
0b832ebbd0d324e28292d883ad532fd64a344c82360cf7fa052b4028559b4427.exe:     file format pei-i386


Disassembly of section .text:

00401000 <.text>:
  401000:	add    BYTE PTR [eax],al
  401002:	add    BYTE PTR [eax],al
  401004:	or     BYTE PTR [esi],0x41
	...
  40100f:	add    BYTE PTR [eax+0x410d],dh
  401015:	adc    eax,DWORD PTR [ecx+0x0]
  401018:	add    BYTE PTR [eax],al
  40101a:	add    BYTE PTR [eax],al
  40101c:	mov    al,0xd
  40101e:	add    DWORD PTR [eax],eax
  401020:	or     BYTE PTR [esi],0x1
  401023:	add    BYTE PTR [eax-0x6ffffef0],al
  401029:	adc    BYTE PTR [ecx],al
  40102b:	add    BYTE PTR [eax+0x112],dh
  401031:	adc    eax,DWORD PTR [ecx]
  401033:	add    al,ah
  401035:	adc    eax,0x16700001
  40103a:	add    DWORD PTR [eax],eax
  40103c:	mov    al,ds:0x30000116
  401041:	and    BYTE PTR [ecx+0x0],al
  401044:	and    BYTE PTR [eax],0x41
  401047:	add    BYTE PTR [edi],ch
	...
  401051:	add    BYTE PTR [eax],al
  401053:	add    BYTE PTR [eax+0x41],dl
  401056:	push   edx
  401057:	push   ebx
  401058:	inc    ebp
  401059:	push   edx
  40105a:	xor    al,BYTE PTR [eax]
  40105c:	arpl   WORD PTR [eax],ax
  40105e:	outs   dx,DWORD PTR ds:[esi]
  40105f:	add    BYTE PTR [eax+0x0],dh
  401062:	jns    0x401064
  401064:	add    BYTE PTR [eax],al
  401066:	add    BYTE PTR [eax],al
  401068:	jno    0x40106a
  40106a:	jne    0x40106c
  40106c:	add    BYTE PTR gs:[edx+0x0],dh
  401070:	jns    0x401072
  401072:	add    BYTE PTR [eax],al
  401074:	add    BYTE PTR fs:[ebp+0x0],ah
  401078:	ins    BYTE PTR es:[edi],dx
  401079:	add    BYTE PTR [ebp+0x0],ah
  40107c:	je     0x40107e
  40107e:	add    BYTE PTR gs:[eax],al
  401081:	add    BYTE PTR [eax],al
  401083:	add    BYTE PTR [edi],bh
  401085:	add    BYTE PTR [eax+eax*1+0x68],bh
  401089:	add    BYTE PTR [eax],al
  40108b:	add    BYTE PTR [edx+0x0],dh
  40108e:	popa   
  40108f:	add    BYTE PTR [edi+0x0],dh
  401092:	add    BYTE PTR [eax],al
  401094:	add    BYTE PTR fs:[ebp+0x0],ah
  401098:	data16 add BYTE PTR [ecx+0x0],ah
  40109c:	jne    0x40109e
  40109e:	ins    BYTE PTR es:[edi],dx
  40109f:	add    BYTE PTR [eax+eax*1+0x0],dh
  4010a3:	add    BYTE PTR [eax+eax*1+0x69],dh
  4010a7:	add    BYTE PTR [ebp+0x0],ch
  4010aa:	add    BYTE PTR gs:[edi+0x0],ch
  4010ae:	jne    0x4010b0
  4010b0:	je     0x4010b2
  4010b2:	add    BYTE PTR [eax],al
  4010b4:	add    BYTE PTR fs:[ebp+0x0],ah
  4010b8:	bound  eax,QWORD PTR [eax]
  4010ba:	jne    0x4010bc
  4010bc:	add    BYTE PTR [bx+si],al
  4010bf:	add    BYTE PTR [ebp+0x0],ah
  4010c2:	ins    DWORD PTR es:[edi],dx
  4010c3:	add    BYTE PTR [ebx+0x0],dh
  4010c6:	add    BYTE PTR [eax],al
  4010c8:	popa   
  4010c9:	add    BYTE PTR [eax+eax*1+0x64],ah
  4010cd:	add    BYTE PTR [ebx+0x0],dh
  4010d0:	ja     0x4010d2
  4010d2:	add    BYTE PTR [eax],al
  4010d4:	jb     0x4010d6
  4010d6:	ins    DWORD PTR es:[edi],dx
  4010d7:	add    BYTE PTR [ebx+0x0],dh
  4010da:	ja     0x4010dc
  4010dc:	add    BYTE PTR [eax],al
  4010de:	add    BYTE PTR [eax],al
  4010e0:	add    BYTE PTR fs:[edx+0x0],ah
  4010e4:	add    BYTE PTR [bx+di],dh
  4010e7:	add    BYTE PTR [ebx],dh
  4010e9:	add    BYTE PTR [ecx],bh
  4010eb:	add    BYTE PTR [eax+eax*1],dh
  4010ee:	add    BYTE PTR [eax],al
  4010f0:	ins    DWORD PTR es:[edi],dx
  4010f1:	add    BYTE PTR [ecx+0x0],ch
  4010f4:	jb     0x4010f6
  4010f6:	jb     0x4010f8
  4010f8:	outs   dx,DWORD PTR ds:[esi]
  4010f9:	add    BYTE PTR [edx+0x0],dh
  4010fc:	add    BYTE PTR [eax],al
  4010fe:	add    BYTE PTR [eax],al
  401100:	ins    BYTE PTR es:[edi],dx
  401101:	add    BYTE PTR [ecx+0x0],ch
  401104:	jae    0x401106
  401106:	je     0x401108
  401108:	add    BYTE PTR [eax],al
  40110a:	add    BYTE PTR [eax],al
  40110c:	jne    0x40110e
  40110e:	jo     0x401110
  401110:	add    BYTE PTR fs:[ecx+0x0],ah
  401114:	je     0x401116
  401116:	add    BYTE PTR gs:[eax],al
  401119:	add    BYTE PTR [eax],al
  40111b:	add    BYTE PTR [ebx+0x0],ah
  40111e:	ins    BYTE PTR es:[edi],dx
  40111f:	add    BYTE PTR [edi+0x0],ch
  401122:	outs   dx,BYTE PTR ds:[esi]
  401123:	add    BYTE PTR [ebp+0x0],ah
  401126:	add    BYTE PTR [eax],al
  401128:	das    
  401129:	add    BYTE PTR [edx+0x0],dh
  40112c:	popa   
  40112d:	add    BYTE PTR [edi+0x0],dh
  401130:	add    BYTE PTR [eax],al
  401132:	add    BYTE PTR [eax],al
  401134:	sub    al,BYTE PTR [eax]
  401136:	add    BYTE PTR [eax],al
  401138:	jae    0x40113a
  40113a:	add    BYTE PTR [eax],al
  40113c:	jne    0x40113e
  40113e:	add    BYTE PTR [eax],al
  401140:	jo     0x401142
  401142:	add    BYTE PTR [eax],al
  401144:	add    BYTE PTR fs:[eax],al
  401147:	add    BYTE PTR [ecx+0x0],ch
  40114a:	add    BYTE PTR fs:[eax],al
  40114d:	add    BYTE PTR [eax],al
  40114f:	add    BYTE PTR [eax+eax*1+0x5c],bl
  401153:	add    BYTE PTR [eax],al
  401155:	add    BYTE PTR [eax],al
  401157:	add    BYTE PTR [eax+eax*1+0x5c],bl
  40115b:	add    BYTE PTR [eax+eax*1+0x0],bl
  40115f:	add    BYTE PTR [edi+0x0],ch
  401162:	jo     0x401164
  401164:	add    BYTE PTR gs:[edx+0x0],dh
  401168:	popa   
  401169:	add    BYTE PTR [eax+eax*1+0x69],dh
  40116d:	add    BYTE PTR [esi+0x0],ch
  401170:	add    BYTE PTR [bx+si],ah
  401173:	add    BYTE PTR [ebx+0x0],dh
  401176:	jns    0x401178
  401178:	jae    0x40117a
  40117a:	je     0x40117c
  40117c:	add    BYTE PTR gs:[ebp+0x0],ch
  401180:	jae    0x401182
  401182:	add    BYTE PTR [eax],al
  401184:	and    al,BYTE PTR [eax]
  401186:	add    BYTE PTR [eax],al
  401188:	and    al,BYTE PTR [eax]
  40118a:	and    eax,0x25007300
  40118f:	add    BYTE PTR [ebx+0x0],dh
  401192:	and    al,BYTE PTR [eax]
  401194:	add    BYTE PTR [eax],al
  401196:	add    BYTE PTR [eax],al
  401198:	cmp    eax,0x20000000
  40119d:	add    BYTE PTR [eax],al
  40119f:	add    BYTE PTR [edi],ch
  4011a1:	add    BYTE PTR [edx+0x0],dh
  4011a4:	add    BYTE PTR gs:[eax+eax*1+0x69],ah
  4011a9:	add    BYTE PTR [edx+0x0],dh
  4011ac:	add    BYTE PTR gs:[ebx+0x0],ah
  4011b0:	je     0x4011b2
  4011b2:	add    BYTE PTR [eax],al
  4011b4:	bound  eax,QWORD PTR [eax]
  4011b6:	outs   dx,DWORD PTR ds:[esi]
  4011b7:	add    BYTE PTR [edi+0x0],ch
  4011ba:	je     0x4011bc
  4011bc:	and    BYTE PTR [eax],al
  4011be:	ins    BYTE PTR es:[edi],dx
  4011bf:	add    BYTE PTR [edi+0x0],ch
  4011c2:	popa   
  4011c3:	add    BYTE PTR [eax+eax*1+0x65],ah
  4011c7:	add    BYTE PTR [edx+0x0],dh
  4011ca:	add    BYTE PTR [eax],al
  4011cc:	jb     0x4011ce
  4011ce:	add    BYTE PTR gs:[eax+eax*1+0x69],ah
  4011d3:	add    BYTE PTR [edx+0x0],dh
  4011d6:	add    BYTE PTR gs:[ebx+0x0],ah
  4011da:	je     0x4011dc
  4011dc:	add    BYTE PTR [eax],al
  4011de:	add    BYTE PTR [eax],al
  4011e0:	jb     0x4011e2
  4011e2:	add    BYTE PTR gs:[eax+eax*1+0x69],ah
  4011e7:	add    BYTE PTR [edx+0x0],dh
  4011ea:	add    BYTE PTR gs:[ebx+0x0],ah
  4011ee:	je     0x4011f0
  4011f0:	bound  eax,QWORD PTR [eax]
  4011f2:	popa   
  4011f3:	add    BYTE PTR [ebp+0x0],dh
  4011f6:	add    BYTE PTR fs:[edx+0x0],dh
  4011fa:	popa   
  4011fb:	add    BYTE PTR [eax+eax*1+0x65],dh
  4011ff:	add    BYTE PTR [eax],al
  401201:	add    BYTE PTR [eax],al
  401203:	add    BYTE PTR [esi+0x0],cl
  401206:	das    
  401207:	add    BYTE PTR [ecx+0x0],al
  40120a:	add    BYTE PTR [eax],al
  40120c:	or     al,BYTE PTR [eax]
  40120e:	add    BYTE PTR [eax],al
  401210:	cmp    al,BYTE PTR [eax]
  401212:	add    BYTE PTR [eax],al
  401214:	add    BYTE PTR [eax],al
  401216:	add    BYTE PTR [eax],al
  401218:	and    BYTE PTR [eax],al
  40121a:	and    BYTE PTR [eax],al
  40121c:	and    BYTE PTR [eax],al
  40121e:	and    BYTE PTR [eax],al
  401220:	and    BYTE PTR [eax],al
  401222:	and    BYTE PTR [eax],al
  401224:	and    BYTE PTR [eax],al
  401226:	and    BYTE PTR [eax],al
  401228:	and    BYTE PTR [eax],al
  40122a:	and    BYTE PTR [eax],al
  40122c:	and    BYTE PTR [eax],al
  40122e:	and    BYTE PTR [eax],al
  401230:	and    BYTE PTR [eax],al
  401232:	and    BYTE PTR [eax],al
  401234:	and    BYTE PTR [eax],al
  401236:	and    BYTE PTR [eax],al
  401238:	and    BYTE PTR [eax],al
  40123a:	and    BYTE PTR [eax],al
  40123c:	and    BYTE PTR [eax],al
  40123e:	and    BYTE PTR [eax],al
  401240:	and    BYTE PTR [eax],al
  401242:	and    BYTE PTR [eax],al
  401244:	and    BYTE PTR [eax],al
  401246:	and    BYTE PTR [eax],al
  401248:	and    BYTE PTR [eax],al
  40124a:	and    BYTE PTR [eax],al
  40124c:	and    BYTE PTR [eax],al
  40124e:	and    BYTE PTR [eax],al
  401250:	and    BYTE PTR [eax],al
  401252:	and    BYTE PTR [eax],al
  401254:	and    BYTE PTR [eax],al
  401256:	and    BYTE PTR [eax],al
  401258:	and    BYTE PTR [eax],al
  40125a:	and    BYTE PTR [eax],al
  40125c:	and    BYTE PTR [eax],al
  40125e:	and    BYTE PTR [eax],al
  401260:	and    BYTE PTR [eax],al
  401262:	and    BYTE PTR [eax],al
  401264:	and    BYTE PTR [eax],al
  401266:	and    BYTE PTR [eax],al
  401268:	and    BYTE PTR [eax],al
  40126a:	and    BYTE PTR [eax],al
  40126c:	and    BYTE PTR [eax],al
  40126e:	and    BYTE PTR [eax],al
  401270:	and    BYTE PTR [eax],al
  401272:	and    BYTE PTR [eax],al
  401274:	and    BYTE PTR [eax],al
  401276:	and    BYTE PTR [eax],al
  401278:	and    BYTE PTR [eax],al
  40127a:	add    BYTE PTR [eax],al
  40127c:	inc    ebp
  40127d:	add    BYTE PTR [edx+0x0],dl
  401280:	push   edx
  401281:	add    BYTE PTR [edi+0x0],cl
  401284:	push   edx
  401285:	add    BYTE PTR [edx],bh
	...
  40128f:	add    BYTE PTR [ebx+0x0],dl
  401292:	outs   dx,DWORD PTR ds:[esi]
  401293:	add    BYTE PTR [esi+0x0],ah
  401296:	je     0x401298
  401298:	ja     0x40129a
  40129a:	popa   
  40129b:	add    BYTE PTR [edx+0x0],dh
  40129e:	add    BYTE PTR gs:[eax+eax*1+0x4d],bl
  4012a3:	add    BYTE PTR [ecx+0x0],ch
  4012a6:	arpl   WORD PTR [eax],ax
  4012a8:	jb     0x4012aa
  4012aa:	outs   dx,DWORD PTR ds:[esi]
  4012ab:	add    BYTE PTR [ebx+0x0],dh
  4012ae:	outs   dx,DWORD PTR ds:[esi]
  4012af:	add    BYTE PTR [esi+0x0],ah
  4012b2:	je     0x4012b4
  4012b4:	pop    esp
  4012b5:	add    BYTE PTR [edi+0x0],dl
  4012b8:	imul   eax,DWORD PTR [eax],0x64006e
  4012be:	outs   dx,DWORD PTR ds:[esi]
  4012bf:	add    BYTE PTR [edi+0x0],dh
  4012c2:	jae    0x4012c4
  4012c4:	pop    esp
  4012c5:	add    BYTE PTR [ebx+0x0],al
  4012c8:	jne    0x4012ca
  4012ca:	jb     0x4012cc
  4012cc:	jb     0x4012ce
  4012ce:	add    BYTE PTR gs:[esi+0x0],ch
  4012d2:	je     0x4012d4
  4012d4:	push   esi
  4012d5:	add    BYTE PTR [ebp+0x0],ah
  4012d8:	jb     0x4012da
  4012da:	jae    0x4012dc
  4012dc:	imul   eax,DWORD PTR [eax],0x6e006f
  4012e2:	pop    esp
  4012e3:	add    BYTE PTR [ebx+0x0],dl
  4012e6:	add    BYTE PTR gs:[eax+eax*1+0x75],dh
  4012eb:	add    BYTE PTR [eax+0x0],dh
  4012ee:	add    BYTE PTR [eax],al
  4012f0:	inc    edx
  4012f1:	add    BYTE PTR [edi+0x0],ch
  4012f4:	outs   dx,DWORD PTR ds:[esi]
  4012f5:	add    BYTE PTR [eax+eax*1+0x44],dh
  4012f9:	add    BYTE PTR [ecx+0x0],ch
  4012fc:	jb     0x4012fe
  4012fe:	add    BYTE PTR [eax],al
  401300:	pop    esp
  401301:	add    BYTE PTR [eax+eax*1+0x25],bl
  401305:	add    BYTE PTR [ebx+0x0],dh
  401308:	pop    esp
  401309:	add    BYTE PTR ds:0x5c007300,ah
  40130f:	add    BYTE PTR [edx+0x0],ah
  401312:	outs   dx,DWORD PTR ds:[esi]
  401313:	add    BYTE PTR [edi+0x0],ch
  401316:	je     0x401318
  401318:	add    BYTE PTR cs:[ecx+0x0],ch
  40131c:	outs   dx,BYTE PTR ds:[esi]
  40131d:	add    BYTE PTR [ecx+0x0],ch
  401320:	add    BYTE PTR [eax],al
  401322:	add    BYTE PTR [eax],al
  401324:	and    eax,0x62007300
  401329:	add    BYTE PTR [edi+0x0],ch
  40132c:	outs   dx,DWORD PTR ds:[esi]
  40132d:	add    BYTE PTR [eax+eax*1+0x2e],dh
  401331:	add    BYTE PTR [ecx+0x0],ch
  401334:	outs   dx,BYTE PTR ds:[esi]
  401335:	add    BYTE PTR [ecx+0x0],ch
  401338:	add    BYTE PTR [eax],al
  40133a:	add    BYTE PTR [eax],al
  40133c:	jb     0x40133e
  40133e:	add    BYTE PTR [eax],al
  401340:	popa   
  401341:	add    BYTE PTR [eax],al
  401343:	add    BYTE PTR [eax+0x0],dh
  401346:	outs   dx,DWORD PTR ds:[esi]
  401347:	add    BYTE PTR [edx+0x0],dh
  40134a:	je     0x40134c
  40134c:	add    BYTE PTR [eax],al
  40134e:	add    BYTE PTR [eax],al
  401350:	inc    ebx
  401351:	add    BYTE PTR [edi+0x0],cl
  401354:	dec    ebp
  401355:	add    BYTE PTR [ecx],dh
  401357:	add    BYTE PTR [eax+eax*1+0x43],bh
  40135b:	add    BYTE PTR [edi+0x0],cl
  40135e:	dec    ebp
  40135f:	add    BYTE PTR [edx],dh
  401361:	add    BYTE PTR [eax+eax*1+0x43],bh
  401365:	add    BYTE PTR [edi+0x0],cl
  401368:	dec    ebp
  401369:	add    BYTE PTR [ebx],dh
  40136b:	add    BYTE PTR [eax+eax*1+0x43],bh
  40136f:	add    BYTE PTR [edi+0x0],cl
  401372:	dec    ebp
  401373:	add    BYTE PTR [eax+eax*1],dh
  401376:	add    BYTE PTR [eax],al
  401378:	bound  eax,QWORD PTR [eax]
  40137a:	popa   
  40137b:	add    BYTE PTR [ebp+0x0],dh
  40137e:	add    BYTE PTR fs:[eax],al
  401381:	add    BYTE PTR [eax],al
  401383:	add    BYTE PTR [ecx],bh
  401385:	add    BYTE PTR [esi],dh
  401387:	add    BYTE PTR [eax],dh
  401389:	add    BYTE PTR [eax],dh
  40138b:	add    BYTE PTR [eax+eax*1+0x31],bh
  40138f:	add    BYTE PTR [ecx],bh
  401391:	add    BYTE PTR [edx],dh
  401393:	add    BYTE PTR [eax],dh
  401395:	add    BYTE PTR [eax],dh
  401397:	add    BYTE PTR [eax+eax*1+0x33],bh
  40139b:	add    BYTE PTR [eax],bh
  40139d:	add    BYTE PTR [eax+eax*1],dh
  4013a0:	xor    BYTE PTR [eax],al
  4013a2:	xor    BYTE PTR [eax],al
  4013a4:	jl     0x4013a6
  4013a6:	xor    eax,0x36003700
  4013ab:	add    BYTE PTR [eax],dh
  4013ad:	add    BYTE PTR [eax],dh
  4013af:	add    BYTE PTR [eax+eax*1+0x31],bh
  4013b3:	add    BYTE PTR [ecx],dh
  4013b5:	add    BYTE PTR ds:0x30003200,dh
  4013bb:	add    BYTE PTR [eax],dh
  4013bd:	add    BYTE PTR [eax],al
  4013bf:	add    BYTE PTR [edi+0x0],ch
  4013c2:	outs   dx,BYTE PTR ds:[esi]
  4013c3:	add    BYTE PTR [eax],al
  4013c5:	add    BYTE PTR [eax],al
  4013c7:	add    BYTE PTR [edi+0x0],ch
  4013ca:	data16 add BYTE PTR [esi+0x0],ah
  4013ce:	add    BYTE PTR [eax],al
  4013d0:	inc    ebp
  4013d1:	add    BYTE PTR [eax+eax*1+0x49],al
  4013d5:	add    BYTE PTR [eax+eax*1+0x0],dl
  4013d9:	add    BYTE PTR [eax],al
  4013db:	add    BYTE PTR [edi],ch
  4013dd:	add    BYTE PTR [eax+eax*1+0x65],ah
  4013e1:	add    BYTE PTR [edx+0x0],ah
  4013e4:	jne    0x4013e6
  4013e6:	add    BYTE PTR [bx+si],al
  4013e9:	add    BYTE PTR [eax],al
  4013eb:	add    BYTE PTR [edi],ch
  4013ed:	add    BYTE PTR [eax+eax*1+0x65],ah
  4013f1:	add    BYTE PTR [edx+0x0],ah
  4013f4:	jne    0x4013f6
  4013f6:	add    BYTE PTR [bx+si+0x0],dh
  4013fa:	outs   dx,DWORD PTR ds:[esi]
  4013fb:	add    BYTE PTR [edx+0x0],dh
  4013fe:	je     0x401400
  401400:	add    BYTE PTR [eax],al
  401402:	add    BYTE PTR [eax],al
  401404:	das    
  401405:	add    BYTE PTR [eax+eax*1+0x65],ah
  401409:	add    BYTE PTR [edx+0x0],ah
  40140c:	jne    0x40140e
  40140e:	add    BYTE PTR [bx+si+0x0],dh
  401412:	outs   dx,DWORD PTR ds:[esi]
  401413:	add    BYTE PTR [edx+0x0],dh
  401416:	je     0x401418
  401418:	cmp    eax,0x33003100
  40141d:	add    BYTE PTR [ecx],bh
  40141f:	add    BYTE PTR [eax+eax*1],dh
  401422:	add    BYTE PTR [eax],al
  401424:	das    
  401425:	add    BYTE PTR [edx+0x0],ah
  401428:	popa   
  401429:	add    BYTE PTR [ebp+0x0],dh
  40142c:	add    BYTE PTR fs:[edx+0x0],dh
  401430:	popa   
  401431:	add    BYTE PTR [eax+eax*1+0x65],dh
  401435:	add    BYTE PTR [eax],al
  401437:	add    BYTE PTR [ebp+0x0],ah
  40143a:	add    BYTE PTR fs:[ecx+0x0],ch
  40143e:	je     0x401440
  401440:	add    BYTE PTR [eax],al
  401442:	add    BYTE PTR [eax],al
  401444:	das    
  401445:	add    BYTE PTR [edx+0x0],ah
  401448:	popa   
  401449:	add    BYTE PTR [ebp+0x0],dh
  40144c:	add    BYTE PTR fs:[edx+0x0],dh
  401450:	popa   
  401451:	add    BYTE PTR [eax+eax*1+0x65],dh
  401455:	add    BYTE PTR ds:0x39003100,bh
  40145b:	add    BYTE PTR [edx],dh
  40145d:	add    BYTE PTR [eax],dh
  40145f:	add    BYTE PTR [eax],dh
  401461:	add    BYTE PTR [eax],al
  401463:	add    BYTE PTR [edi],ch
  401465:	add    BYTE PTR [edx+0x0],ah
  401468:	popa   
  401469:	add    BYTE PTR [ebp+0x0],dh
  40146c:	add    BYTE PTR fs:[edx+0x0],dh
  401470:	popa   
  401471:	add    BYTE PTR [eax+eax*1+0x65],dh
  401475:	add    BYTE PTR ds:0x38003300,bh
  40147b:	add    BYTE PTR [eax+eax*1],dh
  40147e:	xor    BYTE PTR [eax],al
  401480:	xor    BYTE PTR [eax],al
  401482:	add    BYTE PTR [eax],al
  401484:	das    
  401485:	add    BYTE PTR [edx+0x0],ah
  401488:	popa   
  401489:	add    BYTE PTR [ebp+0x0],dh
  40148c:	add    BYTE PTR fs:[edx+0x0],dh
  401490:	popa   
  401491:	add    BYTE PTR [eax+eax*1+0x65],dh
  401495:	add    BYTE PTR ds:0x37003500,bh
  40149b:	add    BYTE PTR [esi],dh
  40149d:	add    BYTE PTR [eax],dh
  40149f:	add    BYTE PTR [eax],dh
  4014a1:	add    BYTE PTR [eax],al
  4014a3:	add    BYTE PTR [edi],ch
  4014a5:	add    BYTE PTR [edx+0x0],ah
  4014a8:	popa   
  4014a9:	add    BYTE PTR [ebp+0x0],dh
  4014ac:	add    BYTE PTR fs:[edx+0x0],dh
  4014b0:	popa   
  4014b1:	add    BYTE PTR [eax+eax*1+0x65],dh
  4014b5:	add    BYTE PTR ds:0x31003100,bh
  4014bb:	add    BYTE PTR ds:0x30003200,dh
  4014c1:	add    BYTE PTR [eax],dh
  4014c3:	add    BYTE PTR [eax],al
  4014c5:	add    BYTE PTR [eax],al
  4014c7:	add    BYTE PTR [edi],ch
  4014c9:	add    BYTE PTR [edx+0x0],ah
  4014cc:	popa   
  4014cd:	add    BYTE PTR [ebp+0x0],dh
  4014d0:	add    BYTE PTR fs:[edx+0x0],dh
  4014d4:	popa   
  4014d5:	add    BYTE PTR [eax+eax*1+0x65],dh
  4014d9:	add    BYTE PTR ds:0x36003900,bh
  4014df:	add    BYTE PTR [eax],dh
  4014e1:	add    BYTE PTR [eax],dh
  4014e3:	add    BYTE PTR [eax],al
  4014e5:	add    BYTE PTR [eax],al
  4014e7:	add    BYTE PTR [ebx+0x0],al
  4014ea:	dec    edi
  4014eb:	add    BYTE PTR [ebp+0x0],cl
  4014ee:	xor    DWORD PTR [eax],eax
  4014f0:	jl     0x4014f2
  4014f2:	inc    ebx
  4014f3:	add    BYTE PTR [edi+0x0],cl
  4014f6:	dec    ebp
  4014f7:	add    BYTE PTR [edx],dh
  4014f9:	add    BYTE PTR [eax+eax*1+0x43],bh
  4014fd:	add    BYTE PTR [edi+0x0],cl
  401500:	dec    ebp
  401501:	add    BYTE PTR [ebx],dh
  401503:	add    BYTE PTR [eax+eax*1+0x43],bh
  401507:	add    BYTE PTR [edi+0x0],cl
  40150a:	dec    ebp
  40150b:	add    BYTE PTR [eax+eax*1],dh
  40150e:	jl     0x401510
  401510:	inc    edx
  401511:	add    BYTE PTR [ecx+0x0],cl
  401514:	dec    edi
  401515:	add    BYTE PTR [ebx+0x0],dl
  401518:	push   ebx
  401519:	add    BYTE PTR [ebp+0x0],al
  40151c:	push   esp
  40151d:	add    BYTE PTR [eax],al
  40151f:	add    BYTE PTR [ecx],bh
  401521:	add    BYTE PTR [esi],dh
  401523:	add    BYTE PTR [eax],dh
  401525:	add    BYTE PTR [eax],dh
  401527:	add    BYTE PTR [eax+eax*1+0x31],bh
  40152b:	add    BYTE PTR [ecx],bh
  40152d:	add    BYTE PTR [edx],dh
  40152f:	add    BYTE PTR [eax],dh
  401531:	add    BYTE PTR [eax],dh
  401533:	add    BYTE PTR [eax+eax*1+0x35],bh
  401537:	add    BYTE PTR [edi],dh
  401539:	add    BYTE PTR [esi],dh
  40153b:	add    BYTE PTR [eax],dh
  40153d:	add    BYTE PTR [eax],dh
  40153f:	add    BYTE PTR [eax+eax*1+0x31],bh
  401543:	add    BYTE PTR [ecx],dh
  401545:	add    BYTE PTR ds:0x30003200,dh
  40154b:	add    BYTE PTR [eax],dh
  40154d:	add    BYTE PTR [eax],al
  40154f:	add    BYTE PTR [edi+0x0],cl
  401552:	dec    esi
  401553:	add    BYTE PTR [eax],al
  401555:	add    BYTE PTR [eax],al
  401557:	add    BYTE PTR [edi+0x0],cl
  40155a:	inc    esi
  40155b:	add    BYTE PTR [esi+0x0],al
  40155e:	add    BYTE PTR [eax],al
  401560:	bound  eax,QWORD PTR [eax]
  401562:	imul   eax,DWORD PTR [eax],0x73006f
  401568:	jae    0x40156a
  40156a:	add    BYTE PTR gs:[eax+eax*1+0x0],dh
  40156f:	add    BYTE PTR [ebp+0x0],dl
  401572:	push   ebx
  401573:	add    BYTE PTR [ebp+0x0],al
  401576:	inc    edx
  401577:	add    BYTE PTR [ecx+0x0],cl
  40157a:	dec    edi
  40157b:	add    BYTE PTR [ebx+0x0],dl
  40157e:	push   ebx
  40157f:	add    BYTE PTR [ebp+0x0],al
  401582:	push   esp
  401583:	add    BYTE PTR [eax+eax*1+0x49],dl
  401587:	add    BYTE PTR [esi+0x0],cl
  40158a:	inc    edi
  40158b:	add    BYTE PTR [ebx+0x0],dl
  40158e:	add    BYTE PTR [eax],al
  401590:	das    
  401591:	add    BYTE PTR [eax+eax*1+0x65],ah
  401595:	add    BYTE PTR [edx+0x0],ah
  401598:	jne    0x40159a
  40159a:	add    BYTE PTR [bx+si+0x0],dh
  40159e:	outs   dx,DWORD PTR ds:[esi]
  40159f:	add    BYTE PTR [edx+0x0],dh
  4015a2:	je     0x4015a4
  4015a4:	cmp    eax,0x6d000000
  4015a9:	add    BYTE PTR [ebp+0x0],ch
  4015ac:	add    BYTE PTR [eax],al
  4015ae:	add    BYTE PTR [eax],al
  4015b0:	bound  eax,QWORD PTR [eax]
  4015b2:	jbe    0x4015b4
  4015b4:	add    BYTE PTR [eax],al
  4015b6:	add    BYTE PTR [eax],al
  4015b8:	outs   dx,BYTE PTR ds:[esi]
  4015b9:	add    BYTE PTR [edi+0x0],ah
  4015bc:	add    BYTE PTR [eax],al
  4015be:	add    BYTE PTR [eax],al
  4015c0:	jae    0x4015c2
  4015c2:	outs   dx,DWORD PTR ds:[esi]
  4015c3:	add    BYTE PTR [eax],al
  4015c5:	add    BYTE PTR [eax],al
  4015c7:	add    BYTE PTR [edi],ch
  4015c9:	add    BYTE PTR [ebp+0x0],ch
  4015cc:	popa   
  4015cd:	add    BYTE PTR [eax+0x0],bh
  4015d0:	ins    DWORD PTR es:[edi],dx
  4015d1:	add    BYTE PTR [ebp+0x0],ah
  4015d4:	ins    DWORD PTR es:[edi],dx
  4015d5:	add    BYTE PTR [eax],al
  4015d7:	add    BYTE PTR [edi],ch
  4015d9:	add    BYTE PTR [edx+0x0],ah
  4015dc:	popa   
  4015dd:	add    BYTE PTR [ebx+0x0],dh
  4015e0:	add    BYTE PTR gs:[esi+0x0],dh
  4015e4:	imul   eax,DWORD PTR [eax],0x650064
  4015ea:	outs   dx,DWORD PTR ds:[esi]
  4015eb:	add    BYTE PTR [eax],al
  4015ed:	add    BYTE PTR [eax],al
  4015ef:	add    BYTE PTR [edi],ch
  4015f1:	add    BYTE PTR [ebx+0x0],dh
  4015f4:	outs   dx,DWORD PTR ds:[esi]
  4015f5:	add    BYTE PTR [ebx+0x0],dh
  4015f8:	add    BYTE PTR [eax],al
  4015fa:	add    BYTE PTR [eax],al
  4015fc:	das    
  4015fd:	add    BYTE PTR [esi+0x0],ch
  401600:	outs   dx,DWORD PTR ds:[esi]
  401601:	add    BYTE PTR [edi+0x0],ah
  401604:	jne    0x401606
  401606:	imul   eax,DWORD PTR [eax],0x6f0062
  40160c:	outs   dx,DWORD PTR ds:[esi]
  40160d:	add    BYTE PTR [eax+eax*1+0x0],dh
  401611:	add    BYTE PTR [eax],al
  401613:	add    BYTE PTR [ebx+0x0],ah
  401616:	push   0x0
  40161b:	add    BYTE PTR [edi],ch
  40161d:	add    BYTE PTR [edx+0x0],ah
  401620:	popa   
  401621:	add    BYTE PTR [ebp+0x0],dh
  401624:	add    BYTE PTR fs:[edx+0x0],dh
  401628:	popa   
  401629:	add    BYTE PTR [eax+eax*1+0x65],dh
  40162d:	add    BYTE PTR ds:0x0,bh
  401633:	add    BYTE PTR [edi],ch
  401635:	add    BYTE PTR [ebx+0x0],ah
  401638:	push   0x6e006100
  40163d:	add    BYTE PTR [esi+0x0],ch
  401640:	add    BYTE PTR gs:[eax+eax*1+0x0],ch
  401645:	add    BYTE PTR [eax],al
  401647:	add    BYTE PTR [eax+0x0],cl
  40164a:	inc    ecx
  40164b:	add    BYTE PTR [edx+0x0],dl
  40164e:	inc    esp
  40164f:	add    BYTE PTR [edi+0x0],dl
  401652:	inc    ecx
  401653:	add    BYTE PTR [edx+0x0],dl
  401656:	inc    ebp
  401657:	add    BYTE PTR [eax+eax*1+0x44],bl
  40165b:	add    BYTE PTR [ebp+0x0],al
  40165e:	push   ebx
  40165f:	add    BYTE PTR [ebx+0x0],al
  401662:	push   edx
  401663:	add    BYTE PTR [ecx+0x0],cl
  401666:	push   eax
  401667:	add    BYTE PTR [eax+eax*1+0x49],dl
  40166b:	add    BYTE PTR [edi+0x0],cl
  40166e:	dec    esi
  40166f:	add    BYTE PTR [eax+eax*1+0x53],bl
  401673:	add    BYTE PTR [ecx+0x0],bl
  401676:	push   ebx
  401677:	add    BYTE PTR [eax+eax*1+0x45],dl
  40167b:	add    BYTE PTR [ebp+0x0],cl
  40167e:	pop    esp
  40167f:	add    BYTE PTR [ebx+0x0],al
  401682:	inc    ebp
  401683:	add    BYTE PTR [esi+0x0],cl
  401686:	push   esp
  401687:	add    BYTE PTR [edx+0x0],dl
  40168a:	inc    ecx
  40168b:	add    BYTE PTR [eax+eax*1+0x50],cl
  40168f:	add    BYTE PTR [edx+0x0],dl
  401692:	dec    edi
  401693:	add    BYTE PTR [ebx+0x0],al
  401696:	inc    ebp
  401697:	add    BYTE PTR [ebx+0x0],dl
  40169a:	push   ebx
  40169b:	add    BYTE PTR [edi+0x0],cl
  40169e:	push   edx
  40169f:	add    BYTE PTR [eax+eax*1+0x30],bl
  4016a3:	add    BYTE PTR [eax],al
  4016a5:	add    BYTE PTR [eax],al
  4016a7:	add    BYTE PTR [ecx+0x0],cl
  4016aa:	add    BYTE PTR fs:[ebp+0x0],ah
  4016ae:	outs   dx,BYTE PTR ds:[esi]
  4016af:	add    BYTE PTR [eax+eax*1+0x69],dh
  4016b3:	add    BYTE PTR [esi+0x0],ah
  4016b6:	imul   eax,DWORD PTR [eax],0x720065
  4016bc:	add    BYTE PTR [eax],al
  4016be:	add    BYTE PTR [eax],al
  4016c0:	js     0x4016c2
  4016c2:	cmp    BYTE PTR [eax],al
  4016c4:	add    BYTE PTR ss:[eax],al
  4016c7:	add    BYTE PTR [ecx+0x0],ch
  4016ca:	popa   
  4016cb:	add    BYTE PTR [esi],dh
  4016cd:	add    BYTE PTR [eax+eax*1],dh
  4016d0:	add    BYTE PTR [eax],al
  4016d2:	add    BYTE PTR [eax],al
  4016d4:	inc    ecx
  4016d5:	add    BYTE PTR [ebp+0x0],cl
  4016d8:	inc    esp
  4016d9:	add    BYTE PTR [esi],dh
  4016db:	add    BYTE PTR [eax+eax*1],dh
  4016de:	add    BYTE PTR [eax],al
  4016e0:	inc    ebp
  4016e1:	add    BYTE PTR [ebp+0x0],cl
  4016e4:	add    BYTE PTR ss:[eax+eax*1],dh
  4016e8:	push   esp
  4016e9:	add    BYTE PTR [eax],al
  4016eb:	add    BYTE PTR [ecx+0x0],cl
  4016ee:	outs   dx,BYTE PTR ds:[esi]
  4016ef:	add    BYTE PTR [eax+eax*1+0x65],dh
  4016f3:	add    BYTE PTR [eax+eax*1+0x36],ch
  4016f7:	add    BYTE PTR [eax+eax*1],dh
  4016fa:	add    BYTE PTR [eax],al
  4016fc:	and    eax,0x20007300
  401701:	add    BYTE PTR [eax],al
  401703:	add    BYTE PTR [eax+eax*1+0x25],bh
  401707:	add    BYTE PTR [ebx+0x0],dh
  40170a:	jl     0x40170c
  40170c:	add    BYTE PTR [eax],al
  40170e:	add    BYTE PTR [eax],al
  401710:	and    BYTE PTR [eax],al
  401712:	or     DWORD PTR [eax],eax
  401714:	add    BYTE PTR [eax],al
  401716:	add    BYTE PTR [eax],al
  401718:	and    eax,0x25000073
  40171d:	add    BYTE PTR [ebx+0x0],ah
  401720:	add    BYTE PTR [eax],al
  401722:	add    BYTE PTR [eax],al
  401724:	pop    es
  401725:	add    BYTE PTR [eax],al
  401727:	add    BYTE PTR [edx],cl
  401729:	add    BYTE PTR [edx],cl
  40172b:	add    BYTE PTR [eax],al
  40172d:	add    BYTE PTR [eax],al
  40172f:	add    BYTE PTR [edx+0x55],al
  401732:	inc    esi
  401733:	inc    esi
  401734:	inc    ebp
  401735:	push   edx
  401736:	add    BYTE PTR [eax],al
  401738:	add    BYTE PTR [eax],al
  40173a:	add    BYTE PTR [eax],al
  40173c:	and    eax,0x64006c00
  401741:	add    BYTE PTR [eax],al
  401743:	add    BYTE PTR ds:0x75006c00,ah
  401749:	add    BYTE PTR [eax],al
  40174b:	add    BYTE PTR ds:0x6600,ah
  401751:	add    BYTE PTR [eax],al
  401753:	add    BYTE PTR [eax+eax*1+0x6f],ch
  401757:	add    BYTE PTR [ebx+0x0],ah
  40175a:	popa   
  40175b:	add    BYTE PTR [eax+eax*1+0x68],ch
  40175f:	add    BYTE PTR [edi+0x0],ch
  401762:	jae    0x401764
  401764:	je     0x401766
  401766:	add    BYTE PTR [eax],al
  401768:	and    BYTE PTR [eax],al
  40176a:	pop    esp
  40176b:	add    BYTE PTR [edi],ch
  40176d:	add    BYTE PTR [ebx+0x0],bl
  401770:	pop    ebp
  401771:	add    BYTE PTR [edx],bh
  401773:	add    BYTE PTR [eax+eax*1+0x3c],bh
  401777:	add    BYTE PTR [esi],bh
  401779:	add    BYTE PTR [ebx],ch
  40177b:	add    BYTE PTR ds:0x2c003b00,bh
  401781:	add    BYTE PTR [edi],bh
  401783:	add    BYTE PTR [eax+eax*1],ah
  401786:	and    eax,DWORD PTR [eax]
  401788:	sub    BYTE PTR [eax],al
  40178a:	sub    DWORD PTR [eax],eax
  40178c:	and    DWORD PTR [eax],eax
  40178e:	inc    eax
  40178f:	add    BYTE PTR [esi+0x0],bl
  401792:	and    al,BYTE PTR [eax]
  401794:	pusha  
  401795:	add    BYTE PTR [ebx+0x0],bh
  401798:	jge    0x40179a
  40179a:	sub    al,BYTE PTR [eax]
  40179c:	and    eax,0x2e000000
  4017a1:	add    BYTE PTR [eax],al
  4017a3:	add    BYTE PTR [eax+eax*1+0x5c],bl
  4017a7:	add    BYTE PTR ds:0x7300,ah
  4017ad:	add    BYTE PTR [eax],al
  4017af:	add    BYTE PTR [ecx+0x0],cl
  4017b2:	push   eax
  4017b3:	add    BYTE PTR [ebx+0x0],al
  4017b6:	and    al,0x0
  4017b8:	add    BYTE PTR [eax],al
  4017ba:	add    BYTE PTR [eax],al
  4017bc:	pop    esp
  4017bd:	add    BYTE PTR [eax+eax*1+0x25],bl
  4017c1:	add    BYTE PTR [ebx+0x0],dh
  4017c4:	pop    esp
  4017c5:	add    BYTE PTR ds:0x7300,ah
  4017cb:	add    BYTE PTR ds:0x7300,ah
  4017d1:	add    BYTE PTR [eax],al
  4017d3:	add    BYTE PTR ds:0x6400,ah
  4017d9:	add    BYTE PTR [eax],al
  4017db:	add    BYTE PTR ds:0x3a007300,ah
  4017e1:	add    BYTE PTR [eax],al
  4017e3:	add    BYTE PTR [eax+eax*1+0x56],bl
  4017e7:	add    BYTE PTR [ecx+0x0],ah
  4017ea:	jb     0x4017ec
  4017ec:	inc    esi
  4017ed:	add    BYTE PTR [ecx+0x0],ch
  4017f0:	ins    BYTE PTR es:[edi],dx
  4017f1:	add    BYTE PTR [ebp+0x0],ah
  4017f4:	dec    ecx
  4017f5:	add    BYTE PTR [esi+0x0],ch
  4017f8:	data16 add BYTE PTR [edi+0x0],ch
  4017fc:	pop    esp
  4017fd:	add    BYTE PTR [eax+eax*1+0x72],dl
  401801:	add    BYTE PTR [ecx+0x0],ah
  401804:	outs   dx,BYTE PTR ds:[esi]
  401805:	add    BYTE PTR [ebx+0x0],dh
  401808:	ins    BYTE PTR es:[edi],dx
  401809:	add    BYTE PTR [ecx+0x0],ah
  40180c:	je     0x40180e
  40180e:	imul   eax,DWORD PTR [eax],0x6e006f
  401814:	add    BYTE PTR [eax],al
  401816:	add    BYTE PTR [eax],al
  401818:	pop    esp
  401819:	add    BYTE PTR [ebx+0x0],dl
  40181c:	je     0x40181e
  40181e:	jb     0x401820
  401820:	imul   eax,DWORD PTR [eax],0x67006e
  401826:	inc    esi
  401827:	add    BYTE PTR [ecx+0x0],ch
  40182a:	ins    BYTE PTR es:[edi],dx
  40182b:	add    BYTE PTR [ebp+0x0],ah
  40182e:	dec    ecx
  40182f:	add    BYTE PTR [esi+0x0],ch
  401832:	data16 add BYTE PTR [edi+0x0],ch
  401836:	pop    esp
  401837:	add    BYTE PTR ds:0x34003000,ah
  40183d:	add    BYTE PTR [eax+0x0],bh
  401840:	and    eax,0x34003000
  401845:	add    BYTE PTR [eax+0x0],bh
  401848:	pop    esp
  401849:	add    BYTE PTR [ecx+0x0],cl
  40184c:	outs   dx,BYTE PTR ds:[esi]
  40184d:	add    BYTE PTR [eax+eax*1+0x65],dh
  401851:	add    BYTE PTR [edx+0x0],dh
  401854:	outs   dx,BYTE PTR ds:[esi]
  401855:	add    BYTE PTR [ecx+0x0],ah
  401858:	ins    BYTE PTR es:[edi],dx
  401859:	add    BYTE PTR [esi+0x0],cl
  40185c:	popa   
  40185d:	add    BYTE PTR [ebp+0x0],ch
  401860:	add    BYTE PTR gs:[eax],al
  401863:	add    BYTE PTR [esi],ch
  401865:	add    BYTE PTR [ebp+0x0],al
  401868:	pop    eax
  401869:	add    BYTE PTR [ebp+0x0],al
  40186c:	add    BYTE PTR [eax],al
  40186e:	add    BYTE PTR [eax],al
  401870:	and    eax,0x20007300
  401875:	add    BYTE PTR ds:0x7300,ah
  40187b:	add    BYTE PTR [eax+0x41],dl
  40187e:	push   edx
  40187f:	push   ebx
  401880:	inc    ebp
  401881:	push   edx
  401882:	xor    al,BYTE PTR [eax]
  401884:	sub    eax,0x2f00
  401889:	add    BYTE PTR [eax],al
  40188b:	add    BYTE PTR [eax],al
  40188d:	add    BYTE PTR [eax+0xbf],al
  401893:	add    BYTE PTR [eax],al
  401895:	add    al,dh
  401897:	mov    edi,0x0
	...
  4018a4:	ret    0x9f3b
  4018a7:	push   ebp
  4018a8:	add    BYTE PTR [eax],al
  4018aa:	add    BYTE PTR [eax],al
  4018ac:	add    al,BYTE PTR [eax]
  4018ae:	add    BYTE PTR [eax],al
  4018b0:	and    al,0x0
  4018b2:	add    BYTE PTR [eax],al
  4018b4:	sbb    DWORD PTR fs:[eax],eax
  4018b7:	add    BYTE PTR [ebp+ecx*1+0x0],ah
  4018bb:	add    BYTE PTR [eax],al
  4018bd:	add    BYTE PTR [eax],al
  4018bf:	add    dl,al
  4018c1:	cmp    ebx,DWORD PTR [edi+0x55]
  4018c7:	add    BYTE PTR ds:0xc8000000,cl
  4018cd:	add    DWORD PTR [eax],eax
  4018cf:	add    BYTE PTR [ecx+ebx*1+0xd9c0000],bl
	...
  4018f6:	add    BYTE PTR [eax],al
  4018f8:	push   0x0
	...
  401931:	add    BYTE PTR [eax],al
  401933:	add    BYTE PTR [eax+eiz*1],al
  401936:	inc    ecx
  401937:	add    BYTE PTR [eax+0x19],ah
  40193a:	inc    eax
  40193b:	add    BYTE PTR [ecx],al
  40193d:	add    BYTE PTR [eax],al
  40193f:	add    BYTE PTR [eax],dl
  401941:	xor    al,BYTE PTR [ecx+0x0]
  401944:	add    BYTE PTR [eax],al
  401946:	add    BYTE PTR [eax],al
  401948:	sbb    al,0x10
  40194a:	inc    eax
  40194b:	add    BYTE PTR [ecx],cl
  40194d:	add    BYTE PTR [eax],al
  40194f:	add    BYTE PTR [eax],al
  401951:	xor    eax,0x0
	...
  40195e:	add    BYTE PTR [eax],al
  401960:	jo     0x401978
  401962:	add    DWORD PTR [eax],eax
  401964:	push   edx
  401965:	push   ebx
  401966:	inc    esp
  401967:	push   ebx
  401968:	mov    ch,0xf3
  40196a:	add    al,0xfc
  40196c:	outs   dx,DWORD PTR ds:[esi]
  40196d:	xchg   DWORD PTR [ecx+0x40],ecx
  401970:	mov    al,0x8a
  401972:	test   DWORD PTR [ecx],0xd657b83e
  401978:	add    DWORD PTR [eax],eax
  40197a:	add    BYTE PTR [eax],al
  40197c:	bound  ebp,QWORD PTR [edi+0x6f]
  40197f:	je     0x4019e4
  401981:	data16 addr16 cs jo 0x4019ea
  401986:	bound  eax,QWORD PTR [eax]
	...
  40199c:	inc    edi
  40199d:	inc    ebx
  40199e:	push   esp
  40199f:	dec    esp
  4019a0:	add    BYTE PTR [eax],dl
  4019a2:	add    BYTE PTR [eax],al
  4019a4:	add    al,0x0
  4019a6:	add    BYTE PTR [eax],al
  4019a8:	cs inc ebx
  4019aa:	push   edx
  4019ab:	push   esp
  4019ac:	and    al,0x58
  4019ae:	inc    ebx
  4019af:	inc    ecx
  4019b0:	add    BYTE PTR [eax],al
  4019b2:	add    BYTE PTR [eax],al
  4019b4:	add    al,0x10
  4019b6:	add    BYTE PTR [eax],al
  4019b8:	add    al,0x0
  4019ba:	add    BYTE PTR [eax],al
  4019bc:	cs inc ebx
  4019be:	push   edx
  4019bf:	push   esp
  4019c0:	and    al,0x58
  4019c2:	inc    ebx
  4019c3:	inc    ecx
  4019c4:	inc    ecx
  4019c5:	add    BYTE PTR [eax],al
  4019c7:	add    BYTE PTR [eax],cl
  4019c9:	adc    BYTE PTR [eax],al
  4019cb:	add    BYTE PTR [eax+eax*1],al
  4019ce:	add    BYTE PTR [eax],al
  4019d0:	cs inc ebx
  4019d2:	push   edx
  4019d3:	push   esp
  4019d4:	and    al,0x58
  4019d6:	inc    ebx
  4019d7:	pop    edx
  4019d8:	add    BYTE PTR [eax],al
  4019da:	add    BYTE PTR [eax],al
  4019dc:	or     al,0x10
  4019de:	add    BYTE PTR [eax],al
  4019e0:	add    al,0x0
  4019e2:	add    BYTE PTR [eax],al
  4019e4:	cs inc ebx
  4019e6:	push   edx
  4019e7:	push   esp
  4019e8:	and    al,0x58
  4019ea:	dec    ecx
  4019eb:	inc    ecx
  4019ec:	add    BYTE PTR [eax],al
  4019ee:	add    BYTE PTR [eax],al
  4019f0:	adc    BYTE PTR [eax],dl
  4019f2:	add    BYTE PTR [eax],al
  4019f4:	add    al,0x0
  4019f6:	add    BYTE PTR [eax],al
  4019f8:	cs inc ebx
  4019fa:	push   edx
  4019fb:	push   esp
  4019fc:	and    al,0x58
  4019fe:	dec    ecx
  4019ff:	inc    ecx
  401a00:	inc    ecx
  401a01:	add    BYTE PTR [eax],al
  401a03:	add    BYTE PTR [eax+edx*1],dl
  401a06:	add    BYTE PTR [eax],al
  401a08:	add    al,0x0
  401a0a:	add    BYTE PTR [eax],al
  401a0c:	cs inc ebx
  401a0e:	push   edx
  401a0f:	push   esp
  401a10:	and    al,0x58
  401a12:	dec    ecx
  401a13:	pop    ecx
  401a14:	add    BYTE PTR [eax],al
  401a16:	add    BYTE PTR [eax],al
  401a18:	sbb    BYTE PTR [eax],dl
  401a1a:	add    BYTE PTR [eax],al
  401a1c:	add    al,0x0
  401a1e:	add    BYTE PTR [eax],al
  401a20:	cs inc ebx
  401a22:	push   edx
  401a23:	push   esp
  401a24:	and    al,0x58
  401a26:	dec    ecx
  401a27:	pop    edx
  401a28:	add    BYTE PTR [eax],al
  401a2a:	add    BYTE PTR [eax],al
  401a2c:	sbb    al,0x10
  401a2e:	add    BYTE PTR [eax],al
  401a30:	and    al,0x0
  401a32:	add    BYTE PTR [eax],al
  401a34:	imul   sp,WORD PTR cs:[si+0x73],0x7824
  401a3c:	add    BYTE PTR [eax],al
  401a3e:	add    BYTE PTR [eax],al
  401a40:	inc    eax
  401a41:	adc    BYTE PTR [eax],al
  401a43:	add    BYTE PTR [eax],ah
  401a45:	or     DWORD PTR [eax],eax
  401a47:	add    BYTE PTR [esi],ch
  401a49:	jb     0x401aaf
  401a4b:	popa   
  401a4c:	je     0x401aaf
  401a4e:	add    BYTE PTR [eax],al
  401a50:	pusha  
  401a51:	sbb    DWORD PTR [eax],eax
  401a53:	add    BYTE PTR [eax+eax*1],al
  401a56:	add    BYTE PTR [eax],al
  401a58:	cs jb  0x401abf
  401a5b:	popa   
  401a5c:	je     0x401abf
  401a5e:	and    al,0x73
  401a60:	js     0x401ac6
  401a62:	popa   
  401a63:	je     0x401ac6
  401a65:	add    BYTE PTR [eax],al
  401a67:	add    BYTE PTR [ecx+ebx*1+0x0],ah
  401a6b:	add    BYTE PTR [eax],al
  401a6d:	add    al,BYTE PTR [eax]
  401a6f:	add    BYTE PTR [esi],ch
  401a71:	jb     0x401ad7
  401a73:	popa   
  401a74:	je     0x401ad7
  401a76:	and    al,0x7a
  401a78:	jp     0x401af4
  401a7a:	bound  esp,QWORD PTR fs:[edi+0x0]
  401a7e:	add    BYTE PTR [eax],al
  401a80:	jo     0x401a9d
  401a82:	add    BYTE PTR [eax],al
  401a84:	adc    ah,bh
  401a86:	add    BYTE PTR [eax],al
  401a88:	cs je  0x401af0
  401a8b:	js     0x401b01
  401a8d:	and    al,0x6d
  401a8f:	outs   dx,BYTE PTR ds:[esi]
  401a90:	add    BYTE PTR [eax],al
  401a92:	add    BYTE PTR [eax],al
  401a94:	adc    BYTE PTR [edi],0x1
  401a97:	add    BYTE PTR [eax+eax*1+0x782e0000],bl
  401a9e:	fs popa 
  401aa0:	je     0x401b03
  401aa2:	and    al,0x78
  401aa4:	add    BYTE PTR [eax],al
  401aa6:	add    BYTE PTR [eax],al
  401aa8:	add    BYTE PTR [eax],ah
  401aaa:	add    DWORD PTR [eax],eax
  401aac:	adc    BYTE PTR [eax],al
  401aae:	add    BYTE PTR [eax],al
  401ab0:	cs fs popa 
  401ab3:	je     0x401b16
  401ab5:	add    BYTE PTR [eax],al
  401ab7:	add    BYTE PTR [eax],dl
  401ab9:	and    BYTE PTR [ecx],al
  401abb:	add    BYTE PTR [eax+0x2e000004],al
  401ac1:	bound  esi,QWORD PTR [ebx+0x73]
  401ac4:	add    BYTE PTR [eax],al
  401ac6:	add    BYTE PTR [eax],al
  401ac8:	add    BYTE PTR [eax],dh
  401aca:	add    DWORD PTR [eax],eax
  401acc:	adc    BYTE PTR [edx],al
  401ace:	add    BYTE PTR [eax],al
  401ad0:	imul   esp,DWORD PTR cs:[ecx+eiz*2+0x74],0x352461
  401ad9:	add    BYTE PTR [eax],al
  401adb:	add    BYTE PTR [eax],dl
  401add:	xor    al,BYTE PTR [ecx]
  401adf:	add    BYTE PTR [eax+eax*1],al
  401ae2:	add    BYTE PTR [eax],al
  401ae4:	xor    BYTE PTR cs:[eax],dh
  401ae7:	arpl   WORD PTR [esi+0x67],sp
  401aea:	add    BYTE PTR [eax],al
  401aec:	adc    al,0x32
  401aee:	add    DWORD PTR [eax],eax
  401af0:	fadd   QWORD PTR [eax]
  401af2:	add    BYTE PTR [eax],al
  401af4:	imul   esp,DWORD PTR cs:[ecx+eiz*2+0x74],0x322461
  401afd:	add    BYTE PTR [eax],al
  401aff:	add    al,dh
  401b01:	xor    al,BYTE PTR [ecx]
  401b03:	add    BYTE PTR [eax+eax*1],dl
  401b06:	add    BYTE PTR [eax],al
  401b08:	imul   esp,DWORD PTR cs:[ecx+eiz*2+0x74],0x332461
  401b11:	add    BYTE PTR [eax],al
  401b13:	add    BYTE PTR [ebx+esi*1],al
  401b16:	add    DWORD PTR [eax],eax
  401b18:	adc    BYTE PTR [edx],al
  401b1a:	add    BYTE PTR [eax],al
  401b1c:	imul   esp,DWORD PTR cs:[ecx+eiz*2+0x74],0x342461
  401b25:	add    BYTE PTR [eax],al
  401b27:	add    BYTE PTR [esi*1+0x8320001],dl
  401b2e:	add    BYTE PTR [eax],al
  401b30:	imul   esp,DWORD PTR cs:[ecx+eiz*2+0x74],0x362461
  401b39:	add    BYTE PTR [eax],al
  401b3b:	add    BYTE PTR [eax],al
  401b3d:	inc    eax
  401b3e:	add    DWORD PTR [eax],eax
  401b40:	lock add BYTE PTR [eax],al
  401b43:	add    BYTE PTR [esi],ch
  401b45:	jb     0x401bba
  401b47:	jb     0x401bac
  401b49:	and    al,0x30
  401b4b:	xor    DWORD PTR [eax],eax
  401b4d:	add    BYTE PTR [eax],al
  401b4f:	add    al,dh
  401b51:	inc    eax
  401b52:	add    DWORD PTR [eax],eax
  401b54:	dec    eax
  401b55:	pop    es
  401b56:	add    BYTE PTR [eax],al
  401b58:	cs jb  0x401bce
  401b5b:	jb     0x401bc0
  401b5d:	and    al,0x30
  401b5f:	xor    al,BYTE PTR [eax]
	...
  401b75:	mov    edi,edi
  401b77:	push   ebp
  401b78:	mov    ebp,esp
  401b7a:	mov    eax,DWORD PTR [ebp+0xc]
  401b7d:	push   esi
  401b7e:	xor    esi,esi
  401b80:	test   eax,eax
  401b82:	je     0x401b8b
  401b84:	cmp    eax,0x7fffffff
  401b89:	jbe    0x401b90
  401b8b:	mov    esi,0x80070057
  401b90:	test   esi,esi
  401b92:	js     0x401bcb
  401b94:	push   ebx
  401b95:	mov    ebx,DWORD PTR [ebp+0x8]
  401b98:	xor    esi,esi
  401b9a:	push   edi
  401b9b:	lea    edi,[eax-0x1]
  401b9e:	lea    eax,[ebp+0x14]
  401ba1:	push   eax
  401ba2:	push   DWORD PTR [ebp+0x10]
  401ba5:	push   edi
  401ba6:	push   ebx
  401ba7:	call   DWORD PTR ds:0x4131bc
  401bad:	add    esp,0x10
  401bb0:	test   eax,eax
  401bb2:	js     0x401bbc
  401bb4:	cmp    eax,edi
  401bb6:	ja     0x401bbc
  401bb8:	jne    0x401bc7
  401bba:	jmp    0x401bc1
  401bbc:	mov    esi,0x8007007a
  401bc1:	xor    eax,eax
  401bc3:	mov    WORD PTR [ebx+edi*2],ax
  401bc7:	pop    edi
  401bc8:	pop    ebx
  401bc9:	jmp    0x401bd7
  401bcb:	test   eax,eax
  401bcd:	je     0x401bd7
  401bcf:	mov    ecx,DWORD PTR [ebp+0x8]
  401bd2:	xor    eax,eax
  401bd4:	mov    WORD PTR [ecx],ax
  401bd7:	mov    eax,esi
  401bd9:	pop    esi
  401bda:	pop    ebp
  401bdb:	ret    
  401bdc:	int3   
  401bdd:	int3   
  401bde:	int3   
  401bdf:	int3   
  401be0:	int3   
  401be1:	mov    edi,edi
  401be3:	push   ebp
  401be4:	mov    ebp,esp
  401be6:	and    esp,0xfffffff8
  401be9:	sub    esp,0x44
  401bec:	xor    eax,eax
  401bee:	push   ebx
  401bef:	push   esi
  401bf0:	push   edi
  401bf1:	push   eax
  401bf2:	push   eax
  401bf3:	xor    edi,edi
  401bf5:	mov    DWORD PTR [esp+0x54],eax
  401bf9:	inc    edi
  401bfa:	mov    DWORD PTR [esp+0x1c],eax
  401bfe:	push   edi
  401bff:	push   eax
  401c00:	mov    DWORD PTR [esp+0x2c],eax
  401c04:	mov    DWORD PTR [esp+0x28],eax
  401c08:	mov    DWORD PTR [esp+0x20],eax
  401c0c:	mov    DWORD PTR [esp+0x30],eax
  401c10:	mov    DWORD PTR [esp+0x34],eax
  401c14:	mov    DWORD PTR [esp+0x38],eax
  401c18:	mov    DWORD PTR [esp+0x3c],eax
  401c1c:	mov    DWORD PTR [esp+0x40],eax
  401c20:	mov    DWORD PTR [esp+0x44],eax
  401c24:	mov    DWORD PTR [esp+0x48],eax
  401c28:	mov    DWORD PTR [esp+0x4c],eax
  401c2c:	mov    DWORD PTR [esp+0x50],eax
  401c30:	mov    DWORD PTR [esp+0x54],eax
  401c34:	mov    DWORD PTR [esp+0x58],eax
  401c38:	call   DWORD PTR ds:0x413034
  401c3e:	mov    esi,DWORD PTR [ebp+0x8]
  401c41:	cmp    esi,edi
  401c43:	jne    0x401c7f
  401c45:	call   0x40ea45
  401c4a:	test   eax,eax
  401c4c:	jne    0x401c70
  401c4e:	mov    ecx,0xe87
  401c53:	call   0x40c92c
  401c58:	push   0x2
  401c5a:	mov    esi,eax
  401c5c:	call   0x411711
  401c61:	pop    ecx
  401c62:	mov    edx,esi
  401c64:	mov    ecx,eax
  401c66:	call   0x40d474
  401c6b:	jmp    0x401edc
  401c70:	mov    edx,DWORD PTR [ebp+0xc]
  401c73:	mov    ecx,edi
  401c75:	call   0x403cba
  401c7a:	jmp    0x401eda
  401c7f:	lea    eax,[esp+0x48]
  401c83:	mov    ebx,DWORD PTR [ebp+0xc]
  401c86:	push   eax
  401c87:	lea    eax,[esp+0x48]
  401c8b:	mov    edx,ebx
  401c8d:	push   eax
  401c8e:	lea    eax,[esp+0x48]
  401c92:	mov    ecx,esi
  401c94:	push   eax
  401c95:	lea    eax,[esp+0x48]
  401c99:	push   eax
  401c9a:	lea    eax,[esp+0x48]
  401c9e:	push   eax
  401c9f:	lea    eax,[esp+0x48]
  401ca3:	push   eax
  401ca4:	lea    eax,[esp+0x48]
  401ca8:	push   eax
  401ca9:	lea    eax,[esp+0x48]
  401cad:	push   eax
  401cae:	lea    eax,[esp+0x48]
  401cb2:	push   eax
  401cb3:	lea    eax,[esp+0x44]
  401cb7:	push   eax
  401cb8:	lea    eax,[esp+0x4c]
  401cbc:	push   eax
  401cbd:	lea    eax,[esp+0x3c]
  401cc1:	push   eax
  401cc2:	lea    eax,[esp+0x48]
  401cc6:	push   eax
  401cc7:	lea    eax,[esp+0x50]
  401ccb:	push   eax
  401ccc:	lea    eax,[esp+0x4c]
  401cd0:	push   eax
  401cd1:	lea    eax,[esp+0x88]
  401cd8:	push   eax
  401cd9:	call   0x401eef
  401cde:	cmp    eax,edi
  401ce0:	je     0x401edc
  401ce6:	cmp    DWORD PTR [esp+0x4c],edi
  401cea:	jne    0x401d9a
  401cf0:	cmp    DWORD PTR [esp+0x14],0x0
  401cf5:	jne    0x401d9a
  401cfb:	cmp    DWORD PTR [esp+0x1c],0x0
  401d00:	jne    0x401d9a
  401d06:	cmp    DWORD PTR [esp+0x18],0x0
  401d0b:	jne    0x401d9a
  401d11:	cmp    DWORD PTR [esp+0x10],0x0
  401d16:	jne    0x401da1
  401d1c:	cmp    DWORD PTR [esp+0x24],0x0
  401d21:	jne    0x401ddf
  401d27:	cmp    DWORD PTR [esp+0x20],0x0
  401d2c:	jne    0x401de6
  401d32:	cmp    DWORD PTR [esp+0x28],0x0
  401d37:	jne    0x401e06
  401d3d:	cmp    DWORD PTR [esp+0x2c],0x0
  401d42:	jne    0x401e16
  401d48:	cmp    DWORD PTR [esp+0x30],0x0
  401d4d:	jne    0x401e26
  401d53:	cmp    DWORD PTR [esp+0x34],0x0
  401d58:	jne    0x401e36
  401d5e:	cmp    DWORD PTR [esp+0x38],0x0
  401d63:	jne    0x401e46
  401d69:	cmp    DWORD PTR [esp+0x3c],0x0
  401d6e:	jne    0x401e56
  401d74:	cmp    DWORD PTR [esp+0x40],0x0
  401d79:	jne    0x401e79
  401d7f:	cmp    DWORD PTR [esp+0x44],0x0
  401d84:	jne    0x401e9c
  401d8a:	cmp    DWORD PTR [esp+0x48],0x0
  401d8f:	jne    0x401eb8
  401d95:	call   0x40534d
  401d9a:	cmp    DWORD PTR [esp+0x10],0x0
  401d9f:	je     0x401daf
  401da1:	mov    edx,ebx
  401da3:	mov    ecx,esi
  401da5:	call   0x40567b
  401daa:	jmp    0x401eda
  401daf:	cmp    DWORD PTR [esp+0x14],0x0
  401db4:	je     0x401dbf
  401db6:	mov    edx,ebx
  401db8:	mov    ecx,esi
  401dba:	call   0x4025bd
  401dbf:	cmp    DWORD PTR [esp+0x18],0x0
  401dc4:	je     0x401dcf
  401dc6:	mov    edx,ebx
  401dc8:	mov    ecx,esi
  401dca:	call   0x403062
  401dcf:	cmp    DWORD PTR [esp+0x1c],0x0
  401dd4:	je     0x401ddf
  401dd6:	mov    edx,ebx
  401dd8:	mov    ecx,esi
  401dda:	call   0x403cba
  401ddf:	cmp    DWORD PTR [esp+0x20],0x0
  401de4:	je     0x401def
  401de6:	mov    edx,ebx
  401de8:	mov    ecx,esi
  401dea:	call   0x405fdd
  401def:	cmp    DWORD PTR [esp+0x24],0x0
  401df4:	je     0x401dff
  401df6:	mov    edx,ebx
  401df8:	mov    ecx,esi
  401dfa:	call   0x40661e
  401dff:	cmp    DWORD PTR [esp+0x28],0x0
  401e04:	je     0x401e0f
  401e06:	mov    edx,ebx
  401e08:	mov    ecx,esi
  401e0a:	call   0x406ed1
  401e0f:	cmp    DWORD PTR [esp+0x2c],0x0
  401e14:	je     0x401e1f
  401e16:	mov    edx,ebx
  401e18:	mov    ecx,esi
  401e1a:	call   0x4081fe
  401e1f:	cmp    DWORD PTR [esp+0x30],0x0
  401e24:	je     0x401e2f
  401e26:	mov    edx,ebx
  401e28:	mov    ecx,esi
  401e2a:	call   0x409aa7
  401e2f:	cmp    DWORD PTR [esp+0x34],0x0
  401e34:	je     0x401e3f
  401e36:	mov    edx,ebx
  401e38:	mov    ecx,esi
  401e3a:	call   0x40a6aa
  401e3f:	cmp    DWORD PTR [esp+0x38],0x0
  401e44:	je     0x401e4f
  401e46:	mov    edx,ebx
  401e48:	mov    ecx,esi
  401e4a:	call   0x40b232
  401e4f:	cmp    DWORD PTR [esp+0x3c],0x0
  401e54:	je     0x401e72
  401e56:	mov    ecx,edi
  401e58:	call   0x40c92c
  401e5d:	push   0x2
  401e5f:	mov    esi,eax
  401e61:	call   0x411711
  401e66:	pop    ecx
  401e67:	mov    edx,esi
  401e69:	mov    ecx,eax
  401e6b:	call   0x40d474
  401e70:	mov    eax,edi
  401e72:	cmp    DWORD PTR [esp+0x40],0x0
  401e77:	je     0x401e95
  401e79:	mov    ecx,edi
  401e7b:	call   0x40c92c
  401e80:	push   0x2
  401e82:	mov    esi,eax
  401e84:	call   0x411711
  401e89:	pop    ecx
  401e8a:	mov    edx,esi
  401e8c:	mov    ecx,eax
  401e8e:	call   0x40d474
  401e93:	mov    eax,edi
  401e95:	cmp    DWORD PTR [esp+0x44],0x0
  401e9a:	je     0x401eb8
  401e9c:	mov    ecx,edi
  401e9e:	call   0x40c92c
  401ea3:	push   0x2
  401ea5:	mov    esi,eax
  401ea7:	call   0x411711
  401eac:	pop    ecx
  401ead:	mov    edx,esi
  401eaf:	mov    ecx,eax
  401eb1:	call   0x40d474
  401eb6:	mov    eax,edi
  401eb8:	cmp    DWORD PTR [esp+0x48],edi
  401ebc:	jne    0x401eda
  401ebe:	mov    ecx,edi
  401ec0:	call   0x40c92c
  401ec5:	push   0x2
  401ec7:	mov    esi,eax
  401ec9:	call   0x411711
  401ece:	pop    ecx
  401ecf:	mov    edx,esi
  401ed1:	mov    ecx,eax
  401ed3:	call   0x40d474
  401ed8:	mov    eax,edi
  401eda:	mov    edi,eax
  401edc:	call   0x40c7e2
  401ee1:	mov    eax,edi
  401ee3:	pop    edi
  401ee4:	pop    esi
  401ee5:	pop    ebx
  401ee6:	mov    esp,ebp
  401ee8:	pop    ebp
  401ee9:	ret    
  401eea:	int3   
  401eeb:	int3   
  401eec:	int3   
  401eed:	int3   
  401eee:	int3   
  401eef:	mov    edi,edi
  401ef1:	push   ebp
  401ef2:	mov    ebp,esp
  401ef4:	sub    esp,0x564
  401efa:	mov    eax,ds:0x412004
  401eff:	xor    eax,ebp
  401f01:	mov    DWORD PTR [ebp-0x4],eax
  401f04:	push   ebx
  401f05:	push   esi
  401f06:	push   edi
  401f07:	mov    edi,edx
  401f09:	xor    esi,esi
  401f0b:	and    DWORD PTR [ebp-0x55c],esi
  401f11:	mov    ebx,ecx
  401f13:	mov    DWORD PTR [ebp-0x560],edi
  401f19:	call   0x40e1e2
  401f1e:	mov    DWORD PTR [ebp-0x55c],eax
  401f24:	test   eax,eax
  401f26:	jne    0x401f4c
  401f28:	push   0x8007000e
  401f2d:	call   DWORD PTR ds:0x413030
  401f33:	push   0x2
  401f35:	call   0x411711
  401f3a:	mov    edx,0x10001
  401f3f:	pop    ecx
  401f40:	mov    ecx,eax
  401f42:	call   0x40c74a
  401f47:	jmp    0x4025a2
  401f4c:	mov    ecx,0x550
  401f51:	lea    eax,[ebp-0x558]
  401f57:	mov    BYTE PTR [eax],0x0
  401f5a:	inc    eax
  401f5b:	sub    ecx,0x1
  401f5e:	jne    0x401f57
  401f60:	push   0x8
  401f62:	mov    edx,0x401054
  401f67:	lea    ecx,[ebp-0x558]
  401f6d:	call   0x40d306
  401f72:	mov    edx,DWORD PTR [ebp+0xc]
  401f75:	lea    ecx,[ebp-0x508]
  401f7b:	mov    DWORD PTR [ebp-0x52c],edx
  401f81:	mov    edx,0x401054
  401f86:	push   0x8
  401f88:	mov    DWORD PTR [ebp-0x538],0x40105c
  401f92:	mov    DWORD PTR [ebp-0x550],0xa
  401f9c:	mov    DWORD PTR [ebp-0x540],0x1
  401fa6:	call   0x40d306
  401fab:	mov    edx,DWORD PTR [ebp+0x10]
  401fae:	lea    ecx,[ebp-0x4b8]
  401fb4:	mov    DWORD PTR [ebp-0x4dc],edx
  401fba:	mov    edx,0x401054
  401fbf:	push   0x8
  401fc1:	mov    DWORD PTR [ebp-0x4e8],0x401068
  401fcb:	mov    DWORD PTR [ebp-0x500],0xa
  401fd5:	mov    DWORD PTR [ebp-0x4f0],0x1
  401fdf:	call   0x40d306
  401fe4:	mov    edx,DWORD PTR [ebp+0x14]
  401fe7:	lea    ecx,[ebp-0x468]
  401fed:	mov    DWORD PTR [ebp-0x48c],edx
  401ff3:	mov    edx,0x401054
  401ff8:	push   0x8
  401ffa:	mov    DWORD PTR [ebp-0x498],0x401074
  402004:	mov    DWORD PTR [ebp-0x4b0],0xa
  40200e:	mov    DWORD PTR [ebp-0x4a0],0x1
  402018:	call   0x40d306
  40201d:	mov    eax,DWORD PTR [ebp+0x8]
  402020:	lea    ecx,[ebp-0x418]
  402026:	and    DWORD PTR [ebp-0x454],esi
  40202c:	mov    edx,0x401054
  402031:	push   0x8
  402033:	mov    DWORD PTR [ebp-0x448],0x401084
  40203d:	mov    DWORD PTR [ebp-0x460],0xa
  402047:	mov    DWORD PTR [ebp-0x458],0x20000
  402051:	mov    DWORD PTR [ebp-0x450],0x1
  40205b:	mov    DWORD PTR [ebp-0x43c],eax
  402061:	call   0x40d306
  402066:	mov    edx,DWORD PTR [ebp+0x18]
  402069:	lea    ecx,[ebp-0x3c8]
  40206f:	mov    DWORD PTR [ebp-0x3ec],edx
  402075:	mov    edx,0x401054
  40207a:	push   0x8
  40207c:	mov    DWORD PTR [ebp-0x3f8],0x40108c
  402086:	mov    DWORD PTR [ebp-0x410],0xa
  402090:	mov    DWORD PTR [ebp-0x400],0x1
  40209a:	call   0x40d306
  40209f:	mov    eax,DWORD PTR [ebp+0x1c]
  4020a2:	lea    ecx,[ebp-0x378]
  4020a8:	push   0x8
  4020aa:	mov    edx,0x401054
  4020af:	mov    DWORD PTR [ebp-0x3a8],0x401094
  4020b9:	mov    DWORD PTR [ebp-0x3c0],0xa
  4020c3:	mov    DWORD PTR [ebp-0x3b0],0x1
  4020cd:	mov    DWORD PTR [ebp-0x39c],eax
  4020d3:	call   0x40d306
  4020d8:	mov    eax,DWORD PTR [ebp+0x20]
  4020db:	lea    ecx,[ebp-0x328]
  4020e1:	push   0x8
  4020e3:	mov    edx,0x401054
  4020e8:	mov    DWORD PTR [ebp-0x358],0x4010a4
  4020f2:	mov    DWORD PTR [ebp-0x370],0xa
  4020fc:	mov    DWORD PTR [ebp-0x360],0x1
  402106:	mov    DWORD PTR [ebp-0x34c],eax
  40210c:	call   0x40d306
  402111:	mov    eax,DWORD PTR [ebp+0x24]
  402114:	lea    ecx,[ebp-0x2d8]
  40211a:	push   0x8
  40211c:	mov    edx,0x401054
  402121:	mov    DWORD PTR [ebp-0x308],0x4010b4
  40212b:	mov    DWORD PTR [ebp-0x320],0xa
  402135:	mov    DWORD PTR [ebp-0x310],0x1
  40213f:	mov    DWORD PTR [ebp-0x2fc],eax
  402145:	call   0x40d306
  40214a:	mov    DWORD PTR [ebp-0x2b8],0x4010c0
  402154:	mov    DWORD PTR [ebp-0x2d0],0xa
  40215e:	mov    DWORD PTR [ebp-0x2c0],0x1
  402168:	mov    eax,DWORD PTR [ebp+0x28]
  40216b:	lea    ecx,[ebp-0x288]
  402171:	push   0x8
  402173:	mov    edx,0x401054
  402178:	mov    DWORD PTR [ebp-0x2ac],eax
  40217e:	call   0x40d306
  402183:	mov    eax,DWORD PTR [ebp+0x2c]
  402186:	lea    ecx,[ebp-0x238]
  40218c:	push   0x8
  40218e:	mov    edx,0x401054
  402193:	mov    DWORD PTR [ebp-0x268],0x4010c8
  40219d:	mov    DWORD PTR [ebp-0x280],0xa
  4021a7:	mov    DWORD PTR [ebp-0x270],0x1
  4021b1:	mov    DWORD PTR [ebp-0x25c],eax
  4021b7:	call   0x40d306
  4021bc:	mov    eax,DWORD PTR [ebp+0x30]
  4021bf:	lea    ecx,[ebp-0x1e8]
  4021c5:	push   0x8
  4021c7:	mov    edx,0x401054
  4021cc:	mov    DWORD PTR [ebp-0x218],0x4010d4
  4021d6:	mov    DWORD PTR [ebp-0x230],0xa
  4021e0:	mov    DWORD PTR [ebp-0x220],0x1
  4021ea:	mov    DWORD PTR [ebp-0x20c],eax
  4021f0:	call   0x40d306
  4021f5:	mov    eax,DWORD PTR [ebp+0x34]
  4021f8:	lea    ecx,[ebp-0x198]
  4021fe:	push   0x8
  402200:	mov    edx,0x401054
  402205:	mov    DWORD PTR [ebp-0x1c8],0x4010e0
  40220f:	mov    DWORD PTR [ebp-0x1e0],0xa
  402219:	mov    DWORD PTR [ebp-0x1d0],0x1
  402223:	mov    DWORD PTR [ebp-0x1bc],eax
  402229:	call   0x40d306
  40222e:	mov    eax,DWORD PTR [ebp+0x38]
  402231:	lea    ecx,[ebp-0x148]
  402237:	push   0x8
  402239:	mov    edx,0x401054
  40223e:	mov    DWORD PTR [ebp-0x178],0x4010f0
  402248:	mov    DWORD PTR [ebp-0x190],0xa
  402252:	mov    DWORD PTR [ebp-0x180],0x1
  40225c:	mov    DWORD PTR [ebp-0x16c],eax
  402262:	call   0x40d306
  402267:	mov    eax,DWORD PTR [ebp+0x3c]
  40226a:	lea    ecx,[ebp-0xf8]
  402270:	push   0x8
  402272:	mov    edx,0x401054
  402277:	mov    DWORD PTR [ebp-0x128],0x401100
  402281:	mov    DWORD PTR [ebp-0x140],0xa
  40228b:	mov    DWORD PTR [ebp-0x130],0x1
  402295:	mov    DWORD PTR [ebp-0x11c],eax
  40229b:	call   0x40d306
  4022a0:	mov    eax,DWORD PTR [ebp+0x40]
  4022a3:	lea    ecx,[ebp-0xf8]
  4022a9:	push   0x8
  4022ab:	mov    edx,0x401054
  4022b0:	mov    DWORD PTR [ebp-0xd8],0x40110c
  4022ba:	mov    DWORD PTR [ebp-0xf0],0xa
  4022c4:	mov    DWORD PTR [ebp-0xe0],0x1
  4022ce:	mov    DWORD PTR [ebp-0xcc],eax
  4022d4:	call   0x40d306
  4022d9:	mov    eax,DWORD PTR [ebp+0x40]
  4022dc:	lea    ecx,[ebp-0xa8]
  4022e2:	push   0x8
  4022e4:	mov    edx,0x401054
  4022e9:	mov    DWORD PTR [ebp-0xd8],0x40110c
  4022f3:	mov    DWORD PTR [ebp-0xf0],0xa
  4022fd:	mov    DWORD PTR [ebp-0xe0],0x1
  402307:	mov    DWORD PTR [ebp-0xcc],eax
  40230d:	call   0x40d306
  402312:	mov    eax,DWORD PTR [ebp+0x44]
  402315:	lea    ecx,[ebp-0x58]
  402318:	push   0x8
  40231a:	mov    edx,0x401054
  40231f:	mov    DWORD PTR [ebp-0x88],0x40111c
  402329:	mov    DWORD PTR [ebp-0xa0],0xa
  402333:	mov    DWORD PTR [ebp-0x90],0x1
  40233d:	mov    DWORD PTR [ebp-0x7c],eax
  402340:	call   0x40d306
  402345:	and    DWORD PTR [ebp-0x44],esi
  402348:	mov    DWORD PTR [ebp-0x50],0x1
  40234f:	mov    DWORD PTR [ebp-0x48],0x40001
  402356:	lea    eax,[ebp-0x55c]
  40235c:	mov    edx,edi
  40235e:	push   ecx
  40235f:	mov    DWORD PTR [ebp-0x2c],eax
  402362:	mov    ecx,ebx
  402364:	lea    eax,[ebp-0x558]
  40236a:	push   eax
  40236b:	push   0x11
  40236d:	push   0xffffffff
  40236f:	call   0x410a21
  402374:	lea    ecx,[ebp-0x55c]
  40237a:	test   eax,eax
  40237c:	jne    0x402394
  40237e:	call   0x40e254
  402383:	push   0x2
  402385:	call   0x411711
  40238a:	mov    edx,0x20001
  40238f:	jmp    0x401f3f
  402394:	call   0x40e254
  402399:	mov    eax,DWORD PTR [ebp+0xc]
  40239c:	cmp    DWORD PTR [eax],esi
  40239e:	je     0x4023a3
  4023a0:	xor    esi,esi
  4023a2:	inc    esi
  4023a3:	mov    eax,DWORD PTR [ebp+0x10]
  4023a6:	cmp    DWORD PTR [eax],0x0
  4023a9:	je     0x4023ac
  4023ab:	inc    esi
  4023ac:	mov    eax,DWORD PTR [ebp+0x14]
  4023af:	cmp    DWORD PTR [eax],0x0
  4023b2:	je     0x4023b5
  4023b4:	inc    esi
  4023b5:	mov    eax,DWORD PTR [ebp+0x18]
  4023b8:	mov    edi,DWORD PTR [ebp+0x20]
  4023bb:	cmp    DWORD PTR [eax],0x0
  4023be:	je     0x402492
  4023c4:	xor    eax,eax
  4023c6:	inc    esi
  4023c7:	cmp    DWORD PTR [edi],eax
  4023c9:	jne    0x40243d
  4023cb:	mov    ecx,DWORD PTR [ebp+0x24]
  4023ce:	cmp    DWORD PTR [ecx],eax
  4023d0:	jne    0x40243d
  4023d2:	mov    edx,DWORD PTR [ebp+0x2c]
  4023d5:	cmp    DWORD PTR [edx],eax
  4023d7:	jne    0x40243d
  4023d9:	mov    eax,DWORD PTR [ebp+0x30]
  4023dc:	cmp    DWORD PTR [eax],0x0
  4023df:	jne    0x40243d
  4023e1:	mov    eax,DWORD PTR [ebp+0x34]
  4023e4:	cmp    DWORD PTR [eax],0x0
  4023e7:	jne    0x40243d
  4023e9:	mov    eax,DWORD PTR [ebp+0x28]
  4023ec:	cmp    DWORD PTR [eax],0x0
  4023ef:	jne    0x40243d
  4023f1:	mov    eax,DWORD PTR [ebp+0x14]
  4023f4:	cmp    DWORD PTR [eax],0x0
  4023f7:	jne    0x40243d
  4023f9:	mov    eax,DWORD PTR [ebp+0xc]
  4023fc:	cmp    DWORD PTR [eax],0x0
  4023ff:	jne    0x40243d
  402401:	mov    eax,DWORD PTR [ebp+0x10]
  402404:	cmp    DWORD PTR [eax],0x0
  402407:	jne    0x40243d
  402409:	mov    eax,DWORD PTR [ebp+0x1c]
  40240c:	cmp    DWORD PTR [eax],0x0
  40240f:	jne    0x40243d
  402411:	mov    edi,DWORD PTR [ebp+0x38]
  402414:	cmp    DWORD PTR [edi],0x0
  402417:	mov    edi,DWORD PTR [ebp+0x20]
  40241a:	jne    0x40243d
  40241c:	mov    ecx,DWORD PTR [ebp+0x3c]
  40241f:	cmp    DWORD PTR [ecx],0x0
  402422:	mov    ecx,DWORD PTR [ebp+0x24]
  402425:	jne    0x40243d
  402427:	mov    edx,DWORD PTR [ebp+0x40]
  40242a:	cmp    DWORD PTR [edx],0x0
  40242d:	mov    edx,DWORD PTR [ebp+0x2c]
  402430:	jne    0x40243d
  402432:	mov    eax,DWORD PTR [ebp+0x44]
  402435:	cmp    DWORD PTR [eax],0x0
  402438:	mov    eax,DWORD PTR [ebp+0x1c]
  40243b:	je     0x40249b
  40243d:	mov    eax,DWORD PTR [ebp+0x8]
  402440:	cmp    DWORD PTR [eax],0x0
  402443:	jne    0x402587
  402449:	xor    edi,edi
  40244b:	test   ebx,ebx
  40244d:	je     0x40248e
  40244f:	mov    eax,DWORD PTR [ebp-0x560]
  402455:	mov    edx,0x401128
  40245a:	push   0x0
  40245c:	push   0x1
  40245e:	mov    ecx,DWORD PTR [eax+edi*4]
  402461:	call   0x40d41c
  402466:	test   eax,eax
  402468:	jne    0x402489
  40246a:	lea    eax,[edi+0x1]
  40246d:	cmp    eax,ebx
  40246f:	je     0x402587
  402475:	mov    eax,DWORD PTR [ebp-0x560]
  40247b:	mov    eax,DWORD PTR [eax+edi*4+0x4]
  40247f:	cmp    WORD PTR [eax],0x22
  402483:	jne    0x402587
  402489:	inc    edi
  40248a:	cmp    edi,ebx
  40248c:	jb     0x40244f
  40248e:	mov    edi,DWORD PTR [ebp+0x20]
  402491:	dec    esi
  402492:	mov    edx,DWORD PTR [ebp+0x2c]
  402495:	mov    ecx,DWORD PTR [ebp+0x24]
  402498:	mov    eax,DWORD PTR [ebp+0x1c]
  40249b:	cmp    DWORD PTR [eax],0x0
  40249e:	je     0x4024a1
  4024a0:	inc    esi
  4024a1:	cmp    DWORD PTR [edi],0x0
  4024a4:	je     0x4024a7
  4024a6:	inc    esi
  4024a7:	cmp    DWORD PTR [ecx],0x0
  4024aa:	je     0x4024ad
  4024ac:	inc    esi
  4024ad:	cmp    DWORD PTR [edx],0x0
  4024b0:	je     0x4024b3
  4024b2:	inc    esi
  4024b3:	mov    edx,DWORD PTR [ebp+0x30]
  4024b6:	cmp    DWORD PTR [edx],0x0
  4024b9:	je     0x4024bc
  4024bb:	inc    esi
  4024bc:	mov    edx,DWORD PTR [ebp+0x34]
  4024bf:	cmp    DWORD PTR [edx],0x0
  4024c2:	je     0x4024c5
  4024c4:	inc    esi
  4024c5:	mov    edx,DWORD PTR [ebp+0x28]
  4024c8:	cmp    DWORD PTR [edx],0x0
  4024cb:	je     0x4024ce
  4024cd:	inc    esi
  4024ce:	mov    edx,DWORD PTR [ebp+0x38]
  4024d1:	cmp    DWORD PTR [edx],0x0
  4024d4:	je     0x4024d7
  4024d6:	inc    esi
  4024d7:	mov    edx,DWORD PTR [ebp+0x3c]
  4024da:	cmp    DWORD PTR [edx],0x0
  4024dd:	je     0x4024e0
  4024df:	inc    esi
  4024e0:	mov    edx,DWORD PTR [ebp+0x40]
  4024e3:	cmp    DWORD PTR [edx],0x0
  4024e6:	je     0x4024e9
  4024e8:	inc    esi
  4024e9:	mov    edx,DWORD PTR [ebp+0x44]
  4024ec:	cmp    DWORD PTR [edx],0x0
  4024ef:	je     0x4024f2
  4024f1:	inc    esi
  4024f2:	cmp    esi,0x1
  4024f5:	ja     0x402587
  4024fb:	mov    edx,DWORD PTR [ebp+0xc]
  4024fe:	cmp    DWORD PTR [edx],0x0
  402501:	jne    0x402572
  402503:	mov    edx,DWORD PTR [ebp+0x10]
  402506:	cmp    DWORD PTR [edx],0x0
  402509:	jne    0x402572
  40250b:	mov    edx,DWORD PTR [ebp+0x14]
  40250e:	cmp    DWORD PTR [edx],0x0
  402511:	jne    0x402572
  402513:	mov    edx,DWORD PTR [ebp+0x8]
  402516:	cmp    DWORD PTR [edx],0x0
  402519:	jne    0x40257a
  40251b:	mov    edx,DWORD PTR [ebp+0x18]
  40251e:	cmp    DWORD PTR [edx],0x0
  402521:	jne    0x402572
  402523:	cmp    DWORD PTR [eax],0x0
  402526:	jne    0x402572
  402528:	cmp    DWORD PTR [edi],0x0
  40252b:	jne    0x402572
  40252d:	cmp    DWORD PTR [ecx],0x0
  402530:	jne    0x402572
  402532:	mov    eax,DWORD PTR [ebp+0x28]
  402535:	cmp    DWORD PTR [eax],0x0
  402538:	jne    0x402572
  40253a:	mov    eax,DWORD PTR [ebp+0x2c]
  40253d:	cmp    DWORD PTR [eax],0x0
  402540:	jne    0x402572
  402542:	mov    eax,DWORD PTR [ebp+0x30]
  402545:	cmp    DWORD PTR [eax],0x0
  402548:	jne    0x402572
  40254a:	mov    eax,DWORD PTR [ebp+0x34]
  40254d:	cmp    DWORD PTR [eax],0x0
  402550:	jne    0x402572
  402552:	mov    eax,DWORD PTR [ebp+0x38]
  402555:	cmp    DWORD PTR [eax],0x0
  402558:	jne    0x402572
  40255a:	mov    eax,DWORD PTR [ebp+0x40]
  40255d:	cmp    DWORD PTR [eax],0x0
  402560:	jne    0x402572
  402562:	mov    eax,DWORD PTR [ebp+0x3c]
  402565:	cmp    DWORD PTR [eax],0x0
  402568:	jne    0x402572
  40256a:	mov    eax,DWORD PTR [ebp+0x44]
  40256d:	cmp    DWORD PTR [eax],0x0
  402570:	je     0x402587
  402572:	mov    eax,DWORD PTR [ebp+0x8]
  402575:	cmp    DWORD PTR [eax],0x0
  402578:	je     0x402583
  40257a:	test   esi,esi
  40257c:	jne    0x402583
  40257e:	cmp    ebx,0x3
  402581:	jae    0x402587
  402583:	xor    eax,eax
  402585:	jmp    0x4025a5
  402587:	xor    ecx,ecx
  402589:	inc    ecx
  40258a:	call   0x40c92c
  40258f:	push   0x2
  402591:	mov    esi,eax
  402593:	call   0x411711
  402598:	pop    ecx
  402599:	mov    edx,esi
  40259b:	mov    ecx,eax
  40259d:	call   0x40d474
  4025a2:	xor    eax,eax
  4025a4:	inc    eax
  4025a5:	mov    ecx,DWORD PTR [ebp-0x4]
  4025a8:	pop    edi
  4025a9:	pop    esi
  4025aa:	xor    ecx,ebp
  4025ac:	pop    ebx
  4025ad:	call   0x411090
  4025b2:	mov    esp,ebp
  4025b4:	pop    ebp
  4025b5:	ret    0x40
  4025b8:	int3   
  4025b9:	int3   
  4025ba:	int3   
  4025bb:	int3   
  4025bc:	int3   
  4025bd:	mov    edi,edi
  4025bf:	push   ebp
  4025c0:	mov    ebp,esp
  4025c2:	sub    esp,0xef4
  4025c8:	mov    eax,ds:0x412004
  4025cd:	xor    eax,ebp
  4025cf:	mov    DWORD PTR [ebp-0x4],eax
  4025d2:	push   ebx
  4025d3:	push   esi
  4025d4:	push   edi
  4025d5:	xor    ebx,ebx
  4025d7:	mov    DWORD PTR [ebp-0xedc],edx
  4025dd:	push   0x1f8
  4025e2:	lea    eax,[ebp-0x28c]
  4025e8:	mov    DWORD PTR [ebp-0xef4],ebx
  4025ee:	mov    esi,ecx
  4025f0:	mov    DWORD PTR [ebp-0xef0],ebx
  4025f6:	push   ebx
  4025f7:	push   eax
  4025f8:	mov    DWORD PTR [ebp-0xed8],esi
  4025fe:	mov    DWORD PTR [ebp-0xed0],ebx
  402604:	mov    DWORD PTR [ebp-0x290],ebx
  40260a:	call   0x411770
  40260f:	add    esp,0xc
  402612:	mov    DWORD PTR [ebp-0xc90],ebx
  402618:	mov    edi,0x1fa
  40261d:	lea    eax,[ebp-0xc8c]
  402623:	push   edi
  402624:	push   ebx
  402625:	push   eax
  402626:	call   0x411770
  40262b:	add    esp,0xc
  40262e:	mov    DWORD PTR [ebp-0xecc],ebx
  402634:	lea    eax,[ebp-0x88c]
  40263a:	mov    DWORD PTR [ebp-0xee8],ebx
  402640:	mov    DWORD PTR [ebp-0xee4],ebx
  402646:	mov    DWORD PTR [ebp-0x890],ebx
  40264c:	push   edi
  40264d:	push   ebx
  40264e:	push   eax
  40264f:	call   0x411770
  402654:	add    esp,0xc
  402657:	mov    DWORD PTR [ebp-0x90],ebx
  40265d:	lea    eax,[ebp-0x8c]
  402663:	push   0x84
  402668:	push   ebx
  402669:	push   eax
  40266a:	call   0x411770
  40266f:	add    esp,0xc
  402672:	mov    DWORD PTR [ebp-0xeec],ebx
  402678:	lea    eax,[ebp-0x48c]
  40267e:	mov    DWORD PTR [ebp-0xec8],ebx
  402684:	mov    DWORD PTR [ebp-0x490],ebx
  40268a:	push   edi
  40268b:	push   ebx
  40268c:	push   eax
  40268d:	call   0x411770
  402692:	add    esp,0xc
  402695:	mov    DWORD PTR [ebp-0x690],ebx
  40269b:	lea    eax,[ebp-0x68c]
  4026a1:	push   edi
  4026a2:	push   ebx
  4026a3:	push   eax
  4026a4:	call   0x411770
  4026a9:	add    esp,0xc
  4026ac:	mov    DWORD PTR [ebp-0xec4],ebx
  4026b2:	lea    eax,[ebp-0xa8c]
  4026b8:	mov    DWORD PTR [ebp-0xa90],ebx
  4026be:	push   edi
  4026bf:	push   ebx
  4026c0:	push   eax
  4026c1:	call   0x411770
  4026c6:	add    esp,0xc
  4026c9:	mov    DWORD PTR [ebp-0xee0],ebx
  4026cf:	lea    ecx,[edi+0x36]
  4026d2:	lea    eax,[ebp-0xec0]
  4026d8:	mov    BYTE PTR [eax],bl
  4026da:	inc    eax
  4026db:	sub    ecx,0x1
  4026de:	jne    0x4026d8
  4026e0:	push   0xff
  4026e5:	mov    edx,0x401134
  4026ea:	lea    ecx,[ebp-0x890]
  4026f0:	call   0x40d369
  4026f5:	push   0x8
  4026f7:	mov    edx,0x401054
  4026fc:	lea    ecx,[ebp-0xec0]
  402702:	call   0x40d306
  402707:	xor    edi,edi
  402709:	mov    DWORD PTR [ebp-0xea0],0x40105c
  402713:	lea    eax,[ebp-0xef4]
  402719:	mov    DWORD PTR [ebp-0xeb8],0xa
  402723:	inc    edi
  402724:	mov    DWORD PTR [ebp-0xe94],eax
  40272a:	push   0x8
  40272c:	mov    edx,0x401054
  402731:	mov    DWORD PTR [ebp-0xea8],edi
  402737:	lea    ecx,[ebp-0xe70]
  40273d:	call   0x40d306
  402742:	push   0x8
  402744:	mov    edx,0x401054
  402749:	mov    DWORD PTR [ebp-0xe50],0x401138
  402753:	lea    ecx,[ebp-0xe20]
  402759:	mov    DWORD PTR [ebp-0xe60],0x12000
  402763:	mov    DWORD PTR [ebp-0xe5c],ebx
  402769:	mov    DWORD PTR [ebp-0xe68],edi
  40276f:	mov    DWORD PTR [ebp-0xe58],edi
  402775:	call   0x40d306
  40277a:	push   0x8
  40277c:	mov    edx,0x401054
  402781:	mov    DWORD PTR [ebp-0xe00],0x40113c
  40278b:	lea    ecx,[ebp-0xdd0]
  402791:	mov    DWORD PTR [ebp-0xe10],0x12000
  40279b:	mov    DWORD PTR [ebp-0xe0c],ebx
  4027a1:	mov    DWORD PTR [ebp-0xe18],edi
  4027a7:	mov    DWORD PTR [ebp-0xe08],edi
  4027ad:	call   0x40d306
  4027b2:	lea    eax,[ebp-0x890]
  4027b8:	mov    DWORD PTR [ebp-0xdb0],0x401140
  4027c2:	push   0x8
  4027c4:	mov    edx,0x401054
  4027c9:	mov    DWORD PTR [ebp-0xdc0],0x10
  4027d3:	lea    ecx,[ebp-0xd80]
  4027d9:	mov    DWORD PTR [ebp-0xdbc],ebx
  4027df:	mov    DWORD PTR [ebp-0xdc8],edi
  4027e5:	mov    DWORD PTR [ebp-0xdb8],edi
  4027eb:	mov    DWORD PTR [ebp-0xda4],eax
  4027f1:	mov    DWORD PTR [ebp-0xda0],0xfe
  4027fb:	call   0x40d306
  402800:	lea    eax,[ebp-0x90]
  402806:	mov    DWORD PTR [ebp-0xd60],0x401144
  402810:	push   0x8
  402812:	mov    edx,0x401054
  402817:	mov    DWORD PTR [ebp-0xd70],0x2040
  402821:	lea    ecx,[ebp-0xd30]
  402827:	mov    DWORD PTR [ebp-0xd6c],ebx
  40282d:	mov    DWORD PTR [ebp-0xd78],edi
  402833:	mov    DWORD PTR [ebp-0xd68],edi
  402839:	mov    DWORD PTR [ebp-0xd54],eax
  40283f:	mov    DWORD PTR [ebp-0xd50],0x44
  402849:	call   0x40d306
  40284e:	lea    eax,[ebp-0xef0]
  402854:	mov    DWORD PTR [ebp-0xd10],0x401084
  40285e:	push   0x8
  402860:	mov    edx,0x401054
  402865:	mov    DWORD PTR [ebp-0xd20],0x20000
  40286f:	lea    ecx,[ebp-0xce0]
  402875:	mov    DWORD PTR [ebp-0xd1c],ebx
  40287b:	mov    DWORD PTR [ebp-0xd28],0xa
  402885:	mov    DWORD PTR [ebp-0xd18],edi
  40288b:	mov    DWORD PTR [ebp-0xd04],eax
  402891:	call   0x40d306
  402896:	lea    eax,[ebp-0xeec]
  40289c:	mov    DWORD PTR [ebp-0xcc0],0x401148
  4028a6:	mov    DWORD PTR [ebp-0xcb4],eax
  4028ac:	mov    ecx,0x1fe
  4028b1:	mov    DWORD PTR [ebp-0xcd0],0x82000
  4028bb:	lea    eax,[ebp-0x490]
  4028c1:	mov    DWORD PTR [ebp-0xccc],ebx
  4028c7:	mov    DWORD PTR [ebp-0xcd8],0x3
  4028d1:	mov    DWORD PTR [ebp-0xcc8],edi
  4028d7:	mov    BYTE PTR [eax],bl
  4028d9:	inc    eax
  4028da:	sub    ecx,0x1
  4028dd:	jne    0x4028d7
  4028df:	mov    edx,DWORD PTR [ebp-0xedc]
  4028e5:	lea    eax,[ebp-0xec0]
  4028eb:	push   ecx
  4028ec:	push   eax
  4028ed:	push   0x7
  4028ef:	push   ebx
  4028f0:	mov    ecx,esi
  4028f2:	call   0x410a21
  4028f7:	test   eax,eax
  4028f9:	jne    0x402914
  4028fb:	push   0x2
  4028fd:	call   0x411711
  402902:	pop    ecx
  402903:	mov    edx,0x20001
  402908:	mov    ecx,eax
  40290a:	call   0x40c74a
  40290f:	jmp    0x40304a
  402914:	mov    eax,DWORD PTR [ebp-0xdf4]
  40291a:	mov    esi,DWORD PTR [ebp-0xe44]
  402920:	mov    DWORD PTR [ebp-0xed4],esi
  402926:	mov    DWORD PTR [ebp-0xee8],esi
  40292c:	mov    DWORD PTR [ebp-0xec4],eax
  402932:	mov    DWORD PTR [ebp-0xee4],eax
  402938:	test   eax,eax
  40293a:	jne    0x402956
  40293c:	mov    ecx,0x1fc
  402941:	call   0x40dc18
  402946:	mov    DWORD PTR [ebp-0xec4],eax
  40294c:	mov    DWORD PTR [ebp-0xee4],eax
  402952:	test   eax,eax
  402954:	je     0x4028fb
  402956:	push   ecx
  402957:	xor    edx,edx
  402959:	mov    ecx,esi
  40295b:	call   0x40cf40
  402960:	push   ecx
  402961:	mov    ecx,DWORD PTR [ebp-0xec4]
  402967:	xor    edx,edx
  402969:	call   0x40cf40
  40296e:	cmp    DWORD PTR [ebp-0xef0],edi
  402974:	jne    0x40299f
  402976:	cmp    DWORD PTR [ebp-0xed8],0x3
  40297d:	jbe    0x40299f
  40297f:	push   0x4
  402981:	pop    ecx
  402982:	call   0x40c92c
  402987:	push   0x2
  402989:	mov    esi,eax
  40298b:	call   0x411711
  402990:	pop    ecx
  402991:	mov    edx,esi
  402993:	mov    ecx,eax
  402995:	call   0x40d474
  40299a:	jmp    0x40304a
  40299f:	cmp    DWORD PTR [ebp-0xe54],ebx
  4029a5:	je     0x4029bc
  4029a7:	mov    ecx,esi
  4029a9:	call   0x40d408
  4029ae:	test   eax,eax
  4029b0:	jne    0x4029bc
  4029b2:	mov    ecx,0x30e
  4029b7:	jmp    0x402b40
  4029bc:	mov    eax,DWORD PTR [ebp-0xe04]
  4029c2:	test   eax,eax
  4029c4:	je     0x4029e5
  4029c6:	mov    ecx,DWORD PTR [ebp-0xec4]
  4029cc:	call   0x40d408
  4029d1:	test   eax,eax
  4029d3:	jne    0x4029df
  4029d5:	mov    ecx,0x30f
  4029da:	jmp    0x402b40
  4029df:	mov    eax,DWORD PTR [ebp-0xe04]
  4029e5:	cmp    DWORD PTR [ebp-0xe54],ebx
  4029eb:	jne    0x4029f8
  4029ed:	test   eax,eax
  4029ef:	je     0x4029fc
  4029f1:	mov    ecx,0x30b
  4029f6:	jmp    0x402982
  4029f8:	test   eax,eax
  4029fa:	jne    0x402a0e
  4029fc:	cmp    DWORD PTR [ebp-0xdb4],ebx
  402a02:	je     0x402a0e
  402a04:	mov    ecx,0x30c
  402a09:	jmp    0x402982
  402a0e:	mov    ecx,esi
  402a10:	cmp    DWORD PTR [ebp-0xef0],ebx
  402a16:	je     0x402a50
  402a18:	call   0x40c1d9
  402a1d:	cmp    eax,edi
  402a1f:	je     0x403034
  402a25:	push   0x57
  402a27:	pop    ebx
  402a28:	mov    ecx,ebx
  402a2a:	call   0x40c92c
  402a2f:	push   edi
  402a30:	mov    esi,eax
  402a32:	call   0x411711
  402a37:	pop    ecx
  402a38:	mov    edx,esi
  402a3a:	mov    ecx,eax
  402a3c:	call   0x40d474
  402a41:	inc    ebx
  402a42:	cmp    ebx,0x69
  402a45:	jbe    0x402a28
  402a47:	xor    ebx,ebx
  402a49:	mov    edi,ebx
  402a4b:	jmp    0x403034
  402a50:	call   0x40eb0c
  402a55:	test   eax,eax
  402a57:	je     0x402a89
  402a59:	call   0x40ea45
  402a5e:	test   eax,eax
  402a60:	jne    0x402a89
  402a62:	mov    ecx,0xe87
  402a67:	call   0x40c92c
  402a6c:	push   0x2
  402a6e:	mov    esi,eax
  402a70:	call   0x411711
  402a75:	pop    ecx
  402a76:	mov    edx,esi
  402a78:	mov    ecx,eax
  402a7a:	call   0x40d474
  402a7f:	call   0x40c7e2
  402a84:	jmp    0x40304a
  402a89:	mov    ecx,esi
  402a8b:	call   0x40eb0c
  402a90:	test   eax,eax
  402a92:	jne    0x402aed
  402a94:	cmp    DWORD PTR [ebp-0xdb4],ebx
  402a9a:	je     0x402ac2
  402a9c:	push   ebx
  402a9d:	push   edi
  402a9e:	mov    edx,0x401134
  402aa3:	lea    ecx,[ebp-0x890]
  402aa9:	call   0x40d41c
  402aae:	test   eax,eax
  402ab0:	jne    0x402aba
  402ab2:	mov    DWORD PTR [ebp-0xecc],edi
  402ab8:	jmp    0x402aed
  402aba:	cmp    DWORD PTR [ebp-0xdb4],ebx
  402ac0:	jne    0x402aed
  402ac2:	cmp    DWORD PTR [ebp-0xe54],ebx
  402ac8:	jne    0x402ad2
  402aca:	cmp    DWORD PTR [ebp-0xe04],ebx
  402ad0:	je     0x402aed
  402ad2:	push   0xfe
  402ad7:	mov    edx,0x40104c
  402adc:	mov    DWORD PTR [ebp-0xecc],edi
  402ae2:	lea    ecx,[ebp-0x890]
  402ae8:	call   0x40d369
  402aed:	push   0x2
  402aef:	push   0x401150
  402af4:	push   esi
  402af5:	call   DWORD PTR ds:0x413124
  402afb:	test   eax,eax
  402afd:	jne    0x402b74
  402aff:	push   0x3
  402b01:	push   0x401158
  402b06:	push   esi
  402b07:	call   DWORD PTR ds:0x413124
  402b0d:	test   eax,eax
  402b0f:	je     0x402b74
  402b11:	push   0x401150
  402b16:	push   esi
  402b17:	call   DWORD PTR ds:0x4131b4
  402b1d:	mov    DWORD PTR [ebp-0xed8],eax
  402b23:	pop    ecx
  402b24:	pop    ecx
  402b25:	test   eax,eax
  402b27:	jne    0x402b5d
  402b29:	push   ebx
  402b2a:	push   edi
  402b2b:	mov    edx,0x401150
  402b30:	mov    ecx,esi
  402b32:	call   0x40d41c
  402b37:	test   eax,eax
  402b39:	je     0x402b5d
  402b3b:	mov    ecx,0xe7d
  402b40:	call   0x40c92c
  402b45:	push   0x2
  402b47:	mov    esi,eax
  402b49:	call   0x411711
  402b4e:	pop    ecx
  402b4f:	mov    edx,esi
  402b51:	mov    ecx,eax
  402b53:	call   0x40d474
  402b58:	jmp    0x403034
  402b5d:	mov    ecx,esi
  402b5f:	call   0x40dd9e
  402b64:	mov    edx,DWORD PTR [ebp-0xed8]
  402b6a:	mov    ecx,esi
  402b6c:	shr    eax,1
  402b6e:	push   eax
  402b6f:	call   0x40d369
  402b74:	mov    ecx,esi
  402b76:	call   0x40eb0c
  402b7b:	cmp    eax,edi
  402b7d:	jne    0x402bb1
  402b7f:	mov    ecx,DWORD PTR [ebp-0xec4]
  402b85:	call   0x40d408
  402b8a:	test   eax,eax
  402b8c:	je     0x402bb1
  402b8e:	mov    ecx,0x313
  402b93:	call   0x40c92c
  402b98:	push   0x2
  402b9a:	mov    esi,eax
  402b9c:	call   0x411711
  402ba1:	pop    ecx
  402ba2:	mov    edx,esi
  402ba4:	mov    ecx,eax
  402ba6:	call   0x40d474
  402bab:	mov    esi,DWORD PTR [ebp-0xed4]
  402bb1:	mov    edx,DWORD PTR [ebp-0xec4]
  402bb7:	lea    eax,[ebp-0xec8]
  402bbd:	push   eax
  402bbe:	push   DWORD PTR [ebp-0xecc]
  402bc4:	lea    eax,[ebp-0x290]
  402bca:	mov    ecx,esi
  402bcc:	push   eax
  402bcd:	lea    eax,[ebp-0x890]
  402bd3:	push   eax
  402bd4:	call   0x404ec4
  402bd9:	test   eax,eax
  402bdb:	jne    0x402bf1
  402bdd:	cmp    DWORD PTR [ebp-0xec8],ebx
  402be3:	je     0x403034
  402be9:	push   ecx
  402bea:	mov    ecx,esi
  402bec:	jmp    0x40302f
  402bf1:	lea    ecx,[ebp-0x290]
  402bf7:	call   0x404b94
  402bfc:	mov    DWORD PTR [ebp-0xed0],eax
  402c02:	test   eax,eax
  402c04:	jne    0x402c13
  402c06:	lea    ecx,[ebp-0x290]
  402c0c:	call   0x4053d0
  402c11:	jmp    0x402bdd
  402c13:	push   0xff
  402c18:	lea    edx,[ebp-0x290]
  402c1e:	lea    ecx,[ebp-0xc90]
  402c24:	call   0x40d369
  402c29:	mov    ecx,DWORD PTR [ebp-0xed0]
  402c2f:	call   0x40e5c6
  402c34:	cmp    eax,0x14
  402c37:	jb     0x402c43
  402c39:	mov    ecx,0x314
  402c3e:	jmp    0x402ff2
  402c43:	mov    edx,DWORD PTR [ebp-0xeec]
  402c49:	test   edx,edx
  402c4b:	je     0x402fef
  402c51:	cmp    edx,eax
  402c53:	ja     0x402fef
  402c59:	dec    edx
  402c5a:	call   0x40e62c
  402c5f:	mov    ecx,eax
  402c61:	mov    DWORD PTR [ebp-0xed8],eax
  402c67:	call   0x40d408
  402c6c:	lea    ecx,[eax*2+0x4]
  402c73:	call   0x40dc18
  402c78:	mov    DWORD PTR [ebp-0xec4],eax
  402c7e:	test   eax,eax
  402c80:	jne    0x402c9b
  402c82:	push   0x2
  402c84:	call   0x411711
  402c89:	pop    ecx
  402c8a:	mov    edx,0x20001
  402c8f:	mov    ecx,eax
  402c91:	call   0x40c74a
  402c96:	jmp    0x402c06
  402c9b:	mov    ecx,eax
  402c9d:	call   0x40dd9e
  402ca2:	mov    esi,DWORD PTR [ebp-0xec4]
  402ca8:	mov    ecx,esi
  402caa:	mov    edx,DWORD PTR [ebp-0xed8]
  402cb0:	shr    eax,1
  402cb2:	push   eax
  402cb3:	call   0x40d369
  402cb8:	push   0x3d
  402cba:	push   esi
  402cbb:	call   DWORD PTR ds:0x4131d4
  402cc1:	xor    ecx,ecx
  402cc3:	push   0x22
  402cc5:	mov    WORD PTR [eax],cx
  402cc8:	add    eax,0x2
  402ccb:	push   eax
  402ccc:	mov    DWORD PTR [ebp-0xecc],eax
  402cd2:	call   DWORD PTR ds:0x4131c4
  402cd8:	add    esp,0x10
  402cdb:	lea    esi,[eax+0x2]
  402cde:	mov    ecx,esi
  402ce0:	mov    DWORD PTR [ebp-0xedc],esi
  402ce6:	call   0x40d408
  402ceb:	test   eax,eax
  402ced:	je     0x402cfd
  402cef:	xor    eax,eax
  402cf1:	mov    WORD PTR [esi],ax
  402cf4:	add    esi,0x2
  402cf7:	mov    DWORD PTR [ebp-0xedc],esi
  402cfd:	mov    ecx,esi
  402cff:	call   0x40d408
  402d04:	mov    ecx,DWORD PTR [ebp-0xecc]
  402d0a:	mov    esi,eax
  402d0c:	call   0x40d408
  402d11:	mov    ecx,DWORD PTR [ebp-0xec4]
  402d17:	add    esi,eax
  402d19:	call   0x40d408
  402d1e:	inc    eax
  402d1f:	add    eax,esi
  402d21:	mov    DWORD PTR [ebp-0xed8],eax
  402d27:	cmp    DWORD PTR [ebp-0xd64],ebx
  402d2d:	jne    0x402e18
  402d33:	mov    esi,DWORD PTR [ebp-0xecc]
  402d39:	mov    edx,0x401184
  402d3e:	push   ecx
  402d3f:	mov    ecx,esi
  402d41:	call   0x40cf40
  402d46:	mov    ecx,esi
  402d48:	call   0x40d408
  402d4d:	cmp    eax,0x3b
  402d50:	jbe    0x402d6a
  402d52:	push   0x3b
  402d54:	mov    edx,esi
  402d56:	lea    ecx,[ebp-0xa90]
  402d5c:	call   0x40d369
  402d61:	lea    eax,[ebp-0xa90]
  402d67:	push   eax
  402d68:	jmp    0x402d6b
  402d6a:	push   esi
  402d6b:	mov    ecx,0xe7c
  402d70:	call   0x40c92c
  402d75:	push   eax
  402d76:	push   0x401188
  402d7b:	lea    eax,[ebp-0x490]
  402d81:	push   0xff
  402d86:	push   eax
  402d87:	call   0x401b75
  402d8c:	lea    eax,[ebp-0x490]
  402d92:	add    esp,0x14
  402d95:	test   eax,eax
  402d97:	jne    0x402da1
  402d99:	mov    DWORD PTR [ebp-0xecc],ebx
  402d9f:	jmp    0x402db4
  402da1:	lea    eax,[ebp-0x490]
  402da7:	push   eax
  402da8:	call   DWORD PTR ds:0x4130f0
  402dae:	mov    DWORD PTR [ebp-0xecc],eax
  402db4:	mov    ecx,DWORD PTR [ebp-0xedc]
  402dba:	call   0x40d408
  402dbf:	mov    ecx,DWORD PTR [ebp-0xec4]
  402dc5:	mov    esi,eax
  402dc7:	call   0x40d408
  402dcc:	add    esi,DWORD PTR [ebp-0xecc]
  402dd2:	inc    eax
  402dd3:	add    eax,esi
  402dd5:	cmp    eax,0xfe
  402dda:	jbe    0x402eb0
  402de0:	mov    ecx,0xe80
  402de5:	call   0x40c92c
  402dea:	push   0x2
  402dec:	mov    esi,eax
  402dee:	call   0x411711
  402df3:	pop    ecx
  402df4:	mov    edx,esi
  402df6:	mov    ecx,eax
  402df8:	call   0x40d474
  402dfd:	lea    ecx,[ebp-0x290]
  402e03:	call   0x4053d0
  402e08:	lea    ecx,[ebp-0xec4]
  402e0e:	call   0x40db64
  402e13:	jmp    0x403015
  402e18:	lea    eax,[ebp-0x90]
  402e1e:	test   eax,eax
  402e20:	jne    0x402e26
  402e22:	mov    esi,ebx
  402e24:	jmp    0x402e35
  402e26:	lea    eax,[ebp-0x90]
  402e2c:	push   eax
  402e2d:	call   DWORD PTR ds:0x4130f0
  402e33:	mov    esi,eax
  402e35:	mov    ecx,DWORD PTR [ebp-0xecc]
  402e3b:	call   0x40d408
  402e40:	mov    ecx,DWORD PTR [ebp-0xed8]
  402e46:	add    ecx,esi
  402e48:	sub    ecx,eax
  402e4a:	cmp    ecx,0xfe
  402e50:	ja     0x402de0
  402e52:	mov    esi,0xff
  402e57:	lea    ecx,[ebp-0x490]
  402e5d:	push   esi
  402e5e:	mov    edx,0x401184
  402e63:	call   0x40d369
  402e68:	push   ecx
  402e69:	xor    edx,edx
  402e6b:	lea    ecx,[ebp-0x90]
  402e71:	call   0x40cf40
  402e76:	lea    eax,[ebp-0x90]
  402e7c:	test   eax,eax
  402e7e:	je     0x402e9d
  402e80:	push   eax
  402e81:	call   DWORD PTR ds:0x4130f0
  402e87:	test   eax,eax
  402e89:	je     0x402e9d
  402e8b:	push   esi
  402e8c:	lea    edx,[ebp-0x90]
  402e92:	lea    ecx,[ebp-0x490]
  402e98:	call   0x40d3ce
  402e9d:	push   esi
  402e9e:	mov    edx,0x401184
  402ea3:	lea    ecx,[ebp-0x490]
  402ea9:	call   0x40d3ce
  402eae:	jmp    0x402eb5
  402eb0:	mov    esi,0xff
  402eb5:	mov    edx,DWORD PTR [ebp-0xec4]
  402ebb:	lea    ecx,[ebp-0x690]
  402ec1:	push   esi
  402ec2:	call   0x40d369
  402ec7:	push   esi
  402ec8:	mov    edx,0x401198
  402ecd:	lea    ecx,[ebp-0x690]
  402ed3:	call   0x40d3ce
  402ed8:	push   esi
  402ed9:	lea    edx,[ebp-0x490]
  402edf:	lea    ecx,[ebp-0x690]
  402ee5:	call   0x40d3ce
  402eea:	push   esi
  402eeb:	mov    edx,0x40119c
  402ef0:	lea    ecx,[ebp-0x690]
  402ef6:	call   0x40d3ce
  402efb:	mov    edx,DWORD PTR [ebp-0xedc]
  402f01:	lea    ecx,[ebp-0x690]
  402f07:	push   esi
  402f08:	call   0x40d3ce
  402f0d:	lea    ecx,[ebp-0xec4]
  402f13:	call   0x40db64
  402f18:	lea    eax,[ebp-0x690]
  402f1e:	test   eax,eax
  402f20:	je     0x402f2b
  402f22:	push   eax
  402f23:	call   DWORD PTR ds:0x4130f0
  402f29:	mov    ebx,eax
  402f2b:	mov    ecx,DWORD PTR [ebp-0xed0]
  402f31:	lea    edx,[ebp-0x690]
  402f37:	push   ebx
  402f38:	call   0x40e278
  402f3d:	mov    ecx,DWORD PTR [ebp-0xed0]
  402f43:	lea    edx,[ebp-0xee0]
  402f49:	call   0x405424
  402f4e:	cmp    eax,edi
  402f50:	jne    0x402f7f
  402f52:	lea    ecx,[ebp-0x290]
  402f58:	call   0x4053d0
  402f5d:	lea    ecx,[ebp-0xee0]
  402f63:	call   0x40db64
  402f68:	lea    ecx,[ebp-0xed0]
  402f6e:	call   0x40e254
  402f73:	cmp    DWORD PTR [ebp-0xec8],0x0
  402f7a:	jmp    0x403026
  402f7f:	lea    eax,[ebp-0xc90]
  402f85:	push   eax
  402f86:	push   DWORD PTR [ebp-0xee0]
  402f8c:	push   0x401160
  402f91:	call   DWORD PTR ds:0x413020
  402f97:	test   eax,eax
  402f99:	je     0x402fcd
  402f9b:	push   DWORD PTR [ebp-0xeec]
  402fa1:	mov    ecx,0xce
  402fa6:	call   0x40c92c
  402fab:	push   eax
  402fac:	push   edi
  402fad:	push   edi
  402fae:	push   edi
  402faf:	call   0x411711
  402fb4:	pop    ecx
  402fb5:	push   eax
  402fb6:	call   0x40d6cd
  402fbb:	add    esp,0x14
  402fbe:	lea    ecx,[ebp-0x290]
  402fc4:	call   0x4053d0
  402fc9:	mov    edi,eax
  402fcb:	jmp    0x402f5d
  402fcd:	mov    ecx,0x86
  402fd2:	call   0x40c92c
  402fd7:	push   0x2
  402fd9:	mov    esi,eax
  402fdb:	call   0x411711
  402fe0:	pop    ecx
  402fe1:	mov    edx,esi
  402fe3:	mov    ecx,eax
  402fe5:	call   0x40d474
  402fea:	jmp    0x402f52
  402fef:	push   0x7d
  402ff1:	pop    ecx
  402ff2:	call   0x40c92c
  402ff7:	push   0x2
  402ff9:	mov    esi,eax
  402ffb:	call   0x411711
  403000:	pop    ecx
  403001:	mov    edx,esi
  403003:	mov    ecx,eax
  403005:	call   0x40d474
  40300a:	lea    ecx,[ebp-0x290]
  403010:	call   0x4053d0
  403015:	lea    ecx,[ebp-0xed0]
  40301b:	call   0x40e254
  403020:	cmp    DWORD PTR [ebp-0xec8],ebx
  403026:	je     0x403034
  403028:	push   ecx
  403029:	mov    ecx,DWORD PTR [ebp-0xed4]
  40302f:	call   0x40f1cf
  403034:	lea    ecx,[ebp-0xee8]
  40303a:	call   0x40db64
  40303f:	lea    ecx,[ebp-0xee4]
  403045:	call   0x40db64
  40304a:	mov    ecx,DWORD PTR [ebp-0x4]
  40304d:	mov    eax,edi
  40304f:	pop    edi
  403050:	pop    esi
  403051:	xor    ecx,ebp
  403053:	pop    ebx
  403054:	call   0x411090
  403059:	mov    esp,ebp
  40305b:	pop    ebp
  40305c:	ret    
  40305d:	int3   
  40305e:	int3   
  40305f:	int3   
  403060:	int3   
  403061:	int3   
  403062:	mov    edi,edi
  403064:	push   ebp
  403065:	mov    ebp,esp
  403067:	sub    esp,0xa24
  40306d:	mov    eax,ds:0x412004
  403072:	xor    eax,ebp
  403074:	mov    DWORD PTR [ebp-0x4],eax
  403077:	push   ebx
  403078:	push   esi
  403079:	xor    eax,eax
  40307b:	mov    DWORD PTR [ebp-0xa00],0x401050
  403085:	push   edi
  403086:	mov    edi,0x1f8
  40308b:	mov    DWORD PTR [ebp-0x9ec],eax
  403091:	push   edi
  403092:	push   eax
  403093:	mov    DWORD PTR [ebp-0xa14],eax
  403099:	mov    ebx,ecx
  40309b:	mov    DWORD PTR [ebp-0xa20],eax
  4030a1:	mov    esi,edx
  4030a3:	mov    DWORD PTR [ebp-0xa18],eax
  4030a9:	mov    DWORD PTR [ebp-0x208],eax
  4030af:	lea    eax,[ebp-0x204]
  4030b5:	push   eax
  4030b6:	mov    DWORD PTR [ebp-0xa10],ebx
  4030bc:	call   0x411770
  4030c1:	add    esp,0xc
  4030c4:	xor    eax,eax
  4030c6:	mov    DWORD PTR [ebp-0x9fc],eax
  4030cc:	mov    DWORD PTR [ebp-0x9f4],eax
  4030d2:	mov    DWORD PTR [ebp-0x9f8],eax
  4030d8:	push   edi
  4030d9:	push   eax
  4030da:	mov    DWORD PTR [ebp-0x808],eax
  4030e0:	lea    eax,[ebp-0x804]
  4030e6:	push   eax
  4030e7:	call   0x411770
  4030ec:	add    esp,0xc
  4030ef:	xor    eax,eax
  4030f1:	add    edi,0x2
  4030f4:	mov    DWORD PTR [ebp-0xa08],eax
  4030fa:	mov    DWORD PTR [ebp-0x9f0],eax
  403100:	mov    DWORD PTR [ebp-0x608],eax
  403106:	push   edi
  403107:	push   eax
  403108:	lea    eax,[ebp-0x604]
  40310e:	push   eax
  40310f:	call   0x411770
  403114:	and    DWORD PTR [ebp-0x408],0x0
  40311b:	lea    eax,[ebp-0x404]
  403121:	add    esp,0xc
  403124:	push   edi
  403125:	push   0x0
  403127:	push   eax
  403128:	call   0x411770
  40312d:	and    DWORD PTR [ebp-0xa1c],0x0
  403134:	add    esp,0xc
  403137:	xor    eax,eax
  403139:	mov    ecx,0x1e0
  40313e:	mov    DWORD PTR [ebp-0xa04],eax
  403144:	mov    DWORD PTR [ebp-0xa0c],eax
  40314a:	lea    eax,[ebp-0x9e8]
  403150:	mov    BYTE PTR [eax],0x0
  403153:	inc    eax
  403154:	sub    ecx,0x1
  403157:	jne    0x403150
  403159:	push   0xfe
  40315e:	mov    edx,0x401134
  403163:	lea    ecx,[ebp-0x808]
  403169:	call   0x40d369
  40316e:	push   0x8
  403170:	mov    edx,0x401054
  403175:	lea    ecx,[ebp-0x9e8]
  40317b:	call   0x40d306
  403180:	xor    edi,edi
  403182:	mov    DWORD PTR [ebp-0x9c8],0x401074
  40318c:	lea    eax,[ebp-0xa20]
  403192:	mov    DWORD PTR [ebp-0x9e0],0xa
  40319c:	inc    edi
  40319d:	mov    DWORD PTR [ebp-0x9bc],eax
  4031a3:	push   0x8
  4031a5:	mov    edx,0x401054
  4031aa:	mov    DWORD PTR [ebp-0x9d0],edi
  4031b0:	lea    ecx,[ebp-0x998]
  4031b6:	call   0x40d306
  4031bb:	and    DWORD PTR [ebp-0x984],0x0
  4031c2:	lea    ecx,[ebp-0x948]
  4031c8:	push   0x8
  4031ca:	mov    edx,0x401054
  4031cf:	mov    DWORD PTR [ebp-0x978],0x401138
  4031d9:	mov    DWORD PTR [ebp-0x988],0x12000
  4031e3:	mov    DWORD PTR [ebp-0x990],edi
  4031e9:	mov    DWORD PTR [ebp-0x980],edi
  4031ef:	call   0x40d306
  4031f4:	and    DWORD PTR [ebp-0x934],0x0
  4031fb:	lea    ecx,[ebp-0x8f8]
  403201:	push   0x8
  403203:	mov    edx,0x401054
  403208:	mov    DWORD PTR [ebp-0x928],0x40113c
  403212:	mov    DWORD PTR [ebp-0x938],0x12000
  40321c:	mov    DWORD PTR [ebp-0x940],edi
  403222:	mov    DWORD PTR [ebp-0x930],edi
  403228:	call   0x40d306
  40322d:	and    DWORD PTR [ebp-0x8e4],0x0
  403234:	lea    eax,[ebp-0x808]
  40323a:	push   0x8
  40323c:	mov    edx,0x401054
  403241:	mov    DWORD PTR [ebp-0x8d8],0x401140
  40324b:	lea    ecx,[ebp-0x8a8]
  403251:	mov    DWORD PTR [ebp-0x8e8],0x10
  40325b:	mov    DWORD PTR [ebp-0x8f0],edi
  403261:	mov    DWORD PTR [ebp-0x8e0],edi
  403267:	mov    DWORD PTR [ebp-0x8cc],eax
  40326d:	mov    DWORD PTR [ebp-0x8c8],0xfe
  403277:	call   0x40d306
  40327c:	and    DWORD PTR [ebp-0x894],0x0
  403283:	lea    eax,[ebp-0xa18]
  403289:	push   0x8
  40328b:	mov    edx,0x401054
  403290:	mov    DWORD PTR [ebp-0x888],0x401084
  40329a:	lea    ecx,[ebp-0x858]
  4032a0:	mov    DWORD PTR [ebp-0x898],0x20000
  4032aa:	mov    DWORD PTR [ebp-0x8a0],0xa
  4032b4:	mov    DWORD PTR [ebp-0x890],edi
  4032ba:	mov    DWORD PTR [ebp-0x87c],eax
  4032c0:	call   0x40d306
  4032c5:	and    DWORD PTR [ebp-0x844],0x0
  4032cc:	lea    eax,[ebp-0xa08]
  4032d2:	push   ecx
  4032d3:	mov    DWORD PTR [ebp-0x82c],eax
  4032d9:	mov    edx,esi
  4032db:	lea    eax,[ebp-0x9e8]
  4032e1:	mov    DWORD PTR [ebp-0x838],0x401148
  4032eb:	push   eax
  4032ec:	push   0x6
  4032ee:	push   0x0
  4032f0:	mov    ecx,ebx
  4032f2:	mov    DWORD PTR [ebp-0x848],0x82000
  4032fc:	mov    DWORD PTR [ebp-0x850],0x3
  403306:	mov    DWORD PTR [ebp-0x840],edi
  40330c:	call   0x410a21
  403311:	test   eax,eax
  403313:	jne    0x40332e
  403315:	push   0x2
  403317:	call   0x411711
  40331c:	pop    ecx
  40331d:	mov    edx,0x20001
  403322:	mov    ecx,eax
  403324:	call   0x40c74a
  403329:	jmp    0x403ca2
  40332e:	mov    esi,DWORD PTR [ebp-0x91c]
  403334:	mov    ebx,DWORD PTR [ebp-0x96c]
  40333a:	mov    DWORD PTR [ebp-0x9f4],ebx
  403340:	mov    DWORD PTR [ebp-0x9ec],esi
  403346:	mov    DWORD PTR [ebp-0x9f8],esi
  40334c:	test   esi,esi
  40334e:	jne    0x40336c
  403350:	mov    ecx,0x1fc
  403355:	call   0x40dc18
  40335a:	mov    esi,eax
  40335c:	mov    DWORD PTR [ebp-0x9ec],esi
  403362:	mov    DWORD PTR [ebp-0x9f8],esi
  403368:	test   esi,esi
  40336a:	je     0x403315
  40336c:	push   ecx
  40336d:	xor    edx,edx
  40336f:	mov    ecx,ebx
  403371:	call   0x40cf40
  403376:	push   ecx
  403377:	xor    edx,edx
  403379:	mov    ecx,esi
  40337b:	call   0x40cf40
  403380:	cmp    DWORD PTR [ebp-0xa18],edi
  403386:	jne    0x4033b1
  403388:	cmp    DWORD PTR [ebp-0xa10],0x3
  40338f:	jbe    0x4033b1
  403391:	push   0x5
  403393:	pop    ecx
  403394:	call   0x40c92c
  403399:	push   0x2
  40339b:	mov    esi,eax
  40339d:	call   0x411711
  4033a2:	pop    ecx
  4033a3:	mov    edx,esi
  4033a5:	mov    ecx,eax
  4033a7:	call   0x40d474
  4033ac:	jmp    0x403ca2
  4033b1:	cmp    DWORD PTR [ebp-0x97c],0x0
  4033b8:	je     0x4033e7
  4033ba:	mov    ecx,ebx
  4033bc:	call   0x40d408
  4033c1:	test   eax,eax
  4033c3:	jne    0x4033e7
  4033c5:	mov    ecx,0x30e
  4033ca:	call   0x40c92c
  4033cf:	push   0x2
  4033d1:	mov    esi,eax
  4033d3:	call   0x411711
  4033d8:	pop    ecx
  4033d9:	mov    edx,esi
  4033db:	mov    ecx,eax
  4033dd:	call   0x40d474
  4033e2:	jmp    0x403c8c
  4033e7:	mov    eax,DWORD PTR [ebp-0x92c]
  4033ed:	test   eax,eax
  4033ef:	je     0x403409
  4033f1:	mov    ecx,esi
  4033f3:	call   0x40d408
  4033f8:	test   eax,eax
  4033fa:	jne    0x403403
  4033fc:	mov    ecx,0x30f
  403401:	jmp    0x4033ca
  403403:	mov    eax,DWORD PTR [ebp-0x92c]
  403409:	cmp    DWORD PTR [ebp-0x97c],0x0
  403410:	jne    0x40342e
  403412:	test   eax,eax
  403414:	je     0x403432
  403416:	mov    ecx,0x30b
  40341b:	call   0x40c92c
  403420:	mov    ecx,eax
  403422:	call   0x40c521
  403427:	call   0x40c4fc
  40342c:	jmp    0x4033cf
  40342e:	test   eax,eax
  403430:	jne    0x403442
  403432:	cmp    DWORD PTR [ebp-0x8dc],0x0
  403439:	je     0x403442
  40343b:	mov    ecx,0x30c
  403440:	jmp    0x40341b
  403442:	cmp    DWORD PTR [ebp-0xa18],0x0
  403449:	mov    ecx,ebx
  40344b:	je     0x403483
  40344d:	call   0x40c1d9
  403452:	cmp    eax,edi
  403454:	je     0x403c8c
  40345a:	push   0x6
  40345c:	pop    ebx
  40345d:	mov    ecx,ebx
  40345f:	call   0x40c92c
  403464:	push   edi
  403465:	mov    esi,eax
  403467:	call   0x411711
  40346c:	pop    ecx
  40346d:	mov    edx,esi
  40346f:	mov    ecx,eax
  403471:	call   0x40d474
  403476:	inc    ebx
  403477:	cmp    ebx,0x17
  40347a:	jbe    0x40345d
  40347c:	xor    edi,edi
  40347e:	jmp    0x403c8c
  403483:	call   0x40eb0c
  403488:	test   eax,eax
  40348a:	je     0x4034bc
  40348c:	call   0x40ea45
  403491:	test   eax,eax
  403493:	jne    0x4034bc
  403495:	mov    ecx,0xe87
  40349a:	call   0x40c92c
  40349f:	push   0x2
  4034a1:	mov    esi,eax
  4034a3:	call   0x411711
  4034a8:	pop    ecx
  4034a9:	mov    edx,esi
  4034ab:	mov    ecx,eax
  4034ad:	call   0x40d474
  4034b2:	call   0x40c7e2
  4034b7:	jmp    0x403ca2
  4034bc:	mov    ecx,ebx
  4034be:	call   0x40eb0c
  4034c3:	test   eax,eax
  4034c5:	jne    0x403523
  4034c7:	cmp    DWORD PTR [ebp-0x8dc],eax
  4034cd:	je     0x4034f6
  4034cf:	push   eax
  4034d0:	push   edi
  4034d1:	mov    edx,0x401134
  4034d6:	lea    ecx,[ebp-0x808]
  4034dc:	call   0x40d41c
  4034e1:	test   eax,eax
  4034e3:	jne    0x4034ed
  4034e5:	mov    DWORD PTR [ebp-0x9fc],edi
  4034eb:	jmp    0x403523
  4034ed:	cmp    DWORD PTR [ebp-0x8dc],0x0
  4034f4:	jne    0x403523
  4034f6:	cmp    DWORD PTR [ebp-0x97c],0x0
  4034fd:	jne    0x403508
  4034ff:	cmp    DWORD PTR [ebp-0x92c],0x0
  403506:	je     0x403523
  403508:	push   0xfe
  40350d:	mov    edx,0x40104c
  403512:	mov    DWORD PTR [ebp-0x9fc],edi
  403518:	lea    ecx,[ebp-0x808]
  40351e:	call   0x40d369
  403523:	push   0x2
  403525:	push   0x401150
  40352a:	push   ebx
  40352b:	call   DWORD PTR ds:0x413124
  403531:	test   eax,eax
  403533:	jne    0x40358f
  403535:	push   0x3
  403537:	push   0x401158
  40353c:	push   ebx
  40353d:	call   DWORD PTR ds:0x413124
  403543:	test   eax,eax
  403545:	je     0x40358f
  403547:	push   0x401150
  40354c:	push   ebx
  40354d:	call   DWORD PTR ds:0x4131b4
  403553:	mov    DWORD PTR [ebp-0xa10],eax
  403559:	pop    ecx
  40355a:	pop    ecx
  40355b:	test   eax,eax
  40355d:	jne    0x403581
  40355f:	push   eax
  403560:	push   edi
  403561:	mov    edx,0x401150
  403566:	mov    ecx,ebx
  403568:	call   0x40d41c
  40356d:	test   eax,eax
  40356f:	je     0x40357b
  403571:	mov    ecx,0xe7d
  403576:	jmp    0x403394
  40357b:	mov    eax,DWORD PTR [ebp-0xa10]
  403581:	push   0xfe
  403586:	mov    edx,eax
  403588:	mov    ecx,ebx
  40358a:	call   0x40d369
  40358f:	mov    ecx,ebx
  403591:	call   0x40eb0c
  403596:	cmp    eax,edi
  403598:	jne    0x4035c8
  40359a:	mov    ecx,esi
  40359c:	call   0x40d408
  4035a1:	test   eax,eax
  4035a3:	je     0x4035c8
  4035a5:	mov    ecx,0x313
  4035aa:	call   0x40c92c
  4035af:	push   0x2
  4035b1:	mov    esi,eax
  4035b3:	call   0x411711
  4035b8:	pop    ecx
  4035b9:	mov    edx,esi
  4035bb:	mov    ecx,eax
  4035bd:	call   0x40d474
  4035c2:	mov    esi,DWORD PTR [ebp-0x9ec]
  4035c8:	lea    eax,[ebp-0x9f0]
  4035ce:	mov    edx,esi
  4035d0:	push   eax
  4035d1:	push   DWORD PTR [ebp-0x9fc]
  4035d7:	lea    eax,[ebp-0x208]
  4035dd:	mov    ecx,ebx
  4035df:	push   eax
  4035e0:	lea    eax,[ebp-0x808]
  4035e6:	push   eax
  4035e7:	call   0x404ec4
  4035ec:	test   eax,eax
  4035ee:	je     0x403c7b
  4035f4:	lea    ecx,[ebp-0x208]
  4035fa:	call   0x404b94
  4035ff:	mov    esi,eax
  403601:	mov    DWORD PTR [ebp-0x9ec],esi
  403607:	test   esi,esi
  403609:	jne    0x40361b
  40360b:	lea    ecx,[ebp-0x208]
  403611:	call   0x4053d0
  403616:	jmp    0x403c7b
  40361b:	mov    ecx,esi
  40361d:	call   0x40e5c6
  403622:	mov    edx,DWORD PTR [ebp-0xa08]
  403628:	test   edx,edx
  40362a:	je     0x403c4a
  403630:	cmp    edx,eax
  403632:	ja     0x403c4a
  403638:	cmp    eax,edi
  40363a:	jne    0x403646
  40363c:	mov    ecx,0x87
  403641:	jmp    0x403c4d
  403646:	dec    edx
  403647:	mov    ecx,esi
  403649:	call   0x40e62c
  40364e:	mov    ecx,eax
  403650:	call   0x40d408
  403655:	mov    ecx,0xfe
  40365a:	cmp    eax,ecx
  40365c:	jbe    0x403682
  40365e:	push   ecx
  40365f:	mov    ecx,0xc12
  403664:	call   0x40c92c
  403669:	push   eax
  40366a:	push   edi
  40366b:	push   edi
  40366c:	push   0x2
  40366e:	call   0x411711
  403673:	pop    ecx
  403674:	push   eax
  403675:	call   0x40d6cd
  40367a:	add    esp,0x14
  40367d:	jmp    0x403c65
  403682:	mov    edx,DWORD PTR [ebp-0xa08]
  403688:	mov    ecx,esi
  40368a:	lea    edx,[edx-0x1]
  40368d:	call   0x40e62c
  403692:	push   0x22
  403694:	push   eax
  403695:	call   DWORD PTR ds:0x4131c4
  40369b:	pop    ecx
  40369c:	pop    ecx
  40369d:	test   eax,eax
  40369f:	jne    0x4036d9
  4036a1:	mov    ecx,0x829
  4036a6:	call   0x40c92c
  4036ab:	push   0x2
  4036ad:	mov    esi,eax
  4036af:	call   0x411711
  4036b4:	pop    ecx
  4036b5:	mov    edx,esi
  4036b7:	mov    ecx,eax
  4036b9:	call   0x40d474
  4036be:	lea    ecx,[ebp-0x208]
  4036c4:	call   0x4053d0
  4036c9:	lea    ecx,[ebp-0xa14]
  4036cf:	call   0x40e254
  4036d4:	jmp    0x403c70
  4036d9:	add    eax,0x2
  4036dc:	lea    ecx,[ebp-0x608]
  4036e2:	push   0xff
  4036e7:	mov    edx,0x4011a0
  4036ec:	mov    DWORD PTR [ebp-0x9fc],eax
  4036f2:	call   0x40d369
  4036f7:	lea    eax,[ebp-0x608]
  4036fd:	push   eax
  4036fe:	call   DWORD PTR ds:0x41313c
  403704:	mov    ecx,DWORD PTR [ebp-0x9fc]
  40370a:	lea    edx,[ebp-0x608]
  403710:	push   0x0
  403712:	push   edi
  403713:	call   0x40ce8e
  403718:	mov    ecx,eax
  40371a:	cmp    ecx,0xffffffff
  40371d:	je     0x403732
  40371f:	mov    eax,DWORD PTR [ebp-0x9fc]
  403725:	lea    eax,[eax+ecx*2]
  403728:	test   eax,eax
  40372a:	je     0x403732
  40372c:	mov    DWORD PTR [ebp-0xa1c],edi
  403732:	mov    edx,DWORD PTR [ebp-0xa08]
  403738:	mov    ecx,esi
  40373a:	lea    edx,[edx-0x1]
  40373d:	call   0x40e56f
  403742:	lea    edx,[ebp-0xa00]
  403748:	mov    ecx,esi
  40374a:	call   0x405424
  40374f:	cmp    eax,edi
  403751:	je     0x403c65
  403757:	cmp    DWORD PTR [ebp-0xa08],edi
  40375d:	jne    0x40382f
  403763:	xor    edx,edx
  403765:	mov    ecx,esi
  403767:	call   0x40e62c
  40376c:	mov    ecx,eax
  40376e:	mov    DWORD PTR [ebp-0x9fc],eax
  403774:	call   0x40d408
  403779:	mov    DWORD PTR [ebp-0xa10],eax
  40377f:	lea    ecx,[eax*2+0x14]
  403786:	call   0x40dc18
  40378b:	mov    DWORD PTR [ebp-0xa04],eax
  403791:	mov    DWORD PTR [ebp-0xa0c],eax
  403797:	test   eax,eax
  403799:	jne    0x403809
  40379b:	push   0x2
  40379d:	call   0x411711
  4037a2:	pop    ecx
  4037a3:	mov    edx,0x10001
  4037a8:	mov    ecx,eax
  4037aa:	call   0x40c74a
  4037af:	lea    ecx,[ebp-0x208]
  4037b5:	call   0x4053d0
  4037ba:	lea    ecx,[ebp-0xa00]
  4037c0:	call   0x40db64
  4037c5:	lea    ecx,[ebp-0x9ec]
  4037cb:	call   0x40e254
  4037d0:	cmp    DWORD PTR [ebp-0x9f0],0x0
  4037d7:	je     0x4037e1
  4037d9:	push   ecx
  4037da:	mov    ecx,ebx
  4037dc:	call   0x40f1cf
  4037e1:	lea    ecx,[ebp-0x9f4]
  4037e7:	call   0x40db64
  4037ec:	lea    ecx,[ebp-0x9f8]
  4037f2:	call   0x40db64
  4037f7:	mov    esi,DWORD PTR [ebp-0x9ec]
  4037fd:	mov    ebx,DWORD PTR [ebp-0x9f4]
  403803:	mov    eax,DWORD PTR [ebp-0xa04]
  403809:	push   DWORD PTR [ebp-0xa10]
  40380f:	mov    edx,DWORD PTR [ebp-0x9fc]
  403815:	mov    ecx,eax
  403817:	call   0x40d369
  40381c:	push   0x401198
  403821:	push   DWORD PTR [ebp-0xa04]
  403827:	call   DWORD PTR ds:0x4131b4
  40382d:	pop    ecx
  40382e:	pop    ecx
  40382f:	lea    eax,[ebp-0x208]
  403835:	push   eax
  403836:	push   DWORD PTR [ebp-0xa00]
  40383c:	push   0x401160
  403841:	call   DWORD PTR ds:0x413020
  403847:	test   eax,eax
  403849:	je     0x403c40
  40384f:	push   DWORD PTR [ebp-0xa08]
  403855:	mov    ecx,0xcf
  40385a:	call   0x40c92c
  40385f:	push   eax
  403860:	push   edi
  403861:	push   edi
  403862:	push   edi
  403863:	call   0x411711
  403868:	pop    ecx
  403869:	push   eax
  40386a:	call   0x40d6cd
  40386f:	add    esp,0x14
  403872:	cmp    DWORD PTR [ebp-0xa08],edi
  403878:	jne    0x40391a
  40387e:	lea    eax,[ebp-0x208]
  403884:	push   eax
  403885:	push   DWORD PTR [ebp-0xa04]
  40388b:	push   0x401094
  403890:	push   0x4011b4
  403895:	call   DWORD PTR ds:0x413028
  40389b:	test   eax,eax
  40389d:	jne    0x40390f
  40389f:	mov    ecx,0x1b7
  4038a4:	call   0x40c92c
  4038a9:	push   0x2
  4038ab:	mov    esi,eax
  4038ad:	call   0x411711
  4038b2:	pop    ecx
  4038b3:	mov    edx,esi
  4038b5:	mov    ecx,eax
  4038b7:	call   0x40d474
  4038bc:	lea    ecx,[ebp-0x208]
  4038c2:	call   0x4053d0
  4038c7:	lea    ecx,[ebp-0xa00]
  4038cd:	call   0x40db64
  4038d2:	lea    ecx,[ebp-0x9ec]
  4038d8:	call   0x40e254
  4038dd:	cmp    DWORD PTR [ebp-0x9f0],0x0
  4038e4:	je     0x4038ee
  4038e6:	push   ecx
  4038e7:	mov    ecx,ebx
  4038e9:	call   0x40f1cf
  4038ee:	lea    ecx,[ebp-0x9f4]
  4038f4:	call   0x40db64
  4038f9:	lea    ecx,[ebp-0x9f8]
  4038ff:	call   0x40db64
  403904:	lea    ecx,[ebp-0xa0c]
  40390a:	jmp    0x403c9d
  40390f:	lea    ecx,[ebp-0xa0c]
  403915:	call   0x40db64
  40391a:	mov    ecx,esi
  40391c:	call   0x40e5c6
  403921:	and    DWORD PTR [ebp-0xa04],0x0
  403928:	mov    ecx,eax
  40392a:	xor    eax,eax
  40392c:	mov    DWORD PTR [ebp-0xa10],ecx
  403932:	mov    DWORD PTR [ebp-0x9fc],eax
  403938:	test   ecx,ecx
  40393a:	je     0x4039da
  403940:	mov    edx,eax
  403942:	mov    ecx,esi
  403944:	call   0x40e62c
  403949:	push   0x22
  40394b:	push   eax
  40394c:	call   DWORD PTR ds:0x4131c4
  403952:	pop    ecx
  403953:	pop    ecx
  403954:	test   eax,eax
  403956:	je     0x403a32
  40395c:	add    eax,0x2
  40395f:	mov    DWORD PTR [ebp-0xa0c],eax
  403965:	lea    eax,[ebp-0x608]
  40396b:	push   eax
  40396c:	call   DWORD PTR ds:0x41313c
  403972:	mov    ecx,DWORD PTR [ebp-0xa0c]
  403978:	lea    edx,[ebp-0x608]
  40397e:	push   0x0
  403980:	push   edi
  403981:	call   0x40ce8e
  403986:	mov    ecx,eax
  403988:	cmp    ecx,0xffffffff
  40398b:	je     0x4039b3
  40398d:	mov    eax,DWORD PTR [ebp-0xa0c]
  403993:	lea    eax,[eax+ecx*2]
  403996:	test   eax,eax
  403998:	je     0x4039b3
  40399a:	mov    eax,DWORD PTR [ebp-0xa08]
  4039a0:	dec    eax
  4039a1:	cmp    DWORD PTR [ebp-0x9fc],eax
  4039a7:	je     0x4039b3
  4039a9:	mov    ecx,edi
  4039ab:	mov    DWORD PTR [ebp-0xa04],ecx
  4039b1:	jmp    0x4039b9
  4039b3:	mov    ecx,DWORD PTR [ebp-0xa04]
  4039b9:	mov    eax,DWORD PTR [ebp-0x9fc]
  4039bf:	inc    eax
  4039c0:	mov    DWORD PTR [ebp-0x9fc],eax
  4039c6:	cmp    eax,DWORD PTR [ebp-0xa10]
  4039cc:	jb     0x403940
  4039d2:	test   ecx,ecx
  4039d4:	jne    0x403be7
  4039da:	cmp    DWORD PTR [ebp-0xa1c],0x0
  4039e1:	je     0x403be7
  4039e7:	lea    eax,[ebp-0x408]
  4039ed:	mov    esi,0x4011cc
  4039f2:	push   eax
  4039f3:	push   esi
  4039f4:	lea    ecx,[ebp-0x208]
  4039fa:	call   0x4099f7
  4039ff:	cmp    eax,edi
  403a01:	jne    0x403a75
  403a03:	push   0x2
  403a05:	call   0x411711
  403a0a:	pop    ecx
  403a0b:	mov    edx,0x20001
  403a10:	mov    ecx,eax
  403a12:	call   0x40c74a
  403a17:	lea    ecx,[ebp-0x208]
  403a1d:	call   0x4053d0
  403a22:	lea    ecx,[ebp-0xa00]
  403a28:	call   0x40db64
  403a2d:	jmp    0x403b8f
  403a32:	mov    ecx,0x829
  403a37:	call   0x40c92c
  403a3c:	push   0x2
  403a3e:	mov    esi,eax
  403a40:	call   0x411711
  403a45:	pop    ecx
  403a46:	mov    edx,esi
  403a48:	mov    ecx,eax
  403a4a:	call   0x40d474
  403a4f:	lea    ecx,[ebp-0x208]
  403a55:	call   0x4053d0
  403a5a:	lea    ecx,[ebp-0x9ec]
  403a60:	call   0x40e254
  403a65:	lea    ecx,[ebp-0xa00]
  403a6b:	call   0x40db64
  403a70:	jmp    0x403c7b
  403a75:	lea    eax,[ebp-0x408]
  403a7b:	test   eax,eax
  403a7d:	je     0x403b3e
  403a83:	push   eax
  403a84:	call   DWORD PTR ds:0x4130f0
  403a8a:	test   eax,eax
  403a8c:	je     0x403b3e
  403a92:	lea    eax,[ebp-0x208]
  403a98:	push   eax
  403a99:	push   0x0
  403a9b:	push   esi
  403a9c:	push   0x4011b4
  403aa1:	call   DWORD PTR ds:0x413028
  403aa7:	test   eax,eax
  403aa9:	je     0x403ac9
  403aab:	mov    ecx,0xe83
  403ab0:	call   0x40c92c
  403ab5:	push   edi
  403ab6:	mov    esi,eax
  403ab8:	call   0x411711
  403abd:	pop    ecx
  403abe:	mov    edx,esi
  403ac0:	mov    ecx,eax
  403ac2:	call   0x40d474
  403ac7:	jmp    0x403b3e
  403ac9:	mov    ecx,0xe81
  403ace:	call   0x40c92c
  403ad3:	push   edi
  403ad4:	mov    esi,eax
  403ad6:	call   0x411711
  403adb:	pop    ecx
  403adc:	mov    edx,esi
  403ade:	mov    ecx,eax
  403ae0:	call   0x40d474
  403ae5:	lea    ecx,[ebp-0xa00]
  403aeb:	call   0x40db64
  403af0:	lea    ecx,[ebp-0x208]
  403af6:	call   0x4053d0
  403afb:	lea    ecx,[ebp-0x9ec]
  403b01:	call   0x40e254
  403b06:	lea    ecx,[ebp-0xa14]
  403b0c:	call   0x40e254
  403b11:	cmp    DWORD PTR [ebp-0x9f0],0x0
  403b18:	je     0x403b22
  403b1a:	push   ecx
  403b1b:	mov    ecx,ebx
  403b1d:	call   0x40f1cf
  403b22:	lea    ecx,[ebp-0x9f4]
  403b28:	call   0x40db64
  403b2d:	lea    ecx,[ebp-0x9f8]
  403b33:	call   0x40db64
  403b38:	mov    ebx,DWORD PTR [ebp-0x9f4]
  403b3e:	lea    eax,[ebp-0x408]
  403b44:	mov    esi,0x4011e0
  403b49:	push   eax
  403b4a:	push   esi
  403b4b:	lea    ecx,[ebp-0x208]
  403b51:	call   0x4099f7
  403b56:	cmp    eax,edi
  403b58:	jne    0x403b9a
  403b5a:	push   0x2
  403b5c:	call   0x411711
  403b61:	pop    ecx
  403b62:	mov    edx,0x20001
  403b67:	mov    ecx,eax
  403b69:	call   0x40c74a
  403b6e:	lea    ecx,[ebp-0xa00]
  403b74:	call   0x40db64
  403b79:	lea    ecx,[ebp-0x208]
  403b7f:	call   0x4053d0
  403b84:	lea    ecx,[ebp-0x9ec]
  403b8a:	call   0x40e254
  403b8f:	lea    ecx,[ebp-0xa14]
  403b95:	jmp    0x403c76
  403b9a:	lea    eax,[ebp-0x408]
  403ba0:	test   eax,eax
  403ba2:	je     0x403be7
  403ba4:	push   eax
  403ba5:	call   DWORD PTR ds:0x4130f0
  403bab:	test   eax,eax
  403bad:	je     0x403be7
  403baf:	lea    eax,[ebp-0x208]
  403bb5:	push   eax
  403bb6:	push   0x0
  403bb8:	push   esi
  403bb9:	push   0x4011b4
  403bbe:	call   DWORD PTR ds:0x413028
  403bc4:	mov    ecx,0xe84
  403bc9:	test   eax,eax
  403bcb:	jne    0x403bd0
  403bcd:	add    ecx,0xfffffffe
  403bd0:	call   0x40c92c
  403bd5:	push   edi
  403bd6:	mov    esi,eax
  403bd8:	call   0x411711
  403bdd:	pop    ecx
  403bde:	mov    edx,esi
  403be0:	mov    ecx,eax
  403be2:	call   0x40d474
  403be7:	lea    ecx,[ebp-0x208]
  403bed:	call   0x4053d0
  403bf2:	lea    ecx,[ebp-0xa00]
  403bf8:	mov    esi,eax
  403bfa:	call   0x40db64
  403bff:	lea    ecx,[ebp-0x9ec]
  403c05:	call   0x40e254
  403c0a:	lea    ecx,[ebp-0xa14]
  403c10:	call   0x40e254
  403c15:	cmp    DWORD PTR [ebp-0x9f0],0x0
  403c1c:	je     0x403c26
  403c1e:	push   ecx
  403c1f:	mov    ecx,ebx
  403c21:	call   0x40f1cf
  403c26:	lea    ecx,[ebp-0x9f4]
  403c2c:	call   0x40db64
  403c31:	lea    ecx,[ebp-0x9f8]
  403c37:	call   0x40db64
  403c3c:	mov    eax,esi
  403c3e:	jmp    0x403ca4
  403c40:	mov    ecx,0x88
  403c45:	jmp    0x4038a4
  403c4a:	push   0x7d
  403c4c:	pop    ecx
  403c4d:	call   0x40c92c
  403c52:	push   0x2
  403c54:	mov    esi,eax
  403c56:	call   0x411711
  403c5b:	pop    ecx
  403c5c:	mov    edx,esi
  403c5e:	mov    ecx,eax
  403c60:	call   0x40d474
  403c65:	lea    ecx,[ebp-0x208]
  403c6b:	call   0x4053d0
  403c70:	lea    ecx,[ebp-0x9ec]
  403c76:	call   0x40e254
  403c7b:	cmp    DWORD PTR [ebp-0x9f0],0x0
  403c82:	je     0x403c8c
  403c84:	push   ecx
  403c85:	mov    ecx,ebx
  403c87:	call   0x40f1cf
  403c8c:	lea    ecx,[ebp-0x9f4]
  403c92:	call   0x40db64
  403c97:	lea    ecx,[ebp-0x9f8]
  403c9d:	call   0x40db64
  403ca2:	mov    eax,edi
  403ca4:	mov    ecx,DWORD PTR [ebp-0x4]
  403ca7:	pop    edi
  403ca8:	pop    esi
  403ca9:	xor    ecx,ebp
  403cab:	pop    ebx
  403cac:	call   0x411090
  403cb1:	mov    esp,ebp
  403cb3:	pop    ebp
  403cb4:	ret    
  403cb5:	int3   
  403cb6:	int3   
  403cb7:	int3   
  403cb8:	int3   
  403cb9:	int3   
  403cba:	mov    edi,edi
  403cbc:	push   ebp
  403cbd:	mov    ebp,esp
  403cbf:	mov    eax,0x2624
  403cc4:	call   0x411740
  403cc9:	mov    eax,ds:0x412004
  403cce:	xor    eax,ebp
  403cd0:	mov    DWORD PTR [ebp-0x4],eax
  403cd3:	push   ebx
  403cd4:	push   esi
  403cd5:	xor    ebx,ebx
  403cd7:	mov    DWORD PTR [ebp-0x2614],edx
  403cdd:	push   edi
  403cde:	mov    esi,0x1fa
  403ce3:	mov    DWORD PTR [ebp-0x25f8],ecx
  403ce9:	push   esi
  403cea:	lea    eax,[ebp-0xa04]
  403cf0:	mov    DWORD PTR [ebp-0x2620],ebx
  403cf6:	push   ebx
  403cf7:	push   eax
  403cf8:	mov    DWORD PTR [ebp-0x2624],ebx
  403cfe:	mov    DWORD PTR [ebp-0x261c],ebx
  403d04:	mov    DWORD PTR [ebp-0x25fc],ebx
  403d0a:	mov    DWORD PTR [ebp-0x25ec],ebx
  403d10:	mov    DWORD PTR [ebp-0x2600],ebx
  403d16:	mov    DWORD PTR [ebp-0x25f4],ebx
  403d1c:	mov    DWORD PTR [ebp-0xa08],ebx
  403d22:	call   0x411770
  403d27:	add    esp,0xc
  403d2a:	mov    DWORD PTR [ebp-0x1608],ebx
  403d30:	lea    eax,[ebp-0x1604]
  403d36:	push   0x1f8
  403d3b:	push   ebx
  403d3c:	push   eax
  403d3d:	call   0x411770
  403d42:	add    esp,0xc
  403d45:	mov    DWORD PTR [ebp-0x1208],ebx
  403d4b:	lea    eax,[ebp-0x1204]
  403d51:	push   esi
  403d52:	push   ebx
  403d53:	push   eax
  403d54:	call   0x411770
  403d59:	mov    edi,DWORD PTR ds:0x401204
  403d5f:	lea    eax,[ebp-0x800]
  403d65:	mov    esi,DWORD PTR ds:0x401208
  403d6b:	add    esp,0xc
  403d6e:	mov    DWORD PTR [ebp-0x808],edi
  403d74:	mov    DWORD PTR [ebp-0x804],esi
  403d7a:	push   0x1f6
  403d7f:	push   ebx
  403d80:	push   eax
  403d81:	call   0x411770
  403d86:	add    esp,0xc
  403d89:	mov    DWORD PTR [ebp-0xe08],edi
  403d8f:	lea    eax,[ebp-0xe00]
  403d95:	mov    DWORD PTR [ebp-0xe04],esi
  403d9b:	push   0x1f6
  403da0:	push   ebx
  403da1:	push   eax
  403da2:	call   0x411770
  403da7:	add    esp,0xc
  403daa:	mov    DWORD PTR [ebp-0x1008],edi
  403db0:	lea    eax,[ebp-0x1000]
  403db6:	mov    DWORD PTR [ebp-0x1004],esi
  403dbc:	push   0x1f6
  403dc1:	push   ebx
  403dc2:	push   eax
  403dc3:	call   0x411770
  403dc8:	add    esp,0xc
  403dcb:	mov    DWORD PTR [ebp-0x408],edi
  403dd1:	lea    eax,[ebp-0x400]
  403dd7:	mov    DWORD PTR [ebp-0x404],esi
  403ddd:	push   0x1f6
  403de2:	push   ebx
  403de3:	push   eax
  403de4:	call   0x411770
  403de9:	add    esp,0xc
  403dec:	mov    DWORD PTR [ebp-0x2618],ebx
  403df2:	lea    eax,[ebp-0x604]
  403df8:	mov    DWORD PTR [ebp-0x260c],ebx
  403dfe:	mov    DWORD PTR [ebp-0x2608],ebx
  403e04:	mov    DWORD PTR [ebp-0x608],ebx
  403e0a:	push   0x1f8
  403e0f:	push   ebx
  403e10:	push   eax
  403e11:	call   0x411770
  403e16:	add    esp,0xc
  403e19:	mov    DWORD PTR [ebp-0x208],ebx
  403e1f:	mov    esi,0x1fa
  403e24:	push   esi
  403e25:	lea    eax,[ebp-0x204]
  403e2b:	push   ebx
  403e2c:	push   eax
  403e2d:	call   0x411770
  403e32:	add    esp,0xc
  403e35:	mov    DWORD PTR [ebp-0xc08],ebx
  403e3b:	lea    eax,[ebp-0xc04]
  403e41:	push   esi
  403e42:	push   ebx
  403e43:	push   eax
  403e44:	call   0x411770
  403e49:	add    esp,0xc
  403e4c:	mov    DWORD PTR [ebp-0x2604],ebx
  403e52:	lea    eax,[ebp-0x1404]
  403e58:	mov    DWORD PTR [ebp-0x1408],ebx
  403e5e:	push   esi
  403e5f:	push   ebx
  403e60:	push   eax
  403e61:	call   0x411770
  403e66:	add    esp,0xc
  403e69:	lea    ecx,[esi-0x6a]
  403e6c:	lea    eax,[ebp-0x1798]
  403e72:	mov    BYTE PTR [eax],bl
  403e74:	inc    eax
  403e75:	sub    ecx,0x1
  403e78:	jne    0x403e72
  403e7a:	push   0xfe
  403e7f:	mov    edx,0x401134
  403e84:	lea    ecx,[ebp-0x608]
  403e8a:	call   0x40d369
  403e8f:	mov    esi,0x401054
  403e94:	lea    ecx,[ebp-0x1798]
  403e9a:	push   0x8
  403e9c:	mov    edx,esi
  403e9e:	call   0x40d306
  403ea3:	xor    ebx,ebx
  403ea5:	mov    DWORD PTR [ebp-0x1778],0x401068
  403eaf:	lea    eax,[ebp-0x2624]
  403eb5:	mov    DWORD PTR [ebp-0x1790],0xa
  403ebf:	inc    ebx
  403ec0:	mov    DWORD PTR [ebp-0x176c],eax
  403ec6:	push   0x8
  403ec8:	mov    edx,esi
  403eca:	mov    DWORD PTR [ebp-0x1780],ebx
  403ed0:	lea    ecx,[ebp-0x1748]
  403ed6:	call   0x40d306
  403edb:	mov    edi,0x12000
  403ee0:	mov    DWORD PTR [ebp-0x1728],0x401138
  403eea:	xor    esi,esi
  403eec:	mov    DWORD PTR [ebp-0x1738],edi
  403ef2:	push   0x8
  403ef4:	mov    edx,0x401054
  403ef9:	mov    DWORD PTR [ebp-0x1734],esi
  403eff:	lea    ecx,[ebp-0x16f8]
  403f05:	mov    DWORD PTR [ebp-0x1740],ebx
  403f0b:	mov    DWORD PTR [ebp-0x1730],ebx
  403f11:	call   0x40d306
  403f16:	mov    DWORD PTR [ebp-0x16e8],edi
  403f1c:	lea    ecx,[ebp-0x16a8]
  403f22:	mov    edi,0x401054
  403f27:	mov    DWORD PTR [ebp-0x16d8],0x40113c
  403f31:	push   0x8
  403f33:	mov    edx,edi
  403f35:	mov    DWORD PTR [ebp-0x16e4],esi
  403f3b:	mov    DWORD PTR [ebp-0x16f0],ebx
  403f41:	mov    DWORD PTR [ebp-0x16e0],ebx
  403f47:	call   0x40d306
  403f4c:	lea    eax,[ebp-0x608]
  403f52:	mov    DWORD PTR [ebp-0x1688],0x401140
  403f5c:	push   0x8
  403f5e:	mov    edx,edi
  403f60:	mov    DWORD PTR [ebp-0x1698],0x10
  403f6a:	lea    ecx,[ebp-0x1658]
  403f70:	mov    DWORD PTR [ebp-0x1694],esi
  403f76:	mov    DWORD PTR [ebp-0x16a0],ebx
  403f7c:	mov    DWORD PTR [ebp-0x1690],ebx
  403f82:	mov    DWORD PTR [ebp-0x167c],eax
  403f88:	mov    DWORD PTR [ebp-0x1678],0xfe
  403f92:	call   0x40d306
  403f97:	mov    edx,DWORD PTR [ebp-0x2614]
  403f9d:	lea    eax,[ebp-0x261c]
  403fa3:	push   ecx
  403fa4:	mov    ecx,DWORD PTR [ebp-0x25f8]
  403faa:	mov    DWORD PTR [ebp-0x162c],eax
  403fb0:	lea    eax,[ebp-0x1798]
  403fb6:	push   eax
  403fb7:	push   0x5
  403fb9:	push   esi
  403fba:	mov    DWORD PTR [ebp-0x1638],0x401084
  403fc4:	mov    DWORD PTR [ebp-0x1648],0x20000
  403fce:	mov    DWORD PTR [ebp-0x1644],esi
  403fd4:	mov    DWORD PTR [ebp-0x1650],0xa
  403fde:	mov    DWORD PTR [ebp-0x1640],ebx
  403fe4:	call   0x410a21
  403fe9:	test   eax,eax
  403feb:	jne    0x404006
  403fed:	push   0x2
  403fef:	call   0x411711
  403ff4:	pop    ecx
  403ff5:	mov    edx,0x20001
  403ffa:	mov    ecx,eax
  403ffc:	call   0x40c74a
  404001:	jmp    0x4049fb
  404006:	mov    eax,DWORD PTR [ebp-0x16cc]
  40400c:	mov    edi,DWORD PTR [ebp-0x171c]
  404012:	mov    DWORD PTR [ebp-0x2614],edi
  404018:	mov    DWORD PTR [ebp-0x260c],edi
  40401e:	mov    DWORD PTR [ebp-0x25f0],eax
  404024:	mov    DWORD PTR [ebp-0x2608],eax
  40402a:	test   eax,eax
  40402c:	jne    0x404048
  40402e:	mov    ecx,0x1fc
  404033:	call   0x40dc18
  404038:	mov    DWORD PTR [ebp-0x25f0],eax
  40403e:	mov    DWORD PTR [ebp-0x2608],eax
  404044:	test   eax,eax
  404046:	je     0x403fed
  404048:	push   ecx
  404049:	xor    edx,edx
  40404b:	mov    ecx,edi
  40404d:	call   0x40cf40
  404052:	push   ecx
  404053:	mov    ecx,DWORD PTR [ebp-0x25f0]
  404059:	xor    edx,edx
  40405b:	call   0x40cf40
  404060:	cmp    DWORD PTR [ebp-0x261c],ebx
  404066:	jne    0x404091
  404068:	cmp    DWORD PTR [ebp-0x25f8],0x3
  40406f:	jbe    0x404091
  404071:	push   0x2
  404073:	pop    ecx
  404074:	call   0x40c92c
  404079:	push   0x2
  40407b:	mov    esi,eax
  40407d:	call   0x411711
  404082:	pop    ecx
  404083:	mov    edx,esi
  404085:	mov    ecx,eax
  404087:	call   0x40d474
  40408c:	jmp    0x4049fb
  404091:	cmp    DWORD PTR [ebp-0x172c],esi
  404097:	je     0x4040c6
  404099:	mov    ecx,edi
  40409b:	call   0x40d408
  4040a0:	test   eax,eax
  4040a2:	jne    0x4040c6
  4040a4:	mov    ecx,0x30e
  4040a9:	call   0x40c92c
  4040ae:	push   0x2
  4040b0:	mov    esi,eax
  4040b2:	call   0x411711
  4040b7:	pop    ecx
  4040b8:	mov    edx,esi
  4040ba:	mov    ecx,eax
  4040bc:	call   0x40d474
  4040c1:	jmp    0x4049e5
  4040c6:	mov    eax,DWORD PTR [ebp-0x16dc]
  4040cc:	test   eax,eax
  4040ce:	je     0x4040ec
  4040d0:	mov    ecx,DWORD PTR [ebp-0x25f0]
  4040d6:	call   0x40d408
  4040db:	test   eax,eax
  4040dd:	jne    0x4040e6
  4040df:	mov    ecx,0x30f
  4040e4:	jmp    0x4040a9
  4040e6:	mov    eax,DWORD PTR [ebp-0x16dc]
  4040ec:	cmp    DWORD PTR [ebp-0x172c],esi
  4040f2:	jne    0x4040ff
  4040f4:	test   eax,eax
  4040f6:	je     0x404103
  4040f8:	mov    ecx,0x30b
  4040fd:	jmp    0x4040a9
  4040ff:	test   eax,eax
  404101:	jne    0x404112
  404103:	cmp    DWORD PTR [ebp-0x168c],esi
  404109:	je     0x404112
  40410b:	mov    ecx,0x30c
  404110:	jmp    0x4040a9
  404112:	mov    ecx,edi
  404114:	cmp    DWORD PTR [ebp-0x261c],esi
  40411a:	je     0x404152
  40411c:	call   0x40c1d9
  404121:	cmp    eax,ebx
  404123:	je     0x4049e5
  404129:	push   0x49
  40412b:	pop    edi
  40412c:	mov    ecx,edi
  40412e:	call   0x40c92c
  404133:	push   ebx
  404134:	mov    esi,eax
  404136:	call   0x411711
  40413b:	pop    ecx
  40413c:	mov    edx,esi
  40413e:	mov    ecx,eax
  404140:	call   0x40d474
  404145:	inc    edi
  404146:	cmp    edi,0x56
  404149:	jbe    0x40412c
  40414b:	xor    ebx,ebx
  40414d:	jmp    0x4049e5
  404152:	call   0x40eb0c
  404157:	test   eax,eax
  404159:	je     0x40418f
  40415b:	call   0x40ea45
  404160:	test   eax,eax
  404162:	jne    0x4041fb
  404168:	mov    ecx,0xe87
  40416d:	call   0x40c92c
  404172:	push   0x2
  404174:	mov    esi,eax
  404176:	call   0x411711
  40417b:	pop    ecx
  40417c:	mov    edx,esi
  40417e:	mov    ecx,eax
  404180:	call   0x40d474
  404185:	call   0x40c7e2
  40418a:	jmp    0x4049fb
  40418f:	push   0x2
  404191:	push   0x401150
  404196:	push   edi
  404197:	call   DWORD PTR ds:0x413124
  40419d:	test   eax,eax
  40419f:	jne    0x4041fb
  4041a1:	push   0x3
  4041a3:	push   0x401158
  4041a8:	push   edi
  4041a9:	call   DWORD PTR ds:0x413124
  4041af:	test   eax,eax
  4041b1:	je     0x4041fb
  4041b3:	push   0x401150
  4041b8:	push   edi
  4041b9:	call   DWORD PTR ds:0x4131b4
  4041bf:	mov    DWORD PTR [ebp-0x2610],eax
  4041c5:	pop    ecx
  4041c6:	pop    ecx
  4041c7:	test   eax,eax
  4041c9:	jne    0x4041ed
  4041cb:	push   esi
  4041cc:	push   ebx
  4041cd:	mov    edx,0x401150
  4041d2:	mov    ecx,edi
  4041d4:	call   0x40d41c
  4041d9:	test   eax,eax
  4041db:	je     0x4041e7
  4041dd:	mov    ecx,0xe7d
  4041e2:	jmp    0x4040a9
  4041e7:	mov    eax,DWORD PTR [ebp-0x2610]
  4041ed:	push   0xff
  4041f2:	mov    edx,eax
  4041f4:	mov    ecx,edi
  4041f6:	call   0x40d369
  4041fb:	mov    ecx,edi
  4041fd:	call   0x40eb0c
  404202:	test   eax,eax
  404204:	jne    0x40425f
  404206:	cmp    DWORD PTR [ebp-0x168c],esi
  40420c:	je     0x404234
  40420e:	push   esi
  40420f:	push   ebx
  404210:	mov    edx,0x401134
  404215:	lea    ecx,[ebp-0x608]
  40421b:	call   0x40d41c
  404220:	test   eax,eax
  404222:	jne    0x40422c
  404224:	mov    DWORD PTR [ebp-0x25fc],ebx
  40422a:	jmp    0x40425f
  40422c:	cmp    DWORD PTR [ebp-0x168c],esi
  404232:	jne    0x40425f
  404234:	cmp    DWORD PTR [ebp-0x172c],esi
  40423a:	jne    0x404244
  40423c:	cmp    DWORD PTR [ebp-0x16dc],esi
  404242:	je     0x40425f
  404244:	push   0xfe
  404249:	mov    edx,0x40104c
  40424e:	mov    DWORD PTR [ebp-0x25fc],ebx
  404254:	lea    ecx,[ebp-0x608]
  40425a:	call   0x40d369
  40425f:	mov    ecx,edi
  404261:	call   0x40eb0c
  404266:	cmp    eax,ebx
  404268:	jne    0x404298
  40426a:	mov    ecx,DWORD PTR [ebp-0x25f0]
  404270:	call   0x40d408
  404275:	test   eax,eax
  404277:	je     0x404298
  404279:	mov    ecx,0x313
  40427e:	call   0x40c92c
  404283:	push   0x2
  404285:	mov    esi,eax
  404287:	call   0x411711
  40428c:	pop    ecx
  40428d:	mov    edx,esi
  40428f:	mov    ecx,eax
  404291:	call   0x40d474
  404296:	xor    esi,esi
  404298:	push   ecx
  404299:	lea    edx,[ebp-0x25e8]
  40429f:	call   0x405519
  4042a4:	call   0x40e1e2
  4042a9:	mov    DWORD PTR [ebp-0x25ec],eax
  4042af:	call   0x40e1e2
  4042b4:	cmp    DWORD PTR [ebp-0x25ec],0x0
  4042bb:	mov    DWORD PTR [ebp-0x25f4],eax
  4042c1:	je     0x4049c4
  4042c7:	test   eax,eax
  4042c9:	je     0x4049c4
  4042cf:	mov    edx,DWORD PTR [ebp-0x25f0]
  4042d5:	lea    eax,[ebp-0x2604]
  4042db:	push   eax
  4042dc:	push   DWORD PTR [ebp-0x25fc]
  4042e2:	lea    eax,[ebp-0x208]
  4042e8:	mov    ecx,edi
  4042ea:	push   eax
  4042eb:	lea    eax,[ebp-0x608]
  4042f1:	push   eax
  4042f2:	call   0x404ec4
  4042f7:	test   eax,eax
  4042f9:	je     0x40499b
  4042ff:	lea    ecx,[ebp-0x208]
  404305:	call   0x404b94
  40430a:	lea    ecx,[ebp-0x208]
  404310:	mov    DWORD PTR [ebp-0x2600],eax
  404316:	call   0x404a13
  40431b:	mov    DWORD PTR [ebp-0x25f4],eax
  404321:	test   eax,eax
  404323:	je     0x404990
  404329:	mov    eax,DWORD PTR [ebp-0x2600]
  40432f:	test   eax,eax
  404331:	je     0x404990
  404337:	mov    ecx,eax
  404339:	call   0x40e5c6
  40433e:	mov    DWORD PTR [ebp-0x2610],eax
  404344:	mov    DWORD PTR [ebp-0x25fc],esi
  40434a:	test   eax,eax
  40434c:	je     0x404596
  404352:	mov    ecx,DWORD PTR [ebp-0x25ec]
  404358:	push   0x4
  40435a:	pop    edx
  40435b:	call   0x40e435
  404360:	push   0xfe
  404365:	mov    edx,0x401050
  40436a:	mov    DWORD PTR [ebp-0x25f0],eax
  404370:	lea    ecx,[ebp-0x1608]
  404376:	call   0x40d369
  40437b:	push   0xff
  404380:	mov    edx,0x401050
  404385:	lea    ecx,[ebp-0x808]
  40438b:	call   0x40d369
  404390:	push   0xff
  404395:	mov    edx,0x401050
  40439a:	lea    ecx,[ebp-0x408]
  4043a0:	call   0x40d369
  4043a5:	mov    edx,DWORD PTR [ebp-0x25fc]
  4043ab:	mov    ecx,DWORD PTR [ebp-0x2600]
  4043b1:	call   0x40e62c
  4043b6:	mov    ecx,eax
  4043b8:	mov    DWORD PTR [ebp-0x25f8],eax
  4043be:	call   0x40d408
  4043c3:	cmp    eax,0xfe
  4043c8:	ja     0x4046f4
  4043ce:	mov    eax,DWORD PTR [ebp-0x25f8]
  4043d4:	test   eax,eax
  4043d6:	je     0x404696
  4043dc:	push   0xff
  4043e1:	mov    edx,eax
  4043e3:	lea    ecx,[ebp-0xa08]
  4043e9:	call   0x40d369
  4043ee:	mov    edx,DWORD PTR [ebp-0x25f8]
  4043f4:	lea    ecx,[ebp-0x1208]
  4043fa:	push   0xff
  4043ff:	call   0x40d369
  404404:	lea    eax,[ebp-0xa08]
  40440a:	push   0x3d
  40440c:	push   eax
  40440d:	call   DWORD PTR ds:0x4131d4
  404413:	pop    ecx
  404414:	pop    ecx
  404415:	test   eax,eax
  404417:	je     0x40464d
  40441d:	xor    ecx,ecx
  40441f:	mov    WORD PTR [eax],cx
  404422:	lea    eax,[ebp-0xa08]
  404428:	test   eax,eax
  40442a:	je     0x40464d
  404430:	push   eax
  404431:	call   DWORD PTR ds:0x4130f0
  404437:	test   eax,eax
  404439:	je     0x40464d
  40443f:	push   0xff
  404444:	lea    edx,[ebp-0xa08]
  40444a:	lea    ecx,[ebp-0x1008]
  404450:	call   0x40d369
  404455:	lea    edx,[ebp-0x1408]
  40445b:	lea    ecx,[ebp-0x1208]
  404461:	call   0x40c219
  404466:	mov    DWORD PTR [ebp-0x25f8],eax
  40446c:	test   eax,eax
  40446e:	je     0x40464d
  404474:	lea    eax,[ebp-0x1208]
  40447a:	push   0x22
  40447c:	push   eax
  40447d:	call   DWORD PTR ds:0x4131c4
  404483:	pop    ecx
  404484:	pop    ecx
  404485:	push   0xff
  40448a:	lea    edx,[eax+0x2]
  40448d:	lea    ecx,[ebp-0x408]
  404493:	call   0x40d369
  404498:	push   ecx
  404499:	xor    edx,edx
  40449b:	lea    ecx,[ebp-0x408]
  4044a1:	call   0x40cf40
  4044a6:	mov    eax,DWORD PTR [ebp-0x25fc]
  4044ac:	lea    ecx,[ebp-0xe08]
  4044b2:	push   0xa
  4044b4:	inc    eax
  4044b5:	push   ecx
  4044b6:	push   eax
  4044b7:	mov    DWORD PTR [ebp-0x25fc],eax
  4044bd:	call   DWORD PTR ds:0x4131b0
  4044c3:	mov    edx,DWORD PTR [ebp-0x25f0]
  4044c9:	lea    eax,[ebp-0xe08]
  4044cf:	pop    ecx
  4044d0:	pop    ecx
  4044d1:	mov    ecx,DWORD PTR [ebp-0x25ec]
  4044d7:	push   eax
  4044d8:	push   esi
  4044d9:	call   0x40e9c9
  4044de:	mov    ecx,DWORD PTR [ebp-0x25f8]
  4044e4:	call   0x40d408
  4044e9:	test   eax,eax
  4044eb:	mov    eax,0x401204
  4044f0:	je     0x4044f8
  4044f2:	mov    eax,DWORD PTR [ebp-0x25f8]
  4044f8:	mov    edx,DWORD PTR [ebp-0x25f0]
  4044fe:	push   ecx
  4044ff:	mov    ecx,DWORD PTR [ebp-0x25ec]
  404505:	push   eax
  404506:	push   ebx
  404507:	call   0x40e9c9
  40450c:	mov    edx,DWORD PTR [ebp-0x25f0]
  404512:	lea    eax,[ebp-0x1008]
  404518:	push   ecx
  404519:	mov    ecx,DWORD PTR [ebp-0x25ec]
  40451f:	push   eax
  404520:	push   0x2
  404522:	call   0x40e9c9
  404527:	lea    eax,[ebp-0x408]
  40452d:	test   eax,eax
  40452f:	je     0x404554
  404531:	push   eax
  404532:	call   DWORD PTR ds:0x4130f0
  404538:	test   eax,eax
  40453a:	je     0x404554
  40453c:	push   0xff
  404541:	lea    edx,[ebp-0x408]
  404547:	lea    ecx,[ebp-0x808]
  40454d:	call   0x40d3ce
  404552:	jmp    0x404569
  404554:	push   0xff
  404559:	mov    edx,0x401204
  40455e:	lea    ecx,[ebp-0x808]
  404564:	call   0x40d369
  404569:	mov    edx,DWORD PTR [ebp-0x25f0]
  40456f:	lea    eax,[ebp-0x808]
  404575:	push   ecx
  404576:	mov    ecx,DWORD PTR [ebp-0x25ec]
  40457c:	push   eax
  40457d:	push   0x3
  40457f:	call   0x40e9c9
  404584:	mov    eax,DWORD PTR [ebp-0x2610]
  40458a:	cmp    DWORD PTR [ebp-0x25fc],eax
  404590:	jb     0x404352
  404596:	mov    ecx,DWORD PTR [ebp-0x25f4]
  40459c:	call   0x40e5c6
  4045a1:	mov    ecx,0xfe
  4045a6:	mov    DWORD PTR [ebp-0x25f0],eax
  4045ac:	cmp    eax,ecx
  4045ae:	jbe    0x4045b8
  4045b0:	mov    eax,ecx
  4045b2:	mov    DWORD PTR [ebp-0x25f0],ecx
  4045b8:	mov    DWORD PTR [ebp-0x25f8],ebx
  4045be:	mov    ecx,esi
  4045c0:	mov    DWORD PTR [ebp-0x25fc],ecx
  4045c6:	test   eax,eax
  4045c8:	je     0x404793
  4045ce:	mov    edx,ecx
  4045d0:	mov    ecx,DWORD PTR [ebp-0x25f4]
  4045d6:	call   0x40e62c
  4045db:	mov    ecx,0x1fc
  4045e0:	mov    DWORD PTR [ebp-0x2610],eax
  4045e6:	call   0x40dc18
  4045eb:	mov    ecx,DWORD PTR [ebp-0x25fc]
  4045f1:	mov    DWORD PTR [ebp+ecx*4-0x1b98],eax
  4045f8:	test   eax,eax
  4045fa:	je     0x404713
  404600:	push   eax
  404601:	push   DWORD PTR [ebp-0x2610]
  404607:	lea    ecx,[ebp-0x208]
  40460d:	call   0x4099f7
  404612:	cmp    eax,ebx
  404614:	je     0x404713
  40461a:	mov    ecx,DWORD PTR [ebp-0x2610]
  404620:	call   0x40d408
  404625:	cmp    eax,DWORD PTR [ebp-0x2618]
  40462b:	jbe    0x404633
  40462d:	mov    DWORD PTR [ebp-0x2618],eax
  404633:	mov    ecx,DWORD PTR [ebp-0x25fc]
  404639:	inc    ecx
  40463a:	mov    DWORD PTR [ebp-0x25fc],ecx
  404640:	cmp    ecx,DWORD PTR [ebp-0x25f0]
  404646:	jb     0x4045ce
  404648:	jmp    0x404719
  40464d:	mov    ecx,0x829
  404652:	call   0x40c92c
  404657:	push   0x2
  404659:	mov    esi,eax
  40465b:	call   0x411711
  404660:	pop    ecx
  404661:	mov    edx,esi
  404663:	mov    ecx,eax
  404665:	call   0x40d474
  40466a:	lea    ecx,[ebp-0x208]
  404670:	call   0x4053d0
  404675:	lea    ecx,[ebp-0x25f4]
  40467b:	call   0x40e254
  404680:	lea    ecx,[ebp-0x25ec]
  404686:	call   0x40e254
  40468b:	lea    ecx,[ebp-0x2600]
  404691:	jmp    0x4049ac
  404696:	push   0x8
  404698:	call   DWORD PTR ds:0x413030
  40469e:	push   0x7c
  4046a0:	pop    ecx
  4046a1:	call   0x40c92c
  4046a6:	push   0x2
  4046a8:	mov    esi,eax
  4046aa:	call   0x411711
  4046af:	pop    ecx
  4046b0:	mov    edx,esi
  4046b2:	mov    ecx,eax
  4046b4:	call   0x40d474
  4046b9:	push   0x2
  4046bb:	call   0x411711
  4046c0:	pop    ecx
  4046c1:	mov    ecx,eax
  4046c3:	call   0x40c71f
  4046c8:	lea    ecx,[ebp-0x208]
  4046ce:	call   0x4053d0
  4046d3:	lea    ecx,[ebp-0x25f4]
  4046d9:	call   0x40e254
  4046de:	lea    ecx,[ebp-0x2600]
  4046e4:	call   0x40e254
  4046e9:	lea    ecx,[ebp-0x25ec]
  4046ef:	jmp    0x4049ac
  4046f4:	mov    ecx,0xe80
  4046f9:	call   0x40c92c
  4046fe:	push   0x2
  404700:	mov    esi,eax
  404702:	call   0x411711
  404707:	pop    ecx
  404708:	mov    edx,esi
  40470a:	mov    ecx,eax
  40470c:	call   0x40d474
  404711:	jmp    0x4046c8
  404713:	mov    DWORD PTR [ebp-0x25f8],esi
  404719:	cmp    DWORD PTR [ebp-0x2618],0xfe
  404723:	sbb    eax,eax
  404725:	and    eax,DWORD PTR [ebp-0x25f8]
  40472b:	jne    0x404793
  40472d:	mov    edi,DWORD PTR [ebp-0x25f0]
  404733:	lea    esi,[ebp-0x1b98]
  404739:	mov    ecx,esi
  40473b:	call   0x40db64
  404740:	add    esi,0x4
  404743:	sub    edi,0x1
  404746:	jne    0x404739
  404748:	push   0x2
  40474a:	call   0x411711
  40474f:	pop    ecx
  404750:	mov    edx,0x20001
  404755:	mov    ecx,eax
  404757:	call   0x40c74a
  40475c:	lea    ecx,[ebp-0x208]
  404762:	call   0x4053d0
  404767:	lea    ecx,[ebp-0x25ec]
  40476d:	call   0x40e254
  404772:	lea    ecx,[ebp-0x25f4]
  404778:	call   0x40e254
  40477d:	lea    ecx,[ebp-0x2600]
  404783:	call   0x40e254
  404788:	mov    edi,DWORD PTR [ebp-0x2614]
  40478e:	jmp    0x4049b1
  404793:	push   ebx
  404794:	call   0x411711
  404799:	pop    ecx
  40479a:	mov    edx,0x40120c
  40479f:	mov    ecx,eax
  4047a1:	call   0x40d474
  4047a6:	mov    ecx,0xac
  4047ab:	call   0x40c92c
  4047b0:	push   ebx
  4047b1:	mov    esi,eax
  4047b3:	call   0x411711
  4047b8:	pop    ecx
  4047b9:	mov    edx,esi
  4047bb:	mov    ecx,eax
  4047bd:	call   0x40d474
  4047c2:	mov    ecx,0xad
  4047c7:	call   0x40c92c
  4047cc:	push   ebx
  4047cd:	mov    esi,eax
  4047cf:	call   0x411711
  4047d4:	pop    ecx
  4047d5:	mov    edx,esi
  4047d7:	mov    ecx,eax
  4047d9:	call   0x40d474
  4047de:	cmp    DWORD PTR [ebp-0x25f0],0x0
  4047e5:	jbe    0x40489f
  4047eb:	xor    esi,esi
  4047ed:	mov    ecx,DWORD PTR [ebp-0x25f4]
  4047f3:	mov    edx,esi
  4047f5:	call   0x40e62c
  4047fa:	mov    esi,eax
  4047fc:	mov    ecx,esi
  4047fe:	call   0x40d408
  404803:	mov    edi,DWORD PTR [ebp-0x2618]
  404809:	push   ebx
  40480a:	sub    edi,eax
  40480c:	call   0x411711
  404811:	pop    ecx
  404812:	mov    edx,esi
  404814:	mov    ecx,eax
  404816:	call   0x40d474
  40481b:	push   0xff
  404820:	mov    edx,0x401210
  404825:	lea    ecx,[ebp-0xc08]
  40482b:	call   0x40d369
  404830:	lea    eax,[edi+0x2]
  404833:	mov    edx,0x401218
  404838:	push   eax
  404839:	lea    ecx,[ebp-0xc08]
  40483f:	call   0x40d3ce
  404844:	push   ebx
  404845:	call   0x411711
  40484a:	pop    ecx
  40484b:	lea    edx,[ebp-0xc08]
  404851:	mov    ecx,eax
  404853:	call   0x40d474
  404858:	push   ebx
  404859:	call   0x411711
  40485e:	mov    esi,DWORD PTR [ebp-0x2620]
  404864:	pop    ecx
  404865:	mov    ecx,eax
  404867:	mov    edx,DWORD PTR [ebp+esi*4-0x1b98]
  40486e:	call   0x40d474
  404873:	push   ebx
  404874:	call   0x411711
  404879:	pop    ecx
  40487a:	mov    edx,0x40120c
  40487f:	mov    ecx,eax
  404881:	call   0x40d474
  404886:	inc    esi
  404887:	mov    DWORD PTR [ebp-0x2620],esi
  40488d:	cmp    esi,DWORD PTR [ebp-0x25f0]
  404893:	jb     0x4047ed
  404899:	mov    edi,DWORD PTR [ebp-0x2614]
  40489f:	push   ebx
  4048a0:	call   0x411711
  4048a5:	pop    ecx
  4048a6:	mov    edx,0x40120c
  4048ab:	mov    ecx,eax
  4048ad:	call   0x40d474
  4048b2:	mov    ecx,0xaa
  4048b7:	call   0x40c92c
  4048bc:	push   ebx
  4048bd:	mov    esi,eax
  4048bf:	call   0x411711
  4048c4:	pop    ecx
  4048c5:	mov    edx,esi
  4048c7:	mov    ecx,eax
  4048c9:	call   0x40d474
  4048ce:	mov    ecx,0xab
  4048d3:	call   0x40c92c
  4048d8:	push   ebx
  4048d9:	mov    esi,eax
  4048db:	call   0x411711
  4048e0:	pop    ecx
  4048e1:	mov    edx,esi
  4048e3:	mov    ecx,eax
  4048e5:	call   0x40d474
  4048ea:	push   ebx
  4048eb:	call   0x411711
  4048f0:	mov    esi,eax
  4048f2:	pop    ecx
  4048f3:	test   esi,esi
  4048f5:	je     0x404918
  4048f7:	lea    eax,[ebp-0x25e8]
  4048fd:	test   eax,eax
  4048ff:	je     0x404918
  404901:	push   DWORD PTR [ebp-0x25ec]
  404907:	push   ecx
  404908:	push   eax
  404909:	mov    ecx,esi
  40490b:	call   0x40f8af
  404910:	push   esi
  404911:	call   DWORD PTR ds:0x4131fc
  404917:	pop    ecx
  404918:	mov    ebx,DWORD PTR [ebp-0x25f0]
  40491e:	test   ebx,ebx
  404920:	je     0x404937
  404922:	lea    esi,[ebp-0x1b98]
  404928:	mov    ecx,esi
  40492a:	call   0x40db64
  40492f:	add    esi,0x4
  404932:	sub    ebx,0x1
  404935:	jne    0x404928
  404937:	lea    ecx,[ebp-0x25ec]
  40493d:	call   0x40e254
  404942:	lea    ecx,[ebp-0x25f4]
  404948:	call   0x40e254
  40494d:	lea    ecx,[ebp-0x2600]
  404953:	call   0x40e254
  404958:	lea    ecx,[ebp-0x208]
  40495e:	call   0x4053d0
  404963:	cmp    DWORD PTR [ebp-0x2604],0x0
  40496a:	mov    esi,eax
  40496c:	je     0x404976
  40496e:	push   ecx
  40496f:	mov    ecx,edi
  404971:	call   0x40f1cf
  404976:	lea    ecx,[ebp-0x260c]
  40497c:	call   0x40db64
  404981:	lea    ecx,[ebp-0x2608]
  404987:	call   0x40db64
  40498c:	mov    eax,esi
  40498e:	jmp    0x4049fd
  404990:	lea    ecx,[ebp-0x208]
  404996:	call   0x4053d0
  40499b:	lea    ecx,[ebp-0x25ec]
  4049a1:	call   0x40e254
  4049a6:	lea    ecx,[ebp-0x25f4]
  4049ac:	call   0x40e254
  4049b1:	cmp    DWORD PTR [ebp-0x2604],0x0
  4049b8:	je     0x4049e5
  4049ba:	push   ecx
  4049bb:	mov    ecx,edi
  4049bd:	call   0x40f1cf
  4049c2:	jmp    0x4049e5
  4049c4:	push   0x8
  4049c6:	call   DWORD PTR ds:0x413030
  4049cc:	call   0x40c619
  4049d1:	push   0x2
  4049d3:	call   0x411711
  4049d8:	pop    ecx
  4049d9:	mov    edx,0x20001
  4049de:	mov    ecx,eax
  4049e0:	call   0x40c74a
  4049e5:	lea    ecx,[ebp-0x260c]
  4049eb:	call   0x40db64
  4049f0:	lea    ecx,[ebp-0x2608]
  4049f6:	call   0x40db64
  4049fb:	mov    eax,ebx
  4049fd:	mov    ecx,DWORD PTR [ebp-0x4]
  404a00:	pop    edi
  404a01:	pop    esi
  404a02:	xor    ecx,ebp
  404a04:	pop    ebx
  404a05:	call   0x411090
  404a0a:	mov    esp,ebp
  404a0c:	pop    ebp
  404a0d:	ret    
  404a0e:	int3   
  404a0f:	int3   
  404a10:	int3   
  404a11:	int3   
  404a12:	int3   
  404a13:	mov    edi,edi
  404a15:	push   ebp
  404a16:	mov    ebp,esp
  404a18:	sub    esp,0x20
  404a1b:	push   ebx
  404a1c:	xor    eax,eax
  404a1e:	mov    DWORD PTR [ebp-0x20],ecx
  404a21:	mov    ebx,0x2710
  404a26:	mov    DWORD PTR [ebp-0x1c],eax
  404a29:	push   esi
  404a2a:	mov    ecx,ebx
  404a2c:	mov    DWORD PTR [ebp-0x14],eax
  404a2f:	mov    DWORD PTR [ebp-0xc],0x1388
  404a36:	call   0x40dc18
  404a3b:	mov    esi,eax
  404a3d:	mov    DWORD PTR [ebp-0x4],esi
  404a40:	test   esi,esi
  404a42:	je     0x404b6d
  404a48:	push   edi
  404a49:	mov    ecx,ebx
  404a4b:	call   0x40dc18
  404a50:	mov    edi,eax
  404a52:	mov    DWORD PTR [ebp-0x8],edi
  404a55:	test   edi,edi
  404a57:	jne    0x404a61
  404a59:	lea    ecx,[ebp-0x4]
  404a5c:	jmp    0x404b0e
  404a61:	mov    ecx,esi
  404a63:	call   0x40dd9e
  404a68:	mov    ecx,esi
  404a6a:	test   eax,eax
  404a6c:	je     0x404a78
  404a6e:	xor    edx,edx
  404a70:	mov    BYTE PTR [ecx],dl
  404a72:	inc    ecx
  404a73:	sub    eax,0x1
  404a76:	jne    0x404a70
  404a78:	mov    ecx,edi
  404a7a:	call   0x40dd9e
  404a7f:	xor    edx,edx
  404a81:	mov    ecx,edi
  404a83:	test   eax,eax
  404a85:	je     0x404a8f
  404a87:	mov    BYTE PTR [ecx],dl
  404a89:	inc    ecx
  404a8a:	sub    eax,0x1
  404a8d:	jne    0x404a87
  404a8f:	push   DWORD PTR [ebp-0x20]
  404a92:	push   DWORD PTR [ebp-0xc]
  404a95:	push   esi
  404a96:	push   0x40127c
  404a9b:	push   edx
  404a9c:	push   0x4011b4
  404aa1:	call   DWORD PTR ds:0x4130c8
  404aa7:	mov    edx,DWORD PTR [ebp-0xc]
  404aaa:	mov    DWORD PTR [ebp-0x18],eax
  404aad:	lea    ecx,[edx-0x2]
  404ab0:	cmp    eax,ecx
  404ab2:	jne    0x404af5
  404ab4:	add    edx,0x64
  404ab7:	lea    ecx,[ebp-0x4]
  404aba:	mov    DWORD PTR [ebp-0xc],edx
  404abd:	add    ebx,0xc8
  404ac3:	call   0x40db64
  404ac8:	mov    ecx,ebx
  404aca:	call   0x40dc18
  404acf:	mov    esi,eax
  404ad1:	mov    DWORD PTR [ebp-0x4],esi
  404ad4:	test   esi,esi
  404ad6:	je     0x404b03
  404ad8:	lea    ecx,[ebp-0x8]
  404adb:	call   0x40db64
  404ae0:	mov    ecx,ebx
  404ae2:	call   0x40dc18
  404ae7:	mov    edi,eax
  404ae9:	mov    DWORD PTR [ebp-0x8],edi
  404aec:	push   0x0
  404aee:	pop    edx
  404aef:	test   edi,edi
  404af1:	jne    0x404a8f
  404af3:	jmp    0x404b03
  404af5:	call   0x40e1e2
  404afa:	mov    ebx,eax
  404afc:	mov    DWORD PTR [ebp-0x1c],ebx
  404aff:	test   ebx,ebx
  404b01:	jne    0x404b15
  404b03:	lea    ecx,[ebp-0x4]
  404b06:	call   0x40db64
  404b0b:	lea    ecx,[ebp-0x8]
  404b0e:	call   0x40db64
  404b13:	jmp    0x404b8b
  404b15:	cmp    DWORD PTR [ebp-0x18],0x0
  404b19:	jbe    0x404b5a
  404b1b:	mov    ecx,DWORD PTR [ebp-0x14]
  404b1e:	mov    edx,ecx
  404b20:	mov    ax,WORD PTR [esi+ecx*2]
  404b24:	mov    WORD PTR [edi+edx*2],ax
  404b28:	xor    eax,eax
  404b2a:	inc    edx
  404b2b:	cmp    WORD PTR [esi+ecx*2],ax
  404b2f:	jne    0x404b51
  404b31:	xor    edx,edx
  404b33:	mov    DWORD PTR [ebp-0x10],eax
  404b36:	push   edx
  404b37:	mov    edx,edi
  404b39:	mov    ecx,ebx
  404b3b:	call   0x40e278
  404b40:	mov    ecx,edi
  404b42:	call   0x40d408
  404b47:	test   eax,eax
  404b49:	je     0x404b73
  404b4b:	mov    ecx,DWORD PTR [ebp-0x14]
  404b4e:	mov    edx,DWORD PTR [ebp-0x10]
  404b51:	inc    ecx
  404b52:	mov    DWORD PTR [ebp-0x14],ecx
  404b55:	cmp    ecx,DWORD PTR [ebp-0x18]
  404b58:	jb     0x404b20
  404b5a:	lea    ecx,[ebp-0x4]
  404b5d:	call   0x40db64
  404b62:	lea    ecx,[ebp-0x8]
  404b65:	call   0x40db64
  404b6a:	mov    eax,ebx
  404b6c:	pop    edi
  404b6d:	pop    esi
  404b6e:	pop    ebx
  404b6f:	mov    esp,ebp
  404b71:	pop    ebp
  404b72:	ret    
  404b73:	lea    ecx,[ebp-0x4]
  404b76:	call   0x40db64
  404b7b:	lea    ecx,[ebp-0x8]
  404b7e:	call   0x40db64
  404b83:	lea    ecx,[ebp-0x1c]
  404b86:	call   0x40e254
  404b8b:	xor    eax,eax
  404b8d:	jmp    0x404b6c
  404b8f:	int3   
  404b90:	int3   
  404b91:	int3   
  404b92:	int3   
  404b93:	int3   
  404b94:	mov    edi,edi
  404b96:	push   ebp
  404b97:	mov    ebp,esp
  404b99:	sub    esp,0x1c
  404b9c:	push   ebx
  404b9d:	push   esi
  404b9e:	push   edi
  404b9f:	xor    ebx,ebx
  404ba1:	mov    eax,ecx
  404ba3:	push   ebx
  404ba4:	push   0x1
  404ba6:	push   0x3
  404ba8:	push   ebx
  404ba9:	push   0x1
  404bab:	push   ebx
  404bac:	push   eax
  404bad:	mov    DWORD PTR [ebp-0x1c],eax
  404bb0:	mov    edi,0x1388
  404bb5:	call   DWORD PTR ds:0x413024
  404bbb:	mov    esi,eax
  404bbd:	cmp    esi,0xffffffff
  404bc0:	je     0x404bff
  404bc2:	push   ebx
  404bc3:	push   esi
  404bc4:	call   DWORD PTR ds:0x4130c4
  404bca:	push   esi
  404bcb:	mov    edi,eax
  404bcd:	call   DWORD PTR ds:0x413038
  404bd3:	cmp    edi,0x200000
  404bd9:	jb     0x404bff
  404bdb:	mov    ecx,0xe88
  404be0:	call   0x40c92c
  404be5:	push   0x1
  404be7:	mov    esi,eax
  404be9:	call   0x411711
  404bee:	pop    ecx
  404bef:	mov    edx,esi
  404bf1:	mov    ecx,eax
  404bf3:	call   0x40d474
  404bf8:	xor    eax,eax
  404bfa:	jmp    0x404d75
  404bff:	lea    eax,[edi+edi*1]
  404c02:	mov    DWORD PTR [ebp-0x14],ebx
  404c05:	mov    ecx,eax
  404c07:	mov    DWORD PTR [ebp-0xc],eax
  404c0a:	call   0x40dc18
  404c0f:	mov    esi,eax
  404c11:	mov    DWORD PTR [ebp-0x4],esi
  404c14:	test   esi,esi
  404c16:	jne    0x404c2e
  404c18:	push   0x2
  404c1a:	call   0x411711
  404c1f:	pop    ecx
  404c20:	mov    edx,0x20001
  404c25:	mov    ecx,eax
  404c27:	call   0x40c74a
  404c2c:	jmp    0x404bf8
  404c2e:	mov    ecx,DWORD PTR [ebp-0xc]
  404c31:	call   0x40dc18
  404c36:	mov    DWORD PTR [ebp-0x10],eax
  404c39:	mov    DWORD PTR [ebp-0x8],eax
  404c3c:	test   eax,eax
  404c3e:	jne    0x404c5e
  404c40:	push   0x2
  404c42:	call   0x411711
  404c47:	pop    ecx
  404c48:	mov    edx,0x20001
  404c4d:	mov    ecx,eax
  404c4f:	call   0x40c74a
  404c54:	lea    ecx,[ebp-0x4]
  404c57:	call   0x40db64
  404c5c:	jmp    0x404bf8
  404c5e:	mov    ecx,esi
  404c60:	call   0x40dd9e
  404c65:	mov    ecx,esi
  404c67:	test   eax,eax
  404c69:	je     0x404c73
  404c6b:	mov    BYTE PTR [ecx],bl
  404c6d:	inc    ecx
  404c6e:	sub    eax,0x1
  404c71:	jne    0x404c6b
  404c73:	push   DWORD PTR [ebp-0x1c]
  404c76:	push   edi
  404c77:	push   esi
  404c78:	push   0x401160
  404c7d:	call   DWORD PTR ds:0x41303c
  404c83:	lea    ecx,[edi-0x2]
  404c86:	mov    DWORD PTR [ebp-0x18],eax
  404c89:	cmp    eax,ecx
  404c8b:	jne    0x404cfd
  404c8d:	mov    esi,DWORD PTR [ebp-0xc]
  404c90:	lea    ecx,[ebp-0x4]
  404c93:	add    esi,0x800
  404c99:	add    edi,0x400
  404c9f:	mov    DWORD PTR [ebp-0xc],esi
  404ca2:	call   0x40db64
  404ca7:	lea    ecx,[ebp-0x8]
  404caa:	call   0x40db64
  404caf:	mov    ecx,esi
  404cb1:	call   0x40dc18
  404cb6:	mov    ecx,DWORD PTR [ebp-0xc]
  404cb9:	mov    esi,eax
  404cbb:	mov    DWORD PTR [ebp-0x4],esi
  404cbe:	call   0x40dc18
  404cc3:	mov    DWORD PTR [ebp-0x10],eax
  404cc6:	mov    DWORD PTR [ebp-0x8],eax
  404cc9:	test   esi,esi
  404ccb:	je     0x404cd9
  404ccd:	test   eax,eax
  404ccf:	je     0x404cd9
  404cd1:	cmp    edi,0xffff
  404cd7:	jne    0x404c73
  404cd9:	push   0x2
  404cdb:	call   0x411711
  404ce0:	pop    ecx
  404ce1:	mov    edx,0x20001
  404ce6:	mov    ecx,eax
  404ce8:	call   0x40c74a
  404ced:	lea    ecx,[ebp-0x4]
  404cf0:	call   0x40db64
  404cf5:	lea    ecx,[ebp-0x8]
  404cf8:	jmp    0x404c57
  404cfd:	mov    ecx,esi
  404cff:	call   0x40d408
  404d04:	xor    ecx,ecx
  404d06:	mov    WORD PTR [esi+eax*2],cx
  404d0a:	call   0x40e1e2
  404d0f:	mov    edx,eax
  404d11:	mov    DWORD PTR [ebp-0xc],edx
  404d14:	test   edx,edx
  404d16:	je     0x404cd9
  404d18:	cmp    DWORD PTR [ebp-0x18],ebx
  404d1b:	jbe    0x404d61
  404d1d:	mov    edi,DWORD PTR [ebp-0x10]
  404d20:	mov    ecx,ebx
  404d22:	mov    edx,ebx
  404d24:	mov    ax,WORD PTR [esi+ecx*2]
  404d28:	mov    WORD PTR [edi+edx*2],ax
  404d2c:	inc    edx
  404d2d:	cmp    WORD PTR [esi+ecx*2],bx
  404d31:	jne    0x404d55
  404d33:	mov    ecx,DWORD PTR [ebp-0xc]
  404d36:	xor    eax,eax
  404d38:	mov    WORD PTR [edi+edx*2+0x2],ax
  404d3d:	mov    edx,edi
  404d3f:	push   ebx
  404d40:	call   0x40e278
  404d45:	mov    ecx,edi
  404d47:	call   0x40d408
  404d4c:	test   eax,eax
  404d4e:	je     0x404d7c
  404d50:	mov    ecx,DWORD PTR [ebp-0x14]
  404d53:	mov    edx,ebx
  404d55:	inc    ecx
  404d56:	mov    DWORD PTR [ebp-0x14],ecx
  404d59:	cmp    ecx,DWORD PTR [ebp-0x18]
  404d5c:	jb     0x404d24
  404d5e:	mov    edx,DWORD PTR [ebp-0xc]
  404d61:	mov    ebx,edx
  404d63:	lea    ecx,[ebp-0x4]
  404d66:	call   0x40db64
  404d6b:	lea    ecx,[ebp-0x8]
  404d6e:	call   0x40db64
  404d73:	mov    eax,ebx
  404d75:	pop    edi
  404d76:	pop    esi
  404d77:	pop    ebx
  404d78:	mov    esp,ebp
  404d7a:	pop    ebp
  404d7b:	ret    
  404d7c:	push   0x8
  404d7e:	call   DWORD PTR ds:0x413030
  404d84:	push   0x7c
  404d86:	pop    ecx
  404d87:	call   0x40c92c
  404d8c:	push   0x2
  404d8e:	mov    esi,eax
  404d90:	call   0x411711
  404d95:	pop    ecx
  404d96:	mov    edx,esi
  404d98:	mov    ecx,eax
  404d9a:	call   0x40d474
  404d9f:	push   0x2
  404da1:	call   0x411711
  404da6:	pop    ecx
  404da7:	mov    ecx,eax
  404da9:	call   0x40c71f
  404dae:	jmp    0x404d63
  404db0:	int3   
  404db1:	int3   
  404db2:	int3   
  404db3:	int3   
  404db4:	int3   
  404db5:	mov    edi,edi
  404db7:	push   ebp
  404db8:	mov    ebp,esp
  404dba:	sub    esp,0x14
  404dbd:	push   ebx
  404dbe:	push   esi
  404dbf:	push   edi
  404dc0:	mov    edi,ecx
  404dc2:	mov    DWORD PTR [ebp-0x10],edx
  404dc5:	xor    ebx,ebx
  404dc7:	mov    DWORD PTR [ebp-0x14],edi
  404dca:	mov    DWORD PTR [ebp-0x4],ebx
  404dcd:	mov    DWORD PTR [ebp-0xc],0x20
  404dd4:	mov    DWORD PTR [ebp-0x8],ebx
  404dd7:	call   0x40d408
  404ddc:	lea    ecx,[eax*2+0x14]
  404de3:	call   0x40dc18
  404de8:	mov    esi,eax
  404dea:	test   esi,esi
  404dec:	jne    0x404e0a
  404dee:	push   0x2
  404df0:	call   0x411711
  404df5:	pop    ecx
  404df6:	mov    edx,0x20001
  404dfb:	mov    ecx,eax
  404dfd:	call   0x40c74a
  404e02:	xor    eax,eax
  404e04:	inc    eax
  404e05:	jmp    0x404eb8
  404e0a:	mov    ecx,esi
  404e0c:	call   0x40dd9e
  404e11:	mov    ecx,esi
  404e13:	test   eax,eax
  404e15:	je     0x404e1f
  404e17:	mov    BYTE PTR [ecx],bl
  404e19:	inc    ecx
  404e1a:	sub    eax,0x1
  404e1d:	jne    0x404e17
  404e1f:	mov    ecx,edi
  404e21:	call   0x40d408
  404e26:	push   0x2
  404e28:	mov    edx,0x40119c
  404e2d:	lea    ecx,[ebp-0xc]
  404e30:	lea    ebx,[eax+0xa]
  404e33:	call   0x40d369
  404e38:	lea    eax,[ebp-0xc]
  404e3b:	push   eax
  404e3c:	push   edi
  404e3d:	jmp    0x404e9d
  404e3f:	mov    edx,DWORD PTR [ebp-0x10]
  404e42:	mov    ecx,edi
  404e44:	push   0x0
  404e46:	push   0x1
  404e48:	call   0x40d41c
  404e4d:	test   eax,eax
  404e4f:	je     0x404e97
  404e51:	mov    eax,DWORD PTR [ebp-0x8]
  404e54:	test   eax,eax
  404e56:	je     0x404e71
  404e58:	mov    ecx,DWORD PTR [ebp-0x4]
  404e5b:	mov    eax,ebx
  404e5d:	sub    eax,ecx
  404e5f:	mov    edx,0x40119c
  404e64:	dec    ecx
  404e65:	push   eax
  404e66:	lea    ecx,[esi+ecx*2]
  404e69:	call   0x40d369
  404e6e:	mov    eax,DWORD PTR [ebp-0x8]
  404e71:	mov    ecx,DWORD PTR [ebp-0x4]
  404e74:	inc    eax
  404e75:	mov    DWORD PTR [ebp-0x8],eax
  404e78:	mov    edx,edi
  404e7a:	mov    eax,ebx
  404e7c:	sub    eax,ecx
  404e7e:	push   eax
  404e7f:	lea    ecx,[esi+ecx*2]
  404e82:	call   0x40d369
  404e87:	mov    ecx,edi
  404e89:	call   0x40d408
  404e8e:	mov    ecx,DWORD PTR [ebp-0x4]
  404e91:	inc    ecx
  404e92:	add    ecx,eax
  404e94:	mov    DWORD PTR [ebp-0x4],ecx
  404e97:	lea    eax,[ebp-0xc]
  404e9a:	push   eax
  404e9b:	push   0x0
  404e9d:	call   DWORD PTR ds:0x4131b4
  404ea3:	mov    edi,eax
  404ea5:	pop    ecx
  404ea6:	pop    ecx
  404ea7:	test   edi,edi
  404ea9:	jne    0x404e3f
  404eab:	mov    ecx,DWORD PTR [ebp-0x14]
  404eae:	mov    edx,esi
  404eb0:	push   ebx
  404eb1:	call   0x40d369
  404eb6:	xor    eax,eax
  404eb8:	pop    edi
  404eb9:	pop    esi
  404eba:	pop    ebx
  404ebb:	mov    esp,ebp
  404ebd:	pop    ebp
  404ebe:	ret    
  404ebf:	int3   
  404ec0:	int3   
  404ec1:	int3   
  404ec2:	int3   
  404ec3:	int3   
  404ec4:	mov    edi,edi
  404ec6:	push   ebp
  404ec7:	mov    ebp,esp
  404ec9:	sub    esp,0x424
  404ecf:	mov    eax,ds:0x412004
  404ed4:	xor    eax,ebp
  404ed6:	mov    DWORD PTR [ebp-0x4],eax
  404ed9:	mov    eax,DWORD PTR [ebp+0xc]
  404edc:	and    DWORD PTR [ebp-0x208],0x0
  404ee3:	push   ebx
  404ee4:	push   esi
  404ee5:	push   edi
  404ee6:	mov    edi,DWORD PTR [ebp+0x8]
  404ee9:	mov    esi,edx
  404eeb:	mov    DWORD PTR [ebp-0x424],eax
  404ef1:	mov    ebx,ecx
  404ef3:	mov    eax,DWORD PTR [ebp+0x14]
  404ef6:	push   0x1fa
  404efb:	mov    DWORD PTR [ebp-0x41c],eax
  404f01:	lea    eax,[ebp-0x204]
  404f07:	push   0x0
  404f09:	push   eax
  404f0a:	call   0x411770
  404f0f:	or     DWORD PTR [ebp-0x40c],0xffffffff
  404f16:	add    esp,0xc
  404f19:	or     DWORD PTR [ebp-0x414],0xffffffff
  404f20:	xor    eax,eax
  404f22:	mov    DWORD PTR [ebp-0x418],eax
  404f28:	mov    DWORD PTR [ebp-0x408],eax
  404f2e:	push   0x1f8
  404f33:	push   eax
  404f34:	lea    eax,[ebp-0x404]
  404f3a:	push   eax
  404f3b:	call   0x411770
  404f40:	mov    eax,DWORD PTR [ebp-0x41c]
  404f46:	add    esp,0xc
  404f49:	xor    edx,edx
  404f4b:	mov    DWORD PTR [ebp-0x410],0xfe
  404f55:	mov    DWORD PTR [ebp-0x420],edx
  404f5b:	mov    ecx,0x1fe
  404f60:	mov    DWORD PTR [eax],0x1
  404f66:	lea    eax,[ebp-0x208]
  404f6c:	mov    BYTE PTR [eax],dl
  404f6e:	inc    eax
  404f6f:	sub    ecx,0x1
  404f72:	jne    0x404f6c
  404f74:	push   edx
  404f75:	push   0x1
  404f77:	mov    edx,0x401050
  404f7c:	mov    ecx,ebx
  404f7e:	call   0x40d41c
  404f83:	test   eax,eax
  404f85:	je     0x40506a
  404f8b:	mov    ecx,esi
  404f8d:	call   0x40d408
  404f92:	test   eax,eax
  404f94:	je     0x404fa1
  404f96:	mov    ecx,esi
  404f98:	call   0x40dd9e
  404f9d:	shr    eax,1
  404f9f:	jmp    0x404fa6
  404fa1:	mov    eax,0x100
  404fa6:	push   DWORD PTR [ebp+0x10]
  404fa9:	mov    edx,esi
  404fab:	push   ecx
  404fac:	push   edi
  404fad:	push   eax
  404fae:	mov    ecx,ebx
  404fb0:	call   0x40f28f
  404fb5:	mov    esi,eax
  404fb7:	test   esi,esi
  404fb9:	jne    0x404fe2
  404fbb:	push   0x2
  404fbd:	call   0x411711
  404fc2:	pop    ecx
  404fc3:	mov    edx,0x20001
  404fc8:	mov    ecx,eax
  404fca:	call   0x40c74a
  404fcf:	mov    eax,0xfe
  404fd4:	mov    BYTE PTR [edi],0x0
  404fd7:	inc    edi
  404fd8:	sub    eax,0x1
  404fdb:	jne    0x404fd4
  404fdd:	jmp    0x405309
  404fe2:	call   DWORD PTR ds:0x41302c
  404fe8:	cmp    eax,0x4c3
  404fed:	je     0x404ff8
  404fef:	cmp    eax,0x50010001
  404ff4:	jne    0x405015
  404ff6:	jmp    0x40500c
  404ff8:	push   0x2
  404ffa:	call   0x411711
  404fff:	pop    ecx
  405000:	mov    edx,0x20004
  405005:	mov    ecx,eax
  405007:	call   0x40c74a
  40500c:	mov    eax,DWORD PTR [ebp-0x41c]
  405012:	and    DWORD PTR [eax],0x0
  405015:	mov    esi,0xfe
  40501a:	mov    eax,esi
  40501c:	mov    BYTE PTR [edi],0x0
  40501f:	inc    edi
  405020:	sub    eax,0x1
  405023:	jne    0x40501c
  405025:	mov    ecx,ebx
  405027:	call   0x40c1d9
  40502c:	cmp    eax,0x1
  40502f:	jne    0x405038
  405031:	xor    esi,esi
  405033:	jmp    0x405309
  405038:	lea    eax,[ebp-0x40c]
  40503e:	push   eax
  40503f:	push   0x80000002
  405044:	push   ebx
  405045:	call   DWORD PTR ds:0x413004
  40504b:	test   eax,eax
  40504d:	je     0x405093
  40504f:	call   0x40c619
  405054:	push   0x2
  405056:	call   0x411711
  40505b:	pop    ecx
  40505c:	mov    edx,0x20001
  405061:	mov    ecx,eax
  405063:	call   0x40c74a
  405068:	jmp    0x405031
  40506a:	mov    ecx,ebx
  40506c:	call   0x40c1d9
  405071:	cmp    eax,0x1
  405074:	je     0x405031
  405076:	lea    eax,[ebp-0x40c]
  40507c:	push   eax
  40507d:	push   0x80000002
  405082:	push   0x0
  405084:	call   DWORD PTR ds:0x413004
  40508a:	test   eax,eax
  40508c:	jne    0x40504f
  40508e:	mov    esi,0xfe
  405093:	lea    eax,[ebp-0x414]
  405099:	push   eax
  40509a:	push   0x1
  40509c:	push   0x0
  40509e:	push   0x401290
  4050a3:	push   DWORD PTR [ebp-0x40c]
  4050a9:	call   DWORD PTR ds:0x413008
  4050af:	test   eax,eax
  4050b1:	je     0x4050bd
  4050b3:	push   0x0
  4050b5:	call   DWORD PTR ds:0x413030
  4050bb:	jmp    0x40504f
  4050bd:	mov    eax,DWORD PTR [ebp-0x410]
  4050c3:	lea    ecx,[eax+eax*1]
  4050c6:	call   0x40dc18
  4050cb:	mov    edi,eax
  4050cd:	mov    DWORD PTR [ebp-0x418],edi
  4050d3:	test   edi,edi
  4050d5:	jne    0x4050e9
  4050d7:	push   0x8
  4050d9:	call   DWORD PTR ds:0x413030
  4050df:	call   0x40c619
  4050e4:	jmp    0x405031
  4050e9:	mov    ecx,edi
  4050eb:	call   0x40dd9e
  4050f0:	mov    ecx,edi
  4050f2:	test   eax,eax
  4050f4:	je     0x4050ff
  4050f6:	mov    BYTE PTR [ecx],0x0
  4050f9:	inc    ecx
  4050fa:	sub    eax,0x1
  4050fd:	jne    0x4050f6
  4050ff:	lea    eax,[ebp-0x410]
  405105:	push   eax
  405106:	push   edi
  405107:	lea    eax,[ebp-0x420]
  40510d:	push   eax
  40510e:	push   0x0
  405110:	push   0x4012f0
  405115:	push   DWORD PTR [ebp-0x414]
  40511b:	call   DWORD PTR ds:0x413000
  405121:	cmp    eax,0xea
  405126:	jne    0x40514d
  405128:	lea    ecx,[ebp-0x418]
  40512e:	call   0x40db64
  405133:	mov    eax,DWORD PTR [ebp-0x410]
  405139:	lea    ecx,[eax+eax*1]
  40513c:	call   0x40dc18
  405141:	mov    edi,eax
  405143:	mov    DWORD PTR [ebp-0x418],edi
  405149:	test   edi,edi
  40514b:	je     0x4050d7
  40514d:	mov    ecx,edi
  40514f:	call   0x40dd9e
  405154:	mov    ecx,edi
  405156:	test   eax,eax
  405158:	je     0x405163
  40515a:	mov    BYTE PTR [ecx],0x0
  40515d:	inc    ecx
  40515e:	sub    eax,0x1
  405161:	jne    0x40515a
  405163:	lea    eax,[ebp-0x410]
  405169:	push   eax
  40516a:	push   edi
  40516b:	lea    eax,[ebp-0x420]
  405171:	push   eax
  405172:	push   0x0
  405174:	push   0x4012f0
  405179:	push   DWORD PTR [ebp-0x414]
  40517f:	call   DWORD PTR ds:0x413000
  405185:	test   eax,eax
  405187:	je     0x4051b9
  405189:	push   eax
  40518a:	call   DWORD PTR ds:0x413030
  405190:	call   0x40c619
  405195:	mov    ecx,0x8a
  40519a:	call   0x40c92c
  40519f:	push   0x2
  4051a1:	mov    esi,eax
  4051a3:	call   0x411711
  4051a8:	pop    ecx
  4051a9:	mov    edx,esi
  4051ab:	mov    ecx,eax
  4051ad:	call   0x40d474
  4051b2:	xor    esi,esi
  4051b4:	jmp    0x4052fa
  4051b9:	mov    eax,DWORD PTR [ebp-0x410]
  4051bf:	xor    ecx,ecx
  4051c1:	push   esi
  4051c2:	mov    edx,edi
  4051c4:	mov    WORD PTR [edi+eax*2-0x2],cx
  4051c9:	lea    ecx,[ebp-0x408]
  4051cf:	call   0x40d369
  4051d4:	lea    eax,[ebp-0x408]
  4051da:	push   eax
  4051db:	call   DWORD PTR ds:0x413138
  4051e1:	push   0x0
  4051e3:	push   0x1
  4051e5:	mov    edx,0x401050
  4051ea:	mov    ecx,ebx
  4051ec:	call   0x40d41c
  4051f1:	test   eax,eax
  4051f3:	je     0x40521f
  4051f5:	push   0x24
  4051f7:	pop    eax
  4051f8:	push   edi
  4051f9:	mov    WORD PTR [edi+0x2],ax
  4051fd:	xor    eax,eax
  4051ff:	push   ebx
  405200:	push   0x401300
  405205:	mov    WORD PTR [edi+0x4],ax
  405209:	lea    eax,[ebp-0x208]
  40520f:	push   0xff
  405214:	push   eax
  405215:	call   0x401b75
  40521a:	add    esp,0x14
  40521d:	jmp    0x405239
  40521f:	push   edi
  405220:	push   0x401324
  405225:	lea    eax,[ebp-0x208]
  40522b:	push   0xff
  405230:	push   eax
  405231:	call   0x401b75
  405236:	add    esp,0x10
  405239:	lea    eax,[ebp-0x208]
  40523f:	push   0x40133c
  405244:	push   eax
  405245:	call   DWORD PTR ds:0x4131c8
  40524b:	pop    ecx
  40524c:	pop    ecx
  40524d:	test   eax,eax
  40524f:	je     0x405195
  405255:	push   eax
  405256:	call   DWORD PTR ds:0x4131ac
  40525c:	pop    ecx
  40525d:	lea    eax,[ebp-0x208]
  405263:	push   eax
  405264:	call   DWORD PTR ds:0x413094
  40526a:	mov    ds:0x41248c,eax
  40526f:	cmp    eax,0xffffffff
  405272:	jne    0x405292
  405274:	call   0x40c619
  405279:	push   0x2
  40527b:	call   0x411711
  405280:	pop    ecx
  405281:	mov    edx,0x20001
  405286:	mov    ecx,eax
  405288:	call   0x40c74a
  40528d:	jmp    0x4051b2
  405292:	lea    eax,[ebp-0x208]
  405298:	push   0x180
  40529d:	push   eax
  40529e:	call   DWORD PTR ds:0x4131cc
  4052a4:	pop    ecx
  4052a5:	pop    ecx
  4052a6:	cmp    eax,0xffffffff
  4052a9:	jne    0x4052d7
  4052ab:	lea    eax,[ebp-0x408]
  4052b1:	mov    ecx,0x8b
  4052b6:	push   eax
  4052b7:	call   0x40c92c
  4052bc:	push   eax
  4052bd:	push   0x1
  4052bf:	push   0x1
  4052c1:	push   0x2
  4052c3:	call   0x411711
  4052c8:	pop    ecx
  4052c9:	push   eax
  4052ca:	call   0x40d6cd
  4052cf:	add    esp,0x14
  4052d2:	jmp    0x4051b2
  4052d7:	test   eax,eax
  4052d9:	je     0x4052e5
  4052db:	mov    ecx,0x8b
  4052e0:	jmp    0x40519a
  4052e5:	mov    ecx,DWORD PTR [ebp-0x424]
  4052eb:	lea    edx,[ebp-0x208]
  4052f1:	push   esi
  4052f2:	call   0x40d369
  4052f7:	xor    esi,esi
  4052f9:	inc    esi
  4052fa:	test   edi,edi
  4052fc:	je     0x405309
  4052fe:	lea    ecx,[ebp-0x418]
  405304:	call   0x40db64
  405309:	cmp    DWORD PTR [ebp-0x414],0xffffffff
  405310:	je     0x40531e
  405312:	push   DWORD PTR [ebp-0x414]
  405318:	call   DWORD PTR ds:0x41300c
  40531e:	cmp    DWORD PTR [ebp-0x40c],0xffffffff
  405325:	je     0x405333
  405327:	push   DWORD PTR [ebp-0x40c]
  40532d:	call   DWORD PTR ds:0x41300c
  405333:	mov    ecx,DWORD PTR [ebp-0x4]
  405336:	mov    eax,esi
  405338:	pop    edi
  405339:	pop    esi
  40533a:	xor    ecx,ebp
  40533c:	pop    ebx
  40533d:	call   0x411090
  405342:	mov    esp,ebp
  405344:	pop    ebp
  405345:	ret    0x10
  405348:	int3   
  405349:	int3   
  40534a:	int3   
  40534b:	int3   
  40534c:	int3   
  40534d:	mov    edi,edi
  40534f:	push   ebp
  405350:	mov    ebp,esp
  405352:	sub    esp,0x204
  405358:	mov    eax,ds:0x412004
  40535d:	xor    eax,ebp
  40535f:	mov    DWORD PTR [ebp-0x4],eax
  405362:	and    DWORD PTR [ebp-0x204],0x0
  405369:	lea    eax,[ebp-0x200]
  40536f:	push   edi
  405370:	push   0x1fa
  405375:	push   0x0
  405377:	push   eax
  405378:	call   0x411770
  40537d:	add    esp,0xc
  405380:	lea    ecx,[ebp-0x204]
  405386:	mov    edi,0x24e
  40538b:	call   0x40c1d9
  405390:	cmp    eax,0x1
  405393:	je     0x4053bc
  405395:	push   esi
  405396:	mov    ecx,edi
  405398:	call   0x40c92c
  40539d:	push   0x1
  40539f:	mov    esi,eax
  4053a1:	call   0x411711
  4053a6:	pop    ecx
  4053a7:	mov    edx,esi
  4053a9:	mov    ecx,eax
  4053ab:	call   0x40d474
  4053b0:	inc    edi
  4053b1:	cmp    edi,0x274
  4053b7:	jbe    0x405396
  4053b9:	xor    eax,eax
  4053bb:	pop    esi
  4053bc:	mov    ecx,DWORD PTR [ebp-0x4]
  4053bf:	xor    ecx,ebp
  4053c1:	pop    edi
  4053c2:	call   0x411090
  4053c7:	mov    esp,ebp
  4053c9:	pop    ebp
  4053ca:	ret    
  4053cb:	int3   
  4053cc:	int3   
  4053cd:	int3   
  4053ce:	int3   
  4053cf:	int3   
  4053d0:	test   ecx,ecx
  4053d2:	jne    0x4053d7
  4053d4:	xor    eax,eax
  4053d6:	ret    
  4053d7:	mov    eax,ds:0x41248c
  4053dc:	test   al,0x1
  4053de:	je     0x4053e5
  4053e0:	or     eax,0x21
  4053e3:	jmp    0x4053e8
  4053e5:	or     eax,0x20
  4053e8:	push   eax
  4053e9:	push   ecx
  4053ea:	mov    ds:0x41248c,eax
  4053ef:	call   DWORD PTR ds:0x413040
  4053f5:	test   eax,eax
  4053f7:	jne    0x40541b
  4053f9:	push   esi
  4053fa:	mov    ecx,0x8d
  4053ff:	call   0x40c92c
  405404:	push   0x2
  405406:	mov    esi,eax
  405408:	call   0x411711
  40540d:	pop    ecx
  40540e:	mov    edx,esi
  405410:	mov    ecx,eax
  405412:	call   0x40d474
  405417:	xor    eax,eax
  405419:	pop    esi
  40541a:	ret    
  40541b:	xor    eax,eax
  40541d:	inc    eax
  40541e:	ret    
  40541f:	int3   
  405420:	int3   
  405421:	int3   
  405422:	int3   
  405423:	int3   
  405424:	mov    edi,edi
  405426:	push   ebp
  405427:	mov    ebp,esp
  405429:	sub    esp,0x10
  40542c:	push   ebx
  40542d:	xor    ebx,ebx
  40542f:	mov    DWORD PTR [ebp-0x10],edx
  405432:	mov    eax,ecx
  405434:	mov    edx,ebx
  405436:	mov    DWORD PTR [ebp-0xc],eax
  405439:	mov    DWORD PTR [ebp-0x4],edx
  40543c:	test   eax,eax
  40543e:	jne    0x405446
  405440:	inc    eax
  405441:	jmp    0x40550f
  405446:	push   esi
  405447:	push   edi
  405448:	call   0x40e5c6
  40544d:	mov    edi,eax
  40544f:	mov    esi,ebx
  405451:	test   edi,edi
  405453:	je     0x405480
  405455:	mov    ebx,ecx
  405457:	mov    edx,esi
  405459:	mov    ecx,ebx
  40545b:	call   0x40e62c
  405460:	test   eax,eax
  405462:	je     0x405476
  405464:	mov    ecx,eax
  405466:	call   0x40d408
  40546b:	mov    edx,DWORD PTR [ebp-0x4]
  40546e:	inc    edx
  40546f:	add    edx,eax
  405471:	mov    DWORD PTR [ebp-0x4],edx
  405474:	jmp    0x405479
  405476:	mov    edx,DWORD PTR [ebp-0x4]
  405479:	inc    esi
  40547a:	cmp    esi,edi
  40547c:	jb     0x405457
  40547e:	xor    ebx,ebx
  405480:	lea    ecx,[edx*2+0x2]
  405487:	call   0x40dc18
  40548c:	mov    esi,DWORD PTR [ebp-0x10]
  40548f:	mov    DWORD PTR [esi],eax
  405491:	test   eax,eax
  405493:	jne    0x4054ae
  405495:	push   0x2
  405497:	call   0x411711
  40549c:	pop    ecx
  40549d:	mov    edx,0x20001
  4054a2:	mov    ecx,eax
  4054a4:	call   0x40c74a
  4054a9:	xor    eax,eax
  4054ab:	inc    eax
  4054ac:	jmp    0x40550d
  4054ae:	mov    ecx,eax
  4054b0:	call   0x40dd9e
  4054b5:	mov    ecx,DWORD PTR [esi]
  4054b7:	test   eax,eax
  4054b9:	je     0x4054c3
  4054bb:	mov    BYTE PTR [ecx],bl
  4054bd:	inc    ecx
  4054be:	sub    eax,0x1
  4054c1:	jne    0x4054bb
  4054c3:	mov    DWORD PTR [ebp-0x8],ebx
  4054c6:	test   edi,edi
  4054c8:	je     0x40550b
  4054ca:	mov    esi,DWORD PTR [ebp-0xc]
  4054cd:	mov    edx,ebx
  4054cf:	mov    ecx,esi
  4054d1:	call   0x40e62c
  4054d6:	mov    DWORD PTR [ebp-0xc],eax
  4054d9:	test   eax,eax
  4054db:	je     0x405506
  4054dd:	mov    edx,DWORD PTR [ebp-0x8]
  4054e0:	mov    ecx,DWORD PTR [ebp-0x4]
  4054e3:	sub    ecx,edx
  4054e5:	push   ecx
  4054e6:	mov    ecx,DWORD PTR [ebp-0x10]
  4054e9:	mov    ecx,DWORD PTR [ecx]
  4054eb:	lea    ecx,[ecx+edx*2]
  4054ee:	mov    edx,eax
  4054f0:	call   0x40d369
  4054f5:	mov    ecx,DWORD PTR [ebp-0xc]
  4054f8:	call   0x40d408
  4054fd:	mov    ecx,DWORD PTR [ebp-0x8]
  405500:	inc    ecx
  405501:	add    ecx,eax
  405503:	mov    DWORD PTR [ebp-0x8],ecx
  405506:	inc    ebx
  405507:	cmp    ebx,edi
  405509:	jb     0x4054cd
  40550b:	xor    eax,eax
  40550d:	pop    edi
  40550e:	pop    esi
  40550f:	pop    ebx
  405510:	mov    esp,ebp
  405512:	pop    ebp
  405513:	ret    
  405514:	int3   
  405515:	int3   
  405516:	int3   
  405517:	int3   
  405518:	int3   
  405519:	mov    edi,edi
  40551b:	push   ebx
  40551c:	push   esi
  40551d:	push   edi
  40551e:	mov    ecx,0xa4
  405523:	mov    esi,edx
  405525:	call   0x40c92c
  40552a:	mov    ecx,eax
  40552c:	call   0x40cb3a
  405531:	and    DWORD PTR [esi+0x28c],0x0
  405538:	lea    ecx,[esi+0x208]
  40553e:	and    DWORD PTR [esi+0x290],0x0
  405545:	mov    ebx,0x401050
  40554a:	push   0x41
  40554c:	mov    edx,ebx
  40554e:	mov    DWORD PTR [esi+0x200],eax
  405554:	mov    DWORD PTR [esi+0x204],0x10
  40555e:	call   0x40d369
  405563:	mov    edi,0x100
  405568:	push   edi
  405569:	lea    ecx,[edi-0x5f]
  40556c:	call   0x40c92c
  405571:	mov    edx,eax
  405573:	mov    ecx,esi
  405575:	call   0x40d369
  40557a:	lea    ecx,[edi-0x5e]
  40557d:	call   0x40c92c
  405582:	mov    ecx,eax
  405584:	call   0x40cb3a
  405589:	and    DWORD PTR [esi+0x520],0x0
  405590:	lea    ecx,[esi+0x49c]
  405596:	and    DWORD PTR [esi+0x524],0x0
  40559d:	mov    edx,ebx
  40559f:	push   0x41
  4055a1:	mov    DWORD PTR [esi+0x494],eax
  4055a7:	mov    DWORD PTR [esi+0x498],0x10
  4055b1:	call   0x40d369
  4055b6:	push   edi
  4055b7:	lea    ecx,[edi-0x60]
  4055ba:	call   0x40c92c
  4055bf:	lea    ecx,[esi+0x294]
  4055c5:	mov    edx,eax
  4055c7:	call   0x40d369
  4055cc:	lea    ecx,[edi-0x57]
  4055cf:	call   0x40c92c
  4055d4:	mov    ecx,eax
  4055d6:	call   0x40cb3a
  4055db:	and    DWORD PTR [esi+0x7b4],0x0
  4055e2:	lea    ecx,[esi+0x730]
  4055e8:	and    DWORD PTR [esi+0x7b8],0x0
  4055ef:	mov    edx,ebx
  4055f1:	push   0x41
  4055f3:	mov    DWORD PTR [esi+0x728],eax
  4055f9:	mov    DWORD PTR [esi+0x72c],0x10
  405603:	call   0x40d369
  405608:	push   edi
  405609:	lea    ecx,[edi-0x58]
  40560c:	call   0x40c92c
  405611:	lea    ecx,[esi+0x528]
  405617:	mov    edx,eax
  405619:	call   0x40d369
  40561e:	lea    ecx,[edi-0x5d]
  405621:	call   0x40c92c
  405626:	mov    ecx,eax
  405628:	call   0x40cb3a
  40562d:	and    DWORD PTR [esi+0xa48],0x0
  405634:	lea    ecx,[esi+0x9c4]
  40563a:	and    DWORD PTR [esi+0xa4c],0x0
  405641:	mov    edx,ebx
  405643:	push   0x41
  405645:	mov    DWORD PTR [esi+0x9bc],eax
  40564b:	mov    DWORD PTR [esi+0x9c0],0x10
  405655:	call   0x40d369
  40565a:	push   edi
  40565b:	lea    ecx,[edi-0x61]
  40565e:	call   0x40c92c
  405663:	lea    ecx,[esi+0x7bc]
  405669:	mov    edx,eax
  40566b:	call   0x40d369
  405670:	pop    edi
  405671:	pop    esi
  405672:	pop    ebx
  405673:	ret    0x4
  405676:	int3   
  405677:	int3   
  405678:	int3   
  405679:	int3   
  40567a:	int3   
  40567b:	mov    edi,edi
  40567d:	push   ebp
  40567e:	mov    ebp,esp
  405680:	sub    esp,0xac4
  405686:	mov    eax,ds:0x412004
  40568b:	xor    eax,ebp
  40568d:	mov    DWORD PTR [ebp-0x4],eax
  405690:	push   ebx
  405691:	push   esi
  405692:	xor    ebx,ebx
  405694:	mov    DWORD PTR [ebp-0x8c0],edx
  40569a:	push   edi
  40569b:	mov    edi,0x1f8
  4056a0:	mov    DWORD PTR [ebp-0x8b4],ebx
  4056a6:	push   edi
  4056a7:	lea    eax,[ebp-0x604]
  4056ad:	mov    DWORD PTR [ebp-0x8ac],ebx
  4056b3:	mov    esi,ecx
  4056b5:	mov    DWORD PTR [ebp-0x8b0],ebx
  4056bb:	push   ebx
  4056bc:	push   eax
  4056bd:	mov    DWORD PTR [ebp-0x8a8],esi
  4056c3:	mov    DWORD PTR [ebp-0x8bc],ebx
  4056c9:	mov    DWORD PTR [ebp-0x8a0],ebx
  4056cf:	mov    DWORD PTR [ebp-0x89c],ebx
  4056d5:	mov    DWORD PTR [ebp-0x894],ebx
  4056db:	mov    DWORD PTR [ebp-0x88c],ebx
  4056e1:	mov    DWORD PTR [ebp-0x608],ebx
  4056e7:	call   0x411770
  4056ec:	add    esp,0xc
  4056ef:	mov    DWORD PTR [ebp-0x208],ebx
  4056f5:	lea    eax,[ebp-0x204]
  4056fb:	push   0x1fa
  405700:	push   ebx
  405701:	push   eax
  405702:	call   0x411770
  405707:	add    esp,0xc
  40570a:	mov    DWORD PTR [ebp-0x408],ebx
  405710:	lea    eax,[ebp-0x404]
  405716:	push   edi
  405717:	push   ebx
  405718:	push   eax
  405719:	call   0x411770
  40571e:	add    esp,0xc
  405721:	mov    DWORD PTR [ebp-0x8a4],ebx
  405727:	lea    eax,[ebp-0xabc]
  40572d:	mov    DWORD PTR [ebp-0x890],ebx
  405733:	mov    DWORD PTR [ebp-0x8b8],ebx
  405739:	mov    DWORD PTR [ebp-0xac0],ebx
  40573f:	push   0x1fa
  405744:	push   ebx
  405745:	push   eax
  405746:	call   0x411770
  40574b:	add    esp,0xc
  40574e:	lea    eax,[ebp-0x888]
  405754:	mov    ecx,0x280
  405759:	mov    BYTE PTR [eax],bl
  40575b:	inc    eax
  40575c:	sub    ecx,0x1
  40575f:	jne    0x405759
  405761:	push   0xfe
  405766:	mov    edx,0x401134
  40576b:	lea    ecx,[ebp-0x608]
  405771:	call   0x40d369
  405776:	push   0x8
  405778:	mov    edx,0x401054
  40577d:	lea    ecx,[ebp-0x888]
  405783:	call   0x40d306
  405788:	xor    edi,edi
  40578a:	mov    DWORD PTR [ebp-0x868],0x40108c
  405794:	lea    eax,[ebp-0x8bc]
  40579a:	mov    DWORD PTR [ebp-0x880],0xa
  4057a4:	inc    edi
  4057a5:	mov    DWORD PTR [ebp-0x85c],eax
  4057ab:	push   0x8
  4057ad:	mov    edx,0x401054
  4057b2:	mov    DWORD PTR [ebp-0x870],edi
  4057b8:	lea    ecx,[ebp-0x838]
  4057be:	call   0x40d306
  4057c3:	push   0x8
  4057c5:	mov    edx,0x401054
  4057ca:	mov    DWORD PTR [ebp-0x818],0x401138
  4057d4:	lea    ecx,[ebp-0x7e8]
  4057da:	mov    DWORD PTR [ebp-0x828],0x12000
  4057e4:	mov    DWORD PTR [ebp-0x824],ebx
  4057ea:	mov    DWORD PTR [ebp-0x830],edi
  4057f0:	mov    DWORD PTR [ebp-0x820],edi
  4057f6:	call   0x40d306
  4057fb:	push   0x8
  4057fd:	mov    edx,0x401054
  405802:	mov    DWORD PTR [ebp-0x7c8],0x40113c
  40580c:	lea    ecx,[ebp-0x798]
  405812:	mov    DWORD PTR [ebp-0x7d8],0x12000
  40581c:	mov    DWORD PTR [ebp-0x7d4],ebx
  405822:	mov    DWORD PTR [ebp-0x7e0],edi
  405828:	mov    DWORD PTR [ebp-0x7d0],edi
  40582e:	call   0x40d306
  405833:	lea    eax,[ebp-0x608]
  405839:	mov    DWORD PTR [ebp-0x778],0x401140
  405843:	push   0x8
  405845:	mov    edx,0x401054
  40584a:	mov    DWORD PTR [ebp-0x788],0x10
  405854:	lea    ecx,[ebp-0x748]
  40585a:	mov    DWORD PTR [ebp-0x784],ebx
  405860:	mov    DWORD PTR [ebp-0x790],edi
  405866:	mov    DWORD PTR [ebp-0x780],edi
  40586c:	mov    DWORD PTR [ebp-0x76c],eax
  405872:	mov    DWORD PTR [ebp-0x768],0xfe
  40587c:	call   0x40d306
  405881:	lea    eax,[ebp-0x8ac]
  405887:	mov    DWORD PTR [ebp-0x728],0x401084
  405891:	push   0x8
  405893:	mov    edx,0x401054
  405898:	mov    DWORD PTR [ebp-0x738],0x20000
  4058a2:	lea    ecx,[ebp-0x6f8]
  4058a8:	mov    DWORD PTR [ebp-0x734],ebx
  4058ae:	mov    DWORD PTR [ebp-0x740],0xa
  4058b8:	mov    DWORD PTR [ebp-0x730],edi
  4058be:	mov    DWORD PTR [ebp-0x71c],eax
  4058c4:	call   0x40d306
  4058c9:	lea    eax,[ebp-0x8a0]
  4058cf:	mov    DWORD PTR [ebp-0x6d8],0x401148
  4058d9:	push   0x8
  4058db:	mov    edx,0x401054
  4058e0:	mov    DWORD PTR [ebp-0x6e8],0x82000
  4058ea:	lea    ecx,[ebp-0x6a8]
  4058f0:	mov    DWORD PTR [ebp-0x6e4],ebx
  4058f6:	mov    DWORD PTR [ebp-0x6f0],0x3
  405900:	mov    DWORD PTR [ebp-0x6e0],edi
  405906:	mov    DWORD PTR [ebp-0x6cc],eax
  40590c:	call   0x40d306
  405911:	lea    eax,[ebp-0x408]
  405917:	mov    DWORD PTR [ebp-0x688],0x40104c
  405921:	mov    DWORD PTR [ebp-0x698],0xc0000
  40592b:	mov    edx,0x401054
  405930:	mov    DWORD PTR [ebp-0x694],ebx
  405936:	mov    DWORD PTR [ebp-0x6a0],edi
  40593c:	mov    DWORD PTR [ebp-0x690],edi
  405942:	mov    DWORD PTR [ebp-0x67c],eax
  405948:	mov    DWORD PTR [ebp-0x678],0xfe
  405952:	push   0x8
  405954:	lea    ecx,[ebp-0x658]
  40595a:	call   0x40d306
  40595f:	mov    edx,DWORD PTR [ebp-0x8c0]
  405965:	lea    eax,[ebp-0x8b8]
  40596b:	push   ecx
  40596c:	mov    DWORD PTR [ebp-0x62c],eax
  405972:	mov    ecx,esi
  405974:	lea    eax,[ebp-0x888]
  40597a:	mov    DWORD PTR [ebp-0x638],0x401340
  405984:	push   eax
  405985:	push   0x8
  405987:	push   ebx
  405988:	mov    DWORD PTR [ebp-0x650],0xa
  405992:	mov    DWORD PTR [ebp-0x640],edi
  405998:	call   0x410a21
  40599d:	test   eax,eax
  40599f:	jne    0x4059ba
  4059a1:	push   0x2
  4059a3:	call   0x411711
  4059a8:	pop    ecx
  4059a9:	mov    edx,0x20001
  4059ae:	mov    ecx,eax
  4059b0:	call   0x40c74a
  4059b5:	jmp    0x405fc5
  4059ba:	mov    esi,DWORD PTR [ebp-0x7bc]
  4059c0:	mov    ebx,DWORD PTR [ebp-0x80c]
  4059c6:	mov    DWORD PTR [ebp-0x894],ebx
  4059cc:	mov    DWORD PTR [ebp-0x89c],esi
  4059d2:	mov    DWORD PTR [ebp-0x88c],esi
  4059d8:	test   esi,esi
  4059da:	jne    0x4059f8
  4059dc:	mov    ecx,0x1fc
  4059e1:	call   0x40dc18
  4059e6:	mov    esi,eax
  4059e8:	mov    DWORD PTR [ebp-0x89c],esi
  4059ee:	mov    DWORD PTR [ebp-0x88c],esi
  4059f4:	test   esi,esi
  4059f6:	je     0x4059a1
  4059f8:	push   ecx
  4059f9:	xor    edx,edx
  4059fb:	mov    ecx,ebx
  4059fd:	call   0x40cf40
  405a02:	push   ecx
  405a03:	xor    edx,edx
  405a05:	mov    ecx,esi
  405a07:	call   0x40cf40
  405a0c:	push   ecx
  405a0d:	xor    edx,edx
  405a0f:	lea    ecx,[ebp-0x408]
  405a15:	call   0x40cf40
  405a1a:	cmp    DWORD PTR [ebp-0x8ac],edi
  405a20:	jne    0x405a4d
  405a22:	cmp    DWORD PTR [ebp-0x8a8],0x3
  405a29:	jbe    0x405a4d
  405a2b:	mov    ecx,0xb3
  405a30:	call   0x40c92c
  405a35:	push   0x2
  405a37:	mov    esi,eax
  405a39:	call   0x411711
  405a3e:	pop    ecx
  405a3f:	mov    edx,esi
  405a41:	mov    ecx,eax
  405a43:	call   0x40d474
  405a48:	jmp    0x405fc5
  405a4d:	cmp    DWORD PTR [ebp-0x81c],0x0
  405a54:	je     0x405a83
  405a56:	mov    ecx,ebx
  405a58:	call   0x40d408
  405a5d:	test   eax,eax
  405a5f:	jne    0x405a83
  405a61:	mov    ecx,0x30e
  405a66:	call   0x40c92c
  405a6b:	push   0x2
  405a6d:	mov    esi,eax
  405a6f:	call   0x411711
  405a74:	pop    ecx
  405a75:	mov    edx,esi
  405a77:	mov    ecx,eax
  405a79:	call   0x40d474
  405a7e:	jmp    0x405faf
  405a83:	mov    eax,DWORD PTR [ebp-0x7cc]
  405a89:	test   eax,eax
  405a8b:	je     0x405aa5
  405a8d:	mov    ecx,esi
  405a8f:	call   0x40d408
  405a94:	test   eax,eax
  405a96:	jne    0x405a9f
  405a98:	mov    ecx,0x30f
  405a9d:	jmp    0x405a66
  405a9f:	mov    eax,DWORD PTR [ebp-0x7cc]
  405aa5:	cmp    DWORD PTR [ebp-0x81c],0x0
  405aac:	jne    0x405ab9
  405aae:	test   eax,eax
  405ab0:	je     0x405abd
  405ab2:	mov    ecx,0x30b
  405ab7:	jmp    0x405a66
  405ab9:	test   eax,eax
  405abb:	jne    0x405acd
  405abd:	cmp    DWORD PTR [ebp-0x77c],0x0
  405ac4:	je     0x405acd
  405ac6:	mov    ecx,0x30c
  405acb:	jmp    0x405a66
  405acd:	cmp    DWORD PTR [ebp-0x8ac],0x0
  405ad4:	mov    ecx,ebx
  405ad6:	je     0x405b15
  405ad8:	call   0x40c1d9
  405add:	cmp    eax,edi
  405adf:	je     0x405faf
  405ae5:	mov    ebx,0xb4
  405aea:	mov    ecx,ebx
  405aec:	call   0x40c92c
  405af1:	push   edi
  405af2:	mov    esi,eax
  405af4:	call   0x411711
  405af9:	pop    ecx
  405afa:	mov    edx,esi
  405afc:	mov    ecx,eax
  405afe:	call   0x40d474
  405b03:	inc    ebx
  405b04:	cmp    ebx,0xca
  405b0a:	jbe    0x405aea
  405b0c:	xor    ecx,ecx
  405b0e:	mov    edi,ecx
  405b10:	jmp    0x405faf
  405b15:	call   0x40eb0c
  405b1a:	test   eax,eax
  405b1c:	je     0x405b4e
  405b1e:	call   0x40ea45
  405b23:	test   eax,eax
  405b25:	jne    0x405b4e
  405b27:	mov    ecx,0xe87
  405b2c:	call   0x40c92c
  405b31:	push   0x2
  405b33:	mov    esi,eax
  405b35:	call   0x411711
  405b3a:	pop    ecx
  405b3b:	mov    edx,esi
  405b3d:	mov    ecx,eax
  405b3f:	call   0x40d474
  405b44:	call   0x40c7e2
  405b49:	jmp    0x405fc5
  405b4e:	push   0x2
  405b50:	push   0x401150
  405b55:	push   ebx
  405b56:	call   DWORD PTR ds:0x413124
  405b5c:	test   eax,eax
  405b5e:	jne    0x405bbd
  405b60:	push   0x3
  405b62:	push   0x401158
  405b67:	push   ebx
  405b68:	call   DWORD PTR ds:0x413124
  405b6e:	test   eax,eax
  405b70:	je     0x405bbd
  405b72:	push   0x401150
  405b77:	push   ebx
  405b78:	call   DWORD PTR ds:0x4131b4
  405b7e:	mov    DWORD PTR [ebp-0x8a8],eax
  405b84:	pop    ecx
  405b85:	pop    ecx
  405b86:	test   eax,eax
  405b88:	jne    0x405ba6
  405b8a:	push   eax
  405b8b:	push   edi
  405b8c:	mov    edx,0x401150
  405b91:	mov    ecx,ebx
  405b93:	call   0x40d41c
  405b98:	test   eax,eax
  405b9a:	je     0x405ba6
  405b9c:	mov    ecx,0xe7d
  405ba1:	jmp    0x405a66
  405ba6:	mov    ecx,ebx
  405ba8:	call   0x40dd9e
  405bad:	mov    edx,DWORD PTR [ebp-0x8a8]
  405bb3:	mov    ecx,ebx
  405bb5:	shr    eax,1
  405bb7:	push   eax
  405bb8:	call   0x40d369
  405bbd:	mov    ecx,ebx
  405bbf:	call   0x40eb0c
  405bc4:	test   eax,eax
  405bc6:	jne    0x405c24
  405bc8:	cmp    DWORD PTR [ebp-0x77c],eax
  405bce:	je     0x405bf7
  405bd0:	push   eax
  405bd1:	push   edi
  405bd2:	mov    edx,0x401134
  405bd7:	lea    ecx,[ebp-0x608]
  405bdd:	call   0x40d41c
  405be2:	test   eax,eax
  405be4:	jne    0x405bee
  405be6:	mov    DWORD PTR [ebp-0x8b0],edi
  405bec:	jmp    0x405c24
  405bee:	cmp    DWORD PTR [ebp-0x77c],0x0
  405bf5:	jne    0x405c24
  405bf7:	cmp    DWORD PTR [ebp-0x81c],0x0
  405bfe:	jne    0x405c09
  405c00:	cmp    DWORD PTR [ebp-0x7cc],0x0
  405c07:	je     0x405c24
  405c09:	push   0xfe
  405c0e:	mov    edx,0x40104c
  405c13:	mov    DWORD PTR [ebp-0x8b0],edi
  405c19:	lea    ecx,[ebp-0x608]
  405c1f:	call   0x40d369
  405c24:	mov    ecx,ebx
  405c26:	call   0x40eb0c
  405c2b:	cmp    eax,edi
  405c2d:	jne    0x405c5d
  405c2f:	mov    ecx,esi
  405c31:	call   0x40d408
  405c36:	test   eax,eax
  405c38:	je     0x405c5d
  405c3a:	mov    ecx,0x313
  405c3f:	call   0x40c92c
  405c44:	push   0x2
  405c46:	mov    esi,eax
  405c48:	call   0x411711
  405c4d:	pop    ecx
  405c4e:	mov    edx,esi
  405c50:	mov    ecx,eax
  405c52:	call   0x40d474
  405c57:	mov    esi,DWORD PTR [ebp-0x89c]
  405c5d:	lea    eax,[ebp-0x890]
  405c63:	mov    edx,esi
  405c65:	push   eax
  405c66:	push   DWORD PTR [ebp-0x8b0]
  405c6c:	lea    eax,[ebp-0x208]
  405c72:	mov    ecx,ebx
  405c74:	push   eax
  405c75:	lea    eax,[ebp-0x608]
  405c7b:	push   eax
  405c7c:	call   0x404ec4
  405c81:	test   eax,eax
  405c83:	je     0x405f9e
  405c89:	lea    ecx,[ebp-0x208]
  405c8f:	call   0x404b94
  405c94:	mov    ecx,eax
  405c96:	mov    DWORD PTR [ebp-0x898],ecx
  405c9c:	test   ecx,ecx
  405c9e:	jne    0x405cb0
  405ca0:	lea    ecx,[ebp-0x208]
  405ca6:	call   0x4053d0
  405cab:	jmp    0x405f9e
  405cb0:	mov    edx,DWORD PTR [ebp-0x8a0]
  405cb6:	test   edx,edx
  405cb8:	je     0x405f6d
  405cbe:	call   0x40e5c6
  405cc3:	cmp    edx,eax
  405cc5:	ja     0x405f6d
  405ccb:	dec    edx
  405ccc:	call   0x40e62c
  405cd1:	mov    esi,eax
  405cd3:	lea    eax,[ebp-0x408]
  405cd9:	mov    DWORD PTR [ebp-0x8a8],esi
  405cdf:	test   eax,eax
  405ce1:	je     0x405cf0
  405ce3:	push   eax
  405ce4:	call   DWORD PTR ds:0x4130f0
  405cea:	mov    DWORD PTR [ebp-0x8b4],eax
  405cf0:	mov    ecx,esi
  405cf2:	call   0x40d408
  405cf7:	add    eax,DWORD PTR [ebp-0x8b4]
  405cfd:	lea    ecx,[eax*2+0x14]
  405d04:	call   0x40dc18
  405d09:	mov    esi,eax
  405d0b:	mov    DWORD PTR [ebp-0x89c],esi
  405d11:	test   esi,esi
  405d13:	jne    0x405d2e
  405d15:	push   0x2
  405d17:	call   0x411711
  405d1c:	pop    ecx
  405d1d:	mov    edx,0x20001
  405d22:	mov    ecx,eax
  405d24:	call   0x40c74a
  405d29:	jmp    0x405f88
  405d2e:	mov    ecx,esi
  405d30:	call   0x40dd9e
  405d35:	mov    edx,DWORD PTR [ebp-0x8a8]
  405d3b:	mov    ecx,esi
  405d3d:	shr    eax,1
  405d3f:	push   eax
  405d40:	call   0x40d369
  405d45:	cmp    DWORD PTR [ebp-0x8b8],0x0
  405d4c:	jne    0x405dc8
  405d4e:	push   0x22
  405d50:	push   esi
  405d51:	call   DWORD PTR ds:0x4131c4
  405d57:	pop    ecx
  405d58:	pop    ecx
  405d59:	test   eax,eax
  405d5b:	jne    0x405dc2
  405d5d:	mov    ecx,0x829
  405d62:	call   0x40c92c
  405d67:	push   0x2
  405d69:	mov    esi,eax
  405d6b:	call   0x411711
  405d70:	pop    ecx
  405d71:	mov    edx,esi
  405d73:	mov    ecx,eax
  405d75:	call   0x40d474
  405d7a:	lea    ecx,[ebp-0x208]
  405d80:	call   0x4053d0
  405d85:	lea    ecx,[ebp-0x898]
  405d8b:	call   0x40e254
  405d90:	cmp    DWORD PTR [ebp-0x890],0x0
  405d97:	je     0x405da1
  405d99:	push   ecx
  405d9a:	mov    ecx,ebx
  405d9c:	call   0x40f1cf
  405da1:	lea    ecx,[ebp-0x894]
  405da7:	call   0x40db64
  405dac:	lea    ecx,[ebp-0x88c]
  405db2:	call   0x40db64
  405db7:	lea    ecx,[ebp-0x89c]
  405dbd:	jmp    0x405fc0
  405dc2:	xor    ecx,ecx
  405dc4:	mov    WORD PTR [eax+0x2],cx
  405dc8:	lea    eax,[ebp-0x408]
  405dce:	push   eax
  405dcf:	call   DWORD PTR ds:0x41313c
  405dd5:	mov    ecx,esi
  405dd7:	call   0x40dd9e
  405ddc:	shr    eax,1
  405dde:	mov    edx,0x40119c
  405de3:	push   eax
  405de4:	mov    ecx,esi
  405de6:	call   0x40d3ce
  405deb:	mov    ecx,esi
  405ded:	call   0x40dd9e
  405df2:	shr    eax,1
  405df4:	lea    edx,[ebp-0x408]
  405dfa:	push   eax
  405dfb:	mov    ecx,esi
  405dfd:	call   0x40d3ce
  405e02:	mov    ecx,esi
  405e04:	call   0x40d408
  405e09:	mov    ecx,0xfe
  405e0e:	cmp    eax,ecx
  405e10:	jbe    0x405e36
  405e12:	push   ecx
  405e13:	mov    ecx,0xc12
  405e18:	call   0x40c92c
  405e1d:	push   eax
  405e1e:	push   edi
  405e1f:	push   edi
  405e20:	push   0x2
  405e22:	call   0x411711
  405e27:	pop    ecx
  405e28:	push   eax
  405e29:	call   0x40d6cd
  405e2e:	add    esp,0x14
  405e31:	jmp    0x405d7a
  405e36:	mov    edx,DWORD PTR [ebp-0x8a0]
  405e3c:	mov    ecx,DWORD PTR [ebp-0x898]
  405e42:	lea    edx,[edx-0x1]
  405e45:	call   0x40e56f
  405e4a:	mov    edx,DWORD PTR [ebp-0x8a0]
  405e50:	mov    ecx,DWORD PTR [ebp-0x898]
  405e56:	push   0xff
  405e5b:	push   esi
  405e5c:	lea    edx,[edx-0x1]
  405e5f:	call   0x40e4f5
  405e64:	lea    ecx,[ebp-0x89c]
  405e6a:	call   0x40db64
  405e6f:	mov    ecx,DWORD PTR [ebp-0x898]
  405e75:	lea    edx,[ebp-0x8a4]
  405e7b:	call   0x405424
  405e80:	cmp    eax,edi
  405e82:	jne    0x405e9f
  405e84:	lea    ecx,[ebp-0x898]
  405e8a:	call   0x40e254
  405e8f:	lea    ecx,[ebp-0x8a4]
  405e95:	call   0x40db64
  405e9a:	jmp    0x405ca0
  405e9f:	lea    eax,[ebp-0x208]
  405ea5:	push   eax
  405ea6:	push   DWORD PTR [ebp-0x8a4]
  405eac:	push   0x401160
  405eb1:	call   DWORD PTR ds:0x413020
  405eb7:	test   eax,eax
  405eb9:	je     0x405f2d
  405ebb:	push   DWORD PTR [ebp-0x8a0]
  405ec1:	mov    ecx,0xcb
  405ec6:	call   0x40c92c
  405ecb:	push   eax
  405ecc:	push   edi
  405ecd:	push   edi
  405ece:	push   edi
  405ecf:	call   0x411711
  405ed4:	pop    ecx
  405ed5:	push   eax
  405ed6:	call   0x40d6cd
  405edb:	add    esp,0x14
  405ede:	lea    ecx,[ebp-0x208]
  405ee4:	call   0x4053d0
  405ee9:	lea    ecx,[ebp-0x898]
  405eef:	call   0x40e254
  405ef4:	lea    ecx,[ebp-0x8a4]
  405efa:	call   0x40db64
  405eff:	cmp    DWORD PTR [ebp-0x890],0x0
  405f06:	je     0x405f10
  405f08:	push   ecx
  405f09:	mov    ecx,ebx
  405f0b:	call   0x40f1cf
  405f10:	lea    ecx,[ebp-0x894]
  405f16:	call   0x40db64
  405f1b:	lea    ecx,[ebp-0x88c]
  405f21:	call   0x40db64
  405f26:	xor    eax,eax
  405f28:	jmp    0x405fc7
  405f2d:	mov    ecx,0x84
  405f32:	call   0x40c92c
  405f37:	push   0x2
  405f39:	mov    esi,eax
  405f3b:	call   0x411711
  405f40:	pop    ecx
  405f41:	mov    edx,esi
  405f43:	mov    ecx,eax
  405f45:	call   0x40d474
  405f4a:	lea    ecx,[ebp-0x898]
  405f50:	call   0x40e254
  405f55:	lea    ecx,[ebp-0x208]
  405f5b:	call   0x4053d0
  405f60:	lea    ecx,[ebp-0x8a4]
  405f66:	call   0x40db64
  405f6b:	jmp    0x405f9e
  405f6d:	push   0x7d
  405f6f:	pop    ecx
  405f70:	call   0x40c92c
  405f75:	push   0x2
  405f77:	mov    esi,eax
  405f79:	call   0x411711
  405f7e:	pop    ecx
  405f7f:	mov    edx,esi
  405f81:	mov    ecx,eax
  405f83:	call   0x40d474
  405f88:	lea    ecx,[ebp-0x208]
  405f8e:	call   0x4053d0
  405f93:	lea    ecx,[ebp-0x898]
  405f99:	call   0x40e254
  405f9e:	cmp    DWORD PTR [ebp-0x890],0x0
  405fa5:	je     0x405faf
  405fa7:	push   ecx
  405fa8:	mov    ecx,ebx
  405faa:	call   0x40f1cf
  405faf:	lea    ecx,[ebp-0x894]
  405fb5:	call   0x40db64
  405fba:	lea    ecx,[ebp-0x88c]
  405fc0:	call   0x40db64
  405fc5:	mov    eax,edi
  405fc7:	mov    ecx,DWORD PTR [ebp-0x4]
  405fca:	pop    edi
  405fcb:	pop    esi
  405fcc:	xor    ecx,ebp
  405fce:	pop    ebx
  405fcf:	call   0x411090
  405fd4:	mov    esp,ebp
  405fd6:	pop    ebp
  405fd7:	ret    
  405fd8:	int3   
  405fd9:	int3   
  405fda:	int3   
  405fdb:	int3   
  405fdc:	int3   
  405fdd:	mov    edi,edi
  405fdf:	push   ebp
  405fe0:	mov    ebp,esp
  405fe2:	sub    esp,0x634
  405fe8:	mov    eax,ds:0x412004
  405fed:	xor    eax,ebp
  405fef:	mov    DWORD PTR [ebp-0x4],eax
  405ff2:	push   ebx
  405ff3:	push   esi
  405ff4:	push   edi
  405ff5:	xor    eax,eax
  405ff7:	mov    edi,0x1f8
  405ffc:	push   edi
  405ffd:	push   eax
  405ffe:	mov    DWORD PTR [ebp-0x618],eax
  406004:	mov    ebx,ecx
  406006:	mov    DWORD PTR [ebp-0x614],eax
  40600c:	mov    esi,edx
  40600e:	mov    DWORD PTR [ebp-0x230],eax
  406014:	lea    eax,[ebp-0x22c]
  40601a:	push   eax
  40601b:	mov    DWORD PTR [ebp-0x628],ebx
  406021:	call   0x411770
  406026:	and    DWORD PTR [ebp-0x430],0x0
  40602d:	lea    eax,[ebp-0x42c]
  406033:	add    esp,0xc
  406036:	push   edi
  406037:	push   0x0
  406039:	push   eax
  40603a:	call   0x411770
  40603f:	add    esp,0xc
  406042:	lea    edi,[ebp-0x28]
  406045:	xor    edx,edx
  406047:	xor    eax,eax
  406049:	mov    DWORD PTR [ebp-0x2c],edx
  40604c:	mov    DWORD PTR [ebp-0x620],edx
  406052:	push   0x9
  406054:	pop    ecx
  406055:	rep stos DWORD PTR es:[edi],eax
  406057:	mov    DWORD PTR [ebp-0x630],edx
  40605d:	lea    eax,[ebp-0x610]
  406063:	mov    DWORD PTR [ebp-0x62c],edx
  406069:	mov    ecx,0x1e0
  40606e:	mov    DWORD PTR [ebp-0x61c],edx
  406074:	mov    DWORD PTR [ebp-0x624],edx
  40607a:	mov    BYTE PTR [eax],dl
  40607c:	inc    eax
  40607d:	sub    ecx,0x1
  406080:	jne    0x40607a
  406082:	push   0xfe
  406087:	mov    edx,0x401134
  40608c:	lea    ecx,[ebp-0x230]
  406092:	call   0x40d369
  406097:	push   0x8
  406099:	mov    edx,0x401054
  40609e:	lea    ecx,[ebp-0x610]
  4060a4:	call   0x40d306
  4060a9:	xor    edi,edi
  4060ab:	mov    DWORD PTR [ebp-0x5f0],0x4010a4
  4060b5:	lea    eax,[ebp-0x630]
  4060bb:	mov    DWORD PTR [ebp-0x608],0xa
  4060c5:	inc    edi
  4060c6:	mov    DWORD PTR [ebp-0x5e4],eax
  4060cc:	push   0x8
  4060ce:	mov    edx,0x401054
  4060d3:	mov    DWORD PTR [ebp-0x5f8],edi
  4060d9:	lea    ecx,[ebp-0x5c0]
  4060df:	call   0x40d306
  4060e4:	and    DWORD PTR [ebp-0x5ac],0x0
  4060eb:	lea    ecx,[ebp-0x570]
  4060f1:	push   0x8
  4060f3:	mov    edx,0x401054
  4060f8:	mov    DWORD PTR [ebp-0x5a0],0x401138
  406102:	mov    DWORD PTR [ebp-0x5b0],0x12000
  40610c:	mov    DWORD PTR [ebp-0x5b8],edi
  406112:	mov    DWORD PTR [ebp-0x5a8],edi
  406118:	call   0x40d306
  40611d:	and    DWORD PTR [ebp-0x55c],0x0
  406124:	lea    ecx,[ebp-0x520]
  40612a:	push   0x8
  40612c:	mov    edx,0x401054
  406131:	mov    DWORD PTR [ebp-0x550],0x40113c
  40613b:	mov    DWORD PTR [ebp-0x560],0x12000
  406145:	mov    DWORD PTR [ebp-0x568],edi
  40614b:	mov    DWORD PTR [ebp-0x558],edi
  406151:	call   0x40d306
  406156:	and    DWORD PTR [ebp-0x50c],0x0
  40615d:	lea    eax,[ebp-0x230]
  406163:	push   0x8
  406165:	mov    edx,0x401054
  40616a:	mov    DWORD PTR [ebp-0x500],0x401140
  406174:	lea    ecx,[ebp-0x4d0]
  40617a:	mov    DWORD PTR [ebp-0x510],0x10
  406184:	mov    DWORD PTR [ebp-0x518],edi
  40618a:	mov    DWORD PTR [ebp-0x508],edi
  406190:	mov    DWORD PTR [ebp-0x4f4],eax
  406196:	mov    DWORD PTR [ebp-0x4f0],0xfe
  4061a0:	call   0x40d306
  4061a5:	and    DWORD PTR [ebp-0x4bc],0x0
  4061ac:	lea    eax,[ebp-0x620]
  4061b2:	push   0x8
  4061b4:	mov    edx,0x401054
  4061b9:	mov    DWORD PTR [ebp-0x4b0],0x40104c
  4061c3:	lea    ecx,[ebp-0x480]
  4061c9:	mov    DWORD PTR [ebp-0x4c0],0xc0000
  4061d3:	mov    DWORD PTR [ebp-0x4c8],0x3
  4061dd:	mov    DWORD PTR [ebp-0x4b8],edi
  4061e3:	mov    DWORD PTR [ebp-0x4a4],eax
  4061e9:	call   0x40d306
  4061ee:	and    DWORD PTR [ebp-0x46c],0x0
  4061f5:	lea    eax,[ebp-0x624]
  4061fb:	push   ecx
  4061fc:	mov    DWORD PTR [ebp-0x454],eax
  406202:	mov    edx,esi
  406204:	lea    eax,[ebp-0x610]
  40620a:	mov    DWORD PTR [ebp-0x460],0x401084
  406214:	push   eax
  406215:	push   0x6
  406217:	push   0x0
  406219:	mov    ecx,ebx
  40621b:	mov    DWORD PTR [ebp-0x470],0x20000
  406225:	mov    DWORD PTR [ebp-0x478],0xa
  40622f:	mov    DWORD PTR [ebp-0x468],edi
  406235:	call   0x410a21
  40623a:	test   eax,eax
  40623c:	jne    0x406257
  40623e:	push   0x2
  406240:	call   0x411711
  406245:	pop    ecx
  406246:	mov    edx,0x20001
  40624b:	mov    ecx,eax
  40624d:	call   0x40c74a
  406252:	jmp    0x406606
  406257:	mov    esi,DWORD PTR [ebp-0x544]
  40625d:	mov    ebx,DWORD PTR [ebp-0x594]
  406263:	mov    DWORD PTR [ebp-0x618],ebx
  406269:	mov    DWORD PTR [ebp-0x614],esi
  40626f:	test   esi,esi
  406271:	jne    0x406289
  406273:	mov    ecx,0x1fc
  406278:	call   0x40dc18
  40627d:	mov    esi,eax
  40627f:	mov    DWORD PTR [ebp-0x614],esi
  406285:	test   esi,esi
  406287:	je     0x40623e
  406289:	push   ecx
  40628a:	xor    edx,edx
  40628c:	mov    ecx,ebx
  40628e:	call   0x40cf40
  406293:	push   ecx
  406294:	xor    edx,edx
  406296:	mov    ecx,esi
  406298:	call   0x40cf40
  40629d:	cmp    DWORD PTR [ebp-0x624],edi
  4062a3:	jne    0x4062d0
  4062a5:	cmp    DWORD PTR [ebp-0x628],0x3
  4062ac:	jbe    0x4062d0
  4062ae:	mov    ecx,0x1b5
  4062b3:	call   0x40c92c
  4062b8:	push   0x2
  4062ba:	mov    esi,eax
  4062bc:	call   0x411711
  4062c1:	pop    ecx
  4062c2:	mov    edx,esi
  4062c4:	mov    ecx,eax
  4062c6:	call   0x40d474
  4062cb:	jmp    0x406606
  4062d0:	cmp    DWORD PTR [ebp-0x5a4],0x0
  4062d7:	je     0x40631c
  4062d9:	mov    ecx,ebx
  4062db:	call   0x40d408
  4062e0:	test   eax,eax
  4062e2:	jne    0x40631c
  4062e4:	mov    ecx,0x30e
  4062e9:	call   0x40c92c
  4062ee:	push   0x2
  4062f0:	mov    esi,eax
  4062f2:	call   0x411711
  4062f7:	pop    ecx
  4062f8:	mov    edx,esi
  4062fa:	mov    ecx,eax
  4062fc:	call   0x40d474
  406301:	lea    ecx,[ebp-0x618]
  406307:	call   0x40db64
  40630c:	lea    ecx,[ebp-0x614]
  406312:	call   0x40db64
  406317:	jmp    0x406606
  40631c:	mov    eax,DWORD PTR [ebp-0x554]
  406322:	test   eax,eax
  406324:	je     0x40633e
  406326:	mov    ecx,esi
  406328:	call   0x40d408
  40632d:	test   eax,eax
  40632f:	jne    0x406338
  406331:	mov    ecx,0x30f
  406336:	jmp    0x4062e9
  406338:	mov    eax,DWORD PTR [ebp-0x554]
  40633e:	cmp    DWORD PTR [ebp-0x5a4],0x0
  406345:	jne    0x406355
  406347:	test   eax,eax
  406349:	je     0x406359
  40634b:	mov    ecx,0x30b
  406350:	jmp    0x4062b3
  406355:	test   eax,eax
  406357:	jne    0x406369
  406359:	cmp    DWORD PTR [ebp-0x504],0x0
  406360:	je     0x406369
  406362:	mov    ecx,0x30c
  406367:	jmp    0x4062e9
  406369:	cmp    DWORD PTR [ebp-0x620],0x3e7
  406373:	jbe    0x40637f
  406375:	mov    ecx,0x1b9
  40637a:	jmp    0x4062e9
  40637f:	cmp    DWORD PTR [ebp-0x624],0x0
  406386:	mov    ecx,ebx
  406388:	je     0x4063c3
  40638a:	call   0x40c1d9
  40638f:	cmp    eax,edi
  406391:	je     0x406301
  406397:	mov    ebx,0x193
  40639c:	mov    ecx,ebx
  40639e:	call   0x40c92c
  4063a3:	push   edi
  4063a4:	mov    esi,eax
  4063a6:	call   0x411711
  4063ab:	pop    ecx
  4063ac:	mov    edx,esi
  4063ae:	mov    ecx,eax
  4063b0:	call   0x40d474
  4063b5:	inc    ebx
  4063b6:	cmp    ebx,0x1a2
  4063bc:	jbe    0x40639c
  4063be:	jmp    0x4065c6
  4063c3:	call   0x40eb0c
  4063c8:	test   eax,eax
  4063ca:	je     0x406412
  4063cc:	call   0x40ea45
  4063d1:	test   eax,eax
  4063d3:	jne    0x406412
  4063d5:	mov    ecx,0xe87
  4063da:	call   0x40c92c
  4063df:	push   0x2
  4063e1:	mov    esi,eax
  4063e3:	call   0x411711
  4063e8:	pop    ecx
  4063e9:	mov    edx,esi
  4063eb:	mov    ecx,eax
  4063ed:	call   0x40d474
  4063f2:	lea    ecx,[ebp-0x618]
  4063f8:	call   0x40db64
  4063fd:	lea    ecx,[ebp-0x614]
  406403:	call   0x40db64
  406408:	call   0x40c7e2
  40640d:	jmp    0x406606
  406412:	mov    ecx,ebx
  406414:	call   0x40eb0c
  406419:	test   eax,eax
  40641b:	jne    0x406479
  40641d:	cmp    DWORD PTR [ebp-0x504],eax
  406423:	je     0x40644c
  406425:	push   eax
  406426:	push   edi
  406427:	mov    edx,0x401134
  40642c:	lea    ecx,[ebp-0x230]
  406432:	call   0x40d41c
  406437:	test   eax,eax
  406439:	jne    0x406443
  40643b:	mov    DWORD PTR [ebp-0x62c],edi
  406441:	jmp    0x406479
  406443:	cmp    DWORD PTR [ebp-0x504],0x0
  40644a:	jne    0x406479
  40644c:	cmp    DWORD PTR [ebp-0x5a4],0x0
  406453:	jne    0x40645e
  406455:	cmp    DWORD PTR [ebp-0x554],0x0
  40645c:	je     0x406479
  40645e:	push   0xfe
  406463:	mov    edx,0x40104c
  406468:	mov    DWORD PTR [ebp-0x62c],edi
  40646e:	lea    ecx,[ebp-0x230]
  406474:	call   0x40d369
  406479:	push   0x2
  40647b:	push   0x401150
  406480:	push   ebx
  406481:	call   DWORD PTR ds:0x413124
  406487:	test   eax,eax
  406489:	jne    0x4064e8
  40648b:	push   0x3
  40648d:	push   0x401158
  406492:	push   ebx
  406493:	call   DWORD PTR ds:0x413124
  406499:	test   eax,eax
  40649b:	je     0x4064e8
  40649d:	push   0x401150
  4064a2:	push   ebx
  4064a3:	call   DWORD PTR ds:0x4131b4
  4064a9:	mov    DWORD PTR [ebp-0x628],eax
  4064af:	pop    ecx
  4064b0:	pop    ecx
  4064b1:	test   eax,eax
  4064b3:	jne    0x4064d1
  4064b5:	push   eax
  4064b6:	push   edi
  4064b7:	mov    edx,0x401150
  4064bc:	mov    ecx,ebx
  4064be:	call   0x40d41c
  4064c3:	test   eax,eax
  4064c5:	je     0x4064d1
  4064c7:	mov    ecx,0xe7d
  4064cc:	jmp    0x4062b3
  4064d1:	mov    ecx,ebx
  4064d3:	call   0x40dd9e
  4064d8:	mov    edx,DWORD PTR [ebp-0x628]
  4064de:	mov    ecx,ebx
  4064e0:	shr    eax,1
  4064e2:	push   eax
  4064e3:	call   0x40d369
  4064e8:	lea    eax,[ebp-0x61c]
  4064ee:	mov    edx,esi
  4064f0:	push   eax
  4064f1:	push   DWORD PTR [ebp-0x62c]
  4064f7:	lea    eax,[ebp-0x430]
  4064fd:	mov    ecx,ebx
  4064ff:	push   eax
  406500:	lea    eax,[ebp-0x230]
  406506:	push   eax
  406507:	call   0x404ec4
  40650c:	test   eax,eax
  40650e:	jne    0x406529
  406510:	cmp    DWORD PTR [ebp-0x61c],eax
  406516:	je     0x406301
  40651c:	push   ecx
  40651d:	mov    ecx,ebx
  40651f:	call   0x40f1cf
  406524:	jmp    0x406301
  406529:	mov    ecx,ebx
  40652b:	call   0x40eb0c
  406530:	cmp    eax,edi
  406532:	jne    0x40655c
  406534:	mov    ecx,esi
  406536:	call   0x40d408
  40653b:	test   eax,eax
  40653d:	je     0x40655c
  40653f:	mov    ecx,0x313
  406544:	call   0x40c92c
  406549:	push   0x2
  40654b:	mov    esi,eax
  40654d:	call   0x411711
  406552:	pop    ecx
  406553:	mov    edx,esi
  406555:	mov    ecx,eax
  406557:	call   0x40d474
  40655c:	push   0xa
  40655e:	lea    eax,[ebp-0x2c]
  406561:	push   eax
  406562:	push   DWORD PTR [ebp-0x620]
  406568:	call   DWORD PTR ds:0x4131b8
  40656e:	add    esp,0xc
  406571:	lea    eax,[ebp-0x430]
  406577:	push   eax
  406578:	lea    eax,[ebp-0x2c]
  40657b:	push   eax
  40657c:	push   0x4010a4
  406581:	push   0x4011b4
  406586:	call   DWORD PTR ds:0x413028
  40658c:	test   eax,eax
  40658e:	je     0x4065cd
  406590:	push   0x7e
  406592:	pop    ecx
  406593:	call   0x40c92c
  406598:	push   edi
  406599:	mov    esi,eax
  40659b:	call   0x411711
  4065a0:	pop    ecx
  4065a1:	mov    edx,esi
  4065a3:	mov    ecx,eax
  4065a5:	call   0x40d474
  4065aa:	lea    ecx,[ebp-0x430]
  4065b0:	call   0x4053d0
  4065b5:	cmp    DWORD PTR [ebp-0x61c],0x0
  4065bc:	je     0x4065c6
  4065be:	push   ecx
  4065bf:	mov    ecx,ebx
  4065c1:	call   0x40f1cf
  4065c6:	xor    edi,edi
  4065c8:	jmp    0x406301
  4065cd:	mov    ecx,0x9a
  4065d2:	call   0x40c92c
  4065d7:	push   0x2
  4065d9:	mov    esi,eax
  4065db:	call   0x411711
  4065e0:	pop    ecx
  4065e1:	mov    edx,esi
  4065e3:	mov    ecx,eax
  4065e5:	call   0x40d474
  4065ea:	lea    ecx,[ebp-0x430]
  4065f0:	call   0x4053d0
  4065f5:	cmp    DWORD PTR [ebp-0x61c],0x0
  4065fc:	je     0x406606
  4065fe:	push   ecx
  4065ff:	mov    ecx,ebx
  406601:	call   0x40f1cf
  406606:	mov    ecx,DWORD PTR [ebp-0x4]
  406609:	mov    eax,edi
  40660b:	pop    edi
  40660c:	pop    esi
  40660d:	xor    ecx,ebp
  40660f:	pop    ebx
  406610:	call   0x411090
  406615:	mov    esp,ebp
  406617:	pop    ebp
  406618:	ret    
  406619:	int3   
  40661a:	int3   
  40661b:	int3   
  40661c:	int3   
  40661d:	int3   
  40661e:	mov    edi,edi
  406620:	push   ebp
  406621:	mov    ebp,esp
  406623:	sub    esp,0x814
  406629:	mov    eax,ds:0x412004
  40662e:	xor    eax,ebp
  406630:	mov    DWORD PTR [ebp-0x4],eax
  406633:	push   ebx
  406634:	push   esi
  406635:	push   edi
  406636:	xor    ebx,ebx
  406638:	mov    DWORD PTR [ebp-0x80c],edx
  40663e:	push   0x1f8
  406643:	lea    eax,[ebp-0x604]
  406649:	mov    DWORD PTR [ebp-0x7f8],ebx
  40664f:	mov    esi,ecx
  406651:	mov    DWORD PTR [ebp-0x7f4],ebx
  406657:	push   ebx
  406658:	push   eax
  406659:	mov    DWORD PTR [ebp-0x804],esi
  40665f:	mov    DWORD PTR [ebp-0x608],ebx
  406665:	call   0x411770
  40666a:	add    esp,0xc
  40666d:	mov    DWORD PTR [ebp-0x808],ebx
  406673:	mov    edi,0x1fa
  406678:	mov    DWORD PTR [ebp-0x814],ebx
  40667e:	lea    eax,[ebp-0x204]
  406684:	mov    DWORD PTR [ebp-0x208],ebx
  40668a:	push   edi
  40668b:	push   ebx
  40668c:	push   eax
  40668d:	call   0x411770
  406692:	add    esp,0xc
  406695:	mov    DWORD PTR [ebp-0x7fc],ebx
  40669b:	lea    eax,[ebp-0x404]
  4066a1:	mov    DWORD PTR [ebp-0x7ec],ebx
  4066a7:	mov    DWORD PTR [ebp-0x408],ebx
  4066ad:	push   edi
  4066ae:	push   ebx
  4066af:	push   eax
  4066b0:	call   0x411770
  4066b5:	add    esp,0xc
  4066b8:	mov    DWORD PTR [ebp-0x800],ebx
  4066be:	mov    DWORD PTR [ebp-0x7f0],ebx
  4066c4:	lea    ecx,[edi-0x1a]
  4066c7:	mov    DWORD PTR [ebp-0x810],ebx
  4066cd:	lea    eax,[ebp-0x7e8]
  4066d3:	mov    BYTE PTR [eax],bl
  4066d5:	inc    eax
  4066d6:	sub    ecx,0x1
  4066d9:	jne    0x4066d3
  4066db:	push   0xfe
  4066e0:	mov    edx,0x401134
  4066e5:	lea    ecx,[ebp-0x608]
  4066eb:	call   0x40d369
  4066f0:	push   0x8
  4066f2:	mov    edx,0x401054
  4066f7:	lea    ecx,[ebp-0x7e8]
  4066fd:	call   0x40d306
  406702:	xor    edi,edi
  406704:	mov    DWORD PTR [ebp-0x7c8],0x401094
  40670e:	lea    eax,[ebp-0x814]
  406714:	mov    DWORD PTR [ebp-0x7e0],0xa
  40671e:	inc    edi
  40671f:	mov    DWORD PTR [ebp-0x7bc],eax
  406725:	push   0x8
  406727:	mov    edx,0x401054
  40672c:	mov    DWORD PTR [ebp-0x7d0],edi
  406732:	lea    ecx,[ebp-0x798]
  406738:	call   0x40d306
  40673d:	push   0x8
  40673f:	mov    edx,0x401054
  406744:	mov    DWORD PTR [ebp-0x778],0x401138
  40674e:	lea    ecx,[ebp-0x748]
  406754:	mov    DWORD PTR [ebp-0x788],0x12000
  40675e:	mov    DWORD PTR [ebp-0x784],ebx
  406764:	mov    DWORD PTR [ebp-0x790],edi
  40676a:	mov    DWORD PTR [ebp-0x780],edi
  406770:	call   0x40d306
  406775:	push   0x8
  406777:	mov    edx,0x401054
  40677c:	mov    DWORD PTR [ebp-0x728],0x40113c
  406786:	lea    ecx,[ebp-0x6f8]
  40678c:	mov    DWORD PTR [ebp-0x738],0x12000
  406796:	mov    DWORD PTR [ebp-0x734],ebx
  40679c:	mov    DWORD PTR [ebp-0x740],edi
  4067a2:	mov    DWORD PTR [ebp-0x730],edi
  4067a8:	call   0x40d306
  4067ad:	lea    eax,[ebp-0x608]
  4067b3:	mov    DWORD PTR [ebp-0x6d8],0x401140
  4067bd:	push   0x8
  4067bf:	mov    edx,0x401054
  4067c4:	mov    DWORD PTR [ebp-0x6e8],0x10
  4067ce:	lea    ecx,[ebp-0x6a8]
  4067d4:	mov    DWORD PTR [ebp-0x6e4],ebx
  4067da:	mov    DWORD PTR [ebp-0x6f0],edi
  4067e0:	mov    DWORD PTR [ebp-0x6e0],edi
  4067e6:	mov    DWORD PTR [ebp-0x6cc],eax
  4067ec:	mov    DWORD PTR [ebp-0x6c8],0xfe
  4067f6:	call   0x40d306
  4067fb:	lea    eax,[ebp-0x808]
  406801:	mov    DWORD PTR [ebp-0x688],0x401148
  40680b:	push   0x8
  40680d:	mov    edx,0x401054
  406812:	mov    DWORD PTR [ebp-0x698],0x82000
  40681c:	lea    ecx,[ebp-0x658]
  406822:	mov    DWORD PTR [ebp-0x694],ebx
  406828:	mov    DWORD PTR [ebp-0x6a0],0x3
  406832:	mov    DWORD PTR [ebp-0x690],edi
  406838:	mov    DWORD PTR [ebp-0x67c],eax
  40683e:	call   0x40d306
  406843:	mov    edx,DWORD PTR [ebp-0x80c]
  406849:	lea    eax,[ebp-0x810]
  40684f:	push   ecx
  406850:	mov    DWORD PTR [ebp-0x62c],eax
  406856:	mov    ecx,esi
  406858:	lea    eax,[ebp-0x7e8]
  40685e:	mov    DWORD PTR [ebp-0x638],0x401084
  406868:	push   eax
  406869:	push   0x6
  40686b:	push   ebx
  40686c:	mov    DWORD PTR [ebp-0x648],0x20000
  406876:	mov    DWORD PTR [ebp-0x644],ebx
  40687c:	mov    DWORD PTR [ebp-0x650],0xa
  406886:	mov    DWORD PTR [ebp-0x640],edi
  40688c:	call   0x410a21
  406891:	test   eax,eax
  406893:	jne    0x4068ae
  406895:	push   0x2
  406897:	call   0x411711
  40689c:	pop    ecx
  40689d:	mov    edx,0x20001
  4068a2:	mov    ecx,eax
  4068a4:	call   0x40c74a
  4068a9:	jmp    0x406eb9
  4068ae:	mov    esi,DWORD PTR [ebp-0x71c]
  4068b4:	mov    ebx,DWORD PTR [ebp-0x76c]
  4068ba:	mov    DWORD PTR [ebp-0x80c],ebx
  4068c0:	mov    DWORD PTR [ebp-0x7f8],ebx
  4068c6:	mov    DWORD PTR [ebp-0x7f4],esi
  4068cc:	test   esi,esi
  4068ce:	jne    0x4068e6
  4068d0:	mov    ecx,0x1fc
  4068d5:	call   0x40dc18
  4068da:	mov    esi,eax
  4068dc:	mov    DWORD PTR [ebp-0x7f4],esi
  4068e2:	test   esi,esi
  4068e4:	je     0x406895
  4068e6:	push   ecx
  4068e7:	xor    edx,edx
  4068e9:	mov    ecx,ebx
  4068eb:	call   0x40cf40
  4068f0:	push   ecx
  4068f1:	xor    edx,edx
  4068f3:	mov    ecx,esi
  4068f5:	call   0x40cf40
  4068fa:	cmp    DWORD PTR [ebp-0x810],edi
  406900:	jne    0x40692d
  406902:	cmp    DWORD PTR [ebp-0x804],0x3
  406909:	jbe    0x40692d
  40690b:	mov    ecx,0x1b6
  406910:	call   0x40c92c
  406915:	push   0x2
  406917:	mov    esi,eax
  406919:	call   0x411711
  40691e:	pop    ecx
  40691f:	mov    edx,esi
  406921:	mov    ecx,eax
  406923:	call   0x40d474
  406928:	jmp    0x406eb9
  40692d:	cmp    DWORD PTR [ebp-0x77c],0x0
  406934:	je     0x406963
  406936:	mov    ecx,ebx
  406938:	call   0x40d408
  40693d:	test   eax,eax
  40693f:	jne    0x406963
  406941:	mov    ecx,0x30e
  406946:	call   0x40c92c
  40694b:	push   0x2
  40694d:	mov    esi,eax
  40694f:	call   0x411711
  406954:	pop    ecx
  406955:	mov    edx,esi
  406957:	mov    ecx,eax
  406959:	call   0x40d474
  40695e:	jmp    0x406ea3
  406963:	mov    eax,DWORD PTR [ebp-0x72c]
  406969:	test   eax,eax
  40696b:	je     0x406985
  40696d:	mov    ecx,esi
  40696f:	call   0x40d408
  406974:	test   eax,eax
  406976:	jne    0x40697f
  406978:	mov    ecx,0x30f
  40697d:	jmp    0x406946
  40697f:	mov    eax,DWORD PTR [ebp-0x72c]
  406985:	cmp    DWORD PTR [ebp-0x77c],0x0
  40698c:	jne    0x406999
  40698e:	test   eax,eax
  406990:	je     0x40699d
  406992:	mov    ecx,0x30b
  406997:	jmp    0x406946
  406999:	test   eax,eax
  40699b:	jne    0x4069ad
  40699d:	cmp    DWORD PTR [ebp-0x6dc],0x0
  4069a4:	je     0x4069ad
  4069a6:	mov    ecx,0x30c
  4069ab:	jmp    0x406946
  4069ad:	cmp    DWORD PTR [ebp-0x810],0x0
  4069b4:	mov    ecx,ebx
  4069b6:	je     0x4069f3
  4069b8:	call   0x40c1d9
  4069bd:	cmp    eax,edi
  4069bf:	je     0x406ea3
  4069c5:	mov    ebx,0x1a4
  4069ca:	mov    ecx,ebx
  4069cc:	call   0x40c92c
  4069d1:	push   edi
  4069d2:	mov    esi,eax
  4069d4:	call   0x411711
  4069d9:	pop    ecx
  4069da:	mov    edx,esi
  4069dc:	mov    ecx,eax
  4069de:	call   0x40d474
  4069e3:	inc    ebx
  4069e4:	cmp    ebx,0x1b3
  4069ea:	jbe    0x4069ca
  4069ec:	xor    edi,edi
  4069ee:	jmp    0x406ea3
  4069f3:	call   0x40eb0c
  4069f8:	test   eax,eax
  4069fa:	je     0x406a42
  4069fc:	call   0x40ea45
  406a01:	test   eax,eax
  406a03:	jne    0x406a42
  406a05:	mov    ecx,0xe87
  406a0a:	call   0x40c92c
  406a0f:	push   0x2
  406a11:	mov    esi,eax
  406a13:	call   0x411711
  406a18:	pop    ecx
  406a19:	mov    edx,esi
  406a1b:	mov    ecx,eax
  406a1d:	call   0x40d474
  406a22:	lea    ecx,[ebp-0x7f8]
  406a28:	call   0x40db64
  406a2d:	lea    ecx,[ebp-0x7f4]
  406a33:	call   0x40db64
  406a38:	call   0x40c7e2
  406a3d:	jmp    0x406eb9
  406a42:	cmp    DWORD PTR [ebp-0x808],0x0
  406a49:	ja     0x406a55
  406a4b:	mov    ecx,0x1b8
  406a50:	jmp    0x406946
  406a55:	mov    ecx,ebx
  406a57:	call   0x40eb0c
  406a5c:	test   eax,eax
  406a5e:	jne    0x406abc
  406a60:	cmp    DWORD PTR [ebp-0x6dc],eax
  406a66:	je     0x406a8f
  406a68:	push   eax
  406a69:	push   edi
  406a6a:	mov    edx,0x401134
  406a6f:	lea    ecx,[ebp-0x608]
  406a75:	call   0x40d41c
  406a7a:	test   eax,eax
  406a7c:	jne    0x406a86
  406a7e:	mov    DWORD PTR [ebp-0x7fc],edi
  406a84:	jmp    0x406abc
  406a86:	cmp    DWORD PTR [ebp-0x6dc],0x0
  406a8d:	jne    0x406abc
  406a8f:	cmp    DWORD PTR [ebp-0x77c],0x0
  406a96:	jne    0x406aa1
  406a98:	cmp    DWORD PTR [ebp-0x72c],0x0
  406a9f:	je     0x406abc
  406aa1:	push   0xfe
  406aa6:	mov    edx,0x40104c
  406aab:	mov    DWORD PTR [ebp-0x7fc],edi
  406ab1:	lea    ecx,[ebp-0x608]
  406ab7:	call   0x40d369
  406abc:	push   0x2
  406abe:	push   0x401150
  406ac3:	push   ebx
  406ac4:	call   DWORD PTR ds:0x413124
  406aca:	test   eax,eax
  406acc:	jne    0x406b2b
  406ace:	push   0x3
  406ad0:	push   0x401158
  406ad5:	push   ebx
  406ad6:	call   DWORD PTR ds:0x413124
  406adc:	test   eax,eax
  406ade:	je     0x406b2b
  406ae0:	push   0x401150
  406ae5:	push   ebx
  406ae6:	call   DWORD PTR ds:0x4131b4
  406aec:	mov    DWORD PTR [ebp-0x804],eax
  406af2:	pop    ecx
  406af3:	pop    ecx
  406af4:	test   eax,eax
  406af6:	jne    0x406b14
  406af8:	push   eax
  406af9:	push   edi
  406afa:	mov    edx,0x401150
  406aff:	mov    ecx,ebx
  406b01:	call   0x40d41c
  406b06:	test   eax,eax
  406b08:	je     0x406b14
  406b0a:	mov    ecx,0xe7d
  406b0f:	jmp    0x406946
  406b14:	mov    ecx,ebx
  406b16:	call   0x40dd9e
  406b1b:	mov    edx,DWORD PTR [ebp-0x804]
  406b21:	mov    ecx,ebx
  406b23:	shr    eax,1
  406b25:	push   eax
  406b26:	call   0x40d369
  406b2b:	lea    eax,[ebp-0x7f0]
  406b31:	mov    edx,esi
  406b33:	push   eax
  406b34:	push   DWORD PTR [ebp-0x7fc]
  406b3a:	lea    eax,[ebp-0x208]
  406b40:	mov    ecx,ebx
  406b42:	push   eax
  406b43:	lea    eax,[ebp-0x608]
  406b49:	push   eax
  406b4a:	call   0x404ec4
  406b4f:	test   eax,eax
  406b51:	je     0x406e92
  406b57:	mov    ecx,ebx
  406b59:	call   0x40eb0c
  406b5e:	cmp    eax,edi
  406b60:	jne    0x406b8a
  406b62:	mov    ecx,esi
  406b64:	call   0x40d408
  406b69:	test   eax,eax
  406b6b:	je     0x406b8a
  406b6d:	mov    ecx,0x313
  406b72:	call   0x40c92c
  406b77:	push   0x2
  406b79:	mov    esi,eax
  406b7b:	call   0x411711
  406b80:	pop    ecx
  406b81:	mov    edx,esi
  406b83:	mov    ecx,eax
  406b85:	call   0x40d474
  406b8a:	call   0x40e1e2
  406b8f:	test   eax,eax
  406b91:	jne    0x406bb4
  406b93:	push   0x8
  406b95:	call   DWORD PTR ds:0x413030
  406b9b:	push   0x2
  406b9d:	call   0x411711
  406ba2:	pop    ecx
  406ba3:	mov    edx,0x10001
  406ba8:	mov    ecx,eax
  406baa:	call   0x40c74a
  406baf:	jmp    0x406e92
  406bb4:	lea    ecx,[ebp-0x208]
  406bba:	call   0x404b94
  406bbf:	mov    esi,eax
  406bc1:	mov    DWORD PTR [ebp-0x7ec],esi
  406bc7:	test   esi,esi
  406bc9:	je     0x406e7c
  406bcf:	mov    edx,DWORD PTR [ebp-0x808]
  406bd5:	test   edx,edx
  406bd7:	je     0x406e5f
  406bdd:	mov    ecx,esi
  406bdf:	call   0x40e5c6
  406be4:	cmp    edx,eax
  406be6:	ja     0x406e5f
  406bec:	dec    edx
  406bed:	call   0x40e62c
  406bf2:	mov    DWORD PTR [ebp-0x804],eax
  406bf8:	test   eax,eax
  406bfa:	jne    0x406c1d
  406bfc:	push   0x8
  406bfe:	call   DWORD PTR ds:0x413030
  406c04:	push   0x2
  406c06:	call   0x411711
  406c0b:	pop    ecx
  406c0c:	mov    edx,0x10001
  406c11:	mov    ecx,eax
  406c13:	call   0x40c74a
  406c18:	jmp    0x406e7c
  406c1d:	mov    ecx,eax
  406c1f:	call   0x40d408
  406c24:	cmp    eax,0xfe
  406c29:	ja     0x406e58
  406c2f:	xor    ecx,ecx
  406c31:	call   0x40d408
  406c36:	cmp    eax,0xfe
  406c3b:	ja     0x406e58
  406c41:	mov    edx,DWORD PTR [ebp-0x804]
  406c47:	lea    ecx,[ebp-0x408]
  406c4d:	push   0xff
  406c52:	call   0x40d369
  406c57:	mov    eax,DWORD PTR [ebp-0x808]
  406c5d:	add    eax,0xfffffffe
  406c60:	js     0x406cbe
  406c62:	mov    ebx,DWORD PTR [ebp-0x7ec]
  406c68:	mov    edi,eax
  406c6a:	lea    eax,[edi+0x1]
  406c6d:	mov    DWORD PTR [ebp-0x7fc],eax
  406c73:	mov    edx,edi
  406c75:	mov    ecx,ebx
  406c77:	call   0x40e62c
  406c7c:	mov    edx,DWORD PTR [ebp-0x7fc]
  406c82:	mov    ecx,ebx
  406c84:	mov    esi,eax
  406c86:	call   0x40e56f
  406c8b:	mov    ecx,esi
  406c8d:	call   0x40d408
  406c92:	push   eax
  406c93:	push   esi
  406c94:	mov    esi,DWORD PTR [ebp-0x7fc]
  406c9a:	mov    ecx,ebx
  406c9c:	mov    edx,esi
  406c9e:	call   0x40e4f5
  406ca3:	dec    esi
  406ca4:	sub    edi,0x1
  406ca7:	mov    DWORD PTR [ebp-0x7fc],esi
  406cad:	jns    0x406c73
  406caf:	mov    ebx,DWORD PTR [ebp-0x80c]
  406cb5:	xor    edi,edi
  406cb7:	mov    esi,DWORD PTR [ebp-0x7ec]
  406cbd:	inc    edi
  406cbe:	xor    edx,edx
  406cc0:	mov    ecx,esi
  406cc2:	call   0x40e56f
  406cc7:	lea    eax,[ebp-0x408]
  406ccd:	test   eax,eax
  406ccf:	je     0x406cde
  406cd1:	lea    eax,[ebp-0x408]
  406cd7:	push   eax
  406cd8:	call   DWORD PTR ds:0x4130f0
  406cde:	push   eax
  406cdf:	lea    eax,[ebp-0x408]
  406ce5:	xor    edx,edx
  406ce7:	push   eax
  406ce8:	mov    ecx,esi
  406cea:	call   0x40e4f5
  406cef:	lea    edx,[ebp-0x800]
  406cf5:	mov    ecx,esi
  406cf7:	call   0x405424
  406cfc:	cmp    eax,edi
  406cfe:	jne    0x406d37
  406d00:	lea    ecx,[ebp-0x208]
  406d06:	call   0x4053d0
  406d0b:	lea    ecx,[ebp-0x7ec]
  406d11:	call   0x40e254
  406d16:	cmp    DWORD PTR [ebp-0x7f0],0x0
  406d1d:	je     0x406d27
  406d1f:	push   ecx
  406d20:	mov    ecx,ebx
  406d22:	call   0x40f1cf
  406d27:	lea    ecx,[ebp-0x800]
  406d2d:	call   0x40db64
  406d32:	jmp    0x406ea3
  406d37:	lea    eax,[ebp-0x208]
  406d3d:	push   eax
  406d3e:	push   DWORD PTR [ebp-0x800]
  406d44:	push   0x401160
  406d49:	call   DWORD PTR ds:0x413020
  406d4f:	test   eax,eax
  406d51:	jne    0x406d72
  406d53:	mov    ecx,0x1b7
  406d58:	call   0x40c92c
  406d5d:	push   0x2
  406d5f:	mov    esi,eax
  406d61:	call   0x411711
  406d66:	pop    ecx
  406d67:	mov    edx,esi
  406d69:	mov    ecx,eax
  406d6b:	call   0x40d474
  406d70:	jmp    0x406d00
  406d72:	lea    eax,[ebp-0x408]
  406d78:	push   0x401198
  406d7d:	push   eax
  406d7e:	call   DWORD PTR ds:0x4131b4
  406d84:	pop    ecx
  406d85:	pop    ecx
  406d86:	test   eax,eax
  406d88:	jne    0x406d91
  406d8a:	mov    ecx,0x829
  406d8f:	jmp    0x406d58
  406d91:	lea    eax,[ebp-0x208]
  406d97:	push   eax
  406d98:	lea    eax,[ebp-0x408]
  406d9e:	push   eax
  406d9f:	push   0x401094
  406da4:	push   0x4011b4
  406da9:	call   DWORD PTR ds:0x413028
  406daf:	test   eax,eax
  406db1:	je     0x406e20
  406db3:	mov    ecx,0x82
  406db8:	call   0x40c92c
  406dbd:	push   edi
  406dbe:	mov    esi,eax
  406dc0:	call   0x411711
  406dc5:	pop    ecx
  406dc6:	mov    edx,esi
  406dc8:	mov    ecx,eax
  406dca:	call   0x40d474
  406dcf:	lea    ecx,[ebp-0x208]
  406dd5:	call   0x4053d0
  406dda:	lea    ecx,[ebp-0x7ec]
  406de0:	mov    esi,eax
  406de2:	call   0x40e254
  406de7:	cmp    DWORD PTR [ebp-0x7f0],0x0
  406dee:	je     0x406df8
  406df0:	push   ecx
  406df1:	mov    ecx,ebx
  406df3:	call   0x40f1cf
  406df8:	lea    ecx,[ebp-0x800]
  406dfe:	call   0x40db64
  406e03:	lea    ecx,[ebp-0x7f8]
  406e09:	call   0x40db64
  406e0e:	lea    ecx,[ebp-0x7f4]
  406e14:	call   0x40db64
  406e19:	mov    eax,esi
  406e1b:	jmp    0x406ebb
  406e20:	mov    ecx,0x1b7
  406e25:	call   0x40c92c
  406e2a:	push   0x2
  406e2c:	mov    esi,eax
  406e2e:	call   0x411711
  406e33:	pop    ecx
  406e34:	mov    edx,esi
  406e36:	mov    ecx,eax
  406e38:	call   0x40d474
  406e3d:	lea    ecx,[ebp-0x7ec]
  406e43:	call   0x40e254
  406e48:	lea    ecx,[ebp-0x208]
  406e4e:	call   0x4053d0
  406e53:	jmp    0x406d16
  406e58:	mov    ecx,0xe80
  406e5d:	jmp    0x406e64
  406e5f:	mov    ecx,0x1b8
  406e64:	call   0x40c92c
  406e69:	push   0x2
  406e6b:	mov    esi,eax
  406e6d:	call   0x411711
  406e72:	pop    ecx
  406e73:	mov    edx,esi
  406e75:	mov    ecx,eax
  406e77:	call   0x40d474
  406e7c:	lea    ecx,[ebp-0x208]
  406e82:	call   0x4053d0
  406e87:	lea    ecx,[ebp-0x7ec]
  406e8d:	call   0x40e254
  406e92:	cmp    DWORD PTR [ebp-0x7f0],0x0
  406e99:	je     0x406ea3
  406e9b:	push   ecx
  406e9c:	mov    ecx,ebx
  406e9e:	call   0x40f1cf
  406ea3:	lea    ecx,[ebp-0x7f8]
  406ea9:	call   0x40db64
  406eae:	lea    ecx,[ebp-0x7f4]
  406eb4:	call   0x40db64
  406eb9:	mov    eax,edi
  406ebb:	mov    ecx,DWORD PTR [ebp-0x4]
  406ebe:	pop    edi
  406ebf:	pop    esi
  406ec0:	xor    ecx,ebp
  406ec2:	pop    ebx
  406ec3:	call   0x411090
  406ec8:	mov    esp,ebp
  406eca:	pop    ebp
  406ecb:	ret    
  406ecc:	int3   
  406ecd:	int3   
  406ece:	int3   
  406ecf:	int3   
  406ed0:	int3   
  406ed1:	mov    edi,edi
  406ed3:	push   ebp
  406ed4:	mov    ebp,esp
  406ed6:	mov    eax,0x150c
  406edb:	call   0x411740
  406ee0:	mov    eax,ds:0x412004
  406ee5:	xor    eax,ebp
  406ee7:	mov    DWORD PTR [ebp-0x4],eax
  406eea:	push   ebx
  406eeb:	xor    eax,eax
  406eed:	mov    ebx,ecx
  406eef:	push   esi
  406ef0:	push   edi
  406ef1:	mov    edi,0x1f8
  406ef6:	mov    DWORD PTR [ebp-0x14f8],eax
  406efc:	push   edi
  406efd:	push   eax
  406efe:	mov    DWORD PTR [ebp-0x14fc],eax
  406f04:	mov    esi,edx
  406f06:	mov    DWORD PTR [ebp-0x1500],eax
  406f0c:	mov    DWORD PTR [ebp-0x14e4],eax
  406f12:	mov    DWORD PTR [ebp-0x14dc],eax
  406f18:	mov    DWORD PTR [ebp-0x14ec],eax
  406f1e:	mov    DWORD PTR [ebp-0x14e8],eax
  406f24:	mov    DWORD PTR [ebp-0x1208],eax
  406f2a:	lea    eax,[ebp-0x1204]
  406f30:	push   eax
  406f31:	mov    DWORD PTR [ebp-0x14f0],ebx
  406f37:	call   0x411770
  406f3c:	and    DWORD PTR [ebp-0x208],0x0
  406f43:	lea    eax,[ebp-0x204]
  406f49:	add    esp,0xc
  406f4c:	push   edi
  406f4d:	push   0x0
  406f4f:	push   eax
  406f50:	call   0x411770
  406f55:	and    DWORD PTR [ebp-0xe08],0x0
  406f5c:	lea    eax,[ebp-0xe04]
  406f62:	add    esp,0xc
  406f65:	add    edi,0x2
  406f68:	push   edi
  406f69:	push   0x0
  406f6b:	push   eax
  406f6c:	call   0x411770
  406f71:	and    DWORD PTR [ebp-0xa08],0x0
  406f78:	lea    eax,[ebp-0xa04]
  406f7e:	add    esp,0xc
  406f81:	push   edi
  406f82:	push   0x0
  406f84:	push   eax
  406f85:	call   0x411770
  406f8a:	and    DWORD PTR [ebp-0x1008],0x0
  406f91:	lea    eax,[ebp-0x1004]
  406f97:	add    esp,0xc
  406f9a:	push   edi
  406f9b:	push   0x0
  406f9d:	push   eax
  406f9e:	call   0x411770
  406fa3:	add    esp,0xc
  406fa6:	xor    eax,eax
  406fa8:	mov    DWORD PTR [ebp-0x14f4],eax
  406fae:	mov    DWORD PTR [ebp-0x608],eax
  406fb4:	push   edi
  406fb5:	push   eax
  406fb6:	lea    eax,[ebp-0x604]
  406fbc:	push   eax
  406fbd:	call   0x411770
  406fc2:	and    DWORD PTR [ebp-0xc08],0x0
  406fc9:	lea    eax,[ebp-0xc04]
  406fcf:	add    esp,0xc
  406fd2:	push   edi
  406fd3:	push   0x0
  406fd5:	push   eax
  406fd6:	call   0x411770
  406fdb:	and    DWORD PTR [ebp-0x808],0x0
  406fe2:	lea    eax,[ebp-0x804]
  406fe8:	add    esp,0xc
  406feb:	push   edi
  406fec:	push   0x0
  406fee:	push   eax
  406fef:	call   0x411770
  406ff4:	and    DWORD PTR [ebp-0x408],0x0
  406ffb:	lea    eax,[ebp-0x404]
  407001:	add    esp,0xc
  407004:	push   edi
  407005:	push   0x0
  407007:	push   eax
  407008:	call   0x411770
  40700d:	add    esp,0xc
  407010:	xor    edx,edx
  407012:	lea    eax,[ebp-0x14d8]
  407018:	mov    DWORD PTR [ebp-0x1508],edx
  40701e:	mov    ecx,0x2d0
  407023:	mov    DWORD PTR [ebp-0x1504],edx
  407029:	mov    DWORD PTR [ebp-0x14e0],edx
  40702f:	mov    BYTE PTR [eax],dl
  407031:	inc    eax
  407032:	sub    ecx,0x1
  407035:	jne    0x40702f
  407037:	push   0xfe
  40703c:	mov    edx,0x401134
  407041:	lea    ecx,[ebp-0x1208]
  407047:	call   0x40d369
  40704c:	push   0x8
  40704e:	mov    edx,0x401054
  407053:	lea    ecx,[ebp-0x14d8]
  407059:	call   0x40d306
  40705e:	xor    edi,edi
  407060:	mov    DWORD PTR [ebp-0x14b8],0x4010b4
  40706a:	lea    eax,[ebp-0x1500]
  407070:	mov    DWORD PTR [ebp-0x14d0],0xa
  40707a:	inc    edi
  40707b:	mov    DWORD PTR [ebp-0x14ac],eax
  407081:	push   0x8
  407083:	mov    edx,0x401054
  407088:	mov    DWORD PTR [ebp-0x14c0],edi
  40708e:	lea    ecx,[ebp-0x1488]
  407094:	call   0x40d306
  407099:	and    DWORD PTR [ebp-0x1474],0x0
  4070a0:	lea    ecx,[ebp-0x1438]
  4070a6:	push   0x8
  4070a8:	mov    edx,0x401054
  4070ad:	mov    DWORD PTR [ebp-0x1468],0x401138
  4070b7:	mov    DWORD PTR [ebp-0x1478],0x12000
  4070c1:	mov    DWORD PTR [ebp-0x1480],edi
  4070c7:	mov    DWORD PTR [ebp-0x1470],edi
  4070cd:	call   0x40d306
  4070d2:	and    DWORD PTR [ebp-0x1424],0x0
  4070d9:	lea    ecx,[ebp-0x13e8]
  4070df:	push   0x8
  4070e1:	mov    edx,0x401054
  4070e6:	mov    DWORD PTR [ebp-0x1418],0x40113c
  4070f0:	mov    DWORD PTR [ebp-0x1428],0x12000
  4070fa:	mov    DWORD PTR [ebp-0x1430],edi
  407100:	mov    DWORD PTR [ebp-0x1420],edi
  407106:	call   0x40d306
  40710b:	and    DWORD PTR [ebp-0x13d4],0x0
  407112:	lea    eax,[ebp-0x1208]
  407118:	push   0x8
  40711a:	mov    edx,0x401054
  40711f:	mov    DWORD PTR [ebp-0x13c8],0x401140
  407129:	lea    ecx,[ebp-0x1398]
  40712f:	mov    DWORD PTR [ebp-0x13d8],0x10
  407139:	mov    DWORD PTR [ebp-0x13e0],edi
  40713f:	mov    DWORD PTR [ebp-0x13d0],edi
  407145:	mov    DWORD PTR [ebp-0x13bc],eax
  40714b:	mov    DWORD PTR [ebp-0x13b8],0xfe
  407155:	call   0x40d306
  40715a:	and    DWORD PTR [ebp-0x1384],0x0
  407161:	lea    eax,[ebp-0x14f8]
  407167:	push   0x8
  407169:	mov    edx,0x401054
  40716e:	mov    DWORD PTR [ebp-0x1378],0x401084
  407178:	lea    ecx,[ebp-0x1348]
  40717e:	mov    DWORD PTR [ebp-0x1388],0x20000
  407188:	mov    DWORD PTR [ebp-0x1390],0xa
  407192:	mov    DWORD PTR [ebp-0x1380],edi
  407198:	mov    DWORD PTR [ebp-0x136c],eax
  40719e:	call   0x40d306
  4071a3:	and    DWORD PTR [ebp-0x1334],0x0
  4071aa:	lea    eax,[ebp-0x14e4]
  4071b0:	push   0x8
  4071b2:	mov    edx,0x401054
  4071b7:	mov    DWORD PTR [ebp-0x1328],0x401148
  4071c1:	lea    ecx,[ebp-0x12f8]
  4071c7:	mov    DWORD PTR [ebp-0x1338],0x82000
  4071d1:	mov    DWORD PTR [ebp-0x1340],0x3
  4071db:	mov    DWORD PTR [ebp-0x1330],edi
  4071e1:	mov    DWORD PTR [ebp-0x131c],eax
  4071e7:	call   0x40d306
  4071ec:	and    DWORD PTR [ebp-0x12e4],0x0
  4071f3:	lea    eax,[ebp-0xa08]
  4071f9:	mov    DWORD PTR [ebp-0x12d8],0x401344
  407203:	mov    DWORD PTR [ebp-0x12e8],0x20c2
  40720d:	mov    DWORD PTR [ebp-0x12f0],edi
  407213:	mov    DWORD PTR [ebp-0x12e0],edi
  407219:	mov    DWORD PTR [ebp-0x12cc],eax
  40721f:	mov    DWORD PTR [ebp-0x12d0],0x401350
  407229:	mov    DWORD PTR [ebp-0x12c8],0xfe
  407233:	push   0x8
  407235:	mov    edx,0x401054
  40723a:	lea    ecx,[ebp-0x12a8]
  407240:	call   0x40d306
  407245:	and    DWORD PTR [ebp-0x1294],0x0
  40724c:	lea    eax,[ebp-0xc08]
  407252:	push   0x8
  407254:	mov    edx,0x401054
  407259:	mov    DWORD PTR [ebp-0x1288],0x401378
  407263:	lea    ecx,[ebp-0x1258]
  407269:	mov    DWORD PTR [ebp-0x1298],0x20c2
  407273:	mov    DWORD PTR [ebp-0x12a0],edi
  407279:	mov    DWORD PTR [ebp-0x1290],edi
  40727f:	mov    DWORD PTR [ebp-0x127c],eax
  407285:	mov    DWORD PTR [ebp-0x1280],0x401384
  40728f:	mov    DWORD PTR [ebp-0x1278],0xfe
  407299:	call   0x40d306
  40729e:	and    DWORD PTR [ebp-0x1244],0x0
  4072a5:	lea    eax,[ebp-0xe08]
  4072ab:	push   ecx
  4072ac:	mov    DWORD PTR [ebp-0x122c],eax
  4072b2:	mov    edx,esi
  4072b4:	lea    eax,[ebp-0x14d8]
  4072ba:	mov    DWORD PTR [ebp-0x1238],0x40104c
  4072c4:	push   eax
  4072c5:	push   0x9
  4072c7:	push   0x0
  4072c9:	mov    ecx,ebx
  4072cb:	mov    DWORD PTR [ebp-0x1248],0xc00c0
  4072d5:	mov    DWORD PTR [ebp-0x1250],edi
  4072db:	mov    DWORD PTR [ebp-0x1240],edi
  4072e1:	mov    DWORD PTR [ebp-0x1228],0xfe
  4072eb:	call   0x410a21
  4072f0:	test   eax,eax
  4072f2:	jne    0x40730d
  4072f4:	push   0x2
  4072f6:	call   0x411711
  4072fb:	pop    ecx
  4072fc:	mov    edx,0x20001
  407301:	mov    ecx,eax
  407303:	call   0x40c74a
  407308:	jmp    0x40811e
  40730d:	mov    esi,DWORD PTR [ebp-0x140c]
  407313:	mov    ebx,DWORD PTR [ebp-0x145c]
  407319:	mov    DWORD PTR [ebp-0x14ec],ebx
  40731f:	mov    DWORD PTR [ebp-0x14dc],esi
  407325:	mov    DWORD PTR [ebp-0x14e8],esi
  40732b:	test   esi,esi
  40732d:	jne    0x40734b
  40732f:	mov    ecx,0x1fc
  407334:	call   0x40dc18
  407339:	mov    esi,eax
  40733b:	mov    DWORD PTR [ebp-0x14dc],esi
  407341:	mov    DWORD PTR [ebp-0x14e8],esi
  407347:	test   esi,esi
  407349:	je     0x4072f4
  40734b:	push   ecx
  40734c:	xor    edx,edx
  40734e:	mov    ecx,ebx
  407350:	call   0x40cf40
  407355:	push   ecx
  407356:	xor    edx,edx
  407358:	mov    ecx,esi
  40735a:	call   0x40cf40
  40735f:	push   ecx
  407360:	xor    edx,edx
  407362:	lea    ecx,[ebp-0xe08]
  407368:	call   0x40cf40
  40736d:	push   ecx
  40736e:	xor    edx,edx
  407370:	lea    ecx,[ebp-0xc08]
  407376:	call   0x40cf40
  40737b:	push   ecx
  40737c:	xor    edx,edx
  40737e:	lea    ecx,[ebp-0xa08]
  407384:	call   0x40cf40
  407389:	cmp    DWORD PTR [ebp-0x14f8],edi
  40738f:	jne    0x4073bc
  407391:	cmp    DWORD PTR [ebp-0x14f0],0x3
  407398:	jbe    0x4073bc
  40739a:	mov    ecx,0x430
  40739f:	call   0x40c92c
  4073a4:	push   0x2
  4073a6:	mov    esi,eax
  4073a8:	call   0x411711
  4073ad:	pop    ecx
  4073ae:	mov    edx,esi
  4073b0:	mov    ecx,eax
  4073b2:	call   0x40d474
  4073b7:	jmp    0x40811e
  4073bc:	cmp    DWORD PTR [ebp-0x146c],0x0
  4073c3:	je     0x4073f2
  4073c5:	mov    ecx,ebx
  4073c7:	call   0x40d408
  4073cc:	test   eax,eax
  4073ce:	jne    0x4073f2
  4073d0:	mov    ecx,0x30e
  4073d5:	call   0x40c92c
  4073da:	push   0x2
  4073dc:	mov    esi,eax
  4073de:	call   0x411711
  4073e3:	pop    ecx
  4073e4:	mov    edx,esi
  4073e6:	mov    ecx,eax
  4073e8:	call   0x40d474
  4073ed:	jmp    0x408108
  4073f2:	mov    eax,DWORD PTR [ebp-0x141c]
  4073f8:	test   eax,eax
  4073fa:	je     0x407414
  4073fc:	mov    ecx,esi
  4073fe:	call   0x40d408
  407403:	test   eax,eax
  407405:	jne    0x40740e
  407407:	mov    ecx,0x30f
  40740c:	jmp    0x4073d5
  40740e:	mov    eax,DWORD PTR [ebp-0x141c]
  407414:	cmp    DWORD PTR [ebp-0x146c],0x0
  40741b:	jne    0x407428
  40741d:	test   eax,eax
  40741f:	je     0x40742c
  407421:	mov    ecx,0x30b
  407426:	jmp    0x4073d5
  407428:	test   eax,eax
  40742a:	jne    0x40743c
  40742c:	cmp    DWORD PTR [ebp-0x13cc],0x0
  407433:	je     0x40743c
  407435:	mov    ecx,0x30c
  40743a:	jmp    0x4073d5
  40743c:	cmp    DWORD PTR [ebp-0x14f8],0x0
  407443:	mov    ecx,ebx
  407445:	je     0x407482
  407447:	call   0x40c1d9
  40744c:	cmp    eax,edi
  40744e:	je     0x408108
  407454:	mov    ebx,0x2a8
  407459:	mov    ecx,ebx
  40745b:	call   0x40c92c
  407460:	push   edi
  407461:	mov    esi,eax
  407463:	call   0x411711
  407468:	pop    ecx
  407469:	mov    edx,esi
  40746b:	mov    ecx,eax
  40746d:	call   0x40d474
  407472:	inc    ebx
  407473:	cmp    ebx,0x2c4
  407479:	jbe    0x407459
  40747b:	xor    edi,edi
  40747d:	jmp    0x408108
  407482:	call   0x40eb0c
  407487:	test   eax,eax
  407489:	je     0x4074bb
  40748b:	call   0x40ea45
  407490:	test   eax,eax
  407492:	jne    0x4074bb
  407494:	mov    ecx,0xe87
  407499:	call   0x40c92c
  40749e:	push   0x2
  4074a0:	mov    esi,eax
  4074a2:	call   0x411711
  4074a7:	pop    ecx
  4074a8:	mov    edx,esi
  4074aa:	mov    ecx,eax
  4074ac:	call   0x40d474
  4074b1:	call   0x40c7e2
  4074b6:	jmp    0x40811e
  4074bb:	cmp    DWORD PTR [ebp-0x14e4],0x0
  4074c2:	ja     0x4074ce
  4074c4:	mov    ecx,0x1b8
  4074c9:	jmp    0x4073d5
  4074ce:	mov    ecx,ebx
  4074d0:	call   0x40eb0c
  4074d5:	test   eax,eax
  4074d7:	jne    0x407535
  4074d9:	cmp    DWORD PTR [ebp-0x13cc],eax
  4074df:	je     0x407508
  4074e1:	push   eax
  4074e2:	push   edi
  4074e3:	mov    edx,0x401134
  4074e8:	lea    ecx,[ebp-0x1208]
  4074ee:	call   0x40d41c
  4074f3:	test   eax,eax
  4074f5:	jne    0x4074ff
  4074f7:	mov    DWORD PTR [ebp-0x14fc],edi
  4074fd:	jmp    0x407535
  4074ff:	cmp    DWORD PTR [ebp-0x13cc],0x0
  407506:	jne    0x407535
  407508:	cmp    DWORD PTR [ebp-0x146c],0x0
  40750f:	jne    0x40751a
  407511:	cmp    DWORD PTR [ebp-0x141c],0x0
  407518:	je     0x407535
  40751a:	push   0xfe
  40751f:	mov    edx,0x40104c
  407524:	mov    DWORD PTR [ebp-0x14fc],edi
  40752a:	lea    ecx,[ebp-0x1208]
  407530:	call   0x40d369
  407535:	push   0x0
  407537:	push   edi
  407538:	mov    edx,0x4013c0
  40753d:	lea    ecx,[ebp-0xe08]
  407543:	call   0x40d41c
  407548:	test   eax,eax
  40754a:	je     0x407584
  40754c:	push   0x0
  40754e:	push   edi
  40754f:	mov    edx,0x4013c8
  407554:	lea    ecx,[ebp-0xe08]
  40755a:	call   0x40d41c
  40755f:	test   eax,eax
  407561:	je     0x407584
  407563:	push   0x0
  407565:	push   edi
  407566:	mov    edx,0x4013d0
  40756b:	lea    ecx,[ebp-0xe08]
  407571:	call   0x40d41c
  407576:	test   eax,eax
  407578:	je     0x407584
  40757a:	mov    ecx,0x430
  40757f:	jmp    0x4073d5
  407584:	push   0x0
  407586:	push   edi
  407587:	mov    edx,0x4013d0
  40758c:	lea    ecx,[ebp-0xe08]
  407592:	call   0x40d41c
  407597:	test   eax,eax
  407599:	jne    0x4075cf
  40759b:	lea    eax,[ebp-0xa08]
  4075a1:	test   eax,eax
  4075a3:	je     0x4075b0
  4075a5:	push   eax
  4075a6:	call   DWORD PTR ds:0x4130f0
  4075ac:	test   eax,eax
  4075ae:	jne    0x4075cf
  4075b0:	lea    eax,[ebp-0xc08]
  4075b6:	test   eax,eax
  4075b8:	je     0x4075c5
  4075ba:	push   eax
  4075bb:	call   DWORD PTR ds:0x4130f0
  4075c1:	test   eax,eax
  4075c3:	jne    0x4075cf
  4075c5:	mov    ecx,0x30a
  4075ca:	jmp    0x4073d5
  4075cf:	call   0x40e1e2
  4075d4:	test   eax,eax
  4075d6:	jne    0x4075f9
  4075d8:	push   0x8
  4075da:	call   DWORD PTR ds:0x413030
  4075e0:	push   0x2
  4075e2:	call   0x411711
  4075e7:	pop    ecx
  4075e8:	mov    edx,0x10001
  4075ed:	mov    ecx,eax
  4075ef:	call   0x40c74a
  4075f4:	jmp    0x408108
  4075f9:	push   0x2
  4075fb:	push   0x401150
  407600:	push   ebx
  407601:	call   DWORD PTR ds:0x413124
  407607:	test   eax,eax
  407609:	jne    0x407668
  40760b:	push   0x3
  40760d:	push   0x401158
  407612:	push   ebx
  407613:	call   DWORD PTR ds:0x413124
  407619:	test   eax,eax
  40761b:	je     0x407668
  40761d:	push   0x401150
  407622:	push   ebx
  407623:	call   DWORD PTR ds:0x4131b4
  407629:	mov    DWORD PTR [ebp-0x14f0],eax
  40762f:	pop    ecx
  407630:	pop    ecx
  407631:	test   eax,eax
  407633:	jne    0x407651
  407635:	push   eax
  407636:	push   edi
  407637:	mov    edx,0x401150
  40763c:	mov    ecx,ebx
  40763e:	call   0x40d41c
  407643:	test   eax,eax
  407645:	je     0x407651
  407647:	mov    ecx,0xe7d
  40764c:	jmp    0x40739f
  407651:	mov    ecx,ebx
  407653:	call   0x40dd9e
  407658:	mov    edx,DWORD PTR [ebp-0x14f0]
  40765e:	mov    ecx,ebx
  407660:	shr    eax,1
  407662:	push   eax
  407663:	call   0x40d369
  407668:	mov    ecx,ebx
  40766a:	call   0x40eb0c
  40766f:	cmp    eax,edi
  407671:	jne    0x4076a1
  407673:	mov    ecx,esi
  407675:	call   0x40d408
  40767a:	test   eax,eax
  40767c:	je     0x4076a1
  40767e:	mov    ecx,0x313
  407683:	call   0x40c92c
  407688:	push   0x2
  40768a:	mov    esi,eax
  40768c:	call   0x411711
  407691:	pop    ecx
  407692:	mov    edx,esi
  407694:	mov    ecx,eax
  407696:	call   0x40d474
  40769b:	mov    esi,DWORD PTR [ebp-0x14dc]
  4076a1:	lea    eax,[ebp-0x14e0]
  4076a7:	mov    edx,esi
  4076a9:	push   eax
  4076aa:	push   DWORD PTR [ebp-0x14fc]
  4076b0:	lea    eax,[ebp-0x208]
  4076b6:	mov    ecx,ebx
  4076b8:	push   eax
  4076b9:	lea    eax,[ebp-0x1208]
  4076bf:	push   eax
  4076c0:	call   0x404ec4
  4076c5:	test   eax,eax
  4076c7:	je     0x4080f7
  4076cd:	lea    ecx,[ebp-0x208]
  4076d3:	call   0x404b94
  4076d8:	mov    esi,eax
  4076da:	mov    DWORD PTR [ebp-0x14dc],esi
  4076e0:	test   esi,esi
  4076e2:	je     0x4080e1
  4076e8:	mov    edx,DWORD PTR [ebp-0x14e4]
  4076ee:	test   edx,edx
  4076f0:	je     0x4080c4
  4076f6:	mov    ecx,esi
  4076f8:	call   0x40e5c6
  4076fd:	cmp    edx,eax
  4076ff:	ja     0x4080c4
  407705:	dec    edx
  407706:	call   0x40e62c
  40770b:	mov    ecx,eax
  40770d:	call   0x40d408
  407712:	mov    ecx,0xfe
  407717:	cmp    eax,ecx
  407719:	jbe    0x40773f
  40771b:	push   ecx
  40771c:	mov    ecx,0xc12
  407721:	call   0x40c92c
  407726:	push   eax
  407727:	push   edi
  407728:	push   edi
  407729:	push   0x2
  40772b:	call   0x411711
  407730:	pop    ecx
  407731:	push   eax
  407732:	call   0x40d6cd
  407737:	add    esp,0x14
  40773a:	jmp    0x4080e1
  40773f:	mov    edx,DWORD PTR [ebp-0x14e4]
  407745:	mov    ecx,esi
  407747:	push   0xff
  40774c:	lea    edx,[edx-0x1]
  40774f:	call   0x40e62c
  407754:	mov    edx,eax
  407756:	lea    ecx,[ebp-0x808]
  40775c:	call   0x40d369
  407761:	lea    eax,[ebp-0x808]
  407767:	test   eax,eax
  407769:	je     0x4080a6
  40776f:	push   eax
  407770:	call   DWORD PTR ds:0x4130f0
  407776:	test   eax,eax
  407778:	je     0x4080a6
  40777e:	push   0x0
  407780:	push   edi
  407781:	mov    edx,0x4013c0
  407786:	lea    ecx,[ebp-0xe08]
  40778c:	call   0x40d41c
  407791:	push   0x0
  407793:	push   edi
  407794:	test   eax,eax
  407796:	jne    0x407aee
  40779c:	mov    esi,0x4013dc
  4077a1:	lea    ecx,[ebp-0x808]
  4077a7:	mov    edx,esi
  4077a9:	call   0x40ce8e
  4077ae:	cmp    eax,0xffffffff
  4077b1:	je     0x4077f2
  4077b3:	lea    eax,[ebp+eax*2-0x808]
  4077ba:	test   eax,eax
  4077bc:	je     0x4077f2
  4077be:	lea    eax,[ebp-0xa08]
  4077c4:	test   eax,eax
  4077c6:	je     0x4077d3
  4077c8:	push   eax
  4077c9:	call   DWORD PTR ds:0x4130f0
  4077cf:	test   eax,eax
  4077d1:	jne    0x4077f2
  4077d3:	lea    eax,[ebp-0xc08]
  4077d9:	test   eax,eax
  4077db:	je     0x4077e8
  4077dd:	push   eax
  4077de:	call   DWORD PTR ds:0x4130f0
  4077e4:	test   eax,eax
  4077e6:	jne    0x4077f2
  4077e8:	mov    ecx,0x2ca
  4077ed:	jmp    0x4080c9
  4077f2:	push   0x0
  4077f4:	push   edi
  4077f5:	mov    edx,esi
  4077f7:	lea    ecx,[ebp-0x808]
  4077fd:	call   0x40ce8e
  407802:	mov    esi,0x40119c
  407807:	cmp    eax,0xffffffff
  40780a:	je     0x407817
  40780c:	lea    eax,[ebp+eax*2-0x808]
  407813:	test   eax,eax
  407815:	jne    0x40783e
  407817:	push   0xff
  40781c:	mov    edx,esi
  40781e:	lea    ecx,[ebp-0x608]
  407824:	call   0x40d369
  407829:	push   0xff
  40782e:	mov    edx,0x4013dc
  407833:	lea    ecx,[ebp-0x608]
  407839:	call   0x40d3ce
  40783e:	lea    eax,[ebp-0x408]
  407844:	mov    edx,0x4013ec
  407849:	push   eax
  40784a:	lea    ecx,[ebp-0x808]
  407850:	call   0x40b162
  407855:	test   eax,eax
  407857:	jne    0x407893
  407859:	lea    eax,[ebp-0x408]
  40785f:	test   eax,eax
  407861:	je     0x407893
  407863:	push   eax
  407864:	call   DWORD PTR ds:0x4130f0
  40786a:	test   eax,eax
  40786c:	je     0x407893
  40786e:	lea    eax,[ebp-0xa08]
  407874:	test   eax,eax
  407876:	je     0x407893
  407878:	push   eax
  407879:	call   DWORD PTR ds:0x4130f0
  40787f:	test   eax,eax
  407881:	je     0x407893
  407883:	push   DWORD PTR [ebp-0x14e4]
  407889:	mov    ecx,0x27a
  40788e:	jmp    0x407721
  407893:	lea    eax,[ebp-0x408]
  407899:	mov    edx,0x401404
  40789e:	push   eax
  40789f:	lea    ecx,[ebp-0x808]
  4078a5:	call   0x40b162
  4078aa:	mov    DWORD PTR [ebp-0x14f0],eax
  4078b0:	lea    eax,[ebp-0x408]
  4078b6:	test   eax,eax
  4078b8:	je     0x4078de
  4078ba:	push   eax
  4078bb:	call   DWORD PTR ds:0x4130f0
  4078c1:	test   eax,eax
  4078c3:	je     0x4078de
  4078c5:	cmp    DWORD PTR [ebp-0x14f0],0x0
  4078cc:	jne    0x4078de
  4078ce:	push   DWORD PTR [ebp-0x14e4]
  4078d4:	mov    ecx,0xe7f
  4078d9:	jmp    0x407721
  4078de:	lea    eax,[ebp-0xa08]
  4078e4:	test   eax,eax
  4078e6:	je     0x4079e6
  4078ec:	push   eax
  4078ed:	call   DWORD PTR ds:0x4130f0
  4078f3:	test   eax,eax
  4078f5:	je     0x4079e6
  4078fb:	lea    eax,[ebp-0x1008]
  407901:	push   eax
  407902:	push   0x4011cc
  407907:	lea    ecx,[ebp-0x208]
  40790d:	call   0x4099f7
  407912:	cmp    eax,edi
  407914:	jne    0x407927
  407916:	push   0x2
  407918:	call   0x411711
  40791d:	mov    edx,0x20001
  407922:	jmp    0x4080ba
  407927:	lea    eax,[ebp-0x1008]
  40792d:	test   eax,eax
  40792f:	je     0x40795e
  407931:	push   eax
  407932:	call   DWORD PTR ds:0x4130f0
  407938:	test   eax,eax
  40793a:	je     0x40795e
  40793c:	push   0x0
  40793e:	push   edi
  40793f:	lea    edx,[ebp-0xa08]
  407945:	lea    ecx,[ebp-0x1008]
  40794b:	call   0x40d41c
  407950:	test   eax,eax
  407952:	jne    0x40795e
  407954:	mov    ecx,0xc15
  407959:	jmp    0x4080c9
  40795e:	lea    eax,[ebp-0x608]
  407964:	test   eax,eax
  407966:	je     0x407987
  407968:	push   eax
  407969:	call   DWORD PTR ds:0x4130f0
  40796f:	test   eax,eax
  407971:	je     0x407987
  407973:	push   0xff
  407978:	mov    edx,esi
  40797a:	lea    ecx,[ebp-0x608]
  407980:	call   0x40d3ce
  407985:	jmp    0x407999
  407987:	push   0xff
  40798c:	mov    edx,esi
  40798e:	lea    ecx,[ebp-0x608]
  407994:	call   0x40d369
  407999:	push   0xff
  40799e:	mov    edx,0x4013ec
  4079a3:	lea    ecx,[ebp-0x608]
  4079a9:	call   0x40d3ce
  4079ae:	push   0xff
  4079b3:	mov    edx,0x401198
  4079b8:	lea    ecx,[ebp-0x608]
  4079be:	call   0x40d3ce
  4079c3:	lea    eax,[ebp-0xa08]
  4079c9:	push   eax
  4079ca:	call   DWORD PTR ds:0x41313c
  4079d0:	push   0xff
  4079d5:	lea    edx,[ebp-0xa08]
  4079db:	lea    ecx,[ebp-0x608]
  4079e1:	call   0x40d3ce
  4079e6:	push   0xff
  4079eb:	mov    edx,0x401050
  4079f0:	lea    ecx,[ebp-0x408]
  4079f6:	call   0x40d369
  4079fb:	lea    edx,[ebp-0x408]
  407a01:	lea    ecx,[ebp-0x808]
  407a07:	call   0x408136
  407a0c:	lea    eax,[ebp-0xc08]
  407a12:	test   eax,eax
  407a14:	je     0x407ac2
  407a1a:	push   eax
  407a1b:	call   DWORD PTR ds:0x4130f0
  407a21:	test   eax,eax
  407a23:	je     0x407ac2
  407a29:	lea    eax,[ebp-0x408]
  407a2f:	test   eax,eax
  407a31:	je     0x407a4e
  407a33:	push   eax
  407a34:	call   DWORD PTR ds:0x4130f0
  407a3a:	test   eax,eax
  407a3c:	je     0x407a4e
  407a3e:	push   DWORD PTR [ebp-0x14e4]
  407a44:	mov    ecx,0x27b
  407a49:	jmp    0x407721
  407a4e:	lea    eax,[ebp-0x608]
  407a54:	test   eax,eax
  407a56:	je     0x407a77
  407a58:	push   eax
  407a59:	call   DWORD PTR ds:0x4130f0
  407a5f:	test   eax,eax
  407a61:	je     0x407a77
  407a63:	push   0xff
  407a68:	mov    edx,esi
  407a6a:	lea    ecx,[ebp-0x608]
  407a70:	call   0x40d3ce
  407a75:	jmp    0x407a89
  407a77:	push   0xff
  407a7c:	mov    edx,esi
  407a7e:	lea    ecx,[ebp-0x608]
  407a84:	call   0x40d369
  407a89:	mov    esi,0xff
  407a8e:	lea    ecx,[ebp-0x608]
  407a94:	push   esi
  407a95:	mov    edx,0x401424
  407a9a:	call   0x40d3ce
  407a9f:	push   esi
  407aa0:	mov    edx,0x401198
  407aa5:	lea    ecx,[ebp-0x608]
  407aab:	call   0x40d3ce
  407ab0:	push   esi
  407ab1:	lea    edx,[ebp-0xc08]
  407ab7:	lea    ecx,[ebp-0x608]
  407abd:	call   0x40d3ce
  407ac2:	mov    esi,DWORD PTR [ebp-0x14dc]
  407ac8:	lea    eax,[ebp-0x808]
  407ace:	push   eax
  407acf:	call   DWORD PTR ds:0x4130f0
  407ad5:	mov    DWORD PTR [ebp-0x14f0],eax
  407adb:	lea    eax,[ebp-0x608]
  407ae1:	test   eax,eax
  407ae3:	jne    0x407f37
  407ae9:	jmp    0x407f44
  407aee:	mov    edx,0x4013c8
  407af3:	lea    ecx,[ebp-0xe08]
  407af9:	call   0x40d41c
  407afe:	test   eax,eax
  407b00:	jne    0x407c8f
  407b06:	lea    eax,[ebp-0xa08]
  407b0c:	test   eax,eax
  407b0e:	je     0x407b1b
  407b10:	push   eax
  407b11:	call   DWORD PTR ds:0x4130f0
  407b17:	test   eax,eax
  407b19:	jne    0x407b30
  407b1b:	lea    eax,[ebp-0xc08]
  407b21:	test   eax,eax
  407b23:	je     0x407b68
  407b25:	push   eax
  407b26:	call   DWORD PTR ds:0x4130f0
  407b2c:	test   eax,eax
  407b2e:	je     0x407b68
  407b30:	lea    ecx,[ebp-0x14dc]
  407b36:	call   0x40e254
  407b3b:	mov    ecx,0x430
  407b40:	call   0x40c92c
  407b45:	push   0x2
  407b47:	mov    esi,eax
  407b49:	call   0x411711
  407b4e:	pop    ecx
  407b4f:	mov    edx,esi
  407b51:	mov    ecx,eax
  407b53:	call   0x40d474
  407b58:	lea    ecx,[ebp-0x208]
  407b5e:	call   0x4053d0
  407b63:	jmp    0x4080f7
  407b68:	push   0x0
  407b6a:	mov    esi,0x4013dc
  407b6f:	lea    ecx,[ebp-0x808]
  407b75:	push   edi
  407b76:	mov    edx,esi
  407b78:	call   0x40ce8e
  407b7d:	cmp    eax,0xffffffff
  407b80:	je     0x407c85
  407b86:	lea    eax,[ebp+eax*2-0x808]
  407b8d:	test   eax,eax
  407b8f:	je     0x407c85
  407b95:	mov    edx,esi
  407b97:	lea    ecx,[ebp-0x808]
  407b9d:	call   0x404db5
  407ba2:	cmp    eax,edi
  407ba4:	je     0x4080e1
  407baa:	mov    esi,0x401050
  407baf:	lea    ecx,[ebp-0x408]
  407bb5:	push   0xff
  407bba:	mov    edx,esi
  407bbc:	call   0x40d369
  407bc1:	lea    eax,[ebp-0x408]
  407bc7:	mov    edx,0x4013ec
  407bcc:	push   eax
  407bcd:	lea    ecx,[ebp-0x808]
  407bd3:	call   0x40b162
  407bd8:	push   0x0
  407bda:	push   edi
  407bdb:	mov    edx,0x401404
  407be0:	lea    ecx,[ebp-0x408]
  407be6:	call   0x40d41c
  407beb:	test   eax,eax
  407bed:	jne    0x407bf9
  407bef:	mov    ecx,0x808
  407bf4:	jmp    0x4080c9
  407bf9:	lea    eax,[ebp-0x408]
  407bff:	test   eax,eax
  407c01:	je     0x407c27
  407c03:	push   eax
  407c04:	call   DWORD PTR ds:0x4130f0
  407c0a:	test   eax,eax
  407c0c:	je     0x407c27
  407c0e:	lea    edx,[ebp-0x408]
  407c14:	lea    ecx,[ebp-0x808]
  407c1a:	call   0x404db5
  407c1f:	cmp    eax,edi
  407c21:	je     0x4080e1
  407c27:	push   0xff
  407c2c:	mov    edx,esi
  407c2e:	lea    ecx,[ebp-0x408]
  407c34:	call   0x40d369
  407c39:	lea    edx,[ebp-0x408]
  407c3f:	lea    ecx,[ebp-0x808]
  407c45:	call   0x408136
  407c4a:	lea    eax,[ebp-0x408]
  407c50:	test   eax,eax
  407c52:	je     0x407ac2
  407c58:	push   eax
  407c59:	call   DWORD PTR ds:0x4130f0
  407c5f:	test   eax,eax
  407c61:	je     0x407ac2
  407c67:	lea    edx,[ebp-0x408]
  407c6d:	lea    ecx,[ebp-0x808]
  407c73:	call   0x404db5
  407c78:	cmp    eax,edi
  407c7a:	jne    0x407ac2
  407c80:	jmp    0x4080e1
  407c85:	mov    ecx,0x302
  407c8a:	jmp    0x4080c9
  407c8f:	push   0x0
  407c91:	push   edi
  407c92:	mov    edx,0x401438
  407c97:	lea    ecx,[ebp-0xe08]
  407c9d:	call   0x40d41c
  407ca2:	test   eax,eax
  407ca4:	jne    0x407ac8
  407caa:	push   eax
  407cab:	push   edi
  407cac:	mov    edx,0x401404
  407cb1:	lea    ecx,[ebp-0x808]
  407cb7:	call   0x40ce8e
  407cbc:	cmp    eax,0xffffffff
  407cbf:	je     0x407cd6
  407cc1:	lea    eax,[ebp+eax*2-0x808]
  407cc8:	test   eax,eax
  407cca:	je     0x407cd6
  407ccc:	mov    ecx,0x80e
  407cd1:	jmp    0x4080c9
  407cd6:	push   0x0
  407cd8:	push   edi
  407cd9:	mov    edx,0x4013dc
  407cde:	lea    ecx,[ebp-0x808]
  407ce4:	call   0x40ce8e
  407ce9:	cmp    eax,0xffffffff
  407cec:	je     0x407f27
  407cf2:	lea    eax,[ebp+eax*2-0x808]
  407cf9:	test   eax,eax
  407cfb:	je     0x407f27
  407d01:	push   0xff
  407d06:	mov    edx,0x401050
  407d0b:	lea    ecx,[ebp-0x408]
  407d11:	call   0x40d369
  407d16:	lea    eax,[ebp-0x408]
  407d1c:	mov    edx,0x4013ec
  407d21:	push   eax
  407d22:	lea    ecx,[ebp-0x808]
  407d28:	call   0x40b162
  407d2d:	lea    eax,[ebp-0xa08]
  407d33:	test   eax,eax
  407d35:	je     0x407d42
  407d37:	push   eax
  407d38:	call   DWORD PTR ds:0x4130f0
  407d3e:	test   eax,eax
  407d40:	jne    0x407d5f
  407d42:	lea    eax,[ebp-0xc08]
  407d48:	test   eax,eax
  407d4a:	je     0x407b30
  407d50:	push   eax
  407d51:	call   DWORD PTR ds:0x4130f0
  407d57:	test   eax,eax
  407d59:	je     0x407b30
  407d5f:	lea    eax,[ebp-0xa08]
  407d65:	mov    esi,0x40119c
  407d6a:	test   eax,eax
  407d6c:	je     0x407eb6
  407d72:	push   eax
  407d73:	call   DWORD PTR ds:0x4130f0
  407d79:	test   eax,eax
  407d7b:	je     0x407eb6
  407d81:	push   0xff
  407d86:	mov    edx,0x401050
  407d8b:	lea    ecx,[ebp-0x408]
  407d91:	call   0x40d369
  407d96:	lea    eax,[ebp-0x408]
  407d9c:	mov    edx,0x4013ec
  407da1:	push   eax
  407da2:	lea    ecx,[ebp-0x808]
  407da8:	call   0x40b162
  407dad:	lea    eax,[ebp-0x408]
  407db3:	test   eax,eax
  407db5:	je     0x407f17
  407dbb:	push   eax
  407dbc:	call   DWORD PTR ds:0x4130f0
  407dc2:	test   eax,eax
  407dc4:	je     0x407f17
  407dca:	lea    edx,[ebp-0x408]
  407dd0:	lea    ecx,[ebp-0x808]
  407dd6:	call   0x404db5
  407ddb:	cmp    eax,edi
  407ddd:	je     0x4080e1
  407de3:	push   0xff
  407de8:	mov    edx,esi
  407dea:	lea    ecx,[ebp-0x608]
  407df0:	call   0x40d369
  407df5:	push   0xff
  407dfa:	mov    edx,0x4013ec
  407dff:	lea    ecx,[ebp-0x608]
  407e05:	call   0x40d3ce
  407e0a:	push   0xff
  407e0f:	mov    edx,0x401198
  407e14:	lea    ecx,[ebp-0x608]
  407e1a:	call   0x40d3ce
  407e1f:	lea    eax,[ebp-0xa08]
  407e25:	push   eax
  407e26:	call   DWORD PTR ds:0x413138
  407e2c:	push   0xff
  407e31:	lea    edx,[ebp-0xa08]
  407e37:	lea    ecx,[ebp-0x608]
  407e3d:	call   0x40d3ce
  407e42:	lea    eax,[ebp-0x1008]
  407e48:	push   eax
  407e49:	push   0x4011cc
  407e4e:	lea    ecx,[ebp-0x208]
  407e54:	call   0x4099f7
  407e59:	cmp    eax,edi
  407e5b:	jne    0x407e85
  407e5d:	push   0x2
  407e5f:	call   0x411711
  407e64:	pop    ecx
  407e65:	mov    edx,0x20001
  407e6a:	mov    ecx,eax
  407e6c:	call   0x40c74a
  407e71:	push   0x2
  407e73:	call   0x411711
  407e78:	pop    ecx
  407e79:	mov    ecx,eax
  407e7b:	call   0x40c71f
  407e80:	jmp    0x4080e1
  407e85:	lea    eax,[ebp-0x1008]
  407e8b:	test   eax,eax
  407e8d:	je     0x407eb6
  407e8f:	push   eax
  407e90:	call   DWORD PTR ds:0x4130f0
  407e96:	test   eax,eax
  407e98:	je     0x407eb6
  407e9a:	push   0x0
  407e9c:	push   edi
  407e9d:	lea    edx,[ebp-0xa08]
  407ea3:	lea    ecx,[ebp-0x1008]
  407ea9:	call   0x40d41c
  407eae:	test   eax,eax
  407eb0:	je     0x407954
  407eb6:	lea    eax,[ebp-0xc08]
  407ebc:	test   eax,eax
  407ebe:	je     0x407ac2
  407ec4:	push   eax
  407ec5:	call   DWORD PTR ds:0x4130f0
  407ecb:	test   eax,eax
  407ecd:	je     0x407ac2
  407ed3:	push   0xff
  407ed8:	mov    edx,0x401050
  407edd:	lea    ecx,[ebp-0x408]
  407ee3:	call   0x40d369
  407ee8:	lea    edx,[ebp-0x408]
  407eee:	lea    ecx,[ebp-0x808]
  407ef4:	call   0x408136
  407ef9:	lea    edx,[ebp-0x408]
  407eff:	lea    ecx,[ebp-0x808]
  407f05:	call   0x404db5
  407f0a:	cmp    eax,edi
  407f0c:	je     0x4080e1
  407f12:	jmp    0x407a4e
  407f17:	push   DWORD PTR [ebp-0x14e4]
  407f1d:	mov    ecx,0x277
  407f22:	jmp    0x407721
  407f27:	push   DWORD PTR [ebp-0x14e4]
  407f2d:	mov    ecx,0x279
  407f32:	jmp    0x407721
  407f37:	lea    eax,[ebp-0x608]
  407f3d:	push   eax
  407f3e:	call   DWORD PTR ds:0x4130f0
  407f44:	add    eax,DWORD PTR [ebp-0x14f0]
  407f4a:	mov    ecx,0xfe
  407f4f:	cmp    eax,ecx
  407f51:	ja     0x40771b
  407f57:	push   0xff
  407f5c:	lea    edx,[ebp-0x608]
  407f62:	lea    ecx,[ebp-0x808]
  407f68:	call   0x40d3ce
  407f6d:	mov    edx,DWORD PTR [ebp-0x14e4]
  407f73:	mov    ecx,esi
  407f75:	lea    edx,[edx-0x1]
  407f78:	call   0x40e56f
  407f7d:	mov    edx,DWORD PTR [ebp-0x14e4]
  407f83:	lea    eax,[ebp-0x808]
  407f89:	push   0x0
  407f8b:	push   eax
  407f8c:	mov    ecx,esi
  407f8e:	lea    edx,[edx-0x1]
  407f91:	call   0x40e4f5
  407f96:	lea    edx,[ebp-0x14f4]
  407f9c:	mov    ecx,esi
  407f9e:	call   0x405424
  407fa3:	cmp    eax,edi
  407fa5:	jne    0x407fc2
  407fa7:	lea    ecx,[ebp-0x14dc]
  407fad:	call   0x40e254
  407fb2:	lea    ecx,[ebp-0x14f4]
  407fb8:	call   0x40db64
  407fbd:	jmp    0x407b58
  407fc2:	lea    eax,[ebp-0x208]
  407fc8:	push   eax
  407fc9:	push   DWORD PTR [ebp-0x14f4]
  407fcf:	push   0x401160
  407fd4:	call   DWORD PTR ds:0x413020
  407fda:	test   eax,eax
  407fdc:	je     0x408052
  407fde:	push   DWORD PTR [ebp-0x14e4]
  407fe4:	mov    ecx,0x276
  407fe9:	call   0x40c92c
  407fee:	push   eax
  407fef:	push   edi
  407ff0:	push   edi
  407ff1:	push   edi
  407ff2:	call   0x411711
  407ff7:	pop    ecx
  407ff8:	push   eax
  407ff9:	call   0x40d6cd
  407ffe:	add    esp,0x14
  408001:	lea    ecx,[ebp-0x208]
  408007:	call   0x4053d0
  40800c:	lea    ecx,[ebp-0x14f4]
  408012:	mov    esi,eax
  408014:	call   0x40db64
  408019:	cmp    DWORD PTR [ebp-0x14e0],0x0
  408020:	je     0x40802a
  408022:	push   ecx
  408023:	mov    ecx,ebx
  408025:	call   0x40f1cf
  40802a:	lea    ecx,[ebp-0x14dc]
  408030:	call   0x40e254
  408035:	lea    ecx,[ebp-0x14ec]
  40803b:	call   0x40db64
  408040:	lea    ecx,[ebp-0x14e8]
  408046:	call   0x40db64
  40804b:	mov    eax,esi
  40804d:	jmp    0x408120
  408052:	call   0x40c619
  408057:	push   0x2
  408059:	call   0x411711
  40805e:	pop    ecx
  40805f:	mov    ecx,eax
  408061:	call   0x40c71f
  408066:	mov    ecx,0x84
  40806b:	call   0x40c92c
  408070:	push   0x2
  408072:	mov    esi,eax
  408074:	call   0x411711
  408079:	pop    ecx
  40807a:	mov    edx,esi
  40807c:	mov    ecx,eax
  40807e:	call   0x40d474
  408083:	lea    ecx,[ebp-0x14dc]
  408089:	call   0x40e254
  40808e:	lea    ecx,[ebp-0x208]
  408094:	call   0x4053d0
  408099:	lea    ecx,[ebp-0x14f4]
  40809f:	call   0x40db64
  4080a4:	jmp    0x4080f7
  4080a6:	push   0x8
  4080a8:	call   DWORD PTR ds:0x413030
  4080ae:	push   0x2
  4080b0:	call   0x411711
  4080b5:	mov    edx,0x10001
  4080ba:	pop    ecx
  4080bb:	mov    ecx,eax
  4080bd:	call   0x40c74a
  4080c2:	jmp    0x4080e1
  4080c4:	mov    ecx,0x1b8
  4080c9:	call   0x40c92c
  4080ce:	push   0x2
  4080d0:	mov    esi,eax
  4080d2:	call   0x411711
  4080d7:	pop    ecx
  4080d8:	mov    edx,esi
  4080da:	mov    ecx,eax
  4080dc:	call   0x40d474
  4080e1:	lea    ecx,[ebp-0x208]
  4080e7:	call   0x4053d0
  4080ec:	lea    ecx,[ebp-0x14dc]
  4080f2:	call   0x40e254
  4080f7:	cmp    DWORD PTR [ebp-0x14e0],0x0
  4080fe:	je     0x408108
  408100:	push   ecx
  408101:	mov    ecx,ebx
  408103:	call   0x40f1cf
  408108:	lea    ecx,[ebp-0x14ec]
  40810e:	call   0x40db64
  408113:	lea    ecx,[ebp-0x14e8]
  408119:	call   0x40db64
  40811e:	mov    eax,edi
  408120:	mov    ecx,DWORD PTR [ebp-0x4]
  408123:	pop    edi
  408124:	pop    esi
  408125:	xor    ecx,ebp
  408127:	pop    ebx
  408128:	call   0x411090
  40812d:	mov    esp,ebp
  40812f:	pop    ebp
  408130:	ret    
  408131:	int3   
  408132:	int3   
  408133:	int3   
  408134:	int3   
  408135:	int3   
  408136:	mov    edi,edi
  408138:	push   ebx
  408139:	push   esi
  40813a:	push   edi
  40813b:	xor    ebx,ebx
  40813d:	mov    edi,edx
  40813f:	push   ebx
  408140:	push   0x1
  408142:	mov    edx,0x401444
  408147:	mov    esi,ecx
  408149:	call   0x40ce8e
  40814e:	cmp    eax,0xffffffff
  408151:	je     0x408164
  408153:	lea    eax,[esi+eax*2]
  408156:	test   eax,eax
  408158:	je     0x408164
  40815a:	mov    edx,0x401444
  40815f:	jmp    0x4081e9
  408164:	push   ebx
  408165:	push   0x1
  408167:	mov    edx,0x401464
  40816c:	mov    ecx,esi
  40816e:	call   0x40ce8e
  408173:	cmp    eax,0xffffffff
  408176:	je     0x408186
  408178:	lea    eax,[esi+eax*2]
  40817b:	test   eax,eax
  40817d:	je     0x408186
  40817f:	mov    edx,0x401464
  408184:	jmp    0x4081e9
  408186:	push   ebx
  408187:	push   0x1
  408189:	mov    edx,0x401484
  40818e:	mov    ecx,esi
  408190:	call   0x40ce8e
  408195:	cmp    eax,0xffffffff
  408198:	je     0x4081a8
  40819a:	lea    eax,[esi+eax*2]
  40819d:	test   eax,eax
  40819f:	je     0x4081a8
  4081a1:	mov    edx,0x401484
  4081a6:	jmp    0x4081e9
  4081a8:	push   ebx
  4081a9:	push   0x1
  4081ab:	mov    edx,0x4014a4
  4081b0:	mov    ecx,esi
  4081b2:	call   0x40ce8e
  4081b7:	cmp    eax,0xffffffff
  4081ba:	je     0x4081ca
  4081bc:	lea    eax,[esi+eax*2]
  4081bf:	test   eax,eax
  4081c1:	je     0x4081ca
  4081c3:	mov    edx,0x4014a4
  4081c8:	jmp    0x4081e9
  4081ca:	push   ebx
  4081cb:	mov    ebx,0x4014c8
  4081d0:	mov    ecx,esi
  4081d2:	push   0x1
  4081d4:	mov    edx,ebx
  4081d6:	call   0x40ce8e
  4081db:	cmp    eax,0xffffffff
  4081de:	je     0x4081f5
  4081e0:	lea    eax,[esi+eax*2]
  4081e3:	test   eax,eax
  4081e5:	je     0x4081f5
  4081e7:	mov    edx,ebx
  4081e9:	push   0xfe
  4081ee:	mov    ecx,edi
  4081f0:	call   0x40d369
  4081f5:	pop    edi
  4081f6:	pop    esi
  4081f7:	pop    ebx
  4081f8:	ret    
  4081f9:	int3   
  4081fa:	int3   
  4081fb:	int3   
  4081fc:	int3   
  4081fd:	int3   
  4081fe:	mov    edi,edi
  408200:	push   ebp
  408201:	mov    ebp,esp
  408203:	mov    eax,0x170c
  408208:	call   0x411740
  40820d:	mov    eax,ds:0x412004
  408212:	xor    eax,ebp
  408214:	mov    DWORD PTR [ebp-0x4],eax
  408217:	push   ebx
  408218:	xor    eax,eax
  40821a:	mov    ebx,ecx
  40821c:	push   esi
  40821d:	push   edi
  40821e:	mov    edi,0x1fa
  408223:	mov    DWORD PTR [ebp-0x1708],eax
  408229:	push   edi
  40822a:	push   eax
  40822b:	mov    DWORD PTR [ebp-0x16f0],eax
  408231:	mov    esi,edx
  408233:	mov    DWORD PTR [ebp-0x170c],eax
  408239:	mov    DWORD PTR [ebp-0x16f4],eax
  40823f:	mov    DWORD PTR [ebp-0x16dc],eax
  408245:	mov    DWORD PTR [ebp-0x16e8],eax
  40824b:	mov    DWORD PTR [ebp-0x16fc],eax
  408251:	mov    DWORD PTR [ebp-0x16f8],eax
  408257:	mov    DWORD PTR [ebp-0x1208],eax
  40825d:	lea    eax,[ebp-0x1204]
  408263:	push   eax
  408264:	mov    DWORD PTR [ebp-0x16ec],ebx
  40826a:	call   0x411770
  40826f:	and    DWORD PTR [ebp-0x208],0x0
  408276:	lea    eax,[ebp-0x204]
  40827c:	add    esp,0xc
  40827f:	push   edi
  408280:	push   0x0
  408282:	push   eax
  408283:	call   0x411770
  408288:	and    DWORD PTR [ebp-0x408],0x0
  40828f:	lea    eax,[ebp-0x404]
  408295:	add    esp,0xc
  408298:	push   edi
  408299:	push   0x0
  40829b:	push   eax
  40829c:	call   0x411770
  4082a1:	and    DWORD PTR [ebp-0xe08],0x0
  4082a8:	lea    eax,[ebp-0xe04]
  4082ae:	add    esp,0xc
  4082b1:	push   edi
  4082b2:	push   0x0
  4082b4:	push   eax
  4082b5:	call   0x411770
  4082ba:	and    DWORD PTR [ebp-0x808],0x0
  4082c1:	lea    eax,[ebp-0x804]
  4082c7:	add    esp,0xc
  4082ca:	push   edi
  4082cb:	push   0x0
  4082cd:	push   eax
  4082ce:	call   0x411770
  4082d3:	and    DWORD PTR [ebp-0x608],0x0
  4082da:	lea    eax,[ebp-0x604]
  4082e0:	add    esp,0xc
  4082e3:	push   edi
  4082e4:	push   0x0
  4082e6:	push   eax
  4082e7:	call   0x411770
  4082ec:	and    DWORD PTR [ebp-0xa08],0x0
  4082f3:	lea    eax,[ebp-0xa04]
  4082f9:	add    esp,0xc
  4082fc:	push   edi
  4082fd:	push   0x0
  4082ff:	push   eax
  408300:	call   0x411770
  408305:	add    esp,0xc
  408308:	xor    eax,eax
  40830a:	mov    DWORD PTR [ebp-0x16e4],eax
  408310:	mov    DWORD PTR [ebp-0x1704],eax
  408316:	mov    DWORD PTR [ebp-0x1008],eax
  40831c:	push   edi
  40831d:	push   eax
  40831e:	lea    eax,[ebp-0x1004]
  408324:	push   eax
  408325:	call   0x411770
  40832a:	add    esp,0xc
  40832d:	xor    eax,eax
  40832f:	mov    DWORD PTR [ebp-0x1700],eax
  408335:	mov    DWORD PTR [ebp-0xc08],eax
  40833b:	push   edi
  40833c:	push   eax
  40833d:	lea    eax,[ebp-0xc04]
  408343:	push   eax
  408344:	call   0x411770
  408349:	and    DWORD PTR [ebp-0x1408],0x0
  408350:	lea    eax,[ebp-0x1404]
  408356:	add    esp,0xc
  408359:	push   edi
  40835a:	push   0x0
  40835c:	push   eax
  40835d:	call   0x411770
  408362:	add    esp,0xc
  408365:	lea    eax,[ebp-0x16d8]
  40836b:	and    DWORD PTR [ebp-0x16e0],0x0
  408372:	mov    ecx,0x2d0
  408377:	mov    BYTE PTR [eax],0x0
  40837a:	inc    eax
  40837b:	sub    ecx,0x1
  40837e:	jne    0x408377
  408380:	push   0xff
  408385:	mov    edx,0x401134
  40838a:	lea    ecx,[ebp-0x1208]
  408390:	call   0x40d369
  408395:	push   0x8
  408397:	mov    edx,0x401054
  40839c:	lea    ecx,[ebp-0x16d8]
  4083a2:	call   0x40d306
  4083a7:	xor    edi,edi
  4083a9:	mov    DWORD PTR [ebp-0x16b8],0x4010c0
  4083b3:	lea    eax,[ebp-0x170c]
  4083b9:	mov    DWORD PTR [ebp-0x16d0],0xa
  4083c3:	inc    edi
  4083c4:	mov    DWORD PTR [ebp-0x16ac],eax
  4083ca:	push   0x8
  4083cc:	mov    edx,0x401054
  4083d1:	mov    DWORD PTR [ebp-0x16c0],edi
  4083d7:	lea    ecx,[ebp-0x1688]
  4083dd:	call   0x40d306
  4083e2:	and    DWORD PTR [ebp-0x1674],0x0
  4083e9:	lea    ecx,[ebp-0x1638]
  4083ef:	push   0x8
  4083f1:	mov    edx,0x401054
  4083f6:	mov    DWORD PTR [ebp-0x1668],0x401138
  408400:	mov    DWORD PTR [ebp-0x1678],0x12000
  40840a:	mov    DWORD PTR [ebp-0x1680],edi
  408410:	mov    DWORD PTR [ebp-0x1670],edi
  408416:	call   0x40d306
  40841b:	and    DWORD PTR [ebp-0x1624],0x0
  408422:	lea    ecx,[ebp-0x15e8]
  408428:	push   0x8
  40842a:	mov    edx,0x401054
  40842f:	mov    DWORD PTR [ebp-0x1618],0x40113c
  408439:	mov    DWORD PTR [ebp-0x1628],0x12000
  408443:	mov    DWORD PTR [ebp-0x1630],edi
  408449:	mov    DWORD PTR [ebp-0x1620],edi
  40844f:	call   0x40d306
  408454:	and    DWORD PTR [ebp-0x15d4],0x0
  40845b:	lea    eax,[ebp-0x1208]
  408461:	push   0x8
  408463:	mov    edx,0x401054
  408468:	mov    DWORD PTR [ebp-0x15c8],0x401140
  408472:	lea    ecx,[ebp-0x1598]
  408478:	mov    DWORD PTR [ebp-0x15d8],0x10
  408482:	mov    DWORD PTR [ebp-0x15e0],edi
  408488:	mov    DWORD PTR [ebp-0x15d0],edi
  40848e:	mov    DWORD PTR [ebp-0x15bc],eax
  408494:	mov    DWORD PTR [ebp-0x15b8],0xfe
  40849e:	call   0x40d306
  4084a3:	and    DWORD PTR [ebp-0x1584],0x0
  4084aa:	lea    eax,[ebp-0x1708]
  4084b0:	push   0x8
  4084b2:	mov    edx,0x401054
  4084b7:	mov    DWORD PTR [ebp-0x1578],0x401084
  4084c1:	lea    ecx,[ebp-0x1548]
  4084c7:	mov    DWORD PTR [ebp-0x1588],0x20000
  4084d1:	mov    DWORD PTR [ebp-0x1590],0xa
  4084db:	mov    DWORD PTR [ebp-0x1580],edi
  4084e1:	mov    DWORD PTR [ebp-0x156c],eax
  4084e7:	call   0x40d306
  4084ec:	and    DWORD PTR [ebp-0x1534],0x0
  4084f3:	lea    eax,[ebp-0x16f4]
  4084f9:	push   0x8
  4084fb:	mov    edx,0x401054
  408500:	mov    DWORD PTR [ebp-0x1528],0x401148
  40850a:	lea    ecx,[ebp-0x14f8]
  408510:	mov    DWORD PTR [ebp-0x1538],0x2000
  40851a:	mov    DWORD PTR [ebp-0x1540],0x3
  408524:	mov    DWORD PTR [ebp-0x1530],edi
  40852a:	mov    DWORD PTR [ebp-0x151c],eax
  408530:	call   0x40d306
  408535:	and    DWORD PTR [ebp-0x14e4],0x0
  40853c:	lea    eax,[ebp-0x408]
  408542:	mov    DWORD PTR [ebp-0x14d8],0x401344
  40854c:	mov    DWORD PTR [ebp-0x14e8],0x20c2
  408556:	mov    DWORD PTR [ebp-0x14f0],edi
  40855c:	mov    DWORD PTR [ebp-0x14e0],edi
  408562:	mov    DWORD PTR [ebp-0x14cc],eax
  408568:	mov    DWORD PTR [ebp-0x14d0],0x4014e8
  408572:	mov    DWORD PTR [ebp-0x14c8],0xfe
  40857c:	push   0x8
  40857e:	mov    edx,0x401054
  408583:	lea    ecx,[ebp-0x14a8]
  408589:	call   0x40d306
  40858e:	and    DWORD PTR [ebp-0x1494],0x0
  408595:	lea    eax,[ebp-0x608]
  40859b:	push   0x8
  40859d:	mov    edx,0x401054
  4085a2:	mov    DWORD PTR [ebp-0x1488],0x401378
  4085ac:	lea    ecx,[ebp-0x1458]
  4085b2:	mov    DWORD PTR [ebp-0x1498],0x20c2
  4085bc:	mov    DWORD PTR [ebp-0x14a0],edi
  4085c2:	mov    DWORD PTR [ebp-0x1490],edi
  4085c8:	mov    DWORD PTR [ebp-0x147c],eax
  4085ce:	mov    DWORD PTR [ebp-0x1480],0x401520
  4085d8:	mov    DWORD PTR [ebp-0x1478],0xfe
  4085e2:	call   0x40d306
  4085e7:	and    DWORD PTR [ebp-0x1444],0x0
  4085ee:	lea    eax,[ebp-0xe08]
  4085f4:	push   ecx
  4085f5:	mov    DWORD PTR [ebp-0x142c],eax
  4085fb:	mov    edx,esi
  4085fd:	lea    eax,[ebp-0x16d8]
  408603:	mov    DWORD PTR [ebp-0x1438],0x40104c
  40860d:	push   eax
  40860e:	push   0x9
  408610:	push   0x0
  408612:	mov    ecx,ebx
  408614:	mov    DWORD PTR [ebp-0x1448],0xc00c0
  40861e:	mov    DWORD PTR [ebp-0x1450],edi
  408624:	mov    DWORD PTR [ebp-0x1440],edi
  40862a:	mov    DWORD PTR [ebp-0x1428],0xfe
  408634:	call   0x410a21
  408639:	test   eax,eax
  40863b:	jne    0x408656
  40863d:	push   0x2
  40863f:	call   0x411711
  408644:	pop    ecx
  408645:	mov    edx,0x20001
  40864a:	mov    ecx,eax
  40864c:	call   0x40c74a
  408651:	jmp    0x408b81
  408656:	mov    esi,DWORD PTR [ebp-0x160c]
  40865c:	mov    ebx,DWORD PTR [ebp-0x165c]
  408662:	mov    DWORD PTR [ebp-0x16fc],ebx
  408668:	mov    DWORD PTR [ebp-0x16e8],esi
  40866e:	mov    DWORD PTR [ebp-0x16f8],esi
  408674:	test   esi,esi
  408676:	jne    0x408694
  408678:	mov    ecx,0x1fc
  40867d:	call   0x40dc18
  408682:	mov    esi,eax
  408684:	mov    DWORD PTR [ebp-0x16e8],esi
  40868a:	mov    DWORD PTR [ebp-0x16f8],esi
  408690:	test   esi,esi
  408692:	je     0x40863d
  408694:	push   ecx
  408695:	xor    edx,edx
  408697:	mov    ecx,ebx
  408699:	call   0x40cf40
  40869e:	push   ecx
  40869f:	xor    edx,edx
  4086a1:	mov    ecx,esi
  4086a3:	call   0x40cf40
  4086a8:	cmp    DWORD PTR [ebp-0x1708],edi
  4086ae:	jne    0x4086db
  4086b0:	cmp    DWORD PTR [ebp-0x16ec],0x3
  4086b7:	jbe    0x4086db
  4086b9:	mov    ecx,0x431
  4086be:	call   0x40c92c
  4086c3:	push   0x2
  4086c5:	mov    esi,eax
  4086c7:	call   0x411711
  4086cc:	pop    ecx
  4086cd:	mov    edx,esi
  4086cf:	mov    ecx,eax
  4086d1:	call   0x40d474
  4086d6:	jmp    0x408b81
  4086db:	cmp    DWORD PTR [ebp-0x166c],0x0
  4086e2:	je     0x408711
  4086e4:	mov    ecx,ebx
  4086e6:	call   0x40d408
  4086eb:	test   eax,eax
  4086ed:	jne    0x408711
  4086ef:	mov    ecx,0x30e
  4086f4:	call   0x40c92c
  4086f9:	push   0x2
  4086fb:	mov    esi,eax
  4086fd:	call   0x411711
  408702:	pop    ecx
  408703:	mov    edx,esi
  408705:	mov    ecx,eax
  408707:	call   0x40d474
  40870c:	jmp    0x408b6b
  408711:	mov    eax,DWORD PTR [ebp-0x161c]
  408717:	test   eax,eax
  408719:	je     0x408733
  40871b:	mov    ecx,esi
  40871d:	call   0x40d408
  408722:	test   eax,eax
  408724:	jne    0x40872d
  408726:	mov    ecx,0x30f
  40872b:	jmp    0x4086f4
  40872d:	mov    eax,DWORD PTR [ebp-0x161c]
  408733:	cmp    DWORD PTR [ebp-0x166c],0x0
  40873a:	jne    0x408747
  40873c:	test   eax,eax
  40873e:	je     0x40874b
  408740:	mov    ecx,0x30b
  408745:	jmp    0x4086f4
  408747:	test   eax,eax
  408749:	jne    0x40875b
  40874b:	cmp    DWORD PTR [ebp-0x15cc],0x0
  408752:	je     0x40875b
  408754:	mov    ecx,0x30c
  408759:	jmp    0x4086f4
  40875b:	cmp    DWORD PTR [ebp-0x1708],0x0
  408762:	mov    ecx,ebx
  408764:	je     0x4087a1
  408766:	call   0x40c1d9
  40876b:	cmp    eax,edi
  40876d:	je     0x408b6b
  408773:	mov    ebx,0x285
  408778:	mov    ecx,ebx
  40877a:	call   0x40c92c
  40877f:	push   edi
  408780:	mov    esi,eax
  408782:	call   0x411711
  408787:	pop    ecx
  408788:	mov    edx,esi
  40878a:	mov    ecx,eax
  40878c:	call   0x40d474
  408791:	inc    ebx
  408792:	cmp    ebx,0x2a7
  408798:	jbe    0x408778
  40879a:	xor    edi,edi
  40879c:	jmp    0x408b6b
  4087a1:	call   0x40eb0c
  4087a6:	test   eax,eax
  4087a8:	je     0x4087da
  4087aa:	call   0x40ea45
  4087af:	test   eax,eax
  4087b1:	jne    0x4087da
  4087b3:	mov    ecx,0xe87
  4087b8:	call   0x40c92c
  4087bd:	push   0x2
  4087bf:	mov    esi,eax
  4087c1:	call   0x411711
  4087c6:	pop    ecx
  4087c7:	mov    edx,esi
  4087c9:	mov    ecx,eax
  4087cb:	call   0x40d474
  4087d0:	call   0x40c7e2
  4087d5:	jmp    0x408b81
  4087da:	xor    esi,esi
  4087dc:	lea    ecx,[ebp-0xe08]
  4087e2:	push   esi
  4087e3:	push   edi
  4087e4:	mov    edx,0x4013c0
  4087e9:	call   0x40d41c
  4087ee:	test   eax,eax
  4087f0:	je     0x408828
  4087f2:	push   esi
  4087f3:	push   edi
  4087f4:	mov    edx,0x4013c8
  4087f9:	lea    ecx,[ebp-0xe08]
  4087ff:	call   0x40d41c
  408804:	test   eax,eax
  408806:	je     0x408828
  408808:	push   esi
  408809:	push   edi
  40880a:	mov    edx,0x4013d0
  40880f:	lea    ecx,[ebp-0xe08]
  408815:	call   0x40d41c
  40881a:	test   eax,eax
  40881c:	je     0x408828
  40881e:	mov    ecx,0x431
  408823:	jmp    0x4086f4
  408828:	push   esi
  408829:	push   edi
  40882a:	mov    edx,0x4013d0
  40882f:	lea    ecx,[ebp-0xe08]
  408835:	call   0x40d41c
  40883a:	test   eax,eax
  40883c:	jne    0x408872
  40883e:	lea    eax,[ebp-0x408]
  408844:	test   eax,eax
  408846:	je     0x408853
  408848:	push   eax
  408849:	call   DWORD PTR ds:0x4130f0
  40884f:	test   eax,eax
  408851:	jne    0x408872
  408853:	lea    eax,[ebp-0x608]
  408859:	test   eax,eax
  40885b:	je     0x408868
  40885d:	push   eax
  40885e:	call   DWORD PTR ds:0x4130f0
  408864:	test   eax,eax
  408866:	jne    0x408872
  408868:	mov    ecx,0x30a
  40886d:	jmp    0x4086f4
  408872:	push   esi
  408873:	push   edi
  408874:	mov    edx,0x4013d0
  408879:	lea    ecx,[ebp-0xe08]
  40887f:	call   0x40d41c
  408884:	test   eax,eax
  408886:	jne    0x408890
  408888:	cmp    DWORD PTR [ebp-0x152c],esi
  40888e:	jne    0x40881e
  408890:	push   esi
  408891:	push   edi
  408892:	mov    edx,0x401550
  408897:	lea    ecx,[ebp-0xe08]
  40889d:	call   0x40d41c
  4088a2:	test   eax,eax
  4088a4:	je     0x4088bc
  4088a6:	push   esi
  4088a7:	push   edi
  4088a8:	mov    edx,0x401558
  4088ad:	lea    ecx,[ebp-0xe08]
  4088b3:	call   0x40d41c
  4088b8:	test   eax,eax
  4088ba:	jne    0x4088eb
  4088bc:	cmp    DWORD PTR [ebp-0x152c],esi
  4088c2:	jne    0x4088eb
  4088c4:	mov    ecx,0x80c
  4088c9:	call   0x40c92c
  4088ce:	push   0x2
  4088d0:	mov    esi,eax
  4088d2:	call   0x411711
  4088d7:	pop    ecx
  4088d8:	mov    edx,esi
  4088da:	mov    ecx,eax
  4088dc:	call   0x40d474
  4088e1:	mov    ecx,0x80d
  4088e6:	jmp    0x4086f4
  4088eb:	mov    ecx,ebx
  4088ed:	call   0x40eb0c
  4088f2:	test   eax,eax
  4088f4:	jne    0x40894f
  4088f6:	cmp    DWORD PTR [ebp-0x15cc],esi
  4088fc:	je     0x408924
  4088fe:	push   esi
  4088ff:	push   edi
  408900:	mov    edx,0x401134
  408905:	lea    ecx,[ebp-0x1208]
  40890b:	call   0x40d41c
  408910:	test   eax,eax
  408912:	jne    0x40891c
  408914:	mov    DWORD PTR [ebp-0x16f0],edi
  40891a:	jmp    0x40894f
  40891c:	cmp    DWORD PTR [ebp-0x15cc],esi
  408922:	jne    0x40894f
  408924:	cmp    DWORD PTR [ebp-0x166c],esi
  40892a:	jne    0x408934
  40892c:	cmp    DWORD PTR [ebp-0x161c],esi
  408932:	je     0x40894f
  408934:	push   0xfe
  408939:	mov    edx,0x40104c
  40893e:	mov    DWORD PTR [ebp-0x16f0],edi
  408944:	lea    ecx,[ebp-0x1208]
  40894a:	call   0x40d369
  40894f:	push   0x2
  408951:	pop    esi
  408952:	push   esi
  408953:	push   0x401150
  408958:	push   ebx
  408959:	call   DWORD PTR ds:0x413124
  40895f:	test   eax,eax
  408961:	jne    0x4089c0
  408963:	push   0x3
  408965:	push   0x401158
  40896a:	push   ebx
  40896b:	call   DWORD PTR ds:0x413124
  408971:	test   eax,eax
  408973:	je     0x4089c0
  408975:	push   0x401150
  40897a:	push   ebx
  40897b:	call   DWORD PTR ds:0x4131b4
  408981:	mov    DWORD PTR [ebp-0x16ec],eax
  408987:	pop    ecx
  408988:	pop    ecx
  408989:	test   eax,eax
  40898b:	jne    0x4089a9
  40898d:	push   eax
  40898e:	push   edi
  40898f:	mov    edx,0x401150
  408994:	mov    ecx,ebx
  408996:	call   0x40d41c
  40899b:	test   eax,eax
  40899d:	je     0x4089a9
  40899f:	mov    ecx,0xe7d
  4089a4:	jmp    0x4086f4
  4089a9:	mov    ecx,ebx
  4089ab:	call   0x40dd9e
  4089b0:	mov    edx,DWORD PTR [ebp-0x16ec]
  4089b6:	mov    ecx,ebx
  4089b8:	shr    eax,1
  4089ba:	push   eax
  4089bb:	call   0x40d369
  4089c0:	mov    edx,DWORD PTR [ebp-0x16e8]
  4089c6:	lea    eax,[ebp-0x16e0]
  4089cc:	push   eax
  4089cd:	push   DWORD PTR [ebp-0x16f0]
  4089d3:	lea    eax,[ebp-0x208]
  4089d9:	mov    ecx,ebx
  4089db:	push   eax
  4089dc:	lea    eax,[ebp-0x1208]
  4089e2:	push   eax
  4089e3:	call   0x404ec4
  4089e8:	test   eax,eax
  4089ea:	je     0x408b5a
  4089f0:	mov    ecx,ebx
  4089f2:	call   0x40eb0c
  4089f7:	cmp    eax,edi
  4089f9:	jne    0x408a2a
  4089fb:	mov    ecx,DWORD PTR [ebp-0x16e8]
  408a01:	call   0x40d408
  408a06:	test   eax,eax
  408a08:	je     0x408a2a
  408a0a:	mov    ecx,0x313
  408a0f:	call   0x40c92c
  408a14:	push   0x2
  408a16:	mov    esi,eax
  408a18:	call   0x411711
  408a1d:	pop    ecx
  408a1e:	mov    edx,esi
  408a20:	mov    ecx,eax
  408a22:	call   0x40d474
  408a27:	push   0x2
  408a29:	pop    esi
  408a2a:	call   0x40e1e2
  408a2f:	test   eax,eax
  408a31:	jne    0x408a53
  408a33:	push   0x8
  408a35:	call   DWORD PTR ds:0x413030
  408a3b:	push   esi
  408a3c:	call   0x411711
  408a41:	pop    ecx
  408a42:	mov    edx,0x10001
  408a47:	mov    ecx,eax
  408a49:	call   0x40c74a
  408a4e:	jmp    0x4099e2
  408a53:	lea    ecx,[ebp-0x208]
  408a59:	call   0x404b94
  408a5e:	mov    DWORD PTR [ebp-0x16dc],eax
  408a64:	test   eax,eax
  408a66:	je     0x408b29
  408a6c:	mov    ecx,eax
  408a6e:	call   0x40e5c6
  408a73:	push   0x0
  408a75:	push   edi
  408a76:	mov    edx,0x401438
  408a7b:	mov    DWORD PTR [ebp-0x16f0],eax
  408a81:	lea    ecx,[ebp-0xe08]
  408a87:	call   0x40d41c
  408a8c:	test   eax,eax
  408a8e:	je     0x408bda
  408a94:	mov    edx,DWORD PTR [ebp-0x16f4]
  408a9a:	test   edx,edx
  408a9c:	je     0x408b94
  408aa2:	cmp    edx,DWORD PTR [ebp-0x16f0]
  408aa8:	ja     0x408b94
  408aae:	mov    ecx,DWORD PTR [ebp-0x16dc]
  408ab4:	dec    edx
  408ab5:	call   0x40e62c
  408aba:	mov    ecx,eax
  408abc:	call   0x40d408
  408ac1:	mov    ecx,0xfe
  408ac6:	cmp    eax,ecx
  408ac8:	jbe    0x408aea
  408aca:	push   ecx
  408acb:	mov    ecx,0xc12
  408ad0:	call   0x40c92c
  408ad5:	push   eax
  408ad6:	push   edi
  408ad7:	push   edi
  408ad8:	push   esi
  408ad9:	call   0x411711
  408ade:	pop    ecx
  408adf:	push   eax
  408ae0:	call   0x40d6cd
  408ae5:	add    esp,0x14
  408ae8:	jmp    0x408b44
  408aea:	mov    edx,DWORD PTR [ebp-0x16f4]
  408af0:	mov    ecx,DWORD PTR [ebp-0x16dc]
  408af6:	push   0xff
  408afb:	lea    edx,[edx-0x1]
  408afe:	call   0x40e62c
  408b03:	mov    edx,eax
  408b05:	lea    ecx,[ebp-0x808]
  408b0b:	call   0x40d369
  408b10:	lea    eax,[ebp-0x808]
  408b16:	test   eax,eax
  408b18:	je     0x408b29
  408b1a:	push   eax
  408b1b:	call   DWORD PTR ds:0x4130f0
  408b21:	test   eax,eax
  408b23:	jne    0x408bda
  408b29:	push   0x8
  408b2b:	call   DWORD PTR ds:0x413030
  408b31:	push   esi
  408b32:	call   0x411711
  408b37:	pop    ecx
  408b38:	mov    edx,0x10001
  408b3d:	mov    ecx,eax
  408b3f:	call   0x40c74a
  408b44:	lea    ecx,[ebp-0x208]
  408b4a:	call   0x4053d0
  408b4f:	lea    ecx,[ebp-0x16dc]
  408b55:	call   0x40e254
  408b5a:	cmp    DWORD PTR [ebp-0x16e0],0x0
  408b61:	je     0x408b6b
  408b63:	push   ecx
  408b64:	mov    ecx,ebx
  408b66:	call   0x40f1cf
  408b6b:	lea    ecx,[ebp-0x16fc]
  408b71:	call   0x40db64
  408b76:	lea    ecx,[ebp-0x16f8]
  408b7c:	call   0x40db64
  408b81:	mov    eax,edi
  408b83:	mov    ecx,DWORD PTR [ebp-0x4]
  408b86:	pop    edi
  408b87:	pop    esi
  408b88:	xor    ecx,ebp
  408b8a:	pop    ebx
  408b8b:	call   0x411090
  408b90:	mov    esp,ebp
  408b92:	pop    ebp
  408b93:	ret    
  408b94:	mov    ecx,0x1b8
  408b99:	call   0x40c92c
  408b9e:	push   0x2
  408ba0:	mov    esi,eax
  408ba2:	call   0x411711
  408ba7:	pop    ecx
  408ba8:	mov    edx,esi
  408baa:	mov    ecx,eax
  408bac:	call   0x40d474
  408bb1:	lea    ecx,[ebp-0x16dc]
  408bb7:	call   0x40e254
  408bbc:	lea    ecx,[ebp-0x208]
  408bc2:	call   0x4053d0
  408bc7:	cmp    DWORD PTR [ebp-0x16e0],0x0
  408bce:	je     0x408b81
  408bd0:	push   ecx
  408bd1:	mov    ecx,ebx
  408bd3:	call   0x40f1cf
  408bd8:	jmp    0x408b81
  408bda:	push   0x0
  408bdc:	push   edi
  408bdd:	mov    edx,0x401550
  408be2:	lea    ecx,[ebp-0xe08]
  408be8:	call   0x40d41c
  408bed:	test   eax,eax
  408bef:	jne    0x409203
  408bf5:	push   0x22
  408bf7:	push   eax
  408bf8:	lea    eax,[ebp-0x808]
  408bfe:	push   eax
  408bff:	call   DWORD PTR ds:0x41311c
  408c05:	test   eax,eax
  408c07:	jne    0x408c2b
  408c09:	mov    ecx,0x829
  408c0e:	call   0x40c92c
  408c13:	push   0x2
  408c15:	mov    esi,eax
  408c17:	call   0x411711
  408c1c:	pop    ecx
  408c1d:	mov    edx,esi
  408c1f:	mov    ecx,eax
  408c21:	call   0x40d474
  408c26:	jmp    0x408b44
  408c2b:	add    eax,esi
  408c2d:	mov    edx,0x4011a0
  408c32:	push   0x0
  408c34:	push   edi
  408c35:	mov    ecx,eax
  408c37:	mov    DWORD PTR [ebp-0x16ec],eax
  408c3d:	call   0x40ce8e
  408c42:	mov    ecx,eax
  408c44:	cmp    ecx,0xffffffff
  408c47:	je     0x408c83
  408c49:	mov    eax,DWORD PTR [ebp-0x16ec]
  408c4f:	lea    eax,[eax+ecx*2]
  408c52:	test   eax,eax
  408c54:	je     0x408c83
  408c56:	mov    ecx,0x280
  408c5b:	call   0x40c92c
  408c60:	push   0x2
  408c62:	mov    esi,eax
  408c64:	call   0x411711
  408c69:	pop    ecx
  408c6a:	mov    edx,esi
  408c6c:	mov    ecx,eax
  408c6e:	call   0x40d474
  408c73:	lea    ecx,[ebp-0x16dc]
  408c79:	call   0x40e254
  408c7e:	jmp    0x4099e2
  408c83:	lea    eax,[ebp-0x408]
  408c89:	test   eax,eax
  408c8b:	je     0x408c98
  408c8d:	push   eax
  408c8e:	call   DWORD PTR ds:0x4130f0
  408c94:	test   eax,eax
  408c96:	jne    0x408ce5
  408c98:	lea    eax,[ebp-0xa08]
  408c9e:	push   eax
  408c9f:	push   0x4011cc
  408ca4:	lea    ecx,[ebp-0x208]
  408caa:	call   0x4099f7
  408caf:	cmp    eax,edi
  408cb1:	jne    0x408cc8
  408cb3:	push   esi
  408cb4:	call   0x411711
  408cb9:	pop    ecx
  408cba:	mov    edx,0x20001
  408cbf:	mov    ecx,eax
  408cc1:	call   0x40c74a
  408cc6:	jmp    0x408c73
  408cc8:	lea    eax,[ebp-0xa08]
  408cce:	test   eax,eax
  408cd0:	je     0x4092ab
  408cd6:	push   eax
  408cd7:	call   DWORD PTR ds:0x4130f0
  408cdd:	test   eax,eax
  408cdf:	je     0x4092ab
  408ce5:	lea    eax,[ebp-0x808]
  408ceb:	test   eax,eax
  408ced:	jne    0x408cf7
  408cef:	and    DWORD PTR [ebp-0x16e8],eax
  408cf5:	jmp    0x408d0a
  408cf7:	lea    eax,[ebp-0x808]
  408cfd:	push   eax
  408cfe:	call   DWORD PTR ds:0x4130f0
  408d04:	mov    DWORD PTR [ebp-0x16e8],eax
  408d0a:	xor    eax,eax
  408d0c:	mov    ecx,0x40119c
  408d11:	cmp    eax,ecx
  408d13:	jne    0x408d1d
  408d15:	and    DWORD PTR [ebp-0x16ec],eax
  408d1b:	jmp    0x408d2a
  408d1d:	push   ecx
  408d1e:	call   DWORD PTR ds:0x4130f0
  408d24:	mov    DWORD PTR [ebp-0x16ec],eax
  408d2a:	xor    eax,eax
  408d2c:	mov    ecx,0x4011a0
  408d31:	cmp    eax,ecx
  408d33:	je     0x408d3c
  408d35:	push   ecx
  408d36:	call   DWORD PTR ds:0x4130f0
  408d3c:	add    eax,DWORD PTR [ebp-0x16ec]
  408d42:	mov    ecx,0xfe
  408d47:	add    eax,DWORD PTR [ebp-0x16e8]
  408d4d:	cmp    eax,ecx
  408d4f:	jbe    0x408d9b
  408d51:	push   ecx
  408d52:	mov    ecx,0xc12
  408d57:	call   0x40c92c
  408d5c:	push   eax
  408d5d:	push   edi
  408d5e:	push   edi
  408d5f:	push   esi
  408d60:	call   0x411711
  408d65:	pop    ecx
  408d66:	push   eax
  408d67:	call   0x40d6cd
  408d6c:	add    esp,0x14
  408d6f:	lea    ecx,[ebp-0x208]
  408d75:	call   0x4053d0
  408d7a:	cmp    DWORD PTR [ebp-0x16e0],0x0
  408d81:	je     0x408d8b
  408d83:	push   ecx
  408d84:	mov    ecx,ebx
  408d86:	call   0x40f1cf
  408d8b:	lea    ecx,[ebp-0x16dc]
  408d91:	call   0x40e254
  408d96:	jmp    0x408b6b
  408d9b:	push   0xff
  408da0:	mov    edx,0x40119c
  408da5:	lea    ecx,[ebp-0x808]
  408dab:	call   0x40d3ce
  408db0:	push   0xff
  408db5:	mov    edx,0x4011a0
  408dba:	lea    ecx,[ebp-0x808]
  408dc0:	call   0x40d3ce
  408dc5:	lea    eax,[ebp-0x408]
  408dcb:	test   eax,eax
  408dcd:	je     0x408dda
  408dcf:	push   eax
  408dd0:	call   DWORD PTR ds:0x4130f0
  408dd6:	test   eax,eax
  408dd8:	jne    0x408df7
  408dda:	lea    eax,[ebp-0x608]
  408de0:	test   eax,eax
  408de2:	je     0x40909f
  408de8:	push   eax
  408de9:	call   DWORD PTR ds:0x4130f0
  408def:	test   eax,eax
  408df1:	je     0x40909f
  408df7:	lea    eax,[ebp-0x1008]
  408dfd:	push   eax
  408dfe:	push   0x4011e0
  408e03:	lea    ecx,[ebp-0x208]
  408e09:	call   0x4099f7
  408e0e:	cmp    eax,edi
  408e10:	je     0x408cb3
  408e16:	lea    eax,[ebp-0xa08]
  408e1c:	push   eax
  408e1d:	push   0x4011cc
  408e22:	lea    ecx,[ebp-0x208]
  408e28:	call   0x4099f7
  408e2d:	cmp    eax,edi
  408e2f:	je     0x408cb3
  408e35:	lea    eax,[ebp-0xa08]
  408e3b:	test   eax,eax
  408e3d:	je     0x408e81
  408e3f:	push   eax
  408e40:	call   DWORD PTR ds:0x4130f0
  408e46:	test   eax,eax
  408e48:	je     0x408e81
  408e4a:	lea    eax,[ebp-0x408]
  408e50:	test   eax,eax
  408e52:	je     0x408e7b
  408e54:	push   eax
  408e55:	call   DWORD PTR ds:0x4130f0
  408e5b:	test   eax,eax
  408e5d:	je     0x408e7b
  408e5f:	mov    ecx,0x2c8
  408e64:	call   0x40c92c
  408e69:	push   edi
  408e6a:	mov    esi,eax
  408e6c:	call   0x411711
  408e71:	pop    ecx
  408e72:	mov    edx,esi
  408e74:	mov    ecx,eax
  408e76:	call   0x40d474
  408e7b:	mov    DWORD PTR [ebp-0x1704],edi
  408e81:	lea    eax,[ebp-0x1008]
  408e87:	test   eax,eax
  408e89:	je     0x408ecd
  408e8b:	push   eax
  408e8c:	call   DWORD PTR ds:0x4130f0
  408e92:	test   eax,eax
  408e94:	je     0x408ecd
  408e96:	lea    eax,[ebp-0x608]
  408e9c:	test   eax,eax
  408e9e:	je     0x408ecd
  408ea0:	push   eax
  408ea1:	call   DWORD PTR ds:0x4130f0
  408ea7:	test   eax,eax
  408ea9:	je     0x408ecd
  408eab:	mov    ecx,0x2c9
  408eb0:	call   0x40c92c
  408eb5:	push   edi
  408eb6:	mov    esi,eax
  408eb8:	call   0x411711
  408ebd:	pop    ecx
  408ebe:	mov    edx,esi
  408ec0:	mov    ecx,eax
  408ec2:	call   0x40d474
  408ec7:	mov    DWORD PTR [ebp-0x1700],edi
  408ecd:	cmp    DWORD PTR [ebp-0x1704],0x0
  408ed4:	jne    0x409096
  408eda:	push   0x0
  408edc:	push   edi
  408edd:	mov    edx,0x401560
  408ee2:	lea    ecx,[ebp-0x408]
  408ee8:	call   0x40d41c
  408eed:	mov    esi,0xff
  408ef2:	test   eax,eax
  408ef4:	jne    0x408f07
  408ef6:	push   esi
  408ef7:	mov    edx,0x401570
  408efc:	lea    ecx,[ebp-0x408]
  408f02:	call   0x40d369
  408f07:	lea    eax,[ebp-0x408]
  408f0d:	test   eax,eax
  408f0f:	je     0x408f3f
  408f11:	push   eax
  408f12:	call   DWORD PTR ds:0x4130f0
  408f18:	test   eax,eax
  408f1a:	je     0x408f3f
  408f1c:	push   esi
  408f1d:	mov    edx,0x401590
  408f22:	lea    ecx,[ebp-0xc08]
  408f28:	call   0x40d369
  408f2d:	push   esi
  408f2e:	lea    edx,[ebp-0x408]
  408f34:	lea    ecx,[ebp-0xc08]
  408f3a:	call   0x40d3ce
  408f3f:	lea    ecx,[ebp-0x208]
  408f45:	call   0x404b94
  408f4a:	mov    DWORD PTR [ebp-0x16e8],eax
  408f50:	test   eax,eax
  408f52:	jne    0x408f80
  408f54:	lea    ecx,[ebp-0x208]
  408f5a:	call   0x4053d0
  408f5f:	cmp    DWORD PTR [ebp-0x16e0],0x0
  408f66:	je     0x408f70
  408f68:	push   ecx
  408f69:	mov    ecx,ebx
  408f6b:	call   0x40f1cf
  408f70:	lea    ecx,[ebp-0x16dc]
  408f76:	call   0x40e254
  408f7b:	jmp    0x408b81
  408f80:	xor    esi,esi
  408f82:	mov    edx,esi
  408f84:	mov    ecx,eax
  408f86:	call   0x40e62c
  408f8b:	mov    DWORD PTR [ebp-0x1704],eax
  408f91:	lea    eax,[ebp-0xc08]
  408f97:	test   eax,eax
  408f99:	je     0x408fd9
  408f9b:	push   eax
  408f9c:	call   DWORD PTR ds:0x4130f0
  408fa2:	test   eax,eax
  408fa4:	je     0x408fd9
  408fa6:	lea    eax,[ebp-0xc08]
  408fac:	push   eax
  408fad:	call   DWORD PTR ds:0x41313c
  408fb3:	mov    ecx,DWORD PTR [ebp-0x1704]
  408fb9:	lea    edx,[ebp-0xc08]
  408fbf:	push   0x0
  408fc1:	push   edi
  408fc2:	call   0x40ce8e
  408fc7:	cmp    eax,0xffffffff
  408fca:	je     0x408fd9
  408fcc:	mov    ecx,DWORD PTR [ebp-0x1704]
  408fd2:	lea    eax,[ecx+eax*2]
  408fd5:	test   eax,eax
  408fd7:	jne    0x408fed
  408fd9:	mov    eax,DWORD PTR [ebp-0x16f0]
  408fdf:	inc    esi
  408fe0:	dec    eax
  408fe1:	cmp    esi,eax
  408fe3:	ja     0x40903c
  408fe5:	mov    eax,DWORD PTR [ebp-0x16e8]
  408feb:	jmp    0x408f82
  408fed:	mov    ecx,0xc14
  408ff2:	call   0x40c92c
  408ff7:	push   0x2
  408ff9:	mov    esi,eax
  408ffb:	call   0x411711
  409000:	pop    ecx
  409001:	mov    edx,esi
  409003:	mov    ecx,eax
  409005:	call   0x40d474
  40900a:	lea    ecx,[ebp-0x208]
  409010:	call   0x4053d0
  409015:	cmp    DWORD PTR [ebp-0x16e0],0x0
  40901c:	je     0x409026
  40901e:	push   ecx
  40901f:	mov    ecx,ebx
  409021:	call   0x40f1cf
  409026:	lea    ecx,[ebp-0x16dc]
  40902c:	call   0x40e254
  409031:	lea    ecx,[ebp-0x16e8]
  409037:	jmp    0x408d91
  40903c:	lea    ecx,[ebp-0x16e8]
  409042:	call   0x40e254
  409047:	lea    eax,[ebp-0x408]
  40904d:	push   eax
  40904e:	call   DWORD PTR ds:0x413138
  409054:	lea    eax,[ebp-0x208]
  40905a:	push   eax
  40905b:	lea    eax,[ebp-0x408]
  409061:	push   eax
  409062:	push   0x4011cc
  409067:	push   0x4011b4
  40906c:	call   DWORD PTR ds:0x413028
  409072:	test   eax,eax
  409074:	je     0x409155
  40907a:	mov    ecx,0x27c
  40907f:	call   0x40c92c
  409084:	push   edi
  409085:	mov    esi,eax
  409087:	call   0x411711
  40908c:	pop    ecx
  40908d:	mov    edx,esi
  40908f:	mov    ecx,eax
  409091:	call   0x40d474
  409096:	cmp    DWORD PTR [ebp-0x1700],0x0
  40909d:	jne    0x4090f6
  40909f:	lea    eax,[ebp-0x608]
  4090a5:	test   eax,eax
  4090a7:	je     0x4090f6
  4090a9:	push   eax
  4090aa:	call   DWORD PTR ds:0x4130f0
  4090b0:	test   eax,eax
  4090b2:	je     0x4090f6
  4090b4:	lea    eax,[ebp-0x208]
  4090ba:	push   eax
  4090bb:	lea    eax,[ebp-0x608]
  4090c1:	push   eax
  4090c2:	push   0x4011e0
  4090c7:	push   0x4011b4
  4090cc:	call   DWORD PTR ds:0x413028
  4090d2:	test   eax,eax
  4090d4:	je     0x409177
  4090da:	mov    ecx,0x281
  4090df:	call   0x40c92c
  4090e4:	push   edi
  4090e5:	mov    esi,eax
  4090e7:	call   0x411711
  4090ec:	pop    ecx
  4090ed:	mov    edx,esi
  4090ef:	mov    ecx,eax
  4090f1:	call   0x40d474
  4090f6:	mov    edx,DWORD PTR [ebp-0x16f4]
  4090fc:	mov    esi,DWORD PTR [ebp-0x16dc]
  409102:	mov    ecx,esi
  409104:	lea    edx,[edx-0x1]
  409107:	call   0x40e56f
  40910c:	mov    edx,DWORD PTR [ebp-0x16f4]
  409112:	lea    eax,[ebp-0x808]
  409118:	push   0x0
  40911a:	push   eax
  40911b:	mov    ecx,esi
  40911d:	lea    edx,[edx-0x1]
  409120:	call   0x40e4f5
  409125:	lea    edx,[ebp-0x16e4]
  40912b:	mov    ecx,esi
  40912d:	call   0x405424
  409132:	cmp    eax,edi
  409134:	jne    0x4091c0
  40913a:	lea    ecx,[ebp-0x16dc]
  409140:	call   0x40e254
  409145:	lea    ecx,[ebp-0x16e4]
  40914b:	call   0x40db64
  409150:	jmp    0x408f54
  409155:	mov    ecx,0x27d
  40915a:	call   0x40c92c
  40915f:	push   0x2
  409161:	mov    esi,eax
  409163:	call   0x411711
  409168:	pop    ecx
  409169:	mov    edx,esi
  40916b:	mov    ecx,eax
  40916d:	call   0x40d474
  409172:	jmp    0x408d6f
  409177:	mov    ecx,0x282
  40917c:	call   0x40c92c
  409181:	push   0x2
  409183:	mov    esi,eax
  409185:	call   0x411711
  40918a:	pop    ecx
  40918b:	mov    edx,esi
  40918d:	mov    ecx,eax
  40918f:	call   0x40d474
  409194:	lea    ecx,[ebp-0x208]
  40919a:	call   0x4053d0
  40919f:	cmp    DWORD PTR [ebp-0x16e0],0x0
  4091a6:	je     0x4091b0
  4091a8:	push   ecx
  4091a9:	mov    ecx,ebx
  4091ab:	call   0x40f1cf
  4091b0:	lea    ecx,[ebp-0x16dc]
  4091b6:	call   0x40e254
  4091bb:	jmp    0x408b76
  4091c0:	lea    eax,[ebp-0x208]
  4091c6:	push   eax
  4091c7:	push   DWORD PTR [ebp-0x16e4]
  4091cd:	push   0x401160
  4091d2:	call   DWORD PTR ds:0x413020
  4091d8:	test   eax,eax
  4091da:	je     0x40927e
  4091e0:	push   DWORD PTR [ebp-0x16f4]
  4091e6:	mov    ecx,0x276
  4091eb:	call   0x40c92c
  4091f0:	push   eax
  4091f1:	push   edi
  4091f2:	push   edi
  4091f3:	push   edi
  4091f4:	call   0x411711
  4091f9:	pop    ecx
  4091fa:	push   eax
  4091fb:	call   0x40d6cd
  409200:	add    esp,0x14
  409203:	push   0x0
  409205:	push   edi
  409206:	mov    edx,0x4013d0
  40920b:	lea    ecx,[ebp-0xe08]
  409211:	call   0x40d41c
  409216:	test   eax,eax
  409218:	jne    0x409491
  40921e:	push   eax
  40921f:	push   edi
  409220:	mov    edx,0x401560
  409225:	lea    ecx,[ebp-0x408]
  40922b:	call   0x40d41c
  409230:	mov    esi,0xff
  409235:	test   eax,eax
  409237:	jne    0x40924a
  409239:	push   esi
  40923a:	mov    edx,0x401570
  40923f:	lea    ecx,[ebp-0x408]
  409245:	call   0x40d369
  40924a:	lea    eax,[ebp-0x1008]
  409250:	push   eax
  409251:	push   0x4011e0
  409256:	lea    ecx,[ebp-0x208]
  40925c:	call   0x4099f7
  409261:	cmp    eax,edi
  409263:	jne    0x4092b5
  409265:	push   0x2
  409267:	call   0x411711
  40926c:	pop    ecx
  40926d:	mov    edx,0x20001
  409272:	mov    ecx,eax
  409274:	call   0x40c74a
  409279:	jmp    0x4099cc
  40927e:	mov    ecx,0x84
  409283:	call   0x40c92c
  409288:	push   0x2
  40928a:	mov    esi,eax
  40928c:	call   0x411711
  409291:	pop    ecx
  409292:	mov    edx,esi
  409294:	mov    ecx,eax
  409296:	call   0x40d474
  40929b:	lea    ecx,[ebp-0x16e4]
  4092a1:	call   0x40db64
  4092a6:	jmp    0x408d6f
  4092ab:	mov    ecx,0x30d
  4092b0:	jmp    0x408c5b
  4092b5:	lea    eax,[ebp-0xa08]
  4092bb:	push   eax
  4092bc:	push   0x4011cc
  4092c1:	lea    ecx,[ebp-0x208]
  4092c7:	call   0x4099f7
  4092cc:	cmp    eax,edi
  4092ce:	je     0x409265
  4092d0:	lea    eax,[ebp-0x1008]
  4092d6:	test   eax,eax
  4092d8:	je     0x4092e5
  4092da:	push   eax
  4092db:	call   DWORD PTR ds:0x4130f0
  4092e1:	test   eax,eax
  4092e3:	jne    0x4092f8
  4092e5:	cmp    DWORD PTR [ebp-0x148c],0x0
  4092ec:	je     0x4092f8
  4092ee:	mov    ecx,0x810
  4092f3:	jmp    0x4099b4
  4092f8:	lea    eax,[ebp-0x408]
  4092fe:	test   eax,eax
  409300:	je     0x409330
  409302:	push   eax
  409303:	call   DWORD PTR ds:0x4130f0
  409309:	test   eax,eax
  40930b:	je     0x409330
  40930d:	push   esi
  40930e:	mov    edx,0x401590
  409313:	lea    ecx,[ebp-0xc08]
  409319:	call   0x40d369
  40931e:	push   esi
  40931f:	lea    edx,[ebp-0x408]
  409325:	lea    ecx,[ebp-0xc08]
  40932b:	call   0x40d3ce
  409330:	lea    ecx,[ebp-0x208]
  409336:	call   0x404b94
  40933b:	mov    DWORD PTR [ebp-0x16e8],eax
  409341:	test   eax,eax
  409343:	je     0x408d6f
  409349:	lea    eax,[ebp-0xc08]
  40934f:	test   eax,eax
  409351:	je     0x4093cb
  409353:	push   eax
  409354:	call   DWORD PTR ds:0x4130f0
  40935a:	test   eax,eax
  40935c:	je     0x4093cb
  40935e:	mov    eax,DWORD PTR [ebp-0x16f0]
  409364:	xor    esi,esi
  409366:	sub    eax,0x1
  409369:	je     0x4093cb
  40936b:	mov    ecx,DWORD PTR [ebp-0x16e8]
  409371:	mov    edx,esi
  409373:	push   0xfe
  409378:	call   0x40e62c
  40937d:	mov    edx,eax
  40937f:	lea    ecx,[ebp-0x1408]
  409385:	call   0x40d369
  40938a:	lea    eax,[ebp-0xc08]
  409390:	push   eax
  409391:	call   DWORD PTR ds:0x41313c
  409397:	push   0x0
  409399:	push   edi
  40939a:	lea    edx,[ebp-0xc08]
  4093a0:	lea    ecx,[ebp-0x1408]
  4093a6:	call   0x40ce8e
  4093ab:	cmp    eax,0xffffffff
  4093ae:	je     0x4093bf
  4093b0:	lea    eax,[ebp+eax*2-0x1408]
  4093b7:	test   eax,eax
  4093b9:	jne    0x408fed
  4093bf:	mov    eax,DWORD PTR [ebp-0x16f0]
  4093c5:	inc    esi
  4093c6:	dec    eax
  4093c7:	cmp    esi,eax
  4093c9:	jb     0x40936b
  4093cb:	lea    ecx,[ebp-0x16e8]
  4093d1:	call   0x40e254
  4093d6:	lea    eax,[ebp-0x408]
  4093dc:	push   eax
  4093dd:	call   DWORD PTR ds:0x413138
  4093e3:	lea    eax,[ebp-0x408]
  4093e9:	test   eax,eax
  4093eb:	je     0x40943a
  4093ed:	push   eax
  4093ee:	call   DWORD PTR ds:0x4130f0
  4093f4:	test   eax,eax
  4093f6:	je     0x40943a
  4093f8:	lea    eax,[ebp-0x208]
  4093fe:	push   eax
  4093ff:	lea    eax,[ebp-0x408]
  409405:	push   eax
  409406:	push   0x4011cc
  40940b:	push   0x4011b4
  409410:	call   DWORD PTR ds:0x413028
  409416:	test   eax,eax
  409418:	je     0x4094e0
  40941e:	mov    ecx,0x27c
  409423:	call   0x40c92c
  409428:	push   edi
  409429:	mov    esi,eax
  40942b:	call   0x411711
  409430:	pop    ecx
  409431:	mov    edx,esi
  409433:	mov    ecx,eax
  409435:	call   0x40d474
  40943a:	lea    eax,[ebp-0x608]
  409440:	test   eax,eax
  409442:	je     0x409491
  409444:	push   eax
  409445:	call   DWORD PTR ds:0x4130f0
  40944b:	test   eax,eax
  40944d:	je     0x409491
  40944f:	lea    eax,[ebp-0x208]
  409455:	push   eax
  409456:	lea    eax,[ebp-0x608]
  40945c:	push   eax
  40945d:	push   0x4011e0
  409462:	push   0x4011b4
  409467:	call   DWORD PTR ds:0x413028
  40946d:	test   eax,eax
  40946f:	je     0x409518
  409475:	mov    ecx,0x281
  40947a:	call   0x40c92c
  40947f:	push   edi
  409480:	mov    esi,eax
  409482:	call   0x411711
  409487:	pop    ecx
  409488:	mov    edx,esi
  40948a:	mov    ecx,eax
  40948c:	call   0x40d474
  409491:	push   0x0
  409493:	push   edi
  409494:	mov    edx,0x4013c8
  409499:	lea    ecx,[ebp-0xe08]
  40949f:	call   0x40d41c
  4094a4:	test   eax,eax
  4094a6:	jne    0x409900
  4094ac:	lea    eax,[ebp-0x608]
  4094b2:	test   eax,eax
  4094b4:	je     0x4094c1
  4094b6:	push   eax
  4094b7:	call   DWORD PTR ds:0x4130f0
  4094bd:	test   eax,eax
  4094bf:	jne    0x4094d6
  4094c1:	lea    eax,[ebp-0x408]
  4094c7:	test   eax,eax
  4094c9:	je     0x40951f
  4094cb:	push   eax
  4094cc:	call   DWORD PTR ds:0x4130f0
  4094d2:	test   eax,eax
  4094d4:	je     0x40951f
  4094d6:	mov    ecx,0x431
  4094db:	jmp    0x4099b4
  4094e0:	mov    ecx,0x27d
  4094e5:	call   0x40c92c
  4094ea:	push   0x2
  4094ec:	mov    esi,eax
  4094ee:	call   0x411711
  4094f3:	pop    ecx
  4094f4:	mov    edx,esi
  4094f6:	mov    ecx,eax
  4094f8:	call   0x40d474
  4094fd:	lea    ecx,[ebp-0x208]
  409503:	call   0x4053d0
  409508:	lea    ecx,[ebp-0x16e4]
  40950e:	call   0x40db64
  409513:	jmp    0x408b4f
  409518:	mov    ecx,0x282
  40951d:	jmp    0x4094e5
  40951f:	push   0x22
  409521:	push   0x0
  409523:	lea    eax,[ebp-0x808]
  409529:	push   eax
  40952a:	call   DWORD PTR ds:0x41311c
  409530:	mov    esi,eax
  409532:	mov    edx,0x4011a0
  409537:	push   0x0
  409539:	push   edi
  40953a:	mov    ecx,esi
  40953c:	call   0x40ce8e
  409541:	cmp    eax,0xffffffff
  409544:	je     0x4099af
  40954a:	lea    eax,[esi+eax*2]
  40954d:	test   eax,eax
  40954f:	je     0x4099af
  409555:	mov    edx,0x4011a0
  40955a:	lea    ecx,[ebp-0x808]
  409560:	call   0x404db5
  409565:	cmp    eax,edi
  409567:	je     0x408b44
  40956d:	lea    eax,[ebp-0x808]
  409573:	test   eax,eax
  409575:	je     0x4095cc
  409577:	push   eax
  409578:	call   DWORD PTR ds:0x4130f0
  40957e:	mov    ecx,0xfe
  409583:	cmp    eax,ecx
  409585:	jbe    0x4095cc
  409587:	push   ecx
  409588:	mov    ecx,0xc12
  40958d:	call   0x40c92c
  409592:	push   eax
  409593:	push   edi
  409594:	push   edi
  409595:	push   0x2
  409597:	call   0x411711
  40959c:	pop    ecx
  40959d:	push   eax
  40959e:	call   0x40d6cd
  4095a3:	add    esp,0x14
  4095a6:	lea    ecx,[ebp-0x208]
  4095ac:	call   0x4053d0
  4095b1:	lea    ecx,[ebp-0x16dc]
  4095b7:	call   0x40e254
  4095bc:	lea    ecx,[ebp-0x16e4]
  4095c2:	call   0x40db64
  4095c7:	jmp    0x408bc7
  4095cc:	mov    edx,DWORD PTR [ebp-0x16f4]
  4095d2:	mov    esi,DWORD PTR [ebp-0x16dc]
  4095d8:	mov    ecx,esi
  4095da:	lea    edx,[edx-0x1]
  4095dd:	call   0x40e56f
  4095e2:	mov    edx,DWORD PTR [ebp-0x16f4]
  4095e8:	lea    eax,[ebp-0x808]
  4095ee:	push   0x0
  4095f0:	push   eax
  4095f1:	mov    ecx,esi
  4095f3:	lea    edx,[edx-0x1]
  4095f6:	call   0x40e4f5
  4095fb:	lea    edx,[ebp-0x16e4]
  409601:	mov    ecx,esi
  409603:	call   0x405424
  409608:	cmp    eax,edi
  40960a:	je     0x4099cc
  409610:	lea    eax,[ebp-0x208]
  409616:	push   eax
  409617:	push   DWORD PTR [ebp-0x16e4]
  40961d:	push   0x401160
  409622:	call   DWORD PTR ds:0x413020
  409628:	test   eax,eax
  40962a:	je     0x4099a8
  409630:	push   DWORD PTR [ebp-0x16f4]
  409636:	mov    ecx,0x276
  40963b:	call   0x40c92c
  409640:	push   eax
  409641:	push   edi
  409642:	push   edi
  409643:	push   edi
  409644:	call   0x411711
  409649:	pop    ecx
  40964a:	push   eax
  40964b:	call   0x40d6cd
  409650:	add    esp,0x14
  409653:	lea    ecx,[ebp-0x1008]
  409659:	mov    edx,0x4011a0
  40965e:	push   0xff
  409663:	call   0x40d369
  409668:	lea    ecx,[ebp-0x208]
  40966e:	call   0x404b94
  409673:	mov    DWORD PTR [ebp-0x16e8],eax
  409679:	test   eax,eax
  40967b:	je     0x408d6f
  409681:	mov    edx,DWORD PTR [ebp-0x16f0]
  409687:	xor    esi,esi
  409689:	xor    ecx,ecx
  40968b:	mov    DWORD PTR [ebp-0x16ec],esi
  409691:	mov    DWORD PTR [ebp-0x1700],ecx
  409697:	test   edx,edx
  409699:	je     0x409750
  40969f:	mov    edx,ecx
  4096a1:	mov    ecx,eax
  4096a3:	call   0x40e62c
  4096a8:	push   0x22
  4096aa:	push   0x0
  4096ac:	push   eax
  4096ad:	call   DWORD PTR ds:0x41311c
  4096b3:	mov    esi,eax
  4096b5:	test   esi,esi
  4096b7:	jne    0x4096f5
  4096b9:	lea    ecx,[ebp-0x16e4]
  4096bf:	call   0x40db64
  4096c4:	lea    ecx,[ebp-0x208]
  4096ca:	call   0x4053d0
  4096cf:	lea    ecx,[ebp-0x16dc]
  4096d5:	call   0x40e254
  4096da:	lea    ecx,[ebp-0x16e8]
  4096e0:	call   0x40e254
  4096e5:	cmp    DWORD PTR [ebp-0x16e0],esi
  4096eb:	je     0x4096f5
  4096ed:	push   ecx
  4096ee:	mov    ecx,ebx
  4096f0:	call   0x40f1cf
  4096f5:	lea    eax,[ebp-0x1008]
  4096fb:	add    esi,0x2
  4096fe:	push   eax
  4096ff:	call   DWORD PTR ds:0x41313c
  409705:	push   0x0
  409707:	push   edi
  409708:	lea    edx,[ebp-0x1008]
  40970e:	mov    ecx,esi
  409710:	call   0x40ce8e
  409715:	cmp    eax,0xffffffff
  409718:	je     0x40972b
  40971a:	lea    eax,[esi+eax*2]
  40971d:	test   eax,eax
  40971f:	je     0x40972b
  409721:	mov    esi,edi
  409723:	mov    DWORD PTR [ebp-0x16ec],esi
  409729:	jmp    0x409731
  40972b:	mov    esi,DWORD PTR [ebp-0x16ec]
  409731:	mov    ecx,DWORD PTR [ebp-0x1700]
  409737:	mov    eax,DWORD PTR [ebp-0x16e8]
  40973d:	inc    ecx
  40973e:	mov    DWORD PTR [ebp-0x1700],ecx
  409744:	cmp    ecx,DWORD PTR [ebp-0x16f0]
  40974a:	jb     0x40969f
  409750:	lea    ecx,[ebp-0x16e8]
  409756:	call   0x40e254
  40975b:	test   esi,esi
  40975d:	jne    0x409900
  409763:	lea    eax,[ebp-0xa08]
  409769:	mov    esi,0x4011cc
  40976e:	push   eax
  40976f:	push   esi
  409770:	lea    ecx,[ebp-0x208]
  409776:	call   0x4099f7
  40977b:	cmp    eax,edi
  40977d:	jne    0x4097d4
  40977f:	push   0x2
  409781:	call   0x411711
  409786:	pop    ecx
  409787:	mov    edx,0x20001
  40978c:	mov    ecx,eax
  40978e:	call   0x40c74a
  409793:	push   0x2
  409795:	call   0x411711
  40979a:	pop    ecx
  40979b:	mov    ecx,eax
  40979d:	call   0x40c71f
  4097a2:	lea    ecx,[ebp-0x16e4]
  4097a8:	call   0x40db64
  4097ad:	lea    ecx,[ebp-0x208]
  4097b3:	call   0x4053d0
  4097b8:	lea    ecx,[ebp-0x16dc]
  4097be:	call   0x40e254
  4097c3:	cmp    DWORD PTR [ebp-0x16e0],0x0
  4097ca:	je     0x4097d4
  4097cc:	push   ecx
  4097cd:	mov    ecx,ebx
  4097cf:	call   0x40f1cf
  4097d4:	lea    eax,[ebp-0xa08]
  4097da:	test   eax,eax
  4097dc:	je     0x409876
  4097e2:	push   eax
  4097e3:	call   DWORD PTR ds:0x4130f0
  4097e9:	test   eax,eax
  4097eb:	je     0x409876
  4097f1:	lea    eax,[ebp-0x208]
  4097f7:	push   eax
  4097f8:	push   0x0
  4097fa:	push   esi
  4097fb:	push   0x4011b4
  409800:	call   DWORD PTR ds:0x413028
  409806:	test   eax,eax
  409808:	je     0x409828
  40980a:	mov    ecx,0xe83
  40980f:	call   0x40c92c
  409814:	push   edi
  409815:	mov    esi,eax
  409817:	call   0x411711
  40981c:	pop    ecx
  40981d:	mov    edx,esi
  40981f:	mov    ecx,eax
  409821:	call   0x40d474
  409826:	jmp    0x409876
  409828:	mov    ecx,0xe81
  40982d:	call   0x40c92c
  409832:	push   edi
  409833:	mov    esi,eax
  409835:	call   0x411711
  40983a:	pop    ecx
  40983b:	mov    edx,esi
  40983d:	mov    ecx,eax
  40983f:	call   0x40d474
  409844:	lea    ecx,[ebp-0x16e4]
  40984a:	call   0x40db64
  40984f:	lea    ecx,[ebp-0x208]
  409855:	call   0x4053d0
  40985a:	lea    ecx,[ebp-0x16dc]
  409860:	call   0x40e254
  409865:	cmp    DWORD PTR [ebp-0x16e0],0x0
  40986c:	je     0x409876
  40986e:	push   ecx
  40986f:	mov    ecx,ebx
  409871:	call   0x40f1cf
  409876:	lea    eax,[ebp-0xa08]
  40987c:	mov    esi,0x4011e0
  409881:	push   eax
  409882:	push   esi
  409883:	lea    ecx,[ebp-0x208]
  409889:	call   0x4099f7
  40988e:	cmp    eax,edi
  409890:	jne    0x4098b6
  409892:	push   0x2
  409894:	call   0x411711
  409899:	pop    ecx
  40989a:	mov    edx,0x20001
  40989f:	mov    ecx,eax
  4098a1:	call   0x40c74a
  4098a6:	lea    ecx,[ebp-0x16e4]
  4098ac:	call   0x40db64
  4098b1:	jmp    0x408b44
  4098b6:	lea    eax,[ebp-0xa08]
  4098bc:	test   eax,eax
  4098be:	je     0x409900
  4098c0:	push   eax
  4098c1:	call   DWORD PTR ds:0x4130f0
  4098c7:	test   eax,eax
  4098c9:	je     0x409900
  4098cb:	lea    eax,[ebp-0x208]
  4098d1:	push   eax
  4098d2:	push   0x0
  4098d4:	push   esi
  4098d5:	push   0x4011b4
  4098da:	call   DWORD PTR ds:0x413028
  4098e0:	test   eax,eax
  4098e2:	je     0x409951
  4098e4:	mov    ecx,0xe84
  4098e9:	call   0x40c92c
  4098ee:	push   edi
  4098ef:	mov    esi,eax
  4098f1:	call   0x411711
  4098f6:	pop    ecx
  4098f7:	mov    edx,esi
  4098f9:	mov    ecx,eax
  4098fb:	call   0x40d474
  409900:	lea    ecx,[ebp-0x16e4]
  409906:	call   0x40db64
  40990b:	lea    ecx,[ebp-0x208]
  409911:	call   0x4053d0
  409916:	lea    ecx,[ebp-0x16dc]
  40991c:	mov    esi,eax
  40991e:	call   0x40e254
  409923:	cmp    DWORD PTR [ebp-0x16e0],0x0
  40992a:	je     0x409934
  40992c:	push   ecx
  40992d:	mov    ecx,ebx
  40992f:	call   0x40f1cf
  409934:	lea    ecx,[ebp-0x16fc]
  40993a:	call   0x40db64
  40993f:	lea    ecx,[ebp-0x16f8]
  409945:	call   0x40db64
  40994a:	mov    eax,esi
  40994c:	jmp    0x408b83
  409951:	mov    ecx,0xe82
  409956:	call   0x40c92c
  40995b:	push   edi
  40995c:	mov    esi,eax
  40995e:	call   0x411711
  409963:	pop    ecx
  409964:	mov    edx,esi
  409966:	mov    ecx,eax
  409968:	call   0x40d474
  40996d:	lea    ecx,[ebp-0x16e4]
  409973:	call   0x40db64
  409978:	lea    ecx,[ebp-0x208]
  40997e:	call   0x4053d0
  409983:	lea    ecx,[ebp-0x16dc]
  409989:	call   0x40e254
  40998e:	cmp    DWORD PTR [ebp-0x16e0],0x0
  409995:	je     0x409900
  40999b:	push   ecx
  40999c:	mov    ecx,ebx
  40999e:	call   0x40f1cf
  4099a3:	jmp    0x409900
  4099a8:	mov    ecx,0x84
  4099ad:	jmp    0x4099b4
  4099af:	mov    ecx,0x27e
  4099b4:	call   0x40c92c
  4099b9:	push   0x2
  4099bb:	mov    esi,eax
  4099bd:	call   0x411711
  4099c2:	pop    ecx
  4099c3:	mov    edx,esi
  4099c5:	mov    ecx,eax
  4099c7:	call   0x40d474
  4099cc:	lea    ecx,[ebp-0x16dc]
  4099d2:	call   0x40e254
  4099d7:	lea    ecx,[ebp-0x16e4]
  4099dd:	call   0x40db64
  4099e2:	lea    ecx,[ebp-0x208]
  4099e8:	call   0x4053d0
  4099ed:	jmp    0x408b5a
  4099f2:	int3   
  4099f3:	int3   
  4099f4:	int3   
  4099f5:	int3   
  4099f6:	int3   
  4099f7:	mov    edi,edi
  4099f9:	push   ebp
  4099fa:	mov    ebp,esp
  4099fc:	push   ecx
  4099fd:	push   ebx
  4099fe:	push   esi
  4099ff:	push   edi
  409a00:	mov    ebx,ecx
  409a02:	mov    edi,0x1388
  409a07:	mov    ecx,0x2710
  409a0c:	call   0x40dc18
  409a11:	mov    esi,eax
  409a13:	mov    DWORD PTR [ebp-0x4],esi
  409a16:	test   esi,esi
  409a18:	jne    0x409a29
  409a1a:	push   0x8
  409a1c:	call   DWORD PTR ds:0x413030
  409a22:	call   0x40c619
  409a27:	jmp    0x409a96
  409a29:	push   ebx
  409a2a:	push   edi
  409a2b:	push   esi
  409a2c:	push   0x40104c
  409a31:	push   DWORD PTR [ebp+0x8]
  409a34:	push   0x4011b4
  409a39:	call   DWORD PTR ds:0x4130c8
  409a3f:	lea    ecx,[edi-0x2]
  409a42:	cmp    eax,ecx
  409a44:	jne    0x409a56
  409a46:	lea    ecx,[ebp-0x4]
  409a49:	add    edi,0x64
  409a4c:	call   0x40db64
  409a51:	lea    ecx,[edi+edi*1]
  409a54:	jmp    0x409a0c
  409a56:	mov    ecx,esi
  409a58:	call   0x40d408
  409a5d:	mov    ecx,0xfe
  409a62:	cmp    eax,ecx
  409a64:	ja     0x409a7d
  409a66:	push   ecx
  409a67:	mov    ecx,DWORD PTR [ebp+0xc]
  409a6a:	mov    edx,esi
  409a6c:	call   0x40d369
  409a71:	lea    ecx,[ebp-0x4]
  409a74:	call   0x40db64
  409a79:	xor    eax,eax
  409a7b:	jmp    0x409a99
  409a7d:	lea    ecx,[ebp-0x4]
  409a80:	call   0x40db64
  409a85:	mov    ecx,0xe80
  409a8a:	call   0x40c92c
  409a8f:	mov    ecx,eax
  409a91:	call   0x40c521
  409a96:	xor    eax,eax
  409a98:	inc    eax
  409a99:	pop    edi
  409a9a:	pop    esi
  409a9b:	pop    ebx
  409a9c:	mov    esp,ebp
  409a9e:	pop    ebp
  409a9f:	ret    0x8
  409aa2:	int3   
  409aa3:	int3   
  409aa4:	int3   
  409aa5:	int3   
  409aa6:	int3   
  409aa7:	mov    edi,edi
  409aa9:	push   ebp
  409aaa:	mov    ebp,esp
  409aac:	sub    esp,0xb74
  409ab2:	mov    eax,ds:0x412004
  409ab7:	xor    eax,ebp
  409ab9:	mov    DWORD PTR [ebp-0x4],eax
  409abc:	push   ebx
  409abd:	push   esi
  409abe:	xor    eax,eax
  409ac0:	mov    ebx,ecx
  409ac2:	push   edi
  409ac3:	push   0x1fa
  409ac8:	push   eax
  409ac9:	mov    DWORD PTR [ebp-0xb64],eax
  409acf:	mov    esi,edx
  409ad1:	mov    DWORD PTR [ebp-0xb50],eax
  409ad7:	mov    DWORD PTR [ebp-0xb70],eax
  409add:	mov    DWORD PTR [ebp-0xb5c],eax
  409ae3:	mov    DWORD PTR [ebp-0xb48],eax
  409ae9:	mov    DWORD PTR [ebp-0x618],eax
  409aef:	lea    eax,[ebp-0x614]
  409af5:	push   eax
  409af6:	mov    DWORD PTR [ebp-0xb58],ebx
  409afc:	call   0x411770
  409b01:	add    esp,0xc
  409b04:	xor    eax,eax
  409b06:	mov    edi,0x1f8
  409b0b:	mov    DWORD PTR [ebp-0xb4c],eax
  409b11:	mov    DWORD PTR [ebp-0xb44],eax
  409b17:	mov    DWORD PTR [ebp-0x818],eax
  409b1d:	push   edi
  409b1e:	push   eax
  409b1f:	lea    eax,[ebp-0x814]
  409b25:	push   eax
  409b26:	call   0x411770
  409b2b:	and    DWORD PTR [ebp-0x418],0x0
  409b32:	lea    eax,[ebp-0x414]
  409b38:	add    esp,0xc
  409b3b:	push   edi
  409b3c:	xor    edi,edi
  409b3e:	push   edi
  409b3f:	push   eax
  409b40:	call   0x411770
  409b45:	add    esp,0xc
  409b48:	mov    DWORD PTR [ebp-0x218],edi
  409b4e:	lea    eax,[ebp-0x214]
  409b54:	push   0x1fa
  409b59:	push   edi
  409b5a:	push   eax
  409b5b:	call   0x411770
  409b60:	xor    edx,edx
  409b62:	lea    edi,[ebp-0x14]
  409b65:	mov    DWORD PTR [ebp-0x18],edx
  409b68:	add    esp,0xc
  409b6b:	xor    eax,eax
  409b6d:	mov    DWORD PTR [ebp-0xb3c],edx
  409b73:	stos   DWORD PTR es:[edi],eax
  409b74:	mov    ecx,0x320
  409b79:	mov    DWORD PTR [ebp-0xb60],edx
  409b7f:	mov    DWORD PTR [ebp-0xb68],edx
  409b85:	mov    DWORD PTR [ebp-0xb6c],edx
  409b8b:	stos   DWORD PTR es:[edi],eax
  409b8c:	mov    DWORD PTR [ebp-0xb54],edx
  409b92:	mov    DWORD PTR [ebp-0xb40],edx
  409b98:	stos   DWORD PTR es:[edi],eax
  409b99:	stos   DWORD PTR es:[edi],eax
  409b9a:	lea    eax,[ebp-0xb38]
  409ba0:	mov    BYTE PTR [eax],dl
  409ba2:	inc    eax
  409ba3:	sub    ecx,0x1
  409ba6:	jne    0x409ba0
  409ba8:	push   0xfe
  409bad:	mov    edx,0x401134
  409bb2:	lea    ecx,[ebp-0x818]
  409bb8:	call   0x40d369
  409bbd:	push   0x8
  409bbf:	mov    edx,0x401054
  409bc4:	lea    ecx,[ebp-0xb38]
  409bca:	call   0x40d306
  409bcf:	xor    edi,edi
  409bd1:	mov    DWORD PTR [ebp-0xb18],0x4010c8
  409bdb:	lea    eax,[ebp-0xb70]
  409be1:	mov    DWORD PTR [ebp-0xb30],0xa
  409beb:	inc    edi
  409bec:	mov    DWORD PTR [ebp-0xb0c],eax
  409bf2:	push   0x8
  409bf4:	mov    edx,0x401054
  409bf9:	mov    DWORD PTR [ebp-0xb20],edi
  409bff:	lea    ecx,[ebp-0xae8]
  409c05:	call   0x40d306
  409c0a:	and    DWORD PTR [ebp-0xad4],0x0
  409c11:	lea    ecx,[ebp-0xa98]
  409c17:	push   0x8
  409c19:	mov    edx,0x401054
  409c1e:	mov    DWORD PTR [ebp-0xac8],0x401138
  409c28:	mov    DWORD PTR [ebp-0xad8],0x12000
  409c32:	mov    DWORD PTR [ebp-0xae0],edi
  409c38:	mov    DWORD PTR [ebp-0xad0],edi
  409c3e:	call   0x40d306
  409c43:	and    DWORD PTR [ebp-0xa84],0x0
  409c4a:	lea    ecx,[ebp-0xa48]
  409c50:	push   0x8
  409c52:	mov    edx,0x401054
  409c57:	mov    DWORD PTR [ebp-0xa78],0x40113c
  409c61:	mov    DWORD PTR [ebp-0xa88],0x12000
  409c6b:	mov    DWORD PTR [ebp-0xa90],edi
  409c71:	mov    DWORD PTR [ebp-0xa80],edi
  409c77:	call   0x40d306
  409c7c:	and    DWORD PTR [ebp-0xa34],0x0
  409c83:	lea    eax,[ebp-0x818]
  409c89:	push   0x8
  409c8b:	mov    edx,0x401054
  409c90:	mov    DWORD PTR [ebp-0xa28],0x401140
  409c9a:	lea    ecx,[ebp-0x9f8]
  409ca0:	mov    DWORD PTR [ebp-0xa38],0x10
  409caa:	mov    DWORD PTR [ebp-0xa40],edi
  409cb0:	mov    DWORD PTR [ebp-0xa30],edi
  409cb6:	mov    DWORD PTR [ebp-0xa1c],eax
  409cbc:	mov    DWORD PTR [ebp-0xa18],0xfe
  409cc6:	call   0x40d306
  409ccb:	and    DWORD PTR [ebp-0x9e4],0x0
  409cd2:	lea    eax,[ebp-0xb64]
  409cd8:	push   0x8
  409cda:	mov    edx,0x401054
  409cdf:	mov    DWORD PTR [ebp-0x9d8],0x401084
  409ce9:	lea    ecx,[ebp-0x9a8]
  409cef:	mov    DWORD PTR [ebp-0x9e8],0x20000
  409cf9:	mov    DWORD PTR [ebp-0x9f0],0xa
  409d03:	mov    DWORD PTR [ebp-0x9e0],edi
  409d09:	mov    DWORD PTR [ebp-0x9cc],eax
  409d0f:	call   0x40d306
  409d14:	and    DWORD PTR [ebp-0x994],0x0
  409d1b:	lea    eax,[ebp-0xb5c]
  409d21:	push   0x8
  409d23:	mov    edx,0x401054
  409d28:	mov    DWORD PTR [ebp-0x988],0x401148
  409d32:	lea    ecx,[ebp-0x958]
  409d38:	mov    DWORD PTR [ebp-0x998],0x82000
  409d42:	mov    DWORD PTR [ebp-0x9a0],0x3
  409d4c:	mov    DWORD PTR [ebp-0x990],edi
  409d52:	mov    DWORD PTR [ebp-0x97c],eax
  409d58:	call   0x40d306
  409d5d:	and    DWORD PTR [ebp-0x944],0x0
  409d64:	lea    eax,[ebp-0xb54]
  409d6a:	mov    DWORD PTR [ebp-0x938],0x4015a8
  409d74:	lea    ecx,[ebp-0x908]
  409d7a:	mov    DWORD PTR [ebp-0x948],0x2000
  409d84:	mov    edx,0x401054
  409d89:	mov    DWORD PTR [ebp-0x950],0x3
  409d93:	mov    DWORD PTR [ebp-0x940],edi
  409d99:	mov    DWORD PTR [ebp-0x92c],eax
  409d9f:	push   0x8
  409da1:	call   0x40d306
  409da6:	lea    eax,[ebp-0xb60]
  409dac:	mov    DWORD PTR [ebp-0x8e8],0x4015b0
  409db6:	push   0x8
  409db8:	mov    edx,0x401054
  409dbd:	mov    DWORD PTR [ebp-0x900],0xa
  409dc7:	lea    ecx,[ebp-0x8b8]
  409dcd:	mov    DWORD PTR [ebp-0x8f0],edi
  409dd3:	mov    DWORD PTR [ebp-0x8dc],eax
  409dd9:	call   0x40d306
  409dde:	lea    eax,[ebp-0xb6c]
  409de4:	mov    DWORD PTR [ebp-0x898],0x4015b8
  409dee:	push   0x8
  409df0:	mov    edx,0x401054
  409df5:	mov    DWORD PTR [ebp-0x8b0],0xa
  409dff:	lea    ecx,[ebp-0x868]
  409e05:	mov    DWORD PTR [ebp-0x8a0],edi
  409e0b:	mov    DWORD PTR [ebp-0x88c],eax
  409e11:	call   0x40d306
  409e16:	push   0xa
  409e18:	pop    ecx
  409e19:	lea    eax,[ebp-0xb68]
  409e1f:	mov    DWORD PTR [ebp-0x860],ecx
  409e25:	push   ecx
  409e26:	mov    DWORD PTR [ebp-0x83c],eax
  409e2c:	mov    edx,esi
  409e2e:	lea    eax,[ebp-0xb38]
  409e34:	mov    DWORD PTR [ebp-0x848],0x4015c0
  409e3e:	push   eax
  409e3f:	push   ecx
  409e40:	push   0x0
  409e42:	mov    ecx,ebx
  409e44:	mov    DWORD PTR [ebp-0x850],edi
  409e4a:	call   0x410a21
  409e4f:	test   eax,eax
  409e51:	jne    0x409e6c
  409e53:	push   0x2
  409e55:	call   0x411711
  409e5a:	pop    ecx
  409e5b:	mov    edx,0x20001
  409e60:	mov    ecx,eax
  409e62:	call   0x40c74a
  409e67:	jmp    0x40a692
  409e6c:	mov    esi,DWORD PTR [ebp-0xa6c]
  409e72:	mov    ebx,DWORD PTR [ebp-0xabc]
  409e78:	mov    DWORD PTR [ebp-0xb4c],ebx
  409e7e:	mov    DWORD PTR [ebp-0xb44],esi
  409e84:	test   esi,esi
  409e86:	jne    0x409e9e
  409e88:	mov    ecx,0x1fc
  409e8d:	call   0x40dc18
  409e92:	mov    esi,eax
  409e94:	mov    DWORD PTR [ebp-0xb44],esi
  409e9a:	test   esi,esi
  409e9c:	je     0x409e53
  409e9e:	push   ecx
  409e9f:	xor    edx,edx
  409ea1:	mov    ecx,ebx
  409ea3:	call   0x40cf40
  409ea8:	push   ecx
  409ea9:	xor    edx,edx
  409eab:	mov    ecx,esi
  409ead:	call   0x40cf40
  409eb2:	cmp    DWORD PTR [ebp-0xb64],edi
  409eb8:	jne    0x409ee5
  409eba:	cmp    DWORD PTR [ebp-0xb58],0x3
  409ec1:	jbe    0x409ee5
  409ec3:	mov    ecx,0x42e
  409ec8:	call   0x40c92c
  409ecd:	push   0x2
  409ecf:	mov    esi,eax
  409ed1:	call   0x411711
  409ed6:	pop    ecx
  409ed7:	mov    edx,esi
  409ed9:	mov    ecx,eax
  409edb:	call   0x40d474
  409ee0:	jmp    0x40a692
  409ee5:	cmp    DWORD PTR [ebp-0x93c],0x0
  409eec:	je     0x409f19
  409eee:	cmp    DWORD PTR [ebp-0xb54],0x20
  409ef5:	jae    0x409f19
  409ef7:	mov    ecx,0x31a
  409efc:	call   0x40c92c
  409f01:	push   0x2
  409f03:	mov    esi,eax
  409f05:	call   0x411711
  409f0a:	pop    ecx
  409f0b:	mov    edx,esi
  409f0d:	mov    ecx,eax
  409f0f:	call   0x40d474
  409f14:	jmp    0x40a67c
  409f19:	cmp    DWORD PTR [ebp-0xacc],0x0
  409f20:	je     0x409f34
  409f22:	mov    ecx,ebx
  409f24:	call   0x40d408
  409f29:	test   eax,eax
  409f2b:	jne    0x409f34
  409f2d:	mov    ecx,0x30e
  409f32:	jmp    0x409efc
  409f34:	mov    eax,DWORD PTR [ebp-0xa7c]
  409f3a:	test   eax,eax
  409f3c:	je     0x409f56
  409f3e:	mov    ecx,esi
  409f40:	call   0x40d408
  409f45:	test   eax,eax
  409f47:	jne    0x409f50
  409f49:	mov    ecx,0x30f
  409f4e:	jmp    0x409efc
  409f50:	mov    eax,DWORD PTR [ebp-0xa7c]
  409f56:	cmp    DWORD PTR [ebp-0xacc],0x0
  409f5d:	jne    0x409f6a
  409f5f:	test   eax,eax
  409f61:	je     0x409f6e
  409f63:	mov    ecx,0x30b
  409f68:	jmp    0x409efc
  409f6a:	test   eax,eax
  409f6c:	jne    0x409f81
  409f6e:	cmp    DWORD PTR [ebp-0xa2c],0x0
  409f75:	je     0x409f81
  409f77:	mov    ecx,0x30c
  409f7c:	jmp    0x409efc
  409f81:	cmp    DWORD PTR [ebp-0xb64],0x0
  409f88:	mov    ecx,ebx
  409f8a:	je     0x409fc7
  409f8c:	call   0x40c1d9
  409f91:	cmp    eax,edi
  409f93:	je     0x40a67c
  409f99:	mov    ebx,0x384
  409f9e:	mov    ecx,ebx
  409fa0:	call   0x40c92c
  409fa5:	push   edi
  409fa6:	mov    esi,eax
  409fa8:	call   0x411711
  409fad:	pop    ecx
  409fae:	mov    edx,esi
  409fb0:	mov    ecx,eax
  409fb2:	call   0x40d474
  409fb7:	inc    ebx
  409fb8:	cmp    ebx,0x3a4
  409fbe:	jbe    0x409f9e
  409fc0:	xor    edi,edi
  409fc2:	jmp    0x40a67c
  409fc7:	call   0x40eb0c
  409fcc:	test   eax,eax
  409fce:	je     0x40a000
  409fd0:	call   0x40ea45
  409fd5:	test   eax,eax
  409fd7:	jne    0x40a000
  409fd9:	mov    ecx,0xe87
  409fde:	call   0x40c92c
  409fe3:	push   0x2
  409fe5:	mov    esi,eax
  409fe7:	call   0x411711
  409fec:	pop    ecx
  409fed:	mov    edx,esi
  409fef:	mov    ecx,eax
  409ff1:	call   0x40d474
  409ff6:	call   0x40c7e2
  409ffb:	jmp    0x40a692
  40a000:	cmp    DWORD PTR [ebp-0xb54],0x0
  40a007:	jne    0x40a02e
  40a009:	cmp    DWORD PTR [ebp-0xb60],0x0
  40a010:	jne    0x40a02e
  40a012:	cmp    DWORD PTR [ebp-0xb6c],0x0
  40a019:	jne    0x40a02e
  40a01b:	cmp    DWORD PTR [ebp-0xb68],0x0
  40a022:	jne    0x40a02e
  40a024:	mov    ecx,0x42e
  40a029:	jmp    0x409efc
  40a02e:	mov    ecx,ebx
  40a030:	call   0x40eb0c
  40a035:	test   eax,eax
  40a037:	jne    0x40a095
  40a039:	cmp    DWORD PTR [ebp-0xa2c],eax
  40a03f:	je     0x40a068
  40a041:	push   eax
  40a042:	push   edi
  40a043:	mov    edx,0x401134
  40a048:	lea    ecx,[ebp-0x818]
  40a04e:	call   0x40d41c
  40a053:	test   eax,eax
  40a055:	jne    0x40a05f
  40a057:	mov    DWORD PTR [ebp-0xb50],edi
  40a05d:	jmp    0x40a095
  40a05f:	cmp    DWORD PTR [ebp-0xa2c],0x0
  40a066:	jne    0x40a095
  40a068:	cmp    DWORD PTR [ebp-0xacc],0x0
  40a06f:	jne    0x40a07a
  40a071:	cmp    DWORD PTR [ebp-0xa7c],0x0
  40a078:	je     0x40a095
  40a07a:	push   0xfe
  40a07f:	mov    edx,0x40104c
  40a084:	mov    DWORD PTR [ebp-0xb50],edi
  40a08a:	lea    ecx,[ebp-0x818]
  40a090:	call   0x40d369
  40a095:	push   0x2
  40a097:	push   0x401150
  40a09c:	push   ebx
  40a09d:	call   DWORD PTR ds:0x413124
  40a0a3:	test   eax,eax
  40a0a5:	jne    0x40a104
  40a0a7:	push   0x3
  40a0a9:	push   0x401158
  40a0ae:	push   ebx
  40a0af:	call   DWORD PTR ds:0x413124
  40a0b5:	test   eax,eax
  40a0b7:	je     0x40a104
  40a0b9:	push   0x401150
  40a0be:	push   ebx
  40a0bf:	call   DWORD PTR ds:0x4131b4
  40a0c5:	mov    DWORD PTR [ebp-0xb58],eax
  40a0cb:	pop    ecx
  40a0cc:	pop    ecx
  40a0cd:	test   eax,eax
  40a0cf:	jne    0x40a0ed
  40a0d1:	push   eax
  40a0d2:	push   edi
  40a0d3:	mov    edx,0x401150
  40a0d8:	mov    ecx,ebx
  40a0da:	call   0x40d41c
  40a0df:	test   eax,eax
  40a0e1:	je     0x40a0ed
  40a0e3:	mov    ecx,0xe7d
  40a0e8:	jmp    0x409ec8
  40a0ed:	mov    ecx,ebx
  40a0ef:	call   0x40dd9e
  40a0f4:	mov    edx,DWORD PTR [ebp-0xb58]
  40a0fa:	mov    ecx,ebx
  40a0fc:	shr    eax,1
  40a0fe:	push   eax
  40a0ff:	call   0x40d369
  40a104:	lea    eax,[ebp-0xb40]
  40a10a:	mov    edx,esi
  40a10c:	push   eax
  40a10d:	push   DWORD PTR [ebp-0xb50]
  40a113:	lea    eax,[ebp-0x418]
  40a119:	mov    ecx,ebx
  40a11b:	push   eax
  40a11c:	lea    eax,[ebp-0x818]
  40a122:	push   eax
  40a123:	call   0x404ec4
  40a128:	test   eax,eax
  40a12a:	je     0x40a660
  40a130:	mov    ecx,ebx
  40a132:	call   0x40eb0c
  40a137:	cmp    eax,edi
  40a139:	jne    0x40a163
  40a13b:	mov    ecx,esi
  40a13d:	call   0x40d408
  40a142:	test   eax,eax
  40a144:	je     0x40a163
  40a146:	mov    ecx,0x313
  40a14b:	call   0x40c92c
  40a150:	push   0x2
  40a152:	mov    esi,eax
  40a154:	call   0x411711
  40a159:	pop    ecx
  40a15a:	mov    edx,esi
  40a15c:	mov    ecx,eax
  40a15e:	call   0x40d474
  40a163:	lea    ecx,[ebp-0x418]
  40a169:	call   0x404b94
  40a16e:	mov    esi,eax
  40a170:	mov    DWORD PTR [ebp-0xb48],esi
  40a176:	test   esi,esi
  40a178:	jne    0x40a18a
  40a17a:	lea    ecx,[ebp-0x418]
  40a180:	call   0x4053d0
  40a185:	jmp    0x40a660
  40a18a:	mov    edx,DWORD PTR [ebp-0xb5c]
  40a190:	test   edx,edx
  40a192:	je     0x40a62f
  40a198:	mov    ecx,esi
  40a19a:	call   0x40e5c6
  40a19f:	cmp    edx,eax
  40a1a1:	ja     0x40a62f
  40a1a7:	dec    edx
  40a1a8:	call   0x40e62c
  40a1ad:	mov    ecx,eax
  40a1af:	mov    DWORD PTR [ebp-0xb58],eax
  40a1b5:	call   0x40d408
  40a1ba:	cmp    eax,0xfe
  40a1bf:	jbe    0x40a1f9
  40a1c1:	mov    ecx,0xe80
  40a1c6:	call   0x40c92c
  40a1cb:	push   0x2
  40a1cd:	mov    esi,eax
  40a1cf:	call   0x411711
  40a1d4:	pop    ecx
  40a1d5:	mov    edx,esi
  40a1d7:	mov    ecx,eax
  40a1d9:	call   0x40d474
  40a1de:	lea    ecx,[ebp-0xb3c]
  40a1e4:	call   0x40db64
  40a1e9:	lea    ecx,[ebp-0x418]
  40a1ef:	call   0x4053d0
  40a1f4:	jmp    0x40a66b
  40a1f9:	mov    edx,DWORD PTR [ebp-0xb58]
  40a1ff:	test   edx,edx
  40a201:	je     0x40a611
  40a207:	push   0xff
  40a20c:	lea    ecx,[ebp-0x618]
  40a212:	call   0x40d369
  40a217:	cmp    DWORD PTR [ebp-0xb54],0x0
  40a21e:	je     0x40a2e4
  40a224:	push   0x0
  40a226:	push   edi
  40a227:	mov    edx,0x4015c8
  40a22c:	lea    ecx,[ebp-0x618]
  40a232:	call   0x40ce8e
  40a237:	cmp    eax,0xffffffff
  40a23a:	je     0x40a251
  40a23c:	lea    eax,[ebp+eax*2-0x618]
  40a243:	test   eax,eax
  40a245:	je     0x40a251
  40a247:	mov    ecx,0x319
  40a24c:	jmp    0x40a632
  40a251:	lea    eax,[ebp-0x218]
  40a257:	test   eax,eax
  40a259:	je     0x40a27d
  40a25b:	push   eax
  40a25c:	call   DWORD PTR ds:0x4130f0
  40a262:	test   eax,eax
  40a264:	je     0x40a27d
  40a266:	push   0xff
  40a26b:	mov    edx,0x40119c
  40a270:	lea    ecx,[ebp-0x218]
  40a276:	call   0x40d3ce
  40a27b:	jmp    0x40a292
  40a27d:	push   0xff
  40a282:	mov    edx,0x40119c
  40a287:	lea    ecx,[ebp-0x218]
  40a28d:	call   0x40d369
  40a292:	push   0xff
  40a297:	mov    edx,0x4015c8
  40a29c:	lea    ecx,[ebp-0x218]
  40a2a2:	call   0x40d3ce
  40a2a7:	push   0xff
  40a2ac:	mov    edx,0x401198
  40a2b1:	lea    ecx,[ebp-0x218]
  40a2b7:	call   0x40d3ce
  40a2bc:	push   0xa
  40a2be:	lea    eax,[ebp-0x18]
  40a2c1:	push   eax
  40a2c2:	push   DWORD PTR [ebp-0xb54]
  40a2c8:	call   DWORD PTR ds:0x4131b0
  40a2ce:	add    esp,0xc
  40a2d1:	lea    edx,[ebp-0x18]
  40a2d4:	lea    ecx,[ebp-0x218]
  40a2da:	push   0xff
  40a2df:	call   0x40d3ce
  40a2e4:	cmp    DWORD PTR [ebp-0xb60],0x0
  40a2eb:	je     0x40a374
  40a2f1:	push   0x0
  40a2f3:	push   edi
  40a2f4:	mov    edx,0x4015d8
  40a2f9:	lea    ecx,[ebp-0x618]
  40a2ff:	call   0x40ce8e
  40a304:	cmp    eax,0xffffffff
  40a307:	je     0x40a31e
  40a309:	lea    eax,[ebp+eax*2-0x618]
  40a310:	test   eax,eax
  40a312:	je     0x40a31e
  40a314:	mov    ecx,0x318
  40a319:	jmp    0x40a632
  40a31e:	lea    eax,[ebp-0x218]
  40a324:	test   eax,eax
  40a326:	je     0x40a34a
  40a328:	push   eax
  40a329:	call   DWORD PTR ds:0x4130f0
  40a32f:	test   eax,eax
  40a331:	je     0x40a34a
  40a333:	push   0xff
  40a338:	mov    edx,0x40119c
  40a33d:	lea    ecx,[ebp-0x218]
  40a343:	call   0x40d3ce
  40a348:	jmp    0x40a35f
  40a34a:	push   0xff
  40a34f:	mov    edx,0x40119c
  40a354:	lea    ecx,[ebp-0x218]
  40a35a:	call   0x40d369
  40a35f:	push   0xff
  40a364:	mov    edx,0x4015d8
  40a369:	lea    ecx,[ebp-0x218]
  40a36f:	call   0x40d3ce
  40a374:	cmp    DWORD PTR [ebp-0xb68],0x0
  40a37b:	je     0x40a404
  40a381:	push   0x0
  40a383:	push   edi
  40a384:	mov    edx,0x4015f0
  40a389:	lea    ecx,[ebp-0x618]
  40a38f:	call   0x40ce8e
  40a394:	cmp    eax,0xffffffff
  40a397:	je     0x40a3ae
  40a399:	lea    eax,[ebp+eax*2-0x618]
  40a3a0:	test   eax,eax
  40a3a2:	je     0x40a3ae
  40a3a4:	mov    ecx,0x317
  40a3a9:	jmp    0x40a632
  40a3ae:	lea    eax,[ebp-0x218]
  40a3b4:	test   eax,eax
  40a3b6:	je     0x40a3da
  40a3b8:	push   eax
  40a3b9:	call   DWORD PTR ds:0x4130f0
  40a3bf:	test   eax,eax
  40a3c1:	je     0x40a3da
  40a3c3:	push   0xff
  40a3c8:	mov    edx,0x40119c
  40a3cd:	lea    ecx,[ebp-0x218]
  40a3d3:	call   0x40d3ce
  40a3d8:	jmp    0x40a3ef
  40a3da:	push   0xff
  40a3df:	mov    edx,0x40119c
  40a3e4:	lea    ecx,[ebp-0x218]
  40a3ea:	call   0x40d369
  40a3ef:	push   0xff
  40a3f4:	mov    edx,0x4015f0
  40a3f9:	lea    ecx,[ebp-0x218]
  40a3ff:	call   0x40d3ce
  40a404:	cmp    DWORD PTR [ebp-0xb6c],0x0
  40a40b:	je     0x40a485
  40a40d:	lea    eax,[ebp-0x618]
  40a413:	push   0x4015fc
  40a418:	push   eax
  40a419:	call   DWORD PTR ds:0x4131c0
  40a41f:	pop    ecx
  40a420:	pop    ecx
  40a421:	test   eax,eax
  40a423:	je     0x40a42f
  40a425:	mov    ecx,0x316
  40a42a:	jmp    0x40a632
  40a42f:	lea    eax,[ebp-0x218]
  40a435:	test   eax,eax
  40a437:	je     0x40a45b
  40a439:	push   eax
  40a43a:	call   DWORD PTR ds:0x4130f0
  40a440:	test   eax,eax
  40a442:	je     0x40a45b
  40a444:	push   0xff
  40a449:	mov    edx,0x40119c
  40a44e:	lea    ecx,[ebp-0x218]
  40a454:	call   0x40d3ce
  40a459:	jmp    0x40a470
  40a45b:	push   0xff
  40a460:	mov    edx,0x40119c
  40a465:	lea    ecx,[ebp-0x218]
  40a46b:	call   0x40d369
  40a470:	push   0xff
  40a475:	mov    edx,0x4015fc
  40a47a:	lea    ecx,[ebp-0x218]
  40a480:	call   0x40d3ce
  40a485:	lea    eax,[ebp-0x618]
  40a48b:	test   eax,eax
  40a48d:	jne    0x40a497
  40a48f:	and    DWORD PTR [ebp-0xb50],eax
  40a495:	jmp    0x40a4aa
  40a497:	lea    eax,[ebp-0x618]
  40a49d:	push   eax
  40a49e:	call   DWORD PTR ds:0x4130f0
  40a4a4:	mov    DWORD PTR [ebp-0xb50],eax
  40a4aa:	lea    eax,[ebp-0x218]
  40a4b0:	test   eax,eax
  40a4b2:	je     0x40a4c1
  40a4b4:	lea    eax,[ebp-0x218]
  40a4ba:	push   eax
  40a4bb:	call   DWORD PTR ds:0x4130f0
  40a4c1:	add    eax,DWORD PTR [ebp-0xb50]
  40a4c7:	mov    ecx,0xfe
  40a4cc:	cmp    eax,ecx
  40a4ce:	jbe    0x40a4f4
  40a4d0:	push   ecx
  40a4d1:	mov    ecx,0xc12
  40a4d6:	call   0x40c92c
  40a4db:	push   eax
  40a4dc:	push   edi
  40a4dd:	push   edi
  40a4de:	push   0x2
  40a4e0:	call   0x411711
  40a4e5:	pop    ecx
  40a4e6:	push   eax
  40a4e7:	call   0x40d6cd
  40a4ec:	add    esp,0x14
  40a4ef:	jmp    0x40a1de
  40a4f4:	push   0xff
  40a4f9:	lea    edx,[ebp-0x218]
  40a4ff:	lea    ecx,[ebp-0x618]
  40a505:	call   0x40d3ce
  40a50a:	mov    edx,DWORD PTR [ebp-0xb5c]
  40a510:	mov    ecx,esi
  40a512:	lea    edx,[edx-0x1]
  40a515:	call   0x40e56f
  40a51a:	mov    edx,DWORD PTR [ebp-0xb5c]
  40a520:	lea    eax,[ebp-0x618]
  40a526:	push   0x0
  40a528:	push   eax
  40a529:	mov    ecx,esi
  40a52b:	lea    edx,[edx-0x1]
  40a52e:	call   0x40e4f5
  40a533:	lea    edx,[ebp-0xb3c]
  40a539:	mov    ecx,esi
  40a53b:	call   0x405424
  40a540:	cmp    eax,edi
  40a542:	jne    0x40a554
  40a544:	lea    ecx,[ebp-0xb48]
  40a54a:	call   0x40e254
  40a54f:	jmp    0x40a1de
  40a554:	lea    eax,[ebp-0x418]
  40a55a:	push   eax
  40a55b:	push   DWORD PTR [ebp-0xb3c]
  40a561:	push   0x401160
  40a566:	call   DWORD PTR ds:0x413020
  40a56c:	test   eax,eax
  40a56e:	je     0x40a5e4
  40a570:	push   DWORD PTR [ebp-0xb5c]
  40a576:	mov    ecx,0xcb
  40a57b:	call   0x40c92c
  40a580:	push   eax
  40a581:	push   edi
  40a582:	push   edi
  40a583:	push   edi
  40a584:	call   0x411711
  40a589:	pop    ecx
  40a58a:	push   eax
  40a58b:	call   0x40d6cd
  40a590:	add    esp,0x14
  40a593:	lea    ecx,[ebp-0x418]
  40a599:	call   0x4053d0
  40a59e:	lea    ecx,[ebp-0xb48]
  40a5a4:	mov    esi,eax
  40a5a6:	call   0x40e254
  40a5ab:	lea    ecx,[ebp-0xb3c]
  40a5b1:	call   0x40db64
  40a5b6:	cmp    DWORD PTR [ebp-0xb40],0x0
  40a5bd:	je     0x40a5c7
  40a5bf:	push   ecx
  40a5c0:	mov    ecx,ebx
  40a5c2:	call   0x40f1cf
  40a5c7:	lea    ecx,[ebp-0xb4c]
  40a5cd:	call   0x40db64
  40a5d2:	lea    ecx,[ebp-0xb44]
  40a5d8:	call   0x40db64
  40a5dd:	mov    eax,esi
  40a5df:	jmp    0x40a694
  40a5e4:	mov    ecx,0x84
  40a5e9:	call   0x40c92c
  40a5ee:	push   0x2
  40a5f0:	mov    esi,eax
  40a5f2:	call   0x411711
  40a5f7:	pop    ecx
  40a5f8:	mov    edx,esi
  40a5fa:	mov    ecx,eax
  40a5fc:	call   0x40d474
  40a601:	lea    ecx,[ebp-0xb48]
  40a607:	call   0x40e254
  40a60c:	jmp    0x40a17a
  40a611:	push   0x8
  40a613:	call   DWORD PTR ds:0x413030
  40a619:	push   0x2
  40a61b:	call   0x411711
  40a620:	pop    ecx
  40a621:	mov    edx,0x10001
  40a626:	mov    ecx,eax
  40a628:	call   0x40c74a
  40a62d:	jmp    0x40a64a
  40a62f:	push   0x7d
  40a631:	pop    ecx
  40a632:	call   0x40c92c
  40a637:	push   0x2
  40a639:	mov    esi,eax
  40a63b:	call   0x411711
  40a640:	pop    ecx
  40a641:	mov    edx,esi
  40a643:	mov    ecx,eax
  40a645:	call   0x40d474
  40a64a:	lea    ecx,[ebp-0x418]
  40a650:	call   0x4053d0
  40a655:	lea    ecx,[ebp-0xb48]
  40a65b:	call   0x40e254
  40a660:	lea    ecx,[ebp-0xb3c]
  40a666:	call   0x40db64
  40a66b:	cmp    DWORD PTR [ebp-0xb40],0x0
  40a672:	je     0x40a67c
  40a674:	push   ecx
  40a675:	mov    ecx,ebx
  40a677:	call   0x40f1cf
  40a67c:	lea    ecx,[ebp-0xb4c]
  40a682:	call   0x40db64
  40a687:	lea    ecx,[ebp-0xb44]
  40a68d:	call   0x40db64
  40a692:	mov    eax,edi
  40a694:	mov    ecx,DWORD PTR [ebp-0x4]
  40a697:	pop    edi
  40a698:	pop    esi
  40a699:	xor    ecx,ebp
  40a69b:	pop    ebx
  40a69c:	call   0x411090
  40a6a1:	mov    esp,ebp
  40a6a3:	pop    ebp
  40a6a4:	ret    
  40a6a5:	int3   
  40a6a6:	int3   
  40a6a7:	int3   
  40a6a8:	int3   
  40a6a9:	int3   
  40a6aa:	mov    edi,edi
  40a6ac:	push   ebp
  40a6ad:	mov    ebp,esp
  40a6af:	sub    esp,0xf64
  40a6b5:	mov    eax,ds:0x412004
  40a6ba:	xor    eax,ebp
  40a6bc:	mov    DWORD PTR [ebp-0x4],eax
  40a6bf:	push   ebx
  40a6c0:	push   esi
  40a6c1:	xor    eax,eax
  40a6c3:	mov    ebx,ecx
  40a6c5:	push   edi
  40a6c6:	push   0x1fa
  40a6cb:	push   eax
  40a6cc:	mov    DWORD PTR [ebp-0xf54],eax
  40a6d2:	mov    esi,edx
  40a6d4:	mov    DWORD PTR [ebp-0xf5c],eax
  40a6da:	mov    DWORD PTR [ebp-0xf60],eax
  40a6e0:	mov    DWORD PTR [ebp-0xf40],eax
  40a6e6:	mov    DWORD PTR [ebp-0xf34],eax
  40a6ec:	mov    DWORD PTR [ebp-0x408],eax
  40a6f2:	lea    eax,[ebp-0x404]
  40a6f8:	push   eax
  40a6f9:	mov    DWORD PTR [ebp-0xf44],ebx
  40a6ff:	call   0x411770
  40a704:	add    esp,0xc
  40a707:	xor    eax,eax
  40a709:	mov    edi,0x1f8
  40a70e:	mov    DWORD PTR [ebp-0xf3c],eax
  40a714:	mov    DWORD PTR [ebp-0xf38],eax
  40a71a:	mov    DWORD PTR [ebp-0x608],eax
  40a720:	push   edi
  40a721:	push   eax
  40a722:	lea    eax,[ebp-0x604]
  40a728:	push   eax
  40a729:	call   0x411770
  40a72e:	and    DWORD PTR [ebp-0x208],0x0
  40a735:	lea    eax,[ebp-0x204]
  40a73b:	add    esp,0xc
  40a73e:	push   0x1fa
  40a743:	push   0x0
  40a745:	push   eax
  40a746:	call   0x411770
  40a74b:	xor    eax,eax
  40a74d:	add    esp,0xc
  40a750:	mov    DWORD PTR [ebp-0xf30],eax
  40a756:	mov    DWORD PTR [ebp-0xf50],eax
  40a75c:	mov    DWORD PTR [ebp-0xf48],eax
  40a762:	push   0x1fa
  40a767:	push   eax
  40a768:	mov    DWORD PTR [ebp-0xf4c],eax
  40a76e:	mov    DWORD PTR [ebp-0xf58],eax
  40a774:	mov    DWORD PTR [ebp-0xa08],eax
  40a77a:	lea    eax,[ebp-0xa04]
  40a780:	push   eax
  40a781:	call   0x411770
  40a786:	and    DWORD PTR [ebp-0xc08],0x0
  40a78d:	lea    eax,[ebp-0xc04]
  40a793:	add    esp,0xc
  40a796:	push   0x1fa
  40a79b:	push   0x0
  40a79d:	push   eax
  40a79e:	call   0x411770
  40a7a3:	and    DWORD PTR [ebp-0x808],0x0
  40a7aa:	lea    eax,[ebp-0x804]
  40a7b0:	add    esp,0xc
  40a7b3:	push   edi
  40a7b4:	push   0x0
  40a7b6:	push   eax
  40a7b7:	call   0x411770
  40a7bc:	add    esp,0xc
  40a7bf:	lea    eax,[ebp-0xf28]
  40a7c5:	and    DWORD PTR [ebp-0xf2c],0x0
  40a7cc:	mov    ecx,0x320
  40a7d1:	mov    BYTE PTR [eax],0x0
  40a7d4:	inc    eax
  40a7d5:	sub    ecx,0x1
  40a7d8:	jne    0x40a7d1
  40a7da:	push   0xfe
  40a7df:	mov    edx,0x401134
  40a7e4:	lea    ecx,[ebp-0x608]
  40a7ea:	call   0x40d369
  40a7ef:	push   0x8
  40a7f1:	mov    edx,0x401054
  40a7f6:	lea    ecx,[ebp-0xf28]
  40a7fc:	call   0x40d306
  40a801:	xor    edi,edi
  40a803:	mov    DWORD PTR [ebp-0xf08],0x4010d4
  40a80d:	lea    eax,[ebp-0xf60]
  40a813:	mov    DWORD PTR [ebp-0xf20],0xa
  40a81d:	inc    edi
  40a81e:	mov    DWORD PTR [ebp-0xefc],eax
  40a824:	push   0x8
  40a826:	mov    edx,0x401054
  40a82b:	mov    DWORD PTR [ebp-0xf10],edi
  40a831:	lea    ecx,[ebp-0xed8]
  40a837:	call   0x40d306
  40a83c:	and    DWORD PTR [ebp-0xec4],0x0
  40a843:	lea    ecx,[ebp-0xe88]
  40a849:	push   0x8
  40a84b:	mov    edx,0x401054
  40a850:	mov    DWORD PTR [ebp-0xeb8],0x401138
  40a85a:	mov    DWORD PTR [ebp-0xec8],0x12000
  40a864:	mov    DWORD PTR [ebp-0xed0],edi
  40a86a:	mov    DWORD PTR [ebp-0xec0],edi
  40a870:	call   0x40d306
  40a875:	and    DWORD PTR [ebp-0xe74],0x0
  40a87c:	lea    ecx,[ebp-0xe38]
  40a882:	push   0x8
  40a884:	mov    edx,0x401054
  40a889:	mov    DWORD PTR [ebp-0xe68],0x40113c
  40a893:	mov    DWORD PTR [ebp-0xe78],0x12000
  40a89d:	mov    DWORD PTR [ebp-0xe80],edi
  40a8a3:	mov    DWORD PTR [ebp-0xe70],edi
  40a8a9:	call   0x40d306
  40a8ae:	and    DWORD PTR [ebp-0xe24],0x0
  40a8b5:	lea    eax,[ebp-0x608]
  40a8bb:	push   0x8
  40a8bd:	mov    edx,0x401054
  40a8c2:	mov    DWORD PTR [ebp-0xe18],0x401140
  40a8cc:	lea    ecx,[ebp-0xde8]
  40a8d2:	mov    DWORD PTR [ebp-0xe28],0x10
  40a8dc:	mov    DWORD PTR [ebp-0xe30],edi
  40a8e2:	mov    DWORD PTR [ebp-0xe20],edi
  40a8e8:	mov    DWORD PTR [ebp-0xe0c],eax
  40a8ee:	mov    DWORD PTR [ebp-0xe08],0xfe
  40a8f8:	call   0x40d306
  40a8fd:	and    DWORD PTR [ebp-0xdd4],0x0
  40a904:	lea    eax,[ebp-0xf54]
  40a90a:	push   0x8
  40a90c:	mov    edx,0x401054
  40a911:	mov    DWORD PTR [ebp-0xdc8],0x401084
  40a91b:	lea    ecx,[ebp-0xd98]
  40a921:	mov    DWORD PTR [ebp-0xdd8],0x20000
  40a92b:	mov    DWORD PTR [ebp-0xde0],0xa
  40a935:	mov    DWORD PTR [ebp-0xdd0],edi
  40a93b:	mov    DWORD PTR [ebp-0xdbc],eax
  40a941:	call   0x40d306
  40a946:	and    DWORD PTR [ebp-0xd84],0x0
  40a94d:	lea    eax,[ebp-0xf40]
  40a953:	push   0x8
  40a955:	mov    edx,0x401054
  40a95a:	mov    DWORD PTR [ebp-0xd78],0x401148
  40a964:	lea    ecx,[ebp-0xd48]
  40a96a:	mov    DWORD PTR [ebp-0xd88],0x82000
  40a974:	mov    DWORD PTR [ebp-0xd90],0x3
  40a97e:	mov    DWORD PTR [ebp-0xd80],edi
  40a984:	mov    DWORD PTR [ebp-0xd6c],eax
  40a98a:	call   0x40d306
  40a98f:	lea    eax,[ebp-0xf58]
  40a995:	mov    DWORD PTR [ebp-0xd28],0x4015a8
  40a99f:	push   0x8
  40a9a1:	mov    edx,0x401054
  40a9a6:	mov    DWORD PTR [ebp-0xd40],0xa
  40a9b0:	lea    ecx,[ebp-0xcf8]
  40a9b6:	mov    DWORD PTR [ebp-0xd30],edi
  40a9bc:	mov    DWORD PTR [ebp-0xd1c],eax
  40a9c2:	call   0x40d306
  40a9c7:	mov    DWORD PTR [ebp-0xcd8],0x4015b0
  40a9d1:	lea    eax,[ebp-0xf50]
  40a9d7:	mov    DWORD PTR [ebp-0xcf0],0xa
  40a9e1:	push   0x8
  40a9e3:	mov    edx,0x401054
  40a9e8:	mov    DWORD PTR [ebp-0xce0],edi
  40a9ee:	lea    ecx,[ebp-0xca8]
  40a9f4:	mov    DWORD PTR [ebp-0xccc],eax
  40a9fa:	call   0x40d306
  40a9ff:	lea    eax,[ebp-0xf4c]
  40aa05:	mov    DWORD PTR [ebp-0xc88],0x4015b8
  40aa0f:	push   0x8
  40aa11:	mov    edx,0x401054
  40aa16:	mov    DWORD PTR [ebp-0xca0],0xa
  40aa20:	lea    ecx,[ebp-0xc58]
  40aa26:	mov    DWORD PTR [ebp-0xc90],edi
  40aa2c:	mov    DWORD PTR [ebp-0xc7c],eax
  40aa32:	call   0x40d306
  40aa37:	push   0xa
  40aa39:	pop    ecx
  40aa3a:	lea    eax,[ebp-0xf48]
  40aa40:	mov    DWORD PTR [ebp-0xc50],ecx
  40aa46:	push   ecx
  40aa47:	mov    DWORD PTR [ebp-0xc2c],eax
  40aa4d:	mov    edx,esi
  40aa4f:	lea    eax,[ebp-0xf28]
  40aa55:	mov    DWORD PTR [ebp-0xc38],0x4015c0
  40aa5f:	push   eax
  40aa60:	push   ecx
  40aa61:	push   0x0
  40aa63:	mov    ecx,ebx
  40aa65:	mov    DWORD PTR [ebp-0xc40],edi
  40aa6b:	call   0x410a21
  40aa70:	test   eax,eax
  40aa72:	jne    0x40aa8d
  40aa74:	push   0x2
  40aa76:	call   0x411711
  40aa7b:	pop    ecx
  40aa7c:	mov    edx,0x20001
  40aa81:	mov    ecx,eax
  40aa83:	call   0x40c74a
  40aa88:	jmp    0x40b14a
  40aa8d:	mov    esi,DWORD PTR [ebp-0xe5c]
  40aa93:	mov    ebx,DWORD PTR [ebp-0xeac]
  40aa99:	mov    DWORD PTR [ebp-0xf3c],ebx
  40aa9f:	mov    DWORD PTR [ebp-0xf38],esi
  40aaa5:	test   esi,esi
  40aaa7:	jne    0x40aabf
  40aaa9:	mov    ecx,0x1fc
  40aaae:	call   0x40dc18
  40aab3:	mov    esi,eax
  40aab5:	mov    DWORD PTR [ebp-0xf38],esi
  40aabb:	test   esi,esi
  40aabd:	je     0x40aa74
  40aabf:	push   ecx
  40aac0:	xor    edx,edx
  40aac2:	mov    ecx,ebx
  40aac4:	call   0x40cf40
  40aac9:	push   ecx
  40aaca:	xor    edx,edx
  40aacc:	mov    ecx,esi
  40aace:	call   0x40cf40
  40aad3:	cmp    DWORD PTR [ebp-0xf54],edi
  40aad9:	jne    0x40ab06
  40aadb:	cmp    DWORD PTR [ebp-0xf44],0x3
  40aae2:	jbe    0x40ab06
  40aae4:	mov    ecx,0x42f
  40aae9:	call   0x40c92c
  40aaee:	push   0x2
  40aaf0:	mov    esi,eax
  40aaf2:	call   0x411711
  40aaf7:	pop    ecx
  40aaf8:	mov    edx,esi
  40aafa:	mov    ecx,eax
  40aafc:	call   0x40d474
  40ab01:	jmp    0x40b14a
  40ab06:	cmp    DWORD PTR [ebp-0xebc],0x0
  40ab0d:	je     0x40ab3c
  40ab0f:	mov    ecx,ebx
  40ab11:	call   0x40d408
  40ab16:	test   eax,eax
  40ab18:	jne    0x40ab3c
  40ab1a:	mov    ecx,0x30e
  40ab1f:	call   0x40c92c
  40ab24:	push   0x2
  40ab26:	mov    esi,eax
  40ab28:	call   0x411711
  40ab2d:	pop    ecx
  40ab2e:	mov    edx,esi
  40ab30:	mov    ecx,eax
  40ab32:	call   0x40d474
  40ab37:	jmp    0x40b134
  40ab3c:	mov    eax,DWORD PTR [ebp-0xe6c]
  40ab42:	test   eax,eax
  40ab44:	je     0x40ab5e
  40ab46:	mov    ecx,esi
  40ab48:	call   0x40d408
  40ab4d:	test   eax,eax
  40ab4f:	jne    0x40ab58
  40ab51:	mov    ecx,0x30f
  40ab56:	jmp    0x40ab1f
  40ab58:	mov    eax,DWORD PTR [ebp-0xe6c]
  40ab5e:	cmp    DWORD PTR [ebp-0xebc],0x0
  40ab65:	jne    0x40ab72
  40ab67:	test   eax,eax
  40ab69:	je     0x40ab76
  40ab6b:	mov    ecx,0x30b
  40ab70:	jmp    0x40ab1f
  40ab72:	test   eax,eax
  40ab74:	jne    0x40ab86
  40ab76:	cmp    DWORD PTR [ebp-0xe1c],0x0
  40ab7d:	je     0x40ab86
  40ab7f:	mov    ecx,0x30c
  40ab84:	jmp    0x40ab1f
  40ab86:	cmp    DWORD PTR [ebp-0xf54],0x0
  40ab8d:	mov    ecx,ebx
  40ab8f:	je     0x40abcc
  40ab91:	call   0x40c1d9
  40ab96:	cmp    eax,edi
  40ab98:	je     0x40b134
  40ab9e:	mov    ebx,0x3ca
  40aba3:	mov    ecx,ebx
  40aba5:	call   0x40c92c
  40abaa:	push   edi
  40abab:	mov    esi,eax
  40abad:	call   0x411711
  40abb2:	pop    ecx
  40abb3:	mov    edx,esi
  40abb5:	mov    ecx,eax
  40abb7:	call   0x40d474
  40abbc:	inc    ebx
  40abbd:	cmp    ebx,0x3e8
  40abc3:	jbe    0x40aba3
  40abc5:	xor    edi,edi
  40abc7:	jmp    0x40b134
  40abcc:	call   0x40eb0c
  40abd1:	test   eax,eax
  40abd3:	je     0x40ac05
  40abd5:	call   0x40ea45
  40abda:	test   eax,eax
  40abdc:	jne    0x40ac05
  40abde:	mov    ecx,0xe87
  40abe3:	call   0x40c92c
  40abe8:	push   0x2
  40abea:	mov    esi,eax
  40abec:	call   0x411711
  40abf1:	pop    ecx
  40abf2:	mov    edx,esi
  40abf4:	mov    ecx,eax
  40abf6:	call   0x40d474
  40abfb:	call   0x40c7e2
  40ac00:	jmp    0x40b14a
  40ac05:	cmp    DWORD PTR [ebp-0xf58],0x0
  40ac0c:	jne    0x40ac33
  40ac0e:	cmp    DWORD PTR [ebp-0xf50],0x0
  40ac15:	jne    0x40ac33
  40ac17:	cmp    DWORD PTR [ebp-0xf4c],0x0
  40ac1e:	jne    0x40ac33
  40ac20:	cmp    DWORD PTR [ebp-0xf48],0x0
  40ac27:	jne    0x40ac33
  40ac29:	mov    ecx,0x42e
  40ac2e:	jmp    0x40ab1f
  40ac33:	mov    ecx,ebx
  40ac35:	call   0x40eb0c
  40ac3a:	test   eax,eax
  40ac3c:	jne    0x40ac9a
  40ac3e:	cmp    DWORD PTR [ebp-0xe1c],eax
  40ac44:	je     0x40ac6d
  40ac46:	push   eax
  40ac47:	push   edi
  40ac48:	mov    edx,0x401134
  40ac4d:	lea    ecx,[ebp-0x608]
  40ac53:	call   0x40d41c
  40ac58:	test   eax,eax
  40ac5a:	jne    0x40ac64
  40ac5c:	mov    DWORD PTR [ebp-0xf5c],edi
  40ac62:	jmp    0x40ac9a
  40ac64:	cmp    DWORD PTR [ebp-0xe1c],0x0
  40ac6b:	jne    0x40ac9a
  40ac6d:	cmp    DWORD PTR [ebp-0xebc],0x0
  40ac74:	jne    0x40ac7f
  40ac76:	cmp    DWORD PTR [ebp-0xe6c],0x0
  40ac7d:	je     0x40ac9a
  40ac7f:	push   0xfe
  40ac84:	mov    edx,0x40104c
  40ac89:	mov    DWORD PTR [ebp-0xf5c],edi
  40ac8f:	lea    ecx,[ebp-0x608]
  40ac95:	call   0x40d369
  40ac9a:	push   0x2
  40ac9c:	push   0x401150
  40aca1:	push   ebx
  40aca2:	call   DWORD PTR ds:0x413124
  40aca8:	test   eax,eax
  40acaa:	jne    0x40ad06
  40acac:	push   0x3
  40acae:	push   0x401158
  40acb3:	push   ebx
  40acb4:	call   DWORD PTR ds:0x413124
  40acba:	test   eax,eax
  40acbc:	je     0x40ad06
  40acbe:	push   0x401150
  40acc3:	push   ebx
  40acc4:	call   DWORD PTR ds:0x4131b4
  40acca:	mov    DWORD PTR [ebp-0xf44],eax
  40acd0:	pop    ecx
  40acd1:	pop    ecx
  40acd2:	test   eax,eax
  40acd4:	jne    0x40acf8
  40acd6:	push   eax
  40acd7:	push   edi
  40acd8:	mov    edx,0x401150
  40acdd:	mov    ecx,ebx
  40acdf:	call   0x40d41c
  40ace4:	test   eax,eax
  40ace6:	je     0x40acf2
  40ace8:	mov    ecx,0xe7d
  40aced:	jmp    0x40aae9
  40acf2:	mov    eax,DWORD PTR [ebp-0xf44]
  40acf8:	push   0xfe
  40acfd:	mov    edx,eax
  40acff:	mov    ecx,ebx
  40ad01:	call   0x40d369
  40ad06:	lea    eax,[ebp-0xf2c]
  40ad0c:	mov    edx,esi
  40ad0e:	push   eax
  40ad0f:	push   DWORD PTR [ebp-0xf5c]
  40ad15:	lea    eax,[ebp-0x208]
  40ad1b:	mov    ecx,ebx
  40ad1d:	push   eax
  40ad1e:	lea    eax,[ebp-0x608]
  40ad24:	push   eax
  40ad25:	call   0x404ec4
  40ad2a:	test   eax,eax
  40ad2c:	je     0x40b123
  40ad32:	mov    ecx,ebx
  40ad34:	call   0x40eb0c
  40ad39:	cmp    eax,edi
  40ad3b:	jne    0x40ad65
  40ad3d:	mov    ecx,esi
  40ad3f:	call   0x40d408
  40ad44:	test   eax,eax
  40ad46:	je     0x40ad65
  40ad48:	mov    ecx,0x313
  40ad4d:	call   0x40c92c
  40ad52:	push   0x2
  40ad54:	mov    esi,eax
  40ad56:	call   0x411711
  40ad5b:	pop    ecx
  40ad5c:	mov    edx,esi
  40ad5e:	mov    ecx,eax
  40ad60:	call   0x40d474
  40ad65:	lea    ecx,[ebp-0x208]
  40ad6b:	call   0x404b94
  40ad70:	mov    esi,eax
  40ad72:	mov    DWORD PTR [ebp-0xf34],esi
  40ad78:	test   esi,esi
  40ad7a:	jne    0x40ad8c
  40ad7c:	lea    ecx,[ebp-0x208]
  40ad82:	call   0x4053d0
  40ad87:	jmp    0x40b118
  40ad8c:	mov    edx,DWORD PTR [ebp-0xf40]
  40ad92:	test   edx,edx
  40ad94:	je     0x40b0e7
  40ad9a:	mov    ecx,esi
  40ad9c:	call   0x40e5c6
  40ada1:	cmp    edx,eax
  40ada3:	ja     0x40b0e7
  40ada9:	dec    edx
  40adaa:	call   0x40e62c
  40adaf:	mov    ecx,eax
  40adb1:	mov    DWORD PTR [ebp-0xf44],eax
  40adb7:	call   0x40d408
  40adbc:	mov    ecx,0xfe
  40adc1:	cmp    eax,ecx
  40adc3:	jbe    0x40ae0d
  40adc5:	push   ecx
  40adc6:	mov    ecx,0xc12
  40adcb:	call   0x40c92c
  40add0:	push   eax
  40add1:	push   edi
  40add2:	push   edi
  40add3:	push   0x2
  40add5:	call   0x411711
  40adda:	pop    ecx
  40addb:	push   eax
  40addc:	call   0x40d6cd
  40ade1:	add    esp,0x14
  40ade4:	push   0x2
  40ade6:	call   0x411711
  40adeb:	pop    ecx
  40adec:	lea    edx,[ebp-0xc08]
  40adf2:	mov    ecx,eax
  40adf4:	call   0x40d474
  40adf9:	push   0x2
  40adfb:	call   0x411711
  40ae00:	pop    ecx
  40ae01:	mov    ecx,eax
  40ae03:	call   0x40c71f
  40ae08:	jmp    0x40b102
  40ae0d:	mov    edx,DWORD PTR [ebp-0xf44]
  40ae13:	test   edx,edx
  40ae15:	je     0x40b0c9
  40ae1b:	push   0xff
  40ae20:	lea    ecx,[ebp-0x408]
  40ae26:	call   0x40d369
  40ae2b:	cmp    DWORD PTR [ebp-0xf58],edi
  40ae31:	jne    0x40aeb9
  40ae37:	push   0x0
  40ae39:	push   edi
  40ae3a:	mov    edx,0x4015c8
  40ae3f:	lea    ecx,[ebp-0x408]
  40ae45:	call   0x40ce8e
  40ae4a:	cmp    eax,0xffffffff
  40ae4d:	je     0x40aeaf
  40ae4f:	lea    eax,[ebp+eax*2-0x408]
  40ae56:	test   eax,eax
  40ae58:	je     0x40aeaf
  40ae5a:	push   0xfe
  40ae5f:	mov    edx,0x401050
  40ae64:	lea    ecx,[ebp-0xa08]
  40ae6a:	call   0x40d369
  40ae6f:	lea    eax,[ebp-0x808]
  40ae75:	mov    edx,0x4015c8
  40ae7a:	push   eax
  40ae7b:	lea    ecx,[ebp-0x408]
  40ae81:	call   0x40b162
  40ae86:	test   eax,eax
  40ae88:	jne    0x40aeb9
  40ae8a:	lea    edx,[ebp-0x808]
  40ae90:	lea    ecx,[ebp-0x408]
  40ae96:	call   0x404db5
  40ae9b:	cmp    eax,edi
  40ae9d:	jne    0x40aeb9
  40ae9f:	lea    ecx,[ebp-0x208]
  40aea5:	call   0x4053d0
  40aeaa:	jmp    0x40b123
  40aeaf:	mov    ecx,0x31b
  40aeb4:	jmp    0x40b0ea
  40aeb9:	cmp    DWORD PTR [ebp-0xf50],edi
  40aebf:	jne    0x40af04
  40aec1:	push   0x0
  40aec3:	push   edi
  40aec4:	mov    edx,0x4015d8
  40aec9:	lea    ecx,[ebp-0x408]
  40aecf:	call   0x40ce8e
  40aed4:	cmp    eax,0xffffffff
  40aed7:	je     0x40afef
  40aedd:	lea    eax,[ebp+eax*2-0x408]
  40aee4:	test   eax,eax
  40aee6:	je     0x40afef
  40aeec:	mov    edx,0x4015d8
  40aef1:	lea    ecx,[ebp-0x408]
  40aef7:	call   0x404db5
  40aefc:	cmp    eax,edi
  40aefe:	je     0x40b102
  40af04:	cmp    DWORD PTR [ebp-0xf48],edi
  40af0a:	jne    0x40af4f
  40af0c:	push   0x0
  40af0e:	push   edi
  40af0f:	mov    edx,0x4015f0
  40af14:	lea    ecx,[ebp-0x408]
  40af1a:	call   0x40ce8e
  40af1f:	cmp    eax,0xffffffff
  40af22:	je     0x40aff9
  40af28:	lea    eax,[ebp+eax*2-0x408]
  40af2f:	test   eax,eax
  40af31:	je     0x40aff9
  40af37:	mov    edx,0x4015f0
  40af3c:	lea    ecx,[ebp-0x408]
  40af42:	call   0x404db5
  40af47:	cmp    eax,edi
  40af49:	je     0x40b102
  40af4f:	cmp    DWORD PTR [ebp-0xf4c],edi
  40af55:	jne    0x40af9a
  40af57:	push   0x0
  40af59:	push   edi
  40af5a:	mov    edx,0x4015fc
  40af5f:	lea    ecx,[ebp-0x408]
  40af65:	call   0x40ce8e
  40af6a:	cmp    eax,0xffffffff
  40af6d:	je     0x40b003
  40af73:	lea    eax,[ebp+eax*2-0x408]
  40af7a:	test   eax,eax
  40af7c:	je     0x40b003
  40af82:	mov    edx,0x4015fc
  40af87:	lea    ecx,[ebp-0x408]
  40af8d:	call   0x404db5
  40af92:	cmp    eax,edi
  40af94:	je     0x40b102
  40af9a:	mov    edx,DWORD PTR [ebp-0xf40]
  40afa0:	mov    ecx,esi
  40afa2:	lea    edx,[edx-0x1]
  40afa5:	call   0x40e56f
  40afaa:	mov    edx,DWORD PTR [ebp-0xf40]
  40afb0:	lea    eax,[ebp-0x408]
  40afb6:	push   0x0
  40afb8:	push   eax
  40afb9:	mov    ecx,esi
  40afbb:	lea    edx,[edx-0x1]
  40afbe:	call   0x40e4f5
  40afc3:	lea    edx,[ebp-0xf30]
  40afc9:	mov    ecx,esi
  40afcb:	call   0x405424
  40afd0:	cmp    eax,edi
  40afd2:	jne    0x40b00d
  40afd4:	lea    ecx,[ebp-0xf34]
  40afda:	call   0x40e254
  40afdf:	lea    ecx,[ebp-0xf30]
  40afe5:	call   0x40db64
  40afea:	jmp    0x40ae9f
  40afef:	mov    ecx,0x31d
  40aff4:	jmp    0x40b0ea
  40aff9:	mov    ecx,0x31c
  40affe:	jmp    0x40b0ea
  40b003:	mov    ecx,0x31e
  40b008:	jmp    0x40b0ea
  40b00d:	lea    eax,[ebp-0x208]
  40b013:	push   eax
  40b014:	push   DWORD PTR [ebp-0xf30]
  40b01a:	push   0x401160
  40b01f:	call   DWORD PTR ds:0x413020
  40b025:	push   DWORD PTR [ebp-0xf40]
  40b02b:	test   eax,eax
  40b02d:	je     0x40b09b
  40b02f:	mov    ecx,0x31f
  40b034:	call   0x40c92c
  40b039:	push   eax
  40b03a:	push   edi
  40b03b:	push   edi
  40b03c:	push   edi
  40b03d:	call   0x411711
  40b042:	pop    ecx
  40b043:	push   eax
  40b044:	call   0x40d6cd
  40b049:	add    esp,0x14
  40b04c:	lea    ecx,[ebp-0x208]
  40b052:	call   0x4053d0
  40b057:	lea    ecx,[ebp-0xf34]
  40b05d:	call   0x40e254
  40b062:	lea    ecx,[ebp-0xf30]
  40b068:	call   0x40db64
  40b06d:	cmp    DWORD PTR [ebp-0xf2c],0x0
  40b074:	je     0x40b07e
  40b076:	push   ecx
  40b077:	mov    ecx,ebx
  40b079:	call   0x40f1cf
  40b07e:	lea    ecx,[ebp-0xf3c]
  40b084:	call   0x40db64
  40b089:	lea    ecx,[ebp-0xf38]
  40b08f:	call   0x40db64
  40b094:	xor    eax,eax
  40b096:	jmp    0x40b14c
  40b09b:	mov    ecx,0x320
  40b0a0:	call   0x40c92c
  40b0a5:	push   eax
  40b0a6:	push   edi
  40b0a7:	push   edi
  40b0a8:	push   0x2
  40b0aa:	call   0x411711
  40b0af:	pop    ecx
  40b0b0:	push   eax
  40b0b1:	call   0x40d6cd
  40b0b6:	add    esp,0x14
  40b0b9:	lea    ecx,[ebp-0xf34]
  40b0bf:	call   0x40e254
  40b0c4:	jmp    0x40ad7c
  40b0c9:	push   0x8
  40b0cb:	call   DWORD PTR ds:0x413030
  40b0d1:	push   0x2
  40b0d3:	call   0x411711
  40b0d8:	pop    ecx
  40b0d9:	mov    edx,0x10001
  40b0de:	mov    ecx,eax
  40b0e0:	call   0x40c74a
  40b0e5:	jmp    0x40b102
  40b0e7:	push   0x7d
  40b0e9:	pop    ecx
  40b0ea:	call   0x40c92c
  40b0ef:	push   0x2
  40b0f1:	mov    esi,eax
  40b0f3:	call   0x411711
  40b0f8:	pop    ecx
  40b0f9:	mov    edx,esi
  40b0fb:	mov    ecx,eax
  40b0fd:	call   0x40d474
  40b102:	lea    ecx,[ebp-0x208]
  40b108:	call   0x4053d0
  40b10d:	lea    ecx,[ebp-0xf34]
  40b113:	call   0x40e254
  40b118:	lea    ecx,[ebp-0xf30]
  40b11e:	call   0x40db64
  40b123:	cmp    DWORD PTR [ebp-0xf2c],0x0
  40b12a:	je     0x40b134
  40b12c:	push   ecx
  40b12d:	mov    ecx,ebx
  40b12f:	call   0x40f1cf
  40b134:	lea    ecx,[ebp-0xf3c]
  40b13a:	call   0x40db64
  40b13f:	lea    ecx,[ebp-0xf38]
  40b145:	call   0x40db64
  40b14a:	mov    eax,edi
  40b14c:	mov    ecx,DWORD PTR [ebp-0x4]
  40b14f:	pop    edi
  40b150:	pop    esi
  40b151:	xor    ecx,ebp
  40b153:	pop    ebx
  40b154:	call   0x411090
  40b159:	mov    esp,ebp
  40b15b:	pop    ebp
  40b15c:	ret    
  40b15d:	int3   
  40b15e:	int3   
  40b15f:	int3   
  40b160:	int3   
  40b161:	int3   
  40b162:	mov    edi,edi
  40b164:	push   ebp
  40b165:	mov    ebp,esp
  40b167:	sub    esp,0x204
  40b16d:	mov    eax,ds:0x412004
  40b172:	xor    eax,ebp
  40b174:	mov    DWORD PTR [ebp-0x4],eax
  40b177:	and    DWORD PTR [ebp-0x204],0x0
  40b17e:	lea    eax,[ebp-0x200]
  40b184:	push   ebx
  40b185:	mov    ebx,DWORD PTR [ebp+0x8]
  40b188:	push   esi
  40b189:	push   edi
  40b18a:	push   0x1fa
  40b18f:	push   0x0
  40b191:	push   eax
  40b192:	mov    edi,edx
  40b194:	mov    esi,ecx
  40b196:	call   0x411770
  40b19b:	add    esp,0xc
  40b19e:	mov    edx,edi
  40b1a0:	mov    ecx,esi
  40b1a2:	push   0x0
  40b1a4:	call   0x40ce66
  40b1a9:	test   eax,eax
  40b1ab:	jne    0x40b1c1
  40b1ad:	inc    eax
  40b1ae:	mov    ecx,DWORD PTR [ebp-0x4]
  40b1b1:	pop    edi
  40b1b2:	pop    esi
  40b1b3:	xor    ecx,ebp
  40b1b5:	pop    ebx
  40b1b6:	call   0x411090
  40b1bb:	mov    esp,ebp
  40b1bd:	pop    ebp
  40b1be:	ret    0x4
  40b1c1:	push   0xff
  40b1c6:	mov    edx,eax
  40b1c8:	lea    ecx,[ebp-0x204]
  40b1ce:	call   0x40d369
  40b1d3:	push   0x20
  40b1d5:	lea    eax,[ebp-0x204]
  40b1db:	push   eax
  40b1dc:	call   DWORD PTR ds:0x413120
  40b1e2:	test   eax,eax
  40b1e4:	jne    0x40b1fc
  40b1e6:	push   0xfe
  40b1eb:	lea    edx,[ebp-0x204]
  40b1f1:	mov    ecx,ebx
  40b1f3:	call   0x40d369
  40b1f8:	xor    eax,eax
  40b1fa:	jmp    0x40b1ae
  40b1fc:	lea    ecx,[ebp-0x204]
  40b202:	mov    edx,0xfe
  40b207:	sub    eax,ecx
  40b209:	sar    eax,1
  40b20b:	cmp    eax,edx
  40b20d:	jle    0x40b211
  40b20f:	mov    eax,edx
  40b211:	add    eax,eax
  40b213:	cmp    eax,0x1fe
  40b218:	jae    0x40b227
  40b21a:	xor    ecx,ecx
  40b21c:	mov    WORD PTR [ebp+eax*1-0x204],cx
  40b224:	push   edx
  40b225:	jmp    0x40b1eb
  40b227:	call   0x4111e9
  40b22c:	int3   
  40b22d:	int3   
  40b22e:	int3   
  40b22f:	int3   
  40b230:	int3   
  40b231:	int3   
  40b232:	mov    edi,edi
  40b234:	push   ebp
  40b235:	mov    ebp,esp
  40b237:	mov    eax,0x10bc
  40b23c:	call   0x411740
  40b241:	mov    eax,ds:0x412004
  40b246:	xor    eax,ebp
  40b248:	mov    DWORD PTR [ebp-0x4],eax
  40b24b:	push   ebx
  40b24c:	push   esi
  40b24d:	xor    eax,eax
  40b24f:	mov    ebx,ecx
  40b251:	push   edi
  40b252:	push   0x1fc
  40b257:	push   eax
  40b258:	mov    DWORD PTR [ebp-0x10b4],eax
  40b25e:	mov    esi,edx
  40b260:	mov    DWORD PTR [ebp-0x109c],eax
  40b266:	mov    DWORD PTR [ebp-0x10b8],eax
  40b26c:	mov    DWORD PTR [ebp-0x1098],eax
  40b272:	mov    DWORD PTR [ebp-0x1094],eax
  40b278:	mov    DWORD PTR [ebp-0x208],eax
  40b27e:	lea    eax,[ebp-0x204]
  40b284:	push   eax
  40b285:	mov    DWORD PTR [ebp-0x10a4],ebx
  40b28b:	call   0x411770
  40b290:	add    esp,0xc
  40b293:	xor    eax,eax
  40b295:	mov    edi,0x1f8
  40b29a:	mov    DWORD PTR [ebp-0x10ac],eax
  40b2a0:	mov    DWORD PTR [ebp-0x10a8],eax
  40b2a6:	mov    DWORD PTR [ebp-0xa08],eax
  40b2ac:	push   edi
  40b2ad:	push   eax
  40b2ae:	lea    eax,[ebp-0xa04]
  40b2b4:	push   eax
  40b2b5:	call   0x411770
  40b2ba:	and    DWORD PTR [ebp-0x408],0x0
  40b2c1:	lea    eax,[ebp-0x404]
  40b2c7:	add    esp,0xc
  40b2ca:	push   edi
  40b2cb:	push   0x0
  40b2cd:	push   eax
  40b2ce:	call   0x411770
  40b2d3:	add    esp,0xc
  40b2d6:	xor    eax,eax
  40b2d8:	mov    DWORD PTR [ebp-0x108c],eax
  40b2de:	mov    DWORD PTR [ebp-0x808],eax
  40b2e4:	push   edi
  40b2e5:	push   eax
  40b2e6:	lea    eax,[ebp-0x804]
  40b2ec:	push   eax
  40b2ed:	call   0x411770
  40b2f2:	and    DWORD PTR [ebp-0xc08],0x0
  40b2f9:	lea    eax,[ebp-0xc04]
  40b2ff:	add    esp,0xc
  40b302:	add    edi,0x2
  40b305:	push   edi
  40b306:	push   0x0
  40b308:	push   eax
  40b309:	call   0x411770
  40b30e:	and    DWORD PTR [ebp-0x608],0x0
  40b315:	lea    eax,[ebp-0x604]
  40b31b:	add    esp,0xc
  40b31e:	push   edi
  40b31f:	push   0x0
  40b321:	push   eax
  40b322:	call   0x411770
  40b327:	add    esp,0xc
  40b32a:	xor    eax,eax
  40b32c:	mov    DWORD PTR [ebp-0x10b0],eax
  40b332:	mov    DWORD PTR [ebp-0x10a0],eax
  40b338:	mov    DWORD PTR [ebp-0xe08],eax
  40b33e:	push   edi
  40b33f:	push   eax
  40b340:	lea    eax,[ebp-0xe04]
  40b346:	push   eax
  40b347:	call   0x411770
  40b34c:	add    esp,0xc
  40b34f:	lea    eax,[ebp-0x1088]
  40b355:	and    DWORD PTR [ebp-0x1090],0x0
  40b35c:	mov    ecx,0x280
  40b361:	mov    BYTE PTR [eax],0x0
  40b364:	inc    eax
  40b365:	sub    ecx,0x1
  40b368:	jne    0x40b361
  40b36a:	push   0xfe
  40b36f:	mov    edx,0x401134
  40b374:	lea    ecx,[ebp-0xa08]
  40b37a:	call   0x40d369
  40b37f:	push   0x8
  40b381:	mov    edx,0x401054
  40b386:	lea    ecx,[ebp-0x1088]
  40b38c:	call   0x40d306
  40b391:	xor    edi,edi
  40b393:	mov    DWORD PTR [ebp-0x1068],0x4010e0
  40b39d:	lea    eax,[ebp-0x10b8]
  40b3a3:	mov    DWORD PTR [ebp-0x1080],0xa
  40b3ad:	inc    edi
  40b3ae:	mov    DWORD PTR [ebp-0x105c],eax
  40b3b4:	push   0x8
  40b3b6:	mov    edx,0x401054
  40b3bb:	mov    DWORD PTR [ebp-0x1070],edi
  40b3c1:	lea    ecx,[ebp-0x1038]
  40b3c7:	call   0x40d306
  40b3cc:	and    DWORD PTR [ebp-0x1024],0x0
  40b3d3:	lea    ecx,[ebp-0xfe8]
  40b3d9:	push   0x8
  40b3db:	mov    edx,0x401054
  40b3e0:	mov    DWORD PTR [ebp-0x1018],0x401138
  40b3ea:	mov    DWORD PTR [ebp-0x1028],0x12000
  40b3f4:	mov    DWORD PTR [ebp-0x1030],edi
  40b3fa:	mov    DWORD PTR [ebp-0x1020],edi
  40b400:	call   0x40d306
  40b405:	and    DWORD PTR [ebp-0xfd4],0x0
  40b40c:	lea    ecx,[ebp-0xf98]
  40b412:	push   0x8
  40b414:	mov    edx,0x401054
  40b419:	mov    DWORD PTR [ebp-0xfc8],0x40113c
  40b423:	mov    DWORD PTR [ebp-0xfd8],0x12000
  40b42d:	mov    DWORD PTR [ebp-0xfe0],edi
  40b433:	mov    DWORD PTR [ebp-0xfd0],edi
  40b439:	call   0x40d306
  40b43e:	and    DWORD PTR [ebp-0xf84],0x0
  40b445:	lea    eax,[ebp-0xa08]
  40b44b:	push   0x8
  40b44d:	mov    edx,0x401054
  40b452:	mov    DWORD PTR [ebp-0xf78],0x401140
  40b45c:	lea    ecx,[ebp-0xf48]
  40b462:	mov    DWORD PTR [ebp-0xf88],0x10
  40b46c:	mov    DWORD PTR [ebp-0xf90],edi
  40b472:	mov    DWORD PTR [ebp-0xf80],edi
  40b478:	mov    DWORD PTR [ebp-0xf6c],eax
  40b47e:	mov    DWORD PTR [ebp-0xf68],0xfe
  40b488:	call   0x40d306
  40b48d:	and    DWORD PTR [ebp-0xf34],0x0
  40b494:	lea    eax,[ebp-0x10b4]
  40b49a:	push   0x8
  40b49c:	mov    edx,0x401054
  40b4a1:	mov    DWORD PTR [ebp-0xf28],0x401084
  40b4ab:	lea    ecx,[ebp-0xef8]
  40b4b1:	mov    DWORD PTR [ebp-0xf38],0x20000
  40b4bb:	mov    DWORD PTR [ebp-0xf40],0xa
  40b4c5:	mov    DWORD PTR [ebp-0xf30],edi
  40b4cb:	mov    DWORD PTR [ebp-0xf1c],eax
  40b4d1:	call   0x40d306
  40b4d6:	lea    eax,[ebp-0x1098]
  40b4dc:	mov    DWORD PTR [ebp-0xed8],0x401148
  40b4e6:	push   0x8
  40b4e8:	mov    edx,0x401054
  40b4ed:	mov    DWORD PTR [ebp-0xef0],0x3
  40b4f7:	lea    ecx,[ebp-0xea8]
  40b4fd:	mov    DWORD PTR [ebp-0xee0],edi
  40b503:	mov    DWORD PTR [ebp-0xecc],eax
  40b509:	call   0x40d306
  40b50e:	and    DWORD PTR [ebp-0xe94],0x0
  40b515:	lea    eax,[ebp-0x10a0]
  40b51b:	push   0x8
  40b51d:	mov    edx,0x401054
  40b522:	mov    DWORD PTR [ebp-0xe88],0x401614
  40b52c:	lea    ecx,[ebp-0xe58]
  40b532:	mov    DWORD PTR [ebp-0xe98],0x2000
  40b53c:	mov    DWORD PTR [ebp-0xea0],0x3
  40b546:	mov    DWORD PTR [ebp-0xe90],edi
  40b54c:	mov    DWORD PTR [ebp-0xe7c],eax
  40b552:	call   0x40d306
  40b557:	mov    DWORD PTR [ebp-0xe38],0x40104c
  40b561:	and    DWORD PTR [ebp-0xe44],0x0
  40b568:	lea    eax,[ebp-0x808]
  40b56e:	push   ecx
  40b56f:	mov    DWORD PTR [ebp-0xe2c],eax
  40b575:	mov    edx,esi
  40b577:	lea    eax,[ebp-0x1088]
  40b57d:	mov    DWORD PTR [ebp-0xe48],0xc00c0
  40b587:	push   eax
  40b588:	push   0x8
  40b58a:	push   0x0
  40b58c:	mov    ecx,ebx
  40b58e:	mov    DWORD PTR [ebp-0xe50],edi
  40b594:	mov    DWORD PTR [ebp-0xe40],edi
  40b59a:	mov    DWORD PTR [ebp-0xe28],0xfe
  40b5a4:	call   0x410a21
  40b5a9:	test   eax,eax
  40b5ab:	jne    0x40b5c6
  40b5ad:	push   0x2
  40b5af:	call   0x411711
  40b5b4:	pop    ecx
  40b5b5:	mov    edx,0x20001
  40b5ba:	mov    ecx,eax
  40b5bc:	call   0x40c74a
  40b5c1:	jmp    0x40bed3
  40b5c6:	mov    esi,DWORD PTR [ebp-0xfbc]
  40b5cc:	mov    ebx,DWORD PTR [ebp-0x100c]
  40b5d2:	mov    DWORD PTR [ebp-0x10ac],ebx
  40b5d8:	mov    DWORD PTR [ebp-0x10a8],esi
  40b5de:	test   esi,esi
  40b5e0:	jne    0x40b5f8
  40b5e2:	mov    ecx,0x1fc
  40b5e7:	call   0x40dc18
  40b5ec:	mov    esi,eax
  40b5ee:	mov    DWORD PTR [ebp-0x10a8],esi
  40b5f4:	test   esi,esi
  40b5f6:	je     0x40b5ad
  40b5f8:	push   ecx
  40b5f9:	xor    edx,edx
  40b5fb:	mov    ecx,ebx
  40b5fd:	call   0x40cf40
  40b602:	push   ecx
  40b603:	xor    edx,edx
  40b605:	mov    ecx,esi
  40b607:	call   0x40cf40
  40b60c:	cmp    DWORD PTR [ebp-0x10b4],edi
  40b612:	jne    0x40b63f
  40b614:	cmp    DWORD PTR [ebp-0x10a4],0x3
  40b61b:	jbe    0x40b63f
  40b61d:	mov    ecx,0x43b
  40b622:	call   0x40c92c
  40b627:	push   0x2
  40b629:	mov    esi,eax
  40b62b:	call   0x411711
  40b630:	pop    ecx
  40b631:	mov    edx,esi
  40b633:	mov    ecx,eax
  40b635:	call   0x40d474
  40b63a:	jmp    0x40bed3
  40b63f:	cmp    DWORD PTR [ebp-0x101c],0x0
  40b646:	je     0x40b65a
  40b648:	mov    ecx,ebx
  40b64a:	call   0x40d408
  40b64f:	test   eax,eax
  40b651:	jne    0x40b65a
  40b653:	mov    ecx,0x30e
  40b658:	jmp    0x40b622
  40b65a:	cmp    DWORD PTR [ebp-0xfcc],0x0
  40b661:	je     0x40b675
  40b663:	mov    ecx,esi
  40b665:	call   0x40d408
  40b66a:	test   eax,eax
  40b66c:	jne    0x40b675
  40b66e:	mov    ecx,0x30f
  40b673:	jmp    0x40b622
  40b675:	cmp    DWORD PTR [ebp-0x10b4],0x0
  40b67c:	mov    ecx,ebx
  40b67e:	je     0x40b6bb
  40b680:	call   0x40c1d9
  40b685:	cmp    eax,edi
  40b687:	je     0x40bebd
  40b68d:	mov    ebx,0x7e9
  40b692:	mov    ecx,ebx
  40b694:	call   0x40c92c
  40b699:	push   edi
  40b69a:	mov    esi,eax
  40b69c:	call   0x411711
  40b6a1:	pop    ecx
  40b6a2:	mov    edx,esi
  40b6a4:	mov    ecx,eax
  40b6a6:	call   0x40d474
  40b6ab:	inc    ebx
  40b6ac:	cmp    ebx,0x807
  40b6b2:	jbe    0x40b692
  40b6b4:	xor    edi,edi
  40b6b6:	jmp    0x40bebd
  40b6bb:	call   0x40eb0c
  40b6c0:	test   eax,eax
  40b6c2:	je     0x40b6f4
  40b6c4:	call   0x40ea45
  40b6c9:	test   eax,eax
  40b6cb:	jne    0x40b6f4
  40b6cd:	mov    ecx,0xe87
  40b6d2:	call   0x40c92c
  40b6d7:	push   0x2
  40b6d9:	mov    esi,eax
  40b6db:	call   0x411711
  40b6e0:	pop    ecx
  40b6e1:	mov    edx,esi
  40b6e3:	mov    ecx,eax
  40b6e5:	call   0x40d474
  40b6ea:	call   0x40c7e2
  40b6ef:	jmp    0x40bed3
  40b6f4:	push   0x0
  40b6f6:	push   edi
  40b6f7:	mov    edx,0x401558
  40b6fc:	lea    ecx,[ebp-0x808]
  40b702:	call   0x40d41c
  40b707:	test   eax,eax
  40b709:	je     0x40b761
  40b70b:	push   0x0
  40b70d:	push   edi
  40b70e:	mov    edx,0x401550
  40b713:	lea    ecx,[ebp-0x808]
  40b719:	call   0x40d41c
  40b71e:	test   eax,eax
  40b720:	je     0x40b761
  40b722:	mov    ecx,0x811
  40b727:	call   0x40c92c
  40b72c:	push   0x2
  40b72e:	mov    esi,eax
  40b730:	call   0x411711
  40b735:	pop    ecx
  40b736:	mov    edx,esi
  40b738:	mov    ecx,eax
  40b73a:	call   0x40d474
  40b73f:	mov    ecx,0x80f
  40b744:	call   0x40c92c
  40b749:	push   0x2
  40b74b:	mov    esi,eax
  40b74d:	call   0x411711
  40b752:	pop    ecx
  40b753:	mov    edx,esi
  40b755:	mov    ecx,eax
  40b757:	call   0x40d474
  40b75c:	jmp    0x40bebd
  40b761:	push   0x0
  40b763:	push   edi
  40b764:	mov    edx,0x401558
  40b769:	lea    ecx,[ebp-0x808]
  40b76f:	call   0x40d41c
  40b774:	test   eax,eax
  40b776:	jne    0x40b787
  40b778:	cmp    DWORD PTR [ebp-0xe8c],eax
  40b77e:	je     0x40b787
  40b780:	mov    ecx,0x43b
  40b785:	jmp    0x40b744
  40b787:	push   0x0
  40b789:	push   edi
  40b78a:	mov    edx,0x401550
  40b78f:	lea    ecx,[ebp-0x808]
  40b795:	call   0x40d41c
  40b79a:	test   eax,eax
  40b79c:	jne    0x40b7ad
  40b79e:	cmp    DWORD PTR [ebp-0xe8c],eax
  40b7a4:	jne    0x40b7ad
  40b7a6:	mov    ecx,0xe86
  40b7ab:	jmp    0x40b744
  40b7ad:	push   0x0
  40b7af:	push   edi
  40b7b0:	mov    edx,0x401550
  40b7b5:	lea    ecx,[ebp-0x808]
  40b7bb:	call   0x40d41c
  40b7c0:	test   eax,eax
  40b7c2:	jne    0x40b7e7
  40b7c4:	cmp    DWORD PTR [ebp-0xe8c],eax
  40b7ca:	je     0x40b7e7
  40b7cc:	cmp    DWORD PTR [ebp-0x10a0],edi
  40b7d2:	jb     0x40b7dd
  40b7d4:	cmp    DWORD PTR [ebp-0x10a0],0x40
  40b7db:	jbe    0x40b7e7
  40b7dd:	mov    ecx,0x43c
  40b7e2:	jmp    0x40b744
  40b7e7:	cmp    DWORD PTR [ebp-0x101c],0x0
  40b7ee:	jne    0x40b803
  40b7f0:	cmp    DWORD PTR [ebp-0xfcc],0x0
  40b7f7:	je     0x40b80c
  40b7f9:	mov    ecx,0x30b
  40b7fe:	jmp    0x40b744
  40b803:	cmp    DWORD PTR [ebp-0xfcc],0x0
  40b80a:	jne    0x40b81f
  40b80c:	cmp    DWORD PTR [ebp-0xf7c],0x0
  40b813:	je     0x40b81f
  40b815:	mov    ecx,0x30c
  40b81a:	jmp    0x40b744
  40b81f:	mov    ecx,ebx
  40b821:	call   0x40eb0c
  40b826:	test   eax,eax
  40b828:	jne    0x40b886
  40b82a:	cmp    DWORD PTR [ebp-0xf7c],eax
  40b830:	je     0x40b859
  40b832:	push   eax
  40b833:	push   edi
  40b834:	mov    edx,0x401134
  40b839:	lea    ecx,[ebp-0xa08]
  40b83f:	call   0x40d41c
  40b844:	test   eax,eax
  40b846:	jne    0x40b850
  40b848:	mov    DWORD PTR [ebp-0x109c],edi
  40b84e:	jmp    0x40b886
  40b850:	cmp    DWORD PTR [ebp-0xf7c],0x0
  40b857:	jne    0x40b886
  40b859:	cmp    DWORD PTR [ebp-0x101c],0x0
  40b860:	jne    0x40b86b
  40b862:	cmp    DWORD PTR [ebp-0xfcc],0x0
  40b869:	je     0x40b886
  40b86b:	push   0xfe
  40b870:	mov    edx,0x40104c
  40b875:	mov    DWORD PTR [ebp-0x109c],edi
  40b87b:	lea    ecx,[ebp-0xa08]
  40b881:	call   0x40d369
  40b886:	push   0x2
  40b888:	push   0x401150
  40b88d:	push   ebx
  40b88e:	call   DWORD PTR ds:0x413124
  40b894:	test   eax,eax
  40b896:	jne    0x40b8f2
  40b898:	push   0x3
  40b89a:	push   0x401158
  40b89f:	push   ebx
  40b8a0:	call   DWORD PTR ds:0x413124
  40b8a6:	test   eax,eax
  40b8a8:	je     0x40b8f2
  40b8aa:	push   0x401150
  40b8af:	push   ebx
  40b8b0:	call   DWORD PTR ds:0x4131b4
  40b8b6:	mov    DWORD PTR [ebp-0x10a4],eax
  40b8bc:	pop    ecx
  40b8bd:	pop    ecx
  40b8be:	test   eax,eax
  40b8c0:	jne    0x40b8e4
  40b8c2:	push   eax
  40b8c3:	push   edi
  40b8c4:	mov    edx,0x401150
  40b8c9:	mov    ecx,ebx
  40b8cb:	call   0x40d41c
  40b8d0:	test   eax,eax
  40b8d2:	je     0x40b8de
  40b8d4:	mov    ecx,0xe7d
  40b8d9:	jmp    0x40b622
  40b8de:	mov    eax,DWORD PTR [ebp-0x10a4]
  40b8e4:	push   0xfe
  40b8e9:	mov    edx,eax
  40b8eb:	mov    ecx,ebx
  40b8ed:	call   0x40d369
  40b8f2:	lea    eax,[ebp-0x1090]
  40b8f8:	mov    edx,esi
  40b8fa:	push   eax
  40b8fb:	push   DWORD PTR [ebp-0x109c]
  40b901:	lea    eax,[ebp-0x408]
  40b907:	mov    ecx,ebx
  40b909:	push   eax
  40b90a:	lea    eax,[ebp-0xa08]
  40b910:	push   eax
  40b911:	call   0x404ec4
  40b916:	test   eax,eax
  40b918:	je     0x40bea1
  40b91e:	mov    ecx,ebx
  40b920:	call   0x40eb0c
  40b925:	cmp    eax,edi
  40b927:	jne    0x40b951
  40b929:	mov    ecx,esi
  40b92b:	call   0x40d408
  40b930:	test   eax,eax
  40b932:	je     0x40b951
  40b934:	mov    ecx,0x313
  40b939:	call   0x40c92c
  40b93e:	push   0x2
  40b940:	mov    esi,eax
  40b942:	call   0x411711
  40b947:	pop    ecx
  40b948:	mov    edx,esi
  40b94a:	mov    ecx,eax
  40b94c:	call   0x40d474
  40b951:	lea    ecx,[ebp-0x408]
  40b957:	call   0x404b94
  40b95c:	mov    esi,eax
  40b95e:	mov    DWORD PTR [ebp-0x1094],esi
  40b964:	test   esi,esi
  40b966:	jne    0x40b978
  40b968:	lea    ecx,[ebp-0x408]
  40b96e:	call   0x4053d0
  40b973:	jmp    0x40bea1
  40b978:	mov    edx,DWORD PTR [ebp-0x1098]
  40b97e:	test   edx,edx
  40b980:	je     0x40be70
  40b986:	mov    ecx,esi
  40b988:	call   0x40e5c6
  40b98d:	cmp    edx,eax
  40b98f:	ja     0x40be70
  40b995:	dec    edx
  40b996:	call   0x40e62c
  40b99b:	mov    ecx,eax
  40b99d:	mov    DWORD PTR [ebp-0x10a4],eax
  40b9a3:	call   0x40d408
  40b9a8:	mov    ecx,0xfe
  40b9ad:	cmp    eax,ecx
  40b9af:	jbe    0x40b9d5
  40b9b1:	push   ecx
  40b9b2:	mov    ecx,0xc12
  40b9b7:	call   0x40c92c
  40b9bc:	push   eax
  40b9bd:	push   edi
  40b9be:	push   edi
  40b9bf:	push   0x2
  40b9c1:	call   0x411711
  40b9c6:	pop    ecx
  40b9c7:	push   eax
  40b9c8:	call   0x40d6cd
  40b9cd:	add    esp,0x14
  40b9d0:	jmp    0x40be8b
  40b9d5:	mov    edx,DWORD PTR [ebp-0x10a4]
  40b9db:	test   edx,edx
  40b9dd:	je     0x40be52
  40b9e3:	push   0x100
  40b9e8:	lea    ecx,[ebp-0x208]
  40b9ee:	call   0x40d369
  40b9f3:	push   0x0
  40b9f5:	push   edi
  40b9f6:	mov    edx,0x401550
  40b9fb:	lea    ecx,[ebp-0x808]
  40ba01:	call   0x40d41c
  40ba06:	test   eax,eax
  40ba08:	jne    0x40bbe5
  40ba0e:	push   eax
  40ba0f:	push   edi
  40ba10:	mov    edx,0x401590
  40ba15:	lea    ecx,[ebp-0x208]
  40ba1b:	call   0x40ce8e
  40ba20:	cmp    eax,0xffffffff
  40ba23:	je     0x40ba3a
  40ba25:	lea    eax,[ebp+eax*2-0x208]
  40ba2c:	test   eax,eax
  40ba2e:	je     0x40ba3a
  40ba30:	mov    ecx,0x310
  40ba35:	jmp    0x40be73
  40ba3a:	push   0x0
  40ba3c:	push   edi
  40ba3d:	mov    edx,0x40161c
  40ba42:	lea    ecx,[ebp-0x208]
  40ba48:	call   0x40ce8e
  40ba4d:	cmp    eax,0xffffffff
  40ba50:	je     0x40ba67
  40ba52:	lea    eax,[ebp+eax*2-0x208]
  40ba59:	test   eax,eax
  40ba5b:	je     0x40ba67
  40ba5d:	mov    ecx,0xe7e
  40ba62:	jmp    0x40be73
  40ba67:	push   0x0
  40ba69:	push   edi
  40ba6a:	mov    edx,0x4013dc
  40ba6f:	lea    ecx,[ebp-0x208]
  40ba75:	call   0x40ce8e
  40ba7a:	cmp    eax,0xffffffff
  40ba7d:	je     0x40ba8a
  40ba7f:	lea    eax,[ebp+eax*2-0x208]
  40ba86:	test   eax,eax
  40ba88:	jne    0x40bab4
  40ba8a:	push   0xff
  40ba8f:	mov    edx,0x40119c
  40ba94:	lea    ecx,[ebp-0x608]
  40ba9a:	call   0x40d369
  40ba9f:	push   0xff
  40baa4:	mov    edx,0x4013dc
  40baa9:	lea    ecx,[ebp-0x608]
  40baaf:	call   0x40d3ce
  40bab4:	lea    eax,[ebp-0x608]
  40baba:	test   eax,eax
  40babc:	je     0x40bae0
  40babe:	push   eax
  40babf:	call   DWORD PTR ds:0x4130f0
  40bac5:	test   eax,eax
  40bac7:	je     0x40bae0
  40bac9:	push   0xff
  40bace:	mov    edx,0x40119c
  40bad3:	lea    ecx,[ebp-0x608]
  40bad9:	call   0x40d3ce
  40bade:	jmp    0x40baf5
  40bae0:	push   0xff
  40bae5:	mov    edx,0x40119c
  40baea:	lea    ecx,[ebp-0x608]
  40baf0:	call   0x40d369
  40baf5:	push   0xff
  40bafa:	mov    edx,0x401404
  40baff:	lea    ecx,[ebp-0x608]
  40bb05:	call   0x40d3ce
  40bb0a:	cmp    DWORD PTR [ebp-0x10a0],0x0
  40bb11:	je     0x40bb80
  40bb13:	push   0xff
  40bb18:	mov    edx,0x40119c
  40bb1d:	lea    ecx,[ebp-0x608]
  40bb23:	call   0x40d3ce
  40bb28:	push   0xff
  40bb2d:	mov    edx,0x401634
  40bb32:	lea    ecx,[ebp-0x608]
  40bb38:	call   0x40d3ce
  40bb3d:	push   0xff
  40bb42:	mov    edx,0x401198
  40bb47:	lea    ecx,[ebp-0x608]
  40bb4d:	call   0x40d3ce
  40bb52:	push   0xa
  40bb54:	lea    eax,[ebp-0xe08]
  40bb5a:	push   eax
  40bb5b:	push   DWORD PTR [ebp-0x10a0]
  40bb61:	call   DWORD PTR ds:0x4131b0
  40bb67:	add    esp,0xc
  40bb6a:	lea    edx,[ebp-0xe08]
  40bb70:	lea    ecx,[ebp-0x608]
  40bb76:	push   0xff
  40bb7b:	call   0x40d3ce
  40bb80:	lea    eax,[ebp-0x208]
  40bb86:	test   eax,eax
  40bb88:	jne    0x40bb92
  40bb8a:	and    DWORD PTR [ebp-0x109c],eax
  40bb90:	jmp    0x40bba5
  40bb92:	lea    eax,[ebp-0x208]
  40bb98:	push   eax
  40bb99:	call   DWORD PTR ds:0x4130f0
  40bb9f:	mov    DWORD PTR [ebp-0x109c],eax
  40bba5:	lea    eax,[ebp-0x608]
  40bbab:	test   eax,eax
  40bbad:	je     0x40bbbc
  40bbaf:	lea    eax,[ebp-0x608]
  40bbb5:	push   eax
  40bbb6:	call   DWORD PTR ds:0x4130f0
  40bbbc:	add    eax,DWORD PTR [ebp-0x109c]
  40bbc2:	mov    ecx,0xfe
  40bbc7:	cmp    eax,ecx
  40bbc9:	ja     0x40b9b1
  40bbcf:	push   0x100
  40bbd4:	lea    edx,[ebp-0x608]
  40bbda:	lea    ecx,[ebp-0x208]
  40bbe0:	call   0x40d3ce
  40bbe5:	push   0x0
  40bbe7:	push   edi
  40bbe8:	mov    edx,0x401558
  40bbed:	lea    ecx,[ebp-0x808]
  40bbf3:	call   0x40d41c
  40bbf8:	test   eax,eax
  40bbfa:	jne    0x40bd09
  40bc00:	push   eax
  40bc01:	push   edi
  40bc02:	mov    edx,0x401404
  40bc07:	lea    ecx,[ebp-0x208]
  40bc0d:	call   0x40ce8e
  40bc12:	cmp    eax,0xffffffff
  40bc15:	je     0x40bd8a
  40bc1b:	lea    eax,[ebp+eax*2-0x208]
  40bc22:	test   eax,eax
  40bc24:	je     0x40bd8a
  40bc2a:	mov    edx,0x401404
  40bc2f:	lea    ecx,[ebp-0x208]
  40bc35:	call   0x404db5
  40bc3a:	cmp    eax,edi
  40bc3c:	jne    0x40bc6a
  40bc3e:	lea    ecx,[ebp-0x408]
  40bc44:	call   0x4053d0
  40bc49:	lea    ecx,[ebp-0x1094]
  40bc4f:	call   0x40e254
  40bc54:	lea    ecx,[ebp-0x108c]
  40bc5a:	call   0x40db64
  40bc5f:	lea    ecx,[ebp-0x10b0]
  40bc65:	jmp    0x40bea7
  40bc6a:	mov    edx,0x4013dc
  40bc6f:	lea    ecx,[ebp-0x208]
  40bc75:	call   0x404db5
  40bc7a:	cmp    eax,edi
  40bc7c:	je     0x40bc3e
  40bc7e:	push   0x0
  40bc80:	push   edi
  40bc81:	mov    edx,0x401634
  40bc86:	lea    ecx,[ebp-0x208]
  40bc8c:	call   0x40ce8e
  40bc91:	cmp    eax,0xffffffff
  40bc94:	je     0x40bd09
  40bc96:	lea    eax,[ebp+eax*2-0x208]
  40bc9d:	test   eax,eax
  40bc9f:	je     0x40bd09
  40bca1:	push   0xfe
  40bca6:	mov    edx,0x401050
  40bcab:	lea    ecx,[ebp-0xc08]
  40bcb1:	call   0x40d369
  40bcb6:	lea    eax,[ebp-0xc08]
  40bcbc:	mov    edx,0x401634
  40bcc1:	push   eax
  40bcc2:	lea    ecx,[ebp-0x208]
  40bcc8:	call   0x40b162
  40bccd:	cmp    eax,edi
  40bccf:	jne    0x40bcdb
  40bcd1:	mov    ecx,0x829
  40bcd6:	jmp    0x40be73
  40bcdb:	lea    eax,[ebp-0xc08]
  40bce1:	test   eax,eax
  40bce3:	je     0x40bd09
  40bce5:	push   eax
  40bce6:	call   DWORD PTR ds:0x4130f0
  40bcec:	test   eax,eax
  40bcee:	je     0x40bd09
  40bcf0:	lea    edx,[ebp-0xc08]
  40bcf6:	lea    ecx,[ebp-0x208]
  40bcfc:	call   0x404db5
  40bd01:	cmp    eax,edi
  40bd03:	je     0x40bc3e
  40bd09:	lea    eax,[ebp-0x208]
  40bd0f:	test   eax,eax
  40bd11:	je     0x40bd27
  40bd13:	push   eax
  40bd14:	call   DWORD PTR ds:0x4130f0
  40bd1a:	mov    ecx,0xfe
  40bd1f:	cmp    eax,ecx
  40bd21:	ja     0x40b9b1
  40bd27:	mov    edx,DWORD PTR [ebp-0x1098]
  40bd2d:	mov    ecx,esi
  40bd2f:	lea    edx,[edx-0x1]
  40bd32:	call   0x40e56f
  40bd37:	mov    edx,DWORD PTR [ebp-0x1098]
  40bd3d:	lea    eax,[ebp-0x208]
  40bd43:	push   0xff
  40bd48:	push   eax
  40bd49:	mov    ecx,esi
  40bd4b:	lea    edx,[edx-0x1]
  40bd4e:	call   0x40e4f5
  40bd53:	lea    edx,[ebp-0x108c]
  40bd59:	mov    ecx,esi
  40bd5b:	call   0x405424
  40bd60:	cmp    eax,edi
  40bd62:	jne    0x40bd94
  40bd64:	lea    ecx,[ebp-0x1094]
  40bd6a:	call   0x40e254
  40bd6f:	lea    ecx,[ebp-0x108c]
  40bd75:	call   0x40db64
  40bd7a:	lea    ecx,[ebp-0x408]
  40bd80:	call   0x4053d0
  40bd85:	jmp    0x40beac
  40bd8a:	mov    ecx,0x438
  40bd8f:	jmp    0x40be73
  40bd94:	lea    eax,[ebp-0x408]
  40bd9a:	push   eax
  40bd9b:	push   DWORD PTR [ebp-0x108c]
  40bda1:	push   0x401160
  40bda6:	call   DWORD PTR ds:0x413020
  40bdac:	push   DWORD PTR [ebp-0x1098]
  40bdb2:	test   eax,eax
  40bdb4:	je     0x40be24
  40bdb6:	mov    ecx,0x305
  40bdbb:	call   0x40c92c
  40bdc0:	push   eax
  40bdc1:	push   edi
  40bdc2:	push   edi
  40bdc3:	push   edi
  40bdc4:	call   0x411711
  40bdc9:	pop    ecx
  40bdca:	push   eax
  40bdcb:	call   0x40d6cd
  40bdd0:	add    esp,0x14
  40bdd3:	lea    ecx,[ebp-0x408]
  40bdd9:	call   0x4053d0
  40bdde:	lea    ecx,[ebp-0x1094]
  40bde4:	mov    esi,eax
  40bde6:	call   0x40e254
  40bdeb:	lea    ecx,[ebp-0x108c]
  40bdf1:	call   0x40db64
  40bdf6:	cmp    DWORD PTR [ebp-0x1090],0x0
  40bdfd:	je     0x40be07
  40bdff:	push   ecx
  40be00:	mov    ecx,ebx
  40be02:	call   0x40f1cf
  40be07:	lea    ecx,[ebp-0x10ac]
  40be0d:	call   0x40db64
  40be12:	lea    ecx,[ebp-0x10a8]
  40be18:	call   0x40db64
  40be1d:	mov    eax,esi
  40be1f:	jmp    0x40bed5
  40be24:	mov    ecx,0x43a
  40be29:	call   0x40c92c
  40be2e:	push   eax
  40be2f:	push   edi
  40be30:	push   edi
  40be31:	push   0x2
  40be33:	call   0x411711
  40be38:	pop    ecx
  40be39:	push   eax
  40be3a:	call   0x40d6cd
  40be3f:	add    esp,0x14
  40be42:	lea    ecx,[ebp-0x1094]
  40be48:	call   0x40e254
  40be4d:	jmp    0x40b968
  40be52:	push   0x8
  40be54:	call   DWORD PTR ds:0x413030
  40be5a:	push   0x2
  40be5c:	call   0x411711
  40be61:	pop    ecx
  40be62:	mov    edx,0x10001
  40be67:	mov    ecx,eax
  40be69:	call   0x40c74a
  40be6e:	jmp    0x40be8b
  40be70:	push   0x7d
  40be72:	pop    ecx
  40be73:	call   0x40c92c
  40be78:	push   0x2
  40be7a:	mov    esi,eax
  40be7c:	call   0x411711
  40be81:	pop    ecx
  40be82:	mov    edx,esi
  40be84:	mov    ecx,eax
  40be86:	call   0x40d474
  40be8b:	lea    ecx,[ebp-0x408]
  40be91:	call   0x4053d0
  40be96:	lea    ecx,[ebp-0x1094]
  40be9c:	call   0x40e254
  40bea1:	lea    ecx,[ebp-0x108c]
  40bea7:	call   0x40db64
  40beac:	cmp    DWORD PTR [ebp-0x1090],0x0
  40beb3:	je     0x40bebd
  40beb5:	push   ecx
  40beb6:	mov    ecx,ebx
  40beb8:	call   0x40f1cf
  40bebd:	lea    ecx,[ebp-0x10ac]
  40bec3:	call   0x40db64
  40bec8:	lea    ecx,[ebp-0x10a8]
  40bece:	call   0x40db64
  40bed3:	mov    eax,edi
  40bed5:	mov    ecx,DWORD PTR [ebp-0x4]
  40bed8:	pop    edi
  40bed9:	pop    esi
  40beda:	xor    ecx,ebp
  40bedc:	pop    ebx
  40bedd:	call   0x411090
  40bee2:	mov    esp,ebp
  40bee4:	pop    ebp
  40bee5:	ret    
  40bee6:	int3   
  40bee7:	int3   
  40bee8:	int3   
  40bee9:	int3   
  40beea:	int3   
  40beeb:	mov    edi,edi
  40beed:	push   ebp
  40beee:	mov    ebp,esp
  40bef0:	sub    esp,0x41c
  40bef6:	mov    eax,ds:0x412004
  40befb:	xor    eax,ebp
  40befd:	mov    DWORD PTR [ebp-0x4],eax
  40bf00:	push   ebx
  40bf01:	push   esi
  40bf02:	push   edi
  40bf03:	push   0x17
  40bf05:	mov    DWORD PTR [ebp-0x41c],ecx
  40bf0b:	lea    edi,[ebp-0x408]
  40bf11:	pop    ecx
  40bf12:	or     DWORD PTR [ebp-0x40c],0xffffffff
  40bf19:	lea    eax,[ebp-0x3aa]
  40bf1f:	or     DWORD PTR [ebp-0x410],0xffffffff
  40bf26:	mov    esi,0x401648
  40bf2b:	rep movs DWORD PTR es:[edi],DWORD PTR ds:[esi]
  40bf2d:	push   0x1a0
  40bf32:	xor    ebx,ebx
  40bf34:	push   ebx
  40bf35:	push   eax
  40bf36:	movs   WORD PTR es:[edi],WORD PTR ds:[esi]
  40bf38:	call   0x411770
  40bf3d:	push   0x200
  40bf42:	lea    eax,[ebp-0x204]
  40bf48:	mov    DWORD PTR [ebp-0x414],0xff
  40bf52:	push   ebx
  40bf53:	push   eax
  40bf54:	mov    DWORD PTR [ebp-0x208],ebx
  40bf5a:	call   0x411770
  40bf5f:	add    esp,0x18
  40bf62:	mov    ecx,0x1fc
  40bf67:	call   0x40dc18
  40bf6c:	mov    esi,eax
  40bf6e:	mov    DWORD PTR [ebp-0x418],esi
  40bf74:	test   esi,esi
  40bf76:	jne    0x40c00e
  40bf7c:	push   0x8
  40bf7e:	call   DWORD PTR ds:0x413030
  40bf84:	push   0x2
  40bf86:	call   0x411711
  40bf8b:	pop    ecx
  40bf8c:	mov    edx,0x20001
  40bf91:	mov    ecx,eax
  40bf93:	call   0x40c74a
  40bf98:	mov    ebx,0xffff
  40bf9d:	cmp    DWORD PTR [ebp-0x40c],0xffffffff
  40bfa4:	je     0x40bfb2
  40bfa6:	push   DWORD PTR [ebp-0x40c]
  40bfac:	call   DWORD PTR ds:0x41300c
  40bfb2:	cmp    DWORD PTR [ebp-0x410],0xffffffff
  40bfb9:	je     0x40bfc7
  40bfbb:	push   DWORD PTR [ebp-0x410]
  40bfc1:	call   DWORD PTR ds:0x41300c
  40bfc7:	test   esi,esi
  40bfc9:	je     0x40bfd6
  40bfcb:	lea    ecx,[ebp-0x418]
  40bfd1:	call   0x40db64
  40bfd6:	cmp    ebx,0xffff
  40bfdc:	jne    0x40bffb
  40bfde:	mov    ecx,0x80a
  40bfe3:	call   0x40c92c
  40bfe8:	push   0x2
  40bfea:	mov    esi,eax
  40bfec:	call   0x411711
  40bff1:	pop    ecx
  40bff2:	mov    edx,esi
  40bff4:	mov    ecx,eax
  40bff6:	call   0x40d474
  40bffb:	mov    ecx,DWORD PTR [ebp-0x4]
  40bffe:	mov    eax,ebx
  40c000:	pop    edi
  40c001:	pop    esi
  40c002:	xor    ecx,ebp
  40c004:	pop    ebx
  40c005:	call   0x411090
  40c00a:	mov    esp,ebp
  40c00c:	pop    ebp
  40c00d:	ret    
  40c00e:	mov    ecx,esi
  40c010:	call   0x40dd9e
  40c015:	mov    ecx,esi
  40c017:	test   eax,eax
  40c019:	je     0x40c023
  40c01b:	mov    BYTE PTR [ecx],bl
  40c01d:	inc    ecx
  40c01e:	sub    eax,0x1
  40c021:	jne    0x40c01b
  40c023:	mov    edi,DWORD PTR [ebp-0x41c]
  40c029:	mov    ecx,edi
  40c02b:	call   0x40d408
  40c030:	lea    ecx,[ebp-0x208]
  40c036:	push   0x102
  40c03b:	test   eax,eax
  40c03d:	je     0x40c05d
  40c03f:	mov    edx,0x401150
  40c044:	call   0x40d369
  40c049:	push   0x102
  40c04e:	mov    edx,edi
  40c050:	lea    ecx,[ebp-0x208]
  40c056:	call   0x40d3ce
  40c05b:	jmp    0x40c064
  40c05d:	mov    edx,edi
  40c05f:	call   0x40d369
  40c064:	lea    eax,[ebp-0x410]
  40c06a:	push   eax
  40c06b:	push   0x80000002
  40c070:	lea    eax,[ebp-0x208]
  40c076:	push   eax
  40c077:	call   DWORD PTR ds:0x413004
  40c07d:	test   eax,eax
  40c07f:	jne    0x40bf98
  40c085:	lea    eax,[ebp-0x40c]
  40c08b:	push   eax
  40c08c:	push   0x20019
  40c091:	push   ebx
  40c092:	lea    eax,[ebp-0x408]
  40c098:	push   eax
  40c099:	push   DWORD PTR [ebp-0x410]
  40c09f:	call   DWORD PTR ds:0x413008
  40c0a5:	test   eax,eax
  40c0a7:	jne    0x40bf98
  40c0ad:	lea    eax,[ebp-0x414]
  40c0b3:	mov    edi,0x4016a8
  40c0b8:	push   eax
  40c0b9:	push   esi
  40c0ba:	push   ebx
  40c0bb:	push   ebx
  40c0bc:	push   edi
  40c0bd:	push   DWORD PTR [ebp-0x40c]
  40c0c3:	call   DWORD PTR ds:0x413000
  40c0c9:	cmp    eax,0xea
  40c0ce:	jne    0x40c122
  40c0d0:	lea    ecx,[ebp-0x418]
  40c0d6:	call   0x40db64
  40c0db:	mov    ecx,DWORD PTR [ebp-0x414]
  40c0e1:	call   0x40dc18
  40c0e6:	mov    esi,eax
  40c0e8:	mov    DWORD PTR [ebp-0x418],esi
  40c0ee:	test   esi,esi
  40c0f0:	je     0x40bf7c
  40c0f6:	mov    ecx,esi
  40c0f8:	call   0x40dd9e
  40c0fd:	mov    ecx,esi
  40c0ff:	test   eax,eax
  40c101:	je     0x40c10b
  40c103:	mov    BYTE PTR [ecx],bl
  40c105:	inc    ecx
  40c106:	sub    eax,0x1
  40c109:	jne    0x40c103
  40c10b:	lea    eax,[ebp-0x414]
  40c111:	push   eax
  40c112:	push   esi
  40c113:	push   ebx
  40c114:	push   ebx
  40c115:	push   edi
  40c116:	push   DWORD PTR [ebp-0x40c]
  40c11c:	call   DWORD PTR ds:0x413000
  40c122:	test   eax,eax
  40c124:	jne    0x40bf98
  40c12a:	mov    eax,DWORD PTR [ebp-0x414]
  40c130:	xor    ecx,ecx
  40c132:	xor    edi,edi
  40c134:	mov    edx,0x4016c0
  40c139:	push   ebx
  40c13a:	inc    edi
  40c13b:	mov    WORD PTR [esi+eax*2-0x2],cx
  40c140:	mov    ecx,esi
  40c142:	push   edi
  40c143:	call   0x40ce8e
  40c148:	cmp    eax,0xffffffff
  40c14b:	je     0x40c158
  40c14d:	lea    eax,[esi+eax*2]
  40c150:	test   eax,eax
  40c152:	jne    0x40bf9d
  40c158:	push   ebx
  40c159:	push   edi
  40c15a:	mov    edx,0x4016c8
  40c15f:	mov    ecx,esi
  40c161:	call   0x40ce8e
  40c166:	cmp    eax,0xffffffff
  40c169:	je     0x40c17a
  40c16b:	lea    eax,[esi+eax*2]
  40c16e:	test   eax,eax
  40c170:	je     0x40c17a
  40c172:	push   0x6
  40c174:	pop    ebx
  40c175:	jmp    0x40bf9d
  40c17a:	push   ebx
  40c17b:	push   edi
  40c17c:	mov    edx,0x4016d4
  40c181:	mov    ecx,esi
  40c183:	call   0x40ce8e
  40c188:	cmp    eax,0xffffffff
  40c18b:	je     0x40c194
  40c18d:	lea    eax,[esi+eax*2]
  40c190:	test   eax,eax
  40c192:	jne    0x40c1d0
  40c194:	push   ebx
  40c195:	push   edi
  40c196:	mov    edx,0x4016e0
  40c19b:	mov    ecx,esi
  40c19d:	call   0x40ce8e
  40c1a2:	cmp    eax,0xffffffff
  40c1a5:	je     0x40c1ae
  40c1a7:	lea    eax,[esi+eax*2]
  40c1aa:	test   eax,eax
  40c1ac:	jne    0x40c1d0
  40c1ae:	push   ebx
  40c1af:	push   edi
  40c1b0:	mov    edx,0x4016ec
  40c1b5:	mov    ecx,esi
  40c1b7:	call   0x40ce8e
  40c1bc:	cmp    eax,0xffffffff
  40c1bf:	je     0x40bf98
  40c1c5:	lea    eax,[esi+eax*2]
  40c1c8:	test   eax,eax
  40c1ca:	je     0x40bf98
  40c1d0:	push   0x9
  40c1d2:	jmp    0x40c174
  40c1d4:	int3   
  40c1d5:	int3   
  40c1d6:	int3   
  40c1d7:	int3   
  40c1d8:	int3   
  40c1d9:	call   0x40beeb
  40c1de:	cmp    eax,0xffff
  40c1e3:	jne    0x40c1e9
  40c1e5:	xor    eax,eax
  40c1e7:	inc    eax
  40c1e8:	ret    
  40c1e9:	cmp    eax,0x6
  40c1ec:	jne    0x40c211
  40c1ee:	push   esi
  40c1ef:	mov    ecx,0x809
  40c1f4:	call   0x40c92c
  40c1f9:	push   0x2
  40c1fb:	mov    esi,eax
  40c1fd:	call   0x411711
  40c202:	pop    ecx
  40c203:	mov    edx,esi
  40c205:	mov    ecx,eax
  40c207:	call   0x40d474
  40c20c:	xor    eax,eax
  40c20e:	inc    eax
  40c20f:	pop    esi
  40c210:	ret    
  40c211:	xor    eax,eax
  40c213:	ret    
  40c214:	int3   
  40c215:	int3   
  40c216:	int3   
  40c217:	int3   
  40c218:	int3   
  40c219:	mov    edi,edi
  40c21b:	push   edi
  40c21c:	mov    edi,edx
  40c21e:	test   ecx,ecx
  40c220:	jne    0x40c226
  40c222:	xor    eax,eax
  40c224:	pop    edi
  40c225:	ret    
  40c226:	push   0x3d
  40c228:	push   ecx
  40c229:	call   DWORD PTR ds:0x413120
  40c22f:	test   eax,eax
  40c231:	je     0x40c222
  40c233:	push   esi
  40c234:	push   0x22
  40c236:	push   eax
  40c237:	call   DWORD PTR ds:0x413120
  40c23d:	mov    esi,eax
  40c23f:	test   esi,esi
  40c241:	je     0x40c26f
  40c243:	push   0x22
  40c245:	push   0x0
  40c247:	push   esi
  40c248:	call   DWORD PTR ds:0x41311c
  40c24e:	test   eax,eax
  40c250:	je     0x40c26f
  40c252:	cmp    eax,esi
  40c254:	jbe    0x40c26f
  40c256:	add    esi,0x2
  40c259:	sub    eax,esi
  40c25b:	sar    eax,1
  40c25d:	push   eax
  40c25e:	push   esi
  40c25f:	inc    eax
  40c260:	push   eax
  40c261:	push   edi
  40c262:	call   DWORD PTR ds:0x4131d0
  40c268:	add    esp,0x10
  40c26b:	mov    eax,edi
  40c26d:	jmp    0x40c271
  40c26f:	xor    eax,eax
  40c271:	pop    esi
  40c272:	pop    edi
  40c273:	ret    
  40c274:	int3   
  40c275:	int3   
  40c276:	int3   
  40c277:	int3   
  40c278:	int3   
  40c279:	mov    edi,edi
  40c27b:	push   esi
  40c27c:	xor    esi,esi
  40c27e:	inc    esi
  40c27f:	cmp    DWORD PTR ds:0x412470,esi
  40c285:	jne    0x40c2b2
  40c287:	mov    ecx,DWORD PTR ds:0x412468
  40c28d:	call   0x40e1cd
  40c292:	test   eax,eax
  40c294:	jne    0x40c2ae
  40c296:	call   DWORD PTR ds:0x41302c
  40c29c:	test   eax,eax
  40c29e:	jne    0x40c345
  40c2a4:	push   0x42b
  40c2a9:	jmp    0x40c33f
  40c2ae:	mov    eax,esi
  40c2b0:	pop    esi
  40c2b1:	ret    
  40c2b2:	cmp    DWORD PTR ds:0x412468,0x0
  40c2b9:	jne    0x40c296
  40c2bb:	call   0x40e1e2
  40c2c0:	mov    ecx,eax
  40c2c2:	mov    DWORD PTR ds:0x412468,ecx
  40c2c8:	call   0x40e1cd
  40c2cd:	test   eax,eax
  40c2cf:	je     0x40c333
  40c2d1:	push   0x0
  40c2d3:	mov    edx,0x401738
  40c2d8:	call   0x40e278
  40c2dd:	test   eax,eax
  40c2df:	jne    0x40c333
  40c2e1:	mov    ecx,DWORD PTR ds:0x412468
  40c2e7:	push   0x3
  40c2e9:	pop    edx
  40c2ea:	call   0x40e435
  40c2ef:	cmp    eax,esi
  40c2f1:	jne    0x40c333
  40c2f3:	mov    ecx,DWORD PTR ds:0x412468
  40c2f9:	push   0x3
  40c2fb:	pop    edx
  40c2fc:	call   0x40e435
  40c301:	cmp    eax,0x2
  40c304:	jne    0x40c333
  40c306:	mov    ecx,DWORD PTR ds:0x412468
  40c30c:	push   0x3
  40c30e:	pop    edx
  40c30f:	call   0x40e435
  40c314:	cmp    eax,0x3
  40c317:	jne    0x40c333
  40c319:	push   0x0
  40c31b:	mov    DWORD PTR ds:0x412470,esi
  40c321:	call   DWORD PTR ds:0x4130b8
  40c327:	xor    ecx,ecx
  40c329:	test   ax,ax
  40c32c:	pop    esi
  40c32d:	setne  cl
  40c330:	mov    eax,ecx
  40c332:	ret    
  40c333:	call   DWORD PTR ds:0x41302c
  40c339:	test   eax,eax
  40c33b:	jne    0x40c345
  40c33d:	push   0x8
  40c33f:	call   DWORD PTR ds:0x413030
  40c345:	xor    eax,eax
  40c347:	pop    esi
  40c348:	ret    
  40c349:	int3   
  40c34a:	int3   
  40c34b:	int3   
  40c34c:	int3   
  40c34d:	int3   
  40c34e:	cmp    DWORD PTR ds:0x412470,0x0
  40c355:	push   esi
  40c356:	mov    esi,ecx
  40c358:	je     0x40c396
  40c35a:	push   0x3
  40c35c:	pop    edx
  40c35d:	call   0x40e5d9
  40c362:	cmp    eax,esi
  40c364:	jbe    0x40c396
  40c366:	push   esi
  40c367:	call   0x40e9fe
  40c36c:	test   eax,eax
  40c36e:	je     0x40c396
  40c370:	push   esi
  40c371:	call   0x40e855
  40c376:	mov    esi,eax
  40c378:	test   esi,esi
  40c37a:	je     0x40c396
  40c37c:	push   0x7
  40c37e:	push   0x401730
  40c383:	push   esi
  40c384:	call   DWORD PTR ds:0x4131dc
  40c38a:	add    esp,0xc
  40c38d:	test   eax,eax
  40c38f:	jne    0x40c396
  40c391:	mov    eax,DWORD PTR [esi+0xc]
  40c394:	pop    esi
  40c395:	ret    
  40c396:	xor    eax,eax
  40c398:	pop    esi
  40c399:	ret    
  40c39a:	int3   
  40c39b:	int3   
  40c39c:	int3   
  40c39d:	int3   
  40c39e:	int3   
  40c39f:	mov    edi,edi
  40c3a1:	push   ebp
  40c3a2:	mov    ebp,esp
  40c3a4:	push   ecx
  40c3a5:	push   ecx
  40c3a6:	push   ebx
  40c3a7:	push   esi
  40c3a8:	mov    ebx,edx
  40c3aa:	mov    esi,ecx
  40c3ac:	mov    DWORD PTR [ebp-0x8],esi
  40c3af:	push   edi
  40c3b0:	mov    edi,DWORD PTR [ebp+0x8]
  40c3b3:	test   ebx,ebx
  40c3b5:	jne    0x40c3c2
  40c3b7:	test   edi,edi
  40c3b9:	jne    0x40c3c2
  40c3bb:	xor    eax,eax
  40c3bd:	jmp    0x40c4ee
  40c3c2:	call   0x40c279
  40c3c7:	test   eax,eax
  40c3c9:	je     0x40c3bb
  40c3cb:	push   0x3
  40c3cd:	pop    edx
  40c3ce:	call   0x40e5d9
  40c3d3:	mov    DWORD PTR [ebp-0x4],eax
  40c3d6:	cmp    eax,esi
  40c3d8:	ja     0x40c3fe
  40c3da:	mov    ecx,DWORD PTR ds:0x412468
  40c3e0:	push   0x3
  40c3e2:	pop    edx
  40c3e3:	call   0x40e603
  40c3e8:	test   eax,eax
  40c3ea:	je     0x40c3bb
  40c3ec:	mov    edx,esi
  40c3ee:	mov    ecx,eax
  40c3f0:	sub    edx,DWORD PTR [ebp-0x4]
  40c3f3:	inc    edx
  40c3f4:	call   0x40e4b6
  40c3f9:	cmp    eax,0xffffffff
  40c3fc:	je     0x40c3bb
  40c3fe:	push   esi
  40c3ff:	call   0x40e9fe
  40c404:	test   eax,eax
  40c406:	je     0x40c480
  40c408:	push   esi
  40c409:	call   0x40e855
  40c40e:	mov    esi,eax
  40c410:	test   esi,esi
  40c412:	je     0x40c3bb
  40c414:	push   0x7
  40c416:	push   0x401730
  40c41b:	push   esi
  40c41c:	call   DWORD PTR ds:0x4131dc
  40c422:	add    esp,0xc
  40c425:	test   eax,eax
  40c427:	jne    0x40c3bb
  40c429:	test   ebx,ebx
  40c42b:	je     0x40c437
  40c42d:	mov    ecx,ebx
  40c42f:	call   0x40d408
  40c434:	lea    edi,[eax+0x1]
  40c437:	mov    ecx,DWORD PTR [esi+0x8]
  40c43a:	cmp    edi,ecx
  40c43c:	ja     0x40c44d
  40c43e:	cmp    edi,0x100
  40c444:	jbe    0x40c467
  40c446:	lea    eax,[edi+edi*1]
  40c449:	cmp    eax,ecx
  40c44b:	jae    0x40c467
  40c44d:	test   ecx,ecx
  40c44f:	jne    0x40c4c9
  40c451:	lea    ecx,[edi+edi*1]
  40c454:	call   0x40dc18
  40c459:	mov    DWORD PTR [esi+0xc],eax
  40c45c:	test   eax,eax
  40c45e:	je     0x40c3bb
  40c464:	mov    DWORD PTR [esi+0x8],edi
  40c467:	mov    ecx,DWORD PTR [esi+0xc]
  40c46a:	test   ecx,ecx
  40c46c:	je     0x40c3bb
  40c472:	test   ebx,ebx
  40c474:	je     0x40c4d6
  40c476:	push   edi
  40c477:	mov    edx,ebx
  40c479:	call   0x40d369
  40c47e:	jmp    0x40c4eb
  40c480:	push   0x10
  40c482:	pop    ecx
  40c483:	call   0x40dc18
  40c488:	mov    esi,eax
  40c48a:	mov    DWORD PTR [ebp-0x4],esi
  40c48d:	test   esi,esi
  40c48f:	je     0x40c3bb
  40c495:	and    DWORD PTR [esi+0x8],0x0
  40c499:	mov    edx,0x401730
  40c49e:	and    DWORD PTR [esi+0xc],0x0
  40c4a2:	mov    ecx,esi
  40c4a4:	push   0x7
  40c4a6:	call   0x40d306
  40c4ab:	push   esi
  40c4ac:	push   DWORD PTR [ebp-0x8]
  40c4af:	call   0x40e95f
  40c4b4:	test   eax,eax
  40c4b6:	jne    0x40c414
  40c4bc:	lea    ecx,[ebp-0x4]
  40c4bf:	call   0x40db64
  40c4c4:	jmp    0x40c3bb
  40c4c9:	lea    edx,[edi+edi*1]
  40c4cc:	lea    ecx,[esi+0xc]
  40c4cf:	call   0x40dcbd
  40c4d4:	jmp    0x40c45c
  40c4d6:	cmp    DWORD PTR [ebp+0xc],0x1
  40c4da:	jne    0x40c4eb
  40c4dc:	lea    eax,[edi+edi*1]
  40c4df:	push   eax
  40c4e0:	push   0x0
  40c4e2:	push   ecx
  40c4e3:	call   0x411770
  40c4e8:	add    esp,0xc
  40c4eb:	mov    eax,DWORD PTR [esi+0xc]
  40c4ee:	pop    edi
  40c4ef:	pop    esi
  40c4f0:	pop    ebx
  40c4f1:	mov    esp,ebp
  40c4f3:	pop    ebp
  40c4f4:	ret    0x8
  40c4f7:	int3   
  40c4f8:	int3   
  40c4f9:	int3   
  40c4fa:	int3   
  40c4fb:	int3   
  40c4fc:	mov    ecx,DWORD PTR ds:0x412468
  40c502:	test   ecx,ecx
  40c504:	je     0x40c516
  40c506:	call   0x40e1cd
  40c50b:	test   eax,eax
  40c50d:	je     0x40c516
  40c50f:	xor    edx,edx
  40c511:	jmp    0x40e62c
  40c516:	mov    eax,0x401738
  40c51b:	ret    
  40c51c:	int3   
  40c51d:	int3   
  40c51e:	int3   
  40c51f:	int3   
  40c520:	int3   
  40c521:	mov    edi,edi
  40c523:	push   esi
  40c524:	push   edi
  40c525:	mov    esi,ecx
  40c527:	call   DWORD PTR ds:0x41302c
  40c52d:	mov    edi,eax
  40c52f:	test   esi,esi
  40c531:	jne    0x40c549
  40c533:	call   DWORD PTR ds:0x41302c
  40c539:	test   eax,eax
  40c53b:	jne    0x40c545
  40c53d:	push   0x57
  40c53f:	call   DWORD PTR ds:0x413030
  40c545:	xor    eax,eax
  40c547:	jmp    0x40c57d
  40c549:	call   0x40c279
  40c54e:	test   eax,eax
  40c550:	je     0x40c545
  40c552:	push   ecx
  40c553:	mov    ecx,DWORD PTR ds:0x412468
  40c559:	xor    edx,edx
  40c55b:	push   esi
  40c55c:	call   0x40e8c0
  40c561:	test   eax,eax
  40c563:	jne    0x40c573
  40c565:	call   DWORD PTR ds:0x41302c
  40c56b:	test   eax,eax
  40c56d:	jne    0x40c545
  40c56f:	push   0x8
  40c571:	jmp    0x40c53f
  40c573:	push   edi
  40c574:	call   DWORD PTR ds:0x413030
  40c57a:	xor    eax,eax
  40c57c:	inc    eax
  40c57d:	pop    edi
  40c57e:	pop    esi
  40c57f:	ret    
  40c580:	int3   
  40c581:	int3   
  40c582:	int3   
  40c583:	int3   
  40c584:	int3   
  40c585:	mov    edi,edi
  40c587:	push   ebp
  40c588:	mov    ebp,esp
  40c58a:	mov    ecx,DWORD PTR [ebp+0xc]
  40c58d:	push   esi
  40c58e:	xor    esi,esi
  40c590:	test   ecx,ecx
  40c592:	jne    0x40c5a8
  40c594:	call   DWORD PTR ds:0x41302c
  40c59a:	test   eax,eax
  40c59c:	jne    0x40c60f
  40c59e:	push   0x57
  40c5a0:	call   DWORD PTR ds:0x413030
  40c5a6:	jmp    0x40c60f
  40c5a8:	cmp    DWORD PTR [ebp+0x8],esi
  40c5ab:	jne    0x40c5b7
  40c5ad:	call   0x40c521
  40c5b2:	xor    eax,eax
  40c5b4:	inc    eax
  40c5b5:	jmp    0x40c611
  40c5b7:	push   edi
  40c5b8:	push   0x1
  40c5ba:	add    esi,0x100
  40c5c0:	xor    edx,edx
  40c5c2:	push   esi
  40c5c3:	push   0x5
  40c5c5:	pop    ecx
  40c5c6:	call   0x40c39f
  40c5cb:	mov    edi,eax
  40c5cd:	test   edi,edi
  40c5cf:	je     0x40c5fc
  40c5d1:	lea    eax,[ebp+0x10]
  40c5d4:	mov    edx,esi
  40c5d6:	push   eax
  40c5d7:	push   DWORD PTR [ebp+0xc]
  40c5da:	mov    ecx,edi
  40c5dc:	call   0x40dee5
  40c5e1:	cmp    eax,0x8007007a
  40c5e6:	je     0x40c5b8
  40c5e8:	test   eax,eax
  40c5ea:	jns    0x40c5f2
  40c5ec:	movzx  eax,ax
  40c5ef:	push   eax
  40c5f0:	jmp    0x40c608
  40c5f2:	mov    ecx,edi
  40c5f4:	pop    edi
  40c5f5:	pop    esi
  40c5f6:	pop    ebp
  40c5f7:	jmp    0x40c521
  40c5fc:	call   DWORD PTR ds:0x41302c
  40c602:	test   eax,eax
  40c604:	jne    0x40c60e
  40c606:	push   0x8
  40c608:	call   DWORD PTR ds:0x413030
  40c60e:	pop    edi
  40c60f:	xor    eax,eax
  40c611:	pop    esi
  40c612:	pop    ebp
  40c613:	ret    
  40c614:	int3   
  40c615:	int3   
  40c616:	int3   
  40c617:	int3   
  40c618:	int3   
  40c619:	mov    edi,edi
  40c61b:	push   ebp
  40c61c:	mov    ebp,esp
  40c61e:	push   ecx
  40c61f:	push   esi
  40c620:	xor    esi,esi
  40c622:	mov    DWORD PTR [ebp-0x4],esi
  40c625:	call   0x40c279
  40c62a:	test   eax,eax
  40c62c:	je     0x40c699
  40c62e:	push   esi
  40c62f:	push   esi
  40c630:	lea    eax,[ebp-0x4]
  40c633:	push   eax
  40c634:	push   esi
  40c635:	call   DWORD PTR ds:0x41302c
  40c63b:	push   eax
  40c63c:	push   esi
  40c63d:	push   0x1300
  40c642:	call   DWORD PTR ds:0x4130b4
  40c648:	test   eax,eax
  40c64a:	je     0x40c667
  40c64c:	mov    ecx,DWORD PTR [ebp-0x4]
  40c64f:	test   ecx,ecx
  40c651:	je     0x40c687
  40c653:	call   0x40c521
  40c658:	push   DWORD PTR [ebp-0x4]
  40c65b:	mov    esi,eax
  40c65d:	call   DWORD PTR ds:0x4130b0
  40c663:	mov    eax,esi
  40c665:	jmp    0x40c69b
  40c667:	cmp    DWORD PTR [ebp-0x4],esi
  40c66a:	je     0x40c687
  40c66c:	push   DWORD PTR [ebp-0x4]
  40c66f:	call   DWORD PTR ds:0x4130b0
  40c675:	call   DWORD PTR ds:0x41302c
  40c67b:	test   eax,eax
  40c67d:	jne    0x40c687
  40c67f:	push   0x8
  40c681:	call   DWORD PTR ds:0x413030
  40c687:	call   DWORD PTR ds:0x41302c
  40c68d:	test   eax,eax
  40c68f:	jne    0x40c699
  40c691:	push   0x8
  40c693:	call   DWORD PTR ds:0x413030
  40c699:	xor    eax,eax
  40c69b:	pop    esi
  40c69c:	mov    esp,ebp
  40c69e:	pop    ebp
  40c69f:	ret    
  40c6a0:	int3   
  40c6a1:	int3   
  40c6a2:	int3   
  40c6a3:	int3   
  40c6a4:	int3   
  40c6a5:	mov    edi,edi
  40c6a7:	push   ebp
  40c6a8:	mov    ebp,esp
  40c6aa:	push   ecx
  40c6ab:	and    DWORD PTR [ebp-0x4],0x0
  40c6af:	xor    edx,edx
  40c6b1:	push   esi
  40c6b2:	push   edi
  40c6b3:	push   0x1
  40c6b5:	mov    edi,0x100
  40c6ba:	xor    ecx,ecx
  40c6bc:	push   edi
  40c6bd:	call   0x40c39f
  40c6c2:	mov    esi,eax
  40c6c4:	test   esi,esi
  40c6c6:	jne    0x40c6cd
  40c6c8:	push   0x8
  40c6ca:	pop    eax
  40c6cb:	jmp    0x40c714
  40c6cd:	push   0x1
  40c6cf:	xor    ecx,ecx
  40c6d1:	xor    edx,edx
  40c6d3:	push   edi
  40c6d4:	inc    ecx
  40c6d5:	call   0x40c39f
  40c6da:	mov    edi,eax
  40c6dc:	test   edi,edi
  40c6de:	je     0x40c6c8
  40c6e0:	mov    ecx,edi
  40c6e2:	call   0x40dd9e
  40c6e7:	shr    eax,1
  40c6e9:	mov    ecx,esi
  40c6eb:	dec    eax
  40c6ec:	push   eax
  40c6ed:	push   edi
  40c6ee:	call   0x40dd9e
  40c6f3:	shr    eax,1
  40c6f5:	dec    eax
  40c6f6:	push   eax
  40c6f7:	push   esi
  40c6f8:	lea    eax,[ebp-0x4]
  40c6fb:	push   eax
  40c6fc:	call   DWORD PTR ds:0x4130f8
  40c702:	test   eax,eax
  40c704:	jne    0x40c714
  40c706:	mov    ecx,esi
  40c708:	call   0x40c521
  40c70d:	test   eax,eax
  40c70f:	je     0x40c6c8
  40c711:	mov    eax,DWORD PTR [ebp-0x4]
  40c714:	pop    edi
  40c715:	pop    esi
  40c716:	mov    esp,ebp
  40c718:	pop    ebp
  40c719:	ret    
  40c71a:	int3   
  40c71b:	int3   
  40c71c:	int3   
  40c71d:	int3   
  40c71e:	int3   
  40c71f:	mov    edi,edi
  40c721:	push   esi
  40c722:	mov    esi,ecx
  40c724:	call   0x40c619
  40c729:	test   eax,eax
  40c72b:	jne    0x40c72f
  40c72d:	pop    esi
  40c72e:	ret    
  40c72f:	call   0x40c4fc
  40c734:	mov    edx,eax
  40c736:	mov    ecx,esi
  40c738:	call   0x40d474
  40c73d:	neg    eax
  40c73f:	pop    esi
  40c740:	sbb    eax,eax
  40c742:	neg    eax
  40c744:	ret    
  40c745:	int3   
  40c746:	int3   
  40c747:	int3   
  40c748:	int3   
  40c749:	int3   
  40c74a:	mov    edi,edi
  40c74c:	push   ebx
  40c74d:	push   esi
  40c74e:	mov    esi,ecx
  40c750:	mov    ebx,edx
  40c752:	test   esi,esi
  40c754:	je     0x40c7c6
  40c756:	test   ebx,0xf0000
  40c75c:	je     0x40c7c6
  40c75e:	test   ebx,0x10000
  40c764:	je     0x40c76b
  40c766:	call   0x40c619
  40c76b:	push   edi
  40c76c:	xor    edi,edi
  40c76e:	inc    edi
  40c76f:	test   bl,0x1
  40c772:	je     0x40c77b
  40c774:	mov    ecx,0x1389
  40c779:	jmp    0x40c79d
  40c77b:	test   bl,0x4
  40c77e:	je     0x40c787
  40c780:	mov    ecx,0x138a
  40c785:	jmp    0x40c79d
  40c787:	test   bl,0x2
  40c78a:	je     0x40c793
  40c78c:	mov    ecx,0x138c
  40c791:	jmp    0x40c79d
  40c793:	test   bl,0x8
  40c796:	je     0x40c7b3
  40c798:	mov    ecx,0x138b
  40c79d:	call   0x40c92c
  40c7a2:	push   eax
  40c7a3:	push   0x4016fc
  40c7a8:	push   edi
  40c7a9:	push   edi
  40c7aa:	push   esi
  40c7ab:	call   0x40d6cd
  40c7b0:	add    esp,0x14
  40c7b3:	call   0x40c4fc
  40c7b8:	mov    edx,eax
  40c7ba:	mov    ecx,esi
  40c7bc:	call   0x40d474
  40c7c1:	mov    eax,edi
  40c7c3:	pop    edi
  40c7c4:	jmp    0x40c7da
  40c7c6:	call   DWORD PTR ds:0x41302c
  40c7cc:	test   eax,eax
  40c7ce:	jne    0x40c7d8
  40c7d0:	push   0x57
  40c7d2:	call   DWORD PTR ds:0x413030
  40c7d8:	xor    eax,eax
  40c7da:	pop    esi
  40c7db:	pop    ebx
  40c7dc:	ret    
  40c7dd:	int3   
  40c7de:	int3   
  40c7df:	int3   
  40c7e0:	int3   
  40c7e1:	int3   
  40c7e2:	mov    edi,edi
  40c7e4:	push   ebp
  40c7e5:	mov    ebp,esp
  40c7e7:	push   ecx
  40c7e8:	mov    ecx,DWORD PTR ds:0x412468
  40c7ee:	call   0x40e1cd
  40c7f3:	cmp    eax,0x1
  40c7f6:	jne    0x40c86e
  40c7f8:	push   edi
  40c7f9:	push   0x3
  40c7fb:	pop    edx
  40c7fc:	call   0x40e5d9
  40c801:	mov    edi,eax
  40c803:	test   edi,edi
  40c805:	je     0x40c863
  40c807:	push   esi
  40c808:	lea    esi,[edi-0x1]
  40c80b:	push   esi
  40c80c:	call   0x40e9fe
  40c811:	cmp    eax,0x10000
  40c816:	jne    0x40c85c
  40c818:	push   esi
  40c819:	call   0x40e855
  40c81e:	mov    DWORD PTR [ebp-0x4],eax
  40c821:	test   eax,eax
  40c823:	je     0x40c85c
  40c825:	lea    ecx,[eax+0xc]
  40c828:	call   0x40db64
  40c82d:	lea    ecx,[ebp-0x4]
  40c830:	call   0x40db64
  40c835:	mov    ecx,DWORD PTR ds:0x412468
  40c83b:	push   0x0
  40c83d:	push   0x3
  40c83f:	pop    edx
  40c840:	call   0x40df4c
  40c845:	test   eax,eax
  40c847:	je     0x40c85c
  40c849:	cmp    DWORD PTR [eax+0x4],0x80000
  40c850:	jne    0x40c85c
  40c852:	mov    ecx,DWORD PTR [eax+0xc]
  40c855:	mov    edx,esi
  40c857:	call   0x40e56f
  40c85c:	dec    esi
  40c85d:	sub    edi,0x1
  40c860:	jne    0x40c80b
  40c862:	pop    esi
  40c863:	mov    ecx,0x412468
  40c868:	call   0x40e254
  40c86d:	pop    edi
  40c86e:	cmp    DWORD PTR ds:0x41246c,0x1
  40c875:	jne    0x40c87d
  40c877:	call   DWORD PTR ds:0x41315c
  40c87d:	xor    eax,eax
  40c87f:	inc    eax
  40c880:	mov    esp,ebp
  40c882:	pop    ebp
  40c883:	ret    
  40c884:	int3   
  40c885:	int3   
  40c886:	int3   
  40c887:	int3   
  40c888:	int3   
  40c889:	mov    edi,edi
  40c88b:	push   ebp
  40c88c:	mov    ebp,esp
  40c88e:	sub    esp,0x128
  40c894:	mov    eax,ds:0x412004
  40c899:	xor    eax,ebp
  40c89b:	mov    DWORD PTR [ebp-0x4],eax
  40c89e:	push   esi
  40c89f:	mov    esi,0x11c
  40c8a4:	lea    eax,[ebp-0x128]
  40c8aa:	push   esi
  40c8ab:	push   0x0
  40c8ad:	push   eax
  40c8ae:	call   0x411770
  40c8b3:	mov    ax,ds:0x412464
  40c8b9:	add    esp,0xc
  40c8bc:	mov    DWORD PTR [ebp-0x128],esi
  40c8c2:	xor    esi,esi
  40c8c4:	inc    esi
  40c8c5:	mov    DWORD PTR [ebp-0x124],0x5
  40c8cf:	mov    DWORD PTR [ebp-0x120],esi
  40c8d5:	push   0x3
  40c8d7:	push   0x2
  40c8d9:	push   0x0
  40c8db:	push   0x0
  40c8dd:	mov    WORD PTR [ebp-0x14],ax
  40c8e1:	call   DWORD PTR ds:0x4130ac
  40c8e7:	push   0x3
  40c8e9:	push   esi
  40c8ea:	push   edx
  40c8eb:	push   eax
  40c8ec:	call   DWORD PTR ds:0x4130ac
  40c8f2:	push   0x3
  40c8f4:	push   0x20
  40c8f6:	push   edx
  40c8f7:	push   eax
  40c8f8:	call   DWORD PTR ds:0x4130ac
  40c8fe:	push   edx
  40c8ff:	push   eax
  40c900:	push   0x3
  40c902:	lea    eax,[ebp-0x128]
  40c908:	push   eax
  40c909:	call   DWORD PTR ds:0x413208
  40c90f:	xor    ecx,ecx
  40c911:	test   eax,eax
  40c913:	pop    esi
  40c914:	setns  cl
  40c917:	mov    eax,ecx
  40c919:	mov    ecx,DWORD PTR [ebp-0x4]
  40c91c:	xor    ecx,ebp
  40c91e:	call   0x411090
  40c923:	mov    esp,ebp
  40c925:	pop    ebp
  40c926:	ret    
  40c927:	int3   
  40c928:	int3   
  40c929:	int3   
  40c92a:	int3   
  40c92b:	int3   
  40c92c:	mov    eax,ds:0x412460
  40c931:	xor    edx,edx
  40c933:	push   esi
  40c934:	push   0xa
  40c936:	inc    eax
  40c937:	pop    esi
  40c938:	mov    ds:0x412460,eax
  40c93d:	div    esi
  40c93f:	add    edx,0x4
  40c942:	push   edx
  40c943:	mov    edx,ecx
  40c945:	call   0x40c951
  40c94a:	pop    esi
  40c94b:	ret    
  40c94c:	int3   
  40c94d:	int3   
  40c94e:	int3   
  40c94f:	int3   
  40c950:	int3   
  40c951:	mov    edi,edi
  40c953:	push   ebp
  40c954:	mov    ebp,esp
  40c956:	push   ecx
  40c957:	and    DWORD PTR [ebp-0x4],0x0
  40c95b:	push   ebx
  40c95c:	mov    ebx,edx
  40c95e:	test   ebx,ebx
  40c960:	jne    0x40c97e
  40c962:	call   DWORD PTR ds:0x41302c
  40c968:	test   eax,eax
  40c96a:	jne    0x40c974
  40c96c:	push   0x57
  40c96e:	call   DWORD PTR ds:0x413030
  40c974:	mov    eax,0x401738
  40c979:	jmp    0x40ca90
  40c97e:	call   0x40c279
  40c983:	test   eax,eax
  40c985:	je     0x40c974
  40c987:	xor    edx,edx
  40c989:	push   esi
  40c98a:	inc    edx
  40c98b:	call   0x40e5d9
  40c990:	mov    esi,eax
  40c992:	cmp    esi,DWORD PTR [ebp+0x8]
  40c995:	ja     0x40c9d7
  40c997:	mov    ecx,DWORD PTR ds:0x412468
  40c99d:	xor    edx,edx
  40c99f:	inc    edx
  40c9a0:	call   0x40e603
  40c9a5:	test   eax,eax
  40c9a7:	je     0x40c9bb
  40c9a9:	mov    edx,DWORD PTR [ebp+0x8]
  40c9ac:	mov    ecx,eax
  40c9ae:	sub    edx,esi
  40c9b0:	inc    edx
  40c9b1:	call   0x40e4b6
  40c9b6:	cmp    eax,0xffffffff
  40c9b9:	jne    0x40c9d7
  40c9bb:	call   DWORD PTR ds:0x41302c
  40c9c1:	test   eax,eax
  40c9c3:	jne    0x40c9cd
  40c9c5:	push   0x8
  40c9c7:	call   DWORD PTR ds:0x413030
  40c9cd:	mov    eax,0x401738
  40c9d2:	jmp    0x40ca8f
  40c9d7:	mov    esi,0x80
  40c9dc:	push   edi
  40c9dd:	push   0x1
  40c9df:	add    esi,esi
  40c9e1:	xor    edx,edx
  40c9e3:	push   esi
  40c9e4:	push   0x4
  40c9e6:	pop    ecx
  40c9e7:	call   0x40c39f
  40c9ec:	mov    edi,eax
  40c9ee:	test   edi,edi
  40c9f0:	je     0x40ca77
  40c9f6:	push   esi
  40c9f7:	push   edi
  40c9f8:	push   ebx
  40c9f9:	push   0x0
  40c9fb:	call   DWORD PTR ds:0x413140
  40ca01:	mov    ecx,eax
  40ca03:	test   ecx,ecx
  40ca05:	jne    0x40ca33
  40ca07:	call   DWORD PTR ds:0x41302c
  40ca0d:	cmp    eax,0x716
  40ca12:	jne    0x40ca89
  40ca14:	xor    ecx,ecx
  40ca16:	lea    eax,[ebp-0x4]
  40ca19:	push   ecx
  40ca1a:	push   ecx
  40ca1b:	push   eax
  40ca1c:	push   ecx
  40ca1d:	push   ebx
  40ca1e:	push   ecx
  40ca1f:	push   0xb00
  40ca24:	call   DWORD PTR ds:0x4130b4
  40ca2a:	mov    ecx,eax
  40ca2c:	test   ecx,ecx
  40ca2e:	je     0x40ca89
  40ca30:	mov    edi,DWORD PTR [ebp-0x4]
  40ca33:	lea    eax,[esi-0x1]
  40ca36:	cmp    ecx,eax
  40ca38:	jae    0x40c9dd
  40ca3a:	push   ecx
  40ca3b:	mov    ecx,DWORD PTR ds:0x412468
  40ca41:	xor    edx,edx
  40ca43:	push   edi
  40ca44:	push   DWORD PTR [ebp+0x8]
  40ca47:	inc    edx
  40ca48:	call   0x40e9c9
  40ca4d:	test   eax,eax
  40ca4f:	je     0x40ca77
  40ca51:	cmp    DWORD PTR [ebp-0x4],0x0
  40ca55:	je     0x40ca64
  40ca57:	push   DWORD PTR [ebp-0x4]
  40ca5a:	call   DWORD PTR ds:0x4130b0
  40ca60:	and    DWORD PTR [ebp-0x4],0x0
  40ca64:	push   DWORD PTR [ebp+0x8]
  40ca67:	mov    ecx,DWORD PTR ds:0x412468
  40ca6d:	xor    edx,edx
  40ca6f:	inc    edx
  40ca70:	call   0x40e88f
  40ca75:	jmp    0x40ca8e
  40ca77:	call   DWORD PTR ds:0x41302c
  40ca7d:	test   eax,eax
  40ca7f:	jne    0x40ca89
  40ca81:	push   0x8
  40ca83:	call   DWORD PTR ds:0x413030
  40ca89:	mov    eax,0x401738
  40ca8e:	pop    edi
  40ca8f:	pop    esi
  40ca90:	pop    ebx
  40ca91:	mov    esp,ebp
  40ca93:	pop    ebp
  40ca94:	ret    0x4
  40ca97:	int3   
  40ca98:	int3   
  40ca99:	int3   
  40ca9a:	int3   
  40ca9b:	int3   
  40ca9c:	mov    edi,edi
  40ca9e:	push   ebp
  40ca9f:	mov    ebp,esp
  40caa1:	sub    esp,0x10
  40caa4:	push   esi
  40caa5:	push   edi
  40caa6:	mov    esi,ecx
  40caa8:	xor    edi,edi
  40caaa:	mov    DWORD PTR [ebp-0x4],edi
  40caad:	test   esi,esi
  40caaf:	je     0x40cb1b
  40cab1:	call   0x40d408
  40cab6:	test   eax,eax
  40cab8:	je     0x40cb1b
  40caba:	call   0x40c279
  40cabf:	test   eax,eax
  40cac1:	je     0x40cb2d
  40cac3:	push   edi
  40cac4:	push   edi
  40cac5:	mov    edx,esi
  40cac7:	xor    ecx,ecx
  40cac9:	call   0x40c39f
  40cace:	mov    esi,eax
  40cad0:	test   esi,esi
  40cad2:	jne    0x40cae2
  40cad4:	call   DWORD PTR ds:0x41302c
  40cada:	test   eax,eax
  40cadc:	jne    0x40cb2d
  40cade:	push   0x8
  40cae0:	jmp    0x40cb27
  40cae2:	call   DWORD PTR ds:0x4131e0
  40cae8:	mov    DWORD PTR [eax],edi
  40caea:	lea    eax,[ebp-0x4]
  40caed:	push   eax
  40caee:	push   esi
  40caef:	call   DWORD PTR ds:0x4131e4
  40caf5:	add    esp,0x8
  40caf8:	fstp   QWORD PTR [ebp-0x10]
  40cafb:	call   DWORD PTR ds:0x4131e0
  40cb01:	cmp    DWORD PTR [eax],0x22
  40cb04:	je     0x40cb1b
  40cb06:	mov    ecx,DWORD PTR [ebp-0x4]
  40cb09:	test   ecx,ecx
  40cb0b:	je     0x40cb16
  40cb0d:	call   0x40d408
  40cb12:	test   eax,eax
  40cb14:	jne    0x40cb1b
  40cb16:	fld    QWORD PTR [ebp-0x10]
  40cb19:	jmp    0x40cb2f
  40cb1b:	call   DWORD PTR ds:0x41302c
  40cb21:	test   eax,eax
  40cb23:	jne    0x40cb2d
  40cb25:	push   0x57
  40cb27:	call   DWORD PTR ds:0x413030
  40cb2d:	fldz   
  40cb2f:	pop    edi
  40cb30:	pop    esi
  40cb31:	mov    esp,ebp
  40cb33:	pop    ebp
  40cb34:	ret    
  40cb35:	int3   
  40cb36:	int3   
  40cb37:	int3   
  40cb38:	int3   
  40cb39:	int3   
  40cb3a:	mov    edi,edi
  40cb3c:	push   ebp
  40cb3d:	mov    ebp,esp
  40cb3f:	push   ecx
  40cb40:	push   esi
  40cb41:	push   edi
  40cb42:	mov    esi,ecx
  40cb44:	xor    edi,edi
  40cb46:	mov    DWORD PTR [ebp-0x4],edi
  40cb49:	test   esi,esi
  40cb4b:	je     0x40cbd9
  40cb51:	call   0x40c279
  40cb56:	test   eax,eax
  40cb58:	je     0x40cbeb
  40cb5e:	push   edi
  40cb5f:	push   edi
  40cb60:	mov    edx,esi
  40cb62:	xor    ecx,ecx
  40cb64:	call   0x40c39f
  40cb69:	mov    esi,eax
  40cb6b:	test   esi,esi
  40cb6d:	jne    0x40cb7d
  40cb6f:	call   DWORD PTR ds:0x41302c
  40cb75:	test   eax,eax
  40cb77:	jne    0x40cbeb
  40cb79:	push   0x8
  40cb7b:	jmp    0x40cbe5
  40cb7d:	push   ecx
  40cb7e:	xor    edx,edx
  40cb80:	mov    ecx,esi
  40cb82:	call   0x40cf40
  40cb87:	mov    ecx,esi
  40cb89:	call   0x40d408
  40cb8e:	test   eax,eax
  40cb90:	je     0x40cbd9
  40cb92:	call   DWORD PTR ds:0x4131e0
  40cb98:	push   0xa
  40cb9a:	mov    DWORD PTR [eax],edi
  40cb9c:	lea    eax,[ebp-0x4]
  40cb9f:	cmp    WORD PTR [esi],0x2d
  40cba3:	push   eax
  40cba4:	push   esi
  40cba5:	jne    0x40cbaf
  40cba7:	call   DWORD PTR ds:0x4131e8
  40cbad:	jmp    0x40cbb5
  40cbaf:	call   DWORD PTR ds:0x4131ec
  40cbb5:	add    esp,0xc
  40cbb8:	mov    esi,eax
  40cbba:	call   DWORD PTR ds:0x4131e0
  40cbc0:	cmp    DWORD PTR [eax],0x22
  40cbc3:	je     0x40cbd9
  40cbc5:	mov    ecx,DWORD PTR [ebp-0x4]
  40cbc8:	test   ecx,ecx
  40cbca:	je     0x40cbd5
  40cbcc:	call   0x40d408
  40cbd1:	test   eax,eax
  40cbd3:	jne    0x40cbd9
  40cbd5:	mov    eax,esi
  40cbd7:	jmp    0x40cbed
  40cbd9:	call   DWORD PTR ds:0x41302c
  40cbdf:	test   eax,eax
  40cbe1:	jne    0x40cbeb
  40cbe3:	push   0x57
  40cbe5:	call   DWORD PTR ds:0x413030
  40cbeb:	xor    eax,eax
  40cbed:	pop    edi
  40cbee:	pop    esi
  40cbef:	mov    esp,ebp
  40cbf1:	pop    ebp
  40cbf2:	ret    
  40cbf3:	int3   
  40cbf4:	int3   
  40cbf5:	int3   
  40cbf6:	int3   
  40cbf7:	int3   
  40cbf8:	mov    edi,edi
  40cbfa:	push   ebp
  40cbfb:	mov    ebp,esp
  40cbfd:	push   ecx
  40cbfe:	push   esi
  40cbff:	push   edi
  40cc00:	xor    edi,edi
  40cc02:	mov    DWORD PTR [ebp-0x4],edi
  40cc05:	test   ecx,ecx
  40cc07:	je     0x40cc92
  40cc0d:	push   edi
  40cc0e:	mov    edx,ecx
  40cc10:	xor    ecx,ecx
  40cc12:	push   edi
  40cc13:	call   0x40c39f
  40cc18:	mov    esi,eax
  40cc1a:	test   esi,esi
  40cc1c:	jne    0x40cc2c
  40cc1e:	call   DWORD PTR ds:0x41302c
  40cc24:	test   eax,eax
  40cc26:	jne    0x40cca4
  40cc28:	push   0x8
  40cc2a:	jmp    0x40cc9e
  40cc2c:	push   ecx
  40cc2d:	xor    edx,edx
  40cc2f:	mov    ecx,esi
  40cc31:	call   0x40cf40
  40cc36:	mov    ecx,esi
  40cc38:	call   0x40d408
  40cc3d:	test   eax,eax
  40cc3f:	je     0x40cca4
  40cc41:	cmp    DWORD PTR [ebp+0x8],edi
  40cc44:	jne    0x40cc4c
  40cc46:	cmp    WORD PTR [esi],0x2d
  40cc4a:	je     0x40cca4
  40cc4c:	call   DWORD PTR ds:0x4131e0
  40cc52:	cmp    DWORD PTR [ebp+0x8],0x1
  40cc56:	push   0xa
  40cc58:	mov    DWORD PTR [eax],edi
  40cc5a:	lea    eax,[ebp-0x4]
  40cc5d:	push   eax
  40cc5e:	push   esi
  40cc5f:	jne    0x40cc69
  40cc61:	call   DWORD PTR ds:0x4131e8
  40cc67:	jmp    0x40cc6f
  40cc69:	call   DWORD PTR ds:0x4131ec
  40cc6f:	add    esp,0xc
  40cc72:	call   DWORD PTR ds:0x4131e0
  40cc78:	cmp    DWORD PTR [eax],0x22
  40cc7b:	je     0x40cca4
  40cc7d:	mov    ecx,DWORD PTR [ebp-0x4]
  40cc80:	test   ecx,ecx
  40cc82:	je     0x40cc8d
  40cc84:	call   0x40d408
  40cc89:	test   eax,eax
  40cc8b:	jne    0x40cca4
  40cc8d:	xor    eax,eax
  40cc8f:	inc    eax
  40cc90:	jmp    0x40cca6
  40cc92:	call   DWORD PTR ds:0x41302c
  40cc98:	test   eax,eax
  40cc9a:	jne    0x40cca4
  40cc9c:	push   0x57
  40cc9e:	call   DWORD PTR ds:0x413030
  40cca4:	xor    eax,eax
  40cca6:	pop    edi
  40cca7:	pop    esi
  40cca8:	mov    esp,ebp
  40ccaa:	pop    ebp
  40ccab:	ret    0x4
  40ccae:	int3   
  40ccaf:	int3   
  40ccb0:	int3   
  40ccb1:	int3   
  40ccb2:	int3   
  40ccb3:	mov    edi,edi
  40ccb5:	push   esi
  40ccb6:	mov    esi,ecx
  40ccb8:	push   edi
  40ccb9:	mov    edi,edx
  40ccbb:	test   esi,esi
  40ccbd:	jne    0x40cccd
  40ccbf:	call   DWORD PTR ds:0x41302c
  40ccc5:	test   eax,eax
  40ccc7:	jne    0x40ccf3
  40ccc9:	push   0x57
  40cccb:	jmp    0x40cced
  40cccd:	call   0x40d408
  40ccd2:	test   eax,eax
  40ccd4:	je     0x40cce8
  40ccd6:	push   edi
  40ccd7:	push   esi
  40ccd8:	call   DWORD PTR ds:0x413128
  40ccde:	test   eax,eax
  40cce0:	je     0x40cce8
  40cce2:	sub    eax,esi
  40cce4:	sar    eax,1
  40cce6:	jmp    0x40ccf6
  40cce8:	push   0x490
  40cced:	call   DWORD PTR ds:0x413030
  40ccf3:	or     eax,0xffffffff
  40ccf6:	pop    edi
  40ccf7:	pop    esi
  40ccf8:	ret    0x8
  40ccfb:	int3   
  40ccfc:	int3   
  40ccfd:	int3   
  40ccfe:	int3   
  40ccff:	int3   
  40cd00:	mov    edi,edi
  40cd02:	push   ebp
  40cd03:	mov    ebp,esp
  40cd05:	sub    esp,0xc
  40cd08:	push   ebx
  40cd09:	push   esi
  40cd0a:	push   edi
  40cd0b:	mov    edi,ecx
  40cd0d:	mov    esi,edx
  40cd0f:	test   edi,edi
  40cd11:	je     0x40cdbf
  40cd17:	test   esi,esi
  40cd19:	je     0x40cdbf
  40cd1f:	mov    ecx,esi
  40cd21:	call   0x40d408
  40cd26:	push   0x1
  40cd28:	xor    edx,edx
  40cd2a:	xor    ecx,ecx
  40cd2c:	lea    ebx,[eax+0x4]
  40cd2f:	push   ebx
  40cd30:	call   0x40c39f
  40cd35:	mov    DWORD PTR [ebp-0x4],eax
  40cd38:	test   eax,eax
  40cd3a:	jne    0x40cd4e
  40cd3c:	call   DWORD PTR ds:0x41302c
  40cd42:	test   eax,eax
  40cd44:	jne    0x40cdd1
  40cd4a:	push   0x8
  40cd4c:	jmp    0x40cdcb
  40cd4e:	mov    ecx,edi
  40cd50:	call   0x40d408
  40cd55:	add    eax,0x4
  40cd58:	xor    ecx,ecx
  40cd5a:	push   0x1
  40cd5c:	push   eax
  40cd5d:	xor    edx,edx
  40cd5f:	mov    DWORD PTR [ebp-0x8],eax
  40cd62:	inc    ecx
  40cd63:	call   0x40c39f
  40cd68:	mov    DWORD PTR [ebp-0xc],eax
  40cd6b:	test   eax,eax
  40cd6d:	je     0x40cd3c
  40cd6f:	push   esi
  40cd70:	mov    esi,DWORD PTR [ebp-0x4]
  40cd73:	push   0x401704
  40cd78:	push   ebx
  40cd79:	push   esi
  40cd7a:	call   0x401b75
  40cd7f:	add    esp,0x10
  40cd82:	test   eax,eax
  40cd84:	jns    0x40cd8c
  40cd86:	movzx  eax,ax
  40cd89:	push   eax
  40cd8a:	jmp    0x40cdcb
  40cd8c:	push   edi
  40cd8d:	mov    edi,DWORD PTR [ebp-0xc]
  40cd90:	push   0x401704
  40cd95:	push   DWORD PTR [ebp-0x8]
  40cd98:	push   edi
  40cd99:	call   0x401b75
  40cd9e:	add    esp,0x10
  40cda1:	test   eax,eax
  40cda3:	js     0x40cd86
  40cda5:	push   0x0
  40cda7:	push   DWORD PTR [ebp+0x8]
  40cdaa:	mov    edx,edi
  40cdac:	mov    ecx,esi
  40cdae:	call   0x40ce8e
  40cdb3:	xor    ecx,ecx
  40cdb5:	cmp    eax,0xffffffff
  40cdb8:	setne  cl
  40cdbb:	mov    eax,ecx
  40cdbd:	jmp    0x40cdd3
  40cdbf:	call   DWORD PTR ds:0x41302c
  40cdc5:	test   eax,eax
  40cdc7:	jne    0x40cdd1
  40cdc9:	push   0x57
  40cdcb:	call   DWORD PTR ds:0x413030
  40cdd1:	xor    eax,eax
  40cdd3:	pop    edi
  40cdd4:	pop    esi
  40cdd5:	pop    ebx
  40cdd6:	mov    esp,ebp
  40cdd8:	pop    ebp
  40cdd9:	ret    0x4
  40cddc:	int3   
  40cddd:	int3   
  40cdde:	int3   
  40cddf:	int3   
  40cde0:	int3   
  40cde1:	mov    edi,edi
  40cde3:	push   ebp
  40cde4:	mov    ebp,esp
  40cde6:	push   ecx
  40cde7:	push   ebx
  40cde8:	push   esi
  40cde9:	push   edi
  40cdea:	mov    edi,ecx
  40cdec:	mov    eax,edx
  40cdee:	mov    DWORD PTR [ebp-0x4],eax
  40cdf1:	test   edi,edi
  40cdf3:	je     0x40ce43
  40cdf5:	test   eax,eax
  40cdf7:	je     0x40ce43
  40cdf9:	mov    ecx,eax
  40cdfb:	call   0x40d408
  40ce00:	mov    ebx,eax
  40ce02:	test   ebx,ebx
  40ce04:	je     0x40ce3c
  40ce06:	mov    ecx,edi
  40ce08:	call   0x40d408
  40ce0d:	test   eax,eax
  40ce0f:	je     0x40ce3c
  40ce11:	mov    ecx,edi
  40ce13:	call   0x40d408
  40ce18:	test   eax,eax
  40ce1a:	je     0x40ce3c
  40ce1c:	xor    esi,esi
  40ce1e:	test   ebx,ebx
  40ce20:	je     0x40ce3c
  40ce22:	mov    eax,DWORD PTR [ebp-0x4]
  40ce25:	push   ecx
  40ce26:	push   ecx
  40ce27:	mov    ecx,edi
  40ce29:	mov    dx,WORD PTR [eax+esi*2]
  40ce2d:	call   0x40ccb3
  40ce32:	cmp    eax,0xffffffff
  40ce35:	jne    0x40ce58
  40ce37:	inc    esi
  40ce38:	cmp    esi,ebx
  40ce3a:	jb     0x40ce22
  40ce3c:	push   0x490
  40ce41:	jmp    0x40ce4f
  40ce43:	call   DWORD PTR ds:0x41302c
  40ce49:	test   eax,eax
  40ce4b:	jne    0x40ce55
  40ce4d:	push   0x57
  40ce4f:	call   DWORD PTR ds:0x413030
  40ce55:	or     eax,0xffffffff
  40ce58:	pop    edi
  40ce59:	pop    esi
  40ce5a:	pop    ebx
  40ce5b:	mov    esp,ebp
  40ce5d:	pop    ebp
  40ce5e:	ret    0x8
  40ce61:	int3   
  40ce62:	int3   
  40ce63:	int3   
  40ce64:	int3   
  40ce65:	int3   
  40ce66:	mov    edi,edi
  40ce68:	push   ebp
  40ce69:	mov    ebp,esp
  40ce6b:	push   esi
  40ce6c:	push   DWORD PTR [ebp+0x8]
  40ce6f:	mov    esi,ecx
  40ce71:	push   0x1
  40ce73:	call   0x40ce8e
  40ce78:	cmp    eax,0xffffffff
  40ce7b:	jne    0x40ce81
  40ce7d:	xor    eax,eax
  40ce7f:	jmp    0x40ce84
  40ce81:	lea    eax,[esi+eax*2]
  40ce84:	pop    esi
  40ce85:	pop    ebp
  40ce86:	ret    0x4
  40ce89:	int3   
  40ce8a:	int3   
  40ce8b:	int3   
  40ce8c:	int3   
  40ce8d:	int3   
  40ce8e:	mov    edi,edi
  40ce90:	push   ebp
  40ce91:	mov    ebp,esp
  40ce93:	push   ebx
  40ce94:	push   esi
  40ce95:	mov    esi,ecx
  40ce97:	mov    ebx,edx
  40ce99:	push   edi
  40ce9a:	test   esi,esi
  40ce9c:	je     0x40ceef
  40ce9e:	test   ebx,ebx
  40cea0:	je     0x40ceef
  40cea2:	call   0x40d408
  40cea7:	mov    ecx,ebx
  40cea9:	mov    edi,eax
  40ceab:	call   0x40d408
  40ceb0:	test   eax,eax
  40ceb2:	je     0x40cee2
  40ceb4:	test   edi,edi
  40ceb6:	je     0x40cee2
  40ceb8:	mov    ecx,DWORD PTR [ebp+0xc]
  40cebb:	cmp    ecx,edi
  40cebd:	jae    0x40cee2
  40cebf:	sub    edi,ecx
  40cec1:	cmp    edi,eax
  40cec3:	jb     0x40cee2
  40cec5:	cmp    DWORD PTR [ebp+0x8],0x1
  40cec9:	lea    eax,[esi+ecx*2]
  40cecc:	push   ebx
  40cecd:	push   eax
  40cece:	jne    0x40ced8
  40ced0:	call   DWORD PTR ds:0x413114
  40ced6:	jmp    0x40cede
  40ced8:	call   DWORD PTR ds:0x413118
  40cede:	test   eax,eax
  40cee0:	jne    0x40cee9
  40cee2:	push   0x490
  40cee7:	jmp    0x40cefb
  40cee9:	sub    eax,esi
  40ceeb:	sar    eax,1
  40ceed:	jmp    0x40cf04
  40ceef:	call   DWORD PTR ds:0x41302c
  40cef5:	test   eax,eax
  40cef7:	jne    0x40cf01
  40cef9:	push   0x57
  40cefb:	call   DWORD PTR ds:0x413030
  40cf01:	or     eax,0xffffffff
  40cf04:	pop    edi
  40cf05:	pop    esi
  40cf06:	pop    ebx
  40cf07:	pop    ebp
  40cf08:	ret    0x8
  40cf0b:	int3   
  40cf0c:	int3   
  40cf0d:	int3   
  40cf0e:	int3   
  40cf0f:	int3   
  40cf10:	mov    edi,edi
  40cf12:	push   esi
  40cf13:	mov    esi,ecx
  40cf15:	test   esi,esi
  40cf17:	je     0x40cf37
  40cf19:	call   0x40d408
  40cf1e:	test   eax,eax
  40cf20:	je     0x40cf37
  40cf22:	xor    eax,eax
  40cf24:	push   eax
  40cf25:	push   eax
  40cf26:	push   eax
  40cf27:	push   eax
  40cf28:	push   0xffffffff
  40cf2a:	push   esi
  40cf2b:	push   eax
  40cf2c:	push   0x1
  40cf2e:	call   DWORD PTR ds:0x4130a8
  40cf34:	dec    eax
  40cf35:	pop    esi
  40cf36:	ret    
  40cf37:	xor    eax,eax
  40cf39:	pop    esi
  40cf3a:	ret    
  40cf3b:	int3   
  40cf3c:	int3   
  40cf3d:	int3   
  40cf3e:	int3   
  40cf3f:	int3   
  40cf40:	mov    edi,edi
  40cf42:	push   ebp
  40cf43:	mov    ebp,esp
  40cf45:	sub    esp,0x18
  40cf48:	mov    eax,ds:0x412004
  40cf4d:	xor    eax,ebp
  40cf4f:	mov    DWORD PTR [ebp-0x4],eax
  40cf52:	push   ebx
  40cf53:	xor    eax,eax
  40cf55:	push   esi
  40cf56:	mov    ebx,eax
  40cf58:	mov    esi,edx
  40cf5a:	mov    eax,ds:0x401710
  40cf5f:	push   edi
  40cf60:	mov    edi,ecx
  40cf62:	mov    DWORD PTR [ebp-0xc],eax
  40cf65:	mov    ax,ds:0x401714
  40cf6b:	mov    DWORD PTR [ebp-0x10],esi
  40cf6e:	mov    DWORD PTR [ebp-0x18],edi
  40cf71:	mov    DWORD PTR [ebp-0x14],ebx
  40cf74:	mov    WORD PTR [ebp-0x8],ax
  40cf78:	test   edi,edi
  40cf7a:	je     0x40d027
  40cf80:	call   0x40d408
  40cf85:	test   eax,eax
  40cf87:	je     0x40d027
  40cf8d:	test   esi,esi
  40cf8f:	je     0x40cf9c
  40cf91:	mov    ecx,esi
  40cf93:	call   0x40d408
  40cf98:	test   eax,eax
  40cf9a:	jne    0x40cfa2
  40cf9c:	lea    eax,[ebp-0xc]
  40cf9f:	mov    DWORD PTR [ebp-0x10],eax
  40cfa2:	xor    eax,eax
  40cfa4:	mov    esi,edi
  40cfa6:	cmp    WORD PTR [edi],ax
  40cfa9:	je     0x40cfcd
  40cfab:	mov    ebx,DWORD PTR [ebp-0x10]
  40cfae:	xor    edi,edi
  40cfb0:	movzx  eax,WORD PTR [esi]
  40cfb3:	push   eax
  40cfb4:	push   ebx
  40cfb5:	call   DWORD PTR ds:0x413120
  40cfbb:	test   eax,eax
  40cfbd:	je     0x40cfc7
  40cfbf:	add    esi,0x2
  40cfc2:	cmp    WORD PTR [esi],di
  40cfc5:	jne    0x40cfb0
  40cfc7:	mov    edi,DWORD PTR [ebp-0x18]
  40cfca:	mov    ebx,DWORD PTR [ebp-0x14]
  40cfcd:	movzx  eax,WORD PTR [esi]
  40cfd0:	mov    DWORD PTR [ebp-0x14],esi
  40cfd3:	test   ax,ax
  40cfd6:	je     0x40d00a
  40cfd8:	mov    edi,DWORD PTR [ebp-0x10]
  40cfdb:	push   eax
  40cfdc:	push   edi
  40cfdd:	call   DWORD PTR ds:0x413120
  40cfe3:	test   eax,eax
  40cfe5:	je     0x40cfef
  40cfe7:	test   ebx,ebx
  40cfe9:	jne    0x40cff3
  40cfeb:	mov    ebx,esi
  40cfed:	jmp    0x40cff3
  40cfef:	xor    eax,eax
  40cff1:	mov    ebx,eax
  40cff3:	add    esi,0x2
  40cff6:	movzx  eax,WORD PTR [esi]
  40cff9:	test   ax,ax
  40cffc:	jne    0x40cfdb
  40cffe:	mov    edi,DWORD PTR [ebp-0x18]
  40d001:	test   ebx,ebx
  40d003:	je     0x40d00a
  40d005:	xor    eax,eax
  40d007:	mov    WORD PTR [ebx],ax
  40d00a:	mov    ebx,DWORD PTR [ebp-0x14]
  40d00d:	cmp    ebx,edi
  40d00f:	jbe    0x40d023
  40d011:	mov    ecx,ebx
  40d013:	call   0x40d408
  40d018:	inc    eax
  40d019:	mov    edx,ebx
  40d01b:	push   eax
  40d01c:	mov    ecx,edi
  40d01e:	call   0x40d369
  40d023:	mov    eax,edi
  40d025:	jmp    0x40d02c
  40d027:	mov    eax,0x401738
  40d02c:	mov    ecx,DWORD PTR [ebp-0x4]
  40d02f:	pop    edi
  40d030:	pop    esi
  40d031:	xor    ecx,ebp
  40d033:	pop    ebx
  40d034:	call   0x411090
  40d039:	mov    esp,ebp
  40d03b:	pop    ebp
  40d03c:	ret    0x4
  40d03f:	int3   
  40d040:	int3   
  40d041:	int3   
  40d042:	int3   
  40d043:	int3   
  40d044:	mov    edi,edi
  40d046:	push   ebp
  40d047:	mov    ebp,esp
  40d049:	sub    esp,0x20
  40d04c:	mov    eax,ds:0x412004
  40d051:	xor    eax,ebp
  40d053:	mov    DWORD PTR [ebp-0x4],eax
  40d056:	push   ebx
  40d057:	xor    eax,eax
  40d059:	mov    ebx,ecx
  40d05b:	mov    DWORD PTR [ebp-0x1c],ebx
  40d05e:	mov    DWORD PTR [ebp-0x10],eax
  40d061:	mov    DWORD PTR [ebp-0xc],eax
  40d064:	mov    WORD PTR [ebp-0x8],ax
  40d068:	push   esi
  40d069:	mov    esi,edx
  40d06b:	mov    DWORD PTR [ebp-0x20],esi
  40d06e:	test   ebx,ebx
  40d070:	jne    0x40d08e
  40d072:	call   DWORD PTR ds:0x41302c
  40d078:	test   eax,eax
  40d07a:	jne    0x40d084
  40d07c:	push   0x57
  40d07e:	call   DWORD PTR ds:0x413030
  40d084:	mov    eax,0x401738
  40d089:	jmp    0x40d1b0
  40d08e:	call   0x40cf10
  40d093:	mov    DWORD PTR [ebp-0x18],eax
  40d096:	cmp    eax,esi
  40d098:	ja     0x40d09c
  40d09a:	mov    eax,esi
  40d09c:	push   edi
  40d09d:	lea    edi,[eax+0xa]
  40d0a0:	xor    edx,edx
  40d0a2:	push   0x1
  40d0a4:	push   edi
  40d0a5:	xor    ecx,ecx
  40d0a7:	call   0x40c39f
  40d0ac:	mov    ecx,eax
  40d0ae:	mov    DWORD PTR [ebp-0x14],ecx
  40d0b1:	test   ecx,ecx
  40d0b3:	je     0x40d0d0
  40d0b5:	cmp    DWORD PTR [ebp-0x18],esi
  40d0b8:	jae    0x40d128
  40d0ba:	push   0x1
  40d0bc:	xor    ecx,ecx
  40d0be:	xor    edx,edx
  40d0c0:	push   edi
  40d0c1:	inc    ecx
  40d0c2:	call   0x40c39f
  40d0c7:	mov    ecx,eax
  40d0c9:	mov    DWORD PTR [ebp-0x10],ecx
  40d0cc:	test   ecx,ecx
  40d0ce:	jne    0x40d0ec
  40d0d0:	call   DWORD PTR ds:0x41302c
  40d0d6:	test   eax,eax
  40d0d8:	jne    0x40d0e2
  40d0da:	push   0x8
  40d0dc:	call   DWORD PTR ds:0x413030
  40d0e2:	mov    eax,0x401738
  40d0e7:	jmp    0x40d1af
  40d0ec:	mov    eax,esi
  40d0ee:	mov    edx,0x40119c
  40d0f3:	sub    eax,DWORD PTR [ebp-0x18]
  40d0f6:	push   edi
  40d0f7:	push   eax
  40d0f8:	call   0x40d1c7
  40d0fd:	cmp    DWORD PTR [ebp+0x8],0x1
  40d101:	mov    ecx,DWORD PTR [ebp-0x14]
  40d104:	push   edi
  40d105:	jne    0x40d113
  40d107:	mov    edx,DWORD PTR [ebp-0x10]
  40d10a:	call   0x40d369
  40d10f:	mov    edx,ebx
  40d111:	jmp    0x40d11d
  40d113:	mov    edx,ebx
  40d115:	call   0x40d369
  40d11a:	mov    edx,DWORD PTR [ebp-0x10]
  40d11d:	mov    ecx,DWORD PTR [ebp-0x14]
  40d120:	push   edi
  40d121:	call   0x40d3ce
  40d126:	jmp    0x40d19f
  40d128:	test   esi,esi
  40d12a:	je     0x40d19f
  40d12c:	mov    edx,ebx
  40d12e:	mov    ebx,DWORD PTR [ebp-0x14]
  40d131:	mov    DWORD PTR [ebp-0x18],edx
  40d134:	push   0x2
  40d136:	lea    ecx,[ebp-0xc]
  40d139:	call   0x40d369
  40d13e:	lea    ecx,[ebp-0xc]
  40d141:	call   0x40cf10
  40d146:	mov    ecx,eax
  40d148:	mov    eax,DWORD PTR [ebp-0x10]
  40d14b:	add    ecx,eax
  40d14d:	mov    DWORD PTR [ebp-0x10],ecx
  40d150:	cmp    ecx,esi
  40d152:	ja     0x40d174
  40d154:	push   edi
  40d155:	lea    edx,[ebp-0xc]
  40d158:	mov    ecx,ebx
  40d15a:	call   0x40d3ce
  40d15f:	mov    edx,DWORD PTR [ebp-0x18]
  40d162:	mov    ecx,DWORD PTR [ebp-0x10]
  40d165:	add    edx,0x2
  40d168:	mov    DWORD PTR [ebp-0x10],ecx
  40d16b:	mov    eax,ecx
  40d16d:	mov    DWORD PTR [ebp-0x18],edx
  40d170:	cmp    ecx,esi
  40d172:	jb     0x40d134
  40d174:	mov    ebx,DWORD PTR [ebp-0x1c]
  40d177:	cmp    eax,esi
  40d179:	jae    0x40d19f
  40d17b:	mov    ebx,DWORD PTR [ebp-0x14]
  40d17e:	mov    ecx,esi
  40d180:	sub    ecx,eax
  40d182:	mov    DWORD PTR [ebp-0x10],ecx
  40d185:	mov    esi,ecx
  40d187:	push   edi
  40d188:	mov    edx,0x40119c
  40d18d:	mov    ecx,ebx
  40d18f:	call   0x40d3ce
  40d194:	sub    esi,0x1
  40d197:	jne    0x40d187
  40d199:	mov    esi,DWORD PTR [ebp-0x20]
  40d19c:	mov    ebx,DWORD PTR [ebp-0x1c]
  40d19f:	mov    edx,DWORD PTR [ebp-0x14]
  40d1a2:	lea    ecx,[esi+0x1]
  40d1a5:	push   ecx
  40d1a6:	mov    ecx,ebx
  40d1a8:	call   0x40d369
  40d1ad:	mov    eax,ebx
  40d1af:	pop    edi
  40d1b0:	mov    ecx,DWORD PTR [ebp-0x4]
  40d1b3:	pop    esi
  40d1b4:	xor    ecx,ebp
  40d1b6:	pop    ebx
  40d1b7:	call   0x411090
  40d1bc:	mov    esp,ebp
  40d1be:	pop    ebp
  40d1bf:	ret    0x4
  40d1c2:	int3   
  40d1c3:	int3   
  40d1c4:	int3   
  40d1c5:	int3   
  40d1c6:	int3   
  40d1c7:	mov    edi,edi
  40d1c9:	push   ebp
  40d1ca:	mov    ebp,esp
  40d1cc:	push   ebx
  40d1cd:	push   esi
  40d1ce:	mov    esi,ecx
  40d1d0:	mov    ebx,edx
  40d1d2:	test   esi,esi
  40d1d4:	je     0x40d20a
  40d1d6:	test   ebx,ebx
  40d1d8:	je     0x40d20a
  40d1da:	push   edi
  40d1db:	push   DWORD PTR [ebp+0xc]
  40d1de:	mov    edx,0x401738
  40d1e3:	call   0x40d369
  40d1e8:	xor    edi,edi
  40d1ea:	cmp    DWORD PTR [ebp+0x8],edi
  40d1ed:	jbe    0x40d205
  40d1ef:	push   DWORD PTR [ebp+0xc]
  40d1f2:	mov    edx,ebx
  40d1f4:	mov    ecx,esi
  40d1f6:	call   0x40d3ce
  40d1fb:	test   eax,eax
  40d1fd:	je     0x40d205
  40d1ff:	inc    edi
  40d200:	cmp    edi,DWORD PTR [ebp+0x8]
  40d203:	jb     0x40d1ef
  40d205:	mov    eax,esi
  40d207:	pop    edi
  40d208:	jmp    0x40d221
  40d20a:	call   DWORD PTR ds:0x41302c
  40d210:	test   eax,eax
  40d212:	jne    0x40d21c
  40d214:	push   0x57
  40d216:	call   DWORD PTR ds:0x413030
  40d21c:	mov    eax,0x401738
  40d221:	pop    esi
  40d222:	pop    ebx
  40d223:	pop    ebp
  40d224:	ret    0x8
  40d227:	int3   
  40d228:	int3   
  40d229:	int3   
  40d22a:	int3   
  40d22b:	int3   
  40d22c:	mov    edi,edi
  40d22e:	push   esi
  40d22f:	mov    esi,ecx
  40d231:	push   edi
  40d232:	mov    edi,edx
  40d234:	test   esi,esi
  40d236:	je     0x40d25a
  40d238:	cmp    esi,0xffffffff
  40d23b:	je     0x40d25a
  40d23d:	push   esi
  40d23e:	call   DWORD PTR ds:0x4130a4
  40d244:	cmp    eax,0x2
  40d247:	jne    0x40d25a
  40d249:	push   edi
  40d24a:	push   esi
  40d24b:	call   DWORD PTR ds:0x4130a0
  40d251:	test   eax,eax
  40d253:	je     0x40d25a
  40d255:	xor    eax,eax
  40d257:	inc    eax
  40d258:	jmp    0x40d25c
  40d25a:	xor    eax,eax
  40d25c:	pop    edi
  40d25d:	pop    esi
  40d25e:	ret    
  40d25f:	int3   
  40d260:	int3   
  40d261:	int3   
  40d262:	int3   
  40d263:	int3   
  40d264:	mov    edi,edi
  40d266:	push   ebp
  40d267:	mov    ebp,esp
  40d269:	push   ecx
  40d26a:	push   edi
  40d26b:	xor    edi,edi
  40d26d:	mov    DWORD PTR [ebp-0x4],edi
  40d270:	test   ecx,ecx
  40d272:	jne    0x40d28a
  40d274:	call   DWORD PTR ds:0x41302c
  40d27a:	test   eax,eax
  40d27c:	jne    0x40d286
  40d27e:	push   0x57
  40d280:	call   DWORD PTR ds:0x413030
  40d286:	xor    eax,eax
  40d288:	jmp    0x40d2fc
  40d28a:	push   ebx
  40d28b:	push   esi
  40d28c:	push   ecx
  40d28d:	call   DWORD PTR ds:0x4131f0
  40d293:	mov    esi,eax
  40d295:	call   DWORD PTR ds:0x4131e0
  40d29b:	push   esi
  40d29c:	mov    DWORD PTR [eax],edi
  40d29e:	call   DWORD PTR ds:0x4131f4
  40d2a4:	mov    ebx,eax
  40d2a6:	pop    ecx
  40d2a7:	pop    ecx
  40d2a8:	cmp    ebx,0xffffffff
  40d2ab:	je     0x40d2f0
  40d2ad:	call   DWORD PTR ds:0x4131e0
  40d2b3:	cmp    DWORD PTR [eax],0x9
  40d2b6:	je     0x40d2f0
  40d2b8:	push   ebx
  40d2b9:	call   DWORD PTR ds:0x4130a4
  40d2bf:	cmp    eax,0x2
  40d2c2:	jne    0x40d2f8
  40d2c4:	sub    esi,edi
  40d2c6:	je     0x40d2da
  40d2c8:	sub    esi,0x1
  40d2cb:	je     0x40d2d6
  40d2cd:	sub    esi,0x1
  40d2d0:	jne    0x40d2e4
  40d2d2:	push   0xfffffff4
  40d2d4:	jmp    0x40d2dc
  40d2d6:	push   0xfffffff5
  40d2d8:	jmp    0x40d2dc
  40d2da:	push   0xfffffff6
  40d2dc:	call   DWORD PTR ds:0x41309c
  40d2e2:	mov    edi,eax
  40d2e4:	lea    edx,[ebp-0x4]
  40d2e7:	mov    ecx,edi
  40d2e9:	call   0x40d22c
  40d2ee:	jmp    0x40d2fa
  40d2f0:	push   0x6
  40d2f2:	call   DWORD PTR ds:0x413030
  40d2f8:	xor    eax,eax
  40d2fa:	pop    esi
  40d2fb:	pop    ebx
  40d2fc:	pop    edi
  40d2fd:	mov    esp,ebp
  40d2ff:	pop    ebp
  40d300:	ret    
  40d301:	int3   
  40d302:	int3   
  40d303:	int3   
  40d304:	int3   
  40d305:	int3   
  40d306:	mov    edi,edi
  40d308:	push   ebp
  40d309:	mov    ebp,esp
  40d30b:	push   esi
  40d30c:	mov    esi,ecx
  40d30e:	test   esi,esi
  40d310:	je     0x40d358
  40d312:	test   edx,edx
  40d314:	je     0x40d358
  40d316:	mov    eax,DWORD PTR [ebp+0x8]
  40d319:	test   eax,eax
  40d31b:	jle    0x40d358
  40d31d:	xor    ecx,ecx
  40d31f:	test   eax,eax
  40d321:	je     0x40d32a
  40d323:	cmp    eax,0x7fffffff
  40d328:	jbe    0x40d32f
  40d32a:	mov    ecx,0x80070057
  40d32f:	test   ecx,ecx
  40d331:	js     0x40d343
  40d333:	push   ecx
  40d334:	push   edx
  40d335:	push   ecx
  40d336:	mov    edx,eax
  40d338:	mov    ecx,esi
  40d33a:	call   0x40de9e
  40d33f:	mov    ecx,eax
  40d341:	jmp    0x40d34a
  40d343:	test   eax,eax
  40d345:	je     0x40d34a
  40d347:	mov    BYTE PTR [esi],0x0
  40d34a:	test   ecx,ecx
  40d34c:	jns    0x40d35f
  40d34e:	movzx  eax,cx
  40d351:	push   eax
  40d352:	call   DWORD PTR ds:0x413030
  40d358:	xor    eax,eax
  40d35a:	pop    esi
  40d35b:	pop    ebp
  40d35c:	ret    0x4
  40d35f:	xor    eax,eax
  40d361:	inc    eax
  40d362:	jmp    0x40d35a
  40d364:	int3   
  40d365:	int3   
  40d366:	int3   
  40d367:	int3   
  40d368:	int3   
  40d369:	mov    edi,edi
  40d36b:	push   ebp
  40d36c:	mov    ebp,esp
  40d36e:	push   esi
  40d36f:	mov    esi,ecx
  40d371:	test   esi,esi
  40d373:	je     0x40d3bd
  40d375:	test   edx,edx
  40d377:	je     0x40d3bd
  40d379:	mov    eax,DWORD PTR [ebp+0x8]
  40d37c:	test   eax,eax
  40d37e:	jle    0x40d3bd
  40d380:	xor    ecx,ecx
  40d382:	test   eax,eax
  40d384:	je     0x40d38d
  40d386:	cmp    eax,0x7fffffff
  40d38b:	jbe    0x40d392
  40d38d:	mov    ecx,0x80070057
  40d392:	test   ecx,ecx
  40d394:	js     0x40d3a6
  40d396:	push   ecx
  40d397:	push   edx
  40d398:	push   ecx
  40d399:	mov    edx,eax
  40d39b:	mov    ecx,esi
  40d39d:	call   0x40de4e
  40d3a2:	mov    ecx,eax
  40d3a4:	jmp    0x40d3af
  40d3a6:	test   eax,eax
  40d3a8:	je     0x40d3af
  40d3aa:	xor    eax,eax
  40d3ac:	mov    WORD PTR [esi],ax
  40d3af:	test   ecx,ecx
  40d3b1:	jns    0x40d3c4
  40d3b3:	movzx  eax,cx
  40d3b6:	push   eax
  40d3b7:	call   DWORD PTR ds:0x413030
  40d3bd:	xor    eax,eax
  40d3bf:	pop    esi
  40d3c0:	pop    ebp
  40d3c1:	ret    0x4
  40d3c4:	xor    eax,eax
  40d3c6:	inc    eax
  40d3c7:	jmp    0x40d3bf
  40d3c9:	int3   
  40d3ca:	int3   
  40d3cb:	int3   
  40d3cc:	int3   
  40d3cd:	int3   
  40d3ce:	mov    edi,edi
  40d3d0:	push   ebp
  40d3d1:	mov    ebp,esp
  40d3d3:	mov    eax,edx
  40d3d5:	test   ecx,ecx
  40d3d7:	je     0x40d3f8
  40d3d9:	test   eax,eax
  40d3db:	je     0x40d3f8
  40d3dd:	mov    edx,DWORD PTR [ebp+0x8]
  40d3e0:	test   edx,edx
  40d3e2:	jle    0x40d3f8
  40d3e4:	push   eax
  40d3e5:	call   0x40dde2
  40d3ea:	test   eax,eax
  40d3ec:	jns    0x40d3fe
  40d3ee:	movzx  eax,ax
  40d3f1:	push   eax
  40d3f2:	call   DWORD PTR ds:0x413030
  40d3f8:	xor    eax,eax
  40d3fa:	pop    ebp
  40d3fb:	ret    0x4
  40d3fe:	xor    eax,eax
  40d400:	inc    eax
  40d401:	jmp    0x40d3fa
  40d403:	int3   
  40d404:	int3   
  40d405:	int3   
  40d406:	int3   
  40d407:	int3   
  40d408:	test   ecx,ecx
  40d40a:	jne    0x40d40f
  40d40c:	xor    eax,eax
  40d40e:	ret    
  40d40f:	push   ecx
  40d410:	call   DWORD PTR ds:0x4130f0
  40d416:	ret    
  40d417:	int3   
  40d418:	int3   
  40d419:	int3   
  40d41a:	int3   
  40d41b:	int3   
  40d41c:	mov    edi,edi
  40d41e:	push   ebp
  40d41f:	mov    ebp,esp
  40d421:	push   esi
  40d422:	mov    esi,ecx
  40d424:	test   esi,esi
  40d426:	je     0x40d456
  40d428:	test   edx,edx
  40d42a:	je     0x40d456
  40d42c:	mov    eax,DWORD PTR [ebp+0xc]
  40d42f:	xor    ecx,ecx
  40d431:	cmp    DWORD PTR [ebp+0x8],0x1
  40d435:	sete   cl
  40d438:	test   eax,eax
  40d43a:	jne    0x40d43f
  40d43c:	or     eax,0xffffffff
  40d43f:	push   eax
  40d440:	push   edx
  40d441:	push   eax
  40d442:	push   esi
  40d443:	push   ecx
  40d444:	call   DWORD PTR ds:0x41308c
  40d44a:	push   eax
  40d44b:	call   DWORD PTR ds:0x413090
  40d451:	sub    eax,0x2
  40d454:	jmp    0x40d46a
  40d456:	call   DWORD PTR ds:0x41302c
  40d45c:	test   eax,eax
  40d45e:	jne    0x40d468
  40d460:	push   0x57
  40d462:	call   DWORD PTR ds:0x413030
  40d468:	xor    eax,eax
  40d46a:	pop    esi
  40d46b:	pop    ebp
  40d46c:	ret    0x8
  40d46f:	int3   
  40d470:	int3   
  40d471:	int3   
  40d472:	int3   
  40d473:	int3   
  40d474:	mov    edi,edi
  40d476:	push   ebp
  40d477:	mov    ebp,esp
  40d479:	sub    esp,0x10
  40d47c:	and    DWORD PTR [ebp-0x4],0x0
  40d480:	push   ebx
  40d481:	push   esi
  40d482:	mov    ebx,ecx
  40d484:	push   edi
  40d485:	mov    edi,edx
  40d487:	test   ebx,ebx
  40d489:	je     0x40d6ad
  40d48f:	test   edi,edi
  40d491:	je     0x40d6ad
  40d497:	call   0x40d264
  40d49c:	cmp    eax,0x1
  40d49f:	jne    0x40d595
  40d4a5:	push   eax
  40d4a6:	call   0x411711
  40d4ab:	pop    ecx
  40d4ac:	cmp    ebx,eax
  40d4ae:	jne    0x40d4bf
  40d4b0:	push   0xfffffff5
  40d4b2:	call   DWORD PTR ds:0x41309c
  40d4b8:	mov    ebx,eax
  40d4ba:	mov    DWORD PTR [ebp-0x8],ebx
  40d4bd:	jmp    0x40d4dc
  40d4bf:	push   0x2
  40d4c1:	call   0x411711
  40d4c6:	pop    ecx
  40d4c7:	cmp    ebx,eax
  40d4c9:	jne    0x40d57d
  40d4cf:	push   0xfffffff4
  40d4d1:	call   DWORD PTR ds:0x41309c
  40d4d7:	mov    ebx,eax
  40d4d9:	mov    DWORD PTR [ebp-0x8],eax
  40d4dc:	and    DWORD PTR [ebp-0x4],0x0
  40d4e0:	mov    ecx,edi
  40d4e2:	call   0x40d408
  40d4e7:	push   0x0
  40d4e9:	mov    esi,eax
  40d4eb:	lea    eax,[ebp-0x4]
  40d4ee:	push   eax
  40d4ef:	push   esi
  40d4f0:	push   edi
  40d4f1:	push   ebx
  40d4f2:	call   DWORD PTR ds:0x413084
  40d4f8:	test   eax,eax
  40d4fa:	je     0x40d501
  40d4fc:	cmp    esi,DWORD PTR [ebp-0x4]
  40d4ff:	je     0x40d559
  40d501:	call   DWORD PTR ds:0x41302c
  40d507:	cmp    eax,0x8
  40d50a:	jne    0x40d561
  40d50c:	mov    ecx,edi
  40d50e:	call   0x40d408
  40d513:	xor    ebx,ebx
  40d515:	mov    DWORD PTR [ebp-0xc],eax
  40d518:	test   eax,eax
  40d51a:	je     0x40d559
  40d51c:	mov    ecx,0x400
  40d521:	mov    esi,eax
  40d523:	sub    esi,ebx
  40d525:	cmp    esi,ecx
  40d527:	jbe    0x40d52b
  40d529:	mov    esi,ecx
  40d52b:	push   0x0
  40d52d:	lea    eax,[ebp-0x4]
  40d530:	push   eax
  40d531:	push   esi
  40d532:	push   edi
  40d533:	push   DWORD PTR [ebp-0x8]
  40d536:	call   DWORD PTR ds:0x413084
  40d53c:	test   eax,eax
  40d53e:	je     0x40d561
  40d540:	cmp    esi,DWORD PTR [ebp-0x4]
  40d543:	jne    0x40d561
  40d545:	mov    eax,DWORD PTR [ebp-0xc]
  40d548:	mov    ecx,0x400
  40d54d:	add    ebx,ecx
  40d54f:	add    edi,0x800
  40d555:	cmp    ebx,eax
  40d557:	jb     0x40d521
  40d559:	xor    eax,eax
  40d55b:	inc    eax
  40d55c:	jmp    0x40d6c1
  40d561:	push   0x2
  40d563:	call   0x411711
  40d568:	pop    ecx
  40d569:	mov    ecx,eax
  40d56b:	call   0x40c71f
  40d570:	call   0x40c7e2
  40d575:	push   0x1
  40d577:	call   DWORD PTR ds:0x413080
  40d57d:	call   DWORD PTR ds:0x41302c
  40d583:	test   eax,eax
  40d585:	jne    0x40d6bf
  40d58b:	push   0x42b
  40d590:	jmp    0x40d6b9
  40d595:	mov    ecx,edi
  40d597:	call   0x40d408
  40d59c:	push   0x100
  40d5a1:	mov    esi,eax
  40d5a3:	push   0x0
  40d5a5:	push   0x412360
  40d5aa:	mov    DWORD PTR [ebp-0x10],esi
  40d5ad:	call   0x411770
  40d5b2:	xor    ecx,ecx
  40d5b4:	add    esp,0xc
  40d5b7:	mov    eax,ecx
  40d5b9:	mov    DWORD PTR [ebp-0x8],eax
  40d5bc:	test   esi,esi
  40d5be:	je     0x40d559
  40d5c0:	sub    esi,eax
  40d5c2:	mov    DWORD PTR [ebp-0x4],ecx
  40d5c5:	cmp    esi,0xff
  40d5cb:	jbe    0x40d5d2
  40d5cd:	mov    esi,0xff
  40d5d2:	lea    eax,[edi+eax*2]
  40d5d5:	mov    DWORD PTR [ebp-0xc],eax
  40d5d8:	push   ecx
  40d5d9:	push   ecx
  40d5da:	push   ecx
  40d5db:	push   ecx
  40d5dc:	push   esi
  40d5dd:	push   eax
  40d5de:	push   ecx
  40d5df:	call   DWORD PTR ds:0x41307c
  40d5e5:	push   eax
  40d5e6:	call   DWORD PTR ds:0x4130a8
  40d5ec:	mov    DWORD PTR [ebp-0x4],eax
  40d5ef:	test   eax,eax
  40d5f1:	je     0x40d6a6
  40d5f7:	cmp    eax,0xff
  40d5fc:	jbe    0x40d61d
  40d5fe:	add    eax,0xffffff01
  40d603:	cmp    eax,0x3
  40d606:	jbe    0x40d60e
  40d608:	shr    eax,1
  40d60a:	sub    esi,eax
  40d60c:	jmp    0x40d60f
  40d60e:	dec    esi
  40d60f:	xor    ecx,ecx
  40d611:	mov    DWORD PTR [ebp-0x4],ecx
  40d614:	test   esi,esi
  40d616:	je     0x40d691
  40d618:	mov    eax,DWORD PTR [ebp-0xc]
  40d61b:	jmp    0x40d5d8
  40d61d:	cmp    eax,esi
  40d61f:	jae    0x40d623
  40d621:	mov    esi,eax
  40d623:	push   0x100
  40d628:	push   0x0
  40d62a:	push   0x412360
  40d62f:	call   0x411770
  40d634:	add    esp,0xc
  40d637:	xor    eax,eax
  40d639:	push   eax
  40d63a:	push   eax
  40d63b:	push   0xff
  40d640:	push   0x412360
  40d645:	push   esi
  40d646:	push   DWORD PTR [ebp-0xc]
  40d649:	push   eax
  40d64a:	call   DWORD PTR ds:0x41307c
  40d650:	push   eax
  40d651:	call   DWORD PTR ds:0x4130a8
  40d657:	mov    DWORD PTR [ebp-0x4],eax
  40d65a:	test   eax,eax
  40d65c:	je     0x40d6a6
  40d65e:	add    DWORD PTR [ebp-0x8],esi
  40d661:	push   0x412360
  40d666:	push   0x401718
  40d66b:	push   ebx
  40d66c:	call   DWORD PTR ds:0x4131f8
  40d672:	push   ebx
  40d673:	call   DWORD PTR ds:0x4131fc
  40d679:	mov    eax,DWORD PTR [ebp-0x8]
  40d67c:	add    esp,0x10
  40d67f:	mov    esi,DWORD PTR [ebp-0x10]
  40d682:	cmp    esi,eax
  40d684:	jbe    0x40d559
  40d68a:	xor    ecx,ecx
  40d68c:	jmp    0x40d5c0
  40d691:	call   DWORD PTR ds:0x41302c
  40d697:	test   eax,eax
  40d699:	jne    0x40d6a6
  40d69b:	push   0x42b
  40d6a0:	call   DWORD PTR ds:0x413030
  40d6a6:	push   0x1
  40d6a8:	jmp    0x40d563
  40d6ad:	call   DWORD PTR ds:0x41302c
  40d6b3:	test   eax,eax
  40d6b5:	jne    0x40d6bf
  40d6b7:	push   0x57
  40d6b9:	call   DWORD PTR ds:0x413030
  40d6bf:	xor    eax,eax
  40d6c1:	pop    edi
  40d6c2:	pop    esi
  40d6c3:	pop    ebx
  40d6c4:	mov    esp,ebp
  40d6c6:	pop    ebp
  40d6c7:	ret    
  40d6c8:	int3   
  40d6c9:	int3   
  40d6ca:	int3   
  40d6cb:	int3   
  40d6cc:	int3   
  40d6cd:	mov    edi,edi
  40d6cf:	push   ebp
  40d6d0:	mov    ebp,esp
  40d6d2:	push   ecx
  40d6d3:	push   ecx
  40d6d4:	mov    edx,DWORD PTR [ebp+0x14]
  40d6d7:	push   ebx
  40d6d8:	push   esi
  40d6d9:	test   edx,edx
  40d6db:	je     0x40d7e1
  40d6e1:	cmp    DWORD PTR [ebp+0x8],0x0
  40d6e5:	je     0x40d7e1
  40d6eb:	cmp    DWORD PTR [ebp+0xc],0x0
  40d6ef:	jne    0x40d6fe
  40d6f1:	mov    ecx,DWORD PTR [ebp+0x8]
  40d6f4:	call   0x40d474
  40d6f9:	jmp    0x40d7f5
  40d6fe:	cmp    DWORD PTR [ebp+0x10],0x0
  40d702:	jne    0x40d795
  40d708:	or     ebx,0xffffffff
  40d70b:	xor    ecx,ecx
  40d70d:	lea    eax,[ebp+0x18]
  40d710:	mov    DWORD PTR [ebp-0x4],eax
  40d713:	xor    eax,eax
  40d715:	cmp    ebx,0xffffffff
  40d718:	push   0x1
  40d71a:	setne  al
  40d71d:	xor    edx,edx
  40d71f:	dec    eax
  40d720:	and    eax,0x800
  40d725:	add    eax,0x800
  40d72a:	add    ecx,eax
  40d72c:	push   ecx
  40d72d:	push   0x3
  40d72f:	mov    DWORD PTR [ebp-0x8],ecx
  40d732:	pop    ecx
  40d733:	call   0x40c39f
  40d738:	mov    esi,eax
  40d73a:	test   esi,esi
  40d73c:	je     0x40d787
  40d73e:	lea    eax,[ebp-0x4]
  40d741:	push   eax
  40d742:	mov    eax,DWORD PTR [ebp-0x8]
  40d745:	dec    eax
  40d746:	push   eax
  40d747:	push   esi
  40d748:	push   0x0
  40d74a:	push   0x0
  40d74c:	push   DWORD PTR [ebp+0x14]
  40d74f:	push   0x400
  40d754:	call   DWORD PTR ds:0x4130b4
  40d75a:	mov    ebx,eax
  40d75c:	test   ebx,ebx
  40d75e:	jne    0x40d775
  40d760:	call   DWORD PTR ds:0x41302c
  40d766:	test   eax,eax
  40d768:	je     0x40d782
  40d76a:	call   DWORD PTR ds:0x41302c
  40d770:	cmp    eax,0x7a
  40d773:	jne    0x40d7f3
  40d775:	and    DWORD PTR [ebp-0x4],0x0
  40d779:	test   ebx,ebx
  40d77b:	jne    0x40d7da
  40d77d:	mov    ecx,DWORD PTR [ebp-0x8]
  40d780:	jmp    0x40d70d
  40d782:	xor    eax,eax
  40d784:	inc    eax
  40d785:	jmp    0x40d7f5
  40d787:	call   DWORD PTR ds:0x41302c
  40d78d:	test   eax,eax
  40d78f:	jne    0x40d7f3
  40d791:	push   0x8
  40d793:	jmp    0x40d7ed
  40d795:	xor    ebx,ebx
  40d797:	push   0x1
  40d799:	add    ebx,0x800
  40d79f:	lea    eax,[ebp+0x18]
  40d7a2:	push   ebx
  40d7a3:	push   0x3
  40d7a5:	xor    edx,edx
  40d7a7:	mov    DWORD PTR [ebp-0x4],eax
  40d7aa:	pop    ecx
  40d7ab:	call   0x40c39f
  40d7b0:	mov    esi,eax
  40d7b2:	test   esi,esi
  40d7b4:	je     0x40d787
  40d7b6:	push   DWORD PTR [ebp-0x4]
  40d7b9:	mov    edx,ebx
  40d7bb:	mov    ecx,esi
  40d7bd:	push   DWORD PTR [ebp+0x14]
  40d7c0:	call   0x40dee5
  40d7c5:	and    DWORD PTR [ebp-0x4],0x0
  40d7c9:	cmp    eax,0x8007007a
  40d7ce:	je     0x40d797
  40d7d0:	test   eax,eax
  40d7d2:	jns    0x40d7da
  40d7d4:	movzx  eax,ax
  40d7d7:	push   eax
  40d7d8:	jmp    0x40d7ed
  40d7da:	mov    edx,esi
  40d7dc:	jmp    0x40d6f1
  40d7e1:	call   DWORD PTR ds:0x41302c
  40d7e7:	test   eax,eax
  40d7e9:	jne    0x40d7f3
  40d7eb:	push   0x57
  40d7ed:	call   DWORD PTR ds:0x413030
  40d7f3:	xor    eax,eax
  40d7f5:	pop    esi
  40d7f6:	pop    ebx
  40d7f7:	mov    esp,ebp
  40d7f9:	pop    ebp
  40d7fa:	ret    
  40d7fb:	int3   
  40d7fc:	int3   
  40d7fd:	int3   
  40d7fe:	int3   
  40d7ff:	int3   
  40d800:	mov    edi,edi
  40d802:	push   ebp
  40d803:	mov    ebp,esp
  40d805:	push   ecx
  40d806:	push   ebx
  40d807:	push   esi
  40d808:	push   edi
  40d809:	mov    edi,edx
  40d80b:	xor    esi,esi
  40d80d:	mov    edx,ecx
  40d80f:	mov    DWORD PTR [ebp-0x4],edx
  40d812:	test   edx,edx
  40d814:	je     0x40d8ce
  40d81a:	mov    ebx,DWORD PTR [ebp+0x8]
  40d81d:	test   ebx,ebx
  40d81f:	je     0x40d8ce
  40d825:	test   edi,edi
  40d827:	jne    0x40d831
  40d829:	cmp    DWORD PTR [ebx],esi
  40d82b:	jne    0x40d8ce
  40d831:	mov    ecx,DWORD PTR [ebx]
  40d833:	test   ecx,ecx
  40d835:	je     0x40d83f
  40d837:	cmp    ecx,0x1
  40d83a:	jbe    0x40d8b7
  40d83c:	lea    esi,[ecx-0x1]
  40d83f:	test   edi,edi
  40d841:	je     0x40d85d
  40d843:	test   esi,esi
  40d845:	je     0x40d85d
  40d847:	lea    eax,[esi*2+0x2]
  40d84e:	push   eax
  40d84f:	push   0x0
  40d851:	push   edi
  40d852:	call   0x411770
  40d857:	mov    edx,DWORD PTR [ebp-0x4]
  40d85a:	add    esp,0xc
  40d85d:	or     eax,0xffffffff
  40d860:	test   esi,esi
  40d862:	je     0x40d871
  40d864:	push   edx
  40d865:	call   DWORD PTR ds:0x413098
  40d86b:	cmp    eax,esi
  40d86d:	jle    0x40d871
  40d86f:	mov    eax,esi
  40d871:	push   esi
  40d872:	push   edi
  40d873:	push   eax
  40d874:	push   DWORD PTR [ebp-0x4]
  40d877:	push   0x0
  40d879:	push   0x1
  40d87b:	call   DWORD PTR ds:0x413078
  40d881:	test   eax,eax
  40d883:	jne    0x40d8ca
  40d885:	call   DWORD PTR ds:0x41302c
  40d88b:	test   eax,eax
  40d88d:	jne    0x40d89a
  40d88f:	push   0x42b
  40d894:	call   DWORD PTR ds:0x413030
  40d89a:	test   edi,edi
  40d89c:	je     0x40d8e0
  40d89e:	test   esi,esi
  40d8a0:	je     0x40d8e0
  40d8a2:	lea    eax,[esi*2+0x2]
  40d8a9:	push   eax
  40d8aa:	push   0x0
  40d8ac:	push   edi
  40d8ad:	call   0x411770
  40d8b2:	add    esp,0xc
  40d8b5:	jmp    0x40d8e0
  40d8b7:	add    ecx,ecx
  40d8b9:	push   ecx
  40d8ba:	push   0x0
  40d8bc:	push   edi
  40d8bd:	call   0x411770
  40d8c2:	add    esp,0xc
  40d8c5:	xor    eax,eax
  40d8c7:	inc    eax
  40d8c8:	jmp    0x40d8e2
  40d8ca:	mov    DWORD PTR [ebx],eax
  40d8cc:	jmp    0x40d8c5
  40d8ce:	call   DWORD PTR ds:0x41302c
  40d8d4:	test   eax,eax
  40d8d6:	jne    0x40d8e0
  40d8d8:	push   0x57
  40d8da:	call   DWORD PTR ds:0x413030
  40d8e0:	xor    eax,eax
  40d8e2:	pop    edi
  40d8e3:	pop    esi
  40d8e4:	pop    ebx
  40d8e5:	mov    esp,ebp
  40d8e7:	pop    ebp
  40d8e8:	ret    0x4
  40d8eb:	int3   
  40d8ec:	int3   
  40d8ed:	int3   
  40d8ee:	int3   
  40d8ef:	int3   
  40d8f0:	mov    edi,edi
  40d8f2:	push   ebp
  40d8f3:	mov    ebp,esp
  40d8f5:	sub    esp,0x40
  40d8f8:	mov    eax,ds:0x412004
  40d8fd:	xor    eax,ebp
  40d8ff:	mov    DWORD PTR [ebp-0x4],eax
  40d902:	xor    edx,edx
  40d904:	mov    DWORD PTR [ebp-0x3c],ecx
  40d907:	push   edi
  40d908:	xor    eax,eax
  40d90a:	mov    DWORD PTR [ebp-0x18],edx
  40d90d:	mov    WORD PTR [ebp-0x24],ax
  40d911:	lea    edi,[ebp-0x14]
  40d914:	stos   DWORD PTR es:[edi],eax
  40d915:	mov    DWORD PTR [ebp-0x40],edx
  40d918:	mov    DWORD PTR [ebp-0x34],edx
  40d91b:	mov    DWORD PTR [ebp-0x2c],edx
  40d91e:	stos   DWORD PTR es:[edi],eax
  40d91f:	mov    DWORD PTR [ebp-0x38],edx
  40d922:	mov    DWORD PTR [ebp-0x22],edx
  40d925:	mov    DWORD PTR [ebp-0x1e],edx
  40d928:	stos   DWORD PTR es:[edi],eax
  40d929:	stos   DWORD PTR es:[edi],eax
  40d92a:	test   ecx,ecx
  40d92c:	jne    0x40d947
  40d92e:	call   DWORD PTR ds:0x41302c
  40d934:	test   eax,eax
  40d936:	jne    0x40d940
  40d938:	push   0x57
  40d93a:	call   DWORD PTR ds:0x413030
  40d940:	xor    eax,eax
  40d942:	jmp    0x40db50
  40d947:	push   esi
  40d948:	push   0xfffffff6
  40d94a:	call   DWORD PTR ds:0x41309c
  40d950:	mov    esi,eax
  40d952:	test   esi,esi
  40d954:	je     0x40db4f
  40d95a:	push   ebx
  40d95b:	lea    edx,[ebp-0x38]
  40d95e:	mov    ecx,esi
  40d960:	call   0x40d22c
  40d965:	mov    ebx,eax
  40d967:	neg    ebx
  40d969:	sbb    ebx,ebx
  40d96b:	add    ebx,0x1
  40d96e:	jne    0x40d981
  40d970:	push   0x1
  40d972:	push   esi
  40d973:	call   DWORD PTR ds:0x413074
  40d979:	test   eax,eax
  40d97b:	je     0x40db4c
  40d981:	xor    eax,eax
  40d983:	lea    edi,[ebp-0x24]
  40d986:	stos   DWORD PTR es:[edi],eax
  40d987:	stos   DWORD PTR es:[edi],eax
  40d988:	stos   WORD PTR es:[edi],ax
  40d98a:	xor    eax,eax
  40d98c:	lea    edi,[ebp-0x18]
  40d98f:	stos   DWORD PTR es:[edi],eax
  40d990:	stos   DWORD PTR es:[edi],eax
  40d991:	stos   DWORD PTR es:[edi],eax
  40d992:	stos   DWORD PTR es:[edi],eax
  40d993:	stos   DWORD PTR es:[edi],eax
  40d994:	mov    edi,DWORD PTR [ebp-0x40]
  40d997:	lea    eax,[ebp-0x34]
  40d99a:	push   0x0
  40d99c:	push   eax
  40d99d:	push   0x1
  40d99f:	cmp    ebx,0x1
  40d9a2:	jne    0x40d9e6
  40d9a4:	lea    eax,[ebp-0x25]
  40d9a7:	push   eax
  40d9a8:	push   esi
  40d9a9:	call   DWORD PTR ds:0x413070
  40d9af:	test   eax,eax
  40d9b1:	je     0x40db4c
  40d9b7:	cmp    DWORD PTR [ebp-0x34],0x0
  40d9bb:	je     0x40dafe
  40d9c1:	mov    al,BYTE PTR [ebp-0x25]
  40d9c4:	lea    edx,[ebp-0x18]
  40d9c7:	push   0xa
  40d9c9:	mov    BYTE PTR [ebp-0x24],al
  40d9cc:	lea    ecx,[ebp-0x24]
  40d9cf:	pop    eax
  40d9d0:	mov    DWORD PTR [ebp-0x34],eax
  40d9d3:	lea    eax,[ebp-0x34]
  40d9d6:	push   eax
  40d9d7:	call   0x40d800
  40d9dc:	mov    ax,WORD PTR [ebp-0x18]
  40d9e0:	mov    WORD PTR [ebp-0x30],ax
  40d9e4:	jmp    0x40d9fd
  40d9e6:	lea    eax,[ebp-0x30]
  40d9e9:	push   eax
  40d9ea:	push   esi
  40d9eb:	call   DWORD PTR ds:0x41306c
  40d9f1:	test   eax,eax
  40d9f3:	je     0x40db42
  40d9f9:	mov    ax,WORD PTR [ebp-0x30]
  40d9fd:	cmp    ax,0xd
  40da01:	je     0x40dafe
  40da07:	push   0x8
  40da09:	pop    ecx
  40da0a:	cmp    ax,cx
  40da0d:	jne    0x40dab2
  40da13:	test   edi,edi
  40da15:	je     0x40d997
  40da17:	push   ecx
  40da18:	push   0x40171c
  40da1d:	push   0xa
  40da1f:	pop    eax
  40da20:	push   eax
  40da21:	lea    eax,[ebp-0x18]
  40da24:	push   eax
  40da25:	call   0x401b75
  40da2a:	add    esp,0x10
  40da2d:	lea    eax,[ebp-0x2c]
  40da30:	push   0x0
  40da32:	push   eax
  40da33:	push   0x1
  40da35:	lea    eax,[ebp-0x18]
  40da38:	push   eax
  40da39:	push   0xfffffff5
  40da3b:	call   DWORD PTR ds:0x41309c
  40da41:	push   eax
  40da42:	call   DWORD PTR ds:0x413084
  40da48:	push   0x0
  40da4a:	push   0x40171c
  40da4f:	push   0xa
  40da51:	pop    eax
  40da52:	push   eax
  40da53:	lea    eax,[ebp-0x18]
  40da56:	push   eax
  40da57:	call   0x401b75
  40da5c:	add    esp,0x10
  40da5f:	lea    eax,[ebp-0x2c]
  40da62:	push   0x0
  40da64:	push   eax
  40da65:	push   0x1
  40da67:	lea    eax,[ebp-0x18]
  40da6a:	push   eax
  40da6b:	push   0xfffffff5
  40da6d:	call   DWORD PTR ds:0x41309c
  40da73:	push   eax
  40da74:	call   DWORD PTR ds:0x413084
  40da7a:	push   0x8
  40da7c:	push   0x40171c
  40da81:	push   0xa
  40da83:	pop    eax
  40da84:	push   eax
  40da85:	lea    eax,[ebp-0x18]
  40da88:	push   eax
  40da89:	call   0x401b75
  40da8e:	add    esp,0x10
  40da91:	lea    eax,[ebp-0x2c]
  40da94:	push   0x0
  40da96:	push   eax
  40da97:	push   0x1
  40da99:	lea    eax,[ebp-0x18]
  40da9c:	push   eax
  40da9d:	push   0xfffffff5
  40da9f:	call   DWORD PTR ds:0x41309c
  40daa5:	push   eax
  40daa6:	call   DWORD PTR ds:0x413084
  40daac:	dec    edi
  40daad:	jmp    0x40d997
  40dab2:	cmp    edi,0xfd
  40dab8:	jne    0x40dac9
  40daba:	push   0x0
  40dabc:	lea    eax,[ebp-0x2c]
  40dabf:	push   eax
  40dac0:	push   0x1
  40dac2:	push   0x401724
  40dac7:	jmp    0x40daea
  40dac9:	push   0xa
  40dacb:	pop    ecx
  40dacc:	cmp    ax,cx
  40dacf:	je     0x40d997
  40dad5:	mov    ecx,DWORD PTR [ebp-0x3c]
  40dad8:	push   0x0
  40dada:	mov    WORD PTR [ecx+edi*2],ax
  40dade:	lea    eax,[ebp-0x2c]
  40dae1:	push   eax
  40dae2:	push   0x1
  40dae4:	inc    edi
  40dae5:	push   0x401134
  40daea:	push   0xfffffff5
  40daec:	call   DWORD PTR ds:0x41309c
  40daf2:	push   eax
  40daf3:	call   DWORD PTR ds:0x413084
  40daf9:	jmp    0x40d997
  40dafe:	mov    eax,DWORD PTR [ebp-0x3c]
  40db01:	xor    ecx,ecx
  40db03:	push   DWORD PTR [ebp-0x38]
  40db06:	push   esi
  40db07:	mov    WORD PTR [eax+edi*2],cx
  40db0b:	call   DWORD PTR ds:0x413074
  40db11:	push   0xa
  40db13:	pop    eax
  40db14:	push   eax
  40db15:	mov    edx,0x401728
  40db1a:	lea    ecx,[ebp-0x18]
  40db1d:	call   0x40d369
  40db22:	push   0x0
  40db24:	lea    ecx,[ebp-0x2c]
  40db27:	push   ecx
  40db28:	push   0x2
  40db2a:	lea    ecx,[ebp-0x18]
  40db2d:	push   ecx
  40db2e:	push   0xfffffff5
  40db30:	call   DWORD PTR ds:0x41309c
  40db36:	push   eax
  40db37:	call   DWORD PTR ds:0x413084
  40db3d:	xor    eax,eax
  40db3f:	inc    eax
  40db40:	jmp    0x40db4e
  40db42:	push   DWORD PTR [ebp-0x38]
  40db45:	push   esi
  40db46:	call   DWORD PTR ds:0x413074
  40db4c:	xor    eax,eax
  40db4e:	pop    ebx
  40db4f:	pop    esi
  40db50:	mov    ecx,DWORD PTR [ebp-0x4]
  40db53:	xor    ecx,ebp
  40db55:	pop    edi
  40db56:	call   0x411090
  40db5b:	mov    esp,ebp
  40db5d:	pop    ebp
  40db5e:	ret    
  40db5f:	int3   
  40db60:	int3   
  40db61:	int3   
  40db62:	int3   
  40db63:	int3   
  40db64:	mov    edi,edi
  40db66:	push   esi
  40db67:	mov    esi,ecx
  40db69:	test   esi,esi
  40db6b:	jne    0x40db83
  40db6d:	call   DWORD PTR ds:0x41302c
  40db73:	test   eax,eax
  40db75:	jne    0x40db7f
  40db77:	push   0x57
  40db79:	call   DWORD PTR ds:0x413030
  40db7f:	xor    eax,eax
  40db81:	pop    esi
  40db82:	ret    
  40db83:	push   ebx
  40db84:	xor    ebx,ebx
  40db86:	cmp    DWORD PTR [esi],ebx
  40db88:	jne    0x40db8f
  40db8a:	xor    eax,eax
  40db8c:	inc    eax
  40db8d:	jmp    0x40dbd0
  40db8f:	push   edi
  40db90:	call   DWORD PTR ds:0x413068
  40db96:	mov    edi,eax
  40db98:	test   edi,edi
  40db9a:	je     0x40dbb3
  40db9c:	mov    ecx,DWORD PTR [esi]
  40db9e:	call   0x40dd9e
  40dba3:	cmp    eax,0xffffffff
  40dba6:	jne    0x40dbb7
  40dba8:	push   0x80004003
  40dbad:	call   DWORD PTR ds:0x413030
  40dbb3:	xor    eax,eax
  40dbb5:	jmp    0x40dbcf
  40dbb7:	push   eax
  40dbb8:	push   ebx
  40dbb9:	push   DWORD PTR [esi]
  40dbbb:	call   0x411770
  40dbc0:	add    esp,0xc
  40dbc3:	push   DWORD PTR [esi]
  40dbc5:	push   ebx
  40dbc6:	push   edi
  40dbc7:	call   DWORD PTR ds:0x413064
  40dbcd:	mov    DWORD PTR [esi],ebx
  40dbcf:	pop    edi
  40dbd0:	pop    ebx
  40dbd1:	pop    esi
  40dbd2:	ret    
  40dbd3:	int3   
  40dbd4:	int3   
  40dbd5:	int3   
  40dbd6:	int3   
  40dbd7:	int3   
  40dbd8:	mov    edi,edi
  40dbda:	push   esi
  40dbdb:	mov    esi,ecx
  40dbdd:	test   esi,esi
  40dbdf:	jne    0x40dbef
  40dbe1:	call   DWORD PTR ds:0x41302c
  40dbe7:	test   eax,eax
  40dbe9:	jne    0x40dc0f
  40dbeb:	push   0x57
  40dbed:	jmp    0x40dc09
  40dbef:	call   DWORD PTR ds:0x413068
  40dbf5:	test   eax,eax
  40dbf7:	je     0x40dc0f
  40dbf9:	push   esi
  40dbfa:	push   0x0
  40dbfc:	push   eax
  40dbfd:	call   DWORD PTR ds:0x413060
  40dc03:	test   eax,eax
  40dc05:	jne    0x40dc11
  40dc07:	push   0x6
  40dc09:	call   DWORD PTR ds:0x413030
  40dc0f:	xor    eax,eax
  40dc11:	pop    esi
  40dc12:	ret    
  40dc13:	int3   
  40dc14:	int3   
  40dc15:	int3   
  40dc16:	int3   
  40dc17:	int3   
  40dc18:	push   0x10
  40dc1a:	push   0x411780
  40dc1f:	call   0x4116a8
  40dc24:	mov    esi,ecx
  40dc26:	test   esi,esi
  40dc28:	jne    0x40dc3e
  40dc2a:	call   DWORD PTR ds:0x41302c
  40dc30:	test   eax,eax
  40dc32:	jne    0x40dcb0
  40dc34:	push   0x57
  40dc36:	call   DWORD PTR ds:0x413030
  40dc3c:	jmp    0x40dcb0
  40dc3e:	call   DWORD PTR ds:0x413068
  40dc44:	test   eax,eax
  40dc46:	je     0x40dcb0
  40dc48:	and    DWORD PTR [ebp-0x4],0x0
  40dc4c:	push   esi
  40dc4d:	push   0xc
  40dc4f:	push   eax
  40dc50:	call   DWORD PTR ds:0x41305c
  40dc56:	mov    DWORD PTR [ebp-0x20],eax
  40dc59:	mov    DWORD PTR [ebp-0x4],0xfffffffe
  40dc60:	jmp    0x40dcb2
  40dc62:	mov    eax,DWORD PTR [ebp-0x14]
  40dc65:	mov    eax,DWORD PTR [eax]
  40dc67:	mov    eax,DWORD PTR [eax]
  40dc69:	mov    DWORD PTR [ebp-0x1c],eax
  40dc6c:	xor    eax,eax
  40dc6e:	inc    eax
  40dc6f:	ret    
  40dc70:	mov    esp,DWORD PTR [ebp-0x18]
  40dc73:	cmp    DWORD PTR [ebp-0x1c],0xc0000017
  40dc7a:	je     0x40dc97
  40dc7c:	cmp    DWORD PTR [ebp-0x1c],0xc0000005
  40dc83:	jne    0x40dc97
  40dc85:	push   0x570
  40dc8a:	call   DWORD PTR ds:0x413030
  40dc90:	call   0x40c619
  40dc95:	jmp    0x40dca9
  40dc97:	call   DWORD PTR ds:0x41302c
  40dc9d:	test   eax,eax
  40dc9f:	jne    0x40dca9
  40dca1:	push   0x8
  40dca3:	call   DWORD PTR ds:0x413030
  40dca9:	mov    DWORD PTR [ebp-0x4],0xfffffffe
  40dcb0:	xor    eax,eax
  40dcb2:	call   0x4116ed
  40dcb7:	ret    
  40dcb8:	int3   
  40dcb9:	int3   
  40dcba:	int3   
  40dcbb:	int3   
  40dcbc:	int3   
  40dcbd:	push   0xc
  40dcbf:	push   0x4117a0
  40dcc4:	call   0x4116a8
  40dcc9:	mov    edi,edx
  40dccb:	mov    esi,ecx
  40dccd:	test   esi,esi
  40dccf:	je     0x40dd7f
  40dcd5:	mov    ecx,DWORD PTR [esi]
  40dcd7:	test   ecx,ecx
  40dcd9:	je     0x40dd7f
  40dcdf:	test   edi,edi
  40dce1:	jne    0x40dcef
  40dce3:	mov    ecx,esi
  40dce5:	call   0x40db64
  40dcea:	jmp    0x40dd93
  40dcef:	call   0x40dbd8
  40dcf4:	test   eax,eax
  40dcf6:	jne    0x40dcff
  40dcf8:	and    DWORD PTR [esi],eax
  40dcfa:	jmp    0x40dd91
  40dcff:	call   DWORD PTR ds:0x413068
  40dd05:	test   eax,eax
  40dd07:	je     0x40dd91
  40dd0d:	and    DWORD PTR [ebp-0x4],0x0
  40dd11:	push   edi
  40dd12:	push   DWORD PTR [esi]
  40dd14:	push   0xc
  40dd16:	push   eax
  40dd17:	call   DWORD PTR ds:0x413058
  40dd1d:	test   eax,eax
  40dd1f:	jne    0x40dd3c
  40dd21:	call   DWORD PTR ds:0x41302c
  40dd27:	test   eax,eax
  40dd29:	jne    0x40dd33
  40dd2b:	push   0x8
  40dd2d:	call   DWORD PTR ds:0x413030
  40dd33:	mov    DWORD PTR [ebp-0x4],0xfffffffe
  40dd3a:	jmp    0x40dd91
  40dd3c:	mov    DWORD PTR [esi],eax
  40dd3e:	mov    DWORD PTR [ebp-0x4],0xfffffffe
  40dd45:	xor    eax,eax
  40dd47:	inc    eax
  40dd48:	jmp    0x40dd93
  40dd4a:	mov    eax,DWORD PTR [ebp-0x14]
  40dd4d:	mov    eax,DWORD PTR [eax]
  40dd4f:	mov    eax,DWORD PTR [eax]
  40dd51:	mov    DWORD PTR [ebp-0x1c],eax
  40dd54:	xor    eax,eax
  40dd56:	inc    eax
  40dd57:	ret    
  40dd58:	mov    esp,DWORD PTR [ebp-0x18]
  40dd5b:	cmp    DWORD PTR [ebp-0x1c],0xc0000017
  40dd62:	je     0x40dd21
  40dd64:	cmp    DWORD PTR [ebp-0x1c],0xc0000005
  40dd6b:	jne    0x40dd21
  40dd6d:	push   0x570
  40dd72:	call   DWORD PTR ds:0x413030
  40dd78:	call   0x40c619
  40dd7d:	jmp    0x40dd33
  40dd7f:	call   DWORD PTR ds:0x41302c
  40dd85:	test   eax,eax
  40dd87:	jne    0x40dd91
  40dd89:	push   0x57
  40dd8b:	call   DWORD PTR ds:0x413030
  40dd91:	xor    eax,eax
  40dd93:	call   0x4116ed
  40dd98:	ret    
  40dd99:	int3   
  40dd9a:	int3   
  40dd9b:	int3   
  40dd9c:	int3   
  40dd9d:	int3   
  40dd9e:	mov    edi,edi
  40dda0:	push   esi
  40dda1:	mov    esi,ecx
  40dda3:	test   esi,esi
  40dda5:	jne    0x40ddbe
  40dda7:	call   DWORD PTR ds:0x41302c
  40ddad:	test   eax,eax
  40ddaf:	jne    0x40ddb9
  40ddb1:	push   0x57
  40ddb3:	call   DWORD PTR ds:0x413030
  40ddb9:	or     eax,0xffffffff
  40ddbc:	pop    esi
  40ddbd:	ret    
  40ddbe:	call   0x40dbd8
  40ddc3:	test   eax,eax
  40ddc5:	je     0x40ddb9
  40ddc7:	call   DWORD PTR ds:0x413068
  40ddcd:	test   eax,eax
  40ddcf:	je     0x40ddb9
  40ddd1:	push   esi
  40ddd2:	push   0x0
  40ddd4:	push   eax
  40ddd5:	call   DWORD PTR ds:0x413054
  40dddb:	pop    esi
  40dddc:	ret    
  40dddd:	int3   
  40ddde:	int3   
  40dddf:	int3   
  40dde0:	int3   
  40dde1:	int3   
  40dde2:	mov    edi,edi
  40dde4:	push   ebp
  40dde5:	mov    ebp,esp
  40dde7:	push   ebx
  40dde8:	xor    eax,eax
  40ddea:	mov    ebx,ecx
  40ddec:	push   esi
  40dded:	mov    esi,eax
  40ddef:	test   edx,edx
  40ddf1:	je     0x40ddfb
  40ddf3:	cmp    edx,0x7fffffff
  40ddf9:	jbe    0x40de00
  40ddfb:	mov    esi,0x80070057
  40de00:	test   esi,esi
  40de02:	js     0x40de41
  40de04:	mov    ecx,edx
  40de06:	mov    esi,eax
  40de08:	push   edi
  40de09:	mov    edi,ebx
  40de0b:	test   edx,edx
  40de0d:	je     0x40de26
  40de0f:	cmp    WORD PTR [edi],ax
  40de12:	je     0x40de1c
  40de14:	add    edi,0x2
  40de17:	sub    ecx,0x1
  40de1a:	jne    0x40de0f
  40de1c:	test   ecx,ecx
  40de1e:	je     0x40de26
  40de20:	mov    eax,edx
  40de22:	sub    eax,ecx
  40de24:	jmp    0x40de2b
  40de26:	mov    esi,0x80070057
  40de2b:	pop    edi
  40de2c:	test   esi,esi
  40de2e:	js     0x40de41
  40de30:	push   ecx
  40de31:	push   DWORD PTR [ebp+0x8]
  40de34:	sub    edx,eax
  40de36:	push   ecx
  40de37:	lea    ecx,[ebx+eax*2]
  40de3a:	call   0x40de4e
  40de3f:	mov    esi,eax
  40de41:	mov    eax,esi
  40de43:	pop    esi
  40de44:	pop    ebx
  40de45:	pop    ebp
  40de46:	ret    0x4
  40de49:	int3   
  40de4a:	int3   
  40de4b:	int3   
  40de4c:	int3   
  40de4d:	int3   
  40de4e:	mov    edi,edi
  40de50:	push   ebp
  40de51:	mov    ebp,esp
  40de53:	push   edi
  40de54:	xor    edi,edi
  40de56:	test   edx,edx
  40de58:	je     0x40de85
  40de5a:	mov    eax,DWORD PTR [ebp+0xc]
  40de5d:	push   ebx
  40de5e:	push   esi
  40de5f:	mov    esi,0x7ffffffe
  40de64:	sub    eax,ecx
  40de66:	test   esi,esi
  40de68:	je     0x40de7f
  40de6a:	movzx  ebx,WORD PTR [eax+ecx*1]
  40de6e:	test   bx,bx
  40de71:	je     0x40de7f
  40de73:	mov    WORD PTR [ecx],bx
  40de76:	add    ecx,0x2
  40de79:	dec    esi
  40de7a:	sub    edx,0x1
  40de7d:	jne    0x40de66
  40de7f:	pop    esi
  40de80:	pop    ebx
  40de81:	test   edx,edx
  40de83:	jne    0x40de8d
  40de85:	sub    ecx,0x2
  40de88:	mov    edi,0x8007007a
  40de8d:	xor    eax,eax
  40de8f:	mov    WORD PTR [ecx],ax
  40de92:	mov    eax,edi
  40de94:	pop    edi
  40de95:	pop    ebp
  40de96:	ret    0xc
  40de99:	int3   
  40de9a:	int3   
  40de9b:	int3   
  40de9c:	int3   
  40de9d:	int3   
  40de9e:	mov    edi,edi
  40dea0:	push   ebp
  40dea1:	mov    ebp,esp
  40dea3:	push   edi
  40dea4:	xor    edi,edi
  40dea6:	test   edx,edx
  40dea8:	je     0x40ded0
  40deaa:	mov    eax,DWORD PTR [ebp+0xc]
  40dead:	push   ebx
  40deae:	push   esi
  40deaf:	mov    esi,0x7ffffffe
  40deb4:	sub    eax,ecx
  40deb6:	test   esi,esi
  40deb8:	je     0x40deca
  40deba:	mov    bl,BYTE PTR [eax+ecx*1]
  40debd:	test   bl,bl
  40debf:	je     0x40deca
  40dec1:	mov    BYTE PTR [ecx],bl
  40dec3:	inc    ecx
  40dec4:	dec    esi
  40dec5:	sub    edx,0x1
  40dec8:	jne    0x40deb6
  40deca:	pop    esi
  40decb:	pop    ebx
  40decc:	test   edx,edx
  40dece:	jne    0x40ded6
  40ded0:	dec    ecx
  40ded1:	mov    edi,0x8007007a
  40ded6:	mov    eax,edi
  40ded8:	mov    BYTE PTR [ecx],0x0
  40dedb:	pop    edi
  40dedc:	pop    ebp
  40dedd:	ret    0xc
  40dee0:	int3   
  40dee1:	int3   
  40dee2:	int3   
  40dee3:	int3   
  40dee4:	int3   
  40dee5:	mov    edi,edi
  40dee7:	push   ebp
  40dee8:	mov    ebp,esp
  40deea:	push   ebx
  40deeb:	push   esi
  40deec:	xor    esi,esi
  40deee:	mov    ebx,ecx
  40def0:	test   edx,edx
  40def2:	je     0x40defc
  40def4:	cmp    edx,0x7fffffff
  40defa:	jbe    0x40df01
  40defc:	mov    esi,0x80070057
  40df01:	test   esi,esi
  40df03:	js     0x40df36
  40df05:	push   edi
  40df06:	push   DWORD PTR [ebp+0xc]
  40df09:	lea    edi,[edx-0x1]
  40df0c:	xor    esi,esi
  40df0e:	push   DWORD PTR [ebp+0x8]
  40df11:	push   edi
  40df12:	push   ebx
  40df13:	call   DWORD PTR ds:0x4131bc
  40df19:	add    esp,0x10
  40df1c:	test   eax,eax
  40df1e:	js     0x40df28
  40df20:	cmp    eax,edi
  40df22:	ja     0x40df28
  40df24:	jne    0x40df33
  40df26:	jmp    0x40df2d
  40df28:	mov    esi,0x8007007a
  40df2d:	xor    eax,eax
  40df2f:	mov    WORD PTR [ebx+edi*2],ax
  40df33:	pop    edi
  40df34:	jmp    0x40df3f
  40df36:	test   edx,edx
  40df38:	je     0x40df3f
  40df3a:	xor    eax,eax
  40df3c:	mov    WORD PTR [ebx],ax
  40df3f:	mov    eax,esi
  40df41:	pop    esi
  40df42:	pop    ebx
  40df43:	pop    ebp
  40df44:	ret    0x8
  40df47:	int3   
  40df48:	int3   
  40df49:	int3   
  40df4a:	int3   
  40df4b:	int3   
  40df4c:	mov    edi,edi
  40df4e:	push   ebp
  40df4f:	mov    ebp,esp
  40df51:	call   0x40e1cd
  40df56:	test   eax,eax
  40df58:	jne    0x40df5e
  40df5a:	xor    eax,eax
  40df5c:	jmp    0x40df82
  40df5e:	cmp    DWORD PTR [ecx+0x4],edx
  40df61:	jbe    0x40df5a
  40df63:	mov    eax,DWORD PTR [ecx+0x8]
  40df66:	push   esi
  40df67:	xor    esi,esi
  40df69:	cmp    edx,0x1
  40df6c:	jb     0x40df78
  40df6e:	mov    esi,eax
  40df70:	mov    eax,DWORD PTR [eax+0x10]
  40df73:	sub    edx,0x1
  40df76:	jne    0x40df6e
  40df78:	mov    ecx,DWORD PTR [ebp+0x8]
  40df7b:	test   ecx,ecx
  40df7d:	je     0x40df81
  40df7f:	mov    DWORD PTR [ecx],esi
  40df81:	pop    esi
  40df82:	pop    ebp
  40df83:	ret    0x4
  40df86:	int3   
  40df87:	int3   
  40df88:	int3   
  40df89:	int3   
  40df8a:	int3   
  40df8b:	mov    edi,edi
  40df8d:	push   ebp
  40df8e:	mov    ebp,esp
  40df90:	push   esi
  40df91:	push   edi
  40df92:	mov    edi,edx
  40df94:	mov    esi,ecx
  40df96:	call   0x40e1cd
  40df9b:	test   eax,eax
  40df9d:	jne    0x40dfa4
  40df9f:	or     eax,0xffffffff
  40dfa2:	jmp    0x40dfec
  40dfa4:	cmp    DWORD PTR [esi+0x4],0xffffffff
  40dfa8:	je     0x40df9f
  40dfaa:	push   0x14
  40dfac:	pop    ecx
  40dfad:	call   0x40dc18
  40dfb2:	mov    ecx,eax
  40dfb4:	test   ecx,ecx
  40dfb6:	je     0x40df9f
  40dfb8:	mov    eax,DWORD PTR [ebp+0x8]
  40dfbb:	and    DWORD PTR [ecx+0x10],0x0
  40dfbf:	mov    DWORD PTR [ecx+0x8],eax
  40dfc2:	mov    eax,DWORD PTR [ebp+0xc]
  40dfc5:	mov    DWORD PTR [ecx+0x4],edi
  40dfc8:	mov    DWORD PTR [ecx+0xc],eax
  40dfcb:	mov    DWORD PTR [ecx],0x63
  40dfd1:	inc    DWORD PTR [esi+0x4]
  40dfd4:	cmp    DWORD PTR [esi+0x8],0x0
  40dfd8:	jne    0x40dfdf
  40dfda:	mov    DWORD PTR [esi+0x8],ecx
  40dfdd:	jmp    0x40dfe5
  40dfdf:	mov    eax,DWORD PTR [esi+0xc]
  40dfe2:	mov    DWORD PTR [eax+0x10],ecx
  40dfe5:	mov    eax,DWORD PTR [esi+0x4]
  40dfe8:	mov    DWORD PTR [esi+0xc],ecx
  40dfeb:	dec    eax
  40dfec:	pop    edi
  40dfed:	pop    esi
  40dfee:	pop    ebp
  40dfef:	ret    0x8
  40dff2:	int3   
  40dff3:	int3   
  40dff4:	int3   
  40dff5:	int3   
  40dff6:	int3   
  40dff7:	mov    edi,edi
  40dff9:	push   ebp
  40dffa:	mov    ebp,esp
  40dffc:	push   esi
  40dffd:	push   edi
  40dffe:	mov    edi,edx
  40e000:	mov    esi,ecx
  40e002:	call   0x40e1cd
  40e007:	test   eax,eax
  40e009:	jne    0x40e010
  40e00b:	or     eax,0xffffffff
  40e00e:	jmp    0x40e08a
  40e010:	cmp    DWORD PTR [esi+0x4],0xffffffff
  40e014:	je     0x40e00b
  40e016:	cmp    DWORD PTR [esi+0x4],edi
  40e019:	ja     0x40e02d
  40e01b:	push   DWORD PTR [ebp+0x10]
  40e01e:	mov    edx,0x20000
  40e023:	push   DWORD PTR [ebp+0xc]
  40e026:	call   0x40df8b
  40e02b:	jmp    0x40e08a
  40e02d:	push   0x14
  40e02f:	pop    ecx
  40e030:	call   0x40dc18
  40e035:	mov    ecx,eax
  40e037:	test   ecx,ecx
  40e039:	je     0x40e00b
  40e03b:	mov    eax,DWORD PTR [ebp+0xc]
  40e03e:	and    DWORD PTR [ecx+0x10],0x0
  40e042:	mov    DWORD PTR [ecx+0x8],eax
  40e045:	mov    eax,DWORD PTR [ebp+0x10]
  40e048:	mov    DWORD PTR [ecx+0x4],0x20000
  40e04f:	mov    DWORD PTR [ecx+0xc],eax
  40e052:	mov    DWORD PTR [ecx],0x63
  40e058:	inc    DWORD PTR [esi+0x4]
  40e05b:	test   edi,edi
  40e05d:	jne    0x40e06d
  40e05f:	mov    eax,DWORD PTR [esi+0x8]
  40e062:	mov    DWORD PTR [ecx+0x10],eax
  40e065:	xor    eax,eax
  40e067:	mov    DWORD PTR [esi+0x8],ecx
  40e06a:	inc    eax
  40e06b:	jmp    0x40e08a
  40e06d:	mov    edx,DWORD PTR [esi+0x8]
  40e070:	lea    eax,[edi-0x1]
  40e073:	test   eax,eax
  40e075:	je     0x40e07f
  40e077:	mov    edx,DWORD PTR [edx+0x10]
  40e07a:	sub    eax,0x1
  40e07d:	jne    0x40e077
  40e07f:	mov    eax,DWORD PTR [edx+0x10]
  40e082:	mov    DWORD PTR [ecx+0x10],eax
  40e085:	mov    eax,edi
  40e087:	mov    DWORD PTR [edx+0x10],ecx
  40e08a:	pop    edi
  40e08b:	pop    esi
  40e08c:	pop    ebp
  40e08d:	ret    0xc
  40e090:	int3   
  40e091:	int3   
  40e092:	int3   
  40e093:	int3   
  40e094:	int3   
  40e095:	test   ecx,ecx
  40e097:	je     0x40e0fe
  40e099:	mov    eax,DWORD PTR [ecx+0x4]
  40e09c:	mov    edx,0x70000
  40e0a1:	cmp    eax,edx
  40e0a3:	ja     0x40e0cb
  40e0a5:	je     0x40e0e7
  40e0a7:	cmp    eax,0x20000
  40e0ac:	je     0x40e0e7
  40e0ae:	cmp    eax,0x30000
  40e0b3:	je     0x40e0e7
  40e0b5:	cmp    eax,0x40000
  40e0ba:	je     0x40e0e7
  40e0bc:	cmp    eax,0x50000
  40e0c1:	je     0x40e0e7
  40e0c3:	cmp    eax,0x60000
  40e0c8:	je     0x40e0e7
  40e0ca:	ret    
  40e0cb:	cmp    eax,0x80000
  40e0d0:	je     0x40e0ef
  40e0d2:	cmp    eax,0x90000
  40e0d7:	je     0x40e0e7
  40e0d9:	cmp    eax,0xa0000
  40e0de:	je     0x40e0e7
  40e0e0:	cmp    eax,0xb0000
  40e0e5:	jne    0x40e0fe
  40e0e7:	add    ecx,0xc
  40e0ea:	jmp    0x40db64
  40e0ef:	push   esi
  40e0f0:	lea    esi,[ecx+0xc]
  40e0f3:	mov    ecx,esi
  40e0f5:	call   0x40e254
  40e0fa:	and    DWORD PTR [esi],0x0
  40e0fd:	pop    esi
  40e0fe:	ret    
  40e0ff:	int3   
  40e100:	int3   
  40e101:	int3   
  40e102:	int3   
  40e103:	int3   
  40e104:	mov    edi,edi
  40e106:	push   ebp
  40e107:	mov    ebp,esp
  40e109:	push   ecx
  40e10a:	push   ebx
  40e10b:	mov    ebx,edx
  40e10d:	mov    DWORD PTR [ebp-0x4],ecx
  40e110:	call   0x40e1cd
  40e115:	test   eax,eax
  40e117:	jne    0x40e121
  40e119:	or     eax,0xffffffff
  40e11c:	jmp    0x40e1c1
  40e121:	push   esi
  40e122:	xor    esi,esi
  40e124:	push   edi
  40e125:	mov    edi,DWORD PTR [ecx+0x8]
  40e128:	cmp    DWORD PTR [ecx+0x4],esi
  40e12b:	jbe    0x40e1bc
  40e131:	mov    edx,DWORD PTR [ebp+0x8]
  40e134:	cmp    DWORD PTR [edi+0x4],ebx
  40e137:	jne    0x40e1af
  40e139:	cmp    ebx,0x70000
  40e13f:	je     0x40e199
  40e141:	cmp    ebx,0x20000
  40e147:	je     0x40e180
  40e149:	cmp    ebx,0x30000
  40e14f:	je     0x40e175
  40e151:	cmp    ebx,0x40000
  40e157:	je     0x40e175
  40e159:	cmp    ebx,0x60000
  40e15f:	jne    0x40e1af
  40e161:	mov    eax,DWORD PTR [edi+0xc]
  40e164:	fld    DWORD PTR [eax]
  40e166:	fld    DWORD PTR [edx]
  40e168:	fucompp 
  40e16a:	fnstsw ax
  40e16c:	test   ah,0x44
  40e16f:	jp     0x40e1af
  40e171:	mov    eax,esi
  40e173:	jmp    0x40e1bf
  40e175:	mov    eax,DWORD PTR [edi+0xc]
  40e178:	mov    eax,DWORD PTR [eax]
  40e17a:	cmp    eax,DWORD PTR [edx]
  40e17c:	je     0x40e171
  40e17e:	jmp    0x40e1af
  40e180:	mov    edx,DWORD PTR [ebp+0x8]
  40e183:	mov    ecx,DWORD PTR [edi+0xc]
  40e186:	push   0x0
  40e188:	push   DWORD PTR [ebp+0xc]
  40e18b:	call   0x40d41c
  40e190:	test   eax,eax
  40e192:	je     0x40e171
  40e194:	mov    ecx,DWORD PTR [ebp-0x4]
  40e197:	jmp    0x40e1ac
  40e199:	mov    eax,DWORD PTR [edi+0xc]
  40e19c:	fld    QWORD PTR [eax]
  40e19e:	mov    eax,DWORD PTR [ebp+0x8]
  40e1a1:	fld    QWORD PTR [eax]
  40e1a3:	fucompp 
  40e1a5:	fnstsw ax
  40e1a7:	test   ah,0x44
  40e1aa:	jnp    0x40e171
  40e1ac:	mov    edx,DWORD PTR [ebp+0x8]
  40e1af:	mov    edi,DWORD PTR [edi+0x10]
  40e1b2:	inc    esi
  40e1b3:	cmp    esi,DWORD PTR [ecx+0x4]
  40e1b6:	jb     0x40e134
  40e1bc:	or     eax,0xffffffff
  40e1bf:	pop    edi
  40e1c0:	pop    esi
  40e1c1:	pop    ebx
  40e1c2:	mov    esp,ebp
  40e1c4:	pop    ebp
  40e1c5:	ret    0xc
  40e1c8:	int3   
  40e1c9:	int3   
  40e1ca:	int3   
  40e1cb:	int3   
  40e1cc:	int3   
  40e1cd:	test   ecx,ecx
  40e1cf:	je     0x40e1da
  40e1d1:	cmp    DWORD PTR [ecx],0x9
  40e1d4:	jne    0x40e1da
  40e1d6:	xor    eax,eax
  40e1d8:	inc    eax
  40e1d9:	ret    
  40e1da:	xor    eax,eax
  40e1dc:	ret    
  40e1dd:	int3   
  40e1de:	int3   
  40e1df:	int3   
  40e1e0:	int3   
  40e1e1:	int3   
  40e1e2:	push   0x10
  40e1e4:	pop    ecx
  40e1e5:	call   0x40dc18
  40e1ea:	test   eax,eax
  40e1ec:	jne    0x40e1ef
  40e1ee:	ret    
  40e1ef:	xor    ecx,ecx
  40e1f1:	mov    DWORD PTR [eax],0x9
  40e1f7:	mov    DWORD PTR [eax+0x4],ecx
  40e1fa:	mov    DWORD PTR [eax+0x8],ecx
  40e1fd:	mov    DWORD PTR [eax+0xc],ecx
  40e200:	ret    
  40e201:	int3   
  40e202:	int3   
  40e203:	int3   
  40e204:	int3   
  40e205:	int3   
  40e206:	mov    edi,edi
  40e208:	push   ebp
  40e209:	mov    ebp,esp
  40e20b:	push   ecx
  40e20c:	push   edi
  40e20d:	mov    edi,ecx
  40e20f:	call   0x40e1cd
  40e214:	test   eax,eax
  40e216:	je     0x40e24a
  40e218:	mov    eax,DWORD PTR [edi+0x8]
  40e21b:	mov    DWORD PTR [ebp-0x4],eax
  40e21e:	test   eax,eax
  40e220:	je     0x40e23f
  40e222:	push   esi
  40e223:	mov    esi,DWORD PTR [eax+0x10]
  40e226:	mov    ecx,eax
  40e228:	call   0x40e095
  40e22d:	lea    ecx,[ebp-0x4]
  40e230:	call   0x40db64
  40e235:	mov    eax,esi
  40e237:	mov    DWORD PTR [ebp-0x4],eax
  40e23a:	test   esi,esi
  40e23c:	jne    0x40e223
  40e23e:	pop    esi
  40e23f:	xor    eax,eax
  40e241:	mov    DWORD PTR [edi+0x4],eax
  40e244:	mov    DWORD PTR [edi+0x8],eax
  40e247:	mov    DWORD PTR [edi+0xc],eax
  40e24a:	pop    edi
  40e24b:	mov    esp,ebp
  40e24d:	pop    ebp
  40e24e:	ret    
  40e24f:	int3   
  40e250:	int3   
  40e251:	int3   
  40e252:	int3   
  40e253:	int3   
  40e254:	mov    edi,edi
  40e256:	push   esi
  40e257:	mov    esi,ecx
  40e259:	mov    ecx,DWORD PTR [esi]
  40e25b:	call   0x40e1cd
  40e260:	test   eax,eax
  40e262:	je     0x40e271
  40e264:	call   0x40e206
  40e269:	mov    ecx,esi
  40e26b:	pop    esi
  40e26c:	jmp    0x40db64
  40e271:	pop    esi
  40e272:	ret    
  40e273:	int3   
  40e274:	int3   
  40e275:	int3   
  40e276:	int3   
  40e277:	int3   
  40e278:	mov    edi,edi
  40e27a:	push   ebp
  40e27b:	mov    ebp,esp
  40e27d:	push   ecx
  40e27e:	push   ecx
  40e27f:	mov    eax,ecx
  40e281:	push   ebx
  40e282:	mov    ebx,edx
  40e284:	mov    DWORD PTR [ebp-0x4],eax
  40e287:	call   0x40e1cd
  40e28c:	test   eax,eax
  40e28e:	jne    0x40e295
  40e290:	or     eax,0xffffffff
  40e293:	jmp    0x40e2e7
  40e295:	push   esi
  40e296:	mov    esi,DWORD PTR [ebp+0x8]
  40e299:	test   esi,esi
  40e29b:	jne    0x40e2a6
  40e29d:	push   ebx
  40e29e:	call   DWORD PTR ds:0x4130f0
  40e2a4:	mov    esi,eax
  40e2a6:	inc    esi
  40e2a7:	push   edi
  40e2a8:	lea    ecx,[esi+esi*1]
  40e2ab:	call   0x40dc18
  40e2b0:	mov    edi,eax
  40e2b2:	mov    DWORD PTR [ebp-0x8],edi
  40e2b5:	test   edi,edi
  40e2b7:	je     0x40e2e2
  40e2b9:	push   esi
  40e2ba:	mov    edx,ebx
  40e2bc:	mov    ecx,edi
  40e2be:	call   0x40d369
  40e2c3:	mov    ecx,DWORD PTR [ebp-0x4]
  40e2c6:	lea    eax,[esi+esi*1]
  40e2c9:	push   edi
  40e2ca:	push   eax
  40e2cb:	mov    edx,0x20000
  40e2d0:	call   0x40df8b
  40e2d5:	cmp    eax,0xffffffff
  40e2d8:	jne    0x40e2e5
  40e2da:	lea    ecx,[ebp-0x8]
  40e2dd:	call   0x40db64
  40e2e2:	or     eax,0xffffffff
  40e2e5:	pop    edi
  40e2e6:	pop    esi
  40e2e7:	pop    ebx
  40e2e8:	mov    esp,ebp
  40e2ea:	pop    ebp
  40e2eb:	ret    0x4
  40e2ee:	int3   
  40e2ef:	int3   
  40e2f0:	int3   
  40e2f1:	int3   
  40e2f2:	int3   
  40e2f3:	mov    edi,edi
  40e2f5:	push   ebp
  40e2f6:	mov    ebp,esp
  40e2f8:	push   ecx
  40e2f9:	push   esi
  40e2fa:	push   edi
  40e2fb:	mov    edi,edx
  40e2fd:	mov    esi,ecx
  40e2ff:	call   0x40e1cd
  40e304:	test   eax,eax
  40e306:	je     0x40e335
  40e308:	push   0x4
  40e30a:	pop    ecx
  40e30b:	call   0x40dc18
  40e310:	mov    DWORD PTR [ebp-0x4],eax
  40e313:	test   eax,eax
  40e315:	je     0x40e335
  40e317:	push   eax
  40e318:	push   0x4
  40e31a:	mov    edx,0x30000
  40e31f:	mov    DWORD PTR [eax],edi
  40e321:	mov    ecx,esi
  40e323:	call   0x40df8b
  40e328:	cmp    eax,0xffffffff
  40e32b:	jne    0x40e338
  40e32d:	lea    ecx,[ebp-0x4]
  40e330:	call   0x40db64
  40e335:	or     eax,0xffffffff
  40e338:	pop    edi
  40e339:	pop    esi
  40e33a:	mov    esp,ebp
  40e33c:	pop    ebp
  40e33d:	ret    
  40e33e:	int3   
  40e33f:	int3   
  40e340:	int3   
  40e341:	int3   
  40e342:	int3   
  40e343:	mov    edi,edi
  40e345:	push   ebp
  40e346:	mov    ebp,esp
  40e348:	push   ecx
  40e349:	push   esi
  40e34a:	push   edi
  40e34b:	mov    edi,edx
  40e34d:	mov    esi,ecx
  40e34f:	call   0x40e1cd
  40e354:	test   eax,eax
  40e356:	je     0x40e385
  40e358:	push   0x4
  40e35a:	pop    ecx
  40e35b:	call   0x40dc18
  40e360:	mov    DWORD PTR [ebp-0x4],eax
  40e363:	test   eax,eax
  40e365:	je     0x40e385
  40e367:	push   eax
  40e368:	push   0x4
  40e36a:	mov    edx,0x40000
  40e36f:	mov    DWORD PTR [eax],edi
  40e371:	mov    ecx,esi
  40e373:	call   0x40df8b
  40e378:	cmp    eax,0xffffffff
  40e37b:	jne    0x40e388
  40e37d:	lea    ecx,[ebp-0x4]
  40e380:	call   0x40db64
  40e385:	or     eax,0xffffffff
  40e388:	pop    edi
  40e389:	pop    esi
  40e38a:	mov    esp,ebp
  40e38c:	pop    ebp
  40e38d:	ret    
  40e38e:	int3   
  40e38f:	int3   
  40e390:	int3   
  40e391:	int3   
  40e392:	int3   
  40e393:	mov    edi,edi
  40e395:	push   ebp
  40e396:	mov    ebp,esp
  40e398:	push   ecx
  40e399:	push   esi
  40e39a:	mov    esi,ecx
  40e39c:	call   0x40e1cd
  40e3a1:	test   eax,eax
  40e3a3:	je     0x40e3d5
  40e3a5:	push   0x4
  40e3a7:	pop    ecx
  40e3a8:	call   0x40dc18
  40e3ad:	mov    DWORD PTR [ebp-0x4],eax
  40e3b0:	test   eax,eax
  40e3b2:	je     0x40e3d5
  40e3b4:	fld    DWORD PTR [ebp+0x8]
  40e3b7:	mov    edx,0x60000
  40e3bc:	push   eax
  40e3bd:	push   0x4
  40e3bf:	mov    ecx,esi
  40e3c1:	fstp   DWORD PTR [eax]
  40e3c3:	call   0x40df8b
  40e3c8:	cmp    eax,0xffffffff
  40e3cb:	jne    0x40e3d8
  40e3cd:	lea    ecx,[ebp-0x4]
  40e3d0:	call   0x40db64
  40e3d5:	or     eax,0xffffffff
  40e3d8:	pop    esi
  40e3d9:	mov    esp,ebp
  40e3db:	pop    ebp
  40e3dc:	ret    0x4
  40e3df:	int3   
  40e3e0:	int3   
  40e3e1:	int3   
  40e3e2:	int3   
  40e3e3:	int3   
  40e3e4:	mov    edi,edi
  40e3e6:	push   ebp
  40e3e7:	mov    ebp,esp
  40e3e9:	push   ecx
  40e3ea:	push   esi
  40e3eb:	mov    esi,ecx
  40e3ed:	call   0x40e1cd
  40e3f2:	test   eax,eax
  40e3f4:	je     0x40e426
  40e3f6:	push   0x8
  40e3f8:	pop    ecx
  40e3f9:	call   0x40dc18
  40e3fe:	mov    DWORD PTR [ebp-0x4],eax
  40e401:	test   eax,eax
  40e403:	je     0x40e426
  40e405:	fld    QWORD PTR [ebp+0x8]
  40e408:	mov    edx,0x70000
  40e40d:	push   eax
  40e40e:	push   0x8
  40e410:	mov    ecx,esi
  40e412:	fstp   QWORD PTR [eax]
  40e414:	call   0x40df8b
  40e419:	cmp    eax,0xffffffff
  40e41c:	jne    0x40e429
  40e41e:	lea    ecx,[ebp-0x4]
  40e421:	call   0x40db64
  40e426:	or     eax,0xffffffff
  40e429:	pop    esi
  40e42a:	mov    esp,ebp
  40e42c:	pop    ebp
  40e42d:	ret    0x8
  40e430:	int3   
  40e431:	int3   
  40e432:	int3   
  40e433:	int3   
  40e434:	int3   
  40e435:	mov    edi,edi
  40e437:	push   ebp
  40e438:	mov    ebp,esp
  40e43a:	push   ecx
  40e43b:	push   ecx
  40e43c:	mov    eax,ecx
  40e43e:	push   ebx
  40e43f:	mov    ebx,edx
  40e441:	mov    DWORD PTR [ebp-0x8],eax
  40e444:	call   0x40e1cd
  40e449:	test   eax,eax
  40e44b:	jne    0x40e452
  40e44d:	or     eax,0xffffffff
  40e450:	jmp    0x40e4ac
  40e452:	push   edi
  40e453:	call   0x40e1e2
  40e458:	mov    edi,eax
  40e45a:	mov    ecx,edi
  40e45c:	mov    DWORD PTR [ebp-0x4],edi
  40e45f:	call   0x40e1cd
  40e464:	test   eax,eax
  40e466:	je     0x40e4a8
  40e468:	push   esi
  40e469:	xor    esi,esi
  40e46b:	test   ebx,ebx
  40e46d:	je     0x40e486
  40e46f:	push   0x0
  40e471:	push   0x0
  40e473:	xor    edx,edx
  40e475:	mov    ecx,edi
  40e477:	call   0x40df8b
  40e47c:	cmp    eax,0xffffffff
  40e47f:	je     0x40e486
  40e481:	inc    esi
  40e482:	cmp    esi,ebx
  40e484:	jb     0x40e46f
  40e486:	cmp    esi,ebx
  40e488:	pop    esi
  40e489:	jne    0x40e4a0
  40e48b:	mov    ecx,DWORD PTR [ebp-0x8]
  40e48e:	mov    edx,0x80000
  40e493:	push   edi
  40e494:	push   0x4
  40e496:	call   0x40df8b
  40e49b:	cmp    eax,0xffffffff
  40e49e:	jne    0x40e4ab
  40e4a0:	lea    ecx,[ebp-0x4]
  40e4a3:	call   0x40e254
  40e4a8:	or     eax,0xffffffff
  40e4ab:	pop    edi
  40e4ac:	pop    ebx
  40e4ad:	mov    esp,ebp
  40e4af:	pop    ebp
  40e4b0:	ret    
  40e4b1:	int3   
  40e4b2:	int3   
  40e4b3:	int3   
  40e4b4:	int3   
  40e4b5:	int3   
  40e4b6:	mov    edi,edi
  40e4b8:	push   ebx
  40e4b9:	push   edi
  40e4ba:	mov    edi,edx
  40e4bc:	mov    ebx,ecx
  40e4be:	call   0x40e1cd
  40e4c3:	test   eax,eax
  40e4c5:	jne    0x40e4cc
  40e4c7:	or     eax,0xffffffff
  40e4ca:	jmp    0x40e4ed
  40e4cc:	push   esi
  40e4cd:	xor    esi,esi
  40e4cf:	test   edi,edi
  40e4d1:	je     0x40e4ea
  40e4d3:	push   0x0
  40e4d5:	push   0x0
  40e4d7:	xor    edx,edx
  40e4d9:	mov    ecx,ebx
  40e4db:	call   0x40df8b
  40e4e0:	cmp    eax,0xffffffff
  40e4e3:	je     0x40e4ea
  40e4e5:	inc    esi
  40e4e6:	cmp    esi,edi
  40e4e8:	jb     0x40e4d3
  40e4ea:	mov    eax,esi
  40e4ec:	pop    esi
  40e4ed:	pop    edi
  40e4ee:	pop    ebx
  40e4ef:	ret    
  40e4f0:	int3   
  40e4f1:	int3   
  40e4f2:	int3   
  40e4f3:	int3   
  40e4f4:	int3   
  40e4f5:	mov    edi,edi
  40e4f7:	push   ebp
  40e4f8:	mov    ebp,esp
  40e4fa:	push   ecx
  40e4fb:	push   ecx
  40e4fc:	push   ebx
  40e4fd:	mov    DWORD PTR [ebp-0x4],edx
  40e500:	mov    ebx,ecx
  40e502:	call   0x40e1cd
  40e507:	test   eax,eax
  40e509:	jne    0x40e510
  40e50b:	or     eax,0xffffffff
  40e50e:	jmp    0x40e563
  40e510:	push   esi
  40e511:	mov    esi,DWORD PTR [ebp+0xc]
  40e514:	test   esi,esi
  40e516:	jne    0x40e523
  40e518:	push   DWORD PTR [ebp+0x8]
  40e51b:	call   DWORD PTR ds:0x4130f0
  40e521:	mov    esi,eax
  40e523:	inc    esi
  40e524:	push   edi
  40e525:	lea    ecx,[esi+esi*1]
  40e528:	call   0x40dc18
  40e52d:	mov    edi,eax
  40e52f:	mov    DWORD PTR [ebp-0x8],edi
  40e532:	test   edi,edi
  40e534:	je     0x40e55e
  40e536:	mov    edx,DWORD PTR [ebp+0x8]
  40e539:	mov    ecx,edi
  40e53b:	push   esi
  40e53c:	call   0x40d369
  40e541:	mov    edx,DWORD PTR [ebp-0x4]
  40e544:	lea    eax,[esi+esi*1]
  40e547:	push   edi
  40e548:	push   eax
  40e549:	push   ecx
  40e54a:	mov    ecx,ebx
  40e54c:	call   0x40dff7
  40e551:	cmp    eax,0xffffffff
  40e554:	jne    0x40e561
  40e556:	lea    ecx,[ebp-0x8]
  40e559:	call   0x40db64
  40e55e:	or     eax,0xffffffff
  40e561:	pop    edi
  40e562:	pop    esi
  40e563:	pop    ebx
  40e564:	mov    esp,ebp
  40e566:	pop    ebp
  40e567:	ret    0x8
  40e56a:	int3   
  40e56b:	int3   
  40e56c:	int3   
  40e56d:	int3   
  40e56e:	int3   
  40e56f:	mov    edi,edi
  40e571:	push   ebp
  40e572:	mov    ebp,esp
  40e574:	push   ecx
  40e575:	push   ecx
  40e576:	and    DWORD PTR [ebp-0x4],0x0
  40e57a:	lea    eax,[ebp-0x4]
  40e57d:	push   esi
  40e57e:	push   eax
  40e57f:	mov    esi,ecx
  40e581:	call   0x40df4c
  40e586:	mov    ecx,eax
  40e588:	mov    DWORD PTR [ebp-0x8],ecx
  40e58b:	test   ecx,ecx
  40e58d:	je     0x40e5bc
  40e58f:	mov    edx,DWORD PTR [ebp-0x4]
  40e592:	mov    eax,DWORD PTR [ecx+0x10]
  40e595:	test   edx,edx
  40e597:	je     0x40e59e
  40e599:	mov    DWORD PTR [edx+0x10],eax
  40e59c:	jmp    0x40e5a1
  40e59e:	mov    DWORD PTR [esi+0x8],eax
  40e5a1:	cmp    ecx,DWORD PTR [esi+0xc]
  40e5a4:	jne    0x40e5a9
  40e5a6:	mov    DWORD PTR [esi+0xc],edx
  40e5a9:	dec    DWORD PTR [esi+0x4]
  40e5ac:	call   0x40e095
  40e5b1:	lea    ecx,[ebp-0x8]
  40e5b4:	call   0x40db64
  40e5b9:	xor    eax,eax
  40e5bb:	inc    eax
  40e5bc:	pop    esi
  40e5bd:	mov    esp,ebp
  40e5bf:	pop    ebp
  40e5c0:	ret    
  40e5c1:	int3   
  40e5c2:	int3   
  40e5c3:	int3   
  40e5c4:	int3   
  40e5c5:	int3   
  40e5c6:	call   0x40e1cd
  40e5cb:	test   eax,eax
  40e5cd:	jne    0x40e5d0
  40e5cf:	ret    
  40e5d0:	mov    eax,DWORD PTR [ecx+0x4]
  40e5d3:	ret    
  40e5d4:	int3   
  40e5d5:	int3   
  40e5d6:	int3   
  40e5d7:	int3   
  40e5d8:	int3   
  40e5d9:	mov    ecx,DWORD PTR ds:0x412468
  40e5df:	push   0x0
  40e5e1:	call   0x40df4c
  40e5e6:	test   eax,eax
  40e5e8:	je     0x40e5fb
  40e5ea:	cmp    DWORD PTR [eax+0x4],0x80000
  40e5f1:	jne    0x40e5fb
  40e5f3:	mov    ecx,DWORD PTR [eax+0xc]
  40e5f6:	jmp    0x40e5c6
  40e5fb:	xor    eax,eax
  40e5fd:	ret    
  40e5fe:	int3   
  40e5ff:	int3   
  40e600:	int3   
  40e601:	int3   
  40e602:	int3   
  40e603:	push   0x0
  40e605:	call   0x40df4c
  40e60a:	test   eax,eax
  40e60c:	jne    0x40e611
  40e60e:	xor    eax,eax
  40e610:	ret    
  40e611:	cmp    DWORD PTR [eax+0x4],0x10000
  40e618:	je     0x40e623
  40e61a:	cmp    DWORD PTR [eax+0x4],0x80000
  40e621:	jne    0x40e60e
  40e623:	mov    eax,DWORD PTR [eax+0xc]
  40e626:	ret    
  40e627:	int3   
  40e628:	int3   
  40e629:	int3   
  40e62a:	int3   
  40e62b:	int3   
  40e62c:	push   0x0
  40e62e:	call   0x40df4c
  40e633:	test   eax,eax
  40e635:	jne    0x40e63a
  40e637:	xor    eax,eax
  40e639:	ret    
  40e63a:	cmp    DWORD PTR [eax+0x4],0x20000
  40e641:	jne    0x40e637
  40e643:	mov    eax,DWORD PTR [eax+0xc]
  40e646:	ret    
  40e647:	int3   
  40e648:	int3   
  40e649:	int3   
  40e64a:	int3   
  40e64b:	int3   
  40e64c:	push   0x0
  40e64e:	call   0x40df4c
  40e653:	test   eax,eax
  40e655:	jne    0x40e65a
  40e657:	xor    eax,eax
  40e659:	ret    
  40e65a:	cmp    DWORD PTR [eax+0x4],0x40000
  40e661:	je     0x40e66c
  40e663:	cmp    DWORD PTR [eax+0x4],0x30000
  40e66a:	jne    0x40e657
  40e66c:	mov    eax,DWORD PTR [eax+0xc]
  40e66f:	mov    eax,DWORD PTR [eax]
  40e671:	ret    
  40e672:	int3   
  40e673:	int3   
  40e674:	int3   
  40e675:	int3   
  40e676:	int3   
  40e677:	push   0x0
  40e679:	call   0x40df4c
  40e67e:	test   eax,eax
  40e680:	jne    0x40e689
  40e682:	fld    DWORD PTR ds:0x40188c
  40e688:	ret    
  40e689:	cmp    DWORD PTR [eax+0x4],0x60000
  40e690:	jne    0x40e682
  40e692:	mov    eax,DWORD PTR [eax+0xc]
  40e695:	fld    DWORD PTR [eax]
  40e697:	ret    
  40e698:	int3   
  40e699:	int3   
  40e69a:	int3   
  40e69b:	int3   
  40e69c:	int3   
  40e69d:	push   0x0
  40e69f:	call   0x40df4c
  40e6a4:	test   eax,eax
  40e6a6:	jne    0x40e6af
  40e6a8:	fld    QWORD PTR ds:0x401890
  40e6ae:	ret    
  40e6af:	cmp    DWORD PTR [eax+0x4],0x70000
  40e6b6:	jne    0x40e6a8
  40e6b8:	mov    eax,DWORD PTR [eax+0xc]
  40e6bb:	fld    QWORD PTR [eax]
  40e6bd:	ret    
  40e6be:	int3   
  40e6bf:	int3   
  40e6c0:	int3   
  40e6c1:	int3   
  40e6c2:	int3   
  40e6c3:	mov    edi,edi
  40e6c5:	push   ebp
  40e6c6:	mov    ebp,esp
  40e6c8:	sub    esp,0x10
  40e6cb:	push   ebx
  40e6cc:	mov    ebx,DWORD PTR [ebp+0x8]
  40e6cf:	xor    eax,eax
  40e6d1:	push   esi
  40e6d2:	push   edi
  40e6d3:	mov    edi,ebx
  40e6d5:	xor    esi,esi
  40e6d7:	push   esi
  40e6d8:	mov    DWORD PTR [ebp-0xc],esi
  40e6db:	mov    DWORD PTR [ebp-0x8],esi
  40e6de:	stos   DWORD PTR es:[edi],eax
  40e6df:	stos   DWORD PTR es:[edi],eax
  40e6e0:	stos   DWORD PTR es:[edi],eax
  40e6e1:	stos   DWORD PTR es:[edi],eax
  40e6e2:	call   0x40df4c
  40e6e7:	test   eax,eax
  40e6e9:	je     0x40e727
  40e6eb:	mov    ecx,0xa0000
  40e6f0:	cmp    DWORD PTR [eax+0x4],ecx
  40e6f3:	je     0x40e703
  40e6f5:	cmp    DWORD PTR [eax+0x4],0xb0000
  40e6fc:	jne    0x40e727
  40e6fe:	cmp    DWORD PTR [eax+0x4],ecx
  40e701:	jne    0x40e70e
  40e703:	mov    esi,DWORD PTR [eax+0xc]
  40e706:	mov    edi,ebx
  40e708:	movs   DWORD PTR es:[edi],DWORD PTR ds:[esi]
  40e709:	movs   DWORD PTR es:[edi],DWORD PTR ds:[esi]
  40e70a:	movs   DWORD PTR es:[edi],DWORD PTR ds:[esi]
  40e70b:	movs   DWORD PTR es:[edi],DWORD PTR ds:[esi]
  40e70c:	jmp    0x40e727
  40e70e:	mov    ecx,DWORD PTR [eax+0xc]
  40e711:	push   ebx
  40e712:	mov    eax,DWORD PTR [ecx]
  40e714:	mov    DWORD PTR [ebp-0xc],eax
  40e717:	mov    eax,DWORD PTR [ecx+0x4]
  40e71a:	mov    DWORD PTR [ebp-0x8],eax
  40e71d:	lea    eax,[ebp-0xc]
  40e720:	push   eax
  40e721:	call   DWORD PTR ds:0x413050
  40e727:	pop    edi
  40e728:	pop    esi
  40e729:	mov    eax,ebx
  40e72b:	pop    ebx
  40e72c:	mov    esp,ebp
  40e72e:	pop    ebp
  40e72f:	ret    0x4
  40e732:	int3   
  40e733:	int3   
  40e734:	int3   
  40e735:	int3   
  40e736:	int3   
  40e737:	mov    edi,edi
  40e739:	push   ebp
  40e73a:	mov    ebp,esp
  40e73c:	sub    esp,0x20c
  40e742:	mov    eax,ds:0x412004
  40e747:	xor    eax,ebp
  40e749:	mov    DWORD PTR [ebp-0x4],eax
  40e74c:	and    DWORD PTR [ebp-0x208],0x0
  40e753:	lea    eax,[ebp-0x204]
  40e759:	push   ebx
  40e75a:	push   esi
  40e75b:	mov    esi,DWORD PTR [ebp+0x8]
  40e75e:	push   edi
  40e75f:	push   0x1fa
  40e764:	push   0x0
  40e766:	push   eax
  40e767:	mov    DWORD PTR [ebp-0x20c],edx
  40e76d:	mov    edi,ecx
  40e76f:	call   0x411770
  40e774:	mov    ebx,DWORD PTR [ebp+0xc]
  40e777:	add    esp,0xc
  40e77a:	test   ebx,ebx
  40e77c:	jne    0x40e785
  40e77e:	xor    eax,eax
  40e780:	jmp    0x40e83d
  40e785:	mov    edx,DWORD PTR [ebp-0x20c]
  40e78b:	mov    ecx,edi
  40e78d:	push   0x0
  40e78f:	call   0x40df4c
  40e794:	mov    edi,eax
  40e796:	test   edi,edi
  40e798:	je     0x40e77e
  40e79a:	push   ebx
  40e79b:	mov    edx,0x401050
  40e7a0:	mov    ecx,esi
  40e7a2:	call   0x40d369
  40e7a7:	mov    eax,DWORD PTR [edi+0x4]
  40e7aa:	cmp    eax,0x20000
  40e7af:	je     0x40e82b
  40e7b1:	cmp    eax,0x30000
  40e7b6:	je     0x40e81f
  40e7b8:	cmp    eax,0x40000
  40e7bd:	je     0x40e7ff
  40e7bf:	cmp    eax,0x60000
  40e7c4:	je     0x40e7f8
  40e7c6:	cmp    eax,0x70000
  40e7cb:	jne    0x40e836
  40e7cd:	mov    eax,DWORD PTR [edi+0xc]
  40e7d0:	fld    QWORD PTR [eax]
  40e7d2:	push   ecx
  40e7d3:	push   ecx
  40e7d4:	fstp   QWORD PTR [esp]
  40e7d7:	push   0x40174c
  40e7dc:	lea    eax,[ebp-0x208]
  40e7e2:	push   0xfe
  40e7e7:	push   eax
  40e7e8:	call   0x401b75
  40e7ed:	add    esp,0x14
  40e7f0:	lea    edx,[ebp-0x208]
  40e7f6:	jmp    0x40e82e
  40e7f8:	mov    eax,DWORD PTR [edi+0xc]
  40e7fb:	fld    DWORD PTR [eax]
  40e7fd:	jmp    0x40e7d2
  40e7ff:	mov    eax,DWORD PTR [edi+0xc]
  40e802:	push   DWORD PTR [eax]
  40e804:	push   0x401744
  40e809:	lea    eax,[ebp-0x208]
  40e80f:	push   0xfe
  40e814:	push   eax
  40e815:	call   0x401b75
  40e81a:	add    esp,0x10
  40e81d:	jmp    0x40e7f0
  40e81f:	mov    eax,DWORD PTR [edi+0xc]
  40e822:	push   DWORD PTR [eax]
  40e824:	push   0x40173c
  40e829:	jmp    0x40e809
  40e82b:	mov    edx,DWORD PTR [edi+0xc]
  40e82e:	push   ebx
  40e82f:	mov    ecx,esi
  40e831:	call   0x40d369
  40e836:	push   esi
  40e837:	call   DWORD PTR ds:0x4130f0
  40e83d:	mov    ecx,DWORD PTR [ebp-0x4]
  40e840:	pop    edi
  40e841:	pop    esi
  40e842:	xor    ecx,ebp
  40e844:	pop    ebx
  40e845:	call   0x411090
  40e84a:	mov    esp,ebp
  40e84c:	pop    ebp
  40e84d:	ret    0x8
  40e850:	int3   
  40e851:	int3   
  40e852:	int3   
  40e853:	int3   
  40e854:	int3   
  40e855:	mov    edi,edi
  40e857:	push   ebp
  40e858:	mov    ebp,esp
  40e85a:	mov    ecx,DWORD PTR ds:0x412468
  40e860:	push   0x0
  40e862:	push   0x3
  40e864:	pop    edx
  40e865:	call   0x40df4c
  40e86a:	test   eax,eax
  40e86c:	je     0x40e884
  40e86e:	cmp    DWORD PTR [eax+0x4],0x80000
  40e875:	jne    0x40e884
  40e877:	mov    edx,DWORD PTR [ebp+0x8]
  40e87a:	mov    ecx,DWORD PTR [eax+0xc]
  40e87d:	call   0x40e603
  40e882:	jmp    0x40e886
  40e884:	xor    eax,eax
  40e886:	pop    ebp
  40e887:	ret    0x4
  40e88a:	int3   
  40e88b:	int3   
  40e88c:	int3   
  40e88d:	int3   
  40e88e:	int3   
  40e88f:	mov    edi,edi
  40e891:	push   ebp
  40e892:	mov    ebp,esp
  40e894:	push   0x0
  40e896:	call   0x40df4c
  40e89b:	test   eax,eax
  40e89d:	je     0x40e8b5
  40e89f:	cmp    DWORD PTR [eax+0x4],0x80000
  40e8a6:	jne    0x40e8b5
  40e8a8:	mov    edx,DWORD PTR [ebp+0x8]
  40e8ab:	mov    ecx,DWORD PTR [eax+0xc]
  40e8ae:	call   0x40e62c
  40e8b3:	jmp    0x40e8b7
  40e8b5:	xor    eax,eax
  40e8b7:	pop    ebp
  40e8b8:	ret    0x4
  40e8bb:	int3   
  40e8bc:	int3   
  40e8bd:	int3   
  40e8be:	int3   
  40e8bf:	int3   
  40e8c0:	mov    edi,edi
  40e8c2:	push   ebp
  40e8c3:	mov    ebp,esp
  40e8c5:	push   edi
  40e8c6:	push   0x0
  40e8c8:	call   0x40df4c
  40e8cd:	mov    edi,eax
  40e8cf:	test   edi,edi
  40e8d1:	jne    0x40e8d7
  40e8d3:	xor    eax,eax
  40e8d5:	jmp    0x40e955
  40e8d7:	cmp    DWORD PTR [edi+0x4],0x20000
  40e8de:	je     0x40e8e6
  40e8e0:	cmp    DWORD PTR [edi+0x4],0x0
  40e8e4:	jne    0x40e8d3
  40e8e6:	push   ebx
  40e8e7:	push   esi
  40e8e8:	push   DWORD PTR [ebp+0x8]
  40e8eb:	call   DWORD PTR ds:0x4130f0
  40e8f1:	cmp    DWORD PTR [edi+0x4],0x0
  40e8f5:	lea    ebx,[eax+0x1]
  40e8f8:	jne    0x40e917
  40e8fa:	lea    esi,[ebx+ebx*1]
  40e8fd:	mov    ecx,esi
  40e8ff:	call   0x40dc18
  40e904:	mov    DWORD PTR [edi+0xc],eax
  40e907:	test   eax,eax
  40e909:	je     0x40e93a
  40e90b:	mov    DWORD PTR [edi+0x4],0x20000
  40e912:	mov    DWORD PTR [edi+0x8],esi
  40e915:	jmp    0x40e944
  40e917:	lea    eax,[ebx+ebx*1]
  40e91a:	cmp    DWORD PTR [edi+0x8],eax
  40e91d:	jae    0x40e944
  40e91f:	lea    esi,[edi+0xc]
  40e922:	mov    ecx,esi
  40e924:	call   0x40db64
  40e929:	and    DWORD PTR [esi],0x0
  40e92c:	lea    ecx,[ebx+ebx*1]
  40e92f:	call   0x40dc18
  40e934:	mov    DWORD PTR [esi],eax
  40e936:	test   eax,eax
  40e938:	jne    0x40e93e
  40e93a:	xor    eax,eax
  40e93c:	jmp    0x40e953
  40e93e:	lea    eax,[ebx+ebx*1]
  40e941:	mov    DWORD PTR [edi+0x8],eax
  40e944:	mov    edx,DWORD PTR [ebp+0x8]
  40e947:	mov    ecx,DWORD PTR [edi+0xc]
  40e94a:	push   ebx
  40e94b:	call   0x40d369
  40e950:	xor    eax,eax
  40e952:	inc    eax
  40e953:	pop    esi
  40e954:	pop    ebx
  40e955:	pop    edi
  40e956:	pop    ebp
  40e957:	ret    0x8
  40e95a:	int3   
  40e95b:	int3   
  40e95c:	int3   
  40e95d:	int3   
  40e95e:	int3   
  40e95f:	mov    edi,edi
  40e961:	push   ebp
  40e962:	mov    ebp,esp
  40e964:	mov    ecx,DWORD PTR ds:0x412468
  40e96a:	push   esi
  40e96b:	xor    esi,esi
  40e96d:	push   esi
  40e96e:	push   0x3
  40e970:	pop    edx
  40e971:	call   0x40df4c
  40e976:	test   eax,eax
  40e978:	je     0x40e9bd
  40e97a:	cmp    DWORD PTR [eax+0x4],0x80000
  40e981:	jne    0x40e9bd
  40e983:	push   edi
  40e984:	mov    edi,DWORD PTR [ebp+0xc]
  40e987:	test   edi,edi
  40e989:	je     0x40e9b8
  40e98b:	mov    edx,DWORD PTR [ebp+0x8]
  40e98e:	mov    ecx,DWORD PTR [eax+0xc]
  40e991:	push   esi
  40e992:	call   0x40df4c
  40e997:	test   eax,eax
  40e999:	je     0x40e9b8
  40e99b:	mov    ecx,DWORD PTR [eax+0x4]
  40e99e:	mov    edx,0x10000
  40e9a3:	cmp    ecx,edx
  40e9a5:	je     0x40e9ab
  40e9a7:	test   ecx,ecx
  40e9a9:	jne    0x40e9b8
  40e9ab:	test   ecx,ecx
  40e9ad:	jne    0x40e9b2
  40e9af:	mov    DWORD PTR [eax+0x4],edx
  40e9b2:	xor    esi,esi
  40e9b4:	mov    DWORD PTR [eax+0xc],edi
  40e9b7:	inc    esi
  40e9b8:	mov    eax,esi
  40e9ba:	pop    edi
  40e9bb:	jmp    0x40e9bf
  40e9bd:	xor    eax,eax
  40e9bf:	pop    esi
  40e9c0:	pop    ebp
  40e9c1:	ret    0x8
  40e9c4:	int3   
  40e9c5:	int3   
  40e9c6:	int3   
  40e9c7:	int3   
  40e9c8:	int3   
  40e9c9:	mov    edi,edi
  40e9cb:	push   ebp
  40e9cc:	mov    ebp,esp
  40e9ce:	push   0x0
  40e9d0:	call   0x40df4c
  40e9d5:	test   eax,eax
  40e9d7:	je     0x40e9f3
  40e9d9:	cmp    DWORD PTR [eax+0x4],0x80000
  40e9e0:	jne    0x40e9f3
  40e9e2:	mov    edx,DWORD PTR [ebp+0x8]
  40e9e5:	push   ecx
  40e9e6:	push   DWORD PTR [ebp+0xc]
  40e9e9:	mov    ecx,DWORD PTR [eax+0xc]
  40e9ec:	call   0x40e8c0
  40e9f1:	jmp    0x40e9f5
  40e9f3:	xor    eax,eax
  40e9f5:	pop    ebp
  40e9f6:	ret    0xc
  40e9f9:	int3   
  40e9fa:	int3   
  40e9fb:	int3   
  40e9fc:	int3   
  40e9fd:	int3   
  40e9fe:	mov    edi,edi
  40ea00:	push   ebp
  40ea01:	mov    ebp,esp
  40ea03:	mov    ecx,DWORD PTR ds:0x412468
  40ea09:	push   esi
  40ea0a:	xor    esi,esi
  40ea0c:	push   esi
  40ea0d:	push   0x3
  40ea0f:	pop    edx
  40ea10:	call   0x40df4c
  40ea15:	test   eax,eax
  40ea17:	je     0x40ea39
  40ea19:	cmp    DWORD PTR [eax+0x4],0x80000
  40ea20:	jne    0x40ea39
  40ea22:	mov    edx,DWORD PTR [ebp+0x8]
  40ea25:	mov    ecx,DWORD PTR [eax+0xc]
  40ea28:	push   esi
  40ea29:	call   0x40df4c
  40ea2e:	test   eax,eax
  40ea30:	je     0x40ea35
  40ea32:	mov    esi,DWORD PTR [eax+0x4]
  40ea35:	mov    eax,esi
  40ea37:	jmp    0x40ea3b
  40ea39:	xor    eax,eax
  40ea3b:	pop    esi
  40ea3c:	pop    ebp
  40ea3d:	ret    0x4
  40ea40:	int3   
  40ea41:	int3   
  40ea42:	int3   
  40ea43:	int3   
  40ea44:	int3   
  40ea45:	mov    edi,edi
  40ea47:	push   ebp
  40ea48:	mov    ebp,esp
  40ea4a:	sub    esp,0x14
  40ea4d:	mov    eax,ds:0x412004
  40ea52:	xor    eax,ebp
  40ea54:	mov    DWORD PTR [ebp-0x4],eax
  40ea57:	push   ebx
  40ea58:	push   esi
  40ea59:	xor    ebx,ebx
  40ea5b:	mov    WORD PTR [ebp-0x8],0x500
  40ea61:	lea    eax,[ebp-0x10]
  40ea64:	mov    DWORD PTR [ebp-0x10],ebx
  40ea67:	push   eax
  40ea68:	push   ebx
  40ea69:	push   ebx
  40ea6a:	push   ebx
  40ea6b:	push   ebx
  40ea6c:	push   ebx
  40ea6d:	push   ebx
  40ea6e:	push   0x220
  40ea73:	push   0x20
  40ea75:	push   0x2
  40ea77:	lea    eax,[ebp-0xc]
  40ea7a:	mov    DWORD PTR [ebp-0x14],ebx
  40ea7d:	push   eax
  40ea7e:	mov    DWORD PTR [ebp-0xc],ebx
  40ea81:	call   DWORD PTR ds:0x413018
  40ea87:	mov    esi,eax
  40ea89:	cmp    esi,0x1
  40ea8c:	jne    0x40eab0
  40ea8e:	lea    eax,[ebp-0x14]
  40ea91:	push   eax
  40ea92:	push   DWORD PTR [ebp-0x10]
  40ea95:	push   ebx
  40ea96:	call   DWORD PTR ds:0x413010
  40ea9c:	cmp    eax,esi
  40ea9e:	jne    0x40eaa5
  40eaa0:	cmp    DWORD PTR [ebp-0x14],esi
  40eaa3:	je     0x40eaa7
  40eaa5:	mov    esi,ebx
  40eaa7:	push   DWORD PTR [ebp-0x10]
  40eaaa:	call   DWORD PTR ds:0x413014
  40eab0:	mov    ecx,DWORD PTR [ebp-0x4]
  40eab3:	mov    eax,esi
  40eab5:	pop    esi
  40eab6:	xor    ecx,ebp
  40eab8:	pop    ebx
  40eab9:	call   0x411090
  40eabe:	mov    esp,ebp
  40eac0:	pop    ebp
  40eac1:	ret    
  40eac2:	int3   
  40eac3:	int3   
  40eac4:	int3   
  40eac5:	int3   
  40eac6:	int3   
  40eac7:	mov    edi,edi
  40eac9:	push   esi
  40eaca:	mov    esi,ecx
  40eacc:	test   esi,esi
  40eace:	jne    0x40eae6
  40ead0:	call   DWORD PTR ds:0x41302c
  40ead6:	test   eax,eax
  40ead8:	jne    0x40eae2
  40eada:	push   0x57
  40eadc:	call   DWORD PTR ds:0x413030
  40eae2:	xor    eax,eax
  40eae4:	pop    esi
  40eae5:	ret    
  40eae6:	call   0x40d408
  40eaeb:	cmp    eax,0x2
  40eaee:	jbe    0x40eae2
  40eaf0:	push   0x2
  40eaf2:	push   0x1
  40eaf4:	mov    edx,0x401150
  40eaf9:	mov    ecx,esi
  40eafb:	call   0x40d41c
  40eb00:	neg    eax
  40eb02:	pop    esi
  40eb03:	sbb    eax,eax
  40eb05:	inc    eax
  40eb06:	ret    
  40eb07:	int3   
  40eb08:	int3   
  40eb09:	int3   
  40eb0a:	int3   
  40eb0b:	int3   
  40eb0c:	mov    edi,edi
  40eb0e:	push   ebp
  40eb0f:	mov    ebp,esp
  40eb11:	push   ecx
  40eb12:	push   ebx
  40eb13:	push   esi
  40eb14:	push   edi
  40eb15:	xor    edi,edi
  40eb17:	mov    esi,ecx
  40eb19:	push   edi
  40eb1a:	mov    DWORD PTR [ebp-0x4],edi
  40eb1d:	call   DWORD PTR ds:0x413030
  40eb23:	test   esi,esi
  40eb25:	je     0x40ec6e
  40eb2b:	push   esi
  40eb2c:	call   DWORD PTR ds:0x4130f0
  40eb32:	test   eax,eax
  40eb34:	je     0x40ec6e
  40eb3a:	lea    eax,[ebp-0x4]
  40eb3d:	push   eax
  40eb3e:	push   edi
  40eb3f:	push   0x4
  40eb41:	call   DWORD PTR ds:0x41304c
  40eb47:	call   DWORD PTR ds:0x41302c
  40eb4d:	cmp    eax,0xea
  40eb52:	je     0x40eb5b
  40eb54:	xor    eax,eax
  40eb56:	jmp    0x40ec71
  40eb5b:	push   0x1
  40eb5d:	push   DWORD PTR [ebp-0x4]
  40eb60:	xor    edx,edx
  40eb62:	push   0xe
  40eb64:	pop    ecx
  40eb65:	call   0x40c39f
  40eb6a:	mov    ebx,eax
  40eb6c:	test   ebx,ebx
  40eb6e:	jne    0x40eb84
  40eb70:	call   DWORD PTR ds:0x41302c
  40eb76:	test   eax,eax
  40eb78:	jne    0x40eb54
  40eb7a:	push   0x8
  40eb7c:	call   DWORD PTR ds:0x413030
  40eb82:	jmp    0x40eb54
  40eb84:	lea    eax,[ebp-0x4]
  40eb87:	push   eax
  40eb88:	push   ebx
  40eb89:	push   0x4
  40eb8b:	call   DWORD PTR ds:0x41304c
  40eb91:	test   eax,eax
  40eb93:	je     0x40eb54
  40eb95:	push   edi
  40eb96:	push   0x1
  40eb98:	mov    edx,esi
  40eb9a:	mov    ecx,ebx
  40eb9c:	call   0x40d41c
  40eba1:	test   eax,eax
  40eba3:	je     0x40ec6e
  40eba9:	mov    ecx,esi
  40ebab:	call   0x40ed32
  40ebb0:	cmp    eax,0x1
  40ebb3:	mov    DWORD PTR [ebp-0x4],edi
  40ebb6:	lea    eax,[ebp-0x4]
  40ebb9:	jne    0x40ec21
  40ebbb:	push   ecx
  40ebbc:	push   eax
  40ebbd:	xor    edx,edx
  40ebbf:	mov    ecx,esi
  40ebc1:	call   0x40edeb
  40ebc6:	test   eax,eax
  40ebc8:	je     0x40eb54
  40ebca:	push   0x1
  40ebcc:	push   DWORD PTR [ebp-0x4]
  40ebcf:	xor    edx,edx
  40ebd1:	push   0xf
  40ebd3:	pop    ecx
  40ebd4:	call   0x40c39f
  40ebd9:	mov    edi,eax
  40ebdb:	test   edi,edi
  40ebdd:	je     0x40eb54
  40ebe3:	push   ecx
  40ebe4:	lea    eax,[ebp-0x4]
  40ebe7:	mov    edx,edi
  40ebe9:	push   eax
  40ebea:	mov    ecx,esi
  40ebec:	call   0x40edeb
  40ebf1:	test   eax,eax
  40ebf3:	je     0x40eb54
  40ebf9:	push   0x0
  40ebfb:	push   0x1
  40ebfd:	mov    edx,edi
  40ebff:	mov    ecx,ebx
  40ec01:	call   0x40d41c
  40ec06:	test   eax,eax
  40ec08:	je     0x40ec6e
  40ec0a:	mov    edx,0x401754
  40ec0f:	push   0x0
  40ec11:	push   0x1
  40ec13:	mov    ecx,edi
  40ec15:	call   0x40d41c
  40ec1a:	neg    eax
  40ec1c:	sbb    eax,eax
  40ec1e:	inc    eax
  40ec1f:	jmp    0x40ec71
  40ec21:	push   eax
  40ec22:	push   edi
  40ec23:	push   0x7
  40ec25:	call   DWORD PTR ds:0x41304c
  40ec2b:	call   DWORD PTR ds:0x41302c
  40ec31:	cmp    eax,0xea
  40ec36:	jne    0x40eb54
  40ec3c:	push   0x1
  40ec3e:	push   DWORD PTR [ebp-0x4]
  40ec41:	xor    edx,edx
  40ec43:	push   0xe
  40ec45:	pop    ecx
  40ec46:	call   0x40c39f
  40ec4b:	mov    edi,eax
  40ec4d:	test   edi,edi
  40ec4f:	je     0x40eb54
  40ec55:	lea    eax,[ebp-0x4]
  40ec58:	push   eax
  40ec59:	push   edi
  40ec5a:	push   0x7
  40ec5c:	call   DWORD PTR ds:0x41304c
  40ec62:	test   eax,eax
  40ec64:	je     0x40eb54
  40ec6a:	mov    edx,esi
  40ec6c:	jmp    0x40ec0f
  40ec6e:	xor    eax,eax
  40ec70:	inc    eax
  40ec71:	pop    edi
  40ec72:	pop    esi
  40ec73:	pop    ebx
  40ec74:	mov    esp,ebp
  40ec76:	pop    ebp
  40ec77:	ret    
  40ec78:	int3   
  40ec79:	int3   
  40ec7a:	int3   
  40ec7b:	int3   
  40ec7c:	int3   
  40ec7d:	mov    edi,edi
  40ec7f:	push   ebp
  40ec80:	mov    ebp,esp
  40ec82:	sub    esp,0x44
  40ec85:	mov    eax,ds:0x412004
  40ec8a:	xor    eax,ebp
  40ec8c:	mov    DWORD PTR [ebp-0x4],eax
  40ec8f:	push   ebx
  40ec90:	push   esi
  40ec91:	push   edi
  40ec92:	mov    ebx,ecx
  40ec94:	lea    edi,[ebp-0x3c]
  40ec97:	mov    esi,0x401768
  40ec9c:	push   0xe
  40ec9e:	pop    ecx
  40ec9f:	rep movs DWORD PTR es:[edi],DWORD PTR ds:[esi]
  40eca1:	test   ebx,ebx
  40eca3:	je     0x40ed19
  40eca5:	push   ebx
  40eca6:	call   DWORD PTR ds:0x4130f0
  40ecac:	test   eax,eax
  40ecae:	je     0x40ed19
  40ecb0:	mov    ecx,ebx
  40ecb2:	call   0x40ed32
  40ecb7:	push   ecx
  40ecb8:	cmp    eax,0x1
  40ecbb:	jne    0x40ecff
  40ecbd:	and    DWORD PTR [ebp-0x40],0x0
  40ecc1:	lea    eax,[ebp-0x40]
  40ecc4:	push   eax
  40ecc5:	xor    edx,edx
  40ecc7:	mov    ecx,ebx
  40ecc9:	call   0x40edeb
  40ecce:	test   eax,eax
  40ecd0:	jne    0x40ecd6
  40ecd2:	xor    eax,eax
  40ecd4:	jmp    0x40ed1c
  40ecd6:	push   0x1
  40ecd8:	push   DWORD PTR [ebp-0x40]
  40ecdb:	xor    edx,edx
  40ecdd:	push   0xf
  40ecdf:	pop    ecx
  40ece0:	call   0x40c39f
  40ece5:	test   eax,eax
  40ece7:	je     0x40ecd2
  40ece9:	push   ecx
  40ecea:	lea    ecx,[ebp-0x40]
  40eced:	mov    edx,eax
  40ecef:	push   ecx
  40ecf0:	mov    ecx,ebx
  40ecf2:	call   0x40edeb
  40ecf7:	neg    eax
  40ecf9:	sbb    eax,eax
  40ecfb:	neg    eax
  40ecfd:	jmp    0x40ed1c
  40ecff:	push   ecx
  40ed00:	lea    edx,[ebp-0x3c]
  40ed03:	mov    ecx,ebx
  40ed05:	call   0x40cde1
  40ed0a:	cmp    eax,0xffffffff
  40ed0d:	je     0x40ed19
  40ed0f:	push   0x35
  40ed11:	call   DWORD PTR ds:0x413030
  40ed17:	jmp    0x40ecd2
  40ed19:	xor    eax,eax
  40ed1b:	inc    eax
  40ed1c:	mov    ecx,DWORD PTR [ebp-0x4]
  40ed1f:	pop    edi
  40ed20:	pop    esi
  40ed21:	xor    ecx,ebp
  40ed23:	pop    ebx
  40ed24:	call   0x411090
  40ed29:	mov    esp,ebp
  40ed2b:	pop    ebp
  40ed2c:	ret    
  40ed2d:	int3   
  40ed2e:	int3   
  40ed2f:	int3   
  40ed30:	int3   
  40ed31:	int3   
  40ed32:	mov    edi,edi
  40ed34:	push   ebp
  40ed35:	mov    ebp,esp
  40ed37:	sub    esp,0x14
  40ed3a:	mov    eax,ds:0x412004
  40ed3f:	xor    eax,ebp
  40ed41:	mov    DWORD PTR [ebp-0x4],eax
  40ed44:	push   ebx
  40ed45:	push   esi
  40ed46:	push   edi
  40ed47:	mov    edi,ecx
  40ed49:	xor    ebx,ebx
  40ed4b:	mov    esi,ebx
  40ed4d:	test   edi,edi
  40ed4f:	je     0x40edc8
  40ed51:	push   edi
  40ed52:	call   DWORD PTR ds:0x4130f0
  40ed58:	test   eax,eax
  40ed5a:	je     0x40edc8
  40ed5c:	push   ebx
  40ed5d:	push   ebx
  40ed5e:	push   0x10
  40ed60:	mov    edx,edi
  40ed62:	pop    ecx
  40ed63:	call   0x40c39f
  40ed68:	test   eax,eax
  40ed6a:	jne    0x40ed7a
  40ed6c:	call   DWORD PTR ds:0x41302c
  40ed72:	test   eax,eax
  40ed74:	jne    0x40edd3
  40ed76:	push   0x8
  40ed78:	jmp    0x40edcd
  40ed7a:	push   0x4017a0
  40ed7f:	push   eax
  40ed80:	call   DWORD PTR ds:0x4131b4
  40ed86:	mov    edi,eax
  40ed88:	pop    ecx
  40ed89:	pop    ecx
  40ed8a:	test   edi,edi
  40ed8c:	je     0x40edc8
  40ed8e:	push   ebx
  40ed8f:	mov    ecx,edi
  40ed91:	call   0x40cbf8
  40ed96:	test   eax,eax
  40ed98:	je     0x40edd3
  40ed9a:	mov    ecx,edi
  40ed9c:	call   0x40cb3a
  40eda1:	cmp    eax,0xff
  40eda6:	ja     0x40edd3
  40eda8:	push   0x4017a0
  40edad:	cmp    esi,0x4
  40edb0:	inc    esi
  40edb1:	push   ebx
  40edb2:	call   DWORD PTR ds:0x4131b4
  40edb8:	mov    edi,eax
  40edba:	pop    ecx
  40edbb:	pop    ecx
  40edbc:	test   edi,edi
  40edbe:	jne    0x40ed8e
  40edc0:	cmp    esi,0x4
  40edc3:	jne    0x40edc8
  40edc5:	inc    eax
  40edc6:	jmp    0x40edd5
  40edc8:	push   0x254f
  40edcd:	call   DWORD PTR ds:0x413030
  40edd3:	xor    eax,eax
  40edd5:	mov    ecx,DWORD PTR [ebp-0x4]
  40edd8:	pop    edi
  40edd9:	pop    esi
  40edda:	xor    ecx,ebp
  40eddc:	pop    ebx
  40eddd:	call   0x411090
  40ede2:	mov    esp,ebp
  40ede4:	pop    ebp
  40ede5:	ret    
  40ede6:	int3   
  40ede7:	int3   
  40ede8:	int3   
  40ede9:	int3   
  40edea:	int3   
  40edeb:	mov    edi,edi
  40eded:	push   ebp
  40edee:	mov    ebp,esp
  40edf0:	sub    esp,0xa14
  40edf6:	mov    eax,ds:0x412004
  40edfb:	xor    eax,ebp
  40edfd:	mov    DWORD PTR [ebp-0x4],eax
  40ee00:	push   ebx
  40ee01:	push   esi
  40ee02:	push   edi
  40ee03:	mov    DWORD PTR [ebp-0x9ec],ecx
  40ee09:	lea    edi,[ebp-0xa0c]
  40ee0f:	xor    ebx,ebx
  40ee11:	xor    eax,eax
  40ee13:	push   0x7
  40ee15:	pop    ecx
  40ee16:	mov    DWORD PTR [ebp-0xa10],ebx
  40ee1c:	mov    esi,edx
  40ee1e:	mov    edx,DWORD PTR [ebp+0x8]
  40ee21:	rep stos DWORD PTR es:[edi],eax
  40ee23:	mov    edi,DWORD PTR [ebp-0x9ec]
  40ee29:	mov    DWORD PTR [ebp-0x9e8],esi
  40ee2f:	mov    DWORD PTR [ebp-0x9f0],edx
  40ee35:	mov    DWORD PTR [ebp-0x9e4],ebx
  40ee3b:	mov    WORD PTR [ebp-0x4e],ax
  40ee3f:	test   edi,edi
  40ee41:	je     0x40ef54
  40ee47:	test   edx,edx
  40ee49:	je     0x40ef54
  40ee4f:	cmp    DWORD PTR [edx],eax
  40ee51:	je     0x40ee64
  40ee53:	cmp    DWORD PTR [edx],0x2
  40ee56:	jb     0x40ef54
  40ee5c:	test   esi,esi
  40ee5e:	je     0x40ef54
  40ee64:	cmp    DWORD PTR ds:0x41246c,eax
  40ee6a:	jne    0x40ee98
  40ee6c:	lea    eax,[ebp-0x9e0]
  40ee72:	push   eax
  40ee73:	push   0x202
  40ee78:	call   DWORD PTR ds:0x413158
  40ee7e:	test   eax,eax
  40ee80:	je     0x40ee8e
  40ee82:	call   DWORD PTR ds:0x41316c
  40ee88:	push   eax
  40ee89:	jmp    0x40ef60
  40ee8e:	mov    DWORD PTR ds:0x41246c,0x1
  40ee98:	lea    eax,[ebp-0x9e4]
  40ee9e:	push   eax
  40ee9f:	lea    eax,[ebp-0xa10]
  40eea5:	push   eax
  40eea6:	push   ebx
  40eea7:	push   edi
  40eea8:	call   DWORD PTR ds:0x413160
  40eeae:	test   eax,eax
  40eeb0:	jne    0x40ef66
  40eeb6:	mov    esi,DWORD PTR [ebp-0x9e4]
  40eebc:	jmp    0x40eefe
  40eebe:	push   0x4
  40eec0:	xor    eax,eax
  40eec2:	mov    WORD PTR [ebp-0x850],ax
  40eec9:	lea    eax,[ebp-0x48]
  40eecc:	push   0x20
  40eece:	push   eax
  40eecf:	push   0x401
  40eed4:	lea    eax,[ebp-0x850]
  40eeda:	push   eax
  40eedb:	push   DWORD PTR [esi+0x10]
  40eede:	push   DWORD PTR [esi+0x18]
  40eee1:	call   DWORD PTR ds:0x413168
  40eee7:	test   eax,eax
  40eee9:	je     0x40ef04
  40eeeb:	cmp    eax,0x2afc
  40eef0:	jne    0x40eefb
  40eef2:	cmp    WORD PTR [ebp-0x850],bx
  40eef9:	jne    0x40ef04
  40eefb:	mov    esi,DWORD PTR [esi+0x1c]
  40eefe:	test   esi,esi
  40ef00:	jne    0x40eebe
  40ef02:	jmp    0x40ef44
  40ef04:	lea    eax,[ebp-0x850]
  40ef0a:	push   0x4017a0
  40ef0f:	push   eax
  40ef10:	call   DWORD PTR ds:0x4131b4
  40ef16:	pop    ecx
  40ef17:	pop    ecx
  40ef18:	mov    esi,eax
  40ef1a:	mov    ecx,esi
  40ef1c:	call   0x40d408
  40ef21:	mov    ecx,DWORD PTR [ebp-0x9f0]
  40ef27:	inc    eax
  40ef28:	cmp    DWORD PTR [ecx],eax
  40ef2a:	jae    0x40ef33
  40ef2c:	xor    ebx,ebx
  40ef2e:	mov    DWORD PTR [ecx],eax
  40ef30:	inc    ebx
  40ef31:	jmp    0x40ef44
  40ef33:	push   DWORD PTR [ecx]
  40ef35:	mov    ecx,DWORD PTR [ebp-0x9e8]
  40ef3b:	mov    edx,esi
  40ef3d:	call   0x40d369
  40ef42:	mov    ebx,eax
  40ef44:	push   DWORD PTR [ebp-0x9e4]
  40ef4a:	call   DWORD PTR ds:0x413164
  40ef50:	mov    eax,ebx
  40ef52:	jmp    0x40ef68
  40ef54:	call   DWORD PTR ds:0x41302c
  40ef5a:	test   eax,eax
  40ef5c:	jne    0x40ef66
  40ef5e:	push   0x57
  40ef60:	call   DWORD PTR ds:0x413030
  40ef66:	xor    eax,eax
  40ef68:	mov    ecx,DWORD PTR [ebp-0x4]
  40ef6b:	pop    edi
  40ef6c:	pop    esi
  40ef6d:	xor    ecx,ebp
  40ef6f:	pop    ebx
  40ef70:	call   0x411090
  40ef75:	mov    esp,ebp
  40ef77:	pop    ebp
  40ef78:	ret    0x8
  40ef7b:	int3   
  40ef7c:	int3   
  40ef7d:	int3   
  40ef7e:	int3   
  40ef7f:	int3   
  40ef80:	mov    edi,edi
  40ef82:	push   ebp
  40ef83:	mov    ebp,esp
  40ef85:	push   ecx
  40ef86:	push   esi
  40ef87:	push   edi
  40ef88:	mov    edi,ecx
  40ef8a:	xor    esi,esi
  40ef8c:	mov    DWORD PTR [ebp-0x4],esi
  40ef8f:	test   edi,edi
  40ef91:	je     0x40efd2
  40ef93:	call   0x40d408
  40ef98:	test   eax,eax
  40ef9a:	je     0x40efd2
  40ef9c:	mov    ecx,edi
  40ef9e:	call   0x40eac7
  40efa3:	test   eax,eax
  40efa5:	jne    0x40efda
  40efa7:	push   edi
  40efa8:	push   0x4017a4
  40efad:	push   0x1
  40efaf:	call   0x40c585
  40efb4:	add    esp,0xc
  40efb7:	test   eax,eax
  40efb9:	jne    0x40efe3
  40efbb:	call   DWORD PTR ds:0x41302c
  40efc1:	test   eax,eax
  40efc3:	jne    0x40efcd
  40efc5:	push   0x8
  40efc7:	call   DWORD PTR ds:0x413030
  40efcd:	call   0x40c619
  40efd2:	xor    eax,eax
  40efd4:	pop    edi
  40efd5:	pop    esi
  40efd6:	mov    esp,ebp
  40efd8:	pop    ebp
  40efd9:	ret    
  40efda:	mov    ecx,edi
  40efdc:	call   0x40c521
  40efe1:	jmp    0x40efb7
  40efe3:	call   0x40c4fc
  40efe8:	test   eax,eax
  40efea:	jne    0x40eff6
  40efec:	push   0xd
  40efee:	pop    ecx
  40efef:	call   0x40c34e
  40eff4:	jmp    0x40f002
  40eff6:	push   esi
  40eff7:	push   esi
  40eff8:	push   0xd
  40effa:	mov    edx,eax
  40effc:	pop    ecx
  40effd:	call   0x40c39f
  40f002:	test   eax,eax
  40f004:	je     0x40efbb
  40f006:	lea    ecx,[ebp-0x4]
  40f009:	push   ecx
  40f00a:	push   0x65
  40f00c:	push   eax
  40f00d:	call   DWORD PTR ds:0x413108
  40f013:	test   eax,eax
  40f015:	jne    0x40efd2
  40f017:	mov    ecx,DWORD PTR [ebp-0x4]
  40f01a:	test   DWORD PTR [ecx+0x10],0x1000
  40f021:	je     0x40f032
  40f023:	mov    eax,DWORD PTR [ecx+0x8]
  40f026:	and    eax,0xf
  40f029:	imul   esi,eax,0x3e8
  40f02f:	add    esi,DWORD PTR [ecx+0xc]
  40f032:	push   ecx
  40f033:	call   DWORD PTR ds:0x41310c
  40f039:	mov    eax,esi
  40f03b:	jmp    0x40efd4
  40f03d:	int3   
  40f03e:	int3   
  40f03f:	int3   
  40f040:	int3   
  40f041:	int3   
  40f042:	mov    edi,edi
  40f044:	push   ebp
  40f045:	mov    ebp,esp
  40f047:	sub    esp,0x24
  40f04a:	push   ebx
  40f04b:	push   esi
  40f04c:	mov    esi,ecx
  40f04e:	mov    ebx,edx
  40f050:	push   edi
  40f051:	test   esi,esi
  40f053:	je     0x40f18f
  40f059:	call   0x40eb0c
  40f05e:	cmp    eax,0x1
  40f061:	je     0x40f18f
  40f067:	mov    ecx,esi
  40f069:	call   0x40eac7
  40f06e:	cmp    eax,0x1
  40f071:	jne    0x40f076
  40f073:	add    esi,0x4
  40f076:	mov    ecx,esi
  40f078:	call   0x40ec7d
  40f07d:	test   eax,eax
  40f07f:	jne    0x40f091
  40f081:	call   0x40c619
  40f086:	call   DWORD PTR ds:0x41302c
  40f08c:	jmp    0x40f1c1
  40f091:	mov    edi,0x4017b0
  40f096:	push   edi
  40f097:	call   DWORD PTR ds:0x4130f0
  40f09d:	test   eax,eax
  40f09f:	je     0x40f0b4
  40f0a1:	push   edi
  40f0a2:	push   esi
  40f0a3:	push   0x4017bc
  40f0a8:	push   0x2
  40f0aa:	call   0x40c585
  40f0af:	add    esp,0x10
  40f0b2:	jmp    0x40f0c4
  40f0b4:	push   esi
  40f0b5:	push   0x4017a4
  40f0ba:	push   0x1
  40f0bc:	call   0x40c585
  40f0c1:	add    esp,0xc
  40f0c4:	test   eax,eax
  40f0c6:	jne    0x40f0e7
  40f0c8:	call   DWORD PTR ds:0x41302c
  40f0ce:	test   eax,eax
  40f0d0:	jne    0x40f0da
  40f0d2:	push   0x8
  40f0d4:	call   DWORD PTR ds:0x413030
  40f0da:	call   0x40c619
  40f0df:	push   0x8
  40f0e1:	pop    eax
  40f0e2:	jmp    0x40f1c1
  40f0e7:	call   0x40c4fc
  40f0ec:	test   eax,eax
  40f0ee:	jne    0x40f0fa
  40f0f0:	push   0x12
  40f0f2:	pop    ecx
  40f0f3:	call   0x40c34e
  40f0f8:	jmp    0x40f108
  40f0fa:	push   0x0
  40f0fc:	push   0x0
  40f0fe:	push   0x12
  40f100:	mov    edx,eax
  40f102:	pop    ecx
  40f103:	call   0x40c39f
  40f108:	mov    edx,eax
  40f10a:	test   edx,edx
  40f10c:	je     0x40f0c8
  40f10e:	push   0x8
  40f110:	xor    eax,eax
  40f112:	lea    edi,[ebp-0x20]
  40f115:	pop    ecx
  40f116:	push   eax
  40f117:	rep stos DWORD PTR es:[edi],eax
  40f119:	push   ebx
  40f11a:	push   DWORD PTR [ebp+0x8]
  40f11d:	mov    DWORD PTR [ebp-0x1c],eax
  40f120:	mov    DWORD PTR [ebp-0x4],eax
  40f123:	mov    DWORD PTR [ebp-0x10],eax
  40f126:	lea    eax,[ebp-0x20]
  40f129:	push   eax
  40f12a:	mov    DWORD PTR [ebp-0xc],edx
  40f12d:	call   DWORD PTR ds:0x413100
  40f133:	mov    edi,eax
  40f135:	test   edi,edi
  40f137:	je     0x40f156
  40f139:	cmp    edi,0x4b8
  40f13f:	je     0x40f14f
  40f141:	push   edi
  40f142:	call   DWORD PTR ds:0x413030
  40f148:	call   0x40c619
  40f14d:	jmp    0x40f18b
  40f14f:	call   0x40c6a5
  40f154:	jmp    0x40f18b
  40f156:	xor    edi,edi
  40f158:	push   edi
  40f159:	call   DWORD PTR ds:0x413030
  40f15f:	mov    ecx,esi
  40f161:	call   0x40ef80
  40f166:	cmp    eax,0x1388
  40f16b:	jae    0x40f18b
  40f16d:	push   ecx
  40f16e:	mov    ecx,esi
  40f170:	call   0x40f1cf
  40f175:	mov    ecx,0x1580
  40f17a:	call   0x40c92c
  40f17f:	mov    ecx,eax
  40f181:	call   0x40c521
  40f186:	mov    edi,0x4b8
  40f18b:	mov    eax,edi
  40f18d:	jmp    0x40f1c1
  40f18f:	test   ebx,ebx
  40f191:	je     0x40f1bf
  40f193:	push   ebx
  40f194:	call   DWORD PTR ds:0x4130f0
  40f19a:	test   eax,eax
  40f19c:	je     0x40f1bf
  40f19e:	mov    ecx,0x157e
  40f1a3:	call   0x40c92c
  40f1a8:	mov    ecx,eax
  40f1aa:	call   0x40c521
  40f1af:	mov    esi,0xa0010001
  40f1b4:	push   esi
  40f1b5:	call   DWORD PTR ds:0x413030
  40f1bb:	mov    eax,esi
  40f1bd:	jmp    0x40f1c1
  40f1bf:	xor    eax,eax
  40f1c1:	pop    edi
  40f1c2:	pop    esi
  40f1c3:	pop    ebx
  40f1c4:	mov    esp,ebp
  40f1c6:	pop    ebp
  40f1c7:	ret    0x8
  40f1ca:	int3   
  40f1cb:	int3   
  40f1cc:	int3   
  40f1cd:	int3   
  40f1ce:	int3   
  40f1cf:	mov    edi,edi
  40f1d1:	push   esi
  40f1d2:	mov    esi,ecx
  40f1d4:	push   edi
  40f1d5:	test   esi,esi
  40f1d7:	je     0x40f283
  40f1dd:	push   esi
  40f1de:	call   DWORD PTR ds:0x4130f0
  40f1e4:	test   eax,eax
  40f1e6:	je     0x40f283
  40f1ec:	mov    ecx,esi
  40f1ee:	call   0x40eac7
  40f1f3:	cmp    eax,0x1
  40f1f6:	jne    0x40f1fb
  40f1f8:	add    esi,0x4
  40f1fb:	push   0x4017b0
  40f200:	push   esi
  40f201:	push   0x4017bc
  40f206:	push   0x2
  40f208:	call   0x40c585
  40f20d:	add    esp,0x10
  40f210:	test   eax,eax
  40f212:	jne    0x40f22b
  40f214:	call   DWORD PTR ds:0x41302c
  40f21a:	test   eax,eax
  40f21c:	jne    0x40f226
  40f21e:	push   0x8
  40f220:	call   DWORD PTR ds:0x413030
  40f226:	push   0x8
  40f228:	pop    eax
  40f229:	jmp    0x40f285
  40f22b:	call   0x40c4fc
  40f230:	xor    edi,edi
  40f232:	test   eax,eax
  40f234:	jne    0x40f240
  40f236:	push   0x12
  40f238:	pop    ecx
  40f239:	call   0x40c34e
  40f23e:	jmp    0x40f24c
  40f240:	push   edi
  40f241:	push   edi
  40f242:	push   0x12
  40f244:	mov    edx,eax
  40f246:	pop    ecx
  40f247:	call   0x40c39f
  40f24c:	test   eax,eax
  40f24e:	je     0x40f214
  40f250:	push   0x1
  40f252:	push   edi
  40f253:	push   eax
  40f254:	call   DWORD PTR ds:0x4130fc
  40f25a:	mov    esi,eax
  40f25c:	test   esi,esi
  40f25e:	je     0x40f276
  40f260:	cmp    esi,0x4b8
  40f266:	je     0x40f26f
  40f268:	call   0x40c619
  40f26d:	jmp    0x40f27f
  40f26f:	call   0x40c6a5
  40f274:	jmp    0x40f27f
  40f276:	push   edi
  40f277:	mov    esi,edi
  40f279:	call   DWORD PTR ds:0x413030
  40f27f:	mov    eax,esi
  40f281:	jmp    0x40f285
  40f283:	xor    eax,eax
  40f285:	pop    edi
  40f286:	pop    esi
  40f287:	ret    0x4
  40f28a:	int3   
  40f28b:	int3   
  40f28c:	int3   
  40f28d:	int3   
  40f28e:	int3   
  40f28f:	mov    edi,edi
  40f291:	push   ebp
  40f292:	mov    ebp,esp
  40f294:	push   ecx
  40f295:	push   ebx
  40f296:	push   esi
  40f297:	push   edi
  40f298:	push   0x0
  40f29a:	mov    ebx,edx
  40f29c:	mov    edi,ecx
  40f29e:	call   DWORD PTR ds:0x413030
  40f2a4:	test   edi,edi
  40f2a6:	je     0x40f39c
  40f2ac:	mov    ecx,edi
  40f2ae:	call   0x40d408
  40f2b3:	test   eax,eax
  40f2b5:	je     0x40f39c
  40f2bb:	cmp    DWORD PTR [ebp+0x14],0x1
  40f2bf:	jne    0x40f2ef
  40f2c1:	test   ebx,ebx
  40f2c3:	je     0x40f2d1
  40f2c5:	cmp    DWORD PTR [ebp+0x8],0x2
  40f2c9:	jb     0x40f2d1
  40f2cb:	cmp    DWORD PTR [ebp+0xc],0x0
  40f2cf:	jne    0x40f2ef
  40f2d1:	call   DWORD PTR ds:0x41302c
  40f2d7:	test   eax,eax
  40f2d9:	jne    0x40f2e3
  40f2db:	push   0x57
  40f2dd:	call   DWORD PTR ds:0x413030
  40f2e3:	call   0x40c619
  40f2e8:	xor    eax,eax
  40f2ea:	jmp    0x40f39f
  40f2ef:	mov    ecx,edi
  40f2f1:	mov    esi,edi
  40f2f3:	call   0x40eac7
  40f2f8:	cmp    eax,0x1
  40f2fb:	jne    0x40f300
  40f2fd:	lea    esi,[edi+0x4]
  40f300:	cmp    DWORD PTR [ebp+0x14],0x1
  40f304:	jne    0x40f332
  40f306:	cmp    DWORD PTR [ebp+0xc],0x0
  40f30a:	je     0x40f332
  40f30c:	mov    ecx,DWORD PTR [ebp+0xc]
  40f30f:	mov    edx,0x401134
  40f314:	push   0x0
  40f316:	push   0x1
  40f318:	call   0x40d41c
  40f31d:	test   eax,eax
  40f31f:	jne    0x40f332
  40f321:	mov    ecx,esi
  40f323:	call   0x40ec7d
  40f328:	test   eax,eax
  40f32a:	jne    0x40f42f
  40f330:	jmp    0x40f2e3
  40f332:	xor    eax,eax
  40f334:	mov    ecx,esi
  40f336:	mov    DWORD PTR [ebp-0x4],eax
  40f339:	call   0x40ec7d
  40f33e:	test   eax,eax
  40f340:	je     0x40f2e3
  40f342:	test   ebx,ebx
  40f344:	je     0x40f375
  40f346:	push   ebx
  40f347:	call   DWORD PTR ds:0x4130f0
  40f34d:	test   eax,eax
  40f34f:	je     0x40f375
  40f351:	mov    eax,DWORD PTR [ebp+0x14]
  40f354:	mov    edx,ebx
  40f356:	neg    eax
  40f358:	push   ecx
  40f359:	sbb    eax,eax
  40f35b:	mov    ecx,edi
  40f35d:	not    eax
  40f35f:	and    eax,DWORD PTR [ebp+0xc]
  40f362:	push   eax
  40f363:	call   0x40f042
  40f368:	cmp    DWORD PTR [ebp+0x14],0x1
  40f36c:	mov    esi,eax
  40f36e:	jne    0x40f389
  40f370:	xor    eax,eax
  40f372:	inc    eax
  40f373:	jmp    0x40f38c
  40f375:	xor    eax,eax
  40f377:	xor    edx,edx
  40f379:	push   ecx
  40f37a:	inc    eax
  40f37b:	mov    ecx,edi
  40f37d:	push   0x0
  40f37f:	mov    DWORD PTR [ebp-0x4],eax
  40f382:	call   0x40f042
  40f387:	mov    esi,eax
  40f389:	mov    eax,DWORD PTR [ebp-0x4]
  40f38c:	cmp    esi,0x55
  40f38f:	jne    0x40f3a8
  40f391:	push   0x50010001
  40f396:	call   DWORD PTR ds:0x413030
  40f39c:	xor    eax,eax
  40f39e:	inc    eax
  40f39f:	pop    edi
  40f3a0:	pop    esi
  40f3a1:	pop    ebx
  40f3a2:	mov    esp,ebp
  40f3a4:	pop    ebp
  40f3a5:	ret    0x10
  40f3a8:	test   esi,esi
  40f3aa:	jne    0x40f3b4
  40f3ac:	cmp    eax,0x1
  40f3af:	je     0x40f391
  40f3b1:	push   esi
  40f3b2:	jmp    0x40f396
  40f3b4:	mov    eax,0x4c3
  40f3b9:	cmp    esi,eax
  40f3bb:	ja     0x40f3e1
  40f3bd:	je     0x40f3de
  40f3bf:	cmp    esi,0x34
  40f3c2:	je     0x40f4c1
  40f3c8:	cmp    esi,0x56
  40f3cb:	je     0x40f425
  40f3cd:	cmp    esi,0x4be
  40f3d3:	je     0x40f4c1
  40f3d9:	jmp    0x40f2e3
  40f3de:	push   eax
  40f3df:	jmp    0x40f396
  40f3e1:	cmp    esi,0x4cf
  40f3e7:	jb     0x40f2e3
  40f3ed:	cmp    esi,0x4d1
  40f3f3:	jbe    0x40f4c1
  40f3f9:	cmp    esi,0x52e
  40f3ff:	je     0x40f425
  40f401:	mov    edi,0xa0010001
  40f406:	cmp    esi,edi
  40f408:	jne    0x40f2e3
  40f40e:	mov    ecx,0x157e
  40f413:	call   0x40c92c
  40f418:	mov    ecx,eax
  40f41a:	call   0x40c521
  40f41f:	push   edi
  40f420:	jmp    0x40f396
  40f425:	cmp    DWORD PTR [ebp+0x14],0x0
  40f429:	je     0x40f2e8
  40f42f:	push   ebx
  40f430:	call   DWORD PTR ds:0x4130f0
  40f436:	test   eax,eax
  40f438:	jne    0x40f44f
  40f43a:	lea    eax,[ebp+0x8]
  40f43d:	push   eax
  40f43e:	push   ebx
  40f43f:	push   0x2
  40f441:	call   DWORD PTR ds:0x413130
  40f447:	test   al,al
  40f449:	je     0x40f2e3
  40f44f:	push   ebx
  40f450:	mov    ecx,0x157d
  40f455:	call   0x40c92c
  40f45a:	push   eax
  40f45b:	push   0x1
  40f45d:	push   0x1
  40f45f:	push   0x1
  40f461:	call   0x411711
  40f466:	pop    ecx
  40f467:	push   eax
  40f468:	call   0x40d6cd
  40f46d:	mov    ecx,DWORD PTR [ebp+0xc]
  40f470:	add    esp,0x14
  40f473:	call   0x40d8f0
  40f478:	push   ecx
  40f479:	push   DWORD PTR [ebp+0xc]
  40f47c:	mov    edx,ebx
  40f47e:	mov    ecx,edi
  40f480:	call   0x40f042
  40f485:	mov    esi,eax
  40f487:	test   esi,esi
  40f489:	je     0x40f39c
  40f48f:	cmp    esi,0x34
  40f492:	je     0x40f4c1
  40f494:	cmp    esi,0x4be
  40f49a:	je     0x40f4c1
  40f49c:	mov    eax,0x4c3
  40f4a1:	cmp    esi,eax
  40f4a3:	je     0x40f3de
  40f4a9:	cmp    esi,0x4ce
  40f4af:	jbe    0x40f2e3
  40f4b5:	cmp    esi,0x4d1
  40f4bb:	ja     0x40f401
  40f4c1:	push   0x4c6
  40f4c6:	call   DWORD PTR ds:0x413030
  40f4cc:	call   0x40c619
  40f4d1:	push   esi
  40f4d2:	call   DWORD PTR ds:0x413030
  40f4d8:	jmp    0x40f2e8
  40f4dd:	int3   
  40f4de:	int3   
  40f4df:	int3   
  40f4e0:	int3   
  40f4e1:	int3   
  40f4e2:	mov    edi,edi
  40f4e4:	push   ebp
  40f4e5:	mov    ebp,esp
  40f4e7:	sub    esp,0x14
  40f4ea:	push   ebx
  40f4eb:	push   esi
  40f4ec:	push   edi
  40f4ed:	mov    esi,ecx
  40f4ef:	mov    ebx,edx
  40f4f1:	push   0x16
  40f4f3:	pop    ecx
  40f4f4:	mov    DWORD PTR [ebp-0x14],esi
  40f4f7:	call   0x40c34e
  40f4fc:	mov    edi,eax
  40f4fe:	test   edi,edi
  40f500:	je     0x40f5dd
  40f506:	cmp    DWORD PTR [ebp+0x8],0x0
  40f50a:	je     0x40f5dd
  40f510:	mov    ecx,edi
  40f512:	call   0x40dd9e
  40f517:	shr    eax,1
  40f519:	mov    edx,0x401050
  40f51e:	push   eax
  40f51f:	mov    ecx,edi
  40f521:	call   0x40d369
  40f526:	mov    ecx,esi
  40f528:	call   0x40e5c6
  40f52d:	push   0x1
  40f52f:	lea    esi,[ebx+0x5]
  40f532:	mov    DWORD PTR [ebp-0x8],eax
  40f535:	push   esi
  40f536:	push   0x13
  40f538:	xor    edx,edx
  40f53a:	pop    ecx
  40f53b:	call   0x40c39f
  40f540:	push   0x1
  40f542:	push   esi
  40f543:	push   0x14
  40f545:	xor    edx,edx
  40f547:	mov    DWORD PTR [ebp-0x4],eax
  40f54a:	pop    ecx
  40f54b:	call   0x40c39f
  40f550:	cmp    DWORD PTR [ebp-0x4],0x0
  40f554:	mov    DWORD PTR [ebp-0xc],eax
  40f557:	je     0x40f5dd
  40f55d:	test   eax,eax
  40f55f:	je     0x40f5dd
  40f561:	mov    ecx,DWORD PTR [ebp+0xc]
  40f564:	call   0x40cf10
  40f569:	xor    esi,esi
  40f56b:	mov    DWORD PTR [ebp-0x10],eax
  40f56e:	cmp    DWORD PTR [ebp-0x8],esi
  40f571:	jbe    0x40f5dd
  40f573:	mov    ecx,DWORD PTR [ebp-0x14]
  40f576:	mov    edx,esi
  40f578:	push   ebx
  40f579:	push   DWORD PTR [ebp-0xc]
  40f57c:	call   0x40e737
  40f581:	push   DWORD PTR [ebp-0xc]
  40f584:	mov    ecx,DWORD PTR [ebp-0x4]
  40f587:	push   DWORD PTR [ebp+0x8]
  40f58a:	call   0x40dd9e
  40f58f:	shr    eax,1
  40f591:	dec    eax
  40f592:	push   eax
  40f593:	push   DWORD PTR [ebp-0x4]
  40f596:	call   0x401b75
  40f59b:	add    esp,0x10
  40f59e:	mov    ecx,edi
  40f5a0:	call   0x40dd9e
  40f5a5:	mov    edx,DWORD PTR [ebp-0x4]
  40f5a8:	mov    ecx,edi
  40f5aa:	shr    eax,1
  40f5ac:	push   eax
  40f5ad:	call   0x40d3ce
  40f5b2:	mov    eax,DWORD PTR [ebp-0x8]
  40f5b5:	inc    esi
  40f5b6:	cmp    esi,eax
  40f5b8:	jae    0x40f5dd
  40f5ba:	cmp    ebx,DWORD PTR [ebp-0x10]
  40f5bd:	jb     0x40f5dd
  40f5bf:	mov    ecx,edi
  40f5c1:	call   0x40dd9e
  40f5c6:	mov    edx,DWORD PTR [ebp+0xc]
  40f5c9:	mov    ecx,edi
  40f5cb:	shr    eax,1
  40f5cd:	push   eax
  40f5ce:	call   0x40d3ce
  40f5d3:	sub    ebx,DWORD PTR [ebp-0x10]
  40f5d6:	mov    eax,DWORD PTR [ebp-0x8]
  40f5d9:	cmp    esi,eax
  40f5db:	jb     0x40f573
  40f5dd:	pop    edi
  40f5de:	pop    esi
  40f5df:	pop    ebx
  40f5e0:	mov    esp,ebp
  40f5e2:	pop    ebp
  40f5e3:	ret    0x8
  40f5e6:	int3   
  40f5e7:	int3   
  40f5e8:	int3   
  40f5e9:	int3   
  40f5ea:	int3   
  40f5eb:	mov    edi,edi
  40f5ed:	push   ebp
  40f5ee:	mov    ebp,esp
  40f5f0:	sub    esp,0x54
  40f5f3:	mov    eax,ds:0x412004
  40f5f8:	xor    eax,ebp
  40f5fa:	mov    DWORD PTR [ebp-0x4],eax
  40f5fd:	push   ebx
  40f5fe:	push   esi
  40f5ff:	push   edi
  40f600:	mov    DWORD PTR [ebp-0x30],edx
  40f603:	mov    esi,ecx
  40f605:	mov    DWORD PTR [ebp-0x3c],esi
  40f608:	mov    eax,DWORD PTR [ebp+0x8]
  40f60b:	mov    DWORD PTR [ebp-0x34],eax
  40f60e:	mov    eax,DWORD PTR [ebp+0xc]
  40f611:	mov    DWORD PTR [ebp-0x38],eax
  40f614:	mov    eax,ds:0x4017cc
  40f619:	mov    DWORD PTR [ebp-0x1c],eax
  40f61c:	mov    ax,ds:0x4017d0
  40f622:	mov    WORD PTR [ebp-0x18],ax
  40f626:	mov    eax,ds:0x4017d4
  40f62b:	mov    DWORD PTR [ebp-0x14],eax
  40f62e:	mov    ax,ds:0x4017d8
  40f634:	mov    WORD PTR [ebp-0x10],ax
  40f638:	mov    eax,ds:0x40174c
  40f63d:	mov    DWORD PTR [ebp-0xc],eax
  40f640:	mov    ax,ds:0x401750
  40f646:	push   0x16
  40f648:	pop    ecx
  40f649:	mov    WORD PTR [ebp-0x8],ax
  40f64d:	call   0x40c34e
  40f652:	mov    ebx,eax
  40f654:	test   esi,esi
  40f656:	je     0x40f791
  40f65c:	test   ebx,ebx
  40f65e:	je     0x40f791
  40f664:	xor    eax,eax
  40f666:	lea    edi,[ebp-0x2c]
  40f669:	stos   DWORD PTR es:[edi],eax
  40f66a:	mov    ecx,ebx
  40f66c:	stos   DWORD PTR es:[edi],eax
  40f66d:	stos   DWORD PTR es:[edi],eax
  40f66e:	stos   DWORD PTR es:[edi],eax
  40f66f:	call   0x40dd9e
  40f674:	shr    eax,1
  40f676:	mov    edi,0x401050
  40f67b:	push   eax
  40f67c:	mov    edx,edi
  40f67e:	mov    ecx,ebx
  40f680:	call   0x40d369
  40f685:	mov    ecx,DWORD PTR [esi+0x204]
  40f68b:	mov    eax,ecx
  40f68d:	push   0x10
  40f68f:	and    eax,0xff0
  40f694:	pop    edx
  40f695:	sub    eax,edx
  40f697:	je     0x40f859
  40f69d:	sub    eax,edx
  40f69f:	je     0x40f81a
  40f6a5:	sub    eax,edx
  40f6a7:	je     0x40f7d3
  40f6ad:	sub    eax,edx
  40f6af:	je     0x40f7a4
  40f6b5:	sub    eax,0x20
  40f6b8:	je     0x40f705
  40f6ba:	sub    eax,0x20
  40f6bd:	je     0x40f6d7
  40f6bf:	mov    ecx,ebx
  40f6c1:	call   0x40dd9e
  40f6c6:	shr    eax,1
  40f6c8:	mov    edx,edi
  40f6ca:	push   eax
  40f6cb:	mov    ecx,ebx
  40f6cd:	call   0x40d369
  40f6d2:	jmp    0x40f75d
  40f6d7:	mov    edi,DWORD PTR [esi+0x28c]
  40f6dd:	test   edi,edi
  40f6df:	je     0x40f791
  40f6e5:	mov    eax,DWORD PTR [esi+0x290]
  40f6eb:	test   eax,eax
  40f6ed:	jne    0x40f6f1
  40f6ef:	mov    eax,esi
  40f6f1:	push   ebx
  40f6f2:	push   eax
  40f6f3:	push   DWORD PTR [ebp-0x34]
  40f6f6:	mov    ecx,edi
  40f6f8:	push   DWORD PTR [ebp-0x30]
  40f6fb:	call   DWORD PTR ds:0x413210
  40f701:	call   edi
  40f703:	jmp    0x40f75d
  40f705:	mov    edx,DWORD PTR [ebp-0x30]
  40f708:	lea    eax,[ebp-0x50]
  40f70b:	mov    ecx,DWORD PTR [ebp-0x34]
  40f70e:	push   eax
  40f70f:	call   0x40e6c3
  40f714:	mov    esi,eax
  40f716:	lea    edi,[ebp-0x2c]
  40f719:	push   0xfe
  40f71e:	push   ebx
  40f71f:	push   0x0
  40f721:	movs   DWORD PTR es:[edi],DWORD PTR ds:[esi]
  40f722:	lea    eax,[ebp-0x2c]
  40f725:	push   eax
  40f726:	push   0x80000000
  40f72b:	push   0x400
  40f730:	movs   DWORD PTR es:[edi],DWORD PTR ds:[esi]
  40f731:	movs   DWORD PTR es:[edi],DWORD PTR ds:[esi]
  40f732:	movs   DWORD PTR es:[edi],DWORD PTR ds:[esi]
  40f733:	call   DWORD PTR ds:0x413048
  40f739:	test   eax,eax
  40f73b:	jne    0x40f75a
  40f73d:	call   0x40c619
  40f742:	mov    ecx,ebx
  40f744:	call   0x40dd9e
  40f749:	shr    eax,1
  40f74b:	push   eax
  40f74c:	call   0x40c4fc
  40f751:	mov    edx,eax
  40f753:	mov    ecx,ebx
  40f755:	call   0x40d369
  40f75a:	mov    esi,DWORD PTR [ebp-0x3c]
  40f75d:	push   ebx
  40f75e:	call   DWORD PTR ds:0x4130f0
  40f764:	test   eax,eax
  40f766:	jne    0x40f791
  40f768:	test   DWORD PTR [esi+0x204],0x100000
  40f772:	je     0x40f791
  40f774:	mov    ecx,ebx
  40f776:	call   0x40dd9e
  40f77b:	shr    eax,1
  40f77d:	mov    ecx,0x138d
  40f782:	push   eax
  40f783:	call   0x40c92c
  40f788:	mov    edx,eax
  40f78a:	mov    ecx,ebx
  40f78c:	call   0x40d369
  40f791:	mov    ecx,DWORD PTR [ebp-0x4]
  40f794:	pop    edi
  40f795:	pop    esi
  40f796:	xor    ecx,ebp
  40f798:	pop    ebx
  40f799:	call   0x411090
  40f79e:	mov    esp,ebp
  40f7a0:	pop    ebp
  40f7a1:	ret    0x8
  40f7a4:	lea    edi,[esi+0x208]
  40f7aa:	test   ecx,0x2000
  40f7b0:	jne    0x40f7b5
  40f7b2:	lea    edi,[ebp-0xc]
  40f7b5:	mov    edx,DWORD PTR [ebp-0x30]
  40f7b8:	test   ecx,0x4000
  40f7be:	mov    ecx,DWORD PTR [ebp-0x34]
  40f7c1:	jne    0x40f878
  40f7c7:	call   0x40e69d
  40f7cc:	push   ecx
  40f7cd:	push   ecx
  40f7ce:	fstp   QWORD PTR [esp]
  40f7d1:	jmp    0x40f800
  40f7d3:	lea    edi,[esi+0x208]
  40f7d9:	test   ecx,0x2000
  40f7df:	jne    0x40f7e4
  40f7e1:	lea    edi,[ebp-0xc]
  40f7e4:	mov    edx,DWORD PTR [ebp-0x30]
  40f7e7:	test   ecx,0x4000
  40f7ed:	mov    ecx,DWORD PTR [ebp-0x34]
  40f7f0:	jne    0x40f878
  40f7f6:	call   0x40e677
  40f7fb:	push   ecx
  40f7fc:	push   ecx
  40f7fd:	fstp   QWORD PTR [esp]
  40f800:	push   edi
  40f801:	mov    ecx,ebx
  40f803:	call   0x40dd9e
  40f808:	shr    eax,1
  40f80a:	dec    eax
  40f80b:	push   eax
  40f80c:	push   ebx
  40f80d:	call   0x401b75
  40f812:	add    esp,0x14
  40f815:	jmp    0x40f75d
  40f81a:	lea    edi,[esi+0x208]
  40f820:	test   ecx,0x2000
  40f826:	jne    0x40f82b
  40f828:	lea    edi,[ebp-0x14]
  40f82b:	mov    edx,DWORD PTR [ebp-0x30]
  40f82e:	test   ecx,0x4000
  40f834:	mov    ecx,DWORD PTR [ebp-0x34]
  40f837:	jne    0x40f878
  40f839:	call   0x40e64c
  40f83e:	push   eax
  40f83f:	push   edi
  40f840:	mov    ecx,ebx
  40f842:	call   0x40dd9e
  40f847:	shr    eax,1
  40f849:	dec    eax
  40f84a:	push   eax
  40f84b:	push   ebx
  40f84c:	call   0x401b75
  40f851:	add    esp,0x10
  40f854:	jmp    0x40f75d
  40f859:	lea    edi,[esi+0x208]
  40f85f:	test   ecx,0x2000
  40f865:	jne    0x40f86a
  40f867:	lea    edi,[ebp-0x1c]
  40f86a:	mov    edx,DWORD PTR [ebp-0x30]
  40f86d:	test   ecx,0x4000
  40f873:	mov    ecx,DWORD PTR [ebp-0x34]
  40f876:	je     0x40f89b
  40f878:	call   0x40e603
  40f87d:	test   eax,eax
  40f87f:	je     0x40f791
  40f885:	push   DWORD PTR [ebp-0x38]
  40f888:	mov    edx,DWORD PTR [esi+0x200]
  40f88e:	mov    ecx,eax
  40f890:	push   edi
  40f891:	call   0x40f4e2
  40f896:	jmp    0x40f75d
  40f89b:	call   0x40e62c
  40f8a0:	test   eax,eax
  40f8a2:	je     0x40f791
  40f8a8:	jmp    0x40f83e
  40f8aa:	int3   
  40f8ab:	int3   
  40f8ac:	int3   
  40f8ad:	int3   
  40f8ae:	int3   
  40f8af:	mov    edi,edi
  40f8b1:	push   ebp
  40f8b2:	mov    ebp,esp
  40f8b4:	sub    esp,0xc0
  40f8ba:	mov    eax,ds:0x412004
  40f8bf:	xor    eax,ebp
  40f8c1:	mov    DWORD PTR [ebp-0x8],eax
  40f8c4:	mov    eax,DWORD PTR [ebp+0x10]
  40f8c7:	and    DWORD PTR [ebp-0x8c],0x0
  40f8ce:	push   ebx
  40f8cf:	mov    ebx,DWORD PTR [ebp+0x8]
  40f8d2:	push   esi
  40f8d3:	push   edi
  40f8d4:	push   0x7c
  40f8d6:	mov    DWORD PTR [ebp-0xa4],eax
  40f8dc:	mov    esi,ecx
  40f8de:	lea    eax,[ebp-0x88]
  40f8e4:	mov    DWORD PTR [ebp-0x94],esi
  40f8ea:	push   0x0
  40f8ec:	push   eax
  40f8ed:	mov    DWORD PTR [ebp-0xb0],ebx
  40f8f3:	call   0x411770
  40f8f8:	add    esp,0xc
  40f8fb:	test   esi,esi
  40f8fd:	je     0x40fb53
  40f903:	test   ebx,ebx
  40f905:	je     0x40fb53
  40f90b:	push   0x1
  40f90d:	push   0x1000
  40f912:	push   0x16
  40f914:	xor    edx,edx
  40f916:	pop    ecx
  40f917:	call   0x40c39f
  40f91c:	mov    DWORD PTR [ebp-0x90],eax
  40f922:	test   eax,eax
  40f924:	jne    0x40f93b
  40f926:	call   DWORD PTR ds:0x41302c
  40f92c:	test   eax,eax
  40f92e:	jne    0x40fb65
  40f934:	push   0x8
  40f936:	jmp    0x40fb5f
  40f93b:	push   0x4
  40f93d:	mov    edi,ebx
  40f93f:	xor    esi,esi
  40f941:	pop    ebx
  40f942:	mov    ecx,edi
  40f944:	call   0x40cf10
  40f949:	cmp    esi,eax
  40f94b:	jae    0x40f94f
  40f94d:	mov    esi,eax
  40f94f:	add    edi,0x294
  40f955:	sub    ebx,0x1
  40f958:	jne    0x40f942
  40f95a:	mov    ecx,DWORD PTR [ebp-0xa4]
  40f960:	mov    DWORD PTR [ebp-0xa0],esi
  40f966:	call   0x40e5c6
  40f96b:	mov    esi,DWORD PTR [ebp-0x94]
  40f971:	mov    DWORD PTR [ebp-0x9c],eax
  40f977:	mov    DWORD PTR [ebp-0xac],ebx
  40f97d:	test   eax,eax
  40f97f:	je     0x40fb6a
  40f985:	mov    edx,ebx
  40f987:	call   0x40e603
  40f98c:	mov    DWORD PTR [ebp-0xbc],eax
  40f992:	test   eax,eax
  40f994:	je     0x40fb38
  40f99a:	mov    ebx,DWORD PTR [ebp-0xb0]
  40f9a0:	and    DWORD PTR [ebp-0x98],0x0
  40f9a7:	add    ebx,0x200
  40f9ad:	mov    edi,DWORD PTR [ebp-0x90]
  40f9b3:	mov    DWORD PTR [ebp-0xa8],ebx
  40f9b9:	mov    ecx,edi
  40f9bb:	call   0x40dd9e
  40f9c0:	shr    eax,1
  40f9c2:	mov    edx,0x401050
  40f9c7:	push   eax
  40f9c8:	mov    ecx,edi
  40f9ca:	call   0x40d369
  40f9cf:	test   DWORD PTR [ebx+0x4],0x1000
  40f9d6:	jne    0x40faf9
  40f9dc:	mov    ecx,DWORD PTR [ebp-0x90]
  40f9e2:	lea    edi,[ebx-0x200]
  40f9e8:	push   edi
  40f9e9:	push   0x4017dc
  40f9ee:	call   0x40dd9e
  40f9f3:	shr    eax,1
  40f9f5:	dec    eax
  40f9f6:	push   eax
  40f9f7:	push   DWORD PTR [ebp-0x90]
  40f9fd:	call   0x401b75
  40fa02:	mov    eax,DWORD PTR [ebp-0xa0]
  40fa08:	add    esp,0x10
  40fa0b:	mov    ecx,DWORD PTR [ebp-0x90]
  40fa11:	add    eax,0x2
  40fa14:	mov    edx,eax
  40fa16:	mov    DWORD PTR [ebp-0xb4],eax
  40fa1c:	push   0x0
  40fa1e:	call   0x40d044
  40fa23:	mov    edx,DWORD PTR [ebp-0x90]
  40fa29:	mov    ecx,esi
  40fa2b:	call   0x40d474
  40fa30:	mov    ecx,DWORD PTR [ebp-0x90]
  40fa36:	mov    esi,DWORD PTR [ebx]
  40fa38:	call   0x40dd9e
  40fa3d:	mov    edx,DWORD PTR [ebp-0x98]
  40fa43:	mov    ecx,edi
  40fa45:	push   0x40120c
  40fa4a:	push   DWORD PTR [ebp-0xbc]
  40fa50:	shr    eax,1
  40fa52:	mov    DWORD PTR [ebx],eax
  40fa54:	call   0x40f5eb
  40fa59:	mov    edi,DWORD PTR [ebp-0x90]
  40fa5f:	push   0x40120c
  40fa64:	push   edi
  40fa65:	mov    DWORD PTR [ebx],esi
  40fa67:	call   DWORD PTR ds:0x4131b4
  40fa6d:	mov    esi,DWORD PTR [ebp-0x94]
  40fa73:	mov    DWORD PTR [ebp-0xb8],eax
  40fa79:	pop    ecx
  40fa7a:	pop    ecx
  40fa7b:	test   eax,eax
  40fa7d:	je     0x40faed
  40fa7f:	mov    ebx,eax
  40fa81:	mov    edx,ebx
  40fa83:	mov    ecx,esi
  40fa85:	call   0x40d474
  40fa8a:	push   0x40120c
  40fa8f:	push   0x0
  40fa91:	call   DWORD PTR ds:0x4131b4
  40fa97:	mov    ebx,eax
  40fa99:	pop    ecx
  40fa9a:	pop    ecx
  40fa9b:	test   ebx,ebx
  40fa9d:	je     0x40fae7
  40fa9f:	mov    ecx,edi
  40faa1:	call   0x40dd9e
  40faa6:	shr    eax,1
  40faa8:	lea    ecx,[ebp-0x8c]
  40faae:	push   eax
  40faaf:	mov    edx,0x40119c
  40fab4:	call   0x40d369
  40fab9:	mov    edx,DWORD PTR [ebp-0xb4]
  40fabf:	lea    ecx,[ebp-0x8c]
  40fac5:	push   0x0
  40fac7:	call   0x40d044
  40facc:	mov    edx,0x40120c
  40fad1:	mov    ecx,esi
  40fad3:	call   0x40d474
  40fad8:	lea    edx,[ebp-0x8c]
  40fade:	mov    ecx,esi
  40fae0:	call   0x40d474
  40fae5:	jmp    0x40fa81
  40fae7:	mov    ebx,DWORD PTR [ebp-0xa8]
  40faed:	mov    edx,0x40120c
  40faf2:	mov    ecx,esi
  40faf4:	call   0x40d474
  40faf9:	mov    eax,DWORD PTR [ebp-0x98]
  40faff:	add    ebx,0x294
  40fb05:	inc    eax
  40fb06:	mov    DWORD PTR [ebp-0xa8],ebx
  40fb0c:	mov    DWORD PTR [ebp-0x98],eax
  40fb12:	cmp    eax,0x4
  40fb15:	jb     0x40f9b9
  40fb1b:	mov    ebx,DWORD PTR [ebp-0xac]
  40fb21:	lea    eax,[ebx+0x1]
  40fb24:	cmp    eax,DWORD PTR [ebp-0x9c]
  40fb2a:	jae    0x40fb38
  40fb2c:	mov    edx,0x40120c
  40fb31:	mov    ecx,esi
  40fb33:	call   0x40d474
  40fb38:	mov    ecx,DWORD PTR [ebp-0xa4]
  40fb3e:	inc    ebx
  40fb3f:	mov    DWORD PTR [ebp-0xac],ebx
  40fb45:	cmp    ebx,DWORD PTR [ebp-0x9c]
  40fb4b:	jb     0x40f985
  40fb51:	jmp    0x40fb6a
  40fb53:	call   DWORD PTR ds:0x41302c
  40fb59:	test   eax,eax
  40fb5b:	jne    0x40fb65
  40fb5d:	push   0x57
  40fb5f:	call   DWORD PTR ds:0x413030
  40fb65:	call   0x40c619
  40fb6a:	mov    ecx,DWORD PTR [ebp-0x8]
  40fb6d:	pop    edi
  40fb6e:	pop    esi
  40fb6f:	xor    ecx,ebp
  40fb71:	pop    ebx
  40fb72:	call   0x411090
  40fb77:	mov    esp,ebp
  40fb79:	pop    ebp
  40fb7a:	ret    0xc
  40fb7d:	int3   
  40fb7e:	int3   
  40fb7f:	int3   
  40fb80:	int3   
  40fb81:	int3   
  40fb82:	mov    edi,edi
  40fb84:	push   esi
  40fb85:	push   0x0
  40fb87:	mov    esi,ecx
  40fb89:	call   DWORD PTR ds:0x413030
  40fb8f:	test   esi,esi
  40fb91:	jne    0x40fba9
  40fb93:	call   DWORD PTR ds:0x41302c
  40fb99:	test   eax,eax
  40fb9b:	jne    0x40fba5
  40fb9d:	push   0x57
  40fb9f:	call   DWORD PTR ds:0x413030
  40fba5:	xor    eax,eax
  40fba7:	pop    esi
  40fba8:	ret    
  40fba9:	push   esi
  40fbaa:	call   DWORD PTR ds:0x4130f0
  40fbb0:	cmp    eax,0x1
  40fbb3:	jle    0x40fba5
  40fbb5:	mov    dx,WORD PTR [esi]
  40fbb8:	push   ecx
  40fbb9:	push   ecx
  40fbba:	mov    ecx,0x401884
  40fbbf:	call   0x40ccb3
  40fbc4:	cmp    eax,0xffffffff
  40fbc7:	je     0x40fba5
  40fbc9:	xor    eax,eax
  40fbcb:	inc    eax
  40fbcc:	pop    esi
  40fbcd:	ret    
  40fbce:	int3   
  40fbcf:	int3   
  40fbd0:	int3   
  40fbd1:	int3   
  40fbd2:	int3   
  40fbd3:	mov    edi,edi
  40fbd5:	push   ebp
  40fbd6:	mov    ebp,esp
  40fbd8:	sub    esp,0x1c
  40fbdb:	push   ebx
  40fbdc:	push   esi
  40fbdd:	xor    esi,esi
  40fbdf:	mov    ebx,ecx
  40fbe1:	push   edi
  40fbe2:	push   esi
  40fbe3:	mov    DWORD PTR [ebp-0x1c],esi
  40fbe6:	mov    DWORD PTR [ebp-0x8],esi
  40fbe9:	mov    DWORD PTR [ebp-0x10],esi
  40fbec:	mov    DWORD PTR [ebp-0x4],esi
  40fbef:	mov    DWORD PTR [ebp-0x14],esi
  40fbf2:	call   DWORD PTR ds:0x413030
  40fbf8:	mov    eax,esi
  40fbfa:	mov    edx,0x104
  40fbff:	neg    eax
  40fc01:	push   0x1
  40fc03:	sbb    eax,eax
  40fc05:	and    eax,0x104
  40fc0a:	add    edx,eax
  40fc0c:	push   edx
  40fc0d:	push   0x7
  40fc0f:	mov    DWORD PTR [ebp-0x8],edx
  40fc12:	xor    edx,edx
  40fc14:	pop    ecx
  40fc15:	call   0x40c39f
  40fc1a:	mov    edi,eax
  40fc1c:	test   edi,edi
  40fc1e:	je     0x40fdd5
  40fc24:	push   DWORD PTR [ebp-0x8]
  40fc27:	push   edi
  40fc28:	push   esi
  40fc29:	call   DWORD PTR ds:0x413044
  40fc2f:	test   eax,eax
  40fc31:	je     0x40fde7
  40fc37:	mov    edx,DWORD PTR [ebp-0x8]
  40fc3a:	lea    ecx,[edx-0x1]
  40fc3d:	cmp    eax,ecx
  40fc3f:	jae    0x40fbff
  40fc41:	lea    eax,[ebp-0x1c]
  40fc44:	push   eax
  40fc45:	push   edi
  40fc46:	push   0x1
  40fc48:	call   DWORD PTR ds:0x413150
  40fc4e:	mov    DWORD PTR [ebp-0x8],eax
  40fc51:	test   eax,eax
  40fc53:	jne    0x40fc78
  40fc55:	call   DWORD PTR ds:0x41302c
  40fc5b:	test   eax,eax
  40fc5d:	jne    0x40fde7
  40fc63:	call   DWORD PTR ds:0x41302c
  40fc69:	test   eax,eax
  40fc6b:	jne    0x40fde7
  40fc71:	push   0x57
  40fc73:	jmp    0x40fde1
  40fc78:	add    eax,0xa
  40fc7b:	mov    ecx,eax
  40fc7d:	mov    DWORD PTR [ebp-0x8],eax
  40fc80:	call   0x40dc18
  40fc85:	mov    esi,eax
  40fc87:	mov    DWORD PTR [ebp-0xc],esi
  40fc8a:	test   esi,esi
  40fc8c:	je     0x40fde7
  40fc92:	push   esi
  40fc93:	push   DWORD PTR [ebp-0x8]
  40fc96:	push   0x0
  40fc98:	push   edi
  40fc99:	push   0x3
  40fc9b:	call   DWORD PTR ds:0x41314c
  40fca1:	test   eax,eax
  40fca3:	jne    0x40fcb2
  40fca5:	lea    ecx,[ebp-0xc]
  40fca8:	call   0x40db64
  40fcad:	jmp    0x40fde7
  40fcb2:	lea    eax,[ebp-0x10]
  40fcb5:	push   eax
  40fcb6:	lea    eax,[ebp-0x14]
  40fcb9:	push   eax
  40fcba:	push   0x4017e4
  40fcbf:	push   esi
  40fcc0:	call   DWORD PTR ds:0x413148
  40fcc6:	test   eax,eax
  40fcc8:	je     0x40fca5
  40fcca:	push   0x1
  40fccc:	push   0x40
  40fcce:	push   0x7
  40fcd0:	xor    edx,edx
  40fcd2:	pop    ecx
  40fcd3:	call   0x40c39f
  40fcd8:	and    DWORD PTR [ebp-0x4],0x0
  40fcdc:	mov    edx,eax
  40fcde:	xor    edi,edi
  40fce0:	mov    DWORD PTR [ebp-0x18],edx
  40fce3:	test   DWORD PTR [ebp-0x10],0xfffffffc
  40fcea:	jbe    0x40fca5
  40fcec:	mov    ecx,DWORD PTR [ebp-0x14]
  40fcef:	movzx  eax,WORD PTR [ecx+edi*4+0x2]
  40fcf4:	push   eax
  40fcf5:	movzx  eax,WORD PTR [ecx+edi*4]
  40fcf9:	push   eax
  40fcfa:	push   0x401818
  40fcff:	push   0x40
  40fd01:	push   edx
  40fd02:	call   0x401b75
  40fd07:	add    esp,0x14
  40fd0a:	lea    eax,[ebp-0x8]
  40fd0d:	push   eax
  40fd0e:	lea    eax,[ebp-0x4]
  40fd11:	push   eax
  40fd12:	push   DWORD PTR [ebp-0x18]
  40fd15:	push   esi
  40fd16:	call   DWORD PTR ds:0x413148
  40fd1c:	test   eax,eax
  40fd1e:	jne    0x40fd35
  40fd20:	mov    eax,DWORD PTR [ebp-0x10]
  40fd23:	xor    ecx,ecx
  40fd25:	mov    edx,DWORD PTR [ebp-0x18]
  40fd28:	inc    edi
  40fd29:	shr    eax,0x2
  40fd2c:	mov    DWORD PTR [ebp-0x4],ecx
  40fd2f:	cmp    edi,eax
  40fd31:	jb     0x40fcec
  40fd33:	jmp    0x40fd38
  40fd35:	mov    ecx,DWORD PTR [ebp-0x4]
  40fd38:	test   ecx,ecx
  40fd3a:	je     0x40fca5
  40fd40:	call   0x40d408
  40fd45:	cmp    eax,0x4
  40fd48:	ja     0x40fd67
  40fd4a:	lea    ecx,[ebp-0xc]
  40fd4d:	call   0x40db64
  40fd52:	call   DWORD PTR ds:0x41302c
  40fd58:	test   eax,eax
  40fd5a:	jne    0x40fde7
  40fd60:	push   0x42b
  40fd65:	jmp    0x40fde1
  40fd67:	mov    ecx,DWORD PTR [ebp-0x4]
  40fd6a:	mov    edi,0x401864
  40fd6f:	push   0x0
  40fd71:	push   0x1
  40fd73:	mov    edx,edi
  40fd75:	call   0x40ce8e
  40fd7a:	cmp    eax,0xffffffff
  40fd7d:	je     0x40fd9c
  40fd7f:	push   DWORD PTR [ebp-0x4]
  40fd82:	call   DWORD PTR ds:0x4130f0
  40fd88:	push   edi
  40fd89:	mov    esi,eax
  40fd8b:	call   DWORD PTR ds:0x4130f0
  40fd91:	mov    ecx,DWORD PTR [ebp-0x4]
  40fd94:	sub    esi,eax
  40fd96:	xor    eax,eax
  40fd98:	mov    WORD PTR [ecx+esi*2],ax
  40fd9c:	test   ebx,ebx
  40fd9e:	je     0x40fe07
  40fda0:	push   DWORD PTR [ebp-0x4]
  40fda3:	call   DWORD PTR ds:0x4130f0
  40fda9:	push   ebx
  40fdaa:	mov    esi,eax
  40fdac:	call   DWORD PTR ds:0x4130f0
  40fdb2:	push   0x1
  40fdb4:	add    esi,0xb
  40fdb7:	xor    edx,edx
  40fdb9:	add    eax,esi
  40fdbb:	push   eax
  40fdbc:	push   0x7
  40fdbe:	pop    ecx
  40fdbf:	mov    DWORD PTR [ebp-0x8],eax
  40fdc2:	call   0x40c39f
  40fdc7:	mov    esi,eax
  40fdc9:	test   esi,esi
  40fdcb:	jne    0x40fdf0
  40fdcd:	lea    ecx,[ebp-0xc]
  40fdd0:	call   0x40db64
  40fdd5:	call   DWORD PTR ds:0x41302c
  40fddb:	test   eax,eax
  40fddd:	jne    0x40fde7
  40fddf:	push   0x8
  40fde1:	call   DWORD PTR ds:0x413030
  40fde7:	xor    eax,eax
  40fde9:	pop    edi
  40fdea:	pop    esi
  40fdeb:	pop    ebx
  40fdec:	mov    esp,ebp
  40fdee:	pop    ebp
  40fdef:	ret    
  40fdf0:	push   ebx
  40fdf1:	push   DWORD PTR [ebp-0x4]
  40fdf4:	push   0x401870
  40fdf9:	push   DWORD PTR [ebp-0x8]
  40fdfc:	push   esi
  40fdfd:	call   0x401b75
  40fe02:	add    esp,0x14
  40fe05:	jmp    0x40fe2a
  40fe07:	mov    edx,DWORD PTR [ebp-0x4]
  40fe0a:	test   edx,edx
  40fe0c:	jne    0x40fe18
  40fe0e:	push   0x7
  40fe10:	pop    ecx
  40fe11:	call   0x40c34e
  40fe16:	jmp    0x40fe24
  40fe18:	push   0x0
  40fe1a:	push   0x0
  40fe1c:	push   0x7
  40fe1e:	pop    ecx
  40fe1f:	call   0x40c39f
  40fe24:	mov    esi,eax
  40fe26:	test   esi,esi
  40fe28:	je     0x40fdcd
  40fe2a:	push   esi
  40fe2b:	mov    DWORD PTR [ebp-0x4],esi
  40fe2e:	call   DWORD PTR ds:0x413138
  40fe34:	push   0x1
  40fe36:	push   0x50
  40fe38:	push   0xb
  40fe3a:	xor    edx,edx
  40fe3c:	pop    ecx
  40fe3d:	call   0x40c39f
  40fe42:	mov    esi,eax
  40fe44:	test   esi,esi
  40fe46:	je     0x40fdcd
  40fe48:	push   DWORD PTR [ebp-0x4]
  40fe4b:	mov    ecx,0x15ed
  40fe50:	call   0x40c92c
  40fe55:	push   eax
  40fe56:	push   0x50
  40fe58:	push   esi
  40fe59:	call   0x401b75
  40fe5e:	add    esp,0x10
  40fe61:	lea    ecx,[ebp-0xc]
  40fe64:	call   0x40db64
  40fe69:	mov    eax,esi
  40fe6b:	jmp    0x40fde9
  40fe70:	int3   
  40fe71:	int3   
  40fe72:	int3   
  40fe73:	int3   
  40fe74:	int3   
  40fe75:	mov    edi,edi
  40fe77:	push   ebx
  40fe78:	push   esi
  40fe79:	push   edi
  40fe7a:	push   0x0
  40fe7c:	mov    esi,ecx
  40fe7e:	call   DWORD PTR ds:0x413030
  40fe84:	test   esi,esi
  40fe86:	je     0x40fef1
  40fe88:	push   ecx
  40fe89:	push   ecx
  40fe8a:	push   0x7c
  40fe8c:	pop    edx
  40fe8d:	mov    ecx,esi
  40fe8f:	call   0x40ccb3
  40fe94:	mov    edi,eax
  40fe96:	cmp    edi,0xffffffff
  40fe99:	jne    0x40feac
  40fe9b:	push   0x0
  40fe9d:	call   DWORD PTR ds:0x413030
  40fea3:	mov    ecx,esi
  40fea5:	call   0x40d408
  40feaa:	mov    edi,eax
  40feac:	push   0x1
  40feae:	lea    eax,[edi+0x5]
  40feb1:	xor    edx,edx
  40feb3:	push   eax
  40feb4:	push   0xc
  40feb6:	pop    ecx
  40feb7:	call   0x40c39f
  40febc:	mov    ebx,eax
  40febe:	test   ebx,ebx
  40fec0:	jne    0x40fed0
  40fec2:	call   DWORD PTR ds:0x41302c
  40fec8:	test   eax,eax
  40feca:	jne    0x40ff03
  40fecc:	push   0x8
  40fece:	jmp    0x40fefd
  40fed0:	lea    eax,[edi+0x1]
  40fed3:	mov    edx,0x401048
  40fed8:	push   eax
  40fed9:	mov    ecx,ebx
  40fedb:	call   0x40d369
  40fee0:	lea    eax,[edi+0x2]
  40fee3:	mov    edx,esi
  40fee5:	push   eax
  40fee6:	mov    ecx,ebx
  40fee8:	call   0x40d3ce
  40feed:	mov    eax,ebx
  40feef:	jmp    0x40ff05
  40fef1:	call   DWORD PTR ds:0x41302c
  40fef7:	test   eax,eax
  40fef9:	jne    0x40ff03
  40fefb:	push   0x57
  40fefd:	call   DWORD PTR ds:0x413030
  40ff03:	xor    eax,eax
  40ff05:	pop    edi
  40ff06:	pop    esi
  40ff07:	pop    ebx
  40ff08:	ret    
  40ff09:	int3   
  40ff0a:	int3   
  40ff0b:	int3   
  40ff0c:	int3   
  40ff0d:	int3   
  40ff0e:	mov    edi,edi
  40ff10:	push   ebp
  40ff11:	mov    ebp,esp
  40ff13:	sub    esp,0x14
  40ff16:	push   ebx
  40ff17:	push   esi
  40ff18:	push   edi
  40ff19:	xor    eax,eax
  40ff1b:	mov    edi,edx
  40ff1d:	mov    ebx,ecx
  40ff1f:	mov    DWORD PTR [ebp-0x14],edi
  40ff22:	push   eax
  40ff23:	mov    DWORD PTR [ebp-0x10],ebx
  40ff26:	mov    DWORD PTR [ebp-0xc],eax
  40ff29:	call   DWORD PTR ds:0x413030
  40ff2f:	mov    esi,DWORD PTR [ebp+0x8]
  40ff32:	test   esi,esi
  40ff34:	jne    0x40ff4f
  40ff36:	call   DWORD PTR ds:0x41302c
  40ff3c:	test   eax,eax
  40ff3e:	jne    0x40ff48
  40ff40:	push   0x57
  40ff42:	call   DWORD PTR ds:0x413030
  40ff48:	xor    eax,eax
  40ff4a:	jmp    0x41010b
  40ff4f:	test   ebx,ebx
  40ff51:	je     0x40ff36
  40ff53:	or     DWORD PTR [ebx],0xffffffff
  40ff56:	xor    ebx,ebx
  40ff58:	mov    DWORD PTR [ebp-0x8],ebx
  40ff5b:	test   edi,edi
  40ff5d:	je     0x410108
  40ff63:	add    esi,0x3c
  40ff66:	lea    eax,[esi-0x3c]
  40ff69:	test   eax,eax
  40ff6b:	je     0x4101c8
  40ff71:	push   0xffffffff
  40ff73:	push   0x40187c
  40ff78:	push   0xffffffff
  40ff7a:	lea    eax,[esi-0x3c]
  40ff7d:	push   eax
  40ff7e:	push   0x1
  40ff80:	call   DWORD PTR ds:0x41308c
  40ff86:	push   eax
  40ff87:	call   DWORD PTR ds:0x413088
  40ff8d:	add    eax,0xfffffffe
  40ff90:	jne    0x40ff36
  40ff92:	mov    edx,DWORD PTR [esi-0x28]
  40ff95:	mov    edi,DWORD PTR [esi-0x2c]
  40ff98:	mov    DWORD PTR [ebp-0x4],edx
  40ff9b:	cmp    DWORD PTR [esi],ebx
  40ff9d:	jne    0x40ff36
  40ff9f:	cmp    DWORD PTR [esi+0x4],ebx
  40ffa2:	jne    0x40ff36
  40ffa4:	cmp    DWORD PTR [esi+0x8],ebx
  40ffa7:	jne    0x40ff36
  40ffa9:	cmp    DWORD PTR [esi+0xc],ebx
  40ffac:	jne    0x40ff36
  40ffae:	mov    ebx,edi
  40ffb0:	xor    ecx,ecx
  40ffb2:	and    ebx,0x40000
  40ffb8:	mov    eax,ebx
  40ffba:	or     eax,ecx
  40ffbc:	jne    0x40ffdb
  40ffbe:	cmp    DWORD PTR [esi-0x1c],ecx
  40ffc1:	je     0x40ff36
  40ffc7:	push   DWORD PTR [esi-0x1c]
  40ffca:	call   DWORD PTR ds:0x4130f0
  40ffd0:	test   eax,eax
  40ffd2:	je     0x40ff36
  40ffd8:	mov    edx,DWORD PTR [ebp-0x4]
  40ffdb:	mov    ecx,edi
  40ffdd:	and    ecx,0x20000
  40ffe3:	mov    eax,ecx
  40ffe5:	or     eax,0x0
  40ffe8:	je     0x40fff4
  40ffea:	cmp    DWORD PTR [esi-0x34],0xa
  40ffee:	jne    0x40ff36
  40fff4:	xor    eax,eax
  40fff6:	or     ecx,eax
  40fff8:	je     0x410009
  40fffa:	xor    ecx,ecx
  40fffc:	inc    ecx
  40fffd:	cmp    DWORD PTR [ebp-0xc],ecx
  410000:	je     0x40ff36
  410006:	mov    DWORD PTR [ebp-0xc],ecx
  410009:	or     ebx,eax
  41000b:	je     0x41001e
  41000d:	mov    eax,DWORD PTR [ebp-0x10]
  410010:	cmp    DWORD PTR [eax],0xffffffff
  410013:	jne    0x40ff36
  410019:	mov    ecx,DWORD PTR [ebp-0x8]
  41001c:	mov    DWORD PTR [eax],ecx
  41001e:	mov    ecx,0x60000
  410023:	mov    eax,edi
  410025:	and    eax,ecx
  410027:	xor    ebx,ebx
  410029:	cmp    eax,ecx
  41002b:	jne    0x410035
  41002d:	cmp    ebx,ebx
  41002f:	je     0x40ff36
  410035:	mov    eax,DWORD PTR [esi-0x34]
  410038:	dec    eax
  410039:	cmp    eax,0x9
  41003c:	ja     0x40ff36
  410042:	jmp    DWORD PTR [eax*4+0x4101e2]
  410049:	mov    ebx,edi
  41004b:	xor    ecx,ecx
  41004d:	and    ebx,0x10000
  410053:	mov    eax,ebx
  410055:	or     eax,ecx
  410057:	je     0x410082
  410059:	mov    edx,edi
  41005b:	and    edx,0x1
  41005e:	mov    eax,edx
  410060:	or     eax,ecx
  410062:	jne    0x40ff36
  410068:	cmp    DWORD PTR [esi-0x10],eax
  41006b:	jne    0x40ff36
  410071:	cmp    DWORD PTR [esi-0xc],eax
  410074:	je     0x4100b0
  410076:	cmp    DWORD PTR [esi-0xc],0x2
  41007a:	jb     0x40ff36
  410080:	jmp    0x4100b0
  410082:	mov    ecx,DWORD PTR [esi-0x10]
  410085:	test   ecx,ecx
  410087:	je     0x40ff36
  41008d:	xor    eax,eax
  41008f:	mov    edx,edi
  410091:	and    edx,0x1
  410094:	mov    DWORD PTR [ebp-0x4],eax
  410097:	mov    eax,edx
  410099:	or     eax,DWORD PTR [ebp-0x4]
  41009c:	je     0x4100ad
  41009e:	mov    ecx,DWORD PTR [ecx]
  4100a0:	call   0x40e1cd
  4100a5:	test   eax,eax
  4100a7:	je     0x40ff36
  4100ad:	mov    ecx,DWORD PTR [ebp-0x4]
  4100b0:	mov    eax,edi
  4100b2:	and    eax,0x2
  4100b5:	or     eax,0x0
  4100b8:	je     0x4100c7
  4100ba:	xor    eax,eax
  4100bc:	cmp    DWORD PTR [esi-0x14],eax
  4100bf:	je     0x40ff36
  4100c5:	jmp    0x4100c9
  4100c7:	xor    eax,eax
  4100c9:	or     edx,ecx
  4100cb:	jne    0x4100f0
  4100cd:	cmp    DWORD PTR [esi-0x24],0x1
  4100d1:	jne    0x40ff36
  4100d7:	and    edi,0x20
  4100da:	or     edi,eax
  4100dc:	jne    0x40ff36
  4100e2:	or     ebx,eax
  4100e4:	jne    0x4100f0
  4100e6:	cmp    DWORD PTR [esi-0xc],0x2
  4100ea:	jb     0x40ff36
  4100f0:	xor    ebx,ebx
  4100f2:	mov    ecx,DWORD PTR [ebp-0x8]
  4100f5:	inc    ecx
  4100f6:	mov    DWORD PTR [esi-0x20],ebx
  4100f9:	add    esi,0x50
  4100fc:	mov    DWORD PTR [ebp-0x8],ecx
  4100ff:	cmp    ecx,DWORD PTR [ebp-0x14]
  410102:	jb     0x40ff66
  410108:	xor    eax,eax
  41010a:	inc    eax
  41010b:	pop    edi
  41010c:	pop    esi
  41010d:	pop    ebx
  41010e:	mov    esp,ebp
  410110:	pop    ebp
  410111:	ret    0x4
  410114:	mov    eax,edi
  410116:	and    eax,0x2
  410119:	or     eax,ebx
  41011b:	jne    0x4101c1
  410121:	mov    eax,edi
  410123:	and    eax,0x10040
  410128:	or     eax,ebx
  41012a:	jne    0x40ff36
  410130:	mov    eax,edi
  410132:	and    eax,0x80
  410137:	or     eax,ebx
  410139:	jne    0x40ff36
  41013f:	mov    ecx,DWORD PTR [esi-0x10]
  410142:	test   ecx,ecx
  410144:	je     0x40ff36
  41014a:	mov    eax,edi
  41014c:	and    eax,0x1
  41014f:	or     eax,ebx
  410151:	je     0x410164
  410153:	mov    ecx,DWORD PTR [ecx]
  410155:	call   0x40e1cd
  41015a:	test   eax,eax
  41015c:	je     0x40ff36
  410162:	jmp    0x4100f2
  410164:	cmp    DWORD PTR [esi-0x24],0x1
  410168:	ja     0x40ff36
  41016e:	and    edi,0x20
  410171:	or     edi,ebx
  410173:	jne    0x40ff36
  410179:	jmp    0x4100f2
  41017e:	cmp    DWORD PTR [esi-0x8],ebx
  410181:	je     0x40ff36
  410187:	cmp    DWORD PTR [esi-0x4],ebx
  41018a:	jne    0x4100f2
  410190:	lea    eax,[esi-0x3c]
  410193:	mov    DWORD PTR [esi-0x4],eax
  410196:	jmp    0x4100f2
  41019b:	mov    eax,edi
  41019d:	and    eax,0xf
  4101a0:	or     eax,ebx
  4101a2:	jne    0x40ff36
  4101a8:	mov    eax,edi
  4101aa:	and    eax,0xfff0
  4101af:	or     eax,ebx
  4101b1:	jne    0x40ff36
  4101b7:	and    edi,0xffedffff
  4101bd:	or     edi,edx
  4101bf:	jmp    0x410173
  4101c1:	push   0x78
  4101c3:	jmp    0x40ff42
  4101c8:	call   DWORD PTR ds:0x41302c
  4101ce:	test   eax,eax
  4101d0:	jne    0x40ff48
  4101d6:	push   0x42b
  4101db:	jmp    0x40ff42
  4101e0:	mov    edi,edi
  4101e2:	dec    ecx
  4101e3:	add    BYTE PTR [ecx+0x0],al
  4101e6:	adc    al,0x1
  4101e8:	inc    ecx
  4101e9:	add    BYTE PTR [ecx+eax*1],dl
  4101ec:	inc    ecx
  4101ed:	add    cl,al
  4101ef:	add    DWORD PTR [ecx+0x0],eax
  4101f2:	rol    DWORD PTR [ecx],0x41
  4101f5:	add    cl,al
  4101f7:	add    DWORD PTR [ecx+0x0],eax
  4101fa:	adc    al,0x1
  4101fc:	inc    ecx
  4101fd:	add    BYTE PTR [ecx+eax*1],dl
  410200:	inc    ecx
  410201:	add    BYTE PTR [esi+0x1],bh
  410204:	inc    ecx
  410205:	add    BYTE PTR [ebx-0x33ffbeff],bl
  41020b:	int3   
  41020c:	int3   
  41020d:	int3   
  41020e:	int3   
  41020f:	mov    edi,edi
  410211:	push   ebp
  410212:	mov    ebp,esp
  410214:	sub    esp,0x40
  410217:	mov    eax,ds:0x412004
  41021c:	xor    eax,ebp
  41021e:	mov    DWORD PTR [ebp-0x8],eax
  410221:	fldz   
  410223:	and    DWORD PTR [ebp-0x20],0x0
  410227:	push   ebx
  410228:	push   esi
  410229:	fstp   DWORD PTR [ebp-0x14]
  41022c:	fldz   
  41022e:	mov    ebx,edx
  410230:	xor    edx,edx
  410232:	mov    esi,ecx
  410234:	push   edi
  410235:	push   edx
  410236:	fstp   QWORD PTR [ebp-0x3c]
  410239:	mov    DWORD PTR [ebp-0x28],edx
  41023c:	call   DWORD PTR ds:0x413030
  410242:	mov    eax,DWORD PTR [ebp+0x8]
  410245:	test   eax,eax
  410247:	je     0x4102ff
  41024d:	mov    edx,DWORD PTR [eax+0xc]
  410250:	mov    eax,DWORD PTR [eax+0x8]
  410253:	mov    DWORD PTR [ebp-0x1c],edx
  410256:	mov    DWORD PTR [ebp-0x10],eax
  410259:	test   edx,edx
  41025b:	je     0x4102ff
  410261:	test   eax,eax
  410263:	je     0x4102ff
  410269:	mov    eax,DWORD PTR [edx+0x14]
  41026c:	mov    ecx,DWORD PTR [edx+0x2c]
  41026f:	mov    edi,DWORD PTR [edx+0x10]
  410272:	mov    DWORD PTR [ebp-0x30],eax
  410275:	mov    eax,DWORD PTR [edx+0x30]
  410278:	mov    DWORD PTR [ebp-0x18],eax
  41027b:	mov    eax,DWORD PTR [edx+0x28]
  41027e:	mov    DWORD PTR [ebp-0x2c],eax
  410281:	mov    eax,DWORD PTR [edx+0x8]
  410284:	mov    DWORD PTR [ebp-0xc],ecx
  410287:	mov    DWORD PTR [ebp-0x30],eax
  41028a:	cmp    eax,0xa
  41028d:	je     0x4102f0
  41028f:	test   ebx,ebx
  410291:	jne    0x4102f0
  410293:	mov    eax,edi
  410295:	and    eax,0x10
  410298:	or     eax,ebx
  41029a:	jne    0x4102ed
  41029c:	test   esi,esi
  41029e:	je     0x4102c6
  4102a0:	push   esi
  4102a1:	call   DWORD PTR ds:0x4130f0
  4102a7:	test   eax,eax
  4102a9:	je     0x4102c6
  4102ab:	mov    ecx,0x15eb
  4102b0:	push   DWORD PTR [ebp-0x10]
  4102b3:	push   esi
  4102b4:	call   0x40c92c
  4102b9:	push   eax
  4102ba:	push   0x2
  4102bc:	call   0x40c585
  4102c1:	add    esp,0x10
  4102c4:	jmp    0x4102e0
  4102c6:	call   DWORD PTR ds:0x41302c
  4102cc:	test   eax,eax
  4102ce:	jne    0x4102db
  4102d0:	push   0x42b
  4102d5:	call   DWORD PTR ds:0x413030
  4102db:	call   0x40c619
  4102e0:	push   0x800401e4
  4102e5:	call   DWORD PTR ds:0x413030
  4102eb:	jmp    0x410316
  4102ed:	mov    eax,DWORD PTR [edx+0x8]
  4102f0:	test   esi,esi
  4102f2:	jne    0x41032b
  4102f4:	mov    eax,edi
  4102f6:	and    eax,0x40000
  4102fb:	or     eax,esi
  4102fd:	jne    0x410338
  4102ff:	call   DWORD PTR ds:0x41302c
  410305:	test   eax,eax
  410307:	jne    0x410311
  410309:	push   0x57
  41030b:	call   DWORD PTR ds:0x413030
  410311:	call   0x40c619
  410316:	xor    eax,eax
  410318:	mov    ecx,DWORD PTR [ebp-0x8]
  41031b:	pop    edi
  41031c:	pop    esi
  41031d:	xor    ecx,ebp
  41031f:	pop    ebx
  410320:	call   0x411090
  410325:	mov    esp,ebp
  410327:	pop    ebp
  410328:	ret    0x4
  41032b:	cmp    DWORD PTR [edx+0x24],0x0
  41032f:	je     0x41033e
  410331:	cmp    eax,0x9
  410334:	je     0x41033e
  410336:	jmp    0x41033b
  410338:	mov    eax,DWORD PTR [edx+0x8]
  41033b:	mov    esi,DWORD PTR [edx+0x24]
  41033e:	dec    eax
  41033f:	cmp    eax,0x9
  410342:	ja     0x4102ff
  410344:	jmp    DWORD PTR [eax*4+0x410793]
  41034b:	test   ebx,ebx
  41034d:	je     0x410396
  41034f:	mov    eax,edi
  410351:	and    eax,0x42
  410354:	or     eax,0x0
  410357:	je     0x410396
  410359:	push   0x0
  41035b:	push   0x0
  41035d:	push   0xa
  41035f:	mov    edx,ebx
  410361:	pop    ecx
  410362:	call   0x40c39f
  410367:	test   eax,eax
  410369:	jne    0x410379
  41036b:	call   DWORD PTR ds:0x41302c
  410371:	test   eax,eax
  410373:	jne    0x410311
  410375:	push   0x8
  410377:	jmp    0x41030b
  410379:	push   ecx
  41037a:	mov    edx,0x401710
  41037f:	mov    ecx,eax
  410381:	call   0x40cf40
  410386:	mov    ebx,eax
  410388:	call   DWORD PTR ds:0x41302c
  41038e:	test   eax,eax
  410390:	jne    0x410311
  410396:	mov    eax,edi
  410398:	and    eax,0x2
  41039b:	or     eax,0x0
  41039e:	je     0x4103f8
  4103a0:	test   ebx,ebx
  4103a2:	jne    0x4103ac
  4103a4:	xor    eax,eax
  4103a6:	inc    eax
  4103a7:	jmp    0x410318
  4103ac:	mov    edx,DWORD PTR [ebp-0x2c]
  4103af:	mov    ecx,ebx
  4103b1:	push   0x1
  4103b3:	call   0x40cd00
  4103b8:	test   eax,eax
  4103ba:	jne    0x4103f8
  4103bc:	test   esi,esi
  4103be:	je     0x4103ea
  4103c0:	push   esi
  4103c1:	call   DWORD PTR ds:0x4130f0
  4103c7:	test   eax,eax
  4103c9:	je     0x4103ea
  4103cb:	push   DWORD PTR [ebp-0x10]
  4103ce:	mov    ecx,0x15e1
  4103d3:	push   esi
  4103d4:	push   ebx
  4103d5:	call   0x40c92c
  4103da:	push   eax
  4103db:	push   0x3
  4103dd:	call   0x40c585
  4103e2:	add    esp,0x14
  4103e5:	jmp    0x4102e0
  4103ea:	push   DWORD PTR [ebp-0x10]
  4103ed:	mov    ecx,0x15ec
  4103f2:	push   ebx
  4103f3:	jmp    0x4102b4
  4103f8:	test   ebx,ebx
  4103fa:	je     0x4103a4
  4103fc:	mov    eax,edi
  4103fe:	and    eax,0x80
  410403:	or     eax,0x0
  410406:	je     0x410449
  410408:	push   ebx
  410409:	call   DWORD PTR ds:0x4130f0
  41040f:	test   eax,eax
  410411:	jne    0x410449
  410413:	test   esi,esi
  410415:	je     0x41042c
  410417:	push   esi
  410418:	call   DWORD PTR ds:0x4130f0
  41041e:	test   eax,eax
  410420:	je     0x41042c
  410422:	mov    ecx,0x15ee
  410427:	jmp    0x4102b0
  41042c:	mov    ecx,0x15ef
  410431:	push   DWORD PTR [ebp-0x10]
  410434:	call   0x40c92c
  410439:	push   eax
  41043a:	push   0x1
  41043c:	call   0x40c585
  410441:	add    esp,0xc
  410444:	jmp    0x4102e0
  410449:	mov    eax,edi
  41044b:	and    eax,0x1
  41044e:	or     eax,0x0
  410451:	je     0x410498
  410453:	mov    ecx,DWORD PTR [ebp-0x1c]
  410456:	mov    esi,DWORD PTR [ebp-0xc]
  410459:	mov    eax,DWORD PTR [ecx+0x10]
  41045c:	and    eax,0x4000
  410461:	or     eax,0x0
  410464:	je     0x41047f
  410466:	push   ecx
  410467:	mov    ecx,DWORD PTR [esi]
  410469:	mov    edx,0x20000
  41046e:	push   0x1
  410470:	push   ebx
  410471:	call   0x40e104
  410476:	cmp    eax,0xffffffff
  410479:	jne    0x4103a4
  41047f:	mov    ecx,DWORD PTR [esi]
  410481:	mov    edx,ebx
  410483:	push   0x0
  410485:	call   0x40e278
  41048a:	cmp    eax,0xffffffff
  41048d:	jne    0x4103a4
  410493:	jmp    0x41036b
  410498:	cmp    DWORD PTR [ebp-0x18],0x0
  41049c:	je     0x4104d9
  41049e:	push   ebx
  41049f:	call   DWORD PTR ds:0x4130f0
  4104a5:	mov    ecx,DWORD PTR [ebp-0x18]
  4104a8:	cmp    eax,ecx
  4104aa:	jl     0x4104dc
  4104ac:	test   esi,esi
  4104ae:	je     0x4104ca
  4104b0:	push   esi
  4104b1:	call   DWORD PTR ds:0x4130f0
  4104b7:	test   eax,eax
  4104b9:	je     0x4104ca
  4104bb:	mov    eax,DWORD PTR [ebp-0x18]
  4104be:	mov    ecx,0x15f4
  4104c3:	dec    eax
  4104c4:	push   eax
  4104c5:	jmp    0x4102b3
  4104ca:	mov    eax,DWORD PTR [ebp-0x18]
  4104cd:	mov    ecx,0x15f2
  4104d2:	dec    eax
  4104d3:	push   eax
  4104d4:	jmp    0x410434
  4104d9:	mov    ecx,DWORD PTR [ebp-0x18]
  4104dc:	and    edi,0x10000
  4104e2:	or     edi,0x0
  4104e5:	je     0x41050d
  4104e7:	push   ebx
  4104e8:	call   DWORD PTR ds:0x4130f0
  4104ee:	inc    eax
  4104ef:	mov    DWORD PTR [ebp-0x18],eax
  4104f2:	lea    ecx,[eax+eax*1]
  4104f5:	call   0x40dc18
  4104fa:	test   eax,eax
  4104fc:	je     0x41036b
  410502:	mov    ecx,DWORD PTR [ebp-0x1c]
  410505:	mov    DWORD PTR [ecx+0x2c],eax
  410508:	mov    ecx,DWORD PTR [ebp-0x18]
  41050b:	jmp    0x410510
  41050d:	mov    eax,DWORD PTR [ebp-0xc]
  410510:	push   ecx
  410511:	mov    edx,ebx
  410513:	mov    ecx,eax
  410515:	call   0x40d369
  41051a:	jmp    0x4103a4
  41051f:	xor    eax,eax
  410521:	cmp    DWORD PTR [ebp-0x30],0x2
  410525:	sete   al
  410528:	mov    DWORD PTR [ebp-0x14],eax
  41052b:	test   ebx,ebx
  41052d:	je     0x4103a4
  410533:	mov    ecx,ebx
  410535:	call   0x40d408
  41053a:	test   eax,eax
  41053c:	je     0x4105f7
  410542:	push   DWORD PTR [ebp-0x14]
  410545:	mov    ecx,ebx
  410547:	call   0x40cbf8
  41054c:	test   eax,eax
  41054e:	je     0x4105f7
  410554:	mov    esi,DWORD PTR [ebp-0x14]
  410557:	mov    ecx,ebx
  410559:	call   0x40cb3a
  41055e:	cmp    esi,0x1
  410561:	jne    0x41056a
  410563:	mov    edx,DWORD PTR [ebp-0x28]
  410566:	mov    ebx,eax
  410568:	jmp    0x410572
  41056a:	mov    ebx,DWORD PTR [ebp-0x20]
  41056d:	mov    edx,eax
  41056f:	mov    DWORD PTR [ebp-0x28],edx
  410572:	and    edi,0x1
  410575:	or     edi,0x0
  410578:	je     0x4105e1
  41057a:	mov    ecx,DWORD PTR [ebp-0x1c]
  41057d:	mov    eax,DWORD PTR [ecx+0x10]
  410580:	xor    ecx,ecx
  410582:	and    eax,0x4000
  410587:	or     eax,ecx
  410589:	je     0x4105bd
  41058b:	push   ecx
  41058c:	cmp    esi,0x1
  41058f:	lea    eax,[ebp-0x20]
  410592:	mov    esi,DWORD PTR [ebp-0xc]
  410595:	push   ecx
  410596:	push   eax
  410597:	mov    ecx,DWORD PTR [esi]
  410599:	jne    0x4105a5
  41059b:	mov    DWORD PTR [ebp-0x20],ebx
  41059e:	mov    edx,0x30000
  4105a3:	jmp    0x4105ad
  4105a5:	mov    DWORD PTR [ebp-0x20],edx
  4105a8:	mov    edx,0x40000
  4105ad:	call   0x40e104
  4105b2:	cmp    eax,0xffffffff
  4105b5:	jne    0x4103a4
  4105bb:	jmp    0x4105c0
  4105bd:	mov    esi,DWORD PTR [ebp-0xc]
  4105c0:	cmp    DWORD PTR [ebp-0x14],0x1
  4105c4:	mov    ecx,DWORD PTR [esi]
  4105c6:	jne    0x4105d4
  4105c8:	mov    edx,ebx
  4105ca:	call   0x40e2f3
  4105cf:	jmp    0x41048a
  4105d4:	mov    edx,DWORD PTR [ebp-0x28]
  4105d7:	call   0x40e343
  4105dc:	jmp    0x41048a
  4105e1:	cmp    esi,0x1
  4105e4:	mov    esi,DWORD PTR [ebp-0xc]
  4105e7:	jne    0x4105f0
  4105e9:	mov    DWORD PTR [esi],ebx
  4105eb:	jmp    0x4103a4
  4105f0:	mov    DWORD PTR [esi],edx
  4105f2:	jmp    0x4103a4
  4105f7:	and    edi,0x10
  4105fa:	or     edi,0x0
  4105fd:	je     0x410612
  4105ff:	mov    ecx,DWORD PTR [ebp+0x8]
  410602:	cmp    DWORD PTR [ecx+0x4],0xffffffff
  410606:	je     0x410612
  410608:	xor    eax,eax
  41060a:	inc    eax
  41060b:	mov    DWORD PTR [ecx],eax
  41060d:	jmp    0x410318
  410612:	test   esi,esi
  410614:	je     0x41062b
  410616:	push   esi
  410617:	call   DWORD PTR ds:0x4130f0
  41061d:	test   eax,eax
  41061f:	je     0x41062b
  410621:	mov    ecx,0x15e2
  410626:	jmp    0x4102b0
  41062b:	mov    ecx,0x15f0
  410630:	jmp    0x410431
  410635:	test   ebx,ebx
  410637:	je     0x4103a4
  41063d:	mov    ecx,ebx
  41063f:	call   0x40ca9c
  410644:	fstp   st(0)
  410646:	call   DWORD PTR ds:0x41302c
  41064c:	test   eax,eax
  41064e:	je     0x410684
  410650:	and    edi,0x10
  410653:	or     edi,0x0
  410656:	je     0x410661
  410658:	mov    ecx,DWORD PTR [ebp+0x8]
  41065b:	cmp    DWORD PTR [ecx+0x4],0xffffffff
  41065f:	jne    0x410608
  410661:	test   esi,esi
  410663:	je     0x41067a
  410665:	push   esi
  410666:	call   DWORD PTR ds:0x4130f0
  41066c:	test   eax,eax
  41066e:	je     0x41067a
  410670:	mov    ecx,0x15e3
  410675:	jmp    0x4102b0
  41067a:	mov    ecx,0x15f1
  41067f:	jmp    0x410431
  410684:	mov    esi,DWORD PTR [ebp-0x1c]
  410687:	mov    ecx,ebx
  410689:	cmp    DWORD PTR [esi+0x8],0x7
  41068d:	jne    0x41069b
  41068f:	call   0x40ca9c
  410694:	fstp   DWORD PTR [ebp-0x14]
  410697:	fldz   
  410699:	jmp    0x4106a3
  41069b:	call   0x40ca9c
  4106a0:	fst    QWORD PTR [ebp-0x3c]
  4106a3:	and    edi,0x1
  4106a6:	xor    ecx,ecx
  4106a8:	or     edi,ecx
  4106aa:	je     0x41072b
  4106ac:	mov    eax,DWORD PTR [esi+0x10]
  4106af:	fld    DWORD PTR [ebp-0x14]
  4106b2:	and    eax,0x4000
  4106b7:	or     eax,ecx
  4106b9:	je     0x4106f8
  4106bb:	cmp    DWORD PTR [esi+0x8],0x7
  4106bf:	mov    esi,DWORD PTR [ebp-0xc]
  4106c2:	push   ecx
  4106c3:	push   ecx
  4106c4:	mov    ecx,DWORD PTR [esi]
  4106c6:	jne    0x4106d7
  4106c8:	fstp   st(1)
  4106ca:	lea    eax,[ebp-0x20]
  4106cd:	fstp   DWORD PTR [ebp-0x20]
  4106d0:	mov    edx,0x60000
  4106d5:	jmp    0x4106e4
  4106d7:	fstp   st(0)
  4106d9:	lea    eax,[ebp-0x24]
  4106dc:	fstp   QWORD PTR [ebp-0x24]
  4106df:	mov    edx,0x70000
  4106e4:	push   eax
  4106e5:	call   0x40e104
  4106ea:	cmp    eax,0xffffffff
  4106ed:	jne    0x4103a4
  4106f3:	fld    DWORD PTR [ebp-0x14]
  4106f6:	jmp    0x4106fd
  4106f8:	mov    esi,DWORD PTR [ebp-0xc]
  4106fb:	fstp   st(1)
  4106fd:	mov    ecx,DWORD PTR [ebp-0x1c]
  410700:	push   ecx
  410701:	cmp    DWORD PTR [ecx+0x8],0x7
  410705:	jne    0x410716
  410707:	mov    ecx,DWORD PTR [esi]
  410709:	fstp   DWORD PTR [esp]
  41070c:	call   0x40e393
  410711:	jmp    0x41048a
  410716:	fstp   st(0)
  410718:	fld    QWORD PTR [ebp-0x3c]
  41071b:	push   ecx
  41071c:	mov    ecx,DWORD PTR [esi]
  41071e:	fstp   QWORD PTR [esp]
  410721:	call   0x40e3e4
  410726:	jmp    0x41048a
  41072b:	cmp    DWORD PTR [esi+0x8],0x7
  41072f:	mov    esi,DWORD PTR [ebp-0xc]
  410732:	jne    0x410740
  410734:	fstp   st(0)
  410736:	fld    DWORD PTR [ebp-0x14]
  410739:	fstp   DWORD PTR [esi]
  41073b:	jmp    0x4103a4
  410740:	fstp   QWORD PTR [esi]
  410742:	jmp    0x4103a4
  410747:	mov    ecx,DWORD PTR [ebp+0x8]
  41074a:	push   ecx
  41074b:	push   DWORD PTR [edx+0x38]
  41074e:	push   ebx
  41074f:	push   esi
  410750:	mov    esi,DWORD PTR [edx+0x34]
  410753:	mov    ecx,esi
  410755:	call   DWORD PTR ds:0x413210
  41075b:	call   esi
  41075d:	jmp    0x410318
  410762:	test   ebx,ebx
  410764:	je     0x410787
  410766:	test   esi,esi
  410768:	je     0x4102c6
  41076e:	push   esi
  41076f:	call   DWORD PTR ds:0x4130f0
  410775:	test   eax,eax
  410777:	je     0x4102c6
  41077d:	mov    ecx,0x15f3
  410782:	jmp    0x4102b0
  410787:	mov    DWORD PTR [ecx],0x1
  41078d:	jmp    0x4103a4
  410792:	nop
  410793:	dec    ebx
  410794:	add    eax,DWORD PTR [ecx+0x0]
  410797:	pop    ds
  410798:	add    eax,0x51f0041
  41079d:	inc    ecx
  41079e:	add    BYTE PTR [ebx+eax*1+0x3a40041],ah
  4107a5:	inc    ecx
  4107a6:	add    BYTE PTR [ebx+eax*1+0x6350041],ah
  4107ad:	inc    ecx
  4107ae:	add    BYTE PTR ds:0x47004106,dh
  4107b4:	pop    es
  4107b5:	inc    ecx
  4107b6:	add    BYTE PTR [edx+0x7],ah
  4107b9:	inc    ecx
  4107ba:	add    ah,cl
  4107bc:	int3   
  4107bd:	int3   
  4107be:	int3   
  4107bf:	int3   
  4107c0:	mov    edi,edi
  4107c2:	push   ebp
  4107c3:	mov    ebp,esp
  4107c5:	push   ecx
  4107c6:	push   ecx
  4107c7:	push   ebx
  4107c8:	push   esi
  4107c9:	push   edi
  4107ca:	push   0x0
  4107cc:	mov    esi,edx
  4107ce:	mov    DWORD PTR [ebp-0x8],ecx
  4107d1:	call   DWORD PTR ds:0x413030
  4107d7:	test   esi,esi
  4107d9:	je     0x41087a
  4107df:	mov    ebx,DWORD PTR [ebp+0x8]
  4107e2:	test   ebx,ebx
  4107e4:	je     0x41087a
  4107ea:	mov    ecx,ebx
  4107ec:	call   0x40fb82
  4107f1:	test   eax,eax
  4107f3:	jne    0x4107ff
  4107f5:	push   0x490
  4107fa:	jmp    0x410886
  4107ff:	xor    edi,edi
  410801:	cmp    DWORD PTR [ebp-0x8],edi
  410804:	jbe    0x4107f5
  410806:	add    esi,0x20
  410809:	lea    eax,[esi-0x20]
  41080c:	test   eax,eax
  41080e:	je     0x41085c
  410810:	mov    eax,DWORD PTR [esi-0x10]
  410813:	and    eax,0x100000
  410818:	or     eax,0x0
  41081b:	je     0x410823
  41081d:	and    DWORD PTR [ebp-0x4],0x0
  410821:	jmp    0x41082a
  410823:	mov    DWORD PTR [ebp-0x4],0x1
  41082a:	cmp    DWORD PTR [esi],0x0
  41082d:	je     0x41084d
  41082f:	push   DWORD PTR [esi]
  410831:	call   DWORD PTR ds:0x4130f0
  410837:	test   eax,eax
  410839:	jle    0x41084d
  41083b:	push   DWORD PTR [ebp-0x4]
  41083e:	mov    edx,DWORD PTR [esi]
  410840:	lea    ecx,[ebx+0x2]
  410843:	call   0x40cd00
  410848:	cmp    eax,0x1
  41084b:	je     0x410858
  41084d:	inc    edi
  41084e:	add    esi,0x50
  410851:	cmp    edi,DWORD PTR [ebp-0x8]
  410854:	jb     0x410809
  410856:	jmp    0x4107f5
  410858:	mov    eax,edi
  41085a:	jmp    0x41088f
  41085c:	call   DWORD PTR ds:0x41302c
  410862:	test   eax,eax
  410864:	jne    0x410871
  410866:	push   0x42b
  41086b:	call   DWORD PTR ds:0x413030
  410871:	call   0x40c619
  410876:	xor    eax,eax
  410878:	jmp    0x41088f
  41087a:	call   DWORD PTR ds:0x41302c
  410880:	test   eax,eax
  410882:	jne    0x41088c
  410884:	push   0x57
  410886:	call   DWORD PTR ds:0x413030
  41088c:	or     eax,0xffffffff
  41088f:	pop    edi
  410890:	pop    esi
  410891:	pop    ebx
  410892:	mov    esp,ebp
  410894:	pop    ebp
  410895:	ret    0x4
  410898:	int3   
  410899:	int3   
  41089a:	int3   
  41089b:	int3   
  41089c:	int3   
  41089d:	mov    edi,edi
  41089f:	push   ebp
  4108a0:	mov    ebp,esp
  4108a2:	sub    esp,0xc
  4108a5:	push   ebx
  4108a6:	push   esi
  4108a7:	push   edi
  4108a8:	mov    ebx,edx
  4108aa:	mov    DWORD PTR [ebp-0xc],ecx
  4108ad:	push   0x0
  4108af:	mov    DWORD PTR [ebp-0x8],ebx
  4108b2:	call   DWORD PTR ds:0x413030
  4108b8:	test   ebx,ebx
  4108ba:	je     0x410972
  4108c0:	mov    edi,DWORD PTR [ebp+0x8]
  4108c3:	test   edi,edi
  4108c5:	je     0x410972
  4108cb:	mov    esi,DWORD PTR [ebp+0xc]
  4108ce:	test   esi,esi
  4108d0:	je     0x410972
  4108d6:	and    DWORD PTR [esi],0x0
  4108d9:	and    DWORD PTR [esi+0x4],0x0
  4108dd:	push   ecx
  4108de:	push   ecx
  4108df:	push   0x3a
  4108e1:	pop    edx
  4108e2:	mov    ecx,edi
  4108e4:	call   0x40ccb3
  4108e9:	mov    ebx,eax
  4108eb:	cmp    ebx,0xffffffff
  4108ee:	je     0x410984
  4108f4:	push   edi
  4108f5:	call   DWORD PTR ds:0x4130f0
  4108fb:	push   0x1
  4108fd:	lea    ecx,[ebx+0x5]
  410900:	sub    eax,ebx
  410902:	push   ecx
  410903:	push   0x8
  410905:	dec    eax
  410906:	xor    edx,edx
  410908:	pop    ecx
  410909:	mov    DWORD PTR [ebp-0x4],eax
  41090c:	call   0x40c39f
  410911:	mov    DWORD PTR [esi],eax
  410913:	test   eax,eax
  410915:	jne    0x410925
  410917:	call   DWORD PTR ds:0x41302c
  41091d:	test   eax,eax
  41091f:	jne    0x410984
  410921:	push   0x8
  410923:	jmp    0x41097e
  410925:	mov    eax,DWORD PTR [ebp-0x4]
  410928:	xor    edx,edx
  41092a:	push   0x1
  41092c:	add    eax,0x5
  41092f:	push   eax
  410930:	push   0x9
  410932:	pop    ecx
  410933:	call   0x40c39f
  410938:	mov    DWORD PTR [esi+0x4],eax
  41093b:	test   eax,eax
  41093d:	je     0x410917
  41093f:	mov    ecx,DWORD PTR [esi]
  410941:	lea    eax,[ebx+0x1]
  410944:	push   eax
  410945:	mov    edx,edi
  410947:	call   0x40d369
  41094c:	mov    eax,DWORD PTR [ebp-0x4]
  41094f:	test   eax,eax
  410951:	je     0x410963
  410953:	mov    ecx,DWORD PTR [esi+0x4]
  410956:	lea    edx,[edi+0x2]
  410959:	inc    eax
  41095a:	lea    edx,[edx+ebx*2]
  41095d:	push   eax
  41095e:	call   0x40d369
  410963:	push   DWORD PTR [esi]
  410965:	mov    edx,DWORD PTR [ebp-0x8]
  410968:	mov    ecx,DWORD PTR [ebp-0xc]
  41096b:	call   0x4107c0
  410970:	jmp    0x410987
  410972:	call   DWORD PTR ds:0x41302c
  410978:	test   eax,eax
  41097a:	jne    0x410984
  41097c:	push   0x57
  41097e:	call   DWORD PTR ds:0x413030
  410984:	or     eax,0xffffffff
  410987:	pop    edi
  410988:	pop    esi
  410989:	pop    ebx
  41098a:	mov    esp,ebp
  41098c:	pop    ebp
  41098d:	ret    0x8
  410990:	int3   
  410991:	int3   
  410992:	int3   
  410993:	int3   
  410994:	int3   
  410995:	mov    edi,edi
  410997:	push   ebp
  410998:	mov    ebp,esp
  41099a:	push   ecx
  41099b:	push   ebx
  41099c:	push   esi
  41099d:	mov    esi,edx
  41099f:	push   edi
  4109a0:	mov    edi,ecx
  4109a2:	test   esi,esi
  4109a4:	je     0x410a13
  4109a6:	call   DWORD PTR ds:0x41302c
  4109ac:	mov    DWORD PTR [ebp-0x4],eax
  4109af:	call   0x40c4fc
  4109b4:	test   eax,eax
  4109b6:	jne    0x4109c2
  4109b8:	push   0x7
  4109ba:	pop    ecx
  4109bb:	call   0x40c34e
  4109c0:	jmp    0x4109d0
  4109c2:	push   0x0
  4109c4:	push   0x0
  4109c6:	push   0x7
  4109c8:	mov    edx,eax
  4109ca:	pop    ecx
  4109cb:	call   0x40c39f
  4109d0:	mov    ebx,eax
  4109d2:	test   ebx,ebx
  4109d4:	je     0x410a13
  4109d6:	test   edi,edi
  4109d8:	je     0x4109fe
  4109da:	add    esi,0x2c
  4109dd:	cmp    DWORD PTR [esi],0x0
  4109e0:	je     0x4109f6
  4109e2:	mov    eax,DWORD PTR [esi-0x1c]
  4109e5:	and    eax,0x10000
  4109ea:	or     eax,0x0
  4109ed:	je     0x4109f6
  4109ef:	mov    ecx,esi
  4109f1:	call   0x40db64
  4109f6:	add    esi,0x50
  4109f9:	sub    edi,0x1
  4109fc:	jne    0x4109dd
  4109fe:	mov    ecx,ebx
  410a00:	call   0x40c521
  410a05:	push   DWORD PTR [ebp-0x4]
  410a08:	call   DWORD PTR ds:0x413030
  410a0e:	xor    eax,eax
  410a10:	inc    eax
  410a11:	jmp    0x410a15
  410a13:	xor    eax,eax
  410a15:	pop    edi
  410a16:	pop    esi
  410a17:	pop    ebx
  410a18:	mov    esp,ebp
  410a1a:	pop    ebp
  410a1b:	ret    
  410a1c:	int3   
  410a1d:	int3   
  410a1e:	int3   
  410a1f:	int3   
  410a20:	int3   
  410a21:	mov    edi,edi
  410a23:	push   ebp
  410a24:	mov    ebp,esp
  410a26:	sub    esp,0x3c
  410a29:	and    DWORD PTR [ebp-0x14],0x0
  410a2d:	push   ebx
  410a2e:	push   esi
  410a2f:	push   edi
  410a30:	mov    edi,edx
  410a32:	mov    esi,ecx
  410a34:	xor    ebx,ebx
  410a36:	mov    DWORD PTR [ebp-0x18],edi
  410a39:	push   ebx
  410a3a:	mov    DWORD PTR [ebp-0x24],esi
  410a3d:	call   DWORD PTR ds:0x413030
  410a43:	test   esi,esi
  410a45:	je     0x410a9b
  410a47:	test   edi,edi
  410a49:	je     0x410a9b
  410a4b:	mov    esi,DWORD PTR [ebp+0x10]
  410a4e:	test   esi,esi
  410a50:	je     0x410a9b
  410a52:	call   0x40c889
  410a57:	test   eax,eax
  410a59:	jne    0x410a79
  410a5b:	mov    ecx,0x157f
  410a60:	call   0x40c92c
  410a65:	mov    ecx,eax
  410a67:	call   0x40c521
  410a6c:	push   0x47e
  410a71:	call   DWORD PTR ds:0x413030
  410a77:	jmp    0x410aa8
  410a79:	call   0x40c279
  410a7e:	test   eax,eax
  410a80:	je     0x410aa3
  410a82:	mov    eax,DWORD PTR [ebp+0x8]
  410a85:	mov    edi,DWORD PTR [ebp+0xc]
  410a88:	cmp    eax,0xffffffff
  410a8b:	je     0x410ac5
  410a8d:	cmp    eax,edi
  410a8f:	jl     0x410ab3
  410a91:	call   DWORD PTR ds:0x41302c
  410a97:	test   eax,eax
  410a99:	jne    0x410aa3
  410a9b:	push   0x57
  410a9d:	call   DWORD PTR ds:0x413030
  410aa3:	call   0x40c619
  410aa8:	xor    eax,eax
  410aaa:	pop    edi
  410aab:	pop    esi
  410aac:	pop    ebx
  410aad:	mov    esp,ebp
  410aaf:	pop    ebp
  410ab0:	ret    0x10
  410ab3:	imul   ecx,eax,0x50
  410ab6:	mov    ecx,DWORD PTR [ecx+esi*1+0x20]
  410aba:	call   0x40fe75
  410abf:	mov    ebx,eax
  410ac1:	test   ebx,ebx
  410ac3:	je     0x410aa3
  410ac5:	mov    ecx,ebx
  410ac7:	call   0x40fbd3
  410acc:	mov    DWORD PTR [ebp-0x8],eax
  410acf:	test   eax,eax
  410ad1:	je     0x410aa3
  410ad3:	push   esi
  410ad4:	mov    edx,edi
  410ad6:	lea    ecx,[ebp-0x14]
  410ad9:	call   0x40ff0e
  410ade:	test   eax,eax
  410ae0:	je     0x410aa3
  410ae2:	mov    edx,DWORD PTR [ebp-0x24]
  410ae5:	xor    ecx,ecx
  410ae7:	inc    ecx
  410ae8:	xor    ebx,ebx
  410aea:	mov    DWORD PTR [ebp-0x1c],ebx
  410aed:	mov    DWORD PTR [ebp-0x20],ecx
  410af0:	cmp    edx,ecx
  410af2:	jbe    0x410c4b
  410af8:	push   0x2
  410afa:	pop    eax
  410afb:	mov    DWORD PTR [ebp-0xc],eax
  410afe:	mov    eax,DWORD PTR [ebp-0x18]
  410b01:	mov    ebx,DWORD PTR [eax+ecx*4]
  410b04:	lea    eax,[ecx+0x1]
  410b07:	cmp    eax,edx
  410b09:	jae    0x410b17
  410b0b:	mov    eax,DWORD PTR [ebp-0x18]
  410b0e:	mov    eax,DWORD PTR [eax+ecx*4+0x4]
  410b12:	mov    DWORD PTR [ebp-0x4],eax
  410b15:	jmp    0x410b1b
  410b17:	and    DWORD PTR [ebp-0x4],0x0
  410b1b:	push   ebx
  410b1c:	mov    edx,esi
  410b1e:	mov    ecx,edi
  410b20:	call   0x4107c0
  410b25:	mov    ecx,eax
  410b27:	cmp    ecx,0xffffffff
  410b2a:	jne    0x410b66
  410b2c:	lea    eax,[ebp-0x2c]
  410b2f:	mov    edx,esi
  410b31:	push   eax
  410b32:	push   ebx
  410b33:	mov    ecx,edi
  410b35:	call   0x41089d
  410b3a:	mov    ecx,eax
  410b3c:	cmp    ecx,0xffffffff
  410b3f:	jne    0x410b55
  410b41:	mov    eax,DWORD PTR [ebp-0x14]
  410b44:	cmp    eax,ecx
  410b46:	je     0x410c87
  410b4c:	mov    DWORD PTR [ebp-0x4],ebx
  410b4f:	mov    ecx,eax
  410b51:	xor    ebx,ebx
  410b53:	jmp    0x410b5e
  410b55:	mov    eax,DWORD PTR [ebp-0x28]
  410b58:	mov    ebx,DWORD PTR [ebp-0x2c]
  410b5b:	mov    DWORD PTR [ebp-0x4],eax
  410b5e:	xor    eax,eax
  410b60:	inc    eax
  410b61:	mov    DWORD PTR [ebp-0xc],eax
  410b64:	jmp    0x410b69
  410b66:	mov    eax,DWORD PTR [ebp-0xc]
  410b69:	imul   ecx,ecx,0x50
  410b6c:	add    ecx,esi
  410b6e:	mov    DWORD PTR [ebp-0x10],ecx
  410b71:	je     0x410cf0
  410b77:	mov    edx,DWORD PTR [ebp-0x4]
  410b7a:	test   edx,edx
  410b7c:	je     0x410bda
  410b7e:	cmp    eax,0x2
  410b81:	jne    0x410bda
  410b83:	mov    eax,DWORD PTR [ecx+0x8]
  410b86:	dec    eax
  410b87:	cmp    eax,0x9
  410b8a:	ja     0x410bcd
  410b8c:	movzx  eax,BYTE PTR [eax+0x410d9d]
  410b93:	jmp    DWORD PTR [eax*4+0x410d95]
  410b9a:	push   edx
  410b9b:	mov    edx,esi
  410b9d:	mov    ecx,edi
  410b9f:	call   0x4107c0
  410ba4:	cmp    eax,0xffffffff
  410ba7:	jne    0x410bbe
  410ba9:	lea    eax,[ebp-0x2c]
  410bac:	mov    edx,esi
  410bae:	push   eax
  410baf:	push   DWORD PTR [ebp-0x4]
  410bb2:	mov    ecx,edi
  410bb4:	call   0x41089d
  410bb9:	cmp    eax,0xffffffff
  410bbc:	je     0x410bd4
  410bbe:	and    DWORD PTR [ebp-0x4],0x0
  410bc2:	xor    eax,eax
  410bc4:	mov    ecx,DWORD PTR [ebp-0x10]
  410bc7:	inc    eax
  410bc8:	mov    edx,DWORD PTR [ebp-0x4]
  410bcb:	jmp    0x410bdd
  410bcd:	xor    eax,eax
  410bcf:	xor    edx,edx
  410bd1:	inc    eax
  410bd2:	jmp    0x410bdd
  410bd4:	mov    ecx,DWORD PTR [ebp-0x10]
  410bd7:	mov    edx,DWORD PTR [ebp-0x4]
  410bda:	mov    eax,DWORD PTR [ebp-0xc]
  410bdd:	mov    DWORD PTR [ebp-0x3c],eax
  410be0:	mov    eax,DWORD PTR [ebp-0x14]
  410be3:	mov    DWORD PTR [ebp-0x38],eax
  410be6:	mov    eax,DWORD PTR [ebp-0x8]
  410be9:	mov    DWORD PTR [ebp-0x34],eax
  410bec:	lea    eax,[ebp-0x3c]
  410bef:	mov    DWORD PTR [ebp-0x30],ecx
  410bf2:	mov    ecx,ebx
  410bf4:	push   eax
  410bf5:	call   0x41020f
  410bfa:	mov    edx,DWORD PTR [ebp-0x3c]
  410bfd:	test   eax,eax
  410bff:	je     0x410d34
  410c05:	mov    eax,DWORD PTR [ebp-0x10]
  410c08:	mov    ecx,DWORD PTR [eax+0x18]
  410c0b:	test   ecx,ecx
  410c0d:	je     0x410c18
  410c0f:	cmp    ecx,DWORD PTR [eax+0x1c]
  410c12:	je     0x410cb3
  410c18:	inc    DWORD PTR [eax+0x1c]
  410c1b:	xor    ebx,ebx
  410c1d:	mov    eax,DWORD PTR [eax+0x10]
  410c20:	and    eax,0x20000
  410c25:	or     eax,ebx
  410c27:	je     0x410c31
  410c29:	xor    eax,eax
  410c2b:	inc    eax
  410c2c:	mov    DWORD PTR [ebp-0x1c],eax
  410c2f:	jmp    0x410c34
  410c31:	mov    eax,DWORD PTR [ebp-0x1c]
  410c34:	mov    ecx,DWORD PTR [ebp-0x20]
  410c37:	add    ecx,edx
  410c39:	mov    edx,DWORD PTR [ebp-0x24]
  410c3c:	mov    DWORD PTR [ebp-0x20],ecx
  410c3f:	cmp    ecx,edx
  410c41:	jb     0x410af8
  410c47:	test   eax,eax
  410c49:	jne    0x410c78
  410c4b:	mov    edx,ebx
  410c4d:	test   edi,edi
  410c4f:	je     0x410c78
  410c51:	mov    ecx,esi
  410c53:	test   ecx,ecx
  410c55:	je     0x410d1a
  410c5b:	mov    eax,DWORD PTR [ecx+0x10]
  410c5e:	and    eax,0x80000
  410c63:	or     eax,ebx
  410c65:	je     0x410c70
  410c67:	cmp    DWORD PTR [ecx+0x1c],ebx
  410c6a:	je     0x410d08
  410c70:	inc    edx
  410c71:	add    ecx,0x50
  410c74:	cmp    edx,edi
  410c76:	jb     0x410c53
  410c78:	push   ebx
  410c79:	call   DWORD PTR ds:0x413030
  410c7f:	xor    eax,eax
  410c81:	inc    eax
  410c82:	jmp    0x410aaa
  410c87:	mov    ecx,0x15e7
  410c8c:	push   DWORD PTR [ebp-0x8]
  410c8f:	push   ebx
  410c90:	call   0x40c92c
  410c95:	push   eax
  410c96:	push   0x2
  410c98:	call   0x40c585
  410c9d:	add    esp,0x10
  410ca0:	mov    edx,esi
  410ca2:	mov    ecx,edi
  410ca4:	call   0x410995
  410ca9:	push   0x800401e4
  410cae:	jmp    0x410a71
  410cb3:	test   ebx,ebx
  410cb5:	je     0x410ce3
  410cb7:	push   ebx
  410cb8:	call   DWORD PTR ds:0x4130f0
  410cbe:	test   eax,eax
  410cc0:	mov    eax,DWORD PTR [ebp-0x10]
  410cc3:	je     0x410ce3
  410cc5:	push   DWORD PTR [ebp-0x8]
  410cc8:	mov    ecx,0x15e5
  410ccd:	push   DWORD PTR [eax+0x18]
  410cd0:	push   ebx
  410cd1:	call   0x40c92c
  410cd6:	push   eax
  410cd7:	push   0x3
  410cd9:	call   0x40c585
  410cde:	add    esp,0x14
  410ce1:	jmp    0x410ca0
  410ce3:	push   DWORD PTR [ebp-0x8]
  410ce6:	mov    ecx,0x15ea
  410ceb:	push   DWORD PTR [eax+0x18]
  410cee:	jmp    0x410c90
  410cf0:	call   DWORD PTR ds:0x41302c
  410cf6:	test   eax,eax
  410cf8:	jne    0x410aa3
  410cfe:	push   0x42b
  410d03:	jmp    0x410a9d
  410d08:	cmp    DWORD PTR [ecx+0x20],0x0
  410d0c:	jne    0x410d5e
  410d0e:	mov    eax,DWORD PTR [ecx+0x10]
  410d11:	and    eax,0x40000
  410d16:	or     eax,ebx
  410d18:	jne    0x410d42
  410d1a:	call   DWORD PTR ds:0x41302c
  410d20:	test   eax,eax
  410d22:	jne    0x410d2f
  410d24:	push   0x42b
  410d29:	call   DWORD PTR ds:0x413030
  410d2f:	call   0x40c619
  410d34:	mov    edx,esi
  410d36:	mov    ecx,edi
  410d38:	call   0x410995
  410d3d:	jmp    0x410aa8
  410d42:	mov    ebx,DWORD PTR [ecx+0x24]
  410d45:	test   ebx,ebx
  410d47:	je     0x410d75
  410d49:	push   ebx
  410d4a:	call   DWORD PTR ds:0x4130f0
  410d50:	test   eax,eax
  410d52:	je     0x410d75
  410d54:	mov    ecx,0x15e4
  410d59:	jmp    0x410c8c
  410d5e:	mov    ebx,DWORD PTR [ecx+0x24]
  410d61:	test   ebx,ebx
  410d63:	jne    0x410d49
  410d65:	mov    ecx,DWORD PTR [ecx+0x20]
  410d68:	call   0x40fe75
  410d6d:	mov    ebx,eax
  410d6f:	test   ebx,ebx
  410d71:	jne    0x410d49
  410d73:	jmp    0x410d2f
  410d75:	push   DWORD PTR [ebp-0x8]
  410d78:	mov    ecx,0x15e8
  410d7d:	call   0x40c92c
  410d82:	push   eax
  410d83:	push   0x1
  410d85:	call   0x40c585
  410d8a:	add    esp,0xc
  410d8d:	jmp    0x410ca0
  410d92:	lea    ecx,[ecx+0x0]
  410d95:	call   0x410b:0xcd00410b
  410d9c:	add    BYTE PTR [eax],al
  410d9e:	add    BYTE PTR [eax],al
  410da0:	add    DWORD PTR [ecx],eax
  410da2:	add    DWORD PTR [eax],eax
  410da4:	add    BYTE PTR [eax],al
  410da6:	add    esp,ecx
  410da8:	int3   
  410da9:	int3   
  410daa:	int3   
  410dab:	int3   
  410dac:	int3   
  410dad:	int3   
  410dae:	int3   
  410daf:	int3   
  410db0:	mov    eax,0x5a4d
  410db5:	cmp    WORD PTR ds:0x400000,ax
  410dbc:	je     0x410dc2
  410dbe:	xor    eax,eax
  410dc0:	jmp    0x410e10
  410dc2:	mov    ecx,DWORD PTR ds:0x40003c
  410dc8:	cmp    DWORD PTR [ecx+0x400000],0x4550
  410dd2:	jne    0x410dbe
  410dd4:	movzx  eax,WORD PTR [ecx+0x400018]
  410ddb:	cmp    eax,0x10b
  410de0:	je     0x410dfc
  410de2:	cmp    eax,0x20b
  410de7:	jne    0x410dbe
  410de9:	xor    eax,eax
  410deb:	cmp    DWORD PTR [ecx+0x400084],0xe
  410df2:	jbe    0x410e10
  410df4:	cmp    DWORD PTR [ecx+0x4000f8],eax
  410dfa:	jmp    0x410e0d
  410dfc:	xor    eax,eax
  410dfe:	cmp    DWORD PTR [ecx+0x400074],0xe
  410e05:	jbe    0x410e10
  410e07:	cmp    DWORD PTR [ecx+0x4000e8],eax
  410e0d:	setne  al
  410e10:	push   0x1
  410e12:	mov    ds:0x412028,eax
  410e17:	call   0x41138e
  410e1c:	push   eax
  410e1d:	call   DWORD PTR ds:0x413198
  410e23:	or     DWORD PTR ds:0x412474,0xffffffff
  410e2a:	or     DWORD PTR ds:0x412478,0xffffffff
  410e31:	pop    ecx
  410e32:	pop    ecx
  410e33:	call   DWORD PTR ds:0x413188
  410e39:	mov    ecx,DWORD PTR ds:0x412358
  410e3f:	mov    DWORD PTR [eax],ecx
  410e41:	call   DWORD PTR ds:0x4131a4
  410e47:	mov    ecx,DWORD PTR ds:0x41234c
  410e4d:	mov    DWORD PTR [eax],ecx
  410e4f:	call   0x4115e0
  410e54:	cmp    DWORD PTR ds:0x412000,0x0
  410e5b:	jne    0x410e69
  410e5d:	push   0x4115e0
  410e62:	call   DWORD PTR ds:0x413184
  410e68:	pop    ecx
  410e69:	call   0x4115e8
  410e6e:	xor    eax,eax
  410e70:	ret    
  410e71:	int3   
  410e72:	int3   
  410e73:	int3   
  410e74:	int3   
  410e75:	int3   
  410e76:	int3   
  410e77:	int3   
  410e78:	int3   
  410e79:	int3   
  410e7a:	int3   
  410e7b:	int3   
  410e7c:	int3   
  410e7d:	int3   
  410e7e:	int3   
  410e7f:	int3   
  410e80:	mov    eax,ds:0x412354
  410e85:	push   0x41202c
  410e8a:	push   DWORD PTR ds:0x412350
  410e90:	mov    ds:0x41202c,eax
  410e95:	push   0x412020
  410e9a:	push   0x41201c
  410e9f:	push   0x412018
  410ea4:	call   DWORD PTR ds:0x41319c
  410eaa:	add    esp,0x14
  410ead:	mov    ds:0x412024,eax
  410eb2:	ret    
  410eb3:	int3   
  410eb4:	int3   
  410eb5:	int3   
  410eb6:	int3   
  410eb7:	int3   
  410eb8:	push   0x10
  410eba:	push   0x4117c0
  410ebf:	call   0x41160c
  410ec4:	xor    ebx,ebx
  410ec6:	mov    DWORD PTR [ebp-0x4],ebx
  410ec9:	mov    eax,fs:0x18
  410ecf:	mov    esi,DWORD PTR [eax+0x4]
  410ed2:	mov    edi,ebx
  410ed4:	mov    edx,0x41247c
  410ed9:	mov    ecx,esi
  410edb:	xor    eax,eax
  410edd:	lock cmpxchg DWORD PTR [edx],ecx
  410ee1:	test   eax,eax
  410ee3:	je     0x410efd
  410ee5:	cmp    eax,esi
  410ee7:	jne    0x410ef0
  410ee9:	xor    esi,esi
  410eeb:	inc    esi
  410eec:	mov    edi,esi
  410eee:	jmp    0x410f00
  410ef0:	push   0x3e8
  410ef5:	call   DWORD PTR ds:0x4130cc
  410efb:	jmp    0x410ed4
  410efd:	xor    esi,esi
  410eff:	inc    esi
  410f00:	cmp    DWORD PTR ds:0x412480,esi
  410f06:	jne    0x410f12
  410f08:	push   0x1f
  410f0a:	call   0x4113ca
  410f0f:	pop    ecx
  410f10:	jmp    0x410f4c
  410f12:	cmp    DWORD PTR ds:0x412480,ebx
  410f18:	jne    0x410f46
  410f1a:	mov    DWORD PTR ds:0x412480,esi
  410f20:	push   0x401018
  410f25:	push   0x40100c
  410f2a:	call   0x41102c
  410f2f:	pop    ecx
  410f30:	pop    ecx
  410f31:	test   eax,eax
  410f33:	je     0x410f4c
  410f35:	mov    DWORD PTR [ebp-0x4],0xfffffffe
  410f3c:	mov    eax,0xff
  410f41:	jmp    0x411021
  410f46:	mov    DWORD PTR ds:0x412014,esi
  410f4c:	cmp    DWORD PTR ds:0x412480,esi
  410f52:	jne    0x410f6f
  410f54:	push   0x401008
  410f59:	push   0x401000
  410f5e:	call   0x411600
  410f63:	pop    ecx
  410f64:	pop    ecx
  410f65:	mov    DWORD PTR ds:0x412480,0x2
  410f6f:	test   edi,edi
  410f71:	jne    0x410f7c
  410f73:	xor    eax,eax
  410f75:	mov    ecx,0x41247c
  410f7a:	xchg   DWORD PTR [ecx],eax
  410f7c:	cmp    DWORD PTR ds:0x412484,0x0
  410f83:	je     0x410fa8
  410f85:	push   0x412484
  410f8a:	call   0x411430
  410f8f:	pop    ecx
  410f90:	test   eax,eax
  410f92:	je     0x410fa8
  410f94:	push   ebx
  410f95:	push   0x2
  410f97:	push   ebx
  410f98:	mov    esi,DWORD PTR ds:0x412484
  410f9e:	mov    ecx,esi
  410fa0:	call   DWORD PTR ds:0x413210
  410fa6:	call   esi
  410fa8:	push   DWORD PTR ds:0x412020
  410fae:	push   DWORD PTR ds:0x41201c
  410fb4:	push   DWORD PTR ds:0x412018
  410fba:	call   0x401be1
  410fbf:	add    esp,0xc
  410fc2:	mov    ds:0x412010,eax
  410fc7:	cmp    DWORD PTR ds:0x412028,0x0
  410fce:	jne    0x411006
  410fd0:	push   eax
  410fd1:	call   DWORD PTR ds:0x413194
  410fd7:	mov    ecx,DWORD PTR [ebp-0x14]
  410fda:	mov    eax,DWORD PTR [ecx]
  410fdc:	mov    eax,DWORD PTR [eax]
  410fde:	mov    DWORD PTR [ebp-0x20],eax
  410fe1:	push   ecx
  410fe2:	push   eax
  410fe3:	call   0x411314
  410fe8:	pop    ecx
  410fe9:	pop    ecx
  410fea:	ret    
  410feb:	mov    esp,DWORD PTR [ebp-0x18]
  410fee:	mov    eax,DWORD PTR [ebp-0x20]
  410ff1:	mov    ds:0x412010,eax
  410ff6:	cmp    DWORD PTR ds:0x412028,0x0
  410ffd:	jne    0x411006
  410fff:	push   eax
  411000:	call   DWORD PTR ds:0x413190
  411006:	cmp    DWORD PTR ds:0x412014,0x0
  41100d:	jne    0x41101a
  41100f:	call   DWORD PTR ds:0x41318c
  411015:	mov    eax,ds:0x412010
  41101a:	mov    DWORD PTR [ebp-0x4],0xfffffffe
  411021:	call   0x411654
  411026:	ret    
  411027:	int3   
  411028:	int3   
  411029:	int3   
  41102a:	int3   
  41102b:	int3   
  41102c:	mov    edi,edi
  41102e:	push   ebp
  41102f:	mov    ebp,esp
  411031:	push   ecx
  411032:	mov    eax,ds:0x412004
  411037:	xor    eax,ebp
  411039:	mov    DWORD PTR [ebp-0x4],eax
  41103c:	push   esi
  41103d:	mov    esi,DWORD PTR [ebp+0x8]
  411040:	xor    eax,eax
  411042:	cmp    esi,DWORD PTR [ebp+0xc]
  411045:	jae    0x411065
  411047:	push   edi
  411048:	test   eax,eax
  41104a:	jne    0x411064
  41104c:	mov    edi,DWORD PTR [esi]
  41104e:	test   edi,edi
  411050:	je     0x41105c
  411052:	mov    ecx,edi
  411054:	call   DWORD PTR ds:0x413210
  41105a:	call   edi
  41105c:	add    esi,0x4
  41105f:	cmp    esi,DWORD PTR [ebp+0xc]
  411062:	jb     0x411048
  411064:	pop    edi
  411065:	mov    ecx,DWORD PTR [ebp-0x4]
  411068:	xor    ecx,ebp
  41106a:	pop    esi
  41106b:	call   0x411090
  411070:	mov    esp,ebp
  411072:	pop    ebp
  411073:	ret    
  411074:	int3   
  411075:	int3   
  411076:	int3   
  411077:	int3   
  411078:	int3   
  411079:	int3   
  41107a:	int3   
  41107b:	int3   
  41107c:	int3   
  41107d:	int3   
  41107e:	int3   
  41107f:	int3   
  411080:	call   0x411538
  411085:	jmp    0x410eb8
  41108a:	int3   
  41108b:	int3   
  41108c:	int3   
  41108d:	int3   
  41108e:	int3   
  41108f:	int3   
  411090:	cmp    ecx,DWORD PTR ds:0x412004
  411096:	jne    0x41109b
  411098:	ret    0x0
  41109b:	jmp    0x4110d4
  4110a0:	int3   
  4110a1:	int3   
  4110a2:	int3   
  4110a3:	int3   
  4110a4:	int3   
  4110a5:	mov    edi,edi
  4110a7:	push   ebp
  4110a8:	mov    ebp,esp
  4110aa:	push   0x0
  4110ac:	call   DWORD PTR ds:0x4130d4
  4110b2:	push   DWORD PTR [ebp+0x8]
  4110b5:	call   DWORD PTR ds:0x4130d0
  4110bb:	push   0xc0000409
  4110c0:	call   DWORD PTR ds:0x4130d8
  4110c6:	push   eax
  4110c7:	call   DWORD PTR ds:0x4130dc
  4110cd:	pop    ebp
  4110ce:	ret    
  4110cf:	int3   
  4110d0:	int3   
  4110d1:	int3   
  4110d2:	int3   
  4110d3:	int3   
  4110d4:	mov    edi,edi
  4110d6:	push   ebp
  4110d7:	mov    ebp,esp
  4110d9:	sub    esp,0x324
  4110df:	mov    ds:0x412130,eax
  4110e4:	mov    DWORD PTR ds:0x41212c,ecx
  4110ea:	mov    DWORD PTR ds:0x412128,edx
  4110f0:	mov    DWORD PTR ds:0x412124,ebx
  4110f6:	mov    DWORD PTR ds:0x412120,esi
  4110fc:	mov    DWORD PTR ds:0x41211c,edi
  411102:	data16 mov WORD PTR ds:0x412148,ss
  411109:	data16 mov WORD PTR ds:0x41213c,cs
  411110:	data16 mov WORD PTR ds:0x412118,ds
  411117:	data16 mov WORD PTR ds:0x412114,es
  41111e:	data16 mov WORD PTR ds:0x412110,fs
  411125:	data16 mov WORD PTR ds:0x41210c,gs
  41112c:	pushf  
  41112d:	pop    DWORD PTR ds:0x412140
  411133:	mov    eax,DWORD PTR [ebp+0x0]
  411136:	mov    ds:0x412134,eax
  41113b:	mov    eax,DWORD PTR [ebp+0x4]
  41113e:	mov    ds:0x412138,eax
  411143:	lea    eax,[ebp+0x8]
  411146:	mov    ds:0x412144,eax
  41114b:	mov    eax,DWORD PTR [ebp-0x324]
  411151:	mov    DWORD PTR ds:0x412080,0x10001
  41115b:	mov    eax,ds:0x412138
  411160:	mov    ds:0x41203c,eax
  411165:	mov    DWORD PTR ds:0x412030,0xc0000409
  41116f:	mov    DWORD PTR ds:0x412034,0x1
  411179:	mov    DWORD PTR ds:0x412040,0x3
  411183:	push   0x4
  411185:	pop    eax
  411186:	imul   eax,eax,0x0
  411189:	mov    DWORD PTR [eax+0x412044],0x2
  411193:	push   0x4
  411195:	pop    eax
  411196:	shl    eax,0x0
  411199:	mov    ecx,DWORD PTR ds:0x412004
  41119f:	mov    DWORD PTR [eax+0x412044],ecx
  4111a5:	push   0x4
  4111a7:	pop    eax
  4111a8:	shl    eax,1
  4111aa:	mov    ecx,DWORD PTR ds:0x412008
  4111b0:	mov    DWORD PTR [eax+0x412044],ecx
  4111b6:	push   0x4
  4111b8:	pop    eax
  4111b9:	imul   eax,eax,0x0
  4111bc:	mov    ecx,DWORD PTR ds:0x412004
  4111c2:	mov    DWORD PTR [ebp+eax*1-0x8],ecx
  4111c6:	push   0x4
  4111c8:	pop    eax
  4111c9:	shl    eax,0x0
  4111cc:	mov    ecx,DWORD PTR ds:0x412008
  4111d2:	mov    DWORD PTR [ebp+eax*1-0x8],ecx
  4111d6:	push   0x401040
  4111db:	call   0x4110a5
  4111e0:	mov    esp,ebp
  4111e2:	pop    ebp
  4111e3:	ret    
  4111e4:	int3   
  4111e5:	int3   
  4111e6:	int3   
  4111e7:	int3   
  4111e8:	int3   
  4111e9:	mov    edi,edi
  4111eb:	push   ebp
  4111ec:	mov    ebp,esp
  4111ee:	mov    ds:0x412130,eax
  4111f3:	mov    DWORD PTR ds:0x41212c,ecx
  4111f9:	mov    DWORD PTR ds:0x412128,edx
  4111ff:	mov    DWORD PTR ds:0x412124,ebx
  411205:	mov    DWORD PTR ds:0x412120,esi
  41120b:	mov    DWORD PTR ds:0x41211c,edi
  411211:	data16 mov WORD PTR ds:0x412148,ss
  411218:	data16 mov WORD PTR ds:0x41213c,cs
  41121f:	data16 mov WORD PTR ds:0x412118,ds
  411226:	data16 mov WORD PTR ds:0x412114,es
  41122d:	data16 mov WORD PTR ds:0x412110,fs
  411234:	data16 mov WORD PTR ds:0x41210c,gs
  41123b:	pushf  
  41123c:	pop    DWORD PTR ds:0x412140
  411242:	mov    DWORD PTR ds:0x412080,0x10001
  41124c:	mov    eax,DWORD PTR [ebp+0x4]
  41124f:	mov    ds:0x412138,eax
  411254:	lea    eax,[ebp+0x4]
  411257:	add    eax,0x4
  41125a:	mov    ds:0x412144,eax
  41125f:	mov    eax,ds:0x412138
  411264:	mov    ds:0x41203c,eax
  411269:	mov    DWORD PTR ds:0x412030,0xc0000409
  411273:	mov    DWORD PTR ds:0x412034,0x1
  41127d:	mov    DWORD PTR ds:0x412040,0x1
  411287:	push   0x4
  411289:	pop    eax
  41128a:	imul   eax,eax,0x0
  41128d:	mov    DWORD PTR [eax+0x412044],0x8
  411297:	push   0x401040
  41129c:	call   0x4110a5
  4112a1:	pop    ebp
  4112a2:	ret    
  4112a3:	int3   
  4112a4:	int3   
  4112a5:	int3   
  4112a6:	int3   
  4112a7:	int3   
  4112a8:	int3   
  4112a9:	int3   
  4112aa:	int3   
  4112ab:	int3   
  4112ac:	int3   
  4112ad:	int3   
  4112ae:	int3   
  4112af:	int3   
  4112b0:	mov    edi,edi
  4112b2:	push   ebp
  4112b3:	mov    ebp,esp
  4112b5:	mov    eax,DWORD PTR [ebp+0x8]
  4112b8:	mov    eax,DWORD PTR [eax]
  4112ba:	cmp    DWORD PTR [eax],0xe06d7363
  4112c0:	jne    0x4112ed
  4112c2:	cmp    DWORD PTR [eax+0x10],0x3
  4112c6:	jne    0x4112ed
  4112c8:	mov    eax,DWORD PTR [eax+0x14]
  4112cb:	cmp    eax,0x19930520
  4112d0:	je     0x4112e7
  4112d2:	cmp    eax,0x19930521
  4112d7:	je     0x4112e7
  4112d9:	cmp    eax,0x19930522
  4112de:	je     0x4112e7
  4112e0:	cmp    eax,0x1994000
  4112e5:	jne    0x4112ed
  4112e7:	call   DWORD PTR ds:0x41317c
  4112ed:	xor    eax,eax
  4112ef:	pop    ebp
  4112f0:	ret    0x4
  4112f3:	int3   
  4112f4:	int3   
  4112f5:	int3   
  4112f6:	int3   
  4112f7:	int3   
  4112f8:	int3   
  4112f9:	int3   
  4112fa:	int3   
  4112fb:	int3   
  4112fc:	int3   
  4112fd:	int3   
  4112fe:	int3   
  4112ff:	int3   
  411300:	push   0x4112b0
  411305:	call   DWORD PTR ds:0x4130d4
  41130b:	xor    eax,eax
  41130d:	ret    
  41130e:	int3   
  41130f:	int3   
  411310:	int3   
  411311:	int3   
  411312:	int3   
  411313:	int3   
  411314:	jmp    DWORD PTR ds:0x4131a8
  41131a:	int3   
  41131b:	int3   
  41131c:	int3   
  41131d:	int3   
  41131e:	int3   
  41131f:	push   0xc
  411321:	push   0x4117e0
  411326:	call   0x4116a8
  41132b:	xor    ecx,ecx
  41132d:	mov    eax,DWORD PTR [ebp+0x8]
  411330:	test   eax,eax
  411332:	je     0x41137f
  411334:	cmp    eax,0xffffffff
  411337:	je     0x41137f
  411339:	mov    DWORD PTR [ebp-0x4],ecx
  41133c:	mov    edx,0x5a4d
  411341:	cmp    WORD PTR [eax],dx
  411344:	jne    0x411378
  411346:	mov    edx,DWORD PTR [eax+0x3c]
  411349:	test   edx,edx
  41134b:	js     0x411378
  41134d:	cmp    edx,0x10000000
  411353:	jae    0x411378
  411355:	add    eax,edx
  411357:	mov    DWORD PTR [ebp-0x1c],eax
  41135a:	mov    ecx,DWORD PTR [eax]
  41135c:	sub    ecx,0x4550
  411362:	neg    ecx
  411364:	sbb    ecx,ecx
  411366:	not    ecx
  411368:	and    ecx,eax
  41136a:	jmp    0x411375
  41136c:	xor    eax,eax
  41136e:	inc    eax
  41136f:	ret    
  411370:	mov    esp,DWORD PTR [ebp-0x18]
  411373:	xor    ecx,ecx
  411375:	mov    DWORD PTR [ebp-0x1c],ecx
  411378:	mov    DWORD PTR [ebp-0x4],0xfffffffe
  41137f:	mov    eax,ecx
  411381:	call   0x4116ed
  411386:	ret    0x4
  411389:	int3   
  41138a:	int3   
  41138b:	int3   
  41138c:	int3   
  41138d:	int3   
  41138e:	mov    edi,edi
  411390:	push   ebp
  411391:	mov    ebp,esp
  411393:	push   0x0
  411395:	call   DWORD PTR ds:0x4130ec
  41139b:	test   eax,eax
  41139d:	je     0x4113bf
  41139f:	push   eax
  4113a0:	call   0x41131f
  4113a5:	test   eax,eax
  4113a7:	je     0x4113bf
  4113a9:	movzx  ecx,WORD PTR [eax+0x5c]
  4113ad:	push   0x2
  4113af:	pop    eax
  4113b0:	cmp    cx,ax
  4113b3:	je     0x4113c2
  4113b5:	cmp    ecx,0x3
  4113b8:	jne    0x4113bf
  4113ba:	xor    eax,eax
  4113bc:	inc    eax
  4113bd:	pop    ebp
  4113be:	ret    
  4113bf:	mov    eax,DWORD PTR [ebp+0x8]
  4113c2:	pop    ebp
  4113c3:	ret    
  4113c4:	int3   
  4113c5:	int3   
  4113c6:	int3   
  4113c7:	int3   
  4113c8:	int3   
  4113c9:	int3   
  4113ca:	jmp    DWORD PTR ds:0x4131a0
  4113d0:	int3   
  4113d1:	int3   
  4113d2:	int3   
  4113d3:	int3   
  4113d4:	int3   
  4113d5:	int3   
  4113d6:	int3   
  4113d7:	int3   
  4113d8:	int3   
  4113d9:	int3   
  4113da:	int3   
  4113db:	int3   
  4113dc:	int3   
  4113dd:	int3   
  4113de:	int3   
  4113df:	int3   
  4113e0:	mov    edi,edi
  4113e2:	push   ebp
  4113e3:	mov    ebp,esp
  4113e5:	mov    eax,DWORD PTR [ebp+0x8]
  4113e8:	xor    edx,edx
  4113ea:	push   ebx
  4113eb:	push   esi
  4113ec:	push   edi
  4113ed:	mov    ecx,DWORD PTR [eax+0x3c]
  4113f0:	add    ecx,eax
  4113f2:	movzx  eax,WORD PTR [ecx+0x14]
  4113f6:	movzx  ebx,WORD PTR [ecx+0x6]
  4113fa:	add    eax,0x18
  4113fd:	add    eax,ecx
  4113ff:	test   ebx,ebx
  411401:	je     0x41141e
  411403:	mov    edi,DWORD PTR [ebp+0xc]
  411406:	mov    esi,DWORD PTR [eax+0xc]
  411409:	cmp    edi,esi
  41140b:	jb     0x411416
  41140d:	mov    ecx,DWORD PTR [eax+0x8]
  411410:	add    ecx,esi
  411412:	cmp    edi,ecx
  411414:	jb     0x411420
  411416:	inc    edx
  411417:	add    eax,0x28
  41141a:	cmp    edx,ebx
  41141c:	jb     0x411406
  41141e:	xor    eax,eax
  411420:	pop    edi
  411421:	pop    esi
  411422:	pop    ebx
  411423:	pop    ebp
  411424:	ret    
  411425:	int3   
  411426:	int3   
  411427:	int3   
  411428:	int3   
  411429:	int3   
  41142a:	int3   
  41142b:	int3   
  41142c:	int3   
  41142d:	int3   
  41142e:	int3   
  41142f:	int3   
  411430:	mov    edi,edi
  411432:	push   ebp
  411433:	mov    ebp,esp
  411435:	push   0xfffffffe
  411437:	push   0x411800
  41143c:	push   0x411670
  411441:	mov    eax,fs:0x0
  411447:	push   eax
  411448:	sub    esp,0x8
  41144b:	push   ebx
  41144c:	push   esi
  41144d:	push   edi
  41144e:	mov    eax,ds:0x412004
  411453:	xor    DWORD PTR [ebp-0x8],eax
  411456:	xor    eax,ebp
  411458:	push   eax
  411459:	lea    eax,[ebp-0x10]
  41145c:	mov    fs:0x0,eax
  411462:	mov    DWORD PTR [ebp-0x18],esp
  411465:	mov    DWORD PTR [ebp-0x4],0x0
  41146c:	push   0x400000
  411471:	call   0x411500
  411476:	add    esp,0x4
  411479:	test   eax,eax
  41147b:	je     0x4114d1
  41147d:	mov    eax,DWORD PTR [ebp+0x8]
  411480:	sub    eax,0x400000
  411485:	push   eax
  411486:	push   0x400000
  41148b:	call   0x4113e0
  411490:	add    esp,0x8
  411493:	test   eax,eax
  411495:	je     0x4114d1
  411497:	mov    eax,DWORD PTR [eax+0x24]
  41149a:	shr    eax,0x1f
  41149d:	not    eax
  41149f:	and    eax,0x1
  4114a2:	mov    DWORD PTR [ebp-0x4],0xfffffffe
  4114a9:	mov    ecx,DWORD PTR [ebp-0x10]
  4114ac:	mov    DWORD PTR fs:0x0,ecx
  4114b3:	pop    ecx
  4114b4:	pop    edi
  4114b5:	pop    esi
  4114b6:	pop    ebx
  4114b7:	mov    esp,ebp
  4114b9:	pop    ebp
  4114ba:	ret    
  4114bb:	mov    eax,DWORD PTR [ebp-0x14]
  4114be:	mov    eax,DWORD PTR [eax]
  4114c0:	xor    ecx,ecx
  4114c2:	cmp    DWORD PTR [eax],0xc0000005
  4114c8:	sete   cl
  4114cb:	mov    eax,ecx
  4114cd:	ret    
  4114ce:	mov    esp,DWORD PTR [ebp-0x18]
  4114d1:	mov    DWORD PTR [ebp-0x4],0xfffffffe
  4114d8:	xor    eax,eax
  4114da:	mov    ecx,DWORD PTR [ebp-0x10]
  4114dd:	mov    DWORD PTR fs:0x0,ecx
  4114e4:	pop    ecx
  4114e5:	pop    edi
  4114e6:	pop    esi
  4114e7:	pop    ebx
  4114e8:	mov    esp,ebp
  4114ea:	pop    ebp
  4114eb:	ret    
  4114ec:	int3   
  4114ed:	int3   
  4114ee:	int3   
  4114ef:	int3   
  4114f0:	int3   
  4114f1:	int3   
  4114f2:	int3   
  4114f3:	int3   
  4114f4:	int3   
  4114f5:	int3   
  4114f6:	int3   
  4114f7:	int3   
  4114f8:	int3   
  4114f9:	int3   
  4114fa:	int3   
  4114fb:	int3   
  4114fc:	int3   
  4114fd:	int3   
  4114fe:	int3   
  4114ff:	int3   
  411500:	mov    edi,edi
  411502:	push   ebp
  411503:	mov    ebp,esp
  411505:	mov    eax,DWORD PTR [ebp+0x8]
  411508:	mov    ecx,0x5a4d
  41150d:	cmp    WORD PTR [eax],cx
  411510:	je     0x411516
  411512:	xor    eax,eax
  411514:	pop    ebp
  411515:	ret    
  411516:	mov    ecx,DWORD PTR [eax+0x3c]
  411519:	add    ecx,eax
  41151b:	xor    eax,eax
  41151d:	cmp    DWORD PTR [ecx],0x4550
  411523:	jne    0x411531
  411525:	mov    edx,0x10b
  41152a:	cmp    WORD PTR [ecx+0x18],dx
  41152e:	sete   al
  411531:	pop    ebp
  411532:	ret    
  411533:	int3   
  411534:	int3   
  411535:	int3   
  411536:	int3   
  411537:	int3   
  411538:	mov    edi,edi
  41153a:	push   ebp
  41153b:	mov    ebp,esp
  41153d:	sub    esp,0x14
  411540:	and    DWORD PTR [ebp-0xc],0x0
  411544:	and    DWORD PTR [ebp-0x8],0x0
  411548:	mov    eax,ds:0x412004
  41154d:	push   esi
  41154e:	push   edi
  41154f:	mov    edi,0xbb40e64e
  411554:	mov    esi,0xffff0000
  411559:	cmp    eax,edi
  41155b:	je     0x41156a
  41155d:	test   esi,eax
  41155f:	je     0x41156a
  411561:	not    eax
  411563:	mov    ds:0x412008,eax
  411568:	jmp    0x4115d4
  41156a:	lea    eax,[ebp-0xc]
  41156d:	push   eax
  41156e:	call   DWORD PTR ds:0x4130c0
  411574:	mov    eax,DWORD PTR [ebp-0x8]
  411577:	xor    eax,DWORD PTR [ebp-0xc]
  41157a:	mov    DWORD PTR [ebp-0x4],eax
  41157d:	call   DWORD PTR ds:0x4130e4
  411583:	xor    DWORD PTR [ebp-0x4],eax
  411586:	call   DWORD PTR ds:0x4130e0
  41158c:	xor    DWORD PTR [ebp-0x4],eax
  41158f:	call   DWORD PTR ds:0x4130bc
  411595:	xor    eax,DWORD PTR [ebp-0x4]
  411598:	lea    ecx,[ebp-0x4]
  41159b:	xor    eax,ecx
  41159d:	mov    DWORD PTR [ebp-0x4],eax
  4115a0:	lea    eax,[ebp-0x14]
  4115a3:	push   eax
  4115a4:	call   DWORD PTR ds:0x4130e8
  4115aa:	mov    eax,DWORD PTR [ebp-0x10]
  4115ad:	xor    eax,DWORD PTR [ebp-0x14]
  4115b0:	mov    ecx,DWORD PTR [ebp-0x4]
  4115b3:	xor    ecx,eax
  4115b5:	cmp    ecx,edi
  4115b7:	je     0x4115c1
  4115b9:	test   DWORD PTR ds:0x412004,esi
  4115bf:	jne    0x4115c6
  4115c1:	mov    ecx,0xbb40e64f
  4115c6:	mov    DWORD PTR ds:0x412004,ecx
  4115cc:	not    ecx
  4115ce:	mov    DWORD PTR ds:0x412008,ecx
  4115d4:	pop    edi
  4115d5:	pop    esi
  4115d6:	mov    esp,ebp
  4115d8:	pop    ebp
  4115d9:	ret    
  4115da:	int3   
  4115db:	int3   
  4115dc:	int3   
  4115dd:	int3   
  4115de:	int3   
  4115df:	int3   
  4115e0:	xor    eax,eax
  4115e2:	ret    
  4115e3:	int3   
  4115e4:	int3   
  4115e5:	int3   
  4115e6:	int3   
  4115e7:	int3   
  4115e8:	push   0x30000
  4115ed:	push   0x10000
  4115f2:	call   DWORD PTR ds:0x413178
  4115f8:	pop    ecx
  4115f9:	pop    ecx
  4115fa:	ret    
  4115fb:	int3   
  4115fc:	int3   
  4115fd:	int3   
  4115fe:	int3   
  4115ff:	int3   
  411600:	jmp    DWORD PTR ds:0x413180
  411606:	int3   
  411607:	int3   
  411608:	int3   
  411609:	int3   
  41160a:	int3   
  41160b:	int3   
  41160c:	push   0x411670
  411611:	push   DWORD PTR fs:0x0
  411618:	mov    eax,DWORD PTR [esp+0x10]
  41161c:	mov    DWORD PTR [esp+0x10],ebp
  411620:	lea    ebp,[esp+0x10]
  411624:	sub    esp,eax
  411626:	push   ebx
  411627:	push   esi
  411628:	push   edi
  411629:	mov    eax,ds:0x412004
  41162e:	xor    DWORD PTR [ebp-0x4],eax
  411631:	xor    eax,ebp
  411633:	mov    DWORD PTR [ebp-0x1c],eax
  411636:	push   eax
  411637:	mov    DWORD PTR [ebp-0x18],esp
  41163a:	push   DWORD PTR [ebp-0x8]
  41163d:	mov    eax,DWORD PTR [ebp-0x4]
  411640:	mov    DWORD PTR [ebp-0x4],0xfffffffe
  411647:	mov    DWORD PTR [ebp-0x8],eax
  41164a:	lea    eax,[ebp-0x10]
  41164d:	mov    fs:0x0,eax
  411653:	ret    
  411654:	mov    ecx,DWORD PTR [ebp-0x1c]
  411657:	xor    ecx,ebp
  411659:	call   0x411090
  41165e:	jmp    0x4116ed
  411663:	int3   
  411664:	int3   
  411665:	int3   
  411666:	int3   
  411667:	int3   
  411668:	int3   
  411669:	int3   
  41166a:	int3   
  41166b:	int3   
  41166c:	int3   
  41166d:	int3   
  41166e:	int3   
  41166f:	int3   
  411670:	mov    edi,edi
  411672:	push   ebp
  411673:	mov    ebp,esp
  411675:	push   DWORD PTR [ebp+0x14]
  411678:	push   DWORD PTR [ebp+0x10]
  41167b:	push   DWORD PTR [ebp+0xc]
  41167e:	push   DWORD PTR [ebp+0x8]
  411681:	push   0x411090
  411686:	push   0x412004
  41168b:	call   0x411706
  411690:	add    esp,0x18
  411693:	pop    ebp
  411694:	ret    
  411695:	int3   
  411696:	int3   
  411697:	int3   
  411698:	int3   
  411699:	int3   
  41169a:	int3   
  41169b:	int3   
  41169c:	int3   
  41169d:	int3   
  41169e:	int3   
  41169f:	int3   
  4116a0:	ret    
  4116a1:	int3   
  4116a2:	int3   
  4116a3:	int3   
  4116a4:	int3   
  4116a5:	int3   
  4116a6:	int3   
  4116a7:	int3   
  4116a8:	push   0x411670
  4116ad:	push   DWORD PTR fs:0x0
  4116b4:	mov    eax,DWORD PTR [esp+0x10]
  4116b8:	mov    DWORD PTR [esp+0x10],ebp
  4116bc:	lea    ebp,[esp+0x10]
  4116c0:	sub    esp,eax
  4116c2:	push   ebx
  4116c3:	push   esi
  4116c4:	push   edi
  4116c5:	mov    eax,ds:0x412004
  4116ca:	xor    DWORD PTR [ebp-0x4],eax
  4116cd:	xor    eax,ebp
  4116cf:	push   eax
  4116d0:	mov    DWORD PTR [ebp-0x18],esp
  4116d3:	push   DWORD PTR [ebp-0x8]
  4116d6:	mov    eax,DWORD PTR [ebp-0x4]
  4116d9:	mov    DWORD PTR [ebp-0x4],0xfffffffe
  4116e0:	mov    DWORD PTR [ebp-0x8],eax
  4116e3:	lea    eax,[ebp-0x10]
  4116e6:	mov    fs:0x0,eax
  4116ec:	ret    
  4116ed:	mov    ecx,DWORD PTR [ebp-0x10]
  4116f0:	mov    DWORD PTR fs:0x0,ecx
  4116f7:	pop    ecx
  4116f8:	pop    edi
  4116f9:	pop    edi
  4116fa:	pop    esi
  4116fb:	pop    ebx
  4116fc:	mov    esp,ebp
  4116fe:	pop    ebp
  4116ff:	push   ecx
  411700:	ret    
  411701:	int3   
  411702:	int3   
  411703:	int3   
  411704:	int3   
  411705:	int3   
  411706:	jmp    DWORD PTR ds:0x413174
  41170c:	int3   
  41170d:	int3   
  41170e:	int3   
  41170f:	int3   
  411710:	int3   
  411711:	mov    edi,edi
  411713:	push   ebp
  411714:	mov    ebp,esp
  411716:	call   0x41172a
  41171b:	mov    ecx,DWORD PTR [ebp+0x8]
  41171e:	shl    ecx,0x5
  411721:	add    eax,ecx
  411723:	pop    ebp
  411724:	ret    
  411725:	int3   
  411726:	int3   
  411727:	int3   
  411728:	int3   
  411729:	int3   
  41172a:	jmp    DWORD PTR ds:0x4131d8
  411730:	int3   
  411731:	int3   
  411732:	int3   
  411733:	int3   
  411734:	int3   
  411735:	int3   
  411736:	int3   
  411737:	int3   
  411738:	int3   
  411739:	int3   
  41173a:	int3   
  41173b:	int3   
  41173c:	int3   
  41173d:	int3   
  41173e:	int3   
  41173f:	int3   
  411740:	push   ecx
  411741:	lea    ecx,[esp+0x4]
  411745:	sub    ecx,eax
  411747:	sbb    eax,eax
  411749:	not    eax
  41174b:	and    ecx,eax
  41174d:	mov    eax,esp
  41174f:	and    eax,0xfffff000
  411754:	cmp    ecx,eax
  411756:	jb     0x411762
  411758:	mov    eax,ecx
  41175a:	pop    ecx
  41175b:	xchg   esp,eax
  41175c:	mov    eax,DWORD PTR [eax]
  41175e:	mov    DWORD PTR [esp],eax
  411761:	ret    
  411762:	sub    eax,0x1000
  411767:	test   DWORD PTR [eax],eax
  411769:	jmp    0x411754
  41176b:	int3   
  41176c:	int3   
  41176d:	int3   
  41176e:	int3   
  41176f:	int3   
  411770:	jmp    DWORD PTR ds:0x413200
  411776:	int3   
  411777:	int3   
  411778:	int3   
  411779:	int3   
  41177a:	int3   
  41177b:	int3   
  41177c:	int3   
  41177d:	int3   
  41177e:	int3   
  41177f:	int3   
  411780:	(bad)  
  411781:	(bad)  
  411782:	(bad)  
  411783:	inc    DWORD PTR [eax]
  411785:	add    BYTE PTR [eax],al
  411787:	add    al,dl
  411789:	(bad)  
  41178a:	(bad)  
  41178b:	inc    DWORD PTR [eax]
  41178d:	add    BYTE PTR [eax],al
  41178f:	add    dh,bh
  411791:	(bad)  
  411792:	(bad)  
  411793:	jmp    DWORD PTR [edx-0x24]
  411796:	inc    eax
  411797:	add    BYTE PTR [eax-0x24],dh
  41179a:	inc    eax
  41179b:	add    BYTE PTR [eax],al
  41179d:	add    BYTE PTR [eax],al
  41179f:	add    dh,bh
  4117a1:	(bad)  
  4117a2:	(bad)  
  4117a3:	inc    DWORD PTR [eax]
  4117a5:	add    BYTE PTR [eax],al
  4117a7:	add    ah,dl
  4117a9:	(bad)  
  4117aa:	(bad)  
  4117ab:	inc    DWORD PTR [eax]
  4117ad:	add    BYTE PTR [eax],al
  4117af:	add    dh,bh
  4117b1:	(bad)  
  4117b2:	(bad)  
  4117b3:	dec    DWORD PTR [edx-0x23]
  4117b6:	inc    eax
  4117b7:	add    BYTE PTR [eax-0x23],bl
  4117ba:	inc    eax
  4117bb:	add    BYTE PTR [eax],al
  4117bd:	add    BYTE PTR [eax],al
  4117bf:	add    ah,ah
  4117c1:	(bad)  
  4117c2:	(bad)  
  4117c3:	inc    DWORD PTR [eax]
  4117c5:	add    BYTE PTR [eax],al
  4117c7:	add    al,dl
  4117c9:	(bad)  
  4117ca:	(bad)  
  4117cb:	inc    DWORD PTR [eax]
  4117cd:	add    BYTE PTR [eax],al
  4117cf:	add    dh,bh
  4117d1:	(bad)  
  4117d2:	(bad)  
  4117d3:	call   edi
  4117d5:	cmovno eax,DWORD PTR [eax]
  4117d8:	jmp    0x4117e9
  4117da:	inc    ecx
  4117db:	add    BYTE PTR [eax],al
  4117dd:	add    BYTE PTR [eax],al
  4117df:	add    dh,bh
  4117e1:	(bad)  
  4117e2:	(bad)  
  4117e3:	inc    DWORD PTR [eax]
  4117e5:	add    BYTE PTR [eax],al
  4117e7:	add    ah,dl
  4117e9:	(bad)  
  4117ea:	(bad)  
  4117eb:	inc    DWORD PTR [eax]
  4117ed:	add    BYTE PTR [eax],al
  4117ef:	add    dh,bh
  4117f1:	(bad)  
  4117f2:	(bad)  
  4117f3:	jmp    FWORD PTR [ebx+edx*1+0x41]
  4117f7:	add    BYTE PTR [eax+0x13],dh
  4117fa:	inc    ecx
  4117fb:	add    BYTE PTR [eax],al
  4117fd:	add    BYTE PTR [eax],al
  4117ff:	add    dh,bh
  411801:	(bad)  
  411802:	(bad)  
  411803:	inc    DWORD PTR [eax]
  411805:	add    BYTE PTR [eax],al
  411807:	add    al,bl
  411809:	(bad)  
  41180a:	(bad)  
  41180b:	inc    DWORD PTR [eax]
  41180d:	add    BYTE PTR [eax],al
  41180f:	add    dh,bh
  411811:	(bad)  
  411812:	(bad)  
  411813:	(bad)  
  411814:	mov    ebx,0xce004114
  411819:	adc    al,0x41
	...
