
1d9284fd7818d17f4aa4d07b6497735ed8522f9925b348a3fa5ba96a976a5927.exe:     file format pei-i386


Disassembly of section .text:

00401000 <.text>:
  401000:	add    BYTE PTR [eax],al
  401002:	add    BYTE PTR [eax],al
  401004:	loopne 0x401054
  401006:	inc    eax
  401007:	add    BYTE PTR [eax],dl
  401009:	sbb    al,0x40
  40100b:	add    BYTE PTR [eax],dh
  40100d:	sbb    al,0x40
  40100f:	add    al,al
  401011:	sbb    eax,DWORD PTR [eax+0x0]
	...
  40101c:	adc    BYTE PTR [esi+0x40],cl
  40101f:	add    BYTE PTR [eax+0x55],dh
  401022:	inc    eax
  401023:	add    BYTE PTR [eax],al
  401025:	add    BYTE PTR [eax],al
  401027:	add    al,al
  401029:	sbb    eax,DWORD PTR [eax]
  40102b:	add    BYTE PTR [eax],dl
  40102d:	sbb    al,0x0
  40102f:	add    BYTE PTR [eax],dh
  401031:	sbb    al,0x0
  401033:	add    BYTE PTR [eax],dh
  401035:	push   ds
  401036:	add    BYTE PTR [eax],al
  401038:	inc    eax
  401039:	push   ds
  40103a:	add    BYTE PTR [eax],al
  40103c:	push   eax
  40103d:	push   ds
  40103e:	add    BYTE PTR [eax],al
  401040:	pusha  
  401041:	push   ds
  401042:	add    BYTE PTR [eax],al
  401044:	xor    BYTE PTR [edi],bl
  401046:	add    BYTE PTR [eax],al
  401048:	inc    eax
  401049:	pop    ds
  40104a:	add    BYTE PTR [eax],al
  40104c:	pusha  
  40104d:	pop    ds
  40104e:	add    BYTE PTR [eax],al
  401050:	sbb    BYTE PTR [edi],0x0
  401053:	add    al,ah
  401055:	and    al,0x0
  401057:	add    BYTE PTR [eax],al
  401059:	and    eax,0x25100000
  40105e:	add    BYTE PTR [eax],al
  401060:	and    BYTE PTR ds:0x25c00000,0x0
  401067:	add    BYTE PTR [eax],al
  401069:	sub    BYTE PTR [eax],al
  40106b:	add    al,dh
  40106d:	aas    
  40106e:	add    BYTE PTR [eax],al
  401070:	lock inc ecx
  401072:	add    BYTE PTR [eax],al
  401074:	inc    eax
  401075:	inc    esi
  401076:	add    BYTE PTR [eax],al
  401078:	ror    BYTE PTR [eax+eax*1+0x0],0x20
  40107d:	dec    ebp
  40107e:	add    BYTE PTR [eax],al
  401080:	inc    eax
  401081:	dec    ebp
  401082:	add    BYTE PTR [eax],al
  401084:	jo     0x4010d3
  401086:	add    BYTE PTR [eax],al
  401088:	adc    BYTE PTR [esi+0x0],cl
  40108b:	add    al,ah
  40108d:	dec    esi
  40108e:	add    BYTE PTR [eax],al
  401090:	pusha  
  401091:	push   ecx
  401092:	add    BYTE PTR [eax],al
  401094:	jo     0x4010e7
  401096:	add    BYTE PTR [eax],al
  401098:	inc    eax
  401099:	push   edx
  40109a:	add    BYTE PTR [eax],al
  40109c:	nop
  40109d:	push   esp
  40109e:	add    BYTE PTR [eax],al
  4010a0:	rcl    BYTE PTR [eax+eax*1+0x0],1
  4010a4:	lock push esp
  4010a6:	add    BYTE PTR [eax],al
  4010a8:	and    BYTE PTR [ebp+0x0],dl
  4010ab:	add    BYTE PTR [eax+0x55],dh
  4010ae:	add    BYTE PTR [eax],al
  4010b0:	push   eax
  4010b1:	push   esi
  4010b2:	add    BYTE PTR [eax],al
  4010b4:	loopne 0x40110e
  4010b6:	add    BYTE PTR [eax],al
  4010b8:	adc    BYTE PTR [ecx+0x0],bl
  4010bb:	add    BYTE PTR [eax-0x2fffffa3],dh
  4010c1:	pop    ebp
  4010c2:	add    BYTE PTR [eax],al
  4010c4:	lock pop ebp
  4010c6:	add    BYTE PTR [eax],al
  4010c8:	inc    eax
  4010c9:	pop    esi
  4010ca:	add    BYTE PTR [eax],al
  4010cc:	add    BYTE PTR [eax],al
  4010ce:	add    BYTE PTR [eax],al
  4010d0:	bound  esp,QWORD PTR [ecx+0x64]
  4010d3:	and    BYTE PTR [ecx+0x6c],ah
  4010d6:	ins    BYTE PTR es:[edi],dx
  4010d7:	outs   dx,DWORD PTR ds:[esi]
  4010d8:	arpl   WORD PTR [ecx+0x74],sp
  4010db:	imul   ebp,DWORD PTR [edi+0x6e],0x4d400000
  4010e2:	inc    eax
  4010e3:	add    al,dh
  4010e5:	push   esp
  4010e6:	inc    eax
  4010e7:	add    BYTE PTR [eax+0x4d],dh
  4010ea:	inc    eax
  4010eb:	add    al,al
  4010ed:	jno    0x40112f
  4010ef:	add    BYTE PTR [eax],dl
  4010f1:	jb     0x401133
  4010f3:	add    BYTE PTR [eax+0x49004054],dl
  4010f9:	outs   dx,BYTE PTR ds:[esi]
  4010fa:	jbe    0x40115d
  4010fc:	ins    BYTE PTR es:[edi],dx
  4010fd:	imul   esp,DWORD PTR [eax+eiz*1+0x70],0x6d617261
  401105:	gs je  0x40116d
  401108:	jb     0x40112a
  40110a:	jo     0x40116d
  40110c:	jae    0x401181
  40110e:	gs and BYTE PTR fs:[edi+ebp*2+0x20],dh
  401114:	inc    ebx
  401115:	and    BYTE PTR [edx+0x75],dh
  401118:	outs   dx,BYTE PTR ds:[esi]
  401119:	je     0x401184
  40111b:	ins    DWORD PTR es:[edi],dx
  40111c:	and    BYTE PTR gs:[esi+0x75],ah
  401120:	outs   dx,BYTE PTR ds:[esi]
  401121:	arpl   WORD PTR [ecx+ebp*2+0x6f],si
  401125:	outs   dx,BYTE PTR ds:[esi]
  401126:	or     al,BYTE PTR cs:[eax]
  401129:	add    BYTE PTR [eax],al
  40112b:	add    BYTE PTR [eax],al
  40112d:	add    BYTE PTR [eax],al
  40112f:	add    BYTE PTR [ecx+0x0],al
  401132:	push   eax
  401133:	add    BYTE PTR [ecx+0x0],cl
  401136:	sub    eax,0x53004d00
  40113b:	add    BYTE PTR ds:0x69005700,ch
  401141:	add    BYTE PTR [esi+0x0],ch
  401144:	sub    eax,0x6f004300
  401149:	add    BYTE PTR [edx+0x0],dh
  40114c:	add    BYTE PTR gs:0x6f004c00,ch
  401153:	add    BYTE PTR [ebx+0x0],ah
  401156:	popa   
  401157:	add    BYTE PTR [eax+eax*1+0x52],ch
  40115b:	add    BYTE PTR [ebp+0x0],ah
  40115e:	add    BYTE PTR [bx+di+0x0],ch
  401162:	jae    0x401164
  401164:	je     0x401166
  401166:	jb     0x401168
  401168:	jns    0x40116a
  40116a:	sub    eax,0x31004c00
  40116f:	add    BYTE PTR ds:0x2d003100,ch
  401175:	add    BYTE PTR [eax],dh
  401177:	add    BYTE PTR [esi],ch
  401179:	add    BYTE PTR [eax+eax*1+0x6c],ah
  40117d:	add    BYTE PTR [eax+eax*1+0x0],ch
  401181:	add    BYTE PTR [eax],al
  401183:	add    BYTE PTR [edx+0x65],dl
  401186:	addr16 inc esp
  401188:	gs ins BYTE PTR es:[edi],dx
  40118a:	gs je  0x4011f2
  40118d:	dec    ebx
  40118e:	gs jns 0x4011d6
  401191:	js     0x4011ea
  401193:	add    BYTE PTR [ecx+0x0],ah
  401196:	add    BYTE PTR fs:[esi+0x0],dh
  40119a:	popa   
  40119b:	add    BYTE PTR [eax+0x0],dh
  40119e:	imul   eax,DWORD PTR [eax],0x320033
  4011a4:	add    BYTE PTR cs:[eax+eax*1+0x6c],ah
  4011a9:	add    BYTE PTR [eax+eax*1+0x0],ch
  4011ad:	add    BYTE PTR [eax],al
  4011af:	add    BYTE PTR [edx+0x65],dl
  4011b2:	addr16 inc esp
  4011b4:	gs ins BYTE PTR es:[edi],dx
  4011b6:	gs je  0x40121e
  4011b9:	dec    ebx
  4011ba:	gs jns 0x401214
  4011bd:	add    BYTE PTR [eax],al
  4011bf:	add    BYTE PTR [ebx+0x0],al
  4011c2:	dec    esp
  4011c3:	add    BYTE PTR [ebx+0x0],dl
  4011c6:	dec    ecx
  4011c7:	add    BYTE PTR [eax+eax*1+0x0],al
  4011cb:	add    BYTE PTR [ecx+0x0],al
  4011ce:	jo     0x4011d0
  4011d0:	jo     0x4011d2
  4011d2:	dec    ecx
  4011d3:	add    BYTE PTR [eax+eax*1+0x0],al
  4011d7:	add    BYTE PTR [ebx+0x0],dl
  4011da:	add    BYTE PTR [eax],al
  4011dc:	dec    ebp
  4011dd:	add    BYTE PTR [eax],al
  4011df:	add    BYTE PTR [eax+eax*1+0x0],al
  4011e3:	add    BYTE PTR [edx+0x0],al
  4011e6:	add    BYTE PTR [eax],al
  4011e8:	push   esi
  4011e9:	add    BYTE PTR [ecx+0x0],ah
  4011ec:	ins    BYTE PTR es:[edi],dx
  4011ed:	add    BYTE PTR [eax],al
  4011ef:	add    BYTE PTR [esi+0x0],al
  4011f2:	outs   dx,DWORD PTR ds:[esi]
  4011f3:	add    BYTE PTR [edx+0x0],dh
  4011f6:	arpl   WORD PTR [eax],ax
  4011f8:	add    BYTE PTR gs:[edx+0x0],dl
  4011fc:	add    BYTE PTR gs:[ebp+0x0],ch
  401200:	outs   dx,DWORD PTR ds:[esi]
  401201:	add    BYTE PTR [esi+0x0],dh
  401204:	add    BYTE PTR gs:[eax],al
  401207:	add    BYTE PTR [esi+0x0],cl
  40120a:	outs   dx,DWORD PTR ds:[esi]
  40120b:	add    BYTE PTR [edx+0x0],dl
  40120e:	add    BYTE PTR gs:[ebp+0x0],ch
  401212:	outs   dx,DWORD PTR ds:[esi]
  401213:	add    BYTE PTR [esi+0x0],dh
  401216:	add    BYTE PTR gs:[eax],al
  401219:	add    BYTE PTR [eax],al
  40121b:	add    BYTE PTR [eax+eax*1+0x65],al
  40121f:	add    BYTE PTR [eax+eax*1+0x65],ch
  401223:	add    BYTE PTR [eax+eax*1+0x65],dh
  401227:	add    BYTE PTR [eax],al
  401229:	add    BYTE PTR [eax],al
  40122b:	add    BYTE PTR [ebx+0x0],al
  40122e:	outs   dx,DWORD PTR ds:[esi]
  40122f:	add    BYTE PTR [ebp+0x0],ch
  401232:	jo     0x401234
  401234:	outs   dx,DWORD PTR ds:[esi]
  401235:	add    BYTE PTR [esi+0x0],ch
  401238:	add    BYTE PTR gs:[esi+0x0],ch
  40123c:	je     0x40123e
  40123e:	and    BYTE PTR [eax],al
  401240:	inc    ebx
  401241:	add    BYTE PTR [ecx+0x0],ah
  401244:	je     0x401246
  401246:	add    BYTE PTR gs:[edi+0x0],ah
  40124a:	outs   dx,DWORD PTR ds:[esi]
  40124b:	add    BYTE PTR [edx+0x0],dh
  40124e:	imul   eax,DWORD PTR [eax],0x730065
  401254:	add    BYTE PTR [eax],al
  401256:	add    BYTE PTR [eax],al
  401258:	inc    esi
  401259:	add    BYTE PTR [ecx+0x0],ch
  40125c:	ins    BYTE PTR es:[edi],dx
  40125d:	add    BYTE PTR [ebp+0x0],ah
  401260:	push   esp
  401261:	add    BYTE PTR [ecx+0x0],bh
  401264:	jo     0x401266
  401266:	add    BYTE PTR gs:[eax],al
  401269:	add    BYTE PTR [eax],al
  40126b:	add    BYTE PTR [ecx+0x0],cl
  40126e:	outs   dx,BYTE PTR ds:[esi]
  40126f:	add    BYTE PTR [eax+eax*1+0x65],dh
  401273:	add    BYTE PTR [edx+0x0],dh
  401276:	data16 add BYTE PTR [ecx+0x0],ah
  40127a:	arpl   WORD PTR [eax],ax
  40127c:	add    BYTE PTR gs:[eax],al
  40127f:	add    BYTE PTR [eax+0x0],cl
  401282:	popa   
  401283:	add    BYTE PTR [edx+0x0],dh
  401286:	add    BYTE PTR fs:[edi+0x0],dh
  40128a:	popa   
  40128b:	add    BYTE PTR [edx+0x0],dh
  40128e:	add    BYTE PTR gs:[eax],al
  401291:	add    BYTE PTR [eax],al
  401293:	add    BYTE PTR [ebp+0x0],cl
  401296:	imul   eax,DWORD PTR [eax],0x65006d
  40129c:	add    BYTE PTR [eax],al
  40129e:	add    BYTE PTR [eax],al
  4012a0:	push   ebx
  4012a1:	add    BYTE PTR [ecx+0x0],al
  4012a4:	dec    ebp
  4012a5:	add    BYTE PTR [eax],al
  4012a7:	add    BYTE PTR [ebx+0x0],dl
  4012aa:	inc    ebp
  4012ab:	add    BYTE PTR [ebx+0x0],al
  4012ae:	push   ebp
  4012af:	add    BYTE PTR [edx+0x0],dl
  4012b2:	dec    ecx
  4012b3:	add    BYTE PTR [eax+eax*1+0x59],dl
  4012b7:	add    BYTE PTR [eax],al
  4012b9:	add    BYTE PTR [eax],al
  4012bb:	add    BYTE PTR [ebx+0x0],dl
  4012be:	pop    ecx
  4012bf:	add    BYTE PTR [ebx+0x0],dl
  4012c2:	push   esp
  4012c3:	add    BYTE PTR [ebp+0x0],al
  4012c6:	dec    ebp
  4012c7:	add    BYTE PTR [eax],al
  4012c9:	add    BYTE PTR [eax],al
  4012cb:	add    BYTE PTR [ebx+0x0],dl
  4012ce:	outs   dx,DWORD PTR ds:[esi]
  4012cf:	add    BYTE PTR [esi+0x0],ah
  4012d2:	je     0x4012d4
  4012d4:	ja     0x4012d6
  4012d6:	popa   
  4012d7:	add    BYTE PTR [edx+0x0],dh
  4012da:	add    BYTE PTR gs:[eax],al
  4012dd:	add    BYTE PTR [eax],al
  4012df:	add    BYTE PTR [eax+eax*1+0x79],dl
  4012e3:	add    BYTE PTR [eax+0x0],dh
  4012e6:	add    BYTE PTR gs:[eax+eax*1+0x69],cl
  4012eb:	add    BYTE PTR [edx+0x0],ah
  4012ee:	add    BYTE PTR [eax],al
  4012f0:	dec    eax
  4012f1:	add    BYTE PTR [ebx+0x0],cl
  4012f4:	inc    ebx
  4012f5:	add    BYTE PTR [edx+0x0],dl
  4012f8:	add    BYTE PTR [eax],al
  4012fa:	add    BYTE PTR [eax],al
  4012fc:	dec    eax
  4012fd:	add    BYTE PTR [ebx+0x0],cl
  401300:	inc    ebx
  401301:	add    BYTE PTR [ebp+0x0],dl
  401304:	add    BYTE PTR [eax],al
  401306:	add    BYTE PTR [eax],al
  401308:	dec    eax
  401309:	add    BYTE PTR [ebx+0x0],cl
  40130c:	dec    esp
  40130d:	add    BYTE PTR [ebp+0x0],cl
  401310:	add    BYTE PTR [eax],al
  401312:	add    BYTE PTR [eax],al
  401314:	dec    eax
  401315:	add    BYTE PTR [ebx+0x0],cl
  401318:	push   ebp
  401319:	add    BYTE PTR [eax],al
  40131b:	add    BYTE PTR [eax+0x0],cl
  40131e:	dec    ebx
  40131f:	add    BYTE PTR [eax+0x0],dl
  401322:	inc    esp
  401323:	add    BYTE PTR [eax],al
  401325:	add    BYTE PTR [eax],al
  401327:	add    BYTE PTR [eax+0x0],cl
  40132a:	dec    ebx
  40132b:	add    BYTE PTR [eax+eax*1+0x44],al
  40132f:	add    BYTE PTR [eax],al
  401331:	add    BYTE PTR [eax],al
  401333:	add    BYTE PTR [eax+0x0],cl
  401336:	dec    ebx
  401337:	add    BYTE PTR [ebx+0x0],al
  40133a:	inc    ebx
  40133b:	add    BYTE PTR [eax],al
  40133d:	add    BYTE PTR [eax],al
  40133f:	add    BYTE PTR [eax+0x0],cl
  401342:	dec    ebx
  401343:	add    BYTE PTR [ebp+0x0],al
  401346:	pop    ecx
  401347:	add    BYTE PTR [edi+0x0],bl
  40134a:	inc    ebx
  40134b:	add    BYTE PTR [eax+eax*1+0x41],cl
  40134f:	add    BYTE PTR [ebx+0x0],dl
  401352:	push   ebx
  401353:	add    BYTE PTR [ebp+0x0],al
  401356:	push   ebx
  401357:	add    BYTE PTR [edi+0x0],bl
  40135a:	push   edx
  40135b:	add    BYTE PTR [edi+0x0],cl
  40135e:	dec    edi
  40135f:	add    BYTE PTR [eax+eax*1+0x0],dl
  401363:	add    BYTE PTR [eax+0x0],cl
  401366:	dec    ebx
  401367:	add    BYTE PTR [ebp+0x0],al
  40136a:	pop    ecx
  40136b:	add    BYTE PTR [edi+0x0],bl
  40136e:	inc    ebx
  40136f:	add    BYTE PTR [ebp+0x0],dl
  401372:	push   edx
  401373:	add    BYTE PTR [edx+0x0],dl
  401376:	inc    ebp
  401377:	add    BYTE PTR [esi+0x0],cl
  40137a:	push   esp
  40137b:	add    BYTE PTR [edi+0x0],bl
  40137e:	push   ebp
  40137f:	add    BYTE PTR [ebx+0x0],dl
  401382:	inc    ebp
  401383:	add    BYTE PTR [edx+0x0],dl
  401386:	add    BYTE PTR [eax],al
  401388:	dec    eax
  401389:	add    BYTE PTR [ebx+0x0],cl
  40138c:	inc    ebp
  40138d:	add    BYTE PTR [ecx+0x0],bl
  401390:	pop    edi
  401391:	add    BYTE PTR [eax+eax*1+0x4f],cl
  401395:	add    BYTE PTR [ebx+0x0],al
  401398:	inc    ecx
  401399:	add    BYTE PTR [eax+eax*1+0x5f],cl
  40139d:	add    BYTE PTR [ebp+0x0],cl
  4013a0:	inc    ecx
  4013a1:	add    BYTE PTR [ebx+0x0],al
  4013a4:	dec    eax
  4013a5:	add    BYTE PTR [ecx+0x0],cl
  4013a8:	dec    esi
  4013a9:	add    BYTE PTR [ebp+0x0],al
  4013ac:	add    BYTE PTR [eax],al
  4013ae:	add    BYTE PTR [eax],al
  4013b0:	dec    eax
  4013b1:	add    BYTE PTR [ebx+0x0],cl
  4013b4:	inc    ebp
  4013b5:	add    BYTE PTR [ecx+0x0],bl
  4013b8:	pop    edi
  4013b9:	add    BYTE PTR [ebp+0x0],dl
  4013bc:	push   ebx
  4013bd:	add    BYTE PTR [ebp+0x0],al
  4013c0:	push   edx
  4013c1:	add    BYTE PTR [ebx+0x0],dl
  4013c4:	add    BYTE PTR [eax],al
  4013c6:	add    BYTE PTR [eax],al
  4013c8:	dec    eax
  4013c9:	add    BYTE PTR [ebx+0x0],cl
  4013cc:	inc    ebp
  4013cd:	add    BYTE PTR [ecx+0x0],bl
  4013d0:	pop    edi
  4013d1:	add    BYTE PTR [eax+0x0],dl
  4013d4:	inc    ebp
  4013d5:	add    BYTE PTR [edx+0x0],dl
  4013d8:	inc    esi
  4013d9:	add    BYTE PTR [edi+0x0],cl
  4013dc:	push   edx
  4013dd:	add    BYTE PTR [ebp+0x0],cl
  4013e0:	inc    ecx
  4013e1:	add    BYTE PTR [esi+0x0],cl
  4013e4:	inc    ebx
  4013e5:	add    BYTE PTR [ebp+0x0],al
  4013e8:	pop    edi
  4013e9:	add    BYTE PTR [eax+eax*1+0x41],al
  4013ed:	add    BYTE PTR [eax+eax*1+0x41],dl
  4013f1:	add    BYTE PTR [eax],al
  4013f3:	add    BYTE PTR [eax+0x0],cl
  4013f6:	dec    ebx
  4013f7:	add    BYTE PTR [ebp+0x0],al
  4013fa:	pop    ecx
  4013fb:	add    BYTE PTR [edi+0x0],bl
  4013fe:	inc    esp
  4013ff:	add    BYTE PTR [ecx+0x0],bl
  401402:	dec    esi
  401403:	add    BYTE PTR [edi+0x0],bl
  401406:	inc    esp
  401407:	add    BYTE PTR [ecx+0x0],al
  40140a:	push   esp
  40140b:	add    BYTE PTR [ecx+0x0],al
  40140e:	add    BYTE PTR [eax],al
  401410:	dec    eax
  401411:	add    BYTE PTR [ebx+0x0],cl
  401414:	inc    ebp
  401415:	add    BYTE PTR [ecx+0x0],bl
  401418:	pop    edi
  401419:	add    BYTE PTR [ebx+0x0],al
  40141c:	push   ebp
  40141d:	add    BYTE PTR [edx+0x0],dl
  401420:	push   edx
  401421:	add    BYTE PTR [ebp+0x0],al
  401424:	dec    esi
  401425:	add    BYTE PTR [eax+eax*1+0x5f],dl
  401429:	add    BYTE PTR [ebx+0x0],al
  40142c:	dec    edi
  40142d:	add    BYTE PTR [esi+0x0],cl
  401430:	inc    esi
  401431:	add    BYTE PTR [ecx+0x0],cl
  401434:	inc    edi
  401435:	add    BYTE PTR [eax],al
  401437:	add    BYTE PTR [ebp+0x0],cl
  40143a:	outs   dx,DWORD PTR ds:[esi]
  40143b:	add    BYTE PTR [eax+eax*1+0x75],ah
  40143f:	add    BYTE PTR [eax+eax*1+0x65],ch
  401443:	add    BYTE PTR [eax],al
  401445:	add    BYTE PTR [eax],al
  401447:	add    BYTE PTR [ebp+0x0],cl
  40144a:	outs   dx,DWORD PTR ds:[esi]
  40144b:	add    BYTE PTR [eax+eax*1+0x75],ah
  40144f:	add    BYTE PTR [eax+eax*1+0x65],ch
  401453:	add    BYTE PTR [edi+0x0],bl
  401456:	push   edx
  401457:	add    BYTE PTR [ecx+0x0],ah
  40145a:	ja     0x40145c
  40145c:	add    BYTE PTR [eax],al
  40145e:	add    BYTE PTR [eax],al
  401460:	push   edx
  401461:	add    BYTE PTR [ebp+0x0],al
  401464:	inc    edi
  401465:	add    BYTE PTR [ecx+0x0],cl
  401468:	push   ebx
  401469:	add    BYTE PTR [eax+eax*1+0x52],dl
  40146d:	add    BYTE PTR [ecx+0x0],bl
	...
  401478:	cmp    al,0x0
  40147a:	dec    esi
  40147b:	add    BYTE PTR [ebp+0x0],dl
  40147e:	dec    esp
  40147f:	add    BYTE PTR [eax+eax*1+0x3e],cl
  401483:	add    BYTE PTR [eax],al
  401485:	add    BYTE PTR [eax],al
  401487:	add    BYTE PTR [esi+0x0],cl
  40148a:	push   ebp
  40148b:	add    BYTE PTR [eax+eax*1+0x4c],cl
  40148f:	add    BYTE PTR [eax],al
  401491:	add    BYTE PTR [eax],al
  401493:	add    BYTE PTR [esi+0x55],cl
  401496:	dec    esp
  401497:	dec    esp
  401498:	add    BYTE PTR [eax],al
  40149a:	add    BYTE PTR [eax],al
  40149c:	inc    ebp
  40149d:	add    BYTE PTR [eax+0x0],bh
  4014a0:	je     0x4014a2
  4014a2:	add    BYTE PTR gs:[esi+0x0],ch
  4014a6:	jae    0x4014a8
  4014a8:	imul   eax,DWORD PTR [eax],0x6c0062
  4014ae:	add    BYTE PTR gs:[eax],ah
  4014b1:	add    BYTE PTR [edi+0x0],dl
  4014b4:	imul   eax,DWORD PTR [eax],0x61007a
  4014ba:	jb     0x4014bc
  4014bc:	add    BYTE PTR fs:[eax],ah
  4014bf:	add    BYTE PTR [eax+0x0],cl
  4014c2:	outs   dx,DWORD PTR ds:[esi]
  4014c3:	add    BYTE PTR [ebx+0x0],dh
  4014c6:	je     0x4014c8
  4014c8:	add    BYTE PTR [eax],al
  4014ca:	add    BYTE PTR [eax],al
  4014cc:	js     0x4014ce
  4014ce:	ja     0x4014d0
  4014d0:	imul   eax,DWORD PTR [eax],0x61007a
  4014d6:	jb     0x4014d8
  4014d8:	add    BYTE PTR fs:[ebx+0x0],dh
  4014dc:	add    BYTE PTR cs:[eax+eax*1+0x6c],ah
  4014e1:	add    BYTE PTR [eax+eax*1+0x0],ch
  4014e5:	add    BYTE PTR [eax],al
  4014e7:	add    BYTE PTR [ecx+0x0],al
  4014ea:	push   eax
  4014eb:	add    BYTE PTR [eax+0x0],dl
  4014ee:	dec    ecx
  4014ef:	add    BYTE PTR [eax+eax*1+0x0],al
  4014f3:	add    BYTE PTR [eax+0x17],al
  4014f6:	inc    eax
  4014f7:	add    BYTE PTR [eax+0x3000401f],al
  4014fd:	push   ds
  4014fe:	inc    eax
  4014ff:	add    BYTE PTR [eax+0x1e],al
  401502:	inc    eax
  401503:	add    BYTE PTR [eax+0x1e],dl
  401506:	inc    eax
  401507:	add    BYTE PTR [eax+0x1e],ah
  40150a:	inc    eax
  40150b:	add    BYTE PTR [eax+0x46],al
  40150e:	inc    eax
  40150f:	add    BYTE PTR [eax],dh
  401511:	pop    ds
  401512:	inc    eax
  401513:	add    BYTE PTR [eax],dh
  401515:	pop    ds
  401516:	inc    eax
  401517:	add    BYTE PTR [eax+0x1f],ah
  40151a:	inc    eax
  40151b:	add    BYTE PTR [eax+0x1f],al
  40151e:	inc    eax
  40151f:	add    BYTE PTR [eax+ebx*1+0x40],ah
  401523:	add    al,ah
  401525:	and    al,0x40
  401527:	add    BYTE PTR [eax],al
  401529:	and    eax,0x25100040
  40152e:	inc    eax
  40152f:	add    al,al
  401531:	and    eax,0x28000040
  401536:	inc    eax
  401537:	add    BYTE PTR [eax+0x4025],al
  40153d:	add    BYTE PTR [eax],al
  40153f:	add    al,dh
  401541:	adc    al,BYTE PTR [eax+0x0]
  401544:	add    BYTE PTR [eax],al
  401546:	add    BYTE PTR [eax+0x4012fc],al
  40154c:	add    DWORD PTR [eax],eax
  40154e:	add    BYTE PTR [eax+0x401308],al
  401554:	add    al,BYTE PTR [eax]
  401556:	add    BYTE PTR [eax+0x401314],al
  40155c:	add    eax,DWORD PTR [eax]
  40155e:	add    BYTE PTR [eax+0x40131c],al
  401564:	add    al,0x0
  401566:	add    BYTE PTR [eax+0x401328],al
  40156c:	push   es
  40156d:	add    BYTE PTR [eax],al
  40156f:	xor    BYTE PTR [ebx+edx*1],0x40
  401573:	add    BYTE PTR ds:0x40800000,al
  401579:	adc    eax,DWORD PTR [eax+0x0]
  40157c:	add    BYTE PTR [eax],al
  40157e:	add    BYTE PTR [eax+0x401364],al
  401584:	add    DWORD PTR [eax],eax
  401586:	add    BYTE PTR [eax+0x401388],al
  40158c:	add    al,BYTE PTR [eax]
  40158e:	add    BYTE PTR [eax+0x4013b0],al
  401594:	add    eax,DWORD PTR [eax]
  401596:	add    BYTE PTR [eax+0x4013c8],al
  40159c:	add    al,0x0
  40159e:	add    BYTE PTR [eax+0x4013f4],al
  4015a4:	push   es
  4015a5:	add    BYTE PTR [eax],al
  4015a7:	adc    BYTE PTR [eax],0x14
  4015aa:	inc    eax
  4015ab:	add    BYTE PTR ds:0x46800000,al
  4015b1:	add    DWORD PTR [eax],eax
  4015b3:	add    BYTE PTR [eax],al
  4015b5:	add    BYTE PTR [eax],al
  4015b7:	add    al,al
  4015b9:	add    BYTE PTR [eax],al
  4015bb:	add    BYTE PTR [eax],al
  4015bd:	add    BYTE PTR [eax],al
  4015bf:	inc    esi
  4015c0:	add    BYTE PTR [eax],al
  4015c2:	add    BYTE PTR [eax],al
  4015c4:	jmp    FWORD PTR [eax+0x2498777b]
  4015ca:	jne    0x401614
  4015cc:	xchg   ebx,eax
  4015cd:	cmp    dh,BYTE PTR [eax]
  4015cf:	fimul  WORD PTR [bx+si+0x7030]
  4015d4:	push   ebp
  4015d5:	add    BYTE PTR ds:0xb7f846b9,bl
  4015db:	jmp    0x694f:0xd46aecfe
  4015e2:	mov    BYTE PTR [edx+0x323],al
  4015e8:	add    BYTE PTR [eax],al
  4015ea:	add    BYTE PTR [eax],al
  4015ec:	rol    BYTE PTR [eax],0x0
  4015ef:	add    BYTE PTR [eax],al
  4015f1:	add    BYTE PTR [eax],al
  4015f3:	inc    esi
	...
  401600:	int3   
  401601:	adc    DWORD PTR [eax+0x0],eax
  401604:	rcl    BYTE PTR [ecx],0x40
  401607:	add    BYTE PTR [edx+edx*1],ch
  40160a:	inc    eax
  40160b:	add    BYTE PTR [eax+0x12],bl
  40160e:	inc    eax
  40160f:	add    BYTE PTR [edx+edx*1+0x40],ch
  401613:	add    BYTE PTR [eax-0x6bffbfee],al
  401619:	adc    al,BYTE PTR [eax+0x0]
  40161c:	mov    al,ds:0xa8004012
  401621:	adc    al,BYTE PTR [eax+0x0]
  401624:	mov    esp,0xcc004012
  401629:	adc    al,BYTE PTR [eax+0x0]
  40162c:	loopne 0x401640
  40162e:	inc    eax
  40162f:	add    al,ah
  401631:	cmp    eax,0x3c6f394c
  401636:	rcl    BYTE PTR [ecx],cl
  401638:	cmp    DWORD PTR [ebx+0x0],0x7a794fc0
  40163f:	mov    bh,0xb8
  401641:	cmp    eax,0x2b99fa45
  401646:	jl     0x401697
  401648:	cdq    
  401649:	adc    cl,BYTE PTR [eax]
  40164b:	cld    
  40164c:	push   esp
  40164d:	int    0x4a
  40164f:	aas    
  401650:	arpl   WORD PTR [eax],ax
  401652:	outs   dx,DWORD PTR ds:[esi]
  401653:	add    BYTE PTR [ebp+0x0],ch
  401656:	arpl   WORD PTR [eax],ax
  401658:	je     0x40165a
  40165a:	ins    BYTE PTR es:[edi],dx
  40165b:	add    BYTE PTR [ebx],dh
  40165d:	add    BYTE PTR [edx],dh
  40165f:	add    BYTE PTR [esi],ch
  401661:	add    BYTE PTR [eax+eax*1+0x6c],ah
  401665:	add    BYTE PTR [eax+eax*1+0x0],ch
	...
  401671:	add    BYTE PTR [eax],al
  401673:	add    ch,bh
  401675:	cmp    al,0x9f
  401677:	push   ebp
  401678:	add    BYTE PTR [eax],al
  40167a:	add    BYTE PTR [eax],al
  40167c:	add    al,BYTE PTR [eax]
  40167e:	add    BYTE PTR [eax],al
  401680:	and    al,0x0
  401682:	add    BYTE PTR [eax],al
  401684:	xor    al,0x19
  401686:	add    BYTE PTR [eax],al
  401688:	xor    al,0xd
  40168a:	add    BYTE PTR [eax],al
  40168c:	add    BYTE PTR [eax],al
  40168e:	add    BYTE PTR [eax],al
  401690:	std    
  401691:	cmp    al,0x9f
  401693:	push   ebp
  401694:	add    BYTE PTR [eax],al
  401696:	add    BYTE PTR [eax],al
  401698:	or     eax,0x4c000000
  40169d:	add    al,BYTE PTR [eax]
  40169f:	add    BYTE PTR [ecx+ebx*1+0x0],ch
  4016a3:	add    BYTE PTR [ebp+ecx*1+0x0],ch
	...
  4016c7:	add    BYTE PTR [eax+0x0],ch
	...
  401702:	add    BYTE PTR [eax],al
  401704:	or     al,0x70
  401706:	inc    eax
  401707:	add    BYTE PTR [eax],dl
  401709:	sbb    DWORD PTR [eax+0x0],eax
  40170c:	or     DWORD PTR [eax],eax
  40170e:	add    BYTE PTR [eax],al
  401710:	fadd   DWORD PTR [ecx+0x40]
  401716:	add    BYTE PTR [eax],al
  401718:	sub    BYTE PTR [eax],dl
  40171a:	inc    eax
  40171b:	add    BYTE PTR [ecx],ch
  40171d:	add    BYTE PTR [eax],al
  40171f:	add    BYTE PTR [eax],al
  401721:	xor    eax,0x0
	...
  401736:	add    BYTE PTR [eax],al
  401738:	add    DWORD PTR [eax],eax
  40173a:	add    BYTE PTR [eax],al
  40173c:	fs pop ss
  40173e:	inc    eax
	...
  40174b:	add    BYTE PTR [eax+0x71],dl
  40174e:	inc    eax
  40174f:	add    ah,dl
  401751:	sbb    BYTE PTR [eax+0x0],al
	...
  40175c:	add    eax,DWORD PTR [eax]
  40175e:	add    BYTE PTR [eax],al
  401760:	hlt    
  401761:	sbb    BYTE PTR [eax+0x0],al
  401764:	rcl    BYTE PTR [edi],1
  401766:	inc    eax
  401767:	add    BYTE PTR [eax],al
  401769:	add    BYTE PTR [eax],al
  40176b:	add    ah,al
  40176d:	jo     0x4017af
  40176f:	add    BYTE PTR [edx],al
  401771:	add    BYTE PTR [eax],al
  401773:	add    BYTE PTR [eax],al
  401775:	add    BYTE PTR [eax],al
  401777:	add    bh,bh
  401779:	(bad)  
  40177a:	(bad)  
  40177b:	inc    DWORD PTR [eax]
  40177d:	add    BYTE PTR [eax],al
  40177f:	add    BYTE PTR [eax+0x0],al
  401782:	add    BYTE PTR [eax],al
  401784:	push   esp
  401785:	pop    ss
  401786:	inc    eax
  401787:	add    ah,ah
  401789:	jo     0x4017cb
  40178b:	add    BYTE PTR [edx],al
  40178d:	add    BYTE PTR [eax],al
  40178f:	add    BYTE PTR [eax],al
  401791:	add    BYTE PTR [eax],al
  401793:	add    bh,bh
  401795:	(bad)  
  401796:	(bad)  
  401797:	inc    DWORD PTR [eax]
  401799:	add    BYTE PTR [eax],al
  40179b:	add    BYTE PTR [eax+0x0],al
  40179e:	add    BYTE PTR [eax],al
  4017a0:	cmp    BYTE PTR [eax],bl
  4017a2:	inc    eax
  4017a3:	add    BYTE PTR [eax],bl
  4017a5:	jno    0x4017e7
	...
  4017af:	add    bh,bh
  4017b1:	(bad)  
  4017b2:	(bad)  
  4017b3:	inc    DWORD PTR [eax]
  4017b5:	add    BYTE PTR [eax],al
  4017b7:	add    BYTE PTR [eax+0x0],al
  4017ba:	add    BYTE PTR [eax],al
  4017bc:	rcl    BYTE PTR [edi],0x40
	...
  4017c7:	add    BYTE PTR [ecx],al
  4017c9:	add    BYTE PTR [eax],al
  4017cb:	add    BYTE PTR [eax+ebx*1],dl
  4017ce:	inc    eax
  4017cf:	add    BYTE PTR [eax+esi*2+0x40],ah
  4017d6:	add    BYTE PTR [eax],al
  4017d8:	add    BYTE PTR [eax],al
  4017da:	add    BYTE PTR [eax],al
  4017dc:	(bad)  
  4017dd:	(bad)  
  4017de:	(bad)  
  4017df:	inc    DWORD PTR [eax]
  4017e1:	add    BYTE PTR [eax],al
  4017e3:	add    BYTE PTR [eax+0x0],al
  4017e6:	add    BYTE PTR [eax],al
  4017e8:	xor    BYTE PTR [edi],dl
  4017ea:	inc    eax
  4017eb:	add    BYTE PTR [eax+ebx*1],bl
  4017ee:	inc    eax
  4017ef:	add    BYTE PTR [eax+0x18],bh
  4017f2:	inc    eax
  4017f3:	add    BYTE PTR [eax],al
  4017f5:	add    BYTE PTR [eax],al
  4017f7:	add    BYTE PTR [eax+0x71],dl
  4017fa:	inc    eax
  4017fb:	add    BYTE PTR [ebx],al
  4017fd:	add    BYTE PTR [eax],al
  4017ff:	add    BYTE PTR [eax],al
  401801:	add    BYTE PTR [eax],al
  401803:	add    bh,bh
  401805:	(bad)  
  401806:	(bad)  
  401807:	inc    DWORD PTR [eax]
  401809:	add    BYTE PTR [eax],al
  40180b:	add    BYTE PTR [eax+0x0],al
  40180e:	add    BYTE PTR [eax],al
  401810:	aam    0x18
  401812:	inc    eax
  401813:	add    BYTE PTR [edi+edx*1+0x40],ah
  40181a:	add    BYTE PTR [eax],al
  40181c:	test   BYTE PTR [eax+0x40],dh
  40181f:	add    BYTE PTR [ecx],al
  401821:	add    BYTE PTR [eax],al
  401823:	add    BYTE PTR [eax],al
  401825:	add    BYTE PTR [eax],al
  401827:	add    bh,bh
  401829:	(bad)  
  40182a:	(bad)  
  40182b:	inc    DWORD PTR [eax]
  40182d:	add    BYTE PTR [eax],al
  40182f:	add    BYTE PTR [eax+0x0],al
  401832:	add    BYTE PTR [eax],al
  401834:	push   esp
  401835:	sbb    BYTE PTR [eax+0x0],al
	...
  401840:	add    eax,DWORD PTR [eax]
  401842:	add    BYTE PTR [eax],al
  401844:	in     al,0x18
  401846:	inc    eax
  401847:	add    BYTE PTR [eax+ebx*1+0x17a40040],dl
  40184e:	inc    eax
	...
  40185b:	add    BYTE PTR [edx],al
  40185d:	add    BYTE PTR [eax],al
  40185f:	add    ah,ch
  401861:	pop    ss
  401862:	inc    eax
	...
  40186f:	add    ah,al
  401871:	jo     0x4018b3
  401873:	add    BYTE PTR [edi+edx*1+0x40],dl
  401877:	add    BYTE PTR [eax+esi*2+0x40],ah
  40187e:	add    BYTE PTR [eax],al
  401880:	add    al,0x0
  401882:	add    BYTE PTR [eax],al
  401884:	(bad)  
  401885:	(bad)  
  401886:	(bad)  
  401887:	inc    DWORD PTR [eax]
  401889:	add    BYTE PTR [eax],al
  40188b:	add    BYTE PTR [eax+0x0],al
  40188e:	add    BYTE PTR [eax],al
  401890:	xor    BYTE PTR [edi],dl
  401892:	inc    eax
  401893:	add    BYTE PTR [eax],dh
  401895:	jno    0x4018d7
  401897:	add    BYTE PTR [ecx],al
  401899:	add    BYTE PTR [eax],al
  40189b:	add    BYTE PTR [eax],al
  40189d:	add    BYTE PTR [eax],al
  40189f:	add    bh,bh
  4018a1:	(bad)  
  4018a2:	(bad)  
  4018a3:	inc    DWORD PTR [eax]
  4018a5:	add    BYTE PTR [eax],al
  4018a7:	add    BYTE PTR [eax+0x0],al
  4018aa:	add    BYTE PTR [eax],al
  4018ac:	les    ebx,FWORD PTR [eax]
  4018ae:	inc    eax
  4018af:	add    al,bh
  4018b1:	pop    ss
  4018b2:	inc    eax
  4018b3:	add    BYTE PTR [eax+0x1c004017],cl
  4018b9:	sbb    BYTE PTR [eax+0x0],al
  4018bc:	js     0x4018d6
  4018be:	inc    eax
	...
  4018cb:	add    BYTE PTR [edx],al
  4018cd:	add    BYTE PTR [eax],al
  4018cf:	add    BYTE PTR [eax+0x18],cl
  4018d2:	inc    eax
	...
  4018db:	add    BYTE PTR [eax+eax*1],al
  4018de:	add    BYTE PTR [eax],al
  4018e0:	mov    al,0x18
  4018e2:	inc    eax
  4018e3:	add    BYTE PTR [eax+0x1c004017],cl
  4018e9:	sbb    BYTE PTR [eax+0x0],al
  4018ec:	js     0x401906
  4018ee:	inc    eax
  4018ef:	add    BYTE PTR [eax],al
  4018f1:	add    BYTE PTR [eax],al
  4018f3:	add    BYTE PTR [edi+edx*1+0x40],ch
  4018f7:	add    BYTE PTR [eax+ebx*1+0x17a40040],dl
  4018fe:	inc    eax
	...
  40190f:	add    al,ah
  401911:	pop    eax
  401912:	add    BYTE PTR [eax],al
  401914:	call   0x18401974
  401919:	pop    esp
  40191a:	add    BYTE PTR [eax],al
  40191c:	push   esi
  40191d:	pop    esp
  40191e:	add    BYTE PTR [eax],al
  401920:	jle    0x40197e
  401922:	add    BYTE PTR [eax],al
  401924:	mov    ah,0x5c
  401926:	add    BYTE PTR [eax],al
  401928:	neg    DWORD PTR [eax+eax*1+0x0]
  40192c:	xor    al,0x5d
  40192e:	add    BYTE PTR [eax],al
  401930:	je     0x40198f
  401932:	add    BYTE PTR [eax],al
  401934:	push   edx
  401935:	push   ebx
  401936:	inc    esp
  401937:	push   ebx
  401938:	xor    ebp,DWORD PTR [eax+0x6f]
  40193b:	imul   esp,DWORD PTR [esi],0xa544e347
  401941:	int3   
  401942:	int3   
  401943:	jns    0x40196d
  401945:	shr    BYTE PTR [ecx+0x1f9],1
  40194b:	add    BYTE PTR [eax+0x77],bh
  40194e:	imul   edi,DWORD PTR [edx+0x61],0x702e6472
  401955:	bound  eax,QWORD PTR fs:[eax]
	...
  40196c:	inc    edi
  40196d:	inc    ebx
  40196e:	push   esp
  40196f:	dec    esp
  401970:	add    BYTE PTR [eax],dl
  401972:	add    BYTE PTR [eax],al
  401974:	add    al,0x0
  401976:	add    BYTE PTR [eax],al
  401978:	cs inc ebx
  40197a:	push   edx
  40197b:	push   esp
  40197c:	and    al,0x58
  40197e:	inc    ebx
  40197f:	inc    ecx
  401980:	add    BYTE PTR [eax],al
  401982:	add    BYTE PTR [eax],al
  401984:	add    al,0x10
  401986:	add    BYTE PTR [eax],al
  401988:	add    al,0x0
  40198a:	add    BYTE PTR [eax],al
  40198c:	cs inc ebx
  40198e:	push   edx
  40198f:	push   esp
  401990:	and    al,0x58
  401992:	inc    ebx
  401993:	inc    ecx
  401994:	inc    ecx
  401995:	add    BYTE PTR [eax],al
  401997:	add    BYTE PTR [eax],cl
  401999:	adc    BYTE PTR [eax],al
  40199b:	add    BYTE PTR [eax],cl
  40199d:	add    BYTE PTR [eax],al
  40199f:	add    BYTE PTR [esi],ch
  4019a1:	inc    ebx
  4019a2:	push   edx
  4019a3:	push   esp
  4019a4:	and    al,0x58
  4019a6:	inc    ebx
  4019a7:	dec    esp
  4019a8:	add    BYTE PTR [eax],al
  4019aa:	add    BYTE PTR [eax],al
  4019ac:	adc    BYTE PTR [eax],dl
  4019ae:	add    BYTE PTR [eax],al
  4019b0:	add    al,0x0
  4019b2:	add    BYTE PTR [eax],al
  4019b4:	cs inc ebx
  4019b6:	push   edx
  4019b7:	push   esp
  4019b8:	and    al,0x58
  4019ba:	inc    ebx
  4019bb:	push   ebp
  4019bc:	add    BYTE PTR [eax],al
  4019be:	add    BYTE PTR [eax],al
  4019c0:	adc    al,0x10
  4019c2:	add    BYTE PTR [eax],al
  4019c4:	add    al,0x0
  4019c6:	add    BYTE PTR [eax],al
  4019c8:	cs inc ebx
  4019ca:	push   edx
  4019cb:	push   esp
  4019cc:	and    al,0x58
  4019ce:	inc    ebx
  4019cf:	pop    edx
  4019d0:	add    BYTE PTR [eax],al
  4019d2:	add    BYTE PTR [eax],al
  4019d4:	sbb    BYTE PTR [eax],dl
  4019d6:	add    BYTE PTR [eax],al
  4019d8:	add    al,0x0
  4019da:	add    BYTE PTR [eax],al
  4019dc:	cs inc ebx
  4019de:	push   edx
  4019df:	push   esp
  4019e0:	and    al,0x58
  4019e2:	dec    ecx
  4019e3:	inc    ecx
  4019e4:	add    BYTE PTR [eax],al
  4019e6:	add    BYTE PTR [eax],al
  4019e8:	sbb    al,0x10
  4019ea:	add    BYTE PTR [eax],al
  4019ec:	add    al,0x0
  4019ee:	add    BYTE PTR [eax],al
  4019f0:	cs inc ebx
  4019f2:	push   edx
  4019f3:	push   esp
  4019f4:	and    al,0x58
  4019f6:	dec    ecx
  4019f7:	inc    ecx
  4019f8:	inc    ecx
  4019f9:	add    BYTE PTR [eax],al
  4019fb:	add    BYTE PTR [eax],ah
  4019fd:	adc    BYTE PTR [eax],al
  4019ff:	add    BYTE PTR [eax+eax*1],al
  401a02:	add    BYTE PTR [eax],al
  401a04:	cs inc ebx
  401a06:	push   edx
  401a07:	push   esp
  401a08:	and    al,0x58
  401a0a:	dec    ecx
  401a0b:	pop    ecx
  401a0c:	add    BYTE PTR [eax],al
  401a0e:	add    BYTE PTR [eax],al
  401a10:	and    al,0x10
  401a12:	add    BYTE PTR [eax],al
  401a14:	add    al,0x0
  401a16:	add    BYTE PTR [eax],al
  401a18:	cs inc ebx
  401a1a:	push   edx
  401a1b:	push   esp
  401a1c:	and    al,0x58
  401a1e:	dec    ecx
  401a1f:	pop    edx
  401a20:	add    BYTE PTR [eax],al
  401a22:	add    BYTE PTR [eax],al
  401a24:	sub    BYTE PTR [eax],dl
  401a26:	add    BYTE PTR [eax],al
  401a28:	movs   BYTE PTR es:[edi],BYTE PTR ds:[esi]
  401a29:	add    BYTE PTR [eax],al
  401a2b:	add    BYTE PTR [esi],ch
  401a2d:	imul   sp,WORD PTR [si+0x73],0x7824
  401a34:	add    BYTE PTR [eax],al
  401a36:	add    BYTE PTR [eax],al
  401a38:	rcl    BYTE PTR [eax],1
  401a3a:	add    BYTE PTR [eax],al
  401a3c:	pusha  
  401a3d:	push   es
  401a3e:	add    BYTE PTR [eax],al
  401a40:	cs jb  0x401aa7
  401a43:	popa   
  401a44:	je     0x401aa7
  401a46:	add    BYTE PTR [eax],al
  401a48:	xor    BYTE PTR [edi],dl
  401a4a:	add    BYTE PTR [eax],al
  401a4c:	rol    DWORD PTR [ecx],1
  401a4e:	add    BYTE PTR [eax],al
  401a50:	cs jb  0x401ab7
  401a53:	popa   
  401a54:	je     0x401ab7
  401a56:	and    al,0x72
  401a58:	add    BYTE PTR [eax],al
  401a5a:	add    BYTE PTR [eax],al
  401a5c:	adc    BYTE PTR [ecx],bl
  401a5e:	add    BYTE PTR [eax],al
  401a60:	and    al,0x0
  401a62:	add    BYTE PTR [eax],al
  401a64:	cs jb  0x401acb
  401a67:	popa   
  401a68:	je     0x401acb
  401a6a:	and    al,0x73
  401a6c:	js     0x401ad2
  401a6e:	popa   
  401a6f:	je     0x401ad2
  401a71:	add    BYTE PTR [eax],al
  401a73:	add    BYTE PTR [ecx+ebx*1],dh
  401a76:	add    BYTE PTR [eax],al
  401a78:	test   BYTE PTR [edx],al
  401a7a:	add    BYTE PTR [eax],al
  401a7c:	cs jb  0x401ae3
  401a7f:	popa   
  401a80:	je     0x401ae3
  401a82:	and    al,0x7a
  401a84:	jp     0x401b00
  401a86:	bound  esp,QWORD PTR fs:[edi+0x0]
  401a8a:	add    BYTE PTR [eax],al
  401a8c:	mov    eax,0xa000001b
  401a91:	add    BYTE PTR [eax],al
  401a93:	add    BYTE PTR [esi],ch
  401a95:	je     0x401afc
  401a97:	js     0x401b0d
  401a99:	and    al,0x64
  401a9b:	imul   eax,DWORD PTR [eax],0x60000000
  401aa1:	sbb    al,0x0
  401aa3:	add    BYTE PTR [ebx+0x3f],bh
  401aa6:	add    BYTE PTR [eax],al
  401aa8:	cs je  0x401b10
  401aab:	js     0x401b21
  401aad:	and    al,0x6d
  401aaf:	outs   dx,BYTE PTR ds:[esi]
  401ab0:	add    BYTE PTR [eax],al
  401ab2:	add    BYTE PTR [eax],al
  401ab4:	fistp  DWORD PTR [ebx+0x0]
  401ab7:	add    bh,al
  401ab9:	add    DWORD PTR [eax],eax
  401abb:	add    BYTE PTR [esi],ch
  401abd:	je     0x401b24
  401abf:	js     0x401b35
  401ac1:	and    al,0x78
  401ac3:	add    BYTE PTR [edx-0x4dffffa3],ah
  401ac9:	add    BYTE PTR [eax],al
  401acb:	add    BYTE PTR [esi],ch
  401acd:	je     0x401b34
  401acf:	js     0x401b45
  401ad1:	and    al,0x79
  401ad3:	add    BYTE PTR fs:[eax],al
  401ad6:	add    BYTE PTR [eax],al
  401ad8:	pop    eax
  401ad9:	pop    esi
  401ada:	add    BYTE PTR [eax],al
  401adc:	enter  0x3,0x0
  401ae0:	cs js  0x401b47
  401ae3:	popa   
  401ae4:	je     0x401b47
  401ae6:	and    al,0x78
  401ae8:	add    BYTE PTR [eax],al
  401aea:	add    BYTE PTR [eax],al
  401aec:	add    BYTE PTR [eax+0x0],dh
  401aef:	add    BYTE PTR [eax+0x0],dl
  401af2:	add    BYTE PTR [eax],al
  401af4:	cs fs popa 
  401af7:	je     0x401b5a
  401af9:	add    BYTE PTR [eax],al
  401afb:	add    BYTE PTR [eax+0x70],dl
  401afe:	add    BYTE PTR [eax],al
  401b00:	inc    eax
  401b01:	add    DWORD PTR [eax],eax
  401b03:	add    BYTE PTR [esi],ch
  401b05:	fs popa 
  401b07:	je     0x401b6a
  401b09:	and    al,0x72
  401b0b:	add    BYTE PTR [eax+0x4c000071],dl
  401b11:	add    al,0x0
  401b13:	add    BYTE PTR [esi],ch
  401b15:	bound  esi,QWORD PTR [ebx+0x73]
  401b18:	add    BYTE PTR [eax],al
  401b1a:	add    BYTE PTR [eax],al
  401b1c:	add    BYTE PTR [eax+0x1d80000],al
  401b22:	add    BYTE PTR [eax],al
  401b24:	imul   esp,DWORD PTR cs:[ecx+eiz*2+0x74],0x352461
  401b2d:	add    BYTE PTR [eax],al
  401b2f:	add    al,bl
  401b31:	add    DWORD PTR [eax],0x400
  401b37:	add    BYTE PTR [esi],ch
  401b39:	xor    BYTE PTR [eax],dh
  401b3b:	arpl   WORD PTR [esi+0x67],sp
  401b3e:	add    BYTE PTR [eax],al
  401b40:	fadd   QWORD PTR [ecx+0x1900000]
  401b46:	add    BYTE PTR [eax],al
  401b48:	imul   esp,DWORD PTR cs:[ecx+eiz*2+0x74],0x322461
  401b51:	add    BYTE PTR [eax],al
  401b53:	add    BYTE PTR [ebx+eax*4+0x0],ch
  401b57:	add    BYTE PTR [eax+eax*1],dl
  401b5a:	add    BYTE PTR [eax],al
  401b5c:	imul   esp,DWORD PTR cs:[ecx+eiz*2+0x74],0x332461
  401b65:	add    BYTE PTR [eax],al
  401b67:	add    BYTE PTR [eax-0x27ffff7d],al
  401b6d:	add    DWORD PTR [eax],eax
  401b6f:	add    BYTE PTR [esi],ch
  401b71:	imul   esp,DWORD PTR [ecx+eiz*2+0x74],0x342461
  401b79:	add    BYTE PTR [eax],al
  401b7b:	add    BYTE PTR [eax-0x7b],bl
  401b7e:	add    BYTE PTR [eax],al
  401b80:	pop    esp
  401b81:	or     DWORD PTR [eax],eax
  401b83:	add    BYTE PTR [esi],ch
  401b85:	imul   esp,DWORD PTR [ecx+eiz*2+0x74],0x362461
  401b8d:	add    BYTE PTR [eax],al
  401b8f:	add    BYTE PTR [eax],al
  401b91:	nop
  401b92:	add    BYTE PTR [eax],al
  401b94:	add    BYTE PTR [ebx],al
  401b96:	add    BYTE PTR [eax],al
  401b98:	cs jb  0x401c0e
  401b9b:	jb     0x401c00
  401b9d:	and    al,0x30
  401b9f:	xor    DWORD PTR [eax],eax
  401ba1:	add    BYTE PTR [eax],al
  401ba3:	add    BYTE PTR [eax],al
  401ba5:	xchg   ebx,eax
  401ba6:	add    BYTE PTR [eax],al
  401ba8:	cwde   
  401ba9:	imul   eax,DWORD PTR [eax],0x0
  401bac:	cs jb  0x401c22
  401baf:	jb     0x401c14
  401bb1:	and    al,0x30
  401bb3:	xor    al,BYTE PTR [eax]
	...
  401bbd:	add    BYTE PTR [eax],al
  401bbf:	add    BYTE PTR [ebx+0x1cbe56ff],cl
  401bc5:	jne    0x401c07
  401bc7:	add    BYTE PTR [ecx+0x40752c],bh
  401bcd:	mov    DWORD PTR ds:0x4075b4,esi
  401bd3:	call   0x401d4b
  401bd8:	test   eax,eax
  401bda:	jns    0x401be5
  401bdc:	mov    BYTE PTR ds:0x4075b0,0x1
  401be3:	jmp    0x401bef
  401be5:	mov    DWORD PTR ds:0x407520,0x24
  401bef:	push   0x405db0
  401bf4:	mov    DWORD PTR ds:0x40751c,0x4014f8
  401bfe:	mov    DWORD PTR ds:0x4075b8,esi
  401c04:	call   0x405223
  401c09:	pop    ecx
  401c0a:	pop    esi
  401c0b:	ret    
  401c0c:	int3   
  401c0d:	int3   
  401c0e:	int3   
  401c0f:	int3   
  401c10:	call   0x404796
  401c15:	push   0x405dd0
  401c1a:	call   0x405223
  401c1f:	pop    ecx
  401c20:	ret    
  401c21:	int3   
  401c22:	int3   
  401c23:	int3   
  401c24:	int3   
  401c25:	int3   
  401c26:	int3   
  401c27:	int3   
  401c28:	int3   
  401c29:	int3   
  401c2a:	int3   
  401c2b:	int3   
  401c2c:	int3   
  401c2d:	int3   
  401c2e:	int3   
  401c2f:	int3   
  401c30:	mov    ecx,0x407024
  401c35:	call   0x401d4b
  401c3a:	test   eax,eax
  401c3c:	jns    0x401c4c
  401c3e:	and    DWORD PTR ds:0x407020,0x0
  401c45:	mov    BYTE PTR ds:0x4075b0,0x1
  401c4c:	push   0x405df0
  401c51:	call   0x405223
  401c56:	pop    ecx
  401c57:	ret    
  401c58:	int3   
  401c59:	int3   
  401c5a:	int3   
  401c5b:	int3   
  401c5c:	int3   
  401c5d:	int3   
  401c5e:	int3   
  401c5f:	int3   
  401c60:	int3   
  401c61:	int3   
  401c62:	int3   
  401c63:	int3   
  401c64:	int3   
  401c65:	test   ecx,ecx
  401c67:	jne    0x401c6c
  401c69:	xor    eax,eax
  401c6b:	ret    
  401c6c:	lea    edx,[ecx+0x2]
  401c6f:	mov    ax,WORD PTR [ecx]
  401c72:	add    ecx,0x2
  401c75:	test   ax,ax
  401c78:	jne    0x401c6f
  401c7a:	sub    ecx,edx
  401c7c:	sar    ecx,1
  401c7e:	mov    eax,ecx
  401c80:	ret    
  401c81:	int3   
  401c82:	int3   
  401c83:	int3   
  401c84:	int3   
  401c85:	int3   
  401c86:	mov    edi,edi
  401c88:	push   ebp
  401c89:	mov    ebp,esp
  401c8b:	push   esi
  401c8c:	push   edi
  401c8d:	mov    edi,ecx
  401c8f:	mov    esi,edx
  401c91:	mov    ecx,DWORD PTR [ebp+0x8]
  401c94:	call   0x401c65
  401c99:	lea    eax,[eax*2+0x2]
  401ca0:	push   eax
  401ca1:	push   DWORD PTR [ebp+0x8]
  401ca4:	lea    eax,[esi+esi*1]
  401ca7:	push   eax
  401ca8:	push   edi
  401ca9:	call   DWORD PTR ds:0x4081ac
  401caf:	add    esp,0x10
  401cb2:	neg    eax
  401cb4:	sbb    eax,eax
  401cb6:	inc    eax
  401cb7:	pop    edi
  401cb8:	pop    esi
  401cb9:	pop    ebp
  401cba:	ret    0x4
  401cbd:	int3   
  401cbe:	int3   
  401cbf:	int3   
  401cc0:	int3   
  401cc1:	int3   
  401cc2:	push   0x0
  401cc4:	push   0x0
  401cc6:	push   0x1
  401cc8:	push   ecx
  401cc9:	call   DWORD PTR ds:0x408048
  401ccf:	ret    
  401cd0:	int3   
  401cd1:	int3   
  401cd2:	int3   
  401cd3:	int3   
  401cd4:	int3   
  401cd5:	mov    edi,edi
  401cd7:	push   ebp
  401cd8:	mov    ebp,esp
  401cda:	mov    eax,DWORD PTR [ebp+0x8]
  401cdd:	mov    DWORD PTR [ecx],eax
  401cdf:	mov    eax,ecx
  401ce1:	pop    ebp
  401ce2:	ret    0x4
  401ce5:	int3   
  401ce6:	int3   
  401ce7:	int3   
  401ce8:	int3   
  401ce9:	int3   
  401cea:	mov    edi,edi
  401cec:	push   ebp
  401ced:	mov    ebp,esp
  401cef:	push   ecx
  401cf0:	push   ecx
  401cf1:	push   ecx
  401cf2:	lea    ecx,[ebp-0x8]
  401cf5:	call   0x401cd5
  401cfa:	push   0x4061f4
  401cff:	mov    eax,DWORD PTR [eax]
  401d01:	mov    DWORD PTR [ebp-0x4],eax
  401d04:	lea    eax,[ebp-0x4]
  401d07:	push   eax
  401d08:	call   0x405508
  401d0d:	int3   
  401d0e:	int3   
  401d0f:	int3   
  401d10:	int3   
  401d11:	int3   
  401d12:	int3   
  401d13:	test   ecx,ecx
  401d15:	je     0x401d43
  401d17:	cmp    ecx,0xc
  401d1a:	je     0x401d3c
  401d1c:	cmp    ecx,0x16
  401d1f:	je     0x401d35
  401d21:	cmp    ecx,0x22
  401d24:	je     0x401d35
  401d26:	cmp    ecx,0x50
  401d29:	je     0x401d43
  401d2b:	mov    ecx,0x80004005
  401d30:	jmp    0x401cea
  401d35:	mov    ecx,0x80070057
  401d3a:	jmp    0x401d30
  401d3c:	mov    ecx,0x8007000e
  401d41:	jmp    0x401d30
  401d43:	mov    eax,ecx
  401d45:	ret    
  401d46:	int3   
  401d47:	int3   
  401d48:	int3   
  401d49:	int3   
  401d4a:	int3   
  401d4b:	push   0xc
  401d4d:	push   0x405e58
  401d52:	call   0x405a08
  401d57:	xor    esi,esi
  401d59:	mov    DWORD PTR [ebp-0x4],esi
  401d5c:	push   ecx
  401d5d:	call   DWORD PTR ds:0x408110
  401d63:	jmp    0x401d80
  401d65:	mov    eax,DWORD PTR [ebp-0x14]
  401d68:	mov    eax,DWORD PTR [eax]
  401d6a:	xor    ecx,ecx
  401d6c:	cmp    DWORD PTR [eax],0xc0000017
  401d72:	sete   cl
  401d75:	mov    eax,ecx
  401d77:	ret    
  401d78:	mov    esp,DWORD PTR [ebp-0x18]
  401d7b:	mov    esi,0x8007000e
  401d80:	mov    DWORD PTR [ebp-0x1c],esi
  401d83:	mov    DWORD PTR [ebp-0x4],0xfffffffe
  401d8a:	mov    eax,esi
  401d8c:	call   0x405a4d
  401d91:	ret    
  401d92:	int3   
  401d93:	int3   
  401d94:	int3   
  401d95:	int3   
  401d96:	int3   
  401d97:	call   DWORD PTR ds:0x408050
  401d9d:	test   eax,eax
  401d9f:	jle    0x401da9
  401da1:	movzx  eax,ax
  401da4:	or     eax,0x80070000
  401da9:	ret    
  401daa:	int3   
  401dab:	int3   
  401dac:	int3   
  401dad:	int3   
  401dae:	int3   
  401daf:	test   ecx,ecx
  401db1:	jle    0x401dbc
  401db3:	movzx  ecx,cx
  401db6:	or     ecx,0x80070000
  401dbc:	mov    eax,ecx
  401dbe:	ret    
  401dbf:	int3   
  401dc0:	int3   
  401dc1:	int3   
  401dc2:	int3   
  401dc3:	int3   
  401dc4:	mov    edi,edi
  401dc6:	push   ebp
  401dc7:	mov    ebp,esp
  401dc9:	push   ecx
  401dca:	mov    eax,ds:0x40700c
  401dcf:	xor    eax,ebp
  401dd1:	mov    DWORD PTR [ebp-0x4],eax
  401dd4:	push   ebx
  401dd5:	push   edi
  401dd6:	mov    edi,ecx
  401dd8:	lea    ebx,[edi+0x4]
  401ddb:	cmp    DWORD PTR [ebx],0x0
  401dde:	je     0x401e17
  401de0:	cmp    DWORD PTR [edi+0xc],0x0
  401de4:	je     0x401df1
  401de6:	mov    ecx,ebx
  401de8:	call   0x403e26
  401ded:	and    DWORD PTR [edi+0xc],0x0
  401df1:	mov    ecx,DWORD PTR [edi+0x28]
  401df4:	test   ecx,ecx
  401df6:	je     0x401e0a
  401df8:	mov    eax,DWORD PTR [ecx]
  401dfa:	push   esi
  401dfb:	push   ecx
  401dfc:	mov    esi,DWORD PTR [eax+0x8]
  401dff:	mov    ecx,esi
  401e01:	call   DWORD PTR ds:0x4081d8
  401e07:	call   esi
  401e09:	pop    esi
  401e0a:	lea    eax,[edi+0x10]
  401e0d:	push   eax
  401e0e:	call   DWORD PTR ds:0x408114
  401e14:	and    DWORD PTR [ebx],0x0
  401e17:	mov    ecx,DWORD PTR [ebp-0x4]
  401e1a:	pop    edi
  401e1b:	xor    ecx,ebp
  401e1d:	pop    ebx
  401e1e:	call   0x405170
  401e23:	mov    esp,ebp
  401e25:	pop    ebp
  401e26:	ret    
  401e27:	int3   
  401e28:	int3   
  401e29:	int3   
  401e2a:	int3   
  401e2b:	int3   
  401e2c:	int3   
  401e2d:	int3   
  401e2e:	int3   
  401e2f:	int3   
  401e30:	xor    eax,eax
  401e32:	inc    eax
  401e33:	lock xadd DWORD PTR [ecx+0x8],eax
  401e38:	inc    eax
  401e39:	ret    
  401e3a:	int3   
  401e3b:	int3   
  401e3c:	int3   
  401e3d:	int3   
  401e3e:	int3   
  401e3f:	int3   
  401e40:	or     eax,0xffffffff
  401e43:	lock xadd DWORD PTR [ecx+0x8],eax
  401e48:	dec    eax
  401e49:	ret    
  401e4a:	int3   
  401e4b:	int3   
  401e4c:	int3   
  401e4d:	int3   
  401e4e:	int3   
  401e4f:	int3   
  401e50:	mov    eax,DWORD PTR [ecx+0x8]
  401e53:	ret    
  401e54:	int3   
  401e55:	int3   
  401e56:	int3   
  401e57:	int3   
  401e58:	int3   
  401e59:	int3   
  401e5a:	int3   
  401e5b:	int3   
  401e5c:	int3   
  401e5d:	int3   
  401e5e:	int3   
  401e5f:	int3   
  401e60:	mov    edi,edi
  401e62:	push   ebp
  401e63:	mov    ebp,esp
  401e65:	push   ecx
  401e66:	mov    eax,ds:0x40700c
  401e6b:	xor    eax,ebp
  401e6d:	mov    DWORD PTR [ebp-0x4],eax
  401e70:	push   ebx
  401e71:	mov    ebx,DWORD PTR [ebp+0x8]
  401e74:	test   ebx,ebx
  401e76:	jne    0x401e7f
  401e78:	mov    eax,0x80004003
  401e7d:	jmp    0x401ebe
  401e7f:	push   esi
  401e80:	push   edi
  401e81:	xor    edi,edi
  401e83:	lea    esi,[ecx+0x28]
  401e86:	cmp    DWORD PTR [esi],edi
  401e88:	jne    0x401ea4
  401e8a:	push   esi
  401e8b:	push   0x4015b0
  401e90:	push   0x1
  401e92:	push   edi
  401e93:	push   0x4015e4
  401e98:	call   DWORD PTR ds:0x408030
  401e9e:	mov    edi,eax
  401ea0:	test   edi,edi
  401ea2:	js     0x401eba
  401ea4:	mov    ecx,DWORD PTR [esi]
  401ea6:	mov    DWORD PTR [ebx],ecx
  401ea8:	mov    ecx,DWORD PTR [esi]
  401eaa:	push   ecx
  401eab:	mov    edx,DWORD PTR [ecx]
  401ead:	mov    esi,DWORD PTR [edx+0x4]
  401eb0:	mov    ecx,esi
  401eb2:	call   DWORD PTR ds:0x4081d8
  401eb8:	call   esi
  401eba:	mov    eax,edi
  401ebc:	pop    edi
  401ebd:	pop    esi
  401ebe:	mov    ecx,DWORD PTR [ebp-0x4]
  401ec1:	xor    ecx,ebp
  401ec3:	pop    ebx
  401ec4:	call   0x405170
  401ec9:	mov    esp,ebp
  401ecb:	pop    ebp
  401ecc:	ret    0x4
  401ecf:	int3   
  401ed0:	int3   
  401ed1:	int3   
  401ed2:	int3   
  401ed3:	int3   
  401ed4:	mov    edi,edi
  401ed6:	push   ebp
  401ed7:	mov    ebp,esp
  401ed9:	push   ebx
  401eda:	mov    ebx,edx
  401edc:	push   esi
  401edd:	xor    esi,esi
  401edf:	lea    edx,[ebx-0x1]
  401ee2:	test   edx,edx
  401ee4:	je     0x401f16
  401ee6:	push   edi
  401ee7:	mov    edi,DWORD PTR [ebp+0x8]
  401eea:	movzx  eax,WORD PTR [edi]
  401eed:	test   ax,ax
  401ef0:	je     0x401f15
  401ef2:	mov    WORD PTR [ecx+esi*2],ax
  401ef6:	push   0x27
  401ef8:	pop    eax
  401ef9:	cmp    WORD PTR [edi],ax
  401efc:	jne    0x401f0d
  401efe:	lea    eax,[ebx-0x2]
  401f01:	cmp    esi,eax
  401f03:	jae    0x401f0d
  401f05:	inc    esi
  401f06:	push   0x27
  401f08:	pop    eax
  401f09:	mov    WORD PTR [ecx+esi*2],ax
  401f0d:	add    edi,0x2
  401f10:	inc    esi
  401f11:	cmp    esi,edx
  401f13:	jb     0x401eea
  401f15:	pop    edi
  401f16:	xor    eax,eax
  401f18:	mov    WORD PTR [ecx+esi*2],ax
  401f1c:	pop    esi
  401f1d:	pop    ebx
  401f1e:	pop    ebp
  401f1f:	ret    0x4
  401f22:	int3   
  401f23:	int3   
  401f24:	int3   
  401f25:	int3   
  401f26:	int3   
  401f27:	int3   
  401f28:	int3   
  401f29:	int3   
  401f2a:	int3   
  401f2b:	int3   
  401f2c:	int3   
  401f2d:	int3   
  401f2e:	int3   
  401f2f:	int3   
  401f30:	mov    eax,0x80004005
  401f35:	ret    0x10
  401f38:	int3   
  401f39:	int3   
  401f3a:	int3   
  401f3b:	int3   
  401f3c:	int3   
  401f3d:	int3   
  401f3e:	int3   
  401f3f:	int3   
  401f40:	mov    edi,edi
  401f42:	push   ebp
  401f43:	mov    ebp,esp
  401f45:	push   DWORD PTR [ebp+0x14]
  401f48:	mov    edx,DWORD PTR [ebp+0xc]
  401f4b:	push   DWORD PTR [ebp+0x10]
  401f4e:	mov    ecx,DWORD PTR [ebp+0x8]
  401f51:	call   0x403980
  401f56:	pop    ebp
  401f57:	ret    0x10
  401f5a:	int3   
  401f5b:	int3   
  401f5c:	int3   
  401f5d:	int3   
  401f5e:	int3   
  401f5f:	int3   
  401f60:	mov    edi,edi
  401f62:	push   ebp
  401f63:	mov    ebp,esp
  401f65:	push   DWORD PTR [ebp+0x14]
  401f68:	mov    edx,DWORD PTR [ebp+0xc]
  401f6b:	push   DWORD PTR [ebp+0x10]
  401f6e:	mov    ecx,DWORD PTR [ebp+0x8]
  401f71:	call   0x403be0
  401f76:	pop    ebp
  401f77:	ret    0x10
  401f7a:	int3   
  401f7b:	int3   
  401f7c:	int3   
  401f7d:	int3   
  401f7e:	int3   
  401f7f:	int3   
  401f80:	mov    edi,edi
  401f82:	push   ebp
  401f83:	mov    ebp,esp
  401f85:	push   esi
  401f86:	mov    esi,ecx
  401f88:	mov    DWORD PTR [esi],0x4014f8
  401f8e:	call   0x401dc4
  401f93:	test   BYTE PTR [ebp+0x8],0x1
  401f97:	je     0x401fa0
  401f99:	push   esi
  401f9a:	call   0x404d30
  401f9f:	pop    ecx
  401fa0:	mov    eax,esi
  401fa2:	pop    esi
  401fa3:	pop    ebp
  401fa4:	ret    0x4
  401fa7:	int3   
  401fa8:	int3   
  401fa9:	int3   
  401faa:	int3   
  401fab:	int3   
  401fac:	mov    edi,edi
  401fae:	push   esi
  401faf:	mov    esi,ecx
  401fb1:	cmp    DWORD PTR [esi],0x0
  401fb4:	je     0x401fc1
  401fb6:	push   DWORD PTR [esi]
  401fb8:	call   DWORD PTR ds:0x4080cc
  401fbe:	and    DWORD PTR [esi],0x0
  401fc1:	pop    esi
  401fc2:	ret    
  401fc3:	int3   
  401fc4:	int3   
  401fc5:	int3   
  401fc6:	int3   
  401fc7:	int3   
  401fc8:	mov    edi,edi
  401fca:	push   ebp
  401fcb:	mov    ebp,esp
  401fcd:	push   ecx
  401fce:	mov    eax,ds:0x40700c
  401fd3:	xor    eax,ebp
  401fd5:	mov    DWORD PTR [ebp-0x4],eax
  401fd8:	push   ebx
  401fd9:	push   esi
  401fda:	mov    esi,ecx
  401fdc:	xor    ebx,ebx
  401fde:	push   edi
  401fdf:	cmp    DWORD PTR [esi+0x4],ebx
  401fe2:	jne    0x402029
  401fe4:	cmp    DWORD PTR [esi+0x8],ebx
  401fe7:	jne    0x402029
  401fe9:	push   0x401130
  401fee:	call   DWORD PTR ds:0x408074
  401ff4:	test   eax,eax
  401ff6:	je     0x402009
  401ff8:	push   0x401184
  401ffd:	push   eax
  401ffe:	call   DWORD PTR ds:0x408078
  402004:	mov    DWORD PTR [esi+0x4],eax
  402007:	jmp    0x402029
  402009:	push   ebx
  40200a:	push   ebx
  40200b:	push   0x401194
  402010:	call   DWORD PTR ds:0x40806c
  402016:	test   eax,eax
  402018:	je     0x402029
  40201a:	push   0x4011b0
  40201f:	push   eax
  402020:	call   DWORD PTR ds:0x408078
  402026:	mov    DWORD PTR [esi+0x8],eax
  402029:	mov    edi,DWORD PTR [esi+0x4]
  40202c:	test   edi,edi
  40202e:	je     0x402043
  402030:	push   ebx
  402031:	push   ebx
  402032:	push   DWORD PTR [ebp+0x8]
  402035:	mov    ecx,edi
  402037:	push   DWORD PTR [esi]
  402039:	call   DWORD PTR ds:0x4081d8
  40203f:	call   edi
  402041:	jmp    0x402061
  402043:	mov    edi,DWORD PTR [esi+0x8]
  402046:	test   edi,edi
  402048:	je     0x40205b
  40204a:	push   DWORD PTR [ebp+0x8]
  40204d:	mov    ecx,edi
  40204f:	push   DWORD PTR [esi]
  402051:	call   DWORD PTR ds:0x4081d8
  402057:	call   edi
  402059:	jmp    0x402061
  40205b:	call   DWORD PTR ds:0x408050
  402061:	mov    ecx,DWORD PTR [ebp-0x4]
  402064:	pop    edi
  402065:	pop    esi
  402066:	xor    ecx,ebp
  402068:	pop    ebx
  402069:	call   0x405170
  40206e:	mov    esp,ebp
  402070:	pop    ebp
  402071:	ret    0x4
  402074:	int3   
  402075:	int3   
  402076:	int3   
  402077:	int3   
  402078:	int3   
  402079:	mov    edi,edi
  40207b:	push   ebp
  40207c:	mov    ebp,esp
  40207e:	push   ecx
  40207f:	push   ecx
  402080:	mov    edx,DWORD PTR [ebp+0xc]
  402083:	push   ebx
  402084:	mov    ebx,ecx
  402086:	push   esi
  402087:	push   edi
  402088:	test   edx,edx
  40208a:	je     0x4020d5
  40208c:	xor    eax,eax
  40208e:	mov    edi,edx
  402090:	mov    DWORD PTR [ebp-0x4],eax
  402093:	mov    esi,eax
  402095:	mov    ecx,edi
  402097:	lea    eax,[ecx+0x2]
  40209a:	mov    DWORD PTR [ebp-0x8],eax
  40209d:	mov    ax,WORD PTR [ecx]
  4020a0:	add    ecx,0x2
  4020a3:	cmp    ax,WORD PTR [ebp-0x4]
  4020a7:	jne    0x40209d
  4020a9:	sub    ecx,DWORD PTR [ebp-0x8]
  4020ac:	sar    ecx,1
  4020ae:	inc    ecx
  4020af:	lea    edi,[edi+ecx*2]
  4020b2:	lea    esi,[esi+ecx*2]
  4020b5:	cmp    ecx,0x1
  4020b8:	jne    0x402095
  4020ba:	push   esi
  4020bb:	push   edx
  4020bc:	push   0x7
  4020be:	xor    eax,eax
  4020c0:	push   eax
  4020c1:	push   DWORD PTR [ebp+0x8]
  4020c4:	push   DWORD PTR [ebx]
  4020c6:	call   DWORD PTR ds:0x4080bc
  4020cc:	pop    edi
  4020cd:	pop    esi
  4020ce:	pop    ebx
  4020cf:	mov    esp,ebp
  4020d1:	pop    ebp
  4020d2:	ret    0x8
  4020d5:	mov    ecx,0x80004005
  4020da:	call   0x401cea
  4020df:	int3   
  4020e0:	int3   
  4020e1:	int3   
  4020e2:	int3   
  4020e3:	int3   
  4020e4:	int3   
  4020e5:	mov    edi,edi
  4020e7:	push   ebp
  4020e8:	mov    ebp,esp
  4020ea:	sub    esp,0x228
  4020f0:	mov    eax,ds:0x40700c
  4020f5:	xor    eax,ebp
  4020f7:	mov    DWORD PTR [ebp-0x8],eax
  4020fa:	push   ebx
  4020fb:	mov    ebx,DWORD PTR [ebp+0x8]
  4020fe:	lea    eax,[ebp-0x220]
  402104:	push   esi
  402105:	push   edi
  402106:	push   eax
  402107:	mov    edi,ecx
  402109:	xor    ecx,ecx
  40210b:	push   0x2001f
  402110:	push   ecx
  402111:	push   ebx
  402112:	push   DWORD PTR [edi]
  402114:	mov    DWORD PTR [ebp-0x218],ecx
  40211a:	mov    DWORD PTR [ebp-0x214],ecx
  402120:	mov    DWORD PTR [ebp-0x210],ecx
  402126:	mov    DWORD PTR [ebp-0x220],ecx
  40212c:	call   DWORD PTR ds:0x4080b4
  402132:	mov    esi,eax
  402134:	test   esi,esi
  402136:	jne    0x4021f2
  40213c:	cmp    DWORD PTR [ebp-0x218],esi
  402142:	je     0x402152
  402144:	push   DWORD PTR [ebp-0x218]
  40214a:	call   DWORD PTR ds:0x4080cc
  402150:	mov    esi,eax
  402152:	mov    eax,DWORD PTR [ebp-0x220]
  402158:	mov    DWORD PTR [ebp-0x218],eax
  40215e:	test   esi,esi
  402160:	jne    0x4021f2
  402166:	lea    ecx,[ebp-0x228]
  40216c:	push   ecx
  40216d:	push   esi
  40216e:	push   esi
  40216f:	push   esi
  402170:	lea    ecx,[ebp-0x21c]
  402176:	push   ecx
  402177:	lea    ecx,[ebp-0x20c]
  40217d:	push   ecx
  40217e:	push   esi
  40217f:	push   eax
  402180:	jmp    0x4021b9
  402182:	lea    eax,[ebp-0x20c]
  402188:	push   eax
  402189:	lea    ecx,[ebp-0x218]
  40218f:	call   0x4020e5
  402194:	mov    esi,eax
  402196:	test   esi,esi
  402198:	jne    0x4021f2
  40219a:	lea    eax,[ebp-0x228]
  4021a0:	push   eax
  4021a1:	push   esi
  4021a2:	push   esi
  4021a3:	push   esi
  4021a4:	lea    eax,[ebp-0x21c]
  4021aa:	push   eax
  4021ab:	lea    eax,[ebp-0x20c]
  4021b1:	push   eax
  4021b2:	push   esi
  4021b3:	push   DWORD PTR [ebp-0x218]
  4021b9:	mov    DWORD PTR [ebp-0x21c],0x100
  4021c3:	call   DWORD PTR ds:0x4080c8
  4021c9:	test   eax,eax
  4021cb:	je     0x402182
  4021cd:	cmp    DWORD PTR [ebp-0x218],0x0
  4021d4:	je     0x4021e8
  4021d6:	push   DWORD PTR [ebp-0x218]
  4021dc:	call   DWORD PTR ds:0x4080cc
  4021e2:	mov    DWORD PTR [ebp-0x218],esi
  4021e8:	push   ebx
  4021e9:	mov    ecx,edi
  4021eb:	call   0x401fc8
  4021f0:	mov    esi,eax
  4021f2:	cmp    DWORD PTR [ebp-0x218],0x0
  4021f9:	je     0x402207
  4021fb:	push   DWORD PTR [ebp-0x218]
  402201:	call   DWORD PTR ds:0x4080cc
  402207:	mov    ecx,DWORD PTR [ebp-0x8]
  40220a:	mov    eax,esi
  40220c:	pop    edi
  40220d:	pop    esi
  40220e:	xor    ecx,ebp
  402210:	pop    ebx
  402211:	call   0x405170
  402216:	mov    esp,ebp
  402218:	pop    ebp
  402219:	ret    0x4
  40221c:	int3   
  40221d:	int3   
  40221e:	int3   
  40221f:	int3   
  402220:	int3   
  402221:	push   0x4
  402223:	mov    eax,0x405be8
  402228:	call   0x405ab2
  40222d:	mov    esi,ecx
  40222f:	mov    DWORD PTR [ebp-0x10],esi
  402232:	and    DWORD PTR [ebp-0x4],0x0
  402236:	call   0x4023ba
  40223b:	mov    ecx,esi
  40223d:	call   0x4046fd
  402242:	call   0x405a71
  402247:	ret    
  402248:	int3   
  402249:	int3   
  40224a:	int3   
  40224b:	int3   
  40224c:	int3   
  40224d:	push   0x24
  40224f:	mov    eax,0x405c18
  402254:	call   0x405b25
  402259:	mov    DWORD PTR [ebp-0x30],ecx
  40225c:	mov    eax,DWORD PTR [ebp+0x8]
  40225f:	test   eax,eax
  402261:	je     0x4023ab
  402267:	cmp    DWORD PTR [ebp+0xc],0x0
  40226b:	je     0x4023ab
  402271:	mov    ecx,eax
  402273:	xor    ebx,ebx
  402275:	push   0x2
  402277:	mov    DWORD PTR [ebp-0x1c],ebx
  40227a:	pop    edx
  40227b:	lea    esi,[ecx+0x2]
  40227e:	mov    ax,WORD PTR [ecx]
  402281:	add    ecx,edx
  402283:	cmp    ax,bx
  402286:	jne    0x40227e
  402288:	sub    ecx,esi
  40228a:	mov    DWORD PTR [ebp-0x14],ebx
  40228d:	sar    ecx,1
  40228f:	mov    DWORD PTR [ebp-0x4],ebx
  402292:	lea    eax,[ecx*2+0x2]
  402299:	xor    ecx,ecx
  40229b:	mov    DWORD PTR [ebp-0x28],eax
  40229e:	mul    edx
  4022a0:	seto   cl
  4022a3:	neg    ecx
  4022a5:	or     ecx,eax
  4022a7:	push   ecx
  4022a8:	call   0x404d95
  4022ad:	pop    ecx
  4022ae:	mov    ecx,eax
  4022b0:	mov    DWORD PTR [ebp-0x14],ecx
  4022b3:	jmp    0x4022c0
  4022b5:	mov    eax,0x4022bb
  4022ba:	ret    
  4022bb:	mov    ecx,DWORD PTR [ebp-0x14]
  4022be:	xor    ebx,ebx
  4022c0:	push   0x2
  4022c2:	mov    DWORD PTR [ebp-0x20],ecx
  4022c5:	pop    eax
  4022c6:	mov    edi,ecx
  4022c8:	mov    DWORD PTR [ebp-0x4],eax
  4022cb:	mov    ecx,DWORD PTR [ebp+0xc]
  4022ce:	mov    DWORD PTR [ebp-0x24],edi
  4022d1:	call   0x401c65
  4022d6:	xor    ecx,ecx
  4022d8:	mov    DWORD PTR [ebp-0x18],ebx
  4022db:	push   0x2
  4022dd:	pop    edx
  4022de:	lea    eax,[eax*2+0x2]
  4022e5:	mov    BYTE PTR [ebp-0x4],0x3
  4022e9:	mov    DWORD PTR [ebp-0x2c],eax
  4022ec:	mul    edx
  4022ee:	seto   cl
  4022f1:	neg    ecx
  4022f3:	or     ecx,eax
  4022f5:	push   ecx
  4022f6:	call   0x404d95
  4022fb:	mov    esi,eax
  4022fd:	mov    DWORD PTR [ebp-0x4],0x2
  402304:	pop    ecx
  402305:	mov    DWORD PTR [ebp-0x18],esi
  402308:	mov    eax,edi
  40230a:	jmp    0x402324
  40230c:	mov    eax,0x402312
  402311:	ret    
  402312:	mov    DWORD PTR [ebp-0x4],0x2
  402319:	xor    ebx,ebx
  40231b:	mov    eax,DWORD PTR [ebp-0x14]
  40231e:	mov    edi,DWORD PTR [ebp-0x24]
  402321:	mov    esi,DWORD PTR [ebp-0x18]
  402324:	mov    BYTE PTR [ebp-0x4],0x5
  402328:	mov    DWORD PTR [ebp-0x20],esi
  40232b:	test   eax,eax
  40232d:	je     0x402385
  40232f:	test   esi,esi
  402331:	je     0x402385
  402333:	mov    ecx,DWORD PTR [ebp-0x28]
  402336:	push   ecx
  402337:	push   DWORD PTR [ebp+0x8]
  40233a:	push   ecx
  40233b:	push   eax
  40233c:	call   DWORD PTR ds:0x4081ac
  402342:	add    esp,0x10
  402345:	mov    ecx,eax
  402347:	call   0x401d13
  40234c:	mov    eax,DWORD PTR [ebp-0x2c]
  40234f:	push   eax
  402350:	push   DWORD PTR [ebp+0xc]
  402353:	push   eax
  402354:	push   esi
  402355:	call   DWORD PTR ds:0x4081ac
  40235b:	add    esp,0x10
  40235e:	mov    ecx,eax
  402360:	call   0x401d13
  402365:	mov    ecx,DWORD PTR [ebp-0x30]
  402368:	lea    eax,[ebp-0x18]
  40236b:	push   eax
  40236c:	lea    eax,[ebp-0x14]
  40236f:	push   eax
  402370:	call   0x40468e
  402375:	test   eax,eax
  402377:	je     0x402385
  402379:	mov    eax,DWORD PTR [ebp-0x1c]
  40237c:	mov    edi,ebx
  40237e:	mov    DWORD PTR [ebp-0x24],edi
  402381:	mov    esi,ebx
  402383:	jmp    0x40238a
  402385:	mov    eax,0x8007000e
  40238a:	xor    ebx,ebx
  40238c:	mov    BYTE PTR [ebp-0x4],0x2
  402390:	test   eax,eax
  402392:	push   esi
  402393:	setns  bl
  402396:	call   0x404d30
  40239b:	or     DWORD PTR [ebp-0x4],0xffffffff
  40239f:	push   edi
  4023a0:	call   0x404d30
  4023a5:	pop    ecx
  4023a6:	pop    ecx
  4023a7:	mov    eax,ebx
  4023a9:	jmp    0x4023ad
  4023ab:	xor    eax,eax
  4023ad:	call   0x405a71
  4023b2:	ret    0x8
  4023b5:	int3   
  4023b6:	int3   
  4023b7:	int3   
  4023b8:	int3   
  4023b9:	int3   
  4023ba:	mov    edi,edi
  4023bc:	push   esi
  4023bd:	push   edi
  4023be:	mov    edi,ecx
  4023c0:	xor    esi,esi
  4023c2:	mov    eax,DWORD PTR [edi+0x8]
  4023c5:	test   eax,eax
  4023c7:	jle    0x4023f5
  4023c9:	test   esi,esi
  4023cb:	js     0x402401
  4023cd:	cmp    esi,eax
  4023cf:	jge    0x402401
  4023d1:	mov    eax,DWORD PTR [edi]
  4023d3:	push   DWORD PTR [eax+esi*4]
  4023d6:	call   0x404d30
  4023db:	pop    ecx
  4023dc:	cmp    esi,DWORD PTR [edi+0x8]
  4023df:	jge    0x402401
  4023e1:	mov    eax,DWORD PTR [edi+0x4]
  4023e4:	push   DWORD PTR [eax+esi*4]
  4023e7:	call   0x404d30
  4023ec:	mov    eax,DWORD PTR [edi+0x8]
  4023ef:	inc    esi
  4023f0:	pop    ecx
  4023f1:	cmp    esi,eax
  4023f3:	jl     0x4023c9
  4023f5:	mov    ecx,edi
  4023f7:	call   0x4046fd
  4023fc:	pop    edi
  4023fd:	xor    eax,eax
  4023ff:	pop    esi
  402400:	ret    
  402401:	mov    ecx,0xc000008c
  402406:	call   0x401cc2
  40240b:	int3   
  40240c:	int3   
  40240d:	int3   
  40240e:	int3   
  40240f:	int3   
  402410:	int3   
  402411:	push   DWORD PTR [ecx+0x8]
  402414:	call   DWORD PTR ds:0x40802c
  40241a:	ret    
  40241b:	int3   
  40241c:	int3   
  40241d:	int3   
  40241e:	int3   
  40241f:	int3   
  402420:	mov    edi,edi
  402422:	push   ebp
  402423:	mov    ebp,esp
  402425:	push   ebx
  402426:	mov    ebx,DWORD PTR [ebp+0xc]
  402429:	push   esi
  40242a:	mov    esi,ecx
  40242c:	push   edi
  40242d:	lea    ecx,[ebx+0x1]
  402430:	add    ecx,DWORD PTR [esi]
  402432:	cmp    ecx,DWORD PTR [esi]
  402434:	jle    0x4024c5
  40243a:	cmp    ecx,ebx
  40243c:	jle    0x4024c5
  402442:	mov    edi,DWORD PTR [esi+0x4]
  402445:	cmp    ecx,edi
  402447:	jl     0x40247d
  402449:	cmp    edi,0x3fffffff
  40244f:	jg     0x4024c5
  402451:	add    edi,edi
  402453:	cmp    ecx,edi
  402455:	jge    0x402449
  402457:	push   0x2
  402459:	mov    eax,edi
  40245b:	pop    ecx
  40245c:	mul    ecx
  40245e:	test   edx,edx
  402460:	ja     0x4024c5
  402462:	jb     0x402469
  402464:	cmp    eax,0xffffffff
  402467:	ja     0x4024c5
  402469:	push   eax
  40246a:	push   DWORD PTR [esi+0x8]
  40246d:	call   DWORD PTR ds:0x408034
  402473:	test   eax,eax
  402475:	je     0x4024c5
  402477:	mov    DWORD PTR [esi+0x8],eax
  40247a:	mov    DWORD PTR [esi+0x4],edi
  40247d:	mov    ecx,DWORD PTR [esi]
  40247f:	test   ecx,ecx
  402481:	js     0x4024c5
  402483:	cmp    ecx,DWORD PTR [esi+0x4]
  402486:	jge    0x4024c5
  402488:	mov    edx,DWORD PTR [esi+0x4]
  40248b:	sub    edx,ecx
  40248d:	cmp    edx,DWORD PTR [esi+0x4]
  402490:	jg     0x4024c5
  402492:	mov    eax,DWORD PTR [esi+0x8]
  402495:	add    edx,edx
  402497:	lea    ecx,[eax+ecx*2]
  40249a:	lea    eax,[ebx+ebx*1]
  40249d:	push   eax
  40249e:	push   DWORD PTR [ebp+0x8]
  4024a1:	push   edx
  4024a2:	push   ecx
  4024a3:	call   DWORD PTR ds:0x4081ac
  4024a9:	add    esp,0x10
  4024ac:	mov    ecx,eax
  4024ae:	call   0x401d13
  4024b3:	add    DWORD PTR [esi],ebx
  4024b5:	xor    edx,edx
  4024b7:	mov    eax,DWORD PTR [esi+0x8]
  4024ba:	mov    ecx,DWORD PTR [esi]
  4024bc:	mov    WORD PTR [eax+ecx*2],dx
  4024c0:	xor    eax,eax
  4024c2:	inc    eax
  4024c3:	jmp    0x4024c7
  4024c5:	xor    eax,eax
  4024c7:	pop    edi
  4024c8:	pop    esi
  4024c9:	pop    ebx
  4024ca:	pop    ebp
  4024cb:	ret    0x8
  4024ce:	int3   
  4024cf:	int3   
  4024d0:	int3   
  4024d1:	int3   
  4024d2:	int3   
  4024d3:	int3   
  4024d4:	int3   
  4024d5:	int3   
  4024d6:	int3   
  4024d7:	int3   
  4024d8:	int3   
  4024d9:	int3   
  4024da:	int3   
  4024db:	int3   
  4024dc:	int3   
  4024dd:	int3   
  4024de:	int3   
  4024df:	int3   
  4024e0:	mov    edi,edi
  4024e2:	push   ebp
  4024e3:	mov    ebp,esp
  4024e5:	mov    eax,DWORD PTR [ebp+0x10]
  4024e8:	test   eax,eax
  4024ea:	je     0x4024ef
  4024ec:	and    DWORD PTR [eax],0x0
  4024ef:	mov    eax,0x80004001
  4024f4:	pop    ebp
  4024f5:	ret    0xc
  4024f8:	int3   
  4024f9:	int3   
  4024fa:	int3   
  4024fb:	int3   
  4024fc:	int3   
  4024fd:	int3   
  4024fe:	int3   
  4024ff:	int3   
  402500:	xor    eax,eax
  402502:	inc    eax
  402503:	ret    0x4
  402506:	int3   
  402507:	int3   
  402508:	int3   
  402509:	int3   
  40250a:	int3   
  40250b:	int3   
  40250c:	int3   
  40250d:	int3   
  40250e:	int3   
  40250f:	int3   
  402510:	xor    eax,eax
  402512:	ret    0x4
  402515:	int3   
  402516:	int3   
  402517:	int3   
  402518:	int3   
  402519:	int3   
  40251a:	push   0x4
  40251c:	mov    eax,0x405c56
  402521:	call   0x405ab2
  402526:	mov    esi,ecx
  402528:	mov    DWORD PTR [ebp-0x10],esi
  40252b:	mov    DWORD PTR [esi],0x401524
  402531:	push   esi
  402532:	mov    DWORD PTR [ebp-0x4],0x1
  402539:	call   0x402800
  40253e:	lea    eax,[esi+0x10]
  402541:	cmp    BYTE PTR [eax+0x18],0x0
  402545:	je     0x402552
  402547:	push   eax
  402548:	mov    BYTE PTR [eax+0x18],0x0
  40254c:	call   DWORD PTR ds:0x408114
  402552:	add    esi,0x4
  402555:	mov    DWORD PTR [ebp-0x10],esi
  402558:	mov    ecx,esi
  40255a:	mov    DWORD PTR [ebp-0x4],0x2
  402561:	call   0x4023ba
  402566:	mov    ecx,esi
  402568:	call   0x4046fd
  40256d:	call   0x405a71
  402572:	ret    
  402573:	int3   
  402574:	int3   
  402575:	int3   
  402576:	int3   
  402577:	int3   
  402578:	int3   
  402579:	int3   
  40257a:	int3   
  40257b:	int3   
  40257c:	int3   
  40257d:	int3   
  40257e:	int3   
  40257f:	int3   
  402580:	mov    edi,edi
  402582:	push   ebp
  402583:	mov    ebp,esp
  402585:	push   esi
  402586:	mov    esi,ecx
  402588:	call   0x40251a
  40258d:	test   BYTE PTR [ebp+0x8],0x1
  402591:	je     0x40259a
  402593:	push   esi
  402594:	call   0x404d30
  402599:	pop    ecx
  40259a:	mov    eax,esi
  40259c:	pop    esi
  40259d:	pop    ebp
  40259e:	ret    0x4
  4025a1:	int3   
  4025a2:	int3   
  4025a3:	int3   
  4025a4:	int3   
  4025a5:	int3   
  4025a6:	cmp    BYTE PTR [ecx+0x18],0x0
  4025aa:	je     0x4025b7
  4025ac:	push   ecx
  4025ad:	mov    BYTE PTR [ecx+0x18],0x0
  4025b1:	call   DWORD PTR ds:0x408114
  4025b7:	ret    
  4025b8:	int3   
  4025b9:	int3   
  4025ba:	int3   
  4025bb:	int3   
  4025bc:	int3   
  4025bd:	int3   
  4025be:	int3   
  4025bf:	int3   
  4025c0:	push   0x4
  4025c2:	mov    eax,0x405c7e
  4025c7:	call   0x405ab2
  4025cc:	cmp    DWORD PTR [ebp+0xc],0x0
  4025d0:	je     0x40261e
  4025d2:	cmp    DWORD PTR [ebp+0x10],0x0
  4025d6:	je     0x40261e
  4025d8:	mov    esi,DWORD PTR [ebp+0x8]
  4025db:	lea    edi,[esi+0x10]
  4025de:	push   edi
  4025df:	call   DWORD PTR ds:0x40810c
  4025e5:	and    DWORD PTR [ebp-0x10],0x0
  4025e9:	push   DWORD PTR [ebp+0x10]
  4025ec:	and    DWORD PTR [ebp-0x4],0x0
  4025f0:	lea    ecx,[esi+0x4]
  4025f3:	push   DWORD PTR [ebp+0xc]
  4025f6:	call   0x40224d
  4025fb:	push   edi
  4025fc:	mov    esi,eax
  4025fe:	call   DWORD PTR ds:0x408108
  402604:	lea    ecx,[ebp-0x10]
  402607:	call   0x40461f
  40260c:	neg    esi
  40260e:	sbb    esi,esi
  402610:	and    esi,0x7ff8fff2
  402616:	lea    eax,[esi-0x7ff8fff2]
  40261c:	jmp    0x402623
  40261e:	mov    eax,0x80070057
  402623:	call   0x405a71
  402628:	ret    0xc
  40262b:	int3   
  40262c:	int3   
  40262d:	int3   
  40262e:	int3   
  40262f:	int3   
  402630:	push   0x424
  402635:	mov    eax,0x405cb4
  40263a:	call   0x405b60
  40263f:	mov    edx,DWORD PTR [ebp+0x10]
  402642:	xor    esi,esi
  402644:	mov    eax,DWORD PTR [ebp+0x8]
  402647:	mov    ebx,DWORD PTR [ebp+0xc]
  40264a:	mov    DWORD PTR [ebp-0x41c],edx
  402650:	mov    DWORD PTR [ebp-0x420],esi
  402656:	mov    DWORD PTR [ebp-0x4],esi
  402659:	mov    DWORD PTR [ebp-0x42c],ecx
  40265f:	mov    DWORD PTR [ebp-0x430],esi
  402665:	mov    DWORD PTR [ebp-0x418],esi
  40266b:	push   0x2
  40266d:	pop    ecx
  40266e:	push   ecx
  40266f:	push   esi
  402670:	push   eax
  402671:	mov    BYTE PTR [ebp-0x4],0x1
  402675:	call   DWORD PTR ds:0x40806c
  40267b:	mov    edi,eax
  40267d:	mov    DWORD PTR [ebp-0x424],edi
  402683:	test   edi,edi
  402685:	jne    0x402693
  402687:	call   0x401d97
  40268c:	mov    esi,eax
  40268e:	jmp    0x4027c5
  402693:	push   esi
  402694:	push   ebx
  402695:	push   DWORD PTR [ebp-0x41c]
  40269b:	push   edi
  40269c:	call   DWORD PTR ds:0x408070
  4026a2:	mov    ebx,eax
  4026a4:	test   ebx,ebx
  4026a6:	jne    0x4026b2
  4026a8:	call   0x401d97
  4026ad:	jmp    0x4027bc
  4026b2:	push   ebx
  4026b3:	push   edi
  4026b4:	call   DWORD PTR ds:0x408068
  4026ba:	mov    DWORD PTR [ebp-0x428],eax
  4026c0:	test   eax,eax
  4026c2:	je     0x4026a8
  4026c4:	push   ebx
  4026c5:	push   edi
  4026c6:	call   DWORD PTR ds:0x40807c
  4026cc:	mov    ebx,eax
  4026ce:	mov    DWORD PTR [ebp-0x41c],ebx
  4026d4:	lea    eax,[ebx+0x1]
  4026d7:	cmp    eax,ebx
  4026d9:	jae    0x402709
  4026db:	lea    eax,[ebp-0x414]
  4026e1:	cmp    DWORD PTR [ebp-0x418],eax
  4026e7:	je     0x4026f4
  4026e9:	lea    ecx,[ebp-0x418]
  4026ef:	call   0x40475a
  4026f4:	lea    ecx,[ebp-0x420]
  4026fa:	call   0x40461f
  4026ff:	mov    eax,0x8007000e
  402704:	jmp    0x4027eb
  402709:	push   0x2
  40270b:	pop    ecx
  40270c:	mul    ecx
  40270e:	mov    BYTE PTR [ebp-0x4],cl
  402711:	cmp    edx,esi
  402713:	ja     0x40274a
  402715:	cmp    eax,0xffffffff
  402718:	ja     0x40274a
  40271a:	cmp    eax,0x400
  40271f:	jbe    0x402735
  402721:	push   eax
  402722:	lea    ecx,[ebp-0x418]
  402728:	call   0x404769
  40272d:	mov    eax,DWORD PTR [ebp-0x418]
  402733:	jmp    0x402741
  402735:	lea    eax,[ebp-0x414]
  40273b:	mov    DWORD PTR [ebp-0x418],eax
  402741:	mov    DWORD PTR [ebp-0x4],0x1
  402748:	jmp    0x402775
  40274a:	mov    ecx,0x80070057
  40274f:	call   0x401cea
  402754:	mov    eax,0x40275a
  402759:	ret    
  40275a:	mov    edi,DWORD PTR [ebp-0x424]
  402760:	xor    esi,esi
  402762:	mov    ebx,DWORD PTR [ebp-0x41c]
  402768:	mov    DWORD PTR [ebp-0x4],0x1
  40276f:	mov    eax,DWORD PTR [ebp-0x418]
  402775:	test   eax,eax
  402777:	jne    0x402780
  402779:	mov    esi,0x8007000e
  40277e:	jmp    0x4027be
  402780:	push   ebx
  402781:	push   eax
  402782:	push   ebx
  402783:	push   DWORD PTR [ebp-0x428]
  402789:	push   esi
  40278a:	push   0x3
  40278c:	call   DWORD PTR ds:0x4080e8
  402792:	mov    ecx,eax
  402794:	test   ecx,ecx
  402796:	je     0x4026a8
  40279c:	mov    eax,DWORD PTR [ebp-0x418]
  4027a2:	xor    edx,edx
  4027a4:	push   DWORD PTR [ebp+0x14]
  4027a7:	mov    WORD PTR [eax+ecx*2],dx
  4027ab:	lea    ecx,[ebp-0x430]
  4027b1:	push   DWORD PTR [ebp-0x418]
  4027b7:	call   0x403218
  4027bc:	mov    esi,eax
  4027be:	push   edi
  4027bf:	call   DWORD PTR ds:0x408064
  4027c5:	lea    eax,[ebp-0x414]
  4027cb:	cmp    DWORD PTR [ebp-0x418],eax
  4027d1:	je     0x4027de
  4027d3:	lea    ecx,[ebp-0x418]
  4027d9:	call   0x40475a
  4027de:	lea    ecx,[ebp-0x420]
  4027e4:	call   0x40461f
  4027e9:	mov    eax,esi
  4027eb:	call   0x405a9e
  4027f0:	ret    0x10
  4027f3:	int3   
  4027f4:	int3   
  4027f5:	int3   
  4027f6:	int3   
  4027f7:	int3   
  4027f8:	int3   
  4027f9:	int3   
  4027fa:	int3   
  4027fb:	int3   
  4027fc:	int3   
  4027fd:	int3   
  4027fe:	int3   
  4027ff:	int3   
  402800:	mov    edi,edi
  402802:	push   ebp
  402803:	mov    ebp,esp
  402805:	push   esi
  402806:	mov    esi,DWORD PTR [ebp+0x8]
  402809:	push   edi
  40280a:	lea    edi,[esi+0x10]
  40280d:	push   edi
  40280e:	call   DWORD PTR ds:0x40810c
  402814:	lea    ecx,[esi+0x4]
  402817:	call   0x4023ba
  40281c:	push   edi
  40281d:	mov    esi,eax
  40281f:	call   DWORD PTR ds:0x408108
  402825:	pop    edi
  402826:	mov    eax,esi
  402828:	pop    esi
  402829:	pop    ebp
  40282a:	ret    0x4
  40282d:	int3   
  40282e:	int3   
  40282f:	int3   
  402830:	int3   
  402831:	int3   
  402832:	mov    edi,edi
  402834:	push   ebp
  402835:	mov    ebp,esp
  402837:	push   ecx
  402838:	push   ebx
  402839:	push   esi
  40283a:	push   edi
  40283b:	mov    edi,ecx
  40283d:	lea    eax,[edi+0x10]
  402840:	push   eax
  402841:	mov    DWORD PTR [ebp-0x4],eax
  402844:	call   DWORD PTR ds:0x40810c
  40284a:	xor    ebx,ebx
  40284c:	mov    esi,ebx
  40284e:	cmp    DWORD PTR [edi+0xc],ebx
  402851:	jle    0x40286c
  402853:	mov    eax,DWORD PTR [edi+0x4]
  402856:	push   DWORD PTR [ebp+0x8]
  402859:	push   DWORD PTR [eax+esi*4]
  40285c:	call   DWORD PTR ds:0x4080fc
  402862:	test   eax,eax
  402864:	je     0x40286f
  402866:	inc    esi
  402867:	cmp    esi,DWORD PTR [edi+0xc]
  40286a:	jl     0x402853
  40286c:	or     esi,0xffffffff
  40286f:	cmp    esi,0xffffffff
  402872:	je     0x402883
  402874:	test   esi,esi
  402876:	js     0x402897
  402878:	cmp    esi,DWORD PTR [edi+0xc]
  40287b:	jge    0x402897
  40287d:	mov    eax,DWORD PTR [edi+0x8]
  402880:	mov    ebx,DWORD PTR [eax+esi*4]
  402883:	push   DWORD PTR [ebp-0x4]
  402886:	call   DWORD PTR ds:0x408108
  40288c:	pop    edi
  40288d:	pop    esi
  40288e:	mov    eax,ebx
  402890:	pop    ebx
  402891:	mov    esp,ebp
  402893:	pop    ebp
  402894:	ret    0x4
  402897:	mov    ecx,0xc000008c
  40289c:	call   0x401cc2
  4028a1:	int3   
  4028a2:	int3   
  4028a3:	int3   
  4028a4:	int3   
  4028a5:	int3   
  4028a6:	int3   
  4028a7:	mov    eax,ds:0x4074ec
  4028ac:	push   ebx
  4028ad:	mov    ebx,edx
  4028af:	push   esi
  4028b0:	push   edi
  4028b1:	mov    edi,ecx
  4028b3:	test   al,0x1
  4028b5:	jne    0x40290d
  4028b7:	or     eax,0x1
  4028ba:	mov    DWORD PTR ds:0x407590,0x4011d8
  4028c4:	push   0x8
  4028c6:	mov    ds:0x4074ec,eax
  4028cb:	pop    eax
  4028cc:	mov    ds:0x407594,ax
  4028d2:	mov    eax,0x4008
  4028d7:	push   0x13
  4028d9:	mov    ds:0x40759c,ax
  4028df:	pop    eax
  4028e0:	push   0x11
  4028e2:	mov    ds:0x4075a4,ax
  4028e8:	pop    eax
  4028e9:	mov    DWORD PTR ds:0x407598,0x4011dc
  4028f3:	mov    DWORD PTR ds:0x4075a0,0x4011e0
  4028fd:	mov    DWORD PTR ds:0x4075a8,0x4011e4
  402907:	mov    ds:0x4075ac,ax
  40290d:	xor    esi,esi
  40290f:	push   DWORD PTR [esi*8+0x407590]
  402916:	push   edi
  402917:	call   DWORD PTR ds:0x4080fc
  40291d:	test   eax,eax
  40291f:	je     0x40292b
  402921:	inc    esi
  402922:	cmp    esi,0x4
  402925:	jb     0x40290f
  402927:	xor    eax,eax
  402929:	jmp    0x402939
  40292b:	mov    cx,WORD PTR [esi*8+0x407594]
  402933:	xor    eax,eax
  402935:	mov    WORD PTR [ebx],cx
  402938:	inc    eax
  402939:	pop    edi
  40293a:	pop    esi
  40293b:	pop    ebx
  40293c:	ret    
  40293d:	int3   
  40293e:	int3   
  40293f:	int3   
  402940:	int3   
  402941:	int3   
  402942:	mov    edi,edi
  402944:	push   esi
  402945:	mov    eax,ecx
  402947:	xor    esi,esi
  402949:	push   edi
  40294a:	mov    di,dx
  40294d:	test   eax,eax
  40294f:	jne    0x40295f
  402951:	jmp    0x40296d
  402953:	cmp    cx,di
  402956:	je     0x402969
  402958:	push   eax
  402959:	call   DWORD PTR ds:0x4080f4
  40295f:	movzx  ecx,WORD PTR [eax]
  402962:	test   cx,cx
  402965:	jne    0x402953
  402967:	jmp    0x40296b
  402969:	mov    esi,eax
  40296b:	mov    eax,esi
  40296d:	pop    edi
  40296e:	pop    esi
  40296f:	ret    
  402970:	int3   
  402971:	int3   
  402972:	int3   
  402973:	int3   
  402974:	int3   
  402975:	mov    edi,edi
  402977:	push   esi
  402978:	mov    esi,ecx
  40297a:	mov    ecx,DWORD PTR [esi]
  40297c:	movzx  eax,WORD PTR [ecx]
  40297f:	cmp    eax,0x9
  402982:	jl     0x40299e
  402984:	cmp    eax,0xa
  402987:	jle    0x402993
  402989:	cmp    eax,0xd
  40298c:	je     0x402993
  40298e:	cmp    eax,0x20
  402991:	jne    0x40299e
  402993:	push   ecx
  402994:	call   DWORD PTR ds:0x4080f4
  40299a:	mov    DWORD PTR [esi],eax
  40299c:	jmp    0x40297a
  40299e:	pop    esi
  40299f:	ret    
  4029a0:	int3   
  4029a1:	int3   
  4029a2:	int3   
  4029a3:	int3   
  4029a4:	int3   
  4029a5:	mov    edi,edi
  4029a7:	push   ebp
  4029a8:	mov    ebp,esp
  4029aa:	push   ecx
  4029ab:	push   edi
  4029ac:	mov    edi,ecx
  4029ae:	call   0x402975
  4029b3:	mov    ecx,DWORD PTR [edi]
  4029b5:	xor    edx,edx
  4029b7:	movzx  eax,WORD PTR [ecx]
  4029ba:	cmp    dx,ax
  4029bd:	jne    0x4029c9
  4029bf:	mov    eax,0x80020009
  4029c4:	jmp    0x402ade
  4029c9:	push   ebx
  4029ca:	push   esi
  4029cb:	mov    esi,DWORD PTR [ebp+0x8]
  4029ce:	push   0x27
  4029d0:	pop    edx
  4029d1:	lea    ebx,[esi+0x2000]
  4029d7:	mov    DWORD PTR [ebp-0x4],ebx
  4029da:	cmp    dx,ax
  4029dd:	jne    0x402a78
  4029e3:	push   ecx
  4029e4:	call   DWORD PTR ds:0x4080f4
  4029ea:	xor    ecx,ecx
  4029ec:	mov    DWORD PTR [edi],eax
  4029ee:	cmp    cx,WORD PTR [eax]
  4029f1:	je     0x402a5a
  4029f3:	mov    eax,DWORD PTR [edi]
  4029f5:	push   0x27
  4029f7:	pop    ebx
  4029f8:	cmp    bx,WORD PTR [eax]
  4029fb:	jne    0x402a09
  4029fd:	push   eax
  4029fe:	call   DWORD PTR ds:0x4080f4
  402a04:	cmp    bx,WORD PTR [eax]
  402a07:	jne    0x402a57
  402a09:	mov    eax,DWORD PTR [edi]
  402a0b:	cmp    bx,WORD PTR [eax]
  402a0e:	jne    0x402a19
  402a10:	push   eax
  402a11:	call   DWORD PTR ds:0x4080f4
  402a17:	mov    DWORD PTR [edi],eax
  402a19:	mov    ebx,DWORD PTR [edi]
  402a1b:	push   ebx
  402a1c:	call   DWORD PTR ds:0x4080f4
  402a22:	mov    edx,eax
  402a24:	mov    DWORD PTR [edi],edx
  402a26:	sub    edx,ebx
  402a28:	sar    edx,1
  402a2a:	lea    ecx,[edx+0x1]
  402a2d:	lea    ecx,[esi+ecx*2]
  402a30:	cmp    ecx,DWORD PTR [ebp-0x4]
  402a33:	jae    0x402ad7
  402a39:	test   edx,edx
  402a3b:	jle    0x402a4e
  402a3d:	sub    ebx,esi
  402a3f:	mov    ax,WORD PTR [ebx+esi*1]
  402a43:	mov    WORD PTR [esi],ax
  402a46:	add    esi,0x2
  402a49:	sub    edx,0x1
  402a4c:	jne    0x402a3f
  402a4e:	mov    eax,DWORD PTR [edi]
  402a50:	xor    ecx,ecx
  402a52:	cmp    cx,WORD PTR [eax]
  402a55:	jne    0x4029f3
  402a57:	mov    ebx,DWORD PTR [ebp-0x4]
  402a5a:	mov    eax,DWORD PTR [edi]
  402a5c:	xor    ecx,ecx
  402a5e:	cmp    cx,WORD PTR [eax]
  402a61:	je     0x402ad7
  402a63:	cmp    esi,ebx
  402a65:	jae    0x402ad7
  402a67:	xor    eax,eax
  402a69:	mov    WORD PTR [esi],ax
  402a6c:	push   DWORD PTR [edi]
  402a6e:	call   DWORD PTR ds:0x4080f4
  402a74:	mov    DWORD PTR [edi],eax
  402a76:	jmp    0x402ad3
  402a78:	mov    ebx,DWORD PTR [edi]
  402a7a:	movzx  eax,WORD PTR [ebx]
  402a7d:	cmp    eax,0x9
  402a80:	jl     0x402a91
  402a82:	cmp    eax,0xa
  402a85:	jle    0x402ac9
  402a87:	cmp    eax,0xd
  402a8a:	je     0x402ac9
  402a8c:	cmp    eax,0x20
  402a8f:	je     0x402ac9
  402a91:	push   ebx
  402a92:	call   DWORD PTR ds:0x4080f4
  402a98:	mov    edx,eax
  402a9a:	mov    DWORD PTR [edi],edx
  402a9c:	sub    edx,ebx
  402a9e:	sar    edx,1
  402aa0:	lea    ecx,[edx+0x1]
  402aa3:	lea    ecx,[esi+ecx*2]
  402aa6:	cmp    ecx,DWORD PTR [ebp-0x4]
  402aa9:	jae    0x402ad7
  402aab:	test   edx,edx
  402aad:	jle    0x402ac0
  402aaf:	sub    ebx,esi
  402ab1:	mov    ax,WORD PTR [ebx+esi*1]
  402ab5:	mov    WORD PTR [esi],ax
  402ab8:	add    esi,0x2
  402abb:	sub    edx,0x1
  402abe:	jne    0x402ab1
  402ac0:	mov    eax,DWORD PTR [edi]
  402ac2:	xor    ecx,ecx
  402ac4:	cmp    cx,WORD PTR [eax]
  402ac7:	jne    0x402a78
  402ac9:	cmp    esi,DWORD PTR [ebp-0x4]
  402acc:	jae    0x402ad7
  402ace:	xor    eax,eax
  402ad0:	mov    WORD PTR [esi],ax
  402ad3:	xor    eax,eax
  402ad5:	jmp    0x402adc
  402ad7:	mov    eax,0x80020009
  402adc:	pop    esi
  402add:	pop    ebx
  402ade:	pop    edi
  402adf:	mov    esp,ebp
  402ae1:	pop    ebp
  402ae2:	ret    0x4
  402ae5:	int3   
  402ae6:	int3   
  402ae7:	int3   
  402ae8:	int3   
  402ae9:	int3   
  402aea:	mov    edi,edi
  402aec:	push   ebp
  402aed:	mov    ebp,esp
  402aef:	push   0xffffffff
  402af1:	push   0x405cf7
  402af6:	mov    eax,fs:0x0
  402afc:	push   eax
  402afd:	push   ecx
  402afe:	mov    eax,0x2128
  402b03:	call   0x405bb0
  402b08:	mov    eax,ds:0x40700c
  402b0d:	xor    eax,ebp
  402b0f:	mov    DWORD PTR [ebp-0x14],eax
  402b12:	push   ebx
  402b13:	push   esi
  402b14:	push   edi
  402b15:	push   eax
  402b16:	lea    eax,[ebp-0xc]
  402b19:	mov    fs:0x0,eax
  402b1f:	mov    DWORD PTR [ebp-0x10],esp
  402b22:	mov    esi,ecx
  402b24:	mov    DWORD PTR [ebp-0x2120],esi
  402b2a:	mov    eax,DWORD PTR [ebp+0x8]
  402b2d:	mov    DWORD PTR [ebp-0x2124],eax
  402b33:	mov    eax,DWORD PTR [ebp+0xc]
  402b36:	mov    DWORD PTR [ebp-0x2128],eax
  402b3c:	mov    eax,DWORD PTR [ebp+0x10]
  402b3f:	mov    DWORD PTR [ebp-0x2138],eax
  402b45:	xor    eax,eax
  402b47:	mov    WORD PTR [ebp-0x211c],ax
  402b4e:	lea    eax,[ebp-0x2014]
  402b54:	push   eax
  402b55:	mov    DWORD PTR [ebp-0x212c],esi
  402b5b:	call   0x4029a5
  402b60:	test   eax,eax
  402b62:	js     0x402f62
  402b68:	lea    edx,[ebp-0x211c]
  402b6e:	lea    ecx,[ebp-0x2014]
  402b74:	call   0x4028a7
  402b79:	test   eax,eax
  402b7b:	jne    0x402b87
  402b7d:	mov    eax,0x80020009
  402b82:	jmp    0x402f62
  402b87:	mov    ecx,esi
  402b89:	call   0x402975
  402b8e:	lea    eax,[ebp-0x2014]
  402b94:	mov    ecx,esi
  402b96:	push   eax
  402b97:	call   0x4029a5
  402b9c:	test   eax,eax
  402b9e:	js     0x402f62
  402ba4:	movzx  eax,WORD PTR [ebp-0x211c]
  402bab:	push   0x2
  402bad:	pop    edi
  402bae:	sub    eax,0x8
  402bb1:	je     0x402f09
  402bb7:	sub    eax,0x9
  402bba:	je     0x402d68
  402bc0:	sub    eax,edi
  402bc2:	je     0x402d0f
  402bc8:	sub    eax,0x3ff5
  402bcd:	jne    0x402f4f
  402bd3:	lea    ecx,[ebp-0x2014]
  402bd9:	xor    ebx,ebx
  402bdb:	lea    edx,[ecx+0x2]
  402bde:	mov    ax,WORD PTR [ecx]
  402be1:	add    ecx,edi
  402be3:	cmp    ax,bx
  402be6:	jne    0x402bde
  402be8:	sub    ecx,edx
  402bea:	mov    DWORD PTR [ebp-0x2118],ebx
  402bf0:	sar    ecx,1
  402bf2:	lea    eax,[ecx+0x2]
  402bf5:	mul    edi
  402bf7:	mov    DWORD PTR [ebp-0x4],ebx
  402bfa:	mov    BYTE PTR [ebp-0x4],0x1
  402bfe:	cmp    edx,ebx
  402c00:	ja     0x402c33
  402c02:	cmp    eax,0xffffffff
  402c05:	ja     0x402c33
  402c07:	cmp    eax,0x100
  402c0c:	jbe    0x402c22
  402c0e:	push   eax
  402c0f:	lea    ecx,[ebp-0x2118]
  402c15:	call   0x404769
  402c1a:	mov    esi,DWORD PTR [ebp-0x2118]
  402c20:	jmp    0x402c2e
  402c22:	lea    esi,[ebp-0x2114]
  402c28:	mov    DWORD PTR [ebp-0x2118],esi
  402c2e:	mov    DWORD PTR [ebp-0x4],ebx
  402c31:	jmp    0x402c5d
  402c33:	mov    ecx,0x80070057
  402c38:	call   0x401cea
  402c3d:	mov    eax,0x402c43
  402c42:	ret    
  402c43:	xor    ebx,ebx
  402c45:	mov    DWORD PTR [ebp-0x4],ebx
  402c48:	mov    ecx,DWORD PTR [ebp-0x212c]
  402c4e:	mov    esi,DWORD PTR [ebp-0x2118]
  402c54:	push   0x2
  402c56:	pop    edi
  402c57:	mov    DWORD PTR [ebp-0x2120],ecx
  402c5d:	test   esi,esi
  402c5f:	je     0x402cdd
  402c61:	cmp    WORD PTR [ebp-0x2014],0x0
  402c69:	lea    eax,[ebp-0x2014]
  402c6f:	mov    DWORD PTR [ebp-0x211c],eax
  402c75:	je     0x402cb8
  402c77:	push   eax
  402c78:	call   DWORD PTR ds:0x4080f4
  402c7e:	mov    ecx,eax
  402c80:	mov    eax,DWORD PTR [ebp-0x211c]
  402c86:	movzx  edx,WORD PTR [eax]
  402c89:	cmp    edx,0x5c
  402c8c:	jne    0x402cac
  402c8e:	push   0x30
  402c90:	pop    eax
  402c91:	cmp    WORD PTR [ecx],ax
  402c94:	mov    eax,DWORD PTR [ebp-0x211c]
  402c9a:	jne    0x402cac
  402c9c:	xor    eax,eax
  402c9e:	mov    WORD PTR [esi],ax
  402ca1:	add    esi,edi
  402ca3:	push   ecx
  402ca4:	call   DWORD PTR ds:0x4080f4
  402caa:	jmp    0x402cb3
  402cac:	mov    WORD PTR [esi],dx
  402caf:	add    esi,edi
  402cb1:	add    eax,edi
  402cb3:	cmp    WORD PTR [eax],bx
  402cb6:	jmp    0x402c6f
  402cb8:	mov    ecx,DWORD PTR [ebp-0x2124]
  402cbe:	xor    eax,eax
  402cc0:	mov    DWORD PTR [esi],eax
  402cc2:	push   DWORD PTR [ebp-0x2118]
  402cc8:	push   DWORD PTR [ebp-0x2128]
  402cce:	call   0x402079
  402cd3:	mov    esi,DWORD PTR [ebp-0x2118]
  402cd9:	mov    edi,eax
  402cdb:	jmp    0x402ce0
  402cdd:	push   0xe
  402cdf:	pop    edi
  402ce0:	lea    eax,[ebp-0x2114]
  402ce6:	cmp    esi,eax
  402ce8:	je     0x402cf5
  402cea:	lea    ecx,[ebp-0x2118]
  402cf0:	call   0x40475a
  402cf5:	mov    esi,DWORD PTR [ebp-0x2120]
  402cfb:	test   edi,edi
  402cfd:	je     0x402f4f
  402d03:	mov    ecx,edi
  402d05:	call   0x401daf
  402d0a:	jmp    0x402f62
  402d0f:	lea    eax,[ebp-0x2130]
  402d15:	xor    ebx,ebx
  402d17:	push   eax
  402d18:	push   ebx
  402d19:	push   ebx
  402d1a:	lea    eax,[ebp-0x2014]
  402d20:	mov    DWORD PTR [ebp-0x2120],ebx
  402d26:	push   eax
  402d27:	call   DWORD PTR ds:0x408000
  402d2d:	mov    eax,DWORD PTR [ebp-0x2130]
  402d33:	push   0x4
  402d35:	mov    DWORD PTR [ebp-0x212c],eax
  402d3b:	lea    eax,[ebp-0x212c]
  402d41:	push   eax
  402d42:	mov    eax,DWORD PTR [ebp-0x2124]
  402d48:	push   0x4
  402d4a:	push   ebx
  402d4b:	push   DWORD PTR [ebp-0x2128]
  402d51:	push   DWORD PTR [eax]
  402d53:	call   DWORD PTR ds:0x4080bc
  402d59:	lea    ecx,[ebp-0x2120]
  402d5f:	mov    edi,eax
  402d61:	call   0x40461f
  402d66:	jmp    0x402cfb
  402d68:	lea    ecx,[ebp-0x2014]
  402d6e:	xor    ebx,ebx
  402d70:	lea    edx,[ecx+0x2]
  402d73:	mov    ax,WORD PTR [ecx]
  402d76:	add    ecx,edi
  402d78:	cmp    ax,bx
  402d7b:	jne    0x402d73
  402d7d:	sub    ecx,edx
  402d7f:	sar    ecx,1
  402d81:	mov    DWORD PTR [ebp-0x211c],ecx
  402d87:	mov    DWORD PTR [ebp-0x2134],ecx
  402d8d:	test   cl,0x1
  402d90:	je     0x402d9c
  402d92:	mov    eax,0x80004005
  402d97:	jmp    0x402f62
  402d9c:	mov    eax,ecx
  402d9e:	mov    DWORD PTR [ebp-0x2118],ebx
  402da4:	cdq    
  402da5:	sub    eax,edx
  402da7:	mov    edi,eax
  402da9:	sar    edi,1
  402dab:	mov    DWORD PTR [ebp-0x2130],edi
  402db1:	mov    DWORD PTR [ebp-0x4],0x3
  402db8:	mov    BYTE PTR [ebp-0x4],0x4
  402dbc:	cmp    ebx,ebx
  402dbe:	ja     0x402c33
  402dc4:	cmp    edi,0xffffffff
  402dc7:	ja     0x402c33
  402dcd:	cmp    edi,0x100
  402dd3:	jbe    0x402de9
  402dd5:	push   edi
  402dd6:	lea    ecx,[ebp-0x2118]
  402ddc:	call   0x404769
  402de1:	mov    esi,DWORD PTR [ebp-0x211c]
  402de7:	jmp    0x402e1d
  402de9:	mov    esi,DWORD PTR [ebp-0x211c]
  402def:	lea    eax,[ebp-0x2114]
  402df5:	mov    DWORD PTR [ebp-0x2118],eax
  402dfb:	jmp    0x402e23
  402dfd:	mov    eax,0x402e03
  402e02:	ret    
  402e03:	mov    ecx,DWORD PTR [ebp-0x212c]
  402e09:	xor    ebx,ebx
  402e0b:	mov    esi,DWORD PTR [ebp-0x2134]
  402e11:	mov    edi,DWORD PTR [ebp-0x2130]
  402e17:	mov    DWORD PTR [ebp-0x2120],ecx
  402e1d:	mov    eax,DWORD PTR [ebp-0x2118]
  402e23:	test   eax,eax
  402e25:	jne    0x402e45
  402e27:	lea    eax,[ebp-0x2114]
  402e2d:	test   eax,eax
  402e2f:	je     0x402d92
  402e35:	lea    ecx,[ebp-0x2118]
  402e3b:	call   0x40475a
  402e40:	jmp    0x402d92
  402e45:	push   edi
  402e46:	push   ebx
  402e47:	push   eax
  402e48:	call   0x4054b8
  402e4d:	add    esp,0xc
  402e50:	test   esi,esi
  402e52:	jle    0x402ec7
  402e54:	push   0x30
  402e56:	pop    ecx
  402e57:	mov    edi,ebx
  402e59:	mov    eax,edi
  402e5b:	cdq    
  402e5c:	sub    eax,edx
  402e5e:	movzx  edx,WORD PTR [ebp+edi*2-0x2014]
  402e66:	sar    eax,1
  402e68:	add    eax,DWORD PTR [ebp-0x2118]
  402e6e:	mov    DWORD PTR [ebp-0x2134],eax
  402e74:	mov    eax,edx
  402e76:	cmp    eax,ecx
  402e78:	jl     0x402ea0
  402e7a:	cmp    eax,0x39
  402e7d:	jle    0x402e9b
  402e7f:	cmp    eax,0x40
  402e82:	jle    0x402ea0
  402e84:	cmp    eax,0x46
  402e87:	jle    0x402e96
  402e89:	add    eax,0xffffff9f
  402e8c:	cmp    eax,0x5
  402e8f:	ja     0x402ea0
  402e91:	sub    dl,0x57
  402e94:	jmp    0x402ea2
  402e96:	sub    dl,0x37
  402e99:	jmp    0x402ea2
  402e9b:	sub    dl,0x30
  402e9e:	jmp    0x402ea2
  402ea0:	mov    dl,bl
  402ea2:	mov    eax,edi
  402ea4:	and    eax,0x1
  402ea7:	push   0x4
  402ea9:	shl    eax,0x2
  402eac:	pop    ecx
  402ead:	sub    ecx,eax
  402eaf:	mov    eax,DWORD PTR [ebp-0x2134]
  402eb5:	shl    dl,cl
  402eb7:	push   0x30
  402eb9:	pop    ecx
  402eba:	or     BYTE PTR [eax],dl
  402ebc:	inc    edi
  402ebd:	cmp    edi,esi
  402ebf:	jl     0x402e59
  402ec1:	mov    edi,DWORD PTR [ebp-0x2130]
  402ec7:	mov    eax,DWORD PTR [ebp-0x2124]
  402ecd:	push   edi
  402ece:	push   DWORD PTR [ebp-0x2118]
  402ed4:	push   0x3
  402ed6:	push   ebx
  402ed7:	push   DWORD PTR [ebp-0x2128]
  402edd:	push   DWORD PTR [eax]
  402edf:	call   DWORD PTR ds:0x4080bc
  402ee5:	mov    edi,eax
  402ee7:	lea    eax,[ebp-0x2114]
  402eed:	cmp    DWORD PTR [ebp-0x2118],eax
  402ef3:	je     0x402cf5
  402ef9:	lea    ecx,[ebp-0x2118]
  402eff:	call   0x40475a
  402f04:	jmp    0x402cf5
  402f09:	lea    ecx,[ebp-0x2014]
  402f0f:	xor    ebx,ebx
  402f11:	lea    edx,[ecx+0x2]
  402f14:	mov    ax,WORD PTR [ecx]
  402f17:	add    ecx,edi
  402f19:	cmp    ax,bx
  402f1c:	jne    0x402f14
  402f1e:	sub    ecx,edx
  402f20:	sar    ecx,1
  402f22:	lea    eax,[ecx*2+0x2]
  402f29:	push   eax
  402f2a:	lea    eax,[ebp-0x2014]
  402f30:	push   eax
  402f31:	mov    eax,DWORD PTR [ebp-0x2124]
  402f37:	push   0x1
  402f39:	push   ebx
  402f3a:	push   DWORD PTR [ebp-0x2128]
  402f40:	push   DWORD PTR [eax]
  402f42:	call   DWORD PTR ds:0x4080bc
  402f48:	mov    edi,eax
  402f4a:	jmp    0x402cfb
  402f4f:	push   DWORD PTR [ebp-0x2138]
  402f55:	mov    ecx,esi
  402f57:	call   0x4029a5
  402f5c:	test   eax,eax
  402f5e:	js     0x402f62
  402f60:	xor    eax,eax
  402f62:	mov    ecx,DWORD PTR [ebp-0xc]
  402f65:	mov    DWORD PTR fs:0x0,ecx
  402f6c:	pop    ecx
  402f6d:	pop    edi
  402f6e:	pop    esi
  402f6f:	pop    ebx
  402f70:	mov    ecx,DWORD PTR [ebp-0x14]
  402f73:	xor    ecx,ebp
  402f75:	call   0x405170
  402f7a:	mov    esp,ebp
  402f7c:	pop    ebp
  402f7d:	ret    0xc
  402f80:	int3   
  402f81:	int3   
  402f82:	int3   
  402f83:	int3   
  402f84:	int3   
  402f85:	mov    edi,edi
  402f87:	push   ebp
  402f88:	mov    ebp,esp
  402f8a:	push   esi
  402f8b:	mov    esi,0x401600
  402f90:	push   DWORD PTR [esi]
  402f92:	push   DWORD PTR [ebp+0x8]
  402f95:	call   DWORD PTR ds:0x4080fc
  402f9b:	test   eax,eax
  402f9d:	je     0x402faf
  402f9f:	add    esi,0x4
  402fa2:	cmp    esi,0x401630
  402fa8:	jl     0x402f90
  402faa:	xor    eax,eax
  402fac:	inc    eax
  402fad:	jmp    0x402fb1
  402faf:	xor    eax,eax
  402fb1:	pop    esi
  402fb2:	pop    ebp
  402fb3:	ret    0x4
  402fb6:	int3   
  402fb7:	int3   
  402fb8:	int3   
  402fb9:	int3   
  402fba:	int3   
  402fbb:	mov    edi,edi
  402fbd:	push   ebp
  402fbe:	mov    ebp,esp
  402fc0:	push   ecx
  402fc1:	xor    ecx,ecx
  402fc3:	lea    eax,[ebp-0x4]
  402fc6:	push   ecx
  402fc7:	push   ecx
  402fc8:	push   ecx
  402fc9:	push   ecx
  402fca:	push   ecx
  402fcb:	push   ecx
  402fcc:	push   ecx
  402fcd:	push   eax
  402fce:	push   ecx
  402fcf:	push   ecx
  402fd0:	push   ecx
  402fd1:	push   DWORD PTR [ebp+0x8]
  402fd4:	mov    DWORD PTR [ebp-0x4],ecx
  402fd7:	call   DWORD PTR ds:0x4080c0
  402fdd:	test   eax,eax
  402fdf:	je     0x402fe5
  402fe1:	xor    eax,eax
  402fe3:	jmp    0x402fee
  402fe5:	xor    eax,eax
  402fe7:	cmp    eax,DWORD PTR [ebp-0x4]
  402fea:	sbb    eax,eax
  402fec:	neg    eax
  402fee:	mov    esp,ebp
  402ff0:	pop    ebp
  402ff1:	ret    0x4
  402ff4:	int3   
  402ff5:	int3   
  402ff6:	int3   
  402ff7:	int3   
  402ff8:	int3   
  402ff9:	mov    edi,edi
  402ffb:	push   ebp
  402ffc:	mov    ebp,esp
  402ffe:	mov    eax,0x2004
  403003:	call   0x405bb0
  403008:	mov    eax,ds:0x40700c
  40300d:	xor    eax,ebp
  40300f:	mov    DWORD PTR [ebp-0x4],eax
  403012:	push   esi
  403013:	push   edi
  403014:	mov    edi,DWORD PTR [ebp+0x8]
  403017:	mov    esi,ecx
  403019:	cmp    WORD PTR [edi],0x3d
  40301d:	jne    0x40304e
  40301f:	push   edi
  403020:	call   0x4029a5
  403025:	test   eax,eax
  403027:	js     0x403050
  403029:	mov    ecx,esi
  40302b:	call   0x402975
  403030:	lea    eax,[ebp-0x2004]
  403036:	mov    ecx,esi
  403038:	push   eax
  403039:	call   0x4029a5
  40303e:	test   eax,eax
  403040:	js     0x403050
  403042:	push   edi
  403043:	mov    ecx,esi
  403045:	call   0x4029a5
  40304a:	test   eax,eax
  40304c:	js     0x403050
  40304e:	xor    eax,eax
  403050:	mov    ecx,DWORD PTR [ebp-0x4]
  403053:	pop    edi
  403054:	xor    ecx,ebp
  403056:	pop    esi
  403057:	call   0x405170
  40305c:	mov    esp,ebp
  40305e:	pop    ebp
  40305f:	ret    0x4
  403062:	int3   
  403063:	int3   
  403064:	int3   
  403065:	int3   
  403066:	int3   
  403067:	push   0x5c
  403069:	mov    eax,0x405d34
  40306e:	call   0x405aea
  403073:	mov    edi,ecx
  403075:	mov    esi,DWORD PTR [ebp+0x8]
  403078:	mov    eax,DWORD PTR [ebp+0xc]
  40307b:	mov    DWORD PTR [ebp-0x60],eax
  40307e:	test   esi,esi
  403080:	je     0x403206
  403086:	test   eax,eax
  403088:	je     0x403206
  40308e:	mov    ecx,esi
  403090:	xor    ebx,ebx
  403092:	mov    DWORD PTR [eax],ebx
  403094:	lea    edx,[ecx+0x2]
  403097:	mov    ax,WORD PTR [ecx]
  40309a:	add    ecx,0x2
  40309d:	cmp    ax,bx
  4030a0:	jne    0x403097
  4030a2:	sub    ecx,edx
  4030a4:	sar    ecx,1
  4030a6:	lea    eax,[ecx+ecx*1]
  4030a9:	cmp    eax,0x64
  4030ac:	jge    0x4030b3
  4030ae:	mov    eax,0x3e8
  4030b3:	push   0x2
  4030b5:	pop    ecx
  4030b6:	mov    DWORD PTR [ebp-0x58],eax
  4030b9:	mul    ecx
  4030bb:	mov    DWORD PTR [ebp-0x5c],ebx
  4030be:	cmp    edx,ebx
  4030c0:	ja     0x4030dc
  4030c2:	cmp    eax,0xffffffff
  4030c5:	ja     0x4030dc
  4030c7:	push   eax
  4030c8:	call   DWORD PTR ds:0x408028
  4030ce:	mov    DWORD PTR [ebp-0x54],eax
  4030d1:	test   eax,eax
  4030d3:	je     0x4030e1
  4030d5:	xor    ecx,ecx
  4030d7:	mov    WORD PTR [eax],cx
  4030da:	jmp    0x4030e1
  4030dc:	mov    eax,ebx
  4030de:	mov    DWORD PTR [ebp-0x54],eax
  4030e1:	mov    DWORD PTR [ebp-0x4],ebx
  4030e4:	test   eax,eax
  4030e6:	jne    0x4030f2
  4030e8:	mov    ebx,0x8007000e
  4030ed:	jmp    0x4031eb
  4030f2:	mov    DWORD PTR [edi],esi
  4030f4:	cmp    WORD PTR [esi],bx
  4030f7:	je     0x4031e0
  4030fd:	push   0x25
  4030ff:	pop    esi
  403100:	mov    eax,DWORD PTR [edi]
  403102:	cmp    WORD PTR [eax],si
  403105:	jne    0x403115
  403107:	push   eax
  403108:	call   DWORD PTR ds:0x4080f4
  40310e:	mov    DWORD PTR [edi],eax
  403110:	cmp    WORD PTR [eax],si
  403113:	jne    0x403129
  403115:	push   0x1
  403117:	push   eax
  403118:	lea    ecx,[ebp-0x5c]
  40311b:	call   0x402420
  403120:	test   eax,eax
  403122:	je     0x4030e8
  403124:	jmp    0x4031cd
  403129:	mov    edx,esi
  40312b:	mov    ecx,eax
  40312d:	call   0x402942
  403132:	mov    DWORD PTR [ebp-0x64],eax
  403135:	test   eax,eax
  403137:	je     0x4031ff
  40313d:	mov    ecx,eax
  40313f:	sub    ecx,DWORD PTR [edi]
  403141:	sar    ecx,1
  403143:	cmp    ecx,0x1f
  403146:	jg     0x4031f8
  40314c:	push   ecx
  40314d:	push   DWORD PTR [edi]
  40314f:	lea    eax,[ebp-0x50]
  403152:	push   0x20
  403154:	push   eax
  403155:	call   DWORD PTR ds:0x408154
  40315b:	add    esp,0x10
  40315e:	mov    ecx,eax
  403160:	call   0x401d13
  403165:	mov    ecx,DWORD PTR [edi+0x4]
  403168:	lea    eax,[ebp-0x50]
  40316b:	push   eax
  40316c:	call   0x402832
  403171:	mov    edx,eax
  403173:	test   edx,edx
  403175:	je     0x4031ff
  40317b:	mov    DWORD PTR [ebp-0x68],ebx
  40317e:	mov    ecx,edx
  403180:	mov    BYTE PTR [ebp-0x4],0x1
  403184:	lea    esi,[ecx+0x2]
  403187:	mov    ax,WORD PTR [ecx]
  40318a:	add    ecx,0x2
  40318d:	cmp    ax,bx
  403190:	jne    0x403187
  403192:	sub    ecx,esi
  403194:	sar    ecx,1
  403196:	push   ecx
  403197:	push   edx
  403198:	lea    ecx,[ebp-0x5c]
  40319b:	call   0x402420
  4031a0:	lea    ecx,[ebp-0x68]
  4031a3:	mov    BYTE PTR [ebp-0x4],bl
  4031a6:	mov    esi,eax
  4031a8:	call   0x40461f
  4031ad:	test   esi,esi
  4031af:	je     0x4030e8
  4031b5:	mov    esi,DWORD PTR [ebp-0x64]
  4031b8:	cmp    DWORD PTR [edi],esi
  4031ba:	je     0x4031ca
  4031bc:	push   DWORD PTR [edi]
  4031be:	call   DWORD PTR ds:0x4080f4
  4031c4:	mov    DWORD PTR [edi],eax
  4031c6:	cmp    eax,esi
  4031c8:	jne    0x4031bc
  4031ca:	push   0x25
  4031cc:	pop    esi
  4031cd:	push   DWORD PTR [edi]
  4031cf:	call   DWORD PTR ds:0x4080f4
  4031d5:	mov    DWORD PTR [edi],eax
  4031d7:	cmp    WORD PTR [eax],bx
  4031da:	jne    0x403100
  4031e0:	mov    eax,DWORD PTR [ebp-0x60]
  4031e3:	mov    ecx,DWORD PTR [ebp-0x54]
  4031e6:	mov    DWORD PTR [ebp-0x54],ebx
  4031e9:	mov    DWORD PTR [eax],ecx
  4031eb:	push   DWORD PTR [ebp-0x54]
  4031ee:	call   DWORD PTR ds:0x40802c
  4031f4:	mov    eax,ebx
  4031f6:	jmp    0x40320b
  4031f8:	mov    ebx,0x80004005
  4031fd:	jmp    0x4031eb
  4031ff:	mov    ebx,0x80020009
  403204:	jmp    0x4031eb
  403206:	mov    eax,0x80004003
  40320b:	call   0x405a8a
  403210:	ret    0x8
  403213:	int3   
  403214:	int3   
  403215:	int3   
  403216:	int3   
  403217:	int3   
  403218:	mov    edi,edi
  40321a:	push   ebp
  40321b:	mov    ebp,esp
  40321d:	mov    eax,0x200c
  403222:	call   0x405bb0
  403227:	mov    eax,ds:0x40700c
  40322c:	xor    eax,ebp
  40322e:	mov    DWORD PTR [ebp-0x4],eax
  403231:	mov    eax,DWORD PTR [ebp+0x8]
  403234:	and    DWORD PTR [ebp-0x2008],0x0
  40323b:	push   esi
  40323c:	push   edi
  40323d:	mov    edi,ecx
  40323f:	lea    ecx,[ebp-0x2008]
  403245:	push   ecx
  403246:	push   eax
  403247:	mov    ecx,edi
  403249:	call   0x403067
  40324e:	mov    esi,eax
  403250:	test   esi,esi
  403252:	js     0x40335f
  403258:	mov    eax,DWORD PTR [ebp-0x2008]
  40325e:	xor    ecx,ecx
  403260:	mov    DWORD PTR [edi],eax
  403262:	cmp    cx,WORD PTR [eax]
  403265:	je     0x403351
  40326b:	push   ebx
  40326c:	lea    eax,[ebp-0x2004]
  403272:	mov    ecx,edi
  403274:	push   eax
  403275:	call   0x4029a5
  40327a:	mov    esi,eax
  40327c:	test   esi,esi
  40327e:	js     0x403350
  403284:	xor    esi,esi
  403286:	push   DWORD PTR [esi*8+0x401540]
  40328d:	lea    eax,[ebp-0x2004]
  403293:	push   eax
  403294:	call   DWORD PTR ds:0x4080fc
  40329a:	test   eax,eax
  40329c:	je     0x4032a8
  40329e:	inc    esi
  40329f:	cmp    esi,0xe
  4032a2:	jb     0x403286
  4032a4:	xor    ebx,ebx
  4032a6:	jmp    0x4032af
  4032a8:	mov    ebx,DWORD PTR [esi*8+0x401544]
  4032af:	test   ebx,ebx
  4032b1:	je     0x40334b
  4032b7:	lea    eax,[ebp-0x2004]
  4032bd:	mov    ecx,edi
  4032bf:	push   eax
  4032c0:	call   0x4029a5
  4032c5:	mov    esi,eax
  4032c7:	test   esi,esi
  4032c9:	js     0x403350
  4032cf:	push   0x7b
  4032d1:	pop    eax
  4032d2:	cmp    ax,WORD PTR [ebp-0x2004]
  4032d9:	jne    0x40334b
  4032db:	cmp    DWORD PTR [ebp+0xc],0x0
  4032df:	mov    ecx,edi
  4032e1:	push   0x0
  4032e3:	je     0x403320
  4032e5:	push   DWORD PTR [ebp+0xc]
  4032e8:	mov    eax,DWORD PTR [edi]
  4032ea:	mov    DWORD PTR [ebp-0x200c],eax
  4032f0:	lea    eax,[ebp-0x2004]
  4032f6:	push   ebx
  4032f7:	push   eax
  4032f8:	call   0x403376
  4032fd:	mov    esi,eax
  4032ff:	test   esi,esi
  403301:	jns    0x403335
  403303:	mov    eax,DWORD PTR [ebp-0x200c]
  403309:	mov    ecx,edi
  40330b:	push   0x0
  40330d:	push   0x0
  40330f:	mov    DWORD PTR [edi],eax
  403311:	lea    eax,[ebp-0x2004]
  403317:	push   ebx
  403318:	push   eax
  403319:	call   0x403376
  40331e:	jmp    0x403350
  403320:	push   0x0
  403322:	push   ebx
  403323:	lea    eax,[ebp-0x2004]
  403329:	push   eax
  40332a:	call   0x403376
  40332f:	mov    esi,eax
  403331:	test   esi,esi
  403333:	js     0x403350
  403335:	mov    ecx,edi
  403337:	call   0x402975
  40333c:	mov    eax,DWORD PTR [edi]
  40333e:	xor    ecx,ecx
  403340:	cmp    cx,WORD PTR [eax]
  403343:	jne    0x40326c
  403349:	jmp    0x403350
  40334b:	mov    esi,0x80020009
  403350:	pop    ebx
  403351:	push   DWORD PTR [ebp-0x2008]
  403357:	call   DWORD PTR ds:0x40802c
  40335d:	mov    eax,esi
  40335f:	mov    ecx,DWORD PTR [ebp-0x4]
  403362:	pop    edi
  403363:	xor    ecx,ebp
  403365:	pop    esi
  403366:	call   0x405170
  40336b:	mov    esp,ebp
  40336d:	pop    ebp
  40336e:	ret    0x8
  403371:	int3   
  403372:	int3   
  403373:	int3   
  403374:	int3   
  403375:	int3   
  403376:	mov    edi,edi
  403378:	push   ebp
  403379:	mov    ebp,esp
  40337b:	and    esp,0xfffffff8
  40337e:	push   0xffffffff
  403380:	push   0x405d74
  403385:	mov    eax,fs:0x0
  40338b:	push   eax
  40338c:	push   ecx
  40338d:	mov    eax,0x2264
  403392:	call   0x405bb0
  403397:	mov    eax,ds:0x40700c
  40339c:	xor    eax,esp
  40339e:	mov    DWORD PTR [esp+0x2260],eax
  4033a5:	push   ebx
  4033a6:	push   esi
  4033a7:	push   edi
  4033a8:	mov    eax,ds:0x40700c
  4033ad:	xor    eax,esp
  4033af:	push   eax
  4033b0:	lea    eax,[esp+0x2278]
  4033b7:	mov    fs:0x0,eax
  4033bd:	mov    eax,ecx
  4033bf:	mov    DWORD PTR [esp+0x18],eax
  4033c3:	mov    ecx,DWORD PTR [ebp+0xc]
  4033c6:	mov    edi,DWORD PTR [ebp+0x8]
  4033c9:	mov    DWORD PTR [esp+0x20],ecx
  4033cd:	xor    ecx,ecx
  4033cf:	mov    ebx,ecx
  4033d1:	mov    DWORD PTR [esp+0x34],ecx
  4033d5:	mov    DWORD PTR [esp+0x28],ebx
  4033d9:	mov    DWORD PTR [esp+0x2c],ecx
  4033dd:	mov    DWORD PTR [esp+0x30],ecx
  4033e1:	mov    DWORD PTR [esp+0x2280],ecx
  4033e8:	mov    ecx,DWORD PTR [ebp+0x14]
  4033eb:	mov    DWORD PTR [esp+0x38],ecx
  4033ef:	mov    ecx,eax
  4033f1:	push   edi
  4033f2:	call   0x4029a5
  4033f7:	mov    esi,eax
  4033f9:	test   esi,esi
  4033fb:	js     0x403953
  403401:	jmp    0x403910
  403406:	push   0x40121c
  40340b:	push   edi
  40340c:	mov    DWORD PTR [esp+0x1c],0x1
  403414:	call   DWORD PTR ds:0x4080fc
  40341a:	neg    eax
  40341c:	push   0x4011f0
  403421:	sbb    esi,esi
  403423:	inc    esi
  403424:	push   edi
  403425:	mov    DWORD PTR [esp+0x24],esi
  403429:	call   DWORD PTR ds:0x4080fc
  40342f:	test   eax,eax
  403431:	je     0x40343b
  403433:	test   esi,esi
  403435:	je     0x4034c1
  40343b:	mov    ecx,DWORD PTR [esp+0x18]
  40343f:	push   edi
  403440:	call   0x4029a5
  403445:	mov    esi,eax
  403447:	test   esi,esi
  403449:	js     0x403948
  40344f:	cmp    DWORD PTR [ebp+0x10],0x0
  403453:	je     0x4034c1
  403455:	xor    eax,eax
  403457:	mov    ecx,edi
  403459:	push   0x5c
  40345b:	pop    edx
  40345c:	mov    DWORD PTR [esp+0x3c],eax
  403460:	mov    DWORD PTR [esp+0x40],eax
  403464:	mov    DWORD PTR [esp+0x44],eax
  403468:	call   0x402942
  40346d:	test   eax,eax
  40346f:	jne    0x403943
  403475:	push   edi
  403476:	call   0x402f85
  40347b:	test   eax,eax
  40347d:	je     0x403497
  40347f:	mov    eax,DWORD PTR [esp+0x20]
  403483:	lea    ecx,[esp+0x3c]
  403487:	push   edi
  403488:	mov    DWORD PTR [esp+0x40],eax
  40348c:	call   0x4020e5
  403491:	xor    eax,eax
  403493:	mov    DWORD PTR [esp+0x3c],eax
  403497:	cmp    DWORD PTR [esp+0x1c],0x0
  40349c:	je     0x4034c1
  40349e:	mov    ecx,DWORD PTR [esp+0x18]
  4034a2:	push   edi
  4034a3:	call   0x4029a5
  4034a8:	mov    esi,eax
  4034aa:	test   esi,esi
  4034ac:	js     0x403948
  4034b2:	mov    ecx,DWORD PTR [esp+0x18]
  4034b6:	push   edi
  4034b7:	call   0x402ff9
  4034bc:	jmp    0x403701
  4034c1:	push   0x401208
  4034c6:	push   edi
  4034c7:	call   DWORD PTR ds:0x4080fc
  4034cd:	test   eax,eax
  4034cf:	jne    0x4034e9
  4034d1:	mov    ecx,DWORD PTR [esp+0x18]
  4034d5:	push   edi
  4034d6:	mov    DWORD PTR [esp+0x18],eax
  4034da:	call   0x4029a5
  4034df:	mov    esi,eax
  4034e1:	test   esi,esi
  4034e3:	js     0x403948
  4034e9:	push   0x4011e8
  4034ee:	push   edi
  4034ef:	call   DWORD PTR ds:0x4080fc
  4034f5:	test   eax,eax
  4034f7:	jne    0x403604
  4034fd:	mov    ecx,DWORD PTR [esp+0x18]
  403501:	lea    eax,[esp+0x26c]
  403508:	push   eax
  403509:	call   0x4029a5
  40350e:	mov    esi,eax
  403510:	test   esi,esi
  403512:	js     0x403948
  403518:	mov    ecx,DWORD PTR [esp+0x18]
  40351c:	push   edi
  40351d:	call   0x4029a5
  403522:	mov    esi,eax
  403524:	test   esi,esi
  403526:	js     0x403948
  40352c:	push   0x3d
  40352e:	pop    eax
  40352f:	cmp    WORD PTR [edi],ax
  403532:	jne    0x403943
  403538:	cmp    DWORD PTR [ebp+0x10],0x0
  40353c:	je     0x40358b
  40353e:	xor    eax,eax
  403540:	mov    DWORD PTR [esp+0x4c],eax
  403544:	mov    DWORD PTR [esp+0x50],eax
  403548:	mov    eax,DWORD PTR [esp+0x20]
  40354c:	mov    ecx,DWORD PTR [esp+0x18]
  403550:	mov    BYTE PTR [esp+0x2280],0x1
  403558:	mov    DWORD PTR [esp+0x48],eax
  40355c:	lea    eax,[esp+0x26c]
  403563:	push   edi
  403564:	push   eax
  403565:	lea    eax,[esp+0x50]
  403569:	push   eax
  40356a:	call   0x402aea
  40356f:	mov    esi,eax
  403571:	xor    eax,eax
  403573:	mov    DWORD PTR [esp+0x48],eax
  403577:	test   esi,esi
  403579:	js     0x403948
  40357f:	mov    BYTE PTR [esp+0x2280],al
  403586:	jmp    0x40370b
  40358b:	cmp    DWORD PTR [ebp+0x14],0x0
  40358f:	jne    0x4035eb
  403591:	cmp    DWORD PTR [esp+0x14],0x0
  403596:	je     0x4035eb
  403598:	lea    eax,[esp+0x14]
  40359c:	xor    ecx,ecx
  40359e:	push   eax
  40359f:	push   0x20006
  4035a4:	push   ecx
  4035a5:	push   ecx
  4035a6:	push   DWORD PTR [esp+0x30]
  4035aa:	mov    DWORD PTR [esp+0x28],ecx
  4035ae:	call   DWORD PTR ds:0x4080b4
  4035b4:	test   eax,eax
  4035b6:	jne    0x403938
  4035bc:	mov    esi,DWORD PTR [esp+0x14]
  4035c0:	lea    eax,[esp+0x26c]
  4035c7:	push   eax
  4035c8:	push   esi
  4035c9:	mov    DWORD PTR [esp+0x24],esi
  4035cd:	call   DWORD PTR ds:0x4080b8
  4035d3:	test   eax,eax
  4035d5:	je     0x4035e0
  4035d7:	cmp    eax,0x2
  4035da:	jne    0x40391e
  4035e0:	test   esi,esi
  4035e2:	je     0x4035eb
  4035e4:	push   esi
  4035e5:	call   DWORD PTR ds:0x4080cc
  4035eb:	mov    ecx,DWORD PTR [esp+0x18]
  4035ef:	push   edi
  4035f0:	call   0x402ff9
  4035f5:	mov    esi,eax
  4035f7:	test   esi,esi
  4035f9:	js     0x403948
  4035ff:	jmp    0x403910
  403604:	push   0x5c
  403606:	pop    edx
  403607:	mov    ecx,edi
  403609:	call   0x402942
  40360e:	test   eax,eax
  403610:	jne    0x403943
  403616:	cmp    DWORD PTR [ebp+0x10],eax
  403619:	je     0x403760
  40361f:	mov    esi,DWORD PTR [esp+0x20]
  403623:	lea    eax,[esp+0x14]
  403627:	push   eax
  403628:	push   0x2001f
  40362d:	xor    ecx,ecx
  40362f:	push   ecx
  403630:	push   edi
  403631:	push   esi
  403632:	mov    DWORD PTR [esp+0x28],ecx
  403636:	call   DWORD PTR ds:0x4080b4
  40363c:	test   eax,eax
  40363e:	jne    0x403657
  403640:	test   ebx,ebx
  403642:	je     0x40364b
  403644:	push   ebx
  403645:	call   DWORD PTR ds:0x4080cc
  40364b:	mov    ebx,DWORD PTR [esp+0x14]
  40364f:	mov    DWORD PTR [esp+0x28],ebx
  403653:	test   eax,eax
  403655:	je     0x4036cf
  403657:	lea    eax,[esp+0x14]
  40365b:	xor    ecx,ecx
  40365d:	push   eax
  40365e:	push   0x20019
  403663:	push   ecx
  403664:	push   edi
  403665:	push   esi
  403666:	mov    DWORD PTR [esp+0x28],ecx
  40366a:	call   DWORD PTR ds:0x4080b4
  403670:	test   eax,eax
  403672:	jne    0x40368b
  403674:	test   ebx,ebx
  403676:	je     0x40367f
  403678:	push   ebx
  403679:	call   DWORD PTR ds:0x4080cc
  40367f:	mov    ebx,DWORD PTR [esp+0x14]
  403683:	mov    DWORD PTR [esp+0x28],ebx
  403687:	test   eax,eax
  403689:	je     0x4036cf
  40368b:	lea    eax,[esp+0x60]
  40368f:	xor    ecx,ecx
  403691:	push   eax
  403692:	lea    eax,[esp+0x18]
  403696:	mov    DWORD PTR [esp+0x18],ecx
  40369a:	push   eax
  40369b:	push   ecx
  40369c:	push   0x2001f
  4036a1:	push   ecx
  4036a2:	push   ecx
  4036a3:	push   ecx
  4036a4:	push   edi
  4036a5:	push   esi
  4036a6:	call   DWORD PTR ds:0x4080c4
  4036ac:	test   eax,eax
  4036ae:	jne    0x403938
  4036b4:	test   ebx,ebx
  4036b6:	je     0x4036bf
  4036b8:	push   ebx
  4036b9:	call   DWORD PTR ds:0x4080cc
  4036bf:	mov    ebx,DWORD PTR [esp+0x14]
  4036c3:	mov    DWORD PTR [esp+0x28],ebx
  4036c7:	test   eax,eax
  4036c9:	jne    0x403938
  4036cf:	mov    ecx,DWORD PTR [esp+0x18]
  4036d3:	push   edi
  4036d4:	call   0x4029a5
  4036d9:	mov    esi,eax
  4036db:	test   esi,esi
  4036dd:	js     0x403948
  4036e3:	push   0x3d
  4036e5:	pop    eax
  4036e6:	cmp    WORD PTR [edi],ax
  4036e9:	jne    0x40370b
  4036eb:	mov    ecx,DWORD PTR [esp+0x18]
  4036ef:	xor    eax,eax
  4036f1:	push   edi
  4036f2:	push   eax
  4036f3:	lea    eax,[esp+0x30]
  4036f7:	push   eax
  4036f8:	call   0x402aea
  4036fd:	mov    ebx,DWORD PTR [esp+0x28]
  403701:	mov    esi,eax
  403703:	test   esi,esi
  403705:	js     0x403948
  40370b:	push   0x7b
  40370d:	pop    eax
  40370e:	cmp    WORD PTR [edi],ax
  403711:	jne    0x403910
  403717:	mov    ecx,edi
  403719:	lea    edx,[ecx+0x2]
  40371c:	mov    ax,WORD PTR [ecx]
  40371f:	add    ecx,0x2
  403722:	cmp    ax,WORD PTR [esp+0x34]
  403727:	jne    0x40371c
  403729:	sub    ecx,edx
  40372b:	sar    ecx,1
  40372d:	cmp    ecx,0x1
  403730:	jne    0x403910
  403736:	mov    ecx,DWORD PTR [esp+0x18]
  40373a:	xor    eax,eax
  40373c:	push   eax
  40373d:	push   DWORD PTR [ebp+0x10]
  403740:	push   ebx
  403741:	push   edi
  403742:	call   0x403376
  403747:	mov    esi,eax
  403749:	test   esi,esi
  40374b:	js     0x403948
  403751:	mov    ecx,DWORD PTR [esp+0x18]
  403755:	push   edi
  403756:	call   0x4029a5
  40375b:	jmp    0x4035f5
  403760:	cmp    DWORD PTR [ebp+0x14],0x0
  403764:	jne    0x4037a9
  403766:	lea    eax,[esp+0x1c]
  40376a:	xor    esi,esi
  40376c:	push   eax
  40376d:	push   0x20019
  403772:	push   esi
  403773:	push   edi
  403774:	push   DWORD PTR [esp+0x30]
  403778:	mov    DWORD PTR [esp+0x30],esi
  40377c:	call   DWORD PTR ds:0x4080b4
  403782:	mov    DWORD PTR [esp+0x24],eax
  403786:	test   eax,eax
  403788:	jne    0x4037b4
  40378a:	mov    DWORD PTR [esp+0x24],esi
  40378e:	mov    eax,esi
  403790:	test   ebx,ebx
  403792:	je     0x40379f
  403794:	push   ebx
  403795:	call   DWORD PTR ds:0x4080cc
  40379b:	mov    DWORD PTR [esp+0x24],eax
  40379f:	mov    ebx,DWORD PTR [esp+0x1c]
  4037a3:	mov    DWORD PTR [esp+0x28],ebx
  4037a7:	jmp    0x4037b0
  4037a9:	push   0x2
  4037ab:	pop    eax
  4037ac:	mov    DWORD PTR [esp+0x24],eax
  4037b0:	test   eax,eax
  4037b2:	je     0x4037bb
  4037b4:	mov    DWORD PTR [ebp+0x14],0x1
  4037bb:	push   0xffffffff
  4037bd:	push   edi
  4037be:	lea    eax,[esp+0x6c]
  4037c2:	push   0x104
  4037c7:	push   eax
  4037c8:	call   DWORD PTR ds:0x408154
  4037ce:	add    esp,0x10
  4037d1:	mov    ecx,eax
  4037d3:	call   0x401d13
  4037d8:	mov    ecx,DWORD PTR [esp+0x18]
  4037dc:	push   edi
  4037dd:	call   0x4029a5
  4037e2:	mov    esi,eax
  4037e4:	test   esi,esi
  4037e6:	js     0x403948
  4037ec:	mov    ecx,DWORD PTR [esp+0x18]
  4037f0:	push   edi
  4037f1:	call   0x402ff9
  4037f6:	mov    esi,eax
  4037f8:	test   esi,esi
  4037fa:	js     0x403948
  403800:	push   0x7b
  403802:	pop    eax
  403803:	cmp    WORD PTR [edi],ax
  403806:	jne    0x403858
  403808:	mov    ecx,edi
  40380a:	lea    edx,[ecx+0x2]
  40380d:	mov    ax,WORD PTR [ecx]
  403810:	add    ecx,0x2
  403813:	cmp    ax,WORD PTR [esp+0x34]
  403818:	jne    0x40380d
  40381a:	sub    ecx,edx
  40381c:	sar    ecx,1
  40381e:	cmp    ecx,0x1
  403821:	jne    0x403858
  403823:	push   DWORD PTR [ebp+0x14]
  403826:	mov    ecx,DWORD PTR [esp+0x1c]
  40382a:	xor    eax,eax
  40382c:	push   eax
  40382d:	push   ebx
  40382e:	push   edi
  40382f:	call   0x403376
  403834:	mov    esi,eax
  403836:	test   esi,esi
  403838:	jns    0x403844
  40383a:	cmp    DWORD PTR [ebp+0x14],0x0
  40383e:	je     0x403948
  403844:	mov    ecx,DWORD PTR [esp+0x18]
  403848:	push   edi
  403849:	call   0x4029a5
  40384e:	mov    esi,eax
  403850:	test   esi,esi
  403852:	js     0x403948
  403858:	mov    ecx,DWORD PTR [esp+0x24]
  40385c:	mov    eax,DWORD PTR [esp+0x38]
  403860:	mov    DWORD PTR [ebp+0x14],eax
  403863:	cmp    ecx,0x2
  403866:	je     0x403910
  40386c:	test   ecx,ecx
  40386e:	je     0x40387d
  403870:	test   eax,eax
  403872:	je     0x40393a
  403878:	jmp    0x403910
  40387d:	test   eax,eax
  40387f:	je     0x4038b4
  403881:	push   ebx
  403882:	call   0x402fbb
  403887:	test   eax,eax
  403889:	je     0x4038b4
  40388b:	lea    eax,[esp+0x64]
  40388f:	push   eax
  403890:	call   0x402f85
  403895:	test   eax,eax
  403897:	je     0x403910
  403899:	cmp    DWORD PTR [esp+0x14],0x0
  40389e:	je     0x403910
  4038a0:	lea    eax,[esp+0x64]
  4038a4:	push   eax
  4038a5:	lea    ecx,[esp+0x2c]
  4038a9:	call   0x4020e5
  4038ae:	mov    ebx,DWORD PTR [esp+0x28]
  4038b2:	jmp    0x403910
  4038b4:	push   ebx
  4038b5:	call   0x402fbb
  4038ba:	mov    DWORD PTR [esp+0x1c],eax
  4038be:	test   ebx,ebx
  4038c0:	je     0x4038db
  4038c2:	push   ebx
  4038c3:	call   DWORD PTR ds:0x4080cc
  4038c9:	xor    ecx,ecx
  4038cb:	mov    ebx,ecx
  4038cd:	mov    DWORD PTR [esp+0x28],ebx
  4038d1:	test   eax,eax
  4038d3:	jne    0x403938
  4038d5:	mov    eax,DWORD PTR [esp+0x1c]
  4038d9:	jmp    0x4038dd
  4038db:	xor    ecx,ecx
  4038dd:	cmp    DWORD PTR [esp+0x14],0x0
  4038e2:	je     0x403910
  4038e4:	test   eax,eax
  4038e6:	jne    0x403910
  4038e8:	mov    eax,DWORD PTR [esp+0x20]
  4038ec:	mov    DWORD PTR [esp+0x54],eax
  4038f0:	lea    eax,[esp+0x64]
  4038f4:	mov    DWORD PTR [esp+0x58],ecx
  4038f8:	mov    DWORD PTR [esp+0x5c],ecx
  4038fc:	lea    ecx,[esp+0x54]
  403900:	push   eax
  403901:	call   0x401fc8
  403906:	xor    ecx,ecx
  403908:	mov    DWORD PTR [esp+0x54],ecx
  40390c:	test   eax,eax
  40390e:	jne    0x403938
  403910:	push   0x7d
  403912:	pop    eax
  403913:	cmp    WORD PTR [edi],ax
  403916:	jne    0x403406
  40391c:	jmp    0x403948
  40391e:	mov    ecx,eax
  403920:	call   0x401daf
  403925:	mov    esi,eax
  403927:	mov    eax,DWORD PTR [esp+0x1c]
  40392b:	test   eax,eax
  40392d:	je     0x403948
  40392f:	push   eax
  403930:	call   DWORD PTR ds:0x4080cc
  403936:	jmp    0x403948
  403938:	mov    ecx,eax
  40393a:	call   0x401daf
  40393f:	mov    esi,eax
  403941:	jmp    0x403948
  403943:	mov    esi,0x80020009
  403948:	test   ebx,ebx
  40394a:	je     0x403953
  40394c:	push   ebx
  40394d:	call   DWORD PTR ds:0x4080cc
  403953:	mov    eax,esi
  403955:	mov    ecx,DWORD PTR [esp+0x2278]
  40395c:	mov    DWORD PTR fs:0x0,ecx
  403963:	pop    ecx
  403964:	pop    edi
  403965:	pop    esi
  403966:	pop    ebx
  403967:	mov    ecx,DWORD PTR [esp+0x2260]
  40396e:	xor    ecx,esp
  403970:	call   0x405170
  403975:	mov    esp,ebp
  403977:	pop    ebp
  403978:	ret    0x10
  40397b:	int3   
  40397c:	int3   
  40397d:	int3   
  40397e:	int3   
  40397f:	int3   
  403980:	mov    edi,edi
  403982:	push   ebp
  403983:	mov    ebp,esp
  403985:	sub    esp,0xa68
  40398b:	mov    eax,ds:0x40700c
  403990:	xor    eax,ebp
  403992:	mov    DWORD PTR [ebp-0x4],eax
  403995:	push   ebx
  403996:	push   esi
  403997:	mov    esi,DWORD PTR [ebp+0xc]
  40399a:	mov    ebx,edx
  40399c:	push   edi
  40399d:	xor    edx,edx
  40399f:	mov    DWORD PTR [ebp-0xa38],ecx
  4039a5:	push   0x6
  4039a7:	pop    ecx
  4039a8:	xor    eax,eax
  4039aa:	mov    DWORD PTR [ebp-0xa68],0x401524
  4039b4:	mov    DWORD PTR [ebp-0xa64],edx
  4039ba:	lea    edi,[ebp-0xa58]
  4039c0:	mov    DWORD PTR [ebp-0xa60],edx
  4039c6:	mov    DWORD PTR [ebp-0xa5c],edx
  4039cc:	rep stos DWORD PTR es:[edi],eax
  4039ce:	lea    ecx,[ebp-0xa58]
  4039d4:	mov    BYTE PTR [ebp-0xa40],dl
  4039da:	call   0x401d4b
  4039df:	test   eax,eax
  4039e1:	js     0x403bb3
  4039e7:	mov    BYTE PTR [ebp-0xa40],0x1
  4039ee:	test   esi,esi
  4039f0:	je     0x403a0d
  4039f2:	jmp    0x403a07
  4039f4:	push   DWORD PTR [esi+0x4]
  4039f7:	push   eax
  4039f8:	lea    eax,[ebp-0xa68]
  4039fe:	push   eax
  4039ff:	call   0x4025c0
  403a04:	lea    esi,[esi+0x8]
  403a07:	mov    eax,DWORD PTR [esi]
  403a09:	test   eax,eax
  403a0b:	jne    0x4039f4
  403a0d:	mov    ecx,DWORD PTR [ebp-0xa38]
  403a13:	lea    eax,[ebp-0xa68]
  403a19:	push   eax
  403a1a:	call   0x404640
  403a1f:	mov    esi,eax
  403a21:	test   esi,esi
  403a23:	js     0x403bb5
  403a29:	mov    esi,DWORD PTR ds:0x407554
  403a2f:	lea    eax,[ebp-0x20c]
  403a35:	push   0x104
  403a3a:	push   eax
  403a3b:	xor    edi,edi
  403a3d:	push   esi
  403a3e:	mov    DWORD PTR [ebp-0xa3c],edi
  403a44:	call   DWORD PTR ds:0x408084
  403a4a:	test   eax,eax
  403a4c:	jne    0x403a65
  403a4e:	call   0x401d97
  403a53:	mov    esi,eax
  403a55:	lea    ecx,[ebp-0xa3c]
  403a5b:	call   0x40461f
  403a60:	jmp    0x403bb5
  403a65:	cmp    eax,0x104
  403a6a:	jne    0x403a81
  403a6c:	lea    ecx,[ebp-0xa3c]
  403a72:	call   0x40461f
  403a77:	mov    esi,0x8007007a
  403a7c:	jmp    0x403bb5
  403a81:	lea    eax,[ebp-0x20c]
  403a87:	mov    edx,0x208
  403a8c:	push   eax
  403a8d:	lea    ecx,[ebp-0xa34]
  403a93:	call   0x401ed4
  403a98:	test   esi,esi
  403a9a:	je     0x403aaf
  403a9c:	push   edi
  403a9d:	call   DWORD PTR ds:0x408074
  403aa3:	cmp    esi,eax
  403aa5:	je     0x403aaf
  403aa7:	lea    eax,[ebp-0xa34]
  403aad:	jmp    0x403b1e
  403aaf:	push   0x22
  403ab1:	pop    esi
  403ab2:	lea    eax,[ebp-0xa34]
  403ab8:	mov    WORD PTR [ebp-0x624],si
  403abf:	push   eax
  403ac0:	mov    edx,0x20a
  403ac5:	lea    ecx,[ebp-0x622]
  403acb:	call   0x401c86
  403ad0:	test   al,al
  403ad2:	jne    0x403ae9
  403ad4:	lea    ecx,[ebp-0xa3c]
  403ada:	call   0x40461f
  403adf:	mov    esi,0x80004005
  403ae4:	jmp    0x403bb5
  403ae9:	lea    ecx,[ebp-0x624]
  403aef:	call   0x401c65
  403af4:	mov    WORD PTR [ebp+eax*2-0x624],si
  403afc:	lea    eax,[eax*2+0x2]
  403b03:	cmp    eax,0x418
  403b08:	jae    0x403bd5
  403b0e:	xor    ecx,ecx
  403b10:	mov    WORD PTR [ebp+eax*1-0x624],cx
  403b18:	lea    eax,[ebp-0x624]
  403b1e:	push   eax
  403b1f:	push   0x401438
  403b24:	lea    eax,[ebp-0xa68]
  403b2a:	push   eax
  403b2b:	call   0x4025c0
  403b30:	mov    esi,eax
  403b32:	test   esi,esi
  403b34:	js     0x403a55
  403b3a:	lea    eax,[ebp-0xa34]
  403b40:	push   eax
  403b41:	push   0x401448
  403b46:	lea    eax,[ebp-0xa68]
  403b4c:	push   eax
  403b4d:	call   0x4025c0
  403b52:	mov    esi,eax
  403b54:	test   esi,esi
  403b56:	js     0x403a55
  403b5c:	mov    DWORD PTR [ebp-0xa38],edi
  403b62:	cmp    DWORD PTR [ebp+0x8],edi
  403b65:	je     0x403b6f
  403b67:	test   ebx,ebx
  403b69:	je     0x403b9e
  403b6b:	push   0x1
  403b6d:	jmp    0x403b74
  403b6f:	test   ebx,ebx
  403b71:	je     0x403b9e
  403b73:	push   edi
  403b74:	push   0x401460
  403b79:	push   ebx
  403b7a:	lea    eax,[ebp-0x20c]
  403b80:	push   eax
  403b81:	lea    ecx,[ebp-0xa68]
  403b87:	call   0x402630
  403b8c:	lea    ecx,[ebp-0xa38]
  403b92:	mov    esi,eax
  403b94:	call   0x40461f
  403b99:	jmp    0x403a55
  403b9e:	lea    ecx,[ebp-0xa38]
  403ba4:	call   0x40461f
  403ba9:	mov    esi,0x80070057
  403bae:	jmp    0x403a55
  403bb3:	mov    esi,eax
  403bb5:	lea    ecx,[ebp-0xa68]
  403bbb:	call   0x40251a
  403bc0:	mov    ecx,DWORD PTR [ebp-0x4]
  403bc3:	mov    eax,esi
  403bc5:	pop    edi
  403bc6:	pop    esi
  403bc7:	xor    ecx,ebp
  403bc9:	pop    ebx
  403bca:	call   0x405170
  403bcf:	mov    esp,ebp
  403bd1:	pop    ebp
  403bd2:	ret    0x8
  403bd5:	call   0x4053d0
  403bda:	int3   
  403bdb:	int3   
  403bdc:	int3   
  403bdd:	int3   
  403bde:	int3   
  403bdf:	int3   
  403be0:	mov    edi,edi
  403be2:	push   ebp
  403be3:	mov    ebp,esp
  403be5:	sub    esp,0xa6c
  403beb:	mov    eax,ds:0x40700c
  403bf0:	xor    eax,ebp
  403bf2:	mov    DWORD PTR [ebp-0x4],eax
  403bf5:	push   ebx
  403bf6:	push   esi
  403bf7:	mov    esi,DWORD PTR [ebp+0xc]
  403bfa:	mov    ebx,ecx
  403bfc:	push   edi
  403bfd:	mov    DWORD PTR [ebp-0xa40],edx
  403c03:	lea    edi,[ebp-0xa5c]
  403c09:	xor    edx,edx
  403c0b:	mov    DWORD PTR [ebp-0xa6c],0x401524
  403c15:	push   0x6
  403c17:	pop    ecx
  403c18:	xor    eax,eax
  403c1a:	mov    DWORD PTR [ebp-0xa68],edx
  403c20:	mov    DWORD PTR [ebp-0xa64],edx
  403c26:	mov    DWORD PTR [ebp-0xa60],edx
  403c2c:	rep stos DWORD PTR es:[edi],eax
  403c2e:	lea    ecx,[ebp-0xa5c]
  403c34:	mov    BYTE PTR [ebp-0xa44],dl
  403c3a:	call   0x401d4b
  403c3f:	test   eax,eax
  403c41:	js     0x403df9
  403c47:	mov    BYTE PTR [ebp-0xa44],0x1
  403c4e:	test   esi,esi
  403c50:	je     0x403c6d
  403c52:	jmp    0x403c67
  403c54:	push   DWORD PTR [esi+0x4]
  403c57:	push   eax
  403c58:	lea    eax,[ebp-0xa6c]
  403c5e:	push   eax
  403c5f:	call   0x4025c0
  403c64:	lea    esi,[esi+0x8]
  403c67:	mov    eax,DWORD PTR [esi]
  403c69:	test   eax,eax
  403c6b:	jne    0x403c54
  403c6d:	lea    eax,[ebp-0xa6c]
  403c73:	mov    ecx,ebx
  403c75:	push   eax
  403c76:	call   0x404640
  403c7b:	mov    esi,eax
  403c7d:	test   esi,esi
  403c7f:	js     0x403dfb
  403c85:	mov    esi,DWORD PTR ds:0x407554
  403c8b:	lea    eax,[ebp-0x20c]
  403c91:	mov    ebx,0x104
  403c96:	xor    edi,edi
  403c98:	push   ebx
  403c99:	push   eax
  403c9a:	push   esi
  403c9b:	mov    DWORD PTR [ebp-0xa38],edi
  403ca1:	call   DWORD PTR ds:0x408084
  403ca7:	test   eax,eax
  403ca9:	jne    0x403cc2
  403cab:	call   0x401d97
  403cb0:	mov    esi,eax
  403cb2:	lea    ecx,[ebp-0xa38]
  403cb8:	call   0x40461f
  403cbd:	jmp    0x403dfb
  403cc2:	cmp    eax,ebx
  403cc4:	jne    0x403cdb
  403cc6:	lea    ecx,[ebp-0xa38]
  403ccc:	call   0x40461f
  403cd1:	mov    esi,0x8007007a
  403cd6:	jmp    0x403dfb
  403cdb:	lea    eax,[ebp-0x20c]
  403ce1:	mov    edx,0x208
  403ce6:	push   eax
  403ce7:	lea    ecx,[ebp-0xa34]
  403ced:	call   0x401ed4
  403cf2:	test   esi,esi
  403cf4:	je     0x403d09
  403cf6:	push   edi
  403cf7:	call   DWORD PTR ds:0x408074
  403cfd:	cmp    esi,eax
  403cff:	je     0x403d09
  403d01:	lea    eax,[ebp-0xa34]
  403d07:	jmp    0x403d78
  403d09:	push   0x22
  403d0b:	pop    esi
  403d0c:	lea    eax,[ebp-0xa34]
  403d12:	mov    WORD PTR [ebp-0x624],si
  403d19:	push   eax
  403d1a:	mov    edx,0x20b
  403d1f:	lea    ecx,[ebp-0x622]
  403d25:	call   0x401c86
  403d2a:	test   al,al
  403d2c:	jne    0x403d43
  403d2e:	lea    ecx,[ebp-0xa38]
  403d34:	call   0x40461f
  403d39:	mov    esi,0x80004005
  403d3e:	jmp    0x403dfb
  403d43:	lea    ecx,[ebp-0x624]
  403d49:	call   0x401c65
  403d4e:	mov    WORD PTR [ebp+eax*2-0x624],si
  403d56:	lea    eax,[eax*2+0x2]
  403d5d:	cmp    eax,0x418
  403d62:	jae    0x403e1b
  403d68:	xor    ecx,ecx
  403d6a:	mov    WORD PTR [ebp+eax*1-0x624],cx
  403d72:	lea    eax,[ebp-0x624]
  403d78:	push   eax
  403d79:	push   0x401438
  403d7e:	lea    eax,[ebp-0xa6c]
  403d84:	push   eax
  403d85:	call   0x4025c0
  403d8a:	mov    esi,eax
  403d8c:	test   esi,esi
  403d8e:	js     0x403cb2
  403d94:	lea    eax,[ebp-0xa34]
  403d9a:	push   eax
  403d9b:	push   0x401448
  403da0:	lea    eax,[ebp-0xa6c]
  403da6:	push   eax
  403da7:	call   0x4025c0
  403dac:	mov    esi,eax
  403dae:	test   esi,esi
  403db0:	js     0x403cb2
  403db6:	lea    ecx,[ebp-0xa6c]
  403dbc:	mov    eax,DWORD PTR [ebp-0xa40]
  403dc2:	mov    DWORD PTR [ebp-0xa3c],edi
  403dc8:	movzx  eax,ax
  403dcb:	cmp    DWORD PTR [ebp+0x8],edi
  403dce:	je     0x403dd4
  403dd0:	push   0x1
  403dd2:	jmp    0x403dd5
  403dd4:	push   edi
  403dd5:	push   0x401460
  403dda:	push   eax
  403ddb:	lea    eax,[ebp-0x20c]
  403de1:	push   eax
  403de2:	call   0x402630
  403de7:	lea    ecx,[ebp-0xa3c]
  403ded:	mov    esi,eax
  403def:	call   0x40461f
  403df4:	jmp    0x403cb2
  403df9:	mov    esi,eax
  403dfb:	lea    ecx,[ebp-0xa6c]
  403e01:	call   0x40251a
  403e06:	mov    ecx,DWORD PTR [ebp-0x4]
  403e09:	mov    eax,esi
  403e0b:	pop    edi
  403e0c:	pop    esi
  403e0d:	xor    ecx,ebp
  403e0f:	pop    ebx
  403e10:	call   0x405170
  403e15:	mov    esp,ebp
  403e17:	pop    ebp
  403e18:	ret    0x8
  403e1b:	call   0x4053d0
  403e20:	int3   
  403e21:	int3   
  403e22:	int3   
  403e23:	int3   
  403e24:	int3   
  403e25:	int3   
  403e26:	mov    edi,edi
  403e28:	push   ebp
  403e29:	mov    ebp,esp
  403e2b:	push   ecx
  403e2c:	mov    eax,ds:0x40700c
  403e31:	xor    eax,ebp
  403e33:	mov    DWORD PTR [ebp-0x4],eax
  403e36:	push   ebx
  403e37:	mov    ebx,ecx
  403e39:	push   edi
  403e3a:	test   ebx,ebx
  403e3c:	je     0x403e7a
  403e3e:	mov    edi,DWORD PTR [ebx+0x8]
  403e41:	test   edi,edi
  403e43:	je     0x403e66
  403e45:	push   esi
  403e46:	mov    esi,DWORD PTR [edi]
  403e48:	mov    ecx,esi
  403e4a:	push   DWORD PTR [edi+0x4]
  403e4d:	call   DWORD PTR ds:0x4081d8
  403e53:	call   esi
  403e55:	mov    esi,DWORD PTR [edi+0x8]
  403e58:	push   edi
  403e59:	call   0x404d30
  403e5e:	mov    edi,esi
  403e60:	pop    ecx
  403e61:	test   esi,esi
  403e63:	jne    0x403e46
  403e65:	pop    esi
  403e66:	mov    ecx,DWORD PTR [ebp-0x4]
  403e69:	and    DWORD PTR [ebx+0x8],0x0
  403e6d:	xor    ecx,ebp
  403e6f:	pop    edi
  403e70:	pop    ebx
  403e71:	call   0x405170
  403e76:	mov    esp,ebp
  403e78:	pop    ebp
  403e79:	ret    
  403e7a:	mov    ecx,0xc0000005
  403e7f:	call   0x401cc2
  403e84:	int3   
  403e85:	int3   
  403e86:	int3   
  403e87:	int3   
  403e88:	int3   
  403e89:	int3   
  403e8a:	mov    edi,edi
  403e8c:	push   ebp
  403e8d:	mov    ebp,esp
  403e8f:	push   0x0
  403e91:	push   0x4
  403e93:	lea    eax,[ebp+0x10]
  403e96:	push   eax
  403e97:	push   ecx
  403e98:	push   edx
  403e99:	push   0x2b
  403e9b:	push   DWORD PTR [ebp+0xc]
  403e9e:	push   DWORD PTR [ebp+0x8]
  403ea1:	call   DWORD PTR ds:0x408138
  403ea7:	add    esp,0x20
  403eaa:	pop    ebp
  403eab:	ret    0xc
  403eae:	int3   
  403eaf:	int3   
  403eb0:	int3   
  403eb1:	int3   
  403eb2:	int3   
  403eb3:	mov    edi,edi
  403eb5:	push   ebp
  403eb6:	mov    ebp,esp
  403eb8:	mov    edx,DWORD PTR [ebp+0x10]
  403ebb:	push   ebx
  403ebc:	push   esi
  403ebd:	xor    ebx,ebx
  403ebf:	mov    esi,ecx
  403ec1:	push   edi
  403ec2:	test   edx,edx
  403ec4:	je     0x403eec
  403ec6:	cmp    WORD PTR [edx],bx
  403ec9:	jne    0x403ecf
  403ecb:	push   0xe
  403ecd:	jmp    0x403eee
  403ecf:	mov    ecx,edx
  403ed1:	lea    edi,[ecx+0x2]
  403ed4:	mov    ax,WORD PTR [ecx]
  403ed7:	add    ecx,0x2
  403eda:	cmp    ax,bx
  403edd:	jne    0x403ed4
  403edf:	sub    ecx,edi
  403ee1:	sar    ecx,1
  403ee3:	lea    ecx,[ecx*2+0x2]
  403eea:	jmp    0x403eef
  403eec:	push   0xa
  403eee:	pop    ecx
  403eef:	test   edx,edx
  403ef1:	je     0x403eff
  403ef3:	cmp    WORD PTR [edx],bx
  403ef6:	jne    0x403f04
  403ef8:	mov    edx,0x401478
  403efd:	jmp    0x403f04
  403eff:	mov    edx,0x401488
  403f04:	push   ebx
  403f05:	push   0x4
  403f07:	lea    eax,[ebp+0x14]
  403f0a:	push   eax
  403f0b:	push   ecx
  403f0c:	push   edx
  403f0d:	push   esi
  403f0e:	push   0x4015d4
  403f13:	push   0x2b
  403f15:	push   DWORD PTR [ebp+0xc]
  403f18:	push   DWORD PTR [ebp+0x8]
  403f1b:	call   DWORD PTR ds:0x408138
  403f21:	add    esp,0x28
  403f24:	pop    edi
  403f25:	pop    esi
  403f26:	pop    ebx
  403f27:	pop    ebp
  403f28:	ret    0x10
  403f2b:	int3   
  403f2c:	int3   
  403f2d:	int3   
  403f2e:	int3   
  403f2f:	int3   
  403f30:	mov    edi,edi
  403f32:	push   ebp
  403f33:	mov    ebp,esp
  403f35:	mov    ecx,DWORD PTR [ebp+0x10]
  403f38:	push   esi
  403f39:	test   ecx,ecx
  403f3b:	je     0x403f4e
  403f3d:	mov    edx,ecx
  403f3f:	lea    esi,[edx+0x1]
  403f42:	mov    al,BYTE PTR [edx]
  403f44:	inc    edx
  403f45:	test   al,al
  403f47:	jne    0x403f42
  403f49:	sub    edx,esi
  403f4b:	inc    edx
  403f4c:	jmp    0x403f51
  403f4e:	push   0x5
  403f50:	pop    edx
  403f51:	test   ecx,ecx
  403f53:	jne    0x403f5a
  403f55:	mov    ecx,0x401494
  403f5a:	push   0x0
  403f5c:	push   0x4
  403f5e:	lea    eax,[ebp+0x14]
  403f61:	push   eax
  403f62:	push   edx
  403f63:	push   ecx
  403f64:	push   0xd
  403f66:	push   0x4015d4
  403f6b:	push   0x2b
  403f6d:	push   DWORD PTR [ebp+0xc]
  403f70:	push   DWORD PTR [ebp+0x8]
  403f73:	call   DWORD PTR ds:0x408138
  403f79:	add    esp,0x28
  403f7c:	pop    esi
  403f7d:	pop    ebp
  403f7e:	ret    0x10
  403f81:	int3   
  403f82:	int3   
  403f83:	int3   
  403f84:	int3   
  403f85:	int3   
  403f86:	mov    edi,edi
  403f88:	push   ebp
  403f89:	mov    ebp,esp
  403f8b:	push   ecx
  403f8c:	mov    ecx,DWORD PTR [ebp+0x10]
  403f8f:	mov    DWORD PTR [ebp-0x4],0x80070057
  403f96:	push   esi
  403f97:	test   ecx,ecx
  403f99:	je     0x403fac
  403f9b:	mov    edx,ecx
  403f9d:	lea    esi,[edx+0x1]
  403fa0:	mov    al,BYTE PTR [edx]
  403fa2:	inc    edx
  403fa3:	test   al,al
  403fa5:	jne    0x403fa0
  403fa7:	sub    edx,esi
  403fa9:	inc    edx
  403faa:	jmp    0x403faf
  403fac:	push   0x5
  403fae:	pop    edx
  403faf:	test   ecx,ecx
  403fb1:	jne    0x403fb8
  403fb3:	mov    ecx,0x401494
  403fb8:	push   0x0
  403fba:	push   0x4
  403fbc:	lea    eax,[ebp-0x4]
  403fbf:	push   eax
  403fc0:	push   0x1a
  403fc2:	push   0x4014cc
  403fc7:	push   edx
  403fc8:	push   ecx
  403fc9:	push   0xe
  403fcb:	push   0x4015d4
  403fd0:	push   0x2b
  403fd2:	push   DWORD PTR [ebp+0xc]
  403fd5:	push   DWORD PTR [ebp+0x8]
  403fd8:	call   DWORD PTR ds:0x408138
  403fde:	add    esp,0x30
  403fe1:	pop    esi
  403fe2:	mov    esp,ebp
  403fe4:	pop    ebp
  403fe5:	ret    0x14
  403fe8:	int3   
  403fe9:	int3   
  403fea:	int3   
  403feb:	int3   
  403fec:	int3   
  403fed:	int3   
  403fee:	int3   
  403fef:	int3   
  403ff0:	mov    edi,edi
  403ff2:	push   ebp
  403ff3:	mov    ebp,esp
  403ff5:	push   ecx
  403ff6:	mov    eax,DWORD PTR [ebp+0x10]
  403ff9:	push   ebx
  403ffa:	xor    ebx,ebx
  403ffc:	push   esi
  403ffd:	mov    esi,DWORD PTR [ebp+0xc]
  404000:	mov    DWORD PTR [eax],ebx
  404002:	mov    eax,DWORD PTR [ebp+0x8]
  404005:	push   edi
  404006:	sub    eax,0x4
  404009:	je     0x40401d
  40400b:	sub    eax,0x1
  40400e:	je     0x404015
  404010:	push   0x57
  404012:	pop    eax
  404013:	jmp    0x40405d
  404015:	mov    edi,ebx
  404017:	mov    eax,ebx
  404019:	mov    dl,bl
  40401b:	jmp    0x404040
  40401d:	push   DWORD PTR [ebp+0x14]
  404020:	call   DWORD PTR ds:0x408128
  404026:	mov    edi,edx
  404028:	mov    ebx,eax
  40402a:	push   edi
  40402b:	push   ebx
  40402c:	call   DWORD PTR ds:0x408130
  404032:	push   edi
  404033:	push   ebx
  404034:	mov    BYTE PTR [ebp-0x1],al
  404037:	call   DWORD PTR ds:0x408134
  40403d:	mov    dl,BYTE PTR [ebp-0x1]
  404040:	test   BYTE PTR [esi+0x1a],0x2
  404044:	je     0x40404f
  404046:	mov    ecx,DWORD PTR [esi+0x10]
  404049:	test   ecx,ecx
  40404b:	je     0x40404f
  40404d:	mov    esi,ecx
  40404f:	mov    DWORD PTR [esi+0x10],ebx
  404052:	mov    DWORD PTR [esi+0x14],edi
  404055:	mov    BYTE PTR [esi+0x19],dl
  404058:	mov    DWORD PTR [esi+0x1c],eax
  40405b:	xor    eax,eax
  40405d:	pop    edi
  40405e:	pop    esi
  40405f:	pop    ebx
  404060:	mov    esp,ebp
  404062:	pop    ebp
  404063:	ret    0x10
  404066:	int3   
  404067:	int3   
  404068:	int3   
  404069:	int3   
  40406a:	int3   
  40406b:	mov    edi,edi
  40406d:	push   ebp
  40406e:	mov    ebp,esp
  404070:	sub    esp,0xc
  404073:	push   ebx
  404074:	push   esi
  404075:	push   edi
  404076:	xor    edi,edi
  404078:	lea    eax,[ebp-0x4]
  40407b:	push   edi
  40407c:	push   edi
  40407d:	push   eax
  40407e:	push   edi
  40407f:	push   0x1
  404081:	push   DWORD PTR ds:0x407558
  404087:	mov    ebx,0x900
  40408c:	mov    DWORD PTR [ebp-0x4],edi
  40408f:	push   ebx
  404090:	mov    esi,ecx
  404092:	mov    DWORD PTR [ebp-0x8],edi
  404095:	call   DWORD PTR ds:0x40808c
  40409b:	test   eax,eax
  40409d:	jne    0x4040d9
  40409f:	mov    eax,ds:0x407014
  4040a4:	cmp    eax,0x407014
  4040a9:	je     0x404144
  4040af:	test   BYTE PTR [eax+0x1c],0x4
  4040b3:	je     0x404144
  4040b9:	call   0x401d97
  4040be:	push   eax
  4040bf:	mov    eax,ds:0x407014
  4040c4:	push   DWORD PTR [eax+0x14]
  4040c7:	push   DWORD PTR [eax+0x10]
  4040ca:	push   0xa
  4040cc:	mov    edx,0x4015d4
  4040d1:	pop    ecx
  4040d2:	call   0x403e8a
  4040d7:	jmp    0x404144
  4040d9:	push   edi
  4040da:	push   edi
  4040db:	lea    eax,[ebp-0x8]
  4040de:	push   eax
  4040df:	push   edi
  4040e0:	push   0x2
  4040e2:	push   DWORD PTR ds:0x407558
  4040e8:	push   ebx
  4040e9:	call   DWORD PTR ds:0x40808c
  4040ef:	test   eax,eax
  4040f1:	jne    0x404123
  4040f3:	push   DWORD PTR [ebp-0x4]
  4040f6:	call   DWORD PTR ds:0x40805c
  4040fc:	mov    eax,ds:0x407014
  404101:	cmp    eax,0x407014
  404106:	je     0x404144
  404108:	test   BYTE PTR [eax+0x1c],0x4
  40410c:	je     0x404144
  40410e:	call   0x401d97
  404113:	push   eax
  404114:	mov    eax,ds:0x407014
  404119:	push   DWORD PTR [eax+0x14]
  40411c:	push   DWORD PTR [eax+0x10]
  40411f:	push   0xb
  404121:	jmp    0x4040cc
  404123:	push   0x40
  404125:	push   DWORD PTR [ebp-0x4]
  404128:	push   DWORD PTR [ebp-0x8]
  40412b:	push   esi
  40412c:	call   DWORD PTR ds:0x408008
  404132:	push   DWORD PTR [ebp-0x4]
  404135:	call   DWORD PTR ds:0x40805c
  40413b:	push   DWORD PTR [ebp-0x8]
  40413e:	call   DWORD PTR ds:0x40805c
  404144:	pop    edi
  404145:	pop    esi
  404146:	pop    ebx
  404147:	mov    esp,ebp
  404149:	pop    ebp
  40414a:	ret    
  40414b:	int3   
  40414c:	int3   
  40414d:	int3   
  40414e:	int3   
  40414f:	int3   
  404150:	mov    edi,edi
  404152:	push   ebp
  404153:	mov    ebp,esp
  404155:	push   ecx
  404156:	push   ebx
  404157:	push   esi
  404158:	mov    esi,ecx
  40415a:	push   edi
  40415b:	mov    edi,edx
  40415d:	test   esi,esi
  40415f:	je     0x4041d8
  404161:	xor    ebx,ebx
  404163:	cmp    WORD PTR [esi],bx
  404166:	je     0x4041d8
  404168:	test   edi,edi
  40416a:	je     0x4041d8
  40416c:	lea    edx,[ecx+0x2]
  40416f:	mov    ax,WORD PTR [ecx]
  404172:	add    ecx,0x2
  404175:	cmp    ax,bx
  404178:	jne    0x40416f
  40417a:	sub    ecx,edx
  40417c:	sar    ecx,1
  40417e:	lea    ebx,[ecx+0x2]
  404181:	push   ebx
  404182:	call   DWORD PTR ds:0x408028
  404188:	mov    DWORD PTR [edi],eax
  40418a:	test   eax,eax
  40418c:	je     0x4041d4
  40418e:	xor    ecx,ecx
  404190:	push   ecx
  404191:	push   ecx
  404192:	push   ebx
  404193:	push   eax
  404194:	push   0xffffffff
  404196:	push   esi
  404197:	push   0x400
  40419c:	push   ecx
  40419d:	call   DWORD PTR ds:0x4080ec
  4041a3:	mov    DWORD PTR [ebp-0x4],eax
  4041a6:	test   eax,eax
  4041a8:	je     0x4041b5
  4041aa:	mov    ecx,DWORD PTR [edi]
  4041ac:	mov    WORD PTR [ecx+ebx*1-0x2],0x57
  4041b3:	jmp    0x4041e2
  4041b5:	call   DWORD PTR ds:0x408050
  4041bb:	push   DWORD PTR [edi]
  4041bd:	mov    esi,eax
  4041bf:	call   DWORD PTR ds:0x40802c
  4041c5:	and    DWORD PTR [edi],0x0
  4041c8:	push   esi
  4041c9:	call   DWORD PTR ds:0x40804c
  4041cf:	mov    eax,DWORD PTR [ebp-0x4]
  4041d2:	jmp    0x4041e2
  4041d4:	push   0xe
  4041d6:	jmp    0x4041da
  4041d8:	push   0x57
  4041da:	call   DWORD PTR ds:0x40804c
  4041e0:	xor    eax,eax
  4041e2:	pop    edi
  4041e3:	pop    esi
  4041e4:	pop    ebx
  4041e5:	mov    esp,ebp
  4041e7:	pop    ebp
  4041e8:	ret    
  4041e9:	int3   
  4041ea:	int3   
  4041eb:	int3   
  4041ec:	int3   
  4041ed:	int3   
  4041ee:	int3   
  4041ef:	int3   
  4041f0:	mov    edi,edi
  4041f2:	push   ebp
  4041f3:	mov    ebp,esp
  4041f5:	pop    ebp
  4041f6:	jmp    DWORD PTR ds:0x408014
  4041fc:	int3   
  4041fd:	int3   
  4041fe:	int3   
  4041ff:	int3   
  404200:	int3   
  404201:	mov    edi,edi
  404203:	push   ebp
  404204:	mov    ebp,esp
  404206:	and    esp,0xfffffff8
  404209:	sub    esp,0x4c
  40420c:	mov    eax,ds:0x40700c
  404211:	xor    eax,esp
  404213:	mov    DWORD PTR [esp+0x48],eax
  404217:	push   ebx
  404218:	xor    edx,edx
  40421a:	push   esi
  40421b:	push   edi
  40421c:	mov    DWORD PTR [esp+0x24],edx
  404220:	mov    DWORD PTR [esp+0x18],edx
  404224:	mov    esi,0x4074f0
  404229:	mov    DWORD PTR ds:0x407500,edx
  40422f:	mov    DWORD PTR ds:0x4074f0,edx
  404235:	mov    edi,0x407518
  40423a:	mov    DWORD PTR ds:0x407508,0x1
  404244:	mov    DWORD PTR ds:0x40750c,edx
  40424a:	mov    DWORD PTR ds:0x407518,0x4015c4
  404254:	mov    DWORD PTR ds:0x407014,esi
  40425a:	mov    ecx,DWORD PTR [edi]
  40425c:	lea    eax,[esi+0x8]
  40425f:	push   eax
  404260:	push   edx
  404261:	push   edx
  404262:	lea    eax,[esp+0x28]
  404266:	mov    DWORD PTR [esp+0x28],ecx
  40426a:	push   eax
  40426b:	push   0x1
  40426d:	push   ecx
  40426e:	push   esi
  40426f:	mov    DWORD PTR [esp+0x3c],edx
  404273:	lea    edi,[edi+0x4]
  404276:	push   0x403ff0
  40427b:	mov    DWORD PTR [esi+0x20],ecx
  40427e:	call   DWORD PTR ds:0x40813c
  404284:	mov    esi,DWORD PTR [esi]
  404286:	push   0x0
  404288:	pop    edx
  404289:	test   esi,esi
  40428b:	jne    0x40425a
  40428d:	mov    ebx,DWORD PTR [ebp+0x8]
  404290:	mov    ecx,ebx
  404292:	push   0x7b
  404294:	pop    edx
  404295:	call   0x404b5d
  40429a:	push   0x9
  40429c:	pop    ecx
  40429d:	xor    esi,esi
  40429f:	lea    edi,[esp+0x30]
  4042a3:	xor    eax,eax
  4042a5:	mov    DWORD PTR [esp+0x2c],esi
  4042a9:	push   0x2710
  4042ae:	rep stos DWORD PTR es:[edi],eax
  4042b0:	push   ebx
  4042b1:	mov    DWORD PTR [esp+0x38],0x4041f0
  4042b9:	mov    DWORD PTR [esp+0x44],ebx
  4042bd:	call   DWORD PTR ds:0x408020
  4042c3:	push   0x7f00
  4042c8:	push   esi
  4042c9:	mov    DWORD PTR [esp+0x48],eax
  4042cd:	call   DWORD PTR ds:0x40800c
  4042d3:	mov    DWORD PTR [esp+0x44],eax
  4042d7:	mov    edi,0x40149c
  4042dc:	lea    eax,[esp+0x2c]
  4042e0:	mov    DWORD PTR [esp+0x48],0x6
  4042e8:	push   eax
  4042e9:	mov    DWORD PTR [esp+0x3c],0x4
  4042f1:	mov    DWORD PTR [esp+0x54],edi
  4042f5:	call   DWORD PTR ds:0x408010
  4042fb:	lea    ecx,[esp+0x14]
  4042ff:	mov    DWORD PTR [esp+0x14],esi
  404303:	call   0x404add
  404308:	test   eax,eax
  40430a:	je     0x4045d4
  404310:	call   0x404b4a
  404315:	push   esi
  404316:	push   ebx
  404317:	push   esi
  404318:	push   esi
  404319:	push   esi
  40431a:	push   esi
  40431b:	mov    eax,0x80000000
  404320:	push   eax
  404321:	push   eax
  404322:	push   esi
  404323:	push   0x4015c0
  404328:	push   edi
  404329:	push   0x80
  40432e:	call   DWORD PTR ds:0x408018
  404334:	mov    ecx,DWORD PTR [esp+0x14]
  404338:	mov    edi,eax
  40433a:	mov    DWORD PTR [esp+0xc],edi
  40433e:	call   0x404b37
  404343:	test   edi,edi
  404345:	je     0x4045d4
  40434b:	lea    eax,[esp+0x18]
  40434f:	push   eax
  404350:	push   DWORD PTR [ebp+0x10]
  404353:	call   DWORD PTR ds:0x408144
  404359:	mov    ebx,eax
  40435b:	test   ebx,ebx
  40435d:	je     0x404536
  404363:	cmp    DWORD PTR [esp+0x18],0x1
  404368:	jle    0x4044fa
  40436e:	push   esi
  40436f:	push   esi
  404370:	push   0x4014cc
  404375:	call   DWORD PTR ds:0x40806c
  40437b:	mov    esi,eax
  40437d:	mov    DWORD PTR [esp+0x1c],esi
  404381:	test   esi,esi
  404383:	je     0x4044c6
  404389:	mov    ecx,esi
  40438b:	call   0x40488e
  404390:	mov    DWORD PTR [esp+0x28],eax
  404394:	test   eax,eax
  404396:	je     0x404488
  40439c:	mov    ecx,DWORD PTR [ebx]
  40439e:	lea    edx,[esp+0x10]
  4043a2:	xor    eax,eax
  4043a4:	mov    DWORD PTR [esp+0x10],eax
  4043a8:	call   0x404150
  4043ad:	test   eax,eax
  4043af:	je     0x40444e
  4043b5:	mov    edi,DWORD PTR [esp+0x10]
  4043b9:	push   edi
  4043ba:	push   esi
  4043bb:	call   DWORD PTR ds:0x408078
  4043c1:	mov    esi,eax
  4043c3:	test   esi,esi
  4043c5:	je     0x40441f
  4043c7:	mov    ecx,DWORD PTR [ebx]
  4043c9:	lea    edx,[ecx+0x2]
  4043cc:	mov    ax,WORD PTR [ecx]
  4043cf:	add    ecx,0x2
  4043d2:	cmp    ax,WORD PTR [esp+0x24]
  4043d7:	jne    0x4043cc
  4043d9:	mov    eax,DWORD PTR [ebp+0x10]
  4043dc:	sub    ecx,edx
  4043de:	push   DWORD PTR [ebp+0x14]
  4043e1:	sar    ecx,1
  4043e3:	lea    eax,[eax+ecx*2]
  4043e6:	mov    ecx,esi
  4043e8:	add    eax,0x2
  4043eb:	push   eax
  4043ec:	push   DWORD PTR [ebp+0x8]
  4043ef:	push   DWORD PTR [esp+0x18]
  4043f3:	call   DWORD PTR ds:0x4081d8
  4043f9:	call   esi
  4043fb:	mov    ecx,DWORD PTR ds:0x407014
  404401:	mov    esi,0x407014
  404406:	cmp    ecx,esi
  404408:	je     0x404441
  40440a:	test   BYTE PTR [ecx+0x1c],0x10
  40440e:	je     0x404441
  404410:	push   eax
  404411:	push   edi
  404412:	push   DWORD PTR [ecx+0x14]
  404415:	push   DWORD PTR [ecx+0x10]
  404418:	call   0x403f30
  40441d:	jmp    0x404441
  40441f:	mov    eax,ds:0x407014
  404424:	mov    esi,0x407014
  404429:	cmp    eax,esi
  40442b:	je     0x404441
  40442d:	test   BYTE PTR [eax+0x1c],0x8
  404431:	je     0x404441
  404433:	push   ecx
  404434:	push   ecx
  404435:	push   edi
  404436:	push   DWORD PTR [eax+0x14]
  404439:	push   DWORD PTR [eax+0x10]
  40443c:	call   0x403f86
  404441:	push   edi
  404442:	call   DWORD PTR ds:0x40802c
  404448:	mov    edi,DWORD PTR [esp+0xc]
  40444c:	jmp    0x40447d
  40444e:	mov    eax,ds:0x407014
  404453:	mov    esi,0x407014
  404458:	cmp    eax,esi
  40445a:	je     0x40447d
  40445c:	test   BYTE PTR [eax+0x1c],0x4
  404460:	je     0x40447d
  404462:	call   0x401d97
  404467:	push   eax
  404468:	push   DWORD PTR [ebx]
  40446a:	mov    eax,ds:0x407014
  40446f:	push   DWORD PTR [eax+0x14]
  404472:	push   DWORD PTR [eax+0x10]
  404475:	push   0xf
  404477:	pop    ecx
  404478:	call   0x403eb3
  40447d:	lea    ecx,[esp+0x28]
  404481:	call   0x404a40
  404486:	jmp    0x4044ba
  404488:	mov    eax,ds:0x407014
  40448d:	mov    esi,0x407014
  404492:	cmp    eax,esi
  404494:	je     0x4044ba
  404496:	test   BYTE PTR [eax+0x1c],0x4
  40449a:	je     0x4044ba
  40449c:	call   0x401d97
  4044a1:	push   eax
  4044a2:	mov    eax,ds:0x407014
  4044a7:	push   0x4014cc
  4044ac:	push   DWORD PTR [eax+0x14]
  4044af:	push   DWORD PTR [eax+0x10]
  4044b2:	push   0x10
  4044b4:	pop    ecx
  4044b5:	call   0x403eb3
  4044ba:	push   DWORD PTR [esp+0x1c]
  4044be:	call   DWORD PTR ds:0x408064
  4044c4:	jmp    0x40452d
  4044c6:	mov    eax,ds:0x407014
  4044cb:	mov    esi,0x407014
  4044d0:	cmp    eax,esi
  4044d2:	je     0x40452d
  4044d4:	test   BYTE PTR [eax+0x1c],0x4
  4044d8:	je     0x40452d
  4044da:	call   0x401d97
  4044df:	push   eax
  4044e0:	mov    eax,ds:0x407014
  4044e5:	push   0x4014cc
  4044ea:	push   DWORD PTR [eax+0x14]
  4044ed:	push   DWORD PTR [eax+0x10]
  4044f0:	push   0x11
  4044f2:	pop    ecx
  4044f3:	call   0x403eb3
  4044f8:	jmp    0x40452d
  4044fa:	mov    eax,ds:0x407014
  4044ff:	mov    esi,0x407014
  404504:	cmp    eax,esi
  404506:	je     0x404526
  404508:	test   BYTE PTR [eax+0x1c],0x8
  40450c:	je     0x404526
  40450e:	push   0x80070057
  404513:	push   DWORD PTR [eax+0x14]
  404516:	mov    edx,0x4015d4
  40451b:	push   DWORD PTR [eax+0x10]
  40451e:	push   0x12
  404520:	pop    ecx
  404521:	call   0x403e8a
  404526:	mov    ecx,edi
  404528:	call   0x40406b
  40452d:	push   ebx
  40452e:	call   DWORD PTR ds:0x40805c
  404534:	jmp    0x404568
  404536:	mov    eax,ds:0x407014
  40453b:	mov    esi,0x407014
  404540:	cmp    eax,esi
  404542:	je     0x404568
  404544:	test   BYTE PTR [eax+0x1c],0x4
  404548:	je     0x404568
  40454a:	call   0x401d97
  40454f:	push   eax
  404550:	mov    eax,ds:0x407014
  404555:	mov    edx,0x4015d4
  40455a:	push   DWORD PTR [eax+0x14]
  40455d:	push   DWORD PTR [eax+0x10]
  404560:	push   0x13
  404562:	pop    ecx
  404563:	call   0x403e8a
  404568:	push   edi
  404569:	call   DWORD PTR ds:0x40801c
  40456f:	mov    eax,ds:0x407018
  404574:	cmp    eax,0xffffffff
  404577:	je     0x404587
  404579:	push   eax
  40457a:	call   DWORD PTR ds:0x4080e0
  404580:	or     DWORD PTR ds:0x407018,0xffffffff
  404587:	cmp    DWORD PTR ds:0x40754c,0x0
  40458e:	je     0x404597
  404590:	or     DWORD PTR ds:0x40754c,0xffffffff
  404597:	mov    edi,DWORD PTR ds:0x407014
  40459d:	cmp    edi,esi
  40459f:	je     0x404604
  4045a1:	test   edi,edi
  4045a3:	je     0x4045cc
  4045a5:	xor    esi,esi
  4045a7:	mov    eax,DWORD PTR [edi+0x8]
  4045aa:	or     eax,DWORD PTR [edi+0xc]
  4045ad:	je     0x4045c1
  4045af:	push   DWORD PTR [edi+0xc]
  4045b2:	push   DWORD PTR [edi+0x8]
  4045b5:	call   DWORD PTR ds:0x40812c
  4045bb:	mov    DWORD PTR [edi+0x8],esi
  4045be:	mov    DWORD PTR [edi+0xc],esi
  4045c1:	mov    edi,DWORD PTR [edi]
  4045c3:	test   edi,edi
  4045c5:	jne    0x4045a7
  4045c7:	mov    esi,0x407014
  4045cc:	mov    DWORD PTR ds:0x407014,esi
  4045d2:	jmp    0x404604
  4045d4:	mov    eax,ds:0x407014
  4045d9:	cmp    eax,0x407014
  4045de:	je     0x404604
  4045e0:	test   BYTE PTR [eax+0x1c],0x4
  4045e4:	je     0x404604
  4045e6:	call   0x401d97
  4045eb:	push   eax
  4045ec:	mov    eax,ds:0x407014
  4045f1:	mov    edx,0x4015d4
  4045f6:	push   DWORD PTR [eax+0x14]
  4045f9:	push   DWORD PTR [eax+0x10]
  4045fc:	push   0xc
  4045fe:	pop    ecx
  4045ff:	call   0x403e8a
  404604:	mov    ecx,DWORD PTR [esp+0x54]
  404608:	xor    eax,eax
  40460a:	pop    edi
  40460b:	pop    esi
  40460c:	pop    ebx
  40460d:	xor    ecx,esp
  40460f:	call   0x405170
  404614:	mov    esp,ebp
  404616:	pop    ebp
  404617:	ret    0x10
  40461a:	int3   
  40461b:	int3   
  40461c:	int3   
  40461d:	int3   
  40461e:	int3   
  40461f:	mov    edi,edi
  404621:	push   esi
  404622:	mov    esi,ecx
  404624:	jmp    0x404634
  404626:	mov    edx,DWORD PTR [esi]
  404628:	push   edx
  404629:	mov    eax,DWORD PTR [edx]
  40462b:	mov    DWORD PTR [esi],eax
  40462d:	call   DWORD PTR ds:0x4081b4
  404633:	pop    ecx
  404634:	cmp    DWORD PTR [esi],0x0
  404637:	jne    0x404626
  404639:	pop    esi
  40463a:	ret    
  40463b:	int3   
  40463c:	int3   
  40463d:	int3   
  40463e:	int3   
  40463f:	int3   
  404640:	mov    edi,edi
  404642:	push   ebp
  404643:	mov    ebp,esp
  404645:	push   ecx
  404646:	mov    eax,ds:0x40700c
  40464b:	xor    eax,ebp
  40464d:	mov    DWORD PTR [ebp-0x4],eax
  404650:	mov    eax,DWORD PTR [ebp+0x8]
  404653:	push   esi
  404654:	push   0x401474
  404659:	push   0x4014e8
  40465e:	mov    ecx,DWORD PTR [eax]
  404660:	push   eax
  404661:	mov    esi,DWORD PTR [ecx+0xc]
  404664:	mov    ecx,esi
  404666:	call   DWORD PTR ds:0x4081d8
  40466c:	call   esi
  40466e:	mov    ecx,DWORD PTR [ebp-0x4]
  404671:	xor    ecx,ebp
  404673:	pop    esi
  404674:	call   0x405170
  404679:	mov    esp,ebp
  40467b:	pop    ebp
  40467c:	ret    0x4
  40467f:	int3   
  404680:	int3   
  404681:	int3   
  404682:	int3   
  404683:	int3   
  404684:	jmp    0x4046fd
  404689:	int3   
  40468a:	int3   
  40468b:	int3   
  40468c:	int3   
  40468d:	int3   
  40468e:	mov    edi,edi
  404690:	push   ebp
  404691:	mov    ebp,esp
  404693:	push   esi
  404694:	mov    esi,ecx
  404696:	push   0x4
  404698:	mov    eax,DWORD PTR [esi+0x8]
  40469b:	inc    eax
  40469c:	push   eax
  40469d:	push   DWORD PTR [esi]
  40469f:	call   DWORD PTR ds:0x407004
  4046a5:	add    esp,0xc
  4046a8:	test   eax,eax
  4046aa:	jne    0x4046b0
  4046ac:	xor    eax,eax
  4046ae:	jmp    0x4046f3
  4046b0:	mov    DWORD PTR [esi],eax
  4046b2:	mov    eax,DWORD PTR [esi+0x8]
  4046b5:	push   0x4
  4046b7:	inc    eax
  4046b8:	push   eax
  4046b9:	push   DWORD PTR [esi+0x4]
  4046bc:	call   DWORD PTR ds:0x407004
  4046c2:	add    esp,0xc
  4046c5:	test   eax,eax
  4046c7:	je     0x4046ac
  4046c9:	mov    edx,DWORD PTR [esi+0x8]
  4046cc:	mov    ecx,DWORD PTR [esi]
  4046ce:	shl    edx,0x2
  4046d1:	mov    DWORD PTR [esi+0x4],eax
  4046d4:	add    ecx,edx
  4046d6:	je     0x4046df
  4046d8:	mov    eax,DWORD PTR [ebp+0x8]
  4046db:	mov    eax,DWORD PTR [eax]
  4046dd:	mov    DWORD PTR [ecx],eax
  4046df:	mov    ecx,DWORD PTR [esi+0x4]
  4046e2:	add    ecx,edx
  4046e4:	je     0x4046ed
  4046e6:	mov    eax,DWORD PTR [ebp+0xc]
  4046e9:	mov    eax,DWORD PTR [eax]
  4046eb:	mov    DWORD PTR [ecx],eax
  4046ed:	inc    DWORD PTR [esi+0x8]
  4046f0:	xor    eax,eax
  4046f2:	inc    eax
  4046f3:	pop    esi
  4046f4:	pop    ebp
  4046f5:	ret    0x8
  4046f8:	int3   
  4046f9:	int3   
  4046fa:	int3   
  4046fb:	int3   
  4046fc:	int3   
  4046fd:	mov    edi,edi
  4046ff:	push   esi
  404700:	mov    esi,ecx
  404702:	cmp    DWORD PTR [esi],0x0
  404705:	je     0x404713
  404707:	push   DWORD PTR [esi]
  404709:	call   DWORD PTR ds:0x4081b4
  40470f:	and    DWORD PTR [esi],0x0
  404712:	pop    ecx
  404713:	cmp    DWORD PTR [esi+0x4],0x0
  404717:	je     0x404727
  404719:	push   DWORD PTR [esi+0x4]
  40471c:	call   DWORD PTR ds:0x4081b4
  404722:	and    DWORD PTR [esi+0x4],0x0
  404726:	pop    ecx
  404727:	and    DWORD PTR [esi+0x8],0x0
  40472b:	pop    esi
  40472c:	ret    
  40472d:	int3   
  40472e:	int3   
  40472f:	int3   
  404730:	int3   
  404731:	int3   
  404732:	mov    edi,edi
  404734:	push   esi
  404735:	mov    esi,ecx
  404737:	push   DWORD PTR [esi]
  404739:	call   0x404d30
  40473e:	and    DWORD PTR [esi],0x0
  404741:	pop    ecx
  404742:	pop    esi
  404743:	ret    
  404744:	int3   
  404745:	int3   
  404746:	int3   
  404747:	int3   
  404748:	int3   
  404749:	lea    eax,[ecx+0x4]
  40474c:	cmp    DWORD PTR [ecx],eax
  40474e:	jne    0x40475a
  404754:	ret    
  404755:	int3   
  404756:	int3   
  404757:	int3   
  404758:	int3   
  404759:	int3   
  40475a:	push   DWORD PTR [ecx]
  40475c:	call   DWORD PTR ds:0x4081b4
  404762:	pop    ecx
  404763:	ret    
  404764:	int3   
  404765:	int3   
  404766:	int3   
  404767:	int3   
  404768:	int3   
  404769:	mov    edi,edi
  40476b:	push   ebp
  40476c:	mov    ebp,esp
  40476e:	push   esi
  40476f:	push   DWORD PTR [ebp+0x8]
  404772:	mov    esi,ecx
  404774:	call   DWORD PTR ds:0x4081b0
  40477a:	pop    ecx
  40477b:	test   eax,eax
  40477d:	je     0x404786
  40477f:	mov    DWORD PTR [esi],eax
  404781:	pop    esi
  404782:	pop    ebp
  404783:	ret    0x4
  404786:	mov    ecx,0x8007000e
  40478b:	call   0x401cea
  404790:	int3   
  404791:	int3   
  404792:	int3   
  404793:	int3   
  404794:	int3   
  404795:	int3   
  404796:	mov    edi,edi
  404798:	push   edi
  404799:	xor    eax,eax
  40479b:	mov    edx,0x407568
  4047a0:	push   0x6
  4047a2:	pop    ecx
  4047a3:	mov    edi,edx
  4047a5:	rep stos DWORD PTR es:[edi],eax
  4047a7:	mov    ds:0x407580,eax
  4047ac:	mov    ecx,edx
  4047ae:	mov    ds:0x407584,eax
  4047b3:	mov    ds:0x407588,eax
  4047b8:	mov    eax,0x400000
  4047bd:	mov    DWORD PTR ds:0x407550,0x3c
  4047c7:	mov    ds:0x407558,eax
  4047cc:	mov    ds:0x407554,eax
  4047d1:	mov    BYTE PTR ds:0x40755c,0x1
  4047d8:	mov    DWORD PTR ds:0x407560,0x800
  4047e2:	mov    DWORD PTR ds:0x407564,0x401630
  4047ec:	call   0x401d4b
  4047f1:	pop    edi
  4047f2:	test   eax,eax
  4047f4:	jns    0x4047fd
  4047f6:	mov    BYTE PTR ds:0x4075b0,0x1
  4047fd:	mov    eax,0x407550
  404802:	ret    
  404803:	int3   
  404804:	int3   
  404805:	int3   
  404806:	int3   
  404807:	int3   
  404808:	mov    eax,ds:0x407580
  40480d:	test   eax,eax
  40480f:	je     0x404820
  404811:	push   eax
  404812:	call   DWORD PTR ds:0x4081b4
  404818:	and    DWORD PTR ds:0x407580,0x0
  40481f:	pop    ecx
  404820:	and    DWORD PTR ds:0x407584,0x0
  404827:	and    DWORD PTR ds:0x407588,0x0
  40482e:	ret    
  40482f:	int3   
  404830:	int3   
  404831:	int3   
  404832:	int3   
  404833:	int3   
  404834:	mov    eax,ds:0x407040
  404839:	test   eax,eax
  40483b:	je     0x40484c
  40483d:	push   eax
  40483e:	call   DWORD PTR ds:0x4081b4
  404844:	and    DWORD PTR ds:0x407040,0x0
  40484b:	pop    ecx
  40484c:	and    DWORD PTR ds:0x407044,0x0
  404853:	and    DWORD PTR ds:0x407048,0x0
  40485a:	ret    
  40485b:	int3   
  40485c:	int3   
  40485d:	int3   
  40485e:	int3   
  40485f:	int3   
  404860:	mov    edi,edi
  404862:	push   ebp
  404863:	mov    ebp,esp
  404865:	push   0x0
  404867:	push   0x4
  404869:	lea    eax,[ebp+0x10]
  40486c:	push   eax
  40486d:	push   0xd
  40486f:	push   0x401640
  404874:	push   0x2b
  404876:	push   DWORD PTR [ebp+0xc]
  404879:	push   DWORD PTR [ebp+0x8]
  40487c:	call   DWORD PTR ds:0x408138
  404882:	add    esp,0x20
  404885:	pop    ebp
  404886:	ret    0xc
  404889:	int3   
  40488a:	int3   
  40488b:	int3   
  40488c:	int3   
  40488d:	int3   
  40488e:	mov    edi,edi
  404890:	push   ebp
  404891:	mov    ebp,esp
  404893:	sub    esp,0x234
  404899:	mov    eax,ds:0x40700c
  40489e:	xor    eax,ebp
  4048a0:	mov    DWORD PTR [ebp-0x4],eax
  4048a3:	push   ebx
  4048a4:	push   esi
  4048a5:	push   edi
  4048a6:	push   0x8
  4048a8:	mov    ebx,ecx
  4048aa:	call   DWORD PTR ds:0x408028
  4048b0:	mov    esi,eax
  4048b2:	test   esi,esi
  4048b4:	je     0x404a0a
  4048ba:	xor    eax,eax
  4048bc:	xor    edi,edi
  4048be:	push   0x206
  4048c3:	mov    WORD PTR [ebp-0x210],ax
  4048ca:	lea    eax,[ebp-0x20e]
  4048d0:	push   edi
  4048d1:	mov    DWORD PTR [esi],edi
  4048d3:	push   eax
  4048d4:	mov    DWORD PTR [esi+0x4],edi
  4048d7:	call   0x4054b8
  4048dc:	add    esp,0xc
  4048df:	lea    eax,[ebp-0x210]
  4048e5:	push   0x104
  4048ea:	push   eax
  4048eb:	push   ebx
  4048ec:	call   DWORD PTR ds:0x408084
  4048f2:	test   eax,eax
  4048f4:	je     0x4049d1
  4048fa:	push   0x7
  4048fc:	xor    eax,eax
  4048fe:	lea    edi,[ebp-0x22c]
  404904:	pop    ecx
  404905:	rep stos DWORD PTR es:[edi],eax
  404907:	lea    eax,[ebp-0x210]
  40490d:	mov    DWORD PTR [ebp-0x230],0x20
  404917:	mov    DWORD PTR [ebp-0x228],eax
  40491d:	lea    eax,[ebp-0x230]
  404923:	push   eax
  404924:	mov    DWORD PTR [ebp-0x22c],0x88
  40492e:	mov    DWORD PTR [ebp-0x21c],0x7b
  404938:	mov    DWORD PTR [ebp-0x214],ebx
  40493e:	call   DWORD PTR ds:0x4080dc
  404944:	mov    ecx,eax
  404946:	mov    DWORD PTR [esi],ecx
  404948:	cmp    ecx,0xffffffff
  40494b:	jne    0x40497f
  40494d:	mov    eax,ds:0x407014
  404952:	cmp    eax,0x407014
  404957:	je     0x4049c6
  404959:	test   BYTE PTR [eax+0x1c],0x4
  40495d:	je     0x4049c6
  40495f:	call   0x401d97
  404964:	push   eax
  404965:	mov    eax,ds:0x407014
  40496a:	mov    edx,0x401640
  40496f:	push   DWORD PTR [eax+0x14]
  404972:	push   DWORD PTR [eax+0x10]
  404975:	push   0xa
  404977:	pop    ecx
  404978:	call   0x403e8a
  40497d:	jmp    0x4049c6
  40497f:	lea    eax,[esi+0x4]
  404982:	push   eax
  404983:	push   ecx
  404984:	call   DWORD PTR ds:0x4080d8
  40498a:	test   eax,eax
  40498c:	jne    0x404a0a
  40498e:	mov    eax,ds:0x407014
  404993:	cmp    eax,0x407014
  404998:	je     0x4049be
  40499a:	test   BYTE PTR [eax+0x1c],0x4
  40499e:	je     0x4049be
  4049a0:	call   0x401d97
  4049a5:	push   eax
  4049a6:	mov    eax,ds:0x407014
  4049ab:	mov    edx,0x401640
  4049b0:	push   DWORD PTR [eax+0x14]
  4049b3:	push   DWORD PTR [eax+0x10]
  4049b6:	push   0xb
  4049b8:	pop    ecx
  4049b9:	call   0x403e8a
  4049be:	push   DWORD PTR [esi]
  4049c0:	call   DWORD PTR ds:0x4080e0
  4049c6:	push   esi
  4049c7:	call   DWORD PTR ds:0x40802c
  4049cd:	xor    esi,esi
  4049cf:	jmp    0x404a0a
  4049d1:	mov    eax,ds:0x407014
  4049d6:	cmp    eax,0x407014
  4049db:	je     0x404a01
  4049dd:	test   BYTE PTR [eax+0x1c],0x4
  4049e1:	je     0x404a01
  4049e3:	call   0x401d97
  4049e8:	push   eax
  4049e9:	mov    eax,ds:0x407014
  4049ee:	mov    edx,0x401640
  4049f3:	push   DWORD PTR [eax+0x14]
  4049f6:	push   DWORD PTR [eax+0x10]
  4049f9:	push   0xc
  4049fb:	pop    ecx
  4049fc:	call   0x403e8a
  404a01:	push   esi
  404a02:	call   DWORD PTR ds:0x40802c
  404a08:	mov    esi,edi
  404a0a:	mov    eax,ds:0x407014
  404a0f:	cmp    eax,0x407014
  404a14:	je     0x404a28
  404a16:	test   BYTE PTR [eax+0x1c],0x10
  404a1a:	je     0x404a28
  404a1c:	push   esi
  404a1d:	push   DWORD PTR [eax+0x14]
  404a20:	push   DWORD PTR [eax+0x10]
  404a23:	call   0x404860
  404a28:	mov    ecx,DWORD PTR [ebp-0x4]
  404a2b:	mov    eax,esi
  404a2d:	pop    edi
  404a2e:	pop    esi
  404a2f:	xor    ecx,ebp
  404a31:	pop    ebx
  404a32:	call   0x405170
  404a37:	mov    esp,ebp
  404a39:	pop    ebp
  404a3a:	ret    
  404a3b:	int3   
  404a3c:	int3   
  404a3d:	int3   
  404a3e:	int3   
  404a3f:	int3   
  404a40:	mov    edi,edi
  404a42:	push   ebx
  404a43:	push   esi
  404a44:	push   edi
  404a45:	mov    edi,ecx
  404a47:	xor    esi,esi
  404a49:	test   edi,edi
  404a4b:	je     0x404aaa
  404a4d:	mov    ebx,DWORD PTR [edi]
  404a4f:	test   ebx,ebx
  404a51:	je     0x404aaa
  404a53:	push   DWORD PTR [ebx+0x4]
  404a56:	push   esi
  404a57:	call   DWORD PTR ds:0x4080d4
  404a5d:	mov    esi,eax
  404a5f:	test   esi,esi
  404a61:	je     0x404a78
  404a63:	push   DWORD PTR [ebx]
  404a65:	call   DWORD PTR ds:0x4080e0
  404a6b:	push   DWORD PTR [edi]
  404a6d:	call   DWORD PTR ds:0x40802c
  404a73:	and    DWORD PTR [edi],0x0
  404a76:	jmp    0x404aaa
  404a78:	mov    ecx,DWORD PTR ds:0x407014
  404a7e:	cmp    ecx,0x407014
  404a84:	je     0x404ad2
  404a86:	test   BYTE PTR [ecx+0x1c],0x4
  404a8a:	je     0x404ab0
  404a8c:	call   0x401d97
  404a91:	push   eax
  404a92:	mov    eax,ds:0x407014
  404a97:	mov    edx,0x401640
  404a9c:	push   DWORD PTR [eax+0x14]
  404a9f:	push   DWORD PTR [eax+0x10]
  404aa2:	push   0xe
  404aa4:	pop    ecx
  404aa5:	call   0x403e8a
  404aaa:	mov    ecx,DWORD PTR ds:0x407014
  404ab0:	cmp    ecx,0x407014
  404ab6:	je     0x404ad2
  404ab8:	test   BYTE PTR [ecx+0x1c],0x10
  404abc:	je     0x404ad2
  404abe:	push   esi
  404abf:	push   DWORD PTR [ecx+0x14]
  404ac2:	mov    edx,0x401640
  404ac7:	push   DWORD PTR [ecx+0x10]
  404aca:	push   0xf
  404acc:	pop    ecx
  404acd:	call   0x403e8a
  404ad2:	pop    edi
  404ad3:	mov    eax,esi
  404ad5:	pop    esi
  404ad6:	pop    ebx
  404ad7:	ret    
  404ad8:	int3   
  404ad9:	int3   
  404ada:	int3   
  404adb:	int3   
  404adc:	int3   
  404add:	mov    edi,edi
  404adf:	push   ebp
  404ae0:	mov    ebp,esp
  404ae2:	and    esp,0xfffffff8
  404ae5:	push   ecx
  404ae6:	push   esi
  404ae7:	mov    esi,ecx
  404ae9:	and    DWORD PTR [esi],0x0
  404aec:	mov    eax,ds:0x407018
  404af1:	cmp    eax,0xffffffff
  404af4:	jne    0x404b22
  404af6:	mov    ecx,DWORD PTR ds:0x40754c
  404afc:	test   ecx,ecx
  404afe:	je     0x404b1d
  404b00:	cmp    ecx,eax
  404b02:	jne    0x404b08
  404b04:	xor    eax,eax
  404b06:	jmp    0x404b2d
  404b08:	mov    edx,DWORD PTR ds:0x40758c
  404b0e:	call   0x404b5d
  404b13:	mov    eax,ds:0x407018
  404b18:	cmp    eax,0xffffffff
  404b1b:	jne    0x404b22
  404b1d:	xor    eax,eax
  404b1f:	inc    eax
  404b20:	jmp    0x404b2d
  404b22:	and    DWORD PTR [esi],0x0
  404b25:	push   esi
  404b26:	push   eax
  404b27:	call   DWORD PTR ds:0x4080d8
  404b2d:	pop    esi
  404b2e:	mov    esp,ebp
  404b30:	pop    ebp
  404b31:	ret    
  404b32:	int3   
  404b33:	int3   
  404b34:	int3   
  404b35:	int3   
  404b36:	int3   
  404b37:	test   ecx,ecx
  404b39:	je     0x404b44
  404b3b:	push   ecx
  404b3c:	push   0x0
  404b3e:	call   DWORD PTR ds:0x4080d4
  404b44:	ret    
  404b45:	int3   
  404b46:	int3   
  404b47:	int3   
  404b48:	int3   
  404b49:	int3   
  404b4a:	cmp    DWORD PTR ds:0x407018,0xfffffffd
  404b51:	jne    0x404c79
  404b57:	ret    
  404b58:	int3   
  404b59:	int3   
  404b5a:	int3   
  404b5b:	int3   
  404b5c:	int3   
  404b5d:	mov    edi,edi
  404b5f:	push   ebp
  404b60:	mov    ebp,esp
  404b62:	sub    esp,0x234
  404b68:	mov    eax,ds:0x40700c
  404b6d:	xor    eax,ebp
  404b6f:	mov    DWORD PTR [ebp-0x4],eax
  404b72:	cmp    DWORD PTR ds:0x407018,0xffffffff
  404b79:	push   ebx
  404b7a:	push   esi
  404b7b:	push   edi
  404b7c:	mov    ebx,edx
  404b7e:	mov    esi,ecx
  404b80:	jne    0x404c1c
  404b86:	and    DWORD PTR [ebp-0x230],0x0
  404b8d:	lea    edi,[ebp-0x22c]
  404b93:	push   0x7
  404b95:	xor    eax,eax
  404b97:	pop    ecx
  404b98:	rep stos DWORD PTR es:[edi],eax
  404b9a:	test   esi,esi
  404b9c:	jne    0x404ba7
  404b9e:	push   esi
  404b9f:	call   DWORD PTR ds:0x408074
  404ba5:	mov    esi,eax
  404ba7:	push   0x104
  404bac:	lea    eax,[ebp-0x210]
  404bb2:	push   eax
  404bb3:	push   esi
  404bb4:	call   DWORD PTR ds:0x408084
  404bba:	lea    eax,[ebp-0x210]
  404bc0:	mov    DWORD PTR [ebp-0x230],0x20
  404bca:	mov    DWORD PTR [ebp-0x228],eax
  404bd0:	movzx  eax,bx
  404bd3:	mov    DWORD PTR [ebp-0x21c],eax
  404bd9:	lea    eax,[ebp-0x230]
  404bdf:	push   eax
  404be0:	mov    DWORD PTR [ebp-0x22c],0x88
  404bea:	mov    DWORD PTR [ebp-0x214],esi
  404bf0:	call   DWORD PTR ds:0x4080dc
  404bf6:	mov    edx,eax
  404bf8:	cmp    edx,0xffffffff
  404bfb:	je     0x404c1c
  404bfd:	mov    ecx,edx
  404bff:	mov    esi,0x407018
  404c04:	or     eax,0xffffffff
  404c07:	lock cmpxchg DWORD PTR [esi],ecx
  404c0b:	cmp    eax,0xffffffff
  404c0e:	je     0x404c17
  404c10:	push   edx
  404c11:	call   DWORD PTR ds:0x4080e0
  404c17:	call   0x404c79
  404c1c:	mov    ecx,DWORD PTR [ebp-0x4]
  404c1f:	xor    eax,eax
  404c21:	cmp    DWORD PTR ds:0x407018,0xffffffff
  404c28:	pop    edi
  404c29:	setne  al
  404c2c:	xor    ecx,ebp
  404c2e:	pop    esi
  404c2f:	pop    ebx
  404c30:	call   0x405170
  404c35:	mov    esp,ebp
  404c37:	pop    ebp
  404c38:	ret    
  404c39:	int3   
  404c3a:	int3   
  404c3b:	int3   
  404c3c:	int3   
  404c3d:	int3   
  404c3e:	mov    edi,edi
  404c40:	push   ebp
  404c41:	mov    ebp,esp
  404c43:	push   ecx
  404c44:	push   esi
  404c45:	xor    esi,esi
  404c47:	lea    ecx,[ebp-0x4]
  404c4a:	mov    DWORD PTR [ebp-0x4],esi
  404c4d:	call   0x404add
  404c52:	test   eax,eax
  404c54:	je     0x404c6f
  404c56:	push   esi
  404c57:	push   esi
  404c58:	push   0x401650
  404c5d:	call   DWORD PTR ds:0x40806c
  404c63:	mov    ecx,DWORD PTR [ebp-0x4]
  404c66:	mov    esi,eax
  404c68:	call   0x404b37
  404c6d:	mov    eax,esi
  404c6f:	pop    esi
  404c70:	mov    esp,ebp
  404c72:	pop    ebp
  404c73:	ret    
  404c74:	int3   
  404c75:	int3   
  404c76:	int3   
  404c77:	int3   
  404c78:	int3   
  404c79:	mov    ecx,DWORD PTR ds:0x4075c0
  404c7f:	test   ecx,ecx
  404c81:	jne    0x404ca9
  404c83:	call   0x404c3e
  404c88:	mov    ecx,eax
  404c8a:	mov    DWORD PTR ds:0x4075c0,ecx
  404c90:	test   ecx,ecx
  404c92:	jne    0x404ca9
  404c94:	push   eax
  404c95:	push   eax
  404c96:	push   0x401650
  404c9b:	call   DWORD PTR ds:0x40806c
  404ca1:	mov    ecx,eax
  404ca3:	mov    DWORD PTR ds:0x4075c0,ecx
  404ca9:	xor    eax,eax
  404cab:	test   ecx,ecx
  404cad:	setne  al
  404cb0:	ret    
  404cb1:	int3   
  404cb2:	int3   
  404cb3:	int3   
  404cb4:	int3   
  404cb5:	int3   
  404cb6:	int3   
  404cb7:	int3   
  404cb8:	int3   
  404cb9:	int3   
  404cba:	int3   
  404cbb:	int3   
  404cbc:	int3   
  404cbd:	int3   
  404cbe:	int3   
  404cbf:	int3   
  404cc0:	mov    edi,edi
  404cc2:	push   ebp
  404cc3:	mov    ebp,esp
  404cc5:	push   ecx
  404cc6:	push   esi
  404cc7:	push   DWORD PTR [ebp+0x8]
  404cca:	mov    esi,ecx
  404ccc:	mov    DWORD PTR [ebp-0x4],esi
  404ccf:	call   0x4054d0
  404cd4:	mov    DWORD PTR [esi],0x4010e0
  404cda:	mov    eax,esi
  404cdc:	pop    esi
  404cdd:	mov    esp,ebp
  404cdf:	pop    ebp
  404ce0:	ret    0x4
  404ce3:	int3   
  404ce4:	int3   
  404ce5:	int3   
  404ce6:	int3   
  404ce7:	int3   
  404ce8:	mov    edi,edi
  404cea:	push   esi
  404ceb:	mov    esi,ecx
  404ced:	call   0x4054c4
  404cf2:	cmp    DWORD PTR [esi+0x4],0x0
  404cf6:	mov    DWORD PTR [esi],0x4010e0
  404cfc:	jne    0x404d0c
  404cfe:	cmp    DWORD PTR [esi+0x8],0x0
  404d02:	jne    0x404d0c
  404d04:	mov    eax,ds:0x407000
  404d09:	mov    DWORD PTR [esi+0x4],eax
  404d0c:	mov    eax,esi
  404d0e:	pop    esi
  404d0f:	ret    
  404d10:	int3   
  404d11:	int3   
  404d12:	int3   
  404d13:	int3   
  404d14:	int3   
  404d15:	int3   
  404d16:	int3   
  404d17:	int3   
  404d18:	int3   
  404d19:	int3   
  404d1a:	int3   
  404d1b:	int3   
  404d1c:	int3   
  404d1d:	int3   
  404d1e:	int3   
  404d1f:	int3   
  404d20:	mov    DWORD PTR [ecx],0x4010e0
  404d26:	jmp    0x4054dc
  404d2b:	int3   
  404d2c:	int3   
  404d2d:	int3   
  404d2e:	int3   
  404d2f:	int3   
  404d30:	jmp    DWORD PTR ds:0x4081b4
  404d36:	int3   
  404d37:	int3   
  404d38:	int3   
  404d39:	int3   
  404d3a:	int3   
  404d3b:	int3   
  404d3c:	int3   
  404d3d:	int3   
  404d3e:	int3   
  404d3f:	int3   
  404d40:	mov    edi,edi
  404d42:	push   ebp
  404d43:	mov    ebp,esp
  404d45:	push   esi
  404d46:	mov    esi,ecx
  404d48:	mov    DWORD PTR [esi],0x4010e0
  404d4e:	call   0x4054dc
  404d53:	test   BYTE PTR [ebp+0x8],0x1
  404d57:	je     0x404d61
  404d59:	push   esi
  404d5a:	call   DWORD PTR ds:0x4081b4
  404d60:	pop    ecx
  404d61:	mov    eax,esi
  404d63:	pop    esi
  404d64:	pop    ebp
  404d65:	ret    0x4
  404d68:	int3   
  404d69:	int3   
  404d6a:	int3   
  404d6b:	int3   
  404d6c:	int3   
  404d6d:	int3   
  404d6e:	int3   
  404d6f:	int3   
  404d70:	mov    edi,edi
  404d72:	push   ebp
  404d73:	mov    ebp,esp
  404d75:	sub    esp,0xc
  404d78:	push   ecx
  404d79:	lea    ecx,[ebp-0xc]
  404d7c:	call   0x404cc0
  404d81:	push   0x40612c
  404d86:	lea    eax,[ebp-0xc]
  404d89:	push   eax
  404d8a:	call   0x405508
  404d8f:	int3   
  404d90:	int3   
  404d91:	int3   
  404d92:	int3   
  404d93:	int3   
  404d94:	int3   
  404d95:	mov    edi,edi
  404d97:	push   ebp
  404d98:	mov    ebp,esp
  404d9a:	sub    esp,0xc
  404d9d:	push   esi
  404d9e:	jmp    0x404dad
  404da0:	push   DWORD PTR [ebp+0x8]
  404da3:	call   0x4054fc
  404da8:	pop    ecx
  404da9:	test   eax,eax
  404dab:	je     0x404dc0
  404dad:	push   DWORD PTR [ebp+0x8]
  404db0:	call   DWORD PTR ds:0x4081b0
  404db6:	pop    ecx
  404db7:	test   eax,eax
  404db9:	je     0x404da0
  404dbb:	pop    esi
  404dbc:	mov    esp,ebp
  404dbe:	pop    ebp
  404dbf:	ret    
  404dc0:	mov    eax,ds:0x40719c
  404dc5:	mov    esi,0x407190
  404dca:	test   al,0x1
  404dcc:	jne    0x404de8
  404dce:	or     eax,0x1
  404dd1:	mov    ecx,esi
  404dd3:	mov    ds:0x40719c,eax
  404dd8:	call   0x404ce8
  404ddd:	push   0x405e40
  404de2:	call   0x405223
  404de7:	pop    ecx
  404de8:	push   esi
  404de9:	lea    ecx,[ebp-0xc]
  404dec:	call   0x404cc0
  404df1:	push   0x40612c
  404df6:	lea    eax,[ebp-0xc]
  404df9:	push   eax
  404dfa:	call   0x405508
  404dff:	int3   
  404e00:	int3   
  404e01:	int3   
  404e02:	int3   
  404e03:	int3   
  404e04:	int3   
  404e05:	int3   
  404e06:	int3   
  404e07:	int3   
  404e08:	int3   
  404e09:	int3   
  404e0a:	int3   
  404e0b:	int3   
  404e0c:	int3   
  404e0d:	int3   
  404e0e:	int3   
  404e0f:	int3   
  404e10:	mov    eax,0x5a4d
  404e15:	cmp    WORD PTR ds:0x400000,ax
  404e1c:	je     0x404e22
  404e1e:	xor    eax,eax
  404e20:	jmp    0x404e70
  404e22:	mov    ecx,DWORD PTR ds:0x40003c
  404e28:	cmp    DWORD PTR [ecx+0x400000],0x4550
  404e32:	jne    0x404e1e
  404e34:	movzx  eax,WORD PTR [ecx+0x400018]
  404e3b:	cmp    eax,0x10b
  404e40:	je     0x404e5c
  404e42:	cmp    eax,0x20b
  404e47:	jne    0x404e1e
  404e49:	xor    eax,eax
  404e4b:	cmp    DWORD PTR [ecx+0x400084],0xe
  404e52:	jbe    0x404e70
  404e54:	cmp    DWORD PTR [ecx+0x4000f8],eax
  404e5a:	jmp    0x404e6d
  404e5c:	xor    eax,eax
  404e5e:	cmp    DWORD PTR [ecx+0x400074],0xe
  404e65:	jbe    0x404e70
  404e67:	cmp    DWORD PTR [ecx+0x4000e8],eax
  404e6d:	setne  al
  404e70:	push   0x2
  404e72:	mov    ds:0x4071b8,eax
  404e77:	call   0x4055fe
  404e7c:	push   eax
  404e7d:	call   DWORD PTR ds:0x408178
  404e83:	or     DWORD PTR ds:0x4075cc,0xffffffff
  404e8a:	or     DWORD PTR ds:0x4075d0,0xffffffff
  404e91:	pop    ecx
  404e92:	pop    ecx
  404e93:	call   DWORD PTR ds:0x408160
  404e99:	mov    ecx,DWORD PTR ds:0x4074e8
  404e9f:	mov    DWORD PTR [eax],ecx
  404ea1:	call   DWORD PTR ds:0x408184
  404ea7:	mov    ecx,DWORD PTR ds:0x4074dc
  404ead:	mov    DWORD PTR [eax],ecx
  404eaf:	call   0x405650
  404eb4:	cmp    DWORD PTR ds:0x407008,0x0
  404ebb:	jne    0x404ec9
  404ebd:	push   0x405650
  404ec2:	call   DWORD PTR ds:0x408150
  404ec8:	pop    ecx
  404ec9:	call   0x40585f
  404ece:	xor    eax,eax
  404ed0:	ret    
  404ed1:	int3   
  404ed2:	int3   
  404ed3:	int3   
  404ed4:	int3   
  404ed5:	int3   
  404ed6:	int3   
  404ed7:	int3   
  404ed8:	int3   
  404ed9:	int3   
  404eda:	int3   
  404edb:	int3   
  404edc:	int3   
  404edd:	int3   
  404ede:	int3   
  404edf:	int3   
  404ee0:	mov    eax,ds:0x4074e4
  404ee5:	push   0x4071bc
  404eea:	push   DWORD PTR ds:0x4074e0
  404ef0:	mov    ds:0x4071bc,eax
  404ef5:	push   0x4071b0
  404efa:	push   0x4071ac
  404eff:	push   0x4071a8
  404f04:	call   DWORD PTR ds:0x4081bc
  404f0a:	add    esp,0x14
  404f0d:	mov    ds:0x4071b4,eax
  404f12:	ret    
  404f13:	int3   
  404f14:	int3   
  404f15:	int3   
  404f16:	int3   
  404f17:	int3   
  404f18:	push   0x5c
  404f1a:	push   0x406168
  404f1f:	call   0x405884
  404f24:	and    DWORD PTR [ebp-0x24],0x0
  404f28:	and    DWORD PTR [ebp-0x4],0x0
  404f2c:	lea    eax,[ebp-0x6c]
  404f2f:	push   eax
  404f30:	call   DWORD PTR ds:0x408094
  404f36:	mov    DWORD PTR [ebp-0x4],0xfffffffe
  404f3d:	xor    ebx,ebx
  404f3f:	inc    ebx
  404f40:	mov    DWORD PTR [ebp-0x4],ebx
  404f43:	mov    eax,fs:0x18
  404f49:	mov    edi,DWORD PTR [eax+0x4]
  404f4c:	xor    esi,esi
  404f4e:	mov    edx,0x4075c4
  404f53:	mov    ecx,edi
  404f55:	xor    eax,eax
  404f57:	lock cmpxchg DWORD PTR [edx],ecx
  404f5b:	test   eax,eax
  404f5d:	je     0x404f65
  404f5f:	cmp    eax,edi
  404f61:	jne    0x404f77
  404f63:	mov    esi,ebx
  404f65:	cmp    DWORD PTR ds:0x4075c8,ebx
  404f6b:	jne    0x404f84
  404f6d:	push   0x1f
  404f6f:	call   0x40563a
  404f74:	pop    ecx
  404f75:	jmp    0x404fb3
  404f77:	push   0x3e8
  404f7c:	call   DWORD PTR ds:0x408104
  404f82:	jmp    0x404f4e
  404f84:	cmp    DWORD PTR ds:0x4075c8,0x0
  404f8b:	jne    0x404fad
  404f8d:	mov    DWORD PTR ds:0x4075c8,ebx
  404f93:	push   0x401024
  404f98:	push   0x401018
  404f9d:	call   0x405104
  404fa2:	pop    ecx
  404fa3:	pop    ecx
  404fa4:	test   eax,eax
  404fa6:	je     0x404fb3
  404fa8:	jmp    0x4050ed
  404fad:	mov    DWORD PTR ds:0x4071a4,ebx
  404fb3:	cmp    DWORD PTR ds:0x4075c8,ebx
  404fb9:	jne    0x404fd6
  404fbb:	push   0x401014
  404fc0:	push   0x401000
  404fc5:	call   0x405878
  404fca:	pop    ecx
  404fcb:	pop    ecx
  404fcc:	mov    DWORD PTR ds:0x4075c8,0x2
  404fd6:	test   esi,esi
  404fd8:	jne    0x404fe3
  404fda:	xor    eax,eax
  404fdc:	mov    ecx,0x4075c4
  404fe1:	xchg   DWORD PTR [ecx],eax
  404fe3:	cmp    DWORD PTR ds:0x4075d4,0x0
  404fea:	je     0x405011
  404fec:	push   0x4075d4
  404ff1:	call   0x4056b0
  404ff6:	pop    ecx
  404ff7:	test   eax,eax
  404ff9:	je     0x405011
  404ffb:	push   0x0
  404ffd:	push   0x2
  404fff:	push   0x0
  405001:	mov    esi,DWORD PTR ds:0x4075d4
  405007:	mov    ecx,esi
  405009:	call   DWORD PTR ds:0x4081d8
  40500f:	call   esi
  405011:	mov    eax,ds:0x40814c
  405016:	mov    ecx,DWORD PTR [eax]
  405018:	test   ecx,ecx
  40501a:	je     0x4050ed
  405020:	mov    DWORD PTR [ebp-0x20],ecx
  405023:	push   0x20
  405025:	pop    esi
  405026:	mov    edx,DWORD PTR [ebp-0x24]
  405029:	movzx  eax,WORD PTR [ecx]
  40502c:	cmp    ax,si
  40502f:	ja     0x405081
  405031:	test   ax,ax
  405034:	je     0x40503a
  405036:	test   edx,edx
  405038:	jne    0x405081
  40503a:	movzx  eax,WORD PTR [ecx]
  40503d:	test   ax,ax
  405040:	je     0x40504f
  405042:	cmp    ax,si
  405045:	ja     0x40504f
  405047:	add    ecx,0x2
  40504a:	mov    DWORD PTR [ebp-0x20],ecx
  40504d:	jmp    0x40503a
  40504f:	test   BYTE PTR [ebp-0x40],0x1
  405053:	je     0x40505b
  405055:	movzx  eax,WORD PTR [ebp-0x3c]
  405059:	jmp    0x40505e
  40505b:	push   0xa
  40505d:	pop    eax
  40505e:	push   eax
  40505f:	push   ecx
  405060:	push   0x0
  405062:	push   0x400000
  405067:	call   0x404201
  40506c:	mov    ds:0x4071a0,eax
  405071:	cmp    DWORD PTR ds:0x4071b8,0x0
  405078:	jne    0x4050c9
  40507a:	push   eax
  40507b:	call   DWORD PTR ds:0x408174
  405081:	cmp    eax,0x22
  405084:	jne    0x405092
  405086:	xor    eax,eax
  405088:	test   edx,edx
  40508a:	sete   al
  40508d:	mov    edx,eax
  40508f:	mov    DWORD PTR [ebp-0x24],edx
  405092:	add    ecx,0x2
  405095:	mov    DWORD PTR [ebp-0x20],ecx
  405098:	jmp    0x405029
  40509a:	mov    ecx,DWORD PTR [ebp-0x14]
  40509d:	mov    eax,DWORD PTR [ecx]
  40509f:	mov    eax,DWORD PTR [eax]
  4050a1:	mov    DWORD PTR [ebp-0x28],eax
  4050a4:	push   ecx
  4050a5:	push   eax
  4050a6:	call   0x405584
  4050ab:	pop    ecx
  4050ac:	pop    ecx
  4050ad:	ret    
  4050ae:	mov    esp,DWORD PTR [ebp-0x18]
  4050b1:	mov    eax,DWORD PTR [ebp-0x28]
  4050b4:	mov    ds:0x4071a0,eax
  4050b9:	cmp    DWORD PTR ds:0x4071b8,0x0
  4050c0:	jne    0x4050c9
  4050c2:	push   eax
  4050c3:	call   DWORD PTR ds:0x4081cc
  4050c9:	cmp    DWORD PTR ds:0x4071a4,0x0
  4050d0:	jne    0x4050dd
  4050d2:	call   DWORD PTR ds:0x40816c
  4050d8:	mov    eax,ds:0x4071a0
  4050dd:	mov    DWORD PTR [ebp-0x4],0xfffffffe
  4050e4:	jmp    0x4050f9
  4050e6:	xor    eax,eax
  4050e8:	inc    eax
  4050e9:	ret    
  4050ea:	mov    esp,DWORD PTR [ebp-0x18]
  4050ed:	mov    DWORD PTR [ebp-0x4],0xfffffffe
  4050f4:	mov    eax,0xff
  4050f9:	call   0x4058cc
  4050fe:	ret    
  4050ff:	int3   
  405100:	int3   
  405101:	int3   
  405102:	int3   
  405103:	int3   
  405104:	mov    edi,edi
  405106:	push   ebp
  405107:	mov    ebp,esp
  405109:	push   ecx
  40510a:	mov    eax,ds:0x40700c
  40510f:	xor    eax,ebp
  405111:	mov    DWORD PTR [ebp-0x4],eax
  405114:	push   esi
  405115:	mov    esi,DWORD PTR [ebp+0x8]
  405118:	xor    eax,eax
  40511a:	cmp    esi,DWORD PTR [ebp+0xc]
  40511d:	jae    0x40513d
  40511f:	push   edi
  405120:	test   eax,eax
  405122:	jne    0x40513c
  405124:	mov    edi,DWORD PTR [esi]
  405126:	test   edi,edi
  405128:	je     0x405134
  40512a:	mov    ecx,edi
  40512c:	call   DWORD PTR ds:0x4081d8
  405132:	call   edi
  405134:	add    esi,0x4
  405137:	cmp    esi,DWORD PTR [ebp+0xc]
  40513a:	jb     0x405120
  40513c:	pop    edi
  40513d:	mov    ecx,DWORD PTR [ebp-0x4]
  405140:	xor    ecx,ebp
  405142:	pop    esi
  405143:	call   0x405170
  405148:	mov    esp,ebp
  40514a:	pop    ebp
  40514b:	ret    
  40514c:	int3   
  40514d:	int3   
  40514e:	int3   
  40514f:	int3   
  405150:	int3   
  405151:	int3   
  405152:	int3   
  405153:	int3   
  405154:	int3   
  405155:	int3   
  405156:	int3   
  405157:	int3   
  405158:	int3   
  405159:	int3   
  40515a:	int3   
  40515b:	int3   
  40515c:	int3   
  40515d:	int3   
  40515e:	int3   
  40515f:	int3   
  405160:	call   0x4057b8
  405165:	jmp    0x404f18
  40516a:	int3   
  40516b:	int3   
  40516c:	int3   
  40516d:	int3   
  40516e:	int3   
  40516f:	int3   
  405170:	cmp    ecx,DWORD PTR ds:0x40700c
  405176:	jne    0x40517b
  405178:	ret    0x0
  40517b:	jmp    0x4052bb
  405180:	int3   
  405181:	int3   
  405182:	int3   
  405183:	int3   
  405184:	int3   
  405185:	push   0x18
  405187:	push   0x406190
  40518c:	call   0x405884
  405191:	and    DWORD PTR [ebp-0x28],0x0
  405195:	mov    eax,ds:0x4075d0
  40519a:	mov    DWORD PTR [ebp-0x20],eax
  40519d:	cmp    eax,0xffffffff
  4051a0:	jne    0x4051b8
  4051a2:	push   DWORD PTR [ebp+0x8]
  4051a5:	mov    esi,DWORD PTR ds:0x40815c
  4051ab:	mov    ecx,esi
  4051ad:	call   DWORD PTR ds:0x4081d8
  4051b3:	call   esi
  4051b5:	pop    ecx
  4051b6:	jmp    0x40520c
  4051b8:	push   0x8
  4051ba:	call   0x405916
  4051bf:	pop    ecx
  4051c0:	and    DWORD PTR [ebp-0x4],0x0
  4051c4:	mov    eax,ds:0x4075d0
  4051c9:	mov    DWORD PTR [ebp-0x20],eax
  4051cc:	mov    eax,ds:0x4075cc
  4051d1:	mov    DWORD PTR [ebp-0x24],eax
  4051d4:	lea    eax,[ebp-0x24]
  4051d7:	push   eax
  4051d8:	lea    eax,[ebp-0x20]
  4051db:	push   eax
  4051dc:	push   DWORD PTR [ebp+0x8]
  4051df:	call   0x40592e
  4051e4:	add    esp,0xc
  4051e7:	mov    esi,eax
  4051e9:	mov    DWORD PTR [ebp-0x28],esi
  4051ec:	mov    ecx,DWORD PTR [ebp-0x20]
  4051ef:	mov    DWORD PTR ds:0x4075d0,ecx
  4051f5:	mov    ecx,DWORD PTR [ebp-0x24]
  4051f8:	mov    DWORD PTR ds:0x4075cc,ecx
  4051fe:	mov    DWORD PTR [ebp-0x4],0xfffffffe
  405205:	call   0x405215
  40520a:	mov    eax,esi
  40520c:	call   0x4058cc
  405211:	ret    
  405212:	mov    esi,DWORD PTR [ebp-0x28]
  405215:	push   0x8
  405217:	call   0x405922
  40521c:	pop    ecx
  40521d:	ret    
  40521e:	int3   
  40521f:	int3   
  405220:	int3   
  405221:	int3   
  405222:	int3   
  405223:	mov    edi,edi
  405225:	push   ebp
  405226:	mov    ebp,esp
  405228:	push   DWORD PTR [ebp+0x8]
  40522b:	call   0x405185
  405230:	neg    eax
  405232:	pop    ecx
  405233:	sbb    eax,eax
  405235:	neg    eax
  405237:	dec    eax
  405238:	pop    ebp
  405239:	ret    
  40523a:	int3   
  40523b:	int3   
  40523c:	int3   
  40523d:	int3   
  40523e:	int3   
  40523f:	int3   
  405240:	mov    edi,edi
  405242:	push   ebp
  405243:	mov    ebp,esp
  405245:	mov    ecx,DWORD PTR [ebp+0xc]
  405248:	test   ecx,ecx
  40524a:	je     0x405276
  40524c:	push   0xffffffe0
  40524e:	xor    edx,edx
  405250:	pop    eax
  405251:	div    ecx
  405253:	cmp    eax,DWORD PTR [ebp+0x10]
  405256:	jae    0x405276
  405258:	call   0x40593a
  40525d:	mov    DWORD PTR [eax],0xc
  405263:	xor    eax,eax
  405265:	push   eax
  405266:	push   eax
  405267:	push   eax
  405268:	push   eax
  405269:	push   eax
  40526a:	call   0x405945
  40526f:	add    esp,0x14
  405272:	xor    eax,eax
  405274:	pop    ebp
  405275:	ret    
  405276:	imul   ecx,DWORD PTR [ebp+0x10]
  40527a:	push   ecx
  40527b:	push   DWORD PTR [ebp+0x8]
  40527e:	call   0x4059fc
  405283:	pop    ecx
  405284:	pop    ecx
  405285:	pop    ebp
  405286:	ret    
  405287:	int3   
  405288:	int3   
  405289:	int3   
  40528a:	int3   
  40528b:	int3   
  40528c:	mov    edi,edi
  40528e:	push   ebp
  40528f:	mov    ebp,esp
  405291:	push   0x0
  405293:	call   DWORD PTR ds:0x408044
  405299:	push   DWORD PTR [ebp+0x8]
  40529c:	call   DWORD PTR ds:0x408054
  4052a2:	push   0xc0000409
  4052a7:	call   DWORD PTR ds:0x408098
  4052ad:	push   eax
  4052ae:	call   DWORD PTR ds:0x40809c
  4052b4:	pop    ebp
  4052b5:	ret    
  4052b6:	int3   
  4052b7:	int3   
  4052b8:	int3   
  4052b9:	int3   
  4052ba:	int3   
  4052bb:	mov    edi,edi
  4052bd:	push   ebp
  4052be:	mov    ebp,esp
  4052c0:	sub    esp,0x324
  4052c6:	mov    ds:0x4072c0,eax
  4052cb:	mov    DWORD PTR ds:0x4072bc,ecx
  4052d1:	mov    DWORD PTR ds:0x4072b8,edx
  4052d7:	mov    DWORD PTR ds:0x4072b4,ebx
  4052dd:	mov    DWORD PTR ds:0x4072b0,esi
  4052e3:	mov    DWORD PTR ds:0x4072ac,edi
  4052e9:	data16 mov WORD PTR ds:0x4072d8,ss
  4052f0:	data16 mov WORD PTR ds:0x4072cc,cs
  4052f7:	data16 mov WORD PTR ds:0x4072a8,ds
  4052fe:	data16 mov WORD PTR ds:0x4072a4,es
  405305:	data16 mov WORD PTR ds:0x4072a0,fs
  40530c:	data16 mov WORD PTR ds:0x40729c,gs
  405313:	pushf  
  405314:	pop    DWORD PTR ds:0x4072d0
  40531a:	mov    eax,DWORD PTR [ebp+0x0]
  40531d:	mov    ds:0x4072c4,eax
  405322:	mov    eax,DWORD PTR [ebp+0x4]
  405325:	mov    ds:0x4072c8,eax
  40532a:	lea    eax,[ebp+0x8]
  40532d:	mov    ds:0x4072d4,eax
  405332:	mov    eax,DWORD PTR [ebp-0x324]
  405338:	mov    DWORD PTR ds:0x407210,0x10001
  405342:	mov    eax,ds:0x4072c8
  405347:	mov    ds:0x4071cc,eax
  40534c:	mov    DWORD PTR ds:0x4071c0,0xc0000409
  405356:	mov    DWORD PTR ds:0x4071c4,0x1
  405360:	mov    DWORD PTR ds:0x4071d0,0x3
  40536a:	push   0x4
  40536c:	pop    eax
  40536d:	imul   eax,eax,0x0
  405370:	mov    DWORD PTR [eax+0x4071d4],0x2
  40537a:	push   0x4
  40537c:	pop    eax
  40537d:	shl    eax,0x0
  405380:	mov    ecx,DWORD PTR ds:0x40700c
  405386:	mov    DWORD PTR [eax+0x4071d4],ecx
  40538c:	push   0x4
  40538e:	pop    eax
  40538f:	shl    eax,1
  405391:	mov    ecx,DWORD PTR ds:0x407010
  405397:	mov    DWORD PTR [eax+0x4071d4],ecx
  40539d:	push   0x4
  40539f:	pop    eax
  4053a0:	imul   eax,eax,0x0
  4053a3:	mov    ecx,DWORD PTR ds:0x40700c
  4053a9:	mov    DWORD PTR [ebp+eax*1-0x8],ecx
  4053ad:	push   0x4
  4053af:	pop    eax
  4053b0:	shl    eax,0x0
  4053b3:	mov    ecx,DWORD PTR ds:0x407010
  4053b9:	mov    DWORD PTR [ebp+eax*1-0x8],ecx
  4053bd:	push   0x4010ec
  4053c2:	call   0x40528c
  4053c7:	mov    esp,ebp
  4053c9:	pop    ebp
  4053ca:	ret    
  4053cb:	int3   
  4053cc:	int3   
  4053cd:	int3   
  4053ce:	int3   
  4053cf:	int3   
  4053d0:	mov    edi,edi
  4053d2:	push   ebp
  4053d3:	mov    ebp,esp
  4053d5:	mov    ds:0x4072c0,eax
  4053da:	mov    DWORD PTR ds:0x4072bc,ecx
  4053e0:	mov    DWORD PTR ds:0x4072b8,edx
  4053e6:	mov    DWORD PTR ds:0x4072b4,ebx
  4053ec:	mov    DWORD PTR ds:0x4072b0,esi
  4053f2:	mov    DWORD PTR ds:0x4072ac,edi
  4053f8:	data16 mov WORD PTR ds:0x4072d8,ss
  4053ff:	data16 mov WORD PTR ds:0x4072cc,cs
  405406:	data16 mov WORD PTR ds:0x4072a8,ds
  40540d:	data16 mov WORD PTR ds:0x4072a4,es
  405414:	data16 mov WORD PTR ds:0x4072a0,fs
  40541b:	data16 mov WORD PTR ds:0x40729c,gs
  405422:	pushf  
  405423:	pop    DWORD PTR ds:0x4072d0
  405429:	mov    DWORD PTR ds:0x407210,0x10001
  405433:	mov    eax,DWORD PTR [ebp+0x4]
  405436:	mov    ds:0x4072c8,eax
  40543b:	lea    eax,[ebp+0x4]
  40543e:	add    eax,0x4
  405441:	mov    ds:0x4072d4,eax
  405446:	mov    eax,ds:0x4072c8
  40544b:	mov    ds:0x4071cc,eax
  405450:	mov    DWORD PTR ds:0x4071c0,0xc0000409
  40545a:	mov    DWORD PTR ds:0x4071c4,0x1
  405464:	mov    DWORD PTR ds:0x4071d0,0x1
  40546e:	push   0x4
  405470:	pop    eax
  405471:	imul   eax,eax,0x0
  405474:	mov    DWORD PTR [eax+0x4071d4],0x8
  40547e:	push   0x4010ec
  405483:	call   0x40528c
  405488:	pop    ebp
  405489:	ret    
  40548a:	int3   
  40548b:	int3   
  40548c:	int3   
  40548d:	int3   
  40548e:	int3   
  40548f:	int3   
  405490:	mov    edi,edi
  405492:	push   ebp
  405493:	mov    ebp,esp
  405495:	push   esi
  405496:	mov    esi,ecx
  405498:	call   DWORD PTR ds:0x4081c4
  40549e:	test   BYTE PTR [ebp+0x8],0x1
  4054a2:	je     0x4054ab
  4054a4:	push   esi
  4054a5:	call   0x404d30
  4054aa:	pop    ecx
  4054ab:	mov    eax,esi
  4054ad:	pop    esi
  4054ae:	pop    ebp
  4054af:	ret    0x4
  4054b2:	int3   
  4054b3:	int3   
  4054b4:	int3   
  4054b5:	int3   
  4054b6:	int3   
  4054b7:	int3   
  4054b8:	jmp    DWORD PTR ds:0x4081a8
  4054be:	int3   
  4054bf:	int3   
  4054c0:	int3   
  4054c1:	int3   
  4054c2:	int3   
  4054c3:	int3   
  4054c4:	jmp    DWORD PTR ds:0x4081a0
  4054ca:	int3   
  4054cb:	int3   
  4054cc:	int3   
  4054cd:	int3   
  4054ce:	int3   
  4054cf:	int3   
  4054d0:	jmp    DWORD PTR ds:0x40819c
  4054d6:	int3   
  4054d7:	int3   
  4054d8:	int3   
  4054d9:	int3   
  4054da:	int3   
  4054db:	int3   
  4054dc:	jmp    DWORD PTR ds:0x408198
  4054e2:	int3   
  4054e3:	int3   
  4054e4:	int3   
  4054e5:	int3   
  4054e6:	int3   
  4054e7:	int3   
  4054e8:	int3   
  4054e9:	int3   
  4054ea:	int3   
  4054eb:	int3   
  4054ec:	int3   
  4054ed:	int3   
  4054ee:	int3   
  4054ef:	int3   
  4054f0:	jmp    DWORD PTR ds:0x408194
  4054f6:	int3   
  4054f7:	int3   
  4054f8:	int3   
  4054f9:	int3   
  4054fa:	int3   
  4054fb:	int3   
  4054fc:	jmp    DWORD PTR ds:0x408190
  405502:	int3   
  405503:	int3   
  405504:	int3   
  405505:	int3   
  405506:	int3   
  405507:	int3   
  405508:	jmp    DWORD PTR ds:0x40818c
  40550e:	int3   
  40550f:	int3   
  405510:	int3   
  405511:	int3   
  405512:	int3   
  405513:	int3   
  405514:	int3   
  405515:	int3   
  405516:	int3   
  405517:	int3   
  405518:	int3   
  405519:	int3   
  40551a:	int3   
  40551b:	int3   
  40551c:	int3   
  40551d:	int3   
  40551e:	int3   
  40551f:	int3   
  405520:	mov    edi,edi
  405522:	push   ebp
  405523:	mov    ebp,esp
  405525:	mov    eax,DWORD PTR [ebp+0x8]
  405528:	mov    eax,DWORD PTR [eax]
  40552a:	cmp    DWORD PTR [eax],0xe06d7363
  405530:	jne    0x40555d
  405532:	cmp    DWORD PTR [eax+0x10],0x3
  405536:	jne    0x40555d
  405538:	mov    eax,DWORD PTR [eax+0x14]
  40553b:	cmp    eax,0x19930520
  405540:	je     0x405557
  405542:	cmp    eax,0x19930521
  405547:	je     0x405557
  405549:	cmp    eax,0x19930522
  40554e:	je     0x405557
  405550:	cmp    eax,0x1994000
  405555:	jne    0x40555d
  405557:	call   DWORD PTR ds:0x40817c
  40555d:	xor    eax,eax
  40555f:	pop    ebp
  405560:	ret    0x4
  405563:	int3   
  405564:	int3   
  405565:	int3   
  405566:	int3   
  405567:	int3   
  405568:	int3   
  405569:	int3   
  40556a:	int3   
  40556b:	int3   
  40556c:	int3   
  40556d:	int3   
  40556e:	int3   
  40556f:	int3   
  405570:	push   0x405520
  405575:	call   DWORD PTR ds:0x408044
  40557b:	xor    eax,eax
  40557d:	ret    
  40557e:	int3   
  40557f:	int3   
  405580:	int3   
  405581:	int3   
  405582:	int3   
  405583:	int3   
  405584:	jmp    DWORD PTR ds:0x408188
  40558a:	int3   
  40558b:	int3   
  40558c:	int3   
  40558d:	int3   
  40558e:	int3   
  40558f:	push   0xc
  405591:	push   0x4061b0
  405596:	call   0x405a08
  40559b:	xor    ecx,ecx
  40559d:	mov    eax,DWORD PTR [ebp+0x8]
  4055a0:	test   eax,eax
  4055a2:	je     0x4055ef
  4055a4:	cmp    eax,0xffffffff
  4055a7:	je     0x4055ef
  4055a9:	mov    DWORD PTR [ebp-0x4],ecx
  4055ac:	mov    edx,0x5a4d
  4055b1:	cmp    WORD PTR [eax],dx
  4055b4:	jne    0x4055e8
  4055b6:	mov    edx,DWORD PTR [eax+0x3c]
  4055b9:	test   edx,edx
  4055bb:	js     0x4055e8
  4055bd:	cmp    edx,0x10000000
  4055c3:	jae    0x4055e8
  4055c5:	add    eax,edx
  4055c7:	mov    DWORD PTR [ebp-0x1c],eax
  4055ca:	mov    ecx,DWORD PTR [eax]
  4055cc:	sub    ecx,0x4550
  4055d2:	neg    ecx
  4055d4:	sbb    ecx,ecx
  4055d6:	not    ecx
  4055d8:	and    ecx,eax
  4055da:	jmp    0x4055e5
  4055dc:	xor    eax,eax
  4055de:	inc    eax
  4055df:	ret    
  4055e0:	mov    esp,DWORD PTR [ebp-0x18]
  4055e3:	xor    ecx,ecx
  4055e5:	mov    DWORD PTR [ebp-0x1c],ecx
  4055e8:	mov    DWORD PTR [ebp-0x4],0xfffffffe
  4055ef:	mov    eax,ecx
  4055f1:	call   0x405a4d
  4055f6:	ret    0x4
  4055f9:	int3   
  4055fa:	int3   
  4055fb:	int3   
  4055fc:	int3   
  4055fd:	int3   
  4055fe:	mov    edi,edi
  405600:	push   ebp
  405601:	mov    ebp,esp
  405603:	push   0x0
  405605:	call   DWORD PTR ds:0x408080
  40560b:	test   eax,eax
  40560d:	je     0x40562f
  40560f:	push   eax
  405610:	call   0x40558f
  405615:	test   eax,eax
  405617:	je     0x40562f
  405619:	movzx  ecx,WORD PTR [eax+0x5c]
  40561d:	push   0x2
  40561f:	pop    eax
  405620:	cmp    cx,ax
  405623:	je     0x405632
  405625:	cmp    ecx,0x3
  405628:	jne    0x40562f
  40562a:	xor    eax,eax
  40562c:	inc    eax
  40562d:	pop    ebp
  40562e:	ret    
  40562f:	mov    eax,DWORD PTR [ebp+0x8]
  405632:	pop    ebp
  405633:	ret    
  405634:	int3   
  405635:	int3   
  405636:	int3   
  405637:	int3   
  405638:	int3   
  405639:	int3   
  40563a:	jmp    DWORD PTR ds:0x408180
  405640:	int3   
  405641:	int3   
  405642:	int3   
  405643:	int3   
  405644:	int3   
  405645:	int3   
  405646:	int3   
  405647:	int3   
  405648:	int3   
  405649:	int3   
  40564a:	int3   
  40564b:	int3   
  40564c:	int3   
  40564d:	int3   
  40564e:	int3   
  40564f:	int3   
  405650:	xor    eax,eax
  405652:	ret    
  405653:	int3   
  405654:	int3   
  405655:	int3   
  405656:	int3   
  405657:	int3   
  405658:	int3   
  405659:	int3   
  40565a:	int3   
  40565b:	int3   
  40565c:	int3   
  40565d:	int3   
  40565e:	int3   
  40565f:	int3   
  405660:	mov    edi,edi
  405662:	push   ebp
  405663:	mov    ebp,esp
  405665:	mov    eax,DWORD PTR [ebp+0x8]
  405668:	xor    edx,edx
  40566a:	push   ebx
  40566b:	push   esi
  40566c:	push   edi
  40566d:	mov    ecx,DWORD PTR [eax+0x3c]
  405670:	add    ecx,eax
  405672:	movzx  eax,WORD PTR [ecx+0x14]
  405676:	movzx  ebx,WORD PTR [ecx+0x6]
  40567a:	add    eax,0x18
  40567d:	add    eax,ecx
  40567f:	test   ebx,ebx
  405681:	je     0x40569e
  405683:	mov    edi,DWORD PTR [ebp+0xc]
  405686:	mov    esi,DWORD PTR [eax+0xc]
  405689:	cmp    edi,esi
  40568b:	jb     0x405696
  40568d:	mov    ecx,DWORD PTR [eax+0x8]
  405690:	add    ecx,esi
  405692:	cmp    edi,ecx
  405694:	jb     0x4056a0
  405696:	inc    edx
  405697:	add    eax,0x28
  40569a:	cmp    edx,ebx
  40569c:	jb     0x405686
  40569e:	xor    eax,eax
  4056a0:	pop    edi
  4056a1:	pop    esi
  4056a2:	pop    ebx
  4056a3:	pop    ebp
  4056a4:	ret    
  4056a5:	int3   
  4056a6:	int3   
  4056a7:	int3   
  4056a8:	int3   
  4056a9:	int3   
  4056aa:	int3   
  4056ab:	int3   
  4056ac:	int3   
  4056ad:	int3   
  4056ae:	int3   
  4056af:	int3   
  4056b0:	mov    edi,edi
  4056b2:	push   ebp
  4056b3:	mov    ebp,esp
  4056b5:	push   0xfffffffe
  4056b7:	push   0x4061d0
  4056bc:	push   0x4058e0
  4056c1:	mov    eax,fs:0x0
  4056c7:	push   eax
  4056c8:	sub    esp,0x8
  4056cb:	push   ebx
  4056cc:	push   esi
  4056cd:	push   edi
  4056ce:	mov    eax,ds:0x40700c
  4056d3:	xor    DWORD PTR [ebp-0x8],eax
  4056d6:	xor    eax,ebp
  4056d8:	push   eax
  4056d9:	lea    eax,[ebp-0x10]
  4056dc:	mov    fs:0x0,eax
  4056e2:	mov    DWORD PTR [ebp-0x18],esp
  4056e5:	mov    DWORD PTR [ebp-0x4],0x0
  4056ec:	push   0x400000
  4056f1:	call   0x405780
  4056f6:	add    esp,0x4
  4056f9:	test   eax,eax
  4056fb:	je     0x405751
  4056fd:	mov    eax,DWORD PTR [ebp+0x8]
  405700:	sub    eax,0x400000
  405705:	push   eax
  405706:	push   0x400000
  40570b:	call   0x405660
  405710:	add    esp,0x8
  405713:	test   eax,eax
  405715:	je     0x405751
  405717:	mov    eax,DWORD PTR [eax+0x24]
  40571a:	shr    eax,0x1f
  40571d:	not    eax
  40571f:	and    eax,0x1
  405722:	mov    DWORD PTR [ebp-0x4],0xfffffffe
  405729:	mov    ecx,DWORD PTR [ebp-0x10]
  40572c:	mov    DWORD PTR fs:0x0,ecx
  405733:	pop    ecx
  405734:	pop    edi
  405735:	pop    esi
  405736:	pop    ebx
  405737:	mov    esp,ebp
  405739:	pop    ebp
  40573a:	ret    
  40573b:	mov    eax,DWORD PTR [ebp-0x14]
  40573e:	mov    eax,DWORD PTR [eax]
  405740:	xor    ecx,ecx
  405742:	cmp    DWORD PTR [eax],0xc0000005
  405748:	sete   cl
  40574b:	mov    eax,ecx
  40574d:	ret    
  40574e:	mov    esp,DWORD PTR [ebp-0x18]
  405751:	mov    DWORD PTR [ebp-0x4],0xfffffffe
  405758:	xor    eax,eax
  40575a:	mov    ecx,DWORD PTR [ebp-0x10]
  40575d:	mov    DWORD PTR fs:0x0,ecx
  405764:	pop    ecx
  405765:	pop    edi
  405766:	pop    esi
  405767:	pop    ebx
  405768:	mov    esp,ebp
  40576a:	pop    ebp
  40576b:	ret    
  40576c:	int3   
  40576d:	int3   
  40576e:	int3   
  40576f:	int3   
  405770:	int3   
  405771:	int3   
  405772:	int3   
  405773:	int3   
  405774:	int3   
  405775:	int3   
  405776:	int3   
  405777:	int3   
  405778:	int3   
  405779:	int3   
  40577a:	int3   
  40577b:	int3   
  40577c:	int3   
  40577d:	int3   
  40577e:	int3   
  40577f:	int3   
  405780:	mov    edi,edi
  405782:	push   ebp
  405783:	mov    ebp,esp
  405785:	mov    eax,DWORD PTR [ebp+0x8]
  405788:	mov    ecx,0x5a4d
  40578d:	cmp    WORD PTR [eax],cx
  405790:	je     0x405796
  405792:	xor    eax,eax
  405794:	pop    ebp
  405795:	ret    
  405796:	mov    ecx,DWORD PTR [eax+0x3c]
  405799:	add    ecx,eax
  40579b:	xor    eax,eax
  40579d:	cmp    DWORD PTR [ecx],0x4550
  4057a3:	jne    0x4057b1
  4057a5:	mov    edx,0x10b
  4057aa:	cmp    WORD PTR [ecx+0x18],dx
  4057ae:	sete   al
  4057b1:	pop    ebp
  4057b2:	ret    
  4057b3:	int3   
  4057b4:	int3   
  4057b5:	int3   
  4057b6:	int3   
  4057b7:	int3   
  4057b8:	mov    edi,edi
  4057ba:	push   ebp
  4057bb:	mov    ebp,esp
  4057bd:	sub    esp,0x14
  4057c0:	and    DWORD PTR [ebp-0xc],0x0
  4057c4:	and    DWORD PTR [ebp-0x8],0x0
  4057c8:	mov    eax,ds:0x40700c
  4057cd:	push   esi
  4057ce:	push   edi
  4057cf:	mov    edi,0xbb40e64e
  4057d4:	mov    esi,0xffff0000
  4057d9:	cmp    eax,edi
  4057db:	je     0x4057ea
  4057dd:	test   esi,eax
  4057df:	je     0x4057ea
  4057e1:	not    eax
  4057e3:	mov    ds:0x407010,eax
  4057e8:	jmp    0x405854
  4057ea:	lea    eax,[ebp-0xc]
  4057ed:	push   eax
  4057ee:	call   DWORD PTR ds:0x408120
  4057f4:	mov    eax,DWORD PTR [ebp-0x8]
  4057f7:	xor    eax,DWORD PTR [ebp-0xc]
  4057fa:	mov    DWORD PTR [ebp-0x4],eax
  4057fd:	call   DWORD PTR ds:0x4080a4
  405803:	xor    DWORD PTR [ebp-0x4],eax
  405806:	call   DWORD PTR ds:0x4080a0
  40580c:	xor    DWORD PTR [ebp-0x4],eax
  40580f:	call   DWORD PTR ds:0x40811c
  405815:	xor    eax,DWORD PTR [ebp-0x4]
  405818:	lea    ecx,[ebp-0x4]
  40581b:	xor    eax,ecx
  40581d:	mov    DWORD PTR [ebp-0x4],eax
  405820:	lea    eax,[ebp-0x14]
  405823:	push   eax
  405824:	call   DWORD PTR ds:0x4080ac
  40582a:	mov    eax,DWORD PTR [ebp-0x10]
  40582d:	xor    eax,DWORD PTR [ebp-0x14]
  405830:	mov    ecx,DWORD PTR [ebp-0x4]
  405833:	xor    ecx,eax
  405835:	cmp    ecx,edi
  405837:	je     0x405841
  405839:	test   DWORD PTR ds:0x40700c,esi
  40583f:	jne    0x405846
  405841:	mov    ecx,0xbb40e64f
  405846:	mov    DWORD PTR ds:0x40700c,ecx
  40584c:	not    ecx
  40584e:	mov    DWORD PTR ds:0x407010,ecx
  405854:	pop    edi
  405855:	pop    esi
  405856:	mov    esp,ebp
  405858:	pop    ebp
  405859:	ret    
  40585a:	int3   
  40585b:	int3   
  40585c:	int3   
  40585d:	int3   
  40585e:	int3   
  40585f:	push   0x30000
  405864:	push   0x10000
  405869:	call   DWORD PTR ds:0x408158
  40586f:	pop    ecx
  405870:	pop    ecx
  405871:	ret    
  405872:	int3   
  405873:	int3   
  405874:	int3   
  405875:	int3   
  405876:	int3   
  405877:	int3   
  405878:	jmp    DWORD PTR ds:0x408168
  40587e:	int3   
  40587f:	int3   
  405880:	int3   
  405881:	int3   
  405882:	int3   
  405883:	int3   
  405884:	push   0x4058e0
  405889:	push   DWORD PTR fs:0x0
  405890:	mov    eax,DWORD PTR [esp+0x10]
  405894:	mov    DWORD PTR [esp+0x10],ebp
  405898:	lea    ebp,[esp+0x10]
  40589c:	sub    esp,eax
  40589e:	push   ebx
  40589f:	push   esi
  4058a0:	push   edi
  4058a1:	mov    eax,ds:0x40700c
  4058a6:	xor    DWORD PTR [ebp-0x4],eax
  4058a9:	xor    eax,ebp
  4058ab:	mov    DWORD PTR [ebp-0x1c],eax
  4058ae:	push   eax
  4058af:	mov    DWORD PTR [ebp-0x18],esp
  4058b2:	push   DWORD PTR [ebp-0x8]
  4058b5:	mov    eax,DWORD PTR [ebp-0x4]
  4058b8:	mov    DWORD PTR [ebp-0x4],0xfffffffe
  4058bf:	mov    DWORD PTR [ebp-0x8],eax
  4058c2:	lea    eax,[ebp-0x10]
  4058c5:	mov    fs:0x0,eax
  4058cb:	ret    
  4058cc:	mov    ecx,DWORD PTR [ebp-0x1c]
  4058cf:	xor    ecx,ebp
  4058d1:	call   0x405170
  4058d6:	jmp    0x405a4d
  4058db:	int3   
  4058dc:	int3   
  4058dd:	int3   
  4058de:	int3   
  4058df:	int3   
  4058e0:	mov    edi,edi
  4058e2:	push   ebp
  4058e3:	mov    ebp,esp
  4058e5:	push   DWORD PTR [ebp+0x14]
  4058e8:	push   DWORD PTR [ebp+0x10]
  4058eb:	push   DWORD PTR [ebp+0xc]
  4058ee:	push   DWORD PTR [ebp+0x8]
  4058f1:	push   0x405170
  4058f6:	push   0x40700c
  4058fb:	call   0x405a66
  405900:	add    esp,0x18
  405903:	pop    ebp
  405904:	ret    
  405905:	int3   
  405906:	int3   
  405907:	int3   
  405908:	int3   
  405909:	int3   
  40590a:	int3   
  40590b:	int3   
  40590c:	int3   
  40590d:	int3   
  40590e:	int3   
  40590f:	int3   
  405910:	ret    
  405911:	int3   
  405912:	int3   
  405913:	int3   
  405914:	int3   
  405915:	int3   
  405916:	jmp    DWORD PTR ds:0x4081b8
  40591c:	int3   
  40591d:	int3   
  40591e:	int3   
  40591f:	int3   
  405920:	int3   
  405921:	int3   
  405922:	jmp    DWORD PTR ds:0x4081c8
  405928:	int3   
  405929:	int3   
  40592a:	int3   
  40592b:	int3   
  40592c:	int3   
  40592d:	int3   
  40592e:	jmp    DWORD PTR ds:0x408170
  405934:	int3   
  405935:	int3   
  405936:	int3   
  405937:	int3   
  405938:	int3   
  405939:	int3   
  40593a:	jmp    DWORD PTR ds:0x4081a4
  405940:	int3   
  405941:	int3   
  405942:	int3   
  405943:	int3   
  405944:	int3   
  405945:	jmp    0x40594f
  40594a:	int3   
  40594b:	int3   
  40594c:	int3   
  40594d:	int3   
  40594e:	int3   
  40594f:	mov    edi,edi
  405951:	push   ebp
  405952:	mov    ebp,esp
  405954:	sub    esp,0x2d0
  40595a:	mov    eax,ds:0x40700c
  40595f:	xor    eax,ebp
  405961:	mov    DWORD PTR [ebp-0x4],eax
  405964:	mov    DWORD PTR [ebp-0x220],eax
  40596a:	mov    DWORD PTR [ebp-0x224],ecx
  405970:	mov    DWORD PTR [ebp-0x228],edx
  405976:	mov    DWORD PTR [ebp-0x22c],ebx
  40597c:	mov    DWORD PTR [ebp-0x230],esi
  405982:	mov    DWORD PTR [ebp-0x234],edi
  405988:	data16 mov WORD PTR [ebp-0x208],ss
  40598f:	data16 mov WORD PTR [ebp-0x214],cs
  405996:	data16 mov WORD PTR [ebp-0x238],ds
  40599d:	data16 mov WORD PTR [ebp-0x23c],es
  4059a4:	data16 mov WORD PTR [ebp-0x240],fs
  4059ab:	data16 mov WORD PTR [ebp-0x244],gs
  4059b2:	pushf  
  4059b3:	pop    DWORD PTR [ebp-0x210]
  4059b9:	mov    eax,DWORD PTR [ebp+0x4]
  4059bc:	mov    DWORD PTR [ebp-0x218],eax
  4059c2:	lea    eax,[ebp+0x4]
  4059c5:	mov    DWORD PTR [ebp-0x2d0],0x10001
  4059cf:	mov    DWORD PTR [ebp-0x20c],eax
  4059d5:	mov    eax,DWORD PTR [eax-0x4]
  4059d8:	push   0x4010f8
  4059dd:	mov    DWORD PTR [ebp-0x21c],eax
  4059e3:	call   DWORD PTR ds:0x40803c
  4059e9:	mov    ecx,DWORD PTR [ebp-0x4]
  4059ec:	xor    ecx,ebp
  4059ee:	call   0x405170
  4059f3:	mov    esp,ebp
  4059f5:	pop    ebp
  4059f6:	ret    
  4059f7:	int3   
  4059f8:	int3   
  4059f9:	int3   
  4059fa:	int3   
  4059fb:	int3   
  4059fc:	jmp    DWORD PTR ds:0x4081c0
  405a02:	int3   
  405a03:	int3   
  405a04:	int3   
  405a05:	int3   
  405a06:	int3   
  405a07:	int3   
  405a08:	push   0x4058e0
  405a0d:	push   DWORD PTR fs:0x0
  405a14:	mov    eax,DWORD PTR [esp+0x10]
  405a18:	mov    DWORD PTR [esp+0x10],ebp
  405a1c:	lea    ebp,[esp+0x10]
  405a20:	sub    esp,eax
  405a22:	push   ebx
  405a23:	push   esi
  405a24:	push   edi
  405a25:	mov    eax,ds:0x40700c
  405a2a:	xor    DWORD PTR [ebp-0x4],eax
  405a2d:	xor    eax,ebp
  405a2f:	push   eax
  405a30:	mov    DWORD PTR [ebp-0x18],esp
  405a33:	push   DWORD PTR [ebp-0x8]
  405a36:	mov    eax,DWORD PTR [ebp-0x4]
  405a39:	mov    DWORD PTR [ebp-0x4],0xfffffffe
  405a40:	mov    DWORD PTR [ebp-0x8],eax
  405a43:	lea    eax,[ebp-0x10]
  405a46:	mov    fs:0x0,eax
  405a4c:	ret    
  405a4d:	mov    ecx,DWORD PTR [ebp-0x10]
  405a50:	mov    DWORD PTR fs:0x0,ecx
  405a57:	pop    ecx
  405a58:	pop    edi
  405a59:	pop    edi
  405a5a:	pop    esi
  405a5b:	pop    ebx
  405a5c:	mov    esp,ebp
  405a5e:	pop    ebp
  405a5f:	push   ecx
  405a60:	ret    
  405a61:	int3   
  405a62:	int3   
  405a63:	int3   
  405a64:	int3   
  405a65:	int3   
  405a66:	jmp    DWORD PTR ds:0x408164
  405a6c:	int3   
  405a6d:	int3   
  405a6e:	int3   
  405a6f:	int3   
  405a70:	int3   
  405a71:	mov    ecx,DWORD PTR [ebp-0xc]
  405a74:	mov    DWORD PTR fs:0x0,ecx
  405a7b:	pop    ecx
  405a7c:	pop    edi
  405a7d:	pop    edi
  405a7e:	pop    esi
  405a7f:	pop    ebx
  405a80:	mov    esp,ebp
  405a82:	pop    ebp
  405a83:	push   ecx
  405a84:	ret    
  405a85:	int3   
  405a86:	int3   
  405a87:	int3   
  405a88:	int3   
  405a89:	int3   
  405a8a:	mov    ecx,DWORD PTR [ebp-0x10]
  405a8d:	xor    ecx,ebp
  405a8f:	call   0x405170
  405a94:	jmp    0x405a71
  405a99:	int3   
  405a9a:	int3   
  405a9b:	int3   
  405a9c:	int3   
  405a9d:	int3   
  405a9e:	mov    ecx,DWORD PTR [ebp-0x14]
  405aa1:	xor    ecx,ebp
  405aa3:	call   0x405170
  405aa8:	jmp    0x405a71
  405aad:	int3   
  405aae:	int3   
  405aaf:	int3   
  405ab0:	int3   
  405ab1:	int3   
  405ab2:	push   eax
  405ab3:	push   DWORD PTR fs:0x0
  405aba:	lea    eax,[esp+0xc]
  405abe:	sub    esp,DWORD PTR [esp+0xc]
  405ac2:	push   ebx
  405ac3:	push   esi
  405ac4:	push   edi
  405ac5:	mov    DWORD PTR [eax],ebp
  405ac7:	mov    ebp,eax
  405ac9:	mov    eax,ds:0x40700c
  405ace:	xor    eax,ebp
  405ad0:	push   eax
  405ad1:	push   DWORD PTR [ebp-0x4]
  405ad4:	mov    DWORD PTR [ebp-0x4],0xffffffff
  405adb:	lea    eax,[ebp-0xc]
  405ade:	mov    fs:0x0,eax
  405ae4:	ret    
  405ae5:	int3   
  405ae6:	int3   
  405ae7:	int3   
  405ae8:	int3   
  405ae9:	int3   
  405aea:	push   eax
  405aeb:	push   DWORD PTR fs:0x0
  405af2:	lea    eax,[esp+0xc]
  405af6:	sub    esp,DWORD PTR [esp+0xc]
  405afa:	push   ebx
  405afb:	push   esi
  405afc:	push   edi
  405afd:	mov    DWORD PTR [eax],ebp
  405aff:	mov    ebp,eax
  405b01:	mov    eax,ds:0x40700c
  405b06:	xor    eax,ebp
  405b08:	push   eax
  405b09:	mov    DWORD PTR [ebp-0x10],eax
  405b0c:	push   DWORD PTR [ebp-0x4]
  405b0f:	mov    DWORD PTR [ebp-0x4],0xffffffff
  405b16:	lea    eax,[ebp-0xc]
  405b19:	mov    fs:0x0,eax
  405b1f:	ret    
  405b20:	int3   
  405b21:	int3   
  405b22:	int3   
  405b23:	int3   
  405b24:	int3   
  405b25:	push   eax
  405b26:	push   DWORD PTR fs:0x0
  405b2d:	lea    eax,[esp+0xc]
  405b31:	sub    esp,DWORD PTR [esp+0xc]
  405b35:	push   ebx
  405b36:	push   esi
  405b37:	push   edi
  405b38:	mov    DWORD PTR [eax],ebp
  405b3a:	mov    ebp,eax
  405b3c:	mov    eax,ds:0x40700c
  405b41:	xor    eax,ebp
  405b43:	push   eax
  405b44:	mov    DWORD PTR [ebp-0x10],esp
  405b47:	push   DWORD PTR [ebp-0x4]
  405b4a:	mov    DWORD PTR [ebp-0x4],0xffffffff
  405b51:	lea    eax,[ebp-0xc]
  405b54:	mov    fs:0x0,eax
  405b5a:	ret    
  405b5b:	int3   
  405b5c:	int3   
  405b5d:	int3   
  405b5e:	int3   
  405b5f:	int3   
  405b60:	push   eax
  405b61:	push   DWORD PTR fs:0x0
  405b68:	lea    eax,[esp+0xc]
  405b6c:	sub    esp,DWORD PTR [esp+0xc]
  405b70:	push   ebx
  405b71:	push   esi
  405b72:	push   edi
  405b73:	mov    DWORD PTR [eax],ebp
  405b75:	mov    ebp,eax
  405b77:	mov    eax,ds:0x40700c
  405b7c:	xor    eax,ebp
  405b7e:	push   eax
  405b7f:	mov    DWORD PTR [ebp-0x14],eax
  405b82:	mov    DWORD PTR [ebp-0x10],esp
  405b85:	push   DWORD PTR [ebp-0x4]
  405b88:	mov    DWORD PTR [ebp-0x4],0xffffffff
  405b8f:	lea    eax,[ebp-0xc]
  405b92:	mov    fs:0x0,eax
  405b98:	ret    
  405b99:	int3   
  405b9a:	int3   
  405b9b:	int3   
  405b9c:	int3   
  405b9d:	int3   
  405b9e:	jmp    DWORD PTR ds:0x4081d0
  405ba4:	int3   
  405ba5:	int3   
  405ba6:	int3   
  405ba7:	int3   
  405ba8:	int3   
  405ba9:	int3   
  405baa:	int3   
  405bab:	int3   
  405bac:	int3   
  405bad:	int3   
  405bae:	int3   
  405baf:	int3   
  405bb0:	push   ecx
  405bb1:	lea    ecx,[esp+0x4]
  405bb5:	sub    ecx,eax
  405bb7:	sbb    eax,eax
  405bb9:	not    eax
  405bbb:	and    ecx,eax
  405bbd:	mov    eax,esp
  405bbf:	and    eax,0xfffff000
  405bc4:	cmp    ecx,eax
  405bc6:	jb     0x405bd2
  405bc8:	mov    eax,ecx
  405bca:	pop    ecx
  405bcb:	xchg   esp,eax
  405bcc:	mov    eax,DWORD PTR [eax]
  405bce:	mov    DWORD PTR [esp],eax
  405bd1:	ret    
  405bd2:	sub    eax,0x1000
  405bd7:	test   DWORD PTR [eax],eax
  405bd9:	jmp    0x405bc4
  405bdb:	int3   
  405bdc:	int3   
  405bdd:	int3   
  405bde:	int3   
  405bdf:	int3   
  405be0:	mov    ecx,DWORD PTR [ebp-0x10]
  405be3:	jmp    0x404684
  405be8:	mov    edx,DWORD PTR [esp+0x8]
  405bec:	lea    eax,[edx+0xc]
  405bef:	mov    ecx,DWORD PTR [edx-0x14]
  405bf2:	xor    ecx,eax
  405bf4:	call   0x405170
  405bf9:	mov    eax,0x405e74
  405bfe:	jmp    0x405b9e
  405c03:	int3   
  405c04:	int3   
  405c05:	int3   
  405c06:	int3   
  405c07:	int3   
  405c08:	lea    ecx,[ebp-0x24]
  405c0b:	jmp    0x404732
  405c10:	lea    ecx,[ebp-0x20]
  405c13:	jmp    0x404732
  405c18:	mov    edx,DWORD PTR [esp+0x8]
  405c1c:	lea    eax,[edx+0xc]
  405c1f:	mov    ecx,DWORD PTR [edx-0x34]
  405c22:	xor    ecx,eax
  405c24:	call   0x405170
  405c29:	mov    eax,0x405ea0
  405c2e:	jmp    0x405b9e
  405c33:	int3   
  405c34:	int3   
  405c35:	int3   
  405c36:	int3   
  405c37:	int3   
  405c38:	mov    ecx,DWORD PTR [ebp-0x10]
  405c3b:	add    ecx,0x4
  405c3e:	jmp    0x402221
  405c43:	mov    ecx,DWORD PTR [ebp-0x10]
  405c46:	add    ecx,0x10
  405c49:	jmp    0x4025a6
  405c4e:	mov    ecx,DWORD PTR [ebp-0x10]
  405c51:	jmp    0x404684
  405c56:	mov    edx,DWORD PTR [esp+0x8]
  405c5a:	lea    eax,[edx+0xc]
  405c5d:	mov    ecx,DWORD PTR [edx-0x14]
  405c60:	xor    ecx,eax
  405c62:	call   0x405170
  405c67:	mov    eax,0x405f3c
  405c6c:	jmp    0x405b9e
  405c71:	int3   
  405c72:	int3   
  405c73:	int3   
  405c74:	int3   
  405c75:	int3   
  405c76:	lea    ecx,[ebp-0x10]
  405c79:	jmp    0x40461f
  405c7e:	mov    edx,DWORD PTR [esp+0x8]
  405c82:	lea    eax,[edx+0xc]
  405c85:	mov    ecx,DWORD PTR [edx-0x14]
  405c88:	xor    ecx,eax
  405c8a:	call   0x405170
  405c8f:	mov    eax,0x405f78
  405c94:	jmp    0x405b9e
  405c99:	int3   
  405c9a:	int3   
  405c9b:	int3   
  405c9c:	int3   
  405c9d:	int3   
  405c9e:	lea    ecx,[ebp-0x420]
  405ca4:	jmp    0x40461f
  405ca9:	lea    ecx,[ebp-0x418]
  405caf:	jmp    0x404749
  405cb4:	mov    edx,DWORD PTR [esp+0x8]
  405cb8:	lea    eax,[edx+0xc]
  405cbb:	mov    ecx,DWORD PTR [edx-0x434]
  405cc1:	xor    ecx,eax
  405cc3:	call   0x405170
  405cc8:	mov    ecx,DWORD PTR [edx-0x8]
  405ccb:	xor    ecx,eax
  405ccd:	call   0x405170
  405cd2:	mov    eax,0x405fa4
  405cd7:	jmp    0x405b9e
  405cdc:	int3   
  405cdd:	int3   
  405cde:	int3   
  405cdf:	int3   
  405ce0:	int3   
  405ce1:	lea    ecx,[ebp-0x2118]
  405ce7:	jmp    0x404749
  405cec:	lea    ecx,[ebp-0x2118]
  405cf2:	jmp    0x404749
  405cf7:	mov    edx,DWORD PTR [esp+0x8]
  405cfb:	lea    eax,[edx+0xc]
  405cfe:	mov    ecx,DWORD PTR [edx-0x213c]
  405d04:	xor    ecx,eax
  405d06:	call   0x405170
  405d0b:	mov    ecx,DWORD PTR [edx-0x8]
  405d0e:	xor    ecx,eax
  405d10:	call   0x405170
  405d15:	mov    eax,0x40600c
  405d1a:	jmp    0x405b9e
  405d1f:	int3   
  405d20:	int3   
  405d21:	int3   
  405d22:	int3   
  405d23:	int3   
  405d24:	lea    ecx,[ebp-0x5c]
  405d27:	jmp    0x402411
  405d2c:	lea    ecx,[ebp-0x68]
  405d2f:	jmp    0x40461f
  405d34:	mov    edx,DWORD PTR [esp+0x8]
  405d38:	lea    eax,[edx+0xc]
  405d3b:	mov    ecx,DWORD PTR [edx-0x6c]
  405d3e:	xor    ecx,eax
  405d40:	call   0x405170
  405d45:	mov    ecx,DWORD PTR [edx-0x4]
  405d48:	xor    ecx,eax
  405d4a:	call   0x405170
  405d4f:	mov    eax,0x4060a8
  405d54:	jmp    0x405b9e
  405d59:	int3   
  405d5a:	int3   
  405d5b:	int3   
  405d5c:	int3   
  405d5d:	int3   
  405d5e:	lea    ecx,[ebp-0x225c]
  405d64:	jmp    0x401fac
  405d69:	lea    ecx,[ebp-0x223c]
  405d6f:	jmp    0x401fac
  405d74:	mov    edx,DWORD PTR [esp+0x8]
  405d78:	lea    eax,[edx-0x2274]
  405d7e:	mov    ecx,DWORD PTR [edx-0x2278]
  405d84:	xor    ecx,eax
  405d86:	call   0x405170
  405d8b:	add    eax,0xc
  405d8e:	mov    ecx,DWORD PTR [edx-0x8]
  405d91:	xor    ecx,eax
  405d93:	call   0x405170
  405d98:	mov    eax,0x4060dc
  405d9d:	jmp    0x405b9e
  405da2:	int3   
  405da3:	int3   
  405da4:	int3   
  405da5:	int3   
  405da6:	int3   
  405da7:	int3   
  405da8:	int3   
  405da9:	int3   
  405daa:	int3   
  405dab:	int3   
  405dac:	int3   
  405dad:	int3   
  405dae:	int3   
  405daf:	int3   
  405db0:	mov    DWORD PTR ds:0x40751c,0x4014f8
  405dba:	mov    ecx,0x40751c
  405dbf:	jmp    0x401dc4
  405dc4:	int3   
  405dc5:	int3   
  405dc6:	int3   
  405dc7:	int3   
  405dc8:	int3   
  405dc9:	int3   
  405dca:	int3   
  405dcb:	int3   
  405dcc:	int3   
  405dcd:	int3   
  405dce:	int3   
  405dcf:	int3   
  405dd0:	push   0x407568
  405dd5:	call   DWORD PTR ds:0x408114
  405ddb:	jmp    0x404808
  405de0:	int3   
  405de1:	int3   
  405de2:	int3   
  405de3:	int3   
  405de4:	int3   
  405de5:	int3   
  405de6:	int3   
  405de7:	int3   
  405de8:	int3   
  405de9:	int3   
  405dea:	int3   
  405deb:	int3   
  405dec:	int3   
  405ded:	int3   
  405dee:	int3   
  405def:	int3   
  405df0:	mov    eax,ds:0x407020
  405df5:	test   eax,eax
  405df7:	je     0x405e36
  405df9:	cmp    eax,0x2c
  405dfc:	jne    0x405e36
  405dfe:	mov    eax,ds:0x407040
  405e03:	push   esi
  405e04:	xor    esi,esi
  405e06:	test   eax,eax
  405e08:	je     0x405e18
  405e0a:	push   eax
  405e0b:	call   DWORD PTR ds:0x4081b4
  405e11:	pop    ecx
  405e12:	mov    DWORD PTR ds:0x407040,esi
  405e18:	push   0x407024
  405e1d:	mov    DWORD PTR ds:0x407044,esi
  405e23:	mov    DWORD PTR ds:0x407048,esi
  405e29:	call   DWORD PTR ds:0x408114
  405e2f:	mov    DWORD PTR ds:0x407020,esi
  405e35:	pop    esi
  405e36:	jmp    0x404834
  405e3b:	int3   
  405e3c:	int3   
  405e3d:	int3   
  405e3e:	int3   
  405e3f:	int3   
  405e40:	mov    DWORD PTR ds:0x407190,0x4010e0
  405e4a:	mov    ecx,0x407190
  405e4f:	jmp    0x4054dc
  405e54:	int3   
  405e55:	int3   
  405e56:	int3   
  405e57:	int3   
  405e58:	(bad)  
  405e59:	(bad)  
  405e5a:	(bad)  
  405e5b:	inc    DWORD PTR [eax]
  405e5d:	add    BYTE PTR [eax],al
  405e5f:	add    ah,dl
  405e61:	(bad)  
  405e62:	(bad)  
  405e63:	inc    DWORD PTR [eax]
  405e65:	add    BYTE PTR [eax],al
  405e67:	add    dh,bh
  405e69:	(bad)  
  405e6a:	(bad)  
  405e6b:	jmp    DWORD PTR [ebp+0x1d]
  405e6e:	inc    eax
  405e6f:	add    BYTE PTR [eax+0x1d],bh
  405e72:	inc    eax
  405e73:	add    BYTE PTR [edx],ah
  405e75:	add    eax,0x11993
  405e7a:	add    BYTE PTR [eax],al
  405e7c:	cwde   
  405e7d:	pop    esi
  405e7e:	inc    eax
	...
  405e93:	add    BYTE PTR [ecx],al
  405e95:	add    BYTE PTR [eax],al
  405e97:	add    bh,bh
  405e99:	(bad)  
  405e9a:	(bad)  
  405e9b:	jmp    eax
  405e9d:	pop    ebx
  405e9e:	inc    eax
  405e9f:	add    BYTE PTR [edx],ah
  405ea1:	add    eax,0x61993
  405ea6:	add    BYTE PTR [eax],al
  405ea8:	les    ebx,FWORD PTR [esi+0x40]
  405eab:	add    BYTE PTR [edx],al
  405ead:	add    BYTE PTR [eax],al
  405eaf:	add    ah,dh
  405eb1:	pop    esi
  405eb2:	inc    eax
	...
  405ebf:	add    BYTE PTR [ecx],al
  405ec1:	add    BYTE PTR [eax],al
  405ec3:	add    bh,bh
  405ec5:	(bad)  
  405ec6:	(bad)  
  405ec7:	inc    DWORD PTR [eax]
  405ec9:	add    BYTE PTR [eax],al
  405ecb:	add    bh,bh
  405ecd:	(bad)  
  405ece:	(bad)  
  405ecf:	inc    DWORD PTR [eax]
  405ed1:	add    BYTE PTR [eax],al
  405ed3:	add    bh,bh
  405ed5:	(bad)  
  405ed6:	(bad)  
  405ed7:	dec    DWORD PTR [eax]
  405ed9:	pop    esp
  405eda:	inc    eax
  405edb:	add    BYTE PTR [edx],al
  405edd:	add    BYTE PTR [eax],al
  405edf:	add    BYTE PTR [eax],al
  405ee1:	add    BYTE PTR [eax],al
  405ee3:	add    BYTE PTR [edx],al
  405ee5:	add    BYTE PTR [eax],al
  405ee7:	add    BYTE PTR [eax],al
  405ee9:	add    BYTE PTR [eax],al
  405eeb:	add    BYTE PTR [edx],al
  405eed:	add    BYTE PTR [eax],al
  405eef:	add    BYTE PTR [eax],dl
  405ef1:	pop    esp
  405ef2:	inc    eax
	...
  405efb:	add    BYTE PTR [ecx],al
  405efd:	add    BYTE PTR [eax],al
  405eff:	add    BYTE PTR [ecx],al
  405f01:	add    BYTE PTR [eax],al
  405f03:	add    BYTE PTR [edi+ebx*2],bl
  405f06:	inc    eax
  405f07:	add    BYTE PTR [ebx],al
  405f09:	add    BYTE PTR [eax],al
  405f0b:	add    BYTE PTR [ebx],al
  405f0d:	add    BYTE PTR [eax],al
  405f0f:	add    BYTE PTR [eax+eax*1],al
  405f12:	add    BYTE PTR [eax],al
  405f14:	add    DWORD PTR [eax],eax
  405f16:	add    BYTE PTR [eax],al
  405f18:	sub    al,0x5f
  405f1a:	inc    eax
  405f1b:	add    BYTE PTR [eax+0x0],al
	...
  405f26:	add    BYTE PTR [eax],al
  405f28:	mov    ch,0x22
  405f2a:	inc    eax
  405f2b:	add    BYTE PTR [eax+0x0],al
	...
  405f36:	add    BYTE PTR [eax],al
  405f38:	or     al,0x23
  405f3a:	inc    eax
  405f3b:	add    BYTE PTR [edx],ah
  405f3d:	add    eax,0x31993
  405f42:	add    BYTE PTR [eax],al
  405f44:	pusha  
  405f45:	pop    edi
  405f46:	inc    eax
	...
  405f5b:	add    BYTE PTR [ecx],al
  405f5d:	add    BYTE PTR [eax],al
  405f5f:	add    bh,bh
  405f61:	(bad)  
  405f62:	(bad)  
  405f63:	(bad)  
  405f64:	cmp    BYTE PTR [eax+eax*2+0x0],bl
  405f68:	add    BYTE PTR [eax],al
  405f6a:	add    BYTE PTR [eax],al
  405f6c:	inc    ebx
  405f6d:	pop    esp
  405f6e:	inc    eax
  405f6f:	add    bh,bh
  405f71:	(bad)  
  405f72:	(bad)  
  405f73:	dec    DWORD PTR [esi+0x5c]
  405f76:	inc    eax
  405f77:	add    BYTE PTR [edx],ah
  405f79:	add    eax,0x11993
  405f7e:	add    BYTE PTR [eax],al
  405f80:	pushf  
  405f81:	pop    edi
  405f82:	inc    eax
	...
  405f97:	add    BYTE PTR [ecx],al
  405f99:	add    BYTE PTR [eax],al
  405f9b:	add    bh,bh
  405f9d:	(bad)  
  405f9e:	(bad)  
  405f9f:	push   DWORD PTR [esi+0x5c]
  405fa2:	inc    eax
  405fa3:	add    BYTE PTR [edx],ah
  405fa5:	add    eax,0x41993
  405faa:	add    BYTE PTR [eax],al
  405fac:	enter  0x405f,0x0
  405fb0:	add    DWORD PTR [eax],eax
  405fb2:	add    BYTE PTR [eax],al
  405fb4:	call   0x40a018
	...
  405fc1:	add    BYTE PTR [eax],al
  405fc3:	add    BYTE PTR [ecx],al
  405fc5:	add    BYTE PTR [eax],al
  405fc7:	add    bh,bh
  405fc9:	(bad)  
  405fca:	(bad)  
  405fcb:	call   FWORD PTR [esi+0x405c]
  405fd1:	add    BYTE PTR [eax],al
  405fd3:	add    BYTE PTR [ecx+0x100405c],ch
  405fd9:	add    BYTE PTR [eax],al
  405fdb:	add    BYTE PTR [eax],al
  405fdd:	add    BYTE PTR [eax],al
  405fdf:	add    BYTE PTR [ecx],al
  405fe1:	add    BYTE PTR [eax],al
  405fe3:	add    BYTE PTR [eax],al
  405fe5:	add    BYTE PTR [eax],al
  405fe7:	add    BYTE PTR [edx],al
  405fe9:	add    BYTE PTR [eax],al
  405feb:	add    BYTE PTR [edx],al
  405fed:	add    BYTE PTR [eax],al
  405fef:	add    BYTE PTR [ebx],al
  405ff1:	add    BYTE PTR [eax],al
  405ff3:	add    BYTE PTR [ecx],al
  405ff5:	add    BYTE PTR [eax],al
  405ff7:	add    ah,bh
  405ff9:	pop    edi
  405ffa:	inc    eax
  405ffb:	add    BYTE PTR [eax+0x0],al
	...
  406006:	add    BYTE PTR [eax],al
  406008:	push   esp
  406009:	daa    
  40600a:	inc    eax
  40600b:	add    BYTE PTR [edx],ah
  40600d:	add    eax,0x61993
  406012:	add    BYTE PTR [eax],al
  406014:	xor    BYTE PTR [eax+0x40],ah
  406017:	add    BYTE PTR [edx],al
  406019:	add    BYTE PTR [eax],al
  40601b:	add    BYTE PTR [eax+0x60],ah
  40601e:	inc    eax
	...
  40602b:	add    BYTE PTR [ecx],al
  40602d:	add    BYTE PTR [eax],al
  40602f:	add    bh,bh
  406031:	(bad)  
  406032:	(bad)  
  406033:	jmp    ecx
  406035:	pop    esp
  406036:	inc    eax
	...
  406047:	add    bh,bh
  406049:	(bad)  
  40604a:	(bad)  
  40604b:	(bad)  
  40604c:	in     al,dx
  40604d:	pop    esp
  40604e:	inc    eax
  40604f:	add    BYTE PTR [ebx],al
  406051:	add    BYTE PTR [eax],al
  406053:	add    BYTE PTR [eax],al
  406055:	add    BYTE PTR [eax],al
  406057:	add    BYTE PTR [ebx],al
  406059:	add    BYTE PTR [eax],al
  40605b:	add    BYTE PTR [eax],al
  40605d:	add    BYTE PTR [eax],al
  40605f:	add    BYTE PTR [ecx],al
  406061:	add    BYTE PTR [eax],al
  406063:	add    BYTE PTR [ecx],al
  406065:	add    BYTE PTR [eax],al
  406067:	add    BYTE PTR [edx],al
  406069:	add    BYTE PTR [eax],al
  40606b:	add    BYTE PTR [ecx],al
  40606d:	add    BYTE PTR [eax],al
  40606f:	add    BYTE PTR [eax+0x4004060],cl
  406075:	add    BYTE PTR [eax],al
  406077:	add    BYTE PTR [eax+eax*1],al
  40607a:	add    BYTE PTR [eax],al
  40607c:	add    eax,0x1000000
  406081:	add    BYTE PTR [eax],al
  406083:	add    BYTE PTR [eax+0x40004060],bl
	...
  406091:	add    BYTE PTR [eax],al
  406093:	add    BYTE PTR ds:0x4000402c,bh
	...
  4060a1:	add    BYTE PTR [eax],al
  4060a3:	add    ch,bh
  4060a5:	sub    eax,0x5220040
  4060aa:	xchg   ebx,eax
  4060ab:	sbb    DWORD PTR [edx],eax
  4060ad:	add    BYTE PTR [eax],al
  4060af:	add    ah,cl
  4060b1:	pusha  
  4060b2:	inc    eax
	...
  4060c7:	add    BYTE PTR [ecx],al
  4060c9:	add    BYTE PTR [eax],al
  4060cb:	add    bh,bh
  4060cd:	(bad)  
  4060ce:	(bad)  
  4060cf:	jmp    DWORD PTR [ebx*2+0x40]
  4060d6:	add    BYTE PTR [eax],al
  4060d8:	sub    al,0x5d
  4060da:	inc    eax
  4060db:	add    BYTE PTR [edx],ah
  4060dd:	add    eax,0x21993
  4060e2:	add    BYTE PTR [eax],al
  4060e4:	add    BYTE PTR [ecx+0x40],ah
	...
  4060fb:	add    BYTE PTR [ecx],al
  4060fd:	add    BYTE PTR [eax],al
  4060ff:	add    bh,bh
  406101:	(bad)  
  406102:	(bad)  
  406103:	call   FWORD PTR [esi+0x5d]
  406106:	inc    eax
  406107:	add    BYTE PTR [eax],al
  406109:	add    BYTE PTR [eax],al
  40610b:	add    BYTE PTR [ecx+0x5d],ch
  40610e:	inc    eax
  40610f:	add    BYTE PTR [eax],al
  406111:	add    BYTE PTR [eax],al
  406113:	add    BYTE PTR [eax+0x70],dl
  406116:	inc    eax
  406117:	add    BYTE PTR [eax],al
  406119:	add    BYTE PTR [eax],al
  40611b:	add    bh,bh
  40611d:	(bad)  
  40611e:	(bad)  
  40611f:	inc    DWORD PTR [eax]
  406121:	add    BYTE PTR [eax],al
  406123:	add    BYTE PTR [eax+eax*1],cl
  406126:	add    BYTE PTR [eax],al
  406128:	rcl    BYTE PTR [eax+eax*2+0x0],1
  40612c:	add    BYTE PTR [eax],al
  40612e:	add    BYTE PTR [eax],al
  406130:	and    BYTE PTR [ebp+0x40],cl
  406133:	add    BYTE PTR [eax],al
  406135:	add    BYTE PTR [eax],al
  406137:	add    BYTE PTR [ecx+eiz*2],bh
  40613a:	inc    eax
  40613b:	add    BYTE PTR [edx],al
  40613d:	add    BYTE PTR [eax],al
  40613f:	add    BYTE PTR [eax+0x61],cl
  406142:	inc    eax
  406143:	add    BYTE PTR [eax],dl
  406145:	popa   
  406146:	inc    eax
  406147:	add    BYTE PTR [eax],dl
  406149:	add    BYTE PTR [eax],al
  40614b:	add    BYTE PTR [eax+0x70],ch
  40614e:	inc    eax
  40614f:	add    BYTE PTR [eax],al
  406151:	add    BYTE PTR [eax],al
  406153:	add    bh,bh
  406155:	(bad)  
  406156:	(bad)  
  406157:	inc    DWORD PTR [eax]
  406159:	add    BYTE PTR [eax],al
  40615b:	add    BYTE PTR [eax+eax*1],cl
  40615e:	add    BYTE PTR [eax],al
  406160:	ror    BYTE PTR [eax+eax*2+0x0],0x0
  406165:	add    BYTE PTR [eax],al
  406167:	add    ah,ah
  406169:	(bad)  
  40616a:	(bad)  
  40616b:	inc    DWORD PTR [eax]
  40616d:	add    BYTE PTR [eax],al
  40616f:	add    BYTE PTR [edi+edi*8+0xffff],al
  406176:	add    BYTE PTR [eax],al
  406178:	(bad)  
  406179:	(bad)  
  40617a:	(bad)  
  40617b:	jmp    esi
  40617d:	push   eax
  40617e:	inc    eax
  40617f:	add    dl,ch
  406181:	push   eax
  406182:	inc    eax
  406183:	add    dh,bh
  406185:	(bad)  
  406186:	(bad)  
  406187:	call   FWORD PTR [edx-0x51ffbfb0]
  40618d:	push   eax
  40618e:	inc    eax
  40618f:	add    ah,ah
  406191:	(bad)  
  406192:	(bad)  
  406193:	inc    DWORD PTR [eax]
  406195:	add    BYTE PTR [eax],al
  406197:	add    al,cl
  406199:	(bad)  
  40619a:	(bad)  
  40619b:	inc    DWORD PTR [eax]
  40619d:	add    BYTE PTR [eax],al
  40619f:	add    dh,bh
  4061a1:	(bad)  
  4061a2:	(bad)  
  4061a3:	inc    DWORD PTR [eax]
  4061a5:	add    BYTE PTR [eax],al
  4061a7:	add    BYTE PTR [edx],dl
  4061a9:	push   edx
  4061aa:	inc    eax
  4061ab:	add    BYTE PTR [eax],al
  4061ad:	add    BYTE PTR [eax],al
  4061af:	add    dh,bh
  4061b1:	(bad)  
  4061b2:	(bad)  
  4061b3:	inc    DWORD PTR [eax]
  4061b5:	add    BYTE PTR [eax],al
  4061b7:	add    ah,dl
  4061b9:	(bad)  
  4061ba:	(bad)  
  4061bb:	inc    DWORD PTR [eax]
  4061bd:	add    BYTE PTR [eax],al
  4061bf:	add    dh,bh
  4061c1:	(bad)  
  4061c2:	(bad)  
  4061c3:	(bad)  
  4061c4:	fcom   QWORD PTR [ebp+0x40]
  4061c7:	add    al,ah
  4061c9:	push   ebp
  4061ca:	inc    eax
  4061cb:	add    BYTE PTR [eax],al
  4061cd:	add    BYTE PTR [eax],al
  4061cf:	add    dh,bh
  4061d1:	(bad)  
  4061d2:	(bad)  
  4061d3:	inc    DWORD PTR [eax]
  4061d5:	add    BYTE PTR [eax],al
  4061d7:	add    al,bl
  4061d9:	(bad)  
  4061da:	(bad)  
  4061db:	inc    DWORD PTR [eax]
  4061dd:	add    BYTE PTR [eax],al
  4061df:	add    dh,bh
  4061e1:	(bad)  
  4061e2:	(bad)  
  4061e3:	(bad)  
  4061e4:	cmp    edx,DWORD PTR [edi+0x40]
  4061e7:	add    BYTE PTR [esi+0x57],cl
  4061ea:	inc    eax
  4061eb:	add    BYTE PTR [ecx],al
  4061ed:	add    BYTE PTR [eax],al
  4061ef:	add    BYTE PTR [edx+eiz*2],al
  4061f2:	inc    eax
	...
  4061ff:	add    ah,ch
  406201:	popa   
  406202:	inc    eax
  406203:	add    BYTE PTR [eax],al
  406205:	add    BYTE PTR [eax],al
  406207:	add    BYTE PTR [eax+0x71],dh
  40620a:	inc    eax
  40620b:	add    BYTE PTR [eax],al
  40620d:	add    BYTE PTR [eax],al
  40620f:	add    bh,bh
  406211:	(bad)  
  406212:	(bad)  
  406213:	inc    DWORD PTR [eax]
  406215:	add    BYTE PTR [eax],al
  406217:	add    BYTE PTR [eax+eax*1],al
  40621a:	add    BYTE PTR [eax],al
  40621c:	add    BYTE PTR [eax],al
	...
