
256125aa18a03ce9dd77811091d8e16a6a0f6dba3d3efe285f1242c8c2240769.exe:     file format pei-i386


Disassembly of section .text:

00401000 <.text>:
  401000:	push   ebp
  401001:	mov    ebp,esp
  401003:	sub    esp,0x8
  401006:	mov    eax,ds:0x405000
  40100b:	test   eax,eax
  40100d:	je     0x401010
  40100f:	int3   
  401010:	fnstcw WORD PTR [ebp-0x2]
  401013:	movzx  ecx,WORD PTR [ebp-0x2]
  401017:	and    ecx,0xfffff0c0
  40101d:	mov    WORD PTR [ebp-0x2],cx
  401021:	movzx  edx,WORD PTR [ebp-0x2]
  401025:	or     edx,0x33f
  40102b:	mov    WORD PTR [ebp-0x2],dx
  40102f:	fldcw  WORD PTR [ebp-0x2]
  401032:	mov    DWORD PTR [esp],0x401ea0
  401039:	call   0x402510
  40103e:	leave  
  40103f:	ret    
  401040:	push   ebp
  401041:	mov    edx,0x23
  401046:	mov    ebp,esp
  401048:	sub    esp,0x18
  40104b:	mov    eax,ds:0x405024
  401050:	mov    ecx,DWORD PTR [eax+0xc]
  401053:	mov    DWORD PTR [esp+0x8],edx
  401057:	mov    eax,0x1
  40105c:	mov    DWORD PTR [esp+0x4],eax
  401060:	mov    DWORD PTR [esp+0xc],ecx
  401064:	mov    DWORD PTR [esp],0x4035a0
  40106b:	call   0x4026c0
  401070:	mov    DWORD PTR [esp],0x1
  401077:	call   0x402700
  40107c:	lea    esi,[esi+eiz*1+0x0]
  401080:	push   ebp
  401081:	mov    ebp,esp
  401083:	sub    esp,0x18
  401086:	mov    DWORD PTR [ebp-0x8],esi
  401089:	mov    esi,DWORD PTR [ebp+0x8]
  40108c:	mov    DWORD PTR [ebp-0x4],edi
  40108f:	mov    edi,DWORD PTR [ebp+0xc]
  401092:	mov    DWORD PTR [ebp-0xc],ebx
  401095:	mov    DWORD PTR [esp],esi
  401098:	call   0x4026e0
  40109d:	mov    DWORD PTR [esp],edi
  4010a0:	mov    ebx,eax
  4010a2:	call   0x4026e0
  4010a7:	lea    eax,[ebx+eax*1+0x2]
  4010ab:	mov    ecx,0x1
  4010b0:	mov    DWORD PTR [esp+0x4],ecx
  4010b4:	mov    DWORD PTR [esp],eax
  4010b7:	call   0x4026f8
  4010bc:	mov    DWORD PTR [esp],eax
  4010bf:	mov    ebx,eax
  4010c1:	mov    DWORD PTR [esp+0x4],esi
  4010c5:	call   0x4026f0
  4010ca:	mov    DWORD PTR [esp],ebx
  4010cd:	call   0x4026e0
  4010d2:	mov    WORD PTR [ebx+eax*1],0x2f
  4010d8:	mov    DWORD PTR [esp+0x4],edi
  4010dc:	mov    DWORD PTR [esp],ebx
  4010df:	call   0x4026e8
  4010e4:	mov    eax,ebx
  4010e6:	mov    esi,DWORD PTR [ebp-0x8]
  4010e9:	mov    ebx,DWORD PTR [ebp-0xc]
  4010ec:	mov    edi,DWORD PTR [ebp-0x4]
  4010ef:	mov    esp,ebp
  4010f1:	pop    ebp
  4010f2:	ret    
  4010f3:	lea    esi,[esi+0x0]
  4010f9:	lea    edi,[edi+eiz*1+0x0]
  401100:	push   ebp
  401101:	mov    ebp,esp
  401103:	sub    esp,0x28
  401106:	mov    DWORD PTR [ebp-0x8],esi
  401109:	mov    DWORD PTR [ebp-0x4],edi
  40110c:	mov    edi,DWORD PTR [ebp+0x8]
  40110f:	mov    DWORD PTR [ebp-0xc],ebx
  401112:	mov    DWORD PTR [esp],0x4035c4
  401119:	call   0x4026d8
  40111e:	test   eax,eax
  401120:	mov    esi,eax
  401122:	je     0x40112d
  401124:	cmp    BYTE PTR [eax],0x0
  401127:	jne    0x4011c0
  40112d:	mov    edx,DWORD PTR ds:0x405024
  401133:	mov    esi,0x2c
  401138:	mov    eax,0x1
  40113d:	mov    ecx,DWORD PTR [edx+0xc]
  401140:	mov    DWORD PTR [esp+0x8],esi
  401144:	mov    esi,0x4035c9
  401149:	mov    DWORD PTR [esp+0xc],ecx
  40114d:	mov    DWORD PTR [esp+0x4],eax
  401151:	mov    DWORD PTR [esp],0x4035cc
  401158:	call   0x4026c0
  40115d:	mov    DWORD PTR [esp],0x4035c9
  401164:	call   0x4026e0
  401169:	mov    DWORD PTR [esp],edi
  40116c:	mov    ebx,eax
  40116e:	call   0x4026e0
  401173:	lea    ecx,[ebx+eax*1+0x2]
  401177:	mov    edx,0x1
  40117c:	mov    DWORD PTR [esp+0x4],edx
  401180:	mov    DWORD PTR [esp],ecx
  401183:	call   0x4026f8
  401188:	mov    DWORD PTR [esp],eax
  40118b:	mov    ebx,eax
  40118d:	mov    DWORD PTR [esp+0x4],esi
  401191:	call   0x4026f0
  401196:	mov    DWORD PTR [esp],ebx
  401199:	call   0x4026e0
  40119e:	mov    WORD PTR [ebx+eax*1],0x2f
  4011a4:	mov    DWORD PTR [esp+0x4],edi
  4011a8:	mov    DWORD PTR [esp],ebx
  4011ab:	call   0x4026e8
  4011b0:	mov    eax,ebx
  4011b2:	mov    esi,DWORD PTR [ebp-0x8]
  4011b5:	mov    ebx,DWORD PTR [ebp-0xc]
  4011b8:	mov    edi,DWORD PTR [ebp-0x4]
  4011bb:	mov    esp,ebp
  4011bd:	pop    ebp
  4011be:	ret    
  4011bf:	nop
  4011c0:	mov    DWORD PTR [esp],eax
  4011c3:	call   0x4026e0
  4011c8:	mov    DWORD PTR [esp],edi
  4011cb:	mov    ebx,eax
  4011cd:	call   0x4026e0
  4011d2:	lea    eax,[ebx+eax*1+0x2]
  4011d6:	mov    edx,0x1
  4011db:	mov    DWORD PTR [esp+0x4],edx
  4011df:	mov    DWORD PTR [esp],eax
  4011e2:	call   0x4026f8
  4011e7:	mov    DWORD PTR [esp],eax
  4011ea:	mov    ebx,eax
  4011ec:	mov    DWORD PTR [esp+0x4],esi
  4011f0:	call   0x4026f0
  4011f5:	mov    DWORD PTR [esp],ebx
  4011f8:	call   0x4026e0
  4011fd:	mov    WORD PTR [ebx+eax*1],0x2f
  401203:	mov    DWORD PTR [esp+0x4],edi
  401207:	mov    DWORD PTR [esp],ebx
  40120a:	call   0x4026e8
  40120f:	mov    eax,ebx
  401211:	mov    esi,DWORD PTR [ebp-0x8]
  401214:	mov    ebx,DWORD PTR [ebp-0xc]
  401217:	mov    edi,DWORD PTR [ebp-0x4]
  40121a:	mov    esp,ebp
  40121c:	pop    ebp
  40121d:	ret    
  40121e:	xchg   ax,ax
  401220:	push   ebp
  401221:	xor    edx,edx
  401223:	mov    ebp,esp
  401225:	push   edi
  401226:	push   esi
  401227:	push   ebx
  401228:	sub    esp,0x1c
  40122b:	mov    eax,DWORD PTR [ebp+0x8]
  40122e:	mov    DWORD PTR ds:0x40500c,edx
  401234:	dec    eax
  401235:	test   eax,eax
  401237:	mov    DWORD PTR [ebp-0x10],eax
  40123a:	jmp    0x4012aa
  40123c:	lea    esi,[esi+eiz*1+0x0]
  401240:	cmp    eax,0x2d
  401243:	jne    0x401329
  401249:	cld    
  40124a:	mov    esi,ebx
  40124c:	mov    edi,0x4035f9
  401251:	mov    ecx,0x8
  401256:	repz cmps BYTE PTR ds:[esi],BYTE PTR es:[edi]
  401258:	jne    0x401318
  40125e:	movzx  eax,BYTE PTR [ebx+0x8]
  401262:	test   al,al
  401264:	je     0x401310
  40126a:	cmp    al,0x3d
  40126c:	jne    0x401329
  401272:	lea    eax,[ebx+0x9]
  401275:	mov    ds:0x40500c,eax
  40127a:	mov    ebx,DWORD PTR ds:0x40500c
  401280:	cmp    BYTE PTR [ebx],0x0
  401283:	jne    0x4012a2
  401285:	dec    DWORD PTR [ebp-0x10]
  401288:	mov    eax,DWORD PTR [ebp-0x10]
  40128b:	test   eax,eax
  40128d:	jle    0x401329
  401293:	add    DWORD PTR [ebp+0xc],0x4
  401297:	mov    edx,DWORD PTR [ebp+0xc]
  40129a:	mov    edi,DWORD PTR [edx]
  40129c:	mov    DWORD PTR ds:0x40500c,edi
  4012a2:	dec    DWORD PTR [ebp-0x10]
  4012a5:	mov    ecx,DWORD PTR [ebp-0x10]
  4012a8:	test   ecx,ecx
  4012aa:	jle    0x4012f0
  4012ac:	add    DWORD PTR [ebp+0xc],0x4
  4012b0:	mov    ecx,DWORD PTR [ebp+0xc]
  4012b3:	mov    ebx,DWORD PTR [ecx]
  4012b5:	cmp    BYTE PTR [ebx],0x2d
  4012b8:	jne    0x4012f0
  4012ba:	movzx  eax,BYTE PTR [ebx+0x1]
  4012be:	test   al,al
  4012c0:	je     0x4012f0
  4012c2:	cmp    al,0x2d
  4012c4:	je     0x4012e2
  4012c6:	movsx  eax,al
  4012c9:	cmp    eax,0x56
  4012cc:	je     0x40136e
  4012d2:	jle    0x401240
  4012d8:	cmp    eax,0x6f
  4012db:	jne    0x401329
  4012dd:	lea    eax,[ebx+0x2]
  4012e0:	jmp    0x401275
  4012e2:	cmp    BYTE PTR [ebx+0x2],0x0
  4012e6:	jne    0x4012c6
  4012e8:	dec    DWORD PTR [ebp-0x10]
  4012eb:	add    DWORD PTR [ebp+0xc],0x4
  4012ef:	nop
  4012f0:	cmp    DWORD PTR [ebp-0x10],0x1
  4012f4:	jg     0x401329
  4012f6:	mov    esi,DWORD PTR [ebp-0x10]
  4012f9:	test   esi,esi
  4012fb:	jle    0x401360
  4012fd:	mov    ecx,DWORD PTR [ebp+0xc]
  401300:	mov    eax,DWORD PTR [ecx]
  401302:	mov    ds:0x405008,eax
  401307:	add    esp,0x1c
  40130a:	pop    ebx
  40130b:	pop    esi
  40130c:	pop    edi
  40130d:	pop    ebp
  40130e:	ret    
  40130f:	nop
  401310:	lea    eax,[ebx+0x8]
  401313:	jmp    0x401275
  401318:	cld    
  401319:	mov    esi,ebx
  40131b:	mov    edi,0x403602
  401320:	mov    ecx,0xa
  401325:	repz cmps BYTE PTR ds:[esi],BYTE PTR es:[edi]
  401327:	je     0x40136e
  401329:	mov    edx,DWORD PTR ds:0x405024
  40132f:	mov    eax,0x23
  401334:	mov    ebx,0x1
  401339:	mov    edi,DWORD PTR [edx+0xc]
  40133c:	mov    DWORD PTR [esp+0x8],eax
  401340:	mov    DWORD PTR [esp+0x4],ebx
  401344:	mov    DWORD PTR [esp+0xc],edi
  401348:	mov    DWORD PTR [esp],0x4035a0
  40134f:	call   0x4026c0
  401354:	mov    DWORD PTR [esp],0x1
  40135b:	call   0x402700
  401360:	mov    DWORD PTR [esp],0x40360c
  401367:	call   0x401100
  40136c:	jmp    0x401302
  40136e:	mov    DWORD PTR [esp],0x403615
  401375:	mov    esi,0x4032a0
  40137a:	mov    DWORD PTR [esp+0x4],esi
  40137e:	call   0x4026c8
  401383:	mov    DWORD PTR [esp],0x0
  40138a:	call   0x402700
  40138f:	nop
  401390:	push   ebp
  401391:	mov    ecx,0x403000
  401396:	mov    ebp,esp
  401398:	pop    ebp
  401399:	mov    edx,0x405254
  40139e:	mov    DWORD PTR ds:0x40524c,ecx
  4013a4:	mov    eax,0x4031e0
  4013a9:	mov    DWORD PTR ds:0x405250,edx
  4013af:	mov    ecx,0x405454
  4013b4:	mov    ds:0x40544c,eax
  4013b9:	xor    edx,edx
  4013bb:	mov    eax,0x405034
  4013c0:	mov    DWORD PTR ds:0x405450,ecx
  4013c6:	mov    DWORD PTR ds:0x40502c,edx
  4013cc:	mov    ds:0x405030,eax
  4013d1:	ret    
  4013d2:	lea    esi,[esi+eiz*1+0x0]
  4013d9:	lea    edi,[edi+eiz*1+0x0]
  4013e0:	push   ebp
  4013e1:	mov    ebp,esp
  4013e3:	push   esi
  4013e4:	push   ebx
  4013e5:	sub    esp,0x10
  4013e8:	mov    ebx,DWORD PTR [ebp+0x8]
  4013eb:	mov    esi,DWORD PTR [ebp+0xc]
  4013ee:	mov    edx,DWORD PTR [ebx]
  4013f0:	movsx  eax,BYTE PTR [edx]
  4013f3:	cmp    eax,0x5c
  4013f6:	je     0x401450
  4013f8:	cmp    eax,0x5e
  4013fb:	je     0x401423
  4013fd:	lea    ecx,[edx+0x1]
  401400:	mov    DWORD PTR [ebx],ecx
  401402:	movzx  eax,BYTE PTR [edx]
  401405:	mov    ds:0x405010,al
  40140a:	test   esi,esi
  40140c:	mov    BYTE PTR ds:0x405011,0x0
  401413:	jne    0x40143a
  401415:	mov    ecx,0x405010
  40141a:	add    esp,0x10
  40141d:	mov    eax,ecx
  40141f:	pop    ebx
  401420:	pop    esi
  401421:	pop    ebp
  401422:	ret    
  401423:	lea    esi,[edx+0x2]
  401426:	mov    DWORD PTR [ebx],esi
  401428:	movzx  eax,BYTE PTR [edx+0x1]
  40142c:	mov    BYTE PTR ds:0x405011,0x0
  401433:	and    al,0x1f
  401435:	mov    ds:0x405010,al
  40143a:	cmp    al,0xb
  40143c:	mov    ecx,0x40328f
  401441:	jne    0x401415
  401443:	add    esp,0x10
  401446:	mov    eax,ecx
  401448:	pop    ebx
  401449:	pop    esi
  40144a:	pop    ebp
  40144b:	ret    
  40144c:	lea    esi,[esi+eiz*1+0x0]
  401450:	lea    ecx,[edx+0x1]
  401453:	movzx  edx,BYTE PTR [edx+0x1]
  401457:	movsx  eax,dl
  40145a:	sub    eax,0x30
  40145d:	cmp    eax,0x44
  401460:	ja     0x401470
  401462:	jmp    DWORD PTR [eax*4+0x40364c]
  401469:	lea    esi,[esi+eiz*1+0x0]
  401470:	lea    edx,[ecx+0x1]
  401473:	mov    DWORD PTR [ebx],edx
  401475:	movzx  eax,BYTE PTR [ecx]
  401478:	jmp    0x401405
  40147a:	lea    eax,[ecx+0x1]
  40147d:	mov    ecx,0x40362a
  401482:	mov    DWORD PTR [ebx],eax
  401484:	jmp    0x40141a
  401486:	lea    esi,[ecx+0x1]
  401489:	mov    ecx,0x40362c
  40148e:	mov    DWORD PTR [ebx],esi
  401490:	jmp    0x40141a
  401492:	lea    edx,[ecx+0x1]
  401495:	mov    ecx,0x40362e
  40149a:	mov    DWORD PTR [ebx],edx
  40149c:	jmp    0x40141a
  4014a1:	test   esi,esi
  4014a3:	je     0x401470
  4014a5:	movsx  eax,BYTE PTR [ecx+0x1]
  4014a9:	lea    esi,[ecx+0x1]
  4014ac:	sub    eax,0x44
  4014af:	cmp    eax,0x34
  4014b2:	ja     0x401530
  4014b4:	jmp    DWORD PTR [eax*4+0x403760]
  4014bb:	lea    eax,[ecx+0x1]
  4014be:	mov    DWORD PTR [ebx],eax
  4014c0:	mov    BYTE PTR ds:0x405010,0x1b
  4014c7:	mov    BYTE PTR ds:0x405011,0x0
  4014ce:	jmp    0x401415
  4014d3:	lea    esi,[ecx+0x1]
  4014d6:	mov    ecx,0x403630
  4014db:	mov    DWORD PTR [ebx],esi
  4014dd:	jmp    0x40141a
  4014e2:	mov    BYTE PTR [ebp-0x9],0x0
  4014e6:	xor    eax,eax
  4014e8:	shl    BYTE PTR [ebp-0x9],0x3
  4014ec:	inc    ecx
  4014ed:	add    BYTE PTR [ebp-0x9],dl
  4014f0:	sub    BYTE PTR [ebp-0x9],0x30
  4014f4:	movzx  edx,BYTE PTR [ecx]
  4014f7:	cmp    dl,0x2f
  4014fa:	jle    0x401507
  4014fc:	cmp    dl,0x37
  4014ff:	jg     0x401507
  401501:	inc    eax
  401502:	cmp    eax,0x2
  401505:	jle    0x4014e8
  401507:	mov    DWORD PTR [ebx],ecx
  401509:	test   esi,esi
  40150b:	setne  al
  40150e:	xor    edx,edx
  401510:	cmp    BYTE PTR [ebp-0x9],0xb
  401514:	mov    ecx,0x40328f
  401519:	sete   dl
  40151c:	test   edx,eax
  40151e:	jne    0x40141a
  401524:	movzx  ecx,BYTE PTR [ebp-0x9]
  401528:	mov    BYTE PTR ds:0x405010,cl
  40152e:	jmp    0x4014c7
  401530:	mov    DWORD PTR [esp],0x403632
  401537:	call   0x401970
  40153c:	lea    ecx,[esi+0x1]
  40153f:	mov    DWORD PTR [ebx],ecx
  401541:	mov    ecx,0x403648
  401546:	jmp    0x40141a
  40154b:	mov    dl,0x6
  40154d:	lea    eax,[esi+0x1]
  401550:	mov    DWORD PTR [ebx],eax
  401552:	mov    BYTE PTR ds:0x405010,0xb
  401559:	mov    BYTE PTR ds:0x405011,dl
  40155f:	mov    BYTE PTR ds:0x405012,0x6
  401566:	mov    BYTE PTR ds:0x405013,0x1
  40156d:	mov    BYTE PTR ds:0x405014,0x1
  401574:	mov    BYTE PTR ds:0x405015,0x1
  40157b:	mov    BYTE PTR ds:0x405016,0x0
  401582:	jmp    0x401415
  401587:	mov    dl,0x9
  401589:	jmp    0x40154d
  40158b:	mov    dl,0x3
  40158d:	jmp    0x40154d
  40158f:	mov    dl,0x1
  401591:	jmp    0x40154d
  401593:	mov    dl,0x2
  401595:	jmp    0x40154d
  401597:	mov    dl,0x7
  401599:	jmp    0x40154d
  40159b:	mov    dl,0x8
  40159d:	jmp    0x40154d
  40159f:	mov    dl,0x4
  4015a1:	jmp    0x40154d
  4015a3:	mov    dl,0x5
  4015a5:	jmp    0x40154d
  4015a7:	mov    esi,esi
  4015a9:	lea    edi,[edi+eiz*1+0x0]
  4015b0:	push   ebp
  4015b1:	mov    ebp,esp
  4015b3:	mov    ecx,DWORD PTR [ebp+0x8]
  4015b6:	jmp    0x4015b9
  4015b8:	inc    ecx
  4015b9:	movzx  eax,BYTE PTR [ecx]
  4015bc:	cmp    al,0x20
  4015be:	sete   dl
  4015c1:	cmp    al,0x9
  4015c3:	sete   al
  4015c6:	or     eax,edx
  4015c8:	test   al,0x1
  4015ca:	jne    0x4015b8
  4015cc:	pop    ebp
  4015cd:	mov    eax,ecx
  4015cf:	ret    
  4015d0:	push   ebp
  4015d1:	mov    ebp,esp
  4015d3:	push   ebx
  4015d4:	mov    ebx,DWORD PTR [ebp+0x8]
  4015d7:	movzx  ecx,BYTE PTR [ebx]
  4015da:	test   cl,cl
  4015dc:	setne  al
  4015df:	xor    edx,edx
  4015e1:	cmp    cl,0x20
  4015e4:	setne  dl
  4015e7:	test   edx,eax
  4015e9:	je     0x40160a
  4015eb:	nop
  4015ec:	lea    esi,[esi+eiz*1+0x0]
  4015f0:	cmp    cl,0x9
  4015f3:	je     0x40160a
  4015f5:	inc    ebx
  4015f6:	movzx  ecx,BYTE PTR [ebx]
  4015f9:	test   cl,cl
  4015fb:	setne  al
  4015fe:	xor    edx,edx
  401600:	cmp    cl,0x20
  401603:	setne  dl
  401606:	test   edx,eax
  401608:	jne    0x4015f0
  40160a:	mov    eax,ebx
  40160c:	pop    ebx
  40160d:	pop    ebp
  40160e:	ret    
  40160f:	nop
  401610:	push   ebp
  401611:	mov    ebp,esp
  401613:	push   esi
  401614:	push   ebx
  401615:	mov    ebx,DWORD PTR [ebp+0x8]
  401618:	jmp    0x401621
  40161a:	lea    esi,[esi+0x0]
  401620:	inc    ebx
  401621:	movzx  ecx,BYTE PTR [ebx]
  401624:	cmp    cl,0x20
  401627:	sete   al
  40162a:	cmp    cl,0x9
  40162d:	sete   dl
  401630:	or     eax,edx
  401632:	test   al,0x1
  401634:	jne    0x401620
  401636:	xor    esi,esi
  401638:	cmp    cl,0xa
  40163b:	setne  al
  40163e:	xor    edx,edx
  401640:	cmp    cl,0xd
  401643:	setne  dl
  401646:	test   edx,eax
  401648:	je     0x401680
  40164a:	test   cl,cl
  40164c:	je     0x401680
  40164e:	movzx  ecx,BYTE PTR [ebx]
  401651:	jmp    0x40166e
  401653:	inc    esi
  401654:	movzx  ecx,BYTE PTR [ebx+esi*1]
  401658:	cmp    cl,0xa
  40165b:	setne  al
  40165e:	xor    edx,edx
  401660:	cmp    cl,0xd
  401663:	setne  dl
  401666:	test   edx,eax
  401668:	je     0x401680
  40166a:	test   cl,cl
  40166c:	je     0x401680
  40166e:	cmp    cl,0x23
  401671:	jne    0x401653
  401673:	test   esi,esi
  401675:	je     0x401680
  401677:	cmp    BYTE PTR [ebx+esi*1-0x1],0x5c
  40167c:	je     0x401653
  40167e:	xchg   ax,ax
  401680:	mov    BYTE PTR [ebx+esi*1],0x0
  401684:	mov    eax,ebx
  401686:	pop    ebx
  401687:	pop    esi
  401688:	pop    ebp
  401689:	ret    
  40168a:	lea    esi,[esi+0x0]
  401690:	push   ebp
  401691:	mov    ebp,esp
  401693:	sub    esp,0x8
  401696:	mov    edx,DWORD PTR ds:0x403280
  40169c:	mov    ecx,DWORD PTR [edx+0x4]
  40169f:	lea    eax,[edx+0x1fc]
  4016a5:	cmp    ecx,eax
  4016a7:	jae    0x4016b3
  4016a9:	mov    eax,DWORD PTR [ebp+0x8]
  4016ac:	mov    BYTE PTR [ecx],al
  4016ae:	inc    DWORD PTR [edx+0x4]
  4016b1:	leave  
  4016b2:	ret    
  4016b3:	mov    DWORD PTR [esp],0x403834
  4016ba:	call   0x401970
  4016bf:	mov    DWORD PTR [esp],0x1
  4016c6:	call   0x402700
  4016cb:	nop
  4016cc:	lea    esi,[esi+eiz*1+0x0]
  4016d0:	push   ebp
  4016d1:	mov    ebp,esp
  4016d3:	push   esi
  4016d4:	push   ebx
  4016d5:	sub    esp,0x10
  4016d8:	mov    ebx,DWORD PTR [ebp+0x8]
  4016db:	jmp    0x4016fe
  4016dd:	lea    esi,[esi+0x0]
  4016e0:	mov    edx,DWORD PTR ds:0x403280
  4016e6:	movsx  esi,al
  4016e9:	mov    ecx,DWORD PTR [edx+0x4]
  4016ec:	lea    eax,[edx+0x1fc]
  4016f2:	cmp    ecx,eax
  4016f4:	jae    0x40170c
  4016f6:	mov    eax,esi
  4016f8:	inc    ebx
  4016f9:	mov    BYTE PTR [ecx],al
  4016fb:	inc    DWORD PTR [edx+0x4]
  4016fe:	movzx  eax,BYTE PTR [ebx]
  401701:	test   al,al
  401703:	jne    0x4016e0
  401705:	add    esp,0x10
  401708:	pop    ebx
  401709:	pop    esi
  40170a:	pop    ebp
  40170b:	ret    
  40170c:	mov    DWORD PTR [esp],0x403834
  401713:	call   0x401970
  401718:	mov    DWORD PTR [esp],0x1
  40171f:	call   0x402700
  401724:	lea    esi,[esi+0x0]
  40172a:	lea    edi,[edi+0x0]
  401730:	push   ebp
  401731:	cld    
  401732:	mov    ebp,esp
  401734:	push   edi
  401735:	mov    ecx,0xa
  40173a:	push   esi
  40173b:	sub    esp,0x20
  40173e:	mov    edi,0x403846
  401743:	mov    esi,DWORD PTR [ebp+0x8]
  401746:	repz cmps BYTE PTR ds:[esi],BYTE PTR es:[edi]
  401748:	jne    0x401762
  40174a:	mov    eax,0x40544c
  40174f:	mov    ds:0x403280,eax
  401754:	mov    ecx,0x1
  401759:	add    esp,0x20
  40175c:	mov    eax,ecx
  40175e:	pop    esi
  40175f:	pop    edi
  401760:	pop    ebp
  401761:	ret    
  401762:	cld    
  401763:	mov    esi,DWORD PTR [ebp+0x8]
  401766:	mov    ecx,0x8
  40176b:	mov    edi,0x403851
  401770:	repz cmps BYTE PTR ds:[esi],BYTE PTR es:[edi]
  401772:	jne    0x401780
  401774:	mov    eax,0x40524c
  401779:	jmp    0x40174f
  40177b:	nop
  40177c:	lea    esi,[esi+eiz*1+0x0]
  401780:	cld    
  401781:	mov    esi,DWORD PTR [ebp+0x8]
  401784:	mov    ecx,0x4
  401789:	mov    edi,0x40385a
  40178e:	repz cmps BYTE PTR ds:[esi],BYTE PTR es:[edi]
  401790:	je     0x4017e5
  401792:	cld    
  401793:	mov    esi,DWORD PTR [ebp+0x8]
  401796:	mov    ecx,0x5
  40179b:	mov    edi,0x40385f
  4017a0:	repz cmps BYTE PTR ds:[esi],BYTE PTR es:[edi]
  4017a2:	seta   dl
  4017a5:	setb   al
  4017a8:	xor    ecx,ecx
  4017aa:	cmp    dl,al
  4017ac:	jne    0x401759
  4017ae:	mov    edx,DWORD PTR ds:0x403280
  4017b4:	mov    ecx,DWORD PTR [edx+0x4]
  4017b7:	lea    eax,[edx+0x1fc]
  4017bd:	cmp    ecx,eax
  4017bf:	jae    0x4017ef
  4017c1:	mov    BYTE PTR [ecx],0x0
  4017c4:	inc    DWORD PTR [edx+0x4]
  4017c7:	mov    edx,DWORD PTR ds:0x403280
  4017cd:	mov    ecx,DWORD PTR [edx+0x4]
  4017d0:	lea    edi,[edx+0x1fc]
  4017d6:	cmp    ecx,edi
  4017d8:	jae    0x4017ef
  4017da:	mov    BYTE PTR [ecx],0x67
  4017dd:	inc    DWORD PTR [edx+0x4]
  4017e0:	jmp    0x401754
  4017e5:	mov    eax,0x40502c
  4017ea:	jmp    0x40174f
  4017ef:	mov    DWORD PTR [esp],0x403834
  4017f6:	call   0x401970
  4017fb:	mov    DWORD PTR [esp],0x1
  401802:	call   0x402700
  401807:	mov    esi,esi
  401809:	lea    edi,[edi+eiz*1+0x0]
  401810:	push   ebp
  401811:	mov    ebp,esp
  401813:	push   edi
  401814:	push   esi
  401815:	push   ebx
  401816:	sub    esp,0x1c
  401819:	mov    eax,DWORD PTR [ebp+0x10]
  40181c:	mov    edi,DWORD PTR [ebp+0x8]
  40181f:	mov    esi,DWORD PTR [ebp+0xc]
  401822:	lea    ebx,[eax-0x1]
  401825:	jmp    0x401849
  401827:	mov    DWORD PTR [esp],esi
  40182a:	mov    edx,0x1
  40182f:	mov    eax,0x1
  401834:	mov    DWORD PTR [esp+0xc],edi
  401838:	inc    esi
  401839:	mov    DWORD PTR [esp+0x8],edx
  40183d:	mov    DWORD PTR [esp+0x4],eax
  401841:	call   0x4026c0
  401846:	mov    eax,ebx
  401848:	dec    ebx
  401849:	test   eax,eax
  40184b:	jg     0x401827
  40184d:	add    esp,0x1c
  401850:	pop    ebx
  401851:	pop    esi
  401852:	pop    edi
  401853:	pop    ebp
  401854:	ret    
  401855:	lea    esi,[esi+eiz*1+0x0]
  401859:	lea    edi,[edi+eiz*1+0x0]
  401860:	push   ebp
  401861:	mov    ebp,esp
  401863:	sub    esp,0x28
  401866:	mov    DWORD PTR [ebp-0xc],ebx
  401869:	mov    ebx,DWORD PTR [ebp+0xc]
  40186c:	mov    DWORD PTR [ebp-0x4],edi
  40186f:	mov    edi,DWORD PTR [ebp+0x8]
  401872:	cmp    ebx,0xfff
  401878:	mov    DWORD PTR [ebp-0x8],esi
  40187b:	ja     0x4018d7
  40187d:	mov    DWORD PTR [esp+0xc],edi
  401881:	mov    ecx,ebx
  401883:	lea    esi,[ebp-0xd]
  401886:	mov    DWORD PTR [esp],esi
  401889:	and    ecx,0x3f
  40188c:	mov    edx,0x1
  401891:	mov    BYTE PTR [ebp-0xd],cl
  401894:	mov    eax,0x1
  401899:	shr    ebx,0x6
  40189c:	mov    DWORD PTR [esp+0x8],edx
  4018a0:	mov    DWORD PTR [esp+0x4],eax
  4018a4:	call   0x4026c0
  4018a9:	mov    BYTE PTR [ebp-0xd],bl
  4018ac:	mov    ebx,0x1
  4018b1:	mov    DWORD PTR [esp+0xc],edi
  4018b5:	mov    edi,0x1
  4018ba:	mov    DWORD PTR [esp+0x8],edi
  4018be:	mov    DWORD PTR [esp+0x4],ebx
  4018c2:	mov    DWORD PTR [esp],esi
  4018c5:	call   0x4026c0
  4018ca:	mov    ebx,DWORD PTR [ebp-0xc]
  4018cd:	mov    esi,DWORD PTR [ebp-0x8]
  4018d0:	mov    edi,DWORD PTR [ebp-0x4]
  4018d3:	mov    esp,ebp
  4018d5:	pop    ebp
  4018d6:	ret    
  4018d7:	mov    DWORD PTR [esp+0x8],ebx
  4018db:	mov    edx,DWORD PTR ds:0x405024
  4018e1:	mov    ecx,0x403868
  4018e6:	mov    DWORD PTR [esp+0x4],ecx
  4018ea:	mov    esi,0x1000
  4018ef:	mov    DWORD PTR [esp+0xc],esi
  4018f3:	mov    eax,DWORD PTR [edx+0xc]
  4018f6:	mov    DWORD PTR [esp],eax
  4018f9:	call   0x402708
  4018fe:	mov    DWORD PTR [esp],0x1
  401905:	call   0x402700
  40190a:	lea    esi,[esi+0x0]
  401910:	push   ebp
  401911:	mov    ebp,esp
  401913:	push   edi
  401914:	push   esi
  401915:	xor    esi,esi
  401917:	push   ebx
  401918:	sub    esp,0xc
  40191b:	mov    edi,DWORD PTR ds:0x403280
  401921:	mov    eax,DWORD PTR [edi]
  401923:	cmp    DWORD PTR [eax],0x0
  401926:	jmp    0x401946
  401928:	mov    ecx,DWORD PTR [ebp+0x8]
  40192b:	mov    ebx,DWORD PTR [edi]
  40192d:	mov    DWORD PTR [esp+0x4],ecx
  401931:	mov    edx,DWORD PTR [ebx+esi*8]
  401934:	mov    DWORD PTR [esp],edx
  401937:	call   0x4026d0
  40193c:	test   eax,eax
  40193e:	je     0x401961
  401940:	inc    esi
  401941:	mov    eax,DWORD PTR [ebx+esi*8]
  401944:	test   eax,eax
  401946:	jne    0x401928
  401948:	mov    DWORD PTR [esp],0x40388a
  40194f:	call   0x401970
  401954:	add    esp,0xc
  401957:	mov    eax,0x64
  40195c:	pop    ebx
  40195d:	pop    esi
  40195e:	pop    edi
  40195f:	pop    ebp
  401960:	ret    
  401961:	mov    eax,DWORD PTR [ebx+esi*8+0x4]
  401965:	add    esp,0xc
  401968:	pop    ebx
  401969:	pop    esi
  40196a:	pop    edi
  40196b:	pop    ebp
  40196c:	ret    
  40196d:	lea    esi,[esi+0x0]
  401970:	push   ebp
  401971:	mov    ecx,0x403899
  401976:	mov    ebp,esp
  401978:	sub    esp,0x18
  40197b:	mov    edx,DWORD PTR [ebp+0x8]
  40197e:	mov    DWORD PTR [esp+0x4],ecx
  401982:	mov    eax,ds:0x40523c
  401987:	mov    DWORD PTR [esp+0xc],edx
  40198b:	mov    edx,DWORD PTR ds:0x405024
  401991:	mov    DWORD PTR [esp+0x8],eax
  401995:	mov    eax,DWORD PTR [edx+0xc]
  401998:	mov    DWORD PTR [esp],eax
  40199b:	call   0x402708
  4019a0:	inc    DWORD PTR ds:0x40522c
  4019a6:	leave  
  4019a7:	ret    
  4019a8:	nop
  4019a9:	lea    esi,[esi+eiz*1+0x0]
  4019b0:	push   ebp
  4019b1:	mov    ebp,esp
  4019b3:	push   edi
  4019b4:	xor    edi,edi
  4019b6:	push   esi
  4019b7:	push   ebx
  4019b8:	sub    esp,0x1c
  4019bb:	nop
  4019bc:	lea    esi,[esi+eiz*1+0x0]
  4019c0:	lea    eax,[ebp+0x8]
  4019c3:	mov    esi,0x1
  4019c8:	mov    DWORD PTR [esp+0x4],esi
  4019cc:	mov    DWORD PTR [esp],eax
  4019cf:	call   0x4013e0
  4019d4:	mov    DWORD PTR [esp],eax
  4019d7:	mov    ebx,eax
  4019d9:	call   0x4026e0
  4019de:	add    edi,eax
  4019e0:	cmp    edi,0x10
  4019e3:	jle    0x401a12
  4019e5:	jmp    0x401b43
  4019ea:	lea    esi,[esi+0x0]
  4019f0:	mov    edx,DWORD PTR ds:0x403280
  4019f6:	movsx  esi,al
  4019f9:	mov    ecx,DWORD PTR [edx+0x4]
  4019fc:	lea    eax,[edx+0x1fc]
  401a02:	cmp    ecx,eax
  401a04:	jae    0x401bda
  401a0a:	mov    eax,esi
  401a0c:	inc    ebx
  401a0d:	mov    BYTE PTR [ecx],al
  401a0f:	inc    DWORD PTR [edx+0x4]
  401a12:	movzx  eax,BYTE PTR [ebx]
  401a15:	test   al,al
  401a17:	jne    0x4019f0
  401a19:	mov    esi,DWORD PTR [ebp+0x8]
  401a1c:	movzx  ecx,BYTE PTR [esi]
  401a1f:	cmp    cl,0x20
  401a22:	setne  dl
  401a25:	xor    ebx,ebx
  401a27:	cmp    cl,0x9
  401a2a:	setne  bl
  401a2d:	test   ebx,edx
  401a2f:	je     0x401a35
  401a31:	test   cl,cl
  401a33:	jne    0x4019c0
  401a35:	mov    edx,DWORD PTR ds:0x403280
  401a3b:	mov    ecx,DWORD PTR [edx+0x4]
  401a3e:	lea    edi,[edx+0x1fc]
  401a44:	cmp    ecx,edi
  401a46:	jae    0x401bda
  401a4c:	mov    BYTE PTR [ecx],0x0
  401a4f:	mov    esi,DWORD PTR [ebp+0x8]
  401a52:	inc    DWORD PTR [edx+0x4]
  401a55:	jmp    0x401a58
  401a57:	inc    esi
  401a58:	movzx  edx,BYTE PTR [esi]
  401a5b:	cmp    dl,0x20
  401a5e:	sete   cl
  401a61:	cmp    dl,0x9
  401a64:	sete   al
  401a67:	or     eax,ecx
  401a69:	test   al,0x1
  401a6b:	jne    0x401a57
  401a6d:	mov    DWORD PTR [ebp+0x8],esi
  401a70:	movzx  eax,BYTE PTR [esi]
  401a73:	test   al,al
  401a75:	je     0x401bf2
  401a7b:	cmp    al,0x20
  401a7d:	mov    ebx,esi
  401a7f:	je     0x401a9f
  401a81:	cmp    al,0x9
  401a83:	jmp    0x401a9d
  401a85:	inc    ebx
  401a86:	movzx  ecx,BYTE PTR [ebx]
  401a89:	test   cl,cl
  401a8b:	setne  al
  401a8e:	xor    edx,edx
  401a90:	cmp    cl,0x20
  401a93:	setne  dl
  401a96:	test   edx,eax
  401a98:	je     0x401a9f
  401a9a:	cmp    cl,0x9
  401a9d:	jne    0x401a85
  401a9f:	mov    DWORD PTR [ebp+0x8],ebx
  401aa2:	xor    edi,edi
  401aa4:	movzx  edx,BYTE PTR [ebx]
  401aa7:	mov    BYTE PTR [ebp-0xd],dl
  401aaa:	mov    BYTE PTR [ebx],0x0
  401aad:	mov    eax,ds:0x403280
  401ab2:	mov    ebx,DWORD PTR [eax]
  401ab4:	mov    DWORD PTR [ebp-0x14],eax
  401ab7:	cmp    DWORD PTR [ebx],0x0
  401aba:	jmp    0x401ae2
  401abc:	lea    esi,[esi+eiz*1+0x0]
  401ac0:	mov    eax,DWORD PTR [ebp-0x14]
  401ac3:	mov    ebx,DWORD PTR [eax]
  401ac5:	mov    DWORD PTR [esp+0x4],esi
  401ac9:	mov    ecx,DWORD PTR [ebx+edi*8]
  401acc:	mov    DWORD PTR [esp],ecx
  401acf:	call   0x4026d0
  401ad4:	test   eax,eax
  401ad6:	je     0x401c21
  401adc:	inc    edi
  401add:	mov    edx,DWORD PTR [ebx+edi*8]
  401ae0:	test   edx,edx
  401ae2:	jne    0x401ac0
  401ae4:	mov    DWORD PTR [esp],0x40388a
  401aeb:	mov    ebx,0x64
  401af0:	call   0x401970
  401af5:	movzx  ecx,BYTE PTR [ebp-0xd]
  401af9:	mov    esi,DWORD PTR [ebp+0x8]
  401afc:	mov    BYTE PTR [esi],cl
  401afe:	mov    ecx,DWORD PTR [ebp+0x8]
  401b01:	jmp    0x401b04
  401b03:	inc    ecx
  401b04:	movzx  eax,BYTE PTR [ecx]
  401b07:	cmp    al,0x20
  401b09:	sete   dl
  401b0c:	cmp    al,0x9
  401b0e:	sete   al
  401b11:	or     eax,edx
  401b13:	test   al,0x1
  401b15:	jne    0x401b03
  401b17:	mov    DWORD PTR [ebp+0x8],ecx
  401b1a:	cmp    BYTE PTR [ecx],0x0
  401b1d:	jne    0x401b7a
  401b1f:	mov    edx,DWORD PTR ds:0x403280
  401b25:	mov    ecx,DWORD PTR [edx+0x4]
  401b28:	lea    edi,[edx+0x1fc]
  401b2e:	cmp    ecx,edi
  401b30:	jae    0x401bda
  401b36:	mov    BYTE PTR [ecx],bl
  401b38:	inc    DWORD PTR [edx+0x4]
  401b3b:	add    esp,0x1c
  401b3e:	pop    ebx
  401b3f:	pop    esi
  401b40:	pop    edi
  401b41:	pop    ebp
  401b42:	ret    
  401b43:	mov    eax,ds:0x40523c
  401b48:	mov    esi,0x4038a6
  401b4d:	mov    ebx,0x403899
  401b52:	mov    DWORD PTR [esp+0xc],esi
  401b56:	mov    ecx,DWORD PTR ds:0x405024
  401b5c:	mov    DWORD PTR [esp+0x4],ebx
  401b60:	mov    DWORD PTR [esp+0x8],eax
  401b64:	mov    edx,DWORD PTR [ecx+0xc]
  401b67:	mov    DWORD PTR [esp],edx
  401b6a:	call   0x402708
  401b6f:	inc    DWORD PTR ds:0x40522c
  401b75:	jmp    0x401a19
  401b7a:	mov    edx,DWORD PTR ds:0x403280
  401b80:	or     ebx,0x80
  401b86:	mov    ecx,DWORD PTR [edx+0x4]
  401b89:	lea    esi,[edx+0x1fc]
  401b8f:	cmp    ecx,esi
  401b91:	jae    0x401bda
  401b93:	mov    BYTE PTR [ecx],bl
  401b95:	inc    DWORD PTR [edx+0x4]
  401b98:	mov    ebx,DWORD PTR [ebp+0x8]
  401b9b:	cmp    BYTE PTR [ebx],0x0
  401b9e:	je     0x401c06
  401ba0:	xor    edx,edx
  401ba2:	lea    ecx,[ebp+0x8]
  401ba5:	mov    DWORD PTR [esp+0x4],edx
  401ba9:	mov    DWORD PTR [esp],ecx
  401bac:	call   0x4013e0
  401bb1:	mov    ebx,eax
  401bb3:	jmp    0x401bbd
  401bb5:	mov    eax,esi
  401bb7:	inc    ebx
  401bb8:	mov    BYTE PTR [ecx],al
  401bba:	inc    DWORD PTR [edx+0x4]
  401bbd:	movzx  eax,BYTE PTR [ebx]
  401bc0:	test   al,al
  401bc2:	je     0x401b98
  401bc4:	mov    edx,DWORD PTR ds:0x403280
  401bca:	movsx  esi,al
  401bcd:	mov    ecx,DWORD PTR [edx+0x4]
  401bd0:	lea    eax,[edx+0x1fc]
  401bd6:	cmp    ecx,eax
  401bd8:	jb     0x401bb5
  401bda:	mov    DWORD PTR [esp],0x403834
  401be1:	call   0x401970
  401be6:	mov    DWORD PTR [esp],0x1
  401bed:	call   0x402700
  401bf2:	mov    DWORD PTR [esp],0x4038b7
  401bf9:	call   0x401970
  401bfe:	add    esp,0x1c
  401c01:	pop    ebx
  401c02:	pop    esi
  401c03:	pop    edi
  401c04:	pop    ebp
  401c05:	ret    
  401c06:	mov    edx,DWORD PTR ds:0x403280
  401c0c:	mov    ecx,DWORD PTR [edx+0x4]
  401c0f:	lea    edi,[edx+0x1fc]
  401c15:	cmp    ecx,edi
  401c17:	jae    0x401bda
  401c19:	mov    BYTE PTR [ecx],0x0
  401c1c:	jmp    0x401b38
  401c21:	mov    ebx,DWORD PTR [ebx+edi*8+0x4]
  401c25:	jmp    0x401af5
  401c2a:	lea    esi,[esi+0x0]
  401c30:	push   ebp
  401c31:	mov    ebp,esp
  401c33:	push   esi
  401c34:	push   ebx
  401c35:	sub    esp,0x10
  401c38:	nop
  401c39:	lea    esi,[esi+eiz*1+0x0]
  401c40:	xor    edx,edx
  401c42:	lea    eax,[ebp+0x8]
  401c45:	mov    DWORD PTR [esp+0x4],edx
  401c49:	mov    DWORD PTR [esp],eax
  401c4c:	call   0x4013e0
  401c51:	mov    ebx,eax
  401c53:	jmp    0x401c77
  401c55:	mov    edx,DWORD PTR ds:0x403280
  401c5b:	movsx  esi,al
  401c5e:	mov    ecx,DWORD PTR [edx+0x4]
  401c61:	lea    eax,[edx+0x1fc]
  401c67:	cmp    ecx,eax
  401c69:	jae    0x401cf4
  401c6f:	mov    eax,esi
  401c71:	inc    ebx
  401c72:	mov    BYTE PTR [ecx],al
  401c74:	inc    DWORD PTR [edx+0x4]
  401c77:	movzx  eax,BYTE PTR [ebx]
  401c7a:	test   al,al
  401c7c:	jne    0x401c55
  401c7e:	mov    esi,DWORD PTR [ebp+0x8]
  401c81:	movzx  ecx,BYTE PTR [esi]
  401c84:	cmp    cl,0x20
  401c87:	setne  bl
  401c8a:	xor    edx,edx
  401c8c:	cmp    cl,0x9
  401c8f:	setne  dl
  401c92:	test   edx,ebx
  401c94:	je     0x401c9f
  401c96:	cmp    cl,0x3d
  401c99:	je     0x401c9f
  401c9b:	test   cl,cl
  401c9d:	jne    0x401c40
  401c9f:	mov    edx,DWORD PTR ds:0x403280
  401ca5:	mov    ecx,DWORD PTR [edx+0x4]
  401ca8:	lea    eax,[edx+0x1fc]
  401cae:	cmp    ecx,eax
  401cb0:	jae    0x401cf4
  401cb2:	mov    BYTE PTR [ecx],0x0
  401cb5:	mov    ecx,DWORD PTR [ebp+0x8]
  401cb8:	inc    DWORD PTR [edx+0x4]
  401cbb:	jmp    0x401cc1
  401cbd:	lea    esi,[esi+0x0]
  401cc0:	inc    ecx
  401cc1:	movzx  edx,BYTE PTR [ecx]
  401cc4:	cmp    dl,0x20
  401cc7:	sete   bl
  401cca:	cmp    dl,0x9
  401ccd:	sete   al
  401cd0:	or     eax,ebx
  401cd2:	test   al,0x1
  401cd4:	jne    0x401cc0
  401cd6:	lea    esi,[ecx+0x1]
  401cd9:	mov    DWORD PTR [ebp+0x8],esi
  401cdc:	cmp    BYTE PTR [ecx],0x3d
  401cdf:	je     0x401d0c
  401ce1:	mov    DWORD PTR [esp],0x4038c6
  401ce8:	call   0x401970
  401ced:	add    esp,0x10
  401cf0:	pop    ebx
  401cf1:	pop    esi
  401cf2:	pop    ebp
  401cf3:	ret    
  401cf4:	mov    DWORD PTR [esp],0x403834
  401cfb:	call   0x401970
  401d00:	mov    DWORD PTR [esp],0x1
  401d07:	call   0x402700
  401d0c:	mov    edx,DWORD PTR ds:0x403280
  401d12:	mov    ecx,DWORD PTR [edx+0x4]
  401d15:	lea    eax,[edx+0x1fc]
  401d1b:	cmp    ecx,eax
  401d1d:	jae    0x401cf4
  401d1f:	mov    BYTE PTR [ecx],0x81
  401d22:	mov    ecx,DWORD PTR [ebp+0x8]
  401d25:	inc    DWORD PTR [edx+0x4]
  401d28:	jmp    0x401d2b
  401d2a:	inc    ecx
  401d2b:	movzx  edx,BYTE PTR [ecx]
  401d2e:	cmp    dl,0x20
  401d31:	sete   bl
  401d34:	cmp    dl,0x9
  401d37:	sete   al
  401d3a:	or     eax,ebx
  401d3c:	test   al,0x1
  401d3e:	jne    0x401d2a
  401d40:	mov    DWORD PTR [ebp+0x8],ecx
  401d43:	cmp    BYTE PTR [ecx],0x0
  401d46:	je     0x401d91
  401d48:	lea    ecx,[ebp+0x8]
  401d4b:	xor    esi,esi
  401d4d:	mov    DWORD PTR [esp+0x4],esi
  401d51:	mov    DWORD PTR [esp],ecx
  401d54:	call   0x4013e0
  401d59:	mov    ebx,eax
  401d5b:	jmp    0x401d82
  401d5d:	lea    esi,[esi+0x0]
  401d60:	mov    edx,DWORD PTR ds:0x403280
  401d66:	movsx  esi,al
  401d69:	mov    ecx,DWORD PTR [edx+0x4]
  401d6c:	lea    eax,[edx+0x1fc]
  401d72:	cmp    ecx,eax
  401d74:	jae    0x401cf4
  401d7a:	mov    eax,esi
  401d7c:	inc    ebx
  401d7d:	mov    BYTE PTR [ecx],al
  401d7f:	inc    DWORD PTR [edx+0x4]
  401d82:	movzx  eax,BYTE PTR [ebx]
  401d85:	test   al,al
  401d87:	jne    0x401d60
  401d89:	mov    ebx,DWORD PTR [ebp+0x8]
  401d8c:	cmp    BYTE PTR [ebx],0x0
  401d8f:	jne    0x401d48
  401d91:	mov    edx,DWORD PTR ds:0x403280
  401d97:	mov    ecx,DWORD PTR [edx+0x4]
  401d9a:	lea    esi,[edx+0x1fc]
  401da0:	cmp    ecx,esi
  401da2:	jae    0x401cf4
  401da8:	mov    BYTE PTR [ecx],0x0
  401dab:	inc    DWORD PTR [edx+0x4]
  401dae:	add    esp,0x10
  401db1:	pop    ebx
  401db2:	pop    esi
  401db3:	pop    ebp
  401db4:	ret    
  401db5:	lea    esi,[esi+eiz*1+0x0]
  401db9:	lea    edi,[edi+eiz*1+0x0]
  401dc0:	push   ebp
  401dc1:	mov    ebp,esp
  401dc3:	push   esi
  401dc4:	push   ebx
  401dc5:	sub    esp,0x10
  401dc8:	mov    esi,DWORD PTR [ebp+0x8]
  401dcb:	mov    DWORD PTR [esp],esi
  401dce:	call   0x401730
  401dd3:	test   eax,eax
  401dd5:	jne    0x401e83
  401ddb:	movzx  ecx,BYTE PTR [esi]
  401dde:	mov    ebx,esi
  401de0:	cmp    cl,0x20
  401de3:	sete   dl
  401de6:	cmp    cl,0x9
  401de9:	sete   al
  401dec:	or     eax,edx
  401dee:	test   al,0x1
  401df0:	je     0x401e8a
  401df6:	lea    esi,[esi+0x0]
  401df9:	lea    edi,[edi+eiz*1+0x0]
  401e00:	inc    ebx
  401e01:	movzx  ecx,BYTE PTR [ebx]
  401e04:	cmp    cl,0x20
  401e07:	sete   al
  401e0a:	cmp    cl,0x9
  401e0d:	sete   dl
  401e10:	or     eax,edx
  401e12:	test   al,0x1
  401e14:	jne    0x401e00
  401e16:	xor    esi,esi
  401e18:	cmp    cl,0xa
  401e1b:	setne  al
  401e1e:	xor    edx,edx
  401e20:	cmp    cl,0xd
  401e23:	setne  dl
  401e26:	test   edx,eax
  401e28:	je     0x401e60
  401e2a:	test   cl,cl
  401e2c:	je     0x401e60
  401e2e:	movzx  ecx,BYTE PTR [ebx]
  401e31:	jmp    0x401e4e
  401e33:	inc    esi
  401e34:	movzx  ecx,BYTE PTR [ebx+esi*1]
  401e38:	cmp    cl,0xa
  401e3b:	setne  al
  401e3e:	xor    edx,edx
  401e40:	cmp    cl,0xd
  401e43:	setne  dl
  401e46:	test   edx,eax
  401e48:	je     0x401e60
  401e4a:	test   cl,cl
  401e4c:	je     0x401e60
  401e4e:	cmp    cl,0x23
  401e51:	jne    0x401e33
  401e53:	test   esi,esi
  401e55:	je     0x401e60
  401e57:	cmp    BYTE PTR [ebx+esi*1-0x1],0x5c
  401e5c:	je     0x401e33
  401e5e:	xchg   ax,ax
  401e60:	mov    BYTE PTR [ebx+esi*1],0x0
  401e64:	cmp    BYTE PTR [ebx],0x0
  401e67:	je     0x401e83
  401e69:	cmp    DWORD PTR ds:0x403280,0x40502c
  401e73:	je     0x401e8f
  401e75:	mov    DWORD PTR [ebp+0x8],ebx
  401e78:	add    esp,0x10
  401e7b:	pop    ebx
  401e7c:	pop    esi
  401e7d:	pop    ebp
  401e7e:	jmp    0x4019b0
  401e83:	add    esp,0x10
  401e86:	pop    ebx
  401e87:	pop    esi
  401e88:	pop    ebp
  401e89:	ret    
  401e8a:	movzx  ecx,BYTE PTR [esi]
  401e8d:	jmp    0x401e16
  401e8f:	mov    DWORD PTR [ebp+0x8],ebx
  401e92:	add    esp,0x10
  401e95:	pop    ebx
  401e96:	pop    esi
  401e97:	pop    ebp
  401e98:	jmp    0x401c30
  401e9d:	lea    esi,[esi+0x0]
  401ea0:	push   ebp
  401ea1:	mov    eax,0x10
  401ea6:	mov    ebp,esp
  401ea8:	push   edi
  401ea9:	push   esi
  401eaa:	push   ebx
  401eab:	sub    esp,0x43c
  401eb1:	and    esp,0xfffffff0
  401eb4:	call   0x4024e0
  401eb9:	call   0x4026a0
  401ebe:	mov    eax,DWORD PTR [ebp+0xc]
  401ec1:	mov    ebx,0x405454
  401ec6:	mov    esi,0x405254
  401ecb:	mov    edx,DWORD PTR [ebp+0x8]
  401ece:	mov    edi,0x4031e0
  401ed3:	mov    DWORD PTR [esp+0x4],eax
  401ed7:	mov    DWORD PTR [esp],edx
  401eda:	call   0x401220
  401edf:	mov    DWORD PTR ds:0x405450,ebx
  401ee5:	mov    ebx,DWORD PTR ds:0x405008
  401eeb:	mov    ecx,0x403000
  401ef0:	mov    DWORD PTR ds:0x40524c,ecx
  401ef6:	xor    eax,eax
  401ef8:	mov    edx,0x405034
  401efd:	mov    DWORD PTR ds:0x405250,esi
  401f03:	cld    
  401f04:	mov    ecx,0x2
  401f09:	mov    DWORD PTR ds:0x40544c,edi
  401f0f:	mov    esi,ebx
  401f11:	mov    ds:0x40502c,eax
  401f16:	mov    edi,0x4038d0
  401f1b:	mov    DWORD PTR ds:0x405030,edx
  401f21:	repz cmps BYTE PTR ds:[esi],BYTE PTR es:[edi]
  401f23:	jne    0x4023e5
  401f29:	mov    edi,DWORD PTR ds:0x405024
  401f2f:	mov    ebx,DWORD PTR [edi+0x4]
  401f32:	mov    DWORD PTR [ebp-0x420],ebx
  401f38:	xor    ecx,ecx
  401f3a:	xor    esi,esi
  401f3c:	lea    edi,[ebp-0x418]
  401f42:	mov    DWORD PTR ds:0x40522c,ecx
  401f48:	mov    DWORD PTR ds:0x40523c,esi
  401f4e:	xchg   ax,ax
  401f50:	mov    DWORD PTR [esp],edi
  401f53:	mov    esi,DWORD PTR [ebp-0x420]
  401f59:	mov    ebx,0x400
  401f5e:	mov    DWORD PTR [esp+0x4],ebx
  401f62:	mov    DWORD PTR [esp+0x8],esi
  401f66:	call   0x4026a8
  401f6b:	test   eax,eax
  401f6d:	je     0x402058
  401f73:	inc    DWORD PTR ds:0x40523c
  401f79:	mov    DWORD PTR [esp],edi
  401f7c:	call   0x401730
  401f81:	test   eax,eax
  401f83:	jne    0x401f50
  401f85:	movzx  ecx,BYTE PTR [ebp-0x418]
  401f8c:	mov    ebx,edi
  401f8e:	cmp    cl,0x20
  401f91:	sete   dl
  401f94:	cmp    cl,0x9
  401f97:	sete   al
  401f9a:	or     eax,edx
  401f9c:	test   al,0x1
  401f9e:	je     0x4023d0
  401fa4:	lea    esi,[esi+0x0]
  401faa:	lea    edi,[edi+0x0]
  401fb0:	inc    ebx
  401fb1:	movzx  ecx,BYTE PTR [ebx]
  401fb4:	cmp    cl,0x20
  401fb7:	sete   al
  401fba:	cmp    cl,0x9
  401fbd:	sete   dl
  401fc0:	or     eax,edx
  401fc2:	test   al,0x1
  401fc4:	jne    0x401fb0
  401fc6:	xor    esi,esi
  401fc8:	cmp    cl,0xa
  401fcb:	setne  al
  401fce:	xor    edx,edx
  401fd0:	cmp    cl,0xd
  401fd3:	setne  dl
  401fd6:	test   edx,eax
  401fd8:	je     0x402010
  401fda:	test   cl,cl
  401fdc:	je     0x402010
  401fde:	movzx  ecx,BYTE PTR [ebx]
  401fe1:	jmp    0x401ffe
  401fe3:	inc    esi
  401fe4:	movzx  ecx,BYTE PTR [ebx+esi*1]
  401fe8:	cmp    cl,0xa
  401feb:	setne  al
  401fee:	xor    edx,edx
  401ff0:	cmp    cl,0xd
  401ff3:	setne  dl
  401ff6:	test   edx,eax
  401ff8:	je     0x402010
  401ffa:	test   cl,cl
  401ffc:	je     0x402010
  401ffe:	cmp    cl,0x23
  402001:	jne    0x401fe3
  402003:	test   esi,esi
  402005:	je     0x402010
  402007:	cmp    BYTE PTR [ebx+esi*1-0x1],0x5c
  40200c:	je     0x401fe3
  40200e:	xchg   ax,ax
  402010:	mov    BYTE PTR [ebx+esi*1],0x0
  402014:	cmp    BYTE PTR [ebx],0x0
  402017:	je     0x401f50
  40201d:	cmp    DWORD PTR ds:0x403280,0x40502c
  402027:	je     0x4023d8
  40202d:	mov    DWORD PTR [esp],ebx
  402030:	mov    ebx,0x400
  402035:	call   0x4019b0
  40203a:	mov    DWORD PTR [esp+0x4],ebx
  40203e:	mov    esi,DWORD PTR [ebp-0x420]
  402044:	mov    DWORD PTR [esp],edi
  402047:	mov    DWORD PTR [esp+0x8],esi
  40204b:	call   0x4026a8
  402050:	test   eax,eax
  402052:	jne    0x401f73
  402058:	mov    eax,ds:0x40522c
  40205d:	test   eax,eax
  40205f:	jg     0x4024a1
  402065:	mov    eax,ds:0x40500c
  40206a:	test   eax,eax
  40206c:	je     0x402449
  402072:	mov    DWORD PTR [esp],eax
  402075:	mov    edx,0x4038d2
  40207a:	mov    esi,0x403284
  40207f:	mov    DWORD PTR [esp+0x4],edx
  402083:	call   0x4026b8
  402088:	test   eax,eax
  40208a:	mov    edi,eax
  40208c:	mov    ebx,0x3
  402091:	je     0x4024c4
  402097:	mov    esi,esi
  402099:	lea    edi,[edi+eiz*1+0x0]
  4020a0:	mov    DWORD PTR [esp],esi
  4020a3:	mov    edx,0x1
  4020a8:	mov    eax,0x1
  4020ad:	mov    DWORD PTR [esp+0xc],edi
  4020b1:	inc    esi
  4020b2:	mov    DWORD PTR [esp+0x8],edx
  4020b6:	mov    DWORD PTR [esp+0x4],eax
  4020ba:	call   0x4026c0
  4020bf:	mov    ecx,ebx
  4020c1:	dec    ebx
  4020c2:	test   ecx,ecx
  4020c4:	jg     0x4020a0
  4020c6:	mov    DWORD PTR [esp+0xc],edi
  4020ca:	mov    eax,0x1
  4020cf:	mov    esi,0x1
  4020d4:	mov    DWORD PTR [esp+0x4],esi
  4020d8:	mov    DWORD PTR [esp+0x8],eax
  4020dc:	mov    DWORD PTR [esp],0x40328b
  4020e3:	call   0x4026c0
  4020e8:	mov    ecx,0x40524c
  4020ed:	mov    ebx,DWORD PTR ds:0x405250
  4020f3:	neg    ecx
  4020f5:	sub    ecx,0x8
  4020f8:	mov    esi,ecx
  4020fa:	add    esi,ebx
  4020fc:	mov    DWORD PTR [ebp-0x424],ecx
  402102:	cmp    esi,0xfff
  402108:	ja     0x402478
  40210e:	mov    DWORD PTR [esp+0xc],edi
  402112:	mov    ecx,esi
  402114:	mov    ebx,0x1
  402119:	mov    DWORD PTR [esp+0x8],ebx
  40211d:	mov    edx,0x1
  402122:	and    ecx,0x3f
  402125:	mov    DWORD PTR [esp+0x4],edx
  402129:	lea    ebx,[ebp-0x419]
  40212f:	shr    esi,0x6
  402132:	mov    BYTE PTR [ebp-0x419],cl
  402138:	mov    DWORD PTR [esp],ebx
  40213b:	call   0x4026c0
  402140:	mov    DWORD PTR [esp],ebx
  402143:	mov    eax,esi
  402145:	mov    ecx,0x1
  40214a:	mov    BYTE PTR [ebp-0x419],al
  402150:	mov    esi,0x1
  402155:	mov    DWORD PTR [esp+0x8],esi
  402159:	mov    esi,0x405254
  40215e:	mov    DWORD PTR [esp+0xc],edi
  402162:	mov    DWORD PTR [esp+0x4],ecx
  402166:	call   0x4026c0
  40216b:	mov    eax,DWORD PTR [ebp-0x424]
  402171:	mov    edx,DWORD PTR ds:0x405250
  402177:	add    eax,edx
  402179:	lea    ebx,[eax-0x1]
  40217c:	jmp    0x4021a2
  40217e:	xchg   ax,ax
  402180:	mov    DWORD PTR [esp],esi
  402183:	mov    edx,0x1
  402188:	mov    eax,0x1
  40218d:	mov    DWORD PTR [esp+0xc],edi
  402191:	inc    esi
  402192:	mov    DWORD PTR [esp+0x8],edx
  402196:	mov    DWORD PTR [esp+0x4],eax
  40219a:	call   0x4026c0
  40219f:	mov    eax,ebx
  4021a1:	dec    ebx
  4021a2:	test   eax,eax
  4021a4:	jg     0x402180
  4021a6:	mov    DWORD PTR [esp+0xc],edi
  4021aa:	mov    eax,0x1
  4021af:	mov    esi,0x1
  4021b4:	mov    DWORD PTR [esp+0x4],esi
  4021b8:	mov    DWORD PTR [esp+0x8],eax
  4021bc:	mov    DWORD PTR [esp],0x40328c
  4021c3:	call   0x4026c0
  4021c8:	mov    ecx,0x40544c
  4021cd:	mov    ebx,DWORD PTR ds:0x405450
  4021d3:	neg    ecx
  4021d5:	sub    ecx,0x8
  4021d8:	mov    esi,ecx
  4021da:	add    esi,ebx
  4021dc:	mov    DWORD PTR [ebp-0x428],ecx
  4021e2:	cmp    esi,0xfff
  4021e8:	ja     0x402478
  4021ee:	mov    DWORD PTR [esp+0xc],edi
  4021f2:	mov    ecx,esi
  4021f4:	mov    ebx,0x1
  4021f9:	mov    DWORD PTR [esp+0x8],ebx
  4021fd:	mov    edx,0x1
  402202:	and    ecx,0x3f
  402205:	mov    DWORD PTR [esp+0x4],edx
  402209:	lea    ebx,[ebp-0x41a]
  40220f:	shr    esi,0x6
  402212:	mov    BYTE PTR [ebp-0x41a],cl
  402218:	mov    DWORD PTR [esp],ebx
  40221b:	call   0x4026c0
  402220:	mov    DWORD PTR [esp],ebx
  402223:	mov    eax,esi
  402225:	mov    ecx,0x1
  40222a:	mov    BYTE PTR [ebp-0x41a],al
  402230:	mov    esi,0x1
  402235:	mov    DWORD PTR [esp+0x8],esi
  402239:	mov    esi,0x405454
  40223e:	mov    DWORD PTR [esp+0xc],edi
  402242:	mov    DWORD PTR [esp+0x4],ecx
  402246:	call   0x4026c0
  40224b:	mov    eax,DWORD PTR [ebp-0x428]
  402251:	mov    edx,DWORD PTR ds:0x405450
  402257:	add    eax,edx
  402259:	lea    ebx,[eax-0x1]
  40225c:	jmp    0x402282
  40225e:	xchg   ax,ax
  402260:	mov    DWORD PTR [esp],esi
  402263:	mov    edx,0x1
  402268:	mov    eax,0x1
  40226d:	mov    DWORD PTR [esp+0xc],edi
  402271:	inc    esi
  402272:	mov    DWORD PTR [esp+0x8],edx
  402276:	mov    DWORD PTR [esp+0x4],eax
  40227a:	call   0x4026c0
  40227f:	mov    eax,ebx
  402281:	dec    ebx
  402282:	test   eax,eax
  402284:	jg     0x402260
  402286:	mov    DWORD PTR [esp+0xc],edi
  40228a:	mov    eax,0x1
  40228f:	mov    esi,0x1
  402294:	mov    DWORD PTR [esp+0x4],esi
  402298:	mov    DWORD PTR [esp+0x8],eax
  40229c:	mov    DWORD PTR [esp],0x40328d
  4022a3:	call   0x4026c0
  4022a8:	mov    ecx,0x40502c
  4022ad:	mov    ebx,DWORD PTR ds:0x405030
  4022b3:	neg    ecx
  4022b5:	sub    ecx,0x8
  4022b8:	mov    esi,ecx
  4022ba:	add    esi,ebx
  4022bc:	mov    DWORD PTR [ebp-0x42c],ecx
  4022c2:	cmp    esi,0xfff
  4022c8:	ja     0x402478
  4022ce:	mov    DWORD PTR [esp+0xc],edi
  4022d2:	mov    eax,esi
  4022d4:	mov    ebx,0x1
  4022d9:	mov    DWORD PTR [esp+0x8],ebx
  4022dd:	mov    edx,0x1
  4022e2:	lea    ebx,[ebp-0x41b]
  4022e8:	mov    DWORD PTR [esp+0x4],edx
  4022ec:	and    eax,0x3f
  4022ef:	shr    esi,0x6
  4022f2:	mov    DWORD PTR [esp],ebx
  4022f5:	mov    BYTE PTR [ebp-0x41b],al
  4022fb:	call   0x4026c0
  402300:	mov    DWORD PTR [esp],ebx
  402303:	mov    ecx,esi
  402305:	mov    eax,0x1
  40230a:	mov    BYTE PTR [ebp-0x41b],cl
  402310:	mov    esi,0x1
  402315:	mov    DWORD PTR [esp+0x4],esi
  402319:	mov    esi,0x405034
  40231e:	mov    DWORD PTR [esp+0xc],edi
  402322:	mov    DWORD PTR [esp+0x8],eax
  402326:	call   0x4026c0
  40232b:	mov    eax,DWORD PTR [ebp-0x42c]
  402331:	mov    edx,DWORD PTR ds:0x405030
  402337:	add    eax,edx
  402339:	lea    ebx,[eax-0x1]
  40233c:	jmp    0x402362
  40233e:	xchg   ax,ax
  402340:	mov    DWORD PTR [esp],esi
  402343:	mov    edx,0x1
  402348:	mov    ecx,0x1
  40234d:	mov    DWORD PTR [esp+0xc],edi
  402351:	inc    esi
  402352:	mov    DWORD PTR [esp+0x8],edx
  402356:	mov    DWORD PTR [esp+0x4],ecx
  40235a:	call   0x4026c0
  40235f:	mov    eax,ebx
  402361:	dec    ebx
  402362:	test   eax,eax
  402364:	jg     0x402340
  402366:	mov    DWORD PTR [esp+0xc],edi
  40236a:	mov    ebx,0x1
  40236f:	mov    esi,0x1
  402374:	mov    DWORD PTR [esp+0x8],ebx
  402378:	mov    ebx,0x2
  40237d:	mov    DWORD PTR [esp+0x4],esi
  402381:	mov    esi,0x403288
  402386:	mov    DWORD PTR [esp],0x40328e
  40238d:	call   0x4026c0
  402392:	lea    esi,[esi+eiz*1+0x0]
  402399:	lea    edi,[edi+eiz*1+0x0]
  4023a0:	mov    DWORD PTR [esp],esi
  4023a3:	mov    edx,0x1
  4023a8:	mov    ecx,0x1
  4023ad:	mov    DWORD PTR [esp+0xc],edi
  4023b1:	inc    esi
  4023b2:	mov    DWORD PTR [esp+0x8],edx
  4023b6:	mov    DWORD PTR [esp+0x4],ecx
  4023ba:	call   0x4026c0
  4023bf:	mov    eax,ebx
  4023c1:	dec    ebx
  4023c2:	test   eax,eax
  4023c4:	jg     0x4023a0
  4023c6:	lea    esp,[ebp-0xc]
  4023c9:	xor    eax,eax
  4023cb:	pop    ebx
  4023cc:	pop    esi
  4023cd:	pop    edi
  4023ce:	pop    ebp
  4023cf:	ret    
  4023d0:	movzx  ecx,BYTE PTR [edi]
  4023d3:	jmp    0x401fc6
  4023d8:	mov    DWORD PTR [esp],ebx
  4023db:	call   0x401c30
  4023e0:	jmp    0x401f50
  4023e5:	mov    DWORD PTR [esp],ebx
  4023e8:	mov    esi,0x4038d5
  4023ed:	mov    DWORD PTR [esp+0x4],esi
  4023f1:	call   0x4026b8
  4023f6:	mov    DWORD PTR [ebp-0x420],eax
  4023fc:	test   eax,eax
  4023fe:	jne    0x401f38
  402404:	mov    edi,DWORD PTR ds:0x405008
  40240a:	mov    DWORD PTR [esp],edi
  40240d:	call   0x4026b0
  402412:	mov    ebx,DWORD PTR ds:0x405024
  402418:	mov    edx,0x23
  40241d:	mov    ecx,0x1
  402422:	mov    eax,DWORD PTR [ebx+0xc]
  402425:	mov    DWORD PTR [esp+0x8],edx
  402429:	mov    DWORD PTR [esp+0x4],ecx
  40242d:	mov    DWORD PTR [esp+0xc],eax
  402431:	mov    DWORD PTR [esp],0x4035a0
  402438:	call   0x4026c0
  40243d:	mov    DWORD PTR [esp],0x1
  402444:	call   0x402700
  402449:	mov    DWORD PTR [esp],0x4038d7
  402450:	call   0x4026d8
  402455:	mov    ds:0x40500c,eax
  40245a:	test   eax,eax
  40245c:	jne    0x402072
  402462:	mov    DWORD PTR [esp],0x4038df
  402469:	call   0x401100
  40246e:	mov    ds:0x40500c,eax
  402473:	jmp    0x402072
  402478:	mov    DWORD PTR [esp+0x8],esi
  40247c:	mov    edx,DWORD PTR ds:0x405024
  402482:	mov    ecx,0x1000
  402487:	mov    DWORD PTR [esp+0xc],ecx
  40248b:	mov    ebx,0x403868
  402490:	mov    DWORD PTR [esp+0x4],ebx
  402494:	mov    edi,DWORD PTR [edx+0xc]
  402497:	mov    DWORD PTR [esp],edi
  40249a:	call   0x402708
  40249f:	jmp    0x40243d
  4024a1:	mov    DWORD PTR [esp+0x8],eax
  4024a5:	mov    ecx,DWORD PTR ds:0x405024
  4024ab:	mov    eax,0x4038e8
  4024b0:	mov    DWORD PTR [esp+0x4],eax
  4024b4:	mov    edi,DWORD PTR [ecx+0xc]
  4024b7:	mov    DWORD PTR [esp],edi
  4024ba:	call   0x402708
  4024bf:	jmp    0x40243d
  4024c4:	mov    ebx,DWORD PTR ds:0x40500c
  4024ca:	mov    DWORD PTR [esp],ebx
  4024cd:	call   0x4026b0
  4024d2:	jmp    0x40243d
  4024d7:	nop
  4024d8:	nop
  4024d9:	nop
  4024da:	nop
  4024db:	nop
  4024dc:	nop
  4024dd:	nop
  4024de:	nop
  4024df:	nop
  4024e0:	push   ecx
  4024e1:	mov    ecx,esp
  4024e3:	add    ecx,0x8
  4024e6:	cmp    eax,0x1000
  4024eb:	jb     0x4024fd
  4024ed:	sub    ecx,0x1000
  4024f3:	or     DWORD PTR [ecx],0x0
  4024f6:	sub    eax,0x1000
  4024fb:	jmp    0x4024e6
  4024fd:	sub    ecx,eax
  4024ff:	or     DWORD PTR [ecx],0x0
  402502:	mov    eax,esp
  402504:	mov    esp,ecx
  402506:	mov    ecx,DWORD PTR [eax]
  402508:	mov    eax,DWORD PTR [eax+0x4]
  40250b:	jmp    eax
  40250d:	nop
  40250e:	nop
  40250f:	nop
  402510:	push   ebp
  402511:	xor    eax,eax
  402513:	mov    ebp,esp
  402515:	sub    esp,0x18
  402518:	mov    DWORD PTR [ebp-0x4],esi
  40251b:	mov    esi,DWORD PTR [ebp+0x8]
  40251e:	mov    DWORD PTR [ebp-0x8],ebx
  402521:	xor    ebx,ebx
  402523:	mov    DWORD PTR [esp+0x4],eax
  402527:	mov    DWORD PTR [esp],esi
  40252a:	call   0x402570
  40252f:	sub    esp,0x8
  402532:	test   eax,eax
  402534:	je     0x402540
  402536:	mov    DWORD PTR [esp],ebx
  402539:	call   DWORD PTR ds:0x4060d0
  40253f:	nop
  402540:	sub    esp,0xc0
  402546:	lea    ebx,[esp+0x17]
  40254a:	and    ebx,0xfffffff0
  40254d:	mov    DWORD PTR [ebx],0x0
  402553:	mov    DWORD PTR [esp+0x4],ebx
  402557:	mov    DWORD PTR [esp],esi
  40255a:	call   0x402570
  40255f:	sub    esp,0x8
  402562:	jmp    0x402536
  402564:	nop
  402565:	nop
  402566:	nop
  402567:	nop
  402568:	nop
  402569:	nop
  40256a:	nop
  40256b:	nop
  40256c:	nop
  40256d:	nop
  40256e:	nop
  40256f:	nop
  402570:	push   ebp
  402571:	xor    eax,eax
  402573:	mov    ebp,esp
  402575:	push   ebx
  402576:	sub    esp,0x4
  402579:	mov    ebx,DWORD PTR [ebp+0xc]
  40257c:	test   ebx,ebx
  40257e:	je     0x402670
  402584:	mov    DWORD PTR [ebx+0x4],0xa8
  40258b:	xor    ecx,ecx
  40258d:	mov    edx,0x2f
  402592:	mov    DWORD PTR [ebx+0x8],0x3e8
  402599:	test   eax,eax
  40259b:	mov    DWORD PTR [ebx+0xc],0xd
  4025a2:	mov    DWORD PTR [ebx+0x80],ecx
  4025a8:	mov    DWORD PTR [ebx+0x84],edx
  4025ae:	mov    DWORD PTR [ebx+0x2c],0x402fb8
  4025b5:	mov    DWORD PTR [ebx+0x30],0x402fc0
  4025bc:	mov    DWORD PTR [ebx+0x14],0x405020
  4025c3:	jne    0x402660
  4025c9:	mov    DWORD PTR [ebx+0x10],0x405024
  4025d0:	mov    DWORD PTR [ebx+0x78],0x0
  4025d7:	mov    ecx,DWORD PTR [ebp+0x8]
  4025da:	mov    edx,DWORD PTR [ebp+0x0]
  4025dd:	mov    DWORD PTR [ebx+0x48],0x402f50
  4025e4:	mov    DWORD PTR [ebx+0x28],ecx
  4025e7:	mov    DWORD PTR [ebx],edx
  4025e9:	mov    DWORD PTR [ebx+0x4c],0x402f40
  4025f0:	mov    DWORD PTR [ebx+0x50],0x402f30
  4025f7:	mov    DWORD PTR [ebx+0x54],0x402f20
  4025fe:	mov    DWORD PTR [ebx+0x24],0x405028
  402605:	mov    DWORD PTR [ebx+0x18],0x402f10
  40260c:	mov    DWORD PTR [ebx+0x1c],0x402f08
  402613:	mov    DWORD PTR [ebx+0x20],0x402f00
  40261a:	mov    DWORD PTR [ebx+0x44],0x4026f8
  402621:	mov    DWORD PTR [esp],0x0
  402628:	call   0x402f88
  40262d:	mov    DWORD PTR [ebx+0x7c],eax
  402630:	sub    esp,0x4
  402633:	mov    DWORD PTR [ebx+0x34],0x403000
  40263a:	mov    DWORD PTR [ebx+0x38],0x4039dc
  402641:	mov    DWORD PTR [ebx+0x3c],0x405000
  402648:	mov    DWORD PTR [ebx+0x40],0x40566c
  40264f:	call   0x402ec0
  402654:	mov    eax,0x1
  402659:	mov    ebx,DWORD PTR [ebp-0x4]
  40265c:	leave  
  40265d:	ret    0x8
  402660:	mov    eax,DWORD PTR [ebx+0xa4]
  402666:	mov    ds:0x405024,eax
  40266b:	jmp    0x4025d0
  402670:	mov    DWORD PTR [esp],0x8
  402677:	call   0x402f60
  40267c:	mov    edx,eax
  40267e:	xor    eax,eax
  402680:	cmp    edx,0xffffffff
  402683:	je     0x402659
  402685:	mov    ebx,edx
  402687:	mov    eax,0x1
  40268c:	jmp    0x402584
  402691:	nop
  402692:	nop
  402693:	nop
  402694:	nop
  402695:	nop
  402696:	nop
  402697:	nop
  402698:	nop
  402699:	nop
  40269a:	nop
  40269b:	nop
  40269c:	nop
  40269d:	nop
  40269e:	nop
  40269f:	nop
  4026a0:	jmp    DWORD PTR ds:0x4060bc
  4026a6:	nop
  4026a7:	nop
  4026a8:	jmp    DWORD PTR ds:0x4060d8
  4026ae:	nop
  4026af:	nop
  4026b0:	jmp    DWORD PTR ds:0x4060f8
  4026b6:	nop
  4026b7:	nop
  4026b8:	jmp    DWORD PTR ds:0x4060dc
  4026be:	nop
  4026bf:	nop
  4026c0:	jmp    DWORD PTR ds:0x4060e8
  4026c6:	nop
  4026c7:	nop
  4026c8:	jmp    DWORD PTR ds:0x4060fc
  4026ce:	nop
  4026cf:	nop
  4026d0:	jmp    DWORD PTR ds:0x406108
  4026d6:	nop
  4026d7:	nop
  4026d8:	jmp    DWORD PTR ds:0x4060ec
  4026de:	nop
  4026df:	nop
  4026e0:	jmp    DWORD PTR ds:0x406110
  4026e6:	nop
  4026e7:	nop
  4026e8:	jmp    DWORD PTR ds:0x406104
  4026ee:	nop
  4026ef:	nop
  4026f0:	jmp    DWORD PTR ds:0x40610c
  4026f6:	nop
  4026f7:	nop
  4026f8:	jmp    DWORD PTR ds:0x4060c4
  4026fe:	nop
  4026ff:	nop
  402700:	jmp    DWORD PTR ds:0x4060d4
  402706:	nop
  402707:	nop
  402708:	jmp    DWORD PTR ds:0x4060e0
  40270e:	nop
  40270f:	nop
  402710:	push   ebp
  402711:	mov    ebp,esp
  402713:	push   edi
  402714:	lea    edi,[ebp-0x1a8]
  40271a:	push   esi
  40271b:	push   ebx
  40271c:	sub    esp,0x2dc
  402722:	mov    DWORD PTR [esp],0xfffffff4
  402729:	call   0x402f90
  40272e:	sub    esp,0x4
  402731:	mov    esi,eax
  402733:	mov    eax,0x104
  402738:	mov    DWORD PTR [esp+0x8],eax
  40273c:	mov    DWORD PTR [esp+0x4],edi
  402740:	mov    DWORD PTR [esp],0x0
  402747:	call   0x402f98
  40274c:	sub    esp,0xc
  40274f:	cmp    esi,0xffffffff
  402752:	mov    ebx,eax
  402754:	je     0x402941
  40275a:	test   ebx,ebx
  40275c:	jle    0x402780
  40275e:	mov    DWORD PTR [esp],edi
  402761:	lea    ebx,[ebp-0x2b8]
  402767:	mov    DWORD PTR [esp+0x4],ebx
  40276b:	call   0x402f80
  402770:	test   eax,eax
  402772:	je     0x402874
  402778:	nop
  402779:	lea    esi,[esi+eiz*1+0x0]
  402780:	mov    eax,DWORD PTR [ebp+0x8]
  402783:	mov    edi,0x80
  402788:	lea    ecx,[ebp+0xc]
  40278b:	mov    DWORD PTR [esp+0x4],edi
  40278f:	lea    edi,[ebp-0x98]
  402795:	mov    DWORD PTR [esp+0xc],ecx
  402799:	mov    DWORD PTR [esp+0x8],eax
  40279d:	mov    DWORD PTR [esp],edi
  4027a0:	call   0x402f78
  4027a5:	cmp    BYTE PTR [ebp-0x2b8],0x0
  4027ac:	mov    DWORD PTR [ebp-0x2c0],eax
  4027b2:	mov    BYTE PTR [ebp-0x19],0x0
  4027b6:	je     0x402880
  4027bc:	mov    DWORD PTR [esp],esi
  4027bf:	xor    ecx,ecx
  4027c1:	lea    eax,[ebp-0x2bc]
  4027c7:	mov    DWORD PTR [esp+0x10],ecx
  4027cb:	mov    ebx,0x18
  4027d0:	mov    edx,0x403920
  4027d5:	mov    DWORD PTR [esp+0x8],ebx
  4027d9:	lea    ebx,[ebp-0x2b8]
  4027df:	mov    DWORD PTR [esp+0xc],eax
  4027e3:	mov    DWORD PTR [esp+0x4],edx
  4027e7:	call   0x402fa0
  4027ec:	sub    esp,0x14
  4027ef:	mov    ecx,ebx
  4027f1:	jmp    0x402800
  4027f3:	nop
  4027f4:	nop
  4027f5:	nop
  4027f6:	nop
  4027f7:	nop
  4027f8:	nop
  4027f9:	nop
  4027fa:	nop
  4027fb:	nop
  4027fc:	nop
  4027fd:	nop
  4027fe:	nop
  4027ff:	nop
  402800:	mov    eax,DWORD PTR [ecx]
  402802:	add    ecx,0x4
  402805:	lea    edx,[eax-0x1010101]
  40280b:	not    eax
  40280d:	and    edx,eax
  40280f:	mov    eax,edx
  402811:	and    eax,0x80808080
  402816:	je     0x402800
  402818:	and    edx,0x8080
  40281e:	jne    0x402826
  402820:	shr    eax,0x10
  402823:	add    ecx,0x2
  402826:	mov    DWORD PTR [esp+0x4],ebx
  40282a:	add    al,al
  40282c:	lea    eax,[ebp-0x2bc]
  402832:	sbb    ecx,0x3
  402835:	sub    ecx,ebx
  402837:	xor    edx,edx
  402839:	mov    DWORD PTR [esp+0x10],edx
  40283d:	xor    ebx,ebx
  40283f:	mov    DWORD PTR [esp+0x8],ecx
  402843:	mov    DWORD PTR [esp+0xc],eax
  402847:	mov    DWORD PTR [esp],esi
  40284a:	call   0x402fa0
  40284f:	sub    esp,0x14
  402852:	mov    ecx,0x2
  402857:	mov    edx,0x403940
  40285c:	mov    DWORD PTR [esp+0x10],ebx
  402860:	lea    ebx,[ebp-0x2bc]
  402866:	mov    DWORD PTR [esp+0xc],ebx
  40286a:	mov    DWORD PTR [esp+0x8],ecx
  40286e:	mov    DWORD PTR [esp+0x4],edx
  402872:	jmp    0x4028c9
  402874:	mov    BYTE PTR [ebp-0x2b8],0x0
  40287b:	jmp    0x402780
  402880:	mov    DWORD PTR [esp],esi
  402883:	xor    ebx,ebx
  402885:	mov    ecx,0x403920
  40288a:	mov    DWORD PTR [esp+0x10],ebx
  40288e:	mov    eax,0x18
  402893:	lea    ebx,[ebp-0x2bc]
  402899:	mov    DWORD PTR [esp+0x4],ecx
  40289d:	mov    DWORD PTR [esp+0xc],ebx
  4028a1:	mov    DWORD PTR [esp+0x8],eax
  4028a5:	call   0x402fa0
  4028aa:	sub    esp,0x14
  4028ad:	xor    edx,edx
  4028af:	mov    eax,0x12
  4028b4:	mov    DWORD PTR [esp+0x10],edx
  4028b8:	mov    ecx,0x403908
  4028bd:	mov    DWORD PTR [esp+0xc],ebx
  4028c1:	mov    DWORD PTR [esp+0x8],eax
  4028c5:	mov    DWORD PTR [esp+0x4],ecx
  4028c9:	mov    DWORD PTR [esp],esi
  4028cc:	call   0x402fa0
  4028d1:	mov    edx,DWORD PTR [ebp-0x2c0]
  4028d7:	sub    esp,0x14
  4028da:	xor    ecx,ecx
  4028dc:	mov    DWORD PTR [esp+0x10],ecx
  4028e0:	mov    DWORD PTR [esp+0x4],edi
  4028e4:	mov    edi,0x1
  4028e9:	mov    DWORD PTR [esp+0x8],edx
  4028ed:	mov    DWORD PTR [esp],esi
  4028f0:	mov    DWORD PTR [esp+0xc],ebx
  4028f4:	call   0x402fa0
  4028f9:	sub    esp,0x14
  4028fc:	mov    ecx,0x1
  402901:	mov    edx,0x403943
  402906:	mov    DWORD PTR [esp+0x8],ecx
  40290a:	xor    eax,eax
  40290c:	mov    DWORD PTR [esp+0x4],edx
  402910:	mov    DWORD PTR [esp],esi
  402913:	mov    esi,0xe0000269
  402918:	mov    DWORD PTR [esp+0x10],eax
  40291c:	mov    DWORD PTR [esp+0xc],ebx
  402920:	call   0x402fa0
  402925:	sub    esp,0x14
  402928:	mov    DWORD PTR [esp+0x8],edi
  40292c:	mov    DWORD PTR [esp+0x4],esi
  402930:	mov    DWORD PTR [esp],0xe
  402937:	call   0x402f60
  40293c:	call   0x402f70
  402941:	mov    DWORD PTR [esp],0xe
  402948:	mov    edx,0x1
  40294d:	mov    ecx,0xe0000269
  402952:	mov    DWORD PTR [esp+0x8],edx
  402956:	mov    DWORD PTR [esp+0x4],ecx
  40295a:	call   0x402f60
  40295f:	jmp    0x40275a
  402964:	lea    esi,[esi+0x0]
  40296a:	lea    edi,[edi+0x0]
  402970:	push   ebp
  402971:	mov    ebp,esp
  402973:	push   edi
  402974:	push   esi
  402975:	push   ebx
  402976:	sub    esp,0xbc
  40297c:	mov    eax,DWORD PTR [ebp+0x8]
  40297f:	mov    edx,DWORD PTR [ebp+0xc]
  402982:	sub    edx,eax
  402984:	cmp    edx,0x7
  402987:	jle    0x402a60
  40298d:	cmp    edx,0xb
  402990:	jg     0x402a68
  402996:	mov    esi,DWORD PTR [eax]
  402998:	test   esi,esi
  40299a:	jne    0x402a72
  4029a0:	mov    ebx,DWORD PTR [eax+0x4]
  4029a3:	test   ebx,ebx
  4029a5:	jne    0x402a72
  4029ab:	mov    edx,DWORD PTR [eax+0x8]
  4029ae:	lea    ebx,[eax+0xc]
  4029b1:	cmp    edx,0x1
  4029b4:	jne    0x402ea3
  4029ba:	cmp    ebx,DWORD PTR [ebp+0xc]
  4029bd:	jae    0x402a60
  4029c3:	lea    esi,[esi+0x0]
  4029c9:	lea    edi,[edi+eiz*1+0x0]
  4029d0:	mov    esi,DWORD PTR [ebx+0x4]
  4029d3:	mov    edi,DWORD PTR [ebp+0x10]
  4029d6:	mov    ecx,DWORD PTR [ebp+0x10]
  4029d9:	add    edi,esi
  4029db:	mov    esi,DWORD PTR [ebx]
  4029dd:	mov    DWORD PTR [ebp-0xb4],edi
  4029e3:	mov    edi,DWORD PTR [esi+ecx*1]
  4029e6:	mov    ecx,DWORD PTR [ebx+0x8]
  4029e9:	movzx  eax,cl
  4029ec:	cmp    eax,0x10
  4029ef:	je     0x402c66
  4029f5:	ja     0x402c50
  4029fb:	cmp    eax,0x8
  4029fe:	jne    0x402e79
  402a04:	mov    edx,DWORD PTR [ebp-0xb4]
  402a0a:	movzx  eax,BYTE PTR [edx]
  402a0d:	test   al,al
  402a0f:	mov    DWORD PTR [ebp-0xa4],eax
  402a15:	mov    edx,eax
  402a17:	jns    0x402a28
  402a19:	or     eax,0xffffff00
  402a1e:	xchg   ax,ax
  402a20:	mov    DWORD PTR [ebp-0xa4],eax
  402a26:	mov    edx,eax
  402a28:	mov    eax,DWORD PTR [ebp+0x10]
  402a2b:	add    esi,eax
  402a2d:	sub    edx,esi
  402a2f:	movzx  eax,cl
  402a32:	lea    esi,[edx+edi*1]
  402a35:	cmp    eax,0x10
  402a38:	mov    DWORD PTR [ebp-0xa4],esi
  402a3e:	je     0x402c91
  402a44:	ja     0x402b84
  402a4a:	cmp    eax,0x8
  402a4d:	je     0x402d32
  402a53:	add    ebx,0xc
  402a56:	cmp    ebx,DWORD PTR [ebp+0xc]
  402a59:	jb     0x4029d0
  402a5f:	nop
  402a60:	lea    esp,[ebp-0xc]
  402a63:	pop    ebx
  402a64:	pop    esi
  402a65:	pop    edi
  402a66:	pop    ebp
  402a67:	ret    
  402a68:	mov    ecx,DWORD PTR [eax]
  402a6a:	test   ecx,ecx
  402a6c:	je     0x402b38
  402a72:	cmp    eax,DWORD PTR [ebp+0xc]
  402a75:	mov    esi,eax
  402a77:	jae    0x402a60
  402a79:	lea    edi,[ebp-0x38]
  402a7c:	jmp    0x402abd
  402a7e:	xchg   ax,ax
  402a80:	mov    DWORD PTR [esp],ebx
  402a83:	mov    edx,0x4
  402a88:	lea    eax,[ebp-0x9c]
  402a8e:	mov    DWORD PTR [esp+0x8],edx
  402a92:	mov    DWORD PTR [esp+0x4],eax
  402a96:	call   0x402f68
  402a9b:	mov    ecx,DWORD PTR [ebp-0x24]
  402a9e:	cmp    ecx,0x40
  402aa1:	setne  bl
  402aa4:	cmp    ecx,0x4
  402aa7:	setne  dl
  402aaa:	movzx  eax,dl
  402aad:	test   eax,ebx
  402aaf:	jne    0x402b56
  402ab5:	add    esi,0x8
  402ab8:	cmp    esi,DWORD PTR [ebp+0xc]
  402abb:	jae    0x402a60
  402abd:	mov    eax,DWORD PTR [esi+0x4]
  402ac0:	mov    ebx,DWORD PTR [ebp+0x10]
  402ac3:	mov    ecx,DWORD PTR [esi]
  402ac5:	add    ebx,eax
  402ac7:	mov    edx,DWORD PTR [ebx]
  402ac9:	mov    eax,0x1c
  402ace:	mov    DWORD PTR [esp+0x8],eax
  402ad2:	mov    DWORD PTR [esp+0x4],edi
  402ad6:	add    ecx,edx
  402ad8:	mov    DWORD PTR [ebp-0x9c],ecx
  402ade:	mov    DWORD PTR [esp],ebx
  402ae1:	call   0x402fa8
  402ae6:	sub    esp,0xc
  402ae9:	test   eax,eax
  402aeb:	je     0x402e00
  402af1:	mov    edx,DWORD PTR [ebp-0x24]
  402af4:	cmp    edx,0x40
  402af7:	setne  cl
  402afa:	cmp    edx,0x4
  402afd:	setne  al
  402b00:	movzx  edx,al
  402b03:	test   edx,ecx
  402b05:	je     0x402a80
  402b0b:	lea    ecx,[ebp-0xa0]
  402b11:	mov    eax,DWORD PTR [ebp-0x2c]
  402b14:	mov    edx,0x40
  402b19:	mov    DWORD PTR [esp+0xc],ecx
  402b1d:	mov    ecx,DWORD PTR [ebp-0x38]
  402b20:	mov    DWORD PTR [esp+0x8],edx
  402b24:	mov    DWORD PTR [esp+0x4],eax
  402b28:	mov    DWORD PTR [esp],ecx
  402b2b:	call   0x402fb0
  402b30:	sub    esp,0x10
  402b33:	jmp    0x402a80
  402b38:	mov    edx,DWORD PTR [eax+0x4]
  402b3b:	test   edx,edx
  402b3d:	jne    0x402996
  402b43:	mov    edi,DWORD PTR [eax+0x8]
  402b46:	test   edi,edi
  402b48:	jne    0x402996
  402b4e:	add    eax,0xc
  402b51:	jmp    0x402996
  402b56:	mov    eax,DWORD PTR [ebp-0xa0]
  402b5c:	lea    edx,[ebp-0xa0]
  402b62:	mov    ecx,DWORD PTR [ebp-0x2c]
  402b65:	mov    DWORD PTR [esp+0xc],edx
  402b69:	mov    ebx,DWORD PTR [ebp-0x38]
  402b6c:	mov    DWORD PTR [esp+0x8],eax
  402b70:	mov    DWORD PTR [esp+0x4],ecx
  402b74:	mov    DWORD PTR [esp],ebx
  402b77:	call   0x402fb0
  402b7c:	sub    esp,0x10
  402b7f:	jmp    0x402ab5
  402b84:	cmp    eax,0x20
  402b87:	jne    0x402a53
  402b8d:	mov    ecx,DWORD PTR [ebp-0xb4]
  402b93:	mov    edx,0x1c
  402b98:	lea    edi,[ebp-0x98]
  402b9e:	mov    DWORD PTR [esp+0x8],edx
  402ba2:	mov    DWORD PTR [esp+0x4],edi
  402ba6:	mov    DWORD PTR [esp],ecx
  402ba9:	call   0x402fa8
  402bae:	sub    esp,0xc
  402bb1:	test   eax,eax
  402bb3:	je     0x402e94
  402bb9:	mov    edi,DWORD PTR [ebp-0x84]
  402bbf:	cmp    edi,0x40
  402bc2:	setne  cl
  402bc5:	cmp    edi,0x4
  402bc8:	setne  dl
  402bcb:	movzx  eax,dl
  402bce:	test   eax,ecx
  402bd0:	jne    0x402e19
  402bd6:	mov    edx,DWORD PTR [ebp-0xb4]
  402bdc:	lea    ecx,[ebp-0xa4]
  402be2:	mov    edi,0x4
  402be7:	mov    DWORD PTR [esp+0x8],edi
  402beb:	mov    DWORD PTR [esp+0x4],ecx
  402bef:	mov    DWORD PTR [esp],edx
  402bf2:	call   0x402f68
  402bf7:	mov    esi,DWORD PTR [ebp-0x84]
  402bfd:	cmp    esi,0x40
  402c00:	setne  cl
  402c03:	cmp    esi,0x4
  402c06:	setne  al
  402c09:	movzx  edi,al
  402c0c:	test   edi,ecx
  402c0e:	je     0x402a53
  402c14:	mov    eax,DWORD PTR [ebp-0x8c]
  402c1a:	lea    edx,[ebp-0xb0]
  402c20:	mov    esi,DWORD PTR [ebp-0xb0]
  402c26:	mov    DWORD PTR [esp+0xc],edx
  402c2a:	mov    DWORD PTR [esp+0x4],eax
  402c2e:	mov    eax,DWORD PTR [ebp-0x98]
  402c34:	mov    DWORD PTR [esp+0x8],esi
  402c38:	mov    DWORD PTR [esp],eax
  402c3b:	call   0x402fb0
  402c40:	sub    esp,0x10
  402c43:	add    ebx,0xc
  402c46:	jmp    0x402a56
  402c4b:	nop
  402c4c:	lea    esi,[esi+eiz*1+0x0]
  402c50:	cmp    eax,0x20
  402c53:	jne    0x402e79
  402c59:	mov    edx,DWORD PTR [ebp-0xb4]
  402c5f:	mov    eax,DWORD PTR [edx]
  402c61:	jmp    0x402a20
  402c66:	mov    edx,DWORD PTR [ebp-0xb4]
  402c6c:	movzx  eax,WORD PTR [edx]
  402c6f:	mov    edx,eax
  402c71:	mov    DWORD PTR [ebp-0xa4],eax
  402c77:	and    eax,0x8000
  402c7c:	test   ax,ax
  402c7f:	je     0x402a28
  402c85:	mov    eax,edx
  402c87:	or     eax,0xffff0000
  402c8c:	jmp    0x402a20
  402c91:	mov    edx,DWORD PTR [ebp-0xb4]
  402c97:	mov    ecx,0x1c
  402c9c:	lea    edi,[ebp-0x78]
  402c9f:	mov    DWORD PTR [esp+0x8],ecx
  402ca3:	mov    DWORD PTR [esp+0x4],edi
  402ca7:	mov    DWORD PTR [esp],edx
  402caa:	call   0x402fa8
  402caf:	sub    esp,0xc
  402cb2:	test   eax,eax
  402cb4:	je     0x402e94
  402cba:	mov    edi,DWORD PTR [ebp-0x64]
  402cbd:	cmp    edi,0x40
  402cc0:	setne  dl
  402cc3:	cmp    edi,0x4
  402cc6:	setne  al
  402cc9:	movzx  esi,al
  402ccc:	test   esi,edx
  402cce:	jne    0x402dd3
  402cd4:	mov    eax,DWORD PTR [ebp-0xb4]
  402cda:	lea    ecx,[ebp-0xa4]
  402ce0:	mov    edi,0x2
  402ce5:	mov    DWORD PTR [esp+0x8],edi
  402ce9:	mov    DWORD PTR [esp+0x4],ecx
  402ced:	mov    DWORD PTR [esp],eax
  402cf0:	call   0x402f68
  402cf5:	mov    esi,DWORD PTR [ebp-0x64]
  402cf8:	cmp    esi,0x40
  402cfb:	setne  cl
  402cfe:	cmp    esi,0x4
  402d01:	setne  dl
  402d04:	movzx  edi,dl
  402d07:	test   edi,ecx
  402d09:	je     0x402a53
  402d0f:	lea    eax,[ebp-0xac]
  402d15:	mov    esi,DWORD PTR [ebp-0xac]
  402d1b:	mov    edx,DWORD PTR [ebp-0x6c]
  402d1e:	mov    DWORD PTR [esp+0xc],eax
  402d22:	mov    eax,DWORD PTR [ebp-0x78]
  402d25:	mov    DWORD PTR [esp+0x8],esi
  402d29:	mov    DWORD PTR [esp+0x4],edx
  402d2d:	jmp    0x402c38
  402d32:	mov    ecx,DWORD PTR [ebp-0xb4]
  402d38:	lea    edx,[ebp-0x58]
  402d3b:	mov    edi,0x1c
  402d40:	mov    DWORD PTR [esp+0x8],edi
  402d44:	mov    DWORD PTR [esp+0x4],edx
  402d48:	mov    DWORD PTR [esp],ecx
  402d4b:	call   0x402fa8
  402d50:	sub    esp,0xc
  402d53:	test   eax,eax
  402d55:	je     0x402e94
  402d5b:	mov    edx,DWORD PTR [ebp-0x44]
  402d5e:	cmp    edx,0x40
  402d61:	setne  cl
  402d64:	cmp    edx,0x4
  402d67:	setne  al
  402d6a:	movzx  esi,al
  402d6d:	test   esi,ecx
  402d6f:	jne    0x402e4c
  402d75:	mov    eax,DWORD PTR [ebp-0xb4]
  402d7b:	lea    edx,[ebp-0xa4]
  402d81:	mov    edi,0x1
  402d86:	mov    DWORD PTR [esp+0x8],edi
  402d8a:	mov    DWORD PTR [esp+0x4],edx
  402d8e:	mov    DWORD PTR [esp],eax
  402d91:	call   0x402f68
  402d96:	mov    esi,DWORD PTR [ebp-0x44]
  402d99:	cmp    esi,0x40
  402d9c:	setne  dl
  402d9f:	cmp    esi,0x4
  402da2:	setne  cl
  402da5:	movzx  edi,cl
  402da8:	test   edi,edx
  402daa:	je     0x402a53
  402db0:	lea    eax,[ebp-0xa8]
  402db6:	mov    esi,DWORD PTR [ebp-0xa8]
  402dbc:	mov    ecx,DWORD PTR [ebp-0x4c]
  402dbf:	mov    DWORD PTR [esp+0xc],eax
  402dc3:	mov    eax,DWORD PTR [ebp-0x58]
  402dc6:	mov    DWORD PTR [esp+0x8],esi
  402dca:	mov    DWORD PTR [esp+0x4],ecx
  402dce:	jmp    0x402c38
  402dd3:	mov    edx,DWORD PTR [ebp-0x6c]
  402dd6:	lea    eax,[ebp-0xac]
  402ddc:	mov    esi,0x40
  402de1:	mov    DWORD PTR [esp+0xc],eax
  402de5:	mov    ecx,DWORD PTR [ebp-0x78]
  402de8:	mov    DWORD PTR [esp+0x8],esi
  402dec:	mov    DWORD PTR [esp+0x4],edx
  402df0:	mov    DWORD PTR [esp],ecx
  402df3:	call   0x402fb0
  402df8:	sub    esp,0x10
  402dfb:	jmp    0x402cd4
  402e00:	mov    DWORD PTR [esp+0x8],ebx
  402e04:	mov    DWORD PTR [esp],0x403948
  402e0b:	mov    esi,0x1c
  402e10:	mov    DWORD PTR [esp+0x4],esi
  402e14:	call   0x402710
  402e19:	mov    ecx,DWORD PTR [ebp-0x8c]
  402e1f:	lea    edx,[ebp-0xb0]
  402e25:	mov    eax,0x40
  402e2a:	mov    DWORD PTR [esp+0xc],edx
  402e2e:	mov    esi,DWORD PTR [ebp-0x98]
  402e34:	mov    DWORD PTR [esp+0x8],eax
  402e38:	mov    DWORD PTR [esp+0x4],ecx
  402e3c:	mov    DWORD PTR [esp],esi
  402e3f:	call   0x402fb0
  402e44:	sub    esp,0x10
  402e47:	jmp    0x402bd6
  402e4c:	mov    ecx,DWORD PTR [ebp-0x4c]
  402e4f:	lea    eax,[ebp-0xa8]
  402e55:	mov    esi,0x40
  402e5a:	mov    DWORD PTR [esp+0xc],eax
  402e5e:	mov    edi,DWORD PTR [ebp-0x58]
  402e61:	mov    DWORD PTR [esp+0x8],esi
  402e65:	mov    DWORD PTR [esp+0x4],ecx
  402e69:	mov    DWORD PTR [esp],edi
  402e6c:	call   0x402fb0
  402e71:	sub    esp,0x10
  402e74:	jmp    0x402d75
  402e79:	mov    DWORD PTR [esp],0x40397c
  402e80:	xor    edi,edi
  402e82:	movzx  ebx,cl
  402e85:	mov    DWORD PTR [ebp-0xa4],edi
  402e8b:	mov    DWORD PTR [esp+0x4],ebx
  402e8f:	call   0x402710
  402e94:	mov    ebx,DWORD PTR [ebp-0xb4]
  402e9a:	mov    DWORD PTR [esp+0x8],ebx
  402e9e:	jmp    0x402e04
  402ea3:	mov    DWORD PTR [esp+0x4],edx
  402ea7:	mov    DWORD PTR [esp],0x4039a8
  402eae:	call   0x402710
  402eb3:	lea    esi,[esi+0x0]
  402eb9:	lea    edi,[edi+eiz*1+0x0]
  402ec0:	push   ebp
  402ec1:	mov    ebp,esp
  402ec3:	sub    esp,0x18
  402ec6:	mov    eax,ds:0x404000
  402ecb:	test   eax,eax
  402ecd:	je     0x402ed1
  402ecf:	leave  
  402ed0:	ret    
  402ed1:	mov    eax,0x1
  402ed6:	mov    ecx,0x400000
  402edb:	mov    edx,0x405000
  402ee0:	mov    ds:0x404000,eax
  402ee5:	mov    DWORD PTR [esp+0x8],ecx
  402ee9:	mov    DWORD PTR [esp+0x4],edx
  402eed:	mov    DWORD PTR [esp],0x405000
  402ef4:	call   0x402970
  402ef9:	leave  
  402efa:	ret    
  402efb:	nop
  402efc:	nop
  402efd:	nop
  402efe:	nop
  402eff:	nop
  402f00:	jmp    DWORD PTR ds:0x406100
  402f06:	nop
  402f07:	nop
  402f08:	jmp    DWORD PTR ds:0x4060e4
  402f0e:	nop
  402f0f:	nop
  402f10:	jmp    DWORD PTR ds:0x4060f0
  402f16:	nop
  402f17:	nop
	...
  402f20:	push   ebp
  402f21:	mov    ebp,esp
  402f23:	pop    ebp
  402f24:	ret    
  402f25:	nop
  402f26:	nop
  402f27:	nop
  402f28:	nop
  402f29:	nop
  402f2a:	nop
  402f2b:	nop
  402f2c:	nop
  402f2d:	nop
  402f2e:	nop
  402f2f:	nop
  402f30:	push   ebp
  402f31:	mov    ebp,esp
  402f33:	pop    ebp
  402f34:	ret    
  402f35:	nop
  402f36:	nop
  402f37:	nop
  402f38:	nop
  402f39:	nop
  402f3a:	nop
  402f3b:	nop
  402f3c:	nop
  402f3d:	nop
  402f3e:	nop
  402f3f:	nop
  402f40:	push   ebp
  402f41:	mov    ebp,esp
  402f43:	pop    ebp
  402f44:	ret    
  402f45:	nop
  402f46:	nop
  402f47:	nop
  402f48:	nop
  402f49:	nop
  402f4a:	nop
  402f4b:	nop
  402f4c:	nop
  402f4d:	nop
  402f4e:	nop
  402f4f:	nop
  402f50:	push   ebp
  402f51:	mov    ebp,esp
  402f53:	pop    ebp
  402f54:	ret    
  402f55:	nop
  402f56:	nop
  402f57:	nop
  402f58:	nop
  402f59:	nop
  402f5a:	nop
  402f5b:	nop
  402f5c:	nop
  402f5d:	nop
  402f5e:	nop
  402f5f:	nop
  402f60:	jmp    DWORD PTR ds:0x4060cc
  402f66:	nop
  402f67:	nop
  402f68:	jmp    DWORD PTR ds:0x4060f4
  402f6e:	nop
  402f6f:	nop
  402f70:	jmp    DWORD PTR ds:0x4060c0
  402f76:	nop
  402f77:	nop
  402f78:	jmp    DWORD PTR ds:0x406114
  402f7e:	nop
  402f7f:	nop
  402f80:	jmp    DWORD PTR ds:0x4060c8
  402f86:	nop
  402f87:	nop
  402f88:	jmp    DWORD PTR ds:0x406124
  402f8e:	nop
  402f8f:	nop
  402f90:	jmp    DWORD PTR ds:0x406128
  402f96:	nop
  402f97:	nop
  402f98:	jmp    DWORD PTR ds:0x406120
  402f9e:	nop
  402f9f:	nop
  402fa0:	jmp    DWORD PTR ds:0x406134
  402fa6:	nop
  402fa7:	nop
  402fa8:	jmp    DWORD PTR ds:0x406130
  402fae:	nop
  402faf:	nop
  402fb0:	jmp    DWORD PTR ds:0x40612c
  402fb6:	nop
  402fb7:	nop
  402fb8:	(bad)  
  402fb9:	(bad)  
  402fba:	(bad)  
  402fbb:	inc    DWORD PTR [eax]
  402fbd:	add    BYTE PTR [eax],al
  402fbf:	add    bh,bh
  402fc1:	(bad)  
  402fc2:	(bad)  
  402fc3:	inc    DWORD PTR [eax]
  402fc5:	add    BYTE PTR [eax],al
	...

Disassembly of section .data:

00403000 <.data>:
  403000:	movs   BYTE PTR es:[edi],BYTE PTR ds:[esi]
  403001:	xor    al,BYTE PTR [eax+0x0]
  403004:	and    al,0x0
  403006:	add    BYTE PTR [eax],al
  403008:	mov    cl,0x32
  40300a:	inc    eax
  40300b:	add    BYTE PTR [edx],al
  40300d:	add    BYTE PTR [eax],al
  40300f:	add    BYTE PTR [ebx+0x1e004032],bh
  403015:	add    BYTE PTR [eax],al
  403017:	add    bl,cl
  403019:	xor    al,BYTE PTR [eax+0x0]
  40301c:	add    eax,DWORD PTR [eax]
  40301e:	add    BYTE PTR [eax],al
  403020:	xlat   BYTE PTR ds:[ebx]
  403021:	xor    al,BYTE PTR [eax+0x0]
  403024:	add    al,0x0
  403026:	add    BYTE PTR [eax],al
  403028:	jecxz  0x40305c
  40302a:	inc    eax
  40302b:	add    BYTE PTR ds:0xef000000,al
  403031:	xor    al,BYTE PTR [eax+0x0]
  403034:	and    al,BYTE PTR [eax]
  403036:	add    BYTE PTR [eax],al
  403038:	sti    
  403039:	xor    al,BYTE PTR [eax+0x0]
  40303c:	or     BYTE PTR [eax],al
  40303e:	add    BYTE PTR [eax],al
  403040:	add    DWORD PTR [ebx],esi
  403042:	inc    eax
  403043:	add    BYTE PTR [esi],al
  403045:	add    BYTE PTR [eax],al
  403047:	add    BYTE PTR [edi],al
  403049:	xor    eax,DWORD PTR [eax+0x0]
  40304c:	pop    es
  40304d:	add    BYTE PTR [eax],al
  40304f:	add    BYTE PTR [ebx+esi*1],dl
  403052:	inc    eax
  403053:	add    BYTE PTR [edi],al
  403055:	add    BYTE PTR [eax],al
  403057:	add    BYTE PTR [ebx],ah
  403059:	xor    eax,DWORD PTR [eax+0x0]
  40305c:	adc    BYTE PTR [eax],al
  40305e:	add    BYTE PTR [eax],al
  403060:	daa    
  403061:	xor    eax,DWORD PTR [eax+0x0]
  403064:	or     DWORD PTR [eax],eax
  403066:	add    BYTE PTR [eax],al
  403068:	das    
  403069:	xor    eax,DWORD PTR [eax+0x0]
  40306c:	aaa    
  40306d:	add    BYTE PTR [eax],al
  40306f:	add    BYTE PTR [esi],dh
  403071:	xor    eax,DWORD PTR [eax+0x0]
  403074:	or     al,BYTE PTR [eax]
  403076:	add    BYTE PTR [eax],al
  403078:	inc    eax
  403079:	xor    eax,DWORD PTR [eax+0x0]
  40307c:	or     al,BYTE PTR [eax]
  40307e:	add    BYTE PTR [eax],al
  403080:	dec    ecx
  403081:	xor    eax,DWORD PTR [eax+0x0]
  403084:	or     eax,DWORD PTR [eax]
  403086:	add    BYTE PTR [eax],al
  403088:	push   edi
  403089:	xor    eax,DWORD PTR [eax+0x0]
  40308c:	and    eax,DWORD PTR [eax]
  40308e:	add    BYTE PTR [eax],al
  403090:	xor    eax,DWORD PTR fs:[eax+0x0]
  403094:	xor    al,BYTE PTR [eax]
  403096:	add    BYTE PTR [eax],al
  403098:	jno    0x4030cd
  40309a:	inc    eax
  40309b:	add    BYTE PTR [eax+eax*1],cl
  40309e:	add    BYTE PTR [eax],al
  4030a0:	jnp    0x4030d5
  4030a2:	inc    eax
  4030a3:	add    BYTE PTR ds:0x8b000000,bl
  4030a9:	xor    eax,DWORD PTR [eax+0x0]
  4030ac:	or     eax,0x97000000
  4030b1:	xor    eax,DWORD PTR [eax+0x0]
  4030b4:	sub    BYTE PTR [eax],al
  4030b6:	add    BYTE PTR [eax],al
  4030b8:	test   eax,0xe004033
  4030bd:	add    BYTE PTR [eax],al
  4030bf:	add    BYTE PTR [ebp+0xf004033],dh
  4030c5:	add    BYTE PTR [eax],al
  4030c7:	add    cl,al
  4030c9:	xor    eax,DWORD PTR [eax+0x0]
  4030cc:	and    DWORD PTR [eax],eax
  4030ce:	add    BYTE PTR [eax],al
  4030d0:	int    0x33
  4030d2:	inc    eax
  4030d3:	add    BYTE PTR [eax],dl
  4030d5:	add    BYTE PTR [eax],al
  4030d7:	add    dh,dl
  4030d9:	xor    eax,DWORD PTR [eax+0x0]
  4030dc:	adc    DWORD PTR [eax],eax
  4030de:	add    BYTE PTR [eax],al
  4030e0:	loopne 0x403115
  4030e2:	inc    eax
  4030e3:	add    BYTE PTR [edx],dl
  4030e5:	add    BYTE PTR [eax],al
  4030e7:	add    dl,ch
  4030e9:	xor    eax,DWORD PTR [eax+0x0]
  4030ec:	adc    eax,DWORD PTR [eax]
  4030ee:	add    BYTE PTR [eax],al
  4030f0:	out    dx,eax
  4030f1:	xor    eax,DWORD PTR [eax+0x0]
  4030f4:	add    BYTE PTR es:[eax],al
  4030f7:	add    dl,bh
  4030f9:	xor    eax,DWORD PTR [eax+0x0]
  4030fc:	data16 add BYTE PTR [eax],al
  4030ff:	add    BYTE PTR [edx],al
  403101:	xor    al,0x40
  403103:	add    BYTE PTR [ecx],ch
  403105:	add    BYTE PTR [eax],al
  403107:	add    BYTE PTR [esi],cl
  403109:	xor    al,0x40
  40310b:	add    BYTE PTR [eax+eax*1],dl
  40310e:	add    BYTE PTR [eax],al
  403110:	sbb    BYTE PTR [eax+eax*2],dh
  403113:	add    BYTE PTR ds:0x21000000,dh
  403119:	xor    al,0x40
  40311b:	add    BYTE PTR [ebp+0x0],ah
  40311e:	add    BYTE PTR [eax],al
  403120:	sub    dh,BYTE PTR [eax+eax*2]
  403123:	add    BYTE PTR ds:0x32000000,dl
  403129:	xor    al,0x40
  40312b:	add    BYTE PTR ds:0x37000000,ah
  403131:	xor    al,0x40
  403133:	add    BYTE PTR [edi],dl
  403135:	add    BYTE PTR [eax],al
  403137:	add    BYTE PTR [ecx+0x34],al
  40313a:	inc    eax
  40313b:	add    BYTE PTR [esi],dh
  40313d:	add    BYTE PTR [eax],al
  40313f:	add    BYTE PTR [edx+0x34],cl
  403142:	inc    eax
  403143:	add    BYTE PTR [eax],bl
  403145:	add    BYTE PTR [eax],al
  403147:	add    BYTE PTR [edi+0x34],cl
  40314a:	inc    eax
  40314b:	add    BYTE PTR [eax+eax*1],dh
  40314e:	add    BYTE PTR [eax],al
  403150:	pop    ebx
  403151:	xor    al,0x40
  403153:	add    BYTE PTR [ecx],bl
  403155:	add    BYTE PTR [eax],al
  403157:	add    BYTE PTR [ebx+0x34],ah
  40315a:	inc    eax
  40315b:	add    BYTE PTR [ebx],cl
  40315d:	add    BYTE PTR [eax],al
  40315f:	add    BYTE PTR [ecx+0x34],dh
  403162:	inc    eax
  403163:	add    BYTE PTR [ebx],ch
  403165:	add    BYTE PTR [eax],al
  403167:	add    BYTE PTR [edi+0x34],bh
  40316a:	inc    eax
  40316b:	add    BYTE PTR [eax+eax*1],ch
  40316e:	add    BYTE PTR [eax],al
  403170:	xchg   ecx,eax
  403171:	xor    al,0x40
  403173:	add    BYTE PTR ds:0xa0000000,ch
  403179:	xor    al,0x40
  40317b:	add    BYTE PTR [esi],ch
  40317d:	add    BYTE PTR [eax],al
  40317f:	add    BYTE PTR [ebx+0x2a004034],dh
  403185:	add    BYTE PTR [eax],al
  403187:	add    al,al
  403189:	xor    al,0x40
  40318b:	add    BYTE PTR [edx],bl
  40318d:	add    BYTE PTR [eax],al
  40318f:	add    cl,cl
  403191:	xor    al,0x40
  403193:	add    BYTE PTR [ebx],bl
  403195:	add    BYTE PTR [eax],al
  403197:	add    bh,cl
  403199:	xor    al,0x40
  40319b:	add    BYTE PTR [eax+eax*1],bl
  40319e:	add    BYTE PTR [eax],al
  4031a0:	(bad)  
  4031a1:	xor    al,0x40
  4031a3:	add    BYTE PTR [edi],ch
  4031a5:	add    BYTE PTR [eax],al
  4031a7:	add    dl,ah
  4031a9:	xor    al,0x40
  4031ab:	add    BYTE PTR [edi],ch
  4031ad:	add    BYTE PTR [eax],al
  4031af:	add    al,dh
  4031b1:	xor    al,0x40
  4031b3:	add    BYTE PTR [edi],ah
  4031b5:	add    BYTE PTR [eax],al
  4031b7:	add    ah,bh
  4031b9:	xor    al,0x40
  4031bb:	add    BYTE PTR [edi],bl
  4031bd:	add    BYTE PTR [eax],al
  4031bf:	add    BYTE PTR [esi*1+0x200040],al
	...
  4031de:	add    BYTE PTR [eax],al
  4031e0:	or     esi,DWORD PTR ds:0x120040
  4031e6:	add    BYTE PTR [eax],al
  4031e8:	sbb    DWORD PTR ds:0x10040,esi
  4031ee:	add    BYTE PTR [eax],al
  4031f0:	and    esi,DWORD PTR ds:0x80040
  4031f6:	add    BYTE PTR [eax],al
  4031f8:	sub    dh,BYTE PTR ds:0xe0040
  4031fe:	add    BYTE PTR [eax],al
  403200:	and    esi,DWORD PTR [ebx]
  403202:	inc    eax
  403203:	add    BYTE PTR [edx],cl
  403205:	add    BYTE PTR [eax],al
  403207:	add    BYTE PTR [edi],ch
  403209:	xor    eax,0xf0040
  40320e:	add    BYTE PTR [eax],al
  403210:	ss xor eax,0x110040
  403216:	add    BYTE PTR [eax],al
  403218:	inc    esp
  403219:	xor    eax,0x90040
  40321e:	add    BYTE PTR [eax],al
  403220:	dec    ecx
  403221:	xor    eax,0x70040
  403226:	add    BYTE PTR [eax],al
  403228:	cli    
  403229:	xor    eax,DWORD PTR [eax+0x0]
  40322c:	data16 add BYTE PTR [eax],al
  40322f:	add    BYTE PTR [eax+0x35],dl
  403232:	inc    eax
  403233:	add    BYTE PTR [edx],al
  403235:	add    BYTE PTR [eax],al
  403237:	add    BYTE PTR [edx+0x35],bl
  40323a:	inc    eax
  40323b:	add    BYTE PTR [eax+eax*1],al
  40323e:	add    BYTE PTR [eax],al
  403240:	pop    edi
  403241:	xor    eax,0x130040
  403246:	add    BYTE PTR [eax],al
  403248:	addr16 xor eax,0x30040
  40324e:	add    BYTE PTR [eax],al
  403250:	ins    DWORD PTR es:[edi],dx
  403251:	xor    eax,0xd0040
  403256:	add    BYTE PTR [eax],al
  403258:	jo     0x40328f
  40325a:	inc    eax
  40325b:	add    BYTE PTR [ebx],cl
  40325d:	add    BYTE PTR [eax],al
  40325f:	add    BYTE PTR [edi+0x35],bh
  403262:	inc    eax
  403263:	add    BYTE PTR [eax+eax*1],cl
  403266:	add    BYTE PTR [eax],al
  403268:	mov    esi,DWORD PTR ds:0x50040
  40326e:	add    BYTE PTR [eax],al
  403270:	xchg   ebp,eax
  403271:	xor    eax,0x60040
	...
  40327e:	add    BYTE PTR [eax],al
  403280:	dec    esp
  403281:	push   edx
  403282:	inc    eax
  403283:	add    BYTE PTR [eax],al
  403285:	dec    ebp
  403286:	sub    eax,DWORD PTR [edi+0x45]
  403289:	outs   dx,BYTE PTR ds:[esi]
  40328a:	arpl   WORD PTR fs:[ebp+0x76],sp
  40328e:	js     0x40329b
  403290:	sub    BYTE PTR [esi],al
  403292:	add    DWORD PTR [ecx],eax
  403294:	add    DWORD PTR [eax],eax
	...
  40329e:	add    BYTE PTR [eax],al
  4032a0:	xor    al,0x33
  4032a2:	add    BYTE PTR ss:[edx+0x61],ah
  4032a6:	arpl   WORD PTR [ebx+0x2d],bp
  4032a9:	bound  esi,QWORD PTR [edx+0x61]
  4032ac:	arpl   WORD PTR [ebx+0x65],bp
  4032af:	je     0x4032b1
  4032b1:	bound  esp,QWORD PTR [ecx+0x63]
  4032b4:	imul   ebp,DWORD PTR ds:0x656e696c,0x0
  4032bb:	bound  esp,QWORD PTR [ecx+0x63]
  4032be:	imul   ebp,DWORD PTR ds:0x656e696c,0x2d
  4032c5:	outs   dx,WORD PTR ds:[esi]
  4032c7:	jb     0x40332c
  4032c9:	add    BYTE PTR gs:[edx+0x61],ah
  4032cd:	arpl   WORD PTR [ebx+0x2d],bp
  4032d0:	jae    0x403335
  4032d2:	jb     0x403339
  4032d4:	outs   dx,BYTE PTR gs:[esi]
  4032d6:	add    BYTE PTR [edx+0x61],ah
  4032d9:	arpl   WORD PTR [ebx+0x2d],bp
  4032dc:	jae    0x403341
  4032de:	jb     0x40334f
  4032e0:	ins    BYTE PTR es:[edi],dx
  4032e1:	ins    BYTE PTR es:[edi],dx
  4032e2:	add    BYTE PTR [edx+0x61],ah
  4032e5:	arpl   WORD PTR [ebx+0x2d],bp
  4032e8:	jae    0x40334f
  4032ea:	popa   
  4032eb:	jb     0x403350
  4032ed:	push   0x63616200
  4032f2:	imul   ebp,DWORD PTR ds:0x646e6977,0x6f
  4032f9:	ja     0x4032fb
  4032fb:	fs bound esi,QWORD PTR gs:[ebp+0x67]
  403300:	add    BYTE PTR [ecx+ebp*2+0x67],ah
  403304:	imul   esi,DWORD PTR [eax+eax*1+0x64],0x6c707369
  40330c:	popa   
  40330d:	jns    0x40333c
  40330f:	data16 ins BYTE PTR es:[edi],dx
  403311:	popa   
  403312:	add    BYTE PTR [si+0x69],ah
  403316:	jae    0x403388
  403318:	ins    BYTE PTR es:[edi],dx
  403319:	popa   
  40331a:	jns    0x403349
  40331c:	outs   dx,DWORD PTR ds:[esi]
  40331d:	jo     0x403393
  40331f:	imul   ebp,DWORD PTR [edi+0x6e],0x646e6500
  403326:	add    BYTE PTR [ebp+0x78],ah
  403329:	popa   
  40332a:	ins    DWORD PTR es:[edi],dx
  40332b:	imul   ebp,DWORD PTR [esi+0x65],0x6c696600
  403332:	je     0x403399
  403334:	jb     0x403336
  403336:	imul   si,WORD PTR [edx+0x73],0x2d74
  40333c:	arpl   WORD PTR [ebp+0x64],bp
  40333f:	add    BYTE PTR [esi+0x69],ah
  403342:	jb     0x4033b7
  403344:	je     0x4033a9
  403346:	ins    DWORD PTR es:[edi],dx
  403347:	add    BYTE PTR fs:[esi+0x6c],ah
  40334b:	jne    0x4033c0
  40334d:	push   0x7065722d
  403352:	popa   
  403353:	imul   ebp,DWORD PTR [esi+0x74],0x726f6600
  40335a:	ja     0x403389
  40335c:	bound  esi,QWORD PTR [edx+0x61]
  40335f:	arpl   WORD PTR [ebx+0x65],bp
  403362:	je     0x403364
  403364:	outs   dx,WORD PTR ds:[esi]
  403366:	jb     0x4033df
  403368:	sub    eax,0x65726f66
  40336d:	jbe    0x4033d4
  40336f:	jb     0x403371
  403371:	outs   dx,WORD PTR ds:[esi]
  403373:	jb     0x4033ec
  403375:	sub    eax,0x656e696c
  40337a:	add    BYTE PTR [esi+0x6f],ah
  40337d:	jb     0x4033f6
  40337f:	sub    eax,0x656e696c
  403384:	sub    eax,0x63726f66
  403389:	add    BYTE PTR gs:[esi+0x6f],ah
  40338d:	jb     0x403406
  40338f:	sub    eax,0x65726373
  403394:	outs   dx,BYTE PTR gs:[esi]
  403396:	add    BYTE PTR [esi+0x6f],ah
  403399:	jb     0x403412
  40339b:	sub    eax,0x65726373
  4033a0:	outs   dx,BYTE PTR gs:[esi]
  4033a2:	sub    eax,0x63726f66
  4033a7:	add    BYTE PTR gs:[esi+0x6f],ah
  4033ab:	jb     0x403424
  4033ad:	sub    eax,0x6f726373
  4033b2:	ins    BYTE PTR es:[edi],dx
  4033b3:	ins    BYTE PTR es:[edi],dx
  4033b4:	add    BYTE PTR [esi+0x6f],ah
  4033b7:	jb     0x403430
  4033b9:	sub    eax,0x72616573
  4033be:	arpl   WORD PTR [eax+0x0],bp
  4033c1:	outs   dx,WORD PTR ds:[esi]
  4033c3:	jb     0x40343c
  4033c5:	sub    eax,0x646e6977
  4033ca:	outs   dx,DWORD PTR ds:[esi]
  4033cb:	ja     0x4033cd
  4033cd:	outs   dx,DWORD PTR ds:[si]
  4033cf:	je     0x403440
  4033d1:	sub    eax,0x646e65
  4033d6:	outs   dx,DWORD PTR ds:[si]
  4033d8:	je     0x403449
  4033da:	sub    eax,0x656e696c
  4033df:	add    BYTE PTR [edi+0x6f],ah
  4033e2:	je     0x403453
  4033e4:	sub    eax,0x6b72616d
  4033e9:	add    BYTE PTR [eax+0x65],ch
  4033ec:	ins    BYTE PTR es:[edi],dx
  4033ed:	jo     0x4033ef
  4033ef:	imul   ebp,DWORD PTR [esi+0x64],0x662d7865
  4033f6:	imul   ebp,DWORD PTR [ebp+eiz*2+0x0],0x61766e69
  4033fe:	ins    BYTE PTR es:[edi],dx
  4033ff:	imul   esp,DWORD PTR [eax+eax*1+0x6c],0x2d746665
  403407:	jae    0x40346c
  403409:	jb     0x40347a
  40340b:	ins    BYTE PTR es:[edi],dx
  40340c:	ins    BYTE PTR es:[edi],dx
  40340d:	add    BYTE PTR [esi+0x65],ch
  403410:	js     0x403486
  403412:	sub    eax,0x656c6966
  403417:	add    BYTE PTR [esi+0x65],ch
  40341a:	js     0x403490
  40341c:	sub    eax,0x676174
  403421:	outs   dx,BYTE PTR ds:[esi]
  403422:	outs   dx,DWORD PTR ds:[esi]
  403423:	popa   
  403424:	arpl   WORD PTR [ecx+ebp*2+0x6f],si
  403428:	outs   dx,BYTE PTR ds:[esi]
  403429:	add    BYTE PTR [eax+0x65],dh
  40342c:	jb     0x403491
  40342e:	outs   dx,BYTE PTR gs:[esi]
  403430:	je     0x403432
  403432:	jo     0x40349d
  403434:	jo     0x40349b
  403436:	add    BYTE PTR [eax+0x72],dh
  403439:	gs jbe 0x403469
  40343c:	imul   bp,WORD PTR [ebp+eiz*2+0x0],0x7270
  403443:	gs jbe 0x403473
  403446:	je     0x4034a9
  403448:	add    BYTE PTR [bx+di+0x75],dh
  40344c:	imul   esi,DWORD PTR [eax+eax*1+0x72],0x766f6d65
  403454:	gs sub eax,0x656c6966
  40345a:	add    BYTE PTR [edx+0x65],dh
  40345d:	jo     0x4034c0
  40345f:	imul   ebp,DWORD PTR [esi+0x74],0x70657200
  403466:	popa   
  403467:	imul   ebp,DWORD PTR [esi+0x74],0x756c662d
  40346e:	jae    0x4034d8
  403470:	add    BYTE PTR [edx+0x65],dh
  403473:	jo     0x4034da
  403475:	popa   
  403476:	je     0x4034a5
  403478:	jae    0x4034df
  40347a:	popa   
  40347b:	jb     0x4034e0
  40347d:	push   0x70657200
  403482:	gs popa 
  403484:	je     0x4034b3
  403486:	jae    0x4034ed
  403488:	popa   
  403489:	jb     0x4034ee
  40348b:	push   0x6c6c612d
  403490:	add    BYTE PTR [edx+0x65],dh
  403493:	jbe    0x4034fa
  403495:	jb     0x40350a
  403497:	gs sub eax,0x72616573
  40349d:	arpl   WORD PTR [eax+0x0],bp
  4034a0:	jb     0x403507
  4034a2:	jbe    0x403509
  4034a4:	jb     0x403519
  4034a6:	gs sub eax,0x72616573
  4034ac:	arpl   WORD PTR [eax+0x2d],bp
  4034af:	popa   
  4034b0:	ins    BYTE PTR es:[edi],dx
  4034b1:	ins    BYTE PTR es:[edi],dx
  4034b2:	add    BYTE PTR [edx+0x69],dh
  4034b5:	addr16 push 0x63732d74
  4034bb:	jb     0x40352c
  4034bd:	ins    BYTE PTR es:[edi],dx
  4034be:	ins    BYTE PTR es:[edi],dx
  4034bf:	add    BYTE PTR [ebx+0x65],dh
  4034c2:	je     0x4034f1
  4034c4:	ins    DWORD PTR es:[edi],dx
  4034c5:	popa   
  4034c6:	jb     0x403533
  4034c8:	add    BYTE PTR [ebx+0x68],dh
  4034cb:	gs ins BYTE PTR es:[edi],dx
  4034cd:	ins    BYTE PTR es:[edi],dx
  4034ce:	add    BYTE PTR [ebx+0x74],dh
  4034d1:	popa   
  4034d2:	je     0x403549
  4034d4:	jae    0x4034d6
  4034d6:	je     0x403547
  4034d8:	addr16 ins BYTE PTR es:[di],dx
  4034db:	gs sub eax,0x67616c66
  4034e1:	add    BYTE PTR [edi+ebp*2+0x67],dh
  4034e5:	ins    BYTE PTR es:[di],dx
  4034e7:	gs sub eax,0x6974706f
  4034ed:	outs   dx,DWORD PTR ds:[esi]
  4034ee:	outs   dx,BYTE PTR ds:[esi]
  4034ef:	add    BYTE PTR [ebp+0x6e],dh
  4034f2:	outs   dx,DWORD PTR fs:[esi]
  4034f4:	sub    eax,0x696c6968
  4034f9:	je     0x403560
  4034fb:	add    BYTE PTR [esi+0x65],dh
  4034fe:	jb     0x403573
  403500:	imul   ebp,DWORD PTR [edi+0x6e],0x73697600
  403507:	jne    0x40356a
  403509:	ins    BYTE PTR es:[edi],dx
  40350a:	add    BYTE PTR [edx+0x61],ah
  40350d:	arpl   WORD PTR [ebx+0x2d],bp
  403510:	arpl   WORD PTR [edi+0x6d],bp
  403513:	jo     0x403581
  403515:	gs je  0x40357d
  403518:	add    BYTE PTR [edx+0x61],ah
  40351b:	arpl   WORD PTR [ebx+0x73],bp
  40351e:	jo     0x403581
  403520:	arpl   WORD PTR [ebp+0x0],sp
  403523:	fs gs ins BYTE PTR es:[edi],dx
  403526:	gs je  0x40358e
  403529:	add    BYTE PTR [edi+ebp*2+0x77],ah
  40352d:	outs   dx,BYTE PTR ds:[esi]
  40352e:	add    BYTE PTR [ebp+0x78],ah
  403531:	jo     0x403594
  403533:	outs   dx,BYTE PTR ds:[esi]
  403534:	add    BYTE PTR fs:[esi+0x6f],ah
  403538:	jb     0x4035b1
  40353a:	sub    eax,0x706d6f63
  40353f:	ins    BYTE PTR es:[edi],dx
  403540:	gs je  0x4035a8
  403543:	add    BYTE PTR [eax+0x6f],ch
  403546:	ins    DWORD PTR es:[edi],dx
  403547:	add    BYTE PTR gs:[ecx+0x6e],ch
  40354b:	jae    0x4035b2
  40354d:	jb     0x4035c3
  40354f:	add    BYTE PTR [ebx+0x69],ch
  403552:	ins    BYTE PTR es:[edi],dx
  403553:	ins    BYTE PTR es:[edi],dx
  403554:	sub    eax,0x656e696c
  403559:	add    BYTE PTR [ebp+eiz*2+0x66],ch
  40355d:	je     0x40355f
  40355f:	ins    BYTE PTR es:[edi],dx
  403560:	imul   esi,DWORD PTR [ebp+eiz*2+0x72],0x72006c61
  403568:	imul   esp,DWORD PTR [edi+0x68],0x70750074
  40356f:	add    BYTE PTR [edi+0x6f],dh
  403572:	jb     0x4035d8
  403574:	sub    eax,0x6b636162
  403579:	jae    0x4035eb
  40357b:	popa   
  40357c:	arpl   WORD PTR [ebp+0x0],sp
  40357f:	ja     0x4035f0
  403581:	jb     0x4035e7
  403583:	sub    eax,0x656c6564
  403588:	je     0x4035ef
  40358a:	add    BYTE PTR [edi+0x6f],dh
  40358d:	jb     0x4035f3
  40358f:	sub    eax,0x7466656c
  403594:	add    BYTE PTR [edi+0x6f],dh
  403597:	jb     0x4035fd
  403599:	sub    eax,0x68676972
  40359e:	je     0x4035a0
  4035a0:	jne    0x403615
  4035a2:	popa   
  4035a3:	cmp    ah,BYTE PTR gs:[bx+si]
  4035a7:	ins    BYTE PTR es:[edi],dx
  4035a8:	gs jae 0x40361e
  4035ab:	imul   esp,DWORD PTR [ebp+0x79],0x20
  4035af:	pop    ebx
  4035b0:	sub    eax,0x756f206f
  4035b5:	je     0x403627
  4035b7:	jne    0x40362d
  4035b9:	pop    ebp
  4035ba:	and    BYTE PTR [ebx+0x69],bl
  4035bd:	outs   dx,BYTE PTR ds:[esi]
  4035be:	jo     0x403635
  4035c0:	je     0x40361f
  4035c2:	or     al,BYTE PTR [eax]
  4035c4:	dec    eax
  4035c5:	dec    edi
  4035c6:	dec    ebp
  4035c7:	inc    ebp
  4035c8:	add    BYTE PTR [esi],ch
  4035ca:	add    BYTE PTR [eax],al
  4035cc:	arpl   WORD PTR [ecx+0x6e],sp
  4035cf:	outs   dx,BYTE PTR ds:[esi]
  4035d0:	outs   dx,DWORD PTR ds:[esi]
  4035d1:	je     0x4035f3
  4035d3:	imul   bp,WORD PTR [esi+0x64],0x2420
  4035d9:	dec    eax
  4035da:	dec    edi
  4035db:	dec    ebp
  4035dc:	inc    ebp
  4035dd:	and    BYTE PTR ds:0x69737520,ch
  4035e3:	outs   dx,BYTE PTR ds:[esi]
  4035e4:	and    BYTE PTR [bp+di+0x75],ah
  4035e8:	jb     0x40365c
  4035ea:	outs   dx,BYTE PTR gs:[esi]
  4035ec:	je     0x40360e
  4035ee:	imul   esi,DWORD PTR fs:[edx+0x65],0x726f7463
  4035f6:	jns    0x403602
  4035f8:	add    BYTE PTR ds:0x74756f2d,ch
  4035fe:	jo     0x403675
  403600:	je     0x403602
  403602:	sub    eax,0x7265762d
  403607:	jae    0x403672
  403609:	outs   dx,DWORD PTR ds:[esi]
  40360a:	outs   dx,BYTE PTR ds:[esi]
  40360b:	add    BYTE PTR [esi],ch
  40360d:	ins    BYTE PTR es:[edi],dx
  40360e:	gs jae 0x403684
  403611:	imul   esp,DWORD PTR [ebp+0x79],0x0
  403615:	ins    BYTE PTR es:[edi],dx
  403616:	gs jae 0x40368c
  403619:	imul   esp,DWORD PTR [ebp+0x79],0x20
  40361d:	and    BYTE PTR [esi+0x65],dh
  403620:	jb     0x403695
  403622:	imul   ebp,DWORD PTR [edi+0x6e],0xa732520
  403629:	add    BYTE PTR [ecx],cl
  40362b:	add    BYTE PTR ds:0x8000a00,cl
  403631:	add    BYTE PTR [ecx+0x6c],ch
  403634:	ins    BYTE PTR es:[edi],dx
  403635:	gs addr16 popa 
  403638:	ins    BYTE PTR es:[edi],dx
  403639:	and    BYTE PTR [ebx+0x68],ah
  40363c:	popa   
  40363d:	jb     0x40365f
  40363f:	popa   
  403640:	data16 je 0x4036a8
  403643:	jb     0x403665
  403645:	pop    esp
  403646:	imul   eax,DWORD PTR [eax],0x0
  403649:	add    BYTE PTR [eax],al
  40364b:	add    dl,ah
  40364d:	adc    al,0x40
  40364f:	add    dl,ah
  403651:	adc    al,0x40
  403653:	add    dl,ah
  403655:	adc    al,0x40
  403657:	add    dl,ah
  403659:	adc    al,0x40
  40365b:	add    dl,ah
  40365d:	adc    al,0x40
  40365f:	add    dl,ah
  403661:	adc    al,0x40
  403663:	add    dl,ah
  403665:	adc    al,0x40
  403667:	add    dl,ah
  403669:	adc    al,0x40
  40366b:	add    BYTE PTR [eax+0x14],dh
  40366e:	inc    eax
  40366f:	add    BYTE PTR [eax+0x14],dh
  403672:	inc    eax
  403673:	add    BYTE PTR [eax+0x14],dh
  403676:	inc    eax
  403677:	add    BYTE PTR [eax+0x14],dh
  40367a:	inc    eax
  40367b:	add    BYTE PTR [eax+0x14],dh
  40367e:	inc    eax
  40367f:	add    BYTE PTR [eax+0x14],dh
  403682:	inc    eax
  403683:	add    BYTE PTR [eax+0x14],dh
  403686:	inc    eax
  403687:	add    BYTE PTR [eax+0x14],dh
  40368a:	inc    eax
  40368b:	add    BYTE PTR [eax+0x14],dh
  40368e:	inc    eax
  40368f:	add    BYTE PTR [eax+0x14],dh
  403692:	inc    eax
  403693:	add    BYTE PTR [eax+0x14],dh
  403696:	inc    eax
  403697:	add    BYTE PTR [eax+0x14],dh
  40369a:	inc    eax
  40369b:	add    BYTE PTR [eax+0x14],dh
  40369e:	inc    eax
  40369f:	add    BYTE PTR [eax+0x14],dh
  4036a2:	inc    eax
  4036a3:	add    BYTE PTR [eax+0x14],dh
  4036a6:	inc    eax
  4036a7:	add    BYTE PTR [eax+0x14],dh
  4036aa:	inc    eax
  4036ab:	add    BYTE PTR [eax+0x14],dh
  4036ae:	inc    eax
  4036af:	add    BYTE PTR [eax+0x14],dh
  4036b2:	inc    eax
  4036b3:	add    BYTE PTR [eax+0x14],dh
  4036b6:	inc    eax
  4036b7:	add    BYTE PTR [eax+0x14],dh
  4036ba:	inc    eax
  4036bb:	add    BYTE PTR [eax+0x14],dh
  4036be:	inc    eax
  4036bf:	add    BYTE PTR [eax+0x14],dh
  4036c2:	inc    eax
  4036c3:	add    BYTE PTR [eax+0x14],dh
  4036c6:	inc    eax
  4036c7:	add    BYTE PTR [eax+0x14],dh
  4036ca:	inc    eax
  4036cb:	add    BYTE PTR [eax+0x14],dh
  4036ce:	inc    eax
  4036cf:	add    BYTE PTR [eax+0x14],dh
  4036d2:	inc    eax
  4036d3:	add    BYTE PTR [eax+0x14],dh
  4036d6:	inc    eax
  4036d7:	add    BYTE PTR [eax+0x14],dh
  4036da:	inc    eax
  4036db:	add    BYTE PTR [eax+0x14],dh
  4036de:	inc    eax
  4036df:	add    BYTE PTR [eax+0x14],dh
  4036e2:	inc    eax
  4036e3:	add    BYTE PTR [eax+0x14],dh
  4036e6:	inc    eax
  4036e7:	add    BYTE PTR [eax+0x14],dh
  4036ea:	inc    eax
  4036eb:	add    BYTE PTR [eax+0x14],dh
  4036ee:	inc    eax
  4036ef:	add    BYTE PTR [eax+0x14],dh
  4036f2:	inc    eax
  4036f3:	add    BYTE PTR [eax+0x14],dh
  4036f6:	inc    eax
  4036f7:	add    BYTE PTR [eax+0x14],dh
  4036fa:	inc    eax
  4036fb:	add    BYTE PTR [eax+0x14],dh
  4036fe:	inc    eax
  4036ff:	add    BYTE PTR [eax+0x14],dh
  403702:	inc    eax
  403703:	add    BYTE PTR [eax+0x14],dh
  403706:	inc    eax
  403707:	add    BYTE PTR [eax+0x14],dh
  40370a:	inc    eax
  40370b:	add    BYTE PTR [eax+0x14],dh
  40370e:	inc    eax
  40370f:	add    BYTE PTR [eax+0x14],dh
  403712:	inc    eax
  403713:	add    bl,dl
  403715:	adc    al,0x40
  403717:	add    BYTE PTR [eax+0x14],dh
  40371a:	inc    eax
  40371b:	add    BYTE PTR [eax+0x14],dh
  40371e:	inc    eax
  40371f:	add    BYTE PTR [ebx+0x70004014],bh
  403725:	adc    al,0x40
  403727:	add    BYTE PTR [eax+0x14],dh
  40372a:	inc    eax
  40372b:	add    BYTE PTR [eax+0x14],dh
  40372e:	inc    eax
  40372f:	add    BYTE PTR [eax+0x14],dh
  403732:	inc    eax
  403733:	add    BYTE PTR [eax+0x14],dh
  403736:	inc    eax
  403737:	add    BYTE PTR [ecx+0x70004014],ah
  40373d:	adc    al,0x40
  40373f:	add    BYTE PTR [eax+0x14],dh
  403742:	inc    eax
  403743:	add    BYTE PTR [edx+0x70004014],dl
  403749:	adc    al,0x40
  40374b:	add    BYTE PTR [eax+0x14],dh
  40374e:	inc    eax
  40374f:	add    BYTE PTR [eax+0x14],dh
  403752:	inc    eax
  403753:	add    BYTE PTR [esi+0x70004014],al
  403759:	adc    al,0x40
  40375b:	add    BYTE PTR [edx+0x14],bh
  40375e:	inc    eax
  40375f:	add    BYTE PTR [ebx+0x15],cl
  403762:	inc    eax
  403763:	add    BYTE PTR [eax],dh
  403765:	adc    eax,0x15300040
  40376a:	inc    eax
  40376b:	add    BYTE PTR [eax],dh
  40376d:	adc    eax,0x15300040
  403772:	inc    eax
  403773:	add    BYTE PTR [eax],dh
  403775:	adc    eax,0x15300040
  40377a:	inc    eax
  40377b:	add    BYTE PTR [eax],dh
  40377d:	adc    eax,0x15300040
  403782:	inc    eax
  403783:	add    BYTE PTR [eax],dh
  403785:	adc    eax,0x15300040
  40378a:	inc    eax
  40378b:	add    BYTE PTR [eax],dh
  40378d:	adc    eax,0x15300040
  403792:	inc    eax
  403793:	add    BYTE PTR [eax],dh
  403795:	adc    eax,0x15300040
  40379a:	inc    eax
  40379b:	add    BYTE PTR [eax],dh
  40379d:	adc    eax,0x15300040
  4037a2:	inc    eax
  4037a3:	add    BYTE PTR [ebx+0x30004015],ah
  4037a9:	adc    eax,0x15300040
  4037ae:	inc    eax
  4037af:	add    BYTE PTR [eax],dh
  4037b1:	adc    eax,0x15300040
  4037b6:	inc    eax
  4037b7:	add    BYTE PTR [eax],dh
  4037b9:	adc    eax,0x15300040
  4037be:	inc    eax
  4037bf:	add    BYTE PTR [eax],dh
  4037c1:	adc    eax,0x15300040
  4037c6:	inc    eax
  4037c7:	add    BYTE PTR [eax],dh
  4037c9:	adc    eax,0x15300040
  4037ce:	inc    eax
  4037cf:	add    BYTE PTR [eax],dh
  4037d1:	adc    eax,0x15300040
  4037d6:	inc    eax
  4037d7:	add    BYTE PTR [eax],dh
  4037d9:	adc    eax,0x15300040
  4037de:	inc    eax
  4037df:	add    BYTE PTR [edi-0x64ffbfeb],bl
  4037e5:	adc    eax,0x15300040
  4037ea:	inc    eax
  4037eb:	add    BYTE PTR [eax],dh
  4037ed:	adc    eax,0x15970040
  4037f2:	inc    eax
  4037f3:	add    BYTE PTR [eax],dh
  4037f5:	adc    eax,0x15300040
  4037fa:	inc    eax
  4037fb:	add    BYTE PTR [eax],dh
  4037fd:	adc    eax,0x15930040
  403802:	inc    eax
  403803:	add    BYTE PTR [eax],dh
  403805:	adc    eax,0x15300040
  40380a:	inc    eax
  40380b:	add    BYTE PTR [eax],dh
  40380d:	adc    eax,0x15300040
  403812:	inc    eax
  403813:	add    BYTE PTR [eax],dh
  403815:	adc    eax,0x158f0040
  40381a:	inc    eax
  40381b:	add    BYTE PTR [eax],dh
  40381d:	adc    eax,0x15300040
  403822:	inc    eax
  403823:	add    BYTE PTR [ebx+0x30004015],cl
  403829:	adc    eax,0x15300040
  40382e:	inc    eax
  40382f:	add    BYTE PTR [edi+0x74004015],al
  403835:	outs   dx,DWORD PTR ds:[esi]
  403836:	outs   dx,DWORD PTR ds:[esi]
  403837:	and    BYTE PTR [ebp+0x61],ch
  40383a:	outs   dx,BYTE PTR ds:[esi]
  40383b:	jns    0x40385d
  40383d:	arpl   WORD PTR [edi+0x6d],bp
  403840:	ins    DWORD PTR es:[edi],dx
  403841:	popa   
  403842:	outs   dx,BYTE PTR ds:[esi]
  403843:	fs jae 0x403846
  403846:	and    ebp,DWORD PTR [ecx+ebp*2+0x6e]
  40384a:	gs sub eax,0x74696465
  403850:	add    BYTE PTR [ebx],ah
  403852:	arpl   WORD PTR [edi+0x6d],bp
  403855:	ins    DWORD PTR es:[edi],dx
  403856:	popa   
  403857:	outs   dx,BYTE PTR ds:[esi]
  403858:	add    BYTE PTR fs:[ebx],ah
  40385b:	outs   dx,BYTE PTR gs:[esi]
  40385d:	jbe    0x40385f
  40385f:	and    esi,DWORD PTR [ebx+0x74]
  403862:	outs   dx,DWORD PTR ds:[esi]
  403863:	jo     0x403865
  403865:	add    BYTE PTR [eax],al
  403867:	add    BYTE PTR [ebp+0x72],ah
  40386a:	jb     0x4038db
  40386c:	jb     0x4038a8
  40386e:	and    BYTE PTR [ecx+0x6e],ch
  403871:	je     0x4038d8
  403873:	addr16 gs jb 0x403897
  403877:	je     0x4038e8
  403879:	outs   dx,DWORD PTR ds:[esi]
  40387a:	and    BYTE PTR [edx+0x69],ah
  40387d:	and    BYTE PTR [bx+si],ch
  403880:	and    eax,0x203e2064
  403885:	and    eax,0xa2964
  40388a:	jne    0x4038fa
  40388c:	imul   ebp,DWORD PTR [esi+0x6f],0x77
  403890:	outs   dx,BYTE PTR ds:[esi]
  403891:	and    BYTE PTR [ecx+0x63],ah
  403894:	je     0x4038ff
  403896:	outs   dx,DWORD PTR ds:[esi]
  403897:	outs   dx,BYTE PTR ds:[esi]
  403898:	add    BYTE PTR [ecx+ebp*2+0x6e],ch
  40389c:	and    BYTE PTR gs:0x25203a64,ah
  4038a3:	jae    0x4038af
  4038a5:	add    BYTE PTR [ebx+0x6f],ah
  4038a8:	ins    DWORD PTR es:[edi],dx
  4038a9:	ins    DWORD PTR es:[edi],dx
  4038aa:	popa   
  4038ab:	outs   dx,BYTE PTR ds:[esi]
  4038ac:	and    BYTE PTR fs:[edi+ebp*2+0x6f],dh
  4038b1:	and    BYTE PTR [edi+ebp*2+0x6e],ch
  4038b5:	add    BYTE PTR [di+0x69],ch
  4038b9:	jae    0x40392e
  4038bb:	imul   ebp,DWORD PTR [esi+0x67],0x74636120
  4038c2:	imul   ebp,DWORD PTR [edi+0x6e],0x73696d00
  4038c9:	jae    0x403934
  4038cb:	outs   dx,BYTE PTR ds:[esi]
  4038cc:	and    BYTE PTR [di],bh
  4038cf:	add    BYTE PTR ds:0x627700,ch
  4038d5:	jb     0x4038d7
  4038d7:	dec    esp
  4038d8:	inc    ebp
  4038d9:	push   ebx
  4038da:	push   ebx
  4038db:	dec    ebx
  4038dc:	inc    ebp
  4038dd:	pop    ecx
  4038de:	add    BYTE PTR [esi],ch
  4038e0:	ins    BYTE PTR es:[edi],dx
  4038e1:	gs jae 0x403957
  4038e4:	add    BYTE PTR [eax],al
  4038e6:	add    BYTE PTR [eax],al
  4038e8:	and    eax,0x72652064
  4038ed:	jb     0x40395e
  4038ef:	jb     0x403964
  4038f1:	cmp    esp,DWORD PTR [eax]
  4038f3:	outs   dx,BYTE PTR ds:[esi]
  4038f4:	outs   dx,DWORD PTR ds:[esi]
  4038f5:	and    BYTE PTR [edi+0x75],ch
  4038f8:	je     0x40396a
  4038fa:	jne    0x403970
  4038fc:	and    BYTE PTR [eax+0x72],dh
  4038ff:	outs   dx,DWORD PTR ds:[esi]
  403900:	fs jne 0x403966
  403903:	gs or  al,BYTE PTR fs:[eax]
  403907:	add    BYTE PTR [esi*2+0x6f6e6b6e],bh
  40390e:	ja     0x40397e
  403910:	and    BYTE PTR [ebp+0x6f],ch
  403913:	fs jne 0x403982
  403916:	gs cmp ah,BYTE PTR ds:[eax]
  40391a:	add    BYTE PTR [eax],al
  40391c:	adc    al,BYTE PTR [eax]
  40391e:	add    BYTE PTR [eax],al
  403920:	inc    ebx
  403921:	jns    0x40398a
  403923:	ja     0x40398e
  403925:	outs   dx,BYTE PTR ds:[esi]
  403926:	and    BYTE PTR [edx+0x75],dh
  403929:	outs   dx,BYTE PTR ds:[esi]
  40392a:	je     0x403995
  40392c:	ins    DWORD PTR es:[edi],dx
  40392d:	and    BYTE PTR gs:[esi+0x61],ah
  403931:	imul   ebp,DWORD PTR [ebp+esi*2+0x72],0x203a65
  403939:	add    BYTE PTR [eax],al
  40393b:	add    BYTE PTR [eax],bl
  40393d:	add    BYTE PTR [eax],al
  40393f:	add    BYTE PTR [edx],bh
  403941:	and    BYTE PTR [eax],al
  403943:	or     al,BYTE PTR [eax]
  403945:	add    BYTE PTR [eax],al
  403947:	add    BYTE PTR [eax],ah
  403949:	and    BYTE PTR [esi+0x69],dl
  40394c:	jb     0x4039c2
  40394e:	jne    0x4039b1
  403950:	ins    BYTE PTR es:[edi],dx
  403951:	push   ecx
  403952:	jne    0x4039b9
  403954:	jb     0x4039cf
  403956:	and    BYTE PTR [esi+0x61],ah
  403959:	imul   ebp,DWORD PTR [ebp+eiz*2+0x64],0x726f6620
  403961:	and    BYTE PTR ds:0x79622064,ah
  403967:	je     0x4039ce
  403969:	jae    0x40398b
  40396b:	popa   
  40396c:	je     0x40398e
  40396e:	popa   
  40396f:	fs fs jb 0x4039d8
  403973:	jae    0x4039e8
  403975:	and    BYTE PTR ds:0x70,ah
  40397b:	add    BYTE PTR [eax],ah
  40397d:	and    BYTE PTR [ebp+0x6e],dl
  403980:	imul   ebp,DWORD PTR [esi+0x6f],0x77
  403984:	outs   dx,BYTE PTR ds:[esi]
  403985:	and    BYTE PTR [eax+0x73],dh
  403988:	gs jne 0x4039ef
  40398b:	outs   dx,DWORD PTR ds:[esi]
  40398c:	and    BYTE PTR [edx+0x65],dh
  40398f:	ins    BYTE PTR es:[edi],dx
  403990:	outs   dx,DWORD PTR ds:[esi]
  403991:	arpl   WORD PTR [ecx+0x74],sp
  403994:	imul   ebp,DWORD PTR [edi+0x6e],0x74696220
  40399b:	and    BYTE PTR [ebx+0x69],dh
  40399e:	jp     0x403a05
  4039a0:	and    BYTE PTR ds:0xa2e64,ah
  4039a6:	add    BYTE PTR [eax],al
  4039a8:	and    BYTE PTR [eax],ah
  4039aa:	push   ebp
  4039ab:	outs   dx,BYTE PTR ds:[esi]
  4039ac:	imul   ebp,DWORD PTR [esi+0x6f],0x77
  4039b0:	outs   dx,BYTE PTR ds:[esi]
  4039b1:	and    BYTE PTR [eax+0x73],dh
  4039b4:	gs jne 0x403a1b
  4039b7:	outs   dx,DWORD PTR ds:[esi]
  4039b8:	and    BYTE PTR [edx+0x65],dh
  4039bb:	ins    BYTE PTR es:[edi],dx
  4039bc:	outs   dx,DWORD PTR ds:[esi]
  4039bd:	arpl   WORD PTR [ecx+0x74],sp
  4039c0:	imul   ebp,DWORD PTR [edi+0x6e],0x6f727020
  4039c7:	je     0x403a38
  4039c9:	arpl   WORD PTR [edi+0x6c],bp
  4039cc:	and    BYTE PTR [esi+0x65],dh
  4039cf:	jb     0x403a44
  4039d1:	imul   ebp,DWORD PTR [edi+0x6e],0x2e642520
  4039d8:	or     al,BYTE PTR [eax]
	...

Disassembly of section .data_cy:

00404000 <.data_cy>:
  404000:	add    BYTE PTR [eax],al
	...

Disassembly of section .bss:

00405000 <.bss>:
	...

Disassembly of section .idata:

00406000 <.idata>:
  406000:	cmp    al,0x60
	...
  40600a:	add    BYTE PTR [eax],al
  40600c:	or     al,0x63
  40600e:	add    BYTE PTR [eax],al
  406010:	mov    esp,0xa0000060
  406015:	pusha  
	...
  40601e:	add    BYTE PTR [eax],al
  406020:	xor    al,0x63
  406022:	add    BYTE PTR [eax],al
  406024:	and    BYTE PTR [ecx+0x0],ah
	...
  40603b:	add    BYTE PTR [ecx+eiz*2],bh
  40603e:	add    BYTE PTR [eax],al
  406040:	inc    esi
  406041:	popa   
  406042:	add    BYTE PTR [eax],al
  406044:	dec    esi
  406045:	popa   
  406046:	add    BYTE PTR [eax],al
  406048:	pop    eax
  406049:	popa   
  40604a:	add    BYTE PTR [eax],al
  40604c:	je     0x4060af
  40604e:	add    BYTE PTR [eax],al
  406050:	xchg   BYTE PTR [ecx+0x0],ah
  406053:	add    BYTE PTR [edx-0x55ffff9f],ah
  406059:	popa   
  40605a:	add    BYTE PTR [eax],al
  40605c:	mov    dl,0x61
  40605e:	add    BYTE PTR [eax],al
  406060:	mov    edx,0xc4000061
  406065:	popa   
  406066:	add    BYTE PTR [eax],al
  406068:	int3   
  406069:	popa   
  40606a:	add    BYTE PTR [eax],al
  40606c:	(bad)  
  40606d:	popa   
  40606e:	add    BYTE PTR [eax],al
  406070:	loopne 0x4060d3
  406072:	add    BYTE PTR [eax],al
  406074:	jmp    0x61:0xf4000061
  40607b:	add    dh,bh
  40607d:	popa   
  40607e:	add    BYTE PTR [eax],al
  406080:	or     BYTE PTR [edx+0x0],ah
  406083:	add    BYTE PTR [edx],dl
  406085:	bound  eax,QWORD PTR [eax]
  406087:	add    BYTE PTR [edx+eiz*2],bl
  40608a:	add    BYTE PTR [eax],al
  40608c:	bound  eax,QWORD PTR es:[eax]
  40608f:	add    BYTE PTR [eax],dh
  406091:	bound  eax,QWORD PTR [eax]
  406093:	add    BYTE PTR [edx],bh
  406095:	bound  eax,QWORD PTR [eax]
	...
  40609f:	add    BYTE PTR [esi+0x62],al
  4060a2:	add    BYTE PTR [eax],al
  4060a4:	pop    esp
  4060a5:	bound  eax,QWORD PTR [eax]
  4060a7:	add    BYTE PTR [eax+0x62],dh
  4060aa:	add    BYTE PTR [eax],al
  4060ac:	and    BYTE PTR [edx+0x0],0x0
  4060b0:	xchg   edx,eax
  4060b1:	bound  eax,QWORD PTR [eax]
  4060b3:	add    BYTE PTR [edx+0x62],ah
  4060b9:	add    BYTE PTR [eax],al
  4060bb:	add    BYTE PTR [ecx+eiz*2],bh
  4060be:	add    BYTE PTR [eax],al
  4060c0:	inc    esi
  4060c1:	popa   
  4060c2:	add    BYTE PTR [eax],al
  4060c4:	dec    esi
  4060c5:	popa   
  4060c6:	add    BYTE PTR [eax],al
  4060c8:	pop    eax
  4060c9:	popa   
  4060ca:	add    BYTE PTR [eax],al
  4060cc:	je     0x40612f
  4060ce:	add    BYTE PTR [eax],al
  4060d0:	xchg   BYTE PTR [ecx+0x0],ah
  4060d3:	add    BYTE PTR [edx-0x55ffff9f],ah
  4060d9:	popa   
  4060da:	add    BYTE PTR [eax],al
  4060dc:	mov    dl,0x61
  4060de:	add    BYTE PTR [eax],al
  4060e0:	mov    edx,0xc4000061
  4060e5:	popa   
  4060e6:	add    BYTE PTR [eax],al
  4060e8:	int3   
  4060e9:	popa   
  4060ea:	add    BYTE PTR [eax],al
  4060ec:	(bad)  
  4060ed:	popa   
  4060ee:	add    BYTE PTR [eax],al
  4060f0:	loopne 0x406153
  4060f2:	add    BYTE PTR [eax],al
  4060f4:	jmp    0x61:0xf4000061
  4060fb:	add    dh,bh
  4060fd:	popa   
  4060fe:	add    BYTE PTR [eax],al
  406100:	or     BYTE PTR [edx+0x0],ah
  406103:	add    BYTE PTR [edx],dl
  406105:	bound  eax,QWORD PTR [eax]
  406107:	add    BYTE PTR [edx+eiz*2],bl
  40610a:	add    BYTE PTR [eax],al
  40610c:	bound  eax,QWORD PTR es:[eax]
  40610f:	add    BYTE PTR [eax],dh
  406111:	bound  eax,QWORD PTR [eax]
  406113:	add    BYTE PTR [edx],bh
  406115:	bound  eax,QWORD PTR [eax]
	...
  40611f:	add    BYTE PTR [esi+0x62],al
  406122:	add    BYTE PTR [eax],al
  406124:	pop    esp
  406125:	bound  eax,QWORD PTR [eax]
  406127:	add    BYTE PTR [eax+0x62],dh
  40612a:	add    BYTE PTR [eax],al
  40612c:	and    BYTE PTR [edx+0x0],0x0
  406130:	xchg   edx,eax
  406131:	bound  eax,QWORD PTR [eax]
  406133:	add    BYTE PTR [edx+0x62],ah
  406139:	add    BYTE PTR [eax],al
  40613b:	add    BYTE PTR [ebx],bl
  40613d:	add    BYTE PTR [edi+0x5f],bl
  406140:	ins    DWORD PTR es:[edi],dx
  406141:	popa   
  406142:	imul   ebp,DWORD PTR [esi+0x0],0x61021400
  406149:	bound  ebp,QWORD PTR [edi+0x72]
  40614c:	je     0x40614e
  40614e:	aas    
  40614f:	add    ah,BYTE PTR [ebx+0x61]
  406152:	ins    BYTE PTR es:[edi],dx
  406153:	ins    BYTE PTR es:[edi],dx
  406154:	outs   dx,DWORD PTR ds:[esi]
  406155:	arpl   WORD PTR [eax],ax
  406157:	add    BYTE PTR [edi+0x2],ch
  40615a:	arpl   WORD PTR [ecx+0x67],di
  40615d:	ja     0x4061c8
  40615f:	outs   dx,BYTE PTR ds:[esi]
  406160:	pop    edi
  406161:	arpl   WORD PTR [edi+0x6e],bp
  406164:	jbe    0x4061c5
  406166:	je     0x4061d7
  406168:	pop    edi
  406169:	jo     0x4061da
  40616b:	jae    0x4061d6
  40616d:	js     0x4061ce
  40616f:	jo     0x4061d2
  406171:	je     0x4061db
  406173:	add    BYTE PTR [ecx+0x2],dh
  406176:	arpl   WORD PTR [ecx+0x67],di
  406179:	ja     0x4061e4
  40617b:	outs   dx,BYTE PTR ds:[esi]
  40617c:	pop    edi
  40617d:	imul   ebp,DWORD PTR [esi+0x74],0x616e7265
  406184:	ins    BYTE PTR es:[edi],dx
  406185:	add    BYTE PTR [ebx+0x6c6c6402],al
  40618b:	pop    edi
  40618c:	arpl   WORD PTR [edx+0x74],si
  40618f:	xor    BYTE PTR [edi+0x5f],bl
  406192:	inc    esi
  406193:	push   eax
  406194:	xor    DWORD PTR [ecx],esi
  406196:	jo     0x4061fd
  406198:	jb     0x4061f9
  40619a:	jo     0x40620e
  40619c:	outs   dx,DWORD PTR ds:[esi]
  40619d:	arpl   WORD PTR [ebp+0x73],sp
  4061a0:	jae    0x4061a2
  4061a2:	mov    al,ds:0x69786502
  4061a7:	je     0x4061a9
  4061a9:	add    BYTE PTR [edi+0x65676602],dh
  4061af:	je     0x406224
  4061b1:	add    al,al
  4061b3:	add    ah,BYTE PTR [esi+0x6f]
  4061b6:	jo     0x40621d
  4061b8:	outs   dx,BYTE PTR ds:[esi]
  4061b9:	add    bl,al
  4061bb:	add    ah,BYTE PTR [esi+0x70]
  4061be:	jb     0x406229
  4061c0:	outs   dx,BYTE PTR ds:[esi]
  4061c1:	je     0x406229
  4061c3:	add    bh,al
  4061c5:	add    ah,BYTE PTR [esi+0x72]
  4061c8:	gs add BYTE PTR gs:[eax],al
  4061cc:	aad    0x2
  4061ce:	data16 ja 0x406243
  4061d1:	imul   esi,DWORD PTR [ebp+eiz*2+0x0],0x6702e300
  4061d9:	gs je  0x406241
  4061dc:	outs   dx,BYTE PTR ds:[esi]
  4061dd:	jbe    0x4061df
  4061df:	add    BYTE PTR [esi+0x3],bl
  4061e2:	ins    DWORD PTR es:[edi],dx
  4061e3:	popa   
  4061e4:	ins    BYTE PTR es:[edi],dx
  4061e5:	ins    BYTE PTR es:[edi],dx
  4061e6:	outs   dx,DWORD PTR ds:[esi]
  4061e7:	arpl   WORD PTR [eax],ax
  4061e9:	add    BYTE PTR [esi+0x3],ah
  4061ec:	ins    DWORD PTR es:[edi],dx
  4061ed:	gs ins DWORD PTR es:[edi],dx
  4061ef:	arpl   WORD PTR [eax+0x79],si
  4061f2:	add    BYTE PTR [eax],al
  4061f4:	xchg   DWORD PTR [ebx],eax
  4061f6:	jo     0x40625d
  4061f8:	jb     0x40626c
  4061fa:	outs   dx,DWORD PTR ds:[esi]
  4061fb:	jb     0x4061fd
  4061fd:	add    BYTE PTR [ebp+0x69727003],cl
  406203:	outs   dx,BYTE PTR ds:[esi]
  406204:	je     0x40626c
  406206:	add    BYTE PTR [eax],al
  406208:	fiadd  WORD PTR [ebx]
  40620a:	jb     0x406271
  40620c:	popa   
  40620d:	ins    BYTE PTR es:[edi],dx
  40620e:	ins    BYTE PTR es:[edi],dx
  40620f:	outs   dx,DWORD PTR ds:[esi]
  406210:	arpl   WORD PTR [eax],ax
  406212:	pop    ecx
  406213:	add    al,0x73
  406215:	je     0x406289
  406217:	arpl   WORD PTR [ecx+0x74],sp
  40621a:	add    BYTE PTR [eax],al
  40621c:	pop    ebx
  40621d:	add    al,0x73
  40621f:	je     0x406293
  406221:	arpl   WORD PTR [ebp+0x70],bp
  406224:	add    BYTE PTR [eax],al
  406226:	pop    ebp
  406227:	add    al,0x73
  406229:	je     0x40629d
  40622b:	arpl   WORD PTR [eax+0x79],si
  40622e:	add    BYTE PTR [eax],al
  406230:	bound  eax,QWORD PTR [ebx+esi*2]
  406233:	je     0x4062a7
  406235:	ins    BYTE PTR es:[edi],dx
  406236:	outs   dx,BYTE PTR gs:[esi]
  406238:	add    BYTE PTR [eax],al
  40623a:	lods   al,BYTE PTR ds:[esi]
  40623b:	add    al,0x76
  40623d:	jae    0x4062ad
  40623f:	jo     0x4062b3
  406241:	imul   ebp,DWORD PTR [esi+0x74],0x14f0066
  406248:	inc    edi
  406249:	gs je  0x406299
  40624c:	outs   dx,DWORD PTR ds:[esi]
  40624d:	fs jne 0x4062bc
  406250:	gs inc esi
  406252:	imul   ebp,DWORD PTR [ebp+eiz*2+0x4e],0x41656d61
  40625a:	add    BYTE PTR [eax],al
  40625c:	push   ecx
  40625d:	add    DWORD PTR [edi+0x65],eax
  406260:	je     0x4062af
  406262:	outs   dx,DWORD PTR ds:[esi]
  406263:	fs jne 0x4062d2
  406266:	gs dec eax
  406268:	popa   
  406269:	outs   dx,BYTE PTR ds:[esi]
  40626a:	fs ins BYTE PTR es:[edi],dx
  40626c:	gs inc ecx
  40626e:	add    BYTE PTR [eax],al
  406270:	test   BYTE PTR [ecx],al
  406272:	inc    edi
  406273:	gs je  0x4062c9
  406276:	je     0x4062dc
  406278:	dec    eax
  406279:	popa   
  40627a:	outs   dx,BYTE PTR ds:[esi]
  40627b:	fs ins BYTE PTR es:[edi],dx
  40627d:	add    BYTE PTR gs:[eax],al
  406280:	push   ds
  406281:	add    edx,DWORD PTR [esi+0x69]
  406284:	jb     0x4062fa
  406286:	jne    0x4062e9
  406288:	ins    BYTE PTR es:[edi],dx
  406289:	push   eax
  40628a:	jb     0x4062fb
  40628c:	je     0x4062f3
  40628e:	arpl   WORD PTR [eax+eax*1+0x0],si
  406292:	and    DWORD PTR [ebx],eax
  406294:	push   esi
  406295:	imul   esi,DWORD PTR [edx+0x74],0x516c6175
  40629c:	jne    0x406303
  40629e:	jb     0x406319
  4062a0:	add    BYTE PTR [eax],al
  4062a2:	cmp    eax,DWORD PTR [ebx]
  4062a4:	push   edi
  4062a5:	jb     0x406310
  4062a7:	je     0x40630e
  4062a9:	inc    esi
  4062aa:	imul   ebp,DWORD PTR [ebp+eiz*2+0x0],0x60000000
  4062b2:	add    BYTE PTR [eax],al
  4062b4:	add    BYTE PTR [eax+0x0],ah
  4062b7:	add    BYTE PTR [eax],al
  4062b9:	pusha  
  4062ba:	add    BYTE PTR [eax],al
  4062bc:	add    BYTE PTR [eax+0x0],ah
  4062bf:	add    BYTE PTR [eax],al
  4062c1:	pusha  
  4062c2:	add    BYTE PTR [eax],al
  4062c4:	add    BYTE PTR [eax+0x0],ah
  4062c7:	add    BYTE PTR [eax],al
  4062c9:	pusha  
  4062ca:	add    BYTE PTR [eax],al
  4062cc:	add    BYTE PTR [eax+0x0],ah
  4062cf:	add    BYTE PTR [eax],al
  4062d1:	pusha  
  4062d2:	add    BYTE PTR [eax],al
  4062d4:	add    BYTE PTR [eax+0x0],ah
  4062d7:	add    BYTE PTR [eax],al
  4062d9:	pusha  
  4062da:	add    BYTE PTR [eax],al
  4062dc:	add    BYTE PTR [eax+0x0],ah
  4062df:	add    BYTE PTR [eax],al
  4062e1:	pusha  
  4062e2:	add    BYTE PTR [eax],al
  4062e4:	add    BYTE PTR [eax+0x0],ah
  4062e7:	add    BYTE PTR [eax],al
  4062e9:	pusha  
  4062ea:	add    BYTE PTR [eax],al
  4062ec:	add    BYTE PTR [eax+0x0],ah
  4062ef:	add    BYTE PTR [eax],al
  4062f1:	pusha  
  4062f2:	add    BYTE PTR [eax],al
  4062f4:	add    BYTE PTR [eax+0x0],ah
  4062f7:	add    BYTE PTR [eax],al
  4062f9:	pusha  
  4062fa:	add    BYTE PTR [eax],al
  4062fc:	add    BYTE PTR [eax+0x0],ah
  4062ff:	add    BYTE PTR [eax],al
  406301:	pusha  
  406302:	add    BYTE PTR [eax],al
  406304:	add    BYTE PTR [eax+0x0],ah
  406307:	add    BYTE PTR [eax],al
  406309:	pusha  
  40630a:	add    BYTE PTR [eax],al
  40630c:	ins    DWORD PTR es:[edi],dx
  40630d:	jae    0x406388
  40630f:	jae    0x40633e
  406311:	xor    DWORD PTR [esi],ebp
  406313:	xor    BYTE PTR [esi],ch
  406315:	fs ins BYTE PTR es:[edi],dx
  406317:	ins    BYTE PTR es:[edi],dx
  406318:	add    BYTE PTR [eax],al
  40631a:	add    BYTE PTR [eax],al
  40631c:	adc    al,0x60
  40631e:	add    BYTE PTR [eax],al
  406320:	adc    al,0x60
  406322:	add    BYTE PTR [eax],al
  406324:	adc    al,0x60
  406326:	add    BYTE PTR [eax],al
  406328:	adc    al,0x60
  40632a:	add    BYTE PTR [eax],al
  40632c:	adc    al,0x60
  40632e:	add    BYTE PTR [eax],al
  406330:	adc    al,0x60
  406332:	add    BYTE PTR [eax],al
  406334:	dec    ebx
  406335:	inc    ebp
  406336:	push   edx
  406337:	dec    esi
  406338:	inc    ebp
  406339:	dec    esp
  40633a:	xor    esi,DWORD PTR [edx]
  40633c:	cs fs ins BYTE PTR es:[edi],dx
  40633f:	ins    BYTE PTR es:[edi],dx
  406340:	add    BYTE PTR [eax],al
	...
