
2e2a40d004346e95cdb0a91dcd881be1f2ee6d9eef16f239c40f6b4e2383c656.exe:     file format pei-i386


Disassembly of section .text:

00402000 <.text>:
  402000:	shl    BYTE PTR [eax+0x0],1
  402003:	add    BYTE PTR [eax],al
  402005:	add    BYTE PTR [eax],al
  402007:	add    BYTE PTR [eax+0x0],cl
  40200a:	add    BYTE PTR [eax],al
  40200c:	add    al,BYTE PTR [eax]
  40200e:	add    eax,0x428800
  402013:	add    BYTE PTR [eax+0xb00002d],bl
  402019:	add    BYTE PTR [eax],al
  40201b:	add    BYTE PTR ds:0x18060000,cl
  402021:	xor    DWORD PTR [eax],eax
  402023:	add    BYTE PTR [esi+0x11],ch
  402026:	add    BYTE PTR [eax],al
  402028:	push   eax
  402029:	and    BYTE PTR [eax],al
  40202b:	add    BYTE PTR [eax+0x0],al
	...
  40204d:	add    BYTE PTR [eax],al
  40204f:	add    BYTE PTR [edi],dh
  402051:	push   edi
  402052:	bound  ebx,QWORD PTR ds:0xc4598e82
  402058:	dec    eax
  402059:	mov    ds:0xec378d72,eax
  40205e:	stos   BYTE PTR es:[edi],al
  40205f:	das    
  402060:	fild   WORD PTR [edx+eax*4]
  402063:	mov    al,0xd0
  402065:	rcl    BYTE PTR [eax+0x41a26e44],0xc
  40206c:	loopne 0x402084
  40206e:	and    DWORD PTR [ebx-0x44],esp
  402071:	retf   0xb1b9
  402074:	xchg   ecx,eax
  402075:	mov    al,0xca
  402077:	loopne 0x4020c0
  402079:	and    eax,0x1cf8a020
  40207e:	or     eax,DWORD PTR [eax+0x62]
  402081:	dec    esi
  402082:	sbb    eax,0xbc055f46
  402087:	lea    esp,[ebx+0x102cdd5e]
  40208d:	int3   
  40208e:	xchg   ecx,eax
  40208f:	cli    
  402090:	leave  
  402091:	jecxz  0x40201a
  402093:	pop    ss
  402094:	inc    edi
  402095:	sti    
  402096:	out    0xde,al
  402098:	jo     0x40202a
  40209a:	mov    ?,WORD PTR [ebx]
  40209c:	adc    DWORD PTR [eax-0x29],ebx
  40209f:	pop    es
  4020a0:	inc    ebp
  4020a1:	push   esp
  4020a2:	(bad)  
  4020a3:	jne    0x4020ad
  4020a5:	push   edi
  4020a6:	jmp    0x4020ae
  4020a8:	inc    edi
  4020a9:	push   edx
  4020aa:	inc    esp
  4020ab:	fs cmc 
  4020ad:	push   es
  4020ae:	and    ah,BYTE PTR [esi+0x0]
  4020b1:	lods   al,BYTE PTR ds:[esi]
  4020b2:	inc    BYTE PTR [edx]
  4020b4:	iret   
  4020b5:	push   eax
  4020b6:	jae    0xc3f77cbc
  4020bc:	dec    BYTE PTR [edx-0x1102480a]
  4020c2:	adc    al,0x71
  4020c4:	stos   DWORD PTR es:[edi],eax
  4020c5:	leave  
  4020c6:	mov    ds:0xd6166cca,al
  4020cb:	xchg   esi,eax
  4020cc:	jle    0x402088
  4020ce:	test   DWORD PTR [edx+eiz*1+0x2],ebx
  4020d2:	add    ebp,DWORD PTR [eax]
  4020d4:	adc    al,0x0
  4020d6:	add    BYTE PTR [edx],cl
  4020d8:	sub    bl,BYTE PTR [esi+0x17b02]
  4020de:	add    BYTE PTR [ebp*1+0x7d170218],al
  4020e5:	add    DWORD PTR [eax],eax
  4020e7:	add    BYTE PTR [edx+eax*1],al
  4020ea:	add    ch,BYTE PTR [eax]
  4020ec:	adc    eax,0x280a0000
  4020f1:	or     eax,DWORD PTR [eax]
  4020f3:	add    BYTE PTR [esi],al
  4020f5:	sub    BYTE PTR [esi],dl
  4020f7:	add    BYTE PTR [eax],al
  4020f9:	or     al,BYTE PTR [edx]
  4020fb:	sub    BYTE PTR ds:0x2a0a0000,dl
  402101:	and    al,BYTE PTR [edx]
  402103:	add    ebp,DWORD PTR [eax]
  402105:	pop    ss
  402106:	add    BYTE PTR [eax],al
  402108:	or     ch,BYTE PTR [edx]
  40210a:	push   ds
  40210b:	add    ebp,DWORD PTR [eax]
  40210d:	or     eax,DWORD PTR [eax]
  40210f:	add    BYTE PTR [esi],al
  402111:	sub    al,BYTE PTR [eax]
  402113:	add    BYTE PTR [ebx],dl
  402115:	xor    BYTE PTR [ebx],al
  402117:	add    BYTE PTR [eax],ah
  402119:	add    BYTE PTR [eax],al
  40211b:	add    BYTE PTR [ecx],al
  40211d:	add    BYTE PTR [eax],al
  40211f:	adc    DWORD PTR [esi+0x2b],edi
  402122:	add    BYTE PTR [eax],al
  402124:	add    al,0x2d
  402126:	adc    esi,DWORD PTR [ebx+0x18]
  402129:	add    BYTE PTR [eax],al
  40212b:	or     cl,BYTE PTR [edx]
  40212d:	jg     0x40215a
  40212f:	add    BYTE PTR [eax],al
  402131:	add    al,0x6
  402133:	adc    al,0x28
  402135:	sbb    DWORD PTR [eax],eax
  402137:	add    BYTE PTR [edx],cl
  402139:	es jle 0x402167
  40213c:	add    BYTE PTR [eax],al
  40213e:	add    al,0x2a
  402140:	mov    al,BYTE PTR [edx]
  402142:	sub    BYTE PTR [eax],bl
  402144:	add    BYTE PTR [eax],al
  402146:	or     al,BYTE PTR [edx]
  402148:	jb     0x40214b
  40214a:	add    BYTE PTR [eax],al
  40214c:	jo     0x402150
  40214e:	sub    BYTE PTR [edx],bl
  402150:	add    BYTE PTR [eax],al
  402152:	or     ch,BYTE PTR [edi+0x1b]
  402155:	add    BYTE PTR [eax],al
  402157:	or     dh,BYTE PTR [ebx+0x1c]
  40215a:	add    BYTE PTR [eax],al
  40215c:	or     bh,BYTE PTR [ebp+0x2a]
  40215f:	add    BYTE PTR [eax],al
  402161:	add    al,0x2a
  402163:	add    BYTE PTR [ebx],bl
  402165:	xor    BYTE PTR [edx],al
  402167:	add    BYTE PTR [ebx],dh
  402169:	add    BYTE PTR [eax],al
  40216b:	add    BYTE PTR [ecx],al
  40216d:	add    BYTE PTR [eax],al
  40216f:	adc    DWORD PTR [esi+0x29],edi
  402172:	add    BYTE PTR [eax],al
  402174:	add    al,0x2d
  402176:	sub    BYTE PTR es:0x25060000,al
  40217d:	or     ch,BYTE PTR [eax]
  40217f:	sbb    eax,0x7e0a0000
  402184:	sub    DWORD PTR [eax],eax
  402186:	add    BYTE PTR [ebp*1+0x6730a],al
  40218d:	add    BYTE PTR [esi],al
  40218f:	sub    BYTE PTR [ecx],0x0
  402192:	add    BYTE PTR [esi+ebx*8],al
  402195:	pop    es
  402196:	push   es
  402197:	sub    BYTE PTR [esi],bl
  402199:	add    BYTE PTR [eax],al
  40219b:	or     bl,ah
  40219d:	jle    0x4021c8
  40219f:	add    BYTE PTR [eax],al
  4021a1:	add    al,0x2a
  4021a3:	add    BYTE PTR [ecx],al
  4021a5:	adc    BYTE PTR [eax],al
  4021a7:	add    BYTE PTR [edx],al
  4021a9:	add    BYTE PTR [ebx],dl
  4021ab:	add    BYTE PTR [ebx],dl
  4021ad:	add    BYTE PTR es:[edi],al
  4021b0:	add    BYTE PTR [eax],al
  4021b2:	add    BYTE PTR [eax],al
  4021b4:	or     dl,BYTE PTR [edx+ebp*1]
  4021b7:	sub    BYTE PTR cs:[edi],al
  4021ba:	add    BYTE PTR [eax],al
  4021bc:	push   es
  4021bd:	jnp    0x4021e9
  4021bf:	add    BYTE PTR [eax],al
  4021c1:	add    al,0x2a
  4021c3:	add    BYTE PTR [ebx],dl
  4021c5:	xor    BYTE PTR ds:0x7500,al
  4021cb:	add    BYTE PTR [edx],al
  4021cd:	add    BYTE PTR [eax],al
  4021cf:	adc    DWORD PTR [eax],ebp
  4021d1:	pop    es
  4021d2:	add    BYTE PTR [eax],al
  4021d4:	push   es
  4021d5:	or     al,BYTE PTR [esi]
  4021d7:	sub    eax,0x62a1402
  4021dc:	jnp    0x402208
  4021de:	add    BYTE PTR [eax],al
  4021e0:	add    al,0x2
  4021e2:	sub    BYTE PTR [eax],cl
  4021e4:	add    BYTE PTR [eax],al
  4021e6:	push   es
  4021e7:	outs   dx,DWORD PTR ds:[esi]
  4021e8:	and    BYTE PTR [eax],al
  4021ea:	add    BYTE PTR [edx],cl
  4021ec:	or     eax,DWORD PTR [ebx]
  4021ee:	sub    al,0x53
  4021f0:	add    ecx,DWORD PTR [esi+0x4d311669]
  4021f6:	push   ss
  4021f7:	or     al,0x2b
  4021f9:	add    ecx,DWORD PTR ss:[eax]
  4021fc:	call   0xd01:0x2675
  402203:	or     DWORD PTR [esi+eiz*1],ebp
  402206:	or     DWORD PTR [edi+0x21],ebp
  402209:	add    BYTE PTR [eax],al
  40220b:	or     ah,BYTE PTR [eax]
  40220d:	add    BYTE PTR [eax+eax*1],al
  402210:	add    BYTE PTR [ecx],dh
  402212:	sbb    DWORD PTR [ebx],eax
  402214:	or     BYTE PTR [ecx],cl
  402216:	push   ss
  402217:	and    ch,bh
  402219:	add    eax,DWORD PTR [eax]
  40221b:	add    BYTE PTR [edi+0x22],ch
  40221e:	add    BYTE PTR [eax],al
  402220:	or     dh,BYTE PTR [edx+0x21]
  402223:	add    BYTE PTR [eax],al
  402225:	jo     0x40224f
  402227:	and    eax,DWORD PTR [eax]
  402229:	add    BYTE PTR [edx],cl
  40222b:	mov    ds:0xc581708,al
  402230:	or     BYTE PTR [ebx],al
  402232:	mov    gs,WORD PTR [ecx+0x32]
  402235:	les    ebp,FWORD PTR [eax]
  402237:	and    al,0x0
  402239:	add    BYTE PTR [edx],cl
  40223b:	pop    es
  40223c:	add    ebp,DWORD PTR [eax]
  40223e:	and    eax,0x2a0a0000
  402243:	pop    es
  402244:	sub    al,BYTE PTR [eax]
  402246:	add    BYTE PTR [eax],al
  402248:	adc    esi,DWORD PTR [eax]
  40224a:	add    eax,DWORD PTR [eax]
  40224c:	sbb    eax,0x3000000
  402251:	add    BYTE PTR [eax],al
  402253:	adc    DWORD PTR [eax],ebp
  402255:	pop    es
  402256:	add    BYTE PTR [eax],al
  402258:	push   es
  402259:	or     al,BYTE PTR [esi]
  40225b:	sub    eax,0x62a1402
  402260:	jnp    0x40228c
  402262:	add    BYTE PTR [eax],al
  402264:	add    al,0x2
  402266:	sub    BYTE PTR [eax],cl
  402268:	add    BYTE PTR [eax],al
  40226a:	push   es
  40226b:	outs   dx,DWORD PTR ds:[esi]
  40226c:	and    BYTE PTR [eax],al
  40226e:	add    BYTE PTR [edx],cl
  402270:	sub    al,BYTE PTR [eax]
  402272:	add    BYTE PTR [eax],al
  402274:	adc    esi,DWORD PTR [eax]
  402276:	add    eax,DWORD PTR [eax]
  402278:	sbb    eax,0x3000000
  40227d:	add    BYTE PTR [eax],al
  40227f:	adc    DWORD PTR [eax],ebp
  402281:	pop    es
  402282:	add    BYTE PTR [eax],al
  402284:	push   es
  402285:	or     al,BYTE PTR [esi]
  402287:	sub    eax,0x62a1402
  40228c:	jnp    0x4022b8
  40228e:	add    BYTE PTR [eax],al
  402290:	add    al,0x2
  402292:	sub    BYTE PTR [eax],cl
  402294:	add    BYTE PTR [eax],al
  402296:	push   es
  402297:	outs   dx,DWORD PTR ds:[esi]
  402298:	add    BYTE PTR es:[eax],al
  40229b:	or     ch,BYTE PTR [edx]
  40229d:	add    BYTE PTR [eax],al
  40229f:	add    BYTE PTR [ebx],bl
  4022a1:	xor    BYTE PTR ds:0x18200,al
  4022a7:	add    BYTE PTR [eax+eax*1],al
  4022aa:	add    BYTE PTR [ecx],dl
  4022ac:	push   ss
  4022ad:	or     ch,BYTE PTR [eax]
  4022af:	daa    
  4022b0:	add    BYTE PTR [eax],al
  4022b2:	or     al,BYTE PTR [eax+0x4000036]
  4022b8:	fiadd  WORD PTR [ebx]
  4022ba:	fiadd  WORD PTR es:[eax]
  4022bd:	sub    BYTE PTR [esi],cl
  4022bf:	add    BYTE PTR [eax],al
  4022c1:	push   es
  4022c2:	push   ss
  4022c3:	or     ebp,DWORD PTR [ebx]
  4022c5:	sub    DWORD PTR [edx],eax
  4022c7:	pop    es
  4022c8:	call   0xc0a:0x286f
  4022cf:	or     BYTE PTR [edx+0x29],dh
  4022d2:	add    BYTE PTR [eax],al
  4022d4:	jo     0x4022fe
  4022d6:	sub    DWORD PTR [eax],eax
  4022d8:	add    BYTE PTR [edx],cl
  4022da:	sub    eax,0x3972080d
  4022df:	add    BYTE PTR [eax],al
  4022e1:	jo     0x40230b
  4022e3:	sub    DWORD PTR [eax],eax
  4022e5:	add    BYTE PTR [edx],cl
  4022e7:	sub    al,0x2
  4022e9:	pop    ss
  4022ea:	or     al,BYTE PTR [edi]
  4022ec:	pop    ss
  4022ed:	pop    eax
  4022ee:	or     eax,DWORD PTR [edi]
  4022f0:	add    cl,BYTE PTR [esi+0x6d13269]
  4022f6:	sub    eax,0x497223
  4022fb:	add    BYTE PTR [eax+0x28],dh
  4022fe:	and    DWORD PTR [eax],eax
  402300:	add    BYTE PTR [esi],al
  402302:	sub    BYTE PTR [edx],ch
  402304:	add    BYTE PTR [eax],al
  402306:	or     dh,BYTE PTR [edx+0x61]
  402309:	add    BYTE PTR [eax],al
  40230b:	jo     0x402335
  40230d:	and    DWORD PTR [eax],eax
  40230f:	add    BYTE PTR [esi],al
  402311:	sub    BYTE PTR [edx],ch
  402313:	add    BYTE PTR [eax],al
  402315:	or     ch,BYTE PTR [eax]
  402317:	sub    eax,DWORD PTR [eax]
  402319:	add    BYTE PTR [edx],cl
  40231b:	add    cl,BYTE PTR [esi+0x72112d69]
  402321:	jne    0x402323
  402323:	add    BYTE PTR [eax+0x28],dh
  402326:	and    DWORD PTR [eax],eax
  402328:	add    BYTE PTR [esi],al
  40232a:	sub    BYTE PTR [edx],ch
  40232c:	add    BYTE PTR [eax],al
  40232e:	or     dl,BYTE PTR [edi]
  402330:	sub    al,BYTE PTR [edx]
  402332:	sub    BYTE PTR [eax+eax*1],dl
  402335:	add    BYTE PTR [esi],al
  402337:	sub    eax,0x7e2a1702
  40233c:	xor    BYTE PTR [eax],al
  40233e:	add    BYTE PTR [ebp*1+0x2f7e0a],al
  402345:	add    BYTE PTR [eax+eax*4],al
  402348:	xor    BYTE PTR [eax],al
  40234a:	add    BYTE PTR [ebx+esi*2],al
  40234d:	sub    al,0x0
  40234f:	add    BYTE PTR [edx],cl
  402351:	or     eax,0x347e09
  402356:	add    BYTE PTR [edi+ebp*2],al
  402359:	sub    eax,0x90a0000
  40235e:	jle    0x402392
  402360:	add    BYTE PTR [eax],al
  402362:	add    al,0x6f
  402364:	add    BYTE PTR cs:[eax],al
  402367:	or     cl,BYTE PTR [ecx]
  402369:	jle    0x40239e
  40236b:	add    BYTE PTR [eax],al
  40236d:	add    al,0x6f
  40236f:	das    
  402370:	add    BYTE PTR [eax],al
  402372:	or     bh,BYTE PTR [esi+0x30]
  402375:	add    BYTE PTR [eax],al
  402377:	add    al,0x7e
  402379:	add    BYTE PTR cs:[eax],al
  40237c:	add    al,0x7e
  40237e:	xor    DWORD PTR [eax],eax
  402380:	add    BYTE PTR [ecx+ecx*1],al
  402383:	jae    0x4023b5
  402385:	add    BYTE PTR [eax],al
  402387:	or     al,BYTE PTR [eax+0x400002d]
  40238d:	jle    0x4023bc
  40238f:	add    BYTE PTR [eax],al
  402391:	add    al,0x73
  402393:	sub    al,BYTE PTR [eax]
  402395:	add    BYTE PTR [esi],al
  402397:	outs   dx,DWORD PTR ds:[esi]
  402398:	xor    DWORD PTR [eax],eax
  40239a:	add    BYTE PTR [edx],cl
  40239c:	push   ss
  40239d:	adc    ecx,DWORD PTR [ecx]
  40239f:	fld    QWORD PTR [edi+0x13000000]
  4023a5:	add    al,0x7e
  4023a7:	xor    al,0x0
  4023a9:	add    BYTE PTR [edi+ebx*1],al
  4023ac:	inc    eax
  4023ad:	pop    edi
  4023ae:	sub    al,0x65
  4023b0:	shr    BYTE PTR [edx],1
  4023b2:	add    BYTE PTR [eax],al
  4023b4:	add    DWORD PTR [eax],ebp
  4023b6:	xor    al,BYTE PTR [eax]
  4023b8:	add    BYTE PTR [edx],cl
  4023ba:	jb     0x402353
  4023bc:	add    BYTE PTR [eax],al
  4023be:	jo     0x4023df
  4023c0:	and    al,0x28
  4023c2:	xor    eax,DWORD PTR [eax]
  4023c4:	add    BYTE PTR [edx],cl
  4023c6:	adc    eax,DWORD PTR ds:0x6f170511
  4023cc:	xor    al,0x0
  4023ce:	add    BYTE PTR [edx],cl
  4023d0:	adc    eax,DWORD PTR [esi]
  4023d2:	adc    DWORD PTR [esi],eax
  4023d4:	adc    DWORD PTR [esp+edx*1],eax
  4023d7:	outs   dx,DWORD PTR ds:[esi]
  4023d8:	xor    eax,0xa50a0000
  4023dd:	xor    BYTE PTR [eax],al
  4023df:	add    BYTE PTR [ecx],al
  4023e1:	adc    eax,DWORD PTR [edi]
  4023e3:	adc    DWORD PTR [edi],eax
  4023e5:	and    BYTE PTR [edx],bl
  4023e7:	adc    al,0x13
  4023e9:	xor    BYTE PTR [ebx],0x29
  4023ec:	jb     0x402395
  4023ee:	add    BYTE PTR [eax],al
  4023f0:	jo     0x402403
  4023f2:	add    al,0x6f
  4023f4:	add    BYTE PTR ss:[eax],al
  4023f7:	or     ch,BYTE PTR [eax]
  4023f9:	and    al,BYTE PTR [eax]
  4023fb:	add    BYTE PTR [esi],al
  4023fd:	adc    DWORD PTR [edi+ebp*2],eax
  402400:	add    BYTE PTR ss:[eax],al
  402403:	or     dl,BYTE PTR [ecx]
  402405:	add    al,0x73
  402407:	aaa    
  402408:	add    BYTE PTR [eax],al
  40240a:	or     ch,BYTE PTR [eax]
  40240c:	pop    ss
  40240d:	add    BYTE PTR [eax],al
  40240f:	push   es
  402410:	pop    ss
  402411:	adc    ecx,DWORD PTR [ecx]
  402413:	ficom  WORD PTR [esi]
  402415:	adc    DWORD PTR [eax+ebp*1],eax
  402418:	pop    ss
  402419:	add    BYTE PTR [eax],al
  40241b:	push   es
  40241c:	fimul  WORD PTR [ebx]
  40241e:	adc    ecx,DWORD PTR [eax]
  402420:	adc    DWORD PTR [eax],ecx
  402422:	sub    BYTE PTR [edi],dl
  402424:	add    BYTE PTR [eax],al
  402426:	push   es
  402427:	fiadd  WORD PTR [eax]
  402429:	pop    ss
  40242a:	sub    dl,BYTE PTR [ecx]
  40242c:	or     DWORD PTR [edx],ebp
  40242e:	add    BYTE PTR [eax],al
  402430:	add    DWORD PTR [eax],ebp
  402432:	add    BYTE PTR [eax],al
  402434:	add    BYTE PTR [eax],al
  402436:	add    al,BYTE PTR [eax]
  402438:	or     al,0xe
  40243a:	add    BYTE PTR [ebx],al
  40243c:	add    eax,DWORD PTR [eax]
  40243e:	add    BYTE PTR [ecx],al
  402440:	add    BYTE PTR [eax],al
  402442:	pop    DWORD PTR [eax]
  402444:	imul   edi,eax,0x2a7a00
  40244a:	add    BYTE PTR [ecx],al
  40244c:	add    BYTE PTR [eax],al
  40244e:	pop    DWORD PTR [eax]
  402450:	imul   esi,DWORD PTR [edx+0x1],0x90b
  402457:	add    DWORD PTR [ebx],eax
  402459:	xor    BYTE PTR [ebx],al
  40245b:	add    BYTE PTR [edx+0x0],bh
  40245e:	add    BYTE PTR [eax],al
  402460:	add    BYTE PTR [eax],al
  402462:	add    BYTE PTR [eax],al
  402464:	sub    BYTE PTR [eax],bh
  402466:	add    BYTE PTR [eax],al
  402468:	or     ch,BYTE PTR [eax]
  40246a:	cmp    DWORD PTR [eax],eax
  40246c:	add    BYTE PTR [edx],cl
  40246e:	outs   dx,DWORD PTR ds:[esi]
  40246f:	cmp    al,BYTE PTR [eax]
  402471:	add    BYTE PTR [edx],cl
  402473:	outs   dx,DWORD PTR ds:[esi]
  402474:	cmp    eax,DWORD PTR [eax]
  402476:	add    BYTE PTR [edx],cl
  402478:	sub    BYTE PTR [eax+eax*1],bh
  40247b:	add    BYTE PTR [edx],cl
  40247d:	outs   dx,DWORD PTR ds:[esi]
  40247e:	cmp    eax,0x200a0000
  402483:	jmp    0x2e402585
  402488:	push   esp
  402489:	sub    BYTE PTR [eax+eax*1],bh
  40248c:	add    BYTE PTR [edx],cl
  40248e:	outs   dx,DWORD PTR ds:[esi]
  40248f:	cmp    eax,0x280a0000
  402494:	cmp    BYTE PTR [eax],al
  402496:	add    BYTE PTR [edx],cl
  402498:	outs   dx,DWORD PTR ds:[esi]
  402499:	add    BYTE PTR ds:[eax],al
  40249c:	or     ch,BYTE PTR [edi+0x3f]
  40249f:	add    BYTE PTR [eax],al
  4024a1:	or     ch,BYTE PTR [edi+0x40]
  4024a4:	add    BYTE PTR [eax],al
  4024a6:	or     ch,BYTE PTR [esi]
  4024a8:	xor    al,0x28
  4024aa:	cmp    al,0x0
  4024ac:	add    BYTE PTR [edx],cl
  4024ae:	outs   dx,DWORD PTR ds:[esi]
  4024af:	cmp    eax,0x280a0000
  4024b4:	cmp    BYTE PTR [eax],al
  4024b6:	add    BYTE PTR [edx],cl
  4024b8:	outs   dx,DWORD PTR ds:[esi]
  4024b9:	add    BYTE PTR ds:[eax],al
  4024bc:	or     ch,BYTE PTR [edi+0x3f]
  4024bf:	add    BYTE PTR [eax],al
  4024c1:	or     ch,BYTE PTR [edi+0x41]
  4024c4:	add    BYTE PTR [eax],al
  4024c6:	or     ch,BYTE PTR [esi]
  4024c8:	adc    al,0x28
  4024ca:	cmp    BYTE PTR [eax],al
  4024cc:	add    BYTE PTR [edx],cl
  4024ce:	jb     0x40249d
  4024d0:	add    BYTE PTR [eax],al
  4024d2:	jo     0x402547
  4024d4:	inc    edx
  4024d5:	add    BYTE PTR [eax],al
  4024d7:	or     ch,BYTE PTR [edi+0x3b]
  4024da:	add    BYTE PTR [eax],al
  4024dc:	or     ch,BYTE PTR [edx]
  4024de:	add    BYTE PTR [eax],al
  4024e0:	add    esi,DWORD PTR [eax]
  4024e2:	add    al,BYTE PTR [eax]
  4024e4:	add    al,0x2
  4024e6:	add    BYTE PTR [eax],al
  4024e8:	add    BYTE PTR [eax],al
  4024ea:	add    BYTE PTR [eax],al
  4024ec:	jb     0x4024c7
  4024ee:	add    BYTE PTR [eax],al
  4024f0:	jo     0x40251a
  4024f2:	and    DWORD PTR [eax],eax
  4024f4:	add    BYTE PTR [esi],al
  4024f6:	sub    BYTE PTR [edx],ch
  4024f8:	add    BYTE PTR [eax],al
  4024fa:	or     dh,BYTE PTR [edx-0x1b]
  4024fd:	add    BYTE PTR [eax],al
  4024ff:	jo     0x402529
  402501:	sub    al,BYTE PTR [eax]
  402503:	add    BYTE PTR [edx],cl
  402505:	jb     0x40257f
  402507:	add    DWORD PTR [eax],eax
  402509:	jo     0x402533
  40250b:	sub    al,BYTE PTR [eax]
  40250d:	add    BYTE PTR [edx],cl
  40250f:	jb     0x402505
  402511:	add    DWORD PTR [eax],eax
  402513:	jo     0x40253d
  402515:	sub    al,BYTE PTR [eax]
  402517:	add    BYTE PTR [edx],cl
  402519:	jb     0x402585
  40251b:	add    al,BYTE PTR [eax]
  40251d:	jo     0x402547
  40251f:	sub    al,BYTE PTR [eax]
  402521:	add    BYTE PTR [edx],cl
  402523:	jb     0x4024e7
  402525:	add    al,BYTE PTR [eax]
  402527:	jo     0x402551
  402529:	sub    al,BYTE PTR [eax]
  40252b:	add    BYTE PTR [edx],cl
  40252d:	sub    BYTE PTR [ebx],ch
  40252f:	add    BYTE PTR [eax],al
  402531:	or     dh,BYTE PTR [edx-0x2]
  402534:	add    al,BYTE PTR [eax]
  402536:	jo     0x4025aa
  402538:	add    al,0x3
  40253a:	add    BYTE PTR [eax+0x28],dh
  40253d:	and    DWORD PTR [eax],eax
  40253f:	add    BYTE PTR [esi],al
  402541:	sub    BYTE PTR [eax],dl
  402543:	add    BYTE PTR [eax],al
  402545:	push   es
  402546:	jb     0x402570
  402548:	add    eax,DWORD PTR [eax]
  40254a:	jo     0x4025be
  40254c:	add    eax,DWORD PTR cs:[eax]
  40254f:	jo     0x402579
  402551:	and    DWORD PTR [eax],eax
  402553:	add    BYTE PTR [esi],al
  402555:	sub    BYTE PTR [eax],dl
  402557:	add    BYTE PTR [eax],al
  402559:	push   es
  40255a:	jb     0x402598
  40255c:	add    eax,DWORD PTR [eax]
  40255e:	jo     0x4025d2
  402560:	inc    edx
  402561:	add    eax,DWORD PTR [eax]
  402563:	jo     0x40258d
  402565:	and    DWORD PTR [eax],eax
  402567:	add    BYTE PTR [esi],al
  402569:	sub    BYTE PTR [eax],dl
  40256b:	add    BYTE PTR [eax],al
  40256d:	push   es
  40256e:	jb     0x4025c0
  402570:	add    eax,DWORD PTR [eax]
  402572:	jo     0x4025e6
  402574:	push   esi
  402575:	add    eax,DWORD PTR [eax]
  402577:	jo     0x4025a1
  402579:	and    DWORD PTR [eax],eax
  40257b:	add    BYTE PTR [esi],al
  40257d:	sub    BYTE PTR [eax],dl
  40257f:	add    BYTE PTR [eax],al
  402581:	push   es
  402582:	jb     0x4025e8
  402584:	add    eax,DWORD PTR [eax]
  402586:	jo     0x4025fa
  402588:	push   0x3
  40258a:	add    BYTE PTR [eax+0x28],dh
  40258d:	and    DWORD PTR [eax],eax
  40258f:	add    BYTE PTR [esi],al
  402591:	sub    BYTE PTR [eax],dl
  402593:	add    BYTE PTR [eax],al
  402595:	push   es
  402596:	jb     0x402610
  402598:	add    eax,DWORD PTR [eax]
  40259a:	jo     0x40260e
  40259c:	jle    0x4025a1
  40259e:	add    BYTE PTR [eax+0x28],dh
  4025a1:	and    DWORD PTR [eax],eax
  4025a3:	add    BYTE PTR [esi],al
  4025a5:	sub    BYTE PTR [eax],dl
  4025a7:	add    BYTE PTR [eax],al
  4025a9:	push   es
  4025aa:	jb     0x402538
  4025ac:	add    eax,DWORD PTR [eax]
  4025ae:	jo     0x402622
  4025b0:	xchg   edx,eax
  4025b1:	add    eax,DWORD PTR [eax]
  4025b3:	jo     0x4025dd
  4025b5:	and    DWORD PTR [eax],eax
  4025b7:	add    BYTE PTR [esi],al
  4025b9:	sub    BYTE PTR [eax],dl
  4025bb:	add    BYTE PTR [eax],al
  4025bd:	push   es
  4025be:	jb     0x402560
  4025c0:	add    eax,DWORD PTR [eax]
  4025c2:	jo     0x402636
  4025c4:	mov    ah,0x3
  4025c6:	add    BYTE PTR [eax+0x28],dh
  4025c9:	and    DWORD PTR [eax],eax
  4025cb:	add    BYTE PTR [esi],al
  4025cd:	sub    BYTE PTR [eax],dl
  4025cf:	add    BYTE PTR [eax],al
  4025d1:	push   es
  4025d2:	jb     0x4025a6
  4025d4:	add    eax,DWORD PTR [eax]
  4025d6:	jo     0x40264a
  4025d8:	fadd   DWORD PTR [ebx]
  4025da:	add    BYTE PTR [eax+0x28],dh
  4025dd:	and    DWORD PTR [eax],eax
  4025df:	add    BYTE PTR [esi],al
  4025e1:	sub    BYTE PTR [eax],dl
  4025e3:	add    BYTE PTR [eax],al
  4025e5:	push   es
  4025e6:	jb     0x4025ce
  4025e8:	add    eax,DWORD PTR [eax]
  4025ea:	jo     0x40265e
  4025ec:	clc    
  4025ed:	add    eax,DWORD PTR [eax]
  4025ef:	jo     0x402619
  4025f1:	and    DWORD PTR [eax],eax
  4025f3:	add    BYTE PTR [esi],al
  4025f5:	sub    BYTE PTR [eax],dl
  4025f7:	add    BYTE PTR [eax],al
  4025f9:	push   es
  4025fa:	jb     0x40260e
  4025fc:	add    al,0x0
  4025fe:	jo     0x402672
  402600:	cs add al,0x0
  402603:	jo     0x40262d
  402605:	and    DWORD PTR [eax],eax
  402607:	add    BYTE PTR [esi],al
  402609:	sub    BYTE PTR [eax],dl
  40260b:	add    BYTE PTR [eax],al
  40260d:	push   es
  40260e:	jb     0x402662
  402610:	add    al,0x0
  402612:	jo     0x402686
  402614:	pusha  
  402615:	add    al,0x0
  402617:	jo     0x402641
  402619:	and    DWORD PTR [eax],eax
  40261b:	add    BYTE PTR [esi],al
  40261d:	sub    BYTE PTR [eax],dl
  40261f:	add    BYTE PTR [eax],al
  402621:	push   es
  402622:	jb     0x40269a
  402624:	add    al,0x0
  402626:	jo     0x40269a
  402628:	mov    WORD PTR [eax+eax*1],es
  40262b:	jo     0x402655
  40262d:	and    DWORD PTR [eax],eax
  40262f:	add    BYTE PTR [esi],al
  402631:	sub    BYTE PTR [eax],dl
  402633:	add    BYTE PTR [eax],al
  402635:	push   es
  402636:	jb     0x4025e2
  402638:	add    al,0x0
  40263a:	jo     0x4026ae
  40263c:	ret    0x4
  40263f:	jo     0x402669
  402641:	and    DWORD PTR [eax],eax
  402643:	add    BYTE PTR [esi],al
  402645:	sub    BYTE PTR [eax],dl
  402647:	add    BYTE PTR [eax],al
  402649:	push   es
  40264a:	jb     0x402675
  40264c:	add    BYTE PTR [eax],al
  40264e:	jo     0x4026c2
  402650:	loop   0x402656
  402652:	add    BYTE PTR [eax+0x28],dh
  402655:	and    DWORD PTR [eax],eax
  402657:	add    BYTE PTR [esi],al
  402659:	sub    BYTE PTR [eax],dl
  40265b:	add    BYTE PTR [eax],al
  40265d:	push   es
  40265e:	jb     0x40265a
  402660:	add    al,0x0
  402662:	jo     0x4026d6
  402664:	adc    al,BYTE PTR ds:0x21287000
  40266a:	add    BYTE PTR [eax],al
  40266c:	push   es
  40266d:	sub    BYTE PTR [eax],dl
  40266f:	add    BYTE PTR [eax],al
  402671:	push   es
  402672:	sub    BYTE PTR [ebx],ch
  402674:	add    BYTE PTR [eax],al
  402676:	or     dh,BYTE PTR [edx+0x32]
  402679:	add    eax,0x21287000
  40267e:	add    BYTE PTR [eax],al
  402680:	push   es
  402681:	sub    BYTE PTR [edx],ch
  402683:	add    BYTE PTR [eax],al
  402685:	or     ch,BYTE PTR [eax]
  402687:	sub    eax,DWORD PTR [eax]
  402689:	add    BYTE PTR [edx],cl
  40268b:	jb     0x4026d1
  40268d:	add    eax,0x21287000
  402692:	add    BYTE PTR [eax],al
  402694:	push   es
  402695:	sub    BYTE PTR [ecx],dl
  402697:	add    BYTE PTR [eax],al
  402699:	push   es
  40269a:	jb     0x4026f2
  40269c:	add    eax,0x2a287000
  4026a1:	add    BYTE PTR [eax],al
  4026a3:	or     dh,BYTE PTR [edx-0x36]
  4026a6:	add    eax,0x2a287000
  4026ab:	add    BYTE PTR [eax],al
  4026ad:	or     ch,BYTE PTR [eax]
  4026af:	sub    eax,DWORD PTR [eax]
  4026b1:	add    BYTE PTR [edx],cl
  4026b3:	jb     0x4026d3
  4026b5:	push   es
  4026b6:	add    BYTE PTR [eax+0x28],dh
  4026b9:	and    DWORD PTR [eax],eax
  4026bb:	add    BYTE PTR [esi],al
  4026bd:	sub    BYTE PTR [ecx],dl
  4026bf:	add    BYTE PTR [eax],al
  4026c1:	push   es
  4026c2:	jb     0x4026f4
  4026c4:	push   es
  4026c5:	add    BYTE PTR [eax+0x28],dh
  4026c8:	sub    al,BYTE PTR [eax]
  4026ca:	add    BYTE PTR [edx],cl
  4026cc:	sub    BYTE PTR [ebx],ch
  4026ce:	add    BYTE PTR [eax],al
  4026d0:	or     dh,BYTE PTR [edx+0x6c]
  4026d3:	push   es
  4026d4:	add    BYTE PTR [eax+0x28],dh
  4026d7:	and    DWORD PTR [eax],eax
  4026d9:	add    BYTE PTR [esi],al
  4026db:	sub    BYTE PTR [ecx],dl
  4026dd:	add    BYTE PTR [eax],al
  4026df:	push   es
  4026e0:	jb     0x402760
  4026e2:	push   es
  4026e3:	add    BYTE PTR [eax+0x28],dh
  4026e6:	sub    al,BYTE PTR [eax]
  4026e8:	add    BYTE PTR [edx],cl
  4026ea:	sub    BYTE PTR [ebx],ch
  4026ec:	add    BYTE PTR [eax],al
  4026ee:	or     ch,BYTE PTR [edx]
  4026f0:	push   esi
  4026f1:	add    ch,BYTE PTR [eax]
  4026f3:	inc    ebx
  4026f4:	add    BYTE PTR [eax],al
  4026f6:	or     al,BYTE PTR [ebx]
  4026f8:	add    ch,BYTE PTR [edi+0x21]
  4026fb:	add    BYTE PTR [eax],al
  4026fd:	or     bl,BYTE PTR [edi]
  4026ff:	push   cs
  402700:	sub    BYTE PTR [edx],dl
  402702:	add    BYTE PTR [eax],al
  402704:	push   es
  402705:	sub    ah,BYTE PTR [esi]
  402707:	add    dl,BYTE PTR [esi]
  402709:	push   ss
  40270a:	sub    BYTE PTR [edx],dl
  40270c:	add    BYTE PTR [eax],al
  40270e:	push   es
  40270f:	sub    dl,BYTE PTR [ebx]
  402711:	xor    BYTE PTR [eax+eax*1],al
  402714:	xchg   edx,eax
  402715:	add    BYTE PTR [eax],al
  402717:	add    BYTE PTR ds:0x2110000,al
  40271d:	pop    ss
  40271e:	lea    esi,[eax+eax*1]
  402721:	add    BYTE PTR [ecx],al
  402723:	adc    eax,DWORD PTR [ecx+edx*1]
  402726:	add    al,0x16
  402728:	pop    ds
  402729:	and    BYTE PTR [ebp+0x446f0411],bl
  40272f:	add    BYTE PTR [eax],al
  402731:	or     cl,BYTE PTR [edx]
  402733:	pop    ss
  402734:	or     eax,DWORD PTR [esi]
  402736:	adc    eax,DWORD PTR ds:0x2b061316
  40273c:	arpl   WORD PTR [ecx],dx
  40273e:	add    eax,0xc9a0611
  402743:	or     BYTE PTR [edi+0x21],ch
  402746:	add    BYTE PTR [eax],al
  402748:	or     cl,BYTE PTR ds:0x9042d07
  40274e:	pop    ss
  40274f:	pop    eax
  402750:	or     eax,0x7e580903
  402755:	add    BYTE PTR ss:[eax],al
  402758:	add    al,0x32
  40275a:	or     ch,BYTE PTR [eax]
  40275c:	sub    eax,DWORD PTR [eax]
  40275e:	add    BYTE PTR [edx],cl
  402760:	push   ss
  402761:	adc    BYTE PTR [ecx],al
  402763:	pop    ss
  402764:	or     eax,DWORD PTR [edi]
  402766:	sub    al,0x14
  402768:	sub    ecx,DWORD PTR [edi+ebx*1]
  40276b:	and    BYTE PTR [eax],ch
  40276d:	inc    ebp
  40276e:	add    BYTE PTR [eax],al
  402770:	or     al,BYTE PTR [ebx]
  402772:	pop    ss
  402773:	pop    eax
  402774:	adc    BYTE PTR [ecx],al
  402776:	add    eax,DWORD PTR [edx+esi*1]
  402779:	lock sub ecx,DWORD PTR [edi+ebx*1]
  40277d:	and    BYTE PTR [eax],ch
  40277f:	inc    ebp
  402780:	add    BYTE PTR [eax],al
  402782:	or     al,BYTE PTR [ebx]
  402784:	pop    ss
  402785:	pop    eax
  402786:	adc    BYTE PTR [ecx],al
  402788:	or     BYTE PTR [eax],ch
  40278a:	inc    ebx
  40278b:	add    BYTE PTR [eax],al
  40278d:	or     al,BYTE PTR [ebx]
  40278f:	or     BYTE PTR [edi+0x21],ch
  402792:	add    BYTE PTR [eax],al
  402794:	or     bl,BYTE PTR [eax+0x10]
  402797:	add    DWORD PTR [esi],edx
  402799:	or     edx,DWORD PTR [ecx]
  40279b:	push   es
  40279c:	pop    ss
  40279d:	pop    eax
  40279e:	adc    eax,DWORD PTR [esi]
  4027a0:	adc    DWORD PTR [esi],eax
  4027a2:	adc    DWORD PTR ds:0x9532698e,eax
  4027a8:	sub    BYTE PTR [ebx],ch
  4027aa:	add    BYTE PTR [eax],al
  4027ac:	or     ch,BYTE PTR [edx]
  4027ae:	add    BYTE PTR [eax],al
  4027b0:	adc    esi,DWORD PTR [eax]
  4027b2:	add    al,0x0
  4027b4:	sub    al,BYTE PTR [eax]
  4027b6:	add    BYTE PTR [eax],al
  4027b8:	push   es
  4027b9:	add    BYTE PTR [eax],al
  4027bb:	adc    DWORD PTR [ebx],eax
  4027bd:	dec    edx
  4027be:	add    cl,BYTE PTR [esi+0x33591769]
  4027c4:	adc    eax,0x6ea72
  4027c9:	jo     0x4027cd
  4027cb:	add    ecx,DWORD PTR [edx-0x66]
  4027ce:	sub    BYTE PTR [edx],ah
  4027d0:	add    BYTE PTR [eax],al
  4027d2:	push   es
  4027d3:	sub    BYTE PTR [edx],ch
  4027d5:	add    BYTE PTR [eax],al
  4027d7:	or     dl,BYTE PTR [edx+ebp*1]
  4027da:	add    al,BYTE PTR [ebx]
  4027dc:	and    eax,0x2558174a
  4027e1:	or     dl,BYTE PTR [esi+eax*1-0x66]
  4027e5:	sub    al,BYTE PTR [eax]
  4027e7:	add    BYTE PTR [ebx],dl
  4027e9:	xor    BYTE PTR [eax+eax*1],al
  4027ec:	xchg   ebx,eax
  4027ed:	add    eax,0x70000
  4027f2:	add    BYTE PTR [ecx],dl
  4027f4:	add    cl,BYTE PTR [esi+0x16022d69]
  4027fa:	sub    dl,BYTE PTR [esi]
  4027fc:	or     bh,BYTE PTR [eax]
  4027fe:	mov    WORD PTR [ebx],es
  402800:	add    BYTE PTR [eax],al
  402802:	add    al,BYTE PTR [esi]
  402804:	call   0x46:0x6f16070b
  40280b:	add    BYTE PTR [edx],cl
  40280d:	pop    ds
  40280e:	das    
  40280f:	cs dec edx
  402811:	pop    es
  402812:	push   ss
  402813:	outs   dx,DWORD PTR ds:[esi]
  402814:	inc    esi
  402815:	add    BYTE PTR [eax],al
  402817:	or     bl,BYTE PTR [edi]
  402819:	sub    eax,0x317e3f2e
  40281e:	add    BYTE PTR [eax],al
  402820:	add    al,0x2d
  402822:	and    DWORD PTR [edi],eax
  402824:	xor    BYTE PTR [ecx],0x0
  402827:	add    BYTE PTR [esi+edi*2],al
  40282a:	xor    DWORD PTR [eax],eax
  40282c:	add    BYTE PTR [eax+ebp*1],al
  40282f:	push   ss
  402830:	add    BYTE PTR [eax],al
  402832:	push   es
  402833:	xor    BYTE PTR [ecx],0x0
  402836:	add    BYTE PTR [esi+edi*2],al
  402839:	xor    DWORD PTR [eax],eax
  40283b:	add    BYTE PTR [edx+edi*1],al
  40283e:	dec    eax
  40283f:	add    eax,DWORD PTR [eax]
  402841:	add    BYTE PTR [esi],dl
  402843:	sub    dh,BYTE PTR [edx+0x2]
  402846:	pop    es
  402847:	add    BYTE PTR [eax+0x72],dh
  40284a:	or     al,0x7
  40284c:	add    BYTE PTR [eax+0x7],dh
  40284f:	sub    BYTE PTR [edx],ah
  402851:	add    BYTE PTR [eax],al
  402853:	push   es
  402854:	sub    BYTE PTR [ebx],bl
  402856:	add    BYTE PTR [eax],al
  402858:	push   es
  402859:	push   ss
  40285a:	sub    al,BYTE PTR [edi]
  40285c:	pop    ss
  40285d:	outs   dx,DWORD PTR ds:[esi]
  40285e:	inc    edi
  40285f:	add    BYTE PTR [eax],al
  402861:	or     ch,BYTE PTR [edi+0x28]
  402864:	add    BYTE PTR [eax],al
  402866:	or     cl,BYTE PTR [eax+ecx*1]
  402869:	and    eax,0x303390d
  40286e:	add    BYTE PTR [eax],al
  402870:	(bad)  
  402871:	adc    edi,DWORD PTR [esi+0x39]
  402874:	add    BYTE PTR [eax],al
  402876:	add    al,0x3a
  402878:	enter  0x0,0x0
  40287c:	pop    ds
  40287d:	(bad)  
  40287f:	dec    ecx
  402880:	add    BYTE PTR [eax],al
  402882:	or     ah,BYTE PTR ds:0x72e72
  402888:	jo     0x4028a0
  40288a:	sub    BYTE PTR [edx+0x0],cl
  40288d:	add    BYTE PTR [edx],cl
  40288f:	and    eax,0x73272
  402894:	jo     0x4028ad
  402896:	sub    BYTE PTR [edx+0x0],cl
  402899:	add    BYTE PTR [edx],cl
  40289b:	and    eax,0x73672
  4028a0:	jo     0x4028ba
  4028a2:	sub    BYTE PTR [edx+0x0],cl
  4028a5:	add    BYTE PTR [edx],cl
  4028a7:	and    eax,0x73a72
  4028ac:	jo     0x4028c7
  4028ae:	sub    BYTE PTR [edx+0x0],cl
  4028b1:	add    BYTE PTR [edx],cl
  4028b3:	and    eax,0x73e72
  4028b8:	jo     0x4028d4
  4028ba:	sub    BYTE PTR [edx+0x0],cl
  4028bd:	add    BYTE PTR [edx],cl
  4028bf:	and    eax,0x74272
  4028c4:	jo     0x4028e1
  4028c6:	sub    BYTE PTR [edx+0x0],cl
  4028c9:	add    BYTE PTR [edx],cl
  4028cb:	and    eax,0x74672
  4028d0:	jo     0x4028ee
  4028d2:	sub    BYTE PTR [edx+0x0],cl
  4028d5:	add    BYTE PTR [edx],cl
  4028d7:	and    eax,0x74a72
  4028dc:	jo     0x4028fb
  4028de:	sub    BYTE PTR [edx+0x0],cl
  4028e1:	add    BYTE PTR [edx],cl
  4028e3:	and    eax,0x74e72
  4028e8:	jo     0x402908
  4028ea:	sub    BYTE PTR [edx+0x0],cl
  4028ed:	add    BYTE PTR [edx],cl
  4028ef:	and    eax,0x75c72
  4028f4:	jo     0x402915
  4028f6:	or     DWORD PTR [eax],ebp
  4028f8:	dec    edx
  4028f9:	add    BYTE PTR [eax],al
  4028fb:	or     ah,BYTE PTR ds:0x77272
  402901:	jo     0x402922
  402903:	or     ch,BYTE PTR [eax]
  402905:	dec    edx
  402906:	add    BYTE PTR [eax],al
  402908:	or     ah,BYTE PTR ds:0x78272
  40290e:	jo     0x40292f
  402910:	or     ebp,DWORD PTR [eax]
  402912:	dec    edx
  402913:	add    BYTE PTR [eax],al
  402915:	or     ah,BYTE PTR ds:0x79c72
  40291b:	jo     0x40293c
  40291d:	or     al,0x28
  40291f:	dec    edx
  402920:	add    BYTE PTR [eax],al
  402922:	or     ah,BYTE PTR ds:0x7a872
  402928:	jo     0x402949
  40292a:	or     eax,0x4a28
  40292f:	or     ah,BYTE PTR ds:0x7bc72
  402935:	jo     0x402956
  402937:	push   cs
  402938:	sub    BYTE PTR [edx+0x0],cl
  40293b:	add    BYTE PTR [edx],cl
  40293d:	(bad)  
  40293e:	adc    eax,DWORD PTR [eax+0x4000039]
  402944:	(bad)  
  402945:	adc    edi,DWORD PTR [esi+0x39]
  402948:	add    BYTE PTR [eax],al
  40294a:	add    al,0x9
  40294c:	adc    al,BYTE PTR [eax+ebp*1]
  40294f:	dec    ebx
  402950:	add    BYTE PTR [eax],al
  402952:	or     bh,BYTE PTR [ecx]
  402954:	sbb    eax,DWORD PTR [edx]
  402956:	add    BYTE PTR [eax],al
  402958:	adc    DWORD PTR [eax*2+0xf],eax
  40295f:	add    eax,0xc000000
  402964:	add    BYTE PTR [eax],al
  402966:	add    BYTE PTR [ebp+0x0],bl
  402969:	add    BYTE PTR [eax],al
  40296b:	popf   
  40296c:	add    BYTE PTR [eax],al
  40296e:	add    ch,dh
  402970:	add    BYTE PTR [eax],al
  402972:	add    BYTE PTR [esi],al
  402974:	add    DWORD PTR [eax],eax
  402976:	add    BYTE PTR [edi],dl
  402978:	add    DWORD PTR [eax],eax
  40297a:	add    BYTE PTR [eax],ch
  40297c:	add    DWORD PTR [eax],eax
  40297e:	add    bh,ch
  402980:	add    DWORD PTR [eax],eax
  402982:	add    BYTE PTR [ecx],bh
  402984:	add    DWORD PTR [eax],eax
  402986:	add    BYTE PTR [ecx+eax*1+0x0],al
  40298a:	add    BYTE PTR [edx-0x57ffffff],dl
  402990:	add    DWORD PTR [eax],eax
  402992:	add    BYTE PTR [edi-0x39ffffff],dh
  402998:	add    DWORD PTR [eax],eax
  40299a:	add    BYTE PTR [eax],bh
  40299c:	rol    DWORD PTR [ecx],cl
  40299e:	add    BYTE PTR [eax],al
  4029a0:	sub    BYTE PTR [edi],cl
  4029a2:	add    BYTE PTR [eax],al
  4029a4:	push   es
  4029a5:	push   ss
  4029a6:	sub    al,BYTE PTR [edx]
  4029a8:	adc    al,BYTE PTR [eax]
  4029aa:	sub    BYTE PTR [ebx],dl
  4029ac:	add    BYTE PTR [eax],al
  4029ae:	push   es
  4029af:	sub    BYTE PTR [edi],0x0
  4029b2:	add    BYTE PTR [esi+edi*2],al
  4029b5:	das    
  4029b6:	add    BYTE PTR [eax],al
  4029b8:	add    al,0x2d
  4029ba:	add    dl,BYTE PTR [esi]
  4029bc:	sub    bh,BYTE PTR [esi+0x2f]
  4029bf:	add    BYTE PTR [eax],al
  4029c1:	add    al,0x28
  4029c3:	sbb    eax,0x2d060000
  4029c8:	sbb    esi,DWORD PTR [edx-0x2e]
  4029cb:	pop    es
  4029cc:	add    BYTE PTR [eax+0x72],dh
  4029cf:	fadd   QWORD PTR [edi]
  4029d1:	add    BYTE PTR [eax+0x7e],dh
  4029d4:	das    
  4029d5:	add    BYTE PTR [eax],al
  4029d7:	add    al,0x28
  4029d9:	and    al,BYTE PTR [eax]
  4029db:	add    BYTE PTR [esi],al
  4029dd:	sub    BYTE PTR [ebx],bl
  4029df:	add    BYTE PTR [eax],al
  4029e1:	push   es
  4029e2:	push   ss
  4029e3:	sub    bh,BYTE PTR [esi+0x2f]
  4029e6:	add    BYTE PTR [eax],al
  4029e8:	add    al,0x1f
  4029ea:	das    
  4029eb:	pop    ds
  4029ec:	or     ch,BYTE PTR [edi+0x4c]
  4029ef:	add    BYTE PTR [eax],al
  4029f1:	or     ah,BYTE PTR [esi]
  4029f3:	cmp    BYTE PTR [edx+0x2000001],dl
  4029f9:	adc    al,BYTE PTR [eax]
  4029fb:	sub    BYTE PTR [ebx],dl
  4029fd:	add    BYTE PTR [eax],al
  4029ff:	push   es
  402a00:	xor    BYTE PTR [eax],0x0
  402a03:	add    BYTE PTR [esi+edi*2],al
  402a06:	xor    BYTE PTR [eax],al
  402a08:	add    BYTE PTR [ebp*1+0x7e2a1602],al
  402a0f:	xor    BYTE PTR [eax],al
  402a11:	add    BYTE PTR [eax+ebp*1],al
  402a14:	adc    eax,0x3a060000
  402a19:	ins    DWORD PTR es:[edi],dx
  402a1a:	add    DWORD PTR [eax],eax
  402a1c:	add    BYTE PTR [edx-0xe],dh
  402a1f:	pop    es
  402a20:	add    BYTE PTR [eax+0x72],dh
  402a23:	cld    
  402a24:	pop    es
  402a25:	add    BYTE PTR [eax+0x7e],dh
  402a28:	xor    BYTE PTR [eax],al
  402a2a:	add    BYTE PTR [eax+ebp*1],al
  402a2d:	and    al,BYTE PTR [eax]
  402a2f:	add    BYTE PTR [esi],al
  402a31:	sub    BYTE PTR [ebx],bl
  402a33:	add    BYTE PTR [eax],al
  402a35:	push   es
  402a36:	push   ss
  402a37:	sub    al,BYTE PTR [edx]
  402a39:	adc    al,BYTE PTR [eax]
  402a3b:	sub    BYTE PTR [ebx],dl
  402a3d:	add    BYTE PTR [eax],al
  402a3f:	push   es
  402a40:	sub    BYTE PTR [esi],0x0
  402a43:	add    BYTE PTR [esi+edi*2],al
  402a46:	add    BYTE PTR cs:[eax],al
  402a49:	add    al,0x2d
  402a4b:	add    dl,BYTE PTR [esi]
  402a4d:	sub    bh,BYTE PTR [esi+0x2e]
  402a50:	add    BYTE PTR [eax],al
  402a52:	add    al,0x28
  402a54:	push   ss
  402a55:	add    BYTE PTR [eax],al
  402a57:	push   es
  402a58:	sub    BYTE PTR [esi],0x0
  402a5b:	add    BYTE PTR [esi+edi*2],al
  402a5e:	add    BYTE PTR cs:[eax],al
  402a61:	add    al,0x2d
  402a63:	add    dl,BYTE PTR [esi]
  402a65:	sub    bh,BYTE PTR [esi+0x2e]
  402a68:	add    BYTE PTR [eax],al
  402a6a:	add    al,0x28
  402a6c:	dec    ebp
  402a6d:	add    BYTE PTR [eax],al
  402a6f:	or     bh,BYTE PTR [edx]
  402a71:	adc    eax,0x72000001
  402a76:	sbb    BYTE PTR [eax],cl
  402a78:	add    BYTE PTR [eax+0x72],dh
  402a7b:	and    cl,BYTE PTR [eax]
  402a7d:	add    BYTE PTR [eax+0x7e],dh
  402a80:	add    BYTE PTR cs:[eax],al
  402a83:	add    al,0x28
  402a85:	and    al,BYTE PTR [eax]
  402a87:	add    BYTE PTR [esi],al
  402a89:	sub    BYTE PTR [ebx],bl
  402a8b:	add    BYTE PTR [eax],al
  402a8d:	push   es
  402a8e:	push   ss
  402a8f:	sub    bh,BYTE PTR [esi+0x34]
  402a92:	add    BYTE PTR [eax],al
  402a94:	add    al,0x17
  402a96:	pusha  
  402a97:	xor    BYTE PTR [eax+eax*1],0x0
  402a9b:	add    al,0x38
  402a9d:	jmp    0x7e402aa2
  402aa2:	xor    al,0x0
  402aa4:	add    BYTE PTR [eax+ebx*1],al
  402aa7:	pusha  
  402aa8:	xor    BYTE PTR [eax+eax*1],0x0
  402aac:	add    al,0x38
  402aae:	fadd   DWORD PTR [eax]
  402ab0:	add    BYTE PTR [eax],al
  402ab2:	jle    0x402ae8
  402ab4:	add    BYTE PTR [eax],al
  402ab6:	add    al,0x1a
  402ab8:	pusha  
  402ab9:	xor    BYTE PTR [eax+eax*1],0x0
  402abd:	add    al,0x38
  402abf:	mov    DWORD PTR [eax],0x347e0000
  402ac5:	add    BYTE PTR [eax],al
  402ac7:	add    al,0x1e
  402ac9:	pusha  
  402aca:	xor    BYTE PTR [eax+eax*1],0x0
  402ace:	add    al,0x38
  402ad0:	mov    dh,0x0
  402ad2:	add    BYTE PTR [eax],al
  402ad4:	pop    ss
  402ad5:	xor    BYTE PTR ds:0x38040000,0xab
  402adc:	add    BYTE PTR [eax],al
  402ade:	add    BYTE PTR [edx],al
  402ae0:	adc    al,BYTE PTR [eax]
  402ae2:	sub    BYTE PTR [ebx],dl
  402ae4:	add    BYTE PTR [eax],al
  402ae6:	push   es
  402ae7:	xor    BYTE PTR [edx],0x0
  402aea:	add    BYTE PTR [esi+edi*2],al
  402aed:	xor    al,BYTE PTR [eax]
  402aef:	add    BYTE PTR [ebp*1+0x7e2a1602],al
  402af6:	xor    al,BYTE PTR [eax]
  402af8:	add    BYTE PTR [eax+ebp*1],al
  402afb:	dec    esi
  402afc:	add    BYTE PTR [eax],al
  402afe:	or     ch,BYTE PTR ds:0x83e721b
  402b04:	add    BYTE PTR [eax+0x72],dh
  402b07:	dec    eax
  402b08:	or     BYTE PTR [eax],al
  402b0a:	jo     0x402b8a
  402b0c:	xor    al,BYTE PTR [eax]
  402b0e:	add    BYTE PTR [eax+ebp*1],al
  402b11:	and    al,BYTE PTR [eax]
  402b13:	add    BYTE PTR [esi],al
  402b15:	sub    BYTE PTR [ebx],bl
  402b17:	add    BYTE PTR [eax],al
  402b19:	push   es
  402b1a:	push   ss
  402b1b:	sub    bh,BYTE PTR [esi+0x32]
  402b1e:	add    BYTE PTR [eax],al
  402b20:	add    al,0x28
  402b22:	dec    edi
  402b23:	add    BYTE PTR [eax],al
  402b25:	or     al,BYTE PTR [eax+0x4000032]
  402b2b:	sub    ebx,DWORD PTR [ebp+0x2]
  402b2e:	adc    al,BYTE PTR [eax]
  402b30:	sub    BYTE PTR [ebx],dl
  402b32:	add    BYTE PTR [eax],al
  402b34:	push   es
  402b35:	xor    BYTE PTR [ebx],0x0
  402b38:	add    BYTE PTR [esi+edi*2],al
  402b3b:	xor    eax,DWORD PTR [eax]
  402b3d:	add    BYTE PTR [ebp*1+0x7e2a1649],al
  402b44:	xor    al,0x0
  402b46:	add    BYTE PTR [edi+ebx*1],al
  402b49:	and    BYTE PTR [eax-0x80],ah
  402b4c:	xor    al,0x0
  402b4e:	add    BYTE PTR [ebx+ebp*1],al
  402b51:	cmp    BYTE PTR [esi+0x34],bh
  402b54:	add    BYTE PTR [eax],al
  402b56:	add    al,0x1f
  402b58:	inc    eax
  402b59:	pusha  
  402b5a:	xor    BYTE PTR [eax+eax*1],0x0
  402b5e:	add    al,0x2b
  402b60:	sub    DWORD PTR [esi+0x34],edi
  402b63:	add    BYTE PTR [eax],al
  402b65:	add    al,0x20
  402b67:	add    BYTE PTR [eax],0x0
  402b6a:	add    BYTE PTR [eax-0x80],ah
  402b6d:	xor    al,0x0
  402b6f:	add    BYTE PTR [ebx+ebp*1],al
  402b72:	pop    ss
  402b73:	jb     0x402bdd
  402b75:	or     BYTE PTR [eax],al
  402b77:	jo     0x402beb
  402b79:	jb     0x402b83
  402b7b:	add    BYTE PTR [eax+0x7],dh
  402b7e:	sub    BYTE PTR [edx],ah
  402b80:	add    BYTE PTR [eax],al
  402b82:	push   es
  402b83:	sub    BYTE PTR [ebx],bl
  402b85:	add    BYTE PTR [eax],al
  402b87:	push   es
  402b88:	push   ss
  402b89:	sub    al,BYTE PTR [esi]
  402b8b:	pop    ss
  402b8c:	pop    eax
  402b8d:	or     al,BYTE PTR [esi]
  402b8f:	add    cl,BYTE PTR [esi-0x394c097]
  402b95:	(bad)  
  402b96:	(bad)  
  402b97:	jle    0x402bc9
  402b99:	add    BYTE PTR [eax],al
  402b9b:	add    al,0x14
  402b9d:	inc    BYTE PTR [ecx]
  402b9f:	jle    0x402bd0
  402ba1:	add    BYTE PTR [eax],al
  402ba3:	add    al,0x14
  402ba5:	inc    BYTE PTR [ecx]
  402ba7:	xor    edx,DWORD PTR [esi]
  402ba9:	jb     0x402b3b
  402bab:	or     BYTE PTR [eax],al
  402bad:	jo     0x402c21
  402baf:	call   0x21:0x28700008
  402bb6:	add    BYTE PTR [esi],al
  402bb8:	sub    BYTE PTR [ebx],bl
  402bba:	add    BYTE PTR [eax],al
  402bbc:	push   es
  402bbd:	push   ss
  402bbe:	sub    bh,BYTE PTR [esi+0x2e]
  402bc1:	add    BYTE PTR [eax],al
  402bc3:	add    al,0x2c
  402bc5:	sbb    eax,0x2f7e
  402bca:	add    al,0x2c
  402bcc:	push   ss
  402bcd:	jb     0x402b81
  402bcf:	or     BYTE PTR [eax],al
  402bd1:	jo     0x402c45
  402bd3:	mov    esp,0x28700008
  402bd8:	and    DWORD PTR [eax],eax
  402bda:	add    BYTE PTR [esi],al
  402bdc:	sub    BYTE PTR [ebx],bl
  402bde:	add    BYTE PTR [eax],al
  402be0:	push   es
  402be1:	push   ss
  402be2:	sub    bh,BYTE PTR [esi+0x34]
  402be5:	add    BYTE PTR [eax],al
  402be7:	add    al,0x17
  402be9:	pop    edi
  402bea:	sub    al,0x22
  402bec:	jle    0x402c1f
  402bee:	add    BYTE PTR [eax],al
  402bf0:	add    al,0x2d
  402bf2:	sbb    esi,DWORD PTR [edx-0x2e]
  402bf5:	or     BYTE PTR [eax],al
  402bf7:	jo     0x402c6b
  402bf9:	fmul   QWORD PTR [eax]
  402bfb:	add    BYTE PTR [eax+0x72],dh
  402bfe:	ds pop es
  402c00:	add    BYTE PTR [eax+0x28],dh
  402c03:	and    al,BYTE PTR [eax]
  402c05:	add    BYTE PTR [esi],al
  402c07:	sub    BYTE PTR [ebx],bl
  402c09:	add    BYTE PTR [eax],al
  402c0b:	push   es
  402c0c:	push   ss
  402c0d:	sub    bh,BYTE PTR [esi+0x34]
  402c10:	add    BYTE PTR [eax],al
  402c12:	add    al,0x18
  402c14:	pop    edi
  402c15:	sub    al,0x22
  402c17:	jle    0x402c4a
  402c19:	add    BYTE PTR [eax],al
  402c1b:	add    al,0x2d
  402c1d:	sbb    esi,DWORD PTR [edx+0x6]
  402c20:	or     DWORD PTR [eax],eax
  402c22:	jo     0x402c96
  402c24:	fmul   QWORD PTR [eax]
  402c26:	add    BYTE PTR [eax+0x72],dh
  402c29:	inc    edx
  402c2a:	pop    es
  402c2b:	add    BYTE PTR [eax+0x28],dh
  402c2e:	and    al,BYTE PTR [eax]
  402c30:	add    BYTE PTR [esi],al
  402c32:	sub    BYTE PTR [ebx],bl
  402c34:	add    BYTE PTR [eax],al
  402c36:	push   es
  402c37:	push   ss
  402c38:	sub    bh,BYTE PTR [esi+0x34]
  402c3b:	add    BYTE PTR [eax],al
  402c3d:	add    al,0x1a
  402c3f:	pop    edi
  402c40:	sub    al,0x22
  402c42:	jle    0x402c75
  402c44:	add    BYTE PTR [eax],al
  402c46:	add    al,0x2d
  402c48:	sbb    esi,DWORD PTR [edx+0x10]
  402c4b:	or     DWORD PTR [eax],eax
  402c4d:	jo     0x402cc1
  402c4f:	fmul   QWORD PTR [eax]
  402c51:	add    BYTE PTR [eax+0x72],dh
  402c54:	inc    esi
  402c55:	pop    es
  402c56:	add    BYTE PTR [eax+0x28],dh
  402c59:	and    al,BYTE PTR [eax]
  402c5b:	add    BYTE PTR [esi],al
  402c5d:	sub    BYTE PTR [ebx],bl
  402c5f:	add    BYTE PTR [eax],al
  402c61:	push   es
  402c62:	push   ss
  402c63:	sub    bh,BYTE PTR [esi+0x32]
  402c66:	add    BYTE PTR [eax],al
  402c68:	add    al,0x2c
  402c6a:	and    bh,BYTE PTR [esi+0x31]
  402c6d:	add    BYTE PTR [eax],al
  402c6f:	add    al,0x2d
  402c71:	sbb    esi,DWORD PTR [edx+0x1a]
  402c74:	or     DWORD PTR [eax],eax
  402c76:	jo     0x402cea
  402c78:	fmul   QWORD PTR [eax]
  402c7a:	add    BYTE PTR [eax+0x72],dh
  402c7d:	jb     0x402c86
  402c7f:	add    BYTE PTR [eax+0x28],dh
  402c82:	and    al,BYTE PTR [eax]
  402c84:	add    BYTE PTR [esi],al
  402c86:	sub    BYTE PTR [ebx],bl
  402c88:	add    BYTE PTR [eax],al
  402c8a:	push   es
  402c8b:	push   ss
  402c8c:	sub    bh,BYTE PTR [esi+0x33]
  402c8f:	add    BYTE PTR [eax],al
  402c91:	add    al,0x2c
  402c93:	and    bh,BYTE PTR [esi+0x31]
  402c96:	add    BYTE PTR [eax],al
  402c98:	add    al,0x2d
  402c9a:	sbb    esi,DWORD PTR [edx+0x24]
  402c9d:	or     DWORD PTR [eax],eax
  402c9f:	jo     0x402d13
  402ca1:	fmul   QWORD PTR [eax]
  402ca3:	add    BYTE PTR [eax+0x72],dh
  402ca6:	add    BYTE PTR [edi],0x0
  402ca9:	jo     0x402cd3
  402cab:	and    al,BYTE PTR [eax]
  402cad:	add    BYTE PTR [esi],al
  402caf:	sub    BYTE PTR [ebx],bl
  402cb1:	add    BYTE PTR [eax],al
  402cb3:	push   es
  402cb4:	push   ss
  402cb5:	sub    bh,BYTE PTR [esi+0x34]
  402cb8:	add    BYTE PTR [eax],al
  402cba:	add    al,0x20
  402cbc:	add    BYTE PTR [eax],0x0
  402cbf:	add    BYTE PTR [edi+0x2c],bl
  402cc2:	and    bh,BYTE PTR [esi+0x31]
  402cc5:	add    BYTE PTR [eax],al
  402cc7:	add    al,0x2d
  402cc9:	sbb    esi,DWORD PTR [edx+0x2e]
  402ccc:	or     DWORD PTR [eax],eax
  402cce:	jo     0x402d42
  402cd0:	fmul   QWORD PTR [eax]
  402cd2:	add    BYTE PTR [eax+0x72],dh
  402cd5:	mov    esp,0x28700007
  402cda:	and    al,BYTE PTR [eax]
  402cdc:	add    BYTE PTR [esi],al
  402cde:	sub    BYTE PTR [ebx],bl
  402ce0:	add    BYTE PTR [eax],al
  402ce2:	push   es
  402ce3:	push   ss
  402ce4:	sub    bh,BYTE PTR [esi+0x34]
  402ce7:	add    BYTE PTR [eax],al
  402ce9:	add    al,0x1f
  402ceb:	inc    eax
  402cec:	pop    edi
  402ced:	sub    al,0x46
  402cef:	jle    0x402d23
  402cf1:	add    BYTE PTR [eax],al
  402cf3:	add    al,0x2d
  402cf5:	sbb    eax,0x337e
  402cfa:	add    al,0x2d
  402cfc:	push   ss
  402cfd:	jb     0x402d37
  402cff:	or     DWORD PTR [eax],eax
  402d01:	jo     0x402d75
  402d03:	inc    edx
  402d04:	or     DWORD PTR [eax],eax
  402d06:	jo     0x402d30
  402d08:	and    DWORD PTR [eax],eax
  402d0a:	add    BYTE PTR [esi],al
  402d0c:	sub    BYTE PTR [ebx],bl
  402d0e:	add    BYTE PTR [eax],al
  402d10:	push   es
  402d11:	push   ss
  402d12:	sub    bh,BYTE PTR [esi+0x31]
  402d15:	add    BYTE PTR [eax],al
  402d17:	add    al,0x2d
  402d19:	sbb    esi,DWORD PTR [edx+0x66]
  402d1c:	or     DWORD PTR [eax],eax
  402d1e:	jo     0x402d92
  402d20:	fmul   QWORD PTR [eax]
  402d22:	add    BYTE PTR [eax+0x72],dh
  402d25:	test   al,0x7
  402d27:	add    BYTE PTR [eax+0x28],dh
  402d2a:	and    al,BYTE PTR [eax]
  402d2c:	add    BYTE PTR [esi],al
  402d2e:	sub    BYTE PTR [ebx],bl
  402d30:	add    BYTE PTR [eax],al
  402d32:	push   es
  402d33:	push   ss
  402d34:	sub    bh,BYTE PTR [esi+0x34]
  402d37:	add    BYTE PTR [eax],al
  402d39:	add    al,0x1f
  402d3b:	and    BYTE PTR [edi+0x2c],bl
  402d3e:	inc    esi
  402d3f:	jle    0x402d73
  402d41:	add    BYTE PTR [eax],al
  402d43:	add    al,0x2d
  402d45:	sbb    eax,0x337e
  402d4a:	add    al,0x2d
  402d4c:	push   ss
  402d4d:	jb     0x402dbf
  402d4f:	or     DWORD PTR [eax],eax
  402d51:	jo     0x402dc5
  402d53:	jp     0x402d5e
  402d55:	add    BYTE PTR [eax+0x28],dh
  402d58:	and    DWORD PTR [eax],eax
  402d5a:	add    BYTE PTR [esi],al
  402d5c:	sub    BYTE PTR [ebx],bl
  402d5e:	add    BYTE PTR [eax],al
  402d60:	push   es
  402d61:	push   ss
  402d62:	sub    bh,BYTE PTR [esi+0x31]
  402d65:	add    BYTE PTR [eax],al
  402d67:	add    al,0x2d
  402d69:	sbb    esi,DWORD PTR [edx-0x6a]
  402d6c:	or     DWORD PTR [eax],eax
  402d6e:	jo     0x402de2
  402d70:	fmul   QWORD PTR [eax]
  402d72:	add    BYTE PTR [eax+0x72],dh
  402d75:	pushf  
  402d76:	pop    es
  402d77:	add    BYTE PTR [eax+0x28],dh
  402d7a:	and    al,BYTE PTR [eax]
  402d7c:	add    BYTE PTR [esi],al
  402d7e:	sub    BYTE PTR [ebx],bl
  402d80:	add    BYTE PTR [eax],al
  402d82:	push   es
  402d83:	push   ss
  402d84:	sub    dl,BYTE PTR [edi]
  402d86:	sub    bl,BYTE PTR [esi+0x2]
  402d89:	sub    eax,0x22a1602
  402d8e:	jle    0x402dc7
  402d90:	add    BYTE PTR [eax],al
  402d92:	add    al,0x6f
  402d94:	push   eax
  402d95:	add    BYTE PTR [eax],al
  402d97:	or     dl,BYTE PTR [esi]
  402d99:	xor    al,BYTE PTR [edx]
  402d9b:	push   ss
  402d9c:	sub    dl,BYTE PTR [edi]
  402d9e:	sub    al,BYTE PTR [eax]
  402da0:	sbb    esi,DWORD PTR [eax]
  402da2:	add    eax,DWORD PTR [eax]
  402da4:	and    eax,0x8000000
  402da9:	add    BYTE PTR [eax],al
  402dab:	adc    DWORD PTR [edx],eax
  402dad:	sub    BYTE PTR [edi+0x0],cl
  402db0:	add    BYTE PTR [edx],cl
  402db2:	or     bl,dh
  402db4:	sbb    ah,BYTE PTR [esi]
  402db6:	jb     0x402d58
  402db8:	or     DWORD PTR [eax],eax
  402dba:	jo     0x402e2e
  402dbc:	stos   BYTE PTR es:[edi],al
  402dbd:	or     DWORD PTR [eax],eax
  402dbf:	jo     0x402dc3
  402dc1:	sub    BYTE PTR [edx],ah
  402dc3:	add    BYTE PTR [eax],al
  402dc5:	push   es
  402dc6:	sub    BYTE PTR [ebx],bl
  402dc8:	add    BYTE PTR [eax],al
  402dca:	push   es
  402dcb:	adc    al,0xa
  402dcd:	fiadd  WORD PTR [eax]
  402dcf:	push   es
  402dd0:	sub    al,BYTE PTR [eax]
  402dd2:	add    BYTE PTR [eax],al
  402dd4:	add    DWORD PTR [eax],edx
  402dd6:	add    BYTE PTR [eax],al
  402dd8:	add    BYTE PTR [eax],al
  402dda:	add    BYTE PTR [eax],al
  402ddc:	or     DWORD PTR [ecx],ecx
  402dde:	add    BYTE PTR [edx],bl
  402de0:	add    eax,DWORD PTR [eax]
  402de2:	add    BYTE PTR [ecx],al
  402de4:	adc    esi,DWORD PTR [eax]
  402de6:	add    eax,0x6c00
  402deb:	add    BYTE PTR [ecx],cl
  402ded:	add    BYTE PTR [eax],al
  402def:	adc    DWORD PTR [edx],eax
  402df1:	sub    BYTE PTR [eax],bl
  402df3:	add    BYTE PTR [eax],al
  402df5:	push   es
  402df6:	or     al,BYTE PTR [esi]
  402df8:	sub    al,0x3
  402dfa:	push   es
  402dfb:	adc    BYTE PTR [eax],al
  402dfd:	add    dh,BYTE PTR [ebp+0x3a]
  402e00:	add    BYTE PTR [eax],al
  402e02:	add    DWORD PTR ds:0x3b750249,ebp
  402e08:	add    BYTE PTR [eax],al
  402e0a:	add    DWORD PTR ds:0x3c750241,ebp
  402e10:	add    BYTE PTR [eax],al
  402e12:	add    DWORD PTR [esi+eiz*1],ebp
  402e15:	add    dh,BYTE PTR [esp+edi*1+0x0]
  402e19:	add    BYTE PTR [ecx],al
  402e1b:	or     eax,DWORD PTR [edi]
  402e1d:	outs   dx,DWORD PTR ds:[esi]
  402e1e:	push   ecx
  402e1f:	add    BYTE PTR [eax],al
  402e21:	or     al,BYTE PTR [edi]
  402e23:	outs   dx,DWORD PTR ds:[esi]
  402e24:	push   edx
  402e25:	add    BYTE PTR [eax],al
  402e27:	or     dl,BYTE PTR [esi]
  402e29:	jb     0x402def
  402e2b:	or     DWORD PTR [eax],eax
  402e2d:	jo     0x402e36
  402e2f:	outs   dx,DWORD PTR ds:[esi]
  402e30:	push   ebx
  402e31:	add    BYTE PTR [eax],al
  402e33:	or     ch,BYTE PTR [eax]
  402e35:	sbb    al,0x0
  402e37:	add    BYTE PTR [esi],al
  402e39:	sub    edx,DWORD PTR [ebx]
  402e3b:	adc    al,0x16
  402e3d:	push   ss
  402e3e:	jb     0x402e18
  402e40:	or     DWORD PTR [eax],eax
  402e42:	jo     0x402e46
  402e44:	outs   dx,DWORD PTR ds:[esi]
  402e45:	push   esp
  402e46:	add    BYTE PTR [eax],al
  402e48:	or     ch,BYTE PTR [eax]
  402e4a:	sbb    al,0x0
  402e4c:	add    BYTE PTR [esi],al
  402e4e:	jle    0x402e85
  402e50:	add    BYTE PTR [eax],al
  402e52:	add    al,0x2c
  402e54:	push   es
  402e55:	add    ch,BYTE PTR [eax]
  402e57:	sbb    al,BYTE PTR [eax]
  402e59:	add    BYTE PTR [esi],al
  402e5b:	sub    dl,BYTE PTR [ebx]
  402e5d:	xor    BYTE PTR [ecx],al
  402e5f:	add    BYTE PTR ds:0xa000000,ch
  402e65:	add    BYTE PTR [eax],al
  402e67:	adc    DWORD PTR [edx],eax
  402e69:	jne    0x402ea5
  402e6b:	add    BYTE PTR [eax],al
  402e6d:	add    DWORD PTR ds:0x3b750210,ebp
  402e73:	add    BYTE PTR [eax],al
  402e75:	add    DWORD PTR ds:0x3c750208,ebp
  402e7b:	add    BYTE PTR [eax],al
  402e7d:	add    DWORD PTR [edx+eax*1],ebp
  402e80:	add    ch,BYTE PTR [edx]
  402e82:	add    ch,BYTE PTR [edi+0x55]
  402e85:	add    BYTE PTR [eax],al
  402e87:	or     cl,BYTE PTR [edx]
  402e89:	push   es
  402e8a:	sub    eax,0x62a1402
  402e8f:	sub    BYTE PTR [eax],bl
  402e91:	add    BYTE PTR [eax],al
  402e93:	push   es
  402e94:	sub    dl,BYTE PTR [edx+0x566f02]
  402e9a:	add    BYTE PTR [edx],cl
  402e9c:	add    ch,BYTE PTR [edi+0x57]
  402e9f:	add    BYTE PTR [eax],al
  402ea1:	or     al,BYTE PTR [edx]
  402ea3:	outs   dx,DWORD PTR ds:[esi]
  402ea4:	pop    eax
  402ea5:	add    BYTE PTR [eax],al
  402ea7:	or     al,BYTE PTR [edx]
  402ea9:	outs   dx,DWORD PTR ds:[esi]
  402eaa:	pop    ecx
  402eab:	add    BYTE PTR [eax],al
  402ead:	or     al,BYTE PTR [edx]
  402eaf:	outs   dx,DWORD PTR ds:[esi]
  402eb0:	pop    edx
  402eb1:	add    BYTE PTR [eax],al
  402eb3:	or     ch,BYTE PTR [eax]
  402eb5:	sbb    al,0x0
  402eb7:	add    BYTE PTR [esi],al
  402eb9:	sub    al,BYTE PTR [eax]
  402ebb:	add    BYTE PTR [ebx],dl
  402ebd:	xor    BYTE PTR [ebx],al
  402ebf:	add    BYTE PTR [edx+0x0],dh
  402ec2:	add    BYTE PTR [eax],al
  402ec4:	or     eax,DWORD PTR [eax]
  402ec6:	add    BYTE PTR [ecx],dl
  402ec8:	add    ch,BYTE PTR [edi+0x55]
  402ecb:	add    BYTE PTR [eax],al
  402ecd:	or     cl,BYTE PTR [edx]
  402ecf:	push   es
  402ed0:	sub    al,0x6
  402ed2:	push   es
  402ed3:	sub    BYTE PTR [edx],bl
  402ed5:	add    BYTE PTR [eax],al
  402ed7:	push   es
  402ed8:	jb     0x402ec8
  402eda:	or     DWORD PTR [eax],eax
  402edc:	jo     0x402ee0
  402ede:	outs   dx,DWORD PTR ds:[esi]
  402edf:	pop    ebx
  402ee0:	add    BYTE PTR [eax],al
  402ee2:	or     ch,BYTE PTR [edi+0x5c]
  402ee5:	add    BYTE PTR [eax],al
  402ee7:	or     dh,BYTE PTR [edx-0xe]
  402eea:	or     DWORD PTR [eax],eax
  402eec:	jo     0x402f16
  402eee:	pop    ebp
  402eef:	add    BYTE PTR [eax],al
  402ef1:	or     cl,BYTE PTR [ebx]
  402ef3:	add    ch,BYTE PTR [edi+0x54]
  402ef6:	add    BYTE PTR [eax],al
  402ef8:	or     ch,BYTE PTR [eax+eiz*1]
  402efb:	add    ch,BYTE PTR [edi+0x54]
  402efe:	add    BYTE PTR [eax],al
  402f00:	or     ch,BYTE PTR [edi+0x21]
  402f03:	add    BYTE PTR [eax],al
  402f05:	or     dl,BYTE PTR [esi]
  402f07:	xor    DWORD PTR [edx],edx
  402f09:	pop    es
  402f0a:	jb     0x402f02
  402f0c:	or     DWORD PTR [eax],eax
  402f0e:	jo     0x402f12
  402f10:	outs   dx,DWORD PTR ds:[esi]
  402f11:	push   esp
  402f12:	add    BYTE PTR [eax],al
  402f14:	or     ch,BYTE PTR [eax]
  402f16:	pop    ebp
  402f17:	add    BYTE PTR [eax],al
  402f19:	or     cl,BYTE PTR [ebx]
  402f1b:	sub    BYTE PTR [ebx],ch
  402f1d:	add    BYTE PTR [eax],al
  402f1f:	or     al,BYTE PTR [edi]
  402f21:	sub    BYTE PTR [edx],ch
  402f23:	add    BYTE PTR [eax],al
  402f25:	or     al,BYTE PTR [edx]
  402f27:	outs   dx,DWORD PTR ds:[esi]
  402f28:	pop    esi
  402f29:	add    BYTE PTR [eax],al
  402f2b:	or     ch,BYTE PTR [ebx+ecx*1]
  402f2e:	add    ch,BYTE PTR [edi+0x5e]
  402f31:	add    BYTE PTR [eax],al
  402f33:	or     ch,BYTE PTR [eax]
  402f35:	sub    al,BYTE PTR [eax]
  402f37:	add    BYTE PTR [edx],cl
  402f39:	sub    ch,BYTE PTR [esi]
  402f3b:	adc    al,0x16
  402f3d:	push   ss
  402f3e:	add    al,BYTE PTR [ebx]
  402f40:	sub    BYTE PTR [eax+eax*1],bl
  402f43:	add    BYTE PTR [esi],al
  402f45:	sub    al,BYTE PTR [eax]
  402f47:	add    BYTE PTR [ebx],al
  402f49:	xor    BYTE PTR [ebx],al
  402f4b:	add    BYTE PTR [eax+eax*1+0x0],dl
  402f4f:	add    BYTE PTR [eax],al
  402f51:	add    BYTE PTR [eax],al
  402f53:	add    BYTE PTR [edx],al
  402f55:	sub    al,0x20
  402f57:	add    ch,BYTE PTR [eax]
  402f59:	inc    ebx
  402f5a:	add    BYTE PTR [eax],al
  402f5c:	or     dh,BYTE PTR [edx-0x4]
  402f5f:	or     DWORD PTR [eax],eax
  402f61:	jo     0x402f66
  402f63:	mov    WORD PTR [eax],?
  402f65:	add    BYTE PTR [eax],al
  402f67:	add    DWORD PTR [edx+0x0],esi
  402f6a:	or     al,BYTE PTR [eax]
  402f6c:	jo     0x402f96
  402f6e:	pop    edi
  402f6f:	add    BYTE PTR [eax],al
  402f71:	or     ch,BYTE PTR [eax]
  402f73:	inc    ebx
  402f74:	add    BYTE PTR [eax],al
  402f76:	or     al,BYTE PTR [esp+ebp*1]
  402f79:	or     al,0x72
  402f7b:	or     BYTE PTR [edx],cl
  402f7d:	add    BYTE PTR [eax+0x28],dh
  402f80:	inc    ebx
  402f81:	add    BYTE PTR [eax],al
  402f83:	or     ch,BYTE PTR [ebx]
  402f85:	or     dh,BYTE PTR [edx+0x1a]
  402f88:	or     al,BYTE PTR [eax]
  402f8a:	jo     0x402fb4
  402f8c:	inc    ebx
  402f8d:	add    BYTE PTR [eax],al
  402f8f:	or     al,BYTE PTR ds:0x9f672
  402f95:	jo     0x402fbf
  402f97:	and    eax,DWORD PTR [eax]
  402f99:	add    BYTE PTR [edx],cl
  402f9b:	sub    BYTE PTR [ebx+0x0],al
  402f9e:	add    BYTE PTR [edx],cl
  402fa0:	push   cs
  402fa1:	add    al,0x28
  402fa3:	sub    al,BYTE PTR [eax]
  402fa5:	add    BYTE PTR [edx],cl
  402fa7:	sub    dl,BYTE PTR [ebx]
  402fa9:	xor    BYTE PTR [ebx],al
  402fab:	add    BYTE PTR ds:0x6000000,bh
  402fb1:	add    BYTE PTR [eax],al
  402fb3:	adc    DWORD PTR [edx],eax
  402fb5:	jb     0x402fdf
  402fb7:	or     al,BYTE PTR [eax]
  402fb9:	jo     0x402fe3
  402fbb:	push   ds
  402fbc:	add    BYTE PTR [eax],al
  402fbe:	push   es
  402fbf:	sub    eax,0x7e2a1602
  402fc4:	das    
  402fc5:	add    BYTE PTR [eax],al
  402fc7:	add    al,0x1f
  402fc9:	das    
  402fca:	pop    ds
  402fcb:	or     ch,BYTE PTR [edi+0x4c]
  402fce:	add    BYTE PTR [eax],al
  402fd0:	or     cl,BYTE PTR [edx]
  402fd2:	push   es
  402fd3:	push   ss
  402fd4:	das    
  402fd5:	add    dl,BYTE PTR [esi]
  402fd7:	sub    al,BYTE PTR [edx]
  402fd9:	push   es
  402fda:	pop    ss
  402fdb:	pop    eax
  402fdc:	outs   dx,DWORD PTR ds:[esi]
  402fdd:	inc    edi
  402fde:	add    BYTE PTR [eax],al
  402fe0:	or     dh,BYTE PTR [edx+0x3e]
  402fe3:	or     al,BYTE PTR [eax]
  402fe5:	jo     0x40300f
  402fe7:	push   ds
  402fe8:	add    BYTE PTR [eax],al
  402fea:	push   es
  402feb:	sub    eax,0x172a1602
  402ff0:	sub    dl,BYTE PTR [edx+0x216f03]
  402ff6:	add    BYTE PTR [edx],cl
  402ff8:	add    ch,BYTE PTR [edi+0x21]
  402ffb:	add    BYTE PTR [eax],al
  402ffd:	or     dh,BYTE PTR [ecx]
  402fff:	add    dl,BYTE PTR [esi]
  403001:	sub    dl,BYTE PTR [esi]
  403003:	add    dl,BYTE PTR [esi]
  403005:	add    edx,DWORD PTR [esi]
  403007:	add    ebp,DWORD PTR [edi+0x21]
  40300a:	add    BYTE PTR [eax],al
  40300c:	or     bl,BYTE PTR [ebx]
  40300e:	sub    BYTE PTR [eax+0x0],ah
  403011:	add    BYTE PTR [edx],cl
  403013:	inc    BYTE PTR [ecx]
  403015:	sub    bh,dl
  403017:	jle    0x403051
  403019:	add    BYTE PTR [eax],al
  40301b:	add    al,0x2d
  40301d:	sub    bh,BYTE PTR [esi+0x38]
  403020:	add    BYTE PTR [eax],al
  403022:	add    al,0x2d
  403024:	and    esi,DWORD PTR [edx+0x1]
  403027:	add    BYTE PTR [eax],al
  403029:	jo     0x402ffb
  40302b:	add    eax,0x28020000
  403030:	xor    al,BYTE PTR [eax]
  403032:	add    BYTE PTR [edx],cl
  403034:	outs   dx,DWORD PTR ds:[esi]
  403035:	popa   
  403036:	add    BYTE PTR [eax],al
  403038:	or     ch,BYTE PTR [edi+0x62]
  40303b:	add    BYTE PTR [eax],al
  40303d:	or     dh,BYTE PTR [ebx+0x1c]
  403040:	add    BYTE PTR [eax],al
  403042:	or     al,BYTE PTR [eax+0x4000038]
  403048:	jle    0x403082
  40304a:	add    BYTE PTR [eax],al
  40304c:	add    al,0x2
  40304e:	adc    al,0x6f
  403050:	and    BYTE PTR [eax],al
  403052:	add    BYTE PTR [edx],cl
  403054:	sub    bl,BYTE PTR [esi]
  403056:	add    ch,BYTE PTR [eax]
  403058:	pop    ds
  403059:	add    BYTE PTR [eax],al
  40305b:	push   es
  40305c:	sub    bl,BYTE PTR [esi]
  40305e:	add    ch,BYTE PTR [eax]
  403060:	and    BYTE PTR [eax],al
  403062:	add    BYTE PTR [esi],al
  403064:	sub    al,BYTE PTR [eax]
  403066:	add    BYTE PTR [eax],al
  403068:	adc    esi,DWORD PTR [eax]
  40306a:	add    eax,DWORD PTR [eax]
  40306c:	adc    al,0x0
  40306e:	add    BYTE PTR [eax],al
  403070:	or     BYTE PTR [eax],al
  403072:	add    BYTE PTR [ecx],dl
  403074:	add    ch,BYTE PTR [eax]
  403076:	and    BYTE PTR [eax],al
  403078:	add    BYTE PTR [esi],al
  40307a:	or     al,BYTE PTR [esi]
  40307c:	sub    eax,0x62a1402
  403081:	add    ebp,DWORD PTR [eax]
  403083:	arpl   WORD PTR [eax],ax
  403085:	add    BYTE PTR [edx],cl
  403087:	sub    dl,BYTE PTR [ebx]
  403089:	xor    BYTE PTR [eax+eax*1],al
  40308c:	adc    eax,0x8000000
  403091:	add    BYTE PTR [eax],al
  403093:	adc    DWORD PTR [edx],eax
  403095:	sub    BYTE PTR [eax],ah
  403097:	add    BYTE PTR [eax],al
  403099:	push   es
  40309a:	or     al,BYTE PTR [esi]
  40309c:	sub    eax,0x62a1402
  4030a1:	add    eax,DWORD PTR [eax+ebp*1]
  4030a4:	add    BYTE PTR fs:[eax],al
  4030a7:	or     ch,BYTE PTR [edx]
  4030a9:	add    BYTE PTR [eax],al
  4030ab:	add    BYTE PTR [ebx],dl
  4030ad:	xor    BYTE PTR [ebx],al
  4030af:	add    BYTE PTR [edi],bl
  4030b1:	add    BYTE PTR [eax],al
  4030b3:	add    BYTE PTR [eax+eax*1],cl
  4030b6:	add    BYTE PTR [ecx],dl
  4030b8:	pop    ds
  4030b9:	push   eax
  4030ba:	xor    BYTE PTR [esi],0x0
  4030bd:	add    BYTE PTR [eax+ebx*1],al
  4030c0:	lea    esi,[eax+eax*1]
  4030c3:	add    BYTE PTR [ecx],al
  4030c5:	or     al,BYTE PTR [esi]
  4030c7:	push   ss
  4030c8:	pop    ds
  4030c9:	sub    bl,BYTE PTR [ebp+0x3f1f1706]
  4030cf:	popf   
  4030d0:	push   es
  4030d1:	xor    BYTE PTR [edi],0x0
  4030d4:	add    BYTE PTR [edx+ebp*1],al
  4030d7:	push   ds
  4030d8:	add    ch,BYTE PTR [eax]
  4030da:	sbb    BYTE PTR [eax],al
  4030dc:	add    BYTE PTR [edx],cl
  4030de:	sub    bl,BYTE PTR [esi]
  4030e0:	add    ebp,DWORD PTR [eax]
  4030e2:	sbb    DWORD PTR [eax],eax
  4030e4:	add    BYTE PTR [esi],al
  4030e6:	sub    bh,BYTE PTR [edx+0x3]
  4030e9:	outs   dx,DWORD PTR ds:[esi]
  4030ea:	add    BYTE PTR gs:[eax],al
  4030ed:	or     al,BYTE PTR [ebx]
  4030ef:	outs   dx,DWORD PTR ds:[esi]
  4030f0:	data16 add BYTE PTR [eax],al
  4030f3:	or     dl,BYTE PTR [esi]
  4030f5:	jb     0x40313f
  4030f7:	or     al,BYTE PTR [eax]
  4030f9:	jo     0x4030fe
  4030fb:	outs   dx,DWORD PTR ds:[esi]
  4030fc:	add    BYTE PTR [bx+si],al
  4030ff:	or     ch,BYTE PTR [eax]
  403101:	sbb    al,0x0
  403103:	add    BYTE PTR [esi],al
  403105:	sub    al,BYTE PTR [esi]
  403107:	sub    cl,BYTE PTR [edx]
  403109:	adc    al,0x2a
  40310b:	push   ds
  40310c:	add    ch,BYTE PTR [eax]
  40310e:	push   0x2a0a0000
  403113:	add    BYTE PTR [eax],al
  403115:	add    BYTE PTR [eax],al
  403117:	add    BYTE PTR [edx+0x11],ch
  40311a:	add    BYTE PTR [eax],al
  40311c:	into   
  40311d:	retf   0xbeef
  403120:	add    DWORD PTR [eax],eax
  403122:	add    BYTE PTR [eax],al
  403124:	xchg   ecx,eax
  403125:	add    BYTE PTR [eax],al
  403127:	add    BYTE PTR [ebx+edx*2+0x79],ch
  40312b:	jae    0x4031a1
  40312d:	gs ins DWORD PTR es:[edi],dx
  40312f:	cs push edx
  403131:	gs jae 0x4031a3
  403134:	jne    0x4031a8
  403136:	arpl   WORD PTR [ebp+0x73],sp
  403139:	cs push edx
  40313b:	gs jae 0x4031ad
  40313e:	jne    0x4031b2
  403140:	arpl   WORD PTR [ebp+0x52],sp
  403143:	gs popa 
  403145:	fs gs jb 0x403175
  403149:	and    BYTE PTR [ebp+0x73],ch
  40314c:	arpl   WORD PTR [edi+0x72],bp
  40314f:	ins    BYTE PTR es:[edi],dx
  403150:	imul   esp,DWORD PTR [edx+0x2c],0x72655620
  403157:	jae    0x4031c2
  403159:	outs   dx,DWORD PTR ds:[esi]
  40315a:	outs   dx,BYTE PTR ds:[esi]
  40315b:	cmp    eax,0x2e302e32
  403160:	xor    BYTE PTR [esi],ch
  403162:	xor    BYTE PTR [eax+eiz*1],ch
  403165:	inc    ebx
  403166:	jne    0x4031d4
  403168:	je     0x4031df
  40316a:	jb     0x4031d1
  40316c:	cmp    eax,0x7475656e
  403171:	jb     0x4031d4
  403173:	ins    BYTE PTR es:[edi],dx
  403174:	sub    al,0x20
  403176:	push   eax
  403177:	jne    0x4031db
  403179:	ins    BYTE PTR es:[edi],dx
  40317a:	imul   esp,DWORD PTR [ebx+0x4b],0x6f547965
  403181:	imul   esp,DWORD PTR [ebp+0x6e],0x3d
  403185:	bound  esi,QWORD PTR [edi]
  403187:	aaa    
  403188:	popa   
  403189:	xor    eax,0x31363563
  40318e:	cmp    DWORD PTR [ebx],esi
  403190:	xor    al,0x65
  403192:	xor    BYTE PTR [eax],bh
  403194:	cmp    DWORD PTR [ebx],esp
  403196:	push   ebx
  403197:	jns    0x40320c
  403199:	je     0x403200
  40319b:	ins    DWORD PTR es:[edi],dx
  40319c:	cs push edx
  40319e:	gs jae 0x403210
  4031a1:	jne    0x403215
  4031a3:	arpl   WORD PTR [ebp+0x73],sp
  4031a6:	cs push edx
  4031a8:	jne    0x403218
  4031aa:	je     0x403215
  4031ac:	ins    DWORD PTR es:[edi],dx
  4031ad:	gs push edx
  4031af:	gs jae 0x403221
  4031b2:	jne    0x403226
  4031b4:	arpl   WORD PTR [ebp+0x53],sp
  4031b7:	gs je  0x4031bc
  4031ba:	add    BYTE PTR [eax],al
  4031bc:	add    BYTE PTR [edi],ah
  4031be:	add    BYTE PTR [eax],al
  4031c0:	add    BYTE PTR [eax],al
  4031c2:	add    BYTE PTR [eax],al
  4031c4:	add    BYTE PTR [eax+0x41],dl
  4031c7:	inc    esp
  4031c8:	push   eax
  4031c9:	inc    ecx
  4031ca:	inc    esp
  4031cb:	push   eax
  4031cc:	cmp    bl,BYTE PTR [edx+0x71bd82a2]
  4031d2:	jno    0x40315c
  4031d4:	jp     0x4031ca
  4031d6:	repz mov esp,DWORD PTR [eax+0x10900116]
  4031dd:	iret   
  4031de:	rcl    BYTE PTR [esi-0x5ed93ca0],0x6c
  4031e5:	(bad)  
  4031e6:	and    eax,0x7ce8c2aa
  4031eb:	scas   eax,DWORD PTR es:[edi]
  4031ec:	outs   dx,DWORD PTR ds:[esi]
  4031ed:	out    dx,eax
  4031ee:	imul   DWORD PTR [edi-0x499955b0]
  4031f4:	movs   DWORD PTR es:[edi],DWORD PTR ds:[esi]
  4031f5:	mov    dh,0x77
  4031f7:	ror    BYTE PTR [edx-0x662eff65],1
  4031fd:	fwait
  4031fe:	or     dl,bl
  403200:	(bad)  [esi]
  403202:	lahf   
  403203:	(bad)  
  403205:	xchg   DWORD PTR [ebx+0x125f6cf1],eax
  40320b:	push   es
  40320c:	sar    BYTE PTR [ebx-0x11],1
  40320f:	push   es
  403210:	add    BYTE PTR [ecx],cl
  403212:	repnz or ch,BYTE PTR ds:0xb6120641
  403219:	inc    ebx
  40321a:	pop    ebp
  40321b:	pop    ss
  40321c:	inc    esi
  40321d:	dec    ebx
  40321e:	bound  ebp,QWORD PTR [esi]
  403220:	cld    
  403221:	arpl   WORD PTR [edx-0x5179e7d1],dx
  403227:	aaa    
  403228:	mov    esp,0xbe44d3cd
  40322d:	int    0xd3
  40322f:	inc    esp
  403230:	mov    edi,0xfe44d3cd
  403235:	int    0xd3
  403237:	inc    esp
  403238:	das    
  403239:	mov    ?,WORD PTR [esi+eax*2+0x4d]
  40323d:	iret   
  40323e:	mov    al,ds:0xecdeed48
  403243:	push   ebx
  403244:	push   es
  403245:	out    dx,al
  403246:	ficom  DWORD PTR [ebp+0x48]
  403249:	mov    ebp,0x22415a7e
  40324e:	in     eax,0x5b
  403250:	or     eax,0xa96578de
  403255:	push   ss
  403256:	out    0x65,eax
  403258:	push   ds
  403259:	out    0x59,eax
  40325b:	addr16 mov ebx,0x46725007
  403261:	xor    edx,DWORD PTR [esp+esi*2+0x76fc58fd]
  403268:	cmps   BYTE PTR ds:[esi],BYTE PTR es:[edi]
  403269:	add    al,BYTE PTR [eax]
  40326b:	add    bh,ah
  40326d:	add    BYTE PTR [eax],al
  40326f:	add    BYTE PTR [eax],ah
  403271:	add    al,BYTE PTR [eax]
  403273:	add    dl,dh
  403275:	add    eax,DWORD PTR [eax]
  403277:	add    ch,cl
  403279:	add    eax,DWORD PTR [eax]
  40327b:	add    BYTE PTR [edi+0x0],bh
  40327e:	add    BYTE PTR [eax],al
  403280:	cmp    al,0x0
  403282:	add    BYTE PTR [eax],al
  403284:	sub    DWORD PTR [eax],eax
  403286:	add    BYTE PTR [eax],al
  403288:	jbe    0x40328d
  40328a:	add    BYTE PTR [eax],al
  40328c:	dec    edi
  40328d:	add    eax,DWORD PTR [eax]
  40328f:	add    BYTE PTR [ebx-0x2bfffffd],bl
  403295:	add    al,BYTE PTR [eax]
  403297:	add    BYTE PTR [ebp+0x0],dl
  40329a:	add    BYTE PTR [eax],al
  40329c:	jg     0x4032a0
  40329e:	add    BYTE PTR [eax],al
  4032a0:	add    BYTE PTR [eax],al
  4032a2:	add    BYTE PTR [eax],al
  4032a4:	fiadd  DWORD PTR [ecx]
  4032a6:	add    BYTE PTR [eax],al
  4032a8:	pusha  
  4032a9:	add    al,BYTE PTR [eax]
  4032ab:	add    BYTE PTR [ebx],dl
  4032ad:	add    al,0x0
  4032af:	add    BYTE PTR [edi-0x11000000],ah
  4032b5:	add    al,BYTE PTR [eax]
  4032b7:	add    BYTE PTR [edx-0x37ffffff],dl
  4032bd:	add    BYTE PTR [eax],al
  4032bf:	add    BYTE PTR [edi+0xa000001],bh
  4032c5:	add    DWORD PTR [eax],eax
  4032c7:	add    BYTE PTR [ecx+eax*1],dh
  4032ca:	add    BYTE PTR [eax],al
  4032cc:	pop    ds
  4032cd:	add    DWORD PTR [eax],eax
  4032cf:	add    BYTE PTR [ecx+0x1],cl
  4032d2:	add    BYTE PTR [eax],al
  4032d4:	xchg   esi,eax
  4032d5:	add    BYTE PTR [eax],al
  4032d7:	add    BYTE PTR [edx],cl
  4032d9:	add    eax,DWORD PTR [eax]
  4032db:	add    BYTE PTR [esi+0x1],bl
  4032de:	add    BYTE PTR [eax],al
  4032e0:	ret    
  4032e1:	add    al,BYTE PTR [eax]
  4032e3:	add    BYTE PTR [esi+0x0],ch
  4032e6:	add    BYTE PTR [eax],al
  4032e8:	and    eax,DWORD PTR [ebx]
  4032ea:	add    BYTE PTR [eax],al
  4032ec:	stc    
  4032ed:	add    DWORD PTR [eax],eax
  4032ef:	add    BYTE PTR [edi+0x1],ch
  4032f2:	add    BYTE PTR [eax],al
  4032f4:	mov    esp,0x3e000003
  4032f9:	add    eax,DWORD PTR [eax]
  4032fb:	add    BYTE PTR [ebx+0x2],al
  4032fe:	add    BYTE PTR [eax],al
  403300:	and    al,BYTE PTR [eax+eax*1]
  403303:	add    BYTE PTR [edi],bl
  403305:	push   es
  403306:	add    BYTE PTR [eax],al
  403308:	and    al,0x53
  40330a:	add    BYTE PTR [eax+eax*1+0x72],dh
  40330e:	add    BYTE PTR [edi+0x0],ch
  403311:	outs   dx,BYTE PTR ds:[esi]
  403312:	add    BYTE PTR [edi+0x0],ah
  403315:	outs   dx,BYTE PTR ds:[esi]
  403316:	add    BYTE PTR [ecx+0x0],ah
  403319:	ins    DWORD PTR es:[edi],dx
  40331a:	add    BYTE PTR [ebp+0x0],ah
  40331d:	pop    edi
  40331e:	add    BYTE PTR [esi+0x0],ah
  403321:	popa   
  403322:	add    BYTE PTR [ecx+0x0],ch
  403325:	ins    BYTE PTR es:[edi],dx
  403326:	add    BYTE PTR [ebp+0x0],dh
  403329:	jb     0x40332b
  40332b:	add    BYTE PTR gs:[eax],al
  40332e:	add    BYTE PTR [eax],al
  403330:	add    BYTE PTR [esi],cl
  403332:	pop    edi
  403333:	add    BYTE PTR [ebx+0x0],dh
  403336:	add    BYTE PTR gs:[eax+0x0],dh
  40333a:	xor    BYTE PTR [eax],al
  40333c:	xor    DWORD PTR [eax],eax
  40333e:	pop    edi
  40333f:	add    BYTE PTR [esi+0x14000000],ah
  403345:	popa   
  403346:	add    BYTE PTR [eax+0x0],dh
  403349:	je     0x40334b
  40334b:	arpl   WORD PTR [eax],ax
  40334d:	popa   
  40334e:	add    BYTE PTR [edi+0x0],bl
  403351:	push   0x6c006500
  403356:	add    BYTE PTR [eax+0x0],dh
  403359:	stos   DWORD PTR es:[edi],eax
  40335a:	add    BYTE PTR [eax],al
  40335c:	add    BYTE PTR [edx+eiz*2],dl
  40335f:	add    BYTE PTR [ecx+0x0],ah
  403362:	add    BYTE PTR fs:[edi+0x0],bl
  403366:	ins    DWORD PTR es:[edi],dx
  403367:	add    BYTE PTR [eax+eax*1+0x70],ah
  40336b:	add    BYTE PTR [ecx+0x0],ah
  40336e:	je     0x403370
  403370:	push   0xf900
  403375:	add    BYTE PTR [ebx+eiz*2],cl
  403378:	add    BYTE PTR [edi+0x0],bl
  40337b:	push   0x6c006500
  403380:	add    BYTE PTR [eax+0x0],dh
  403383:	sub    BYTE PTR [ecx],al
  403385:	add    BYTE PTR [eax],al
  403387:	adc    ah,BYTE PTR [ebx+0x0]
  40338a:	outs   dx,DWORD PTR ds:[esi]
  40338b:	add    BYTE PTR [eax+0x0],dh
  40338e:	jns    0x403390
  403390:	jb     0x403392
  403392:	imul   eax,DWORD PTR [eax],0x680067
  403398:	je     0x40339a
  40339a:	fld    DWORD PTR [ecx]
  40339c:	add    BYTE PTR [eax],al
  40339e:	or     al,0x64
  4033a0:	add    BYTE PTR [edi+0x0],bl
  4033a3:	push   0x6c006500
  4033a8:	add    BYTE PTR [eax+0x0],dh
  4033ab:	adc    al,0x2
  4033ad:	add    BYTE PTR [eax],al
  4033af:	sbb    al,0x64
  4033b1:	add    BYTE PTR [ebp+0x0],ah
  4033b4:	ins    BYTE PTR es:[edi],dx
  4033b5:	add    BYTE PTR [ecx+0x0],ah
  4033b8:	jns    0x4033ba
  4033ba:	jae    0x4033bc
  4033bc:	imul   eax,DWORD PTR [eax],0x6e0067
  4033c2:	pop    edi
  4033c3:	add    BYTE PTR [eax+0x0],ch
  4033c6:	add    BYTE PTR gs:[eax+eax*1+0x70],ch
  4033cb:	add    BYTE PTR [eax+0x2],bl
  4033ce:	add    BYTE PTR [eax],al
  4033d0:	sbb    ah,BYTE PTR [eax+eax*1+0x69]
  4033d4:	add    BYTE PTR [edx+0x0],dh
  4033d7:	pop    edi
  4033d8:	add    BYTE PTR [esi+0x0],ch
  4033db:	outs   dx,DWORD PTR ds:[esi]
  4033dc:	add    BYTE PTR [eax+eax*1+0x5f],dh
  4033e0:	add    BYTE PTR [ebp+0x0],ah
  4033e3:	js     0x4033e5
  4033e5:	imul   eax,DWORD PTR [eax],0x740073
  4033eb:	xchg   edi,eax
  4033ec:	add    al,BYTE PTR [eax]
  4033ee:	add    BYTE PTR [esi],bl
  4033f0:	add    BYTE PTR gs:[edx+0x0],dh
  4033f4:	jb     0x4033f6
  4033f6:	outs   dx,DWORD PTR ds:[esi]
  4033f7:	add    BYTE PTR [edx+0x0],dh
  4033fa:	jae    0x4033fc
  4033fc:	je     0x4033fe
  4033fe:	popa   
  4033ff:	add    BYTE PTR [ebx+0x0],ah
  403402:	imul   eax,DWORD PTR [eax],0x5f
  403405:	add    BYTE PTR [eax+0x0],ch
  403408:	add    BYTE PTR gs:[eax+eax*1+0x70],ch
  40340d:	add    BYTE PTR [ebx+0x10000002],bh
  403413:	add    BYTE PTR gs:[eax+0x0],bh
  403417:	popa   
  403418:	add    BYTE PTR [ebp+0x0],ch
  40341b:	jo     0x40341d
  40341d:	ins    BYTE PTR es:[edi],dx
  40341e:	add    BYTE PTR [ebp+0x0],ah
  403421:	xor    DWORD PTR [eax],eax
  403423:	push   es
  403424:	add    eax,DWORD PTR [eax]
  403426:	add    BYTE PTR [eax],dl
  403428:	add    BYTE PTR gs:[eax+0x0],bh
  40342c:	popa   
  40342d:	add    BYTE PTR [ebp+0x0],ch
  403430:	jo     0x403432
  403432:	ins    BYTE PTR es:[edi],dx
  403433:	add    BYTE PTR [ebp+0x0],ah
  403436:	xor    al,BYTE PTR [eax]
  403438:	test   DWORD PTR [ebx],eax
  40343a:	add    BYTE PTR [eax],al
  40343c:	adc    BYTE PTR [ebp+0x0],ah
  40343f:	js     0x403441
  403441:	popa   
  403442:	add    BYTE PTR [ebp+0x0],ch
  403445:	jo     0x403447
  403447:	ins    BYTE PTR es:[edi],dx
  403448:	add    BYTE PTR [ebp+0x0],ah
  40344b:	xor    eax,DWORD PTR [eax]
  40344d:	and    DWORD PTR [eax+eax*1],eax
  403450:	add    BYTE PTR [eax],dl
  403452:	add    BYTE PTR gs:[eax+0x0],bh
  403456:	popa   
  403457:	add    BYTE PTR [ebp+0x0],ch
  40345a:	jo     0x40345c
  40345c:	ins    BYTE PTR es:[edi],dx
  40345d:	add    BYTE PTR [ebp+0x0],ah
  403460:	jae    0x403462
  403462:	stos   DWORD PTR es:[edi],eax
  403463:	add    al,0x0
  403465:	add    BYTE PTR [esi+eiz*2],cl
  403468:	add    BYTE PTR [edi+0x0],bl
  40346b:	push   0x6c006500
  403470:	add    BYTE PTR [eax+0x0],dh
  403473:	mov    dh,0x4
  403475:	add    BYTE PTR [eax],al
  403477:	push   ds
  403478:	data16 add BYTE PTR [ecx+0x0],ch
  40347c:	js     0x40347e
  40347e:	add    BYTE PTR gs:[eax+eax*1+0x6e],ah
  403483:	add    BYTE PTR [ecx+0x0],ah
  403486:	ins    DWORD PTR es:[edi],dx
  403487:	add    BYTE PTR [ebp+0x0],ah
  40348a:	jae    0x40348c
  40348c:	pop    edi
  40348d:	add    BYTE PTR [eax+0x0],ch
  403490:	add    BYTE PTR gs:[eax+eax*1+0x70],ch
  403495:	add    BYTE PTR [ecx],cl
  403497:	add    eax,0x66280000
  40349c:	add    BYTE PTR [eax+eax*1+0x61],ch
  4034a0:	add    BYTE PTR [edi+0x0],ah
  4034a3:	pop    edi
  4034a4:	add    BYTE PTR [edx+0x0],dh
  4034a7:	add    BYTE PTR gs:[ecx+0x0],dh
  4034ab:	jne    0x4034ad
  4034ad:	imul   eax,DWORD PTR [eax],0x650072
  4034b3:	jae    0x4034b5
  4034b5:	pop    edi
  4034b6:	add    BYTE PTR [eax+eax*1+0x61],dh
  4034ba:	add    BYTE PTR [edx+0x0],dh
  4034bd:	add    BYTE PTR [di+0x0],ah
  4034c1:	je     0x4034c3
  4034c3:	dec    ebx
  4034c4:	add    eax,0x68160000
  4034c9:	add    BYTE PTR [ebp+0x0],ah
  4034cc:	popa   
  4034cd:	add    BYTE PTR [eax+eax*1+0x65],ah
  4034d1:	add    BYTE PTR [edx+0x0],dh
  4034d4:	pop    edi
  4034d5:	add    BYTE PTR [eax+eax*1+0x65],dh
  4034d9:	add    BYTE PTR [eax+0x0],bh
  4034dc:	je     0x4034de
  4034de:	mov    al,BYTE PTR ds:0x691a0000
  4034e4:	add    BYTE PTR [esi+0x0],ch
  4034e7:	jbe    0x4034e9
  4034e9:	popa   
  4034ea:	add    BYTE PTR [eax+eax*1+0x69],ch
  4034ee:	add    BYTE PTR [eax+eax*1+0x5f],ah
  4034f2:	add    BYTE PTR [ecx+0x0],ah
  4034f5:	jo     0x4034f7
  4034f7:	je     0x4034f9
  4034f9:	arpl   WORD PTR [eax],ax
  4034fb:	popa   
  4034fc:	add    BYTE PTR [eax+0x22000005],bh
  403502:	imul   eax,DWORD PTR [eax],0x76006e
  403508:	popa   
  403509:	add    BYTE PTR [eax+eax*1+0x69],ch
  40350d:	add    BYTE PTR [eax+eax*1+0x5f],ah
  403511:	add    BYTE PTR [eax+eax*1+0x65],ah
  403515:	add    BYTE PTR [eax+eax*1+0x61],ch
  403519:	add    BYTE PTR [ecx+0x0],bh
  40351c:	jae    0x40351e
  40351e:	imul   eax,DWORD PTR [eax],0x6e0067
  403524:	add    eax,0x1e000006
  403529:	imul   eax,DWORD PTR [eax],0x76006e
  40352f:	popa   
  403530:	add    BYTE PTR [eax+eax*1+0x69],ch
  403534:	add    BYTE PTR [eax+eax*1+0x5f],ah
  403538:	add    BYTE PTR [ebx+0x0],ch
  40353b:	add    BYTE PTR gs:[ecx+0x0],bh
  40353f:	data16 add BYTE PTR [ecx+0x0],ch
  403543:	ins    BYTE PTR es:[edi],dx
  403544:	add    BYTE PTR [ebp+0x0],ah
  403547:	push   esi
  403548:	push   es
  403549:	add    BYTE PTR [eax],al
  40354b:	sbb    BYTE PTR [ecx+0x0],ch
  40354e:	outs   dx,BYTE PTR ds:[esi]
  40354f:	add    BYTE PTR [esi+0x0],dh
  403552:	popa   
  403553:	add    BYTE PTR [eax+eax*1+0x69],ch
  403557:	add    BYTE PTR [eax+eax*1+0x5f],ah
  40355b:	add    BYTE PTR [eax+0x0],dh
  40355e:	popa   
  40355f:	add    BYTE PTR [eax+eax*1+0x68],dh
  403563:	add    BYTE PTR [edx+0x6],bh
  403566:	add    BYTE PTR [eax],al
  403568:	sbb    ch,BYTE PTR [ecx+0x0]
  40356b:	outs   dx,BYTE PTR ds:[esi]
  40356c:	add    BYTE PTR [esi+0x0],dh
  40356f:	popa   
  403570:	add    BYTE PTR [eax+eax*1+0x69],ch
  403574:	add    BYTE PTR [eax+eax*1+0x5f],ah
  403578:	add    BYTE PTR [esi+0x0],dh
  40357b:	jo     0x40357d
  40357d:	popa   
  40357e:	add    BYTE PTR [eax+eax*1+0x68],dh
  403582:	add    BYTE PTR [esi+0x22000006],dl
  403588:	imul   eax,DWORD PTR [eax],0x65
  40358b:	add    BYTE PTR [ecx+0x0],bh
  40358e:	arpl   WORD PTR [eax],ax
  403590:	outs   dx,DWORD PTR ds:[esi]
  403591:	add    BYTE PTR [esi+0x0],ch
  403594:	je     0x403596
  403596:	popa   
  403597:	add    BYTE PTR [ecx+0x0],ch
  40359a:	outs   dx,BYTE PTR ds:[esi]
  40359b:	add    BYTE PTR [ebp+0x0],ah
  40359e:	jb     0x4035a0
  4035a0:	pop    edi
  4035a1:	add    BYTE PTR [eax+0x0],ch
  4035a4:	add    BYTE PTR gs:[eax+eax*1+0x70],ch
  4035a9:	add    BYTE PTR [edx+0x18000006],bh
  4035af:	imul   eax,DWORD PTR [eax],0x65
  4035b2:	add    BYTE PTR [ecx+0x0],bh
  4035b5:	data16 add BYTE PTR [ecx+0x0],ch
  4035b9:	ins    BYTE PTR es:[edi],dx
  4035ba:	add    BYTE PTR [ebp+0x0],ah
  4035bd:	pop    edi
  4035be:	add    BYTE PTR [eax+0x0],ch
  4035c1:	add    BYTE PTR gs:[eax+eax*1+0x70],ch
  4035c6:	add    dl,ah
  4035c8:	push   es
  4035c9:	add    BYTE PTR [eax],al
  4035cb:	or     al,0x6d
  4035cd:	add    BYTE PTR [edi+0x0],bl
  4035d0:	push   0x6c006500
  4035d5:	add    BYTE PTR [eax+0x0],dh
  4035d8:	adc    al,BYTE PTR [edi]
  4035da:	add    BYTE PTR [eax],al
  4035dc:	push   ss
  4035dd:	ins    DWORD PTR es:[edi],dx
  4035de:	add    BYTE PTR [ecx+0x0],ch
  4035e1:	jae    0x4035e3
  4035e3:	jae    0x4035e5
  4035e5:	imul   eax,DWORD PTR [eax],0x67006e
  4035eb:	pop    edi
  4035ec:	add    BYTE PTR [ecx+0x0],ah
  4035ef:	jb     0x4035f1
  4035f1:	add    BYTE PTR [di+0x7],bh
  4035f5:	add    BYTE PTR [eax],al
  4035f7:	push   ss
  4035f8:	outs   dx,BYTE PTR ds:[esi]
  4035f9:	add    BYTE PTR [ebp+0x0],ah
  4035fc:	add    BYTE PTR gs:[eax+eax*1+0x5f],ah
  403601:	add    BYTE PTR [ebp+0x0],ch
  403604:	pop    edi
  403605:	add    BYTE PTR [edi+0x0],ch
  403608:	jb     0x40360a
  40360a:	pop    edi
  40360b:	add    BYTE PTR [esi+0x0],dh
  40360e:	mov    ah,0x7
  403610:	add    BYTE PTR [eax],al
  403612:	adc    al,0x6e
  403614:	add    BYTE PTR [edi+0x0],ch
  403617:	pop    edi
  403618:	add    BYTE PTR [ebp+0x0],ch
  40361b:	pop    edi
  40361c:	add    BYTE PTR [ecx+0x0],ah
  40361f:	outs   dx,BYTE PTR ds:[esi]
  403620:	add    BYTE PTR [eax+eax*1+0x5f],ah
  403624:	add    BYTE PTR [eax+0x0],dh
  403627:	out    0x7,eax
  403629:	add    BYTE PTR [eax],al
  40362b:	push   ss
  40362c:	outs   dx,BYTE PTR ds:[esi]
  40362d:	add    BYTE PTR [edi+0x0],ch
  403630:	ins    BYTE PTR es:[edi],dx
  403631:	add    BYTE PTR [edi+0x0],ch
  403634:	add    BYTE PTR [bx+0x0],ch
  403638:	pop    edi
  403639:	add    BYTE PTR [eax+0x0],ch
  40363c:	add    BYTE PTR gs:[eax+eax*1+0x70],ch
  403641:	add    BYTE PTR [eax+ecx*1],dl
  403644:	add    BYTE PTR [eax],al
  403646:	or     al,0x70
  403648:	add    BYTE PTR [edi+0x0],bl
  40364b:	push   0x6c006500
  403650:	add    BYTE PTR [eax+0x0],dh
  403653:	cmp    cl,BYTE PTR [eax]
  403655:	add    BYTE PTR [eax],al
  403657:	and    dh,BYTE PTR [ecx+0x0]
  40365a:	jne    0x40365c
  40365c:	add    BYTE PTR gs:[ebx+0x0],dh
  403660:	je     0x403662
  403662:	imul   eax,DWORD PTR [eax],0x6e006f
  403668:	ins    DWORD PTR es:[edi],dx
  403669:	add    BYTE PTR [ecx+0x0],ah
  40366c:	jb     0x40366e
  40366e:	imul   eax,DWORD PTR [eax],0x5f
  403671:	add    BYTE PTR [eax+0x0],ch
  403674:	add    BYTE PTR gs:[eax+eax*1+0x70],ch
  403679:	add    ch,dl
  40367b:	or     BYTE PTR [eax],al
  40367d:	add    BYTE PTR [eax],ah
  40367f:	jae    0x403681
  403681:	push   0x72006f00
  403686:	add    BYTE PTR [eax+eax*1+0x5f],dh
  40368a:	add    BYTE PTR [ebp+0x0],dh
  40368d:	jae    0x40368f
  40368f:	popa   
  403690:	add    BYTE PTR [edi+0x0],ah
  403693:	add    BYTE PTR gs:[edi+0x0],bl
  403697:	je     0x403699
  403699:	add    BYTE PTR gs:[eax+0x0],bh
  40369d:	je     0x40369f
  40369f:	in     eax,dx
  4036a0:	or     BYTE PTR [eax],al
  4036a2:	add    BYTE PTR [esp+esi*2],bl
  4036a5:	add    BYTE PTR [ecx+0x0],ah
  4036a8:	jb     0x4036aa
  4036aa:	add    BYTE PTR [di+0x0],ah
  4036ae:	je     0x4036b0
  4036b0:	inc    esp
  4036b1:	add    BYTE PTR [ecx+0x0],ch
  4036b4:	jb     0x4036b6
  4036b6:	pop    edi
  4036b7:	add    BYTE PTR [eax+0x0],ch
  4036ba:	add    BYTE PTR gs:[eax+eax*1+0x70],ch
  4036bf:	add    BYTE PTR [ecx+ecx*1],ah
  4036c2:	add    BYTE PTR [eax],al
  4036c4:	or     al,0x75
  4036c6:	add    BYTE PTR [edi+0x0],bl
  4036c9:	push   0x6c006500
  4036ce:	add    BYTE PTR [eax+0x0],dh
  4036d1:	cwde   
  4036d2:	or     DWORD PTR [eax],eax
  4036d4:	add    BYTE PTR [eax],ah
  4036d6:	jne    0x4036d8
  4036d8:	outs   dx,BYTE PTR ds:[esi]
  4036d9:	add    BYTE PTR [ebp+0x0],ah
  4036dc:	js     0x4036de
  4036de:	jo     0x4036e0
  4036e0:	add    BYTE PTR gs:[ebx+0x0],ah
  4036e4:	je     0x4036e6
  4036e6:	add    BYTE PTR gs:[eax+eax*1+0x5f],ah
  4036eb:	add    BYTE PTR [eax+0x0],dh
  4036ee:	popa   
  4036ef:	add    BYTE PTR [edx+0x0],dh
  4036f2:	popa   
  4036f3:	add    BYTE PTR [ebp+0x0],ch
  4036f6:	ror    DWORD PTR [ecx],1
  4036f8:	add    BYTE PTR [eax],al
  4036fa:	sbb    al,0x75
  4036fc:	add    BYTE PTR [esi+0x0],ch
  4036ff:	imul   eax,DWORD PTR [eax],0x6e
  403702:	add    BYTE PTR [edi+0x0],ch
  403705:	ja     0x403707
  403707:	outs   dx,BYTE PTR ds:[esi]
  403708:	add    BYTE PTR [edi+0x0],bl
  40370b:	jae    0x40370d
  40370d:	ja     0x40370f
  40370f:	imul   eax,DWORD PTR [eax],0x630074
  403715:	push   0x9ef00
  40371a:	add    BYTE PTR [edx],cl
  40371c:	jne    0x40371e
  40371e:	jae    0x403720
  403720:	popa   
  403721:	add    BYTE PTR [edi+0x0],ah
  403724:	add    BYTE PTR gs:[edi],al
  403727:	or     al,BYTE PTR [eax]
  403729:	add    BYTE PTR [esi+esi*2],cl
  40372c:	add    BYTE PTR [edi+0x0],bl
  40372f:	push   0x6c006500
  403734:	add    BYTE PTR [eax+0x0],dh
  403737:	(bad)  
  403739:	add    BYTE PTR [eax],al
  40373b:	add    DWORD PTR [ebx+0x72745301],esp
  403741:	outs   dx,DWORD PTR ds:[esi]
  403742:	outs   dx,BYTE PTR ds:[esi]
  403743:	and    BYTE PTR [bp+0x61],ch
  403747:	ins    DWORD PTR es:[edi],dx
  403748:	and    BYTE PTR gs:[esi+0x65],dh
  40374c:	jb     0x4037b7
  40374e:	imul   sp,WORD PTR [ebx+0x61],0x6974
  403754:	outs   dx,DWORD PTR ds:[esi]
  403755:	outs   dx,BYTE PTR ds:[esi]
  403756:	and    BYTE PTR [esi+0x61],ah
  403759:	imul   ebp,DWORD PTR [ebp+esi*2+0x72],0x63202c65
  403761:	popa   
  403762:	outs   dx,BYTE PTR ds:[esi]
  403763:	and    BYTE PTR [esi+0x6f],ch
  403766:	je     0x403788
  403768:	ins    BYTE PTR es:[edi],dx
  403769:	outs   dx,DWORD PTR ds:[esi]
  40376a:	popa   
  40376b:	and    BYTE PTR fs:[esi+0x69],ah
  40376f:	ins    BYTE PTR es:[edi],dx
  403770:	and    BYTE PTR gs:[edi+0x72],ch
  403774:	and    BYTE PTR [ecx+0x73],ah
  403777:	jae    0x4037de
  403779:	ins    DWORD PTR es:[edi],dx
  40377a:	bound  ebp,QWORD PTR [ecx+edi*2+0x20]
  40377e:	daa    
  40377f:	jnp    0x4037b1
  403781:	jge    0x4037aa
  403783:	and    BYTE PTR cs:[ecx+0x66],cl
  403787:	and    BYTE PTR [eax+ebp*2+0x65],dh
  40378b:	and    BYTE PTR [ecx+0x73],ah
  40378e:	jae    0x4037f5
  403790:	ins    DWORD PTR es:[edi],dx
  403791:	bound  ebp,QWORD PTR [ecx+edi*2+0x20]
  403795:	imul   esi,DWORD PTR [ebx+0x20],0x616c6564
  40379c:	jns    0x4037cb
  40379e:	jae    0x403809
  4037a0:	outs   dx,BYTE PTR ds:[si]
  4037a2:	gs fs sub al,0x20
  4037a6:	ins    DWORD PTR es:[edi],dx
  4037a7:	popa   
  4037a8:	imul   esp,DWORD PTR [ebp+0x20],0x73
  4037ac:	jne    0x403820
  4037ae:	and    BYTE PTR gs:[esi+0x65],dh
  4037b2:	jb     0x40381d
  4037b4:	imul   sp,WORD PTR [ebx+0x61],0x6974
  4037ba:	outs   dx,DWORD PTR ds:[esi]
  4037bb:	outs   dx,BYTE PTR ds:[esi]
  4037bc:	and    BYTE PTR [ecx+0x73],ch
  4037bf:	and    BYTE PTR [ebx+0x6b],dh
  4037c2:	imul   esi,DWORD PTR [eax+0x70],0x66206465
  4037c9:	outs   dx,DWORD PTR ds:[esi]
  4037ca:	jb     0x4037ec
  4037cc:	je     0x403836
  4037ce:	and    BYTE PTR gs:[eax+0x75],dh
  4037d2:	bound  ebp,QWORD PTR [ecx+ebp*2+0x63]
  4037d6:	and    BYTE PTR [ebx+0x65],ch
  4037d9:	jns    0x4037fb
  4037db:	je     0x40384c
  4037dd:	imul   esp,DWORD PTR [ebp+0x6e],0x2e
  4037e1:	add    DWORD PTR [ebx],eax
  4037e3:	jae    0x40384a
  4037e5:	jo     0x4037e8
  4037e7:	dec    esp
  4037e8:	dec    ecx
  4037e9:	data16 and BYTE PTR [ebx+0x70],dh
  4037ed:	arpl   WORD PTR gs:[ecx+0x66],bp
  4037f1:	imul   esp,DWORD PTR [ebp+0x64],0x6874202c
  4037f8:	and    BYTE PTR gs:[ebx+0x74],dh
  4037fc:	jb     0x40386d
  4037fe:	outs   dx,BYTE PTR ds:[esi]
  4037ff:	addr16 sub eax,0x656d616e
  403805:	and    BYTE PTR [ecx+0x73],ah
  403808:	jae    0x40386f
  40380a:	ins    DWORD PTR es:[edi],dx
  40380b:	bound  ebp,QWORD PTR [ecx+edi*2+0x20]
  40380f:	ja     0x40387a
  403811:	ins    BYTE PTR es:[edi],dx
  403812:	ins    BYTE PTR es:[edi],dx
  403813:	and    BYTE PTR [ecx+0x6c],ah
  403816:	ins    BYTE PTR es:[edi],dx
  403817:	outs   dx,DWORD PTR ds:[esi]
  403818:	ja     0x40383a
  40381a:	jo     0x40387d
  40381c:	jb     0x403892
  40381e:	imul   esp,DWORD PTR [ecx+0x6c],0x7420796c
  403825:	jb     0x40389c
  403827:	jae    0x40389d
  403829:	gs and BYTE PTR fs:[ebx+0x61],ah
  40382e:	ins    BYTE PTR es:[edi],dx
  40382f:	ins    BYTE PTR es:[edi],dx
  403830:	gs jb  0x4038a6
  403833:	add    DWORD PTR cs:0x7d307b27,ebp
  40383a:	daa    
  40383b:	and    BYTE PTR [ecx+0x73],ch
  40383e:	and    BYTE PTR [esi+0x6f],ch
  403841:	je     0x403863
  403843:	popa   
  403844:	and    BYTE PTR [edi+0x65],dh
  403847:	ins    BYTE PTR es:[edi],dx
  403848:	ins    BYTE PTR es:[edi],dx
  403849:	and    BYTE PTR [esi+0x6f],ah
  40384c:	jb     0x4038bb
  40384e:	gs and BYTE PTR fs:[ecx+0x49],cl
  403853:	push   ebx
  403854:	and    BYTE PTR [ebp+0x65],ch
  403857:	je     0x4038ba
  403859:	bound  esp,QWORD PTR [ecx+0x73]
  40385c:	and    BYTE PTR gs:[eax+0x61],dh
  403860:	je     0x4038ca
  403862:	add    DWORD PTR cs:[esi+0x20664901],ebp
  403869:	jae    0x4038db
  40386b:	arpl   WORD PTR gs:[ecx+0x66],bp
  40386f:	imul   esp,DWORD PTR [ebp+0x64],0x6874202c
  403876:	and    BYTE PTR gs:[eax+0x72],dh
  40387a:	arpl   WORD PTR gs:[edi+0x6d],bp
  40387e:	jo     0x4038e9
  403880:	ins    BYTE PTR es:[edi],dx
  403881:	gs and BYTE PTR fs:[ecx+0x70],ah
  403886:	jo     0x4038f4
  403888:	imul   esp,DWORD PTR [ebx+0x61],0x6e6f6974
  40388f:	and    BYTE PTR [ecx+0x73],ch
  403892:	and    BYTE PTR [esi+0x75],ah
  403895:	ins    BYTE PTR es:[edi],dx
  403896:	ins    BYTE PTR es:[edi],dx
  403897:	jns    0x4038b9
  403899:	jb     0x403900
  40389b:	bound  esi,QWORD PTR [ebp+0x69]
  40389e:	ins    BYTE PTR es:[edi],dx
  40389f:	je     0x4038cf
  4038a1:	and    BYTE PTR [ecx+0x6e],al
  4038a4:	jns    0x4038c6
  4038a6:	jo     0x40391a
  4038a8:	gs jbe 0x403914
  4038ab:	outs   dx,DWORD PTR ds:[esi]
  4038ac:	jne    0x403921
  4038ae:	ins    BYTE PTR es:[edi],dx
  4038af:	jns    0x4038d1
  4038b1:	arpl   WORD PTR [edi+0x6d],bp
  4038b4:	jo     0x40391f
  4038b6:	ins    BYTE PTR es:[edi],dx
  4038b7:	gs and BYTE PTR fs:[ebx+0x6f],ah
  4038bc:	ins    DWORD PTR es:[edi],dx
  4038bd:	jo     0x40392e
  4038bf:	outs   dx,BYTE PTR ds:[esi]
  4038c0:	outs   dx,BYTE PTR gs:[esi]
  4038c2:	je     0x403937
  4038c4:	and    BYTE PTR [edi+0x69],dh
  4038c7:	ins    BYTE PTR es:[edi],dx
  4038c8:	ins    BYTE PTR es:[edi],dx
  4038c9:	and    BYTE PTR [edx+0x65],ah
  4038cc:	and    BYTE PTR [edx+0x65],dh
  4038cf:	sub    eax,0x706d6f63
  4038d4:	imul   ebp,DWORD PTR [ebp+eiz*2+0x64],0x6854202e
  4038dc:	imul   esi,DWORD PTR [ebx+0x20],0x6974706f
  4038e3:	outs   dx,DWORD PTR ds:[esi]
  4038e4:	outs   dx,BYTE PTR ds:[esi]
  4038e5:	and    BYTE PTR [ecx+0x73],ch
  4038e8:	and    BYTE PTR [ecx+0x6c],ah
  4038eb:	ja     0x40394e
  4038ed:	jns    0x403962
  4038ef:	and    BYTE PTR [ebp+0x6e],ah
  4038f2:	popa   
  4038f3:	bound  ebp,QWORD PTR [ebp+eiz*2+0x64]
  4038f7:	and    BYTE PTR [edi+0x68],dh
  4038fa:	outs   dx,BYTE PTR gs:[esi]
  4038fc:	and    BYTE PTR [ecx+eiz*2+0x72],dh
  403900:	addr16 gs je 0x403948
  403904:	imul   esi,DWORD PTR [edx+0x20],0x73207369
  40390b:	jo     0x403972
  40390d:	arpl   WORD PTR [ecx+0x66],bp
  403910:	imul   esp,DWORD PTR [ebp+0x64],0x4339012e
  403917:	outs   dx,DWORD PTR ds:[esi]
  403918:	jo     0x403993
  40391a:	jb     0x403985
  40391c:	addr16 push 0x43282074
  403922:	sub    DWORD PTR [eax],esp
  403924:	dec    ebp
  403925:	imul   esp,DWORD PTR [ebx+0x72],0x666f736f
  40392c:	je     0x40394e
  40392e:	inc    ebx
  40392f:	outs   dx,DWORD PTR ds:[esi]
  403930:	jb     0x4039a2
  403932:	outs   dx,DWORD PTR ds:[esi]
  403933:	jb     0x403996
  403935:	je     0x4039a0
  403937:	outs   dx,DWORD PTR ds:[esi]
  403938:	outs   dx,BYTE PTR ds:[esi]
  403939:	and    BYTE PTR cs:[ecx+0x6c],al
  40393d:	ins    BYTE PTR es:[edi],dx
  40393e:	and    BYTE PTR [edx+0x69],dh
  403941:	addr16 push 0x72207374
  403947:	gs jae 0x4039af
  40394a:	jb     0x4039c2
  40394c:	gs fs add DWORD PTR cs:[edx+0x49],eax
  403952:	data16 and BYTE PTR [ebx+0x70],dh
  403956:	arpl   WORD PTR gs:[ecx+0x66],bp
  40395a:	imul   esp,DWORD PTR [ebp+0x64],0x6874202c
  403961:	and    BYTE PTR gs:[ebp+eiz*2+0x62],ah
  403966:	jne    0x4039cf
  403968:	and    BYTE PTR [ecx+0x6e],ch
  40396b:	outs   dx,WORD PTR ds:[esi]
  40396d:	jb     0x4039dc
  40396f:	popa   
  403970:	je     0x4039db
  403972:	outs   dx,DWORD PTR ds:[esi]
  403973:	outs   dx,BYTE PTR ds:[esi]
  403974:	and    BYTE PTR [ecx+0x73],ch
  403977:	and    BYTE PTR [ebp+0x6d],ah
  40397a:	imul   esi,DWORD PTR [esp+esi*2+0x65],0x75642064
  403982:	jb     0x4039ed
  403984:	outs   dx,BYTE PTR ds:[esi]
  403985:	and    BYTE PTR [bp+di+0x6f],ah
  403989:	ins    DWORD PTR es:[edi],dx
  40398a:	jo     0x4039f5
  40398c:	ins    BYTE PTR es:[edi],dx
  40398d:	popa   
  40398e:	je     0x4039f9
  403990:	outs   dx,DWORD PTR ds:[esi]
  403991:	outs   dx,BYTE PTR ds:[esi]
  403992:	add    DWORD PTR cs:0x73206649,edi
  403999:	jo     0x403a00
  40399b:	arpl   WORD PTR [ecx+0x66],bp
  40399e:	imul   esp,DWORD PTR [ebp+0x64],0x6874202c
  4039a5:	and    BYTE PTR gs:[ecx+0x73],ah
  4039a9:	jae    0x403a10
  4039ab:	ins    DWORD PTR es:[edi],dx
  4039ac:	bound  ebp,QWORD PTR [ecx+edi*2+0x20]
  4039b0:	imul   esi,DWORD PTR [ebx+0x20],0x20746f6e
  4039b7:	data16 jne 0x403a26
  4039ba:	ins    BYTE PTR es:[edi],dx
  4039bb:	jns    0x4039dd
  4039bd:	jae    0x403a28
  4039bf:	outs   dx,BYTE PTR ds:[si]
  4039c1:	gs and BYTE PTR fs:[edi+0x68],dh
  4039c6:	outs   dx,BYTE PTR gs:[esi]
  4039c8:	and    BYTE PTR [ebx+0x72],ah
  4039cb:	gs popa 
  4039cd:	je     0x403a34
  4039cf:	fs and BYTE PTR cs:[ecx],al
  4039d3:	and    dl,BYTE PTR [eax+ebp*2+0x65]
  4039d7:	and    BYTE PTR [ecx+ebp*2+0x72],ah
  4039db:	arpl   WORD PTR gs:[edi+ebp*2+0x72],si
  4039e0:	jns    0x403a02
  4039e2:	daa    
  4039e3:	jnp    0x403a15
  4039e5:	jge    0x403a0e
  4039e7:	and    BYTE PTR [edi+ebp*2+0x65],ah
  4039eb:	jae    0x403a5b
  4039ed:	daa    
  4039ee:	je     0x403a10
  4039f0:	gs js  0x403a5c
  4039f3:	jae    0x403a69
  4039f5:	add    DWORD PTR cs:[ecx+0x53],ecx
  4039f9:	push   0x2073776f
  4039fe:	gs js  0x403a75
  403a01:	jb     0x403a64
  403a03:	and    BYTE PTR [ebp+eiz*2+0x62],ah
  403a07:	jne    0x403a70
  403a09:	imul   ebp,DWORD PTR [bp+0x67],0x666e6920
  403a11:	outs   dx,DWORD PTR ds:[esi]
  403a12:	jb     0x403a81
  403a14:	popa   
  403a15:	je     0x403a80
  403a17:	outs   dx,DWORD PTR ds:[esi]
  403a18:	outs   dx,BYTE PTR ds:[esi]
  403a19:	and    BYTE PTR [eax+ebp*2+0x61],dh
  403a1d:	je     0x403a3f
  403a1f:	arpl   WORD PTR [ecx+0x6e],sp
  403a22:	and    BYTE PTR [eax+0x65],ch
  403a25:	ins    BYTE PTR es:[edi],dx
  403a26:	jo     0x403a48
  403a28:	fs bound esi,QWORD PTR gs:[ebp+0x67]
  403a2d:	and    BYTE PTR [ebx+0x65],ah
  403a30:	jb     0x403aa6
  403a32:	popa   
  403a33:	imul   ebp,DWORD PTR [esi+0x20],0x646e6f63
  403a3a:	imul   esi,DWORD PTR [ecx+ebp*2+0x6f],0x12e736e
  403a42:	jge    0x403a98
  403a44:	push   0x6f662065
  403a49:	ins    BYTE PTR es:[edi],dx
  403a4a:	ins    BYTE PTR es:[edi],dx
  403a4b:	outs   dx,DWORD PTR ds:[esi]
  403a4c:	ja     0x403ab7
  403a4e:	outs   dx,BYTE PTR ds:[esi]
  403a4f:	and    BYTE PTR [si+0x77],dh
  403a53:	outs   dx,DWORD PTR ds:[esi]
  403a54:	and    BYTE PTR [ebx+0x6f],ah
  403a57:	ins    DWORD PTR es:[edi],dx
  403a58:	ins    DWORD PTR es:[edi],dx
  403a59:	popa   
  403a5a:	outs   dx,BYTE PTR ds:[esi]
  403a5b:	fs jae 0x403a7e
  403a5e:	popa   
  403a5f:	jb     0x403ac6
  403a61:	and    BYTE PTR [ebp+0x71],ah
  403a64:	jne    0x403acf
  403a66:	jbe    0x403ac9
  403a68:	ins    BYTE PTR es:[edi],dx
  403a69:	outs   dx,BYTE PTR gs:[esi]
  403a6b:	je     0x403a99
  403a6d:	and    BYTE PTR [ecx+0x6e],ah
  403a70:	and    BYTE PTR fs:[edx+0x65],dh
  403a74:	ins    BYTE PTR es:[edi],dx
  403a75:	jns    0x403a97
  403a77:	outs   dx,DWORD PTR ds:[esi]
  403a78:	outs   dx,BYTE PTR ds:[esi]
  403a79:	and    BYTE PTR [eax+ebp*2+0x65],dh
  403a7d:	and    BYTE PTR [ecx+0x49],cl
  403a80:	push   ebx
  403a81:	and    BYTE PTR [ebp+0x65],ch
  403a84:	je     0x403ae7
  403a86:	bound  esp,QWORD PTR [ecx+0x73]
  403a89:	gs and BYTE PTR cs:[eax+ebp*2+0x65],dl
  403a8f:	and    BYTE PTR [ebx+0x6f],ah
  403a92:	ins    DWORD PTR es:[edi],dx
  403a93:	jo     0x403afe
  403a95:	ins    BYTE PTR es:[edi],dx
  403a96:	gs and BYTE PTR fs:[ecx+0x70],ah
  403a9b:	jo     0x403b09
  403a9d:	imul   esp,DWORD PTR [ebx+0x61],0x6e6f6974
  403aa4:	and    BYTE PTR [ecx+0x73],ch
  403aa7:	and    BYTE PTR [ebp+eiz*2+0x70],ah
  403aab:	ins    BYTE PTR es:[edi],dx
  403aac:	outs   dx,DWORD PTR ds:[esi]
  403aad:	jns    0x403b14
  403aaf:	and    BYTE PTR fs:[edi+ebp*2+0x20],dh
  403ab4:	arpl   WORD PTR [edx],di
  403ab6:	pop    esp
  403ab7:	dec    ebp
  403ab8:	jns    0x403b0e
  403aba:	popa   
  403abb:	jb     0x403b24
  403abd:	gs je  0x403afa
  403ac0:	add    DWORD PTR [ecx+0x65685401],ebx
  403ac6:	and    BYTE PTR [esi+0x6f],ah
  403ac9:	ins    BYTE PTR es:[edi],dx
  403aca:	ins    BYTE PTR es:[edi],dx
  403acb:	outs   dx,DWORD PTR ds:[esi]
  403acc:	ja     0x403b37
  403ace:	outs   dx,BYTE PTR ds:[esi]
  403acf:	and    BYTE PTR [bp+di+0x6f],ah
  403ad3:	ins    DWORD PTR es:[edi],dx
  403ad4:	ins    DWORD PTR es:[edi],dx
  403ad5:	popa   
  403ad6:	outs   dx,BYTE PTR ds:[esi]
  403ad7:	and    BYTE PTR fs:[ebx+0x6f],ah
  403adb:	ins    DWORD PTR es:[edi],dx
  403adc:	jo     0x403b47
  403ade:	ins    BYTE PTR es:[edi],dx
  403adf:	gs jae 0x403b02
  403ae2:	je     0x403b4c
  403ae4:	and    BYTE PTR gs:[ecx+0x70],ah
  403ae8:	jo     0x403b56
  403aea:	imul   esp,DWORD PTR [ebx+0x61],0x6e6f6974
  403af1:	and    BYTE PTR [edi],ch
  403af3:	dec    ebp
  403af4:	jns    0x403b37
  403af6:	jo     0x403b68
  403af8:	and    BYTE PTR [ecx+0x6e],ch
  403afb:	sub    eax,0x63616c70
  403b00:	gs and BYTE PTR cs:[eax+ebp*2+0x65],dl
  403b06:	and    BYTE PTR [ebp+0x66],ah
  403b09:	data16 arpl WORD PTR gs:[eax+eiz*1+0x69],si
  403b0f:	jae    0x403b31
  403b11:	je     0x403b7b
  403b13:	popa   
  403b14:	je     0x403b36
  403b16:	outs   dx,BYTE PTR ds:[esi]
  403b17:	outs   dx,DWORD PTR ds:[esi]
  403b18:	and    BYTE PTR [ebp+0x6f],ch
  403b1b:	jb     0x403b82
  403b1d:	and    BYTE PTR [ebx+0x6f],ah
  403b20:	ins    DWORD PTR es:[edi],dx
  403b21:	jo     0x403b8c
  403b23:	ins    BYTE PTR es:[edi],dx
  403b24:	popa   
  403b25:	je     0x403b90
  403b27:	outs   dx,DWORD PTR ds:[esi]
  403b28:	outs   dx,BYTE PTR ds:[esi]
  403b29:	jae    0x403b4b
  403b2b:	ja     0x403b96
  403b2d:	ins    BYTE PTR es:[edi],dx
  403b2e:	ins    BYTE PTR es:[edi],dx
  403b2f:	and    BYTE PTR [edx+0x65],ah
  403b32:	and    BYTE PTR [esi+0x65],ch
  403b35:	gs fs gs and BYTE PTR fs:[edi+0x68],dh
  403b3c:	outs   dx,BYTE PTR gs:[esi]
  403b3e:	and    BYTE PTR [eax+0x54],cl
  403b41:	push   esp
  403b42:	push   eax
  403b43:	and    BYTE PTR [edx+0x65],dh
  403b46:	jno    0x403bbd
  403b48:	gs jae 0x403bbf
  403b4b:	jae    0x403b6d
  403b4d:	popa   
  403b4e:	jb     0x403bb5
  403b50:	and    BYTE PTR [ebx+0x65],dh
  403b53:	outs   dx,BYTE PTR ds:[esi]
  403b54:	je     0x403b76
  403b56:	je     0x403bc7
  403b58:	and    BYTE PTR [ecx+0x74],ch
  403b5b:	cmp    al,BYTE PTR [ecx]
  403b5d:	xchg   DWORD PTR [ecx],eax
  403b5f:	push   esp
  403b60:	push   0x6f662065
  403b65:	ins    BYTE PTR es:[edi],dx
  403b66:	ins    BYTE PTR es:[edi],dx
  403b67:	outs   dx,DWORD PTR ds:[esi]
  403b68:	ja     0x403bd3
  403b6a:	outs   dx,BYTE PTR ds:[esi]
  403b6b:	and    BYTE PTR [bp+di+0x6f],ah
  403b6f:	ins    DWORD PTR es:[edi],dx
  403b70:	ins    DWORD PTR es:[edi],dx
  403b71:	popa   
  403b72:	outs   dx,BYTE PTR ds:[esi]
  403b73:	and    BYTE PTR fs:[edi+ebp*2+0x65],ah
  403b78:	jae    0x403b9a
  403b7a:	sub    ch,BYTE PTR [esi+0x6f]
  403b7d:	je     0x403ba9
  403b7f:	and    BYTE PTR [edx+0x65],dh
  403b82:	ins    BYTE PTR es:[edi],dx
  403b83:	jns    0x403ba5
  403b85:	outs   dx,DWORD PTR ds:[esi]
  403b86:	outs   dx,BYTE PTR ds:[esi]
  403b87:	and    BYTE PTR [eax+ebp*2+0x65],dh
  403b8b:	and    BYTE PTR [ecx+0x49],cl
  403b8e:	push   ebx
  403b8f:	and    BYTE PTR [ebp+0x65],ch
  403b92:	je     0x403bf5
  403b94:	bound  esp,QWORD PTR [ecx+0x73]
  403b97:	gs sub al,0x20
  403b9a:	popa   
  403b9b:	jae    0x403bbd
  403b9d:	imul   esi,DWORD PTR [eax+eiz*1+0x65],0x696c7078
  403ba5:	arpl   WORD PTR [ecx+0x74],bp
  403ba8:	ins    BYTE PTR es:[edi],dx
  403ba9:	jns    0x403bcb
  403bab:	jae    0x403c1d
  403bad:	arpl   WORD PTR gs:[ecx+0x66],bp
  403bb1:	imul   esp,DWORD PTR [ebp+0x73],0x65687420
  403bb8:	and    BYTE PTR [eax+0x68],dh
  403bbb:	jns    0x403c30
  403bbd:	imul   esp,DWORD PTR [ebx+0x61],0x6f73206c
  403bc4:	jne    0x403c38
  403bc6:	arpl   WORD PTR [ebp+0x20],sp
  403bc9:	imul   esi,DWORD PTR fs:[edx+0x65],0x726f7463
  403bd1:	jns    0x403bf3
  403bd3:	outs   dx,DWORD PTR ds:[esi]
  403bd4:	data16 and BYTE PTR [eax+ebp*2+0x65],dh
  403bd9:	and    BYTE PTR [ecx+0x70],ah
  403bdc:	jo     0x403c4a
  403bde:	imul   esp,DWORD PTR [ebx+0x61],0x6e6f6974
  403be5:	cmp    al,BYTE PTR [ecx]
  403be7:	or     DWORD PTR [ebp+0x78],eax
  403bea:	popa   
  403beb:	ins    DWORD PTR es:[edi],dx
  403bec:	jo     0x403c5a
  403bee:	gs jae 0x403c2b
  403bf1:	add    DWORD PTR [ecx+0x4f],edx
  403bf4:	jbe    0x403c5b
  403bf6:	jb     0x403c6f
  403bf8:	jb     0x403c63
  403bfa:	je     0x403c61
  403bfc:	jae    0x403c1e
  403bfe:	je     0x403c68
  403c00:	and    BYTE PTR gs:[ecx+eiz*2+0x72],dh
  403c05:	addr16 gs je 0x403c29
  403c09:	imul   esi,DWORD PTR fs:[edx+0x65],0x726f7463
  403c11:	jns    0x403c33
  403c13:	imul   esp,DWORD PTR [esi+0x20],0x61207469
  403c1a:	ins    BYTE PTR es:[edi],dx
  403c1b:	jb     0x403c82
  403c1d:	popa   
  403c1e:	fs jns 0x403c41
  403c21:	gs js  0x403c8d
  403c24:	jae    0x403c9a
  403c26:	jae    0x403c56
  403c28:	and    BYTE PTR [ebp+0x78],al
  403c2b:	imul   esi,DWORD PTR [ebx+0x74],0x20676e69
  403c32:	arpl   WORD PTR [edi+0x6e],bp
  403c35:	je     0x403c9c
  403c37:	outs   dx,BYTE PTR ds:[esi]
  403c38:	je     0x403cad
  403c3a:	and    BYTE PTR [ecx+0x72],ah
  403c3d:	and    BYTE PTR gs:[edi+ebp*2+0x73],ch
  403c42:	je     0x403c72
  403c44:	add    DWORD PTR [eax+0x49],eax
  403c47:	data16 and BYTE PTR [ebx+0x70],dh
  403c4b:	arpl   WORD PTR gs:[ecx+0x66],bp
  403c4f:	imul   esp,DWORD PTR [ebp+0x64],0x6874202c
  403c56:	and    BYTE PTR gs:[ebx+0x6f],ah
  403c5a:	ins    DWORD PTR es:[edi],dx
  403c5b:	jo     0x403cc6
  403c5d:	ins    BYTE PTR es:[edi],dx
  403c5e:	gs and BYTE PTR fs:[ecx+0x73],ah
  403c63:	jae    0x403cca
  403c65:	ins    DWORD PTR es:[edi],dx
  403c66:	bound  ebp,QWORD PTR [ecx+ebp*2+0x65]
  403c6a:	jae    0x403c8c
  403c6c:	ja     0x403cd7
  403c6e:	ins    BYTE PTR es:[edi],dx
  403c6f:	ins    BYTE PTR es:[edi],dx
  403c70:	and    BYTE PTR [edx+0x65],ah
  403c73:	and    BYTE PTR [edi+0x69],ah
  403c76:	jbe    0x403cdd
  403c78:	outs   dx,BYTE PTR ds:[esi]
  403c79:	and    BYTE PTR [esi+0x69],ah
  403c7c:	js     0x403ce3
  403c7e:	and    BYTE PTR fs:[esi+0x61],ch
  403c82:	ins    DWORD PTR es:[edi],dx
  403c83:	gs jae 0x403cb4
  403c86:	add    DWORD PTR ds:0x20656854,edi
  403c8c:	sub    eax,0x207d307b
  403c91:	jae    0x403d0a
  403c93:	imul   esi,DWORD PTR [ebx+eiz*2+0x68],0x6e616320
  403c9b:	and    BYTE PTR [edi+0x6e],ch
  403c9e:	ins    BYTE PTR es:[edi],dx
  403c9f:	jns    0x403cc1
  403ca1:	bound  esp,QWORD PTR [ebp+0x20]
  403ca4:	jne    0x403d19
  403ca6:	gs and BYTE PTR fs:[ecx+0x66],ch
  403cab:	and    BYTE PTR [ecx+0x20],ah
  403cae:	je     0x403d11
  403cb0:	jb     0x403d19
  403cb2:	gs je  0x403cf9
  403cb5:	imul   esi,DWORD PTR [edx+0x20],0x73207369
  403cbc:	jo     0x403d23
  403cbe:	arpl   WORD PTR [ecx+0x66],bp
  403cc1:	imul   esp,DWORD PTR [ebp+0x64],0x552c012e
  403cc8:	je     0x403d33
  403cca:	ins    BYTE PTR es:[edi],dx
  403ccb:	imul   esi,DWORD PTR [ecx+edi*2+0x20],0x70206f74
  403cd3:	jb     0x403d3a
  403cd5:	arpl   WORD PTR [edi+0x6d],bp
  403cd8:	jo     0x403d43
  403cda:	ins    BYTE PTR es:[edi],dx
  403cdb:	and    BYTE PTR gs:[ecx+0x6e],ah
  403cdf:	and    BYTE PTR [ecx+0x53],al
  403ce2:	push   eax
  403ce3:	cs dec esi
  403ce5:	inc    ebp
  403ce6:	push   esp
  403ce7:	and    BYTE PTR [ecx+0x70],ah
  403cea:	jo     0x403d58
  403cec:	imul   esp,DWORD PTR [ebx+0x61],0x6e6f6974
  403cf3:	add    DWORD PTR [ebx+0x54],ecx
  403cf6:	push   0x612d2065
  403cfb:	jo     0x403d71
  403cfd:	arpl   WORD PTR [ecx+0x20],sp
  403d00:	jae    0x403d79
  403d02:	imul   esi,DWORD PTR [ebx+eiz*2+0x68],0x6e616320
  403d0a:	and    BYTE PTR [edi+0x6e],ch
  403d0d:	ins    BYTE PTR es:[edi],dx
  403d0e:	jns    0x403d30
  403d10:	bound  esp,QWORD PTR [ebp+0x20]
  403d13:	jne    0x403d88
  403d15:	gs and BYTE PTR fs:[ecx+0x66],ch
  403d1a:	and    BYTE PTR [ebx+0x65],ch
  403d1d:	jns    0x403d85
  403d1f:	imul   ebp,DWORD PTR [ebp+eiz*2+0x20],0x6b20726f
  403d27:	gs jns 0x403d8d
  403d2a:	outs   dx,DWORD PTR ds:[esi]
  403d2b:	outs   dx,BYTE PTR ds:[esi]
  403d2c:	je     0x403d8f
  403d2e:	imul   ebp,DWORD PTR [esi+0x65],0x73692072
  403d35:	and    BYTE PTR [ebx+0x70],dh
  403d38:	arpl   WORD PTR gs:[ecx+0x66],bp
  403d3c:	imul   esp,DWORD PTR [ebp+0x64],0x544f012e
  403d43:	push   0x642d2065
  403d48:	gs ins BYTE PTR es:[edi],dx
  403d4a:	popa   
  403d4b:	jns    0x403dc0
  403d4d:	imul   esp,DWORD PTR [edi+0x6e],0x69777320
  403d54:	je     0x403db9
  403d56:	push   0x6e616320
  403d5b:	and    BYTE PTR [edi+0x6e],ch
  403d5e:	ins    BYTE PTR es:[edi],dx
  403d5f:	jns    0x403d81
  403d61:	bound  esp,QWORD PTR [ebp+0x20]
  403d64:	jne    0x403dd9
  403d66:	gs and BYTE PTR fs:[ecx+0x66],ch
  403d6b:	and    BYTE PTR [ebx+0x65],ch
  403d6e:	jns    0x403dd6
  403d70:	imul   ebp,DWORD PTR [ebp+eiz*2+0x20],0x6b20726f
  403d78:	gs jns 0x403dde
  403d7b:	outs   dx,DWORD PTR ds:[esi]
  403d7c:	outs   dx,BYTE PTR ds:[esi]
  403d7d:	je     0x403de0
  403d7f:	imul   ebp,DWORD PTR [esi+0x65],0x73692072
  403d86:	and    BYTE PTR [ebx+0x70],dh
  403d89:	arpl   WORD PTR gs:[ecx+0x66],bp
  403d8d:	imul   esp,DWORD PTR [ebp+0x64],0x5422012e
  403d94:	push   0x656b2065
  403d99:	jns    0x403e01
  403d9b:	imul   ebp,DWORD PTR [ebp+eiz*2+0x20],0x7d307b27
  403da3:	daa    
  403da4:	and    BYTE PTR [ebx+0x61],ah
  403da7:	outs   dx,BYTE PTR ds:[esi]
  403da8:	outs   dx,BYTE PTR ds:[esi]
  403da9:	outs   dx,DWORD PTR ds:[esi]
  403daa:	je     0x403dcc
  403dac:	bound  esp,QWORD PTR [ebp+0x20]
  403daf:	outs   dx,WORD PTR ds:[esi]
  403db1:	jne    0x403e21
  403db3:	fs add DWORD PTR cs:[edx],ebx
  403db7:	daa    
  403db8:	jnp    0x403dea
  403dba:	jge    0x403de3
  403dbc:	and    BYTE PTR [ecx+0x73],ch
  403dbf:	and    BYTE PTR [esi+0x6f],ch
  403dc2:	je     0x403de4
  403dc4:	popa   
  403dc5:	and    BYTE PTR [esi+0x61],dh
  403dc8:	ins    BYTE PTR es:[edi],dx
  403dc9:	imul   esp,DWORD PTR [eax+eiz*1+0x70],0x2e687461
  403dd1:	add    DWORD PTR [edx],esp
  403dd3:	daa    
  403dd4:	jnp    0x403e06
  403dd6:	jge    0x403dff
  403dd8:	and    BYTE PTR [ecx+0x73],ch
  403ddb:	and    BYTE PTR [esi+0x6f],ch
  403dde:	je     0x403e00
  403de0:	popa   
  403de1:	and    BYTE PTR [esi+0x61],dh
  403de4:	ins    BYTE PTR es:[edi],dx
  403de5:	imul   esp,DWORD PTR [eax+eiz*1+0x76],0x75747269
  403ded:	popa   
  403dee:	ins    BYTE PTR es:[edi],dx
  403def:	and    BYTE PTR [eax+0x61],dh
  403df2:	je     0x403e5c
  403df4:	add    DWORD PTR cs:[esi],esp
  403df7:	push   ebx
  403df8:	jo     0x403e5f
  403dfa:	arpl   WORD PTR [ecx+0x66],bp
  403dfd:	imul   esp,DWORD PTR [ebp+0x73],0x73206120
  403e04:	je     0x403e78
  403e06:	outs   dx,DWORD PTR ds:[esi]
  403e07:	outs   dx,BYTE PTR ds:[esi]
  403e08:	and    BYTE PTR [bp+0x61],ch
  403e0c:	ins    DWORD PTR es:[edi],dx
  403e0d:	and    BYTE PTR gs:[ebx+0x65],ch
  403e11:	jns    0x403e33
  403e13:	arpl   WORD PTR [edi+0x6e],bp
  403e16:	je     0x403e79
  403e18:	imul   ebp,DWORD PTR [esi+0x65],0x2e012e72
  403e1f:	push   esp
  403e20:	push   0x68702065
  403e25:	jns    0x403e9a
  403e27:	imul   esp,DWORD PTR [ebx+0x61],0x6170206c
  403e2e:	je     0x403e98
  403e30:	and    BYTE PTR [edi+ebp*2+0x20],dh
  403e34:	je     0x403e9e
  403e36:	and    BYTE PTR gs:[ebx+0x74],dh
  403e3a:	jb     0x403eab
  403e3c:	outs   dx,BYTE PTR ds:[esi]
  403e3d:	and    BYTE PTR [bp+0x61],ch
  403e41:	ins    DWORD PTR es:[edi],dx
  403e42:	and    BYTE PTR gs:[ebx+0x65],ch
  403e46:	jns    0x403e68
  403e48:	imul   bp,WORD PTR [ebp+eiz*2+0x2e],0x6901
  403e4f:	push   esp
  403e50:	push   0x75662065
  403e55:	ins    BYTE PTR es:[edi],dx
  403e56:	ins    BYTE PTR es:[edi],dx
  403e57:	and    BYTE PTR [ecx+0x49],cl
  403e5a:	push   ebx
  403e5b:	and    BYTE PTR [ebp+0x65],ch
  403e5e:	je     0x403ec1
  403e60:	bound  esp,QWORD PTR [ecx+0x73]
  403e63:	and    BYTE PTR gs:[eax+0x61],dh
  403e67:	je     0x403ed1
  403e69:	and    BYTE PTR [edi+0x66],ch
  403e6c:	and    BYTE PTR [eax+ebp*2+0x65],dh
  403e70:	and    BYTE PTR [ecx+0x70],ah
  403e73:	jo     0x403ee1
  403e75:	imul   esp,DWORD PTR [ebx+0x61],0x6e6f6974
  403e7c:	and    BYTE PTR cs:[eax+ebp*2+0x69],dl
  403e81:	jae    0x403ea3
  403e83:	jae    0x403efc
  403e85:	imul   esi,DWORD PTR [ebx+eiz*2+0x68],0x6e616320
  403e8d:	outs   dx,BYTE PTR ds:[esi]
  403e8e:	outs   dx,DWORD PTR ds:[esi]
  403e8f:	je     0x403eb1
  403e91:	bound  esp,QWORD PTR [ebp+0x20]
  403e94:	arpl   WORD PTR [edi+0x6d],bp
  403e97:	bound  ebp,QWORD PTR [ecx+0x6e]
  403e9a:	gs and BYTE PTR fs:[edi+0x69],dh
  403e9f:	je     0x403f09
  403ea1:	and    BYTE PTR [eax+ebp*2+0x65],dh
  403ea5:	and    BYTE PTR ds:0x726f2076,ch
  403eab:	and    BYTE PTR ds:0x77732070,ch
  403eb1:	imul   esi,DWORD PTR [ebx+eiz*2+0x68],0x12e7365
  403eb9:	xor    eax,0x20656854
  403ebe:	daa    
  403ebf:	jnp    0x403ef1
  403ec1:	jge    0x403eea
  403ec3:	and    BYTE PTR [ebx+0x77],dh
  403ec6:	imul   esi,DWORD PTR [ebx+eiz*2+0x68],0x65656e20
  403ece:	fs jae 0x403ef1
  403ed1:	je     0x403f42
  403ed3:	and    BYTE PTR [edx+0x65],ah
  403ed6:	and    BYTE PTR [esi+0x6f],ah
  403ed9:	ins    BYTE PTR es:[edi],dx
  403eda:	ins    BYTE PTR es:[edi],dx
  403edb:	outs   dx,DWORD PTR ds:[esi]
  403edc:	ja     0x403f43
  403ede:	and    BYTE PTR fs:[edx+0x79],ah
  403ee2:	and    BYTE PTR [ecx+0x6e],ah
  403ee5:	and    BYTE PTR [ecx+0x72],ah
  403ee8:	addr16 jne 0x403f58
  403eeb:	outs   dx,BYTE PTR gs:[esi]
  403eed:	je     0x403f1d
  403eef:	add    DWORD PTR [ecx],esi
  403ef1:	inc    ebp
  403ef2:	imul   esi,DWORD PTR [eax+ebp*2+0x65],0x6d2d2072
  403efa:	and    BYTE PTR [edi+0x72],ch
  403efd:	and    BYTE PTR ds:0x756d2076,ch
  403f03:	jae    0x403f79
  403f05:	and    BYTE PTR [edx+0x65],ah
  403f08:	and    BYTE PTR [ebx+0x70],dh
  403f0b:	arpl   WORD PTR gs:[ecx+0x66],bp
  403f0f:	imul   esp,DWORD PTR [ebp+0x64],0x75622820
  403f16:	je     0x403f38
  403f18:	outs   dx,BYTE PTR ds:[esi]
  403f19:	outs   dx,DWORD PTR ds:[esi]
  403f1a:	je     0x403f3c
  403f1c:	bound  ebp,QWORD PTR [edi+0x74]
  403f1f:	push   0x2b012e29
  403f24:	push   esp
  403f25:	push   0x6d2d2065
  403f2a:	and    BYTE PTR [ecx+0x6e],ah
  403f2d:	and    BYTE PTR fs:0x77732070,ch
  403f34:	imul   esi,DWORD PTR [ebx+eiz*2+0x68],0x63207365
  403f3c:	popa   
  403f3d:	outs   dx,BYTE PTR ds:[esi]
  403f3e:	outs   dx,BYTE PTR ds:[esi]
  403f3f:	outs   dx,DWORD PTR ds:[esi]
  403f40:	je     0x403f62
  403f42:	bound  ebp,QWORD PTR [edi+0x74]
  403f45:	push   0x20656220
  403f4a:	jne    0x403fbf
  403f4c:	gs fs add DWORD PTR cs:[ebx+edx*2],esp
  403f52:	jne    0x403fc4
  403f54:	jo     0x403fc8
  403f56:	gs jae 0x403fcc
  403f59:	and    BYTE PTR [ebx+0x6f],ah
  403f5c:	ins    DWORD PTR es:[edi],dx
  403f5d:	jo     0x403fc8
  403f5f:	ins    BYTE PTR es:[edi],dx
  403f60:	gs jb  0x403f83
  403f63:	arpl   WORD PTR [edi+0x70],bp
  403f66:	jns    0x403fda
  403f68:	imul   esp,DWORD PTR [edi+0x68],0x656d2074
  403f6f:	jae    0x403fe4
  403f71:	popa   
  403f72:	gs add DWORD PTR cs:[bx+si+0x5401],ebx
  403f79:	push   0x68702065
  403f7e:	jns    0x403ff3
  403f80:	imul   esp,DWORD PTR [ebx+0x61],0x6170206c
  403f87:	je     0x403ff1
  403f89:	and    BYTE PTR [edi+0x66],ch
  403f8c:	and    BYTE PTR [eax+ebp*2+0x65],dh
  403f90:	and    BYTE PTR [ecx+0x70],ah
  403f93:	jo     0x404001
  403f95:	imul   esp,DWORD PTR [ebx+0x61],0x6e6f6974
  403f9c:	and    BYTE PTR [edi+ebp*2+0x20],dh
  403fa0:	bound  esp,QWORD PTR [ebp+0x20]
  403fa3:	arpl   WORD PTR [edi+0x6d],bp
  403fa6:	jo     0x404011
  403fa8:	ins    BYTE PTR es:[edi],dx
  403fa9:	gs fs and BYTE PTR cs:[ecx+0x66],cl
  403faf:	and    BYTE PTR ds:0x73692070,ch
  403fb5:	and    BYTE PTR [ebp+0x69],ch
  403fb8:	jae    0x40402d
  403fba:	imul   ebp,DWORD PTR [esi+0x67],0x6874202c
  403fc1:	and    BYTE PTR gs:[ecx+0x49],cl
  403fc5:	push   ebx
  403fc6:	and    BYTE PTR [ebp+0x65],ch
  403fc9:	je     0x40402c
  403fcb:	bound  esp,QWORD PTR [ecx+0x73]
  403fce:	and    BYTE PTR gs:[ecx+0x73],ch
  403fd2:	and    BYTE PTR [ebp+0x73],dh
  403fd5:	gs and BYTE PTR fs:[edi+ebp*2+0x20],dh
  403fdb:	ins    BYTE PTR es:[edi],dx
  403fdc:	outs   dx,DWORD PTR ds:[esi]
  403fdd:	arpl   WORD PTR [ecx+0x74],sp
  403fe0:	and    BYTE PTR gs:[eax+ebp*2+0x65],dh
  403fe5:	and    BYTE PTR [ecx+0x70],ah
  403fe8:	jo     0x404018
  403fea:	and    BYTE PTR [eax+ebp*2+0x69],dl
  403fee:	jae    0x404010
  403ff0:	jae    0x404069
  403ff2:	imul   esi,DWORD PTR [ebx+eiz*2+0x68],0x73756d20
  403ffa:	je     0x40401c
  403ffc:	bound  esp,QWORD PTR [ebp+0x20]
  403fff:	arpl   WORD PTR [edi+0x6d],bp
  404002:	bound  ebp,QWORD PTR [ecx+0x6e]
  404005:	gs and BYTE PTR fs:[edi+0x69],dh
  40400a:	je     0x404074
  40400c:	and    BYTE PTR ds:0x16012e76,ch
  404012:	push   eax
  404013:	jb     0x40407e
  404015:	outs   dx,BYTE PTR ds:[esi]
  404016:	je     0x40408b
  404018:	and    BYTE PTR [eax+ebp*2+0x69],dh
  40401c:	jae    0x40403e
  40401e:	push   0x20706c65
  404023:	je     0x40408a
  404025:	js     0x40409b
  404027:	add    DWORD PTR cs:0x206e7552,esi
  40402e:	daa    
  40402f:	popa   
  404030:	jae    0x4040a2
  404032:	outs   dx,BYTE PTR ds:[esi]
  404033:	gs je  0x404095
  404036:	arpl   WORD PTR [edi+0x6d],bp
  404039:	jo     0x4040a4
  40403b:	ins    BYTE PTR es:[edi],dx
  40403c:	gs jb  0x40405f
  40403f:	sub    eax,0x6620273f
  404044:	outs   dx,DWORD PTR ds:[esi]
  404045:	jb     0x404067
  404047:	popa   
  404048:	and    BYTE PTR [ecx+ebp*2+0x73],ch
  40404c:	je     0x40406e
  40404e:	outs   dx,DWORD PTR ds:[esi]
  40404f:	data16 and BYTE PTR [esi+0x61],dh
  404053:	ins    BYTE PTR es:[edi],dx
  404054:	imul   esp,DWORD PTR [eax+eiz*1+0x6f],0x6f697470
  40405c:	outs   dx,BYTE PTR ds:[esi]
  40405d:	jae    0x40408d
  40405f:	add    DWORD PTR [edx+0x54],esi
  404062:	push   0x68702065
  404067:	jns    0x4040dc
  404069:	imul   esp,DWORD PTR [ebx+0x61],0x6170206c
  404070:	je     0x4040da
  404072:	and    BYTE PTR [edi+ebp*2+0x20],dh
  404076:	ja     0x4040e0
  404078:	imul   esp,DWORD PTR [ebx+0x68],0x65687420
  40407f:	and    BYTE PTR [ecx+0x70],ah
  404082:	jo     0x4040f0
  404084:	imul   esp,DWORD PTR [ebx+0x61],0x6e6f6974
  40408b:	and    BYTE PTR [ecx+0x73],ch
  40408e:	and    BYTE PTR [ebx+0x6f],ah
  404091:	ins    DWORD PTR es:[edi],dx
  404092:	jo     0x4040fd
  404094:	ins    BYTE PTR es:[edi],dx
  404095:	gs fs and BYTE PTR cs:[ecx+0x66],cl
  40409b:	and    BYTE PTR [esi+0x6f],ch
  40409e:	je     0x4040c0
  4040a0:	jae    0x404112
  4040a2:	arpl   WORD PTR gs:[ecx+0x66],bp
  4040a6:	imul   esp,DWORD PTR [ebp+0x64],0x6874202c
  4040ad:	and    BYTE PTR gs:[ecx+0x70],ah
  4040b1:	jo     0x40411f
  4040b3:	imul   esp,DWORD PTR [ebx+0x61],0x6e6f6974
  4040ba:	and    BYTE PTR [ecx+0x73],ch
  4040bd:	and    BYTE PTR [eax+0x72],dh
  4040c0:	arpl   WORD PTR gs:[edi+0x6d],bp
  4040c4:	jo     0x40412f
  4040c6:	ins    BYTE PTR es:[edi],dx
  4040c7:	gs and BYTE PTR fs:[ecx+0x6e],ch
  4040cc:	sub    eax,0x63616c70
  4040d1:	gs add DWORD PTR cs:[edi],esi
  4040d5:	dec    ecx
  4040d6:	data16 and BYTE PTR [ebx+0x70],dh
  4040da:	arpl   WORD PTR gs:[ecx+0x66],bp
  4040de:	imul   esp,DWORD PTR [ebp+0x64],0x6874202c
  4040e5:	and    BYTE PTR gs:[eax+0x72],dh
  4040e9:	arpl   WORD PTR gs:[edi+0x6d],bp
  4040ed:	jo     0x404158
  4040ef:	ins    BYTE PTR es:[edi],dx
  4040f0:	gs and BYTE PTR fs:[ecx+0x70],ah
  4040f5:	jo     0x404163
  4040f7:	imul   esp,DWORD PTR [ebx+0x61],0x6e6f6974
  4040fe:	and    BYTE PTR [ecx+0x73],ch
  404101:	and    BYTE PTR [ebp+0x70],dh
  404104:	fs popa 
  404106:	je     0x404169
  404108:	bound  ebp,QWORD PTR [ebp+eiz*2+0x2e]
  40410c:	add    DWORD PTR [edx*2+0x7078656e],ebx
  404113:	arpl   WORD PTR gs:[ebp+eiz*2+0x64],si
  404118:	and    BYTE PTR [eax+0x61],dh
  40411b:	jb     0x40417e
  40411d:	ins    DWORD PTR es:[edi],dx
  40411e:	gs je  0x404186
  404121:	jb     0x40415d
  404123:	and    BYTE PTR [edi],ah
  404125:	jnp    0x404157
  404127:	jge    0x404150
  404129:	add    DWORD PTR cs:[esi],edx
  40412c:	push   ebp
  40412d:	outs   dx,BYTE PTR ds:[esi]
  40412e:	imul   ebp,DWORD PTR [esi+0x6f],0x77
  404132:	outs   dx,BYTE PTR ds:[esi]
  404133:	and    BYTE PTR [ebx+0x77],dh
  404136:	imul   esi,DWORD PTR [ebx+eiz*2+0x68],0x7b27203a
  40413e:	xor    BYTE PTR [ebp+0x27],bh
  404141:	add    DWORD PTR cs:[esi],eax
  404144:	push   ebp
  404145:	jae    0x4041a8
  404147:	cmp    al,BYTE PTR gs:[bx+di]
  40414b:	mov    ecx,0x65685402
  404150:	and    BYTE PTR [esi+0x69],dh
  404153:	jb     0x4041c9
  404155:	jne    0x4041b8
  404157:	ins    BYTE PTR es:[edi],dx
  404158:	and    BYTE PTR [eax+0x61],dh
  40415b:	je     0x4041c5
  40415d:	and    BYTE PTR [edi+0x66],ch
  404160:	and    BYTE PTR [eax+ebp*2+0x65],dh
  404164:	and    BYTE PTR [ecx+0x70],ah
  404167:	jo     0x4041d5
  404169:	imul   esp,DWORD PTR [ebx+0x61],0x6e6f6974
  404170:	and    BYTE PTR [edi+ebp*2+0x20],dh
  404174:	bound  esp,QWORD PTR [ebp+0x20]
  404177:	arpl   WORD PTR [edi+0x6d],bp
  40417a:	jo     0x4041e5
  40417c:	ins    BYTE PTR es:[edi],dx
  40417d:	gs and BYTE PTR fs:[eax],ch
  404181:	gs cs and BYTE PTR cs:[bp+si],ah
  404187:	das    
  404188:	dec    ebp
  404189:	jns    0x4041cc
  40418b:	jo     0x4041fd
  40418d:	and    ch,BYTE PTR [ecx]
  40418f:	and    BYTE PTR cs:[ecx+0x66],cl
  404193:	and    BYTE PTR ds:0x73692070,ch
  404199:	and    BYTE PTR [ebx+0x70],dh
  40419c:	arpl   WORD PTR gs:[ecx+0x66],bp
  4041a0:	imul   esp,DWORD PTR [ebp+0x64],0x6874202c
  4041a7:	and    BYTE PTR gs:[eax+0x68],dh
  4041ab:	jns    0x404220
  4041ad:	imul   esp,DWORD PTR [ebx+0x61],0x6170206c
  4041b4:	je     0x40421e
  4041b6:	and    BYTE PTR [ecx+0x73],ch
  4041b9:	and    BYTE PTR [ebp+0x73],dh
  4041bc:	gs and BYTE PTR fs:[edi+ebp*2+0x20],dh
  4041c2:	ins    BYTE PTR es:[edi],dx
  4041c3:	outs   dx,DWORD PTR ds:[esi]
  4041c4:	arpl   WORD PTR [ecx+0x74],sp
  4041c7:	and    BYTE PTR gs:[eax+ebp*2+0x65],dh
  4041cc:	and    BYTE PTR [ecx+0x70],ah
  4041cf:	jo     0x40423d
  4041d1:	imul   esp,DWORD PTR [ebx+0x61],0x6e6f6974
  4041d8:	and    BYTE PTR cs:[edi+0x74],cl
  4041dc:	push   0x69777265
  4041e1:	jae    0x404248
  4041e3:	sub    al,0x20
  4041e5:	je     0x40424f
  4041e7:	and    BYTE PTR gs:[ecx+0x49],cl
  4041eb:	push   ebx
  4041ec:	and    BYTE PTR [ebp+0x65],ch
  4041ef:	je     0x404252
  4041f1:	bound  esp,QWORD PTR [ecx+0x73]
  4041f4:	and    BYTE PTR gs:[ecx+0x73],ch
  4041f8:	and    BYTE PTR [ebp+0x73],dh
  4041fb:	gs fs sub al,0x20
  4041ff:	popa   
  404200:	outs   dx,BYTE PTR ds:[esi]
  404201:	and    BYTE PTR fs:[eax+ebp*2+0x65],dh
  404206:	and    BYTE PTR [ecx+0x70],ah
  404209:	jo     0x404277
  40420b:	imul   esp,DWORD PTR [ebx+0x61],0x6e6f6974
  404212:	and    BYTE PTR [ecx+0x73],ch
  404215:	and    BYTE PTR [ecx+0x73],ah
  404218:	jae    0x40428f
  40421a:	ins    DWORD PTR es:[edi],dx
  40421b:	gs and BYTE PTR fs:[edi+ebp*2+0x20],dh
  404221:	bound  esp,QWORD PTR [ebp+0x20]
  404224:	imul   ebp,DWORD PTR [esi+0x20],0x20656874
  40422b:	fs gs popaw 
  40422f:	jne    0x40429d
  404231:	je     0x404253
  404233:	jae    0x40429e
  404235:	je     0x40429c
  404237:	and    BYTE PTR [eax],ch
  404239:	jne    0x4042a9
  40423b:	fs gs jb 0x40425f
  40423f:	and    ch,BYTE PTR [edi]
  404241:	dec    esp
  404242:	dec    ebp
  404243:	das    
  404244:	push   edi
  404245:	xor    edx,DWORD PTR [ebx+0x56]
  404248:	inc    ebx
  404249:	das    
  40424a:	xor    DWORD PTR [edi],ebp
  40424c:	push   edx
  40424d:	outs   dx,DWORD PTR ds:[esi]
  40424e:	outs   dx,DWORD PTR ds:[esi]
  40424f:	je     0x404273
  404251:	sub    DWORD PTR [esi],ebp
  404253:	and    BYTE PTR [eax+ebp*2+0x69],dl
  404257:	jae    0x404279
  404259:	jae    0x4042d2
  40425b:	imul   esi,DWORD PTR [ebx+eiz*2+0x68],0x6e616320
  404263:	outs   dx,BYTE PTR ds:[esi]
  404264:	outs   dx,DWORD PTR ds:[esi]
  404265:	je     0x404287
  404267:	bound  esp,QWORD PTR [ebp+0x20]
  40426a:	arpl   WORD PTR [edi+0x6d],bp
  40426d:	bound  ebp,QWORD PTR [ecx+0x6e]
  404270:	gs and BYTE PTR fs:[edi+0x69],dh
  404275:	je     0x4042df
  404277:	and    BYTE PTR [eax+ebp*2+0x65],dh
  40427b:	and    BYTE PTR ds:0x7773206d,ch
  404281:	imul   esi,DWORD PTR [ebx+eiz*2+0x68],0x4200002e
  404289:	push   ebx
  40428a:	dec    edx
  40428b:	inc    edx
  40428c:	add    DWORD PTR [eax],eax
  40428e:	add    DWORD PTR [eax],eax
  404290:	add    BYTE PTR [eax],al
  404292:	add    BYTE PTR [eax],al
  404294:	or     al,0x0
  404296:	add    BYTE PTR [eax],al
  404298:	jbe    0x4042cc
  40429a:	xor    BYTE PTR cs:[esi],ch
  40429d:	xor    eax,0x37323730
  4042a2:	add    BYTE PTR [eax],al
  4042a4:	add    BYTE PTR [eax],al
  4042a6:	add    eax,0x6c00
  4042ab:	add    BYTE PTR [ebx+ecx*1+0x7e230000],al
  4042b2:	add    BYTE PTR [eax],al
  4042b4:	lock or eax,DWORD PTR [eax]
  4042b7:	add    BYTE PTR [eax+0xf],ah
  4042ba:	add    BYTE PTR [eax],al
  4042bc:	and    edx,DWORD PTR [ebx+0x74]
  4042bf:	jb     0x40432a
  4042c1:	outs   dx,BYTE PTR ds:[esi]
  4042c2:	addr16 jae 0x4042c5
  4042c5:	add    BYTE PTR [eax],al
  4042c7:	add    BYTE PTR [eax+0x1b],dl
  4042ca:	add    BYTE PTR [eax],al
  4042cc:	pop    esp
  4042cd:	or     al,BYTE PTR [eax]
  4042cf:	add    BYTE PTR [ebx],ah
  4042d1:	push   ebp
  4042d2:	push   ebx
  4042d3:	add    BYTE PTR [ebp+eiz*1+0x100000],ch
  4042da:	add    BYTE PTR [eax],al
  4042dc:	and    eax,DWORD PTR [edi+0x55]
  4042df:	dec    ecx
  4042e0:	inc    esp
  4042e1:	add    BYTE PTR [eax],al
  4042e3:	add    BYTE PTR [ebp+eiz*1+0x7dc0000],bh
  4042ea:	add    BYTE PTR [eax],al
  4042ec:	and    eax,DWORD PTR [edx+0x6c]
  4042ef:	outs   dx,DWORD PTR ds:[esi]
  4042f0:	bound  eax,QWORD PTR [eax]
  4042f2:	add    BYTE PTR [eax],al
  4042f4:	add    BYTE PTR [eax],al
  4042f6:	add    BYTE PTR [eax],al
  4042f8:	add    al,BYTE PTR [eax]
  4042fa:	add    BYTE PTR [ecx],al
  4042fc:	push   edi
  4042fd:	sbb    eax,0x30909a2
  404302:	add    BYTE PTR [eax],al
  404304:	add    dl,bh
  404306:	add    DWORD PTR [ebx],esi
  404308:	add    BYTE PTR [esi],dl
  40430a:	add    BYTE PTR [eax],al
  40430c:	add    DWORD PTR [eax],eax
  40430e:	add    BYTE PTR [eax],al
  404310:	aas    
  404311:	add    BYTE PTR [eax],al
  404313:	add    BYTE PTR [edi],al
  404315:	add    BYTE PTR [eax],al
  404317:	add    BYTE PTR [ecx],bh
  404319:	add    BYTE PTR [eax],al
  40431b:	add    BYTE PTR [edx],ch
  40431d:	add    BYTE PTR [eax],al
  40431f:	add    BYTE PTR [eax+eax*1],ch
  404322:	add    BYTE PTR [eax],al
  404324:	push   0x28000000
  404329:	add    BYTE PTR [eax],al
  40432b:	add    BYTE PTR ds:0xc000000,dl
  404331:	add    BYTE PTR [eax],al
  404333:	add    BYTE PTR [edx],al
  404335:	add    BYTE PTR [eax],al
  404337:	add    BYTE PTR [eax+eax*1],al
  40433a:	add    BYTE PTR [eax],al
  40433c:	add    al,0x0
  40433e:	add    BYTE PTR [eax],al
  404340:	add    DWORD PTR [eax],eax
  404342:	add    BYTE PTR [eax],al
  404344:	add    DWORD PTR [eax],eax
  404346:	add    BYTE PTR [eax],al
  404348:	add    eax,DWORD PTR [eax]
  40434a:	add    BYTE PTR [eax],al
  40434c:	add    DWORD PTR [eax],eax
  40434e:	add    BYTE PTR [eax],al
  404350:	add    DWORD PTR [eax],eax
  404352:	add    BYTE PTR [eax],al
  404354:	add    BYTE PTR [eax],al
  404356:	or     al,BYTE PTR [eax]
  404358:	add    DWORD PTR [eax],eax
  40435a:	add    BYTE PTR [eax],al
  40435c:	add    BYTE PTR [eax],al
  40435e:	push   es
  40435f:	add    BYTE PTR [eax+0x6008200],bl
  404365:	add    BYTE PTR [ebp+0xa008200],ch
  40436b:	add    al,cl
  40436d:	add    BYTE PTR [ebx+0x0],bh
  404370:	push   cs
  404371:	add    dl,bl
  404373:	add    BYTE PTR ds:0x2a000a00,dh
  404379:	add    ebx,DWORD PTR [ecx]
  40437b:	add    ecx,DWORD PTR [edx]
  40437d:	add    BYTE PTR [edi+0xe037a03],cl
  404383:	add    cl,bh
  404385:	add    esi,DWORD PTR ds:0x71000e00
  40438b:	add    al,0x35
  40438d:	add    BYTE PTR [edx],cl
  40438f:	add    BYTE PTR [eax+0x5],ah
  404392:	jnp    0x404394
  404394:	push   es
  404395:	add    BYTE PTR [ebp+0xe058d05],ah
  40439b:	add    BYTE PTR [esi+0xa00cf06],al
  4043a1:	add    ah,ch
  4043a3:	push   es
  4043a4:	int3   
  4043a5:	push   es
  4043a6:	or     al,BYTE PTR [eax]
  4043a8:	sbb    al,0x7
  4043aa:	or     al,BYTE PTR [edi]
  4043ac:	or     al,BYTE PTR [eax]
  4043ae:	xor    eax,0xa070a07
  4043b3:	add    BYTE PTR [eax+0x7],dl
  4043b6:	sbb    DWORD PTR [ebx],eax
  4043b8:	or     al,BYTE PTR [eax]
  4043ba:	jb     0x4043c3
  4043bc:	sbb    DWORD PTR [ebx],eax
  4043be:	or     al,BYTE PTR [eax]
  4043c0:	xchg   esp,eax
  4043c1:	pop    es
  4043c2:	or     al,BYTE PTR [edi]
  4043c4:	or     al,BYTE PTR [eax]
  4043c6:	mov    edx,0xa070a07
  4043cb:	add    bh,dl
  4043cd:	pop    es
  4043ce:	or     al,BYTE PTR [edi]
  4043d0:	or     al,BYTE PTR [eax]
  4043d2:	lock pop es
  4043d4:	or     al,BYTE PTR [edi]
  4043d6:	or     al,BYTE PTR [eax]
  4043d8:	or     ecx,DWORD PTR [eax]
  4043da:	or     al,BYTE PTR [edi]
  4043dc:	or     al,BYTE PTR [eax]
  4043de:	and    al,0x8
  4043e0:	or     al,BYTE PTR [edi]
  4043e2:	or     al,BYTE PTR [eax]
  4043e4:	cmp    eax,0xa070a08
  4043e9:	add    BYTE PTR [ebx+0x8],bl
  4043ec:	or     al,BYTE PTR [edi]
  4043ee:	or     al,BYTE PTR [eax]
  4043f0:	js     0x4043fa
  4043f2:	or     al,BYTE PTR [edi]
  4043f4:	or     al,BYTE PTR [eax]
  4043f6:	(bad)  
  4043fa:	or     al,BYTE PTR [eax]
  4043fc:	les    ecx,FWORD PTR [eax]
  4043fe:	movs   DWORD PTR es:[edi],DWORD PTR ds:[esi]
  4043ff:	or     BYTE PTR [edx],cl
  404401:	add    bl,ch
  404403:	or     al,bl
  404405:	or     BYTE PTR [ebx+0x0],dh
  404408:	dec    DWORD PTR [eax]
  40440a:	add    BYTE PTR [eax],al
  40440c:	or     al,BYTE PTR [eax]
  40440e:	push   cs
  40440f:	or     esp,ecx
  404411:	push   es
  404412:	or     al,BYTE PTR [eax]
  404414:	or     DWORD PTR ds:[ebx+0x0],edi
  404418:	or     al,BYTE PTR [eax]
  40441a:	push   esi
  40441b:	or     DWORD PTR [ebx+0x0],edi
  40441e:	or     al,BYTE PTR [eax]
  404420:	test   al,0x9
  404422:	xchg   edi,eax
  404423:	or     DWORD PTR [edx],ecx
  404425:	add    ah,al
  404427:	or     DWORD PTR [ebx+0x0],edi
  40442a:	or     al,BYTE PTR [eax]
  40442c:	ror    DWORD PTR [ecx],1
  40442e:	or     al,BYTE PTR [edi]
  404430:	or     al,BYTE PTR [eax]
  404432:	out    0x9,eax
  404434:	xchg   edi,eax
  404435:	or     DWORD PTR [edx],ecx
  404437:	add    BYTE PTR [edx+ecx*1],al
  40443a:	jnp    0x40443c
  40443c:	or     al,BYTE PTR [eax]
  40443e:	sbb    BYTE PTR [edx],cl
  404440:	jnp    0x404442
  404442:	or     al,BYTE PTR [eax]
  404444:	dec    esi
  404445:	or     bh,BYTE PTR [ebx+0x0]
  404448:	or     al,BYTE PTR [eax]
  40444a:	or     bh,BYTE PTR gs:[ebx+0x0]
  40444e:	push   cs
  40444f:	add    BYTE PTR [ebx+0xa00350a],bl
  404455:	add    BYTE PTR [eax],ah
  404457:	or     edx,DWORD PTR [esi]
  404459:	or     ecx,DWORD PTR [edx]
  40445b:	add    BYTE PTR [edx],dh
  40445d:	or     edi,DWORD PTR [ebx+0x0]
  404460:	or     al,BYTE PTR [eax]
  404462:	push   esi
  404463:	or     ecx,DWORD PTR [edx]
  404465:	pop    es
  404466:	or     al,BYTE PTR [eax]
  404468:	arpl   WORD PTR [ebx],cx
  40446a:	or     al,BYTE PTR [edi]
  40446c:	or     al,BYTE PTR [eax]
  40446e:	jl     0x40447b
  404470:	or     al,BYTE PTR [edi]
  404472:	or     al,BYTE PTR [eax]
  404474:	xchg   esp,eax
  404475:	or     ecx,DWORD PTR [edx]
  404477:	pop    es
  404478:	or     al,BYTE PTR [eax]
  40447a:	cmps   BYTE PTR ds:[esi],BYTE PTR es:[edi]
  40447b:	or     edi,DWORD PTR [ebx+0x0]
  40447e:	or     al,BYTE PTR [eax]
  404480:	mov    ecx,0xa09970b
  404485:	add    BYTE PTR [esp+ecx*1],ah
  404488:	sbb    BYTE PTR [edx+ecx*1],cl
  40448b:	add    BYTE PTR [ebp+0xc],cl
  40448e:	jp     0x404493
  404490:	or     al,BYTE PTR [eax]
  404492:	mov    eax,0xa007b0c
  404497:	add    BYTE PTR [eax],bl
  404499:	or     eax,0xa06cc
  40449e:	dec    esi
  40449f:	or     eax,0xa0d33
  4044a4:	xchg   DWORD PTR ds:0xa0b16,ecx
  4044aa:	cwde   
  4044ab:	or     eax,0xa0b16
  4044b0:	popf   
  4044b1:	or     eax,0xe0b16
  4044b6:	enter  0xcf0d,0x0
  4044ba:	push   cs
  4044bb:	add    ch,bl
  4044bd:	or     eax,0x600cf
  4044c2:	add    eax,0xa0df00e
  4044c7:	add    BYTE PTR [ebp+0xa070a0e],dl
  4044cd:	add    ch,dh
  4044cf:	push   cs
  4044d0:	jnp    0x4044d2
  4044d2:	or     al,BYTE PTR [eax]
  4044d4:	adc    cl,BYTE PTR [edi]
  4044d6:	or     al,BYTE PTR [edi]
  4044d8:	add    BYTE PTR [eax],al
  4044da:	add    BYTE PTR [eax],al
  4044dc:	add    DWORD PTR [eax],eax
  4044de:	add    BYTE PTR [eax],al
  4044e0:	add    BYTE PTR [eax],al
  4044e2:	add    DWORD PTR [eax],eax
  4044e4:	add    DWORD PTR [eax],eax
  4044e6:	add    BYTE PTR [ecx],al
  4044e8:	adc    BYTE PTR [eax],al
  4044ea:	push   ds
  4044eb:	add    BYTE PTR ds:0x1000500,dh
  4044f1:	add    BYTE PTR [ecx],al
  4044f3:	add    BYTE PTR [eax],al
  4044f5:	add    DWORD PTR [eax],edx
  4044f7:	add    BYTE PTR [eax+eax*1+0x35],cl
  4044fb:	add    BYTE PTR [ecx],cl
  4044fd:	add    BYTE PTR [edx],al
  4044ff:	add    BYTE PTR [ebx],al
  404501:	add    BYTE PTR [eax],al
  404503:	add    DWORD PTR [eax],edx
  404505:	add    BYTE PTR [eax+0x0],ah
  404508:	xor    eax,0x2000d00
  40450d:	add    BYTE PTR ds:0x10000000,al
  404513:	add    BYTE PTR [ebx+0x0],ah
  404516:	xor    eax,0x2c000d00
  40451b:	add    BYTE PTR ds:0x10000300,cl
  404521:	add    BYTE PTR [edi+0x0],ch
  404524:	add    BYTE PTR [eax],al
  404526:	adc    DWORD PTR [eax],eax
  404528:	cmp    DWORD PTR [eax],eax
  40452a:	add    BYTE PTR es:[eax],al
  40452d:	add    BYTE PTR [eax],al
  40452f:	add    bl,dl
  404531:	or     al,0x0
  404533:	add    BYTE PTR ds:0x2b003900,cl
  404539:	add    BYTE PTR [ecx],al
  40453b:	add    ch,dh
  40453d:	add    BYTE PTR [ebx],dl
  40453f:	add    BYTE PTR [ebx-0x80],dl
  404542:	xor    eax,DWORD PTR [ecx]
  404544:	sub    BYTE PTR [eax],al
  404546:	push   ebx
  404547:	cmp    BYTE PTR [ebx],0x1
  40454a:	sub    BYTE PTR [eax],al
  40454c:	push   ebx
  40454d:	add    BYTE PTR [edi+0x1],0x28
  404551:	add    BYTE PTR [ebx-0x80],dl
  404554:	push   ecx
  404555:	add    DWORD PTR [eax],ebp
  404557:	add    BYTE PTR [ebx-0x80],dl
  40455a:	bound  eax,QWORD PTR [ecx]
  40455c:	sub    BYTE PTR [eax],al
  40455e:	push   ebx
  40455f:	sub    BYTE PTR [eax+0x1],0x28
  404563:	add    BYTE PTR [ebx-0x80],dl
  404566:	jp     0x404569
  404568:	sub    BYTE PTR [eax],al
  40456a:	push   ebx
  40456b:	add    BYTE PTR [ecx+0x53002801],0x80
  404572:	mov    BYTE PTR [ecx],al
  404574:	sub    BYTE PTR [eax],al
  404576:	push   ebx
  404577:	or     BYTE PTR [edi+0x53002801],0x80
  40457e:	xchg   esi,eax
  40457f:	add    DWORD PTR [eax],ebp
  404581:	add    BYTE PTR [ebx-0x80],dl
  404584:	popf   
  404585:	add    DWORD PTR [eax],ebp
  404587:	add    BYTE PTR [ebx-0x80],dl
  40458a:	movs   BYTE PTR es:[edi],BYTE PTR ds:[esi]
  40458b:	add    DWORD PTR [eax],ebp
  40458d:	add    BYTE PTR [ebx-0x80],dl
  404590:	stos   DWORD PTR es:[edi],eax
  404591:	add    DWORD PTR [eax],ebp
  404593:	add    BYTE PTR [ebx-0x80],dl
  404596:	mov    bh,0x1
  404598:	sub    BYTE PTR [eax],al
  40459a:	push   ebx
  40459b:	add    bh,0x1
  40459e:	sub    BYTE PTR [eax],al
  4045a0:	push   ebx
  4045a1:	adc    ah,0x1
  4045a4:	sub    BYTE PTR [eax],al
  4045a6:	push   ebx
  4045a7:	and    dh,0x1
  4045aa:	sub    BYTE PTR [eax],al
  4045ac:	push   ebx
  4045ad:	xor    cl,0x1
  4045b0:	sub    BYTE PTR [eax],al
  4045b2:	push   ebx
  4045b3:	add    BYTE PTR [eax],0x2
  4045b6:	sub    BYTE PTR [eax],al
  4045b8:	push   ebx
  4045b9:	or     BYTE PTR [edi],0x2
  4045bc:	sub    BYTE PTR [eax],al
  4045be:	push   ebx
  4045bf:	sbb    BYTE PTR [edi],0x2
  4045c2:	sub    BYTE PTR [eax],al
  4045c4:	push   ebx
  4045c5:	sub    BYTE PTR [eax],0x2
  4045c8:	sub    BYTE PTR [eax],al
  4045ca:	push   ebx
  4045cb:	xor    BYTE PTR [ecx],0x2
  4045ce:	sub    BYTE PTR [eax],al
  4045d0:	push   ebx
  4045d1:	cmp    BYTE PTR [edx],0x2
  4045d4:	sub    BYTE PTR [eax],al
  4045d6:	push   ebx
  4045d7:	add    BYTE PTR [ebx+0x2],0x28
  4045db:	add    BYTE PTR [ebx-0x80],dl
  4045de:	dec    edi
  4045df:	add    ch,BYTE PTR [eax]
  4045e1:	add    BYTE PTR [ebx-0x80],dl
  4045e4:	pusha  
  4045e5:	add    ch,BYTE PTR [eax]
  4045e7:	add    BYTE PTR [ebx-0x80],dl
  4045ea:	outs   dx,DWORD PTR ds:[esi]
  4045eb:	add    ch,BYTE PTR [eax]
  4045ed:	add    BYTE PTR [ebx-0x80],dl
  4045f0:	jp     0x4045f4
  4045f2:	sub    BYTE PTR [eax],al
  4045f4:	push   ebx
  4045f5:	or     BYTE PTR [ebp+0x53002802],0x80
  4045fc:	call   0xa880:0x53002802
  404603:	add    ch,BYTE PTR [eax]
  404605:	add    BYTE PTR [ebx-0x80],dl
  404608:	mov    dh,0x2
  40460a:	sub    BYTE PTR [eax],al
  40460c:	push   ebx
  40460d:	add    dl,0x2
  404610:	sub    BYTE PTR [eax],al
  404612:	push   ebx
  404613:	or     ch,0x2
  404616:	sub    BYTE PTR [eax],al
  404618:	push   ebx
  404619:	and    dl,0x2
  40461c:	sub    BYTE PTR [eax],al
  40461e:	push   ebx
  40461f:	xor    dl,0x2
  404622:	sub    BYTE PTR [eax],al
  404624:	push   ebx
  404625:	add    BYTE PTR [ebx+eax*1],0x28
  404629:	add    BYTE PTR [ecx],dl
  40462b:	add    BYTE PTR [edx],dl
  40462d:	add    eax,edx
  40462f:	add    eax,DWORD PTR [ecx]
  404631:	add    BYTE PTR [edx],bh
  404633:	add    eax,esi
  404635:	add    edx,DWORD PTR [ecx]
  404637:	add    BYTE PTR [ebx+eax*1-0x36],al
  40463b:	add    edx,DWORD PTR [ecx-0x80]
  40463e:	out    dx,al
  40463f:	add    eax,DWORD PTR [ebx]
  404641:	add    al,0x11
  404643:	add    BYTE PTR [esp+eax*1],cl
  404646:	or     eax,DWORD PTR [ecx+edx*1]
  404649:	add    BYTE PTR [esp+eax*1],dl
  40464c:	sub    BYTE PTR [eax],al
  40464e:	adc    DWORD PTR [eax],eax
  404650:	daa    
  404651:	add    al,0x28
  404653:	add    BYTE PTR [ecx],dl
  404655:	add    BYTE PTR ds:0x11002804,dh
  40465b:	add    BYTE PTR [edi+0x4],al
  40465e:	sub    BYTE PTR [eax],al
  404660:	adc    DWORD PTR [eax],eax
  404662:	pop    edx
  404663:	add    al,0x28
  404665:	add    BYTE PTR [ecx],dl
  404667:	add    BYTE PTR [ebx+0x4],ah
  40466a:	sub    BYTE PTR [eax],al
  40466c:	adc    DWORD PTR [eax],eax
  40466e:	test   DWORD PTR [edi+ecx*1],eax
  404671:	add    al,0x11
  404673:	add    BYTE PTR [edx+0x11001304],bl
  404679:	add    BYTE PTR [edx+0x31040304],ch
  40467f:	add    BYTE PTR [ecx],ch
  404681:	add    eax,0x11043d
  404686:	adc    eax,0x1303c606
  40468b:	add    BYTE PTR [ebx+0xd],bl
  40468e:	cmp    eax,0x20d006
  404693:	add    BYTE PTR [eax],al
  404695:	add    BYTE PTR [esi+0x1600fe18],al
  40469b:	add    BYTE PTR [ecx],al
  40469d:	add    cl,bl
  40469f:	and    BYTE PTR [eax],al
  4046a1:	add    BYTE PTR [eax],al
  4046a3:	add    dh,al
  4046a5:	or     BYTE PTR [ecx+eax*1],al
  4046a8:	sbb    eax,DWORD PTR [eax]
  4046aa:	add    al,BYTE PTR [eax]
  4046ac:	add    DWORD PTR [ecx],esp
  4046ae:	add    BYTE PTR [eax],al
  4046b0:	add    BYTE PTR [eax],al
  4046b2:	xchg   BYTE PTR [eax],bl
  4046b4:	inc    BYTE PTR [eax]
  4046b6:	push   ss
  4046b7:	add    BYTE PTR [edx],al
  4046b9:	add    BYTE PTR [edx],cl
  4046bb:	and    DWORD PTR [eax],eax
  4046bd:	add    BYTE PTR [eax],al
  4046bf:	add    ah,al
  4046c1:	add    BYTE PTR [eax],ah
  4046c3:	add    DWORD PTR [ebx],esp
  4046c5:	add    BYTE PTR [ebx],al
  4046c7:	add    BYTE PTR [ecx+eiz*1],dl
  4046ca:	add    BYTE PTR [eax],al
  4046cc:	add    BYTE PTR [eax],al
  4046ce:	xchg   ecx,eax
  4046cf:	or     BYTE PTR [ecx+0x3],bl
  4046d2:	int    0x3
  4046d4:	add    al,0x0
  4046d6:	inc    eax
  4046d7:	and    DWORD PTR [eax],eax
  4046d9:	add    BYTE PTR [eax],al
  4046db:	add    BYTE PTR [ebx-0x2eff01e8],al
  4046e1:	add    eax,DWORD PTR [eax+eax*1]
  4046e4:	and    DWORD PTR fs:[eax],eax
  4046e7:	add    BYTE PTR [eax],al
  4046e9:	add    BYTE PTR [ecx-0x2afc9000],dl
  4046ef:	add    eax,DWORD PTR [eax+eax*1]
  4046f2:	mov    ah,0x21
  4046f4:	add    BYTE PTR [eax],al
  4046f6:	add    BYTE PTR [eax],al
  4046f8:	xchg   ecx,eax
  4046f9:	or     BYTE PTR [ebx+0x403da03],bl
  4046ff:	add    BYTE PTR [edi+0x21],dh
  404705:	add    BYTE PTR [esi-0x20fc58f8],dl
  40470b:	add    eax,DWORD PTR [eax+eax*1]
  40470e:	les    esp,FWORD PTR [ecx]
  404710:	add    BYTE PTR [eax],al
  404712:	add    BYTE PTR [eax],al
  404714:	xchg   esi,eax
  404715:	add    BYTE PTR [ebp+0x403e403],dh
  40471b:	add    BYTE PTR [eax+0x22],cl
  40471e:	add    BYTE PTR [eax],al
  404720:	add    BYTE PTR [eax],al
  404722:	xchg   esi,eax
  404723:	add    BYTE PTR [ebp+0x603eb03],dh
  404729:	add    BYTE PTR [edx+eiz*1+0x0],dh
  40472d:	add    BYTE PTR [eax],al
  40472f:	add    BYTE PTR [esi-0xffc4100],dl
  404735:	add    eax,DWORD PTR [edi]
  404737:	add    BYTE PTR [eax+0x22],ah
  40473d:	add    BYTE PTR [esi+0x1304b800],dl
  404743:	add    al,0x8
  404745:	add    BYTE PTR [eax+0x24],bl
  404748:	add    BYTE PTR [eax],al
  40474a:	add    BYTE PTR [eax],al
  40474c:	xchg   ecx,eax
  40474d:	add    BYTE PTR [ebp+0x9041904],bh
  404753:	add    al,ah
  404755:	and    al,0x0
  404757:	add    BYTE PTR [eax],al
  404759:	add    BYTE PTR [ecx+0x1904d000],dl
  40475f:	add    al,0x9
  404761:	add    al,dh
  404763:	add    BYTE PTR es:[eax],al
  404766:	add    BYTE PTR [eax],al
  404768:	xchg   ecx,eax
  404769:	add    ch,bl
  40476b:	add    al,0x1d
  40476d:	add    al,0x9
  40476f:	add    BYTE PTR [esi],al
  404771:	daa    
  404772:	add    BYTE PTR [eax],al
  404774:	add    BYTE PTR [eax],al
  404776:	xchg   ecx,eax
  404777:	add    bl,dh
  404779:	add    al,0x23
  40477b:	add    al,0xb
  40477d:	add    BYTE PTR [eax],dl
  40477f:	daa    
  404780:	add    BYTE PTR [eax],al
  404782:	add    BYTE PTR [eax],al
  404784:	xchg   ecx,eax
  404785:	add    bl,dh
  404787:	add    al,0x28
  404789:	add    al,0xc
  40478b:	add    BYTE PTR [eax+0x27],dh
  404791:	add    BYTE PTR [ecx+0x2f050c00],dl
  404797:	add    al,0xf
  404799:	add    al,ch
  40479b:	daa    
  40479c:	add    BYTE PTR [eax],al
  40479e:	add    BYTE PTR [eax],al
  4047a0:	xchg   ecx,eax
  4047a1:	add    BYTE PTR [eax*1+0x110437],bl
  4047a8:	xchg   DWORD PTR ds:0x0,ebp
  4047ae:	xchg   ecx,eax
  4047af:	add    BYTE PTR [ecx+0x5],al
  4047b2:	inc    ecx
  4047b3:	add    al,0x12
  4047b5:	add    BYTE PTR [eax+0x2d],ah
  4047bb:	add    BYTE PTR [ecx-0x14faac00],dl
  4047c1:	add    edx,DWORD PTR [ebx]
  4047c3:	add    ah,ah
  4047c5:	sub    eax,0x0
  4047ca:	xchg   ecx,eax
  4047cb:	add    BYTE PTR [edx+0x5],ch
  4047ce:	inc    esi
  4047cf:	add    al,0x14
  4047d1:	add    BYTE PTR [esi+ebp*1+0x0],bl
  4047d5:	add    BYTE PTR [eax],al
  4047d7:	add    BYTE PTR [ecx+0x4c057500],dl
  4047dd:	add    al,0x15
  4047df:	add    BYTE PTR [ebp+0x2e],dl
  4047e5:	add    BYTE PTR [ecx+0x5305b300],dl
  4047eb:	add    al,0x16
  4047ed:	add    BYTE PTR [esi+ebp*1+0x0],bh
  4047f4:	xchg   ecx,eax
  4047f5:	add    ah,al
  4047f7:	add    eax,0x170446
  4047fc:	cmp    ch,BYTE PTR [edi]
  4047fe:	add    BYTE PTR [eax],al
  404800:	add    BYTE PTR [eax],al
  404802:	xchg   ecx,eax
  404803:	add    bh,dl
  404805:	add    eax,0x18041d
  40480a:	dec    eax
  40480b:	das    
  40480c:	add    BYTE PTR [eax],al
  40480e:	add    BYTE PTR [eax],al
  404810:	xchg   ecx,eax
  404811:	add    bh,dl
  404813:	add    eax,0x1a0459
  404818:	test   al,0x2f
  40481a:	add    BYTE PTR [eax],al
  40481c:	add    BYTE PTR [eax],al
  40481e:	xchg   ecx,eax
  40481f:	add    cl,ah
  404821:	add    eax,0x1f0441
  404826:	icebp  
  404827:	das    
  404828:	add    BYTE PTR [eax],al
  40482a:	add    BYTE PTR [eax],al
  40482c:	xchg   ecx,eax
  40482d:	add    dl,bh
  40482f:	add    eax,0x200462
  404834:	push   ss
  404835:	xor    BYTE PTR [eax],al
  404837:	add    BYTE PTR [eax],al
  404839:	add    BYTE PTR [ecx-0x14f9da00],dl
  40483f:	add    esp,DWORD PTR [edx]
  404841:	add    BYTE PTR [ebp+0x30],dl
  404844:	add    BYTE PTR [eax],al
  404846:	add    BYTE PTR [eax],al
  404848:	xchg   ecx,eax
  404849:	add    BYTE PTR [ebx+0x6],cl
  40484c:	jmp    0x404851
  40484e:	and    eax,DWORD PTR [eax]
  404850:	pop    ebp
  404851:	xor    BYTE PTR [eax],al
  404853:	add    BYTE PTR [eax],al
  404855:	add    BYTE PTR [ebx-0x14f9a300],dl
  40485b:	add    esp,DWORD PTR [eax+eax*1]
  40485e:	push   0x30
  404863:	add    BYTE PTR [ebx+0x68065d00],dl
  404869:	add    al,0x25
  40486b:	add    BYTE PTR [eax+0x30],cl
  404871:	add    BYTE PTR [ebx+0x6e065d00],dl
  404877:	add    al,0x27
  404879:	add    bh,dl
  40487b:	xor    BYTE PTR [eax],al
  40487d:	add    BYTE PTR [eax],al
  40487f:	add    BYTE PTR [esi-0x2eff01e8],al
  404885:	add    ebp,DWORD PTR [edx]
  404887:	add    BYTE PTR [eax+esi*1+0x0],ch
  40488e:	xchg   ecx,eax
  40488f:	sbb    BYTE PTR [esi],ch
  404891:	nop    DWORD PTR [edx+ebp*1]
  404895:	add    bh,bl
  404897:	xor    BYTE PTR [eax],al
  404899:	add    BYTE PTR [eax],al
  40489b:	add    dh,al
  40489d:	add    BYTE PTR [edx+0x6],dh
  4048a0:	jne    0x4048a6
  4048a2:	sub    al,BYTE PTR [eax]
  4048a4:	out    0x30,eax
  4048a6:	add    BYTE PTR [eax],al
  4048a8:	add    BYTE PTR [eax],al
  4048aa:	mov    BYTE PTR [eax],0x92
  4048ad:	push   es
  4048ae:	jnp    0x4048b4
  4048b0:	sub    eax,DWORD PTR [eax]
  4048b2:	push   es
  4048b3:	xor    DWORD PTR [eax],eax
  4048b5:	add    BYTE PTR [eax],al
  4048b7:	add    dh,al
  4048b9:	add    BYTE PTR [ebx+0x2c001606],ah
  4048bf:	add    BYTE PTR [eax],cl
  4048c1:	xor    DWORD PTR [eax],eax
  4048c3:	add    BYTE PTR [eax],al
  4048c5:	add    dh,al
  4048c7:	add    BYTE PTR [edx+0x2d048106],dh
  4048cd:	add    BYTE PTR [ebx],cl
  4048cf:	xor    DWORD PTR [eax],eax
  4048d1:	add    BYTE PTR [eax],al
  4048d3:	add    BYTE PTR [esi-0x2eff01e8],al
  4048d9:	add    ebp,DWORD PTR ds:0x1000000
  4048df:	add    BYTE PTR [edi+0x9],ah
  4048e2:	add    BYTE PTR [eax],al
  4048e4:	add    DWORD PTR [eax],eax
  4048e6:	mov    BYTE PTR [ecx],cl
  4048e8:	add    BYTE PTR [eax],al
  4048ea:	add    DWORD PTR [eax],eax
  4048ec:	xchg   ecx,eax
  4048ed:	or     DWORD PTR [eax],eax
  4048ef:	add    BYTE PTR [ecx],al
  4048f1:	add    dl,bh
  4048f3:	or     DWORD PTR [eax],eax
  4048f5:	add    BYTE PTR [edx],al
  4048f7:	add    bh,bh
  4048f9:	or     DWORD PTR [eax],eax
  4048fb:	add    BYTE PTR [ecx],al
  4048fd:	add    dl,bh
  4048ff:	or     DWORD PTR [eax],eax
  404901:	add    BYTE PTR [ecx],al
  404903:	add    dl,bh
  404905:	or     DWORD PTR [eax],eax
  404907:	add    BYTE PTR [ecx],al
  404909:	add    bh,bh
  40490b:	or     DWORD PTR [eax],eax
  40490d:	add    BYTE PTR [ecx],al
  40490f:	add    BYTE PTR [esp+ecx*1+0x20000],al
  404916:	xchg   ecx,eax
  404917:	or     al,0x0
  404919:	add    BYTE PTR [ecx],al
  40491b:	add    BYTE PTR [eax+0x100000c],ch
  404921:	add    BYTE PTR [eax+0x200000c],ch
  404927:	add    BYTE PTR [edx+0x300000c],ch
  40492d:	add    dh,ch
  40492f:	add    eax,DWORD PTR [eax]
  404931:	add    BYTE PTR [ecx],al
  404933:	add    bh,bh
  404935:	or     DWORD PTR [eax],eax
  404937:	add    BYTE PTR [edx],al
  404939:	add    bl,al
  40493b:	or     al,0x0
  40493d:	add    BYTE PTR [ecx],al
  40493f:	add    bh,bh
  404941:	or     DWORD PTR [eax],eax
  404943:	add    BYTE PTR [ecx],al
  404945:	add    BYTE PTR [edx+0x100000d],ah
  40494b:	add    BYTE PTR [ecx+0x100000d],bh
  404951:	add    BYTE PTR [esi+0x100000d],bh
  404957:	add    BYTE PTR [esi+0xe],cl
  40495a:	add    BYTE PTR [eax],al
  40495c:	add    DWORD PTR [eax],eax
  40495e:	arpl   WORD PTR [esi],cx
  404960:	add    BYTE PTR [eax],al
  404962:	add    DWORD PTR [eax],eax
  404964:	dec    esi
  404965:	push   cs
  404966:	add    BYTE PTR [eax],al
  404968:	add    DWORD PTR [eax],eax
  40496a:	mov    eax,0x200000e
  40496f:	add    ah,al
  404971:	push   cs
  404972:	add    BYTE PTR [eax],al
  404974:	add    DWORD PTR [eax],eax
  404976:	int3   
  404977:	push   cs
  404978:	add    BYTE PTR [eax],al
  40497a:	add    al,BYTE PTR [eax]
  40497c:	aad    0xe
  40497e:	add    BYTE PTR [eax],al
  404980:	add    eax,DWORD PTR [eax]
  404982:	fimul  DWORD PTR [esi]
  404984:	add    BYTE PTR [eax],al
  404986:	add    al,0x0
  404988:	mov    eax,0x500000e
  40498d:	add    ah,al
  40498f:	push   cs
  404990:	add    BYTE PTR [eax],al
  404992:	add    DWORD PTR [eax],eax
  404994:	loop   0x4049a4
  404996:	add    BYTE PTR [eax],al
  404998:	add    DWORD PTR [eax],eax
  40499a:	out    dx,eax
  40499b:	push   cs
  40499c:	add    BYTE PTR [eax],al
  40499e:	add    al,BYTE PTR [eax]
  4049a0:	repnz push cs
  4049a2:	add    BYTE PTR [eax],al
  4049a4:	add    DWORD PTR [eax],eax
  4049a6:	push   cs
  4049a7:	sldt   WORD PTR [eax]
  4049aa:	add    DWORD PTR [eax],eax
  4049ac:	push   cs
  4049ad:	sldt   WORD PTR [eax]
  4049b0:	add    DWORD PTR [eax],eax
  4049b2:	push   cs
  4049b3:	sldt   WORD PTR [eax]
  4049b6:	add    DWORD PTR [eax],eax
  4049b8:	push   cs
  4049b9:	sldt   WORD PTR [eax]
  4049bc:	add    al,BYTE PTR [eax]
  4049be:	and    al,0xf
  4049c0:	add    BYTE PTR [eax],al
  4049c2:	add    DWORD PTR [eax],eax
  4049c4:	push   cs
  4049c5:	sldt   WORD PTR [eax]
  4049c8:	add    al,BYTE PTR [eax]
  4049ca:	and    al,0xf
  4049cc:	add    BYTE PTR [eax],al
  4049ce:	add    eax,DWORD PTR [eax]
  4049d0:	sub    DWORD PTR [edi],ecx
  4049d2:	add    BYTE PTR [eax],al
  4049d4:	add    DWORD PTR [eax],eax
  4049d6:	arpl   WORD PTR [esi],cx
  4049d8:	add    BYTE PTR [eax],al
  4049da:	add    DWORD PTR [eax],eax
  4049dc:	arpl   WORD PTR [esi],cx
  4049de:	add    BYTE PTR [eax],al
  4049e0:	add    DWORD PTR [eax],eax
  4049e2:	les    ecx,FWORD PTR [esi]
  4049e4:	popa   
  4049e5:	add    dh,bh
  4049e7:	add    cl,dl
  4049e9:	add    ebp,DWORD PTR [ecx+0x0]
  4049ec:	inc    BYTE PTR [eax]
  4049ee:	push   ss
  4049ef:	add    BYTE PTR [ecx+0x0],dh
  4049f2:	inc    BYTE PTR [eax]
  4049f4:	test   DWORD PTR [ecx+edi*2],eax
  4049f7:	add    dh,bh
  4049f9:	add    BYTE PTR [esi],dl
  4049fb:	add    BYTE PTR [ecx+0x1600fe00],al
  404a01:	add    BYTE PTR [ecx+0x1600fe00],cl
  404a07:	add    BYTE PTR [ecx+0x1600fe00],dl
  404a0d:	add    BYTE PTR [ecx+0x1600fe00],bl
  404a13:	add    BYTE PTR [ecx+0x1600fe00],ah
  404a19:	add    BYTE PTR [ecx+0x1600fe00],ch
  404a1f:	add    BYTE PTR [ecx+0x1600fe00],dh
  404a25:	add    BYTE PTR [ecx+0x1600fe00],bh
  404a2b:	add    cl,al
  404a2d:	add    dh,bh
  404a2f:	add    BYTE PTR [esi],dl
  404a31:	add    cl,cl
  404a33:	add    dh,bh
  404a35:	add    BYTE PTR [esi],dl
  404a37:	add    cl,dl
  404a39:	add    dh,bh
  404a3b:	add    BYTE PTR [ebp-0x1ff26fc],al
  404a41:	add    BYTE PTR [ebp-0x1ff1efc],al
  404a47:	add    BYTE PTR [edx-0x1ff0efc],cl
  404a4d:	add    BYTE PTR [eax-0x1ff06fc],dl
  404a53:	add    BYTE PTR [edi],dh
  404a55:	add    eax,0xfe0009
  404a5a:	push   ss
  404a5b:	add    BYTE PTR [ecx],cl
  404a5d:	add    BYTE PTR [ecx+eax*1],al
  404a60:	sbb    eax,DWORD PTR [eax]
  404a62:	or     DWORD PTR [eax],eax
  404a64:	jae    0x404a6f
  404a66:	push   ss
  404a67:	add    BYTE PTR [ecx],dl
  404a69:	add    dh,bh
  404a6b:	add    BYTE PTR [esi],dl
  404a6d:	add    BYTE PTR [ecx],bl
  404a6f:	add    dh,bh
  404a71:	add    cl,dl
  404a73:	add    ecx,DWORD PTR [ecx]
  404a75:	add    DWORD PTR [ecx+ecx*1+0x190547],esi
  404a7c:	leave  
  404a7d:	or     DWORD PTR [ebx+0x5],edx
  404a80:	adc    DWORD PTR [ecx],eax
  404a82:	fimul  DWORD PTR [ecx]
  404a84:	pop    ecx
  404a85:	add    eax,0xfe0029
  404a8a:	pop    edi
  404a8b:	add    eax,0x9ef0121
  404a90:	addr16 add eax,0x9f50121
  404a96:	addr16 add eax,0xfe0129
  404a9c:	rol    DWORD PTR [ebx],1
  404a9e:	sub    DWORD PTR [eax],eax
  404aa0:	mov    ch,0x3
  404aa2:	jno    0x404aa9
  404aa4:	xor    DWORD PTR [ecx],eax
  404aa6:	pop    ds
  404aa7:	or     bh,BYTE PTR [eax+0x5]
  404aaa:	xor    DWORD PTR [ecx],eax
  404aac:	sub    cl,BYTE PTR [edx]
  404aae:	jl     0x404ab5
  404ab0:	xor    DWORD PTR [ecx],eax
  404ab2:	xor    al,0xa
  404ab4:	push   0x3b003104
  404ab9:	or     bl,dl
  404abb:	add    esi,DWORD PTR [ecx]
  404abd:	add    DWORD PTR [esi+0xa],ebx
  404ac0:	add    BYTE PTR ds:0x3bf0029,0x99
  404ac7:	add    eax,0xa6d0141
  404acc:	mov    al,ds:0x7d013105
  404ad1:	or     bl,BYTE PTR [ebx]
  404ad3:	add    BYTE PTR [ecx],dh
  404ad5:	add    DWORD PTR [ebp+0x4104620a],eax
  404adb:	add    DWORD PTR [ecx+0x4104230a],edx
  404ae1:	add    DWORD PTR [ecx+0x4904190a],edx
  404ae7:	add    esi,edi
  404ae9:	add    cl,dl
  404aeb:	add    ecx,DWORD PTR [ecx+0x1]
  404aee:	mov    bh,0xa
  404af0:	movs   BYTE PTR es:[edi],BYTE PTR ds:[esi]
  404af1:	add    eax,0xacf0149
  404af6:	push   ss
  404af7:	add    BYTE PTR [ecx+0x1],cl
  404afa:	in     eax,0xa
  404afc:	push   ss
  404afd:	add    BYTE PTR [ecx],bh
  404aff:	add    dh,bh
  404b01:	add    BYTE PTR [edx+0x3905],ch
  404b07:	or     esi,DWORD PTR [ebp+eax*1+0xb440111]
  404b0e:	mov    edx,0x70011105
  404b13:	or     eax,ebx
  404b15:	add    eax,0xb870161
  404b1a:	int    0x5
  404b1c:	jns    0x404b1f
  404b1e:	lahf   
  404b1f:	or     edx,esp
  404b21:	add    eax,0xbac0151
  404b26:	sbb    eax,DWORD PTR [eax]
  404b28:	push   ecx
  404b29:	add    esi,edi
  404b2b:	add    bl,bl
  404b2d:	add    eax,0xbc00189
  404b32:	stc    
  404b33:	add    eax,0xbd20031
  404b38:	fiadd  DWORD PTR [ebx]
  404b3a:	xor    DWORD PTR [eax],eax
  404b3c:	out    0xb,eax
  404b3e:	inc    DWORD PTR ds:0xc030189
  404b44:	add    al,0x6
  404b46:	inc    ecx
  404b47:	add    DWORD PTR ds:0x91060a0c,ebp
  404b4d:	add    DWORD PTR [eax+0xc],eax
  404b50:	js     0x404b57
  404b52:	mov    DWORD PTR [ecx],eax
  404b54:	ror    BYTE PTR [ebx],cl
  404b56:	inc    DWORD PTR ds:0xc560031
  404b5c:	adc    BYTE PTR [esi],al
  404b5e:	cdq    
  404b5f:	add    DWORD PTR [ebx+0xc],esp
  404b62:	js     0x404b69
  404b64:	cdq    
  404b65:	add    DWORD PTR [ebx+0xc],esi
  404b68:	js     0x404b6f
  404b6a:	xor    DWORD PTR [eax],eax
  404b6c:	inc    BYTE PTR [eax]
  404b6e:	push   ss
  404b6f:	add    BYTE PTR [ecx+0x1],al
  404b72:	mov    ds:0x3104230c,al
  404b77:	add    DWORD PTR [ebp+0x4106160c],edi
  404b7d:	add    DWORD PTR [edx+0x31061d0c],esp
  404b83:	add    ecx,ecx
  404b85:	or     al,0x33
  404b87:	push   es
  404b88:	xor    DWORD PTR [ecx],eax
  404b8a:	sub    cl,BYTE PTR [edx]
  404b8c:	cmp    BYTE PTR [esi],al
  404b8e:	test   eax,0xd100fe01
  404b93:	add    ecx,DWORD PTR [eax+eax*1]
  404b96:	inc    BYTE PTR [eax]
  404b98:	nop
  404b99:	add    al,0xc
  404b9b:	add    BYTE PTR [edi+0xd],ch
  404b9e:	dec    esi
  404b9f:	push   es
  404ba0:	or     al,0x0
  404ba2:	jae    0x404bb1
  404ba4:	push   esi
  404ba5:	push   es
  404ba6:	xor    DWORD PTR [ecx],eax
  404ba8:	jg     0x404bb7
  404baa:	pop    edi
  404bab:	push   es
  404bac:	mov    ecx,0x410d9101
  404bb1:	add    al,0xc1
  404bb3:	add    DWORD PTR [ecx-0x36fbbef3],edx
  404bb9:	add    DWORD PTR [ebp+eax*1-0x15],edx
  404bbd:	add    esi,DWORD PTR [ecx]
  404bbf:	add    DWORD PTR [esi-0x1ef992f3],ebp
  404bc5:	add    DWORD PTR [esi+ecx*1],ebx
  404bc8:	sbb    eax,DWORD PTR [eax]
  404bca:	loope  0x404bcd
  404bcc:	sub    DWORD PTR [esi],ecx
  404bce:	js     0x404bd5
  404bd0:	loope  0x404bd3
  404bd2:	xor    cl,BYTE PTR [esi]
  404bd4:	sbb    eax,DWORD PTR [eax]
  404bd6:	dec    ecx
  404bd7:	add    BYTE PTR [edx+0xe],al
  404bda:	sbb    eax,DWORD PTR [eax]
  404bdc:	dec    ecx
  404bdd:	add    BYTE PTR [eax+0xe],dl
  404be0:	jg     0x404be8
  404be2:	push   ecx
  404be3:	add    BYTE PTR [ebx+ecx*1+0x51001b],ch
  404bea:	sub    DWORD PTR [esi],ecx
  404bec:	js     0x404bf3
  404bee:	push   ecx
  404bef:	add    BYTE PTR [ecx+0xe],ch
  404bf2:	mov    DWORD PTR [esi],eax
  404bf4:	push   ecx
  404bf5:	add    BYTE PTR [edi+0xe],dh
  404bf8:	sbb    eax,DWORD PTR [eax]
  404bfa:	push   ecx
  404bfb:	add    BYTE PTR [edi+0x49001b0e],al
  404c01:	add    cl,cl
  404c03:	or     DWORD PTR [ebx+0x5],edx
  404c06:	jmp    0x1b4eec0c
  404c0b:	add    BYTE PTR [ecx],dh
  404c0d:	add    DWORD PTR [edx+ecx*1],esi
  404c10:	outs   dx,BYTE PTR ds:[esi]
  404c11:	add    al,0x49
  404c13:	add    BYTE PTR [ecx+0x31001b0e],ch
  404c19:	add    DWORD PTR [edx+ecx*1],esi
  404c1c:	xchg   ebx,eax
  404c1d:	push   es
  404c1e:	xor    DWORD PTR [ecx],eax
  404c20:	push   es
  404c21:	setp   BYTE PTR [esi]
  404c24:	adc    DWORD PTR [ecx],eax
  404c26:	sbb    DWORD PTR [edi],ecx
  404c28:	cmps   BYTE PTR ds:[esi],BYTE PTR es:[edi]
  404c29:	push   es
  404c2a:	stc    
  404c2b:	add    edx,ebx
  404c2d:	or     DWORD PTR [ecx+0x5],ebx
  404c30:	xor    DWORD PTR [ecx],eax
  404c32:	pop    esi
  404c33:	or     ch,BYTE PTR [esi+eax*1+0xa5e0131]
  404c3a:	mov    dl,0x6
  404c3c:	pop    ecx
  404c3d:	add    BYTE PTR ds:0x59001b0f,dh
  404c43:	add    BYTE PTR [ecx],ch
  404c45:	push   cs
  404c46:	js     0x404c4d
  404c48:	pop    ecx
  404c49:	add    BYTE PTR [edi+0x21001b0e],al
  404c4f:	add    dh,bh
  404c51:	add    cl,dl
  404c53:	add    ecx,DWORD PTR [esi]
  404c55:	add    BYTE PTR [eax],cl
  404c57:	add    BYTE PTR [ebx],ch
  404c59:	add    BYTE PTR [esi],cl
  404c5b:	add    BYTE PTR [eax+eax*1],cl
  404c5e:	cmp    al,BYTE PTR [eax]
  404c60:	push   cs
  404c61:	add    BYTE PTR [eax],dl
  404c63:	add    BYTE PTR [ecx+0x0],dl
  404c66:	push   cs
  404c67:	add    BYTE PTR [eax+eax*1],dl
  404c6a:	add    BYTE PTR fs:[esi],cl
  404c6d:	add    BYTE PTR [eax],bl
  404c6f:	add    BYTE PTR [ebp+0x1c000e00],al
  404c75:	add    BYTE PTR [eax+0x20000e00],dl
  404c7b:	add    BYTE PTR [ebx+0x24000e00],dh
  404c81:	add    al,al
  404c83:	add    BYTE PTR [esi],cl
  404c85:	add    BYTE PTR [eax],ch
  404c87:	add    ch,cl
  404c89:	add    BYTE PTR [esi],cl
  404c8b:	add    BYTE PTR [eax+eax*1],ch
  404c8e:	fiadd  DWORD PTR [eax]
  404c90:	push   cs
  404c91:	add    BYTE PTR [eax],dh
  404c93:	add    bh,ah
  404c95:	add    BYTE PTR [esi],cl
  404c97:	add    BYTE PTR [eax+eax*1],dh
  404c9a:	hlt    
  404c9b:	add    BYTE PTR [esi],cl
  404c9d:	add    BYTE PTR [eax],bh
  404c9f:	add    BYTE PTR [ecx],al
  404ca1:	add    DWORD PTR [esi],ecx
  404ca3:	add    BYTE PTR [eax+eax*1],bh
  404ca6:	push   cs
  404ca7:	add    DWORD PTR [esi],ecx
  404ca9:	add    BYTE PTR [eax+0x0],al
  404cac:	and    eax,0x44000e01
  404cb1:	add    BYTE PTR [ecx+eax*1+0xe],al
  404cb5:	add    BYTE PTR [eax+0x0],cl
  404cb8:	pop    ebp
  404cb9:	add    DWORD PTR [esi],ecx
  404cbb:	add    BYTE PTR [eax+eax*1-0x80],cl
  404cbf:	add    DWORD PTR [esi],ecx
  404cc1:	add    BYTE PTR [eax+0x0],dl
  404cc4:	xchg   ebp,eax
  404cc5:	add    DWORD PTR [esi],ecx
  404cc7:	add    BYTE PTR [eax+eax*1-0x4e],dl
  404ccb:	add    DWORD PTR [esi],ecx
  404ccd:	add    BYTE PTR [eax+0x0],bl
  404cd0:	iret   
  404cd1:	add    DWORD PTR [esi],ecx
  404cd3:	add    BYTE PTR [eax+eax*1-0x12],bl
  404cd7:	add    DWORD PTR [esi],ecx
  404cd9:	add    BYTE PTR [eax+0x0],ah
  404cdc:	inc    DWORD PTR [ecx]
  404cde:	push   cs
  404cdf:	add    BYTE PTR [eax+eax*1+0x10],ah
  404ce3:	add    cl,BYTE PTR [esi]
  404ce5:	add    BYTE PTR [eax+0x0],ch
  404ce8:	and    DWORD PTR [edx],eax
  404cea:	push   cs
  404ceb:	add    BYTE PTR [eax+eax*1+0x32],ch
  404cef:	add    cl,BYTE PTR [esi]
  404cf1:	add    BYTE PTR [eax+0x0],dh
  404cf4:	dec    ecx
  404cf5:	add    cl,BYTE PTR [esi]
  404cf7:	add    BYTE PTR [eax+eax*1+0x6a],dh
  404cfb:	add    cl,BYTE PTR [esi]
  404cfd:	add    BYTE PTR [eax+0x0],bh
  404d00:	xchg   DWORD PTR [edx],eax
  404d02:	push   cs
  404d03:	add    BYTE PTR [eax+eax*1-0x64],bh
  404d07:	add    cl,BYTE PTR [esi]
  404d09:	add    BYTE PTR [eax+0xe02c100],al
  404d0f:	add    BYTE PTR [eax+eax*1+0xe02da],al
  404d16:	mov    BYTE PTR [eax],al
  404d18:	cmc    
  404d19:	add    cl,BYTE PTR [esi]
  404d1b:	add    BYTE PTR [eax+eax*1+0xe0310],cl
  404d22:	nop
  404d23:	add    BYTE PTR [edi],ah
  404d25:	add    ecx,DWORD PTR [esi]
  404d27:	add    BYTE PTR [eax+eax*1+0xe033c],dl
  404d2e:	cwde   
  404d2f:	add    BYTE PTR [ebp+0x3],ah
  404d32:	push   cs
  404d33:	add    BYTE PTR [eax+eax*1+0xe0384],bl
  404d3a:	mov    al,ds:0x803a700
  404d3f:	add    BYTE PTR [eax+0x2e040600],dh
  404d45:	add    BYTE PTR [ebx],bh
  404d47:	add    BYTE PTR [esi],ah
  404d49:	pop    es
  404d4a:	add    BYTE PTR cs:[ebx+0x2e07d200],dl
  404d51:	add    BYTE PTR [ebx],cl
  404d53:	add    BYTE PTR [esi+0x13002e06],bh
  404d59:	add    ch,bl
  404d5b:	push   es
  404d5c:	add    BYTE PTR cs:[ebx],bl
  404d5f:	add    BYTE PTR [eax],cl
  404d61:	pop    es
  404d62:	add    BYTE PTR cs:[ebx],ah
  404d65:	add    BYTE PTR [esi],cl
  404d67:	pop    es
  404d68:	add    BYTE PTR cs:[ebx],ch
  404d6b:	add    BYTE PTR [ecx],bl
  404d6d:	pop    es
  404d6e:	add    BYTE PTR cs:[ebx],dh
  404d71:	add    BYTE PTR [esi],ah
  404d73:	pop    es
  404d74:	add    BYTE PTR cs:[ebx+0x0],cl
  404d78:	cmp    al,BYTE PTR [edi]
  404d7a:	add    BYTE PTR cs:[ebx+0x0],dl
  404d7e:	outs   dx,DWORD PTR ds:[esi]
  404d7f:	pop    es
  404d80:	add    BYTE PTR cs:[ebx+0x0],bl
  404d84:	pop    DWORD PTR [edi]
  404d86:	add    BYTE PTR cs:[ebx+0x0],ah
  404d8a:	stos   BYTE PTR es:[edi],al
  404d8b:	pop    es
  404d8c:	add    BYTE PTR cs:[ebx+0x0],ch
  404d90:	stos   BYTE PTR es:[edi],al
  404d91:	pop    es
  404d92:	add    BYTE PTR cs:[ebx+0x0],dh
  404d96:	stos   BYTE PTR es:[edi],al
  404d97:	pop    es
  404d98:	add    BYTE PTR cs:[ebx+0x0],bh
  404d9c:	or     BYTE PTR [edi],al
  404d9e:	add    BYTE PTR cs:[ebx+0x2e07c300],al
  404da5:	add    BYTE PTR [ebx+0x4307c900],cl
  404dab:	add    BYTE PTR [ebx+0x63053e00],bl
  404db1:	add    BYTE PTR [ebx-0x5bfac200],bl
  404db7:	add    bl,bh
  404db9:	add    BYTE PTR [ebp+eax*1-0x1d],ch
  404dbd:	add    BYTE PTR [ebx+0x2],al
  404dc0:	ins    BYTE PTR es:[edi],dx
  404dc1:	add    eax,0x58c054f
  404dc6:	xchg   esp,eax
  404dc7:	add    eax,0x62205e3
  404dcc:	das    
  404dcd:	push   es
  404dce:	gs push es
  404dd0:	jae    0x404dd8
  404dd2:	ja     0x404dda
  404dd4:	test   BYTE PTR [esi],al
  404dd6:	lea    eax,[esi]
  404dd8:	mov    ecx,0x1000206
  404ddd:	add    BYTE PTR [eax+eax*1],al
  404de0:	add    al,BYTE PTR [eax]
  404de2:	add    BYTE PTR [eax],al
  404de4:	adc    al,0x1
  404de6:	pop    ds
  404de7:	add    BYTE PTR [eax],al
  404de9:	add    cl,cl
  404deb:	add    esi,ebp
  404ded:	add    eax,DWORD PTR [eax]
  404def:	add    ah,bl
  404df1:	add    edi,ecx
  404df3:	add    eax,DWORD PTR [eax]
  404df5:	add    ah,ah
  404df7:	add    edi,esi
  404df9:	add    eax,DWORD PTR [edx]
  404dfb:	add    BYTE PTR [edx],al
  404dfd:	add    BYTE PTR [ebx],al
  404dff:	add    BYTE PTR [edx],al
  404e01:	add    BYTE PTR ds:0x2000500,al
  404e07:	add    BYTE PTR [eax],cl
  404e09:	add    BYTE PTR [edi],al
  404e0b:	add    BYTE PTR [edx],al
  404e0d:	add    BYTE PTR [ecx],cl
  404e0f:	add    BYTE PTR [ecx],cl
  404e11:	add    BYTE PTR [esi+0x6],al
  404e14:	add    al,0x80
  404e16:	add    BYTE PTR [eax],al
  404e18:	add    al,BYTE PTR [eax]
  404e1a:	add    BYTE PTR [eax],al
  404e1c:	add    BYTE PTR [eax],al
  404e1e:	add    BYTE PTR [eax],al
  404e20:	add    DWORD PTR [eax],eax
  404e22:	add    BYTE PTR [eax],al
  404e24:	xchg   ebp,eax
  404e25:	add    al,0x2e
  404e27:	or     DWORD PTR [eax],eax
  404e29:	add    BYTE PTR [edx],al
	...
  404e33:	add    BYTE PTR [eax],al
  404e35:	add    BYTE PTR [ecx],al
  404e37:	add    BYTE PTR [ebx+0x0],bh
  404e3a:	add    BYTE PTR [eax],al
  404e3c:	add    BYTE PTR [eax],al
  404e3e:	add    al,BYTE PTR [eax]
	...
  404e48:	add    BYTE PTR [eax],al
  404e4a:	add    DWORD PTR [eax],eax
  404e4c:	mov    edi,0x0
  404e51:	add    BYTE PTR [edx],al
	...
  404e5b:	add    BYTE PTR [eax],al
  404e5d:	add    BYTE PTR [edx],cl
  404e5f:	add    bh,cl
	...
  404e69:	add    BYTE PTR [ecx],al
  404e6b:	add    BYTE PTR [eax],al
  404e6d:	add    BYTE PTR [ebp+0xf],al
  404e70:	add    BYTE PTR [eax],al
  404e72:	push   es
  404e73:	add    BYTE PTR ds:0x0,al
  404e79:	cmp    al,0x4d
  404e7b:	outs   dx,DWORD PTR ds:[esi]
  404e7c:	fs jne 0x404eeb
  404e7f:	gs add BYTE PTR ds:[ecx+0x73],ah
  404e84:	jo     0x404ef4
  404e86:	gs je  0x404ee8
  404e89:	arpl   WORD PTR [edi+0x6d],bp
  404e8c:	jo     0x404ef7
  404e8e:	ins    BYTE PTR es:[edi],dx
  404e8f:	gs jb  0x404ec0
  404e92:	gs js  0x404efa
  404e95:	add    BYTE PTR [ebx+0x52],dl
  404e98:	inc    esp
  404e99:	gs jae 0x404eff
  404e9c:	jb     0x404f07
  404e9e:	jo     0x404f14
  404ea0:	imul   ebp,DWORD PTR [edi+0x6e],0x72747441
  404ea7:	imul   esp,DWORD PTR [edx+0x75],0x53006574
  404eae:	jns    0x404f23
  404eb0:	je     0x404f17
  404eb2:	ins    DWORD PTR es:[edi],dx
  404eb3:	cs push edi
  404eb5:	bound  ebp,QWORD PTR gs:[esi]
  404eb8:	inc    ebx
  404eb9:	outs   dx,DWORD PTR ds:[esi]
  404eba:	ins    DWORD PTR es:[edi],dx
  404ebb:	jo     0x404f26
  404ebd:	ins    BYTE PTR es:[edi],dx
  404ebe:	popa   
  404ebf:	je     0x404f2a
  404ec1:	outs   dx,DWORD PTR ds:[esi]
  404ec2:	outs   dx,BYTE PTR ds:[esi]
  404ec3:	add    BYTE PTR [ebx+0x52],dl
  404ec6:	inc    ebx
  404ec7:	popa   
  404ec8:	je     0x404f2f
  404eca:	outs   dx,DWORD PTR ds:[si]
  404ecc:	jb     0x404f47
  404ece:	inc    ecx
  404ecf:	je     0x404f45
  404ed1:	jb     0x404f3c
  404ed3:	bound  esi,QWORD PTR [ebp+0x74]
  404ed6:	add    BYTE PTR gs:[ebx+0x52],dl
  404eda:	add    BYTE PTR [eax+0x72],dl
  404edd:	arpl   WORD PTR gs:[edi+0x6d],bp
  404ee1:	jo     0x404f4c
  404ee3:	ins    BYTE PTR es:[edi],dx
  404ee4:	gs jb  0x404ee7
  404ee7:	inc    ebx
  404ee8:	inc    edx
  404ee9:	dec    ebp
  404eea:	inc    ebx
  404eeb:	popa   
  404eec:	ins    BYTE PTR es:[edi],dx
  404eed:	ins    BYTE PTR es:[edi],dx
  404eee:	bound  esp,QWORD PTR [ecx+0x63]
  404ef1:	imul   eax,DWORD PTR [eax],0x53
  404ef4:	jns    0x404f69
  404ef6:	je     0x404f5d
  404ef8:	ins    DWORD PTR es:[edi],dx
  404ef9:	add    BYTE PTR [ebx+0x79],dl
  404efc:	jae    0x404f72
  404efe:	gs ins DWORD PTR es:[edi],dx
  404f00:	cs inc ebx
  404f02:	outs   dx,DWORD PTR ds:[esi]
  404f03:	ins    DWORD PTR es:[edi],dx
  404f04:	jo     0x404f75
  404f06:	outs   dx,BYTE PTR ds:[esi]
  404f07:	outs   dx,BYTE PTR gs:[esi]
  404f09:	je     0x404f58
  404f0b:	outs   dx,DWORD PTR ds:[esi]
  404f0c:	fs gs ins BYTE PTR es:[edi],dx
  404f0f:	add    BYTE PTR [ebp+eiz*2+0x73],al
  404f13:	arpl   WORD PTR [edx+0x69],si
  404f16:	jo     0x404f8c
  404f18:	imul   ebp,DWORD PTR [edi+0x6e],0x72747441
  404f1f:	imul   esp,DWORD PTR [edx+0x75],0x43006574
  404f26:	popa   
  404f27:	je     0x404f8e
  404f29:	outs   dx,DWORD PTR ds:[si]
  404f2b:	jb     0x404fa6
  404f2d:	inc    ecx
  404f2e:	je     0x404fa4
  404f30:	jb     0x404f9b
  404f32:	bound  esi,QWORD PTR [ebp+0x74]
  404f35:	add    BYTE PTR gs:[ebp+0x73],ch
  404f39:	arpl   WORD PTR [edi+0x72],bp
  404f3c:	ins    BYTE PTR es:[edi],dx
  404f3d:	imul   esp,DWORD PTR [edx+0x0],0x656a624f
  404f44:	arpl   WORD PTR [eax+eax*1+0x53],si
  404f48:	jns    0x404fbd
  404f4a:	je     0x404fb1
  404f4c:	ins    DWORD PTR es:[edi],dx
  404f4d:	cs push edi
  404f4f:	bound  eax,QWORD PTR gs:[eax]
  404f52:	inc    ebx
  404f53:	ins    BYTE PTR es:[edi],dx
  404f54:	imul   esp,DWORD PTR [ebp+0x6e],0x69754274
  404f5b:	ins    BYTE PTR es:[edi],dx
  404f5c:	fs dec ebp
  404f5e:	popa   
  404f5f:	outs   dx,BYTE PTR ds:[esi]
  404f60:	popa   
  404f61:	addr16 gs jb 0x404fa8
  404f65:	popa   
  404f66:	ins    BYTE PTR es:[edi],dx
  404f67:	ins    BYTE PTR es:[edi],dx
  404f68:	bound  esp,QWORD PTR [ecx+0x63]
  404f6b:	imul   eax,DWORD PTR [eax],0x72
  404f6e:	gs jo  0x404fdd
  404f71:	popa   
  404f72:	arpl   WORD PTR [ebp+0x64],sp
  404f75:	add    BYTE PTR [esi],ch
  404f77:	arpl   WORD PTR [edi+ebp*2+0x72],si
  404f7b:	add    BYTE PTR [edi+0x65],ah
  404f7e:	je     0x404fdf
  404f80:	inc    esp
  404f81:	gs jae 0x404fe7
  404f84:	jb     0x404fef
  404f86:	jo     0x404ffc
  404f88:	imul   ebp,DWORD PTR [edi+0x6e],0x73654400
  404f8f:	arpl   WORD PTR [edx+0x69],si
  404f92:	jo     0x405008
  404f94:	imul   ebp,DWORD PTR [edi+0x6e],0x74654700
  404f9b:	dec    esp
  404f9c:	outs   dx,DWORD PTR ds:[esi]
  404f9d:	arpl   WORD PTR [ecx+0x6c],sp
  404fa0:	imul   edi,DWORD PTR [edx+0x65],0x72745364
  404fa7:	imul   ebp,DWORD PTR [esi+0x67],0x65735f00
  404fae:	jo     0x404fe0
  404fb0:	xor    DWORD PTR [edi+0x0],ebx
  404fb3:	push   0x65646165
  404fb8:	jb     0x405019
  404fba:	je     0x405021
  404fbc:	js     0x405032
  404fbe:	add    BYTE PTR [ebx+0x6f],ah
  404fc1:	jo     0x40503c
  404fc3:	jb     0x40502e
  404fc5:	addr16 push 0x68730074
  404fcb:	outs   dx,DWORD PTR ds:[esi]
  404fcc:	jb     0x405042
  404fce:	pop    edi
  404fcf:	jne    0x405044
  404fd1:	popa   
  404fd2:	addr16 gs pop edi
  404fd5:	je     0x40503c
  404fd7:	js     0x40504d
  404fd9:	add    BYTE PTR [ebp+0x73],dh
  404fdc:	popa   
  404fdd:	add    BYTE PTR gs:[bx+di+0x75],dh
  404fe2:	gs jae 0x405059
  404fe5:	imul   ebp,DWORD PTR [edi+0x6e],0x6b72616d
  404fec:	pop    edi
  404fed:	push   0x706c65
  404ff2:	ins    DWORD PTR es:[edi],dx
  404ff3:	pop    edi
  404ff4:	push   0x706c65
  404ff9:	jbe    0x40505a
  404ffb:	push   0x706c65
  405000:	jo     0x405061
  405002:	push   0x706c65
  405007:	jne    0x405068
  405009:	push   0x706c65
  40500e:	pop    di
  405010:	push   0x706c65
  405015:	fs pop edi
  405017:	push   0x706c65
  40501c:	arpl   WORD PTR [edi+0x68],bx
  40501f:	gs ins BYTE PTR es:[edi],dx
  405021:	jo     0x405023
  405023:	outs   dx,BYTE PTR ds:[esi]
  405024:	outs   dx,DWORD PTR ds:[esi]
  405025:	ins    BYTE PTR es:[edi],dx
  405026:	outs   dx,DWORD PTR ds:[esi]
  405027:	outs   dx,DWORD PTR ds:[si]
  405029:	pop    edi
  40502a:	push   0x706c65
  40502f:	gs jb  0x4050a4
  405032:	outs   dx,DWORD PTR ds:[esi]
  405033:	jb     0x4050a8
  405035:	je     0x405098
  405037:	arpl   WORD PTR [ebx+0x5f],bp
  40503a:	push   0x706c65
  40503f:	imul   esp,DWORD PTR [ebp+0x79],0x66
  405043:	imul   ebp,DWORD PTR [ebp+eiz*2+0x5f],0x706c6568
  40504b:	add    BYTE PTR [ebx+0x65],ch
  40504e:	jns    0x4050b3
  405050:	outs   dx,DWORD PTR ds:[esi]
  405051:	outs   dx,BYTE PTR ds:[esi]
  405052:	je     0x4050b5
  405054:	imul   ebp,DWORD PTR [esi+0x65],0x65685f72
  40505b:	ins    BYTE PTR es:[edi],dx
  40505c:	jo     0x40505e
  40505e:	popa   
  40505f:	jo     0x4050d5
  405061:	arpl   WORD PTR [ecx+0x5f],sp
  405064:	push   0x706c65
  405069:	fs gs ins BYTE PTR es:[edi],dx
  40506c:	popa   
  40506d:	jns    0x4050e2
  40506f:	imul   esp,DWORD PTR [edi+0x6e],0x6c65685f
  405076:	jo     0x405078
  405078:	je     0x4050db
  40507a:	jb     0x4050e3
  40507c:	gs je  0x4050c3
  40507f:	imul   esi,DWORD PTR [edx+0x5f],0x706c6568
  405086:	add    BYTE PTR [esi+0x69],ah
  405089:	js     0x4050f0
  40508b:	outs   dx,BYTE PTR fs:[esi]
  40508d:	popa   
  40508e:	ins    DWORD PTR es:[edi],dx
  40508f:	gs jae 0x4050f1
  405092:	push   0x706c65
  405097:	gs js  0x4050fb
  40509a:	ins    DWORD PTR es:[edi],dx
  40509b:	jo     0x405109
  40509d:	gs jae 0x4050a0
  4050a0:	gs js  0x405104
  4050a3:	ins    DWORD PTR es:[edi],dx
  4050a4:	jo     0x405112
  4050a6:	xor    DWORD PTR gs:[eax],eax
  4050a9:	gs js  0x40510d
  4050ac:	ins    DWORD PTR es:[edi],dx
  4050ad:	jo     0x40511b
  4050af:	xor    al,BYTE PTR gs:[eax]
  4050b2:	gs js  0x405116
  4050b5:	ins    DWORD PTR es:[edi],dx
  4050b6:	jo     0x405124
  4050b8:	xor    eax,DWORD PTR gs:[eax]
  4050bb:	ins    DWORD PTR es:[edi],dx
  4050bc:	imul   esi,DWORD PTR [ebx+0x73],0x5f676e69
  4050c3:	popa   
  4050c4:	jb     0x40512d
  4050c6:	add    BYTE PTR [ebp+0x6e],dh
  4050c9:	gs js  0x40513c
  4050cc:	arpl   WORD PTR gs:[ebp+eiz*2+0x64],si
  4050d1:	pop    edi
  4050d2:	jo     0x405135
  4050d4:	jb     0x405137
  4050d6:	ins    DWORD PTR es:[edi],dx
  4050d7:	add    BYTE PTR [ebp+0x6e],dh
  4050da:	imul   ebp,DWORD PTR [esi+0x6f],0x77
  4050de:	outs   dx,BYTE PTR ds:[esi]
  4050df:	pop    edi
  4050e0:	jae    0x405159
  4050e2:	imul   esi,DWORD PTR [ebx+eiz*2+0x68],0x64616200
  4050ea:	pop    edi
  4050eb:	ins    DWORD PTR es:[edi],dx
  4050ec:	fs jo  0x405150
  4050ef:	je     0x405159
  4050f1:	add    BYTE PTR [ebx+0x74],dl
  4050f4:	jb     0x405165
  4050f6:	outs   dx,BYTE PTR ds:[esi]
  4050f7:	outs   dx,BYTE PTR ds:[si]
  4050f9:	popa   
  4050fa:	ins    DWORD PTR es:[edi],dx
  4050fb:	gs pop edi
  4050fd:	popaw  
  4050ff:	imul   ebp,DWORD PTR [ebp+esi*2+0x72],0x6e690065
  405107:	jbe    0x40516a
  405109:	ins    BYTE PTR es:[edi],dx
  40510a:	imul   esp,DWORD PTR [edi+ebx*2+0x70],0x687461
  405112:	imul   ebp,DWORD PTR [esi+0x76],0x64696c61
  405119:	pop    edi
  40511a:	jbe    0x40518c
  40511c:	popa   
  40511d:	je     0x405187
  40511f:	add    BYTE PTR [ecx+ebp*2+0x72],ah
  405123:	pop    edi
  405124:	outs   dx,BYTE PTR ds:[esi]
  405125:	outs   dx,DWORD PTR ds:[esi]
  405126:	je     0x405187
  405128:	gs js  0x405194
  40512b:	jae    0x4051a1
  40512d:	add    BYTE PTR [esi+0x65],ch
  405130:	gs fs pop edi
  405133:	ins    DWORD PTR es:[edi],dx
  405134:	pop    edi
  405135:	outs   dx,DWORD PTR ds:[esi]
  405136:	jb     0x405197
  405138:	jbe    0x40513a
  40513a:	outs   dx,BYTE PTR ds:[esi]
  40513b:	outs   dx,DWORD PTR ds:[esi]
  40513c:	pop    edi
  40513d:	ins    DWORD PTR es:[edi],dx
  40513e:	pop    edi
  40513f:	popa   
  405140:	outs   dx,BYTE PTR ds:[esi]
  405141:	fs pop edi
  405143:	jo     0x405145
  405145:	data16 ins BYTE PTR es:[edi],dx
  405147:	popa   
  405148:	addr16 pop edi
  40514a:	jb     0x4051b1
  40514c:	jno    0x4051c3
  40514e:	imul   esi,DWORD PTR [edx+0x65],0x61745f73
  405155:	jb     0x4051be
  405157:	gs je  0x40515a
  40515a:	imul   ebp,DWORD PTR [esi+0x76],0x64696c61
  405161:	pop    edi
  405162:	imul   esp,DWORD PTR [ebp+0x79],0x66
  405166:	imul   ebp,DWORD PTR [ebp+eiz*2+0x0],0x61766e69
  40516e:	ins    BYTE PTR es:[edi],dx
  40516f:	imul   esp,DWORD PTR [edi+ebx*2+0x64],0x79616c65
  405177:	jae    0x4051e2
  405179:	outs   dx,BYTE PTR ds:[si]
  40517b:	add    BYTE PTR [ecx+0x6e],ch
  40517e:	jbe    0x4051e1
  405180:	ins    BYTE PTR es:[edi],dx
  405181:	imul   esp,DWORD PTR [edi+ebx*2+0x61],0x61637470
  405189:	add    BYTE PTR [edi+ebp*2+0x61],ch
  40518d:	fs gs jb 0x405191
  405191:	push   ebx
  405192:	jns    0x405207
  405194:	je     0x4051fb
  405196:	ins    DWORD PTR es:[edi],dx
  405197:	cs push edx
  405199:	gs jae 0x40520b
  40519c:	jne    0x405210
  40519e:	arpl   WORD PTR [ebp+0x73],sp
  4051a1:	add    BYTE PTR [edx+0x65],dl
  4051a4:	jae    0x405215
  4051a6:	jne    0x40521a
  4051a8:	arpl   WORD PTR [ebp+0x4d],sp
  4051ab:	popa   
  4051ac:	outs   dx,BYTE PTR ds:[esi]
  4051ad:	popa   
  4051ae:	addr16 gs jb 0x4051b2
  4051b2:	jb     0x405219
  4051b4:	jae    0x405225
  4051b6:	jne    0x40522a
  4051b8:	arpl   WORD PTR [ebp+0x73],sp
  4051bb:	add    BYTE PTR [ebx+0x5f],dh
  4051be:	dec    ecx
  4051bf:	outs   dx,BYTE PTR ds:[esi]
  4051c0:	je     0x405227
  4051c2:	jb     0x405232
  4051c4:	popa   
  4051c5:	ins    BYTE PTR es:[edi],dx
  4051c6:	push   ebx
  4051c7:	jns    0x405237
  4051c9:	arpl   WORD PTR [edi+0x62],cx
  4051cc:	push   0x65
  4051ce:	arpl   WORD PTR [eax+eax*1+0x67],si
  4051d2:	gs je  0x405234
  4051d5:	dec    ecx
  4051d6:	outs   dx,BYTE PTR ds:[esi]
  4051d7:	je     0x40523e
  4051d9:	jb     0x405249
  4051db:	popa   
  4051dc:	ins    BYTE PTR es:[edi],dx
  4051dd:	push   ebx
  4051de:	jns    0x40524e
  4051e0:	arpl   WORD PTR [edi+0x62],cx
  4051e3:	push   0x65
  4051e5:	arpl   WORD PTR [eax+eax*1+0x47],si
  4051e9:	gs je  0x405238
  4051ec:	outs   dx,DWORD PTR ds:[esi]
  4051ed:	popa   
  4051ee:	fs gs jb 0x4051f2
  4051f2:	push   ebx
  4051f3:	jns    0x405268
  4051f5:	je     0x40525c
  4051f7:	ins    DWORD PTR es:[edi],dx
  4051f8:	cs inc edi
  4051fa:	ins    BYTE PTR es:[edi],dx
  4051fb:	outs   dx,DWORD PTR ds:[esi]
  4051fc:	bound  esp,QWORD PTR [ecx+0x6c]
  4051ff:	imul   edi,DWORD PTR [edx+0x61],0x6e6f6974
  405206:	add    BYTE PTR [ebx+0x75],al
  405209:	ins    BYTE PTR es:[edi],dx
  40520a:	je     0x405281
  40520c:	jb     0x405273
  40520e:	dec    ecx
  40520f:	outs   dx,BYTE PTR ds:[esi]
  405210:	outs   dx,WORD PTR ds:[esi]
  405212:	add    BYTE PTR [edi+0x65],ah
  405215:	je     0x405276
  405217:	inc    ebx
  405218:	jne    0x405286
  40521a:	je     0x405291
  40521c:	jb     0x405283
  40521e:	add    BYTE PTR [edi+0x65],ah
  405221:	je     0x405282
  405223:	push   edx
  405224:	gs jae 0x405296
  405227:	jne    0x40529b
  405229:	arpl   WORD PTR [ebp+0x73],sp
  40522c:	add    BYTE PTR [edi+0x65],al
  40522f:	je     0x405284
  405231:	je     0x4052a5
  405233:	imul   ebp,DWORD PTR [esi+0x67],0x74654700
  40523a:	dec    edi
  40523b:	bound  ebp,QWORD PTR [edx+0x65]
  40523e:	arpl   WORD PTR [eax+eax*1+0x49],si
  405242:	outs   dx,BYTE PTR ds:[esi]
  405243:	je     0x4052aa
  405245:	jb     0x4052b5
  405247:	popa   
  405248:	ins    BYTE PTR es:[edi],dx
  405249:	push   ebx
  40524a:	jns    0x4052ba
  40524c:	arpl   WORD PTR [edi+0x62],cx
  40524f:	push   0x65
  405251:	arpl   WORD PTR [eax+eax*1+0x43],si
  405255:	jne    0x4052c3
  405257:	je     0x4052ce
  405259:	jb     0x4052c0
  40525b:	add    BYTE PTR [edx+0x65],dl
  40525e:	jae    0x4052cf
  405260:	jne    0x4052d4
  405262:	arpl   WORD PTR [ebp+0x73],sp
  405265:	add    BYTE PTR [ebp+eiz*2+0x66],ch
  405269:	je     0x4052b8
  40526b:	popa   
  40526c:	jb     0x4052d5
  40526e:	imul   ebp,DWORD PTR [esi+0x0],0x65696c43
  405275:	outs   dx,BYTE PTR ds:[esi]
  405276:	je     0x4052ba
  405278:	jne    0x4052e3
  40527a:	ins    BYTE PTR es:[edi],dx
  40527b:	fs dec ebp
  40527d:	popa   
  40527e:	outs   dx,BYTE PTR ds:[esi]
  40527f:	popa   
  405280:	addr16 gs jb 0x405284
  405284:	pop    edi
  405285:	arpl   WORD PTR [ecx+ebp*2+0x65],bp
  405289:	outs   dx,BYTE PTR ds:[esi]
  40528a:	je     0x40528c
  40528c:	pop    edi
  40528d:	jae    0x4052fe
  40528f:	jne    0x405303
  405291:	arpl   WORD PTR [ebp+0x50],sp
  405294:	push   0x63697379
  405299:	popa   
  40529a:	ins    BYTE PTR es:[edi],dx
  40529b:	inc    esp
  40529c:	imul   esi,DWORD PTR [edx+0x0],0x74656d5f
  4052a3:	popa   
  4052a4:	bound  esp,QWORD PTR [ecx+0x73]
  4052a7:	gs push eax
  4052a9:	popa   
  4052aa:	je     0x405314
  4052ac:	add    BYTE PTR [edi+0x73],bl
  4052af:	outs   dx,DWORD PTR ds:[esi]
  4052b0:	jne    0x405324
  4052b2:	arpl   WORD PTR [ebp+0x56],sp
  4052b5:	imul   esi,DWORD PTR [edx+0x74],0x446c6175
  4052bc:	imul   esi,DWORD PTR [edx+0x0],0x7261745f
  4052c3:	addr16 gs je 0x405317
  4052c7:	push   0x63697379
  4052cc:	popa   
  4052cd:	ins    BYTE PTR es:[edi],dx
  4052ce:	inc    esp
  4052cf:	imul   esi,DWORD PTR [edx+0x0],0x79656b5f
  4052d6:	inc    esi
  4052d7:	imul   ebp,DWORD PTR [ebp+eiz*2+0x0],0x79656b5f
  4052df:	inc    ebx
  4052e0:	outs   dx,DWORD PTR ds:[esi]
  4052e1:	outs   dx,BYTE PTR ds:[esi]
  4052e2:	je     0x405345
  4052e4:	imul   ebp,DWORD PTR [esi+0x65],0x72500072
  4052eb:	arpl   WORD PTR gs:[edi+0x6d],bp
  4052ef:	jo     0x40535a
  4052f1:	ins    BYTE PTR es:[edi],dx
  4052f2:	popa   
  4052f3:	je     0x40535e
  4052f5:	outs   dx,DWORD PTR ds:[esi]
  4052f6:	outs   dx,BYTE PTR ds:[esi]
  4052f7:	inc    esi
  4052f8:	ins    BYTE PTR es:[edi],dx
  4052f9:	popa   
  4052fa:	addr16 jae 0x4052fd
  4052fd:	pop    edi
  4052fe:	jo     0x405372
  405300:	arpl   WORD PTR gs:[edi+0x6d],bp
  405304:	jo     0x40536f
  405306:	ins    BYTE PTR es:[edi],dx
  405307:	popa   
  405308:	je     0x405373
  40530a:	outs   dx,DWORD PTR ds:[esi]
  40530b:	outs   dx,BYTE PTR ds:[esi]
  40530c:	inc    esi
  40530d:	ins    BYTE PTR es:[edi],dx
  40530e:	popa   
  40530f:	addr16 jae 0x405312
  405312:	pop    edi
  405313:	jae    0x40537d
  405315:	outs   dx,DWORD PTR ds:[esi]
  405316:	ja     0x40535d
  405318:	jb     0x40538c
  40531a:	outs   dx,DWORD PTR ds:[esi]
  40531b:	jb     0x405370
  40531d:	je     0x405380
  40531f:	arpl   WORD PTR [ebx+0x0],bp
  405322:	ins    DWORD PTR es:[edi],dx
  405323:	popa   
  405324:	js     0x405372
  405326:	imul   ebp,DWORD PTR [esi+0x65],0x676e654c
  40532d:	je     0x405397
  40532f:	add    BYTE PTR [ebp+0x61],cl
  405332:	imul   ebp,DWORD PTR [esi+0x0],0x54746553
  405339:	push   0x64616572
  40533e:	push   ebp
  40533f:	dec    ecx
  405340:	inc    ebx
  405341:	jne    0x4053af
  405343:	je     0x4053ba
  405345:	jb     0x4053ac
  405347:	add    BYTE PTR [ecx+ebp*2+0x73],al
  40534b:	jo     0x4053b9
  40534d:	popa   
  40534e:	jns    0x4053a5
  405350:	jae    0x4053b3
  405352:	add    BYTE PTR gs:[si+0x69],al
  405357:	jae    0x4053c9
  405359:	ins    BYTE PTR es:[edi],dx
  40535a:	popa   
  40535b:	jns    0x4053b0
  40535d:	ja     0x4053c8
  40535f:	je     0x4053c4
  405361:	push   0x68746957
  405366:	dec    eax
  405367:	gs ins BYTE PTR es:[edi],dx
  405369:	jo     0x40536b
  40536b:	inc    esp
  40536c:	imul   esi,DWORD PTR [ebx+0x70],0x5779616c
  405373:	outs   dx,DWORD PTR ds:[esi]
  405374:	jb     0x4053da
  405376:	push   edi
  405377:	jb     0x4053da
  405379:	jo     0x4053eb
  40537b:	gs fs push ebx
  40537e:	je     0x4053f2
  405380:	imul   ebp,DWORD PTR [esi+0x67],0x74654700
  405387:	dec    esi
  405388:	gs js  0x4053ff
  40538b:	inc    ecx
  40538c:	jb     0x4053f5
  40538e:	jne    0x4053fd
  405390:	outs   dx,BYTE PTR gs:[esi]
  405392:	je     0x405394
  405394:	push   esi
  405395:	popa   
  405396:	ins    BYTE PTR es:[edi],dx
  405397:	imul   esp,DWORD PTR [ecx+eiz*2+0x74],0x67724165
  40539f:	jae    0x4053a1
  4053a1:	imul   ebp,DWORD PTR [esi+0x76],0x64696c61
  4053a8:	push   esi
  4053a9:	imul   esi,DWORD PTR [edx+0x74],0x506c6175
  4053b0:	popa   
  4053b1:	je     0x40541b
  4053b3:	inc    ebx
  4053b4:	push   0x737261
  4053b9:	dec    ecx
  4053ba:	jae    0x405412
  4053bc:	popa   
  4053bd:	ins    BYTE PTR es:[edi],dx
  4053be:	imul   esp,DWORD PTR [esi+edx*2+0x69],0x61757472
  4053c6:	ins    BYTE PTR es:[edi],dx
  4053c7:	push   eax
  4053c8:	popa   
  4053c9:	je     0x405433
  4053cb:	add    BYTE PTR [edi+0x65],al
  4053ce:	je     0x405416
  4053d0:	jne    0x40543e
  4053d2:	ins    BYTE PTR es:[edi],dx
  4053d3:	push   eax
  4053d4:	popa   
  4053d5:	je     0x40543f
  4053d7:	add    BYTE PTR [ebp+0x78],al
  4053da:	arpl   WORD PTR [ebp+0x70],sp
  4053dd:	je     0x405448
  4053df:	outs   dx,DWORD PTR ds:[esi]
  4053e0:	outs   dx,BYTE PTR ds:[esi]
  4053e1:	add    BYTE PTR [ebp+esi*2+0x6d],al
  4053e5:	jo     0x40542c
  4053e7:	jb     0x40545b
  4053e9:	outs   dx,DWORD PTR ds:[esi]
  4053ea:	jb     0x40545f
  4053ec:	add    BYTE PTR [edi+0x65],al
  4053ef:	je     0x405437
  4053f1:	outs   dx,DWORD PTR ds:[esi]
  4053f2:	jb     0x405461
  4053f4:	popa   
  4053f5:	je     0x40546b
  4053f7:	popa   
  4053f8:	bound  ebp,QWORD PTR [ebp+eiz*2+0x45]
  4053fc:	js     0x405461
  4053fe:	gs jo  0x405475
  405401:	imul   ebp,DWORD PTR [edi+0x6e],0x73795300
  405408:	je     0x40546f
  40540a:	ins    DWORD PTR es:[edi],dx
  40540b:	cs inc ebx
  40540d:	outs   dx,DWORD PTR ds:[esi]
  40540e:	fs gs inc esp
  405411:	outs   dx,DWORD PTR ds:[esi]
  405412:	ins    DWORD PTR es:[edi],dx
  405413:	cs inc ebx
  405415:	outs   dx,DWORD PTR ds:[esi]
  405416:	ins    DWORD PTR es:[edi],dx
  405417:	jo     0x405482
  405419:	ins    BYTE PTR es:[edi],dx
  40541a:	gs jb  0x40541d
  40541d:	inc    ebx
  40541e:	outs   dx,DWORD PTR ds:[esi]
  40541f:	ins    DWORD PTR es:[edi],dx
  405420:	jo     0x40548b
  405422:	ins    BYTE PTR es:[edi],dx
  405423:	gs jb  0x40546b
  405426:	jb     0x40549a
  405428:	outs   dx,DWORD PTR ds:[esi]
  405429:	jb     0x40542b
  40542b:	inc    esp
  40542c:	jne    0x40549b
  40542e:	jo     0x405473
  405430:	outs   dx,DWORD PTR ds:[esi]
  405431:	ins    DWORD PTR es:[edi],dx
  405432:	jo     0x40549d
  405434:	ins    BYTE PTR es:[edi],dx
  405435:	gs inc ebp
  405437:	jb     0x4054ab
  405439:	outs   dx,DWORD PTR ds:[esi]
  40543a:	jb     0x40543c
  40543c:	inc    esp
  40543d:	jne    0x4054ac
  40543f:	jo     0x405486
  405441:	js     0x4054a6
  405443:	gs jo  0x4054ba
  405446:	imul   ebp,DWORD PTR [edi+0x6e],0x63617453
  40544d:	imul   eax,DWORD PTR [eax],0x44
  405450:	jne    0x4054bf
  405452:	jo     0x405499
  405454:	jb     0x4054c8
  405456:	outs   dx,DWORD PTR ds:[esi]
  405457:	jb     0x405459
  405459:	dec    ecx
  40545a:	jae    0x4054b3
  40545c:	gs ins BYTE PTR es:[edi],dx
  40545e:	ins    BYTE PTR es:[edi],dx
  40545f:	inc    esi
  405460:	outs   dx,DWORD PTR ds:[esi]
  405461:	jb     0x4054d0
  405463:	gs fs dec ebp
  405466:	gs je  0x4054ca
  405469:	bound  esp,QWORD PTR [ecx+0x73]
  40546c:	gs push eax
  40546e:	popa   
  40546f:	je     0x4054d9
  405471:	add    BYTE PTR [ebx+0x74],dl
  405474:	jb     0x4054df
  405476:	outs   dx,BYTE PTR ds:[esi]
  405477:	addr16 push ebx
  405479:	je     0x4054dc
  40547b:	jb     0x4054f1
  40547d:	jae    0x4054d6
  40547f:	imul   esi,DWORD PTR [eax+ebp*2+0x49],0x726f6e67
  405487:	gs inc ebx
  405489:	popa   
  40548a:	jae    0x4054f1
  40548c:	add    BYTE PTR [edi+0x72],bl
  40548f:	gs jae 0x405501
  405492:	jne    0x405506
  405494:	arpl   WORD PTR [ebp+0x4d],sp
  405497:	popa   
  405498:	outs   dx,BYTE PTR ds:[esi]
  405499:	popa   
  40549a:	addr16 gs jb 0x40549e
  40549e:	inc    edi
  40549f:	gs je  0x4054f4
  4054a2:	gs jae 0x405514
  4054a5:	jne    0x405519
  4054a7:	arpl   WORD PTR [ebp+0x53],sp
  4054aa:	je     0x40551e
  4054ac:	imul   ebp,DWORD PTR [esi+0x67],0x6d6f7246
  4054b3:	push   edx
  4054b4:	gs jae 0x405526
  4054b7:	jne    0x40552b
  4054b9:	arpl   WORD PTR [ebp+0x4d],sp
  4054bc:	popa   
  4054bd:	outs   dx,BYTE PTR ds:[esi]
  4054be:	popa   
  4054bf:	addr16 gs jb 0x4054c3
  4054c3:	inc    edi
  4054c4:	gs je  0x405519
  4054c7:	gs jae 0x405539
  4054ca:	jne    0x40553e
  4054cc:	arpl   WORD PTR [ebp+0x53],sp
  4054cf:	je     0x405543
  4054d1:	imul   ebp,DWORD PTR [esi+0x67],0x726f4600
  4054d8:	ins    DWORD PTR es:[edi],dx
  4054d9:	popa   
  4054da:	je     0x40552e
  4054dc:	gs jae 0x40554e
  4054df:	jne    0x405553
  4054e1:	arpl   WORD PTR [ebp+0x53],sp
  4054e4:	je     0x405558
  4054e6:	imul   ebp,DWORD PTR [esi+0x67],0x70655200
  4054ed:	outs   dx,DWORD PTR ds:[esi]
  4054ee:	jb     0x405564
  4054f0:	inc    ebx
  4054f1:	outs   dx,DWORD PTR ds:[esi]
  4054f2:	ins    DWORD PTR es:[edi],dx
  4054f3:	jo     0x40555e
  4054f5:	ins    BYTE PTR es:[edi],dx
  4054f6:	gs jb  0x40553e
  4054f9:	jb     0x40556d
  4054fb:	outs   dx,DWORD PTR ds:[esi]
  4054fc:	jb     0x4054fe
  4054fe:	push   eax
  4054ff:	popa   
  405500:	jb     0x405575
  405502:	gs jb  0x40554a
  405505:	jb     0x405579
  405507:	outs   dx,DWORD PTR ds:[esi]
  405508:	jb     0x40550a
  40550a:	push   edx
  40550b:	gs jo  0x40557d
  40550e:	jb     0x405584
  405510:	push   eax
  405511:	popa   
  405512:	jb     0x405587
  405514:	gs inc ebp
  405516:	jb     0x40558a
  405518:	outs   dx,DWORD PTR ds:[esi]
  405519:	jb     0x40551b
  40551b:	push   edx
  40551c:	gs jo  0x40558e
  40551f:	jb     0x405595
  405521:	push   eax
  405522:	jb     0x405593
  405524:	addr16 jb 0x40558c
  405527:	jae    0x40559c
  405529:	add    BYTE PTR [ecx+0x6e],cl
  40552c:	imul   esi,DWORD PTR [ecx+ebp*2+0x61],0x657a696c
  405534:	dec    esp
  405535:	imul   esp,DWORD PTR [esi+0x65],0x656d6974
  40553c:	push   ebx
  40553d:	gs jb  0x4055b6
  405540:	imul   esp,DWORD PTR [ebx+0x65],0x73795300
  405547:	je     0x4055ae
  405549:	ins    DWORD PTR es:[edi],dx
  40554a:	cs push edx
  40554c:	jne    0x4055bc
  40554e:	je     0x4055b9
  405550:	ins    DWORD PTR es:[edi],dx
  405551:	gs cs inc ebx
  405554:	outs   dx,DWORD PTR ds:[esi]
  405555:	ins    DWORD PTR es:[edi],dx
  405556:	jo     0x4055c1
  405558:	ins    BYTE PTR es:[edi],dx
  405559:	gs jb  0x4055af
  40555c:	gs jb  0x4055d5
  40555f:	imul   esp,DWORD PTR [ebx+0x65],0x75520073
  405566:	outs   dx,BYTE PTR ds:[esi]
  405567:	je     0x4055d2
  405569:	ins    DWORD PTR es:[edi],dx
  40556a:	gs inc ebx
  40556c:	outs   dx,DWORD PTR ds:[esi]
  40556d:	ins    DWORD PTR es:[edi],dx
  40556e:	jo     0x4055d1
  405570:	je     0x4055db
  405572:	bound  ebp,QWORD PTR [ecx+0x6c]
  405575:	imul   esi,DWORD PTR [ecx+edi*2+0x41],0x69727474
  40557d:	bound  esi,QWORD PTR [ebp+0x74]
  405580:	add    BYTE PTR gs:[ebx+0x79],dl
  405584:	jae    0x4055fa
  405586:	gs ins DWORD PTR es:[edi],dx
  405588:	cs push edx
  40558a:	gs data16 ins BYTE PTR es:[edi],dx
  40558d:	arpl   WORD PTR gs:[ecx+ebp*2+0x6f],si
  405592:	outs   dx,BYTE PTR ds:[esi]
  405593:	add    BYTE PTR [ecx+0x73],al
  405596:	jae    0x4055fd
  405598:	ins    DWORD PTR es:[edi],dx
  405599:	bound  ebp,QWORD PTR [ecx+edi*2+0x4b]
  40559d:	gs jns 0x4055e6
  4055a0:	imul   ebp,DWORD PTR [ebp+eiz*2+0x41],0x69727474
  4055a8:	bound  esi,QWORD PTR [ebp+0x74]
  4055ab:	add    BYTE PTR gs:[ecx+0x73],al
  4055af:	jae    0x405616
  4055b1:	ins    DWORD PTR es:[edi],dx
  4055b2:	bound  ebp,QWORD PTR [ecx+edi*2+0x44]
  4055b6:	gs ins BYTE PTR es:[edi],dx
  4055b8:	popa   
  4055b9:	jns    0x40560e
  4055bb:	imul   esp,DWORD PTR [edi+0x6e],0x72747441
  4055c2:	imul   esp,DWORD PTR [edx+0x75],0x4e006574
  4055c9:	gs jne 0x405640
  4055cc:	jb     0x40562f
  4055ce:	ins    BYTE PTR es:[edi],dx
  4055cf:	push   edx
  4055d0:	gs jae 0x405642
  4055d3:	jne    0x405647
  4055d5:	arpl   WORD PTR [ebp+0x73],sp
  4055d8:	dec    esp
  4055d9:	popa   
  4055da:	outs   dx,BYTE PTR ds:[esi]
  4055db:	addr16 jne 0x40563f
  4055de:	addr16 gs inc ecx
  4055e1:	je     0x405657
  4055e3:	jb     0x40564e
  4055e5:	bound  esi,QWORD PTR [ebp+0x74]
  4055e8:	add    BYTE PTR gs:[ebx+0x61],dl
  4055ec:	je     0x405653
  4055ee:	ins    BYTE PTR es:[edi],dx
  4055ef:	ins    BYTE PTR es:[edi],dx
  4055f0:	imul   esi,DWORD PTR [ebp+eiz*2+0x43],0x72746e6f
  4055f8:	popa   
  4055f9:	arpl   WORD PTR [esi+edx*2+0x65],si
  4055fd:	jb     0x405672
  4055ff:	imul   ebp,DWORD PTR [edi+0x6e],0x72747441
  405606:	imul   esp,DWORD PTR [edx+0x75],0x41006574
  40560d:	jae    0x405682
  40560f:	gs ins DWORD PTR es:[edi],dx
  405611:	bound  ebp,QWORD PTR [ecx+edi*2+0x49]
  405615:	outs   dx,BYTE PTR ds:[esi]
  405616:	outs   dx,WORD PTR ds:[esi]
  405618:	jb     0x405687
  40561a:	popa   
  40561b:	je     0x405686
  40561d:	outs   dx,DWORD PTR ds:[esi]
  40561e:	outs   dx,BYTE PTR ds:[esi]
  40561f:	popa   
  405620:	ins    BYTE PTR es:[edi],dx
  405621:	push   esi
  405622:	gs jb  0x405698
  405625:	imul   ebp,DWORD PTR [edi+0x6e],0x72747441
  40562c:	imul   esp,DWORD PTR [edx+0x75],0x41006574
  405633:	jae    0x4056a8
  405635:	gs ins DWORD PTR es:[edi],dx
  405637:	bound  ebp,QWORD PTR [ecx+edi*2+0x46]
  40563b:	imul   ebp,DWORD PTR [ebp+eiz*2+0x56],0x69737265
  405643:	outs   dx,DWORD PTR ds:[esi]
  405644:	outs   dx,BYTE PTR ds:[esi]
  405645:	inc    ecx
  405646:	je     0x4056bc
  405648:	jb     0x4056b3
  40564a:	bound  esi,QWORD PTR [ebp+0x74]
  40564d:	add    BYTE PTR gs:[ecx+0x73],al
  405651:	jae    0x4056b8
  405653:	ins    DWORD PTR es:[edi],dx
  405654:	bound  ebp,QWORD PTR [ecx+edi*2+0x56]
  405658:	gs jb  0x4056ce
  40565b:	imul   ebp,DWORD PTR [edi+0x6e],0x72747441
  405662:	imul   esp,DWORD PTR [edx+0x75],0x41006574
  405669:	jae    0x4056de
  40566b:	gs ins DWORD PTR es:[edi],dx
  40566d:	bound  ebp,QWORD PTR [ecx+edi*2+0x43]
  405671:	outs   dx,DWORD PTR ds:[esi]
  405672:	jo     0x4056ed
  405674:	jb     0x4056df
  405676:	addr16 push 0x74744174
  40567c:	jb     0x4056e7
  40567e:	bound  esi,QWORD PTR [ebp+0x74]
  405681:	add    BYTE PTR gs:[ecx+0x73],al
  405685:	jae    0x4056ec
  405687:	ins    DWORD PTR es:[edi],dx
  405688:	bound  ebp,QWORD PTR [ecx+edi*2+0x50]
  40568c:	jb     0x4056fd
  40568e:	fs jne 0x4056f4
  405691:	je     0x4056d4
  405693:	je     0x405709
  405695:	jb     0x405700
  405697:	bound  esi,QWORD PTR [ebp+0x74]
  40569a:	add    BYTE PTR gs:[ecx+0x73],al
  40569e:	jae    0x405705
  4056a0:	ins    DWORD PTR es:[edi],dx
  4056a1:	bound  ebp,QWORD PTR [ecx+edi*2+0x43]
  4056a5:	outs   dx,DWORD PTR ds:[esi]
  4056a6:	ins    DWORD PTR es:[edi],dx
  4056a7:	jo     0x40570a
  4056a9:	outs   dx,BYTE PTR ds:[esi]
  4056aa:	jns    0x4056ed
  4056ac:	je     0x405722
  4056ae:	jb     0x405719
  4056b0:	bound  esi,QWORD PTR [ebp+0x74]
  4056b3:	add    BYTE PTR gs:[ecx+0x73],al
  4056b7:	jae    0x40571e
  4056b9:	ins    DWORD PTR es:[edi],dx
  4056ba:	bound  ebp,QWORD PTR [ecx+edi*2+0x44]
  4056be:	gs popaw 
  4056c1:	jne    0x40572f
  4056c3:	je     0x405706
  4056c5:	ins    BYTE PTR es:[edi],dx
  4056c6:	imul   esp,DWORD PTR [ecx+0x73],0x72747441
  4056cd:	imul   esp,DWORD PTR [edx+0x75],0x41006574
  4056d4:	jae    0x405749
  4056d6:	gs ins DWORD PTR es:[edi],dx
  4056d8:	bound  ebp,QWORD PTR [ecx+edi*2+0x44]
  4056dc:	gs jae 0x405742
  4056df:	jb     0x40574a
  4056e1:	jo     0x405757
  4056e3:	imul   ebp,DWORD PTR [edi+0x6e],0x72747441
  4056ea:	imul   esp,DWORD PTR [edx+0x75],0x41006574
  4056f1:	jae    0x405766
  4056f3:	gs ins DWORD PTR es:[edi],dx
  4056f5:	bound  ebp,QWORD PTR [ecx+edi*2+0x54]
  4056f9:	imul   esi,DWORD PTR [esp+ebp*2+0x65],0x72747441
  405701:	imul   esp,DWORD PTR [edx+0x75],0x43006574
  405708:	dec    esp
  405709:	push   ebx
  40570a:	inc    ebx
  40570b:	outs   dx,DWORD PTR ds:[esi]
  40570c:	ins    DWORD PTR es:[edi],dx
  40570d:	jo     0x40577b
  40570f:	imul   esp,DWORD PTR [ecx+0x6e],0x74744174
  405716:	jb     0x405781
  405718:	bound  esi,QWORD PTR [ebp+0x74]
  40571b:	add    BYTE PTR gs:[ebx+0x79],dl
  40571f:	jae    0x405795
  405721:	gs ins DWORD PTR es:[edi],dx
  405723:	cs push edx
  405725:	jne    0x405795
  405727:	je     0x405792
  405729:	ins    DWORD PTR es:[edi],dx
  40572a:	gs cs dec ecx
  40572d:	outs   dx,BYTE PTR ds:[esi]
  40572e:	je     0x405795
  405730:	jb     0x4057a1
  405732:	jo     0x405787
  405734:	gs jb  0x4057ad
  405737:	imul   esp,DWORD PTR [ebx+0x65],0x6f430073
  40573e:	ins    DWORD PTR es:[edi],dx
  40573f:	push   esi
  405740:	imul   esi,DWORD PTR [ebx+0x69],0x41656c62
  405747:	je     0x4057bd
  405749:	jb     0x4057b4
  40574b:	bound  esi,QWORD PTR [ebp+0x74]
  40574e:	add    BYTE PTR gs:[ebx+0x79],dl
  405752:	jae    0x4057c8
  405754:	gs ins DWORD PTR es:[edi],dx
  405756:	cs inc esp
  405758:	imul   esp,DWORD PTR [ecx+0x67],0x74736f6e
  40575f:	imul   esp,DWORD PTR [ebx+0x73],0x62654400
  405766:	jne    0x4057cf
  405768:	addr16 popa 
  40576a:	bound  ebp,QWORD PTR [ebp+eiz*2+0x41]
  40576e:	je     0x4057e4
  405770:	jb     0x4057db
  405772:	bound  esi,QWORD PTR [ebp+0x74]
  405775:	add    BYTE PTR gs:[ebp+eiz*2+0x62],al
  40577a:	jne    0x4057e3
  40577c:	imul   ebp,DWORD PTR [bp+0x67],0x65646f4d
  405784:	jae    0x405786
  405786:	inc    ebx
  405787:	outs   dx,DWORD PTR ds:[esi]
  405788:	ins    DWORD PTR es:[edi],dx
  405789:	jo     0x4057f4
  40578b:	ins    BYTE PTR es:[edi],dx
  40578c:	popa   
  40578d:	je     0x4057f8
  40578f:	outs   dx,DWORD PTR ds:[esi]
  405790:	outs   dx,BYTE PTR ds:[esi]
  405791:	push   edx
  405792:	gs ins BYTE PTR es:[edi],dx
  405794:	popa   
  405795:	js     0x4057f8
  405797:	je     0x405802
  405799:	outs   dx,DWORD PTR ds:[esi]
  40579a:	outs   dx,BYTE PTR ds:[esi]
  40579b:	jae    0x4057de
  40579d:	je     0x405813
  40579f:	jb     0x40580a
  4057a1:	bound  esi,QWORD PTR [ebp+0x74]
  4057a4:	add    BYTE PTR gs:[ecx+0x73],ah
  4057a8:	jo     0x405818
  4057aa:	gs je  0x40580c
  4057ad:	arpl   WORD PTR [edi+0x6d],bp
  4057b0:	jo     0x40581b
  4057b2:	ins    BYTE PTR es:[edi],dx
  4057b3:	gs jb  0x4057b6
  4057b6:	inc    ecx
  4057b7:	je     0x40582d
  4057b9:	jb     0x405824
  4057bb:	bound  esi,QWORD PTR [ebp+0x74]
  4057be:	gs push ebp
  4057c0:	jae    0x405823
  4057c2:	addr16 gs inc ecx
  4057c5:	je     0x40583b
  4057c7:	jb     0x405832
  4057c9:	bound  esi,QWORD PTR [ebp+0x74]
  4057cc:	add    BYTE PTR gs:[ecx+0x74],al
  4057d0:	je     0x405844
  4057d2:	imul   esp,DWORD PTR [edx+0x75],0x61546574
  4057d9:	jb     0x405842
  4057db:	gs je  0x405851
  4057de:	add    BYTE PTR [ebp+eiz*2+0x73],ah
  4057e2:	arpl   WORD PTR [edx+0x69],si
  4057e5:	jo     0x40585b
  4057e7:	imul   ebp,DWORD PTR [edi+0x6e],0x74657300
  4057ee:	pop    edi
  4057ef:	inc    esp
  4057f0:	gs jae 0x405856
  4057f3:	jb     0x40585e
  4057f5:	jo     0x40586b
  4057f7:	imul   ebp,DWORD PTR [edi+0x6e],0x756c6156
  4057fe:	add    BYTE PTR gs:[ebx+0x61],ah
  405802:	je     0x405869
  405804:	outs   dx,DWORD PTR ds:[si]
  405806:	jb     0x405881
  405808:	add    BYTE PTR [esi+0x61],dh
  40580b:	ins    BYTE PTR es:[edi],dx
  40580c:	jne    0x405873
  40580e:	add    BYTE PTR [ebx+0x79],dl
  405811:	jae    0x405887
  405813:	gs ins DWORD PTR es:[edi],dx
  405815:	cs push esp
  405817:	push   0x64616572
  40581c:	imul   ebp,DWORD PTR [esi+0x67],0x746e4900
  405823:	gs jb  0x405892
  405826:	outs   dx,DWORD PTR ds:[esi]
  405827:	arpl   WORD PTR [ebx+0x65],bp
  40582a:	add    BYTE PTR fs:[ebx+0x6f],al
  40582e:	ins    DWORD PTR es:[edi],dx
  40582f:	jo     0x405892
  405831:	jb     0x405898
  405833:	inc    ebp
  405834:	js     0x405899
  405836:	push   0x65676e61
  40583b:	add    BYTE PTR [ecx+edi*2+0x70],dl
  40583f:	add    BYTE PTR gs:[edi+0x65],al
  405843:	je     0x405899
  405845:	jns    0x4058b7
  405847:	add    BYTE PTR gs:[ecx+0x73],al
  40584b:	jae    0x4058b2
  40584d:	ins    DWORD PTR es:[edi],dx
  40584e:	bound  ebp,QWORD PTR [ecx+edi*2+0x0]
  405852:	addr16 gs je 0x4058b5
  405856:	inc    ecx
  405857:	jae    0x4058cc
  405859:	gs ins DWORD PTR es:[edi],dx
  40585b:	bound  ebp,QWORD PTR [ecx+edi*2+0x0]
  40585f:	dec    ebp
  405860:	outs   dx,DWORD PTR ds:[esi]
  405861:	outs   dx,BYTE PTR ds:[esi]
  405862:	imul   esi,DWORD PTR [edi+ebp*2+0x72],0x746e4500
  40586a:	gs jb  0x40586d
  40586d:	inc    ebp
  40586e:	js     0x4058d9
  405870:	je     0x405872
  405872:	outs   dx,BYTE PTR ds:[esi]
  405873:	popa   
  405874:	ins    DWORD PTR es:[edi],dx
  405875:	add    BYTE PTR gs:[ecx+0x72],ah
  405879:	addr16 jae 0x40587c
  40587c:	push   eax
  40587d:	popa   
  40587e:	jb     0x4058e1
  405880:	ins    DWORD PTR es:[edi],dx
  405881:	inc    ecx
  405882:	jb     0x4058f6
  405884:	popa   
  405885:	jns    0x4058c8
  405887:	je     0x4058fd
  405889:	jb     0x4058f4
  40588b:	bound  esi,QWORD PTR [ebp+0x74]
  40588e:	add    BYTE PTR gs:[ebx+0x74],dl
  405892:	jb     0x4058fd
  405894:	outs   dx,BYTE PTR ds:[esi]
  405895:	add    BYTE PTR [bx+0x65],ah
  405899:	je     0x4058fa
  40589b:	dec    esp
  40589c:	outs   dx,BYTE PTR gs:[esi]
  40589e:	addr16 je 0x405909
  4058a1:	add    BYTE PTR [ebx+0x75],dl
  4058a4:	bound  esi,QWORD PTR [ebx+0x74]
  4058a7:	jb     0x405912
  4058a9:	outs   dx,BYTE PTR ds:[esi]
  4058aa:	add    BYTE PTR [bp+di+0x6f],al
  4058ae:	outs   dx,BYTE PTR ds:[esi]
  4058af:	arpl   WORD PTR [ecx+0x74],sp
  4058b2:	add    BYTE PTR [edi+0x65],ah
  4058b5:	je     0x405916
  4058b7:	inc    ebx
  4058b8:	jne    0x40592c
  4058ba:	jb     0x405921
  4058bc:	outs   dx,BYTE PTR ds:[esi]
  4058bd:	je     0x405902
  4058bf:	jne    0x40592d
  4058c1:	je     0x405938
  4058c3:	jb     0x40592a
  4058c5:	add    BYTE PTR [ecx+0x46],cl
  4058c8:	outs   dx,DWORD PTR ds:[esi]
  4058c9:	jb     0x405938
  4058cb:	popa   
  4058cc:	je     0x40591e
  4058ce:	jb     0x40593f
  4058d0:	jbe    0x40593b
  4058d2:	fs gs jb 0x4058d6
  4058d6:	inc    esi
  4058d7:	outs   dx,DWORD PTR ds:[esi]
  4058d8:	jb     0x405947
  4058da:	popa   
  4058db:	je     0x4058dd
  4058dd:	inc    ebx
  4058de:	outs   dx,DWORD PTR ds:[esi]
  4058df:	outs   dx,BYTE PTR ds:[esi]
  4058e0:	jae    0x405951
  4058e2:	ins    BYTE PTR es:[edi],dx
  4058e3:	add    BYTE PTR gs:[edi+0x65],ah
  4058e7:	je     0x405948
  4058e9:	inc    edx
  4058ea:	jne    0x405952
  4058ec:	data16 gs jb 0x405947
  4058f0:	imul   esp,DWORD PTR [esp+esi*2+0x68],0x4c6f5400
  4058f8:	outs   dx,DWORD PTR ds:[esi]
  4058f9:	ja     0x405960
  4058fb:	jb     0x4058fd
  4058fd:	outs   dx,DWORD PTR ds:[esi]
  4058fe:	jo     0x40595f
  405900:	inc    ebp
  405901:	jno    0x405978
  405903:	popa   
  405904:	ins    BYTE PTR es:[edi],dx
  405905:	imul   esi,DWORD PTR [ecx+edi*2+0x0],0x74697257
  40590d:	gs dec esp
  40590f:	imul   ebp,DWORD PTR [esi+0x65],0x696c4300
  405916:	outs   dx,BYTE PTR gs:[esi]
  405918:	je     0x40595c
  40591a:	jne    0x405985
  40591c:	ins    BYTE PTR es:[edi],dx
  40591d:	fs dec ebp
  40591f:	popa   
  405920:	outs   dx,BYTE PTR ds:[esi]
  405921:	popa   
  405922:	addr16 gs jb 0x405976
  405926:	popa   
  405927:	jb     0x40598a
  405929:	ins    DWORD PTR es:[edi],dx
  40592a:	gs je  0x405992
  40592d:	jb     0x40592f
  40592f:	jae    0x405996
  405931:	je     0x405992
  405933:	push   eax
  405934:	jb     0x40599b
  405936:	arpl   WORD PTR [edi+0x6d],bp
  405939:	jo     0x4059a4
  40593b:	ins    BYTE PTR es:[edi],dx
  40593c:	popa   
  40593d:	je     0x4059a8
  40593f:	outs   dx,DWORD PTR ds:[esi]
  405940:	outs   dx,BYTE PTR ds:[esi]
  405941:	inc    esi
  405942:	ins    BYTE PTR es:[edi],dx
  405943:	popa   
  405944:	addr16 jae 0x405947
  405947:	jae    0x4059ae
  405949:	je     0x4059aa
  40594b:	push   ebx
  40594c:	je     0x4059c0
  40594e:	outs   dx,DWORD PTR ds:[esi]
  40594f:	outs   dx,BYTE PTR ds:[esi]
  405950:	addr16 dec esi
  405952:	popa   
  405953:	ins    DWORD PTR es:[edi],dx
  405954:	gs dec ebx
  405956:	gs jns 0x40599f
  405959:	imul   ebp,DWORD PTR [ebp+eiz*2+0x0],0x5f746573
  405961:	push   ebx
  405962:	je     0x4059d6
  405964:	outs   dx,DWORD PTR ds:[esi]
  405965:	outs   dx,BYTE PTR ds:[esi]
  405966:	addr16 dec esi
  405968:	popa   
  405969:	ins    DWORD PTR es:[edi],dx
  40596a:	gs dec ebx
  40596c:	gs jns 0x4059b2
  40596f:	outs   dx,DWORD PTR ds:[esi]
  405970:	outs   dx,BYTE PTR ds:[esi]
  405971:	je     0x4059d4
  405973:	imul   ebp,DWORD PTR [esi+0x65],0x72500072
  40597a:	arpl   WORD PTR gs:[edi+0x6d],bp
  40597e:	jo     0x4059e9
  405980:	ins    BYTE PTR es:[edi],dx
  405981:	gs inc ecx
  405983:	jo     0x4059f5
  405985:	ins    BYTE PTR es:[edi],dx
  405986:	imul   esp,DWORD PTR [ebx+0x61],0x6e6f6974
  40598d:	add    BYTE PTR [ebx+0x79],dl
  405990:	jae    0x405a06
  405992:	gs ins DWORD PTR es:[edi],dx
  405994:	cs dec ecx
  405996:	dec    edi
  405997:	add    BYTE PTR [esi+0x69],al
  40599a:	ins    BYTE PTR es:[edi],dx
  40599b:	gs dec esp
  40599d:	outs   dx,DWORD PTR ds:[esi]
  40599e:	popa   
  40599f:	fs inc ebp
  4059a1:	js     0x405a06
  4059a3:	gs jo  0x405a1a
  4059a6:	imul   ebp,DWORD PTR [edi+0x6e],0x6e755200
  4059ad:	je     0x405a18
  4059af:	ins    DWORD PTR es:[edi],dx
  4059b0:	gs push esp
  4059b2:	jns    0x405a24
  4059b4:	gs dec eax
  4059b6:	popa   
  4059b7:	outs   dx,BYTE PTR ds:[esi]
  4059b8:	fs ins BYTE PTR es:[edi],dx
  4059ba:	add    BYTE PTR gs:[edi+0x65],al
  4059be:	je     0x405a14
  4059c0:	jns    0x405a32
  4059c2:	gs inc esi
  4059c4:	jb     0x405a35
  4059c6:	ins    DWORD PTR es:[edi],dx
  4059c7:	dec    eax
  4059c8:	popa   
  4059c9:	outs   dx,BYTE PTR ds:[esi]
  4059ca:	fs ins BYTE PTR es:[edi],dx
  4059cc:	add    BYTE PTR gs:[eax+0x72],dl
  4059d0:	outs   dx,DWORD PTR ds:[esi]
  4059d1:	jo     0x405a38
  4059d3:	jb     0x405a49
  4059d5:	jns    0x405a20
  4059d7:	outs   dx,BYTE PTR ds:[esi]
  4059d8:	outs   dx,WORD PTR ds:[esi]
  4059da:	add    BYTE PTR [edx+0x69],al
  4059dd:	outs   dx,BYTE PTR ds:[esi]
  4059de:	imul   ebp,DWORD PTR fs:[esi+0x67],0x67616c46
  4059e6:	jae    0x4059e8
  4059e8:	inc    edi
  4059e9:	gs je  0x405a3c
  4059ec:	jb     0x405a5d
  4059ee:	jo     0x405a55
  4059f0:	jb     0x405a66
  4059f2:	jns    0x4059f4
  4059f4:	dec    ebp
  4059f5:	gs je  0x405a60
  4059f8:	outs   dx,DWORD PTR ds:[esi]
  4059f9:	fs dec ecx
  4059fb:	outs   dx,BYTE PTR ds:[esi]
  4059fc:	outs   dx,WORD PTR ds:[esi]
  4059fe:	add    BYTE PTR [edi+0x65],al
  405a01:	je     0x405a4a
  405a03:	gs je  0x405a53
  405a06:	gs je  0x405a71
  405a09:	outs   dx,DWORD PTR ds:[esi]
  405a0a:	add    BYTE PTR fs:[ebp+0x65],cl
  405a0e:	je     0x405a78
  405a10:	outs   dx,DWORD PTR ds:[esi]
  405a11:	fs inc edx
  405a13:	popa   
  405a14:	jae    0x405a7b
  405a16:	add    BYTE PTR [ecx+0x6e],cl
  405a19:	jbe    0x405a8a
  405a1b:	imul   esp,DWORD PTR [ebp+0x0],0x49
  405a1f:	outs   dx,BYTE PTR ds:[esi]
  405a20:	je     0x405a55
  405a22:	xor    al,BYTE PTR [eax]
  405a24:	addr16 gs je 0x405a87
  405a28:	inc    esi
  405a29:	imul   ebp,DWORD PTR [ebp+eiz*2+0x4e],0x656d61
  405a31:	push   esp
  405a32:	push   0x64616572
  405a37:	add    BYTE PTR [edi+0x65],ah
  405a3a:	je     0x405a9b
  405a3c:	inc    ebx
  405a3d:	jne    0x405ab1
  405a3f:	jb     0x405aa6
  405a41:	outs   dx,BYTE PTR ds:[esi]
  405a42:	je     0x405a98
  405a44:	push   0x64616572
  405a49:	add    BYTE PTR [edi+0x65],ah
  405a4c:	je     0x405aad
  405a4e:	inc    ebx
  405a4f:	jne    0x405ac3
  405a51:	jb     0x405ab8
  405a53:	outs   dx,BYTE PTR ds:[esi]
  405a54:	je     0x405aab
  405a56:	dec    ecx
  405a57:	inc    ebx
  405a58:	jne    0x405ac6
  405a5a:	je     0x405ad1
  405a5c:	jb     0x405ac3
  405a5e:	add    BYTE PTR [edi+0x65],al
  405a61:	je     0x405aa6
  405a63:	outs   dx,DWORD PTR ds:[esi]
  405a64:	outs   dx,BYTE PTR ds:[esi]
  405a65:	jae    0x405ad6
  405a67:	ins    BYTE PTR es:[edi],dx
  405a68:	gs inc esi
  405a6a:	popa   
  405a6b:	ins    BYTE PTR es:[edi],dx
  405a6c:	ins    BYTE PTR es:[edi],dx
  405a6d:	bound  esp,QWORD PTR [ecx+0x63]
  405a70:	imul   edx,DWORD PTR [ebp+0x49],0x43
  405a74:	jne    0x405ae2
  405a76:	je     0x405aed
  405a78:	jb     0x405adf
  405a7a:	add    BYTE PTR [ebx+0x65],dh
  405a7d:	je     0x405ade
  405a7f:	inc    ebx
  405a80:	jne    0x405af4
  405a82:	jb     0x405ae9
  405a84:	outs   dx,BYTE PTR ds:[esi]
  405a85:	je     0x405adc
  405a87:	dec    ecx
  405a88:	inc    ebx
  405a89:	jne    0x405af7
  405a8b:	je     0x405b02
  405a8d:	jb     0x405af4
  405a8f:	add    BYTE PTR [ebx+0x79],dl
  405a92:	jae    0x405b08
  405a94:	gs ins DWORD PTR es:[edi],dx
  405a96:	cs push esp
  405a98:	gs js  0x405b0f
  405a9b:	add    BYTE PTR [ebp+0x6e],al
  405a9e:	arpl   WORD PTR [edi+0x64],bp
  405aa1:	imul   ebp,DWORD PTR [esi+0x67],0x74656700
  405aa8:	pop    edi
  405aa9:	dec    edi
  405aaa:	jne    0x405b20
  405aac:	jo     0x405b23
  405aae:	je     0x405af5
  405ab0:	outs   dx,BYTE PTR ds:[esi]
  405ab1:	arpl   WORD PTR [edi+0x64],bp
  405ab4:	imul   ebp,DWORD PTR [esi+0x67],0x74656700
  405abb:	pop    edi
  405abc:	inc    ebx
  405abd:	outs   dx,DWORD PTR ds:[esi]
  405abe:	fs gs push eax
  405ac1:	popa   
  405ac2:	add    BYTE PTR gs:[si+0x65],dl
  405ac7:	js     0x405b3d
  405ac9:	dec    ecx
  405aca:	outs   dx,BYTE PTR ds:[esi]
  405acb:	outs   dx,WORD PTR ds:[esi]
  405acd:	add    BYTE PTR [edi+0x65],ah
  405ad0:	je     0x405b31
  405ad2:	push   esp
  405ad3:	gs js  0x405b4a
  405ad6:	dec    ecx
  405ad7:	outs   dx,BYTE PTR ds:[esi]
  405ad8:	outs   dx,WORD PTR ds:[esi]
  405ada:	add    BYTE PTR [edi+0x65],ah
  405add:	je     0x405b3e
  405adf:	dec    edi
  405ae0:	inc    ebp
  405ae1:	dec    ebp
  405ae2:	inc    ebx
  405ae3:	outs   dx,DWORD PTR ds:[esi]
  405ae4:	fs gs push eax
  405ae7:	popa   
  405ae8:	add    BYTE PTR gs:[bx+0x65],ah
  405aed:	je     0x405b4e
  405aef:	inc    ecx
  405af0:	dec    esi
  405af1:	push   ebx
  405af2:	dec    ecx
  405af3:	inc    ebx
  405af4:	outs   dx,DWORD PTR ds:[esi]
  405af5:	fs gs push eax
  405af8:	popa   
  405af9:	add    BYTE PTR gs:[bp+di+0x77],dh
  405afe:	imul   esi,DWORD PTR [ebx+eiz*2+0x68],0x69727453
  405b06:	outs   dx,BYTE PTR ds:[esi]
  405b07:	add    BYTE PTR [bp+di+0x74],dh
  405b0b:	jb     0x405b76
  405b0d:	outs   dx,BYTE PTR ds:[esi]
  405b0e:	addr16 dec eax
  405b10:	gs ins BYTE PTR es:[edi],dx
  405b12:	jo     0x405b67
  405b14:	je     0x405b88
  405b16:	imul   ebp,DWORD PTR [esi+0x67],0x69725700
  405b1d:	je     0x405b84
  405b1f:	add    BYTE PTR [ebx+0x0],dh
  405b22:	arpl   WORD PTR [ebp+0x72],si
  405b25:	jb     0x405b8c
  405b27:	outs   dx,BYTE PTR ds:[esi]
  405b28:	je     0x405b79
  405b2a:	data16 data16 jae 0x405b93
  405b2e:	je     0x405b30
  405b30:	inc    ebx
  405b31:	push   0x53007261
  405b36:	jo     0x405ba4
  405b38:	imul   esi,DWORD PTR [eax+eax*1+0x69],0x7865646e
  405b40:	add    BYTE PTR [edi+0x65],ah
  405b43:	je     0x405ba4
  405b45:	inc    ebx
  405b46:	push   0x737261
  405b4b:	cmp    al,0x50
  405b4d:	jb     0x405bb8
  405b4f:	jbe    0x405bb2
  405b51:	je     0x405bb8
  405b53:	dec    ecx
  405b54:	ins    DWORD PTR es:[edi],dx
  405b55:	jo     0x405bc3
  405b57:	gs ins DWORD PTR es:[edi],dx
  405b59:	outs   dx,BYTE PTR gs:[esi]
  405b5b:	je     0x405bbe
  405b5d:	je     0x405bc8
  405b5f:	outs   dx,DWORD PTR ds:[esi]
  405b60:	outs   dx,BYTE PTR ds:[esi]
  405b61:	inc    esp
  405b62:	gs je  0x405bc6
  405b65:	imul   ebp,DWORD PTR [ebx+esi*2+0x3e],0x4334367b
  405b6d:	inc    esp
  405b6e:	ss ss xor eax,0x30342d34
  405b75:	inc    ecx
  405b76:	cmp    BYTE PTR ds:0x45384534,ch
  405b7c:	sub    eax,0x41393041
  405b81:	sub    eax,0x38313534
  405b86:	inc    ecx
  405b87:	inc    ebp
  405b88:	xor    al,0x30
  405b8a:	aaa    
  405b8b:	xor    eax,0x7d3746
  405b90:	inc    ebx
  405b91:	outs   dx,DWORD PTR ds:[esi]
  405b92:	ins    DWORD PTR es:[edi],dx
  405b93:	jo     0x405bfe
  405b95:	ins    BYTE PTR es:[edi],dx
  405b96:	gs jb  0x405be0
  405b99:	outs   dx,BYTE PTR gs:[esi]
  405b9b:	gs jb  0x405bff
  405b9e:	je     0x405c05
  405ba0:	fs inc ecx
  405ba2:	je     0x405c18
  405ba4:	jb     0x405c0f
  405ba6:	bound  esi,QWORD PTR [ebp+0x74]
  405ba9:	add    BYTE PTR gs:[ebx+0x79],dl
  405bad:	jae    0x405c23
  405baf:	gs ins DWORD PTR es:[edi],dx
  405bb1:	cs inc ebx
  405bb3:	outs   dx,DWORD PTR ds:[esi]
  405bb4:	ins    BYTE PTR es:[edi],dx
  405bb5:	ins    BYTE PTR es:[edi],dx
  405bb6:	arpl   WORD PTR gs:[ecx+ebp*2+0x6f],si
  405bbb:	outs   dx,BYTE PTR ds:[esi]
  405bbc:	jae    0x405bec
  405bbe:	inc    edi
  405bbf:	outs   dx,BYTE PTR gs:[esi]
  405bc1:	gs jb  0x405c2d
  405bc4:	arpl   WORD PTR [eax],ax
  405bc6:	inc    esp
  405bc7:	imul   esp,DWORD PTR [ebx+0x74],0x616e6f69
  405bce:	jb     0x405c49
  405bd0:	pusha  
  405bd1:	xor    al,BYTE PTR [eax]
  405bd3:	and    al,0x24
  405bd5:	ins    DWORD PTR es:[edi],dx
  405bd6:	gs je  0x405c41
  405bd9:	outs   dx,DWORD PTR ds:[esi]
  405bda:	xor    BYTE PTR fs:[eax+0x36],bh
  405bde:	xor    BYTE PTR [eax],dh
  405be0:	xor    BYTE PTR [eax],dh
  405be2:	xor    DWORD PTR [ebp*1+0x64410031],esi
  405be9:	add    BYTE PTR fs:[edx+esi*2+0x79],dl
  405bee:	inc    edi
  405bef:	gs je  0x405c48
  405bf2:	popa   
  405bf3:	ins    BYTE PTR es:[edi],dx
  405bf4:	jne    0x405c5b
  405bf6:	add    BYTE PTR [ecx+0x6e],cl
  405bf9:	fs gs js 0x405c4c
  405bfd:	data16 add BYTE PTR [ecx+ebp*2+0x72],al
  405c02:	arpl   WORD PTR gs:[edi+ebp*2+0x72],si
  405c07:	jns    0x405c09
  405c09:	inc    ebp
  405c0a:	js     0x405c75
  405c0c:	jae    0x405c82
  405c0e:	jae    0x405c10
  405c10:	inc    esi
  405c11:	imul   ebp,DWORD PTR [ebp+eiz*2+0x0],0x68746150
  405c19:	add    BYTE PTR [esi+0x69],dh
  405c1c:	jb     0x405c92
  405c1e:	jne    0x405c81
  405c20:	ins    BYTE PTR es:[edi],dx
  405c21:	push   eax
  405c22:	popa   
  405c23:	je     0x405c8d
  405c25:	add    BYTE PTR [ecx+0x6e],cl
  405c28:	fs gs js 0x405c7b
  405c2c:	inc    cx
  405c2e:	outs   dx,BYTE PTR ds:[esi]
  405c2f:	jns    0x405c31
  405c31:	jo     0x405c94
  405c33:	je     0x405c9d
  405c35:	add    BYTE PTR [ebp+0x78],ah
  405c38:	arpl   WORD PTR [ebp+0x70],sp
  405c3b:	je     0x405ca6
  405c3d:	outs   dx,DWORD PTR ds:[esi]
  405c3e:	outs   dx,BYTE PTR ds:[esi]
  405c3f:	add    BYTE PTR [eax+0x74],cl
  405c42:	je     0x405cb4
  405c44:	inc    ebx
  405c45:	outs   dx,DWORD PTR ds:[esi]
  405c46:	ins    DWORD PTR es:[edi],dx
  405c47:	jo     0x405cb2
  405c49:	ins    BYTE PTR es:[edi],dx
  405c4a:	gs inc ebp
  405c4c:	js     0x405cb1
  405c4e:	gs jo  0x405cc5
  405c51:	imul   ebp,DWORD PTR [edi+0x6e],0x74744800
  405c58:	jo     0x405caa
  405c5a:	popa   
  405c5b:	jb     0x405cd0
  405c5d:	gs inc ebp
  405c5f:	js     0x405cc4
  405c61:	gs jo  0x405cd8
  405c64:	imul   ebp,DWORD PTR [edi+0x6e],0x73795300
  405c6b:	je     0x405cd2
  405c6d:	ins    DWORD PTR es:[edi],dx
  405c6e:	cs inc ebx
  405c70:	outs   dx,DWORD PTR ds:[esi]
  405c71:	outs   dx,BYTE PTR ds:[esi]
  405c72:	imul   sp,WORD PTR [edi+0x75],0x6172
  405c78:	je     0x405ce3
  405c7a:	outs   dx,DWORD PTR ds:[esi]
  405c7b:	outs   dx,BYTE PTR ds:[esi]
  405c7c:	add    BYTE PTR [ebx+0x6f],al
  405c7f:	outs   dx,BYTE PTR ds:[esi]
  405c80:	imul   sp,WORD PTR [edi+0x75],0x6172
  405c86:	je     0x405cf1
  405c88:	outs   dx,DWORD PTR ds:[esi]
  405c89:	outs   dx,BYTE PTR ds:[esi]
  405c8a:	inc    ebp
  405c8b:	js     0x405cf0
  405c8d:	gs jo  0x405d04
  405c90:	imul   ebp,DWORD PTR [edi+0x6e],0x74656700
  405c97:	pop    edi
  405c98:	inc    esi
  405c99:	imul   ebp,DWORD PTR [ebp+eiz*2+0x6e],0x656d61
  405ca1:	addr16 gs je 0x405d04
  405ca5:	dec    esp
  405ca6:	imul   ebp,DWORD PTR [esi+0x65],0x74656700
  405cad:	pop    edi
  405cae:	inc    edx
  405caf:	popa   
  405cb0:	jb     0x405d17
  405cb2:	dec    ebp
  405cb3:	gs jae 0x405d29
  405cb6:	popa   
  405cb7:	add    BYTE PTR gs:[bx+0x65],ah
  405cbc:	je     0x405d1d
  405cbe:	dec    ebp
  405cbf:	gs jae 0x405d35
  405cc2:	popa   
  405cc3:	add    BYTE PTR gs:[di+0x0],ah
  405cc8:	addr16 gs je 0x405d2b
  405ccc:	dec    ecx
  405ccd:	outs   dx,BYTE PTR ds:[esi]
  405cce:	outs   dx,BYTE PTR ds:[esi]
  405ccf:	gs jb  0x405d17
  405cd2:	js     0x405d37
  405cd4:	gs jo  0x405d4b
  405cd7:	imul   ebp,DWORD PTR [edi+0x6e],0x72726500
  405cde:	outs   dx,DWORD PTR ds:[esi]
  405cdf:	jb     0x405ce1
  405ce1:	addr16 gs je 0x405d44
  405ce5:	dec    ecx
  405ce6:	jae    0x405d3f
  405ce8:	popa   
  405ce9:	jb     0x405d59
  405ceb:	imul   ebp,DWORD PTR [esi+0x67],0x74656700
  405cf2:	pop    edi
  405cf3:	inc    ebp
  405cf4:	jb     0x405d68
  405cf6:	outs   dx,DWORD PTR ds:[esi]
  405cf7:	jb     0x405d47
  405cf9:	jne    0x405d68
  405cfb:	bound  esp,QWORD PTR [ebp+0x72]
  405cfe:	add    BYTE PTR [edi+0x65],ah
  405d01:	je     0x405d62
  405d03:	inc    ebp
  405d04:	jb     0x405d78
  405d06:	outs   dx,DWORD PTR ds:[esi]
  405d07:	jb     0x405d5d
  405d09:	gs js  0x405d80
  405d0c:	add    BYTE PTR [ebp+0x65],cl
  405d0f:	ins    DWORD PTR es:[edi],dx
  405d10:	bound  esp,QWORD PTR [ebp+0x72]
  405d13:	dec    ecx
  405d14:	outs   dx,BYTE PTR ds:[esi]
  405d15:	outs   dx,WORD PTR ds:[esi]
  405d17:	add    BYTE PTR [edi+0x65],ah
  405d1a:	je     0x405d7b
  405d1c:	dec    esi
  405d1d:	popa   
  405d1e:	ins    DWORD PTR es:[edi],dx
  405d1f:	add    BYTE PTR gs:[edi+0x65],ah
  405d23:	je     0x405d84
  405d25:	push   ebx
  405d26:	je     0x405d89
  405d28:	arpl   WORD PTR [ebx+0x54],bp
  405d2b:	jb     0x405d8e
  405d2d:	arpl   WORD PTR [ebp+0x0],sp
  405d30:	gs jb  0x405da5
  405d33:	outs   dx,DWORD PTR ds:[esi]
  405d34:	jb     0x405d84
  405d36:	jne    0x405da5
  405d38:	bound  esp,QWORD PTR [ebp+0x72]
  405d3b:	add    BYTE PTR [ebp+0x65],ch
  405d3e:	jae    0x405db3
  405d40:	popa   
  405d41:	add    BYTE PTR gs:[bp+0x69],ah
  405d46:	ins    BYTE PTR es:[edi],dx
  405d47:	outs   dx,BYTE PTR gs:[esi]
  405d49:	popa   
  405d4a:	ins    DWORD PTR es:[edi],dx
  405d4b:	add    BYTE PTR gs:[ecx+ebp*2+0x6e],ch
  405d50:	add    BYTE PTR gs:[edi+0x61],dh
  405d54:	jb     0x405dc4
  405d56:	imul   ebp,DWORD PTR [esi+0x67],0x74656d00
  405d5d:	popa   
  405d5e:	bound  esp,QWORD PTR [ecx+0x73]
  405d61:	gs push eax
  405d63:	popa   
  405d64:	je     0x405dce
  405d66:	add    BYTE PTR [ebx+0x31],dh
  405d69:	add    BYTE PTR [ebx+0x32],dh
  405d6c:	add    BYTE PTR [ebx+0x74],dl
  405d6f:	jb     0x405dda
  405d71:	outs   dx,BYTE PTR ds:[esi]
  405d72:	addr16 inc ebx
  405d74:	outs   dx,DWORD PTR ds:[esi]
  405d75:	ins    DWORD PTR es:[edi],dx
  405d76:	jo     0x405dd9
  405d78:	jb     0x405de3
  405d7a:	jae    0x405deb
  405d7c:	outs   dx,BYTE PTR ds:[esi]
  405d7d:	add    BYTE PTR [ebx+0x6f],al
  405d80:	ins    DWORD PTR es:[edi],dx
  405d81:	jo     0x405de4
  405d83:	jb     0x405dea
  405d85:	add    BYTE PTR [ebx+0x65],ch
  405d88:	jns    0x405d8a
  405d8a:	dec    ebp
  405d8b:	outs   dx,DWORD PTR ds:[esi]
  405d8c:	fs jne 0x405dfb
  405d8f:	add    BYTE PTR gs:[edi+0x65],ah
  405d93:	je     0x405df4
  405d95:	dec    ebp
  405d96:	outs   dx,DWORD PTR ds:[esi]
  405d97:	fs jne 0x405e06
  405d9a:	add    BYTE PTR gs:[ecx+0x72],ah
  405d9e:	xor    BYTE PTR [bx+si],al
  405da1:	popa   
  405da2:	jb     0x405e0b
  405da4:	xor    DWORD PTR [eax],eax
  405da6:	arpl   WORD PTR cs:[ebx+0x74],sp
  405daa:	outs   dx,DWORD PTR ds:[esi]
  405dab:	jb     0x405dad
  405dad:	addr16 gs je 0x405e10
  405db1:	push   esi
  405db2:	imul   esi,DWORD PTR [edx+0x74],0x506c6175
  405db9:	popa   
  405dba:	je     0x405e24
  405dbc:	add    BYTE PTR [ecx+0x73],ah
  405dbf:	jo     0x405e2f
  405dc1:	gs je  0x405e23
  405dc4:	arpl   WORD PTR [edi+0x6d],bp
  405dc7:	jo     0x405e32
  405dc9:	ins    BYTE PTR es:[edi],dx
  405dca:	gs jb  0x405dfb
  405dcd:	jb     0x405e34
  405dcf:	jae    0x405e40
  405dd1:	jne    0x405e45
  405dd3:	arpl   WORD PTR [ebp+0x73],sp
  405dd6:	add    BYTE PTR [eax],al
  405dd8:	add    BYTE PTR [edi],bl
  405dda:	popa   
  405ddb:	add    BYTE PTR [ebx+0x0],dh
  405dde:	jo     0x405de0
  405de0:	outs   dx,BYTE PTR ds:[esi]
  405de1:	add    BYTE PTR [ebp+0x0],ah
  405de4:	je     0x405de6
  405de6:	pop    edi
  405de7:	add    BYTE PTR [ebx+0x0],ah
  405dea:	outs   dx,DWORD PTR ds:[esi]
  405deb:	add    BYTE PTR [ebp+0x0],ch
  405dee:	jo     0x405df0
  405df0:	imul   eax,DWORD PTR [eax],0x65006c
  405df6:	jb     0x405df8
  405df8:	add    BYTE PTR [edi],al
  405dfa:	add    BYTE PTR cs:[esi],ch
  405dfd:	add    BYTE PTR [esi],ch
  405dff:	add    BYTE PTR [eax],al
  405e01:	cvtps2pi mm0,QWORD PTR [eax]
  405e04:	outs   dx,BYTE PTR ds:[esi]
  405e05:	add    BYTE PTR [edi+0x0],ch
  405e08:	ins    BYTE PTR es:[edi],dx
  405e09:	add    BYTE PTR [edi+0x0],ch
  405e0c:	add    BYTE PTR [bx+0x0],ch
  405e10:	add    DWORD PTR [edi],ecx
  405e12:	das    
  405e13:	add    BYTE PTR [esi+0x0],ch
  405e16:	outs   dx,DWORD PTR ds:[esi]
  405e17:	add    BYTE PTR [eax+eax*1+0x6f],ch
  405e1b:	add    BYTE PTR [edi+0x0],ah
  405e1e:	outs   dx,DWORD PTR ds:[esi]
  405e1f:	add    BYTE PTR [eax],al
  405e21:	pop    ss
  405e22:	push   0x61006500
  405e27:	add    BYTE PTR [eax+eax*1+0x65],ah
  405e2b:	add    BYTE PTR [edx+0x0],dh
  405e2e:	pop    edi
  405e2f:	add    BYTE PTR [eax+eax*1+0x65],dh
  405e33:	add    BYTE PTR [eax+0x0],bh
  405e36:	je     0x405e38
  405e38:	add    BYTE PTR [ebx],dl
  405e3a:	arpl   WORD PTR [eax],ax
  405e3c:	outs   dx,DWORD PTR ds:[esi]
  405e3d:	add    BYTE PTR [eax+0x0],dh
  405e40:	jns    0x405e42
  405e42:	jb     0x405e44
  405e44:	imul   eax,DWORD PTR [eax],0x680067
  405e4a:	je     0x405e4c
  405e4c:	add    BYTE PTR [ecx],ah
  405e4e:	jae    0x405e50
  405e50:	push   0x72006f00
  405e55:	add    BYTE PTR [eax+eax*1+0x5f],dh
  405e59:	add    BYTE PTR [ebp+0x0],dh
  405e5c:	jae    0x405e5e
  405e5e:	popa   
  405e5f:	add    BYTE PTR [edi+0x0],ah
  405e62:	add    BYTE PTR gs:[edi+0x0],bl
  405e66:	je     0x405e68
  405e68:	add    BYTE PTR gs:[eax+0x0],bh
  405e6c:	je     0x405e6e
  405e6e:	add    BYTE PTR [edi],cl
  405e70:	dec    eax
  405e71:	add    BYTE PTR [edx+0x0],dl
  405e74:	add    BYTE PTR gs:[ebx+0x0],dh
  405e78:	jne    0x405e7a
  405e7a:	ins    BYTE PTR es:[edi],dx
  405e7b:	add    BYTE PTR [eax+eax*1+0x0],dh
  405e7f:	and    eax,0x740053
  405e84:	jb     0x405e86
  405e86:	outs   dx,DWORD PTR ds:[esi]
  405e87:	add    BYTE PTR [esi+0x0],ch
  405e8a:	add    BYTE PTR [bp+0x0],ch
  405e8e:	popa   
  405e8f:	add    BYTE PTR [ebp+0x0],ch
  405e92:	add    BYTE PTR gs:[edi+0x0],bl
  405e96:	data16 add BYTE PTR [ecx+0x0],ah
  405e9a:	imul   eax,DWORD PTR [eax],0x75006c
  405ea0:	jb     0x405ea2
  405ea2:	add    BYTE PTR gs:[eax],al
  405ea5:	or     esp,DWORD PTR [ebp+0x0]
  405ea8:	outs   dx,BYTE PTR ds:[esi]
  405ea9:	add    BYTE PTR ds:0x53005500,ch
  405eaf:	add    BYTE PTR [ecx],al
  405eb1:	or     esi,DWORD PTR [ebp+0x0]
  405eb4:	jae    0x405eb6
  405eb6:	popa   
  405eb7:	add    BYTE PTR [edi+0x0],ah
  405eba:	add    BYTE PTR gs:[eax],al
  405ebd:	adc    BYTE PTR [ecx+0x730061],0x70
  405ec4:	add    BYTE PTR [esi+0x0],ch
  405ec7:	add    BYTE PTR gs:[eax+eax*1+0x5f],dh
  405ecc:	add    BYTE PTR [ebx+0x0],ah
  405ecf:	outs   dx,DWORD PTR ds:[esi]
  405ed0:	add    BYTE PTR [ebp+0x0],ch
  405ed3:	jo     0x405ed5
  405ed5:	imul   eax,DWORD PTR [eax],0x65006c
  405edb:	jb     0x405edd
  405edd:	and    BYTE PTR [eax],al
  405edf:	pop    ebx
  405ee0:	add    BYTE PTR ds:0x5d003f00,ch
  405ee6:	add    BYTE PTR [eax],ah
  405ee8:	add    BYTE PTR [ebx+0x0],bl
  405eeb:	sub    eax,0x20006d00
  405ef0:	add    BYTE PTR [ebp+0x0],ch
  405ef3:	add    BYTE PTR gs:[eax+eax*1+0x61],dh
  405ef8:	add    BYTE PTR [edx+0x0],ah
  405efb:	popa   
  405efc:	add    BYTE PTR [ebx+0x0],dh
  405eff:	add    BYTE PTR gs:[eax+0x0],dl
  405f03:	popa   
  405f04:	add    BYTE PTR [eax+eax*1+0x68],dh
  405f08:	add    BYTE PTR [eax],ah
  405f0a:	add    BYTE PTR [eax+eax*1+0x20],bh
  405f0e:	add    BYTE PTR ds:0x20007600,ch
  405f14:	add    BYTE PTR [esi+0x0],dh
  405f17:	imul   eax,DWORD PTR [eax],0x740072
  405f1d:	jne    0x405f1f
  405f1f:	popa   
  405f20:	add    BYTE PTR [eax+eax*1+0x50],ch
  405f24:	add    BYTE PTR [ecx+0x0],ah
  405f27:	je     0x405f29
  405f29:	push   0x5b002000
  405f2e:	add    BYTE PTR ds:0x20007000,ch
  405f34:	add    BYTE PTR [eax+0x0],dh
  405f37:	push   0x73007900
  405f3c:	add    BYTE PTR [ecx+0x0],ch
  405f3f:	arpl   WORD PTR [eax],ax
  405f41:	popa   
  405f42:	add    BYTE PTR [eax+eax*1+0x44],ch
  405f46:	add    BYTE PTR [ecx+0x0],ch
  405f49:	jb     0x405f4b
  405f4b:	pop    ebp
  405f4c:	add    BYTE PTR [ebp+0x0],bl
  405f4f:	add    DWORD PTR [ebx+0x20],edi
  405f52:	add    BYTE PTR [eax],ah
  405f54:	add    BYTE PTR [eax],ah
  405f56:	add    BYTE PTR [eax],ah
  405f58:	add    BYTE PTR [eax],ah
  405f5a:	add    BYTE PTR [eax],ah
  405f5c:	add    BYTE PTR [eax],ah
  405f5e:	add    BYTE PTR [eax],ah
  405f60:	add    BYTE PTR [eax],ah
  405f62:	add    BYTE PTR [eax],ah
  405f64:	add    BYTE PTR [eax],ah
  405f66:	add    BYTE PTR [eax],ah
  405f68:	add    BYTE PTR [eax],ah
  405f6a:	add    BYTE PTR [eax],ah
  405f6c:	add    BYTE PTR [eax],ah
  405f6e:	add    BYTE PTR [eax],ah
  405f70:	add    BYTE PTR [ebx+0x0],bl
  405f73:	pop    ebx
  405f74:	add    BYTE PTR ds:0x5d007500,ch
  405f7a:	add    BYTE PTR [eax],ah
  405f7c:	add    BYTE PTR [ebx+0x0],bl
  405f7f:	sub    eax,0x5d006600
  405f84:	add    BYTE PTR [eax],ah
  405f86:	add    BYTE PTR [ebx+0x0],bl
  405f89:	sub    eax,0x5d006400
  405f8e:	add    BYTE PTR [eax],ah
  405f90:	add    BYTE PTR [ebx+0x0],bl
  405f93:	sub    eax,0x69006600
  405f98:	add    BYTE PTR [eax+0x0],bh
  405f9b:	add    BYTE PTR gs:[eax+eax*1+0x6e],ah
  405fa0:	add    BYTE PTR [ecx+0x0],ah
  405fa3:	ins    DWORD PTR es:[edi],dx
  405fa4:	add    BYTE PTR [ebp+0x0],ah
  405fa7:	jae    0x405fa9
  405fa9:	pop    ebp
  405faa:	add    BYTE PTR [eax],ah
  405fac:	add    BYTE PTR [eax+eax*1+0x61],dh
  405fb0:	add    BYTE PTR [edx+0x0],dh
  405fb3:	add    BYTE PTR [di+0x0],ah
  405fb7:	je     0x405fb9
  405fb9:	inc    esp
  405fba:	add    BYTE PTR [ecx+0x0],ch
  405fbd:	jb     0x405fbf
  405fbf:	pop    ebp
  405fc0:	add    BYTE PTR [eax],ah
  405fc2:	add    BYTE PTR [ebx+0x0],bl
  405fc5:	sub    eax,0x5d006300
  405fca:	add    BYTE PTR [ecx],al
  405fcc:	jne    0x405fee
  405fce:	add    BYTE PTR [eax],ah
  405fd0:	add    BYTE PTR [eax],ah
  405fd2:	add    BYTE PTR [eax],ah
  405fd4:	add    BYTE PTR [eax],ah
  405fd6:	add    BYTE PTR [eax],ah
  405fd8:	add    BYTE PTR [eax],ah
  405fda:	add    BYTE PTR [eax],ah
  405fdc:	add    BYTE PTR [eax],ah
  405fde:	add    BYTE PTR [eax],ah
  405fe0:	add    BYTE PTR [eax],ah
  405fe2:	add    BYTE PTR [eax],ah
  405fe4:	add    BYTE PTR [eax],ah
  405fe6:	add    BYTE PTR [eax],ah
  405fe8:	add    BYTE PTR [eax],ah
  405fea:	add    BYTE PTR [eax],ah
  405fec:	add    BYTE PTR [ebx+0x0],bl
  405fef:	pop    ebx
  405ff0:	add    BYTE PTR ds:0x65006b00,ch
  405ff6:	add    BYTE PTR [ecx+0x0],bh
  405ff9:	data16 add BYTE PTR [ecx+0x0],ch
  405ffd:	ins    BYTE PTR es:[edi],dx
  405ffe:	add    BYTE PTR [ebp+0x0],ah
  406001:	and    BYTE PTR [eax],al
  406003:	data16 add BYTE PTR [ecx+0x0],ch
  406007:	ins    BYTE PTR es:[edi],dx
  406008:	add    BYTE PTR [ebp+0x0],ah
  40600b:	and    BYTE PTR [eax],al
  40600d:	jl     0x40600f
  40600f:	and    BYTE PTR [eax],al
  406011:	sub    eax,0x65006b00
  406016:	add    BYTE PTR [ecx+0x0],bh
  406019:	arpl   WORD PTR [eax],ax
  40601b:	outs   dx,DWORD PTR ds:[esi]
  40601c:	add    BYTE PTR [esi+0x0],ch
  40601f:	je     0x406021
  406021:	popa   
  406022:	add    BYTE PTR [ecx+0x0],ch
  406025:	outs   dx,BYTE PTR ds:[esi]
  406026:	add    BYTE PTR [ebp+0x0],ah
  406029:	jb     0x40602b
  40602b:	and    BYTE PTR [eax],al
  40602d:	arpl   WORD PTR [eax],ax
  40602f:	outs   dx,DWORD PTR ds:[esi]
  406030:	add    BYTE PTR [esi+0x0],ch
  406033:	je     0x406035
  406035:	popa   
  406036:	add    BYTE PTR [ecx+0x0],ch
  406039:	outs   dx,BYTE PTR ds:[esi]
  40603a:	add    BYTE PTR [ebp+0x0],ah
  40603d:	jb     0x40603f
  40603f:	pop    ebp
  406040:	add    BYTE PTR [ecx],al
  406042:	push   edi
  406043:	and    BYTE PTR [eax],al
  406045:	and    BYTE PTR [eax],al
  406047:	and    BYTE PTR [eax],al
  406049:	and    BYTE PTR [eax],al
  40604b:	and    BYTE PTR [eax],al
  40604d:	and    BYTE PTR [eax],al
  40604f:	and    BYTE PTR [eax],al
  406051:	and    BYTE PTR [eax],al
  406053:	and    BYTE PTR [eax],al
  406055:	and    BYTE PTR [eax],al
  406057:	and    BYTE PTR [eax],al
  406059:	and    BYTE PTR [eax],al
  40605b:	and    BYTE PTR [eax],al
  40605d:	and    BYTE PTR [eax],al
  40605f:	and    BYTE PTR [eax],al
  406061:	and    BYTE PTR [eax],al
  406063:	and    BYTE PTR [eax],al
  406065:	and    BYTE PTR [eax],al
  406067:	and    BYTE PTR [eax],al
  406069:	and    BYTE PTR [eax],al
  40606b:	and    BYTE PTR [eax],al
  40606d:	pop    ebx
  40606e:	add    BYTE PTR ds:0x70006100,ch
  406074:	add    BYTE PTR [eax+eax*1+0x63],dh
  406078:	add    BYTE PTR [ecx+0x0],ah
  40607b:	pop    ebp
  40607c:	add    BYTE PTR [eax],ah
  40607e:	add    BYTE PTR [ebx+0x0],bl
  406081:	sub    eax,0x65006400
  406086:	add    BYTE PTR [eax+eax*1+0x61],ch
  40608a:	add    BYTE PTR [ecx+0x0],bh
  40608d:	push   ebx
  40608e:	add    BYTE PTR [ecx+0x0],ch
  406091:	add    BYTE PTR [bp+0x0],ch
  406095:	pop    ebp
  406096:	add    BYTE PTR [ebp+0x0],bl
  406099:	add    DWORD PTR [ebx],edi
  40609b:	and    BYTE PTR [eax],al
  40609d:	and    BYTE PTR [eax],al
  40609f:	and    BYTE PTR [eax],al
  4060a1:	and    BYTE PTR [eax],al
  4060a3:	and    BYTE PTR [eax],al
  4060a5:	and    BYTE PTR [eax],al
  4060a7:	and    BYTE PTR [eax],al
  4060a9:	and    BYTE PTR [eax],al
  4060ab:	and    BYTE PTR [eax],al
  4060ad:	and    BYTE PTR [eax],al
  4060af:	and    BYTE PTR [eax],al
  4060b1:	and    BYTE PTR [eax],al
  4060b3:	and    BYTE PTR [eax],al
  4060b5:	and    BYTE PTR [eax],al
  4060b7:	and    BYTE PTR [eax],al
  4060b9:	and    BYTE PTR [eax],al
  4060bb:	pop    ebx
  4060bc:	add    BYTE PTR ds:0x72006500,ch
  4060c2:	add    BYTE PTR [edx+0x0],dh
  4060c5:	outs   dx,DWORD PTR ds:[esi]
  4060c6:	add    BYTE PTR [edx+0x0],dh
  4060c9:	jae    0x4060cb
  4060cb:	je     0x4060cd
  4060cd:	popa   
  4060ce:	add    BYTE PTR [ebx+0x0],ah
  4060d1:	imul   eax,DWORD PTR [eax],0x5d
  4060d4:	add    BYTE PTR [ecx],al
  4060d6:	add    eax,0x3f002d
  4060db:	add    DWORD PTR [ebx],esp
  4060dd:	jno    0x4060df
  4060df:	jne    0x4060e1
  4060e1:	add    BYTE PTR gs:[ebx+0x0],dh
  4060e5:	je     0x4060e7
  4060e7:	imul   eax,DWORD PTR [eax],0x6e006f
  4060ed:	ins    DWORD PTR es:[edi],dx
  4060ee:	add    BYTE PTR [ecx+0x0],ah
  4060f1:	jb     0x4060f3
  4060f3:	imul   eax,DWORD PTR [eax],0x5f
  4060f6:	add    BYTE PTR [eax+0x0],ch
  4060f9:	add    BYTE PTR gs:[eax+eax*1+0x70],ch
  4060fe:	add    BYTE PTR [eax],al
  406100:	add    eax,0x6d002d
  406105:	add    DWORD PTR ds:0x5f006d,ecx
  40610b:	push   0x6c006500
  406110:	add    BYTE PTR [eax+0x0],dh
  406113:	add    BYTE PTR ds:0x76002d,al
  406119:	add    DWORD PTR ds:0x5f0076,ecx
  40611f:	push   0x6c006500
  406124:	add    BYTE PTR [eax+0x0],dh
  406127:	add    BYTE PTR ds:0x70002d,al
  40612d:	add    DWORD PTR ds:0x5f0070,ecx
  406133:	push   0x6c006500
  406138:	add    BYTE PTR [eax+0x0],dh
  40613b:	add    BYTE PTR ds:0x75002d,al
  406141:	add    DWORD PTR ds:0x5f0075,ecx
  406147:	push   0x6c006500
  40614c:	add    BYTE PTR [eax+0x0],dh
  40614f:	add    BYTE PTR ds:0x66002d,al
  406155:	add    DWORD PTR ds:0x5f0066,ecx
  40615b:	push   0x6c006500
  406160:	add    BYTE PTR [eax+0x0],dh
  406163:	add    BYTE PTR ds:0x64002d,al
  406169:	add    DWORD PTR ds:0x5f0064,ecx
  40616f:	push   0x6c006500
  406174:	add    BYTE PTR [eax+0x0],dh
  406177:	add    BYTE PTR [ebx],dl
  406179:	je     0x40617b
  40617b:	popa   
  40617c:	add    BYTE PTR [edx+0x0],dh
  40617f:	add    BYTE PTR [di+0x0],ah
  406183:	je     0x406185
  406185:	inc    esp
  406186:	add    BYTE PTR [ecx+0x0],ch
  406189:	jb     0x40618b
  40618b:	add    BYTE PTR ds:0x610074,bl
  406191:	jb     0x406193
  406193:	add    BYTE PTR [di+0x0],ah
  406197:	je     0x406199
  406199:	inc    esp
  40619a:	add    BYTE PTR [ecx+0x0],ch
  40619d:	jb     0x40619f
  40619f:	pop    edi
  4061a0:	add    BYTE PTR [eax+0x0],ch
  4061a3:	add    BYTE PTR gs:[eax+eax*1+0x70],ch
  4061a8:	add    BYTE PTR [eax],al
  4061aa:	add    eax,0x63002d
  4061af:	add    DWORD PTR ds:0x5f0063,ecx
  4061b5:	push   0x6c006500
  4061ba:	add    BYTE PTR [eax+0x0],dh
  4061bd:	add    BYTE PTR [ecx],dl
  4061bf:	sub    eax,0x65006b00
  4061c4:	add    BYTE PTR [ecx+0x0],bh
  4061c7:	data16 add BYTE PTR [ecx+0x0],ch
  4061cb:	ins    BYTE PTR es:[edi],dx
  4061cc:	add    BYTE PTR [ebp+0x0],ah
  4061cf:	add    DWORD PTR [ecx],ebx
  4061d1:	imul   eax,DWORD PTR [eax],0x65
  4061d4:	add    BYTE PTR [ecx+0x0],bh
  4061d7:	data16 add BYTE PTR [ecx+0x0],ch
  4061db:	ins    BYTE PTR es:[edi],dx
  4061dc:	add    BYTE PTR [ebp+0x0],ah
  4061df:	pop    edi
  4061e0:	add    BYTE PTR [eax+0x0],ch
  4061e3:	add    BYTE PTR gs:[eax+eax*1+0x70],ch
  4061e8:	add    BYTE PTR [eax],al
  4061ea:	sbb    ebp,DWORD PTR ds:0x65006b00
  4061f0:	add    BYTE PTR [ecx+0x0],bh
  4061f3:	arpl   WORD PTR [eax],ax
  4061f5:	outs   dx,DWORD PTR ds:[esi]
  4061f6:	add    BYTE PTR [esi+0x0],ch
  4061f9:	je     0x4061fb
  4061fb:	popa   
  4061fc:	add    BYTE PTR [ecx+0x0],ch
  4061ff:	outs   dx,BYTE PTR ds:[esi]
  406200:	add    BYTE PTR [ebp+0x0],ah
  406203:	jb     0x406205
  406205:	add    DWORD PTR [ebx],esp
  406207:	imul   eax,DWORD PTR [eax],0x65
  40620a:	add    BYTE PTR [ecx+0x0],bh
  40620d:	arpl   WORD PTR [eax],ax
  40620f:	outs   dx,DWORD PTR ds:[esi]
  406210:	add    BYTE PTR [esi+0x0],ch
  406213:	je     0x406215
  406215:	popa   
  406216:	add    BYTE PTR [ecx+0x0],ch
  406219:	outs   dx,BYTE PTR ds:[esi]
  40621a:	add    BYTE PTR [ebp+0x0],ah
  40621d:	jb     0x40621f
  40621f:	pop    edi
  406220:	add    BYTE PTR [eax+0x0],ch
  406223:	add    BYTE PTR gs:[eax+eax*1+0x70],ch
  406228:	add    BYTE PTR [eax],al
  40622a:	or     eax,0x61002d
  40622f:	jo     0x406231
  406231:	je     0x406233
  406233:	arpl   WORD PTR [eax],ax
  406235:	popa   
  406236:	add    BYTE PTR [ecx],al
  406238:	adc    eax,0x700061
  40623d:	je     0x40623f
  40623f:	arpl   WORD PTR [eax],ax
  406241:	popa   
  406242:	add    BYTE PTR [edi+0x0],bl
  406245:	push   0x6c006500
  40624a:	add    BYTE PTR [eax+0x0],dh
  40624d:	add    BYTE PTR ds:0x64002d,dl
  406253:	add    BYTE PTR gs:[eax+eax*1+0x61],ch
  406258:	add    BYTE PTR [ecx+0x0],bh
  40625b:	jae    0x40625d
  40625d:	imul   eax,DWORD PTR [eax],0x6e0067
  406263:	add    DWORD PTR ds:0x650064,ebx
  406269:	ins    BYTE PTR es:[edi],dx
  40626a:	add    BYTE PTR [ecx+0x0],ah
  40626d:	jns    0x40626f
  40626f:	jae    0x406271
  406271:	imul   eax,DWORD PTR [eax],0x6e0067
  406277:	pop    edi
  406278:	add    BYTE PTR [eax+0x0],ch
  40627b:	add    BYTE PTR gs:[eax+eax*1+0x70],ch
  406280:	add    BYTE PTR [eax],al
  406282:	pop    ss
  406283:	sub    eax,0x69006600
  406288:	add    BYTE PTR [eax+0x0],bh
  40628b:	add    BYTE PTR gs:[eax+eax*1+0x6e],ah
  406290:	add    BYTE PTR [ecx+0x0],ah
  406293:	ins    DWORD PTR es:[edi],dx
  406294:	add    BYTE PTR [ebp+0x0],ah
  406297:	jae    0x406299
  406299:	add    DWORD PTR [edi],ebx
  40629b:	data16 add BYTE PTR [ecx+0x0],ch
  40629f:	js     0x4062a1
  4062a1:	add    BYTE PTR gs:[eax+eax*1+0x6e],ah
  4062a6:	add    BYTE PTR [ecx+0x0],ah
  4062a9:	ins    DWORD PTR es:[edi],dx
  4062aa:	add    BYTE PTR [ebp+0x0],ah
  4062ad:	jae    0x4062af
  4062af:	pop    edi
  4062b0:	add    BYTE PTR [eax+0x0],ch
  4062b3:	add    BYTE PTR gs:[eax+eax*1+0x70],ch
  4062b8:	add    BYTE PTR [eax],al
  4062ba:	pop    ss
  4062bb:	outs   dx,BYTE PTR ds:[esi]
  4062bc:	add    BYTE PTR [edi+0x0],ch
  4062bf:	ins    BYTE PTR es:[edi],dx
  4062c0:	add    BYTE PTR [edi+0x0],ch
  4062c3:	add    BYTE PTR [bx+0x0],ch
  4062c7:	pop    edi
  4062c8:	add    BYTE PTR [eax+0x0],ch
  4062cb:	add    BYTE PTR gs:[eax+eax*1+0x70],ch
  4062d0:	add    BYTE PTR [eax],al
  4062d2:	pop    ss
  4062d3:	sub    eax,0x72006500
  4062d8:	add    BYTE PTR [edx+0x0],dh
  4062db:	outs   dx,DWORD PTR ds:[esi]
  4062dc:	add    BYTE PTR [edx+0x0],dh
  4062df:	jae    0x4062e1
  4062e1:	je     0x4062e3
  4062e3:	popa   
  4062e4:	add    BYTE PTR [ebx+0x0],ah
  4062e7:	imul   eax,DWORD PTR [eax],0x1
  4062ea:	pop    ds
  4062eb:	add    BYTE PTR gs:[edx+0x0],dh
  4062ef:	jb     0x4062f1
  4062f1:	outs   dx,DWORD PTR ds:[esi]
  4062f2:	add    BYTE PTR [edx+0x0],dh
  4062f5:	jae    0x4062f7
  4062f7:	je     0x4062f9
  4062f9:	popa   
  4062fa:	add    BYTE PTR [ebx+0x0],ah
  4062fd:	imul   eax,DWORD PTR [eax],0x5f
  406300:	add    BYTE PTR [eax+0x0],ch
  406303:	add    BYTE PTR gs:[eax+eax*1+0x70],ch
  406308:	add    BYTE PTR [eax],al
  40630a:	adc    DWORD PTR [ebp+0x0],esp
  40630d:	js     0x40630f
  40630f:	popa   
  406310:	add    BYTE PTR [ebp+0x0],ch
  406313:	jo     0x406315
  406315:	ins    BYTE PTR es:[edi],dx
  406316:	add    BYTE PTR [ebp+0x0],ah
  406319:	jae    0x40631b
  40631b:	add    BYTE PTR [ecx],dl
  40631d:	add    BYTE PTR gs:[eax+0x0],bh
  406321:	popa   
  406322:	add    BYTE PTR [ebp+0x0],ch
  406325:	jo     0x406327
  406327:	ins    BYTE PTR es:[edi],dx
  406328:	add    BYTE PTR [ebp+0x0],ah
  40632b:	xor    DWORD PTR [eax],eax
  40632d:	add    BYTE PTR [ebx+0x20],dh
  406330:	add    BYTE PTR [eax],ah
  406332:	add    BYTE PTR [eax],ah
  406334:	add    BYTE PTR [eax],ah
  406336:	add    BYTE PTR [ecx+0x0],ah
  406339:	jae    0x40633b
  40633b:	jo     0x40633d
  40633d:	outs   dx,BYTE PTR ds:[esi]
  40633e:	add    BYTE PTR [ebp+0x0],ah
  406341:	je     0x406343
  406343:	pop    edi
  406344:	add    BYTE PTR [ebx+0x0],ah
  406347:	outs   dx,DWORD PTR ds:[esi]
  406348:	add    BYTE PTR [ebp+0x0],ch
  40634b:	jo     0x40634d
  40634d:	imul   eax,DWORD PTR [eax],0x65006c
  406353:	jb     0x406355
  406355:	and    BYTE PTR [eax],al
  406357:	sub    eax,0x20006d00
  40635c:	add    BYTE PTR [edi],ch
  40635e:	add    BYTE PTR [eax+eax*1+0x4d],cl
  406362:	add    BYTE PTR [edi],ch
  406364:	add    BYTE PTR [edi+0x0],dl
  406367:	xor    eax,DWORD PTR [eax]
  406369:	push   ebx
  40636a:	add    BYTE PTR [esi+0x0],dl
  40636d:	inc    ebx
  40636e:	add    BYTE PTR [edi],ch
  406370:	add    BYTE PTR [ecx],dh
  406372:	add    BYTE PTR [edi],ch
  406374:	add    BYTE PTR [edx+0x0],dl
  406377:	outs   dx,DWORD PTR ds:[esi]
  406378:	add    BYTE PTR [edi+0x0],ch
  40637b:	je     0x40637d
  40637d:	das    
  40637e:	add    BYTE PTR [ebp+0x0],cl
  406381:	jns    0x406383
  406383:	inc    ecx
  406384:	add    BYTE PTR [eax+0x0],dh
  406387:	jo     0x406389
  406389:	and    BYTE PTR [eax],al
  40638b:	arpl   WORD PTR [eax],ax
  40638d:	cmp    al,BYTE PTR [eax]
  40638f:	pop    esp
  406390:	add    BYTE PTR [ebp+0x0],cl
  406393:	jns    0x406395
  406395:	push   esp
  406396:	add    BYTE PTR [ecx+0x0],ah
  406399:	jb     0x40639b
  40639b:	add    BYTE PTR [di+0x0],ah
  40639f:	je     0x4063a1
  4063a1:	add    DWORD PTR [ebx+0x20],edx
  4063a4:	add    BYTE PTR [eax],ah
  4063a6:	add    BYTE PTR [eax],ah
  4063a8:	add    BYTE PTR [eax],ah
  4063aa:	add    BYTE PTR [ecx+0x0],ah
  4063ad:	jae    0x4063af
  4063af:	jo     0x4063b1
  4063b1:	outs   dx,BYTE PTR ds:[esi]
  4063b2:	add    BYTE PTR [ebp+0x0],ah
  4063b5:	je     0x4063b7
  4063b7:	pop    edi
  4063b8:	add    BYTE PTR [ebx+0x0],ah
  4063bb:	outs   dx,DWORD PTR ds:[esi]
  4063bc:	add    BYTE PTR [ebp+0x0],ch
  4063bf:	jo     0x4063c1
  4063c1:	imul   eax,DWORD PTR [eax],0x65006c
  4063c7:	jb     0x4063c9
  4063c9:	and    BYTE PTR [eax],al
  4063cb:	sub    eax,0x20007600
  4063d0:	add    BYTE PTR [edi],ch
  4063d2:	add    BYTE PTR [ebp+0x0],cl
  4063d5:	jns    0x4063d7
  4063d7:	inc    ecx
  4063d8:	add    BYTE PTR [eax+0x0],dh
  4063db:	jo     0x4063dd
  4063dd:	and    BYTE PTR [eax],al
  4063df:	arpl   WORD PTR [eax],ax
  4063e1:	cmp    al,BYTE PTR [eax]
  4063e3:	pop    esp
  4063e4:	add    BYTE PTR [ebp+0x0],cl
  4063e7:	jns    0x4063e9
  4063e9:	push   esp
  4063ea:	add    BYTE PTR [ecx+0x0],ah
  4063ed:	jb     0x4063ef
  4063ef:	add    BYTE PTR [di+0x0],ah
  4063f3:	je     0x4063f5
  4063f5:	add    DWORD PTR [ecx],edx
  4063f7:	add    BYTE PTR gs:[eax+0x0],bh
  4063fb:	popa   
  4063fc:	add    BYTE PTR [ebp+0x0],ch
  4063ff:	jo     0x406401
  406401:	ins    BYTE PTR es:[edi],dx
  406402:	add    BYTE PTR [ebp+0x0],ah
  406405:	xor    al,BYTE PTR [eax]
  406407:	add    BYTE PTR [ebx],bh
  406409:	and    BYTE PTR [eax],al
  40640b:	and    BYTE PTR [eax],al
  40640d:	and    BYTE PTR [eax],al
  40640f:	and    BYTE PTR [eax],al
  406411:	popa   
  406412:	add    BYTE PTR [ebx+0x0],dh
  406415:	jo     0x406417
  406417:	outs   dx,BYTE PTR ds:[esi]
  406418:	add    BYTE PTR [ebp+0x0],ah
  40641b:	je     0x40641d
  40641d:	pop    edi
  40641e:	add    BYTE PTR [ebx+0x0],ah
  406421:	outs   dx,DWORD PTR ds:[esi]
  406422:	add    BYTE PTR [ebp+0x0],ch
  406425:	jo     0x406427
  406427:	imul   eax,DWORD PTR [eax],0x65006c
  40642d:	jb     0x40642f
  40642f:	and    BYTE PTR [eax],al
  406431:	sub    eax,0x20007600
  406436:	add    BYTE PTR [edi],ch
  406438:	add    BYTE PTR [ebp+0x0],cl
  40643b:	jns    0x40643d
  40643d:	inc    ecx
  40643e:	add    BYTE PTR [eax+0x0],dh
  406441:	jo     0x406443
  406443:	add    DWORD PTR [ecx],edx
  406445:	add    BYTE PTR gs:[eax+0x0],bh
  406449:	popa   
  40644a:	add    BYTE PTR [ebp+0x0],ch
  40644d:	jo     0x40644f
  40644f:	ins    BYTE PTR es:[edi],dx
  406450:	add    BYTE PTR [ebp+0x0],ah
  406453:	xor    eax,DWORD PTR [eax]
  406455:	add    BYTE PTR [ebx+0x20],ch
  406458:	add    BYTE PTR [eax],ah
  40645a:	add    BYTE PTR [eax],ah
  40645c:	add    BYTE PTR [eax],ah
  40645e:	add    BYTE PTR [ecx+0x0],ah
  406461:	jae    0x406463
  406463:	jo     0x406465
  406465:	outs   dx,BYTE PTR ds:[esi]
  406466:	add    BYTE PTR [ebp+0x0],ah
  406469:	je     0x40646b
  40646b:	pop    edi
  40646c:	add    BYTE PTR [ebx+0x0],ah
  40646f:	outs   dx,DWORD PTR ds:[esi]
  406470:	add    BYTE PTR [ebp+0x0],ch
  406473:	jo     0x406475
  406475:	imul   eax,DWORD PTR [eax],0x65006c
  40647b:	jb     0x40647d
  40647d:	and    BYTE PTR [eax],al
  40647f:	sub    eax,0x20007600
  406484:	add    BYTE PTR [edi],ch
  406486:	add    BYTE PTR [ebp+0x0],cl
  406489:	jns    0x40648b
  40648b:	inc    ecx
  40648c:	add    BYTE PTR [eax+0x0],dh
  40648f:	jo     0x406491
  406491:	and    BYTE PTR [eax],al
  406493:	sub    eax,0x20007000
  406498:	add    BYTE PTR [ebx+0x0],ah
  40649b:	cmp    al,BYTE PTR [eax]
  40649d:	pop    esp
  40649e:	add    BYTE PTR [ebp+0x0],ch
  4064a1:	jns    0x4064a3
  4064a3:	popa   
  4064a4:	add    BYTE PTR [eax+0x0],dh
  4064a7:	jo     0x4064a9
  4064a9:	and    BYTE PTR [eax],al
  4064ab:	arpl   WORD PTR [eax],ax
  4064ad:	cmp    al,BYTE PTR [eax]
  4064af:	pop    esp
  4064b0:	add    BYTE PTR [ebp+0x0],cl
  4064b3:	jns    0x4064b5
  4064b5:	push   esp
  4064b6:	add    BYTE PTR [ecx+0x0],ah
  4064b9:	jb     0x4064bb
  4064bb:	add    BYTE PTR [di+0x0],ah
  4064bf:	je     0x4064c1
  4064c1:	add    DWORD PTR [edi],edx
  4064c3:	ins    DWORD PTR es:[edi],dx
  4064c4:	add    BYTE PTR [ecx+0x0],ch
  4064c7:	jae    0x4064c9
  4064c9:	jae    0x4064cb
  4064cb:	imul   eax,DWORD PTR [eax],0x67006e
  4064d1:	pop    edi
  4064d2:	add    BYTE PTR [ecx+0x0],ah
  4064d5:	jb     0x4064d7
  4064d7:	add    BYTE PTR [bx+si],al
  4064da:	or     DWORD PTR [ecx],esi
  4064dc:	add    BYTE PTR [eax],dh
  4064de:	add    BYTE PTR [eax],dh
  4064e0:	add    BYTE PTR [ecx],dh
  4064e2:	add    BYTE PTR [eax],al
  4064e4:	and    DWORD PTR [ebp+0x0],esi
  4064e7:	outs   dx,BYTE PTR ds:[esi]
  4064e8:	add    BYTE PTR [ebp+0x0],ah
  4064eb:	js     0x4064ed
  4064ed:	jo     0x4064ef
  4064ef:	add    BYTE PTR gs:[ebx+0x0],ah
  4064f3:	je     0x4064f5
  4064f5:	add    BYTE PTR gs:[eax+eax*1+0x5f],ah
  4064fa:	add    BYTE PTR [eax+0x0],dh
  4064fd:	popa   
  4064fe:	add    BYTE PTR [edx+0x0],dh
  406501:	popa   
  406502:	add    BYTE PTR [ebp+0x0],ch
  406505:	add    BYTE PTR [ebx],al
  406507:	aas    
  406508:	add    BYTE PTR [eax],al
  40650a:	add    ebp,DWORD PTR [ebp+0x0]
  40650d:	add    BYTE PTR [ebx],al
  40650f:	jbe    0x406511
  406511:	add    BYTE PTR [ebx],al
  406513:	jo     0x406515
  406515:	add    BYTE PTR [ebx],al
  406517:	jne    0x406519
  406519:	add    BYTE PTR [ebx],al
  40651b:	data16 add BYTE PTR [eax],al
  40651e:	add    esp,DWORD PTR [eax+eax*1+0x0]
  406522:	add    esp,DWORD PTR [ebx+0x0]
  406525:	add    BYTE PTR ds:0x6f006e,cl
  40652b:	ins    BYTE PTR es:[edi],dx
  40652c:	add    BYTE PTR [edi+0x0],ch
  40652f:	add    BYTE PTR [bx+0x0],ch
  406533:	add    BYTE PTR ds:0x720065,dl
  406539:	jb     0x40653b
  40653b:	outs   dx,DWORD PTR ds:[esi]
  40653c:	add    BYTE PTR [edx+0x0],dh
  40653f:	jae    0x406541
  406541:	je     0x406543
  406543:	popa   
  406544:	add    BYTE PTR [ebx+0x0],ah
  406547:	imul   eax,DWORD PTR [eax],0x0
  40654a:	packssdw mm0,QWORD PTR [eax]
  40654d:	add    BYTE PTR gs:[ecx+0x0],bh
  406551:	data16 add BYTE PTR [ecx+0x0],ch
  406555:	ins    BYTE PTR es:[edi],dx
  406556:	add    BYTE PTR [ebp+0x0],ah
  406559:	add    BYTE PTR [ecx],bl
  40655b:	imul   eax,DWORD PTR [eax],0x65
  40655e:	add    BYTE PTR [ecx+0x0],bh
  406561:	arpl   WORD PTR [eax],ax
  406563:	outs   dx,DWORD PTR ds:[esi]
  406564:	add    BYTE PTR [esi+0x0],ch
  406567:	je     0x406569
  406569:	popa   
  40656a:	add    BYTE PTR [ecx+0x0],ch
  40656d:	outs   dx,BYTE PTR ds:[esi]
  40656e:	add    BYTE PTR [ebp+0x0],ah
  406571:	jb     0x406573
  406573:	add    BYTE PTR [ebx],cl
  406575:	popa   
  406576:	add    BYTE PTR [eax+0x0],dh
  406579:	je     0x40657b
  40657b:	arpl   WORD PTR [eax],ax
  40657d:	popa   
  40657e:	add    BYTE PTR [eax],al
  406580:	adc    esp,DWORD PTR [eax+eax*1+0x65]
  406584:	add    BYTE PTR [eax+eax*1+0x61],ch
  406588:	add    BYTE PTR [ecx+0x0],bh
  40658b:	jae    0x40658d
  40658d:	imul   eax,DWORD PTR [eax],0x6e0067
  406593:	add    BYTE PTR ds:0x690066,dl
  406599:	js     0x40659b
  40659b:	add    BYTE PTR gs:[eax+eax*1+0x6e],ah
  4065a0:	add    BYTE PTR [ecx+0x0],ah
  4065a3:	ins    DWORD PTR es:[edi],dx
  4065a4:	add    BYTE PTR [ebp+0x0],ah
  4065a7:	jae    0x4065a9
  4065a9:	add    BYTE PTR [ecx],cl
  4065ab:	xor    DWORD PTR [eax],eax
  4065ad:	xor    BYTE PTR [eax],al
  4065af:	xor    BYTE PTR [eax],al
  4065b1:	xor    al,BYTE PTR [eax]
  4065b3:	add    BYTE PTR ds:0x610062,dl
  4065b9:	add    BYTE PTR fs:[edi+0x0],bl
  4065bd:	ins    DWORD PTR es:[edi],dx
  4065be:	add    BYTE PTR [eax+eax*1+0x70],ah
  4065c2:	add    BYTE PTR [ecx+0x0],ah
  4065c5:	je     0x4065c7
  4065c7:	push   0x31090000
  4065cc:	add    BYTE PTR [eax],dh
  4065ce:	add    BYTE PTR [ecx],dh
  4065d0:	add    BYTE PTR [ecx],dh
  4065d2:	add    BYTE PTR [eax],al
  4065d4:	sbb    ebp,DWORD PTR [ecx+0x0]
  4065d7:	outs   dx,BYTE PTR ds:[esi]
  4065d8:	add    BYTE PTR [esi+0x0],dh
  4065db:	popa   
  4065dc:	add    BYTE PTR [eax+eax*1+0x69],ch
  4065e0:	add    BYTE PTR [eax+eax*1+0x5f],ah
  4065e4:	add    BYTE PTR [esi+0x0],dh
  4065e7:	jo     0x4065e9
  4065e9:	popa   
  4065ea:	add    BYTE PTR [eax+eax*1+0x68],dh
  4065ee:	add    BYTE PTR [eax],al
  4065f0:	or     DWORD PTR [ecx],esi
  4065f2:	add    BYTE PTR [eax],dh
  4065f4:	add    BYTE PTR [eax],dh
  4065f6:	add    BYTE PTR [ebx],dh
  4065f8:	add    BYTE PTR [eax],al
  4065fa:	sbb    esp,DWORD PTR [eax+eax*1+0x69]
  4065fe:	add    BYTE PTR [edx+0x0],dh
  406601:	pop    edi
  406602:	add    BYTE PTR [esi+0x0],ch
  406605:	outs   dx,DWORD PTR ds:[esi]
  406606:	add    BYTE PTR [eax+eax*1+0x5f],dh
  40660a:	add    BYTE PTR [ebp+0x0],ah
  40660d:	js     0x40660f
  40660f:	imul   eax,DWORD PTR [eax],0x740073
  406615:	add    BYTE PTR [ecx],cl
  406617:	xor    DWORD PTR [eax],eax
  406619:	xor    BYTE PTR [eax],al
  40661b:	xor    DWORD PTR [eax],eax
  40661d:	xor    al,BYTE PTR [eax]
  40661f:	add    BYTE PTR [edi],bl
  406621:	imul   eax,DWORD PTR [eax],0x76006e
  406627:	popa   
  406628:	add    BYTE PTR [eax+eax*1+0x69],ch
  40662c:	add    BYTE PTR [eax+eax*1+0x5f],ah
  406630:	add    BYTE PTR [ebx+0x0],ch
  406633:	add    BYTE PTR gs:[ecx+0x0],bh
  406637:	data16 add BYTE PTR [ecx+0x0],ch
  40663b:	ins    BYTE PTR es:[edi],dx
  40663c:	add    BYTE PTR [ebp+0x0],ah
  40663f:	add    BYTE PTR [ecx],cl
  406641:	xor    DWORD PTR [eax],eax
  406643:	xor    BYTE PTR [eax],al
  406645:	xor    BYTE PTR [eax],al
  406647:	xor    al,0x0
  406649:	add    BYTE PTR ds:0x6e0075,bl
  40664f:	imul   eax,DWORD PTR [eax],0x6e
  406652:	add    BYTE PTR [edi+0x0],ch
  406655:	ja     0x406657
  406657:	outs   dx,BYTE PTR ds:[esi]
  406658:	add    BYTE PTR [edi+0x0],bl
  40665b:	jae    0x40665d
  40665d:	ja     0x40665f
  40665f:	imul   eax,DWORD PTR [eax],0x630074
  406665:	push   0x31090000
  40666a:	add    BYTE PTR [eax],dh
  40666c:	add    BYTE PTR [eax],dh
  40666e:	add    BYTE PTR ds:0x6e170000,dh
  406674:	add    BYTE PTR [ebp+0x0],ah
  406677:	add    BYTE PTR gs:[eax+eax*1+0x5f],ah
  40667c:	add    BYTE PTR [ebp+0x0],ch
  40667f:	pop    edi
  406680:	add    BYTE PTR [edi+0x0],ch
  406683:	jb     0x406685
  406685:	pop    edi
  406686:	add    BYTE PTR [esi+0x0],dh
  406689:	add    BYTE PTR [ecx],cl
  40668b:	xor    DWORD PTR [eax],eax
  40668d:	xor    BYTE PTR [eax],al
  40668f:	xor    BYTE PTR [eax],al
  406691:	add    BYTE PTR ss:[eax],al
  406694:	adc    eax,0x6f006e
  406699:	pop    edi
  40669a:	add    BYTE PTR [ebp+0x0],ch
  40669d:	pop    edi
  40669e:	add    BYTE PTR [ecx+0x0],ah
  4066a1:	outs   dx,BYTE PTR ds:[esi]
  4066a2:	add    BYTE PTR [eax+eax*1+0x5f],ah
  4066a6:	add    BYTE PTR [eax+0x0],dh
  4066a9:	add    BYTE PTR [ecx],cl
  4066ab:	xor    DWORD PTR [eax],eax
  4066ad:	xor    BYTE PTR [eax],al
  4066af:	xor    BYTE PTR [eax],al
  4066b1:	aaa    
  4066b2:	add    BYTE PTR [eax],al
  4066b4:	sub    DWORD PTR [esi+0x0],esp
  4066b7:	ins    BYTE PTR es:[edi],dx
  4066b8:	add    BYTE PTR [ecx+0x0],ah
  4066bb:	add    BYTE PTR [bx+0x0],bl
  4066bf:	jb     0x4066c1
  4066c1:	add    BYTE PTR gs:[ecx+0x0],dh
  4066c5:	jne    0x4066c7
  4066c7:	imul   eax,DWORD PTR [eax],0x650072
  4066cd:	jae    0x4066cf
  4066cf:	pop    edi
  4066d0:	add    BYTE PTR [eax+eax*1+0x61],dh
  4066d4:	add    BYTE PTR [edx+0x0],dh
  4066d7:	add    BYTE PTR [di+0x0],ah
  4066db:	je     0x4066dd
  4066dd:	add    BYTE PTR [ecx],cl
  4066df:	xor    DWORD PTR [eax],eax
  4066e1:	xor    BYTE PTR [eax],al
  4066e3:	xor    BYTE PTR [eax],al
  4066e5:	cmp    BYTE PTR [eax],al
  4066e7:	add    BYTE PTR [ecx],cl
  4066e9:	xor    DWORD PTR [eax],eax
  4066eb:	xor    BYTE PTR [eax],al
  4066ed:	xor    BYTE PTR [eax],al
  4066ef:	cmp    DWORD PTR [eax],eax
  4066f1:	add    BYTE PTR [ecx],cl
  4066f3:	xor    DWORD PTR [eax],eax
  4066f5:	xor    BYTE PTR [eax],al
  4066f7:	xor    DWORD PTR [eax],eax
  4066f9:	aaa    
  4066fa:	add    BYTE PTR [eax],al
  4066fc:	or     DWORD PTR [ecx],esi
  4066fe:	add    BYTE PTR [eax],dh
  406700:	add    BYTE PTR [ecx],dh
  406702:	add    BYTE PTR [eax],bh
  406704:	add    BYTE PTR [eax],al
  406706:	or     DWORD PTR [ecx],esi
  406708:	add    BYTE PTR [eax],dh
  40670a:	add    BYTE PTR [ecx],dh
  40670c:	add    BYTE PTR [ecx],bh
  40670e:	add    BYTE PTR [eax],al
  406710:	or     DWORD PTR [ecx],esi
  406712:	add    BYTE PTR [eax],dh
  406714:	add    BYTE PTR [ecx],dh
  406716:	add    BYTE PTR [ebx],dh
  406718:	add    BYTE PTR [eax],al
  40671a:	and    ebp,DWORD PTR [ecx+0x0]
  40671d:	outs   dx,BYTE PTR ds:[esi]
  40671e:	add    BYTE PTR [esi+0x0],dh
  406721:	popa   
  406722:	add    BYTE PTR [eax+eax*1+0x69],ch
  406726:	add    BYTE PTR [eax+eax*1+0x5f],ah
  40672a:	add    BYTE PTR [eax+eax*1+0x65],ah
  40672e:	add    BYTE PTR [eax+eax*1+0x61],ch
  406732:	add    BYTE PTR [ecx+0x0],bh
  406735:	jae    0x406737
  406737:	imul   eax,DWORD PTR [eax],0x6e0067
  40673d:	add    BYTE PTR [ecx],cl
  40673f:	xor    DWORD PTR [eax],eax
  406741:	xor    BYTE PTR [eax],al
  406743:	xor    DWORD PTR [eax],eax
  406745:	xor    eax,0x31090000
  40674a:	add    BYTE PTR [eax],dh
  40674c:	add    BYTE PTR [ecx],dh
  40674e:	add    BYTE PTR [eax+eax*1],dh
  406751:	add    BYTE PTR [ebx],bl
  406753:	imul   eax,DWORD PTR [eax],0x76006e
  406759:	popa   
  40675a:	add    BYTE PTR [eax+eax*1+0x69],ch
  40675e:	add    BYTE PTR [eax+eax*1+0x5f],ah
  406762:	add    BYTE PTR [ecx+0x0],ah
  406765:	jo     0x406767
  406767:	je     0x406769
  406769:	arpl   WORD PTR [eax],ax
  40676b:	popa   
  40676c:	add    BYTE PTR [eax],al
  40676e:	or     DWORD PTR [ecx],esi
  406770:	add    BYTE PTR [eax],dh
  406772:	add    BYTE PTR [ecx],dh
  406774:	add    BYTE PTR [esi],dh
  406776:	add    BYTE PTR [eax],al
  406778:	or     DWORD PTR [ecx],esi
  40677a:	add    BYTE PTR [eax],dh
  40677c:	add    BYTE PTR [ecx],dh
  40677e:	add    BYTE PTR [eax],dh
  406780:	add    BYTE PTR [eax],al
  406782:	sbb    DWORD PTR [ecx+0x0],ebp
  406785:	outs   dx,BYTE PTR ds:[esi]
  406786:	add    BYTE PTR [esi+0x0],dh
  406789:	popa   
  40678a:	add    BYTE PTR [eax+eax*1+0x69],ch
  40678e:	add    BYTE PTR [eax+eax*1+0x5f],ah
  406792:	add    BYTE PTR [eax+0x0],dh
  406795:	popa   
  406796:	add    BYTE PTR [eax+eax*1+0x68],dh
  40679a:	add    BYTE PTR [eax],al
  40679c:	adc    eax,DWORD PTR [ecx+0x0]
  40679f:	push   ebx
  4067a0:	add    BYTE PTR [eax+0x0],dl
  4067a3:	inc    ebx
  4067a4:	add    BYTE PTR [edi+0x0],cl
  4067a7:	dec    esi
  4067a8:	add    BYTE PTR [esi+0x0],al
  4067ab:	dec    ecx
  4067ac:	add    BYTE PTR [edi+0x0],al
  4067af:	add    BYTE PTR ds:0x530041,dl
  4067b5:	push   eax
  4067b6:	add    BYTE PTR [edx+0x0],dl
  4067b9:	push   ebp
  4067ba:	add    BYTE PTR [esi+0x0],cl
  4067bd:	push   esp
  4067be:	add    BYTE PTR [ecx+0x0],cl
  4067c1:	dec    ebp
  4067c2:	add    BYTE PTR [ebp+0x0],al
  4067c5:	add    BYTE PTR [ebx],al
  4067c7:	pop    ebx
  4067c8:	add    BYTE PTR [eax],al
  4067ca:	add    ebx,DWORD PTR [ebp+0x0]
  4067cd:	add    BYTE PTR ds:0x20003a,al
  4067d3:	add    BYTE PTR [ebx],al
  4067d5:	sub    BYTE PTR [eax],al
  4067d7:	add    BYTE PTR [edi],al
  4067d9:	sub    DWORD PTR [eax],eax
  4067db:	cmp    al,BYTE PTR [eax]
  4067dd:	and    BYTE PTR [eax],al
  4067df:	add    BYTE PTR [ecx],dl
  4067e1:	ja     0x4067e3
  4067e3:	popa   
  4067e4:	add    BYTE PTR [edx+0x0],dh
  4067e7:	outs   dx,BYTE PTR ds:[esi]
  4067e8:	add    BYTE PTR [ecx+0x0],ch
  4067eb:	outs   dx,BYTE PTR ds:[esi]
  4067ec:	add    BYTE PTR [edi+0x0],ah
  4067ef:	and    BYTE PTR [eax],al
  4067f1:	add    BYTE PTR ds:0x720065,cl
  4067f7:	jb     0x4067f9
  4067f9:	outs   dx,DWORD PTR ds:[esi]
  4067fa:	add    BYTE PTR [edx+0x0],dh
  4067fd:	and    BYTE PTR [eax],al
  4067ff:	add    BYTE PTR ds:0x6c002f,dl
  406805:	ins    DWORD PTR es:[edi],dx
  406806:	add    BYTE PTR [edi],ch
  406808:	add    BYTE PTR [edi+0x0],dh
  40680b:	xor    eax,DWORD PTR [eax]
  40680d:	jae    0x40680f
  40680f:	jbe    0x406811
  406811:	arpl   WORD PTR [eax],ax
  406813:	das    
  406814:	add    BYTE PTR [eax],al
  406816:	or     DWORD PTR [edx+0x0],esi
  406819:	outs   dx,DWORD PTR ds:[esi]
  40681a:	add    BYTE PTR [edi+0x0],ch
  40681d:	je     0x40681f
  40681f:	add    BYTE PTR [ecx],dl
  406821:	inc    ecx
  406822:	add    BYTE PTR [ebx+0x0],dl
  406825:	push   eax
  406826:	add    BYTE PTR [eax+0x0],dl
  406829:	inc    ecx
  40682a:	add    BYTE PTR [edx+0x0],dl
  40682d:	push   ebx
  40682e:	add    BYTE PTR [ebp+0x0],al
  406831:	add    BYTE PTR [eax],al
  406833:	add    BYTE PTR [esi+eiz*2-0x33],dl
  406837:	fs test al,0x40
  40683a:	mov    cs,WORD PTR [esi-0x60]
  40683d:	call   0xf775:0x40ae1845
  406844:	add    BYTE PTR [eax],cl
  406846:	mov    bh,0x7a
  406848:	pop    esp
  406849:	push   esi
  40684a:	sbb    DWORD PTR [eax+eiz*8],esi
  40684d:	mov    DWORD PTR [eax],ecx
  40684f:	mov    al,0x3f
  406851:	pop    edi
  406852:	jg     0x406865
  406854:	aad    0xa
  406856:	cmp    al,BYTE PTR [edx]
  406858:	push   es
  406859:	add    al,BYTE PTR [eax+eiz*1]
  40685c:	add    DWORD PTR [ecx],eax
  40685e:	push   cs
  40685f:	add    esp,DWORD PTR [eax]
  406861:	add    BYTE PTR [esi],cl
  406863:	add    ebp,DWORD PTR [eax]
  406865:	add    BYTE PTR [esi],cl
  406867:	add    al,0x20
  406869:	add    DWORD PTR [esi],ecx
  40686b:	push   cs
  40686c:	add    al,BYTE PTR [esi]
  40686e:	push   cs
  40686f:	push   cs
  406870:	pop    edi
  406871:	add    BYTE PTR [ebx+0x0],dh
  406874:	add    BYTE PTR gs:[eax+0x0],dh
  406878:	xor    BYTE PTR [eax],al
  40687a:	xor    DWORD PTR [eax],eax
  40687c:	pop    edi
  40687d:	add    BYTE PTR [esi],dl
  40687f:	push   0x61006500
  406884:	add    BYTE PTR [eax+eax*1+0x65],ah
  406888:	add    BYTE PTR [edx+0x0],dh
  40688b:	pop    edi
  40688c:	add    BYTE PTR [eax+eax*1+0x65],dh
  406890:	add    BYTE PTR [eax+0x0],bh
  406893:	je     0x406895
  406895:	adc    ah,BYTE PTR [ebx+0x0]
  406898:	outs   dx,DWORD PTR ds:[esi]
  406899:	add    BYTE PTR [eax+0x0],dh
  40689c:	jns    0x40689e
  40689e:	jb     0x4068a0
  4068a0:	imul   eax,DWORD PTR [eax],0x680067
  4068a6:	je     0x4068a8
  4068a8:	and    BYTE PTR [ebx+0x0],dh
  4068ab:	push   0x72006f00
  4068b0:	add    BYTE PTR [eax+eax*1+0x5f],dh
  4068b4:	add    BYTE PTR [ebp+0x0],dh
  4068b7:	jae    0x4068b9
  4068b9:	popa   
  4068ba:	add    BYTE PTR [edi+0x0],ah
  4068bd:	add    BYTE PTR gs:[edi+0x0],bl
  4068c1:	je     0x4068c3
  4068c3:	add    BYTE PTR gs:[eax+0x0],bh
  4068c7:	je     0x4068c9
  4068c9:	or     dh,BYTE PTR [ebp+0x0]
  4068cc:	jae    0x4068ce
  4068ce:	popa   
  4068cf:	add    BYTE PTR [edi+0x0],ah
  4068d2:	add    BYTE PTR gs:[edx],ah
  4068d5:	jno    0x4068d7
  4068d7:	jne    0x4068d9
  4068d9:	add    BYTE PTR gs:[ebx+0x0],dh
  4068dd:	je     0x4068df
  4068df:	imul   eax,DWORD PTR [eax],0x6e006f
  4068e5:	ins    DWORD PTR es:[edi],dx
  4068e6:	add    BYTE PTR [ecx+0x0],ah
  4068e9:	jb     0x4068eb
  4068eb:	imul   eax,DWORD PTR [eax],0x5f
  4068ee:	add    BYTE PTR [eax+0x0],ch
  4068f1:	add    BYTE PTR gs:[eax+eax*1+0x70],ch
  4068f6:	add    BYTE PTR [ebp*2+0x68005f00],cl
  4068fd:	add    BYTE PTR [ebp+0x0],ah
  406900:	ins    BYTE PTR es:[edi],dx
  406901:	add    BYTE PTR [eax+0x0],dh
  406904:	or     al,0x76
  406906:	add    BYTE PTR [edi+0x0],bl
  406909:	push   0x6c006500
  40690e:	add    BYTE PTR [eax+0x0],dh
  406911:	or     al,0x70
  406913:	add    BYTE PTR [edi+0x0],bl
  406916:	push   0x6c006500
  40691b:	add    BYTE PTR [eax+0x0],dh
  40691e:	or     al,0x75
  406920:	add    BYTE PTR [edi+0x0],bl
  406923:	push   0x6c006500
  406928:	add    BYTE PTR [eax+0x0],dh
  40692b:	or     al,0x66
  40692d:	add    BYTE PTR [edi+0x0],bl
  406930:	push   0x6c006500
  406935:	add    BYTE PTR [eax+0x0],dh
  406938:	or     al,0x64
  40693a:	add    BYTE PTR [edi+0x0],bl
  40693d:	push   0x6c006500
  406942:	add    BYTE PTR [eax+0x0],dh
  406945:	or     al,0x63
  406947:	add    BYTE PTR [edi+0x0],bl
  40694a:	push   0x6c006500
  40694f:	add    BYTE PTR [eax+0x0],dh
  406952:	push   ss
  406953:	outs   dx,BYTE PTR ds:[esi]
  406954:	add    BYTE PTR [edi+0x0],ch
  406957:	ins    BYTE PTR es:[edi],dx
  406958:	add    BYTE PTR [edi+0x0],ch
  40695b:	add    BYTE PTR [bx+0x0],ch
  40695f:	pop    edi
  406960:	add    BYTE PTR [eax+0x0],ch
  406963:	add    BYTE PTR gs:[eax+eax*1+0x70],ch
  406968:	add    BYTE PTR [esi],bl
  40696a:	add    BYTE PTR gs:[edx+0x0],dh
  40696e:	jb     0x406970
  406970:	outs   dx,DWORD PTR ds:[esi]
  406971:	add    BYTE PTR [edx+0x0],dh
  406974:	jae    0x406976
  406976:	je     0x406978
  406978:	popa   
  406979:	add    BYTE PTR [ebx+0x0],ah
  40697c:	imul   eax,DWORD PTR [eax],0x5f
  40697f:	add    BYTE PTR [eax+0x0],ch
  406982:	add    BYTE PTR gs:[eax+eax*1+0x70],ch
  406987:	add    BYTE PTR [eax],bl
  406989:	imul   eax,DWORD PTR [eax],0x65
  40698c:	add    BYTE PTR [ecx+0x0],bh
  40698f:	data16 add BYTE PTR [ecx+0x0],ch
  406993:	ins    BYTE PTR es:[edi],dx
  406994:	add    BYTE PTR [ebp+0x0],ah
  406997:	pop    edi
  406998:	add    BYTE PTR [eax+0x0],ch
  40699b:	add    BYTE PTR gs:[eax+eax*1+0x70],ch
  4069a0:	add    BYTE PTR [edx],ah
  4069a2:	imul   eax,DWORD PTR [eax],0x65
  4069a5:	add    BYTE PTR [ecx+0x0],bh
  4069a8:	arpl   WORD PTR [eax],ax
  4069aa:	outs   dx,DWORD PTR ds:[esi]
  4069ab:	add    BYTE PTR [esi+0x0],ch
  4069ae:	je     0x4069b0
  4069b0:	popa   
  4069b1:	add    BYTE PTR [ecx+0x0],ch
  4069b4:	outs   dx,BYTE PTR ds:[esi]
  4069b5:	add    BYTE PTR [ebp+0x0],ah
  4069b8:	jb     0x4069ba
  4069ba:	pop    edi
  4069bb:	add    BYTE PTR [eax+0x0],ch
  4069be:	add    BYTE PTR gs:[eax+eax*1+0x70],ch
  4069c3:	add    BYTE PTR [ecx+eiz*2],dl
  4069c6:	add    BYTE PTR [eax+0x0],dh
  4069c9:	je     0x4069cb
  4069cb:	arpl   WORD PTR [eax],ax
  4069cd:	popa   
  4069ce:	add    BYTE PTR [edi+0x0],bl
  4069d1:	push   0x6c006500
  4069d6:	add    BYTE PTR [eax+0x0],dh
  4069d9:	sbb    al,0x64
  4069db:	add    BYTE PTR [ebp+0x0],ah
  4069de:	ins    BYTE PTR es:[edi],dx
  4069df:	add    BYTE PTR [ecx+0x0],ah
  4069e2:	jns    0x4069e4
  4069e4:	jae    0x4069e6
  4069e6:	imul   eax,DWORD PTR [eax],0x6e0067
  4069ec:	pop    edi
  4069ed:	add    BYTE PTR [eax+0x0],ch
  4069f0:	add    BYTE PTR gs:[eax+eax*1+0x70],ch
  4069f5:	add    BYTE PTR [esp+esi*2],bl
  4069f8:	add    BYTE PTR [ecx+0x0],ah
  4069fb:	jb     0x4069fd
  4069fd:	add    BYTE PTR [di+0x0],ah
  406a01:	je     0x406a03
  406a03:	inc    esp
  406a04:	add    BYTE PTR [ecx+0x0],ch
  406a07:	jb     0x406a09
  406a09:	pop    edi
  406a0a:	add    BYTE PTR [eax+0x0],ch
  406a0d:	add    BYTE PTR gs:[eax+eax*1+0x70],ch
  406a12:	add    BYTE PTR [esi],bl
  406a14:	data16 add BYTE PTR [ecx+0x0],ch
  406a18:	js     0x406a1a
  406a1a:	add    BYTE PTR gs:[eax+eax*1+0x6e],ah
  406a1f:	add    BYTE PTR [ecx+0x0],ah
  406a22:	ins    DWORD PTR es:[edi],dx
  406a23:	add    BYTE PTR [ebp+0x0],ah
  406a26:	jae    0x406a28
  406a28:	pop    edi
  406a29:	add    BYTE PTR [eax+0x0],ch
  406a2c:	add    BYTE PTR gs:[eax+eax*1+0x70],ch
  406a31:	add    BYTE PTR [eax],dl
  406a33:	add    BYTE PTR gs:[eax+0x0],bh
  406a37:	popa   
  406a38:	add    BYTE PTR [ebp+0x0],ch
  406a3b:	jo     0x406a3d
  406a3d:	ins    BYTE PTR es:[edi],dx
  406a3e:	add    BYTE PTR [ebp+0x0],ah
  406a41:	jae    0x406a43
  406a43:	adc    BYTE PTR [ebp+0x0],ah
  406a46:	js     0x406a48
  406a48:	popa   
  406a49:	add    BYTE PTR [ebp+0x0],ch
  406a4c:	jo     0x406a4e
  406a4e:	ins    BYTE PTR es:[edi],dx
  406a4f:	add    BYTE PTR [ebp+0x0],ah
  406a52:	xor    DWORD PTR [eax],eax
  406a54:	adc    BYTE PTR [ebp+0x0],ah
  406a57:	js     0x406a59
  406a59:	popa   
  406a5a:	add    BYTE PTR [ebp+0x0],ch
  406a5d:	jo     0x406a5f
  406a5f:	ins    BYTE PTR es:[edi],dx
  406a60:	add    BYTE PTR [ebp+0x0],ah
  406a63:	xor    al,BYTE PTR [eax]
  406a65:	adc    BYTE PTR [ebp+0x0],ah
  406a68:	js     0x406a6a
  406a6a:	popa   
  406a6b:	add    BYTE PTR [ebp+0x0],ch
  406a6e:	jo     0x406a70
  406a70:	ins    BYTE PTR es:[edi],dx
  406a71:	add    BYTE PTR [ebp+0x0],ah
  406a74:	xor    eax,DWORD PTR [eax]
  406a76:	push   ss
  406a77:	ins    DWORD PTR es:[edi],dx
  406a78:	add    BYTE PTR [ecx+0x0],ch
  406a7b:	jae    0x406a7d
  406a7d:	jae    0x406a7f
  406a7f:	imul   eax,DWORD PTR [eax],0x67006e
  406a85:	pop    edi
  406a86:	add    BYTE PTR [ecx+0x0],ah
  406a89:	jb     0x406a8b
  406a8b:	add    BYTE PTR [bx+si],ah
  406a8e:	jne    0x406a90
  406a90:	outs   dx,BYTE PTR ds:[esi]
  406a91:	add    BYTE PTR [ebp+0x0],ah
  406a94:	js     0x406a96
  406a96:	jo     0x406a98
  406a98:	add    BYTE PTR gs:[ebx+0x0],ah
  406a9c:	je     0x406a9e
  406a9e:	add    BYTE PTR gs:[eax+eax*1+0x5f],ah
  406aa3:	add    BYTE PTR [eax+0x0],dh
  406aa6:	popa   
  406aa7:	add    BYTE PTR [edx+0x0],dh
  406aaa:	popa   
  406aab:	add    BYTE PTR [ebp+0x0],ch
  406aae:	sbb    al,0x75
  406ab0:	add    BYTE PTR [esi+0x0],ch
  406ab3:	imul   eax,DWORD PTR [eax],0x6e
  406ab6:	add    BYTE PTR [edi+0x0],ch
  406ab9:	ja     0x406abb
  406abb:	outs   dx,BYTE PTR ds:[esi]
  406abc:	add    BYTE PTR [edi+0x0],bl
  406abf:	jae    0x406ac1
  406ac1:	ja     0x406ac3
  406ac3:	imul   eax,DWORD PTR [eax],0x630074
  406ac9:	push   0x621400
  406ace:	popa   
  406acf:	add    BYTE PTR [eax+eax*1+0x5f],ah
  406ad3:	add    BYTE PTR [ebp+0x0],ch
  406ad6:	add    BYTE PTR fs:[eax+0x0],dh
  406ada:	popa   
  406adb:	add    BYTE PTR [eax+eax*1+0x68],dh
  406adf:	add    BYTE PTR [ebx+edx*2],ah
  406ae2:	add    BYTE PTR [eax+eax*1+0x72],dh
  406ae6:	add    BYTE PTR [edi+0x0],ch
  406ae9:	outs   dx,BYTE PTR ds:[esi]
  406aea:	add    BYTE PTR [edi+0x0],ah
  406aed:	outs   dx,BYTE PTR ds:[esi]
  406aee:	add    BYTE PTR [ecx+0x0],ah
  406af1:	ins    DWORD PTR es:[edi],dx
  406af2:	add    BYTE PTR [ebp+0x0],ah
  406af5:	pop    edi
  406af6:	add    BYTE PTR [esi+0x0],ah
  406af9:	popa   
  406afa:	add    BYTE PTR [ecx+0x0],ch
  406afd:	ins    BYTE PTR es:[edi],dx
  406afe:	add    BYTE PTR [ebp+0x0],dh
  406b01:	jb     0x406b03
  406b03:	add    BYTE PTR gs:[eax],bl
  406b06:	imul   eax,DWORD PTR [eax],0x76006e
  406b0c:	popa   
  406b0d:	add    BYTE PTR [eax+eax*1+0x69],ch
  406b11:	add    BYTE PTR [eax+eax*1+0x5f],ah
  406b15:	add    BYTE PTR [eax+0x0],dh
  406b18:	popa   
  406b19:	add    BYTE PTR [eax+eax*1+0x68],dh
  406b1d:	add    BYTE PTR [edx],bl
  406b1f:	imul   eax,DWORD PTR [eax],0x76006e
  406b25:	popa   
  406b26:	add    BYTE PTR [eax+eax*1+0x69],ch
  406b2a:	add    BYTE PTR [eax+eax*1+0x5f],ah
  406b2e:	add    BYTE PTR [esi+0x0],dh
  406b31:	jo     0x406b33
  406b33:	popa   
  406b34:	add    BYTE PTR [eax+eax*1+0x68],dh
  406b38:	add    BYTE PTR [edx],bl
  406b3a:	add    BYTE PTR fs:[ecx+0x0],ch
  406b3e:	jb     0x406b40
  406b40:	pop    edi
  406b41:	add    BYTE PTR [esi+0x0],ch
  406b44:	outs   dx,DWORD PTR ds:[esi]
  406b45:	add    BYTE PTR [eax+eax*1+0x5f],dh
  406b49:	add    BYTE PTR [ebp+0x0],ah
  406b4c:	js     0x406b4e
  406b4e:	imul   eax,DWORD PTR [eax],0x740073
  406b54:	push   ss
  406b55:	outs   dx,BYTE PTR ds:[esi]
  406b56:	add    BYTE PTR [ebp+0x0],ah
  406b59:	add    BYTE PTR gs:[eax+eax*1+0x5f],ah
  406b5e:	add    BYTE PTR [ebp+0x0],ch
  406b61:	pop    edi
  406b62:	add    BYTE PTR [edi+0x0],ch
  406b65:	jb     0x406b67
  406b67:	pop    edi
  406b68:	add    BYTE PTR [esi+0x0],dh
  406b6b:	adc    al,0x6e
  406b6d:	add    BYTE PTR [edi+0x0],ch
  406b70:	pop    edi
  406b71:	add    BYTE PTR [ebp+0x0],ch
  406b74:	pop    edi
  406b75:	add    BYTE PTR [ecx+0x0],ah
  406b78:	outs   dx,BYTE PTR ds:[esi]
  406b79:	add    BYTE PTR [eax+eax*1+0x5f],ah
  406b7d:	add    BYTE PTR [eax+0x0],dh
  406b80:	sub    BYTE PTR [esi+0x0],ah
  406b83:	ins    BYTE PTR es:[edi],dx
  406b84:	add    BYTE PTR [ecx+0x0],ah
  406b87:	add    BYTE PTR [bx+0x0],bl
  406b8b:	jb     0x406b8d
  406b8d:	add    BYTE PTR gs:[ecx+0x0],dh
  406b91:	jne    0x406b93
  406b93:	imul   eax,DWORD PTR [eax],0x650072
  406b99:	jae    0x406b9b
  406b9b:	pop    edi
  406b9c:	add    BYTE PTR [eax+eax*1+0x61],dh
  406ba0:	add    BYTE PTR [edx+0x0],dh
  406ba3:	add    BYTE PTR [di+0x0],ah
  406ba7:	je     0x406ba9
  406ba9:	push   ds
  406baa:	imul   eax,DWORD PTR [eax],0x76006e
  406bb0:	popa   
  406bb1:	add    BYTE PTR [eax+eax*1+0x69],ch
  406bb5:	add    BYTE PTR [eax+eax*1+0x5f],ah
  406bb9:	add    BYTE PTR [ebx+0x0],ch
  406bbc:	add    BYTE PTR gs:[ecx+0x0],bh
  406bc0:	data16 add BYTE PTR [ecx+0x0],ch
  406bc4:	ins    BYTE PTR es:[edi],dx
  406bc5:	add    BYTE PTR [ebp+0x0],ah
  406bc8:	and    ch,BYTE PTR [ecx+0x0]
  406bcb:	outs   dx,BYTE PTR ds:[esi]
  406bcc:	add    BYTE PTR [esi+0x0],dh
  406bcf:	popa   
  406bd0:	add    BYTE PTR [eax+eax*1+0x69],ch
  406bd4:	add    BYTE PTR [eax+eax*1+0x5f],ah
  406bd8:	add    BYTE PTR [eax+eax*1+0x65],ah
  406bdc:	add    BYTE PTR [eax+eax*1+0x61],ch
  406be0:	add    BYTE PTR [ecx+0x0],bh
  406be3:	jae    0x406be5
  406be5:	imul   eax,DWORD PTR [eax],0x6e0067
  406beb:	sbb    ch,BYTE PTR [ecx+0x0]
  406bee:	outs   dx,BYTE PTR ds:[esi]
  406bef:	add    BYTE PTR [esi+0x0],dh
  406bf2:	popa   
  406bf3:	add    BYTE PTR [eax+eax*1+0x69],ch
  406bf7:	add    BYTE PTR [eax+eax*1+0x5f],ah
  406bfb:	add    BYTE PTR [ecx+0x0],ah
  406bfe:	jo     0x406c00
  406c00:	je     0x406c02
  406c02:	arpl   WORD PTR [eax],ax
  406c04:	popa   
  406c05:	add    BYTE PTR [ebx],al
  406c07:	push   es
  406c08:	adc    dl,BYTE PTR [eax]
  406c0a:	add    eax,DWORD PTR [esi]
  406c0c:	adc    dl,BYTE PTR ds:0x31c0602
  406c12:	add    BYTE PTR [eax],al
  406c14:	sbb    al,0x3
  406c16:	and    BYTE PTR [eax],al
  406c18:	add    DWORD PTR [eax+eax*1],eax
  406c1b:	add    BYTE PTR [edx],dl
  406c1d:	adc    BYTE PTR [eax+eax*1],al
  406c20:	add    BYTE PTR [edx],dl
  406c22:	sbb    DWORD PTR [eax+eax*1],eax
  406c25:	add    BYTE PTR [edx],dl
  406c27:	adc    eax,0xe020006
  406c2c:	push   cs
  406c2d:	sbb    eax,0x100041c
  406c32:	push   cs
  406c33:	push   cs
  406c34:	add    al,0x0
  406c36:	add    DWORD PTR [esi+ecx*1],ebx
  406c39:	add    ecx,DWORD PTR [eax]
  406c3b:	add    BYTE PTR [esp+eax*1],bl
  406c3e:	or     BYTE PTR [eax],al
  406c40:	adc    bl,BYTE PTR [ecx]
  406c42:	add    al,0x8
  406c44:	add    BYTE PTR [edx],dl
  406c46:	adc    eax,0x4080602
  406c4b:	push   cs
  406c4c:	add    BYTE PTR [eax],al
  406c4e:	add    BYTE PTR [ebx],al
  406c50:	push   es
  406c51:	adc    bl,BYTE PTR ds:0x21110603
  406c57:	add    eax,0x1d080100
  406c5c:	push   cs
  406c5d:	add    eax,DWORD PTR [eax]
  406c5f:	add    BYTE PTR [ecx],al
  406c61:	add    eax,0xe010200
  406c66:	push   cs
  406c67:	add    al,0x0
  406c69:	add    DWORD PTR [ecx],eax
  406c6b:	push   cs
  406c6c:	push   es
  406c6d:	add    BYTE PTR [ebx],al
  406c6f:	add    DWORD PTR [esi],ecx
  406c71:	or     BYTE PTR [eax],cl
  406c73:	pop    es
  406c74:	add    BYTE PTR [edx],al
  406c76:	push   cs
  406c77:	sbb    eax,0x508100e
  406c7c:	add    BYTE PTR [ecx],al
  406c7e:	add    bl,BYTE PTR ds:0x1d06030e
  406c84:	add    eax,DWORD PTR [eax+eax*1]
  406c87:	add    DWORD PTR [edx],eax
  406c89:	push   cs
  406c8a:	add    eax,0x12010100
  406c8f:	and    eax,0x12010006
  406c94:	and    eax,0x52512
  406c99:	add    DWORD PTR [ecx],eax
  406c9b:	adc    ch,BYTE PTR [ecx]
  406c9d:	or     BYTE PTR [eax],al
  406c9f:	add    eax,0x2080e01
  406ca4:	push   cs
  406ca5:	push   cs
  406ca6:	add    eax,0xe020200
  406cab:	push   cs
  406cac:	add    eax,0xe0e0200
  406cb1:	push   cs
  406cb2:	push   es
  406cb3:	add    BYTE PTR [ebx],al
  406cb5:	push   cs
  406cb6:	push   cs
  406cb7:	push   cs
  406cb8:	push   cs
  406cb9:	add    eax,0x12010120
  406cbe:	sub    DWORD PTR ds:0x12010120,eax
  406cc4:	sub    eax,0x1c002003
  406cc9:	add    al,0x20
  406ccb:	add    DWORD PTR [ecx],eax
  406ccd:	add    al,BYTE PTR ds:0x11010120
  406cd3:	jne    0x406cd9
  406cd5:	and    BYTE PTR [ecx],al
  406cd7:	add    DWORD PTR [eax],ecx
  406cd9:	and    BYTE PTR [eax+0x2400],0x4
  406ce0:	add    BYTE PTR [eax],0x0
  406ce3:	xchg   esp,eax
  406ce4:	add    BYTE PTR [eax],al
  406ce6:	add    BYTE PTR [esi],al
  406ce8:	add    al,BYTE PTR [eax]
  406cea:	add    BYTE PTR [eax],al
  406cec:	and    al,0x0
  406cee:	add    BYTE PTR [edx+0x53],dl
  406cf1:	inc    ecx
  406cf2:	xor    DWORD PTR [eax],eax
  406cf4:	add    al,0x0
  406cf6:	add    BYTE PTR [ecx],al
  406cf8:	add    BYTE PTR [ecx],al
  406cfa:	add    BYTE PTR [edi],al
  406cfc:	sar    edx,1
  406cfe:	push   edi
  406cff:	les    ebp,FWORD PTR [esi+0x2ea3f0d9]
  406d05:	test   BYTE PTR [edx+0xdfdae0f],ch
  406d0b:	jmp    0xecab6af8
  406d10:	pop    DWORD PTR [edi+0x6c7603fb]
  406d16:	or     DWORD PTR [ecx+ebx*4-0x6e],0x1e
  406d1b:	mov    dl,0x3b
  406d1d:	out    0x9a,eax
  406d1f:	(bad)  
  406d21:	fadd   st(1),st
  406d23:	fstp   QWORD PTR [edx+0x211336d2]
  406d29:	add    dl,BYTE PTR [eax-0x6c38df5]
  406d2f:	adc    BYTE PTR [ebp+0x77e1c47f],0x10
  406d36:	pop    esi
  406d38:	pop    es
  406d39:	ja     0x406d8a
  406d3b:	sub    eax,ebp
  406d3d:	xor    cl,BYTE PTR [esi]
  406d3f:	xchg   edx,eax
  406d40:	jmp    0xc021:0xe8e4ec05
  406d47:	movs   DWORD PTR es:[edi],DWORD PTR ds:[esi]
  406d48:	out    dx,eax
  406d49:	call   0x4c9cd23f
  406d4e:	or     al,0x93
  406d50:	shr    DWORD PTR [ebx+0x625d2899],0x2c
  406d57:	stos   BYTE PTR es:[edi],al
  406d58:	gs sub al,0x1d
  406d5b:	cli    
  406d5c:	(bad)  
  406d5d:	cmp    eax,0x2d6f5d74
  406d62:	in     eax,0xf1
  406d64:	jle    0x406dc4
  406d66:	scas   eax,DWORD PTR es:[edi]
  406d67:	pinsrw mm2,WORD PTR [esi-0x75e3d9c3],0x12
  406d6f:	inc    ebx
  406d70:	sbb    BYTE PTR gs:[eax],ah
  406d73:	ins    DWORD PTR es:[edi],dx
  406d74:	rcl    BYTE PTR [ebx-0x2da5b2cc],0x93
  406d7b:	push   es
  406d7c:	and    BYTE PTR [ecx],al
  406d7e:	add    DWORD PTR [ecx],edx
  406d80:	add    BYTE PTR [ecx-0xfffef8],0x7f
  406d87:	add    BYTE PTR [eax],al
  406d89:	add    BYTE PTR [eax],al
  406d8b:	pop    es
  406d8c:	add    BYTE PTR [ebx],al
  406d8e:	sbb    al,0x10
  406d90:	sbb    al,0x1c
  406d92:	sbb    al,0x3
  406d94:	pop    es
  406d95:	add    DWORD PTR [eax*1-0x7fedffe0],ebx
  406d9c:	mov    DWORD PTR ds:0x80120020,eax
  406da2:	lea    eax,[edi]
  406da4:	and    BYTE PTR [edx],al
  406da6:	add    DWORD PTR [esi],ecx
  406da8:	adc    al,BYTE PTR [eax+0x100048d]
  406dae:	add    DWORD PTR [esp+eax*1],ebx
  406db1:	add    DWORD PTR [eax],eax
  406db3:	add    BYTE PTR [eax],al
  406db5:	push   es
  406db6:	and    BYTE PTR [edx],al
  406db8:	push   cs
  406db9:	push   cs
  406dba:	adc    bl,BYTE PTR [ecx]
  406dbc:	add    esp,DWORD PTR [eax]
  406dbe:	add    BYTE PTR [eax],cl
  406dc0:	add    eax,0x80e0220
  406dc5:	or     BYTE PTR [ecx],cl
  406dc7:	add    BYTE PTR [ebx],al
  406dc9:	push   cs
  406dca:	adc    al,BYTE PTR [eax+0x1c1d0e9d]
  406dd0:	pop    es
  406dd1:	pop    es
  406dd2:	add    al,0x12
  406dd4:	adc    BYTE PTR [esi],cl
  406dd6:	or     BYTE PTR [esi],cl
  406dd8:	add    al,0x7
  406dda:	add    DWORD PTR [edx],edx
  406ddc:	adc    BYTE PTR [esi],al
  406dde:	and    BYTE PTR [edx],al
  406de0:	sbb    al,0xe
  406de2:	adc    bl,BYTE PTR [ecx]
  406de4:	add    eax,DWORD PTR [eax]
  406de6:	add    BYTE PTR [eax],cl
  406de8:	add    eax,0x11010120
  406ded:	and    DWORD PTR [ecx],ecx
  406def:	and    BYTE PTR [ecx+eax*1],al
  406df2:	push   cs
  406df3:	push   cs
  406df4:	push   cs
  406df5:	adc    al,BYTE PTR [eax+0x12005a5]
  406dfb:	add    DWORD PTR [edx],edx
  406dfd:	adc    DWORD PTR [eax],ecx
  406dff:	add    BYTE PTR [ecx],al
  406e01:	adc    al,BYTE PTR [eax-0x527fee77]
  406e07:	or     DWORD PTR [eax],esp
  406e09:	add    dl,BYTE PTR [edx]
  406e0b:	xor    BYTE PTR [ecx-0x4a7feef2],0x6
  406e12:	and    BYTE PTR [ecx],al
  406e14:	adc    al,BYTE PTR [eax+0x200602b9]
  406e1a:	add    bl,BYTE PTR [esp+ebx*1]
  406e1d:	sbb    eax,0x320071c
  406e22:	add    DWORD PTR [esi],ecx
  406e24:	push   cs
  406e25:	adc    ah,BYTE PTR ds:0x20a0715
  406e2b:	or     BYTE PTR [esi],cl
  406e2d:	adc    al,BYTE PTR [eax-0x567fed5b]
  406e33:	adc    al,BYTE PTR [eax-0x467fed4f]
  406e39:	or     DWORD PTR [edx],edx
  406e3b:	and    eax,0x508
  406e40:	adc    al,BYTE PTR [eax+0x2004c5]
  406e46:	adc    bl,BYTE PTR [ecx]
  406e48:	add    eax,0x12010120
  406e4d:	sbb    DWORD PTR ds:0x80120000,eax
  406e53:	leave  
  406e54:	add    eax,0x80120020
  406e59:	int    0x6
  406e5b:	and    BYTE PTR [ecx],al
  406e5d:	sbb    eax,0x4031d0e
  406e62:	add    BYTE PTR [ecx],al
  406e64:	add    DWORD PTR [ebx],eax
  406e66:	or     al,0x7
  406e68:	pop    es
  406e69:	sbb    eax,0x80e020e
  406e6e:	sbb    eax,0x80e1d03
  406e73:	add    eax,DWORD PTR [edi]
  406e75:	add    DWORD PTR [eax],ecx
  406e77:	add    al,0x20
  406e79:	add    DWORD PTR [ebx],eax
  406e7b:	or     BYTE PTR [eax+eiz*1],al
  406e7e:	add    DWORD PTR [esi],ecx
  406e80:	or     BYTE PTR [eax],cl
  406e82:	push   es
  406e83:	adc    eax,0x2d98012
  406e88:	push   cs
  406e89:	or     BYTE PTR [edi],al
  406e8b:	adc    eax,0x2d98012
  406e90:	push   cs
  406e91:	or     BYTE PTR [edi],al
  406e93:	and    BYTE PTR [edx],al
  406e95:	add    DWORD PTR [ebx],edx
  406e97:	add    BYTE PTR [ebx],dl
  406e99:	add    DWORD PTR [eax],ecx
  406e9b:	and    BYTE PTR [edx],al
  406e9d:	add    dl,BYTE PTR [ebx]
  406e9f:	add    BYTE PTR [eax],dl
  406ea1:	adc    eax,DWORD PTR [ecx]
  406ea3:	add    eax,0x3080220
  406ea8:	or     BYTE PTR [edi],al
  406eaa:	pop    es
  406eab:	add    eax,0xe0e0e08
  406eb0:	or     BYTE PTR ds:0x1d080120,al
  406eb6:	add    eax,DWORD PTR [ebx]
  406eb8:	pop    es
  406eb9:	add    DWORD PTR [esi],ecx
  406ebb:	pop    es
  406ebc:	pop    es
  406ebd:	add    dl,BYTE PTR [edx]
  406ebf:	and    eax,0x4f18012
  406ec4:	and    BYTE PTR [eax],al
  406ec6:	adc    ah,BYTE PTR ds:0x12010704
  406ecc:	and    eax,0x2002003
  406ed1:	add    eax,0x25120207
  406ed6:	push   cs
  406ed7:	push   es
  406ed8:	add    BYTE PTR [ebx],al
  406eda:	push   cs
  406edb:	sbb    al,0x1c
  406edd:	sbb    al,0xb
  406edf:	add    BYTE PTR [esi],al
  406ee1:	or     BYTE PTR [esi],cl
  406ee3:	or     BYTE PTR [esi],cl
  406ee5:	or     BYTE PTR [eax],cl
  406ee7:	adc    DWORD PTR [eax+0x2005f9],eax
  406eed:	adc    al,BYTE PTR [eax+0x20005fd]
  406ef3:	push   cs
  406ef4:	push   cs
  406ef5:	sbb    al,0x6
  406ef7:	add    BYTE PTR [ebx],al
  406ef9:	push   cs
  406efa:	push   cs
  406efb:	sbb    al,0x1c
  406efd:	add    al,0x7
  406eff:	add    DWORD PTR ds:0x11e03,ebx
  406f05:	add    DWORD PTR [eax],eax
  406f07:	push   esp
  406f08:	add    dl,BYTE PTR [esi]
  406f0a:	push   edi
  406f0b:	jb     0x406f6e
  406f0d:	jo     0x406f5d
  406f0f:	outs   dx,DWORD PTR ds:[esi]
  406f10:	outs   dx,BYTE PTR ds:[esi]
  406f11:	inc    ebp
  406f12:	js     0x406f77
  406f14:	gs jo  0x406f8b
  406f17:	imul   ebp,DWORD PTR [edi+0x6e],0x6f726854
  406f1e:	ja     0x406f93
  406f20:	add    DWORD PTR [edx],ebp
  406f22:	add    DWORD PTR [eax],eax
  406f24:	and    eax,0x645c3a66
  406f29:	fs pop esp
  406f2b:	push   esp
  406f2c:	outs   dx,DWORD PTR ds:[esi]
  406f2d:	outs   dx,DWORD PTR ds:[esi]
  406f2e:	ins    BYTE PTR es:[edi],dx
  406f2f:	jae    0x406f8d
  406f31:	fs gs jbe 0x406f99
  406f35:	imul   esi,DWORD PTR [esi+0x5c],0x616e6946
  406f3c:	ins    BYTE PTR es:[edi],dx
  406f3d:	push   eax
  406f3e:	jne    0x406fa2
  406f40:	ins    BYTE PTR es:[edi],dx
  406f41:	imul   esp,DWORD PTR [ebx+0x4b],0x732e7965
  406f48:	outs   dx,BYTE PTR ds:[esi]
  406f49:	imul   eax,DWORD PTR [eax],0x0
  406f4c:	add    eax,0x10001
  406f51:	add    BYTE PTR [edx],cl
  406f53:	add    DWORD PTR [eax],eax
  406f55:	add    eax,0x552d6e65
  406f5a:	push   ebx
  406f5b:	add    BYTE PTR [eax],al
  406f5d:	or     al,0x1
  406f5f:	add    BYTE PTR [edi],al
  406f61:	xor    ch,BYTE PTR [esi]
  406f63:	xor    BYTE PTR [esi],ch
  406f65:	xor    BYTE PTR [esi],ch
  406f67:	xor    BYTE PTR [eax],al
  406f69:	add    BYTE PTR [ebx],dl
  406f6b:	add    DWORD PTR [eax],eax
  406f6d:	push   cs
  406f6e:	xor    ch,BYTE PTR [esi]
  406f70:	xor    BYTE PTR [esi],ch
  406f72:	xor    eax,0x37323730
  406f77:	cmp    BYTE PTR cs:[esi],dh
  406f7a:	xor    al,BYTE PTR ss:[eax]
  406f7d:	add    BYTE PTR [ecx+eax*1],dh
  406f80:	add    BYTE PTR [edi],ch
  406f82:	ret    0x20a9
  406f85:	dec    ebp
  406f86:	imul   esp,DWORD PTR [ebx+0x72],0x666f736f
  406f8d:	je     0x406faf
  406f8f:	inc    ebx
  406f90:	outs   dx,DWORD PTR ds:[esi]
  406f91:	jb     0x407003
  406f93:	outs   dx,DWORD PTR ds:[esi]
  406f94:	jb     0x406ff7
  406f96:	je     0x407001
  406f98:	outs   dx,DWORD PTR ds:[esi]
  406f99:	outs   dx,BYTE PTR ds:[esi]
  406f9a:	and    BYTE PTR cs:[eax],ah
  406f9d:	inc    ecx
  406f9e:	ins    BYTE PTR es:[edi],dx
  406f9f:	ins    BYTE PTR es:[edi],dx
  406fa0:	and    BYTE PTR [edx+0x69],dh
  406fa3:	addr16 push 0x72207374
  406fa9:	gs jae 0x407011
  406fac:	jb     0x407024
  406fae:	gs fs add BYTE PTR cs:[eax],al
  406fb3:	pop    ds
  406fb4:	add    DWORD PTR [eax],eax
  406fb6:	sbb    cl,BYTE PTR [ebp+0x69]
  406fb9:	arpl   WORD PTR [edx+0x6f],si
  406fbc:	jae    0x40702d
  406fbe:	data16 je 0x406f83
  406fc1:	scas   al,BYTE PTR es:[edi]
  406fc2:	and    BYTE PTR [esi],ch
  406fc4:	dec    esi
  406fc5:	inc    ebp
  406fc6:	push   esp
  406fc7:	and    BYTE PTR [esi+0x72],al
  406fca:	popa   
  406fcb:	ins    DWORD PTR es:[edi],dx
  406fcc:	gs ja  0x40703e
  406fcf:	jb     0x40703c
  406fd1:	add    BYTE PTR [eax],al
  406fd3:	sbb    al,BYTE PTR [ecx]
  406fd5:	add    BYTE PTR ds:0x7263694d,dl
  406fdb:	outs   dx,DWORD PTR ds:[esi]
  406fdc:	jae    0x40704d
  406fde:	data16 je 0x407001
  406fe1:	inc    ebx
  406fe2:	outs   dx,DWORD PTR ds:[esi]
  406fe3:	jb     0x407055
  406fe5:	outs   dx,DWORD PTR ds:[esi]
  406fe6:	jb     0x407049
  406fe8:	je     0x407053
  406fea:	outs   dx,DWORD PTR ds:[esi]
  406feb:	outs   dx,BYTE PTR ds:[esi]
  406fec:	add    BYTE PTR [eax],al
  406fee:	sbb    BYTE PTR [ecx],al
  406ff0:	add    BYTE PTR [ebx],dl
  406ff2:	popa   
  406ff3:	jae    0x407065
  406ff5:	outs   dx,BYTE PTR ds:[esi]
  406ff6:	gs je  0x407058
  406ff9:	arpl   WORD PTR [edi+0x6d],bp
  406ffc:	jo     0x407067
  406ffe:	ins    BYTE PTR es:[edi],dx
  406fff:	gs jb  0x407030
  407002:	gs js  0x40706a
  407005:	add    BYTE PTR [eax],al
  407007:	add    eax,0x1
  40700c:	add    BYTE PTR [eax],cl
  40700e:	add    DWORD PTR [eax],eax
  407010:	add    al,BYTE PTR [eax]
  407012:	add    BYTE PTR [eax],al
  407014:	add    BYTE PTR [eax],al
  407016:	or     BYTE PTR [ecx],al
  407018:	add    BYTE PTR [eax],cl
	...
  407022:	add    BYTE PTR [eax],al
  407024:	push   eax
  407025:	stc    
  407026:	dec    edx
  407027:	push   ebp
  407028:	add    BYTE PTR [eax],al
  40702a:	add    BYTE PTR [eax],al
  40702c:	add    al,BYTE PTR [eax]
  40702e:	add    BYTE PTR [eax],al
  407030:	sub    al,0x0
  407032:	add    BYTE PTR [eax],al
  407034:	cmp    al,0x70
  407036:	add    BYTE PTR [eax],al
  407038:	cmp    al,0x60
  40703a:	add    BYTE PTR [eax],al
  40703c:	push   edx
  40703d:	push   ebx
  40703e:	inc    esp
  40703f:	push   ebx
  407040:	xor    al,0x94
  407042:	mov    edi,0xa41e422d
  407047:	dec    ebx
  407048:	mov    ds:0x72f0c3ea,eax
  40704d:	or     al,BYTE PTR [esi+edi*4+0x1]
  407054:	popa   
  407055:	jae    0x4070c7
  407057:	outs   dx,BYTE PTR ds:[esi]
  407058:	gs je  0x4070ba
  40705b:	arpl   WORD PTR [edi+0x6d],bp
  40705e:	jo     0x4070c9
  407060:	ins    BYTE PTR es:[edi],dx
  407061:	gs jb  0x407092
  407064:	jo     0x4070ca
  407066:	bound  eax,QWORD PTR [eax]
	...
  407098:	shl    BYTE PTR [eax+0x0],0x0
	...
  4070a4:	fidiv  WORD PTR [eax+0x0]
  4070a7:	add    BYTE PTR [eax],al
  4070a9:	and    BYTE PTR [eax],al
	...
  4070bf:	add    al,dl
  4070c1:	jo     0x4070c3
	...
  4070cf:	add    BYTE PTR [eax],al
  4070d1:	add    BYTE PTR [edi+0x43],bl
  4070d4:	outs   dx,DWORD PTR ds:[esi]
  4070d5:	jb     0x40711c
  4070d7:	js     0x40713e
  4070d9:	dec    ebp
  4070da:	popa   
  4070db:	imul   ebp,DWORD PTR [esi+0x0],0x6f63736d
  4070e2:	jb     0x407149
  4070e4:	gs cs fs ins BYTE PTR es:[edi],dx
  4070e8:	ins    BYTE PTR es:[edi],dx
  4070e9:	add    BYTE PTR [eax],al
  4070eb:	add    BYTE PTR [eax],al
  4070ed:	add    bh,bh
  4070ef:	and    eax,0x402000

Disassembly of section .rsrc:

00408000 <.rsrc>:
	...
  40800c:	add    BYTE PTR [eax],al
  40800e:	add    al,BYTE PTR [eax]
  408010:	adc    BYTE PTR [eax],al
  408012:	add    BYTE PTR [eax],al
  408014:	and    BYTE PTR [eax],al
  408016:	add    BYTE PTR [eax+0x18],al
  40801c:	cmp    BYTE PTR [eax],al
  40801e:	add    BYTE PTR [eax+0x0],al
	...
  40802c:	add    BYTE PTR [eax],al
  40802e:	add    DWORD PTR [eax],eax
  408030:	add    DWORD PTR [eax],eax
  408032:	add    BYTE PTR [eax],al
  408034:	push   eax
  408035:	add    BYTE PTR [eax],al
  408037:	add    BYTE PTR [eax],0x0
	...
  408046:	add    DWORD PTR [eax],eax
  408048:	add    DWORD PTR [eax],eax
  40804a:	add    BYTE PTR [eax],al
  40804c:	push   0x800000
	...
  40805d:	add    BYTE PTR [ecx],al
  40805f:	add    BYTE PTR [ecx],cl
  408061:	add    al,0x0
  408063:	add    BYTE PTR [eax+0x0],al
	...
  408075:	add    BYTE PTR [ecx],al
  408077:	add    BYTE PTR [ecx],cl
  408079:	add    al,0x0
  40807b:	add    BYTE PTR [eax-0x60000000],dl
  408081:	add    BYTE PTR [eax],0x0
  408084:	les    eax,FWORD PTR [ebx]
	...
  40808e:	add    BYTE PTR [eax],al
  408090:	push   0x8b000084
  408095:	add    DWORD PTR [eax],eax
	...
  40809f:	add    ah,al
  4080a1:	add    esi,DWORD PTR [eax+eax*1]
  4080a4:	add    BYTE PTR [eax],al
  4080a6:	push   esi
  4080a7:	add    BYTE PTR [ebx+0x0],dl
  4080aa:	pop    edi
  4080ab:	add    BYTE PTR [esi+0x0],dl
  4080ae:	inc    ebp
  4080af:	add    BYTE PTR [edx+0x0],dl
  4080b2:	push   ebx
  4080b3:	add    BYTE PTR [ecx+0x0],cl
  4080b6:	dec    edi
  4080b7:	add    BYTE PTR [esi+0x0],cl
  4080ba:	pop    edi
  4080bb:	add    BYTE PTR [ecx+0x0],cl
  4080be:	dec    esi
  4080bf:	add    BYTE PTR [esi+0x0],al
  4080c2:	dec    edi
  4080c3:	add    BYTE PTR [eax],al
  4080c5:	add    BYTE PTR [eax],al
  4080c7:	add    BYTE PTR [ebp+0xfeef04],bh
  4080cd:	add    BYTE PTR [ecx],al
  4080cf:	add    BYTE PTR [eax],al
  4080d1:	add    BYTE PTR [edx],al
  4080d3:	add    dh,dl
  4080d5:	and    DWORD PTR [edi],esp
  4080d7:	mov    BYTE PTR [eax],0x0
  4080da:	add    al,BYTE PTR [eax]
  4080dc:	(bad)  
  4080dd:	and    DWORD PTR [edi],esp
  4080df:	(bad)  
  4080e0:	aas    
  4080e1:	add    BYTE PTR [eax],al
  4080e3:	add    BYTE PTR [eax],al
  4080e5:	add    BYTE PTR [eax],al
  4080e7:	add    BYTE PTR [eax+eax*1],al
  4080ea:	add    BYTE PTR [eax],al
  4080ec:	add    DWORD PTR [eax],eax
	...
  4080fa:	add    BYTE PTR [eax],al
  4080fc:	and    al,0x3
  4080fe:	add    BYTE PTR [eax],al
  408100:	add    DWORD PTR [eax],eax
  408102:	push   ebx
  408103:	add    BYTE PTR [eax+eax*1+0x72],dh
  408107:	add    BYTE PTR [ecx+0x0],ch
  40810a:	outs   dx,BYTE PTR ds:[esi]
  40810b:	add    BYTE PTR [edi+0x0],ah
  40810e:	inc    esi
  40810f:	add    BYTE PTR [ecx+0x0],ch
  408112:	ins    BYTE PTR es:[edi],dx
  408113:	add    BYTE PTR [ebp+0x0],ah
  408116:	dec    ecx
  408117:	add    BYTE PTR [esi+0x0],ch
  40811a:	data16 add BYTE PTR [edi+0x0],ch
  40811e:	add    BYTE PTR [eax],al
  408120:	add    BYTE PTR [ebx],al
  408122:	add    BYTE PTR [eax],al
  408124:	add    DWORD PTR [eax],eax
  408126:	xor    BYTE PTR [eax],al
  408128:	xor    al,0x0
  40812a:	xor    BYTE PTR [eax],al
  40812c:	cmp    DWORD PTR [eax],eax
  40812e:	xor    BYTE PTR [eax],al
  408130:	xor    al,0x0
  408132:	inc    edx
  408133:	add    BYTE PTR [eax],dh
  408135:	add    BYTE PTR [eax],al
  408137:	add    BYTE PTR [eax+eax*1+0x16],cl
  40813b:	add    BYTE PTR [ecx],al
  40813d:	add    BYTE PTR [ebx+0x0],al
  408140:	outs   dx,DWORD PTR ds:[esi]
  408141:	add    BYTE PTR [ebp+0x0],ch
  408144:	jo     0x408146
  408146:	popa   
  408147:	add    BYTE PTR [esi+0x0],ch
  40814a:	jns    0x40814c
  40814c:	dec    esi
  40814d:	add    BYTE PTR [ecx+0x0],ah
  408150:	ins    DWORD PTR es:[edi],dx
  408151:	add    BYTE PTR [ebp+0x0],ah
  408154:	add    BYTE PTR [eax],al
  408156:	add    BYTE PTR [eax],al
  408158:	dec    ebp
  408159:	add    BYTE PTR [ecx+0x0],ch
  40815c:	arpl   WORD PTR [eax],ax
  40815e:	jb     0x408160
  408160:	outs   dx,DWORD PTR ds:[esi]
  408161:	add    BYTE PTR [ebx+0x0],dh
  408164:	outs   dx,DWORD PTR ds:[esi]
  408165:	add    BYTE PTR [esi+0x0],ah
  408168:	je     0x40816a
  40816a:	and    BYTE PTR [eax],al
  40816c:	inc    ebx
  40816d:	add    BYTE PTR [edi+0x0],ch
  408170:	jb     0x408172
  408172:	jo     0x408174
  408174:	outs   dx,DWORD PTR ds:[esi]
  408175:	add    BYTE PTR [edx+0x0],dh
  408178:	popa   
  408179:	add    BYTE PTR [eax+eax*1+0x69],dh
  40817d:	add    BYTE PTR [edi+0x0],ch
  408180:	outs   dx,BYTE PTR ds:[esi]
  408181:	add    BYTE PTR [eax],al
  408183:	add    BYTE PTR [eax+0x0],dl
  408186:	adc    al,0x0
  408188:	add    DWORD PTR [eax],eax
  40818a:	inc    esi
  40818b:	add    BYTE PTR [ecx+0x0],ch
  40818e:	ins    BYTE PTR es:[edi],dx
  40818f:	add    BYTE PTR [ebp+0x0],ah
  408192:	inc    esp
  408193:	add    BYTE PTR [ebp+0x0],ah
  408196:	jae    0x408198
  408198:	arpl   WORD PTR [eax],ax
  40819a:	jb     0x40819c
  40819c:	imul   eax,DWORD PTR [eax],0x740070
  4081a2:	imul   eax,DWORD PTR [eax],0x6e006f
  4081a8:	add    BYTE PTR [eax],al
  4081aa:	add    BYTE PTR [eax],al
  4081ac:	popa   
  4081ad:	add    BYTE PTR [ebx+0x0],dh
  4081b0:	jo     0x4081b2
  4081b2:	outs   dx,BYTE PTR ds:[esi]
  4081b3:	add    BYTE PTR [ebp+0x0],ah
  4081b6:	je     0x4081b8
  4081b8:	pop    edi
  4081b9:	add    BYTE PTR [ebx+0x0],ah
  4081bc:	outs   dx,DWORD PTR ds:[esi]
  4081bd:	add    BYTE PTR [ebp+0x0],ch
  4081c0:	jo     0x4081c2
  4081c2:	imul   eax,DWORD PTR [eax],0x65006c
  4081c8:	jb     0x4081ca
  4081ca:	add    BYTE PTR cs:[ebp+0x0],ah
  4081ce:	js     0x4081d0
  4081d0:	add    BYTE PTR gs:[eax],al
  4081d3:	add    BYTE PTR [edx+0x0],ah
  4081d6:	and    DWORD PTR [eax],eax
  4081d8:	add    DWORD PTR [eax],eax
  4081da:	inc    esi
  4081db:	add    BYTE PTR [ecx+0x0],ch
  4081de:	ins    BYTE PTR es:[edi],dx
  4081df:	add    BYTE PTR [ebp+0x0],ah
  4081e2:	push   esi
  4081e3:	add    BYTE PTR [ebp+0x0],ah
  4081e6:	jb     0x4081e8
  4081e8:	jae    0x4081ea
  4081ea:	imul   eax,DWORD PTR [eax],0x6e006f
  4081f0:	add    BYTE PTR [eax],al
  4081f2:	add    BYTE PTR [eax],al
  4081f4:	xor    al,BYTE PTR [eax]
  4081f6:	add    BYTE PTR cs:[eax],dh
  4081f9:	add    BYTE PTR [esi],ch
  4081fb:	add    BYTE PTR ds:0x37003000,dh
  408201:	add    BYTE PTR [edx],dh
  408203:	add    BYTE PTR [edi],dh
  408205:	add    BYTE PTR [esi],ch
  408207:	add    BYTE PTR [eax],bh
  408209:	add    BYTE PTR [esi],dh
  40820b:	add    BYTE PTR [esi],dh
  40820d:	add    BYTE PTR [edx],dh
  40820f:	add    BYTE PTR [eax],ah
  408211:	add    BYTE PTR [eax],ch
  408213:	add    BYTE PTR [ecx+0x0],dl
  408216:	inc    esi
  408217:	add    BYTE PTR [ebp+0x0],al
  40821a:	add    BYTE PTR cs:[eax],dh
  40821d:	add    BYTE PTR ds:0x37003000,dh
  408223:	add    BYTE PTR [edx],dh
  408225:	add    BYTE PTR [edi],dh
  408227:	add    BYTE PTR ds:0x36003800,ch
  40822d:	add    BYTE PTR [eax],dh
  40822f:	add    BYTE PTR [eax],dh
  408231:	add    BYTE PTR [ecx],ch
  408233:	add    BYTE PTR [eax],al
  408235:	add    BYTE PTR [eax],al
  408237:	add    BYTE PTR [eax+0x0],cl
  40823a:	adc    al,0x0
  40823c:	add    DWORD PTR [eax],eax
  40823e:	dec    ecx
  40823f:	add    BYTE PTR [esi+0x0],ch
  408242:	je     0x408244
  408244:	add    BYTE PTR gs:[edx+0x0],dh
  408248:	outs   dx,BYTE PTR ds:[esi]
  408249:	add    BYTE PTR [ecx+0x0],ah
  40824c:	ins    BYTE PTR es:[edi],dx
  40824d:	add    BYTE PTR [esi+0x0],cl
  408250:	popa   
  408251:	add    BYTE PTR [ebp+0x0],ch
  408254:	add    BYTE PTR gs:[eax],al
  408257:	add    BYTE PTR [ecx+0x0],ah
  40825a:	jae    0x40825c
  40825c:	jo     0x40825e
  40825e:	outs   dx,BYTE PTR ds:[esi]
  40825f:	add    BYTE PTR [ebp+0x0],ah
  408262:	je     0x408264
  408264:	pop    edi
  408265:	add    BYTE PTR [ebx+0x0],ah
  408268:	outs   dx,DWORD PTR ds:[esi]
  408269:	add    BYTE PTR [ebp+0x0],ch
  40826c:	jo     0x40826e
  40826e:	imul   eax,DWORD PTR [eax],0x65006c
  408274:	jb     0x408276
  408276:	add    BYTE PTR cs:[ebp+0x0],ah
  40827a:	js     0x40827c
  40827c:	add    BYTE PTR gs:[eax],al
  40827f:	add    BYTE PTR [edx+0x1002f00],al
  408285:	add    BYTE PTR [eax+eax*1+0x65],cl
  408289:	add    BYTE PTR [edi+0x0],ah
  40828c:	popa   
  40828d:	add    BYTE PTR [eax+eax*1+0x43],ch
  408291:	add    BYTE PTR [edi+0x0],ch
  408294:	jo     0x408296
  408296:	jns    0x408298
  408298:	jb     0x40829a
  40829a:	imul   eax,DWORD PTR [eax],0x680067
  4082a0:	je     0x4082a2
  4082a2:	add    BYTE PTR [eax],al
  4082a4:	test   eax,0x4d002000
  4082a9:	add    BYTE PTR [ecx+0x0],ch
  4082ac:	arpl   WORD PTR [eax],ax
  4082ae:	jb     0x4082b0
  4082b0:	outs   dx,DWORD PTR ds:[esi]
  4082b1:	add    BYTE PTR [ebx+0x0],dh
  4082b4:	outs   dx,DWORD PTR ds:[esi]
  4082b5:	add    BYTE PTR [esi+0x0],ah
  4082b8:	je     0x4082ba
  4082ba:	and    BYTE PTR [eax],al
  4082bc:	inc    ebx
  4082bd:	add    BYTE PTR [edi+0x0],ch
  4082c0:	jb     0x4082c2
  4082c2:	jo     0x4082c4
  4082c4:	outs   dx,DWORD PTR ds:[esi]
  4082c5:	add    BYTE PTR [edx+0x0],dh
  4082c8:	popa   
  4082c9:	add    BYTE PTR [eax+eax*1+0x69],dh
  4082cd:	add    BYTE PTR [edi+0x0],ch
  4082d0:	outs   dx,BYTE PTR ds:[esi]
  4082d1:	add    BYTE PTR [esi],ch
  4082d3:	add    BYTE PTR [eax],ah
  4082d5:	add    BYTE PTR [eax],ah
  4082d7:	add    BYTE PTR [ecx+0x0],al
  4082da:	ins    BYTE PTR es:[edi],dx
  4082db:	add    BYTE PTR [eax+eax*1+0x20],ch
  4082df:	add    BYTE PTR [edx+0x0],dh
  4082e2:	imul   eax,DWORD PTR [eax],0x680067
  4082e8:	je     0x4082ea
  4082ea:	jae    0x4082ec
  4082ec:	and    BYTE PTR [eax],al
  4082ee:	jb     0x4082f0
  4082f0:	add    BYTE PTR gs:[ebx+0x0],dh
  4082f4:	add    BYTE PTR gs:[edx+0x0],dh
  4082f8:	jbe    0x4082fa
  4082fa:	add    BYTE PTR gs:[eax+eax*1+0x2e],ah
  4082ff:	add    BYTE PTR [eax],al
  408301:	add    BYTE PTR [eax],al
  408303:	add    BYTE PTR [eax+0x0],dl
  408306:	adc    al,0x0
  408308:	add    DWORD PTR [eax],eax
  40830a:	dec    edi
  40830b:	add    BYTE PTR [edx+0x0],dh
  40830e:	imul   eax,DWORD PTR [eax],0x690067
  408314:	outs   dx,BYTE PTR ds:[esi]
  408315:	add    BYTE PTR [ecx+0x0],ah
  408318:	ins    BYTE PTR es:[edi],dx
  408319:	add    BYTE PTR [esi+0x0],al
  40831c:	imul   eax,DWORD PTR [eax],0x65006c
  408322:	outs   dx,BYTE PTR ds:[esi]
  408323:	add    BYTE PTR [ecx+0x0],ah
  408326:	ins    DWORD PTR es:[edi],dx
  408327:	add    BYTE PTR [ebp+0x0],ah
  40832a:	add    BYTE PTR [eax],al
  40832c:	popa   
  40832d:	add    BYTE PTR [ebx+0x0],dh
  408330:	jo     0x408332
  408332:	outs   dx,BYTE PTR ds:[esi]
  408333:	add    BYTE PTR [ebp+0x0],ah
  408336:	je     0x408338
  408338:	pop    edi
  408339:	add    BYTE PTR [ebx+0x0],ah
  40833c:	outs   dx,DWORD PTR ds:[esi]
  40833d:	add    BYTE PTR [ebp+0x0],ch
  408340:	jo     0x408342
  408342:	imul   eax,DWORD PTR [eax],0x65006c
  408348:	jb     0x40834a
  40834a:	add    BYTE PTR cs:[ebp+0x0],ah
  40834e:	js     0x408350
  408350:	add    BYTE PTR gs:[eax],al
  408353:	add    BYTE PTR [eax+eax*1+0x1a],dl
  408357:	add    BYTE PTR [ecx],al
  408359:	add    BYTE PTR [eax+0x0],dl
  40835c:	jb     0x40835e
  40835e:	outs   dx,DWORD PTR ds:[esi]
  40835f:	add    BYTE PTR [eax+eax*1+0x75],ah
  408363:	add    BYTE PTR [ebx+0x0],ah
  408366:	je     0x408368
  408368:	dec    esi
  408369:	add    BYTE PTR [ecx+0x0],ah
  40836c:	ins    DWORD PTR es:[edi],dx
  40836d:	add    BYTE PTR [ebp+0x0],ah
  408370:	add    BYTE PTR [eax],al
  408372:	add    BYTE PTR [eax],al
  408374:	dec    ebp
  408375:	add    BYTE PTR [ecx+0x0],ch
  408378:	arpl   WORD PTR [eax],ax
  40837a:	jb     0x40837c
  40837c:	outs   dx,DWORD PTR ds:[esi]
  40837d:	add    BYTE PTR [ebx+0x0],dh
  408380:	outs   dx,DWORD PTR ds:[esi]
  408381:	add    BYTE PTR [esi+0x0],ah
  408384:	je     0x408386
  408386:	scas   al,BYTE PTR es:[edi]
  408387:	add    BYTE PTR [eax],ah
  408389:	add    BYTE PTR [esi],ch
  40838b:	add    BYTE PTR [esi+0x0],cl
  40838e:	inc    ebp
  40838f:	add    BYTE PTR [eax+eax*1+0x20],dl
  408393:	add    BYTE PTR [esi+0x0],al
  408396:	jb     0x408398
  408398:	popa   
  408399:	add    BYTE PTR [ebp+0x0],ch
  40839c:	add    BYTE PTR gs:[edi+0x0],dh
  4083a0:	outs   dx,DWORD PTR ds:[esi]
  4083a1:	add    BYTE PTR [edx+0x0],dh
  4083a4:	imul   eax,DWORD PTR [eax],0x0
  4083a7:	add    BYTE PTR [edx+0x0],al
  4083aa:	sldt   WORD PTR [ecx]
  4083ad:	add    BYTE PTR [eax+0x0],dl
  4083b0:	jb     0x4083b2
  4083b2:	outs   dx,DWORD PTR ds:[esi]
  4083b3:	add    BYTE PTR [eax+eax*1+0x75],ah
  4083b7:	add    BYTE PTR [ebx+0x0],ah
  4083ba:	je     0x4083bc
  4083bc:	push   esi
  4083bd:	add    BYTE PTR [ebp+0x0],ah
  4083c0:	jb     0x4083c2
  4083c2:	jae    0x4083c4
  4083c4:	imul   eax,DWORD PTR [eax],0x6e006f
  4083ca:	add    BYTE PTR [eax],al
  4083cc:	xor    al,BYTE PTR [eax]
  4083ce:	add    BYTE PTR cs:[eax],dh
  4083d1:	add    BYTE PTR [esi],ch
  4083d3:	add    BYTE PTR ds:0x37003000,dh
  4083d9:	add    BYTE PTR [edx],dh
  4083db:	add    BYTE PTR [edi],dh
  4083dd:	add    BYTE PTR [esi],ch
  4083df:	add    BYTE PTR [eax],bh
  4083e1:	add    BYTE PTR [esi],dh
  4083e3:	add    BYTE PTR [esi],dh
  4083e5:	add    BYTE PTR [edx],dh
  4083e7:	add    BYTE PTR [eax],al
  4083e9:	add    BYTE PTR [eax],al
  4083eb:	add    BYTE PTR [eax+eax*1],dh
  4083ee:	push   cs
  4083ef:	add    BYTE PTR [ecx],al
  4083f1:	add    BYTE PTR [ebx+0x0],al
  4083f4:	outs   dx,DWORD PTR ds:[esi]
  4083f5:	add    BYTE PTR [ebp+0x0],ch
  4083f8:	ins    DWORD PTR es:[edi],dx
  4083f9:	add    BYTE PTR [ebp+0x0],ah
  4083fc:	outs   dx,BYTE PTR ds:[esi]
  4083fd:	add    BYTE PTR [eax+eax*1+0x73],dh
  408401:	add    BYTE PTR [eax],al
  408403:	add    BYTE PTR [esi+0x0],al
  408406:	ins    BYTE PTR es:[edi],dx
  408407:	add    BYTE PTR [ecx+0x0],ah
  40840a:	jbe    0x40840c
  40840c:	outs   dx,DWORD PTR ds:[esi]
  40840d:	add    BYTE PTR [edx+0x0],dh
  408410:	cmp    eax,0x65005200
  408415:	add    BYTE PTR [eax+eax*1+0x61],dh
  408419:	add    BYTE PTR [ecx+0x0],ch
  40841c:	ins    BYTE PTR es:[edi],dx
  40841d:	add    BYTE PTR [eax],al
  40841f:	add    BYTE PTR [eax+eax*1+0x0],al
  408423:	add    BYTE PTR [ecx],al
  408425:	add    BYTE PTR [esi+0x0],dl
  408428:	popa   
  408429:	add    BYTE PTR [edx+0x0],dh
  40842c:	inc    esi
  40842d:	add    BYTE PTR [ecx+0x0],ch
  408430:	ins    BYTE PTR es:[edi],dx
  408431:	add    BYTE PTR [ebp+0x0],ah
  408434:	dec    ecx
  408435:	add    BYTE PTR [esi+0x0],ch
  408438:	data16 add BYTE PTR [edi+0x0],ch
  40843c:	add    BYTE PTR [eax],al
  40843e:	add    BYTE PTR [eax],al
  408440:	and    al,0x0
  408442:	add    al,0x0
  408444:	add    BYTE PTR [eax],al
  408446:	push   esp
  408447:	add    BYTE PTR [edx+0x0],dh
  40844a:	popa   
  40844b:	add    BYTE PTR [esi+0x0],ch
  40844e:	jae    0x408450
  408450:	ins    BYTE PTR es:[edi],dx
  408451:	add    BYTE PTR [ecx+0x0],ah
  408454:	je     0x408456
  408456:	imul   eax,DWORD PTR [eax],0x6e006f
  40845c:	add    BYTE PTR [eax],al
  40845e:	add    BYTE PTR [eax],al
  408460:	or     DWORD PTR [eax+esi*4],eax
  408463:	add    al,0x0
  408465:	add    BYTE PTR [eax],al
  408467:	add    BYTE PTR [ecx+eiz*2],bh
  40846a:	jae    0x4084df
  40846c:	gs ins DWORD PTR es:[edi],dx
  40846e:	bound  ebp,QWORD PTR [ecx+edi*2+0x20]
  408472:	js     0x4084e1
  408474:	ins    BYTE PTR es:[edi],dx
  408475:	outs   dx,BYTE PTR ds:[esi]
  408476:	jae    0x4084b5
  408478:	and    dh,BYTE PTR [ebp+0x72]
  40847b:	outs   dx,BYTE PTR ds:[esi]
  40847c:	cmp    dh,BYTE PTR [ebx+0x63]
  40847f:	push   0x73616d65
  408484:	sub    eax,0x7263696d
  408489:	outs   dx,DWORD PTR ds:[esi]
  40848a:	jae    0x4084fb
  40848c:	data16 je 0x4084bc
  40848f:	arpl   WORD PTR [edi+0x6d],bp
  408492:	cmp    ah,BYTE PTR [ecx+0x73]
  408495:	ins    DWORD PTR es:[edi],dx
  408496:	cs jbe 0x4084ca
  408499:	and    ah,BYTE PTR [eax]
  40849b:	ins    DWORD PTR es:[edi],dx
  40849c:	popa   
  40849d:	outs   dx,BYTE PTR ds:[esi]
  40849e:	imul   esp,DWORD PTR [esi+0x65],0x65567473
  4084a5:	jb     0x40851a
  4084a7:	imul   ebp,DWORD PTR [edi+0x6e],0x2e31223d
  4084ae:	xor    BYTE PTR [edx],ah
  4084b0:	ds or  eax,0x2020200a
  4084b6:	and    BYTE PTR [esp+esi*2],bh
  4084b9:	jb     0x408530
  4084bb:	jae    0x408531
  4084bd:	dec    ecx
  4084be:	outs   dx,BYTE PTR ds:[esi]
  4084bf:	outs   dx,WORD PTR ds:[esi]
  4084c1:	and    BYTE PTR [eax+0x6d],bh
  4084c4:	ins    BYTE PTR es:[edi],dx
  4084c5:	outs   dx,BYTE PTR ds:[esi]
  4084c6:	jae    0x408505
  4084c8:	and    dh,BYTE PTR [ebp+0x72]
  4084cb:	outs   dx,BYTE PTR ds:[esi]
  4084cc:	cmp    dh,BYTE PTR [ebx+0x63]
  4084cf:	push   0x73616d65
  4084d4:	sub    eax,0x7263696d
  4084d9:	outs   dx,DWORD PTR ds:[esi]
  4084da:	jae    0x40854b
  4084dc:	data16 je 0x40850c
  4084df:	arpl   WORD PTR [edi+0x6d],bp
  4084e2:	cmp    ah,BYTE PTR [ecx+0x73]
  4084e5:	ins    DWORD PTR es:[edi],dx
  4084e6:	cs jbe 0x40851c
  4084e9:	and    bh,BYTE PTR [esi]
  4084eb:	or     eax,0x2020200a
  4084f0:	and    BYTE PTR [eax],ah
  4084f2:	and    BYTE PTR [eax],ah
  4084f4:	and    BYTE PTR [ebx+esi*2],bh
  4084f7:	arpl   WORD PTR gs:[ebp+0x72],si
  4084fb:	imul   esi,DWORD PTR [ecx+edi*2+0x3e],0x20200a0d
  408503:	and    BYTE PTR [eax],ah
  408505:	and    BYTE PTR [eax],ah
  408507:	and    BYTE PTR [eax],ah
  408509:	and    BYTE PTR [eax],ah
  40850b:	and    BYTE PTR [eax],ah
  40850d:	cmp    al,0x72
  40850f:	gs jno 0x408587
  408512:	gs jae 0x408589
  408515:	gs fs push eax
  408518:	jb     0x408583
  40851a:	jbe    0x408585
  40851c:	ins    BYTE PTR es:[edi],dx
  40851d:	gs addr16 gs jae 0x408560
  408522:	or     eax,0x2020200a
  408527:	and    BYTE PTR [eax],ah
  408529:	and    BYTE PTR [eax],ah
  40852b:	and    BYTE PTR [eax],ah
  40852d:	and    BYTE PTR [eax],ah
  40852f:	and    BYTE PTR [eax],ah
  408531:	and    BYTE PTR [eax],ah
  408533:	and    BYTE PTR [edx+esi*2],bh
  408536:	gs jno 0x4085ae
  408539:	gs jae 0x4085b0
  40853c:	gs fs inc ebp
  40853f:	js     0x4085a6
  408541:	arpl   WORD PTR [ebp+0x74],si
  408544:	imul   ebp,DWORD PTR [edi+0x6e],0x6576654c
  40854b:	ins    BYTE PTR es:[edi],dx
  40854c:	or     eax,0x2020200a
  408551:	and    BYTE PTR [eax],ah
  408553:	and    BYTE PTR [eax],ah
  408555:	and    BYTE PTR [eax],ah
  408557:	and    BYTE PTR [eax],ah
  408559:	and    BYTE PTR [eax],ah
  40855b:	and    BYTE PTR [eax],ah
  40855d:	and    BYTE PTR [eax],ah
  40855f:	and    BYTE PTR [eax],ah
  408561:	and    BYTE PTR [ebp+eiz*2+0x76],ch
  408565:	gs ins BYTE PTR es:[edi],dx
  408567:	cmp    eax,0x49736122
  40856c:	outs   dx,BYTE PTR ds:[esi]
  40856d:	jbe    0x4085de
  40856f:	imul   esp,DWORD PTR [ebp+0x72],0x22
  408573:	or     eax,0x2020200a
  408578:	and    BYTE PTR [eax],ah
  40857a:	and    BYTE PTR [eax],ah
  40857c:	and    BYTE PTR [eax],ah
  40857e:	and    BYTE PTR [eax],ah
  408580:	and    BYTE PTR [eax],ah
  408582:	and    BYTE PTR [eax],ah
  408584:	and    BYTE PTR [eax],ah
  408586:	and    BYTE PTR [eax],ah
  408588:	and    BYTE PTR [ebp+0x69],dh
  40858b:	inc    ecx
  40858c:	arpl   WORD PTR [ebx+0x65],sp
  40858f:	jae    0x408604
  408591:	cmp    eax,0x6c616622
  408596:	jae    0x4085fd
  408598:	and    ch,BYTE PTR [edi]
  40859a:	ds or  eax,0x2020200a
  4085a0:	and    BYTE PTR [eax],ah
  4085a2:	and    BYTE PTR [eax],ah
  4085a4:	and    BYTE PTR [eax],ah
  4085a6:	and    BYTE PTR [eax],ah
  4085a8:	and    BYTE PTR [edi+ebp*1],bh
  4085ab:	jb     0x408612
  4085ad:	jno    0x408624
  4085af:	gs jae 0x408626
  4085b2:	gs fs push eax
  4085b5:	jb     0x408620
  4085b7:	jbe    0x408622
  4085b9:	ins    BYTE PTR es:[edi],dx
  4085ba:	gs addr16 gs jae 0x4085fd
  4085bf:	or     eax,0x2020200a
  4085c4:	and    BYTE PTR [eax],ah
  4085c6:	and    BYTE PTR [eax],ah
  4085c8:	and    BYTE PTR [edi+ebp*1],bh
  4085cb:	jae    0x408632
  4085cd:	arpl   WORD PTR [ebp+0x72],si
  4085d0:	imul   esi,DWORD PTR [ecx+edi*2+0x3e],0x20200a0d
  4085d8:	and    BYTE PTR [eax],ah
  4085da:	cmp    al,0x2f
  4085dc:	je     0x408650
  4085de:	jne    0x408653
  4085e0:	je     0x40862b
  4085e2:	outs   dx,BYTE PTR ds:[esi]
  4085e3:	outs   dx,WORD PTR ds:[esi]
  4085e5:	ds or  eax,0x612f3c0a
  4085eb:	jae    0x408660
  4085ed:	gs ins DWORD PTR es:[edi],dx
  4085ef:	bound  ebp,QWORD PTR [ecx+edi*2+0x3e]
  4085f3:	add    BYTE PTR [eax],al
  4085f5:	add    BYTE PTR [eax],al
	...

Disassembly of section .reloc:

0040a000 <.reloc>:
  40a000:	add    BYTE PTR [eax+0x0],dh
  40a003:	add    BYTE PTR [eax+eax*1],cl
  40a006:	add    BYTE PTR [eax],al
  40a008:	lock xor BYTE PTR [eax],al
	...
