
30e76f37938413ff5ffcd80ec35bc4ca353a64a5aa3a197a00cc23eb11ad8f8b.exe:     file format pei-i386


Disassembly of section .text:

00401000 <.text>:
  401000:	push   ebp
  401001:	mov    ebp,esp
  401003:	sub    esp,0x8
  401006:	mov    eax,ds:0x406000
  40100b:	test   eax,eax
  40100d:	je     0x401010
  40100f:	int3   
  401010:	fnstcw WORD PTR [ebp-0x2]
  401013:	movzx  ecx,WORD PTR [ebp-0x2]
  401017:	and    ecx,0xfffff0c0
  40101d:	mov    WORD PTR [ebp-0x2],cx
  401021:	movzx  edx,WORD PTR [ebp-0x2]
  401025:	or     edx,0x33f
  40102b:	mov    WORD PTR [ebp-0x2],dx
  40102f:	fldcw  WORD PTR [ebp-0x2]
  401032:	mov    DWORD PTR [esp],0x401040
  401039:	call   0x401d80
  40103e:	leave  
  40103f:	ret    
  401040:	push   ebp
  401041:	mov    eax,0x10
  401046:	mov    ebp,esp
  401048:	push   edi
  401049:	push   esi
  40104a:	push   ebx
  40104b:	sub    esp,0x3c
  40104e:	mov    edi,DWORD PTR [ebp+0x8]
  401051:	and    esp,0xfffffff0
  401054:	call   0x401d50
  401059:	mov    ebx,0x403448
  40105e:	call   0x401de0
  401063:	mov    DWORD PTR [ebp-0x14],0x0
  40106a:	mov    DWORD PTR [ebp-0x18],0x0
  401071:	mov    DWORD PTR [ebp-0x1c],0x0
  401078:	mov    DWORD PTR [ebp-0x20],0x0
  40107f:	mov    DWORD PTR [ebp-0x24],0x0
  401086:	mov    DWORD PTR [ebp-0x28],0x0
  40108d:	mov    DWORD PTR [ebp-0x2c],0x0
  401094:	mov    DWORD PTR [esp+0x4],ebx
  401098:	mov    DWORD PTR [esp],0x2
  40109f:	call   0x402610
  4010a4:	mov    ecx,0x2f
  4010a9:	mov    DWORD PTR [esp+0x4],ecx
  4010ad:	mov    edx,DWORD PTR [ebp+0xc]
  4010b0:	mov    eax,DWORD PTR [edx]
  4010b2:	mov    DWORD PTR [esp],eax
  4010b5:	call   0x402608
  4010ba:	test   eax,eax
  4010bc:	je     0x4013d0
  4010c2:	inc    eax
  4010c3:	mov    ds:0x406048,eax
  4010c8:	mov    DWORD PTR [esp],0x403449
  4010cf:	call   0x402600
  4010d4:	test   eax,eax
  4010d6:	je     0x4010e0
  4010d8:	mov    DWORD PTR [ebp-0x20],0x2
  4010df:	nop
  4010e0:	lea    edx,[ebp-0x10]
  4010e3:	mov    ebx,0x403220
  4010e8:	mov    esi,0x403459
  4010ed:	mov    DWORD PTR [esp+0x10],edx
  4010f1:	mov    DWORD PTR [esp+0xc],ebx
  4010f5:	mov    DWORD PTR [esp+0x8],esi
  4010f9:	mov    eax,DWORD PTR [ebp+0xc]
  4010fc:	mov    DWORD PTR [esp],edi
  4010ff:	mov    DWORD PTR [esp+0x4],eax
  401103:	call   0x4021b0
  401108:	cmp    eax,0xffffffff
  40110b:	je     0x401304
  401111:	cmp    eax,0x7a
  401114:	ja     0x401120
  401116:	jmp    DWORD PTR [eax*4+0x40349c]
  40111d:	lea    esi,[esi+0x0]
  401120:	inc    DWORD PTR [ebp-0x1c]
  401123:	jmp    0x4010e0
  401125:	or     DWORD PTR [ebp-0x20],0x4
  401129:	jmp    0x4010e0
  40112b:	mov    edi,DWORD PTR [ebp-0x2c]
  40112e:	test   edi,edi
  401130:	je     0x4014e8
  401136:	mov    ecx,0x4
  40113b:	mov    edx,0x5
  401140:	mov    esi,0x403472
  401145:	mov    DWORD PTR [esp+0x10],ecx
  401149:	mov    DWORD PTR [esp+0xc],edx
  40114d:	mov    ebx,DWORD PTR ds:0x406048
  401153:	mov    DWORD PTR [esp+0x4],esi
  401157:	mov    DWORD PTR [esp+0x8],ebx
  40115b:	mov    eax,ds:0x40605c
  401160:	mov    edi,DWORD PTR [eax+0xc]
  401163:	mov    DWORD PTR [esp],edi
  401166:	call   0x4025f0
  40116b:	mov    ecx,DWORD PTR [ebp-0x2c]
  40116e:	mov    edx,0x40347e
  401173:	mov    DWORD PTR [esp+0x4],edx
  401177:	mov    DWORD PTR [esp+0x8],ecx
  40117b:	mov    ebx,DWORD PTR ds:0x40605c
  401181:	mov    esi,DWORD PTR [ebx+0xc]
  401184:	mov    DWORD PTR [esp],esi
  401187:	call   0x4025f0
  40118c:	mov    eax,0x1
  401191:	lea    esp,[ebp-0xc]
  401194:	pop    ebx
  401195:	pop    esi
  401196:	pop    edi
  401197:	pop    ebp
  401198:	ret    
  401199:	or     DWORD PTR [ebp-0x20],0x8
  40119d:	jmp    0x4010e0
  4011a2:	or     DWORD PTR [ebp-0x20],0x100
  4011a9:	jmp    0x4010e0
  4011ae:	or     DWORD PTR [ebp-0x20],0x80
  4011b5:	jmp    0x4010e0
  4011ba:	inc    DWORD PTR ds:0x406028
  4011c0:	jmp    0x4010e0
  4011c5:	mov    ecx,DWORD PTR ds:0x406074
  4011cb:	mov    DWORD PTR [ebp-0x2c],ecx
  4011ce:	jmp    0x4010e0
  4011d3:	or     DWORD PTR [ebp-0x20],0x20
  4011d7:	jmp    0x4010e0
  4011dc:	or     DWORD PTR [ebp-0x20],0x410
  4011e3:	jmp    0x4010e0
  4011e8:	and    DWORD PTR [ebp-0x20],0xfffffffd
  4011ec:	jmp    0x4010e0
  4011f1:	mov    ebx,DWORD PTR [ebp-0x14]
  4011f4:	test   ebx,ebx
  4011f6:	jne    0x4013f6
  4011fc:	mov    edx,DWORD PTR [ebp-0x28]
  4011ff:	test   edx,edx
  401201:	je     0x401471
  401207:	mov    ebx,DWORD PTR ds:0x406074
  40120d:	mov    DWORD PTR [esp+0x4],ebx
  401211:	mov    esi,DWORD PTR [ebp-0x28]
  401214:	mov    DWORD PTR [esp],esi
  401217:	call   0x4015f0
  40121c:	or     DWORD PTR [ebp-0x24],eax
  40121f:	inc    DWORD PTR [ebp-0x18]
  401222:	jmp    0x4010e0
  401227:	mov    esi,DWORD PTR ds:0x406074
  40122d:	xor    ebx,ebx
  40122f:	nop
  401230:	mov    DWORD PTR [esp+0x4],esi
  401234:	mov    eax,DWORD PTR [ebx*8+0x403400]
  40123b:	mov    DWORD PTR [esp],eax
  40123e:	call   0x4025f8
  401243:	test   eax,eax
  401245:	je     0x40124d
  401247:	inc    ebx
  401248:	cmp    ebx,0x8
  40124b:	jbe    0x401230
  40124d:	cmp    ebx,0x9
  401250:	je     0x401120
  401256:	mov    esi,DWORD PTR [ebx*8+0x403404]
  40125d:	or     DWORD PTR [ebp-0x20],esi
  401260:	jmp    0x4010e0
  401265:	or     DWORD PTR [ebp-0x20],0x41
  401269:	jmp    0x4010e0
  40126e:	mov    DWORD PTR [ebp-0x14],0x1
  401275:	jmp    0x4010e0
  40127a:	inc    DWORD PTR ds:0x406008
  401280:	jmp    0x4010e0
  401285:	inc    DWORD PTR ds:0x406018
  40128b:	jmp    0x4010e0
  401290:	or     DWORD PTR [ebp-0x20],0x2
  401294:	jmp    0x4010e0
  401299:	mov    edx,DWORD PTR ds:0x406074
  40129f:	mov    DWORD PTR ds:0x403000,edx
  4012a5:	jmp    0x4010e0
  4012aa:	mov    DWORD PTR [ebp-0x14],0x2
  4012b1:	jmp    0x4010e0
  4012b6:	mov    ecx,0x1
  4012bb:	mov    DWORD PTR ds:0x406038,ecx
  4012c1:	jmp    0x4010e0
  4012c6:	mov    eax,DWORD PTR [ebp-0x10]
  4012c9:	test   eax,eax
  4012cb:	je     0x4013ec
  4012d1:	jl     0x4010e0
  4012d7:	cmp    eax,0xa
  4012da:	je     0x4013c4
  4012e0:	jl     0x4010e0
  4012e6:	cmp    eax,0xb
  4012e9:	je     0x401503
  4012ef:	cmp    eax,0xc
  4012f2:	jne    0x4010e0
  4012f8:	or     DWORD PTR [ebp-0x20],0x400
  4012ff:	jmp    0x4010e0
  401304:	mov    ecx,DWORD PTR [ebp-0x1c]
  401307:	test   ecx,ecx
  401309:	jne    0x4013e2
  40130f:	mov    eax,DWORD PTR [ebp-0x24]
  401312:	test   eax,eax
  401314:	jne    0x401191
  40131a:	mov    eax,DWORD PTR [ebp-0x14]
  40131d:	dec    eax
  40131e:	cmp    eax,0x1
  401321:	jbe    0x401400
  401327:	mov    ecx,DWORD PTR [ebp-0x28]
  40132a:	test   ecx,ecx
  40132c:	je     0x4014be
  401332:	mov    edx,DWORD PTR ds:0x403024
  401338:	cmp    edx,edi
  40133a:	je     0x401493
  401340:	xor    esi,esi
  401342:	cmp    edi,edx
  401344:	mov    ebx,edx
  401346:	ja     0x4013a3
  401348:	cmp    DWORD PTR ds:0x406008,0x2
  40134f:	je     0x4014a8
  401355:	mov    eax,edx
  401357:	cmp    eax,edi
  401359:	jge    0x401386
  40135b:	mov    DWORD PTR [esp+0x8],esi
  40135f:	mov    ecx,DWORD PTR [ebp+0xc]
  401362:	mov    ebx,DWORD PTR [ecx+eax*4]
  401365:	mov    DWORD PTR [esp+0x4],ebx
  401369:	mov    edx,DWORD PTR [ebp-0x28]
  40136c:	mov    DWORD PTR [esp],edx
  40136f:	call   0x4017c0
  401374:	or     DWORD PTR [ebp-0x24],eax
  401377:	mov    eax,ds:0x403024
  40137c:	inc    eax
  40137d:	mov    ds:0x403024,eax
  401382:	cmp    eax,edi
  401384:	jl     0x40135b
  401386:	mov    esi,DWORD PTR [ebp-0x28]
  401389:	test   esi,esi
  40138b:	je     0x401398
  40138d:	mov    edi,DWORD PTR [ebp-0x28]
  401390:	mov    DWORD PTR [esp],edi
  401393:	call   0x401d20
  401398:	mov    eax,DWORD PTR [ebp-0x24]
  40139b:	lea    esp,[ebp-0xc]
  40139e:	pop    ebx
  40139f:	pop    esi
  4013a0:	pop    edi
  4013a1:	pop    ebp
  4013a2:	ret    
  4013a3:	mov    edx,DWORD PTR [ebp+0xc]
  4013a6:	mov    ecx,DWORD PTR [edx+ebx*4]
  4013a9:	mov    DWORD PTR [esp],ecx
  4013ac:	call   0x401920
  4013b1:	cmp    eax,esi
  4013b3:	jbe    0x4013b7
  4013b5:	mov    esi,eax
  4013b7:	inc    ebx
  4013b8:	cmp    edi,ebx
  4013ba:	ja     0x4013a3
  4013bc:	mov    edx,DWORD PTR ds:0x403024
  4013c2:	jmp    0x401348
  4013c4:	or     DWORD PTR [ebp-0x20],0x800
  4013cb:	jmp    0x4010e0
  4013d0:	mov    esi,DWORD PTR [ebp+0xc]
  4013d3:	xor    edx,edx
  4013d5:	mov    DWORD PTR ds:0x406048,edx
  4013db:	mov    eax,DWORD PTR [esi]
  4013dd:	jmp    0x4010c3
  4013e2:	call   0x401930
  4013e7:	jmp    0x40130f
  4013ec:	call   0x401970
  4013f1:	jmp    0x4010e0
  4013f6:	call   0x401930
  4013fb:	jmp    0x4011fc
  401400:	or     DWORD PTR [ebp-0x20],0x40
  401404:	mov    edi,DWORD PTR [ebp-0x20]
  401407:	mov    DWORD PTR [esp],edi
  40140a:	call   0x401d40
  40140f:	test   eax,eax
  401411:	mov    ebx,eax
  401413:	je     0x401520
  401419:	cmp    DWORD PTR [ebp-0x14],0x1
  40141d:	je     0x40150c
  401423:	mov    ecx,DWORD PTR [ebp-0x2c]
  401426:	mov    DWORD PTR [esp],eax
  401429:	mov    DWORD PTR [esp+0x4],ecx
  40142d:	call   0x401d30
  401432:	mov    edi,eax
  401434:	xor    eax,eax
  401436:	inc    edi
  401437:	jne    0x401191
  40143d:	mov    DWORD PTR [esp],ebx
  401440:	call   0x401d28
  401445:	mov    DWORD PTR [esp+0xc],eax
  401449:	mov    esi,0x403492
  40144e:	mov    edx,DWORD PTR ds:0x406048
  401454:	mov    DWORD PTR [esp+0x4],esi
  401458:	mov    DWORD PTR [esp+0x8],edx
  40145c:	mov    eax,ds:0x40605c
  401461:	mov    ebx,DWORD PTR [eax+0xc]
  401464:	mov    DWORD PTR [esp],ebx
  401467:	call   0x4025f0
  40146c:	jmp    0x40118c
  401471:	mov    eax,DWORD PTR [ebp-0x20]
  401474:	mov    DWORD PTR [esp+0x4],eax
  401478:	mov    ecx,DWORD PTR [ebp-0x2c]
  40147b:	mov    DWORD PTR [esp],ecx
  40147e:	call   0x401540
  401483:	mov    DWORD PTR [ebp-0x28],eax
  401486:	test   eax,eax
  401488:	jne    0x401207
  40148e:	jmp    0x40118c
  401493:	mov    edi,DWORD PTR [ebp-0x18]
  401496:	test   edi,edi
  401498:	jne    0x401386
  40149e:	call   0x401930
  4014a3:	jmp    0x401386
  4014a8:	lea    ecx,[edi-0x1]
  4014ab:	cmp    ecx,edx
  4014ad:	setle  al
  4014b0:	movzx  ebx,al
  4014b3:	mov    DWORD PTR ds:0x406008,ebx
  4014b9:	jmp    0x401355
  4014be:	mov    esi,DWORD PTR [ebp-0x20]
  4014c1:	mov    DWORD PTR [esp+0x4],esi
  4014c5:	mov    eax,DWORD PTR [ebp-0x2c]
  4014c8:	mov    DWORD PTR [esp],eax
  4014cb:	call   0x401540
  4014d0:	mov    DWORD PTR [ebp-0x28],eax
  4014d3:	mov    ebx,DWORD PTR [ebp-0x28]
  4014d6:	mov    eax,0x1
  4014db:	test   ebx,ebx
  4014dd:	jne    0x401332
  4014e3:	jmp    0x401191
  4014e8:	mov    eax,DWORD PTR [ebp-0x14]
  4014eb:	mov    DWORD PTR [esp],0x0
  4014f2:	mov    DWORD PTR [esp+0x4],eax
  4014f6:	call   0x401d48
  4014fb:	mov    DWORD PTR [ebp-0x2c],eax
  4014fe:	jmp    0x401136
  401503:	or     DWORD PTR [ebp-0x20],0x10
  401507:	jmp    0x4010e0
  40150c:	mov    edx,DWORD PTR [ebp-0x2c]
  40150f:	mov    DWORD PTR [esp],eax
  401512:	mov    DWORD PTR [esp+0x4],edx
  401516:	call   0x401d38
  40151b:	jmp    0x401432
  401520:	call   0x4025e0
  401525:	mov    esi,DWORD PTR [eax]
  401527:	mov    DWORD PTR [esp],esi
  40152a:	call   0x4025e8
  40152f:	jmp    0x401445
  401534:	lea    esi,[esi+0x0]
  40153a:	lea    edi,[edi+0x0]
  401540:	push   ebp
  401541:	mov    ebp,esp
  401543:	push   ebx
  401544:	sub    esp,0x14
  401547:	mov    eax,DWORD PTR [ebp+0xc]
  40154a:	mov    DWORD PTR [esp],eax
  40154d:	call   0x401d40
  401552:	test   eax,eax
  401554:	mov    ebx,eax
  401556:	je     0x401574
  401558:	mov    DWORD PTR [esp],eax
  40155b:	mov    ecx,DWORD PTR [ebp+0x8]
  40155e:	mov    DWORD PTR [esp+0x4],ecx
  401562:	call   0x401d18
  401567:	inc    eax
  401568:	mov    edx,ebx
  40156a:	je     0x4015ae
  40156c:	add    esp,0x14
  40156f:	mov    eax,edx
  401571:	pop    ebx
  401572:	pop    ebp
  401573:	ret    
  401574:	call   0x4025e0
  401579:	mov    edx,DWORD PTR [eax]
  40157b:	mov    ebx,0x403492
  401580:	mov    DWORD PTR [esp],edx
  401583:	call   0x4025e8
  401588:	mov    DWORD PTR [esp+0xc],eax
  40158c:	mov    eax,ds:0x406048
  401591:	mov    ecx,DWORD PTR ds:0x40605c
  401597:	mov    DWORD PTR [esp+0x4],ebx
  40159b:	mov    DWORD PTR [esp+0x8],eax
  40159f:	mov    edx,DWORD PTR [ecx+0xc]
  4015a2:	mov    DWORD PTR [esp],edx
  4015a5:	call   0x4025f0
  4015aa:	xor    edx,edx
  4015ac:	jmp    0x40156c
  4015ae:	mov    DWORD PTR [esp],ebx
  4015b1:	call   0x401d28
  4015b6:	mov    DWORD PTR [esp+0xc],eax
  4015ba:	mov    eax,ds:0x406048
  4015bf:	mov    ecx,0x403492
  4015c4:	mov    DWORD PTR [esp+0x4],ecx
  4015c8:	mov    edx,DWORD PTR ds:0x40605c
  4015ce:	mov    DWORD PTR [esp+0x8],eax
  4015d2:	mov    eax,DWORD PTR [edx+0xc]
  4015d5:	mov    DWORD PTR [esp],eax
  4015d8:	call   0x4025f0
  4015dd:	mov    DWORD PTR [esp],ebx
  4015e0:	call   0x401d20
  4015e5:	xor    edx,edx
  4015e7:	jmp    0x40156c
  4015e9:	lea    esi,[esi+eiz*1+0x0]
  4015f0:	push   ebp
  4015f1:	xor    eax,eax
  4015f3:	mov    ebp,esp
  4015f5:	push   edi
  4015f6:	cld    
  4015f7:	mov    ecx,0x2
  4015fc:	push   esi
  4015fd:	mov    esi,0x403688
  401602:	push   ebx
  401603:	sub    esp,0x14c
  401609:	mov    DWORD PTR [ebp-0x12c],eax
  40160f:	mov    edi,DWORD PTR [ebp+0xc]
  401612:	xor    ebx,ebx
  401614:	repz cmps BYTE PTR ds:[esi],BYTE PTR es:[edi]
  401616:	jne    0x4016d7
  40161c:	mov    edi,DWORD PTR ds:0x40605c
  401622:	mov    edx,0x1
  401627:	mov    DWORD PTR [ebp-0x12c],edx
  40162d:	mov    esi,DWORD PTR [edi+0x4]
  401630:	lea    edi,[ebp-0x128]
  401636:	lea    esi,[esi+0x0]
  401639:	lea    edi,[edi+eiz*1+0x0]
  401640:	mov    DWORD PTR [esp+0x8],esi
  401644:	mov    eax,0x103
  401649:	mov    DWORD PTR [esp+0x4],eax
  40164d:	mov    DWORD PTR [esp],edi
  401650:	call   0x4025d0
  401655:	test   eax,eax
  401657:	je     0x4016c2
  401659:	mov    DWORD PTR [esp],edi
  40165c:	mov    eax,0x40368a
  401661:	mov    DWORD PTR [esp+0x4],eax
  401665:	call   0x4025c8
  40166a:	mov    DWORD PTR [esp+0x4],edi
  40166e:	xor    edx,edx
  401670:	mov    BYTE PTR [ebp+eax*1-0x128],dl
  401677:	mov    ecx,DWORD PTR [ebp-0x12c]
  40167d:	mov    eax,DWORD PTR [ebp+0x8]
  401680:	mov    DWORD PTR [esp+0x8],ecx
  401684:	mov    DWORD PTR [esp],eax
  401687:	call   0x4017c0
  40168c:	mov    edx,DWORD PTR ds:0x406028
  401692:	or     ebx,eax
  401694:	test   edx,edx
  401696:	je     0x401640
  401698:	mov    edx,DWORD PTR ds:0x40605c
  40169e:	mov    ecx,DWORD PTR [edx+0x8]
  4016a1:	mov    DWORD PTR [esp],ecx
  4016a4:	call   0x4025b8
  4016a9:	mov    DWORD PTR [esp+0x8],esi
  4016ad:	mov    eax,0x103
  4016b2:	mov    DWORD PTR [esp+0x4],eax
  4016b6:	mov    DWORD PTR [esp],edi
  4016b9:	call   0x4025d0
  4016be:	test   eax,eax
  4016c0:	jne    0x401659
  4016c2:	mov    DWORD PTR [esp],esi
  4016c5:	call   0x4025b0
  4016ca:	mov    eax,ebx
  4016cc:	add    esp,0x14c
  4016d2:	pop    ebx
  4016d3:	pop    esi
  4016d4:	pop    edi
  4016d5:	pop    ebp
  4016d6:	ret    
  4016d7:	mov    esi,DWORD PTR [ebp+0xc]
  4016da:	mov    ecx,0x40368c
  4016df:	lea    edi,[ebp-0x128]
  4016e5:	mov    DWORD PTR [esp+0x4],ecx
  4016e9:	mov    DWORD PTR [esp],esi
  4016ec:	call   0x4025d8
  4016f1:	test   eax,eax
  4016f3:	mov    esi,eax
  4016f5:	je     0x40176f
  4016f7:	mov    esi,esi
  4016f9:	lea    edi,[edi+eiz*1+0x0]
  401700:	mov    DWORD PTR [esp+0x8],esi
  401704:	mov    ecx,0x103
  401709:	mov    DWORD PTR [esp+0x4],ecx
  40170d:	mov    DWORD PTR [esp],edi
  401710:	call   0x4025d0
  401715:	test   eax,eax
  401717:	je     0x401762
  401719:	mov    DWORD PTR [esp],edi
  40171c:	mov    eax,0x40368a
  401721:	mov    DWORD PTR [esp+0x4],eax
  401725:	call   0x4025c8
  40172a:	mov    DWORD PTR [esp],edi
  40172d:	xor    edx,edx
  40172f:	mov    BYTE PTR [ebp+eax*1-0x128],dl
  401736:	call   0x401920
  40173b:	cmp    eax,DWORD PTR [ebp-0x12c]
  401741:	jle    0x401700
  401743:	mov    DWORD PTR [ebp-0x12c],eax
  401749:	mov    ecx,0x103
  40174e:	mov    DWORD PTR [esp+0x8],esi
  401752:	mov    DWORD PTR [esp+0x4],ecx
  401756:	mov    DWORD PTR [esp],edi
  401759:	call   0x4025d0
  40175e:	test   eax,eax
  401760:	jne    0x401719
  401762:	mov    DWORD PTR [esp],esi
  401765:	call   0x4025c0
  40176a:	jmp    0x401640
  40176f:	call   0x4025e0
  401774:	mov    ecx,DWORD PTR [eax]
  401776:	mov    DWORD PTR [esp],ecx
  401779:	call   0x4025e8
  40177e:	mov    DWORD PTR [esp+0x10],eax
  401782:	mov    esi,DWORD PTR [ebp+0xc]
  401785:	mov    edx,0x40368f
  40178a:	mov    DWORD PTR [esp+0x4],edx
  40178e:	mov    edi,DWORD PTR ds:0x406048
  401794:	mov    eax,ds:0x40605c
  401799:	mov    DWORD PTR [esp+0xc],esi
  40179d:	mov    DWORD PTR [esp+0x8],edi
  4017a1:	mov    ebx,DWORD PTR [eax+0xc]
  4017a4:	mov    DWORD PTR [esp],ebx
  4017a7:	call   0x4025f0
  4017ac:	mov    eax,0x1
  4017b1:	jmp    0x4016cc
  4017b6:	lea    esi,[esi+0x0]
  4017b9:	lea    edi,[edi+eiz*1+0x0]
  4017c0:	push   ebp
  4017c1:	cld    
  4017c2:	mov    ebp,esp
  4017c4:	sub    esp,0x28
  4017c7:	mov    DWORD PTR [ebp-0xc],ebx
  4017ca:	mov    ebx,DWORD PTR [ebp+0xc]
  4017cd:	mov    ecx,0x2
  4017d2:	mov    DWORD PTR [ebp-0x8],esi
  4017d5:	mov    eax,DWORD PTR [ebp+0x10]
  4017d8:	mov    DWORD PTR [ebp-0x4],edi
  4017db:	mov    esi,ebx
  4017dd:	mov    edi,0x403688
  4017e2:	repz cmps BYTE PTR ds:[esi],BYTE PTR es:[edi]
  4017e4:	sete   dl
  4017e7:	test   eax,eax
  4017e9:	movzx  edi,dl
  4017ec:	jle    0x4017f7
  4017ee:	mov    eax,ds:0x406008
  4017f3:	test   eax,eax
  4017f5:	je     0x401830
  4017f7:	test   edi,edi
  4017f9:	mov    esi,ebx
  4017fb:	je     0x4017ff
  4017fd:	xor    esi,esi
  4017ff:	mov    DWORD PTR [esp+0x4],esi
  401803:	mov    ebx,DWORD PTR [ebp+0x8]
  401806:	mov    DWORD PTR [esp],ebx
  401809:	call   0x401d10
  40180e:	test   eax,eax
  401810:	je     0x4018e4
  401816:	mov    DWORD PTR [esp],eax
  401819:	call   0x402598
  40181e:	mov    ebx,DWORD PTR [ebp-0xc]
  401821:	xor    eax,eax
  401823:	mov    esi,DWORD PTR [ebp-0x8]
  401826:	mov    edi,DWORD PTR [ebp-0x4]
  401829:	mov    esp,ebp
  40182b:	pop    ebp
  40182c:	ret    
  40182d:	lea    esi,[esi+0x0]
  401830:	test   edi,edi
  401832:	mov    eax,ebx
  401834:	jne    0x401893
  401836:	mov    DWORD PTR [esp+0x4],eax
  40183a:	mov    DWORD PTR [esp],0x4036ab
  401841:	call   0x4025a8
  401846:	mov    edx,DWORD PTR ds:0x406038
  40184c:	test   edx,edx
  40184e:	je     0x4018b2
  401850:	mov    ecx,DWORD PTR ds:0x40605c
  401856:	mov    esi,DWORD PTR [ecx+0x8]
  401859:	mov    DWORD PTR [esp],0x0
  401860:	mov    DWORD PTR [esp+0x4],esi
  401864:	call   0x4025a0
  401869:	mov    edx,DWORD PTR ds:0x406018
  40186f:	xor    eax,eax
  401871:	test   edx,edx
  401873:	je     0x4018d3
  401875:	mov    DWORD PTR [esp+0x4],eax
  401879:	mov    ecx,0x403448
  40187e:	mov    DWORD PTR [esp+0x8],ecx
  401882:	mov    DWORD PTR [esp],0x4036ae
  401889:	call   0x4025a8
  40188e:	jmp    0x4017f7
  401893:	mov    DWORD PTR [esp],0x4036ab
  40189a:	mov    eax,0x4036b3
  40189f:	mov    DWORD PTR [esp+0x4],eax
  4018a3:	call   0x4025a8
  4018a8:	mov    edx,DWORD PTR ds:0x406038
  4018ae:	test   edx,edx
  4018b0:	jne    0x401850
  4018b2:	mov    eax,ds:0x403000
  4018b7:	mov    DWORD PTR [esp],0x4036ab
  4018be:	mov    DWORD PTR [esp+0x4],eax
  4018c2:	call   0x4025a8
  4018c7:	mov    edx,DWORD PTR ds:0x406018
  4018cd:	xor    eax,eax
  4018cf:	test   edx,edx
  4018d1:	jne    0x401875
  4018d3:	mov    DWORD PTR [esp],ebx
  4018d6:	call   0x401920
  4018db:	mov    esi,DWORD PTR [ebp+0x10]
  4018de:	sub    esi,eax
  4018e0:	mov    eax,esi
  4018e2:	jmp    0x401875
  4018e4:	mov    edi,DWORD PTR [ebp+0x8]
  4018e7:	mov    DWORD PTR [esp],edi
  4018ea:	call   0x401d28
  4018ef:	mov    DWORD PTR [esp+0x4],eax
  4018f3:	mov    DWORD PTR [esp],0x4036be
  4018fa:	call   0x4025a8
  4018ff:	mov    ebx,DWORD PTR [ebp-0xc]
  401902:	mov    eax,0x1
  401907:	mov    esi,DWORD PTR [ebp-0x8]
  40190a:	mov    edi,DWORD PTR [ebp-0x4]
  40190d:	mov    esp,ebp
  40190f:	pop    ebp
  401910:	ret    
  401911:	jmp    0x401920
  401913:	nop
  401914:	nop
  401915:	nop
  401916:	nop
  401917:	nop
  401918:	nop
  401919:	nop
  40191a:	nop
  40191b:	nop
  40191c:	nop
  40191d:	nop
  40191e:	nop
  40191f:	nop
  401920:	push   ebp
  401921:	mov    ebp,esp
  401923:	pop    ebp
  401924:	jmp    0x402590
  401929:	lea    esi,[esi+eiz*1+0x0]
  401930:	push   ebp
  401931:	mov    ecx,0x4036cc
  401936:	mov    ebp,esp
  401938:	sub    esp,0x18
  40193b:	mov    eax,ds:0x406048
  401940:	mov    DWORD PTR [esp+0x4],ecx
  401944:	mov    edx,DWORD PTR ds:0x40605c
  40194a:	mov    DWORD PTR [esp+0x10],eax
  40194e:	mov    DWORD PTR [esp+0xc],eax
  401952:	mov    DWORD PTR [esp+0x8],eax
  401956:	mov    eax,DWORD PTR [edx+0xc]
  401959:	mov    DWORD PTR [esp],eax
  40195c:	call   0x4025f0
  401961:	mov    DWORD PTR [esp],0x1
  401968:	call   0x402588
  40196d:	lea    esi,[esi+0x0]
  401970:	push   ebp
  401971:	mov    edx,0x3c
  401976:	mov    ebp,esp
  401978:	sub    esp,0x18
  40197b:	mov    eax,ds:0x40605c
  401980:	mov    ecx,DWORD PTR [eax+0xc]
  401983:	mov    DWORD PTR [esp+0x8],edx
  401987:	mov    eax,0x1
  40198c:	mov    DWORD PTR [esp+0x4],eax
  401990:	mov    DWORD PTR [esp+0xc],ecx
  401994:	mov    DWORD PTR [esp],0x403794
  40199b:	call   0x402580
  4019a0:	mov    ecx,DWORD PTR ds:0x40605c
  4019a6:	mov    eax,0x38
  4019ab:	mov    edx,DWORD PTR [ecx+0xc]
  4019ae:	mov    DWORD PTR [esp+0x8],eax
  4019b2:	mov    ecx,0x1
  4019b7:	mov    DWORD PTR [esp+0x4],ecx
  4019bb:	mov    DWORD PTR [esp+0xc],edx
  4019bf:	mov    DWORD PTR [esp],0x4037d4
  4019c6:	call   0x402580
  4019cb:	mov    ecx,DWORD PTR ds:0x40605c
  4019d1:	mov    edx,0x76
  4019d6:	mov    eax,0x403810
  4019db:	mov    DWORD PTR [esp+0x8],edx
  4019df:	mov    DWORD PTR [esp+0x4],eax
  4019e3:	mov    edx,DWORD PTR [ecx+0xc]
  4019e6:	mov    DWORD PTR [esp],edx
  4019e9:	call   0x4025f0
  4019ee:	mov    edx,DWORD PTR ds:0x40605c
  4019f4:	mov    ecx,0x403854
  4019f9:	mov    eax,0x6d
  4019fe:	mov    DWORD PTR [esp+0x4],ecx
  401a02:	mov    DWORD PTR [esp+0x8],eax
  401a06:	mov    eax,DWORD PTR [edx+0xc]
  401a09:	mov    DWORD PTR [esp],eax
  401a0c:	call   0x4025f0
  401a11:	mov    eax,ds:0x40605c
  401a16:	mov    edx,0x4038cc
  401a1b:	mov    ecx,0x7a
  401a20:	mov    DWORD PTR [esp+0x4],edx
  401a24:	mov    DWORD PTR [esp+0x8],ecx
  401a28:	mov    ecx,DWORD PTR [eax+0xc]
  401a2b:	mov    DWORD PTR [esp],ecx
  401a2e:	call   0x4025f0
  401a33:	mov    ecx,DWORD PTR ds:0x40605c
  401a39:	mov    edx,0x62
  401a3e:	mov    eax,0x403910
  401a43:	mov    DWORD PTR [esp+0x8],edx
  401a47:	mov    DWORD PTR [esp+0x4],eax
  401a4b:	mov    edx,DWORD PTR [ecx+0xc]
  401a4e:	mov    DWORD PTR [esp],edx
  401a51:	call   0x4025f0
  401a56:	mov    edx,DWORD PTR ds:0x40605c
  401a5c:	mov    ecx,0x403958
  401a61:	mov    eax,0x63
  401a66:	mov    DWORD PTR [esp+0x4],ecx
  401a6a:	mov    DWORD PTR [esp+0x8],eax
  401a6e:	mov    eax,DWORD PTR [edx+0xc]
  401a71:	mov    DWORD PTR [esp],eax
  401a74:	call   0x4025f0
  401a79:	mov    eax,ds:0x40605c
  401a7e:	mov    edx,0x403a28
  401a83:	mov    ecx,0x65
  401a88:	mov    DWORD PTR [esp+0x4],edx
  401a8c:	mov    DWORD PTR [esp+0x8],ecx
  401a90:	mov    ecx,DWORD PTR [eax+0xc]
  401a93:	mov    DWORD PTR [esp],ecx
  401a96:	call   0x4025f0
  401a9b:	mov    ecx,DWORD PTR ds:0x40605c
  401aa1:	mov    edx,0x66
  401aa6:	mov    eax,0x403b0c
  401aab:	mov    DWORD PTR [esp+0x8],edx
  401aaf:	mov    DWORD PTR [esp+0x4],eax
  401ab3:	mov    edx,DWORD PTR [ecx+0xc]
  401ab6:	mov    DWORD PTR [esp],edx
  401ab9:	call   0x4025f0
  401abe:	mov    edx,DWORD PTR ds:0x40605c
  401ac4:	mov    ecx,0x403b58
  401ac9:	mov    eax,0x46
  401ace:	mov    DWORD PTR [esp+0x4],ecx
  401ad2:	mov    DWORD PTR [esp+0x8],eax
  401ad6:	mov    eax,DWORD PTR [edx+0xc]
  401ad9:	mov    DWORD PTR [esp],eax
  401adc:	call   0x4025f0
  401ae1:	mov    eax,ds:0x40605c
  401ae6:	mov    edx,0x403ba0
  401aeb:	mov    ecx,0x69
  401af0:	mov    DWORD PTR [esp+0x4],edx
  401af4:	mov    DWORD PTR [esp+0x8],ecx
  401af8:	mov    ecx,DWORD PTR [eax+0xc]
  401afb:	mov    DWORD PTR [esp],ecx
  401afe:	call   0x4025f0
  401b03:	mov    edx,DWORD PTR ds:0x40605c
  401b09:	mov    ecx,0x3b
  401b0e:	mov    eax,DWORD PTR [edx+0xc]
  401b11:	mov    DWORD PTR [esp+0x8],ecx
  401b15:	mov    edx,0x1
  401b1a:	mov    DWORD PTR [esp+0x4],edx
  401b1e:	mov    DWORD PTR [esp+0xc],eax
  401b22:	mov    DWORD PTR [esp],0x403c1c
  401b29:	call   0x402580
  401b2e:	mov    eax,ds:0x40605c
  401b33:	mov    edx,0x32
  401b38:	mov    ecx,DWORD PTR [eax+0xc]
  401b3b:	mov    DWORD PTR [esp+0x8],edx
  401b3f:	mov    eax,0x1
  401b44:	mov    DWORD PTR [esp+0x4],eax
  401b48:	mov    DWORD PTR [esp+0xc],ecx
  401b4c:	mov    DWORD PTR [esp],0x403c58
  401b53:	call   0x402580
  401b58:	mov    ecx,DWORD PTR ds:0x40605c
  401b5e:	mov    eax,0x36
  401b63:	mov    edx,DWORD PTR [ecx+0xc]
  401b66:	mov    DWORD PTR [esp+0x8],eax
  401b6a:	mov    ecx,0x1
  401b6f:	mov    DWORD PTR [esp+0x4],ecx
  401b73:	mov    DWORD PTR [esp+0xc],edx
  401b77:	mov    DWORD PTR [esp],0x403c8c
  401b7e:	call   0x402580
  401b83:	mov    ecx,DWORD PTR ds:0x40605c
  401b89:	mov    edx,0x6b
  401b8e:	mov    eax,0x403cc4
  401b93:	mov    DWORD PTR [esp+0x8],edx
  401b97:	mov    DWORD PTR [esp+0x4],eax
  401b9b:	mov    edx,DWORD PTR [ecx+0xc]
  401b9e:	mov    DWORD PTR [esp],edx
  401ba1:	call   0x4025f0
  401ba6:	mov    edx,DWORD PTR ds:0x40605c
  401bac:	mov    ecx,0x403d04
  401bb1:	mov    eax,0x4c
  401bb6:	mov    DWORD PTR [esp+0x4],ecx
  401bba:	mov    DWORD PTR [esp+0x8],eax
  401bbe:	mov    eax,DWORD PTR [edx+0xc]
  401bc1:	mov    DWORD PTR [esp],eax
  401bc4:	call   0x4025f0
  401bc9:	mov    eax,ds:0x40605c
  401bce:	mov    edx,0x403d40
  401bd3:	mov    ecx,0x68
  401bd8:	mov    DWORD PTR [esp+0x4],edx
  401bdc:	mov    DWORD PTR [esp+0x8],ecx
  401be0:	mov    ecx,DWORD PTR [eax+0xc]
  401be3:	mov    DWORD PTR [esp],ecx
  401be6:	call   0x4025f0
  401beb:	mov    ecx,DWORD PTR ds:0x40605c
  401bf1:	mov    edx,0x6e
  401bf6:	mov    eax,0x403d78
  401bfb:	mov    DWORD PTR [esp+0x8],edx
  401bff:	mov    DWORD PTR [esp+0x4],eax
  401c03:	mov    edx,DWORD PTR [ecx+0xc]
  401c06:	mov    DWORD PTR [esp],edx
  401c09:	call   0x4025f0
  401c0e:	mov    edx,DWORD PTR ds:0x40605c
  401c14:	mov    ecx,0x403dac
  401c19:	mov    eax,0x4e
  401c1e:	mov    DWORD PTR [esp+0x4],ecx
  401c22:	mov    DWORD PTR [esp+0x8],eax
  401c26:	mov    eax,DWORD PTR [edx+0xc]
  401c29:	mov    DWORD PTR [esp],eax
  401c2c:	call   0x4025f0
  401c31:	mov    eax,ds:0x40605c
  401c36:	mov    edx,0x403de0
  401c3b:	mov    ecx,0x30
  401c40:	mov    DWORD PTR [esp+0x4],edx
  401c44:	mov    DWORD PTR [esp+0x8],ecx
  401c48:	mov    ecx,DWORD PTR [eax+0xc]
  401c4b:	mov    DWORD PTR [esp],ecx
  401c4e:	call   0x4025f0
  401c53:	mov    ecx,DWORD PTR ds:0x40605c
  401c59:	mov    edx,0x70
  401c5e:	mov    eax,0x403e24
  401c63:	mov    DWORD PTR [esp+0x8],edx
  401c67:	mov    DWORD PTR [esp+0x4],eax
  401c6b:	mov    edx,DWORD PTR [ecx+0xc]
  401c6e:	mov    DWORD PTR [esp],edx
  401c71:	call   0x4025f0
  401c76:	mov    edx,DWORD PTR ds:0x40605c
  401c7c:	mov    ecx,0x403e64
  401c81:	mov    eax,0x72
  401c86:	mov    DWORD PTR [esp+0x4],ecx
  401c8a:	mov    DWORD PTR [esp+0x8],eax
  401c8e:	mov    eax,DWORD PTR [edx+0xc]
  401c91:	mov    DWORD PTR [esp],eax
  401c94:	call   0x4025f0
  401c99:	mov    eax,ds:0x40605c
  401c9e:	mov    edx,0x403eb0
  401ca3:	mov    ecx,0x73
  401ca8:	mov    DWORD PTR [esp+0x4],edx
  401cac:	mov    DWORD PTR [esp+0x8],ecx
  401cb0:	mov    ecx,DWORD PTR [eax+0xc]
  401cb3:	mov    DWORD PTR [esp],ecx
  401cb6:	call   0x4025f0
  401cbb:	mov    ecx,DWORD PTR ds:0x40605c
  401cc1:	mov    edx,0x43
  401cc6:	mov    eax,0x403f28
  401ccb:	mov    DWORD PTR [esp+0x8],edx
  401ccf:	mov    DWORD PTR [esp+0x4],eax
  401cd3:	mov    edx,DWORD PTR [ecx+0xc]
  401cd6:	mov    DWORD PTR [esp],edx
  401cd9:	call   0x4025f0
  401cde:	mov    edx,DWORD PTR ds:0x40605c
  401ce4:	mov    eax,0x64
  401ce9:	mov    ecx,0x403f64
  401cee:	mov    DWORD PTR [esp+0x8],eax
  401cf2:	mov    DWORD PTR [esp+0x4],ecx
  401cf6:	mov    eax,DWORD PTR [edx+0xc]
  401cf9:	mov    DWORD PTR [esp],eax
  401cfc:	call   0x4025f0
  401d01:	mov    DWORD PTR [esp],0x0
  401d08:	call   0x402588
  401d0d:	nop
  401d0e:	nop
  401d0f:	nop
  401d10:	jmp    DWORD PTR ds:0x407124
  401d16:	nop
  401d17:	nop
  401d18:	jmp    DWORD PTR ds:0x40712c
  401d1e:	nop
  401d1f:	nop
  401d20:	jmp    DWORD PTR ds:0x407118
  401d26:	nop
  401d27:	nop
  401d28:	jmp    DWORD PTR ds:0x407120
  401d2e:	nop
  401d2f:	nop
  401d30:	jmp    DWORD PTR ds:0x40711c
  401d36:	nop
  401d37:	nop
  401d38:	jmp    DWORD PTR ds:0x407114
  401d3e:	nop
  401d3f:	nop
  401d40:	jmp    DWORD PTR ds:0x407130
  401d46:	nop
  401d47:	nop
  401d48:	jmp    DWORD PTR ds:0x407128
  401d4e:	nop
  401d4f:	nop
  401d50:	push   ecx
  401d51:	mov    ecx,esp
  401d53:	add    ecx,0x8
  401d56:	cmp    eax,0x1000
  401d5b:	jb     0x401d6d
  401d5d:	sub    ecx,0x1000
  401d63:	or     DWORD PTR [ecx],0x0
  401d66:	sub    eax,0x1000
  401d6b:	jmp    0x401d56
  401d6d:	sub    ecx,eax
  401d6f:	or     DWORD PTR [ecx],0x0
  401d72:	mov    eax,esp
  401d74:	mov    esp,ecx
  401d76:	mov    ecx,DWORD PTR [eax]
  401d78:	mov    eax,DWORD PTR [eax+0x4]
  401d7b:	jmp    eax
  401d7d:	nop
  401d7e:	nop
  401d7f:	nop
  401d80:	push   ebp
  401d81:	xor    eax,eax
  401d83:	mov    ebp,esp
  401d85:	sub    esp,0x18
  401d88:	mov    DWORD PTR [ebp-0x4],esi
  401d8b:	mov    esi,DWORD PTR [ebp+0x8]
  401d8e:	mov    DWORD PTR [ebp-0x8],ebx
  401d91:	xor    ebx,ebx
  401d93:	mov    DWORD PTR [esp+0x4],eax
  401d97:	mov    DWORD PTR [esp],esi
  401d9a:	call   0x401df0
  401d9f:	sub    esp,0x8
  401da2:	test   eax,eax
  401da4:	je     0x401db0
  401da6:	mov    DWORD PTR [esp],ebx
  401da9:	call   DWORD PTR ds:0x407150
  401daf:	nop
  401db0:	sub    esp,0xc0
  401db6:	lea    ebx,[esp+0x17]
  401dba:	and    ebx,0xfffffff0
  401dbd:	mov    DWORD PTR [ebx],0x0
  401dc3:	mov    DWORD PTR [esp+0x4],ebx
  401dc7:	mov    DWORD PTR [esp],esi
  401dca:	call   0x401df0
  401dcf:	sub    esp,0x8
  401dd2:	jmp    0x401da6
  401dd4:	nop
  401dd5:	nop
  401dd6:	nop
  401dd7:	nop
  401dd8:	nop
  401dd9:	nop
  401dda:	nop
  401ddb:	nop
  401ddc:	nop
  401ddd:	nop
  401dde:	nop
  401ddf:	nop
  401de0:	jmp    DWORD PTR ds:0x40713c
  401de6:	nop
  401de7:	nop
	...
  401df0:	push   ebp
  401df1:	xor    eax,eax
  401df3:	mov    ebp,esp
  401df5:	push   ebx
  401df6:	sub    esp,0x4
  401df9:	mov    ebx,DWORD PTR [ebp+0xc]
  401dfc:	test   ebx,ebx
  401dfe:	je     0x401ef0
  401e04:	mov    DWORD PTR [ebx+0x4],0xa8
  401e0b:	xor    ecx,ecx
  401e0d:	mov    edx,0x2f
  401e12:	mov    DWORD PTR [ebx+0x8],0x3e8
  401e19:	test   eax,eax
  401e1b:	mov    DWORD PTR [ebx+0xc],0xd
  401e22:	mov    DWORD PTR [ebx+0x80],ecx
  401e28:	mov    DWORD PTR [ebx+0x84],edx
  401e2e:	mov    DWORD PTR [ebx+0x2c],0x402ed0
  401e35:	mov    DWORD PTR [ebx+0x30],0x402ed8
  401e3c:	mov    DWORD PTR [ebx+0x14],0x406058
  401e43:	jne    0x401ee0
  401e49:	mov    DWORD PTR [ebx+0x10],0x40605c
  401e50:	mov    DWORD PTR [ebx+0x78],0x0
  401e57:	mov    ecx,DWORD PTR [ebp+0x8]
  401e5a:	mov    edx,DWORD PTR [ebp+0x0]
  401e5d:	mov    DWORD PTR [ebx+0x48],0x402e60
  401e64:	mov    DWORD PTR [ebx+0x28],ecx
  401e67:	mov    DWORD PTR [ebx],edx
  401e69:	mov    DWORD PTR [ebx+0x4c],0x402e50
  401e70:	mov    DWORD PTR [ebx+0x50],0x402e40
  401e77:	mov    DWORD PTR [ebx+0x54],0x402e30
  401e7e:	mov    DWORD PTR [ebx+0x24],0x406060
  401e85:	mov    DWORD PTR [ebx+0x18],0x402e28
  401e8c:	mov    DWORD PTR [ebx+0x1c],0x402e20
  401e93:	mov    DWORD PTR [ebx+0x20],0x402e18
  401e9a:	mov    DWORD PTR [ebx+0x44],0x402e10
  401ea1:	mov    DWORD PTR [esp],0x0
  401ea8:	call   0x402ea0
  401ead:	mov    DWORD PTR [ebx+0x7c],eax
  401eb0:	sub    esp,0x4
  401eb3:	mov    DWORD PTR [ebx+0x34],0x403000
  401eba:	mov    DWORD PTR [ebx+0x38],0x4041d0
  401ec1:	mov    DWORD PTR [ebx+0x3c],0x406000
  401ec8:	mov    DWORD PTR [ebx+0x40],0x4060b4
  401ecf:	call   0x402dd0
  401ed4:	mov    eax,0x1
  401ed9:	mov    ebx,DWORD PTR [ebp-0x4]
  401edc:	leave  
  401edd:	ret    0x8
  401ee0:	mov    eax,DWORD PTR [ebx+0xa4]
  401ee6:	mov    ds:0x40605c,eax
  401eeb:	jmp    0x401e50
  401ef0:	mov    DWORD PTR [esp],0x8
  401ef7:	call   0x402e70
  401efc:	mov    edx,eax
  401efe:	xor    eax,eax
  401f00:	cmp    edx,0xffffffff
  401f03:	je     0x401ed9
  401f05:	mov    ebx,edx
  401f07:	mov    eax,0x1
  401f0c:	jmp    0x401e04
  401f11:	nop
  401f12:	nop
  401f13:	nop
  401f14:	nop
  401f15:	nop
  401f16:	nop
  401f17:	nop
  401f18:	nop
  401f19:	nop
  401f1a:	nop
  401f1b:	nop
  401f1c:	nop
  401f1d:	nop
  401f1e:	nop
  401f1f:	nop
  401f20:	push   ebp
  401f21:	mov    ebp,esp
  401f23:	sub    esp,0x28
  401f26:	mov    DWORD PTR [ebp-0xc],ebx
  401f29:	mov    DWORD PTR [ebp-0x8],esi
  401f2c:	mov    DWORD PTR [ebp-0x4],edi
  401f2f:	mov    ecx,DWORD PTR ds:0x406064
  401f35:	test   ecx,ecx
  401f37:	jne    0x401f44
  401f39:	mov    edx,DWORD PTR ds:0x403028
  401f3f:	cmp    BYTE PTR [edx],0x0
  401f42:	jne    0x401fa0
  401f44:	mov    eax,ds:0x403024
  401f49:	xor    edx,edx
  401f4b:	cmp    eax,DWORD PTR [ebp+0x8]
  401f4e:	mov    DWORD PTR ds:0x406064,edx
  401f54:	jge    0x401f69
  401f56:	mov    ebx,DWORD PTR [ebp+0xc]
  401f59:	mov    edx,DWORD PTR [ebx+eax*4]
  401f5c:	mov    eax,edx
  401f5e:	mov    DWORD PTR ds:0x403028,edx
  401f64:	cmp    BYTE PTR [edx],0x2d
  401f67:	je     0x401f85
  401f69:	mov    eax,0x403fa0
  401f6e:	mov    ds:0x403028,eax
  401f73:	mov    eax,0xffffffff
  401f78:	mov    ebx,DWORD PTR [ebp-0xc]
  401f7b:	mov    esi,DWORD PTR [ebp-0x8]
  401f7e:	mov    edi,DWORD PTR [ebp-0x4]
  401f81:	mov    esp,ebp
  401f83:	pop    ebp
  401f84:	ret    
  401f85:	cmp    BYTE PTR [edx+0x1],0x0
  401f89:	je     0x401fa0
  401f8b:	inc    edx
  401f8c:	mov    DWORD PTR ds:0x403028,edx
  401f92:	cmp    BYTE PTR [eax+0x1],0x2d
  401f96:	je     0x4020de
  401f9c:	lea    esi,[esi+eiz*1+0x0]
  401fa0:	movsx  esi,BYTE PTR [edx]
  401fa3:	lea    edi,[edx+0x1]
  401fa6:	mov    ebx,edx
  401fa8:	mov    DWORD PTR ds:0x403028,edi
  401fae:	cmp    esi,0x3a
  401fb1:	mov    DWORD PTR ds:0x406084,esi
  401fb7:	je     0x402044
  401fbd:	mov    eax,esi
  401fbf:	mov    ecx,DWORD PTR [ebp+0x10]
  401fc2:	mov    ah,al
  401fc4:	mov    al,BYTE PTR [ecx]
  401fc6:	cmp    al,ah
  401fc8:	je     0x401fd1
  401fca:	inc    ecx
  401fcb:	test   al,al
  401fcd:	jne    0x401fc4
  401fcf:	xor    ecx,ecx
  401fd1:	mov    eax,ecx
  401fd3:	mov    DWORD PTR [ebp-0x14],eax
  401fd6:	test   eax,eax
  401fd8:	je     0x402044
  401fda:	mov    eax,DWORD PTR [ebp-0x14]
  401fdd:	cmp    BYTE PTR [eax+0x1],0x3a
  401fe1:	je     0x402006
  401fe3:	xor    edi,edi
  401fe5:	mov    DWORD PTR ds:0x406074,edi
  401feb:	cmp    BYTE PTR [edx+0x1],0x0
  401fef:	jne    0x401ff7
  401ff1:	inc    DWORD PTR ds:0x403024
  401ff7:	mov    eax,esi
  401ff9:	mov    ebx,DWORD PTR [ebp-0xc]
  401ffc:	mov    esi,DWORD PTR [ebp-0x8]
  401fff:	mov    edi,DWORD PTR [ebp-0x4]
  402002:	mov    esp,ebp
  402004:	pop    ebp
  402005:	ret    
  402006:	cmp    BYTE PTR [edx+0x1],0x0
  40200a:	jne    0x4020cd
  402010:	mov    edx,DWORD PTR ds:0x403024
  402016:	inc    edx
  402017:	cmp    edx,DWORD PTR [ebp+0x8]
  40201a:	jge    0x4020f3
  402020:	mov    eax,DWORD PTR [ebp+0xc]
  402023:	mov    edi,DWORD PTR [eax+edx*4]
  402026:	mov    DWORD PTR ds:0x406074,edi
  40202c:	mov    ebx,0x403fa0
  402031:	lea    ecx,[edx+0x1]
  402034:	mov    eax,esi
  402036:	mov    DWORD PTR ds:0x403028,ebx
  40203c:	mov    DWORD PTR ds:0x403024,ecx
  402042:	jmp    0x401ff9
  402044:	cmp    esi,0x2d
  402047:	mov    eax,0xffffffff
  40204c:	je     0x401f78
  402052:	movzx  edx,BYTE PTR [ebx+0x1]
  402056:	mov    ecx,DWORD PTR ds:0x403024
  40205c:	mov    edi,DWORD PTR ds:0x403020
  402062:	cmp    dl,0x1
  402065:	adc    ecx,0x0
  402068:	test   edi,edi
  40206a:	mov    DWORD PTR ds:0x403024,ecx
  402070:	je     0x4020bb
  402072:	mov    ebx,DWORD PTR [ebp+0x10]
  402075:	cmp    BYTE PTR [ebx],0x3a
  402078:	je     0x4020bb
  40207a:	mov    ecx,DWORD PTR [ebp+0xc]
  40207d:	mov    eax,0x2f
  402082:	mov    edi,DWORD PTR [ecx]
  402084:	mov    DWORD PTR [esp+0x4],eax
  402088:	mov    DWORD PTR [esp],edi
  40208b:	call   0x402608
  402090:	test   eax,eax
  402092:	mov    edx,edi
  402094:	je     0x402099
  402096:	lea    edx,[eax+0x1]
  402099:	mov    DWORD PTR [esp+0xc],esi
  40209d:	mov    ebx,0x403fa1
  4020a2:	mov    DWORD PTR [esp+0x8],edx
  4020a6:	mov    DWORD PTR [esp+0x4],ebx
  4020aa:	mov    edx,DWORD PTR ds:0x40605c
  4020b0:	mov    esi,DWORD PTR [edx+0xc]
  4020b3:	mov    DWORD PTR [esp],esi
  4020b6:	call   0x4025f0
  4020bb:	mov    ebx,DWORD PTR [ebp-0xc]
  4020be:	mov    eax,0x3f
  4020c3:	mov    esi,DWORD PTR [ebp-0x8]
  4020c6:	mov    edi,DWORD PTR [ebp-0x4]
  4020c9:	mov    esp,ebp
  4020cb:	pop    ebp
  4020cc:	ret    
  4020cd:	mov    DWORD PTR ds:0x406074,edi
  4020d3:	mov    edx,DWORD PTR ds:0x403024
  4020d9:	jmp    0x40202c
  4020de:	mov    esi,0x403fa0
  4020e3:	mov    eax,0xfffffffe
  4020e8:	mov    DWORD PTR ds:0x403028,esi
  4020ee:	jmp    0x401f78
  4020f3:	mov    DWORD PTR ds:0x403024,edx
  4020f9:	mov    ecx,DWORD PTR ds:0x403020
  4020ff:	mov    edx,0x403fa0
  402104:	mov    DWORD PTR ds:0x403028,edx
  40210a:	test   ecx,ecx
  40210c:	je     0x402157
  40210e:	mov    ebx,DWORD PTR [ebp+0x10]
  402111:	cmp    BYTE PTR [ebx],0x3a
  402114:	je     0x402157
  402116:	mov    ecx,DWORD PTR [ebp+0xc]
  402119:	mov    eax,0x2f
  40211e:	mov    edi,DWORD PTR [ecx]
  402120:	mov    DWORD PTR [esp+0x4],eax
  402124:	mov    DWORD PTR [esp],edi
  402127:	call   0x402608
  40212c:	test   eax,eax
  40212e:	mov    edx,edi
  402130:	je     0x402135
  402132:	lea    edx,[eax+0x1]
  402135:	mov    DWORD PTR [esp+0xc],esi
  402139:	mov    ebx,0x403fbc
  40213e:	mov    DWORD PTR [esp+0x8],edx
  402142:	mov    DWORD PTR [esp+0x4],ebx
  402146:	mov    edx,DWORD PTR ds:0x40605c
  40214c:	mov    esi,DWORD PTR [edx+0xc]
  40214f:	mov    DWORD PTR [esp],esi
  402152:	call   0x4025f0
  402157:	mov    eax,0x3a
  40215c:	jmp    0x401f78
  402161:	jmp    0x402170
  402163:	nop
  402164:	nop
  402165:	nop
  402166:	nop
  402167:	nop
  402168:	nop
  402169:	nop
  40216a:	nop
  40216b:	nop
  40216c:	nop
  40216d:	nop
  40216e:	nop
  40216f:	nop
  402170:	push   ebp
  402171:	mov    ebp,esp
  402173:	sub    esp,0x18
  402176:	mov    ecx,DWORD PTR [ebp+0x10]
  402179:	mov    DWORD PTR [esp+0x8],ecx
  40217d:	mov    edx,DWORD PTR [ebp+0xc]
  402180:	mov    DWORD PTR [esp+0x4],edx
  402184:	mov    eax,DWORD PTR [ebp+0x8]
  402187:	mov    DWORD PTR [esp],eax
  40218a:	call   0x401f20
  40218f:	cmp    eax,0xfffffffe
  402192:	je     0x402196
  402194:	leave  
  402195:	ret    
  402196:	inc    DWORD PTR ds:0x403024
  40219c:	mov    eax,0xffffffff
  4021a1:	leave  
  4021a2:	ret    
  4021a3:	lea    esi,[esi+0x0]
  4021a9:	lea    edi,[edi+eiz*1+0x0]
  4021b0:	push   ebp
  4021b1:	mov    ebp,esp
  4021b3:	push   edi
  4021b4:	push   esi
  4021b5:	push   ebx
  4021b6:	sub    esp,0x2c
  4021b9:	mov    ecx,DWORD PTR [ebp+0x10]
  4021bc:	mov    DWORD PTR [esp+0x8],ecx
  4021c0:	mov    edx,DWORD PTR [ebp+0xc]
  4021c3:	mov    DWORD PTR [esp+0x4],edx
  4021c7:	mov    eax,DWORD PTR [ebp+0x8]
  4021ca:	mov    DWORD PTR [esp],eax
  4021cd:	call   0x401f20
  4021d2:	cmp    eax,0xfffffffe
  4021d5:	je     0x4021e0
  4021d7:	add    esp,0x2c
  4021da:	pop    ebx
  4021db:	pop    esi
  4021dc:	pop    edi
  4021dd:	pop    ebp
  4021de:	ret    
  4021df:	nop
  4021e0:	mov    DWORD PTR [ebp-0x1c],0xffffffff
  4021e7:	mov    esi,DWORD PTR ds:0x403024
  4021ed:	mov    eax,DWORD PTR [ebp+0xc]
  4021f0:	mov    ebx,DWORD PTR [eax+esi*4]
  4021f3:	inc    esi
  4021f4:	mov    eax,0xffffffff
  4021f9:	mov    DWORD PTR [ebp-0x14],esi
  4021fc:	lea    edi,[ebx+0x2]
  4021ff:	mov    DWORD PTR [ebp-0x10],edi
  402202:	mov    DWORD PTR ds:0x403024,esi
  402208:	cmp    BYTE PTR [ebx+0x2],0x0
  40220c:	je     0x4021d7
  40220e:	mov    edx,0x3d
  402213:	mov    eax,edx
  402215:	mov    edx,DWORD PTR [ebp-0x10]
  402218:	mov    ah,al
  40221a:	mov    al,BYTE PTR [edx]
  40221c:	cmp    al,ah
  40221e:	je     0x402227
  402220:	inc    edx
  402221:	test   al,al
  402223:	jne    0x40221a
  402225:	xor    edx,edx
  402227:	mov    eax,edx
  402229:	mov    DWORD PTR [ebp-0x18],eax
  40222c:	test   eax,eax
  40222e:	je     0x402396
  402234:	mov    ecx,DWORD PTR [ebp-0x10]
  402237:	mov    esi,eax
  402239:	inc    eax
  40223a:	mov    DWORD PTR [ebp-0x18],eax
  40223d:	sub    esi,ecx
  40223f:	mov    eax,DWORD PTR [ebp+0x14]
  402242:	xor    edi,edi
  402244:	mov    edx,DWORD PTR [eax]
  402246:	test   edx,edx
  402248:	je     0x402327
  40224e:	xor    ebx,ebx
  402250:	jmp    0x402260
  402252:	mov    ecx,DWORD PTR [ebp+0x14]
  402255:	add    ebx,0x10
  402258:	inc    edi
  402259:	mov    edx,DWORD PTR [ebx+ecx*1]
  40225c:	test   edx,edx
  40225e:	je     0x4022b0
  402260:	mov    DWORD PTR [esp+0x8],esi
  402264:	mov    edx,DWORD PTR [ebp+0x14]
  402267:	mov    eax,DWORD PTR [ebx+edx*1]
  40226a:	mov    DWORD PTR [esp+0x4],eax
  40226e:	mov    ecx,DWORD PTR [ebp-0x10]
  402271:	mov    DWORD PTR [esp],ecx
  402274:	call   0x402e78
  402279:	test   eax,eax
  40227b:	jne    0x402252
  40227d:	mov    eax,DWORD PTR [ebp+0x14]
  402280:	mov    ecx,DWORD PTR [ebx+eax*1]
  402283:	mov    DWORD PTR [esp],ecx
  402286:	call   0x402590
  40228b:	cmp    eax,esi
  40228d:	je     0x402416
  402293:	cmp    DWORD PTR [ebp-0x1c],0xffffffff
  402297:	jne    0x402252
  402299:	mov    DWORD PTR [ebp-0x1c],edi
  40229c:	mov    ecx,DWORD PTR [ebp+0x14]
  40229f:	add    ebx,0x10
  4022a2:	inc    edi
  4022a3:	mov    edx,DWORD PTR [ebx+ecx*1]
  4022a6:	test   edx,edx
  4022a8:	jne    0x402260
  4022aa:	lea    esi,[esi+0x0]
  4022b0:	cmp    DWORD PTR [ebp-0x1c],0xffffffff
  4022b4:	je     0x402327
  4022b6:	mov    ebx,DWORD PTR [ebp-0x1c]
  4022b9:	mov    edi,DWORD PTR [ebp+0x14]
  4022bc:	shl    ebx,0x4
  4022bf:	mov    esi,DWORD PTR [ebx+edi*1+0x4]
  4022c3:	test   esi,esi
  4022c5:	je     0x4022db
  4022c7:	mov    eax,DWORD PTR [ebp-0x18]
  4022ca:	test   eax,eax
  4022cc:	je     0x40241e
  4022d2:	mov    edx,DWORD PTR [ebp-0x18]
  4022d5:	mov    DWORD PTR ds:0x406074,edx
  4022db:	mov    eax,DWORD PTR [ebp-0x1c]
  4022de:	mov    edx,DWORD PTR [ebp+0x14]
  4022e1:	shl    eax,0x4
  4022e4:	cmp    DWORD PTR [eax+edx*1+0x4],0x1
  4022e9:	je     0x4023a8
  4022ef:	mov    eax,DWORD PTR [ebp-0x1c]
  4022f2:	mov    ecx,DWORD PTR [ebp+0x14]
  4022f5:	shl    eax,0x4
  4022f8:	mov    edx,DWORD PTR [eax+ecx*1+0x8]
  4022fc:	test   edx,edx
  4022fe:	je     0x40238a
  402304:	mov    edi,DWORD PTR [eax+ecx*1+0xc]
  402308:	xor    eax,eax
  40230a:	mov    DWORD PTR [edx],edi
  40230c:	mov    ebx,DWORD PTR [ebp+0x18]
  40230f:	test   ebx,ebx
  402311:	je     0x4021d7
  402317:	mov    esi,DWORD PTR [ebp+0x18]
  40231a:	mov    edx,DWORD PTR [ebp-0x1c]
  40231d:	mov    DWORD PTR [esi],edx
  40231f:	add    esp,0x2c
  402322:	pop    ebx
  402323:	pop    esi
  402324:	pop    edi
  402325:	pop    ebp
  402326:	ret    
  402327:	mov    edx,DWORD PTR ds:0x403020
  40232d:	test   edx,edx
  40232f:	je     0x40237d
  402331:	mov    eax,DWORD PTR [ebp+0x10]
  402334:	cmp    BYTE PTR [eax],0x3a
  402337:	je     0x40237d
  402339:	mov    edi,DWORD PTR [ebp+0xc]
  40233c:	mov    ecx,0x2f
  402341:	mov    esi,DWORD PTR [edi]
  402343:	mov    DWORD PTR [esp+0x4],ecx
  402347:	mov    DWORD PTR [esp],esi
  40234a:	call   0x402608
  40234f:	test   eax,eax
  402351:	mov    edx,esi
  402353:	je     0x402358
  402355:	lea    edx,[eax+0x1]
  402358:	mov    esi,DWORD PTR [ebp-0x10]
  40235b:	mov    DWORD PTR [esp+0x8],edx
  40235f:	mov    edx,DWORD PTR ds:0x40605c
  402365:	mov    eax,0x403fe3
  40236a:	mov    DWORD PTR [esp+0x4],eax
  40236e:	mov    DWORD PTR [esp+0xc],esi
  402372:	mov    ebx,DWORD PTR [edx+0xc]
  402375:	mov    DWORD PTR [esp],ebx
  402378:	call   0x4025f0
  40237d:	add    esp,0x2c
  402380:	mov    eax,0x3f
  402385:	pop    ebx
  402386:	pop    esi
  402387:	pop    edi
  402388:	pop    ebp
  402389:	ret    
  40238a:	mov    ecx,DWORD PTR [ebp+0x14]
  40238d:	mov    eax,DWORD PTR [eax+ecx*1+0xc]
  402391:	jmp    0x40230c
  402396:	mov    ebx,DWORD PTR [ebp-0x10]
  402399:	mov    DWORD PTR [esp],ebx
  40239c:	call   0x402590
  4023a1:	mov    esi,eax
  4023a3:	jmp    0x40223f
  4023a8:	mov    esi,DWORD PTR ds:0x406074
  4023ae:	test   esi,esi
  4023b0:	jne    0x4022ef
  4023b6:	mov    ecx,DWORD PTR ds:0x403020
  4023bc:	test   ecx,ecx
  4023be:	je     0x40240c
  4023c0:	mov    edi,DWORD PTR [ebp+0x10]
  4023c3:	cmp    BYTE PTR [edi],0x3a
  4023c6:	je     0x40240c
  4023c8:	mov    eax,DWORD PTR [ebp+0xc]
  4023cb:	mov    edx,0x2f
  4023d0:	mov    ebx,DWORD PTR [eax]
  4023d2:	mov    DWORD PTR [esp+0x4],edx
  4023d6:	mov    DWORD PTR [esp],ebx
  4023d9:	call   0x402608
  4023de:	test   eax,eax
  4023e0:	mov    edx,ebx
  4023e2:	je     0x4023e7
  4023e4:	lea    edx,[eax+0x1]
  4023e7:	mov    ebx,DWORD PTR [ebp-0x10]
  4023ea:	mov    edi,0x404000
  4023ef:	mov    DWORD PTR [esp+0x8],edx
  4023f3:	mov    ecx,DWORD PTR ds:0x40605c
  4023f9:	mov    DWORD PTR [esp+0x4],edi
  4023fd:	mov    DWORD PTR [esp+0xc],ebx
  402401:	mov    esi,DWORD PTR [ecx+0xc]
  402404:	mov    DWORD PTR [esp],esi
  402407:	call   0x4025f0
  40240c:	mov    eax,0x3a
  402411:	jmp    0x4021d7
  402416:	mov    DWORD PTR [ebp-0x1c],edi
  402419:	jmp    0x4022b0
  40241e:	mov    edi,DWORD PTR [ebp-0x14]
  402421:	mov    ecx,DWORD PTR [ebp+0xc]
  402424:	mov    ebx,DWORD PTR [ebp-0x14]
  402427:	mov    esi,DWORD PTR [ecx+edi*4]
  40242a:	inc    ebx
  40242b:	mov    DWORD PTR ds:0x403024,ebx
  402431:	mov    DWORD PTR ds:0x406074,esi
  402437:	jmp    0x4022db
  40243c:	lea    esi,[esi+eiz*1+0x0]
  402440:	push   ebp
  402441:	xor    edx,edx
  402443:	mov    ebp,esp
  402445:	push   edi
  402446:	mov    edi,0x1
  40244b:	push   esi
  40244c:	mov    esi,0x1
  402451:	push   ebx
  402452:	sub    esp,0x13c
  402458:	xor    ebx,ebx
  40245a:	mov    DWORD PTR [ebp-0x120],edx
  402460:	mov    eax,DWORD PTR [ebp+0x8]
  402463:	mov    DWORD PTR ds:0x403024,edi
  402469:	mov    DWORD PTR ds:0x406064,esi
  40246f:	cmp    DWORD PTR [eax],0x0
  402472:	mov    DWORD PTR [ebp-0x11c],ebx
  402478:	jmp    0x402494
  40247a:	lea    esi,[esi+0x0]
  402480:	inc    DWORD PTR [ebp-0x11c]
  402486:	mov    eax,DWORD PTR [ebp+0x8]
  402489:	mov    ebx,DWORD PTR [ebp-0x11c]
  40248f:	mov    ecx,DWORD PTR [eax+ebx*4]
  402492:	test   ecx,ecx
  402494:	jne    0x402480
  402496:	lea    esi,[esi+0x0]
  402499:	lea    edi,[edi+eiz*1+0x0]
  4024a0:	xor    eax,eax
  4024a2:	mov    edx,0x403040
  4024a7:	mov    ecx,0x404040
  4024ac:	mov    DWORD PTR [esp+0x10],eax
  4024b0:	mov    DWORD PTR [esp+0xc],edx
  4024b4:	mov    DWORD PTR [esp+0x8],ecx
  4024b8:	mov    esi,DWORD PTR [ebp+0x8]
  4024bb:	mov    DWORD PTR [esp+0x4],esi
  4024bf:	mov    edi,DWORD PTR [ebp-0x11c]
  4024c5:	mov    DWORD PTR [esp],edi
  4024c8:	call   0x4021b0
  4024cd:	cmp    eax,0xffffffff
  4024d0:	mov    ebx,eax
  4024d2:	je     0x40252e
  4024d4:	lea    eax,[ebx-0x59]
  4024d7:	cmp    eax,0x21
  4024da:	ja     0x4024e3
  4024dc:	jmp    DWORD PTR [eax*4+0x404074]
  4024e3:	mov    eax,DWORD PTR [ebp-0x120]
  4024e9:	mov    bl,0x3f
  4024eb:	mov    BYTE PTR [eax+ebp*1-0x118],bl
  4024f2:	inc    eax
  4024f3:	mov    DWORD PTR [ebp-0x120],eax
  4024f9:	jmp    0x4024a0
  4024fb:	nop
  4024fc:	lea    esi,[esi+eiz*1+0x0]
  402500:	cld    
  402501:	mov    esi,DWORD PTR ds:0x406074
  402507:	mov    ecx,0x6
  40250c:	mov    edi,0x404044
  402511:	repz cmps BYTE PTR ds:[esi],BYTE PTR es:[edi]
  402513:	jne    0x40255d
  402515:	mov    edx,DWORD PTR [ebp-0x120]
  40251b:	mov    BYTE PTR [edx+ebp*1-0x118],bl
  402522:	inc    edx
  402523:	mov    DWORD PTR [ebp-0x120],edx
  402529:	jmp    0x4024a0
  40252e:	mov    esi,DWORD PTR [ebp-0x120]
  402534:	lea    ebx,[ebp-0x118]
  40253a:	xor    ecx,ecx
  40253c:	mov    edi,DWORD PTR [ebp+0xc]
  40253f:	mov    BYTE PTR [ebp+esi*1-0x118],cl
  402546:	mov    DWORD PTR [esp+0x4],edi
  40254a:	mov    DWORD PTR [esp],ebx
  40254d:	call   0x4025f8
  402552:	add    esp,0x13c
  402558:	pop    ebx
  402559:	pop    esi
  40255a:	pop    edi
  40255b:	pop    ebp
  40255c:	ret    
  40255d:	mov    DWORD PTR [esp],0x40404c
  402564:	call   0x402598
  402569:	add    esp,0x13c
  40256f:	mov    eax,0x1
  402574:	pop    ebx
  402575:	pop    esi
  402576:	pop    edi
  402577:	pop    ebp
  402578:	ret    
  402579:	nop
  40257a:	nop
  40257b:	nop
  40257c:	nop
  40257d:	nop
  40257e:	nop
  40257f:	nop
  402580:	jmp    DWORD PTR ds:0x407170
  402586:	nop
  402587:	nop
  402588:	jmp    DWORD PTR ds:0x407154
  40258e:	nop
  40258f:	nop
  402590:	jmp    DWORD PTR ds:0x4071a4
  402596:	nop
  402597:	nop
  402598:	jmp    DWORD PTR ds:0x407188
  40259e:	nop
  40259f:	nop
  4025a0:	jmp    DWORD PTR ds:0x407184
  4025a6:	nop
  4025a7:	nop
  4025a8:	jmp    DWORD PTR ds:0x407180
  4025ae:	nop
  4025af:	nop
  4025b0:	jmp    DWORD PTR ds:0x407158
  4025b6:	nop
  4025b7:	nop
  4025b8:	jmp    DWORD PTR ds:0x40715c
  4025be:	nop
  4025bf:	nop
  4025c0:	jmp    DWORD PTR ds:0x407190
  4025c6:	nop
  4025c7:	nop
  4025c8:	jmp    DWORD PTR ds:0x40719c
  4025ce:	nop
  4025cf:	nop
  4025d0:	jmp    DWORD PTR ds:0x407160
  4025d6:	nop
  4025d7:	nop
  4025d8:	jmp    DWORD PTR ds:0x407164
  4025de:	nop
  4025df:	nop
  4025e0:	jmp    DWORD PTR ds:0x407138
  4025e6:	nop
  4025e7:	nop
  4025e8:	jmp    DWORD PTR ds:0x4071a0
  4025ee:	nop
  4025ef:	nop
  4025f0:	jmp    DWORD PTR ds:0x407168
  4025f6:	nop
  4025f7:	nop
  4025f8:	jmp    DWORD PTR ds:0x407198
  4025fe:	nop
  4025ff:	nop
  402600:	jmp    DWORD PTR ds:0x407174
  402606:	nop
  402607:	nop
  402608:	jmp    DWORD PTR ds:0x4071ac
  40260e:	nop
  40260f:	nop
  402610:	jmp    DWORD PTR ds:0x407194
  402616:	nop
  402617:	nop
	...
  402620:	push   ebp
  402621:	mov    ebp,esp
  402623:	push   edi
  402624:	lea    edi,[ebp-0x1a8]
  40262a:	push   esi
  40262b:	push   ebx
  40262c:	sub    esp,0x2dc
  402632:	mov    DWORD PTR [esp],0xfffffff4
  402639:	call   0x402ea8
  40263e:	sub    esp,0x4
  402641:	mov    esi,eax
  402643:	mov    eax,0x104
  402648:	mov    DWORD PTR [esp+0x8],eax
  40264c:	mov    DWORD PTR [esp+0x4],edi
  402650:	mov    DWORD PTR [esp],0x0
  402657:	call   0x402eb0
  40265c:	sub    esp,0xc
  40265f:	cmp    esi,0xffffffff
  402662:	mov    ebx,eax
  402664:	je     0x402851
  40266a:	test   ebx,ebx
  40266c:	jle    0x402690
  40266e:	mov    DWORD PTR [esp],edi
  402671:	lea    ebx,[ebp-0x2b8]
  402677:	mov    DWORD PTR [esp+0x4],ebx
  40267b:	call   0x402e98
  402680:	test   eax,eax
  402682:	je     0x402784
  402688:	nop
  402689:	lea    esi,[esi+eiz*1+0x0]
  402690:	mov    eax,DWORD PTR [ebp+0x8]
  402693:	mov    edi,0x80
  402698:	lea    ecx,[ebp+0xc]
  40269b:	mov    DWORD PTR [esp+0x4],edi
  40269f:	lea    edi,[ebp-0x98]
  4026a5:	mov    DWORD PTR [esp+0xc],ecx
  4026a9:	mov    DWORD PTR [esp+0x8],eax
  4026ad:	mov    DWORD PTR [esp],edi
  4026b0:	call   0x402e90
  4026b5:	cmp    BYTE PTR [ebp-0x2b8],0x0
  4026bc:	mov    DWORD PTR [ebp-0x2c0],eax
  4026c2:	mov    BYTE PTR [ebp-0x19],0x0
  4026c6:	je     0x402790
  4026cc:	mov    DWORD PTR [esp],esi
  4026cf:	xor    ecx,ecx
  4026d1:	lea    eax,[ebp-0x2bc]
  4026d7:	mov    DWORD PTR [esp+0x10],ecx
  4026db:	mov    ebx,0x18
  4026e0:	mov    edx,0x404114
  4026e5:	mov    DWORD PTR [esp+0x8],ebx
  4026e9:	lea    ebx,[ebp-0x2b8]
  4026ef:	mov    DWORD PTR [esp+0xc],eax
  4026f3:	mov    DWORD PTR [esp+0x4],edx
  4026f7:	call   0x402eb8
  4026fc:	sub    esp,0x14
  4026ff:	mov    ecx,ebx
  402701:	jmp    0x402710
  402703:	nop
  402704:	nop
  402705:	nop
  402706:	nop
  402707:	nop
  402708:	nop
  402709:	nop
  40270a:	nop
  40270b:	nop
  40270c:	nop
  40270d:	nop
  40270e:	nop
  40270f:	nop
  402710:	mov    eax,DWORD PTR [ecx]
  402712:	add    ecx,0x4
  402715:	lea    edx,[eax-0x1010101]
  40271b:	not    eax
  40271d:	and    edx,eax
  40271f:	mov    eax,edx
  402721:	and    eax,0x80808080
  402726:	je     0x402710
  402728:	and    edx,0x8080
  40272e:	jne    0x402736
  402730:	shr    eax,0x10
  402733:	add    ecx,0x2
  402736:	mov    DWORD PTR [esp+0x4],ebx
  40273a:	add    al,al
  40273c:	lea    eax,[ebp-0x2bc]
  402742:	sbb    ecx,0x3
  402745:	sub    ecx,ebx
  402747:	xor    edx,edx
  402749:	mov    DWORD PTR [esp+0x10],edx
  40274d:	xor    ebx,ebx
  40274f:	mov    DWORD PTR [esp+0x8],ecx
  402753:	mov    DWORD PTR [esp+0xc],eax
  402757:	mov    DWORD PTR [esp],esi
  40275a:	call   0x402eb8
  40275f:	sub    esp,0x14
  402762:	mov    ecx,0x2
  402767:	mov    edx,0x404134
  40276c:	mov    DWORD PTR [esp+0x10],ebx
  402770:	lea    ebx,[ebp-0x2bc]
  402776:	mov    DWORD PTR [esp+0xc],ebx
  40277a:	mov    DWORD PTR [esp+0x8],ecx
  40277e:	mov    DWORD PTR [esp+0x4],edx
  402782:	jmp    0x4027d9
  402784:	mov    BYTE PTR [ebp-0x2b8],0x0
  40278b:	jmp    0x402690
  402790:	mov    DWORD PTR [esp],esi
  402793:	xor    ebx,ebx
  402795:	mov    ecx,0x404114
  40279a:	mov    DWORD PTR [esp+0x10],ebx
  40279e:	mov    eax,0x18
  4027a3:	lea    ebx,[ebp-0x2bc]
  4027a9:	mov    DWORD PTR [esp+0x4],ecx
  4027ad:	mov    DWORD PTR [esp+0xc],ebx
  4027b1:	mov    DWORD PTR [esp+0x8],eax
  4027b5:	call   0x402eb8
  4027ba:	sub    esp,0x14
  4027bd:	xor    edx,edx
  4027bf:	mov    eax,0x12
  4027c4:	mov    DWORD PTR [esp+0x10],edx
  4027c8:	mov    ecx,0x4040fc
  4027cd:	mov    DWORD PTR [esp+0xc],ebx
  4027d1:	mov    DWORD PTR [esp+0x8],eax
  4027d5:	mov    DWORD PTR [esp+0x4],ecx
  4027d9:	mov    DWORD PTR [esp],esi
  4027dc:	call   0x402eb8
  4027e1:	mov    edx,DWORD PTR [ebp-0x2c0]
  4027e7:	sub    esp,0x14
  4027ea:	xor    ecx,ecx
  4027ec:	mov    DWORD PTR [esp+0x10],ecx
  4027f0:	mov    DWORD PTR [esp+0x4],edi
  4027f4:	mov    edi,0x1
  4027f9:	mov    DWORD PTR [esp+0x8],edx
  4027fd:	mov    DWORD PTR [esp],esi
  402800:	mov    DWORD PTR [esp+0xc],ebx
  402804:	call   0x402eb8
  402809:	sub    esp,0x14
  40280c:	mov    ecx,0x1
  402811:	mov    edx,0x404137
  402816:	mov    DWORD PTR [esp+0x8],ecx
  40281a:	xor    eax,eax
  40281c:	mov    DWORD PTR [esp+0x4],edx
  402820:	mov    DWORD PTR [esp],esi
  402823:	mov    esi,0xe0000269
  402828:	mov    DWORD PTR [esp+0x10],eax
  40282c:	mov    DWORD PTR [esp+0xc],ebx
  402830:	call   0x402eb8
  402835:	sub    esp,0x14
  402838:	mov    DWORD PTR [esp+0x8],edi
  40283c:	mov    DWORD PTR [esp+0x4],esi
  402840:	mov    DWORD PTR [esp],0xe
  402847:	call   0x402e70
  40284c:	call   0x402e88
  402851:	mov    DWORD PTR [esp],0xe
  402858:	mov    edx,0x1
  40285d:	mov    ecx,0xe0000269
  402862:	mov    DWORD PTR [esp+0x8],edx
  402866:	mov    DWORD PTR [esp+0x4],ecx
  40286a:	call   0x402e70
  40286f:	jmp    0x40266a
  402874:	lea    esi,[esi+0x0]
  40287a:	lea    edi,[edi+0x0]
  402880:	push   ebp
  402881:	mov    ebp,esp
  402883:	push   edi
  402884:	push   esi
  402885:	push   ebx
  402886:	sub    esp,0xbc
  40288c:	mov    eax,DWORD PTR [ebp+0x8]
  40288f:	mov    edx,DWORD PTR [ebp+0xc]
  402892:	sub    edx,eax
  402894:	cmp    edx,0x7
  402897:	jle    0x402970
  40289d:	cmp    edx,0xb
  4028a0:	jg     0x402978
  4028a6:	mov    esi,DWORD PTR [eax]
  4028a8:	test   esi,esi
  4028aa:	jne    0x402982
  4028b0:	mov    ebx,DWORD PTR [eax+0x4]
  4028b3:	test   ebx,ebx
  4028b5:	jne    0x402982
  4028bb:	mov    edx,DWORD PTR [eax+0x8]
  4028be:	lea    ebx,[eax+0xc]
  4028c1:	cmp    edx,0x1
  4028c4:	jne    0x402db3
  4028ca:	cmp    ebx,DWORD PTR [ebp+0xc]
  4028cd:	jae    0x402970
  4028d3:	lea    esi,[esi+0x0]
  4028d9:	lea    edi,[edi+eiz*1+0x0]
  4028e0:	mov    esi,DWORD PTR [ebx+0x4]
  4028e3:	mov    edi,DWORD PTR [ebp+0x10]
  4028e6:	mov    ecx,DWORD PTR [ebp+0x10]
  4028e9:	add    edi,esi
  4028eb:	mov    esi,DWORD PTR [ebx]
  4028ed:	mov    DWORD PTR [ebp-0xb4],edi
  4028f3:	mov    edi,DWORD PTR [esi+ecx*1]
  4028f6:	mov    ecx,DWORD PTR [ebx+0x8]
  4028f9:	movzx  eax,cl
  4028fc:	cmp    eax,0x10
  4028ff:	je     0x402b76
  402905:	ja     0x402b60
  40290b:	cmp    eax,0x8
  40290e:	jne    0x402d89
  402914:	mov    edx,DWORD PTR [ebp-0xb4]
  40291a:	movzx  eax,BYTE PTR [edx]
  40291d:	test   al,al
  40291f:	mov    DWORD PTR [ebp-0xa4],eax
  402925:	mov    edx,eax
  402927:	jns    0x402938
  402929:	or     eax,0xffffff00
  40292e:	xchg   ax,ax
  402930:	mov    DWORD PTR [ebp-0xa4],eax
  402936:	mov    edx,eax
  402938:	mov    eax,DWORD PTR [ebp+0x10]
  40293b:	add    esi,eax
  40293d:	sub    edx,esi
  40293f:	movzx  eax,cl
  402942:	lea    esi,[edx+edi*1]
  402945:	cmp    eax,0x10
  402948:	mov    DWORD PTR [ebp-0xa4],esi
  40294e:	je     0x402ba1
  402954:	ja     0x402a94
  40295a:	cmp    eax,0x8
  40295d:	je     0x402c42
  402963:	add    ebx,0xc
  402966:	cmp    ebx,DWORD PTR [ebp+0xc]
  402969:	jb     0x4028e0
  40296f:	nop
  402970:	lea    esp,[ebp-0xc]
  402973:	pop    ebx
  402974:	pop    esi
  402975:	pop    edi
  402976:	pop    ebp
  402977:	ret    
  402978:	mov    ecx,DWORD PTR [eax]
  40297a:	test   ecx,ecx
  40297c:	je     0x402a48
  402982:	cmp    eax,DWORD PTR [ebp+0xc]
  402985:	mov    esi,eax
  402987:	jae    0x402970
  402989:	lea    edi,[ebp-0x38]
  40298c:	jmp    0x4029cd
  40298e:	xchg   ax,ax
  402990:	mov    DWORD PTR [esp],ebx
  402993:	mov    edx,0x4
  402998:	lea    eax,[ebp-0x9c]
  40299e:	mov    DWORD PTR [esp+0x8],edx
  4029a2:	mov    DWORD PTR [esp+0x4],eax
  4029a6:	call   0x402e80
  4029ab:	mov    ecx,DWORD PTR [ebp-0x24]
  4029ae:	cmp    ecx,0x40
  4029b1:	setne  bl
  4029b4:	cmp    ecx,0x4
  4029b7:	setne  dl
  4029ba:	movzx  eax,dl
  4029bd:	test   eax,ebx
  4029bf:	jne    0x402a66
  4029c5:	add    esi,0x8
  4029c8:	cmp    esi,DWORD PTR [ebp+0xc]
  4029cb:	jae    0x402970
  4029cd:	mov    eax,DWORD PTR [esi+0x4]
  4029d0:	mov    ebx,DWORD PTR [ebp+0x10]
  4029d3:	mov    ecx,DWORD PTR [esi]
  4029d5:	add    ebx,eax
  4029d7:	mov    edx,DWORD PTR [ebx]
  4029d9:	mov    eax,0x1c
  4029de:	mov    DWORD PTR [esp+0x8],eax
  4029e2:	mov    DWORD PTR [esp+0x4],edi
  4029e6:	add    ecx,edx
  4029e8:	mov    DWORD PTR [ebp-0x9c],ecx
  4029ee:	mov    DWORD PTR [esp],ebx
  4029f1:	call   0x402ec0
  4029f6:	sub    esp,0xc
  4029f9:	test   eax,eax
  4029fb:	je     0x402d10
  402a01:	mov    edx,DWORD PTR [ebp-0x24]
  402a04:	cmp    edx,0x40
  402a07:	setne  cl
  402a0a:	cmp    edx,0x4
  402a0d:	setne  al
  402a10:	movzx  edx,al
  402a13:	test   edx,ecx
  402a15:	je     0x402990
  402a1b:	lea    ecx,[ebp-0xa0]
  402a21:	mov    eax,DWORD PTR [ebp-0x2c]
  402a24:	mov    edx,0x40
  402a29:	mov    DWORD PTR [esp+0xc],ecx
  402a2d:	mov    ecx,DWORD PTR [ebp-0x38]
  402a30:	mov    DWORD PTR [esp+0x8],edx
  402a34:	mov    DWORD PTR [esp+0x4],eax
  402a38:	mov    DWORD PTR [esp],ecx
  402a3b:	call   0x402ec8
  402a40:	sub    esp,0x10
  402a43:	jmp    0x402990
  402a48:	mov    edx,DWORD PTR [eax+0x4]
  402a4b:	test   edx,edx
  402a4d:	jne    0x4028a6
  402a53:	mov    edi,DWORD PTR [eax+0x8]
  402a56:	test   edi,edi
  402a58:	jne    0x4028a6
  402a5e:	add    eax,0xc
  402a61:	jmp    0x4028a6
  402a66:	mov    eax,DWORD PTR [ebp-0xa0]
  402a6c:	lea    edx,[ebp-0xa0]
  402a72:	mov    ecx,DWORD PTR [ebp-0x2c]
  402a75:	mov    DWORD PTR [esp+0xc],edx
  402a79:	mov    ebx,DWORD PTR [ebp-0x38]
  402a7c:	mov    DWORD PTR [esp+0x8],eax
  402a80:	mov    DWORD PTR [esp+0x4],ecx
  402a84:	mov    DWORD PTR [esp],ebx
  402a87:	call   0x402ec8
  402a8c:	sub    esp,0x10
  402a8f:	jmp    0x4029c5
  402a94:	cmp    eax,0x20
  402a97:	jne    0x402963
  402a9d:	mov    ecx,DWORD PTR [ebp-0xb4]
  402aa3:	mov    edx,0x1c
  402aa8:	lea    edi,[ebp-0x98]
  402aae:	mov    DWORD PTR [esp+0x8],edx
  402ab2:	mov    DWORD PTR [esp+0x4],edi
  402ab6:	mov    DWORD PTR [esp],ecx
  402ab9:	call   0x402ec0
  402abe:	sub    esp,0xc
  402ac1:	test   eax,eax
  402ac3:	je     0x402da4
  402ac9:	mov    edi,DWORD PTR [ebp-0x84]
  402acf:	cmp    edi,0x40
  402ad2:	setne  cl
  402ad5:	cmp    edi,0x4
  402ad8:	setne  dl
  402adb:	movzx  eax,dl
  402ade:	test   eax,ecx
  402ae0:	jne    0x402d29
  402ae6:	mov    edx,DWORD PTR [ebp-0xb4]
  402aec:	lea    ecx,[ebp-0xa4]
  402af2:	mov    edi,0x4
  402af7:	mov    DWORD PTR [esp+0x8],edi
  402afb:	mov    DWORD PTR [esp+0x4],ecx
  402aff:	mov    DWORD PTR [esp],edx
  402b02:	call   0x402e80
  402b07:	mov    esi,DWORD PTR [ebp-0x84]
  402b0d:	cmp    esi,0x40
  402b10:	setne  cl
  402b13:	cmp    esi,0x4
  402b16:	setne  al
  402b19:	movzx  edi,al
  402b1c:	test   edi,ecx
  402b1e:	je     0x402963
  402b24:	mov    eax,DWORD PTR [ebp-0x8c]
  402b2a:	lea    edx,[ebp-0xb0]
  402b30:	mov    esi,DWORD PTR [ebp-0xb0]
  402b36:	mov    DWORD PTR [esp+0xc],edx
  402b3a:	mov    DWORD PTR [esp+0x4],eax
  402b3e:	mov    eax,DWORD PTR [ebp-0x98]
  402b44:	mov    DWORD PTR [esp+0x8],esi
  402b48:	mov    DWORD PTR [esp],eax
  402b4b:	call   0x402ec8
  402b50:	sub    esp,0x10
  402b53:	add    ebx,0xc
  402b56:	jmp    0x402966
  402b5b:	nop
  402b5c:	lea    esi,[esi+eiz*1+0x0]
  402b60:	cmp    eax,0x20
  402b63:	jne    0x402d89
  402b69:	mov    edx,DWORD PTR [ebp-0xb4]
  402b6f:	mov    eax,DWORD PTR [edx]
  402b71:	jmp    0x402930
  402b76:	mov    edx,DWORD PTR [ebp-0xb4]
  402b7c:	movzx  eax,WORD PTR [edx]
  402b7f:	mov    edx,eax
  402b81:	mov    DWORD PTR [ebp-0xa4],eax
  402b87:	and    eax,0x8000
  402b8c:	test   ax,ax
  402b8f:	je     0x402938
  402b95:	mov    eax,edx
  402b97:	or     eax,0xffff0000
  402b9c:	jmp    0x402930
  402ba1:	mov    edx,DWORD PTR [ebp-0xb4]
  402ba7:	mov    ecx,0x1c
  402bac:	lea    edi,[ebp-0x78]
  402baf:	mov    DWORD PTR [esp+0x8],ecx
  402bb3:	mov    DWORD PTR [esp+0x4],edi
  402bb7:	mov    DWORD PTR [esp],edx
  402bba:	call   0x402ec0
  402bbf:	sub    esp,0xc
  402bc2:	test   eax,eax
  402bc4:	je     0x402da4
  402bca:	mov    edi,DWORD PTR [ebp-0x64]
  402bcd:	cmp    edi,0x40
  402bd0:	setne  dl
  402bd3:	cmp    edi,0x4
  402bd6:	setne  al
  402bd9:	movzx  esi,al
  402bdc:	test   esi,edx
  402bde:	jne    0x402ce3
  402be4:	mov    eax,DWORD PTR [ebp-0xb4]
  402bea:	lea    ecx,[ebp-0xa4]
  402bf0:	mov    edi,0x2
  402bf5:	mov    DWORD PTR [esp+0x8],edi
  402bf9:	mov    DWORD PTR [esp+0x4],ecx
  402bfd:	mov    DWORD PTR [esp],eax
  402c00:	call   0x402e80
  402c05:	mov    esi,DWORD PTR [ebp-0x64]
  402c08:	cmp    esi,0x40
  402c0b:	setne  cl
  402c0e:	cmp    esi,0x4
  402c11:	setne  dl
  402c14:	movzx  edi,dl
  402c17:	test   edi,ecx
  402c19:	je     0x402963
  402c1f:	lea    eax,[ebp-0xac]
  402c25:	mov    esi,DWORD PTR [ebp-0xac]
  402c2b:	mov    edx,DWORD PTR [ebp-0x6c]
  402c2e:	mov    DWORD PTR [esp+0xc],eax
  402c32:	mov    eax,DWORD PTR [ebp-0x78]
  402c35:	mov    DWORD PTR [esp+0x8],esi
  402c39:	mov    DWORD PTR [esp+0x4],edx
  402c3d:	jmp    0x402b48
  402c42:	mov    ecx,DWORD PTR [ebp-0xb4]
  402c48:	lea    edx,[ebp-0x58]
  402c4b:	mov    edi,0x1c
  402c50:	mov    DWORD PTR [esp+0x8],edi
  402c54:	mov    DWORD PTR [esp+0x4],edx
  402c58:	mov    DWORD PTR [esp],ecx
  402c5b:	call   0x402ec0
  402c60:	sub    esp,0xc
  402c63:	test   eax,eax
  402c65:	je     0x402da4
  402c6b:	mov    edx,DWORD PTR [ebp-0x44]
  402c6e:	cmp    edx,0x40
  402c71:	setne  cl
  402c74:	cmp    edx,0x4
  402c77:	setne  al
  402c7a:	movzx  esi,al
  402c7d:	test   esi,ecx
  402c7f:	jne    0x402d5c
  402c85:	mov    eax,DWORD PTR [ebp-0xb4]
  402c8b:	lea    edx,[ebp-0xa4]
  402c91:	mov    edi,0x1
  402c96:	mov    DWORD PTR [esp+0x8],edi
  402c9a:	mov    DWORD PTR [esp+0x4],edx
  402c9e:	mov    DWORD PTR [esp],eax
  402ca1:	call   0x402e80
  402ca6:	mov    esi,DWORD PTR [ebp-0x44]
  402ca9:	cmp    esi,0x40
  402cac:	setne  dl
  402caf:	cmp    esi,0x4
  402cb2:	setne  cl
  402cb5:	movzx  edi,cl
  402cb8:	test   edi,edx
  402cba:	je     0x402963
  402cc0:	lea    eax,[ebp-0xa8]
  402cc6:	mov    esi,DWORD PTR [ebp-0xa8]
  402ccc:	mov    ecx,DWORD PTR [ebp-0x4c]
  402ccf:	mov    DWORD PTR [esp+0xc],eax
  402cd3:	mov    eax,DWORD PTR [ebp-0x58]
  402cd6:	mov    DWORD PTR [esp+0x8],esi
  402cda:	mov    DWORD PTR [esp+0x4],ecx
  402cde:	jmp    0x402b48
  402ce3:	mov    edx,DWORD PTR [ebp-0x6c]
  402ce6:	lea    eax,[ebp-0xac]
  402cec:	mov    esi,0x40
  402cf1:	mov    DWORD PTR [esp+0xc],eax
  402cf5:	mov    ecx,DWORD PTR [ebp-0x78]
  402cf8:	mov    DWORD PTR [esp+0x8],esi
  402cfc:	mov    DWORD PTR [esp+0x4],edx
  402d00:	mov    DWORD PTR [esp],ecx
  402d03:	call   0x402ec8
  402d08:	sub    esp,0x10
  402d0b:	jmp    0x402be4
  402d10:	mov    DWORD PTR [esp+0x8],ebx
  402d14:	mov    DWORD PTR [esp],0x40413c
  402d1b:	mov    esi,0x1c
  402d20:	mov    DWORD PTR [esp+0x4],esi
  402d24:	call   0x402620
  402d29:	mov    ecx,DWORD PTR [ebp-0x8c]
  402d2f:	lea    edx,[ebp-0xb0]
  402d35:	mov    eax,0x40
  402d3a:	mov    DWORD PTR [esp+0xc],edx
  402d3e:	mov    esi,DWORD PTR [ebp-0x98]
  402d44:	mov    DWORD PTR [esp+0x8],eax
  402d48:	mov    DWORD PTR [esp+0x4],ecx
  402d4c:	mov    DWORD PTR [esp],esi
  402d4f:	call   0x402ec8
  402d54:	sub    esp,0x10
  402d57:	jmp    0x402ae6
  402d5c:	mov    ecx,DWORD PTR [ebp-0x4c]
  402d5f:	lea    eax,[ebp-0xa8]
  402d65:	mov    esi,0x40
  402d6a:	mov    DWORD PTR [esp+0xc],eax
  402d6e:	mov    edi,DWORD PTR [ebp-0x58]
  402d71:	mov    DWORD PTR [esp+0x8],esi
  402d75:	mov    DWORD PTR [esp+0x4],ecx
  402d79:	mov    DWORD PTR [esp],edi
  402d7c:	call   0x402ec8
  402d81:	sub    esp,0x10
  402d84:	jmp    0x402c85
  402d89:	mov    DWORD PTR [esp],0x404170
  402d90:	xor    edi,edi
  402d92:	movzx  ebx,cl
  402d95:	mov    DWORD PTR [ebp-0xa4],edi
  402d9b:	mov    DWORD PTR [esp+0x4],ebx
  402d9f:	call   0x402620
  402da4:	mov    ebx,DWORD PTR [ebp-0xb4]
  402daa:	mov    DWORD PTR [esp+0x8],ebx
  402dae:	jmp    0x402d14
  402db3:	mov    DWORD PTR [esp+0x4],edx
  402db7:	mov    DWORD PTR [esp],0x40419c
  402dbe:	call   0x402620
  402dc3:	lea    esi,[esi+0x0]
  402dc9:	lea    edi,[edi+eiz*1+0x0]
  402dd0:	push   ebp
  402dd1:	mov    ebp,esp
  402dd3:	sub    esp,0x18
  402dd6:	mov    eax,ds:0x405000
  402ddb:	test   eax,eax
  402ddd:	je     0x402de1
  402ddf:	leave  
  402de0:	ret    
  402de1:	mov    eax,0x1
  402de6:	mov    ecx,0x400000
  402deb:	mov    edx,0x406000
  402df0:	mov    ds:0x405000,eax
  402df5:	mov    DWORD PTR [esp+0x8],ecx
  402df9:	mov    DWORD PTR [esp+0x4],edx
  402dfd:	mov    DWORD PTR [esp],0x406000
  402e04:	call   0x402880
  402e09:	leave  
  402e0a:	ret    
  402e0b:	nop
  402e0c:	nop
  402e0d:	nop
  402e0e:	nop
  402e0f:	nop
  402e10:	jmp    DWORD PTR ds:0x407144
  402e16:	nop
  402e17:	nop
  402e18:	jmp    DWORD PTR ds:0x40718c
  402e1e:	nop
  402e1f:	nop
  402e20:	jmp    DWORD PTR ds:0x40716c
  402e26:	nop
  402e27:	nop
  402e28:	jmp    DWORD PTR ds:0x407178
  402e2e:	nop
  402e2f:	nop
  402e30:	push   ebp
  402e31:	mov    ebp,esp
  402e33:	pop    ebp
  402e34:	ret    
  402e35:	nop
  402e36:	nop
  402e37:	nop
  402e38:	nop
  402e39:	nop
  402e3a:	nop
  402e3b:	nop
  402e3c:	nop
  402e3d:	nop
  402e3e:	nop
  402e3f:	nop
  402e40:	push   ebp
  402e41:	mov    ebp,esp
  402e43:	pop    ebp
  402e44:	ret    
  402e45:	nop
  402e46:	nop
  402e47:	nop
  402e48:	nop
  402e49:	nop
  402e4a:	nop
  402e4b:	nop
  402e4c:	nop
  402e4d:	nop
  402e4e:	nop
  402e4f:	nop
  402e50:	push   ebp
  402e51:	mov    ebp,esp
  402e53:	pop    ebp
  402e54:	ret    
  402e55:	nop
  402e56:	nop
  402e57:	nop
  402e58:	nop
  402e59:	nop
  402e5a:	nop
  402e5b:	nop
  402e5c:	nop
  402e5d:	nop
  402e5e:	nop
  402e5f:	nop
  402e60:	push   ebp
  402e61:	mov    ebp,esp
  402e63:	pop    ebp
  402e64:	ret    
  402e65:	nop
  402e66:	nop
  402e67:	nop
  402e68:	nop
  402e69:	nop
  402e6a:	nop
  402e6b:	nop
  402e6c:	nop
  402e6d:	nop
  402e6e:	nop
  402e6f:	nop
  402e70:	jmp    DWORD PTR ds:0x40714c
  402e76:	nop
  402e77:	nop
  402e78:	jmp    DWORD PTR ds:0x4071a8
  402e7e:	nop
  402e7f:	nop
  402e80:	jmp    DWORD PTR ds:0x40717c
  402e86:	nop
  402e87:	nop
  402e88:	jmp    DWORD PTR ds:0x407140
  402e8e:	nop
  402e8f:	nop
  402e90:	jmp    DWORD PTR ds:0x4071b0
  402e96:	nop
  402e97:	nop
  402e98:	jmp    DWORD PTR ds:0x407148
  402e9e:	nop
  402e9f:	nop
  402ea0:	jmp    DWORD PTR ds:0x4071c0
  402ea6:	nop
  402ea7:	nop
  402ea8:	jmp    DWORD PTR ds:0x4071c4
  402eae:	nop
  402eaf:	nop
  402eb0:	jmp    DWORD PTR ds:0x4071bc
  402eb6:	nop
  402eb7:	nop
  402eb8:	jmp    DWORD PTR ds:0x4071d0
  402ebe:	nop
  402ebf:	nop
  402ec0:	jmp    DWORD PTR ds:0x4071cc
  402ec6:	nop
  402ec7:	nop
  402ec8:	jmp    DWORD PTR ds:0x4071c8
  402ece:	nop
  402ecf:	nop
  402ed0:	(bad)  
  402ed1:	(bad)  
  402ed2:	(bad)  
  402ed3:	inc    DWORD PTR [eax]
  402ed5:	add    BYTE PTR [eax],al
  402ed7:	add    bh,bh
  402ed9:	(bad)  
  402eda:	(bad)  
  402edb:	inc    DWORD PTR [eax]
  402edd:	add    BYTE PTR [eax],al
	...

Disassembly of section .data:

00403000 <.data>:
  403000:	sbb    BYTE PTR [ecx],dh
  403002:	inc    eax
	...
  40301f:	add    BYTE PTR [ecx],al
  403021:	add    BYTE PTR [eax],al
  403023:	add    BYTE PTR [ecx],al
  403025:	add    BYTE PTR [eax],al
  403027:	add    BYTE PTR [eax+0x403f],ah
	...
  40303d:	add    BYTE PTR [eax],al
  40303f:	add    BYTE PTR [edi],ah
  403041:	inc    eax
  403042:	inc    eax
	...
  40304b:	add    BYTE PTR [ebx+0x0],dh
  40304e:	add    BYTE PTR [eax],al
  403050:	cs inc eax
  403052:	inc    eax
	...
  40305b:	add    BYTE PTR [eax+eax*1+0x0],dh
  40305f:	add    BYTE PTR [eax],dh
  403061:	inc    eax
  403062:	inc    eax
  403063:	add    BYTE PTR [ecx],al
  403065:	add    BYTE PTR [eax],al
  403067:	add    BYTE PTR [eax],al
  403069:	add    BYTE PTR [eax],al
  40306b:	add    BYTE PTR [ebp+0x0],dh
  40306e:	add    BYTE PTR [eax],al
  403070:	xor    al,BYTE PTR [eax+0x40]
	...
  40307b:	add    BYTE PTR [esi+0x0],dh
  40307e:	add    BYTE PTR [eax],al
  403080:	xor    al,0x40
  403082:	inc    eax
	...
  40308b:	add    BYTE PTR [ecx+0x0],bl
  40308e:	add    BYTE PTR [eax],al
  403090:	aaa    
  403091:	inc    eax
  403092:	inc    eax
	...
  40309b:	add    BYTE PTR [ecx+0x0],bh
  40309e:	add    BYTE PTR [eax],al
  4030a0:	cmp    DWORD PTR [eax+0x40],eax
	...
  4030ab:	add    BYTE PTR [edx+0x0],bh
  4030ae:	add    BYTE PTR [eax],al
  4030b0:	cmp    al,0x40
  4030b2:	inc    eax
	...
  4030bb:	add    BYTE PTR [edx+0x0],bl
	...
  4030de:	add    BYTE PTR [eax],al
  4030e0:	inc    eax
  4030e1:	sub    BYTE PTR [ebx],ah
  4030e3:	sub    DWORD PTR [esi+eax*2],esp
  4030e6:	imul   ebp,DWORD PTR [ebp+eiz*2+0x3a],0x6c696620
  4030ee:	gs arpl WORD PTR cs:[esi+esi*2],bp
  4030f3:	and    BYTE PTR [ecx],dh
  4030f5:	xor    DWORD PTR cs:[ebx],esi
  4030f8:	and    BYTE PTR ss:[edx],dh
  4030fb:	xor    BYTE PTR [eax],dh
  4030fd:	cmp    DWORD PTR [edi],ebp
  4030ff:	xor    DWORD PTR [edx],esi
  403101:	das    
  403102:	xor    BYTE PTR [esi],dh
  403104:	and    BYTE PTR [edx],dh
  403106:	xor    edi,DWORD PTR [edx]
  403108:	xor    DWORD PTR [eax],edi
  40310a:	cmp    dh,BYTE PTR [eax]
  40310c:	xor    al,0x20
  40310e:	jb     0x403182
  403110:	je     0x403132
  403112:	inc    ebp
  403113:	js     0x403185
  403115:	and    BYTE PTR [eax+eax*1],ah
  403118:	cmp    al,BYTE PTR [eax]
  40311a:	push   0x706c65
  40311f:	jbe    0x403186
  403121:	jb     0x403196
  403123:	imul   ebp,DWORD PTR [edi+0x6e],0x67616d00
  40312a:	imul   esp,DWORD PTR [ebx+0x2d],0x656c6966
  403131:	add    BYTE PTR [ebp+0x6e],dh
  403134:	arpl   WORD PTR [edi+0x6d],bp
  403137:	jo     0x4031ab
  403139:	gs jae 0x4031af
  40313c:	add    BYTE PTR [edx+0x72],ah
  40313f:	imul   esp,DWORD PTR [ebp+0x66],0x65686300
  403146:	arpl   WORD PTR [ebx+0x69],bp
  403149:	outs   dx,BYTE PTR ds:[esi]
  40314a:	addr16 sub eax,0x6e697270
  403150:	je     0x4031c1
  403152:	jne    0x4031c8
  403154:	add    BYTE PTR [ebp+0x78],ah
  403157:	arpl   WORD PTR [ebp+esi*2+0x64],bp
  40315b:	add    BYTE PTR gs:[esi+0x69],ah
  40315f:	ins    BYTE PTR es:[edi],dx
  403160:	gs jae 0x403190
  403163:	data16 jb 0x4031d5
  403166:	ins    DWORD PTR es:[edi],dx
  403167:	add    BYTE PTR [ebx+0x65],dh
  40316a:	jo     0x4031cd
  40316c:	jb     0x4031cf
  40316e:	je     0x4031df
  403170:	jb     0x403172
  403172:	ins    DWORD PTR es:[edi],dx
  403173:	imul   ebp,DWORD PTR [ebp+0x65],0x70706100
  40317a:	ins    BYTE PTR es:[edi],dx
  40317b:	add    BYTE PTR gs:[ebp+0x69],ch
  40317f:	ins    DWORD PTR es:[edi],dx
  403180:	gs sub eax,0x65707974
  403186:	add    BYTE PTR [ebp+0x69],ch
  403189:	ins    DWORD PTR es:[edi],dx
  40318a:	gs sub eax,0x6f636e65
  403190:	imul   ebp,DWORD PTR fs:[esi+0x67],0x65656b00
  403198:	jo     0x4031c7
  40319a:	outs   dx,DWORD PTR ds:[si]
  40319c:	imul   ebp,DWORD PTR [esi+0x67],0x72656400
  4031a3:	gs data16 gs jb 0x40320d
  4031a8:	outs   dx,BYTE PTR ds:[esi]
  4031a9:	arpl   WORD PTR [ebp+0x0],sp
  4031ac:	outs   dx,BYTE PTR ds:[esi]
  4031ad:	outs   dx,DWORD PTR ds:[esi]
  4031ae:	sub    eax,0x65726564
  4031b3:	data16 gs jb 0x40321c
  4031b7:	outs   dx,BYTE PTR ds:[esi]
  4031b8:	arpl   WORD PTR [ebp+0x0],sp
  4031bb:	outs   dx,BYTE PTR ds:[esi]
  4031bc:	outs   dx,DWORD PTR ds:[esi]
  4031bd:	sub    eax,0x66667562
  4031c2:	gs jb  0x4031c5
  4031c5:	outs   dx,BYTE PTR ds:[esi]
  4031c6:	outs   dx,DWORD PTR ds:[esi]
  4031c7:	sub    eax,0x646170
  4031cc:	jo     0x403240
  4031ce:	imul   ebp,DWORD PTR [esi+0x74],0x72700030
  4031d5:	gs jae 0x40323d
  4031d8:	jb     0x403250
  4031da:	gs sub eax,0x65746164
  4031e0:	add    BYTE PTR [edx+0x61],dh
  4031e3:	ja     0x4031e5
  4031e5:	jae    0x403257
  4031e7:	arpl   WORD PTR gs:[ecx+0x61],bp
  4031eb:	ins    BYTE PTR es:[edi],dx
  4031ec:	sub    eax,0x656c6966
  4031f1:	jae    0x4031f3
  4031f3:	arpl   WORD PTR [edi+0x6d],bp
  4031f6:	jo     0x403261
  4031f8:	ins    BYTE PTR es:[edi],dx
  4031f9:	add    BYTE PTR gs:[ebp+eiz*2+0x62],ah
  4031fe:	jne    0x403267
	...
  403220:	sbb    dh,BYTE PTR [ecx]
  403222:	inc    eax
	...
  40322f:	add    BYTE PTR [edi],bl
  403231:	xor    DWORD PTR [eax+0x0],eax
	...
  40323c:	jbe    0x40323e
  40323e:	add    BYTE PTR [eax],al
  403240:	daa    
  403241:	xor    DWORD PTR [eax+0x0],eax
  403244:	add    DWORD PTR [eax],eax
  403246:	add    BYTE PTR [eax],al
  403248:	add    BYTE PTR [eax],al
  40324a:	add    BYTE PTR [eax],al
  40324c:	ins    DWORD PTR es:[edi],dx
  40324d:	add    BYTE PTR [eax],al
  40324f:	add    BYTE PTR [edx],dh
  403251:	xor    DWORD PTR [eax+0x0],eax
	...
  40325c:	jp     0x40325e
  40325e:	add    BYTE PTR [eax],al
  403260:	cmp    eax,0x4031
  403265:	add    BYTE PTR [eax],al
  403267:	add    BYTE PTR [eax],al
  403269:	add    BYTE PTR [eax],al
  40326b:	add    BYTE PTR [edx+0x0],ah
  40326e:	add    BYTE PTR [eax],al
  403270:	inc    ebx
  403271:	xor    DWORD PTR [eax+0x0],eax
	...
  40327c:	arpl   WORD PTR [eax],ax
  40327e:	add    BYTE PTR [eax],al
  403280:	push   ebp
  403281:	xor    DWORD PTR [eax+0x0],eax
  403284:	add    DWORD PTR [eax],eax
  403286:	add    BYTE PTR [eax],al
  403288:	add    BYTE PTR [eax],al
  40328a:	add    BYTE PTR [eax],al
  40328c:	add    BYTE PTR gs:[eax],al
  40328f:	add    BYTE PTR [ebp+0x31],bl
  403292:	inc    eax
  403293:	add    BYTE PTR [ecx],al
  403295:	add    BYTE PTR [eax],al
  403297:	add    BYTE PTR [eax],al
  403299:	add    BYTE PTR [eax],al
  40329b:	add    BYTE PTR [esi+0x0],ah
  40329e:	add    BYTE PTR [eax],al
  4032a0:	push   0x1004031
  4032a5:	add    BYTE PTR [eax],al
  4032a7:	add    BYTE PTR [eax],al
  4032a9:	add    BYTE PTR [eax],al
  4032ab:	add    BYTE PTR [esi+0x0],al
  4032ae:	add    BYTE PTR [eax],al
  4032b0:	jb     0x4032e3
  4032b2:	inc    eax
	...
  4032bb:	add    BYTE PTR [ecx+0x0],ch
  4032be:	add    BYTE PTR [eax],al
  4032c0:	ja     0x4032f3
  4032c2:	inc    eax
	...
  4032cf:	add    BYTE PTR [ebp+0x31],bh
  4032d2:	inc    eax
	...
  4032df:	add    BYTE PTR [edi+0x4031],al
	...
  4032ed:	add    BYTE PTR [eax],al
  4032ef:	add    BYTE PTR [ebp+0x4031],dl
  4032f5:	add    BYTE PTR [eax],al
  4032f7:	add    BYTE PTR [eax],al
  4032f9:	add    BYTE PTR [eax],al
  4032fb:	add    BYTE PTR [ebx+0x0],ch
  4032fe:	add    BYTE PTR [eax],al
  403300:	mov    al,ds:0x4031
  403305:	add    BYTE PTR [eax],al
  403307:	add    BYTE PTR [eax],al
  403309:	add    BYTE PTR [eax],al
  40330b:	add    BYTE PTR [eax+eax*1+0x0],cl
  40330f:	add    BYTE PTR [ecx+esi*1+0x40],ch
  403316:	add    BYTE PTR [eax],al
  403318:	add    BYTE PTR [eax],al
  40331a:	add    BYTE PTR [eax],al
  40331c:	push   0xbb000000
  403321:	xor    DWORD PTR [eax+0x0],eax
	...
  40332c:	outs   dx,BYTE PTR ds:[esi]
  40332d:	add    BYTE PTR [eax],al
  40332f:	add    ch,al
  403331:	xor    DWORD PTR [eax+0x0],eax
	...
  40333c:	dec    esi
  40333d:	add    BYTE PTR [eax],al
  40333f:	add    ah,cl
  403341:	xor    DWORD PTR [eax+0x0],eax
	...
  40334c:	xor    BYTE PTR [eax],al
  40334e:	add    BYTE PTR [eax],al
  403350:	shl    DWORD PTR [ecx],cl
  403352:	inc    eax
	...
  40335b:	add    BYTE PTR [eax+0x0],dh
  40335e:	add    BYTE PTR [eax],al
  403360:	loope  0x403393
  403362:	inc    eax
	...
  40336b:	add    BYTE PTR [edx+0x0],dh
  40336e:	add    BYTE PTR [eax],al
  403370:	in     eax,0x31
  403372:	inc    eax
	...
  40337b:	add    BYTE PTR [ebx+0x0],dh
  40337e:	add    BYTE PTR [eax],al
  403380:	repz xor DWORD PTR [eax+0x0],eax
	...
  40338c:	inc    ebx
  40338d:	add    BYTE PTR [eax],al
  40338f:	add    bl,bh
  403391:	xor    DWORD PTR [eax+0x0],eax
	...
  40339c:	add    BYTE PTR fs:[eax],al
	...
  4033af:	add    BYTE PTR [ecx+0x70],ah
  4033b2:	jo     0x403428
  4033b4:	jns    0x403426
  4033b6:	add    BYTE PTR gs:[ecx+0x73],ah
  4033ba:	arpl   WORD PTR [ecx+0x69],bp
  4033bd:	add    BYTE PTR [ebx+0x64],ah
  4033c0:	data16 add BYTE PTR [ebx+0x6f],ah
  4033c4:	ins    DWORD PTR es:[edi],dx
  4033c5:	jo     0x403439
  4033c7:	gs jae 0x40343d
  4033ca:	add    BYTE PTR [ebp+0x6c],ah
  4033cd:	data16 add BYTE PTR [ebp+0x6e],ah
  4033d1:	arpl   WORD PTR [edi+0x64],bp
  4033d4:	imul   ebp,DWORD PTR [esi+0x67],0x666f7300
  4033db:	je     0x4033dd
  4033dd:	je     0x403440
  4033df:	jb     0x4033e1
  4033e1:	je     0x403452
  4033e3:	imul   esp,DWORD PTR [ebp+0x6e],0x73
	...
  4033ff:	add    BYTE PTR [eax+0x4033],dh
  403405:	add    BYTE PTR [eax],0x0
  403408:	mov    eax,0x4033
  40340d:	add    BYTE PTR [edx],al
  40340f:	add    BYTE PTR [esi+0x4033],bh
  403415:	add    BYTE PTR [eax+eax*1],al
  403418:	ret    0x4033
  40341b:	add    BYTE PTR [eax],al
  40341d:	adc    BYTE PTR [eax],al
  40341f:	add    bl,cl
  403421:	xor    eax,DWORD PTR [eax+0x0]
  403424:	add    BYTE PTR [eax],al
  403426:	add    DWORD PTR [eax],eax
  403428:	iret   
  403429:	xor    eax,DWORD PTR [eax+0x0]
  40342c:	add    BYTE PTR [eax],al
  40342e:	and    BYTE PTR [eax],al
  403430:	fdiv   DWORD PTR [ebx]
  403432:	inc    eax
  403433:	add    BYTE PTR [eax],al
  403435:	inc    eax
  403436:	add    BYTE PTR [eax],al
  403438:	fnsave [ebx]
  40343a:	inc    eax
  40343b:	add    BYTE PTR [eax],al
  40343d:	and    BYTE PTR [eax],al
  40343f:	add    cl,ah
  403441:	xor    eax,DWORD PTR [eax+0x0]
  403444:	add    BYTE PTR [eax],al
  403446:	adc    BYTE PTR [eax],al
  403448:	add    BYTE PTR [eax+0x4f],dl
  40344b:	push   ebx
  40344c:	dec    ecx
  40344d:	pop    eax
  40344e:	dec    esp
  40344f:	pop    ecx
  403450:	pop    edi
  403451:	inc    ebx
  403452:	dec    edi
  403453:	push   edx
  403454:	push   edx
  403455:	inc    ebp
  403456:	inc    ebx
  403457:	push   esp
  403458:	add    BYTE PTR [edx+0x63],ah
  40345b:	inc    ebx
  40345c:	fs cmp ah,BYTE PTR gs:[esi+0x3a]
  403461:	inc    esi
  403462:	cmp    ch,BYTE PTR [eax+0x69]
  403465:	imul   ecx,DWORD PTR [ebp+ebp*2+0x3a],0x6e
  40346a:	dec    esi
  40346b:	jo     0x4034df
  40346d:	jae    0x4034e5
  40346f:	jp     0x4034a1
  403471:	add    BYTE PTR ds:0x64252d73,ah
  403477:	cs and eax,0xa64322e
  40347d:	add    BYTE PTR [ebp+0x61],ch
  403480:	imul   esp,DWORD PTR [bp+di+0x20],0x656c6966
  403488:	and    BYTE PTR [esi+0x72],ah
  40348b:	outs   dx,DWORD PTR ds:[esi]
  40348c:	ins    DWORD PTR es:[edi],dx
  40348d:	and    BYTE PTR ds:0x25000a73,ah
  403493:	jae    0x4034cf
  403495:	and    BYTE PTR ds:0xa73,ah
  40349b:	add    dh,al
  40349d:	adc    al,BYTE PTR [eax+0x0]
  4034a0:	and    BYTE PTR [ecx],dl
  4034a2:	inc    eax
  4034a3:	add    BYTE PTR [eax],ah
  4034a5:	adc    DWORD PTR [eax+0x0],eax
  4034a8:	and    BYTE PTR [ecx],dl
  4034aa:	inc    eax
  4034ab:	add    BYTE PTR [eax],ah
  4034ad:	adc    DWORD PTR [eax+0x0],eax
  4034b0:	and    BYTE PTR [ecx],dl
  4034b2:	inc    eax
  4034b3:	add    BYTE PTR [eax],ah
  4034b5:	adc    DWORD PTR [eax+0x0],eax
  4034b8:	and    BYTE PTR [ecx],dl
  4034ba:	inc    eax
  4034bb:	add    BYTE PTR [eax],ah
  4034bd:	adc    DWORD PTR [eax+0x0],eax
  4034c0:	and    BYTE PTR [ecx],dl
  4034c2:	inc    eax
  4034c3:	add    BYTE PTR [eax],ah
  4034c5:	adc    DWORD PTR [eax+0x0],eax
  4034c8:	and    BYTE PTR [ecx],dl
  4034ca:	inc    eax
  4034cb:	add    BYTE PTR [eax],ah
  4034cd:	adc    DWORD PTR [eax+0x0],eax
  4034d0:	and    BYTE PTR [ecx],dl
  4034d2:	inc    eax
  4034d3:	add    BYTE PTR [eax],ah
  4034d5:	adc    DWORD PTR [eax+0x0],eax
  4034d8:	and    BYTE PTR [ecx],dl
  4034da:	inc    eax
  4034db:	add    BYTE PTR [eax],ah
  4034dd:	adc    DWORD PTR [eax+0x0],eax
  4034e0:	and    BYTE PTR [ecx],dl
  4034e2:	inc    eax
  4034e3:	add    BYTE PTR [eax],ah
  4034e5:	adc    DWORD PTR [eax+0x0],eax
  4034e8:	and    BYTE PTR [ecx],dl
  4034ea:	inc    eax
  4034eb:	add    BYTE PTR [eax],ah
  4034ed:	adc    DWORD PTR [eax+0x0],eax
  4034f0:	and    BYTE PTR [ecx],dl
  4034f2:	inc    eax
  4034f3:	add    BYTE PTR [eax],ah
  4034f5:	adc    DWORD PTR [eax+0x0],eax
  4034f8:	and    BYTE PTR [ecx],dl
  4034fa:	inc    eax
  4034fb:	add    BYTE PTR [eax],ah
  4034fd:	adc    DWORD PTR [eax+0x0],eax
  403500:	and    BYTE PTR [ecx],dl
  403502:	inc    eax
  403503:	add    BYTE PTR [eax],ah
  403505:	adc    DWORD PTR [eax+0x0],eax
  403508:	and    BYTE PTR [ecx],dl
  40350a:	inc    eax
  40350b:	add    BYTE PTR [eax],ah
  40350d:	adc    DWORD PTR [eax+0x0],eax
  403510:	and    BYTE PTR [ecx],dl
  403512:	inc    eax
  403513:	add    BYTE PTR [eax],ah
  403515:	adc    DWORD PTR [eax+0x0],eax
  403518:	and    BYTE PTR [ecx],dl
  40351a:	inc    eax
  40351b:	add    BYTE PTR [eax],ah
  40351d:	adc    DWORD PTR [eax+0x0],eax
  403520:	and    BYTE PTR [ecx],dl
  403522:	inc    eax
  403523:	add    BYTE PTR [eax],ah
  403525:	adc    DWORD PTR [eax+0x0],eax
  403528:	and    BYTE PTR [ecx],dl
  40352a:	inc    eax
  40352b:	add    BYTE PTR [eax],ah
  40352d:	adc    DWORD PTR [eax+0x0],eax
  403530:	and    BYTE PTR [ecx],dl
  403532:	inc    eax
  403533:	add    BYTE PTR [eax],ah
  403535:	adc    DWORD PTR [eax+0x0],eax
  403538:	and    BYTE PTR [ecx],dl
  40353a:	inc    eax
  40353b:	add    BYTE PTR [eax],ah
  40353d:	adc    DWORD PTR [eax+0x0],eax
  403540:	and    BYTE PTR [ecx],dl
  403542:	inc    eax
  403543:	add    BYTE PTR [eax],ah
  403545:	adc    DWORD PTR [eax+0x0],eax
  403548:	and    BYTE PTR [ecx],dl
  40354a:	inc    eax
  40354b:	add    BYTE PTR [eax],ah
  40354d:	adc    DWORD PTR [eax+0x0],eax
  403550:	and    BYTE PTR [ecx],dl
  403552:	inc    eax
  403553:	add    BYTE PTR [eax],ah
  403555:	adc    DWORD PTR [eax+0x0],eax
  403558:	and    BYTE PTR [ecx],dl
  40355a:	inc    eax
  40355b:	add    BYTE PTR [esi+0x20004012],dh
  403561:	adc    DWORD PTR [eax+0x0],eax
  403564:	and    BYTE PTR [ecx],dl
  403566:	inc    eax
  403567:	add    BYTE PTR [eax],ah
  403569:	adc    DWORD PTR [eax+0x0],eax
  40356c:	and    BYTE PTR [ecx],dl
  40356e:	inc    eax
  40356f:	add    BYTE PTR [eax],ah
  403571:	adc    DWORD PTR [eax+0x0],eax
  403574:	and    BYTE PTR [ecx],dl
  403576:	inc    eax
  403577:	add    BYTE PTR [eax],ah
  403579:	adc    DWORD PTR [eax+0x0],eax
  40357c:	and    BYTE PTR [ecx],dl
  40357e:	inc    eax
  40357f:	add    BYTE PTR [eax],ah
  403581:	adc    DWORD PTR [eax+0x0],eax
  403584:	and    BYTE PTR [ecx],dl
  403586:	inc    eax
  403587:	add    BYTE PTR [eax],ah
  403589:	adc    DWORD PTR [eax+0x0],eax
  40358c:	and    BYTE PTR [ecx],dl
  40358e:	inc    eax
  40358f:	add    BYTE PTR [eax],ah
  403591:	adc    DWORD PTR [eax+0x0],eax
  403594:	and    BYTE PTR [ecx],dl
  403596:	inc    eax
  403597:	add    BYTE PTR [eax],ah
  403599:	adc    DWORD PTR [eax+0x0],eax
  40359c:	and    BYTE PTR [ecx],dl
  40359e:	inc    eax
  40359f:	add    BYTE PTR [eax],ah
  4035a1:	adc    DWORD PTR [eax+0x0],eax
  4035a4:	and    BYTE PTR [ecx],dl
  4035a6:	inc    eax
  4035a7:	add    BYTE PTR [edx+0x20004012],ch
  4035ad:	adc    DWORD PTR [eax+0x0],eax
  4035b0:	and    BYTE PTR [ecx],dl
  4035b2:	inc    eax
  4035b3:	add    BYTE PTR [ecx+0x20004012],bl
  4035b9:	adc    DWORD PTR [eax+0x0],eax
  4035bc:	and    BYTE PTR [ecx],dl
  4035be:	inc    eax
  4035bf:	add    BYTE PTR [eax],ah
  4035c1:	adc    DWORD PTR [eax+0x0],eax
  4035c4:	and    BYTE PTR [ecx],dl
  4035c6:	inc    eax
  4035c7:	add    BYTE PTR [eax],ah
  4035c9:	adc    DWORD PTR [eax+0x0],eax
  4035cc:	nop
  4035cd:	adc    al,BYTE PTR [eax+0x0]
  4035d0:	and    BYTE PTR [ecx],dl
  4035d2:	inc    eax
  4035d3:	add    BYTE PTR [ebp+0x20004012],al
  4035d9:	adc    DWORD PTR [eax+0x0],eax
  4035dc:	and    BYTE PTR [ecx],dl
  4035de:	inc    eax
  4035df:	add    BYTE PTR [eax],ah
  4035e1:	adc    DWORD PTR [eax+0x0],eax
  4035e4:	and    BYTE PTR [ecx],dl
  4035e6:	inc    eax
  4035e7:	add    BYTE PTR [eax],ah
  4035e9:	adc    DWORD PTR [eax+0x0],eax
  4035ec:	and    BYTE PTR [ecx],dl
  4035ee:	inc    eax
  4035ef:	add    BYTE PTR [eax],ah
  4035f1:	adc    DWORD PTR [eax+0x0],eax
  4035f4:	and    BYTE PTR [ecx],dl
  4035f6:	inc    eax
  4035f7:	add    BYTE PTR [eax],ah
  4035f9:	adc    DWORD PTR [eax+0x0],eax
  4035fc:	and    BYTE PTR [ecx],dl
  4035fe:	inc    eax
  4035ff:	add    BYTE PTR [eax],ah
  403601:	adc    DWORD PTR [eax+0x0],eax
  403604:	and    BYTE PTR [ecx],dl
  403606:	inc    eax
  403607:	add    BYTE PTR [eax],ah
  403609:	adc    DWORD PTR [eax+0x0],eax
  40360c:	and    BYTE PTR [ecx],dl
  40360e:	inc    eax
  40360f:	add    BYTE PTR [eax],ah
  403611:	adc    DWORD PTR [eax+0x0],eax
  403614:	and    BYTE PTR [ecx],dl
  403616:	inc    eax
  403617:	add    BYTE PTR [eax],ah
  403619:	adc    DWORD PTR [eax+0x0],eax
  40361c:	and    BYTE PTR [ecx],dl
  40361e:	inc    eax
  40361f:	add    BYTE PTR [eax],ah
  403621:	adc    DWORD PTR [eax+0x0],eax
  403624:	jp     0x403638
  403626:	inc    eax
  403627:	add    BYTE PTR [esi+0x12],ch
  40362a:	inc    eax
  40362b:	add    BYTE PTR [ebp+0x12],ah
  40362e:	inc    eax
  40362f:	add    BYTE PTR [edi],ah
  403631:	adc    al,BYTE PTR [eax+0x0]
  403634:	icebp  
  403635:	adc    DWORD PTR [eax+0x0],eax
  403638:	and    BYTE PTR [ecx],dl
  40363a:	inc    eax
  40363b:	add    al,ch
  40363d:	adc    DWORD PTR [eax+0x0],eax
  403640:	fcom   QWORD PTR [ecx]
  403642:	inc    eax
  403643:	add    BYTE PTR [eax],ah
  403645:	adc    DWORD PTR [eax+0x0],eax
  403648:	rcl    DWORD PTR [ecx],cl
  40364a:	inc    eax
  40364b:	add    BYTE PTR [eax],ah
  40364d:	adc    DWORD PTR [eax+0x0],eax
  403650:	lds    edx,FWORD PTR [ecx]
  403652:	inc    eax
  403653:	add    BYTE PTR [edx+0x20004011],bh
  403659:	adc    DWORD PTR [eax+0x0],eax
  40365c:	scas   al,BYTE PTR es:[edi]
  40365d:	adc    DWORD PTR [eax+0x0],eax
  403660:	and    BYTE PTR [ecx],dl
  403662:	inc    eax
  403663:	add    BYTE PTR [edx-0x66ffbfef],ah
  403669:	adc    DWORD PTR [eax+0x0],eax
  40366c:	and    BYTE PTR [ecx],dl
  40366e:	inc    eax
  40366f:	add    BYTE PTR [eax],ah
  403671:	adc    DWORD PTR [eax+0x0],eax
  403674:	sub    edx,DWORD PTR [ecx]
  403676:	inc    eax
  403677:	add    BYTE PTR [eax],ah
  403679:	adc    DWORD PTR [eax+0x0],eax
  40367c:	and    BYTE PTR [ecx],dl
  40367e:	inc    eax
  40367f:	add    BYTE PTR [eax],ah
  403681:	adc    DWORD PTR [eax+0x0],eax
  403684:	and    eax,0x2d004011
  403689:	add    BYTE PTR [edx],cl
  40368b:	add    BYTE PTR [edx+0x62],dh
  40368e:	add    BYTE PTR ds:0x43203a73,ah
  403694:	popa   
  403695:	outs   dx,BYTE PTR ds:[esi]
  403696:	outs   dx,BYTE PTR ds:[esi]
  403697:	outs   dx,DWORD PTR ds:[esi]
  403698:	je     0x4036ba
  40369a:	outs   dx,DWORD PTR ds:[esi]
  40369b:	jo     0x403702
  40369d:	outs   dx,BYTE PTR ds:[esi]
  40369e:	and    BYTE PTR [eax+0x25],ah
  4036a1:	jae    0x4036ca
  4036a3:	and    BYTE PTR [eax],ch
  4036a5:	and    eax,0xa2e2973
  4036aa:	add    BYTE PTR ds:0x2a250073,ah
  4036b0:	jae    0x4036d2
  4036b2:	add    BYTE PTR [edi],ch
  4036b4:	fs gs jbe 0x4036e7
  4036b8:	jae    0x40372e
  4036ba:	imul   ebp,DWORD PTR fs:[esi+0x0],0x4f525245
  4036c2:	push   edx
  4036c3:	cmp    ah,BYTE PTR [eax]
  4036c5:	and    eax,0xa73
  4036ca:	add    BYTE PTR [eax],al
  4036cc:	push   ebp
  4036cd:	jae    0x403730
  4036cf:	cmp    ah,BYTE PTR gs:[bx+si]
  4036d3:	and    eax,0x2d5b2073
  4036d8:	bound  esp,QWORD PTR [ebx+0x68]
  4036db:	imul   ebp,DWORD PTR [ebx+0x4c],0x72706e4e
  4036e2:	jae    0x40375a
  4036e4:	jp     0x403716
  4036e6:	pop    ebp
  4036e7:	and    BYTE PTR [ebx+0x2d],bl
  4036ea:	sub    eax,0x6c707061
  4036ef:	gs pop ebp
  4036f1:	and    BYTE PTR [ebx+0x2d],bl
  4036f4:	sub    eax,0x656d696d
  4036f9:	sub    eax,0x6f636e65
  4036fe:	imul   ebp,DWORD PTR fs:[esi+0x67],0x2d5b205d
  403706:	sub    eax,0x656d696d
  40370b:	sub    eax,0x65707974
  403710:	pop    ebp
  403711:	or     ah,BYTE PTR [eax]
  403713:	and    BYTE PTR [eax],ah
  403715:	and    BYTE PTR [eax],ah
  403717:	and    BYTE PTR [eax],ah
  403719:	and    BYTE PTR [eax],ah
  40371b:	and    BYTE PTR [eax],ah
  40371d:	and    BYTE PTR [ebx+0x2d],bl
  403720:	and    BYTE PTR gs:[ebp+eiz*2+0x73],dh
  403725:	je     0x403795
  403727:	popa   
  403728:	ins    DWORD PTR es:[edi],dx
  403729:	gs pop ebp
  40372b:	and    BYTE PTR [ebx+0x2d],bl
  40372e:	inc    esi
  40372f:	and    BYTE PTR [ebx+0x65],dh
  403732:	jo     0x403795
  403734:	jb     0x403797
  403736:	je     0x4037a7
  403738:	jb     0x403797
  40373a:	and    BYTE PTR [ebx+0x2d],bl
  40373d:	data16 and BYTE PTR [esi+0x61],ch
  403741:	ins    DWORD PTR es:[edi],dx
  403742:	imul   bp,WORD PTR gs:[ebp+eiz*2+0x5d],0x5b20
  40374a:	sub    eax,0x616d206d
  40374f:	imul   esp,DWORD PTR [bp+di+0x66],0x73656c69
  403757:	pop    ebp
  403758:	and    BYTE PTR [esi+0x69],ah
  40375b:	ins    BYTE PTR es:[edi],dx
  40375c:	and    BYTE PTR gs:[esi],ch
  40375f:	cs or  ah,BYTE PTR cs:[eax]
  403763:	and    BYTE PTR [eax],ah
  403765:	and    BYTE PTR [eax],ah
  403767:	and    BYTE PTR [eax],ah
  403769:	and    eax,0x432d2073
  40376e:	and    BYTE PTR [ebx+0x2d],bl
  403771:	ins    DWORD PTR es:[edi],dx
  403772:	and    BYTE PTR [ebp+0x61],ch
  403775:	imul   esp,DWORD PTR [bp+di+0x66],0x73656c69
  40377d:	pop    ebp
  40377e:	or     ah,BYTE PTR [eax]
  403780:	and    BYTE PTR [eax],ah
  403782:	and    BYTE PTR [eax],ah
  403784:	and    BYTE PTR [eax],ah
  403786:	and    eax,0x2d5b2073
  40378b:	sub    eax,0x706c6568
  403790:	pop    ebp
  403791:	or     al,BYTE PTR [eax]
  403793:	add    BYTE PTR [ebp+0x73],dl
  403796:	popa   
  403797:	cmp    ah,BYTE PTR gs:[bx+si]
  40379b:	imul   bp,WORD PTR [ebp+eiz*2+0x20],0x4f5b
  4037a2:	push   eax
  4037a3:	push   esp
  4037a4:	dec    ecx
  4037a5:	dec    edi
  4037a6:	dec    esi
  4037a7:	cs cs cs pop ebp
  4037ab:	and    BYTE PTR [ebx+0x46],bl
  4037ae:	dec    ecx
  4037af:	dec    esp
  4037b0:	inc    ebp
  4037b1:	cs cs cs pop ebp
  4037b5:	or     al,BYTE PTR [ebp+eiz*2+0x74]
  4037b9:	gs jb  0x403829
  4037bc:	imul   ebp,DWORD PTR [esi+0x65],0x70797420
  4037c3:	and    BYTE PTR gs:[edi+0x66],ch
  4037c7:	and    BYTE PTR [esi+0x49],al
  4037ca:	dec    esp
  4037cb:	inc    ebp
  4037cc:	jae    0x4037fc
  4037ce:	or     cl,BYTE PTR [edx]
  4037d0:	add    BYTE PTR [eax],al
  4037d2:	add    BYTE PTR [eax],al
  4037d4:	and    BYTE PTR [eax],ah
  4037d6:	and    BYTE PTR [eax],ah
  4037d8:	and    BYTE PTR [eax],ah
  4037da:	sub    eax,0x6c65682d
  4037df:	jo     0x403801
  4037e1:	and    BYTE PTR [eax],ah
  4037e3:	and    BYTE PTR [eax],ah
  4037e5:	and    BYTE PTR [eax],ah
  4037e7:	and    BYTE PTR [eax],ah
  4037e9:	and    BYTE PTR [eax],ah
  4037eb:	and    BYTE PTR [eax],ah
  4037ed:	and    BYTE PTR [eax],ah
  4037ef:	and    BYTE PTR [eax],ah
  4037f1:	imul   esi,DWORD PTR fs:[ebx+0x70],0x2079616c
  4037f9:	je     0x403863
  4037fb:	imul   esi,DWORD PTR [ebx+0x20],0x706c6568
  403802:	and    BYTE PTR [ecx+0x6e],ah
  403805:	and    BYTE PTR fs:[ebp+0x78],ah
  403809:	imul   esi,DWORD PTR [edx+ecx*1+0x0],0x20000000
  403811:	and    BYTE PTR ds:0x202c6325,ch
  403817:	sub    eax,0x7265762d
  40381c:	jae    0x403887
  40381e:	outs   dx,DWORD PTR ds:[esi]
  40381f:	outs   dx,BYTE PTR ds:[esi]
  403820:	and    BYTE PTR [eax],ah
  403822:	and    BYTE PTR [eax],ah
  403824:	and    BYTE PTR [eax],ah
  403826:	and    BYTE PTR [eax],ah
  403828:	and    BYTE PTR [eax],ah
  40382a:	and    BYTE PTR [eax],ah
  40382c:	and    BYTE PTR [eax],ah
  40382e:	outs   dx,DWORD PTR ds:[esi]
  40382f:	jne    0x4038a5
  403831:	jo     0x4038a8
  403833:	je     0x403855
  403835:	jbe    0x40389c
  403837:	jb     0x4038ac
  403839:	imul   ebp,DWORD PTR [edi+0x6e],0x666e6920
  403840:	outs   dx,DWORD PTR ds:[esi]
  403841:	jb     0x4038b0
  403843:	popa   
  403844:	je     0x4038af
  403846:	outs   dx,DWORD PTR ds:[esi]
  403847:	outs   dx,BYTE PTR ds:[esi]
  403848:	and    BYTE PTR [ecx+0x6e],ah
  40384b:	and    BYTE PTR fs:[ebp+0x78],ah
  40384f:	imul   esi,DWORD PTR [edx+ecx*1+0x0],0x2d202000
  403857:	and    eax,0x2d202c63
  40385c:	sub    eax,0x6967616d
  403861:	arpl   WORD PTR ds:0x656c6966,bp
  403867:	and    BYTE PTR [ecx+ecx*2+0x53],cl
  40386b:	push   esp
  40386c:	and    BYTE PTR [eax],ah
  40386e:	and    BYTE PTR [eax],ah
  403870:	and    BYTE PTR [eax],ah
  403872:	jne    0x4038e7
  403874:	and    BYTE PTR gs:[ecx+ecx*2+0x53],cl
  403879:	push   esp
  40387a:	and    BYTE PTR [ecx+0x73],ah
  40387d:	and    BYTE PTR [ecx+0x20],ah
  403880:	arpl   WORD PTR [edi+0x6c],bp
  403883:	outs   dx,DWORD PTR ds:[esi]
  403884:	outs   dx,BYTE PTR ds:[esi]
  403885:	sub    eax,0x61706573
  40388a:	jb     0x4038ed
  40388c:	je     0x4038f3
  40388e:	and    BYTE PTR fs:[ecx+ebp*2+0x73],ch
  403893:	je     0x4038b5
  403895:	outs   dx,DWORD PTR ds:[esi]
  403896:	data16 and BYTE PTR [ebp+0x61],ch
  40389a:	imul   esp,DWORD PTR [bp+di+0xa],0x20202020
  4038a2:	and    BYTE PTR [eax],ah
  4038a4:	and    BYTE PTR [eax],ah
  4038a6:	and    BYTE PTR [eax],ah
  4038a8:	and    BYTE PTR [eax],ah
  4038aa:	and    BYTE PTR [eax],ah
  4038ac:	and    BYTE PTR [eax],ah
  4038ae:	and    BYTE PTR [eax],ah
  4038b0:	and    BYTE PTR [eax],ah
  4038b2:	and    BYTE PTR [eax],ah
  4038b4:	and    BYTE PTR [eax],ah
  4038b6:	and    BYTE PTR [eax],ah
  4038b8:	and    BYTE PTR [eax],ah
  4038ba:	and    BYTE PTR [eax],ah
  4038bc:	and    BYTE PTR [esi+0x75],ch
  4038bf:	ins    DWORD PTR es:[edi],dx
  4038c0:	bound  esp,QWORD PTR [ebp+0x72]
  4038c3:	and    BYTE PTR [esi+0x69],ah
  4038c6:	ins    BYTE PTR es:[edi],dx
  4038c7:	gs jae 0x4038d4
  4038ca:	add    BYTE PTR [eax],al
  4038cc:	and    BYTE PTR [eax],ah
  4038ce:	sub    eax,0x202c6325
  4038d3:	sub    eax,0x636e752d
  4038d8:	outs   dx,DWORD PTR ds:[esi]
  4038d9:	ins    DWORD PTR es:[edi],dx
  4038da:	jo     0x40394e
  4038dc:	gs jae 0x403952
  4038df:	and    BYTE PTR [eax],ah
  4038e1:	and    BYTE PTR [eax],ah
  4038e3:	and    BYTE PTR [eax],ah
  4038e5:	and    BYTE PTR [eax],ah
  4038e7:	and    BYTE PTR [eax],ah
  4038e9:	and    BYTE PTR [edx+esi*2+0x79],dh
  4038ed:	and    BYTE PTR [edi+ebp*2+0x20],dh
  4038f1:	ins    BYTE PTR es:[edi],dx
  4038f2:	outs   dx,DWORD PTR ds:[esi]
  4038f3:	outs   dx,DWORD PTR ds:[esi]
  4038f4:	imul   esp,DWORD PTR [eax],0x69
  4038f7:	outs   dx,BYTE PTR ds:[esi]
  4038f8:	jae    0x403963
  4038fa:	fs and BYTE PTR gs:[ebx+0x6f],ah
  4038ff:	ins    DWORD PTR es:[edi],dx
  403900:	jo     0x403974
  403902:	gs jae 0x403978
  403905:	gs and BYTE PTR fs:[esi+0x69],ah
  40390a:	ins    BYTE PTR es:[edi],dx
  40390b:	gs jae 0x403918
  40390e:	add    BYTE PTR [eax],al
  403910:	and    BYTE PTR [eax],ah
  403912:	sub    eax,0x202c6325
  403917:	sub    eax,0x6972622d
  40391c:	data16 and BYTE PTR gs:[eax],ah
  403920:	and    BYTE PTR [eax],ah
  403922:	and    BYTE PTR [eax],ah
  403924:	and    BYTE PTR [eax],ah
  403926:	and    BYTE PTR [eax],ah
  403928:	and    BYTE PTR [eax],ah
  40392a:	and    BYTE PTR [eax],ah
  40392c:	and    BYTE PTR [eax],ah
  40392e:	outs   dx,DWORD PTR fs:[esi]
  403930:	and    BYTE PTR [esi+0x6f],ch
  403933:	je     0x403955
  403935:	jo     0x4039a9
  403937:	gs jo  0x40399f
  40393a:	outs   dx,BYTE PTR ds:[esi]
  40393b:	and    BYTE PTR fs:[esi+0x69],ah
  40393f:	ins    BYTE PTR es:[edi],dx
  403940:	outs   dx,BYTE PTR gs:[esi]
  403942:	popa   
  403943:	ins    DWORD PTR es:[edi],dx
  403944:	gs jae 0x403967
  403947:	je     0x4039b8
  403949:	and    BYTE PTR [edi+0x75],ch
  40394c:	je     0x4039be
  40394e:	jne    0x4039c4
  403950:	and    BYTE PTR [ecx+ebp*2+0x6e],ch
  403954:	gs jae 0x403961
  403957:	add    BYTE PTR [eax],ah
  403959:	and    BYTE PTR ds:0x202c6325,ch
  40395f:	sub    eax,0x6568632d
  403964:	arpl   WORD PTR [ebx+0x69],bp
  403967:	outs   dx,BYTE PTR ds:[esi]
  403968:	addr16 sub eax,0x6e697270
  40396e:	je     0x4039df
  403970:	jne    0x4039e6
  403972:	and    BYTE PTR [eax],ah
  403974:	and    BYTE PTR [eax],ah
  403976:	jo     0x4039ea
  403978:	imul   ebp,DWORD PTR [esi+0x74],0x65687420
  40397f:	and    BYTE PTR [eax+0x61],dh
  403982:	jb     0x4039f7
  403984:	gs and BYTE PTR fs:[esi+0x6f],ah
  403989:	jb     0x4039f8
  40398b:	and    BYTE PTR [edi+0x66],ch
  40398e:	and    BYTE PTR [eax+ebp*2+0x65],dh
  403992:	and    BYTE PTR [ebp+0x61],ch
  403995:	imul   esp,DWORD PTR [bp+di+0x20],0x656c6966
  40399d:	sub    al,0x20
  40399f:	jne    0x403a14
  4039a1:	and    BYTE PTR gs:[ecx+0x6e],ch
  4039a5:	or     ah,BYTE PTR [eax]
  4039a7:	and    BYTE PTR [eax],ah
  4039a9:	and    BYTE PTR [eax],ah
  4039ab:	and    BYTE PTR [eax],ah
  4039ad:	and    BYTE PTR [eax],ah
  4039af:	and    BYTE PTR [eax],ah
  4039b1:	and    BYTE PTR [eax],ah
  4039b3:	and    BYTE PTR [eax],ah
  4039b5:	and    BYTE PTR [eax],ah
  4039b7:	and    BYTE PTR [eax],ah
  4039b9:	and    BYTE PTR [eax],ah
  4039bb:	and    BYTE PTR [eax],ah
  4039bd:	and    BYTE PTR [eax],ah
  4039bf:	and    BYTE PTR [eax],ah
  4039c1:	and    BYTE PTR [eax],ah
  4039c3:	and    BYTE PTR [eax],ah
  4039c5:	arpl   WORD PTR [edi+0x6e],bp
  4039c8:	push   0x75
  4039ca:	outs   dx,BYTE PTR ds:[esi]
  4039cb:	arpl   WORD PTR [ecx+ebp*2+0x6f],si
  4039cf:	outs   dx,BYTE PTR ds:[esi]
  4039d0:	and    BYTE PTR [edi+0x69],dh
  4039d3:	je     0x403a3d
  4039d5:	and    BYTE PTR ds:0x6f74206d,ch
  4039db:	and    BYTE PTR [ebp+eiz*2+0x62],ah
  4039df:	jne    0x403a48
  4039e1:	and    BYTE PTR [ecx+0x20],ah
  4039e4:	outs   dx,BYTE PTR ds:[esi]
  4039e5:	gs ja  0x403a08
  4039e8:	ins    DWORD PTR es:[edi],dx
  4039e9:	popa   
  4039ea:	imul   esp,DWORD PTR [bp+di+0x20],0x656c6966
  4039f2:	or     ah,BYTE PTR [eax]
  4039f4:	and    BYTE PTR [eax],ah
  4039f6:	and    BYTE PTR [eax],ah
  4039f8:	and    BYTE PTR [eax],ah
  4039fa:	and    BYTE PTR [eax],ah
  4039fc:	and    BYTE PTR [eax],ah
  4039fe:	and    BYTE PTR [eax],ah
  403a00:	and    BYTE PTR [eax],ah
  403a02:	and    BYTE PTR [eax],ah
  403a04:	and    BYTE PTR [eax],ah
  403a06:	and    BYTE PTR [eax],ah
  403a08:	and    BYTE PTR [eax],ah
  403a0a:	and    BYTE PTR [eax],ah
  403a0c:	and    BYTE PTR [eax],ah
  403a0e:	and    BYTE PTR [eax],ah
  403a10:	and    BYTE PTR [eax],ah
  403a12:	bound  esp,QWORD PTR [ebp+0x66]
  403a15:	outs   dx,DWORD PTR ds:[esi]
  403a16:	jb     0x403a7d
  403a18:	and    BYTE PTR [ecx+0x6e],ch
  403a1b:	jae    0x403a91
  403a1d:	popa   
  403a1e:	ins    BYTE PTR es:[edi],dx
  403a1f:	ins    BYTE PTR es:[edi],dx
  403a20:	imul   ebp,DWORD PTR [esi+0x67],0xa746920
  403a27:	add    BYTE PTR [eax],ah
  403a29:	and    BYTE PTR ds:0x202c6325,ch
  403a2f:	sub    eax,0x6378652d
  403a34:	ins    BYTE PTR es:[edi],dx
  403a35:	jne    0x403a9b
  403a37:	and    BYTE PTR gs:[ebp+eax*2+0x53],dl
  403a3c:	push   esp
  403a3d:	and    BYTE PTR [eax],ah
  403a3f:	and    BYTE PTR [eax],ah
  403a41:	and    BYTE PTR [eax],ah
  403a43:	and    BYTE PTR [eax],ah
  403a45:	and    BYTE PTR [ebp+0x78],ah
  403a48:	arpl   WORD PTR [ebp+esi*2+0x64],bp
  403a4c:	and    BYTE PTR gs:[ebp+eax*2+0x53],dl
  403a51:	push   esp
  403a52:	and    BYTE PTR [esi+0x72],ah
  403a55:	outs   dx,DWORD PTR ds:[esi]
  403a56:	ins    DWORD PTR es:[edi],dx
  403a57:	and    BYTE PTR [eax+ebp*2+0x65],dh
  403a5b:	and    BYTE PTR [ecx+ebp*2+0x73],ch
  403a5f:	je     0x403a81
  403a61:	outs   dx,DWORD PTR ds:[esi]
  403a62:	data16 and BYTE PTR [ebp+eiz*2+0x73],dh
  403a67:	je     0x403a89
  403a69:	je     0x403ada
  403a6b:	and    BYTE PTR [edx+0x65],ah
  403a6e:	or     ah,BYTE PTR [eax]
  403a70:	and    BYTE PTR [eax],ah
  403a72:	and    BYTE PTR [eax],ah
  403a74:	and    BYTE PTR [eax],ah
  403a76:	and    BYTE PTR [eax],ah
  403a78:	and    BYTE PTR [eax],ah
  403a7a:	and    BYTE PTR [eax],ah
  403a7c:	and    BYTE PTR [eax],ah
  403a7e:	and    BYTE PTR [eax],ah
  403a80:	and    BYTE PTR [eax],ah
  403a82:	and    BYTE PTR [eax],ah
  403a84:	and    BYTE PTR [eax],ah
  403a86:	and    BYTE PTR [eax],ah
  403a88:	and    BYTE PTR [eax],ah
  403a8a:	and    BYTE PTR [eax],ah
  403a8c:	and    BYTE PTR [eax],ah
  403a8e:	jo     0x403af5
  403a90:	jb     0x403af8
  403a92:	outs   dx,DWORD PTR ds:[esi]
  403a93:	jb     0x403b02
  403a95:	gs and BYTE PTR fs:[esi+0x6f],ah
  403a9a:	jb     0x403abc
  403a9c:	imul   bp,WORD PTR [ebp+eiz*2+0x2e],0x5620
  403aa3:	popa   
  403aa4:	ins    BYTE PTR es:[edi],dx
  403aa5:	imul   esp,DWORD PTR [eax+eiz*1+0x74],0x73747365
  403aad:	and    BYTE PTR [ecx+0x72],ah
  403ab0:	cmp    cl,BYTE PTR gs:[edx]
  403ab3:	and    BYTE PTR [eax],ah
  403ab5:	and    BYTE PTR [eax],ah
  403ab7:	and    BYTE PTR [eax],ah
  403ab9:	and    BYTE PTR [eax],ah
  403abb:	and    BYTE PTR [eax],ah
  403abd:	and    BYTE PTR [eax],ah
  403abf:	and    BYTE PTR [eax],ah
  403ac1:	and    BYTE PTR [eax],ah
  403ac3:	and    BYTE PTR [eax],ah
  403ac5:	and    BYTE PTR [eax],ah
  403ac7:	and    BYTE PTR [eax],ah
  403ac9:	and    BYTE PTR [eax],ah
  403acb:	and    BYTE PTR [eax],ah
  403acd:	and    BYTE PTR [eax],ah
  403acf:	and    BYTE PTR [eax],ah
  403ad1:	and    BYTE PTR [ecx+0x73],ah
  403ad4:	arpl   WORD PTR [ecx+0x69],bp
  403ad7:	sub    al,0x20
  403ad9:	popa   
  403ada:	jo     0x403b4c
  403adc:	je     0x403b57
  403ade:	jo     0x403b45
  403ae0:	sub    al,0x20
  403ae2:	arpl   WORD PTR [edi+0x6d],bp
  403ae5:	jo     0x403b59
  403ae7:	gs jae 0x403b5d
  403aea:	sub    al,0x20
  403aec:	gs ins BYTE PTR es:[edi],dx
  403aee:	data16 sub al,0x20
  403af1:	jae    0x403b62
  403af3:	data16 je 0x403b22
  403af6:	and    BYTE PTR [ecx+eiz*2+0x72],dh
  403afa:	sub    al,0x20
  403afc:	je     0x403b6d
  403afe:	imul   esp,DWORD PTR [ebp+0x6e],0x73
  403b02:	sub    al,0x20
  403b04:	je     0x403b78
  403b06:	outs   dx,DWORD PTR ds:[esi]
  403b07:	data16 data16 or al,BYTE PTR [eax]
  403b0b:	add    BYTE PTR [eax],ah
  403b0d:	and    BYTE PTR ds:0x202c6325,ch
  403b13:	sub    eax,0x6c69662d
  403b18:	gs jae 0x403b48
  403b1b:	data16 jb 0x403b8d
  403b1e:	ins    DWORD PTR es:[edi],dx
  403b1f:	and    BYTE PTR [esi+0x49],al
  403b22:	dec    esp
  403b23:	inc    ebp
  403b24:	and    BYTE PTR [eax],ah
  403b26:	and    BYTE PTR [eax],ah
  403b28:	and    BYTE PTR [eax],ah
  403b2a:	jb     0x403b91
  403b2c:	popa   
  403b2d:	and    BYTE PTR fs:[eax+ebp*2+0x65],dh
  403b32:	and    BYTE PTR [esi+0x69],ah
  403b35:	ins    BYTE PTR es:[edi],dx
  403b36:	outs   dx,BYTE PTR gs:[esi]
  403b38:	popa   
  403b39:	ins    DWORD PTR es:[edi],dx
  403b3a:	gs jae 0x403b5d
  403b3d:	je     0x403bae
  403b3f:	and    BYTE PTR [edx+0x65],ah
  403b42:	and    BYTE PTR [ebp+0x78],ah
  403b45:	popa   
  403b46:	ins    DWORD PTR es:[edi],dx
  403b47:	imul   ebp,DWORD PTR [esi+0x65],0x72662064
  403b4e:	outs   dx,DWORD PTR ds:[esi]
  403b4f:	ins    DWORD PTR es:[edi],dx
  403b50:	and    BYTE PTR [esi+0x49],al
  403b53:	dec    esp
  403b54:	inc    ebp
  403b55:	or     al,BYTE PTR [eax]
  403b57:	add    BYTE PTR [eax],ah
  403b59:	and    BYTE PTR ds:0x202c6325,ch
  403b5f:	sub    eax,0x7065732d
  403b64:	popa   
  403b65:	jb     0x403bc8
  403b67:	je     0x403bd8
  403b69:	jb     0x403b8b
  403b6b:	push   ebx
  403b6c:	push   esp
  403b6d:	push   edx
  403b6e:	dec    ecx
  403b6f:	dec    esi
  403b70:	inc    edi
  403b71:	and    BYTE PTR [eax],ah
  403b73:	and    BYTE PTR [eax],ah
  403b75:	and    BYTE PTR [ebp+0x73],dh
  403b78:	and    BYTE PTR gs:[ebx+0x74],dh
  403b7c:	jb     0x403be7
  403b7e:	outs   dx,BYTE PTR ds:[esi]
  403b7f:	and    BYTE PTR [bx+di+0x73],ah
  403b83:	and    BYTE PTR [ebx+0x65],dh
  403b86:	jo     0x403be9
  403b88:	jb     0x403beb
  403b8a:	je     0x403bfb
  403b8c:	jb     0x403bae
  403b8e:	imul   ebp,DWORD PTR [esi+0x73],0x64616574
  403b95:	and    BYTE PTR [edi+0x66],ch
  403b98:	and    BYTE PTR [eax+0x3a],ah
  403b9b:	daa    
  403b9c:	or     al,BYTE PTR [eax]
  403b9e:	add    BYTE PTR [eax],al
  403ba0:	and    BYTE PTR [eax],ah
  403ba2:	sub    eax,0x202c6325
  403ba7:	sub    eax,0x6d696d2d
  403bac:	and    BYTE PTR gs:[eax],ah
  403baf:	and    BYTE PTR [eax],ah
  403bb1:	and    BYTE PTR [eax],ah
  403bb3:	and    BYTE PTR [eax],ah
  403bb5:	and    BYTE PTR [eax],ah
  403bb7:	and    BYTE PTR [eax],ah
  403bb9:	and    BYTE PTR [eax],ah
  403bbb:	and    BYTE PTR [eax],ah
  403bbd:	and    BYTE PTR [edi+0x75],ch
  403bc0:	je     0x403c32
  403bc2:	jne    0x403c38
  403bc4:	and    BYTE PTR [ebp+0x49],cl
  403bc7:	dec    ebp
  403bc8:	inc    ebp
  403bc9:	and    BYTE PTR [ecx+edi*2+0x70],dh
  403bcd:	and    BYTE PTR gs:[ebx+0x74],dh
  403bd1:	jb     0x403c3c
  403bd3:	outs   dx,BYTE PTR ds:[esi]
  403bd4:	addr16 jae 0x403bf7
  403bd7:	sub    BYTE PTR ds:0x6d696d2d,ch
  403bdd:	gs sub eax,0x65707974
  403be3:	and    BYTE PTR [ecx+0x6e],ah
  403be6:	or     ah,BYTE PTR fs:[eax]
  403be9:	and    BYTE PTR [eax],ah
  403beb:	and    BYTE PTR [eax],ah
  403bed:	and    BYTE PTR [eax],ah
  403bef:	and    BYTE PTR [eax],ah
  403bf1:	and    BYTE PTR [eax],ah
  403bf3:	and    BYTE PTR [eax],ah
  403bf5:	and    BYTE PTR [eax],ah
  403bf7:	and    BYTE PTR [eax],ah
  403bf9:	and    BYTE PTR [eax],ah
  403bfb:	and    BYTE PTR [eax],ah
  403bfd:	and    BYTE PTR [eax],ah
  403bff:	and    BYTE PTR [eax],ah
  403c01:	and    BYTE PTR [eax],ah
  403c03:	and    BYTE PTR [eax],ah
  403c05:	and    BYTE PTR [eax],ah
  403c07:	sub    eax,0x6d696d2d
  403c0c:	gs sub eax,0x6f636e65
  403c12:	imul   ebp,DWORD PTR fs:[esi+0x67],0xa29
  403c1a:	add    BYTE PTR [eax],al
  403c1c:	and    BYTE PTR [eax],ah
  403c1e:	and    BYTE PTR [eax],ah
  403c20:	and    BYTE PTR [eax],ah
  403c22:	sub    eax,0x7070612d
  403c27:	ins    BYTE PTR es:[edi],dx
  403c28:	and    BYTE PTR gs:[eax],ah
  403c2b:	and    BYTE PTR [eax],ah
  403c2d:	and    BYTE PTR [eax],ah
  403c2f:	and    BYTE PTR [eax],ah
  403c31:	and    BYTE PTR [eax],ah
  403c33:	and    BYTE PTR [eax],ah
  403c35:	and    BYTE PTR [eax],ah
  403c37:	and    BYTE PTR [eax],ah
  403c39:	outs   dx,DWORD PTR ds:[esi]
  403c3a:	jne    0x403cb0
  403c3c:	jo     0x403cb3
  403c3e:	je     0x403c60
  403c40:	je     0x403caa
  403c42:	and    BYTE PTR gs:[ecx+0x70],al
  403c46:	jo     0x403cb4
  403c48:	and    BYTE PTR gs:[ebx+0x52],al
  403c4c:	inc    ebp
  403c4d:	inc    ecx
  403c4e:	push   esp
  403c4f:	dec    edi
  403c50:	push   edx
  403c51:	das    
  403c52:	push   esp
  403c53:	pop    ecx
  403c54:	push   eax
  403c55:	inc    ebp
  403c56:	or     al,BYTE PTR [eax]
  403c58:	and    BYTE PTR [eax],ah
  403c5a:	and    BYTE PTR [eax],ah
  403c5c:	and    BYTE PTR [eax],ah
  403c5e:	sub    eax,0x6d696d2d
  403c63:	gs sub eax,0x65707974
  403c69:	and    BYTE PTR [eax],ah
  403c6b:	and    BYTE PTR [eax],ah
  403c6d:	and    BYTE PTR [eax],ah
  403c6f:	and    BYTE PTR [eax],ah
  403c71:	and    BYTE PTR [eax],ah
  403c73:	and    BYTE PTR [eax],ah
  403c75:	outs   dx,DWORD PTR ds:[esi]
  403c76:	jne    0x403cec
  403c78:	jo     0x403cef
  403c7a:	je     0x403c9c
  403c7c:	je     0x403ce6
  403c7e:	and    BYTE PTR gs:[ebp+0x49],cl
  403c82:	dec    ebp
  403c83:	inc    ebp
  403c84:	and    BYTE PTR [ecx+edi*2+0x70],dh
  403c88:	or     al,BYTE PTR gs:[eax]
  403c8b:	add    BYTE PTR [eax],ah
  403c8d:	and    BYTE PTR [eax],ah
  403c8f:	and    BYTE PTR [eax],ah
  403c91:	and    BYTE PTR ds:0x6d696d2d,ch
  403c97:	gs sub eax,0x6f636e65
  403c9d:	imul   ebp,DWORD PTR fs:[esi+0x67],0x20202020
  403ca5:	and    BYTE PTR [eax],ah
  403ca7:	and    BYTE PTR [eax],ah
  403ca9:	outs   dx,DWORD PTR ds:[esi]
  403caa:	jne    0x403d20
  403cac:	jo     0x403d23
  403cae:	je     0x403cd0
  403cb0:	je     0x403d1a
  403cb2:	and    BYTE PTR gs:[ebp+0x49],cl
  403cb6:	dec    ebp
  403cb7:	inc    ebp
  403cb8:	and    BYTE PTR [ebp+0x6e],ah
  403cbb:	arpl   WORD PTR [edi+0x64],bp
  403cbe:	imul   ebp,DWORD PTR [esi+0x67],0x2000000a
  403cc5:	and    BYTE PTR ds:0x202c6325,ch
  403ccb:	sub    eax,0x65656b2d
  403cd0:	jo     0x403cff
  403cd2:	outs   dx,DWORD PTR ds:[si]
  403cd4:	imul   ebp,DWORD PTR [esi+0x67],0x20202020
  403cdb:	and    BYTE PTR [eax],ah
  403cdd:	and    BYTE PTR [eax],ah
  403cdf:	and    BYTE PTR [eax],ah
  403ce1:	and    BYTE PTR [edi+ebp*2+0x6e],ah
  403ce5:	daa    
  403ce6:	je     0x403d08
  403ce8:	jae    0x403d5e
  403cea:	outs   dx,DWORD PTR ds:[esi]
  403ceb:	jo     0x403d0d
  403ced:	popa   
  403cee:	je     0x403d10
  403cf0:	je     0x403d5a
  403cf2:	and    BYTE PTR gs:[esi+0x69],ah
  403cf6:	jb     0x403d6b
  403cf8:	je     0x403d1a
  403cfa:	ins    DWORD PTR es:[edi],dx
  403cfb:	popa   
  403cfc:	je     0x403d61
  403cfe:	push   0xa
  403d03:	add    BYTE PTR [eax],ah
  403d05:	and    BYTE PTR ds:0x202c6325,ch
  403d0b:	sub    eax,0x7265642d
  403d10:	gs data16 gs jb 0x403d7a
  403d15:	outs   dx,BYTE PTR ds:[esi]
  403d16:	arpl   WORD PTR [ebp+0x20],sp
  403d19:	and    BYTE PTR [eax],ah
  403d1b:	and    BYTE PTR [eax],ah
  403d1d:	and    BYTE PTR [eax],ah
  403d1f:	and    BYTE PTR [eax],ah
  403d21:	and    BYTE PTR [esi+0x6f],ah
  403d24:	ins    BYTE PTR es:[edi],dx
  403d25:	ins    BYTE PTR es:[edi],dx
  403d26:	outs   dx,DWORD PTR ds:[esi]
  403d27:	ja     0x403d49
  403d29:	jae    0x403da4
  403d2b:	ins    DWORD PTR es:[edi],dx
  403d2c:	ins    BYTE PTR es:[edi],dx
  403d2d:	imul   ebp,DWORD PTR [esi+0x6b],0x64282073
  403d34:	gs popaw 
  403d37:	jne    0x403da5
  403d39:	je     0x403d64
  403d3b:	or     al,BYTE PTR [eax]
  403d3d:	add    BYTE PTR [eax],al
  403d3f:	add    BYTE PTR [eax],ah
  403d41:	and    BYTE PTR ds:0x202c6325,ch
  403d47:	sub    eax,0x2d6f6e2d
  403d4c:	fs gs jb 0x403db5
  403d50:	data16 gs jb 0x403db9
  403d54:	outs   dx,BYTE PTR ds:[esi]
  403d55:	arpl   WORD PTR [ebp+0x20],sp
  403d58:	and    BYTE PTR [eax],ah
  403d5a:	and    BYTE PTR [eax],ah
  403d5c:	and    BYTE PTR [eax],ah
  403d5e:	outs   dx,DWORD PTR fs:[esi]
  403d60:	outs   dx,BYTE PTR ds:[esi]
  403d61:	daa    
  403d62:	je     0x403d84
  403d64:	outs   dx,WORD PTR ds:[esi]
  403d66:	ins    BYTE PTR es:[edi],dx
  403d67:	ins    BYTE PTR es:[edi],dx
  403d68:	outs   dx,DWORD PTR ds:[esi]
  403d69:	ja     0x403d8b
  403d6b:	jae    0x403de6
  403d6d:	ins    DWORD PTR es:[edi],dx
  403d6e:	ins    BYTE PTR es:[edi],dx
  403d6f:	imul   ebp,DWORD PTR [esi+0x6b],0xa73
  403d76:	add    BYTE PTR [eax],al
  403d78:	and    BYTE PTR [eax],ah
  403d7a:	sub    eax,0x202c6325
  403d7f:	sub    eax,0x2d6f6e2d
  403d84:	bound  esi,QWORD PTR [ebp+0x66]
  403d87:	data16 gs jb 0x403dab
  403d8b:	and    BYTE PTR [eax],ah
  403d8d:	and    BYTE PTR [eax],ah
  403d8f:	and    BYTE PTR [eax],ah
  403d91:	and    BYTE PTR [eax],ah
  403d93:	and    BYTE PTR [eax],ah
  403d95:	and    BYTE PTR [edi+ebp*2+0x20],ah
  403d99:	outs   dx,BYTE PTR ds:[esi]
  403d9a:	outs   dx,DWORD PTR ds:[esi]
  403d9b:	je     0x403dbd
  403d9d:	bound  esi,QWORD PTR [ebp+0x66]
  403da0:	data16 gs jb 0x403dc4
  403da4:	outs   dx,DWORD PTR ds:[esi]
  403da5:	jne    0x403e1b
  403da7:	jo     0x403e1e
  403da9:	je     0x403db5
  403dab:	add    BYTE PTR [eax],ah
  403dad:	and    BYTE PTR ds:0x202c6325,ch
  403db3:	sub    eax,0x2d6f6e2d
  403db8:	jo     0x403e1b
  403dba:	and    BYTE PTR fs:[eax],ah
  403dbd:	and    BYTE PTR [eax],ah
  403dbf:	and    BYTE PTR [eax],ah
  403dc1:	and    BYTE PTR [eax],ah
  403dc3:	and    BYTE PTR [eax],ah
  403dc5:	and    BYTE PTR [eax],ah
  403dc7:	and    BYTE PTR [eax],ah
  403dc9:	and    BYTE PTR [edi+ebp*2+0x20],ah
  403dcd:	outs   dx,BYTE PTR ds:[esi]
  403dce:	outs   dx,DWORD PTR ds:[esi]
  403dcf:	je     0x403df1
  403dd1:	jo     0x403e34
  403dd3:	and    BYTE PTR fs:[edi+0x75],ch
  403dd7:	je     0x403e49
  403dd9:	jne    0x403e4f
  403ddb:	or     al,BYTE PTR [eax]
  403ddd:	add    BYTE PTR [eax],al
  403ddf:	add    BYTE PTR [eax],ah
  403de1:	and    BYTE PTR ds:0x202c6325,ch
  403de7:	sub    eax,0x6972702d
  403dec:	outs   dx,BYTE PTR ds:[esi]
  403ded:	je     0x403e1f
  403def:	and    BYTE PTR [eax],ah
  403df1:	and    BYTE PTR [eax],ah
  403df3:	and    BYTE PTR [eax],ah
  403df5:	and    BYTE PTR [eax],ah
  403df7:	and    BYTE PTR [eax],ah
  403df9:	and    BYTE PTR [eax],ah
  403dfb:	and    BYTE PTR [eax],ah
  403dfd:	and    BYTE PTR [ebp+eiz*2+0x72],dh
  403e01:	ins    DWORD PTR es:[edi],dx
  403e02:	imul   ebp,DWORD PTR [esi+0x61],0x66206574
  403e09:	imul   ebp,DWORD PTR [ebp+eiz*2+0x6e],0x73656d61
  403e11:	and    BYTE PTR [edi+0x69],dh
  403e14:	je     0x403e7e
  403e16:	and    BYTE PTR [ecx+0x53],al
  403e19:	inc    ebx
  403e1a:	dec    ecx
  403e1b:	dec    ecx
  403e1c:	and    BYTE PTR [esi+0x55],cl
  403e1f:	dec    esp
  403e20:	or     al,BYTE PTR [eax]
  403e22:	add    BYTE PTR [eax],al
  403e24:	and    BYTE PTR [eax],ah
  403e26:	sub    eax,0x202c6325
  403e2b:	sub    eax,0x6572702d
  403e30:	jae    0x403e97
  403e32:	jb     0x403eaa
  403e34:	gs sub eax,0x65746164
  403e3a:	and    BYTE PTR [eax],ah
  403e3c:	and    BYTE PTR [eax],ah
  403e3e:	and    BYTE PTR [eax],ah
  403e40:	and    BYTE PTR [eax],ah
  403e42:	jo     0x403eb6
  403e44:	gs jae 0x403eac
  403e47:	jb     0x403ebf
  403e49:	and    BYTE PTR gs:[ecx+0x63],ah
  403e4d:	arpl   WORD PTR [ebp+0x73],sp
  403e50:	jae    0x403e72
  403e52:	je     0x403ebd
  403e54:	ins    DWORD PTR es:[edi],dx
  403e55:	gs jae 0x403e78
  403e58:	outs   dx,DWORD PTR ds:[esi]
  403e59:	outs   dx,BYTE PTR ds:[esi]
  403e5a:	and    BYTE PTR [esi+0x69],ah
  403e5d:	ins    BYTE PTR es:[edi],dx
  403e5e:	gs jae 0x403e6b
  403e61:	add    BYTE PTR [eax],al
  403e63:	add    BYTE PTR [eax],ah
  403e65:	and    BYTE PTR ds:0x202c6325,ch
  403e6b:	sub    eax,0x7761722d
  403e70:	and    BYTE PTR [eax],ah
  403e72:	and    BYTE PTR [eax],ah
  403e74:	and    BYTE PTR [eax],ah
  403e76:	and    BYTE PTR [eax],ah
  403e78:	and    BYTE PTR [eax],ah
  403e7a:	and    BYTE PTR [eax],ah
  403e7c:	and    BYTE PTR [eax],ah
  403e7e:	and    BYTE PTR [eax],ah
  403e80:	and    BYTE PTR [eax],ah
  403e82:	outs   dx,DWORD PTR fs:[esi]
  403e84:	outs   dx,BYTE PTR ds:[esi]
  403e85:	daa    
  403e86:	je     0x403ea8
  403e88:	je     0x403efc
  403e8a:	popa   
  403e8b:	outs   dx,BYTE PTR ds:[esi]
  403e8c:	jae    0x403efa
  403e8e:	popa   
  403e8f:	je     0x403ef6
  403e91:	and    BYTE PTR [ebp+0x6e],dh
  403e94:	jo     0x403f08
  403e96:	imul   ebp,DWORD PTR [esi+0x74],0x656c6261
  403e9d:	and    BYTE PTR [ebx+0x68],ah
  403ea0:	popa   
  403ea1:	jb     0x403f16
  403ea3:	and    BYTE PTR [edi+ebp*2+0x20],dh
  403ea7:	pop    esp
  403ea8:	outs   dx,DWORD PTR ds:[esi]
  403ea9:	outs   dx,DWORD PTR ds:[esi]
  403eaa:	outs   dx,DWORD PTR ds:[esi]
  403eab:	or     al,BYTE PTR [eax]
  403ead:	add    BYTE PTR [eax],al
  403eaf:	add    BYTE PTR [eax],ah
  403eb1:	and    BYTE PTR ds:0x202c6325,ch
  403eb7:	sub    eax,0x6570732d
  403ebc:	arpl   WORD PTR [ecx+0x61],bp
  403ebf:	ins    BYTE PTR es:[edi],dx
  403ec0:	sub    eax,0x656c6966
  403ec5:	jae    0x403ee7
  403ec7:	and    BYTE PTR [eax],ah
  403ec9:	and    BYTE PTR [eax],ah
  403ecb:	and    BYTE PTR [eax],ah
  403ecd:	and    BYTE PTR [edx+esi*2+0x65],dh
  403ed1:	popa   
  403ed2:	je     0x403ef4
  403ed4:	jae    0x403f46
  403ed6:	arpl   WORD PTR gs:[ecx+0x61],bp
  403eda:	ins    BYTE PTR es:[edi],dx
  403edb:	and    BYTE PTR [eax],ch
  403edd:	bound  ebp,QWORD PTR [edi+ebp*2+0x63]
  403ee1:	imul   ebp,DWORD PTR [edi],0x63
  403ee4:	push   0x64207261
  403ee9:	gs jbe 0x403f55
  403eec:	arpl   WORD PTR [ebp+0x73],sp
  403eef:	sub    DWORD PTR [eax],esp
  403ef1:	imul   bp,WORD PTR [ebp+eiz*2+0x73],0x6120
  403ef8:	jae    0x403f04
  403efa:	and    BYTE PTR [eax],ah
  403efc:	and    BYTE PTR [eax],ah
  403efe:	and    BYTE PTR [eax],ah
  403f00:	and    BYTE PTR [eax],ah
  403f02:	and    BYTE PTR [eax],ah
  403f04:	and    BYTE PTR [eax],ah
  403f06:	and    BYTE PTR [eax],ah
  403f08:	and    BYTE PTR [eax],ah
  403f0a:	and    BYTE PTR [eax],ah
  403f0c:	and    BYTE PTR [eax],ah
  403f0e:	and    BYTE PTR [eax],ah
  403f10:	and    BYTE PTR [eax],ah
  403f12:	and    BYTE PTR [eax],ah
  403f14:	and    BYTE PTR [eax],ah
  403f16:	and    BYTE PTR [edi+0x72],ch
  403f19:	imul   ebp,DWORD PTR fs:[esi+0x61],0x6f207972
  403f21:	outs   dx,BYTE PTR ds:[esi]
  403f22:	gs jae 0x403f2f
  403f25:	add    BYTE PTR [eax],al
  403f27:	add    BYTE PTR [eax],ah
  403f29:	and    BYTE PTR ds:0x202c6325,ch
  403f2f:	sub    eax,0x6d6f632d
  403f34:	jo     0x403f9f
  403f36:	ins    BYTE PTR es:[edi],dx
  403f37:	and    BYTE PTR gs:[eax],ah
  403f3a:	and    BYTE PTR [eax],ah
  403f3c:	and    BYTE PTR [eax],ah
  403f3e:	and    BYTE PTR [eax],ah
  403f40:	and    BYTE PTR [eax],ah
  403f42:	and    BYTE PTR [eax],ah
  403f44:	and    BYTE PTR [eax],ah
  403f46:	arpl   WORD PTR [edi+0x6d],bp
  403f49:	jo     0x403fb4
  403f4b:	ins    BYTE PTR es:[edi],dx
  403f4c:	and    BYTE PTR gs:[esi+0x69],ah
  403f50:	ins    BYTE PTR es:[edi],dx
  403f51:	and    BYTE PTR gs:[ebx+0x70],dh
  403f55:	arpl   WORD PTR gs:[ecx+0x66],bp
  403f59:	imul   esp,DWORD PTR [ebp+0x64],0x20796220
  403f60:	sub    eax,0x20000a6d
  403f65:	and    BYTE PTR ds:0x202c6325,ch
  403f6b:	sub    eax,0x6265642d
  403f70:	jne    0x403fd9
  403f72:	and    BYTE PTR [eax],ah
  403f74:	and    BYTE PTR [eax],ah
  403f76:	and    BYTE PTR [eax],ah
  403f78:	and    BYTE PTR [eax],ah
  403f7a:	and    BYTE PTR [eax],ah
  403f7c:	and    BYTE PTR [eax],ah
  403f7e:	and    BYTE PTR [eax],ah
  403f80:	and    BYTE PTR [eax],ah
  403f82:	jo     0x403ff6
  403f84:	imul   ebp,DWORD PTR [esi+0x74],0x62656420
  403f8b:	jne    0x403ff4
  403f8d:	imul   ebp,DWORD PTR [bp+0x67],0x73656d20
  403f95:	jae    0x403ff8
  403f97:	addr16 gs jae 0x403fa5
  403f9b:	add    BYTE PTR [eax],al
  403f9d:	add    BYTE PTR [eax],al
  403f9f:	add    BYTE PTR [eax],al
  403fa1:	and    eax,0x69203a73
  403fa6:	ins    BYTE PTR es:[edi],dx
  403fa7:	ins    BYTE PTR es:[edi],dx
  403fa8:	gs addr16 popa 
  403fab:	ins    BYTE PTR es:[edi],dx
  403fac:	and    BYTE PTR [edi+0x70],ch
  403faf:	je     0x40401a
  403fb1:	outs   dx,DWORD PTR ds:[esi]
  403fb2:	outs   dx,BYTE PTR ds:[esi]
  403fb3:	and    BYTE PTR ds:0x6325202d,ch
  403fb9:	or     al,BYTE PTR [eax]
  403fbb:	add    BYTE PTR ds:0x6f203a73,ah
  403fc1:	jo     0x404037
  403fc3:	imul   ebp,DWORD PTR [edi+0x6e],0x71657220
  403fca:	jne    0x404035
  403fcc:	jb     0x404033
  403fce:	jae    0x403ff0
  403fd0:	popa   
  403fd1:	outs   dx,BYTE PTR ds:[esi]
  403fd2:	and    BYTE PTR [ecx+0x72],ah
  403fd5:	addr16 jne 0x404045
  403fd8:	outs   dx,BYTE PTR gs:[esi]
  403fda:	je     0x403ffc
  403fdc:	sub    eax,0x6325202d
  403fe1:	or     al,BYTE PTR [eax]
  403fe3:	and    eax,0x69203a73
  403fe8:	ins    BYTE PTR es:[edi],dx
  403fe9:	ins    BYTE PTR es:[edi],dx
  403fea:	gs addr16 popa 
  403fed:	ins    BYTE PTR es:[edi],dx
  403fee:	and    BYTE PTR [edi+0x70],ch
  403ff1:	je     0x40405c
  403ff3:	outs   dx,DWORD PTR ds:[esi]
  403ff4:	outs   dx,BYTE PTR ds:[esi]
  403ff5:	and    BYTE PTR ds:0x7325202d,ch
  403ffb:	or     al,BYTE PTR [eax]
  403ffd:	add    BYTE PTR [eax],al
  403fff:	add    BYTE PTR ds:0x6f203a73,ah
  404005:	jo     0x40407b
  404007:	imul   ebp,DWORD PTR [edi+0x6e],0x71657220
  40400e:	jne    0x404079
  404010:	jb     0x404077
  404012:	jae    0x404034
  404014:	popa   
  404015:	outs   dx,BYTE PTR ds:[esi]
  404016:	and    BYTE PTR [ecx+0x72],ah
  404019:	addr16 jne 0x404089
  40401c:	outs   dx,BYTE PTR gs:[esi]
  40401e:	je     0x404040
  404020:	sub    eax,0x7325202d
  404025:	or     al,BYTE PTR [eax]
  404027:	jae    0x404092
  404029:	ins    DWORD PTR es:[edi],dx
  40402a:	jo     0x404098
  40402c:	add    BYTE PTR gs:[eax+eax*1+0x75],dh
  404031:	add    BYTE PTR [esi+0x0],dh
  404034:	jns    0x4040af
  404036:	add    BYTE PTR [ecx+0x0],bh
  404039:	jp     0x4040b5
  40403b:	add    BYTE PTR [edx+0x7a],bh
  40403e:	jp     0x404040
  404040:	popa   
  404041:	bound  edi,QWORD PTR [edx]
  404043:	add    BYTE PTR [edx+0x6f],ah
  404046:	addr16 jne 0x4040bc
  404049:	add    BYTE PTR [eax],al
  40404b:	add    BYTE PTR ds:0x6f20752d,ch
  404051:	jo     0x4040c7
  404053:	imul   ebp,DWORD PTR [edi+0x6e],0x656f6420
  40405a:	jae    0x40407c
  40405c:	outs   dx,BYTE PTR ds:[esi]
  40405d:	outs   dx,DWORD PTR ds:[esi]
  40405e:	je     0x404080
  404060:	push   0x20657661
  404065:	bound  ebp,QWORD PTR [edi+0x67]
  404068:	jne    0x4040dd
  40406a:	and    BYTE PTR [edi+0x70],ch
  40406d:	je     0x4040d0
  40406f:	jb     0x4040d8
  404071:	add    BYTE PTR cs:[eax],al
  404074:	adc    eax,0xe3004025
  404079:	and    al,0x40
  40407b:	add    bl,ah
  40407d:	and    al,0x40
  40407f:	add    bl,ah
  404081:	and    al,0x40
  404083:	add    bl,ah
  404085:	and    al,0x40
  404087:	add    bl,ah
  404089:	and    al,0x40
  40408b:	add    bl,ah
  40408d:	and    al,0x40
  40408f:	add    bl,ah
  404091:	and    al,0x40
  404093:	add    bl,ah
  404095:	and    al,0x40
  404097:	add    bl,ah
  404099:	and    al,0x40
  40409b:	add    bl,ah
  40409d:	and    al,0x40
  40409f:	add    bl,ah
  4040a1:	and    al,0x40
  4040a3:	add    bl,ah
  4040a5:	and    al,0x40
  4040a7:	add    bl,ah
  4040a9:	and    al,0x40
  4040ab:	add    bl,ah
  4040ad:	and    al,0x40
  4040af:	add    bl,ah
  4040b1:	and    al,0x40
  4040b3:	add    bl,ah
  4040b5:	and    al,0x40
  4040b7:	add    bl,ah
  4040b9:	and    al,0x40
  4040bb:	add    bl,ah
  4040bd:	and    al,0x40
  4040bf:	add    bl,ah
  4040c1:	and    al,0x40
  4040c3:	add    bl,ah
  4040c5:	and    al,0x40
  4040c7:	add    bl,ah
  4040c9:	and    al,0x40
  4040cb:	add    bl,ah
  4040cd:	and    al,0x40
  4040cf:	add    bl,ah
  4040d1:	and    al,0x40
  4040d3:	add    bl,ah
  4040d5:	and    al,0x40
  4040d7:	add    bl,ah
  4040d9:	and    al,0x40
  4040db:	add    BYTE PTR ds:0x15004025,dl
  4040e1:	and    eax,0x25000040
  4040e6:	inc    eax
  4040e7:	add    BYTE PTR ds:0xe3004025,dl
  4040ed:	and    al,0x40
  4040ef:	add    bl,ah
  4040f1:	and    al,0x40
  4040f3:	add    BYTE PTR ds:0x15004025,dl
  4040f9:	and    eax,0x753c0040
  4040fe:	outs   dx,BYTE PTR ds:[esi]
  4040ff:	imul   ebp,DWORD PTR [esi+0x6f],0x77
  404103:	outs   dx,BYTE PTR ds:[esi]
  404104:	and    BYTE PTR [ebp+0x6f],ch
  404107:	fs jne 0x404176
  40410a:	gs cmp ah,BYTE PTR ds:[eax]
  40410e:	add    BYTE PTR [eax],al
  404110:	adc    al,BYTE PTR [eax]
  404112:	add    BYTE PTR [eax],al
  404114:	inc    ebx
  404115:	jns    0x40417e
  404117:	ja     0x404182
  404119:	outs   dx,BYTE PTR ds:[esi]
  40411a:	and    BYTE PTR [edx+0x75],dh
  40411d:	outs   dx,BYTE PTR ds:[esi]
  40411e:	je     0x404189
  404120:	ins    DWORD PTR es:[edi],dx
  404121:	and    BYTE PTR gs:[esi+0x61],ah
  404125:	imul   ebp,DWORD PTR [ebp+esi*2+0x72],0x203a65
  40412d:	add    BYTE PTR [eax],al
  40412f:	add    BYTE PTR [eax],bl
  404131:	add    BYTE PTR [eax],al
  404133:	add    BYTE PTR [edx],bh
  404135:	and    BYTE PTR [eax],al
  404137:	or     al,BYTE PTR [eax]
  404139:	add    BYTE PTR [eax],al
  40413b:	add    BYTE PTR [eax],ah
  40413d:	and    BYTE PTR [esi+0x69],dl
  404140:	jb     0x4041b6
  404142:	jne    0x4041a5
  404144:	ins    BYTE PTR es:[edi],dx
  404145:	push   ecx
  404146:	jne    0x4041ad
  404148:	jb     0x4041c3
  40414a:	and    BYTE PTR [esi+0x61],ah
  40414d:	imul   ebp,DWORD PTR [ebp+eiz*2+0x64],0x726f6620
  404155:	and    BYTE PTR ds:0x79622064,ah
  40415b:	je     0x4041c2
  40415d:	jae    0x40417f
  40415f:	popa   
  404160:	je     0x404182
  404162:	popa   
  404163:	fs fs jb 0x4041cc
  404167:	jae    0x4041dc
  404169:	and    BYTE PTR ds:0x70,ah
  40416f:	add    BYTE PTR [eax],ah
  404171:	and    BYTE PTR [ebp+0x6e],dl
  404174:	imul   ebp,DWORD PTR [esi+0x6f],0x77
  404178:	outs   dx,BYTE PTR ds:[esi]
  404179:	and    BYTE PTR [eax+0x73],dh
  40417c:	gs jne 0x4041e3
  40417f:	outs   dx,DWORD PTR ds:[esi]
  404180:	and    BYTE PTR [edx+0x65],dh
  404183:	ins    BYTE PTR es:[edi],dx
  404184:	outs   dx,DWORD PTR ds:[esi]
  404185:	arpl   WORD PTR [ecx+0x74],sp
  404188:	imul   ebp,DWORD PTR [edi+0x6e],0x74696220
  40418f:	and    BYTE PTR [ebx+0x69],dh
  404192:	jp     0x4041f9
  404194:	and    BYTE PTR ds:0xa2e64,ah
  40419a:	add    BYTE PTR [eax],al
  40419c:	and    BYTE PTR [eax],ah
  40419e:	push   ebp
  40419f:	outs   dx,BYTE PTR ds:[esi]
  4041a0:	imul   ebp,DWORD PTR [esi+0x6f],0x77
  4041a4:	outs   dx,BYTE PTR ds:[esi]
  4041a5:	and    BYTE PTR [eax+0x73],dh
  4041a8:	gs jne 0x40420f
  4041ab:	outs   dx,DWORD PTR ds:[esi]
  4041ac:	and    BYTE PTR [edx+0x65],dh
  4041af:	ins    BYTE PTR es:[edi],dx
  4041b0:	outs   dx,DWORD PTR ds:[esi]
  4041b1:	arpl   WORD PTR [ecx+0x74],sp
  4041b4:	imul   ebp,DWORD PTR [edi+0x6e],0x6f727020
  4041bb:	je     0x40422c
  4041bd:	arpl   WORD PTR [edi+0x6c],bp
  4041c0:	and    BYTE PTR [esi+0x65],dh
  4041c3:	jb     0x404238
  4041c5:	imul   ebp,DWORD PTR [edi+0x6e],0x2e642520
  4041cc:	or     al,BYTE PTR [eax]
	...

Disassembly of section .data_cy:

00405000 <.data_cy>:
  405000:	add    BYTE PTR [eax],al
	...

Disassembly of section .bss:

00406000 <.bss>:
	...

Disassembly of section .idata:

00407000 <.idata>:
  407000:	push   eax
  407001:	jo     0x407003
	...
  40700b:	add    BYTE PTR [esp+esi*2],bh
  40700e:	add    BYTE PTR [eax],al
  407010:	adc    al,0x71
  407012:	add    BYTE PTR [eax],al
  407014:	je     0x407086
	...
  40701e:	add    BYTE PTR [eax],al
  407020:	int3   
  407021:	je     0x407023
  407023:	add    BYTE PTR [eax],bh
  407025:	jno    0x407027
  407027:	add    al,bh
  407029:	jo     0x40702b
	...
  407033:	add    ah,dh
  407035:	je     0x407037
  407037:	add    BYTE PTR [ecx+esi*2+0x0],bh
	...
  40704e:	add    BYTE PTR [eax],al
  407050:	fdiv   DWORD PTR [ecx+0x0]
  407053:	add    al,ch
  407055:	jno    0x407057
  407057:	add    al,bh
  407059:	jno    0x40705b
  40705b:	add    BYTE PTR [eax],cl
  40705d:	jb     0x40705f
  40705f:	add    BYTE PTR [eax],bl
  407061:	jb     0x407063
  407063:	add    BYTE PTR [eax],ch
  407065:	jb     0x407067
  407067:	add    BYTE PTR [eax],bh
  407069:	jb     0x40706b
  40706b:	add    BYTE PTR [eax+0x72],cl
  40706e:	add    BYTE PTR [eax],al
  407070:	add    BYTE PTR [eax],al
  407072:	add    BYTE PTR [eax],al
  407074:	pop    eax
  407075:	jb     0x407077
  407077:	add    BYTE PTR [edx+0x72],ah
  40707a:	add    BYTE PTR [eax],al
  40707c:	ins    BYTE PTR es:[edi],dx
  40707d:	jb     0x40707f
  40707f:	add    BYTE PTR [edx+esi*2+0x0],dh
  407083:	add    BYTE PTR [esi+0x72],bh
  407086:	add    BYTE PTR [eax],al
  407088:	call   0x72:0xac000072
  40708f:	add    al,cl
  407091:	jb     0x407093
  407093:	add    al,dl
  407095:	jb     0x407097
  407097:	add    dl,bl
  407099:	jb     0x40709b
  40709b:	add    ah,ah
  40709d:	jb     0x40709f
  40709f:	add    ah,ch
  4070a1:	jb     0x4070a3
  4070a3:	add    ah,dh
  4070a5:	jb     0x4070a7
  4070a7:	add    dh,bh
  4070a9:	jb     0x4070ab
  4070ab:	add    BYTE PTR [esi],al
  4070ad:	jae    0x4070af
  4070af:	add    BYTE PTR [eax],dl
  4070b1:	jae    0x4070b3
  4070b3:	add    BYTE PTR [edx],bl
  4070b5:	jae    0x4070b7
  4070b7:	add    BYTE PTR [ebx+esi*2],ah
  4070ba:	add    BYTE PTR [eax],al
  4070bc:	cs jae 0x4070bf
  4070bf:	add    BYTE PTR [eax],bh
  4070c1:	jae    0x4070c3
  4070c3:	add    BYTE PTR [eax+0x73],al
  4070c6:	add    BYTE PTR [eax],al
  4070c8:	dec    eax
  4070c9:	jae    0x4070cb
  4070cb:	add    BYTE PTR [edx+0x73],dl
  4070ce:	add    BYTE PTR [eax],al
  4070d0:	pop    esp
  4070d1:	jae    0x4070d3
  4070d3:	add    BYTE PTR [eax+0x73],ch
  4070d6:	add    BYTE PTR [eax],al
  4070d8:	jb     0x40714d
  4070da:	add    BYTE PTR [eax],al
  4070dc:	jl     0x407151
  4070de:	add    BYTE PTR [eax],al
  4070e0:	mov    BYTE PTR [ebx+0x0],dh
  4070e3:	add    BYTE PTR [edx-0x63ffff8d],dl
  4070e9:	jae    0x4070eb
  4070eb:	add    BYTE PTR [esi+0x73],ah
  4070f1:	add    BYTE PTR [eax],al
  4070f3:	add    BYTE PTR [eax],al
  4070f5:	add    BYTE PTR [eax],al
  4070f7:	add    BYTE PTR [edx-0x37ffff8d],dh
  4070fd:	jae    0x4070ff
  4070ff:	add    ah,bl
  407101:	jae    0x407103
  407103:	add    ah,ch
  407105:	jae    0x407107
  407107:	add    dh,bh
  407109:	jae    0x40710b
  40710b:	add    BYTE PTR [esi],cl
  40710d:	je     0x40710f
  40710f:	add    BYTE PTR [eax],al
  407111:	add    BYTE PTR [eax],al
  407113:	add    al,bl
  407115:	jno    0x407117
  407117:	add    al,ch
  407119:	jno    0x40711b
  40711b:	add    al,bh
  40711d:	jno    0x40711f
  40711f:	add    BYTE PTR [eax],cl
  407121:	jb     0x407123
  407123:	add    BYTE PTR [eax],bl
  407125:	jb     0x407127
  407127:	add    BYTE PTR [eax],ch
  407129:	jb     0x40712b
  40712b:	add    BYTE PTR [eax],bh
  40712d:	jb     0x40712f
  40712f:	add    BYTE PTR [eax+0x72],cl
  407132:	add    BYTE PTR [eax],al
  407134:	add    BYTE PTR [eax],al
  407136:	add    BYTE PTR [eax],al
  407138:	pop    eax
  407139:	jb     0x40713b
  40713b:	add    BYTE PTR [edx+0x72],ah
  40713e:	add    BYTE PTR [eax],al
  407140:	ins    BYTE PTR es:[edi],dx
  407141:	jb     0x407143
  407143:	add    BYTE PTR [edx+esi*2+0x0],dh
  407147:	add    BYTE PTR [esi+0x72],bh
  40714a:	add    BYTE PTR [eax],al
  40714c:	call   0x72:0xac000072
  407153:	add    al,cl
  407155:	jb     0x407157
  407157:	add    al,dl
  407159:	jb     0x40715b
  40715b:	add    dl,bl
  40715d:	jb     0x40715f
  40715f:	add    ah,ah
  407161:	jb     0x407163
  407163:	add    ah,ch
  407165:	jb     0x407167
  407167:	add    ah,dh
  407169:	jb     0x40716b
  40716b:	add    dh,bh
  40716d:	jb     0x40716f
  40716f:	add    BYTE PTR [esi],al
  407171:	jae    0x407173
  407173:	add    BYTE PTR [eax],dl
  407175:	jae    0x407177
  407177:	add    BYTE PTR [edx],bl
  407179:	jae    0x40717b
  40717b:	add    BYTE PTR [ebx+esi*2],ah
  40717e:	add    BYTE PTR [eax],al
  407180:	cs jae 0x407183
  407183:	add    BYTE PTR [eax],bh
  407185:	jae    0x407187
  407187:	add    BYTE PTR [eax+0x73],al
  40718a:	add    BYTE PTR [eax],al
  40718c:	dec    eax
  40718d:	jae    0x40718f
  40718f:	add    BYTE PTR [edx+0x73],dl
  407192:	add    BYTE PTR [eax],al
  407194:	pop    esp
  407195:	jae    0x407197
  407197:	add    BYTE PTR [eax+0x73],ch
  40719a:	add    BYTE PTR [eax],al
  40719c:	jb     0x407211
  40719e:	add    BYTE PTR [eax],al
  4071a0:	jl     0x407215
  4071a2:	add    BYTE PTR [eax],al
  4071a4:	mov    BYTE PTR [ebx+0x0],dh
  4071a7:	add    BYTE PTR [edx-0x63ffff8d],dl
  4071ad:	jae    0x4071af
  4071af:	add    BYTE PTR [esi+0x73],ah
  4071b5:	add    BYTE PTR [eax],al
  4071b7:	add    BYTE PTR [eax],al
  4071b9:	add    BYTE PTR [eax],al
  4071bb:	add    BYTE PTR [edx-0x37ffff8d],dh
  4071c1:	jae    0x4071c3
  4071c3:	add    ah,bl
  4071c5:	jae    0x4071c7
  4071c7:	add    ah,ch
  4071c9:	jae    0x4071cb
  4071cb:	add    dh,bh
  4071cd:	jae    0x4071cf
  4071cf:	add    BYTE PTR [esi],cl
  4071d1:	je     0x4071d3
  4071d3:	add    BYTE PTR [eax],al
  4071d5:	add    BYTE PTR [eax],al
  4071d7:	add    BYTE PTR [ecx],al
  4071d9:	add    BYTE PTR [ebp+0x61],ch
  4071dc:	imul   esp,DWORD PTR [bp+di+0x5f],0x63656863
  4071e4:	imul   eax,DWORD PTR [eax],0x0
  4071e7:	add    BYTE PTR [edx],al
  4071e9:	add    BYTE PTR [ebp+0x61],ch
  4071ec:	imul   esp,DWORD PTR [bp+di+0x5f],0x736f6c63
  4071f4:	add    BYTE PTR gs:[eax],al
  4071f7:	add    BYTE PTR [ebx],al
  4071f9:	add    BYTE PTR [ebp+0x61],ch
  4071fc:	imul   esp,DWORD PTR [bp+di+0x5f],0x706d6f63
  407204:	imul   ebp,DWORD PTR [ebp+eiz*2+0x0],0x616d0006
  40720c:	imul   esp,DWORD PTR [bp+di+0x5f],0x6f727265
  407214:	jb     0x407216
  407216:	add    BYTE PTR [eax],al
  407218:	pop    es
  407219:	add    BYTE PTR [ebp+0x61],ch
  40721c:	imul   esp,DWORD PTR [bp+di+0x5f],0x656c6966
  407224:	add    BYTE PTR [eax],al
  407226:	add    BYTE PTR [eax],al
  407228:	or     BYTE PTR [eax],al
  40722a:	ins    DWORD PTR es:[edi],dx
  40722b:	popa   
  40722c:	imul   esp,DWORD PTR [bp+di+0x5f],0x70746567
  407234:	popa   
  407235:	je     0x40729f
  407237:	add    BYTE PTR [ecx],cl
  407239:	add    BYTE PTR [ebp+0x61],ch
  40723c:	imul   esp,DWORD PTR [bp+di+0x5f],0x64616f6c
  407244:	add    BYTE PTR [eax],al
  407246:	add    BYTE PTR [eax],al
  407248:	or     al,BYTE PTR [eax]
  40724a:	ins    DWORD PTR es:[edi],dx
  40724b:	popa   
  40724c:	imul   esp,DWORD PTR [bp+di+0x5f],0x6e65706f
  407254:	add    BYTE PTR [eax],al
  407256:	add    BYTE PTR [eax],al
  407258:	or     DWORD PTR [eax],eax
  40725a:	pop    edi
  40725b:	pop    edi
  40725c:	gs jb  0x4072d1
  40725f:	outs   dx,BYTE PTR ds:[esi]
  407260:	outs   dx,DWORD PTR ds:[esi]
  407261:	add    BYTE PTR [ebx],bl
  407263:	add    BYTE PTR [edi+0x5f],bl
  407266:	ins    DWORD PTR es:[edi],dx
  407267:	popa   
  407268:	imul   ebp,DWORD PTR [esi+0x0],0x61021400
  40726f:	bound  ebp,QWORD PTR [edi+0x72]
  407272:	je     0x407274
  407274:	aas    
  407275:	add    ah,BYTE PTR [ebx+0x61]
  407278:	ins    BYTE PTR es:[edi],dx
  407279:	ins    BYTE PTR es:[edi],dx
  40727a:	outs   dx,DWORD PTR ds:[esi]
  40727b:	arpl   WORD PTR [eax],ax
  40727d:	add    BYTE PTR [edi+0x2],ch
  407280:	arpl   WORD PTR [ecx+0x67],di
  407283:	ja     0x4072ee
  407285:	outs   dx,BYTE PTR ds:[esi]
  407286:	pop    edi
  407287:	arpl   WORD PTR [edi+0x6e],bp
  40728a:	jbe    0x4072eb
  40728c:	je     0x4072fd
  40728e:	pop    edi
  40728f:	jo     0x407300
  407291:	jae    0x4072fc
  407293:	js     0x4072f4
  407295:	jo     0x4072f8
  407297:	je     0x407301
  407299:	add    BYTE PTR [ecx+0x2],dh
  40729c:	arpl   WORD PTR [ecx+0x67],di
  40729f:	ja     0x40730a
  4072a1:	outs   dx,BYTE PTR ds:[esi]
  4072a2:	pop    edi
  4072a3:	imul   ebp,DWORD PTR [esi+0x74],0x616e7265
  4072aa:	ins    BYTE PTR es:[edi],dx
  4072ab:	add    BYTE PTR [ebx+0x6c6c6402],al
  4072b1:	pop    edi
  4072b2:	arpl   WORD PTR [edx+0x74],si
  4072b5:	xor    BYTE PTR [edi+0x5f],bl
  4072b8:	inc    esi
  4072b9:	push   eax
  4072ba:	xor    DWORD PTR [ecx],esi
  4072bc:	jo     0x407323
  4072be:	jb     0x40731f
  4072c0:	jo     0x407334
  4072c2:	outs   dx,DWORD PTR ds:[esi]
  4072c3:	arpl   WORD PTR [ebp+0x73],sp
  4072c6:	jae    0x4072c8
  4072c8:	mov    al,ds:0x69786502
  4072cd:	je     0x4072cf
  4072cf:	add    BYTE PTR [ebx+0x6c636602],ch
  4072d5:	outs   dx,DWORD PTR ds:[esi]
  4072d6:	jae    0x40733d
  4072d8:	add    BYTE PTR [eax],al
  4072da:	mov    bl,0x2
  4072dc:	data16 data16 ins BYTE PTR es:[edi],dx
  4072df:	jne    0x407354
  4072e1:	push   0x2b70000
  4072e6:	data16 addr16 gs je 0x40735e
  4072eb:	add    al,al
  4072ed:	add    ah,BYTE PTR [esi+0x6f]
  4072f0:	jo     0x407357
  4072f2:	outs   dx,BYTE PTR ds:[esi]
  4072f3:	add    bl,al
  4072f5:	add    ah,BYTE PTR [esi+0x70]
  4072f8:	jb     0x407363
  4072fa:	outs   dx,BYTE PTR ds:[esi]
  4072fb:	je     0x407363
  4072fd:	add    bh,al
  4072ff:	add    ah,BYTE PTR [esi+0x72]
  407302:	gs add BYTE PTR gs:[eax],al
  407306:	aad    0x2
  407308:	data16 ja 0x40737d
  40730b:	imul   esi,DWORD PTR [ebp+eiz*2+0x0],0x6702e300
  407313:	gs je  0x40737b
  407316:	outs   dx,BYTE PTR ds:[esi]
  407317:	jbe    0x407319
  407319:	add    BYTE PTR [esi+0x3],bl
  40731c:	ins    DWORD PTR es:[edi],dx
  40731d:	popa   
  40731e:	ins    BYTE PTR es:[edi],dx
  40731f:	ins    BYTE PTR es:[edi],dx
  407320:	outs   dx,DWORD PTR ds:[esi]
  407321:	arpl   WORD PTR [eax],ax
  407323:	add    BYTE PTR [esi+0x3],ah
  407326:	ins    DWORD PTR es:[edi],dx
  407327:	gs ins DWORD PTR es:[edi],dx
  407329:	arpl   WORD PTR [eax+0x79],si
  40732c:	add    BYTE PTR [eax],al
  40732e:	lea    eax,[ebx]
  407330:	jo     0x4073a4
  407332:	imul   ebp,DWORD PTR [esi+0x74],0xd0000066
  407339:	add    esi,DWORD PTR [eax+0x75]
  40733c:	je     0x4073a1
  40733e:	add    BYTE PTR [eax],al
  407340:	rol    DWORD PTR [ebx],cl
  407342:	jo     0x4073b9
  407344:	je     0x4073b9
  407346:	add    BYTE PTR [eax],al
  407348:	fiadd  WORD PTR [ebx]
  40734a:	jb     0x4073b1
  40734c:	popa   
  40734d:	ins    BYTE PTR es:[edi],dx
  40734e:	ins    BYTE PTR es:[edi],dx
  40734f:	outs   dx,DWORD PTR ds:[esi]
  407350:	arpl   WORD PTR [eax],ax
  407352:	in     al,dx
  407353:	add    esi,DWORD PTR [edx+0x65]
  407356:	ja     0x4073c1
  407358:	outs   dx,BYTE PTR ds:[esi]
  407359:	add    BYTE PTR fs:[eax],al
  40735c:	sbb    BYTE PTR [ebx+esi*2],al
  40735f:	gs je  0x4073ce
  407362:	outs   dx,DWORD PTR ds:[esi]
  407363:	arpl   WORD PTR [ecx+0x6c],sp
  407366:	add    BYTE PTR gs:[ebx+0x4],bl
  40736a:	jae    0x4073e0
  40736c:	jb     0x4073d1
  40736e:	ins    DWORD PTR es:[edi],dx
  40736f:	jo     0x407371
  407371:	add    BYTE PTR [esi+0x4],bl
  407374:	jae    0x4073ea
  407376:	jb     0x4073db
  407378:	jae    0x4073ea
  40737a:	outs   dx,BYTE PTR ds:[esi]
  40737b:	add    BYTE PTR [eax+0x4],ah
  40737e:	jae    0x4073f4
  407380:	jb     0x4073e7
  407382:	jb     0x4073f6
  407384:	outs   dx,DWORD PTR ds:[esi]
  407385:	jb     0x407387
  407387:	add    BYTE PTR [edx+0x4],ah
  40738a:	jae    0x407400
  40738c:	jb     0x4073fa
  40738e:	outs   dx,BYTE PTR gs:[esi]
  407390:	add    BYTE PTR [eax],al
  407392:	data16 add al,0x73
  407395:	je     0x407409
  407397:	outs   dx,BYTE PTR ds:[esi]
  407398:	arpl   WORD PTR [ebp+0x70],bp
  40739b:	add    BYTE PTR [ecx+0x4],ch
  40739e:	jae    0x407414
  4073a0:	jb     0x407414
  4073a2:	arpl   WORD PTR [eax+0x72],bp
  4073a5:	add    BYTE PTR [esp+eax*1+0x706e7376],ch
  4073ac:	jb     0x407417
  4073ae:	outs   dx,BYTE PTR ds:[esi]
  4073af:	je     0x407417
  4073b1:	add    BYTE PTR [edi+0x1],cl
  4073b4:	inc    edi
  4073b5:	gs je  0x407405
  4073b8:	outs   dx,DWORD PTR ds:[esi]
  4073b9:	fs jne 0x407428
  4073bc:	gs inc esi
  4073be:	imul   ebp,DWORD PTR [ebp+eiz*2+0x4e],0x41656d61
  4073c6:	add    BYTE PTR [eax],al
  4073c8:	push   ecx
  4073c9:	add    DWORD PTR [edi+0x65],eax
  4073cc:	je     0x40741b
  4073ce:	outs   dx,DWORD PTR ds:[esi]
  4073cf:	fs jne 0x40743e
  4073d2:	gs dec eax
  4073d4:	popa   
  4073d5:	outs   dx,BYTE PTR ds:[esi]
  4073d6:	fs ins BYTE PTR es:[edi],dx
  4073d8:	gs inc ecx
  4073da:	add    BYTE PTR [eax],al
  4073dc:	test   BYTE PTR [ecx],al
  4073de:	inc    edi
  4073df:	gs je  0x407435
  4073e2:	je     0x407448
  4073e4:	dec    eax
  4073e5:	popa   
  4073e6:	outs   dx,BYTE PTR ds:[esi]
  4073e7:	fs ins BYTE PTR es:[edi],dx
  4073e9:	add    BYTE PTR gs:[eax],al
  4073ec:	push   ds
  4073ed:	add    edx,DWORD PTR [esi+0x69]
  4073f0:	jb     0x407466
  4073f2:	jne    0x407455
  4073f4:	ins    BYTE PTR es:[edi],dx
  4073f5:	push   eax
  4073f6:	jb     0x407467
  4073f8:	je     0x40745f
  4073fa:	arpl   WORD PTR [eax+eax*1+0x0],si
  4073fe:	and    DWORD PTR [ebx],eax
  407400:	push   esi
  407401:	imul   esi,DWORD PTR [edx+0x74],0x516c6175
  407408:	jne    0x40746f
  40740a:	jb     0x407485
  40740c:	add    BYTE PTR [eax],al
  40740e:	cmp    eax,DWORD PTR [ebx]
  407410:	push   edi
  407411:	jb     0x40747c
  407413:	je     0x40747a
  407415:	inc    esi
  407416:	imul   ebp,DWORD PTR [ebp+eiz*2+0x0],0x70000000
  40741e:	add    BYTE PTR [eax],al
  407420:	add    BYTE PTR [eax+0x0],dh
  407423:	add    BYTE PTR [eax],al
  407425:	jo     0x407427
  407427:	add    BYTE PTR [eax],al
  407429:	jo     0x40742b
  40742b:	add    BYTE PTR [eax],al
  40742d:	jo     0x40742f
  40742f:	add    BYTE PTR [eax],al
  407431:	jo     0x407433
  407433:	add    BYTE PTR [eax],al
  407435:	jo     0x407437
  407437:	add    BYTE PTR [eax],al
  407439:	jo     0x40743b
  40743b:	add    BYTE PTR [ebp+0x73],ch
  40743e:	jns    0x4074b3
  407440:	sub    eax,0x6967616d
  407445:	arpl   WORD PTR ds:0x6c642e31,bp
  40744b:	ins    BYTE PTR es:[edi],dx
  40744c:	add    BYTE PTR [eax],al
  40744e:	add    BYTE PTR [eax],al
  407450:	adc    al,0x70
  407452:	add    BYTE PTR [eax],al
  407454:	adc    al,0x70
  407456:	add    BYTE PTR [eax],al
  407458:	adc    al,0x70
  40745a:	add    BYTE PTR [eax],al
  40745c:	adc    al,0x70
  40745e:	add    BYTE PTR [eax],al
  407460:	adc    al,0x70
  407462:	add    BYTE PTR [eax],al
  407464:	adc    al,0x70
  407466:	add    BYTE PTR [eax],al
  407468:	adc    al,0x70
  40746a:	add    BYTE PTR [eax],al
  40746c:	adc    al,0x70
  40746e:	add    BYTE PTR [eax],al
  407470:	adc    al,0x70
  407472:	add    BYTE PTR [eax],al
  407474:	adc    al,0x70
  407476:	add    BYTE PTR [eax],al
  407478:	adc    al,0x70
  40747a:	add    BYTE PTR [eax],al
  40747c:	adc    al,0x70
  40747e:	add    BYTE PTR [eax],al
  407480:	adc    al,0x70
  407482:	add    BYTE PTR [eax],al
  407484:	adc    al,0x70
  407486:	add    BYTE PTR [eax],al
  407488:	adc    al,0x70
  40748a:	add    BYTE PTR [eax],al
  40748c:	adc    al,0x70
  40748e:	add    BYTE PTR [eax],al
  407490:	adc    al,0x70
  407492:	add    BYTE PTR [eax],al
  407494:	adc    al,0x70
  407496:	add    BYTE PTR [eax],al
  407498:	adc    al,0x70
  40749a:	add    BYTE PTR [eax],al
  40749c:	adc    al,0x70
  40749e:	add    BYTE PTR [eax],al
  4074a0:	adc    al,0x70
  4074a2:	add    BYTE PTR [eax],al
  4074a4:	adc    al,0x70
  4074a6:	add    BYTE PTR [eax],al
  4074a8:	adc    al,0x70
  4074aa:	add    BYTE PTR [eax],al
  4074ac:	adc    al,0x70
  4074ae:	add    BYTE PTR [eax],al
  4074b0:	adc    al,0x70
  4074b2:	add    BYTE PTR [eax],al
  4074b4:	adc    al,0x70
  4074b6:	add    BYTE PTR [eax],al
  4074b8:	adc    al,0x70
  4074ba:	add    BYTE PTR [eax],al
  4074bc:	adc    al,0x70
  4074be:	add    BYTE PTR [eax],al
  4074c0:	adc    al,0x70
  4074c2:	add    BYTE PTR [eax],al
  4074c4:	adc    al,0x70
  4074c6:	add    BYTE PTR [eax],al
  4074c8:	adc    al,0x70
  4074ca:	add    BYTE PTR [eax],al
  4074cc:	ins    DWORD PTR es:[edi],dx
  4074cd:	jae    0x407548
  4074cf:	jae    0x4074fe
  4074d1:	xor    DWORD PTR [esi],ebp
  4074d3:	xor    BYTE PTR [esi],ch
  4074d5:	fs ins BYTE PTR es:[edi],dx
  4074d7:	ins    BYTE PTR es:[edi],dx
  4074d8:	add    BYTE PTR [eax],al
  4074da:	add    BYTE PTR [eax],al
  4074dc:	sub    BYTE PTR [eax+0x0],dh
  4074df:	add    BYTE PTR [eax],ch
  4074e1:	jo     0x4074e3
  4074e3:	add    BYTE PTR [eax],ch
  4074e5:	jo     0x4074e7
  4074e7:	add    BYTE PTR [eax],ch
  4074e9:	jo     0x4074eb
  4074eb:	add    BYTE PTR [eax],ch
  4074ed:	jo     0x4074ef
  4074ef:	add    BYTE PTR [eax],ch
  4074f1:	jo     0x4074f3
  4074f3:	add    BYTE PTR [ebx+0x45],cl
  4074f6:	push   edx
  4074f7:	dec    esi
  4074f8:	inc    ebp
  4074f9:	dec    esp
  4074fa:	xor    esi,DWORD PTR [edx]
  4074fc:	cs fs ins BYTE PTR es:[edi],dx
  4074ff:	ins    BYTE PTR es:[edi],dx
  407500:	add    BYTE PTR [eax],al
	...
