
44f4cc87b43e3add1d1b9b75f1e4e3b5b0db549349c0f554ff28eaa0312c96ab.exe:     file format pei-i386


Disassembly of section .text:

00402000 <.text>:
  402000:	and    BYTE PTR [edx+0x0],bl
  402003:	add    BYTE PTR [eax],al
  402005:	add    BYTE PTR [eax],al
  402007:	add    BYTE PTR [eax+0x0],cl
  40200a:	add    BYTE PTR [eax],al
  40200c:	add    al,BYTE PTR [eax]
  40200e:	add    eax,0x2b7400
  402013:	add    BYTE PTR [ebp*1+0xb0000],bh
  40201a:	add    BYTE PTR [eax],al
  40201c:	aaa    
  40201d:	add    BYTE PTR [eax],al
  40201f:	push   es
	...
  402028:	push   eax
  402029:	and    BYTE PTR [eax],al
  40202b:	add    BYTE PTR [eax],al
  40202d:	add    DWORD PTR [eax],eax
	...
  40204f:	add    BYTE PTR [ebx-0x230cc825],dl
  402055:	cmps   DWORD PTR ds:[esi],DWORD PTR es:[edi]
  402056:	mov    esi,0xf62422d1
  40205b:	xor    dh,ah
  40205d:	mov    ebx,DWORD PTR [esi]
  40205f:	lds    esp,FWORD PTR [esi-0x140f845d]
  402065:	push   edx
  402066:	mov    ds:0x92fd51cf,al
  40206b:	pop    eax
  40206c:	retf   
  40206d:	sub    BYTE PTR [eax],dl
  40206f:	mov    dl,0x56
  402071:	sbb    BYTE PTR ds:0xe79abfeb,ch
  402077:	or     al,0x9c
  402079:	mov    esi,edi
  40207b:	cmp    BYTE PTR [eax+0x8a9b563],ah
  402081:	pop    ds
  402082:	jg     0x40207e
  402084:	popa   
  402085:	clc    
  402086:	push   esp
  402087:	in     al,dx
  402088:	es pop esp
  40208a:	scas   eax,DWORD PTR es:[edi]
  40208b:	add    al,0xdc
  40208d:	call   DWORD PTR [ebx]
  40208f:	pop    edx
  402090:	pop    esi
  402091:	retf   
  402092:	adc    BYTE PTR [esi+0x65],bh
  402095:	dec    esp
  402096:	pop    edi
  402097:	fwait
  402098:	push   ebp
  402099:	dec    esp
  40209a:	and    edi,eax
  40209c:	mov    ebp,0x52e0370b
  4020a1:	mov    ds:0x7bf75360,eax
  4020a6:	mov    eax,ecx
  4020a8:	push   eax
  4020a9:	pop    ss
  4020aa:	xor    DWORD PTR [ebx-0x699db1f3],edi
  4020b0:	cmp    al,0xb
  4020b2:	add    eax,0xebca8d18
  4020b7:	xor    dh,dh
  4020b9:	jg     0x402093
  4020bb:	in     al,dx
  4020bc:	mov    ds:0x832f54c8,eax
  4020c1:	push   edi
  4020c2:	sub    bh,ah
  4020c4:	cmp    ah,bl
  4020c6:	sbb    dl,BYTE PTR [esp+edx*8]
  4020c9:	ror    ch,1
  4020cb:	jmp    0x1e6a317d
  4020d0:	rcl    BYTE PTR [ecx],1
  4020d2:	fisub  WORD PTR [ecx+0x21]
  4020d5:	dec    ebx
  4020d6:	lods   al,BYTE PTR ds:[esi]
  4020d7:	or     eax,0xa6b1d5ab
  4020dc:	aas    
  4020dd:	xor    BYTE PTR [ebx],dh
  4020df:	bound  eax,QWORD PTR [esi+0x14579146]
  4020e5:	mov    ebx,0x852526d5
  4020ea:	mov    ah,0xf4
  4020ec:	lods   al,BYTE PTR ds:[esi]
  4020ed:	call   0xf787:0xe1f3bf6c
  4020f4:	jl     0x402116
  4020f6:	mov    eax,ds:0xcb3b4af3
  4020fb:	cdq    
  4020fc:	test   DWORD PTR [ecx+0x5d],esi
  4020ff:	jo     0x4020df
  402101:	dec    ecx
  402102:	mov    BYTE PTR [ecx+edi*4-0x78],ch
  402106:	sbb    edi,DWORD PTR [ebx-0xf]
  402109:	pop    ss
  40210a:	sub    esi,ebx
  40210c:	sub    DWORD PTR [esi-0x56],eax
  40210f:	xchg   esi,eax
  402110:	shr    BYTE PTR [ebx],0x5e
  402113:	sar    BYTE PTR [edx],0xd2
  402116:	ud2    
  402118:	jnp    0x40215e
  40211a:	lods   eax,DWORD PTR fs:[esi]
  40211c:	jmp    0x1e0e:0x65d63fc3
  402123:	stos   BYTE PTR es:[edi],al
  402124:	xchg   BYTE PTR [ecx-0x4df369bd],dl
  40212a:	iret   
  40212b:	pop    ss
  40212c:	cli    
  40212d:	xchg   DWORD PTR [ebx+ebx*4+0x1c],ebp
  402131:	daa    
  402132:	test   DWORD PTR [edi+0x53b87c03],esi
  402138:	xchg   ebp,eax
  402139:	movs   DWORD PTR es:[edi],DWORD PTR ds:[esi]
  40213a:	or     al,0x45
  40213c:	mov    ebx,0xe7c83ed4
  402141:	mov    dl,0xdb
  402143:	stos   DWORD PTR es:[edi],eax
  402144:	out    0x11,eax
  402146:	lds    esi,FWORD PTR [ebx-0x60530359]
  40214c:	or     al,0x8f
  40214e:	rcr    DWORD PTR [ebp+0x157302ca],1
  402154:	add    BYTE PTR [eax],al
  402156:	or     bh,BYTE PTR [ebp+0x1]
  402159:	add    BYTE PTR [eax],al
  40215b:	add    al,0x2
  40215d:	jae    0x402175
  40215f:	add    BYTE PTR [eax],al
  402161:	or     bh,BYTE PTR [ebp+0x2]
  402164:	add    BYTE PTR [eax],al
  402166:	add    al,0x2
  402168:	sub    BYTE PTR [edi],dl
  40216a:	add    BYTE PTR [eax],al
  40216c:	or     al,BYTE PTR [ebx]
  40216e:	sub    eax,0x1720b
  402173:	add    BYTE PTR [eax+0x73],dh
  402176:	sbb    BYTE PTR [eax],al
  402178:	add    BYTE PTR [edx],cl
  40217a:	jp     0x40217e
  40217c:	add    edi,DWORD PTR [ebp+0x3]
  40217f:	add    BYTE PTR [eax],al
  402181:	add    al,0x2a
  402183:	add    BYTE PTR [ebx],dl
  402185:	xor    BYTE PTR [ebx],al
  402187:	add    BYTE PTR [esi],dh
  402189:	add    BYTE PTR [eax],al
  40218b:	add    BYTE PTR [ecx],al
  40218d:	add    BYTE PTR [eax],al
  40218f:	adc    DWORD PTR [ebx],eax
  402191:	sub    BYTE PTR [ecx],bl
  402193:	add    BYTE PTR [eax],al
  402195:	or     ch,BYTE PTR [edx+eax*1]
  402198:	adc    al,0x2a
  40219a:	adc    al,0xa
  40219c:	add    bh,BYTE PTR [ebx+0x1]
  40219f:	add    BYTE PTR [eax],al
  4021a1:	add    al,0x3
  4021a3:	adc    al,BYTE PTR [eax]
  4021a5:	outs   dx,DWORD PTR ds:[esi]
  4021a6:	sbb    al,BYTE PTR [eax]
  4021a8:	add    BYTE PTR [edx],cl
  4021aa:	sub    eax,0x28030218
  4021af:	add    al,0x0
  4021b1:	add    BYTE PTR [esi],al
  4021b3:	or     al,BYTE PTR [esi]
  4021b5:	sub    al,0xd
  4021b7:	add    bh,BYTE PTR [ebx+0x1]
  4021ba:	add    BYTE PTR [eax],al
  4021bc:	add    al,0x3
  4021be:	push   es
  4021bf:	outs   dx,DWORD PTR ds:[esi]
  4021c0:	sbb    eax,DWORD PTR [eax]
  4021c2:	add    BYTE PTR [edx],cl
  4021c4:	push   es
  4021c5:	sub    al,BYTE PTR [eax]
  4021c7:	add    BYTE PTR [ebx],dl
  4021c9:	xor    BYTE PTR [ebx],al
  4021cb:	add    BYTE PTR [edi],dh
  4021cd:	add    BYTE PTR [eax],al
  4021cf:	add    BYTE PTR [edx],al
  4021d1:	add    BYTE PTR [eax],al
  4021d3:	adc    DWORD PTR [eax+ebp*1],eax
  4021d6:	sbb    DWORD PTR [eax],eax
  4021d8:	add    BYTE PTR [edx],cl
  4021da:	sub    al,0x2
  4021dc:	adc    al,0x2a
  4021de:	adc    al,0xa
  4021e0:	add    bh,BYTE PTR [ebx+0x2]
  4021e3:	add    BYTE PTR [eax],al
  4021e5:	add    al,0x4
  4021e7:	adc    al,BYTE PTR [eax]
  4021e9:	outs   dx,DWORD PTR ds:[esi]
  4021ea:	sbb    al,0x0
  4021ec:	add    BYTE PTR [edx],cl
  4021ee:	sub    eax,0x4030219
  4021f3:	sub    BYTE PTR [esi],al
  4021f5:	add    BYTE PTR [eax],al
  4021f7:	push   es
  4021f8:	or     al,BYTE PTR [esi]
  4021fa:	sub    al,0xd
  4021fc:	add    bh,BYTE PTR [ebx+0x2]
  4021ff:	add    BYTE PTR [eax],al
  402201:	add    al,0x4
  402203:	push   es
  402204:	outs   dx,DWORD PTR ds:[esi]
  402205:	sbb    eax,0x60a0000
  40220a:	sub    al,BYTE PTR [eax]
  40220c:	adc    esi,DWORD PTR [eax]
  40220e:	add    eax,0x5a00
  402213:	add    BYTE PTR [ebx],al
  402215:	add    BYTE PTR [eax],al
  402217:	adc    DWORD PTR [ebx],eax
  402219:	sub    BYTE PTR [esi],bl
  40221b:	add    BYTE PTR [eax],al
  40221d:	or     cl,BYTE PTR [edx]
  40221f:	push   es
  402220:	adc    al,0x28
  402222:	pop    ds
  402223:	add    BYTE PTR [eax],al
  402225:	or     ch,BYTE PTR [esp+edx*1]
  402228:	add    edx,DWORD PTR [edx+eax*1]
  40222b:	inc    BYTE PTR [esi]
  40222d:	add    eax,0x73060000
  402232:	and    BYTE PTR [eax],al
  402234:	add    BYTE PTR [edx],cl
  402236:	sub    BYTE PTR [ecx],ah
  402238:	add    BYTE PTR [eax],al
  40223a:	or     cl,BYTE PTR [edx]
  40223c:	push   es
  40223d:	adc    al,0x28
  40223f:	pop    ds
  402240:	add    BYTE PTR [eax],al
  402242:	or     ch,BYTE PTR [edx+eax*1]
  402245:	adc    al,0x2a
  402247:	add    al,BYTE PTR [esi]
  402249:	sub    BYTE PTR [edi],al
  40224b:	add    BYTE PTR [eax],al
  40224d:	push   es
  40224e:	sub    al,0x8
  402250:	add    eax,DWORD PTR [esi]
  402252:	jae    0x40225c
  402254:	add    BYTE PTR [eax],al
  402256:	push   es
  402257:	sub    al,BYTE PTR [edx]
  402259:	add    eax,DWORD PTR [esi]
  40225b:	add    al,BYTE PTR [esi]
  40225d:	outs   dx,DWORD PTR ds:[esi]
  40225e:	and    al,BYTE PTR [eax]
  402260:	add    BYTE PTR [edx],cl
  402262:	outs   dx,DWORD PTR ds:[esi]
  402263:	and    eax,DWORD PTR [eax]
  402265:	add    BYTE PTR [edx],cl
  402267:	sub    BYTE PTR [edx],al
  402269:	add    BYTE PTR [eax],al
  40226b:	push   es
  40226c:	jae    0x40228b
  40226e:	add    BYTE PTR [eax],al
  402270:	push   es
  402271:	sub    al,BYTE PTR [eax]
  402273:	add    BYTE PTR [ebx],bl
  402275:	xor    BYTE PTR ds:0xa200,al
  40227b:	add    BYTE PTR [eax+eax*1],al
  40227e:	add    BYTE PTR [ecx],dl
  402280:	sub    BYTE PTR [eax+eax*1],ah
  402283:	add    BYTE PTR [edx],cl
  402285:	jb     0x4022a6
  402287:	add    BYTE PTR [eax],al
  402289:	jo     0x4022a2
  40228b:	lea    eax,[ecx]
  40228d:	add    BYTE PTR [eax],al
  40228f:	add    DWORD PTR ds:0xa2041609,ecx
  402295:	or     DWORD PTR [eax],ebp
  402297:	and    eax,0x280a0000
  40229c:	push   ds
  40229d:	add    BYTE PTR [eax],al
  40229f:	or     cl,BYTE PTR [edx]
  4022a1:	adc    al,0x6
  4022a3:	sub    BYTE PTR [esi],ah
  4022a5:	add    BYTE PTR [eax],al
  4022a7:	or     ch,BYTE PTR [esp+eax*1]
  4022aa:	push   es
  4022ab:	or     al,0xde
  4022ad:	jb     0x40228d
  4022af:	add    esp,DWORD PTR [esi]
  4022b1:	fiadd  WORD PTR [eax]
  4022b3:	add    bh,BYTE PTR [ebx+0x3]
  4022b6:	add    BYTE PTR [eax],al
  4022b8:	add    al,0x6f
  4022ba:	daa    
  4022bb:	add    BYTE PTR [eax],al
  4022bd:	or     dl,BYTE PTR [ebx]
  4022bf:	add    al,0x2b
  4022c1:	inc    ebx
  4022c2:	adc    al,BYTE PTR [eax+ebp*1]
  4022c5:	sub    BYTE PTR [eax],al
  4022c7:	add    BYTE PTR [edx],cl
  4022c9:	or     ebp,DWORD PTR [eax]
  4022cb:	and    al,0x0
  4022cd:	add    BYTE PTR [edx],cl
  4022cf:	jb     0x402252
  4022d1:	add    BYTE PTR [eax],al
  4022d3:	jo     0x4022ed
  4022d5:	lea    eax,[ecx]
  4022d7:	add    BYTE PTR [eax],al
  4022d9:	add    DWORD PTR [ebx],edx
  4022db:	add    eax,0x4160511
  4022e0:	mov    ds:0x7170511,al
  4022e5:	mov    ds:0x25280511,al
  4022ea:	add    BYTE PTR [eax],al
  4022ec:	or     ch,BYTE PTR [eax]
  4022ee:	push   ds
  4022ef:	add    BYTE PTR [eax],al
  4022f1:	or     cl,BYTE PTR [edx]
  4022f3:	push   es
  4022f4:	adc    al,0x28
  4022f6:	add    BYTE PTR es:[eax],al
  4022f9:	or     ch,BYTE PTR [esp+eax*1]
  4022fc:	push   es
  4022fd:	or     al,0xde
  4022ff:	and    dh,bl
  402301:	add    esp,DWORD PTR [esi]
  402303:	fiadd  WORD PTR [eax]
  402305:	adc    al,BYTE PTR [eax+ebp*1]
  402308:	sub    DWORD PTR [eax],eax
  40230a:	add    BYTE PTR [edx],cl
  40230c:	sub    eax,0x120edeb4
  402311:	add    al,0xfe
  402313:	push   ss
  402314:	add    eax,0x6f1b0000
  402319:	sub    al,BYTE PTR [eax]
  40231b:	add    BYTE PTR [edx],cl
  40231d:	fcom   QWORD PTR [edx+ebp*1]
  402320:	or     BYTE PTR [edx],ch
  402322:	add    BYTE PTR [eax],al
  402324:	add    DWORD PTR [eax],ebp
  402326:	add    BYTE PTR [eax],al
  402328:	add    BYTE PTR [eax],al
  40232a:	add    BYTE PTR [eax],al
  40232c:	xor    BYTE PTR [eax],dh
  40232e:	add    BYTE PTR [ebx],al
  402330:	das    
  402331:	add    BYTE PTR [eax],al
  402333:	add    DWORD PTR [eax],eax
  402335:	add    BYTE PTR [edx+0x0],cl
  402338:	cmp    BYTE PTR [edx+0x2f0300],al
  40233e:	add    BYTE PTR [ecx],al
  402340:	add    al,BYTE PTR [eax]
  402342:	inc    eax
  402343:	add    BYTE PTR [eax-0x70],dl
  402346:	add    BYTE PTR [esi],cl
  402348:	add    BYTE PTR [eax],al
  40234a:	add    BYTE PTR [eax],al
  40234c:	jb     0x402351
  40234e:	adc    al,0x28
  402350:	pop    ds
  402351:	add    BYTE PTR [eax],al
  402353:	or     ch,BYTE PTR ds:0x19280408
  402359:	add    BYTE PTR [eax],al
  40235b:	or     ch,BYTE PTR [edx+eax*1]
  40235e:	adc    al,0x2a
  402360:	add    al,BYTE PTR [ebx+eax*1]
  402363:	jae    0x402393
  402365:	add    BYTE PTR [eax],al
  402367:	push   es
  402368:	sub    al,BYTE PTR [eax]
  40236a:	add    BYTE PTR [eax],al
  40236c:	adc    esi,DWORD PTR [eax]
  40236e:	add    eax,DWORD PTR [eax]
  402370:	xor    al,BYTE PTR [eax]
  402372:	add    BYTE PTR [eax],al
  402374:	add    eax,0x3110000
  402379:	outs   dx,DWORD PTR ds:[esi]
  40237a:	sub    eax,DWORD PTR [eax]
  40237c:	add    BYTE PTR [edx],cl
  40237e:	or     al,BYTE PTR [esi]
  402380:	jb     0x402315
  402382:	add    BYTE PTR [eax],al
  402384:	jo     0x40239f
  402386:	outs   dx,DWORD PTR ds:[esi]
  402387:	sub    al,0x0
  402389:	add    BYTE PTR [edx],cl
  40238b:	sub    eax,0xb372061b
  402390:	add    BYTE PTR [eax],al
  402392:	jo     0x4023ad
  402394:	outs   dx,DWORD PTR ds:[esi]
  402395:	sub    al,0x0
  402397:	add    BYTE PTR [edx],cl
  402399:	sub    eax,0xd972060d
  40239e:	add    BYTE PTR [eax],al
  4023a0:	jo     0x4023bb
  4023a2:	outs   dx,DWORD PTR ds:[esi]
  4023a3:	sub    al,0x0
  4023a5:	add    BYTE PTR [edx],cl
  4023a7:	sub    dl,BYTE PTR [edi]
  4023a9:	sub    dl,BYTE PTR [esi+0x2]
  4023ac:	sub    BYTE PTR [edi],dl
  4023ae:	add    BYTE PTR [eax],al
  4023b0:	or     al,BYTE PTR [edx]
  4023b2:	add    edi,DWORD PTR [ebp+0x4]
  4023b5:	add    BYTE PTR [eax],al
  4023b7:	add    al,0x2
  4023b9:	add    al,0x7d
  4023bb:	add    eax,0x2a040000
  4023c0:	or     dl,BYTE PTR [edi]
  4023c2:	sub    bl,BYTE PTR [esi]
  4023c4:	add    bh,BYTE PTR [ebx+0x4]
  4023c7:	add    BYTE PTR [eax],al
  4023c9:	add    al,0x2a
  4023cb:	add    BYTE PTR [ebx],dl
  4023cd:	xor    BYTE PTR [ebx],al
  4023cf:	add    BYTE PTR [eax],ch
  4023d1:	add    BYTE PTR [eax],al
  4023d3:	add    BYTE PTR [esi],al
  4023d5:	add    BYTE PTR [eax],al
  4023d7:	adc    DWORD PTR [edx],eax
  4023d9:	jnp    0x4023df
  4023db:	add    BYTE PTR [eax],al
  4023dd:	add    al,0x1f
  4023df:	outs   dx,DWORD PTR cs:[esi]
  4023e1:	sub    eax,0xa0a0000
  4023e6:	push   es
  4023e7:	adc    eax,0x7b020733
  4023ec:	add    al,0x0
  4023ee:	add    BYTE PTR [edx+ebp*1],al
  4023f1:	add    bh,BYTE PTR [ebx+0x4]
  4023f4:	add    BYTE PTR [eax],al
  4023f6:	add    al,0x6
  4023f8:	pop    ss
  4023f9:	pop    eax
  4023fa:	outs   dx,DWORD PTR ds:[esi]
  4023fb:	add    BYTE PTR cs:[eax],al
  4023fe:	or     ch,BYTE PTR [edx]
  402400:	push   ds
  402401:	add    bh,BYTE PTR [ebx+0x5]
  402404:	add    BYTE PTR [eax],al
  402406:	add    al,0x2a
  402408:	or     dl,BYTE PTR [edx+ebp*1]
  40240b:	sbb    dh,BYTE PTR [ebx+0x2f]
  40240e:	add    BYTE PTR [eax],al
  402410:	or     bh,BYTE PTR [edx+0x1a]
  402413:	jae    0x402444
  402415:	add    BYTE PTR [eax],al
  402417:	or     bh,BYTE PTR [edx+0x1a]
  40241a:	jae    0x40244b
  40241c:	add    BYTE PTR [eax],al
  40241e:	or     bh,BYTE PTR [edx+0x1a]
  402421:	jae    0x402452
  402423:	add    BYTE PTR [eax],al
  402425:	or     bh,BYTE PTR [edx+0x1a]
  402428:	jae    0x402459
  40242a:	add    BYTE PTR [eax],al
  40242c:	or     bh,BYTE PTR [edx+0x1a]
  40242f:	jae    0x402460
  402431:	add    BYTE PTR [eax],al
  402433:	or     bh,BYTE PTR [edx+0x1a]
  402436:	jae    0x402467
  402438:	add    BYTE PTR [eax],al
  40243a:	or     bh,BYTE PTR [edx+0x1a]
  40243d:	jae    0x40246e
  40243f:	add    BYTE PTR [eax],al
  402441:	or     bh,BYTE PTR [edx+0x1a]
  402444:	jae    0x402475
  402446:	add    BYTE PTR [eax],al
  402448:	or     bh,BYTE PTR [edx+0x1a]
  40244b:	jae    0x40247c
  40244d:	add    BYTE PTR [eax],al
  40244f:	or     bh,BYTE PTR [edx+0x1a]
  402452:	jae    0x402483
  402454:	add    BYTE PTR [eax],al
  402456:	or     bh,BYTE PTR [edx+0x1a]
  402459:	jae    0x40248a
  40245b:	add    BYTE PTR [eax],al
  40245d:	or     bh,BYTE PTR [edx+0x1a]
  402460:	jae    0x402491
  402462:	add    BYTE PTR [eax],al
  402464:	or     bh,BYTE PTR [edx+0x1a]
  402467:	jae    0x402498
  402469:	add    BYTE PTR [eax],al
  40246b:	or     bh,BYTE PTR [edx+0x1a]
  40246e:	jae    0x40249f
  402470:	add    BYTE PTR [eax],al
  402472:	or     bh,BYTE PTR [edx+0x13]
  402475:	xor    BYTE PTR [ebx],al
  402477:	add    dl,bl
  402479:	add    BYTE PTR [eax],al
  40247b:	add    BYTE PTR [edi],al
  40247d:	add    BYTE PTR [eax],al
  40247f:	adc    DWORD PTR [edx],eax
  402481:	add    al,0x5
  402483:	sub    BYTE PTR [eax],cl
  402485:	add    BYTE PTR [eax],al
  402487:	push   es
  402488:	add    al,BYTE PTR [ebx]
  40248a:	jge    0x402492
  40248c:	add    BYTE PTR [eax],al
  40248e:	add    al,0x2
  402490:	push   cs
  402491:	add    al,0x7d
  402493:	pop    es
  402494:	add    BYTE PTR [eax],al
  402496:	add    al,0x2
  402498:	add    eax,0xe772
  40249d:	jo     0x4024c7
  40249f:	add    DWORD PTR [eax],eax
  4024a1:	add    BYTE PTR [ebx],ch
  4024a3:	or     al,BYTE PTR [esi]
  4024a5:	sub    al,0x7
  4024a7:	add    al,BYTE PTR [esi]
  4024a9:	jge    0x4024b3
  4024ab:	add    BYTE PTR [eax],al
  4024ad:	add    al,0x2
  4024af:	add    eax,0x307e
  4024b4:	or     ch,BYTE PTR [edi+0x31]
  4024b7:	add    BYTE PTR [eax],al
  4024b9:	or     bh,BYTE PTR [ebp+0xb]
  4024bc:	add    BYTE PTR [eax],al
  4024be:	add    al,0x5
  4024c0:	rol    BYTE PTR [esi],1
  4024c2:	add    BYTE PTR [eax],al
  4024c4:	sbb    ebp,DWORD PTR [eax]
  4024c6:	xor    al,BYTE PTR [eax]
  4024c8:	add    BYTE PTR [edx],cl
  4024ca:	outs   dx,DWORD PTR ds:[esi]
  4024cb:	xor    eax,DWORD PTR [eax]
  4024cd:	add    BYTE PTR [edx],cl
  4024cf:	outs   dx,DWORD PTR ds:[esi]
  4024d0:	xor    al,0x0
  4024d2:	add    BYTE PTR [edx],cl
  4024d4:	or     eax,DWORD PTR [edi]
  4024d6:	adc    al,0x28
  4024d8:	add    BYTE PTR es:[eax],al
  4024db:	or     ch,BYTE PTR [esp+esi*1]
  4024de:	add    al,BYTE PTR [edi]
  4024e0:	jb     0x4024d3
  4024e2:	add    BYTE PTR [eax],al
  4024e4:	jo     0x402555
  4024e6:	xor    eax,0x7d0a0000
  4024eb:	or     al,0x0
  4024ed:	add    BYTE PTR [edi+eax*1],al
  4024f0:	outs   dx,DWORD PTR ds:[esi]
  4024f1:	add    BYTE PTR ss:[eax],al
  4024f4:	or     cl,BYTE PTR [edx+eax*1]
  4024f7:	or     BYTE PTR [esi],dl
  4024f9:	call   0x7d0a:0x2b6f
  402500:	or     al,BYTE PTR [eax]
  402502:	add    BYTE PTR [edx+eax*1],al
  402505:	or     BYTE PTR [edi],dl
  402507:	call   0x7d0a:0x2b6f
  40250e:	or     DWORD PTR [eax],eax
  402510:	add    BYTE PTR [eax*1+0x7d0],al
  402517:	sbb    ebp,DWORD PTR [eax]
  402519:	xor    al,BYTE PTR [eax]
  40251b:	add    BYTE PTR [edx],cl
  40251d:	outs   dx,DWORD PTR ds:[esi]
  40251e:	xor    eax,DWORD PTR [eax]
  402520:	add    BYTE PTR [edx],cl
  402522:	outs   dx,DWORD PTR ds:[esi]
  402523:	xor    al,0x0
  402525:	add    BYTE PTR [edx],cl
  402527:	or     eax,0x26281409
  40252c:	add    BYTE PTR [eax],al
  40252e:	or     ch,BYTE PTR [eax+ebp*1]
  402531:	add    cl,BYTE PTR [ecx]
  402533:	jb     0x402526
  402535:	add    BYTE PTR [eax],al
  402537:	jo     0x4025a8
  402539:	xor    eax,0x7d0a0000
  40253e:	or     eax,0x9040000
  402543:	outs   dx,DWORD PTR ds:[esi]
  402544:	add    BYTE PTR ss:[eax],al
  402547:	or     dl,BYTE PTR [ebx]
  402549:	add    al,0x2
  40254b:	adc    DWORD PTR [esi+edx*1],eax
  40254e:	call   0x7d0a:0x2b6f
  402555:	or     DWORD PTR [eax],eax
  402557:	add    BYTE PTR [edx+ebp*1],al
  40255a:	add    BYTE PTR [eax],al
  40255c:	sbb    esi,DWORD PTR [eax]
  40255e:	add    al,BYTE PTR [eax]
  402560:	lods   eax,DWORD PTR ds:[esi]
  402561:	add    BYTE PTR [eax],al
  402563:	add    BYTE PTR [eax],cl
  402565:	add    BYTE PTR [eax],al
  402567:	adc    DWORD PTR [ebx],eax
  402569:	outs   dx,DWORD PTR ds:[esi]
  40256a:	aaa    
  40256b:	add    BYTE PTR [eax],al
  40256d:	or     cl,BYTE PTR [edx]
  40256f:	push   es
  402570:	outs   dx,DWORD PTR ds:[esi]
  402571:	cmp    BYTE PTR [eax],al
  402573:	add    BYTE PTR [edx],cl
  402575:	adc    eax,DWORD PTR [ebx+ebp*1]
  402578:	jle    0x40258b
  40257a:	add    al,0x6f
  40257c:	cmp    DWORD PTR [eax],eax
  40257e:	add    BYTE PTR [edx],cl
  402580:	or     eax,DWORD PTR [edi]
  402582:	outs   dx,DWORD PTR ds:[esi]
  402583:	cmp    al,BYTE PTR [eax]
  402585:	add    BYTE PTR [edx],cl
  402587:	outs   dx,DWORD PTR ds:[esi]
  402588:	cmp    eax,DWORD PTR [eax]
  40258a:	add    BYTE PTR [edx],cl
  40258c:	ror    BYTE PTR [edx],1
  40258e:	add    BYTE PTR [eax],al
  402590:	sbb    ebp,DWORD PTR [eax]
  402592:	xor    al,BYTE PTR [eax]
  402594:	add    BYTE PTR [edx],cl
  402596:	sub    BYTE PTR [esi],ah
  402598:	add    BYTE PTR [eax],al
  40259a:	or     ch,BYTE PTR ds:0x3c6f075a
  4025a0:	add    BYTE PTR [eax],al
  4025a2:	or     ch,BYTE PTR [edi+0x3d]
  4025a5:	add    BYTE PTR [eax],al
  4025a7:	or     dl,BYTE PTR [ebx]
  4025a9:	add    eax,0x511342b
  4025ae:	outs   dx,DWORD PTR ds:[esi]
  4025af:	add    BYTE PTR ds:[eax],al
  4025b2:	or     cl,BYTE PTR [edx+edx*1]
  4025b5:	add    ch,BYTE PTR [eax]
  4025b7:	aas    
  4025b8:	add    BYTE PTR [eax],al
  4025ba:	or     ch,BYTE PTR [edi+0x33]
  4025bd:	add    BYTE PTR [eax],al
  4025bf:	or     al,BYTE PTR [eax+ebp*1]
  4025c2:	inc    eax
  4025c3:	add    BYTE PTR [eax],al
  4025c5:	or     ch,BYTE PTR ds:0x28021218
  4025cb:	inc    ecx
  4025cc:	add    BYTE PTR [eax],al
  4025ce:	or     dl,BYTE PTR [ebx]
  4025d0:	push   es
  4025d1:	adc    al,BYTE PTR [esi]
  4025d3:	sub    BYTE PTR [edx+0x0],al
  4025d6:	add    BYTE PTR [edx],cl
  4025d8:	je     0x402601
  4025da:	add    BYTE PTR [eax],al
  4025dc:	add    DWORD PTR ds:0x51133de,ecx
  4025e2:	outs   dx,DWORD PTR ds:[esi]
  4025e3:	inc    ebx
  4025e4:	add    BYTE PTR [eax],al
  4025e6:	or     ch,BYTE PTR ds:0x110cdec3
  4025ec:	add    eax,0x511072c
  4025f1:	outs   dx,DWORD PTR ds:[esi]
  4025f2:	sub    al,BYTE PTR [eax]
  4025f4:	add    BYTE PTR [edx],cl
  4025f6:	fcom   QWORD PTR [ecx]
  4025f8:	add    al,0x6f
  4025fa:	inc    ebx
  4025fb:	add    BYTE PTR [eax],al
  4025fd:	or     bh,BYTE PTR [edx]
  4025ff:	jbe    0x402600
  402601:	(bad)  
  402602:	(bad)  
  402603:	fimul  WORD PTR [ecx+edx*1]
  402606:	add    al,0x2c
  402608:	pop    es
  402609:	adc    DWORD PTR [edi+ebp*2],eax
  40260c:	sub    al,BYTE PTR [eax]
  40260e:	add    BYTE PTR [edx],cl
  402610:	fcom   QWORD PTR [edx+ebp*1]
  402613:	or     DWORD PTR [edx],ebp
  402615:	add    BYTE PTR [eax],al
  402617:	add    BYTE PTR [ecx],al
  402619:	sbb    al,0x0
  40261b:	add    BYTE PTR [edx],al
  40261d:	add    BYTE PTR [edx+0x0],al
  402620:	inc    ecx
  402621:	add    DWORD PTR [eax],0xc
  402624:	add    BYTE PTR [eax],al
  402626:	add    BYTE PTR [eax],al
  402628:	add    al,BYTE PTR [eax]
  40262a:	str    WORD PTR [esi+0xc009d]
  402631:	add    BYTE PTR [eax],al
  402633:	add    BYTE PTR [edx],cl
  402635:	push   ss
  402636:	sub    bl,BYTE PTR [esi]
  402638:	add    bh,BYTE PTR [ebx+0x7]
  40263b:	add    BYTE PTR [eax],al
  40263d:	add    al,0x2a
  40263f:	bound  eax,QWORD PTR [edx]
  402641:	jnp    0x402649
  402643:	add    BYTE PTR [eax],al
  402645:	add    al,0x2
  402647:	sub    BYTE PTR [eax+eax*1],cl
  40264a:	add    BYTE PTR [esi],al
  40264c:	add    bh,BYTE PTR [ebx+0x8]
  40264f:	add    BYTE PTR [eax],al
  402651:	add    al,0x6f
  402653:	add    eax,DWORD PTR [eax]
  402655:	add    BYTE PTR [esi],al
  402657:	sub    dh,BYTE PTR [edx]
  402659:	add    ch,BYTE PTR [eax]
  40265b:	or     al,0x0
  40265d:	add    BYTE PTR [esi],al
  40265f:	outs   dx,DWORD PTR ds:[esi]
  402660:	inc    esp
  402661:	add    BYTE PTR [eax],al
  402663:	or     ch,BYTE PTR [edx]
  402665:	or     dl,BYTE PTR [esi]
  402667:	sub    dh,BYTE PTR [esi]
  402669:	add    bh,BYTE PTR [ebx+0xd]
  40266c:	add    BYTE PTR [eax],al
  40266e:	add    al,0x14
  402670:	sub    BYTE PTR [ebp+0x0],al
  402673:	add    BYTE PTR [edx],cl
  402675:	sub    dh,BYTE PTR [esi]
  402677:	add    bh,BYTE PTR [ebx+0xb]
  40267a:	add    BYTE PTR [eax],al
  40267c:	add    al,0x14
  40267e:	sub    BYTE PTR [esi+0x0],al
  402681:	add    BYTE PTR [edx],cl
  402683:	sub    dh,BYTE PTR [esi]
  402685:	add    bh,BYTE PTR [ebx+0xc]
  402688:	add    BYTE PTR [eax],al
  40268a:	add    al,0x14
  40268c:	sub    BYTE PTR [ebp+0x0],al
  40268f:	add    BYTE PTR [edx],cl
  402691:	sub    cl,BYTE PTR [edx+0x2]
  402694:	jnp    0x40269c
  402696:	add    BYTE PTR [eax],al
  402698:	add    al,0x2
  40269a:	jnp    0x4026a6
  40269c:	add    BYTE PTR [eax],al
  40269e:	add    al,0x6f
  4026a0:	add    al,BYTE PTR [eax]
  4026a2:	add    BYTE PTR [esi],al
  4026a4:	sub    cl,BYTE PTR [edx+0x2]
  4026a7:	jnp    0x4026af
  4026a9:	add    BYTE PTR [eax],al
  4026ab:	add    al,0x2
  4026ad:	jnp    0x4026b8
  4026af:	add    BYTE PTR [eax],al
  4026b1:	add    al,0x6f
  4026b3:	add    al,BYTE PTR [eax]
  4026b5:	add    BYTE PTR [esi],al
  4026b7:	sub    dl,BYTE PTR [ebx]
  4026b9:	xor    BYTE PTR [ebx],al
  4026bb:	add    BYTE PTR ds:0x2000000,dl
  4026c1:	add    BYTE PTR [eax],al
  4026c3:	adc    DWORD PTR [edx],eax
  4026c5:	jnp    0x4026cd
  4026c7:	add    BYTE PTR [eax],al
  4026c9:	add    al,0x2
  4026cb:	sub    BYTE PTR [eax+eax*1],cl
  4026ce:	add    BYTE PTR [esi],al
  4026d0:	add    ebp,DWORD PTR [edi+0x3]
  4026d3:	add    BYTE PTR [eax],al
  4026d5:	push   es
  4026d6:	or     al,BYTE PTR [esi]
  4026d8:	sub    cl,BYTE PTR [edx+0x2]
  4026db:	jnp    0x4026e8
  4026dd:	add    BYTE PTR [eax],al
  4026df:	add    al,0x16
  4026e1:	lea    eax,[ecx]
  4026e3:	add    BYTE PTR [eax],al
  4026e5:	add    DWORD PTR [edi+0x47],ebp
  4026e8:	add    BYTE PTR [eax],al
  4026ea:	or     ch,BYTE PTR [edx]
  4026ec:	adc    esi,DWORD PTR [eax]
  4026ee:	add    eax,0x1e00
  4026f3:	add    BYTE PTR [ecx],cl
  4026f5:	add    BYTE PTR [eax],al
  4026f7:	adc    DWORD PTR [edx],eax
  4026f9:	jnp    0x402707
  4026fb:	add    BYTE PTR [eax],al
  4026fd:	add    al,0x3
  4026ff:	sbb    BYTE PTR [ebp+0x1000001],cl
  402705:	or     al,BYTE PTR [esi]
  402707:	push   ss
  402708:	add    al,0xa2
  40270a:	push   es
  40270b:	pop    ss
  40270c:	add    eax,0x486f06a2
  402711:	add    BYTE PTR [eax],al
  402713:	or     ah,BYTE PTR [esi]
  402715:	sub    al,BYTE PTR [eax]
  402717:	add    BYTE PTR [ebx],dl
  402719:	xor    BYTE PTR ds:0x1a00,al
  40271f:	add    BYTE PTR [ecx],cl
  402721:	add    BYTE PTR [eax],al
  402723:	adc    DWORD PTR [edx],eax
  402725:	jnp    0x402734
  402727:	add    BYTE PTR [eax],al
  402729:	add    al,0x3
  40272b:	pop    ss
  40272c:	lea    eax,[ecx]
  40272e:	add    BYTE PTR [eax],al
  402730:	add    DWORD PTR [edx],ecx
  402732:	push   es
  402733:	push   ss
  402734:	add    al,0xa2
  402736:	push   es
  402737:	outs   dx,DWORD PTR ds:[esi]
  402738:	dec    eax
  402739:	add    BYTE PTR [eax],al
  40273b:	or     ah,BYTE PTR [esi]
  40273d:	sub    al,BYTE PTR [esi+0x2]
  402740:	sub    BYTE PTR [eax+eax*1],cl
  402743:	add    BYTE PTR [esi],al
  402745:	outs   dx,DWORD PTR ds:[esi]
  402746:	dec    ecx
  402747:	add    BYTE PTR [eax],al
  402749:	or     ch,BYTE PTR [eax]
  40274b:	dec    edx
  40274c:	add    BYTE PTR [eax],al
  40274e:	or     ch,BYTE PTR [edx]
  402750:	into   
  402751:	add    ch,BYTE PTR [eax]
  402753:	pop    ss
  402754:	add    BYTE PTR [eax],al
  402756:	or     al,BYTE PTR [edx]
  402758:	add    al,0x7d
  40275a:	sldt   WORD PTR [eax]
  40275d:	add    al,0x2
  40275f:	add    eax,0x107d
  402764:	add    al,0x2
  402766:	add    edi,DWORD PTR [ebp+0xe]
  402769:	add    BYTE PTR [eax],al
  40276b:	add    al,0x2
  40276d:	add    bh,BYTE PTR [ebx+0x10]
  402770:	add    BYTE PTR [eax],al
  402772:	add    al,0x2
  402774:	jnp    0x402785
  402776:	add    BYTE PTR [eax],al
  402778:	add    al,0x6f
  40277a:	dec    ebx
  40277b:	add    BYTE PTR [eax],al
  40277d:	or     bh,BYTE PTR [ebp+0x11]
  402780:	add    BYTE PTR [eax],al
  402782:	add    al,0x2a
  402784:	push   ds
  402785:	add    bh,BYTE PTR [ebx+0xf]
  402788:	add    BYTE PTR [eax],al
  40278a:	add    al,0x2a
  40278c:	mov    dl,0x2
  40278e:	jnp    0x4027a1
  402790:	add    BYTE PTR [eax],al
  402792:	add    al,0x14
  402794:	sub    BYTE PTR [eax+eax*1+0x0],cl
  402798:	or     ch,BYTE PTR ds:0x22a1402
  40279e:	jnp    0x4027ae
  4027a0:	add    BYTE PTR [eax],al
  4027a2:	add    al,0x2
  4027a4:	jnp    0x4027b7
  4027a6:	add    BYTE PTR [eax],al
  4027a8:	add    al,0x6f
  4027aa:	dec    ebp
  4027ab:	add    BYTE PTR [eax],al
  4027ad:	or     ch,BYTE PTR [edi+0x2b]
  4027b0:	add    BYTE PTR [eax],al
  4027b2:	or     ch,BYTE PTR [edi+0x2]
  4027b5:	add    BYTE PTR [eax],al
  4027b7:	push   es
  4027b8:	sub    ch,BYTE PTR [esi]
  4027ba:	jb     0x4027b5
  4027bc:	add    BYTE PTR [eax],al
  4027be:	jo     0x402833
  4027c0:	dec    esi
  4027c1:	add    BYTE PTR [eax],al
  4027c3:	or     bh,BYTE PTR [edx+0xa]
  4027c6:	push   ss
  4027c7:	sub    cl,BYTE PTR [edx]
  4027c9:	push   ss
  4027ca:	sub    bh,BYTE PTR [edx+0x2]
  4027cd:	jnp    0x4027e0
  4027cf:	add    BYTE PTR [eax],al
  4027d1:	add    al,0x6f
  4027d3:	dec    edi
  4027d4:	add    BYTE PTR [eax],al
  4027d6:	or     ch,BYTE PTR [edi+ecx*1]
  4027d9:	add    bh,BYTE PTR [ebx+0x11]
  4027dc:	add    BYTE PTR [eax],al
  4027de:	add    al,0x6f
  4027e0:	push   eax
  4027e1:	add    BYTE PTR [eax],al
  4027e3:	or     dl,BYTE PTR [esi]
  4027e5:	inc    BYTE PTR [ecx]
  4027e7:	sub    dl,BYTE PTR [esi]
  4027e9:	sub    dl,dl
  4027eb:	add    bh,BYTE PTR [ebx+0x11]
  4027ee:	add    BYTE PTR [eax],al
  4027f0:	add    al,0x14
  4027f2:	sub    BYTE PTR [eax+eax*1+0x0],cl
  4027f6:	or     ch,BYTE PTR [ebx+ebx*1]
  4027f9:	add    bh,BYTE PTR [ebx+0x11]
  4027fc:	add    BYTE PTR [eax],al
  4027fe:	add    al,0x6f
  402800:	dec    edi
  402801:	add    BYTE PTR [eax],al
  402803:	or     ch,BYTE PTR [esi+ecx*1]
  402806:	add    bh,BYTE PTR [ebx+0x11]
  402809:	add    BYTE PTR [eax],al
  40280b:	add    al,0x3
  40280d:	adc    al,0x6f
  40280f:	push   ecx
  402810:	add    BYTE PTR [eax],al
  402812:	or     ch,BYTE PTR [edx]
  402814:	jb     0x402825
  402816:	add    DWORD PTR [eax],eax
  402818:	jo     0x40288d
  40281a:	push   edx
  40281b:	add    BYTE PTR [eax],al
  40281d:	or     bh,BYTE PTR [edx+0x0]
  402820:	adc    esi,DWORD PTR [eax]
  402822:	add    al,0x0
  402824:	pop    edx
  402825:	add    BYTE PTR [eax],al
  402827:	add    BYTE PTR [edx],cl
  402829:	add    BYTE PTR [eax],al
  40282b:	adc    DWORD PTR [edx],eax
  40282d:	jnp    0x402840
  40282f:	add    BYTE PTR [eax],al
  402831:	add    al,0x14
  402833:	sub    BYTE PTR [eax+eax*1+0x0],cl
  402837:	or     ch,BYTE PTR [ecx+eax*2]
  40283a:	add    bh,BYTE PTR [ebx+0x11]
  40283d:	add    BYTE PTR [eax],al
  40283f:	add    al,0x6f
  402841:	push   eax
  402842:	add    BYTE PTR [eax],al
  402844:	or     ch,BYTE PTR [esp+esi*1]
  402847:	add    bh,BYTE PTR [ebx+0x11]
  40284a:	add    BYTE PTR [eax],al
  40284c:	add    al,0x6f
  40284e:	dec    ebp
  40284f:	add    BYTE PTR [eax],al
  402851:	or     cl,BYTE PTR [edx]
  402853:	push   es
  402854:	outs   dx,DWORD PTR ds:[esi]
  402855:	push   ebx
  402856:	add    BYTE PTR [eax],al
  402858:	or     ch,BYTE PTR [ecx+edx*1]
  40285b:	push   es
  40285c:	add    al,0x6f
  40285e:	push   esp
  40285f:	add    BYTE PTR [eax],al
  402861:	or     cl,BYTE PTR [ebx]
  402863:	push   es
  402864:	pop    es
  402865:	sub    BYTE PTR [ebp+0x0],dl
  402868:	add    BYTE PTR [edx],cl
  40286a:	adc    BYTE PTR [edx],al
  40286c:	add    bh,BYTE PTR [ebx+0x11]
  40286f:	add    BYTE PTR [eax],al
  402871:	add    al,0x3
  402873:	add    al,0x14
  402875:	outs   dx,DWORD PTR ds:[esi]
  402876:	push   esi
  402877:	add    BYTE PTR [eax],al
  402879:	or     ch,BYTE PTR [edx]
  40287b:	jb     0x40289e
  40287d:	add    DWORD PTR [eax],eax
  40287f:	jo     0x4028f4
  402881:	push   edx
  402882:	add    BYTE PTR [eax],al
  402884:	or     bh,BYTE PTR [edx+0x1e]
  402887:	jae    0x4028c8
  402889:	add    BYTE PTR [eax],al
  40288b:	push   es
  40288c:	sub    al,BYTE PTR es:[eax]
  40288f:	add    BYTE PTR [ebx],dl
  402891:	xor    BYTE PTR [edx],al
  402893:	add    BYTE PTR [esi+0xb000000],dl
  402899:	add    BYTE PTR [eax],al
  40289b:	adc    DWORD PTR [esi],edx
  40289d:	or     dh,BYTE PTR [edx+0x33]
  4028a0:	add    DWORD PTR [eax],eax
  4028a2:	jo     0x4028cc
  4028a4:	pop    eax
  4028a5:	add    BYTE PTR [eax],al
  4028a7:	or     dl,BYTE PTR [edx]
  4028a9:	add    BYTE PTR [eax],ch
  4028ab:	pop    ecx
  4028ac:	add    BYTE PTR [eax],al
  4028ae:	or     ch,BYTE PTR [ecx+esi*1]
  4028b1:	rol    BYTE PTR [esi+0x0],1
  4028b4:	add    BYTE PTR [ecx],al
  4028b6:	sub    BYTE PTR [edx],dh
  4028b8:	add    BYTE PTR [eax],al
  4028ba:	or     al,BYTE PTR [esi]
  4028bc:	mov    WORD PTR [ebp+0x0],es
  4028bf:	add    BYTE PTR [ecx],al
  4028c1:	sub    BYTE PTR [edx+0x0],bl
  4028c4:	add    BYTE PTR [edx],cl
  4028c6:	sub    al,0x1a
  4028c8:	rol    BYTE PTR [esi+0x0],1
  4028cb:	add    BYTE PTR [ecx],al
  4028cd:	sub    BYTE PTR [edx],dh
  4028cf:	add    BYTE PTR [eax],al
  4028d1:	or     al,BYTE PTR [esi]
  4028d3:	sub    BYTE PTR [ebx+0x0],bl
  4028d6:	add    BYTE PTR [edx],cl
  4028d8:	movs   DWORD PTR es:[edi],DWORD PTR ds:[esi]
  4028d9:	inc    esi
  4028da:	add    BYTE PTR [eax],al
  4028dc:	add    DWORD PTR [eax],ebp
  4028de:	pop    esp
  4028df:	add    BYTE PTR [eax],al
  4028e1:	or     dh,BYTE PTR [edx+0x69]
  4028e4:	add    DWORD PTR [eax],eax
  4028e6:	jo     0x402910
  4028e8:	pop    eax
  4028e9:	add    BYTE PTR [eax],al
  4028eb:	or     cl,BYTE PTR [ebx]
  4028ed:	pop    es
  4028ee:	sub    BYTE PTR [ecx],bl
  4028f0:	add    BYTE PTR [eax],al
  4028f2:	or     ch,BYTE PTR ds:0x212071a
  4028f8:	sub    BYTE PTR [ecx+0x0],bl
  4028fb:	add    BYTE PTR [edx],cl
  4028fd:	sub    al,0x10
  4028ff:	or     BYTE PTR [esi],dl
  402901:	xor    DWORD PTR [eax+ecx*1],ecx
  402904:	and    al,ch
  402906:	add    eax,DWORD PTR [eax]
  402908:	add    BYTE PTR [edx+0x28],bl
  40290b:	pop    ebp
  40290c:	add    BYTE PTR [eax],al
  40290e:	or     bh,BYTE PTR [esi+0x12]
  402911:	add    BYTE PTR [eax],al
  402913:	add    al,0x2d
  402915:	adc    DWORD PTR [esi+edi*8],edx
  402918:	push   es
  402919:	cmp    DWORD PTR [eax],eax
  40291b:	add    BYTE PTR [esi],al
  40291d:	jae    0x40297d
  40291f:	add    BYTE PTR [eax],al
  402921:	or     al,BYTE PTR [eax+0x4000012]
  402927:	jle    0x40293b
  402929:	add    BYTE PTR [eax],al
  40292b:	add    al,0x28
  40292d:	pop    edi
  40292e:	add    BYTE PTR [eax],al
  402930:	or     ch,BYTE PTR [edx]
  402932:	push   ds
  402933:	add    ch,BYTE PTR [eax]
  402935:	pop    ss
  402936:	add    BYTE PTR [eax],al
  402938:	or     ch,BYTE PTR [edx]
  40293a:	add    BYTE PTR [eax],al
  40293c:	adc    esi,DWORD PTR [eax]
  40293e:	add    al,BYTE PTR [eax]
  402940:	mov    al,BYTE PTR [eax]
  402942:	add    BYTE PTR [eax],al
  402944:	or     al,0x0
  402946:	add    BYTE PTR [ecx],dl
  402948:	jae    0x4029aa
  40294a:	add    BYTE PTR [eax],al
  40294c:	or     al,BYTE PTR [eax+0x4000014]
  402952:	rol    BYTE PTR [edi],1
  402954:	add    BYTE PTR [eax],al
  402956:	add    ch,BYTE PTR [eax]
  402958:	xor    al,BYTE PTR [eax]
  40295a:	add    BYTE PTR [edx],cl
  40295c:	outs   dx,DWORD PTR ds:[esi]
  40295d:	popa   
  40295e:	add    BYTE PTR [eax],al
  402960:	or     ch,BYTE PTR [edi+0x62]
  402963:	add    BYTE PTR [eax],al
  402965:	or     ch,BYTE PTR [edi+0x63]
  402968:	add    BYTE PTR [eax],al
  40296a:	or     dh,BYTE PTR [ebx+0x64]
  40296d:	add    BYTE PTR [eax],al
  40296f:	or     ch,BYTE PTR [eax]
  402971:	add    BYTE PTR gs:[eax],al
  402974:	or     ch,BYTE PTR [edi+0x66]
  402977:	add    BYTE PTR [eax],al
  402979:	or     cl,BYTE PTR [ebx]
  40297b:	push   ss
  40297c:	or     al,0x2b
  40297e:	dec    esp
  40297f:	pop    es
  402980:	or     BYTE PTR [edx+0x167e0a],bl
  402986:	add    BYTE PTR [esi+eax*1],al
  402989:	outs   dx,DWORD PTR ds:[esi]
  40298a:	add    BYTE PTR [bx+si],al
  40298d:	or     ch,BYTE PTR [edi+0x68]
  402990:	add    BYTE PTR [eax],al
  402992:	or     ch,BYTE PTR [edi+0x69]
  402995:	add    BYTE PTR [eax],al
  402997:	or     ch,BYTE PTR ds:0x157e2d
  40299d:	add    BYTE PTR [esi+eax*1],al
  4029a0:	outs   dx,DWORD PTR ds:[esi]
  4029a1:	push   0x0
  4029a3:	add    BYTE PTR [edx],cl
  4029a5:	outs   dx,DWORD PTR ds:[esi]
  4029a6:	imul   eax,DWORD PTR [eax],0x0
  4029a9:	or     ch,BYTE PTR [edi+0x69]
  4029ac:	add    BYTE PTR [eax],al
  4029ae:	or     ch,BYTE PTR [esi+edx*1]
  4029b1:	jle    0x4029c7
  4029b3:	add    BYTE PTR [eax],al
  4029b5:	add    al,0x6
  4029b7:	outs   dx,DWORD PTR ds:[esi]
  4029b8:	add    BYTE PTR [bx+si],al
  4029bb:	or     ch,BYTE PTR [eax]
  4029bd:	ins    BYTE PTR es:[edi],dx
  4029be:	add    BYTE PTR [eax],al
  4029c0:	or     ch,BYTE PTR [edi+0x6d]
  4029c3:	add    BYTE PTR [eax],al
  4029c5:	or     ah,BYTE PTR [esi]
  4029c7:	or     BYTE PTR [edi],dl
  4029c9:	pop    eax
  4029ca:	or     al,0x8
  4029cc:	pop    es
  4029cd:	mov    gs,WORD PTR [ecx+0x32]
  4029d0:	scas   al,BYTE PTR es:[edi]
  4029d1:	sub    al,BYTE PTR [eax]
  4029d3:	add    BYTE PTR [ebx],al
  4029d5:	xor    BYTE PTR [eax+eax*1],al
  4029d8:	inc    edi
  4029d9:	add    BYTE PTR [eax],al
  4029db:	add    BYTE PTR [eax],al
  4029dd:	add    BYTE PTR [eax],al
  4029df:	add    BYTE PTR [esi+0x14],bh
  4029e2:	add    BYTE PTR [eax],al
  4029e4:	add    al,0x2d
  4029e6:	push   es
  4029e7:	add    ch,BYTE PTR [eax]
  4029e9:	cmp    al,BYTE PTR [eax]
  4029eb:	add    BYTE PTR [esi],al
  4029ed:	add    bh,BYTE PTR [ebx+0x13]
  4029f0:	add    BYTE PTR [eax],al
  4029f2:	add    al,0x2d
  4029f4:	adc    BYTE PTR [edx],al
  4029f6:	jle    0x402a0c
  4029f8:	add    BYTE PTR [eax],al
  4029fa:	add    al,0x73
  4029fc:	add    DWORD PTR [eax],eax
  4029fe:	add    BYTE PTR [esi],al
  402a00:	jge    0x402a15
  402a02:	add    BYTE PTR [eax],al
  402a04:	add    al,0x3
  402a06:	jb     0x40299b
  402a08:	add    DWORD PTR [eax],eax
  402a0a:	jo     0x402a23
  402a0c:	sub    BYTE PTR [eax+eax*1],ah
  402a0f:	add    BYTE PTR [edx],cl
  402a11:	sub    BYTE PTR [esi+0x0],ch
  402a14:	add    BYTE PTR [edx],cl
  402a16:	sub    eax,0x22a1402
  402a1b:	jnp    0x402a30
  402a1d:	add    BYTE PTR [eax],al
  402a1f:	add    al,0x3
  402a21:	outs   dx,DWORD PTR ds:[esi]
  402a22:	add    al,BYTE PTR [eax]
  402a24:	add    BYTE PTR [esi],al
  402a26:	sub    bl,BYTE PTR [esi]
  402a28:	push   ss
  402a29:	lea    ecx,[edi]
  402a2b:	add    BYTE PTR [eax],al
  402a2d:	add    DWORD PTR [edx],ebp
  402a2f:	add    BYTE PTR [ebx],bl
  402a31:	xor    BYTE PTR [eax+eax*1],al
  402a34:	aas    
  402a35:	add    BYTE PTR [eax],al
  402a37:	add    BYTE PTR ds:0x73110000,cl
  402a3d:	outs   dx,DWORD PTR ds:[esi]
  402a3e:	add    BYTE PTR [eax],al
  402a40:	or     cl,BYTE PTR [edx]
  402a42:	push   es
  402a43:	sbb    DWORD PTR [ebp+0x1000027],ecx
  402a49:	or     eax,DWORD PTR [edi]
  402a4b:	push   ss
  402a4c:	jb     0x402a25
  402a4e:	add    DWORD PTR [eax],eax
  402a50:	jo     0x4029f4
  402a52:	pop    es
  402a53:	pop    ss
  402a54:	jb     0x402a4f
  402a56:	add    DWORD PTR [eax],eax
  402a58:	jo     0x4029fc
  402a5a:	pop    es
  402a5b:	sbb    BYTE PTR [edx-0x3],dh
  402a5e:	add    DWORD PTR [eax],eax
  402a60:	jo     0x402a04
  402a62:	pop    es
  402a63:	outs   dx,DWORD PTR ds:[esi]
  402a64:	jo     0x402a66
  402a66:	add    BYTE PTR [edx],cl
  402a68:	fimul  WORD PTR [edx]
  402a6a:	push   es
  402a6b:	sub    al,0x6
  402a6d:	push   es
  402a6e:	outs   dx,DWORD PTR ds:[esi]
  402a6f:	sub    al,BYTE PTR [eax]
  402a71:	add    BYTE PTR [edx],cl
  402a73:	fcom   QWORD PTR [esi]
  402a75:	sub    BYTE PTR [ecx+0x0],dh
  402a78:	add    BYTE PTR [edx],cl
  402a7a:	sub    al,BYTE PTR [eax]
  402a7c:	add    DWORD PTR [eax],edx
  402a7e:	add    BYTE PTR [eax],al
  402a80:	add    al,BYTE PTR [eax]
  402a82:	push   es
  402a83:	add    BYTE PTR [eax],ch
  402a85:	add    BYTE PTR cs:[edx],cl
  402a88:	add    BYTE PTR [eax],al
  402a8a:	add    BYTE PTR [eax],al
  402a8c:	adc    esi,DWORD PTR [eax]
  402a8e:	add    al,BYTE PTR [eax]
  402a90:	xor    eax,DWORD PTR [eax]
  402a92:	add    BYTE PTR [eax],al
  402a94:	push   cs
  402a95:	add    BYTE PTR [eax],al
  402a97:	adc    DWORD PTR [ebx],eax
  402a99:	outs   dx,DWORD PTR ds:[esi]
  402a9a:	jb     0x402a9c
  402a9c:	add    BYTE PTR [edx],cl
  402a9e:	sub    al,0x1
  402aa0:	sub    bh,BYTE PTR [esi+0x17]
  402aa3:	add    BYTE PTR [eax],al
  402aa5:	add    al,0x2d
  402aa7:	adc    DWORD PTR [esi+edi*8],edx
  402aaa:	push   es
  402aab:	inc    eax
  402aac:	add    BYTE PTR [eax],al
  402aae:	push   es
  402aaf:	jae    0x402b24
  402ab1:	add    BYTE PTR [eax],al
  402ab3:	or     al,BYTE PTR [eax+0x4000017]
  402ab9:	jle    0x402ad2
  402abb:	add    BYTE PTR [eax],al
  402abd:	add    al,0x73
  402abf:	je     0x402ac1
  402ac1:	add    BYTE PTR [edx],cl
  402ac3:	or     al,BYTE PTR [esi]
  402ac5:	outs   dx,DWORD PTR ds:[esi]
  402ac6:	jne    0x402ac8
  402ac8:	add    BYTE PTR [edx],cl
  402aca:	sub    dh,BYTE PTR [esi]
  402acc:	add    al,BYTE PTR [ebx]
  402ace:	outs   dx,DWORD PTR ds:[esi]
  402acf:	sub    eax,DWORD PTR [eax]
  402ad1:	add    BYTE PTR [edx],cl
  402ad3:	sub    BYTE PTR [ebx],bh
  402ad5:	add    BYTE PTR [eax],al
  402ad7:	push   es
  402ad8:	sub    al,BYTE PTR [eax]
  402ada:	add    BYTE PTR [eax],al
  402adc:	adc    esi,DWORD PTR [eax]
  402ade:	add    eax,DWORD PTR [eax]
  402ae0:	add    DWORD PTR [eax],0x0
  402ae3:	add    BYTE PTR [edi],cl
  402ae5:	add    BYTE PTR [eax],al
  402ae7:	adc    DWORD PTR [eax+eax*4],edx
  402aea:	adc    al,0x0
  402aec:	add    BYTE PTR [ecx+ebx*1],al
  402aef:	lea    esp,[edi]
  402af1:	add    BYTE PTR [eax],al
  402af3:	add    DWORD PTR [edx],ecx
  402af5:	push   es
  402af6:	push   ss
  402af7:	jb     0x402b12
  402af9:	add    al,BYTE PTR [eax]
  402afb:	jo     0x402a9f
  402afd:	push   es
  402afe:	pop    ss
  402aff:	jb     0x402b24
  402b01:	add    al,BYTE PTR [eax]
  402b03:	jo     0x402aa7
  402b05:	push   es
  402b06:	sbb    BYTE PTR [edx+0x2d],dh
  402b09:	add    al,BYTE PTR [eax]
  402b0b:	jo     0x402aaf
  402b0d:	push   es
  402b0e:	jae    0x402b86
  402b10:	add    BYTE PTR [eax],al
  402b12:	or     al,BYTE PTR [eax+0x4000015]
  402b18:	push   ds
  402b19:	lea    esp,[edi]
  402b1b:	add    BYTE PTR [eax],al
  402b1d:	add    DWORD PTR [ebx],ecx
  402b1f:	pop    es
  402b20:	push   ss
  402b21:	jb     0x402b5e
  402b23:	add    al,BYTE PTR [eax]
  402b25:	jo     0x402ac9
  402b27:	pop    es
  402b28:	pop    ss
  402b29:	jb     0x402ada
  402b2b:	add    al,BYTE PTR [eax]
  402b2d:	jo     0x402ad1
  402b2f:	pop    es
  402b30:	sbb    BYTE PTR [edx+0x9],dh
  402b33:	add    eax,DWORD PTR [eax]
  402b35:	jo     0x402ad9
  402b37:	pop    es
  402b38:	sbb    DWORD PTR [edx+0x7d],esi
  402b3b:	add    eax,DWORD PTR [eax]
  402b3d:	jo     0x402ae1
  402b3f:	pop    es
  402b40:	sbb    dh,BYTE PTR [edx+0x8]
  402b43:	add    al,0x0
  402b45:	jo     0x402ae9
  402b47:	pop    es
  402b48:	sbb    esi,DWORD PTR [edx+0x70]
  402b4b:	add    al,0x0
  402b4d:	jo     0x402af1
  402b4f:	pop    es
  402b50:	sbb    al,0x72
  402b52:	aam    0x4
  402b54:	add    BYTE PTR [eax-0x5e],dh
  402b57:	pop    es
  402b58:	sbb    eax,0x52472
  402b5d:	jo     0x402b01
  402b5f:	pop    es
  402b60:	jae    0x402bd8
  402b62:	add    BYTE PTR [eax],al
  402b64:	or     al,BYTE PTR [eax+0x4000016]
  402b6a:	sub    bl,BYTE PTR [esi]
  402b6c:	add    ch,BYTE PTR [eax]
  402b6e:	ja     0x402b70
  402b70:	add    BYTE PTR [edx],cl
  402b72:	sub    al,BYTE PTR [eax]
  402b74:	inc    edx
  402b75:	push   ebx
  402b76:	dec    edx
  402b77:	inc    edx
  402b78:	add    DWORD PTR [eax],eax
  402b7a:	add    DWORD PTR [eax],eax
  402b7c:	add    BYTE PTR [eax],al
  402b7e:	add    BYTE PTR [eax],al
  402b80:	or     al,0x0
  402b82:	add    BYTE PTR [eax],al
  402b84:	jbe    0x402bba
  402b86:	xor    BYTE PTR cs:[esi],ch
  402b89:	xor    esi,DWORD PTR [eax]
  402b8b:	xor    esi,DWORD PTR [ecx]
  402b8d:	cmp    DWORD PTR [eax],eax
  402b8f:	add    BYTE PTR [eax],al
  402b91:	add    BYTE PTR ds:0x6c00,al
  402b97:	add    BYTE PTR [ebp+ecx*1+0x7e230000],bl
  402b9e:	add    BYTE PTR [eax],al
  402ba0:	or     BYTE PTR [esi],cl
  402ba2:	add    BYTE PTR [eax],al
  402ba4:	xchg   esp,eax
  402ba5:	adc    BYTE PTR [eax],al
  402ba7:	add    BYTE PTR [ebx],ah
  402ba9:	push   ebx
  402baa:	je     0x402c1e
  402bac:	imul   ebp,DWORD PTR [esi+0x67],0x73
  402bb3:	add    BYTE PTR [esi+ebx*1+0x57c0000],bl
  402bba:	add    BYTE PTR [eax],al
  402bbc:	and    edx,DWORD PTR [ebp+0x53]
  402bbf:	add    BYTE PTR [eax],bl
  402bc1:	and    al,0x0
  402bc3:	add    BYTE PTR [eax],dl
  402bc5:	add    BYTE PTR [eax],al
  402bc7:	add    BYTE PTR [ebx],ah
  402bc9:	inc    edi
  402bca:	push   ebp
  402bcb:	dec    ecx
  402bcc:	inc    esp
  402bcd:	add    BYTE PTR [eax],al
  402bcf:	add    BYTE PTR [eax],ch
  402bd1:	and    al,0x0
  402bd3:	add    BYTE PTR [ecx+ecx*1],dl
  402bd6:	add    BYTE PTR [eax],al
  402bd8:	and    eax,DWORD PTR [edx+0x6c]
  402bdb:	outs   dx,DWORD PTR ds:[esi]
  402bdc:	bound  eax,QWORD PTR [eax]
  402bde:	add    BYTE PTR [eax],al
  402be0:	add    BYTE PTR [eax],al
  402be2:	add    BYTE PTR [eax],al
  402be4:	add    al,BYTE PTR [eax]
  402be6:	add    BYTE PTR [ecx],al
  402be8:	push   edi
  402be9:	pop    ss
  402bea:	mov    ds:0x1c0909,al
  402bef:	add    BYTE PTR [eax],al
  402bf1:	cli    
  402bf2:	and    eax,0x160033
  402bf7:	add    BYTE PTR [ecx],al
  402bf9:	add    BYTE PTR [eax],al
  402bfb:	add    BYTE PTR [ecx+0x0],dl
  402bfe:	add    BYTE PTR [eax],al
  402c00:	pop    es
  402c01:	add    BYTE PTR [eax],al
  402c03:	add    BYTE PTR [edi],dl
  402c05:	add    BYTE PTR [eax],al
  402c07:	add    BYTE PTR [ecx+0x0],al
  402c0a:	add    BYTE PTR [eax],al
  402c0c:	sub    eax,DWORD PTR [eax]
  402c0e:	add    BYTE PTR [eax],al
  402c10:	add    eax,DWORD PTR [eax]
  402c12:	add    BYTE PTR [eax],al
  402c14:	ja     0x402c16
  402c16:	add    BYTE PTR [eax],al
  402c18:	sbb    DWORD PTR [eax],eax
  402c1a:	add    BYTE PTR [eax],al
  402c1c:	sldt   WORD PTR [eax]
  402c1f:	add    BYTE PTR [ebx],al
  402c21:	add    BYTE PTR [eax],al
  402c23:	add    BYTE PTR [esi],bl
  402c25:	add    BYTE PTR [eax],al
  402c27:	add    BYTE PTR [esi],bl
  402c29:	add    BYTE PTR [eax],al
  402c2b:	add    BYTE PTR [eax+eax*1],cl
  402c2e:	add    BYTE PTR [eax],al
  402c30:	add    DWORD PTR [eax],eax
  402c32:	add    BYTE PTR [eax],al
  402c34:	pop    es
  402c35:	add    BYTE PTR [eax],al
  402c37:	add    BYTE PTR [ecx],al
  402c39:	add    BYTE PTR [eax],al
  402c3b:	add    BYTE PTR [ecx],al
  402c3d:	add    BYTE PTR [eax],al
  402c3f:	add    BYTE PTR [ecx],al
  402c41:	add    BYTE PTR [eax],al
  402c43:	add    BYTE PTR [eax],al
  402c45:	add    BYTE PTR [edx],cl
  402c47:	add    BYTE PTR [ecx],al
  402c49:	add    BYTE PTR [eax],al
  402c4b:	add    BYTE PTR [eax],al
  402c4d:	add    BYTE PTR [esi],al
  402c4f:	add    ah,ch
  402c51:	add    ch,ah
  402c53:	add    BYTE PTR [edx],cl
  402c55:	add    BYTE PTR [edx],dl
  402c57:	add    ebx,edi
  402c59:	add    BYTE PTR [edx],cl
  402c5b:	add    BYTE PTR [ecx+eax*1],bl
  402c5e:	sti    
  402c5f:	add    BYTE PTR [edx],cl
  402c61:	add    BYTE PTR [eax],bh
  402c63:	add    DWORD PTR [eax],ebp
  402c65:	add    DWORD PTR [edx],ecx
  402c67:	add    BYTE PTR [ecx+eax*1-0x5],al
  402c6b:	add    BYTE PTR [esi],al
  402c6d:	add    BYTE PTR [ebp+0x1],dh
  402c70:	pop    edx
  402c71:	add    DWORD PTR [esi],ecx
  402c73:	add    BYTE PTR [ecx+eax*1+0x6015a],ch
  402c7a:	loope  0x402c7d
  402c7c:	in     eax,0x0
  402c7e:	push   es
  402c7f:	add    BYTE PTR [edi],dl
  402c81:	add    al,BYTE PTR ds:0x63000602
  402c87:	add    al,0x5
  402c89:	add    al,BYTE PTR [esi]
  402c8b:	add    BYTE PTR [edi+0x4],bh
  402c8e:	add    eax,0xb2000602
  402c93:	add    al,0x5
  402c95:	add    al,BYTE PTR [esi]
  402c97:	add    ah,dl
  402c99:	add    al,0xe5
  402c9b:	add    BYTE PTR [esi],al
  402c9d:	add    dl,ch
  402c9f:	add    al,0x5
  402ca1:	add    cl,BYTE PTR [edx]
  402ca3:	add    ah,bh
  402ca5:	add    eax,0xa00fb
  402caa:	inc    esp
  402cab:	push   es
  402cac:	and    BYTE PTR [esi],al
  402cae:	push   es
  402caf:	add    BYTE PTR [edi],ah
  402cb1:	pop    es
  402cb2:	or     eax,0x5f000607
  402cb7:	pop    es
  402cb8:	inc    eax
  402cb9:	pop    es
  402cba:	push   es
  402cbb:	add    BYTE PTR [ebx+0x7],dh
  402cbe:	in     eax,0x0
  402cc0:	push   es
  402cc1:	add    BYTE PTR [ecx+0x6020507],cl
  402cc7:	add    BYTE PTR [eax+0x6020507],ah
  402ccd:	add    BYTE PTR [ebp+0x6020507],bh
  402cd3:	add    bl,bl
  402cd5:	pop    es
  402cd6:	add    eax,0xf4000602
  402cdb:	pop    es
  402cdc:	add    eax,0xd000602
  402ce1:	or     BYTE PTR ds:0x28000602,al
  402ce7:	or     BYTE PTR ds:0x41000602,al
  402ced:	or     BYTE PTR ds:0x5e000602,al
  402cf3:	or     BYTE PTR ds:0x95000602,al
  402cf9:	or     BYTE PTR [eax+ecx*1+0x8b70006],al
  402d00:	test   BYTE PTR [eax],cl
  402d02:	push   es
  402d03:	add    cl,bl
  402d05:	or     BYTE PTR ds:0xf4000602,al
  402d0b:	or     BYTE PTR ds:0xd000602,al
  402d11:	or     DWORD PTR ds:0x4b000602,eax
  402d17:	or     DWORD PTR [ebx],ebp
  402d19:	or     DWORD PTR [esi],eax
  402d1b:	add    BYTE PTR [ecx+ecx*1+0x69],bh
  402d1f:	or     DWORD PTR [edi+0x99000],ecx
  402d25:	add    BYTE PTR [esi],al
  402d27:	add    BYTE PTR [edi+0x6092b09],bl
  402d2d:	add    bh,ah
  402d2f:	or     ebp,esp
  402d31:	add    BYTE PTR [esi],al
  402d33:	add    ch,bh
  402d35:	or     ebp,esp
  402d37:	add    BYTE PTR [esi],al
  402d39:	add    BYTE PTR [esi],dh
  402d3b:	or     ah,ch
  402d3d:	add    BYTE PTR [esi],al
  402d3f:	add    BYTE PTR ds:0x600e50a,bh
  402d45:	add    BYTE PTR [edx+ecx*1+0x5],al
  402d49:	add    al,BYTE PTR [esi]
  402d4b:	add    BYTE PTR [eax+0x60a6b0a],al
  402d51:	add    BYTE PTR [ecx+0x1f00e50a],ah
  402d57:	add    dh,al
  402d59:	or     al,BYTE PTR [eax]
  402d5b:	add    BYTE PTR [esi],al
  402d5d:	add    ah,dh
  402d5f:	or     ah,ch
  402d61:	add    BYTE PTR [esi],al
  402d63:	add    BYTE PTR [eax],cl
  402d65:	or     esp,ebp
  402d67:	add    BYTE PTR [esi],al
  402d69:	add    BYTE PTR [edx],dl
  402d6b:	or     esp,ebp
  402d6d:	add    BYTE PTR [esi],al
  402d6f:	add    BYTE PTR [ebx+ecx*1-0x1b],al
  402d73:	add    BYTE PTR [edx],cl
  402d75:	add    BYTE PTR [ebx+ecx*1-0x5],bl
  402d79:	add    BYTE PTR [esi],al
  402d7b:	add    BYTE PTR [edi+0x6015a0b],cl
  402d81:	add    BYTE PTR [ebp+0x600e50b],bl
  402d87:	add    ah,ch
  402d89:	or     ebx,DWORD PTR [edx+0x1]
  402d8c:	push   es
  402d8d:	add    dl,bh
  402d8f:	or     ebx,DWORD PTR [edx+0x1]
  402d92:	push   es
  402d93:	add    BYTE PTR [edx],al
  402d95:	or     al,0x5
  402d97:	add    al,BYTE PTR [esi]
  402d99:	add    BYTE PTR [esi],ch
  402d9b:	or     al,0x5a
  402d9d:	add    DWORD PTR [esi],eax
  402d9f:	add    BYTE PTR [esp+ecx*1],bh
  402da2:	pop    edx
  402da3:	add    DWORD PTR [esi],eax
  402da5:	add    BYTE PTR [esp+ecx*1+0x5],ch
  402da9:	add    al,BYTE PTR [esi]
  402dab:	add    BYTE PTR [ebx+0x602050c],ch
  402db1:	add    ah,dh
  402db3:	or     al,0xe1
  402db5:	or     al,0x6
  402db7:	add    BYTE PTR [edi],al
  402db9:	or     eax,0x60205
  402dbe:	and    DWORD PTR ds:0x6092b,ecx
  402dc4:	jp     0x402dd3
  402dc6:	in     eax,0x0
  402dc8:	push   es
  402dc9:	add    BYTE PTR [ebx+0xa00e50d],ch
  402dcf:	add    BYTE PTR [esi+0xa01280d],dh
  402dd5:	add    bl,ch
  402dd7:	or     eax,0x60128
  402ddc:	xor    al,0xe
  402dde:	sub    ecx,DWORD PTR [ecx]
  402de0:	push   es
  402de1:	add    BYTE PTR [edi+0xe],cl
  402de4:	in     eax,0x0
  402de6:	push   es
  402de7:	add    BYTE PTR [edx+0xe],dh
  402dea:	in     eax,0x0
  402dec:	adc    al,BYTE PTR [eax]
  402dee:	or     DWORD PTR [esi],0x160969
  402df4:	iret   
  402df5:	push   cs
  402df6:	lahf   
  402df7:	push   cs
  402df8:	sbb    al,BYTE PTR [eax]
  402dfa:	or     DWORD PTR [esi],0x60969
  402e00:	clc    
  402e01:	push   cs
  402e02:	out    0xe,eax
  402e04:	push   es
  402e05:	add    BYTE PTR [ebx],cl
  402e07:	syscall 
  402e09:	add    al,BYTE PTR [esi]
  402e0b:	add    BYTE PTR [ecx+0xf],al
  402e0e:	aaa    
  402e0f:	clts   
  402e11:	add    BYTE PTR [edx+0xf],cl
  402e14:	aaa    
  402e15:	clts   
  402e17:	add    BYTE PTR [edi+0xf],ch
  402e1a:	aaa    
  402e1b:	clts   
  402e1d:	add    BYTE PTR [esi+0x60f370f],ch
  402e23:	add    al,ch
  402e25:	movntq QWORD PTR [esi],mm1
  402e28:	push   ds
  402e29:	add    BYTE PTR [ebx+0x10],bl
  402e2c:	sub    dl,BYTE PTR [eax]
  402e2e:	or     al,BYTE PTR [eax]
  402e30:	jne    0x402e42
  402e32:	and    BYTE PTR [esi],al
  402e34:	add    BYTE PTR [eax],al
  402e36:	add    BYTE PTR [eax],al
  402e38:	add    DWORD PTR [eax],eax
  402e3a:	add    BYTE PTR [eax],al
  402e3c:	add    BYTE PTR [eax],al
  402e3e:	add    DWORD PTR [eax],eax
  402e40:	add    DWORD PTR [eax],eax
  402e42:	add    DWORD PTR [eax],eax
  402e44:	adc    BYTE PTR [eax],al
  402e46:	add    BYTE PTR ss:[esi+0x0],cl
  402e4a:	add    eax,0x1000100
  402e4f:	add    BYTE PTR [eax],al
  402e51:	add    BYTE PTR [eax],dl
  402e53:	add    BYTE PTR [eax+eax*1+0x5004e],cl
  402e5a:	add    al,0x0
  402e5c:	or     BYTE PTR [eax],al
  402e5e:	add    BYTE PTR [eax],al
  402e60:	adc    BYTE PTR [eax],al
  402e62:	cmps   BYTE PTR ds:[esi],BYTE PTR es:[edi]
  402e63:	add    BYTE PTR [esi+0x0],cl
  402e66:	or     al,0x0
  402e68:	push   es
  402e69:	add    BYTE PTR ds:0x10000000,bl
  402e6f:	add    BYTE PTR [edx+0x5004e00],bh
  402e75:	add    BYTE PTR [esi],cl
  402e77:	add    BYTE PTR [esi],ch
  402e79:	add    BYTE PTR [ecx],al
  402e7b:	add    BYTE PTR [eax],dl
  402e7d:	add    ah,cl
  402e7f:	add    BYTE PTR [esi+0x0],cl
  402e82:	add    eax,0x37001200
  402e87:	add    BYTE PTR [ecx],al
  402e89:	add    BYTE PTR [eax],dl
  402e8b:	add    al,bl
  402e8d:	add    BYTE PTR [esi+0x0],cl
  402e90:	adc    DWORD PTR [eax],eax
  402e92:	adc    eax,DWORD PTR [eax]
  402e94:	cmp    al,BYTE PTR [eax]
  402e96:	add    DWORD PTR [eax],eax
  402e98:	add    BYTE PTR [ecx],0xa
  402e9b:	add    BYTE PTR [ecx],al
  402e9d:	add    BYTE PTR [eax+0x1001301],dl
  402ea3:	add    BYTE PTR [esi+0x1001c01],dh
  402ea9:	add    BYTE PTR [ebx+0x2],cl
  402eac:	dec    ecx
  402ead:	add    BYTE PTR [ecx],al
  402eaf:	add    BYTE PTR [edx+eax*1+0x4c],dl
  402eb3:	add    BYTE PTR [ecx],al
  402eb5:	add    BYTE PTR [esp+eax*1],ah
  402eb8:	movs   DWORD PTR es:[edi],DWORD PTR ds:[esi]
  402eb9:	add    BYTE PTR [ecx],al
  402ebb:	add    BYTE PTR ds:0x100a904,ch
  402ec1:	add    BYTE PTR [esi],dh
  402ec3:	add    al,0x49
  402ec5:	add    BYTE PTR [ecx],al
  402ec7:	add    BYTE PTR [edx+0x4],cl
  402eca:	dec    ecx
  402ecb:	add    BYTE PTR [ecx],al
  402ecd:	add    BYTE PTR [edi+0x4],dl
  402ed0:	dec    ecx
  402ed1:	add    BYTE PTR [ecx],al
  402ed3:	add    BYTE PTR [ebx+0x4],dh
  402ed6:	lods   eax,DWORD PTR ds:[esi]
  402ed7:	add    BYTE PTR [ecx],al
  402ed9:	add    BYTE PTR [edx+0x100b104],cl
  402edf:	add    BYTE PTR [esi+0x100b104],bl
  402ee5:	add    BYTE PTR [esp+eax*1],ah
  402ee8:	movs   DWORD PTR es:[edi],DWORD PTR ds:[esi]
  402ee9:	add    BYTE PTR [ecx],al
  402eeb:	add    al,ah
  402eed:	add    al,0x49
  402eef:	add    BYTE PTR [ecx],al
  402ef1:	add    ch,ah
  402ef3:	add    al,0x4c
  402ef5:	add    BYTE PTR [ecx],al
  402ef7:	add    bh,dh
  402ef9:	add    al,0xc8
  402efb:	add    BYTE PTR [ecx],dl
  402efd:	add    BYTE PTR ds:0x103a90e,cl
  402f03:	add    BYTE PTR [ebp+eax*1+0x1100a5],ah
  402f0a:	mov    dh,0x1
  402f0c:	sbb    al,0x0
  402f0e:	adc    DWORD PTR [eax],eax
  402f10:	mov    ch,0x5
  402f12:	sbb    al,0x0
  402f14:	adc    DWORD PTR [eax],eax
  402f16:	retf   0x1c05
  402f19:	add    BYTE PTR [ecx],dl
  402f1b:	add    BYTE PTR ds:0x5004260e,cl
  402f21:	and    DWORD PTR [eax],eax
  402f23:	add    BYTE PTR [eax],al
  402f25:	add    BYTE PTR [esi+0x2301c518],al
  402f2b:	add    BYTE PTR [ecx],al
  402f2d:	add    BYTE PTR [ecx+eiz*1+0x0],al
  402f34:	xchg   BYTE PTR [eax],al
  402f36:	retf   
  402f37:	add    DWORD PTR [eax+eax*1],ebp
  402f3a:	add    al,BYTE PTR [eax]
  402f3c:	enter  0x21,0x0
  402f40:	add    BYTE PTR [eax],al
  402f42:	xchg   BYTE PTR [eax],al
  402f44:	out    0x1,al
  402f46:	xor    al,BYTE PTR [eax]
  402f48:	add    eax,DWORD PTR [eax]
  402f4a:	or     al,0x22
  402f4c:	add    BYTE PTR [eax],al
  402f4e:	add    BYTE PTR [eax],al
  402f50:	add    DWORD PTR [eax],0x2c01f6
  402f56:	add    eax,0x227400
  402f5b:	add    BYTE PTR [eax],al
  402f5d:	add    BYTE PTR [ecx+0x3a022000],al
  402f63:	add    BYTE PTR [esi],al
  402f65:	add    BYTE PTR [ebx+eiz*1+0x0],cl
  402f69:	add    BYTE PTR [eax],al
  402f6b:	add    BYTE PTR [ecx+0x32022d00],al
  402f71:	add    BYTE PTR [ecx],cl
  402f73:	add    BYTE PTR [ebx+eiz*1+0x0],ch
  402f77:	add    BYTE PTR [eax],al
  402f79:	add    BYTE PTR [ecx+0x43023e00],al
  402f7f:	add    BYTE PTR [ebx],cl
  402f81:	add    BYTE PTR [edx+0x23],ch
  402f87:	add    BYTE PTR [esi+0x5001c518],al
  402f8d:	add    BYTE PTR [eax+eax*1],cl
  402f90:	shl    BYTE PTR [ebx],0x0
  402f93:	add    BYTE PTR [eax],al
  402f95:	add    dh,al
  402f97:	or     DWORD PTR [ebx+0x2],esp
  402f9a:	push   edi
  402f9b:	add    BYTE PTR [esi],cl
  402f9d:	add    bl,al
  402f9f:	and    eax,DWORD PTR [eax]
  402fa1:	add    BYTE PTR [eax],al
  402fa3:	add    dh,ah
  402fa5:	or     DWORD PTR [edx+eax*1+0x5b],esi
  402fa9:	add    BYTE PTR [esi],cl
  402fab:	add    ah,cl
  402fad:	and    eax,DWORD PTR [eax]
  402faf:	add    BYTE PTR [eax],al
  402fb1:	add    BYTE PTR [esi+0x5b028108],al
  402fb7:	add    BYTE PTR [esi],cl
  402fb9:	add    BYTE PTR [eax],al
  402fbb:	and    al,0x0
  402fbd:	add    BYTE PTR [eax],al
  402fbf:	add    dh,ah
  402fc1:	or     DWORD PTR [edx+0xe005f02],ecx
  402fc7:	add    BYTE PTR [eax],cl
  402fc9:	and    al,0x0
  402fcb:	add    BYTE PTR [eax],al
  402fcd:	add    dh,al
  402fcf:	or     DWORD PTR [ebp+0xe006402],ebx
  402fd5:	add    BYTE PTR [ebx],cl
  402fd7:	and    al,0x0
  402fd9:	add    BYTE PTR [eax],al
  402fdb:	add    dh,al
  402fdd:	or     DWORD PTR [edx+0xe006902],ebp
  402fe3:	add    BYTE PTR [edx],dl
  402fe5:	and    al,0x0
  402fe7:	add    BYTE PTR [eax],al
  402fe9:	add    dh,al
  402feb:	add    DWORD PTR [esi+0xe006e02],edi
  402ff1:	add    BYTE PTR [ecx],bl
  402ff3:	and    al,0x0
  402ff5:	add    BYTE PTR [eax],al
  402ff7:	add    dh,al
  402ff9:	or     eax,ecx
  402ffb:	add    dl,BYTE PTR [edi+0x0]
  402ffe:	verr   WORD PTR [eax]
  403001:	and    al,0x0
  403003:	add    BYTE PTR [eax],al
  403005:	add    dh,al
  403007:	or     esp,edx
  403009:	add    dl,BYTE PTR [edi+0x0]
  40300c:	verr   WORD PTR [edi]
  40300f:	and    al,0x0
  403011:	add    BYTE PTR [eax],al
  403013:	add    dh,al
  403015:	or     ebp,esp
  403017:	add    dl,BYTE PTR [edi+0x0]
  40301a:	verw   WORD PTR [esi]
  40301d:	and    al,0x0
  40301f:	add    BYTE PTR [eax],al
  403021:	add    dh,al
  403023:	or     ecx,edi
  403025:	add    dl,BYTE PTR [edi+0x0]
  403028:	(bad)  
  40302a:	xor    eax,0x24
  40302f:	add    dh,al
  403031:	or     DWORD PTR [edx],ecx
  403033:	add    edx,DWORD PTR [edi+0x0]
  403036:	(bad)  
  403038:	cmp    al,0x24
  40303a:	add    BYTE PTR [eax],al
  40303c:	add    BYTE PTR [eax],al
  40303e:	(bad)  
  40303f:	or     DWORD PTR [eax],esp
  403041:	add    esp,DWORD PTR [eax+eax*1+0xf]
  403045:	add    BYTE PTR [ebx+0x24],al
  403048:	add    BYTE PTR [eax],al
  40304a:	add    BYTE PTR [eax],al
  40304c:	(bad)  
  40304d:	or     DWORD PTR ds:0xf006403,ebp
  403053:	add    BYTE PTR [edx+0x24],cl
  403056:	add    BYTE PTR [eax],al
  403058:	add    BYTE PTR [eax],al
  40305a:	mov    BYTE PTR [ecx],0x39
  40305d:	add    esi,DWORD PTR [eax+eax*1+0xf]
  403061:	add    BYTE PTR [ecx+0x24],dl
  403064:	add    BYTE PTR [eax],al
  403066:	add    BYTE PTR [eax],al
  403068:	mov    BYTE PTR [ecx],0x4a
  40306b:	add    edi,DWORD PTR [eax+0x0]
  40306e:	ltr    WORD PTR [eax+0x24]
  403072:	add    BYTE PTR [eax],al
  403074:	add    BYTE PTR [eax],al
  403076:	mov    BYTE PTR [ecx],0x53
  403079:	add    edi,DWORD PTR [edi+0x0]
  40307c:	adc    al,BYTE PTR [eax]
  40307e:	pop    edi
  40307f:	and    al,0x0
  403081:	add    BYTE PTR [eax],al
  403083:	add    dh,al
  403085:	add    DWORD PTR [edi+0x3],ebx
  403088:	test   DWORD PTR [eax],eax
  40308a:	adc    al,0x0
  40308c:	data16 and al,0x0
  40308f:	add    BYTE PTR [eax],al
  403091:	add    dh,ah
  403093:	add    DWORD PTR [esi+0x3],ebp
  403096:	mov    DWORD PTR [eax],eax
  403098:	adc    al,0x0
  40309a:	ins    DWORD PTR es:[edi],dx
  40309b:	and    al,0x0
  40309d:	add    BYTE PTR [eax],al
  40309f:	add    dh,ah
  4030a1:	or     DWORD PTR [edi+0x3],edi
  4030a4:	push   edi
  4030a5:	add    BYTE PTR ds:0x247400,dl
  4030ab:	add    BYTE PTR [eax],al
  4030ad:	add    BYTE PTR [esi-0x4afe3ae8],al
  4030b3:	add    BYTE PTR ds:0x255c00,dl
  4030b9:	add    BYTE PTR [eax],al
  4030bb:	add    BYTE PTR [ecx-0x3ffb4300],al
  4030c1:	add    BYTE PTR [ecx],bl
  4030c3:	add    BYTE PTR [esi+eiz*1],dh
  4030c6:	add    BYTE PTR [eax],al
  4030c8:	add    BYTE PTR [eax],al
  4030ca:	(bad)  
  4030cb:	or     BYTE PTR [ebx+0x2],ah
  4030ce:	push   edi
  4030cf:	add    BYTE PTR [ebx],bl
  4030d1:	add    BYTE PTR [edi],dh
  4030d3:	add    BYTE PTR es:[eax],al
  4030d6:	add    BYTE PTR [eax],al
  4030d8:	(bad)  
  4030d9:	or     BYTE PTR [ebp+0x1b006402],bl
  4030df:	add    BYTE PTR [edi],bh
  4030e1:	add    BYTE PTR es:[eax],al
  4030e4:	add    BYTE PTR [eax],al
  4030e6:	(bad)  
  4030e7:	or     BYTE PTR [edx+0x1b006902],ch
  4030ed:	add    BYTE PTR [eax+0x26],bl
  4030f0:	add    BYTE PTR [eax],al
  4030f2:	add    BYTE PTR [eax],al
  4030f4:	(bad)  
  4030f5:	or     al,cl
  4030f7:	add    dl,BYTE PTR [edi+0x0]
  4030fa:	sbb    eax,DWORD PTR [eax]
  4030fc:	gs add BYTE PTR es:[eax],al
  403100:	add    BYTE PTR [eax],al
  403102:	(bad)  
  403103:	or     BYTE PTR [edx],cl
  403105:	add    edx,DWORD PTR [edi+0x0]
  403108:	sbb    eax,DWORD PTR [eax]
  40310a:	push   0x26
  40310f:	add    dh,al
  403111:	or     ah,dl
  403113:	add    dl,BYTE PTR [edi+0x0]
  403116:	sbb    eax,DWORD PTR [eax]
  403118:	jbe    0x403140
  40311a:	add    BYTE PTR [eax],al
  40311c:	add    BYTE PTR [eax],al
  40311e:	(bad)  
  40311f:	or     ch,ah
  403121:	add    dl,BYTE PTR [edi+0x0]
  403124:	sbb    eax,DWORD PTR [eax]
  403126:	test   BYTE PTR [esi],ah
  403128:	add    BYTE PTR [eax],al
  40312a:	add    BYTE PTR [eax],al
  40312c:	(bad)  
  40312d:	or     cl,bh
  40312f:	add    dl,BYTE PTR [edi+0x0]
  403132:	sbb    eax,DWORD PTR [eax]
  403134:	xchg   edx,eax
  403135:	add    BYTE PTR es:[eax],al
  403138:	add    BYTE PTR [eax],al
  40313a:	(bad)  
  40313b:	or     BYTE PTR ds:0x1b006403,ch
  403141:	add    BYTE PTR [ebp+0x26],ah
  403147:	add    dh,al
  403149:	or     BYTE PTR [eax],ah
  40314b:	add    esp,DWORD PTR [eax+eax*1+0x1b]
  40314f:	add    BYTE PTR [eax+0x26],bh
  403155:	add    dh,al
  403157:	add    BYTE PTR [esi+0x1b006e02],bh
  40315d:	add    cl,bl
  40315f:	add    BYTE PTR es:[eax],al
  403162:	add    BYTE PTR [eax],al
  403164:	mov    BYTE PTR [eax],0x39
  403167:	add    esi,DWORD PTR [eax+eax*1+0x1c]
  40316b:	add    ah,ch
  40316d:	add    BYTE PTR es:[eax],al
  403170:	add    BYTE PTR [eax],al
  403172:	mov    BYTE PTR [eax],0x4a
  403175:	add    edi,DWORD PTR [eax+0x0]
  403178:	sbb    al,0x0
  40317a:	sbb    BYTE PTR [edi],ah
  40317c:	add    BYTE PTR [eax],al
  40317e:	add    BYTE PTR [eax],al
  403180:	mov    BYTE PTR [eax],0x53
  403183:	add    edi,DWORD PTR [edi+0x0]
  403186:	pop    ds
  403187:	add    BYTE PTR [esi],bh
  403189:	daa    
  40318a:	add    BYTE PTR [eax],al
  40318c:	add    BYTE PTR [eax],al
  40318e:	mov    BYTE PTR [eax],0x5f
  403191:	add    eax,DWORD PTR [ebp+0x50002100]
  403197:	daa    
  403198:	add    BYTE PTR [eax],al
  40319a:	add    BYTE PTR [eax],al
  40319c:	xchg   BYTE PTR [eax],bl
  40319e:	lds    eax,FWORD PTR [ecx]
  4031a0:	int3   
  4031a1:	add    BYTE PTR [ecx],ah
  4031a3:	add    BYTE PTR [edi+eiz*1+0x0],al
  4031aa:	out    0x9,al
  4031ac:	add    DWORD PTR [edx],0x24005b
  4031b2:	mov    WORD PTR [edi],fs
  4031b4:	add    BYTE PTR [eax],al
  4031b6:	add    BYTE PTR [eax],al
  4031b8:	out    0x9,al
  4031ba:	add    al,0x5
  4031bc:	add    BYTE PTR fs:[eax+eax*1],ah
  4031c0:	mov    ecx,0x27
  4031c5:	add    dh,ah
  4031c7:	or     DWORD PTR ds:0x24006405,ecx
  4031cd:	add    ch,al
  4031cf:	daa    
  4031d0:	add    BYTE PTR [eax],al
  4031d2:	add    BYTE PTR [eax],al
  4031d4:	out    0x9,al
  4031d6:	sbb    al,0x5
  4031d8:	push   edi
  4031d9:	add    BYTE PTR [eax+eax*1],ah
  4031dc:	enter  0x27,0x0
  4031e0:	add    BYTE PTR [eax],al
  4031e2:	out    0x9,al
  4031e4:	sub    eax,0x24005705
  4031e9:	add    bl,cl
  4031eb:	daa    
  4031ec:	add    BYTE PTR [eax],al
  4031ee:	add    BYTE PTR [eax],al
  4031f0:	out    0x9,al
  4031f2:	inc    esi
  4031f3:	add    eax,0x240057
  4031f8:	jmp    0xe600:0x27
  4031ff:	add    DWORD PTR [ebp+0x5],edx
  403202:	aad    0x0
  403204:	and    al,0x0
  403206:	and    BYTE PTR [eax],ch
  403208:	add    BYTE PTR [eax],al
  40320a:	add    BYTE PTR [eax],al
  40320c:	out    0x1,al
  40320e:	pop    esi
  40320f:	add    eax,0x25007f
  403214:	nop
  403215:	sub    BYTE PTR [eax],al
  403217:	add    BYTE PTR [eax],al
  403219:	add    BYTE PTR [esi-0x25fa6100],dl
  40321f:	add    BYTE PTR [edi],ah
  403221:	add    BYTE PTR [edx],dh
  403223:	sub    DWORD PTR [eax],eax
  403225:	add    BYTE PTR [eax],al
  403227:	add    BYTE PTR [esi-0x7afe3ae8],al
  40322d:	add    BYTE PTR [eax],ch
  40322f:	add    BYTE PTR [esi+0x28],al
  403235:	add    BYTE PTR [ecx-0x5df22200],dl
  40323b:	add    ebp,DWORD PTR [eax]
  40323d:	add    BYTE PTR [ecx+ebp*1],bh
  403240:	add    BYTE PTR [eax],al
  403242:	add    BYTE PTR [eax],al
  403244:	add    DWORD PTR [eax],0x8505dd
  40324a:	sub    DWORD PTR [eax],eax
  40324c:	aam    0x29
  40324e:	add    BYTE PTR [eax],al
  403250:	add    BYTE PTR [eax],al
  403252:	out    0x1,al
  403254:	lock add eax,0x29002c
  40325a:	daa    
  40325b:	sub    al,BYTE PTR [eax]
  40325d:	add    BYTE PTR [eax],al
  40325f:	add    dh,ah
  403261:	add    DWORD PTR [esi+eax*1],ecx
  403264:	loopne 0x403266
  403266:	sub    al,BYTE PTR [eax]
  403268:	mov    WORD PTR [edx],gs
  40326a:	add    BYTE PTR [eax],al
  40326c:	add    BYTE PTR [eax],al
  40326e:	les    eax,FWORD PTR [eax]
  403270:	pop    ebp
  403271:	push   es
  403272:	out    0x0,al
  403274:	sub    al,BYTE PTR [eax]
  403276:	retf   
  403277:	sub    al,BYTE PTR [eax]
  403279:	add    BYTE PTR [eax],al
  40327b:	add    dh,ah
  40327d:	add    eax,esi
  40327f:	add    eax,0x2b00ec
  403284:	imul   ebp,DWORD PTR [ebx],0x0
  403287:	add    BYTE PTR [eax],al
  403289:	add    BYTE PTR [esi-0x7afe3ae8],al
  40328f:	add    BYTE PTR [eax+eax*1],ch
  403292:	xor    BYTE PTR [edx],ch
  403294:	add    BYTE PTR [eax],al
  403296:	add    BYTE PTR [eax],al
  403298:	xchg   ecx,eax
  403299:	add    bh,dl
  40329b:	mov    cr0,esp
  40329e:	sub    al,0x0
  4032a0:	fsubr  QWORD PTR [edx]
  4032a2:	add    BYTE PTR [eax],al
  4032a4:	add    BYTE PTR [eax],al
  4032a6:	xchg   ecx,eax
  4032a7:	sbb    BYTE PTR [ebp+0x2c042210],cl
  4032ad:	add    BYTE PTR [eax],al
  4032af:	add    BYTE PTR [ecx],al
  4032b1:	add    BYTE PTR [esi+0x1000001],dh
  4032b7:	add    BYTE PTR [eax+0x6],ch
  4032ba:	add    BYTE PTR [eax],al
  4032bc:	add    DWORD PTR [eax],eax
  4032be:	in     eax,0x4
  4032c0:	add    BYTE PTR [eax],al
  4032c2:	add    al,BYTE PTR [eax]
  4032c4:	jne    0x4032cc
  4032c6:	add    BYTE PTR [eax],al
  4032c8:	add    DWORD PTR [eax],eax
  4032ca:	push   0x1000006
  4032cf:	add    BYTE PTR [eax+0x2000006],al
  4032d5:	add    BYTE PTR [ecx+0x3000006],cl
  4032db:	add    BYTE PTR [edx+0x1000006],dl
  4032e1:	add    ch,ah
  4032e3:	add    al,0x0
  4032e5:	add    BYTE PTR [edx],al
  4032e7:	add    BYTE PTR [eax+0x1000006],ah
  4032ed:	add    BYTE PTR [edi+0x1000006],ch
  4032f3:	add    BYTE PTR [ebx+0x2],cl
  4032f6:	add    BYTE PTR [eax],al
  4032f8:	add    al,BYTE PTR [eax]
  4032fa:	push   esp
  4032fb:	add    al,BYTE PTR [eax]
  4032fd:	add    BYTE PTR [ecx],al
  4032ff:	add    al,ah
  403301:	add    al,0x0
  403303:	add    BYTE PTR [ecx],al
  403305:	add    BYTE PTR [esi+eax*1+0x20000],bh
  40330c:	lds    eax,FWORD PTR [esi]
  40330e:	add    BYTE PTR [eax],al
  403310:	add    eax,DWORD PTR [eax]
  403312:	leave  
  403313:	push   es
  403314:	add    BYTE PTR [eax],al
  403316:	add    DWORD PTR [eax],eax
  403318:	mov    esp,0x2000006
  40331d:	add    cl,cl
  40331f:	push   es
  403320:	add    BYTE PTR [eax],al
  403322:	add    DWORD PTR [eax],eax
  403324:	into   
  403325:	push   es
  403326:	add    BYTE PTR [eax],al
  403328:	add    DWORD PTR [eax],eax
  40332a:	and    al,0x4
  40332c:	add    BYTE PTR [eax],al
  40332e:	add    al,BYTE PTR [eax]
  403330:	dec    ebx
  403331:	add    al,BYTE PTR [eax]
  403333:	add    BYTE PTR [ebx],al
  403335:	add    ah,dl
  403337:	push   es
  403338:	add    BYTE PTR [eax],al
  40333a:	add    al,0x0
  40333c:	sub    eax,0x1000004
  403341:	add    ch,bl
  403343:	push   es
  403344:	add    BYTE PTR [eax],al
  403346:	add    al,BYTE PTR [eax]
  403348:	call   0x1403353
  40334d:	add    al,ah
  40334f:	add    al,0x0
  403351:	add    BYTE PTR [ecx],al
  403353:	add    BYTE PTR [esi+eax*1+0x20000],bh
  40335a:	lds    eax,FWORD PTR [esi]
  40335c:	add    BYTE PTR [eax],al
  40335e:	add    eax,DWORD PTR [eax]
  403360:	leave  
  403361:	push   es
  403362:	add    BYTE PTR [eax],al
  403364:	add    DWORD PTR [eax],eax
  403366:	mov    esp,0x2000006
  40336b:	add    cl,cl
  40336d:	push   es
  40336e:	add    BYTE PTR [eax],al
  403370:	add    DWORD PTR [eax],eax
  403372:	and    al,0x4
  403374:	add    BYTE PTR [eax],al
  403376:	add    al,BYTE PTR [eax]
  403378:	loopne 0x40337e
  40337a:	add    BYTE PTR [eax],al
  40337c:	add    eax,DWORD PTR [eax]
  40337e:	in     eax,0x4
  403380:	add    BYTE PTR [eax],al
  403382:	add    DWORD PTR [eax],eax
  403384:	mov    esp,0x1000006
  403389:	add    BYTE PTR [esi+eax*1+0x20000],bh
  403390:	into   
  403391:	push   es
  403392:	add    BYTE PTR [eax],al
  403394:	add    DWORD PTR [eax],eax
  403396:	test   DWORD PTR [esi],0x10000
  40339c:	jmp    0x14033ae
  4033a1:	add    ah,bh
  4033a3:	push   es
  4033a4:	add    BYTE PTR [eax],al
  4033a6:	add    DWORD PTR [eax],eax
  4033a8:	test   DWORD PTR [esi],0x10000
  4033ae:	in     eax,0x4
  4033b0:	add    eax,DWORD PTR [eax]
  4033b2:	or     DWORD PTR [eax],eax
  4033b4:	add    eax,0x7000d00
  4033b9:	add    BYTE PTR ds:0xc5008900,dl
  4033bf:	add    ebx,esi
  4033c1:	add    BYTE PTR [ecx-0x7fe3b00],dl
  4033c7:	add    BYTE PTR [ecx-0x7fe3b00],bl
  4033cd:	add    BYTE PTR [ecx-0xcfe3b00],ah
  4033d3:	add    BYTE PTR [ecx-0xcfe3b00],ch
  4033d9:	add    BYTE PTR [ecx-0xcfe3b00],dh
  4033df:	add    BYTE PTR [ecx-0xcfe3b00],bh
  4033e5:	add    cl,al
  4033e7:	add    ch,al
  4033e9:	add    ebx,esi
  4033eb:	add    cl,cl
  4033ed:	add    ch,al
  4033ef:	add    ebx,esi
  4033f1:	add    cl,dl
  4033f3:	add    ch,al
  4033f5:	add    ebx,esi
  4033f7:	add    cl,bl
  4033f9:	add    ch,al
  4033fb:	add    ebx,esi
  4033fd:	add    cl,ah
  4033ff:	add    ch,al
  403401:	add    ebx,esi
  403403:	add    cl,ch
  403405:	add    ch,al
  403407:	add    ebx,esi
  403409:	add    cl,dh
  40340b:	add    ch,al
  40340d:	add    ebx,esi
  40340f:	add    cl,bh
  403411:	add    ch,al
  403413:	add    eax,edi
  403415:	add    BYTE PTR [ecx],al
  403417:	add    ebp,eax
  403419:	add    ebx,esi
  40341b:	add    BYTE PTR [ecx],cl
  40341d:	add    ebp,eax
  40341f:	add    ebp,edi
  403421:	add    BYTE PTR [ecx],dl
  403423:	add    ebp,eax
  403425:	add    DWORD PTR [ebp-0x3afee700],eax
  40342b:	add    DWORD PTR [ebx],eax
  40342d:	add    DWORD PTR [ecx],ebp
  40342f:	add    ebp,eax
  403431:	add    DWORD PTR [edx],ecx
  403433:	add    DWORD PTR [eax+eax*1],ecx
  403436:	lds    eax,FWORD PTR [ecx]
  403438:	test   DWORD PTR [eax],eax
  40343a:	adc    al,0x0
  40343c:	lds    eax,FWORD PTR [ecx]
  40343e:	test   DWORD PTR [eax],eax
  403440:	or     DWORD PTR [eax],eax
  403442:	lds    eax,FWORD PTR [ecx]
  403444:	test   DWORD PTR [eax],eax
  403446:	xor    DWORD PTR [ecx],eax
  403448:	lds    eax,FWORD PTR [ecx]
  40344a:	repz add BYTE PTR [ecx],bh
  40344d:	add    DWORD PTR [edx+ecx*1],eax
  403450:	mov    DWORD PTR [ecx],0xa12000c
  403456:	int3   
  403457:	add    DWORD PTR [eax+eax*1],ecx
  40345a:	push   ds
  40345b:	or     dl,ch
  40345d:	add    DWORD PTR [eax+eax*1],edx
  403460:	adc    cl,BYTE PTR [edx]
  403462:	int3   
  403463:	add    DWORD PTR [eax+eax*1],edx
  403466:	push   ds
  403467:	or     dl,ch
  403469:	add    DWORD PTR [ecx+0x0],eax
  40346c:	and    cl,BYTE PTR [edx]
  40346e:	out    0x1,eax
  403470:	inc    ecx
  403471:	add    BYTE PTR [edx],ch
  403473:	or     ch,ch
  403475:	add    DWORD PTR [eax+eax*1],ebx
  403478:	lds    eax,FWORD PTR [ecx]
  40347a:	add    DWORD PTR [edx],eax
  40347c:	inc    ecx
  40347d:	add    BYTE PTR [edx],ah
  40347f:	or     al,BYTE PTR [edi]
  403481:	add    al,BYTE PTR [ecx+0x0]
  403484:	popf   
  403485:	add    bl,BYTE PTR [edi+0x0]
  403488:	inc    ecx
  403489:	add    BYTE PTR [ecx+0xa],dl
  40348c:	pop    ebx
  40348d:	add    BYTE PTR [ecx+0x1],bl
  403490:	mov    WORD PTR [edx],cs
  403492:	daa    
  403493:	add    bh,BYTE PTR [ecx]
  403495:	add    DWORD PTR [ecx+0x41022d0a],esi
  40349b:	add    BYTE PTR [eax+0x2401ed0a],bh
  4034a1:	add    cl,dl
  4034a3:	or     bh,BYTE PTR ds:0xdf002c02
  4034a9:	or     cl,BYTE PTR [esi+0x2]
  4034ac:	sub    al,0x0
  4034ae:	jmp    0x4034ba
  4034b0:	push   edi
  4034b1:	add    BYTE PTR [ecx+0x1],dh
  4034b4:	add    BYTE PTR [ebx],cl
  4034b6:	test   DWORD PTR [eax],eax
  4034b8:	inc    ecx
  4034b9:	add    BYTE PTR [edx+eax*1+0x5b],dh
  4034bd:	add    BYTE PTR [ecx],bh
  4034bf:	add    DWORD PTR [ebx],esp
  4034c1:	or     esp,DWORD PTR [ebp+0x2]
  4034c4:	cmp    DWORD PTR [ecx],eax
  4034c6:	or     esi,DWORD PTR cs:[ecx+0x2]
  4034ca:	cmp    DWORD PTR [ecx],eax
  4034cc:	cmp    cl,BYTE PTR [ebx]
  4034ce:	jbe    0x4034d2
  4034d0:	mov    DWORD PTR [ecx],eax
  4034d2:	lds    eax,FWORD PTR [ecx]
  4034d4:	test   DWORD PTR [eax],eax
  4034d6:	inc    ecx
  4034d7:	add    BYTE PTR [ebp+0xb],dh
  4034da:	test   DWORD PTR [edx],eax
  4034dc:	inc    ecx
  4034dd:	add    BYTE PTR [eax+0x41028a0b],al
  4034e3:	add    BYTE PTR [edi+0x61029a0b],ch
  4034e9:	add    BYTE PTR [ecx+0x41005b02],al
  4034ef:	add    cl,al
  4034f1:	or     esp,DWORD PTR [edx-0x31ffbefe]
  4034f7:	or     ebp,DWORD PTR [eax-0x27ffbefe]
  4034fd:	or     ebp,DWORD PTR [esi+0x16006102]
  403503:	or     al,0xc9
  403505:	add    al,BYTE PTR [eax+eax*1-0x2f]
  403509:	or     bl,ch
  40350b:	add    cl,BYTE PTR [eax+eax*1-0x21]
  40350f:	or     cl,BYTE PTR [esi+0x2]
  403512:	mov    ecx,0xf00c4a01
  403517:	add    ah,BYTE PTR [ecx+0x0]
  40351a:	pop    edx
  40351b:	or     al,0x5f
  40351d:	add    BYTE PTR [ecx-0x7f376ff],bh
  403523:	add    bl,BYTE PTR [eax+eax*1-0x2f]
  403527:	or     bl,ch
  403529:	add    ah,BYTE PTR [eax+eax*1-0x21]
  40352d:	or     cl,BYTE PTR [esi+0x2]
  403530:	rol    DWORD PTR [ecx],1
  403532:	pushf  
  403533:	or     al,0x15
  403535:	add    edi,DWORD PTR [ecx]
  403537:	add    DWORD PTR [eax-0x2efce5f6],edi
  40353d:	add    eax,ecx
  40353f:	or     al,0x20
  403541:	add    ebx,ecx
  403543:	add    edi,edx
  403545:	or     al,0x74
  403547:	add    cl,ah
  403549:	add    ebx,ebp
  40354b:	or     dl,BYTE PTR [edi+0x0]
  40354e:	inc    ecx
  40354f:	add    al,cl
  403551:	add    dl,BYTE PTR [edi+0x0]
  403554:	pop    ecx
  403555:	add    BYTE PTR [eax+0x51034b0a],bh
  40355b:	add    BYTE PTR [eax+0x5103530a],bh
  403561:	add    BYTE PTR [eax],al
  403563:	or     eax,0x1e9035b
  403568:	add    BYTE PTR ds:0x410361,cl
  40356e:	adc    cl,BYTE PTR ds:0x1f1036d
  403574:	xor    BYTE PTR ds:0x410373,cl
  40357a:	inc    esp
  40357b:	or     eax,0x71037a
  403580:	mov    eax,0x7103800a
  403585:	add    BYTE PTR [eax+0xd],dl
  403588:	pop    edi
  403589:	add    BYTE PTR [ecx-0xcfe3aff],cl
  40358f:	add    BYTE PTR [ecx+0x0],dh
  403592:	popa   
  403593:	or     eax,0x710057
  403598:	ins    DWORD PTR es:[edi],dx
  403599:	or     eax,0x710057
  40359e:	push   ebp
  40359f:	add    eax,0x1f90361
  4035a4:	lds    eax,FWORD PTR [ecx]
  4035a6:	repz add BYTE PTR [ecx+0x0],al
  4035aa:	xchg   esp,eax
  4035ab:	or     eax,0x410057
  4035b0:	lahf   
  4035b1:	or     eax,0x2010388
  4035b6:	mov    al,0xd
  4035b8:	lea    eax,[ebx]
  4035ba:	jno    0x4035bc
  4035bc:	pop    esi
  4035bd:	add    eax,0x2190394
  4035c2:	lds    eax,FWORD PTR [ecx]
  4035c4:	test   DWORD PTR [eax],eax
  4035c6:	and    DWORD PTR [edx],eax
  4035c8:	pop    ebx
  4035c9:	push   cs
  4035ca:	mov    bl,0x3
  4035cc:	sub    DWORD PTR [edx],eax
  4035ce:	js     0x4035de
  4035d0:	mov    eax,0x8c020103
  4035d5:	push   cs
  4035d6:	mov    edi,0x96020103
  4035db:	push   cs
  4035dc:	mov    BYTE PTR [ebx],0x39
  4035df:	add    bl,al
  4035e1:	push   cs
  4035e2:	(bad)  
  4035e3:	add    ecx,DWORD PTR [ecx+0x2]
  4035e6:	dec    DWORD PTR [esi]
  4035e8:	fld    QWORD PTR [ebx]
  4035ea:	adc    DWORD PTR [edx],eax
  4035ec:	lds    eax,FWORD PTR [ecx]
  4035ee:	add    DWORD PTR [edx],eax
  4035f0:	and    DWORD PTR [eax],eax
  4035f2:	add    eax,0x2403e20f
  4035f7:	add    ch,al
  4035f9:	add    DWORD PTR [ebp+0x12004100],eax
  4035ff:	pxor   mm0,QWORD PTR [ebx]
  403602:	push   ecx
  403603:	add    bl,BYTE PTR ds:0x4903f50f
  403609:	add    BYTE PTR [edx],ch
  40360b:	cvtdq2ps xmm0,XMMWORD PTR [eax]
  40360e:	pop    ecx
  40360f:	add    al,ch
  403611:	add    ebx,esi
  403613:	add    BYTE PTR [ecx+0x2],bl
  403616:	pop    eax
  403617:	psubd  mm0,QWORD PTR [ebx]
  40361a:	popa   
  40361b:	add    ah,BYTE PTR [esi+0xf]
  40361e:	add    BYTE PTR [ecx+ebp*2],al
  403621:	add    al,BYTE PTR [ecx+0x39005b02]
  403627:	add    DWORD PTR [esi+0xf],edi
  40362a:	pop    ebx
  40362b:	add    BYTE PTR [eax+eax*1],ah
  40362e:	xchg   BYTE PTR [edi],cl
  403630:	pop    es
  403631:	add    al,0x69
  403633:	add    cl,BYTE PTR [edi+0x39005b0f]
  403639:	add    DWORD PTR [ebp+0x71005b0f],ebx
  40363f:	add    dh,BYTE PTR [ebx+0x2403b30f]
  403645:	add    BYTE PTR [esi],bl
  403647:	or     al,BYTE PTR [edi]
  403649:	add    al,0x39
  40364b:	add    edi,ecx
  40364d:	prefetchnta BYTE PTR [ecx+eax*4]
  403651:	add    al,ch
  403653:	add    DWORD PTR [ebp+0x6c028100],eax
  403659:	adc    BYTE PTR [ebx],ch
  40365b:	add    al,0x21
  40365d:	add    dh,BYTE PTR [eax+0x10]
  403660:	fld    QWORD PTR [ebx]
  403662:	add    DWORD PTR [eax],0x4391084
  403668:	jns    0x40366c
  40366a:	lds    eax,FWORD PTR [ecx]
  40366c:	add    DWORD PTR [edx],eax
  40366e:	dec    ecx
  40366f:	add    al,ch
  403671:	add    DWORD PTR [edi],edi
  403673:	add    al,0x49
  403675:	add    al,BYTE PTR ds:0x2400850f
  40367b:	add    ch,al
  40367d:	add    DWORD PTR [esp+eax*1+0x21],ecx
  403681:	add    ch,al
  403683:	add    DWORD PTR [ebp+0x3b002e00],eax
  403689:	add    ch,cl
  40368b:	add    al,0x2e
  40368d:	add    BYTE PTR [ebx+0x2e090a00],ah
  403693:	add    BYTE PTR [ebx],cl
  403695:	add    BYTE PTR [esi+0x4],bl
  403698:	add    BYTE PTR cs:[ebx],dl
  40369b:	add    BYTE PTR [ecx+0x1b002e01],dh
  4036a1:	add    BYTE PTR [esi+0x23002e04],dl
  4036a7:	add    BYTE PTR [esp+eax*1+0x2b002e],bl
  4036ae:	pushf  
  4036af:	add    al,0x2e
  4036b1:	add    BYTE PTR [ebx],dh
  4036b3:	add    BYTE PTR [esp+eax*1+0x43002e],bl
  4036ba:	call   0x4b4064c3
  4036bf:	add    BYTE PTR [esi],cl
  4036c1:	add    eax,0x5b002e
  4036c6:	inc    edx
  4036c7:	add    eax,0x63002e
  4036cc:	inc    edx
  4036cd:	add    eax,0x6b002e
  4036d2:	push   esp
  4036d3:	add    eax,0x73002e
  4036d8:	bound  eax,QWORD PTR ds:0x7b002e
  4036de:	xchg   esi,eax
  4036df:	add    al,0x2e
  4036e1:	add    BYTE PTR [ebx+0x2e056d00],al
  4036e7:	add    BYTE PTR [ebx+0x2e059800],cl
  4036ed:	add    BYTE PTR [ebx+0x2e08e200],dl
  4036f3:	add    BYTE PTR [ebx+0x43090100],bl
  4036f9:	add    BYTE PTR [ebx],bl
  4036fb:	add    BYTE PTR [ecx+0x1b00e301],dh
  403701:	add    BYTE PTR [ecx-0x44fdbeff],dh
  403707:	add    ch,BYTE PTR [esi-0x44fd1efd]
  40370d:	add    ch,BYTE PTR [esi-0x44f8dffd]
  403713:	add    ch,BYTE PTR [esi-0x44f7fffd]
  403719:	add    ch,BYTE PTR [esi-0x1dfe22fd]
  40371f:	add    DWORD PTR [edx],esp
  403721:	add    dl,BYTE PTR [ebx+0x2]
  403724:	ins    DWORD PTR es:[edi],dx
  403725:	add    bh,BYTE PTR [ebx+0x2]
  403728:	mov    ebx,0x68032602
  40372d:	add    ebx,DWORD PTR [ebx+eax*1+0x40d03e9]
  403734:	xor    DWORD PTR [esi+eax*2],eax
  403737:	add    al,0x57
  403739:	add    al,0x3
  40373b:	add    BYTE PTR [ecx],al
  40373d:	add    BYTE PTR [eax+eax*1],al
  403740:	sldt   WORD PTR ds:0x1900
  403747:	add    BYTE PTR [esi],bh
  403749:	add    cl,BYTE PTR [esi-0x72000000]
  40374f:	add    edx,DWORD PTR [edx-0x69000000]
  403755:	add    edx,DWORD PTR [edx-0x64000000]
  40375b:	add    edx,DWORD PTR [esi-0x55000000]
  403761:	add    ebx,DWORD PTR [ebx-0x4c000000]
  403767:	add    esp,DWORD PTR [eax-0x3c000000]
  40376d:	add    ecx,DWORD PTR [esi-0x34000000]
  403773:	add    ecx,DWORD PTR [esi-0x27000000]
  403779:	add    ecx,DWORD PTR [esi-0x17000000]
  40377f:	add    ecx,DWORD PTR [esi-0xa000000]
  403785:	add    ecx,DWORD PTR [esi+0x8000000]
  40378b:	add    al,0x9b
  40378d:	add    BYTE PTR [eax],al
  40378f:	add    BYTE PTR [ecx],dl
  403791:	add    al,0x9b
  403793:	add    BYTE PTR [eax],al
  403795:	add    BYTE PTR [ecx],bl
  403797:	add    al,0x8e
  403799:	add    BYTE PTR [eax],al
  40379b:	add    BYTE PTR [esi],bh
  40379d:	add    cl,BYTE PTR [esi-0x55000000]
  4037a3:	add    ebx,DWORD PTR [ebx-0x4c000000]
  4037a9:	add    esp,DWORD PTR [eax-0x3c000000]
  4037af:	add    ecx,DWORD PTR [esi-0xa000000]
  4037b5:	add    ecx,DWORD PTR [esi-0x34000000]
  4037bb:	add    ecx,DWORD PTR [esi-0x27000000]
  4037c1:	add    ecx,DWORD PTR [esi-0x17000000]
  4037c7:	add    ecx,DWORD PTR [esi+0x11000000]
  4037cd:	add    al,0x9b
  4037cf:	add    BYTE PTR [eax],al
  4037d1:	add    BYTE PTR [eax],cl
  4037d3:	add    al,0x9b
  4037d5:	add    BYTE PTR [eax],al
  4037d7:	add    BYTE PTR [edi+0x9203],dl
  4037dd:	add    cl,ah
  4037df:	add    DWORD PTR [ebx+0x67000000],ebx
  4037e5:	add    eax,0x9b
  4037ea:	jb     0x4037f1
  4037ec:	mov    es,WORD PTR [eax]
  4037ee:	add    BYTE PTR [eax],al
  4037f0:	jg     0x4037f7
  4037f2:	mov    es,WORD PTR [eax]
  4037f4:	add    BYTE PTR [eax],al
  4037f6:	xchg   esp,eax
  4037f7:	add    eax,0x2008e
  4037fc:	or     DWORD PTR [eax],eax
  4037fe:	add    eax,DWORD PTR [eax]
  403800:	add    al,BYTE PTR [eax]
  403802:	or     al,BYTE PTR [eax]
  403804:	add    eax,0xb000200
  403809:	add    BYTE PTR [edi],al
  40380b:	add    BYTE PTR [edx],al
  40380d:	add    BYTE PTR [eax+eax*1],cl
  403810:	or     DWORD PTR [eax],eax
  403812:	add    al,BYTE PTR [eax]
  403814:	or     eax,0x2000b00
  403819:	add    BYTE PTR [esi],cl
  40381b:	add    BYTE PTR ds:0x10000200,cl
  403821:	add    BYTE PTR [edi],cl
  403823:	add    BYTE PTR [edx],al
  403825:	add    BYTE PTR [ecx],dl
  403827:	add    BYTE PTR [ecx],dl
  403829:	add    BYTE PTR [edx],al
  40382b:	add    BYTE PTR [edx],dl
  40382d:	add    BYTE PTR [ebx],dl
  40382f:	add    BYTE PTR [edx],al
  403831:	add    BYTE PTR [ebx],dl
  403833:	add    BYTE PTR ds:0x14000200,dl
  403839:	add    BYTE PTR [edi],dl
  40383b:	add    BYTE PTR [edx],al
  40383d:	add    BYTE PTR ds:0x2001900,dl
  403843:	add    BYTE PTR [esi],dl
  403845:	add    BYTE PTR [ebx],bl
  403847:	add    BYTE PTR [edx],al
  403849:	add    BYTE PTR [eax+eax*1],bl
  40384c:	sbb    eax,0x1f000200
  403851:	add    BYTE PTR [edi],bl
  403853:	add    BYTE PTR [edx],al
  403855:	add    BYTE PTR [eax],ah
  403857:	add    BYTE PTR [ecx],ah
  403859:	add    BYTE PTR [edx],al
  40385b:	add    BYTE PTR [ecx],ah
  40385d:	add    BYTE PTR [ebx],ah
  40385f:	add    BYTE PTR [edx],al
  403861:	add    BYTE PTR [edx],ah
  403863:	add    BYTE PTR ds:0x23000200,ah
  403869:	add    BYTE PTR [edi],ah
  40386b:	add    BYTE PTR [edx],al
  40386d:	add    BYTE PTR [eax+eax*1],ah
  403870:	sub    DWORD PTR [eax],eax
  403872:	add    al,BYTE PTR [eax]
  403874:	and    eax,0x2002b00
  403879:	add    BYTE PTR [esi],ah
  40387b:	add    BYTE PTR ds:0x27000200,ch
  403881:	add    BYTE PTR [edi],ch
  403883:	add    BYTE PTR [edx],al
  403885:	add    BYTE PTR [eax],ch
  403887:	add    BYTE PTR [ecx],dh
  403889:	add    BYTE PTR [edx],al
  40388b:	add    BYTE PTR [edi],ch
  40388d:	add    BYTE PTR [ebx],dh
  40388f:	add    BYTE PTR [edx],al
  403891:	add    BYTE PTR [eax],dh
  403893:	add    BYTE PTR ds:0x31000200,dh
  403899:	add    BYTE PTR [edi],dh
  40389b:	add    BYTE PTR [edx],al
  40389d:	add    BYTE PTR [edx],dh
  40389f:	add    BYTE PTR [ecx],bh
  4038a1:	add    BYTE PTR [edx],al
  4038a3:	add    BYTE PTR [ebx],dh
  4038a5:	add    BYTE PTR [ebx],bh
  4038a7:	add    BYTE PTR [edx],al
  4038a9:	add    BYTE PTR [eax+eax*1],dh
  4038ac:	cmp    eax,0xbf01b700
  4038b1:	add    ebp,esi
  4038b3:	add    DWORD PTR [edi],esi
  4038b5:	add    al,BYTE PTR [edi+0x2]
  4038b8:	xchg   edx,eax
  4038b9:	add    dh,BYTE PTR [edx+eax*1+0x2e702d4]
  4038c0:	cmc    
  4038c1:	add    al,BYTE PTR [ebx]
  4038c3:	add    ecx,DWORD PTR [ebx+eax*1]
  4038c6:	add    al,0x80
  4038c8:	add    BYTE PTR [eax],al
  4038ca:	or     eax,DWORD PTR [eax]
  4038cc:	add    BYTE PTR [eax],al
  4038ce:	add    BYTE PTR [eax],al
  4038d0:	add    BYTE PTR [eax],al
  4038d2:	add    DWORD PTR [eax],eax
  4038d4:	add    BYTE PTR [eax],al
  4038d6:	invlpg BYTE PTR [edi+0x4000009]
	...
  4038e5:	add    BYTE PTR [eax],al
  4038e7:	add    BYTE PTR [ecx],al
  4038e9:	add    ah,bl
  4038eb:	add    BYTE PTR [eax],al
  4038ed:	add    BYTE PTR [eax],al
  4038ef:	add    bh,bh
  4038f1:	add    bh,bh
  4038f3:	add    bh,bh
  4038f5:	add    bh,bh
  4038f7:	add    BYTE PTR [eax],al
  4038f9:	add    al,BYTE PTR [eax]
  4038fb:	add    BYTE PTR [eax],al
  4038fd:	add    bl,dh
  4038ff:	add    BYTE PTR [eax],al
  403901:	add    BYTE PTR [eax],al
  403903:	add    BYTE PTR [eax+eax*1],al
	...
  40390e:	add    BYTE PTR [eax],al
  403910:	add    DWORD PTR [eax],eax
  403912:	mov    al,ds:0x1
  403917:	add    BYTE PTR [eax+eax*1],al
	...
  403922:	add    BYTE PTR [eax],al
  403924:	add    DWORD PTR [eax],eax
  403926:	in     eax,0x0
  403928:	add    BYTE PTR [eax],al
  40392a:	add    BYTE PTR [eax],al
  40392c:	or     eax,DWORD PTR [eax]
	...
  403936:	add    BYTE PTR [eax],al
  403938:	int    0x3
  40393a:	lahf   
  40393b:	push   cs
  40393c:	add    BYTE PTR [eax],al
  40393e:	add    BYTE PTR [eax],al
  403940:	add    al,BYTE PTR [eax]
	...
  40394a:	add    BYTE PTR [eax],al
  40394c:	add    DWORD PTR [eax],eax
  40394e:	in     eax,0x0
  403950:	add    BYTE PTR [eax],al
  403952:	add    BYTE PTR [eax],al
  403954:	or     eax,DWORD PTR [eax]
	...
  40395e:	add    BYTE PTR [eax],al
  403960:	int    0x3
  403962:	hlt    
  403963:	sldt   WORD PTR [eax]
  403966:	add    BYTE PTR [eax],al
  403968:	add    BYTE PTR [eax],al
  40396a:	add    BYTE PTR [eax],al
  40396c:	cmp    eax,0x3c04de00
  403971:	add    BYTE PTR [edi+0x2],bh
  403974:	add    DWORD PTR [eax],eax
  403976:	xor    eax,0x0
  40397b:	add    BYTE PTR [eax],al
  40397d:	cmp    al,0x4d
  40397f:	outs   dx,DWORD PTR ds:[esi]
  403980:	fs jne 0x4039ef
  403983:	gs add BYTE PTR ds:[esi+0x73],dh
  403988:	je     0x4039ef
  40398a:	jae    0x403a00
  40398c:	cs gs js 0x4039f5
  403990:	arpl   WORD PTR [ebp+0x74],si
  403993:	imul   ebp,DWORD PTR [edi+0x6e],0x69676e65
  40399a:	outs   dx,BYTE PTR ds:[esi]
  40399b:	gs cs popa 
  40399e:	jo     0x403a10
  4039a0:	arpl   WORD PTR [edi+0x6e],bp
  4039a3:	je     0x403a06
  4039a5:	imul   ebp,DWORD PTR [esi+0x65],0x38782e72
  4039ac:	ss cs gs js 0x403a16
  4039b1:	add    BYTE PTR [edx+0x75],dl
  4039b4:	outs   dx,BYTE PTR ds:[esi]
  4039b5:	push   esp
  4039b6:	imul   ebp,DWORD PTR [ebp+0x65],0x6c6d6158
  4039bd:	dec    ecx
  4039be:	outs   dx,BYTE PTR ds:[esi]
  4039bf:	outs   dx,WORD PTR ds:[esi]
  4039c1:	push   eax
  4039c2:	jb     0x403a33
  4039c4:	jbe    0x403a2f
  4039c6:	fs gs jb 0x4039ca
  4039ca:	dec    ebp
  4039cb:	imul   esp,DWORD PTR [ebx+0x72],0x666f736f
  4039d2:	je     0x403a02
  4039d4:	push   esi
  4039d5:	imul   esi,DWORD PTR [ebx+0x75],0x74536c61
  4039dc:	jne    0x403a42
  4039de:	imul   ebp,DWORD PTR [edi+0x2e],0x74736554
  4039e5:	push   eax
  4039e6:	ins    BYTE PTR es:[edi],dx
  4039e7:	popa   
  4039e8:	je     0x403a50
  4039ea:	outs   dx,DWORD PTR ds:[esi]
  4039eb:	jb     0x403a5a
  4039ed:	cs push esp
  4039ef:	gs jae 0x403a66
  4039f2:	inc    ebp
  4039f3:	js     0x403a5a
  4039f5:	arpl   WORD PTR [ebp+0x74],si
  4039f8:	outs   dx,DWORD PTR ds:[esi]
  4039f9:	jb     0x403a29
  4039fb:	inc    ecx
  4039fc:	jo     0x403a6e
  4039fe:	inc    ebx
  4039ff:	outs   dx,DWORD PTR ds:[esi]
  403a00:	outs   dx,BYTE PTR ds:[esi]
  403a01:	je     0x403a64
  403a03:	imul   ebp,DWORD PTR [esi+0x65],0x75520072
  403a0a:	outs   dx,BYTE PTR ds:[esi]
  403a0b:	push   esp
  403a0c:	imul   ebp,DWORD PTR [ebp+0x65],0x6c6d6158
  403a13:	push   ebx
  403a14:	jns    0x403a89
  403a16:	je     0x403a7d
  403a18:	ins    DWORD PTR es:[edi],dx
  403a19:	inc    edx
  403a1a:	popa   
  403a1b:	jae    0x403a82
  403a1d:	push   esp
  403a1e:	jns    0x403a90
  403a20:	add    BYTE PTR gs:[edx+0x75],dl
  403a24:	outs   dx,BYTE PTR ds:[esi]
  403a25:	push   esp
  403a26:	imul   ebp,DWORD PTR [ebp+0x65],0x6c6d6158
  403a2d:	push   ebp
  403a2e:	jae    0x403a95
  403a30:	jb     0x403a86
  403a32:	jns    0x403aa4
  403a34:	add    BYTE PTR gs:[edx+0x75],dl
  403a38:	outs   dx,BYTE PTR ds:[esi]
  403a39:	push   esp
  403a3a:	imul   ebp,DWORD PTR [ebp+0x65],0x6c6d6158
  403a41:	dec    ebp
  403a42:	gs ins DWORD PTR es:[edi],dx
  403a44:	bound  esp,QWORD PTR [ebp+0x72]
  403a47:	add    BYTE PTR [ebx+0x65],dl
  403a4a:	jb     0x403ac2
  403a4c:	imul   esp,DWORD PTR [ebx+0x65],0x6e69614d
  403a53:	add    BYTE PTR [ecx+0x70],al
  403a56:	jo     0x403a58
  403a58:	ins    DWORD PTR es:[edi],dx
  403a59:	jae    0x403abe
  403a5b:	outs   dx,DWORD PTR ds:[esi]
  403a5c:	jb     0x403aca
  403a5e:	imul   esp,DWORD PTR [edx+0x0],0x74737953
  403a65:	gs ins DWORD PTR es:[edi],dx
  403a67:	add    BYTE PTR [edi+0x62],cl
  403a6a:	push   0x65
  403a6c:	arpl   WORD PTR [eax+eax*1+0x57],si
  403a70:	imul   ebp,DWORD PTR [esi+0x64],0x73776f
  403a77:	push   edi
  403a78:	imul   ebp,DWORD PTR [esi+0x64],0x2e73776f
  403a7f:	push   ebp
  403a80:	dec    ecx
  403a81:	cs pop eax
  403a83:	popa   
  403a84:	ins    DWORD PTR es:[edi],dx
  403a85:	ins    BYTE PTR es:[edi],dx
  403a86:	cs dec ebp
  403a88:	popa   
  403a89:	jb     0x403af6
  403a8b:	jne    0x403afd
  403a8d:	add    BYTE PTR [ecx+0x58],cl
  403a90:	popa   
  403a91:	ins    DWORD PTR es:[edi],dx
  403a92:	ins    BYTE PTR es:[edi],dx
  403a93:	push   esp
  403a94:	jns    0x403b06
  403a96:	add    BYTE PTR gs:[ecx+0x58],cl
  403a9a:	popa   
  403a9b:	ins    DWORD PTR es:[edi],dx
  403a9c:	ins    BYTE PTR es:[edi],dx
  403a9d:	dec    ebp
  403a9e:	gs ins DWORD PTR es:[edi],dx
  403aa0:	bound  esp,QWORD PTR [ebp+0x72]
  403aa3:	add    BYTE PTR [edi+0x69],dl
  403aa6:	outs   dx,BYTE PTR ds:[esi]
  403aa7:	outs   dx,DWORD PTR fs:[esi]
  403aa9:	ja     0x403b1e
  403aab:	cs push ebp
  403aad:	dec    ecx
  403aae:	cs pop eax
  403ab0:	popa   
  403ab1:	ins    DWORD PTR es:[edi],dx
  403ab2:	ins    BYTE PTR es:[edi],dx
  403ab3:	add    BYTE PTR [ecx+0x70],al
  403ab6:	jo     0x403b24
  403ab8:	imul   esp,DWORD PTR [ebx+0x61],0x6e6f6974
  403abf:	add    BYTE PTR [ecx+0x58],cl
  403ac2:	popa   
  403ac3:	ins    DWORD PTR es:[edi],dx
  403ac4:	ins    BYTE PTR es:[edi],dx
  403ac5:	dec    ebp
  403ac6:	gs je  0x403b2a
  403ac9:	fs popa 
  403acb:	je     0x403b2e
  403acd:	push   eax
  403ace:	jb     0x403b3f
  403ad0:	jbe    0x403b3b
  403ad2:	fs gs jb 0x403ad6
  403ad6:	push   ebx
  403ad7:	jns    0x403b4c
  403ad9:	je     0x403b40
  403adb:	ins    DWORD PTR es:[edi],dx
  403adc:	cs inc ebx
  403ade:	outs   dx,DWORD PTR ds:[esi]
  403adf:	ins    BYTE PTR es:[edi],dx
  403ae0:	ins    BYTE PTR es:[edi],dx
  403ae1:	arpl   WORD PTR gs:[ecx+ebp*2+0x6f],si
  403ae6:	outs   dx,BYTE PTR ds:[esi]
  403ae7:	jae    0x403b17
  403ae9:	inc    edi
  403aea:	outs   dx,BYTE PTR gs:[esi]
  403aec:	gs jb  0x403b58
  403aef:	arpl   WORD PTR [eax],ax
  403af1:	inc    esp
  403af2:	imul   esp,DWORD PTR [ebx+0x74],0x616e6f69
  403af9:	jb     0x403b74
  403afb:	pusha  
  403afc:	xor    al,BYTE PTR [eax]
  403afe:	js     0x403b61
  403b00:	ins    DWORD PTR es:[edi],dx
  403b01:	ins    BYTE PTR es:[edi],dx
  403b02:	push   esp
  403b03:	jns    0x403b75
  403b05:	gs inc ebx
  403b07:	popa   
  403b08:	arpl   WORD PTR [eax+0x65],bp
  403b0b:	add    BYTE PTR [eax+0x61],bh
  403b0e:	ins    DWORD PTR es:[edi],dx
  403b0f:	ins    BYTE PTR es:[edi],dx
  403b10:	dec    ebp
  403b11:	gs ins DWORD PTR es:[edi],dx
  403b13:	bound  esp,QWORD PTR [ebp+0x72]
  403b16:	inc    ebx
  403b17:	popa   
  403b18:	arpl   WORD PTR [eax+0x65],bp
  403b1b:	add    BYTE PTR [ebx+0x79],dl
  403b1e:	jae    0x403b94
  403b20:	gs ins DWORD PTR es:[edi],dx
  403b22:	cs inc ebx
  403b24:	outs   dx,DWORD PTR ds:[esi]
  403b25:	jb     0x403b8c
  403b27:	add    BYTE PTR [eax+0x61],cl
  403b2a:	jae    0x403b94
  403b2c:	push   ebx
  403b2d:	gs je  0x403b90
  403b30:	xor    DWORD PTR [eax],eax
  403b32:	jne    0x403ba7
  403b34:	gs jb  0x403b78
  403b37:	jae    0x403bac
  403b39:	gs ins DWORD PTR es:[edi],dx
  403b3b:	bound  ebp,QWORD PTR [ecx+ebp*2+0x65]
  403b3f:	jae    0x403b41
  403b41:	arpl   WORD PTR cs:[edi+ebp*2+0x72],si
  403b46:	add    BYTE PTR [edi+0x65],al
  403b49:	je     0x403ba3
  403b4b:	popa   
  403b4c:	ins    DWORD PTR es:[edi],dx
  403b4d:	ins    BYTE PTR es:[edi],dx
  403b4e:	push   esp
  403b4f:	jns    0x403bc1
  403b51:	gs inc edx
  403b53:	jns    0x403b9b
  403b55:	jne    0x403bc3
  403b57:	ins    BYTE PTR es:[edi],dx
  403b58:	dec    esi
  403b59:	popa   
  403b5a:	ins    DWORD PTR es:[edi],dx
  403b5b:	add    BYTE PTR gs:[ecx+edi*2+0x70],dl
  403b60:	add    BYTE PTR gs:[edi+0x65],al
  403b64:	je     0x403bb3
  403b66:	gs ins DWORD PTR es:[edi],dx
  403b68:	bound  esp,QWORD PTR [ebp+0x72]
  403b6b:	inc    edx
  403b6c:	jns    0x403bbc
  403b6e:	popa   
  403b6f:	ins    DWORD PTR es:[edi],dx
  403b70:	add    BYTE PTR gs:[ebx+0x72],al
  403b74:	gs popa 
  403b76:	je     0x403bdd
  403b78:	pop    eax
  403b79:	popa   
  403b7a:	ins    DWORD PTR es:[edi],dx
  403b7b:	ins    BYTE PTR es:[edi],dx
  403b7c:	push   esp
  403b7d:	jns    0x403bef
  403b7f:	add    BYTE PTR gs:[ebx+0x79],dl
  403b83:	jae    0x403bf9
  403b85:	gs ins DWORD PTR es:[edi],dx
  403b87:	cs push edx
  403b89:	gs data16 ins BYTE PTR es:[edi],dx
  403b8c:	arpl   WORD PTR gs:[ecx+ebp*2+0x6f],si
  403b91:	outs   dx,BYTE PTR ds:[esi]
  403b92:	add    BYTE PTR [ecx+0x73],al
  403b95:	jae    0x403bfc
  403b97:	ins    DWORD PTR es:[edi],dx
  403b98:	bound  ebp,QWORD PTR [ecx+edi*2+0x0]
  403b9c:	push   esp
  403b9d:	jns    0x403c0f
  403b9f:	gs push edx
  403ba1:	gs jae 0x403c13
  403ba4:	ins    BYTE PTR es:[edi],dx
  403ba5:	jbe    0x403c0c
  403ba7:	jb     0x403ba9
  403ba9:	inc    ebx
  403baa:	jb     0x403c11
  403bac:	popa   
  403bad:	je     0x403c14
  403baf:	pop    eax
  403bb0:	popa   
  403bb1:	ins    DWORD PTR es:[edi],dx
  403bb2:	ins    BYTE PTR es:[edi],dx
  403bb3:	dec    ebp
  403bb4:	gs ins DWORD PTR es:[edi],dx
  403bb6:	bound  esp,QWORD PTR [ebp+0x72]
  403bb9:	add    BYTE PTR [ecx+0x73],cl
  403bbc:	push   ebx
  403bbd:	jns    0x403c32
  403bbf:	je     0x403c26
  403bc1:	ins    DWORD PTR es:[edi],dx
  403bc2:	push   esp
  403bc3:	jns    0x403c35
  403bc5:	add    BYTE PTR gs:[esi+0x75],ah
  403bc9:	ins    BYTE PTR es:[edi],dx
  403bca:	ins    BYTE PTR es:[edi],dx
  403bcb:	dec    esi
  403bcc:	popa   
  403bcd:	ins    DWORD PTR es:[edi],dx
  403bce:	add    BYTE PTR gs:[ebp+0x6e],dh
  403bd2:	fs gs jb 0x403c42
  403bd6:	jns    0x403c41
  403bd8:	outs   dx,BYTE PTR ds:[esi]
  403bd9:	addr16 push esp
  403bdb:	jns    0x403c4d
  403bdd:	add    BYTE PTR gs:[edi+0x65],ah
  403be1:	je     0x403c42
  403be3:	dec    ecx
  403be4:	jae    0x403c39
  403be6:	jns    0x403c5b
  403be8:	je     0x403c4f
  403bea:	ins    DWORD PTR es:[edi],dx
  403beb:	push   esp
  403bec:	jns    0x403c5e
  403bee:	add    BYTE PTR gs:[edi+0x65],ah
  403bf2:	je     0x403c53
  403bf4:	inc    esi
  403bf5:	jne    0x403c63
  403bf7:	ins    BYTE PTR es:[edi],dx
  403bf8:	dec    esi
  403bf9:	popa   
  403bfa:	ins    DWORD PTR es:[edi],dx
  403bfb:	add    BYTE PTR gs:[edi+0x65],ah
  403bff:	je     0x403c60
  403c01:	dec    esi
  403c02:	popa   
  403c03:	ins    DWORD PTR es:[edi],dx
  403c04:	add    BYTE PTR gs:[edi+0x65],ah
  403c08:	je     0x403c69
  403c0a:	push   ebp
  403c0b:	outs   dx,BYTE PTR ds:[esi]
  403c0c:	fs gs jb 0x403c7c
  403c10:	jns    0x403c7b
  403c12:	outs   dx,BYTE PTR ds:[esi]
  403c13:	addr16 push esp
  403c15:	jns    0x403c87
  403c17:	add    BYTE PTR gs:[edi+0x65],ah
  403c1b:	je     0x403c7c
  403c1d:	inc    edx
  403c1e:	popa   
  403c1f:	jae    0x403c86
  403c21:	push   esp
  403c22:	jns    0x403c94
  403c24:	add    BYTE PTR gs:[edi+0x65],ah
  403c28:	je     0x403c89
  403c2a:	inc    ebx
  403c2b:	outs   dx,DWORD PTR ds:[esi]
  403c2c:	outs   dx,BYTE PTR ds:[esi]
  403c2d:	je     0x403c94
  403c2f:	outs   dx,BYTE PTR ds:[esi]
  403c30:	je     0x403c82
  403c32:	jb     0x403ca3
  403c34:	jo     0x403c9b
  403c36:	jb     0x403cac
  403c38:	jns    0x403c3a
  403c3a:	inc    edi
  403c3b:	gs je  0x403c8b
  403c3e:	gs ins DWORD PTR es:[edi],dx
  403c40:	bound  esp,QWORD PTR [ebp+0x72]
  403c43:	add    BYTE PTR [edi+0x65],ah
  403c46:	je     0x403ca7
  403c48:	dec    ecx
  403c49:	jae    0x403c8c
  403c4b:	jb     0x403cbf
  403c4d:	popa   
  403c4e:	jns    0x403c50
  403c50:	addr16 gs je 0x403cb3
  403c54:	dec    ecx
  403c55:	jae    0x403c9a
  403c57:	outs   dx,DWORD PTR ds:[esi]
  403c58:	ins    BYTE PTR es:[edi],dx
  403c59:	ins    BYTE PTR es:[edi],dx
  403c5a:	arpl   WORD PTR gs:[ecx+ebp*2+0x6f],si
  403c5f:	outs   dx,BYTE PTR ds:[esi]
  403c60:	add    BYTE PTR [edi+0x65],ah
  403c63:	je     0x403cc4
  403c65:	dec    ecx
  403c66:	jae    0x403cab
  403c68:	outs   dx,DWORD PTR ds:[esi]
  403c69:	outs   dx,BYTE PTR ds:[esi]
  403c6a:	jae    0x403ce0
  403c6c:	jb     0x403ce3
  403c6e:	arpl   WORD PTR [ecx+ebp*2+0x62],si
  403c72:	ins    BYTE PTR es:[edi],dx
  403c73:	add    BYTE PTR gs:[edi+0x65],ah
  403c77:	je     0x403cd8
  403c79:	dec    ecx
  403c7a:	jae    0x403cc0
  403c7c:	imul   esp,DWORD PTR [ebx+0x74],0x616e6f69
  403c83:	jb     0x403cfe
  403c85:	add    BYTE PTR [edi+0x65],ah
  403c88:	je     0x403ce9
  403c8a:	dec    ecx
  403c8b:	jae    0x403cda
  403c8d:	popa   
  403c8e:	jb     0x403cfb
  403c90:	jne    0x403d02
  403c92:	inc    ebp
  403c93:	js     0x403d09
  403c95:	outs   dx,BYTE PTR gs:[esi]
  403c97:	jae    0x403d02
  403c99:	outs   dx,DWORD PTR ds:[esi]
  403c9a:	outs   dx,BYTE PTR ds:[esi]
  403c9b:	add    BYTE PTR [edi+0x65],ah
  403c9e:	je     0x403cff
  403ca0:	dec    ecx
  403ca1:	je     0x403d08
  403ca3:	ins    DWORD PTR es:[edi],dx
  403ca4:	push   esp
  403ca5:	jns    0x403d17
  403ca7:	add    BYTE PTR gs:[edi+0x65],ah
  403cab:	je     0x403d0c
  403cad:	dec    ebx
  403cae:	gs jns 0x403d05
  403cb1:	jns    0x403d23
  403cb3:	add    BYTE PTR gs:[ecx+0x63],al
  403cb7:	je     0x403d22
  403cb9:	jbe    0x403d1c
  403cbb:	je     0x403d22
  403cbd:	dec    ecx
  403cbe:	outs   dx,BYTE PTR ds:[esi]
  403cbf:	jae    0x403d35
  403cc1:	popa   
  403cc2:	outs   dx,BYTE PTR ds:[esi]
  403cc3:	arpl   WORD PTR [ebp+0x0],sp
  403cc6:	inc    ecx
  403cc7:	fs fs push esp
  403cca:	outs   dx,DWORD PTR ds:[esi]
  403ccb:	dec    ebp
  403ccc:	popa   
  403ccd:	jo     0x403ccf
  403ccf:	inc    ecx
  403cd0:	fs fs push esp
  403cd3:	outs   dx,DWORD PTR ds:[esi]
  403cd4:	push   esi
  403cd5:	arpl   WORD PTR gs:[edi+ebp*2+0x72],si
  403cda:	add    BYTE PTR [edx+0x75],dl
  403cdd:	outs   dx,BYTE PTR ds:[esi]
  403cde:	dec    ecx
  403cdf:	outs   dx,BYTE PTR ds:[esi]
  403ce0:	imul   esi,DWORD PTR [ecx+ebp*2+0x61],0x657a696c
  403ce8:	jb     0x403cea
  403cea:	inc    ebx
  403ceb:	jb     0x403d52
  403ced:	popa   
  403cee:	je     0x403d55
  403cf0:	inc    esi
  403cf1:	jb     0x403d62
  403cf3:	ins    DWORD PTR es:[edi],dx
  403cf4:	push   ebx
  403cf5:	je     0x403d69
  403cf7:	imul   ebp,DWORD PTR [esi+0x67],0x74656700
  403cfe:	pop    edi
  403cff:	dec    ecx
  403d00:	jae    0x403d44
  403d02:	imul   ebp,DWORD PTR [esi+0x64],0x656c6261
  403d09:	add    BYTE PTR [esi+0x75],al
  403d0c:	ins    BYTE PTR es:[edi],dx
  403d0d:	ins    BYTE PTR es:[edi],dx
  403d0e:	dec    esi
  403d0f:	popa   
  403d10:	ins    DWORD PTR es:[edi],dx
  403d11:	add    BYTE PTR gs:[esi+0x61],cl
  403d15:	ins    DWORD PTR es:[edi],dx
  403d16:	add    BYTE PTR gs:[ebp+0x6e],dl
  403d1a:	fs gs jb 0x403d8a
  403d1e:	jns    0x403d89
  403d20:	outs   dx,BYTE PTR ds:[esi]
  403d21:	addr16 push esp
  403d23:	jns    0x403d95
  403d25:	add    BYTE PTR gs:[edx+0x61],al
  403d29:	jae    0x403d90
  403d2b:	push   esp
  403d2c:	jns    0x403d9e
  403d2e:	add    BYTE PTR gs:[ebx+0x6f],al
  403d32:	outs   dx,BYTE PTR ds:[esi]
  403d33:	je     0x403d9a
  403d35:	outs   dx,BYTE PTR ds:[esi]
  403d36:	je     0x403d88
  403d38:	jb     0x403da9
  403d3a:	jo     0x403da1
  403d3c:	jb     0x403db2
  403d3e:	jns    0x403d40
  403d40:	dec    ecx
  403d41:	jae    0x403d84
  403d43:	jb     0x403db7
  403d45:	popa   
  403d46:	jns    0x403d48
  403d48:	dec    ecx
  403d49:	jae    0x403d8e
  403d4b:	outs   dx,DWORD PTR ds:[esi]
  403d4c:	ins    BYTE PTR es:[edi],dx
  403d4d:	ins    BYTE PTR es:[edi],dx
  403d4e:	arpl   WORD PTR gs:[ecx+ebp*2+0x6f],si
  403d53:	outs   dx,BYTE PTR ds:[esi]
  403d54:	add    BYTE PTR [ecx+0x73],cl
  403d57:	inc    ebx
  403d58:	outs   dx,DWORD PTR ds:[esi]
  403d59:	outs   dx,BYTE PTR ds:[esi]
  403d5a:	jae    0x403dd0
  403d5c:	jb     0x403dd3
  403d5e:	arpl   WORD PTR [ecx+ebp*2+0x62],si
  403d62:	ins    BYTE PTR es:[edi],dx
  403d63:	add    BYTE PTR gs:[ecx+0x73],cl
  403d67:	inc    esp
  403d68:	imul   esp,DWORD PTR [ebx+0x74],0x616e6f69
  403d6f:	jb     0x403dea
  403d71:	add    BYTE PTR [ecx+0x73],cl
  403d74:	dec    ebp
  403d75:	popa   
  403d76:	jb     0x403de3
  403d78:	jne    0x403dea
  403d7a:	inc    ebp
  403d7b:	js     0x403df1
  403d7d:	outs   dx,BYTE PTR gs:[esi]
  403d7f:	jae    0x403dea
  403d81:	outs   dx,DWORD PTR ds:[esi]
  403d82:	outs   dx,BYTE PTR ds:[esi]
  403d83:	add    BYTE PTR [ecx+0x74],cl
  403d86:	gs ins DWORD PTR es:[edi],dx
  403d88:	push   esp
  403d89:	jns    0x403dfb
  403d8b:	add    BYTE PTR gs:[ebx+0x65],cl
  403d8f:	jns    0x403de5
  403d91:	jns    0x403e03
  403d93:	add    BYTE PTR gs:[ecx+0x73],cl
  403d97:	inc    edx
  403d98:	imul   ebp,DWORD PTR [esi+0x64],0x656c6261
  403d9f:	add    BYTE PTR [eax+0x72],dh
  403da2:	outs   dx,DWORD PTR ds:[esi]
  403da3:	jbe    0x403e0e
  403da5:	fs gs jb 0x403da9
  403da9:	bound  esp,QWORD PTR [ecx+0x73]
  403dac:	gs push esp
  403dae:	jns    0x403e20
  403db0:	add    BYTE PTR gs:[ebx+0x6f],ah
  403db4:	outs   dx,BYTE PTR ds:[esi]
  403db5:	je     0x403e1c
  403db7:	outs   dx,BYTE PTR ds:[esi]
  403db8:	je     0x403e0a
  403dba:	jb     0x403e2b
  403dbc:	jo     0x403e23
  403dbe:	jb     0x403e34
  403dc0:	jns    0x403e10
  403dc2:	popa   
  403dc3:	ins    DWORD PTR es:[edi],dx
  403dc4:	add    BYTE PTR gs:[ecx+0x74],ch
  403dc8:	gs ins DWORD PTR es:[edi],dx
  403dca:	push   esp
  403dcb:	jns    0x403e3d
  403dcd:	gs dec esi
  403dcf:	popa   
  403dd0:	ins    DWORD PTR es:[edi],dx
  403dd1:	add    BYTE PTR gs:[ebx+0x65],ch
  403dd5:	jns    0x403e2b
  403dd7:	jns    0x403e49
  403dd9:	gs dec esi
  403ddb:	popa   
  403ddc:	ins    DWORD PTR es:[edi],dx
  403ddd:	add    BYTE PTR gs:[ebx+0x6f],al
  403de1:	outs   dx,BYTE PTR ds:[esi]
  403de2:	jae    0x403e58
  403de4:	jb     0x403e5b
  403de6:	arpl   WORD PTR [edi+ebp*2+0x72],si
  403dea:	dec    ecx
  403deb:	outs   dx,BYTE PTR ds:[esi]
  403dec:	outs   dx,WORD PTR ds:[esi]
  403dee:	add    BYTE PTR [ebx+0x6f],ah
  403df1:	outs   dx,BYTE PTR ds:[esi]
  403df2:	jae    0x403e68
  403df4:	jb     0x403e6b
  403df6:	arpl   WORD PTR [edi+ebp*2+0x72],si
  403dfa:	add    BYTE PTR [ebp+0x65],cl
  403dfd:	je     0x403e67
  403dff:	outs   dx,DWORD PTR ds:[esi]
  403e00:	fs dec ecx
  403e02:	outs   dx,BYTE PTR ds:[esi]
  403e03:	outs   dx,WORD PTR ds:[esi]
  403e05:	add    BYTE PTR [ecx+ebp*2+0x63],ah
  403e09:	je     0x403e74
  403e0b:	outs   dx,DWORD PTR ds:[esi]
  403e0c:	outs   dx,BYTE PTR ds:[esi]
  403e0d:	popa   
  403e0e:	jb     0x403e89
  403e10:	inc    ecx
  403e11:	fs fs dec ebp
  403e14:	gs je  0x403e7f
  403e17:	outs   dx,DWORD PTR ds:[esi]
  403e18:	add    BYTE PTR fs:[ebx+0x6f],ah
  403e1c:	ins    BYTE PTR es:[edi],dx
  403e1d:	ins    BYTE PTR es:[edi],dx
  403e1e:	arpl   WORD PTR gs:[ecx+ebp*2+0x6f],si
  403e23:	outs   dx,BYTE PTR ds:[esi]
  403e24:	inc    ecx
  403e25:	fs fs dec ebp
  403e28:	gs je  0x403e93
  403e2b:	outs   dx,DWORD PTR ds:[esi]
  403e2c:	add    BYTE PTR fs:[ebp+0x65],cl
  403e30:	ins    DWORD PTR es:[edi],dx
  403e31:	bound  esp,QWORD PTR [ebp+0x72]
  403e34:	dec    ecx
  403e35:	outs   dx,BYTE PTR ds:[esi]
  403e36:	outs   dx,WORD PTR ds:[esi]
  403e38:	add    BYTE PTR [edi+0x65],al
  403e3b:	je     0x403e7e
  403e3d:	je     0x403eb3
  403e3f:	jb     0x403eaa
  403e41:	bound  esi,QWORD PTR [ebp+0x74]
  403e44:	gs dec esi
  403e46:	popa   
  403e47:	ins    DWORD PTR es:[edi],dx
  403e48:	gs fs push esi
  403e4b:	popa   
  403e4c:	ins    BYTE PTR es:[edi],dx
  403e4d:	jne    0x403eb4
  403e4f:	add    BYTE PTR [ecx+0x74],al
  403e52:	je     0x403ec6
  403e54:	imul   esp,DWORD PTR [edx+0x75],0x54006574
  403e5b:	add    BYTE PTR [esi+0x61],ch
  403e5e:	ins    DWORD PTR es:[edi],dx
  403e5f:	add    BYTE PTR gs:[ecx+edi*2+0x70],dh
  403e64:	add    BYTE PTR gs:[eax+0x72],dl
  403e68:	outs   dx,DWORD PTR ds:[esi]
  403e69:	jo     0x403ed0
  403e6b:	jb     0x403ee1
  403e6d:	jns    0x403eb8
  403e6f:	outs   dx,BYTE PTR ds:[esi]
  403e70:	outs   dx,WORD PTR ds:[esi]
  403e72:	add    BYTE PTR [eax+0x72],dh
  403e75:	outs   dx,DWORD PTR ds:[esi]
  403e76:	jo     0x403edd
  403e78:	jb     0x403eee
  403e7a:	jns    0x403ec5
  403e7c:	outs   dx,BYTE PTR ds:[esi]
  403e7d:	outs   dx,WORD PTR ds:[esi]
  403e7f:	add    BYTE PTR [edi+0x65],ah
  403e82:	je     0x403ee3
  403e84:	push   esp
  403e85:	jns    0x403ef7
  403e87:	add    BYTE PTR gs:[edi+0x65],ah
  403e8b:	je     0x403eec
  403e8d:	push   esp
  403e8e:	popa   
  403e8f:	jb     0x403ef8
  403e91:	gs je  0x403ee8
  403e94:	jns    0x403f06
  403e96:	add    BYTE PTR gs:[edi+0x65],ah
  403e9a:	je     0x403efb
  403e9c:	dec    ecx
  403e9d:	jae    0x403ee0
  403e9f:	je     0x403f15
  403ea1:	popa   
  403ea2:	arpl   WORD PTR [eax+0x61],bp
  403ea5:	bound  ebp,QWORD PTR [ebp+eiz*2+0x0]
  403ea9:	addr16 gs je 0x403f0c
  403ead:	dec    ecx
  403eae:	jae    0x403ef4
  403eb0:	gs jo  0x403f18
  403eb3:	outs   dx,BYTE PTR ds:[esi]
  403eb4:	fs outs dx,BYTE PTR gs:[esi]
  403eb7:	arpl   WORD PTR [ecx+0x50],di
  403eba:	jb     0x403f2b
  403ebc:	jo     0x403f23
  403ebe:	jb     0x403f34
  403ec0:	jns    0x403ec2
  403ec2:	addr16 gs je 0x403f25
  403ec6:	dec    ecx
  403ec7:	jae    0x403f1b
  403ec9:	gs popa 
  403ecb:	fs dec edi
  403ecd:	outs   dx,BYTE PTR ds:[esi]
  403ece:	ins    BYTE PTR es:[edi],dx
  403ecf:	jns    0x403ed1
  403ed1:	inc    edi
  403ed2:	gs je  0x403f2b
  403ed5:	popa   
  403ed6:	ins    BYTE PTR es:[edi],dx
  403ed7:	jne    0x403f3e
  403ed9:	add    BYTE PTR [ebx+0x65],dl
  403edc:	je     0x403f34
  403ede:	popa   
  403edf:	ins    BYTE PTR es:[edi],dx
  403ee0:	jne    0x403f47
  403ee2:	add    BYTE PTR [ecx+eiz*2+0x72],dl
  403ee6:	addr16 gs je 0x403f3e
  403eea:	jns    0x403f5c
  403eec:	add    BYTE PTR gs:[ecx+0x73],cl
  403ef0:	inc    ecx
  403ef1:	je     0x403f67
  403ef3:	popa   
  403ef4:	arpl   WORD PTR [eax+0x61],bp
  403ef7:	bound  ebp,QWORD PTR [ebp+eiz*2+0x0]
  403efb:	dec    ecx
  403efc:	jae    0x403f42
  403efe:	gs jo  0x403f66
  403f01:	outs   dx,BYTE PTR ds:[esi]
  403f02:	fs outs dx,BYTE PTR gs:[esi]
  403f05:	arpl   WORD PTR [ecx+0x50],di
  403f08:	jb     0x403f79
  403f0a:	jo     0x403f71
  403f0c:	jb     0x403f82
  403f0e:	jns    0x403f10
  403f10:	dec    ecx
  403f11:	jae    0x403f65
  403f13:	gs popa 
  403f15:	fs dec edi
  403f17:	outs   dx,BYTE PTR ds:[esi]
  403f18:	ins    BYTE PTR es:[edi],dx
  403f19:	jns    0x403f1b
  403f1b:	dec    ebp
  403f1c:	popa   
  403f1d:	imul   ebp,DWORD PTR [esi+0x0],0x6c6d6178
  403f24:	dec    ecx
  403f25:	outs   dx,BYTE PTR ds:[esi]
  403f26:	outs   dx,WORD PTR ds:[esi]
  403f28:	push   eax
  403f29:	jb     0x403f9a
  403f2b:	jbe    0x403f96
  403f2d:	fs gs jb 0x403f31
  403f31:	gs js  0x403f99
  403f34:	arpl   WORD PTR [ebp+0x74],si
  403f37:	popa   
  403f38:	bound  ebp,QWORD PTR [ebp+eiz*2+0x45]
  403f3c:	js     0x403fb2
  403f3e:	outs   dx,BYTE PTR gs:[esi]
  403f40:	jae    0x403fab
  403f42:	outs   dx,DWORD PTR ds:[esi]
  403f43:	outs   dx,BYTE PTR ds:[esi]
  403f44:	jae    0x403f46
  403f46:	jo     0x403fb4
  403f48:	popa   
  403f49:	je     0x403fb1
  403f4b:	outs   dx,DWORD PTR ds:[esi]
  403f4c:	jb     0x403fbb
  403f4e:	inc    ecx
  403f4f:	jae    0x403fc4
  403f51:	gs ins DWORD PTR es:[edi],dx
  403f53:	bound  ebp,QWORD PTR [ecx+ebp*2+0x65]
  403f57:	jae    0x403f59
  403f59:	dec    esp
  403f5a:	outs   dx,DWORD PTR ds:[esi]
  403f5b:	popa   
  403f5c:	fs push ebp
  403f5e:	jae    0x403fc5
  403f60:	jb     0x403fa3
  403f62:	jae    0x403fd7
  403f64:	gs ins DWORD PTR es:[edi],dx
  403f66:	bound  ebp,QWORD PTR [ecx+ebp*2+0x65]
  403f6a:	jae    0x403f6c
  403f6c:	inc    edi
  403f6d:	gs je  0x403fc8
  403f70:	popa   
  403f71:	ins    DWORD PTR es:[edi],dx
  403f72:	ins    BYTE PTR es:[edi],dx
  403f73:	push   esp
  403f74:	jns    0x403fe6
  403f76:	add    BYTE PTR gs:[eax+0x6d],bl
  403f7a:	ins    BYTE PTR es:[edi],dx
  403f7b:	outs   dx,BYTE PTR ds:[esi]
  403f7c:	jae    0x403fc2
  403f7e:	imul   bp,WORD PTR gs:[esi+0x69],0x6974
  403f85:	outs   dx,DWORD PTR ds:[esi]
  403f86:	outs   dx,BYTE PTR ds:[esi]
  403f87:	add    BYTE PTR [edi+0x65],al
  403f8a:	je     0x403fe4
  403f8c:	ins    DWORD PTR es:[edi],dx
  403f8d:	ins    BYTE PTR es:[edi],dx
  403f8e:	outs   dx,BYTE PTR ds:[esi]
  403f8f:	jae    0x403fd5
  403f91:	imul   bp,WORD PTR gs:[esi+0x69],0x6974
  403f98:	outs   dx,DWORD PTR ds:[esi]
  403f99:	outs   dx,BYTE PTR ds:[esi]
  403f9a:	jae    0x403f9c
  403f9c:	push   edi
  403f9d:	imul   ebp,DWORD PTR [esi+0x64],0x2e73776f
  403fa4:	inc    ecx
  403fa5:	jo     0x404017
  403fa7:	ins    BYTE PTR es:[edi],dx
  403fa8:	imul   esp,DWORD PTR [ebx+0x61],0x6e6f6974
  403faf:	dec    ebp
  403fb0:	outs   dx,DWORD PTR ds:[esi]
  403fb1:	fs gs ins BYTE PTR es:[edi],dx
  403fb4:	cs inc ecx
  403fb6:	arpl   WORD PTR [ecx+ebp*2+0x76],si
  403fba:	popa   
  403fbb:	je     0x404026
  403fbd:	outs   dx,DWORD PTR ds:[esi]
  403fbe:	outs   dx,BYTE PTR ds:[esi]
  403fbf:	add    BYTE PTR [ecx+eiz*2+0x75],cl
  403fc3:	outs   dx,BYTE PTR ds:[esi]
  403fc4:	arpl   WORD PTR [eax+0x41],bp
  403fc7:	arpl   WORD PTR [ecx+ebp*2+0x76],si
  403fcb:	popa   
  403fcc:	je     0x404033
  403fce:	fs inc ebp
  403fd0:	jbe    0x404037
  403fd2:	outs   dx,BYTE PTR ds:[esi]
  403fd3:	je     0x404016
  403fd5:	jb     0x40403e
  403fd7:	jae    0x403fd9
  403fd9:	dec    edi
  403fda:	outs   dx,BYTE PTR ds:[esi]
  403fdb:	dec    esp
  403fdc:	popa   
  403fdd:	jne    0x40404d
  403fdf:	arpl   WORD PTR [eax+0x65],bp
  403fe2:	add    BYTE PTR fs:[ecx+edi*2+0x70],dh
  403fe7:	gs inc esi
  403fe9:	jne    0x404057
  403feb:	ins    BYTE PTR es:[edi],dx
  403fec:	dec    esi
  403fed:	popa   
  403fee:	ins    DWORD PTR es:[edi],dx
  403fef:	add    BYTE PTR gs:[ebp+0x65],ch
  403ff3:	ins    DWORD PTR es:[edi],dx
  403ff4:	bound  esp,QWORD PTR [ebp+0x72]
  403ff7:	dec    esi
  403ff8:	popa   
  403ff9:	ins    DWORD PTR es:[edi],dx
  403ffa:	add    BYTE PTR gs:[ecx+0x73],ah
  403ffe:	jae    0x404065
  404000:	ins    DWORD PTR es:[edi],dx
  404001:	bound  ebp,QWORD PTR [ecx+edi*2+0x0]
  404005:	je     0x404080
  404007:	jo     0x40406e
  404009:	dec    esi
  40400a:	popa   
  40400b:	ins    DWORD PTR es:[edi],dx
  40400c:	add    BYTE PTR gs:[ebx+0x61],ah
  404010:	jae    0x404077
  404012:	push   ebx
  404013:	outs   dx,BYTE PTR gs:[esi]
  404015:	jae    0x404080
  404017:	je     0x404082
  404019:	jbe    0x404080
  40401b:	add    BYTE PTR [edi+ebp*2+0x6e],ch
  40401f:	addr16 dec ebp
  404021:	gs ins DWORD PTR es:[edi],dx
  404023:	bound  esp,QWORD PTR [ebp+0x72]
  404026:	dec    esi
  404027:	popa   
  404028:	ins    DWORD PTR es:[edi],dx
  404029:	add    BYTE PTR gs:[edx+0x65],dh
  40402d:	jae    0x40409e
  40402f:	ins    BYTE PTR es:[edi],dx
  404030:	jbe    0x404097
  404032:	fs push esp
  404034:	jns    0x4040a6
  404036:	add    BYTE PTR gs:[ecx+0x6e],ch
  40403a:	jae    0x4040b0
  40403c:	popa   
  40403d:	outs   dx,BYTE PTR ds:[esi]
  40403e:	arpl   WORD PTR [ebp+0x0],sp
  404041:	imul   esp,DWORD PTR [ebp+0x79],0x0
  404045:	imul   esi,DWORD PTR [ebp+eiz*2+0x6d],0x6c617600
  40404d:	jne    0x4040b4
  40404f:	add    BYTE PTR [esi+0x75],ah
  404052:	ins    BYTE PTR es:[edi],dx
  404053:	ins    BYTE PTR es:[edi],dx
  404054:	push   esp
  404055:	jns    0x4040c7
  404057:	add    BYTE PTR gs:[ebp+0x65],ch
  40405b:	ins    DWORD PTR es:[edi],dx
  40405c:	bound  esp,QWORD PTR [ebp+0x72]
  40405f:	dec    ecx
  404060:	outs   dx,BYTE PTR ds:[esi]
  404061:	outs   dx,WORD PTR ds:[esi]
  404063:	add    BYTE PTR [esi+0x61],ch
  404066:	ins    DWORD PTR es:[edi],dx
  404067:	gs fs push esi
  40406a:	popa   
  40406b:	ins    BYTE PTR es:[edi],dx
  40406c:	jne    0x4040d3
  40406e:	dec    esi
  40406f:	popa   
  404070:	ins    DWORD PTR es:[edi],dx
  404071:	add    BYTE PTR gs:[ecx+0x72],ah
  404075:	addr16 jae 0x404078
  404078:	jb     0x4040ef
  40407a:	outs   dx,BYTE PTR ds:[esi]
  40407b:	je     0x4040e6
  40407d:	ins    DWORD PTR es:[edi],dx
  40407e:	gs inc ebx
  404080:	ins    BYTE PTR es:[edi],dx
  404081:	popa   
  404082:	jae    0x4040f7
  404084:	dec    esi
  404085:	popa   
  404086:	ins    DWORD PTR es:[edi],dx
  404087:	add    BYTE PTR gs:[ebx+0x79],dl
  40408b:	jae    0x404101
  40408d:	gs ins DWORD PTR es:[edi],dx
  40408f:	cs push edx
  404091:	jne    0x404101
  404093:	je     0x4040fe
  404095:	ins    DWORD PTR es:[edi],dx
  404096:	gs cs push esi
  404099:	gs jb  0x40410f
  40409c:	imul   ebp,DWORD PTR [edi+0x6e],0x676e69
  4040a3:	push   esp
  4040a4:	popa   
  4040a5:	jb     0x40410e
  4040a7:	gs je  0x4040f0
  4040aa:	jb     0x40410d
  4040ac:	ins    DWORD PTR es:[edi],dx
  4040ad:	gs ja  0x40411f
  4040b0:	jb     0x40411d
  4040b2:	inc    ecx
  4040b3:	je     0x404129
  4040b5:	jb     0x404120
  4040b7:	bound  esi,QWORD PTR [ebp+0x74]
  4040ba:	add    BYTE PTR gs:[ebx+0x79],dl
  4040be:	jae    0x404134
  4040c0:	gs ins DWORD PTR es:[edi],dx
  4040c2:	cs push edx
  4040c4:	jne    0x404134
  4040c6:	je     0x404131
  4040c8:	ins    DWORD PTR es:[edi],dx
  4040c9:	gs cs dec ecx
  4040cc:	outs   dx,BYTE PTR ds:[esi]
  4040cd:	je     0x404134
  4040cf:	jb     0x404140
  4040d1:	jo     0x404126
  4040d3:	gs jb  0x40414c
  4040d6:	imul   esp,DWORD PTR [ebx+0x65],0x6f430073
  4040dd:	ins    DWORD PTR es:[edi],dx
  4040de:	push   esi
  4040df:	imul   esi,DWORD PTR [ebx+0x69],0x41656c62
  4040e6:	je     0x40415c
  4040e8:	jb     0x404153
  4040ea:	bound  esi,QWORD PTR [ebp+0x74]
  4040ed:	add    BYTE PTR gs:[ebx+0x4c],al
  4040f1:	push   ebx
  4040f2:	inc    ebx
  4040f3:	outs   dx,DWORD PTR ds:[esi]
  4040f4:	ins    DWORD PTR es:[edi],dx
  4040f5:	jo     0x404163
  4040f7:	imul   esp,DWORD PTR [ecx+0x6e],0x74744174
  4040fe:	jb     0x404169
  404100:	bound  esi,QWORD PTR [ebp+0x74]
  404103:	add    BYTE PTR gs:[ecx+0x73],al
  404107:	jae    0x40416e
  404109:	ins    DWORD PTR es:[edi],dx
  40410a:	bound  ebp,QWORD PTR [ecx+edi*2+0x54]
  40410e:	imul   esi,DWORD PTR [esp+ebp*2+0x65],0x72747441
  404116:	imul   esp,DWORD PTR [edx+0x75],0x41006574
  40411d:	jae    0x404192
  40411f:	gs ins DWORD PTR es:[edi],dx
  404121:	bound  ebp,QWORD PTR [ecx+edi*2+0x44]
  404125:	gs jae 0x40418b
  404128:	jb     0x404193
  40412a:	jo     0x4041a0
  40412c:	imul   ebp,DWORD PTR [edi+0x6e],0x72747441
  404133:	imul   esp,DWORD PTR [edx+0x75],0x41006574
  40413a:	jae    0x4041af
  40413c:	gs ins DWORD PTR es:[edi],dx
  40413e:	bound  ebp,QWORD PTR [ecx+edi*2+0x44]
  404142:	gs popaw 
  404145:	jne    0x4041b3
  404147:	je     0x40418a
  404149:	ins    BYTE PTR es:[edi],dx
  40414a:	imul   esp,DWORD PTR [ecx+0x73],0x72747441
  404151:	imul   esp,DWORD PTR [edx+0x75],0x41006574
  404158:	jae    0x4041cd
  40415a:	gs ins DWORD PTR es:[edi],dx
  40415c:	bound  ebp,QWORD PTR [ecx+edi*2+0x43]
  404160:	outs   dx,DWORD PTR ds:[esi]
  404161:	ins    DWORD PTR es:[edi],dx
  404162:	jo     0x4041c5
  404164:	outs   dx,BYTE PTR ds:[esi]
  404165:	jns    0x4041a8
  404167:	je     0x4041dd
  404169:	jb     0x4041d4
  40416b:	bound  esi,QWORD PTR [ebp+0x74]
  40416e:	add    BYTE PTR gs:[ecx+0x73],al
  404172:	jae    0x4041d9
  404174:	ins    DWORD PTR es:[edi],dx
  404175:	bound  ebp,QWORD PTR [ecx+edi*2+0x50]
  404179:	jb     0x4041ea
  40417b:	fs jne 0x4041e1
  40417e:	je     0x4041c1
  404180:	je     0x4041f6
  404182:	jb     0x4041ed
  404184:	bound  esi,QWORD PTR [ebp+0x74]
  404187:	add    BYTE PTR gs:[ecx+0x73],al
  40418b:	jae    0x4041f2
  40418d:	ins    DWORD PTR es:[edi],dx
  40418e:	bound  ebp,QWORD PTR [ecx+edi*2+0x43]
  404192:	outs   dx,DWORD PTR ds:[esi]
  404193:	jo     0x40420e
  404195:	jb     0x404200
  404197:	addr16 push 0x74744174
  40419d:	jb     0x404208
  40419f:	bound  esi,QWORD PTR [ebp+0x74]
  4041a2:	add    BYTE PTR gs:[ecx+0x73],al
  4041a6:	jae    0x40420d
  4041a8:	ins    DWORD PTR es:[edi],dx
  4041a9:	bound  ebp,QWORD PTR [ecx+edi*2+0x56]
  4041ad:	gs jb  0x404223
  4041b0:	imul   ebp,DWORD PTR [edi+0x6e],0x72747441
  4041b7:	imul   esp,DWORD PTR [edx+0x75],0x41006574
  4041be:	jae    0x404233
  4041c0:	gs ins DWORD PTR es:[edi],dx
  4041c2:	bound  ebp,QWORD PTR [ecx+edi*2+0x46]
  4041c6:	imul   ebp,DWORD PTR [ebp+eiz*2+0x56],0x69737265
  4041ce:	outs   dx,DWORD PTR ds:[esi]
  4041cf:	outs   dx,BYTE PTR ds:[esi]
  4041d0:	inc    ecx
  4041d1:	je     0x404247
  4041d3:	jb     0x40423e
  4041d5:	bound  esi,QWORD PTR [ebp+0x74]
  4041d8:	add    BYTE PTR gs:[ecx+0x73],al
  4041dc:	jae    0x404243
  4041de:	ins    DWORD PTR es:[edi],dx
  4041df:	bound  ebp,QWORD PTR [ecx+edi*2+0x49]
  4041e3:	outs   dx,BYTE PTR ds:[esi]
  4041e4:	outs   dx,WORD PTR ds:[esi]
  4041e6:	jb     0x404255
  4041e8:	popa   
  4041e9:	je     0x404254
  4041eb:	outs   dx,DWORD PTR ds:[esi]
  4041ec:	outs   dx,BYTE PTR ds:[esi]
  4041ed:	popa   
  4041ee:	ins    BYTE PTR es:[edi],dx
  4041ef:	push   esi
  4041f0:	gs jb  0x404266
  4041f3:	imul   ebp,DWORD PTR [edi+0x6e],0x72747441
  4041fa:	imul   esp,DWORD PTR [edx+0x75],0x53006574
  404201:	jns    0x404276
  404203:	je     0x40426a
  404205:	ins    DWORD PTR es:[edi],dx
  404206:	cs push edx
  404208:	gs jae 0x40427a
  40420b:	jne    0x40427f
  40420d:	arpl   WORD PTR [ebp+0x73],sp
  404210:	add    BYTE PTR [ebx+0x61],dl
  404213:	je     0x40427a
  404215:	ins    BYTE PTR es:[edi],dx
  404216:	ins    BYTE PTR es:[edi],dx
  404217:	imul   esi,DWORD PTR [ebp+eiz*2+0x43],0x72746e6f
  40421f:	popa   
  404220:	arpl   WORD PTR [esi+edx*2+0x65],si
  404224:	jb     0x404299
  404226:	imul   ebp,DWORD PTR [edi+0x6e],0x72747441
  40422d:	imul   esp,DWORD PTR [edx+0x75],0x4e006574
  404234:	gs jne 0x4042ab
  404237:	jb     0x40429a
  404239:	ins    BYTE PTR es:[edi],dx
  40423a:	push   edx
  40423b:	gs jae 0x4042ad
  40423e:	jne    0x4042b2
  404240:	arpl   WORD PTR [ebp+0x73],sp
  404243:	dec    esp
  404244:	popa   
  404245:	outs   dx,BYTE PTR ds:[esi]
  404246:	addr16 jne 0x4042aa
  404249:	addr16 gs inc ecx
  40424c:	je     0x4042c2
  40424e:	jb     0x4042b9
  404250:	bound  esi,QWORD PTR [ebp+0x74]
  404253:	add    BYTE PTR gs:[ecx+0x73],al
  404257:	jae    0x4042be
  404259:	ins    DWORD PTR es:[edi],dx
  40425a:	bound  ebp,QWORD PTR [ecx+edi*2+0x44]
  40425e:	gs ins BYTE PTR es:[edi],dx
  404260:	popa   
  404261:	jns    0x4042b6
  404263:	imul   esp,DWORD PTR [edi+0x6e],0x72747441
  40426a:	imul   esp,DWORD PTR [edx+0x75],0x41006574
  404271:	jae    0x4042e6
  404273:	gs ins DWORD PTR es:[edi],dx
  404275:	bound  ebp,QWORD PTR [ecx+edi*2+0x4b]
  404279:	gs jns 0x4042c2
  40427c:	imul   ebp,DWORD PTR [ebp+eiz*2+0x41],0x69727474
  404284:	bound  esi,QWORD PTR [ebp+0x74]
  404287:	add    BYTE PTR gs:[ecx+0x73],al
  40428b:	jae    0x4042f2
  40428d:	ins    DWORD PTR es:[edi],dx
  40428e:	bound  ebp,QWORD PTR [ecx+edi*2+0x53]
  404292:	imul   esp,DWORD PTR [edi+0x6e],0x72757461
  404299:	gs dec ebx
  40429b:	gs jns 0x4042df
  40429e:	je     0x404314
  4042a0:	jb     0x40430b
  4042a2:	bound  esi,QWORD PTR [ebp+0x74]
  4042a5:	add    BYTE PTR gs:[ebx+0x79],dl
  4042a9:	jae    0x40431f
  4042ab:	gs ins DWORD PTR es:[edi],dx
  4042ad:	cs push edx
  4042af:	jne    0x40431f
  4042b1:	je     0x40431c
  4042b3:	ins    DWORD PTR es:[edi],dx
  4042b4:	gs cs inc ebx
  4042b7:	outs   dx,DWORD PTR ds:[esi]
  4042b8:	ins    DWORD PTR es:[edi],dx
  4042b9:	jo     0x404324
  4042bb:	ins    BYTE PTR es:[edi],dx
  4042bc:	gs jb  0x404312
  4042bf:	gs jb  0x404338
  4042c2:	imul   esp,DWORD PTR [ebx+0x65],0x75520073
  4042c9:	outs   dx,BYTE PTR ds:[esi]
  4042ca:	je     0x404335
  4042cc:	ins    DWORD PTR es:[edi],dx
  4042cd:	gs inc ebx
  4042cf:	outs   dx,DWORD PTR ds:[esi]
  4042d0:	ins    DWORD PTR es:[edi],dx
  4042d1:	jo     0x404334
  4042d3:	je     0x40433e
  4042d5:	bound  ebp,QWORD PTR [ecx+0x6c]
  4042d8:	imul   esi,DWORD PTR [ecx+edi*2+0x41],0x69727474
  4042e0:	bound  esi,QWORD PTR [ebp+0x74]
  4042e3:	add    BYTE PTR gs:[ebx+0x79],dl
  4042e7:	jae    0x40435d
  4042e9:	gs ins DWORD PTR es:[edi],dx
  4042eb:	cs inc esp
  4042ed:	imul   esp,DWORD PTR [ecx+0x67],0x74736f6e
  4042f4:	imul   esp,DWORD PTR [ebx+0x73],0x62654400
  4042fb:	jne    0x404364
  4042fd:	addr16 popa 
  4042ff:	bound  ebp,QWORD PTR [ebp+eiz*2+0x41]
  404303:	je     0x404379
  404305:	jb     0x404370
  404307:	bound  esi,QWORD PTR [ebp+0x74]
  40430a:	add    BYTE PTR gs:[ebp+eiz*2+0x62],al
  40430f:	jne    0x404378
  404311:	imul   ebp,DWORD PTR [bp+0x67],0x65646f4d
  404319:	jae    0x40431b
  40431b:	inc    ebx
  40431c:	outs   dx,DWORD PTR ds:[esi]
  40431d:	ins    DWORD PTR es:[edi],dx
  40431e:	jo     0x404389
  404320:	ins    BYTE PTR es:[edi],dx
  404321:	popa   
  404322:	je     0x40438d
  404324:	outs   dx,DWORD PTR ds:[esi]
  404325:	outs   dx,BYTE PTR ds:[esi]
  404326:	push   edx
  404327:	gs ins BYTE PTR es:[edi],dx
  404329:	popa   
  40432a:	js     0x40438d
  40432c:	je     0x404397
  40432e:	outs   dx,DWORD PTR ds:[esi]
  40432f:	outs   dx,BYTE PTR ds:[esi]
  404330:	jae    0x404373
  404332:	je     0x4043a8
  404334:	jb     0x40439f
  404336:	bound  esi,QWORD PTR [ebp+0x74]
  404339:	add    BYTE PTR gs:[esi+0x73],dh
  40433d:	je     0x4043a4
  40433f:	jae    0x4043b5
  404341:	cs gs js 0x4043aa
  404345:	arpl   WORD PTR [ebp+0x74],si
  404348:	imul   ebp,DWORD PTR [edi+0x6e],0x69676e65
  40434f:	outs   dx,BYTE PTR ds:[esi]
  404350:	gs cs popa 
  404353:	jo     0x4043c5
  404355:	arpl   WORD PTR [edi+0x6e],bp
  404358:	je     0x4043bb
  40435a:	imul   ebp,DWORD PTR [esi+0x65],0x38782e72
  404361:	add    BYTE PTR ss:[ecx+0x72],al
  404365:	addr16 jne 0x4043d5
  404368:	outs   dx,BYTE PTR gs:[esi]
  40436a:	je     0x4043ba
  40436c:	jne    0x4043da
  40436e:	ins    BYTE PTR es:[edi],dx
  40436f:	inc    ebp
  404370:	js     0x4043d5
  404372:	gs jo  0x4043e9
  404375:	imul   ebp,DWORD PTR [edi+0x6e],0x72745300
  40437c:	imul   ebp,DWORD PTR [esi+0x67],0x4e734900
  404383:	jne    0x4043f1
  404385:	ins    BYTE PTR es:[edi],dx
  404386:	dec    edi
  404387:	jb     0x4043ce
  404389:	ins    DWORD PTR es:[edi],dx
  40438a:	jo     0x404400
  40438c:	jns    0x40438e
  40438e:	push   esp
  40438f:	jb     0x40440a
  404391:	inc    edi
  404392:	gs je  0x4043eb
  404395:	popa   
  404396:	ins    BYTE PTR es:[edi],dx
  404397:	jne    0x4043fe
  404399:	add    BYTE PTR [ecx+0x64],al
  40439c:	add    BYTE PTR fs:[edi+0x65],al
  4043a0:	je     0x4043f6
  4043a2:	jns    0x404414
  4043a4:	add    BYTE PTR gs:[edi+0x70],ch
  4043a8:	pop    edi
  4043a9:	inc    ebp
  4043aa:	jno    0x404421
  4043ac:	popa   
  4043ad:	ins    BYTE PTR es:[edi],dx
  4043ae:	imul   esi,DWORD PTR [ecx+edi*2+0x0],0x636e7546
  4043b6:	pusha  
  4043b7:	xor    al,0x0
  4043b9:	inc    esi
  4043ba:	jne    0x40442a
  4043bc:	arpl   WORD PTR [eax+0x32],sp
  4043bf:	add    BYTE PTR [ecx+0x73],al
  4043c2:	jae    0x404429
  4043c4:	ins    DWORD PTR es:[edi],dx
  4043c5:	bound  ebp,QWORD PTR [ecx+edi*2+0x4e]
  4043c9:	popa   
  4043ca:	ins    DWORD PTR es:[edi],dx
  4043cb:	add    BYTE PTR gs:[edi+0x65],ah
  4043cf:	je     0x404430
  4043d1:	inc    ecx
  4043d2:	jae    0x404447
  4043d4:	gs ins DWORD PTR es:[edi],dx
  4043d6:	bound  ebp,QWORD PTR [ecx+edi*2+0x51]
  4043da:	jne    0x40443d
  4043dc:	ins    BYTE PTR es:[edi],dx
  4043dd:	imul   esp,DWORD PTR [esi+0x69],0x614e6465
  4043e4:	ins    DWORD PTR es:[edi],dx
  4043e5:	add    BYTE PTR gs:[ebx+0x79],dl
  4043e9:	jae    0x40445f
  4043eb:	gs ins DWORD PTR es:[edi],dx
  4043ed:	cs inc edi
  4043ef:	ins    BYTE PTR es:[edi],dx
  4043f0:	outs   dx,DWORD PTR ds:[esi]
  4043f1:	bound  esp,QWORD PTR [ecx+0x6c]
  4043f4:	imul   edi,DWORD PTR [edx+0x61],0x6e6f6974
  4043fb:	add    BYTE PTR [ebx+0x75],al
  4043fe:	ins    BYTE PTR es:[edi],dx
  4043ff:	je     0x404476
  404401:	jb     0x404468
  404403:	dec    ecx
  404404:	outs   dx,BYTE PTR ds:[esi]
  404405:	outs   dx,WORD PTR ds:[esi]
  404407:	add    BYTE PTR [edi+0x65],ah
  40440a:	je     0x40446b
  40440c:	dec    ecx
  40440d:	outs   dx,BYTE PTR ds:[esi]
  40440e:	jbe    0x404471
  404410:	jb     0x40447b
  404412:	popa   
  404413:	outs   dx,BYTE PTR ds:[esi]
  404414:	je     0x404459
  404416:	jne    0x404484
  404418:	je     0x40448f
  40441a:	jb     0x404481
  40441c:	add    BYTE PTR [ecx+0x46],cl
  40441f:	outs   dx,DWORD PTR ds:[esi]
  404420:	jb     0x40448f
  404422:	popa   
  404423:	je     0x404475
  404425:	jb     0x404496
  404427:	jbe    0x404492
  404429:	fs gs jb 0x40442d
  40442d:	inc    esi
  40442e:	outs   dx,DWORD PTR ds:[esi]
  40442f:	jb     0x40449e
  404431:	popa   
  404432:	je     0x404434
  404434:	outs   dx,DWORD PTR ds:[esi]
  404435:	jo     0x404496
  404437:	dec    ecx
  404438:	outs   dx,BYTE PTR ds:[esi]
  404439:	gs jno 0x4044b1
  40443c:	popa   
  40443d:	ins    BYTE PTR es:[edi],dx
  40443e:	imul   esi,DWORD PTR [ecx+edi*2+0x0],0x6d756e45
  404446:	gs jb  0x4044aa
  404449:	je     0x4044ba
  40444b:	jb     0x40444d
  40444d:	inc    edi
  40444e:	gs je  0x404496
  404451:	outs   dx,BYTE PTR ds:[esi]
  404452:	jne    0x4044c1
  404454:	gs jb  0x4044b8
  404457:	je     0x4044c8
  404459:	jb     0x40445b
  40445b:	addr16 gs je 0x4044be
  40445f:	inc    ebx
  404460:	jne    0x4044d4
  404462:	jb     0x4044c9
  404464:	outs   dx,BYTE PTR ds:[esi]
  404465:	je     0x404467
  404467:	dec    ebp
  404468:	outs   dx,DWORD PTR ds:[esi]
  404469:	jbe    0x4044d0
  40446b:	dec    esi
  40446c:	gs js  0x4044e3
  40446f:	add    BYTE PTR [ecx+0x44],cl
  404472:	imul   esi,DWORD PTR [ebx+0x70],0x6261736f
  404479:	ins    BYTE PTR es:[edi],dx
  40447a:	add    BYTE PTR gs:[ecx+ebp*2+0x73],al
  40447f:	jo     0x4044f0
  404481:	jae    0x4044e8
  404483:	add    BYTE PTR [ebp+0x78],al
  404486:	arpl   WORD PTR [ebp+0x70],sp
  404489:	je     0x4044f4
  40448b:	outs   dx,DWORD PTR ds:[esi]
  40448c:	outs   dx,BYTE PTR ds:[esi]
  40448d:	add    BYTE PTR [ebx+0x74],dl
  404490:	jb     0x4044fb
  404492:	outs   dx,BYTE PTR ds:[esi]
  404493:	addr16 inc ebx
  404495:	outs   dx,DWORD PTR ds:[esi]
  404496:	ins    DWORD PTR es:[edi],dx
  404497:	jo     0x4044fa
  404499:	jb     0x404504
  40449b:	jae    0x40450c
  40449d:	outs   dx,BYTE PTR ds:[esi]
  40449e:	add    BYTE PTR [ebx+0x74],dl
  4044a1:	popa   
  4044a2:	jb     0x404518
  4044a4:	jae    0x4044fd
  4044a6:	imul   esi,DWORD PTR [eax+ebp*2+0x0],0x7473614c
  4044ae:	dec    ecx
  4044af:	outs   dx,BYTE PTR ds:[esi]
  4044b0:	fs gs js 0x404503
  4044b4:	data16 add BYTE PTR [ebx+0x75],dl
  4044b8:	bound  esi,QWORD PTR [ebx+0x74]
  4044bb:	jb     0x404526
  4044bd:	outs   dx,BYTE PTR ds:[esi]
  4044be:	add    BYTE PTR [bp+0x6f],cl
  4044c2:	je     0x40450d
  4044c4:	ins    DWORD PTR es:[edi],dx
  4044c5:	jo     0x404533
  4044c7:	gs ins DWORD PTR es:[edi],dx
  4044c9:	outs   dx,BYTE PTR gs:[esi]
  4044cb:	je     0x404532
  4044cd:	fs inc ebp
  4044cf:	js     0x404534
  4044d1:	gs jo  0x404548
  4044d4:	imul   ebp,DWORD PTR [edi+0x6e],0x6e6f4300
  4044db:	je     0x404542
  4044dd:	outs   dx,BYTE PTR ds:[esi]
  4044de:	je     0x404530
  4044e0:	jb     0x404551
  4044e2:	jo     0x404549
  4044e4:	jb     0x40455a
  4044e6:	jns    0x404529
  4044e8:	je     0x40455e
  4044ea:	jb     0x404555
  4044ec:	bound  esi,QWORD PTR [ebp+0x74]
  4044ef:	add    BYTE PTR gs:[ebp+0x6d],al
  4044f3:	jo     0x404569
  4044f5:	jns    0x40454b
  4044f7:	jns    0x404569
  4044f9:	gs jae 0x4044fc
  4044fc:	inc    edi
  4044fd:	gs je  0x404543
  404500:	outs   dx,DWORD PTR ds:[esi]
  404501:	outs   dx,BYTE PTR ds:[esi]
  404502:	jae    0x404578
  404504:	jb     0x40457b
  404506:	arpl   WORD PTR [edi+ebp*2+0x72],si
  40450a:	add    BYTE PTR [ecx+0x44],cl
  40450d:	imul   esp,DWORD PTR [ebx+0x74],0x616e6f69
  404514:	jb     0x40458f
  404516:	pusha  
  404517:	xor    al,BYTE PTR [eax]
  404519:	push   edx
  40451a:	jne    0x40458a
  40451c:	je     0x404587
  40451e:	ins    DWORD PTR es:[edi],dx
  40451f:	gs push esp
  404521:	jns    0x404593
  404523:	gs dec eax
  404525:	popa   
  404526:	outs   dx,BYTE PTR ds:[esi]
  404527:	fs ins BYTE PTR es:[edi],dx
  404529:	add    BYTE PTR gs:[edi+0x65],al
  40452d:	je     0x404583
  40452f:	jns    0x4045a1
  404531:	gs inc esi
  404533:	jb     0x4045a4
  404535:	ins    DWORD PTR es:[edi],dx
  404536:	dec    eax
  404537:	popa   
  404538:	outs   dx,BYTE PTR ds:[esi]
  404539:	fs ins BYTE PTR es:[edi],dx
  40453b:	add    BYTE PTR gs:[edi+0x65],al
  40453f:	je     0x40458a
  404541:	outs   dx,BYTE PTR ds:[esi]
  404542:	je     0x4045a9
  404544:	jb     0x4045ac
  404546:	popa   
  404547:	arpl   WORD PTR [ebp+0x0],sp
  40454a:	inc    edi
  40454b:	gs je  0x40459b
  40454e:	gs je  0x4045b9
  404551:	outs   dx,DWORD PTR ds:[esi]
  404552:	add    BYTE PTR fs:[edi+0x65],al
  404556:	je     0x40459f
  404558:	outs   dx,BYTE PTR gs:[esi]
  40455a:	gs jb  0x4045c6
  40455d:	arpl   WORD PTR [ecx+0x72],ax
  404560:	addr16 jne 0x4045d0
  404563:	outs   dx,BYTE PTR gs:[esi]
  404565:	je     0x4045da
  404567:	add    BYTE PTR [ecx+0x43],cl
  40456a:	outs   dx,DWORD PTR ds:[esi]
  40456b:	ins    BYTE PTR es:[edi],dx
  40456c:	ins    BYTE PTR es:[edi],dx
  40456d:	arpl   WORD PTR gs:[ecx+ebp*2+0x6f],si
  404572:	outs   dx,BYTE PTR ds:[esi]
  404573:	pusha  
  404574:	xor    DWORD PTR [eax],eax
  404576:	dec    ecx
  404577:	dec    esp
  404578:	imul   esi,DWORD PTR [ebx+0x74],0x43003160
  40457f:	jne    0x4045f4
  404581:	je     0x4045f2
  404583:	ins    DWORD PTR es:[edi],dx
  404584:	inc    ecx
  404585:	je     0x4045fb
  404587:	jb     0x4045f2
  404589:	bound  esi,QWORD PTR [ebp+0x74]
  40458c:	gs inc esp
  40458e:	popa   
  40458f:	je     0x4045f2
  404591:	add    BYTE PTR [edi+0x65],al
  404594:	je     0x4045d9
  404596:	jne    0x40460b
  404598:	je     0x404609
  40459a:	ins    DWORD PTR es:[edi],dx
  40459b:	inc    ecx
  40459c:	je     0x404612
  40459e:	jb     0x404609
  4045a0:	bound  esi,QWORD PTR [ebp+0x74]
  4045a3:	gs jae 0x4045ea
  4045a6:	popa   
  4045a7:	je     0x40460a
  4045a9:	add    BYTE PTR [ecx+0x45],cl
  4045ac:	outs   dx,BYTE PTR ds:[esi]
  4045ad:	jne    0x40461c
  4045af:	gs jb  0x404613
  4045b2:	bound  ebp,QWORD PTR [ebp+eiz*2+0x60]
  4045b6:	xor    DWORD PTR [eax],eax
  4045b8:	dec    ecx
  4045b9:	inc    ebp
  4045ba:	outs   dx,BYTE PTR ds:[esi]
  4045bb:	jne    0x40462a
  4045bd:	gs jb  0x404621
  4045c0:	je     0x404631
  4045c2:	jb     0x404624
  4045c4:	xor    DWORD PTR [eax],eax
  4045c6:	addr16 gs je 0x404629
  4045ca:	inc    ebx
  4045cb:	outs   dx,DWORD PTR ds:[esi]
  4045cc:	outs   dx,BYTE PTR ds:[esi]
  4045cd:	jae    0x404643
  4045cf:	jb     0x404646
  4045d1:	arpl   WORD PTR [edi+ebp*2+0x72],si
  4045d5:	add    BYTE PTR [edi+0x65],ah
  4045d8:	je     0x404639
  4045da:	inc    esp
  4045db:	arpl   WORD PTR gs:[ecx+eiz*2+0x72],bp
  4045e0:	imul   ebp,DWORD PTR [esi+0x67],0x65707954
  4045e7:	add    BYTE PTR [ebx+0x75],al
  4045ea:	jae    0x404660
  4045ec:	outs   dx,DWORD PTR ds:[esi]
  4045ed:	ins    DWORD PTR es:[edi],dx
  4045ee:	inc    ecx
  4045ef:	je     0x404665
  4045f1:	jb     0x40465c
  4045f3:	bound  esi,QWORD PTR [ebp+0x74]
  4045f6:	gs dec esi
  4045f8:	popa   
  4045f9:	ins    DWORD PTR es:[edi],dx
  4045fa:	gs fs inc ecx
  4045fd:	jb     0x404666
  4045ff:	jne    0x40466e
  404601:	outs   dx,BYTE PTR gs:[esi]
  404603:	je     0x404605
  404605:	addr16 gs je 0x404668
  404609:	dec    esi
  40460a:	popa   
  40460b:	ins    DWORD PTR es:[edi],dx
  40460c:	gs fs inc ecx
  40460f:	jb     0x404678
  404611:	jne    0x404680
  404613:	outs   dx,BYTE PTR gs:[esi]
  404615:	je     0x40468a
  404617:	add    BYTE PTR [edi+0x65],ah
  40461a:	je     0x40467b
  40461c:	dec    ebp
  40461d:	gs ins DWORD PTR es:[edi],dx
  40461f:	bound  esp,QWORD PTR [ebp+0x72]
  404622:	dec    ecx
  404623:	outs   dx,BYTE PTR ds:[esi]
  404624:	outs   dx,WORD PTR ds:[esi]
  404626:	add    BYTE PTR [ebx+0x75],al
  404629:	jae    0x40469f
  40462b:	outs   dx,DWORD PTR ds:[esi]
  40462c:	ins    DWORD PTR es:[edi],dx
  40462d:	inc    ecx
  40462e:	je     0x4046a4
  404630:	jb     0x40469b
  404632:	bound  esi,QWORD PTR [ebp+0x74]
  404635:	gs push esp
  404637:	jns    0x4046a9
  404639:	gs fs inc ecx
  40463c:	jb     0x4046a5
  40463e:	jne    0x4046ad
  404640:	outs   dx,BYTE PTR gs:[esi]
  404642:	je     0x404644
  404644:	addr16 gs je 0x4046a7
  404648:	push   esp
  404649:	jns    0x4046bb
  40464b:	gs fs push esi
  40464e:	popa   
  40464f:	ins    BYTE PTR es:[edi],dx
  404650:	jne    0x4046b7
  404652:	add    BYTE PTR [edi+0x65],ah
  404655:	je     0x4046b6
  404657:	push   esi
  404658:	popa   
  404659:	ins    BYTE PTR es:[edi],dx
  40465a:	jne    0x4046c1
  40465c:	add    BYTE PTR [ebx+0x79],dl
  40465f:	jae    0x4046d5
  404661:	gs ins DWORD PTR es:[edi],dx
  404663:	cs inc ebx
  404665:	outs   dx,DWORD PTR ds:[esi]
  404666:	ins    BYTE PTR es:[edi],dx
  404667:	ins    BYTE PTR es:[edi],dx
  404668:	arpl   WORD PTR gs:[ecx+ebp*2+0x6f],si
  40466d:	outs   dx,BYTE PTR ds:[esi]
  40466e:	jae    0x404670
  404670:	dec    ecx
  404671:	inc    ebp
  404672:	outs   dx,BYTE PTR ds:[esi]
  404673:	jne    0x4046e2
  404675:	gs jb  0x4046d9
  404678:	je     0x4046e9
  40467a:	jb     0x40467c
  40467c:	dec    ecx
  40467d:	outs   dx,BYTE PTR ds:[esi]
  40467e:	jbe    0x4046ef
  404680:	imul   esp,DWORD PTR [ebp+0x0],0x4d
  404684:	gs je  0x4046ef
  404687:	outs   dx,DWORD PTR ds:[esi]
  404688:	fs inc edx
  40468a:	popa   
  40468b:	jae    0x4046f2
  40468d:	add    BYTE PTR [edi+0x65],ah
  404690:	je     0x4046f1
  404692:	push   esp
  404693:	jns    0x404705
  404695:	gs dec eax
  404697:	popa   
  404698:	outs   dx,BYTE PTR ds:[esi]
  404699:	fs ins BYTE PTR es:[edi],dx
  40469b:	add    BYTE PTR gs:[edx+0x75],dl
  40469f:	outs   dx,BYTE PTR ds:[esi]
  4046a0:	je     0x40470b
  4046a2:	ins    DWORD PTR es:[edi],dx
  4046a3:	gs dec eax
  4046a5:	gs ins BYTE PTR es:[edi],dx
  4046a7:	jo     0x40470e
  4046a9:	jb     0x40471e
  4046ab:	add    BYTE PTR [edx+0x75],dl
  4046ae:	outs   dx,BYTE PTR ds:[esi]
  4046af:	inc    ebx
  4046b0:	ins    BYTE PTR es:[edi],dx
  4046b1:	popa   
  4046b2:	jae    0x404727
  4046b4:	inc    ebx
  4046b5:	outs   dx,DWORD PTR ds:[esi]
  4046b6:	outs   dx,BYTE PTR ds:[esi]
  4046b7:	jae    0x40472d
  4046b9:	jb     0x404730
  4046bb:	arpl   WORD PTR [edi+ebp*2+0x72],si
  4046bf:	add    BYTE PTR [edi+0x65],al
  4046c2:	je     0x404714
  4046c4:	jb     0x404735
  4046c6:	jo     0x40472d
  4046c8:	jb     0x40473e
  4046ca:	jns    0x4046cc
  4046cc:	addr16 gs je 0x40472f
  4046d0:	push   eax
  4046d1:	jb     0x404742
  4046d3:	jo     0x40473a
  4046d5:	jb     0x40474b
  4046d7:	jns    0x40472d
  4046d9:	jns    0x40474b
  4046db:	add    BYTE PTR gs:[edi+0x65],ah
  4046df:	je     0x404740
  4046e1:	inc    ebx
  4046e2:	popa   
  4046e3:	outs   dx,BYTE PTR ds:[esi]
  4046e4:	push   edx
  4046e5:	gs popa 
  4046e7:	add    BYTE PTR fs:[edi+0x65],ah
  4046eb:	je     0x40474c
  4046ed:	inc    ebx
  4046ee:	popa   
  4046ef:	outs   dx,BYTE PTR ds:[esi]
  4046f0:	push   edi
  4046f1:	jb     0x40475c
  4046f3:	je     0x40475a
  4046f5:	add    BYTE PTR [ecx+0x6e],cl
  4046f8:	jbe    0x40475b
  4046fa:	ins    BYTE PTR es:[edi],dx
  4046fb:	imul   esp,DWORD PTR [edi+ecx*2+0x70],0x74617265
  404703:	imul   ebp,DWORD PTR [edi+0x6e],0x65637845
  40470a:	jo     0x404780
  40470c:	imul   ebp,DWORD PTR [edi+0x6e],0x74656700
  404713:	pop    edi
  404714:	dec    ecx
  404715:	jae    0x40475c
  404717:	outs   dx,BYTE PTR ds:[esi]
  404718:	jne    0x404787
  40471a:	add    BYTE PTR [edi+0x65],al
  40471d:	je     0x404764
  40471f:	outs   dx,BYTE PTR ds:[esi]
  404720:	jne    0x40478f
  404722:	dec    esi
  404723:	popa   
  404724:	ins    DWORD PTR es:[edi],dx
  404725:	add    BYTE PTR gs:[ebp+0x6e],al
  404729:	jne    0x404798
  40472b:	add    BYTE PTR [eax+0x61],dl
  40472e:	jb     0x4047a3
  404730:	add    BYTE PTR gs:[ecx+0x70],al
  404734:	jo     0x4047a2
  404736:	imul   esp,DWORD PTR [ebx+0x61],0x6e6f6974
  40473d:	dec    ecx
  40473e:	outs   dx,BYTE PTR ds:[esi]
  40473f:	imul   esi,DWORD PTR [ecx+ebp*2+0x61],0x617a696c
  404747:	je     0x4047b2
  404749:	outs   dx,DWORD PTR ds:[esi]
  40474a:	outs   dx,BYTE PTR ds:[esi]
  40474b:	inc    ebx
  40474c:	popa   
  40474d:	ins    BYTE PTR es:[edi],dx
  40474e:	ins    BYTE PTR es:[edi],dx
  40474f:	bound  esp,QWORD PTR [ecx+0x63]
  404752:	imul   edx,DWORD PTR [eax+0x61],0x72
  404756:	popa   
  404757:	ins    DWORD PTR es:[edi],dx
  404758:	jae    0x40475a
  40475a:	cmp    al,0x4d
  40475c:	popa   
  40475d:	imul   ebp,DWORD PTR [esi+0x3e],0x305f5f62
  404764:	add    BYTE PTR [eax+0x0],dh
  404767:	inc    ecx
  404768:	jo     0x4047da
  40476a:	ins    BYTE PTR es:[edi],dx
  40476b:	imul   esp,DWORD PTR [ebx+0x61],0x6e6f6974
  404772:	dec    ecx
  404773:	outs   dx,BYTE PTR ds:[esi]
  404774:	imul   esi,DWORD PTR [ecx+ebp*2+0x61],0x617a696c
  40477c:	je     0x4047e7
  40477e:	outs   dx,DWORD PTR ds:[esi]
  40477f:	outs   dx,BYTE PTR ds:[esi]
  404780:	inc    ebx
  404781:	popa   
  404782:	ins    BYTE PTR es:[edi],dx
  404783:	ins    BYTE PTR es:[edi],dx
  404784:	bound  esp,QWORD PTR [ecx+0x63]
  404787:	imul   eax,DWORD PTR [eax],0x43
  40478a:	push   ebx
  40478b:	and    al,0x3c
  40478d:	cmp    DWORD PTR ds:[edi+0x5f],ebx
  404791:	inc    ebx
  404792:	popa   
  404793:	arpl   WORD PTR [eax+0x65],bp
  404796:	fs inc ecx
  404798:	outs   dx,BYTE PTR ds:[esi]
  404799:	outs   dx,DWORD PTR ds:[esi]
  40479a:	outs   dx,BYTE PTR ds:[esi]
  40479b:	jns    0x40480a
  40479d:	outs   dx,DWORD PTR ds:[esi]
  40479e:	jne    0x404813
  4047a0:	dec    ebp
  4047a1:	gs je  0x40480c
  4047a4:	outs   dx,DWORD PTR ds:[esi]
  4047a5:	fs inc esp
  4047a7:	gs ins BYTE PTR es:[edi],dx
  4047a9:	gs addr16 popa 
  4047ac:	je     0x404813
  4047ae:	xor    DWORD PTR [eax],eax
  4047b0:	inc    ebx
  4047b1:	outs   dx,DWORD PTR ds:[esi]
  4047b2:	ins    DWORD PTR es:[edi],dx
  4047b3:	jo     0x40481e
  4047b5:	ins    BYTE PTR es:[edi],dx
  4047b6:	gs jb  0x404800
  4047b9:	outs   dx,BYTE PTR gs:[esi]
  4047bb:	gs jb  0x40481f
  4047be:	je     0x404825
  4047c0:	fs inc ecx
  4047c2:	je     0x404838
  4047c4:	jb     0x40482f
  4047c6:	bound  esi,QWORD PTR [ebp+0x74]
  4047c9:	add    BYTE PTR gs:[ebp+0x6e],al
  4047cd:	jbe    0x404838
  4047cf:	jb     0x404840
  4047d1:	outs   dx,BYTE PTR ds:[esi]
  4047d2:	ins    DWORD PTR es:[edi],dx
  4047d3:	outs   dx,BYTE PTR gs:[esi]
  4047d5:	je     0x4047d7
  4047d7:	inc    edi
  4047d8:	gs je  0x404820
  4047db:	outs   dx,BYTE PTR ds:[esi]
  4047dc:	jbe    0x404847
  4047de:	jb     0x40484f
  4047e0:	outs   dx,BYTE PTR ds:[esi]
  4047e1:	ins    DWORD PTR es:[edi],dx
  4047e2:	outs   dx,BYTE PTR gs:[esi]
  4047e4:	je     0x40483c
  4047e6:	popa   
  4047e7:	jb     0x404852
  4047e9:	popa   
  4047ea:	bound  ebp,QWORD PTR [ebp+eiz*2+0x0]
  4047ee:	dec    ecx
  4047ef:	outs   dx,BYTE PTR ds:[esi]
  4047f0:	je     0x404825
  4047f2:	xor    al,BYTE PTR [eax]
  4047f4:	push   esp
  4047f5:	jb     0x404870
  4047f7:	push   eax
  4047f8:	popa   
  4047f9:	jb     0x40486e
  4047fb:	add    BYTE PTR gs:[edx+esi*2+0x61],dl
  404800:	arpl   WORD PTR [ebp+0x4c],sp
  404803:	gs jbe 0x40486b
  404806:	ins    BYTE PTR es:[edi],dx
  404807:	add    BYTE PTR [ecx+0x73],cl
  40480a:	inc    esp
  40480b:	imul   bp,WORD PTR gs:[esi+0x65],0x64
  404812:	push   esp
  404813:	outs   dx,DWORD PTR ds:[esi]
  404814:	dec    edi
  404815:	bound  ebp,QWORD PTR [edx+0x65]
  404818:	arpl   WORD PTR [eax+eax*1+0x4d],si
  40481c:	imul   esp,DWORD PTR [ebx+0x72],0x666f736f
  404823:	je     0x404853
  404825:	push   esi
  404826:	imul   esi,DWORD PTR [ebx+0x75],0x74536c61
  40482d:	jne    0x404893
  40482f:	imul   ebp,DWORD PTR [edi+0x2e],0x74736554
  404836:	push   eax
  404837:	ins    BYTE PTR es:[edi],dx
  404838:	popa   
  404839:	je     0x4048a1
  40483b:	outs   dx,DWORD PTR ds:[esi]
  40483c:	jb     0x4048ab
  40483e:	cs dec edi
  404840:	bound  ebp,QWORD PTR [edx+0x65]
  404843:	arpl   WORD PTR [ebp+ecx*2+0x6f],si
  404847:	fs gs ins BYTE PTR es:[edi],dx
  40484a:	add    BYTE PTR [ebp+0x71],al
  40484d:	je     0x4048a3
  40484f:	jb     0x4048b2
  404851:	arpl   WORD PTR [ebp+0x0],sp
  404854:	jae    0x4048bb
  404856:	je     0x4048b7
  404858:	push   esp
  404859:	jb     0x4048bc
  40485b:	arpl   WORD PTR [ebp+0x4c],sp
  40485e:	gs jbe 0x4048c6
  404861:	ins    BYTE PTR es:[edi],dx
  404862:	add    BYTE PTR [ebx+0x79],dl
  404865:	jae    0x4048db
  404867:	gs ins DWORD PTR es:[edi],dx
  404869:	cs push esp
  40486b:	push   0x64616572
  404870:	imul   ebp,DWORD PTR [esi+0x67],0x72685400
  404877:	gs popa 
  404879:	add    BYTE PTR fs:[ebx+0x6c],dl
  40487d:	gs gs jo 0x404881
  404881:	push   ebx
  404882:	je     0x4048e5
  404884:	jb     0x4048fa
  404886:	add    BYTE PTR [ebp+0x6f],cl
  404889:	fs jne 0x4048f8
  40488c:	add    BYTE PTR gs:[edi+0x65],ah
  404890:	je     0x4048f1
  404892:	dec    ebp
  404893:	outs   dx,DWORD PTR ds:[esi]
  404894:	fs jne 0x404903
  404897:	add    BYTE PTR gs:[edi+0x65],ah
  40489b:	je     0x4048fc
  40489d:	inc    ecx
  40489e:	jae    0x404913
  4048a0:	gs ins DWORD PTR es:[edi],dx
  4048a2:	bound  ebp,QWORD PTR [ecx+edi*2+0x0]
  4048a6:	addr16 gs je 0x404909
  4048aa:	dec    esp
  4048ab:	outs   dx,DWORD PTR ds:[esi]
  4048ac:	arpl   WORD PTR [ecx+0x74],sp
  4048af:	imul   ebp,DWORD PTR [edi+0x6e],0x73795300
  4048b6:	je     0x40491d
  4048b8:	ins    DWORD PTR es:[edi],dx
  4048b9:	cs dec ecx
  4048bb:	dec    edi
  4048bc:	add    BYTE PTR [esi+0x69],al
  4048bf:	ins    BYTE PTR es:[edi],dx
  4048c0:	gs dec ecx
  4048c2:	outs   dx,BYTE PTR ds:[esi]
  4048c3:	outs   dx,WORD PTR ds:[esi]
  4048c5:	add    BYTE PTR [ecx+ebp*2+0x72],al
  4048c9:	arpl   WORD PTR gs:[edi+ebp*2+0x72],si
  4048ce:	jns    0x404919
  4048d0:	outs   dx,BYTE PTR ds:[esi]
  4048d1:	outs   dx,WORD PTR ds:[esi]
  4048d3:	add    BYTE PTR [edi+0x65],ah
  4048d6:	je     0x404937
  4048d8:	inc    esp
  4048d9:	imul   esi,DWORD PTR [edx+0x65],0x726f7463
  4048e0:	jns    0x4048e2
  4048e2:	inc    edi
  4048e3:	gs je  0x40492c
  4048e6:	imul   ebp,DWORD PTR [ebp+eiz*2+0x73],0x6c694600
  4048ee:	gs push ebx
  4048f0:	jns    0x404965
  4048f2:	je     0x404959
  4048f4:	ins    DWORD PTR es:[edi],dx
  4048f5:	dec    ecx
  4048f6:	outs   dx,BYTE PTR ds:[esi]
  4048f7:	outs   dx,WORD PTR ds:[esi]
  4048f9:	add    BYTE PTR [edi+ebp*2+0x4c],dl
  4048fd:	outs   dx,DWORD PTR ds:[esi]
  4048fe:	ja     0x404965
  404900:	jb     0x404902
  404902:	inc    ebx
  404903:	outs   dx,DWORD PTR ds:[esi]
  404904:	outs   dx,BYTE PTR ds:[esi]
  404905:	je     0x404968
  404907:	imul   ebp,DWORD PTR [esi+0x73],0x74656700
  40490e:	pop    edi
  40490f:	inc    ebp
  404910:	js     0x404986
  404912:	outs   dx,BYTE PTR gs:[esi]
  404914:	jae    0x40497f
  404916:	outs   dx,DWORD PTR ds:[esi]
  404917:	outs   dx,BYTE PTR ds:[esi]
  404918:	add    BYTE PTR [edi+ebp*2+0x4c],dl
  40491c:	outs   dx,DWORD PTR ds:[esi]
  40491d:	ja     0x404984
  40491f:	jb     0x40496a
  404921:	outs   dx,BYTE PTR ds:[esi]
  404922:	jbe    0x404985
  404924:	jb     0x40498f
  404926:	popa   
  404927:	outs   dx,BYTE PTR ds:[esi]
  404928:	je     0x40492a
  40492a:	push   eax
  40492b:	popa   
  40492c:	je     0x404996
  40492e:	add    BYTE PTR [edi+0x65],al
  404931:	je     0x404979
  404933:	imul   ebp,DWORD PTR [ebp+eiz*2+0x4e],0x57656d61
  40493b:	imul   esi,DWORD PTR [eax+ebp*2+0x6f],0x78457475
  404943:	je     0x4049aa
  404945:	outs   dx,BYTE PTR ds:[esi]
  404946:	jae    0x4049b1
  404948:	outs   dx,DWORD PTR ds:[esi]
  404949:	outs   dx,BYTE PTR ds:[esi]
  40494a:	add    BYTE PTR [ebx+0x6f],al
  40494d:	ins    DWORD PTR es:[edi],dx
  40494e:	jo     0x4049b1
  404950:	jb     0x4049b7
  404952:	add    BYTE PTR [edi+ecx*2],bh
  404955:	outs   dx,BYTE PTR ds:[esi]
  404956:	dec    esp
  404957:	popa   
  404958:	jne    0x4049c8
  40495a:	arpl   WORD PTR [eax+0x65],bp
  40495d:	fs bound ebx,QWORD PTR ds:[edi+0x5f]
  404962:	xor    BYTE PTR [eax],al
  404964:	push   esp
  404965:	push   0x64616572
  40496a:	push   ebx
  40496b:	je     0x4049ce
  40496d:	jb     0x4049e3
  40496f:	add    BYTE PTR [ebp+0x69],cl
  404972:	arpl   WORD PTR [edx+0x6f],si
  404975:	jae    0x4049e6
  404977:	data16 je 0x4049a8
  40497a:	push   esi
  40497b:	imul   esi,DWORD PTR [ebx+0x75],0x74536c61
  404982:	jne    0x4049e8
  404984:	imul   ebp,DWORD PTR [edi+0x2e],0x74736554
  40498b:	push   eax
  40498c:	ins    BYTE PTR es:[edi],dx
  40498d:	popa   
  40498e:	je     0x4049f6
  404990:	outs   dx,DWORD PTR ds:[esi]
  404991:	jb     0x404a00
  404993:	cs push esp
  404995:	gs jae 0x404a0c
  404998:	inc    ebp
  404999:	js     0x404a00
  40499b:	arpl   WORD PTR [ebp+0x74],si
  40499e:	outs   dx,DWORD PTR ds:[esi]
  40499f:	jb     0x4049cf
  4049a1:	inc    ebx
  4049a2:	outs   dx,DWORD PTR ds:[esi]
  4049a3:	jb     0x404a0a
  4049a5:	add    BYTE PTR [ebp+0x69],cl
  4049a8:	arpl   WORD PTR [edx+0x6f],si
  4049ab:	jae    0x404a1c
  4049ad:	data16 je 0x4049de
  4049b0:	push   esi
  4049b1:	imul   esi,DWORD PTR [ebx+0x75],0x74536c61
  4049b8:	jne    0x404a1e
  4049ba:	imul   ebp,DWORD PTR [edi+0x2e],0x74736554
  4049c1:	push   eax
  4049c2:	ins    BYTE PTR es:[edi],dx
  4049c3:	popa   
  4049c4:	je     0x404a2c
  4049c6:	outs   dx,DWORD PTR ds:[esi]
  4049c7:	jb     0x404a36
  4049c9:	cs push esp
  4049cb:	gs jae 0x404a42
  4049ce:	inc    ebp
  4049cf:	js     0x404a36
  4049d1:	arpl   WORD PTR [ebp+0x74],si
  4049d4:	outs   dx,DWORD PTR ds:[esi]
  4049d5:	jb     0x4049d7
  4049d7:	push   esp
  4049d8:	gs jae 0x404a4f
  4049db:	inc    ebp
  4049dc:	js     0x404a43
  4049de:	arpl   WORD PTR [ebp+0x74],si
  4049e1:	outs   dx,DWORD PTR ds:[esi]
  4049e2:	jb     0x404a31
  4049e4:	popa   
  4049e5:	imul   ebp,DWORD PTR [esi+0x0],0x6e7552
  4049ec:	inc    ebp
  4049ed:	js     0x404a58
  4049ef:	je     0x4049f1
  4049f1:	inc    ecx
  4049f2:	arpl   WORD PTR [ecx+ebp*2+0x76],si
  4049f6:	popa   
  4049f7:	je     0x404a62
  4049f9:	outs   dx,DWORD PTR ds:[esi]
  4049fa:	outs   dx,BYTE PTR ds:[esi]
  4049fb:	dec    ebx
  4049fc:	imul   ebp,DWORD PTR [esi+0x64],0x74656700
  404a03:	pop    edi
  404a04:	dec    ebx
  404a05:	imul   ebp,DWORD PTR [esi+0x64],0x63632e00
  404a0c:	je     0x404a7d
  404a0e:	jb     0x404a10
  404a10:	add    BYTE PTR ds:0x730075,bl
  404a16:	add    BYTE PTR gs:[edx+0x0],dh
  404a1a:	inc    ecx
  404a1b:	add    BYTE PTR [ebx+0x0],dh
  404a1e:	jae    0x404a20
  404a20:	add    BYTE PTR gs:[esi+0x0],ch
  404a24:	bound  eax,QWORD PTR [eax]
  404a26:	ins    BYTE PTR es:[edi],dx
  404a27:	add    BYTE PTR [ecx+0x0],ch
  404a2a:	add    BYTE PTR gs:[ebx+0x0],dh
  404a2e:	add    BYTE PTR [ecx+0x7b],ah
  404a31:	add    BYTE PTR [eax],dh
  404a33:	add    BYTE PTR [ebp+0x0],bh
  404a36:	sub    al,0x0
  404a38:	and    BYTE PTR [eax],al
  404a3a:	push   edi
  404a3b:	add    BYTE PTR [ecx+0x0],ch
  404a3e:	outs   dx,BYTE PTR ds:[esi]
  404a3f:	add    BYTE PTR [eax+eax*1+0x6f],ah
  404a43:	add    BYTE PTR [edi+0x0],dh
  404a46:	jae    0x404a48
  404a48:	add    BYTE PTR cs:[ebp+0x0],dl
  404a4c:	dec    ecx
  404a4d:	add    BYTE PTR [esi],ch
  404a4f:	add    BYTE PTR [eax+0x0],bl
  404a52:	popa   
  404a53:	add    BYTE PTR [ebp+0x0],ch
  404a56:	ins    BYTE PTR es:[edi],dx
  404a57:	add    BYTE PTR [eax+eax*1],ch
  404a5a:	and    BYTE PTR [eax],al
  404a5c:	inc    ebx
  404a5d:	add    BYTE PTR [edi+0x0],ch
  404a60:	outs   dx,BYTE PTR ds:[esi]
  404a61:	add    BYTE PTR [eax+eax*1+0x65],dh
  404a65:	add    BYTE PTR [esi+0x0],ch
  404a68:	je     0x404a6a
  404a6a:	push   esp
  404a6b:	add    BYTE PTR [ecx+0x0],bh
  404a6e:	jo     0x404a70
  404a70:	add    BYTE PTR gs:0x69005700,bh
  404a77:	add    BYTE PTR [esi+0x0],ch
  404a7a:	add    BYTE PTR fs:[edi+0x0],ch
  404a7e:	ja     0x404a80
  404a80:	jae    0x404a82
  404a82:	push   edx
  404a83:	add    BYTE PTR [ebp+0x0],dh
  404a86:	outs   dx,BYTE PTR ds:[esi]
  404a87:	add    BYTE PTR [eax+eax*1+0x69],dh
  404a8b:	add    BYTE PTR [ebp+0x0],ch
  404a8e:	add    BYTE PTR gs:[eax],al
  404a91:	adc    DWORD PTR [ebx+0x0],edi
  404a94:	xor    BYTE PTR [eax],al
  404a96:	jge    0x404a98
  404a98:	sub    al,0x0
  404a9a:	and    BYTE PTR [eax],al
  404a9c:	jnp    0x404a9e
  404a9e:	xor    DWORD PTR [eax],eax
  404aa0:	jge    0x404aa2
  404aa2:	add    BYTE PTR [edi],bl
  404aa4:	push   edi
  404aa5:	add    BYTE PTR [ecx+0x0],ch
  404aa8:	outs   dx,BYTE PTR ds:[esi]
  404aa9:	add    BYTE PTR [eax+eax*1+0x6f],ah
  404aad:	add    BYTE PTR [edi+0x0],dh
  404ab0:	jae    0x404ab2
  404ab2:	add    BYTE PTR cs:[ebp+0x0],dl
  404ab6:	dec    ecx
  404ab7:	add    BYTE PTR [esi],ch
  404ab9:	add    BYTE PTR [eax+0x0],bl
  404abc:	popa   
  404abd:	add    BYTE PTR [ebp+0x0],ch
  404ac0:	ins    BYTE PTR es:[edi],dx
  404ac1:	add    BYTE PTR [eax],al
  404ac3:	and    eax,0x690057
  404ac8:	outs   dx,BYTE PTR ds:[esi]
  404ac9:	add    BYTE PTR [eax+eax*1+0x6f],ah
  404acd:	add    BYTE PTR [edi+0x0],dh
  404ad0:	jae    0x404ad2
  404ad2:	add    BYTE PTR cs:[esi+0x0],al
  404ad6:	outs   dx,DWORD PTR ds:[esi]
  404ad7:	add    BYTE PTR [ebp+0x0],dh
  404ada:	outs   dx,BYTE PTR ds:[esi]
  404adb:	add    BYTE PTR [eax+eax*1+0x61],ah
  404adf:	add    BYTE PTR [eax+eax*1+0x69],dh
  404ae3:	add    BYTE PTR [edi+0x0],ch
  404ae6:	outs   dx,BYTE PTR ds:[esi]
  404ae7:	add    BYTE PTR [eax],al
  404ae9:	or     eax,0x790053
  404aee:	jae    0x404af0
  404af0:	je     0x404af2
  404af2:	add    BYTE PTR gs:[ebp+0x0],ch
  404af6:	add    BYTE PTR [ecx],cl
  404af8:	dec    esi
  404af9:	add    BYTE PTR [ecx+0x0],ah
  404afc:	ins    DWORD PTR es:[edi],dx
  404afd:	add    BYTE PTR [ebp+0x0],ah
  404b00:	add    BYTE PTR [edi],al
  404b02:	inc    ecx
  404b03:	add    BYTE PTR [eax+eax*1+0x64],ah
  404b07:	add    BYTE PTR [eax],al
  404b09:	adc    eax,0x610054
  404b0e:	jb     0x404b10
  404b10:	add    BYTE PTR [di+0x0],ah
  404b14:	je     0x404b16
  404b16:	push   esp
  404b17:	add    BYTE PTR [ecx+0x0],bh
  404b1a:	jo     0x404b1c
  404b1c:	add    BYTE PTR gs:[eax],al
  404b1f:	adc    DWORD PTR [edi+0x0],eax
  404b22:	add    BYTE PTR gs:[eax+eax*1+0x56],dh
  404b27:	add    BYTE PTR [ecx+0x0],ah
  404b2a:	ins    BYTE PTR es:[edi],dx
  404b2b:	add    BYTE PTR [ebp+0x0],dh
  404b2e:	add    BYTE PTR gs:[eax],al
  404b31:	adc    DWORD PTR [ebx+0x0],edx
  404b34:	add    BYTE PTR gs:[eax+eax*1+0x56],dh
  404b39:	add    BYTE PTR [ecx+0x0],ah
  404b3c:	ins    BYTE PTR es:[edi],dx
  404b3d:	add    BYTE PTR [ebp+0x0],dh
  404b40:	add    BYTE PTR gs:[eax],al
  404b43:	xor    eax,0x530056
  404b48:	push   esp
  404b49:	add    BYTE PTR [ebp+0x0],al
  404b4c:	push   ebx
  404b4d:	add    BYTE PTR [eax+eax*1+0x45],dl
  404b51:	add    BYTE PTR [eax+0x0],bl
  404b54:	inc    ebp
  404b55:	add    BYTE PTR [ebx+0x0],al
  404b58:	push   ebp
  404b59:	add    BYTE PTR [eax+eax*1+0x4f],dl
  404b5d:	add    BYTE PTR [edx+0x0],dl
  404b60:	pop    edi
  404b61:	add    BYTE PTR [eax+eax*1+0x52],dl
  404b65:	add    BYTE PTR [ecx+0x0],al
  404b68:	inc    ebx
  404b69:	add    BYTE PTR [ebp+0x0],al
  404b6c:	pop    edi
  404b6d:	add    BYTE PTR [eax+eax*1+0x45],cl
  404b71:	add    BYTE PTR [esi+0x0],dl
  404b74:	inc    ebp
  404b75:	add    BYTE PTR [eax+eax*1+0x0],cl
  404b79:	sub    DWORD PTR [edi+0x0],ebx
  404b7c:	pop    edi
  404b7d:	add    BYTE PTR [ecx+0x0],cl
  404b80:	dec    esi
  404b81:	add    BYTE PTR [eax+eax*1+0x45],dl
  404b85:	add    BYTE PTR [edx+0x0],dl
  404b88:	dec    esi
  404b89:	add    BYTE PTR [ecx+0x0],al
  404b8c:	dec    esp
  404b8d:	add    BYTE PTR [edi+0x0],bl
  404b90:	push   ebx
  404b91:	add    BYTE PTR [eax+eax*1+0x45],cl
  404b95:	add    BYTE PTR [ebp+0x0],al
  404b98:	push   eax
  404b99:	add    BYTE PTR [ebp+0x0],cl
  404b9c:	push   ebx
  404b9d:	add    BYTE PTR [edi+0x0],bl
  404ba0:	pop    edi
  404ba1:	add    BYTE PTR [eax],al
  404ba3:	inc    ebx
  404ba4:	push   edi
  404ba5:	add    BYTE PTR [ecx+0x0],ch
  404ba8:	outs   dx,BYTE PTR ds:[esi]
  404ba9:	add    BYTE PTR [eax+eax*1+0x6f],ah
  404bad:	add    BYTE PTR [edi+0x0],dh
  404bb0:	jae    0x404bb2
  404bb2:	add    BYTE PTR cs:[ebp+0x0],dl
  404bb6:	dec    ecx
  404bb7:	add    BYTE PTR [esi],ch
  404bb9:	add    BYTE PTR [eax+0x0],bl
  404bbc:	popa   
  404bbd:	add    BYTE PTR [ebp+0x0],ch
  404bc0:	ins    BYTE PTR es:[edi],dx
  404bc1:	add    BYTE PTR [esi],ch
  404bc3:	add    BYTE PTR [ecx+0x0],cl
  404bc6:	inc    esp
  404bc7:	add    BYTE PTR [ebp+0x0],ah
  404bca:	jo     0x404bcc
  404bcc:	add    BYTE PTR gs:[esi+0x0],ch
  404bd0:	add    BYTE PTR fs:[ebp+0x0],ah
  404bd4:	outs   dx,BYTE PTR ds:[esi]
  404bd5:	add    BYTE PTR [ebx+0x0],ah
  404bd8:	jns    0x404bda
  404bda:	dec    edi
  404bdb:	add    BYTE PTR [edx+0x0],ah
  404bde:	push   0x0
  404be0:	add    BYTE PTR gs:[ebx+0x0],ah
  404be4:	je     0x404be6
  404be6:	add    BYTE PTR [ecx],ah
  404be8:	das    
  404be9:	add    BYTE PTR [eax+0x0],dh
  404bec:	popa   
  404bed:	add    BYTE PTR [edx+0x0],dh
  404bf0:	add    BYTE PTR gs:[esi+0x0],ch
  404bf4:	je     0x404bf6
  404bf6:	push   eax
  404bf7:	add    BYTE PTR [edx+0x0],dh
  404bfa:	outs   dx,DWORD PTR ds:[esi]
  404bfb:	add    BYTE PTR [ebx+0x0],ah
  404bfe:	add    BYTE PTR gs:[ebx+0x0],dh
  404c02:	jae    0x404c04
  404c04:	dec    ecx
  404c05:	add    BYTE PTR [eax+eax*1+0x0],ah
  404c09:	add    esi,DWORD PTR [eax]
  404c0b:	add    BYTE PTR [eax],al
  404c0d:	sbb    ebp,DWORD PTR [edi]
  404c0f:	add    BYTE PTR [ecx+0x0],al
  404c12:	jo     0x404c14
  404c14:	jo     0x404c16
  404c16:	inc    ebx
  404c17:	add    BYTE PTR [edi+0x0],ch
  404c1a:	outs   dx,BYTE PTR ds:[esi]
  404c1b:	add    BYTE PTR [eax+eax*1+0x61],dh
  404c1f:	add    BYTE PTR [ecx+0x0],ch
  404c22:	outs   dx,BYTE PTR ds:[esi]
  404c23:	add    BYTE PTR [ebp+0x0],ah
  404c26:	jb     0x404c28
  404c28:	add    BYTE PTR [ecx],cl
  404c2a:	add    BYTE PTR cs:[ebp+0x0],ah
  404c2e:	js     0x404c30
  404c30:	add    BYTE PTR gs:[eax],al
  404c33:	or     DWORD PTR [esi],ebp
  404c35:	add    BYTE PTR [eax+eax*1+0x6c],ah
  404c39:	add    BYTE PTR [eax+eax*1+0x0],ch
  404c3d:	or     eax,0x77002e
  404c42:	imul   eax,DWORD PTR [eax],0x6d006e
  404c48:	add    BYTE PTR fs:[eax],al
  404c4b:	jae    0x404cba
  404c4d:	add    BYTE PTR [ecx+0x0],ch
  404c50:	arpl   WORD PTR [eax],ax
  404c52:	jb     0x404c54
  404c54:	outs   dx,DWORD PTR ds:[esi]
  404c55:	add    BYTE PTR [ebx+0x0],dh
  404c58:	outs   dx,DWORD PTR ds:[esi]
  404c59:	add    BYTE PTR [esi+0x0],ah
  404c5c:	je     0x404c5e
  404c5e:	add    BYTE PTR cs:[esi+0x0],dh
  404c62:	imul   eax,DWORD PTR [eax],0x750073
  404c68:	popa   
  404c69:	add    BYTE PTR [eax+eax*1+0x73],ch
  404c6d:	add    BYTE PTR [eax+eax*1+0x75],dh
  404c71:	add    BYTE PTR [eax+eax*1+0x69],ah
  404c75:	add    BYTE PTR [edi+0x0],ch
  404c78:	add    BYTE PTR cs:[ecx+0x0],dh
  404c7c:	jne    0x404c7e
  404c7e:	popa   
  404c7f:	add    BYTE PTR [eax+eax*1+0x69],ch
  404c83:	add    BYTE PTR [eax+eax*1+0x79],dh
  404c87:	add    BYTE PTR [eax+eax*1+0x6f],dh
  404c8b:	add    BYTE PTR [edi+0x0],ch
  404c8e:	ins    BYTE PTR es:[edi],dx
  404c8f:	add    BYTE PTR [ebx+0x0],dh
  404c92:	add    BYTE PTR cs:[ebp+0x0],dh
  404c96:	outs   dx,BYTE PTR ds:[esi]
  404c97:	add    BYTE PTR [ecx+0x0],ch
  404c9a:	je     0x404c9c
  404c9c:	je     0x404c9e
  404c9e:	add    BYTE PTR gs:[ebx+0x0],dh
  404ca2:	je     0x404ca4
  404ca4:	data16 add BYTE PTR [edx+0x0],dh
  404ca8:	popa   
  404ca9:	add    BYTE PTR [ebp+0x0],ch
  404cac:	add    BYTE PTR gs:[edi+0x0],dh
  404cb0:	outs   dx,DWORD PTR ds:[esi]
  404cb1:	add    BYTE PTR [edx+0x0],dh
  404cb4:	imul   eax,DWORD PTR [eax],0x2e
  404cb7:	add    BYTE PTR [eax+eax*1+0x6c],ah
  404cbb:	add    BYTE PTR [eax+eax*1+0x0],ch
  404cbf:	pop    ecx
  404cc0:	ins    DWORD PTR es:[edi],dx
  404cc1:	add    BYTE PTR [ecx+0x0],ch
  404cc4:	arpl   WORD PTR [eax],ax
  404cc6:	jb     0x404cc8
  404cc8:	outs   dx,DWORD PTR ds:[esi]
  404cc9:	add    BYTE PTR [ebx+0x0],dh
  404ccc:	outs   dx,DWORD PTR ds:[esi]
  404ccd:	add    BYTE PTR [esi+0x0],ah
  404cd0:	je     0x404cd2
  404cd2:	add    BYTE PTR cs:[esi+0x0],dh
  404cd6:	imul   eax,DWORD PTR [eax],0x750073
  404cdc:	popa   
  404cdd:	add    BYTE PTR [eax+eax*1+0x73],ch
  404ce1:	add    BYTE PTR [eax+eax*1+0x75],dh
  404ce5:	add    BYTE PTR [eax+eax*1+0x69],ah
  404ce9:	add    BYTE PTR [edi+0x0],ch
  404cec:	add    BYTE PTR cs:[eax+eax*1+0x65],dh
  404cf1:	add    BYTE PTR [ebx+0x0],dh
  404cf4:	je     0x404cf6
  404cf6:	jo     0x404cf8
  404cf8:	ins    BYTE PTR es:[edi],dx
  404cf9:	add    BYTE PTR [ecx+0x0],ah
  404cfc:	je     0x404cfe
  404cfe:	data16 add BYTE PTR [edi+0x0],ch
  404d02:	jb     0x404d04
  404d04:	ins    DWORD PTR es:[edi],dx
  404d05:	add    BYTE PTR [esi],ch
  404d07:	add    BYTE PTR [ebx+0x0],ah
  404d0a:	outs   dx,DWORD PTR ds:[esi]
  404d0b:	add    BYTE PTR [edx+0x0],dh
  404d0e:	add    BYTE PTR gs:[esi],ch
  404d11:	add    BYTE PTR [eax+eax*1+0x6c],ah
  404d15:	add    BYTE PTR [eax+eax*1+0x0],ch
  404d19:	jae    0x404d88
  404d1b:	add    BYTE PTR [ecx+0x0],ch
  404d1e:	arpl   WORD PTR [eax],ax
  404d20:	jb     0x404d22
  404d22:	outs   dx,DWORD PTR ds:[esi]
  404d23:	add    BYTE PTR [ebx+0x0],dh
  404d26:	outs   dx,DWORD PTR ds:[esi]
  404d27:	add    BYTE PTR [esi+0x0],ah
  404d2a:	je     0x404d2c
  404d2c:	add    BYTE PTR cs:[esi+0x0],dh
  404d30:	imul   eax,DWORD PTR [eax],0x750073
  404d36:	popa   
  404d37:	add    BYTE PTR [eax+eax*1+0x73],ch
  404d3b:	add    BYTE PTR [eax+eax*1+0x75],dh
  404d3f:	add    BYTE PTR [eax+eax*1+0x69],ah
  404d43:	add    BYTE PTR [edi+0x0],ch
  404d46:	add    BYTE PTR cs:[eax+eax*1+0x65],dh
  404d4b:	add    BYTE PTR [ebx+0x0],dh
  404d4e:	je     0x404d50
  404d50:	jo     0x404d52
  404d52:	ins    BYTE PTR es:[edi],dx
  404d53:	add    BYTE PTR [ecx+0x0],ah
  404d56:	je     0x404d58
  404d58:	data16 add BYTE PTR [edi+0x0],ch
  404d5c:	jb     0x404d5e
  404d5e:	ins    DWORD PTR es:[edi],dx
  404d5f:	add    BYTE PTR [esi],ch
  404d61:	add    BYTE PTR [eax+eax*1+0x65],dh
  404d65:	add    BYTE PTR [ebx+0x0],dh
  404d68:	je     0x404d6a
  404d6a:	add    BYTE PTR gs:[eax+0x0],bh
  404d6e:	add    BYTE PTR gs:[ebx+0x0],ah
  404d72:	jne    0x404d74
  404d74:	je     0x404d76
  404d76:	outs   dx,DWORD PTR ds:[esi]
  404d77:	add    BYTE PTR [edx+0x0],dh
  404d7a:	add    BYTE PTR cs:[ebx+0x0],ah
  404d7e:	outs   dx,DWORD PTR ds:[esi]
  404d7f:	add    BYTE PTR [edx+0x0],dh
  404d82:	add    BYTE PTR gs:[esi],ch
  404d85:	add    BYTE PTR [eax+eax*1+0x6c],ah
  404d89:	add    BYTE PTR [eax+eax*1+0x0],ch
  404d8d:	or     BYTE PTR [ecx+0x69006d],0x63
  404d94:	add    BYTE PTR [edx+0x0],dh
  404d97:	outs   dx,DWORD PTR ds:[esi]
  404d98:	add    BYTE PTR [ebx+0x0],dh
  404d9b:	outs   dx,DWORD PTR ds:[esi]
  404d9c:	add    BYTE PTR [esi+0x0],ah
  404d9f:	je     0x404da1
  404da1:	add    BYTE PTR cs:[esi+0x0],dh
  404da5:	imul   eax,DWORD PTR [eax],0x750073
  404dab:	popa   
  404dac:	add    BYTE PTR [eax+eax*1+0x73],ch
  404db0:	add    BYTE PTR [eax+eax*1+0x75],dh
  404db4:	add    BYTE PTR [eax+eax*1+0x69],ah
  404db8:	add    BYTE PTR [edi+0x0],ch
  404dbb:	add    BYTE PTR cs:[eax+eax*1+0x65],dh
  404dc0:	add    BYTE PTR [ebx+0x0],dh
  404dc3:	je     0x404dc5
  404dc5:	jo     0x404dc7
  404dc7:	ins    BYTE PTR es:[edi],dx
  404dc8:	add    BYTE PTR [ecx+0x0],ah
  404dcb:	je     0x404dcd
  404dcd:	data16 add BYTE PTR [edi+0x0],ch
  404dd1:	jb     0x404dd3
  404dd3:	ins    DWORD PTR es:[edi],dx
  404dd4:	add    BYTE PTR [esi],ch
  404dd6:	add    BYTE PTR [ebp+0x0],ah
  404dd9:	js     0x404ddb
  404ddb:	je     0x404ddd
  404ddd:	add    BYTE PTR gs:[esi+0x0],ch
  404de1:	jae    0x404de3
  404de3:	imul   eax,DWORD PTR [eax],0x6e006f
  404de9:	jae    0x404deb
  404deb:	add    BYTE PTR cs:[esi+0x0],dh
  404def:	jae    0x404df1
  404df1:	je     0x404df3
  404df3:	add    BYTE PTR gs:[ebx+0x0],dh
  404df7:	je     0x404df9
  404df9:	imul   eax,DWORD PTR [eax],0x74006e
  404dff:	add    BYTE PTR gs:[edi+0x0],ah
  404e03:	jb     0x404e05
  404e05:	popa   
  404e06:	add    BYTE PTR [eax+eax*1+0x69],dh
  404e0a:	add    BYTE PTR [edi+0x0],ch
  404e0d:	outs   dx,BYTE PTR ds:[esi]
  404e0e:	add    BYTE PTR [esi],ch
  404e10:	add    BYTE PTR [eax+eax*1+0x6c],ah
  404e14:	add    BYTE PTR [eax+eax*1+0x0],ch
  404e18:	ins    DWORD PTR es:[di],dx
  404e1a:	add    BYTE PTR [ecx+0x0],ch
  404e1d:	arpl   WORD PTR [eax],ax
  404e1f:	jb     0x404e21
  404e21:	outs   dx,DWORD PTR ds:[esi]
  404e22:	add    BYTE PTR [ebx+0x0],dh
  404e25:	outs   dx,DWORD PTR ds:[esi]
  404e26:	add    BYTE PTR [esi+0x0],ah
  404e29:	je     0x404e2b
  404e2b:	add    BYTE PTR cs:[esi+0x0],dh
  404e2f:	imul   eax,DWORD PTR [eax],0x750073
  404e35:	popa   
  404e36:	add    BYTE PTR [eax+eax*1+0x73],ch
  404e3a:	add    BYTE PTR [eax+eax*1+0x75],dh
  404e3e:	add    BYTE PTR [eax+eax*1+0x69],ah
  404e42:	add    BYTE PTR [edi+0x0],ch
  404e45:	add    BYTE PTR cs:[eax+eax*1+0x65],dh
  404e4a:	add    BYTE PTR [ebx+0x0],dh
  404e4d:	je     0x404e4f
  404e4f:	jo     0x404e51
  404e51:	ins    BYTE PTR es:[edi],dx
  404e52:	add    BYTE PTR [ecx+0x0],ah
  404e55:	je     0x404e57
  404e57:	data16 add BYTE PTR [edi+0x0],ch
  404e5b:	jb     0x404e5d
  404e5d:	ins    DWORD PTR es:[edi],dx
  404e5e:	add    BYTE PTR [esi],ch
  404e60:	add    BYTE PTR [edi+0x0],ch
  404e63:	bound  eax,QWORD PTR [eax]
  404e65:	push   0x0
  404e67:	add    BYTE PTR gs:[ebx+0x0],ah
  404e6b:	je     0x404e6d
  404e6d:	ins    DWORD PTR es:[edi],dx
  404e6e:	add    BYTE PTR [edi+0x0],ch
  404e71:	add    BYTE PTR fs:[ebp+0x0],ah
  404e75:	ins    BYTE PTR es:[edi],dx
  404e76:	add    BYTE PTR [esi],ch
  404e78:	add    BYTE PTR [eax+eax*1+0x6c],ah
  404e7c:	add    BYTE PTR [eax+eax*1+0x0],ch
  404e80:	arpl   WORD PTR [ebp+0x0],bp
  404e83:	imul   eax,DWORD PTR [eax],0x720063
  404e89:	outs   dx,DWORD PTR ds:[esi]
  404e8a:	add    BYTE PTR [ebx+0x0],dh
  404e8d:	outs   dx,DWORD PTR ds:[esi]
  404e8e:	add    BYTE PTR [esi+0x0],ah
  404e91:	je     0x404e93
  404e93:	add    BYTE PTR cs:[esi+0x0],dh
  404e97:	imul   eax,DWORD PTR [eax],0x750073
  404e9d:	popa   
  404e9e:	add    BYTE PTR [eax+eax*1+0x73],ch
  404ea2:	add    BYTE PTR [eax+eax*1+0x75],dh
  404ea6:	add    BYTE PTR [eax+eax*1+0x69],ah
  404eaa:	add    BYTE PTR [edi+0x0],ch
  404ead:	add    BYTE PTR cs:[eax+eax*1+0x65],dh
  404eb2:	add    BYTE PTR [ebx+0x0],dh
  404eb5:	je     0x404eb7
  404eb7:	jo     0x404eb9
  404eb9:	ins    BYTE PTR es:[edi],dx
  404eba:	add    BYTE PTR [ecx+0x0],ah
  404ebd:	je     0x404ebf
  404ebf:	data16 add BYTE PTR [edi+0x0],ch
  404ec3:	jb     0x404ec5
  404ec5:	ins    DWORD PTR es:[edi],dx
  404ec6:	add    BYTE PTR [esi],ch
  404ec8:	add    BYTE PTR [ebp+0x0],dh
  404ecb:	je     0x404ecd
  404ecd:	imul   eax,DWORD PTR [eax],0x69006c
  404ed3:	je     0x404ed5
  404ed5:	imul   eax,DWORD PTR [eax],0x730065
  404edb:	add    BYTE PTR cs:[eax+eax*1+0x6c],ah
  404ee0:	add    BYTE PTR [eax+eax*1+0x0],ch
  404ee4:	dec    edi
  404ee5:	jbe    0x404ee7
  404ee7:	jae    0x404ee9
  404ee9:	je     0x404eeb
  404eeb:	add    BYTE PTR gs:[ebx+0x0],dh
  404eef:	je     0x404ef1
  404ef1:	add    BYTE PTR cs:[ebp+0x0],ah
  404ef5:	js     0x404ef7
  404ef7:	add    BYTE PTR gs:[ebx+0x0],ah
  404efb:	jne    0x404efd
  404efd:	je     0x404eff
  404eff:	imul   eax,DWORD PTR [eax],0x6e006f
  404f05:	add    BYTE PTR gs:[esi+0x0],ch
  404f09:	add    BYTE PTR [bx+di+0x0],ch
  404f0d:	outs   dx,BYTE PTR ds:[esi]
  404f0e:	add    BYTE PTR [ebp+0x0],ah
  404f11:	add    BYTE PTR cs:[ecx+0x0],ah
  404f15:	jo     0x404f17
  404f17:	jo     0x404f19
  404f19:	arpl   WORD PTR [eax],ax
  404f1b:	outs   dx,DWORD PTR ds:[esi]
  404f1c:	add    BYTE PTR [esi+0x0],ch
  404f1f:	je     0x404f21
  404f21:	popa   
  404f22:	add    BYTE PTR [ecx+0x0],ch
  404f25:	outs   dx,BYTE PTR ds:[esi]
  404f26:	add    BYTE PTR [ebp+0x0],ah
  404f29:	jb     0x404f2b
  404f2b:	add    BYTE PTR cs:[ebp+0x0],ah
  404f2f:	js     0x404f31
  404f31:	add    BYTE PTR gs:[eax],al
  404f34:	push   edi
  404f35:	jbe    0x404f37
  404f37:	jae    0x404f39
  404f39:	je     0x404f3b
  404f3b:	add    BYTE PTR gs:[ebx+0x0],dh
  404f3f:	je     0x404f41
  404f41:	add    BYTE PTR cs:[ebp+0x0],ah
  404f45:	js     0x404f47
  404f47:	add    BYTE PTR gs:[ebx+0x0],ah
  404f4b:	jne    0x404f4d
  404f4d:	je     0x404f4f
  404f4f:	imul   eax,DWORD PTR [eax],0x6e006f
  404f55:	add    BYTE PTR gs:[esi+0x0],ch
  404f59:	add    BYTE PTR [bx+di+0x0],ch
  404f5d:	outs   dx,BYTE PTR ds:[esi]
  404f5e:	add    BYTE PTR [ebp+0x0],ah
  404f61:	add    BYTE PTR cs:[ecx+0x0],ah
  404f65:	jo     0x404f67
  404f67:	jo     0x404f69
  404f69:	arpl   WORD PTR [eax],ax
  404f6b:	outs   dx,DWORD PTR ds:[esi]
  404f6c:	add    BYTE PTR [esi+0x0],ch
  404f6f:	je     0x404f71
  404f71:	popa   
  404f72:	add    BYTE PTR [ecx+0x0],ch
  404f75:	outs   dx,BYTE PTR ds:[esi]
  404f76:	add    BYTE PTR [ebp+0x0],ah
  404f79:	jb     0x404f7b
  404f7b:	add    BYTE PTR cs:[eax+0x0],bh
  404f7f:	cmp    BYTE PTR [eax],al
  404f81:	add    BYTE PTR ss:[esi],ch
  404f84:	add    BYTE PTR [ebp+0x0],ah
  404f87:	js     0x404f89
  404f89:	add    BYTE PTR gs:[eax],al
  404f8c:	inc    ebp
  404f8d:	stc    
  404f8e:	adc    BYTE PTR [edx-0x68],0x91
  404f92:	xor    DWORD PTR [ebp-0x7a],ecx
  404f95:	idiv   BYTE PTR [edi]
  404f97:	sbb    DWORD PTR [edx+esi*4+0x7f],eax
  404f9b:	rol    DWORD PTR [eax],cl
  404f9d:	or     BYTE PTR [edi+0x19565c7a],dh
  404fa3:	xor    al,0xe0
  404fa5:	mov    DWORD PTR [eax],ecx
  404fa7:	push   es
  404fa8:	adc    eax,0xe021912
  404fad:	adc    cl,BYTE PTR [ecx]
  404faf:	or     BYTE PTR [esi],al
  404fb1:	adc    eax,0xe021912
  404fb6:	adc    cl,BYTE PTR ds:0x12150606
  404fbc:	sbb    eax,0x20080e01
  404fc1:	add    DWORD PTR [ecx],eax
  404fc3:	adc    eax,0xe011d12
  404fc8:	add    eax,0x9120120
  404fcd:	push   cs
  404fce:	pop    es
  404fcf:	and    BYTE PTR [edx],al
  404fd1:	adc    cl,BYTE PTR ds:0x80e2112
  404fd7:	and    BYTE PTR [ebx],al
  404fd9:	adc    ah,BYTE PTR [ecx]
  404fdb:	adc    ah,BYTE PTR ds:0x2005020e
  404fe1:	add    DWORD PTR [edx],eax
  404fe3:	adc    ah,BYTE PTR [ecx]
  404fe5:	add    al,BYTE PTR [esi]
  404fe7:	push   cs
  404fe8:	add    eax,DWORD PTR [esi]
  404fea:	adc    ah,BYTE PTR [ecx]
  404fec:	push   es
  404fed:	and    BYTE PTR [edx],al
  404fef:	add    DWORD PTR [esi],ecx
  404ff1:	adc    ah,BYTE PTR [ecx]
  404ff3:	add    esp,DWORD PTR [eax]
  404ff5:	add    BYTE PTR [edx],al
  404ff7:	add    esp,DWORD PTR [eax]
  404ff9:	add    BYTE PTR [esi],cl
  404ffb:	add    al,0x20
  404ffd:	add    BYTE PTR [edx],dl
  404fff:	and    DWORD PTR [eax+eiz*1],eax
  405002:	add    BYTE PTR [edx],dl
  405004:	or     DWORD PTR [eax+eiz*1],eax
  405007:	add    BYTE PTR [edx],dl
  405009:	or     eax,0x12012005
  40500e:	or     eax,0x20030e
  405013:	sbb    al,0x6
  405015:	and    BYTE PTR [ebx],al
  405017:	add    DWORD PTR [esp+ebx*1],ebx
  40501a:	sbb    al,0x5
  40501c:	and    BYTE PTR [edx],al
  40501e:	add    DWORD PTR [esp+ebx*1],ebx
  405021:	add    esp,DWORD PTR [eax]
  405023:	add    BYTE PTR [ecx],al
  405025:	add    al,0x20
  405027:	add    DWORD PTR [esi+ecx*1],ebx
  40502a:	add    ebp,DWORD PTR [eax]
  40502c:	add    BYTE PTR [edx],al
  40502e:	add    ebp,DWORD PTR [eax]
  405030:	add    BYTE PTR [esi],cl
  405032:	add    al,0x28
  405034:	add    BYTE PTR [edx],dl
  405036:	and    DWORD PTR [eax+ebp*1],eax
  405039:	add    BYTE PTR [edx],dl
  40503b:	or     DWORD PTR [eax+ebp*1],eax
  40503e:	add    BYTE PTR [edx],dl
  405040:	or     eax,0x8120603
  405045:	add    eax,DWORD PTR [esi]
  405047:	adc    cl,BYTE PTR [ecx]
  405049:	add    eax,DWORD PTR [esi]
  40504b:	adc    ch,BYTE PTR [ecx]
  40504d:	add    eax,DWORD PTR [esi]
  40504f:	adc    ch,BYTE PTR ds:0x104200a
  405055:	adc    cl,BYTE PTR [eax]
  405057:	push   cs
  405058:	adc    ah,BYTE PTR [ecx]
  40505a:	adc    cl,BYTE PTR [ecx]
  40505c:	pop    es
  40505d:	xor    BYTE PTR [ecx],al
  40505f:	add    cl,BYTE PTR [esi]
  405061:	adc    dh,BYTE PTR [ecx]
  405063:	push   cs
  405064:	add    eax,DWORD PTR [esi]
  405066:	adc    bh,BYTE PTR [ecx]
  405068:	or     BYTE PTR [eax],ah
  40506a:	add    eax,DWORD PTR [ecx]
  40506c:	adc    cl,BYTE PTR [eax]
  40506e:	push   cs
  40506f:	adc    ah,BYTE PTR [ecx]
  405071:	add    al,0x20
  405073:	add    DWORD PTR [esp+ebx*1],ebx
  405076:	add    eax,0x1d010100
  40507b:	push   cs
  40507c:	add    eax,0x111d0020
  405081:	cmp    eax,0x1012005
  405086:	adc    al,BYTE PTR [ecx+0x6]
  405089:	and    BYTE PTR [ecx],al
  40508b:	adc    cl,BYTE PTR [ecx]
  40508d:	adc    ah,BYTE PTR [ecx]
  40508f:	add    al,0x20
  405091:	add    DWORD PTR [ecx],eax
  405093:	push   cs
  405094:	add    al,0x20
  405096:	add    DWORD PTR [ecx],eax
  405098:	add    al,BYTE PTR ds:0xe010220
  40509e:	push   cs
  40509f:	push   es
  4050a0:	and    BYTE PTR [ecx],al
  4050a2:	add    DWORD PTR [ecx],edx
  4050a4:	adc    BYTE PTR [ecx+0x1012004],0x8
  4050ab:	and    BYTE PTR [eax+0x2400],0x4
  4050b2:	add    BYTE PTR [eax],0x0
  4050b5:	xchg   esp,eax
  4050b6:	add    BYTE PTR [eax],al
  4050b8:	add    BYTE PTR [esi],al
  4050ba:	add    al,BYTE PTR [eax]
  4050bc:	add    BYTE PTR [eax],al
  4050be:	and    al,0x0
  4050c0:	add    BYTE PTR [edx+0x53],dl
  4050c3:	inc    ecx
  4050c4:	xor    DWORD PTR [eax],eax
  4050c6:	add    al,0x0
  4050c8:	add    BYTE PTR [ecx],al
  4050ca:	add    BYTE PTR [ecx],al
  4050cc:	add    BYTE PTR [edi],al
  4050ce:	sar    edx,1
  4050d0:	push   edi
  4050d1:	les    ebp,FWORD PTR [esi+0x2ea3f0d9]
  4050d7:	test   BYTE PTR [edx+0xdfdae0f],ch
  4050dd:	jmp    0xecab4eca
  4050e2:	pop    DWORD PTR [edi+0x6c7603fb]
  4050e8:	or     DWORD PTR [ecx+ebx*4-0x6e],0x1e
  4050ed:	mov    dl,0x3b
  4050ef:	out    0x9a,eax
  4050f1:	(bad)  
  4050f3:	fadd   st(1),st
  4050f5:	fstp   QWORD PTR [edx+0x211336d2]
  4050fb:	add    dl,BYTE PTR [eax-0x6c38df5]
  405101:	adc    BYTE PTR [ebp+0x77e1c47f],0x10
  405108:	pop    esi
  40510a:	pop    es
  40510b:	ja     0x40515c
  40510d:	sub    eax,ebp
  40510f:	xor    cl,BYTE PTR [esi]
  405111:	xchg   edx,eax
  405112:	jmp    0xc021:0xe8e4ec05
  405119:	movs   DWORD PTR es:[edi],DWORD PTR ds:[esi]
  40511a:	out    dx,eax
  40511b:	call   0x4c9cb611
  405120:	or     al,0x93
  405122:	shr    DWORD PTR [ebx+0x625d2899],0x2c
  405129:	stos   BYTE PTR es:[edi],al
  40512a:	gs sub al,0x1d
  40512d:	cli    
  40512e:	(bad)  
  40512f:	cmp    eax,0x2d6f5d74
  405134:	in     eax,0xf1
  405136:	jle    0x405196
  405138:	scas   eax,DWORD PTR es:[edi]
  405139:	pinsrw mm2,WORD PTR [esi-0x75e3d9c3],0x12
  405141:	inc    ebx
  405142:	sbb    BYTE PTR gs:[eax],ah
  405145:	ins    DWORD PTR es:[edi],dx
  405146:	rcl    BYTE PTR [ebx-0x2da5b2cc],0x93
  40514d:	add    eax,0x1
  405152:	add    BYTE PTR [edi],al
  405154:	adc    eax,0xe021912
  405159:	adc    cl,BYTE PTR [ecx]
  40515b:	pop    es
  40515c:	adc    eax,0xe021912
  405161:	adc    cl,BYTE PTR ds:0x2010004
  405167:	push   cs
  405168:	or     BYTE PTR [eax],ah
  40516a:	add    al,BYTE PTR [edx]
  40516c:	adc    eax,DWORD PTR [eax]
  40516e:	adc    BYTE PTR [ebx],dl
  405170:	add    DWORD PTR [edi],eax
  405172:	and    BYTE PTR [edx],al
  405174:	add    DWORD PTR [ebx],edx
  405176:	add    BYTE PTR [ebx],dl
  405178:	add    DWORD PTR [edi+eax*1],eax
  40517b:	add    DWORD PTR [edx],edx
  40517d:	or     DWORD PTR [edi+eax*1],eax
  405180:	add    DWORD PTR [edx],edx
  405182:	or     eax,0x12010005
  405187:	and    DWORD PTR [esi],ecx
  405189:	pop    es
  40518a:	add    BYTE PTR [edx],al
  40518c:	add    dl,BYTE PTR [edx]
  40518e:	and    DWORD PTR [edx],edx
  405190:	and    DWORD PTR [ebx],ecx
  405192:	adc    eax,0x4a18012
  405197:	adc    ah,BYTE PTR ds:0x2112020e
  40519d:	add    eax,0x1c010220
  4051a2:	sbb    BYTE PTR [edx],bl
  4051a4:	add    BYTE PTR [ebx],al
  4051a6:	adc    ah,BYTE PTR [ecx]
  4051a8:	push   cs
  4051a9:	adc    eax,0x2a58012
  4051ae:	adc    al,BYTE PTR [eax+0x152512a9]
  4051b4:	adc    al,BYTE PTR [eax+0x251204a1]
  4051ba:	push   cs
  4051bb:	add    dl,BYTE PTR [edx]
  4051bd:	and    DWORD PTR [edi+eax*1],eax
  4051c0:	add    DWORD PTR [edx],edx
  4051c2:	and    DWORD PTR ds:0x80120000,eax
  4051c8:	lods   eax,DWORD PTR ds:[esi]
  4051c9:	or     DWORD PTR [eax],eax
  4051cb:	add    ecx,DWORD PTR [esi]
  4051cd:	adc    al,BYTE PTR [eax+0x1c1d0eb1]
  4051d3:	add    eax,0x11d1215
  4051d8:	push   cs
  4051d9:	or     DWORD PTR [eax],esp
  4051db:	add    BYTE PTR ds:0x1b58011,dl
  4051e1:	adc    eax,DWORD PTR [eax]
  4051e3:	push   es
  4051e4:	adc    eax,0x1b58011
  4051e9:	push   cs
  4051ea:	add    al,0x20
  4051ec:	add    BYTE PTR [ebx],dl
  4051ee:	add    BYTE PTR [ecx],dl
  4051f0:	pop    es
  4051f1:	push   es
  4051f2:	adc    ah,BYTE PTR [ecx]
  4051f4:	push   cs
  4051f5:	adc    ah,BYTE PTR [ecx]
  4051f7:	sbb    eax,0x8011151c
  4051fc:	mov    ch,0x1
  4051fe:	push   cs
  4051ff:	sbb    eax,0x220071c
  405204:	add    cl,BYTE PTR [esi]
  405206:	adc    DWORD PTR [eax+0x10703c1],eax
  40520c:	push   cs
  40520d:	add    al,0x20
  40520f:	add    DWORD PTR [eax],ecx
  405211:	add    eax,DWORD PTR [eax+eiz*1]
  405214:	add    DWORD PTR [esi],ecx
  405216:	or     BYTE PTR [ebx],al
  405218:	pop    es
  405219:	add    DWORD PTR [eax],ecx
  40521b:	add    eax,0x8012010a
  405220:	leave  
  405221:	add    al,0x6
  405223:	sbb    eax,0x20072112
  405228:	add    DWORD PTR [edx],edx
  40522a:	sub    DWORD PTR ds:0x15072112,ebx
  405230:	adc    al,BYTE PTR [eax+0x1c1c02cd]
  405236:	pop    es
  405237:	add    BYTE PTR [ecx],al
  405239:	adc    ah,BYTE PTR [ecx]
  40523b:	adc    DWORD PTR [eax+0x12005d1],eax
  405241:	adc    ah,BYTE PTR [ecx]
  405243:	push   cs
  405244:	add    eax,0x2d120120
  405249:	push   cs
  40524a:	add    eax,0x121d0020
  40524f:	and    DWORD PTR [esi],eax
  405251:	adc    eax,0x1d58012
  405256:	sbb    al,0xd
  405258:	pop    es
  405259:	add    eax,0x1d21120e
  40525e:	adc    ah,BYTE PTR [ecx]
  405260:	adc    ah,BYTE PTR [ecx]
  405262:	sbb    eax,0x200a2112
  405267:	add    BYTE PTR ds:0x1d98012,dl
  40526d:	adc    al,BYTE PTR [eax+0x121508dd]
  405273:	and    cl,0x1
  405276:	adc    al,BYTE PTR [eax+0x2009dd]
  40527c:	adc    eax,0x1e58012
  405281:	adc    eax,DWORD PTR [eax]
  405283:	or     BYTE PTR ds:0x1e58012,dl
  405289:	adc    al,BYTE PTR [eax+0x2004dd]
  40528f:	adc    ch,BYTE PTR [ecx]
  405291:	add    bl,BYTE PTR [esi]
  405293:	add    BYTE PTR [edx],cl
  405295:	and    BYTE PTR [eax],al
  405297:	adc    eax,0x1d98012
  40529c:	adc    DWORD PTR [eax+0x121508e9],eax
  4052a2:	and    cl,0x1
  4052a5:	adc    DWORD PTR [eax+0x121508e9],eax
  4052ab:	and    ch,0x1
  4052ae:	adc    DWORD PTR [eax+0x2004e9],eax
  4052b4:	adc    dh,BYTE PTR [ecx]
  4052b6:	add    eax,0xe020200
  4052bb:	push   cs
  4052bc:	add    eax,0x80110020
  4052c1:	in     eax,dx
  4052c2:	and    al,0x7
  4052c4:	pop    es
  4052c5:	adc    eax,0x1d98012
  4052ca:	adc    al,BYTE PTR [eax-0x227fed23]
  4052d0:	adc    DWORD PTR [eax+0x12150ee9],eax
  4052d6:	and    ch,0x1
  4052d9:	adc    al,BYTE PTR [eax-0x7fedea23]
  4052df:	in     eax,0x1
  4052e1:	adc    DWORD PTR [eax-0x127fee17],eax
  4052e7:	pop    es
  4052e8:	add    BYTE PTR [edx],al
  4052ea:	add    dl,BYTE PTR [edx]
  4052ec:	sub    eax,0x72d12
  4052f1:	add    al,BYTE PTR [edx]
  4052f3:	adc    ch,BYTE PTR [ecx]
  4052f5:	adc    ch,BYTE PTR [ecx]
  4052f7:	add    eax,0x1d1c0120
  4052fc:	sbb    al,0x6
  4052fe:	and    BYTE PTR [edx],al
  405300:	sbb    al,0x1c
  405302:	sbb    eax,0x107041c
  405307:	sbb    eax,0x20051c
  40530c:	adc    DWORD PTR [eax+0x10006d1],eax
  405312:	add    DWORD PTR [ecx],edx
  405314:	adc    cl,0x5
  405317:	and    BYTE PTR [ecx],al
  405319:	adc    bh,BYTE PTR [ecx]
  40531b:	push   cs
  40531c:	pop    es
  40531d:	add    BYTE PTR [edx],al
  40531f:	add    dl,BYTE PTR [edx]
  405321:	cmp    DWORD PTR [edx],edx
  405323:	cmp    DWORD PTR [eax+eiz*1],eax
  405326:	add    DWORD PTR [esi],ecx
  405328:	sbb    al,0x6
  40532a:	add    BYTE PTR [edx],al
  40532c:	sbb    al,0x12
  40532e:	and    DWORD PTR [esi],ecx
  405330:	pop    es
  405331:	and    BYTE PTR [ebx],al
  405333:	add    DWORD PTR [esp+ebx*1],ebx
  405336:	sbb    eax,0x207051c
  40533b:	adc    ah,BYTE PTR [ecx]
  40533d:	push   cs
  40533e:	push   es
  40533f:	add    BYTE PTR [ecx],al
  405341:	add    DWORD PTR [edx],edx
  405343:	add    DWORD PTR ds:0x81120604,0x10409
  40534d:	add    BYTE PTR [eax],al
  40534f:	add    al,0x0
  405351:	add    DWORD PTR [esi],ecx
  405353:	push   cs
  405354:	push   es
  405355:	add    BYTE PTR [edx],al
  405357:	add    cl,BYTE PTR [esi]
  405359:	adc    BYTE PTR [eax],cl
  40535b:	push   es
  40535c:	add    BYTE PTR [edx],al
  40535e:	add    dl,BYTE PTR [edx]
  405360:	and    DWORD PTR [esi+eax*1],ebx
  405363:	add    BYTE PTR [edx],al
  405365:	sbb    al,0x12
  405367:	and    DWORD PTR [eax],ecx
  405369:	or     BYTE PTR [eax+0x117f5f3f],dh
  40536f:	aad    0xa
  405371:	cmp    al,BYTE PTR [esi]
  405373:	add    BYTE PTR [ecx],al
  405375:	add    DWORD PTR [ecx],edx
  405377:	and    DWORD PTR [ecx],0x1010004
  40537d:	or     BYTE PTR [esi],al
  40537f:	add    BYTE PTR [ecx],al
  405381:	add    DWORD PTR [edx],edx
  405383:	or     DWORD PTR [ecx],0x8030705
  405389:	push   cs
  40538a:	or     BYTE PTR ds:0x81120020,al
  405390:	sub    DWORD PTR [eax+eiz*1],eax
  405393:	add    BYTE PTR [edx],dl
  405395:	and    eax,0x12002005
  40539a:	xor    DWORD PTR [ecx],0x1d002006
  4053a0:	adc    al,BYTE PTR [ecx+0x120052d]
  4053a6:	add    dl,BYTE PTR [ebx]
  4053a8:	add    BYTE PTR [edx],cl
  4053aa:	pop    es
  4053ab:	add    edx,DWORD PTR [edx]
  4053ad:	sub    DWORD PTR ds:0x2d81121d,0x4000908
  4053b7:	or     BYTE PTR [esi],cl
  4053b9:	push   cs
  4053ba:	add    dl,BYTE PTR [edx]
  4053bc:	sub    BYTE PTR [ebp+0x1000003],0x4
  4053c3:	push   es
  4053c4:	adc    al,BYTE PTR [ecx+0x120053d]
  4053ca:	add    DWORD PTR ds:0x207070e,ebx
  4053d0:	adc    al,BYTE PTR [ecx+0x50e1d41]
  4053d6:	and    BYTE PTR [eax],al
  4053d8:	adc    DWORD PTR [ecx+0x1200645],eax
  4053de:	add    DWORD PTR [edx],edx
  4053e0:	cmp    DWORD PTR ds:0x12010705,0x200a2581
  4053ea:	add    DWORD PTR [ecx],eax
  4053ec:	adc    eax,0x1e18012
  4053f1:	adc    eax,DWORD PTR [eax]
  4053f3:	push   es
  4053f4:	pop    es
  4053f5:	add    bl,BYTE PTR ds:0x370e1d0e
  4053fb:	add    DWORD PTR [eax],eax
  4053fd:	sbb    ch,BYTE PTR [esi]
  4053ff:	dec    esi
  405400:	inc    ebp
  405401:	push   esp
  405402:	inc    esi
  405403:	jb     0x405466
  405405:	ins    DWORD PTR es:[edi],dx
  405406:	gs ja  0x405478
  405409:	jb     0x405476
  40540b:	sub    al,0x56
  40540d:	gs jb  0x405483
  405410:	imul   ebp,DWORD PTR [edi+0x6e],0x2e34763d
  405417:	xor    eax,0xe540001
  40541c:	adc    al,0x46
  40541e:	jb     0x405481
  405420:	ins    DWORD PTR es:[edi],dx
  405421:	gs ja  0x405493
  405424:	jb     0x405491
  405426:	inc    esp
  405427:	imul   esi,DWORD PTR [ebx+0x70],0x4e79616c
  40542e:	popa   
  40542f:	ins    DWORD PTR es:[edi],dx
  405430:	add    BYTE PTR gs:0x10001,al
  405437:	add    BYTE PTR [eax],dh
  405439:	add    DWORD PTR [eax],eax
  40543b:	sub    esi,DWORD PTR [esi+0x73]
  40543e:	je     0x4054a5
  405440:	jae    0x4054b6
  405442:	cs gs js 0x4054ab
  405446:	arpl   WORD PTR [ebp+0x74],si
  405449:	imul   ebp,DWORD PTR [edi+0x6e],0x69676e65
  405450:	outs   dx,BYTE PTR ds:[esi]
  405451:	gs cs popa 
  405454:	jo     0x4054c6
  405456:	arpl   WORD PTR [edi+0x6e],bp
  405459:	je     0x4054bc
  40545b:	imul   ebp,DWORD PTR [esi+0x65],0x38782e72
  405462:	ss cs gs js 0x4054cc
  405467:	add    BYTE PTR [eax],al
  405469:	sbb    al,BYTE PTR [ecx]
  40546b:	add    BYTE PTR ds:0x7263694d,dl
  405471:	outs   dx,DWORD PTR ds:[esi]
  405472:	jae    0x4054e3
  405474:	data16 je 0x405497
  405477:	inc    ebx
  405478:	outs   dx,DWORD PTR ds:[esi]
  405479:	jb     0x4054eb
  40547b:	outs   dx,DWORD PTR ds:[esi]
  40547c:	jb     0x4054df
  40547e:	je     0x4054e9
  405480:	outs   dx,DWORD PTR ds:[esi]
  405481:	outs   dx,BYTE PTR ds:[esi]
  405482:	add    BYTE PTR [eax],al
  405484:	and    eax,0x4d200001
  405489:	imul   esp,DWORD PTR [ebx+0x72],0x666f736f
  405490:	je     0x405454
  405492:	scas   al,BYTE PTR es:[edi]
  405493:	and    BYTE PTR [esi+0x69],dl
  405496:	jae    0x40550d
  405498:	popa   
  405499:	ins    BYTE PTR es:[edi],dx
  40549a:	and    BYTE PTR [ebx+0x74],dl
  40549d:	jne    0x405503
  40549f:	imul   ebp,DWORD PTR [edi-0x3e],0x303220ae
  4054a6:	xor    DWORD PTR [edx],esi
  4054a8:	add    BYTE PTR [eax],al
  4054aa:	xor    eax,DWORD PTR [ecx]
  4054ac:	add    BYTE PTR [esi],ch
  4054ae:	ret    0x20a9
  4054b1:	dec    ebp
  4054b2:	imul   esp,DWORD PTR [ebx+0x72],0x666f736f
  4054b9:	je     0x4054db
  4054bb:	inc    ebx
  4054bc:	outs   dx,DWORD PTR ds:[esi]
  4054bd:	jb     0x40552f
  4054bf:	outs   dx,DWORD PTR ds:[esi]
  4054c0:	jb     0x405523
  4054c2:	je     0x40552d
  4054c4:	outs   dx,DWORD PTR ds:[esi]
  4054c5:	outs   dx,BYTE PTR ds:[esi]
  4054c6:	and    BYTE PTR cs:[ecx+0x6c],al
  4054ca:	ins    BYTE PTR es:[edi],dx
  4054cb:	and    BYTE PTR [edx+0x69],dh
  4054ce:	addr16 push 0x72207374
  4054d4:	gs jae 0x40553c
  4054d7:	jb     0x40554f
  4054d9:	gs fs add BYTE PTR cs:[eax],al
  4054de:	adc    DWORD PTR [ecx],eax
  4054e0:	add    BYTE PTR [ecx+esi*1],cl
  4054e3:	xor    DWORD PTR [esi],ebp
  4054e5:	xor    BYTE PTR [esi],ch
  4054e7:	xor    eax,0x37323730
  4054ec:	xor    DWORD PTR cs:[eax],eax
  4054ef:	add    BYTE PTR ds:0x31080001,cl
  4054f5:	xor    DWORD PTR [esi],ebp
  4054f7:	xor    BYTE PTR [esi],ch
  4054f9:	xor    BYTE PTR [esi],ch
  4054fb:	xor    BYTE PTR [eax],al
  4054fd:	add    BYTE PTR [edx],cl
  4054ff:	add    DWORD PTR [eax],eax
  405501:	add    eax,0x552d6e65
  405506:	push   ebx
  405507:	add    BYTE PTR [eax],al
  405509:	sub    al,BYTE PTR [ecx]
  40550b:	add    BYTE PTR ds:0x645c3a46,ah
  405511:	fs pop esp
  405513:	je     0x405584
  405515:	outs   dx,DWORD PTR ds:[esi]
  405516:	ins    BYTE PTR es:[edi],dx
  405517:	jae    0x405575
  405519:	fs gs jbe 0x405581
  40551d:	imul   esi,DWORD PTR [esi+0x5c],0x616e6946
  405524:	ins    BYTE PTR es:[edi],dx
  405525:	push   eax
  405526:	jne    0x40558a
  405528:	ins    BYTE PTR es:[edi],dx
  405529:	imul   esp,DWORD PTR [ebx+0x4b],0x732e7965
  405530:	outs   dx,BYTE PTR ds:[esi]
  405531:	imul   eax,DWORD PTR [eax],0x0
  405534:	or     DWORD PTR [eax+0x1],0x0
  405538:	add    BYTE PTR [eax+0x30],0x30
  40553c:	xor    dh,BYTE PTR [eax+esi*1]
  40553f:	xor    BYTE PTR [eax],dh
  405541:	xor    BYTE PTR [eax],dh
  405543:	arpl   WORD PTR [eax],di
  405545:	xor    BYTE PTR [eax],dh
  405547:	xor    BYTE PTR [eax],dh
  405549:	xor    BYTE PTR [ecx],dh
  40554b:	xor    al,0x30
  40554d:	xor    DWORD PTR [eax],esi
  40554f:	xor    BYTE PTR [eax],dh
  405551:	xor    BYTE PTR [eax],dh
  405553:	xor    BYTE PTR ss:[edx],dh
  405556:	xor    BYTE PTR [eax],dh
  405558:	xor    BYTE PTR [eax],dh
  40555a:	xor    BYTE PTR [eax],dh
  40555c:	xor    dh,BYTE PTR [eax+esi*1]
  40555f:	xor    BYTE PTR [eax],dh
  405561:	xor    BYTE PTR ds:0x34333532,dh
  405567:	xor    DWORD PTR [ebx],esi
  405569:	xor    DWORD PTR [eax],esi
  40556b:	xor    BYTE PTR [eax],dh
  40556d:	cmp    BYTE PTR [eax],dh
  40556f:	xor    BYTE PTR [eax],dh
  405571:	xor    BYTE PTR [eax],dh
  405573:	xor    DWORD PTR [eax],esi
  405575:	xor    BYTE PTR [eax],dh
  405577:	xor    DWORD PTR [eax],esi
  405579:	xor    BYTE PTR [esi],dh
  40557b:	xor    DWORD PTR [ebx],esi
  40557d:	xor    edi,DWORD PTR [ecx]
  40557f:	cmp    DWORD PTR [ecx+0x66],esp
  405582:	xor    WORD PTR [eax],di
  405585:	xor    WORD PTR gs:[ecx+0x32],sp
  40558a:	arpl   WORD PTR [edx],si
  40558c:	xor    eax,0x32613431
  405591:	aaa    
  405592:	xor    esp,DWORD PTR [ecx+0x34]
  405595:	xor    ah,BYTE PTR [ecx+edi*1+0x30]
  405599:	xor    al,0x32
  40559b:	bound  esi,QWORD PTR [edi]
  40559d:	xor    dh,BYTE PTR [ebx]
  40559f:	xor    dh,BYTE PTR [ecx]
  4055a1:	xor    WORD PTR [edi],si
  4055a4:	xor    eax,0x32303137
  4055a9:	cmp    WORD PTR fs:[ebp+0x62],sp
  4055ae:	popa   
  4055af:	fs popa 
  4055b1:	cmp    DWORD PTR ss:[ecx],edi
  4055b4:	xor    dh,BYTE PTR [ebx]
  4055b6:	xor    dh,BYTE PTR gs:[edi]
  4055b9:	xor    edi,DWORD PTR [eax]
  4055bb:	xor    al,0x30
  4055bd:	arpl   WORD PTR ss:[edx],si
  4055c0:	xor    DWORD PTR [ebp+0x35],esp
  4055c3:	bound  edi,QWORD PTR [eax]
  4055c5:	xor    BYTE PTR [ecx],dh
  4055c7:	xor    eax,0x62613235
  4055cc:	cmp    BYTE PTR [edx+esi*1+0x30],ah
  4055d0:	xor    BYTE PTR [ecx+0x36],ah
  4055d3:	xor    eax,0x35333261
  4055d8:	xor    BYTE PTR gs:[eax],dh
  4055db:	xor    DWORD PTR [ecx+0x63],esp
  4055de:	cmp    DWORD PTR [ecx+0x64],esp
  4055e1:	arpl   WORD PTR [edx],si
  4055e3:	xor    eax,0x38643266
  4055e8:	xor    DWORD PTR [ecx],esi
  4055ea:	bound  esi,QWORD PTR gs:[eax]
  4055ed:	cmp    DWORD PTR [ecx+edi*1],esi
  4055f0:	ss popa 
  4055f2:	xor    al,0x63
  4055f4:	ss popa 
  4055f6:	xor    eax,0x36346439
  4055fb:	xor    DWORD PTR [ecx],edi
  4055fd:	xor    eax,0x36633938
  405602:	cmp    DWORD PTR [esi+0x35],esp
  405605:	bound  esp,QWORD PTR [ecx+0x66]
  405608:	xor    BYTE PTR [ebx+0x34],ah
  40560b:	xor    DWORD PTR [edi],esi
  40560d:	cmp    DWORD PTR [ecx+0x34],esp
  405610:	aaa    
  405611:	xor    esi,DWORD PTR [ecx]
  405613:	xor    DWORD PTR [ecx+edi*1+0x32],esp
  405617:	xor    eax,0x64633535
  40561c:	xor    BYTE PTR [eax],dh
  40561e:	ss popa 
  405620:	arpl   WORD PTR [ebx+0x38],sp
  405623:	bound  esi,QWORD PTR ds:0x66393539
  405629:	xor    ah,BYTE PTR [edx+0x64]
  40562c:	ss xor DWORD PTR gs:[eax],esi
  405630:	xor    esi,DWORD PTR gs:[esi]
  405633:	xor    BYTE PTR [ebx+0x33],ah
  405636:	xor    al,0x35
  405638:	xor    esi,DWORD PTR [edi]
  40563a:	popa   
  40563b:	xor    DWORD PTR [edx+esi*1+0x36],esp
  40563f:	ss fs popa 
  405642:	cmp    BYTE PTR [eax],dh
  405644:	cmp    BYTE PTR ds:0x35363538,dh
  40564a:	cmp    BYTE PTR [ebx],dh
  40564c:	arpl   WORD PTR [eax],di
  40564e:	xor    eax,0x64313864
  405653:	popa   
  405654:	aaa    
  405655:	xor    sp,WORD PTR [ebp+0x63]
  405659:	xor    BYTE PTR [ecx],dh
  40565b:	gs cmp DWORD PTR fs:0x35633436,esi
  405663:	cmp    BYTE PTR [ecx+edi*1+0x33],ah
  405667:	fs aaa 
  405669:	xor    DWORD PTR [ebx],esi
  40566b:	arpl   WORD PTR [eax+esi*1+0x31],sp
  40566f:	aaa    
  405670:	xor    ah,BYTE PTR [ebx+0x38]
  405673:	xor    dh,BYTE PTR gs:[ebx]
  405676:	popa   
  405677:	xor    DWORD PTR [eax],esi
  405679:	data16 xor BYTE PTR [edx],dh
  40567c:	xor    edi,DWORD PTR [ecx]
  40567e:	bound  edi,QWORD PTR [eax]
  405680:	xor    BYTE PTR [ebx+0x39],ah
  405683:	bound  esi,QWORD PTR ss:[eax]
  405686:	aaa    
  405687:	aaa    
  405688:	xor    esi,DWORD PTR [esi]
  40568a:	xor    ax,0x3864
  40568e:	bound  esi,QWORD PTR [eax]
  405690:	xor    dh,BYTE PTR [edx]
  405692:	xor    eax,0x34613234
  405697:	gs aaa 
  405699:	xor    al,0x32
  40569b:	xor    eax,0x66356131
  4056a0:	xor    al,0x33
  4056a2:	xor    bh,BYTE PTR [eax]
  4056a4:	xor    dh,BYTE PTR [ebx+esi*1]
  4056a7:	xor    DWORD PTR [eax],edi
  4056a9:	bound  esi,QWORD PTR [ebx]
  4056ab:	xor    eax,0x35613933
  4056b0:	popa   
  4056b1:	xor    BYTE PTR [eax],bh
  4056b3:	aaa    
  4056b4:	data16 cmp BYTE PTR [ebp+0x35],ah
  4056b8:	xor    esp,DWORD PTR [edx+esi*1+0x66]
  4056bc:	xor    DWORD PTR [ebx],esi
  4056be:	xor    eax,0x61633966
  4056c3:	xor    al,0x37
  4056c5:	xor    sp,WORD PTR [edx+0x62]
  4056c9:	xor    ah,BYTE PTR [ebp+0x31]
  4056cc:	xor    BYTE PTR [ecx+0x66],ah
  4056cf:	data16 xor BYTE PTR [ecx+0x66],ah
  4056d3:	xor    BYTE PTR [eax],bh
  4056d5:	xor    al,0x39
  4056d7:	xor    eax,0x62663430
  4056dc:	aaa    
  4056dd:	arpl   WORD PTR [ebp+0x61],sp
  4056e0:	xor    esp,DWORD PTR [esi+0x66]
  4056e3:	xor    DWORD PTR [ecx],edi
  4056e5:	xor    ah,BYTE PTR [ebx+eiz*2+0x38]
  4056e9:	fs xor BYTE PTR gs:[ebp+0x64],ah
  4056ee:	popa   
  4056ef:	fs ss xor al,0x63
  4056f3:	cmp    BYTE PTR ss:[ebp+0x66],ah
  4056f7:	fs xor esi,DWORD PTR gs:[ebx+eiz*2]
  4056fc:	xor    eax,0x30336436
  405701:	xor    ah,BYTE PTR [ecx+0x64]
  405704:	xor    eax,0x36646635
  405709:	cmp    BYTE PTR gs:[eax],dh
  40570c:	xor    si,WORD PTR [eax]
  40570f:	xor    ah,BYTE PTR [ebp+esi*1+0x65]
  405713:	data16 arpl WORD PTR [ebp+eiz*2+0x61],sp
  405718:	cmp    DWORD PTR gs:0x38353633,esi
  40571f:	xor    esi,DWORD PTR fs:[esi*1+0x31363532]
  405727:	bound  esi,QWORD PTR ds:0x63363366
  40572d:	xor    eax,0x66653234
  405732:	bound  esp,QWORD PTR fs:[esp+eiz*2+0x39]
  405737:	data16 cmp BYTE PTR [eax],bh
  40573a:	cmp    BYTE PTR ds:0x33643833,dh
  405740:	aaa    
  405741:	xor    al,0x63
  405743:	xor    WORD PTR gs:[eax],si
  405747:	ss popa 
  405749:	arpl   WORD PTR [esi+0x37],sp
  40574c:	cmp    DWORD PTR fs:[ebx],esi
  40574f:	popa   
  405750:	xor    al,0x34
  405752:	xor    al,0x35
  405754:	arpl   WORD PTR [ebx],si
  405756:	arpl   WORD PTR [edi],si
  405758:	xor    esp,DWORD PTR [ebx+0x64]
  40575b:	cmp    DWORD PTR [ecx],esi
  40575d:	xor    DWORD PTR [esi+0x30],esp
  405760:	xor    eax,0x61613137
  405765:	xor    sp,WORD PTR [ebp+esi*1+0x34]
  40576a:	fs popa 
  40576c:	xor    DWORD PTR [edx],esi
  40576e:	bound  esi,QWORD PTR [ecx]
  405770:	xor    DWORD PTR [esp+eiz*2+0x65],esp
  405774:	arpl   WORD PTR [ebx],si
  405776:	aaa    
  405777:	xor    eax,0x813362
  40577c:	popa   
  40577d:	xor    eax,0x36363861
  405782:	xor    DWORD PTR gs:[ebp+0x65],esp
  405786:	xor    DWORD PTR [eax],edi
  405788:	data16 cmp BYTE PTR ss:[eax],dh
  40578c:	aaa    
  40578d:	ss cmp BYTE PTR ss:[edx],dh
  405791:	xor    BYTE PTR [ecx],bh
  405793:	xor    sp,WORD PTR [edx+0x31]
  405797:	xor    DWORD PTR [edx],esi
  405799:	xor    esi,DWORD PTR [esi]
  40579b:	popa   
  40579c:	arpl   WORD PTR [ebp+0x35],sp
  40579f:	xor    dh,BYTE PTR gs:[ecx]
  4057a2:	xor    WORD PTR [ecx],si
  4057a5:	aaa    
  4057a6:	cmp    BYTE PTR [eax],dh
  4057a8:	xor    esp,DWORD PTR [ecx+0x33]
  4057ab:	xor    DWORD PTR [ebx+esi*1],esi
  4057ae:	popa   
  4057af:	bound  esp,QWORD PTR [edx+0x31]
  4057b2:	xor    dh,BYTE PTR [esi]
  4057b4:	fs xor BYTE PTR fs:[ebx],dh
  4057b8:	xor    eax,0x32643764
  4057bd:	data16 cmp BYTE PTR [edi],dh
  4057c0:	bound  esi,QWORD PTR ss:[esi]
  4057c3:	cmp    DWORD PTR [ebx],esi
  4057c5:	cmp    BYTE PTR [ecx+0x61],ah
  4057c8:	data16 xor ah,BYTE PTR [ebp+0x65]
  4057cc:	xor    esi,DWORD PTR [ecx+esi*1]
  4057cf:	xor    al,0x64
  4057d1:	xor    eax,0x64303234
  4057d6:	aaa    
  4057d7:	xor    eax,0x31323633
  4057dc:	xor    al,0x30
  4057de:	xor    BYTE PTR [edx+eiz*2+0x34],ah
  4057e2:	xor    al,0x61
  4057e4:	xor    al,0x39
  4057e6:	arpl   WORD PTR [eax+edi*1],si
  4057e9:	arpl   WORD PTR ss:[ebp+0x31],sp
  4057ed:	xor    esi,DWORD PTR [ebx+esi*1]
  4057f0:	xor    BYTE PTR [eax],dh
  4057f2:	popa   
  4057f3:	xor    dh,BYTE PTR [ecx]
  4057f5:	xor    BYTE PTR [esi],dh
  4057f7:	popa   
  4057f8:	bound  esi,QWORD PTR fs:[esi]
  4057fb:	bound  esp,QWORD PTR [edx+eiz*2+0x34]
  4057ff:	xor    esi,DWORD PTR [ebx]
  405801:	xor    eax,0x65663039
  405806:	data16 cmp BYTE PTR [ecx+0x64],ah
  40580a:	xor    eax,0x63333463
  40580f:	bound  esp,QWORD PTR [ecx+0x38]
  405812:	xor    dh,BYTE PTR [edx]
  405814:	cmp    DWORD PTR [eax],esi
  405816:	arpl   WORD PTR fs:[ecx+edi*1],si
  40581a:	xor    eax,0x66653033
  40581f:	data16 cmp BYTE PTR fs:[esi],dh
  405823:	xor    eax,0x39643332
  405828:	xor    al,0x38
  40582a:	xor    esp,DWORD PTR [ebx+0x30]
  40582d:	xor    BYTE PTR [esi+0x34],ah
  405830:	xor    eax,0x34666138
  405835:	cmp    BYTE PTR ss:[ecx],bh
  405838:	xor    BYTE PTR [eax],dh
  40583a:	xor    esi,DWORD PTR [esi]
  40583c:	bound  esi,QWORD PTR [eax]
  40583e:	xor    ah,BYTE PTR gs:[ebx+0x36]
  405842:	xor    DWORD PTR [eax+esi*1+0x37],esp
  405846:	aaa    
  405847:	fs aaa 
  405849:	bound  sp,DWORD PTR [ecx+0x63]
  40584d:	xor    al,0x36
  40584f:	aaa    
  405850:	popa   
  405851:	xor    eax,0x62653630
  405856:	popa   
  405857:	xor    bh,BYTE PTR [ecx]
  405859:	gs xor al,0x36
  40585c:	aaa    
  40585d:	popa   
  40585e:	cmp    BYTE PTR [edi],dh
  405860:	xor    DWORD PTR [ecx],edi
  405862:	cmp    BYTE PTR [edx+0x30],ah
  405865:	xor    eax,0x34376333
  40586a:	cmp    DWORD PTR [ecx+0x61],esp
  40586d:	xor    ah,BYTE PTR [ecx+0x34]
  405870:	xor    bh,BYTE PTR fs:[eax]
  405873:	xor    al,0x30
  405875:	arpl   WORD PTR [edi],si
  405877:	cmp    BYTE PTR [eiz*2+0x6436],dh
  40587e:	push   ds
  40587f:	add    DWORD PTR [eax],eax
  405881:	add    DWORD PTR [eax],eax
  405883:	push   esp
  405884:	add    dl,BYTE PTR [esi]
  405886:	push   edi
  405887:	jb     0x4058ea
  405889:	jo     0x4058d9
  40588b:	outs   dx,DWORD PTR ds:[esi]
  40588c:	outs   dx,BYTE PTR ds:[esi]
  40588d:	inc    ebp
  40588e:	js     0x4058f3
  405890:	gs jo  0x405907
  405893:	imul   ebp,DWORD PTR [edi+0x6e],0x6f726854
  40589a:	ja     0x40590f
  40589c:	add    DWORD PTR [eax],ecx
  40589e:	add    DWORD PTR [eax],eax
  4058a0:	add    al,BYTE PTR [eax]
  4058a2:	add    BYTE PTR [eax],al
  4058a4:	add    BYTE PTR [eax],al
  4058a6:	or     BYTE PTR [ecx],al
  4058a8:	add    BYTE PTR [eax],cl
	...
  4058b2:	add    BYTE PTR [eax],al
  4058b4:	retf   
  4058b5:	fist   WORD PTR [ecx]
  4058b7:	push   eax
  4058b8:	add    BYTE PTR [eax],al
  4058ba:	add    BYTE PTR [eax],al
  4058bc:	add    al,BYTE PTR [eax]
  4058be:	add    BYTE PTR [eax],al
  4058c0:	sbb    al,0x1
  4058c2:	add    BYTE PTR [eax],al
  4058c4:	int3   
  4058c5:	pop    eax
  4058c6:	add    BYTE PTR [eax],al
  4058c8:	int3   
  4058c9:	cmp    al,BYTE PTR [eax]
  4058cb:	add    BYTE PTR [edx+0x53],dl
  4058ce:	inc    esp
  4058cf:	push   ebx
  4058d0:	mov    edx,0x2603241f
  4058d5:	cld    
  4058d6:	pop    es
  4058d7:	dec    ebx
  4058d8:	mov    ds:0xc0d0648c,al
  4058dd:	push   ebx
  4058de:	mov    ecx,0x190
  4058e3:	add    BYTE PTR [esi+0x3a],ah
  4058e6:	pop    esp
  4058e7:	bound  ebp,QWORD PTR [ecx+0x6e]
  4058ea:	popa   
  4058eb:	jb     0x405956
  4058ed:	gs jae 0x40594c
  4058f0:	dec    ecx
  4058f1:	outs   dx,BYTE PTR ds:[esi]
  4058f2:	je     0x405959
  4058f4:	jb     0x405963
  4058f6:	gs imul esp,DWORD PTR fs:[ecx+0x74],0x73765c65
  4058ff:	gs je  0x40595e
  405902:	ins    DWORD PTR es:[edi],dx
  405903:	jae    0x405979
  405905:	gs jae 0x40597c
  405908:	gs js  0x405970
  40590b:	arpl   WORD PTR [ebp+0x74],si
  40590e:	outs   dx,DWORD PTR ds:[esi]
  40590f:	jb     0x40593f
  405911:	popa   
  405912:	jo     0x405984
  405914:	arpl   WORD PTR [edi+0x6e],bp
  405917:	je     0x40597a
  405919:	imul   ebp,DWORD PTR [esi+0x65],0x38782e72
  405920:	ss arpl WORD PTR cs:[ebx+0x70],si
  405925:	jb     0x405996
  405927:	push   0x5f
  405929:	pop    edi
  40592a:	xor    DWORD PTR [eax],esi
  40592c:	cmp    BYTE PTR [edi],dh
  40592e:	cmp    BYTE PTR ds:0x35393634,dh
  405934:	pop    esp
  405935:	outs   dx,DWORD PTR ds:[esi]
  405936:	bound  ebp,QWORD PTR [edx+0x72]
  405939:	pop    esp
  40593a:	js     0x405974
  40593c:	ss pop esp
  40593e:	jbe    0x4059b3
  405940:	je     0x4059a7
  405942:	jae    0x4059b8
  405944:	cs gs js 0x4059ad
  405948:	arpl   WORD PTR [ebp+0x74],si
  40594b:	imul   ebp,DWORD PTR [edi+0x6e],0x69676e65
  405952:	outs   dx,BYTE PTR ds:[esi]
  405953:	gs cs popa 
  405956:	jo     0x4059c8
  405958:	arpl   WORD PTR [edi+0x6e],bp
  40595b:	je     0x4059be
  40595d:	imul   ebp,DWORD PTR [esi+0x65],0x38782e72
  405964:	ss cs jo 0x4059cc
  405968:	bound  eax,QWORD PTR [eax]
	...
  4059e6:	add    BYTE PTR [eax],al
  4059e8:	adc    BYTE PTR [edx+0x0],bl
	...
  4059f3:	add    BYTE PTR [esi],ch
  4059f5:	pop    edx
  4059f6:	add    BYTE PTR [eax],al
  4059f8:	add    BYTE PTR [eax],ah
	...
  405a0e:	add    BYTE PTR [eax],al
  405a10:	and    BYTE PTR [edx+0x0],bl
	...
  405a1f:	add    BYTE PTR [eax],al
  405a21:	add    BYTE PTR [edi+0x43],bl
  405a24:	outs   dx,DWORD PTR ds:[esi]
  405a25:	jb     0x405a6c
  405a27:	js     0x405a8e
  405a29:	dec    ebp
  405a2a:	popa   
  405a2b:	imul   ebp,DWORD PTR [esi+0x0],0x6f63736d
  405a32:	jb     0x405a99
  405a34:	gs cs fs ins BYTE PTR es:[edi],dx
  405a38:	ins    BYTE PTR es:[edi],dx
  405a39:	add    BYTE PTR [eax],al
  405a3b:	add    BYTE PTR [eax],al
  405a3d:	add    bh,bh
  405a3f:	and    eax,0x402000

Disassembly of section .rsrc:

00406000 <.rsrc>:
	...
  40600c:	add    BYTE PTR [eax],al
  40600e:	add    al,BYTE PTR [eax]
  406010:	adc    BYTE PTR [eax],al
  406012:	add    BYTE PTR [eax],al
  406014:	and    BYTE PTR [eax],al
  406016:	add    BYTE PTR [eax+0x18],al
  40601c:	cmp    BYTE PTR [eax],al
  40601e:	add    BYTE PTR [eax+0x0],al
	...
  40602c:	add    BYTE PTR [eax],al
  40602e:	add    DWORD PTR [eax],eax
  406030:	add    DWORD PTR [eax],eax
  406032:	add    BYTE PTR [eax],al
  406034:	push   eax
  406035:	add    BYTE PTR [eax],al
  406037:	add    BYTE PTR [eax],0x0
	...
  406046:	add    DWORD PTR [eax],eax
  406048:	add    DWORD PTR [eax],eax
  40604a:	add    BYTE PTR [eax],al
  40604c:	push   0x800000
	...
  40605d:	add    BYTE PTR [ecx],al
  40605f:	add    BYTE PTR [eax],al
  406061:	add    BYTE PTR [eax],al
  406063:	add    BYTE PTR [eax+0x0],al
	...
  406075:	add    BYTE PTR [ecx],al
  406077:	add    BYTE PTR [eax],al
  406079:	add    BYTE PTR [eax],al
  40607b:	add    BYTE PTR [eax-0x60000000],dl
  406081:	pusha  
  406082:	add    BYTE PTR [eax],al
  406084:	test   al,0x4
	...
  40608e:	add    BYTE PTR [eax],al
  406090:	dec    eax
  406091:	add    BYTE PTR gs:[eax],al
  406094:	jmp    0x0:0x1
  40609b:	add    BYTE PTR [eax],al
  40609d:	add    BYTE PTR [eax],al
  40609f:	add    BYTE PTR [eax+0x3404],ch
  4060a5:	add    BYTE PTR [esi+0x0],dl
  4060a8:	push   ebx
  4060a9:	add    BYTE PTR [edi+0x0],bl
  4060ac:	push   esi
  4060ad:	add    BYTE PTR [ebp+0x0],al
  4060b0:	push   edx
  4060b1:	add    BYTE PTR [ebx+0x0],dl
  4060b4:	dec    ecx
  4060b5:	add    BYTE PTR [edi+0x0],cl
  4060b8:	dec    esi
  4060b9:	add    BYTE PTR [edi+0x0],bl
  4060bc:	dec    ecx
  4060bd:	add    BYTE PTR [esi+0x0],cl
  4060c0:	inc    esi
  4060c1:	add    BYTE PTR [edi+0x0],cl
  4060c4:	add    BYTE PTR [eax],al
  4060c6:	add    BYTE PTR [eax],al
  4060c8:	mov    ebp,0xfeef04
  4060cd:	add    BYTE PTR [ecx],al
  4060cf:	add    BYTE PTR [eax],al
  4060d1:	add    BYTE PTR [ebx],cl
  4060d3:	add    BYTE PTR [ecx],al
  4060d5:	add    BYTE PTR [edi],ah
  4060d7:	mov    BYTE PTR [eax],0x0
  4060da:	or     eax,DWORD PTR [eax]
  4060dc:	add    DWORD PTR [eax],eax
  4060de:	daa    
  4060df:	(bad)  
  4060e0:	aas    
  4060e1:	add    BYTE PTR [eax],al
  4060e3:	add    BYTE PTR [eax],al
  4060e5:	add    BYTE PTR [eax],al
  4060e7:	add    BYTE PTR [eax+eax*1],al
  4060ea:	add    BYTE PTR [eax],al
  4060ec:	add    DWORD PTR [eax],eax
	...
  4060fa:	add    BYTE PTR [eax],al
  4060fc:	inc    esp
  4060fd:	add    BYTE PTR [eax],al
  4060ff:	add    BYTE PTR [ecx],al
  406101:	add    BYTE PTR [esi+0x0],dl
  406104:	popa   
  406105:	add    BYTE PTR [edx+0x0],dh
  406108:	inc    esi
  406109:	add    BYTE PTR [ecx+0x0],ch
  40610c:	ins    BYTE PTR es:[edi],dx
  40610d:	add    BYTE PTR [ebp+0x0],ah
  406110:	dec    ecx
  406111:	add    BYTE PTR [esi+0x0],ch
  406114:	data16 add BYTE PTR [edi+0x0],ch
  406118:	add    BYTE PTR [eax],al
  40611a:	add    BYTE PTR [eax],al
  40611c:	and    al,0x0
  40611e:	add    al,0x0
  406120:	add    BYTE PTR [eax],al
  406122:	push   esp
  406123:	add    BYTE PTR [edx+0x0],dh
  406126:	popa   
  406127:	add    BYTE PTR [esi+0x0],ch
  40612a:	jae    0x40612c
  40612c:	ins    BYTE PTR es:[edi],dx
  40612d:	add    BYTE PTR [ecx+0x0],ah
  406130:	je     0x406132
  406132:	imul   eax,DWORD PTR [eax],0x6e006f
  406138:	add    BYTE PTR [eax],al
  40613a:	add    BYTE PTR [eax],al
  40613c:	add    BYTE PTR [eax],al
  40613e:	mov    al,0x4
  406140:	or     BYTE PTR [eax+eax*1],al
  406143:	add    BYTE PTR [ecx],al
  406145:	add    BYTE PTR [ebx+0x0],dl
  406148:	je     0x40614a
  40614a:	jb     0x40614c
  40614c:	imul   eax,DWORD PTR [eax],0x67006e
  406152:	inc    esi
  406153:	add    BYTE PTR [ecx+0x0],ch
  406156:	ins    BYTE PTR es:[edi],dx
  406157:	add    BYTE PTR [ebp+0x0],ah
  40615a:	dec    ecx
  40615b:	add    BYTE PTR [esi+0x0],ch
  40615e:	data16 add BYTE PTR [edi+0x0],ch
  406162:	add    BYTE PTR [eax],al
  406164:	in     al,0x3
  406166:	add    BYTE PTR [eax],al
  406168:	add    DWORD PTR [eax],eax
  40616a:	xor    BYTE PTR [eax],al
  40616c:	xor    BYTE PTR [eax],al
  40616e:	xor    BYTE PTR [eax],al
  406170:	xor    BYTE PTR [eax],al
  406172:	xor    BYTE PTR [eax],al
  406174:	xor    al,0x0
  406176:	bound  eax,QWORD PTR [eax]
  406178:	xor    BYTE PTR [eax],al
  40617a:	add    BYTE PTR [eax],al
  40617c:	jo     0x40617e
  40617e:	sub    al,0x0
  406180:	add    DWORD PTR [eax],eax
  406182:	inc    ebx
  406183:	add    BYTE PTR [edi+0x0],ch
  406186:	ins    DWORD PTR es:[edi],dx
  406187:	add    BYTE PTR [ebp+0x0],ch
  40618a:	add    BYTE PTR gs:[esi+0x0],ch
  40618e:	je     0x406190
  406190:	jae    0x406192
  406192:	add    BYTE PTR [eax],al
  406194:	jbe    0x406196
  406196:	jae    0x406198
  406198:	je     0x40619a
  40619a:	add    BYTE PTR gs:[ebx+0x0],dh
  40619e:	je     0x4061a0
  4061a0:	add    BYTE PTR cs:[ebp+0x0],ah
  4061a4:	js     0x4061a6
  4061a6:	add    BYTE PTR gs:[ebx+0x0],ah
  4061aa:	jne    0x4061ac
  4061ac:	je     0x4061ae
  4061ae:	imul   eax,DWORD PTR [eax],0x6e006f
  4061b4:	add    BYTE PTR gs:[esi+0x0],ch
  4061b8:	add    BYTE PTR [bx+di+0x0],ch
  4061bc:	outs   dx,BYTE PTR ds:[esi]
  4061bd:	add    BYTE PTR [ebp+0x0],ah
  4061c0:	add    BYTE PTR cs:[ecx+0x0],ah
  4061c4:	jo     0x4061c6
  4061c6:	jo     0x4061c8
  4061c8:	arpl   WORD PTR [eax],ax
  4061ca:	outs   dx,DWORD PTR ds:[esi]
  4061cb:	add    BYTE PTR [esi+0x0],ch
  4061ce:	je     0x4061d0
  4061d0:	popa   
  4061d1:	add    BYTE PTR [ecx+0x0],ch
  4061d4:	outs   dx,BYTE PTR ds:[esi]
  4061d5:	add    BYTE PTR [ebp+0x0],ah
  4061d8:	jb     0x4061da
  4061da:	add    BYTE PTR cs:[eax+0x0],bh
  4061de:	cmp    BYTE PTR [eax],al
  4061e0:	add    BYTE PTR ss:[esi],ch
  4061e3:	add    BYTE PTR [ebp+0x0],ah
  4061e6:	js     0x4061e8
  4061e8:	add    BYTE PTR gs:[eax],al
  4061eb:	add    BYTE PTR [eax+eax*1+0x16],cl
  4061ef:	add    BYTE PTR [ecx],al
  4061f1:	add    BYTE PTR [ebx+0x0],al
  4061f4:	outs   dx,DWORD PTR ds:[esi]
  4061f5:	add    BYTE PTR [ebp+0x0],ch
  4061f8:	jo     0x4061fa
  4061fa:	popa   
  4061fb:	add    BYTE PTR [esi+0x0],ch
  4061fe:	jns    0x406200
  406200:	dec    esi
  406201:	add    BYTE PTR [ecx+0x0],ah
  406204:	ins    DWORD PTR es:[edi],dx
  406205:	add    BYTE PTR [ebp+0x0],ah
  406208:	add    BYTE PTR [eax],al
  40620a:	add    BYTE PTR [eax],al
  40620c:	dec    ebp
  40620d:	add    BYTE PTR [ecx+0x0],ch
  406210:	arpl   WORD PTR [eax],ax
  406212:	jb     0x406214
  406214:	outs   dx,DWORD PTR ds:[esi]
  406215:	add    BYTE PTR [ebx+0x0],dh
  406218:	outs   dx,DWORD PTR ds:[esi]
  406219:	add    BYTE PTR [esi+0x0],ah
  40621c:	je     0x40621e
  40621e:	and    BYTE PTR [eax],al
  406220:	inc    ebx
  406221:	add    BYTE PTR [edi+0x0],ch
  406224:	jb     0x406226
  406226:	jo     0x406228
  406228:	outs   dx,DWORD PTR ds:[esi]
  406229:	add    BYTE PTR [edx+0x0],dh
  40622c:	popa   
  40622d:	add    BYTE PTR [eax+eax*1+0x69],dh
  406231:	add    BYTE PTR [edi+0x0],ch
  406234:	outs   dx,BYTE PTR ds:[esi]
  406235:	add    BYTE PTR [eax],al
  406237:	add    BYTE PTR [eax+0x1002c00],al
  40623d:	add    BYTE PTR [esi+0x0],al
  406240:	imul   eax,DWORD PTR [eax],0x65006c
  406246:	inc    esp
  406247:	add    BYTE PTR [ebp+0x0],ah
  40624a:	jae    0x40624c
  40624c:	arpl   WORD PTR [eax],ax
  40624e:	jb     0x406250
  406250:	imul   eax,DWORD PTR [eax],0x740070
  406256:	imul   eax,DWORD PTR [eax],0x6e006f
  40625c:	add    BYTE PTR [eax],al
  40625e:	add    BYTE PTR [eax],al
  406260:	jbe    0x406262
  406262:	jae    0x406264
  406264:	je     0x406266
  406266:	add    BYTE PTR gs:[ebx+0x0],dh
  40626a:	je     0x40626c
  40626c:	add    BYTE PTR cs:[ebp+0x0],ah
  406270:	js     0x406272
  406272:	add    BYTE PTR gs:[ebx+0x0],ah
  406276:	jne    0x406278
  406278:	je     0x40627a
  40627a:	imul   eax,DWORD PTR [eax],0x6e006f
  406280:	add    BYTE PTR gs:[esi+0x0],ch
  406284:	add    BYTE PTR [bx+di+0x0],ch
  406288:	outs   dx,BYTE PTR ds:[esi]
  406289:	add    BYTE PTR [ebp+0x0],ah
  40628c:	add    BYTE PTR cs:[ecx+0x0],ah
  406290:	jo     0x406292
  406292:	jo     0x406294
  406294:	arpl   WORD PTR [eax],ax
  406296:	outs   dx,DWORD PTR ds:[esi]
  406297:	add    BYTE PTR [esi+0x0],ch
  40629a:	je     0x40629c
  40629c:	popa   
  40629d:	add    BYTE PTR [ecx+0x0],ch
  4062a0:	outs   dx,BYTE PTR ds:[esi]
  4062a1:	add    BYTE PTR [ebp+0x0],ah
  4062a4:	jb     0x4062a6
  4062a6:	add    BYTE PTR cs:[eax+0x0],bh
  4062aa:	cmp    BYTE PTR [eax],al
  4062ac:	add    BYTE PTR ss:[esi],ch
  4062af:	add    BYTE PTR [ebp+0x0],ah
  4062b2:	js     0x4062b4
  4062b4:	add    BYTE PTR gs:[eax],al
  4062b7:	add    BYTE PTR [eax+eax*1],bh
  4062ba:	or     eax,0x46000100
  4062bf:	add    BYTE PTR [ecx+0x0],ch
  4062c2:	ins    BYTE PTR es:[edi],dx
  4062c3:	add    BYTE PTR [ebp+0x0],ah
  4062c6:	push   esi
  4062c7:	add    BYTE PTR [ebp+0x0],ah
  4062ca:	jb     0x4062cc
  4062cc:	jae    0x4062ce
  4062ce:	imul   eax,DWORD PTR [eax],0x6e006f
  4062d4:	add    BYTE PTR [eax],al
  4062d6:	add    BYTE PTR [eax],al
  4062d8:	xor    DWORD PTR [eax],eax
  4062da:	xor    DWORD PTR [eax],eax
  4062dc:	add    BYTE PTR cs:[eax],dh
  4062df:	add    BYTE PTR [esi],ch
  4062e1:	add    BYTE PTR ds:0x37003000,dh
  4062e7:	add    BYTE PTR [edx],dh
  4062e9:	add    BYTE PTR [edi],dh
  4062eb:	add    BYTE PTR [esi],ch
  4062ed:	add    BYTE PTR [ecx],dh
  4062ef:	add    BYTE PTR [eax],al
  4062f1:	add    BYTE PTR [eax],al
  4062f3:	add    BYTE PTR [eax+0x0],bh
  4062f6:	sub    al,0x0
  4062f8:	add    DWORD PTR [eax],eax
  4062fa:	dec    ecx
  4062fb:	add    BYTE PTR [esi+0x0],ch
  4062fe:	je     0x406300
  406300:	add    BYTE PTR gs:[edx+0x0],dh
  406304:	outs   dx,BYTE PTR ds:[esi]
  406305:	add    BYTE PTR [ecx+0x0],ah
  406308:	ins    BYTE PTR es:[edi],dx
  406309:	add    BYTE PTR [esi+0x0],cl
  40630c:	popa   
  40630d:	add    BYTE PTR [ebp+0x0],ch
  406310:	add    BYTE PTR gs:[eax],al
  406313:	add    BYTE PTR [esi+0x0],dh
  406316:	jae    0x406318
  406318:	je     0x40631a
  40631a:	add    BYTE PTR gs:[ebx+0x0],dh
  40631e:	je     0x406320
  406320:	add    BYTE PTR cs:[ebp+0x0],ah
  406324:	js     0x406326
  406326:	add    BYTE PTR gs:[ebx+0x0],ah
  40632a:	jne    0x40632c
  40632c:	je     0x40632e
  40632e:	imul   eax,DWORD PTR [eax],0x6e006f
  406334:	add    BYTE PTR gs:[esi+0x0],ch
  406338:	add    BYTE PTR [bx+di+0x0],ch
  40633c:	outs   dx,BYTE PTR ds:[esi]
  40633d:	add    BYTE PTR [ebp+0x0],ah
  406340:	add    BYTE PTR cs:[ecx+0x0],ah
  406344:	jo     0x406346
  406346:	jo     0x406348
  406348:	arpl   WORD PTR [eax],ax
  40634a:	outs   dx,DWORD PTR ds:[esi]
  40634b:	add    BYTE PTR [esi+0x0],ch
  40634e:	je     0x406350
  406350:	popa   
  406351:	add    BYTE PTR [ecx+0x0],ch
  406354:	outs   dx,BYTE PTR ds:[esi]
  406355:	add    BYTE PTR [ebp+0x0],ah
  406358:	jb     0x40635a
  40635a:	add    BYTE PTR cs:[eax+0x0],bh
  40635e:	cmp    BYTE PTR [eax],al
  406360:	add    BYTE PTR ss:[esi],ch
  406363:	add    BYTE PTR [ebp+0x0],ah
  406366:	js     0x406368
  406368:	add    BYTE PTR gs:[eax],al
  40636b:	add    BYTE PTR [eax+0x1002e00],al
  406371:	add    BYTE PTR [eax+eax*1+0x65],cl
  406375:	add    BYTE PTR [edi+0x0],ah
  406378:	popa   
  406379:	add    BYTE PTR [eax+eax*1+0x43],ch
  40637d:	add    BYTE PTR [edi+0x0],ch
  406380:	jo     0x406382
  406382:	jns    0x406384
  406384:	jb     0x406386
  406386:	imul   eax,DWORD PTR [eax],0x680067
  40638c:	je     0x40638e
  40638e:	add    BYTE PTR [eax],al
  406390:	test   eax,0x4d002000
  406395:	add    BYTE PTR [ecx+0x0],ch
  406398:	arpl   WORD PTR [eax],ax
  40639a:	jb     0x40639c
  40639c:	outs   dx,DWORD PTR ds:[esi]
  40639d:	add    BYTE PTR [ebx+0x0],dh
  4063a0:	outs   dx,DWORD PTR ds:[esi]
  4063a1:	add    BYTE PTR [esi+0x0],ah
  4063a4:	je     0x4063a6
  4063a6:	and    BYTE PTR [eax],al
  4063a8:	inc    ebx
  4063a9:	add    BYTE PTR [edi+0x0],ch
  4063ac:	jb     0x4063ae
  4063ae:	jo     0x4063b0
  4063b0:	outs   dx,DWORD PTR ds:[esi]
  4063b1:	add    BYTE PTR [edx+0x0],dh
  4063b4:	popa   
  4063b5:	add    BYTE PTR [eax+eax*1+0x69],dh
  4063b9:	add    BYTE PTR [edi+0x0],ch
  4063bc:	outs   dx,BYTE PTR ds:[esi]
  4063bd:	add    BYTE PTR [esi],ch
  4063bf:	add    BYTE PTR [eax],ah
  4063c1:	add    BYTE PTR [ecx+0x0],al
  4063c4:	ins    BYTE PTR es:[edi],dx
  4063c5:	add    BYTE PTR [eax+eax*1+0x20],ch
  4063c9:	add    BYTE PTR [edx+0x0],dh
  4063cc:	imul   eax,DWORD PTR [eax],0x680067
  4063d2:	je     0x4063d4
  4063d4:	jae    0x4063d6
  4063d6:	and    BYTE PTR [eax],al
  4063d8:	jb     0x4063da
  4063da:	add    BYTE PTR gs:[ebx+0x0],dh
  4063de:	add    BYTE PTR gs:[edx+0x0],dh
  4063e2:	jbe    0x4063e4
  4063e4:	add    BYTE PTR gs:[eax+eax*1+0x2e],ah
  4063e9:	add    BYTE PTR [eax],al
  4063eb:	add    BYTE PTR [eax+0x1002c00],al
  4063f1:	add    BYTE PTR [edi+0x0],cl
  4063f4:	jb     0x4063f6
  4063f6:	imul   eax,DWORD PTR [eax],0x690067
  4063fc:	outs   dx,BYTE PTR ds:[esi]
  4063fd:	add    BYTE PTR [ecx+0x0],ah
  406400:	ins    BYTE PTR es:[edi],dx
  406401:	add    BYTE PTR [esi+0x0],al
  406404:	imul   eax,DWORD PTR [eax],0x65006c
  40640a:	outs   dx,BYTE PTR ds:[esi]
  40640b:	add    BYTE PTR [ecx+0x0],ah
  40640e:	ins    DWORD PTR es:[edi],dx
  40640f:	add    BYTE PTR [ebp+0x0],ah
  406412:	add    BYTE PTR [eax],al
  406414:	jbe    0x406416
  406416:	jae    0x406418
  406418:	je     0x40641a
  40641a:	add    BYTE PTR gs:[ebx+0x0],dh
  40641e:	je     0x406420
  406420:	add    BYTE PTR cs:[ebp+0x0],ah
  406424:	js     0x406426
  406426:	add    BYTE PTR gs:[ebx+0x0],ah
  40642a:	jne    0x40642c
  40642c:	je     0x40642e
  40642e:	imul   eax,DWORD PTR [eax],0x6e006f
  406434:	add    BYTE PTR gs:[esi+0x0],ch
  406438:	add    BYTE PTR [bx+di+0x0],ch
  40643c:	outs   dx,BYTE PTR ds:[esi]
  40643d:	add    BYTE PTR [ebp+0x0],ah
  406440:	add    BYTE PTR cs:[ecx+0x0],ah
  406444:	jo     0x406446
  406446:	jo     0x406448
  406448:	arpl   WORD PTR [eax],ax
  40644a:	outs   dx,DWORD PTR ds:[esi]
  40644b:	add    BYTE PTR [esi+0x0],ch
  40644e:	je     0x406450
  406450:	popa   
  406451:	add    BYTE PTR [ecx+0x0],ch
  406454:	outs   dx,BYTE PTR ds:[esi]
  406455:	add    BYTE PTR [ebp+0x0],ah
  406458:	jb     0x40645a
  40645a:	add    BYTE PTR cs:[eax+0x0],bh
  40645e:	cmp    BYTE PTR [eax],al
  406460:	add    BYTE PTR ss:[esi],ch
  406463:	add    BYTE PTR [ebp+0x0],ah
  406466:	js     0x406468
  406468:	add    BYTE PTR gs:[eax],al
  40646b:	add    BYTE PTR [eax+0x0],ah
  40646e:	pop    ds
  40646f:	add    BYTE PTR [ecx],al
  406471:	add    BYTE PTR [eax+0x0],dl
  406474:	jb     0x406476
  406476:	outs   dx,DWORD PTR ds:[esi]
  406477:	add    BYTE PTR [eax+eax*1+0x75],ah
  40647b:	add    BYTE PTR [ebx+0x0],ah
  40647e:	je     0x406480
  406480:	dec    esi
  406481:	add    BYTE PTR [ecx+0x0],ah
  406484:	ins    DWORD PTR es:[edi],dx
  406485:	add    BYTE PTR [ebp+0x0],ah
  406488:	add    BYTE PTR [eax],al
  40648a:	add    BYTE PTR [eax],al
  40648c:	dec    ebp
  40648d:	add    BYTE PTR [ecx+0x0],ch
  406490:	arpl   WORD PTR [eax],ax
  406492:	jb     0x406494
  406494:	outs   dx,DWORD PTR ds:[esi]
  406495:	add    BYTE PTR [ebx+0x0],dh
  406498:	outs   dx,DWORD PTR ds:[esi]
  406499:	add    BYTE PTR [esi+0x0],ah
  40649c:	je     0x40649e
  40649e:	scas   al,BYTE PTR es:[edi]
  40649f:	add    BYTE PTR [eax],ah
  4064a1:	add    BYTE PTR [esi+0x0],dl
  4064a4:	imul   eax,DWORD PTR [eax],0x750073
  4064aa:	popa   
  4064ab:	add    BYTE PTR [eax+eax*1+0x20],ch
  4064af:	add    BYTE PTR [ebx+0x0],dl
  4064b2:	je     0x4064b4
  4064b4:	jne    0x4064b6
  4064b6:	add    BYTE PTR fs:[ecx+0x0],ch
  4064ba:	outs   dx,DWORD PTR ds:[esi]
  4064bb:	add    BYTE PTR [esi+0x32002000],ch
  4064c1:	add    BYTE PTR [eax],dh
  4064c3:	add    BYTE PTR [ecx],dh
  4064c5:	add    BYTE PTR [edx],dh
  4064c7:	add    BYTE PTR [eax],al
  4064c9:	add    BYTE PTR [eax],al
  4064cb:	add    BYTE PTR [eax+0x0],al
  4064ce:	or     eax,0x50000100
  4064d3:	add    BYTE PTR [edx+0x0],dh
  4064d6:	outs   dx,DWORD PTR ds:[esi]
  4064d7:	add    BYTE PTR [eax+eax*1+0x75],ah
  4064db:	add    BYTE PTR [ebx+0x0],ah
  4064de:	je     0x4064e0
  4064e0:	push   esi
  4064e1:	add    BYTE PTR [ebp+0x0],ah
  4064e4:	jb     0x4064e6
  4064e6:	jae    0x4064e8
  4064e8:	imul   eax,DWORD PTR [eax],0x6e006f
  4064ee:	add    BYTE PTR [eax],al
  4064f0:	xor    DWORD PTR [eax],eax
  4064f2:	xor    DWORD PTR [eax],eax
  4064f4:	add    BYTE PTR cs:[eax],dh
  4064f7:	add    BYTE PTR [esi],ch
  4064f9:	add    BYTE PTR ds:0x37003000,dh
  4064ff:	add    BYTE PTR [edx],dh
  406501:	add    BYTE PTR [edi],dh
  406503:	add    BYTE PTR [esi],ch
  406505:	add    BYTE PTR [ecx],dh
  406507:	add    BYTE PTR [eax],al
  406509:	add    BYTE PTR [eax],al
  40650b:	add    BYTE PTR [eax+eax*1],bh
  40650e:	or     DWORD PTR [eax],eax
  406510:	add    DWORD PTR [eax],eax
  406512:	inc    ecx
  406513:	add    BYTE PTR [ebx+0x0],dh
  406516:	jae    0x406518
  406518:	add    BYTE PTR gs:[ebp+0x0],ch
  40651c:	bound  eax,QWORD PTR [eax]
  40651e:	ins    BYTE PTR es:[edi],dx
  40651f:	add    BYTE PTR [ecx+0x0],bh
  406522:	and    BYTE PTR [eax],al
  406524:	push   esi
  406525:	add    BYTE PTR [ebp+0x0],ah
  406528:	jb     0x40652a
  40652a:	jae    0x40652c
  40652c:	imul   eax,DWORD PTR [eax],0x6e006f
  406532:	add    BYTE PTR [eax],al
  406534:	xor    DWORD PTR [eax],eax
  406536:	xor    DWORD PTR [eax],eax
  406538:	add    BYTE PTR cs:[eax],dh
  40653b:	add    BYTE PTR [esi],ch
  40653d:	add    BYTE PTR [eax],dh
  40653f:	add    BYTE PTR [esi],ch
  406541:	add    BYTE PTR [eax],dh
  406543:	add    BYTE PTR [eax],al
  406545:	add    BYTE PTR [eax],al
  406547:	add    bh,ch
  406549:	mov    ebx,0x783f3cbf
  40654e:	ins    DWORD PTR es:[edi],dx
  40654f:	ins    BYTE PTR es:[edi],dx
  406550:	and    BYTE PTR [esi+0x65],dh
  406553:	jb     0x4065c8
  406555:	imul   ebp,DWORD PTR [edi+0x6e],0x2e31223d
  40655c:	xor    BYTE PTR [edx],ah
  40655e:	and    BYTE PTR [ebp+0x6e],ah
  406561:	arpl   WORD PTR [edi+0x64],bp
  406564:	imul   ebp,DWORD PTR [esi+0x67],0x5455223d
  40656b:	inc    esi
  40656c:	sub    eax,0x73202238
  406571:	je     0x4065d4
  406573:	outs   dx,BYTE PTR ds:[esi]
  406574:	fs popa 
  406576:	ins    BYTE PTR es:[edi],dx
  406577:	outs   dx,DWORD PTR ds:[esi]
  406578:	outs   dx,BYTE PTR ds:[esi]
  406579:	gs cmp eax,0x73657922
  40657f:	and    bh,BYTE PTR [edi]
  406581:	ds or  eax,0x73613c0a
  406587:	jae    0x4065ee
  406589:	ins    DWORD PTR es:[edi],dx
  40658a:	bound  ebp,QWORD PTR [ecx+edi*2+0x20]
  40658e:	js     0x4065fd
  406590:	ins    BYTE PTR es:[edi],dx
  406591:	outs   dx,BYTE PTR ds:[esi]
  406592:	jae    0x4065d1
  406594:	and    dh,BYTE PTR [ebp+0x72]
  406597:	outs   dx,BYTE PTR ds:[esi]
  406598:	cmp    dh,BYTE PTR [ebx+0x63]
  40659b:	push   0x73616d65
  4065a0:	sub    eax,0x7263696d
  4065a5:	outs   dx,DWORD PTR ds:[esi]
  4065a6:	jae    0x406617
  4065a8:	data16 je 0x4065d8
  4065ab:	arpl   WORD PTR [edi+0x6d],bp
  4065ae:	cmp    ah,BYTE PTR [ecx+0x73]
  4065b1:	ins    DWORD PTR es:[edi],dx
  4065b2:	cs jbe 0x4065e6
  4065b5:	and    ah,BYTE PTR [eax]
  4065b7:	ins    DWORD PTR es:[edi],dx
  4065b8:	popa   
  4065b9:	outs   dx,BYTE PTR ds:[esi]
  4065ba:	imul   esp,DWORD PTR [esi+0x65],0x65567473
  4065c1:	jb     0x406636
  4065c3:	imul   ebp,DWORD PTR [edi+0x6e],0x2e31223d
  4065ca:	xor    BYTE PTR [edx],ah
  4065cc:	ds or  eax,0x3c20200a
  4065d2:	popa   
  4065d3:	jae    0x406648
  4065d5:	gs ins DWORD PTR es:[edi],dx
  4065d7:	bound  ebp,QWORD PTR [ecx+edi*2+0x49]
  4065db:	fs outs dx,BYTE PTR gs:[esi]
  4065de:	je     0x406649
  4065e0:	je     0x40665b
  4065e2:	and    BYTE PTR [esi+0x65],dh
  4065e5:	jb     0x40665a
  4065e7:	imul   ebp,DWORD PTR [edi+0x6e],0x2e31223d
  4065ee:	xor    BYTE PTR [esi],ch
  4065f0:	xor    BYTE PTR [esi],ch
  4065f2:	xor    BYTE PTR [edx],ah
  4065f4:	and    BYTE PTR [esi+0x61],ch
  4065f7:	ins    DWORD PTR es:[edi],dx
  4065f8:	gs cmp eax,0x41794d22
  4065fe:	jo     0x406670
  406600:	ins    BYTE PTR es:[edi],dx
  406601:	imul   esp,DWORD PTR [ebx+0x61],0x6e6f6974
  406608:	cs popa 
  40660a:	jo     0x40667c
  40660c:	and    ch,BYTE PTR [edi]
  40660e:	ds or  eax,0x3c20200a
  406614:	je     0x406688
  406616:	jne    0x40668b
  406618:	je     0x406663
  40661a:	outs   dx,BYTE PTR ds:[esi]
  40661b:	outs   dx,WORD PTR ds:[esi]
  40661d:	and    BYTE PTR [eax+0x6d],bh
  406620:	ins    BYTE PTR es:[edi],dx
  406621:	outs   dx,BYTE PTR ds:[esi]
  406622:	jae    0x406661
  406624:	and    dh,BYTE PTR [ebp+0x72]
  406627:	outs   dx,BYTE PTR ds:[esi]
  406628:	cmp    dh,BYTE PTR [ebx+0x63]
  40662b:	push   0x73616d65
  406630:	sub    eax,0x7263696d
  406635:	outs   dx,DWORD PTR ds:[esi]
  406636:	jae    0x4066a7
  406638:	data16 je 0x406668
  40663b:	arpl   WORD PTR [edi+0x6d],bp
  40663e:	cmp    ah,BYTE PTR [ecx+0x73]
  406641:	ins    DWORD PTR es:[edi],dx
  406642:	cs jbe 0x406677
  406645:	and    bh,BYTE PTR [esi]
  406647:	or     eax,0x2020200a
  40664c:	and    BYTE PTR [ebx+esi*2],bh
  40664f:	arpl   WORD PTR gs:[ebp+0x72],si
  406653:	imul   esi,DWORD PTR [ecx+edi*2+0x3e],0x20200a0d
  40665b:	and    BYTE PTR [eax],ah
  40665d:	and    BYTE PTR [eax],ah
  40665f:	cmp    al,0x72
  406661:	gs jno 0x4066d9
  406664:	gs jae 0x4066db
  406667:	gs fs push eax
  40666a:	jb     0x4066d5
  40666c:	jbe    0x4066d7
  40666e:	ins    BYTE PTR es:[edi],dx
  40666f:	gs addr16 gs jae 0x406694
  406674:	js     0x4066e3
  406676:	ins    BYTE PTR es:[edi],dx
  406677:	outs   dx,BYTE PTR ds:[esi]
  406678:	jae    0x4066b7
  40667a:	and    dh,BYTE PTR [ebp+0x72]
  40667d:	outs   dx,BYTE PTR ds:[esi]
  40667e:	cmp    dh,BYTE PTR [ebx+0x63]
  406681:	push   0x73616d65
  406686:	sub    eax,0x7263696d
  40668b:	outs   dx,DWORD PTR ds:[esi]
  40668c:	jae    0x4066fd
  40668e:	data16 je 0x4066be
  406691:	arpl   WORD PTR [edi+0x6d],bp
  406694:	cmp    ah,BYTE PTR [ecx+0x73]
  406697:	ins    DWORD PTR es:[edi],dx
  406698:	cs jbe 0x4066ce
  40669b:	and    bh,BYTE PTR [esi]
  40669d:	or     eax,0x2020200a
  4066a2:	and    BYTE PTR [eax],ah
  4066a4:	and    BYTE PTR [eax],ah
  4066a6:	and    BYTE PTR [edx+esi*2],bh
  4066a9:	gs jno 0x406721
  4066ac:	gs jae 0x406723
  4066af:	gs fs inc ebp
  4066b2:	js     0x406719
  4066b4:	arpl   WORD PTR [ebp+0x74],si
  4066b7:	imul   ebp,DWORD PTR [edi+0x6e],0x6576654c
  4066be:	ins    BYTE PTR es:[edi],dx
  4066bf:	and    BYTE PTR [ebp+eiz*2+0x76],ch
  4066c3:	gs ins BYTE PTR es:[edi],dx
  4066c5:	cmp    eax,0x49736122
  4066ca:	outs   dx,BYTE PTR ds:[esi]
  4066cb:	jbe    0x40673c
  4066cd:	imul   esp,DWORD PTR [ebp+0x72],0x22
  4066d1:	and    BYTE PTR [ebp+0x69],dh
  4066d4:	inc    ecx
  4066d5:	arpl   WORD PTR [ebx+0x65],sp
  4066d8:	jae    0x40674d
  4066da:	cmp    eax,0x6c616622
  4066df:	jae    0x406746
  4066e1:	and    ch,BYTE PTR [edi]
  4066e3:	ds or  eax,0x2020200a
  4066e9:	and    BYTE PTR [eax],ah
  4066eb:	and    BYTE PTR [edi+ebp*1],bh
  4066ee:	jb     0x406755
  4066f0:	jno    0x406767
  4066f2:	gs jae 0x406769
  4066f5:	gs fs push eax
  4066f8:	jb     0x406763
  4066fa:	jbe    0x406765
  4066fc:	ins    BYTE PTR es:[edi],dx
  4066fd:	gs addr16 gs jae 0x406740
  406702:	or     eax,0x2020200a
  406707:	and    BYTE PTR [edi+ebp*1],bh
  40670a:	jae    0x406771
  40670c:	arpl   WORD PTR [ebp+0x72],si
  40670f:	imul   esi,DWORD PTR [ecx+edi*2+0x3e],0x20200a0d
  406717:	cmp    al,0x2f
  406719:	je     0x40678d
  40671b:	jne    0x406790
  40671d:	je     0x406768
  40671f:	outs   dx,BYTE PTR ds:[esi]
  406720:	outs   dx,WORD PTR ds:[esi]
  406722:	ds or  eax,0x612f3c0a
  406728:	jae    0x40679d
  40672a:	gs ins DWORD PTR es:[edi],dx
  40672c:	bound  ebp,QWORD PTR [ecx+edi*2+0x3e]
  406730:	or     eax,0xa
  406735:	add    BYTE PTR [eax],al
	...

Disassembly of section .reloc:

00408000 <.reloc>:
  408000:	add    BYTE PTR [eax+0x0],dl
  408003:	add    BYTE PTR [eax+eax*1],cl
  408006:	add    BYTE PTR [eax],al
  408008:	inc    eax
  408009:	cmp    al,BYTE PTR [eax]
	...
