
4b4b883c0dc34f9d796e32532c3197090d09a4ac5094989a870e0370a8bd76d0.exe:     file format pei-i386


Disassembly of section .text:

00401000 <.text>:
  401000:	add    BYTE PTR [eax],al
  401002:	add    BYTE PTR [eax],al
  401004:	or     BYTE PTR [esi+0x40],0x0
  40100b:	add    BYTE PTR [eax],al
  40100d:	add    BYTE PTR [eax],al
  40100f:	add    BYTE PTR [eax+0x2000408d],dh
  401015:	xchg   ebx,eax
  401016:	inc    eax
  401017:	add    BYTE PTR [eax],al
  401019:	add    BYTE PTR [eax],al
  40101b:	add    BYTE PTR [eax-0x1fffffb1],ah
  401021:	push   0x0
  401023:	add    BYTE PTR [eax-0x7c],ah
  401026:	add    BYTE PTR [eax],al
  401028:	and    BYTE PTR [eax+eax*1+0x8c5000],cl
  40102f:	add    BYTE PTR [eax-0x7fffff73],dh
  401035:	mov    es,WORD PTR [eax]
  401037:	add    BYTE PTR [eax-0x6fffff70],al
  40103d:	nop
  40103e:	add    BYTE PTR [eax],al
  401040:	rcl    BYTE PTR [edx-0x6ce00000],1
  401046:	add    BYTE PTR [eax],al
  401048:	add    BYTE PTR [esi-0x69700000],dl
  40104e:	add    BYTE PTR [eax],al
  401050:	rcl    BYTE PTR [esi+0x0],0x0
	...
  40105f:	add    BYTE PTR [eax],dh
  401061:	mov    al,ds:0xa0800040
  401066:	inc    eax
  401067:	add    BYTE PTR [edi],bh
  401069:	add    BYTE PTR [eax],al
  40106b:	add    BYTE PTR ds:0x5300,ah
  401071:	add    BYTE PTR [eax],al
  401073:	add    BYTE PTR [ebx+0x0],dl
  401076:	add    BYTE PTR gs:[eax+eax*1+0x69],dl
  40107b:	add    BYTE PTR [ebp+0x0],ch
  40107e:	add    BYTE PTR gs:[edx+0x0],bl
  401082:	outs   dx,DWORD PTR ds:[esi]
  401083:	add    BYTE PTR [esi+0x0],ch
  401086:	add    BYTE PTR gs:[eax+0x0],dl
  40108a:	jb     0x40108c
  40108c:	imul   eax,DWORD PTR [eax],0x690076
  401092:	ins    BYTE PTR es:[edi],dx
  401093:	add    BYTE PTR [ebp+0x0],ah
  401096:	add    BYTE PTR [di+0x0],ah
  40109a:	add    BYTE PTR [eax],al
  40109c:	and    eax,0x7300
  4010a1:	add    BYTE PTR [eax],al
  4010a3:	add    BYTE PTR ds:0xa007300,ah
  4010a9:	add    BYTE PTR [edx],cl
  4010ab:	add    BYTE PTR [eax],al
  4010ad:	add    BYTE PTR [eax],al
  4010af:	add    BYTE PTR [esi],ch
  4010b1:	add    BYTE PTR ds:0x7500,ah
  4010b7:	add    BYTE PTR [edi],ch
  4010b9:	add    BYTE PTR [edi+0x0],ah
  4010bc:	add    BYTE PTR [eax],al
  4010be:	add    BYTE PTR [eax],al
  4010c0:	das    
  4010c1:	add    BYTE PTR [ebx+0x0],dh
  4010c4:	add    BYTE PTR [eax],al
  4010c6:	add    BYTE PTR [eax],al
  4010c8:	das    
  4010c9:	add    BYTE PTR [eax+eax*1+0x0],ch
  4010cd:	add    BYTE PTR [eax],al
  4010cf:	add    BYTE PTR [edi],ch
  4010d1:	add    BYTE PTR [edi],bh
  4010d3:	add    BYTE PTR [eax],al
  4010d5:	add    BYTE PTR [eax],al
  4010d7:	add    BYTE PTR [ecx-0x18d2ce75],dl
  4010dd:	out    0x46,al
  4010df:	dec    esp
  4010e0:	mov    ebp,0xdbe6bf04
  4010e5:	inc    ecx
  4010e6:	sub    al,0xf9
  4010e8:	out    dx,eax
  4010e9:	add    eax,DWORD PTR [eax]
  4010eb:	adc    BYTE PTR [edx],al
  4010ed:	and    DWORD PTR [edi],ebx
	...
  4010f7:	sub    dh,0x3
  4010fa:	add    BYTE PTR [eax],dl
  4010fc:	add    ah,BYTE PTR [ecx]
  4010fe:	pop    ds
	...
  401107:	sub    ah,0x3
  40110a:	add    BYTE PTR [eax],dl
  40110c:	add    ah,BYTE PTR [ecx]
  40110e:	pop    ds
	...
  401117:	sub    ch,0x3
  40111a:	add    BYTE PTR [eax],dl
  40111c:	add    ah,BYTE PTR [ecx]
  40111e:	pop    ds
	...
  401127:	and    BYTE PTR [ecx],0x4e
  40112a:	add    BYTE PTR [eax],dl
  40112c:	add    al,0x21
  40112e:	pop    ds
	...
  401137:	add    BYTE PTR [eax],0x0
  40113a:	add    BYTE PTR [eax],al
  40113c:	push   ebx
  40113d:	add    BYTE PTR [ecx+0x0],bh
  401140:	jae    0x401142
  401142:	je     0x401144
  401144:	add    BYTE PTR gs:[ebp+0x0],ch
  401148:	inc    esp
  401149:	add    BYTE PTR [ebp+0x0],ah
  40114c:	data16 add BYTE PTR [ecx+0x0],ah
  401150:	jne    0x401152
  401152:	ins    BYTE PTR es:[edi],dx
  401153:	add    BYTE PTR [eax+eax*1+0x54],dh
  401157:	add    BYTE PTR [ecx+0x0],ch
  40115a:	ins    DWORD PTR es:[edi],dx
  40115b:	add    BYTE PTR [ebp+0x0],ah
  40115e:	pop    edx
  40115f:	add    BYTE PTR [edi+0x0],ch
  401162:	outs   dx,BYTE PTR ds:[esi]
  401163:	add    BYTE PTR [ebp+0x0],ah
	...
  40116e:	add    BYTE PTR [eax],al
  401170:	pop    edi
  401171:	add    BYTE PTR [eax+eax*1+0x73],ah
  401175:	add    BYTE PTR [eax+eax*1+0x6f],dh
  401179:	add    BYTE PTR [esi+0x0],ah
  40117c:	data16 add BYTE PTR [eax],al
  40117f:	add    BYTE PTR [ebp+0x0],cl
  401182:	push   ebp
  401183:	add    BYTE PTR [ecx+0x0],cl
  401186:	pop    edi
  401187:	add    BYTE PTR [eax+eax*1+0x6c],al
  40118b:	add    BYTE PTR [eax+eax*1+0x0],dh
  40118f:	add    BYTE PTR [ebp+0x0],cl
  401192:	push   ebp
  401193:	add    BYTE PTR [ecx+0x0],cl
  401196:	pop    edi
  401197:	add    BYTE PTR [ebx+0x0],dl
  40119a:	je     0x40119c
  40119c:	add    BYTE PTR fs:[eax],al
  40119f:	add    BYTE PTR [ebx+0x0],dl
  4011a2:	je     0x4011a4
  4011a4:	add    BYTE PTR fs:[eax],al
  4011a7:	add    BYTE PTR [eax+eax*1+0x69],al
  4011ab:	add    BYTE PTR [ebx+0x0],dh
  4011ae:	jo     0x4011b0
  4011b0:	ins    BYTE PTR es:[edi],dx
  4011b1:	add    BYTE PTR [ecx+0x0],ah
  4011b4:	jns    0x4011b6
  4011b6:	add    BYTE PTR [eax],al
  4011b8:	dec    ebp
  4011b9:	add    BYTE PTR [ebp+0x0],dl
  4011bc:	dec    ecx
  4011bd:	add    BYTE PTR [edi+0x0],bl
  4011c0:	inc    esp
  4011c1:	add    BYTE PTR [ecx+0x0],ch
  4011c4:	jae    0x4011c6
  4011c6:	jo     0x4011c8
  4011c8:	ins    BYTE PTR es:[edi],dx
  4011c9:	add    BYTE PTR [ecx+0x0],ah
  4011cc:	jns    0x4011ce
  4011ce:	add    BYTE PTR [eax],al
  4011d0:	push   ebx
  4011d1:	add    BYTE PTR [edi+0x0],cl
  4011d4:	inc    esi
  4011d5:	add    BYTE PTR [eax+eax*1+0x57],dl
  4011d9:	add    BYTE PTR [ecx+0x0],al
  4011dc:	push   edx
  4011dd:	add    BYTE PTR [ebp+0x0],al
  4011e0:	pop    esp
  4011e1:	add    BYTE PTR [ebp+0x0],cl
  4011e4:	imul   eax,DWORD PTR [eax],0x720063
  4011ea:	outs   dx,DWORD PTR ds:[esi]
  4011eb:	add    BYTE PTR [ebx+0x0],dh
  4011ee:	outs   dx,DWORD PTR ds:[esi]
  4011ef:	add    BYTE PTR [esi+0x0],ah
  4011f2:	je     0x4011f4
  4011f4:	pop    esp
  4011f5:	add    BYTE PTR [edi+0x0],dl
  4011f8:	imul   eax,DWORD PTR [eax],0x64006e
  4011fe:	outs   dx,DWORD PTR ds:[esi]
  4011ff:	add    BYTE PTR [edi+0x0],dh
  401202:	jae    0x401204
  401204:	and    BYTE PTR [eax],al
  401206:	dec    esi
  401207:	add    BYTE PTR [eax+eax*1+0x5c],dl
  40120b:	add    BYTE PTR [ebx+0x0],al
  40120e:	jne    0x401210
  401210:	jb     0x401212
  401212:	jb     0x401214
  401214:	add    BYTE PTR gs:[esi+0x0],ch
  401218:	je     0x40121a
  40121a:	push   esi
  40121b:	add    BYTE PTR [ebp+0x0],ah
  40121e:	jb     0x401220
  401220:	jae    0x401222
  401222:	imul   eax,DWORD PTR [eax],0x6e006f
  401228:	pop    esp
  401229:	add    BYTE PTR [eax+eax*1+0x69],dl
  40122d:	add    BYTE PTR [ebp+0x0],ch
  401230:	add    BYTE PTR gs:[eax],ah
  401233:	add    BYTE PTR [edx+0x0],bl
  401236:	outs   dx,DWORD PTR ds:[esi]
  401237:	add    BYTE PTR [esi+0x0],ch
  40123a:	add    BYTE PTR gs:[ebx+0x0],dh
  40123e:	add    BYTE PTR [eax],al
  401240:	push   ebx
  401241:	add    BYTE PTR [ecx+0x0],bl
  401244:	push   ebx
  401245:	add    BYTE PTR [eax+eax*1+0x45],dl
  401249:	add    BYTE PTR [ebp+0x0],cl
  40124c:	pop    esp
  40124d:	add    BYTE PTR [ebx+0x0],al
  401250:	jne    0x401252
  401252:	jb     0x401254
  401254:	jb     0x401256
  401256:	add    BYTE PTR gs:[esi+0x0],ch
  40125a:	je     0x40125c
  40125c:	inc    ebx
  40125d:	add    BYTE PTR [edi+0x0],ch
  401260:	outs   dx,BYTE PTR ds:[esi]
  401261:	add    BYTE PTR [eax+eax*1+0x72],dh
  401265:	add    BYTE PTR [edi+0x0],ch
  401268:	ins    BYTE PTR es:[edi],dx
  401269:	add    BYTE PTR [ebx+0x0],dl
  40126c:	add    BYTE PTR gs:[eax+eax*1+0x5c],dh
  401271:	add    BYTE PTR [ebx+0x0],al
  401274:	outs   dx,DWORD PTR ds:[esi]
  401275:	add    BYTE PTR [esi+0x0],ch
  401278:	je     0x40127a
  40127a:	jb     0x40127c
  40127c:	outs   dx,DWORD PTR ds:[esi]
  40127d:	add    BYTE PTR [eax+eax*1+0x5c],ch
  401281:	add    BYTE PTR [eax+eax*1+0x69],dl
  401285:	add    BYTE PTR [ebp+0x0],ch
  401288:	add    BYTE PTR gs:[edx+0x0],bl
  40128c:	outs   dx,DWORD PTR ds:[esi]
  40128d:	add    BYTE PTR [esi+0x0],ch
  401290:	add    BYTE PTR gs:[ecx+0x0],cl
  401294:	outs   dx,BYTE PTR ds:[esi]
  401295:	add    BYTE PTR [esi+0x0],ah
  401298:	outs   dx,DWORD PTR ds:[esi]
  401299:	add    BYTE PTR [edx+0x0],dh
  40129c:	ins    DWORD PTR es:[edi],dx
  40129d:	add    BYTE PTR [ecx+0x0],ah
  4012a0:	je     0x4012a2
  4012a2:	imul   eax,DWORD PTR [eax],0x6e006f
  4012a8:	add    BYTE PTR [eax],al
  4012aa:	add    BYTE PTR [eax],al
  4012ac:	push   esp
  4012ad:	add    BYTE PTR [edx+0x0],bl
  4012b0:	dec    ecx
  4012b1:	add    BYTE PTR [eax],al
  4012b3:	add    BYTE PTR [ecx+0x0],cl
  4012b6:	jae    0x4012b8
  4012b8:	dec    edi
  4012b9:	add    BYTE PTR [edx+0x0],ah
  4012bc:	jae    0x4012be
  4012be:	outs   dx,DWORD PTR ds:[esi]
  4012bf:	add    BYTE PTR [eax+eax*1+0x65],ch
  4012c3:	add    BYTE PTR [eax+eax*1+0x65],dh
  4012c7:	add    BYTE PTR [eax],al
  4012c9:	add    BYTE PTR [eax],al
  4012cb:	add    BYTE PTR [ecx+0x0],cl
  4012ce:	jae    0x4012d0
  4012d0:	inc    ebx
  4012d1:	add    BYTE PTR [ebp+0x0],dh
  4012d4:	jae    0x4012d6
  4012d6:	je     0x4012d8
  4012d8:	outs   dx,DWORD PTR ds:[esi]
  4012d9:	add    BYTE PTR [ebp+0x0],ch
  4012dc:	add    BYTE PTR [eax],al
  4012de:	add    BYTE PTR [eax],al
  4012e0:	inc    esp
  4012e1:	add    BYTE PTR [ecx+0x0],bh
  4012e4:	outs   dx,BYTE PTR ds:[esi]
  4012e5:	add    BYTE PTR [ecx+0x0],ah
  4012e8:	ins    DWORD PTR es:[edi],dx
  4012e9:	add    BYTE PTR [ecx+0x0],ch
  4012ec:	arpl   WORD PTR [eax],ax
  4012ee:	inc    esp
  4012ef:	add    BYTE PTR [ecx+0x0],ah
  4012f2:	jns    0x4012f4
  4012f4:	ins    BYTE PTR es:[edi],dx
  4012f5:	add    BYTE PTR [ecx+0x0],ch
  4012f8:	add    BYTE PTR [bx+si+0x0],ch
  4012fc:	je     0x4012fe
  4012fe:	push   esp
  4012ff:	add    BYTE PTR [ecx+0x0],ch
  401302:	ins    DWORD PTR es:[edi],dx
  401303:	add    BYTE PTR [ebp+0x0],ah
  401306:	inc    esp
  401307:	add    BYTE PTR [ecx+0x0],ch
  40130a:	jae    0x40130c
  40130c:	popa   
  40130d:	add    BYTE PTR [edx+0x0],ah
  401310:	ins    BYTE PTR es:[edi],dx
  401311:	add    BYTE PTR [ebp+0x0],ah
  401314:	add    BYTE PTR fs:[eax],al
  401317:	add    BYTE PTR [ebx+0x0],dl
  40131a:	push   esp
  40131b:	add    BYTE PTR [eax+eax*1+0x0],al
  40131f:	add    BYTE PTR [eax+eax*1+0x4c],al
  401323:	add    BYTE PTR [eax+eax*1+0x0],dl
  401327:	add    BYTE PTR [esi+0x0],al
  40132a:	imul   eax,DWORD PTR [eax],0x730072
  401330:	je     0x401332
  401332:	inc    ebp
  401333:	add    BYTE PTR [esi+0x0],ch
  401336:	je     0x401338
  401338:	jb     0x40133a
  40133a:	jns    0x40133c
  40133c:	add    BYTE PTR [eax],al
  40133e:	add    BYTE PTR [eax],al
  401340:	dec    esp
  401341:	add    BYTE PTR [ecx+0x0],ah
  401344:	jae    0x401346
  401346:	je     0x401348
  401348:	inc    ebp
  401349:	add    BYTE PTR [esi+0x0],ch
  40134c:	je     0x40134e
  40134e:	jb     0x401350
  401350:	jns    0x401352
  401352:	add    BYTE PTR [eax],al
  401354:	inc    esp
  401355:	add    BYTE PTR [ecx+0x0],bh
  401358:	outs   dx,BYTE PTR ds:[esi]
  401359:	add    BYTE PTR [ecx+0x0],ah
  40135c:	ins    DWORD PTR es:[edi],dx
  40135d:	add    BYTE PTR [ecx+0x0],ch
  401360:	arpl   WORD PTR [eax],ax
  401362:	and    BYTE PTR [eax],al
  401364:	inc    esp
  401365:	add    BYTE PTR [ebx+0x0],dl
  401368:	push   esp
  401369:	add    BYTE PTR [eax],al
  40136b:	add    BYTE PTR [eax],al
  40136d:	add    BYTE PTR [eax],al
  40136f:	add    BYTE PTR [eax+eax*1+0x74],bl
  401373:	add    BYTE PTR [edx+0x0],bh
  401376:	jb     0x401378
  401378:	add    BYTE PTR gs:[ebx+0x0],dh
  40137c:	add    BYTE PTR cs:[eax+eax*1+0x6c],ah
  401381:	add    BYTE PTR [eax+eax*1+0x0],ch
  401385:	add    BYTE PTR [eax],al
  401387:	add    BYTE PTR [eax+0x0],al
  40138a:	je     0x40138c
  40138c:	jp     0x40138e
  40138e:	jb     0x401390
  401390:	add    BYTE PTR gs:[ebx+0x0],dh
  401394:	add    BYTE PTR cs:[eax+eax*1+0x6c],ah
  401399:	add    BYTE PTR [eax+eax*1+0x2c],ch
  40139d:	add    BYTE PTR [eax],al
  40139f:	add    BYTE PTR [eax],al
  4013a1:	add    BYTE PTR [eax],al
  4013a3:	add    BYTE PTR [edi],bl
  4013a5:	add    BYTE PTR [eax],al
  4013a7:	add    BYTE PTR [eax+eax*1],bh
  4013aa:	add    BYTE PTR [eax],al
  4013ac:	pop    ebx
  4013ad:	add    BYTE PTR [eax],al
  4013af:	add    BYTE PTR [ecx+0x0],bh
  4013b2:	add    BYTE PTR [eax],al
  4013b4:	cwde   
  4013b5:	add    BYTE PTR [eax],al
  4013b7:	add    BYTE PTR [esi-0x2b000000],dh
  4013bd:	add    BYTE PTR [eax],al
  4013bf:	add    ah,dh
  4013c1:	add    BYTE PTR [eax],al
  4013c3:	add    BYTE PTR [edx],dl
  4013c5:	add    DWORD PTR [eax],eax
  4013c7:	add    BYTE PTR [ecx],dh
  4013c9:	add    DWORD PTR [eax],eax
  4013cb:	add    BYTE PTR [edi+0x1],cl
  4013ce:	add    BYTE PTR [eax],al
  4013d0:	outs   dx,BYTE PTR ds:[esi]
  4013d1:	add    DWORD PTR [eax],eax
  4013d3:	add    BYTE PTR [eax],al
  4013d5:	add    BYTE PTR [eax],al
  4013d7:	add    BYTE PTR [edi],bl
  4013d9:	add    BYTE PTR [eax],al
  4013db:	add    BYTE PTR [ebx],bh
  4013dd:	add    BYTE PTR [eax],al
  4013df:	add    BYTE PTR [edx+0x0],bl
  4013e2:	add    BYTE PTR [eax],al
  4013e4:	js     0x4013e6
  4013e6:	add    BYTE PTR [eax],al
  4013e8:	xchg   edi,eax
  4013e9:	add    BYTE PTR [eax],al
  4013eb:	add    BYTE PTR [ebp-0x2c000000],dh
  4013f1:	add    BYTE PTR [eax],al
  4013f3:	add    bl,dh
  4013f5:	add    BYTE PTR [eax],al
  4013f7:	add    BYTE PTR [ecx],dl
  4013f9:	add    DWORD PTR [eax],eax
  4013fb:	add    BYTE PTR [eax],dh
  4013fd:	add    DWORD PTR [eax],eax
  4013ff:	add    BYTE PTR [esi+0x1],cl
  401402:	add    BYTE PTR [eax],al
  401404:	ins    DWORD PTR es:[edi],dx
  401405:	add    DWORD PTR [eax],eax
  401407:	add    BYTE PTR [ebx+0x0],dh
  40140a:	jb     0x40140c
  40140c:	sub    eax,0x61004c00
  401411:	add    BYTE PTR [eax+eax*1+0x6e],dh
  401415:	add    BYTE PTR ds:0x53004300,ch
  40141b:	add    BYTE PTR [eax],al
  40141d:	add    BYTE PTR [eax],al
  40141f:	add    BYTE PTR [ebx+0x0],dh
  401422:	jb     0x401424
  401424:	sub    eax,0x50005300
  401429:	add    BYTE PTR ds:0x61004c00,ch
  40142f:	add    BYTE PTR [eax+eax*1+0x6e],dh
  401433:	add    BYTE PTR [eax],al
  401435:	add    BYTE PTR [eax],al
  401437:	add    BYTE PTR [ebx+0x0],dh
  40143a:	jb     0x40143c
  40143c:	sub    eax,0x79004300
  401441:	add    BYTE PTR [edx+0x0],dh
  401444:	ins    BYTE PTR es:[edi],dx
  401445:	add    BYTE PTR ds:0x53004300,ch
  40144b:	add    BYTE PTR [eax],al
  40144d:	add    BYTE PTR [eax],al
  40144f:	add    BYTE PTR [ebx+0x0],dh
  401452:	jb     0x401454
  401454:	sub    eax,0x50005300
  401459:	add    BYTE PTR ds:0x79004300,ch
  40145f:	add    BYTE PTR [edx+0x0],dh
  401462:	ins    BYTE PTR es:[edi],dx
  401463:	add    BYTE PTR [eax],al
  401465:	add    BYTE PTR [eax],al
  401467:	add    BYTE PTR [ebx+0x0],dh
  40146a:	jb     0x40146c
  40146c:	sub    eax,0x61004c00
  401471:	add    BYTE PTR [eax+eax*1+0x6e],dh
  401475:	add    BYTE PTR ds:0x41004200,ch
  40147b:	add    BYTE PTR [eax],al
  40147d:	add    BYTE PTR [eax],al
  40147f:	add    BYTE PTR [ebx+0x0],dh
  401482:	jb     0x401484
  401484:	sub    eax,0x41004200
  401489:	add    BYTE PTR ds:0x61004c00,ch
  40148f:	add    BYTE PTR [eax+eax*1+0x6e],dh
  401493:	add    BYTE PTR [eax],al
  401495:	add    BYTE PTR [eax],al
  401497:	add    BYTE PTR [ebx+0x0],dh
  40149a:	jb     0x40149c
  40149c:	sub    eax,0x79004300
  4014a1:	add    BYTE PTR [edx+0x0],dh
  4014a4:	ins    BYTE PTR es:[edi],dx
  4014a5:	add    BYTE PTR ds:0x41004200,ch
  4014ab:	add    BYTE PTR [eax],al
  4014ad:	add    BYTE PTR [eax],al
  4014af:	add    BYTE PTR [ebx+0x0],dh
  4014b2:	jb     0x4014b4
  4014b4:	sub    eax,0x41004200
  4014b9:	add    BYTE PTR ds:0x79004300,ch
  4014bf:	add    BYTE PTR [edx+0x0],dh
  4014c2:	ins    BYTE PTR es:[edi],dx
	...
  4014cb:	add    BYTE PTR [ecx+0x0],ch
  4014ce:	jne    0x4014d0
  4014d0:	sub    eax,0x61004c00
  4014d5:	add    BYTE PTR [eax+eax*1+0x6e],dh
  4014d9:	add    BYTE PTR ds:0x41004300,ch
  4014df:	add    BYTE PTR [eax],al
  4014e1:	add    BYTE PTR [eax],al
  4014e3:	add    BYTE PTR [ecx+0x0],ch
  4014e6:	jne    0x4014e8
  4014e8:	sub    eax,0x41004300
  4014ed:	add    BYTE PTR ds:0x61004c00,ch
  4014f3:	add    BYTE PTR [eax+eax*1+0x6e],dh
  4014f7:	add    BYTE PTR [eax],al
  4014f9:	add    BYTE PTR [eax],al
  4014fb:	add    BYTE PTR [edx+0x0],ah
  4014fe:	jae    0x401500
  401500:	sub    eax,0x79004300
  401505:	add    BYTE PTR [edx+0x0],dh
  401508:	ins    BYTE PTR es:[edi],dx
  401509:	add    BYTE PTR ds:0x41004200,ch
  40150f:	add    BYTE PTR [eax],al
  401511:	add    BYTE PTR [eax],al
  401513:	add    BYTE PTR [edx+0x0],ah
  401516:	jae    0x401518
  401518:	sub    eax,0x41004200
  40151d:	add    BYTE PTR ds:0x79004300,ch
  401523:	add    BYTE PTR [edx+0x0],dh
  401526:	ins    BYTE PTR es:[edi],dx
  401527:	add    BYTE PTR [eax],al
  401529:	add    BYTE PTR [eax],al
  40152b:	add    BYTE PTR [edx+0x0],ah
  40152e:	jae    0x401530
  401530:	sub    eax,0x61004c00
  401535:	add    BYTE PTR [eax+eax*1+0x6e],dh
  401539:	add    BYTE PTR ds:0x41004200,ch
  40153f:	add    BYTE PTR [eax],al
  401541:	add    BYTE PTR [eax],al
  401543:	add    BYTE PTR [edx+0x0],ah
  401546:	jae    0x401548
  401548:	sub    eax,0x41004200
  40154d:	add    BYTE PTR ds:0x61004c00,ch
  401553:	add    BYTE PTR [eax+eax*1+0x6e],dh
  401557:	add    BYTE PTR [eax],al
  401559:	add    BYTE PTR [eax],al
  40155b:	add    BYTE PTR [edx+0x0],bh
  40155e:	push   0x48002d00
  401563:	add    BYTE PTR [ecx+0x0],ah
  401566:	outs   dx,BYTE PTR ds:[esi]
  401567:	add    BYTE PTR [eax+eax*1+0x0],dh
  40156b:	add    BYTE PTR [edx+0x0],bh
  40156e:	push   0x43002d00
  401573:	add    BYTE PTR [eax+0x0],cl
  401576:	push   esp
  401577:	add    BYTE PTR [eax],al
  401579:	add    BYTE PTR [eax],al
  40157b:	add    BYTE PTR [edx+0x0],bh
  40157e:	push   0x48002d00
  401583:	add    BYTE PTR [ecx+0x0],ah
  401586:	outs   dx,BYTE PTR ds:[esi]
  401587:	add    BYTE PTR [ebx+0x0],dh
  40158a:	add    BYTE PTR [eax],al
  40158c:	jp     0x40158e
  40158e:	push   0x43002d00
  401593:	add    BYTE PTR [eax+0x0],cl
  401596:	push   ebx
  401597:	add    BYTE PTR [eax],al
  401599:	add    BYTE PTR [eax],al
  40159b:	add    BYTE PTR [ebp+0x0],cl
  40159e:	push   ebp
  40159f:	add    BYTE PTR [ecx+0x0],cl
  4015a2:	add    BYTE PTR [eax],al
  4015a4:	and    eax,0x5c007300
  4015a9:	add    BYTE PTR ds:0x5c007300,ah
  4015af:	add    BYTE PTR ds:0x2e007300,ah
  4015b5:	add    BYTE PTR [ebp+0x0],ch
  4015b8:	jne    0x4015ba
  4015ba:	imul   eax,DWORD PTR [eax],0x0
  4015c0:	and    eax,0x5c007300
  4015c5:	add    BYTE PTR ds:0x2e007300,ah
  4015cb:	add    BYTE PTR [ebp+0x0],ch
  4015ce:	jne    0x4015d0
  4015d0:	imul   eax,DWORD PTR [eax],0x2e0000
  4015d6:	pop    esp
  4015d7:	add    BYTE PTR ds:0x5c007300,ah
  4015dd:	add    BYTE PTR ds:0x2e007300,ah
  4015e3:	add    BYTE PTR [ebp+0x0],ch
  4015e6:	jne    0x4015e8
  4015e8:	imul   eax,DWORD PTR [eax],0x2e0000
  4015ee:	pop    esp
  4015ef:	add    BYTE PTR ds:0x2e007300,ah
  4015f5:	add    BYTE PTR [ebp+0x0],ch
  4015f8:	jne    0x4015fa
  4015fa:	imul   eax,DWORD PTR [eax],0x0
  401600:	and    eax,0x5c007300
  401605:	add    BYTE PTR ds:0x7300,ah
  40160b:	add    BYTE PTR [eax],cl
  40160d:	adc    al,0x40
  40160f:	add    BYTE PTR [eax],ah
  401611:	adc    al,0x40
  401613:	add    BYTE PTR [eax],bh
  401615:	adc    al,0x40
  401617:	add    BYTE PTR [eax+0x14],dl
  40161a:	inc    eax
  40161b:	add    BYTE PTR [eax+0x14],ch
  40161e:	inc    eax
  40161f:	add    BYTE PTR [eax-0x67ffbfec],al
  401625:	adc    al,0x40
  401627:	add    BYTE PTR [eax-0x37ffbfec],dh
  40162d:	adc    al,0x40
  40162f:	add    al,cl
  401631:	adc    al,0x40
  401633:	add    ah,cl
  401635:	adc    al,0x40
  401637:	add    ah,ah
  401639:	adc    al,0x40
  40163b:	add    al,cl
  40163d:	adc    al,0x40
  40163f:	add    al,cl
  401641:	adc    al,0x40
	...
  401653:	add    al,dl
  401655:	push   ss
  401656:	inc    eax
	...
  40166f:	add    BYTE PTR [esi+edx*1],dh
  401672:	inc    eax
	...
  401697:	add    BYTE PTR [esi+edx*1],cl
  40169a:	inc    eax
	...
  4016b3:	add    BYTE PTR [eax+0x5c004016],bh
  4016b9:	adc    eax,0x156c0040
  4016be:	inc    eax
  4016bf:	add    BYTE PTR [ebp+edx*1+0x40],bh
  4016c3:	add    BYTE PTR [ebp+edx*1+0x14c80040],cl
  4016ca:	inc    eax
  4016cb:	add    al,cl
  4016cd:	adc    al,0x40
  4016cf:	add    ah,bh
  4016d1:	adc    al,0x40
  4016d3:	add    BYTE PTR [edx*1+0x152c0040],dl
  4016da:	inc    eax
  4016db:	add    BYTE PTR [ebp+edx*1+0x40],al
  4016df:	add    al,cl
  4016e1:	adc    al,0x40
  4016e3:	add    al,cl
  4016e5:	adc    al,0x40
  4016e7:	add    BYTE PTR [ecx+0x0],ah
  4016ea:	jb     0x4016ec
  4016ec:	add    BYTE PTR [eax],al
  4016ee:	add    BYTE PTR [eax],al
  4016f0:	bound  eax,QWORD PTR [eax]
  4016f2:	add    BYTE PTR [bx+si],al
  4016f5:	add    BYTE PTR [eax],al
  4016f7:	add    BYTE PTR [ebx+0x0],ah
  4016fa:	popa   
  4016fb:	add    BYTE PTR [eax],al
  4016fd:	add    BYTE PTR [eax],al
  4016ff:	add    BYTE PTR [ebx+0x0],ah
  401702:	jae    0x401704
  401704:	add    BYTE PTR [eax],al
  401706:	add    BYTE PTR [eax],al
  401708:	add    BYTE PTR fs:[ecx+0x0],ah
  40170c:	add    BYTE PTR [eax],al
  40170e:	add    BYTE PTR [eax],al
  401710:	add    BYTE PTR fs:[ebp+0x0],ah
  401714:	add    BYTE PTR [eax],al
  401716:	add    BYTE PTR [eax],al
  401718:	add    BYTE PTR gs:[eax+eax*1+0x0],ch
  40171d:	add    BYTE PTR [eax],al
  40171f:	add    BYTE PTR [ebp+0x0],ah
  401722:	outs   dx,BYTE PTR ds:[esi]
  401723:	add    BYTE PTR [eax],al
  401725:	add    BYTE PTR [eax],al
  401727:	add    BYTE PTR [ebp+0x0],ah
  40172a:	jae    0x40172c
  40172c:	add    BYTE PTR [eax],al
  40172e:	add    BYTE PTR [eax],al
  401730:	data16 add BYTE PTR [ecx+0x0],ch
  401734:	add    BYTE PTR [eax],al
  401736:	add    BYTE PTR [eax],al
  401738:	data16 add BYTE PTR [edx+0x0],dh
  40173c:	add    BYTE PTR [eax],al
  40173e:	add    BYTE PTR [eax],al
  401740:	push   0x6500
  401745:	add    BYTE PTR [eax],al
  401747:	add    BYTE PTR [eax+0x0],ch
  40174a:	jne    0x40174c
  40174c:	add    BYTE PTR [eax],al
  40174e:	add    BYTE PTR [eax],al
  401750:	imul   eax,DWORD PTR [eax],0x73
  401756:	add    BYTE PTR [eax],al
  401758:	imul   eax,DWORD PTR [eax],0x74
  40175e:	add    BYTE PTR [eax],al
  401760:	push   0x0
  401762:	popa   
  401763:	add    BYTE PTR [eax],al
  401765:	add    BYTE PTR [eax],al
  401767:	add    BYTE PTR [ebx+0x0],ch
  40176a:	outs   dx,DWORD PTR ds:[esi]
  40176b:	add    BYTE PTR [eax],al
  40176d:	add    BYTE PTR [eax],al
  40176f:	add    BYTE PTR [esi+0x0],ch
  401772:	ins    BYTE PTR es:[edi],dx
  401773:	add    BYTE PTR [eax],al
  401775:	add    BYTE PTR [eax],al
  401777:	add    BYTE PTR [esi+0x0],ch
  40177a:	outs   dx,DWORD PTR ds:[esi]
  40177b:	add    BYTE PTR [eax],al
  40177d:	add    BYTE PTR [eax],al
  40177f:	add    BYTE PTR [eax+0x0],dh
  401782:	ins    BYTE PTR es:[edi],dx
  401783:	add    BYTE PTR [eax],al
  401785:	add    BYTE PTR [eax],al
  401787:	add    BYTE PTR [eax+0x0],dh
  40178a:	je     0x40178c
  40178c:	add    BYTE PTR [eax],al
  40178e:	add    BYTE PTR [eax],al
  401790:	jb     0x401792
  401792:	ins    DWORD PTR es:[edi],dx
  401793:	add    BYTE PTR [eax],al
  401795:	add    BYTE PTR [eax],al
  401797:	add    BYTE PTR [edx+0x0],dh
  40179a:	outs   dx,DWORD PTR ds:[esi]
  40179b:	add    BYTE PTR [eax],al
  40179d:	add    BYTE PTR [eax],al
  40179f:	add    BYTE PTR [edx+0x0],dh
  4017a2:	jne    0x4017a4
  4017a4:	add    BYTE PTR [eax],al
  4017a6:	add    BYTE PTR [eax],al
  4017a8:	push   0x7200
  4017ad:	add    BYTE PTR [eax],al
  4017af:	add    BYTE PTR [ebx+0x0],dh
  4017b2:	imul   eax,DWORD PTR [eax],0x0
  4017b5:	add    BYTE PTR [eax],al
  4017b7:	add    BYTE PTR [ebx+0x0],dh
  4017ba:	jno    0x4017bc
  4017bc:	add    BYTE PTR [eax],al
  4017be:	add    BYTE PTR [eax],al
  4017c0:	jae    0x4017c2
  4017c2:	jbe    0x4017c4
  4017c4:	add    BYTE PTR [eax],al
  4017c6:	add    BYTE PTR [eax],al
  4017c8:	je     0x4017ca
  4017ca:	push   0x0
  4017cf:	add    BYTE PTR [eax+eax*1+0x72],dh
  4017d3:	add    BYTE PTR [eax],al
  4017d5:	add    BYTE PTR [eax],al
  4017d7:	add    BYTE PTR [ebp+0x0],dh
  4017da:	jb     0x4017dc
  4017dc:	add    BYTE PTR [eax],al
  4017de:	add    BYTE PTR [eax],al
  4017e0:	imul   eax,DWORD PTR [eax],0x64
  4017e6:	add    BYTE PTR [eax],al
  4017e8:	jne    0x4017ea
  4017ea:	imul   eax,DWORD PTR [eax],0x0
  4017ed:	add    BYTE PTR [eax],al
  4017ef:	add    BYTE PTR [edx+0x0],ah
  4017f2:	add    BYTE PTR gs:[eax],al
  4017f5:	add    BYTE PTR [eax],al
  4017f7:	add    BYTE PTR [ebx+0x0],dh
  4017fa:	ins    BYTE PTR es:[edi],dx
  4017fb:	add    BYTE PTR [eax],al
  4017fd:	add    BYTE PTR [eax],al
  4017ff:	add    BYTE PTR [ebp+0x0],ah
  401802:	je     0x401804
  401804:	add    BYTE PTR [eax],al
  401806:	add    BYTE PTR [eax],al
  401808:	ins    BYTE PTR es:[edi],dx
  401809:	add    BYTE PTR [esi+0x0],dh
  40180c:	add    BYTE PTR [eax],al
  40180e:	add    BYTE PTR [eax],al
  401810:	ins    BYTE PTR es:[edi],dx
  401811:	add    BYTE PTR [eax+eax*1+0x0],dh
  401815:	add    BYTE PTR [eax],al
  401817:	add    BYTE PTR [eax+eax*1+0x67],dh
  40181b:	add    BYTE PTR [eax],al
  40181d:	add    BYTE PTR [eax],al
  40181f:	add    BYTE PTR [esi+0x0],ah
  401822:	popa   
  401823:	add    BYTE PTR [eax],al
  401825:	add    BYTE PTR [eax],al
  401827:	add    BYTE PTR [esi+0x0],dh
  40182a:	imul   eax,DWORD PTR [eax],0x0
  401830:	push   0x7900
  401835:	add    BYTE PTR [eax],al
  401837:	add    BYTE PTR [ecx+0x0],ah
  40183a:	jp     0x40183c
  40183c:	add    BYTE PTR [eax],al
  40183e:	add    BYTE PTR [eax],al
  401840:	add    BYTE PTR gs:[ebp+0x0],dh
  401844:	add    BYTE PTR [eax],al
  401846:	add    BYTE PTR [eax],al
  401848:	push   0x62007300
  40184d:	add    BYTE PTR [eax],al
  40184f:	add    BYTE PTR [ebp+0x0],ch
  401852:	imul   eax,DWORD PTR [eax],0x0
  401855:	add    BYTE PTR [eax],al
  401857:	add    BYTE PTR [ebx+0x0],dh
  40185a:	je     0x40185c
  40185c:	add    BYTE PTR [eax],al
  40185e:	add    BYTE PTR [eax],al
  401860:	je     0x401862
  401862:	jae    0x401864
  401864:	add    BYTE PTR [eax],al
  401866:	add    BYTE PTR [eax],al
  401868:	je     0x40186a
  40186a:	outs   dx,BYTE PTR ds:[esi]
  40186b:	add    BYTE PTR [eax],al
  40186d:	add    BYTE PTR [eax],al
  40186f:	add    BYTE PTR [esi+0x0],dh
  401872:	add    BYTE PTR gs:[eax],al
  401875:	add    BYTE PTR [eax],al
  401877:	add    BYTE PTR [eax+0x0],bh
  40187a:	push   0x0
  40187f:	add    BYTE PTR [edx+0x0],bh
  401882:	jne    0x401884
  401884:	add    BYTE PTR [eax],al
  401886:	add    BYTE PTR [eax],al
  401888:	popa   
  401889:	add    BYTE PTR [esi+0x0],ah
  40188c:	add    BYTE PTR [eax],al
  40188e:	add    BYTE PTR [eax],al
  401890:	imul   eax,DWORD PTR [eax],0x61
  401893:	add    BYTE PTR [eax],al
  401895:	add    BYTE PTR [eax],al
  401897:	add    BYTE PTR [esi+0x0],ah
  40189a:	outs   dx,DWORD PTR ds:[esi]
  40189b:	add    BYTE PTR [eax],al
  40189d:	add    BYTE PTR [eax],al
  40189f:	add    BYTE PTR [eax+0x0],ch
  4018a2:	imul   eax,DWORD PTR [eax],0x0
  4018a8:	ins    DWORD PTR es:[edi],dx
  4018a9:	add    BYTE PTR [eax+eax*1+0x0],dh
  4018ad:	add    BYTE PTR [eax],al
  4018af:	add    BYTE PTR [ebx+0x0],dh
  4018b2:	add    BYTE PTR gs:[eax],al
  4018b5:	add    BYTE PTR [eax],al
  4018b7:	add    BYTE PTR [edi+0x0],ah
  4018ba:	popa   
  4018bb:	add    BYTE PTR [eax],al
  4018bd:	add    BYTE PTR [eax],al
  4018bf:	add    BYTE PTR [ebp+0x0],ch
  4018c2:	jae    0x4018c4
  4018c4:	add    BYTE PTR [eax],al
  4018c6:	add    BYTE PTR [eax],al
  4018c8:	imul   eax,DWORD PTR [eax],0x6b
  4018cb:	add    BYTE PTR [eax],al
  4018cd:	add    BYTE PTR [eax],al
  4018cf:	add    BYTE PTR [ebx+0x0],ch
  4018d2:	jns    0x4018d4
  4018d4:	add    BYTE PTR [eax],al
  4018d6:	add    BYTE PTR [eax],al
  4018d8:	jae    0x4018da
  4018da:	ja     0x4018dc
  4018dc:	add    BYTE PTR [eax],al
  4018de:	add    BYTE PTR [eax],al
  4018e0:	je     0x4018e2
  4018e2:	imul   eax,DWORD PTR [eax],0x0
  4018e5:	add    BYTE PTR [eax],al
  4018e7:	add    BYTE PTR [ebp+0x0],dh
  4018ea:	jp     0x4018ec
  4018ec:	add    BYTE PTR [eax],al
  4018ee:	add    BYTE PTR [eax],al
  4018f0:	je     0x4018f2
  4018f2:	je     0x4018f4
  4018f4:	add    BYTE PTR [eax],al
  4018f6:	add    BYTE PTR [eax],al
  4018f8:	bound  eax,QWORD PTR [eax]
  4018fa:	outs   dx,BYTE PTR ds:[esi]
  4018fb:	add    BYTE PTR [eax],al
  4018fd:	add    BYTE PTR [eax],al
  4018ff:	add    BYTE PTR [eax+0x0],dh
  401902:	popa   
  401903:	add    BYTE PTR [eax],al
  401905:	add    BYTE PTR [eax],al
  401907:	add    BYTE PTR [edi+0x0],ah
  40190a:	jne    0x40190c
  40190c:	add    BYTE PTR [eax],al
  40190e:	add    BYTE PTR [eax],al
  401910:	outs   dx,DWORD PTR ds:[esi]
  401911:	add    BYTE PTR [edx+0x0],dh
  401914:	add    BYTE PTR [eax],al
  401916:	add    BYTE PTR [eax],al
  401918:	je     0x40191a
  40191a:	popa   
  40191b:	add    BYTE PTR [eax],al
  40191d:	add    BYTE PTR [eax],al
  40191f:	add    BYTE PTR [eax+eax*1+0x65],dh
  401923:	add    BYTE PTR [eax],al
  401925:	add    BYTE PTR [eax],al
  401927:	add    BYTE PTR [ebx+0x0],ch
  40192a:	outs   dx,BYTE PTR ds:[esi]
  40192b:	add    BYTE PTR [eax],al
  40192d:	add    BYTE PTR [eax],al
  40192f:	add    BYTE PTR [ebp+0x0],ch
  401932:	ins    BYTE PTR es:[edi],dx
  401933:	add    BYTE PTR [eax],al
  401935:	add    BYTE PTR [eax],al
  401937:	add    BYTE PTR [ecx+0x0],ah
  40193a:	jae    0x40193c
  40193c:	add    BYTE PTR [eax],al
  40193e:	add    BYTE PTR [eax],al
  401940:	ins    DWORD PTR es:[edi],dx
  401941:	add    BYTE PTR [edx+0x0],dh
  401944:	add    BYTE PTR [eax],al
  401946:	add    BYTE PTR [eax],al
  401948:	jae    0x40194a
  40194a:	popa   
  40194b:	add    BYTE PTR [eax],al
  40194d:	add    BYTE PTR [eax],al
  40194f:	add    BYTE PTR [ebp+0x0],ch
  401952:	outs   dx,BYTE PTR ds:[esi]
  401953:	add    BYTE PTR [eax],al
  401955:	add    BYTE PTR [eax],al
  401957:	add    BYTE PTR [edx+0x0],ah
  40195a:	outs   dx,DWORD PTR ds:[esi]
  40195b:	add    BYTE PTR [eax],al
  40195d:	add    BYTE PTR [eax],al
  40195f:	add    BYTE PTR [ebx+0x0],ah
  401962:	jns    0x401964
  401964:	add    BYTE PTR [eax],al
  401966:	add    BYTE PTR [eax],al
  401968:	imul   eax,DWORD PTR [eax],0x6d
  40196b:	add    BYTE PTR [eax],al
  40196d:	add    BYTE PTR [eax],al
  40196f:	add    BYTE PTR [eax+eax*1+0x6f],ch
  401973:	add    BYTE PTR [eax],al
  401975:	add    BYTE PTR [eax],al
  401977:	add    BYTE PTR [ebp+0x0],ch
  40197a:	jns    0x40197c
  40197c:	add    BYTE PTR [eax],al
  40197e:	add    BYTE PTR [eax],al
  401980:	add    BYTE PTR [si+0x0],ch
  401984:	add    BYTE PTR [eax],al
  401986:	add    BYTE PTR [eax],al
  401988:	imul   eax,DWORD PTR [eax],0x6f
  40198b:	add    BYTE PTR [ebx+0x0],ch
  40198e:	add    BYTE PTR [eax],al
  401990:	jae    0x401992
  401992:	add    BYTE PTR fs:[eax],al
  401995:	add    BYTE PTR [eax],al
  401997:	add    BYTE PTR [ebx+0x0],dh
  40199a:	jns    0x40199c
  40199c:	jb     0x40199e
  40199e:	add    BYTE PTR [eax],al
  4019a0:	jae    0x4019a2
  4019a2:	imul   eax,DWORD PTR [eax],0x0
  4019a8:	arpl   WORD PTR [eax],ax
  4019aa:	push   0x7200
  4019af:	add    BYTE PTR [ecx+0x0],ch
  4019b2:	jne    0x4019b4
  4019b4:	add    BYTE PTR [eax],al
  4019b6:	add    BYTE PTR [eax],al
  4019b8:	popa   
  4019b9:	add    BYTE PTR [ebp+0x0],ch
  4019bc:	add    BYTE PTR [eax],al
  4019be:	add    BYTE PTR [eax],al
  4019c0:	je     0x4019c2
  4019c2:	jp     0x4019c4
  4019c4:	ins    DWORD PTR es:[edi],dx
  4019c5:	add    BYTE PTR [eax],al
  4019c7:	add    BYTE PTR [ebx+0x0],ch
  4019ca:	jae    0x4019cc
  4019cc:	add    BYTE PTR [eax],al
  4019ce:	add    BYTE PTR [eax],al
  4019d0:	outs   dx,BYTE PTR ds:[esi]
  4019d1:	add    BYTE PTR [ebp+0x0],ah
  4019d4:	add    BYTE PTR [eax],al
  4019d6:	add    BYTE PTR [eax],al
  4019d8:	data16 add BYTE PTR [ecx+0x0],bh
  4019dc:	add    BYTE PTR [eax],al
  4019de:	add    BYTE PTR [eax],al
  4019e0:	jo     0x4019e2
  4019e2:	jae    0x4019e4
  4019e4:	add    BYTE PTR [eax],al
  4019e6:	add    BYTE PTR [eax],al
  4019e8:	data16 add BYTE PTR [ecx+0x0],ch
  4019ec:	ins    BYTE PTR es:[edi],dx
  4019ed:	add    BYTE PTR [eax],al
  4019ef:	add    BYTE PTR [eax+eax*1+0x76],ah
  4019f3:	add    BYTE PTR [eax],al
  4019f5:	add    BYTE PTR [eax],al
  4019f7:	add    BYTE PTR [esi+0x0],ah
  4019fa:	data16 add BYTE PTR [eax],al
  4019fd:	add    BYTE PTR [eax],al
  4019ff:	add    BYTE PTR [eax+0x0],ch
  401a02:	popa   
  401a03:	add    BYTE PTR [eax],al
  401a05:	add    BYTE PTR [eax],al
  401a07:	add    BYTE PTR [ecx+0x0],bh
  401a0a:	outs   dx,DWORD PTR ds:[esi]
  401a0b:	add    BYTE PTR [eax],al
  401a0d:	add    BYTE PTR [eax],al
  401a0f:	add    BYTE PTR [ecx+0x0],dh
  401a12:	jne    0x401a14
  401a14:	jp     0x401a16
  401a16:	add    BYTE PTR [eax],al
  401a18:	outs   dx,BYTE PTR ds:[esi]
  401a19:	add    BYTE PTR [ebx+0x0],dh
  401a1c:	outs   dx,DWORD PTR ds:[esi]
  401a1d:	add    BYTE PTR [eax],al
  401a1f:	add    BYTE PTR [edx+0x0],ah
  401a22:	popa   
  401a23:	add    BYTE PTR [eax],al
  401a25:	add    BYTE PTR [eax],al
  401a27:	add    BYTE PTR [eax+eax*1+0x62],ch
  401a2b:	add    BYTE PTR [eax],al
  401a2d:	add    BYTE PTR [eax],al
  401a2f:	add    BYTE PTR [ebx+0x0],ch
  401a32:	ins    BYTE PTR es:[edi],dx
  401a33:	add    BYTE PTR [eax],al
  401a35:	add    BYTE PTR [eax],al
  401a37:	add    BYTE PTR [ecx+0x0],ch
  401a3a:	add    BYTE PTR [bx+si],al
  401a3d:	add    BYTE PTR [eax],al
  401a3f:	add    BYTE PTR [edi+0x0],ch
  401a42:	ins    DWORD PTR es:[edi],dx
  401a43:	add    BYTE PTR [eax],al
  401a45:	add    BYTE PTR [eax],al
  401a47:	add    BYTE PTR [eax+eax*1+0x69],dh
  401a4b:	add    BYTE PTR [eax],al
  401a4d:	add    BYTE PTR [eax],al
  401a4f:	add    BYTE PTR [edi+0x0],ah
  401a52:	outs   dx,BYTE PTR ds:[esi]
  401a53:	add    BYTE PTR [eax],al
  401a55:	add    BYTE PTR [eax],al
  401a57:	add    BYTE PTR [eax+0x0],ch
  401a5a:	popa   
  401a5b:	add    BYTE PTR [edi+0x0],dh
  401a5e:	add    BYTE PTR [eax],al
  401a60:	jae    0x401a62
  401a62:	outs   dx,DWORD PTR ds:[esi]
  401a63:	add    BYTE PTR [eax],al
  401a65:	add    BYTE PTR [eax],al
  401a67:	add    BYTE PTR [ecx+0x0],ch
  401a6a:	imul   eax,DWORD PTR [eax],0x0
  401a70:	popa   
  401a71:	add    BYTE PTR [edx+0x0],dh
  401a74:	outs   dx,BYTE PTR ds:[esi]
  401a75:	add    BYTE PTR [eax],al
  401a77:	add    BYTE PTR [ebp+0x0],ch
  401a7a:	outs   dx,DWORD PTR ds:[esi]
  401a7b:	add    BYTE PTR [eax+0x0],ch
  401a7e:	add    BYTE PTR [eax],al
  401a80:	bound  eax,QWORD PTR [eax]
  401a82:	jb     0x401a84
  401a84:	add    BYTE PTR [eax],al
  401a86:	add    BYTE PTR [eax],al
  401a88:	jne    0x401a8a
  401a8a:	add    BYTE PTR [bx+si],al
  401a8d:	add    BYTE PTR [eax],al
  401a8f:	add    BYTE PTR [ebp+0x0],ch
  401a92:	imul   eax,DWORD PTR [eax],0x0
  401a98:	outs   dx,DWORD PTR ds:[esi]
  401a99:	add    BYTE PTR [ebx+0x0],ah
  401a9c:	add    BYTE PTR [eax],al
  401a9e:	add    BYTE PTR [eax],al
  401aa0:	arpl   WORD PTR [eax],ax
  401aa2:	outs   dx,DWORD PTR ds:[esi]
  401aa3:	add    BYTE PTR [eax],al
  401aa5:	add    BYTE PTR [eax],al
  401aa7:	add    BYTE PTR [edi+0x0],ah
  401aaa:	jae    0x401aac
  401aac:	ja     0x401aae
  401aae:	add    BYTE PTR [eax],al
  401ab0:	jae    0x401ab2
  401ab2:	popa   
  401ab3:	add    BYTE PTR [eax+0x0],ch
  401ab6:	add    BYTE PTR [eax],al
  401ab8:	jno    0x401aba
  401aba:	jne    0x401abc
  401abc:	arpl   WORD PTR [eax],ax
  401abe:	add    BYTE PTR [eax],al
  401ac0:	jb     0x401ac2
  401ac2:	ja     0x401ac4
  401ac4:	add    BYTE PTR [eax],al
  401ac6:	add    BYTE PTR [eax],al
  401ac8:	ja     0x401aca
  401aca:	outs   dx,DWORD PTR ds:[esi]
  401acb:	add    BYTE PTR [eax],al
  401acd:	add    BYTE PTR [eax],al
  401acf:	add    BYTE PTR [eax+0x0],dh
  401ad2:	jb     0x401ad4
  401ad4:	jae    0x401ad6
  401ad6:	add    BYTE PTR [eax],al
  401ad8:	add    BYTE PTR [si+0x0],ah
  401adc:	add    BYTE PTR [eax],al
  401ade:	add    BYTE PTR [eax],al
  401ae0:	imul   eax,DWORD PTR [eax],0x75
  401ae3:	add    BYTE PTR [eax],al
  401ae5:	add    BYTE PTR [eax],al
  401ae7:	add    BYTE PTR [ecx+0x0],ah
  401aea:	jb     0x401aec
  401aec:	sub    eax,0x41005300
  401af1:	add    BYTE PTR [eax],al
  401af3:	add    BYTE PTR [edx+0x0],ah
  401af6:	add    BYTE PTR [di],ch
  401af9:	add    BYTE PTR [edx+0x0],al
  401afc:	inc    edi
  401afd:	add    BYTE PTR [eax],al
  401aff:	add    BYTE PTR [ebx+0x0],ah
  401b02:	popa   
  401b03:	add    BYTE PTR ds:0x53004500,ch
  401b09:	add    BYTE PTR [eax],al
  401b0b:	add    BYTE PTR [edx+0x0],bh
  401b0e:	push   0x54002d00
  401b13:	add    BYTE PTR [edi+0x0],dl
  401b16:	add    BYTE PTR [eax],al
  401b18:	arpl   WORD PTR [eax],ax
  401b1a:	jae    0x401b1c
  401b1c:	sub    eax,0x5a004300
  401b21:	add    BYTE PTR [eax],al
  401b23:	add    BYTE PTR [eax+eax*1+0x61],ah
  401b27:	add    BYTE PTR ds:0x4b004400,ch
  401b2d:	add    BYTE PTR [eax],al
  401b2f:	add    BYTE PTR [eax+eax*1+0x65],ah
  401b33:	add    BYTE PTR ds:0x45004400,ch
  401b39:	add    BYTE PTR [eax],al
  401b3b:	add    BYTE PTR [ebp+0x0],ah
  401b3e:	ins    BYTE PTR es:[edi],dx
  401b3f:	add    BYTE PTR ds:0x52004700,ch
  401b45:	add    BYTE PTR [eax],al
  401b47:	add    BYTE PTR [ebp+0x0],ah
  401b4a:	outs   dx,BYTE PTR ds:[esi]
  401b4b:	add    BYTE PTR ds:0x53005500,ch
  401b51:	add    BYTE PTR [eax],al
  401b53:	add    BYTE PTR [ebp+0x0],ah
  401b56:	jae    0x401b58
  401b58:	sub    eax,0x53004500
  401b5d:	add    BYTE PTR [edi+0x0],bl
  401b60:	je     0x401b62
  401b62:	jb     0x401b64
  401b64:	popa   
  401b65:	add    BYTE PTR [eax+eax*1+0x6e],ah
  401b69:	add    BYTE PTR [eax+eax*1+0x0],ch
  401b6d:	add    BYTE PTR [eax],al
  401b6f:	add    BYTE PTR [esi+0x0],ah
  401b72:	imul   eax,DWORD PTR [eax],0x46002d
  401b78:	dec    ecx
  401b79:	add    BYTE PTR [eax],al
  401b7b:	add    BYTE PTR [esi+0x0],ah
  401b7e:	jb     0x401b80
  401b80:	sub    eax,0x52004600
  401b85:	add    BYTE PTR [eax],al
  401b87:	add    BYTE PTR [eax+0x0],ch
  401b8a:	add    BYTE PTR gs:0x4c004900,ch
  401b91:	add    BYTE PTR [eax],al
  401b93:	add    BYTE PTR [eax+0x0],ch
  401b96:	jne    0x401b98
  401b98:	sub    eax,0x55004800
  401b9d:	add    BYTE PTR [eax],al
  401b9f:	add    BYTE PTR [ecx+0x0],ch
  401ba2:	jae    0x401ba4
  401ba4:	sub    eax,0x53004900
  401ba9:	add    BYTE PTR [eax],al
  401bab:	add    BYTE PTR [ecx+0x0],ch
  401bae:	je     0x401bb0
  401bb0:	sub    eax,0x54004900
  401bb5:	add    BYTE PTR [eax],al
  401bb7:	add    BYTE PTR [edx+0x0],ch
  401bba:	popa   
  401bbb:	add    BYTE PTR ds:0x50004a00,ch
  401bc1:	add    BYTE PTR [eax],al
  401bc3:	add    BYTE PTR [ebx+0x0],ch
  401bc6:	outs   dx,DWORD PTR ds:[esi]
  401bc7:	add    BYTE PTR ds:0x52004b00,ch
  401bcd:	add    BYTE PTR [eax],al
  401bcf:	add    BYTE PTR [esi+0x0],ch
  401bd2:	ins    BYTE PTR es:[edi],dx
  401bd3:	add    BYTE PTR ds:0x4c004e00,ch
  401bd9:	add    BYTE PTR [eax],al
  401bdb:	add    BYTE PTR [esi+0x0],ch
  401bde:	bound  eax,QWORD PTR [eax]
  401be0:	sub    eax,0x4f004e00
  401be5:	add    BYTE PTR [eax],al
  401be7:	add    BYTE PTR [eax+0x0],dh
  401bea:	ins    BYTE PTR es:[edi],dx
  401beb:	add    BYTE PTR ds:0x4c005000,ch
  401bf1:	add    BYTE PTR [eax],al
  401bf3:	add    BYTE PTR [eax+0x0],dh
  401bf6:	je     0x401bf8
  401bf8:	sub    eax,0x52004200
  401bfd:	add    BYTE PTR [eax],al
  401bff:	add    BYTE PTR [edx+0x0],dh
  401c02:	ins    DWORD PTR es:[edi],dx
  401c03:	add    BYTE PTR ds:0x48004300,ch
  401c09:	add    BYTE PTR [eax],al
  401c0b:	add    BYTE PTR [edx+0x0],dh
  401c0e:	outs   dx,DWORD PTR ds:[esi]
  401c0f:	add    BYTE PTR ds:0x4f005200,ch
  401c15:	add    BYTE PTR [eax],al
  401c17:	add    BYTE PTR [edx+0x0],dh
  401c1a:	jne    0x401c1c
  401c1c:	sub    eax,0x55005200
  401c21:	add    BYTE PTR [eax],al
  401c23:	add    BYTE PTR [eax+0x0],ch
  401c26:	jb     0x401c28
  401c28:	sub    eax,0x52004800
  401c2d:	add    BYTE PTR [eax],al
  401c2f:	add    BYTE PTR [ebx+0x0],dh
  401c32:	imul   eax,DWORD PTR [eax],0x2d
  401c35:	add    BYTE PTR [ebx+0x0],dl
  401c38:	dec    ebx
  401c39:	add    BYTE PTR [eax],al
  401c3b:	add    BYTE PTR [ebx+0x0],dh
  401c3e:	jno    0x401c40
  401c40:	sub    eax,0x4c004100
  401c45:	add    BYTE PTR [eax],al
  401c47:	add    BYTE PTR [ebx+0x0],dh
  401c4a:	jbe    0x401c4c
  401c4c:	sub    eax,0x45005300
  401c51:	add    BYTE PTR [eax],al
  401c53:	add    BYTE PTR [eax+eax*1+0x68],dh
  401c57:	add    BYTE PTR ds:0x48005400,ch
  401c5d:	add    BYTE PTR [eax],al
  401c5f:	add    BYTE PTR [eax+eax*1+0x72],dh
  401c63:	add    BYTE PTR ds:0x52005400,ch
  401c69:	add    BYTE PTR [eax],al
  401c6b:	add    BYTE PTR [ebp+0x0],dh
  401c6e:	jb     0x401c70
  401c70:	sub    eax,0x4b005000
  401c75:	add    BYTE PTR [eax],al
  401c77:	add    BYTE PTR [ecx+0x0],ch
  401c7a:	add    BYTE PTR fs:0x44004900,ch
  401c81:	add    BYTE PTR [eax],al
  401c83:	add    BYTE PTR [ebp+0x0],dh
  401c86:	imul   eax,DWORD PTR [eax],0x2d
  401c89:	add    BYTE PTR [ebp+0x0],dl
  401c8c:	inc    ecx
  401c8d:	add    BYTE PTR [eax],al
  401c8f:	add    BYTE PTR [edx+0x0],ah
  401c92:	add    BYTE PTR gs:0x59004200,ch
  401c99:	add    BYTE PTR [eax],al
  401c9b:	add    BYTE PTR [ebx+0x0],dh
  401c9e:	ins    BYTE PTR es:[edi],dx
  401c9f:	add    BYTE PTR ds:0x49005300,ch
  401ca5:	add    BYTE PTR [eax],al
  401ca7:	add    BYTE PTR [ebp+0x0],ah
  401caa:	je     0x401cac
  401cac:	sub    eax,0x45004500
  401cb1:	add    BYTE PTR [eax],al
  401cb3:	add    BYTE PTR [eax+eax*1+0x76],ch
  401cb7:	add    BYTE PTR ds:0x56004c00,ch
  401cbd:	add    BYTE PTR [eax],al
  401cbf:	add    BYTE PTR [eax+eax*1+0x74],ch
  401cc3:	add    BYTE PTR ds:0x54004c00,ch
  401cc9:	add    BYTE PTR [eax],al
  401ccb:	add    BYTE PTR [eax+eax*1+0x67],dh
  401ccf:	add    BYTE PTR ds:0x79004300,ch
  401cd5:	add    BYTE PTR [edx+0x0],dh
  401cd8:	ins    BYTE PTR es:[edi],dx
  401cd9:	add    BYTE PTR ds:0x4a005400,ch
  401cdf:	add    BYTE PTR [eax],al
  401ce1:	add    BYTE PTR [eax],al
  401ce3:	add    BYTE PTR [esi+0x0],ah
  401ce6:	popa   
  401ce7:	add    BYTE PTR ds:0x52004900,ch
  401ced:	add    BYTE PTR [eax],al
  401cef:	add    BYTE PTR [esi+0x0],dh
  401cf2:	imul   eax,DWORD PTR [eax],0x56002d
  401cf8:	dec    esi
  401cf9:	add    BYTE PTR [eax],al
  401cfb:	add    BYTE PTR [eax+0x0],ch
  401cfe:	jns    0x401d00
  401d00:	sub    eax,0x4d004100
  401d05:	add    BYTE PTR [eax],al
  401d07:	add    BYTE PTR [ecx+0x0],ah
  401d0a:	jp     0x401d0c
  401d0c:	sub    eax,0x61004c00
  401d11:	add    BYTE PTR [eax+eax*1+0x6e],dh
  401d15:	add    BYTE PTR ds:0x5a004100,ch
  401d1b:	add    BYTE PTR [eax],al
  401d1d:	add    BYTE PTR [eax],al
  401d1f:	add    BYTE PTR [ebp+0x0],ah
  401d22:	jne    0x401d24
  401d24:	sub    eax,0x53004500
  401d29:	add    BYTE PTR [eax],al
  401d2b:	add    BYTE PTR [eax+0x0],ch
  401d2e:	jae    0x401d30
  401d30:	bound  eax,QWORD PTR [eax]
  401d32:	sub    eax,0x45004400
  401d37:	add    BYTE PTR [eax],al
  401d39:	add    BYTE PTR [eax],al
  401d3b:	add    BYTE PTR [ebp+0x0],ch
  401d3e:	imul   eax,DWORD PTR [eax],0x2d
  401d41:	add    BYTE PTR [ebp+0x0],cl
  401d44:	dec    ebx
  401d45:	add    BYTE PTR [eax],al
  401d47:	add    BYTE PTR [ebx+0x0],dh
  401d4a:	je     0x401d4c
  401d4c:	sub    eax,0x41005a00
  401d51:	add    BYTE PTR [eax],al
  401d53:	add    BYTE PTR [eax+eax*1+0x73],dh
  401d57:	add    BYTE PTR ds:0x41005a00,ch
  401d5d:	add    BYTE PTR [eax],al
  401d5f:	add    BYTE PTR [eax+eax*1+0x6e],dh
  401d63:	add    BYTE PTR ds:0x41005a00,ch
  401d69:	add    BYTE PTR [eax],al
  401d6b:	add    BYTE PTR [esi+0x0],dh
  401d6e:	add    BYTE PTR gs:0x41005a00,ch
  401d75:	add    BYTE PTR [eax],al
  401d77:	add    BYTE PTR [eax+0x0],bh
  401d7a:	push   0x5a002d00
  401d7f:	add    BYTE PTR [ecx+0x0],al
  401d82:	add    BYTE PTR [eax],al
  401d84:	jp     0x401d86
  401d86:	jne    0x401d88
  401d88:	sub    eax,0x41005a00
  401d8d:	add    BYTE PTR [eax],al
  401d8f:	add    BYTE PTR [ecx+0x0],ah
  401d92:	data16 add BYTE PTR ds:0x41005a00,ch
  401d99:	add    BYTE PTR [eax],al
  401d9b:	add    BYTE PTR [ebx+0x0],ch
  401d9e:	popa   
  401d9f:	add    BYTE PTR ds:0x45004700,ch
  401da5:	add    BYTE PTR [eax],al
  401da7:	add    BYTE PTR [esi+0x0],ah
  401daa:	outs   dx,DWORD PTR ds:[esi]
  401dab:	add    BYTE PTR ds:0x4f004600,ch
  401db1:	add    BYTE PTR [eax],al
  401db3:	add    BYTE PTR [eax+0x0],ch
  401db6:	imul   eax,DWORD PTR [eax],0x49002d
  401dbc:	dec    esi
  401dbd:	add    BYTE PTR [eax],al
  401dbf:	add    BYTE PTR [ebp+0x0],ch
  401dc2:	je     0x401dc4
  401dc4:	sub    eax,0x54004d00
  401dc9:	add    BYTE PTR [eax],al
  401dcb:	add    BYTE PTR [ebx+0x0],dh
  401dce:	add    BYTE PTR gs:0x4f004e00,ch
  401dd5:	add    BYTE PTR [eax],al
  401dd7:	add    BYTE PTR [ebp+0x0],ch
  401dda:	jae    0x401ddc
  401ddc:	sub    eax,0x59004d00
  401de1:	add    BYTE PTR [eax],al
  401de3:	add    BYTE PTR [ebx+0x0],ch
  401de6:	imul   eax,DWORD PTR [eax],0x2d
  401de9:	add    BYTE PTR [ebx+0x0],cl
  401dec:	pop    edx
  401ded:	add    BYTE PTR [eax],al
  401def:	add    BYTE PTR [ebx+0x0],ch
  401df2:	jns    0x401df4
  401df4:	sub    eax,0x47004b00
  401df9:	add    BYTE PTR [eax],al
  401dfb:	add    BYTE PTR [ebx+0x0],dh
  401dfe:	ja     0x401e00
  401e00:	sub    eax,0x45004b00
  401e05:	add    BYTE PTR [eax],al
  401e07:	add    BYTE PTR [eax+eax*1+0x6b],dh
  401e0b:	add    BYTE PTR ds:0x4d005400,ch
  401e11:	add    BYTE PTR [eax],al
  401e13:	add    BYTE PTR [ebp+0x0],dh
  401e16:	jp     0x401e18
  401e18:	sub    eax,0x61004c00
  401e1d:	add    BYTE PTR [eax+eax*1+0x6e],dh
  401e21:	add    BYTE PTR ds:0x5a005500,ch
  401e27:	add    BYTE PTR [eax],al
  401e29:	add    BYTE PTR [eax],al
  401e2b:	add    BYTE PTR [eax+eax*1+0x74],dh
  401e2f:	add    BYTE PTR ds:0x55005200,ch
  401e35:	add    BYTE PTR [eax],al
  401e37:	add    BYTE PTR [edx+0x0],ah
  401e3a:	outs   dx,BYTE PTR ds:[esi]
  401e3b:	add    BYTE PTR ds:0x4e004900,ch
  401e41:	add    BYTE PTR [eax],al
  401e43:	add    BYTE PTR [eax+0x0],dh
  401e46:	popa   
  401e47:	add    BYTE PTR ds:0x4e004900,ch
  401e4d:	add    BYTE PTR [eax],al
  401e4f:	add    BYTE PTR [edi+0x0],ah
  401e52:	jne    0x401e54
  401e54:	sub    eax,0x4e004900
  401e59:	add    BYTE PTR [eax],al
  401e5b:	add    BYTE PTR [edi+0x0],ch
  401e5e:	jb     0x401e60
  401e60:	sub    eax,0x4e004900
  401e65:	add    BYTE PTR [eax],al
  401e67:	add    BYTE PTR [eax+eax*1+0x61],dh
  401e6b:	add    BYTE PTR ds:0x4e004900,ch
  401e71:	add    BYTE PTR [eax],al
  401e73:	add    BYTE PTR [eax+eax*1+0x65],dh
  401e77:	add    BYTE PTR ds:0x4e004900,ch
  401e7d:	add    BYTE PTR [eax],al
  401e7f:	add    BYTE PTR [ebx+0x0],ch
  401e82:	outs   dx,BYTE PTR ds:[esi]
  401e83:	add    BYTE PTR ds:0x4e004900,ch
  401e89:	add    BYTE PTR [eax],al
  401e8b:	add    BYTE PTR [ebp+0x0],ch
  401e8e:	ins    BYTE PTR es:[edi],dx
  401e8f:	add    BYTE PTR ds:0x4e004900,ch
  401e95:	add    BYTE PTR [eax],al
  401e97:	add    BYTE PTR [ecx+0x0],ah
  401e9a:	jae    0x401e9c
  401e9c:	sub    eax,0x4e004900
  401ea1:	add    BYTE PTR [eax],al
  401ea3:	add    BYTE PTR [ebp+0x0],ch
  401ea6:	jb     0x401ea8
  401ea8:	sub    eax,0x4e004900
  401ead:	add    BYTE PTR [eax],al
  401eaf:	add    BYTE PTR [ebx+0x0],dh
  401eb2:	popa   
  401eb3:	add    BYTE PTR ds:0x4e004900,ch
  401eb9:	add    BYTE PTR [eax],al
  401ebb:	add    BYTE PTR [ebp+0x0],ch
  401ebe:	outs   dx,BYTE PTR ds:[esi]
  401ebf:	add    BYTE PTR ds:0x4e004d00,ch
  401ec5:	add    BYTE PTR [eax],al
  401ec7:	add    BYTE PTR [edx+0x0],ah
  401eca:	outs   dx,DWORD PTR ds:[esi]
  401ecb:	add    BYTE PTR ds:0x4e004300,ch
  401ed1:	add    BYTE PTR [eax],al
  401ed3:	add    BYTE PTR [ebx+0x0],ah
  401ed6:	jns    0x401ed8
  401ed8:	sub    eax,0x42004700
  401edd:	add    BYTE PTR [eax],al
  401edf:	add    BYTE PTR [ebx+0x0],ch
  401ee2:	ins    DWORD PTR es:[edi],dx
  401ee3:	add    BYTE PTR ds:0x48004b00,ch
  401ee9:	add    BYTE PTR [eax],al
  401eeb:	add    BYTE PTR [eax+eax*1+0x6f],ch
  401eef:	add    BYTE PTR ds:0x41004c00,ch
  401ef5:	add    BYTE PTR [eax],al
  401ef7:	add    BYTE PTR [ebp+0x0],ch
  401efa:	jns    0x401efc
  401efc:	sub    eax,0x4d004d00
  401f01:	add    BYTE PTR [eax],al
  401f03:	add    BYTE PTR [edi+0x0],ah
  401f06:	ins    BYTE PTR es:[edi],dx
  401f07:	add    BYTE PTR ds:0x53004500,ch
  401f0d:	add    BYTE PTR [eax],al
  401f0f:	add    BYTE PTR [ebx+0x0],ch
  401f12:	outs   dx,DWORD PTR ds:[esi]
  401f13:	add    BYTE PTR [ebx+0x0],ch
  401f16:	sub    eax,0x4e004900
  401f1b:	add    BYTE PTR [eax],al
  401f1d:	add    BYTE PTR [eax],al
  401f1f:	add    BYTE PTR [ebx+0x0],dh
  401f22:	jns    0x401f24
  401f24:	jb     0x401f26
  401f26:	sub    eax,0x59005300
  401f2b:	add    BYTE PTR [eax],al
  401f2d:	add    BYTE PTR [eax],al
  401f2f:	add    BYTE PTR [ebx+0x0],dh
  401f32:	imul   eax,DWORD PTR [eax],0x4c002d
  401f38:	dec    ebx
  401f39:	add    BYTE PTR [eax],al
  401f3b:	add    BYTE PTR [ebx+0x0],ah
  401f3e:	push   0x2d007200
  401f43:	add    BYTE PTR [ebx+0x0],al
  401f46:	push   0x72006500
  401f4b:	add    BYTE PTR ds:0x53005500,ch
  401f51:	add    BYTE PTR [eax],al
  401f53:	add    BYTE PTR [ecx+0x0],ch
  401f56:	jne    0x401f58
  401f58:	sub    eax,0x61004300
  401f5d:	add    BYTE PTR [esi+0x0],ch
  401f60:	jae    0x401f62
  401f62:	sub    eax,0x41004300
  401f67:	add    BYTE PTR [eax],al
  401f69:	add    BYTE PTR [eax],al
  401f6b:	add    BYTE PTR [ecx+0x0],ah
  401f6e:	ins    DWORD PTR es:[edi],dx
  401f6f:	add    BYTE PTR ds:0x54004500,ch
  401f75:	add    BYTE PTR [eax],al
  401f77:	add    BYTE PTR [ebx+0x0],ch
  401f7a:	jae    0x401f7c
  401f7c:	sub    eax,0x72004100
  401f81:	add    BYTE PTR [ecx+0x0],ah
  401f84:	bound  eax,QWORD PTR [eax]
  401f86:	add    BYTE PTR [eax],al
  401f88:	outs   dx,BYTE PTR ds:[esi]
  401f89:	add    BYTE PTR [ebp+0x0],ah
  401f8c:	sub    eax,0x50004e00
  401f91:	add    BYTE PTR [eax],al
  401f93:	add    BYTE PTR [esi+0x0],ah
  401f96:	jns    0x401f98
  401f98:	sub    eax,0x4c004e00
  401f9d:	add    BYTE PTR [eax],al
  401f9f:	add    BYTE PTR [eax+0x0],dh
  401fa2:	jae    0x401fa4
  401fa4:	sub    eax,0x46004100
  401fa9:	add    BYTE PTR [eax],al
  401fab:	add    BYTE PTR [esi+0x0],ah
  401fae:	imul   eax,DWORD PTR [eax],0x2d006c
  401fb4:	push   eax
  401fb5:	add    BYTE PTR [eax+0x0],cl
  401fb8:	add    BYTE PTR [eax],al
  401fba:	add    BYTE PTR [eax],al
  401fbc:	add    BYTE PTR fs:[esi+0x0],dh
  401fc0:	sub    eax,0x56004d00
  401fc5:	add    BYTE PTR [eax],al
  401fc7:	add    BYTE PTR [eax+0x0],ch
  401fca:	popa   
  401fcb:	add    BYTE PTR ds:0x61004c00,ch
  401fd1:	add    BYTE PTR [eax+eax*1+0x6e],dh
  401fd5:	add    BYTE PTR ds:0x47004e00,ch
  401fdb:	add    BYTE PTR [eax],al
  401fdd:	add    BYTE PTR [eax],al
  401fdf:	add    BYTE PTR [ecx+0x0],bh
  401fe2:	outs   dx,DWORD PTR ds:[esi]
  401fe3:	add    BYTE PTR ds:0x47004e00,ch
  401fe9:	add    BYTE PTR [eax],al
  401feb:	add    BYTE PTR [ecx+0x0],dh
  401fee:	jne    0x401ff0
  401ff0:	jp     0x401ff2
  401ff2:	sub    eax,0x4f004200
  401ff7:	add    BYTE PTR [eax],al
  401ff9:	add    BYTE PTR [eax],al
  401ffb:	add    BYTE PTR [esi+0x0],ch
  401ffe:	jae    0x402000
  402000:	outs   dx,DWORD PTR ds:[esi]
  402001:	add    BYTE PTR ds:0x41005a00,ch
  402007:	add    BYTE PTR [eax],al
  402009:	add    BYTE PTR [eax],al
  40200b:	add    BYTE PTR [edx+0x0],ah
  40200e:	popa   
  40200f:	add    BYTE PTR ds:0x55005200,ch
  402015:	add    BYTE PTR [eax],al
  402017:	add    BYTE PTR [eax+eax*1+0x62],ch
  40201b:	add    BYTE PTR ds:0x55004c00,ch
  402021:	add    BYTE PTR [eax],al
  402023:	add    BYTE PTR [ebx+0x0],ch
  402026:	ins    BYTE PTR es:[edi],dx
  402027:	add    BYTE PTR ds:0x4c004700,ch
  40202d:	add    BYTE PTR [eax],al
  40202f:	add    BYTE PTR [ecx+0x0],ch
  402032:	add    BYTE PTR [di],ch
  402035:	add    BYTE PTR [esi+0x0],cl
  402038:	inc    edi
  402039:	add    BYTE PTR [eax],al
  40203b:	add    BYTE PTR [edi+0x0],ch
  40203e:	ins    DWORD PTR es:[edi],dx
  40203f:	add    BYTE PTR ds:0x54004500,ch
  402045:	add    BYTE PTR [eax],al
  402047:	add    BYTE PTR [eax+eax*1+0x69],dh
  40204b:	add    BYTE PTR ds:0x54004500,ch
  402051:	add    BYTE PTR [eax],al
  402053:	add    BYTE PTR [edi+0x0],ah
  402056:	outs   dx,BYTE PTR ds:[esi]
  402057:	add    BYTE PTR ds:0x59005000,ch
  40205d:	add    BYTE PTR [eax],al
  40205f:	add    BYTE PTR [eax+0x0],ch
  402062:	popa   
  402063:	add    BYTE PTR [edi+0x0],dh
  402066:	sub    eax,0x53005500
  40206b:	add    BYTE PTR [eax],al
  40206d:	add    BYTE PTR [eax],al
  40206f:	add    BYTE PTR [ebx+0x0],dh
  402072:	outs   dx,DWORD PTR ds:[esi]
  402073:	add    BYTE PTR ds:0x4f005300,ch
  402079:	add    BYTE PTR [eax],al
  40207b:	add    BYTE PTR [ecx+0x0],ch
  40207e:	imul   eax,DWORD PTR [eax],0x43002d
  402084:	dec    esi
  402085:	add    BYTE PTR [eax],al
  402087:	add    BYTE PTR [ecx+0x0],ah
  40208a:	jb     0x40208c
  40208c:	outs   dx,BYTE PTR ds:[esi]
  40208d:	add    BYTE PTR ds:0x4c004300,ch
  402093:	add    BYTE PTR [eax],al
  402095:	add    BYTE PTR [eax],al
  402097:	add    BYTE PTR [ebp+0x0],ch
  40209a:	outs   dx,DWORD PTR ds:[esi]
  40209b:	add    BYTE PTR [eax+0x0],ch
  40209e:	sub    eax,0x41004300
  4020a3:	add    BYTE PTR [eax],al
  4020a5:	add    BYTE PTR [eax],al
  4020a7:	add    BYTE PTR [edx+0x0],ah
  4020aa:	jb     0x4020ac
  4020ac:	sub    eax,0x52004600
  4020b1:	add    BYTE PTR [eax],al
  4020b3:	add    BYTE PTR [ebp+0x0],dh
  4020b6:	add    BYTE PTR [di],ch
  4020b9:	add    BYTE PTR [ebx+0x0],al
  4020bc:	dec    esi
  4020bd:	add    BYTE PTR [eax],al
  4020bf:	add    BYTE PTR [ebp+0x0],ch
  4020c2:	imul   eax,DWORD PTR [eax],0x4e002d
  4020c8:	pop    edx
  4020c9:	add    BYTE PTR [eax],al
  4020cb:	add    BYTE PTR [edi+0x0],ch
  4020ce:	arpl   WORD PTR [eax],ax
  4020d0:	sub    eax,0x52004600
  4020d5:	add    BYTE PTR [eax],al
  4020d7:	add    BYTE PTR [ebx+0x0],ah
  4020da:	outs   dx,DWORD PTR ds:[esi]
  4020db:	add    BYTE PTR ds:0x52004600,ch
  4020e1:	add    BYTE PTR [eax],al
  4020e3:	add    BYTE PTR [edi+0x0],ah
  4020e6:	jae    0x4020e8
  4020e8:	ja     0x4020ea
  4020ea:	sub    eax,0x52004600
  4020ef:	add    BYTE PTR [eax],al
  4020f1:	add    BYTE PTR [eax],al
  4020f3:	add    BYTE PTR [ebx+0x0],dh
  4020f6:	popa   
  4020f7:	add    BYTE PTR [eax+0x0],ch
  4020fa:	sub    eax,0x55005200
  4020ff:	add    BYTE PTR [eax],al
  402101:	add    BYTE PTR [eax],al
  402103:	add    BYTE PTR [ecx+0x0],dh
  402106:	jne    0x402108
  402108:	arpl   WORD PTR [eax],ax
  40210a:	sub    eax,0x61004c00
  40210f:	add    BYTE PTR [eax+eax*1+0x6e],dh
  402113:	add    BYTE PTR ds:0x54004700,ch
  402119:	add    BYTE PTR [eax],al
  40211b:	add    BYTE PTR [edx+0x0],dh
  40211e:	ja     0x402120
  402120:	sub    eax,0x57005200
  402125:	add    BYTE PTR [eax],al
  402127:	add    BYTE PTR [edi+0x0],dh
  40212a:	outs   dx,DWORD PTR ds:[esi]
  40212b:	add    BYTE PTR ds:0x4e005300,ch
  402131:	add    BYTE PTR [eax],al
  402133:	add    BYTE PTR [eax+0x0],dh
  402136:	jb     0x402138
  402138:	jae    0x40213a
  40213a:	sub    eax,0x46004100
  40213f:	add    BYTE PTR [eax],al
  402141:	add    BYTE PTR [eax],al
  402143:	add    BYTE PTR [edi+0x0],ah
  402146:	add    BYTE PTR fs:0x42004700,ch
  40214d:	add    BYTE PTR [eax],al
  40214f:	add    BYTE PTR [ebx+0x0],ch
  402152:	jne    0x402154
  402154:	sub    eax,0x72004100
  402159:	add    BYTE PTR [ecx+0x0],ah
  40215c:	bound  eax,QWORD PTR [eax]
  40215e:	sub    eax,0x51004900
  402163:	add    BYTE PTR [eax],al
  402165:	add    BYTE PTR [eax],al
  402167:	add    BYTE PTR [ecx+0x0],dh
  40216a:	jo     0x40216c
  40216c:	jae    0x40216e
  40216e:	sub    eax,0x6c007000
  402173:	add    BYTE PTR [edi+0x0],ch
  402176:	arpl   WORD PTR [eax],ax
  402178:	add    BYTE PTR [eax],al
  40217a:	add    BYTE PTR [eax],al
  40217c:	jno    0x40217e
  40217e:	jo     0x402180
  402180:	jae    0x402182
  402182:	sub    eax,0x6c007000
  402187:	add    BYTE PTR [edi+0x0],ch
  40218a:	arpl   WORD PTR [eax],ax
  40218c:	popa   
  40218d:	add    BYTE PTR [eax],al
  40218f:	add    BYTE PTR [ecx+0x0],ah
  402192:	jb     0x402194
  402194:	sub    eax,0x51004900
  402199:	add    BYTE PTR [eax],al
  40219b:	add    BYTE PTR [ebx+0x0],ah
  40219e:	popa   
  40219f:	add    BYTE PTR ds:0x53004500,ch
  4021a5:	add    BYTE PTR ds:0x61007600,ch
  4021ab:	add    BYTE PTR [eax+eax*1+0x65],ch
  4021af:	add    BYTE PTR [esi+0x0],ch
  4021b2:	arpl   WORD PTR [eax],ax
  4021b4:	imul   eax,DWORD PTR [eax],0x61
  4021ba:	add    BYTE PTR [eax],al
  4021bc:	jp     0x4021be
  4021be:	push   0x43002d00
  4021c3:	add    BYTE PTR [esi+0x0],cl
  4021c6:	add    BYTE PTR [eax],al
  4021c8:	add    BYTE PTR fs:[ebp+0x0],ah
  4021cc:	sub    eax,0x48004300
  4021d1:	add    BYTE PTR [eax],al
  4021d3:	add    BYTE PTR [ebp+0x0],ah
  4021d6:	outs   dx,BYTE PTR ds:[esi]
  4021d7:	add    BYTE PTR ds:0x42004700,ch
  4021dd:	add    BYTE PTR [eax],al
  4021df:	add    BYTE PTR [ebp+0x0],ah
  4021e2:	jae    0x4021e4
  4021e4:	sub    eax,0x58004d00
  4021e9:	add    BYTE PTR [eax],al
  4021eb:	add    BYTE PTR [esi+0x0],ah
  4021ee:	jb     0x4021f0
  4021f0:	sub    eax,0x45004200
  4021f5:	add    BYTE PTR [eax],al
  4021f7:	add    BYTE PTR [ecx+0x0],ch
  4021fa:	je     0x4021fc
  4021fc:	sub    eax,0x48004300
  402201:	add    BYTE PTR [eax],al
  402203:	add    BYTE PTR [esi+0x0],ch
  402206:	ins    BYTE PTR es:[edi],dx
  402207:	add    BYTE PTR ds:0x45004200,ch
  40220d:	add    BYTE PTR [eax],al
  40220f:	add    BYTE PTR [esi+0x0],ch
  402212:	outs   dx,BYTE PTR ds:[esi]
  402213:	add    BYTE PTR ds:0x4f004e00,ch
  402219:	add    BYTE PTR [eax],al
  40221b:	add    BYTE PTR [eax+0x0],dh
  40221e:	je     0x402220
  402220:	sub    eax,0x54005000
  402225:	add    BYTE PTR [eax],al
  402227:	add    BYTE PTR [edx+0x0],dh
  40222a:	outs   dx,DWORD PTR ds:[esi]
  40222b:	add    BYTE PTR ds:0x44004d00,ch
  402231:	add    BYTE PTR [eax],al
  402233:	add    BYTE PTR [edx+0x0],dh
  402236:	jne    0x402238
  402238:	sub    eax,0x44004d00
  40223d:	add    BYTE PTR [eax],al
  40223f:	add    BYTE PTR [ebx+0x0],dh
  402242:	jbe    0x402244
  402244:	sub    eax,0x49004600
  402249:	add    BYTE PTR [eax],al
  40224b:	add    BYTE PTR [ebp+0x0],dh
  40224e:	jb     0x402250
  402250:	sub    eax,0x4e004900
  402255:	add    BYTE PTR [eax],al
  402257:	add    BYTE PTR [ecx+0x0],ah
  40225a:	jp     0x40225c
  40225c:	sub    eax,0x79004300
  402261:	add    BYTE PTR [edx+0x0],dh
  402264:	ins    BYTE PTR es:[edi],dx
  402265:	add    BYTE PTR ds:0x5a004100,ch
  40226b:	add    BYTE PTR [eax],al
  40226d:	add    BYTE PTR [eax],al
  40226f:	add    BYTE PTR [eax+eax*1+0x73],ah
  402273:	add    BYTE PTR [edx+0x0],ah
  402276:	sub    eax,0x45004400
  40227b:	add    BYTE PTR [eax],al
  40227d:	add    BYTE PTR [eax],al
  40227f:	add    BYTE PTR [eax+eax*1+0x6e],dh
  402283:	add    BYTE PTR ds:0x57004200,ch
  402289:	add    BYTE PTR [eax],al
  40228b:	add    BYTE PTR [ebx+0x0],dh
  40228e:	add    BYTE PTR gs:0x45005300,ch
  402295:	add    BYTE PTR [eax],al
  402297:	add    BYTE PTR [edi+0x0],ah
  40229a:	popa   
  40229b:	add    BYTE PTR ds:0x45004900,ch
  4022a1:	add    BYTE PTR [eax],al
  4022a3:	add    BYTE PTR [ebp+0x0],ch
  4022a6:	jae    0x4022a8
  4022a8:	sub    eax,0x4e004200
  4022ad:	add    BYTE PTR [eax],al
  4022af:	add    BYTE PTR [ebp+0x0],dh
  4022b2:	jp     0x4022b4
  4022b4:	sub    eax,0x79004300
  4022b9:	add    BYTE PTR [edx+0x0],dh
  4022bc:	ins    BYTE PTR es:[edi],dx
  4022bd:	add    BYTE PTR ds:0x5a005500,ch
  4022c3:	add    BYTE PTR [eax],al
  4022c5:	add    BYTE PTR [eax],al
  4022c7:	add    BYTE PTR [edx+0x0],ah
  4022ca:	outs   dx,BYTE PTR ds:[esi]
  4022cb:	add    BYTE PTR ds:0x44004200,ch
  4022d1:	add    BYTE PTR [eax],al
  4022d3:	add    BYTE PTR [eax+0x0],dh
  4022d6:	popa   
  4022d7:	add    BYTE PTR ds:0x72004100,ch
  4022dd:	add    BYTE PTR [ecx+0x0],ah
  4022e0:	bound  eax,QWORD PTR [eax]
  4022e2:	sub    eax,0x4b005000
  4022e7:	add    BYTE PTR [eax],al
  4022e9:	add    BYTE PTR [eax],al
  4022eb:	add    BYTE PTR [eax+eax*1+0x61],dh
  4022ef:	add    BYTE PTR ds:0x4b004c00,ch
  4022f5:	add    BYTE PTR [eax],al
  4022f7:	add    BYTE PTR [ebp+0x0],ch
  4022fa:	outs   dx,BYTE PTR ds:[esi]
  4022fb:	add    BYTE PTR ds:0x6f004d00,ch
  402301:	add    BYTE PTR [esi+0x0],ch
  402304:	add    BYTE PTR [di],ch
  402307:	add    BYTE PTR [ebx+0x0],al
  40230a:	dec    esi
  40230b:	add    BYTE PTR [eax],al
  40230d:	add    BYTE PTR [eax],al
  40230f:	add    BYTE PTR [ebx+0x0],dh
  402312:	add    BYTE PTR fs:0x72004100,ch
  402319:	add    BYTE PTR [ecx+0x0],ah
  40231c:	bound  eax,QWORD PTR [eax]
  40231e:	sub    eax,0x4b005000
  402323:	add    BYTE PTR [eax],al
  402325:	add    BYTE PTR [eax],al
  402327:	add    BYTE PTR [eax+eax*1+0x7a],dh
  40232b:	add    BYTE PTR [ebp+0x0],ch
  40232e:	sub    eax,0x61004c00
  402333:	add    BYTE PTR [eax+eax*1+0x6e],dh
  402337:	add    BYTE PTR ds:0x5a004400,ch
  40233d:	add    BYTE PTR [eax],al
  40233f:	add    BYTE PTR [esi+0x0],ch
  402342:	add    BYTE PTR gs:0x4e004900,ch
  402349:	add    BYTE PTR [eax],al
  40234b:	add    BYTE PTR [esi+0x0],ah
  40234e:	data16 add BYTE PTR ds:0x61004c00,ch
  402355:	add    BYTE PTR [eax+eax*1+0x6e],dh
  402359:	add    BYTE PTR ds:0x4e005300,ch
  40235f:	add    BYTE PTR [eax],al
  402361:	add    BYTE PTR [eax],al
  402363:	add    BYTE PTR [ecx+0x0],dh
  402366:	jne    0x402368
  402368:	jp     0x40236a
  40236a:	sub    eax,0x43004500
  40236f:	add    BYTE PTR [eax],al
  402371:	add    BYTE PTR [eax],al
  402373:	add    BYTE PTR [eax+eax*1+0x69],dh
  402377:	add    BYTE PTR ds:0x52004500,ch
  40237d:	add    BYTE PTR [eax],al
  40237f:	add    BYTE PTR [ecx+0x0],dh
  402382:	jo     0x402384
  402384:	jae    0x402386
  402386:	sub    eax,0x61004c00
  40238b:	add    BYTE PTR [eax+eax*1+0x6e],dh
  40238f:	add    BYTE PTR ds:0x2d007800,ch
  402395:	add    BYTE PTR [ebx+0x0],dh
  402398:	push   0x71000000
  40239d:	add    BYTE PTR [eax+0x0],dh
  4023a0:	jae    0x4023a2
  4023a2:	sub    eax,0x6c007000
  4023a7:	add    BYTE PTR [edi+0x0],ch
  4023aa:	arpl   WORD PTR [eax],ax
  4023ac:	ins    DWORD PTR es:[edi],dx
  4023ad:	add    BYTE PTR [eax],al
  4023af:	add    BYTE PTR [ecx+0x0],ah
  4023b2:	jb     0x4023b4
  4023b4:	sub    eax,0x47004500
  4023b9:	add    BYTE PTR [eax],al
  4023bb:	add    BYTE PTR [edx+0x0],bh
  4023be:	push   0x48002d00
  4023c3:	add    BYTE PTR [ebx+0x0],cl
  4023c6:	add    BYTE PTR [eax],al
  4023c8:	add    BYTE PTR fs:[ebp+0x0],ah
  4023cc:	sub    eax,0x54004100
  4023d1:	add    BYTE PTR [eax],al
  4023d3:	add    BYTE PTR [ebp+0x0],ah
  4023d6:	outs   dx,BYTE PTR ds:[esi]
  4023d7:	add    BYTE PTR ds:0x55004100,ch
  4023dd:	add    BYTE PTR [eax],al
  4023df:	add    BYTE PTR [ebp+0x0],ah
  4023e2:	jae    0x4023e4
  4023e4:	sub    eax,0x53004500
  4023e9:	add    BYTE PTR [eax],al
  4023eb:	add    BYTE PTR [esi+0x0],ah
  4023ee:	jb     0x4023f0
  4023f0:	sub    eax,0x41004300
  4023f5:	add    BYTE PTR [eax],al
  4023f7:	add    BYTE PTR [ebx+0x0],dh
  4023fa:	add    BYTE PTR gs:0x49004600,ch
  402401:	add    BYTE PTR [eax],al
  402403:	add    BYTE PTR [ebp+0x0],ch
  402406:	outs   dx,BYTE PTR ds:[esi]
  402407:	add    BYTE PTR ds:0x6f004d00,ch
  40240d:	add    BYTE PTR [esi+0x0],ch
  402410:	add    BYTE PTR [di],ch
  402413:	add    BYTE PTR [ebp+0x0],cl
  402416:	dec    esi
  402417:	add    BYTE PTR [eax],al
  402419:	add    BYTE PTR [eax],al
  40241b:	add    BYTE PTR [ecx+0x0],dh
  40241e:	jne    0x402420
  402420:	jp     0x402422
  402422:	sub    eax,0x45005000
  402427:	add    BYTE PTR [eax],al
  402429:	add    BYTE PTR [eax],al
  40242b:	add    BYTE PTR [ecx+0x0],ah
  40242e:	jb     0x402430
  402430:	sub    eax,0x59004c00
  402435:	add    BYTE PTR [eax],al
  402437:	add    BYTE PTR [edx+0x0],bh
  40243a:	push   0x53002d00
  40243f:	add    BYTE PTR [edi+0x0],al
  402442:	add    BYTE PTR [eax],al
  402444:	add    BYTE PTR fs:[ebp+0x0],ah
  402448:	sub    eax,0x55004c00
  40244d:	add    BYTE PTR [eax],al
  40244f:	add    BYTE PTR [ebp+0x0],ah
  402452:	outs   dx,BYTE PTR ds:[esi]
  402453:	add    BYTE PTR ds:0x41004300,ch
  402459:	add    BYTE PTR [eax],al
  40245b:	add    BYTE PTR [ebp+0x0],ah
  40245e:	jae    0x402460
  402460:	sub    eax,0x54004700
  402465:	add    BYTE PTR [eax],al
  402467:	add    BYTE PTR [esi+0x0],ah
  40246a:	jb     0x40246c
  40246c:	sub    eax,0x48004300
  402471:	add    BYTE PTR [eax],al
  402473:	add    BYTE PTR [eax+0x0],ch
  402476:	jb     0x402478
  402478:	sub    eax,0x41004200
  40247d:	add    BYTE PTR [eax],al
  40247f:	add    BYTE PTR [ebx+0x0],dh
  402482:	ins    DWORD PTR es:[edi],dx
  402483:	add    BYTE PTR [edx+0x0],ch
  402486:	sub    eax,0x4f004e00
  40248b:	add    BYTE PTR [eax],al
  40248d:	add    BYTE PTR [eax],al
  40248f:	add    BYTE PTR [eax+eax*1+0x7a],dh
  402493:	add    BYTE PTR [ebp+0x0],ch
  402496:	sub    eax,0x66005400
  40249b:	add    BYTE PTR [esi+0x0],ch
  40249e:	add    BYTE PTR [di],ch
  4024a1:	add    BYTE PTR [ebp+0x0],cl
  4024a4:	inc    ecx
  4024a5:	add    BYTE PTR [eax],al
  4024a7:	add    BYTE PTR [ecx+0x0],ah
  4024aa:	jb     0x4024ac
  4024ac:	sub    eax,0x5a004400
  4024b1:	add    BYTE PTR [eax],al
  4024b3:	add    BYTE PTR [edx+0x0],bh
  4024b6:	push   0x4d002d00
  4024bb:	add    BYTE PTR [edi+0x0],cl
  4024be:	add    BYTE PTR [eax],al
  4024c0:	add    BYTE PTR fs:[ebp+0x0],ah
  4024c4:	sub    eax,0x49004c00
  4024c9:	add    BYTE PTR [eax],al
  4024cb:	add    BYTE PTR [ebp+0x0],ah
  4024ce:	outs   dx,BYTE PTR ds:[esi]
  4024cf:	add    BYTE PTR ds:0x5a004e00,ch
  4024d5:	add    BYTE PTR [eax],al
  4024d7:	add    BYTE PTR [ebp+0x0],ah
  4024da:	jae    0x4024dc
  4024dc:	sub    eax,0x52004300
  4024e1:	add    BYTE PTR [eax],al
  4024e3:	add    BYTE PTR [esi+0x0],ah
  4024e6:	jb     0x4024e8
  4024e8:	sub    eax,0x55004c00
  4024ed:	add    BYTE PTR [eax],al
  4024ef:	add    BYTE PTR [ebx+0x0],dh
  4024f2:	ins    DWORD PTR es:[edi],dx
  4024f3:	add    BYTE PTR [edx+0x0],ch
  4024f6:	sub    eax,0x45005300
  4024fb:	add    BYTE PTR [eax],al
  4024fd:	add    BYTE PTR [eax],al
  4024ff:	add    BYTE PTR [ecx+0x0],ah
  402502:	jb     0x402504
  402504:	sub    eax,0x41004d00
  402509:	add    BYTE PTR [eax],al
  40250b:	add    BYTE PTR [ebp+0x0],ah
  40250e:	outs   dx,BYTE PTR ds:[esi]
  40250f:	add    BYTE PTR ds:0x45004900,ch
  402515:	add    BYTE PTR [eax],al
  402517:	add    BYTE PTR [ebp+0x0],ah
  40251a:	jae    0x40251c
  40251c:	sub    eax,0x41005000
  402521:	add    BYTE PTR [eax],al
  402523:	add    BYTE PTR [esi+0x0],ah
  402526:	jb     0x402528
  402528:	sub    eax,0x43004d00
  40252d:	add    BYTE PTR [eax],al
  40252f:	add    BYTE PTR [ebx+0x0],dh
  402532:	ins    DWORD PTR es:[edi],dx
  402533:	add    BYTE PTR [ecx+0x0],ah
  402536:	sub    eax,0x4f004e00
  40253b:	add    BYTE PTR [eax],al
  40253d:	add    BYTE PTR [eax],al
  40253f:	add    BYTE PTR [ecx+0x0],ah
  402542:	jb     0x402544
  402544:	sub    eax,0x4e005400
  402549:	add    BYTE PTR [eax],al
  40254b:	add    BYTE PTR [ebp+0x0],ah
  40254e:	outs   dx,BYTE PTR ds:[esi]
  40254f:	add    BYTE PTR ds:0x41005a00,ch
  402555:	add    BYTE PTR [eax],al
  402557:	add    BYTE PTR [ebp+0x0],ah
  40255a:	jae    0x40255c
  40255c:	sub    eax,0x4f004400
  402561:	add    BYTE PTR [eax],al
  402563:	add    BYTE PTR [ebx+0x0],dh
  402566:	ins    DWORD PTR es:[edi],dx
  402567:	add    BYTE PTR [ecx+0x0],ah
  40256a:	sub    eax,0x45005300
  40256f:	add    BYTE PTR [eax],al
  402571:	add    BYTE PTR [eax],al
  402573:	add    BYTE PTR [ecx+0x0],ah
  402576:	jb     0x402578
  402578:	sub    eax,0x4d004f00
  40257d:	add    BYTE PTR [eax],al
  40257f:	add    BYTE PTR [ebp+0x0],ah
  402582:	outs   dx,BYTE PTR ds:[esi]
  402583:	add    BYTE PTR ds:0x4d004a00,ch
  402589:	add    BYTE PTR [eax],al
  40258b:	add    BYTE PTR [ebp+0x0],ah
  40258e:	jae    0x402590
  402590:	sub    eax,0x45005600
  402595:	add    BYTE PTR [eax],al
  402597:	add    BYTE PTR [esi+0x0],ah
  40259a:	jb     0x40259c
  40259c:	sub    eax,0x45005200
  4025a1:	add    BYTE PTR [eax],al
  4025a3:	add    BYTE PTR [ebx+0x0],dh
  4025a6:	ins    DWORD PTR es:[edi],dx
  4025a7:	add    BYTE PTR [ebx+0x0],dh
  4025aa:	sub    eax,0x49004600
  4025af:	add    BYTE PTR [eax],al
  4025b1:	add    BYTE PTR [eax],al
  4025b3:	add    BYTE PTR [ecx+0x0],ah
  4025b6:	jb     0x4025b8
  4025b8:	sub    eax,0x45005900
  4025bd:	add    BYTE PTR [eax],al
  4025bf:	add    BYTE PTR [ebp+0x0],ah
  4025c2:	outs   dx,BYTE PTR ds:[esi]
  4025c3:	add    BYTE PTR ds:0x32003000,ch
  4025c9:	add    BYTE PTR [ecx],bh
  4025cb:	add    BYTE PTR [eax],al
  4025cd:	add    BYTE PTR [eax],al
  4025cf:	add    BYTE PTR [ebp+0x0],ah
  4025d2:	jae    0x4025d4
  4025d4:	sub    eax,0x4f004300
  4025d9:	add    BYTE PTR [eax],al
  4025db:	add    BYTE PTR [esi+0x0],ah
  4025de:	jb     0x4025e0
  4025e0:	sub    eax,0x44004300
  4025e5:	add    BYTE PTR [eax],al
  4025e7:	add    BYTE PTR [ebx+0x0],dh
  4025ea:	jb     0x4025ec
  4025ec:	sub    eax,0x61004c00
  4025f1:	add    BYTE PTR [eax+eax*1+0x6e],dh
  4025f5:	add    BYTE PTR ds:0x53005200,ch
  4025fb:	add    BYTE PTR [eax],al
  4025fd:	add    BYTE PTR [eax],al
  4025ff:	add    BYTE PTR [ebx+0x0],dh
  402602:	ins    DWORD PTR es:[edi],dx
  402603:	add    BYTE PTR [esi+0x0],ch
  402606:	sub    eax,0x49004600
  40260b:	add    BYTE PTR [eax],al
  40260d:	add    BYTE PTR [eax],al
  40260f:	add    BYTE PTR [ecx+0x0],ah
  402612:	jb     0x402614
  402614:	sub    eax,0x59005300
  402619:	add    BYTE PTR [eax],al
  40261b:	add    BYTE PTR [ebp+0x0],ah
  40261e:	outs   dx,BYTE PTR ds:[esi]
  40261f:	add    BYTE PTR ds:0x5a004200,ch
  402625:	add    BYTE PTR [eax],al
  402627:	add    BYTE PTR [ebp+0x0],ah
  40262a:	jae    0x40262c
  40262c:	sub    eax,0x45005000
  402631:	add    BYTE PTR [eax],al
  402633:	add    BYTE PTR [esi+0x0],ah
  402636:	jb     0x402638
  402638:	sub    eax,0x4e005300
  40263d:	add    BYTE PTR [eax],al
  40263f:	add    BYTE PTR [ebx+0x0],dh
  402642:	jb     0x402644
  402644:	sub    eax,0x79004300
  402649:	add    BYTE PTR [edx+0x0],dh
  40264c:	ins    BYTE PTR es:[edi],dx
  40264d:	add    BYTE PTR ds:0x53005200,ch
  402653:	add    BYTE PTR [eax],al
  402655:	add    BYTE PTR [eax],al
  402657:	add    BYTE PTR [ecx+0x0],ah
  40265a:	jb     0x40265c
  40265c:	sub    eax,0x4f004a00
  402661:	add    BYTE PTR [eax],al
  402663:	add    BYTE PTR [ebp+0x0],ah
  402666:	outs   dx,BYTE PTR ds:[esi]
  402667:	add    BYTE PTR ds:0x54005400,ch
  40266d:	add    BYTE PTR [eax],al
  40266f:	add    BYTE PTR [ebp+0x0],ah
  402672:	jae    0x402674
  402674:	sub    eax,0x52004100
  402679:	add    BYTE PTR [eax],al
  40267b:	add    BYTE PTR [esi+0x0],ah
  40267e:	jb     0x402680
  402680:	sub    eax,0x4d004300
  402685:	add    BYTE PTR [eax],al
  402687:	add    BYTE PTR [ebx+0x0],dh
  40268a:	jb     0x40268c
  40268c:	sub    eax,0x61004c00
  402691:	add    BYTE PTR [eax+eax*1+0x6e],dh
  402695:	add    BYTE PTR ds:0x45004d00,ch
  40269b:	add    BYTE PTR [eax],al
  40269d:	add    BYTE PTR [eax],al
  40269f:	add    BYTE PTR [ecx+0x0],ah
  4026a2:	jb     0x4026a4
  4026a4:	sub    eax,0x42004c00
  4026a9:	add    BYTE PTR [eax],al
  4026ab:	add    BYTE PTR [ebp+0x0],ah
  4026ae:	outs   dx,BYTE PTR ds:[esi]
  4026af:	add    BYTE PTR ds:0x57005a00,ch
  4026b5:	add    BYTE PTR [eax],al
  4026b7:	add    BYTE PTR [ebp+0x0],ah
  4026ba:	jae    0x4026bc
  4026bc:	sub    eax,0x43004500
  4026c1:	add    BYTE PTR [eax],al
  4026c3:	add    BYTE PTR [esi+0x0],ah
  4026c6:	jb     0x4026c8
  4026c8:	sub    eax,0x49004300
  4026cd:	add    BYTE PTR [eax],al
  4026cf:	add    BYTE PTR [ebx+0x0],dh
  4026d2:	jb     0x4026d4
  4026d4:	sub    eax,0x79004300
  4026d9:	add    BYTE PTR [edx+0x0],dh
  4026dc:	ins    BYTE PTR es:[edi],dx
  4026dd:	add    BYTE PTR ds:0x45004d00,ch
  4026e3:	add    BYTE PTR [eax],al
  4026e5:	add    BYTE PTR [eax],al
  4026e7:	add    BYTE PTR [ecx+0x0],ah
  4026ea:	jb     0x4026ec
  4026ec:	sub    eax,0x57004b00
  4026f1:	add    BYTE PTR [eax],al
  4026f3:	add    BYTE PTR [ebp+0x0],ah
  4026f6:	outs   dx,BYTE PTR ds:[esi]
  4026f7:	add    BYTE PTR ds:0x48005000,ch
  4026fd:	add    BYTE PTR [eax],al
  4026ff:	add    BYTE PTR [ebp+0x0],ah
  402702:	jae    0x402704
  402704:	sub    eax,0x4c004300
  402709:	add    BYTE PTR [eax],al
  40270b:	add    BYTE PTR [esi+0x0],ah
  40270e:	jb     0x402710
  402710:	sub    eax,0x4c004d00
  402715:	add    BYTE PTR [eax],al
  402717:	add    BYTE PTR [ecx+0x0],ah
  40271a:	jb     0x40271c
  40271c:	sub    eax,0x45004100
  402721:	add    BYTE PTR [eax],al
  402723:	add    BYTE PTR [ebp+0x0],ah
  402726:	jae    0x402728
  402728:	sub    eax,0x59005500
  40272d:	add    BYTE PTR [eax],al
  40272f:	add    BYTE PTR [esi+0x0],ah
  402732:	jb     0x402734
  402734:	sub    eax,0x41004d00
  402739:	add    BYTE PTR [eax],al
  40273b:	add    BYTE PTR [ecx+0x0],ah
  40273e:	jb     0x402740
  402740:	sub    eax,0x48004200
  402745:	add    BYTE PTR [eax],al
  402747:	add    BYTE PTR [ebp+0x0],ah
  40274a:	outs   dx,BYTE PTR ds:[esi]
  40274b:	add    BYTE PTR ds:0x4b004800,ch
  402751:	add    BYTE PTR [eax],al
  402753:	add    BYTE PTR [ebp+0x0],ah
  402756:	jae    0x402758
  402758:	sub    eax,0x59005000
  40275d:	add    BYTE PTR [eax],al
  40275f:	add    BYTE PTR [esi+0x0],ah
  402762:	jb     0x402764
  402764:	sub    eax,0x54004800
  402769:	add    BYTE PTR [eax],al
  40276b:	add    BYTE PTR [ecx+0x0],ah
  40276e:	jb     0x402770
  402770:	sub    eax,0x41005100
  402775:	add    BYTE PTR [eax],al
  402777:	add    BYTE PTR [ebp+0x0],ah
  40277a:	outs   dx,BYTE PTR ds:[esi]
  40277b:	add    BYTE PTR ds:0x4e004900,ch
  402781:	add    BYTE PTR [eax],al
  402783:	add    BYTE PTR [ebp+0x0],ah
  402786:	jae    0x402788
  402788:	sub    eax,0x4f004200
  40278d:	add    BYTE PTR [eax],al
  40278f:	add    BYTE PTR [ebp+0x0],ah
  402792:	outs   dx,BYTE PTR ds:[esi]
  402793:	add    BYTE PTR ds:0x59004d00,ch
  402799:	add    BYTE PTR [eax],al
  40279b:	add    BYTE PTR [ebp+0x0],ah
  40279e:	jae    0x4027a0
  4027a0:	sub    eax,0x56005300
  4027a5:	add    BYTE PTR [eax],al
  4027a7:	add    BYTE PTR [ebp+0x0],ah
  4027aa:	outs   dx,BYTE PTR ds:[esi]
  4027ab:	add    BYTE PTR ds:0x47005300,ch
  4027b1:	add    BYTE PTR [eax],al
  4027b3:	add    BYTE PTR [ebp+0x0],ah
  4027b6:	jae    0x4027b8
  4027b8:	sub    eax,0x4e004800
  4027bd:	add    BYTE PTR [eax],al
  4027bf:	add    BYTE PTR [ebp+0x0],ah
  4027c2:	jae    0x4027c4
  4027c4:	sub    eax,0x49004e00
  4027c9:	add    BYTE PTR [eax],al
  4027cb:	add    BYTE PTR [ebp+0x0],ah
  4027ce:	jae    0x4027d0
  4027d0:	sub    eax,0x52005000
  4027d5:	add    BYTE PTR [eax],al
  4027d7:	add    BYTE PTR [ebp+0x0],ah
  4027da:	jae    0x4027dc
  4027dc:	sub    eax,0x53005500
  4027e1:	add    BYTE PTR [eax],al
  4027e3:	add    BYTE PTR [ebp+0x0],ah
  4027e6:	jae    0x4027e8
  4027e8:	sub    eax,0x31003400
  4027ed:	add    BYTE PTR [ecx],bh
  4027ef:	add    BYTE PTR [eax],al
  4027f1:	add    BYTE PTR [eax],al
  4027f3:	add    BYTE PTR [edx+0x0],ah
  4027f6:	jae    0x4027f8
  4027f8:	sub    eax,0x79004300
  4027fd:	add    BYTE PTR [edx+0x0],dh
  402800:	ins    BYTE PTR es:[edi],dx
  402801:	add    BYTE PTR [eax],al
  402803:	add    BYTE PTR [edx+0x0],ah
  402806:	jae    0x402808
  402808:	sub    eax,0x61004c00
  40280d:	add    BYTE PTR [eax+eax*1+0x6e],dh
  402811:	add    BYTE PTR [eax],al
  402813:	add    BYTE PTR [ebx+0x0],dh
  402816:	jb     0x402818
  402818:	sub    eax,0x79004300
  40281d:	add    BYTE PTR [edx+0x0],dh
  402820:	ins    BYTE PTR es:[edi],dx
  402821:	add    BYTE PTR [eax],al
  402823:	add    BYTE PTR [ebx+0x0],dh
  402826:	jb     0x402828
  402828:	sub    eax,0x61004c00
  40282d:	add    BYTE PTR [eax+eax*1+0x6e],dh
  402831:	add    BYTE PTR [eax],al
  402833:	add    BYTE PTR [ebx+0x0],dh
  402836:	ins    DWORD PTR es:[edi],dx
  402837:	add    BYTE PTR [esi+0x0],ch
  40283a:	add    BYTE PTR [eax],al
  40283c:	popa   
  40283d:	add    BYTE PTR [edx+0x0],bh
  402840:	sub    eax,0x79004300
  402845:	add    BYTE PTR [edx+0x0],dh
  402848:	ins    BYTE PTR es:[edi],dx
  402849:	add    BYTE PTR [eax],al
  40284b:	add    BYTE PTR [ebx+0x0],dh
  40284e:	ins    DWORD PTR es:[edi],dx
  40284f:	add    BYTE PTR [ebx+0x0],dh
  402852:	add    BYTE PTR [eax],al
  402854:	jp     0x402856
  402856:	push   0x0
  40285b:	add    BYTE PTR [esi+0x0],ch
  40285e:	outs   dx,BYTE PTR ds:[esi]
  40285f:	add    BYTE PTR [eax],al
  402861:	add    BYTE PTR [eax],al
  402863:	add    BYTE PTR [edx+0x0],ah
  402866:	jae    0x402868
  402868:	add    BYTE PTR [eax],al
  40286a:	add    BYTE PTR [eax],al
  40286c:	popa   
  40286d:	add    BYTE PTR [edx+0x0],bh
  402870:	sub    eax,0x61004c00
  402875:	add    BYTE PTR [eax+eax*1+0x6e],dh
  402879:	add    BYTE PTR [eax],al
  40287b:	add    BYTE PTR [ebx+0x0],dh
  40287e:	ins    DWORD PTR es:[edi],dx
  40287f:	add    BYTE PTR [ecx+0x0],ah
  402882:	add    BYTE PTR [eax],al
  402884:	jne    0x402886
  402886:	jp     0x402888
  402888:	sub    eax,0x79004300
  40288d:	add    BYTE PTR [edx+0x0],dh
  402890:	ins    BYTE PTR es:[edi],dx
  402891:	add    BYTE PTR [eax],al
  402893:	add    BYTE PTR [ebp+0x0],ch
  402896:	outs   dx,BYTE PTR ds:[esi]
  402897:	add    BYTE PTR ds:0x79004300,ch
  40289d:	add    BYTE PTR [edx+0x0],dh
  4028a0:	ins    BYTE PTR es:[edi],dx
  4028a1:	add    BYTE PTR [eax],al
  4028a3:	add    BYTE PTR [ecx+0x0],ch
  4028a6:	jne    0x4028a8
  4028a8:	sub    eax,0x61004300
  4028ad:	add    BYTE PTR [esi+0x0],ch
  4028b0:	jae    0x4028b2
  4028b2:	add    BYTE PTR [eax],al
  4028b4:	je     0x4028b6
  4028b6:	jp     0x4028b8
  4028b8:	ins    DWORD PTR es:[edi],dx
  4028b9:	add    BYTE PTR ds:0x66005400,ch
  4028bf:	add    BYTE PTR [esi+0x0],ch
  4028c2:	add    BYTE PTR [bx+si],al
  4028c5:	add    BYTE PTR [eax],al
  4028c7:	add    BYTE PTR [esi+0x0],ch
  4028ca:	bound  eax,QWORD PTR [eax]
  4028cc:	add    BYTE PTR [eax],al
  4028ce:	add    BYTE PTR [eax],al
  4028d0:	jae    0x4028d2
  4028d2:	jb     0x4028d4
  4028d4:	add    BYTE PTR [eax],al
  4028d6:	add    BYTE PTR [eax],al
  4028d8:	je     0x4028da
  4028da:	add    BYTE PTR [di],ch
  4028dd:	add    BYTE PTR [ebx+0x0],al
  4028e0:	jns    0x4028e2
  4028e2:	jb     0x4028e4
  4028e4:	ins    BYTE PTR es:[edi],dx
  4028e5:	add    BYTE PTR [eax],al
  4028e7:	add    BYTE PTR [eax+eax*1+0x73],ah
  4028eb:	add    BYTE PTR [edx+0x0],ah
  4028ee:	add    BYTE PTR [eax],al
  4028f0:	jae    0x4028f2
  4028f2:	ins    DWORD PTR es:[edi],dx
  4028f3:	add    BYTE PTR [edx+0x0],ch
  4028f6:	add    BYTE PTR [eax],al
  4028f8:	jne    0x4028fa
  4028fa:	jp     0x4028fc
  4028fc:	sub    eax,0x61004c00
  402901:	add    BYTE PTR [eax+eax*1+0x6e],dh
  402905:	add    BYTE PTR [eax],al
  402907:	add    BYTE PTR [eax+0x0],dh
  40290a:	popa   
  40290b:	add    BYTE PTR ds:0x72004100,ch
  402911:	add    BYTE PTR [ecx+0x0],ah
  402914:	bound  eax,QWORD PTR [eax]
  402916:	add    BYTE PTR [eax],al
  402918:	ins    DWORD PTR es:[edi],dx
  402919:	add    BYTE PTR [esi+0x0],ch
  40291c:	sub    eax,0x6f004d00
  402921:	add    BYTE PTR [esi+0x0],ch
  402924:	add    BYTE PTR [bx+si],al
  402927:	add    BYTE PTR [ebx+0x0],dh
  40292a:	add    BYTE PTR fs:0x72004100,ch
  402931:	add    BYTE PTR [ecx+0x0],ah
  402934:	bound  eax,QWORD PTR [eax]
  402936:	add    BYTE PTR [eax],al
  402938:	arpl   WORD PTR [eax],ax
  40293a:	push   0x2d007200
  40293f:	add    BYTE PTR [ebx+0x0],al
  402942:	push   0x72006500
  402947:	add    BYTE PTR [eax],al
  402949:	add    BYTE PTR [eax],al
  40294b:	add    BYTE PTR [ecx+0x0],ch
  40294e:	jne    0x402950
  402950:	sub    eax,0x61004c00
  402955:	add    BYTE PTR [eax+eax*1+0x6e],dh
  402959:	add    BYTE PTR [eax],al
  40295b:	add    BYTE PTR [eax+eax*1+0x7a],dh
  40295f:	add    BYTE PTR [ebp+0x0],ch
  402962:	sub    eax,0x61004c00
  402967:	add    BYTE PTR [eax+eax*1+0x6e],dh
  40296b:	add    BYTE PTR [eax],al
  40296d:	add    BYTE PTR [eax],al
  40296f:	add    BYTE PTR [esi+0x0],ah
  402972:	data16 add BYTE PTR ds:0x61004c00,ch
  402979:	add    BYTE PTR [eax+eax*1+0x6e],dh
  40297d:	add    BYTE PTR [eax],al
  40297f:	add    BYTE PTR [eax+0x0],ch
  402982:	popa   
  402983:	add    BYTE PTR ds:0x61004c00,ch
  402989:	add    BYTE PTR [eax+eax*1+0x6e],dh
  40298d:	add    BYTE PTR [eax],al
  40298f:	add    BYTE PTR [ebx+0x0],ch
  402992:	jne    0x402994
  402994:	sub    eax,0x72004100
  402999:	add    BYTE PTR [ecx+0x0],ah
  40299c:	bound  eax,QWORD PTR [eax]
  40299e:	add    BYTE PTR [eax],al
  4029a0:	add    DWORD PTR [eax],eax
  4029a2:	add    BYTE PTR [eax],al
  4029a4:	call   0x754069bf
  4029a9:	add    BYTE PTR [eax],al
  4029ab:	add    BYTE PTR [edx],al
  4029ad:	add    BYTE PTR [eax],al
  4029af:	add    al,dh
  4029b1:	push   ss
  4029b2:	inc    eax
  4029b3:	add    BYTE PTR [ebp+0x0],dh
  4029b6:	add    BYTE PTR [eax],al
  4029b8:	add    eax,DWORD PTR [eax]
  4029ba:	add    BYTE PTR [eax],al
  4029bc:	clc    
  4029bd:	push   ss
  4029be:	inc    eax
  4029bf:	add    BYTE PTR [ebp+0x0],dh
  4029c2:	add    BYTE PTR [eax],al
  4029c4:	add    al,0x0
  4029c6:	add    BYTE PTR [eax],al
  4029c8:	jl     0x4029df
  4029ca:	inc    eax
  4029cb:	add    BYTE PTR [ebx+0x5000001],al
  4029d1:	add    BYTE PTR [eax],al
  4029d3:	add    BYTE PTR [eax],al
  4029d5:	pop    ss
  4029d6:	inc    eax
  4029d7:	add    BYTE PTR [ebp+0x0],dh
  4029da:	add    BYTE PTR [eax],al
  4029dc:	push   es
  4029dd:	add    BYTE PTR [eax],al
  4029df:	add    BYTE PTR [eax],cl
  4029e1:	pop    ss
  4029e2:	inc    eax
  4029e3:	add    BYTE PTR [ebp+0x0],dh
  4029e6:	add    BYTE PTR [eax],al
  4029e8:	pop    es
  4029e9:	add    BYTE PTR [eax],al
  4029eb:	add    BYTE PTR [eax],dl
  4029ed:	pop    ss
  4029ee:	inc    eax
  4029ef:	add    BYTE PTR [ebp+0x0],dh
  4029f2:	add    BYTE PTR [eax],al
  4029f4:	or     BYTE PTR [eax],al
  4029f6:	add    BYTE PTR [eax],al
  4029f8:	sbb    BYTE PTR [edi],dl
  4029fa:	inc    eax
  4029fb:	add    BYTE PTR [ebp+0x0],dh
  4029fe:	add    BYTE PTR [eax],al
  402a00:	or     DWORD PTR [eax],eax
  402a02:	add    BYTE PTR [eax],al
  402a04:	and    BYTE PTR [edi],dl
  402a06:	inc    eax
  402a07:	add    BYTE PTR [ebp+0x0],dh
  402a0a:	add    BYTE PTR [eax],al
  402a0c:	or     al,BYTE PTR [eax]
  402a0e:	add    BYTE PTR [eax],al
  402a10:	sub    BYTE PTR [edi],dl
  402a12:	inc    eax
  402a13:	add    BYTE PTR [ebp+0x0],dh
  402a16:	add    BYTE PTR [eax],al
  402a18:	or     eax,DWORD PTR [eax]
  402a1a:	add    BYTE PTR [eax],al
  402a1c:	xor    BYTE PTR [edi],dl
  402a1e:	inc    eax
  402a1f:	add    BYTE PTR [ebp+0x0],dh
  402a22:	add    BYTE PTR [eax],al
  402a24:	or     al,0x0
  402a26:	add    BYTE PTR [eax],al
  402a28:	cmp    BYTE PTR [edi],dl
  402a2a:	inc    eax
  402a2b:	add    BYTE PTR [ebp+0x0],dh
  402a2e:	add    BYTE PTR [eax],al
  402a30:	or     eax,0x40000000
  402a35:	pop    ss
  402a36:	inc    eax
  402a37:	add    BYTE PTR [ebp+0x0],dh
  402a3a:	add    BYTE PTR [eax],al
  402a3c:	push   cs
  402a3d:	add    BYTE PTR [eax],al
  402a3f:	add    BYTE PTR [eax+0x17],cl
  402a42:	inc    eax
  402a43:	add    BYTE PTR [ebp+0x0],dh
  402a46:	add    BYTE PTR [eax],al
  402a48:	sldt   WORD PTR [eax]
  402a4b:	add    BYTE PTR [eax+0x17],dl
  402a4e:	inc    eax
  402a4f:	add    BYTE PTR [ebp+0x0],dh
  402a52:	add    BYTE PTR [eax],al
  402a54:	adc    BYTE PTR [eax],al
  402a56:	add    BYTE PTR [eax],al
  402a58:	pop    eax
  402a59:	pop    ss
  402a5a:	inc    eax
  402a5b:	add    BYTE PTR [ebp+0x0],dh
  402a5e:	add    BYTE PTR [eax],al
  402a60:	adc    DWORD PTR [eax],eax
  402a62:	add    BYTE PTR [eax],al
  402a64:	pusha  
  402a65:	pop    ss
  402a66:	inc    eax
  402a67:	add    BYTE PTR [ebp+0x0],dh
  402a6a:	add    BYTE PTR [eax],al
  402a6c:	adc    al,BYTE PTR [eax]
  402a6e:	add    BYTE PTR [eax],al
  402a70:	push   0x75004017
  402a75:	add    BYTE PTR [eax],al
  402a77:	add    BYTE PTR [ebx],dl
  402a79:	add    BYTE PTR [eax],al
  402a7b:	add    BYTE PTR [eax+0x17],dh
  402a7e:	inc    eax
  402a7f:	add    BYTE PTR [ebp+0x0],dh
  402a82:	add    BYTE PTR [eax],al
  402a84:	adc    al,0x0
  402a86:	add    BYTE PTR [eax],al
  402a88:	js     0x402aa1
  402a8a:	inc    eax
  402a8b:	add    BYTE PTR [ebp+0x0],dh
  402a8e:	add    BYTE PTR [eax],al
  402a90:	adc    eax,0x80000000
  402a95:	pop    ss
  402a96:	inc    eax
  402a97:	add    BYTE PTR [ebp+0x0],dh
  402a9a:	add    BYTE PTR [eax],al
  402a9c:	push   ss
  402a9d:	add    BYTE PTR [eax],al
  402a9f:	add    BYTE PTR [eax+0x75004017],cl
  402aa5:	add    BYTE PTR [eax],al
  402aa7:	add    BYTE PTR [edi],dl
  402aa9:	add    BYTE PTR [eax],al
  402aab:	add    BYTE PTR [eax+0x75004017],dl
  402ab1:	add    BYTE PTR [eax],al
  402ab3:	add    BYTE PTR [eax],bl
  402ab5:	add    BYTE PTR [eax],al
  402ab7:	add    BYTE PTR [eax+0x75004017],bl
  402abd:	add    BYTE PTR [eax],al
  402abf:	add    BYTE PTR [ecx],bl
  402ac1:	add    BYTE PTR [eax],al
  402ac3:	add    BYTE PTR [eax+0x75004017],ah
  402ac9:	add    BYTE PTR [eax],al
  402acb:	add    BYTE PTR [edx],bl
  402acd:	add    BYTE PTR [eax],al
  402acf:	add    BYTE PTR [eax+0x75004017],ch
  402ad5:	add    BYTE PTR [eax],al
  402ad7:	add    BYTE PTR [ebx],bl
  402ad9:	add    BYTE PTR [eax],al
  402adb:	add    BYTE PTR [eax+0x75004017],dh
  402ae1:	add    BYTE PTR [eax],al
  402ae3:	add    BYTE PTR [eax+eax*1],bl
  402ae6:	add    BYTE PTR [eax],al
  402ae8:	mov    eax,0x75004017
  402aed:	add    BYTE PTR [eax],al
  402aef:	add    BYTE PTR ds:0xc0000000,bl
  402af5:	pop    ss
  402af6:	inc    eax
  402af7:	add    BYTE PTR [ebp+0x0],dh
  402afa:	add    BYTE PTR [eax],al
  402afc:	push   ds
  402afd:	add    BYTE PTR [eax],al
  402aff:	add    al,cl
  402b01:	pop    ss
  402b02:	inc    eax
  402b03:	add    BYTE PTR [ebp+0x0],dh
  402b06:	add    BYTE PTR [eax],al
  402b08:	pop    ds
  402b09:	add    BYTE PTR [eax],al
  402b0b:	add    al,dl
  402b0d:	pop    ss
  402b0e:	inc    eax
  402b0f:	add    BYTE PTR [ebp+0x0],dh
  402b12:	add    BYTE PTR [eax],al
  402b14:	and    BYTE PTR [eax],al
  402b16:	add    BYTE PTR [eax],al
  402b18:	fcom   DWORD PTR [edi]
  402b1a:	inc    eax
  402b1b:	add    BYTE PTR [ebp+0x0],dh
  402b1e:	add    BYTE PTR [eax],al
  402b20:	and    DWORD PTR [eax],eax
  402b22:	add    BYTE PTR [eax],al
  402b24:	loopne 0x402b3d
  402b26:	inc    eax
  402b27:	add    BYTE PTR [ebp+0x0],dh
  402b2a:	add    BYTE PTR [eax],al
  402b2c:	and    al,BYTE PTR [eax]
  402b2e:	add    BYTE PTR [eax],al
  402b30:	call   0x75406b4c
  402b35:	add    BYTE PTR [eax],al
  402b37:	add    BYTE PTR [ebx],ah
  402b39:	add    BYTE PTR [eax],al
  402b3b:	add    al,dh
  402b3d:	pop    ss
  402b3e:	inc    eax
  402b3f:	add    BYTE PTR [ebp+0x0],dh
  402b42:	add    BYTE PTR [eax],al
  402b44:	and    al,0x0
  402b46:	add    BYTE PTR [eax],al
  402b48:	clc    
  402b49:	pop    ss
  402b4a:	inc    eax
  402b4b:	add    BYTE PTR [ebp+0x0],dh
  402b4e:	add    BYTE PTR [eax],al
  402b50:	and    eax,0x0
  402b55:	sbb    BYTE PTR [eax+0x0],al
  402b58:	jne    0x402b5a
  402b5a:	add    BYTE PTR [eax],al
  402b5c:	add    BYTE PTR es:[eax],al
  402b5f:	add    BYTE PTR [eax],cl
  402b61:	sbb    BYTE PTR [eax+0x0],al
  402b64:	jne    0x402b66
  402b66:	add    BYTE PTR [eax],al
  402b68:	daa    
  402b69:	add    BYTE PTR [eax],al
  402b6b:	add    BYTE PTR [eax],dl
  402b6d:	sbb    BYTE PTR [eax+0x0],al
  402b70:	jne    0x402b72
  402b72:	add    BYTE PTR [eax],al
  402b74:	sub    BYTE PTR [eax],al
  402b76:	add    BYTE PTR [eax],al
  402b78:	sbb    BYTE PTR [eax],bl
  402b7a:	inc    eax
  402b7b:	add    BYTE PTR [ebp+0x0],dh
  402b7e:	add    BYTE PTR [eax],al
  402b80:	sub    DWORD PTR [eax],eax
  402b82:	add    BYTE PTR [eax],al
  402b84:	and    BYTE PTR [eax],bl
  402b86:	inc    eax
  402b87:	add    BYTE PTR [ebp+0x0],dh
  402b8a:	add    BYTE PTR [eax],al
  402b8c:	sub    al,BYTE PTR [eax]
  402b8e:	add    BYTE PTR [eax],al
  402b90:	sub    BYTE PTR [eax],bl
  402b92:	inc    eax
  402b93:	add    BYTE PTR [ebp+0x0],dh
  402b96:	add    BYTE PTR [eax],al
  402b98:	sub    eax,DWORD PTR [eax]
  402b9a:	add    BYTE PTR [eax],al
  402b9c:	xor    BYTE PTR [eax],bl
  402b9e:	inc    eax
  402b9f:	add    BYTE PTR [ebp+0x0],dh
  402ba2:	add    BYTE PTR [eax],al
  402ba4:	sub    al,0x0
  402ba6:	add    BYTE PTR [eax],al
  402ba8:	cmp    BYTE PTR [eax],bl
  402baa:	inc    eax
  402bab:	add    BYTE PTR [ebp+0x0],dh
  402bae:	add    BYTE PTR [eax],al
  402bb0:	sub    eax,0x40000000
  402bb5:	sbb    BYTE PTR [eax+0x0],al
  402bb8:	jne    0x402bba
  402bba:	add    BYTE PTR [eax],al
  402bbc:	add    BYTE PTR cs:[eax],al
  402bbf:	add    BYTE PTR [eax+0x18],cl
  402bc2:	inc    eax
  402bc3:	add    BYTE PTR [ebp+0x0],dh
  402bc6:	add    BYTE PTR [eax],al
  402bc8:	das    
  402bc9:	add    BYTE PTR [eax],al
  402bcb:	add    BYTE PTR [eax+0x18],dl
  402bce:	inc    eax
  402bcf:	add    BYTE PTR [ebp+0x0],dh
  402bd2:	add    BYTE PTR [eax],al
  402bd4:	xor    BYTE PTR [eax],al
  402bd6:	add    BYTE PTR [eax],al
  402bd8:	pop    eax
  402bd9:	sbb    BYTE PTR [eax+0x0],al
  402bdc:	jne    0x402bde
  402bde:	add    BYTE PTR [eax],al
  402be0:	xor    DWORD PTR [eax],eax
  402be2:	add    BYTE PTR [eax],al
  402be4:	pusha  
  402be5:	sbb    BYTE PTR [eax+0x0],al
  402be8:	jne    0x402bea
  402bea:	add    BYTE PTR [eax],al
  402bec:	xor    al,BYTE PTR [eax]
  402bee:	add    BYTE PTR [eax],al
  402bf0:	push   0x75004018
  402bf5:	add    BYTE PTR [eax],al
  402bf7:	add    BYTE PTR [ebx],dh
  402bf9:	add    BYTE PTR [eax],al
  402bfb:	add    BYTE PTR [eax+0x18],dh
  402bfe:	inc    eax
  402bff:	add    BYTE PTR [ebp+0x0],dh
  402c02:	add    BYTE PTR [eax],al
  402c04:	xor    al,0x0
  402c06:	add    BYTE PTR [eax],al
  402c08:	js     0x402c22
  402c0a:	inc    eax
  402c0b:	add    BYTE PTR [ebp+0x0],dh
  402c0e:	add    BYTE PTR [eax],al
  402c10:	xor    eax,0x80000000
  402c15:	sbb    BYTE PTR [eax+0x0],al
  402c18:	jne    0x402c1a
  402c1a:	add    BYTE PTR [eax],al
  402c1c:	add    BYTE PTR ss:[eax],al
  402c1f:	add    BYTE PTR [eax+0x75004018],cl
  402c25:	add    BYTE PTR [eax],al
  402c27:	add    BYTE PTR [edi],dh
  402c29:	add    BYTE PTR [eax],al
  402c2b:	add    BYTE PTR [eax+0x75004018],dl
  402c31:	add    BYTE PTR [eax],al
  402c33:	add    BYTE PTR [eax],bh
  402c35:	add    BYTE PTR [eax],al
  402c37:	add    BYTE PTR [eax+0x75004018],bl
  402c3d:	add    BYTE PTR [eax],al
  402c3f:	add    BYTE PTR [ecx],bh
  402c41:	add    BYTE PTR [eax],al
  402c43:	add    BYTE PTR [eax+0x75004018],ah
  402c49:	add    BYTE PTR [eax],al
  402c4b:	add    BYTE PTR [edx],bh
  402c4d:	add    BYTE PTR [eax],al
  402c4f:	add    BYTE PTR [eax+0x75004018],ch
  402c55:	add    BYTE PTR [eax],al
  402c57:	add    BYTE PTR [ebx],bh
  402c59:	add    BYTE PTR [eax],al
  402c5b:	add    BYTE PTR [eax+0x75004018],dh
  402c61:	add    BYTE PTR [eax],al
  402c63:	add    BYTE PTR [eax+eax*1],bh
  402c66:	add    BYTE PTR [eax],al
  402c68:	mov    eax,0x75004018
  402c6d:	add    BYTE PTR [eax],al
  402c6f:	add    BYTE PTR [esi],bh
  402c71:	add    BYTE PTR [eax],al
  402c73:	add    al,al
  402c75:	sbb    BYTE PTR [eax+0x0],al
  402c78:	jne    0x402c7a
  402c7a:	add    BYTE PTR [eax],al
  402c7c:	aas    
  402c7d:	add    BYTE PTR [eax],al
  402c7f:	add    al,cl
  402c81:	sbb    BYTE PTR [eax+0x0],al
  402c84:	jne    0x402c86
  402c86:	add    BYTE PTR [eax],al
  402c88:	inc    eax
  402c89:	add    BYTE PTR [eax],al
  402c8b:	add    al,dl
  402c8d:	sbb    BYTE PTR [eax+0x0],al
  402c90:	jne    0x402c92
  402c92:	add    BYTE PTR [eax],al
  402c94:	inc    ecx
  402c95:	add    BYTE PTR [eax],al
  402c97:	add    al,bl
  402c99:	sbb    BYTE PTR [eax+0x0],al
  402c9c:	jne    0x402c9e
  402c9e:	add    BYTE PTR [eax],al
  402ca0:	inc    edx
  402ca1:	add    BYTE PTR [eax],al
  402ca3:	add    al,ah
  402ca5:	sbb    BYTE PTR [eax+0x0],al
  402ca8:	jne    0x402caa
  402caa:	add    BYTE PTR [eax],al
  402cac:	inc    ebx
  402cad:	add    BYTE PTR [eax],al
  402caf:	add    al,ch
  402cb1:	sbb    BYTE PTR [eax+0x0],al
  402cb4:	jne    0x402cb6
  402cb6:	add    BYTE PTR [eax],al
  402cb8:	inc    esp
  402cb9:	add    BYTE PTR [eax],al
  402cbb:	add    al,dh
  402cbd:	sbb    BYTE PTR [eax+0x0],al
  402cc0:	jne    0x402cc2
  402cc2:	add    BYTE PTR [eax],al
  402cc4:	inc    ebp
  402cc5:	add    BYTE PTR [eax],al
  402cc7:	add    al,bh
  402cc9:	sbb    BYTE PTR [eax+0x0],al
  402ccc:	jne    0x402cce
  402cce:	add    BYTE PTR [eax],al
  402cd0:	inc    esi
  402cd1:	add    BYTE PTR [eax],al
  402cd3:	add    BYTE PTR [eax],al
  402cd5:	sbb    DWORD PTR [eax+0x0],eax
  402cd8:	jne    0x402cda
  402cda:	add    BYTE PTR [eax],al
  402cdc:	inc    edi
  402cdd:	add    BYTE PTR [eax],al
  402cdf:	add    BYTE PTR [eax],cl
  402ce1:	sbb    DWORD PTR [eax+0x0],eax
  402ce4:	jne    0x402ce6
  402ce6:	add    BYTE PTR [eax],al
  402ce8:	dec    eax
  402ce9:	add    BYTE PTR [eax],al
  402ceb:	add    BYTE PTR [eax],dl
  402ced:	sbb    DWORD PTR [eax+0x0],eax
  402cf0:	jne    0x402cf2
  402cf2:	add    BYTE PTR [eax],al
  402cf4:	dec    ecx
  402cf5:	add    BYTE PTR [eax],al
  402cf7:	add    BYTE PTR [eax],bl
  402cf9:	sbb    DWORD PTR [eax+0x0],eax
  402cfc:	jne    0x402cfe
  402cfe:	add    BYTE PTR [eax],al
  402d00:	dec    edx
  402d01:	add    BYTE PTR [eax],al
  402d03:	add    BYTE PTR [eax],ah
  402d05:	sbb    DWORD PTR [eax+0x0],eax
  402d08:	jne    0x402d0a
  402d0a:	add    BYTE PTR [eax],al
  402d0c:	dec    ebx
  402d0d:	add    BYTE PTR [eax],al
  402d0f:	add    BYTE PTR [eax],ch
  402d11:	sbb    DWORD PTR [eax+0x0],eax
  402d14:	jne    0x402d16
  402d16:	add    BYTE PTR [eax],al
  402d18:	dec    esp
  402d19:	add    BYTE PTR [eax],al
  402d1b:	add    BYTE PTR [eax],dh
  402d1d:	sbb    DWORD PTR [eax+0x0],eax
  402d20:	jne    0x402d22
  402d22:	add    BYTE PTR [eax],al
  402d24:	dec    ebp
  402d25:	add    BYTE PTR [eax],al
  402d27:	add    BYTE PTR [eax],bh
  402d29:	sbb    DWORD PTR [eax+0x0],eax
  402d2c:	jne    0x402d2e
  402d2e:	add    BYTE PTR [eax],al
  402d30:	dec    esi
  402d31:	add    BYTE PTR [eax],al
  402d33:	add    BYTE PTR [eax+0x19],al
  402d36:	inc    eax
  402d37:	add    BYTE PTR [ebp+0x0],dh
  402d3a:	add    BYTE PTR [eax],al
  402d3c:	dec    edi
  402d3d:	add    BYTE PTR [eax],al
  402d3f:	add    BYTE PTR [eax+0x19],cl
  402d42:	inc    eax
  402d43:	add    BYTE PTR [ebp+0x0],dh
  402d46:	add    BYTE PTR [eax],al
  402d48:	push   eax
  402d49:	add    BYTE PTR [eax],al
  402d4b:	add    BYTE PTR [eax+0x19],dl
  402d4e:	inc    eax
  402d4f:	add    BYTE PTR [ebp+0x0],dh
  402d52:	add    BYTE PTR [eax],al
  402d54:	push   ecx
  402d55:	add    BYTE PTR [eax],al
  402d57:	add    BYTE PTR [eax+0x19],bl
  402d5a:	inc    eax
  402d5b:	add    BYTE PTR [ebp+0x0],dh
  402d5e:	add    BYTE PTR [eax],al
  402d60:	push   edx
  402d61:	add    BYTE PTR [eax],al
  402d63:	add    BYTE PTR [eax+0x19],ah
  402d66:	inc    eax
  402d67:	add    BYTE PTR [ebp+0x0],dh
  402d6a:	add    BYTE PTR [eax],al
  402d6c:	push   ebx
  402d6d:	add    BYTE PTR [eax],al
  402d6f:	add    BYTE PTR [eax+0x19],ch
  402d72:	inc    eax
  402d73:	add    BYTE PTR [ebp+0x0],dh
  402d76:	add    BYTE PTR [eax],al
  402d78:	push   esp
  402d79:	add    BYTE PTR [eax],al
  402d7b:	add    BYTE PTR [eax+0x19],dh
  402d7e:	inc    eax
  402d7f:	add    BYTE PTR [ebp+0x0],dh
  402d82:	add    BYTE PTR [eax],al
  402d84:	push   ebp
  402d85:	add    BYTE PTR [eax],al
  402d87:	add    BYTE PTR [eax+0x19],bh
  402d8a:	inc    eax
  402d8b:	add    BYTE PTR [ebp+0x0],dh
  402d8e:	add    BYTE PTR [eax],al
  402d90:	push   esi
  402d91:	add    BYTE PTR [eax],al
  402d93:	add    BYTE PTR [eax+0x75004019],al
  402d99:	add    BYTE PTR [eax],al
  402d9b:	add    BYTE PTR [edi+0x0],dl
  402d9e:	add    BYTE PTR [eax],al
  402da0:	mov    BYTE PTR [ecx],bl
  402da2:	inc    eax
  402da3:	add    BYTE PTR [ebp+0x0],dh
  402da6:	add    BYTE PTR [eax],al
  402da8:	pop    ecx
  402da9:	add    BYTE PTR [eax],al
  402dab:	add    BYTE PTR [eax+0x75004019],dl
  402db1:	add    BYTE PTR [eax],al
  402db3:	add    BYTE PTR [edx+0x0],bl
  402db6:	add    BYTE PTR [eax],al
  402db8:	cwde   
  402db9:	sbb    DWORD PTR [eax+0x0],eax
  402dbc:	jne    0x402dbe
  402dbe:	add    BYTE PTR [eax],al
  402dc0:	pop    ebx
  402dc1:	add    BYTE PTR [eax],al
  402dc3:	add    BYTE PTR [eax+0x75004019],ah
  402dc9:	add    BYTE PTR [eax],al
  402dcb:	add    BYTE PTR [eax+eax*1+0x0],bl
  402dcf:	add    BYTE PTR [eax+0x75004019],ch
  402dd5:	add    BYTE PTR [eax],al
  402dd7:	add    BYTE PTR [ebp+0x0],bl
  402dda:	add    BYTE PTR [eax],al
  402ddc:	mov    al,0x19
  402dde:	inc    eax
  402ddf:	add    BYTE PTR [ebp+0x0],dh
  402de2:	add    BYTE PTR [eax],al
  402de4:	pop    esi
  402de5:	add    BYTE PTR [eax],al
  402de7:	add    BYTE PTR [eax+0x75004019],bh
  402ded:	add    BYTE PTR [eax],al
  402def:	add    BYTE PTR [edi+0x0],bl
  402df2:	add    BYTE PTR [eax],al
  402df4:	rcr    BYTE PTR [ecx],0x40
  402df7:	add    BYTE PTR [ebp+0x0],dh
  402dfa:	add    BYTE PTR [eax],al
  402dfc:	pusha  
  402dfd:	add    BYTE PTR [eax],al
  402dff:	add    al,cl
  402e01:	sbb    DWORD PTR [eax+0x0],eax
  402e04:	jne    0x402e06
  402e06:	add    BYTE PTR [eax],al
  402e08:	popa   
  402e09:	add    BYTE PTR [eax],al
  402e0b:	add    al,dl
  402e0d:	sbb    DWORD PTR [eax+0x0],eax
  402e10:	jne    0x402e12
  402e12:	add    BYTE PTR [eax],al
  402e14:	bound  eax,QWORD PTR [eax]
  402e16:	add    BYTE PTR [eax],al
  402e18:	fcomp  DWORD PTR [ecx]
  402e1a:	inc    eax
  402e1b:	add    BYTE PTR [ebp+0x0],dh
  402e1e:	add    BYTE PTR [eax],al
  402e20:	arpl   WORD PTR [eax],ax
  402e22:	add    BYTE PTR [eax],al
  402e24:	loopne 0x402e3f
  402e26:	inc    eax
  402e27:	add    BYTE PTR [ebp+0x0],dh
  402e2a:	add    BYTE PTR [eax],al
  402e2c:	add    BYTE PTR fs:[eax],al
  402e2f:	add    al,ch
  402e31:	sbb    DWORD PTR [eax+0x0],eax
  402e34:	jne    0x402e36
  402e36:	add    BYTE PTR [eax],al
  402e38:	add    BYTE PTR gs:[eax],al
  402e3b:	add    al,dh
  402e3d:	sbb    DWORD PTR [eax+0x0],eax
  402e40:	jne    0x402e42
  402e42:	add    BYTE PTR [eax],al
  402e44:	add    BYTE PTR [bx+si],al
  402e47:	add    al,bh
  402e49:	sbb    DWORD PTR [eax+0x0],eax
  402e4c:	jne    0x402e4e
  402e4e:	add    BYTE PTR [eax],al
  402e50:	push   0x0
  402e55:	sbb    al,BYTE PTR [eax+0x0]
  402e58:	jne    0x402e5a
  402e5a:	add    BYTE PTR [eax],al
  402e5c:	push   0x0
  402e5e:	add    BYTE PTR [eax],al
  402e60:	or     BYTE PTR [edx],bl
  402e62:	inc    eax
  402e63:	add    BYTE PTR [ebp+0x0],dh
  402e66:	add    BYTE PTR [eax],al
  402e68:	imul   eax,DWORD PTR [eax],0x0
  402e6b:	add    BYTE PTR [eax],dl
  402e6d:	sbb    al,BYTE PTR [eax+0x0]
  402e70:	jne    0x402e72
  402e72:	add    BYTE PTR [eax],al
  402e74:	ins    BYTE PTR es:[edi],dx
  402e75:	add    BYTE PTR [eax],al
  402e77:	add    BYTE PTR [eax],bl
  402e79:	sbb    al,BYTE PTR [eax+0x0]
  402e7c:	jne    0x402e7e
  402e7e:	add    BYTE PTR [eax],al
  402e80:	ins    DWORD PTR es:[edi],dx
  402e81:	add    BYTE PTR [eax],al
  402e83:	add    BYTE PTR [eax],ah
  402e85:	sbb    al,BYTE PTR [eax+0x0]
  402e88:	jne    0x402e8a
  402e8a:	add    BYTE PTR [eax],al
  402e8c:	outs   dx,BYTE PTR ds:[esi]
  402e8d:	add    BYTE PTR [eax],al
  402e8f:	add    BYTE PTR [eax],ch
  402e91:	sbb    al,BYTE PTR [eax+0x0]
  402e94:	jne    0x402e96
  402e96:	add    BYTE PTR [eax],al
  402e98:	outs   dx,DWORD PTR ds:[esi]
  402e99:	add    BYTE PTR [eax],al
  402e9b:	add    BYTE PTR [eax],dh
  402e9d:	sbb    al,BYTE PTR [eax+0x0]
  402ea0:	jne    0x402ea2
  402ea2:	add    BYTE PTR [eax],al
  402ea4:	jo     0x402ea6
  402ea6:	add    BYTE PTR [eax],al
  402ea8:	cmp    BYTE PTR [edx],bl
  402eaa:	inc    eax
  402eab:	add    BYTE PTR [ebp+0x0],dh
  402eae:	add    BYTE PTR [eax],al
  402eb0:	jb     0x402eb2
  402eb2:	add    BYTE PTR [eax],al
  402eb4:	inc    eax
  402eb5:	sbb    al,BYTE PTR [eax+0x0]
  402eb8:	jne    0x402eba
  402eba:	add    BYTE PTR [eax],al
  402ebc:	jae    0x402ebe
  402ebe:	add    BYTE PTR [eax],al
  402ec0:	dec    eax
  402ec1:	sbb    al,BYTE PTR [eax+0x0]
  402ec4:	jne    0x402ec6
  402ec6:	add    BYTE PTR [eax],al
  402ec8:	je     0x402eca
  402eca:	add    BYTE PTR [eax],al
  402ecc:	push   eax
  402ecd:	sbb    al,BYTE PTR [eax+0x0]
  402ed0:	jne    0x402ed2
  402ed2:	add    BYTE PTR [eax],al
  402ed4:	jne    0x402ed6
  402ed6:	add    BYTE PTR [eax],al
  402ed8:	pop    eax
  402ed9:	sbb    al,BYTE PTR [eax+0x0]
  402edc:	jne    0x402ede
  402ede:	add    BYTE PTR [eax],al
  402ee0:	ja     0x402ee2
  402ee2:	add    BYTE PTR [eax],al
  402ee4:	pusha  
  402ee5:	sbb    al,BYTE PTR [eax+0x0]
  402ee8:	jne    0x402eea
  402eea:	add    BYTE PTR [eax],al
  402eec:	js     0x402eee
  402eee:	add    BYTE PTR [eax],al
  402ef0:	push   0x7500401a
  402ef5:	add    BYTE PTR [eax],al
  402ef7:	add    BYTE PTR [edx+0x0],bh
  402efa:	add    BYTE PTR [eax],al
  402efc:	jo     0x402f18
  402efe:	inc    eax
  402eff:	add    BYTE PTR [ebp+0x0],dh
  402f02:	add    BYTE PTR [eax],al
  402f04:	jl     0x402f06
  402f06:	add    BYTE PTR [eax],al
  402f08:	js     0x402f24
  402f0a:	inc    eax
  402f0b:	add    BYTE PTR [ebp+0x0],dh
  402f0e:	add    BYTE PTR [eax],al
  402f10:	jle    0x402f12
  402f12:	add    BYTE PTR [eax],al
  402f14:	sbb    BYTE PTR [edx],0x40
  402f17:	add    BYTE PTR [ebp+0x0],dh
  402f1a:	add    BYTE PTR [eax],al
  402f1c:	jg     0x402f1e
  402f1e:	add    BYTE PTR [eax],al
  402f20:	cmp    BYTE PTR [ecx],dl
  402f22:	inc    eax
  402f23:	add    BYTE PTR [ebp+0x0],dh
  402f26:	add    BYTE PTR [eax],al
  402f28:	add    BYTE PTR [eax],0x0
  402f2b:	add    BYTE PTR [eax+0x7500401a],cl
  402f31:	add    BYTE PTR [eax],al
  402f33:	add    BYTE PTR [ecx-0x70000000],al
  402f39:	sbb    al,BYTE PTR [eax+0x0]
  402f3c:	jne    0x402f3e
  402f3e:	add    BYTE PTR [eax],al
  402f40:	add    BYTE PTR [eax],0x0
  402f43:	add    BYTE PTR [eax+0x7500401a],bl
  402f49:	add    BYTE PTR [eax],al
  402f4b:	add    BYTE PTR [ebx-0x60000000],al
  402f51:	sbb    al,BYTE PTR [eax+0x0]
  402f54:	jne    0x402f56
  402f56:	add    BYTE PTR [eax],al
  402f58:	test   BYTE PTR [eax],al
  402f5a:	add    BYTE PTR [eax],al
  402f5c:	test   al,0x1a
  402f5e:	inc    eax
  402f5f:	add    BYTE PTR [ebp+0x0],dh
  402f62:	add    BYTE PTR [eax],al
  402f64:	test   DWORD PTR [eax],eax
  402f66:	add    BYTE PTR [eax],al
  402f68:	mov    al,0x1a
  402f6a:	inc    eax
  402f6b:	add    BYTE PTR [ebp+0x0],dh
  402f6e:	add    BYTE PTR [eax],al
  402f70:	xchg   BYTE PTR [eax],al
  402f72:	add    BYTE PTR [eax],al
  402f74:	mov    eax,0x7500401a
  402f79:	add    BYTE PTR [eax],al
  402f7b:	add    BYTE PTR [edi-0x40000000],al
  402f81:	sbb    al,BYTE PTR [eax+0x0]
  402f84:	jne    0x402f86
  402f86:	add    BYTE PTR [eax],al
  402f88:	mov    BYTE PTR [eax],al
  402f8a:	add    BYTE PTR [eax],al
  402f8c:	enter  0x401a,0x0
  402f90:	jne    0x402f92
  402f92:	add    BYTE PTR [eax],al
  402f94:	mov    WORD PTR [eax],es
  402f96:	add    BYTE PTR [eax],al
  402f98:	rcr    BYTE PTR [edx],1
  402f9a:	inc    eax
  402f9b:	add    BYTE PTR [ebp+0x0],dh
  402f9e:	add    BYTE PTR [eax],al
  402fa0:	xchg   ecx,eax
  402fa1:	add    BYTE PTR [eax],al
  402fa3:	add    al,bl
  402fa5:	sbb    al,BYTE PTR [eax+0x0]
  402fa8:	jne    0x402faa
  402faa:	add    BYTE PTR [eax],al
  402fac:	xchg   edx,eax
  402fad:	add    BYTE PTR [eax],al
  402faf:	add    al,ah
  402fb1:	sbb    al,BYTE PTR [eax+0x0]
  402fb4:	jne    0x402fb6
  402fb6:	add    BYTE PTR [eax],al
  402fb8:	add    DWORD PTR [eax+eax*1],eax
  402fbb:	add    al,ch
  402fbd:	sbb    al,BYTE PTR [eax+0x0]
  402fc0:	add    BYTE PTR [eax],al
  402fc2:	add    BYTE PTR [eax],al
  402fc4:	add    al,BYTE PTR [eax+eax*1]
  402fc7:	add    ah,dh
  402fc9:	sbb    al,BYTE PTR [eax+0x0]
  402fcc:	add    DWORD PTR [eax],eax
  402fce:	add    BYTE PTR [eax],al
  402fd0:	add    eax,DWORD PTR [eax+eax*1]
  402fd3:	add    BYTE PTR [eax],al
  402fd5:	sbb    eax,DWORD PTR [eax+0x0]
  402fd8:	add    al,BYTE PTR [eax]
  402fda:	add    BYTE PTR [eax],al
  402fdc:	add    al,0x4
  402fde:	add    BYTE PTR [eax],al
  402fe0:	or     al,0x1b
  402fe2:	inc    eax
  402fe3:	add    BYTE PTR [ecx+eax*1+0x4050000],cl
  402fea:	add    BYTE PTR [eax],al
  402fec:	sbb    BYTE PTR [ebx],bl
  402fee:	inc    eax
  402fef:	add    BYTE PTR [eax+eax*1],al
  402ff2:	add    BYTE PTR [eax],al
  402ff4:	push   es
  402ff5:	add    al,0x0
  402ff7:	add    BYTE PTR [ebx+ebx*1],ah
  402ffa:	inc    eax
  402ffb:	add    BYTE PTR ds:0x7000000,al
  403001:	add    al,0x0
  403003:	add    BYTE PTR [eax],dh
  403005:	sbb    eax,DWORD PTR [eax+0x0]
  403008:	push   es
  403009:	add    BYTE PTR [eax],al
  40300b:	add    BYTE PTR [eax],cl
  40300d:	add    al,0x0
  40300f:	add    BYTE PTR [ebx+ebx*1],bh
  403012:	inc    eax
  403013:	add    BYTE PTR [edi],al
  403015:	add    BYTE PTR [eax],al
  403017:	add    BYTE PTR [ecx],cl
  403019:	add    al,0x0
  40301b:	add    BYTE PTR [eax+0x1b],cl
  40301e:	inc    eax
  40301f:	add    BYTE PTR [eax],cl
  403021:	add    BYTE PTR [eax],al
  403023:	add    BYTE PTR [edx],cl
  403025:	add    al,0x0
  403027:	add    BYTE PTR [ebx+ebx*1+0x40],dl
  40302b:	add    BYTE PTR [ecx],cl
  40302d:	add    BYTE PTR [eax],al
  40302f:	add    BYTE PTR [ebx],cl
  403031:	add    al,0x0
  403033:	add    BYTE PTR [eax+0x1b],dh
  403036:	inc    eax
  403037:	add    BYTE PTR [edx],cl
  403039:	add    BYTE PTR [eax],al
  40303b:	add    BYTE PTR [esp+eax*1],cl
  40303e:	add    BYTE PTR [eax],al
  403040:	jl     0x40305d
  403042:	inc    eax
  403043:	add    BYTE PTR [ebx],cl
  403045:	add    BYTE PTR [eax],al
  403047:	add    BYTE PTR ds:0x88000004,cl
  40304d:	sbb    eax,DWORD PTR [eax+0x0]
  403050:	or     al,0x0
  403052:	add    BYTE PTR [eax],al
  403054:	push   cs
  403055:	add    al,0x0
  403057:	add    BYTE PTR [ebx+ebx*1+0xd0040],dl
  40305e:	add    BYTE PTR [eax],al
  403060:	(bad)  
  403062:	add    BYTE PTR [eax],al
  403064:	mov    al,ds:0xe00401b
  403069:	add    BYTE PTR [eax],al
  40306b:	add    BYTE PTR [eax],dl
  40306d:	add    al,0x0
  40306f:	add    BYTE PTR [ebx+ebx*1+0xf0040],ch
  403076:	add    BYTE PTR [eax],al
  403078:	adc    DWORD PTR [eax+eax*1],eax
  40307b:	add    BYTE PTR [eax+0x1000401b],bh
  403081:	add    BYTE PTR [eax],al
  403083:	add    BYTE PTR [edx],dl
  403085:	add    al,0x0
  403087:	add    ah,al
  403089:	sbb    eax,DWORD PTR [eax+0x0]
  40308c:	adc    DWORD PTR [eax],eax
  40308e:	add    BYTE PTR [eax],al
  403090:	adc    eax,DWORD PTR [eax+eax*1]
  403093:	add    al,dl
  403095:	sbb    eax,DWORD PTR [eax+0x0]
  403098:	adc    al,BYTE PTR [eax]
  40309a:	add    BYTE PTR [eax],al
  40309c:	adc    al,0x4
  40309e:	add    BYTE PTR [eax],al
  4030a0:	fcomp  QWORD PTR [ebx]
  4030a2:	inc    eax
  4030a3:	add    BYTE PTR [ebp+0x15000001],cl
  4030a9:	add    al,0x0
  4030ab:	add    al,ch
  4030ad:	sbb    eax,DWORD PTR [eax+0x0]
  4030b0:	adc    al,0x0
  4030b2:	add    BYTE PTR [eax],al
  4030b4:	push   ss
  4030b5:	add    al,0x0
  4030b7:	add    ah,dh
  4030b9:	sbb    eax,DWORD PTR [eax+0x0]
  4030bc:	adc    eax,0x17000000
  4030c1:	add    al,0x0
  4030c3:	add    BYTE PTR [eax],al
  4030c5:	sbb    al,0x40
  4030c7:	add    BYTE PTR [esi],dl
  4030c9:	add    BYTE PTR [eax],al
  4030cb:	add    BYTE PTR [eax],bl
  4030cd:	add    al,0x0
  4030cf:	add    BYTE PTR [esp+ebx*1],cl
  4030d2:	inc    eax
  4030d3:	add    BYTE PTR [edi],dl
  4030d5:	add    BYTE PTR [eax],al
  4030d7:	add    BYTE PTR [ecx],bl
  4030d9:	add    al,0x0
  4030db:	add    BYTE PTR [eax],bl
  4030dd:	sbb    al,0x40
  4030df:	add    BYTE PTR [eax],bl
  4030e1:	add    BYTE PTR [eax],al
  4030e3:	add    BYTE PTR [edx],bl
  4030e5:	add    al,0x0
  4030e7:	add    BYTE PTR [esp+ebx*1],ah
  4030ea:	inc    eax
  4030eb:	add    BYTE PTR [ecx],bl
  4030ed:	add    BYTE PTR [eax],al
  4030ef:	add    BYTE PTR [ebx],bl
  4030f1:	add    al,0x0
  4030f3:	add    BYTE PTR [eax],dh
  4030f5:	sbb    al,0x40
  4030f7:	add    BYTE PTR [edx],bl
  4030f9:	add    BYTE PTR [eax],al
  4030fb:	add    BYTE PTR [esp+eax*1],bl
  4030fe:	add    BYTE PTR [eax],al
  403100:	cmp    al,0x1c
  403102:	inc    eax
  403103:	add    BYTE PTR [ebx],bl
  403105:	add    BYTE PTR [eax],al
  403107:	add    BYTE PTR ds:0x48000004,bl
  40310d:	sbb    al,0x40
  40310f:	add    BYTE PTR [eax+eax*1],bl
  403112:	add    BYTE PTR [eax],al
  403114:	push   ds
  403115:	add    al,0x0
  403117:	add    BYTE PTR [esp+ebx*1+0x40],dl
  40311b:	add    BYTE PTR ds:0x1f000000,bl
  403121:	add    al,0x0
  403123:	add    BYTE PTR [eax+0x1c],ah
  403126:	inc    eax
  403127:	add    BYTE PTR [esi],bl
  403129:	add    BYTE PTR [eax],al
  40312b:	add    BYTE PTR [eax],ah
  40312d:	add    al,0x0
  40312f:	add    BYTE PTR [esp+ebx*1+0x40],ch
  403133:	add    BYTE PTR [edi],bl
  403135:	add    BYTE PTR [eax],al
  403137:	add    BYTE PTR [ecx],ah
  403139:	add    al,0x0
  40313b:	add    BYTE PTR [eax+0x1c],bh
  40313e:	inc    eax
  40313f:	add    BYTE PTR [eax],ah
  403141:	add    BYTE PTR [eax],al
  403143:	add    BYTE PTR [edx],ah
  403145:	add    al,0x0
  403147:	add    BYTE PTR [esp+ebx*1+0x210040],al
  40314e:	add    BYTE PTR [eax],al
  403150:	and    eax,DWORD PTR [eax+eax*1]
  403153:	add    BYTE PTR [eax+0x2200401c],dl
  403159:	add    BYTE PTR [eax],al
  40315b:	add    BYTE PTR [esp+eax*1],ah
  40315e:	add    BYTE PTR [eax],al
  403160:	pushf  
  403161:	sbb    al,0x40
  403163:	add    BYTE PTR [ebx],ah
  403165:	add    BYTE PTR [eax],al
  403167:	add    BYTE PTR ds:0xa8000004,ah
  40316d:	sbb    al,0x40
  40316f:	add    BYTE PTR [eax+eax*1],ah
  403172:	add    BYTE PTR [eax],al
  403174:	es add al,0x0
  403177:	add    BYTE PTR [esp+ebx*1+0x250040],dh
  40317e:	add    BYTE PTR [eax],al
  403180:	daa    
  403181:	add    al,0x0
  403183:	add    al,al
  403185:	sbb    al,0x40
  403187:	add    BYTE PTR [esi],ah
  403189:	add    BYTE PTR [eax],al
  40318b:	add    BYTE PTR [eax],ch
  40318d:	add    al,0x0
  40318f:	add    ah,cl
  403191:	sbb    al,0x40
  403193:	add    BYTE PTR [edi+0x29000001],cl
  403199:	add    al,0x0
  40319b:	add    ah,ah
  40319d:	sbb    al,0x40
  40319f:	add    BYTE PTR [eax],ch
  4031a1:	add    BYTE PTR [eax],al
  4031a3:	add    BYTE PTR [edx],ch
  4031a5:	add    al,0x0
  4031a7:	add    al,dh
  4031a9:	sbb    al,0x40
  4031ab:	add    BYTE PTR [ecx],ch
  4031ad:	add    BYTE PTR [eax],al
  4031af:	add    BYTE PTR [ebx],ch
  4031b1:	add    al,0x0
  4031b3:	add    ah,bh
  4031b5:	sbb    al,0x40
  4031b7:	add    BYTE PTR [edx],ch
  4031b9:	add    BYTE PTR [eax],al
  4031bb:	add    BYTE PTR [esp+eax*1],ch
  4031be:	add    BYTE PTR [eax],al
  4031c0:	or     BYTE PTR ds:0x1860040,bl
  4031c6:	add    BYTE PTR [eax],al
  4031c8:	sub    eax,0x20000004
  4031cd:	sbb    eax,0x2c0040
  4031d2:	add    BYTE PTR [eax],al
  4031d4:	cs add al,0x0
  4031d7:	add    BYTE PTR [ebx*1+0x2d0040],ch
  4031de:	add    BYTE PTR [eax],al
  4031e0:	das    
  4031e1:	add    al,0x0
  4031e3:	add    BYTE PTR [ebx*1+0x2e0040],bh
  4031ea:	add    BYTE PTR [eax],al
  4031ec:	xor    BYTE PTR [eax+eax*1],al
  4031ef:	add    BYTE PTR [eax+0x1d],cl
  4031f2:	inc    eax
  4031f3:	add    BYTE PTR [edi],ch
  4031f5:	add    BYTE PTR [eax],al
  4031f7:	add    BYTE PTR [ecx],dh
  4031f9:	add    al,0x0
  4031fb:	add    BYTE PTR [ebp+ebx*1+0x40],dl
  4031ff:	add    BYTE PTR [eax],dh
  403201:	add    BYTE PTR [eax],al
  403203:	add    BYTE PTR [edx],dh
  403205:	add    al,0x0
  403207:	add    BYTE PTR [eax+0x1d],ah
  40320a:	inc    eax
  40320b:	add    BYTE PTR [ecx],dh
  40320d:	add    BYTE PTR [eax],al
  40320f:	add    BYTE PTR [ebx],dh
  403211:	add    al,0x0
  403213:	add    BYTE PTR [ebp+ebx*1+0x40],ch
  403217:	add    BYTE PTR [edx],dh
  403219:	add    BYTE PTR [eax],al
  40321b:	add    BYTE PTR [esp+eax*1],dh
  40321e:	add    BYTE PTR [eax],al
  403220:	js     0x40323f
  403222:	inc    eax
  403223:	add    BYTE PTR [ebx],dh
  403225:	add    BYTE PTR [eax],al
  403227:	add    BYTE PTR ds:0x84000004,dh
  40322d:	sbb    eax,0x340040
  403232:	add    BYTE PTR [eax],al
  403234:	ss add al,0x0
  403237:	add    BYTE PTR [eax+0x3500401d],dl
  40323d:	add    BYTE PTR [eax],al
  40323f:	add    BYTE PTR [edi],dh
  403241:	add    al,0x0
  403243:	add    BYTE PTR [ebp+ebx*1+0x360040],bl
  40324a:	add    BYTE PTR [eax],al
  40324c:	cmp    BYTE PTR [eax+eax*1],al
  40324f:	add    BYTE PTR [eax+0x3700401d],ch
  403255:	add    BYTE PTR [eax],al
  403257:	add    BYTE PTR [ecx],bh
  403259:	add    al,0x0
  40325b:	add    BYTE PTR [ebp+ebx*1+0x380040],dh
  403262:	add    BYTE PTR [eax],al
  403264:	cmp    al,BYTE PTR [eax+eax*1]
  403267:	add    al,al
  403269:	sbb    eax,0x390040
  40326e:	add    BYTE PTR [eax],al
  403270:	cmp    eax,DWORD PTR [eax+eax*1]
  403273:	add    ah,cl
  403275:	sbb    eax,0x3a0040
  40327a:	add    BYTE PTR [eax],al
  40327c:	ds add al,0x0
  40327f:	add    al,bl
  403281:	sbb    eax,0x3c0040
  403286:	add    BYTE PTR [eax],al
  403288:	aas    
  403289:	add    al,0x0
  40328b:	add    ah,ah
  40328d:	sbb    eax,0x3d0040
  403292:	add    BYTE PTR [eax],al
  403294:	inc    eax
  403295:	add    al,0x0
  403297:	add    al,dh
  403299:	sbb    eax,0x3e0040
  40329e:	add    BYTE PTR [eax],al
  4032a0:	inc    ecx
  4032a1:	add    al,0x0
  4032a3:	add    ah,bh
  4032a5:	sbb    eax,0x3f0040
  4032aa:	add    BYTE PTR [eax],al
  4032ac:	inc    edx
  4032ad:	add    al,0x0
  4032af:	add    BYTE PTR [eax],cl
  4032b1:	push   ds
  4032b2:	inc    eax
  4032b3:	add    BYTE PTR [eax+0x0],al
  4032b6:	add    BYTE PTR [eax],al
  4032b8:	inc    ebx
  4032b9:	add    al,0x0
  4032bb:	add    BYTE PTR [esi+ebx*1],dl
  4032be:	inc    eax
  4032bf:	add    BYTE PTR [edx+0x44000001],dl
  4032c5:	add    al,0x0
  4032c7:	add    BYTE PTR [esi+ebx*1],ch
  4032ca:	inc    eax
  4032cb:	add    BYTE PTR [edx+0x0],al
  4032ce:	add    BYTE PTR [eax],al
  4032d0:	inc    ebp
  4032d1:	add    al,0x0
  4032d3:	add    BYTE PTR [eax],bh
  4032d5:	push   ds
  4032d6:	inc    eax
  4032d7:	add    BYTE PTR [ebx+0x0],al
  4032da:	add    BYTE PTR [eax],al
  4032dc:	inc    esi
  4032dd:	add    al,0x0
  4032df:	add    BYTE PTR [esi+ebx*1+0x40],al
  4032e3:	add    BYTE PTR [eax+eax*1+0x0],al
  4032e7:	add    BYTE PTR [edi+0x4],al
  4032ea:	add    BYTE PTR [eax],al
  4032ec:	push   eax
  4032ed:	push   ds
  4032ee:	inc    eax
  4032ef:	add    BYTE PTR [ebp+0x0],al
  4032f2:	add    BYTE PTR [eax],al
  4032f4:	dec    eax
  4032f5:	add    al,0x0
  4032f7:	add    BYTE PTR [esi+ebx*1+0x40],bl
  4032fb:	add    BYTE PTR [esi+0x0],al
  4032fe:	add    BYTE PTR [eax],al
  403300:	dec    ecx
  403301:	add    al,0x0
  403303:	add    BYTE PTR [eax+0x1e],ch
  403306:	inc    eax
  403307:	add    BYTE PTR [edi+0x0],al
  40330a:	add    BYTE PTR [eax],al
  40330c:	dec    edx
  40330d:	add    al,0x0
  40330f:	add    BYTE PTR [esi+ebx*1+0x40],dh
  403313:	add    BYTE PTR [eax+0x0],cl
  403316:	add    BYTE PTR [eax],al
  403318:	dec    ebx
  403319:	add    al,0x0
  40331b:	add    BYTE PTR [eax+0x4900401e],al
  403321:	add    BYTE PTR [eax],al
  403323:	add    BYTE PTR [esp+eax*1+0x0],cl
  403327:	add    BYTE PTR [esi+ebx*1+0x4a0040],cl
  40332e:	add    BYTE PTR [eax],al
  403330:	dec    ebp
  403331:	add    al,0x0
  403333:	add    BYTE PTR [eax+0x4b00401e],bl
  403339:	add    BYTE PTR [eax],al
  40333b:	add    BYTE PTR [esi+0x4],cl
  40333e:	add    BYTE PTR [eax],al
  403340:	movs   BYTE PTR es:[edi],BYTE PTR ds:[esi]
  403341:	push   ds
  403342:	inc    eax
  403343:	add    BYTE PTR [eax+eax*1+0x0],cl
  403347:	add    BYTE PTR [edi+0x4],cl
  40334a:	add    BYTE PTR [eax],al
  40334c:	mov    al,0x1e
  40334e:	inc    eax
  40334f:	add    BYTE PTR [ebp+0x0],cl
  403352:	add    BYTE PTR [eax],al
  403354:	push   eax
  403355:	add    al,0x0
  403357:	add    BYTE PTR [esi+ebx*1+0x1890040],bh
  40335e:	add    BYTE PTR [eax],al
  403360:	push   ecx
  403361:	add    al,0x0
  403363:	add    al,cl
  403365:	push   ds
  403366:	inc    eax
  403367:	add    BYTE PTR [edi+0x0],cl
  40336a:	add    BYTE PTR [eax],al
  40336c:	push   edx
  40336d:	add    al,0x0
  40336f:	add    ah,dl
  403371:	push   ds
  403372:	inc    eax
  403373:	add    BYTE PTR [eax+0x0],dl
  403376:	add    BYTE PTR [eax],al
  403378:	push   ebx
  403379:	add    al,0x0
  40337b:	add    al,ah
  40337d:	push   ds
  40337e:	inc    eax
  40337f:	add    BYTE PTR [ecx+0x0],dl
  403382:	add    BYTE PTR [eax],al
  403384:	push   esp
  403385:	add    al,0x0
  403387:	add    ah,ch
  403389:	push   ds
  40338a:	inc    eax
  40338b:	add    BYTE PTR [edx+0x0],dl
  40338e:	add    BYTE PTR [eax],al
  403390:	push   ebp
  403391:	add    al,0x0
  403393:	add    al,bh
  403395:	push   ds
  403396:	inc    eax
  403397:	add    BYTE PTR [ebx+0x0],dl
  40339a:	add    BYTE PTR [eax],al
  40339c:	push   esi
  40339d:	add    al,0x0
  40339f:	add    BYTE PTR [edi+ebx*1],al
  4033a2:	inc    eax
  4033a3:	add    BYTE PTR [eax+eax*1+0x0],dl
  4033a7:	add    BYTE PTR [edi+0x4],dl
  4033aa:	add    BYTE PTR [eax],al
  4033ac:	adc    BYTE PTR [edi],bl
  4033ae:	inc    eax
  4033af:	add    BYTE PTR [ebp+0x0],dl
  4033b2:	add    BYTE PTR [eax],al
  4033b4:	pop    edx
  4033b5:	add    al,0x0
  4033b7:	add    BYTE PTR [eax],ah
  4033b9:	pop    ds
  4033ba:	inc    eax
  4033bb:	add    BYTE PTR [edi+0x0],dl
  4033be:	add    BYTE PTR [eax],al
  4033c0:	pop    ebx
  4033c1:	add    al,0x0
  4033c3:	add    BYTE PTR [eax],dh
  4033c5:	pop    ds
  4033c6:	inc    eax
  4033c7:	add    BYTE PTR [eax+0x0],bl
  4033ca:	add    BYTE PTR [eax],al
  4033cc:	pop    esp
  4033cd:	add    al,0x0
  4033cf:	add    BYTE PTR [edi+ebx*1],bh
  4033d2:	inc    eax
  4033d3:	add    BYTE PTR [esi+0x5d000001],dl
  4033d9:	add    al,0x0
  4033db:	add    BYTE PTR [edi+ebx*1+0x40],dl
  4033df:	add    BYTE PTR [edx+0x5e000001],cl
  4033e5:	add    al,0x0
  4033e7:	add    BYTE PTR [edi+ebx*1+0x40],ch
  4033eb:	add    BYTE PTR [ebx+0x0],bl
  4033ee:	add    BYTE PTR [eax],al
  4033f0:	pusha  
  4033f1:	add    al,0x0
  4033f3:	add    BYTE PTR [eax+0x1f],bh
  4033f6:	inc    eax
  4033f7:	add    BYTE PTR [ebp+0x0],bl
  4033fa:	add    BYTE PTR [eax],al
  4033fc:	popa   
  4033fd:	add    al,0x0
  4033ff:	add    BYTE PTR [eax+0x5e00401f],cl
  403405:	add    BYTE PTR [eax],al
  403407:	add    BYTE PTR [edx+0x4],ah
  40340a:	add    BYTE PTR [eax],al
  40340c:	xchg   esp,eax
  40340d:	pop    ds
  40340e:	inc    eax
  40340f:	add    BYTE PTR [edi+0x0],bl
  403412:	add    BYTE PTR [eax],al
  403414:	arpl   WORD PTR [eax+eax*1],ax
  403417:	add    BYTE PTR [eax+0x6000401f],ah
  40341d:	add    BYTE PTR [eax],al
  40341f:	add    BYTE PTR [esp+eax*1+0x0],ah
  403423:	add    BYTE PTR [edi+ebx*1+0x610040],ch
  40342a:	add    BYTE PTR [eax],al
  40342c:	gs add al,0x0
  40342f:	add    BYTE PTR [edi+ebx*1+0x620040],bh
  403436:	add    BYTE PTR [eax],al
  403438:	push   0xc8000004
  40343d:	pop    ds
  40343e:	inc    eax
  40343f:	add    BYTE PTR [edx+0x6a000001],bl
  403445:	add    al,0x0
  403447:	add    al,ah
  403449:	pop    ds
  40344a:	inc    eax
  40344b:	add    BYTE PTR [ebp+0x0],ah
  40344e:	add    BYTE PTR [eax],al
  403450:	imul   eax,DWORD PTR [eax+eax*1],0x0
  403454:	in     al,dx
  403455:	pop    ds
  403456:	inc    eax
  403457:	add    BYTE PTR [esi+0x0],ah
  40345a:	add    BYTE PTR [eax],al
  40345c:	ins    BYTE PTR es:[edi],dx
  40345d:	add    al,0x0
  40345f:	add    ah,bh
  403461:	pop    ds
  403462:	inc    eax
  403463:	add    BYTE PTR [edi+0x0],ah
  403466:	add    BYTE PTR [eax],al
  403468:	ins    DWORD PTR es:[edi],dx
  403469:	add    al,0x0
  40346b:	add    BYTE PTR [eax+eiz*1],cl
  40346e:	inc    eax
  40346f:	add    BYTE PTR [eax+0x0],ch
  403472:	add    BYTE PTR [eax],al
  403474:	outs   dx,BYTE PTR ds:[esi]
  403475:	add    al,0x0
  403477:	add    BYTE PTR [eax],bl
  403479:	and    BYTE PTR [eax+0x0],al
  40347c:	imul   eax,DWORD PTR [eax],0x46f0000
  403482:	add    BYTE PTR [eax],al
  403484:	and    al,0x20
  403486:	inc    eax
  403487:	add    BYTE PTR [edx+0x0],ch
  40348a:	add    BYTE PTR [eax],al
  40348c:	jo     0x403492
  40348e:	add    BYTE PTR [eax],al
  403490:	xor    BYTE PTR [eax],ah
  403492:	inc    eax
  403493:	add    BYTE PTR [ebx+0x0],ch
  403496:	add    BYTE PTR [eax],al
  403498:	jb     0x40349e
  40349a:	add    BYTE PTR [eax],al
  40349c:	cmp    al,0x20
  40349e:	inc    eax
  40349f:	add    BYTE PTR [eax+eax*1+0x0],ch
  4034a3:	add    BYTE PTR [ebx+0x4],dh
  4034a6:	add    BYTE PTR [eax],al
  4034a8:	dec    eax
  4034a9:	and    BYTE PTR [eax+0x0],al
  4034ac:	ins    DWORD PTR es:[edi],dx
  4034ad:	add    BYTE PTR [eax],al
  4034af:	add    BYTE PTR [esp+eax*1+0x0],dh
  4034b3:	add    BYTE PTR [eax+eiz*1+0x40],dl
  4034b7:	add    BYTE PTR [esi+0x0],ch
  4034ba:	add    BYTE PTR [eax],al
  4034bc:	jne    0x4034c2
  4034be:	add    BYTE PTR [eax],al
  4034c0:	pusha  
  4034c1:	and    BYTE PTR [eax+0x0],al
  4034c4:	outs   dx,DWORD PTR ds:[esi]
  4034c5:	add    BYTE PTR [eax],al
  4034c7:	add    BYTE PTR [edi+0x4],dh
  4034ca:	add    BYTE PTR [eax],al
  4034cc:	jo     0x4034ee
  4034ce:	inc    eax
  4034cf:	add    BYTE PTR [eax+0x0],dh
  4034d2:	add    BYTE PTR [eax],al
  4034d4:	js     0x4034da
  4034d6:	add    BYTE PTR [eax],al
  4034d8:	jl     0x4034fa
  4034da:	inc    eax
  4034db:	add    BYTE PTR [ecx+0x0],dh
  4034de:	add    BYTE PTR [eax],al
  4034e0:	jp     0x4034e6
  4034e2:	add    BYTE PTR [eax],al
  4034e4:	mov    BYTE PTR [eax],ah
  4034e6:	inc    eax
  4034e7:	add    BYTE PTR [edx+0x0],dh
  4034ea:	add    BYTE PTR [eax],al
  4034ec:	jl     0x4034f2
  4034ee:	add    BYTE PTR [eax],al
  4034f0:	cwde   
  4034f1:	and    BYTE PTR [eax+0x0],al
  4034f4:	jae    0x4034f6
  4034f6:	add    BYTE PTR [eax],al
  4034f8:	jle    0x4034fe
  4034fa:	add    BYTE PTR [eax],al
  4034fc:	test   al,0x20
  4034fe:	inc    eax
  4034ff:	add    BYTE PTR [eax+eax*1+0x0],dh
  403503:	add    BYTE PTR [eax-0x4bfffffc],al
  403509:	and    BYTE PTR [eax+0x0],al
  40350c:	jbe    0x40350e
  40350e:	add    BYTE PTR [eax],al
  403510:	add    DWORD PTR [eax+eax*1],0x4020c000
  403517:	add    BYTE PTR [edi+0x0],dh
  40351a:	add    BYTE PTR [eax],al
  40351c:	add    BYTE PTR [eax+eax*1],0x0
  403520:	int3   
  403521:	and    BYTE PTR [eax+0x0],al
  403524:	js     0x403526
  403526:	add    BYTE PTR [eax],al
  403528:	add    DWORD PTR [eax+eax*1],0x0
  40352c:	fsub   DWORD PTR [eax]
  40352e:	inc    eax
  40352f:	add    BYTE PTR [ecx+0x0],bh
  403532:	add    BYTE PTR [eax],al
  403534:	test   BYTE PTR [eax+eax*1],al
  403537:	add    ah,ah
  403539:	and    BYTE PTR [eax+0x0],al
  40353c:	jp     0x40353e
  40353e:	add    BYTE PTR [eax],al
  403540:	test   DWORD PTR [eax+eax*1],eax
  403543:	add    ah,dh
  403545:	and    BYTE PTR [eax+0x0],al
  403548:	jnp    0x40354a
  40354a:	add    BYTE PTR [eax],al
  40354c:	xchg   BYTE PTR [eax+eax*1],al
  40354f:	add    BYTE PTR [ecx+eiz*1],al
  403552:	inc    eax
  403553:	add    BYTE PTR [eax+eax*1+0x0],bh
  403557:	add    BYTE PTR [edi+0x1c000004],al
  40355d:	and    DWORD PTR [eax+0x0],eax
  403560:	jge    0x403562
  403562:	add    BYTE PTR [eax],al
  403564:	mov    BYTE PTR [eax+eax*1],al
  403567:	add    BYTE PTR [eax],ch
  403569:	and    DWORD PTR [eax+0x0],eax
  40356c:	jle    0x40356e
  40356e:	add    BYTE PTR [eax],al
  403570:	mov    WORD PTR [eax+eax*1],es
  403573:	add    BYTE PTR [ecx+eiz*1],dh
  403576:	inc    eax
  403577:	add    BYTE PTR [edi+0x0],bh
  40357a:	add    BYTE PTR [eax],al
  40357c:	xchg   ecx,eax
  40357d:	add    al,0x0
  40357f:	add    BYTE PTR [ecx+eiz*1+0x40],al
  403583:	add    BYTE PTR [eax-0x6e000000],al
  403589:	add    al,0x0
  40358b:	add    BYTE PTR [eax+0x21],dl
  40358e:	inc    eax
  40358f:	add    BYTE PTR [ebx+0x1000001],bl
  403595:	add    eax,0x21680000
  40359a:	inc    eax
  40359b:	add    BYTE PTR [eax],cl
  40359d:	add    BYTE PTR [eax],al
  40359f:	add    dh,bh
  4035a1:	add    eax,0x217c0000
  4035a6:	inc    eax
  4035a7:	add    BYTE PTR [eax],dl
  4035a9:	add    BYTE PTR [eax],al
  4035ab:	add    BYTE PTR [ecx],al
  4035ad:	or     BYTE PTR [eax],al
  4035af:	add    BYTE PTR [eax+0x4021],dl
  4035b5:	add    BYTE PTR [eax],al
  4035b7:	add    BYTE PTR [ebx],al
  4035b9:	or     BYTE PTR [eax],al
  4035bb:	add    BYTE PTR [ecx+eiz*1+0x840040],bl
  4035c2:	add    BYTE PTR [eax],al
  4035c4:	add    al,0x8
  4035c6:	add    BYTE PTR [eax],al
  4035c8:	mov    esp,0x3004021
  4035cd:	add    BYTE PTR [eax],al
  4035cf:	add    BYTE PTR [edi],al
  4035d1:	or     BYTE PTR [eax],al
  4035d3:	add    al,cl
  4035d5:	and    DWORD PTR [eax+0x0],eax
  4035d8:	push   es
  4035d9:	add    BYTE PTR [eax],al
  4035db:	add    BYTE PTR [ecx],cl
  4035dd:	or     BYTE PTR [eax],al
  4035df:	add    ah,dl
  4035e1:	and    DWORD PTR [eax+0x0],eax
  4035e4:	or     BYTE PTR [eax],al
  4035e6:	add    BYTE PTR [eax],al
  4035e8:	or     cl,BYTE PTR [eax]
  4035ea:	add    BYTE PTR [eax],al
  4035ec:	loopne 0x40360f
  4035ee:	inc    eax
  4035ef:	add    BYTE PTR [ecx],cl
  4035f1:	add    BYTE PTR [eax],al
  4035f3:	add    BYTE PTR [eax+ecx*1],cl
  4035f6:	add    BYTE PTR [eax],al
  4035f8:	in     al,dx
  4035f9:	and    DWORD PTR [eax+0x0],eax
  4035fc:	or     eax,DWORD PTR [eax]
  4035fe:	add    BYTE PTR [eax],al
  403600:	adc    BYTE PTR [eax],cl
  403602:	add    BYTE PTR [eax],al
  403604:	clc    
  403605:	and    DWORD PTR [eax+0x0],eax
  403608:	sldt   WORD PTR [eax]
  40360b:	add    BYTE PTR [ebx],dl
  40360d:	or     BYTE PTR [eax],al
  40360f:	add    BYTE PTR [edx+eiz*1],al
  403612:	inc    eax
  403613:	add    BYTE PTR [edx],dl
  403615:	add    BYTE PTR [eax],al
  403617:	add    BYTE PTR [eax+ecx*1],dl
  40361a:	add    BYTE PTR [eax],al
  40361c:	adc    BYTE PTR [edx],ah
  40361e:	inc    eax
  40361f:	add    BYTE PTR [ecx+eax*1+0x8160000],al
  403626:	add    BYTE PTR [eax],al
  403628:	sbb    al,0x22
  40362a:	inc    eax
  40362b:	add    BYTE PTR ds:0x18000000,dl
  403631:	or     BYTE PTR [eax],al
  403633:	add    BYTE PTR [eax],ch
  403635:	and    al,BYTE PTR [eax+0x0]
  403638:	pop    ss
  403639:	add    BYTE PTR [eax],al
  40363b:	add    BYTE PTR [ecx],bl
  40363d:	or     BYTE PTR [eax],al
  40363f:	add    BYTE PTR [edx+eiz*1],dh
  403642:	inc    eax
  403643:	add    BYTE PTR [eax],bl
  403645:	add    BYTE PTR [eax],al
  403647:	add    BYTE PTR [edx],bl
  403649:	or     BYTE PTR [eax],al
  40364b:	add    BYTE PTR [eax],cl
  40364d:	adc    al,0x40
  40364f:	add    BYTE PTR [edi+0x1],bh
  403652:	add    BYTE PTR [eax],al
  403654:	sbb    eax,0x40000008
  403659:	and    al,BYTE PTR [eax+0x0]
  40365c:	sbb    al,0x0
  40365e:	add    BYTE PTR [eax],al
  403660:	and    BYTE PTR [eax],cl
  403662:	add    BYTE PTR [eax],al
  403664:	dec    esp
  403665:	and    al,BYTE PTR [eax+0x0]
  403668:	pop    ds
  403669:	add    BYTE PTR [eax],al
  40366b:	add    BYTE PTR [eax+ecx*1],ch
  40366e:	add    BYTE PTR [eax],al
  403670:	pop    eax
  403671:	and    al,BYTE PTR [eax+0x0]
  403674:	add    DWORD PTR [ecx],0x82e0000
  40367a:	add    BYTE PTR [eax],al
  40367c:	jo     0x4036a0
  40367e:	inc    eax
  40367f:	add    BYTE PTR [eax+0x32000001],dl
  403685:	or     BYTE PTR [eax],al
  403687:	add    BYTE PTR [eax+0x31004022],al
  40368d:	add    BYTE PTR [eax],al
  40368f:	add    BYTE PTR [ebx],bh
  403691:	or     BYTE PTR [eax],al
  403693:	add    BYTE PTR [edx+eiz*1+0x3a0040],cl
  40369a:	add    BYTE PTR [eax],al
  40369c:	cmp    al,0x8
  40369e:	add    BYTE PTR [eax],al
  4036a0:	cwde   
  4036a1:	and    al,BYTE PTR [eax+0x0]
  4036a4:	cmp    eax,DWORD PTR [eax]
  4036a6:	add    BYTE PTR [eax],al
  4036a8:	or     BYTE PTR ds:[eax],al
  4036ab:	add    BYTE PTR [edx+eiz*1+0x3c0040],ah
  4036b2:	add    BYTE PTR [eax],al
  4036b4:	inc    ebx
  4036b5:	or     BYTE PTR [eax],al
  4036b7:	add    BYTE PTR [eax-0x77ffbfde],dh
  4036bd:	add    DWORD PTR [eax],eax
  4036bf:	add    BYTE PTR [ebp+0x8],al
  4036c2:	add    BYTE PTR [eax],al
  4036c4:	enter  0x4022,0x0
  4036c8:	inc    ebx
  4036c9:	add    BYTE PTR [eax],al
  4036cb:	add    BYTE PTR [esi+0x8],al
  4036ce:	add    BYTE PTR [eax],al
  4036d0:	aam    0x22
  4036d2:	inc    eax
  4036d3:	add    BYTE PTR [ebx+0x49000001],dl
  4036d9:	or     BYTE PTR [eax],al
  4036db:	add    ah,ch
  4036dd:	and    al,BYTE PTR [eax+0x0]
  4036e0:	inc    edi
  4036e1:	add    BYTE PTR [eax],al
  4036e3:	add    BYTE PTR [eax+0x8],dl
  4036e6:	add    BYTE PTR [eax],al
  4036e8:	clc    
  4036e9:	and    al,BYTE PTR [eax+0x0]
  4036ec:	xchg   esp,eax
  4036ed:	add    DWORD PTR [eax],eax
  4036ef:	add    BYTE PTR [ecx+0x8],bl
  4036f2:	add    BYTE PTR [eax],al
  4036f4:	adc    BYTE PTR [ebx],ah
  4036f6:	inc    eax
  4036f7:	add    BYTE PTR [ebp+0x5d000001],dl
  4036fd:	or     BYTE PTR [eax],al
  4036ff:	add    ah,cl
  403701:	adc    al,0x40
  403703:	add    BYTE PTR [edi+0x5f000001],dl
  403709:	or     BYTE PTR [eax],al
  40370b:	add    BYTE PTR [eax],ch
  40370d:	and    eax,DWORD PTR [eax+0x0]
  403710:	cwde   
  403711:	add    DWORD PTR [eax],eax
  403713:	add    BYTE PTR [ecx+0x8],ah
  403716:	add    BYTE PTR [eax],al
  403718:	inc    eax
  403719:	and    eax,DWORD PTR [eax+0x0]
  40371c:	pop    esi
  40371d:	add    BYTE PTR [eax],al
  40371f:	add    BYTE PTR [edi+0x8],ah
  403722:	add    BYTE PTR [eax],al
  403724:	dec    esp
  403725:	and    eax,DWORD PTR [eax+0x0]
  403728:	cdq    
  403729:	add    DWORD PTR [eax],eax
  40372b:	add    BYTE PTR [ebx+0x8],ch
  40372e:	add    BYTE PTR [eax],al
  403730:	and    eax,DWORD PTR fs:[eax+0x0]
  403734:	data16 add BYTE PTR [eax],al
  403737:	add    BYTE PTR [ebx+0x8],dh
  40373a:	add    BYTE PTR [eax],al
  40373c:	je     0x403761
  40373e:	inc    eax
  40373f:	add    BYTE PTR [ebp+0x0],ch
  403742:	add    BYTE PTR [eax],al
  403744:	add    DWORD PTR [ecx],ecx
  403746:	add    BYTE PTR [eax],al
  403748:	and    BYTE PTR [ebx],0x40
  40374b:	add    BYTE PTR [eax],cl
  40374d:	add    BYTE PTR [eax],al
  40374f:	add    bh,bh
  403751:	or     DWORD PTR [eax],eax
  403753:	add    BYTE PTR [ebx+eiz*1+0x40],bl
  40375a:	add    BYTE PTR [eax],al
  40375c:	add    DWORD PTR [eax+eax*1],ecx
  40375f:	add    BYTE PTR [eax+0x4023],dh
  403765:	add    BYTE PTR [eax],al
  403767:	add    BYTE PTR [esp+ecx*1],al
  40376a:	add    BYTE PTR [eax],al
  40376c:	mov    esp,0x8c004023
  403771:	add    DWORD PTR [eax],eax
  403773:	add    BYTE PTR [edi],al
  403775:	or     al,0x0
  403777:	add    al,cl
  403779:	and    eax,DWORD PTR [eax+0x0]
  40377c:	push   es
  40377d:	add    BYTE PTR [eax],al
  40377f:	add    BYTE PTR [ecx],cl
  403781:	or     al,0x0
  403783:	add    ah,dl
  403785:	and    eax,DWORD PTR [eax+0x0]
  403788:	or     BYTE PTR [eax],al
  40378a:	add    BYTE PTR [eax],al
  40378c:	or     cl,BYTE PTR [eax+eax*1]
  40378f:	add    al,ah
  403791:	and    eax,DWORD PTR [eax+0x0]
  403794:	or     DWORD PTR [eax],eax
  403796:	add    BYTE PTR [eax],al
  403798:	or     al,0xc
  40379a:	add    BYTE PTR [eax],al
  40379c:	in     al,dx
  40379d:	and    eax,DWORD PTR [eax+0x0]
  4037a0:	or     eax,DWORD PTR [eax]
  4037a2:	add    BYTE PTR [eax],al
  4037a4:	sbb    cl,BYTE PTR [eax+eax*1]
  4037a7:	add    BYTE PTR [eax],bh
  4037a9:	adc    al,0x40
  4037ab:	add    BYTE PTR [esi+0x1],bh
  4037ae:	add    BYTE PTR [eax],al
  4037b0:	cmp    ecx,DWORD PTR [eax+eax*1]
  4037b3:	add    al,bh
  4037b5:	and    eax,DWORD PTR [eax+0x0]
  4037b8:	cmp    al,BYTE PTR [eax]
  4037ba:	add    BYTE PTR [eax],al
  4037bc:	push   eax
  4037bd:	or     al,0x0
  4037bf:	add    BYTE PTR [esp],al
  4037c2:	inc    eax
  4037c3:	add    BYTE PTR [ecx+eax*1+0xc6b0000],dl
  4037ca:	add    BYTE PTR [eax],al
  4037cc:	sbb    al,0x24
  4037ce:	inc    eax
  4037cf:	add    BYTE PTR [esi+0x0],ah
  4037d2:	add    BYTE PTR [eax],al
  4037d4:	add    DWORD PTR [eax],edx
  4037d6:	add    BYTE PTR [eax],al
  4037d8:	sub    al,0x24
  4037da:	inc    eax
  4037db:	add    BYTE PTR [eax],al
  4037dd:	add    BYTE PTR [eax],al
  4037df:	add    BYTE PTR [eax+edx*1],al
  4037e2:	add    BYTE PTR [eax],al
  4037e4:	cmp    BYTE PTR [eax+eax*2],ah
  4037e7:	add    BYTE PTR [ebx],al
  4037e9:	add    BYTE PTR [eax],al
  4037eb:	add    BYTE PTR [edi],al
  4037ed:	adc    BYTE PTR [eax],al
  4037ef:	add    BYTE PTR [esp+0x40],al
  4037f3:	add    BYTE PTR [esi],al
  4037f5:	add    BYTE PTR [eax],al
  4037f7:	add    BYTE PTR [ecx],cl
  4037f9:	adc    BYTE PTR [eax],al
  4037fb:	add    BYTE PTR [eax+0x24],dl
  4037fe:	inc    eax
  4037ff:	add    BYTE PTR [eax],cl
  403801:	add    BYTE PTR [eax],al
  403803:	add    BYTE PTR [edx],cl
  403805:	adc    BYTE PTR [eax],al
  403807:	add    BYTE PTR [esp+0x40],bl
  40380b:	add    BYTE PTR [ecx],cl
  40380d:	add    BYTE PTR [eax],al
  40380f:	add    BYTE PTR [eax+edx*1],cl
  403812:	add    BYTE PTR [eax],al
  403814:	push   0xb004024
  403819:	add    BYTE PTR [eax],al
  40381b:	add    BYTE PTR [edx],bl
  40381d:	adc    BYTE PTR [eax],al
  40381f:	add    BYTE PTR [esp+0x40],dh
  403823:	add    BYTE PTR [ecx],bl
  403825:	add    BYTE PTR [eax],al
  403827:	add    BYTE PTR [ebx],bh
  403829:	adc    BYTE PTR [eax],al
  40382b:	add    BYTE PTR [eax-0x6effbfdc],al
  403831:	add    DWORD PTR [eax],eax
  403833:	add    BYTE PTR [edi+0x10],bl
  403836:	add    BYTE PTR [eax],al
  403838:	nop
  403839:	and    al,0x40
  40383b:	add    BYTE PTR [ebx+0x1000001],cl
  403841:	adc    al,0x0
  403843:	add    BYTE PTR [eax+0x4024],ch
  403849:	add    BYTE PTR [eax],al
  40384b:	add    BYTE PTR [esp+edx*1],al
  40384e:	add    BYTE PTR [eax],al
  403850:	mov    ah,0x24
  403852:	inc    eax
  403853:	add    BYTE PTR [ecx+eax*1+0x14070000],cl
  40385a:	add    BYTE PTR [eax],al
  40385c:	shl    BYTE PTR [eax+eax*2],0x0
  403860:	push   es
  403861:	add    BYTE PTR [eax],al
  403863:	add    BYTE PTR [ecx],cl
  403865:	adc    al,0x0
  403867:	add    ah,cl
  403869:	and    al,0x40
  40386b:	add    BYTE PTR [eax],cl
  40386d:	add    BYTE PTR [eax],al
  40386f:	add    BYTE PTR [edx],cl
  403871:	adc    al,0x0
  403873:	add    al,bl
  403875:	and    al,0x40
  403877:	add    BYTE PTR [ecx],cl
  403879:	add    BYTE PTR [eax],al
  40387b:	add    BYTE PTR [esp+edx*1],cl
  40387e:	add    BYTE PTR [eax],al
  403880:	in     al,0x24
  403882:	inc    eax
  403883:	add    BYTE PTR [ebx],cl
  403885:	add    BYTE PTR [eax],al
  403887:	add    BYTE PTR [edx],bl
  403889:	adc    al,0x0
  40388b:	add    BYTE PTR [edx*1+0x17d0040],ch
  403892:	add    BYTE PTR [eax],al
  403894:	cmp    edx,DWORD PTR [eax+eax*1]
  403897:	add    al,dh
  403899:	and    al,0x40
  40389b:	add    BYTE PTR [ecx+0x1000001],dl
  4038a1:	sbb    BYTE PTR [eax],al
  4038a3:	add    BYTE PTR [eax],al
  4038a5:	and    eax,0x40
  4038aa:	add    BYTE PTR [eax],al
  4038ac:	or     DWORD PTR [eax],ebx
  4038ae:	add    BYTE PTR [eax],al
  4038b0:	or     al,0x25
  4038b2:	inc    eax
  4038b3:	add    BYTE PTR [eax],cl
  4038b5:	add    BYTE PTR [eax],al
  4038b7:	add    BYTE PTR [edx],cl
  4038b9:	sbb    BYTE PTR [eax],al
  4038bb:	add    BYTE PTR [eax],bl
  4038bd:	and    eax,0x90040
  4038c2:	add    BYTE PTR [eax],al
  4038c4:	or     al,0x18
  4038c6:	add    BYTE PTR [eax],al
  4038c8:	and    al,0x25
  4038ca:	inc    eax
  4038cb:	add    BYTE PTR [ebx],cl
  4038cd:	add    BYTE PTR [eax],al
  4038cf:	add    BYTE PTR [edx],bl
  4038d1:	sbb    BYTE PTR [eax],al
  4038d3:	add    BYTE PTR [eax+0x14],ch
  4038d6:	inc    eax
  4038d7:	add    BYTE PTR [edi+0x1],bh
  4038da:	add    BYTE PTR [eax],al
  4038dc:	cmp    ebx,DWORD PTR [eax]
  4038de:	add    BYTE PTR [eax],al
  4038e0:	xor    BYTE PTR ds:0x1870040,ah
  4038e6:	add    BYTE PTR [eax],al
  4038e8:	add    DWORD PTR [eax+eax*1],ebx
  4038eb:	add    BYTE PTR [eax+0x25],al
  4038ee:	inc    eax
  4038ef:	add    BYTE PTR [eax],al
  4038f1:	add    BYTE PTR [eax],al
  4038f3:	add    BYTE PTR [ecx],cl
  4038f5:	sbb    al,0x0
  4038f7:	add    BYTE PTR [ebp+eiz*1+0x40],cl
  4038fb:	add    BYTE PTR [eax],cl
  4038fd:	add    BYTE PTR [eax],al
  4038ff:	add    BYTE PTR [edx],cl
  403901:	sbb    al,0x0
  403903:	add    BYTE PTR [eax+0x25],bl
  403906:	inc    eax
  403907:	add    BYTE PTR [ecx],cl
  403909:	add    BYTE PTR [eax],al
  40390b:	add    BYTE PTR [edx],bl
  40390d:	sbb    al,0x0
  40390f:	add    BYTE PTR [eax+0x7e004014],bl
  403915:	add    DWORD PTR [eax],eax
  403917:	add    BYTE PTR [ebx],bh
  403919:	sbb    al,0x0
  40391b:	add    BYTE PTR [ebp+eiz*1+0x40],ah
  40391f:	add    BYTE PTR [edi+0x1000001],al
  403925:	and    BYTE PTR [eax],al
  403927:	add    BYTE PTR [ebp+eiz*1+0x40],dh
  40392b:	add    BYTE PTR [eax],al
  40392d:	add    BYTE PTR [eax],al
  40392f:	add    BYTE PTR [ecx],cl
  403931:	and    BYTE PTR [eax],al
  403933:	add    BYTE PTR [eax+0x8004025],al
  403939:	add    BYTE PTR [eax],al
  40393b:	add    BYTE PTR [edx],cl
  40393d:	and    BYTE PTR [eax],al
  40393f:	add    BYTE PTR [ebp+eiz*1+0x90040],cl
  403946:	add    BYTE PTR [eax],al
  403948:	or     al,0x20
  40394a:	add    BYTE PTR [eax],al
  40394c:	cwde   
  40394d:	and    eax,0xb0040
  403952:	add    BYTE PTR [eax],al
  403954:	sbb    ah,BYTE PTR [eax]
  403956:	add    BYTE PTR [eax],al
  403958:	cld    
  403959:	adc    al,0x40
  40395b:	add    BYTE PTR [ecx+eax*1+0x0],bh
  40395f:	add    BYTE PTR [ebx],bh
  403961:	and    BYTE PTR [eax],al
  403963:	add    BYTE PTR [ebp+eiz*1+0x1820040],ah
  40396a:	add    BYTE PTR [eax],al
  40396c:	add    DWORD PTR [eax+eax*1],esp
  40396f:	add    BYTE PTR [ebp+eiz*1+0x40],dh
  403976:	add    BYTE PTR [eax],al
  403978:	or     DWORD PTR [eax+eax*1],esp
  40397b:	add    al,al
  40397d:	and    eax,0x80040
  403982:	add    BYTE PTR [eax],al
  403984:	or     ah,BYTE PTR [eax+eax*1]
  403987:	add    al,dl
  403989:	and    eax,0x90040
  40398e:	add    BYTE PTR [eax],al
  403990:	or     al,0x24
  403992:	add    BYTE PTR [eax],al
  403994:	fsub   QWORD PTR ds:0xb0040
  40399a:	add    BYTE PTR [eax],al
  40399c:	sbb    ah,BYTE PTR [eax+eax*1]
  40399f:	add    al,ch
  4039a1:	and    eax,0x17f0040
  4039a6:	add    BYTE PTR [eax],al
  4039a8:	cmp    esp,DWORD PTR [eax+eax*1]
  4039ab:	add    BYTE PTR [eax],al
  4039ad:	es inc eax
  4039af:	add    BYTE PTR [eax+0x1000001],al
  4039b5:	sub    BYTE PTR [eax],al
  4039b7:	add    BYTE PTR [eax],dl
  4039b9:	es inc eax
  4039bb:	add    BYTE PTR [eax],al
  4039bd:	add    BYTE PTR [eax],al
  4039bf:	add    BYTE PTR [ecx],cl
  4039c1:	sub    BYTE PTR [eax],al
  4039c3:	add    BYTE PTR [esi+eiz*1],bl
  4039c6:	inc    eax
  4039c7:	add    BYTE PTR [eax],cl
  4039c9:	add    BYTE PTR [eax],al
  4039cb:	add    BYTE PTR [edx],cl
  4039cd:	sub    BYTE PTR [eax],al
  4039cf:	add    BYTE PTR [eax],ch
  4039d1:	es inc eax
  4039d3:	add    BYTE PTR [ecx],cl
  4039d5:	add    BYTE PTR [eax],al
  4039d7:	add    BYTE PTR [eax+ebp*1],cl
  4039da:	add    BYTE PTR [eax],al
  4039dc:	xor    al,0x26
  4039de:	inc    eax
  4039df:	add    BYTE PTR [ebx],cl
  4039e1:	add    BYTE PTR [eax],al
  4039e3:	add    BYTE PTR [edx],bl
  4039e5:	sub    BYTE PTR [eax],al
  4039e7:	add    BYTE PTR [eax+0x26],al
  4039ea:	inc    eax
  4039eb:	add    BYTE PTR [esi+0x1],bh
  4039ee:	add    BYTE PTR [eax],al
  4039f0:	add    DWORD PTR [eax+eax*1],ebp
  4039f3:	add    BYTE PTR [eax+0x26],bl
  4039f6:	inc    eax
  4039f7:	add    BYTE PTR [eax],al
  4039f9:	add    BYTE PTR [eax],al
  4039fb:	add    BYTE PTR [ecx],cl
  4039fd:	sub    al,0x0
  4039ff:	add    BYTE PTR [esi+eiz*1+0x40],ah
  403a03:	add    BYTE PTR [eax],cl
  403a05:	add    BYTE PTR [eax],al
  403a07:	add    BYTE PTR [edx],cl
  403a09:	sub    al,0x0
  403a0b:	add    BYTE PTR [eax+0x26],dh
  403a0e:	inc    eax
  403a0f:	add    BYTE PTR [ecx],cl
  403a11:	add    BYTE PTR [eax],al
  403a13:	add    BYTE PTR [esp+ebp*1],cl
  403a16:	add    BYTE PTR [eax],al
  403a18:	jl     0x403a40
  403a1a:	inc    eax
  403a1b:	add    BYTE PTR [ebx],cl
  403a1d:	add    BYTE PTR [eax],al
  403a1f:	add    BYTE PTR [edx],bl
  403a21:	sub    al,0x0
  403a23:	add    BYTE PTR [eax+0x7f004026],cl
  403a29:	add    DWORD PTR [eax],eax
  403a2b:	add    BYTE PTR [ecx],al
  403a2d:	xor    BYTE PTR [eax],al
  403a2f:	add    BYTE PTR [eax+0x4026],ah
  403a35:	add    BYTE PTR [eax],al
  403a37:	add    BYTE PTR [ecx],cl
  403a39:	xor    BYTE PTR [eax],al
  403a3b:	add    BYTE PTR [esi+eiz*1+0x80040],ch
  403a42:	add    BYTE PTR [eax],al
  403a44:	or     dh,BYTE PTR [eax]
  403a46:	add    BYTE PTR [eax],al
  403a48:	mov    eax,0x9004026
  403a4d:	add    BYTE PTR [eax],al
  403a4f:	add    BYTE PTR [eax+esi*1],cl
  403a52:	add    BYTE PTR [eax],al
  403a54:	les    esp,FWORD PTR [esi]
  403a56:	inc    eax
  403a57:	add    BYTE PTR [ebx],cl
  403a59:	add    BYTE PTR [eax],al
  403a5b:	add    BYTE PTR [edx],bl
  403a5d:	xor    BYTE PTR [eax],al
  403a5f:	add    al,dl
  403a61:	es inc eax
  403a63:	add    BYTE PTR [esi+0x1],bh
  403a66:	add    BYTE PTR [eax],al
  403a68:	add    DWORD PTR [eax+eax*1],esi
  403a6b:	add    al,ch
  403a6d:	es inc eax
  403a6f:	add    BYTE PTR [eax],al
  403a71:	add    BYTE PTR [eax],al
  403a73:	add    BYTE PTR [ecx],cl
  403a75:	xor    al,0x0
  403a77:	add    ah,dh
  403a79:	es inc eax
  403a7b:	add    BYTE PTR [eax],cl
  403a7d:	add    BYTE PTR [eax],al
  403a7f:	add    BYTE PTR [edx],cl
  403a81:	xor    al,0x0
  403a83:	add    BYTE PTR [eax],al
  403a85:	daa    
  403a86:	inc    eax
  403a87:	add    BYTE PTR [ecx],cl
  403a89:	add    BYTE PTR [eax],al
  403a8b:	add    BYTE PTR [esp+esi*1],cl
  403a8e:	add    BYTE PTR [eax],al
  403a90:	or     al,0x27
  403a92:	inc    eax
  403a93:	add    BYTE PTR [ebx],cl
  403a95:	add    BYTE PTR [eax],al
  403a97:	add    BYTE PTR [ecx],al
  403a99:	cmp    BYTE PTR [eax],al
  403a9b:	add    BYTE PTR [eax],bl
  403a9d:	daa    
  403a9e:	inc    eax
  403a9f:	add    BYTE PTR [eax],al
  403aa1:	add    BYTE PTR [eax],al
  403aa3:	add    BYTE PTR [edx],cl
  403aa5:	cmp    BYTE PTR [eax],al
  403aa7:	add    BYTE PTR [edi+eiz*1],ah
  403aaa:	inc    eax
  403aab:	add    BYTE PTR [ecx],cl
  403aad:	add    BYTE PTR [eax],al
  403aaf:	add    BYTE PTR [eax+edi*1],cl
  403ab2:	add    BYTE PTR [eax],al
  403ab4:	xor    BYTE PTR [edi],ah
  403ab6:	inc    eax
  403ab7:	add    BYTE PTR [ebx],cl
  403ab9:	add    BYTE PTR [eax],al
  403abb:	add    BYTE PTR [ecx],al
  403abd:	cmp    al,0x0
  403abf:	add    BYTE PTR [edi+eiz*1],bh
  403ac2:	inc    eax
  403ac3:	add    BYTE PTR [eax],al
  403ac5:	add    BYTE PTR [eax],al
  403ac7:	add    BYTE PTR [ecx],cl
  403ac9:	cmp    al,0x0
  403acb:	add    BYTE PTR [eax+0x27],cl
  403ace:	inc    eax
  403acf:	add    BYTE PTR [eax],cl
  403ad1:	add    BYTE PTR [eax],al
  403ad3:	add    BYTE PTR [edx],cl
  403ad5:	cmp    al,0x0
  403ad7:	add    BYTE PTR [edi+eiz*1+0x40],dl
  403adb:	add    BYTE PTR [ecx],cl
  403add:	add    BYTE PTR [eax],al
  403adf:	add    BYTE PTR [esp+edi*1],cl
  403ae2:	add    BYTE PTR [eax],al
  403ae4:	pusha  
  403ae5:	daa    
  403ae6:	inc    eax
  403ae7:	add    BYTE PTR [ebx],cl
  403ae9:	add    BYTE PTR [eax],al
  403aeb:	add    BYTE PTR [ecx],al
  403aed:	inc    eax
  403aee:	add    BYTE PTR [eax],al
  403af0:	ins    BYTE PTR es:[edi],dx
  403af1:	daa    
  403af2:	inc    eax
  403af3:	add    BYTE PTR [eax],al
  403af5:	add    BYTE PTR [eax],al
  403af7:	add    BYTE PTR [ecx],cl
  403af9:	inc    eax
  403afa:	add    BYTE PTR [eax],al
  403afc:	js     0x403b25
  403afe:	inc    eax
  403aff:	add    BYTE PTR [eax],cl
  403b01:	add    BYTE PTR [eax],al
  403b03:	add    BYTE PTR [edx],cl
  403b05:	inc    eax
  403b06:	add    BYTE PTR [eax],al
  403b08:	test   BYTE PTR [edi],ah
  403b0a:	inc    eax
  403b0b:	add    BYTE PTR [ecx],cl
  403b0d:	add    BYTE PTR [eax],al
  403b0f:	add    BYTE PTR [ecx],cl
  403b11:	inc    esp
  403b12:	add    BYTE PTR [eax],al
  403b14:	nop
  403b15:	daa    
  403b16:	inc    eax
  403b17:	add    BYTE PTR [eax],cl
  403b19:	add    BYTE PTR [eax],al
  403b1b:	add    BYTE PTR [edx],cl
  403b1d:	inc    esp
  403b1e:	add    BYTE PTR [eax],al
  403b20:	pushf  
  403b21:	daa    
  403b22:	inc    eax
  403b23:	add    BYTE PTR [ecx],cl
  403b25:	add    BYTE PTR [eax],al
  403b27:	add    BYTE PTR [ecx],cl
  403b29:	dec    eax
  403b2a:	add    BYTE PTR [eax],al
  403b2c:	test   al,0x27
  403b2e:	inc    eax
  403b2f:	add    BYTE PTR [eax],cl
  403b31:	add    BYTE PTR [eax],al
  403b33:	add    BYTE PTR [edx],cl
  403b35:	dec    eax
  403b36:	add    BYTE PTR [eax],al
  403b38:	mov    ah,0x27
  403b3a:	inc    eax
  403b3b:	add    BYTE PTR [ecx],cl
  403b3d:	add    BYTE PTR [eax],al
  403b3f:	add    BYTE PTR [edx],cl
  403b41:	dec    esp
  403b42:	add    BYTE PTR [eax],al
  403b44:	shl    BYTE PTR [edi],0x40
  403b47:	add    BYTE PTR [ecx],cl
  403b49:	add    BYTE PTR [eax],al
  403b4b:	add    BYTE PTR [edx],cl
  403b4d:	push   eax
  403b4e:	add    BYTE PTR [eax],al
  403b50:	int3   
  403b51:	daa    
  403b52:	inc    eax
  403b53:	add    BYTE PTR [ecx],cl
  403b55:	add    BYTE PTR [eax],al
  403b57:	add    BYTE PTR [edx],cl
  403b59:	push   esp
  403b5a:	add    BYTE PTR [eax],al
  403b5c:	fsub   DWORD PTR [edi]
  403b5e:	inc    eax
  403b5f:	add    BYTE PTR [ecx],cl
  403b61:	add    BYTE PTR [eax],al
  403b63:	add    BYTE PTR [edx],cl
  403b65:	pop    eax
  403b66:	add    BYTE PTR [eax],al
  403b68:	in     al,0x27
  403b6a:	inc    eax
  403b6b:	add    BYTE PTR [ecx],cl
  403b6d:	add    BYTE PTR [eax],al
  403b6f:	add    BYTE PTR [edx],bl
  403b71:	add    BYTE PTR fs:[eax],al
  403b74:	hlt    
  403b75:	daa    
  403b76:	inc    eax
  403b77:	add    BYTE PTR [ebp+0x1a000001],al
  403b7d:	push   0x28040000
  403b82:	inc    eax
  403b83:	add    BYTE PTR [ebp+0x1a000001],al
  403b89:	ins    BYTE PTR es:[edi],dx
  403b8a:	add    BYTE PTR [eax],al
  403b8c:	adc    al,0x28
  403b8e:	inc    eax
  403b8f:	add    BYTE PTR [esi+0x1a000001],cl
  403b95:	jo     0x403b97
  403b97:	add    BYTE PTR [eax+ebp*1],ah
  403b9a:	inc    eax
  403b9b:	add    BYTE PTR [esi+0x3b000001],cl
  403ba1:	jo     0x403ba3
  403ba3:	add    BYTE PTR [eax+ebp*1],dh
  403ba6:	inc    eax
  403ba7:	add    BYTE PTR [edx],bh
  403ba9:	add    BYTE PTR [eax],al
  403bab:	add    BYTE PTR [esp+esi*2],ch
  403bae:	add    BYTE PTR [eax],al
  403bb0:	cmp    al,0x28
  403bb2:	inc    eax
  403bb3:	add    BYTE PTR [ebx],ch
  403bb5:	add    BYTE PTR [eax],al
  403bb7:	add    BYTE PTR [ebx],bh
  403bb9:	je     0x403bbb
  403bbb:	add    BYTE PTR [eax+ebp*1+0x40],cl
  403bbf:	add    BYTE PTR [edx],bh
  403bc1:	add    BYTE PTR [eax],al
  403bc3:	add    BYTE PTR [eax+edi*2],al
  403bc6:	add    BYTE PTR [eax],al
  403bc8:	push   esp
  403bc9:	sub    BYTE PTR [eax+0x0],al
  403bcc:	jne    0x403bce
  403bce:	add    BYTE PTR [eax],al
  403bd0:	adc    al,0x78
  403bd2:	add    BYTE PTR [eax],al
  403bd4:	pop    esp
  403bd5:	sub    BYTE PTR [eax+0x0],al
  403bd8:	adc    eax,DWORD PTR [eax]
  403bda:	add    BYTE PTR [eax],al
  403bdc:	sbb    bh,BYTE PTR [eax+0x0]
  403bdf:	add    BYTE PTR [eax+ebp*1+0x40],ah
  403be3:	add    BYTE PTR [ebp+0x0],dh
  403be6:	add    BYTE PTR [eax],al
  403be8:	sub    al,0x78
  403bea:	add    BYTE PTR [eax],al
  403bec:	ins    BYTE PTR es:[edi],dx
  403bed:	sub    BYTE PTR [eax+0x0],al
  403bf0:	sub    eax,DWORD PTR [eax]
  403bf2:	add    BYTE PTR [eax],al
  403bf4:	cmp    edi,DWORD PTR [eax+0x0]
  403bf7:	add    BYTE PTR [eax+ebp*1+0x40],bh
  403bfb:	add    BYTE PTR [edx],bh
  403bfd:	add    BYTE PTR [eax],al
  403bff:	add    BYTE PTR [ebx+0x78],al
  403c02:	add    BYTE PTR [eax],al
  403c04:	test   BYTE PTR [eax],ch
  403c06:	inc    eax
  403c07:	add    BYTE PTR [ecx+0x0],al
  403c0a:	add    BYTE PTR [eax],al
  403c0c:	push   eax
  403c0d:	js     0x403c0f
  403c0f:	add    BYTE PTR [eax+ebp*1+0x4e0040],dl
  403c16:	add    BYTE PTR [eax],al
  403c18:	pop    ebp
  403c19:	js     0x403c1b
  403c1b:	add    BYTE PTR [eax+ebp*1+0x5a0040],ah
  403c22:	add    BYTE PTR [eax],al
  403c24:	pop    edi
  403c25:	js     0x403c27
  403c27:	add    BYTE PTR [eax+ebp*1+0x5c0040],dh
  403c2e:	add    BYTE PTR [eax],al
  403c30:	add    al,0x7c
  403c32:	add    BYTE PTR [eax],al
  403c34:	pop    esp
  403c35:	adc    eax,0x1830040
  403c3a:	add    BYTE PTR [eax],al
  403c3c:	adc    al,0x7c
  403c3e:	add    BYTE PTR [eax],al
  403c40:	enter  0x4028,0x0
  403c44:	adc    eax,DWORD PTR [eax]
  403c46:	add    BYTE PTR [eax],al
  403c48:	sbb    bh,BYTE PTR [eax+eax*1+0x0]
  403c4c:	shr    BYTE PTR [eax],1
  403c4e:	inc    eax
  403c4f:	add    BYTE PTR [ebp+0x0],dh
  403c52:	add    BYTE PTR [eax],al
  403c54:	sub    BYTE PTR [eax+eax*1+0x0],bh
  403c58:	fsubr  DWORD PTR [eax]
  403c5a:	inc    eax
  403c5b:	add    BYTE PTR [edi],ah
  403c5d:	add    BYTE PTR [eax],al
  403c5f:	add    BYTE PTR [esi],ch
  403c61:	jl     0x403c63
  403c63:	add    al,ch
  403c65:	sub    BYTE PTR [eax+0x0],al
  403c68:	sub    eax,0x3b000000
  403c6d:	jl     0x403c6f
  403c6f:	add    al,dh
  403c71:	sub    BYTE PTR [eax+0x0],al
  403c74:	cmp    al,BYTE PTR [eax]
  403c76:	add    BYTE PTR [eax],al
  403c78:	inc    ebx
  403c79:	jl     0x403c7b
  403c7b:	add    al,bh
  403c7d:	sub    BYTE PTR [eax+0x0],al
  403c80:	inc    ecx
  403c81:	add    BYTE PTR [eax],al
  403c83:	add    BYTE PTR [esi+0x7c],al
  403c86:	add    BYTE PTR [eax],al
  403c88:	or     BYTE PTR [ecx],ch
  403c8a:	inc    eax
  403c8b:	add    BYTE PTR [eax+eax*1+0x0],al
  403c8f:	add    BYTE PTR [eax+0x7c],dl
  403c92:	add    BYTE PTR [eax],al
  403c94:	sbb    BYTE PTR [ecx],ch
  403c96:	inc    eax
  403c97:	add    BYTE PTR [esi+0x0],cl
  403c9a:	add    BYTE PTR [eax],al
  403c9c:	pop    ecx
  403c9d:	jl     0x403c9f
  403c9f:	add    BYTE PTR [eax],ch
  403ca1:	sub    DWORD PTR [eax+0x0],eax
  403ca4:	push   esi
  403ca5:	add    BYTE PTR [eax],al
  403ca7:	add    BYTE PTR [esp+edi*2+0x0],bl
  403cab:	add    BYTE PTR [eax],bh
  403cad:	sub    DWORD PTR [eax+0x0],eax
  403cb0:	pop    ecx
  403cb1:	add    BYTE PTR [eax],al
  403cb3:	add    BYTE PTR [ebp+0x7c],bl
  403cb6:	add    BYTE PTR [eax],al
  403cb8:	dec    esp
  403cb9:	sub    DWORD PTR [eax+0x0],eax
  403cbc:	pop    edx
  403cbd:	add    BYTE PTR [eax],al
  403cbf:	add    BYTE PTR [edi+0x7c],bl
  403cc2:	add    BYTE PTR [eax],al
  403cc4:	pop    esp
  403cc5:	sub    DWORD PTR [eax+0x0],eax
  403cc8:	pop    esp
  403cc9:	add    BYTE PTR [eax],al
  403ccb:	add    BYTE PTR [edi+0x7c],ah
  403cce:	add    BYTE PTR [eax],al
  403cd0:	jo     0x403cfb
  403cd2:	inc    eax
  403cd3:	add    BYTE PTR [ebx+0x0],ah
  403cd6:	add    BYTE PTR [eax],al
  403cd8:	push   0x8000007c
  403cdd:	sub    DWORD PTR [eax+0x0],eax
  403ce0:	add    BYTE PTR fs:[eax],al
  403ce3:	add    BYTE PTR [edx-0x6fffff84],dl
  403ce9:	sub    DWORD PTR [eax+0x0],eax
  403cec:	add    DWORD PTR [eax],0x11380000
  403cf2:	inc    eax
  403cf3:	add    BYTE PTR [ebp+0x0],dh
  403cf6:	add    BYTE PTR [eax],al
  403cf8:	mov    BYTE PTR [eax],bl
  403cfa:	inc    eax
  403cfb:	add    BYTE PTR ds:0x90000000,dh
  403d01:	sbb    eax,0xb70040
  403d06:	add    BYTE PTR [eax],al
  403d08:	mov    eax,0x5b004019
  403d0d:	add    BYTE PTR [eax],al
  403d0f:	add    BYTE PTR [edi+ebx*1+0x40],ch
  403d13:	add    bl,bl
  403d15:	add    BYTE PTR [eax],al
  403d17:	add    al,ch
  403d19:	push   ss
  403d1a:	inc    eax
  403d1b:	add    BYTE PTR [eax],al
  403d1d:	add    BYTE PTR [eax],al
  403d1f:	add    BYTE PTR [eax],bl
  403d21:	daa    
  403d22:	inc    eax
  403d23:	add    BYTE PTR [edx+0x1],ch
  403d26:	add    BYTE PTR [eax],al
  403d28:	cmp    al,0x27
  403d2a:	inc    eax
  403d2b:	add    BYTE PTR [ebp+0x1],ch
  403d2e:	add    BYTE PTR [eax],al
  403d30:	test   al,0x24
  403d32:	inc    eax
  403d33:	add    BYTE PTR [eax],bh
  403d35:	add    DWORD PTR [eax],eax
  403d37:	add    BYTE PTR [eax+0x25004023],dh
  403d3d:	add    DWORD PTR [eax],eax
  403d3f:	add    BYTE PTR [eax+0x1004021],dl
  403d45:	add    DWORD PTR [eax],eax
  403d47:	add    BYTE PTR [eax+0x26],bl
  403d4a:	inc    eax
  403d4b:	add    BYTE PTR [ecx+eax*1+0x0],bl
  403d4f:	add    al,ch
  403d51:	es inc eax
  403d53:	add    BYTE PTR [esi+0x1],ah
  403d56:	add    BYTE PTR [eax],al
  403d58:	mov    al,ds:0x61004026
  403d5d:	add    DWORD PTR [eax],eax
  403d5f:	add    BYTE PTR [esp],ch
  403d62:	inc    eax
  403d63:	add    BYTE PTR [edi],ch
  403d65:	add    DWORD PTR [eax],eax
  403d67:	add    BYTE PTR [eax],al
  403d69:	and    eax,0x1400040
  403d6e:	add    BYTE PTR [eax],al
  403d70:	je     0x403d97
  403d72:	inc    eax
  403d73:	add    BYTE PTR [ebx+0x1],cl
  403d76:	add    BYTE PTR [eax],al
  403d78:	ins    BYTE PTR es:[edi],dx
  403d79:	daa    
  403d7a:	inc    eax
  403d7b:	add    BYTE PTR [ecx+0x1],dh
  403d7e:	add    BYTE PTR [eax],al
  403d80:	call   0x82407d9f
  403d85:	add    BYTE PTR [eax],al
  403d87:	add    BYTE PTR [eax],dl
  403d89:	es inc eax
  403d8b:	add    BYTE PTR [edi+0x1],dl
  403d8e:	add    BYTE PTR [eax],al
  403d90:	inc    eax
  403d91:	and    eax,0x1460040
  403d96:	add    BYTE PTR [eax],al
  403d98:	mov    ah,0x25
  403d9a:	inc    eax
  403d9b:	add    BYTE PTR [ecx+0x1],dl
  403d9e:	add    BYTE PTR [eax],al
  403da0:	jo     0x403dbc
  403da2:	inc    eax
  403da3:	add    BYTE PTR [edx+0x0],dh
  403da6:	add    BYTE PTR [eax],al
  403da8:	mov    BYTE PTR [eax],ah
  403daa:	inc    eax
  403dab:	add    al,dh
  403dad:	add    BYTE PTR [eax],al
  403daf:	add    BYTE PTR [eax],bh
  403db1:	sbb    DWORD PTR [eax+0x0],eax
  403db4:	dec    ebx
  403db5:	add    BYTE PTR [eax],al
  403db7:	add    BYTE PTR [eax-0x33ffbfe2],bl
  403dbd:	add    BYTE PTR [eax],al
  403dbf:	add    BYTE PTR [eax],bh
  403dc1:	sbb    BYTE PTR [eax+0x0],al
  403dc4:	sub    eax,DWORD PTR [eax]
  403dc6:	add    BYTE PTR [eax],al
  403dc8:	cmp    al,0x28
  403dca:	inc    eax
  403dcb:	add    BYTE PTR [ecx+0x58000001],al
  403dd1:	and    al,BYTE PTR [eax+0x0]
  403dd4:	adc    DWORD PTR [ecx],eax
  403dd6:	add    BYTE PTR [eax],al
  403dd8:	ins    BYTE PTR es:[edi],dx
  403dd9:	sub    BYTE PTR [eax+0x0],al
  403ddc:	xchg   BYTE PTR [ecx],al
  403dde:	add    BYTE PTR [eax],al
  403de0:	or     BYTE PTR ds:0xad0040,bl
  403de6:	add    BYTE PTR [eax],al
  403de8:	and    BYTE PTR [edx],bl
  403dea:	inc    eax
  403deb:	add    BYTE PTR [eax+0x0],ch
  403dee:	add    BYTE PTR [eax],al
  403df0:	or     al,0x20
  403df2:	inc    eax
  403df3:	add    dh,ah
  403df5:	add    BYTE PTR [eax],al
  403df7:	add    al,dh
  403df9:	pop    ss
  403dfa:	inc    eax
  403dfb:	add    BYTE PTR [edx],ah
  403dfd:	add    BYTE PTR [eax],al
  403dff:	add    BYTE PTR [eax-0x5bffbfe4],dl
  403e05:	add    BYTE PTR [eax],al
  403e07:	add    al,dh
  403e09:	push   ss
  403e0a:	inc    eax
  403e0b:	add    BYTE PTR [ecx],al
  403e0d:	add    BYTE PTR [eax],al
  403e0f:	add    ah,dh
  403e11:	sbb    al,BYTE PTR [eax+0x0]
  403e14:	add    DWORD PTR [eax],0x0
  403e17:	add    al,bh
  403e19:	sbb    BYTE PTR [eax+0x0],al
  403e1c:	inc    ebx
  403e1d:	add    BYTE PTR [eax],al
  403e1f:	add    al,cl
  403e21:	and    al,BYTE PTR [eax+0x0]
  403e24:	sbb    BYTE PTR [ecx],al
  403e26:	add    BYTE PTR [eax],al
  403e28:	cmp    BYTE PTR [esi],bl
  403e2a:	inc    eax
  403e2b:	add    ah,al
  403e2d:	add    BYTE PTR [eax],al
  403e2f:	add    BYTE PTR [eax+0x19],bl
  403e32:	inc    eax
  403e33:	add    BYTE PTR [edi+0x0],cl
  403e36:	add    BYTE PTR [eax],al
  403e38:	enter  0x401e,0x0
  403e3c:	rol    BYTE PTR [eax],1
  403e3e:	add    BYTE PTR [eax],al
  403e40:	sbb    BYTE PTR [edx],0x40
  403e43:	add    BYTE PTR [eax+eax*1+0x0],dh
  403e47:	add    BYTE PTR [eax-0xdffbfe0],ch
  403e4d:	add    BYTE PTR [eax],al
  403e4f:	add    BYTE PTR [eax+ebp*1+0x40],ah
  403e53:	add    BYTE PTR [ebp-0xbffffff],al
  403e59:	daa    
  403e5a:	inc    eax
  403e5b:	add    BYTE PTR [ecx+eax*1+0x0],bh
  403e5f:	add    ah,bh
  403e61:	adc    al,0x40
  403e63:	add    BYTE PTR [edi+0x1],cl
  403e66:	add    BYTE PTR [eax],al
  403e68:	add    al,0x28
  403e6a:	inc    eax
  403e6b:	add    BYTE PTR [ebp+0x1],bh
  403e6e:	add    BYTE PTR [eax],al
  403e70:	sub    al,0x15
  403e72:	inc    eax
  403e73:	add    BYTE PTR [esi],bh
  403e75:	add    DWORD PTR [eax],eax
  403e77:	add    al,bh
  403e79:	push   ss
  403e7a:	inc    eax
  403e7b:	add    BYTE PTR [edx],al
  403e7d:	add    BYTE PTR [eax],al
  403e7f:	add    BYTE PTR [eax],al
  403e81:	sbb    eax,DWORD PTR [eax+0x0]
  403e84:	test   BYTE PTR [eax],al
  403e86:	add    BYTE PTR [eax],al
  403e88:	pushf  
  403e89:	and    DWORD PTR [eax+0x0],eax
  403e8c:	add    al,BYTE PTR [ecx]
  403e8e:	add    BYTE PTR [eax],al
  403e90:	test   al,0x19
  403e92:	inc    eax
  403e93:	add    BYTE PTR [ecx+0x0],bl
  403e96:	add    BYTE PTR [eax],al
  403e98:	cmp    BYTE PTR [ecx],ch
  403e9a:	inc    eax
  403e9b:	add    BYTE PTR [esi+0x3c000001],dl
  403ea1:	pop    ds
  403ea2:	inc    eax
  403ea3:	add    cl,bl
  403ea5:	add    BYTE PTR [eax],al
  403ea7:	add    BYTE PTR [eax+0x7900401a],ah
  403ead:	add    BYTE PTR [eax],al
  403eaf:	add    al,bl
  403eb1:	and    BYTE PTR [eax+0x0],al
  403eb4:	test   BYTE PTR [eax],0x0
  403eb7:	add    BYTE PTR [eax],al
  403eb9:	pop    ss
  403eba:	inc    eax
  403ebb:	add    BYTE PTR [eax+eax*1],al
  403ebe:	add    BYTE PTR [eax],al
  403ec0:	sbb    BYTE PTR [ebx],bl
  403ec2:	inc    eax
  403ec3:	add    BYTE PTR [esi+0x60000000],al
  403ec9:	sbb    DWORD PTR [eax+0x0],eax
  403ecc:	push   eax
  403ecd:	add    BYTE PTR [eax],al
  403ecf:	add    ah,dl
  403ed1:	push   ds
  403ed2:	inc    eax
  403ed3:	add    cl,dl
  403ed5:	add    BYTE PTR [eax],al
  403ed7:	add    BYTE PTR [eax],cl
  403ed9:	pop    ss
  403eda:	inc    eax
  403edb:	add    BYTE PTR ds:0x24000000,al
  403ee1:	sbb    eax,DWORD PTR [eax+0x0]
  403ee4:	xchg   DWORD PTR [eax],eax
  403ee6:	add    BYTE PTR [eax],al
  403ee8:	adc    BYTE PTR [edi],dl
  403eea:	inc    eax
  403eeb:	add    BYTE PTR [esi],al
  403eed:	add    BYTE PTR [eax],al
  403eef:	add    al,cl
  403ef1:	and    eax,DWORD PTR [eax+0x0]
  403ef4:	daa    
  403ef5:	add    DWORD PTR [eax],eax
  403ef7:	add    al,cl
  403ef9:	and    DWORD PTR [eax+0x0],eax
  403efc:	add    al,0x1
  403efe:	add    BYTE PTR [eax],al
  403f00:	xor    BYTE PTR [ebx],bl
  403f02:	inc    eax
  403f03:	add    BYTE PTR [eax-0x40000000],cl
  403f09:	and    al,0x40
  403f0b:	add    BYTE PTR [edx],bh
  403f0d:	add    DWORD PTR [eax],eax
  403f0f:	add    BYTE PTR [esp+0x40],al
  403f13:	add    BYTE PTR [ecx],dh
  403f15:	add    DWORD PTR [eax],eax
  403f17:	add    al,ch
  403f19:	sub    BYTE PTR [eax+0x0],al
  403f1c:	nop
  403f1d:	add    DWORD PTR [eax],eax
  403f1f:	add    BYTE PTR [eax+0x22],dh
  403f22:	inc    eax
  403f23:	add    BYTE PTR [edx],dl
  403f25:	add    DWORD PTR [eax],eax
  403f27:	add    al,dh
  403f29:	sbb    DWORD PTR [eax+0x0],eax
  403f2c:	bound  eax,QWORD PTR [eax]
  403f2e:	add    BYTE PTR [eax],al
  403f30:	mov    esp,0xe100401f
  403f35:	add    BYTE PTR [eax],al
  403f37:	add    BYTE PTR [eax],bl
  403f39:	pop    ss
  403f3a:	inc    eax
  403f3b:	add    BYTE PTR [edi],al
  403f3d:	add    BYTE PTR [eax],al
  403f3f:	add    BYTE PTR [ebx+ebx*1],bh
  403f42:	inc    eax
  403f43:	add    BYTE PTR [ecx+0x20000000],cl
  403f49:	pop    ss
  403f4a:	inc    eax
  403f4b:	add    BYTE PTR [eax],cl
  403f4d:	add    BYTE PTR [eax],al
  403f4f:	add    al,al
  403f51:	and    eax,0x1520040
  403f56:	add    BYTE PTR [eax],al
  403f58:	aam    0x23
  403f5a:	inc    eax
  403f5b:	add    BYTE PTR [eax],ch
  403f5d:	add    DWORD PTR [eax],eax
  403f5f:	add    BYTE PTR [esi+eiz*1],bl
  403f62:	inc    eax
  403f63:	add    BYTE PTR [eax+0x1],bl
  403f66:	add    BYTE PTR [eax],al
  403f68:	push   eax
  403f69:	and    al,0x40
  403f6b:	add    BYTE PTR [edx],dh
  403f6d:	add    DWORD PTR [eax],eax
  403f6f:	add    ah,dl
  403f71:	and    DWORD PTR [eax+0x0],eax
  403f74:	add    eax,0x48000001
  403f79:	daa    
  403f7a:	inc    eax
  403f7b:	add    BYTE PTR [esi+0x1],ch
  403f7e:	add    BYTE PTR [eax],al
  403f80:	or     al,0x25
  403f82:	inc    eax
  403f83:	add    BYTE PTR [ecx+0x1],al
  403f86:	add    BYTE PTR [eax],al
  403f88:	js     0x403fb1
  403f8a:	inc    eax
  403f8b:	add    BYTE PTR [edx+0x1],dh
  403f8e:	add    BYTE PTR [eax],al
  403f90:	and    BYTE PTR ds:0x14c0040,0x0
  403f97:	add    BYTE PTR [eax+0x74004027],dl
  403f9d:	add    DWORD PTR [eax],eax
  403f9f:	add    ah,cl
  403fa1:	and    al,0x40
  403fa3:	add    BYTE PTR [ebx],bh
  403fa5:	add    DWORD PTR [eax],eax
  403fa7:	add    ah,dh
  403fa9:	es inc eax
  403fab:	add    BYTE PTR [edi+0x1],ah
  403fae:	add    BYTE PTR [eax],al
  403fb0:	test   al,0x27
  403fb2:	inc    eax
  403fb3:	add    BYTE PTR [esi+0x1],dh
  403fb6:	add    BYTE PTR [eax],al
  403fb8:	fs es inc eax
  403fbb:	add    BYTE PTR [ebp+0x1],bl
  403fbe:	add    BYTE PTR [eax],al
  403fc0:	dec    eax
  403fc1:	sbb    eax,DWORD PTR [eax+0x0]
  403fc4:	mov    al,BYTE PTR [eax]
  403fc6:	add    BYTE PTR [eax],al
  403fc8:	dec    esp
  403fc9:	and    eax,0x1470040
  403fce:	add    BYTE PTR [eax],al
  403fd0:	lods   al,BYTE PTR ds:[esi]
  403fd1:	es inc eax
  403fd3:	add    BYTE PTR [edx+0x1],ah
  403fd6:	add    BYTE PTR [eax],al
  403fd8:	sub    BYTE PTR [edi],dl
  403fda:	inc    eax
  403fdb:	add    BYTE PTR [ecx],cl
  403fdd:	add    BYTE PTR [eax],al
  403fdf:	add    ah,ah
  403fe1:	daa    
  403fe2:	inc    eax
  403fe3:	add    BYTE PTR [ebx+0x1],bh
  403fe6:	add    BYTE PTR [eax],al
  403fe8:	jo     0x404010
  403fea:	inc    eax
  403feb:	add    BYTE PTR [esi+0x1],bl
  403fee:	add    BYTE PTR [eax],al
  403ff0:	test   BYTE PTR [edi],ah
  403ff2:	inc    eax
  403ff3:	add    BYTE PTR [ebx+0x1],dh
  403ff6:	add    BYTE PTR [eax],al
  403ff8:	add    BYTE PTR [edi],ah
  403ffa:	inc    eax
  403ffb:	add    BYTE PTR [eax+0x1],ch
  403ffe:	add    BYTE PTR [eax],al
  404000:	shl    BYTE PTR ds:0x1530040,1
  404006:	add    BYTE PTR [eax],al
  404008:	fsub   DWORD PTR [eax+eax*2]
  40400b:	add    BYTE PTR [ecx+eax*1],bh
  40400e:	add    BYTE PTR [eax],al
  404010:	pop    eax
  404011:	and    eax,0x1480040
  404016:	add    BYTE PTR [eax],al
  404018:	mov    eax,0x63004026
  40401d:	add    DWORD PTR [eax],eax
  40401f:	add    al,ah
  404021:	and    eax,DWORD PTR [eax+0x0]
  404024:	sub    DWORD PTR [ecx],eax
  404026:	add    BYTE PTR [eax],al
  404028:	push   esp
  404029:	sbb    eax,DWORD PTR [eax+0x0]
  40402c:	mov    eax,DWORD PTR [eax]
  40402e:	add    BYTE PTR [eax],al
  404030:	pop    esp
  404031:	and    al,0x40
  404033:	add    BYTE PTR [ebx],dh
  404035:	add    DWORD PTR [eax],eax
  404037:	add    BYTE PTR [edi+eiz*1+0x1770040],dh
  40403e:	add    BYTE PTR [eax],al
  404040:	loopne 0x404063
  404042:	inc    eax
  404043:	add    BYTE PTR [esi],al
  404045:	add    DWORD PTR [eax],eax
  404047:	add    al,al
  404049:	daa    
  40404a:	inc    eax
  40404b:	add    BYTE PTR [eax+0x1],bh
  40404e:	add    BYTE PTR [eax],al
  404050:	sbb    BYTE PTR ds:0x1420040,ah
  404056:	add    BYTE PTR [eax],al
  404058:	sub    BYTE PTR [esi],ah
  40405a:	inc    eax
  40405b:	add    BYTE PTR [ecx+0x1],bl
  40405e:	add    BYTE PTR [eax],al
  404060:	int3   
  404061:	daa    
  404062:	inc    eax
  404063:	add    BYTE PTR [ecx+0x1],bh
  404066:	add    BYTE PTR [eax],al
  404068:	push   esp
  404069:	daa    
  40406a:	inc    eax
  40406b:	add    BYTE PTR [edi+0x1],ch
  40406e:	add    BYTE PTR [eax],al
  404070:	pushf  
  404071:	daa    
  404072:	inc    eax
  404073:	add    BYTE PTR [ebp+0x1],dh
  404076:	add    BYTE PTR [eax],al
  404078:	fsub   DWORD PTR [edi]
  40407a:	inc    eax
  40407b:	add    BYTE PTR [edx+0x1],bh
  40407e:	add    BYTE PTR [eax],al
  404080:	and    al,0x27
  404082:	inc    eax
  404083:	add    BYTE PTR [ebx+0x1],ch
  404086:	add    BYTE PTR [eax],al
  404088:	mov    WORD PTR ds:0x14d0040,fs
  40408e:	add    BYTE PTR [eax],al
  404090:	add    BYTE PTR [eax],bl
  404092:	inc    eax
  404093:	add    BYTE PTR [eax+eax*1],ah
  404096:	add    BYTE PTR [eax],al
  404098:	test   al,0x1c
  40409a:	inc    eax
  40409b:	add    BYTE PTR [esi+0x40000000],ah
  4040a1:	sbb    BYTE PTR [eax+0x0],al
  4040a4:	sub    al,0x0
  4040a6:	add    BYTE PTR [eax],al
  4040a8:	and    BYTE PTR ds:0xae0040,bl
  4040ae:	add    BYTE PTR [eax],al
  4040b0:	and    BYTE PTR [eax],bl
  4040b2:	inc    eax
  4040b3:	add    BYTE PTR [eax],ch
  4040b5:	add    BYTE PTR [eax],al
  4040b7:	add    ah,ah
  4040b9:	sbb    al,0x40
  4040bb:	add    BYTE PTR [edx-0x8000000],ch
  4040c1:	sbb    DWORD PTR [eax+0x0],eax
  4040c4:	arpl   WORD PTR [eax],ax
  4040c6:	add    BYTE PTR [eax],al
  4040c8:	jo     0x4040f3
  4040ca:	inc    eax
  4040cb:	add    BYTE PTR [ecx+0x4c000001],bl
  4040d1:	and    eax,DWORD PTR [eax+0x0]
  4040d4:	and    BYTE PTR [ecx],al
  4040d6:	add    BYTE PTR [eax],al
  4040d8:	xor    BYTE PTR [edi],dl
  4040da:	inc    eax
  4040db:	add    BYTE PTR [edx],cl
  4040dd:	add    BYTE PTR [eax],al
  4040df:	add    BYTE PTR [eax+0x1b],dh
  4040e2:	inc    eax
  4040e3:	add    BYTE PTR [eax+eax*1+0x19e80000],cl
  4040ea:	inc    eax
  4040eb:	add    BYTE PTR [ecx+0x0],ah
  4040ee:	add    BYTE PTR [eax],al
  4040f0:	lods   al,BYTE PTR ds:[esi]
  4040f1:	pop    ds
  4040f2:	inc    eax
  4040f3:	add    al,ah
  4040f5:	add    BYTE PTR [eax],al
  4040f7:	add    BYTE PTR [eax+0x37004018],bl
  4040fd:	add    BYTE PTR [eax],al
  4040ff:	add    BYTE PTR [eax-0x46ffbfe3],ch
  404105:	add    BYTE PTR [eax],al
  404107:	add    BYTE PTR [eax],bh
  404109:	pop    ss
  40410a:	inc    eax
  40410b:	add    BYTE PTR [ebx],cl
  40410d:	add    BYTE PTR [eax],al
  40410f:	add    ah,ch
  404111:	and    DWORD PTR [eax+0x0],eax
  404114:	pop    es
  404115:	add    DWORD PTR [eax],eax
  404117:	add    ah,ch
  404119:	and    eax,DWORD PTR [eax+0x0]
  40411c:	sub    al,BYTE PTR [ecx]
  40411e:	add    BYTE PTR [eax],al
  404120:	fsub   QWORD PTR ds:0x1540040
  404126:	add    BYTE PTR [eax],al
  404128:	push   0x34004024
  40412d:	add    DWORD PTR [eax],eax
  40412f:	add    ah,al
  404131:	es inc eax
  404133:	add    BYTE PTR [ecx+eax*1+0x0],ah
  404137:	add    BYTE PTR [esi+eiz*1+0x40],bh
  40413b:	add    BYTE PTR [edi+0x1],bl
  40413e:	add    BYTE PTR [eax],al
  404140:	jl     0x40415d
  404142:	inc    eax
  404143:	add    BYTE PTR [ebp+0x60000000],cl
  404149:	daa    
  40414a:	inc    eax
  40414b:	add    BYTE PTR [eax+0x1],dh
  40414e:	add    BYTE PTR [eax],al
  404150:	in     al,0x24
  404152:	inc    eax
  404153:	add    BYTE PTR ds:0x30000001,bh
  404159:	daa    
  40415a:	inc    eax
  40415b:	add    BYTE PTR [ecx+eax*1+0x0],ch
  40415f:	add    BYTE PTR [eiz*1+0x1430040],ah
  404166:	add    BYTE PTR [eax],al
  404168:	or     al,0x27
  40416a:	inc    eax
  40416b:	add    BYTE PTR [ecx+0x1],ch
  40416e:	add    BYTE PTR [eax],al
  404170:	cwde   
  404171:	and    eax,0x14e0040
  404176:	add    BYTE PTR [eax],al
  404178:	xor    al,0x26
  40417a:	inc    eax
  40417b:	add    BYTE PTR [edx+0x1],bl
  40417e:	add    BYTE PTR [eax],al
  404180:	fcomp  DWORD PTR [ecx]
  404182:	inc    eax
  404183:	add    BYTE PTR [edi+0x0],bl
  404186:	add    BYTE PTR [eax],al
  404188:	xchg   esp,eax
  404189:	pop    ds
  40418a:	inc    eax
  40418b:	add    dh,bl
  40418d:	add    BYTE PTR [eax],al
  40418f:	add    BYTE PTR [eax+0x3b004018],bh
  404195:	add    BYTE PTR [eax],al
  404197:	add    BYTE PTR [eax+0x15004022],bl
  40419d:	add    DWORD PTR [eax],eax
  40419f:	add    al,bl
  4041a1:	sbb    al,BYTE PTR [eax+0x0]
  4041a4:	add    BYTE PTR [eax],0x0
  4041a7:	add    BYTE PTR [ecx+eiz*1+0x40],al
  4041ab:	add    ch,bh
  4041ad:	add    BYTE PTR [eax],al
  4041af:	add    BYTE PTR [eax+0x54004019],al
  4041b5:	add    BYTE PTR [eax],al
  4041b7:	add    BYTE PTR [edi+ebx*1],al
  4041ba:	inc    eax
  4041bb:	add    ch,dl
  4041bd:	add    BYTE PTR [eax],al
  4041bf:	add    BYTE PTR [eax+0x1a],dl
  4041c2:	inc    eax
  4041c3:	add    BYTE PTR [esi+0x0],ch
  4041c6:	add    BYTE PTR [eax],al
  4041c8:	push   esp
  4041c9:	and    BYTE PTR [eax+0x0],al
  4041cc:	in     al,dx
  4041cd:	add    BYTE PTR [eax],al
  4041cf:	add    BYTE PTR [eax+0x7a00401a],ch
  4041d5:	add    BYTE PTR [eax],al
  4041d7:	add    ah,ah
  4041d9:	and    BYTE PTR [eax+0x0],al
  4041dc:	test   DWORD PTR [eax],0x19080000
  4041e2:	inc    eax
  4041e3:	add    BYTE PTR [ebp+0x0],al
  4041e6:	add    BYTE PTR [eax],al
  4041e8:	push   eax
  4041e9:	push   ds
  4041ea:	inc    eax
  4041eb:	add    dh,al
  4041ed:	add    BYTE PTR [eax],al
  4041ef:	add    BYTE PTR [eax],al
  4041f1:	sbb    al,BYTE PTR [eax+0x0]
  4041f4:	add    BYTE PTR fs:[eax],al
  4041f7:	add    BYTE PTR [eax-0x65ffbfd7],al
  4041fd:	add    DWORD PTR [eax],eax
  4041ff:	add    al,cl
  404201:	pop    ds
  404202:	inc    eax
  404203:	add    dl,ah
  404205:	add    BYTE PTR [eax],al
  404207:	add    BYTE PTR [eax+0x1a],bl
  40420a:	inc    eax
  40420b:	add    BYTE PTR [edi+0x0],ch
  40420e:	add    BYTE PTR [eax],al
  404210:	pusha  
  404211:	and    BYTE PTR [eax+0x0],al
  404214:	in     eax,dx
  404215:	add    BYTE PTR [eax],al
  404217:	add    BYTE PTR [eax+0x17],al
  40421a:	inc    eax
  40421b:	add    BYTE PTR [eax+eax*1],cl
  40421e:	add    BYTE PTR [eax],al
  404220:	mov    BYTE PTR [ebx],bl
  404222:	inc    eax
  404223:	add    BYTE PTR [esi-0x60000000],cl
  404229:	sbb    BYTE PTR [eax+0x0],al
  40422c:	cmp    BYTE PTR [eax],al
  40422e:	add    BYTE PTR [eax],al
  404230:	mov    ah,0x1d
  404232:	inc    eax
  404233:	add    BYTE PTR [edx-0x58000000],bh
  404239:	pop    ss
  40423a:	inc    eax
  40423b:	add    BYTE PTR [ecx],bl
  40423d:	add    BYTE PTR [eax],al
  40423f:	add    BYTE PTR [esp+0x40],dh
  404243:	add    BYTE PTR ds:0x24000001,dh
  404249:	sbb    al,0x40
  40424b:	add    BYTE PTR [ebx+0x48000000],bl
  404251:	sbb    BYTE PTR [eax+0x0],al
  404254:	sub    eax,0x2c000000
  404259:	sbb    eax,0xaf0040
  40425e:	add    BYTE PTR [eax],al
  404260:	dec    eax
  404261:	pop    ss
  404262:	inc    eax
  404263:	add    BYTE PTR ds:0x94000000,cl
  404269:	sbb    eax,DWORD PTR [eax+0x0]
  40426c:	pop    DWORD PTR [eax]
  40426e:	add    BYTE PTR [eax],al
  404270:	xor    BYTE PTR [eax],bl
  404272:	inc    eax
  404273:	add    BYTE PTR [edx],ch
  404275:	add    BYTE PTR [eax],al
  404277:	add    ah,bh
  404279:	sbb    al,0x40
  40427b:	add    BYTE PTR [eax+eax*1+0x17e00000],ch
  404282:	inc    eax
  404283:	add    BYTE PTR [eax],ah
  404285:	add    BYTE PTR [eax],al
  404287:	add    BYTE PTR [eax+0x1c],bh
  40428a:	inc    eax
  40428b:	add    BYTE PTR [edx+0x38000000],ah
  404291:	sbb    al,BYTE PTR [eax+0x0]
  404294:	imul   eax,DWORD PTR [eax],0x0
  404297:	add    BYTE PTR [eax],dh
  404299:	and    BYTE PTR [eax+0x0],al
  40429c:	jmp    0x684042a1
  4042a1:	sbb    al,BYTE PTR [eax+0x0]
  4042a4:	jno    0x4042a6
  4042a6:	add    BYTE PTR [eax],al
  4042a8:	jl     0x4042ca
  4042aa:	inc    eax
  4042ab:	add    bh,ch
  4042ad:	add    BYTE PTR [eax],al
  4042af:	add    BYTE PTR [eax+0x17],dl
  4042b2:	inc    eax
  4042b3:	add    BYTE PTR [esi],cl
  4042b5:	add    BYTE PTR [eax],al
  4042b7:	add    BYTE PTR [eax-0x6fffbfe5],ah
  4042bd:	add    BYTE PTR [eax],al
  4042bf:	add    BYTE PTR [eax+0x17],bl
  4042c2:	inc    eax
  4042c3:	add    BYTE PTR [edi],cl
  4042c5:	add    BYTE PTR [eax],al
  4042c7:	add    al,bh
  4042c9:	and    DWORD PTR [eax+0x0],eax
  4042cc:	or     BYTE PTR [ecx],al
  4042ce:	add    BYTE PTR [eax],al
  4042d0:	lods   al,BYTE PTR ds:[esi]
  4042d1:	sbb    eax,DWORD PTR [eax+0x0]
  4042d4:	xchg   ecx,eax
  4042d5:	add    BYTE PTR [eax],al
  4042d7:	add    BYTE PTR [eax+0x5a004019],dh
  4042dd:	add    BYTE PTR [eax],al
  4042df:	add    BYTE PTR [eax+ebp*1+0x18a0040],ah
  4042e6:	add    BYTE PTR [eax],al
  4042e8:	push   esp
  4042e9:	pop    ds
  4042ea:	inc    eax
  4042eb:	add    dl,bl
  4042ed:	add    BYTE PTR [eax],al
  4042ef:	add    BYTE PTR [ecx+ebp*1+0x40],cl
  4042f3:	add    BYTE PTR [edi-0x33ffffff],dl
  4042f9:	adc    al,0x40
  4042fb:	add    BYTE PTR ds:0x60000001,bl
  404301:	pop    ss
  404302:	inc    eax
  404303:	add    BYTE PTR [eax],dl
  404305:	add    BYTE PTR [eax],al
  404307:	add    BYTE PTR [eax-0x6dffbfe5],bh
  40430d:	add    BYTE PTR [eax],al
  40430f:	add    BYTE PTR [eax+0x36004018],dl
  404315:	add    BYTE PTR [eax],al
  404317:	add    BYTE PTR [ebp+ebx*1+0xb80040],bl
  40431e:	add    BYTE PTR [eax],al
  404320:	enter  0x4018,0x0
  404324:	cmp    eax,0xe4000000
  404329:	sbb    eax,0xbe0040
  40432e:	add    BYTE PTR [eax],al
  404330:	xor    BYTE PTR [edx],bl
  404332:	inc    eax
  404333:	add    BYTE PTR [edx+0x0],ch
  404336:	add    BYTE PTR [eax],al
  404338:	and    al,0x20
  40433a:	inc    eax
  40433b:	add    al,ch
  40433d:	add    BYTE PTR [eax],al
  40433f:	add    BYTE PTR [eax+0x19],ch
  404342:	inc    eax
  404343:	add    BYTE PTR [ecx+0x0],dl
  404346:	add    BYTE PTR [eax],al
  404348:	loopne 0x404368
  40434a:	inc    eax
  40434b:	add    dl,dl
  40434d:	add    BYTE PTR [eax],al
  40434f:	add    BYTE PTR [eax],ch
  404351:	sbb    DWORD PTR [eax+0x0],eax
  404354:	dec    ecx
  404355:	add    BYTE PTR [eax],al
  404357:	add    BYTE PTR [eax-0x35ffbfe2],al
  40435d:	add    BYTE PTR [eax],al
  40435f:	add    BYTE PTR [eax+0x17],ch
  404362:	inc    eax
  404363:	add    BYTE PTR [ecx],dl
  404365:	add    BYTE PTR [eax],al
  404367:	add    ah,al
  404369:	sbb    eax,DWORD PTR [eax+0x0]
  40436c:	xchg   ebx,eax
  40436d:	add    BYTE PTR [eax],al
  40436f:	add    BYTE PTR [eax+0x55004019],cl
  404375:	add    BYTE PTR [eax],al
  404377:	add    BYTE PTR [eax],dl
  404379:	pop    ds
  40437a:	inc    eax
  40437b:	add    dh,dl
  40437d:	add    BYTE PTR [eax],al
  40437f:	add    al,cl
  404381:	sbb    DWORD PTR [eax+0x0],eax
  404384:	pop    ebp
  404385:	add    BYTE PTR [eax],al
  404387:	add    BYTE PTR [eax+0x1f],bh
  40438a:	inc    eax
  40438b:	add    ah,bl
  40438d:	add    BYTE PTR [eax],al
  40438f:	add    al,ah
  404391:	sbb    al,BYTE PTR [eax+0x0]
  404394:	add    DWORD PTR [eax],0x29900000
  40439a:	inc    eax
  40439b:	add    BYTE PTR [ebx+0x50000001],bl
  4043a1:	and    DWORD PTR [eax+0x0],eax
  4043a4:	inc    BYTE PTR [eax]
  4043a6:	add    BYTE PTR [eax],al
  4043a8:	rcr    BYTE PTR [eax],1
  4043aa:	inc    eax
  4043ab:	add    BYTE PTR [esi],bh
  4043ad:	add    BYTE PTR [eax],al
  4043af:	add    al,dh
  4043b1:	sbb    eax,0xbf0040
  4043b6:	add    BYTE PTR [eax],al
  4043b8:	sub    BYTE PTR [edx],bl
  4043ba:	inc    eax
  4043bb:	add    BYTE PTR [ecx+0x0],ch
  4043be:	add    BYTE PTR [eax],al
  4043c0:	sbb    BYTE PTR [eax],ah
  4043c2:	inc    eax
  4043c3:	add    bh,ah
  4043c5:	add    BYTE PTR [eax],al
  4043c7:	add    BYTE PTR [eax+0x19],dh
  4043ca:	inc    eax
  4043cb:	add    BYTE PTR [edx+0x0],dl
  4043ce:	add    BYTE PTR [eax],al
  4043d0:	in     al,dx
  4043d1:	push   ds
  4043d2:	inc    eax
  4043d3:	add    bl,dl
  4043d5:	add    BYTE PTR [eax],al
  4043d7:	add    BYTE PTR [eax],dl
  4043d9:	sbb    BYTE PTR [eax+0x0],al
  4043dc:	add    BYTE PTR es:[eax],al
  4043df:	add    al,al
  4043e1:	sbb    al,0x40
  4043e3:	add    BYTE PTR [eax+0x8000000],ch
  4043e9:	sbb    BYTE PTR [eax+0x0],al
  4043ec:	and    eax,0xb4000000
  4043f1:	sbb    al,0x40
  4043f3:	add    BYTE PTR [edi-0x70000000],ah
  4043f9:	sbb    al,BYTE PTR [eax+0x0]
  4043fc:	ja     0x4043fe
  4043fe:	add    BYTE PTR [eax],al
  404400:	shl    BYTE PTR [eax],0x40
  404403:	add    ah,dh
  404405:	add    BYTE PTR [eax],al
  404407:	add    BYTE PTR [eax+0x18],dl
  40440a:	inc    eax
  40440b:	add    BYTE PTR [esi],ch
  40440d:	add    BYTE PTR [eax],al
  40440f:	add    BYTE PTR [ebx*1+0xb00040],bh
  404416:	add    BYTE PTR [eax],al
  404418:	xor    BYTE PTR [ecx],bl
  40441a:	inc    eax
  40441b:	add    BYTE PTR [edx+0x0],cl
  40441e:	add    BYTE PTR [eax],al
  404420:	mov    WORD PTR [esi],ds
  404422:	inc    eax
  404423:	add    bl,cl
  404425:	add    BYTE PTR [eax],al
  404427:	add    BYTE PTR [eax+0x19],dl
  40442a:	inc    eax
  40442b:	add    BYTE PTR [esi+0x0],cl
  40442e:	add    BYTE PTR [eax],al
  404430:	xchg   esp,eax
  404431:	sub    BYTE PTR [eax+0x0],al
  404434:	mov    DWORD PTR [ecx],eax
  404436:	add    BYTE PTR [eax],al
  404438:	mov    esp,0xcf00401e
  40443d:	add    BYTE PTR [eax],al
  40443f:	add    BYTE PTR [eax],bl
  404441:	sub    DWORD PTR [eax+0x0],eax
  404444:	xchg   esp,eax
  404445:	add    DWORD PTR [eax],eax
  404447:	add    al,bh
  404449:	and    al,BYTE PTR [eax+0x0]
  40444c:	sbb    eax,DWORD PTR [ecx]
  40444e:	add    BYTE PTR [eax],al
  404450:	add    al,0x24
  404452:	inc    eax
  404453:	add    BYTE PTR ds:0x78000001,ch
  404459:	sbb    al,BYTE PTR [eax+0x0]
  40445c:	jae    0x40445e
  40445e:	add    BYTE PTR [eax],al
  404460:	cwde   
  404461:	and    BYTE PTR [eax+0x0],al
  404464:	icebp  
  404465:	add    BYTE PTR [eax],al
  404467:	add    BYTE PTR [eax+0x19],al
  40446a:	inc    eax
  40446b:	add    BYTE PTR [eax+eax*1+0x0],cl
  40446f:	add    BYTE PTR [esi+ebx*1+0xcd0040],ah
  404476:	add    BYTE PTR [eax],al
  404478:	rcr    BYTE PTR [eax],0x40
  40447b:	add    BYTE PTR [eax+eax*1],bh
  40447e:	add    BYTE PTR [eax],al
  404480:	movs   BYTE PTR es:[edi],BYTE PTR ds:[esi]
  404481:	and    al,BYTE PTR [eax+0x0]
  404484:	push   ss
  404485:	add    DWORD PTR [eax],eax
  404487:	add    al,bl
  404489:	sbb    eax,0xbd0040
  40448e:	add    BYTE PTR [eax],al
  404490:	test   al,0x18
  404492:	inc    eax
  404493:	add    BYTE PTR [ecx],bh
  404495:	add    BYTE PTR [eax],al
  404497:	add    al,al
  404499:	sbb    eax,0xbb0040
  40449e:	add    BYTE PTR [eax],al
  4044a0:	js     0x4044bb
  4044a2:	inc    eax
  4044a3:	add    BYTE PTR [ebx+0x0],dl
  4044a6:	add    BYTE PTR [eax],al
  4044a8:	clc    
  4044a9:	push   ds
  4044aa:	inc    eax
  4044ab:	add    ah,dl
  4044ad:	add    BYTE PTR [eax],al
  4044af:	add    al,cl
  4044b1:	sub    BYTE PTR [eax+0x0],al
  4044b4:	lea    eax,[ecx]
  4044b6:	add    BYTE PTR [eax],al
  4044b8:	fcomp  QWORD PTR [ebx]
  4044ba:	inc    eax
  4044bb:	add    BYTE PTR [ebp-0x30000000],dl
  4044c1:	sbb    DWORD PTR [eax+0x0],eax
  4044c4:	pop    esi
  4044c5:	add    BYTE PTR [eax],al
  4044c7:	add    BYTE PTR [eax+0x23],al
  4044ca:	inc    eax
  4044cb:	add    BYTE PTR [edi],bl
  4044cd:	add    DWORD PTR [eax],eax
  4044cf:	add    BYTE PTR [eax-0x22ffbfe1],cl
  4044d5:	add    BYTE PTR [eax],al
  4044d7:	add    BYTE PTR [eax+0x17],dh
  4044da:	inc    eax
  4044db:	add    BYTE PTR [edx],dl
  4044dd:	add    BYTE PTR [eax],al
  4044df:	add    BYTE PTR [edx+eiz*1],al
  4044e2:	inc    eax
  4044e3:	add    BYTE PTR [ecx],cl
  4044e5:	add    DWORD PTR [eax],eax
  4044e7:	add    al,dl
  4044e9:	sbb    eax,DWORD PTR [eax+0x0]
  4044ec:	xchg   esp,eax
  4044ed:	add    BYTE PTR [eax],al
  4044ef:	add    BYTE PTR [eax+ebp*1+0x40],bl
  4044f3:	add    BYTE PTR [ecx+eax*1+0x22100000],al
  4044fa:	inc    eax
  4044fb:	add    BYTE PTR [edx],cl
  4044fd:	add    DWORD PTR [eax],eax
  4044ff:	add    BYTE PTR [eax+0x17],bh
  404502:	inc    eax
  404503:	add    BYTE PTR [ebx],dl
  404505:	add    BYTE PTR [eax],al
  404507:	add    BYTE PTR [eax],bl
  404509:	sbb    al,BYTE PTR [eax+0x0]
  40450c:	add    BYTE PTR [bx+si],al
  40450f:	add    ah,bh
  404511:	pop    ds
  404512:	inc    eax
  404513:	add    ch,ah
  404515:	add    BYTE PTR [eax],al
  404517:	add    BYTE PTR [eax+0x7800401a],bl
  40451d:	add    BYTE PTR [eax],al
  40451f:	add    ah,cl
  404521:	and    BYTE PTR [eax+0x0],al
  404524:	cmc    
  404525:	add    BYTE PTR [eax],al
  404527:	add    BYTE PTR [eax+0x1a],al
  40452a:	inc    eax
  40452b:	add    BYTE PTR [eax+eax*1+0x0],ch
  40452f:	add    BYTE PTR [eax+eiz*1],bh
  404532:	inc    eax
  404533:	add    dl,ch
  404535:	add    BYTE PTR [eax],al
  404537:	add    BYTE PTR [eax],dl
  404539:	sbb    DWORD PTR [eax+0x0],eax
  40453c:	inc    esi
  40453d:	add    BYTE PTR [eax],al
  40453f:	add    BYTE PTR [esi+ebx*1+0x40],bl
  404543:	add    bh,al
  404545:	add    BYTE PTR [eax],al
  404547:	add    BYTE PTR [eax],al
  404549:	sbb    DWORD PTR [eax+0x0],eax
  40454c:	inc    esp
  40454d:	add    BYTE PTR [eax],al
  40454f:	add    BYTE PTR [eax],cl
  404551:	sub    DWORD PTR [eax+0x0],eax
  404554:	xchg   ebx,eax
  404555:	add    DWORD PTR [eax],eax
  404557:	add    ah,dl
  404559:	and    al,BYTE PTR [eax+0x0]
  40455c:	sbb    DWORD PTR [ecx],eax
  40455e:	add    BYTE PTR [eax],al
  404560:	inc    esp
  404561:	push   ds
  404562:	inc    eax
  404563:	add    ch,al
  404565:	add    BYTE PTR [eax],al
  404567:	add    BYTE PTR [eax+0x14004017],al
  40456d:	add    BYTE PTR [eax],al
  40456f:	add    al,ch
  404571:	sbb    eax,DWORD PTR [eax+0x0]
  404574:	xchg   esi,eax
  404575:	add    BYTE PTR [eax],al
  404577:	add    al,dl
  404579:	sbb    al,BYTE PTR [eax+0x0]
  40457c:	jg     0x40457e
  40457e:	add    BYTE PTR [eax],al
  404580:	xor    al,0x21
  404582:	inc    eax
  404583:	add    ah,bh
  404585:	add    BYTE PTR [eax],al
  404587:	add    al,ah
  404589:	sbb    DWORD PTR [eax+0x0],eax
  40458c:	pusha  
  40458d:	add    BYTE PTR [eax],al
  40458f:	add    BYTE PTR [eax-0x20ffbfe1],ah
  404595:	add    BYTE PTR [eax],al
  404597:	add    BYTE PTR [eax+0x15004017],cl
  40459d:	add    BYTE PTR [eax],al
  40459f:	add    ah,dh
  4045a1:	sbb    eax,DWORD PTR [eax+0x0]
  4045a4:	xchg   edi,eax
  4045a5:	add    BYTE PTR [eax],al
  4045a7:	add    BYTE PTR [edx+eiz*1],bl
  4045aa:	inc    eax
  4045ab:	add    BYTE PTR [ebx],cl
  4045ad:	add    DWORD PTR [eax],eax
  4045af:	add    BYTE PTR [eax+0x23004023],al
  4045b5:	add    DWORD PTR [eax],eax
  4045b7:	add    BYTE PTR [eax+0x21],ch
  4045ba:	inc    eax
  4045bb:	add    bh,bh
  4045bd:	add    BYTE PTR [eax],al
  4045bf:	add    BYTE PTR [ecx+eiz*1+0x40],bh
  4045c3:	add    BYTE PTR [eax],al
  4045c5:	add    DWORD PTR [eax],eax
  4045c7:	add    BYTE PTR [ebx+eiz*1+0x1240040],bl
  4045ce:	add    BYTE PTR [eax],al
  4045d0:	mov    eax,0x7c00401a
  4045d5:	add    BYTE PTR [eax],al
  4045d7:	add    BYTE PTR [ecx+eiz*1],al
  4045da:	inc    eax
  4045db:	add    cl,bh
  4045dd:	add    BYTE PTR [eax],al
  4045df:	add    BYTE PTR [eax],dl
  4045e1:	sbb    al,BYTE PTR [eax+0x0]
  4045e4:	data16 add BYTE PTR [eax],al
  4045e7:	add    ah,ch
  4045e9:	pop    ds
  4045ea:	inc    eax
  4045eb:	add    ah,ah
  4045ed:	add    BYTE PTR [eax],al
  4045ef:	add    BYTE PTR [ebx+eiz*1+0x40],ah
  4045f3:	add    BYTE PTR [ecx],ah
  4045f5:	add    DWORD PTR [eax],eax
  4045f7:	add    BYTE PTR [esp],bl
  4045fa:	inc    eax
  4045fb:	add    BYTE PTR [esi],ch
  4045fd:	add    DWORD PTR [eax],eax
  4045ff:	add    BYTE PTR [eax+0x16004017],dl
  404605:	add    BYTE PTR [eax],al
  404607:	add    BYTE PTR [eax],al
  404609:	sbb    al,0x40
  40460b:	add    BYTE PTR [eax-0x68000000],bl
  404611:	pop    ss
  404612:	inc    eax
  404613:	add    BYTE PTR [edi],dl
  404615:	add    BYTE PTR [eax],al
  404617:	add    BYTE PTR [eax],ch
  404619:	and    al,BYTE PTR [eax+0x0]
  40461c:	or     al,0x1
  40461e:	add    BYTE PTR [eax],al
  404620:	or     al,0x1c
  404622:	inc    eax
  404623:	add    BYTE PTR [ecx-0x60000000],bl
  404629:	pop    ss
  40462a:	inc    eax
  40462b:	add    BYTE PTR [eax],bl
  40462d:	add    BYTE PTR [eax],al
  40462f:	add    BYTE PTR [edx+eiz*1],dh
  404632:	inc    eax
  404633:	add    BYTE PTR ds:0x18000001,cl
  404639:	sbb    al,0x40
  40463b:	add    BYTE PTR [edx-0x40000000],bl
  404641:	sbb    al,BYTE PTR [eax+0x0]
  404644:	jge    0x404646
  404646:	add    BYTE PTR [eax],al
  404648:	sbb    al,0x21
  40464a:	inc    eax
  40464b:	add    dl,bh
  40464d:	add    BYTE PTR [eax],al
  40464f:	add    BYTE PTR [eax+0x19],cl
  404652:	inc    eax
  404653:	add    BYTE PTR [ebp+0x0],cl
  404656:	add    BYTE PTR [eax],al
  404658:	mov    al,0x1e
  40465a:	inc    eax
  40465b:	add    dh,cl
  40465d:	add    BYTE PTR [eax],al
  40465f:	add    BYTE PTR [eax+0x7b00401a],dh
  404665:	add    BYTE PTR [eax],al
  404667:	add    ah,dh
  404669:	and    BYTE PTR [eax+0x0],al
  40466c:	clc    
  40466d:	add    BYTE PTR [eax],al
  40466f:	add    BYTE PTR [eax+0x56004019],dl
  404675:	add    BYTE PTR [eax],al
  404677:	add    BYTE PTR [eax],ch
  404679:	sub    DWORD PTR [eax+0x0],eax
  40467c:	xchg   ebp,eax
  40467d:	add    DWORD PTR [eax],eax
  40467f:	add    BYTE PTR [eax],dl
  404681:	and    eax,DWORD PTR [eax+0x0]
  404684:	sbb    al,0x1
  404686:	add    BYTE PTR [eax],al
  404688:	mov    al,0x18
  40468a:	inc    eax
  40468b:	add    BYTE PTR [edx],bh
  40468d:	add    BYTE PTR [eax],al
  40468f:	add    al,bh
  404691:	and    eax,DWORD PTR [eax+0x0]
  404694:	sub    al,0x1
  404696:	add    BYTE PTR [eax],al
  404698:	int3   
  404699:	sbb    eax,0xbc0040
  40469e:	add    BYTE PTR [eax],al
  4046a0:	mov    WORD PTR [edx],fs
  4046a2:	inc    eax
  4046a3:	add    BYTE PTR [ecx+eax*1],dl
  4046a6:	add    BYTE PTR [eax],al
  4046a8:	mov    al,ds:0x58004019
  4046ad:	add    BYTE PTR [eax],al
  4046af:	add    BYTE PTR [eax],dh
  4046b1:	pop    ds
  4046b2:	inc    eax
  4046b3:	add    al,bl
  4046b5:	add    BYTE PTR [eax],al
  4046b7:	add    BYTE PTR [eax+0x1a004017],dh
  4046bd:	add    BYTE PTR [eax],al
  4046bf:	add    BYTE PTR [eax],dh
  4046c1:	sbb    al,0x40
  4046c3:	add    BYTE PTR [eax+eax*1+0x17f80000],bl
  4046ca:	inc    eax
  4046cb:	add    BYTE PTR [ebx],ah
  4046cd:	add    BYTE PTR [eax],al
  4046cf:	add    BYTE PTR [esp+ebx*1+0xa50040],bl
  4046d6:	add    BYTE PTR [eax],al
  4046d8:	jl     0x404702
  4046da:	inc    eax
  4046db:	add    BYTE PTR [edi+0x30000001],al
  4046e1:	and    eax,0x1450040
  4046e6:	add    BYTE PTR [eax],al
  4046e8:	fs and eax,0x14a0040
  4046ee:	add    BYTE PTR [eax],al
  4046f0:	lock sub BYTE PTR [eax+0x0],al
  4046f4:	xchg   ecx,eax
  4046f5:	add    DWORD PTR [eax],eax
  4046f7:	add    BYTE PTR [eax+0x36004024],al
  4046fd:	add    DWORD PTR [eax],eax
  4046ff:	add    al,dh
  404701:	and    al,0x40
  404703:	add    BYTE PTR [edi],bh
  404705:	add    DWORD PTR [eax],eax
  404707:	add    BYTE PTR [eax+ebp*1],dh
  40470a:	inc    eax
  40470b:	add    BYTE PTR [eax+0x1],al
  404711:	es inc eax
  404713:	add    BYTE PTR [esi+0x1],dl
  404716:	add    BYTE PTR [eax],al
  404718:	dec    esp
  404719:	sub    BYTE PTR [eax+0x0],al
  40471c:	add    BYTE PTR [ecx],0x0
  40471f:	add    BYTE PTR [ebp+eiz*1+0x1500040],ah
  404726:	add    BYTE PTR [eax],al
  404728:	pusha  
  404729:	sbb    al,BYTE PTR [eax+0x0]
  40472c:	jo     0x40472e
  40472e:	add    BYTE PTR [eax],al
  404730:	jo     0x404752
  404732:	inc    eax
  404733:	add    dh,ch
  404735:	add    BYTE PTR [eax],al
  404737:	add    BYTE PTR [eax+0x1b004017],bh
  40473d:	add    BYTE PTR [eax],al
  40473f:	add    BYTE PTR [esp+ebx*1],bh
  404742:	inc    eax
  404743:	add    BYTE PTR [ebp-0x30000000],bl
  404749:	sub    BYTE PTR [eax+0x0],al
  40474c:	mov    es,WORD PTR [ecx]
  40474e:	add    BYTE PTR [eax],al
  404750:	adc    al,0x28
  404752:	inc    eax
  404753:	add    BYTE PTR [esi+0x1],bh
  404756:	add    BYTE PTR [eax],al
  404758:	cwde   
  404759:	adc    al,0x40
  40475b:	add    BYTE PTR [ecx+0x1],cl
  40475e:	add    BYTE PTR [eax],al
  404760:	cmp    BYTE PTR [eax+eax*2],dl
  404763:	add    BYTE PTR [ebx],ch
  404765:	add    DWORD PTR [eax],eax
  404767:	add    al,dl
  404769:	es inc eax
  40476b:	add    BYTE PTR [ebp+0x1],ah
  40476e:	add    BYTE PTR [eax],al
  404770:	inc    eax
  404771:	es inc eax
  404773:	add    BYTE PTR [ebx+0x1],bl
  404776:	add    BYTE PTR [eax],al
  404778:	and    al,0x28
  40477a:	inc    eax
  40477b:	add    BYTE PTR [edi+0x1],bh
  40477e:	add    BYTE PTR [eax],al
  404780:	push   0x44004014
  404785:	add    DWORD PTR [eax],eax
  404787:	add    BYTE PTR [eax],cl
  404789:	adc    al,0x40
  40478b:	add    BYTE PTR [esi],cl
  40478d:	add    DWORD PTR [eax],eax
  40478f:	add    BYTE PTR [eax+0x60004026],cl
  404795:	add    DWORD PTR [eax],eax
  404797:	add    al,ch
  404799:	and    eax,0x1550040
  40479e:	add    BYTE PTR [eax],al
  4047a0:	pop    eax
  4047a1:	sbb    BYTE PTR [eax+0x0],al
  4047a4:	das    
  4047a5:	add    BYTE PTR [eax],al
  4047a7:	add    BYTE PTR [eax+0x1d],cl
  4047aa:	inc    eax
  4047ab:	add    BYTE PTR [ecx-0x40000000],dh
  4047b1:	pop    ss
  4047b2:	inc    eax
  4047b3:	add    BYTE PTR [eax+eax*1],bl
  4047b6:	add    BYTE PTR [eax],al
  4047b8:	inc    eax
  4047b9:	and    al,BYTE PTR [eax+0x0]
  4047bc:	sgdtd  [eax]
  4047bf:	add    BYTE PTR [eax+0x1c],cl
  4047c2:	inc    eax
  4047c3:	add    BYTE PTR [esi-0x28000000],bl
  4047c9:	sbb    BYTE PTR [eax+0x0],al
  4047cc:	aas    
  4047cd:	add    BYTE PTR [eax],al
  4047cf:	add    ah,bh
  4047d1:	sbb    eax,0xc00040
  4047d6:	add    BYTE PTR [eax],al
  4047d8:	cwde   
  4047d9:	sbb    DWORD PTR [eax+0x0],eax
  4047dc:	push   edi
  4047dd:	add    BYTE PTR [eax],al
  4047df:	add    BYTE PTR [eax],ah
  4047e1:	pop    ds
  4047e2:	inc    eax
  4047e3:	add    bh,dl
  4047e5:	add    BYTE PTR [eax],al
  4047e7:	add    BYTE PTR [eax],bl
  4047e9:	sbb    DWORD PTR [eax+0x0],eax
  4047ec:	inc    edi
  4047ed:	add    BYTE PTR [eax],al
  4047ef:	add    BYTE PTR [eax+0x1e],ch
  4047f2:	inc    eax
  4047f3:	add    al,cl
  4047f5:	add    BYTE PTR [eax],al
  4047f7:	add    ah,ch
  4047f9:	and    al,BYTE PTR [eax+0x0]
  4047fc:	sbb    al,BYTE PTR [ecx]
  4047fe:	add    BYTE PTR [eax],al
  404800:	and    BYTE PTR [ecx],bl
  404802:	inc    eax
  404803:	add    BYTE PTR [eax+0x0],cl
  404806:	add    BYTE PTR [eax],al
  404808:	je     0x404828
  40480a:	inc    eax
  40480b:	add    cl,cl
  40480d:	add    BYTE PTR [eax],al
  40480f:	add    BYTE PTR [eax],bl
  404811:	sbb    BYTE PTR [eax+0x0],al
  404814:	daa    
  404815:	add    BYTE PTR [eax],al
  404817:	add    al,bl
  404819:	sub    BYTE PTR [eax+0x0],al
  40481c:	pop    DWORD PTR [ecx]
  40481e:	add    BYTE PTR [eax],al
  404820:	int3   
  404821:	sbb    al,0x40
  404823:	add    BYTE PTR [ecx-0x38000000],ch
  404829:	pop    ss
  40482a:	inc    eax
  40482b:	add    BYTE PTR ds:0x54000000,bl
  404831:	sbb    al,0x40
  404833:	add    BYTE PTR [edi+0x48000000],bl
  404839:	sbb    al,BYTE PTR [eax+0x0]
  40483c:	ins    DWORD PTR es:[edi],dx
  40483d:	add    BYTE PTR [eax],al
  40483f:	add    BYTE PTR [ebx+eiz*1+0x40],dh
  404843:	add    BYTE PTR [edx],ah
  404845:	add    DWORD PTR [eax],eax
  404847:	add    BYTE PTR [eax+0x20],cl
  40484a:	inc    eax
  40484b:	add    bl,ch
  40484d:	add    BYTE PTR [eax],al
  40484f:	add    al,ah
  404851:	sbb    BYTE PTR [eax+0x0],al
  404854:	inc    eax
  404855:	add    BYTE PTR [eax],al
  404857:	add    BYTE PTR [eax],cl
  404859:	push   ds
  40485a:	inc    eax
  40485b:	add    cl,al
  40485d:	add    BYTE PTR [eax],al
  40485f:	add    BYTE PTR [eax+0x18],ch
  404862:	inc    eax
  404863:	add    BYTE PTR [ecx],dh
  404865:	add    BYTE PTR [eax],al
  404867:	add    BYTE PTR [eax+0x13004022],al
  40486d:	add    DWORD PTR [eax],eax
  40486f:	add    BYTE PTR [eax+0x1d],ah
  404872:	inc    eax
  404873:	add    BYTE PTR [ebx-0x30000000],dh
  404879:	pop    ss
  40487a:	inc    eax
  40487b:	add    BYTE PTR [esi],bl
  40487d:	add    BYTE PTR [eax],al
  40487f:	add    BYTE PTR [eax+0x1c],ah
  404882:	inc    eax
  404883:	add    BYTE PTR [eax+0x60000000],ah
  404889:	sbb    BYTE PTR [eax+0x0],al
  40488c:	xor    BYTE PTR [eax],al
  40488e:	add    BYTE PTR [eax],al
  404890:	push   esp
  404891:	sbb    eax,0xb20040
  404896:	add    BYTE PTR [eax],al
  404898:	lock sbb BYTE PTR [eax+0x0],al
  40489c:	inc    edx
  40489d:	add    BYTE PTR [eax],al
  40489f:	add    BYTE PTR [esi+ebx*1],ch
  4048a2:	inc    eax
  4048a3:	add    bl,al
  4048a5:	add    BYTE PTR [eax],al
  4048a7:	add    al,al
  4048a9:	sbb    DWORD PTR [eax+0x0],eax
  4048ac:	pop    esp
  4048ad:	add    BYTE PTR [eax],al
  4048af:	add    BYTE PTR [ecx+ebp*1+0x40],bl
  4048b3:	add    BYTE PTR [eax+0x28000001],bl
  4048b9:	and    eax,DWORD PTR [eax+0x0]
  4048bc:	push   ds
  4048bd:	add    DWORD PTR [eax],eax
  4048bf:	add    BYTE PTR [eax+ebp*1+0x18b0040],dh
  4048c6:	add    BYTE PTR [eax],al
  4048c8:	nop
  4048c9:	and    al,0x40
  4048cb:	add    BYTE PTR [edi],dh
  4048cd:	add    DWORD PTR [eax],eax
  4048cf:	add    BYTE PTR [eax+0x7600401a],cl
  4048d5:	add    BYTE PTR [eax],al
  4048d7:	add    BYTE PTR [eax+eiz*1+0xf30040],dh
  4048de:	add    BYTE PTR [eax],al
  4048e0:	call   0x214088fc
  4048e5:	add    BYTE PTR [eax],al
  4048e7:	add    BYTE PTR [esp+ebx*1+0xa30040],al
  4048ee:	add    BYTE PTR [eax],al
  4048f0:	fcom   DWORD PTR [edi]
  4048f2:	inc    eax
  4048f3:	add    BYTE PTR [edi],bl
  4048f5:	add    BYTE PTR [eax],al
  4048f7:	add    BYTE PTR [edx+eiz*1+0x40],cl
  4048fb:	add    BYTE PTR [eax],dl
  4048fd:	add    DWORD PTR [eax],eax
  4048ff:	add    BYTE PTR [esp+ebx*1+0x40],ch
  404903:	add    BYTE PTR [ecx-0x18000000],ah
  404909:	sbb    BYTE PTR [eax+0x0],al
  40490c:	inc    ecx
  40490d:	add    BYTE PTR [eax],al
  40490f:	add    BYTE PTR [eax+ebp*1+0x1880040],al
  404916:	add    BYTE PTR [eax],al
  404918:	mov    al,0x22
  40491a:	inc    eax
  40491b:	add    BYTE PTR [edi],dl
  40491d:	add    DWORD PTR [eax],eax
  40491f:	add    al,bh
  404921:	sub    BYTE PTR [eax+0x0],al
  404924:	xchg   edx,eax
  404925:	add    DWORD PTR [eax],eax
  404927:	add    BYTE PTR [esi+ebx*1],dl
  40492a:	inc    eax
  40492b:	add    dl,al
  40492d:	add    BYTE PTR [eax],al
  40492f:	add    BYTE PTR [eax+0x18],dh
  404932:	inc    eax
  404933:	add    BYTE PTR [edx],dh
  404935:	add    BYTE PTR [eax],al
  404937:	add    BYTE PTR [ebp+ebx*1+0x40],ch
  40493b:	add    BYTE PTR [eax+eax*1+0x18280000],dh
  404942:	inc    eax
  404943:	add    BYTE PTR [ecx],ch
  404945:	add    BYTE PTR [eax],al
  404947:	add    al,dh
  404949:	sbb    al,0x40
  40494b:	add    BYTE PTR [ebx-0x38000000],ch
  404951:	sbb    al,BYTE PTR [eax+0x0]
  404954:	jle    0x404956
  404956:	add    BYTE PTR [eax],al
  404958:	sub    BYTE PTR [ecx],ah
  40495a:	inc    eax
  40495b:	add    bl,bh
  40495d:	add    BYTE PTR [eax],al
  40495f:	add    BYTE PTR [eax+0x18],bh
  404962:	inc    eax
  404963:	add    BYTE PTR [ebx],dh
  404965:	add    BYTE PTR [eax],al
  404967:	add    BYTE PTR [eax+0x1d],bh
  40496a:	inc    eax
  40496b:	add    BYTE PTR [ebp+0x8000000],dh
  404971:	sbb    al,BYTE PTR [eax+0x0]
  404974:	add    BYTE PTR gs:[eax],al
  404977:	add    al,ah
  404979:	pop    ds
  40497a:	inc    eax
  40497b:	add    bl,ah
  40497d:	add    BYTE PTR [eax],al
  40497f:	add    BYTE PTR [eax+ebp*1+0x40],dl
  404983:	add    BYTE PTR [ebx-0x43ffffff],al
  404989:	and    DWORD PTR [eax+0x0],eax
  40498c:	add    eax,DWORD PTR [ecx]
  40498e:	add    BYTE PTR [eax],al
  404990:	jl     0x4049a7
  404992:	inc    eax
  404993:	add    BYTE PTR [ebx],al
  404995:	add    BYTE PTR [eax],al
  404997:	add    BYTE PTR [ebp+edx*1+0x40],bl
  40499b:	add    BYTE PTR [ecx+eax*1+0x23bc0000],cl
  4049a2:	inc    eax
  4049a3:	add    BYTE PTR [esi],ah
  4049a5:	add    DWORD PTR [eax],eax
  4049a7:	add    BYTE PTR [esp+0x1390040],dh
  4049ae:	add    BYTE PTR [eax],al
  4049b0:	cmp    BYTE PTR [eax+eax*2],ah
  4049b3:	add    BYTE PTR [eax],dh
  4049b5:	add    DWORD PTR [eax],eax
  4049b7:	add    BYTE PTR [ebx+ebx*1],cl
  4049ba:	inc    eax
  4049bb:	add    BYTE PTR [ebp-0x80000000],al
  4049c1:	sbb    BYTE PTR [eax+0x0],al
  4049c4:	xor    al,0x0
  4049c6:	add    BYTE PTR [eax],al
  4049c8:	test   BYTE PTR ds:0xb60040,bl
  4049ce:	add    BYTE PTR [eax],al
  4049d0:	add    BYTE PTR [eax],al
  4049d2:	add    BYTE PTR [eax],al
  4049d4:	sub    edi,DWORD PTR [ebx]
  4049d6:	lahf   
  4049d7:	push   ebp
  4049d8:	add    BYTE PTR [eax],al
  4049da:	add    BYTE PTR [eax],al
  4049dc:	add    al,BYTE PTR [eax]
  4049de:	add    BYTE PTR [eax],al
  4049e0:	and    eax,DWORD PTR [eax]
  4049e2:	add    BYTE PTR [eax],al
  4049e4:	xchg   esp,eax
  4049e5:	dec    edx
  4049e6:	add    BYTE PTR [eax],al
  4049e8:	xchg   esp,eax
  4049e9:	add    BYTE PTR ds:[eax],al
  4049ec:	add    BYTE PTR [eax],al
  4049ee:	add    BYTE PTR [eax],al
  4049f0:	sub    edi,DWORD PTR [ebx]
  4049f2:	lahf   
  4049f3:	push   ebp
  4049f4:	add    BYTE PTR [eax],al
  4049f6:	add    BYTE PTR [eax],al
  4049f8:	or     eax,0xc8000000
  4049fd:	add    DWORD PTR [eax],eax
  4049ff:	add    ah,cl
  404a01:	dec    edx
  404a02:	add    BYTE PTR [eax],al
  404a04:	int3   
  404a05:	add    BYTE PTR ds:[eax],al
	...
  404a28:	push   0x0
	...
  404a61:	add    BYTE PTR [eax],al
  404a63:	add    BYTE PTR [eax+eiz*4],al
  404a66:	inc    eax
  404a67:	add    BYTE PTR [eax+0x100404a],dl
  404a6d:	add    BYTE PTR [eax],al
  404a6f:	add    BYTE PTR [ecx+esi*4+0x40],bh
  404a76:	add    BYTE PTR [eax],al
  404a78:	sbb    al,0x10
  404a7a:	inc    eax
  404a7b:	add    BYTE PTR [esi],cl
  404a7d:	add    BYTE PTR [eax],al
  404a7f:	add    BYTE PTR [eax],al
  404a81:	xor    eax,0x0
	...
  404a8e:	add    BYTE PTR [eax],al
  404a90:	nop
  404a91:	xchg   esi,eax
  404a92:	add    BYTE PTR [eax],al
  404a94:	push   edx
  404a95:	push   ebx
  404a96:	inc    esp
  404a97:	push   ebx
  404a98:	push   esp
  404a99:	mov    edi,0x6ea46130
  404a9e:	pop    esp
  404a9f:	dec    ebp
  404aa0:	test   eax,0xa3a6c2cd
  404aa5:	push   ds
  404aa6:	or     ebp,esp
  404aa8:	add    DWORD PTR [eax],eax
  404aaa:	add    BYTE PTR [eax],al
  404aac:	je     0x404b28
  404aae:	jne    0x404b24
  404ab0:	imul   ebp,DWORD PTR [esi+ebp*1+0x70],0x6264
	...
  404acc:	inc    edi
  404acd:	inc    ebx
  404ace:	push   esp
  404acf:	dec    esp
  404ad0:	add    BYTE PTR [eax],dl
  404ad2:	add    BYTE PTR [eax],al
  404ad4:	add    al,0x0
  404ad6:	add    BYTE PTR [eax],al
  404ad8:	cs inc ebx
  404ada:	push   edx
  404adb:	push   esp
  404adc:	and    al,0x58
  404ade:	inc    ebx
  404adf:	inc    ecx
  404ae0:	add    BYTE PTR [eax],al
  404ae2:	add    BYTE PTR [eax],al
  404ae4:	add    al,0x10
  404ae6:	add    BYTE PTR [eax],al
  404ae8:	add    al,0x0
  404aea:	add    BYTE PTR [eax],al
  404aec:	cs inc ebx
  404aee:	push   edx
  404aef:	push   esp
  404af0:	and    al,0x58
  404af2:	inc    ebx
  404af3:	inc    ecx
  404af4:	inc    ecx
  404af5:	add    BYTE PTR [eax],al
  404af7:	add    BYTE PTR [eax],cl
  404af9:	adc    BYTE PTR [eax],al
  404afb:	add    BYTE PTR [eax+eax*1],al
  404afe:	add    BYTE PTR [eax],al
  404b00:	cs inc ebx
  404b02:	push   edx
  404b03:	push   esp
  404b04:	and    al,0x58
  404b06:	inc    ebx
  404b07:	pop    edx
  404b08:	add    BYTE PTR [eax],al
  404b0a:	add    BYTE PTR [eax],al
  404b0c:	or     al,0x10
  404b0e:	add    BYTE PTR [eax],al
  404b10:	add    al,0x0
  404b12:	add    BYTE PTR [eax],al
  404b14:	cs inc ebx
  404b16:	push   edx
  404b17:	push   esp
  404b18:	and    al,0x58
  404b1a:	dec    ecx
  404b1b:	inc    ecx
  404b1c:	add    BYTE PTR [eax],al
  404b1e:	add    BYTE PTR [eax],al
  404b20:	adc    BYTE PTR [eax],dl
  404b22:	add    BYTE PTR [eax],al
  404b24:	add    al,0x0
  404b26:	add    BYTE PTR [eax],al
  404b28:	cs inc ebx
  404b2a:	push   edx
  404b2b:	push   esp
  404b2c:	and    al,0x58
  404b2e:	dec    ecx
  404b2f:	inc    ecx
  404b30:	inc    ecx
  404b31:	add    BYTE PTR [eax],al
  404b33:	add    BYTE PTR [eax+edx*1],dl
  404b36:	add    BYTE PTR [eax],al
  404b38:	add    al,0x0
  404b3a:	add    BYTE PTR [eax],al
  404b3c:	cs inc ebx
  404b3e:	push   edx
  404b3f:	push   esp
  404b40:	and    al,0x58
  404b42:	dec    ecx
  404b43:	pop    ecx
  404b44:	add    BYTE PTR [eax],al
  404b46:	add    BYTE PTR [eax],al
  404b48:	sbb    BYTE PTR [eax],dl
  404b4a:	add    BYTE PTR [eax],al
  404b4c:	add    al,0x0
  404b4e:	add    BYTE PTR [eax],al
  404b50:	cs inc ebx
  404b52:	push   edx
  404b53:	push   esp
  404b54:	and    al,0x58
  404b56:	dec    ecx
  404b57:	pop    edx
  404b58:	add    BYTE PTR [eax],al
  404b5a:	add    BYTE PTR [eax],al
  404b5c:	sbb    al,0x10
  404b5e:	add    BYTE PTR [eax],al
  404b60:	cmp    BYTE PTR [eax],al
  404b62:	add    BYTE PTR [eax],al
  404b64:	imul   sp,WORD PTR cs:[si+0x73],0x7824
  404b6c:	add    BYTE PTR [eax],al
  404b6e:	add    BYTE PTR [eax],al
  404b70:	pusha  
  404b71:	adc    BYTE PTR [eax],al
  404b73:	add    BYTE PTR [eax],dh
  404b75:	cmp    al,BYTE PTR [eax]
  404b77:	add    BYTE PTR [esi],ch
  404b79:	jb     0x404bdf
  404b7b:	popa   
  404b7c:	je     0x404bdf
  404b7e:	add    BYTE PTR [eax],al
  404b80:	nop
  404b81:	dec    edx
  404b82:	add    BYTE PTR [eax],al
  404b84:	add    al,0x0
  404b86:	add    BYTE PTR [eax],al
  404b88:	cs jb  0x404bef
  404b8b:	popa   
  404b8c:	je     0x404bef
  404b8e:	and    al,0x73
  404b90:	js     0x404bf6
  404b92:	popa   
  404b93:	je     0x404bf6
  404b95:	add    BYTE PTR [eax],al
  404b97:	add    BYTE PTR [edx+ecx*2+0x2000000],dl
  404b9e:	add    BYTE PTR [eax],al
  404ba0:	cs jb  0x404c07
  404ba3:	popa   
  404ba4:	je     0x404c07
  404ba6:	and    al,0x7a
  404ba8:	jp     0x404c24
  404baa:	bound  esp,QWORD PTR fs:[edi+0x0]
  404bae:	add    BYTE PTR [eax],al
  404bb0:	mov    al,ds:0xd200004c
  404bb5:	dec    ebx
  404bb6:	add    BYTE PTR [eax],al
  404bb8:	cs je  0x404c20
  404bbb:	js     0x404c31
  404bbd:	and    al,0x6d
  404bbf:	outs   dx,BYTE PTR ds:[esi]
  404bc0:	add    BYTE PTR [eax],al
  404bc2:	add    BYTE PTR [eax],al
  404bc4:	js     0x404b5e
  404bc6:	add    BYTE PTR [eax],al
  404bc8:	pop    esp
  404bc9:	add    BYTE PTR [eax],al
  404bcb:	add    BYTE PTR [esi],ch
  404bcd:	js     0x404c33
  404bcf:	popa   
  404bd0:	je     0x404c33
  404bd2:	and    al,0x78
  404bd4:	add    BYTE PTR [eax],al
  404bd6:	add    BYTE PTR [eax],al
  404bd8:	add    BYTE PTR [eax+0x100000],ah
  404bde:	add    BYTE PTR [eax],al
  404be0:	cs fs popa 
  404be3:	je     0x404c46
  404be5:	add    BYTE PTR [eax],al
  404be7:	add    BYTE PTR [eax],dl
  404be9:	mov    al,ds:0x6540000
  404bee:	add    BYTE PTR [eax],al
  404bf0:	bound  esi,QWORD PTR cs:[ebx+0x73]
  404bf4:	add    BYTE PTR [eax],al
  404bf6:	add    BYTE PTR [eax],al
  404bf8:	add    BYTE PTR [eax+0x1bc0000],dh
  404bfe:	add    BYTE PTR [eax],al
  404c00:	imul   esp,DWORD PTR cs:[ecx+eiz*2+0x74],0x352461
  404c09:	add    BYTE PTR [eax],al
  404c0b:	add    BYTE PTR [ecx+esi*4+0x40000],bh
  404c12:	add    BYTE PTR [eax],al
  404c14:	xor    BYTE PTR cs:[eax],dh
  404c17:	arpl   WORD PTR [esi+0x67],sp
  404c1a:	add    BYTE PTR [eax],al
  404c1c:	shl    BYTE PTR [ecx+0x1b80000],0x0
  404c23:	add    BYTE PTR [esi],ch
  404c25:	imul   esp,DWORD PTR [ecx+eiz*2+0x74],0x322461
  404c2d:	add    BYTE PTR [eax],al
  404c2f:	add    BYTE PTR [eax-0x4d],bh
  404c32:	add    BYTE PTR [eax],al
  404c34:	adc    al,0x0
  404c36:	add    BYTE PTR [eax],al
  404c38:	imul   esp,DWORD PTR cs:[ecx+eiz*2+0x74],0x332461
  404c41:	add    BYTE PTR [eax],al
  404c43:	add    BYTE PTR [ebx+esi*4+0x1bc0000],cl
  404c4a:	add    BYTE PTR [eax],al
  404c4c:	imul   esp,DWORD PTR cs:[ecx+eiz*2+0x74],0x342461
  404c55:	add    BYTE PTR [eax],al
  404c57:	add    BYTE PTR [eax-0x4b],cl
  404c5a:	add    BYTE PTR [eax],al
  404c5c:	pop    edx
  404c5d:	or     DWORD PTR [eax],eax
  404c5f:	add    BYTE PTR [esi],ch
  404c61:	imul   esp,DWORD PTR [ecx+eiz*2+0x74],0x362461
  404c69:	add    BYTE PTR [eax],al
  404c6b:	add    BYTE PTR [eax],al
  404c6d:	rol    BYTE PTR [eax],0x0
  404c70:	push   esp
  404c71:	add    DWORD PTR [eax],eax
  404c73:	add    BYTE PTR [esi],ch
  404c75:	jb     0x404cea
  404c77:	jb     0x404cdc
  404c79:	and    al,0x30
  404c7b:	xor    DWORD PTR [eax],eax
  404c7d:	add    BYTE PTR [eax],al
  404c7f:	add    BYTE PTR [eax-0x3f],ah
  404c82:	add    BYTE PTR [eax],al
  404c84:	and    BYTE PTR [ecx],dl
  404c86:	add    BYTE PTR [eax],al
  404c88:	cs jb  0x404cfe
  404c8b:	jb     0x404cf0
  404c8d:	and    al,0x30
  404c8f:	xor    al,BYTE PTR [eax]
	...
  404ca5:	mov    edi,edi
  404ca7:	push   ebp
  404ca8:	mov    ebp,esp
  404caa:	mov    eax,DWORD PTR [ebp+0xc]
  404cad:	xor    ecx,ecx
  404caf:	test   eax,eax
  404cb1:	je     0x404cba
  404cb3:	cmp    eax,0x7fffffff
  404cb8:	jbe    0x404cbf
  404cba:	mov    ecx,0x80070057
  404cbf:	test   ecx,ecx
  404cc1:	js     0x404cd9
  404cc3:	lea    ecx,[ebp+0x14]
  404cc6:	mov    edx,eax
  404cc8:	push   ecx
  404cc9:	push   DWORD PTR [ebp+0x10]
  404ccc:	push   ecx
  404ccd:	mov    ecx,DWORD PTR [ebp+0x8]
  404cd0:	call   0x404cee
  404cd5:	mov    ecx,eax
  404cd7:	jmp    0x404ce5
  404cd9:	test   eax,eax
  404cdb:	je     0x404ce5
  404cdd:	mov    eax,DWORD PTR [ebp+0x8]
  404ce0:	xor    edx,edx
  404ce2:	mov    WORD PTR [eax],dx
  404ce5:	mov    eax,ecx
  404ce7:	pop    ebp
  404ce8:	ret    
  404ce9:	int3   
  404cea:	int3   
  404ceb:	int3   
  404cec:	int3   
  404ced:	int3   
  404cee:	mov    edi,edi
  404cf0:	push   ebp
  404cf1:	mov    ebp,esp
  404cf3:	push   ebx
  404cf4:	push   esi
  404cf5:	push   edi
  404cf6:	push   DWORD PTR [ebp+0x10]
  404cf9:	lea    esi,[edx-0x1]
  404cfc:	mov    edi,ecx
  404cfe:	push   DWORD PTR [ebp+0xc]
  404d01:	xor    ebx,ebx
  404d03:	push   esi
  404d04:	push   edi
  404d05:	call   DWORD PTR ds:0x40b1a4
  404d0b:	add    esp,0x10
  404d0e:	test   eax,eax
  404d10:	js     0x404d1a
  404d12:	cmp    eax,esi
  404d14:	ja     0x404d1a
  404d16:	jne    0x404d25
  404d18:	jmp    0x404d1f
  404d1a:	mov    ebx,0x8007007a
  404d1f:	xor    eax,eax
  404d21:	mov    WORD PTR [edi+esi*2],ax
  404d25:	pop    edi
  404d26:	pop    esi
  404d27:	mov    eax,ebx
  404d29:	pop    ebx
  404d2a:	pop    ebp
  404d2b:	ret    0xc
  404d2e:	int3   
  404d2f:	int3   
  404d30:	int3   
  404d31:	int3   
  404d32:	int3   
  404d33:	mov    edi,edi
  404d35:	push   ebp
  404d36:	mov    ebp,esp
  404d38:	mov    eax,0x2810
  404d3d:	call   0x409830
  404d42:	mov    eax,ds:0x40a004
  404d47:	xor    eax,ebp
  404d49:	mov    DWORD PTR [ebp-0x4],eax
  404d4c:	push   ebx
  404d4d:	push   0x800
  404d52:	lea    eax,[ebp-0x1004]
  404d58:	xor    ebx,ebx
  404d5a:	push   eax
  404d5b:	push   DWORD PTR [ebp+0x8]
  404d5e:	push   ebx
  404d5f:	call   DWORD PTR ds:0x40b064
  404d65:	push   eax
  404d66:	call   DWORD PTR ds:0x40b04c
  404d6c:	test   eax,eax
  404d6e:	je     0x404e7a
  404d74:	push   esi
  404d75:	lea    eax,[ebp+0xc]
  404d78:	mov    esi,0xbff
  404d7d:	push   eax
  404d7e:	lea    eax,[ebp-0x1004]
  404d84:	push   eax
  404d85:	lea    eax,[ebp-0x2808]
  404d8b:	push   esi
  404d8c:	push   eax
  404d8d:	call   DWORD PTR ds:0x40b1a4
  404d93:	add    esp,0x10
  404d96:	test   eax,eax
  404d98:	js     0x404e79
  404d9e:	cmp    eax,esi
  404da0:	ja     0x404e79
  404da6:	jne    0x404db1
  404da8:	xor    eax,eax
  404daa:	mov    WORD PTR [ebp-0x100a],ax
  404db1:	mov    esi,DWORD PTR ds:0x40a35c
  404db7:	push   esi
  404db8:	call   DWORD PTR ds:0x40b028
  404dbe:	and    eax,0xffff7fff
  404dc3:	cmp    eax,0x2
  404dc6:	jne    0x404e16
  404dc8:	lea    eax,[ebp-0x2810]
  404dce:	push   eax
  404dcf:	push   esi
  404dd0:	call   DWORD PTR ds:0x40b008
  404dd6:	test   eax,eax
  404dd8:	je     0x404e16
  404dda:	lea    ecx,[ebp-0x2808]
  404de0:	mov    DWORD PTR [ebp-0x280c],ebx
  404de6:	lea    edx,[ecx+0x2]
  404de9:	mov    ax,WORD PTR [ecx]
  404dec:	add    ecx,0x2
  404def:	cmp    ax,bx
  404df2:	jne    0x404de9
  404df4:	push   ebx
  404df5:	sub    ecx,edx
  404df7:	lea    eax,[ebp-0x280c]
  404dfd:	push   eax
  404dfe:	sar    ecx,1
  404e00:	lea    eax,[ebp-0x2808]
  404e06:	push   ecx
  404e07:	push   eax
  404e08:	push   DWORD PTR ds:0x40a35c
  404e0e:	call   DWORD PTR ds:0x40b004
  404e14:	jmp    0x404e79
  404e16:	push   edi
  404e17:	push   ebx
  404e18:	push   0x401068
  404e1d:	push   ebx
  404e1e:	push   ebx
  404e1f:	push   0xffffffff
  404e21:	lea    eax,[ebp-0x2808]
  404e27:	push   eax
  404e28:	push   ebx
  404e29:	push   0x1
  404e2b:	call   DWORD PTR ds:0x40b0d0
  404e31:	mov    edi,eax
  404e33:	test   edi,edi
  404e35:	je     0x404e78
  404e37:	push   edi
  404e38:	push   ebx
  404e39:	call   DWORD PTR ds:0x40b044
  404e3f:	mov    esi,eax
  404e41:	test   esi,esi
  404e43:	je     0x404e71
  404e45:	push   ebx
  404e46:	push   0x401068
  404e4b:	push   edi
  404e4c:	push   esi
  404e4d:	push   0xffffffff
  404e4f:	lea    eax,[ebp-0x2808]
  404e55:	push   eax
  404e56:	push   ebx
  404e57:	push   0x1
  404e59:	call   DWORD PTR ds:0x40b0d0
  404e5f:	test   eax,eax
  404e61:	je     0x404e71
  404e63:	push   esi
  404e64:	push   0x40106c
  404e69:	call   DWORD PTR ds:0x40b1a8
  404e6f:	pop    ecx
  404e70:	pop    ecx
  404e71:	push   esi
  404e72:	call   DWORD PTR ds:0x40b040
  404e78:	pop    edi
  404e79:	pop    esi
  404e7a:	mov    ecx,DWORD PTR [ebp-0x4]
  404e7d:	xor    ecx,ebp
  404e7f:	pop    ebx
  404e80:	call   0x409090
  404e85:	mov    esp,ebp
  404e87:	pop    ebp
  404e88:	ret    
  404e89:	int3   
  404e8a:	int3   
  404e8b:	int3   
  404e8c:	int3   
  404e8d:	int3   
  404e8e:	mov    edi,edi
  404e90:	push   ebp
  404e91:	mov    ebp,esp
  404e93:	sub    esp,0x30
  404e96:	mov    eax,ds:0x40a004
  404e9b:	xor    eax,ebp
  404e9d:	mov    DWORD PTR [ebp-0x4],eax
  404ea0:	push   esi
  404ea1:	push   edi
  404ea2:	lea    eax,[ebp-0x28]
  404ea5:	xor    esi,esi
  404ea7:	push   eax
  404ea8:	push   0x28
  404eaa:	mov    edi,edx
  404eac:	mov    DWORD PTR [ebp-0x28],esi
  404eaf:	call   DWORD PTR ds:0x40b0a8
  404eb5:	push   eax
  404eb6:	call   DWORD PTR ds:0x40b0a4
  404ebc:	test   eax,eax
  404ebe:	je     0x404f13
  404ec0:	neg    edi
  404ec2:	mov    DWORD PTR [ebp-0x14],0x1
  404ec9:	lea    eax,[ebp-0x10]
  404ecc:	push   eax
  404ecd:	sbb    edi,edi
  404ecf:	push   0x401074
  404ed4:	and    edi,0x2
  404ed7:	push   esi
  404ed8:	mov    DWORD PTR [ebp-0x8],edi
  404edb:	call   DWORD PTR ds:0x40b148
  404ee1:	test   eax,eax
  404ee3:	je     0x404f08
  404ee5:	lea    eax,[ebp-0x2c]
  404ee8:	mov    DWORD PTR [ebp-0x2c],esi
  404eeb:	push   eax
  404eec:	lea    eax,[ebp-0x24]
  404eef:	push   eax
  404ef0:	push   0x10
  404ef2:	lea    eax,[ebp-0x14]
  404ef5:	push   eax
  404ef6:	push   esi
  404ef7:	push   DWORD PTR [ebp-0x28]
  404efa:	call   DWORD PTR ds:0x40b140
  404f00:	call   DWORD PTR ds:0x40b018
  404f06:	mov    esi,eax
  404f08:	push   DWORD PTR [ebp-0x28]
  404f0b:	call   DWORD PTR ds:0x40b030
  404f11:	jmp    0x404f1b
  404f13:	call   DWORD PTR ds:0x40b018
  404f19:	mov    esi,eax
  404f1b:	mov    ecx,DWORD PTR [ebp-0x4]
  404f1e:	mov    eax,esi
  404f20:	pop    edi
  404f21:	xor    ecx,ebp
  404f23:	pop    esi
  404f24:	call   0x409090
  404f29:	mov    esp,ebp
  404f2b:	pop    ebp
  404f2c:	ret    
  404f2d:	int3   
  404f2e:	int3   
  404f2f:	int3   
  404f30:	int3   
  404f31:	int3   
  404f32:	mov    edi,edi
  404f34:	push   ebx
  404f35:	push   esi
  404f36:	mov    esi,DWORD PTR ds:0x40a360
  404f3c:	push   edi
  404f3d:	mov    edi,ecx
  404f3f:	test   esi,esi
  404f41:	je     0x404f87
  404f43:	xor    ebx,ebx
  404f45:	mov    eax,DWORD PTR [edi+0x204]
  404f4b:	mov    ecx,DWORD PTR [esi+0x204]
  404f51:	cmp    eax,ecx
  404f53:	jg     0x404f7d
  404f55:	jne    0x404f75
  404f57:	push   0xffffffff
  404f59:	lea    eax,[esi+0x4]
  404f5c:	push   eax
  404f5d:	push   0xffffffff
  404f5f:	lea    eax,[edi+0x4]
  404f62:	push   eax
  404f63:	push   0x0
  404f65:	push   0x400
  404f6a:	call   DWORD PTR ds:0x40b0cc
  404f70:	cmp    eax,0x1
  404f73:	je     0x404f7d
  404f75:	mov    ebx,esi
  404f77:	mov    esi,DWORD PTR [esi]
  404f79:	test   esi,esi
  404f7b:	jne    0x404f45
  404f7d:	mov    DWORD PTR [edi],esi
  404f7f:	test   ebx,ebx
  404f81:	je     0x404f87
  404f83:	mov    DWORD PTR [ebx],edi
  404f85:	jmp    0x404f8d
  404f87:	mov    DWORD PTR ds:0x40a360,edi
  404f8d:	pop    edi
  404f8e:	pop    esi
  404f8f:	pop    ebx
  404f90:	ret    
  404f91:	int3   
  404f92:	int3   
  404f93:	int3   
  404f94:	int3   
  404f95:	int3   
  404f96:	int3   
  404f97:	int3   
  404f98:	int3   
  404f99:	int3   
  404f9a:	int3   
  404f9b:	int3   
  404f9c:	int3   
  404f9d:	int3   
  404f9e:	int3   
  404f9f:	int3   
  404fa0:	mov    edi,edi
  404fa2:	push   ebp
  404fa3:	mov    ebp,esp
  404fa5:	sub    esp,0x218
  404fab:	mov    eax,ds:0x40a004
  404fb0:	xor    eax,ebp
  404fb2:	mov    DWORD PTR [ebp-0x4],eax
  404fb5:	push   ebx
  404fb6:	push   esi
  404fb7:	mov    esi,DWORD PTR [ebp+0x8]
  404fba:	lea    edx,[ebp-0x218]
  404fc0:	xor    ebx,ebx
  404fc2:	mov    ecx,esi
  404fc4:	inc    ebx
  404fc5:	call   0x405afe
  404fca:	test   eax,eax
  404fcc:	js     0x4050b5
  404fd2:	cmp    DWORD PTR [ebp-0x214],0x0
  404fd9:	jne    0x4050b5
  404fdf:	push   edi
  404fe0:	xor    eax,eax
  404fe2:	push   0xfe
  404fe7:	push   eax
  404fe8:	mov    WORD PTR [ebp-0x208],ax
  404fef:	lea    eax,[ebp-0x206]
  404ff5:	push   eax
  404ff6:	call   0x40986c
  404ffb:	push   0x104
  405000:	lea    eax,[ebp-0x108]
  405006:	push   0x0
  405008:	push   eax
  405009:	call   0x40986c
  40500e:	lea    ecx,[ebx+0x7f]
  405011:	mov    eax,esi
  405013:	lea    edx,[ebp-0x108]
  405019:	add    esp,0x18
  40501c:	mov    ebx,edx
  40501e:	xor    edi,edi
  405020:	sub    eax,ebx
  405022:	mov    ebx,eax
  405024:	lea    eax,[ecx+0x7fffff7e]
  40502a:	test   eax,eax
  40502c:	je     0x405042
  40502e:	movzx  eax,WORD PTR [ebx+edx*1]
  405032:	test   ax,ax
  405035:	je     0x405042
  405037:	mov    WORD PTR [edx],ax
  40503a:	add    edx,0x2
  40503d:	sub    ecx,0x1
  405040:	jne    0x405024
  405042:	push   0x1
  405044:	pop    ebx
  405045:	test   ecx,ecx
  405047:	jne    0x405051
  405049:	sub    edx,0x2
  40504c:	mov    edi,0x8007007a
  405051:	xor    eax,eax
  405053:	mov    WORD PTR [edx],ax
  405056:	test   edi,edi
  405058:	js     0x4050b4
  40505a:	mov    eax,DWORD PTR [ebp-0x218]
  405060:	mov    DWORD PTR [ebp-0x8],eax
  405063:	lea    eax,[ebp-0x208]
  405069:	push   ecx
  40506a:	push   eax
  40506b:	mov    ecx,esi
  40506d:	call   0x406092
  405072:	test   eax,eax
  405074:	js     0x4050a5
  405076:	push   0x208
  40507b:	call   0x408d75
  405080:	pop    ecx
  405081:	test   eax,eax
  405083:	je     0x4050a1
  405085:	and    DWORD PTR [eax],0x0
  405088:	lea    edi,[eax+0x4]
  40508b:	mov    ecx,0x81
  405090:	lea    esi,[ebp-0x208]
  405096:	rep movs DWORD PTR es:[edi],DWORD PTR ds:[esi]
  405098:	mov    ecx,eax
  40509a:	call   0x404f32
  40509f:	jmp    0x4050b4
  4050a1:	xor    ebx,ebx
  4050a3:	jmp    0x4050b4
  4050a5:	cmp    eax,0x80040203
  4050aa:	jne    0x4050b4
  4050ac:	push   0x3b
  4050ae:	call   0x404d33
  4050b3:	pop    ecx
  4050b4:	pop    edi
  4050b5:	mov    ecx,DWORD PTR [ebp-0x4]
  4050b8:	mov    eax,ebx
  4050ba:	pop    esi
  4050bb:	xor    ecx,ebp
  4050bd:	pop    ebx
  4050be:	call   0x409090
  4050c3:	mov    esp,ebp
  4050c5:	pop    ebp
  4050c6:	ret    0x8
  4050c9:	int3   
  4050ca:	int3   
  4050cb:	int3   
  4050cc:	int3   
  4050cd:	int3   
  4050ce:	mov    edi,edi
  4050d0:	push   esi
  4050d1:	push   edi
  4050d2:	xor    edx,edx
  4050d4:	mov    ecx,0x404fa0
  4050d9:	call   0x405a39
  4050de:	mov    edi,eax
  4050e0:	test   edi,edi
  4050e2:	js     0x405114
  4050e4:	mov    esi,DWORD PTR ds:0x40a360
  4050ea:	jmp    0x40510e
  4050ec:	lea    eax,[esi+0x4]
  4050ef:	push   eax
  4050f0:	push   0x1f
  4050f2:	call   0x404d33
  4050f7:	lea    eax,[esi+0x104]
  4050fd:	push   eax
  4050fe:	push   0x4010a4
  405103:	call   DWORD PTR ds:0x40b1a8
  405109:	mov    esi,DWORD PTR [esi]
  40510b:	add    esp,0x10
  40510e:	test   esi,esi
  405110:	jne    0x4050ec
  405112:	jmp    0x40511c
  405114:	push   0x3c
  405116:	call   0x404d33
  40511b:	pop    ecx
  40511c:	mov    eax,edi
  40511e:	pop    edi
  40511f:	pop    esi
  405120:	ret    
  405121:	int3   
  405122:	int3   
  405123:	int3   
  405124:	int3   
  405125:	int3   
  405126:	mov    edi,edi
  405128:	push   ebp
  405129:	mov    ebp,esp
  40512b:	and    esp,0xfffffff8
  40512e:	sub    esp,0x1c
  405131:	mov    eax,ds:0x40a004
  405136:	xor    eax,esp
  405138:	mov    DWORD PTR [esp+0x18],eax
  40513c:	push   ebx
  40513d:	push   esi
  40513e:	xor    edx,edx
  405140:	mov    ebx,0x80070005
  405145:	push   edi
  405146:	inc    edx
  405147:	mov    edi,ecx
  405149:	mov    esi,ebx
  40514b:	call   0x404e8e
  405150:	test   eax,eax
  405152:	je     0x40515e
  405154:	call   DWORD PTR ds:0x40b128
  40515a:	test   eax,eax
  40515c:	je     0x40519f
  40515e:	mov    ecx,edi
  405160:	call   0x405cf8
  405165:	xor    edx,edx
  405167:	mov    esi,eax
  405169:	call   0x404e8e
  40516e:	test   esi,esi
  405170:	js     0x40519f
  405172:	and    DWORD PTR [esp+0x14],0x0
  405177:	mov    ecx,edi
  405179:	mov    DWORD PTR [esp+0x10],edi
  40517d:	call   0x4053d1
  405182:	and    DWORD PTR [esp+0x1c],0x0
  405187:	xor    edx,edx
  405189:	mov    DWORD PTR [esp+0x18],eax
  40518d:	inc    edx
  40518e:	lea    eax,[esp+0x10]
  405192:	mov    ecx,0x401128
  405197:	push   eax
  405198:	call   0x4054e9
  40519d:	jmp    0x4051e4
  40519f:	mov    edx,esi
  4051a1:	mov    ecx,edi
  4051a3:	call   0x4053fb
  4051a8:	cmp    esi,0x80040203
  4051ae:	je     0x4051dc
  4051b0:	cmp    esi,0x80040204
  4051b6:	je     0x4051d7
  4051b8:	cmp    esi,0x80040208
  4051be:	je     0x4051cc
  4051c0:	cmp    esi,ebx
  4051c2:	je     0x4051c8
  4051c4:	push   0x34
  4051c6:	jmp    0x4051de
  4051c8:	push   0x37
  4051ca:	jmp    0x4051de
  4051cc:	push   edi
  4051cd:	push   0x38
  4051cf:	call   0x404d33
  4051d4:	pop    ecx
  4051d5:	jmp    0x4051e3
  4051d7:	push   edi
  4051d8:	push   0x39
  4051da:	jmp    0x4051cf
  4051dc:	push   0x3a
  4051de:	call   0x404d33
  4051e3:	pop    ecx
  4051e4:	mov    ecx,DWORD PTR [esp+0x24]
  4051e8:	mov    eax,esi
  4051ea:	pop    edi
  4051eb:	pop    esi
  4051ec:	pop    ebx
  4051ed:	xor    ecx,esp
  4051ef:	call   0x409090
  4051f4:	mov    esp,ebp
  4051f6:	pop    ebp
  4051f7:	ret    
  4051f8:	int3   
  4051f9:	int3   
  4051fa:	int3   
  4051fb:	int3   
  4051fc:	int3   
  4051fd:	mov    edi,edi
  4051ff:	push   ebp
  405200:	mov    ebp,esp
  405202:	sub    esp,0x124
  405208:	mov    eax,ds:0x40a004
  40520d:	xor    eax,ebp
  40520f:	mov    DWORD PTR [ebp-0x4],eax
  405212:	push   ebx
  405213:	push   esi
  405214:	mov    esi,DWORD PTR [ebp+0xc]
  405217:	xor    ebx,ebx
  405219:	push   edi
  40521a:	push   ebx
  40521b:	push   ebx
  40521c:	push   0x1
  40521e:	push   ebx
  40521f:	mov    edi,0x80070057
  405224:	call   DWORD PTR ds:0x40b038
  40522a:	push   0x40a378
  40522f:	call   DWORD PTR ds:0x40b0e4
  405235:	call   DWORD PTR ds:0x40b000
  40523b:	push   eax
  40523c:	push   0x4010b0
  405241:	lea    eax,[ebp-0x24]
  405244:	push   0x10
  405246:	push   eax
  405247:	call   0x404ca5
  40524c:	xor    eax,eax
  40524e:	mov    WORD PTR [ebp-0x6],ax
  405252:	lea    eax,[ebp-0x24]
  405255:	push   eax
  405256:	push   ebx
  405257:	call   DWORD PTR ds:0x40b1a0
  40525d:	add    esp,0x18
  405260:	push   ebx
  405261:	push   ebx
  405262:	push   0x100
  405267:	call   DWORD PTR ds:0x40b074
  40526d:	push   0xfffffff5
  40526f:	call   DWORD PTR ds:0x40b08c
  405275:	mov    ebx,DWORD PTR [ebp+0x8]
  405278:	mov    ds:0x40a35c,eax
  40527d:	cmp    ebx,0x1
  405280:	jle    0x4053a3
  405286:	push   DWORD PTR [esi+0x4]
  405289:	push   0x4010b8
  40528e:	call   DWORD PTR ds:0x40b160
  405294:	pop    ecx
  405295:	pop    ecx
  405296:	test   eax,eax
  405298:	jne    0x4052db
  40529a:	cmp    ebx,0x2
  40529d:	je     0x4052af
  40529f:	push   DWORD PTR [esi+0x4]
  4052a2:	push   0x35
  4052a4:	call   0x404d33
  4052a9:	pop    ecx
  4052aa:	jmp    0x4053aa
  4052af:	lea    ecx,[ebp-0x124]
  4052b5:	call   0x405bed
  4052ba:	mov    edi,eax
  4052bc:	test   edi,edi
  4052be:	js     0x4052d4
  4052c0:	lea    eax,[ebp-0x124]
  4052c6:	push   eax
  4052c7:	push   0x40109c
  4052cc:	call   DWORD PTR ds:0x40b1a8
  4052d2:	jmp    0x4052a9
  4052d4:	push   0x33
  4052d6:	jmp    0x4053a5
  4052db:	push   DWORD PTR [esi+0x4]
  4052de:	push   0x4010c0
  4052e3:	call   DWORD PTR ds:0x40b160
  4052e9:	pop    ecx
  4052ea:	pop    ecx
  4052eb:	test   eax,eax
  4052ed:	jne    0x405349
  4052ef:	cmp    ebx,0x3
  4052f2:	jne    0x40529f
  4052f4:	push   0x40a368
  4052f9:	xor    ebx,ebx
  4052fb:	push   ebx
  4052fc:	push   ebx
  4052fd:	push   0x4010d8
  405302:	call   DWORD PTR ds:0x40b134
  405308:	test   eax,eax
  40530a:	je     0x405318
  40530c:	mov    DWORD PTR ds:0x40a368,ebx
  405312:	mov    DWORD PTR ds:0x40a36c,ebx
  405318:	mov    ecx,DWORD PTR [esi+0x8]
  40531b:	call   0x405126
  405320:	mov    edx,DWORD PTR ds:0x40a36c
  405326:	mov    edi,eax
  405328:	mov    eax,ds:0x40a368
  40532d:	mov    ecx,eax
  40532f:	or     ecx,edx
  405331:	je     0x4053ab
  405333:	push   edx
  405334:	push   eax
  405335:	call   DWORD PTR ds:0x40b138
  40533b:	mov    DWORD PTR ds:0x40a368,ebx
  405341:	mov    DWORD PTR ds:0x40a36c,ebx
  405347:	jmp    0x4053ab
  405349:	push   DWORD PTR [esi+0x4]
  40534c:	push   0x4010c8
  405351:	call   DWORD PTR ds:0x40b160
  405357:	pop    ecx
  405358:	pop    ecx
  405359:	test   eax,eax
  40535b:	jne    0x40536f
  40535d:	cmp    ebx,0x2
  405360:	jne    0x40529f
  405366:	call   0x4050ce
  40536b:	mov    edi,eax
  40536d:	jmp    0x4053ab
  40536f:	push   DWORD PTR [esi+0x4]
  405372:	push   0x4010d0
  405377:	call   DWORD PTR ds:0x40b160
  40537d:	pop    ecx
  40537e:	pop    ecx
  40537f:	test   eax,eax
  405381:	jne    0x405399
  405383:	cmp    ebx,0x2
  405386:	jne    0x40529f
  40538c:	push   0x1
  40538e:	call   0x404d33
  405393:	xor    ebx,ebx
  405395:	mov    edi,ebx
  405397:	jmp    0x4053aa
  405399:	push   DWORD PTR [esi+0x4]
  40539c:	push   0x36
  40539e:	jmp    0x4052a4
  4053a3:	push   0x1
  4053a5:	call   0x404d33
  4053aa:	pop    ecx
  4053ab:	call   0x406a9f
  4053b0:	test   edi,edi
  4053b2:	js     0x4053b8
  4053b4:	xor    eax,eax
  4053b6:	jmp    0x4053bb
  4053b8:	movzx  eax,di
  4053bb:	mov    ecx,DWORD PTR [ebp-0x4]
  4053be:	pop    edi
  4053bf:	pop    esi
  4053c0:	xor    ecx,ebp
  4053c2:	pop    ebx
  4053c3:	call   0x409090
  4053c8:	mov    esp,ebp
  4053ca:	pop    ebp
  4053cb:	ret    
  4053cc:	int3   
  4053cd:	int3   
  4053ce:	int3   
  4053cf:	int3   
  4053d0:	int3   
  4053d1:	lea    edx,[ecx+0x2]
  4053d4:	mov    ax,WORD PTR [ecx]
  4053d7:	add    ecx,0x2
  4053da:	test   ax,ax
  4053dd:	jne    0x4053d4
  4053df:	sub    ecx,edx
  4053e1:	sar    ecx,1
  4053e3:	cmp    ecx,0x400
  4053e9:	jae    0x4053f3
  4053eb:	lea    eax,[ecx*2+0x2]
  4053f2:	ret    
  4053f3:	xor    eax,eax
  4053f5:	ret    
  4053f6:	int3   
  4053f7:	int3   
  4053f8:	int3   
  4053f9:	int3   
  4053fa:	int3   
  4053fb:	mov    edi,edi
  4053fd:	push   ebp
  4053fe:	mov    ebp,esp
  405400:	sub    esp,0x40
  405403:	mov    eax,ds:0x40a004
  405408:	xor    eax,ebp
  40540a:	mov    DWORD PTR [ebp-0x4],eax
  40540d:	push   esi
  40540e:	push   edi
  40540f:	mov    esi,edx
  405411:	mov    DWORD PTR [ebp-0x38],ecx
  405414:	xor    edi,edi
  405416:	mov    DWORD PTR [ebp-0x40],esi
  405419:	mov    DWORD PTR [ebp-0x34],edi
  40541c:	call   0x4053d1
  405421:	mov    DWORD PTR [ebp-0x30],eax
  405424:	lea    eax,[ebp-0x40]
  405427:	mov    DWORD PTR [ebp-0x2c],edi
  40542a:	mov    DWORD PTR [ebp-0x28],eax
  40542d:	mov    DWORD PTR [ebp-0x24],edi
  405430:	mov    DWORD PTR [ebp-0x20],0x4
  405437:	mov    DWORD PTR [ebp-0x1c],edi
  40543a:	cmp    esi,0x80040203
  405440:	je     0x4054c1
  405442:	cmp    esi,0x80040204
  405448:	je     0x4054ba
  40544a:	cmp    esi,0x80040208
  405450:	je     0x4054b3
  405452:	push   edi
  405453:	push   edi
  405454:	lea    eax,[ebp-0x3c]
  405457:	mov    DWORD PTR [ebp-0x3c],edi
  40545a:	push   eax
  40545b:	push   edi
  40545c:	push   esi
  40545d:	push   edi
  40545e:	push   0x1100
  405463:	call   DWORD PTR ds:0x40b070
  405469:	mov    esi,DWORD PTR [ebp-0x3c]
  40546c:	mov    DWORD PTR [ebp-0x14],edi
  40546f:	mov    DWORD PTR [ebp-0xc],edi
  405472:	lea    eax,[eax*2+0x2]
  405479:	test   esi,esi
  40547b:	je     0x405485
  40547d:	mov    DWORD PTR [ebp-0x18],esi
  405480:	mov    DWORD PTR [ebp-0x10],eax
  405483:	jmp    0x405495
  405485:	mov    esi,edi
  405487:	mov    DWORD PTR [ebp-0x18],0x401138
  40548e:	mov    DWORD PTR [ebp-0x10],0x2
  405495:	lea    eax,[ebp-0x38]
  405498:	mov    ecx,0x401108
  40549d:	push   eax
  40549e:	push   0x3
  4054a0:	pop    edx
  4054a1:	call   0x4054e9
  4054a6:	test   esi,esi
  4054a8:	je     0x4054d2
  4054aa:	push   esi
  4054ab:	call   DWORD PTR ds:0x40b040
  4054b1:	jmp    0x4054d2
  4054b3:	mov    ecx,0x401118
  4054b8:	jmp    0x4054c6
  4054ba:	mov    ecx,0x4010f8
  4054bf:	jmp    0x4054c6
  4054c1:	mov    ecx,0x4010e8
  4054c6:	lea    eax,[ebp-0x38]
  4054c9:	push   eax
  4054ca:	push   0x2
  4054cc:	pop    edx
  4054cd:	call   0x4054e9
  4054d2:	mov    ecx,DWORD PTR [ebp-0x4]
  4054d5:	xor    eax,eax
  4054d7:	pop    edi
  4054d8:	xor    ecx,ebp
  4054da:	pop    esi
  4054db:	call   0x409090
  4054e0:	mov    esp,ebp
  4054e2:	pop    ebp
  4054e3:	ret    
  4054e4:	int3   
  4054e5:	int3   
  4054e6:	int3   
  4054e7:	int3   
  4054e8:	int3   
  4054e9:	mov    edi,edi
  4054eb:	push   ebp
  4054ec:	mov    ebp,esp
  4054ee:	mov    eax,ds:0x40a368
  4054f3:	or     eax,DWORD PTR ds:0x40a36c
  4054f9:	je     0x405512
  4054fb:	push   DWORD PTR [ebp+0x8]
  4054fe:	push   edx
  4054ff:	push   ecx
  405500:	push   DWORD PTR ds:0x40a36c
  405506:	push   DWORD PTR ds:0x40a368
  40550c:	call   DWORD PTR ds:0x40b130
  405512:	pop    ebp
  405513:	ret    0x4
  405516:	int3   
  405517:	int3   
  405518:	int3   
  405519:	int3   
  40551a:	int3   
  40551b:	mov    edi,edi
  40551d:	push   ebp
  40551e:	mov    ebp,esp
  405520:	xor    eax,eax
  405522:	test   edx,edx
  405524:	je     0x40552e
  405526:	cmp    edx,0x7fffffff
  40552c:	jbe    0x405533
  40552e:	mov    eax,0x80070057
  405533:	test   eax,eax
  405535:	js     0x405543
  405537:	push   ecx
  405538:	push   DWORD PTR [ebp+0x8]
  40553b:	push   ecx
  40553c:	call   0x405612
  405541:	jmp    0x40554c
  405543:	test   edx,edx
  405545:	je     0x40554c
  405547:	xor    edx,edx
  405549:	mov    WORD PTR [ecx],dx
  40554c:	pop    ebp
  40554d:	ret    0x4
  405550:	int3   
  405551:	int3   
  405552:	int3   
  405553:	int3   
  405554:	int3   
  405555:	mov    edi,edi
  405557:	push   ebp
  405558:	mov    ebp,esp
  40555a:	push   ecx
  40555b:	push   esi
  40555c:	mov    esi,edx
  40555e:	xor    edx,edx
  405560:	mov    eax,edx
  405562:	push   edi
  405563:	mov    edi,ecx
  405565:	test   esi,esi
  405567:	je     0x405571
  405569:	cmp    esi,0x7fffffff
  40556f:	jbe    0x405576
  405571:	mov    eax,0x80070057
  405576:	test   eax,eax
  405578:	js     0x40559d
  40557a:	lea    eax,[ebp-0x4]
  40557d:	mov    edx,esi
  40557f:	push   eax
  405580:	call   0x4055c9
  405585:	mov    edx,DWORD PTR [ebp-0x4]
  405588:	test   eax,eax
  40558a:	js     0x40559d
  40558c:	push   ecx
  40558d:	push   DWORD PTR [ebp+0x8]
  405590:	sub    esi,edx
  405592:	push   ecx
  405593:	lea    ecx,[edi+edx*2]
  405596:	mov    edx,esi
  405598:	call   0x405612
  40559d:	pop    edi
  40559e:	pop    esi
  40559f:	mov    esp,ebp
  4055a1:	pop    ebp
  4055a2:	ret    0x4
  4055a5:	int3   
  4055a6:	int3   
  4055a7:	int3   
  4055a8:	int3   
  4055a9:	int3   
  4055aa:	test   ecx,ecx
  4055ac:	je     0x4055bc
  4055ae:	push   0x0
  4055b0:	mov    edx,0x80
  4055b5:	call   0x4055c9
  4055ba:	jmp    0x4055c1
  4055bc:	mov    eax,0x80070057
  4055c1:	ret    0x4
  4055c4:	int3   
  4055c5:	int3   
  4055c6:	int3   
  4055c7:	int3   
  4055c8:	int3   
  4055c9:	mov    edi,edi
  4055cb:	push   ebp
  4055cc:	mov    ebp,esp
  4055ce:	push   ebx
  4055cf:	push   esi
  4055d0:	xor    ebx,ebx
  4055d2:	mov    esi,ebx
  4055d4:	push   edi
  4055d5:	mov    edi,edx
  4055d7:	test   edx,edx
  4055d9:	je     0x4055ec
  4055db:	cmp    WORD PTR [ecx],bx
  4055de:	je     0x4055e8
  4055e0:	add    ecx,0x2
  4055e3:	sub    edx,0x1
  4055e6:	jne    0x4055db
  4055e8:	test   edx,edx
  4055ea:	jne    0x4055f1
  4055ec:	mov    esi,0x80070057
  4055f1:	mov    eax,DWORD PTR [ebp+0x8]
  4055f4:	test   eax,eax
  4055f6:	je     0x405604
  4055f8:	test   esi,esi
  4055fa:	js     0x405602
  4055fc:	sub    edi,edx
  4055fe:	mov    DWORD PTR [eax],edi
  405600:	jmp    0x405604
  405602:	mov    DWORD PTR [eax],ebx
  405604:	pop    edi
  405605:	mov    eax,esi
  405607:	pop    esi
  405608:	pop    ebx
  405609:	pop    ebp
  40560a:	ret    0x4
  40560d:	int3   
  40560e:	int3   
  40560f:	int3   
  405610:	int3   
  405611:	int3   
  405612:	mov    edi,edi
  405614:	push   ebp
  405615:	mov    ebp,esp
  405617:	push   edi
  405618:	xor    edi,edi
  40561a:	test   edx,edx
  40561c:	je     0x405649
  40561e:	mov    eax,DWORD PTR [ebp+0xc]
  405621:	push   ebx
  405622:	push   esi
  405623:	mov    esi,0x7ffffffe
  405628:	sub    eax,ecx
  40562a:	test   esi,esi
  40562c:	je     0x405643
  40562e:	movzx  ebx,WORD PTR [eax+ecx*1]
  405632:	test   bx,bx
  405635:	je     0x405643
  405637:	mov    WORD PTR [ecx],bx
  40563a:	add    ecx,0x2
  40563d:	dec    esi
  40563e:	sub    edx,0x1
  405641:	jne    0x40562a
  405643:	pop    esi
  405644:	pop    ebx
  405645:	test   edx,edx
  405647:	jne    0x405651
  405649:	sub    ecx,0x2
  40564c:	mov    edi,0x8007007a
  405651:	xor    eax,eax
  405653:	mov    WORD PTR [ecx],ax
  405656:	mov    eax,edi
  405658:	pop    edi
  405659:	pop    ebp
  40565a:	ret    0xc
  40565d:	int3   
  40565e:	int3   
  40565f:	int3   
  405660:	int3   
  405661:	int3   
  405662:	push   0xffffffff
  405664:	push   0x40113c
  405669:	push   0xffffffff
  40566b:	push   ecx
  40566c:	push   0x0
  40566e:	push   0x7f
  405670:	call   DWORD PTR ds:0x40b0cc
  405676:	sub    eax,0x2
  405679:	neg    eax
  40567b:	sbb    eax,eax
  40567d:	inc    eax
  40567e:	ret    
  40567f:	int3   
  405680:	int3   
  405681:	int3   
  405682:	int3   
  405683:	int3   
  405684:	mov    edi,edi
  405686:	push   ebp
  405687:	mov    ebp,esp
  405689:	sub    esp,0x240
  40568f:	mov    eax,ds:0x40a004
  405694:	xor    eax,ebp
  405696:	mov    DWORD PTR [ebp-0x8],eax
  405699:	push   ebx
  40569a:	push   esi
  40569b:	push   edi
  40569c:	mov    edi,DWORD PTR [ebp+0x8]
  40569f:	mov    esi,edx
  4056a1:	mov    DWORD PTR [ebp-0x228],ecx
  4056a7:	mov    ebx,0x80070057
  4056ac:	test   edi,edi
  4056ae:	je     0x405850
  4056b4:	push   0x114
  4056b9:	push   0x0
  4056bb:	push   edi
  4056bc:	call   0x40986c
  4056c1:	pop    ecx
  4056c2:	pop    ecx
  4056c3:	mov    ecx,DWORD PTR [ebp-0x228]
  4056c9:	call   0x4055aa
  4056ce:	test   eax,eax
  4056d0:	js     0x405850
  4056d6:	test   esi,esi
  4056d8:	je     0x405850
  4056de:	lea    eax,[ebp-0x23c]
  4056e4:	push   eax
  4056e5:	push   esi
  4056e6:	call   DWORD PTR ds:0x40b120
  4056ec:	test   eax,eax
  4056ee:	je     0x405850
  4056f4:	xor    eax,eax
  4056f6:	push   0xfe
  4056fb:	push   eax
  4056fc:	mov    WORD PTR [ebp-0x10c],ax
  405703:	lea    eax,[ebp-0x10a]
  405709:	push   eax
  40570a:	call   0x40986c
  40570f:	mov    ecx,DWORD PTR [ebp-0x228]
  405715:	lea    eax,[ebp-0x22c]
  40571b:	add    esp,0xc
  40571e:	lea    edx,[ebp-0x10c]
  405724:	push   eax
  405725:	push   0x80
  40572a:	call   0x40659a
  40572f:	mov    ebx,eax
  405731:	test   ebx,ebx
  405733:	js     0x405850
  405739:	lea    ecx,[ebp-0x230]
  40573f:	call   0x406143
  405744:	mov    ebx,eax
  405746:	test   ebx,ebx
  405748:	js     0x405850
  40574e:	mov    ecx,DWORD PTR [ebp-0x230]
  405754:	lea    eax,[ebp-0x228]
  40575a:	push   eax
  40575b:	lea    edx,[ebp-0x10c]
  405761:	call   0x406189
  405766:	mov    ebx,eax
  405768:	test   ebx,ebx
  40576a:	js     0x405850
  405770:	xor    eax,eax
  405772:	push   0x112
  405777:	push   eax
  405778:	mov    WORD PTR [ebp-0x224],ax
  40577f:	lea    eax,[ebp-0x222]
  405785:	push   eax
  405786:	call   0x40986c
  40578b:	pop    ecx
  40578c:	pop    ecx
  40578d:	mov    ecx,DWORD PTR [ebp-0x228]
  405793:	lea    eax,[ebp-0x114]
  405799:	push   0x0
  40579b:	push   eax
  40579c:	push   DWORD PTR [ebp-0x22c]
  4057a2:	mov    edx,esi
  4057a4:	call   0x40628f
  4057a9:	push   DWORD PTR [ebp-0x228]
  4057af:	mov    ebx,eax
  4057b1:	call   DWORD PTR ds:0x40b0c0
  4057b7:	test   ebx,ebx
  4057b9:	js     0x405850
  4057bf:	test   BYTE PTR [ebp-0x22c],0x2
  4057c6:	je     0x4057df
  4057c8:	push   0x401170
  4057cd:	mov    edx,0x80
  4057d2:	lea    ecx,[ebp-0x10c]
  4057d8:	call   0x405555
  4057dd:	mov    ebx,eax
  4057df:	test   ebx,ebx
  4057e1:	js     0x405850
  4057e3:	lea    eax,[ebp-0x10c]
  4057e9:	mov    edx,0x80
  4057ee:	push   eax
  4057ef:	lea    ecx,[ebp-0x224]
  4057f5:	call   0x40551b
  4057fa:	mov    ebx,eax
  4057fc:	test   ebx,ebx
  4057fe:	js     0x405850
  405800:	imul   eax,DWORD PTR [ebp-0x114],0xffffffc4
  405807:	mov    ecx,0x989680
  40580c:	imul   ecx
  40580e:	add    eax,DWORD PTR [ebp-0x23c]
  405814:	mov    DWORD PTR [ebp-0x234],eax
  40581a:	lea    eax,[ebp-0x124]
  405820:	adc    edx,DWORD PTR [ebp-0x238]
  405826:	push   eax
  405827:	lea    eax,[ebp-0x234]
  40582d:	mov    DWORD PTR [ebp-0x230],edx
  405833:	push   eax
  405834:	call   DWORD PTR ds:0x40b11c
  40583a:	test   eax,eax
  40583c:	je     0x40584b
  40583e:	push   0x45
  405840:	pop    ecx
  405841:	lea    esi,[ebp-0x224]
  405847:	rep movs DWORD PTR es:[edi],DWORD PTR ds:[esi]
  405849:	jmp    0x405850
  40584b:	mov    ebx,0x80004005
  405850:	mov    ecx,DWORD PTR [ebp-0x8]
  405853:	mov    eax,ebx
  405855:	pop    edi
  405856:	pop    esi
  405857:	xor    ecx,ebp
  405859:	pop    ebx
  40585a:	call   0x409090
  40585f:	mov    esp,ebp
  405861:	pop    ebp
  405862:	ret    0x4
  405865:	int3   
  405866:	int3   
  405867:	int3   
  405868:	int3   
  405869:	int3   
  40586a:	mov    edi,edi
  40586c:	push   ebp
  40586d:	mov    ebp,esp
  40586f:	sub    esp,0x35c
  405875:	mov    eax,ds:0x40a004
  40587a:	xor    eax,ebp
  40587c:	mov    DWORD PTR [ebp-0x4],eax
  40587f:	push   ebx
  405880:	push   esi
  405881:	mov    ebx,edx
  405883:	mov    esi,0x80070057
  405888:	push   edi
  405889:	mov    edi,ecx
  40588b:	test   ebx,ebx
  40588d:	je     0x405a21
  405893:	push   0x230
  405898:	push   0x0
  40589a:	push   ebx
  40589b:	call   0x40986c
  4058a0:	add    esp,0xc
  4058a3:	test   edi,edi
  4058a5:	je     0x405a21
  4058ab:	push   ecx
  4058ac:	mov    ecx,edi
  4058ae:	call   0x4055aa
  4058b3:	test   eax,eax
  4058b5:	js     0x405a21
  4058bb:	mov    ecx,edi
  4058bd:	call   0x405662
  4058c2:	test   eax,eax
  4058c4:	jne    0x405a21
  4058ca:	lea    ecx,[ebp-0x35c]
  4058d0:	lea    eax,[edi+0x100]
  4058d6:	push   ecx
  4058d7:	push   eax
  4058d8:	call   DWORD PTR ds:0x40b120
  4058de:	test   eax,eax
  4058e0:	je     0x405a21
  4058e6:	xor    eax,eax
  4058e8:	push   0xfe
  4058ed:	push   eax
  4058ee:	mov    WORD PTR [ebp-0x108],ax
  4058f5:	lea    eax,[ebp-0x106]
  4058fb:	push   eax
  4058fc:	call   0x40986c
  405901:	add    esp,0xc
  405904:	lea    eax,[ebp-0x354]
  40590a:	lea    edx,[ebp-0x108]
  405910:	mov    ecx,edi
  405912:	push   eax
  405913:	push   0x80
  405918:	call   0x40659a
  40591d:	mov    esi,eax
  40591f:	test   esi,esi
  405921:	js     0x405a21
  405927:	lea    ecx,[ebp-0x34c]
  40592d:	call   0x406143
  405932:	mov    esi,eax
  405934:	test   esi,esi
  405936:	js     0x405a21
  40593c:	mov    ecx,DWORD PTR [ebp-0x34c]
  405942:	lea    eax,[ebp-0x350]
  405948:	push   eax
  405949:	lea    edx,[ebp-0x108]
  40594f:	call   0x406189
  405954:	mov    esi,eax
  405956:	test   esi,esi
  405958:	js     0x405a21
  40595e:	mov    ecx,DWORD PTR [ebp-0x350]
  405964:	lea    eax,[ebp-0x118]
  40596a:	push   eax
  40596b:	push   DWORD PTR [ebp-0x354]
  405971:	lea    edx,[edi+0x100]
  405977:	push   DWORD PTR [edi+0x110]
  40597d:	call   0x406393
  405982:	mov    esi,eax
  405984:	test   esi,esi
  405986:	js     0x405a21
  40598c:	push   ecx
  40598d:	mov    ecx,DWORD PTR [ebp-0x350]
  405993:	lea    eax,[ebp-0x348]
  405999:	push   eax
  40599a:	lea    eax,[ebp-0x358]
  4059a0:	mov    DWORD PTR [ebp-0x34c],esi
  4059a6:	push   eax
  4059a7:	push   DWORD PTR [ebp-0x354]
  4059ad:	lea    edx,[ebp-0x118]
  4059b3:	call   0x40628f
  4059b8:	push   DWORD PTR [ebp-0x350]
  4059be:	mov    esi,eax
  4059c0:	call   DWORD PTR ds:0x40b0c0
  4059c6:	test   esi,esi
  4059c8:	js     0x405a21
  4059ca:	cmp    WORD PTR [ebp-0x23e],0x0
  4059d2:	je     0x4059e7
  4059d4:	push   edi
  4059d5:	mov    edx,0x80
  4059da:	lea    ecx,[ebp-0x340]
  4059e0:	call   0x40551b
  4059e5:	mov    esi,eax
  4059e7:	test   esi,esi
  4059e9:	js     0x405a21
  4059eb:	cmp    WORD PTR [ebp-0x12a],0x0
  4059f3:	je     0x405a08
  4059f5:	push   edi
  4059f6:	mov    edx,0x80
  4059fb:	lea    ecx,[ebp-0x22c]
  405a01:	call   0x40551b
  405a06:	mov    esi,eax
  405a08:	test   esi,esi
  405a0a:	js     0x405a21
  405a0c:	mov    ecx,0x8c
  405a11:	lea    esi,[ebp-0x348]
  405a17:	mov    edi,ebx
  405a19:	rep movs DWORD PTR es:[edi],DWORD PTR ds:[esi]
  405a1b:	mov    esi,DWORD PTR [ebp-0x34c]
  405a21:	mov    ecx,DWORD PTR [ebp-0x4]
  405a24:	mov    eax,esi
  405a26:	pop    edi
  405a27:	pop    esi
  405a28:	xor    ecx,ebp
  405a2a:	pop    ebx
  405a2b:	call   0x409090
  405a30:	mov    esp,ebp
  405a32:	pop    ebp
  405a33:	ret    
  405a34:	int3   
  405a35:	int3   
  405a36:	int3   
  405a37:	int3   
  405a38:	int3   
  405a39:	mov    edi,edi
  405a3b:	push   ebp
  405a3c:	mov    ebp,esp
  405a3e:	sub    esp,0x110
  405a44:	mov    eax,ds:0x40a004
  405a49:	xor    eax,ebp
  405a4b:	mov    DWORD PTR [ebp-0x4],eax
  405a4e:	push   ebx
  405a4f:	mov    ebx,ecx
  405a51:	mov    DWORD PTR [ebp-0x110],edx
  405a57:	push   esi
  405a58:	mov    esi,0x80070057
  405a5d:	test   ebx,ebx
  405a5f:	je     0x405ae7
  405a65:	lea    ecx,[ebp-0x10c]
  405a6b:	call   0x406143
  405a70:	mov    esi,eax
  405a72:	test   esi,esi
  405a74:	js     0x405ae7
  405a76:	push   edi
  405a77:	xor    edi,edi
  405a79:	mov    DWORD PTR [ebp-0x108],0x80
  405a83:	push   0x0
  405a85:	push   0x0
  405a87:	push   0x0
  405a89:	push   0x0
  405a8b:	lea    eax,[ebp-0x108]
  405a91:	push   eax
  405a92:	lea    eax,[ebp-0x104]
  405a98:	push   eax
  405a99:	push   edi
  405a9a:	push   DWORD PTR [ebp-0x10c]
  405aa0:	call   DWORD PTR ds:0x40b0b8
  405aa6:	test   eax,eax
  405aa8:	jne    0x405ad0
  405aaa:	push   DWORD PTR [ebp-0x110]
  405ab0:	lea    eax,[ebp-0x104]
  405ab6:	mov    ecx,ebx
  405ab8:	push   eax
  405ab9:	call   DWORD PTR ds:0x40b1bc
  405abf:	call   ebx
  405ac1:	mov    ecx,eax
  405ac3:	mov    DWORD PTR [ebp-0x108],0x80
  405acd:	inc    edi
  405ace:	jmp    0x405ae2
  405ad0:	xor    ecx,ecx
  405ad2:	cmp    eax,0x103
  405ad7:	jne    0x405add
  405ad9:	test   edi,edi
  405adb:	jne    0x405ae6
  405add:	mov    esi,0x80004005
  405ae2:	test   ecx,ecx
  405ae4:	jne    0x405a83
  405ae6:	pop    edi
  405ae7:	mov    ecx,DWORD PTR [ebp-0x4]
  405aea:	mov    eax,esi
  405aec:	pop    esi
  405aed:	xor    ecx,ebp
  405aef:	pop    ebx
  405af0:	call   0x409090
  405af5:	mov    esp,ebp
  405af7:	pop    ebp
  405af8:	ret    
  405af9:	int3   
  405afa:	int3   
  405afb:	int3   
  405afc:	int3   
  405afd:	int3   
  405afe:	mov    edi,edi
  405b00:	push   ebp
  405b01:	mov    ebp,esp
  405b03:	sub    esp,0x124
  405b09:	mov    eax,ds:0x40a004
  405b0e:	xor    eax,ebp
  405b10:	mov    DWORD PTR [ebp-0x4],eax
  405b13:	mov    DWORD PTR [ebp-0x110],edx
  405b19:	push   ebx
  405b1a:	mov    ebx,0x80070057
  405b1f:	push   esi
  405b20:	mov    esi,ecx
  405b22:	push   edi
  405b23:	test   edx,edx
  405b25:	je     0x405bd5
  405b2b:	mov    edi,edx
  405b2d:	xor    eax,eax
  405b2f:	push   ecx
  405b30:	stos   DWORD PTR es:[edi],eax
  405b31:	stos   DWORD PTR es:[edi],eax
  405b32:	stos   DWORD PTR es:[edi],eax
  405b33:	call   0x4055aa
  405b38:	test   eax,eax
  405b3a:	js     0x405bd5
  405b40:	xor    eax,eax
  405b42:	push   0xfe
  405b47:	push   eax
  405b48:	mov    WORD PTR [ebp-0x108],ax
  405b4f:	lea    eax,[ebp-0x106]
  405b55:	push   eax
  405b56:	call   0x40986c
  405b5b:	add    esp,0xc
  405b5e:	lea    edx,[ebp-0x108]
  405b64:	push   0x0
  405b66:	push   ecx
  405b67:	mov    ecx,esi
  405b69:	call   0x40659a
  405b6e:	mov    ebx,eax
  405b70:	test   ebx,ebx
  405b72:	js     0x405bd5
  405b74:	lea    ecx,[ebp-0x114]
  405b7a:	call   0x406143
  405b7f:	mov    ebx,eax
  405b81:	test   ebx,ebx
  405b83:	js     0x405bd5
  405b85:	mov    ecx,DWORD PTR [ebp-0x114]
  405b8b:	lea    eax,[ebp-0x10c]
  405b91:	push   eax
  405b92:	lea    edx,[ebp-0x108]
  405b98:	call   0x406189
  405b9d:	mov    ebx,eax
  405b9f:	test   ebx,ebx
  405ba1:	js     0x405bd5
  405ba3:	mov    ecx,DWORD PTR [ebp-0x10c]
  405ba9:	lea    edx,[ebp-0x120]
  405baf:	call   0x406431
  405bb4:	mov    ebx,eax
  405bb6:	test   ebx,ebx
  405bb8:	js     0x405bc9
  405bba:	mov    edi,DWORD PTR [ebp-0x110]
  405bc0:	lea    esi,[ebp-0x120]
  405bc6:	movs   DWORD PTR es:[edi],DWORD PTR ds:[esi]
  405bc7:	movs   DWORD PTR es:[edi],DWORD PTR ds:[esi]
  405bc8:	movs   DWORD PTR es:[edi],DWORD PTR ds:[esi]
  405bc9:	push   DWORD PTR [ebp-0x10c]
  405bcf:	call   DWORD PTR ds:0x40b0c0
  405bd5:	mov    ecx,DWORD PTR [ebp-0x4]
  405bd8:	mov    eax,ebx
  405bda:	pop    edi
  405bdb:	pop    esi
  405bdc:	xor    ecx,ebp
  405bde:	pop    ebx
  405bdf:	call   0x409090
  405be4:	mov    esp,ebp
  405be6:	pop    ebp
  405be7:	ret    
  405be8:	int3   
  405be9:	int3   
  405bea:	int3   
  405beb:	int3   
  405bec:	int3   
  405bed:	mov    edi,edi
  405bef:	push   ebp
  405bf0:	mov    ebp,esp
  405bf2:	and    esp,0xfffffff8
  405bf5:	sub    esp,0x11c
  405bfb:	mov    eax,ds:0x40a004
  405c00:	xor    eax,esp
  405c02:	mov    DWORD PTR [esp+0x118],eax
  405c09:	push   ebx
  405c0a:	push   esi
  405c0b:	push   edi
  405c0c:	mov    edi,ecx
  405c0e:	mov    esi,0x80070057
  405c13:	test   edi,edi
  405c15:	je     0x405cdc
  405c1b:	xor    eax,eax
  405c1d:	push   0xfe
  405c22:	push   eax
  405c23:	mov    WORD PTR [esp+0x28],ax
  405c28:	lea    eax,[esp+0x2a]
  405c2c:	push   eax
  405c2d:	call   0x40986c
  405c32:	add    esp,0xc
  405c35:	lea    ecx,[esp+0x20]
  405c39:	xor    eax,eax
  405c3b:	mov    ebx,0x80
  405c40:	mov    edx,ebx
  405c42:	mov    WORD PTR [edi],ax
  405c45:	call   0x406754
  405c4a:	mov    esi,eax
  405c4c:	test   esi,esi
  405c4e:	js     0x405cdc
  405c54:	mov    ecx,DWORD PTR ds:0x40a370
  405c5a:	lea    eax,[esp+0x10]
  405c5e:	push   eax
  405c5f:	lea    edx,[esp+0x24]
  405c63:	call   0x406189
  405c68:	mov    esi,eax
  405c6a:	test   esi,esi
  405c6c:	js     0x405cdc
  405c6e:	mov    ecx,DWORD PTR [esp+0x10]
  405c72:	lea    edx,[esp+0x14]
  405c76:	call   0x406431
  405c7b:	push   DWORD PTR [esp+0x10]
  405c7f:	mov    esi,eax
  405c81:	call   DWORD PTR ds:0x40b0c0
  405c87:	test   esi,esi
  405c89:	js     0x405cdc
  405c8b:	and    DWORD PTR [esp+0xc],0x0
  405c90:	lea    ecx,[esp+0xc]
  405c94:	call   0x40691f
  405c99:	mov    esi,eax
  405c9b:	test   esi,esi
  405c9d:	js     0x405cdc
  405c9f:	cmp    DWORD PTR [esp+0xc],0x0
  405ca4:	je     0x405cb8
  405ca6:	push   0x401170
  405cab:	mov    edx,ebx
  405cad:	lea    ecx,[esp+0x24]
  405cb1:	call   0x405555
  405cb6:	mov    esi,eax
  405cb8:	test   esi,esi
  405cba:	js     0x405cdc
  405cbc:	lea    eax,[esp+0x20]
  405cc0:	mov    edx,ebx
  405cc2:	push   eax
  405cc3:	mov    ecx,edi
  405cc5:	call   0x40551b
  405cca:	mov    esi,eax
  405ccc:	test   esi,esi
  405cce:	js     0x405cdc
  405cd0:	cmp    DWORD PTR [esp+0x18],0x0
  405cd5:	je     0x405cdc
  405cd7:	mov    esi,0x40208
  405cdc:	mov    ecx,DWORD PTR [esp+0x124]
  405ce3:	mov    eax,esi
  405ce5:	pop    edi
  405ce6:	pop    esi
  405ce7:	pop    ebx
  405ce8:	xor    ecx,esp
  405cea:	call   0x409090
  405cef:	mov    esp,ebp
  405cf1:	pop    ebp
  405cf2:	ret    
  405cf3:	int3   
  405cf4:	int3   
  405cf5:	int3   
  405cf6:	int3   
  405cf7:	int3   
  405cf8:	mov    edi,edi
  405cfa:	push   ebp
  405cfb:	mov    ebp,esp
  405cfd:	sub    esp,0x444
  405d03:	mov    eax,ds:0x40a004
  405d08:	xor    eax,ebp
  405d0a:	mov    DWORD PTR [ebp-0x4],eax
  405d0d:	push   ebx
  405d0e:	push   esi
  405d0f:	mov    esi,ecx
  405d11:	mov    ebx,0x80070057
  405d16:	push   edi
  405d17:	test   esi,esi
  405d19:	je     0x40607a
  405d1f:	xor    ecx,ecx
  405d21:	cmp    WORD PTR [esi],cx
  405d24:	je     0x40607a
  405d2a:	xor    eax,eax
  405d2c:	mov    edi,0xfe
  405d31:	push   edi
  405d32:	mov    WORD PTR [ebp-0x108],ax
  405d39:	lea    eax,[ebp-0x106]
  405d3f:	push   ecx
  405d40:	push   eax
  405d41:	call   0x40986c
  405d46:	add    esp,0xc
  405d49:	lea    edx,[ebp-0x214]
  405d4f:	mov    ecx,esi
  405d51:	call   0x405afe
  405d56:	mov    ebx,eax
  405d58:	test   ebx,ebx
  405d5a:	js     0x40607a
  405d60:	cmp    DWORD PTR [ebp-0x210],0x0
  405d67:	je     0x405d6e
  405d69:	mov    ebx,0x80040208
  405d6e:	test   ebx,ebx
  405d70:	js     0x40607a
  405d76:	xor    eax,eax
  405d78:	push   edi
  405d79:	mov    WORD PTR [ebp-0x208],ax
  405d80:	xor    edi,edi
  405d82:	lea    eax,[ebp-0x206]
  405d88:	push   edi
  405d89:	push   eax
  405d8a:	call   0x40986c
  405d8f:	add    esp,0xc
  405d92:	lea    eax,[ebp-0x414]
  405d98:	lea    edx,[ebp-0x208]
  405d9e:	mov    ecx,esi
  405da0:	push   eax
  405da1:	push   0x80
  405da6:	call   0x406522
  405dab:	mov    ebx,eax
  405dad:	test   ebx,ebx
  405daf:	js     0x40607a
  405db5:	lea    ecx,[ebp-0x410]
  405dbb:	call   0x406143
  405dc0:	mov    ebx,eax
  405dc2:	test   ebx,ebx
  405dc4:	js     0x40607a
  405dca:	mov    esi,DWORD PTR [ebp-0x410]
  405dd0:	lea    edx,[ebp-0x21c]
  405dd6:	xor    eax,eax
  405dd8:	mov    DWORD PTR [ebp-0x20c],esi
  405dde:	mov    WORD PTR [ebp-0x108],ax
  405de5:	mov    ecx,0x406ae0
  405dea:	lea    eax,[ebp-0x108]
  405df0:	mov    DWORD PTR [ebp-0x214],0x80
  405dfa:	mov    DWORD PTR [ebp-0x218],eax
  405e00:	lea    eax,[ebp-0x208]
  405e06:	mov    DWORD PTR [ebp-0x21c],edi
  405e0c:	mov    DWORD PTR [ebp-0x210],eax
  405e12:	call   0x405a39
  405e17:	mov    ebx,eax
  405e19:	test   ebx,ebx
  405e1b:	js     0x40607a
  405e21:	mov    ebx,DWORD PTR [ebp-0x21c]
  405e27:	neg    ebx
  405e29:	sbb    ebx,ebx
  405e2b:	and    ebx,0x7fffbffb
  405e31:	add    ebx,0x80004005
  405e37:	test   ebx,ebx
  405e39:	js     0x40607a
  405e3f:	lea    eax,[ebp-0x410]
  405e45:	mov    ecx,esi
  405e47:	push   eax
  405e48:	lea    edx,[ebp-0x108]
  405e4e:	call   0x406189
  405e53:	mov    ebx,eax
  405e55:	test   ebx,ebx
  405e57:	js     0x40607a
  405e5d:	lea    eax,[ebp-0x108]
  405e63:	mov    edx,0x80
  405e68:	push   eax
  405e69:	lea    ecx,[ebp-0x324]
  405e6f:	call   0x40551b
  405e74:	mov    esi,DWORD PTR [ebp-0x410]
  405e7a:	lea    eax,[ebp-0x3cc]
  405e80:	push   0x12
  405e82:	push   0x20
  405e84:	push   eax
  405e85:	mov    edx,0x401190
  405e8a:	mov    ecx,esi
  405e8c:	call   0x408515
  405e91:	mov    ebx,eax
  405e93:	test   ebx,ebx
  405e95:	jns    0x405eb8
  405e97:	push   0x20
  405e99:	push   0x20
  405e9b:	lea    eax,[ebp-0x3cc]
  405ea1:	mov    edx,0x401318
  405ea6:	push   eax
  405ea7:	mov    ecx,esi
  405ea9:	call   0x408515
  405eae:	mov    ebx,eax
  405eb0:	test   ebx,ebx
  405eb2:	js     0x40606e
  405eb8:	mov    esi,DWORD PTR [ebp-0x410]
  405ebe:	lea    eax,[ebp-0x378]
  405ec4:	push   0x12
  405ec6:	push   0x20
  405ec8:	push   eax
  405ec9:	mov    edx,0x401180
  405ece:	mov    ecx,esi
  405ed0:	call   0x408515
  405ed5:	mov    ebx,eax
  405ed7:	test   ebx,ebx
  405ed9:	jns    0x405efc
  405edb:	push   0x20
  405edd:	push   0x20
  405edf:	lea    eax,[ebp-0x378]
  405ee5:	mov    edx,0x401320
  405eea:	push   eax
  405eeb:	mov    ecx,esi
  405eed:	call   0x408515
  405ef2:	mov    ebx,eax
  405ef4:	test   ebx,ebx
  405ef6:	js     0x40606e
  405efc:	lea    eax,[ebp-0x218]
  405f02:	push   eax
  405f03:	call   DWORD PTR ds:0x40b108
  405f09:	xor    eax,eax
  405f0b:	push   0x38
  405f0d:	mov    WORD PTR [ebp-0x40c],ax
  405f14:	lea    eax,[ebp-0x408]
  405f1a:	push   edi
  405f1b:	push   eax
  405f1c:	call   0x40986c
  405f21:	mov    edx,DWORD PTR [ebp-0x218]
  405f27:	lea    eax,[ebp-0x40c]
  405f2d:	mov    ecx,DWORD PTR [ebp-0x410]
  405f33:	add    esp,0xc
  405f36:	push   eax
  405f37:	call   0x407656
  405f3c:	mov    ebx,eax
  405f3e:	test   ebx,ebx
  405f40:	js     0x405f53
  405f42:	push   0xb
  405f44:	pop    ecx
  405f45:	lea    esi,[ebp-0x400]
  405f4b:	lea    edi,[ebp-0x440]
  405f51:	rep movs DWORD PTR es:[edi],DWORD PTR ds:[esi]
  405f53:	cmp    DWORD PTR [ebp-0x408],0x0
  405f5a:	je     0x405f68
  405f5c:	push   DWORD PTR [ebp-0x408]
  405f62:	call   DWORD PTR ds:0x40b0c0
  405f68:	test   ebx,ebx
  405f6a:	js     0x40606e
  405f70:	mov    eax,DWORD PTR [ebp-0x440]
  405f76:	lea    esi,[ebp-0x434]
  405f7c:	mov    ecx,DWORD PTR [ebp-0x43c]
  405f82:	lea    edi,[ebp-0x38c]
  405f88:	mov    DWORD PTR [ebp-0x3d0],eax
  405f8e:	mov    eax,DWORD PTR [ebp-0x438]
  405f94:	mov    DWORD PTR [ebp-0x37c],ecx
  405f9a:	movs   DWORD PTR es:[edi],DWORD PTR ds:[esi]
  405f9b:	movs   DWORD PTR es:[edi],DWORD PTR ds:[esi]
  405f9c:	movs   DWORD PTR es:[edi],DWORD PTR ds:[esi]
  405f9d:	movs   DWORD PTR es:[edi],DWORD PTR ds:[esi]
  405f9e:	mov    DWORD PTR [ebp-0x328],eax
  405fa4:	lea    esi,[ebp-0x424]
  405faa:	lea    edi,[ebp-0x338]
  405fb0:	xor    eax,eax
  405fb2:	movs   DWORD PTR es:[edi],DWORD PTR ds:[esi]
  405fb3:	movs   DWORD PTR es:[edi],DWORD PTR ds:[esi]
  405fb4:	movs   DWORD PTR es:[edi],DWORD PTR ds:[esi]
  405fb5:	movs   DWORD PTR es:[edi],DWORD PTR ds:[esi]
  405fb6:	mov    BYTE PTR [ebp-0x224],0x0
  405fbd:	cmp    ax,WORD PTR [ebp-0x432]
  405fc4:	jne    0x405fdc
  405fc6:	mov    DWORD PTR [ebp-0x328],ecx
  405fcc:	lea    esi,[ebp-0x434]
  405fd2:	lea    edi,[ebp-0x338]
  405fd8:	movs   DWORD PTR es:[edi],DWORD PTR ds:[esi]
  405fd9:	movs   DWORD PTR es:[edi],DWORD PTR ds:[esi]
  405fda:	movs   DWORD PTR es:[edi],DWORD PTR ds:[esi]
  405fdb:	movs   DWORD PTR es:[edi],DWORD PTR ds:[esi]
  405fdc:	cmp    DWORD PTR [ebp-0x414],eax
  405fe2:	je     0x406048
  405fe4:	push   0x0
  405fe6:	lea    edx,[ebp-0x414]
  405fec:	lea    ecx,[ebp-0x108]
  405ff2:	call   0x406b29
  405ff7:	mov    ebx,eax
  405ff9:	test   ebx,ebx
  405ffb:	js     0x40606e
  405ffd:	cmp    DWORD PTR [ebp-0x414],0x0
  406004:	je     0x406048
  406006:	xor    eax,eax
  406008:	lea    edi,[ebp-0x38c]
  40600e:	stos   DWORD PTR es:[edi],eax
  40600f:	lea    ecx,[ebp-0x378]
  406015:	stos   DWORD PTR es:[edi],eax
  406016:	stos   DWORD PTR es:[edi],eax
  406017:	stos   DWORD PTR es:[edi],eax
  406018:	xor    eax,eax
  40601a:	lea    edi,[ebp-0x338]
  406020:	stos   DWORD PTR es:[edi],eax
  406021:	stos   DWORD PTR es:[edi],eax
  406022:	stos   DWORD PTR es:[edi],eax
  406023:	stos   DWORD PTR es:[edi],eax
  406024:	lea    eax,[ebp-0x3cc]
  40602a:	and    DWORD PTR [ebp-0x328],0x0
  406031:	and    DWORD PTR [ebp-0x37c],0x0
  406038:	push   eax
  406039:	push   0x20
  40603b:	pop    edx
  40603c:	call   0x40551b
  406041:	mov    BYTE PTR [ebp-0x224],0x1
  406048:	lea    eax,[ebp-0x3d0]
  40604e:	push   eax
  40604f:	call   DWORD PTR ds:0x40b118
  406055:	test   eax,eax
  406057:	jne    0x40606e
  406059:	call   DWORD PTR ds:0x40b018
  40605f:	mov    ebx,eax
  406061:	test   ebx,ebx
  406063:	jle    0x40606e
  406065:	movzx  ebx,bx
  406068:	or     ebx,0x80070000
  40606e:	push   DWORD PTR [ebp-0x410]
  406074:	call   DWORD PTR ds:0x40b0c0
  40607a:	mov    ecx,DWORD PTR [ebp-0x4]
  40607d:	mov    eax,ebx
  40607f:	pop    edi
  406080:	pop    esi
  406081:	xor    ecx,ebp
  406083:	pop    ebx
  406084:	call   0x409090
  406089:	mov    esp,ebp
  40608b:	pop    ebp
  40608c:	ret    
  40608d:	int3   
  40608e:	int3   
  40608f:	int3   
  406090:	int3   
  406091:	int3   
  406092:	mov    edi,edi
  406094:	push   ebp
  406095:	mov    ebp,esp
  406097:	sub    esp,0x204
  40609d:	mov    eax,ds:0x40a004
  4060a2:	xor    eax,ebp
  4060a4:	mov    DWORD PTR [ebp-0x4],eax
  4060a7:	push   ebx
  4060a8:	push   esi
  4060a9:	push   edi
  4060aa:	mov    edi,DWORD PTR [ebp+0x8]
  4060ad:	mov    ebx,ecx
  4060af:	mov    esi,0x80070057
  4060b4:	test   edi,edi
  4060b6:	je     0x406129
  4060b8:	xor    eax,eax
  4060ba:	push   ecx
  4060bb:	mov    WORD PTR [edi],ax
  4060be:	call   0x4055aa
  4060c3:	test   eax,eax
  4060c5:	js     0x406129
  4060c7:	xor    eax,eax
  4060c9:	push   0xfe
  4060ce:	push   eax
  4060cf:	mov    WORD PTR [ebp-0x104],ax
  4060d6:	lea    eax,[ebp-0x102]
  4060dc:	push   eax
  4060dd:	call   0x40986c
  4060e2:	add    esp,0xc
  4060e5:	lea    edx,[ebp-0x104]
  4060eb:	push   0x0
  4060ed:	push   ecx
  4060ee:	mov    ecx,ebx
  4060f0:	call   0x40659a
  4060f5:	mov    esi,eax
  4060f7:	test   esi,esi
  4060f9:	js     0x406129
  4060fb:	push   ecx
  4060fc:	lea    eax,[ebp-0x204]
  406102:	push   eax
  406103:	push   ecx
  406104:	push   ecx
  406105:	lea    ecx,[ebp-0x104]
  40610b:	call   0x4064c1
  406110:	mov    esi,eax
  406112:	test   esi,esi
  406114:	js     0x406129
  406116:	lea    eax,[ebp-0x204]
  40611c:	mov    edx,0x80
  406121:	push   eax
  406122:	mov    ecx,edi
  406124:	call   0x40551b
  406129:	mov    ecx,DWORD PTR [ebp-0x4]
  40612c:	mov    eax,esi
  40612e:	pop    edi
  40612f:	pop    esi
  406130:	xor    ecx,ebp
  406132:	pop    ebx
  406133:	call   0x409090
  406138:	mov    esp,ebp
  40613a:	pop    ebp
  40613b:	ret    0x8
  40613e:	int3   
  40613f:	int3   
  406140:	int3   
  406141:	int3   
  406142:	int3   
  406143:	mov    eax,ds:0x40a370
  406148:	push   esi
  406149:	xor    esi,esi
  40614b:	push   edi
  40614c:	mov    edi,ecx
  40614e:	test   eax,eax
  406150:	jne    0x40617d
  406152:	push   0x40a370
  406157:	push   0x20019
  40615c:	push   esi
  40615d:	push   0x4011d0
  406162:	push   0x80000002
  406167:	call   DWORD PTR ds:0x40b0bc
  40616d:	test   eax,eax
  40616f:	je     0x406178
  406171:	mov    esi,0x80040203
  406176:	jmp    0x40617f
  406178:	mov    eax,ds:0x40a370
  40617d:	mov    DWORD PTR [edi],eax
  40617f:	pop    edi
  406180:	mov    eax,esi
  406182:	pop    esi
  406183:	ret    
  406184:	int3   
  406185:	int3   
  406186:	int3   
  406187:	int3   
  406188:	int3   
  406189:	mov    edi,edi
  40618b:	push   ebp
  40618c:	mov    ebp,esp
  40618e:	push   DWORD PTR [ebp+0x8]
  406191:	push   0x20019
  406196:	push   0x0
  406198:	push   edx
  406199:	push   ecx
  40619a:	call   DWORD PTR ds:0x40b0bc
  4061a0:	neg    eax
  4061a2:	sbb    eax,eax
  4061a4:	and    eax,0x80040204
  4061a9:	pop    ebp
  4061aa:	ret    0x4
  4061ad:	int3   
  4061ae:	int3   
  4061af:	int3   
  4061b0:	int3   
  4061b1:	int3   
  4061b2:	mov    edi,edi
  4061b4:	push   ebp
  4061b5:	mov    ebp,esp
  4061b7:	push   ecx
  4061b8:	lea    eax,[ebp-0x4]
  4061bb:	mov    DWORD PTR [ebp-0x4],0x4
  4061c2:	push   eax
  4061c3:	push   DWORD PTR [ebp+0x8]
  4061c6:	push   0x0
  4061c8:	push   0x0
  4061ca:	push   edx
  4061cb:	push   ecx
  4061cc:	call   DWORD PTR ds:0x40b0c4
  4061d2:	neg    eax
  4061d4:	sbb    eax,eax
  4061d6:	inc    eax
  4061d7:	mov    esp,ebp
  4061d9:	pop    ebp
  4061da:	ret    0x4
  4061dd:	int3   
  4061de:	int3   
  4061df:	int3   
  4061e0:	int3   
  4061e1:	int3   
  4061e2:	mov    edi,edi
  4061e4:	push   ebp
  4061e5:	mov    ebp,esp
  4061e7:	sub    esp,0x48
  4061ea:	mov    eax,ds:0x40a004
  4061ef:	xor    eax,ebp
  4061f1:	mov    DWORD PTR [ebp-0x4],eax
  4061f4:	mov    eax,DWORD PTR [ebp+0x10]
  4061f7:	push   ebx
  4061f8:	push   esi
  4061f9:	mov    DWORD PTR [ebp-0x44],eax
  4061fc:	mov    ebx,edx
  4061fe:	mov    eax,DWORD PTR [ebp+0x18]
  406201:	mov    esi,ecx
  406203:	push   edi
  406204:	mov    DWORD PTR [ebp-0x48],eax
  406207:	xor    eax,eax
  406209:	push   0x38
  40620b:	push   eax
  40620c:	mov    WORD PTR [ebp-0x40],ax
  406210:	lea    eax,[ebp-0x3c]
  406213:	push   eax
  406214:	call   0x40986c
  406219:	mov    dx,WORD PTR [ebx]
  40621c:	lea    eax,[ebp-0x40]
  40621f:	add    esp,0xc
  406222:	mov    ecx,esi
  406224:	push   eax
  406225:	call   0x407656
  40622a:	mov    esi,eax
  40622c:	test   esi,esi
  40622e:	js     0x406266
  406230:	test   BYTE PTR [ebp+0xc],0x2
  406234:	je     0x406252
  406236:	xor    eax,eax
  406238:	lea    edi,[ebp-0x28]
  40623b:	stos   DWORD PTR es:[edi],eax
  40623c:	stos   DWORD PTR es:[edi],eax
  40623d:	stos   DWORD PTR es:[edi],eax
  40623e:	stos   DWORD PTR es:[edi],eax
  40623f:	xor    eax,eax
  406241:	lea    edi,[ebp-0x18]
  406244:	stos   DWORD PTR es:[edi],eax
  406245:	stos   DWORD PTR es:[edi],eax
  406246:	stos   DWORD PTR es:[edi],eax
  406247:	stos   DWORD PTR es:[edi],eax
  406248:	and    DWORD PTR [ebp-0x2c],0x0
  40624c:	xor    eax,eax
  40624e:	mov    WORD PTR [ebp-0x38],ax
  406252:	push   DWORD PTR [ebp-0x48]
  406255:	mov    edx,ebx
  406257:	push   ecx
  406258:	push   DWORD PTR [ebp-0x44]
  40625b:	push   ecx
  40625c:	lea    ecx,[ebp-0x40]
  40625f:	call   0x40715f
  406264:	mov    esi,eax
  406266:	cmp    DWORD PTR [ebp-0x3c],0x0
  40626a:	je     0x406275
  40626c:	push   DWORD PTR [ebp-0x3c]
  40626f:	call   DWORD PTR ds:0x40b0c0
  406275:	mov    ecx,DWORD PTR [ebp-0x4]
  406278:	mov    eax,esi
  40627a:	pop    edi
  40627b:	pop    esi
  40627c:	xor    ecx,ebp
  40627e:	pop    ebx
  40627f:	call   0x409090
  406284:	mov    esp,ebp
  406286:	pop    ebp
  406287:	ret    0x14
  40628a:	int3   
  40628b:	int3   
  40628c:	int3   
  40628d:	int3   
  40628e:	int3   
  40628f:	mov    edi,edi
  406291:	push   ebp
  406292:	mov    ebp,esp
  406294:	sub    esp,0x54
  406297:	mov    eax,ds:0x40a004
  40629c:	xor    eax,ebp
  40629e:	mov    DWORD PTR [ebp-0x4],eax
  4062a1:	push   ebx
  4062a2:	mov    ebx,DWORD PTR [ebp+0x10]
  4062a5:	xor    eax,eax
  4062a7:	push   esi
  4062a8:	push   edi
  4062a9:	mov    edi,DWORD PTR [ebp+0xc]
  4062ac:	mov    esi,ecx
  4062ae:	push   0x38
  4062b0:	push   eax
  4062b1:	mov    WORD PTR [ebp-0x40],ax
  4062b5:	lea    eax,[ebp-0x3c]
  4062b8:	push   eax
  4062b9:	mov    DWORD PTR [ebp-0x44],edx
  4062bc:	mov    DWORD PTR [ebp-0x4c],edi
  4062bf:	call   0x40986c
  4062c4:	add    esp,0xc
  4062c7:	lea    eax,[ebp-0x40]
  4062ca:	mov    ecx,esi
  4062cc:	push   eax
  4062cd:	mov    eax,DWORD PTR [ebp-0x44]
  4062d0:	mov    dx,WORD PTR [eax]
  4062d3:	call   0x407656
  4062d8:	mov    esi,eax
  4062da:	test   esi,esi
  4062dc:	js     0x40636a
  4062e2:	test   BYTE PTR [ebp+0x8],0x2
  4062e6:	movzx  ecx,WORD PTR [ebp-0x38]
  4062ea:	je     0x40630b
  4062ec:	xor    eax,eax
  4062ee:	lea    edi,[ebp-0x28]
  4062f1:	stos   DWORD PTR es:[edi],eax
  4062f2:	stos   DWORD PTR es:[edi],eax
  4062f3:	stos   DWORD PTR es:[edi],eax
  4062f4:	stos   DWORD PTR es:[edi],eax
  4062f5:	xor    eax,eax
  4062f7:	lea    edi,[ebp-0x18]
  4062fa:	stos   DWORD PTR es:[edi],eax
  4062fb:	stos   DWORD PTR es:[edi],eax
  4062fc:	stos   DWORD PTR es:[edi],eax
  4062fd:	stos   DWORD PTR es:[edi],eax
  4062fe:	and    DWORD PTR [ebp-0x2c],0x0
  406302:	xor    eax,eax
  406304:	mov    edi,DWORD PTR [ebp-0x4c]
  406307:	mov    WORD PTR [ebp-0x38],ax
  40630b:	test   ecx,ecx
  40630d:	jne    0x406345
  40630f:	lea    edx,[ebp-0x28]
  406312:	mov    eax,DWORD PTR [edx+ecx*4]
  406315:	lea    edx,[ebp-0x18]
  406318:	cmp    eax,DWORD PTR [edx+ecx*4]
  40631b:	lea    edx,[ebp-0x28]
  40631e:	jne    0x406345
  406320:	inc    ecx
  406321:	cmp    ecx,0x4
  406324:	jne    0x406312
  406326:	mov    eax,DWORD PTR [ebp-0x34]
  406329:	mov    DWORD PTR [edi],eax
  40632b:	test   ebx,ebx
  40632d:	je     0x40636a
  40632f:	push   0x230
  406334:	push   0x0
  406336:	push   ebx
  406337:	call   0x40986c
  40633c:	add    esp,0xc
  40633f:	and    DWORD PTR [ebx+0x4],0x0
  406343:	jmp    0x40636a
  406345:	lea    eax,[ebp-0x50]
  406348:	push   eax
  406349:	push   DWORD PTR [ebp-0x44]
  40634c:	call   DWORD PTR ds:0x40b120
  406352:	mov    eax,DWORD PTR [ebp+0x8]
  406355:	lea    edx,[ebp-0x50]
  406358:	push   0x0
  40635a:	push   ebx
  40635b:	push   edi
  40635c:	or     eax,0x1
  40635f:	lea    ecx,[ebp-0x40]
  406362:	push   eax
  406363:	call   0x407350
  406368:	mov    esi,eax
  40636a:	cmp    DWORD PTR [ebp-0x3c],0x0
  40636e:	je     0x406379
  406370:	push   DWORD PTR [ebp-0x3c]
  406373:	call   DWORD PTR ds:0x40b0c0
  406379:	mov    ecx,DWORD PTR [ebp-0x4]
  40637c:	mov    eax,esi
  40637e:	pop    edi
  40637f:	pop    esi
  406380:	xor    ecx,ebp
  406382:	pop    ebx
  406383:	call   0x409090
  406388:	mov    esp,ebp
  40638a:	pop    ebp
  40638b:	ret    0x10
  40638e:	int3   
  40638f:	int3   
  406390:	int3   
  406391:	int3   
  406392:	int3   
  406393:	mov    edi,edi
  406395:	push   ebp
  406396:	mov    ebp,esp
  406398:	sub    esp,0x18
  40639b:	lea    eax,[ebp-0x10]
  40639e:	push   ebx
  40639f:	push   esi
  4063a0:	push   edi
  4063a1:	push   eax
  4063a2:	push   ecx
  4063a3:	lea    eax,[ebp-0x8]
  4063a6:	mov    ebx,edx
  4063a8:	push   eax
  4063a9:	push   DWORD PTR [ebp+0xc]
  4063ac:	push   ecx
  4063ad:	call   0x4061e2
  4063b2:	mov    esi,eax
  4063b4:	test   esi,esi
  4063b6:	js     0x406421
  4063b8:	mov    edi,DWORD PTR [ebp+0x8]
  4063bb:	cmp    esi,0x40201
  4063c1:	je     0x4063e2
  4063c3:	cmp    DWORD PTR [ebp-0x8],edi
  4063c6:	je     0x4063e0
  4063c8:	cmp    esi,0x40200
  4063ce:	jne    0x4063d9
  4063d0:	cmp    DWORD PTR [ebp-0x10],edi
  4063d3:	jne    0x4063d9
  4063d5:	xor    esi,esi
  4063d7:	jmp    0x4063e6
  4063d9:	mov    esi,0x40202
  4063de:	jmp    0x4063e6
  4063e0:	xor    esi,esi
  4063e2:	test   esi,esi
  4063e4:	js     0x406421
  4063e6:	lea    eax,[ebp-0x14]
  4063e9:	push   eax
  4063ea:	push   ebx
  4063eb:	call   DWORD PTR ds:0x40b120
  4063f1:	test   eax,eax
  4063f3:	je     0x40641c
  4063f5:	push   DWORD PTR [ebp+0x10]
  4063f8:	imul   eax,edi,0x3c
  4063fb:	mov    ecx,0x989680
  406400:	imul   ecx
  406402:	add    eax,DWORD PTR [ebp-0x14]
  406405:	mov    DWORD PTR [ebp-0xc],eax
  406408:	lea    eax,[ebp-0xc]
  40640b:	adc    edx,DWORD PTR [ebp-0x10]
  40640e:	push   eax
  40640f:	mov    DWORD PTR [ebp-0x8],edx
  406412:	call   DWORD PTR ds:0x40b11c
  406418:	test   eax,eax
  40641a:	jne    0x406421
  40641c:	mov    esi,0x80004005
  406421:	pop    edi
  406422:	mov    eax,esi
  406424:	pop    esi
  406425:	pop    ebx
  406426:	mov    esp,ebp
  406428:	pop    ebp
  406429:	ret    0xc
  40642c:	int3   
  40642d:	int3   
  40642e:	int3   
  40642f:	int3   
  406430:	int3   
  406431:	mov    edi,edi
  406433:	push   ebp
  406434:	mov    ebp,esp
  406436:	sub    esp,0x34
  406439:	mov    eax,ds:0x40a004
  40643e:	xor    eax,ebp
  406440:	mov    DWORD PTR [ebp-0x4],eax
  406443:	push   ebx
  406444:	push   esi
  406445:	push   edi
  406446:	lea    eax,[ebp-0x30]
  406449:	mov    esi,edx
  40644b:	push   eax
  40644c:	mov    edx,0x4012ac
  406451:	mov    edi,ecx
  406453:	call   0x40709d
  406458:	mov    ebx,eax
  40645a:	test   ebx,ebx
  40645c:	js     0x4064a9
  40645e:	mov    ecx,DWORD PTR [ebp-0x30]
  406461:	lea    eax,[ebp-0x34]
  406464:	and    DWORD PTR [esi+0x4],0x0
  406468:	mov    edx,0x4012b4
  40646d:	mov    DWORD PTR [esi],ecx
  40646f:	mov    ecx,edi
  406471:	push   eax
  406472:	call   0x4061b2
  406477:	test   eax,eax
  406479:	je     0x406486
  40647b:	xor    eax,eax
  40647d:	cmp    DWORD PTR [ebp-0x34],eax
  406480:	setne  al
  406483:	mov    DWORD PTR [esi+0x4],eax
  406486:	and    DWORD PTR [esi+0x8],0x0
  40648a:	lea    eax,[ebp-0x34]
  40648d:	push   eax
  40648e:	mov    edx,0x4012cc
  406493:	mov    ecx,edi
  406495:	call   0x4061b2
  40649a:	test   eax,eax
  40649c:	je     0x4064a9
  40649e:	xor    eax,eax
  4064a0:	cmp    DWORD PTR [ebp-0x34],eax
  4064a3:	setne  al
  4064a6:	mov    DWORD PTR [esi+0x8],eax
  4064a9:	mov    ecx,DWORD PTR [ebp-0x4]
  4064ac:	mov    eax,ebx
  4064ae:	pop    edi
  4064af:	pop    esi
  4064b0:	xor    ecx,ebp
  4064b2:	pop    ebx
  4064b3:	call   0x409090
  4064b8:	mov    esp,ebp
  4064ba:	pop    ebp
  4064bb:	ret    
  4064bc:	int3   
  4064bd:	int3   
  4064be:	int3   
  4064bf:	int3   
  4064c0:	int3   
  4064c1:	mov    edi,edi
  4064c3:	push   ebp
  4064c4:	mov    ebp,esp
  4064c6:	push   ecx
  4064c7:	push   ecx
  4064c8:	push   esi
  4064c9:	push   edi
  4064ca:	mov    edi,ecx
  4064cc:	lea    ecx,[ebp-0x8]
  4064cf:	call   0x406143
  4064d4:	mov    esi,eax
  4064d6:	test   esi,esi
  4064d8:	js     0x406513
  4064da:	mov    ecx,DWORD PTR [ebp-0x8]
  4064dd:	lea    eax,[ebp-0x4]
  4064e0:	push   eax
  4064e1:	mov    edx,edi
  4064e3:	call   0x406189
  4064e8:	mov    esi,eax
  4064ea:	test   esi,esi
  4064ec:	js     0x406513
  4064ee:	mov    ecx,DWORD PTR [ebp-0x4]
  4064f1:	push   0x80
  4064f6:	push   DWORD PTR [ebp+0x10]
  4064f9:	push   0x4011a8
  4064fe:	push   0x4011b8
  406503:	call   0x408015
  406508:	push   DWORD PTR [ebp-0x4]
  40650b:	mov    esi,eax
  40650d:	call   DWORD PTR ds:0x40b0c0
  406513:	pop    edi
  406514:	mov    eax,esi
  406516:	pop    esi
  406517:	mov    esp,ebp
  406519:	pop    ebp
  40651a:	ret    0x10
  40651d:	int3   
  40651e:	int3   
  40651f:	int3   
  406520:	int3   
  406521:	int3   
  406522:	mov    edi,edi
  406524:	push   ebp
  406525:	mov    ebp,esp
  406527:	push   ecx
  406528:	push   ebx
  406529:	mov    ebx,DWORD PTR [ebp+0xc]
  40652c:	xor    eax,eax
  40652e:	push   esi
  40652f:	push   edi
  406530:	mov    esi,edx
  406532:	mov    DWORD PTR [ebp-0x4],eax
  406535:	mov    edx,DWORD PTR [ebp+0x8]
  406538:	push   ecx
  406539:	mov    ecx,esi
  40653b:	mov    DWORD PTR [ebx],eax
  40653d:	call   0x40551b
  406542:	mov    edi,eax
  406544:	test   edi,edi
  406546:	js     0x40658a
  406548:	mov    ecx,esi
  40654a:	lea    edx,[ecx+0x2]
  40654d:	mov    ax,WORD PTR [ecx]
  406550:	add    ecx,0x2
  406553:	cmp    ax,WORD PTR [ebp-0x4]
  406557:	jne    0x40654d
  406559:	sub    ecx,edx
  40655b:	sar    ecx,1
  40655d:	cmp    ecx,0x7
  406560:	jbe    0x40658a
  406562:	push   0x1
  406564:	push   0xffffffff
  406566:	push   0x401170
  40656b:	lea    esi,[esi+ecx*2]
  40656e:	push   0xffffffff
  406570:	add    esi,0xfffffff2
  406573:	push   esi
  406574:	call   DWORD PTR ds:0x40b0d4
  40657a:	cmp    eax,0x2
  40657d:	jne    0x40658a
  40657f:	xor    eax,eax
  406581:	mov    DWORD PTR [ebx],0x1
  406587:	mov    WORD PTR [esi],ax
  40658a:	mov    eax,edi
  40658c:	pop    edi
  40658d:	pop    esi
  40658e:	pop    ebx
  40658f:	mov    esp,ebp
  406591:	pop    ebp
  406592:	ret    0x8
  406595:	int3   
  406596:	int3   
  406597:	int3   
  406598:	int3   
  406599:	int3   
  40659a:	mov    edi,edi
  40659c:	push   ebp
  40659d:	mov    ebp,esp
  40659f:	and    esp,0xfffffff8
  4065a2:	push   ecx
  4065a3:	push   ebx
  4065a4:	push   esi
  4065a5:	mov    esi,DWORD PTR [ebp+0xc]
  4065a8:	mov    ebx,ecx
  4065aa:	push   edi
  4065ab:	mov    edi,edx
  4065ad:	test   esi,esi
  4065af:	je     0x4065b4
  4065b1:	and    DWORD PTR [esi],0x0
  4065b4:	call   0x405662
  4065b9:	test   eax,eax
  4065bb:	je     0x4065e1
  4065bd:	mov    edx,0x80
  4065c2:	mov    ecx,edi
  4065c4:	call   0x406754
  4065c9:	test   eax,eax
  4065cb:	js     0x406622
  4065cd:	test   esi,esi
  4065cf:	je     0x406622
  4065d1:	and    DWORD PTR [esp+0xc],0x0
  4065d6:	lea    ecx,[esp+0xc]
  4065da:	call   0x40691f
  4065df:	jmp    0x406611
  4065e1:	lea    eax,[esp+0xc]
  4065e5:	mov    edx,edi
  4065e7:	push   eax
  4065e8:	push   0x80
  4065ed:	mov    ecx,ebx
  4065ef:	call   0x406522
  4065f4:	test   eax,eax
  4065f6:	js     0x406622
  4065f8:	cmp    DWORD PTR [esp+0xc],0x0
  4065fd:	je     0x406622
  4065ff:	test   esi,esi
  406601:	je     0x406622
  406603:	lea    eax,[esp+0xc]
  406607:	xor    edx,edx
  406609:	push   eax
  40660a:	mov    ecx,edi
  40660c:	call   0x406b29
  406611:	test   eax,eax
  406613:	js     0x406622
  406615:	cmp    DWORD PTR [esp+0xc],0x0
  40661a:	je     0x406622
  40661c:	mov    DWORD PTR [esi],0x2
  406622:	pop    edi
  406623:	pop    esi
  406624:	pop    ebx
  406625:	mov    esp,ebp
  406627:	pop    ebp
  406628:	ret    0x8
  40662b:	int3   
  40662c:	int3   
  40662d:	int3   
  40662e:	int3   
  40662f:	int3   
  406630:	mov    eax,DWORD PTR [ecx]
  406632:	push   ebx
  406633:	push   esi
  406634:	push   edi
  406635:	cmp    eax,DWORD PTR [edx]
  406637:	jne    0x406749
  40663d:	mov    eax,DWORD PTR [ecx+0x54]
  406640:	cmp    eax,DWORD PTR [edx+0x54]
  406643:	jne    0x406749
  406649:	mov    eax,DWORD PTR [ecx+0xa8]
  40664f:	cmp    eax,DWORD PTR [edx+0xa8]
  406655:	jne    0x406749
  40665b:	mov    al,BYTE PTR [ecx+0x1ac]
  406661:	cmp    al,BYTE PTR [edx+0x1ac]
  406667:	jne    0x406749
  40666d:	xor    esi,esi
  40666f:	mov    edi,esi
  406671:	mov    eax,DWORD PTR [ecx+edi*4+0x44]
  406675:	cmp    eax,DWORD PTR [edx+edi*4+0x44]
  406679:	jne    0x406749
  40667f:	inc    edi
  406680:	cmp    edi,0x4
  406683:	jne    0x406671
  406685:	mov    edi,esi
  406687:	mov    eax,DWORD PTR [ecx+edi*4+0x98]
  40668e:	cmp    eax,DWORD PTR [edx+edi*4+0x98]
  406695:	jne    0x406749
  40669b:	inc    edi
  40669c:	cmp    edi,0x4
  40669f:	jne    0x406687
  4066a1:	lea    edi,[edx+0x4]
  4066a4:	lea    eax,[ecx+0x4]
  4066a7:	mov    bx,WORD PTR [eax]
  4066aa:	cmp    bx,WORD PTR [edi]
  4066ad:	jne    0x4066cd
  4066af:	test   bx,bx
  4066b2:	je     0x4066c9
  4066b4:	mov    bx,WORD PTR [eax+0x2]
  4066b8:	cmp    bx,WORD PTR [edi+0x2]
  4066bc:	jne    0x4066cd
  4066be:	add    eax,0x4
  4066c1:	add    edi,0x4
  4066c4:	test   bx,bx
  4066c7:	jne    0x4066a7
  4066c9:	mov    eax,esi
  4066cb:	jmp    0x4066d2
  4066cd:	sbb    eax,eax
  4066cf:	or     eax,0x1
  4066d2:	test   eax,eax
  4066d4:	jne    0x406749
  4066d6:	lea    edi,[edx+0x58]
  4066d9:	lea    eax,[ecx+0x58]
  4066dc:	mov    bx,WORD PTR [eax]
  4066df:	cmp    bx,WORD PTR [edi]
  4066e2:	jne    0x406702
  4066e4:	test   bx,bx
  4066e7:	je     0x4066fe
  4066e9:	mov    bx,WORD PTR [eax+0x2]
  4066ed:	cmp    bx,WORD PTR [edi+0x2]
  4066f1:	jne    0x406702
  4066f3:	add    eax,0x4
  4066f6:	add    edi,0x4
  4066f9:	test   bx,bx
  4066fc:	jne    0x4066dc
  4066fe:	mov    eax,esi
  406700:	jmp    0x406707
  406702:	sbb    eax,eax
  406704:	or     eax,0x1
  406707:	test   eax,eax
  406709:	jne    0x406749
  40670b:	add    edx,0xac
  406711:	add    ecx,0xac
  406717:	mov    ax,WORD PTR [ecx]
  40671a:	cmp    ax,WORD PTR [edx]
  40671d:	jne    0x40673b
  40671f:	test   ax,ax
  406722:	je     0x406740
  406724:	mov    ax,WORD PTR [ecx+0x2]
  406728:	cmp    ax,WORD PTR [edx+0x2]
  40672c:	jne    0x40673b
  40672e:	add    ecx,0x4
  406731:	add    edx,0x4
  406734:	test   ax,ax
  406737:	jne    0x406717
  406739:	jmp    0x406740
  40673b:	sbb    esi,esi
  40673d:	or     esi,0x1
  406740:	test   esi,esi
  406742:	jne    0x406749
  406744:	xor    eax,eax
  406746:	inc    eax
  406747:	jmp    0x40674b
  406749:	xor    eax,eax
  40674b:	pop    edi
  40674c:	pop    esi
  40674d:	pop    ebx
  40674e:	ret    
  40674f:	int3   
  406750:	int3   
  406751:	int3   
  406752:	int3   
  406753:	int3   
  406754:	mov    edi,edi
  406756:	push   ebp
  406757:	mov    ebp,esp
  406759:	sub    esp,0x2cc
  40675f:	mov    eax,ds:0x40a004
  406764:	xor    eax,ebp
  406766:	mov    DWORD PTR [ebp-0x4],eax
  406769:	push   ebx
  40676a:	push   esi
  40676b:	push   edi
  40676c:	xor    esi,esi
  40676e:	mov    DWORD PTR [ebp-0x2c8],edx
  406774:	push   0x1ac
  406779:	lea    eax,[ebp-0x2b4]
  40677f:	mov    DWORD PTR [ebp-0x2b8],esi
  406785:	mov    edi,ecx
  406787:	push   esi
  406788:	push   eax
  406789:	mov    DWORD PTR [ebp-0x2c0],edi
  40678f:	call   0x40986c
  406794:	xor    eax,eax
  406796:	add    esp,0xc
  406799:	mov    WORD PTR [edi],ax
  40679c:	lea    eax,[ebp-0x2b8]
  4067a2:	push   eax
  4067a3:	call   DWORD PTR ds:0x40b110
  4067a9:	cmp    eax,0xffffffff
  4067ac:	je     0x4068f2
  4067b2:	lea    ecx,[ebp-0x2bc]
  4067b8:	call   0x406143
  4067bd:	mov    ebx,eax
  4067bf:	test   ebx,ebx
  4067c1:	js     0x406907
  4067c7:	push   0x40a378
  4067cc:	call   DWORD PTR ds:0x40b0dc
  4067d2:	lea    eax,[ebp-0x2b8]
  4067d8:	mov    edx,0x40a390
  4067dd:	mov    ecx,esi
  4067df:	mov    eax,DWORD PTR [eax+ecx*4]
  4067e2:	cmp    eax,DWORD PTR [edx+ecx*4]
  4067e5:	jne    0x4067f8
  4067e7:	inc    ecx
  4067e8:	lea    eax,[ebp-0x2b8]
  4067ee:	cmp    ecx,0x6c
  4067f1:	jne    0x4067df
  4067f3:	jmp    0x4068bb
  4067f8:	lea    ecx,[ebp-0x2b8]
  4067fe:	call   0x406630
  406803:	test   eax,eax
  406805:	jne    0x4068bb
  40680b:	push   0xfe
  406810:	mov    WORD PTR [ebp-0x108],ax
  406817:	lea    eax,[ebp-0x106]
  40681d:	push   esi
  40681e:	push   eax
  40681f:	call   0x40986c
  406824:	add    esp,0xc
  406827:	cmp    WORD PTR [ebp-0x20c],si
  40682e:	je     0x40685f
  406830:	mov    ecx,DWORD PTR [ebp-0x2bc]
  406836:	lea    eax,[ebp-0x2c4]
  40683c:	push   eax
  40683d:	lea    edx,[ebp-0x20c]
  406843:	call   0x406189
  406848:	mov    ebx,eax
  40684a:	test   ebx,ebx
  40684c:	js     0x40685f
  40684e:	push   DWORD PTR [ebp-0x2c4]
  406854:	xor    esi,esi
  406856:	inc    esi
  406857:	call   DWORD PTR ds:0x40b0c0
  40685d:	jmp    0x406873
  40685f:	push   ecx
  406860:	mov    ecx,DWORD PTR [ebp-0x2bc]
  406866:	lea    edx,[ebp-0x108]
  40686c:	call   0x4083ac
  406871:	mov    ebx,eax
  406873:	test   ebx,ebx
  406875:	js     0x4068e5
  406877:	lea    eax,[ebp-0x20c]
  40687d:	test   esi,esi
  40687f:	jne    0x406887
  406881:	lea    eax,[ebp-0x108]
  406887:	push   eax
  406888:	mov    edx,0x80
  40688d:	mov    ecx,0x40a540
  406892:	call   0x40551b
  406897:	mov    ebx,eax
  406899:	mov    edi,0x40a390
  40689e:	xor    eax,eax
  4068a0:	test   esi,esi
  4068a2:	push   0x6c
  4068a4:	sete   al
  4068a7:	lea    esi,[ebp-0x2b8]
  4068ad:	pop    ecx
  4068ae:	mov    ds:0x40a640,eax
  4068b3:	rep movs DWORD PTR es:[edi],DWORD PTR ds:[esi]
  4068b5:	mov    edi,DWORD PTR [ebp-0x2c0]
  4068bb:	test   ebx,ebx
  4068bd:	js     0x4068e5
  4068bf:	mov    edx,DWORD PTR [ebp-0x2c8]
  4068c5:	mov    ecx,edi
  4068c7:	push   0x40a540
  4068cc:	call   0x40551b
  4068d1:	mov    ebx,eax
  4068d3:	test   ebx,ebx
  4068d5:	js     0x4068e5
  4068d7:	cmp    DWORD PTR ds:0x40a640,0x0
  4068de:	je     0x4068e5
  4068e0:	mov    ebx,0x40204
  4068e5:	push   0x40a378
  4068ea:	call   DWORD PTR ds:0x40b0ec
  4068f0:	jmp    0x406907
  4068f2:	call   DWORD PTR ds:0x40b018
  4068f8:	mov    ebx,eax
  4068fa:	test   ebx,ebx
  4068fc:	jle    0x406907
  4068fe:	movzx  ebx,bx
  406901:	or     ebx,0x80070000
  406907:	mov    ecx,DWORD PTR [ebp-0x4]
  40690a:	mov    eax,ebx
  40690c:	pop    edi
  40690d:	pop    esi
  40690e:	xor    ecx,ebp
  406910:	pop    ebx
  406911:	call   0x409090
  406916:	mov    esp,ebp
  406918:	pop    ebp
  406919:	ret    
  40691a:	int3   
  40691b:	int3   
  40691c:	int3   
  40691d:	int3   
  40691e:	int3   
  40691f:	mov    edi,edi
  406921:	push   ebp
  406922:	mov    ebp,esp
  406924:	sub    esp,0x1d4
  40692a:	mov    eax,ds:0x40a004
  40692f:	xor    eax,ebp
  406931:	mov    DWORD PTR [ebp-0x4],eax
  406934:	mov    eax,ecx
  406936:	push   ebx
  406937:	push   esi
  406938:	xor    esi,esi
  40693a:	mov    DWORD PTR [ebp-0x1d0],eax
  406940:	mov    DWORD PTR [eax],esi
  406942:	mov    ecx,DWORD PTR ds:0x40a374
  406948:	mov    DWORD PTR [ebp-0x1cc],esi
  40694e:	push   edi
  40694f:	test   ecx,ecx
  406951:	jne    0x406982
  406953:	push   0x40a374
  406958:	push   0x20019
  40695d:	push   esi
  40695e:	push   0x401240
  406963:	push   0x80000002
  406968:	call   DWORD PTR ds:0x40b0bc
  40696e:	test   eax,eax
  406970:	je     0x40697c
  406972:	mov    ebx,0x80040203
  406977:	jmp    0x406a87
  40697c:	mov    ecx,DWORD PTR ds:0x40a374
  406982:	lea    eax,[ebp-0x1d4]
  406988:	mov    edx,0x4012e0
  40698d:	push   eax
  40698e:	mov    ebx,esi
  406990:	call   0x4061b2
  406995:	test   eax,eax
  406997:	je     0x4069af
  406999:	cmp    DWORD PTR [ebp-0x1d4],ebx
  40699f:	je     0x406a87
  4069a5:	mov    DWORD PTR [ebp-0x1cc],0x2
  4069af:	lea    eax,[ebp-0x1c8]
  4069b5:	push   eax
  4069b6:	call   DWORD PTR ds:0x40b114
  4069bc:	cmp    eax,0xffffffff
  4069bf:	je     0x406a87
  4069c5:	lea    edx,[ebp-0x184]
  4069cb:	mov    ecx,esi
  4069cd:	lea    edi,[ebp-0x130]
  4069d3:	mov    eax,DWORD PTR [edx+ecx*4]
  4069d6:	cmp    eax,DWORD PTR [edi+ecx*4]
  4069d9:	jne    0x406a87
  4069df:	inc    ecx
  4069e0:	cmp    ecx,0x4
  4069e3:	jne    0x4069d3
  4069e5:	xor    eax,eax
  4069e7:	push   0xfe
  4069ec:	mov    WORD PTR [ebp-0x108],ax
  4069f3:	lea    eax,[ebp-0x106]
  4069f9:	push   esi
  4069fa:	push   eax
  4069fb:	call   0x40986c
  406a00:	add    esp,0xc
  406a03:	lea    ecx,[ebp-0x108]
  406a09:	mov    edx,0x80
  406a0e:	call   0x406754
  406a13:	mov    ebx,eax
  406a15:	test   ebx,ebx
  406a17:	js     0x406a87
  406a19:	xor    ecx,ecx
  406a1b:	lea    edi,[ebp-0x116]
  406a21:	cmp    ebx,0x40204
  406a27:	sete   cl
  406a2a:	xor    eax,eax
  406a2c:	mov    WORD PTR [ebp-0x118],ax
  406a33:	stos   DWORD PTR es:[edi],eax
  406a34:	stos   DWORD PTR es:[edi],eax
  406a35:	stos   DWORD PTR es:[edi],eax
  406a36:	stos   WORD PTR es:[edi],ax
  406a38:	test   ecx,ecx
  406a3a:	je     0x406a58
  406a3c:	lea    ecx,[ebp-0x184]
  406a42:	lea    edx,[ebp-0x118]
  406a48:	mov    eax,DWORD PTR [ecx+esi*4]
  406a4b:	cmp    eax,DWORD PTR [edx+esi*4]
  406a4e:	jne    0x406a7b
  406a50:	inc    esi
  406a51:	cmp    esi,0x4
  406a54:	jne    0x406a48
  406a56:	jmp    0x406a87
  406a58:	cmp    DWORD PTR [ebp-0x1cc],0x2
  406a5f:	jne    0x406a87
  406a61:	lea    ecx,[ebp-0x184]
  406a67:	lea    edx,[ebp-0x118]
  406a6d:	mov    eax,DWORD PTR [ecx+esi*4]
  406a70:	cmp    eax,DWORD PTR [edx+esi*4]
  406a73:	jne    0x406a87
  406a75:	inc    esi
  406a76:	cmp    esi,0x4
  406a79:	jne    0x406a6d
  406a7b:	mov    eax,DWORD PTR [ebp-0x1d0]
  406a81:	mov    DWORD PTR [eax],0x1
  406a87:	mov    ecx,DWORD PTR [ebp-0x4]
  406a8a:	mov    eax,ebx
  406a8c:	pop    edi
  406a8d:	pop    esi
  406a8e:	xor    ecx,ebp
  406a90:	pop    ebx
  406a91:	call   0x409090
  406a96:	mov    esp,ebp
  406a98:	pop    ebp
  406a99:	ret    
  406a9a:	int3   
  406a9b:	int3   
  406a9c:	int3   
  406a9d:	int3   
  406a9e:	int3   
  406a9f:	mov    eax,ds:0x40a370
  406aa4:	test   eax,eax
  406aa6:	je     0x406ab6
  406aa8:	push   eax
  406aa9:	call   DWORD PTR ds:0x40b0c0
  406aaf:	and    DWORD PTR ds:0x40a370,0x0
  406ab6:	mov    eax,ds:0x40a374
  406abb:	test   eax,eax
  406abd:	je     0x406acd
  406abf:	push   eax
  406ac0:	call   DWORD PTR ds:0x40b0c0
  406ac6:	and    DWORD PTR ds:0x40a374,0x0
  406acd:	push   0x40a378
  406ad2:	call   DWORD PTR ds:0x40b0e8
  406ad8:	ret    
  406ad9:	int3   
  406ada:	int3   
  406adb:	int3   
  406adc:	int3   
  406add:	int3   
  406ade:	int3   
  406adf:	int3   
  406ae0:	mov    edi,edi
  406ae2:	push   ebp
  406ae3:	mov    ebp,esp
  406ae5:	push   esi
  406ae6:	push   edi
  406ae7:	mov    edi,DWORD PTR [ebp+0xc]
  406aea:	xor    esi,esi
  406aec:	inc    esi
  406aed:	push   esi
  406aee:	push   0xffffffff
  406af0:	push   DWORD PTR [edi+0xc]
  406af3:	push   0xffffffff
  406af5:	push   DWORD PTR [ebp+0x8]
  406af8:	call   DWORD PTR ds:0x40b0d4
  406afe:	cmp    eax,0x2
  406b01:	jne    0x406b1c
  406b03:	push   DWORD PTR [ebp+0x8]
  406b06:	mov    edx,DWORD PTR [edi+0x8]
  406b09:	xor    esi,esi
  406b0b:	mov    ecx,DWORD PTR [edi+0x4]
  406b0e:	call   0x40551b
  406b13:	xor    ecx,ecx
  406b15:	test   eax,eax
  406b17:	setns  cl
  406b1a:	mov    DWORD PTR [edi],ecx
  406b1c:	pop    edi
  406b1d:	mov    eax,esi
  406b1f:	pop    esi
  406b20:	pop    ebp
  406b21:	ret    0x8
  406b24:	int3   
  406b25:	int3   
  406b26:	int3   
  406b27:	int3   
  406b28:	int3   
  406b29:	mov    edi,edi
  406b2b:	push   ebp
  406b2c:	mov    ebp,esp
  406b2e:	sub    esp,0x368
  406b34:	mov    eax,ds:0x40a004
  406b39:	xor    eax,ebp
  406b3b:	mov    DWORD PTR [ebp-0x8],eax
  406b3e:	push   ebx
  406b3f:	push   esi
  406b40:	push   edi
  406b41:	mov    edi,DWORD PTR [ebp+0x8]
  406b44:	lea    eax,[ebp-0x18]
  406b47:	push   eax
  406b48:	mov    ebx,edx
  406b4a:	mov    esi,ecx
  406b4c:	call   DWORD PTR ds:0x40b0fc
  406b52:	lea    eax,[ebp-0x134]
  406b58:	mov    ecx,esi
  406b5a:	push   eax
  406b5b:	lea    edx,[ebp-0x18]
  406b5e:	call   0x405684
  406b63:	mov    ecx,eax
  406b65:	test   ecx,ecx
  406b67:	js     0x406ba8
  406b69:	lea    edx,[ebp-0x364]
  406b6f:	lea    ecx,[ebp-0x134]
  406b75:	call   0x40586a
  406b7a:	mov    ecx,eax
  406b7c:	test   ecx,ecx
  406b7e:	js     0x406ba8
  406b80:	xor    eax,eax
  406b82:	cmp    WORD PTR [ebp-0x146],ax
  406b89:	setne  al
  406b8c:	test   ebx,ebx
  406b8e:	je     0x406b92
  406b90:	mov    DWORD PTR [ebx],eax
  406b92:	test   edi,edi
  406b94:	je     0x406ba8
  406b96:	test   eax,eax
  406b98:	jne    0x406ba3
  406b9a:	cmp    WORD PTR [ebp-0x25a],ax
  406ba1:	je     0x406ba6
  406ba3:	xor    eax,eax
  406ba5:	inc    eax
  406ba6:	mov    DWORD PTR [edi],eax
  406ba8:	mov    eax,ecx
  406baa:	mov    ecx,DWORD PTR [ebp-0x8]
  406bad:	pop    edi
  406bae:	pop    esi
  406baf:	xor    ecx,ebp
  406bb1:	pop    ebx
  406bb2:	call   0x409090
  406bb7:	mov    esp,ebp
  406bb9:	pop    ebp
  406bba:	ret    0x4
  406bbd:	int3   
  406bbe:	int3   
  406bbf:	int3   
  406bc0:	int3   
  406bc1:	int3   
  406bc2:	mov    edi,edi
  406bc4:	push   ebx
  406bc5:	push   esi
  406bc6:	lea    eax,[ecx-0x1]
  406bc9:	xor    esi,esi
  406bcb:	mov    ebx,edx
  406bcd:	cmp    eax,0xb
  406bd0:	ja     0x406c0f
  406bd2:	test   bl,0x3
  406bd5:	jne    0x406c01
  406bd7:	push   0x64
  406bd9:	xor    edx,edx
  406bdb:	mov    eax,ebx
  406bdd:	pop    esi
  406bde:	div    esi
  406be0:	test   edx,edx
  406be2:	jne    0x406bf1
  406be4:	mov    eax,ebx
  406be6:	mov    esi,0x190
  406beb:	div    esi
  406bed:	test   edx,edx
  406bef:	jne    0x406c01
  406bf1:	mov    esi,DWORD PTR [ecx*4+0x4013a0]
  406bf8:	sub    esi,DWORD PTR [ecx*4+0x40139c]
  406bff:	jmp    0x406c0f
  406c01:	mov    esi,DWORD PTR [ecx*4+0x4013d4]
  406c08:	sub    esi,DWORD PTR [ecx*4+0x4013d0]
  406c0f:	mov    eax,esi
  406c11:	pop    esi
  406c12:	pop    ebx
  406c13:	ret    
  406c14:	int3   
  406c15:	int3   
  406c16:	int3   
  406c17:	int3   
  406c18:	int3   
  406c19:	mov    edi,edi
  406c1b:	push   ebp
  406c1c:	mov    ebp,esp
  406c1e:	sub    esp,0x48
  406c21:	mov    eax,ds:0x40a004
  406c26:	xor    eax,ebp
  406c28:	mov    DWORD PTR [ebp-0x8],eax
  406c2b:	push   ebx
  406c2c:	mov    ebx,DWORD PTR [ebp+0x8]
  406c2f:	xor    eax,eax
  406c31:	push   esi
  406c32:	push   edi
  406c33:	mov    DWORD PTR [ebp-0x34],edx
  406c36:	mov    DWORD PTR [ebp-0x38],ecx
  406c39:	mov    DWORD PTR [ebp-0x2c],eax
  406c3c:	cmp    WORD PTR [edx],ax
  406c3f:	jbe    0x406c48
  406c41:	push   ebx
  406c42:	push   edx
  406c43:	jmp    0x406d18
  406c48:	lea    eax,[ecx-0x641]
  406c4e:	mov    esi,0x20ce
  406c53:	cmp    ax,si
  406c56:	ja     0x406d62
  406c5c:	movzx  esi,WORD PTR [edx+0x2]
  406c60:	movzx  edx,cx
  406c63:	mov    ecx,esi
  406c65:	call   0x406bc2
  406c6a:	mov    edx,eax
  406c6c:	mov    ecx,DWORD PTR [ebp-0x38]
  406c6f:	xor    eax,eax
  406c71:	mov    DWORD PTR [ebp-0x30],edx
  406c74:	lea    edi,[ebp-0x26]
  406c77:	stos   DWORD PTR es:[edi],eax
  406c78:	stos   DWORD PTR es:[edi],eax
  406c79:	stos   DWORD PTR es:[edi],eax
  406c7a:	stos   WORD PTR es:[edi],ax
  406c7c:	xor    eax,eax
  406c7e:	inc    eax
  406c7f:	mov    WORD PTR [ebp-0x28],cx
  406c83:	mov    WORD PTR [ebp-0x22],ax
  406c87:	lea    eax,[edx-0x1]
  406c8a:	mov    WORD PTR [ebp-0x26],si
  406c8e:	cmp    eax,0x1e
  406c91:	ja     0x406d62
  406c97:	lea    eax,[ebp-0x44]
  406c9a:	push   eax
  406c9b:	lea    eax,[ebp-0x28]
  406c9e:	push   eax
  406c9f:	call   DWORD PTR ds:0x40b120
  406ca5:	test   eax,eax
  406ca7:	je     0x406d62
  406cad:	lea    eax,[ebp-0x18]
  406cb0:	push   eax
  406cb1:	lea    eax,[ebp-0x44]
  406cb4:	push   eax
  406cb5:	call   DWORD PTR ds:0x40b11c
  406cbb:	test   eax,eax
  406cbd:	je     0x406d62
  406cc3:	mov    esi,DWORD PTR [ebp-0x34]
  406cc6:	movzx  ecx,WORD PTR [ebp-0x14]
  406cca:	push   0x7
  406ccc:	movzx  eax,WORD PTR [esi+0x4]
  406cd0:	sub    eax,ecx
  406cd2:	pop    ecx
  406cd3:	add    eax,ecx
  406cd5:	cdq    
  406cd6:	idiv   ecx
  406cd8:	inc    edx
  406cd9:	movzx  eax,dx
  406cdc:	movzx  edx,WORD PTR [esi+0x6]
  406ce0:	mov    DWORD PTR [ebp-0x34],eax
  406ce3:	cmp    edx,0x5
  406ce6:	jne    0x406cf8
  406ce8:	mov    ecx,DWORD PTR [ebp-0x30]
  406ceb:	add    ecx,0xffffffe4
  406cee:	movzx  eax,ax
  406cf1:	cmp    eax,ecx
  406cf3:	jbe    0x406cf8
  406cf5:	push   0x4
  406cf7:	pop    edx
  406cf8:	mov    eax,DWORD PTR [ebp-0x38]
  406cfb:	lea    edi,[ebp-0x18]
  406cfe:	movs   DWORD PTR es:[edi],DWORD PTR ds:[esi]
  406cff:	push   ebx
  406d00:	movs   DWORD PTR es:[edi],DWORD PTR ds:[esi]
  406d01:	movs   DWORD PTR es:[edi],DWORD PTR ds:[esi]
  406d02:	movs   DWORD PTR es:[edi],DWORD PTR ds:[esi]
  406d03:	mov    WORD PTR [ebp-0x18],ax
  406d07:	lea    eax,[edx-0x1]
  406d0a:	imul   eax,eax,0x7
  406d0d:	add    eax,DWORD PTR [ebp-0x34]
  406d10:	mov    WORD PTR [ebp-0x12],ax
  406d14:	lea    eax,[ebp-0x18]
  406d17:	push   eax
  406d18:	call   DWORD PTR ds:0x40b120
  406d1e:	mov    esi,eax
  406d20:	test   esi,esi
  406d22:	je     0x406d65
  406d24:	mov    eax,DWORD PTR [ebx+0x4]
  406d27:	mov    edi,DWORD PTR [ebx]
  406d29:	push   0x0
  406d2b:	push   0x2710
  406d30:	push   eax
  406d31:	push   edi
  406d32:	call   0x409740
  406d37:	push   0x0
  406d39:	push   0x3e8
  406d3e:	push   edx
  406d3f:	push   eax
  406d40:	call   0x4097b0
  406d45:	cmp    eax,0x3e7
  406d4a:	jne    0x406d65
  406d4c:	test   edx,edx
  406d4e:	jne    0x406d65
  406d50:	mov    eax,DWORD PTR [ebx+0x4]
  406d53:	add    edi,0x2710
  406d59:	mov    DWORD PTR [ebx],edi
  406d5b:	adc    eax,edx
  406d5d:	mov    DWORD PTR [ebx+0x4],eax
  406d60:	jmp    0x406d65
  406d62:	mov    esi,DWORD PTR [ebp-0x2c]
  406d65:	mov    ecx,DWORD PTR [ebp-0x8]
  406d68:	mov    eax,esi
  406d6a:	pop    edi
  406d6b:	pop    esi
  406d6c:	xor    ecx,ebp
  406d6e:	pop    ebx
  406d6f:	call   0x409090
  406d74:	mov    esp,ebp
  406d76:	pop    ebp
  406d77:	ret    0x4
  406d7a:	int3   
  406d7b:	int3   
  406d7c:	int3   
  406d7d:	int3   
  406d7e:	int3   
  406d7f:	mov    edi,edi
  406d81:	push   ebp
  406d82:	mov    ebp,esp
  406d84:	and    esp,0xfffffff8
  406d87:	sub    esp,0x4c
  406d8a:	mov    eax,ds:0x40a004
  406d8f:	xor    eax,esp
  406d91:	mov    DWORD PTR [esp+0x48],eax
  406d95:	push   ebx
  406d96:	push   esi
  406d97:	push   edi
  406d98:	mov    edi,edx
  406d9a:	mov    esi,ecx
  406d9c:	mov    edx,DWORD PTR [ebp+0x8]
  406d9f:	xor    ebx,ebx
  406da1:	mov    DWORD PTR [esp+0x14],edi
  406da5:	xor    ecx,ecx
  406da7:	mov    DWORD PTR [esp+0x10],edx
  406dab:	mov    eax,DWORD PTR [esi+ecx*4+0x18]
  406daf:	cmp    eax,DWORD PTR [esi+ecx*4+0x28]
  406db3:	jne    0x406e28
  406db5:	inc    ecx
  406db6:	cmp    ecx,0x4
  406db9:	jne    0x406dab
  406dbb:	push   0x6
  406dbd:	xor    eax,eax
  406dbf:	pop    ecx
  406dc0:	rep stos DWORD PTR es:[edi],eax
  406dc2:	mov    ecx,DWORD PTR [esp+0x14]
  406dc6:	mov    eax,DWORD PTR [esi+0xc]
  406dc9:	mov    DWORD PTR [ecx+0x14],eax
  406dcc:	test   edx,edx
  406dce:	je     0x406ee1
  406dd4:	xor    eax,eax
  406dd6:	mov    edi,edx
  406dd8:	mov    ecx,esi
  406dda:	stos   DWORD PTR es:[edi],eax
  406ddb:	stos   DWORD PTR es:[edi],eax
  406ddc:	stos   DWORD PTR es:[edi],eax
  406ddd:	stos   DWORD PTR es:[edi],eax
  406dde:	mov    eax,DWORD PTR [esi+0x10]
  406de1:	add    eax,DWORD PTR [esi+0xc]
  406de4:	mov    DWORD PTR [edx],eax
  406de6:	call   0x407501
  406deb:	test   eax,eax
  406ded:	je     0x406e19
  406def:	lea    edx,[esp+0x18]
  406df3:	call   0x40755e
  406df8:	mov    ebx,eax
  406dfa:	test   ebx,ebx
  406dfc:	js     0x406ee1
  406e02:	mov    edx,DWORD PTR [esp+0x10]
  406e06:	lea    ecx,[esp+0x18]
  406e0a:	lea    edx,[edx+0xc]
  406e0d:	call   0x406efc
  406e12:	mov    ebx,eax
  406e14:	jmp    0x406ee1
  406e19:	mov    ecx,DWORD PTR [esp+0x10]
  406e1d:	mov    eax,DWORD PTR [esi+0xc]
  406e20:	mov    DWORD PTR [ecx+0xc],eax
  406e23:	jmp    0x406ee1
  406e28:	mov    cx,WORD PTR [esi]
  406e2b:	lea    edx,[esi+0x18]
  406e2e:	push   edi
  406e2f:	mov    ebx,0x80040203
  406e34:	call   0x406c19
  406e39:	test   eax,eax
  406e3b:	je     0x406ee1
  406e41:	mov    cx,WORD PTR [esi]
  406e44:	lea    eax,[edi+0x8]
  406e47:	push   eax
  406e48:	lea    edx,[esi+0x28]
  406e4b:	call   0x406c19
  406e50:	test   eax,eax
  406e52:	je     0x406ee1
  406e58:	mov    eax,DWORD PTR [edi+0x4]
  406e5b:	xor    ebx,ebx
  406e5d:	cmp    eax,DWORD PTR [edi+0xc]
  406e60:	jb     0x406e70
  406e62:	ja     0x406e6b
  406e64:	mov    eax,DWORD PTR [edi]
  406e66:	cmp    eax,DWORD PTR [edi+0x8]
  406e69:	jbe    0x406e70
  406e6b:	xor    eax,eax
  406e6d:	inc    eax
  406e6e:	jmp    0x406e72
  406e70:	xor    eax,eax
  406e72:	mov    DWORD PTR [edi+0x10],eax
  406e75:	test   eax,eax
  406e77:	je     0x406e7e
  406e79:	mov    eax,DWORD PTR [esi+0x10]
  406e7c:	jmp    0x406e81
  406e7e:	mov    eax,DWORD PTR [esi+0x14]
  406e81:	add    eax,DWORD PTR [esi+0xc]
  406e84:	mov    ecx,DWORD PTR [esp+0x10]
  406e88:	mov    DWORD PTR [edi+0x14],eax
  406e8b:	test   ecx,ecx
  406e8d:	je     0x406ee1
  406e8f:	mov    eax,DWORD PTR [esi+0x10]
  406e92:	add    eax,DWORD PTR [esi+0xc]
  406e95:	mov    DWORD PTR [ecx],eax
  406e97:	mov    eax,DWORD PTR [esi+0x14]
  406e9a:	add    eax,DWORD PTR [esi+0xc]
  406e9d:	mov    edx,DWORD PTR [ecx]
  406e9f:	mov    DWORD PTR [ecx+0x4],eax
  406ea2:	lea    eax,[ecx+0x8]
  406ea5:	cmp    DWORD PTR [edi+0x10],ebx
  406ea8:	je     0x406eba
  406eaa:	push   eax
  406eab:	mov    ecx,esi
  406ead:	call   0x406f38
  406eb2:	mov    ecx,DWORD PTR [esp+0x10]
  406eb6:	mov    ebx,eax
  406eb8:	jmp    0x406ebe
  406eba:	mov    DWORD PTR [eax],edx
  406ebc:	xor    ebx,ebx
  406ebe:	test   ebx,ebx
  406ec0:	js     0x406ee1
  406ec2:	cmp    DWORD PTR [edi+0x10],0x0
  406ec6:	lea    eax,[ecx+0xc]
  406ec9:	mov    ecx,DWORD PTR [ecx+0x4]
  406ecc:	jne    0x406edd
  406ece:	mov    edx,ecx
  406ed0:	mov    ecx,esi
  406ed2:	push   eax
  406ed3:	call   0x406f38
  406ed8:	jmp    0x406e12
  406edd:	mov    DWORD PTR [eax],ecx
  406edf:	xor    ebx,ebx
  406ee1:	mov    ecx,DWORD PTR [esp+0x54]
  406ee5:	mov    eax,ebx
  406ee7:	pop    edi
  406ee8:	pop    esi
  406ee9:	pop    ebx
  406eea:	xor    ecx,esp
  406eec:	call   0x409090
  406ef1:	mov    esp,ebp
  406ef3:	pop    ebp
  406ef4:	ret    0x4
  406ef7:	int3   
  406ef8:	int3   
  406ef9:	int3   
  406efa:	int3   
  406efb:	int3   
  406efc:	mov    edi,edi
  406efe:	push   ebp
  406eff:	mov    ebp,esp
  406f01:	sub    esp,0x24
  406f04:	mov    eax,ds:0x40a004
  406f09:	xor    eax,ebp
  406f0b:	mov    DWORD PTR [ebp-0x4],eax
  406f0e:	push   esi
  406f0f:	mov    esi,edx
  406f11:	lea    edx,[ebp-0x20]
  406f14:	push   0x0
  406f16:	call   0x406d7f
  406f1b:	test   eax,eax
  406f1d:	js     0x406f24
  406f1f:	mov    ecx,DWORD PTR [ebp-0xc]
  406f22:	mov    DWORD PTR [esi],ecx
  406f24:	mov    ecx,DWORD PTR [ebp-0x4]
  406f27:	xor    ecx,ebp
  406f29:	pop    esi
  406f2a:	call   0x409090
  406f2f:	mov    esp,ebp
  406f31:	pop    ebp
  406f32:	ret    
  406f33:	int3   
  406f34:	int3   
  406f35:	int3   
  406f36:	int3   
  406f37:	int3   
  406f38:	mov    edi,edi
  406f3a:	push   ebp
  406f3b:	mov    ebp,esp
  406f3d:	sub    esp,0x44
  406f40:	mov    eax,ds:0x40a004
  406f45:	xor    eax,ebp
  406f47:	mov    DWORD PTR [ebp-0x4],eax
  406f4a:	push   ebx
  406f4b:	push   esi
  406f4c:	push   edi
  406f4d:	mov    edi,DWORD PTR [ebp+0x8]
  406f50:	mov    ebx,edx
  406f52:	mov    DWORD PTR [ebp-0x44],ecx
  406f55:	xor    esi,esi
  406f57:	call   0x407501
  406f5c:	test   eax,eax
  406f5e:	je     0x406f87
  406f60:	lea    edx,[ebp-0x40]
  406f63:	call   0x40755e
  406f68:	mov    esi,eax
  406f6a:	test   esi,esi
  406f6c:	js     0x406f89
  406f6e:	mov    ecx,DWORD PTR [ebp-0x44]
  406f71:	mov    ecx,DWORD PTR [ecx+0xc]
  406f74:	cmp    ecx,DWORD PTR [ebp-0x34]
  406f77:	jne    0x406f87
  406f79:	mov    edx,edi
  406f7b:	lea    ecx,[ebp-0x40]
  406f7e:	call   0x406efc
  406f83:	mov    esi,eax
  406f85:	jmp    0x406f89
  406f87:	mov    DWORD PTR [edi],ebx
  406f89:	mov    ecx,DWORD PTR [ebp-0x4]
  406f8c:	mov    eax,esi
  406f8e:	pop    edi
  406f8f:	pop    esi
  406f90:	xor    ecx,ebp
  406f92:	pop    ebx
  406f93:	call   0x409090
  406f98:	mov    esp,ebp
  406f9a:	pop    ebp
  406f9b:	ret    0x4
  406f9e:	int3   
  406f9f:	int3   
  406fa0:	int3   
  406fa1:	int3   
  406fa2:	int3   
  406fa3:	mov    edi,edi
  406fa5:	push   ebp
  406fa6:	mov    ebp,esp
  406fa8:	push   ebx
  406fa9:	push   esi
  406faa:	push   edi
  406fab:	mov    edi,DWORD PTR [ebp+0x8]
  406fae:	xor    esi,esi
  406fb0:	mov    ebx,ecx
  406fb2:	mov    ecx,DWORD PTR [edx]
  406fb4:	mov    eax,DWORD PTR [edi+0x4]
  406fb7:	cmp    DWORD PTR [edx+0x4],eax
  406fba:	ja     0x406fc9
  406fbc:	jb     0x406fc2
  406fbe:	cmp    ecx,DWORD PTR [edi]
  406fc0:	ja     0x406fc9
  406fc2:	mov    eax,ecx
  406fc4:	mov    ecx,DWORD PTR [edx+0x4]
  406fc7:	jmp    0x406fce
  406fc9:	mov    eax,DWORD PTR [edi]
  406fcb:	mov    ecx,DWORD PTR [edi+0x4]
  406fce:	cmp    ecx,DWORD PTR [ebx+0x4]
  406fd1:	ja     0x40700e
  406fd3:	jb     0x406fd9
  406fd5:	cmp    eax,DWORD PTR [ebx]
  406fd7:	ja     0x40700e
  406fd9:	cmp    DWORD PTR [ebp+0xc],esi
  406fdc:	je     0x40700b
  406fde:	mov    ecx,DWORD PTR [ebp+0x14]
  406fe1:	mov    edx,DWORD PTR [ebp+0x10]
  406fe4:	mov    eax,DWORD PTR [ecx+0x4]
  406fe7:	mov    edi,DWORD PTR [edx]
  406fe9:	cmp    DWORD PTR [edx+0x4],eax
  406fec:	ja     0x406ffb
  406fee:	jb     0x406ff4
  406ff0:	cmp    edi,DWORD PTR [ecx]
  406ff2:	ja     0x406ffb
  406ff4:	mov    ecx,DWORD PTR [edx+0x4]
  406ff7:	mov    eax,edi
  406ff9:	jmp    0x407000
  406ffb:	mov    eax,DWORD PTR [ecx]
  406ffd:	mov    ecx,DWORD PTR [ecx+0x4]
  407000:	cmp    ecx,DWORD PTR [ebx+0x4]
  407003:	jb     0x40700e
  407005:	ja     0x40700b
  407007:	cmp    eax,DWORD PTR [ebx]
  407009:	jbe    0x40700e
  40700b:	xor    esi,esi
  40700d:	inc    esi
  40700e:	pop    edi
  40700f:	mov    eax,esi
  407011:	pop    esi
  407012:	pop    ebx
  407013:	pop    ebp
  407014:	ret    0x10
  407017:	int3   
  407018:	int3   
  407019:	int3   
  40701a:	int3   
  40701b:	int3   
  40701c:	mov    edi,edi
  40701e:	push   ebp
  40701f:	mov    ebp,esp
  407021:	mov    eax,DWORD PTR [ebp+0x8]
  407024:	push   ebx
  407025:	mov    ebx,DWORD PTR [edx+0x4]
  407028:	push   esi
  407029:	push   edi
  40702a:	mov    edi,DWORD PTR [edx]
  40702c:	xor    esi,esi
  40702e:	mov    edx,DWORD PTR [eax]
  407030:	mov    eax,DWORD PTR [eax+0x4]
  407033:	cmp    ebx,eax
  407035:	jb     0x407061
  407037:	ja     0x40703d
  407039:	cmp    edi,edx
  40703b:	jbe    0x407057
  40703d:	cmp    eax,DWORD PTR [ecx+0x4]
  407040:	jb     0x407057
  407042:	ja     0x407048
  407044:	cmp    edx,DWORD PTR [ecx]
  407046:	jb     0x407057
  407048:	mov    ecx,DWORD PTR [ebp+0x18]
  40704b:	mov    esi,0x40201
  407050:	mov    eax,DWORD PTR [ebp+0x14]
  407053:	mov    DWORD PTR [ecx],eax
  407055:	jmp    0x40708f
  407057:	cmp    ebx,eax
  407059:	ja     0x407087
  40705b:	jb     0x407061
  40705d:	cmp    edi,edx
  40705f:	ja     0x407087
  407061:	cmp    DWORD PTR [ecx+0x4],eax
  407064:	jb     0x407087
  407066:	ja     0x40706c
  407068:	cmp    DWORD PTR [ecx],edx
  40706a:	jbe    0x407087
  40706c:	mov    ecx,DWORD PTR [ebp+0x18]
  40706f:	mov    eax,DWORD PTR [ebp+0x14]
  407072:	mov    DWORD PTR [ecx],eax
  407074:	mov    ecx,DWORD PTR [ebp+0x20]
  407077:	test   ecx,ecx
  407079:	je     0x407080
  40707b:	mov    eax,DWORD PTR [ebp+0x10]
  40707e:	mov    DWORD PTR [ecx],eax
  407080:	mov    esi,0x40200
  407085:	jmp    0x40708f
  407087:	mov    edx,DWORD PTR [ebp+0x18]
  40708a:	mov    ecx,DWORD PTR [ebp+0x10]
  40708d:	mov    DWORD PTR [edx],ecx
  40708f:	pop    edi
  407090:	mov    eax,esi
  407092:	pop    esi
  407093:	pop    ebx
  407094:	pop    ebp
  407095:	ret    0x1c
  407098:	int3   
  407099:	int3   
  40709a:	int3   
  40709b:	int3   
  40709c:	int3   
  40709d:	mov    edi,edi
  40709f:	push   ebp
  4070a0:	mov    ebp,esp
  4070a2:	push   ecx
  4070a3:	lea    eax,[ebp-0x4]
  4070a6:	mov    DWORD PTR [ebp-0x4],0x2c
  4070ad:	push   eax
  4070ae:	push   DWORD PTR [ebp+0x8]
  4070b1:	push   0x0
  4070b3:	push   0x0
  4070b5:	push   edx
  4070b6:	push   ecx
  4070b7:	call   DWORD PTR ds:0x40b0c4
  4070bd:	neg    eax
  4070bf:	sbb    eax,eax
  4070c1:	and    eax,0x80040203
  4070c6:	mov    esp,ebp
  4070c8:	pop    ebp
  4070c9:	ret    0x4
  4070cc:	int3   
  4070cd:	int3   
  4070ce:	int3   
  4070cf:	int3   
  4070d0:	int3   
  4070d1:	mov    edi,edi
  4070d3:	push   ebp
  4070d4:	mov    ebp,esp
  4070d6:	sub    esp,0x10
  4070d9:	mov    eax,ds:0x40a004
  4070de:	xor    eax,ebp
  4070e0:	mov    DWORD PTR [ebp-0x4],eax
  4070e3:	push   ebx
  4070e4:	mov    ebx,DWORD PTR [ebp+0x8]
  4070e7:	lea    eax,[ebp-0x10]
  4070ea:	push   esi
  4070eb:	push   edi
  4070ec:	push   0xa
  4070ee:	push   0x5
  4070f0:	push   eax
  4070f1:	movzx  eax,dx
  4070f4:	mov    edi,ecx
  4070f6:	push   eax
  4070f7:	mov    esi,0x80004005
  4070fc:	call   DWORD PTR ds:0x40b16c
  407102:	add    esp,0x10
  407105:	test   eax,eax
  407107:	jne    0x407116
  407109:	push   ebx
  40710a:	lea    edx,[ebp-0x10]
  40710d:	mov    ecx,edi
  40710f:	call   0x40709d
  407114:	mov    esi,eax
  407116:	mov    ecx,DWORD PTR [ebp-0x4]
  407119:	mov    eax,esi
  40711b:	pop    edi
  40711c:	pop    esi
  40711d:	xor    ecx,ebp
  40711f:	pop    ebx
  407120:	call   0x409090
  407125:	mov    esp,ebp
  407127:	pop    ebp
  407128:	ret    0x4
  40712b:	int3   
  40712c:	int3   
  40712d:	int3   
  40712e:	int3   
  40712f:	int3   
  407130:	mov    edi,edi
  407132:	push   ebp
  407133:	mov    ebp,esp
  407135:	push   ecx
  407136:	lea    eax,[ebp-0x4]
  407139:	push   eax
  40713a:	push   0x20019
  40713f:	push   0x0
  407141:	push   0x401354
  407146:	push   ecx
  407147:	call   DWORD PTR ds:0x40b0bc
  40714d:	neg    eax
  40714f:	sbb    eax,eax
  407151:	not    eax
  407153:	and    eax,DWORD PTR [ebp-0x4]
  407156:	mov    esp,ebp
  407158:	pop    ebp
  407159:	ret    
  40715a:	int3   
  40715b:	int3   
  40715c:	int3   
  40715d:	int3   
  40715e:	int3   
  40715f:	mov    edi,edi
  407161:	push   ebp
  407162:	mov    ebp,esp
  407164:	sub    esp,0xac
  40716a:	mov    eax,ds:0x40a004
  40716f:	xor    eax,ebp
  407171:	mov    DWORD PTR [ebp-0x4],eax
  407174:	mov    eax,DWORD PTR [ebp+0x14]
  407177:	push   ebx
  407178:	push   esi
  407179:	mov    DWORD PTR [ebp-0x70],edx
  40717c:	xor    esi,esi
  40717e:	mov    edx,DWORD PTR [ebp+0xc]
  407181:	mov    ebx,ecx
  407183:	push   edi
  407184:	mov    DWORD PTR [ebp-0x6c],edx
  407187:	mov    ecx,esi
  407189:	mov    DWORD PTR [ebp-0x8c],eax
  40718f:	mov    eax,DWORD PTR [ebx+ecx*4+0x18]
  407193:	cmp    eax,DWORD PTR [ebx+ecx*4+0x28]
  407197:	jne    0x4071ac
  407199:	inc    ecx
  40719a:	cmp    ecx,0x4
  40719d:	jne    0x40718f
  40719f:	mov    eax,DWORD PTR [ebx+0x10]
  4071a2:	add    eax,DWORD PTR [ebx+0xc]
  4071a5:	mov    DWORD PTR [edx],eax
  4071a7:	jmp    0x407336
  4071ac:	xor    eax,eax
  4071ae:	mov    DWORD PTR [ebp-0x20],esi
  4071b1:	lea    edi,[ebp-0x1c]
  4071b4:	mov    DWORD PTR [ebp-0x88],esi
  4071ba:	stos   DWORD PTR es:[edi],eax
  4071bb:	lea    edx,[ebp-0x20]
  4071be:	mov    ecx,ebx
  4071c0:	mov    DWORD PTR [ebp-0x84],esi
  4071c6:	mov    DWORD PTR [ebp-0x80],esi
  4071c9:	mov    DWORD PTR [ebp-0x7c],esi
  4071cc:	stos   DWORD PTR es:[edi],eax
  4071cd:	stos   DWORD PTR es:[edi],eax
  4071ce:	stos   DWORD PTR es:[edi],eax
  4071cf:	stos   DWORD PTR es:[edi],eax
  4071d0:	lea    eax,[ebp-0x88]
  4071d6:	push   eax
  4071d7:	call   0x406d7f
  4071dc:	mov    esi,eax
  4071de:	test   esi,esi
  4071e0:	js     0x407336
  4071e6:	lea    eax,[ebp-0xa0]
  4071ec:	push   eax
  4071ed:	push   DWORD PTR [ebp-0x70]
  4071f0:	call   DWORD PTR ds:0x40b120
  4071f6:	mov    ecx,DWORD PTR [ebp-0x80]
  4071f9:	mov    edi,DWORD PTR [ebp-0x84]
  4071ff:	sub    ecx,edi
  407201:	imul   eax,ecx,0x3c
  407204:	mov    ecx,0x989680
  407209:	imul   ecx
  40720b:	add    eax,DWORD PTR [ebp-0x18]
  40720e:	mov    ecx,edx
  407210:	mov    DWORD PTR [ebp-0x70],eax
  407213:	adc    ecx,DWORD PTR [ebp-0x14]
  407216:	mov    DWORD PTR [ebp-0x68],eax
  407219:	mov    eax,DWORD PTR [ebp-0x7c]
  40721c:	sub    eax,DWORD PTR [ebp-0x88]
  407222:	imul   eax,eax,0x3c
  407225:	mov    DWORD PTR [ebp-0x90],ecx
  40722b:	mov    DWORD PTR [ebp-0x64],ecx
  40722e:	mov    ecx,0x989680
  407233:	imul   ecx
  407235:	add    eax,DWORD PTR [ebp-0x20]
  407238:	mov    ecx,edx
  40723a:	mov    DWORD PTR [ebp-0x74],eax
  40723d:	lea    edx,[ebp-0x18]
  407240:	adc    ecx,DWORD PTR [ebp-0x1c]
  407243:	mov    DWORD PTR [ebp-0xa8],eax
  407249:	lea    eax,[ebp-0xa8]
  40724f:	push   eax
  407250:	lea    eax,[ebp-0x20]
  407253:	mov    DWORD PTR [ebp-0x94],ecx
  407259:	push   eax
  40725a:	push   DWORD PTR [ebp-0x10]
  40725d:	lea    eax,[ebp-0x68]
  407260:	mov    DWORD PTR [ebp-0xa4],ecx
  407266:	push   eax
  407267:	lea    ecx,[ebp-0xa0]
  40726d:	call   0x406fa3
  407272:	test   eax,eax
  407274:	je     0x407296
  407276:	mov    eax,DWORD PTR [ebp-0x18]
  407279:	mov    DWORD PTR [ebp-0x68],eax
  40727c:	mov    eax,DWORD PTR [ebp-0x14]
  40727f:	mov    DWORD PTR [ebp-0x64],eax
  407282:	mov    eax,DWORD PTR [ebp-0x70]
  407285:	mov    DWORD PTR [ebp-0x78],eax
  407288:	mov    eax,DWORD PTR [ebp-0x90]
  40728e:	mov    DWORD PTR [ebp-0x74],eax
  407291:	mov    eax,DWORD PTR [ebp-0x80]
  407294:	jmp    0x4072e4
  407296:	lea    eax,[ebp-0x68]
  407299:	push   eax
  40729a:	lea    eax,[ebp-0x18]
  40729d:	push   eax
  40729e:	xor    eax,eax
  4072a0:	lea    edx,[ebp-0x20]
  4072a3:	cmp    DWORD PTR [ebp-0x10],eax
  4072a6:	lea    ecx,[ebp-0xa0]
  4072ac:	sete   al
  4072af:	push   eax
  4072b0:	lea    eax,[ebp-0xa8]
  4072b6:	push   eax
  4072b7:	call   0x406fa3
  4072bc:	test   eax,eax
  4072be:	je     0x407306
  4072c0:	mov    eax,DWORD PTR [ebp-0x20]
  4072c3:	mov    edi,DWORD PTR [ebp-0x88]
  4072c9:	mov    DWORD PTR [ebp-0x68],eax
  4072cc:	mov    eax,DWORD PTR [ebp-0x1c]
  4072cf:	mov    DWORD PTR [ebp-0x64],eax
  4072d2:	mov    eax,DWORD PTR [ebp-0x74]
  4072d5:	mov    DWORD PTR [ebp-0x78],eax
  4072d8:	mov    eax,DWORD PTR [ebp-0x94]
  4072de:	mov    DWORD PTR [ebp-0x74],eax
  4072e1:	mov    eax,DWORD PTR [ebp-0x7c]
  4072e4:	push   DWORD PTR [ebp-0x8c]
  4072ea:	lea    edx,[ebp-0x78]
  4072ed:	push   ecx
  4072ee:	mov    ecx,DWORD PTR [ebp-0x6c]
  4072f1:	push   ecx
  4072f2:	push   eax
  4072f3:	push   edi
  4072f4:	push   ecx
  4072f5:	lea    eax,[ebp-0xa0]
  4072fb:	push   eax
  4072fc:	lea    ecx,[ebp-0x68]
  4072ff:	call   0x40701c
  407304:	jmp    0x40732a
  407306:	mov    ecx,ebx
  407308:	call   0x407501
  40730d:	test   eax,eax
  40730f:	je     0x40732e
  407311:	lea    edx,[ebp-0x5c]
  407314:	call   0x40755e
  407319:	mov    esi,eax
  40731b:	test   esi,esi
  40731d:	js     0x407336
  40731f:	mov    edx,DWORD PTR [ebp-0x6c]
  407322:	lea    ecx,[ebp-0x5c]
  407325:	call   0x406efc
  40732a:	mov    esi,eax
  40732c:	jmp    0x407336
  40732e:	mov    ecx,DWORD PTR [ebp-0x6c]
  407331:	mov    eax,DWORD PTR [ebp-0xc]
  407334:	mov    DWORD PTR [ecx],eax
  407336:	mov    ecx,DWORD PTR [ebp-0x4]
  407339:	mov    eax,esi
  40733b:	pop    edi
  40733c:	pop    esi
  40733d:	xor    ecx,ebp
  40733f:	pop    ebx
  407340:	call   0x409090
  407345:	mov    esp,ebp
  407347:	pop    ebp
  407348:	ret    0x10
  40734b:	int3   
  40734c:	int3   
  40734d:	int3   
  40734e:	int3   
  40734f:	int3   
  407350:	mov    edi,edi
  407352:	push   ebp
  407353:	mov    ebp,esp
  407355:	sub    esp,0x84
  40735b:	mov    eax,ds:0x40a004
  407360:	xor    eax,ebp
  407362:	mov    DWORD PTR [ebp-0x4],eax
  407365:	mov    eax,DWORD PTR [ebp+0xc]
  407368:	and    DWORD PTR [ebp-0x58],0x0
  40736c:	mov    DWORD PTR [ebp-0x70],eax
  40736f:	mov    eax,DWORD PTR [ebp+0x10]
  407372:	mov    DWORD PTR [ebp-0x6c],eax
  407375:	mov    eax,DWORD PTR [ebp+0x14]
  407378:	mov    DWORD PTR [ebp-0x5c],eax
  40737b:	xor    eax,eax
  40737d:	and    DWORD PTR [ebp-0x84],0x0
  407384:	push   ebx
  407385:	push   esi
  407386:	push   edi
  407387:	lea    edi,[ebp-0x54]
  40738a:	mov    ebx,edx
  40738c:	stos   DWORD PTR es:[edi],eax
  40738d:	lea    edx,[ebp-0x58]
  407390:	mov    esi,ecx
  407392:	stos   DWORD PTR es:[edi],eax
  407393:	stos   DWORD PTR es:[edi],eax
  407394:	stos   DWORD PTR es:[edi],eax
  407395:	stos   DWORD PTR es:[edi],eax
  407396:	xor    eax,eax
  407398:	lea    edi,[ebp-0x80]
  40739b:	stos   DWORD PTR es:[edi],eax
  40739c:	stos   DWORD PTR es:[edi],eax
  40739d:	stos   DWORD PTR es:[edi],eax
  40739e:	mov    edi,DWORD PTR [ebp+0x8]
  4073a1:	mov    eax,edi
  4073a3:	and    eax,0x1
  4073a6:	mov    DWORD PTR [ebp-0x64],eax
  4073a9:	mov    eax,edi
  4073ab:	and    eax,0x2
  4073ae:	mov    DWORD PTR [ebp-0x74],eax
  4073b1:	lea    eax,[ebp-0x84]
  4073b7:	push   eax
  4073b8:	call   0x406d7f
  4073bd:	test   eax,eax
  4073bf:	js     0x4074e9
  4073c5:	cmp    DWORD PTR [ebp-0x64],0x0
  4073c9:	je     0x4074ba
  4073cf:	cmp    DWORD PTR [ebp-0x48],0x0
  4073d3:	mov    edx,DWORD PTR [ebp-0x7c]
  4073d6:	jne    0x4073db
  4073d8:	mov    edx,DWORD PTR [ebp-0x78]
  4073db:	mov    cx,WORD PTR [esi]
  4073de:	lea    eax,[ebp-0x68]
  4073e1:	push   eax
  4073e2:	call   0x4075e8
  4073e7:	mov    eax,DWORD PTR [ebp-0x64]
  4073ea:	cmp    eax,DWORD PTR [ebx+0x4]
  4073ed:	ja     0x407492
  4073f3:	jb     0x407400
  4073f5:	mov    eax,DWORD PTR [ebp-0x68]
  4073f8:	cmp    eax,DWORD PTR [ebx]
  4073fa:	ja     0x407492
  407400:	movzx  ecx,WORD PTR [esi]
  407403:	lea    eax,[ebp-0x68]
  407406:	mov    edx,DWORD PTR [ebp-0x44]
  407409:	inc    cx
  40740b:	push   eax
  40740c:	call   0x4075e8
  407411:	mov    eax,DWORD PTR [ebp-0x64]
  407414:	cmp    eax,DWORD PTR [ebx+0x4]
  407417:	ja     0x4074ba
  40741d:	jb     0x40742a
  40741f:	mov    eax,DWORD PTR [ebp-0x68]
  407422:	cmp    eax,DWORD PTR [ebx]
  407424:	ja     0x4074ba
  40742a:	mov    ecx,esi
  40742c:	call   0x407544
  407431:	test   eax,eax
  407433:	je     0x407469
  407435:	lea    edx,[ebp-0x40]
  407438:	call   0x40759e
  40743d:	test   eax,eax
  40743f:	js     0x4074e9
  407445:	cmp    DWORD PTR [ebp-0x74],0x0
  407449:	je     0x407478
  40744b:	xor    eax,eax
  40744d:	lea    edi,[ebp-0x28]
  407450:	stos   DWORD PTR es:[edi],eax
  407451:	stos   DWORD PTR es:[edi],eax
  407452:	stos   DWORD PTR es:[edi],eax
  407453:	stos   DWORD PTR es:[edi],eax
  407454:	xor    eax,eax
  407456:	lea    edi,[ebp-0x18]
  407459:	stos   DWORD PTR es:[edi],eax
  40745a:	stos   DWORD PTR es:[edi],eax
  40745b:	stos   DWORD PTR es:[edi],eax
  40745c:	stos   DWORD PTR es:[edi],eax
  40745d:	and    DWORD PTR [ebp-0x2c],0x0
  407461:	xor    eax,eax
  407463:	mov    WORD PTR [ebp-0x38],ax
  407467:	jmp    0x407475
  407469:	push   0xf
  40746b:	pop    ecx
  40746c:	lea    edi,[ebp-0x40]
  40746f:	rep movs DWORD PTR es:[edi],DWORD PTR ds:[esi]
  407471:	inc    WORD PTR [ebp-0x40]
  407475:	mov    edi,DWORD PTR [ebp+0x8]
  407478:	mov    edx,DWORD PTR [ebp-0x5c]
  40747b:	lea    ecx,[ebp-0x40]
  40747e:	push   edx
  40747f:	push   DWORD PTR [ebp-0x6c]
  407482:	and    edi,0xfffffffe
  407485:	mov    edx,ebx
  407487:	push   DWORD PTR [ebp-0x70]
  40748a:	push   edi
  40748b:	call   0x407350
  407490:	jmp    0x4074e9
  407492:	mov    ecx,esi
  407494:	call   0x407501
  407499:	test   eax,eax
  40749b:	je     0x4074a7
  40749d:	lea    edx,[ebp-0x40]
  4074a0:	call   0x40755e
  4074a5:	jmp    0x40743d
  4074a7:	push   0xf
  4074a9:	pop    ecx
  4074aa:	lea    edi,[ebp-0x40]
  4074ad:	mov    eax,0xffff
  4074b2:	rep movs DWORD PTR es:[edi],DWORD PTR ds:[esi]
  4074b4:	add    WORD PTR [ebp-0x40],ax
  4074b8:	jmp    0x407475
  4074ba:	push   DWORD PTR [ebp-0x6c]
  4074bd:	lea    eax,[ebp-0x84]
  4074c3:	mov    edx,esi
  4074c5:	push   DWORD PTR [ebp-0x70]
  4074c8:	mov    ecx,ebx
  4074ca:	push   eax
  4074cb:	lea    eax,[ebp-0x58]
  4074ce:	push   eax
  4074cf:	call   0x407b29
  4074d4:	test   eax,eax
  4074d6:	js     0x4074e9
  4074d8:	mov    edx,DWORD PTR [ebp-0x5c]
  4074db:	test   edx,edx
  4074dd:	je     0x4074e9
  4074df:	push   0xb
  4074e1:	add    esi,0xc
  4074e4:	mov    edi,edx
  4074e6:	pop    ecx
  4074e7:	rep movs DWORD PTR es:[edi],DWORD PTR ds:[esi]
  4074e9:	mov    ecx,DWORD PTR [ebp-0x4]
  4074ec:	pop    edi
  4074ed:	pop    esi
  4074ee:	xor    ecx,ebp
  4074f0:	pop    ebx
  4074f1:	call   0x409090
  4074f6:	mov    esp,ebp
  4074f8:	pop    ebp
  4074f9:	ret    0x10
  4074fc:	int3   
  4074fd:	int3   
  4074fe:	int3   
  4074ff:	int3   
  407500:	int3   
  407501:	mov    edi,edi
  407503:	push   esi
  407504:	xor    esi,esi
  407506:	inc    esi
  407507:	call   0x40752a
  40750c:	test   eax,eax
  40750e:	je     0x40751f
  407510:	movzx  eax,WORD PTR [ecx+0x8]
  407514:	cmp    ax,WORD PTR [ecx+0x3a]
  407518:	jne    0x407521
  40751a:	cmp    WORD PTR [ecx],ax
  40751d:	jbe    0x407521
  40751f:	xor    esi,esi
  407521:	mov    eax,esi
  407523:	pop    esi
  407524:	ret    
  407525:	int3   
  407526:	int3   
  407527:	int3   
  407528:	int3   
  407529:	int3   
  40752a:	movzx  edx,WORD PTR [ecx+0x8]
  40752e:	xor    eax,eax
  407530:	inc    eax
  407531:	test   dx,dx
  407534:	je     0x40753c
  407536:	cmp    dx,WORD PTR [ecx+0x38]
  40753a:	jne    0x40753e
  40753c:	xor    eax,eax
  40753e:	ret    
  40753f:	int3   
  407540:	int3   
  407541:	int3   
  407542:	int3   
  407543:	int3   
  407544:	movzx  edx,WORD PTR [ecx+0x8]
  407548:	xor    eax,eax
  40754a:	inc    eax
  40754b:	test   dx,dx
  40754e:	je     0x407556
  407550:	cmp    dx,WORD PTR [ecx+0x3a]
  407554:	jne    0x407558
  407556:	xor    eax,eax
  407558:	ret    
  407559:	int3   
  40755a:	int3   
  40755b:	int3   
  40755c:	int3   
  40755d:	int3   
  40755e:	mov    eax,DWORD PTR [ecx+0x4]
  407561:	mov    DWORD PTR [edx+0x4],eax
  407564:	mov    ax,WORD PTR [ecx+0x38]
  407568:	mov    WORD PTR [edx+0x38],ax
  40756c:	mov    ax,WORD PTR [ecx+0x3a]
  407570:	mov    WORD PTR [edx+0x3a],ax
  407574:	mov    ax,WORD PTR [ecx+0x8]
  407578:	dec    ax
  40757a:	mov    WORD PTR [edx+0x8],ax
  40757e:	mov    ax,WORD PTR [ecx]
  407581:	dec    ax
  407583:	mov    WORD PTR [edx],ax
  407586:	lea    eax,[edx+0xc]
  407589:	movzx  edx,WORD PTR [ecx+0x8]
  40758d:	mov    ecx,DWORD PTR [ecx+0x4]
  407590:	dec    dx
  407592:	push   eax
  407593:	call   0x4070d1
  407598:	ret    
  407599:	int3   
  40759a:	int3   
  40759b:	int3   
  40759c:	int3   
  40759d:	int3   
  40759e:	mov    eax,DWORD PTR [ecx+0x4]
  4075a1:	mov    DWORD PTR [edx+0x4],eax
  4075a4:	mov    ax,WORD PTR [ecx+0x38]
  4075a8:	mov    WORD PTR [edx+0x38],ax
  4075ac:	mov    ax,WORD PTR [ecx+0x3a]
  4075b0:	mov    WORD PTR [edx+0x3a],ax
  4075b4:	mov    ax,WORD PTR [ecx+0x8]
  4075b8:	mov    WORD PTR [edx+0x8],ax
  4075bc:	movzx  eax,WORD PTR [ecx+0x8]
  4075c0:	cmp    ax,WORD PTR [ecx]
  4075c3:	ja     0x4075ca
  4075c5:	inc    eax
  4075c6:	mov    WORD PTR [edx+0x8],ax
  4075ca:	mov    ax,WORD PTR [ecx]
  4075cd:	inc    ax
  4075cf:	mov    WORD PTR [edx],ax
  4075d2:	lea    eax,[edx+0xc]
  4075d5:	mov    dx,WORD PTR [edx+0x8]
  4075d9:	mov    ecx,DWORD PTR [ecx+0x4]
  4075dc:	push   eax
  4075dd:	call   0x4070d1
  4075e2:	ret    
  4075e3:	int3   
  4075e4:	int3   
  4075e5:	int3   
  4075e6:	int3   
  4075e7:	int3   
  4075e8:	mov    edi,edi
  4075ea:	push   ebp
  4075eb:	mov    ebp,esp
  4075ed:	sub    esp,0x28
  4075f0:	mov    eax,ds:0x40a004
  4075f5:	xor    eax,ebp
  4075f7:	mov    DWORD PTR [ebp-0x8],eax
  4075fa:	push   ebx
  4075fb:	push   esi
  4075fc:	push   edi
  4075fd:	xor    eax,eax
  4075ff:	mov    ebx,DWORD PTR [ebp+0x8]
  407602:	lea    edi,[ebp-0x16]
  407605:	mov    esi,edx
  407607:	stos   DWORD PTR es:[edi],eax
  407608:	stos   DWORD PTR es:[edi],eax
  407609:	stos   DWORD PTR es:[edi],eax
  40760a:	stos   WORD PTR es:[edi],ax
  40760c:	xor    eax,eax
  40760e:	inc    eax
  40760f:	mov    WORD PTR [ebp-0x18],cx
  407613:	mov    WORD PTR [ebp-0x12],ax
  407617:	mov    WORD PTR [ebp-0x16],ax
  40761b:	lea    eax,[ebp-0x24]
  40761e:	push   eax
  40761f:	lea    eax,[ebp-0x18]
  407622:	push   eax
  407623:	call   DWORD PTR ds:0x40b120
  407629:	imul   eax,esi,0x3c
  40762c:	mov    ecx,0x989680
  407631:	pop    edi
  407632:	pop    esi
  407633:	imul   ecx
  407635:	mov    ecx,DWORD PTR [ebp-0x8]
  407638:	add    eax,DWORD PTR [ebp-0x24]
  40763b:	mov    DWORD PTR [ebx],eax
  40763d:	adc    edx,DWORD PTR [ebp-0x20]
  407640:	xor    ecx,ebp
  407642:	mov    DWORD PTR [ebx+0x4],edx
  407645:	pop    ebx
  407646:	call   0x409090
  40764b:	mov    esp,ebp
  40764d:	pop    ebp
  40764e:	ret    0x4
  407651:	int3   
  407652:	int3   
  407653:	int3   
  407654:	int3   
  407655:	int3   
  407656:	mov    edi,edi
  407658:	push   ebp
  407659:	mov    ebp,esp
  40765b:	sub    esp,0xc
  40765e:	push   ebx
  40765f:	push   esi
  407660:	mov    esi,DWORD PTR [ebp+0x8]
  407663:	mov    bx,dx
  407666:	push   edi
  407667:	push   0x3c
  407669:	push   0x0
  40766b:	push   esi
  40766c:	mov    edi,ecx
  40766e:	call   0x40986c
  407673:	add    esp,0xc
  407676:	mov    WORD PTR [esi],bx
  407679:	mov    ecx,edi
  40767b:	call   0x407130
  407680:	mov    DWORD PTR [ebp-0x4],eax
  407683:	mov    DWORD PTR [esi+0x4],eax
  407686:	test   eax,eax
  407688:	je     0x4076fc
  40768a:	lea    ecx,[ebp-0x8]
  40768d:	mov    edx,0x401328
  407692:	push   ecx
  407693:	mov    ecx,eax
  407695:	mov    edi,0x80040203
  40769a:	call   0x4061b2
  40769f:	test   eax,eax
  4076a1:	je     0x4076ca
  4076a3:	mov    ecx,DWORD PTR [ebp-0x4]
  4076a6:	lea    eax,[ebp-0xc]
  4076a9:	push   eax
  4076aa:	mov    edx,0x401340
  4076af:	call   0x4061b2
  4076b4:	test   eax,eax
  4076b6:	je     0x4076ca
  4076b8:	mov    ax,WORD PTR [ebp-0x8]
  4076bc:	xor    edi,edi
  4076be:	mov    WORD PTR [esi+0x38],ax
  4076c2:	mov    ax,WORD PTR [ebp-0xc]
  4076c6:	mov    WORD PTR [esi+0x3a],ax
  4076ca:	test   edi,edi
  4076cc:	js     0x407714
  4076ce:	movzx  eax,WORD PTR [esi+0x38]
  4076d2:	cmp    bx,ax
  4076d5:	jbe    0x4076e0
  4076d7:	movzx  eax,WORD PTR [esi+0x3a]
  4076db:	cmp    bx,ax
  4076de:	jbe    0x4076e6
  4076e0:	mov    WORD PTR [esi+0x8],ax
  4076e4:	jmp    0x4076ea
  4076e6:	mov    WORD PTR [esi+0x8],bx
  4076ea:	mov    dx,WORD PTR [esi+0x8]
  4076ee:	lea    eax,[esi+0xc]
  4076f1:	mov    ecx,DWORD PTR [esi+0x4]
  4076f4:	push   eax
  4076f5:	call   0x4070d1
  4076fa:	jmp    0x407712
  4076fc:	xor    eax,eax
  4076fe:	mov    edx,0x4012ac
  407703:	mov    WORD PTR [esi+0x8],ax
  407707:	mov    ecx,edi
  407709:	lea    eax,[esi+0xc]
  40770c:	push   eax
  40770d:	call   0x40709d
  407712:	mov    edi,eax
  407714:	mov    eax,edi
  407716:	pop    edi
  407717:	pop    esi
  407718:	pop    ebx
  407719:	mov    esp,ebp
  40771b:	pop    ebp
  40771c:	ret    0x4
  40771f:	int3   
  407720:	int3   
  407721:	int3   
  407722:	int3   
  407723:	int3   
  407724:	mov    edi,edi
  407726:	push   ebp
  407727:	mov    ebp,esp
  407729:	sub    esp,0xc8
  40772f:	mov    eax,ds:0x40a004
  407734:	xor    eax,ebp
  407736:	mov    DWORD PTR [ebp-0x8],eax
  407739:	mov    eax,DWORD PTR [ebp+0x10]
  40773c:	push   ebx
  40773d:	push   esi
  40773e:	mov    esi,DWORD PTR [ebp+0x8]
  407741:	push   edi
  407742:	mov    DWORD PTR [ebp-0xb4],ecx
  407748:	mov    edi,edx
  40774a:	xor    ecx,ecx
  40774c:	mov    DWORD PTR [ebp-0xa0],esi
  407752:	push   0x114
  407757:	push   ecx
  407758:	push   eax
  407759:	mov    DWORD PTR [ebp-0xb0],eax
  40775f:	mov    ebx,ecx
  407761:	mov    DWORD PTR [ebp-0xac],ecx
  407767:	mov    DWORD PTR [ebp-0xa8],ecx
  40776d:	call   0x40986c
  407772:	mov    edx,DWORD PTR [ebp-0xb4]
  407778:	add    esp,0xc
  40777b:	xor    ecx,ecx
  40777d:	mov    eax,DWORD PTR [edx+ecx*4+0x18]
  407781:	cmp    eax,DWORD PTR [edx+ecx*4+0x28]
  407785:	jne    0x407811
  40778b:	inc    ecx
  40778c:	cmp    ecx,0x4
  40778f:	jne    0x40777d
  407791:	push   0xf
  407793:	pop    ecx
  407794:	mov    esi,edx
  407796:	lea    edi,[ebp-0x60]
  407799:	rep movs DWORD PTR es:[edi],DWORD PTR ds:[esi]
  40779b:	mov    cx,WORD PTR [ebp-0x58]
  40779f:	xor    edx,edx
  4077a1:	xor    eax,eax
  4077a3:	inc    edx
  4077a4:	mov    DWORD PTR [ebp-0xa0],eax
  4077aa:	test   cx,cx
  4077ad:	je     0x4077b5
  4077af:	cmp    cx,WORD PTR [ebp-0x26]
  4077b3:	jne    0x4077b7
  4077b5:	xor    edx,edx
  4077b7:	test   edx,edx
  4077b9:	je     0x407889
  4077bf:	lea    edx,[ebp-0x9c]
  4077c5:	lea    ecx,[ebp-0x60]
  4077c8:	call   0x40759e
  4077cd:	mov    ebx,eax
  4077cf:	test   ebx,ebx
  4077d1:	js     0x40786f
  4077d7:	cmp    DWORD PTR [ebp+0xc],0x0
  4077db:	jne    0x40786f
  4077e1:	lea    edx,[ebp-0x84]
  4077e7:	xor    ecx,ecx
  4077e9:	lea    esi,[ebp-0x74]
  4077ec:	mov    eax,DWORD PTR [edx+ecx*4]
  4077ef:	cmp    eax,DWORD PTR [esi+ecx*4]
  4077f2:	jne    0x40786b
  4077f4:	inc    ecx
  4077f5:	cmp    ecx,0x4
  4077f8:	jne    0x4077ec
  4077fa:	mov    ax,WORD PTR [ebp-0x94]
  407801:	test   ax,ax
  407804:	je     0x40786b
  407806:	cmp    ax,WORD PTR [ebp-0x62]
  40780a:	je     0x40786b
  40780c:	xor    eax,eax
  40780e:	inc    eax
  40780f:	jmp    0x407875
  407811:	mov    eax,DWORD PTR [edi+0x10]
  407814:	test   eax,eax
  407816:	je     0x407826
  407818:	cmp    DWORD PTR [ebp+0xc],0x1
  40781c:	je     0x40782f
  40781e:	test   eax,eax
  407820:	jne    0x407791
  407826:	cmp    DWORD PTR [ebp+0xc],ebx
  407829:	jne    0x407791
  40782f:	test   eax,eax
  407831:	mov    ecx,0x989680
  407836:	mov    eax,DWORD PTR [ebp-0xa0]
  40783c:	je     0x407854
  40783e:	mov    eax,DWORD PTR [eax+0x4]
  407841:	mov    esi,DWORD PTR [esi]
  407843:	sub    eax,esi
  407845:	imul   eax,eax,0x3c
  407848:	imul   ecx
  40784a:	add    eax,DWORD PTR [edi]
  40784c:	adc    edx,DWORD PTR [edi+0x4]
  40784f:	jmp    0x40792f
  407854:	mov    eax,DWORD PTR [eax]
  407856:	mov    esi,DWORD PTR [esi+0x4]
  407859:	sub    eax,esi
  40785b:	imul   eax,eax,0x3c
  40785e:	imul   ecx
  407860:	add    eax,DWORD PTR [edi+0x8]
  407863:	adc    edx,DWORD PTR [edi+0xc]
  407866:	jmp    0x40792f
  40786b:	xor    eax,eax
  40786d:	jmp    0x407875
  40786f:	mov    eax,DWORD PTR [ebp-0xa0]
  407875:	push   0xf
  407877:	pop    ecx
  407878:	lea    esi,[ebp-0x9c]
  40787e:	lea    edi,[ebp-0x60]
  407881:	rep movs DWORD PTR es:[edi],DWORD PTR ds:[esi]
  407883:	mov    cx,WORD PTR [ebp-0x58]
  407887:	jmp    0x40788d
  407889:	inc    WORD PTR [ebp-0x60]
  40788d:	test   eax,eax
  40788f:	je     0x407899
  407891:	test   ebx,ebx
  407893:	jns    0x40779f
  407899:	test   ebx,ebx
  40789b:	js     0x4078c3
  40789d:	lea    edx,[ebp-0x48]
  4078a0:	xor    ecx,ecx
  4078a2:	lea    esi,[ebp-0x38]
  4078a5:	mov    eax,DWORD PTR [edx+ecx*4]
  4078a8:	cmp    eax,DWORD PTR [esi+ecx*4]
  4078ab:	jne    0x4078d8
  4078ad:	inc    ecx
  4078ae:	cmp    ecx,0x4
  4078b1:	jne    0x4078a5
  4078b3:	xor    esi,esi
  4078b5:	mov    edi,DWORD PTR [ebp-0xb0]
  4078bb:	mov    DWORD PTR [edi+0x110],esi
  4078c1:	xor    ebx,ebx
  4078c3:	mov    ecx,DWORD PTR [ebp-0x8]
  4078c6:	mov    eax,ebx
  4078c8:	pop    edi
  4078c9:	pop    esi
  4078ca:	xor    ecx,ebp
  4078cc:	pop    ebx
  4078cd:	call   0x409090
  4078d2:	mov    esp,ebp
  4078d4:	pop    ebp
  4078d5:	ret    0xc
  4078d8:	lea    eax,[ebp-0xc4]
  4078de:	push   eax
  4078df:	lea    edx,[ebp-0x24]
  4078e2:	lea    ecx,[ebp-0x60]
  4078e5:	call   0x406d7f
  4078ea:	mov    ebx,eax
  4078ec:	test   ebx,ebx
  4078ee:	js     0x4078c3
  4078f0:	cmp    DWORD PTR [ebp+0xc],0x0
  4078f4:	mov    ecx,0x989680
  4078f9:	jne    0x407916
  4078fb:	mov    eax,DWORD PTR [ebp-0xbc]
  407901:	mov    esi,DWORD PTR [ebp-0xc0]
  407907:	sub    eax,esi
  407909:	imul   eax,eax,0x3c
  40790c:	imul   ecx
  40790e:	add    eax,DWORD PTR [ebp-0x1c]
  407911:	adc    edx,DWORD PTR [ebp-0x18]
  407914:	jmp    0x40792f
  407916:	mov    eax,DWORD PTR [ebp-0xb8]
  40791c:	mov    esi,DWORD PTR [ebp-0xc4]
  407922:	sub    eax,esi
  407924:	imul   eax,eax,0x3c
  407927:	imul   ecx
  407929:	add    eax,DWORD PTR [ebp-0x24]
  40792c:	adc    edx,DWORD PTR [ebp-0x20]
  40792f:	mov    DWORD PTR [ebp-0xac],eax
  407935:	mov    ebx,0x80004005
  40793a:	or     eax,edx
  40793c:	mov    DWORD PTR [ebp-0xa8],edx
  407942:	je     0x4078b5
  407948:	mov    edi,DWORD PTR [ebp-0xb0]
  40794e:	lea    eax,[edi+0x100]
  407954:	push   eax
  407955:	lea    eax,[ebp-0xac]
  40795b:	push   eax
  40795c:	call   DWORD PTR ds:0x40b11c
  407962:	test   eax,eax
  407964:	je     0x4078c3
  40796a:	jmp    0x4078bb
  40796f:	int3   
  407970:	int3   
  407971:	int3   
  407972:	int3   
  407973:	int3   
  407974:	mov    edi,edi
  407976:	push   ebp
  407977:	mov    ebp,esp
  407979:	sub    esp,0xc0
  40797f:	mov    eax,ds:0x40a004
  407984:	xor    eax,ebp
  407986:	mov    DWORD PTR [ebp-0x8],eax
  407989:	push   ebx
  40798a:	push   esi
  40798b:	mov    esi,ecx
  40798d:	mov    eax,edx
  40798f:	mov    ecx,DWORD PTR [ebp+0x8]
  407992:	push   edi
  407993:	mov    DWORD PTR [ebp-0xa0],ecx
  407999:	xor    ecx,ecx
  40799b:	push   0x114
  4079a0:	push   ecx
  4079a1:	push   eax
  4079a2:	mov    DWORD PTR [ebp-0x9c],eax
  4079a8:	mov    ebx,ecx
  4079aa:	mov    DWORD PTR [ebp-0xac],ecx
  4079b0:	mov    DWORD PTR [ebp-0xa8],ecx
  4079b6:	call   0x40986c
  4079bb:	add    esp,0xc
  4079be:	lea    edi,[ebp-0x44]
  4079c1:	push   0xf
  4079c3:	pop    ecx
  4079c4:	rep movs DWORD PTR es:[edi],DWORD PTR ds:[esi]
  4079c6:	mov    cx,WORD PTR [ebp-0x3c]
  4079ca:	xor    eax,eax
  4079cc:	xor    edx,edx
  4079ce:	inc    eax
  4079cf:	mov    DWORD PTR [ebp-0xb0],edx
  4079d5:	test   cx,cx
  4079d8:	je     0x4079e0
  4079da:	cmp    cx,WORD PTR [ebp-0xc]
  4079de:	jne    0x4079e2
  4079e0:	xor    eax,eax
  4079e2:	test   eax,eax
  4079e4:	je     0x407a4c
  4079e6:	lea    edx,[ebp-0x98]
  4079ec:	lea    ecx,[ebp-0x44]
  4079ef:	call   0x40755e
  4079f4:	mov    ebx,eax
  4079f6:	test   ebx,ebx
  4079f8:	js     0x407a32
  4079fa:	lea    edx,[ebp-0x80]
  4079fd:	xor    ecx,ecx
  4079ff:	lea    esi,[ebp-0x70]
  407a02:	mov    eax,DWORD PTR [edx+ecx*4]
  407a05:	cmp    eax,DWORD PTR [esi+ecx*4]
  407a08:	mov    ax,WORD PTR [ebp-0x90]
  407a0f:	jne    0x407a27
  407a11:	inc    ecx
  407a12:	cmp    ecx,0x4
  407a15:	jne    0x407a02
  407a17:	test   ax,ax
  407a1a:	je     0x407a27
  407a1c:	cmp    ax,WORD PTR [ebp-0x60]
  407a20:	je     0x407a27
  407a22:	xor    edx,edx
  407a24:	inc    edx
  407a25:	jmp    0x407a38
  407a27:	xor    edx,edx
  407a29:	mov    WORD PTR [ebp-0x98],ax
  407a30:	jmp    0x407a38
  407a32:	mov    edx,DWORD PTR [ebp-0xb0]
  407a38:	push   0xf
  407a3a:	pop    ecx
  407a3b:	lea    esi,[ebp-0x98]
  407a41:	lea    edi,[ebp-0x44]
  407a44:	rep movs DWORD PTR es:[edi],DWORD PTR ds:[esi]
  407a46:	mov    cx,WORD PTR [ebp-0x3c]
  407a4a:	jmp    0x407a55
  407a4c:	mov    eax,0xffff
  407a51:	add    WORD PTR [ebp-0x44],ax
  407a55:	test   edx,edx
  407a57:	je     0x407a61
  407a59:	test   ebx,ebx
  407a5b:	jns    0x4079ca
  407a61:	test   ebx,ebx
  407a63:	js     0x407a93
  407a65:	lea    edx,[ebp-0x2c]
  407a68:	xor    ecx,ecx
  407a6a:	lea    esi,[ebp-0x1c]
  407a6d:	mov    eax,DWORD PTR [edx+ecx*4]
  407a70:	cmp    eax,DWORD PTR [esi+ecx*4]
  407a73:	jne    0x407aa8
  407a75:	inc    ecx
  407a76:	cmp    ecx,0x4
  407a79:	jne    0x407a6d
  407a7b:	mov    edi,DWORD PTR [ebp-0xa0]
  407a81:	xor    esi,esi
  407a83:	and    DWORD PTR [edi],esi
  407a85:	mov    edi,DWORD PTR [ebp-0x9c]
  407a8b:	mov    DWORD PTR [edi+0x110],esi
  407a91:	xor    ebx,ebx
  407a93:	mov    ecx,DWORD PTR [ebp-0x8]
  407a96:	mov    eax,ebx
  407a98:	pop    edi
  407a99:	pop    esi
  407a9a:	xor    ecx,ebp
  407a9c:	pop    ebx
  407a9d:	call   0x409090
  407aa2:	mov    esp,ebp
  407aa4:	pop    ebp
  407aa5:	ret    0x4
  407aa8:	lea    eax,[ebp-0xc0]
  407aae:	push   eax
  407aaf:	lea    edx,[ebp-0x5c]
  407ab2:	lea    ecx,[ebp-0x44]
  407ab5:	call   0x406d7f
  407aba:	mov    ebx,eax
  407abc:	test   ebx,ebx
  407abe:	js     0x407a93
  407ac0:	mov    ecx,DWORD PTR [ebp-0xb4]
  407ac6:	mov    edx,0x989680
  407acb:	mov    esi,DWORD PTR [ebp-0xc0]
  407ad1:	mov    eax,ecx
  407ad3:	mov    edi,DWORD PTR [ebp-0xa0]
  407ad9:	sub    eax,esi
  407adb:	imul   eax,eax,0x3c
  407ade:	mov    ebx,0x80004005
  407ae3:	mov    DWORD PTR [edi],ecx
  407ae5:	imul   edx
  407ae7:	add    eax,DWORD PTR [ebp-0x5c]
  407aea:	mov    DWORD PTR [ebp-0xac],eax
  407af0:	adc    edx,DWORD PTR [ebp-0x58]
  407af3:	or     eax,edx
  407af5:	mov    DWORD PTR [ebp-0xa8],edx
  407afb:	je     0x407a85
  407afd:	mov    edi,DWORD PTR [ebp-0x9c]
  407b03:	lea    eax,[edi+0x100]
  407b09:	push   eax
  407b0a:	lea    eax,[ebp-0xac]
  407b10:	push   eax
  407b11:	call   DWORD PTR ds:0x40b11c
  407b17:	test   eax,eax
  407b19:	je     0x407a93
  407b1f:	jmp    0x407a8b
  407b24:	int3   
  407b25:	int3   
  407b26:	int3   
  407b27:	int3   
  407b28:	int3   
  407b29:	mov    edi,edi
  407b2b:	push   ebp
  407b2c:	mov    ebp,esp
  407b2e:	sub    esp,0x9c
  407b34:	mov    eax,ds:0x40a004
  407b39:	xor    eax,ebp
  407b3b:	mov    DWORD PTR [ebp-0x4],eax
  407b3e:	mov    eax,DWORD PTR [ebp+0x10]
  407b41:	push   ebx
  407b42:	mov    ebx,DWORD PTR [ebp+0x14]
  407b45:	push   esi
  407b46:	mov    DWORD PTR [ebp-0x60],eax
  407b49:	xor    eax,eax
  407b4b:	mov    DWORD PTR [ebp-0x68],edx
  407b4e:	mov    esi,eax
  407b50:	mov    edx,DWORD PTR [ebp+0xc]
  407b53:	push   edi
  407b54:	mov    edi,DWORD PTR [ebp+0x8]
  407b57:	mov    DWORD PTR [ebp-0x78],ecx
  407b5a:	mov    ecx,DWORD PTR [ebp-0x68]
  407b5d:	mov    DWORD PTR [ebp-0x70],edi
  407b60:	mov    DWORD PTR [ebp-0x64],edx
  407b63:	mov    DWORD PTR [ebp-0x6c],esi
  407b66:	mov    DWORD PTR [ebp-0x74],eax
  407b69:	mov    edi,DWORD PTR [ebp-0x74]
  407b6c:	mov    eax,DWORD PTR [ecx+eax*4+0x18]
  407b70:	cmp    eax,DWORD PTR [ecx+edi*4+0x28]
  407b74:	mov    edi,DWORD PTR [ebp-0x70]
  407b77:	jne    0x407bd4
  407b79:	mov    eax,DWORD PTR [ebp-0x74]
  407b7c:	inc    eax
  407b7d:	mov    DWORD PTR [ebp-0x74],eax
  407b80:	cmp    eax,0x4
  407b83:	jne    0x407b69
  407b85:	mov    edx,DWORD PTR [ebp-0x60]
  407b88:	mov    eax,DWORD PTR [ecx+0xc]
  407b8b:	mov    DWORD PTR [edx],eax
  407b8d:	test   ebx,ebx
  407b8f:	je     0x407ffb
  407b95:	xor    eax,eax
  407b97:	lea    edx,[ebx+0x8]
  407b9a:	mov    DWORD PTR [ebx+0x4],eax
  407b9d:	lea    eax,[ebp-0x70]
  407ba0:	push   eax
  407ba1:	call   0x407974
  407ba6:	mov    esi,eax
  407ba8:	test   esi,esi
  407baa:	js     0x407ffb
  407bb0:	xor    ecx,ecx
  407bb2:	mov    DWORD PTR [ebx],ecx
  407bb4:	cmp    WORD PTR [ebx+0x10a],cx
  407bbb:	je     0x407bc7
  407bbd:	mov    eax,DWORD PTR [ebp-0x60]
  407bc0:	mov    eax,DWORD PTR [eax]
  407bc2:	sub    eax,DWORD PTR [ebp-0x70]
  407bc5:	mov    DWORD PTR [ebx],eax
  407bc7:	lea    eax,[ebx+0x11c]
  407bcd:	push   eax
  407bce:	push   ecx
  407bcf:	jmp    0x407e03
  407bd4:	mov    eax,DWORD PTR [edx+0x8]
  407bd7:	mov    edx,0x989680
  407bdc:	mov    DWORD PTR [ebp-0x7c],eax
  407bdf:	imul   eax,eax,0x3c
  407be2:	imul   edx
  407be4:	add    eax,DWORD PTR [edi+0x8]
  407be7:	mov    DWORD PTR [ebp-0x9c],eax
  407bed:	adc    edx,DWORD PTR [edi+0xc]
  407bf0:	mov    eax,DWORD PTR [ebp-0x64]
  407bf3:	mov    DWORD PTR [ebp-0x74],edx
  407bf6:	mov    edx,0x989680
  407bfb:	mov    eax,DWORD PTR [eax+0xc]
  407bfe:	mov    DWORD PTR [ebp-0x94],eax
  407c04:	imul   eax,eax,0x3c
  407c07:	imul   edx
  407c09:	add    eax,DWORD PTR [edi]
  407c0b:	mov    DWORD PTR [ebp-0x90],eax
  407c11:	mov    eax,DWORD PTR [ebp-0x78]
  407c14:	adc    edx,DWORD PTR [edi+0x4]
  407c17:	mov    DWORD PTR [ebp-0x8c],edx
  407c1d:	mov    eax,DWORD PTR [eax+0x4]
  407c20:	cmp    DWORD PTR [ebp-0x74],eax
  407c23:	ja     0x407cdf
  407c29:	jb     0x407c45
  407c2b:	mov    ecx,DWORD PTR [ebp-0x78]
  407c2e:	mov    edx,DWORD PTR [ebp-0x9c]
  407c34:	cmp    edx,DWORD PTR [ecx]
  407c36:	mov    ecx,DWORD PTR [ebp-0x68]
  407c39:	mov    edx,DWORD PTR [ebp-0x8c]
  407c3f:	ja     0x407cdf
  407c45:	cmp    DWORD PTR [edi+0x10],esi
  407c48:	je     0x407c67
  407c4a:	cmp    edx,eax
  407c4c:	jb     0x407cfd
  407c52:	ja     0x407c67
  407c54:	mov    edi,DWORD PTR [ebp-0x78]
  407c57:	mov    esi,DWORD PTR [ebp-0x90]
  407c5d:	cmp    esi,DWORD PTR [edi]
  407c5f:	mov    esi,DWORD PTR [ebp-0x6c]
  407c62:	mov    edi,DWORD PTR [ebp-0x70]
  407c65:	jbe    0x407cdf
  407c67:	mov    ecx,DWORD PTR [ebp-0x64]
  407c6a:	mov    edx,DWORD PTR [ebp-0x60]
  407c6d:	mov    eax,DWORD PTR [ecx+0x4]
  407c70:	mov    DWORD PTR [edx],eax
  407c72:	test   ebx,ebx
  407c74:	je     0x407ffb
  407c7a:	mov    eax,DWORD PTR [ecx+0x4]
  407c7d:	mov    esi,0x80004005
  407c82:	sub    eax,DWORD PTR [ecx+0x8]
  407c85:	mov    ecx,0x989680
  407c8a:	mov    DWORD PTR [ebx],eax
  407c8c:	imul   eax,eax,0xffffffc4
  407c8f:	mov    DWORD PTR [ebx+0x4],0x1
  407c96:	imul   ecx
  407c98:	add    eax,DWORD PTR [edi+0x8]
  407c9b:	mov    DWORD PTR [ebp-0x98],eax
  407ca1:	lea    eax,[ebx+0x108]
  407ca7:	adc    edx,DWORD PTR [edi+0xc]
  407caa:	push   eax
  407cab:	lea    eax,[ebp-0x98]
  407cb1:	mov    DWORD PTR [ebp-0x94],edx
  407cb7:	push   eax
  407cb8:	call   DWORD PTR ds:0x40b11c
  407cbe:	test   eax,eax
  407cc0:	je     0x407ffb
  407cc6:	mov    eax,DWORD PTR [ebp-0x60]
  407cc9:	mov    eax,DWORD PTR [eax]
  407ccb:	mov    DWORD PTR [ebx+0x118],eax
  407cd1:	lea    eax,[ebx+0x11c]
  407cd7:	push   eax
  407cd8:	push   0x1
  407cda:	jmp    0x407e03
  407cdf:	cmp    edx,eax
  407ce1:	ja     0x407e18
  407ce7:	jb     0x407cfd
  407ce9:	mov    esi,DWORD PTR [ebp-0x78]
  407cec:	mov    edx,DWORD PTR [ebp-0x90]
  407cf2:	cmp    edx,DWORD PTR [esi]
  407cf4:	mov    esi,DWORD PTR [ebp-0x6c]
  407cf7:	ja     0x407e18
  407cfd:	cmp    DWORD PTR [edi+0x10],0x0
  407d01:	jne    0x407d22
  407d03:	cmp    DWORD PTR [ebp-0x74],eax
  407d06:	jb     0x407e18
  407d0c:	ja     0x407d22
  407d0e:	mov    ecx,DWORD PTR [ebp-0x78]
  407d11:	mov    edx,DWORD PTR [ebp-0x9c]
  407d17:	cmp    edx,DWORD PTR [ecx]
  407d19:	mov    ecx,DWORD PTR [ebp-0x68]
  407d1c:	jbe    0x407e18
  407d22:	mov    edx,DWORD PTR [ebp-0x64]
  407d25:	mov    ecx,DWORD PTR [ebp-0x60]
  407d28:	mov    eax,DWORD PTR [edx]
  407d2a:	mov    DWORD PTR [ecx],eax
  407d2c:	mov    ecx,DWORD PTR [ebp-0x68]
  407d2f:	test   ebx,ebx
  407d31:	je     0x407ffb
  407d37:	xor    eax,eax
  407d39:	mov    DWORD PTR [ebx+0x4],eax
  407d3c:	mov    DWORD PTR [ebp-0x70],eax
  407d3f:	cmp    DWORD PTR [edi+0x10],eax
  407d42:	jne    0x407da5
  407d44:	call   0x407501
  407d49:	test   eax,eax
  407d4b:	je     0x407da2
  407d4d:	lea    edx,[ebp-0x5c]
  407d50:	call   0x40755e
  407d55:	mov    esi,eax
  407d57:	test   esi,esi
  407d59:	js     0x407ffb
  407d5f:	xor    eax,eax
  407d61:	lea    edx,[ebp-0x44]
  407d64:	lea    esi,[ebp-0x34]
  407d67:	mov    ecx,eax
  407d69:	mov    eax,DWORD PTR [edx+ecx*4]
  407d6c:	cmp    eax,DWORD PTR [esi+ecx*4]
  407d6f:	jne    0x407da2
  407d71:	inc    ecx
  407d72:	cmp    ecx,0x4
  407d75:	jne    0x407d69
  407d77:	lea    eax,[ebp-0x6c]
  407d7a:	push   eax
  407d7b:	lea    edx,[ebx+0x8]
  407d7e:	lea    ecx,[ebp-0x5c]
  407d81:	call   0x407974
  407d86:	mov    esi,eax
  407d88:	test   esi,esi
  407d8a:	js     0x407ffb
  407d90:	mov    eax,DWORD PTR [ebx+0x118]
  407d96:	sub    eax,DWORD PTR [ebp-0x6c]
  407d99:	mov    DWORD PTR [ebp-0x70],0x1
  407da0:	mov    DWORD PTR [ebx],eax
  407da2:	mov    edx,DWORD PTR [ebp-0x64]
  407da5:	cmp    DWORD PTR [ebp-0x70],0x0
  407da9:	mov    esi,0x80004005
  407dae:	jne    0x407df9
  407db0:	mov    eax,DWORD PTR [edx]
  407db2:	mov    ecx,0x989680
  407db7:	sub    eax,DWORD PTR [edx+0xc]
  407dba:	mov    DWORD PTR [ebx],eax
  407dbc:	imul   eax,eax,0xffffffc4
  407dbf:	imul   ecx
  407dc1:	add    eax,DWORD PTR [edi]
  407dc3:	mov    DWORD PTR [ebp-0x98],eax
  407dc9:	mov    eax,DWORD PTR [ebp-0x60]
  407dcc:	adc    edx,DWORD PTR [edi+0x4]
  407dcf:	mov    DWORD PTR [ebp-0x94],edx
  407dd5:	mov    eax,DWORD PTR [eax]
  407dd7:	mov    DWORD PTR [ebx+0x118],eax
  407ddd:	lea    eax,[ebx+0x108]
  407de3:	push   eax
  407de4:	lea    eax,[ebp-0x98]
  407dea:	push   eax
  407deb:	call   DWORD PTR ds:0x40b11c
  407df1:	test   eax,eax
  407df3:	je     0x407ffb
  407df9:	lea    eax,[ebx+0x11c]
  407dff:	push   eax
  407e00:	xor    eax,eax
  407e02:	push   eax
  407e03:	mov    eax,DWORD PTR [ebp-0x64]
  407e06:	mov    edx,edi
  407e08:	mov    ecx,DWORD PTR [ebp-0x68]
  407e0b:	push   eax
  407e0c:	call   0x407724
  407e11:	mov    esi,eax
  407e13:	jmp    0x407ffb
  407e18:	mov    edx,DWORD PTR [edi+0x10]
  407e1b:	test   edx,edx
  407e1d:	je     0x407e3e
  407e1f:	cmp    DWORD PTR [ebp-0x74],eax
  407e22:	ja     0x407e5d
  407e24:	jb     0x407e36
  407e26:	mov    ecx,DWORD PTR [ebp-0x78]
  407e29:	mov    edi,DWORD PTR [ebp-0x9c]
  407e2f:	cmp    edi,DWORD PTR [ecx]
  407e31:	mov    ecx,DWORD PTR [ebp-0x68]
  407e34:	ja     0x407e5d
  407e36:	test   edx,edx
  407e38:	jne    0x407ff6
  407e3e:	cmp    DWORD PTR [ebp-0x8c],eax
  407e44:	jb     0x407ff6
  407e4a:	ja     0x407e5d
  407e4c:	mov    edi,DWORD PTR [ebp-0x78]
  407e4f:	mov    eax,DWORD PTR [ebp-0x90]
  407e55:	cmp    eax,DWORD PTR [edi]
  407e57:	jbe    0x407ff6
  407e5d:	test   edx,edx
  407e5f:	mov    edx,DWORD PTR [ebp-0x7c]
  407e62:	jne    0x407e6a
  407e64:	mov    edx,DWORD PTR [ebp-0x94]
  407e6a:	mov    eax,DWORD PTR [ebp-0x60]
  407e6d:	mov    DWORD PTR [eax],edx
  407e6f:	test   ebx,ebx
  407e71:	je     0x407ffb
  407e77:	call   0x407501
  407e7c:	test   eax,eax
  407e7e:	je     0x407e8c
  407e80:	lea    edx,[ebp-0x5c]
  407e83:	call   0x40755e
  407e88:	mov    esi,eax
  407e8a:	jmp    0x407ea3
  407e8c:	mov    esi,DWORD PTR [ebp-0x68]
  407e8f:	lea    edi,[ebp-0x5c]
  407e92:	push   0xf
  407e94:	pop    ecx
  407e95:	rep movs DWORD PTR es:[edi],DWORD PTR ds:[esi]
  407e97:	mov    esi,DWORD PTR [ebp-0x6c]
  407e9a:	mov    eax,0xffff
  407e9f:	add    WORD PTR [ebp-0x5c],ax
  407ea3:	test   esi,esi
  407ea5:	js     0x407ffb
  407eab:	xor    eax,eax
  407ead:	lea    edi,[ebp-0x1c]
  407eb0:	xor    ecx,ecx
  407eb2:	lea    edx,[ebp-0x20]
  407eb5:	mov    DWORD PTR [ebp-0x20],ecx
  407eb8:	stos   DWORD PTR es:[edi],eax
  407eb9:	mov    DWORD PTR [ebp-0x88],ecx
  407ebf:	lea    ecx,[ebp-0x5c]
  407ec2:	stos   DWORD PTR es:[edi],eax
  407ec3:	stos   DWORD PTR es:[edi],eax
  407ec4:	stos   DWORD PTR es:[edi],eax
  407ec5:	stos   DWORD PTR es:[edi],eax
  407ec6:	xor    eax,eax
  407ec8:	lea    edi,[ebp-0x84]
  407ece:	stos   DWORD PTR es:[edi],eax
  407ecf:	stos   DWORD PTR es:[edi],eax
  407ed0:	stos   DWORD PTR es:[edi],eax
  407ed1:	lea    eax,[ebp-0x88]
  407ed7:	push   eax
  407ed8:	call   0x406d7f
  407edd:	mov    esi,eax
  407edf:	test   esi,esi
  407ee1:	js     0x407ffb
  407ee7:	xor    edx,edx
  407ee9:	lea    edi,[ebp-0x44]
  407eec:	mov    ecx,edx
  407eee:	mov    eax,DWORD PTR [edi+ecx*4]
  407ef1:	lea    edi,[ebp-0x34]
  407ef4:	cmp    eax,DWORD PTR [edi+ecx*4]
  407ef7:	lea    edi,[ebp-0x44]
  407efa:	jne    0x407f2d
  407efc:	inc    ecx
  407efd:	cmp    ecx,0x4
  407f00:	jne    0x407eee
  407f02:	mov    ecx,DWORD PTR [ebp-0x68]
  407f05:	lea    eax,[ebp-0x6c]
  407f08:	mov    DWORD PTR [ebp-0x6c],edx
  407f0b:	mov    DWORD PTR [ebx+0x4],edx
  407f0e:	lea    edx,[ebx+0x8]
  407f11:	push   eax
  407f12:	call   0x407974
  407f17:	mov    esi,eax
  407f19:	test   esi,esi
  407f1b:	js     0x407ffb
  407f21:	mov    eax,DWORD PTR [ebp-0x60]
  407f24:	mov    eax,DWORD PTR [eax]
  407f26:	sub    eax,DWORD PTR [ebp-0x6c]
  407f29:	mov    DWORD PTR [ebx],eax
  407f2b:	jmp    0x407f99
  407f2d:	mov    ecx,0x989680
  407f32:	mov    eax,DWORD PTR [ebp-0x60]
  407f35:	mov    eax,DWORD PTR [eax]
  407f37:	cmp    DWORD PTR [ebp-0x10],edx
  407f3a:	je     0x407f54
  407f3c:	sub    eax,DWORD PTR [ebp-0x84]
  407f42:	mov    DWORD PTR [ebx],eax
  407f44:	imul   eax,eax,0xffffffc4
  407f47:	mov    DWORD PTR [ebx+0x4],edx
  407f4a:	imul   ecx
  407f4c:	add    eax,DWORD PTR [ebp-0x20]
  407f4f:	adc    edx,DWORD PTR [ebp-0x1c]
  407f52:	jmp    0x407f6e
  407f54:	sub    eax,DWORD PTR [ebp-0x88]
  407f5a:	mov    DWORD PTR [ebx],eax
  407f5c:	imul   eax,eax,0xffffffc4
  407f5f:	mov    DWORD PTR [ebx+0x4],0x1
  407f66:	imul   ecx
  407f68:	add    eax,DWORD PTR [ebp-0x18]
  407f6b:	adc    edx,DWORD PTR [ebp-0x14]
  407f6e:	mov    DWORD PTR [ebp-0x80],eax
  407f71:	mov    eax,DWORD PTR [ebp-0x60]
  407f74:	mov    DWORD PTR [ebp-0x7c],edx
  407f77:	mov    eax,DWORD PTR [eax]
  407f79:	mov    DWORD PTR [ebx+0x118],eax
  407f7f:	lea    eax,[ebx+0x108]
  407f85:	push   eax
  407f86:	lea    eax,[ebp-0x80]
  407f89:	push   eax
  407f8a:	call   DWORD PTR ds:0x40b11c
  407f90:	test   eax,eax
  407f92:	jne    0x407f99
  407f94:	mov    esi,0x80004005
  407f99:	test   esi,esi
  407f9b:	js     0x407ffb
  407f9d:	mov    edi,DWORD PTR [ebp-0x70]
  407fa0:	xor    eax,eax
  407fa2:	mov    edx,0x989680
  407fa7:	cmp    DWORD PTR [edi+0x10],eax
  407faa:	mov    eax,DWORD PTR [ebp-0x64]
  407fad:	je     0x407fc4
  407faf:	mov    ecx,DWORD PTR [eax+0x4]
  407fb2:	mov    eax,DWORD PTR [eax+0x8]
  407fb5:	sub    eax,ecx
  407fb7:	imul   eax,eax,0x3c
  407fba:	imul   edx
  407fbc:	add    eax,DWORD PTR [edi+0x8]
  407fbf:	adc    edx,DWORD PTR [edi+0xc]
  407fc2:	jmp    0x407fd5
  407fc4:	mov    ecx,DWORD PTR [eax]
  407fc6:	mov    eax,DWORD PTR [eax+0xc]
  407fc9:	sub    eax,ecx
  407fcb:	imul   eax,eax,0x3c
  407fce:	imul   edx
  407fd0:	add    eax,DWORD PTR [edi]
  407fd2:	adc    edx,DWORD PTR [edi+0x4]
  407fd5:	mov    DWORD PTR [ebp-0x80],eax
  407fd8:	lea    eax,[ebx+0x21c]
  407fde:	push   eax
  407fdf:	lea    eax,[ebp-0x80]
  407fe2:	mov    DWORD PTR [ebx+0x22c],ecx
  407fe8:	push   eax
  407fe9:	mov    DWORD PTR [ebp-0x7c],edx
  407fec:	call   DWORD PTR ds:0x40b11c
  407ff2:	test   eax,eax
  407ff4:	jne    0x407ffb
  407ff6:	mov    esi,0x80004005
  407ffb:	mov    ecx,DWORD PTR [ebp-0x4]
  407ffe:	mov    eax,esi
  408000:	pop    edi
  408001:	pop    esi
  408002:	xor    ecx,ebp
  408004:	pop    ebx
  408005:	call   0x409090
  40800a:	mov    esp,ebp
  40800c:	pop    ebp
  40800d:	ret    0x10
  408010:	int3   
  408011:	int3   
  408012:	int3   
  408013:	int3   
  408014:	int3   
  408015:	mov    edi,edi
  408017:	push   ebp
  408018:	mov    ebp,esp
  40801a:	sub    esp,0x348
  408020:	mov    eax,ds:0x40a004
  408025:	xor    eax,ebp
  408027:	mov    DWORD PTR [ebp-0x4],eax
  40802a:	mov    eax,DWORD PTR [ebp+0x8]
  40802d:	push   ebx
  40802e:	push   esi
  40802f:	mov    DWORD PTR [ebp-0x334],eax
  408035:	mov    esi,0x80004005
  40803a:	mov    eax,DWORD PTR [ebp+0xc]
  40803d:	xor    ebx,ebx
  40803f:	push   edi
  408040:	mov    edi,DWORD PTR [ebp+0x10]
  408043:	mov    DWORD PTR [ebp-0x348],eax
  408049:	xor    eax,eax
  40804b:	push   0xfe
  408050:	push   eax
  408051:	mov    WORD PTR [ebp-0x128],ax
  408058:	lea    eax,[ebp-0x126]
  40805e:	push   eax
  40805f:	mov    DWORD PTR [ebp-0x33c],ecx
  408065:	mov    DWORD PTR [ebp-0x340],edi
  40806b:	call   0x40986c
  408070:	xor    eax,eax
  408072:	mov    DWORD PTR [ebp-0x344],0x100
  40807c:	add    esp,0xc
  40807f:	mov    WORD PTR [edi],ax
  408082:	cmp    DWORD PTR ds:0x40a644,eax
  408088:	jne    0x408194
  40808e:	push   0x104
  408093:	lea    eax,[ebp-0x330]
  408099:	mov    DWORD PTR ds:0x40a644,0x1
  4080a3:	push   eax
  4080a4:	call   DWORD PTR ds:0x40b0f4
  4080aa:	test   eax,eax
  4080ac:	je     0x408187
  4080b2:	push   0x401370
  4080b7:	mov    edx,0x104
  4080bc:	lea    ecx,[ebp-0x330]
  4080c2:	call   0x405555
  4080c7:	test   eax,eax
  4080c9:	js     0x408187
  4080cf:	push   ecx
  4080d0:	lea    ecx,[ebp-0x330]
  4080d6:	call   0x408a24
  4080db:	mov    DWORD PTR [ebp-0x338],eax
  4080e1:	test   eax,eax
  4080e3:	je     0x408187
  4080e9:	push   0x8
  4080eb:	xor    eax,eax
  4080ed:	and    DWORD PTR ds:0x40a644,ebx
  4080f3:	pop    ecx
  4080f4:	mov    WORD PTR [ebp-0x28],ax
  4080f8:	lea    edi,[ebp-0x26]
  4080fb:	rep stos DWORD PTR es:[edi],eax
  4080fd:	mov    edx,DWORD PTR [ebp-0x334]
  408103:	inc    ebx
  408104:	mov    ecx,DWORD PTR [ebp-0x33c]
  40810a:	push   0x12
  40810c:	stos   WORD PTR es:[edi],ax
  40810e:	lea    eax,[ebp-0x28]
  408111:	push   0x12
  408113:	push   eax
  408114:	call   0x408515
  408119:	mov    esi,eax
  40811b:	test   esi,esi
  40811d:	js     0x408174
  40811f:	lea    edx,[ebp-0x334]
  408125:	lea    ecx,[ebp-0x28]
  408128:	call   0x4081f7
  40812d:	mov    edi,DWORD PTR [ebp-0x338]
  408133:	mov    esi,eax
  408135:	test   esi,esi
  408137:	js     0x40817a
  408139:	push   ecx
  40813a:	lea    eax,[ebp-0x128]
  408140:	mov    ecx,edi
  408142:	push   eax
  408143:	push   DWORD PTR [ebp-0x334]
  408149:	call   0x408297
  40814e:	mov    esi,eax
  408150:	test   esi,esi
  408152:	js     0x40817a
  408154:	mov    edx,DWORD PTR [ebp+0x14]
  408157:	lea    eax,[ebp-0x128]
  40815d:	mov    ecx,DWORD PTR [ebp-0x340]
  408163:	push   eax
  408164:	call   0x40551b
  408169:	mov    esi,eax
  40816b:	xor    ebx,ebx
  40816d:	test   esi,esi
  40816f:	sets   bl
  408172:	jmp    0x40817a
  408174:	mov    edi,DWORD PTR [ebp-0x338]
  40817a:	push   edi
  40817b:	call   DWORD PTR ds:0x40b05c
  408181:	mov    edi,DWORD PTR [ebp-0x340]
  408187:	cmp    DWORD PTR ds:0x40a644,0x0
  40818e:	jne    0x408194
  408190:	test   ebx,ebx
  408192:	je     0x4081dd
  408194:	lea    eax,[ebp-0x344]
  40819a:	mov    esi,0x80004005
  40819f:	push   eax
  4081a0:	lea    eax,[ebp-0x128]
  4081a6:	push   eax
  4081a7:	push   0x0
  4081a9:	push   0x0
  4081ab:	push   DWORD PTR [ebp-0x348]
  4081b1:	push   DWORD PTR [ebp-0x33c]
  4081b7:	call   DWORD PTR ds:0x40b0c4
  4081bd:	test   eax,eax
  4081bf:	jne    0x4081dd
  4081c1:	mov    edx,DWORD PTR [ebp+0x14]
  4081c4:	lea    eax,[ebp-0x128]
  4081ca:	push   eax
  4081cb:	mov    ecx,edi
  4081cd:	call   0x40551b
  4081d2:	mov    esi,eax
  4081d4:	test   esi,esi
  4081d6:	js     0x4081dd
  4081d8:	mov    esi,0x40203
  4081dd:	mov    ecx,DWORD PTR [ebp-0x4]
  4081e0:	mov    eax,esi
  4081e2:	pop    edi
  4081e3:	pop    esi
  4081e4:	xor    ecx,ebp
  4081e6:	pop    ebx
  4081e7:	call   0x409090
  4081ec:	mov    esp,ebp
  4081ee:	pop    ebp
  4081ef:	ret    0x10
  4081f2:	int3   
  4081f3:	int3   
  4081f4:	int3   
  4081f5:	int3   
  4081f6:	int3   
  4081f7:	mov    edi,edi
  4081f9:	push   ebp
  4081fa:	mov    ebp,esp
  4081fc:	sub    esp,0x28
  4081ff:	mov    eax,ds:0x40a004
  408204:	xor    eax,ebp
  408206:	mov    DWORD PTR [ebp-0x4],eax
  408209:	push   ebx
  40820a:	push   esi
  40820b:	push   edi
  40820c:	push   0x8
  40820e:	mov    esi,ecx
  408210:	lea    edi,[ebp-0x26]
  408213:	pop    ecx
  408214:	xor    eax,eax
  408216:	mov    ebx,edx
  408218:	mov    WORD PTR [ebp-0x28],ax
  40821c:	rep stos DWORD PTR es:[edi],eax
  40821e:	push   esi
  40821f:	push   0x12
  408221:	pop    edx
  408222:	lea    ecx,[ebp-0x28]
  408225:	stos   WORD PTR es:[edi],ax
  408227:	call   0x40551b
  40822c:	mov    esi,eax
  40822e:	test   esi,esi
  408230:	js     0x40827f
  408232:	lea    eax,[ebp-0x28]
  408235:	push   0x2d
  408237:	push   eax
  408238:	call   DWORD PTR ds:0x40b164
  40823e:	mov    edi,eax
  408240:	mov    esi,0x80004005
  408245:	pop    ecx
  408246:	pop    ecx
  408247:	test   edi,edi
  408249:	je     0x40827f
  40824b:	push   0xffffffff
  40824d:	push   0x401388
  408252:	xor    eax,eax
  408254:	push   0xffffffff
  408256:	mov    WORD PTR [edi],ax
  408259:	lea    eax,[ebp-0x28]
  40825c:	push   eax
  40825d:	push   0x0
  40825f:	push   0x7f
  408261:	call   DWORD PTR ds:0x40b0cc
  408267:	cmp    eax,0x2
  40826a:	jne    0x40827f
  40826c:	lea    eax,[edi+0x2]
  40826f:	push   eax
  408270:	call   DWORD PTR ds:0x40b168
  408276:	pop    ecx
  408277:	test   eax,eax
  408279:	je     0x40827f
  40827b:	mov    DWORD PTR [ebx],eax
  40827d:	xor    esi,esi
  40827f:	mov    ecx,DWORD PTR [ebp-0x4]
  408282:	mov    eax,esi
  408284:	pop    edi
  408285:	pop    esi
  408286:	xor    ecx,ebp
  408288:	pop    ebx
  408289:	call   0x409090
  40828e:	mov    esp,ebp
  408290:	pop    ebp
  408291:	ret    
  408292:	int3   
  408293:	int3   
  408294:	int3   
  408295:	int3   
  408296:	int3   
  408297:	mov    edi,edi
  408299:	push   ebp
  40829a:	mov    ebp,esp
  40829c:	sub    esp,0x108
  4082a2:	mov    eax,ds:0x40a004
  4082a7:	xor    eax,ebp
  4082a9:	mov    DWORD PTR [ebp-0x4],eax
  4082ac:	mov    eax,DWORD PTR [ebp+0xc]
  4082af:	push   ebx
  4082b0:	mov    ebx,DWORD PTR [ebp+0x8]
  4082b3:	mov    DWORD PTR [ebp-0x108],eax
  4082b9:	mov    eax,ebx
  4082bb:	push   esi
  4082bc:	push   edi
  4082bd:	shr    eax,0x4
  4082c0:	mov    esi,ecx
  4082c2:	push   0x400
  4082c7:	inc    eax
  4082c8:	mov    edi,0x80004005
  4082cd:	movzx  eax,ax
  4082d0:	push   eax
  4082d1:	push   0x6
  4082d3:	push   esi
  4082d4:	call   DWORD PTR ds:0x40b068
  4082da:	test   eax,eax
  4082dc:	je     0x40838c
  4082e2:	push   eax
  4082e3:	push   esi
  4082e4:	call   DWORD PTR ds:0x40b058
  4082ea:	test   eax,eax
  4082ec:	je     0x40838c
  4082f2:	push   eax
  4082f3:	call   DWORD PTR ds:0x40b054
  4082f9:	mov    esi,eax
  4082fb:	test   esi,esi
  4082fd:	je     0x40838c
  408303:	xor    eax,eax
  408305:	push   0xfe
  40830a:	push   eax
  40830b:	mov    WORD PTR [ebp-0x104],ax
  408312:	lea    eax,[ebp-0x102]
  408318:	push   eax
  408319:	call   0x40986c
  40831e:	add    esp,0xc
  408321:	and    ebx,0xf
  408324:	jbe    0x408334
  408326:	movzx  eax,WORD PTR [esi]
  408329:	lea    esi,[esi+eax*2]
  40832c:	add    esi,0x2
  40832f:	sub    ebx,0x1
  408332:	jne    0x408326
  408334:	movzx  ebx,WORD PTR [esi]
  408337:	mov    ecx,0x80
  40833c:	cmp    ebx,ecx
  40833e:	jae    0x40838c
  408340:	lea    eax,[esi+0x2]
  408343:	mov    edx,ecx
  408345:	push   eax
  408346:	lea    ecx,[ebp-0x104]
  40834c:	call   0x40551b
  408351:	mov    edi,eax
  408353:	test   edi,edi
  408355:	jns    0x40835f
  408357:	cmp    edi,0x8007007a
  40835d:	jne    0x40838c
  40835f:	add    ebx,ebx
  408361:	cmp    ebx,0x100
  408367:	jae    0x4083a1
  408369:	mov    ecx,DWORD PTR [ebp-0x108]
  40836f:	xor    eax,eax
  408371:	mov    WORD PTR [ebp+ebx*1-0x104],ax
  408379:	mov    edx,0x80
  40837e:	lea    eax,[ebp-0x104]
  408384:	push   eax
  408385:	call   0x40551b
  40838a:	mov    edi,eax
  40838c:	mov    ecx,DWORD PTR [ebp-0x4]
  40838f:	mov    eax,edi
  408391:	pop    edi
  408392:	pop    esi
  408393:	xor    ecx,ebp
  408395:	pop    ebx
  408396:	call   0x409090
  40839b:	mov    esp,ebp
  40839d:	pop    ebp
  40839e:	ret    0xc
  4083a1:	call   0x4091f5
  4083a6:	int3   
  4083a7:	int3   
  4083a8:	int3   
  4083a9:	int3   
  4083aa:	int3   
  4083ab:	int3   
  4083ac:	mov    edi,edi
  4083ae:	push   ebp
  4083af:	mov    ebp,esp
  4083b1:	sub    esp,0xc4
  4083b7:	mov    eax,ds:0x40a004
  4083bc:	xor    eax,ebp
  4083be:	mov    DWORD PTR [ebp-0x4],eax
  4083c1:	push   ebx
  4083c2:	push   esi
  4083c3:	push   edi
  4083c4:	mov    edi,edx
  4083c6:	xor    eax,eax
  4083c8:	mov    ebx,ecx
  4083ca:	mov    esi,0x80004005
  4083cf:	mov    WORD PTR [edi],ax
  4083d2:	lea    eax,[ebp-0xb0]
  4083d8:	push   eax
  4083d9:	call   DWORD PTR ds:0x40b114
  4083df:	cmp    eax,0xffffffff
  4083e2:	je     0x408443
  4083e4:	cmp    WORD PTR [ebp-0xac],0x0
  4083ec:	je     0x408443
  4083ee:	and    DWORD PTR [ebp-0xc4],0x0
  4083f5:	lea    eax,[ebp-0xac]
  4083fb:	lea    edx,[ebp-0xc4]
  408401:	mov    DWORD PTR [ebp-0xb4],ebx
  408407:	mov    ecx,0x408460
  40840c:	mov    DWORD PTR [ebp-0xc0],edi
  408412:	mov    DWORD PTR [ebp-0xbc],0x80
  40841c:	mov    DWORD PTR [ebp-0xb8],eax
  408422:	call   0x405a39
  408427:	mov    esi,eax
  408429:	test   esi,esi
  40842b:	js     0x408443
  40842d:	mov    esi,DWORD PTR [ebp-0xc4]
  408433:	neg    esi
  408435:	sbb    esi,esi
  408437:	and    esi,0x7fffbffb
  40843d:	add    esi,0x80004005
  408443:	mov    ecx,DWORD PTR [ebp-0x4]
  408446:	mov    eax,esi
  408448:	pop    edi
  408449:	pop    esi
  40844a:	xor    ecx,ebp
  40844c:	pop    ebx
  40844d:	call   0x409090
  408452:	mov    esp,ebp
  408454:	pop    ebp
  408455:	ret    0x4
  408458:	int3   
  408459:	int3   
  40845a:	int3   
  40845b:	int3   
  40845c:	int3   
  40845d:	int3   
  40845e:	int3   
  40845f:	int3   
  408460:	mov    edi,edi
  408462:	push   ebp
  408463:	mov    ebp,esp
  408465:	sub    esp,0x48
  408468:	mov    eax,ds:0x40a004
  40846d:	xor    eax,ebp
  40846f:	mov    DWORD PTR [ebp-0x4],eax
  408472:	push   ebx
  408473:	mov    ebx,DWORD PTR [ebp+0x8]
  408476:	lea    eax,[ebp-0x48]
  408479:	push   esi
  40847a:	mov    esi,DWORD PTR [ebp+0xc]
  40847d:	mov    edx,ebx
  40847f:	push   edi
  408480:	xor    edi,edi
  408482:	push   eax
  408483:	mov    ecx,DWORD PTR [esi+0x10]
  408486:	inc    edi
  408487:	call   0x406189
  40848c:	test   eax,eax
  40848e:	js     0x4084fb
  408490:	xor    eax,eax
  408492:	push   0x3e
  408494:	push   eax
  408495:	mov    WORD PTR [ebp-0x44],ax
  408499:	lea    eax,[ebp-0x42]
  40849c:	push   eax
  40849d:	call   0x40986c
  4084a2:	mov    ecx,DWORD PTR [ebp-0x48]
  4084a5:	lea    eax,[ebp-0x44]
  4084a8:	add    esp,0xc
  4084ab:	push   0x20
  4084ad:	push   eax
  4084ae:	push   0x4011a0
  4084b3:	push   0x401190
  4084b8:	call   0x408015
  4084bd:	test   eax,eax
  4084bf:	js     0x4084f2
  4084c1:	push   0xffffffff
  4084c3:	push   DWORD PTR [esi+0xc]
  4084c6:	lea    eax,[ebp-0x44]
  4084c9:	push   0xffffffff
  4084cb:	push   eax
  4084cc:	push   0x0
  4084ce:	push   0x7f
  4084d0:	call   DWORD PTR ds:0x40b0cc
  4084d6:	cmp    eax,0x2
  4084d9:	jne    0x4084f2
  4084db:	mov    edx,DWORD PTR [esi+0x8]
  4084de:	xor    edi,edi
  4084e0:	mov    ecx,DWORD PTR [esi+0x4]
  4084e3:	push   ebx
  4084e4:	call   0x40551b
  4084e9:	xor    ecx,ecx
  4084eb:	test   eax,eax
  4084ed:	setns  cl
  4084f0:	mov    DWORD PTR [esi],ecx
  4084f2:	push   DWORD PTR [ebp-0x48]
  4084f5:	call   DWORD PTR ds:0x40b0c0
  4084fb:	mov    ecx,DWORD PTR [ebp-0x4]
  4084fe:	mov    eax,edi
  408500:	pop    edi
  408501:	pop    esi
  408502:	xor    ecx,ebp
  408504:	pop    ebx
  408505:	call   0x409090
  40850a:	mov    esp,ebp
  40850c:	pop    ebp
  40850d:	ret    0x8
  408510:	int3   
  408511:	int3   
  408512:	int3   
  408513:	int3   
  408514:	int3   
  408515:	mov    edi,edi
  408517:	push   ebp
  408518:	mov    ebp,esp
  40851a:	sub    esp,0x4c
  40851d:	mov    eax,ds:0x40a004
  408522:	xor    eax,ebp
  408524:	mov    DWORD PTR [ebp-0x4],eax
  408527:	mov    eax,DWORD PTR [ebp+0x8]
  40852a:	push   ebx
  40852b:	push   esi
  40852c:	push   edi
  40852d:	mov    DWORD PTR [ebp-0x48],eax
  408530:	mov    edi,edx
  408532:	xor    eax,eax
  408534:	mov    esi,ecx
  408536:	push   0x3e
  408538:	push   eax
  408539:	mov    WORD PTR [ebp-0x44],ax
  40853d:	mov    ebx,0x80004005
  408542:	lea    eax,[ebp-0x42]
  408545:	push   eax
  408546:	call   0x40986c
  40854b:	add    esp,0xc
  40854e:	mov    DWORD PTR [ebp-0x4c],0x40
  408555:	lea    eax,[ebp-0x4c]
  408558:	push   eax
  408559:	lea    eax,[ebp-0x44]
  40855c:	push   eax
  40855d:	push   0x0
  40855f:	push   0x0
  408561:	push   edi
  408562:	push   esi
  408563:	call   DWORD PTR ds:0x40b0c4
  408569:	test   eax,eax
  40856b:	jne    0x40859c
  40856d:	mov    eax,DWORD PTR [ebp+0x10]
  408570:	cmp    eax,0x20
  408573:	jb     0x408578
  408575:	push   0x20
  408577:	pop    eax
  408578:	lea    eax,[eax*2-0x2]
  40857f:	cmp    eax,0x40
  408582:	jae    0x4085b1
  408584:	mov    edx,DWORD PTR [ebp+0xc]
  408587:	xor    ecx,ecx
  408589:	mov    WORD PTR [ebp+eax*1-0x44],cx
  40858e:	lea    eax,[ebp-0x44]
  408591:	mov    ecx,DWORD PTR [ebp-0x48]
  408594:	push   eax
  408595:	call   0x40551b
  40859a:	mov    ebx,eax
  40859c:	mov    ecx,DWORD PTR [ebp-0x4]
  40859f:	mov    eax,ebx
  4085a1:	pop    edi
  4085a2:	pop    esi
  4085a3:	xor    ecx,ebp
  4085a5:	pop    ebx
  4085a6:	call   0x409090
  4085ab:	mov    esp,ebp
  4085ad:	pop    ebp
  4085ae:	ret    0xc
  4085b1:	call   0x4091f5
  4085b6:	int3   
  4085b7:	int3   
  4085b8:	int3   
  4085b9:	int3   
  4085ba:	int3   
  4085bb:	int3   
  4085bc:	mov    edi,edi
  4085be:	push   esi
  4085bf:	push   0x0
  4085c1:	push   0x1
  4085c3:	mov    esi,ecx
  4085c5:	push   0x40159c
  4085ca:	push   esi
  4085cb:	call   DWORD PTR ds:0x40b068
  4085d1:	test   eax,eax
  4085d3:	jne    0x4085d7
  4085d5:	pop    esi
  4085d6:	ret    
  4085d7:	push   eax
  4085d8:	push   esi
  4085d9:	call   DWORD PTR ds:0x40b058
  4085df:	pop    esi
  4085e0:	ret    
  4085e1:	int3   
  4085e2:	int3   
  4085e3:	int3   
  4085e4:	int3   
  4085e5:	int3   
  4085e6:	mov    edi,edi
  4085e8:	push   esi
  4085e9:	mov    esi,edx
  4085eb:	push   edi
  4085ec:	test   ecx,ecx
  4085ee:	je     0x40863c
  4085f0:	test   esi,esi
  4085f2:	je     0x40863c
  4085f4:	call   0x4085bc
  4085f9:	mov    ecx,esi
  4085fb:	mov    edi,eax
  4085fd:	call   0x4085bc
  408602:	mov    esi,eax
  408604:	test   edi,edi
  408606:	je     0x408634
  408608:	test   esi,esi
  40860a:	je     0x408634
  40860c:	mov    eax,0xfecdfecd
  408611:	xor    edx,edx
  408613:	cmp    DWORD PTR [edi],eax
  408615:	jne    0x408630
  408617:	cmp    DWORD PTR [esi],eax
  408619:	jne    0x408630
  40861b:	mov    ecx,edx
  40861d:	mov    eax,DWORD PTR [edi+ecx*4+0x1c]
  408621:	cmp    eax,DWORD PTR [esi+ecx*4+0x1c]
  408625:	jne    0x408630
  408627:	inc    ecx
  408628:	cmp    ecx,0x4
  40862b:	jne    0x40861d
  40862d:	xor    edx,edx
  40862f:	inc    edx
  408630:	mov    eax,edx
  408632:	jmp    0x40863e
  408634:	push   0xd
  408636:	call   DWORD PTR ds:0x40b010
  40863c:	xor    eax,eax
  40863e:	pop    edi
  40863f:	pop    esi
  408640:	ret    
  408641:	int3   
  408642:	int3   
  408643:	int3   
  408644:	int3   
  408645:	int3   
  408646:	mov    edi,edi
  408648:	push   ebp
  408649:	mov    ebp,esp
  40864b:	push   ebx
  40864c:	push   esi
  40864d:	push   edi
  40864e:	test   ecx,ecx
  408650:	jne    0x408656
  408652:	xor    eax,eax
  408654:	jmp    0x4086c2
  408656:	test   edx,edx
  408658:	je     0x4086b0
  40865a:	xor    ebx,ebx
  40865c:	push   ebx
  40865d:	push   ebx
  40865e:	push   0x3
  408660:	push   ebx
  408661:	push   0x5
  408663:	push   0x80000000
  408668:	push   ecx
  408669:	call   DWORD PTR ds:0x40b024
  40866f:	mov    esi,eax
  408671:	cmp    esi,0xffffffff
  408674:	je     0x408652
  408676:	push   ebx
  408677:	push   ebx
  408678:	push   ebx
  408679:	push   0x8
  40867b:	push   ebx
  40867c:	push   esi
  40867d:	call   DWORD PTR ds:0x40b07c
  408683:	push   esi
  408684:	mov    edi,eax
  408686:	call   DWORD PTR ds:0x40b030
  40868c:	test   edi,edi
  40868e:	je     0x408652
  408690:	push   ebx
  408691:	push   ebx
  408692:	push   ebx
  408693:	push   0x1
  408695:	push   edi
  408696:	call   DWORD PTR ds:0x40b084
  40869c:	push   edi
  40869d:	mov    esi,eax
  40869f:	call   DWORD PTR ds:0x40b030
  4086a5:	test   esi,esi
  4086a7:	je     0x408652
  4086a9:	or     esi,0x1
  4086ac:	mov    eax,esi
  4086ae:	jmp    0x4086c2
  4086b0:	xor    eax,eax
  4086b2:	cmp    DWORD PTR [ebp+0x8],eax
  4086b5:	setne  al
  4086b8:	push   eax
  4086b9:	push   0x0
  4086bb:	push   ecx
  4086bc:	call   DWORD PTR ds:0x40b060
  4086c2:	pop    edi
  4086c3:	pop    esi
  4086c4:	pop    ebx
  4086c5:	pop    ebp
  4086c6:	ret    0x4
  4086c9:	int3   
  4086ca:	int3   
  4086cb:	int3   
  4086cc:	int3   
  4086cd:	int3   
  4086ce:	mov    edi,edi
  4086d0:	push   ebp
  4086d1:	mov    ebp,esp
  4086d3:	sub    esp,0x120
  4086d9:	mov    eax,ds:0x40a004
  4086de:	xor    eax,ebp
  4086e0:	mov    DWORD PTR [ebp-0x4],eax
  4086e3:	push   esi
  4086e4:	mov    esi,DWORD PTR ds:0x40a648
  4086ea:	test   esi,esi
  4086ec:	jne    0x4087c6
  4086f2:	push   edi
  4086f3:	mov    edi,0x11c
  4086f8:	lea    eax,[ebp-0x120]
  4086fe:	push   edi
  4086ff:	push   esi
  408700:	push   eax
  408701:	call   0x40986c
  408706:	add    esp,0xc
  408709:	mov    DWORD PTR [ebp-0x120],edi
  40870f:	lea    eax,[ebp-0x120]
  408715:	push   eax
  408716:	call   DWORD PTR ds:0x40b0f8
  40871c:	pop    edi
  40871d:	test   eax,eax
  40871f:	jne    0x408738
  408721:	lea    eax,[ebp-0x120]
  408727:	mov    DWORD PTR [ebp-0x120],0x114
  408731:	push   eax
  408732:	call   DWORD PTR ds:0x40b0f8
  408738:	mov    eax,DWORD PTR [ebp-0x110]
  40873e:	mov    DWORD PTR ds:0x40a648,esi
  408744:	sub    eax,0x1
  408747:	je     0x4087a0
  408749:	sub    eax,0x1
  40874c:	jne    0x4087c6
  40874e:	cmp    DWORD PTR [ebp-0x11c],0x5
  408755:	jne    0x40878e
  408757:	mov    eax,DWORD PTR [ebp-0x118]
  40875d:	sub    eax,esi
  40875f:	je     0x40878a
  408761:	sub    eax,0x1
  408764:	je     0x40877f
  408766:	sub    eax,0x1
  408769:	je     0x408770
  40876b:	push   0x14
  40876d:	pop    esi
  40876e:	jmp    0x4087c0
  408770:	cmp    WORD PTR [ebp-0xc],0x1
  408775:	jb     0x40877a
  408777:	push   0x10
  408779:	pop    esi
  40877a:	or     esi,0x4
  40877d:	jmp    0x4087c0
  40877f:	cmp    WORD PTR [ebp-0xc],0x2
  408784:	jb     0x40877a
  408786:	push   0x8
  408788:	jmp    0x408779
  40878a:	push   0x4
  40878c:	jmp    0x40876d
  40878e:	cmp    DWORD PTR [ebp-0x11c],0x4
  408795:	ja     0x4087d7
  408797:	push   0x2
  408799:	pop    esi
  40879a:	mov    DWORD PTR ds:0x40a648,esi
  4087a0:	cmp    DWORD PTR [ebp-0x11c],0x4
  4087a7:	jne    0x4087c6
  4087a9:	mov    eax,DWORD PTR [ebp-0x118]
  4087af:	test   eax,eax
  4087b1:	je     0x4087bd
  4087b3:	cmp    eax,0xa
  4087b6:	je     0x4087bd
  4087b8:	cmp    eax,0x5a
  4087bb:	jne    0x4087c6
  4087bd:	xor    esi,esi
  4087bf:	inc    esi
  4087c0:	mov    DWORD PTR ds:0x40a648,esi
  4087c6:	mov    ecx,DWORD PTR [ebp-0x4]
  4087c9:	mov    eax,esi
  4087cb:	xor    ecx,ebp
  4087cd:	pop    esi
  4087ce:	call   0x409090
  4087d3:	mov    esp,ebp
  4087d5:	pop    ebp
  4087d6:	ret    
  4087d7:	push   0x20
  4087d9:	jmp    0x40876d
  4087db:	int3   
  4087dc:	int3   
  4087dd:	int3   
  4087de:	int3   
  4087df:	int3   
  4087e0:	mov    edi,edi
  4087e2:	push   ebp
  4087e3:	mov    ebp,esp
  4087e5:	sub    esp,0x20c
  4087eb:	mov    eax,ds:0x40a004
  4087f0:	xor    eax,ebp
  4087f2:	mov    DWORD PTR [ebp-0x4],eax
  4087f5:	push   edi
  4087f6:	mov    edi,DWORD PTR [ebp+0x8]
  4087f9:	test   edi,edi
  4087fb:	jne    0x408801
  4087fd:	xor    eax,eax
  4087ff:	jmp    0x40886e
  408801:	push   ebx
  408802:	lea    eax,[ebp+0x10]
  408805:	mov    edx,0x104
  40880a:	push   eax
  40880b:	push   DWORD PTR [ebp+0xc]
  40880e:	xor    ebx,ebx
  408810:	push   ecx
  408811:	lea    ecx,[ebp-0x20c]
  408817:	call   0x404cee
  40881c:	test   eax,eax
  40881e:	js     0x40886b
  408820:	push   esi
  408821:	call   0x4086ce
  408826:	mov    esi,eax
  408828:	and    esi,0x26
  40882b:	call   0x4086ce
  408830:	and    eax,0x38
  408833:	lea    ecx,[ebp-0x20c]
  408839:	push   esi
  40883a:	mov    edx,eax
  40883c:	call   0x408646
  408841:	mov    ebx,eax
  408843:	pop    esi
  408844:	test   ebx,ebx
  408846:	je     0x40886b
  408848:	mov    edx,ebx
  40884a:	mov    ecx,edi
  40884c:	call   0x4085e6
  408851:	test   eax,eax
  408853:	jne    0x40886b
  408855:	push   ebx
  408856:	test   bl,0x1
  408859:	je     0x408863
  40885b:	call   DWORD PTR ds:0x40b080
  408861:	jmp    0x408869
  408863:	call   DWORD PTR ds:0x40b05c
  408869:	xor    ebx,ebx
  40886b:	mov    eax,ebx
  40886d:	pop    ebx
  40886e:	mov    ecx,DWORD PTR [ebp-0x4]
  408871:	xor    ecx,ebp
  408873:	pop    edi
  408874:	call   0x409090
  408879:	mov    esp,ebp
  40887b:	pop    ebp
  40887c:	ret    
  40887d:	int3   
  40887e:	int3   
  40887f:	int3   
  408880:	int3   
  408881:	int3   
  408882:	mov    edi,edi
  408884:	push   ebp
  408885:	mov    ebp,esp
  408887:	mov    eax,DWORD PTR [ebp+0xc]
  40888a:	test   eax,eax
  40888c:	je     0x4088e2
  40888e:	test   ecx,ecx
  408890:	je     0x4088e2
  408892:	push   eax
  408893:	test   edx,edx
  408895:	je     0x4088c2
  408897:	cmp    DWORD PTR [ebp+0x8],0x0
  40889b:	je     0x4088b1
  40889d:	push   DWORD PTR [ebp+0x8]
  4088a0:	push   edx
  4088a1:	push   0x4015a4
  4088a6:	push   ecx
  4088a7:	call   0x4087e0
  4088ac:	add    esp,0x14
  4088af:	jmp    0x4088e4
  4088b1:	push   edx
  4088b2:	push   0x4015c0
  4088b7:	push   ecx
  4088b8:	call   0x4087e0
  4088bd:	add    esp,0x10
  4088c0:	jmp    0x4088e4
  4088c2:	cmp    DWORD PTR [ebp+0x8],0x0
  4088c6:	je     0x4088d2
  4088c8:	push   DWORD PTR [ebp+0x8]
  4088cb:	push   0x4015d4
  4088d0:	jmp    0x4088b7
  4088d2:	push   0x4015ec
  4088d7:	push   ecx
  4088d8:	call   0x4087e0
  4088dd:	add    esp,0xc
  4088e0:	jmp    0x4088e4
  4088e2:	xor    eax,eax
  4088e4:	pop    ebp
  4088e5:	ret    0x8
  4088e8:	int3   
  4088e9:	int3   
  4088ea:	int3   
  4088eb:	int3   
  4088ec:	int3   
  4088ed:	mov    edi,edi
  4088ef:	push   ebp
  4088f0:	mov    ebp,esp
  4088f2:	push   ecx
  4088f3:	push   ebx
  4088f4:	push   edi
  4088f5:	mov    edi,ecx
  4088f7:	mov    ebx,edx
  4088f9:	test   edi,edi
  4088fb:	je     0x4089c6
  408901:	test   ebx,ebx
  408903:	je     0x4089c6
  408909:	cmp    DWORD PTR [ebp+0x8],0x0
  40890d:	je     0x4089c6
  408913:	push   esi
  408914:	xor    eax,eax
  408916:	mov    edx,eax
  408918:	push   0x19
  40891a:	mov    DWORD PTR [ebp-0x4],edx
  40891d:	pop    esi
  40891e:	movzx  ecx,WORD PTR [edi]
  408921:	lea    eax,[ecx-0x61]
  408924:	cmp    ax,si
  408927:	ja     0x40892e
  408929:	lea    eax,[ecx-0x61]
  40892c:	jmp    0x408939
  40892e:	lea    eax,[ecx-0x41]
  408931:	cmp    ax,si
  408934:	ja     0x408971
  408936:	lea    eax,[ecx-0x41]
  408939:	cmp    eax,0x1a
  40893c:	jae    0x408971
  40893e:	mov    esi,DWORD PTR [eax*4+0x401650]
  408945:	test   esi,esi
  408947:	je     0x40896e
  408949:	mov    eax,DWORD PTR [esi]
  40894b:	xor    ecx,ecx
  40894d:	cmp    WORD PTR [eax],cx
  408950:	je     0x40896e
  408952:	push   eax
  408953:	push   edi
  408954:	call   0x4090a6
  408959:	pop    ecx
  40895a:	pop    ecx
  40895b:	test   eax,eax
  40895d:	je     0x40897e
  40895f:	add    esi,0x8
  408962:	xor    ecx,ecx
  408964:	mov    eax,DWORD PTR [esi]
  408966:	cmp    WORD PTR [eax],cx
  408969:	jne    0x408952
  40896b:	mov    edx,DWORD PTR [ebp-0x4]
  40896e:	push   0x19
  408970:	pop    esi
  408971:	inc    edx
  408972:	mov    edi,ebx
  408974:	mov    DWORD PTR [ebp-0x4],edx
  408977:	cmp    edx,0x2
  40897a:	jl     0x40891e
  40897c:	jmp    0x4089c5
  40897e:	mov    ecx,DWORD PTR [esi+0x4]
  408981:	xor    ebx,ebx
  408983:	lea    edx,[ecx+0x2]
  408986:	mov    ax,WORD PTR [ecx]
  408989:	add    ecx,0x2
  40898c:	cmp    ax,bx
  40898f:	jne    0x408986
  408991:	sub    ecx,edx
  408993:	sar    ecx,1
  408995:	cmp    ecx,0x55
  408998:	jae    0x4089c5
  40899a:	mov    ecx,DWORD PTR [esi+0x4]
  40899d:	lea    edx,[ecx+0x2]
  4089a0:	mov    ax,WORD PTR [ecx]
  4089a3:	add    ecx,0x2
  4089a6:	cmp    ax,bx
  4089a9:	jne    0x4089a0
  4089ab:	sub    ecx,edx
  4089ad:	sar    ecx,1
  4089af:	lea    eax,[ecx*2+0x2]
  4089b6:	push   eax
  4089b7:	push   DWORD PTR [esi+0x4]
  4089ba:	push   DWORD PTR [ebp+0x8]
  4089bd:	call   0x409860
  4089c2:	add    esp,0xc
  4089c5:	pop    esi
  4089c6:	pop    edi
  4089c7:	pop    ebx
  4089c8:	mov    esp,ebp
  4089ca:	pop    ebp
  4089cb:	ret    0x4
  4089ce:	int3   
  4089cf:	int3   
  4089d0:	int3   
  4089d1:	int3   
  4089d2:	int3   
  4089d3:	mov    edi,edi
  4089d5:	push   ebp
  4089d6:	mov    ebp,esp
  4089d8:	push   esi
  4089d9:	mov    esi,edx
  4089db:	test   esi,esi
  4089dd:	je     0x408a18
  4089df:	cmp    DWORD PTR [ebp+0x8],0x0
  4089e3:	je     0x408a18
  4089e5:	push   0x55
  4089e7:	call   0x408c6b
  4089ec:	test   eax,eax
  4089ee:	je     0x408a18
  4089f0:	mov    edx,DWORD PTR [ebp+0x8]
  4089f3:	push   ecx
  4089f4:	push   ecx
  4089f5:	mov    ecx,esi
  4089f7:	call   0x408cf6
  4089fc:	mov    eax,DWORD PTR [ebp+0xc]
  4089ff:	test   eax,eax
  408a01:	je     0x408a13
  408a03:	mov    edx,DWORD PTR [ebp+0x8]
  408a06:	xor    ecx,ecx
  408a08:	mov    WORD PTR [eax],cx
  408a0b:	mov    ecx,esi
  408a0d:	push   eax
  408a0e:	call   0x4088ed
  408a13:	xor    eax,eax
  408a15:	inc    eax
  408a16:	jmp    0x408a1a
  408a18:	xor    eax,eax
  408a1a:	pop    esi
  408a1b:	pop    ebp
  408a1c:	ret    0x8
  408a1f:	int3   
  408a20:	int3   
  408a21:	int3   
  408a22:	int3   
  408a23:	int3   
  408a24:	mov    edi,edi
  408a26:	push   ebp
  408a27:	mov    ebp,esp
  408a29:	sub    esp,0x36c
  408a2f:	mov    eax,ds:0x40a004
  408a34:	xor    eax,ebp
  408a36:	mov    DWORD PTR [ebp-0x4],eax
  408a39:	push   esi
  408a3a:	push   edi
  408a3b:	mov    esi,ecx
  408a3d:	xor    edi,edi
  408a3f:	mov    DWORD PTR [ebp-0x368],edi
  408a45:	test   esi,esi
  408a47:	jne    0x408a50
  408a49:	xor    eax,eax
  408a4b:	jmp    0x408ba4
  408a50:	push   ebx
  408a51:	call   0x4086ce
  408a56:	mov    ds:0x40a64c,eax
  408a5b:	movzx  eax,al
  408a5e:	and    eax,0x20
  408a61:	or     eax,0x2
  408a64:	push   eax
  408a65:	push   edi
  408a66:	push   esi
  408a67:	call   DWORD PTR ds:0x40b060
  408a6d:	mov    ebx,eax
  408a6f:	test   ebx,ebx
  408a71:	je     0x408ba1
  408a77:	test   BYTE PTR ds:0x40a64c,0x20
  408a7e:	jne    0x408ba3
  408a84:	lea    eax,[ebp-0x368]
  408a8a:	push   eax
  408a8b:	lea    eax,[ebp-0x2b8]
  408a91:	push   eax
  408a92:	push   0x104
  408a97:	push   edi
  408a98:	push   esi
  408a99:	push   edi
  408a9a:	call   DWORD PTR ds:0x40b090
  408aa0:	test   eax,eax
  408aa2:	je     0x408b9a
  408aa8:	mov    eax,DWORD PTR [ebp-0x368]
  408aae:	test   eax,eax
  408ab0:	jne    0x408ac0
  408ab2:	lea    eax,[ebp-0x2b8]
  408ab8:	mov    DWORD PTR [ebp-0x368],eax
  408abe:	jmp    0x408acc
  408ac0:	xor    ecx,ecx
  408ac2:	lea    edi,[ebp-0x2b8]
  408ac8:	mov    WORD PTR [eax-0x2],cx
  408acc:	push   0x0
  408ace:	push   0x1
  408ad0:	push   0x40159c
  408ad5:	push   ebx
  408ad6:	call   DWORD PTR ds:0x40b068
  408adc:	test   eax,eax
  408ade:	je     0x408b35
  408ae0:	test   BYTE PTR ds:0x40a64c,0x7
  408ae7:	je     0x408b35
  408ae9:	push   0x0
  408aeb:	lea    eax,[ebp-0x364]
  408af1:	mov    ecx,0x400
  408af6:	push   eax
  408af7:	lea    edx,[ebp-0xb0]
  408afd:	call   0x4089d3
  408b02:	test   eax,eax
  408b04:	je     0x408b35
  408b06:	push   DWORD PTR [ebp-0x368]
  408b0c:	lea    eax,[ebp-0xb0]
  408b12:	mov    edx,edi
  408b14:	push   eax
  408b15:	mov    ecx,ebx
  408b17:	call   0x408882
  408b1c:	mov    DWORD PTR [ebp-0x36c],eax
  408b22:	test   eax,eax
  408b24:	je     0x408b35
  408b26:	push   ebx
  408b27:	call   DWORD PTR ds:0x40b05c
  408b2d:	mov    eax,DWORD PTR [ebp-0x36c]
  408b33:	jmp    0x408ba3
  408b35:	test   bl,0x1
  408b38:	je     0x408b96
  408b3a:	push   ebx
  408b3b:	call   DWORD PTR ds:0x40b05c
  408b41:	call   0x4086ce
  408b46:	test   al,0x38
  408b48:	je     0x408b7c
  408b4a:	push   DWORD PTR [ebp-0x368]
  408b50:	lea    eax,[ebp-0x2b8]
  408b56:	push   edi
  408b57:	push   0x401600
  408b5c:	push   0x104
  408b61:	push   eax
  408b62:	call   0x404ca5
  408b67:	add    esp,0x14
  408b6a:	lea    ecx,[ebp-0x2b8]
  408b70:	xor    edx,edx
  408b72:	inc    edx
  408b73:	push   0x0
  408b75:	call   0x408646
  408b7a:	jmp    0x408b94
  408b7c:	call   0x4086ce
  408b81:	push   0x0
  408b83:	and    eax,0x26
  408b86:	pop    eax
  408b87:	setne  al
  408b8a:	push   eax
  408b8b:	push   0x0
  408b8d:	push   esi
  408b8e:	call   DWORD PTR ds:0x40b060
  408b94:	mov    ebx,eax
  408b96:	mov    eax,ebx
  408b98:	jmp    0x408ba3
  408b9a:	push   ebx
  408b9b:	call   DWORD PTR ds:0x40b05c
  408ba1:	xor    eax,eax
  408ba3:	pop    ebx
  408ba4:	mov    ecx,DWORD PTR [ebp-0x4]
  408ba7:	pop    edi
  408ba8:	xor    ecx,ebp
  408baa:	pop    esi
  408bab:	call   0x409090
  408bb0:	mov    esp,ebp
  408bb2:	pop    ebp
  408bb3:	ret    0x4
  408bb6:	int3   
  408bb7:	int3   
  408bb8:	int3   
  408bb9:	int3   
  408bba:	int3   
  408bbb:	mov    edi,edi
  408bbd:	push   ebp
  408bbe:	mov    ebp,esp
  408bc0:	push   edi
  408bc1:	mov    edi,DWORD PTR [ebp+0xc]
  408bc4:	cmp    edi,0x7ffffffe
  408bca:	jbe    0x408bd3
  408bcc:	mov    edx,0x80070057
  408bd1:	jmp    0x408c08
  408bd3:	push   ebx
  408bd4:	mov    ebx,DWORD PTR [ebp+0x8]
  408bd7:	xor    edx,edx
  408bd9:	push   esi
  408bda:	push   0x55
  408bdc:	pop    esi
  408bdd:	sub    ebx,ecx
  408bdf:	lea    eax,[edi-0x55]
  408be2:	add    eax,esi
  408be4:	je     0x408bfa
  408be6:	movzx  eax,WORD PTR [ebx+ecx*1]
  408bea:	test   ax,ax
  408bed:	je     0x408bfa
  408bef:	mov    WORD PTR [ecx],ax
  408bf2:	add    ecx,0x2
  408bf5:	sub    esi,0x1
  408bf8:	jne    0x408bdf
  408bfa:	test   esi,esi
  408bfc:	pop    esi
  408bfd:	pop    ebx
  408bfe:	jne    0x408c08
  408c00:	sub    ecx,0x2
  408c03:	mov    edx,0x8007007a
  408c08:	xor    eax,eax
  408c0a:	mov    WORD PTR [ecx],ax
  408c0d:	mov    eax,edx
  408c0f:	pop    edi
  408c10:	pop    ebp
  408c11:	ret    0x8
  408c14:	int3   
  408c15:	int3   
  408c16:	int3   
  408c17:	int3   
  408c18:	int3   
  408c19:	int3   
  408c1a:	int3   
  408c1b:	int3   
  408c1c:	int3   
  408c1d:	int3   
  408c1e:	int3   
  408c1f:	int3   
  408c20:	mov    edi,edi
  408c22:	push   ebp
  408c23:	mov    ebp,esp
  408c25:	mov    eax,DWORD PTR [ebp+0x8]
  408c28:	movzx  ecx,WORD PTR [eax]
  408c2b:	mov    eax,DWORD PTR [ebp+0xc]
  408c2e:	movzx  eax,WORD PTR [eax]
  408c31:	cmp    ax,cx
  408c34:	jne    0x408c3a
  408c36:	xor    eax,eax
  408c38:	pop    ebp
  408c39:	ret    
  408c3a:	sbb    eax,eax
  408c3c:	and    eax,0x2
  408c3f:	dec    eax
  408c40:	pop    ebp
  408c41:	ret    
  408c42:	int3   
  408c43:	int3   
  408c44:	int3   
  408c45:	int3   
  408c46:	int3   
  408c47:	int3   
  408c48:	int3   
  408c49:	int3   
  408c4a:	int3   
  408c4b:	int3   
  408c4c:	int3   
  408c4d:	int3   
  408c4e:	int3   
  408c4f:	int3   
  408c50:	mov    edi,edi
  408c52:	push   ebp
  408c53:	mov    ebp,esp
  408c55:	mov    eax,DWORD PTR [ebp+0xc]
  408c58:	push   DWORD PTR [eax]
  408c5a:	push   DWORD PTR [ebp+0x8]
  408c5d:	call   0x4090a6
  408c62:	pop    ecx
  408c63:	pop    ecx
  408c64:	pop    ebp
  408c65:	ret    
  408c66:	int3   
  408c67:	int3   
  408c68:	int3   
  408c69:	int3   
  408c6a:	int3   
  408c6b:	mov    edi,edi
  408c6d:	push   ebp
  408c6e:	mov    ebp,esp
  408c70:	push   ecx
  408c71:	push   esi
  408c72:	mov    esi,edx
  408c74:	mov    WORD PTR [ebp-0x4],cx
  408c78:	test   esi,esi
  408c7a:	jne    0x408c8d
  408c7c:	cmp    DWORD PTR [ebp+0x8],edx
  408c7f:	je     0x408c8d
  408c81:	push   0x57
  408c83:	call   DWORD PTR ds:0x40b010
  408c89:	xor    eax,eax
  408c8b:	jmp    0x408cea
  408c8d:	push   0x408c20
  408c92:	push   0xc
  408c94:	push   0x19c
  408c99:	lea    eax,[ebp-0x4]
  408c9c:	push   0x4029a0
  408ca1:	push   eax
  408ca2:	call   DWORD PTR ds:0x40b170
  408ca8:	add    esp,0x14
  408cab:	test   eax,eax
  408cad:	je     0x408c81
  408caf:	mov    edx,DWORD PTR [eax+0x4]
  408cb2:	mov    ecx,edx
  408cb4:	push   edi
  408cb5:	lea    edi,[ecx+0x2]
  408cb8:	mov    ax,WORD PTR [ecx]
  408cbb:	add    ecx,0x2
  408cbe:	test   ax,ax
  408cc1:	jne    0x408cb8
  408cc3:	sub    ecx,edi
  408cc5:	sar    ecx,1
  408cc7:	lea    edi,[ecx+0x1]
  408cca:	test   esi,esi
  408ccc:	je     0x408ce7
  408cce:	push   edi
  408ccf:	push   edx
  408cd0:	mov    ecx,esi
  408cd2:	call   0x408bbb
  408cd7:	test   eax,eax
  408cd9:	jns    0x408ce7
  408cdb:	push   0x7a
  408cdd:	call   DWORD PTR ds:0x40b010
  408ce3:	xor    eax,eax
  408ce5:	jmp    0x408ce9
  408ce7:	mov    eax,edi
  408ce9:	pop    edi
  408cea:	pop    esi
  408ceb:	mov    esp,ebp
  408ced:	pop    ebp
  408cee:	ret    0x4
  408cf1:	int3   
  408cf2:	int3   
  408cf3:	int3   
  408cf4:	int3   
  408cf5:	int3   
  408cf6:	mov    edi,edi
  408cf8:	push   esi
  408cf9:	mov    esi,edx
  408cfb:	push   edi
  408cfc:	test   ecx,ecx
  408cfe:	je     0x408d61
  408d00:	test   esi,esi
  408d02:	je     0x408d61
  408d04:	push   0x408c50
  408d09:	push   0x8
  408d0b:	push   0x19c
  408d10:	push   0x403cf0
  408d15:	push   ecx
  408d16:	call   DWORD PTR ds:0x40b170
  408d1c:	add    esp,0x14
  408d1f:	test   eax,eax
  408d21:	je     0x408d61
  408d23:	imul   eax,DWORD PTR [eax+0x4],0xc
  408d27:	mov    ecx,0x4029a0
  408d2c:	imul   eax,DWORD PTR [eax+ecx*1+0x8],0xc
  408d31:	mov    edx,DWORD PTR [eax+ecx*1+0x4]
  408d35:	mov    ecx,edx
  408d37:	lea    edi,[ecx+0x2]
  408d3a:	mov    ax,WORD PTR [ecx]
  408d3d:	add    ecx,0x2
  408d40:	test   ax,ax
  408d43:	jne    0x408d3a
  408d45:	sub    ecx,edi
  408d47:	sar    ecx,1
  408d49:	lea    edi,[ecx+0x1]
  408d4c:	mov    ecx,esi
  408d4e:	push   edi
  408d4f:	push   edx
  408d50:	call   0x408bbb
  408d55:	test   eax,eax
  408d57:	jns    0x408d5d
  408d59:	push   0x7a
  408d5b:	jmp    0x408d63
  408d5d:	mov    eax,edi
  408d5f:	jmp    0x408d6b
  408d61:	push   0x57
  408d63:	call   DWORD PTR ds:0x40b010
  408d69:	xor    eax,eax
  408d6b:	pop    edi
  408d6c:	pop    esi
  408d6d:	ret    0x8
  408d70:	int3   
  408d71:	int3   
  408d72:	int3   
  408d73:	int3   
  408d74:	int3   
  408d75:	mov    edi,edi
  408d77:	push   ebp
  408d78:	mov    ebp,esp
  408d7a:	push   esi
  408d7b:	jmp    0x408d8a
  408d7d:	push   DWORD PTR [ebp+0x8]
  408d80:	call   0x4092c0
  408d85:	pop    ecx
  408d86:	test   eax,eax
  408d88:	je     0x408d99
  408d8a:	push   DWORD PTR [ebp+0x8]
  408d8d:	call   0x4092b4
  408d92:	mov    esi,eax
  408d94:	pop    ecx
  408d95:	test   esi,esi
  408d97:	je     0x408d7d
  408d99:	mov    eax,esi
  408d9b:	pop    esi
  408d9c:	pop    ebp
  408d9d:	ret    
  408d9e:	int3   
  408d9f:	int3   
  408da0:	int3   
  408da1:	int3   
  408da2:	int3   
  408da3:	int3   
  408da4:	int3   
  408da5:	int3   
  408da6:	int3   
  408da7:	int3   
  408da8:	int3   
  408da9:	int3   
  408daa:	int3   
  408dab:	int3   
  408dac:	int3   
  408dad:	int3   
  408dae:	int3   
  408daf:	int3   
  408db0:	mov    eax,0x5a4d
  408db5:	cmp    WORD PTR ds:0x400000,ax
  408dbc:	je     0x408dc2
  408dbe:	xor    eax,eax
  408dc0:	jmp    0x408e10
  408dc2:	mov    ecx,DWORD PTR ds:0x40003c
  408dc8:	cmp    DWORD PTR [ecx+0x400000],0x4550
  408dd2:	jne    0x408dbe
  408dd4:	movzx  eax,WORD PTR [ecx+0x400018]
  408ddb:	cmp    eax,0x10b
  408de0:	je     0x408dfc
  408de2:	cmp    eax,0x20b
  408de7:	jne    0x408dbe
  408de9:	xor    eax,eax
  408deb:	cmp    DWORD PTR [ecx+0x400084],0xe
  408df2:	jbe    0x408e10
  408df4:	cmp    DWORD PTR [ecx+0x4000f8],eax
  408dfa:	jmp    0x408e0d
  408dfc:	xor    eax,eax
  408dfe:	cmp    DWORD PTR [ecx+0x400074],0xe
  408e05:	jbe    0x408e10
  408e07:	cmp    DWORD PTR [ecx+0x4000e8],eax
  408e0d:	setne  al
  408e10:	push   0x1
  408e12:	mov    ds:0x40a028,eax
  408e17:	call   0x4093ae
  408e1c:	push   eax
  408e1d:	call   DWORD PTR ds:0x40b184
  408e23:	or     DWORD PTR ds:0x40a650,0xffffffff
  408e2a:	or     DWORD PTR ds:0x40a654,0xffffffff
  408e31:	pop    ecx
  408e32:	pop    ecx
  408e33:	call   DWORD PTR ds:0x40b174
  408e39:	mov    ecx,DWORD PTR ds:0x40a358
  408e3f:	mov    DWORD PTR [eax],ecx
  408e41:	call   DWORD PTR ds:0x40b190
  408e47:	mov    ecx,DWORD PTR ds:0x40a34c
  408e4d:	mov    DWORD PTR [eax],ecx
  408e4f:	call   0x409600
  408e54:	cmp    DWORD PTR ds:0x40a000,0x0
  408e5b:	jne    0x408e69
  408e5d:	push   0x409600
  408e62:	call   DWORD PTR ds:0x40b1ac
  408e68:	pop    ecx
  408e69:	call   0x409608
  408e6e:	xor    eax,eax
  408e70:	ret    
  408e71:	int3   
  408e72:	int3   
  408e73:	int3   
  408e74:	int3   
  408e75:	int3   
  408e76:	int3   
  408e77:	int3   
  408e78:	int3   
  408e79:	int3   
  408e7a:	int3   
  408e7b:	int3   
  408e7c:	int3   
  408e7d:	int3   
  408e7e:	int3   
  408e7f:	int3   
  408e80:	mov    eax,ds:0x40a354
  408e85:	push   0x40a02c
  408e8a:	push   DWORD PTR ds:0x40a350
  408e90:	mov    ds:0x40a02c,eax
  408e95:	push   0x40a020
  408e9a:	push   0x40a01c
  408e9f:	push   0x40a018
  408ea4:	call   DWORD PTR ds:0x40b188
  408eaa:	add    esp,0x14
  408ead:	mov    ds:0x40a024,eax
  408eb2:	ret    
  408eb3:	int3   
  408eb4:	int3   
  408eb5:	int3   
  408eb6:	int3   
  408eb7:	int3   
  408eb8:	push   0x10
  408eba:	push   0x409878
  408ebf:	call   0x40962c
  408ec4:	xor    ebx,ebx
  408ec6:	mov    DWORD PTR [ebp-0x4],ebx
  408ec9:	mov    eax,fs:0x18
  408ecf:	mov    esi,DWORD PTR [eax+0x4]
  408ed2:	mov    edi,ebx
  408ed4:	mov    edx,0x40a658
  408ed9:	mov    ecx,esi
  408edb:	xor    eax,eax
  408edd:	lock cmpxchg DWORD PTR [edx],ecx
  408ee1:	test   eax,eax
  408ee3:	je     0x408efd
  408ee5:	cmp    eax,esi
  408ee7:	jne    0x408ef0
  408ee9:	xor    esi,esi
  408eeb:	inc    esi
  408eec:	mov    edi,esi
  408eee:	jmp    0x408f00
  408ef0:	push   0x3e8
  408ef5:	call   DWORD PTR ds:0x40b0e0
  408efb:	jmp    0x408ed4
  408efd:	xor    esi,esi
  408eff:	inc    esi
  408f00:	cmp    DWORD PTR ds:0x40a65c,esi
  408f06:	jne    0x408f12
  408f08:	push   0x1f
  408f0a:	call   0x4093ea
  408f0f:	pop    ecx
  408f10:	jmp    0x408f4c
  408f12:	cmp    DWORD PTR ds:0x40a65c,ebx
  408f18:	jne    0x408f46
  408f1a:	mov    DWORD PTR ds:0x40a65c,esi
  408f20:	push   0x401018
  408f25:	push   0x40100c
  408f2a:	call   0x40902c
  408f2f:	pop    ecx
  408f30:	pop    ecx
  408f31:	test   eax,eax
  408f33:	je     0x408f4c
  408f35:	mov    DWORD PTR [ebp-0x4],0xfffffffe
  408f3c:	mov    eax,0xff
  408f41:	jmp    0x409021
  408f46:	mov    DWORD PTR ds:0x40a014,esi
  408f4c:	cmp    DWORD PTR ds:0x40a65c,esi
  408f52:	jne    0x408f6f
  408f54:	push   0x401008
  408f59:	push   0x401000
  408f5e:	call   0x409620
  408f63:	pop    ecx
  408f64:	pop    ecx
  408f65:	mov    DWORD PTR ds:0x40a65c,0x2
  408f6f:	test   edi,edi
  408f71:	jne    0x408f7c
  408f73:	xor    eax,eax
  408f75:	mov    ecx,0x40a658
  408f7a:	xchg   DWORD PTR [ecx],eax
  408f7c:	cmp    DWORD PTR ds:0x40a660,0x0
  408f83:	je     0x408fa8
  408f85:	push   0x40a660
  408f8a:	call   0x409450
  408f8f:	pop    ecx
  408f90:	test   eax,eax
  408f92:	je     0x408fa8
  408f94:	push   ebx
  408f95:	push   0x2
  408f97:	push   ebx
  408f98:	mov    esi,DWORD PTR ds:0x40a660
  408f9e:	mov    ecx,esi
  408fa0:	call   DWORD PTR ds:0x40b1bc
  408fa6:	call   esi
  408fa8:	push   DWORD PTR ds:0x40a020
  408fae:	push   DWORD PTR ds:0x40a01c
  408fb4:	push   DWORD PTR ds:0x40a018
  408fba:	call   0x4051fd
  408fbf:	add    esp,0xc
  408fc2:	mov    ds:0x40a010,eax
  408fc7:	cmp    DWORD PTR ds:0x40a028,0x0
  408fce:	jne    0x409006
  408fd0:	push   eax
  408fd1:	call   DWORD PTR ds:0x40b180
  408fd7:	mov    ecx,DWORD PTR [ebp-0x14]
  408fda:	mov    eax,DWORD PTR [ecx]
  408fdc:	mov    eax,DWORD PTR [eax]
  408fde:	mov    DWORD PTR [ebp-0x20],eax
  408fe1:	push   ecx
  408fe2:	push   eax
  408fe3:	call   0x409334
  408fe8:	pop    ecx
  408fe9:	pop    ecx
  408fea:	ret    
  408feb:	mov    esp,DWORD PTR [ebp-0x18]
  408fee:	mov    eax,DWORD PTR [ebp-0x20]
  408ff1:	mov    ds:0x40a010,eax
  408ff6:	cmp    DWORD PTR ds:0x40a028,0x0
  408ffd:	jne    0x409006
  408fff:	push   eax
  409000:	call   DWORD PTR ds:0x40b17c
  409006:	cmp    DWORD PTR ds:0x40a014,0x0
  40900d:	jne    0x40901a
  40900f:	call   DWORD PTR ds:0x40b178
  409015:	mov    eax,ds:0x40a010
  40901a:	mov    DWORD PTR [ebp-0x4],0xfffffffe
  409021:	call   0x409674
  409026:	ret    
  409027:	int3   
  409028:	int3   
  409029:	int3   
  40902a:	int3   
  40902b:	int3   
  40902c:	mov    edi,edi
  40902e:	push   ebp
  40902f:	mov    ebp,esp
  409031:	push   ecx
  409032:	mov    eax,ds:0x40a004
  409037:	xor    eax,ebp
  409039:	mov    DWORD PTR [ebp-0x4],eax
  40903c:	push   esi
  40903d:	mov    esi,DWORD PTR [ebp+0x8]
  409040:	xor    eax,eax
  409042:	cmp    esi,DWORD PTR [ebp+0xc]
  409045:	jae    0x409065
  409047:	push   edi
  409048:	test   eax,eax
  40904a:	jne    0x409064
  40904c:	mov    edi,DWORD PTR [esi]
  40904e:	test   edi,edi
  409050:	je     0x40905c
  409052:	mov    ecx,edi
  409054:	call   DWORD PTR ds:0x40b1bc
  40905a:	call   edi
  40905c:	add    esi,0x4
  40905f:	cmp    esi,DWORD PTR [ebp+0xc]
  409062:	jb     0x409048
  409064:	pop    edi
  409065:	mov    ecx,DWORD PTR [ebp-0x4]
  409068:	xor    ecx,ebp
  40906a:	pop    esi
  40906b:	call   0x409090
  409070:	mov    esp,ebp
  409072:	pop    ebp
  409073:	ret    
  409074:	int3   
  409075:	int3   
  409076:	int3   
  409077:	int3   
  409078:	int3   
  409079:	int3   
  40907a:	int3   
  40907b:	int3   
  40907c:	int3   
  40907d:	int3   
  40907e:	int3   
  40907f:	int3   
  409080:	call   0x409558
  409085:	jmp    0x408eb8
  40908a:	int3   
  40908b:	int3   
  40908c:	int3   
  40908d:	int3   
  40908e:	int3   
  40908f:	int3   
  409090:	cmp    ecx,DWORD PTR ds:0x40a004
  409096:	jne    0x40909b
  409098:	ret    0x0
  40909b:	jmp    0x4090e0
  4090a0:	int3   
  4090a1:	int3   
  4090a2:	int3   
  4090a3:	int3   
  4090a4:	int3   
  4090a5:	int3   
  4090a6:	jmp    DWORD PTR ds:0x40b160
  4090ac:	int3   
  4090ad:	int3   
  4090ae:	int3   
  4090af:	int3   
  4090b0:	int3   
  4090b1:	mov    edi,edi
  4090b3:	push   ebp
  4090b4:	mov    ebp,esp
  4090b6:	push   0x0
  4090b8:	call   DWORD PTR ds:0x40b01c
  4090be:	push   DWORD PTR [ebp+0x8]
  4090c1:	call   DWORD PTR ds:0x40b014
  4090c7:	push   0xc0000409
  4090cc:	call   DWORD PTR ds:0x40b0a8
  4090d2:	push   eax
  4090d3:	call   DWORD PTR ds:0x40b098
  4090d9:	pop    ebp
  4090da:	ret    
  4090db:	int3   
  4090dc:	int3   
  4090dd:	int3   
  4090de:	int3   
  4090df:	int3   
  4090e0:	mov    edi,edi
  4090e2:	push   ebp
  4090e3:	mov    ebp,esp
  4090e5:	sub    esp,0x324
  4090eb:	mov    ds:0x40a130,eax
  4090f0:	mov    DWORD PTR ds:0x40a12c,ecx
  4090f6:	mov    DWORD PTR ds:0x40a128,edx
  4090fc:	mov    DWORD PTR ds:0x40a124,ebx
  409102:	mov    DWORD PTR ds:0x40a120,esi
  409108:	mov    DWORD PTR ds:0x40a11c,edi
  40910e:	data16 mov WORD PTR ds:0x40a148,ss
  409115:	data16 mov WORD PTR ds:0x40a13c,cs
  40911c:	data16 mov WORD PTR ds:0x40a118,ds
  409123:	data16 mov WORD PTR ds:0x40a114,es
  40912a:	data16 mov WORD PTR ds:0x40a110,fs
  409131:	data16 mov WORD PTR ds:0x40a10c,gs
  409138:	pushf  
  409139:	pop    DWORD PTR ds:0x40a140
  40913f:	mov    eax,DWORD PTR [ebp+0x0]
  409142:	mov    ds:0x40a134,eax
  409147:	mov    eax,DWORD PTR [ebp+0x4]
  40914a:	mov    ds:0x40a138,eax
  40914f:	lea    eax,[ebp+0x8]
  409152:	mov    ds:0x40a144,eax
  409157:	mov    eax,DWORD PTR [ebp-0x324]
  40915d:	mov    DWORD PTR ds:0x40a080,0x10001
  409167:	mov    eax,ds:0x40a138
  40916c:	mov    ds:0x40a03c,eax
  409171:	mov    DWORD PTR ds:0x40a030,0xc0000409
  40917b:	mov    DWORD PTR ds:0x40a034,0x1
  409185:	mov    DWORD PTR ds:0x40a040,0x3
  40918f:	push   0x4
  409191:	pop    eax
  409192:	imul   eax,eax,0x0
  409195:	mov    DWORD PTR [eax+0x40a044],0x2
  40919f:	push   0x4
  4091a1:	pop    eax
  4091a2:	shl    eax,0x0
  4091a5:	mov    ecx,DWORD PTR ds:0x40a004
  4091ab:	mov    DWORD PTR [eax+0x40a044],ecx
  4091b1:	push   0x4
  4091b3:	pop    eax
  4091b4:	shl    eax,1
  4091b6:	mov    ecx,DWORD PTR ds:0x40a008
  4091bc:	mov    DWORD PTR [eax+0x40a044],ecx
  4091c2:	push   0x4
  4091c4:	pop    eax
  4091c5:	imul   eax,eax,0x0
  4091c8:	mov    ecx,DWORD PTR ds:0x40a004
  4091ce:	mov    DWORD PTR [ebp+eax*1-0x8],ecx
  4091d2:	push   0x4
  4091d4:	pop    eax
  4091d5:	shl    eax,0x0
  4091d8:	mov    ecx,DWORD PTR ds:0x40a008
  4091de:	mov    DWORD PTR [ebp+eax*1-0x8],ecx
  4091e2:	push   0x401060
  4091e7:	call   0x4090b1
  4091ec:	mov    esp,ebp
  4091ee:	pop    ebp
  4091ef:	ret    
  4091f0:	int3   
  4091f1:	int3   
  4091f2:	int3   
  4091f3:	int3   
  4091f4:	int3   
  4091f5:	mov    edi,edi
  4091f7:	push   ebp
  4091f8:	mov    ebp,esp
  4091fa:	mov    ds:0x40a130,eax
  4091ff:	mov    DWORD PTR ds:0x40a12c,ecx
  409205:	mov    DWORD PTR ds:0x40a128,edx
  40920b:	mov    DWORD PTR ds:0x40a124,ebx
  409211:	mov    DWORD PTR ds:0x40a120,esi
  409217:	mov    DWORD PTR ds:0x40a11c,edi
  40921d:	data16 mov WORD PTR ds:0x40a148,ss
  409224:	data16 mov WORD PTR ds:0x40a13c,cs
  40922b:	data16 mov WORD PTR ds:0x40a118,ds
  409232:	data16 mov WORD PTR ds:0x40a114,es
  409239:	data16 mov WORD PTR ds:0x40a110,fs
  409240:	data16 mov WORD PTR ds:0x40a10c,gs
  409247:	pushf  
  409248:	pop    DWORD PTR ds:0x40a140
  40924e:	mov    DWORD PTR ds:0x40a080,0x10001
  409258:	mov    eax,DWORD PTR [ebp+0x4]
  40925b:	mov    ds:0x40a138,eax
  409260:	lea    eax,[ebp+0x4]
  409263:	add    eax,0x4
  409266:	mov    ds:0x40a144,eax
  40926b:	mov    eax,ds:0x40a138
  409270:	mov    ds:0x40a03c,eax
  409275:	mov    DWORD PTR ds:0x40a030,0xc0000409
  40927f:	mov    DWORD PTR ds:0x40a034,0x1
  409289:	mov    DWORD PTR ds:0x40a040,0x1
  409293:	push   0x4
  409295:	pop    eax
  409296:	imul   eax,eax,0x0
  409299:	mov    DWORD PTR [eax+0x40a044],0x8
  4092a3:	push   0x401060
  4092a8:	call   0x4090b1
  4092ad:	pop    ebp
  4092ae:	ret    
  4092af:	int3   
  4092b0:	int3   
  4092b1:	int3   
  4092b2:	int3   
  4092b3:	int3   
  4092b4:	jmp    DWORD PTR ds:0x40b19c
  4092ba:	int3   
  4092bb:	int3   
  4092bc:	int3   
  4092bd:	int3   
  4092be:	int3   
  4092bf:	int3   
  4092c0:	jmp    DWORD PTR ds:0x40b198
  4092c6:	int3   
  4092c7:	int3   
  4092c8:	int3   
  4092c9:	int3   
  4092ca:	int3   
  4092cb:	int3   
  4092cc:	int3   
  4092cd:	int3   
  4092ce:	int3   
  4092cf:	int3   
  4092d0:	mov    edi,edi
  4092d2:	push   ebp
  4092d3:	mov    ebp,esp
  4092d5:	mov    eax,DWORD PTR [ebp+0x8]
  4092d8:	mov    eax,DWORD PTR [eax]
  4092da:	cmp    DWORD PTR [eax],0xe06d7363
  4092e0:	jne    0x40930d
  4092e2:	cmp    DWORD PTR [eax+0x10],0x3
  4092e6:	jne    0x40930d
  4092e8:	mov    eax,DWORD PTR [eax+0x14]
  4092eb:	cmp    eax,0x19930520
  4092f0:	je     0x409307
  4092f2:	cmp    eax,0x19930521
  4092f7:	je     0x409307
  4092f9:	cmp    eax,0x19930522
  4092fe:	je     0x409307
  409300:	cmp    eax,0x1994000
  409305:	jne    0x40930d
  409307:	call   DWORD PTR ds:0x40b158
  40930d:	xor    eax,eax
  40930f:	pop    ebp
  409310:	ret    0x4
  409313:	int3   
  409314:	int3   
  409315:	int3   
  409316:	int3   
  409317:	int3   
  409318:	int3   
  409319:	int3   
  40931a:	int3   
  40931b:	int3   
  40931c:	int3   
  40931d:	int3   
  40931e:	int3   
  40931f:	int3   
  409320:	push   0x4092d0
  409325:	call   DWORD PTR ds:0x40b01c
  40932b:	xor    eax,eax
  40932d:	ret    
  40932e:	int3   
  40932f:	int3   
  409330:	int3   
  409331:	int3   
  409332:	int3   
  409333:	int3   
  409334:	jmp    DWORD PTR ds:0x40b194
  40933a:	int3   
  40933b:	int3   
  40933c:	int3   
  40933d:	int3   
  40933e:	int3   
  40933f:	push   0xc
  409341:	push   0x409898
  409346:	call   0x4096c8
  40934b:	xor    ecx,ecx
  40934d:	mov    eax,DWORD PTR [ebp+0x8]
  409350:	test   eax,eax
  409352:	je     0x40939f
  409354:	cmp    eax,0xffffffff
  409357:	je     0x40939f
  409359:	mov    DWORD PTR [ebp-0x4],ecx
  40935c:	mov    edx,0x5a4d
  409361:	cmp    WORD PTR [eax],dx
  409364:	jne    0x409398
  409366:	mov    edx,DWORD PTR [eax+0x3c]
  409369:	test   edx,edx
  40936b:	js     0x409398
  40936d:	cmp    edx,0x10000000
  409373:	jae    0x409398
  409375:	add    eax,edx
  409377:	mov    DWORD PTR [ebp-0x1c],eax
  40937a:	mov    ecx,DWORD PTR [eax]
  40937c:	sub    ecx,0x4550
  409382:	neg    ecx
  409384:	sbb    ecx,ecx
  409386:	not    ecx
  409388:	and    ecx,eax
  40938a:	jmp    0x409395
  40938c:	xor    eax,eax
  40938e:	inc    eax
  40938f:	ret    
  409390:	mov    esp,DWORD PTR [ebp-0x18]
  409393:	xor    ecx,ecx
  409395:	mov    DWORD PTR [ebp-0x1c],ecx
  409398:	mov    DWORD PTR [ebp-0x4],0xfffffffe
  40939f:	mov    eax,ecx
  4093a1:	call   0x40970d
  4093a6:	ret    0x4
  4093a9:	int3   
  4093aa:	int3   
  4093ab:	int3   
  4093ac:	int3   
  4093ad:	int3   
  4093ae:	mov    edi,edi
  4093b0:	push   ebp
  4093b1:	mov    ebp,esp
  4093b3:	push   0x0
  4093b5:	call   DWORD PTR ds:0x40b050
  4093bb:	test   eax,eax
  4093bd:	je     0x4093df
  4093bf:	push   eax
  4093c0:	call   0x40933f
  4093c5:	test   eax,eax
  4093c7:	je     0x4093df
  4093c9:	movzx  ecx,WORD PTR [eax+0x5c]
  4093cd:	push   0x2
  4093cf:	pop    eax
  4093d0:	cmp    cx,ax
  4093d3:	je     0x4093e2
  4093d5:	cmp    ecx,0x3
  4093d8:	jne    0x4093df
  4093da:	xor    eax,eax
  4093dc:	inc    eax
  4093dd:	pop    ebp
  4093de:	ret    
  4093df:	mov    eax,DWORD PTR [ebp+0x8]
  4093e2:	pop    ebp
  4093e3:	ret    
  4093e4:	int3   
  4093e5:	int3   
  4093e6:	int3   
  4093e7:	int3   
  4093e8:	int3   
  4093e9:	int3   
  4093ea:	jmp    DWORD PTR ds:0x40b18c
  4093f0:	int3   
  4093f1:	int3   
  4093f2:	int3   
  4093f3:	int3   
  4093f4:	int3   
  4093f5:	int3   
  4093f6:	int3   
  4093f7:	int3   
  4093f8:	int3   
  4093f9:	int3   
  4093fa:	int3   
  4093fb:	int3   
  4093fc:	int3   
  4093fd:	int3   
  4093fe:	int3   
  4093ff:	int3   
  409400:	mov    edi,edi
  409402:	push   ebp
  409403:	mov    ebp,esp
  409405:	mov    eax,DWORD PTR [ebp+0x8]
  409408:	xor    edx,edx
  40940a:	push   ebx
  40940b:	push   esi
  40940c:	push   edi
  40940d:	mov    ecx,DWORD PTR [eax+0x3c]
  409410:	add    ecx,eax
  409412:	movzx  eax,WORD PTR [ecx+0x14]
  409416:	movzx  ebx,WORD PTR [ecx+0x6]
  40941a:	add    eax,0x18
  40941d:	add    eax,ecx
  40941f:	test   ebx,ebx
  409421:	je     0x40943e
  409423:	mov    edi,DWORD PTR [ebp+0xc]
  409426:	mov    esi,DWORD PTR [eax+0xc]
  409429:	cmp    edi,esi
  40942b:	jb     0x409436
  40942d:	mov    ecx,DWORD PTR [eax+0x8]
  409430:	add    ecx,esi
  409432:	cmp    edi,ecx
  409434:	jb     0x409440
  409436:	inc    edx
  409437:	add    eax,0x28
  40943a:	cmp    edx,ebx
  40943c:	jb     0x409426
  40943e:	xor    eax,eax
  409440:	pop    edi
  409441:	pop    esi
  409442:	pop    ebx
  409443:	pop    ebp
  409444:	ret    
  409445:	int3   
  409446:	int3   
  409447:	int3   
  409448:	int3   
  409449:	int3   
  40944a:	int3   
  40944b:	int3   
  40944c:	int3   
  40944d:	int3   
  40944e:	int3   
  40944f:	int3   
  409450:	mov    edi,edi
  409452:	push   ebp
  409453:	mov    ebp,esp
  409455:	push   0xfffffffe
  409457:	push   0x4098b8
  40945c:	push   0x409690
  409461:	mov    eax,fs:0x0
  409467:	push   eax
  409468:	sub    esp,0x8
  40946b:	push   ebx
  40946c:	push   esi
  40946d:	push   edi
  40946e:	mov    eax,ds:0x40a004
  409473:	xor    DWORD PTR [ebp-0x8],eax
  409476:	xor    eax,ebp
  409478:	push   eax
  409479:	lea    eax,[ebp-0x10]
  40947c:	mov    fs:0x0,eax
  409482:	mov    DWORD PTR [ebp-0x18],esp
  409485:	mov    DWORD PTR [ebp-0x4],0x0
  40948c:	push   0x400000
  409491:	call   0x409520
  409496:	add    esp,0x4
  409499:	test   eax,eax
  40949b:	je     0x4094f1
  40949d:	mov    eax,DWORD PTR [ebp+0x8]
  4094a0:	sub    eax,0x400000
  4094a5:	push   eax
  4094a6:	push   0x400000
  4094ab:	call   0x409400
  4094b0:	add    esp,0x8
  4094b3:	test   eax,eax
  4094b5:	je     0x4094f1
  4094b7:	mov    eax,DWORD PTR [eax+0x24]
  4094ba:	shr    eax,0x1f
  4094bd:	not    eax
  4094bf:	and    eax,0x1
  4094c2:	mov    DWORD PTR [ebp-0x4],0xfffffffe
  4094c9:	mov    ecx,DWORD PTR [ebp-0x10]
  4094cc:	mov    DWORD PTR fs:0x0,ecx
  4094d3:	pop    ecx
  4094d4:	pop    edi
  4094d5:	pop    esi
  4094d6:	pop    ebx
  4094d7:	mov    esp,ebp
  4094d9:	pop    ebp
  4094da:	ret    
  4094db:	mov    eax,DWORD PTR [ebp-0x14]
  4094de:	mov    eax,DWORD PTR [eax]
  4094e0:	xor    ecx,ecx
  4094e2:	cmp    DWORD PTR [eax],0xc0000005
  4094e8:	sete   cl
  4094eb:	mov    eax,ecx
  4094ed:	ret    
  4094ee:	mov    esp,DWORD PTR [ebp-0x18]
  4094f1:	mov    DWORD PTR [ebp-0x4],0xfffffffe
  4094f8:	xor    eax,eax
  4094fa:	mov    ecx,DWORD PTR [ebp-0x10]
  4094fd:	mov    DWORD PTR fs:0x0,ecx
  409504:	pop    ecx
  409505:	pop    edi
  409506:	pop    esi
  409507:	pop    ebx
  409508:	mov    esp,ebp
  40950a:	pop    ebp
  40950b:	ret    
  40950c:	int3   
  40950d:	int3   
  40950e:	int3   
  40950f:	int3   
  409510:	int3   
  409511:	int3   
  409512:	int3   
  409513:	int3   
  409514:	int3   
  409515:	int3   
  409516:	int3   
  409517:	int3   
  409518:	int3   
  409519:	int3   
  40951a:	int3   
  40951b:	int3   
  40951c:	int3   
  40951d:	int3   
  40951e:	int3   
  40951f:	int3   
  409520:	mov    edi,edi
  409522:	push   ebp
  409523:	mov    ebp,esp
  409525:	mov    eax,DWORD PTR [ebp+0x8]
  409528:	mov    ecx,0x5a4d
  40952d:	cmp    WORD PTR [eax],cx
  409530:	je     0x409536
  409532:	xor    eax,eax
  409534:	pop    ebp
  409535:	ret    
  409536:	mov    ecx,DWORD PTR [eax+0x3c]
  409539:	add    ecx,eax
  40953b:	xor    eax,eax
  40953d:	cmp    DWORD PTR [ecx],0x4550
  409543:	jne    0x409551
  409545:	mov    edx,0x10b
  40954a:	cmp    WORD PTR [ecx+0x18],dx
  40954e:	sete   al
  409551:	pop    ebp
  409552:	ret    
  409553:	int3   
  409554:	int3   
  409555:	int3   
  409556:	int3   
  409557:	int3   
  409558:	mov    edi,edi
  40955a:	push   ebp
  40955b:	mov    ebp,esp
  40955d:	sub    esp,0x14
  409560:	and    DWORD PTR [ebp-0xc],0x0
  409564:	and    DWORD PTR [ebp-0x8],0x0
  409568:	mov    eax,ds:0x40a004
  40956d:	push   esi
  40956e:	push   edi
  40956f:	mov    edi,0xbb40e64e
  409574:	mov    esi,0xffff0000
  409579:	cmp    eax,edi
  40957b:	je     0x40958a
  40957d:	test   esi,eax
  40957f:	je     0x40958a
  409581:	not    eax
  409583:	mov    ds:0x40a008,eax
  409588:	jmp    0x4095f4
  40958a:	lea    eax,[ebp-0xc]
  40958d:	push   eax
  40958e:	call   DWORD PTR ds:0x40b104
  409594:	mov    eax,DWORD PTR [ebp-0x8]
  409597:	xor    eax,DWORD PTR [ebp-0xc]
  40959a:	mov    DWORD PTR [ebp-0x4],eax
  40959d:	call   DWORD PTR ds:0x40b0a0
  4095a3:	xor    DWORD PTR [ebp-0x4],eax
  4095a6:	call   DWORD PTR ds:0x40b09c
  4095ac:	xor    DWORD PTR [ebp-0x4],eax
  4095af:	call   DWORD PTR ds:0x40b100
  4095b5:	xor    eax,DWORD PTR [ebp-0x4]
  4095b8:	lea    ecx,[ebp-0x4]
  4095bb:	xor    eax,ecx
  4095bd:	mov    DWORD PTR [ebp-0x4],eax
  4095c0:	lea    eax,[ebp-0x14]
  4095c3:	push   eax
  4095c4:	call   DWORD PTR ds:0x40b0b0
  4095ca:	mov    eax,DWORD PTR [ebp-0x10]
  4095cd:	xor    eax,DWORD PTR [ebp-0x14]
  4095d0:	mov    ecx,DWORD PTR [ebp-0x4]
  4095d3:	xor    ecx,eax
  4095d5:	cmp    ecx,edi
  4095d7:	je     0x4095e1
  4095d9:	test   DWORD PTR ds:0x40a004,esi
  4095df:	jne    0x4095e6
  4095e1:	mov    ecx,0xbb40e64f
  4095e6:	mov    DWORD PTR ds:0x40a004,ecx
  4095ec:	not    ecx
  4095ee:	mov    DWORD PTR ds:0x40a008,ecx
  4095f4:	pop    edi
  4095f5:	pop    esi
  4095f6:	mov    esp,ebp
  4095f8:	pop    ebp
  4095f9:	ret    
  4095fa:	int3   
  4095fb:	int3   
  4095fc:	int3   
  4095fd:	int3   
  4095fe:	int3   
  4095ff:	int3   
  409600:	xor    eax,eax
  409602:	ret    
  409603:	int3   
  409604:	int3   
  409605:	int3   
  409606:	int3   
  409607:	int3   
  409608:	push   0x30000
  40960d:	push   0x10000
  409612:	call   DWORD PTR ds:0x40b154
  409618:	pop    ecx
  409619:	pop    ecx
  40961a:	ret    
  40961b:	int3   
  40961c:	int3   
  40961d:	int3   
  40961e:	int3   
  40961f:	int3   
  409620:	jmp    DWORD PTR ds:0x40b15c
  409626:	int3   
  409627:	int3   
  409628:	int3   
  409629:	int3   
  40962a:	int3   
  40962b:	int3   
  40962c:	push   0x409690
  409631:	push   DWORD PTR fs:0x0
  409638:	mov    eax,DWORD PTR [esp+0x10]
  40963c:	mov    DWORD PTR [esp+0x10],ebp
  409640:	lea    ebp,[esp+0x10]
  409644:	sub    esp,eax
  409646:	push   ebx
  409647:	push   esi
  409648:	push   edi
  409649:	mov    eax,ds:0x40a004
  40964e:	xor    DWORD PTR [ebp-0x4],eax
  409651:	xor    eax,ebp
  409653:	mov    DWORD PTR [ebp-0x1c],eax
  409656:	push   eax
  409657:	mov    DWORD PTR [ebp-0x18],esp
  40965a:	push   DWORD PTR [ebp-0x8]
  40965d:	mov    eax,DWORD PTR [ebp-0x4]
  409660:	mov    DWORD PTR [ebp-0x4],0xfffffffe
  409667:	mov    DWORD PTR [ebp-0x8],eax
  40966a:	lea    eax,[ebp-0x10]
  40966d:	mov    fs:0x0,eax
  409673:	ret    
  409674:	mov    ecx,DWORD PTR [ebp-0x1c]
  409677:	xor    ecx,ebp
  409679:	call   0x409090
  40967e:	jmp    0x40970d
  409683:	int3   
  409684:	int3   
  409685:	int3   
  409686:	int3   
  409687:	int3   
  409688:	int3   
  409689:	int3   
  40968a:	int3   
  40968b:	int3   
  40968c:	int3   
  40968d:	int3   
  40968e:	int3   
  40968f:	int3   
  409690:	mov    edi,edi
  409692:	push   ebp
  409693:	mov    ebp,esp
  409695:	push   DWORD PTR [ebp+0x14]
  409698:	push   DWORD PTR [ebp+0x10]
  40969b:	push   DWORD PTR [ebp+0xc]
  40969e:	push   DWORD PTR [ebp+0x8]
  4096a1:	push   0x409090
  4096a6:	push   0x40a004
  4096ab:	call   0x409726
  4096b0:	add    esp,0x18
  4096b3:	pop    ebp
  4096b4:	ret    
  4096b5:	int3   
  4096b6:	int3   
  4096b7:	int3   
  4096b8:	int3   
  4096b9:	int3   
  4096ba:	int3   
  4096bb:	int3   
  4096bc:	int3   
  4096bd:	int3   
  4096be:	int3   
  4096bf:	int3   
  4096c0:	ret    
  4096c1:	int3   
  4096c2:	int3   
  4096c3:	int3   
  4096c4:	int3   
  4096c5:	int3   
  4096c6:	int3   
  4096c7:	int3   
  4096c8:	push   0x409690
  4096cd:	push   DWORD PTR fs:0x0
  4096d4:	mov    eax,DWORD PTR [esp+0x10]
  4096d8:	mov    DWORD PTR [esp+0x10],ebp
  4096dc:	lea    ebp,[esp+0x10]
  4096e0:	sub    esp,eax
  4096e2:	push   ebx
  4096e3:	push   esi
  4096e4:	push   edi
  4096e5:	mov    eax,ds:0x40a004
  4096ea:	xor    DWORD PTR [ebp-0x4],eax
  4096ed:	xor    eax,ebp
  4096ef:	push   eax
  4096f0:	mov    DWORD PTR [ebp-0x18],esp
  4096f3:	push   DWORD PTR [ebp-0x8]
  4096f6:	mov    eax,DWORD PTR [ebp-0x4]
  4096f9:	mov    DWORD PTR [ebp-0x4],0xfffffffe
  409700:	mov    DWORD PTR [ebp-0x8],eax
  409703:	lea    eax,[ebp-0x10]
  409706:	mov    fs:0x0,eax
  40970c:	ret    
  40970d:	mov    ecx,DWORD PTR [ebp-0x10]
  409710:	mov    DWORD PTR fs:0x0,ecx
  409717:	pop    ecx
  409718:	pop    edi
  409719:	pop    edi
  40971a:	pop    esi
  40971b:	pop    ebx
  40971c:	mov    esp,ebp
  40971e:	pop    ebp
  40971f:	push   ecx
  409720:	ret    
  409721:	int3   
  409722:	int3   
  409723:	int3   
  409724:	int3   
  409725:	int3   
  409726:	jmp    DWORD PTR ds:0x40b150
  40972c:	int3   
  40972d:	int3   
  40972e:	int3   
  40972f:	int3   
  409730:	int3   
  409731:	int3   
  409732:	int3   
  409733:	int3   
  409734:	int3   
  409735:	int3   
  409736:	int3   
  409737:	int3   
  409738:	int3   
  409739:	int3   
  40973a:	int3   
  40973b:	int3   
  40973c:	int3   
  40973d:	int3   
  40973e:	int3   
  40973f:	int3   
  409740:	push   ebx
  409741:	push   esi
  409742:	mov    eax,DWORD PTR [esp+0x18]
  409746:	or     eax,eax
  409748:	jne    0x409762
  40974a:	mov    ecx,DWORD PTR [esp+0x14]
  40974e:	mov    eax,DWORD PTR [esp+0x10]
  409752:	xor    edx,edx
  409754:	div    ecx
  409756:	mov    ebx,eax
  409758:	mov    eax,DWORD PTR [esp+0xc]
  40975c:	div    ecx
  40975e:	mov    edx,ebx
  409760:	jmp    0x4097a3
  409762:	mov    ecx,eax
  409764:	mov    ebx,DWORD PTR [esp+0x14]
  409768:	mov    edx,DWORD PTR [esp+0x10]
  40976c:	mov    eax,DWORD PTR [esp+0xc]
  409770:	shr    ecx,1
  409772:	rcr    ebx,1
  409774:	shr    edx,1
  409776:	rcr    eax,1
  409778:	or     ecx,ecx
  40977a:	jne    0x409770
  40977c:	div    ebx
  40977e:	mov    esi,eax
  409780:	mul    DWORD PTR [esp+0x18]
  409784:	mov    ecx,eax
  409786:	mov    eax,DWORD PTR [esp+0x14]
  40978a:	mul    esi
  40978c:	add    edx,ecx
  40978e:	jb     0x40979e
  409790:	cmp    edx,DWORD PTR [esp+0x10]
  409794:	ja     0x40979e
  409796:	jb     0x40979f
  409798:	cmp    eax,DWORD PTR [esp+0xc]
  40979c:	jbe    0x40979f
  40979e:	dec    esi
  40979f:	xor    edx,edx
  4097a1:	mov    eax,esi
  4097a3:	pop    esi
  4097a4:	pop    ebx
  4097a5:	ret    0x10
  4097a8:	int3   
  4097a9:	int3   
  4097aa:	int3   
  4097ab:	int3   
  4097ac:	int3   
  4097ad:	int3   
  4097ae:	int3   
  4097af:	int3   
  4097b0:	push   ebx
  4097b1:	mov    eax,DWORD PTR [esp+0x14]
  4097b5:	or     eax,eax
  4097b7:	jne    0x4097d1
  4097b9:	mov    ecx,DWORD PTR [esp+0x10]
  4097bd:	mov    eax,DWORD PTR [esp+0xc]
  4097c1:	xor    edx,edx
  4097c3:	div    ecx
  4097c5:	mov    eax,DWORD PTR [esp+0x8]
  4097c9:	div    ecx
  4097cb:	mov    eax,edx
  4097cd:	xor    edx,edx
  4097cf:	jmp    0x409821
  4097d1:	mov    ecx,eax
  4097d3:	mov    ebx,DWORD PTR [esp+0x10]
  4097d7:	mov    edx,DWORD PTR [esp+0xc]
  4097db:	mov    eax,DWORD PTR [esp+0x8]
  4097df:	shr    ecx,1
  4097e1:	rcr    ebx,1
  4097e3:	shr    edx,1
  4097e5:	rcr    eax,1
  4097e7:	or     ecx,ecx
  4097e9:	jne    0x4097df
  4097eb:	div    ebx
  4097ed:	mov    ecx,eax
  4097ef:	mul    DWORD PTR [esp+0x14]
  4097f3:	xchg   ecx,eax
  4097f4:	mul    DWORD PTR [esp+0x10]
  4097f8:	add    edx,ecx
  4097fa:	jb     0x40980a
  4097fc:	cmp    edx,DWORD PTR [esp+0xc]
  409800:	ja     0x40980a
  409802:	jb     0x409812
  409804:	cmp    eax,DWORD PTR [esp+0x8]
  409808:	jbe    0x409812
  40980a:	sub    eax,DWORD PTR [esp+0x10]
  40980e:	sbb    edx,DWORD PTR [esp+0x14]
  409812:	sub    eax,DWORD PTR [esp+0x8]
  409816:	sbb    edx,DWORD PTR [esp+0xc]
  40981a:	neg    edx
  40981c:	neg    eax
  40981e:	sbb    edx,0x0
  409821:	pop    ebx
  409822:	ret    0x10
  409825:	int3   
  409826:	int3   
  409827:	int3   
  409828:	int3   
  409829:	int3   
  40982a:	int3   
  40982b:	int3   
  40982c:	int3   
  40982d:	int3   
  40982e:	int3   
  40982f:	int3   
  409830:	push   ecx
  409831:	lea    ecx,[esp+0x4]
  409835:	sub    ecx,eax
  409837:	sbb    eax,eax
  409839:	not    eax
  40983b:	and    ecx,eax
  40983d:	mov    eax,esp
  40983f:	and    eax,0xfffff000
  409844:	cmp    ecx,eax
  409846:	jb     0x409852
  409848:	mov    eax,ecx
  40984a:	pop    ecx
  40984b:	xchg   esp,eax
  40984c:	mov    eax,DWORD PTR [eax]
  40984e:	mov    DWORD PTR [esp],eax
  409851:	ret    
  409852:	sub    eax,0x1000
  409857:	test   DWORD PTR [eax],eax
  409859:	jmp    0x409844
  40985b:	int3   
  40985c:	int3   
  40985d:	int3   
  40985e:	int3   
  40985f:	int3   
  409860:	jmp    DWORD PTR ds:0x40b1b0
  409866:	int3   
  409867:	int3   
  409868:	int3   
  409869:	int3   
  40986a:	int3   
  40986b:	int3   
  40986c:	jmp    DWORD PTR ds:0x40b1b4
  409872:	int3   
  409873:	int3   
  409874:	int3   
  409875:	int3   
  409876:	int3   
  409877:	int3   
  409878:	in     al,0xff
  40987a:	(bad)  
  40987b:	inc    DWORD PTR [eax]
  40987d:	add    BYTE PTR [eax],al
  40987f:	add    al,dl
  409881:	(bad)  
  409882:	(bad)  
  409883:	inc    DWORD PTR [eax]
  409885:	add    BYTE PTR [eax],al
  409887:	add    dh,bh
  409889:	(bad)  
  40988a:	(bad)  
  40988b:	call   edi
  40988d:	pop    DWORD PTR [eax+0x0]
  409890:	jmp    0x409821
  409892:	inc    eax
  409893:	add    BYTE PTR [eax],al
  409895:	add    BYTE PTR [eax],al
  409897:	add    dh,bh
  409899:	(bad)  
  40989a:	(bad)  
  40989b:	inc    DWORD PTR [eax]
  40989d:	add    BYTE PTR [eax],al
  40989f:	add    ah,dl
  4098a1:	(bad)  
  4098a2:	(bad)  
  4098a3:	inc    DWORD PTR [eax]
  4098a5:	add    BYTE PTR [eax],al
  4098a7:	add    dh,bh
  4098a9:	(bad)  
  4098aa:	(bad)  
  4098ab:	dec    DWORD PTR [ebx+edx*4-0x6c6fffc0]
  4098b2:	inc    eax
  4098b3:	add    BYTE PTR [eax],al
  4098b5:	add    BYTE PTR [eax],al
  4098b7:	add    dh,bh
  4098b9:	(bad)  
  4098ba:	(bad)  
  4098bb:	inc    DWORD PTR [eax]
  4098bd:	add    BYTE PTR [eax],al
  4098bf:	add    al,bl
  4098c1:	(bad)  
  4098c2:	(bad)  
  4098c3:	inc    DWORD PTR [eax]
  4098c5:	add    BYTE PTR [eax],al
  4098c7:	add    dh,bh
  4098c9:	(bad)  
  4098ca:	(bad)  
  4098cb:	(bad)  
  4098cc:	fist   DWORD PTR [eax+eax*2+0x4094ee00]
	...

Disassembly of section .data:

0040a000 <.data>:
  40a000:	add    DWORD PTR [eax],eax
  40a002:	add    BYTE PTR [eax],al
  40a004:	dec    esi
  40a005:	out    0x40,al
  40a007:	mov    ebx,0x44bf19b1
	...

Disassembly of section .idata:

0040b000 <.idata>:
  40b000:	sbb    al,0xb7
  40b002:	add    BYTE PTR [eax],al
  40b004:	loop   0x40afbc
  40b006:	add    BYTE PTR [eax],al
  40b008:	shl    BYTE PTR [esi+0x0],1
  40b00e:	add    BYTE PTR [eax],al
  40b010:	inc    esi
  40b011:	mov    esi,0xb8200000
  40b016:	add    BYTE PTR [eax],al
  40b018:	bound  esi,QWORD PTR [edi-0x47c40000]
  40b01e:	add    BYTE PTR [eax],al
  40b020:	add    BYTE PTR [eax],al
  40b022:	add    BYTE PTR [eax],al
  40b024:	cmp    BYTE PTR [esi-0x48800000],bh
  40b02a:	add    BYTE PTR [eax],al
  40b02c:	add    BYTE PTR [eax],al
  40b02e:	add    BYTE PTR [eax],al
  40b030:	mov    esp,0xb7
  40b035:	add    BYTE PTR [eax],al
  40b037:	add    BYTE PTR [esi+0xb7],cl
  40b03d:	add    BYTE PTR [eax],al
  40b03f:	add    dl,cl
  40b041:	mov    bh,0x0
  40b043:	add    BYTE PTR [edx-0x49],dh
  40b046:	add    BYTE PTR [eax],al
  40b048:	add    BYTE PTR [eax],al
  40b04a:	add    BYTE PTR [eax],al
  40b04c:	lods   al,BYTE PTR ds:[esi]
  40b04d:	mov    dh,0x0
  40b04f:	add    BYTE PTR [esi-0x48],ch
  40b052:	add    BYTE PTR [eax],al
  40b054:	xchg   edx,eax
  40b055:	mov    edx,0xba6c0000
  40b05a:	add    BYTE PTR [eax],al
  40b05c:	or     BYTE PTR [esi-0x41ea0000],bh
  40b062:	add    BYTE PTR [eax],al
  40b064:	cwde   
  40b065:	mov    dh,0x0
  40b067:	add    BYTE PTR [edx-0x46],bl
  40b06a:	add    BYTE PTR [eax],al
  40b06c:	add    BYTE PTR [eax],al
  40b06e:	add    BYTE PTR [eax],al
  40b070:	in     al,0xb7
  40b072:	add    BYTE PTR [eax],al
  40b074:	inc    edx
  40b075:	mov    bh,0x0
  40b077:	add    BYTE PTR [eax],al
  40b079:	add    BYTE PTR [eax],al
  40b07b:	add    BYTE PTR [esi-0x42],dl
  40b07e:	add    BYTE PTR [eax],al
  40b080:	idiv   BYTE PTR [ebp-0x421a0000]
  40b086:	add    BYTE PTR [eax],al
  40b088:	add    BYTE PTR [eax],al
  40b08a:	add    BYTE PTR [eax],al
  40b08c:	xor    dh,BYTE PTR [edi-0x42280000]
  40b092:	add    BYTE PTR [eax],al
  40b094:	add    BYTE PTR [eax],al
  40b096:	add    BYTE PTR [eax],al
  40b098:	pop    edx
  40b099:	mov    eax,0xb8b20000
  40b09e:	add    BYTE PTR [eax],al
  40b0a0:	pushf  
  40b0a1:	mov    eax,0xb6700000
  40b0a6:	add    BYTE PTR [eax],al
  40b0a8:	test   BYTE PTR [esi+0x0],dh
  40b0ae:	add    BYTE PTR [eax],al
  40b0b0:	cmp    BYTE PTR [eax+0x0],0x0
  40b0b7:	add    BYTE PTR [edx-0x47],dl
  40b0ba:	add    BYTE PTR [eax],al
  40b0bc:	and    bh,BYTE PTR [edx-0x469e0000]
  40b0c2:	add    BYTE PTR [eax],al
  40b0c4:	mov    WORD PTR [ecx+0x0],?
  40b0ca:	add    BYTE PTR [eax],al
  40b0cc:	or     dh,BYTE PTR [edi-0x49460000]
  40b0d2:	add    BYTE PTR [eax],al
  40b0d4:	mov    al,ds:0xb9
  40b0d9:	add    BYTE PTR [eax],al
  40b0db:	add    BYTE PTR [edx],cl
  40b0dd:	mov    edx,0xb8180000
  40b0e2:	add    BYTE PTR [eax],al
  40b0e4:	jo     0x40b09f
  40b0e6:	add    BYTE PTR [eax],al
  40b0e8:	xor    bh,BYTE PTR [edx-0x46480000]
  40b0ee:	add    BYTE PTR [eax],al
  40b0f0:	add    BYTE PTR [eax],al
  40b0f2:	add    BYTE PTR [eax],al
  40b0f4:	jl     0x40b0b0
  40b0f6:	add    BYTE PTR [eax],al
  40b0f8:	sub    BYTE PTR [esi-0x45b60000],bh
  40b0fe:	add    BYTE PTR [eax],al
  40b100:	loop   0x40b0ba
  40b102:	add    BYTE PTR [eax],al
  40b104:	enter  0xb8,0x0
  40b108:	inc    edx
  40b109:	mov    ecx,0x0
  40b10e:	add    BYTE PTR [eax],al
  40b110:	jmp    0xb9:0xd00000b9
  40b117:	add    BYTE PTR [edx],ah
  40b119:	mov    ecx,0xb90a0000
  40b11e:	add    BYTE PTR [eax],al
  40b120:	repnz mov eax,0x0
  40b126:	add    BYTE PTR [eax],al
  40b128:	mov    bp,0x0
  40b12c:	add    BYTE PTR [eax],al
  40b12e:	add    BYTE PTR [eax],al
  40b130:	(bad)  
  40b131:	mov    bh,0x0
  40b133:	add    BYTE PTR [eax],cl
  40b135:	mov    eax,0xb7f60000
  40b13a:	add    BYTE PTR [eax],al
  40b13c:	add    BYTE PTR [eax],al
  40b13e:	add    BYTE PTR [eax],al
  40b140:	movs   BYTE PTR es:[edi],BYTE PTR ds:[esi]
  40b141:	mov    bh,0x0
  40b143:	add    BYTE PTR [eax],al
  40b145:	add    BYTE PTR [eax],al
  40b147:	add    dl,dh
  40b149:	mov    dh,0x0
  40b14b:	add    BYTE PTR [eax],al
  40b14d:	add    BYTE PTR [eax],al
  40b14f:	add    BYTE PTR [esi-0x4a],dl
  40b152:	add    BYTE PTR [eax],al
  40b154:	dec    eax
  40b155:	mov    dh,0x0
  40b157:	add    BYTE PTR [esi+esi*4],dh
  40b15a:	add    BYTE PTR [eax],al
  40b15c:	sbb    al,0xb6
  40b15e:	add    BYTE PTR [eax],al
  40b160:	dec    eax
  40b161:	mov    ch,0x0
  40b163:	add    BYTE PTR [edx-0x43ffff43],dh
  40b169:	mov    ebp,0xbdc40000
  40b16e:	add    BYTE PTR [eax],al
  40b170:	into   
  40b171:	mov    ebp,0xb5fa0000
  40b176:	add    BYTE PTR [eax],al
  40b178:	lock mov ch,0x0
  40b17b:	add    al,ch
  40b17d:	mov    ch,0x0
  40b17f:	add    al,ah
  40b181:	mov    ch,0x0
  40b183:	add    dh,cl
  40b185:	mov    ch,0x0
  40b187:	add    BYTE PTR [ebp+esi*4-0x4a520000],bh
  40b18e:	add    BYTE PTR [eax],al
  40b190:	sahf   
  40b191:	mov    ch,0x0
  40b193:	add    BYTE PTR [eax-0x7bffff4b],dl
  40b199:	mov    ch,0x0
  40b19b:	add    BYTE PTR [edx-0x4b],bh
  40b19e:	add    BYTE PTR [eax],al
  40b1a0:	ins    BYTE PTR es:[edi],dx
  40b1a1:	mov    ch,0x0
  40b1a3:	add    BYTE PTR [esi-0x4b],bl
  40b1a6:	add    BYTE PTR [eax],al
  40b1a8:	push   esp
  40b1a9:	mov    ch,0x0
  40b1ab:	add    BYTE PTR [eax],cl
  40b1ad:	mov    dh,0x0
  40b1af:	add    BYTE PTR [esi-0x67ffff42],cl
  40b1b5:	mov    esi,0x0
  40b1ba:	add    BYTE PTR [eax],al
  40b1bc:	rcl    BYTE PTR [esi-0x4b23ffc0],0x0
	...
  40b1cb:	add    BYTE PTR [eax],ch
  40b1cd:	mov    dh,0x0
  40b1cf:	add    BYTE PTR [eax-0x4f],dl
  40b1d2:	add    BYTE PTR [eax],al
  40b1d4:	and    al,0xb4
	...
  40b1de:	add    BYTE PTR [eax],al
  40b1e0:	mov    ds:0x980000ba,al
  40b1e5:	mov    al,0x0
  40b1e7:	add    al,bl
  40b1e9:	mov    bl,0x0
	...
  40b1f3:	add    ah,cl
  40b1f5:	mov    edx,0xb04c0000
  40b1fa:	add    BYTE PTR [eax],al
  40b1fc:	pop    eax
  40b1fd:	mov    ah,0x0
	...
  40b207:	add    dh,dh
  40b209:	mov    edx,0xb0cc0000
  40b20e:	add    BYTE PTR [eax],al
  40b210:	mov    WORD PTR [ebx+0x0],?
  40b216:	add    BYTE PTR [eax],al
  40b218:	add    BYTE PTR [eax],al
  40b21a:	add    BYTE PTR [eax],al
  40b21c:	sbb    BYTE PTR [ebx-0x50000000],bh
  40b222:	add    BYTE PTR [eax],al
  40b224:	aam    0xb4
	...
  40b22e:	add    BYTE PTR [eax],al
  40b230:	cmp    al,0xbb
  40b232:	add    BYTE PTR [eax],al
  40b234:	dec    eax
  40b235:	mov    cl,0x0
  40b237:	add    BYTE PTR [eax],bl
  40b239:	mov    ah,0x0
	...
  40b243:	add    BYTE PTR [esi-0x45],ah
  40b246:	add    BYTE PTR [eax],al
  40b248:	mov    WORD PTR [eax-0x4c040000],?
	...
  40b256:	add    BYTE PTR [eax],al
  40b258:	xchg   esp,eax
  40b259:	mov    ebx,0xb0700000
  40b25e:	add    BYTE PTR [eax],al
  40b260:	pushf  
  40b261:	mov    bl,0x0
	...
  40b26b:	add    BYTE PTR [ebx+edi*4-0x4ff00000],bh
  40b272:	add    BYTE PTR [eax],al
  40b274:	int3   
  40b275:	mov    bl,0x0
	...
  40b27f:	add    dh,ah
  40b281:	mov    ebx,0xb0400000
  40b286:	add    BYTE PTR [eax],al
  40b288:	mov    al,0xb3
	...
  40b292:	add    BYTE PTR [eax],al
  40b294:	push   es
  40b295:	mov    esp,0xb0240000
  40b29a:	add    BYTE PTR [eax],al
  40b29c:	les    esi,FWORD PTR [ebx+0x0]
  40b2a2:	add    BYTE PTR [eax],al
  40b2a4:	add    BYTE PTR [eax],al
  40b2a6:	add    BYTE PTR [eax],al
  40b2a8:	es mov esp,0xb0380000
  40b2ae:	add    BYTE PTR [eax],al
  40b2b0:	int3   
  40b2b1:	mov    ah,0x0
	...
  40b2bb:	add    BYTE PTR [esi-0x44],al
  40b2be:	add    BYTE PTR [eax],al
  40b2c0:	inc    eax
  40b2c1:	mov    cl,0x0
  40b2c3:	add    BYTE PTR [ebx+esi*4+0x0],bh
  40b2ca:	add    BYTE PTR [eax],al
  40b2cc:	add    BYTE PTR [eax],al
  40b2ce:	add    BYTE PTR [eax],al
  40b2d0:	push   0xffffffbc
  40b2d2:	add    BYTE PTR [eax],al
  40b2d4:	xor    BYTE PTR [eax-0x4b440000],dh
	...
  40b2e2:	add    BYTE PTR [eax],al
  40b2e4:	mov    WORD PTR [eax+eax*1+0xb13000],?
  40b2eb:	add    BYTE PTR [eax-0x4c],ch
	...
  40b2f6:	add    BYTE PTR [eax],al
  40b2f8:	mov    ah,0xbc
  40b2fa:	add    BYTE PTR [eax],al
  40b2fc:	fdiv   QWORD PTR [eax-0x4bc40000]
	...
  40b30a:	add    BYTE PTR [eax],al
  40b30c:	(bad)  
  40b30d:	mov    esp,0xb0b00000
  40b312:	add    BYTE PTR [eax],al
  40b314:	xor    BYTE PTR [eax+eax*1+0x0],0x0
  40b31c:	add    BYTE PTR [eax],al
  40b31e:	add    BYTE PTR [eax],al
  40b320:	cli    
  40b321:	mov    esp,0xb0f40000
  40b326:	add    BYTE PTR [eax],al
  40b328:	pushf  
  40b329:	mov    ah,0x0
	...
  40b333:	add    BYTE PTR [esi],bl
  40b335:	mov    ebp,0xb1100000
  40b33a:	add    BYTE PTR [eax],al
  40b33c:	inc    esp
  40b33d:	mov    ah,0x0
	...
  40b347:	add    BYTE PTR [edx-0x43],al
  40b34a:	add    BYTE PTR [eax],al
  40b34c:	mov    eax,0xb40000b0
  40b351:	mov    ah,0x0
	...
  40b35b:	add    BYTE PTR [esi+0x280000bd],al
  40b361:	mov    cl,0x0
  40b363:	add    BYTE PTR [eax],cl
  40b365:	mov    ah,0x0
	...
  40b36f:	add    BYTE PTR [esi+edi*4+0x0],ch
  40b373:	add    BYTE PTR [eax+esi*4+0x0],bh
	...
  40b38b:	add    BYTE PTR [edi+esi*4],bl
  40b38e:	add    BYTE PTR [eax],al
  40b390:	loop   0x40b348
  40b392:	add    BYTE PTR [eax],al
  40b394:	shl    BYTE PTR [esi+0x0],1
  40b39a:	add    BYTE PTR [eax],al
  40b39c:	inc    esi
  40b39d:	mov    esi,0xb8200000
  40b3a2:	add    BYTE PTR [eax],al
  40b3a4:	bound  esi,QWORD PTR [edi-0x47c40000]
  40b3aa:	add    BYTE PTR [eax],al
  40b3ac:	add    BYTE PTR [eax],al
  40b3ae:	add    BYTE PTR [eax],al
  40b3b0:	cmp    BYTE PTR [esi-0x48800000],bh
  40b3b6:	add    BYTE PTR [eax],al
  40b3b8:	add    BYTE PTR [eax],al
  40b3ba:	add    BYTE PTR [eax],al
  40b3bc:	mov    esp,0xb7
  40b3c1:	add    BYTE PTR [eax],al
  40b3c3:	add    BYTE PTR [esi+0xb7],cl
  40b3c9:	add    BYTE PTR [eax],al
  40b3cb:	add    dl,cl
  40b3cd:	mov    bh,0x0
  40b3cf:	add    BYTE PTR [edx-0x49],dh
  40b3d2:	add    BYTE PTR [eax],al
  40b3d4:	add    BYTE PTR [eax],al
  40b3d6:	add    BYTE PTR [eax],al
  40b3d8:	lods   al,BYTE PTR ds:[esi]
  40b3d9:	mov    dh,0x0
  40b3db:	add    BYTE PTR [esi-0x48],ch
  40b3de:	add    BYTE PTR [eax],al
  40b3e0:	xchg   edx,eax
  40b3e1:	mov    edx,0xba6c0000
  40b3e6:	add    BYTE PTR [eax],al
  40b3e8:	or     BYTE PTR [esi-0x41ea0000],bh
  40b3ee:	add    BYTE PTR [eax],al
  40b3f0:	cwde   
  40b3f1:	mov    dh,0x0
  40b3f3:	add    BYTE PTR [edx-0x46],bl
  40b3f6:	add    BYTE PTR [eax],al
  40b3f8:	add    BYTE PTR [eax],al
  40b3fa:	add    BYTE PTR [eax],al
  40b3fc:	in     al,0xb7
  40b3fe:	add    BYTE PTR [eax],al
  40b400:	inc    edx
  40b401:	mov    bh,0x0
  40b403:	add    BYTE PTR [eax],al
  40b405:	add    BYTE PTR [eax],al
  40b407:	add    BYTE PTR [esi-0x42],dl
  40b40a:	add    BYTE PTR [eax],al
  40b40c:	idiv   BYTE PTR [ebp-0x421a0000]
  40b412:	add    BYTE PTR [eax],al
  40b414:	add    BYTE PTR [eax],al
  40b416:	add    BYTE PTR [eax],al
  40b418:	xor    dh,BYTE PTR [edi-0x42280000]
  40b41e:	add    BYTE PTR [eax],al
  40b420:	add    BYTE PTR [eax],al
  40b422:	add    BYTE PTR [eax],al
  40b424:	pop    edx
  40b425:	mov    eax,0xb8b20000
  40b42a:	add    BYTE PTR [eax],al
  40b42c:	pushf  
  40b42d:	mov    eax,0xb6700000
  40b432:	add    BYTE PTR [eax],al
  40b434:	test   BYTE PTR [esi+0x0],dh
  40b43a:	add    BYTE PTR [eax],al
  40b43c:	cmp    BYTE PTR [eax+0x0],0x0
  40b443:	add    BYTE PTR [edx-0x47],dl
  40b446:	add    BYTE PTR [eax],al
  40b448:	and    bh,BYTE PTR [edx-0x469e0000]
  40b44e:	add    BYTE PTR [eax],al
  40b450:	mov    WORD PTR [ecx+0x0],?
  40b456:	add    BYTE PTR [eax],al
  40b458:	or     dh,BYTE PTR [edi-0x49460000]
  40b45e:	add    BYTE PTR [eax],al
  40b460:	mov    al,ds:0xb9
  40b465:	add    BYTE PTR [eax],al
  40b467:	add    BYTE PTR [edx],cl
  40b469:	mov    edx,0xb8180000
  40b46e:	add    BYTE PTR [eax],al
  40b470:	jo     0x40b42b
  40b472:	add    BYTE PTR [eax],al
  40b474:	xor    bh,BYTE PTR [edx-0x46480000]
  40b47a:	add    BYTE PTR [eax],al
  40b47c:	add    BYTE PTR [eax],al
  40b47e:	add    BYTE PTR [eax],al
  40b480:	jl     0x40b43c
  40b482:	add    BYTE PTR [eax],al
  40b484:	sub    BYTE PTR [esi-0x45b60000],bh
  40b48a:	add    BYTE PTR [eax],al
  40b48c:	loop   0x40b446
  40b48e:	add    BYTE PTR [eax],al
  40b490:	enter  0xb8,0x0
  40b494:	inc    edx
  40b495:	mov    ecx,0x0
  40b49a:	add    BYTE PTR [eax],al
  40b49c:	jmp    0xb9:0xd00000b9
  40b4a3:	add    BYTE PTR [edx],ah
  40b4a5:	mov    ecx,0xb90a0000
  40b4aa:	add    BYTE PTR [eax],al
  40b4ac:	repnz mov eax,0x0
  40b4b2:	add    BYTE PTR [eax],al
  40b4b4:	mov    bp,0x0
  40b4b8:	add    BYTE PTR [eax],al
  40b4ba:	add    BYTE PTR [eax],al
  40b4bc:	(bad)  
  40b4bd:	mov    bh,0x0
  40b4bf:	add    BYTE PTR [eax],cl
  40b4c1:	mov    eax,0xb7f60000
  40b4c6:	add    BYTE PTR [eax],al
  40b4c8:	add    BYTE PTR [eax],al
  40b4ca:	add    BYTE PTR [eax],al
  40b4cc:	movs   BYTE PTR es:[edi],BYTE PTR ds:[esi]
  40b4cd:	mov    bh,0x0
  40b4cf:	add    BYTE PTR [eax],al
  40b4d1:	add    BYTE PTR [eax],al
  40b4d3:	add    dl,dh
  40b4d5:	mov    dh,0x0
  40b4d7:	add    BYTE PTR [eax],al
  40b4d9:	add    BYTE PTR [eax],al
  40b4db:	add    BYTE PTR [esi-0x4a],dl
  40b4de:	add    BYTE PTR [eax],al
  40b4e0:	dec    eax
  40b4e1:	mov    dh,0x0
  40b4e3:	add    BYTE PTR [esi+esi*4],dh
  40b4e6:	add    BYTE PTR [eax],al
  40b4e8:	sbb    al,0xb6
  40b4ea:	add    BYTE PTR [eax],al
  40b4ec:	dec    eax
  40b4ed:	mov    ch,0x0
  40b4ef:	add    BYTE PTR [edx-0x43ffff43],dh
  40b4f5:	mov    ebp,0xbdc40000
  40b4fa:	add    BYTE PTR [eax],al
  40b4fc:	into   
  40b4fd:	mov    ebp,0xb5fa0000
  40b502:	add    BYTE PTR [eax],al
  40b504:	lock mov ch,0x0
  40b507:	add    al,ch
  40b509:	mov    ch,0x0
  40b50b:	add    al,ah
  40b50d:	mov    ch,0x0
  40b50f:	add    dh,cl
  40b511:	mov    ch,0x0
  40b513:	add    BYTE PTR [ebp+esi*4-0x4a520000],bh
  40b51a:	add    BYTE PTR [eax],al
  40b51c:	sahf   
  40b51d:	mov    ch,0x0
  40b51f:	add    BYTE PTR [eax-0x7bffff4b],dl
  40b525:	mov    ch,0x0
  40b527:	add    BYTE PTR [edx-0x4b],bh
  40b52a:	add    BYTE PTR [eax],al
  40b52c:	ins    BYTE PTR es:[edi],dx
  40b52d:	mov    ch,0x0
  40b52f:	add    BYTE PTR [esi-0x4b],bl
  40b532:	add    BYTE PTR [eax],al
  40b534:	push   esp
  40b535:	mov    ch,0x0
  40b537:	add    BYTE PTR [eax],cl
  40b539:	mov    dh,0x0
  40b53b:	add    BYTE PTR [esi-0x67ffff42],cl
  40b541:	mov    esi,0x0
  40b546:	add    BYTE PTR [eax],al
  40b548:	or     eax,0x63775f04
  40b54d:	jae    0x40b5b8
  40b54f:	arpl   WORD PTR [ebp+0x70],bp
  40b552:	add    BYTE PTR [eax],al
  40b554:	pop    DWORD PTR ds:0x69727077
  40b55a:	outs   dx,BYTE PTR ds:[esi]
  40b55b:	je     0x40b5c3
  40b55d:	add    ah,ch
  40b55f:	add    ebx,DWORD PTR [edi+0x76]
  40b562:	jae    0x40b5d2
  40b564:	ja     0x40b5d6
  40b566:	jb     0x40b5d1
  40b568:	outs   dx,BYTE PTR ds:[esi]
  40b569:	je     0x40b5d1
  40b56b:	add    BYTE PTR [ebp+0x4],ch
  40b56e:	pop    edi
  40b56f:	ja     0x40b5e4
  40b571:	gs je  0x40b5e0
  40b574:	outs   dx,DWORD PTR ds:[esi]
  40b575:	arpl   WORD PTR [ecx+0x6c],sp
  40b578:	gs add ch,bh
  40b57b:	add    al,0x6d
  40b57d:	popa   
  40b57e:	ins    BYTE PTR es:[edi],dx
  40b57f:	ins    BYTE PTR es:[edi],dx
  40b580:	outs   dx,DWORD PTR ds:[esi]
  40b581:	arpl   WORD PTR [eax],ax
  40b583:	add    BYTE PTR [edx],ah
  40b585:	add    DWORD PTR [edi+0x63],ebx
  40b588:	popa   
  40b589:	ins    BYTE PTR es:[edi],dx
  40b58a:	ins    BYTE PTR es:[edi],dx
  40b58b:	outs   dx,BYTE PTR ds:[esi]
  40b58c:	gs ja  0x40b5f7
  40b58f:	add    BYTE PTR [edi+0x0],ch
  40b592:	pop    edi
  40b593:	pop    eax
  40b594:	arpl   WORD PTR [eax+0x74],si
  40b597:	inc    esi
  40b598:	imul   ebp,DWORD PTR [esp+esi*2+0x65],0xc90072
  40b5a0:	pop    edi
  40b5a1:	pop    edi
  40b5a2:	jo     0x40b603
  40b5a4:	pop    edi
  40b5a5:	arpl   WORD PTR [edi+0x6d],bp
  40b5a8:	ins    DWORD PTR es:[edi],dx
  40b5a9:	outs   dx,DWORD PTR ds:[esi]
  40b5aa:	fs add BYTE PTR gs:[eax],al
  40b5ae:	adc    DWORD PTR [ecx],eax
  40b5b0:	pop    edi
  40b5b1:	popa   
  40b5b2:	ins    DWORD PTR es:[edi],dx
  40b5b3:	jae    0x40b61c
  40b5b5:	pop    edi
  40b5b6:	gs js  0x40b622
  40b5b9:	je     0x40b5bb
  40b5bb:	add    cl,dh
  40b5bd:	add    BYTE PTR [edi+0x5f],bl
  40b5c0:	ja     0x40b629
  40b5c2:	gs je  0x40b632
  40b5c5:	popa   
  40b5c6:	imul   ebp,DWORD PTR [esi+0x61],0x736772
  40b5cd:	add    dl,ah
  40b5cf:	add    BYTE PTR [edi+0x5f],bl
  40b5d2:	jae    0x40b639
  40b5d4:	je     0x40b635
  40b5d6:	popa   
  40b5d7:	jo     0x40b649
  40b5d9:	pop    edi
  40b5da:	je     0x40b655
  40b5dc:	jo     0x40b643
  40b5de:	add    BYTE PTR [eax],al
  40b5e0:	scas   al,BYTE PTR es:[edi]
  40b5e1:	add    al,0x65
  40b5e3:	js     0x40b64e
  40b5e5:	je     0x40b5e7
  40b5e7:	add    BYTE PTR [ebx+0x1],dh
  40b5ea:	pop    edi
  40b5eb:	gs js  0x40b657
  40b5ee:	je     0x40b5f0
  40b5f0:	and    al,0x1
  40b5f2:	pop    edi
  40b5f3:	arpl   WORD PTR [ebp+0x78],sp
  40b5f6:	imul   esi,DWORD PTR [eax+eax*1+0x0],0x5f5f00ce
  40b5fe:	jo     0x40b65f
  40b600:	pop    edi
  40b601:	ins    WORD PTR es:[edi],dx
  40b603:	outs   dx,DWORD PTR ds:[esi]
  40b604:	fs add BYTE PTR gs:[eax],al
  40b608:	in     al,0x0
  40b60a:	pop    edi
  40b60b:	pop    edi
  40b60c:	jae    0x40b673
  40b60e:	je     0x40b685
  40b610:	jae    0x40b677
  40b612:	jb     0x40b681
  40b614:	popa   
  40b615:	je     0x40b67f
  40b617:	gs jb  0x40b68c
  40b61a:	add    BYTE PTR [eax],al
  40b61c:	call   0x6eaa1522
  40b621:	imul   esi,DWORD PTR [esp+esi*2+0x65],0x6d006d72
  40b629:	jae    0x40b6a1
  40b62b:	arpl   WORD PTR [edx+0x74],si
  40b62e:	cs fs ins BYTE PTR es:[edi],dx
  40b631:	ins    BYTE PTR es:[edi],dx
  40b632:	add    BYTE PTR [eax],al
  40b634:	xor    eax,0x65743f00
  40b639:	jb     0x40b6a8
  40b63b:	imul   ebp,DWORD PTR [esi+0x61],0x40406574
  40b642:	pop    ecx
  40b643:	inc    ecx
  40b644:	pop    eax
  40b645:	pop    eax
  40b646:	pop    edx
  40b647:	add    BYTE PTR [edi],dh
  40b649:	add    DWORD PTR [edi+0x63],ebx
  40b64c:	outs   dx,DWORD PTR ds:[esi]
  40b64d:	outs   dx,BYTE PTR ds:[esi]
  40b64e:	je     0x40b6c2
  40b650:	outs   dx,DWORD PTR ds:[esi]
  40b651:	ins    BYTE PTR es:[edi],dx
  40b652:	data16 jo 0x40b655
  40b655:	add    BYTE PTR [edx+0x1],ch
  40b658:	pop    edi
  40b659:	gs js  0x40b6bf
  40b65c:	gs jo  0x40b6d3
  40b65f:	pop    edi
  40b660:	push   0x6c646e61
  40b665:	gs jb  0x40b69c
  40b668:	pop    edi
  40b669:	arpl   WORD PTR [edi+0x6d],bp
  40b66c:	ins    DWORD PTR es:[edi],dx
  40b66d:	outs   dx,DWORD PTR ds:[esi]
  40b66e:	outs   dx,BYTE PTR ds:[esi]
  40b66f:	add    BYTE PTR [eax],dh
  40b671:	add    BYTE PTR [edi+0x70],cl
  40b674:	outs   dx,BYTE PTR gs:[esi]
  40b676:	push   eax
  40b677:	jb     0x40b6e8
  40b679:	arpl   WORD PTR [ebp+0x73],sp
  40b67c:	jae    0x40b6d2
  40b67e:	outs   dx,DWORD PTR ds:[esi]
  40b67f:	imul   esp,DWORD PTR [ebp+0x6e],0x0
  40b683:	add    BYTE PTR [eax+eax*1],cl
  40b686:	inc    edi
  40b687:	gs je  0x40b6cd
  40b68a:	jne    0x40b6fe
  40b68c:	jb     0x40b6f3
  40b68e:	outs   dx,BYTE PTR ds:[esi]
  40b68f:	je     0x40b6e1
  40b691:	jb     0x40b702
  40b693:	arpl   WORD PTR [ebp+0x73],sp
  40b696:	jae    0x40b698
  40b698:	adc    eax,DWORD PTR [eax]
  40b69a:	inc    edi
  40b69b:	gs je  0x40b6eb
  40b69e:	outs   dx,DWORD PTR ds:[esi]
  40b69f:	fs jne 0x40b70e
  40b6a2:	gs dec eax
  40b6a4:	popa   
  40b6a5:	outs   dx,BYTE PTR ds:[esi]
  40b6a6:	fs ins BYTE PTR es:[edi],dx
  40b6a8:	gs push edi
  40b6aa:	add    BYTE PTR [eax],al
  40b6ac:	sbb    eax,DWORD PTR [eax]
  40b6ae:	dec    esp
  40b6af:	outs   dx,DWORD PTR ds:[esi]
  40b6b0:	popa   
  40b6b1:	fs push ebx
  40b6b3:	je     0x40b727
  40b6b5:	imul   ebp,DWORD PTR [esi+0x67],0x70057
  40b6bc:	push   edi
  40b6bd:	imul   esp,DWORD PTR [ebp+eiz*2+0x43],0x54726168
  40b6c5:	outs   dx,DWORD PTR ds:[esi]
  40b6c6:	dec    ebp
  40b6c7:	jne    0x40b735
  40b6c9:	je     0x40b734
  40b6cb:	inc    edx
  40b6cc:	jns    0x40b742
  40b6ce:	add    BYTE PTR gs:[edx],al
  40b6d1:	add    BYTE PTR [edi+0x65],al
  40b6d4:	je     0x40b719
  40b6d6:	outs   dx,DWORD PTR ds:[esi]
  40b6d7:	outs   dx,BYTE PTR ds:[esi]
  40b6d8:	jae    0x40b749
  40b6da:	ins    BYTE PTR es:[edi],dx
  40b6db:	gs dec ebp
  40b6dd:	outs   dx,DWORD PTR ds:[esi]
  40b6de:	fs add BYTE PTR gs:[eax],al
  40b6e2:	or     eax,0x69725700
  40b6e7:	je     0x40b74e
  40b6e9:	inc    ebx
  40b6ea:	outs   dx,DWORD PTR ds:[esi]
  40b6eb:	outs   dx,BYTE PTR ds:[esi]
  40b6ec:	jae    0x40b75d
  40b6ee:	ins    BYTE PTR es:[edi],dx
  40b6ef:	gs push edi
  40b6f1:	add    BYTE PTR [eax+eax*1],al
  40b6f4:	dec    esp
  40b6f5:	outs   dx,DWORD PTR ds:[esi]
  40b6f6:	outs   dx,DWORD PTR ds:[esi]
  40b6f7:	imul   esi,DWORD PTR [ebp+0x70],0x50
  40b6fb:	jb     0x40b766
  40b6fd:	jbe    0x40b768
  40b6ff:	ins    BYTE PTR es:[edi],dx
  40b700:	gs addr16 gs push esi
  40b704:	popa   
  40b705:	ins    BYTE PTR es:[edi],dx
  40b706:	jne    0x40b76d
  40b708:	push   edi
  40b709:	add    BYTE PTR [edx],al
  40b70b:	add    BYTE PTR [ebx+0x6f],al
  40b70e:	ins    DWORD PTR es:[edi],dx
  40b70f:	jo     0x40b772
  40b711:	jb     0x40b778
  40b713:	push   ebx
  40b714:	je     0x40b788
  40b716:	imul   ebp,DWORD PTR [esi+0x67],0x3000057
  40b71d:	add    BYTE PTR [edi+0x65],al
  40b720:	je     0x40b765
  40b722:	outs   dx,DWORD PTR ds:[esi]
  40b723:	outs   dx,BYTE PTR ds:[esi]
  40b724:	jae    0x40b795
  40b726:	ins    BYTE PTR es:[edi],dx
  40b727:	gs dec edi
  40b729:	jne    0x40b79f
  40b72b:	jo     0x40b7a2
  40b72d:	je     0x40b772
  40b72f:	push   eax
  40b730:	add    BYTE PTR [eax],al
  40b732:	or     al,0x0
  40b734:	inc    edi
  40b735:	gs je  0x40b78b
  40b738:	je     0x40b79e
  40b73a:	dec    eax
  40b73b:	popa   
  40b73c:	outs   dx,BYTE PTR ds:[esi]
  40b73d:	fs ins BYTE PTR es:[edi],dx
  40b73f:	add    BYTE PTR gs:[eax],al
  40b742:	cmp    DWORD PTR [eax],eax
  40b744:	push   ebx
  40b745:	gs je  0x40b79c
  40b748:	push   0x64616572
  40b74d:	push   eax
  40b74e:	jb     0x40b7b5
  40b750:	data16 gs jb 0x40b7c6
  40b754:	gs fs push ebp
  40b757:	dec    ecx
  40b758:	dec    esp
  40b759:	popa   
  40b75a:	outs   dx,BYTE PTR ds:[esi]
  40b75b:	addr16 jne 0x40b7bf
  40b75e:	addr16 gs jae 0x40b762
  40b762:	add    eax,0x74654700
  40b767:	dec    esp
  40b768:	popa   
  40b769:	jae    0x40b7df
  40b76b:	inc    ebp
  40b76c:	jb     0x40b7e0
  40b76e:	outs   dx,DWORD PTR ds:[esi]
  40b76f:	jb     0x40b771
  40b771:	add    BYTE PTR [edx],al
  40b773:	add    BYTE PTR [edi+ebp*2+0x63],cl
  40b777:	popa   
  40b778:	ins    BYTE PTR es:[edi],dx
  40b779:	inc    ecx
  40b77a:	ins    BYTE PTR es:[edi],dx
  40b77b:	ins    BYTE PTR es:[edi],dx
  40b77c:	outs   dx,DWORD PTR ds:[esi]
  40b77d:	arpl   WORD PTR [eax],ax
  40b77f:	add    BYTE PTR [edi],ch
  40b781:	add    BYTE PTR [edi+0x65],al
  40b784:	je     0x40b7cc
  40b786:	imul   ebp,DWORD PTR [ebp+eiz*2+0x54],0x657079
  40b78e:	or     al,BYTE PTR [eax]
  40b790:	dec    eax
  40b791:	gs popa 
  40b793:	jo     0x40b7e8
  40b795:	gs je  0x40b7e1
  40b798:	outs   dx,BYTE PTR ds:[esi]
  40b799:	outs   dx,WORD PTR ds:[esi]
  40b79b:	jb     0x40b80a
  40b79d:	popa   
  40b79e:	je     0x40b809
  40b7a0:	outs   dx,DWORD PTR ds:[esi]
  40b7a1:	outs   dx,BYTE PTR ds:[esi]
  40b7a2:	add    BYTE PTR [eax],al
  40b7a4:	adc    eax,0x6a644100
  40b7a9:	jne    0x40b81e
  40b7ab:	je     0x40b801
  40b7ad:	outs   dx,DWORD PTR ds:[esi]
  40b7ae:	imul   esp,DWORD PTR [ebp+0x6e],0x50
  40b7b2:	jb     0x40b81d
  40b7b4:	jbe    0x40b81f
  40b7b6:	ins    BYTE PTR es:[edi],dx
  40b7b7:	gs addr16 gs jae 0x40b7bc
  40b7bc:	add    BYTE PTR [eax],al
  40b7be:	inc    ebx
  40b7bf:	ins    BYTE PTR es:[edi],dx
  40b7c0:	outs   dx,DWORD PTR ds:[esi]
  40b7c1:	jae    0x40b828
  40b7c3:	dec    eax
  40b7c4:	popa   
  40b7c5:	outs   dx,BYTE PTR ds:[esi]
  40b7c6:	fs ins BYTE PTR es:[edi],dx
  40b7c8:	add    BYTE PTR gs:[ebx],al
  40b7cb:	add    BYTE PTR [edi+ebp*2+0x63],cl
  40b7cf:	popa   
  40b7d0:	ins    BYTE PTR es:[edi],dx
  40b7d1:	inc    esi
  40b7d2:	jb     0x40b839
  40b7d4:	add    BYTE PTR gs:[esi],al
  40b7d7:	add    BYTE PTR [ebp+0x76],al
  40b7da:	outs   dx,BYTE PTR gs:[esi]
  40b7dc:	je     0x40b835
  40b7de:	jb     0x40b849
  40b7e0:	je     0x40b847
  40b7e2:	add    BYTE PTR [eax],al
  40b7e4:	or     BYTE PTR [eax],al
  40b7e6:	inc    esi
  40b7e7:	outs   dx,DWORD PTR ds:[esi]
  40b7e8:	jb     0x40b857
  40b7ea:	popa   
  40b7eb:	je     0x40b83a
  40b7ed:	gs jae 0x40b863
  40b7f0:	popa   
  40b7f1:	addr16 gs push edi
  40b7f4:	add    BYTE PTR [eax],al
  40b7f6:	add    eax,0x65764500
  40b7fb:	outs   dx,BYTE PTR ds:[esi]
  40b7fc:	je     0x40b853
  40b7fe:	outs   dx,BYTE PTR ds:[esi]
  40b7ff:	jb     0x40b866
  40b801:	imul   esi,DWORD PTR [bp+di+0x74],0x3007265
  40b809:	add    BYTE PTR [ebp+0x76],al
  40b80c:	outs   dx,BYTE PTR gs:[esi]
  40b80e:	je     0x40b862
  40b810:	imul   esi,DWORD PTR gs:[bp+di+0x74],0x2d007265
  40b819:	add    BYTE PTR [ebx+0x6c],dl
  40b81c:	gs gs jo 0x40b820
  40b820:	adc    DWORD PTR [eax],eax
  40b822:	push   ebp
  40b823:	outs   dx,BYTE PTR ds:[esi]
  40b824:	push   0x6c646e61
  40b829:	gs fs inc ebp
  40b82c:	js     0x40b891
  40b82e:	gs jo  0x40b8a5
  40b831:	imul   ebp,DWORD PTR [edi+0x6e],0x746c6946
  40b838:	gs jb  0x40b83b
  40b83b:	add    BYTE PTR [edi],cl
  40b83d:	add    BYTE PTR [ebx+0x65],dl
  40b840:	je     0x40b897
  40b842:	outs   dx,BYTE PTR ds:[esi]
  40b843:	push   0x6c646e61
  40b848:	gs fs inc ebp
  40b84b:	js     0x40b8b0
  40b84d:	gs jo  0x40b8c4
  40b850:	imul   ebp,DWORD PTR [edi+0x6e],0x746c6946
  40b857:	gs jb  0x40b85a
  40b85a:	dec    ebx
  40b85b:	add    BYTE PTR [ebp+eiz*2+0x72],dl
  40b85f:	ins    DWORD PTR es:[edi],dx
  40b860:	imul   ebp,DWORD PTR [esi+0x61],0x72506574
  40b867:	outs   dx,DWORD PTR ds:[esi]
  40b868:	arpl   WORD PTR [ebp+0x73],sp
  40b86b:	jae    0x40b86d
  40b86d:	add    BYTE PTR [eax],dl
  40b86f:	add    BYTE PTR [edi+0x65],al
  40b872:	je     0x40b8c1
  40b874:	outs   dx,DWORD PTR ds:[esi]
  40b875:	fs jne 0x40b8e4
  40b878:	gs dec eax
  40b87a:	popa   
  40b87b:	outs   dx,BYTE PTR ds:[esi]
  40b87c:	fs ins BYTE PTR es:[edi],dx
  40b87e:	gs inc ecx
  40b880:	add    BYTE PTR [eax],al
  40b882:	add    BYTE PTR [eax],al
  40b884:	push   ecx
  40b885:	jne    0x40b8ec
  40b887:	jb     0x40b902
  40b889:	push   eax
  40b88a:	gs jb  0x40b8f3
  40b88d:	outs   dx,DWORD PTR ds:[esi]
  40b88e:	jb     0x40b8fd
  40b890:	popa   
  40b891:	outs   dx,BYTE PTR ds:[esi]
  40b892:	arpl   WORD PTR [ebp+0x43],sp
  40b895:	outs   dx,DWORD PTR ds:[esi]
  40b896:	jne    0x40b906
  40b898:	je     0x40b8ff
  40b89a:	jb     0x40b89c
  40b89c:	or     eax,0x74654700
  40b8a1:	inc    ebx
  40b8a2:	jne    0x40b916
  40b8a4:	jb     0x40b90b
  40b8a6:	outs   dx,BYTE PTR ds:[esi]
  40b8a7:	je     0x40b8f9
  40b8a9:	jb     0x40b91a
  40b8ab:	arpl   WORD PTR [ebp+0x73],sp
  40b8ae:	jae    0x40b8f9
  40b8b0:	add    BYTE PTR fs:[ecx],dl
  40b8b3:	add    BYTE PTR [edi+0x65],al
  40b8b6:	je     0x40b8fb
  40b8b8:	jne    0x40b92c
  40b8ba:	jb     0x40b921
  40b8bc:	outs   dx,BYTE PTR ds:[esi]
  40b8bd:	je     0x40b913
  40b8bf:	push   0x64616572
  40b8c4:	dec    ecx
  40b8c5:	add    BYTE PTR fs:[eax],al
  40b8c8:	adc    al,0x0
  40b8ca:	inc    edi
  40b8cb:	gs je  0x40b921
  40b8ce:	jns    0x40b943
  40b8d0:	je     0x40b937
  40b8d2:	ins    DWORD PTR es:[edi],dx
  40b8d3:	push   esp
  40b8d4:	imul   ebp,DWORD PTR [ebp+0x65],0x69467341
  40b8db:	ins    BYTE PTR es:[edi],dx
  40b8dc:	gs push esp
  40b8de:	imul   ebp,DWORD PTR [ebp+0x65],0x47001800
  40b8e5:	gs je  0x40b93c
  40b8e8:	imul   esp,DWORD PTR [ebx+0x6b],0x6e756f43
  40b8ef:	je     0x40b8f1
  40b8f1:	add    BYTE PTR [eax],cl
  40b8f3:	add    BYTE PTR [ebx+0x79],dl
  40b8f6:	jae    0x40b96c
  40b8f8:	gs ins DWORD PTR es:[edi],dx
  40b8fa:	push   esp
  40b8fb:	imul   ebp,DWORD PTR [ebp+0x65],0x69466f54
  40b902:	ins    BYTE PTR es:[edi],dx
  40b903:	gs push esp
  40b905:	imul   ebp,DWORD PTR [ebp+0x65],0x10000
  40b90c:	inc    esi
  40b90d:	imul   ebp,DWORD PTR [ebp+eiz*2+0x54],0x54656d69
  40b915:	outs   dx,DWORD PTR ds:[esi]
  40b916:	push   ebx
  40b917:	jns    0x40b98c
  40b919:	je     0x40b980
  40b91b:	ins    DWORD PTR es:[edi],dx
  40b91c:	push   esp
  40b91d:	imul   ebp,DWORD PTR [ebp+0x65],0x60000
  40b924:	push   ebx
  40b925:	gs je  0x40b96c
  40b928:	jns    0x40b998
  40b92a:	popa   
  40b92b:	ins    DWORD PTR es:[edi],dx
  40b92c:	imul   esp,DWORD PTR [ebx+0x54],0x5a656d69
  40b933:	outs   dx,DWORD PTR ds:[esi]
  40b934:	outs   dx,BYTE PTR ds:[esi]
  40b935:	gs dec ecx
  40b937:	outs   dx,BYTE PTR ds:[esi]
  40b938:	outs   dx,WORD PTR ds:[esi]
  40b93a:	jb     0x40b9a9
  40b93c:	popa   
  40b93d:	je     0x40b9a8
  40b93f:	outs   dx,DWORD PTR ds:[esi]
  40b940:	outs   dx,BYTE PTR ds:[esi]
  40b941:	add    BYTE PTR ds:0x74654700,al
  40b947:	dec    esp
  40b948:	outs   dx,DWORD PTR ds:[esi]
  40b949:	arpl   WORD PTR [ecx+0x6c],sp
  40b94c:	push   esp
  40b94d:	imul   ebp,DWORD PTR [ebp+0x65],0xe0000
  40b954:	push   edx
  40b955:	gs addr16 inc ebp
  40b958:	outs   dx,BYTE PTR ds:[esi]
  40b959:	jne    0x40b9c8
  40b95b:	dec    ebx
  40b95c:	gs jns 0x40b9a4
  40b95f:	js     0x40b9b8
  40b961:	add    BYTE PTR [eax],al
  40b963:	add    BYTE PTR [edx+0x65],dl
  40b966:	addr16 inc ebx
  40b968:	ins    BYTE PTR es:[edi],dx
  40b969:	outs   dx,DWORD PTR ds:[esi]
  40b96a:	jae    0x40b9d1
  40b96c:	dec    ebx
  40b96d:	gs jns 0x40b970
  40b970:	sbb    BYTE PTR [eax],al
  40b972:	dec    ecx
  40b973:	outs   dx,BYTE PTR ds:[esi]
  40b974:	imul   esi,DWORD PTR [ecx+ebp*2+0x61],0x657a696c
  40b97c:	inc    ebx
  40b97d:	jb     0x40b9e8
  40b97f:	je     0x40b9ea
  40b981:	arpl   WORD PTR [ecx+0x6c],sp
  40b984:	push   ebx
  40b985:	arpl   WORD PTR gs:[ecx+ebp*2+0x6f],si
  40b98a:	outs   dx,BYTE PTR ds:[esi]
  40b98b:	add    BYTE PTR [ebx],ah
  40b98d:	add    BYTE PTR [edx+0x65],dl
  40b990:	addr16 push ecx
  40b992:	jne    0x40b9f9
  40b994:	jb     0x40ba0f
  40b996:	push   esi
  40b997:	popa   
  40b998:	ins    BYTE PTR es:[edi],dx
  40b999:	jne    0x40ba00
  40b99b:	inc    ebp
  40b99c:	js     0x40b9f5
  40b99e:	add    BYTE PTR [eax],al
  40b9a0:	add    DWORD PTR [eax],eax
  40b9a2:	inc    ebx
  40b9a3:	outs   dx,DWORD PTR ds:[esi]
  40b9a4:	ins    DWORD PTR es:[edi],dx
  40b9a5:	jo     0x40ba08
  40b9a7:	jb     0x40ba0e
  40b9a9:	push   ebx
  40b9aa:	je     0x40ba1e
  40b9ac:	imul   ebp,DWORD PTR [esi+0x67],0x6964724f
  40b9b3:	outs   dx,BYTE PTR ds:[esi]
  40b9b4:	popa   
  40b9b5:	ins    BYTE PTR es:[edi],dx
  40b9b6:	add    BYTE PTR [eax],al
  40b9b8:	sbb    eax,0x61654c00
  40b9bd:	jbe    0x40ba24
  40b9bf:	inc    ebx
  40b9c0:	jb     0x40ba2b
  40b9c2:	je     0x40ba2d
  40b9c4:	arpl   WORD PTR [ecx+0x6c],sp
  40b9c7:	push   ebx
  40b9c8:	arpl   WORD PTR gs:[ecx+ebp*2+0x6f],si
  40b9cd:	outs   dx,BYTE PTR ds:[esi]
  40b9ce:	add    BYTE PTR [eax],al
  40b9d0:	add    al,0x0
  40b9d2:	inc    edi
  40b9d3:	gs je  0x40ba2a
  40b9d6:	imul   ebp,DWORD PTR [ebp+0x65],0x656e6f5a
  40b9dd:	dec    ecx
  40b9de:	outs   dx,BYTE PTR ds:[esi]
  40b9df:	outs   dx,WORD PTR ds:[esi]
  40b9e1:	jb     0x40ba50
  40b9e3:	popa   
  40b9e4:	je     0x40ba4f
  40b9e6:	outs   dx,DWORD PTR ds:[esi]
  40b9e7:	outs   dx,BYTE PTR ds:[esi]
  40b9e8:	add    BYTE PTR [eax],al
  40b9ea:	add    al,BYTE PTR [eax]
  40b9ec:	inc    edi
  40b9ed:	gs je  0x40ba34
  40b9f0:	jns    0x40ba60
  40b9f2:	popa   
  40b9f3:	ins    DWORD PTR es:[edi],dx
  40b9f4:	imul   esp,DWORD PTR [ebx+0x54],0x5a656d69
  40b9fb:	outs   dx,DWORD PTR ds:[esi]
  40b9fc:	outs   dx,BYTE PTR ds:[esi]
  40b9fd:	gs dec ecx
  40b9ff:	outs   dx,BYTE PTR ds:[esi]
  40ba00:	outs   dx,WORD PTR ds:[esi]
  40ba02:	jb     0x40ba71
  40ba04:	popa   
  40ba05:	je     0x40ba70
  40ba07:	outs   dx,DWORD PTR ds:[esi]
  40ba08:	outs   dx,BYTE PTR ds:[esi]
  40ba09:	add    BYTE PTR [ecx],dl
  40ba0b:	add    BYTE PTR [ebp+0x6e],al
  40ba0e:	je     0x40ba75
  40ba10:	jb     0x40ba55
  40ba12:	jb     0x40ba7d
  40ba14:	je     0x40ba7f
  40ba16:	arpl   WORD PTR [ecx+0x6c],sp
  40ba19:	push   ebx
  40ba1a:	arpl   WORD PTR gs:[ecx+ebp*2+0x6f],si
  40ba1f:	outs   dx,BYTE PTR ds:[esi]
  40ba20:	add    BYTE PTR [eax],al
  40ba22:	push   ds
  40ba23:	add    BYTE PTR [edx+0x65],dl
  40ba26:	addr16 dec edi
  40ba28:	jo     0x40ba8f
  40ba2a:	outs   dx,BYTE PTR ds:[esi]
  40ba2b:	dec    ebx
  40ba2c:	gs jns 0x40ba74
  40ba2f:	js     0x40ba88
  40ba31:	add    BYTE PTR [edi],cl
  40ba33:	add    BYTE PTR [ebp+eiz*2+0x6c],al
  40ba37:	gs je  0x40ba9f
  40ba3a:	inc    ebx
  40ba3b:	jb     0x40baa6
  40ba3d:	je     0x40baa8
  40ba3f:	arpl   WORD PTR [ecx+0x6c],sp
  40ba42:	push   ebx
  40ba43:	arpl   WORD PTR gs:[ecx+ebp*2+0x6f],si
  40ba48:	outs   dx,BYTE PTR ds:[esi]
  40ba49:	add    BYTE PTR [edx],dl
  40ba4b:	add    BYTE PTR [edi+0x65],al
  40ba4e:	je     0x40baa3
  40ba50:	jns    0x40bac5
  40ba52:	je     0x40bab9
  40ba54:	ins    DWORD PTR es:[edi],dx
  40ba55:	push   esp
  40ba56:	imul   ebp,DWORD PTR [ebp+0x65],0x46000800
  40ba5d:	imul   ebp,DWORD PTR [esi+0x64],0x6f736552
  40ba64:	jne    0x40bad8
  40ba66:	arpl   WORD PTR [ebp+0x45],sp
  40ba69:	js     0x40bac2
  40ba6b:	add    BYTE PTR [ecx],bl
  40ba6d:	add    BYTE PTR [edi+ebp*2+0x61],cl
  40ba71:	fs push edx
  40ba73:	gs jae 0x40bae5
  40ba76:	jne    0x40baea
  40ba78:	arpl   WORD PTR [ebp+0x0],sp
  40ba7b:	add    BYTE PTR [edi],cl
  40ba7d:	add    BYTE PTR [edi+0x65],al
  40ba80:	je     0x40bad5
  40ba82:	jns    0x40baf7
  40ba84:	je     0x40baeb
  40ba86:	ins    DWORD PTR es:[edi],dx
  40ba87:	inc    esp
  40ba88:	imul   esi,DWORD PTR [edx+0x65],0x726f7463
  40ba8f:	jns    0x40bae8
  40ba91:	add    BYTE PTR [eax+eax*1],bl
  40ba94:	dec    esp
  40ba95:	outs   dx,DWORD PTR ds:[esi]
  40ba96:	arpl   WORD PTR [ebx+0x52],bp
  40ba99:	gs jae 0x40bb0b
  40ba9c:	jne    0x40bb10
  40ba9e:	arpl   WORD PTR [ebp+0x0],sp
  40baa1:	add    BYTE PTR [ecx+0x70],ah
  40baa4:	imul   ebp,DWORD PTR ds:0x772d736d,0x632d6e69
  40baae:	outs   dx,DWORD PTR ds:[esi]
  40baaf:	jb     0x40bb16
  40bab1:	sub    eax,0x636f7270
  40bab6:	gs jae 0x40bb2c
  40bab9:	je     0x40bb23
  40babb:	jb     0x40bb22
  40babd:	popa   
  40babe:	fs jae 0x40baee
  40bac1:	ins    BYTE PTR es:[edi],dx
  40bac2:	xor    DWORD PTR ds:0x2e322d31,ebp
  40bac8:	fs ins BYTE PTR es:[edi],dx
  40baca:	ins    BYTE PTR es:[edi],dx
  40bacb:	add    BYTE PTR [ecx+0x70],ah
  40bace:	imul   ebp,DWORD PTR ds:0x772d736d,0x632d6e69
  40bad8:	outs   dx,DWORD PTR ds:[esi]
  40bad9:	jb     0x40bb40
  40badb:	sub    eax,0x7262696c
  40bae0:	popa   
  40bae1:	jb     0x40bb5c
  40bae3:	ins    BYTE PTR es:[edi],dx
  40bae4:	outs   dx,DWORD PTR ds:[esi]
  40bae5:	popa   
  40bae6:	fs gs jb 0x40bb17
  40baea:	ins    BYTE PTR es:[edi],dx
  40baeb:	xor    DWORD PTR ds:0x2e302d32,ebp
  40baf1:	fs ins BYTE PTR es:[edi],dx
  40baf3:	ins    BYTE PTR es:[edi],dx
  40baf4:	add    BYTE PTR [eax],al
  40baf6:	popa   
  40baf7:	jo     0x40bb62
  40baf9:	sub    eax,0x772d736d
  40bafe:	imul   ebp,DWORD PTR [esi+0x2d],0x65726f63
  40bb05:	sub    eax,0x69727473
  40bb0a:	outs   dx,BYTE PTR ds:[esi]
  40bb0b:	addr16 sub eax,0x312d316c
  40bb11:	sub    eax,0x6c642e30
  40bb16:	ins    BYTE PTR es:[edi],dx
  40bb17:	add    BYTE PTR [ecx+0x70],ah
  40bb1a:	imul   ebp,DWORD PTR ds:0x772d736d,0x632d6e69
  40bb24:	outs   dx,DWORD PTR ds:[esi]
  40bb25:	jb     0x40bb8c
  40bb27:	sub    eax,0x736e6f63
  40bb2c:	outs   dx,DWORD PTR ds:[esi]
  40bb2d:	ins    BYTE PTR es:[edi],dx
  40bb2e:	gs sub eax,0x312d316c
  40bb34:	sub    eax,0x6c642e30
  40bb39:	ins    BYTE PTR es:[edi],dx
  40bb3a:	add    BYTE PTR [eax],al
  40bb3c:	popa   
  40bb3d:	jo     0x40bba8
  40bb3f:	sub    eax,0x772d736d
  40bb44:	imul   ebp,DWORD PTR [esi+0x2d],0x75636573
  40bb4b:	jb     0x40bbb6
  40bb4d:	je     0x40bbc8
  40bb4f:	sub    eax,0x6c61736c
  40bb54:	outs   dx,DWORD PTR ds:[esi]
  40bb55:	outs   dx,DWORD PTR ds:[esi]
  40bb56:	imul   esi,DWORD PTR [ebp+0x70],0x2d
  40bb5a:	ins    BYTE PTR es:[edi],dx
  40bb5b:	xor    ch,BYTE PTR ds:0x2e312d31
  40bb61:	fs ins BYTE PTR es:[edi],dx
  40bb63:	ins    BYTE PTR es:[edi],dx
  40bb64:	add    BYTE PTR [eax],al
  40bb66:	popa   
  40bb67:	jo     0x40bbd2
  40bb69:	sub    eax,0x772d736d
  40bb6e:	imul   ebp,DWORD PTR [esi+0x2d],0x65726f63
  40bb75:	sub    eax,0x636f7270
  40bb7a:	gs jae 0x40bbf0
  40bb7d:	outs   dx,BYTE PTR gs:[esi]
  40bb7f:	jbe    0x40bbea
  40bb81:	jb     0x40bbf2
  40bb83:	outs   dx,BYTE PTR ds:[esi]
  40bb84:	ins    DWORD PTR es:[edi],dx
  40bb85:	outs   dx,BYTE PTR gs:[esi]
  40bb87:	je     0x40bbb6
  40bb89:	ins    BYTE PTR es:[edi],dx
  40bb8a:	xor    DWORD PTR ds:0x2e302d32,ebp
  40bb90:	fs ins BYTE PTR es:[edi],dx
  40bb92:	ins    BYTE PTR es:[edi],dx
  40bb93:	add    BYTE PTR [ecx+0x70],ah
  40bb96:	imul   ebp,DWORD PTR ds:0x772d736d,0x632d6e69
  40bba0:	outs   dx,DWORD PTR ds:[esi]
  40bba1:	jb     0x40bc08
  40bba3:	sub    eax,0x61636f6c
  40bba8:	ins    BYTE PTR es:[edi],dx
  40bba9:	imul   edi,DWORD PTR [edx+0x61],0x6e6f6974
  40bbb0:	sub    eax,0x322d316c
  40bbb5:	sub    eax,0x6c642e31
  40bbba:	ins    BYTE PTR es:[edi],dx
  40bbbb:	add    BYTE PTR [ecx+0x70],ah
  40bbbe:	imul   ebp,DWORD PTR ds:0x772d736d,0x632d6e69
  40bbc8:	outs   dx,DWORD PTR ds:[esi]
  40bbc9:	jb     0x40bc30
  40bbcb:	sub    eax,0x6f727265
  40bbd0:	jb     0x40bc3a
  40bbd2:	popa   
  40bbd3:	outs   dx,BYTE PTR ds:[esi]
  40bbd4:	fs ins BYTE PTR es:[edi],dx
  40bbd6:	imul   ebp,DWORD PTR [esi+0x67],0x2d316c2d
  40bbdd:	xor    DWORD PTR ds:0x6c642e31,ebp
  40bbe3:	ins    BYTE PTR es:[edi],dx
  40bbe4:	add    BYTE PTR [eax],al
  40bbe6:	popa   
  40bbe7:	jo     0x40bc52
  40bbe9:	sub    eax,0x772d736d
  40bbee:	imul   ebp,DWORD PTR [esi+0x2d],0x65726f63
  40bbf5:	sub    eax,0x70616568
  40bbfa:	sub    eax,0x312d326c
  40bbff:	sub    eax,0x6c642e30
  40bc04:	ins    BYTE PTR es:[edi],dx
  40bc05:	add    BYTE PTR [ecx+0x70],ah
  40bc08:	imul   ebp,DWORD PTR ds:0x772d736d,0x632d6e69
  40bc12:	outs   dx,DWORD PTR ds:[esi]
  40bc13:	jb     0x40bc7a
  40bc15:	sub    eax,0x656c6966
  40bc1a:	sub    eax,0x322d316c
  40bc1f:	sub    eax,0x6c642e31
  40bc24:	ins    BYTE PTR es:[edi],dx
  40bc25:	add    BYTE PTR [ecx+0x70],ah
  40bc28:	imul   ebp,DWORD PTR ds:0x772d736d,0x632d6e69
  40bc32:	outs   dx,DWORD PTR ds:[esi]
  40bc33:	jb     0x40bc9a
  40bc35:	sub    eax,0x70616568
  40bc3a:	sub    eax,0x322d316c
  40bc3f:	sub    eax,0x6c642e30
  40bc44:	ins    BYTE PTR es:[edi],dx
  40bc45:	add    BYTE PTR [ecx+0x70],ah
  40bc48:	imul   ebp,DWORD PTR ds:0x772d736d,0x732d6e69
  40bc52:	arpl   WORD PTR gs:[ebp+0x72],si
  40bc56:	imul   esi,DWORD PTR [ecx+edi*2+0x2d],0x65736162
  40bc5e:	sub    eax,0x322d316c
  40bc63:	sub    eax,0x6c642e30
  40bc68:	ins    BYTE PTR es:[edi],dx
  40bc69:	add    BYTE PTR [ecx+0x70],ah
  40bc6c:	imul   ebp,DWORD PTR ds:0x772d736d,0x632d6e69
  40bc76:	outs   dx,DWORD PTR ds:[esi]
  40bc77:	jb     0x40bcde
  40bc79:	sub    eax,0x646e6168
  40bc7e:	ins    BYTE PTR es:[edi],dx
  40bc7f:	gs sub eax,0x312d316c
  40bc85:	sub    eax,0x6c642e30
  40bc8a:	ins    BYTE PTR es:[edi],dx
  40bc8b:	add    BYTE PTR [ecx+0x70],ah
  40bc8e:	imul   ebp,DWORD PTR ds:0x772d736d,0x652d6e69
  40bc98:	jbe    0x40bcff
  40bc9a:	outs   dx,BYTE PTR ds:[esi]
  40bc9b:	je     0x40bd06
  40bc9d:	outs   dx,BYTE PTR ds:[esi]
  40bc9e:	addr16 sub eax,0x766f7270
  40bca4:	imul   esp,DWORD PTR [ebp+eiz*2+0x72],0x2d316c2d
  40bcac:	xor    DWORD PTR ds:0x6c642e30,ebp
  40bcb2:	ins    BYTE PTR es:[edi],dx
  40bcb3:	add    BYTE PTR [ecx+0x70],ah
  40bcb6:	imul   ebp,DWORD PTR ds:0x772d736d,0x632d6e69
  40bcc0:	outs   dx,DWORD PTR ds:[esi]
  40bcc1:	jb     0x40bd28
  40bcc3:	sub    eax,0x636e7973
  40bcc8:	push   0x2d316c2d
  40bccd:	xor    ch,BYTE PTR ds:0x6c642e30
  40bcd3:	ins    BYTE PTR es:[edi],dx
  40bcd4:	add    BYTE PTR [eax],al
  40bcd6:	popa   
  40bcd7:	jo     0x40bd42
  40bcd9:	sub    eax,0x772d736d
  40bcde:	imul   ebp,DWORD PTR [esi+0x2d],0x65726f63
  40bce5:	sub    eax,0x666f7270
  40bcea:	imul   ebp,DWORD PTR [ebp+eiz*2+0x2d],0x312d316c
  40bcf2:	sub    eax,0x6c642e30
  40bcf7:	ins    BYTE PTR es:[edi],dx
  40bcf8:	add    BYTE PTR [eax],al
  40bcfa:	popa   
  40bcfb:	jo     0x40bd66
  40bcfd:	sub    eax,0x772d736d
  40bd02:	imul   ebp,DWORD PTR [esi+0x2d],0x65726f63
  40bd09:	sub    eax,0x69737973
  40bd0e:	outs   dx,BYTE PTR ds:[esi]
  40bd0f:	outs   dx,WORD PTR ds:[esi]
  40bd11:	sub    eax,0x322d316c
  40bd16:	sub    eax,0x6c642e31
  40bd1b:	ins    BYTE PTR es:[edi],dx
  40bd1c:	add    BYTE PTR [eax],al
  40bd1e:	popa   
  40bd1f:	jo     0x40bd8a
  40bd21:	sub    eax,0x772d736d
  40bd26:	imul   ebp,DWORD PTR [esi+0x2d],0x65726f63
  40bd2d:	sub    eax,0x656d6974
  40bd32:	jp     0x40bda3
  40bd34:	outs   dx,BYTE PTR ds:[esi]
  40bd35:	gs sub eax,0x312d316c
  40bd3b:	sub    eax,0x6c642e30
  40bd40:	ins    BYTE PTR es:[edi],dx
  40bd41:	add    BYTE PTR [ecx+0x70],ah
  40bd44:	imul   ebp,DWORD PTR ds:0x772d736d,0x632d6e69
  40bd4e:	outs   dx,DWORD PTR ds:[esi]
  40bd4f:	jb     0x40bdb6
  40bd51:	sub    eax,0x69676572
  40bd56:	jae    0x40bdcc
  40bd58:	jb     0x40bdd3
  40bd5a:	sub    eax,0x312d316c
  40bd5f:	sub    eax,0x6c642e30
  40bd64:	ins    BYTE PTR es:[edi],dx
  40bd65:	add    BYTE PTR [eax],al
  40bd67:	add    BYTE PTR [ecx+0x73],cl
  40bd6a:	push   esp
  40bd6b:	imul   ebp,DWORD PTR [ebp+0x65],0x656e6f5a
  40bd72:	push   edx
  40bd73:	gs imul esi,DWORD PTR fs:[edx+0x65],0x6f697463
  40bd7c:	outs   dx,BYTE PTR ds:[esi]
  40bd7d:	inc    ebp
  40bd7e:	outs   dx,BYTE PTR ds:[esi]
  40bd7f:	popa   
  40bd80:	bound  ebp,QWORD PTR [ebp+eiz*2+0x64]
  40bd84:	add    BYTE PTR [eax],al
  40bd86:	popa   
  40bd87:	jo     0x40bdf2
  40bd89:	sub    eax,0x772d736d
  40bd8e:	imul   ebp,DWORD PTR [esi+0x2d],0x65726f63
  40bd95:	sub    eax,0x656d6974
  40bd9a:	jp     0x40be0b
  40bd9c:	outs   dx,BYTE PTR ds:[esi]
  40bd9d:	gs sub eax,0x76697270
  40bda3:	popa   
  40bda4:	je     0x40be0b
  40bda6:	sub    eax,0x312d316c
  40bdab:	sub    eax,0x6c642e30
  40bdb0:	ins    BYTE PTR es:[edi],dx
  40bdb1:	add    BYTE PTR [eax+0x5],dh
  40bdb4:	ja     0x40be19
  40bdb6:	jae    0x40be1b
  40bdb8:	push   0x88000072
  40bdbd:	add    al,0x5f
  40bdbf:	ja     0x40be35
  40bdc1:	outs   dx,DWORD PTR ds:[esi]
  40bdc2:	imul   eax,DWORD PTR [eax],0x695f0247
  40bdc8:	je     0x40be39
  40bdca:	ja     0x40be2b
  40bdcc:	jae    0x40bdce
  40bdce:	mov    eax,ds:0x65736204
  40bdd3:	popa   
  40bdd4:	jb     0x40be39
  40bdd6:	push   0x53001000
  40bddb:	gs popa 
  40bddd:	jb     0x40be42
  40bddf:	push   0x68746150
  40bde4:	push   edi
  40bde5:	add    BYTE PTR [edi],cl
  40bde7:	add    BYTE PTR [ebp+0x61],cl
  40bdea:	jo     0x40be42
  40bdec:	imul   esp,DWORD PTR [ebp+0x77],0x6946664f
  40bdf3:	ins    BYTE PTR es:[edi],dx
  40bdf4:	add    BYTE PTR gs:[esi],bl
  40bdf7:	add    BYTE PTR [ebp+0x6e],dl
  40bdfa:	ins    DWORD PTR es:[edi],dx
  40bdfb:	popa   
  40bdfc:	jo     0x40be54
  40bdfe:	imul   esp,DWORD PTR [ebp+0x77],0x6946664f
  40be05:	ins    BYTE PTR es:[edi],dx
  40be06:	add    BYTE PTR gs:[ebx],cl
  40be09:	add    BYTE PTR [esi+0x72],al
  40be0c:	gs gs dec esp
  40be0f:	imul   esp,DWORD PTR [edx+0x72],0x797261
  40be16:	pop    ss
  40be17:	add    BYTE PTR [edi+ebp*2+0x61],cl
  40be1b:	fs dec esp
  40be1d:	imul   esp,DWORD PTR [edx+0x72],0x45797261
  40be24:	js     0x40be7d
  40be26:	add    BYTE PTR [eax],al
  40be28:	sbb    al,0x0
  40be2a:	inc    edi
  40be2b:	gs je  0x40be84
  40be2e:	gs jb  0x40bea4
  40be31:	imul   ebp,DWORD PTR [edi+0x6e],0x577845
  40be38:	push   es
  40be39:	add    BYTE PTR [ebx+0x72],al
  40be3c:	gs popa 
  40be3e:	je     0x40bea5
  40be40:	inc    esi
  40be41:	imul   ebp,DWORD PTR [ebp+eiz*2+0x57],0x53000d00
  40be49:	gs je  0x40be98
  40be4c:	popa   
  40be4d:	jae    0x40bec3
  40be4f:	inc    ebp
  40be50:	jb     0x40bec4
  40be52:	outs   dx,DWORD PTR ds:[esi]
  40be53:	jb     0x40be55
  40be55:	add    BYTE PTR [eax+eax*1],al
  40be58:	inc    ebx
  40be59:	jb     0x40bec0
  40be5b:	popa   
  40be5c:	je     0x40bec3
  40be5e:	inc    esi
  40be5f:	imul   ebp,DWORD PTR [ebp+eiz*2+0x4d],0x69707061
  40be67:	outs   dx,BYTE PTR ds:[esi]
  40be68:	addr16 push edi
  40be6a:	add    BYTE PTR [eax],al
  40be6c:	popa   
  40be6d:	jo     0x40bed8
  40be6f:	sub    eax,0x772d736d
  40be74:	imul   ebp,DWORD PTR [esi+0x2d],0x65726f63
  40be7b:	sub    eax,0x6f6d656d
  40be80:	jb     0x40befb
  40be82:	sub    eax,0x312d316c
  40be87:	sub    eax,0x6c642e32
  40be8c:	ins    BYTE PTR es:[edi],dx
  40be8d:	add    BYTE PTR [ecx],cl
  40be8f:	add    eax,0x636d656d
  40be94:	jo     0x40bf0f
  40be96:	add    BYTE PTR [eax],al
  40be98:	or     eax,0x6d656d05
  40be9d:	jae    0x40bf04
  40be9f:	je     0x40bea1
	...

Disassembly of section .rsrc:

0040c000 <.rsrc>:
	...
  40c00c:	add    al,BYTE PTR [eax]
  40c00e:	add    al,BYTE PTR [eax]
  40c010:	dec    esp
  40c011:	add    DWORD PTR [eax],eax
  40c013:	xor    BYTE PTR [eax],0x0
  40c016:	add    BYTE PTR [eax-0x7ffffed0],al
  40c01c:	dec    eax
  40c01d:	add    BYTE PTR [eax],al
  40c01f:	adc    BYTE PTR [eax],0x0
  40c022:	add    BYTE PTR [eax],al
  40c024:	pusha  
  40c025:	add    BYTE PTR [eax],al
  40c027:	sbb    BYTE PTR [eax],0x0
  40c02a:	add    BYTE PTR [eax],al
  40c02c:	js     0x40c02e
  40c02e:	add    BYTE PTR [eax+0x0],al
	...
  40c03c:	add    BYTE PTR [eax],al
  40c03e:	add    DWORD PTR [eax],eax
  40c040:	add    DWORD PTR [eax],eax
  40c042:	add    BYTE PTR [eax],al
  40c044:	nop
  40c045:	add    BYTE PTR [eax],al
  40c047:	add    BYTE PTR [eax],0x0
	...
  40c056:	add    DWORD PTR [eax],eax
  40c058:	add    DWORD PTR [eax],eax
  40c05a:	add    BYTE PTR [eax],al
  40c05c:	test   al,0x0
  40c05e:	add    BYTE PTR [eax+0x0],al
	...
  40c06c:	add    BYTE PTR [eax],al
  40c06e:	add    DWORD PTR [eax],eax
  40c070:	add    DWORD PTR [eax],eax
  40c072:	add    BYTE PTR [eax],al
  40c074:	rol    BYTE PTR [eax],0x0
  40c077:	add    BYTE PTR [eax],0x0
	...
  40c086:	add    DWORD PTR [eax],eax
  40c088:	add    DWORD PTR [eax],eax
  40c08a:	add    BYTE PTR [eax],al
  40c08c:	fadd   DWORD PTR [eax]
  40c08e:	add    BYTE PTR [eax+0x0],al
	...
  40c09c:	add    BYTE PTR [eax],al
  40c09e:	add    DWORD PTR [eax],eax
  40c0a0:	or     DWORD PTR [eax+eax*1],eax
  40c0a3:	add    al,dh
	...
  40c0b5:	add    BYTE PTR [ecx],al
  40c0b7:	add    BYTE PTR [ecx],cl
  40c0b9:	add    al,0x0
  40c0bb:	add    BYTE PTR [eax],al
  40c0bd:	add    DWORD PTR [eax],eax
	...
  40c0cb:	add    BYTE PTR [eax],al
  40c0cd:	add    BYTE PTR [ecx],al
  40c0cf:	add    BYTE PTR [ecx],cl
  40c0d1:	add    al,0x0
  40c0d3:	add    BYTE PTR [eax],dl
  40c0d5:	add    DWORD PTR [eax],eax
	...
  40c0e3:	add    BYTE PTR [eax],al
  40c0e5:	add    BYTE PTR [ecx],al
  40c0e7:	add    BYTE PTR [ecx],cl
  40c0e9:	add    al,0x0
  40c0eb:	add    BYTE PTR [eax],ah
  40c0ed:	add    DWORD PTR [eax],eax
  40c0ef:	add    BYTE PTR [eax-0xfffff2f],dl
	...
  40c0fd:	add    BYTE PTR [eax],al
  40c0ff:	add    BYTE PTR [eax],dl
  40c101:	lds    eax,FWORD PTR [eax]
  40c103:	add    dl,ah
  40c105:	or     BYTE PTR [eax],al
	...
  40c10f:	add    al,bh
  40c111:	int    0x0
  40c113:	add    BYTE PTR [eax+0x3],bl
  40c119:	add    BYTE PTR [eax],al
  40c11b:	add    BYTE PTR [eax],al
  40c11d:	add    BYTE PTR [eax],al
  40c11f:	add    BYTE PTR [eax-0x3f],ah
  40c122:	add    BYTE PTR [eax],al
  40c124:	mov    al,0x3
	...
  40c12e:	add    BYTE PTR [eax],al
  40c130:	or     eax,0x45005700
  40c135:	add    BYTE PTR [esi+0x0],dl
  40c138:	push   esp
  40c139:	add    BYTE PTR [edi+0x0],bl
  40c13c:	push   esp
  40c13d:	add    BYTE PTR [ebp+0x0],al
  40c140:	dec    ebp
  40c141:	add    BYTE PTR [eax+0x0],dl
  40c144:	dec    esp
  40c145:	add    BYTE PTR [ecx+0x0],al
  40c148:	push   esp
  40c149:	add    BYTE PTR [ebp+0x0],al
  40c14c:	add    eax,DWORD PTR [eax]
  40c14e:	dec    ebp
  40c14f:	add    BYTE PTR [ebp+0x0],dl
  40c152:	dec    ecx
	...
  40c15f:	add    BYTE PTR [edi+edi*1],bh
  40c162:	js     0x40c1d1
  40c164:	ins    BYTE PTR es:[edi],dx
  40c165:	and    BYTE PTR [esi+0x65],dh
  40c168:	jb     0x40c1dd
  40c16a:	imul   ebp,DWORD PTR [edi+0x6e],0x2e31223d
  40c171:	xor    BYTE PTR [edx],ah
  40c173:	and    BYTE PTR [ebp+0x6e],ah
  40c176:	arpl   WORD PTR [edi+0x64],bp
  40c179:	imul   ebp,DWORD PTR [esi+0x67],0x5455223d
  40c180:	inc    esi
  40c181:	sub    eax,0x73202238
  40c186:	je     0x40c1e9
  40c188:	outs   dx,BYTE PTR ds:[esi]
  40c189:	fs popa 
  40c18b:	ins    BYTE PTR es:[edi],dx
  40c18c:	outs   dx,DWORD PTR ds:[esi]
  40c18d:	outs   dx,BYTE PTR ds:[esi]
  40c18e:	gs cmp eax,0x73657922
  40c194:	and    bh,BYTE PTR [edi]
  40c196:	ds or  eax,0x2d213c0a
  40c19c:	sub    eax,0x706f4320
  40c1a1:	jns    0x40c215
  40c1a3:	imul   esp,DWORD PTR [edi+0x68],0x63282074
  40c1aa:	sub    DWORD PTR [eax],esp
  40c1ac:	dec    ebp
  40c1ad:	imul   esp,DWORD PTR [ebx+0x72],0x666f736f
  40c1b4:	je     0x40c1d6
  40c1b6:	inc    ebx
  40c1b7:	outs   dx,DWORD PTR ds:[esi]
  40c1b8:	jb     0x40c22a
  40c1ba:	outs   dx,DWORD PTR ds:[esi]
  40c1bb:	jb     0x40c21e
  40c1bd:	je     0x40c228
  40c1bf:	outs   dx,DWORD PTR ds:[esi]
  40c1c0:	outs   dx,BYTE PTR ds:[esi]
  40c1c1:	and    BYTE PTR ds:0xa0d3e2d,ch
  40c1c7:	cmp    al,0x61
  40c1c9:	jae    0x40c23e
  40c1cb:	gs ins DWORD PTR es:[edi],dx
  40c1cd:	bound  ebp,QWORD PTR [ecx+edi*2+0x20]
  40c1d1:	js     0x40c240
  40c1d3:	ins    BYTE PTR es:[edi],dx
  40c1d4:	outs   dx,BYTE PTR ds:[esi]
  40c1d5:	jae    0x40c214
  40c1d7:	and    dh,BYTE PTR [ebp+0x72]
  40c1da:	outs   dx,BYTE PTR ds:[esi]
  40c1db:	cmp    dh,BYTE PTR [ebx+0x63]
  40c1de:	push   0x73616d65
  40c1e3:	sub    eax,0x7263696d
  40c1e8:	outs   dx,DWORD PTR ds:[esi]
  40c1e9:	jae    0x40c25a
  40c1eb:	data16 je 0x40c21b
  40c1ee:	arpl   WORD PTR [edi+0x6d],bp
  40c1f1:	cmp    ah,BYTE PTR [ecx+0x73]
  40c1f4:	ins    DWORD PTR es:[edi],dx
  40c1f5:	cs jbe 0x40c229
  40c1f8:	and    ah,BYTE PTR [eax]
  40c1fa:	ins    DWORD PTR es:[edi],dx
  40c1fb:	popa   
  40c1fc:	outs   dx,BYTE PTR ds:[esi]
  40c1fd:	imul   esp,DWORD PTR [esi+0x65],0x65567473
  40c204:	jb     0x40c279
  40c206:	imul   ebp,DWORD PTR [edi+0x6e],0x2e31223d
  40c20d:	xor    BYTE PTR [edx],ah
  40c20f:	ds or  eax,0x73613c0a
  40c215:	jae    0x40c27c
  40c217:	ins    DWORD PTR es:[edi],dx
  40c218:	bound  ebp,QWORD PTR [ecx+edi*2+0x49]
  40c21c:	fs outs dx,BYTE PTR gs:[esi]
  40c21f:	je     0x40c28a
  40c221:	je     0x40c29c
  40c223:	or     eax,0x2020200a
  40c228:	and    BYTE PTR [esi+0x61],ch
  40c22b:	ins    DWORD PTR es:[edi],dx
  40c22c:	gs cmp eax,0x63694d22
  40c232:	jb     0x40c2a3
  40c234:	jae    0x40c2a5
  40c236:	data16 je 0x40c267
  40c239:	push   edi
  40c23a:	imul   ebp,DWORD PTR [esi+0x64],0x2e73776f
  40c241:	bound  esp,QWORD PTR [ecx+0x73]
  40c244:	gs cs je 0x40c2c2
  40c248:	jne    0x40c2be
  40c24a:	imul   ebp,DWORD PTR [edx+eiz*1+0xd],0x2020200a
  40c252:	and    BYTE PTR [eax+0x72],dh
  40c255:	outs   dx,DWORD PTR ds:[esi]
  40c256:	arpl   WORD PTR [ebp+0x73],sp
  40c259:	jae    0x40c2ca
  40c25b:	jb     0x40c29e
  40c25d:	jb     0x40c2c2
  40c25f:	push   0x63657469
  40c264:	je     0x40c2db
  40c266:	jb     0x40c2cd
  40c268:	cmp    eax,0x36387822
  40c26d:	and    cl,BYTE PTR ds:0x2020200a
  40c273:	and    BYTE PTR [esi+0x65],dh
  40c276:	jb     0x40c2eb
  40c278:	imul   ebp,DWORD PTR [edi+0x6e],0x2e35223d
  40c27f:	xor    DWORD PTR [esi],ebp
  40c281:	xor    BYTE PTR [esi],ch
  40c283:	xor    BYTE PTR [edx],ah
  40c285:	or     eax,0x2020200a
  40c28a:	and    BYTE PTR [ecx+edi*2+0x70],dh
  40c28e:	gs cmp eax,0x6e697722
  40c294:	xor    esi,DWORD PTR [edx]
  40c296:	and    ch,BYTE PTR [edi]
  40c298:	ds or  eax,0x65643c0a
  40c29e:	jae    0x40c303
  40c2a0:	jb     0x40c30b
  40c2a2:	jo     0x40c318
  40c2a4:	imul   ebp,DWORD PTR [edi+0x6e],0x757a743e
  40c2ab:	je     0x40c316
  40c2ad:	ins    BYTE PTR es:[edi],dx
  40c2ae:	cmp    al,0x2f
  40c2b0:	fs gs jae 0x40c317
  40c2b4:	jb     0x40c31f
  40c2b6:	jo     0x40c32c
  40c2b8:	imul   ebp,DWORD PTR [edi+0x6e],0x3c0a0d3e
  40c2bf:	fs gs jo 0x40c328
  40c2c3:	outs   dx,BYTE PTR ds:[esi]
  40c2c4:	fs outs dx,BYTE PTR gs:[esi]
  40c2c7:	arpl   WORD PTR [ecx+0x3e],di
  40c2ca:	or     eax,0x2020200a
  40c2cf:	and    BYTE PTR [esp+eiz*2],bh
  40c2d2:	gs jo  0x40c33a
  40c2d5:	outs   dx,BYTE PTR ds:[esi]
  40c2d6:	fs outs dx,BYTE PTR gs:[esi]
  40c2d9:	je     0x40c31c
  40c2db:	jae    0x40c350
  40c2dd:	gs ins DWORD PTR es:[edi],dx
  40c2df:	bound  ebp,QWORD PTR [ecx+edi*2+0x3e]
  40c2e3:	or     eax,0x2020200a
  40c2e8:	and    BYTE PTR [eax],ah
  40c2ea:	and    BYTE PTR [eax],ah
  40c2ec:	and    BYTE PTR [ecx+eiz*2],bh
  40c2ef:	jae    0x40c364
  40c2f1:	gs ins DWORD PTR es:[edi],dx
  40c2f3:	bound  ebp,QWORD PTR [ecx+edi*2+0x49]
  40c2f7:	fs outs dx,BYTE PTR gs:[esi]
  40c2fa:	je     0x40c365
  40c2fc:	je     0x40c377
  40c2fe:	or     eax,0x2020200a
  40c303:	and    BYTE PTR [eax],ah
  40c305:	and    BYTE PTR [eax],ah
  40c307:	and    BYTE PTR [eax],ah
  40c309:	and    BYTE PTR [eax],ah
  40c30b:	and    BYTE PTR [ecx+edi*2+0x70],dh
  40c30f:	gs cmp eax,0x6e697722
  40c315:	xor    esi,DWORD PTR [edx]
  40c317:	and    cl,BYTE PTR ds:0x2020200a
  40c31d:	and    BYTE PTR [eax],ah
  40c31f:	and    BYTE PTR [eax],ah
  40c321:	and    BYTE PTR [eax],ah
  40c323:	and    BYTE PTR [eax],ah
  40c325:	and    BYTE PTR [esi+0x61],ch
  40c328:	ins    DWORD PTR es:[edi],dx
  40c329:	gs cmp eax,0x63694d22
  40c32f:	jb     0x40c3a0
  40c331:	jae    0x40c3a2
  40c333:	data16 je 0x40c364
  40c336:	push   edi
  40c337:	imul   ebp,DWORD PTR [esi+0x64],0x2e73776f
  40c33e:	inc    ebx
  40c33f:	outs   dx,DWORD PTR ds:[esi]
  40c340:	ins    DWORD PTR es:[edi],dx
  40c341:	ins    DWORD PTR es:[edi],dx
  40c342:	outs   dx,DWORD PTR ds:[esi]
  40c343:	outs   dx,BYTE PTR ds:[esi]
  40c344:	sub    eax,0x746e6f43
  40c349:	jb     0x40c3ba
  40c34b:	ins    BYTE PTR es:[edi],dx
  40c34c:	jae    0x40c370
  40c34e:	or     eax,0x2020200a
  40c353:	and    BYTE PTR [eax],ah
  40c355:	and    BYTE PTR [eax],ah
  40c357:	and    BYTE PTR [eax],ah
  40c359:	and    BYTE PTR [eax],ah
  40c35b:	and    BYTE PTR [esi+0x65],dh
  40c35e:	jb     0x40c3d3
  40c360:	imul   ebp,DWORD PTR [edi+0x6e],0x2e36223d
  40c367:	xor    BYTE PTR [esi],ch
  40c369:	xor    BYTE PTR [esi],ch
  40c36b:	xor    BYTE PTR [edx],ah
  40c36d:	or     eax,0x2020200a
  40c372:	and    BYTE PTR [eax],ah
  40c374:	and    BYTE PTR [eax],ah
  40c376:	and    BYTE PTR [eax],ah
  40c378:	and    BYTE PTR [eax],ah
  40c37a:	and    BYTE PTR [eax+0x72],dh
  40c37d:	outs   dx,DWORD PTR ds:[esi]
  40c37e:	arpl   WORD PTR [ebp+0x73],sp
  40c381:	jae    0x40c3f2
  40c383:	jb     0x40c3c6
  40c385:	jb     0x40c3ea
  40c387:	push   0x63657469
  40c38c:	je     0x40c403
  40c38e:	jb     0x40c3f5
  40c390:	cmp    eax,0xd222a22
  40c395:	or     ah,BYTE PTR [eax]
  40c397:	and    BYTE PTR [eax],ah
  40c399:	and    BYTE PTR [eax],ah
  40c39b:	and    BYTE PTR [eax],ah
  40c39d:	and    BYTE PTR [eax],ah
  40c39f:	and    BYTE PTR [eax],ah
  40c3a1:	and    BYTE PTR [eax+0x75],dh
  40c3a4:	bound  ebp,QWORD PTR [ecx+ebp*2+0x63]
  40c3a8:	dec    ebx
  40c3a9:	gs jns 0x40c400
  40c3ac:	outs   dx,DWORD PTR ds:[esi]
  40c3ad:	imul   esp,DWORD PTR [ebp+0x6e],0x3d
  40c3b1:	and    dh,BYTE PTR [esi]
  40c3b3:	xor    eax,0x36623539
  40c3b8:	xor    al,0x31
  40c3ba:	xor    al,0x34
  40c3bc:	arpl   WORD PTR [ebx+0x66],sp
  40c3bf:	xor    DWORD PTR [esi+eiz*2+0x22],esp
  40c3c3:	or     eax,0x2020200a
  40c3c8:	and    BYTE PTR [eax],ah
  40c3ca:	and    BYTE PTR [eax],ah
  40c3cc:	and    BYTE PTR [eax],ah
  40c3ce:	and    BYTE PTR [eax],ah
  40c3d0:	and    BYTE PTR [ecx+eiz*2+0x6e],ch
  40c3d4:	addr16 jne 0x40c438
  40c3d7:	addr16 gs cmp eax,0xd222a22
  40c3de:	or     ah,BYTE PTR [eax]
  40c3e0:	and    BYTE PTR [eax],ah
  40c3e2:	and    BYTE PTR [eax],ah
  40c3e4:	and    BYTE PTR [eax],ah
  40c3e6:	and    BYTE PTR [edi],ch
  40c3e8:	ds or  eax,0x2020200a
  40c3ee:	and    BYTE PTR [edi+ebp*1],bh
  40c3f1:	fs gs jo 0x40c45a
  40c3f5:	outs   dx,BYTE PTR ds:[esi]
  40c3f6:	fs outs dx,BYTE PTR gs:[esi]
  40c3f9:	je     0x40c43c
  40c3fb:	jae    0x40c470
  40c3fd:	gs ins DWORD PTR es:[edi],dx
  40c3ff:	bound  ebp,QWORD PTR [ecx+edi*2+0x3e]
  40c403:	or     eax,0x642f3c0a
  40c408:	gs jo  0x40c470
  40c40b:	outs   dx,BYTE PTR ds:[esi]
  40c40c:	fs outs dx,BYTE PTR gs:[esi]
  40c40f:	arpl   WORD PTR [ecx+0x3e],di
  40c412:	or     eax,0x72743c0a
  40c417:	jne    0x40c48c
  40c419:	je     0x40c464
  40c41b:	outs   dx,BYTE PTR ds:[esi]
  40c41c:	outs   dx,WORD PTR ds:[esi]
  40c41e:	and    BYTE PTR [eax+0x6d],bh
  40c421:	ins    BYTE PTR es:[edi],dx
  40c422:	outs   dx,BYTE PTR ds:[esi]
  40c423:	jae    0x40c462
  40c425:	and    dh,BYTE PTR [ebp+0x72]
  40c428:	outs   dx,BYTE PTR ds:[esi]
  40c429:	cmp    dh,BYTE PTR [ebx+0x63]
  40c42c:	push   0x73616d65
  40c431:	sub    eax,0x7263696d
  40c436:	outs   dx,DWORD PTR ds:[esi]
  40c437:	jae    0x40c4a8
  40c439:	data16 je 0x40c469
  40c43c:	arpl   WORD PTR [edi+0x6d],bp
  40c43f:	cmp    ah,BYTE PTR [ecx+0x73]
  40c442:	ins    DWORD PTR es:[edi],dx
  40c443:	cs jbe 0x40c479
  40c446:	and    bh,BYTE PTR [esi]
  40c448:	or     eax,0x2020200a
  40c44d:	and    BYTE PTR [ebx+esi*2],bh
  40c450:	arpl   WORD PTR gs:[ebp+0x72],si
  40c454:	imul   esi,DWORD PTR [ecx+edi*2+0x3e],0x20200a0d
  40c45c:	and    BYTE PTR [eax],ah
  40c45e:	and    BYTE PTR [eax],ah
  40c460:	and    BYTE PTR [eax],ah
  40c462:	cmp    al,0x72
  40c464:	gs jno 0x40c4dc
  40c467:	gs jae 0x40c4de
  40c46a:	gs fs push eax
  40c46d:	jb     0x40c4d8
  40c46f:	jbe    0x40c4da
  40c471:	ins    BYTE PTR es:[edi],dx
  40c472:	gs addr16 gs jae 0x40c4b5
  40c477:	or     eax,0x2020200a
  40c47c:	and    BYTE PTR [eax],ah
  40c47e:	and    BYTE PTR [eax],ah
  40c480:	and    BYTE PTR [eax],ah
  40c482:	and    BYTE PTR [eax],ah
  40c484:	and    BYTE PTR [edx+esi*2],bh
  40c487:	gs jno 0x40c4ff
  40c48a:	gs jae 0x40c501
  40c48d:	gs fs inc ebp
  40c490:	js     0x40c4f7
  40c492:	arpl   WORD PTR [ebp+0x74],si
  40c495:	imul   ebp,DWORD PTR [edi+0x6e],0x6576654c
  40c49c:	ins    BYTE PTR es:[edi],dx
  40c49d:	and    BYTE PTR [ebp+eiz*2+0x76],ch
  40c4a1:	gs ins BYTE PTR es:[edi],dx
  40c4a3:	cmp    eax,0x49736122
  40c4a8:	outs   dx,BYTE PTR ds:[esi]
  40c4a9:	jbe    0x40c51a
  40c4ab:	imul   esp,DWORD PTR [ebp+0x72],0x22
  40c4af:	and    BYTE PTR [ebp+0x69],dh
  40c4b2:	inc    ecx
  40c4b3:	arpl   WORD PTR [ebx+0x65],sp
  40c4b6:	jae    0x40c52b
  40c4b8:	cmp    eax,0x6c616622
  40c4bd:	jae    0x40c524
  40c4bf:	and    ch,BYTE PTR [edi]
  40c4c1:	ds or  eax,0x2020200a
  40c4c7:	and    BYTE PTR [eax],ah
  40c4c9:	and    BYTE PTR [eax],ah
  40c4cb:	and    BYTE PTR [edi+ebp*1],bh
  40c4ce:	jb     0x40c535
  40c4d0:	jno    0x40c547
  40c4d2:	gs jae 0x40c549
  40c4d5:	gs fs push eax
  40c4d8:	jb     0x40c543
  40c4da:	jbe    0x40c545
  40c4dc:	ins    BYTE PTR es:[edi],dx
  40c4dd:	gs addr16 gs jae 0x40c520
  40c4e2:	or     eax,0x2020200a
  40c4e7:	and    BYTE PTR [edi+ebp*1],bh
  40c4ea:	jae    0x40c551
  40c4ec:	arpl   WORD PTR [ebp+0x72],si
  40c4ef:	imul   esi,DWORD PTR [ecx+edi*2+0x3e],0x2f3c0a0d
  40c4f7:	je     0x40c56b
  40c4f9:	jne    0x40c56e
  40c4fb:	je     0x40c546
  40c4fd:	outs   dx,BYTE PTR ds:[esi]
  40c4fe:	outs   dx,WORD PTR ds:[esi]
  40c500:	ds or  eax,0x612f3c0a
  40c506:	jae    0x40c57b
  40c508:	gs ins DWORD PTR es:[edi],dx
  40c50a:	bound  ebp,QWORD PTR [ecx+edi*2+0x3e]
  40c50e:	or     eax,0x4952430a
  40c513:	dec    ebp
  40c514:	loopne 0x40c51e
  40c516:	add    BYTE PTR [eax],al
  40c518:	add    eax,DWORD PTR [eax]
  40c51a:	add    DWORD PTR [eax],eax
  40c51c:	add    DWORD PTR [eax],eax
  40c51e:	add    BYTE PTR [eax],al
  40c520:	xchg   ecx,eax
  40c521:	mov    esi,DWORD PTR [ecx]
  40c523:	sub    eax,0x4c46e6e7
  40c528:	mov    ebp,0xdbe6bf04
  40c52d:	inc    ecx
  40c52e:	sub    al,0xf9
  40c530:	and    al,0x0
  40c532:	add    BYTE PTR [eax],al
  40c534:	push   edi
  40c535:	inc    ebp
  40c536:	push   esi
  40c537:	push   esp
  40c538:	mov    esp,0x1000008
  40c53d:	add    BYTE PTR [eax],al
  40c53f:	nop
  40c540:	pop    es
  40c541:	add    BYTE PTR [eax],al
  40c543:	add    BYTE PTR ds:0x8c000000,al
  40c549:	add    BYTE PTR [eax],al
  40c54b:	add    BYTE PTR [edi],al
  40c54d:	add    BYTE PTR [eax],al
  40c54f:	add    al,bh
  40c551:	add    BYTE PTR [eax],al
  40c553:	add    BYTE PTR [edx],al
  40c555:	add    BYTE PTR [eax],al
  40c557:	add    BYTE PTR [eax],al
  40c559:	pop    es
  40c55a:	add    BYTE PTR [eax],al
  40c55c:	add    BYTE PTR [eax],al
  40c55e:	add    BYTE PTR [eax],al
  40c560:	xor    BYTE PTR [edi],al
  40c562:	add    BYTE PTR [eax],al
  40c564:	add    DWORD PTR [eax],eax
  40c566:	add    BYTE PTR [eax],al
  40c568:	xchg   esp,eax
  40c569:	pop    es
  40c56a:	add    BYTE PTR [eax],al
  40c56c:	add    eax,DWORD PTR [eax]
  40c56e:	add    BYTE PTR [eax],al
  40c570:	aam    0x7
  40c572:	add    BYTE PTR [eax],al
  40c574:	add    al,0x0
  40c576:	add    BYTE PTR [eax],al
  40c578:	loopne 0x40c581
	...
  40c59a:	add    BYTE PTR [eax],al
  40c59c:	inc    ebx
  40c59d:	dec    eax
  40c59e:	inc    ecx
  40c59f:	dec    esi
  40c5a0:	ins    BYTE PTR es:[edi],dx
  40c5a1:	add    BYTE PTR [eax],al
  40c5a3:	add    BYTE PTR [ecx],al
  40c5a5:	add    BYTE PTR [eax],al
  40c5a7:	add    BYTE PTR [eax],al
  40c5a9:	add    BYTE PTR [eax],al
  40c5ab:	add    BYTE PTR [eax+0x10000000],ch
  40c5b1:	add    BYTE PTR [eax],al
  40c5b3:	add    BYTE PTR [edx],al
  40c5b5:	add    BYTE PTR [eax],al
  40c5b7:	nop
  40c5b8:	push   eax
  40c5b9:	add    BYTE PTR [eax],al
  40c5bb:	add    BYTE PTR [ebp+0x0],cl
  40c5be:	imul   eax,DWORD PTR [eax],0x720063
  40c5c4:	outs   dx,DWORD PTR ds:[esi]
  40c5c5:	add    BYTE PTR [ebx+0x0],dh
  40c5c8:	outs   dx,DWORD PTR ds:[esi]
  40c5c9:	add    BYTE PTR [esi+0x0],ah
  40c5cc:	je     0x40c5ce
  40c5ce:	sub    eax,0x69005700
  40c5d3:	add    BYTE PTR [esi+0x0],ch
  40c5d6:	add    BYTE PTR fs:[edi+0x0],ch
  40c5da:	ja     0x40c5dc
  40c5dc:	jae    0x40c5de
  40c5de:	sub    eax,0x5a005400
  40c5e3:	add    BYTE PTR [ebp+0x0],dl
  40c5e6:	je     0x40c5e8
  40c5e8:	imul   eax,DWORD PTR [eax],0x2f006c
  40c5ee:	dec    edi
  40c5ef:	add    BYTE PTR [eax+0x0],dh
  40c5f2:	add    BYTE PTR gs:[edx+0x0],dh
  40c5f6:	popa   
  40c5f7:	add    BYTE PTR [eax+eax*1+0x69],dh
  40c5fb:	add    BYTE PTR [edi+0x0],ch
  40c5fe:	outs   dx,BYTE PTR ds:[esi]
  40c5ff:	add    BYTE PTR [ecx+0x0],ah
  40c602:	ins    BYTE PTR es:[edi],dx
  40c603:	add    BYTE PTR [eax],al
  40c605:	add    BYTE PTR [eax],al
  40c607:	add    BYTE PTR [esp+edx*2+0x42],dl
  40c60b:	dec    esp
  40c60c:	or     BYTE PTR [esi],al
  40c60e:	add    BYTE PTR [eax],al
  40c610:	add    eax,0x54000000
  40c615:	inc    ebp
  40c616:	dec    ebp
  40c617:	push   eax
  40c618:	rol    BYTE PTR [eax],0x0
  40c61b:	add    BYTE PTR [ecx],al
  40c61d:	add    BYTE PTR [eax],al
  40c61f:	add    BYTE PTR [ecx],al
  40c621:	add    BYTE PTR [eax],al
  40c623:	add    BYTE PTR [eax+0x1000001],bl
  40c629:	add    BYTE PTR [eax],al
  40c62b:	add    BYTE PTR [edi-0x6a],cl
  40c62e:	add    ch,BYTE PTR [ebx+0x71d8a969]
  40c634:	adc    bh,BYTE PTR [eax-0x21]
  40c637:	cmp    BYTE PTR gs:[ecx+0x74],0x72
  40c63c:	sgdtd  [ecx]
  40c63f:	add    BYTE PTR [ecx],al
  40c641:	(bad)  
  40c642:	call   FWORD PTR [esi+0x0]
  40c645:	add    BYTE PTR [eax],al
  40c647:	inc    esp
  40c648:	or     BYTE PTR [ecx],0x0
  40c64b:	inc    ebp
  40c64c:	add    BYTE PTR [esi+0x0],dh
  40c64f:	add    BYTE PTR gs:[esi+0x0],ch
  40c653:	je     0x40c655
  40c655:	inc    esp
  40c656:	add    BYTE PTR [ecx+0x0],ah
  40c659:	je     0x40c65b
  40c65b:	popa   
  40c65c:	add    BYTE PTR [eax],al
  40c65e:	add    BYTE PTR [edx],al
  40c660:	inc    ecx
  40c661:	(bad)  
  40c662:	(bad)  
  40c663:	cmp    eax,0x8a000000
  40c668:	outs   dx,DWORD PTR ds:[esi]
  40c669:	add    al,0x0
  40c66b:	inc    esp
  40c66c:	add    BYTE PTR [ecx+0x0],ah
  40c66f:	je     0x40c671
  40c671:	popa   
  40c672:	add    BYTE PTR [eax],al
  40c674:	add    BYTE PTR ds:0x6000000,ah
  40c67a:	dec    ebx
  40c67b:	xchg   ebp,eax
  40c67c:	add    al,0x0
  40c67e:	dec    esi
  40c67f:	add    BYTE PTR [ecx+0x0],ah
  40c682:	ins    DWORD PTR es:[edi],dx
  40c683:	add    BYTE PTR [ebp+0x0],ah
  40c686:	add    BYTE PTR [eax],al
  40c688:	add    eax,0x54000901
  40c68d:	add    BYTE PTR [ecx+0x0],ch
  40c690:	ins    DWORD PTR es:[edi],dx
  40c691:	add    BYTE PTR [ebp+0x0],ah
  40c694:	and    BYTE PTR [eax],al
  40c696:	pop    edx
  40c697:	add    BYTE PTR [edi+0x0],ch
  40c69a:	outs   dx,BYTE PTR ds:[esi]
  40c69b:	add    BYTE PTR [ebp+0x0],ah
  40c69e:	add    cl,BYTE PTR ds:0x4010000
  40c6a4:	add    al,0x0
  40c6a6:	add    BYTE PTR [eax],al
  40c6a8:	add    BYTE PTR [eax],al
  40c6aa:	add    BYTE PTR [eax],al
  40c6ac:	add    DWORD PTR [ecx],eax
	...
  40c6b6:	add    BYTE PTR [eax],al
  40c6b8:	lods   al,BYTE PTR ds:[esi]
  40c6b9:	add    DWORD PTR [eax],eax
  40c6bb:	add    BYTE PTR [eax],bl
  40c6bd:	add    BYTE PTR [eax],al
  40c6bf:	add    BYTE PTR [eax+eax*1+0x69],dl
  40c6c3:	add    BYTE PTR [ebp+0x0],ch
  40c6c6:	add    BYTE PTR gs:[eax],ah
  40c6c9:	add    BYTE PTR [edx+0x0],bl
  40c6cc:	outs   dx,DWORD PTR ds:[esi]
  40c6cd:	add    BYTE PTR [esi+0x0],ch
  40c6d0:	add    BYTE PTR gs:[eax],al
  40c6d3:	add    BYTE PTR [ebp+eax*2+0x4d],dl
  40c6d7:	push   eax
  40c6d8:	lods   al,BYTE PTR ds:[esi]
  40c6d9:	add    DWORD PTR [eax],eax
  40c6db:	add    BYTE PTR [ebx],al
  40c6dd:	add    BYTE PTR [eax],al
  40c6df:	add    BYTE PTR [ebx],al
  40c6e1:	add    BYTE PTR [eax],al
  40c6e3:	add    ah,ah
  40c6e5:	add    al,BYTE PTR [eax]
  40c6e7:	add    BYTE PTR [ecx],al
  40c6e9:	add    BYTE PTR [eax],al
  40c6eb:	add    bl,dh
  40c6ed:	popf   
  40c6ee:	data16 xlat BYTE PTR ds:[ebx]
  40c6f0:	mov    WORD PTR [ebp+0x3c],?
  40c6f3:	icebp  
  40c6f4:	sbb    DWORD PTR [esp+edi*1-0x7e],edx
  40c6f8:	popf   
  40c6f9:	dec    esp
  40c6fa:	das    
  40c6fb:	jnp    0x40c70c
  40c6fd:	add    DWORD PTR [ecx],eax
  40c6ff:	add    BYTE PTR [ecx],al
  40c701:	(bad)  
  40c702:	(bad)  
  40c703:	in     al,dx
  40c704:	add    BYTE PTR [eax],al
  40c706:	add    BYTE PTR [edx+eax*4+0x9],al
  40c70a:	add    BYTE PTR [ebp+0x0],al
  40c70d:	jbe    0x40c70f
  40c70f:	add    BYTE PTR gs:[esi+0x0],ch
  40c713:	je     0x40c715
  40c715:	inc    esp
  40c716:	add    BYTE PTR [ecx+0x0],ah
  40c719:	je     0x40c71b
  40c71b:	popa   
  40c71c:	add    BYTE PTR [eax],al
  40c71e:	add    BYTE PTR [edx],al
  40c720:	inc    ecx
  40c721:	(bad)  
  40c722:	(bad)  
  40c723:	cmp    eax,0x8a000000
  40c728:	outs   dx,DWORD PTR ds:[esi]
  40c729:	add    al,0x0
  40c72b:	inc    esp
  40c72c:	add    BYTE PTR [ecx+0x0],ah
  40c72f:	je     0x40c731
  40c731:	popa   
  40c732:	add    BYTE PTR [eax],al
  40c734:	add    BYTE PTR ds:0x6000000,ah
  40c73a:	dec    ebx
  40c73b:	xchg   ebp,eax
  40c73c:	add    al,0x0
  40c73e:	dec    esi
  40c73f:	add    BYTE PTR [ecx+0x0],ah
  40c742:	ins    DWORD PTR es:[edi],dx
  40c743:	add    BYTE PTR [ebp+0x0],ah
  40c746:	add    BYTE PTR [eax],al
  40c748:	add    eax,0x54000901
  40c74d:	add    BYTE PTR [ecx+0x0],ch
  40c750:	ins    DWORD PTR es:[edi],dx
  40c751:	add    BYTE PTR [ebp+0x0],ah
  40c754:	and    BYTE PTR [eax],al
  40c756:	pop    edx
  40c757:	add    BYTE PTR [edi+0x0],ch
  40c75a:	outs   dx,BYTE PTR ds:[esi]
  40c75b:	add    BYTE PTR [ebp+0x0],ah
  40c75e:	add    cl,BYTE PTR ds:0x4010000
  40c764:	inc    ecx
  40c765:	(bad)  
  40c766:	(bad)  
  40c767:	cmp    eax,0x8a000000
  40c76c:	outs   dx,DWORD PTR ds:[esi]
  40c76d:	add    al,0x0
  40c76f:	inc    esp
  40c770:	add    BYTE PTR [ecx+0x0],ah
  40c773:	je     0x40c775
  40c775:	popa   
  40c776:	add    BYTE PTR [eax],al
  40c778:	add    BYTE PTR ds:0x6000000,ah
  40c77e:	dec    ebx
  40c77f:	xchg   ebp,eax
  40c780:	add    al,0x0
  40c782:	dec    esi
  40c783:	add    BYTE PTR [ecx+0x0],ah
  40c786:	ins    DWORD PTR es:[edi],dx
  40c787:	add    BYTE PTR [ebp+0x0],ah
  40c78a:	add    BYTE PTR [eax],al
  40c78c:	add    eax,0x45000901
  40c791:	add    BYTE PTR [edx+0x0],dh
  40c794:	jb     0x40c796
  40c796:	outs   dx,DWORD PTR ds:[esi]
  40c797:	add    BYTE PTR [edx+0x0],dh
  40c79a:	inc    ebx
  40c79b:	add    BYTE PTR [edi+0x0],ch
  40c79e:	add    BYTE PTR fs:[ebp+0x0],ah
  40c7a2:	add    cl,BYTE PTR ds:0x4080001
  40c7a8:	inc    ecx
  40c7a9:	(bad)  
  40c7aa:	inc    DWORD PTR [ebx+0x0]
  40c7ad:	add    BYTE PTR [eax],al
  40c7af:	mov    ch,BYTE PTR [edi+0x4]
  40c7b2:	add    BYTE PTR [eax+eax*1+0x61],al
  40c7b6:	add    BYTE PTR [eax+eax*1+0x61],dh
  40c7ba:	add    BYTE PTR [eax],al
  40c7bc:	add    BYTE PTR [ebx],ch
  40c7be:	add    BYTE PTR [eax],al
  40c7c0:	add    BYTE PTR [esi],al
  40c7c2:	dec    ebx
  40c7c3:	xchg   ebp,eax
  40c7c4:	add    al,0x0
  40c7c6:	dec    esi
  40c7c7:	add    BYTE PTR [ecx+0x0],ah
  40c7ca:	ins    DWORD PTR es:[edi],dx
  40c7cb:	add    BYTE PTR [ebp+0x0],ah
  40c7ce:	add    BYTE PTR [eax],al
  40c7d0:	add    eax,0x45000c01
  40c7d5:	add    BYTE PTR [edx+0x0],dh
  40c7d8:	jb     0x40c7da
  40c7da:	outs   dx,DWORD PTR ds:[esi]
  40c7db:	add    BYTE PTR [edx+0x0],dh
  40c7de:	dec    ebp
  40c7df:	add    BYTE PTR [ebp+0x0],ah
  40c7e2:	jae    0x40c7e4
  40c7e4:	jae    0x40c7e6
  40c7e6:	popa   
  40c7e7:	add    BYTE PTR [edi+0x0],ah
  40c7ea:	add    BYTE PTR gs:[edx],al
  40c7ed:	or     eax,0x4010002
  40c7f2:	add    al,0x0
  40c7f4:	add    BYTE PTR [eax],al
  40c7f6:	add    BYTE PTR [eax],al
  40c7f8:	add    DWORD PTR [ecx],eax
	...
  40c802:	add    BYTE PTR [eax],al
  40c804:	and    BYTE PTR [ebx],al
  40c806:	add    BYTE PTR [eax],al
  40c808:	add    BYTE PTR [eax],al
  40c80a:	add    BYTE PTR [eax],al
  40c80c:	or     BYTE PTR [eax],cl
	...
  40c816:	add    BYTE PTR [eax],al
  40c818:	cmp    BYTE PTR [ebx],al
  40c81a:	add    BYTE PTR [eax],al
  40c81c:	add    BYTE PTR [eax],al
  40c81e:	add    BYTE PTR [eax],al
  40c820:	add    DWORD PTR [ecx],eax
	...
  40c82a:	add    BYTE PTR [eax],al
  40c82c:	push   eax
  40c82d:	add    eax,DWORD PTR [eax]
  40c82f:	add    BYTE PTR [eax],bl
  40c831:	add    BYTE PTR [eax],al
  40c833:	add    BYTE PTR [eax+eax*1+0x69],dl
  40c837:	add    BYTE PTR [ebp+0x0],ch
  40c83a:	add    BYTE PTR gs:[eax],ah
  40c83d:	add    BYTE PTR [edx+0x0],bl
  40c840:	outs   dx,DWORD PTR ds:[esi]
  40c841:	add    BYTE PTR [esi+0x0],ch
  40c844:	add    BYTE PTR gs:[eax],al
  40c847:	add    BYTE PTR [eax],bl
  40c849:	add    BYTE PTR [eax],al
  40c84b:	add    BYTE PTR [ebp+0x0],al
  40c84e:	jb     0x40c850
  40c850:	jb     0x40c852
  40c852:	outs   dx,DWORD PTR ds:[esi]
  40c853:	add    BYTE PTR [edx+0x0],dh
  40c856:	inc    ebx
  40c857:	add    BYTE PTR [edi+0x0],ch
  40c85a:	add    BYTE PTR fs:[ebp+0x0],ah
  40c85e:	add    BYTE PTR [eax],al
  40c860:	and    BYTE PTR [eax],al
  40c862:	add    BYTE PTR [eax],al
  40c864:	inc    ebp
  40c865:	add    BYTE PTR [edx+0x0],dh
  40c868:	jb     0x40c86a
  40c86a:	outs   dx,DWORD PTR ds:[esi]
  40c86b:	add    BYTE PTR [edx+0x0],dh
  40c86e:	dec    ebp
  40c86f:	add    BYTE PTR [ebp+0x0],ah
  40c872:	jae    0x40c874
  40c874:	jae    0x40c876
  40c876:	popa   
  40c877:	add    BYTE PTR [edi+0x0],ah
  40c87a:	add    BYTE PTR gs:[eax],al
  40c87d:	add    BYTE PTR [eax],al
  40c87f:	add    BYTE PTR [ebp+eax*2+0x4d],dl
  40c883:	push   eax
  40c884:	xor    BYTE PTR [ecx],al
  40c886:	add    BYTE PTR [eax],al
  40c888:	add    al,BYTE PTR [eax]
  40c88a:	add    BYTE PTR [eax],al
  40c88c:	add    al,BYTE PTR [eax]
  40c88e:	add    BYTE PTR [eax],al
  40c890:	dec    eax
  40c891:	add    al,0x0
  40c893:	add    BYTE PTR [ecx],al
  40c895:	add    BYTE PTR [eax],al
  40c897:	add    BYTE PTR [ecx],dh
  40c899:	aam    0xec
  40c89b:	loopne 0x40c8af
  40c89d:	stc    
  40c89e:	push   ebx
  40c89f:	or     al,0xa5
  40c8a1:	jge    0x40c8b2
  40c8a3:	or     eax,0x35558954
  40c8a8:	sgdtd  [ecx]
  40c8ab:	add    BYTE PTR [ecx],al
  40c8ad:	(bad)  
  40c8ae:	jmp    DWORD PTR [edx+0x44000000]
  40c8b4:	or     BYTE PTR [ecx],0x0
  40c8b7:	inc    ebp
  40c8b8:	add    BYTE PTR [esi+0x0],dh
  40c8bb:	add    BYTE PTR gs:[esi+0x0],ch
  40c8bf:	je     0x40c8c1
  40c8c1:	inc    esp
  40c8c2:	add    BYTE PTR [ecx+0x0],ah
  40c8c5:	je     0x40c8c7
  40c8c7:	popa   
  40c8c8:	add    BYTE PTR [eax],al
  40c8ca:	add    BYTE PTR [edx],al
  40c8cc:	inc    ecx
  40c8cd:	(bad)  
  40c8ce:	(bad)  
  40c8cf:	cmp    eax,0x8a000000
  40c8d4:	outs   dx,DWORD PTR ds:[esi]
  40c8d5:	add    al,0x0
  40c8d7:	inc    esp
  40c8d8:	add    BYTE PTR [ecx+0x0],ah
  40c8db:	je     0x40c8dd
  40c8dd:	popa   
  40c8de:	add    BYTE PTR [eax],al
  40c8e0:	add    BYTE PTR ds:0x6000000,ah
  40c8e6:	dec    ebx
  40c8e7:	xchg   ebp,eax
  40c8e8:	add    al,0x0
  40c8ea:	dec    esi
  40c8eb:	add    BYTE PTR [ecx+0x0],ah
  40c8ee:	ins    DWORD PTR es:[edi],dx
  40c8ef:	add    BYTE PTR [ebp+0x0],ah
  40c8f2:	add    BYTE PTR [eax],al
  40c8f4:	add    eax,0x54000901
  40c8f9:	add    BYTE PTR [ecx+0x0],ch
  40c8fc:	ins    DWORD PTR es:[edi],dx
  40c8fd:	add    BYTE PTR [ebp+0x0],ah
  40c900:	and    BYTE PTR [eax],al
  40c902:	pop    edx
  40c903:	add    BYTE PTR [edi+0x0],ch
  40c906:	outs   dx,BYTE PTR ds:[esi]
  40c907:	add    BYTE PTR [ebp+0x0],ah
  40c90a:	add    cl,BYTE PTR ds:0x4010000
  40c910:	inc    ecx
  40c911:	(bad)  
  40c912:	(bad)  
  40c913:	cmp    eax,0x8a000000
  40c918:	outs   dx,DWORD PTR ds:[esi]
  40c919:	add    al,0x0
  40c91b:	inc    esp
  40c91c:	add    BYTE PTR [ecx+0x0],ah
  40c91f:	je     0x40c921
  40c921:	popa   
  40c922:	add    BYTE PTR [eax],al
  40c924:	add    BYTE PTR ds:0x6000000,ah
  40c92a:	dec    ebx
  40c92b:	xchg   ebp,eax
  40c92c:	add    al,0x0
  40c92e:	dec    esi
  40c92f:	add    BYTE PTR [ecx+0x0],ah
  40c932:	ins    DWORD PTR es:[edi],dx
  40c933:	add    BYTE PTR [ebp+0x0],ah
  40c936:	add    BYTE PTR [eax],al
  40c938:	add    eax,0x45000901
  40c93d:	add    BYTE PTR [edx+0x0],dh
  40c940:	jb     0x40c942
  40c942:	outs   dx,DWORD PTR ds:[esi]
  40c943:	add    BYTE PTR [edx+0x0],dh
  40c946:	inc    ebx
  40c947:	add    BYTE PTR [edi+0x0],ch
  40c94a:	add    BYTE PTR fs:[ebp+0x0],ah
  40c94e:	add    cl,BYTE PTR ds:0x4080001
  40c954:	add    al,0x0
  40c956:	add    BYTE PTR [eax],al
  40c958:	add    BYTE PTR [eax],al
  40c95a:	add    BYTE PTR [eax],al
  40c95c:	add    DWORD PTR [ecx],eax
	...
  40c966:	add    BYTE PTR [eax],al
  40c968:	jo     0x40c96e
  40c96a:	add    BYTE PTR [eax],al
  40c96c:	add    BYTE PTR [eax],al
  40c96e:	add    BYTE PTR [eax],al
  40c970:	or     BYTE PTR [eax],cl
	...
  40c97a:	add    BYTE PTR [eax],al
  40c97c:	mov    BYTE PTR [eax+eax*1],al
  40c97f:	add    BYTE PTR [eax],bl
  40c981:	add    BYTE PTR [eax],al
  40c983:	add    BYTE PTR [eax+eax*1+0x69],dl
  40c987:	add    BYTE PTR [ebp+0x0],ch
  40c98a:	add    BYTE PTR gs:[eax],ah
  40c98d:	add    BYTE PTR [edx+0x0],bl
  40c990:	outs   dx,DWORD PTR ds:[esi]
  40c991:	add    BYTE PTR [esi+0x0],ch
  40c994:	add    BYTE PTR gs:[eax],al
  40c997:	add    BYTE PTR [eax],bl
  40c999:	add    BYTE PTR [eax],al
  40c99b:	add    BYTE PTR [ebp+0x0],al
  40c99e:	jb     0x40c9a0
  40c9a0:	jb     0x40c9a2
  40c9a2:	outs   dx,DWORD PTR ds:[esi]
  40c9a3:	add    BYTE PTR [edx+0x0],dh
  40c9a6:	inc    ebx
  40c9a7:	add    BYTE PTR [edi+0x0],ch
  40c9aa:	add    BYTE PTR fs:[ebp+0x0],ah
  40c9ae:	add    BYTE PTR [eax],al
  40c9b0:	push   esp
  40c9b1:	inc    ebp
  40c9b2:	dec    ebp
  40c9b3:	push   eax
  40c9b4:	xor    BYTE PTR [ecx],al
  40c9b6:	add    BYTE PTR [eax],al
  40c9b8:	add    al,BYTE PTR [eax]
  40c9ba:	add    BYTE PTR [eax],al
  40c9bc:	add    al,BYTE PTR [eax]
  40c9be:	add    BYTE PTR [eax],al
  40c9c0:	js     0x40c9c7
  40c9c2:	add    BYTE PTR [eax],al
  40c9c4:	add    DWORD PTR [eax],eax
  40c9c6:	add    BYTE PTR [eax],al
  40c9c8:	xor    esp,edx
  40c9ca:	in     al,dx
  40c9cb:	loopne 0x40c9df
  40c9cd:	stc    
  40c9ce:	push   ebx
  40c9cf:	or     al,0xa5
  40c9d1:	jge    0x40c9e2
  40c9d3:	or     eax,0x35558954
  40c9d8:	sgdtd  [ecx]
  40c9db:	add    BYTE PTR [ecx],al
  40c9dd:	(bad)  
  40c9de:	jmp    DWORD PTR [edx+0x44000000]
  40c9e4:	or     BYTE PTR [ecx],0x0
  40c9e7:	inc    ebp
  40c9e8:	add    BYTE PTR [esi+0x0],dh
  40c9eb:	add    BYTE PTR gs:[esi+0x0],ch
  40c9ef:	je     0x40c9f1
  40c9f1:	inc    esp
  40c9f2:	add    BYTE PTR [ecx+0x0],ah
  40c9f5:	je     0x40c9f7
  40c9f7:	popa   
  40c9f8:	add    BYTE PTR [eax],al
  40c9fa:	add    BYTE PTR [edx],al
  40c9fc:	inc    ecx
  40c9fd:	(bad)  
  40c9fe:	(bad)  
  40c9ff:	cmp    eax,0x8a000000
  40ca04:	outs   dx,DWORD PTR ds:[esi]
  40ca05:	add    al,0x0
  40ca07:	inc    esp
  40ca08:	add    BYTE PTR [ecx+0x0],ah
  40ca0b:	je     0x40ca0d
  40ca0d:	popa   
  40ca0e:	add    BYTE PTR [eax],al
  40ca10:	add    BYTE PTR ds:0x6000000,ah
  40ca16:	dec    ebx
  40ca17:	xchg   ebp,eax
  40ca18:	add    al,0x0
  40ca1a:	dec    esi
  40ca1b:	add    BYTE PTR [ecx+0x0],ah
  40ca1e:	ins    DWORD PTR es:[edi],dx
  40ca1f:	add    BYTE PTR [ebp+0x0],ah
  40ca22:	add    BYTE PTR [eax],al
  40ca24:	add    eax,0x54000901
  40ca29:	add    BYTE PTR [ecx+0x0],ch
  40ca2c:	ins    DWORD PTR es:[edi],dx
  40ca2d:	add    BYTE PTR [ebp+0x0],ah
  40ca30:	and    BYTE PTR [eax],al
  40ca32:	pop    edx
  40ca33:	add    BYTE PTR [edi+0x0],ch
  40ca36:	outs   dx,BYTE PTR ds:[esi]
  40ca37:	add    BYTE PTR [ebp+0x0],ah
  40ca3a:	add    cl,BYTE PTR ds:0x4010000
  40ca40:	inc    ecx
  40ca41:	(bad)  
  40ca42:	(bad)  
  40ca43:	cmp    eax,0x8a000000
  40ca48:	outs   dx,DWORD PTR ds:[esi]
  40ca49:	add    al,0x0
  40ca4b:	inc    esp
  40ca4c:	add    BYTE PTR [ecx+0x0],ah
  40ca4f:	je     0x40ca51
  40ca51:	popa   
  40ca52:	add    BYTE PTR [eax],al
  40ca54:	add    BYTE PTR ds:0x6000000,ah
  40ca5a:	dec    ebx
  40ca5b:	xchg   ebp,eax
  40ca5c:	add    al,0x0
  40ca5e:	dec    esi
  40ca5f:	add    BYTE PTR [ecx+0x0],ah
  40ca62:	ins    DWORD PTR es:[edi],dx
  40ca63:	add    BYTE PTR [ebp+0x0],ah
  40ca66:	add    BYTE PTR [eax],al
  40ca68:	add    eax,0x45000901
  40ca6d:	add    BYTE PTR [edx+0x0],dh
  40ca70:	jb     0x40ca72
  40ca72:	outs   dx,DWORD PTR ds:[esi]
  40ca73:	add    BYTE PTR [edx+0x0],dh
  40ca76:	inc    ebx
  40ca77:	add    BYTE PTR [edi+0x0],ch
  40ca7a:	add    BYTE PTR fs:[ebp+0x0],ah
  40ca7e:	add    cl,BYTE PTR ds:0x4080001
  40ca84:	add    al,0x0
  40ca86:	add    BYTE PTR [eax],al
  40ca88:	add    BYTE PTR [eax],al
  40ca8a:	add    BYTE PTR [eax],al
  40ca8c:	add    DWORD PTR [ecx],eax
	...
  40ca96:	add    BYTE PTR [eax],al
  40ca98:	mov    al,ds:0x5
  40ca9d:	add    BYTE PTR [eax],al
  40ca9f:	add    BYTE PTR [eax],cl
  40caa1:	or     BYTE PTR [eax],al
	...
  40caab:	add    BYTE PTR [eax+0x18000005],bh
  40cab1:	add    BYTE PTR [eax],al
  40cab3:	add    BYTE PTR [eax+eax*1+0x69],dl
  40cab7:	add    BYTE PTR [ebp+0x0],ch
  40caba:	add    BYTE PTR gs:[eax],ah
  40cabd:	add    BYTE PTR [edx+0x0],bl
  40cac0:	outs   dx,DWORD PTR ds:[esi]
  40cac1:	add    BYTE PTR [esi+0x0],ch
  40cac4:	add    BYTE PTR gs:[eax],al
  40cac7:	add    BYTE PTR [eax],bl
  40cac9:	add    BYTE PTR [eax],al
  40cacb:	add    BYTE PTR [ebp+0x0],al
  40cace:	jb     0x40cad0
  40cad0:	jb     0x40cad2
  40cad2:	outs   dx,DWORD PTR ds:[esi]
  40cad3:	add    BYTE PTR [edx+0x0],dh
  40cad6:	inc    ebx
  40cad7:	add    BYTE PTR [edi+0x0],ch
  40cada:	add    BYTE PTR fs:[ebp+0x0],ah
  40cade:	add    BYTE PTR [eax],al
  40cae0:	push   esp
  40cae1:	inc    ebp
  40cae2:	dec    ebp
  40cae3:	push   eax
  40cae4:	xor    BYTE PTR [ecx],al
  40cae6:	add    BYTE PTR [eax],al
  40cae8:	add    al,BYTE PTR [eax]
  40caea:	add    BYTE PTR [eax],al
  40caec:	add    al,BYTE PTR [eax]
  40caee:	add    BYTE PTR [eax],al
  40caf0:	test   al,0x6
  40caf2:	add    BYTE PTR [eax],al
  40caf4:	add    DWORD PTR [eax],eax
  40caf6:	add    BYTE PTR [eax],al
  40caf8:	xor    esp,edx
  40cafa:	in     al,dx
  40cafb:	loopne 0x40cb0f
  40cafd:	stc    
  40cafe:	push   ebx
  40caff:	or     al,0xa5
  40cb01:	jge    0x40cb12
  40cb03:	or     eax,0x35558954
  40cb08:	sgdtd  [ecx]
  40cb0b:	add    BYTE PTR [ecx],al
  40cb0d:	(bad)  
  40cb0e:	jmp    DWORD PTR [edx+0x44000000]
  40cb14:	or     BYTE PTR [ecx],0x0
  40cb17:	inc    ebp
  40cb18:	add    BYTE PTR [esi+0x0],dh
  40cb1b:	add    BYTE PTR gs:[esi+0x0],ch
  40cb1f:	je     0x40cb21
  40cb21:	inc    esp
  40cb22:	add    BYTE PTR [ecx+0x0],ah
  40cb25:	je     0x40cb27
  40cb27:	popa   
  40cb28:	add    BYTE PTR [eax],al
  40cb2a:	add    BYTE PTR [edx],al
  40cb2c:	inc    ecx
  40cb2d:	(bad)  
  40cb2e:	(bad)  
  40cb2f:	cmp    eax,0x8a000000
  40cb34:	outs   dx,DWORD PTR ds:[esi]
  40cb35:	add    al,0x0
  40cb37:	inc    esp
  40cb38:	add    BYTE PTR [ecx+0x0],ah
  40cb3b:	je     0x40cb3d
  40cb3d:	popa   
  40cb3e:	add    BYTE PTR [eax],al
  40cb40:	add    BYTE PTR ds:0x6000000,ah
  40cb46:	dec    ebx
  40cb47:	xchg   ebp,eax
  40cb48:	add    al,0x0
  40cb4a:	dec    esi
  40cb4b:	add    BYTE PTR [ecx+0x0],ah
  40cb4e:	ins    DWORD PTR es:[edi],dx
  40cb4f:	add    BYTE PTR [ebp+0x0],ah
  40cb52:	add    BYTE PTR [eax],al
  40cb54:	add    eax,0x54000901
  40cb59:	add    BYTE PTR [ecx+0x0],ch
  40cb5c:	ins    DWORD PTR es:[edi],dx
  40cb5d:	add    BYTE PTR [ebp+0x0],ah
  40cb60:	and    BYTE PTR [eax],al
  40cb62:	pop    edx
  40cb63:	add    BYTE PTR [edi+0x0],ch
  40cb66:	outs   dx,BYTE PTR ds:[esi]
  40cb67:	add    BYTE PTR [ebp+0x0],ah
  40cb6a:	add    cl,BYTE PTR ds:0x4010000
  40cb70:	inc    ecx
  40cb71:	(bad)  
  40cb72:	(bad)  
  40cb73:	cmp    eax,0x8a000000
  40cb78:	outs   dx,DWORD PTR ds:[esi]
  40cb79:	add    al,0x0
  40cb7b:	inc    esp
  40cb7c:	add    BYTE PTR [ecx+0x0],ah
  40cb7f:	je     0x40cb81
  40cb81:	popa   
  40cb82:	add    BYTE PTR [eax],al
  40cb84:	add    BYTE PTR ds:0x6000000,ah
  40cb8a:	dec    ebx
  40cb8b:	xchg   ebp,eax
  40cb8c:	add    al,0x0
  40cb8e:	dec    esi
  40cb8f:	add    BYTE PTR [ecx+0x0],ah
  40cb92:	ins    DWORD PTR es:[edi],dx
  40cb93:	add    BYTE PTR [ebp+0x0],ah
  40cb96:	add    BYTE PTR [eax],al
  40cb98:	add    eax,0x45000901
  40cb9d:	add    BYTE PTR [edx+0x0],dh
  40cba0:	jb     0x40cba2
  40cba2:	outs   dx,DWORD PTR ds:[esi]
  40cba3:	add    BYTE PTR [edx+0x0],dh
  40cba6:	inc    ebx
  40cba7:	add    BYTE PTR [edi+0x0],ch
  40cbaa:	add    BYTE PTR fs:[ebp+0x0],ah
  40cbae:	add    cl,BYTE PTR ds:0x4080001
  40cbb4:	add    al,0x0
  40cbb6:	add    BYTE PTR [eax],al
  40cbb8:	add    BYTE PTR [eax],al
  40cbba:	add    BYTE PTR [eax],al
  40cbbc:	add    DWORD PTR [ecx],eax
	...
  40cbc6:	add    BYTE PTR [eax],al
  40cbc8:	rol    BYTE PTR [esi],1
  40cbca:	add    BYTE PTR [eax],al
  40cbcc:	add    BYTE PTR [eax],al
  40cbce:	add    BYTE PTR [eax],al
  40cbd0:	or     BYTE PTR [eax],cl
	...
  40cbda:	add    BYTE PTR [eax],al
  40cbdc:	call   0x1840cbe7
  40cbe1:	add    BYTE PTR [eax],al
  40cbe3:	add    BYTE PTR [eax+eax*1+0x69],dl
  40cbe7:	add    BYTE PTR [ebp+0x0],ch
  40cbea:	add    BYTE PTR gs:[eax],ah
  40cbed:	add    BYTE PTR [edx+0x0],bl
  40cbf0:	outs   dx,DWORD PTR ds:[esi]
  40cbf1:	add    BYTE PTR [esi+0x0],ch
  40cbf4:	add    BYTE PTR gs:[eax],al
  40cbf7:	add    BYTE PTR [eax],bl
  40cbf9:	add    BYTE PTR [eax],al
  40cbfb:	add    BYTE PTR [ebp+0x0],al
  40cbfe:	jb     0x40cc00
  40cc00:	jb     0x40cc02
  40cc02:	outs   dx,DWORD PTR ds:[esi]
  40cc03:	add    BYTE PTR [edx+0x0],dh
  40cc06:	inc    ebx
  40cc07:	add    BYTE PTR [edi+0x0],ch
  40cc0a:	add    BYTE PTR fs:[ebp+0x0],ah
  40cc0e:	add    BYTE PTR [eax],al
  40cc10:	dec    edi
  40cc11:	push   eax
  40cc12:	inc    ebx
  40cc13:	dec    edi
  40cc14:	xor    BYTE PTR [eax],al
  40cc16:	add    BYTE PTR [eax],al
  40cc18:	add    DWORD PTR [eax],eax
  40cc1a:	add    BYTE PTR [eax],al
  40cc1c:	add    BYTE PTR [eax],al
  40cc1e:	and    DWORD PTR [eax],eax
  40cc20:	and    DWORD PTR [eax],eax
  40cc22:	add    BYTE PTR [eax],dh
  40cc24:	sbb    BYTE PTR [edi],al
  40cc26:	add    BYTE PTR [eax],al
  40cc28:	sbb    BYTE PTR [eax],al
  40cc2a:	add    BYTE PTR [eax],al
  40cc2c:	dec    edi
  40cc2d:	add    BYTE PTR [eax+0x0],dh
  40cc30:	add    BYTE PTR gs:[edx+0x0],dh
  40cc34:	popa   
  40cc35:	add    BYTE PTR [eax+eax*1+0x69],dh
  40cc39:	add    BYTE PTR [edi+0x0],ch
  40cc3c:	outs   dx,BYTE PTR ds:[esi]
  40cc3d:	add    BYTE PTR [eax],al
  40cc3f:	add    BYTE PTR [ebp+eax*2+0x56],cl
  40cc43:	dec    esp
  40cc44:	add    BYTE PTR fs:[eax],al
  40cc47:	add    BYTE PTR [edx],al
  40cc49:	add    BYTE PTR [eax],al
  40cc4b:	add    BYTE PTR [edx],al
  40cc4d:	add    BYTE PTR [eax],al
  40cc4f:	add    BYTE PTR [edx],al
  40cc51:	add    BYTE PTR [eax],al
  40cc53:	push   eax
  40cc54:	push   esp
  40cc55:	pop    es
  40cc56:	add    BYTE PTR [eax],al
  40cc58:	add    al,0x0
  40cc5a:	add    BYTE PTR [eax],al
  40cc5c:	add    al,0x0
  40cc5e:	add    BYTE PTR [eax+0x6c],dl
  40cc61:	pop    es
  40cc62:	add    BYTE PTR [eax],al
  40cc64:	sbb    BYTE PTR [eax],al
  40cc66:	add    BYTE PTR [eax],al
  40cc68:	ja     0x40cc6a
  40cc6a:	imul   eax,DWORD PTR [eax],0x3a006e
  40cc70:	inc    ebp
  40cc71:	add    BYTE PTR [edx+0x0],dh
  40cc74:	jb     0x40cc76
  40cc76:	outs   dx,DWORD PTR ds:[esi]
  40cc77:	add    BYTE PTR [edx+0x0],dh
  40cc7a:	add    BYTE PTR [eax],al
  40cc7c:	sub    BYTE PTR [eax],al
  40cc7e:	add    BYTE PTR [eax],al
  40cc80:	ja     0x40cc82
  40cc82:	imul   eax,DWORD PTR [eax],0x3a006e
  40cc88:	dec    ecx
  40cc89:	add    BYTE PTR [esi+0x0],ch
  40cc8c:	data16 add BYTE PTR [edi+0x0],ch
  40cc90:	jb     0x40cc92
  40cc92:	ins    DWORD PTR es:[edi],dx
  40cc93:	add    BYTE PTR [ecx+0x0],ah
  40cc96:	je     0x40cc98
  40cc98:	imul   eax,DWORD PTR [eax],0x6e006f
  40cc9e:	popa   
  40cc9f:	add    BYTE PTR [eax+eax*1+0x0],ch
  40cca3:	add    BYTE PTR [ecx+eax*2+0x53],dl
  40cca7:	dec    ebx
  40cca8:	inc    eax
  40cca9:	add    BYTE PTR [eax],al
  40ccab:	add    BYTE PTR [ecx],al
  40ccad:	add    BYTE PTR [eax],al
  40ccaf:	add    BYTE PTR [edi],bl
  40ccb1:	add    BYTE PTR [eax],al
  40ccb3:	add    BYTE PTR [edi],bl
  40ccb5:	add    BYTE PTR [eax],al
  40ccb7:	jo     0x40ccb9
	...
  40ccc5:	add    BYTE PTR [eax],al
  40ccc7:	add    BYTE PTR [edi+eax*1+0x180000],bh
  40ccce:	add    BYTE PTR [eax],al
  40ccd0:	push   esp
  40ccd1:	add    BYTE PTR [ecx+0x0],ch
  40ccd4:	ins    DWORD PTR es:[edi],dx
  40ccd5:	add    BYTE PTR [ebp+0x0],ah
  40ccd8:	pop    edx
  40ccd9:	add    BYTE PTR [edi+0x0],ch
  40ccdc:	outs   dx,BYTE PTR ds:[esi]
  40ccdd:	add    BYTE PTR [ebp+0x0],ah
  40cce0:	add    BYTE PTR [eax],al
  40cce2:	add    BYTE PTR [eax],al
  40cce4:	dec    ebx
  40cce5:	inc    ebp
  40cce6:	pop    ecx
  40cce7:	push   edi
	...
  40ccf0:	inc    ebp
  40ccf1:	push   esi
  40ccf2:	dec    esi
  40ccf3:	push   esp
  40ccf4:	add    BYTE PTR [ecx],al
  40ccf6:	add    BYTE PTR [eax],al
  40ccf8:	add    eax,0x0
  40ccfd:	add    BYTE PTR [eax],al
  40ccff:	add    ah,ch
  40cd01:	add    eax,DWORD PTR [eax]
  40cd03:	adc    BYTE PTR [edx],al
  40cd05:	and    DWORD PTR [edi],ebx
	...
  40cd0f:	sub    ah,0x3
  40cd12:	add    BYTE PTR [eax+0x1c4],dh
  40cd18:	or     al,0x7
  40cd1a:	add    BYTE PTR [eax],al
  40cd1c:	cmp    al,0x7
  40cd1e:	add    BYTE PTR [eax],al
  40cd20:	mov    al,ds:0x7
  40cd25:	add    BYTE PTR [eax],al
  40cd27:	add    BYTE PTR [eax],al
  40cd29:	add    BYTE PTR [eax],al
  40cd2b:	add    BYTE PTR [eax-0x13000000],bl
  40cd31:	add    eax,DWORD PTR [eax]
  40cd33:	adc    BYTE PTR [edx],al
  40cd35:	and    DWORD PTR [edi],ebx
	...
  40cd3f:	sub    ch,0x3
  40cd42:	add    BYTE PTR [eax+0x370],dh
  40cd48:	or     al,0x7
  40cd4a:	add    BYTE PTR [eax],al
  40cd4c:	cmp    al,0x7
  40cd4e:	add    BYTE PTR [eax],al
  40cd50:	mov    al,ds:0x7
  40cd55:	add    BYTE PTR [eax],al
  40cd57:	add    BYTE PTR [eax],al
  40cd59:	add    BYTE PTR [eax],al
  40cd5b:	add    BYTE PTR [eax-0x12000000],bl
  40cd61:	add    eax,DWORD PTR [eax]
  40cd63:	adc    BYTE PTR [edx],al
  40cd65:	and    DWORD PTR [edi],ebx
	...
  40cd6f:	sub    dh,0x3
  40cd72:	add    BYTE PTR [eax+0x4a0],dh
  40cd78:	or     al,0x7
  40cd7a:	add    BYTE PTR [eax],al
  40cd7c:	cmp    al,0x7
  40cd7e:	add    BYTE PTR [eax],al
  40cd80:	mov    al,ds:0x7
  40cd85:	add    BYTE PTR [eax],al
  40cd87:	add    BYTE PTR [eax],al
  40cd89:	add    BYTE PTR [eax],al
  40cd8b:	add    BYTE PTR [eax-0x11000000],bl
  40cd91:	add    eax,DWORD PTR [eax]
  40cd93:	adc    BYTE PTR [edx],al
  40cd95:	and    DWORD PTR [edi],ebx
	...
  40cd9f:	sub    bh,0x3
  40cda2:	add    BYTE PTR [eax+0x5d0],dh
  40cda8:	or     al,0x7
  40cdaa:	add    BYTE PTR [eax],al
  40cdac:	cmp    al,0x7
  40cdae:	add    BYTE PTR [eax],al
  40cdb0:	mov    al,ds:0x7
  40cdb5:	add    BYTE PTR [eax],al
  40cdb7:	add    BYTE PTR [eax],al
  40cdb9:	add    BYTE PTR [eax],al
  40cdbb:	add    BYTE PTR [eax+0x21000000],bl
  40cdc1:	dec    esi
  40cdc2:	add    BYTE PTR [eax],dl
  40cdc4:	add    al,0x21
  40cdc6:	pop    ds
	...
  40cdcf:	and    BYTE PTR [ecx],0x4e
  40cdd2:	add    BYTE PTR [eax+0x104],dh
  40cdd8:	or     al,0x7
  40cdda:	add    BYTE PTR [eax],al
  40cddc:	dec    eax
  40cddd:	pop    es
  40cdde:	add    BYTE PTR [eax],al
  40cde0:	mov    al,ds:0x7
  40cde5:	add    BYTE PTR [eax],al
  40cde7:	add    BYTE PTR [eax],al
  40cde9:	add    BYTE PTR [eax],al
  40cdeb:	add    BYTE PTR [eax+0x0],bl
  40cdf1:	add    BYTE PTR [eax],al
  40cdf3:	add    BYTE PTR [eax],al
  40cdf5:	add    BYTE PTR [eax],al
  40cdf7:	add    BYTE PTR [eax+0x3403],bl
  40cdfd:	add    BYTE PTR [esi+0x0],dl
  40ce00:	push   ebx
  40ce01:	add    BYTE PTR [edi+0x0],bl
  40ce04:	push   esi
  40ce05:	add    BYTE PTR [ebp+0x0],al
  40ce08:	push   edx
  40ce09:	add    BYTE PTR [ebx+0x0],dl
  40ce0c:	dec    ecx
  40ce0d:	add    BYTE PTR [edi+0x0],cl
  40ce10:	dec    esi
  40ce11:	add    BYTE PTR [edi+0x0],bl
  40ce14:	dec    ecx
  40ce15:	add    BYTE PTR [esi+0x0],cl
  40ce18:	inc    esi
  40ce19:	add    BYTE PTR [edi+0x0],cl
  40ce1c:	add    BYTE PTR [eax],al
  40ce1e:	add    BYTE PTR [eax],al
  40ce20:	mov    ebp,0xfeef04
  40ce25:	add    BYTE PTR [ecx],al
  40ce27:	add    BYTE PTR [eax],al
  40ce29:	add    BYTE PTR [edx],cl
  40ce2b:	add    BYTE PTR [eax],al
  40ce2d:	inc    eax
  40ce2e:	add    BYTE PTR [eax],ch
  40ce30:	add    BYTE PTR [eax],al
  40ce32:	or     al,BYTE PTR [eax]
  40ce34:	add    BYTE PTR [eax+0x0],al
  40ce37:	sub    BYTE PTR [edi],bh
  40ce39:	add    BYTE PTR [eax],al
  40ce3b:	add    BYTE PTR [eax],al
  40ce3d:	add    BYTE PTR [eax],al
  40ce3f:	add    BYTE PTR [eax+eax*1],al
  40ce42:	add    al,0x0
  40ce44:	add    DWORD PTR [eax],eax
	...
  40ce52:	add    BYTE PTR [eax],al
  40ce54:	test   BYTE PTR [edx],0x0
  40ce57:	add    BYTE PTR [ecx],al
  40ce59:	add    BYTE PTR [ebx+0x0],dl
  40ce5c:	je     0x40ce5e
  40ce5e:	jb     0x40ce60
  40ce60:	imul   eax,DWORD PTR [eax],0x67006e
  40ce66:	inc    esi
  40ce67:	add    BYTE PTR [ecx+0x0],ch
  40ce6a:	ins    BYTE PTR es:[edi],dx
  40ce6b:	add    BYTE PTR [ebp+0x0],ah
  40ce6e:	dec    ecx
  40ce6f:	add    BYTE PTR [esi+0x0],ch
  40ce72:	data16 add BYTE PTR [edi+0x0],ch
  40ce76:	add    BYTE PTR [eax],al
  40ce78:	rol    BYTE PTR [edx],cl
  40ce7a:	add    BYTE PTR [eax],al
  40ce7c:	add    DWORD PTR [eax],eax
  40ce7e:	xor    BYTE PTR [eax],al
  40ce80:	xor    al,0x0
  40ce82:	xor    BYTE PTR [eax],al
  40ce84:	cmp    DWORD PTR [eax],eax
  40ce86:	xor    BYTE PTR [eax],al
  40ce88:	xor    al,0x0
  40ce8a:	inc    edx
  40ce8b:	add    BYTE PTR [eax],dh
  40ce8d:	add    BYTE PTR [eax],al
  40ce8f:	add    BYTE PTR [eax+eax*1+0x16],cl
  40ce93:	add    BYTE PTR [ecx],al
  40ce95:	add    BYTE PTR [ebx+0x0],al
  40ce98:	outs   dx,DWORD PTR ds:[esi]
  40ce99:	add    BYTE PTR [ebp+0x0],ch
  40ce9c:	jo     0x40ce9e
  40ce9e:	popa   
  40ce9f:	add    BYTE PTR [esi+0x0],ch
  40cea2:	jns    0x40cea4
  40cea4:	dec    esi
  40cea5:	add    BYTE PTR [ecx+0x0],ah
  40cea8:	ins    DWORD PTR es:[edi],dx
  40cea9:	add    BYTE PTR [ebp+0x0],ah
  40ceac:	add    BYTE PTR [eax],al
  40ceae:	add    BYTE PTR [eax],al
  40ceb0:	dec    ebp
  40ceb1:	add    BYTE PTR [ecx+0x0],ch
  40ceb4:	arpl   WORD PTR [eax],ax
  40ceb6:	jb     0x40ceb8
  40ceb8:	outs   dx,DWORD PTR ds:[esi]
  40ceb9:	add    BYTE PTR [ebx+0x0],dh
  40cebc:	outs   dx,DWORD PTR ds:[esi]
  40cebd:	add    BYTE PTR [esi+0x0],ah
  40cec0:	je     0x40cec2
  40cec2:	and    BYTE PTR [eax],al
  40cec4:	inc    ebx
  40cec5:	add    BYTE PTR [edi+0x0],ch
  40cec8:	jb     0x40ceca
  40ceca:	jo     0x40cecc
  40cecc:	outs   dx,DWORD PTR ds:[esi]
  40cecd:	add    BYTE PTR [edx+0x0],dh
  40ced0:	popa   
  40ced1:	add    BYTE PTR [eax+eax*1+0x69],dh
  40ced5:	add    BYTE PTR [edi+0x0],ch
  40ced8:	outs   dx,BYTE PTR ds:[esi]
  40ced9:	add    BYTE PTR [eax],al
  40cedb:	add    BYTE PTR [eax+eax*1+0x1a],bl
  40cedf:	add    BYTE PTR [ecx],al
  40cee1:	add    BYTE PTR [esi+0x0],al
  40cee4:	imul   eax,DWORD PTR [eax],0x65006c
  40ceea:	inc    esp
  40ceeb:	add    BYTE PTR [ebp+0x0],ah
  40ceee:	jae    0x40cef0
  40cef0:	arpl   WORD PTR [eax],ax
  40cef2:	jb     0x40cef4
  40cef4:	imul   eax,DWORD PTR [eax],0x740070
  40cefa:	imul   eax,DWORD PTR [eax],0x6e006f
  40cf00:	add    BYTE PTR [eax],al
  40cf02:	add    BYTE PTR [eax],al
  40cf04:	push   edi
  40cf05:	add    BYTE PTR [ecx+0x0],ch
  40cf08:	outs   dx,BYTE PTR ds:[esi]
  40cf09:	add    BYTE PTR [eax+eax*1+0x6f],ah
  40cf0d:	add    BYTE PTR [edi+0x0],dh
  40cf10:	jae    0x40cf12
  40cf12:	and    BYTE PTR [eax],al
  40cf14:	push   esp
  40cf15:	add    BYTE PTR [ecx+0x0],ch
  40cf18:	ins    DWORD PTR es:[edi],dx
  40cf19:	add    BYTE PTR [ebp+0x0],ah
  40cf1c:	and    BYTE PTR [eax],al
  40cf1e:	pop    edx
  40cf1f:	add    BYTE PTR [edi+0x0],ch
  40cf22:	outs   dx,BYTE PTR ds:[esi]
  40cf23:	add    BYTE PTR [ebp+0x0],ah
  40cf26:	and    BYTE PTR [eax],al
  40cf28:	push   ebp
  40cf29:	add    BYTE PTR [eax+eax*1+0x69],dh
  40cf2d:	add    BYTE PTR [eax+eax*1+0x69],ch
  40cf31:	add    BYTE PTR [eax+eax*1+0x79],dh
  40cf35:	add    BYTE PTR [eax],al
  40cf37:	add    BYTE PTR [esi+0x0],ah
  40cf3a:	and    eax,DWORD PTR [eax]
  40cf3c:	add    DWORD PTR [eax],eax
  40cf3e:	inc    esi
  40cf3f:	add    BYTE PTR [ecx+0x0],ch
  40cf42:	ins    BYTE PTR es:[edi],dx
  40cf43:	add    BYTE PTR [ebp+0x0],ah
  40cf46:	push   esi
  40cf47:	add    BYTE PTR [ebp+0x0],ah
  40cf4a:	jb     0x40cf4c
  40cf4c:	jae    0x40cf4e
  40cf4e:	imul   eax,DWORD PTR [eax],0x6e006f
  40cf54:	add    BYTE PTR [eax],al
  40cf56:	add    BYTE PTR [eax],al
  40cf58:	xor    DWORD PTR [eax],eax
  40cf5a:	xor    BYTE PTR [eax],al
  40cf5c:	add    BYTE PTR cs:[eax],dh
  40cf5f:	add    BYTE PTR [esi],ch
  40cf61:	add    BYTE PTR [ecx],dh
  40cf63:	add    BYTE PTR [eax],dh
  40cf65:	add    BYTE PTR [edx],dh
  40cf67:	add    BYTE PTR [eax+eax*1],dh
  40cf6a:	xor    BYTE PTR [eax],al
  40cf6c:	add    BYTE PTR cs:[ecx],dh
  40cf6f:	add    BYTE PTR [esi],dh
  40cf71:	add    BYTE PTR [ebx],dh
  40cf73:	add    BYTE PTR [eax],bh
  40cf75:	add    BYTE PTR [eax+eax*1],dh
  40cf78:	and    BYTE PTR [eax],al
  40cf7a:	sub    BYTE PTR [eax],al
  40cf7c:	je     0x40cf7e
  40cf7e:	push   0x2e003100
  40cf83:	add    BYTE PTR [ecx],dh
  40cf85:	add    BYTE PTR ds:0x37003000,dh
  40cf8b:	add    BYTE PTR [eax],dh
  40cf8d:	add    BYTE PTR [ecx],bh
  40cf8f:	add    BYTE PTR ds:0x37003100,ch
  40cf95:	add    BYTE PTR [eax],dh
  40cf97:	add    BYTE PTR [eax],dh
  40cf99:	add    BYTE PTR [ecx],ch
  40cf9b:	add    BYTE PTR [eax],al
  40cf9d:	add    BYTE PTR [eax],al
  40cf9f:	add    BYTE PTR [esi],dh
  40cfa1:	add    BYTE PTR [ebx],cl
  40cfa3:	add    BYTE PTR [ecx],al
  40cfa5:	add    BYTE PTR [ecx+0x0],cl
  40cfa8:	outs   dx,BYTE PTR ds:[esi]
  40cfa9:	add    BYTE PTR [eax+eax*1+0x65],dh
  40cfad:	add    BYTE PTR [edx+0x0],dh
  40cfb0:	outs   dx,BYTE PTR ds:[esi]
  40cfb1:	add    BYTE PTR [ecx+0x0],ah
  40cfb4:	ins    BYTE PTR es:[edi],dx
  40cfb5:	add    BYTE PTR [esi+0x0],cl
  40cfb8:	popa   
  40cfb9:	add    BYTE PTR [ebp+0x0],ch
  40cfbc:	add    BYTE PTR gs:[eax],al
  40cfbf:	add    BYTE PTR [eax+eax*1+0x7a],dh
  40cfc3:	add    BYTE PTR [ebp+0x0],dh
  40cfc6:	je     0x40cfc8
  40cfc8:	imul   eax,DWORD PTR [eax],0x2e006c
  40cfce:	add    BYTE PTR gs:[eax+0x0],bh
  40cfd2:	add    BYTE PTR gs:[eax],al
  40cfd5:	add    BYTE PTR [eax],al
  40cfd7:	add    BYTE PTR [eax+0x1002e00],al
  40cfdd:	add    BYTE PTR [eax+eax*1+0x65],cl
  40cfe1:	add    BYTE PTR [edi+0x0],ah
  40cfe4:	popa   
  40cfe5:	add    BYTE PTR [eax+eax*1+0x43],ch
  40cfe9:	add    BYTE PTR [edi+0x0],ch
  40cfec:	jo     0x40cfee
  40cfee:	jns    0x40cff0
  40cff0:	jb     0x40cff2
  40cff2:	imul   eax,DWORD PTR [eax],0x680067
  40cff8:	je     0x40cffa
  40cffa:	add    BYTE PTR [eax],al
  40cffc:	test   eax,0x4d002000
  40d001:	add    BYTE PTR [ecx+0x0],ch
  40d004:	arpl   WORD PTR [eax],ax
  40d006:	jb     0x40d008
  40d008:	outs   dx,DWORD PTR ds:[esi]
  40d009:	add    BYTE PTR [ebx+0x0],dh
  40d00c:	outs   dx,DWORD PTR ds:[esi]
  40d00d:	add    BYTE PTR [esi+0x0],ah
  40d010:	je     0x40d012
  40d012:	and    BYTE PTR [eax],al
  40d014:	inc    ebx
  40d015:	add    BYTE PTR [edi+0x0],ch
  40d018:	jb     0x40d01a
  40d01a:	jo     0x40d01c
  40d01c:	outs   dx,DWORD PTR ds:[esi]
  40d01d:	add    BYTE PTR [edx+0x0],dh
  40d020:	popa   
  40d021:	add    BYTE PTR [eax+eax*1+0x69],dh
  40d025:	add    BYTE PTR [edi+0x0],ch
  40d028:	outs   dx,BYTE PTR ds:[esi]
  40d029:	add    BYTE PTR [esi],ch
  40d02b:	add    BYTE PTR [eax],ah
  40d02d:	add    BYTE PTR [ecx+0x0],al
  40d030:	ins    BYTE PTR es:[edi],dx
  40d031:	add    BYTE PTR [eax+eax*1+0x20],ch
  40d035:	add    BYTE PTR [edx+0x0],dh
  40d038:	imul   eax,DWORD PTR [eax],0x680067
  40d03e:	je     0x40d040
  40d040:	jae    0x40d042
  40d042:	and    BYTE PTR [eax],al
  40d044:	jb     0x40d046
  40d046:	add    BYTE PTR gs:[ebx+0x0],dh
  40d04a:	add    BYTE PTR gs:[edx+0x0],dh
  40d04e:	jbe    0x40d050
  40d050:	add    BYTE PTR gs:[eax+eax*1+0x2e],ah
  40d055:	add    BYTE PTR [eax],al
  40d057:	add    BYTE PTR [esi],bh
  40d059:	add    BYTE PTR [ebx],cl
  40d05b:	add    BYTE PTR [ecx],al
  40d05d:	add    BYTE PTR [edi+0x0],cl
  40d060:	jb     0x40d062
  40d062:	imul   eax,DWORD PTR [eax],0x690067
  40d068:	outs   dx,BYTE PTR ds:[esi]
  40d069:	add    BYTE PTR [ecx+0x0],ah
  40d06c:	ins    BYTE PTR es:[edi],dx
  40d06d:	add    BYTE PTR [esi+0x0],al
  40d070:	imul   eax,DWORD PTR [eax],0x65006c
  40d076:	outs   dx,BYTE PTR ds:[esi]
  40d077:	add    BYTE PTR [ecx+0x0],ah
  40d07a:	ins    DWORD PTR es:[edi],dx
  40d07b:	add    BYTE PTR [ebp+0x0],ah
  40d07e:	add    BYTE PTR [eax],al
  40d080:	je     0x40d082
  40d082:	jp     0x40d084
  40d084:	jne    0x40d086
  40d086:	je     0x40d088
  40d088:	imul   eax,DWORD PTR [eax],0x2e006c
  40d08e:	add    BYTE PTR gs:[eax+0x0],bh
  40d092:	add    BYTE PTR gs:[eax],al
  40d095:	add    BYTE PTR [eax],al
  40d097:	add    BYTE PTR [edx+0x0],ch
  40d09a:	and    eax,0x50000100
  40d09f:	add    BYTE PTR [edx+0x0],dh
  40d0a2:	outs   dx,DWORD PTR ds:[esi]
  40d0a3:	add    BYTE PTR [eax+eax*1+0x75],ah
  40d0a7:	add    BYTE PTR [ebx+0x0],ah
  40d0aa:	je     0x40d0ac
  40d0ac:	dec    esi
  40d0ad:	add    BYTE PTR [ecx+0x0],ah
  40d0b0:	ins    DWORD PTR es:[edi],dx
  40d0b1:	add    BYTE PTR [ebp+0x0],ah
  40d0b4:	add    BYTE PTR [eax],al
  40d0b6:	add    BYTE PTR [eax],al
  40d0b8:	dec    ebp
  40d0b9:	add    BYTE PTR [ecx+0x0],ch
  40d0bc:	arpl   WORD PTR [eax],ax
  40d0be:	jb     0x40d0c0
  40d0c0:	outs   dx,DWORD PTR ds:[esi]
  40d0c1:	add    BYTE PTR [ebx+0x0],dh
  40d0c4:	outs   dx,DWORD PTR ds:[esi]
  40d0c5:	add    BYTE PTR [esi+0x0],ah
  40d0c8:	je     0x40d0ca
  40d0ca:	scas   al,BYTE PTR es:[edi]
  40d0cb:	add    BYTE PTR [eax],ah
  40d0cd:	add    BYTE PTR [edi+0x0],dl
  40d0d0:	imul   eax,DWORD PTR [eax],0x64006e
  40d0d6:	outs   dx,DWORD PTR ds:[esi]
  40d0d7:	add    BYTE PTR [edi+0x0],dh
  40d0da:	jae    0x40d0dc
  40d0dc:	scas   al,BYTE PTR es:[edi]
  40d0dd:	add    BYTE PTR [eax],ah
  40d0df:	add    BYTE PTR [edi+0x0],cl
  40d0e2:	jo     0x40d0e4
  40d0e4:	add    BYTE PTR gs:[edx+0x0],dh
  40d0e8:	popa   
  40d0e9:	add    BYTE PTR [eax+eax*1+0x69],dh
  40d0ed:	add    BYTE PTR [esi+0x0],ch
  40d0f0:	add    BYTE PTR [bx+si],ah
  40d0f3:	add    BYTE PTR [ebx+0x0],dl
  40d0f6:	jns    0x40d0f8
  40d0f8:	jae    0x40d0fa
  40d0fa:	je     0x40d0fc
  40d0fc:	add    BYTE PTR gs:[ebp+0x0],ch
  40d100:	add    BYTE PTR [eax],al
  40d102:	add    BYTE PTR [eax],al
  40d104:	inc    esi
  40d105:	add    BYTE PTR [ecx],dl
  40d107:	add    BYTE PTR [ecx],al
  40d109:	add    BYTE PTR [eax+0x0],dl
  40d10c:	jb     0x40d10e
  40d10e:	outs   dx,DWORD PTR ds:[esi]
  40d10f:	add    BYTE PTR [eax+eax*1+0x75],ah
  40d113:	add    BYTE PTR [ebx+0x0],ah
  40d116:	je     0x40d118
  40d118:	push   esi
  40d119:	add    BYTE PTR [ebp+0x0],ah
  40d11c:	jb     0x40d11e
  40d11e:	jae    0x40d120
  40d120:	imul   eax,DWORD PTR [eax],0x6e006f
  40d126:	add    BYTE PTR [eax],al
  40d128:	xor    DWORD PTR [eax],eax
  40d12a:	xor    BYTE PTR [eax],al
  40d12c:	add    BYTE PTR cs:[eax],dh
  40d12f:	add    BYTE PTR [esi],ch
  40d131:	add    BYTE PTR [ecx],dh
  40d133:	add    BYTE PTR [eax],dh
  40d135:	add    BYTE PTR [edx],dh
  40d137:	add    BYTE PTR [eax+eax*1],dh
  40d13a:	xor    BYTE PTR [eax],al
  40d13c:	add    BYTE PTR cs:[ecx],dh
  40d13f:	add    BYTE PTR [esi],dh
  40d141:	add    BYTE PTR [ebx],dh
  40d143:	add    BYTE PTR [eax],bh
  40d145:	add    BYTE PTR [eax+eax*1],dh
  40d148:	add    BYTE PTR [eax],al
  40d14a:	add    BYTE PTR [eax],al
  40d14c:	inc    esp
  40d14d:	add    BYTE PTR [eax],al
  40d14f:	add    BYTE PTR [ecx],al
  40d151:	add    BYTE PTR [esi+0x0],dl
  40d154:	popa   
  40d155:	add    BYTE PTR [edx+0x0],dh
  40d158:	inc    esi
  40d159:	add    BYTE PTR [ecx+0x0],ch
  40d15c:	ins    BYTE PTR es:[edi],dx
  40d15d:	add    BYTE PTR [ebp+0x0],ah
  40d160:	dec    ecx
  40d161:	add    BYTE PTR [esi+0x0],ch
  40d164:	data16 add BYTE PTR [edi+0x0],ch
  40d168:	add    BYTE PTR [eax],al
  40d16a:	add    BYTE PTR [eax],al
  40d16c:	and    al,0x0
  40d16e:	add    al,0x0
  40d170:	add    BYTE PTR [eax],al
  40d172:	push   esp
  40d173:	add    BYTE PTR [edx+0x0],dh
  40d176:	popa   
  40d177:	add    BYTE PTR [esi+0x0],ch
  40d17a:	jae    0x40d17c
  40d17c:	ins    BYTE PTR es:[edi],dx
  40d17d:	add    BYTE PTR [ecx+0x0],ah
  40d180:	je     0x40d182
  40d182:	imul   eax,DWORD PTR [eax],0x6e006f
  40d188:	add    BYTE PTR [eax],al
  40d18a:	add    BYTE PTR [eax],al
  40d18c:	or     DWORD PTR [eax+esi*4],eax
  40d18f:	add    al,0xcd
  40d191:	dec    ch
  40d193:	(bad)  
  40d194:	lock add BYTE PTR [eax],al
  40d197:	add    BYTE PTR [eax],al
  40d199:	add    BYTE PTR [ecx],al
  40d19b:	add    BYTE PTR [eax],al
  40d19d:	add    BYTE PTR [eax],al
  40d19f:	add    BYTE PTR [ecx],dl
  40d1a1:	add    BYTE PTR [eax],al
  40d1a3:	add    BYTE PTR [eax],al
  40d1a5:	add    BYTE PTR [eax],al
  40d1a7:	add    BYTE PTR [edx],al
  40d1a9:	add    BYTE PTR [eax],al
  40d1ab:	add    BYTE PTR [edx+0x45f76a9f],dl
  40d1b1:	retf   
  40d1b2:	cmp    al,0xf8
  40d1b4:	retf   
  40d1b5:	pushf  
  40d1b6:	les    esi,FWORD PTR [edi]
  40d1b8:	inc    ebp
  40d1b9:	mov    ah,0xee
  40d1bb:	xor    eax,0x220d22a6
  40d1c0:	sub    BYTE PTR [esi+0x68],cl
  40d1c3:	inc    esi
  40d1c4:	int3   
  40d1c5:	rcl    DWORD PTR [eax],cl
  40d1c7:	push   0x64
  40d1c9:	cmp    dl,BYTE PTR [ebx]
  40d1cb:	add    DWORD PTR [eax],0x0
	...
  40d1e2:	add    BYTE PTR [eax],al
  40d1e4:	mov    BYTE PTR [eax],al
  40d1e6:	add    BYTE PTR [eax],al
  40d1e8:	sub    al,BYTE PTR [eax]
  40d1ea:	add    BYTE PTR [eax],al
  40d1ec:	mov    eax,0x8000000
  40d1f1:	add    BYTE PTR [eax],al
  40d1f3:	add    al,al
  40d1f5:	add    BYTE PTR [eax],al
  40d1f7:	add    BYTE PTR [esi],cl
  40d1f9:	add    BYTE PTR [eax],al
  40d1fb:	add    al,dl
  40d1fd:	add    BYTE PTR [eax],al
  40d1ff:	add    BYTE PTR [eax+eax*1],cl
	...
  40d20a:	add    BYTE PTR [eax],al
  40d20c:	loopne 0x40d20e
  40d20e:	add    BYTE PTR [eax],al
  40d210:	or     al,0x0
  40d212:	add    BYTE PTR [eax],al
  40d214:	add    BYTE PTR [eax],al
  40d216:	add    BYTE PTR [eax],al
  40d218:	push   edi
  40d219:	add    BYTE PTR [ebp+0x0],al
  40d21c:	push   esi
  40d21d:	add    BYTE PTR [eax+eax*1+0x5f],dl
  40d221:	add    BYTE PTR [eax+eax*1+0x45],dl
  40d225:	add    BYTE PTR [ebp+0x0],cl
  40d228:	push   eax
  40d229:	add    BYTE PTR [eax+eax*1+0x41],cl
  40d22d:	add    BYTE PTR [eax+eax*1+0x45],dl
  40d231:	add    BYTE PTR [eax],al
  40d233:	add    BYTE PTR [ebp+0x0],cl
  40d236:	push   ebp
  40d237:	add    BYTE PTR [ecx+0x0],cl
	...
  40d246:	add    BYTE PTR [eax],al
  40d248:	adc    BYTE PTR [eax],al
  40d24a:	add    BYTE PTR [eax],al
  40d24c:	sbb    BYTE PTR [eax],al
  40d24e:	add    BYTE PTR [eax],al
  40d250:	dec    ebp
  40d251:	add    BYTE PTR [ebp+0x0],dl
  40d254:	dec    ecx
	...
  40d25d:	add    BYTE PTR [eax],al
  40d25f:	add    BYTE PTR [esi],al
  40d261:	add    BYTE PTR [eax],al
  40d263:	add    BYTE PTR [ebx],cl
  40d265:	add    BYTE PTR [eax],al
  40d267:	add    BYTE PTR [eax],dl
  40d269:	add    BYTE PTR [eax],al
  40d26b:	add    BYTE PTR [eax],al
  40d26d:	add    BYTE PTR [eax],al
  40d26f:	add    BYTE PTR [ebp+0x0],ah
  40d272:	outs   dx,BYTE PTR ds:[esi]
  40d273:	add    BYTE PTR ds:0x53005500,ch
  40d279:	add    BYTE PTR [eax],al
  40d27b:	add    BYTE PTR [eax],al
  40d27d:	add    BYTE PTR [eax],al
	...

Disassembly of section .reloc:

0040e000 <.reloc>:
  40e000:	add    BYTE PTR [eax],dl
  40e002:	add    BYTE PTR [eax],al
  40e004:	push   eax
  40e005:	add    BYTE PTR [eax],al
  40e007:	add    BYTE PTR [eax+esi*1],al
  40e00a:	adc    BYTE PTR [eax],dh
  40e00c:	adc    al,0x30
  40e00e:	pusha  
  40e00f:	xor    BYTE PTR [eax+esi*1+0xc],ah
  40e013:	adc    BYTE PTR ss:[esi],dh
  40e016:	adc    al,0x36
  40e018:	sbb    BYTE PTR [esi],dh
  40e01a:	sbb    al,0x36
  40e01c:	and    BYTE PTR [esi],dh
  40e01e:	and    al,0x36
  40e020:	sub    BYTE PTR [esi],dh
  40e022:	sub    al,0x36
  40e024:	xor    BYTE PTR [esi],dh
  40e026:	xor    al,0x36
  40e028:	cmp    BYTE PTR [esi],dh
  40e02a:	cmp    al,0x36
  40e02c:	inc    eax
  40e02d:	ss push esp
  40e02f:	ss jo  0x40e068
  40e032:	cwde   
  40e033:	ss mov ah,0x36
  40e036:	mov    eax,0xc036bc36
  40e03b:	les    esi,FWORD PTR ss:[esi]
  40e03e:	enter  0xcc36,0x36
  40e042:	shl    BYTE PTR [esi],1
  40e044:	aam    0x36
  40e046:	fdiv   DWORD PTR [esi]
  40e048:	fdiv   QWORD PTR [esi]
  40e04a:	loopne 0x40e082
  40e04c:	in     al,0x36
  40e04e:	add    BYTE PTR [eax],al
  40e050:	add    BYTE PTR [eax],ah
  40e052:	add    BYTE PTR [eax],al
  40e054:	sbb    BYTE PTR [ecx],al
  40e056:	add    BYTE PTR [eax],al
  40e058:	movs   BYTE PTR es:[edi],BYTE PTR ds:[esi]
  40e059:	cmp    DWORD PTR [eax-0x37c643c7],esi
  40e05f:	cmp    esp,edx
  40e061:	cmp    eax,esp
  40e063:	cmp    esp,ebp
  40e065:	cmp    eax,edi
  40e067:	cmp    DWORD PTR [edx+edi*1],eax
  40e06a:	adc    BYTE PTR [edx],bh
  40e06c:	sbb    al,0x3a
  40e06e:	sub    BYTE PTR [edx],bh
  40e070:	xor    al,0x3a
  40e072:	inc    eax
  40e073:	cmp    cl,BYTE PTR [edx+edi*1+0x58]
  40e077:	cmp    ah,BYTE PTR [edx+edi*1+0x70]
  40e07b:	cmp    bh,BYTE PTR [edx+edi*1-0x78]
  40e07f:	cmp    dl,BYTE PTR [edx+edi*1+0x3aac3aa0]
  40e086:	mov    eax,0xd03ac43a
  40e08b:	cmp    bl,ah
  40e08d:	cmp    ch,al
  40e08f:	cmp    dh,ah
  40e091:	cmp    al,BYTE PTR [eax]
  40e093:	cmp    ecx,DWORD PTR [ebx+edi*1]
  40e096:	sbb    BYTE PTR [ebx],bh
  40e098:	and    al,0x3b
  40e09a:	xor    BYTE PTR [ebx],bh
  40e09c:	cmp    al,0x3b
  40e09e:	dec    eax
  40e09f:	cmp    edx,DWORD PTR [ebx+edi*1+0x60]
  40e0a3:	cmp    ebp,DWORD PTR [ebx+edi*1+0x78]
  40e0a7:	cmp    eax,DWORD PTR [ebx+edi*1+0x3b9c3b90]
  40e0ae:	test   al,0x3b
  40e0b0:	mov    ah,0x3b
  40e0b2:	sar    BYTE PTR [ebx],0xcc
  40e0b5:	cmp    ebx,eax
  40e0b7:	cmp    esp,esp
  40e0b9:	cmp    esi,eax
  40e0bb:	cmp    edi,esp
  40e0bd:	cmp    ecx,DWORD PTR [eax]
  40e0bf:	cmp    al,0x14
  40e0c1:	cmp    al,0x20
  40e0c3:	cmp    al,0x2c
  40e0c5:	cmp    al,0x38
  40e0c7:	cmp    al,0x44
  40e0c9:	cmp    al,0x50
  40e0cb:	cmp    al,0x5c
  40e0cd:	cmp    al,0x68
  40e0cf:	cmp    al,0x74
  40e0d1:	cmp    al,0x80
  40e0d3:	cmp    al,0x8c
  40e0d5:	cmp    al,0x98
  40e0d7:	cmp    al,0xa4
  40e0d9:	cmp    al,0xb0
  40e0db:	cmp    al,0xbc
  40e0dd:	cmp    al,0xc8
  40e0df:	cmp    al,0xd4
  40e0e1:	cmp    al,0xe0
  40e0e3:	cmp    al,0xec
  40e0e5:	cmp    al,0xf8
  40e0e7:	cmp    al,0x4
  40e0e9:	cmp    eax,0x3d1c3d10
  40e0ee:	sub    BYTE PTR ds:0x3d403d34,bh
  40e0f4:	dec    esp
  40e0f5:	cmp    eax,0x3d643d58
  40e0fa:	jo     0x40e139
  40e0fc:	jl     0x40e13b
  40e0fe:	mov    BYTE PTR ds:0x3da03d94,bh
  40e104:	lods   al,BYTE PTR ds:[esi]
  40e105:	cmp    eax,0x3dc43db8
  40e10a:	sar    BYTE PTR ds:0x3de83ddc,1
  40e110:	hlt    
  40e111:	cmp    eax,0x3e0c3e00
  40e116:	sbb    BYTE PTR [esi],bh
  40e118:	and    al,0x3e
  40e11a:	xor    BYTE PTR [esi],bh
  40e11c:	cmp    al,0x3e
  40e11e:	dec    eax
  40e11f:	ds push esp
  40e121:	ds pusha 
  40e123:	ds ins BYTE PTR es:[edi],dx
  40e125:	ds js  0x40e166
  40e128:	test   BYTE PTR [esi],bh
  40e12a:	nop
  40e12b:	ds pushf 
  40e12d:	ds test al,0x3e
  40e130:	mov    ah,0x3e
  40e132:	sar    BYTE PTR [esi],0xcc
  40e135:	fdivr  DWORD PTR ds:[esi]
  40e138:	in     al,0x3e
  40e13a:	lock ds cld 
  40e13d:	or     BYTE PTR ds:[edi],bh
  40e140:	adc    al,0x3f
  40e142:	and    BYTE PTR [edi],bh
  40e144:	sub    al,0x3f
  40e146:	cmp    BYTE PTR [edi],bh
  40e148:	inc    esp
  40e149:	aas    
  40e14a:	push   eax
  40e14b:	aas    
  40e14c:	pop    esp
  40e14d:	aas    
  40e14e:	push   0x803f743f
  40e153:	aas    
  40e154:	mov    WORD PTR [edi],?
  40e156:	cwde   
  40e157:	aas    
  40e158:	movs   BYTE PTR es:[edi],BYTE PTR ds:[esi]
  40e159:	aas    
  40e15a:	mov    al,0x3f
  40e15c:	mov    esp,0xd43fc83f
  40e161:	aas    
  40e162:	loopne 0x40e1a3
  40e164:	in     al,dx
  40e165:	aas    
  40e166:	clc    
  40e167:	aas    
  40e168:	add    BYTE PTR [eax],dh
  40e16a:	add    BYTE PTR [eax],al
  40e16c:	hlt    
  40e16d:	add    al,BYTE PTR [eax]
  40e16f:	add    BYTE PTR [eax+esi*1],al
  40e172:	adc    BYTE PTR [eax],dh
  40e174:	sbb    al,0x30
  40e176:	sub    BYTE PTR [eax],dh
  40e178:	xor    al,0x30
  40e17a:	inc    eax
  40e17b:	xor    BYTE PTR [eax+esi*1+0x58],cl
  40e17f:	xor    BYTE PTR [eax+esi*1+0x70],ah
  40e183:	xor    BYTE PTR [eax+esi*1-0x78],bh
  40e187:	xor    BYTE PTR [eax+esi*1+0x30ac30a0],dl
  40e18e:	mov    eax,0xd030c430
  40e193:	xor    ah,bl
  40e195:	xor    al,ch
  40e197:	xor    ah,dh
  40e199:	xor    BYTE PTR [eax],al
  40e19b:	xor    DWORD PTR [ecx+esi*1],ecx
  40e19e:	sbb    BYTE PTR [ecx],dh
  40e1a0:	and    al,0x31
  40e1a2:	xor    BYTE PTR [ecx],dh
  40e1a4:	cmp    al,0x31
  40e1a6:	dec    eax
  40e1a7:	xor    DWORD PTR [ecx+esi*1+0x60],edx
  40e1ab:	xor    DWORD PTR [ecx+esi*1+0x78],ebp
  40e1af:	xor    DWORD PTR [ecx+esi*1+0x319c3190],eax
  40e1b6:	test   al,0x31
  40e1b8:	mov    ah,0x31
  40e1ba:	shl    BYTE PTR [ecx],0xcc
  40e1bd:	xor    eax,ebx
  40e1bf:	xor    esp,esp
  40e1c1:	xor    eax,esi
  40e1c3:	xor    esp,edi
  40e1c5:	xor    DWORD PTR [eax],ecx
  40e1c7:	xor    dl,BYTE PTR [edx+esi*1]
  40e1ca:	and    BYTE PTR [edx],dh
  40e1cc:	sub    al,0x32
  40e1ce:	cmp    BYTE PTR [edx],dh
  40e1d0:	inc    esp
  40e1d1:	xor    dl,BYTE PTR [eax+0x32]
  40e1d4:	pop    esp
  40e1d5:	xor    ch,BYTE PTR [eax+0x32]
  40e1d8:	je     0x40e20c
  40e1da:	xor    BYTE PTR [edx],0x8c
  40e1dd:	xor    bl,BYTE PTR [eax-0x4fcd5bce]
  40e1e3:	xor    bh,BYTE PTR [edx+esi*1+0x32d432c8]
  40e1ea:	loopne 0x40e21e
  40e1ec:	in     al,dx
  40e1ed:	xor    bh,al
  40e1ef:	xor    al,BYTE PTR [ebx+esi*1]
  40e1f2:	adc    BYTE PTR [ebx],dh
  40e1f4:	sbb    al,0x33
  40e1f6:	sub    BYTE PTR [ebx],dh
  40e1f8:	xor    al,0x33
  40e1fa:	inc    eax
  40e1fb:	xor    ecx,DWORD PTR [ebx+esi*1+0x58]
  40e1ff:	xor    esp,DWORD PTR [ebx+esi*1+0x70]
  40e203:	xor    edi,DWORD PTR [ebx+esi*1-0x78]
  40e207:	xor    edx,DWORD PTR [ebx+esi*1+0x33ac33a0]
  40e20e:	mov    eax,0xd033c433
  40e213:	xor    ebx,esp
  40e215:	xor    ebp,eax
  40e217:	xor    esi,esp
  40e219:	xor    eax,DWORD PTR [eax]
  40e21b:	xor    al,0xc
  40e21d:	xor    al,0x18
  40e21f:	xor    al,0x24
  40e221:	xor    al,0x30
  40e223:	xor    al,0x3c
  40e225:	xor    al,0x48
  40e227:	xor    al,0x54
  40e229:	xor    al,0x60
  40e22b:	xor    al,0x6c
  40e22d:	xor    al,0x78
  40e22f:	xor    al,0x84
  40e231:	xor    al,0x90
  40e233:	xor    al,0x9c
  40e235:	xor    al,0xa8
  40e237:	xor    al,0xb4
  40e239:	xor    al,0xc0
  40e23b:	xor    al,0xcc
  40e23d:	xor    al,0xd8
  40e23f:	xor    al,0xe4
  40e241:	xor    al,0xf0
  40e243:	xor    al,0xfc
  40e245:	xor    al,0x8
  40e247:	xor    eax,0x35203514
  40e24c:	sub    al,0x35
  40e24e:	cmp    BYTE PTR ds:0x35503544,dh
  40e254:	pop    esp
  40e255:	xor    eax,0x35743568
  40e25a:	xor    BYTE PTR ds:0x3598358c,0xa4
  40e261:	xor    eax,0x35bc35b0
  40e266:	enter  0xd435,0x35
  40e26a:	loopne 0x40e2a1
  40e26c:	in     al,dx
  40e26d:	xor    eax,0x360435f8
  40e272:	adc    BYTE PTR [esi],dh
  40e274:	sbb    al,0x36
  40e276:	sub    BYTE PTR [esi],dh
  40e278:	xor    al,0x36
  40e27a:	inc    eax
  40e27b:	ss dec esp
  40e27d:	ss pop eax
  40e27f:	ss fs ss jo 0x40e2ba
  40e284:	jl     0x40e2bc
  40e286:	mov    BYTE PTR [esi],dh
  40e288:	xchg   esp,eax
  40e289:	mov    al,ss:0xb836ac36
  40e28f:	les    esi,FWORD PTR ss:[esi]
  40e292:	shl    BYTE PTR [esi],1
  40e294:	fdiv   QWORD PTR [esi]
  40e296:	call   0x77d6d1
  40e29b:	aaa    
  40e29c:	or     al,0x37
  40e29e:	sbb    BYTE PTR [edi],dh
  40e2a0:	and    al,0x37
  40e2a2:	xor    BYTE PTR [edi],dh
  40e2a4:	cmp    al,0x37
  40e2a6:	dec    eax
  40e2a7:	aaa    
  40e2a8:	push   esp
  40e2a9:	aaa    
  40e2aa:	pusha  
  40e2ab:	aaa    
  40e2ac:	ins    BYTE PTR es:[edi],dx
  40e2ad:	aaa    
  40e2ae:	js     0x40e2e7
  40e2b0:	test   BYTE PTR [edi],dh
  40e2b2:	nop
  40e2b3:	aaa    
  40e2b4:	pushf  
  40e2b5:	aaa    
  40e2b6:	test   al,0x37
  40e2b8:	mov    ah,0x37
  40e2ba:	shl    BYTE PTR [edi],0xcc
  40e2bd:	aaa    
  40e2be:	fdiv   DWORD PTR [edi]
  40e2c0:	in     al,0x37
  40e2c2:	lock aaa 
  40e2c4:	cld    
  40e2c5:	aaa    
  40e2c6:	or     BYTE PTR [eax],bh
  40e2c8:	adc    al,0x38
  40e2ca:	and    BYTE PTR [eax],bh
  40e2cc:	sub    al,0x38
  40e2ce:	cmp    BYTE PTR [eax],bh
  40e2d0:	inc    esp
  40e2d1:	cmp    BYTE PTR [eax+0x38],dl
  40e2d4:	pop    esp
  40e2d5:	cmp    BYTE PTR [eax+0x38],ch
  40e2d8:	je     0x40e312
  40e2da:	cmp    BYTE PTR [eax],0x8c
  40e2dd:	cmp    BYTE PTR [eax-0x4fc75bc8],bl
  40e2e3:	cmp    BYTE PTR [eax+edi*1+0x38d438c8],bh
  40e2ea:	loopne 0x40e324
  40e2ec:	in     al,dx
  40e2ed:	cmp    al,bh
  40e2ef:	cmp    BYTE PTR [ecx+edi*1],al
  40e2f2:	adc    BYTE PTR [ecx],bh
  40e2f4:	sbb    al,0x39
  40e2f6:	sub    BYTE PTR [ecx],bh
  40e2f8:	xor    al,0x39
  40e2fa:	inc    eax
  40e2fb:	cmp    DWORD PTR [ecx+edi*1+0x58],ecx
  40e2ff:	cmp    DWORD PTR [ecx+edi*1+0x70],esp
  40e303:	cmp    DWORD PTR [ecx+edi*1-0x78],edi
  40e307:	cmp    DWORD PTR [ecx+edi*1+0x39ac39a0],edx
  40e30e:	mov    eax,0xd039c439
  40e313:	cmp    esp,ebx
  40e315:	cmp    eax,ebp
  40e317:	cmp    esp,esi
  40e319:	cmp    DWORD PTR [eax],eax
  40e31b:	cmp    cl,BYTE PTR [edx+edi*1]
  40e31e:	sbb    BYTE PTR [edx],bh
  40e320:	and    al,0x3a
  40e322:	xor    BYTE PTR [edx],bh
  40e324:	cmp    al,0x3a
  40e326:	dec    eax
  40e327:	cmp    dl,BYTE PTR [edx+edi*1+0x60]
  40e32b:	cmp    ch,BYTE PTR [edx+edi*1+0x78]
  40e32f:	cmp    al,BYTE PTR [edx+edi*1+0x3a9c3a90]
  40e336:	test   al,0x3a
  40e338:	mov    ah,0x3a
  40e33a:	sar    BYTE PTR [edx],0xcc
  40e33d:	cmp    bl,al
  40e33f:	cmp    ah,ah
  40e341:	cmp    dh,al
  40e343:	cmp    bh,ah
  40e345:	cmp    cl,BYTE PTR [eax]
  40e347:	cmp    edx,DWORD PTR [ebx+edi*1]
  40e34a:	and    BYTE PTR [ebx],bh
  40e34c:	sub    al,0x3b
  40e34e:	cmp    BYTE PTR [ebx],bh
  40e350:	inc    esp
  40e351:	cmp    edx,DWORD PTR [eax+0x3b]
  40e354:	pop    esp
  40e355:	cmp    ebp,DWORD PTR [eax+0x3b]
  40e358:	je     0x40e395
  40e35a:	cmp    BYTE PTR [ebx],0x8c
  40e35d:	cmp    ebx,DWORD PTR [eax-0x4fc45bc5]
  40e363:	cmp    edi,DWORD PTR [ebx+edi*1+0x3bd43bc8]
  40e36a:	loopne 0x40e3a7
  40e36c:	in     al,dx
  40e36d:	cmp    edi,eax
  40e36f:	cmp    eax,DWORD PTR [esp+edi*1]
  40e372:	adc    BYTE PTR [esp+ebx*1],bh
  40e375:	cmp    al,0x28
  40e377:	cmp    al,0x34
  40e379:	cmp    al,0x40
  40e37b:	cmp    al,0x4c
  40e37d:	cmp    al,0x58
  40e37f:	cmp    al,0x64
  40e381:	cmp    al,0x70
  40e383:	cmp    al,0x7c
  40e385:	cmp    al,0x88
  40e387:	cmp    al,0x94
  40e389:	cmp    al,0xa0
  40e38b:	cmp    al,0xac
  40e38d:	cmp    al,0xb8
  40e38f:	cmp    al,0xc4
  40e391:	cmp    al,0xd0
  40e393:	cmp    al,0xdc
  40e395:	cmp    al,0xe8
  40e397:	cmp    al,0xf0
  40e399:	cmp    al,0xf8
  40e39b:	cmp    al,0x0
  40e39d:	cmp    eax,0x3d103d08
  40e3a2:	sbb    BYTE PTR ds:0x3d283d20,bh
  40e3a8:	xor    BYTE PTR ds:0x3d403d38,bh
  40e3ae:	dec    eax
  40e3af:	cmp    eax,0x3d583d50
  40e3b4:	pusha  
  40e3b5:	cmp    eax,0x3d703d68
  40e3ba:	js     0x40e3f9
  40e3bc:	cmp    BYTE PTR ds:0x3d903d88,0x98
  40e3c3:	cmp    eax,0x3da83da0
  40e3c8:	mov    al,0x3d
  40e3ca:	mov    eax,0xc83dc03d
  40e3cf:	cmp    eax,0x3dd83dd0
  40e3d4:	loopne 0x40e413
  40e3d6:	call   0xf87ed418
  40e3db:	cmp    eax,0x3e083e00
  40e3e0:	adc    BYTE PTR [esi],bh
  40e3e2:	sbb    BYTE PTR [esi],bh
  40e3e4:	and    BYTE PTR [esi],bh
  40e3e6:	sub    BYTE PTR [esi],bh
  40e3e8:	xor    BYTE PTR [esi],bh
  40e3ea:	cmp    BYTE PTR [esi],bh
  40e3ec:	inc    eax
  40e3ed:	ds dec eax
  40e3ef:	ds push eax
  40e3f1:	ds pop eax
  40e3f3:	ds pusha 
  40e3f5:	ds push 0x783e703e
  40e3fb:	cmp    BYTE PTR ds:[esi],0x88
  40e3ff:	ds nop
  40e401:	ds cwde 
  40e403:	mov    al,ds:0xb03ea83e
  40e409:	ds mov eax,0xc83ec03e
  40e40f:	sar    BYTE PTR ds:[esi],1
  40e412:	fdivr  DWORD PTR [esi]
  40e414:	loopne 0x40e454
  40e416:	call   0xf87fd459
  40e41b:	add    BYTE PTR ds:[edi],bh
  40e41e:	or     BYTE PTR [edi],bh
  40e420:	adc    BYTE PTR [edi],bh
  40e422:	sbb    BYTE PTR [edi],bh
  40e424:	and    BYTE PTR [edi],bh
  40e426:	sub    BYTE PTR [edi],bh
  40e428:	xor    BYTE PTR [edi],bh
  40e42a:	cmp    BYTE PTR [edi],bh
  40e42c:	inc    eax
  40e42d:	aas    
  40e42e:	dec    eax
  40e42f:	aas    
  40e430:	push   eax
  40e431:	aas    
  40e432:	pop    eax
  40e433:	aas    
  40e434:	pusha  
  40e435:	aas    
  40e436:	push   0x783f703f
  40e43b:	aas    
  40e43c:	cmp    BYTE PTR [edi],0x88
  40e43f:	aas    
  40e440:	nop
  40e441:	aas    
  40e442:	cwde   
  40e443:	aas    
  40e444:	mov    al,ds:0xb03fa83f
  40e449:	aas    
  40e44a:	mov    eax,0xc83fc03f
  40e44f:	aas    
  40e450:	sar    BYTE PTR [edi],1
  40e452:	fdivr  DWORD PTR [edi]
  40e454:	loopne 0x40e495
  40e456:	call   0xf880d49a
  40e45b:	aas    
  40e45c:	add    BYTE PTR [eax+0x0],al
  40e45f:	add    ah,al
  40e461:	add    al,BYTE PTR [eax]
  40e463:	add    BYTE PTR [eax],al
  40e465:	xor    BYTE PTR [eax],cl
  40e467:	xor    BYTE PTR [eax],dl
  40e469:	xor    BYTE PTR [eax],bl
  40e46b:	xor    BYTE PTR [eax],ah
  40e46d:	xor    BYTE PTR [eax],ch
  40e46f:	xor    BYTE PTR [eax],dh
  40e471:	xor    BYTE PTR [eax],bh
  40e473:	xor    BYTE PTR [eax+0x30],al
  40e476:	dec    eax
  40e477:	xor    BYTE PTR [eax+0x30],dl
  40e47a:	pop    eax
  40e47b:	xor    BYTE PTR [eax+0x30],ah
  40e47e:	push   0x78307030
  40e483:	xor    BYTE PTR [eax-0x6fcf77d0],al
  40e489:	xor    BYTE PTR [eax-0x57cf5fd0],bl
  40e48f:	xor    BYTE PTR [eax-0x3fcf47d0],dh
  40e495:	xor    al,cl
  40e497:	xor    al,dl
  40e499:	xor    al,bl
  40e49b:	xor    al,ah
  40e49d:	xor    al,ch
  40e49f:	xor    al,dh
  40e4a1:	xor    al,bh
  40e4a3:	xor    BYTE PTR [eax],al
  40e4a5:	xor    DWORD PTR [eax],ecx
  40e4a7:	xor    DWORD PTR [eax],edx
  40e4a9:	xor    DWORD PTR [eax],ebx
  40e4ab:	xor    DWORD PTR [eax],esp
  40e4ad:	xor    DWORD PTR [eax],ebp
  40e4af:	xor    DWORD PTR [eax],esi
  40e4b1:	xor    DWORD PTR [eax],edi
  40e4b3:	xor    DWORD PTR [eax+0x31],eax
  40e4b6:	dec    eax
  40e4b7:	xor    DWORD PTR [eax+0x31],edx
  40e4ba:	pop    eax
  40e4bb:	xor    DWORD PTR [eax+0x31],esp
  40e4be:	push   0x78317031
  40e4c3:	xor    DWORD PTR [eax-0x6fce77cf],eax
  40e4c9:	xor    DWORD PTR [eax-0x57ce5fcf],ebx
  40e4cf:	xor    DWORD PTR [eax-0x3fce47cf],esi
  40e4d5:	xor    eax,ecx
  40e4d7:	xor    eax,edx
  40e4d9:	xor    eax,ebx
  40e4db:	xor    eax,esp
  40e4dd:	xor    eax,ebp
  40e4df:	xor    eax,esi
  40e4e1:	xor    eax,edi
  40e4e3:	xor    DWORD PTR [eax],eax
  40e4e5:	xor    cl,BYTE PTR [eax]
  40e4e7:	xor    dl,BYTE PTR [eax]
  40e4e9:	xor    bl,BYTE PTR [eax]
  40e4eb:	xor    ah,BYTE PTR [eax]
  40e4ed:	xor    ch,BYTE PTR [eax]
  40e4ef:	xor    dh,BYTE PTR [eax]
  40e4f1:	xor    bh,BYTE PTR [eax]
  40e4f3:	xor    al,BYTE PTR [eax+0x32]
  40e4f6:	dec    eax
  40e4f7:	xor    dl,BYTE PTR [eax+0x32]
  40e4fa:	pop    eax
  40e4fb:	xor    ah,BYTE PTR [eax+0x32]
  40e4fe:	push   0x78327032
  40e503:	xor    al,BYTE PTR [eax-0x6fcd77ce]
  40e509:	xor    bl,BYTE PTR [eax-0x57cd5fce]
  40e50f:	xor    dh,BYTE PTR [eax-0x3fcd47ce]
  40e515:	xor    cl,al
  40e517:	xor    dl,al
  40e519:	xor    bl,al
  40e51b:	xor    ah,al
  40e51d:	xor    ch,al
  40e51f:	xor    dh,al
  40e521:	xor    bh,al
  40e523:	xor    al,BYTE PTR [eax]
  40e525:	xor    ecx,DWORD PTR [eax]
  40e527:	xor    edx,DWORD PTR [eax]
  40e529:	xor    ebx,DWORD PTR [eax]
  40e52b:	xor    esp,DWORD PTR [eax]
  40e52d:	xor    ebp,DWORD PTR [eax]
  40e52f:	xor    esi,DWORD PTR [eax]
  40e531:	xor    edi,DWORD PTR [eax]
  40e533:	xor    eax,DWORD PTR [eax+0x33]
  40e536:	dec    eax
  40e537:	xor    edx,DWORD PTR [eax+0x33]
  40e53a:	pop    eax
  40e53b:	xor    esp,DWORD PTR [eax+0x33]
  40e53e:	push   0x78337033
  40e543:	xor    eax,DWORD PTR [eax-0x6fcc77cd]
  40e549:	xor    ebx,DWORD PTR [eax-0x57cc5fcd]
  40e54f:	xor    esi,DWORD PTR [eax-0x3fcc47cd]
  40e555:	xor    ecx,eax
  40e557:	xor    edx,eax
  40e559:	xor    ebx,eax
  40e55b:	xor    esp,eax
  40e55d:	xor    ebp,eax
  40e55f:	xor    esi,eax
  40e561:	xor    edi,eax
  40e563:	xor    eax,DWORD PTR [eax]
  40e565:	xor    al,0x8
  40e567:	xor    al,0x10
  40e569:	xor    al,0x18
  40e56b:	xor    al,0x20
  40e56d:	xor    al,0x28
  40e56f:	xor    al,0x30
  40e571:	xor    al,0x38
  40e573:	xor    al,0x40
  40e575:	xor    al,0x48
  40e577:	xor    al,0x50
  40e579:	xor    al,0x58
  40e57b:	xor    al,0x60
  40e57d:	xor    al,0x68
  40e57f:	xor    al,0x70
  40e581:	xor    al,0x78
  40e583:	xor    al,0x80
  40e585:	xor    al,0x88
  40e587:	xor    al,0x90
  40e589:	xor    al,0x98
  40e58b:	xor    al,0xa0
  40e58d:	xor    al,0xa8
  40e58f:	xor    al,0xb0
  40e591:	xor    al,0xb8
  40e593:	xor    al,0xc0
  40e595:	xor    al,0xc8
  40e597:	xor    al,0xd0
  40e599:	xor    al,0xd8
  40e59b:	xor    al,0xe0
  40e59d:	xor    al,0xe8
  40e59f:	xor    al,0xf0
  40e5a1:	xor    al,0xf8
  40e5a3:	xor    al,0x0
  40e5a5:	xor    eax,0x35103508
  40e5aa:	sbb    BYTE PTR ds:0x35283520,dh
  40e5b0:	xor    BYTE PTR ds:0x35403538,dh
  40e5b6:	dec    eax
  40e5b7:	xor    eax,0x35583550
  40e5bc:	pusha  
  40e5bd:	xor    eax,0x35703568
  40e5c2:	js     0x40e5f9
  40e5c4:	xor    BYTE PTR ds:0x35903588,0x98
  40e5cb:	xor    eax,0x35a835a0
  40e5d0:	mov    al,0x35
  40e5d2:	mov    eax,0xc835c035
  40e5d7:	xor    eax,0x35d835d0
  40e5dc:	loopne 0x40e613
  40e5de:	call   0xf876d618
  40e5e3:	xor    eax,0x36083600
  40e5e8:	adc    BYTE PTR [esi],dh
  40e5ea:	sbb    BYTE PTR [esi],dh
  40e5ec:	and    BYTE PTR [esi],dh
  40e5ee:	sub    BYTE PTR [esi],dh
  40e5f0:	xor    BYTE PTR [esi],dh
  40e5f2:	cmp    BYTE PTR [esi],dh
  40e5f4:	inc    eax
  40e5f5:	ss dec eax
  40e5f7:	ss push eax
  40e5f9:	ss pop eax
  40e5fb:	ss pusha 
  40e5fd:	ss push 0x78367036
  40e603:	xor    BYTE PTR ss:[esi],0x88
  40e607:	ss nop
  40e609:	ss cwde 
  40e60b:	mov    al,ss:0xb036a836
  40e611:	ss mov eax,0xc836c036
  40e617:	shl    BYTE PTR ss:[esi],1
  40e61a:	fdiv   DWORD PTR [esi]
  40e61c:	loopne 0x40e654
  40e61e:	call   0xf877d659
  40e623:	add    BYTE PTR ss:[edi],dh
  40e626:	or     BYTE PTR [edi],dh
  40e628:	adc    BYTE PTR [edi],dh
  40e62a:	sbb    BYTE PTR [edi],dh
  40e62c:	and    BYTE PTR [edi],dh
  40e62e:	sub    BYTE PTR [edi],dh
  40e630:	xor    BYTE PTR [edi],dh
  40e632:	cmp    BYTE PTR [edi],dh
  40e634:	inc    eax
  40e635:	aaa    
  40e636:	dec    eax
  40e637:	aaa    
  40e638:	push   eax
  40e639:	aaa    
  40e63a:	pop    eax
  40e63b:	aaa    
  40e63c:	pusha  
  40e63d:	aaa    
  40e63e:	push   0x78377037
  40e643:	aaa    
  40e644:	xor    BYTE PTR [edi],0x88
  40e647:	aaa    
  40e648:	nop
  40e649:	aaa    
  40e64a:	cwde   
  40e64b:	aaa    
  40e64c:	mov    al,ds:0xb037a837
  40e651:	aaa    
  40e652:	mov    eax,0xc837c037
  40e657:	aaa    
  40e658:	shl    BYTE PTR [edi],1
  40e65a:	fdiv   DWORD PTR [edi]
  40e65c:	loopne 0x40e695
  40e65e:	call   0xf878d69a
  40e663:	aaa    
  40e664:	add    BYTE PTR [eax],bh
  40e666:	or     BYTE PTR [eax],bh
  40e668:	adc    BYTE PTR [eax],bh
  40e66a:	sbb    BYTE PTR [eax],bh
  40e66c:	and    BYTE PTR [eax],bh
  40e66e:	sub    BYTE PTR [eax],bh
  40e670:	xor    BYTE PTR [eax],bh
  40e672:	cmp    BYTE PTR [eax],bh
  40e674:	inc    eax
  40e675:	cmp    BYTE PTR [eax+0x38],cl
  40e678:	push   eax
  40e679:	cmp    BYTE PTR [eax+0x38],bl
  40e67c:	pusha  
  40e67d:	cmp    BYTE PTR [eax+0x38],ch
  40e680:	jo     0x40e6ba
  40e682:	js     0x40e6bc
  40e684:	cmp    BYTE PTR [eax],0x88
  40e687:	cmp    BYTE PTR [eax-0x5fc767c8],dl
  40e68d:	cmp    BYTE PTR [eax-0x47c74fc8],ch
  40e693:	cmp    al,al
  40e695:	cmp    al,cl
  40e697:	cmp    al,dl
  40e699:	cmp    al,bl
  40e69b:	cmp    al,ah
  40e69d:	cmp    al,ch
  40e69f:	cmp    al,dh
  40e6a1:	cmp    al,bh
  40e6a3:	cmp    BYTE PTR [eax],al
  40e6a5:	cmp    DWORD PTR [eax],ecx
  40e6a7:	cmp    DWORD PTR [eax],edx
  40e6a9:	cmp    DWORD PTR [eax],ebx
  40e6ab:	cmp    DWORD PTR [eax],esp
  40e6ad:	cmp    DWORD PTR [eax],ebp
  40e6af:	cmp    DWORD PTR [eax],esi
  40e6b1:	cmp    DWORD PTR [eax],edi
  40e6b3:	cmp    DWORD PTR [eax+0x39],eax
  40e6b6:	dec    eax
  40e6b7:	cmp    DWORD PTR [eax+0x39],edx
  40e6ba:	pop    eax
  40e6bb:	cmp    DWORD PTR [eax+0x39],esp
  40e6be:	push   0x78397039
  40e6c3:	cmp    DWORD PTR [eax-0x6fc677c7],eax
  40e6c9:	cmp    DWORD PTR [eax-0x57c65fc7],ebx
  40e6cf:	cmp    DWORD PTR [eax-0x3fc647c7],esi
  40e6d5:	cmp    eax,ecx
  40e6d7:	cmp    DWORD PTR [edx+edi*1+0x68],esp
  40e6db:	cmp    dh,BYTE PTR [eax+0x3a]
  40e6de:	js     0x40e71a
  40e6e0:	pop    es
  40e6e1:	cmp    eax,0x3d613d43
  40e6e6:	push   0xb33d8f3d
  40e6eb:	cmp    eax,0x3dd23dba
  40e6f0:	or     bh,BYTE PTR [esi]
  40e6f2:	adc    BYTE PTR [esi],bh
  40e6f4:	sbb    DWORD PTR [esi],edi
  40e6f6:	sub    eax,0x473e3b3e
  40e6fb:	ds pop ebx
  40e6fd:	ds gs imul edi,DWORD PTR ds:[esi],0x74
  40e703:	ds xchg edi,eax
  40e705:	ds mov cl,0x3e
  40e708:	mov    eax,0xdd3ed03e
  40e70d:	ds cld 
  40e70f:	add    bh,BYTE PTR ds:[edi]
  40e712:	or     eax,0x383f153f
  40e717:	aas    
  40e718:	ins    BYTE PTR es:[edi],dx
  40e719:	aas    
  40e71a:	mov    DWORD PTR [edi],edi
  40e71c:	lods   al,BYTE PTR ds:[esi]
  40e71d:	aas    
  40e71e:	add    BYTE PTR [eax],al
  40e720:	add    BYTE PTR [eax+0x0],dl
  40e723:	add    BYTE PTR [eax+eax*1+0x30d50000],ah
  40e72a:	out    0x30,al
  40e72c:	push   DWORD PTR [eax]
  40e72e:	add    eax,0x56313231
  40e733:	xor    DWORD PTR [ebx+0x26320931],edx
  40e739:	xor    ch,BYTE PTR [ebx]
  40e73b:	xor    dh,BYTE PTR [ecx]
  40e73d:	xor    dh,BYTE PTR [edi]
  40e73f:	xor    bh,BYTE PTR ds:0x69325932
  40e745:	xor    dh,BYTE PTR [ecx+0x32]
  40e748:	jns    0x40e77c
  40e74a:	mov    dh,BYTE PTR [edx]
  40e74c:	nop
  40e74d:	xor    cl,al
  40e74f:	xor    cl,dh
  40e751:	xor    bl,bh
  40e753:	xor    ah,ch
  40e755:	xor    dh,ch
  40e757:	xor    bh,dh
  40e759:	xor    al,BYTE PTR [ebx+esi*1]
  40e75c:	push   cs
  40e75d:	xor    edx,DWORD PTR [ebx+esi*1]
  40e760:	and    dh,BYTE PTR [ebx]
  40e762:	sub    DWORD PTR [ebx],esi
  40e764:	aaa    
  40e765:	xor    edi,DWORD PTR ds:0x4d334333
  40e76b:	xor    edx,DWORD PTR [ebx+0x33]
  40e76e:	jae    0x40e7a3
  40e770:	jns    0x40e7a5
  40e772:	add    al,0x34
  40e774:	gs xor al,0x8a
  40e777:	xor    al,0x99
  40e779:	xor    al,0xad
  40e77b:	xor    al,0xb4
  40e77d:	xor    al,0xbb
  40e77f:	xor    al,0xc2
  40e781:	xor    al,0xef
  40e783:	xor    al,0xf5
  40e785:	xor    al,0x2
  40e787:	xor    eax,0x350e3508
  40e78c:	gs ss jb 0x40e7c6
  40e790:	nop
  40e791:	ss call 0xc9789acd
  40e797:	aaa    
  40e798:	cmp    BYTE PTR ss:[esi+0x38],dh
  40e79c:	fidivr DWORD PTR [eax]
  40e79e:	ret    0x4539
  40e7a1:	cmp    ah,BYTE PTR [edx+0xa3abb3a]
  40e7a7:	cmp    edx,ecx
  40e7a9:	cmp    edi,esp
  40e7ab:	cmp    edx,DWORD PTR [esi+0x3c]
  40e7ae:	cmp    DWORD PTR [edi+eiz*4],0x3c
  40e7b2:	add    al,0x3d
  40e7b4:	out    0x3d,al
  40e7b6:	xchg   BYTE PTR [esi],bh
  40e7b8:	mov    ds:0xe63eca3e,al
  40e7bd:	ds add eax,0x3f643f
  40e7c3:	add    BYTE PTR [eax],al
  40e7c5:	pusha  
  40e7c6:	add    BYTE PTR [eax],al
  40e7c8:	cwde   
  40e7c9:	add    BYTE PTR [eax],al
  40e7cb:	add    BYTE PTR [ecx+0x30],dl
  40e7ce:	pop    ebx
  40e7cf:	xor    BYTE PTR [esi+0x30],dh
  40e7d2:	sahf   
  40e7d3:	xor    BYTE PTR [ecx+esi*1+0x53],al
  40e7d7:	xor    DWORD PTR [esi+0x31],ebx
  40e7da:	imul   esi,DWORD PTR [ecx],0x319c3179
  40e7e0:	into   
  40e7e1:	xor    ebx,ebp
  40e7e3:	xor    DWORD PTR [ecx+0x32],esi
  40e7e6:	cwde   
  40e7e7:	xor    cl,BYTE PTR [esi+0x33]
  40e7ea:	jne    0x40e81f
  40e7ec:	in     eax,dx
  40e7ed:	xor    edx,DWORD PTR [esp+esi*1]
  40e7f0:	cmp    dh,BYTE PTR [ecx*2-0x70cb96cc]
  40e7f7:	xor    al,0xfa
  40e7f9:	xor    al,0xff
  40e7fb:	xor    al,0xf
  40e7fd:	xor    eax,0x35763567
  40e802:	pusha  
  40e803:	aaa    
  40e804:	movs   DWORD PTR es:[edi],DWORD PTR ds:[esi]
  40e805:	aaa    
  40e806:	enter  0xce37,0x37
  40e80a:	fnstenv [edi]
  40e80c:	pop    ecx
  40e80d:	cmp    BYTE PTR [esi-0x50c765c8],cl
  40e813:	cmp    al,cl
  40e815:	cmp    cl,bl
  40e817:	cmp    dh,ah
  40e819:	cmp    ah,ch
  40e81b:	cmp    ah,dh
  40e81d:	cmp    BYTE PTR [ebx],ch
  40e81f:	cmp    DWORD PTR [ecx+edi*1+0x54],eax
  40e823:	cmp    DWORD PTR [edi+0x39],ebx
  40e826:	push   0x39
  40e828:	jle    0x40e863
  40e82a:	mov    DWORD PTR [ecx],edi
  40e82c:	mov    eax,0xab3aa039
  40e831:	cmp    dh,BYTE PTR [ecx-0x3dc548c6]
  40e837:	cmp    cl,al
  40e839:	cmp    cl,dh
  40e83b:	cmp    dl,ah
  40e83d:	cmp    bh,dl
  40e83f:	cmp    dh,BYTE PTR ds:0xf43b4e3b
  40e845:	cmp    edi,ebx
  40e847:	cmp    eax,DWORD PTR [esp+edi*1]
  40e84a:	or     edi,DWORD PTR [edx+eiz*1]
  40e84d:	cmp    al,0xa1
  40e84f:	cmp    al,0xb7
  40e851:	cmp    al,0x1a
  40e853:	cmp    eax,0x3f053d8b
  40e858:	inc    ecx
  40e859:	aas    
  40e85a:	add    BYTE PTR [eax],al
  40e85c:	add    BYTE PTR [eax+0x0],dh
  40e85f:	add    BYTE PTR [eax+eax*1],dh
  40e862:	add    BYTE PTR [eax],al
  40e864:	mov    ecx,0xfe30da30
  40e869:	xor    BYTE PTR [edx+0x31],al
  40e86c:	dec    ecx
  40e86d:	xor    DWORD PTR [ebx+0x31],ebp
  40e870:	repnz xor DWORD PTR [ebx+esi*1-0xf],ebx
  40e875:	xor    eax,0x368e3625
  40e87a:	stos   DWORD PTR es:[edi],eax
  40e87b:	push   DWORD PTR ss:[esi]
  40e87e:	xor    BYTE PTR [edi],dh
  40e880:	pop    esi
  40e881:	cmp    DWORD PTR [eax+0x353b1339],eax
  40e887:	cmp    edi,DWORD PTR [edx-0x73c212c4]
  40e88d:	aas    
  40e88e:	out    dx,al
  40e88f:	aas    
  40e890:	add    BYTE PTR [eax+0x10c0000],al
  40e896:	add    BYTE PTR [eax],al
  40e898:	and    DWORD PTR [eax],esi
  40e89a:	test   BYTE PTR [eax],dh
  40e89c:	fwait
  40e89d:	xor    BYTE PTR [esi-0x10cf4cd0],ah
  40e8a3:	xor    BYTE PTR [ebp+0x31],bh
  40e8a6:	mov    DWORD PTR [ecx],esi
  40e8a8:	mov    ecx,0x3a320031
  40e8ad:	xor    cl,BYTE PTR [esi+0x32]
  40e8b0:	arpl   WORD PTR [edx],si
  40e8b2:	jb     0x40e8e6
  40e8b4:	mov    ds:0xe632d632,eax
  40e8b9:	xor    dh,ch
  40e8bb:	xor    bh,BYTE PTR [eax+0x833db33]
  40e8c1:	xor    al,0x69
  40e8c3:	xor    al,0xaf
  40e8c5:	xor    al,0xb4
  40e8c7:	xor    al,0xd2
  40e8c9:	xor    al,0xf7
  40e8cb:	xor    al,0x1e
  40e8cd:	xor    eax,0x35c63565
  40e8d2:	int    0x35
  40e8d4:	(bad)  ds:0x366b3638
  40e8da:	jg     0x40e912
  40e8dc:	mov    BYTE PTR [esi],dh
  40e8de:	cwde   
  40e8df:	mov    eax,ss:0xda36be36
  40e8e5:	ss out 0x36,al
  40e8e8:	sbb    BYTE PTR [edi],dh
  40e8ea:	xor    al,0x37
  40e8ec:	inc    eax
  40e8ed:	aaa    
  40e8ee:	pushf  
  40e8ef:	aaa    
  40e8f0:	ret    0xec37
  40e8f3:	aaa    
  40e8f4:	pop    ebp
  40e8f5:	cmp    BYTE PTR [ebp+0x38],ah
  40e8f8:	mov    ds:0xcc38b338,al
  40e8fd:	cmp    bl,dl
  40e8ff:	cmp    BYTE PTR [ecx+0x39],al
  40e902:	xor    BYTE PTR [edx],bh
  40e904:	push   edi
  40e905:	cmp    ch,BYTE PTR [ecx+0x3a]
  40e908:	jns    0x40e944
  40e90a:	pushf  
  40e90b:	cmp    dl,cl
  40e90d:	cmp    bl,al
  40e90f:	cmp    ah,dl
  40e911:	cmp    ch,BYTE PTR [ecx]
  40e913:	cmp    edi,DWORD PTR ds:0x903b583b
  40e919:	cmp    ebx,DWORD PTR [ebp-0x71c37ac5]
  40e91f:	cmp    al,0x9d
  40e921:	cmp    al,0xa4
  40e923:	cmp    al,0xdf
  40e925:	cmp    al,0x5
  40e927:	cmp    eax,0x3d183d11
  40e92c:	sub    BYTE PTR ds:0x3db83d65,bh
  40e932:	les    edi,FWORD PTR ds:0x3dd73dca
  40e938:	in     eax,dx
  40e939:	cmp    eax,0x3e003df6
  40e93e:	or     DWORD PTR [esi],edi
  40e940:	adc    edi,DWORD PTR [esi]
  40e942:	pop    ds
  40e943:	ds and eax,0x353e2c3e
  40e949:	cmp    edi,DWORD PTR ds:[esi]
  40e94c:	inc    ebx
  40e94d:	ds dec ecx
  40e94f:	ds push esi
  40e951:	ds pop esi
  40e953:	ds fs cmp DWORD PTR ds:[esi],0x3e8c3e86
  40e95c:	xchg   ecx,eax
  40e95d:	ds xchg esi,eax
  40e95f:	ds fwait
  40e961:	mov    al,ds:0xae3ea63e
  40e967:	ds mov ebx,0xf73ed53e
  40e96d:	add    bh,BYTE PTR ds:[edi]
  40e970:	adc    al,0x3f
  40e972:	sbb    al,0x3f
  40e974:	and    DWORD PTR [edi],edi
  40e976:	es aas 
  40e978:	dec    eax
  40e979:	aas    
  40e97a:	dec    esi
  40e97b:	aas    
  40e97c:	push   ebp
  40e97d:	aas    
  40e97e:	pop    edx
  40e97f:	aas    
  40e980:	addr16 aas 
  40e982:	jbe    0x40e9c3
  40e984:	jle    0x40e9c5
  40e986:	xchg   BYTE PTR [edi],bh
  40e988:	call   0xb03f:0xaa3fa23f
  40e98f:	aas    
  40e990:	mov    dh,0x3f
  40e992:	ret    
  40e993:	aas    
  40e994:	leave  
  40e995:	aas    
  40e996:	sar    DWORD PTR [edi],cl
  40e998:	repnz aas 
  40e99a:	clc    
  40e99b:	aas    
  40e99c:	add    BYTE PTR [eax+0xe00000],dl
  40e9a2:	add    BYTE PTR [eax],al
  40e9a4:	add    dh,BYTE PTR [eax]
  40e9a6:	or     BYTE PTR [eax],dh
  40e9a8:	adc    DWORD PTR [eax],esi
  40e9aa:	push   ss
  40e9ab:	xor    BYTE PTR [ebx],dh
  40e9ad:	xor    BYTE PTR [esi+0x30],dl
  40e9b0:	xchg   edx,eax
  40e9b1:	xor    BYTE PTR [eax-0x3ccf45d0],ch
  40e9b7:	xor    dh,cl
  40e9b9:	xor    ch,dl
  40e9bb:	xor    ah,ch
  40e9bd:	xor    dl,dh
  40e9bf:	xor    al,bh
  40e9c1:	xor    dh,bh
  40e9c3:	xor    BYTE PTR [ecx+esi*1],al
  40e9c6:	or     dh,BYTE PTR [ecx]
  40e9c8:	adc    DWORD PTR [ecx],esi
  40e9ca:	sbb    BYTE PTR [ecx],dh
  40e9cc:	pop    ds
  40e9cd:	xor    DWORD PTR [esi],esp
  40e9cf:	xor    DWORD PTR ds:0x3b313431,ebp
  40e9d5:	xor    DWORD PTR [ebx+0x31],eax
  40e9d8:	dec    ebx
  40e9d9:	xor    DWORD PTR [ebx+0x31],edx
  40e9dc:	pop    edi
  40e9dd:	xor    DWORD PTR [eax+0x31],ebp
  40e9e0:	ins    DWORD PTR es:[edi],dx
  40e9e1:	xor    DWORD PTR [ebx+0x31],esi
  40e9e4:	jge    0x40ea17
  40e9e6:	xchg   DWORD PTR [ecx],esi
  40e9e8:	xchg   edi,eax
  40e9e9:	xor    DWORD PTR [edi-0x47ce52cf],esp
  40e9ef:	xor    DWORD PTR [esi-0x25ce35cf],edi
  40e9f5:	xor    ebx,esp
  40e9f7:	xor    ebx,edi
  40e9f9:	xor    DWORD PTR [ecx],eax
  40e9fb:	xor    al,BYTE PTR [edi]
  40e9fd:	xor    cl,BYTE PTR ds:0x19321332
  40ea03:	xor    ah,BYTE PTR [eax]
  40ea05:	xor    ah,BYTE PTR [edi]
  40ea07:	xor    ch,BYTE PTR [esi]
  40ea09:	xor    dh,BYTE PTR ds:0x43323c32
  40ea0f:	xor    cl,BYTE PTR [edx+0x32]
  40ea12:	push   eax
  40ea13:	xor    bl,BYTE PTR [edx+esi*1+0x67]
  40ea17:	xor    ch,BYTE PTR [edx+esi*1+0x71]
  40ea1b:	xor    dh,BYTE PTR [edi+0x32]
  40ea1e:	xor    DWORD PTR [edx],0x329b328b
  40ea24:	movs   BYTE PTR es:[edi],BYTE PTR ds:[esi]
  40ea25:	xor    dh,BYTE PTR [esi+0x932c232]
  40ea2b:	xor    esp,DWORD PTR [ecx]
  40ea2d:	xor    esp,DWORD PTR [edi]
  40ea2f:	xor    esi,DWORD PTR [esi]
  40ea31:	xor    eax,DWORD PTR [edx+0x33]
  40ea34:	mov    bh,0x33
  40ea36:	in     al,dx
  40ea37:	xor    ebx,DWORD PTR [eax+0x34]
  40ea3a:	pop    ebp
  40ea3b:	xor    al,0x6f
  40ea3d:	xor    al,0x8d
  40ea3f:	xor    al,0xa1
  40ea41:	xor    al,0xa7
  40ea43:	xor    al,0x69
  40ea45:	xor    eax,0x35903584
  40ea4a:	lahf   
  40ea4b:	xor    eax,0x35b135a8
  40ea50:	(bad)  
  40ea51:	xor    eax,0x35e835db
  40ea56:	lock xor eax,0x36223614
  40ea5c:	sub    eax,0xa2364a36
  40ea61:	cmps   DWORD PTR ss:[esi],DWORD PTR es:[edi]
  40ea63:	ss leave 
  40ea65:	ss out 0x36,al
  40ea68:	sub    BYTE PTR [edi],dh
  40ea6a:	bound  edi,QWORD PTR [eax]
  40ea6c:	outs   dx,BYTE PTR ds:[esi]
  40ea6d:	cmp    BYTE PTR [eax+edi*1+0x38ac3890],cl
  40ea74:	mov    al,0x38
  40ea76:	int3   
  40ea77:	cmp    al,dl
  40ea79:	cmp    BYTE PTR [eax],al
  40ea7b:	add    BYTE PTR [eax],al
  40ea7d:	mov    al,0x0
  40ea7f:	add    BYTE PTR [eax+eax*1],cl
  40ea82:	add    BYTE PTR [eax],al
  40ea84:	.byte 0xbc
  40ea85:	xor    DWORD PTR [eax],eax
	...
