
5e7a38f0b3590df5e5476eee02ca0bfe015beedfc1663a85d72d888604fefcc3.exe:     file format pei-i386


Disassembly of section .text:

00401000 <.text>:
  401000:	add    BYTE PTR [eax],al
  401002:	add    BYTE PTR [eax],al
  401004:	inc    eax
  401005:	adc    al,0x40
	...
  40100f:	add    BYTE PTR [eax+0x13],dh
  401012:	inc    eax
  401013:	add    BYTE PTR [eax+0x17],al
  401016:	inc    eax
  401017:	add    BYTE PTR [eax],al
  401019:	add    BYTE PTR [eax],al
  40101b:	add    BYTE PTR [eax+0x13],dh
  40101e:	add    BYTE PTR [eax],al
  401020:	inc    eax
  401021:	adc    al,0x0
  401023:	add    al,al
  401025:	push   ss
  401026:	add    BYTE PTR [eax],al
  401028:	rcl    BYTE PTR [esi],1
  40102a:	add    BYTE PTR [eax],al
  40102c:	lock push ss
  40102e:	add    BYTE PTR [eax],al
  401030:	inc    eax
  401031:	pop    ss
  401032:	add    BYTE PTR [eax],al
  401034:	and    BYTE PTR [eax],bl
  401036:	add    BYTE PTR [eax],al
  401038:	mov    al,0x1a
  40103a:	add    BYTE PTR [eax],al
  40103c:	loopne 0x401058
  40103e:	add    BYTE PTR [eax],al
  401040:	inc    eax
  401041:	and    BYTE PTR [eax+0x0],al
  401044:	nop
  401045:	and    BYTE PTR [eax+0x0],al
  401048:	inc    eax
  401049:	add    BYTE PTR [ebx+0x0],dh
  40104c:	jns    0x40104e
  40104e:	jae    0x401050
  401050:	add    BYTE PTR fs:[ebp+0x0],ch
  401054:	add    BYTE PTR cs:[ebx+0x0],ah
  401058:	jo     0x40105a
  40105a:	ins    BYTE PTR es:[edi],dx
  40105b:	add    BYTE PTR [eax+eax*1],ch
  40105e:	xor    al,BYTE PTR [eax]
  401060:	xor    BYTE PTR [eax],al
  401062:	aaa    
	...
  401073:	add    BYTE PTR [edx+0x3c],cl
  401076:	lahf   
  401077:	push   ebp
  401078:	add    BYTE PTR [eax],al
  40107a:	add    BYTE PTR [eax],al
  40107c:	add    al,BYTE PTR [eax]
  40107e:	add    BYTE PTR [eax],al
  401080:	xor    eax,0x34000000
  401085:	adc    DWORD PTR [eax],eax
  401087:	add    BYTE PTR [eax*1+0x0],dh
  40108e:	add    BYTE PTR [eax],al
  401090:	dec    edx
  401091:	cmp    al,0x9f
  401093:	push   ebp
  401094:	add    BYTE PTR [eax],al
  401096:	add    BYTE PTR [eax],al
  401098:	or     eax,0xc8000000
  40109d:	add    DWORD PTR [eax],eax
  40109f:	add    BYTE PTR [eax-0x7fffffef],al
  4010a5:	add    eax,0x0
	...
  4010c6:	add    BYTE PTR [eax],al
  4010c8:	push   0x0
	...
  401101:	add    BYTE PTR [eax],al
  401103:	add    BYTE PTR [eax+eiz*1],al
  401106:	inc    eax
  401107:	add    BYTE PTR [eax],dh
  401109:	adc    DWORD PTR [eax+0x0],eax
  40110c:	add    DWORD PTR [eax],eax
  40110e:	add    BYTE PTR [eax],al
  401110:	nop
  401111:	xor    BYTE PTR [eax+0x0],al
  401114:	add    BYTE PTR [eax],al
  401116:	add    BYTE PTR [eax],al
  401118:	sbb    al,0x10
  40111a:	inc    eax
  40111b:	add    BYTE PTR [ecx],cl
  40111d:	add    BYTE PTR [eax],al
  40111f:	add    BYTE PTR [eax],al
  401121:	xor    eax,0x0
	...
  40112e:	add    BYTE PTR [eax],al
  401130:	mov    al,0x1a
  401132:	add    BYTE PTR [eax],al
  401134:	push   edx
  401135:	push   ebx
  401136:	inc    esp
  401137:	push   ebx
  401138:	mov    DWORD PTR [edx],esi
  40113a:	ret    0xb34c
  40113d:	sbb    BYTE PTR [edx-0x6126fbe],ch
  401143:	fidivr DWORD PTR [edi-0x48]
  401146:	es jne 0x40114a
  401149:	add    BYTE PTR [eax],al
  40114b:	add    BYTE PTR [ebx+0x79],dl
  40114e:	jae    0x4011c4
  401150:	gs ins DWORD PTR es:[edi],dx
  401152:	push   eax
  401153:	jb     0x4011c4
  401155:	jo     0x4011bc
  401157:	jb     0x4011cd
  401159:	imul   esp,DWORD PTR [ebp+0x73],0x61766441
  401160:	outs   dx,BYTE PTR ds:[esi]
  401161:	arpl   WORD PTR [ebp+0x64],sp
  401164:	cs jo  0x4011cb
  401167:	bound  eax,QWORD PTR [eax]
	...
  40117d:	add    BYTE PTR [eax],al
  40117f:	add    BYTE PTR [edi+0x43],al
  401182:	push   esp
  401183:	dec    esp
  401184:	add    BYTE PTR [eax],dl
  401186:	add    BYTE PTR [eax],al
  401188:	add    al,0x0
  40118a:	add    BYTE PTR [eax],al
  40118c:	cs inc ebx
  40118e:	push   edx
  40118f:	push   esp
  401190:	and    al,0x58
  401192:	inc    ebx
  401193:	inc    ecx
  401194:	add    BYTE PTR [eax],al
  401196:	add    BYTE PTR [eax],al
  401198:	add    al,0x10
  40119a:	add    BYTE PTR [eax],al
  40119c:	add    al,0x0
  40119e:	add    BYTE PTR [eax],al
  4011a0:	cs inc ebx
  4011a2:	push   edx
  4011a3:	push   esp
  4011a4:	and    al,0x58
  4011a6:	inc    ebx
  4011a7:	inc    ecx
  4011a8:	inc    ecx
  4011a9:	add    BYTE PTR [eax],al
  4011ab:	add    BYTE PTR [eax],cl
  4011ad:	adc    BYTE PTR [eax],al
  4011af:	add    BYTE PTR [eax+eax*1],al
  4011b2:	add    BYTE PTR [eax],al
  4011b4:	cs inc ebx
  4011b6:	push   edx
  4011b7:	push   esp
  4011b8:	and    al,0x58
  4011ba:	inc    ebx
  4011bb:	pop    edx
  4011bc:	add    BYTE PTR [eax],al
  4011be:	add    BYTE PTR [eax],al
  4011c0:	or     al,0x10
  4011c2:	add    BYTE PTR [eax],al
  4011c4:	add    al,0x0
  4011c6:	add    BYTE PTR [eax],al
  4011c8:	cs inc ebx
  4011ca:	push   edx
  4011cb:	push   esp
  4011cc:	and    al,0x58
  4011ce:	dec    ecx
  4011cf:	inc    ecx
  4011d0:	add    BYTE PTR [eax],al
  4011d2:	add    BYTE PTR [eax],al
  4011d4:	adc    BYTE PTR [eax],dl
  4011d6:	add    BYTE PTR [eax],al
  4011d8:	add    al,0x0
  4011da:	add    BYTE PTR [eax],al
  4011dc:	cs inc ebx
  4011de:	push   edx
  4011df:	push   esp
  4011e0:	and    al,0x58
  4011e2:	dec    ecx
  4011e3:	inc    ecx
  4011e4:	inc    ecx
  4011e5:	add    BYTE PTR [eax],al
  4011e7:	add    BYTE PTR [eax+edx*1],dl
  4011ea:	add    BYTE PTR [eax],al
  4011ec:	add    al,0x0
  4011ee:	add    BYTE PTR [eax],al
  4011f0:	cs inc ebx
  4011f2:	push   edx
  4011f3:	push   esp
  4011f4:	and    al,0x58
  4011f6:	dec    ecx
  4011f7:	pop    ecx
  4011f8:	add    BYTE PTR [eax],al
  4011fa:	add    BYTE PTR [eax],al
  4011fc:	sbb    BYTE PTR [eax],dl
  4011fe:	add    BYTE PTR [eax],al
  401200:	add    al,0x0
  401202:	add    BYTE PTR [eax],al
  401204:	cs inc ebx
  401206:	push   edx
  401207:	push   esp
  401208:	and    al,0x58
  40120a:	dec    ecx
  40120b:	pop    edx
  40120c:	add    BYTE PTR [eax],al
  40120e:	add    BYTE PTR [eax],al
  401210:	sbb    al,0x10
  401212:	add    BYTE PTR [eax],al
  401214:	and    al,0x0
  401216:	add    BYTE PTR [eax],al
  401218:	imul   sp,WORD PTR cs:[si+0x73],0x7824
  401220:	add    BYTE PTR [eax],al
  401222:	add    BYTE PTR [eax],al
  401224:	inc    eax
  401225:	adc    BYTE PTR [eax],al
  401227:	add    al,dh
  401229:	add    BYTE PTR [eax],al
  40122b:	add    BYTE PTR [esi],ch
  40122d:	jb     0x401293
  40122f:	popa   
  401230:	je     0x401293
  401232:	add    BYTE PTR [eax],al
  401234:	xor    BYTE PTR [ecx],dl
  401236:	add    BYTE PTR [eax],al
  401238:	add    al,0x0
  40123a:	add    BYTE PTR [eax],al
  40123c:	cs jb  0x4012a3
  40123f:	popa   
  401240:	je     0x4012a3
  401242:	and    al,0x73
  401244:	js     0x4012aa
  401246:	popa   
  401247:	je     0x4012aa
  401249:	add    BYTE PTR [eax],al
  40124b:	add    BYTE PTR [ecx+edx*1],dh
  40124e:	add    BYTE PTR [eax],al
  401250:	adc    al,0x2
  401252:	add    BYTE PTR [eax],al
  401254:	cs jb  0x4012bb
  401257:	popa   
  401258:	je     0x4012bb
  40125a:	and    al,0x7a
  40125c:	jp     0x4012d8
  40125e:	bound  esp,QWORD PTR fs:[edi+0x0]
  401262:	add    BYTE PTR [eax],al
  401264:	push   eax
  401265:	adc    eax,DWORD PTR [eax]
  401267:	add    BYTE PTR [eax+0x9],al
  40126a:	add    BYTE PTR [eax],al
  40126c:	cs je  0x4012d4
  40126f:	js     0x4012e5
  401271:	and    al,0x6d
  401273:	outs   dx,BYTE PTR ds:[esi]
  401274:	add    BYTE PTR [eax],al
  401276:	add    BYTE PTR [eax],al
  401278:	nop
  401279:	sbb    al,0x0
  40127b:	add    BYTE PTR [eax+eax*1+0x0],ah
  40127f:	add    BYTE PTR [esi],ch
  401281:	js     0x4012e7
  401283:	popa   
  401284:	je     0x4012e7
  401286:	and    al,0x78
  401288:	add    BYTE PTR [eax],al
  40128a:	add    BYTE PTR [eax],al
  40128c:	add    BYTE PTR [eax],ah
  40128e:	add    BYTE PTR [eax],al
  401290:	or     al,0x0
  401292:	add    BYTE PTR [eax],al
  401294:	cs fs popa 
  401297:	je     0x4012fa
  401299:	add    BYTE PTR [eax],al
  40129b:	add    BYTE PTR [eax],dl
  40129d:	and    BYTE PTR [eax],al
  40129f:	add    BYTE PTR [eax+0x3],ah
  4012a2:	add    BYTE PTR [eax],al
  4012a4:	bound  esi,QWORD PTR cs:[ebx+0x73]
  4012a8:	add    BYTE PTR [eax],al
  4012aa:	add    BYTE PTR [eax],al
  4012ac:	add    BYTE PTR [eax],dh
  4012ae:	add    BYTE PTR [eax],al
  4012b0:	nop
  4012b1:	add    BYTE PTR [eax],al
  4012b3:	add    BYTE PTR [esi],ch
  4012b5:	imul   esp,DWORD PTR [ecx+eiz*2+0x74],0x352461
  4012bd:	add    BYTE PTR [eax],al
  4012bf:	add    BYTE PTR [eax+0x4000030],dl
  4012c5:	add    BYTE PTR [eax],al
  4012c7:	add    BYTE PTR [esi],ch
  4012c9:	xor    BYTE PTR [eax],dh
  4012cb:	arpl   WORD PTR [esi+0x67],sp
  4012ce:	add    BYTE PTR [eax],al
  4012d0:	xchg   esp,eax
  4012d1:	xor    BYTE PTR [eax],al
  4012d3:	add    BYTE PTR [eax+0x2e000000],ah
  4012d9:	imul   esp,DWORD PTR [ecx+eiz*2+0x74],0x322461
  4012e1:	add    BYTE PTR [eax],al
  4012e3:	add    BYTE PTR [ecx+esi*1],dh
  4012e6:	add    BYTE PTR [eax],al
  4012e8:	adc    al,0x0
  4012ea:	add    BYTE PTR [eax],al
  4012ec:	imul   esp,DWORD PTR cs:[ecx+eiz*2+0x74],0x332461
  4012f5:	add    BYTE PTR [eax],al
  4012f7:	add    BYTE PTR [eax+0x31],cl
  4012fa:	add    BYTE PTR [eax],al
  4012fc:	nop
  4012fd:	add    BYTE PTR [eax],al
  4012ff:	add    BYTE PTR [esi],ch
  401301:	imul   esp,DWORD PTR [ecx+eiz*2+0x74],0x342461
  401309:	add    BYTE PTR [eax],al
  40130b:	add    al,bl
  40130d:	xor    DWORD PTR [eax],eax
  40130f:	add    dh,ch
  401311:	add    al,BYTE PTR [eax]
  401313:	add    BYTE PTR [esi],ch
  401315:	imul   esp,DWORD PTR [ecx+eiz*2+0x74],0x362461
  40131d:	add    BYTE PTR [eax],al
  40131f:	add    BYTE PTR [eax],al
  401321:	inc    eax
  401322:	add    BYTE PTR [eax],al
  401324:	xor    BYTE PTR [ebx],al
  401326:	add    BYTE PTR [eax],al
  401328:	cs jb  0x40139e
  40132b:	jb     0x401390
  40132d:	and    al,0x30
  40132f:	xor    DWORD PTR [eax],eax
  401331:	add    BYTE PTR [eax],al
  401333:	add    BYTE PTR [eax],dh
  401335:	inc    ebx
  401336:	add    BYTE PTR [eax],al
  401338:	lock and eax,DWORD PTR [ecx]
  40133b:	add    BYTE PTR [esi],ch
  40133d:	jb     0x4013b2
  40133f:	jb     0x4013a4
  401341:	and    al,0x30
  401343:	xor    al,BYTE PTR [eax]
	...
  401355:	push   0x401048
  40135a:	call   DWORD PTR ds:0x403000
  401360:	xor    eax,eax
  401362:	ret    0x10
  401365:	int3   
  401366:	int3   
  401367:	int3   
  401368:	int3   
  401369:	int3   
  40136a:	int3   
  40136b:	int3   
  40136c:	int3   
  40136d:	int3   
  40136e:	int3   
  40136f:	int3   
  401370:	mov    eax,0x5a4d
  401375:	cmp    WORD PTR ds:0x400000,ax
  40137c:	je     0x401382
  40137e:	xor    eax,eax
  401380:	jmp    0x4013d0
  401382:	mov    ecx,DWORD PTR ds:0x40003c
  401388:	cmp    DWORD PTR [ecx+0x400000],0x4550
  401392:	jne    0x40137e
  401394:	movzx  eax,WORD PTR [ecx+0x400018]
  40139b:	cmp    eax,0x10b
  4013a0:	je     0x4013bc
  4013a2:	cmp    eax,0x20b
  4013a7:	jne    0x40137e
  4013a9:	xor    eax,eax
  4013ab:	cmp    DWORD PTR [ecx+0x400084],0xe
  4013b2:	jbe    0x4013d0
  4013b4:	cmp    DWORD PTR [ecx+0x4000f8],eax
  4013ba:	jmp    0x4013cd
  4013bc:	xor    eax,eax
  4013be:	cmp    DWORD PTR [ecx+0x400074],0xe
  4013c5:	jbe    0x4013d0
  4013c7:	cmp    DWORD PTR [ecx+0x4000e8],eax
  4013cd:	setne  al
  4013d0:	push   0x2
  4013d2:	mov    ds:0x402028,eax
  4013d7:	call   0x4017ce
  4013dc:	push   eax
  4013dd:	call   DWORD PTR ds:0x403078
  4013e3:	or     DWORD PTR ds:0x40235c,0xffffffff
  4013ea:	or     DWORD PTR ds:0x402360,0xffffffff
  4013f1:	pop    ecx
  4013f2:	pop    ecx
  4013f3:	call   DWORD PTR ds:0x403068
  4013f9:	mov    ecx,DWORD PTR ds:0x40203c
  4013ff:	mov    DWORD PTR [eax],ecx
  401401:	call   DWORD PTR ds:0x403084
  401407:	mov    ecx,DWORD PTR ds:0x402030
  40140d:	mov    DWORD PTR [eax],ecx
  40140f:	call   0x401820
  401414:	cmp    DWORD PTR ds:0x402000,0x0
  40141b:	jne    0x401429
  40141d:	push   0x401820
  401422:	call   DWORD PTR ds:0x403064
  401428:	pop    ecx
  401429:	call   0x401a2f
  40142e:	xor    eax,eax
  401430:	ret    
  401431:	int3   
  401432:	int3   
  401433:	int3   
  401434:	int3   
  401435:	int3   
  401436:	int3   
  401437:	int3   
  401438:	int3   
  401439:	int3   
  40143a:	int3   
  40143b:	int3   
  40143c:	int3   
  40143d:	int3   
  40143e:	int3   
  40143f:	int3   
  401440:	mov    eax,ds:0x402038
  401445:	push   0x40202c
  40144a:	push   DWORD PTR ds:0x402034
  401450:	mov    ds:0x40202c,eax
  401455:	push   0x402020
  40145a:	push   0x40201c
  40145f:	push   0x402018
  401464:	call   DWORD PTR ds:0x40307c
  40146a:	add    esp,0x14
  40146d:	mov    ds:0x402024,eax
  401472:	ret    
  401473:	int3   
  401474:	int3   
  401475:	int3   
  401476:	int3   
  401477:	int3   
  401478:	push   0x5c
  40147a:	push   0x401c90
  40147f:	call   0x401a54
  401484:	and    DWORD PTR [ebp-0x24],0x0
  401488:	and    DWORD PTR [ebp-0x4],0x0
  40148c:	lea    eax,[ebp-0x6c]
  40148f:	push   eax
  401490:	call   DWORD PTR ds:0x40301c
  401496:	mov    DWORD PTR [ebp-0x4],0xfffffffe
  40149d:	xor    ebx,ebx
  40149f:	inc    ebx
  4014a0:	mov    DWORD PTR [ebp-0x4],ebx
  4014a3:	mov    eax,fs:0x18
  4014a9:	mov    edi,DWORD PTR [eax+0x4]
  4014ac:	xor    esi,esi
  4014ae:	mov    edx,0x402364
  4014b3:	mov    ecx,edi
  4014b5:	xor    eax,eax
  4014b7:	lock cmpxchg DWORD PTR [edx],ecx
  4014bb:	test   eax,eax
  4014bd:	je     0x4014c5
  4014bf:	cmp    eax,edi
  4014c1:	jne    0x4014d7
  4014c3:	mov    esi,ebx
  4014c5:	cmp    DWORD PTR ds:0x402368,ebx
  4014cb:	jne    0x4014e4
  4014cd:	push   0x1f
  4014cf:	call   0x40180a
  4014d4:	pop    ecx
  4014d5:	jmp    0x401513
  4014d7:	push   0x3e8
  4014dc:	call   DWORD PTR ds:0x40303c
  4014e2:	jmp    0x4014ae
  4014e4:	cmp    DWORD PTR ds:0x402368,0x0
  4014eb:	jne    0x40150d
  4014ed:	mov    DWORD PTR ds:0x402368,ebx
  4014f3:	push   0x401018
  4014f8:	push   0x40100c
  4014fd:	call   0x401664
  401502:	pop    ecx
  401503:	pop    ecx
  401504:	test   eax,eax
  401506:	je     0x401513
  401508:	jmp    0x40164d
  40150d:	mov    DWORD PTR ds:0x402014,ebx
  401513:	cmp    DWORD PTR ds:0x402368,ebx
  401519:	jne    0x401536
  40151b:	push   0x401008
  401520:	push   0x401000
  401525:	call   0x401a48
  40152a:	pop    ecx
  40152b:	pop    ecx
  40152c:	mov    DWORD PTR ds:0x402368,0x2
  401536:	test   esi,esi
  401538:	jne    0x401543
  40153a:	xor    eax,eax
  40153c:	mov    ecx,0x402364
  401541:	xchg   DWORD PTR [ecx],eax
  401543:	cmp    DWORD PTR ds:0x40236c,0x0
  40154a:	je     0x401571
  40154c:	push   0x40236c
  401551:	call   0x401880
  401556:	pop    ecx
  401557:	test   eax,eax
  401559:	je     0x401571
  40155b:	push   0x0
  40155d:	push   0x2
  40155f:	push   0x0
  401561:	mov    esi,DWORD PTR ds:0x40236c
  401567:	mov    ecx,esi
  401569:	call   DWORD PTR ds:0x403090
  40156f:	call   esi
  401571:	mov    eax,ds:0x40305c
  401576:	mov    ecx,DWORD PTR [eax]
  401578:	test   ecx,ecx
  40157a:	je     0x40164d
  401580:	mov    DWORD PTR [ebp-0x20],ecx
  401583:	push   0x20
  401585:	pop    esi
  401586:	mov    edx,DWORD PTR [ebp-0x24]
  401589:	movzx  eax,WORD PTR [ecx]
  40158c:	cmp    ax,si
  40158f:	ja     0x4015e1
  401591:	test   ax,ax
  401594:	je     0x40159a
  401596:	test   edx,edx
  401598:	jne    0x4015e1
  40159a:	movzx  eax,WORD PTR [ecx]
  40159d:	test   ax,ax
  4015a0:	je     0x4015af
  4015a2:	cmp    ax,si
  4015a5:	ja     0x4015af
  4015a7:	add    ecx,0x2
  4015aa:	mov    DWORD PTR [ebp-0x20],ecx
  4015ad:	jmp    0x40159a
  4015af:	test   BYTE PTR [ebp-0x40],0x1
  4015b3:	je     0x4015bb
  4015b5:	movzx  eax,WORD PTR [ebp-0x3c]
  4015b9:	jmp    0x4015be
  4015bb:	push   0xa
  4015bd:	pop    eax
  4015be:	push   eax
  4015bf:	push   ecx
  4015c0:	push   0x0
  4015c2:	push   0x400000
  4015c7:	call   0x401355
  4015cc:	mov    ds:0x402010,eax
  4015d1:	cmp    DWORD PTR ds:0x402028,0x0
  4015d8:	jne    0x401629
  4015da:	push   eax
  4015db:	call   DWORD PTR ds:0x403074
  4015e1:	cmp    eax,0x22
  4015e4:	jne    0x4015f2
  4015e6:	xor    eax,eax
  4015e8:	test   edx,edx
  4015ea:	sete   al
  4015ed:	mov    edx,eax
  4015ef:	mov    DWORD PTR [ebp-0x24],edx
  4015f2:	add    ecx,0x2
  4015f5:	mov    DWORD PTR [ebp-0x20],ecx
  4015f8:	jmp    0x401589
  4015fa:	mov    ecx,DWORD PTR [ebp-0x14]
  4015fd:	mov    eax,DWORD PTR [ecx]
  4015ff:	mov    eax,DWORD PTR [eax]
  401601:	mov    DWORD PTR [ebp-0x28],eax
  401604:	push   ecx
  401605:	push   eax
  401606:	call   0x401754
  40160b:	pop    ecx
  40160c:	pop    ecx
  40160d:	ret    
  40160e:	mov    esp,DWORD PTR [ebp-0x18]
  401611:	mov    eax,DWORD PTR [ebp-0x28]
  401614:	mov    ds:0x402010,eax
  401619:	cmp    DWORD PTR ds:0x402028,0x0
  401620:	jne    0x401629
  401622:	push   eax
  401623:	call   DWORD PTR ds:0x403070
  401629:	cmp    DWORD PTR ds:0x402014,0x0
  401630:	jne    0x40163d
  401632:	call   DWORD PTR ds:0x40306c
  401638:	mov    eax,ds:0x402010
  40163d:	mov    DWORD PTR [ebp-0x4],0xfffffffe
  401644:	jmp    0x401659
  401646:	xor    eax,eax
  401648:	inc    eax
  401649:	ret    
  40164a:	mov    esp,DWORD PTR [ebp-0x18]
  40164d:	mov    DWORD PTR [ebp-0x4],0xfffffffe
  401654:	mov    eax,0xff
  401659:	call   0x401a9c
  40165e:	ret    
  40165f:	int3   
  401660:	int3   
  401661:	int3   
  401662:	int3   
  401663:	int3   
  401664:	mov    edi,edi
  401666:	push   ebp
  401667:	mov    ebp,esp
  401669:	push   ecx
  40166a:	mov    eax,ds:0x402004
  40166f:	xor    eax,ebp
  401671:	mov    DWORD PTR [ebp-0x4],eax
  401674:	push   esi
  401675:	mov    esi,DWORD PTR [ebp+0x8]
  401678:	xor    eax,eax
  40167a:	cmp    esi,DWORD PTR [ebp+0xc]
  40167d:	jae    0x40169d
  40167f:	push   edi
  401680:	test   eax,eax
  401682:	jne    0x40169c
  401684:	mov    edi,DWORD PTR [esi]
  401686:	test   edi,edi
  401688:	je     0x401694
  40168a:	mov    ecx,edi
  40168c:	call   DWORD PTR ds:0x403090
  401692:	call   edi
  401694:	add    esi,0x4
  401697:	cmp    esi,DWORD PTR [ebp+0xc]
  40169a:	jb     0x401680
  40169c:	pop    edi
  40169d:	mov    ecx,DWORD PTR [ebp-0x4]
  4016a0:	xor    ecx,ebp
  4016a2:	pop    esi
  4016a3:	call   0x4016d0
  4016a8:	mov    esp,ebp
  4016aa:	pop    ebp
  4016ab:	ret    
  4016ac:	int3   
  4016ad:	int3   
  4016ae:	int3   
  4016af:	int3   
  4016b0:	int3   
  4016b1:	int3   
  4016b2:	int3   
  4016b3:	int3   
  4016b4:	int3   
  4016b5:	int3   
  4016b6:	int3   
  4016b7:	int3   
  4016b8:	int3   
  4016b9:	int3   
  4016ba:	int3   
  4016bb:	int3   
  4016bc:	int3   
  4016bd:	int3   
  4016be:	int3   
  4016bf:	int3   
  4016c0:	call   0x401988
  4016c5:	jmp    0x401478
  4016ca:	int3   
  4016cb:	int3   
  4016cc:	int3   
  4016cd:	int3   
  4016ce:	int3   
  4016cf:	int3   
  4016d0:	cmp    ecx,DWORD PTR ds:0x402004
  4016d6:	jne    0x4016db
  4016d8:	ret    0x0
  4016db:	jmp    0x401b15
  4016e0:	int3   
  4016e1:	int3   
  4016e2:	int3   
  4016e3:	int3   
  4016e4:	int3   
  4016e5:	int3   
  4016e6:	int3   
  4016e7:	int3   
  4016e8:	int3   
  4016e9:	int3   
  4016ea:	int3   
  4016eb:	int3   
  4016ec:	int3   
  4016ed:	int3   
  4016ee:	int3   
  4016ef:	int3   
  4016f0:	mov    edi,edi
  4016f2:	push   ebp
  4016f3:	mov    ebp,esp
  4016f5:	mov    eax,DWORD PTR [ebp+0x8]
  4016f8:	mov    eax,DWORD PTR [eax]
  4016fa:	cmp    DWORD PTR [eax],0xe06d7363
  401700:	jne    0x40172d
  401702:	cmp    DWORD PTR [eax+0x10],0x3
  401706:	jne    0x40172d
  401708:	mov    eax,DWORD PTR [eax+0x14]
  40170b:	cmp    eax,0x19930520
  401710:	je     0x401727
  401712:	cmp    eax,0x19930521
  401717:	je     0x401727
  401719:	cmp    eax,0x19930522
  40171e:	je     0x401727
  401720:	cmp    eax,0x1994000
  401725:	jne    0x40172d
  401727:	call   DWORD PTR ds:0x403058
  40172d:	xor    eax,eax
  40172f:	pop    ebp
  401730:	ret    0x4
  401733:	int3   
  401734:	int3   
  401735:	int3   
  401736:	int3   
  401737:	int3   
  401738:	int3   
  401739:	int3   
  40173a:	int3   
  40173b:	int3   
  40173c:	int3   
  40173d:	int3   
  40173e:	int3   
  40173f:	int3   
  401740:	push   0x4016f0
  401745:	call   DWORD PTR ds:0x40300c
  40174b:	xor    eax,eax
  40174d:	ret    
  40174e:	int3   
  40174f:	int3   
  401750:	int3   
  401751:	int3   
  401752:	int3   
  401753:	int3   
  401754:	jmp    DWORD PTR ds:0x403088
  40175a:	int3   
  40175b:	int3   
  40175c:	int3   
  40175d:	int3   
  40175e:	int3   
  40175f:	push   0xc
  401761:	push   0x401cb8
  401766:	call   0x401c2c
  40176b:	xor    ecx,ecx
  40176d:	mov    eax,DWORD PTR [ebp+0x8]
  401770:	test   eax,eax
  401772:	je     0x4017bf
  401774:	cmp    eax,0xffffffff
  401777:	je     0x4017bf
  401779:	mov    DWORD PTR [ebp-0x4],ecx
  40177c:	mov    edx,0x5a4d
  401781:	cmp    WORD PTR [eax],dx
  401784:	jne    0x4017b8
  401786:	mov    edx,DWORD PTR [eax+0x3c]
  401789:	test   edx,edx
  40178b:	js     0x4017b8
  40178d:	cmp    edx,0x10000000
  401793:	jae    0x4017b8
  401795:	add    eax,edx
  401797:	mov    DWORD PTR [ebp-0x1c],eax
  40179a:	mov    ecx,DWORD PTR [eax]
  40179c:	sub    ecx,0x4550
  4017a2:	neg    ecx
  4017a4:	sbb    ecx,ecx
  4017a6:	not    ecx
  4017a8:	and    ecx,eax
  4017aa:	jmp    0x4017b5
  4017ac:	xor    eax,eax
  4017ae:	inc    eax
  4017af:	ret    
  4017b0:	mov    esp,DWORD PTR [ebp-0x18]
  4017b3:	xor    ecx,ecx
  4017b5:	mov    DWORD PTR [ebp-0x1c],ecx
  4017b8:	mov    DWORD PTR [ebp-0x4],0xfffffffe
  4017bf:	mov    eax,ecx
  4017c1:	call   0x401c71
  4017c6:	ret    0x4
  4017c9:	int3   
  4017ca:	int3   
  4017cb:	int3   
  4017cc:	int3   
  4017cd:	int3   
  4017ce:	mov    edi,edi
  4017d0:	push   ebp
  4017d1:	mov    ebp,esp
  4017d3:	push   0x0
  4017d5:	call   DWORD PTR ds:0x403014
  4017db:	test   eax,eax
  4017dd:	je     0x4017ff
  4017df:	push   eax
  4017e0:	call   0x40175f
  4017e5:	test   eax,eax
  4017e7:	je     0x4017ff
  4017e9:	movzx  ecx,WORD PTR [eax+0x5c]
  4017ed:	push   0x2
  4017ef:	pop    eax
  4017f0:	cmp    cx,ax
  4017f3:	je     0x401802
  4017f5:	cmp    ecx,0x3
  4017f8:	jne    0x4017ff
  4017fa:	xor    eax,eax
  4017fc:	inc    eax
  4017fd:	pop    ebp
  4017fe:	ret    
  4017ff:	mov    eax,DWORD PTR [ebp+0x8]
  401802:	pop    ebp
  401803:	ret    
  401804:	int3   
  401805:	int3   
  401806:	int3   
  401807:	int3   
  401808:	int3   
  401809:	int3   
  40180a:	jmp    DWORD PTR ds:0x403080
  401810:	int3   
  401811:	int3   
  401812:	int3   
  401813:	int3   
  401814:	int3   
  401815:	int3   
  401816:	int3   
  401817:	int3   
  401818:	int3   
  401819:	int3   
  40181a:	int3   
  40181b:	int3   
  40181c:	int3   
  40181d:	int3   
  40181e:	int3   
  40181f:	int3   
  401820:	xor    eax,eax
  401822:	ret    
  401823:	int3   
  401824:	int3   
  401825:	int3   
  401826:	int3   
  401827:	int3   
  401828:	int3   
  401829:	int3   
  40182a:	int3   
  40182b:	int3   
  40182c:	int3   
  40182d:	int3   
  40182e:	int3   
  40182f:	int3   
  401830:	mov    edi,edi
  401832:	push   ebp
  401833:	mov    ebp,esp
  401835:	mov    eax,DWORD PTR [ebp+0x8]
  401838:	xor    edx,edx
  40183a:	push   ebx
  40183b:	push   esi
  40183c:	push   edi
  40183d:	mov    ecx,DWORD PTR [eax+0x3c]
  401840:	add    ecx,eax
  401842:	movzx  eax,WORD PTR [ecx+0x14]
  401846:	movzx  ebx,WORD PTR [ecx+0x6]
  40184a:	add    eax,0x18
  40184d:	add    eax,ecx
  40184f:	test   ebx,ebx
  401851:	je     0x40186e
  401853:	mov    edi,DWORD PTR [ebp+0xc]
  401856:	mov    esi,DWORD PTR [eax+0xc]
  401859:	cmp    edi,esi
  40185b:	jb     0x401866
  40185d:	mov    ecx,DWORD PTR [eax+0x8]
  401860:	add    ecx,esi
  401862:	cmp    edi,ecx
  401864:	jb     0x401870
  401866:	inc    edx
  401867:	add    eax,0x28
  40186a:	cmp    edx,ebx
  40186c:	jb     0x401856
  40186e:	xor    eax,eax
  401870:	pop    edi
  401871:	pop    esi
  401872:	pop    ebx
  401873:	pop    ebp
  401874:	ret    
  401875:	int3   
  401876:	int3   
  401877:	int3   
  401878:	int3   
  401879:	int3   
  40187a:	int3   
  40187b:	int3   
  40187c:	int3   
  40187d:	int3   
  40187e:	int3   
  40187f:	int3   
  401880:	mov    edi,edi
  401882:	push   ebp
  401883:	mov    ebp,esp
  401885:	push   0xfffffffe
  401887:	push   0x401cd8
  40188c:	push   0x401ab0
  401891:	mov    eax,fs:0x0
  401897:	push   eax
  401898:	sub    esp,0x8
  40189b:	push   ebx
  40189c:	push   esi
  40189d:	push   edi
  40189e:	mov    eax,ds:0x402004
  4018a3:	xor    DWORD PTR [ebp-0x8],eax
  4018a6:	xor    eax,ebp
  4018a8:	push   eax
  4018a9:	lea    eax,[ebp-0x10]
  4018ac:	mov    fs:0x0,eax
  4018b2:	mov    DWORD PTR [ebp-0x18],esp
  4018b5:	mov    DWORD PTR [ebp-0x4],0x0
  4018bc:	push   0x400000
  4018c1:	call   0x401950
  4018c6:	add    esp,0x4
  4018c9:	test   eax,eax
  4018cb:	je     0x401921
  4018cd:	mov    eax,DWORD PTR [ebp+0x8]
  4018d0:	sub    eax,0x400000
  4018d5:	push   eax
  4018d6:	push   0x400000
  4018db:	call   0x401830
  4018e0:	add    esp,0x8
  4018e3:	test   eax,eax
  4018e5:	je     0x401921
  4018e7:	mov    eax,DWORD PTR [eax+0x24]
  4018ea:	shr    eax,0x1f
  4018ed:	not    eax
  4018ef:	and    eax,0x1
  4018f2:	mov    DWORD PTR [ebp-0x4],0xfffffffe
  4018f9:	mov    ecx,DWORD PTR [ebp-0x10]
  4018fc:	mov    DWORD PTR fs:0x0,ecx
  401903:	pop    ecx
  401904:	pop    edi
  401905:	pop    esi
  401906:	pop    ebx
  401907:	mov    esp,ebp
  401909:	pop    ebp
  40190a:	ret    
  40190b:	mov    eax,DWORD PTR [ebp-0x14]
  40190e:	mov    eax,DWORD PTR [eax]
  401910:	xor    ecx,ecx
  401912:	cmp    DWORD PTR [eax],0xc0000005
  401918:	sete   cl
  40191b:	mov    eax,ecx
  40191d:	ret    
  40191e:	mov    esp,DWORD PTR [ebp-0x18]
  401921:	mov    DWORD PTR [ebp-0x4],0xfffffffe
  401928:	xor    eax,eax
  40192a:	mov    ecx,DWORD PTR [ebp-0x10]
  40192d:	mov    DWORD PTR fs:0x0,ecx
  401934:	pop    ecx
  401935:	pop    edi
  401936:	pop    esi
  401937:	pop    ebx
  401938:	mov    esp,ebp
  40193a:	pop    ebp
  40193b:	ret    
  40193c:	int3   
  40193d:	int3   
  40193e:	int3   
  40193f:	int3   
  401940:	int3   
  401941:	int3   
  401942:	int3   
  401943:	int3   
  401944:	int3   
  401945:	int3   
  401946:	int3   
  401947:	int3   
  401948:	int3   
  401949:	int3   
  40194a:	int3   
  40194b:	int3   
  40194c:	int3   
  40194d:	int3   
  40194e:	int3   
  40194f:	int3   
  401950:	mov    edi,edi
  401952:	push   ebp
  401953:	mov    ebp,esp
  401955:	mov    eax,DWORD PTR [ebp+0x8]
  401958:	mov    ecx,0x5a4d
  40195d:	cmp    WORD PTR [eax],cx
  401960:	je     0x401966
  401962:	xor    eax,eax
  401964:	pop    ebp
  401965:	ret    
  401966:	mov    ecx,DWORD PTR [eax+0x3c]
  401969:	add    ecx,eax
  40196b:	xor    eax,eax
  40196d:	cmp    DWORD PTR [ecx],0x4550
  401973:	jne    0x401981
  401975:	mov    edx,0x10b
  40197a:	cmp    WORD PTR [ecx+0x18],dx
  40197e:	sete   al
  401981:	pop    ebp
  401982:	ret    
  401983:	int3   
  401984:	int3   
  401985:	int3   
  401986:	int3   
  401987:	int3   
  401988:	mov    edi,edi
  40198a:	push   ebp
  40198b:	mov    ebp,esp
  40198d:	sub    esp,0x14
  401990:	and    DWORD PTR [ebp-0xc],0x0
  401994:	and    DWORD PTR [ebp-0x8],0x0
  401998:	mov    eax,ds:0x402004
  40199d:	push   esi
  40199e:	push   edi
  40199f:	mov    edi,0xbb40e64e
  4019a4:	mov    esi,0xffff0000
  4019a9:	cmp    eax,edi
  4019ab:	je     0x4019ba
  4019ad:	test   esi,eax
  4019af:	je     0x4019ba
  4019b1:	not    eax
  4019b3:	mov    ds:0x402008,eax
  4019b8:	jmp    0x401a24
  4019ba:	lea    eax,[ebp-0xc]
  4019bd:	push   eax
  4019be:	call   DWORD PTR ds:0x403044
  4019c4:	mov    eax,DWORD PTR [ebp-0x8]
  4019c7:	xor    eax,DWORD PTR [ebp-0xc]
  4019ca:	mov    DWORD PTR [ebp-0x4],eax
  4019cd:	call   DWORD PTR ds:0x40302c
  4019d3:	xor    DWORD PTR [ebp-0x4],eax
  4019d6:	call   DWORD PTR ds:0x403028
  4019dc:	xor    DWORD PTR [ebp-0x4],eax
  4019df:	call   DWORD PTR ds:0x403048
  4019e5:	xor    eax,DWORD PTR [ebp-0x4]
  4019e8:	lea    ecx,[ebp-0x4]
  4019eb:	xor    eax,ecx
  4019ed:	mov    DWORD PTR [ebp-0x4],eax
  4019f0:	lea    eax,[ebp-0x14]
  4019f3:	push   eax
  4019f4:	call   DWORD PTR ds:0x403034
  4019fa:	mov    eax,DWORD PTR [ebp-0x10]
  4019fd:	xor    eax,DWORD PTR [ebp-0x14]
  401a00:	mov    ecx,DWORD PTR [ebp-0x4]
  401a03:	xor    ecx,eax
  401a05:	cmp    ecx,edi
  401a07:	je     0x401a11
  401a09:	test   DWORD PTR ds:0x402004,esi
  401a0f:	jne    0x401a16
  401a11:	mov    ecx,0xbb40e64f
  401a16:	mov    DWORD PTR ds:0x402004,ecx
  401a1c:	not    ecx
  401a1e:	mov    DWORD PTR ds:0x402008,ecx
  401a24:	pop    edi
  401a25:	pop    esi
  401a26:	mov    esp,ebp
  401a28:	pop    ebp
  401a29:	ret    
  401a2a:	int3   
  401a2b:	int3   
  401a2c:	int3   
  401a2d:	int3   
  401a2e:	int3   
  401a2f:	push   0x30000
  401a34:	push   0x10000
  401a39:	call   DWORD PTR ds:0x403054
  401a3f:	pop    ecx
  401a40:	pop    ecx
  401a41:	ret    
  401a42:	int3   
  401a43:	int3   
  401a44:	int3   
  401a45:	int3   
  401a46:	int3   
  401a47:	int3   
  401a48:	jmp    DWORD PTR ds:0x403060
  401a4e:	int3   
  401a4f:	int3   
  401a50:	int3   
  401a51:	int3   
  401a52:	int3   
  401a53:	int3   
  401a54:	push   0x401ab0
  401a59:	push   DWORD PTR fs:0x0
  401a60:	mov    eax,DWORD PTR [esp+0x10]
  401a64:	mov    DWORD PTR [esp+0x10],ebp
  401a68:	lea    ebp,[esp+0x10]
  401a6c:	sub    esp,eax
  401a6e:	push   ebx
  401a6f:	push   esi
  401a70:	push   edi
  401a71:	mov    eax,ds:0x402004
  401a76:	xor    DWORD PTR [ebp-0x4],eax
  401a79:	xor    eax,ebp
  401a7b:	mov    DWORD PTR [ebp-0x1c],eax
  401a7e:	push   eax
  401a7f:	mov    DWORD PTR [ebp-0x18],esp
  401a82:	push   DWORD PTR [ebp-0x8]
  401a85:	mov    eax,DWORD PTR [ebp-0x4]
  401a88:	mov    DWORD PTR [ebp-0x4],0xfffffffe
  401a8f:	mov    DWORD PTR [ebp-0x8],eax
  401a92:	lea    eax,[ebp-0x10]
  401a95:	mov    fs:0x0,eax
  401a9b:	ret    
  401a9c:	mov    ecx,DWORD PTR [ebp-0x1c]
  401a9f:	xor    ecx,ebp
  401aa1:	call   0x4016d0
  401aa6:	jmp    0x401c71
  401aab:	int3   
  401aac:	int3   
  401aad:	int3   
  401aae:	int3   
  401aaf:	int3   
  401ab0:	mov    edi,edi
  401ab2:	push   ebp
  401ab3:	mov    ebp,esp
  401ab5:	push   DWORD PTR [ebp+0x14]
  401ab8:	push   DWORD PTR [ebp+0x10]
  401abb:	push   DWORD PTR [ebp+0xc]
  401abe:	push   DWORD PTR [ebp+0x8]
  401ac1:	push   0x4016d0
  401ac6:	push   0x402004
  401acb:	call   0x401c8a
  401ad0:	add    esp,0x18
  401ad3:	pop    ebp
  401ad4:	ret    
  401ad5:	int3   
  401ad6:	int3   
  401ad7:	int3   
  401ad8:	int3   
  401ad9:	int3   
  401ada:	int3   
  401adb:	int3   
  401adc:	int3   
  401add:	int3   
  401ade:	int3   
  401adf:	int3   
  401ae0:	ret    
  401ae1:	int3   
  401ae2:	int3   
  401ae3:	int3   
  401ae4:	int3   
  401ae5:	int3   
  401ae6:	mov    edi,edi
  401ae8:	push   ebp
  401ae9:	mov    ebp,esp
  401aeb:	push   0x0
  401aed:	call   DWORD PTR ds:0x40300c
  401af3:	push   DWORD PTR [ebp+0x8]
  401af6:	call   DWORD PTR ds:0x403008
  401afc:	push   0xc0000409
  401b01:	call   DWORD PTR ds:0x403024
  401b07:	push   eax
  401b08:	call   DWORD PTR ds:0x403020
  401b0e:	pop    ebp
  401b0f:	ret    
  401b10:	int3   
  401b11:	int3   
  401b12:	int3   
  401b13:	int3   
  401b14:	int3   
  401b15:	mov    edi,edi
  401b17:	push   ebp
  401b18:	mov    ebp,esp
  401b1a:	sub    esp,0x324
  401b20:	mov    ds:0x402140,eax
  401b25:	mov    DWORD PTR ds:0x40213c,ecx
  401b2b:	mov    DWORD PTR ds:0x402138,edx
  401b31:	mov    DWORD PTR ds:0x402134,ebx
  401b37:	mov    DWORD PTR ds:0x402130,esi
  401b3d:	mov    DWORD PTR ds:0x40212c,edi
  401b43:	data16 mov WORD PTR ds:0x402158,ss
  401b4a:	data16 mov WORD PTR ds:0x40214c,cs
  401b51:	data16 mov WORD PTR ds:0x402128,ds
  401b58:	data16 mov WORD PTR ds:0x402124,es
  401b5f:	data16 mov WORD PTR ds:0x402120,fs
  401b66:	data16 mov WORD PTR ds:0x40211c,gs
  401b6d:	pushf  
  401b6e:	pop    DWORD PTR ds:0x402150
  401b74:	mov    eax,DWORD PTR [ebp+0x0]
  401b77:	mov    ds:0x402144,eax
  401b7c:	mov    eax,DWORD PTR [ebp+0x4]
  401b7f:	mov    ds:0x402148,eax
  401b84:	lea    eax,[ebp+0x8]
  401b87:	mov    ds:0x402154,eax
  401b8c:	mov    eax,DWORD PTR [ebp-0x324]
  401b92:	mov    DWORD PTR ds:0x402090,0x10001
  401b9c:	mov    eax,ds:0x402148
  401ba1:	mov    ds:0x40204c,eax
  401ba6:	mov    DWORD PTR ds:0x402040,0xc0000409
  401bb0:	mov    DWORD PTR ds:0x402044,0x1
  401bba:	mov    DWORD PTR ds:0x402050,0x3
  401bc4:	push   0x4
  401bc6:	pop    eax
  401bc7:	imul   eax,eax,0x0
  401bca:	mov    DWORD PTR [eax+0x402054],0x2
  401bd4:	push   0x4
  401bd6:	pop    eax
  401bd7:	shl    eax,0x0
  401bda:	mov    ecx,DWORD PTR ds:0x402004
  401be0:	mov    DWORD PTR [eax+0x402054],ecx
  401be6:	push   0x4
  401be8:	pop    eax
  401be9:	shl    eax,1
  401beb:	mov    ecx,DWORD PTR ds:0x402008
  401bf1:	mov    DWORD PTR [eax+0x402054],ecx
  401bf7:	push   0x4
  401bf9:	pop    eax
  401bfa:	imul   eax,eax,0x0
  401bfd:	mov    ecx,DWORD PTR ds:0x402004
  401c03:	mov    DWORD PTR [ebp+eax*1-0x8],ecx
  401c07:	push   0x4
  401c09:	pop    eax
  401c0a:	shl    eax,0x0
  401c0d:	mov    ecx,DWORD PTR ds:0x402008
  401c13:	mov    DWORD PTR [ebp+eax*1-0x8],ecx
  401c17:	push   0x401040
  401c1c:	call   0x401ae6
  401c21:	mov    esp,ebp
  401c23:	pop    ebp
  401c24:	ret    
  401c25:	int3   
  401c26:	int3   
  401c27:	int3   
  401c28:	int3   
  401c29:	int3   
  401c2a:	int3   
  401c2b:	int3   
  401c2c:	push   0x401ab0
  401c31:	push   DWORD PTR fs:0x0
  401c38:	mov    eax,DWORD PTR [esp+0x10]
  401c3c:	mov    DWORD PTR [esp+0x10],ebp
  401c40:	lea    ebp,[esp+0x10]
  401c44:	sub    esp,eax
  401c46:	push   ebx
  401c47:	push   esi
  401c48:	push   edi
  401c49:	mov    eax,ds:0x402004
  401c4e:	xor    DWORD PTR [ebp-0x4],eax
  401c51:	xor    eax,ebp
  401c53:	push   eax
  401c54:	mov    DWORD PTR [ebp-0x18],esp
  401c57:	push   DWORD PTR [ebp-0x8]
  401c5a:	mov    eax,DWORD PTR [ebp-0x4]
  401c5d:	mov    DWORD PTR [ebp-0x4],0xfffffffe
  401c64:	mov    DWORD PTR [ebp-0x8],eax
  401c67:	lea    eax,[ebp-0x10]
  401c6a:	mov    fs:0x0,eax
  401c70:	ret    
  401c71:	mov    ecx,DWORD PTR [ebp-0x10]
  401c74:	mov    DWORD PTR fs:0x0,ecx
  401c7b:	pop    ecx
  401c7c:	pop    edi
  401c7d:	pop    edi
  401c7e:	pop    esi
  401c7f:	pop    ebx
  401c80:	mov    esp,ebp
  401c82:	pop    ebp
  401c83:	push   ecx
  401c84:	ret    
  401c85:	int3   
  401c86:	int3   
  401c87:	int3   
  401c88:	int3   
  401c89:	int3   
  401c8a:	jmp    DWORD PTR ds:0x403050
  401c90:	in     al,0xff
  401c92:	(bad)  
  401c93:	inc    DWORD PTR [eax]
  401c95:	add    BYTE PTR [eax],al
  401c97:	add    BYTE PTR [edi+edi*8+0xffff],al
  401c9e:	add    BYTE PTR [eax],al
  401ca0:	(bad)  
  401ca1:	(bad)  
  401ca2:	(bad)  
  401ca3:	inc    DWORD PTR [esi+0x16]
  401ca6:	inc    eax
  401ca7:	add    BYTE PTR [edx+0x16],cl
  401caa:	inc    eax
  401cab:	add    dh,bh
  401cad:	(bad)  
  401cae:	(bad)  
  401caf:	(bad)  
  401cb0:	cli    
  401cb1:	adc    eax,0x160e0040
  401cb6:	inc    eax
  401cb7:	add    dh,bh
  401cb9:	(bad)  
  401cba:	(bad)  
  401cbb:	inc    DWORD PTR [eax]
  401cbd:	add    BYTE PTR [eax],al
  401cbf:	add    ah,dl
  401cc1:	(bad)  
  401cc2:	(bad)  
  401cc3:	inc    DWORD PTR [eax]
  401cc5:	add    BYTE PTR [eax],al
  401cc7:	add    dh,bh
  401cc9:	(bad)  
  401cca:	(bad)  
  401ccb:	jmp    FWORD PTR [edi+edx*1+0x17b00040]
  401cd2:	inc    eax
  401cd3:	add    BYTE PTR [eax],al
  401cd5:	add    BYTE PTR [eax],al
  401cd7:	add    dh,bh
  401cd9:	(bad)  
  401cda:	(bad)  
  401cdb:	inc    DWORD PTR [eax]
  401cdd:	add    BYTE PTR [eax],al
  401cdf:	add    al,bl
  401ce1:	(bad)  
  401ce2:	(bad)  
  401ce3:	inc    DWORD PTR [eax]
  401ce5:	add    BYTE PTR [eax],al
  401ce7:	add    dh,bh
  401ce9:	(bad)  
  401cea:	(bad)  
  401ceb:	dec    DWORD PTR [ebx]
  401ced:	sbb    DWORD PTR [eax+0x0],eax
  401cf0:	push   ds
  401cf1:	sbb    DWORD PTR [eax+0x0],eax
